
scope.elf:     file format elf32-littlearm


Disassembly of section .text:

00008000 <_start>:
    8000:	e3a0d302 	mov	sp, #134217728	; 0x8000000
    8004:	e3a0b000 	mov	fp, #0
    8008:	eb000349 	bl	8d34 <_cstart>
    800c:	eb000377 	bl	8df0 <rpi_reboot>

00008010 <scope.constprop.3>:
    8010:	e92d03f0 	push	{r4, r5, r6, r7, r8, r9}
    8014:	e59f2168 	ldr	r2, [pc, #360]	; 8184 <scope.constprop.3+0x174>
    8018:	e5923034 	ldr	r3, [r2, #52]	; 0x34
    801c:	e3130601 	tst	r3, #1048576	; 0x100000
    8020:	1afffffc 	bne	8018 <scope.constprop.3+0x8>
    8024:	ee1f3f3c 	mrc	15, 0, r3, cr15, cr12, {1}
    8028:	e59f1158 	ldr	r1, [pc, #344]	; 8188 <scope.constprop.3+0x178>
    802c:	ee1f2f3c 	mrc	15, 0, r2, cr15, cr12, {1}
    8030:	e0632002 	rsb	r2, r3, r2
    8034:	e1520001 	cmp	r2, r1
    8038:	9afffffb 	bls	802c <scope.constprop.3+0x1c>
    803c:	e59f2140 	ldr	r2, [pc, #320]	; 8184 <scope.constprop.3+0x174>
    8040:	e59f1144 	ldr	r1, [pc, #324]	; 818c <scope.constprop.3+0x17c>
    8044:	e5924034 	ldr	r4, [r2, #52]	; 0x34
    8048:	e2044601 	and	r4, r4, #1048576	; 0x100000
    804c:	e1a04a24 	lsr	r4, r4, #20
    8050:	ee1f2f3c 	mrc	15, 0, r2, cr15, cr12, {1}
    8054:	e0632002 	rsb	r2, r3, r2
    8058:	e1520001 	cmp	r2, r1
    805c:	9afffffb 	bls	8050 <scope.constprop.3+0x40>
    8060:	e59f211c 	ldr	r2, [pc, #284]	; 8184 <scope.constprop.3+0x174>
    8064:	e59f1124 	ldr	r1, [pc, #292]	; 8190 <scope.constprop.3+0x180>
    8068:	e5925034 	ldr	r5, [r2, #52]	; 0x34
    806c:	e2055601 	and	r5, r5, #1048576	; 0x100000
    8070:	e1a05a25 	lsr	r5, r5, #20
    8074:	ee1f2f3c 	mrc	15, 0, r2, cr15, cr12, {1}
    8078:	e0632002 	rsb	r2, r3, r2
    807c:	e1520001 	cmp	r2, r1
    8080:	9afffffb 	bls	8074 <scope.constprop.3+0x64>
    8084:	e59f20f8 	ldr	r2, [pc, #248]	; 8184 <scope.constprop.3+0x174>
    8088:	e59f1104 	ldr	r1, [pc, #260]	; 8194 <scope.constprop.3+0x184>
    808c:	e5926034 	ldr	r6, [r2, #52]	; 0x34
    8090:	e2066601 	and	r6, r6, #1048576	; 0x100000
    8094:	e1a06a26 	lsr	r6, r6, #20
    8098:	ee1f2f3c 	mrc	15, 0, r2, cr15, cr12, {1}
    809c:	e0632002 	rsb	r2, r3, r2
    80a0:	e1520001 	cmp	r2, r1
    80a4:	9afffffb 	bls	8098 <scope.constprop.3+0x88>
    80a8:	e59f20d4 	ldr	r2, [pc, #212]	; 8184 <scope.constprop.3+0x174>
    80ac:	e59f10e4 	ldr	r1, [pc, #228]	; 8198 <scope.constprop.3+0x188>
    80b0:	e592c034 	ldr	ip, [r2, #52]	; 0x34
    80b4:	e20cc601 	and	ip, ip, #1048576	; 0x100000
    80b8:	e1a0ca2c 	lsr	ip, ip, #20
    80bc:	ee1f2f3c 	mrc	15, 0, r2, cr15, cr12, {1}
    80c0:	e0632002 	rsb	r2, r3, r2
    80c4:	e1520001 	cmp	r2, r1
    80c8:	9afffffb 	bls	80bc <scope.constprop.3+0xac>
    80cc:	e59f20b0 	ldr	r2, [pc, #176]	; 8184 <scope.constprop.3+0x174>
    80d0:	e59f00c4 	ldr	r0, [pc, #196]	; 819c <scope.constprop.3+0x18c>
    80d4:	e5921034 	ldr	r1, [r2, #52]	; 0x34
    80d8:	e2011601 	and	r1, r1, #1048576	; 0x100000
    80dc:	e1a01a21 	lsr	r1, r1, #20
    80e0:	ee1f2f3c 	mrc	15, 0, r2, cr15, cr12, {1}
    80e4:	e0632002 	rsb	r2, r3, r2
    80e8:	e1520000 	cmp	r2, r0
    80ec:	9afffffb 	bls	80e0 <scope.constprop.3+0xd0>
    80f0:	e59f208c 	ldr	r2, [pc, #140]	; 8184 <scope.constprop.3+0x174>
    80f4:	e59f00a4 	ldr	r0, [pc, #164]	; 81a0 <scope.constprop.3+0x190>
    80f8:	e5927034 	ldr	r7, [r2, #52]	; 0x34
    80fc:	e2077601 	and	r7, r7, #1048576	; 0x100000
    8100:	e1a07a27 	lsr	r7, r7, #20
    8104:	ee1f2f3c 	mrc	15, 0, r2, cr15, cr12, {1}
    8108:	e0632002 	rsb	r2, r3, r2
    810c:	e1520000 	cmp	r2, r0
    8110:	9afffffb 	bls	8104 <scope.constprop.3+0xf4>
    8114:	e59f2068 	ldr	r2, [pc, #104]	; 8184 <scope.constprop.3+0x174>
    8118:	e59f0084 	ldr	r0, [pc, #132]	; 81a4 <scope.constprop.3+0x194>
    811c:	e5929034 	ldr	r9, [r2, #52]	; 0x34
    8120:	e2099601 	and	r9, r9, #1048576	; 0x100000
    8124:	e1a09a29 	lsr	r9, r9, #20
    8128:	ee1f2f3c 	mrc	15, 0, r2, cr15, cr12, {1}
    812c:	e0632002 	rsb	r2, r3, r2
    8130:	e1520000 	cmp	r2, r0
    8134:	9afffffb 	bls	8128 <scope.constprop.3+0x118>
    8138:	e59f2044 	ldr	r2, [pc, #68]	; 8184 <scope.constprop.3+0x174>
    813c:	e59f8064 	ldr	r8, [pc, #100]	; 81a8 <scope.constprop.3+0x198>
    8140:	e5920034 	ldr	r0, [r2, #52]	; 0x34
    8144:	e2000601 	and	r0, r0, #1048576	; 0x100000
    8148:	e1a00a20 	lsr	r0, r0, #20
    814c:	ee1f2f3c 	mrc	15, 0, r2, cr15, cr12, {1}
    8150:	e0632002 	rsb	r2, r3, r2
    8154:	e1520008 	cmp	r2, r8
    8158:	9afffffb 	bls	814c <scope.constprop.3+0x13c>
    815c:	e1a06106 	lsl	r6, r6, #2
    8160:	e1865085 	orr	r5, r6, r5, lsl #1
    8164:	e1854004 	orr	r4, r5, r4
    8168:	e184c18c 	orr	ip, r4, ip, lsl #3
    816c:	e18c1201 	orr	r1, ip, r1, lsl #4
    8170:	e1817287 	orr	r7, r1, r7, lsl #5
    8174:	e1879309 	orr	r9, r7, r9, lsl #6
    8178:	e1890380 	orr	r0, r9, r0, lsl #7
    817c:	e8bd03f0 	pop	{r4, r5, r6, r7, r8, r9}
    8180:	e12fff1e 	bx	lr
    8184:	20200000 	eorcs	r0, r0, r0
    8188:	00002399 	muleq	r0, r9, r3
    818c:	00002f77 	andeq	r2, r0, r7, ror pc
    8190:	00004733 	andeq	r4, r0, r3, lsr r7
    8194:	00005eef 	andeq	r5, r0, pc, ror #29
    8198:	000076ab 	andeq	r7, r0, fp, lsr #13
    819c:	00008e67 	andeq	r8, r0, r7, ror #28
    81a0:	0000a623 	andeq	sl, r0, r3, lsr #12
    81a4:	0000bddf 	ldrdeq	fp, [r0], -pc	; <UNPREDICTABLE>
    81a8:	0000d59b 	muleq	r0, fp, r5

000081ac <cycles_per_sec>:
    81ac:	e3500001 	cmp	r0, #1
    81b0:	e92d4010 	push	{r4, lr}
    81b4:	8a000006 	bhi	81d4 <cycles_per_sec+0x28>
    81b8:	ee1f4f3c 	mrc	15, 0, r4, cr15, cr12, {1}
    81bc:	e3a03ffa 	mov	r3, #1000	; 0x3e8
    81c0:	e0000093 	mul	r0, r3, r0
    81c4:	eb000333 	bl	8e98 <delay_ms>
    81c8:	ee1f0f3c 	mrc	15, 0, r0, cr15, cr12, {1}
    81cc:	e0640000 	rsb	r0, r4, r0
    81d0:	e8bd8010 	pop	{r4, pc}
    81d4:	eb00015c 	bl	874c <rpi_reset_putc>
    81d8:	e59f1010 	ldr	r1, [pc, #16]	; 81f0 <cycles_per_sec+0x44>
    81dc:	e59f2010 	ldr	r2, [pc, #16]	; 81f4 <cycles_per_sec+0x48>
    81e0:	e3a0303a 	mov	r3, #58	; 0x3a
    81e4:	e59f000c 	ldr	r0, [pc, #12]	; 81f8 <cycles_per_sec+0x4c>
    81e8:	eb00013c 	bl	86e0 <printk>
    81ec:	eb0002be 	bl	8cec <clean_reboot>
    81f0:	00009dcc 	andeq	r9, r0, ip, asr #27
    81f4:	00009d8c 	andeq	r9, r0, ip, lsl #27
    81f8:	00009d9c 	muleq	r0, ip, sp

000081fc <scope>:
    81fc:	e92d03f0 	push	{r4, r5, r6, r7, r8, r9}
    8200:	e59f2168 	ldr	r2, [pc, #360]	; 8370 <scope+0x174>
    8204:	e5923034 	ldr	r3, [r2, #52]	; 0x34
    8208:	e3130601 	tst	r3, #1048576	; 0x100000
    820c:	1afffffc 	bne	8204 <scope+0x8>
    8210:	ee1f3f3c 	mrc	15, 0, r3, cr15, cr12, {1}
    8214:	e59f1158 	ldr	r1, [pc, #344]	; 8374 <scope+0x178>
    8218:	ee1f2f3c 	mrc	15, 0, r2, cr15, cr12, {1}
    821c:	e0632002 	rsb	r2, r3, r2
    8220:	e1520001 	cmp	r2, r1
    8224:	9afffffb 	bls	8218 <scope+0x1c>
    8228:	e59f2140 	ldr	r2, [pc, #320]	; 8370 <scope+0x174>
    822c:	e59f1144 	ldr	r1, [pc, #324]	; 8378 <scope+0x17c>
    8230:	e5924034 	ldr	r4, [r2, #52]	; 0x34
    8234:	e2044601 	and	r4, r4, #1048576	; 0x100000
    8238:	e1a04a24 	lsr	r4, r4, #20
    823c:	ee1f2f3c 	mrc	15, 0, r2, cr15, cr12, {1}
    8240:	e0632002 	rsb	r2, r3, r2
    8244:	e1520001 	cmp	r2, r1
    8248:	9afffffb 	bls	823c <scope+0x40>
    824c:	e59f211c 	ldr	r2, [pc, #284]	; 8370 <scope+0x174>
    8250:	e59f1124 	ldr	r1, [pc, #292]	; 837c <scope+0x180>
    8254:	e5925034 	ldr	r5, [r2, #52]	; 0x34
    8258:	e2055601 	and	r5, r5, #1048576	; 0x100000
    825c:	e1a05a25 	lsr	r5, r5, #20
    8260:	ee1f2f3c 	mrc	15, 0, r2, cr15, cr12, {1}
    8264:	e0632002 	rsb	r2, r3, r2
    8268:	e1520001 	cmp	r2, r1
    826c:	9afffffb 	bls	8260 <scope+0x64>
    8270:	e59f20f8 	ldr	r2, [pc, #248]	; 8370 <scope+0x174>
    8274:	e59f1104 	ldr	r1, [pc, #260]	; 8380 <scope+0x184>
    8278:	e5926034 	ldr	r6, [r2, #52]	; 0x34
    827c:	e2066601 	and	r6, r6, #1048576	; 0x100000
    8280:	e1a06a26 	lsr	r6, r6, #20
    8284:	ee1f2f3c 	mrc	15, 0, r2, cr15, cr12, {1}
    8288:	e0632002 	rsb	r2, r3, r2
    828c:	e1520001 	cmp	r2, r1
    8290:	9afffffb 	bls	8284 <scope+0x88>
    8294:	e59f20d4 	ldr	r2, [pc, #212]	; 8370 <scope+0x174>
    8298:	e59f10e4 	ldr	r1, [pc, #228]	; 8384 <scope+0x188>
    829c:	e592c034 	ldr	ip, [r2, #52]	; 0x34
    82a0:	e20cc601 	and	ip, ip, #1048576	; 0x100000
    82a4:	e1a0ca2c 	lsr	ip, ip, #20
    82a8:	ee1f2f3c 	mrc	15, 0, r2, cr15, cr12, {1}
    82ac:	e0632002 	rsb	r2, r3, r2
    82b0:	e1520001 	cmp	r2, r1
    82b4:	9afffffb 	bls	82a8 <scope+0xac>
    82b8:	e59f20b0 	ldr	r2, [pc, #176]	; 8370 <scope+0x174>
    82bc:	e59f00c4 	ldr	r0, [pc, #196]	; 8388 <scope+0x18c>
    82c0:	e5921034 	ldr	r1, [r2, #52]	; 0x34
    82c4:	e2011601 	and	r1, r1, #1048576	; 0x100000
    82c8:	e1a01a21 	lsr	r1, r1, #20
    82cc:	ee1f2f3c 	mrc	15, 0, r2, cr15, cr12, {1}
    82d0:	e0632002 	rsb	r2, r3, r2
    82d4:	e1520000 	cmp	r2, r0
    82d8:	9afffffb 	bls	82cc <scope+0xd0>
    82dc:	e59f208c 	ldr	r2, [pc, #140]	; 8370 <scope+0x174>
    82e0:	e59f00a4 	ldr	r0, [pc, #164]	; 838c <scope+0x190>
    82e4:	e5927034 	ldr	r7, [r2, #52]	; 0x34
    82e8:	e2077601 	and	r7, r7, #1048576	; 0x100000
    82ec:	e1a07a27 	lsr	r7, r7, #20
    82f0:	ee1f2f3c 	mrc	15, 0, r2, cr15, cr12, {1}
    82f4:	e0632002 	rsb	r2, r3, r2
    82f8:	e1520000 	cmp	r2, r0
    82fc:	9afffffb 	bls	82f0 <scope+0xf4>
    8300:	e59f2068 	ldr	r2, [pc, #104]	; 8370 <scope+0x174>
    8304:	e59f0084 	ldr	r0, [pc, #132]	; 8390 <scope+0x194>
    8308:	e5929034 	ldr	r9, [r2, #52]	; 0x34
    830c:	e2099601 	and	r9, r9, #1048576	; 0x100000
    8310:	e1a09a29 	lsr	r9, r9, #20
    8314:	ee1f2f3c 	mrc	15, 0, r2, cr15, cr12, {1}
    8318:	e0632002 	rsb	r2, r3, r2
    831c:	e1520000 	cmp	r2, r0
    8320:	9afffffb 	bls	8314 <scope+0x118>
    8324:	e59f2044 	ldr	r2, [pc, #68]	; 8370 <scope+0x174>
    8328:	e59f8064 	ldr	r8, [pc, #100]	; 8394 <scope+0x198>
    832c:	e5920034 	ldr	r0, [r2, #52]	; 0x34
    8330:	e2000601 	and	r0, r0, #1048576	; 0x100000
    8334:	e1a00a20 	lsr	r0, r0, #20
    8338:	ee1f2f3c 	mrc	15, 0, r2, cr15, cr12, {1}
    833c:	e0632002 	rsb	r2, r3, r2
    8340:	e1520008 	cmp	r2, r8
    8344:	9afffffb 	bls	8338 <scope+0x13c>
    8348:	e1a06106 	lsl	r6, r6, #2
    834c:	e1865085 	orr	r5, r6, r5, lsl #1
    8350:	e1854004 	orr	r4, r5, r4
    8354:	e184c18c 	orr	ip, r4, ip, lsl #3
    8358:	e18c1201 	orr	r1, ip, r1, lsl #4
    835c:	e1817287 	orr	r7, r1, r7, lsl #5
    8360:	e1879309 	orr	r9, r7, r9, lsl #6
    8364:	e1890380 	orr	r0, r9, r0, lsl #7
    8368:	e8bd03f0 	pop	{r4, r5, r6, r7, r8, r9}
    836c:	e12fff1e 	bx	lr
    8370:	20200000 	eorcs	r0, r0, r0
    8374:	00002399 	muleq	r0, r9, r3
    8378:	00002f77 	andeq	r2, r0, r7, ror pc
    837c:	00004733 	andeq	r4, r0, r3, lsr r7
    8380:	00005eef 	andeq	r5, r0, pc, ror #29
    8384:	000076ab 	andeq	r7, r0, fp, lsr #13
    8388:	00008e67 	andeq	r8, r0, r7, ror #28
    838c:	0000a623 	andeq	sl, r0, r3, lsr #12
    8390:	0000bddf 	ldrdeq	fp, [r0], -pc	; <UNPREDICTABLE>
    8394:	0000d59b 	muleq	r0, fp, r5

00008398 <test_gen>:
    8398:	e92d0070 	push	{r4, r5, r6}
    839c:	ee1f3f3c 	mrc	15, 0, r3, cr15, cr12, {1}
    83a0:	e3a0c001 	mov	ip, #1
    83a4:	e1a0001c 	lsl	r0, ip, r0
    83a8:	e59fc1f0 	ldr	ip, [pc, #496]	; 85a0 <test_gen+0x208>
    83ac:	e59c4028 	ldr	r4, [ip, #40]	; 0x28
    83b0:	e1804004 	orr	r4, r0, r4
    83b4:	e58c4028 	str	r4, [ip, #40]	; 0x28
    83b8:	ee1fcf3c 	mrc	15, 0, ip, cr15, cr12, {1}
    83bc:	e063c00c 	rsb	ip, r3, ip
    83c0:	e15c0002 	cmp	ip, r2
    83c4:	3afffffb 	bcc	83b8 <test_gen+0x20>
    83c8:	e59fc1d0 	ldr	ip, [pc, #464]	; 85a0 <test_gen+0x208>
    83cc:	e3110001 	tst	r1, #1
    83d0:	159c401c 	ldrne	r4, [ip, #28]
    83d4:	059c4028 	ldreq	r4, [ip, #40]	; 0x28
    83d8:	11804004 	orrne	r4, r0, r4
    83dc:	01804004 	orreq	r4, r0, r4
    83e0:	158c401c 	strne	r4, [ip, #28]
    83e4:	058c4028 	streq	r4, [ip, #40]	; 0x28
    83e8:	e1a05082 	lsl	r5, r2, #1
    83ec:	ee1fcf3c 	mrc	15, 0, ip, cr15, cr12, {1}
    83f0:	e063c00c 	rsb	ip, r3, ip
    83f4:	e15c0005 	cmp	ip, r5
    83f8:	3afffffb 	bcc	83ec <test_gen+0x54>
    83fc:	e59fc19c 	ldr	ip, [pc, #412]	; 85a0 <test_gen+0x208>
    8400:	e3110002 	tst	r1, #2
    8404:	159c401c 	ldrne	r4, [ip, #28]
    8408:	059c4028 	ldreq	r4, [ip, #40]	; 0x28
    840c:	11804004 	orrne	r4, r0, r4
    8410:	01804004 	orreq	r4, r0, r4
    8414:	158c401c 	strne	r4, [ip, #28]
    8418:	058c4028 	streq	r4, [ip, #40]	; 0x28
    841c:	e0854002 	add	r4, r5, r2
    8420:	ee1fcf3c 	mrc	15, 0, ip, cr15, cr12, {1}
    8424:	e063c00c 	rsb	ip, r3, ip
    8428:	e15c0004 	cmp	ip, r4
    842c:	3afffffb 	bcc	8420 <test_gen+0x88>
    8430:	e59fc168 	ldr	ip, [pc, #360]	; 85a0 <test_gen+0x208>
    8434:	e3110004 	tst	r1, #4
    8438:	159c401c 	ldrne	r4, [ip, #28]
    843c:	059c4028 	ldreq	r4, [ip, #40]	; 0x28
    8440:	11804004 	orrne	r4, r0, r4
    8444:	01804004 	orreq	r4, r0, r4
    8448:	158c401c 	strne	r4, [ip, #28]
    844c:	058c4028 	streq	r4, [ip, #40]	; 0x28
    8450:	e1a04102 	lsl	r4, r2, #2
    8454:	ee1fcf3c 	mrc	15, 0, ip, cr15, cr12, {1}
    8458:	e063c00c 	rsb	ip, r3, ip
    845c:	e15c0004 	cmp	ip, r4
    8460:	3afffffb 	bcc	8454 <test_gen+0xbc>
    8464:	e59fc134 	ldr	ip, [pc, #308]	; 85a0 <test_gen+0x208>
    8468:	e3110008 	tst	r1, #8
    846c:	159c601c 	ldrne	r6, [ip, #28]
    8470:	059c6028 	ldreq	r6, [ip, #40]	; 0x28
    8474:	11806006 	orrne	r6, r0, r6
    8478:	01806006 	orreq	r6, r0, r6
    847c:	158c601c 	strne	r6, [ip, #28]
    8480:	058c6028 	streq	r6, [ip, #40]	; 0x28
    8484:	e0846002 	add	r6, r4, r2
    8488:	ee1fcf3c 	mrc	15, 0, ip, cr15, cr12, {1}
    848c:	e063c00c 	rsb	ip, r3, ip
    8490:	e15c0006 	cmp	ip, r6
    8494:	3afffffb 	bcc	8488 <test_gen+0xf0>
    8498:	e59fc100 	ldr	ip, [pc, #256]	; 85a0 <test_gen+0x208>
    849c:	e3110010 	tst	r1, #16
    84a0:	159c601c 	ldrne	r6, [ip, #28]
    84a4:	059c6028 	ldreq	r6, [ip, #40]	; 0x28
    84a8:	11806006 	orrne	r6, r0, r6
    84ac:	01806006 	orreq	r6, r0, r6
    84b0:	e0855002 	add	r5, r5, r2
    84b4:	158c601c 	strne	r6, [ip, #28]
    84b8:	058c6028 	streq	r6, [ip, #40]	; 0x28
    84bc:	e1a05085 	lsl	r5, r5, #1
    84c0:	ee1fcf3c 	mrc	15, 0, ip, cr15, cr12, {1}
    84c4:	e063c00c 	rsb	ip, r3, ip
    84c8:	e15c0005 	cmp	ip, r5
    84cc:	3afffffb 	bcc	84c0 <test_gen+0x128>
    84d0:	e59fc0c8 	ldr	ip, [pc, #200]	; 85a0 <test_gen+0x208>
    84d4:	e3110020 	tst	r1, #32
    84d8:	159c501c 	ldrne	r5, [ip, #28]
    84dc:	059c5028 	ldreq	r5, [ip, #40]	; 0x28
    84e0:	11805005 	orrne	r5, r0, r5
    84e4:	01805005 	orreq	r5, r0, r5
    84e8:	158c501c 	strne	r5, [ip, #28]
    84ec:	058c5028 	streq	r5, [ip, #40]	; 0x28
    84f0:	e1a05182 	lsl	r5, r2, #3
    84f4:	e0626005 	rsb	r6, r2, r5
    84f8:	ee1fcf3c 	mrc	15, 0, ip, cr15, cr12, {1}
    84fc:	e063c00c 	rsb	ip, r3, ip
    8500:	e15c0006 	cmp	ip, r6
    8504:	3afffffb 	bcc	84f8 <test_gen+0x160>
    8508:	e59fc090 	ldr	ip, [pc, #144]	; 85a0 <test_gen+0x208>
    850c:	e3110040 	tst	r1, #64	; 0x40
    8510:	159c601c 	ldrne	r6, [ip, #28]
    8514:	059c6028 	ldreq	r6, [ip, #40]	; 0x28
    8518:	11806006 	orrne	r6, r0, r6
    851c:	01806006 	orreq	r6, r0, r6
    8520:	158c601c 	strne	r6, [ip, #28]
    8524:	058c6028 	streq	r6, [ip, #40]	; 0x28
    8528:	ee1fcf3c 	mrc	15, 0, ip, cr15, cr12, {1}
    852c:	e063c00c 	rsb	ip, r3, ip
    8530:	e15c0005 	cmp	ip, r5
    8534:	3afffffb 	bcc	8528 <test_gen+0x190>
    8538:	e3110080 	tst	r1, #128	; 0x80
    853c:	e59f105c 	ldr	r1, [pc, #92]	; 85a0 <test_gen+0x208>
    8540:	e0855002 	add	r5, r5, r2
    8544:	1591c01c 	ldrne	ip, [r1, #28]
    8548:	0591c028 	ldreq	ip, [r1, #40]	; 0x28
    854c:	1180c00c 	orrne	ip, r0, ip
    8550:	0180c00c 	orreq	ip, r0, ip
    8554:	1581c01c 	strne	ip, [r1, #28]
    8558:	0581c028 	streq	ip, [r1, #40]	; 0x28
    855c:	ee1f1f3c 	mrc	15, 0, r1, cr15, cr12, {1}
    8560:	e0631001 	rsb	r1, r3, r1
    8564:	e1510005 	cmp	r1, r5
    8568:	3afffffb 	bcc	855c <test_gen+0x1c4>
    856c:	e59f102c 	ldr	r1, [pc, #44]	; 85a0 <test_gen+0x208>
    8570:	e0844002 	add	r4, r4, r2
    8574:	e591c01c 	ldr	ip, [r1, #28]
    8578:	e1a04084 	lsl	r4, r4, #1
    857c:	e180000c 	orr	r0, r0, ip
    8580:	e581001c 	str	r0, [r1, #28]
    8584:	ee1f2f3c 	mrc	15, 0, r2, cr15, cr12, {1}
    8588:	e0632002 	rsb	r2, r3, r2
    858c:	e1520004 	cmp	r2, r4
    8590:	3afffffb 	bcc	8584 <test_gen+0x1ec>
    8594:	ee1f3f3c 	mrc	15, 0, r3, cr15, cr12, {1}
    8598:	e8bd0070 	pop	{r4, r5, r6}
    859c:	e12fff1e 	bx	lr
    85a0:	20200000 	eorcs	r0, r0, r0

000085a4 <notmain>:
    85a4:	e92d40f8 	push	{r3, r4, r5, r6, r7, lr}
    85a8:	e3a00015 	mov	r0, #21
    85ac:	eb000243 	bl	8ec0 <gpio_set_output>
    85b0:	e3a00014 	mov	r0, #20
    85b4:	eb000292 	bl	9004 <gpio_set_input>
    85b8:	eb0001c3 	bl	8ccc <enable_cache>
    85bc:	e3a03001 	mov	r3, #1
    85c0:	ee0f3f1c 	mcr	15, 0, r3, cr15, cr12, {0}
    85c4:	e3a00014 	mov	r0, #20
    85c8:	eb0002c0 	bl	90d0 <gpio_read>
    85cc:	e2504000 	subs	r4, r0, #0
    85d0:	1a00001a 	bne	8640 <notmain+0x9c>
    85d4:	e59f00e0 	ldr	r0, [pc, #224]	; 86bc <notmain+0x118>
    85d8:	eb000040 	bl	86e0 <printk>
    85dc:	e3a06001 	mov	r6, #1
    85e0:	e1a01004 	mov	r1, r4
    85e4:	e3a00015 	mov	r0, #21
    85e8:	e59f20d0 	ldr	r2, [pc, #208]	; 86c0 <notmain+0x11c>
    85ec:	ebffff69 	bl	8398 <test_gen>
    85f0:	e1a05006 	mov	r5, r6
    85f4:	e3a040fe 	mov	r4, #254	; 0xfe
    85f8:	ea000001 	b	8604 <notmain+0x60>
    85fc:	e2544001 	subs	r4, r4, #1
    8600:	0a00000a 	beq	8630 <notmain+0x8c>
    8604:	ebfffe81 	bl	8010 <scope.constprop.3>
    8608:	e1500005 	cmp	r0, r5
    860c:	1afffffa 	bne	85fc <notmain+0x58>
    8610:	e2856001 	add	r6, r5, #1
    8614:	e6ef1076 	uxtb	r1, r6
    8618:	e3a00015 	mov	r0, #21
    861c:	e59f209c 	ldr	r2, [pc, #156]	; 86c0 <notmain+0x11c>
    8620:	ebffff5c 	bl	8398 <test_gen>
    8624:	e2544001 	subs	r4, r4, #1
    8628:	e2855002 	add	r5, r5, #2
    862c:	1afffff4 	bne	8604 <notmain+0x60>
    8630:	e1a01006 	mov	r1, r6
    8634:	e59f0088 	ldr	r0, [pc, #136]	; 86c4 <notmain+0x120>
    8638:	eb000028 	bl	86e0 <printk>
    863c:	eb0001aa 	bl	8cec <clean_reboot>
    8640:	e59f0080 	ldr	r0, [pc, #128]	; 86c8 <notmain+0x124>
    8644:	eb000025 	bl	86e0 <printk>
    8648:	e59f007c 	ldr	r0, [pc, #124]	; 86cc <notmain+0x128>
    864c:	eb000023 	bl	86e0 <printk>
    8650:	e59f7078 	ldr	r7, [pc, #120]	; 86d0 <notmain+0x12c>
    8654:	e3a05000 	mov	r5, #0
    8658:	ebfffe6c 	bl	8010 <scope.constprop.3>
    865c:	e1500005 	cmp	r0, r5
    8660:	e1a04000 	mov	r4, r0
    8664:	1afffffb 	bne	8658 <notmain+0xb4>
    8668:	e1a01005 	mov	r1, r5
    866c:	e59f0060 	ldr	r0, [pc, #96]	; 86d4 <notmain+0x130>
    8670:	eb00001a 	bl	86e0 <printk>
    8674:	e597301c 	ldr	r3, [r7, #28]
    8678:	e2856001 	add	r6, r5, #1
    867c:	e3833602 	orr	r3, r3, #2097152	; 0x200000
    8680:	e587301c 	str	r3, [r7, #28]
    8684:	e1a01006 	mov	r1, r6
    8688:	e59f0048 	ldr	r0, [pc, #72]	; 86d8 <notmain+0x134>
    868c:	eb000013 	bl	86e0 <printk>
    8690:	e6ef1076 	uxtb	r1, r6
    8694:	e3a00015 	mov	r0, #21
    8698:	e59f2020 	ldr	r2, [pc, #32]	; 86c0 <notmain+0x11c>
    869c:	ebffff3d 	bl	8398 <test_gen>
    86a0:	e35600fd 	cmp	r6, #253	; 0xfd
    86a4:	e2855002 	add	r5, r5, #2
    86a8:	9affffea 	bls	8658 <notmain+0xb4>
    86ac:	e1a01004 	mov	r1, r4
    86b0:	e59f0024 	ldr	r0, [pc, #36]	; 86dc <notmain+0x138>
    86b4:	eb000009 	bl	86e0 <printk>
    86b8:	eaffffdf 	b	863c <notmain+0x98>
    86bc:	00009dd4 	ldrdeq	r9, [r0], -r4
    86c0:	000017bc 			; <UNDEFINED> instruction: 0x000017bc
    86c4:	00009dec 	andeq	r9, r0, ip, ror #27
    86c8:	00009e08 	andeq	r9, r0, r8, lsl #28
    86cc:	00009e18 	andeq	r9, r0, r8, lsl lr
    86d0:	20200000 	eorcs	r0, r0, r0
    86d4:	00009e28 	andeq	r9, r0, r8, lsr #28
    86d8:	00009e30 	andeq	r9, r0, r0, lsr lr
    86dc:	00009e3c 	andeq	r9, r0, ip, lsr lr

000086e0 <printk>:
    86e0:	e92d000f 	push	{r0, r1, r2, r3}
    86e4:	e92d4030 	push	{r4, r5, lr}
    86e8:	e24dd00c 	sub	sp, sp, #12
    86ec:	e28d301c 	add	r3, sp, #28
    86f0:	e58d3004 	str	r3, [sp, #4]
    86f4:	e59f4034 	ldr	r4, [pc, #52]	; 8730 <printk+0x50>
    86f8:	e1a00004 	mov	r0, r4
    86fc:	e3a01b01 	mov	r1, #1024	; 0x400
    8700:	e59d2018 	ldr	r2, [sp, #24]
    8704:	eb0000cb 	bl	8a38 <va_printk>
    8708:	e1a05000 	mov	r5, r0
    870c:	e59f3020 	ldr	r3, [pc, #32]	; 8734 <printk+0x54>
    8710:	e5933000 	ldr	r3, [r3]
    8714:	e1a00004 	mov	r0, r4
    8718:	e12fff33 	blx	r3
    871c:	e1a00005 	mov	r0, r5
    8720:	e28dd00c 	add	sp, sp, #12
    8724:	e8bd4030 	pop	{r4, r5, lr}
    8728:	e28dd010 	add	sp, sp, #16
    872c:	e12fff1e 	bx	lr
    8730:	0000a094 	muleq	r0, r4, r0
    8734:	00009cf4 	strdeq	r9, [r0], -r4

00008738 <internal_putchar>:
    8738:	e92d4010 	push	{r4, lr}
    873c:	e1a04000 	mov	r4, r0
    8740:	eb00051f 	bl	9bc4 <uart_putc>
    8744:	e1a00004 	mov	r0, r4
    8748:	e8bd8010 	pop	{r4, pc}

0000874c <rpi_reset_putc>:
    874c:	e59f2008 	ldr	r2, [pc, #8]	; 875c <rpi_reset_putc+0x10>
    8750:	e59f3008 	ldr	r3, [pc, #8]	; 8760 <rpi_reset_putc+0x14>
    8754:	e5832000 	str	r2, [r3]
    8758:	e12fff1e 	bx	lr
    875c:	00008738 	andeq	r8, r0, r8, lsr r7
    8760:	00009cf0 	strdeq	r9, [r0], -r0

00008764 <rpi_set_putc>:
    8764:	e59f3004 	ldr	r3, [pc, #4]	; 8770 <rpi_set_putc+0xc>
    8768:	e5830000 	str	r0, [r3]
    876c:	e12fff1e 	bx	lr
    8770:	00009cf0 	strdeq	r9, [r0], -r0

00008774 <internal_putk>:
    8774:	e92d4038 	push	{r3, r4, r5, lr}
    8778:	e1a04000 	mov	r4, r0
    877c:	e59f5020 	ldr	r5, [pc, #32]	; 87a4 <internal_putk+0x30>
    8780:	ea000002 	b	8790 <internal_putk+0x1c>
    8784:	e5953000 	ldr	r3, [r5]
    8788:	e12fff33 	blx	r3
    878c:	e2844001 	add	r4, r4, #1
    8790:	e5d40000 	ldrb	r0, [r4]
    8794:	e3500000 	cmp	r0, #0
    8798:	1afffff9 	bne	8784 <internal_putk+0x10>
    879c:	e3a00001 	mov	r0, #1
    87a0:	e8bd8038 	pop	{r3, r4, r5, pc}
    87a4:	00009cf0 	strdeq	r9, [r0], -r0

000087a8 <isdigit>:
    87a8:	e2400030 	sub	r0, r0, #48	; 0x30
    87ac:	e3500009 	cmp	r0, #9
    87b0:	83a00000 	movhi	r0, #0
    87b4:	93a00001 	movls	r0, #1
    87b8:	e12fff1e 	bx	lr

000087bc <pad>:
    87bc:	e0611000 	rsb	r1, r1, r0
    87c0:	e3a03020 	mov	r3, #32
    87c4:	ea000002 	b	87d4 <pad+0x18>
    87c8:	e5c03000 	strb	r3, [r0]
    87cc:	e2811001 	add	r1, r1, #1
    87d0:	e2800001 	add	r0, r0, #1
    87d4:	e1510002 	cmp	r1, r2
    87d8:	bafffffa 	blt	87c8 <pad+0xc>
    87dc:	e3a03000 	mov	r3, #0
    87e0:	e5c03000 	strb	r3, [r0]
    87e4:	e12fff1e 	bx	lr

000087e8 <reverse>:
    87e8:	e063c002 	rsb	ip, r3, r2
    87ec:	e28cc001 	add	ip, ip, #1
    87f0:	e15c0001 	cmp	ip, r1
    87f4:	c061100c 	rsbgt	r1, r1, ip
    87f8:	c0833001 	addgt	r3, r3, r1
    87fc:	e2422001 	sub	r2, r2, #1
    8800:	e1a01000 	mov	r1, r0
    8804:	ea000002 	b	8814 <reverse+0x2c>
    8808:	e452c001 	ldrb	ip, [r2], #-1
    880c:	e5c1c000 	strb	ip, [r1]
    8810:	e2811001 	add	r1, r1, #1
    8814:	e1520003 	cmp	r2, r3
    8818:	2afffffa 	bcs	8808 <reverse+0x20>
    881c:	e3a03000 	mov	r3, #0
    8820:	e5c13000 	strb	r3, [r1]
    8824:	e12fff1e 	bx	lr

00008828 <emit>:
    8828:	e92d41f0 	push	{r4, r5, r6, r7, r8, lr}
    882c:	e24dd048 	sub	sp, sp, #72	; 0x48
    8830:	e1a05001 	mov	r5, r1
    8834:	e1a04002 	mov	r4, r2
    8838:	e59d2060 	ldr	r2, [sp, #96]	; 0x60
    883c:	e1520004 	cmp	r2, r4
    8840:	c2442001 	subgt	r2, r4, #1
    8844:	e1a0c003 	mov	ip, r3
    8848:	e2400002 	sub	r0, r0, #2
    884c:	e350000e 	cmp	r0, #14
    8850:	979ff100 	ldrls	pc, [pc, r0, lsl #2]
    8854:	ea000042 	b	8964 <emit+0x13c>
    8858:	0000893c 	andeq	r8, r0, ip, lsr r9
    885c:	00008964 	andeq	r8, r0, r4, ror #18
    8860:	00008964 	andeq	r8, r0, r4, ror #18
    8864:	00008964 	andeq	r8, r0, r4, ror #18
    8868:	00008964 	andeq	r8, r0, r4, ror #18
    886c:	00008964 	andeq	r8, r0, r4, ror #18
    8870:	00008930 	andeq	r8, r0, r0, lsr r9
    8874:	00008964 	andeq	r8, r0, r4, ror #18
    8878:	00008894 	muleq	r0, r4, r8
    887c:	00008964 	andeq	r8, r0, r4, ror #18
    8880:	00008964 	andeq	r8, r0, r4, ror #18
    8884:	00008964 	andeq	r8, r0, r4, ror #18
    8888:	00008964 	andeq	r8, r0, r4, ror #18
    888c:	00008964 	andeq	r8, r0, r4, ror #18
    8890:	00008908 	andeq	r8, r0, r8, lsl #18
    8894:	e59d1064 	ldr	r1, [sp, #100]	; 0x64
    8898:	e2911000 	adds	r1, r1, #0
    889c:	13a01001 	movne	r1, #1
    88a0:	e0111fa3 	ands	r1, r1, r3, lsr #31
    88a4:	1263c000 	rsbne	ip, r3, #0
    88a8:	13a08001 	movne	r8, #1
    88ac:	03a08000 	moveq	r8, #0
    88b0:	e28d1008 	add	r1, sp, #8
    88b4:	e59f70f4 	ldr	r7, [pc, #244]	; 89b0 <emit+0x188>
    88b8:	e59f60f4 	ldr	r6, [pc, #244]	; 89b4 <emit+0x18c>
    88bc:	ea000000 	b	88c4 <emit+0x9c>
    88c0:	e1a01003 	mov	r1, r3
    88c4:	e2813001 	add	r3, r1, #1
    88c8:	e08e0c97 	umull	r0, lr, r7, ip
    88cc:	e1a0e1ae 	lsr	lr, lr, #3
    88d0:	e1a0000e 	mov	r0, lr
    88d4:	e08ee10e 	add	lr, lr, lr, lsl #2
    88d8:	e1a0e08e 	lsl	lr, lr, #1
    88dc:	e06ee00c 	rsb	lr, lr, ip
    88e0:	e7d6c00e 	ldrb	ip, [r6, lr]
    88e4:	e5c1c000 	strb	ip, [r1]
    88e8:	e1a0c000 	mov	ip, r0
    88ec:	e3500000 	cmp	r0, #0
    88f0:	1afffff2 	bne	88c0 <emit+0x98>
    88f4:	e3580000 	cmp	r8, #0
    88f8:	12813002 	addne	r3, r1, #2
    88fc:	13a0002d 	movne	r0, #45	; 0x2d
    8900:	15c10001 	strbne	r0, [r1, #1]
    8904:	ea00001f 	b	8988 <emit+0x160>
    8908:	e28de008 	add	lr, sp, #8
    890c:	e59f00a4 	ldr	r0, [pc, #164]	; 89b8 <emit+0x190>
    8910:	e28e3001 	add	r3, lr, #1
    8914:	e20c100f 	and	r1, ip, #15
    8918:	e7d01001 	ldrb	r1, [r0, r1]
    891c:	e5ce1000 	strb	r1, [lr]
    8920:	e1a0e003 	mov	lr, r3
    8924:	e1b0c22c 	lsrs	ip, ip, #4
    8928:	1afffff8 	bne	8910 <emit+0xe8>
    892c:	ea000015 	b	8988 <emit+0x160>
    8930:	e5cd3008 	strb	r3, [sp, #8]
    8934:	e28d3009 	add	r3, sp, #9
    8938:	ea000012 	b	8988 <emit+0x160>
    893c:	e28de008 	add	lr, sp, #8
    8940:	e59f0074 	ldr	r0, [pc, #116]	; 89bc <emit+0x194>
    8944:	e28e3001 	add	r3, lr, #1
    8948:	e20c1001 	and	r1, ip, #1
    894c:	e7d01001 	ldrb	r1, [r0, r1]
    8950:	e5ce1000 	strb	r1, [lr]
    8954:	e1a0e003 	mov	lr, r3
    8958:	e1b0c0ac 	lsrs	ip, ip, #1
    895c:	1afffff8 	bne	8944 <emit+0x11c>
    8960:	ea000008 	b	8988 <emit+0x160>
    8964:	ebffff78 	bl	874c <rpi_reset_putc>
    8968:	e59f3050 	ldr	r3, [pc, #80]	; 89c0 <emit+0x198>
    896c:	e58d3000 	str	r3, [sp]
    8970:	e59f004c 	ldr	r0, [pc, #76]	; 89c4 <emit+0x19c>
    8974:	e59f104c 	ldr	r1, [pc, #76]	; 89c8 <emit+0x1a0>
    8978:	e59f204c 	ldr	r2, [pc, #76]	; 89cc <emit+0x1a4>
    897c:	e3a03075 	mov	r3, #117	; 0x75
    8980:	ebffff56 	bl	86e0 <printk>
    8984:	eb0000d8 	bl	8cec <clean_reboot>
    8988:	e1a00003 	mov	r0, r3
    898c:	e28d1008 	add	r1, sp, #8
    8990:	ebffff89 	bl	87bc <pad>
    8994:	e1a02000 	mov	r2, r0
    8998:	e1a00005 	mov	r0, r5
    899c:	e1a01004 	mov	r1, r4
    89a0:	e28d3008 	add	r3, sp, #8
    89a4:	ebffff8f 	bl	87e8 <reverse>
    89a8:	e28dd048 	add	sp, sp, #72	; 0x48
    89ac:	e8bd81f0 	pop	{r4, r5, r6, r7, r8, pc}
    89b0:	cccccccd 	stclgt	12, cr12, [ip], {205}	; 0xcd
    89b4:	00009ea8 	andeq	r9, r0, r8, lsr #29
    89b8:	00009eb4 			; <UNDEFINED> instruction: 0x00009eb4
    89bc:	00009ec8 	andeq	r9, r0, r8, asr #29
    89c0:	00009ea4 	andeq	r9, r0, r4, lsr #29
    89c4:	00009e7c 	andeq	r9, r0, ip, ror lr
    89c8:	00009e90 	muleq	r0, r0, lr
    89cc:	00009e58 	andeq	r9, r0, r8, asr lr

000089d0 <rpi_set_output>:
    89d0:	e52de004 	push	{lr}		; (str lr, [sp, #-4]!)
    89d4:	e24dd00c 	sub	sp, sp, #12
    89d8:	e3500000 	cmp	r0, #0
    89dc:	1a000008 	bne	8a04 <rpi_set_output+0x34>
    89e0:	ebffff59 	bl	874c <rpi_reset_putc>
    89e4:	e59f3034 	ldr	r3, [pc, #52]	; 8a20 <rpi_set_output+0x50>
    89e8:	e58d3000 	str	r3, [sp]
    89ec:	e59f0030 	ldr	r0, [pc, #48]	; 8a24 <rpi_set_output+0x54>
    89f0:	e59f1030 	ldr	r1, [pc, #48]	; 8a28 <rpi_set_output+0x58>
    89f4:	e59f2030 	ldr	r2, [pc, #48]	; 8a2c <rpi_set_output+0x5c>
    89f8:	e3a03020 	mov	r3, #32
    89fc:	ebffff37 	bl	86e0 <printk>
    8a00:	eb0000b9 	bl	8cec <clean_reboot>
    8a04:	e59f3024 	ldr	r3, [pc, #36]	; 8a30 <rpi_set_output+0x60>
    8a08:	e5830000 	str	r0, [r3]
    8a0c:	e3510000 	cmp	r1, #0
    8a10:	159f301c 	ldrne	r3, [pc, #28]	; 8a34 <rpi_set_output+0x64>
    8a14:	15831000 	strne	r1, [r3]
    8a18:	e28dd00c 	add	sp, sp, #12
    8a1c:	e49df004 	pop	{pc}		; (ldr pc, [sp], #4)
    8a20:	00009ecc 	andeq	r9, r0, ip, asr #29
    8a24:	00009e7c 	andeq	r9, r0, ip, ror lr
    8a28:	00009e90 	muleq	r0, r0, lr
    8a2c:	00009e60 	andeq	r9, r0, r0, ror #28
    8a30:	00009cf0 	strdeq	r9, [r0], -r0
    8a34:	00009cf4 	strdeq	r9, [r0], -r4

00008a38 <va_printk>:
    8a38:	e92d4ff0 	push	{r4, r5, r6, r7, r8, r9, sl, fp, lr}
    8a3c:	e24dd08c 	sub	sp, sp, #140	; 0x8c
    8a40:	e1a0a000 	mov	sl, r0
    8a44:	e1a09003 	mov	r9, r3
    8a48:	e2411001 	sub	r1, r1, #1
    8a4c:	e0808001 	add	r8, r0, r1
    8a50:	e3a03000 	mov	r3, #0
    8a54:	e5c03000 	strb	r3, [r0]
    8a58:	e1a04000 	mov	r4, r0
    8a5c:	e1a0b003 	mov	fp, r3
    8a60:	ea000088 	b	8c88 <va_printk+0x250>
    8a64:	e3530025 	cmp	r3, #37	; 0x25
    8a68:	12822001 	addne	r2, r2, #1
    8a6c:	15c43000 	strbne	r3, [r4]
    8a70:	12844001 	addne	r4, r4, #1
    8a74:	1a000083 	bne	8c88 <va_printk+0x250>
    8a78:	e5d21001 	ldrb	r1, [r2, #1]
    8a7c:	e3510025 	cmp	r1, #37	; 0x25
    8a80:	05c43000 	strbeq	r3, [r4]
    8a84:	02822002 	addeq	r2, r2, #2
    8a88:	02844001 	addeq	r4, r4, #1
    8a8c:	0a00007d 	beq	8c88 <va_printk+0x250>
    8a90:	e2826001 	add	r6, r2, #1
    8a94:	e1a0700b 	mov	r7, fp
    8a98:	ea000004 	b	8ab0 <va_printk+0x78>
    8a9c:	e0877107 	add	r7, r7, r7, lsl #2
    8aa0:	e1a07087 	lsl	r7, r7, #1
    8aa4:	e0877005 	add	r7, r7, r5
    8aa8:	e2477030 	sub	r7, r7, #48	; 0x30
    8aac:	e2866001 	add	r6, r6, #1
    8ab0:	e5d65000 	ldrb	r5, [r6]
    8ab4:	e1a00005 	mov	r0, r5
    8ab8:	ebffff3a 	bl	87a8 <isdigit>
    8abc:	e3500000 	cmp	r0, #0
    8ac0:	1afffff5 	bne	8a9c <va_printk+0x64>
    8ac4:	e357001f 	cmp	r7, #31
    8ac8:	9a000008 	bls	8af0 <va_printk+0xb8>
    8acc:	ebffff1e 	bl	874c <rpi_reset_putc>
    8ad0:	e59f31dc 	ldr	r3, [pc, #476]	; 8cb4 <va_printk+0x27c>
    8ad4:	e58d3000 	str	r3, [sp]
    8ad8:	e59f01d8 	ldr	r0, [pc, #472]	; 8cb8 <va_printk+0x280>
    8adc:	e59f11d8 	ldr	r1, [pc, #472]	; 8cbc <va_printk+0x284>
    8ae0:	e59f21d8 	ldr	r2, [pc, #472]	; 8cc0 <va_printk+0x288>
    8ae4:	e3a03092 	mov	r3, #146	; 0x92
    8ae8:	ebfffefc 	bl	86e0 <printk>
    8aec:	eb00007e 	bl	8cec <clean_reboot>
    8af0:	e2455062 	sub	r5, r5, #98	; 0x62
    8af4:	e3550016 	cmp	r5, #22
    8af8:	979ff105 	ldrls	pc, [pc, r5, lsl #2]
    8afc:	ea00004e 	b	8c3c <va_printk+0x204>
    8b00:	00008be8 	andeq	r8, r0, r8, ror #23
    8b04:	00008c18 	andeq	r8, r0, r8, lsl ip
    8b08:	00008b78 	andeq	r8, r0, r8, ror fp
    8b0c:	00008c3c 	andeq	r8, r0, ip, lsr ip
    8b10:	00008b5c 	andeq	r8, r0, ip, asr fp
    8b14:	00008c3c 	andeq	r8, r0, ip, lsr ip
    8b18:	00008c3c 	andeq	r8, r0, ip, lsr ip
    8b1c:	00008c3c 	andeq	r8, r0, ip, lsr ip
    8b20:	00008c3c 	andeq	r8, r0, ip, lsr ip
    8b24:	00008c3c 	andeq	r8, r0, ip, lsr ip
    8b28:	00008c3c 	andeq	r8, r0, ip, lsr ip
    8b2c:	00008c3c 	andeq	r8, r0, ip, lsr ip
    8b30:	00008c3c 	andeq	r8, r0, ip, lsr ip
    8b34:	00008c3c 	andeq	r8, r0, ip, lsr ip
    8b38:	00008bc4 	andeq	r8, r0, r4, asr #23
    8b3c:	00008c3c 	andeq	r8, r0, ip, lsr ip
    8b40:	00008c3c 	andeq	r8, r0, ip, lsr ip
    8b44:	00008c0c 	andeq	r8, r0, ip, lsl #24
    8b48:	00008c3c 	andeq	r8, r0, ip, lsr ip
    8b4c:	00008ba0 	andeq	r8, r0, r0, lsr #23
    8b50:	00008c3c 	andeq	r8, r0, ip, lsr ip
    8b54:	00008c3c 	andeq	r8, r0, ip, lsr ip
    8b58:	00008bc4 	andeq	r8, r0, r4, asr #23
    8b5c:	ebfffefa 	bl	874c <rpi_reset_putc>
    8b60:	e59f015c 	ldr	r0, [pc, #348]	; 8cc4 <va_printk+0x28c>
    8b64:	e59f1150 	ldr	r1, [pc, #336]	; 8cbc <va_printk+0x284>
    8b68:	e59f2150 	ldr	r2, [pc, #336]	; 8cc0 <va_printk+0x288>
    8b6c:	e3a03098 	mov	r3, #152	; 0x98
    8b70:	ebfffeda 	bl	86e0 <printk>
    8b74:	eb00005c 	bl	8cec <clean_reboot>
    8b78:	e5993000 	ldr	r3, [r9]
    8b7c:	e2899004 	add	r9, r9, #4
    8b80:	e58d7000 	str	r7, [sp]
    8b84:	e3a02001 	mov	r2, #1
    8b88:	e58d2004 	str	r2, [sp, #4]
    8b8c:	e3a0000a 	mov	r0, #10
    8b90:	e28d1008 	add	r1, sp, #8
    8b94:	e3a02080 	mov	r2, #128	; 0x80
    8b98:	ebffff22 	bl	8828 <emit>
    8b9c:	ea00002f 	b	8c60 <va_printk+0x228>
    8ba0:	e5993000 	ldr	r3, [r9]
    8ba4:	e2899004 	add	r9, r9, #4
    8ba8:	e58d7000 	str	r7, [sp]
    8bac:	e58db004 	str	fp, [sp, #4]
    8bb0:	e3a0000a 	mov	r0, #10
    8bb4:	e28d1008 	add	r1, sp, #8
    8bb8:	e3a02080 	mov	r2, #128	; 0x80
    8bbc:	ebffff19 	bl	8828 <emit>
    8bc0:	ea000026 	b	8c60 <va_printk+0x228>
    8bc4:	e5993000 	ldr	r3, [r9]
    8bc8:	e2899004 	add	r9, r9, #4
    8bcc:	e58d7000 	str	r7, [sp]
    8bd0:	e58db004 	str	fp, [sp, #4]
    8bd4:	e3a00010 	mov	r0, #16
    8bd8:	e28d1008 	add	r1, sp, #8
    8bdc:	e3a02080 	mov	r2, #128	; 0x80
    8be0:	ebffff10 	bl	8828 <emit>
    8be4:	ea00001d 	b	8c60 <va_printk+0x228>
    8be8:	e5993000 	ldr	r3, [r9]
    8bec:	e2899004 	add	r9, r9, #4
    8bf0:	e58d7000 	str	r7, [sp]
    8bf4:	e58db004 	str	fp, [sp, #4]
    8bf8:	e3a00002 	mov	r0, #2
    8bfc:	e28d1008 	add	r1, sp, #8
    8c00:	e3a02080 	mov	r2, #128	; 0x80
    8c04:	ebffff07 	bl	8828 <emit>
    8c08:	ea000014 	b	8c60 <va_printk+0x228>
    8c0c:	e5990000 	ldr	r0, [r9]
    8c10:	e2899004 	add	r9, r9, #4
    8c14:	ea000011 	b	8c60 <va_printk+0x228>
    8c18:	e5993000 	ldr	r3, [r9]
    8c1c:	e2899004 	add	r9, r9, #4
    8c20:	e58d7000 	str	r7, [sp]
    8c24:	e58db004 	str	fp, [sp, #4]
    8c28:	e3a00008 	mov	r0, #8
    8c2c:	e08d1000 	add	r1, sp, r0
    8c30:	e3a02080 	mov	r2, #128	; 0x80
    8c34:	ebfffefb 	bl	8828 <emit>
    8c38:	ea000008 	b	8c60 <va_printk+0x228>
    8c3c:	ebfffec2 	bl	874c <rpi_reset_putc>
    8c40:	e5d63000 	ldrb	r3, [r6]
    8c44:	e58d3000 	str	r3, [sp]
    8c48:	e59f0078 	ldr	r0, [pc, #120]	; 8cc8 <va_printk+0x290>
    8c4c:	e59f1068 	ldr	r1, [pc, #104]	; 8cbc <va_printk+0x284>
    8c50:	e59f2068 	ldr	r2, [pc, #104]	; 8cc0 <va_printk+0x288>
    8c54:	e3a030b9 	mov	r3, #185	; 0xb9
    8c58:	ebfffea0 	bl	86e0 <printk>
    8c5c:	eb000022 	bl	8cec <clean_reboot>
    8c60:	e2862001 	add	r2, r6, #1
    8c64:	ea000002 	b	8c74 <va_printk+0x23c>
    8c68:	e2800001 	add	r0, r0, #1
    8c6c:	e5c43000 	strb	r3, [r4]
    8c70:	e2844001 	add	r4, r4, #1
    8c74:	e1540008 	cmp	r4, r8
    8c78:	2a000002 	bcs	8c88 <va_printk+0x250>
    8c7c:	e5d03000 	ldrb	r3, [r0]
    8c80:	e3530000 	cmp	r3, #0
    8c84:	1afffff7 	bne	8c68 <va_printk+0x230>
    8c88:	e5d23000 	ldrb	r3, [r2]
    8c8c:	e3530000 	cmp	r3, #0
    8c90:	0a000001 	beq	8c9c <va_printk+0x264>
    8c94:	e1540008 	cmp	r4, r8
    8c98:	3affff71 	bcc	8a64 <va_printk+0x2c>
    8c9c:	e2840001 	add	r0, r4, #1
    8ca0:	e3a03000 	mov	r3, #0
    8ca4:	e5c43000 	strb	r3, [r4]
    8ca8:	e06a0000 	rsb	r0, sl, r0
    8cac:	e28dd08c 	add	sp, sp, #140	; 0x8c
    8cb0:	e8bd8ff0 	pop	{r4, r5, r6, r7, r8, r9, sl, fp, pc}
    8cb4:	00009ed4 	ldrdeq	r9, [r0], -r4
    8cb8:	00009e7c 	andeq	r9, r0, ip, ror lr
    8cbc:	00009e90 	muleq	r0, r0, lr
    8cc0:	00009e70 	andeq	r9, r0, r0, ror lr
    8cc4:	00009ee0 	andeq	r9, r0, r0, ror #29
    8cc8:	00009f08 	andeq	r9, r0, r8, lsl #30

00008ccc <enable_cache>:
    8ccc:	ee113f10 	mrc	15, 0, r3, cr1, cr0, {0}
    8cd0:	e3833b06 	orr	r3, r3, #6144	; 0x1800
    8cd4:	ee013f10 	mcr	15, 0, r3, cr1, cr0, {0}
    8cd8:	e12fff1e 	bx	lr

00008cdc <disable_cache>:
    8cdc:	ee113f10 	mrc	15, 0, r3, cr1, cr0, {0}
    8ce0:	e3c33b06 	bic	r3, r3, #6144	; 0x1800
    8ce4:	ee013f10 	mcr	15, 0, r3, cr1, cr0, {0}
    8ce8:	e12fff1e 	bx	lr

00008cec <clean_reboot>:
    8cec:	e92d4008 	push	{r3, lr}
    8cf0:	e59f3014 	ldr	r3, [pc, #20]	; 8d0c <clean_reboot+0x20>
    8cf4:	e5933000 	ldr	r3, [r3]
    8cf8:	e59f0010 	ldr	r0, [pc, #16]	; 8d10 <clean_reboot+0x24>
    8cfc:	e12fff33 	blx	r3
    8d00:	e3a00064 	mov	r0, #100	; 0x64
    8d04:	eb000063 	bl	8e98 <delay_ms>
    8d08:	eb000038 	bl	8df0 <rpi_reboot>
    8d0c:	00009cf4 	strdeq	r9, [r0], -r4
    8d10:	00009f40 	andeq	r9, r0, r0, asr #30

00008d14 <internal_sw_putchar>:
    8d14:	e92d4010 	push	{r4, lr}
    8d18:	e1a04000 	mov	r4, r0
    8d1c:	e59f000c 	ldr	r0, [pc, #12]	; 8d30 <internal_sw_putchar+0x1c>
    8d20:	e6ef1074 	uxtb	r1, r4
    8d24:	eb0001cd 	bl	9460 <sw_uart_putc>
    8d28:	e1a00004 	mov	r0, r4
    8d2c:	e8bd8010 	pop	{r4, pc}
    8d30:	0000a494 	muleq	r0, r4, r4

00008d34 <_cstart>:
    8d34:	e92d4008 	push	{r3, lr}
    8d38:	e59f3068 	ldr	r3, [pc, #104]	; 8da8 <_cstart+0x74>
    8d3c:	e59f2068 	ldr	r2, [pc, #104]	; 8dac <_cstart+0x78>
    8d40:	e3a01000 	mov	r1, #0
    8d44:	ea000001 	b	8d50 <_cstart+0x1c>
    8d48:	e5831000 	str	r1, [r3]
    8d4c:	e2833004 	add	r3, r3, #4
    8d50:	e1530002 	cmp	r3, r2
    8d54:	3afffffb 	bcc	8d48 <_cstart+0x14>
    8d58:	eb0003d2 	bl	9ca8 <cb_get_block>
    8d5c:	e3500000 	cmp	r0, #0
    8d60:	0a00000e 	beq	8da0 <_cstart+0x6c>
    8d64:	e5d02004 	ldrb	r2, [r0, #4]
    8d68:	e3520002 	cmp	r2, #2
    8d6c:	1a00000b 	bne	8da0 <_cstart+0x6c>
    8d70:	e59f1038 	ldr	r1, [pc, #56]	; 8db0 <_cstart+0x7c>
    8d74:	e59f2038 	ldr	r2, [pc, #56]	; 8db4 <_cstart+0x80>
    8d78:	e5821000 	str	r1, [r2]
    8d7c:	e59fc034 	ldr	ip, [pc, #52]	; 8db8 <_cstart+0x84>
    8d80:	e2803008 	add	r3, r0, #8
    8d84:	e8930007 	ldm	r3, {r0, r1, r2}
    8d88:	e88c0007 	stm	ip, {r0, r1, r2}
    8d8c:	e1a0000c 	mov	r0, ip
    8d90:	e59f1024 	ldr	r1, [pc, #36]	; 8dbc <_cstart+0x88>
    8d94:	eb000314 	bl	99ec <sw_uart_printk>
    8d98:	e59f0020 	ldr	r0, [pc, #32]	; 8dc0 <_cstart+0x8c>
    8d9c:	ebfffe4f 	bl	86e0 <printk>
    8da0:	ebfffdff 	bl	85a4 <notmain>
    8da4:	eb000011 	bl	8df0 <rpi_reboot>
    8da8:	0000a094 	muleq	r0, r4, r0
    8dac:	0000a4a0 	andeq	sl, r0, r0, lsr #9
    8db0:	00008d14 	andeq	r8, r0, r4, lsl sp
    8db4:	00009cf0 	strdeq	r9, [r0], -r0
    8db8:	0000a494 	muleq	r0, r4, r4
    8dbc:	00009f4c 	andeq	r9, r0, ip, asr #30
    8dc0:	00009f70 	andeq	r9, r0, r0, ror pc

00008dc4 <at_user_level>:
    8dc4:	e10f0000 	mrs	r0, CPSR
    8dc8:	e200001f 	and	r0, r0, #31
    8dcc:	e3500010 	cmp	r0, #16
    8dd0:	13a00000 	movne	r0, #0
    8dd4:	03a00001 	moveq	r0, #1
    8dd8:	e12fff1e 	bx	lr

00008ddc <set_user_level>:
    8ddc:	e10f3000 	mrs	r3, CPSR
    8de0:	e3c3301f 	bic	r3, r3, #31
    8de4:	e3833010 	orr	r3, r3, #16
    8de8:	e129f003 	msr	CPSR_fc, r3
    8dec:	e12fff1e 	bx	lr

00008df0 <rpi_reboot>:
    8df0:	e92d4008 	push	{r3, lr}
    8df4:	ebfffff2 	bl	8dc4 <at_user_level>
    8df8:	e3500000 	cmp	r0, #0
    8dfc:	0a000000 	beq	8e04 <rpi_reboot+0x14>
    8e00:	ebfffff5 	bl	8ddc <set_user_level>
    8e04:	e3a0001e 	mov	r0, #30
    8e08:	eb000022 	bl	8e98 <delay_ms>
    8e0c:	e59f0014 	ldr	r0, [pc, #20]	; 8e28 <rpi_reboot+0x38>
    8e10:	e59f1014 	ldr	r1, [pc, #20]	; 8e2c <rpi_reboot+0x3c>
    8e14:	eb000388 	bl	9c3c <PUT32>
    8e18:	e59f0010 	ldr	r0, [pc, #16]	; 8e30 <rpi_reboot+0x40>
    8e1c:	e59f1010 	ldr	r1, [pc, #16]	; 8e34 <rpi_reboot+0x44>
    8e20:	eb000385 	bl	9c3c <PUT32>
    8e24:	eafffffe 	b	8e24 <rpi_reboot+0x34>
    8e28:	20100024 	andscs	r0, r0, r4, lsr #32
    8e2c:	5a000001 	bpl	8e38 <delay_cycles>
    8e30:	2010001c 	andscs	r0, r0, ip, lsl r0
    8e34:	5a000020 	bpl	8ebc <delay_sec+0x10>

00008e38 <delay_cycles>:
    8e38:	ea000001 	b	8e44 <delay_cycles+0xc>
    8e3c:	e2811000 	add	r1, r1, #0
    8e40:	e1a00003 	mov	r0, r3
    8e44:	e2403001 	sub	r3, r0, #1
    8e48:	e3500000 	cmp	r0, #0
    8e4c:	1afffffa 	bne	8e3c <delay_cycles+0x4>
    8e50:	e12fff1e 	bx	lr

00008e54 <timer_get_usec_raw>:
    8e54:	e92d4008 	push	{r3, lr}
    8e58:	e59f0004 	ldr	r0, [pc, #4]	; 8e64 <timer_get_usec_raw+0x10>
    8e5c:	eb000382 	bl	9c6c <GET32>
    8e60:	e8bd8008 	pop	{r3, pc}
    8e64:	20003004 	andcs	r3, r0, r4

00008e68 <timer_get_usec>:
    8e68:	e92d4008 	push	{r3, lr}
    8e6c:	ebfffff8 	bl	8e54 <timer_get_usec_raw>
    8e70:	e8bd8008 	pop	{r3, pc}

00008e74 <delay_us>:
    8e74:	e92d4038 	push	{r3, r4, r5, lr}
    8e78:	e1a05000 	mov	r5, r0
    8e7c:	ebfffff9 	bl	8e68 <timer_get_usec>
    8e80:	e1a04000 	mov	r4, r0
    8e84:	ebfffff7 	bl	8e68 <timer_get_usec>
    8e88:	e0640000 	rsb	r0, r4, r0
    8e8c:	e1500005 	cmp	r0, r5
    8e90:	3afffffb 	bcc	8e84 <delay_us+0x10>
    8e94:	e8bd8038 	pop	{r3, r4, r5, pc}

00008e98 <delay_ms>:
    8e98:	e92d4008 	push	{r3, lr}
    8e9c:	e3a03ffa 	mov	r3, #1000	; 0x3e8
    8ea0:	e0000093 	mul	r0, r3, r0
    8ea4:	ebfffff2 	bl	8e74 <delay_us>
    8ea8:	e8bd8008 	pop	{r3, pc}

00008eac <delay_sec>:
    8eac:	e92d4008 	push	{r3, lr}
    8eb0:	e3a03ffa 	mov	r3, #1000	; 0x3e8
    8eb4:	e0000093 	mul	r0, r3, r0
    8eb8:	ebfffff6 	bl	8e98 <delay_ms>
    8ebc:	e8bd8008 	pop	{r3, pc}

00008ec0 <gpio_set_output>:
    8ec0:	e92d4038 	push	{r3, r4, r5, lr}
    8ec4:	e1a04000 	mov	r4, r0
    8ec8:	e350001f 	cmp	r0, #31
    8ecc:	88bd8038 	pophi	{r3, r4, r5, pc}
    8ed0:	e59f30b4 	ldr	r3, [pc, #180]	; 8f8c <gpio_set_output+0xcc>
    8ed4:	e0832093 	umull	r2, r3, r3, r0
    8ed8:	e1a031a3 	lsr	r3, r3, #3
    8edc:	e3530005 	cmp	r3, #5
    8ee0:	979ff103 	ldrls	pc, [pc, r3, lsl #2]
    8ee4:	ea000017 	b	8f48 <gpio_set_output+0x88>
    8ee8:	00008f00 	andeq	r8, r0, r0, lsl #30
    8eec:	00008f0c 	andeq	r8, r0, ip, lsl #30
    8ef0:	00008f18 	andeq	r8, r0, r8, lsl pc
    8ef4:	00008f24 	andeq	r8, r0, r4, lsr #30
    8ef8:	00008f30 	andeq	r8, r0, r0, lsr pc
    8efc:	00008f3c 	andeq	r8, r0, ip, lsr pc
    8f00:	e59f3088 	ldr	r3, [pc, #136]	; 8f90 <gpio_set_output+0xd0>
    8f04:	e5935000 	ldr	r5, [r3]
    8f08:	ea00000f 	b	8f4c <gpio_set_output+0x8c>
    8f0c:	e59f307c 	ldr	r3, [pc, #124]	; 8f90 <gpio_set_output+0xd0>
    8f10:	e5935004 	ldr	r5, [r3, #4]
    8f14:	ea00000c 	b	8f4c <gpio_set_output+0x8c>
    8f18:	e59f3070 	ldr	r3, [pc, #112]	; 8f90 <gpio_set_output+0xd0>
    8f1c:	e5935008 	ldr	r5, [r3, #8]
    8f20:	ea000009 	b	8f4c <gpio_set_output+0x8c>
    8f24:	e59f3064 	ldr	r3, [pc, #100]	; 8f90 <gpio_set_output+0xd0>
    8f28:	e593500c 	ldr	r5, [r3, #12]
    8f2c:	ea000006 	b	8f4c <gpio_set_output+0x8c>
    8f30:	e59f3058 	ldr	r3, [pc, #88]	; 8f90 <gpio_set_output+0xd0>
    8f34:	e5935010 	ldr	r5, [r3, #16]
    8f38:	ea000003 	b	8f4c <gpio_set_output+0x8c>
    8f3c:	e59f304c 	ldr	r3, [pc, #76]	; 8f90 <gpio_set_output+0xd0>
    8f40:	e5935014 	ldr	r5, [r3, #20]
    8f44:	ea000000 	b	8f4c <gpio_set_output+0x8c>
    8f48:	e3a05000 	mov	r5, #0
    8f4c:	e1a00005 	mov	r0, r5
    8f50:	eb000343 	bl	9c64 <get32>
    8f54:	e59f1030 	ldr	r1, [pc, #48]	; 8f8c <gpio_set_output+0xcc>
    8f58:	e0813491 	umull	r3, r1, r1, r4
    8f5c:	e1a011a1 	lsr	r1, r1, #3
    8f60:	e0811101 	add	r1, r1, r1, lsl #2
    8f64:	e1a01081 	lsl	r1, r1, #1
    8f68:	e0611004 	rsb	r1, r1, r4
    8f6c:	e0811081 	add	r1, r1, r1, lsl #1
    8f70:	e3a03007 	mov	r3, #7
    8f74:	e1c03113 	bic	r3, r0, r3, lsl r1
    8f78:	e1a00005 	mov	r0, r5
    8f7c:	e3a02001 	mov	r2, #1
    8f80:	e1831112 	orr	r1, r3, r2, lsl r1
    8f84:	eb00032a 	bl	9c34 <put32>
    8f88:	e8bd8038 	pop	{r3, r4, r5, pc}
    8f8c:	cccccccd 	stclgt	12, cr12, [ip], {205}	; 0xcd
    8f90:	00009cf8 	strdeq	r9, [r0], -r8

00008f94 <gpio_set_on>:
    8f94:	e92d4008 	push	{r3, lr}
    8f98:	e350001f 	cmp	r0, #31
    8f9c:	88bd8008 	pophi	{r3, pc}
    8fa0:	959f3020 	ldrls	r3, [pc, #32]	; 8fc8 <gpio_set_on+0x34>
    8fa4:	95932018 	ldrls	r2, [r3, #24]
    8fa8:	859f3018 	ldrhi	r3, [pc, #24]	; 8fc8 <gpio_set_on+0x34>
    8fac:	8593201c 	ldrhi	r2, [r3, #28]
    8fb0:	e200301f 	and	r3, r0, #31
    8fb4:	e1a00002 	mov	r0, r2
    8fb8:	e3a01001 	mov	r1, #1
    8fbc:	e1a01311 	lsl	r1, r1, r3
    8fc0:	eb00031b 	bl	9c34 <put32>
    8fc4:	e8bd8008 	pop	{r3, pc}
    8fc8:	00009cf8 	strdeq	r9, [r0], -r8

00008fcc <gpio_set_off>:
    8fcc:	e92d4008 	push	{r3, lr}
    8fd0:	e350001f 	cmp	r0, #31
    8fd4:	88bd8008 	pophi	{r3, pc}
    8fd8:	959f3020 	ldrls	r3, [pc, #32]	; 9000 <gpio_set_off+0x34>
    8fdc:	95932020 	ldrls	r2, [r3, #32]
    8fe0:	859f3018 	ldrhi	r3, [pc, #24]	; 9000 <gpio_set_off+0x34>
    8fe4:	85932024 	ldrhi	r2, [r3, #36]	; 0x24
    8fe8:	e200301f 	and	r3, r0, #31
    8fec:	e1a00002 	mov	r0, r2
    8ff0:	e3a01001 	mov	r1, #1
    8ff4:	e1a01311 	lsl	r1, r1, r3
    8ff8:	eb00030d 	bl	9c34 <put32>
    8ffc:	e8bd8008 	pop	{r3, pc}
    9000:	00009cf8 	strdeq	r9, [r0], -r8

00009004 <gpio_set_input>:
    9004:	e92d4038 	push	{r3, r4, r5, lr}
    9008:	e1a04000 	mov	r4, r0
    900c:	e350001f 	cmp	r0, #31
    9010:	88bd8038 	pophi	{r3, r4, r5, pc}
    9014:	e59f30ac 	ldr	r3, [pc, #172]	; 90c8 <gpio_set_input+0xc4>
    9018:	e0832093 	umull	r2, r3, r3, r0
    901c:	e1a031a3 	lsr	r3, r3, #3
    9020:	e3530005 	cmp	r3, #5
    9024:	979ff103 	ldrls	pc, [pc, r3, lsl #2]
    9028:	ea000017 	b	908c <gpio_set_input+0x88>
    902c:	00009044 	andeq	r9, r0, r4, asr #32
    9030:	00009050 	andeq	r9, r0, r0, asr r0
    9034:	0000905c 	andeq	r9, r0, ip, asr r0
    9038:	00009068 	andeq	r9, r0, r8, rrx
    903c:	00009074 	andeq	r9, r0, r4, ror r0
    9040:	00009080 	andeq	r9, r0, r0, lsl #1
    9044:	e59f3080 	ldr	r3, [pc, #128]	; 90cc <gpio_set_input+0xc8>
    9048:	e5935000 	ldr	r5, [r3]
    904c:	ea00000f 	b	9090 <gpio_set_input+0x8c>
    9050:	e59f3074 	ldr	r3, [pc, #116]	; 90cc <gpio_set_input+0xc8>
    9054:	e5935004 	ldr	r5, [r3, #4]
    9058:	ea00000c 	b	9090 <gpio_set_input+0x8c>
    905c:	e59f3068 	ldr	r3, [pc, #104]	; 90cc <gpio_set_input+0xc8>
    9060:	e5935008 	ldr	r5, [r3, #8]
    9064:	ea000009 	b	9090 <gpio_set_input+0x8c>
    9068:	e59f305c 	ldr	r3, [pc, #92]	; 90cc <gpio_set_input+0xc8>
    906c:	e593500c 	ldr	r5, [r3, #12]
    9070:	ea000006 	b	9090 <gpio_set_input+0x8c>
    9074:	e59f3050 	ldr	r3, [pc, #80]	; 90cc <gpio_set_input+0xc8>
    9078:	e5935010 	ldr	r5, [r3, #16]
    907c:	ea000003 	b	9090 <gpio_set_input+0x8c>
    9080:	e59f3044 	ldr	r3, [pc, #68]	; 90cc <gpio_set_input+0xc8>
    9084:	e5935014 	ldr	r5, [r3, #20]
    9088:	ea000000 	b	9090 <gpio_set_input+0x8c>
    908c:	e3a05000 	mov	r5, #0
    9090:	e1a00005 	mov	r0, r5
    9094:	eb0002f2 	bl	9c64 <get32>
    9098:	e59f1028 	ldr	r1, [pc, #40]	; 90c8 <gpio_set_input+0xc4>
    909c:	e0813491 	umull	r3, r1, r1, r4
    90a0:	e1a011a1 	lsr	r1, r1, #3
    90a4:	e0811101 	add	r1, r1, r1, lsl #2
    90a8:	e1a01081 	lsl	r1, r1, #1
    90ac:	e0611004 	rsb	r1, r1, r4
    90b0:	e0811081 	add	r1, r1, r1, lsl #1
    90b4:	e3a03007 	mov	r3, #7
    90b8:	e1c01113 	bic	r1, r0, r3, lsl r1
    90bc:	e1a00005 	mov	r0, r5
    90c0:	eb0002db 	bl	9c34 <put32>
    90c4:	e8bd8038 	pop	{r3, r4, r5, pc}
    90c8:	cccccccd 	stclgt	12, cr12, [ip], {205}	; 0xcd
    90cc:	00009cf8 	strdeq	r9, [r0], -r8

000090d0 <gpio_read>:
    90d0:	e92d4010 	push	{r4, lr}
    90d4:	e1a04000 	mov	r4, r0
    90d8:	e350001f 	cmp	r0, #31
    90dc:	8a00000b 	bhi	9110 <gpio_read+0x40>
    90e0:	8a000003 	bhi	90f4 <gpio_read+0x24>
    90e4:	e59f302c 	ldr	r3, [pc, #44]	; 9118 <gpio_read+0x48>
    90e8:	e5930028 	ldr	r0, [r3, #40]	; 0x28
    90ec:	eb0002dc 	bl	9c64 <get32>
    90f0:	ea000002 	b	9100 <gpio_read+0x30>
    90f4:	e59f301c 	ldr	r3, [pc, #28]	; 9118 <gpio_read+0x48>
    90f8:	e593002c 	ldr	r0, [r3, #44]	; 0x2c
    90fc:	eb0002d8 	bl	9c64 <get32>
    9100:	e204401f 	and	r4, r4, #31
    9104:	e3a03001 	mov	r3, #1
    9108:	e0000413 	and	r0, r0, r3, lsl r4
    910c:	e8bd8010 	pop	{r4, pc}
    9110:	e3e00000 	mvn	r0, #0
    9114:	e8bd8010 	pop	{r4, pc}
    9118:	00009cf8 	strdeq	r9, [r0], -r8

0000911c <gpio_write>:
    911c:	e92d4008 	push	{r3, lr}
    9120:	e350001f 	cmp	r0, #31
    9124:	88bd8008 	pophi	{r3, pc}
    9128:	e3510000 	cmp	r1, #0
    912c:	0a000001 	beq	9138 <gpio_write+0x1c>
    9130:	ebffff97 	bl	8f94 <gpio_set_on>
    9134:	e8bd8008 	pop	{r3, pc}
    9138:	ebffffa3 	bl	8fcc <gpio_set_off>
    913c:	e8bd8008 	pop	{r3, pc}

00009140 <gpio_set_function>:
    9140:	e92d4070 	push	{r4, r5, r6, lr}
    9144:	e1a04000 	mov	r4, r0
    9148:	e1a05001 	mov	r5, r1
    914c:	e3510007 	cmp	r1, #7
    9150:	9350001f 	cmpls	r0, #31
    9154:	88bd8070 	pophi	{r4, r5, r6, pc}
    9158:	e59f30b0 	ldr	r3, [pc, #176]	; 9210 <gpio_set_function+0xd0>
    915c:	e0832093 	umull	r2, r3, r3, r0
    9160:	e1a031a3 	lsr	r3, r3, #3
    9164:	e3530005 	cmp	r3, #5
    9168:	979ff103 	ldrls	pc, [pc, r3, lsl #2]
    916c:	ea000017 	b	91d0 <gpio_set_function+0x90>
    9170:	00009188 	andeq	r9, r0, r8, lsl #3
    9174:	00009194 	muleq	r0, r4, r1
    9178:	000091a0 	andeq	r9, r0, r0, lsr #3
    917c:	000091ac 	andeq	r9, r0, ip, lsr #3
    9180:	000091b8 			; <UNDEFINED> instruction: 0x000091b8
    9184:	000091c4 	andeq	r9, r0, r4, asr #3
    9188:	e59f3084 	ldr	r3, [pc, #132]	; 9214 <gpio_set_function+0xd4>
    918c:	e5936000 	ldr	r6, [r3]
    9190:	ea00000f 	b	91d4 <gpio_set_function+0x94>
    9194:	e59f3078 	ldr	r3, [pc, #120]	; 9214 <gpio_set_function+0xd4>
    9198:	e5936004 	ldr	r6, [r3, #4]
    919c:	ea00000c 	b	91d4 <gpio_set_function+0x94>
    91a0:	e59f306c 	ldr	r3, [pc, #108]	; 9214 <gpio_set_function+0xd4>
    91a4:	e5936008 	ldr	r6, [r3, #8]
    91a8:	ea000009 	b	91d4 <gpio_set_function+0x94>
    91ac:	e59f3060 	ldr	r3, [pc, #96]	; 9214 <gpio_set_function+0xd4>
    91b0:	e593600c 	ldr	r6, [r3, #12]
    91b4:	ea000006 	b	91d4 <gpio_set_function+0x94>
    91b8:	e59f3054 	ldr	r3, [pc, #84]	; 9214 <gpio_set_function+0xd4>
    91bc:	e5936010 	ldr	r6, [r3, #16]
    91c0:	ea000003 	b	91d4 <gpio_set_function+0x94>
    91c4:	e59f3048 	ldr	r3, [pc, #72]	; 9214 <gpio_set_function+0xd4>
    91c8:	e5936014 	ldr	r6, [r3, #20]
    91cc:	ea000000 	b	91d4 <gpio_set_function+0x94>
    91d0:	e3a06000 	mov	r6, #0
    91d4:	e1a00006 	mov	r0, r6
    91d8:	eb0002a1 	bl	9c64 <get32>
    91dc:	e59f302c 	ldr	r3, [pc, #44]	; 9210 <gpio_set_function+0xd0>
    91e0:	e0832493 	umull	r2, r3, r3, r4
    91e4:	e1a031a3 	lsr	r3, r3, #3
    91e8:	e0833103 	add	r3, r3, r3, lsl #2
    91ec:	e1a03083 	lsl	r3, r3, #1
    91f0:	e0633004 	rsb	r3, r3, r4
    91f4:	e0833083 	add	r3, r3, r3, lsl #1
    91f8:	e3a01007 	mov	r1, #7
    91fc:	e1c01311 	bic	r1, r0, r1, lsl r3
    9200:	e1a00006 	mov	r0, r6
    9204:	e1811315 	orr	r1, r1, r5, lsl r3
    9208:	eb000289 	bl	9c34 <put32>
    920c:	e8bd8070 	pop	{r4, r5, r6, pc}
    9210:	cccccccd 	stclgt	12, cr12, [ip], {205}	; 0xcd
    9214:	00009cf8 	strdeq	r9, [r0], -r8

00009218 <gpio_toggle>:
    9218:	e92d4008 	push	{r3, lr}
    921c:	e350001f 	cmp	r0, #31
    9220:	88bd8008 	pophi	{r3, pc}
    9224:	959f3020 	ldrls	r3, [pc, #32]	; 924c <gpio_toggle+0x34>
    9228:	95932018 	ldrls	r2, [r3, #24]
    922c:	859f3018 	ldrhi	r3, [pc, #24]	; 924c <gpio_toggle+0x34>
    9230:	8593201c 	ldrhi	r2, [r3, #28]
    9234:	e200301f 	and	r3, r0, #31
    9238:	e1a00002 	mov	r0, r2
    923c:	e3a01001 	mov	r1, #1
    9240:	e1a01311 	lsl	r1, r1, r3
    9244:	eb00027a 	bl	9c34 <put32>
    9248:	e8bd8008 	pop	{r3, pc}
    924c:	00009cf8 	strdeq	r9, [r0], -r8

00009250 <is_gpio_int>:
    9250:	e92d4008 	push	{r3, lr}
    9254:	e59f301c 	ldr	r3, [pc, #28]	; 9278 <is_gpio_int+0x28>
    9258:	e5930030 	ldr	r0, [r3, #48]	; 0x30
    925c:	eb000280 	bl	9c64 <get32>
    9260:	e3500000 	cmp	r0, #0
    9264:	0a000001 	beq	9270 <is_gpio_int+0x20>
    9268:	e3a00001 	mov	r0, #1
    926c:	e8bd8008 	pop	{r3, pc}
    9270:	e3a00000 	mov	r0, #0
    9274:	e8bd8008 	pop	{r3, pc}
    9278:	00009cf8 	strdeq	r9, [r0], -r8

0000927c <gpio_int_rising_edge>:
    927c:	e92d4038 	push	{r3, r4, r5, lr}
    9280:	e1a04000 	mov	r4, r0
    9284:	e350001f 	cmp	r0, #31
    9288:	88bd8038 	pophi	{r3, r4, r5, pc}
    928c:	eb000262 	bl	9c1c <dev_barrier>
    9290:	e354001f 	cmp	r4, #31
    9294:	8a000007 	bhi	92b8 <gpio_int_rising_edge+0x3c>
    9298:	e59f505c 	ldr	r5, [pc, #92]	; 92fc <gpio_int_rising_edge+0x80>
    929c:	e5950034 	ldr	r0, [r5, #52]	; 0x34
    92a0:	eb00026f 	bl	9c64 <get32>
    92a4:	e3a01001 	mov	r1, #1
    92a8:	e1801411 	orr	r1, r0, r1, lsl r4
    92ac:	e5950034 	ldr	r0, [r5, #52]	; 0x34
    92b0:	eb00025f 	bl	9c34 <put32>
    92b4:	ea000007 	b	92d8 <gpio_int_rising_edge+0x5c>
    92b8:	e59f503c 	ldr	r5, [pc, #60]	; 92fc <gpio_int_rising_edge+0x80>
    92bc:	e5950038 	ldr	r0, [r5, #56]	; 0x38
    92c0:	eb000267 	bl	9c64 <get32>
    92c4:	e204401f 	and	r4, r4, #31
    92c8:	e3a01001 	mov	r1, #1
    92cc:	e1801411 	orr	r1, r0, r1, lsl r4
    92d0:	e5950038 	ldr	r0, [r5, #56]	; 0x38
    92d4:	eb000256 	bl	9c34 <put32>
    92d8:	eb00024f 	bl	9c1c <dev_barrier>
    92dc:	e59f4018 	ldr	r4, [pc, #24]	; 92fc <gpio_int_rising_edge+0x80>
    92e0:	e594003c 	ldr	r0, [r4, #60]	; 0x3c
    92e4:	eb00025e 	bl	9c64 <get32>
    92e8:	e3801802 	orr	r1, r0, #131072	; 0x20000
    92ec:	e594003c 	ldr	r0, [r4, #60]	; 0x3c
    92f0:	eb00024f 	bl	9c34 <put32>
    92f4:	eb000248 	bl	9c1c <dev_barrier>
    92f8:	e8bd8038 	pop	{r3, r4, r5, pc}
    92fc:	00009cf8 	strdeq	r9, [r0], -r8

00009300 <gpio_int_falling_edge>:
    9300:	e92d4038 	push	{r3, r4, r5, lr}
    9304:	e1a04000 	mov	r4, r0
    9308:	e350001f 	cmp	r0, #31
    930c:	88bd8038 	pophi	{r3, r4, r5, pc}
    9310:	eb000241 	bl	9c1c <dev_barrier>
    9314:	e354001f 	cmp	r4, #31
    9318:	8a000007 	bhi	933c <gpio_int_falling_edge+0x3c>
    931c:	e59f505c 	ldr	r5, [pc, #92]	; 9380 <gpio_int_falling_edge+0x80>
    9320:	e5950040 	ldr	r0, [r5, #64]	; 0x40
    9324:	eb00024e 	bl	9c64 <get32>
    9328:	e3a01001 	mov	r1, #1
    932c:	e1801411 	orr	r1, r0, r1, lsl r4
    9330:	e5950040 	ldr	r0, [r5, #64]	; 0x40
    9334:	eb00023e 	bl	9c34 <put32>
    9338:	ea000007 	b	935c <gpio_int_falling_edge+0x5c>
    933c:	e59f503c 	ldr	r5, [pc, #60]	; 9380 <gpio_int_falling_edge+0x80>
    9340:	e5950044 	ldr	r0, [r5, #68]	; 0x44
    9344:	eb000246 	bl	9c64 <get32>
    9348:	e204401f 	and	r4, r4, #31
    934c:	e3a01001 	mov	r1, #1
    9350:	e1801411 	orr	r1, r0, r1, lsl r4
    9354:	e5950044 	ldr	r0, [r5, #68]	; 0x44
    9358:	eb000235 	bl	9c34 <put32>
    935c:	eb00022e 	bl	9c1c <dev_barrier>
    9360:	e59f4018 	ldr	r4, [pc, #24]	; 9380 <gpio_int_falling_edge+0x80>
    9364:	e594003c 	ldr	r0, [r4, #60]	; 0x3c
    9368:	eb00023d 	bl	9c64 <get32>
    936c:	e3801601 	orr	r1, r0, #1048576	; 0x100000
    9370:	e594003c 	ldr	r0, [r4, #60]	; 0x3c
    9374:	eb00022e 	bl	9c34 <put32>
    9378:	eb000227 	bl	9c1c <dev_barrier>
    937c:	e8bd8038 	pop	{r3, r4, r5, pc}
    9380:	00009cf8 	strdeq	r9, [r0], -r8

00009384 <gpio_event_detected>:
    9384:	e92d4010 	push	{r4, lr}
    9388:	e1a04000 	mov	r4, r0
    938c:	e350001f 	cmp	r0, #31
    9390:	8a000019 	bhi	93fc <gpio_event_detected+0x78>
    9394:	eb000220 	bl	9c1c <dev_barrier>
    9398:	e354001f 	cmp	r4, #31
    939c:	8a000008 	bhi	93c4 <gpio_event_detected+0x40>
    93a0:	e59f305c 	ldr	r3, [pc, #92]	; 9404 <gpio_event_detected+0x80>
    93a4:	e5930048 	ldr	r0, [r3, #72]	; 0x48
    93a8:	eb00022d 	bl	9c64 <get32>
    93ac:	e3a03001 	mov	r3, #1
    93b0:	e0103413 	ands	r3, r0, r3, lsl r4
    93b4:	0a00000d 	beq	93f0 <gpio_event_detected+0x6c>
    93b8:	eb000217 	bl	9c1c <dev_barrier>
    93bc:	e3a00001 	mov	r0, #1
    93c0:	e8bd8010 	pop	{r4, pc}
    93c4:	e59f3038 	ldr	r3, [pc, #56]	; 9404 <gpio_event_detected+0x80>
    93c8:	e593004c 	ldr	r0, [r3, #76]	; 0x4c
    93cc:	eb000224 	bl	9c64 <get32>
    93d0:	e3a03001 	mov	r3, #1
    93d4:	e0004413 	and	r4, r0, r3, lsl r4
    93d8:	eb00020f 	bl	9c1c <dev_barrier>
    93dc:	e3540000 	cmp	r4, #0
    93e0:	0a000002 	beq	93f0 <gpio_event_detected+0x6c>
    93e4:	eb00020c 	bl	9c1c <dev_barrier>
    93e8:	e3a00001 	mov	r0, #1
    93ec:	e8bd8010 	pop	{r4, pc}
    93f0:	eb000209 	bl	9c1c <dev_barrier>
    93f4:	e3a00000 	mov	r0, #0
    93f8:	e8bd8010 	pop	{r4, pc}
    93fc:	e3e00000 	mvn	r0, #0
    9400:	e8bd8010 	pop	{r4, pc}
    9404:	00009cf8 	strdeq	r9, [r0], -r8

00009408 <gpio_event_clear>:
    9408:	e92d4010 	push	{r4, lr}
    940c:	e1a04000 	mov	r4, r0
    9410:	e350001f 	cmp	r0, #31
    9414:	88bd8010 	pophi	{r4, pc}
    9418:	eb0001ff 	bl	9c1c <dev_barrier>
    941c:	e354001f 	cmp	r4, #31
    9420:	8a000005 	bhi	943c <gpio_event_clear+0x34>
    9424:	e59f3030 	ldr	r3, [pc, #48]	; 945c <gpio_event_clear+0x54>
    9428:	e5930048 	ldr	r0, [r3, #72]	; 0x48
    942c:	e3a01001 	mov	r1, #1
    9430:	e1a01411 	lsl	r1, r1, r4
    9434:	eb0001fe 	bl	9c34 <put32>
    9438:	ea000005 	b	9454 <gpio_event_clear+0x4c>
    943c:	e204401f 	and	r4, r4, #31
    9440:	e59f3014 	ldr	r3, [pc, #20]	; 945c <gpio_event_clear+0x54>
    9444:	e593004c 	ldr	r0, [r3, #76]	; 0x4c
    9448:	e3a01001 	mov	r1, #1
    944c:	e1a01411 	lsl	r1, r1, r4
    9450:	eb0001f7 	bl	9c34 <put32>
    9454:	eb0001f0 	bl	9c1c <dev_barrier>
    9458:	e8bd8010 	pop	{r4, pc}
    945c:	00009cf8 	strdeq	r9, [r0], -r8

00009460 <sw_uart_putc>:
    9460:	e92d41f0 	push	{r4, r5, r6, r7, r8, lr}
    9464:	e1a07001 	mov	r7, r1
    9468:	e5d06000 	ldrb	r6, [r0]
    946c:	e5905008 	ldr	r5, [r0, #8]
    9470:	ee1f4f3c 	mrc	15, 0, r4, cr15, cr12, {1}
    9474:	e1a00006 	mov	r0, r6
    9478:	e3a01000 	mov	r1, #0
    947c:	ebffff26 	bl	911c <gpio_write>
    9480:	ee1f3f3c 	mrc	15, 0, r3, cr15, cr12, {1}
    9484:	e0643003 	rsb	r3, r4, r3
    9488:	e1550003 	cmp	r5, r3
    948c:	8afffffb 	bhi	9480 <sw_uart_putc+0x20>
    9490:	e1a08085 	lsl	r8, r5, #1
    9494:	e1a00006 	mov	r0, r6
    9498:	e2071001 	and	r1, r7, #1
    949c:	ebffff1e 	bl	911c <gpio_write>
    94a0:	ee1f3f3c 	mrc	15, 0, r3, cr15, cr12, {1}
    94a4:	e0643003 	rsb	r3, r4, r3
    94a8:	e1580003 	cmp	r8, r3
    94ac:	8afffffb 	bhi	94a0 <sw_uart_putc+0x40>
    94b0:	e0888005 	add	r8, r8, r5
    94b4:	e1a00006 	mov	r0, r6
    94b8:	e2071002 	and	r1, r7, #2
    94bc:	ebffff16 	bl	911c <gpio_write>
    94c0:	ee1f3f3c 	mrc	15, 0, r3, cr15, cr12, {1}
    94c4:	e0643003 	rsb	r3, r4, r3
    94c8:	e1580003 	cmp	r8, r3
    94cc:	8afffffb 	bhi	94c0 <sw_uart_putc+0x60>
    94d0:	e0888005 	add	r8, r8, r5
    94d4:	e1a00006 	mov	r0, r6
    94d8:	e2071004 	and	r1, r7, #4
    94dc:	ebffff0e 	bl	911c <gpio_write>
    94e0:	ee1f3f3c 	mrc	15, 0, r3, cr15, cr12, {1}
    94e4:	e0643003 	rsb	r3, r4, r3
    94e8:	e1580003 	cmp	r8, r3
    94ec:	8afffffb 	bhi	94e0 <sw_uart_putc+0x80>
    94f0:	e0888005 	add	r8, r8, r5
    94f4:	e1a00006 	mov	r0, r6
    94f8:	e2071008 	and	r1, r7, #8
    94fc:	ebffff06 	bl	911c <gpio_write>
    9500:	ee1f3f3c 	mrc	15, 0, r3, cr15, cr12, {1}
    9504:	e0643003 	rsb	r3, r4, r3
    9508:	e1580003 	cmp	r8, r3
    950c:	8afffffb 	bhi	9500 <sw_uart_putc+0xa0>
    9510:	e0888005 	add	r8, r8, r5
    9514:	e1a00006 	mov	r0, r6
    9518:	e2071010 	and	r1, r7, #16
    951c:	ebfffefe 	bl	911c <gpio_write>
    9520:	ee1f3f3c 	mrc	15, 0, r3, cr15, cr12, {1}
    9524:	e0643003 	rsb	r3, r4, r3
    9528:	e1580003 	cmp	r8, r3
    952c:	8afffffb 	bhi	9520 <sw_uart_putc+0xc0>
    9530:	e0888005 	add	r8, r8, r5
    9534:	e1a00006 	mov	r0, r6
    9538:	e2071020 	and	r1, r7, #32
    953c:	ebfffef6 	bl	911c <gpio_write>
    9540:	ee1f3f3c 	mrc	15, 0, r3, cr15, cr12, {1}
    9544:	e0643003 	rsb	r3, r4, r3
    9548:	e1580003 	cmp	r8, r3
    954c:	8afffffb 	bhi	9540 <sw_uart_putc+0xe0>
    9550:	e0888005 	add	r8, r8, r5
    9554:	e1a00006 	mov	r0, r6
    9558:	e2071040 	and	r1, r7, #64	; 0x40
    955c:	ebfffeee 	bl	911c <gpio_write>
    9560:	ee1f3f3c 	mrc	15, 0, r3, cr15, cr12, {1}
    9564:	e0643003 	rsb	r3, r4, r3
    9568:	e1580003 	cmp	r8, r3
    956c:	8afffffb 	bhi	9560 <sw_uart_putc+0x100>
    9570:	e0888005 	add	r8, r8, r5
    9574:	e1a00006 	mov	r0, r6
    9578:	e2071080 	and	r1, r7, #128	; 0x80
    957c:	ebfffee6 	bl	911c <gpio_write>
    9580:	ee1f3f3c 	mrc	15, 0, r3, cr15, cr12, {1}
    9584:	e0643003 	rsb	r3, r4, r3
    9588:	e1580003 	cmp	r8, r3
    958c:	8afffffb 	bhi	9580 <sw_uart_putc+0x120>
    9590:	e0885005 	add	r5, r8, r5
    9594:	e1a00006 	mov	r0, r6
    9598:	e3a01001 	mov	r1, #1
    959c:	ebfffede 	bl	911c <gpio_write>
    95a0:	ee1f3f3c 	mrc	15, 0, r3, cr15, cr12, {1}
    95a4:	e0643003 	rsb	r3, r4, r3
    95a8:	e1550003 	cmp	r5, r3
    95ac:	8afffffb 	bhi	95a0 <sw_uart_putc+0x140>
    95b0:	e8bd81f0 	pop	{r4, r5, r6, r7, r8, pc}

000095b4 <sw_uart_getc_timeout>:
    95b4:	e92d43f8 	push	{r3, r4, r5, r6, r7, r8, r9, lr}
    95b8:	e1a09000 	mov	r9, r0
    95bc:	e5d07001 	ldrb	r7, [r0, #1]
    95c0:	e1a05007 	mov	r5, r7
    95c4:	e1a06001 	mov	r6, r1
    95c8:	ebfffe21 	bl	8e54 <timer_get_usec_raw>
    95cc:	e1a04000 	mov	r4, r0
    95d0:	e1a00005 	mov	r0, r5
    95d4:	ebfffebd 	bl	90d0 <gpio_read>
    95d8:	e3500000 	cmp	r0, #0
    95dc:	0a000005 	beq	95f8 <sw_uart_getc_timeout+0x44>
    95e0:	ebfffe1b 	bl	8e54 <timer_get_usec_raw>
    95e4:	e0640000 	rsb	r0, r4, r0
    95e8:	e1560000 	cmp	r6, r0
    95ec:	2afffff7 	bcs	95d0 <sw_uart_getc_timeout+0x1c>
    95f0:	e3a03000 	mov	r3, #0
    95f4:	ea000000 	b	95fc <sw_uart_getc_timeout+0x48>
    95f8:	e3a03001 	mov	r3, #1
    95fc:	e3530000 	cmp	r3, #0
    9600:	0a000059 	beq	976c <sw_uart_getc_timeout+0x1b8>
    9604:	ee1f8f3c 	mrc	15, 0, r8, cr15, cr12, {1}
    9608:	e5994008 	ldr	r4, [r9, #8]
    960c:	e08420a4 	add	r2, r4, r4, lsr #1
    9610:	ee1f3f3c 	mrc	15, 0, r3, cr15, cr12, {1}
    9614:	e0683003 	rsb	r3, r8, r3
    9618:	e1520003 	cmp	r2, r3
    961c:	8afffffb 	bhi	9610 <sw_uart_getc_timeout+0x5c>
    9620:	e0888004 	add	r8, r8, r4
    9624:	e1a00007 	mov	r0, r7
    9628:	ebfffea8 	bl	90d0 <gpio_read>
    962c:	e1a09750 	asr	r9, r0, r7
    9630:	ee1f3f3c 	mrc	15, 0, r3, cr15, cr12, {1}
    9634:	e0683003 	rsb	r3, r8, r3
    9638:	e1540003 	cmp	r4, r3
    963c:	8afffffb 	bhi	9630 <sw_uart_getc_timeout+0x7c>
    9640:	e0888004 	add	r8, r8, r4
    9644:	e1a00007 	mov	r0, r7
    9648:	ebfffea0 	bl	90d0 <gpio_read>
    964c:	e1a00750 	asr	r0, r0, r7
    9650:	e1899080 	orr	r9, r9, r0, lsl #1
    9654:	ee1f3f3c 	mrc	15, 0, r3, cr15, cr12, {1}
    9658:	e0683003 	rsb	r3, r8, r3
    965c:	e1540003 	cmp	r4, r3
    9660:	8afffffb 	bhi	9654 <sw_uart_getc_timeout+0xa0>
    9664:	e0888004 	add	r8, r8, r4
    9668:	e1a00007 	mov	r0, r7
    966c:	ebfffe97 	bl	90d0 <gpio_read>
    9670:	e1a00750 	asr	r0, r0, r7
    9674:	e1899100 	orr	r9, r9, r0, lsl #2
    9678:	ee1f3f3c 	mrc	15, 0, r3, cr15, cr12, {1}
    967c:	e0683003 	rsb	r3, r8, r3
    9680:	e1540003 	cmp	r4, r3
    9684:	8afffffb 	bhi	9678 <sw_uart_getc_timeout+0xc4>
    9688:	e0888004 	add	r8, r8, r4
    968c:	e1a00007 	mov	r0, r7
    9690:	ebfffe8e 	bl	90d0 <gpio_read>
    9694:	e1a00750 	asr	r0, r0, r7
    9698:	e1899180 	orr	r9, r9, r0, lsl #3
    969c:	ee1f3f3c 	mrc	15, 0, r3, cr15, cr12, {1}
    96a0:	e0683003 	rsb	r3, r8, r3
    96a4:	e1540003 	cmp	r4, r3
    96a8:	8afffffb 	bhi	969c <sw_uart_getc_timeout+0xe8>
    96ac:	e0888004 	add	r8, r8, r4
    96b0:	e1a00007 	mov	r0, r7
    96b4:	ebfffe85 	bl	90d0 <gpio_read>
    96b8:	e1a00750 	asr	r0, r0, r7
    96bc:	e1899200 	orr	r9, r9, r0, lsl #4
    96c0:	ee1f3f3c 	mrc	15, 0, r3, cr15, cr12, {1}
    96c4:	e0683003 	rsb	r3, r8, r3
    96c8:	e1540003 	cmp	r4, r3
    96cc:	8afffffb 	bhi	96c0 <sw_uart_getc_timeout+0x10c>
    96d0:	e0888004 	add	r8, r8, r4
    96d4:	e1a00007 	mov	r0, r7
    96d8:	ebfffe7c 	bl	90d0 <gpio_read>
    96dc:	e1a00750 	asr	r0, r0, r7
    96e0:	e1899280 	orr	r9, r9, r0, lsl #5
    96e4:	ee1f3f3c 	mrc	15, 0, r3, cr15, cr12, {1}
    96e8:	e0683003 	rsb	r3, r8, r3
    96ec:	e1540003 	cmp	r4, r3
    96f0:	8afffffb 	bhi	96e4 <sw_uart_getc_timeout+0x130>
    96f4:	e0888004 	add	r8, r8, r4
    96f8:	e1a00007 	mov	r0, r7
    96fc:	ebfffe73 	bl	90d0 <gpio_read>
    9700:	e1a00750 	asr	r0, r0, r7
    9704:	e1899300 	orr	r9, r9, r0, lsl #6
    9708:	ee1f3f3c 	mrc	15, 0, r3, cr15, cr12, {1}
    970c:	e0683003 	rsb	r3, r8, r3
    9710:	e1540003 	cmp	r4, r3
    9714:	8afffffb 	bhi	9708 <sw_uart_getc_timeout+0x154>
    9718:	e1a00007 	mov	r0, r7
    971c:	ebfffe6b 	bl	90d0 <gpio_read>
    9720:	e1a00750 	asr	r0, r0, r7
    9724:	e1899380 	orr	r9, r9, r0, lsl #7
    9728:	ebfffdc9 	bl	8e54 <timer_get_usec_raw>
    972c:	e1a04000 	mov	r4, r0
    9730:	e1a00005 	mov	r0, r5
    9734:	ebfffe65 	bl	90d0 <gpio_read>
    9738:	e3500000 	cmp	r0, #0
    973c:	0a000005 	beq	9758 <sw_uart_getc_timeout+0x1a4>
    9740:	ebfffdc3 	bl	8e54 <timer_get_usec_raw>
    9744:	e0640000 	rsb	r0, r4, r0
    9748:	e1560000 	cmp	r6, r0
    974c:	2afffff7 	bcs	9730 <sw_uart_getc_timeout+0x17c>
    9750:	e3a03000 	mov	r3, #0
    9754:	ea000000 	b	975c <sw_uart_getc_timeout+0x1a8>
    9758:	e3a03001 	mov	r3, #1
    975c:	e3530000 	cmp	r3, #0
    9760:	0a000003 	beq	9774 <sw_uart_getc_timeout+0x1c0>
    9764:	e1a00009 	mov	r0, r9
    9768:	e8bd83f8 	pop	{r3, r4, r5, r6, r7, r8, r9, pc}
    976c:	e3e00000 	mvn	r0, #0
    9770:	e8bd83f8 	pop	{r3, r4, r5, r6, r7, r8, r9, pc}
    9774:	e3e00000 	mvn	r0, #0
    9778:	e8bd83f8 	pop	{r3, r4, r5, r6, r7, r8, r9, pc}

0000977c <sw_uart_gets_until>:
    977c:	e92d47f0 	push	{r4, r5, r6, r7, r8, r9, sl, lr}
    9780:	e24dd008 	sub	sp, sp, #8
    9784:	e1a08000 	mov	r8, r0
    9788:	e1a06001 	mov	r6, r1
    978c:	e1a09003 	mov	r9, r3
    9790:	e59da028 	ldr	sl, [sp, #40]	; 0x28
    9794:	e3520000 	cmp	r2, #0
    9798:	1a000008 	bne	97c0 <sw_uart_gets_until+0x44>
    979c:	ebfffbea 	bl	874c <rpi_reset_putc>
    97a0:	e59f3068 	ldr	r3, [pc, #104]	; 9810 <sw_uart_gets_until+0x94>
    97a4:	e58d3000 	str	r3, [sp]
    97a8:	e59f0064 	ldr	r0, [pc, #100]	; 9814 <sw_uart_gets_until+0x98>
    97ac:	e59f1064 	ldr	r1, [pc, #100]	; 9818 <sw_uart_gets_until+0x9c>
    97b0:	e59f2064 	ldr	r2, [pc, #100]	; 981c <sw_uart_gets_until+0xa0>
    97b4:	e3a0306d 	mov	r3, #109	; 0x6d
    97b8:	ebfffbc8 	bl	86e0 <printk>
    97bc:	ebfffd4a 	bl	8cec <clean_reboot>
    97c0:	e3a04000 	mov	r4, #0
    97c4:	e5c14000 	strb	r4, [r1]
    97c8:	e2427001 	sub	r7, r2, #1
    97cc:	ea000007 	b	97f0 <sw_uart_gets_until+0x74>
    97d0:	e1a00008 	mov	r0, r8
    97d4:	e1a0100a 	mov	r1, sl
    97d8:	ebffff75 	bl	95b4 <sw_uart_getc_timeout>
    97dc:	e6ef0070 	uxtb	r0, r0
    97e0:	e1500009 	cmp	r0, r9
    97e4:	0a000004 	beq	97fc <sw_uart_gets_until+0x80>
    97e8:	e7c60005 	strb	r0, [r6, r5]
    97ec:	e2844001 	add	r4, r4, #1
    97f0:	e1a05004 	mov	r5, r4
    97f4:	e1540007 	cmp	r4, r7
    97f8:	3afffff4 	bcc	97d0 <sw_uart_gets_until+0x54>
    97fc:	e3a03000 	mov	r3, #0
    9800:	e7c63005 	strb	r3, [r6, r5]
    9804:	e1a00004 	mov	r0, r4
    9808:	e28dd008 	add	sp, sp, #8
    980c:	e8bd87f0 	pop	{r4, r5, r6, r7, r8, r9, sl, pc}
    9810:	0000a008 	andeq	sl, r0, r8
    9814:	00009e7c 	andeq	r9, r0, ip, ror lr
    9818:	00009ff4 	strdeq	r9, [r0], -r4
    981c:	00009f7c 	andeq	r9, r0, ip, ror pc

00009820 <sw_uart_gets_timeout>:
    9820:	e92d41f0 	push	{r4, r5, r6, r7, r8, lr}
    9824:	e24dd008 	sub	sp, sp, #8
    9828:	e1a07000 	mov	r7, r0
    982c:	e1a05001 	mov	r5, r1
    9830:	e1a08003 	mov	r8, r3
    9834:	e3520000 	cmp	r2, #0
    9838:	1a000008 	bne	9860 <sw_uart_gets_timeout+0x40>
    983c:	ebfffbc2 	bl	874c <rpi_reset_putc>
    9840:	e59f3058 	ldr	r3, [pc, #88]	; 98a0 <sw_uart_gets_timeout+0x80>
    9844:	e58d3000 	str	r3, [sp]
    9848:	e59f0054 	ldr	r0, [pc, #84]	; 98a4 <sw_uart_gets_timeout+0x84>
    984c:	e59f1054 	ldr	r1, [pc, #84]	; 98a8 <sw_uart_gets_timeout+0x88>
    9850:	e59f2054 	ldr	r2, [pc, #84]	; 98ac <sw_uart_gets_timeout+0x8c>
    9854:	e3a03083 	mov	r3, #131	; 0x83
    9858:	ebfffba0 	bl	86e0 <printk>
    985c:	ebfffd22 	bl	8cec <clean_reboot>
    9860:	e3a04000 	mov	r4, #0
    9864:	e5c14000 	strb	r4, [r1]
    9868:	e2426001 	sub	r6, r2, #1
    986c:	ea000004 	b	9884 <sw_uart_gets_timeout+0x64>
    9870:	e1a00007 	mov	r0, r7
    9874:	e1a01008 	mov	r1, r8
    9878:	ebffff4d 	bl	95b4 <sw_uart_getc_timeout>
    987c:	e7c50004 	strb	r0, [r5, r4]
    9880:	e2844001 	add	r4, r4, #1
    9884:	e1540006 	cmp	r4, r6
    9888:	3afffff8 	bcc	9870 <sw_uart_gets_timeout+0x50>
    988c:	e3a03000 	mov	r3, #0
    9890:	e7c53004 	strb	r3, [r5, r4]
    9894:	e1a00004 	mov	r0, r4
    9898:	e28dd008 	add	sp, sp, #8
    989c:	e8bd81f0 	pop	{r4, r5, r6, r7, r8, pc}
    98a0:	0000a008 	andeq	sl, r0, r8
    98a4:	00009e7c 	andeq	r9, r0, ip, ror lr
    98a8:	00009ff4 	strdeq	r9, [r0], -r4
    98ac:	00009f90 	muleq	r0, r0, pc	; <UNPREDICTABLE>

000098b0 <sw_uart_init_helper>:
    98b0:	e92d41f0 	push	{r4, r5, r6, r7, r8, lr}
    98b4:	e24dd008 	sub	sp, sp, #8
    98b8:	e1a04000 	mov	r4, r0
    98bc:	e1a06001 	mov	r6, r1
    98c0:	e1a08002 	mov	r8, r2
    98c4:	e1a05003 	mov	r5, r3
    98c8:	e59d7020 	ldr	r7, [sp, #32]
    98cc:	e1a00001 	mov	r0, r1
    98d0:	ebfffd7a 	bl	8ec0 <gpio_set_output>
    98d4:	e1a00008 	mov	r0, r8
    98d8:	ebfffdc9 	bl	9004 <gpio_set_input>
    98dc:	e3a03001 	mov	r3, #1
    98e0:	ee0f3f1c 	mcr	15, 0, r3, cr15, cr12, {0}
    98e4:	e1a00006 	mov	r0, r6
    98e8:	e3a01001 	mov	r1, #1
    98ec:	ebfffe0a 	bl	911c <gpio_write>
    98f0:	e0020795 	mul	r2, r5, r7
    98f4:	e59f3074 	ldr	r3, [pc, #116]	; 9970 <sw_uart_init_helper+0xc0>
    98f8:	e0653003 	rsb	r3, r5, r3
    98fc:	e1530002 	cmp	r3, r2
    9900:	8a000005 	bhi	991c <sw_uart_init_helper+0x6c>
    9904:	e59f3064 	ldr	r3, [pc, #100]	; 9970 <sw_uart_init_helper+0xc0>
    9908:	e0853003 	add	r3, r5, r3
    990c:	e1530002 	cmp	r3, r2
    9910:	2a000003 	bcs	9924 <sw_uart_init_helper+0x74>
    9914:	e3a03000 	mov	r3, #0
    9918:	ea000002 	b	9928 <sw_uart_init_helper+0x78>
    991c:	e3a03000 	mov	r3, #0
    9920:	ea000000 	b	9928 <sw_uart_init_helper+0x78>
    9924:	e3a03001 	mov	r3, #1
    9928:	e3530000 	cmp	r3, #0
    992c:	1a000008 	bne	9954 <sw_uart_init_helper+0xa4>
    9930:	ebfffb85 	bl	874c <rpi_reset_putc>
    9934:	e59f3038 	ldr	r3, [pc, #56]	; 9974 <sw_uart_init_helper+0xc4>
    9938:	e58d3000 	str	r3, [sp]
    993c:	e59f0034 	ldr	r0, [pc, #52]	; 9978 <sw_uart_init_helper+0xc8>
    9940:	e59f1034 	ldr	r1, [pc, #52]	; 997c <sw_uart_init_helper+0xcc>
    9944:	e59f2034 	ldr	r2, [pc, #52]	; 9980 <sw_uart_init_helper+0xd0>
    9948:	e3a0309d 	mov	r3, #157	; 0x9d
    994c:	ebfffb63 	bl	86e0 <printk>
    9950:	ebfffce5 	bl	8cec <clean_reboot>
    9954:	e5c46000 	strb	r6, [r4]
    9958:	e5c48001 	strb	r8, [r4, #1]
    995c:	e5845004 	str	r5, [r4, #4]
    9960:	e5847008 	str	r7, [r4, #8]
    9964:	e1a00004 	mov	r0, r4
    9968:	e28dd008 	add	sp, sp, #8
    996c:	e8bd81f0 	pop	{r4, r5, r6, r7, r8, pc}
    9970:	29b92700 	ldmibcs	r9!, {r8, r9, sl, sp}
    9974:	0000a014 	andeq	sl, r0, r4, lsl r0
    9978:	00009e7c 	andeq	r9, r0, ip, ror lr
    997c:	00009ff4 	strdeq	r9, [r0], -r4
    9980:	00009fa8 	andeq	r9, r0, r8, lsr #31

00009984 <sw_uart_getc>:
    9984:	e92d4008 	push	{r3, lr}
    9988:	e3e01000 	mvn	r1, #0
    998c:	ebffff08 	bl	95b4 <sw_uart_getc_timeout>
    9990:	e3500000 	cmp	r0, #0
    9994:	a8bd8008 	popge	{r3, pc}
    9998:	ebfffb6b 	bl	874c <rpi_reset_putc>
    999c:	e59f0010 	ldr	r0, [pc, #16]	; 99b4 <sw_uart_getc+0x30>
    99a0:	e59f1010 	ldr	r1, [pc, #16]	; 99b8 <sw_uart_getc+0x34>
    99a4:	e59f2010 	ldr	r2, [pc, #16]	; 99bc <sw_uart_getc+0x38>
    99a8:	e3a030ac 	mov	r3, #172	; 0xac
    99ac:	ebfffb4b 	bl	86e0 <printk>
    99b0:	ebfffccd 	bl	8cec <clean_reboot>
    99b4:	0000a048 	andeq	sl, r0, r8, asr #32
    99b8:	00009ff4 	strdeq	r9, [r0], -r4
    99bc:	00009fbc 			; <UNDEFINED> instruction: 0x00009fbc

000099c0 <sw_uart_putk>:
    99c0:	e92d4038 	push	{r3, r4, r5, lr}
    99c4:	e1a05000 	mov	r5, r0
    99c8:	e1a04001 	mov	r4, r1
    99cc:	ea000002 	b	99dc <sw_uart_putk+0x1c>
    99d0:	e1a00005 	mov	r0, r5
    99d4:	ebfffea1 	bl	9460 <sw_uart_putc>
    99d8:	e2844001 	add	r4, r4, #1
    99dc:	e5d41000 	ldrb	r1, [r4]
    99e0:	e3510000 	cmp	r1, #0
    99e4:	1afffff9 	bne	99d0 <sw_uart_putk+0x10>
    99e8:	e8bd8038 	pop	{r3, r4, r5, pc}

000099ec <sw_uart_printk>:
    99ec:	e92d000e 	push	{r1, r2, r3}
    99f0:	e92d4030 	push	{r4, r5, lr}
    99f4:	e24ddf76 	sub	sp, sp, #472	; 0x1d8
    99f8:	e1a05000 	mov	r5, r0
    99fc:	e28d3f7a 	add	r3, sp, #488	; 0x1e8
    9a00:	e58d3008 	str	r3, [sp, #8]
    9a04:	e28d000c 	add	r0, sp, #12
    9a08:	e3a01f73 	mov	r1, #460	; 0x1cc
    9a0c:	e59d21e4 	ldr	r2, [sp, #484]	; 0x1e4
    9a10:	ebfffc08 	bl	8a38 <va_printk>
    9a14:	e1a04000 	mov	r4, r0
    9a18:	e59f3048 	ldr	r3, [pc, #72]	; 9a68 <sw_uart_printk+0x7c>
    9a1c:	e1500003 	cmp	r0, r3
    9a20:	9a000008 	bls	9a48 <sw_uart_printk+0x5c>
    9a24:	ebfffb48 	bl	874c <rpi_reset_putc>
    9a28:	e59f303c 	ldr	r3, [pc, #60]	; 9a6c <sw_uart_printk+0x80>
    9a2c:	e58d3000 	str	r3, [sp]
    9a30:	e59f0038 	ldr	r0, [pc, #56]	; 9a70 <sw_uart_printk+0x84>
    9a34:	e59f1038 	ldr	r1, [pc, #56]	; 9a74 <sw_uart_printk+0x88>
    9a38:	e59f2038 	ldr	r2, [pc, #56]	; 9a78 <sw_uart_printk+0x8c>
    9a3c:	e3a030c0 	mov	r3, #192	; 0xc0
    9a40:	ebfffb26 	bl	86e0 <printk>
    9a44:	ebfffca8 	bl	8cec <clean_reboot>
    9a48:	e1a00005 	mov	r0, r5
    9a4c:	e28d100c 	add	r1, sp, #12
    9a50:	ebffffda 	bl	99c0 <sw_uart_putk>
    9a54:	e1a00004 	mov	r0, r4
    9a58:	e28ddf76 	add	sp, sp, #472	; 0x1d8
    9a5c:	e8bd4030 	pop	{r4, r5, lr}
    9a60:	e28dd00c 	add	sp, sp, #12
    9a64:	e12fff1e 	bx	lr
    9a68:	000001ca 	andeq	r0, r0, sl, asr #3
    9a6c:	0000a080 	andeq	sl, r0, r0, lsl #1
    9a70:	00009e7c 	andeq	r9, r0, ip, ror lr
    9a74:	00009ff4 	strdeq	r9, [r0], -r4
    9a78:	00009fcc 	andeq	r9, r0, ip, asr #31

00009a7c <sw_uart_gets_until_blk>:
    9a7c:	e52de004 	push	{lr}		; (str lr, [sp, #-4]!)
    9a80:	e24dd00c 	sub	sp, sp, #12
    9a84:	e3e0c000 	mvn	ip, #0
    9a88:	e58dc000 	str	ip, [sp]
    9a8c:	ebffff3a 	bl	977c <sw_uart_gets_until>
    9a90:	e3500000 	cmp	r0, #0
    9a94:	aa000006 	bge	9ab4 <sw_uart_gets_until_blk+0x38>
    9a98:	ebfffb2b 	bl	874c <rpi_reset_putc>
    9a9c:	e59f0018 	ldr	r0, [pc, #24]	; 9abc <sw_uart_gets_until_blk+0x40>
    9aa0:	e59f1018 	ldr	r1, [pc, #24]	; 9ac0 <sw_uart_gets_until_blk+0x44>
    9aa4:	e59f2018 	ldr	r2, [pc, #24]	; 9ac4 <sw_uart_gets_until_blk+0x48>
    9aa8:	e3a030c8 	mov	r3, #200	; 0xc8
    9aac:	ebfffb0b 	bl	86e0 <printk>
    9ab0:	ebfffc8d 	bl	8cec <clean_reboot>
    9ab4:	e28dd00c 	add	sp, sp, #12
    9ab8:	e49df004 	pop	{pc}		; (ldr pc, [sp], #4)
    9abc:	0000a048 	andeq	sl, r0, r8, asr #32
    9ac0:	00009ff4 	strdeq	r9, [r0], -r4
    9ac4:	00009fdc 	ldrdeq	r9, [r0], -ip

00009ac8 <uart_init>:
    9ac8:	e92d4038 	push	{r3, r4, r5, lr}
    9acc:	eb000052 	bl	9c1c <dev_barrier>
    9ad0:	e3a0000e 	mov	r0, #14
    9ad4:	e3a01002 	mov	r1, #2
    9ad8:	ebfffd98 	bl	9140 <gpio_set_function>
    9adc:	e3a0000f 	mov	r0, #15
    9ae0:	e3a01002 	mov	r1, #2
    9ae4:	ebfffd95 	bl	9140 <gpio_set_function>
    9ae8:	eb00004b 	bl	9c1c <dev_barrier>
    9aec:	e59f4068 	ldr	r4, [pc, #104]	; 9b5c <uart_init+0x94>
    9af0:	e5945000 	ldr	r5, [r4]
    9af4:	e1a00005 	mov	r0, r5
    9af8:	eb000059 	bl	9c64 <get32>
    9afc:	e3801001 	orr	r1, r0, #1
    9b00:	e1a00005 	mov	r0, r5
    9b04:	eb00004a 	bl	9c34 <put32>
    9b08:	eb000043 	bl	9c1c <dev_barrier>
    9b0c:	e5940004 	ldr	r0, [r4, #4]
    9b10:	e3a01000 	mov	r1, #0
    9b14:	eb000046 	bl	9c34 <put32>
    9b18:	e5940008 	ldr	r0, [r4, #8]
    9b1c:	e3a01000 	mov	r1, #0
    9b20:	eb000043 	bl	9c34 <put32>
    9b24:	e594000c 	ldr	r0, [r4, #12]
    9b28:	e3a01006 	mov	r1, #6
    9b2c:	eb000040 	bl	9c34 <put32>
    9b30:	e5940010 	ldr	r0, [r4, #16]
    9b34:	e3a01003 	mov	r1, #3
    9b38:	eb00003d 	bl	9c34 <put32>
    9b3c:	e5940014 	ldr	r0, [r4, #20]
    9b40:	e59f1018 	ldr	r1, [pc, #24]	; 9b60 <uart_init+0x98>
    9b44:	eb00003a 	bl	9c34 <put32>
    9b48:	e5940004 	ldr	r0, [r4, #4]
    9b4c:	e3a01003 	mov	r1, #3
    9b50:	eb000037 	bl	9c34 <put32>
    9b54:	eb000030 	bl	9c1c <dev_barrier>
    9b58:	e8bd8038 	pop	{r3, r4, r5, pc}
    9b5c:	00009d58 	andeq	r9, r0, r8, asr sp
    9b60:	0000010e 	andeq	r0, r0, lr, lsl #2

00009b64 <uart_can_getc>:
    9b64:	e92d4008 	push	{r3, lr}
    9b68:	e59f300c 	ldr	r3, [pc, #12]	; 9b7c <uart_can_getc+0x18>
    9b6c:	e5930018 	ldr	r0, [r3, #24]
    9b70:	eb00003b 	bl	9c64 <get32>
    9b74:	e2000001 	and	r0, r0, #1
    9b78:	e8bd8008 	pop	{r3, pc}
    9b7c:	00009d58 	andeq	r9, r0, r8, asr sp

00009b80 <uart_getc>:
    9b80:	e92d4008 	push	{r3, lr}
    9b84:	ebfffff6 	bl	9b64 <uart_can_getc>
    9b88:	e3500000 	cmp	r0, #0
    9b8c:	0afffffc 	beq	9b84 <uart_getc+0x4>
    9b90:	e59f300c 	ldr	r3, [pc, #12]	; 9ba4 <uart_getc+0x24>
    9b94:	e593001c 	ldr	r0, [r3, #28]
    9b98:	eb000031 	bl	9c64 <get32>
    9b9c:	e6ef0070 	uxtb	r0, r0
    9ba0:	e8bd8008 	pop	{r3, pc}
    9ba4:	00009d58 	andeq	r9, r0, r8, asr sp

00009ba8 <uart_can_putc>:
    9ba8:	e92d4008 	push	{r3, lr}
    9bac:	e59f300c 	ldr	r3, [pc, #12]	; 9bc0 <uart_can_putc+0x18>
    9bb0:	e5930018 	ldr	r0, [r3, #24]
    9bb4:	eb00002a 	bl	9c64 <get32>
    9bb8:	e2000020 	and	r0, r0, #32
    9bbc:	e8bd8008 	pop	{r3, pc}
    9bc0:	00009d58 	andeq	r9, r0, r8, asr sp

00009bc4 <uart_putc>:
    9bc4:	e92d4010 	push	{r4, lr}
    9bc8:	e1a04000 	mov	r4, r0
    9bcc:	ebfffff5 	bl	9ba8 <uart_can_putc>
    9bd0:	e3500000 	cmp	r0, #0
    9bd4:	0afffffc 	beq	9bcc <uart_putc+0x8>
    9bd8:	e59f300c 	ldr	r3, [pc, #12]	; 9bec <uart_putc+0x28>
    9bdc:	e593001c 	ldr	r0, [r3, #28]
    9be0:	e1a01004 	mov	r1, r4
    9be4:	eb000012 	bl	9c34 <put32>
    9be8:	e8bd8010 	pop	{r4, pc}
    9bec:	00009d58 	andeq	r9, r0, r8, asr sp

00009bf0 <uart_has_data>:
    9bf0:	e92d4008 	push	{r3, lr}
    9bf4:	ebffffda 	bl	9b64 <uart_can_getc>
    9bf8:	e8bd8008 	pop	{r3, pc}

00009bfc <uart_getc_async>:
    9bfc:	e92d4008 	push	{r3, lr}
    9c00:	ebfffffa 	bl	9bf0 <uart_has_data>
    9c04:	e3500000 	cmp	r0, #0
    9c08:	0a000001 	beq	9c14 <uart_getc_async+0x18>
    9c0c:	ebffffdb 	bl	9b80 <uart_getc>
    9c10:	e8bd8008 	pop	{r3, pc}
    9c14:	e3e00000 	mvn	r0, #0
    9c18:	e8bd8008 	pop	{r3, pc}

00009c1c <dev_barrier>:
    9c1c:	ea000002 	b	9c2c <dsb>

00009c20 <dmb>:
    9c20:	e3a00000 	mov	r0, #0
    9c24:	ee070fba 	mcr	15, 0, r0, cr7, cr10, {5}
    9c28:	e12fff1e 	bx	lr

00009c2c <dsb>:
    9c2c:	ee070f9a 	mcr	15, 0, r0, cr7, cr10, {4}
    9c30:	e12fff1e 	bx	lr

00009c34 <put32>:
    9c34:	e5801000 	str	r1, [r0]
    9c38:	e12fff1e 	bx	lr

00009c3c <PUT32>:
    9c3c:	e5801000 	str	r1, [r0]
    9c40:	e12fff1e 	bx	lr

00009c44 <put16>:
    9c44:	e1c010b0 	strh	r1, [r0]
    9c48:	e12fff1e 	bx	lr

00009c4c <PUT16>:
    9c4c:	e1c010b0 	strh	r1, [r0]
    9c50:	e12fff1e 	bx	lr

00009c54 <put8>:
    9c54:	e5c01000 	strb	r1, [r0]
    9c58:	e12fff1e 	bx	lr

00009c5c <PUT8>:
    9c5c:	e5c01000 	strb	r1, [r0]
    9c60:	e12fff1e 	bx	lr

00009c64 <get32>:
    9c64:	e5900000 	ldr	r0, [r0]
    9c68:	e12fff1e 	bx	lr

00009c6c <GET32>:
    9c6c:	e5900000 	ldr	r0, [r0]
    9c70:	e12fff1e 	bx	lr

00009c74 <GETPC>:
    9c74:	e1a0000e 	mov	r0, lr
    9c78:	e12fff1e 	bx	lr

00009c7c <dummy>:
    9c7c:	e12fff1e 	bx	lr

00009c80 <cb_new>:
    9c80:	e92d4008 	push	{r3, lr}
    9c84:	e3a00409 	mov	r0, #150994944	; 0x9000000
    9c88:	e3a01000 	mov	r1, #0
    9c8c:	e3a02004 	mov	r2, #4
    9c90:	eb00000e 	bl	9cd0 <memset>
    9c94:	e3a00409 	mov	r0, #150994944	; 0x9000000
    9c98:	e59f3004 	ldr	r3, [pc, #4]	; 9ca4 <cb_new+0x24>
    9c9c:	e5803000 	str	r3, [r0]
    9ca0:	e8bd8008 	pop	{r3, pc}
    9ca4:	12345678 	eorsne	r5, r4, #120, 12	; 0x7800000

00009ca8 <cb_get_block>:
    9ca8:	e3a03409 	mov	r3, #150994944	; 0x9000000
    9cac:	e5932000 	ldr	r2, [r3]
    9cb0:	e59f3014 	ldr	r3, [pc, #20]	; 9ccc <cb_get_block+0x24>
    9cb4:	e1520003 	cmp	r2, r3
    9cb8:	0a000001 	beq	9cc4 <cb_get_block+0x1c>
    9cbc:	e3a00000 	mov	r0, #0
    9cc0:	e12fff1e 	bx	lr
    9cc4:	e3a00409 	mov	r0, #150994944	; 0x9000000
    9cc8:	e12fff1e 	bx	lr
    9ccc:	12345678 	eorsne	r5, r4, #120, 12	; 0x7800000

00009cd0 <memset>:
    9cd0:	e0802002 	add	r2, r0, r2
    9cd4:	e1a03000 	mov	r3, r0
    9cd8:	ea000001 	b	9ce4 <memset+0x14>
    9cdc:	e5c31000 	strb	r1, [r3]
    9ce0:	e2833001 	add	r3, r3, #1
    9ce4:	e1530002 	cmp	r3, r2
    9ce8:	3afffffb 	bcc	9cdc <memset+0xc>
    9cec:	e12fff1e 	bx	lr

Disassembly of section .data:

00009cf0 <rpi_putchar>:
    9cf0:	00008738 	andeq	r8, r0, r8, lsr r7

00009cf4 <putk>:
    9cf4:	00008774 	andeq	r8, r0, r4, ror r7

00009cf8 <GPFSEL0>:
    9cf8:	20200000 	eorcs	r0, r0, r0

00009cfc <GPFSEL1>:
    9cfc:	20200004 	eorcs	r0, r0, r4

00009d00 <GPFSEL2>:
    9d00:	20200008 	eorcs	r0, r0, r8

00009d04 <GPFSEL3>:
    9d04:	2020000c 	eorcs	r0, r0, ip

00009d08 <GPFSEL4>:
    9d08:	20200010 	eorcs	r0, r0, r0, lsl r0

00009d0c <GPFSEL5>:
    9d0c:	20200014 	eorcs	r0, r0, r4, lsl r0

00009d10 <GPSET0>:
    9d10:	2020001c 	eorcs	r0, r0, ip, lsl r0

00009d14 <GPSET1>:
    9d14:	20200020 	eorcs	r0, r0, r0, lsr #32

00009d18 <GPCLR0>:
    9d18:	20200028 	eorcs	r0, r0, r8, lsr #32

00009d1c <GPCLR1>:
    9d1c:	2020002c 	eorcs	r0, r0, ip, lsr #32

00009d20 <GPLEV0>:
    9d20:	20200034 	eorcs	r0, r0, r4, lsr r0

00009d24 <GPLEV1>:
    9d24:	20200038 	eorcs	r0, r0, r8, lsr r0

00009d28 <IRQ_PENDING_2>:
    9d28:	2000b208 	andcs	fp, r0, r8, lsl #4

00009d2c <GPREN0>:
    9d2c:	2020004c 	eorcs	r0, r0, ip, asr #32

00009d30 <GPREN1>:
    9d30:	20200050 	eorcs	r0, r0, r0, asr r0

00009d34 <ENABLE_IRQS_2>:
    9d34:	2000b214 	andcs	fp, r0, r4, lsl r2

00009d38 <GPFEN0>:
    9d38:	20200058 	eorcs	r0, r0, r8, asr r0

00009d3c <GPFEN1>:
    9d3c:	2020005c 	eorcs	r0, r0, ip, asr r0

00009d40 <GPEDS0>:
    9d40:	20200040 	eorcs	r0, r0, r0, asr #32

00009d44 <GPEDS1>:
    9d44:	20200044 	eorcs	r0, r0, r4, asr #32

00009d48 <IRQ_PENDING_1>:
    9d48:	2000b204 	andcs	fp, r0, r4, lsl #4

00009d4c <gpio_clr0>:
    9d4c:	20200028 	eorcs	r0, r0, r8, lsr #32

00009d50 <gpio_set0>:
    9d50:	2020001c 	eorcs	r0, r0, ip, lsl r0

00009d54 <gpio_fsel0>:
    9d54:	20200000 	eorcs	r0, r0, r0

00009d58 <AUX_ENABLES>:
    9d58:	20215004 	eorcs	r5, r1, r4

00009d5c <AUX_MU_CNTL_REG>:
    9d5c:	20215060 	eorcs	r5, r1, r0, rrx

00009d60 <AUX_MU_IER_REG>:
    9d60:	20215044 	eorcs	r5, r1, r4, asr #32

00009d64 <AUX_MU_IIR_REG>:
    9d64:	20215048 	eorcs	r5, r1, r8, asr #32

00009d68 <AUX_MU_LCR_REG>:
    9d68:	2021504c 	eorcs	r5, r1, ip, asr #32

00009d6c <AUX_MU_BAUD_REG>:
    9d6c:	20215068 	eorcs	r5, r1, r8, rrx

00009d70 <AUX_MU_LSR_REG>:
    9d70:	20215054 	eorcs	r5, r1, r4, asr r0

00009d74 <AUX_MU_IO_REG>:
    9d74:	20215040 	eorcs	r5, r1, r0, asr #32

00009d78 <AUX_MU_STAT_REG>:
    9d78:	20215064 	eorcs	r5, r1, r4, rrx

00009d7c <AUX_MU_SCRATCH>:
    9d7c:	2021505c 	eorcs	r5, r1, ip, asr r0

00009d80 <AUX_MU_MSR_REG>:
    9d80:	20215058 	eorcs	r5, r1, r8, asr r0

00009d84 <AUX_MU_MCR_REG>:
    9d84:	20215050 	eorcs	r5, r1, r0, asr r0

00009d88 <AUX_IRQ>:
    9d88:	20215000 	eorcs	r5, r1, r0

Disassembly of section .rodata:

00009d8c <__FUNCTION__.4238>:
    9d8c:	6c637963 	stclvs	9, cr7, [r3], #-396	; 0xfffffe74
    9d90:	705f7365 	subsvc	r7, pc, r5, ror #6
    9d94:	735f7265 	cmpvc	pc, #1342177286	; 0x50000006
    9d98:	00006365 	andeq	r6, r0, r5, ror #6
    9d9c:	4f525245 	svcmi	0x00525245
    9da0:	73253a52 	teqvc	r5, #335872	; 0x52000
    9da4:	3a73253a 	bcc	1cd3294 <__bss_end__+0x1cc8df4>
    9da8:	203a6425 	eorscs	r6, sl, r5, lsr #8
    9dac:	534c4146 	movtpl	r4, #49478	; 0xc146
    9db0:	733c2845 	teqvc	ip, #4521984	; 0x450000
    9db4:	32203c20 	eorcc	r3, r0, #32, 24	; 0x2000
    9db8:	203a293e 	eorscs	r2, sl, lr, lsr r9
    9dbc:	6c6c6977 	stclvs	9, cr6, [ip], #-476	; 0xfffffe24
    9dc0:	65766f20 	ldrbvs	r6, [r6, #-3872]!	; 0xf20
    9dc4:	6f6c6672 	svcvs	0x006c6672
    9dc8:	00000a77 	andeq	r0, r0, r7, ror sl
    9dcc:	706f6373 	rsbvc	r6, pc, r3, ror r3	; <UNPREDICTABLE>
    9dd0:	00632e65 	rsbeq	r2, r3, r5, ror #28
    9dd4:	61206d61 	teqvs	r0, r1, ror #26
    9dd8:	72657320 	rsbvc	r7, r5, #32, 6	; 0x80000000
    9ddc:	2c726576 	cfldr64cs	mvdx6, [r2], #-472	; 0xfffffe28
    9de0:	6e657320 	cdpvs	3, 6, cr7, cr5, cr0, {1}
    9de4:	676e6964 	strbvs	r6, [lr, -r4, ror #18]!
    9de8:	000a3020 	andeq	r3, sl, r0, lsr #32
    9dec:	76726573 			; <UNDEFINED> instruction: 0x76726573
    9df0:	64207265 	strtvs	r7, [r0], #-613	; 0x265
    9df4:	3a656e6f 	bcc	19657b8 <__bss_end__+0x195b318>
    9df8:	646e6520 	strbtvs	r6, [lr], #-1312	; 0x520
    9dfc:	77206465 	strvc	r6, [r0, -r5, ror #8]!
    9e00:	20687469 	rsbcs	r7, r8, r9, ror #8
    9e04:	000a6425 	andeq	r6, sl, r5, lsr #8
    9e08:	61206d61 	teqvs	r0, r1, ror #26
    9e0c:	696c6320 	stmdbvs	ip!, {r5, r8, r9, sp, lr}^
    9e10:	0a746e65 	beq	1d257ac <__bss_end__+0x1d1b30c>
    9e14:	00000000 	andeq	r0, r0, r0
    9e18:	74696177 	strbtvc	r6, [r9], #-375	; 0x177
    9e1c:	20676e69 	rsbcs	r6, r7, r9, ror #28
    9e20:	20726f66 	rsbscs	r6, r2, r6, ror #30
    9e24:	00000a30 	andeq	r0, r0, r0, lsr sl
    9e28:	20746f47 	rsbscs	r6, r4, r7, asr #30
    9e2c:	000a6425 	andeq	r6, sl, r5, lsr #8
    9e30:	646e6553 	strbtvs	r6, [lr], #-1363	; 0x553
    9e34:	20676e69 	rsbcs	r6, r7, r9, ror #28
    9e38:	000a6425 	andeq	r6, sl, r5, lsr #8
    9e3c:	65696c63 	strbvs	r6, [r9, #-3171]!	; 0xc63
    9e40:	6420746e 	strtvs	r7, [r0], #-1134	; 0x46e
    9e44:	3a656e6f 	bcc	1965808 <__bss_end__+0x195b368>
    9e48:	646e6520 	strbtvs	r6, [lr], #-1312	; 0x520
    9e4c:	77206465 	strvc	r6, [r0, -r5, ror #8]!
    9e50:	20687469 	rsbcs	r7, r8, r9, ror #8
    9e54:	000a6425 	andeq	r6, sl, r5, lsr #8

00009e58 <__FUNCTION__.4265>:
    9e58:	74696d65 	strbtvc	r6, [r9], #-3429	; 0xd65
    9e5c:	00000000 	andeq	r0, r0, r0

00009e60 <__FUNCTION__.4213>:
    9e60:	5f697072 	svcpl	0x00697072
    9e64:	5f746573 	svcpl	0x00746573
    9e68:	7074756f 	rsbsvc	r7, r4, pc, ror #10
    9e6c:	00007475 	andeq	r7, r0, r5, ror r4

00009e70 <__FUNCTION__.4287>:
    9e70:	705f6176 	subsvc	r6, pc, r6, ror r1	; <UNPREDICTABLE>
    9e74:	746e6972 	strbtvc	r6, [lr], #-2418	; 0x972
    9e78:	0000006b 	andeq	r0, r0, fp, rrx
    9e7c:	494e4150 	stmdbmi	lr, {r4, r6, r8, lr}^
    9e80:	73253a43 	teqvc	r5, #274432	; 0x43000
    9e84:	3a73253a 	bcc	1cd3374 <__bss_end__+0x1cc8ed4>
    9e88:	253a6425 	ldrcs	r6, [sl, #-1061]!	; 0x425
    9e8c:	00000a73 	andeq	r0, r0, r3, ror sl
    9e90:	6362696c 	cmnvs	r2, #108, 18	; 0x1b0000
    9e94:	2d61762f 	stclcs	6, cr7, [r1, #-188]!	; 0xffffff44
    9e98:	6e697270 	mcrvs	2, 3, r7, cr9, cr0, {3}
    9e9c:	632e6b74 	teqvs	lr, #116, 22	; 0x1d000
    9ea0:	00000000 	andeq	r0, r0, r0
    9ea4:	00000030 	andeq	r0, r0, r0, lsr r0
    9ea8:	33323130 	teqcc	r2, #48, 2
    9eac:	37363534 			; <UNDEFINED> instruction: 0x37363534
    9eb0:	00003938 	andeq	r3, r0, r8, lsr r9
    9eb4:	33323130 	teqcc	r2, #48, 2
    9eb8:	37363534 			; <UNDEFINED> instruction: 0x37363534
    9ebc:	62613938 	rsbvs	r3, r1, #56, 18	; 0xe0000
    9ec0:	66656463 	strbtvs	r6, [r5], -r3, ror #8
    9ec4:	00000000 	andeq	r0, r0, r0
    9ec8:	00003130 	andeq	r3, r0, r0, lsr r1
    9ecc:	63747570 	cmnvs	r4, #112, 10	; 0x1c000000
    9ed0:	0070665f 	rsbseq	r6, r0, pc, asr r6
    9ed4:	74646977 	strbtvc	r6, [r4], #-2423	; 0x977
    9ed8:	203c2068 	eorscs	r2, ip, r8, rrx
    9edc:	00003233 	andeq	r3, r0, r3, lsr r2
    9ee0:	494e4150 	stmdbmi	lr, {r4, r6, r8, lr}^
    9ee4:	73253a43 	teqvc	r5, #274432	; 0x43000
    9ee8:	3a73253a 	bcc	1cd33d8 <__bss_end__+0x1cc8f38>
    9eec:	663a6425 	ldrtvs	r6, [sl], -r5, lsr #8
    9ef0:	74616f6c 	strbtvc	r6, [r1], #-3948	; 0xf6c
    9ef4:	746f6e20 	strbtvc	r6, [pc], #-3616	; 9efc <__FUNCTION__.4287+0x8c>
    9ef8:	616e6520 	cmnvs	lr, r0, lsr #10
    9efc:	64656c62 	strbtvs	r6, [r5], #-3170	; 0xc62
    9f00:	0a212121 	beq	85238c <__bss_end__+0x847eec>
    9f04:	00000000 	andeq	r0, r0, r0
    9f08:	494e4150 	stmdbmi	lr, {r4, r6, r8, lr}^
    9f0c:	73253a43 	teqvc	r5, #274432	; 0x43000
    9f10:	3a73253a 	bcc	1cd3400 <__bss_end__+0x1cc8f60>
    9f14:	703a6425 	eorsvc	r6, sl, r5, lsr #8
    9f18:	746e6972 	strbtvc	r6, [lr], #-2418	; 0x972
    9f1c:	6e203a6b 	vnmulvs.f32	s6, s0, s23
    9f20:	6820746f 	stmdavs	r0!, {r0, r1, r2, r3, r5, r6, sl, ip, sp, lr}
    9f24:	6c646e61 	stclvs	14, cr6, [r4], #-388	; 0xfffffe7c
    9f28:	20676e69 	rsbcs	r6, r7, r9, ror #28
    9f2c:	63657073 	cmnvs	r5, #115	; 0x73
    9f30:	65696669 	strbvs	r6, [r9, #-1641]!	; 0x669
    9f34:	25272072 	strcs	r2, [r7, #-114]!	; 0x72
    9f38:	0a0a2763 	beq	293ccc <__bss_end__+0x28982c>
    9f3c:	00000000 	andeq	r0, r0, r0
    9f40:	454e4f44 	strbmi	r4, [lr, #-3908]	; 0xf44
    9f44:	0a212121 	beq	8523d0 <__bss_end__+0x847f30>
    9f48:	00000000 	andeq	r0, r0, r0
    9f4c:	756f6261 	strbvc	r6, [pc, #-609]!	; 9cf3 <rpi_putchar+0x3>
    9f50:	6f742074 	svcvs	0x00742074
    9f54:	69727020 	ldmdbvs	r2!, {r5, ip, sp, lr}^
    9f58:	6f20746e 	svcvs	0x0020746e
    9f5c:	6572206e 	ldrbvs	r2, [r2, #-110]!	; 0x6e
    9f60:	616c7567 	cmnvs	ip, r7, ror #10
    9f64:	72702072 	rsbsvc	r2, r0, #114	; 0x72
    9f68:	66746e69 	ldrbtvs	r6, [r4], -r9, ror #28
    9f6c:	0000000a 	andeq	r0, r0, sl
    9f70:	63637573 	cmnvs	r3, #482344960	; 0x1cc00000
    9f74:	21737365 	cmncs	r3, r5, ror #6
    9f78:	0000000a 	andeq	r0, r0, sl

00009f7c <__FUNCTION__.4314>:
    9f7c:	755f7773 	ldrbvc	r7, [pc, #-1907]	; 9811 <sw_uart_gets_until+0x95>
    9f80:	5f747261 	svcpl	0x00747261
    9f84:	73746567 	cmnvc	r4, #432013312	; 0x19c00000
    9f88:	746e755f 	strbtvc	r7, [lr], #-1375	; 0x55f
    9f8c:	00006c69 	andeq	r6, r0, r9, ror #24

00009f90 <__FUNCTION__.4326>:
    9f90:	755f7773 	ldrbvc	r7, [pc, #-1907]	; 9825 <sw_uart_gets_timeout+0x5>
    9f94:	5f747261 	svcpl	0x00747261
    9f98:	73746567 	cmnvc	r4, #432013312	; 0x19c00000
    9f9c:	6d69745f 	cfstrdvs	mvd7, [r9, #-380]!	; 0xfffffe84
    9fa0:	74756f65 	ldrbtvc	r6, [r5], #-3941	; 0xf65
    9fa4:	00000000 	andeq	r0, r0, r0

00009fa8 <__FUNCTION__.4340>:
    9fa8:	755f7773 	ldrbvc	r7, [pc, #-1907]	; 983d <sw_uart_gets_timeout+0x1d>
    9fac:	5f747261 	svcpl	0x00747261
    9fb0:	74696e69 	strbtvc	r6, [r9], #-3689	; 0xe69
    9fb4:	6c65685f 	stclvs	8, cr6, [r5], #-380	; 0xfffffe84
    9fb8:	00726570 	rsbseq	r6, r2, r0, ror r5

00009fbc <__FUNCTION__.4346>:
    9fbc:	755f7773 	ldrbvc	r7, [pc, #-1907]	; 9851 <sw_uart_gets_timeout+0x31>
    9fc0:	5f747261 	svcpl	0x00747261
    9fc4:	63746567 	cmnvs	r4, #432013312	; 0x19c00000
    9fc8:	00000000 	andeq	r0, r0, r0

00009fcc <__FUNCTION__.4368>:
    9fcc:	755f7773 	ldrbvc	r7, [pc, #-1907]	; 9861 <sw_uart_gets_timeout+0x41>
    9fd0:	5f747261 	svcpl	0x00747261
    9fd4:	6e697270 	mcrvs	2, 3, r7, cr9, cr0, {3}
    9fd8:	00006b74 	andeq	r6, r0, r4, ror fp

00009fdc <__FUNCTION__.4376>:
    9fdc:	755f7773 	ldrbvc	r7, [pc, #-1907]	; 9871 <sw_uart_gets_timeout+0x51>
    9fe0:	5f747261 	svcpl	0x00747261
    9fe4:	73746567 	cmnvc	r4, #432013312	; 0x19c00000
    9fe8:	746e755f 	strbtvc	r7, [lr], #-1375	; 0x55f
    9fec:	625f6c69 	subsvs	r6, pc, #26880	; 0x6900
    9ff0:	00006b6c 	andeq	r6, r0, ip, ror #22
    9ff4:	732d796d 	teqvc	sp, #1785856	; 0x1b4000
    9ff8:	732f6372 	teqvc	pc, #-939524095	; 0xc8000001
    9ffc:	61752d77 	cmnvs	r5, r7, ror sp
    a000:	632e7472 	teqvs	lr, #1912602624	; 0x72000000
    a004:	00000000 	andeq	r0, r0, r0
    a008:	7479626e 	ldrbtvc	r6, [r9], #-622	; 0x26e
    a00c:	303e7365 	eorscc	r7, lr, r5, ror #6
    a010:	00000000 	andeq	r0, r0, r0
    a014:	7a686d28 	bvc	1a254bc <__bss_end__+0x1a1b01c>
    a018:	62202d20 	eorvs	r2, r0, #32, 26	; 0x800
    a01c:	29647561 	stmdbcs	r4!, {r0, r5, r6, r8, sl, ip, sp, lr}^
    a020:	203d3c20 	eorscs	r3, sp, r0, lsr #24
    a024:	69726564 	ldmdbvs	r2!, {r2, r5, r6, r8, sl, sp, lr}^
    a028:	20646576 	rsbcs	r6, r4, r6, ror r5
    a02c:	64202626 	strtvs	r2, [r0], #-1574	; 0x626
    a030:	76697265 	strbtvc	r7, [r9], -r5, ror #4
    a034:	3c206465 	cfstrscc	mvf6, [r0], #-404	; 0xfffffe6c
    a038:	6d28203d 	stcvs	0, cr2, [r8, #-244]!	; 0xffffff0c
    a03c:	2b207a68 	blcs	8289e4 <__bss_end__+0x81e544>
    a040:	75616220 	strbvc	r6, [r1, #-544]!	; 0x220
    a044:	00002964 	andeq	r2, r0, r4, ror #18
    a048:	494e4150 	stmdbmi	lr, {r4, r6, r8, lr}^
    a04c:	73253a43 	teqvc	r5, #274432	; 0x43000
    a050:	3a73253a 	bcc	1cd3540 <__bss_end__+0x1cc90a0>
    a054:	693a6425 	ldmdbvs	sl!, {r0, r2, r5, sl, sp, lr}
    a058:	736f706d 	cmnvc	pc, #109	; 0x6d
    a05c:	6c626973 	stclvs	9, cr6, [r2], #-460	; 0xfffffe34
    a060:	68203a65 	stmdavs	r0!, {r0, r2, r5, r6, r9, fp, ip, sp}
    a064:	20657661 	rsbcs	r7, r5, r1, ror #12
    a068:	69206e61 	stmdbvs	r0!, {r0, r5, r6, r9, sl, fp, sp, lr}
    a06c:	6e69666e 	cdpvs	6, 6, cr6, cr9, cr14, {3}
    a070:	20657469 	rsbcs	r7, r5, r9, ror #8
    a074:	656d6974 	strbvs	r6, [sp, #-2420]!	; 0x974
    a078:	2174756f 	cmncs	r4, pc, ror #10
    a07c:	00000a0a 	andeq	r0, r0, sl, lsl #20
    a080:	3c207a73 	stccc	10, cr7, [r0], #-460	; 0xfffffe34
    a084:	7a697320 	bvc	1a66d0c <__bss_end__+0x1a5c86c>
    a088:	20666f65 	rsbcs	r6, r6, r5, ror #30
    a08c:	2d667562 	cfstr64cs	mvdx7, [r6, #-392]!	; 0xfffffe78
    a090:	00000031 	andeq	r0, r0, r1, lsr r0

Disassembly of section .bss:

0000a094 <__bss_start__>:
	...

0000a494 <console_uart>:
	...

Disassembly of section .ARM.attributes:

00000000 <.ARM.attributes>:
   0:	00002a41 	andeq	r2, r0, r1, asr #20
   4:	61656100 	cmnvs	r5, r0, lsl #2
   8:	01006962 	tsteq	r0, r2, ror #18
   c:	00000020 	andeq	r0, r0, r0, lsr #32
  10:	4b5a3605 	blmi	168d82c <__bss_end__+0x168338c>
  14:	08070600 	stmdaeq	r7, {r9, sl}
  18:	12010901 	andne	r0, r1, #16384	; 0x4000
  1c:	15011404 	strne	r1, [r1, #-1028]	; 0x404
  20:	18031701 	stmdane	r3, {r0, r8, r9, sl, ip}
  24:	22011a01 	andcs	r1, r1, #4096	; 0x1000
  28:	Address 0x0000000000000028 is out of bounds.


Disassembly of section .comment:

00000000 <.comment>:
   0:	3a434347 	bcc	10d0d24 <__bss_end__+0x10c6884>
   4:	4e472820 	cdpmi	8, 4, cr2, cr7, cr0, {1}
   8:	34202955 	strtcc	r2, [r0], #-2389	; 0x955
   c:	332e382e 	teqcc	lr, #3014656	; 0x2e0000
	...

Disassembly of section .debug_info:

00000000 <.debug_info>:
       0:	00001042 	andeq	r1, r0, r2, asr #32
       4:	00000004 	andeq	r0, r0, r4
       8:	01040000 	mrseq	r0, (UNDEF: 4)
       c:	000000cb 	andeq	r0, r0, fp, asr #1
      10:	0002ae01 	andeq	sl, r2, r1, lsl #28
      14:	0001c900 	andeq	ip, r1, r0, lsl #18
      18:	00801000 	addeq	r1, r0, r0
      1c:	0006d000 	andeq	sp, r6, r0
      20:	00000000 	andeq	r0, r0, r0
      24:	05040200 	streq	r0, [r4, #-512]	; 0x200
      28:	00746e69 	rsbseq	r6, r4, r9, ror #28
      2c:	4d070403 	cfstrsmi	mvf0, [r7, #-12]
      30:	03000000 	movweq	r0, #0
      34:	02260601 	eoreq	r0, r6, #1048576	; 0x100000
      38:	02030000 	andeq	r0, r3, #0
      3c:	00023205 	andeq	r3, r2, r5, lsl #4
      40:	05040300 	streq	r0, [r4, #-768]	; 0x300
      44:	0000007c 	andeq	r0, r0, ip, ror r0
      48:	77050803 	strvc	r0, [r5, -r3, lsl #16]
      4c:	04000000 	streq	r0, [r0], #-0
      50:	0000029c 	muleq	r0, ip, r2
      54:	005a2e04 	subseq	r2, sl, r4, lsl #28
      58:	01030000 	mrseq	r0, (UNDEF: 3)
      5c:	00022408 	andeq	r2, r2, r8, lsl #8
      60:	07020300 	streq	r0, [r2, -r0, lsl #6]
      64:	0000017e 	andeq	r0, r0, lr, ror r1
      68:	48070403 	stmdami	r7, {r0, r1, sl}
      6c:	03000000 	movweq	r0, #0
      70:	00430708 	subeq	r0, r3, r8, lsl #14
      74:	04030000 	streq	r0, [r3], #-0
      78:	0001c007 	andeq	ip, r1, r7
      7c:	08010300 	stmdaeq	r1, {r8, r9}
      80:	0000022d 	andeq	r0, r0, sp, lsr #4
      84:	008a0405 	addeq	r0, sl, r5, lsl #8
      88:	7d060000 	stcvc	0, cr0, [r6, #-0]
      8c:	07000000 	streq	r0, [r0, -r0]
      90:	0000005a 	andeq	r0, r0, sl, asr r0
      94:	a7031c01 	strge	r1, [r3, -r1, lsl #24]
      98:	08000000 	stmdaeq	r0, {}	; <UNPREDICTABLE>
      9c:	006e6970 	rsbeq	r6, lr, r0, ror r9
      a0:	002c1c01 	eoreq	r1, ip, r1, lsl #24
      a4:	07000000 	streq	r0, [r0, -r0]
      a8:	000000b9 	strheq	r0, [r0], -r9
      ac:	bf032101 	svclt	0x00032101
      b0:	08000000 	stmdaeq	r0, {}	; <UNPREDICTABLE>
      b4:	006e6970 	rsbeq	r6, lr, r0, ror r9
      b8:	002c2101 	eoreq	r2, ip, r1, lsl #2
      bc:	07000000 	streq	r0, [r0, -r0]
      c0:	00000024 	andeq	r0, r0, r4, lsr #32
      c4:	e0032601 	and	r2, r3, r1, lsl #12
      c8:	08000000 	stmdaeq	r0, {}	; <UNPREDICTABLE>
      cc:	006e6970 	rsbeq	r6, lr, r0, ror r9
      d0:	002c2601 	eoreq	r2, ip, r1, lsl #12
      d4:	76080000 	strvc	r0, [r8], -r0
      d8:	2c260100 	stfcss	f0, [r6], #-0
      dc:	00000000 	andeq	r0, r0, r0
      e0:	00021909 	andeq	r1, r2, r9, lsl #18
      e4:	2c470100 	stfcse	f0, [r7], {-0}
      e8:	01000000 	mrseq	r0, (UNDEF: 0)
      ec:	00000219 	andeq	r0, r0, r9, lsl r2
      f0:	6e697008 	cdpvs	0, 6, cr7, cr9, cr8, {0}
      f4:	2c470100 	stfcse	f0, [r7], {-0}
      f8:	0a000000 	beq	100 <_start-0x7f00>
      fc:	0000032d 	andeq	r0, r0, sp, lsr #6
     100:	00254a01 	eoreq	r4, r5, r1, lsl #20
     104:	3e0a0000 	cdpcc	0, 0, cr0, cr10, cr0, {0}
     108:	01000000 	mrseq	r0, (UNDEF: 0)
     10c:	0000254b 	andeq	r2, r0, fp, asr #10
     110:	00390a00 	eorseq	r0, r9, r0, lsl #20
     114:	4c010000 	stcmi	0, cr0, [r1], {-0}
     118:	00000025 	andeq	r0, r0, r5, lsr #32
     11c:	0000340a 	andeq	r3, r0, sl, lsl #8
     120:	254d0100 	strbcs	r0, [sp, #-256]	; 0x100
     124:	0a000000 	beq	12c <_start-0x7ed4>
     128:	00000072 	andeq	r0, r0, r2, ror r0
     12c:	00254e01 	eoreq	r4, r5, r1, lsl #28
     130:	1f0a0000 	svcne	0x000a0000
     134:	01000000 	mrseq	r0, (UNDEF: 0)
     138:	0000254f 	andeq	r2, r0, pc, asr #10
     13c:	001a0a00 	andseq	r0, sl, r0, lsl #20
     140:	50010000 	andpl	r0, r1, r0
     144:	00000025 	andeq	r0, r0, r5, lsr #32
     148:	0000150a 	andeq	r1, r0, sl, lsl #10
     14c:	25510100 	ldrbcs	r0, [r1, #-256]	; 0x100
     150:	0a000000 	beq	158 <_start-0x7ea8>
     154:	00000010 	andeq	r0, r0, r0, lsl r0
     158:	00255201 	eoreq	r5, r5, r1, lsl #4
     15c:	690b0000 	stmdbvs	fp, {}	; <UNPREDICTABLE>
     160:	2c540100 	ldfcse	f0, [r4], {-0}
     164:	0a000000 	beq	16c <_start-0x7e94>
     168:	00000511 	andeq	r0, r0, r1, lsl r5
     16c:	002c5901 	eoreq	r5, ip, r1, lsl #18
     170:	830c0000 	movwhi	r0, #49152	; 0xc000
     174:	0a000001 	beq	180 <_start-0x7e80>
     178:	0000021f 	andeq	r0, r0, pc, lsl r2
     17c:	002c5901 	eoreq	r5, ip, r1, lsl #18
     180:	0c000000 	stceq	0, cr0, [r0], {-0}
     184:	00000194 	muleq	r0, r4, r1
     188:	00021f0a 	andeq	r1, r2, sl, lsl #30
     18c:	2c5a0100 	ldfcse	f0, [sl], {-0}
     190:	00000000 	andeq	r0, r0, r0
     194:	0001a50c 	andeq	sl, r1, ip, lsl #10
     198:	021f0a00 	andseq	r0, pc, #0, 20
     19c:	5c010000 	stcpl	0, cr0, [r1], {-0}
     1a0:	0000002c 	andeq	r0, r0, ip, lsr #32
     1a4:	01b60c00 			; <UNDEFINED> instruction: 0x01b60c00
     1a8:	1f0a0000 	svcne	0x000a0000
     1ac:	01000002 	tsteq	r0, r2
     1b0:	00002c5e 	andeq	r2, r0, lr, asr ip
     1b4:	c70c0000 	strgt	r0, [ip, -r0]
     1b8:	0a000001 	beq	1c4 <_start-0x7e3c>
     1bc:	0000021f 	andeq	r0, r0, pc, lsl r2
     1c0:	002c6001 	eoreq	r6, ip, r1
     1c4:	0c000000 	stceq	0, cr0, [r0], {-0}
     1c8:	000001d8 	ldrdeq	r0, [r0], -r8
     1cc:	00021f0a 	andeq	r1, r2, sl, lsl #30
     1d0:	2c620100 	stfcse	f0, [r2], #-0
     1d4:	00000000 	andeq	r0, r0, r0
     1d8:	0001e90c 	andeq	lr, r1, ip, lsl #18
     1dc:	021f0a00 	andseq	r0, pc, #0, 20
     1e0:	64010000 	strvs	r0, [r1], #-0
     1e4:	0000002c 	andeq	r0, r0, ip, lsr #32
     1e8:	01fa0c00 	mvnseq	r0, r0, lsl #24
     1ec:	1f0a0000 	svcne	0x000a0000
     1f0:	01000002 	tsteq	r0, r2
     1f4:	00002c66 	andeq	r2, r0, r6, ror #24
     1f8:	0b0c0000 	bleq	300200 <__bss_end__+0x2f5d60>
     1fc:	0a000002 	beq	20c <_start-0x7df4>
     200:	0000021f 	andeq	r0, r0, pc, lsl r2
     204:	002c6801 	eoreq	r6, ip, r1, lsl #16
     208:	0d000000 	stceq	0, cr0, [r0, #-0]
     20c:	00021f0a 	andeq	r1, r2, sl, lsl #30
     210:	2c6a0100 	stfcse	f0, [sl], #-0
     214:	00000000 	andeq	r0, r0, r0
     218:	006b0700 	rsbeq	r0, fp, r0, lsl #14
     21c:	a6010000 	strge	r0, [r1], -r0
     220:	00026401 	andeq	r6, r2, r1, lsl #8
     224:	78740800 	ldmdavc	r4!, {fp}^
     228:	2ca60100 	stfcss	f0, [r6]
     22c:	08000000 	stmdaeq	r0, {}	; <UNPREDICTABLE>
     230:	01007872 	tsteq	r0, r2, ror r8
     234:	00002ca6 	andeq	r2, r0, r6, lsr #25
     238:	006e0800 	rsbeq	r0, lr, r0, lsl #16
     23c:	002ca601 	eoreq	sl, ip, r1, lsl #12
     240:	660a0000 	strvs	r0, [sl], -r0
     244:	01000001 	tsteq	r0, r1
     248:	00002ca9 	andeq	r2, r0, r9, lsr #25
     24c:	01550a00 	cmpeq	r5, r0, lsl #20
     250:	aa010000 	bge	40258 <__bss_end__+0x35db8>
     254:	0000002c 	andeq	r0, r0, ip, lsr #32
     258:	00690b0d 	rsbeq	r0, r9, sp, lsl #22
     25c:	002cae01 	eoreq	sl, ip, r1, lsl #28
     260:	00000000 	andeq	r0, r0, r0
     264:	00012207 	andeq	r2, r1, r7, lsl #4
     268:	01b90100 			; <UNDEFINED> instruction: 0x01b90100
     26c:	000002af 	andeq	r0, r0, pc, lsr #5
     270:	00787408 	rsbseq	r7, r8, r8, lsl #8
     274:	002cb901 	eoreq	fp, ip, r1, lsl #18
     278:	72080000 	andvc	r0, r8, #0
     27c:	b9010078 	stmdblt	r1, {r3, r4, r5, r6}
     280:	0000002c 	andeq	r0, r0, ip, lsr #32
     284:	01006e08 	tsteq	r0, r8, lsl #28
     288:	00002cb9 			; <UNDEFINED> instruction: 0x00002cb9
     28c:	01ba0a00 			; <UNDEFINED> instruction: 0x01ba0a00
     290:	be010000 	cdplt	0, 0, cr0, cr1, cr0, {0}
     294:	0000002c 	andeq	r0, r0, ip, lsr #32
     298:	0001550a 	andeq	r5, r1, sl, lsl #10
     29c:	2cbf0100 	ldfcss	f0, [pc]	; 2a4 <_start-0x7d5c>
     2a0:	0a000000 	beq	2a8 <_start-0x7d58>
     2a4:	00000129 	andeq	r0, r0, r9, lsr #2
     2a8:	002cc001 	eoreq	ip, ip, r1
     2ac:	0e000000 	cdpeq	0, 0, cr0, cr0, cr0, {0}
     2b0:	000000e0 	andeq	r0, r0, r0, ror #1
     2b4:	00008010 	andeq	r8, r0, r0, lsl r0
     2b8:	0000019c 	muleq	r0, ip, r1
     2bc:	04069c01 	streq	r9, [r6], #-3073	; 0xc01
     2c0:	fb0f0000 	blx	3c02ca <__bss_end__+0x3b5e2a>
     2c4:	00000000 	andeq	r0, r0, r0
     2c8:	0f000000 	svceq	0x00000000
     2cc:	00000106 	andeq	r0, r0, r6, lsl #2
     2d0:	00000038 	andeq	r0, r0, r8, lsr r0
     2d4:	0001110f 	andeq	r1, r1, pc, lsl #2
     2d8:	00004b00 	andeq	r4, r0, r0, lsl #22
     2dc:	011c0f00 	tsteq	ip, r0, lsl #30
     2e0:	005e0000 	subseq	r0, lr, r0
     2e4:	270f0000 	strcs	r0, [pc, -r0]
     2e8:	71000001 	tstvc	r0, r1
     2ec:	0f000000 	svceq	0x00000000
     2f0:	00000132 	andeq	r0, r0, r2, lsr r1
     2f4:	00000084 	andeq	r0, r0, r4, lsl #1
     2f8:	00013d0f 	andeq	r3, r1, pc, lsl #26
     2fc:	00009700 	andeq	r9, r0, r0, lsl #14
     300:	01480f00 	cmpeq	r8, r0, lsl #30
     304:	00aa0000 	adceq	r0, sl, r0
     308:	530f0000 	movwpl	r0, #61440	; 0xf000
     30c:	bd000001 	stclt	0, cr0, [r0, #-4]
     310:	10000000 	andne	r0, r0, r0
     314:	0000015e 	andeq	r0, r0, lr, asr r1
     318:	00016711 	andeq	r6, r1, r1, lsl r7
     31c:	12530100 	subsne	r0, r3, #0, 2
     320:	000000f0 	strdeq	r0, [r0], -r0	; <UNPREDICTABLE>
     324:	80241314 	eorhi	r1, r4, r4, lsl r3
     328:	00040000 	andeq	r0, r4, r0
     32c:	033a0000 	teqeq	sl, #0
     330:	77110000 	ldrvc	r0, [r1, -r0]
     334:	01000001 	tsteq	r0, r1
     338:	2c130053 	ldccs	0, cr0, [r3], {83}	; 0x53
     33c:	04000080 	streq	r0, [r0], #-128	; 0x80
     340:	51000000 	mrspl	r0, (UNDEF: 0)
     344:	0f000003 	svceq	0x00000003
     348:	00000188 	andeq	r0, r0, r8, lsl #3
     34c:	000000d0 	ldrdeq	r0, [r0], -r0	; <UNPREDICTABLE>
     350:	80501300 	subshi	r1, r0, r0, lsl #6
     354:	00040000 	andeq	r0, r4, r0
     358:	03680000 	cmneq	r8, #0
     35c:	990f0000 	stmdbls	pc, {}	; <UNPREDICTABLE>
     360:	e3000001 	movw	r0, #1
     364:	00000000 	andeq	r0, r0, r0
     368:	00807413 	addeq	r7, r0, r3, lsl r4
     36c:	00000400 	andeq	r0, r0, r0, lsl #8
     370:	00037f00 	andeq	r7, r3, r0, lsl #30
     374:	01aa0f00 			; <UNDEFINED> instruction: 0x01aa0f00
     378:	00f60000 	rscseq	r0, r6, r0
     37c:	13000000 	movwne	r0, #0
     380:	00008098 	muleq	r0, r8, r0
     384:	00000004 	andeq	r0, r0, r4
     388:	00000396 	muleq	r0, r6, r3
     38c:	0001bb0f 	andeq	fp, r1, pc, lsl #22
     390:	00010900 	andeq	r0, r1, r0, lsl #18
     394:	bc130000 	ldclt	0, cr0, [r3], {-0}
     398:	04000080 	streq	r0, [r0], #-128	; 0x80
     39c:	ad000000 	stcge	0, cr0, [r0, #-0]
     3a0:	0f000003 	svceq	0x00000003
     3a4:	000001cc 	andeq	r0, r0, ip, asr #3
     3a8:	0000011c 	andeq	r0, r0, ip, lsl r1
     3ac:	80e01300 	rschi	r1, r0, r0, lsl #6
     3b0:	00040000 	andeq	r0, r4, r0
     3b4:	03c40000 	biceq	r0, r4, #0
     3b8:	dd0f0000 	stcle	0, cr0, [pc, #-0]	; 3c0 <_start-0x7c40>
     3bc:	2f000001 	svccs	0x00000001
     3c0:	00000001 	andeq	r0, r0, r1
     3c4:	00810413 	addeq	r0, r1, r3, lsl r4
     3c8:	00000400 	andeq	r0, r0, r0, lsl #8
     3cc:	0003db00 	andeq	sp, r3, r0, lsl #22
     3d0:	01ee0f00 	mvneq	r0, r0, lsl #30
     3d4:	01420000 	mrseq	r0, (UNDEF: 66)
     3d8:	13000000 	movwne	r0, #0
     3dc:	00008128 	andeq	r8, r0, r8, lsr #2
     3e0:	00000004 	andeq	r0, r0, r4
     3e4:	000003f2 	strdeq	r0, [r0], -r2
     3e8:	0001ff0f 	andeq	pc, r1, pc, lsl #30
     3ec:	00015500 	andeq	r5, r1, r0, lsl #10
     3f0:	4c140000 	ldcmi	0, cr0, [r4], {-0}
     3f4:	04000081 	streq	r0, [r0], #-129	; 0x81
     3f8:	0f000000 	svceq	0x00000000
     3fc:	0000020c 	andeq	r0, r0, ip, lsl #4
     400:	00000168 	andeq	r0, r0, r8, ror #2
     404:	4c150000 	ldcmi	0, cr0, [r5], {-0}
     408:	01000002 	tsteq	r0, r2
     40c:	00002c39 	andeq	r2, r0, r9, lsr ip
     410:	0081ac00 	addeq	sl, r1, r0, lsl #24
     414:	00005000 	andeq	r5, r0, r0
     418:	e69c0100 	ldr	r0, [ip], r0, lsl #2
     41c:	16000004 	strne	r0, [r0], -r4
     420:	39010073 	stmdbcc	r1, {r0, r1, r4, r5, r6}
     424:	0000002c 	andeq	r0, r0, ip, lsr #32
     428:	0000017b 	andeq	r0, r0, fp, ror r1
     42c:	00017117 	andeq	r7, r1, r7, lsl r1
     430:	0004f600 	andeq	pc, r4, r0, lsl #12
     434:	8c030500 	cfstr32hi	mvfx0, [r3], {-0}
     438:	0a00009d 	beq	6b4 <_start-0x794c>
     43c:	00000265 	andeq	r0, r0, r5, ror #4
     440:	002c3b01 	eoreq	r3, ip, r1, lsl #22
     444:	7a180000 	bvc	60044c <__bss_end__+0x5f5fac>
     448:	01000002 	tsteq	r0, r2
     44c:	00002c3d 	andeq	r2, r0, sp, lsr ip
     450:	0001b500 	andeq	fp, r1, r0, lsl #10
     454:	81b81300 			; <UNDEFINED> instruction: 0x81b81300
     458:	00040000 	andeq	r0, r4, r0
     45c:	046e0000 	strbteq	r0, [lr], #-0
     460:	1f0a0000 	svcne	0x000a0000
     464:	01000002 	tsteq	r0, r2
     468:	00002c3b 	andeq	r2, r0, fp, lsr ip
     46c:	c8130000 	ldmdagt	r3, {}	; <UNPREDICTABLE>
     470:	04000081 	streq	r0, [r0], #-129	; 0x81
     474:	8b000000 	blhi	47c <_start-0x7b84>
     478:	18000004 	stmdane	r0, {r2}
     47c:	0000021f 	andeq	r0, r0, pc, lsl r2
     480:	002c3d01 	eoreq	r3, ip, r1, lsl #26
     484:	01b50000 			; <UNDEFINED> instruction: 0x01b50000
     488:	19000000 	stmdbne	r0, {}	; <UNPREDICTABLE>
     48c:	000081c8 	andeq	r8, r0, r8, asr #3
     490:	00000fd6 	ldrdeq	r0, [r0], -r6
     494:	000004a4 	andeq	r0, r0, r4, lsr #9
     498:	0750011a 	smmlaeq	r0, sl, r1, r0
     49c:	0a5001f3 	beq	1400c70 <__bss_end__+0x13f67d0>
     4a0:	001e03e8 	andseq	r0, lr, r8, ror #7
     4a4:	0081d81b 	addeq	sp, r1, fp, lsl r8
     4a8:	000fe700 	andeq	lr, pc, r0, lsl #14
     4ac:	81ec1900 	mvnhi	r1, r0, lsl #18
     4b0:	0fee0000 	svceq	0x00ee0000
     4b4:	04dc0000 	ldrbeq	r0, [ip], #0
     4b8:	011a0000 	tsteq	sl, r0
     4bc:	3a080253 	bcc	200e10 <__bss_end__+0x1f6970>
     4c0:	0552011a 	ldrbeq	r0, [r2, #-282]	; 0x11a
     4c4:	009d8c03 	addseq	r8, sp, r3, lsl #24
     4c8:	51011a00 	tstpl	r1, r0, lsl #20
     4cc:	9dcc0305 	stclls	3, cr0, [ip, #20]
     4d0:	011a0000 	tsteq	sl, r0
     4d4:	9c030550 	cfstr32ls	mvfx0, [r3], {80}	; 0x50
     4d8:	0000009d 	muleq	r0, sp, r0
     4dc:	0081f01b 	addeq	pc, r1, fp, lsl r0	; <UNPREDICTABLE>
     4e0:	00100400 	andseq	r0, r0, r0, lsl #8
     4e4:	7d1c0000 	ldcvc	0, cr0, [ip, #-0]
     4e8:	f6000000 			; <UNDEFINED> instruction: 0xf6000000
     4ec:	1d000004 	stcne	0, cr0, [r0, #-16]
     4f0:	00000076 	andeq	r0, r0, r6, ror r0
     4f4:	e606000e 	str	r0, [r6], -lr
     4f8:	0e000004 	cdpeq	0, 0, cr0, cr0, cr4, {0}
     4fc:	000000e0 	andeq	r0, r0, r0, ror #1
     500:	000081fc 	strdeq	r8, [r0], -ip
     504:	0000019c 	muleq	r0, ip, r1
     508:	06569c01 	ldrbeq	r9, [r6], -r1, lsl #24
     50c:	f01e0000 			; <UNDEFINED> instruction: 0xf01e0000
     510:	c8000000 	stmdagt	r0, {}	; <UNPREDICTABLE>
     514:	0f000001 	svceq	0x00000001
     518:	000000fb 	strdeq	r0, [r0], -fp
     51c:	000001e9 	andeq	r0, r0, r9, ror #3
     520:	0001060f 	andeq	r0, r1, pc, lsl #12
     524:	00022d00 	andeq	r2, r2, r0, lsl #26
     528:	01110f00 	tsteq	r1, r0, lsl #30
     52c:	024c0000 	subeq	r0, ip, #0
     530:	1c0f0000 	stcne	0, cr0, [pc], {-0}
     534:	6b000001 	blvs	540 <_start-0x7ac0>
     538:	0f000002 	svceq	0x00000002
     53c:	00000127 	andeq	r0, r0, r7, lsr #2
     540:	0000028a 	andeq	r0, r0, sl, lsl #5
     544:	0001320f 	andeq	r3, r1, pc, lsl #4
     548:	0002a900 	andeq	sl, r2, r0, lsl #18
     54c:	013d0f00 	teqeq	sp, r0, lsl #30
     550:	02c80000 	sbceq	r0, r8, #0
     554:	480f0000 	stmdami	pc, {}	; <UNPREDICTABLE>
     558:	e7000001 	str	r0, [r0, -r1]
     55c:	0f000002 	svceq	0x00000002
     560:	00000153 	andeq	r0, r0, r3, asr r1
     564:	00000306 	andeq	r0, r0, r6, lsl #6
     568:	00015e1f 	andeq	r5, r1, pc, lsl lr
     56c:	67110100 	ldrvs	r0, [r1, -r0, lsl #2]
     570:	01000001 	tsteq	r0, r1
     574:	82101353 	andshi	r1, r0, #1275068417	; 0x4c000001
     578:	00040000 	andeq	r0, r4, r0
     57c:	058a0000 	streq	r0, [sl]
     580:	77110000 	ldrvc	r0, [r1, -r0]
     584:	01000001 	tsteq	r0, r1
     588:	18130053 	ldmdane	r3, {r0, r1, r4, r6}
     58c:	04000082 	streq	r0, [r0], #-130	; 0x82
     590:	a1000000 	mrsge	r0, (UNDEF: 0)
     594:	0f000005 	svceq	0x00000005
     598:	00000188 	andeq	r0, r0, r8, lsl #3
     59c:	00000325 	andeq	r0, r0, r5, lsr #6
     5a0:	823c1300 	eorshi	r1, ip, #0, 6
     5a4:	00040000 	andeq	r0, r4, r0
     5a8:	05b80000 	ldreq	r0, [r8, #0]!
     5ac:	990f0000 	stmdbls	pc, {}	; <UNPREDICTABLE>
     5b0:	38000001 	stmdacc	r0, {r0}
     5b4:	00000003 	andeq	r0, r0, r3
     5b8:	00826013 	addeq	r6, r2, r3, lsl r0
     5bc:	00000400 	andeq	r0, r0, r0, lsl #8
     5c0:	0005cf00 	andeq	ip, r5, r0, lsl #30
     5c4:	01aa0f00 			; <UNDEFINED> instruction: 0x01aa0f00
     5c8:	034b0000 	movteq	r0, #45056	; 0xb000
     5cc:	13000000 	movwne	r0, #0
     5d0:	00008284 	andeq	r8, r0, r4, lsl #5
     5d4:	00000004 	andeq	r0, r0, r4
     5d8:	000005e6 	andeq	r0, r0, r6, ror #11
     5dc:	0001bb0f 	andeq	fp, r1, pc, lsl #22
     5e0:	00035e00 	andeq	r5, r3, r0, lsl #28
     5e4:	a8130000 	ldmdage	r3, {}	; <UNPREDICTABLE>
     5e8:	04000082 	streq	r0, [r0], #-130	; 0x82
     5ec:	fd000000 	stc2	0, cr0, [r0, #-0]
     5f0:	0f000005 	svceq	0x00000005
     5f4:	000001cc 	andeq	r0, r0, ip, asr #3
     5f8:	00000371 	andeq	r0, r0, r1, ror r3
     5fc:	82cc1300 	sbchi	r1, ip, #0, 6
     600:	00040000 	andeq	r0, r4, r0
     604:	06140000 	ldreq	r0, [r4], -r0
     608:	dd0f0000 	stcle	0, cr0, [pc, #-0]	; 610 <_start-0x79f0>
     60c:	84000001 	strhi	r0, [r0], #-1
     610:	00000003 	andeq	r0, r0, r3
     614:	0082f013 	addeq	pc, r2, r3, lsl r0	; <UNPREDICTABLE>
     618:	00000400 	andeq	r0, r0, r0, lsl #8
     61c:	00062b00 	andeq	r2, r6, r0, lsl #22
     620:	01ee0f00 	mvneq	r0, r0, lsl #30
     624:	03970000 	orrseq	r0, r7, #0
     628:	13000000 	movwne	r0, #0
     62c:	00008314 	andeq	r8, r0, r4, lsl r3
     630:	00000004 	andeq	r0, r0, r4
     634:	00000642 	andeq	r0, r0, r2, asr #12
     638:	0001ff0f 	andeq	pc, r1, pc, lsl #30
     63c:	0003aa00 	andeq	sl, r3, r0, lsl #20
     640:	38140000 	ldmdacc	r4, {}	; <UNPREDICTABLE>
     644:	04000083 	streq	r0, [r0], #-131	; 0x83
     648:	0f000000 	svceq	0x00000000
     64c:	0000020c 	andeq	r0, r0, ip, lsl #4
     650:	000003bd 			; <UNDEFINED> instruction: 0x000003bd
     654:	a8200000 	stmdage	r0!, {}	; <UNPREDICTABLE>
     658:	01000000 	mrseq	r0, (UNDEF: 0)
     65c:	00839877 	addeq	r9, r3, r7, ror r8
     660:	00020c00 	andeq	r0, r2, r0, lsl #24
     664:	659c0100 	ldrvs	r0, [ip, #256]	; 0x100
     668:	1600000c 	strne	r0, [r0], -ip
     66c:	006e6970 	rsbeq	r6, lr, r0, ror r9
     670:	002c7701 	eoreq	r7, ip, r1, lsl #14
     674:	03d00000 	bicseq	r0, r0, #0
     678:	5e210000 	cdppl	0, 2, cr0, cr1, cr0, {0}
     67c:	01000009 	tsteq	r0, r9
     680:	00004f77 	andeq	r4, r0, r7, ror pc
     684:	0003f100 	andeq	pc, r3, r0, lsl #2
     688:	00852100 	addeq	r2, r5, r0, lsl #2
     68c:	77010000 	strvc	r0, [r1, -r0]
     690:	0000002c 	andeq	r0, r0, ip, lsr #32
     694:	00000412 	andeq	r0, r0, r2, lsl r4
     698:	01006922 	tsteq	r0, r2, lsr #18
     69c:	00002c78 	andeq	r2, r0, r8, ror ip
     6a0:	11180100 	tstne	r8, r0, lsl #2
     6a4:	01000005 	tsteq	r0, r5
     6a8:	00002c79 	andeq	r2, r0, r9, ror ip
     6ac:	00043300 	andeq	r3, r4, r0, lsl #6
     6b0:	6e650b00 	vmulvs.f64	d16, d5, d0
     6b4:	a1010064 	tstge	r1, r4, rrx
     6b8:	0000002c 	andeq	r0, r0, ip, lsr #32
     6bc:	00839c13 	addeq	r9, r3, r3, lsl ip
     6c0:	00000400 	andeq	r0, r0, r0, lsl #8
     6c4:	0006d900 	andeq	sp, r6, r0, lsl #18
     6c8:	021f1800 	andseq	r1, pc, #0, 16
     6cc:	79010000 	stmdbvc	r1, {}	; <UNPREDICTABLE>
     6d0:	0000002c 	andeq	r0, r0, ip, lsr #32
     6d4:	00000433 	andeq	r0, r0, r3, lsr r4
     6d8:	00bf2300 	adcseq	r2, pc, r0, lsl #6
     6dc:	83a00000 	movhi	r0, #0
     6e0:	00180000 	andseq	r0, r8, r0
     6e4:	8d010000 	stchi	0, cr0, [r1, #-0]
     6e8:	00000715 	andeq	r0, r0, r5, lsl r7
     6ec:	0000d612 	andeq	sp, r0, r2, lsl r6
     6f0:	cb1e0000 	blgt	7806f8 <__bss_end__+0x776258>
     6f4:	46000000 	strmi	r0, [r0], -r0
     6f8:	24000004 	strcs	r0, [r0], #-4
     6fc:	000000a7 	andeq	r0, r0, r7, lsr #1
     700:	000083a0 	andeq	r8, r0, r0, lsr #7
     704:	00000018 	andeq	r0, r0, r8, lsl r0
     708:	b31e2b01 	tstlt	lr, #1024	; 0x400
     70c:	46000000 	strmi	r0, [r0], -r0
     710:	00000004 	andeq	r0, r0, r4
     714:	83b81300 			; <UNDEFINED> instruction: 0x83b81300
     718:	00040000 	andeq	r0, r4, r0
     71c:	07320000 	ldreq	r0, [r2, -r0]!
     720:	1f180000 	svcne	0x00180000
     724:	01000002 	tsteq	r0, r2
     728:	00002c8e 	andeq	r2, r0, lr, lsl #25
     72c:	00046700 	andeq	r6, r4, r0, lsl #14
     730:	bf230000 	svclt	0x00230000
     734:	c8000000 	stmdagt	r0, {}	; <UNPREDICTABLE>
     738:	24000083 	strcs	r0, [r0], #-131	; 0x83
     73c:	01000000 	mrseq	r0, (UNDEF: 0)
     740:	0007aa8f 	andeq	sl, r7, pc, lsl #21
     744:	00d61e00 	sbcseq	r1, r6, r0, lsl #28
     748:	047a0000 	ldrbteq	r0, [sl], #-0
     74c:	cb250000 	blgt	940754 <__bss_end__+0x9362b4>
     750:	04000000 	streq	r0, [r0], #-0
     754:	9f5001f3 	svcls	0x005001f3
     758:	00000026 	andeq	r0, r0, r6, lsr #32
     75c:	00078f00 	andeq	r8, r7, r0, lsl #30
     760:	00d61e00 	sbcseq	r1, r6, r0, lsl #28
     764:	04940000 	ldreq	r0, [r4], #0
     768:	cb250000 	blgt	940770 <__bss_end__+0x9362d0>
     76c:	04000000 	streq	r0, [r0], #-0
     770:	9f5001f3 	svcls	0x005001f3
     774:	00008f27 	andeq	r8, r0, r7, lsr #30
     778:	0083c800 	addeq	ip, r3, r0, lsl #16
     77c:	00000000 	andeq	r0, r0, r0
     780:	25290100 	strcs	r0, [r9, #-256]!	; 0x100
     784:	0000009b 	muleq	r0, fp, r0
     788:	5001f304 	andpl	pc, r1, r4, lsl #6
     78c:	2700009f 			; <UNDEFINED> instruction: 0x2700009f
     790:	000000a7 	andeq	r0, r0, r7, lsr #1
     794:	000083d4 	ldrdeq	r8, [r0], -r4
     798:	00000028 	andeq	r0, r0, r8, lsr #32
     79c:	b3252b01 	teqlt	r5, #1024	; 0x400
     7a0:	04000000 	streq	r0, [r0], #-0
     7a4:	9f5001f3 	svcls	0x005001f3
     7a8:	ec130000 	ldc	0, cr0, [r3], {-0}
     7ac:	04000083 	streq	r0, [r0], #-131	; 0x83
     7b0:	c7000000 	strgt	r0, [r0, -r0]
     7b4:	18000007 	stmdane	r0, {r0, r1, r2}
     7b8:	0000021f 	andeq	r0, r0, pc, lsl r2
     7bc:	002c9001 	eoreq	r9, ip, r1
     7c0:	05280000 	streq	r0, [r8, #-0]!
     7c4:	23000000 	movwcs	r0, #0
     7c8:	000000bf 	strheq	r0, [r0], -pc	; <UNPREDICTABLE>
     7cc:	000083fc 	strdeq	r8, [r0], -ip
     7d0:	00000024 	andeq	r0, r0, r4, lsr #32
     7d4:	083f9101 	ldmdaeq	pc!, {r0, r8, ip, pc}	; <UNPREDICTABLE>
     7d8:	d61e0000 	ldrle	r0, [lr], -r0
     7dc:	3b000000 	blcc	7e4 <_start-0x781c>
     7e0:	25000005 	strcs	r0, [r0, #-5]
     7e4:	000000cb 	andeq	r0, r0, fp, asr #1
     7e8:	5001f304 	andpl	pc, r1, r4, lsl #6
     7ec:	0048269f 	umaaleq	r2, r8, pc, r6	; <UNPREDICTABLE>
     7f0:	08240000 	stmdaeq	r4!, {}	; <UNPREDICTABLE>
     7f4:	d61e0000 	ldrle	r0, [lr], -r0
     7f8:	55000000 	strpl	r0, [r0, #-0]
     7fc:	25000005 	strcs	r0, [r0, #-5]
     800:	000000cb 	andeq	r0, r0, fp, asr #1
     804:	5001f304 	andpl	pc, r1, r4, lsl #6
     808:	008f279f 	umulleq	r2, pc, pc, r7	; <UNPREDICTABLE>
     80c:	83fc0000 	mvnshi	r0, #0
     810:	00480000 	subeq	r0, r8, r0
     814:	29010000 	stmdbcs	r1, {}	; <UNPREDICTABLE>
     818:	00009b25 	andeq	r9, r0, r5, lsr #22
     81c:	01f30400 	mvnseq	r0, r0, lsl #8
     820:	00009f50 	andeq	r9, r0, r0, asr pc
     824:	0000a727 	andeq	sl, r0, r7, lsr #14
     828:	00840800 	addeq	r0, r4, r0, lsl #16
     82c:	00007000 	andeq	r7, r0, r0
     830:	252b0100 	strcs	r0, [fp, #-256]!	; 0x100
     834:	000000b3 	strheq	r0, [r0], -r3
     838:	5001f304 	andpl	pc, r1, r4, lsl #6
     83c:	1300009f 	movwne	r0, #159	; 0x9f
     840:	00008420 	andeq	r8, r0, r0, lsr #8
     844:	00000004 	andeq	r0, r0, r4
     848:	0000085c 	andeq	r0, r0, ip, asr r8
     84c:	00021f18 	andeq	r1, r2, r8, lsl pc
     850:	2c920100 	ldfcss	f0, [r2], {0}
     854:	d7000000 	strle	r0, [r0, -r0]
     858:	00000005 	andeq	r0, r0, r5
     85c:	0000bf23 	andeq	fp, r0, r3, lsr #30
     860:	00843000 	addeq	r3, r4, r0
     864:	00002400 	andeq	r2, r0, r0, lsl #8
     868:	d4930100 	ldrle	r0, [r3], #256	; 0x100
     86c:	1e000008 	cdpne	0, 0, cr0, cr0, cr8, {0}
     870:	000000d6 	ldrdeq	r0, [r0], -r6
     874:	000005ea 	andeq	r0, r0, sl, ror #11
     878:	0000cb25 	andeq	ip, r0, r5, lsr #22
     87c:	01f30400 	mvnseq	r0, r0, lsl #8
     880:	90269f50 	eorls	r9, r6, r0, asr pc
     884:	b9000000 	stmdblt	r0, {}	; <UNPREDICTABLE>
     888:	1e000008 	cdpne	0, 0, cr0, cr0, cr8, {0}
     88c:	000000d6 	ldrdeq	r0, [r0], -r6
     890:	00000604 	andeq	r0, r0, r4, lsl #12
     894:	0000cb25 	andeq	ip, r0, r5, lsr #22
     898:	01f30400 	mvnseq	r0, r0, lsl #8
     89c:	8f279f50 	svchi	0x00279f50
     8a0:	30000000 	andcc	r0, r0, r0
     8a4:	90000084 	andls	r0, r0, r4, lsl #1
     8a8:	01000000 	mrseq	r0, (UNDEF: 0)
     8ac:	009b2529 	addseq	r2, fp, r9, lsr #10
     8b0:	f3040000 	vhadd.u8	d0, d4, d0
     8b4:	009f5001 	addseq	r5, pc, r1
     8b8:	00a72700 	adceq	r2, r7, r0, lsl #14
     8bc:	843c0000 	ldrthi	r0, [ip], #-0
     8c0:	00b80000 	adcseq	r0, r8, r0
     8c4:	2b010000 	blcs	408cc <__bss_end__+0x3642c>
     8c8:	0000b325 	andeq	fp, r0, r5, lsr #6
     8cc:	01f30400 	mvnseq	r0, r0, lsl #8
     8d0:	00009f50 	andeq	r9, r0, r0, asr pc
     8d4:	00845413 	addeq	r5, r4, r3, lsl r4
     8d8:	00000400 	andeq	r0, r0, r0, lsl #8
     8dc:	0008f100 	andeq	pc, r8, r0, lsl #2
     8e0:	021f1800 	andseq	r1, pc, #0, 16
     8e4:	94010000 	strls	r0, [r1], #-0
     8e8:	0000002c 	andeq	r0, r0, ip, lsr #32
     8ec:	00000674 	andeq	r0, r0, r4, ror r6
     8f0:	00bf2300 	adcseq	r2, pc, r0, lsl #6
     8f4:	84640000 	strbthi	r0, [r4], #-0
     8f8:	00240000 	eoreq	r0, r4, r0
     8fc:	95010000 	strls	r0, [r1, #-0]
     900:	00000969 	andeq	r0, r0, r9, ror #18
     904:	0000d61e 	andeq	sp, r0, lr, lsl r6
     908:	00068700 	andeq	r8, r6, r0, lsl #14
     90c:	00cb2500 	sbceq	r2, fp, r0, lsl #10
     910:	f3040000 	vhadd.u8	d0, d4, d0
     914:	269f5001 	ldrcs	r5, [pc], r1
     918:	000000d8 	ldrdeq	r0, [r0], -r8
     91c:	0000094e 	andeq	r0, r0, lr, asr #18
     920:	0000d61e 	andeq	sp, r0, lr, lsl r6
     924:	0006a100 	andeq	sl, r6, r0, lsl #2
     928:	00cb2500 	sbceq	r2, fp, r0, lsl #10
     92c:	f3040000 	vhadd.u8	d0, d4, d0
     930:	279f5001 	ldrcs	r5, [pc, r1]
     934:	0000008f 	andeq	r0, r0, pc, lsl #1
     938:	00008464 	andeq	r8, r0, r4, ror #8
     93c:	000000d8 	ldrdeq	r0, [r0], -r8
     940:	9b252901 	blls	94ad4c <__bss_end__+0x9408ac>
     944:	04000000 	streq	r0, [r0], #-0
     948:	9f5001f3 	svcls	0x005001f3
     94c:	a7270000 	strge	r0, [r7, -r0]!
     950:	70000000 	andvc	r0, r0, r0
     954:	00000084 	andeq	r0, r0, r4, lsl #1
     958:	01000001 	tsteq	r0, r1
     95c:	00b3252b 	adcseq	r2, r3, fp, lsr #10
     960:	f3040000 	vhadd.u8	d0, d4, d0
     964:	009f5001 	addseq	r5, pc, r1
     968:	84881300 	strhi	r1, [r8], #768	; 0x300
     96c:	00040000 	andeq	r0, r4, r0
     970:	09860000 	stmibeq	r6, {}	; <UNPREDICTABLE>
     974:	1f180000 	svcne	0x00180000
     978:	01000002 	tsteq	r0, r2
     97c:	00002c96 	muleq	r0, r6, ip
     980:	0006ff00 	andeq	pc, r6, r0, lsl #30
     984:	bf230000 	svclt	0x00230000
     988:	98000000 	stmdals	r0, {}	; <UNPREDICTABLE>
     98c:	28000084 	stmdacs	r0, {r2, r7}
     990:	01000000 	mrseq	r0, (UNDEF: 0)
     994:	0009fe97 	muleq	r9, r7, lr
     998:	00d61e00 	sbcseq	r1, r6, r0, lsl #28
     99c:	07120000 	ldreq	r0, [r2, -r0]
     9a0:	cb250000 	blgt	9409a8 <__bss_end__+0x936508>
     9a4:	04000000 	streq	r0, [r0], #-0
     9a8:	9f5001f3 	svcls	0x005001f3
     9ac:	00012026 	andeq	r2, r1, r6, lsr #32
     9b0:	0009e300 	andeq	lr, r9, r0, lsl #6
     9b4:	00d61e00 	sbcseq	r1, r6, r0, lsl #28
     9b8:	072c0000 	streq	r0, [ip, -r0]!
     9bc:	cb250000 	blgt	9409c4 <__bss_end__+0x936524>
     9c0:	04000000 	streq	r0, [r0], #-0
     9c4:	9f5001f3 	svcls	0x005001f3
     9c8:	00008f27 	andeq	r8, r0, r7, lsr #30
     9cc:	00849800 	addeq	r9, r4, r0, lsl #16
     9d0:	00012000 	andeq	r2, r1, r0
     9d4:	25290100 	strcs	r0, [r9, #-256]!	; 0x100
     9d8:	0000009b 	muleq	r0, fp, r0
     9dc:	5001f304 	andpl	pc, r1, r4, lsl #6
     9e0:	2700009f 			; <UNDEFINED> instruction: 0x2700009f
     9e4:	000000a7 	andeq	r0, r0, r7, lsr #1
     9e8:	000084a4 	andeq	r8, r0, r4, lsr #9
     9ec:	00000148 	andeq	r0, r0, r8, asr #2
     9f0:	b3252b01 	teqlt	r5, #1024	; 0x400
     9f4:	04000000 	streq	r0, [r0], #-0
     9f8:	9f5001f3 	svcls	0x005001f3
     9fc:	c0130000 	andsgt	r0, r3, r0
     a00:	04000084 	streq	r0, [r0], #-132	; 0x84
     a04:	1b000000 	blne	a0c <_start-0x75f4>
     a08:	1800000a 	stmdane	r0, {r1, r3}
     a0c:	0000021f 	andeq	r0, r0, pc, lsl r2
     a10:	002c9801 	eoreq	r9, ip, r1, lsl #16
     a14:	07780000 	ldrbeq	r0, [r8, -r0]!
     a18:	23000000 	movwcs	r0, #0
     a1c:	000000bf 	strheq	r0, [r0], -pc	; <UNPREDICTABLE>
     a20:	000084d0 	ldrdeq	r8, [r0], -r0
     a24:	00000028 	andeq	r0, r0, r8, lsr #32
     a28:	0a939901 	beq	fe4e6e34 <__bss_end__+0xfe4dc994>
     a2c:	d61e0000 	ldrle	r0, [lr], -r0
     a30:	8b000000 	blhi	a38 <_start-0x75c8>
     a34:	25000007 	strcs	r0, [r0, #-7]
     a38:	000000cb 	andeq	r0, r0, fp, asr #1
     a3c:	5001f304 	andpl	pc, r1, r4, lsl #6
     a40:	0168269f 			; <UNDEFINED> instruction: 0x0168269f
     a44:	0a780000 	beq	1e00a4c <__bss_end__+0x1df65ac>
     a48:	d61e0000 	ldrle	r0, [lr], -r0
     a4c:	a6000000 	strge	r0, [r0], -r0
     a50:	25000007 	strcs	r0, [r0, #-7]
     a54:	000000cb 	andeq	r0, r0, fp, asr #1
     a58:	5001f304 	andpl	pc, r1, r4, lsl #6
     a5c:	008f279f 	umulleq	r2, pc, pc, r7	; <UNPREDICTABLE>
     a60:	84d00000 	ldrbhi	r0, [r0], #0
     a64:	01680000 	cmneq	r8, r0
     a68:	29010000 	stmdbcs	r1, {}	; <UNPREDICTABLE>
     a6c:	00009b25 	andeq	r9, r0, r5, lsr #22
     a70:	01f30400 	mvnseq	r0, r0, lsl #8
     a74:	00009f50 	andeq	r9, r0, r0, asr pc
     a78:	0000a727 	andeq	sl, r0, r7, lsr #14
     a7c:	0084dc00 	addeq	sp, r4, r0, lsl #24
     a80:	00019000 	andeq	r9, r1, r0
     a84:	252b0100 	strcs	r0, [fp, #-256]!	; 0x100
     a88:	000000b3 	strheq	r0, [r0], -r3
     a8c:	5001f304 	andpl	pc, r1, r4, lsl #6
     a90:	1300009f 	movwne	r0, #159	; 0x9f
     a94:	000084f8 	strdeq	r8, [r0], -r8	; <UNPREDICTABLE>
     a98:	00000004 	andeq	r0, r0, r4
     a9c:	00000ab0 			; <UNDEFINED> instruction: 0x00000ab0
     aa0:	00021f18 	andeq	r1, r2, r8, lsl pc
     aa4:	2c9a0100 	ldfcss	f0, [sl], {0}
     aa8:	e0000000 	and	r0, r0, r0
     aac:	00000007 	andeq	r0, r0, r7
     ab0:	0000bf23 	andeq	fp, r0, r3, lsr #30
     ab4:	00850800 	addeq	r0, r5, r0, lsl #16
     ab8:	00002000 	andeq	r2, r0, r0
     abc:	289b0100 	ldmcs	fp, {r8}
     ac0:	1e00000b 	cdpne	0, 0, cr0, cr0, cr11, {0}
     ac4:	000000d6 	ldrdeq	r0, [r0], -r6
     ac8:	000007f3 	strdeq	r0, [r0], -r3
     acc:	0000cb25 	andeq	ip, r0, r5, lsr #22
     ad0:	01f30400 	mvnseq	r0, r0, lsl #8
     ad4:	b0269f50 	eorlt	r9, r6, r0, asr pc
     ad8:	0d000001 	stceq	0, cr0, [r0, #-4]
     adc:	1e00000b 	cdpne	0, 0, cr0, cr0, cr11, {0}
     ae0:	000000d6 	ldrdeq	r0, [r0], -r6
     ae4:	0000080e 	andeq	r0, r0, lr, lsl #16
     ae8:	0000cb25 	andeq	ip, r0, r5, lsr #22
     aec:	01f30400 	mvnseq	r0, r0, lsl #8
     af0:	8f279f50 	svchi	0x00279f50
     af4:	08000000 	stmdaeq	r0, {}	; <UNPREDICTABLE>
     af8:	b0000085 	andlt	r0, r0, r5, lsl #1
     afc:	01000001 	tsteq	r0, r1
     b00:	009b2529 	addseq	r2, fp, r9, lsr #10
     b04:	f3040000 	vhadd.u8	d0, d4, d0
     b08:	009f5001 	addseq	r5, pc, r1
     b0c:	00a72700 	adceq	r2, r7, r0, lsl #14
     b10:	85140000 	ldrhi	r0, [r4, #-0]
     b14:	01d80000 	bicseq	r0, r8, r0
     b18:	2b010000 	blcs	40b20 <__bss_end__+0x36680>
     b1c:	0000b325 	andeq	fp, r0, r5, lsr #6
     b20:	01f30400 	mvnseq	r0, r0, lsl #8
     b24:	00009f50 	andeq	r9, r0, r0, asr pc
     b28:	00852813 	addeq	r2, r5, r3, lsl r8
     b2c:	00000400 	andeq	r0, r0, r0, lsl #8
     b30:	000b4500 	andeq	r4, fp, r0, lsl #10
     b34:	021f1800 	andseq	r1, pc, #0, 16
     b38:	9c010000 	stcls	0, cr0, [r1], {-0}
     b3c:	0000002c 	andeq	r0, r0, ip, lsr #32
     b40:	00000835 	andeq	r0, r0, r5, lsr r8
     b44:	00bf2300 	adcseq	r2, pc, r0, lsl #6
     b48:	85380000 	ldrhi	r0, [r8, #-0]!
     b4c:	00240000 	eoreq	r0, r4, r0
     b50:	9d010000 	stcls	0, cr0, [r1, #-0]
     b54:	00000bbd 			; <UNDEFINED> instruction: 0x00000bbd
     b58:	0000d61e 	andeq	sp, r0, lr, lsl r6
     b5c:	00084800 	andeq	r4, r8, r0, lsl #16
     b60:	00cb2500 	sbceq	r2, fp, r0, lsl #10
     b64:	f3040000 	vhadd.u8	d0, d4, d0
     b68:	269f5001 	ldrcs	r5, [pc], r1
     b6c:	000001f8 	strdeq	r0, [r0], -r8
     b70:	00000ba2 	andeq	r0, r0, r2, lsr #23
     b74:	0000d61e 	andeq	sp, r0, lr, lsl r6
     b78:	00086300 	andeq	r6, r8, r0, lsl #6
     b7c:	00cb2500 	sbceq	r2, fp, r0, lsl #10
     b80:	f3040000 	vhadd.u8	d0, d4, d0
     b84:	279f5001 	ldrcs	r5, [pc, r1]
     b88:	0000008f 	andeq	r0, r0, pc, lsl #1
     b8c:	0000853c 	andeq	r8, r0, ip, lsr r5
     b90:	000001f8 	strdeq	r0, [r0], -r8
     b94:	9b252901 	blls	94afa0 <__bss_end__+0x940b00>
     b98:	04000000 	streq	r0, [r0], #-0
     b9c:	9f5001f3 	svcls	0x005001f3
     ba0:	a7270000 	strge	r0, [r7, -r0]!
     ba4:	48000000 	stmdami	r0, {}	; <UNPREDICTABLE>
     ba8:	18000085 	stmdane	r0, {r0, r2, r7}
     bac:	01000002 	tsteq	r0, r2
     bb0:	00b3252b 	adcseq	r2, r3, fp, lsr #10
     bb4:	f3040000 	vhadd.u8	d0, d4, d0
     bb8:	009f5001 	addseq	r5, pc, r1
     bbc:	855c1300 	ldrbhi	r1, [ip, #-768]	; 0x300
     bc0:	00040000 	andeq	r0, r4, r0
     bc4:	0bda0000 	bleq	ff680bcc <__bss_end__+0xff67672c>
     bc8:	1f180000 	svcne	0x00180000
     bcc:	01000002 	tsteq	r0, r2
     bd0:	00002c9e 	muleq	r0, lr, ip
     bd4:	00087700 	andeq	r7, r8, r0, lsl #14
     bd8:	bf230000 	svclt	0x00230000
     bdc:	6c000000 	stcvs	0, cr0, [r0], {-0}
     be0:	18000085 	stmdane	r0, {r0, r2, r7}
     be4:	01000000 	mrseq	r0, (UNDEF: 0)
     be8:	000c329f 	muleq	ip, pc, r2	; <UNPREDICTABLE>
     bec:	00d61200 	sbcseq	r1, r6, r0, lsl #4
     bf0:	25010000 	strcs	r0, [r1, #-0]
     bf4:	000000cb 	andeq	r0, r0, fp, asr #1
     bf8:	5001f304 	andpl	pc, r1, r4, lsl #6
     bfc:	856c149f 	strbhi	r1, [ip, #-1183]!	; 0x49f
     c00:	00180000 	andseq	r0, r8, r0
     c04:	d6120000 	ldrle	r0, [r2], -r0
     c08:	01000000 	mrseq	r0, (UNDEF: 0)
     c0c:	0000cb25 	andeq	ip, r0, r5, lsr #22
     c10:	01f30400 	mvnseq	r0, r0, lsl #8
     c14:	8f249f50 	svchi	0x00249f50
     c18:	6c000000 	stcvs	0, cr0, [r0], {-0}
     c1c:	18000085 	stmdane	r0, {r0, r2, r7}
     c20:	01000000 	mrseq	r0, (UNDEF: 0)
     c24:	009b2529 	addseq	r2, fp, r9, lsr #10
     c28:	f3040000 	vhadd.u8	d0, d4, d0
     c2c:	009f5001 	addseq	r5, pc, r1
     c30:	84130000 	ldrhi	r0, [r3], #-0
     c34:	04000085 	streq	r0, [r0], #-133	; 0x85
     c38:	4f000000 	svcmi	0x00000000
     c3c:	1800000c 	stmdane	r0, {r2, r3}
     c40:	0000021f 	andeq	r0, r0, pc, lsl r2
     c44:	002ca001 	eoreq	sl, ip, r1
     c48:	088a0000 	stmeq	sl, {}	; <UNPREDICTABLE>
     c4c:	14000000 	strne	r0, [r0], #-0
     c50:	00008594 	muleq	r0, r4, r5
     c54:	00000004 	andeq	r0, r0, r4
     c58:	00021f0a 	andeq	r1, r2, sl, lsl #30
     c5c:	2ca10100 	stfcss	f0, [r1]
     c60:	00000000 	andeq	r0, r0, r0
     c64:	00b12000 	adcseq	r2, r1, r0
     c68:	cf010000 	svcgt	0x00010000
     c6c:	000085a4 	andeq	r8, r0, r4, lsr #11
     c70:	0000013c 	andeq	r0, r0, ip, lsr r1
     c74:	0edb9c01 	cdpeq	12, 13, cr9, cr11, cr1, {0}
     c78:	72220000 	eorvc	r0, r2, #0
     c7c:	d0010078 	andle	r0, r1, r8, ror r0
     c80:	00000025 	andeq	r0, r0, r5, lsr #32
     c84:	78742214 	ldmdavc	r4!, {r2, r4, r9, sp}^
     c88:	25d10100 	ldrbcs	r0, [r1, #256]	; 0x100
     c8c:	15000000 	strne	r0, [r0, #-0]
     c90:	0085bc13 	addeq	fp, r5, r3, lsl ip
     c94:	00000800 	andeq	r0, r0, r0, lsl #16
     c98:	000ca900 	andeq	sl, ip, r0, lsl #18
     c9c:	6e692200 	cdpvs	2, 6, cr2, cr9, cr0, {0}
     ca0:	2cd50100 	ldfcse	f0, [r5], {0}
     ca4:	01000000 	mrseq	r0, (UNDEF: 0)
     ca8:	02192300 	andseq	r2, r9, #0, 6
     cac:	85d40000 	ldrbhi	r0, [r4]
     cb0:	00680000 	rsbeq	r0, r8, r0
     cb4:	d8010000 	stmdale	r1, {}	; <UNPREDICTABLE>
     cb8:	00000d80 	andeq	r0, r0, r0, lsl #27
     cbc:	0002251e 	andeq	r2, r2, lr, lsl r5
     cc0:	00089d00 	andeq	r9, r8, r0, lsl #26
     cc4:	022f1e00 	eoreq	r1, pc, #0, 28
     cc8:	08b10000 	ldmeq	r1!, {}	; <UNPREDICTABLE>
     ccc:	391e0000 	ldmdbcc	lr, {}	; <UNPREDICTABLE>
     cd0:	c5000002 	strgt	r0, [r0, #-2]
     cd4:	14000008 	strne	r0, [r0], #-8
     cd8:	000085d4 	ldrdeq	r8, [r0], -r4
     cdc:	00000068 	andeq	r0, r0, r8, rrx
     ce0:	0002420f 	andeq	r4, r2, pc, lsl #4
     ce4:	0008da00 	andeq	sp, r8, r0, lsl #20
     ce8:	024d0f00 	subeq	r0, sp, #0, 30
     cec:	09050000 	stmdbeq	r5, {}	; <UNPREDICTABLE>
     cf0:	fc130000 	ldc2	0, cr0, [r3], {-0}
     cf4:	34000085 	strcc	r0, [r0], #-133	; 0x85
     cf8:	2e000000 	cdpcs	0, 0, cr0, cr0, cr0, {0}
     cfc:	0f00000d 	svceq	0x0000000d
     d00:	00000259 	andeq	r0, r0, r9, asr r2
     d04:	00000924 	andeq	r0, r0, r4, lsr #18
     d08:	0086081b 	addeq	r0, r6, fp, lsl r8
     d0c:	0002af00 	andeq	sl, r2, r0, lsl #30
     d10:	86242800 	strthi	r2, [r4], -r0, lsl #16
     d14:	06560000 	ldrbeq	r0, [r6], -r0
     d18:	011a0000 	tsteq	sl, r0
     d1c:	bc0a0352 	stclt	3, cr0, [sl], {82}	; 0x52
     d20:	51011a17 	tstpl	r1, r7, lsl sl
     d24:	1a007602 	bne	1e534 <__bss_end__+0x14094>
     d28:	45015001 	strmi	r5, [r1, #-1]
     d2c:	dc190000 	ldcle	0, cr0, [r9], {-0}
     d30:	ee000085 	cdp	0, 0, cr0, cr0, cr5, {4}
     d34:	4500000f 	strmi	r0, [r0, #-15]
     d38:	1a00000d 	bne	d74 <_start-0x728c>
     d3c:	03055001 	movweq	r5, #20481	; 0x5001
     d40:	00009dd4 	ldrdeq	r9, [r0], -r4
     d44:	85f01900 	ldrbhi	r1, [r0, #2304]!	; 0x900
     d48:	06560000 	ldrbeq	r0, [r6], -r0
     d4c:	0d650000 	stcleq	0, cr0, [r5, #-0]
     d50:	011a0000 	tsteq	sl, r0
     d54:	bc0a0352 	stclt	3, cr0, [sl], {82}	; 0x52
     d58:	51011a17 	tstpl	r1, r7, lsl sl
     d5c:	1a007402 	bne	1dd6c <__bss_end__+0x138cc>
     d60:	45015001 	strmi	r5, [r1, #-1]
     d64:	863c2800 	ldrthi	r2, [ip], -r0, lsl #16
     d68:	0fee0000 	svceq	0x00ee0000
     d6c:	011a0000 	tsteq	sl, r0
     d70:	00760251 	rsbseq	r0, r6, r1, asr r2
     d74:	0550011a 	ldrbeq	r0, [r0, #-282]	; 0x11a
     d78:	009dec03 	addseq	lr, sp, r3, lsl #24
     d7c:	00000000 	andeq	r0, r0, r0
     d80:	00026423 	andeq	r6, r2, r3, lsr #8
     d84:	00864000 	addeq	r4, r6, r0
     d88:	0000a000 	andeq	sl, r0, r0
     d8c:	8fda0100 	svchi	0x00da0100
     d90:	1200000e 	andne	r0, r0, #14
     d94:	00000270 	andeq	r0, r0, r0, ror r2
     d98:	027a1215 	rsbseq	r1, sl, #1342177281	; 0x50000001
     d9c:	12140000 	andsne	r0, r4, #0
     da0:	00000284 	andeq	r0, r0, r4, lsl #5
     da4:	864014fe 			; <UNDEFINED> instruction: 0x864014fe
     da8:	00a00000 	adceq	r0, r0, r0
     dac:	8d0f0000 	stchi	0, cr0, [pc, #-0]	; db4 <_start-0x724c>
     db0:	38000002 	stmdacc	r0, {r1}
     db4:	0f000009 	svceq	0x00000009
     db8:	00000298 	muleq	r0, r8, r2
     dbc:	00000957 	andeq	r0, r0, r7, asr r9
     dc0:	0002a30f 	andeq	sl, r2, pc, lsl #6
     dc4:	00097600 	andeq	r7, r9, r0, lsl #12
     dc8:	008f2900 	addeq	r2, pc, r0, lsl #18
     dcc:	86500000 	ldrbhi	r0, [r0], -r0
     dd0:	02380000 	eorseq	r0, r8, #0
     dd4:	c7010000 	strgt	r0, [r1, -r0]
     dd8:	00000de3 	andeq	r0, r0, r3, ror #27
     ddc:	00009b12 	andeq	r9, r0, r2, lsl fp
     de0:	19001500 	stmdbne	r0, {r8, sl, ip}
     de4:	00008648 	andeq	r8, r0, r8, asr #12
     de8:	00000fee 	andeq	r0, r0, lr, ror #31
     dec:	00000dfa 	strdeq	r0, [r0], -sl
     df0:	0550011a 	ldrbeq	r0, [r0, #-282]	; 0x11a
     df4:	009e0803 	addseq	r0, lr, r3, lsl #16
     df8:	50190000 	andspl	r0, r9, r0
     dfc:	ee000086 	cdp	0, 0, cr0, cr0, cr6, {4}
     e00:	1100000f 	tstne	r0, pc
     e04:	1a00000e 	bne	e44 <_start-0x71bc>
     e08:	03055001 	movweq	r5, #20481	; 0x5001
     e0c:	00009e18 	andeq	r9, r0, r8, lsl lr
     e10:	865c1b00 	ldrbhi	r1, [ip], -r0, lsl #22
     e14:	02af0000 	adceq	r0, pc, #0
     e18:	74190000 	ldrvc	r0, [r9], #-0
     e1c:	ee000086 	cdp	0, 0, cr0, cr0, cr6, {4}
     e20:	3700000f 	strcc	r0, [r0, -pc]
     e24:	1a00000e 	bne	e64 <_start-0x719c>
     e28:	75025101 	strvc	r5, [r2, #-257]	; 0x101
     e2c:	50011a00 	andpl	r1, r1, r0, lsl #20
     e30:	9e280305 	cdpls	3, 2, cr0, cr8, cr5, {0}
     e34:	19000000 	stmdbne	r0, {}	; <UNPREDICTABLE>
     e38:	00008690 	muleq	r0, r0, r6
     e3c:	00000fee 	andeq	r0, r0, lr, ror #31
     e40:	00000e54 	andeq	r0, r0, r4, asr lr
     e44:	0251011a 	subseq	r0, r1, #-2147483642	; 0x80000006
     e48:	011a0076 	tsteq	sl, r6, ror r0
     e4c:	30030550 	andcc	r0, r3, r0, asr r5
     e50:	0000009e 	muleq	r0, lr, r0
     e54:	0086a019 	addeq	sl, r6, r9, lsl r0
     e58:	00065600 	andeq	r5, r6, r0, lsl #12
     e5c:	000e7400 	andeq	r7, lr, r0, lsl #8
     e60:	52011a00 	andpl	r1, r1, #0, 20
     e64:	17bc0a03 	ldrne	r0, [ip, r3, lsl #20]!
     e68:	0251011a 	subseq	r0, r1, #-2147483642	; 0x80000006
     e6c:	011a0076 	tsteq	sl, r6, ror r0
     e70:	00450150 	subeq	r0, r5, r0, asr r1
     e74:	0086b828 	addeq	fp, r6, r8, lsr #16
     e78:	000fee00 	andeq	lr, pc, r0, lsl #28
     e7c:	51011a00 	tstpl	r1, r0, lsl #20
     e80:	1a007402 	bne	1de90 <__bss_end__+0x139f0>
     e84:	03055001 	movweq	r5, #20481	; 0x5001
     e88:	00009e3c 	andeq	r9, r0, ip, lsr lr
     e8c:	19000000 	stmdbne	r0, {}	; <UNPREDICTABLE>
     e90:	000085b0 			; <UNDEFINED> instruction: 0x000085b0
     e94:	0000100b 	andeq	r1, r0, fp
     e98:	00000ea2 	andeq	r0, r0, r2, lsr #29
     e9c:	0150011a 	cmpeq	r0, sl, lsl r1
     ea0:	b8190045 	ldmdalt	r9, {r0, r2, r6}
     ea4:	1c000085 	stcne	0, cr0, [r0], {133}	; 0x85
     ea8:	b5000010 	strlt	r0, [r0, #-16]
     eac:	1a00000e 	bne	eec <_start-0x7114>
     eb0:	44015001 	strmi	r5, [r1], #-1
     eb4:	85bc1b00 	ldrhi	r1, [ip, #2816]!	; 0xb00
     eb8:	102d0000 	eorne	r0, sp, r0
     ebc:	cc190000 	ldcgt	0, cr0, [r9], {-0}
     ec0:	34000085 	strcc	r0, [r0], #-133	; 0x85
     ec4:	d1000010 	tstle	r0, r0, lsl r0
     ec8:	1a00000e 	bne	f08 <_start-0x70f8>
     ecc:	44015001 	strmi	r5, [r1], #-1
     ed0:	86401b00 	strbhi	r1, [r0], -r0, lsl #22
     ed4:	10040000 	andne	r0, r4, r0
     ed8:	2a000000 	bcs	ee0 <_start-0x7120>
     edc:	00000191 	muleq	r0, r1, r1
     ee0:	0eea0701 	cdpeq	7, 14, cr0, cr10, cr1, {0}
     ee4:	00000000 	andeq	r0, r0, r0
     ee8:	04052020 	streq	r2, [r5], #-32
     eec:	00000ef0 	strdeq	r0, [r0], -r0	; <UNPREDICTABLE>
     ef0:	00002c2b 	andeq	r2, r0, fp, lsr #24
     ef4:	025b2a00 	subseq	r2, fp, #0, 20
     ef8:	08010000 	stmdaeq	r1, {}	; <UNPREDICTABLE>
     efc:	00000eea 	andeq	r0, r0, sl, ror #29
     f00:	2020001c 	eorcs	r0, r0, ip, lsl r0
     f04:	0002a42a 	andeq	sl, r2, sl, lsr #8
     f08:	ea090100 	b	241310 <__bss_end__+0x236e70>
     f0c:	2800000e 	stmdacs	r0, {r1, r2, r3}
     f10:	2a202000 	bcs	808f18 <__bss_end__+0x7fea78>
     f14:	0000013d 	andeq	r0, r0, sp, lsr r1
     f18:	0eea0b01 	vfmaeq.f64	d16, d10, d1
     f1c:	00000000 	andeq	r0, r0, r0
     f20:	452a2020 	strmi	r2, [sl, #-32]!
     f24:	01000001 	tsteq	r0, r1
     f28:	000eea0c 	andeq	lr, lr, ip, lsl #20
     f2c:	20000400 	andcs	r0, r0, r0, lsl #8
     f30:	00002a20 	andeq	r2, r0, r0, lsr #20
     f34:	0d010000 	stceq	0, cr0, [r1, #-0]
     f38:	00000eea 	andeq	r0, r0, sl, ror #29
     f3c:	20200008 	eorcs	r0, r0, r8
     f40:	00014d2a 	andeq	r4, r1, sl, lsr #26
     f44:	ea0e0100 	b	38134c <__bss_end__+0x376eac>
     f48:	0c00000e 	stceq	0, cr0, [r0], {14}
     f4c:	2a202000 	bcs	808f54 <__bss_end__+0x7feab4>
     f50:	00000008 	andeq	r0, r0, r8
     f54:	0eea0f01 	cdpeq	15, 14, cr0, cr10, cr1, {0}
     f58:	00100000 	andseq	r0, r0, r0
     f5c:	5e2a2020 	cdppl	0, 2, cr2, cr10, cr0, {1}
     f60:	01000001 	tsteq	r0, r1
     f64:	000eea10 	andeq	lr, lr, r0, lsl sl
     f68:	20001400 	andcs	r1, r0, r0, lsl #8
     f6c:	008c2a20 	addeq	r2, ip, r0, lsr #20
     f70:	12010000 	andne	r0, r1, #0
     f74:	00000f7c 	andeq	r0, r0, ip, ror pc
     f78:	2020001c 	eorcs	r0, r0, ip, lsl r0
     f7c:	000eea06 	andeq	lr, lr, r6, lsl #20
     f80:	00932a00 	addseq	r2, r3, r0, lsl #20
     f84:	13010000 	movwne	r0, #4096	; 0x1000
     f88:	00000eea 	andeq	r0, r0, sl, ror #29
     f8c:	20200020 	eorcs	r0, r0, r0, lsr #32
     f90:	00023c2a 	andeq	r3, r2, sl, lsr #24
     f94:	9f150100 	svcls	0x00150100
     f98:	2800000f 	stmdacs	r0, {r0, r1, r2, r3}
     f9c:	06202000 	strteq	r2, [r0], -r0
     fa0:	00000eea 	andeq	r0, r0, sl, ror #29
     fa4:	00019c2a 	andeq	r9, r1, sl, lsr #24
     fa8:	ea160100 	b	5813b0 <__bss_end__+0x576f10>
     fac:	2c00000e 	stccs	0, cr0, [r0], {14}
     fb0:	2a202000 	bcs	808fb8 <__bss_end__+0x7feb18>
     fb4:	0000009a 	muleq	r0, sl, r0
     fb8:	0fc21801 	svceq	0x00c21801
     fbc:	00340000 	eorseq	r0, r4, r0
     fc0:	ea062020 	b	189048 <__bss_end__+0x17eba8>
     fc4:	2a00000e 	bcs	1004 <_start-0x6ffc>
     fc8:	000000a1 	andeq	r0, r0, r1, lsr #1
     fcc:	0eea1901 	cdpeq	9, 14, cr1, cr10, cr1, {0}
     fd0:	00380000 	eorseq	r0, r8, r0
     fd4:	432c2020 	teqmi	ip, #32
     fd8:	02000002 	andeq	r0, r0, #2
     fdc:	000fe750 	andeq	lr, pc, r0, asr r7	; <UNPREDICTABLE>
     fe0:	002c2d00 	eoreq	r2, ip, r0, lsl #26
     fe4:	2e000000 	cdpcs	0, 0, cr0, cr0, cr0, {0}
     fe8:	0000012e 	andeq	r0, r0, lr, lsr #2
     fec:	2d2f1e02 	stccs	14, cr1, [pc, #-8]!	; fec <_start-0x7014>
     ff0:	02000003 	andeq	r0, r0, #3
     ff4:	00002529 	andeq	r2, r0, r9, lsr #10
     ff8:	00100400 	andseq	r0, r0, r0, lsl #8
     ffc:	00842d00 	addeq	r2, r4, r0, lsl #26
    1000:	00300000 	eorseq	r0, r0, r0
    1004:	0001ad2e 	andeq	sl, r1, lr, lsr #26
    1008:	2c660200 	sfmcs	f0, 2, [r6], #-0
    100c:	0000027f 	andeq	r0, r0, pc, ror r2
    1010:	101c1d03 	andsne	r1, ip, r3, lsl #26
    1014:	2c2d0000 	stccs	0, cr0, [sp], #-0
    1018:	00000000 	andeq	r0, r0, r0
    101c:	00026b2c 	andeq	r6, r2, ip, lsr #22
    1020:	2d1c0300 	ldccs	3, cr0, [ip, #-0]
    1024:	2d000010 	stccs	0, cr0, [r0, #-64]	; 0xffffffc0
    1028:	0000002c 	andeq	r0, r0, ip, lsr #32
    102c:	028f2e00 	addeq	r2, pc, #0, 28
    1030:	8e020000 	cdphi	0, 0, cr0, cr2, cr0, {0}
    1034:	0001a331 	andeq	sl, r1, r1, lsr r3
    1038:	25240300 	strcs	r0, [r4, #-768]!	; 0x300
    103c:	2d000000 	stccs	0, cr0, [r0, #-0]
    1040:	0000002c 	andeq	r0, r0, ip, lsr #32
    1044:	01910000 	orrseq	r0, r1, r0
    1048:	00040000 	andeq	r0, r4, r0
    104c:	0000027a 	andeq	r0, r0, sl, ror r2
    1050:	02d30104 	sbcseq	r0, r3, #4, 2
    1054:	c5010000 	strgt	r0, [r1, #-0]
    1058:	3e000002 	cdpcc	0, 0, cr0, cr0, cr2, {0}
    105c:	e0000003 	and	r0, r0, r3
    1060:	58000086 	stmdapl	r0, {r1, r2, r7}
    1064:	ee000000 	cdp	0, 0, cr0, cr0, cr0, {0}
    1068:	02000002 	andeq	r0, r0, #2
    106c:	000002b6 			; <UNDEFINED> instruction: 0x000002b6
    1070:	00302802 	eorseq	r2, r0, r2, lsl #16
    1074:	34030000 	strcc	r0, [r3], #-0
    1078:	04000003 	streq	r0, [r0], #-3
    107c:	00470003 	subeq	r0, r7, r3
    1080:	87040000 	strhi	r0, [r4, -r0]
    1084:	47000003 	strmi	r0, [r0, -r3]
    1088:	00000000 	andeq	r0, r0, r0
    108c:	02040500 	andeq	r0, r4, #0, 10
    1090:	00000336 	andeq	r0, r0, r6, lsr r3
    1094:	00256202 	eoreq	r6, r5, r2, lsl #4
    1098:	04060000 	streq	r0, [r6], #-0
    109c:	746e6905 	strbtvc	r6, [lr], #-2309	; 0x905
    10a0:	07040700 	streq	r0, [r4, -r0, lsl #14]
    10a4:	0000004d 	andeq	r0, r0, sp, asr #32
    10a8:	26060107 	strcs	r0, [r6], -r7, lsl #2
    10ac:	07000002 	streq	r0, [r0, -r2]
    10b0:	02320502 	eorseq	r0, r2, #8388608	; 0x800000
    10b4:	04070000 	streq	r0, [r7], #-0
    10b8:	00007c05 	andeq	r7, r0, r5, lsl #24
    10bc:	05080700 	streq	r0, [r8, #-1792]	; 0x700
    10c0:	00000077 	andeq	r0, r0, r7, ror r0
    10c4:	24080107 	strcs	r0, [r8], #-263	; 0x107
    10c8:	07000002 	streq	r0, [r0, -r2]
    10cc:	017e0702 	cmneq	lr, r2, lsl #14
    10d0:	04070000 	streq	r0, [r7], #-0
    10d4:	00004807 	andeq	r4, r0, r7, lsl #16
    10d8:	07080700 	streq	r0, [r8, -r0, lsl #14]
    10dc:	00000043 	andeq	r0, r0, r3, asr #32
    10e0:	c0070407 	andgt	r0, r7, r7, lsl #8
    10e4:	08000001 	stmdaeq	r0, {r0}
    10e8:	0000a704 	andeq	sl, r0, r4, lsl #14
    10ec:	08010700 	stmdaeq	r1, {r8, r9, sl}
    10f0:	0000022d 	andeq	r0, r0, sp, lsr #4
    10f4:	00b40408 	adcseq	r0, r4, r8, lsl #8
    10f8:	a7090000 	strge	r0, [r9, -r0]
    10fc:	0a000000 	beq	1104 <_start-0x6efc>
    1100:	0000032d 	andeq	r0, r0, sp, lsr #6
    1104:	00540601 	subseq	r0, r4, r1, lsl #12
    1108:	86e00000 	strbthi	r0, [r0], r0
    110c:	00580000 	subseq	r0, r8, r0
    1110:	9c010000 	stcls	0, cr0, [r1], {-0}
    1114:	00000143 	andeq	r0, r0, r3, asr #2
    1118:	746d660b 	strbtvc	r6, [sp], #-1547	; 0x60b
    111c:	ae060100 	adfges	f0, f6, f0
    1120:	02000000 	andeq	r0, r0, #0
    1124:	0d0c7091 	stceq	0, cr7, [ip, #-580]	; 0xfffffdbc
    1128:	00667562 	rsbeq	r7, r6, r2, ror #10
    112c:	01430801 	cmpeq	r3, r1, lsl #16
    1130:	03050000 	movweq	r0, #20480	; 0x5000
    1134:	0000a094 	muleq	r0, r4, r0
    1138:	0003820e 	andeq	r8, r3, lr, lsl #4
    113c:	49090100 	stmdbmi	r9, {r8}
    1140:	02000000 	andeq	r0, r0, #0
    1144:	730f5c91 	movwvc	r5, #64657	; 0xfc91
    1148:	0c01007a 	stceq	0, cr0, [r1], {122}	; 0x7a
    114c:	00000054 	andeq	r0, r0, r4, asr r0
    1150:	000009a0 	andeq	r0, r0, r0, lsr #19
    1154:	00870810 	addeq	r0, r7, r0, lsl r8
    1158:	00017400 	andeq	r7, r1, r0, lsl #8
    115c:	00013600 	andeq	r3, r1, r0, lsl #12
    1160:	53011100 	movwpl	r1, #4352	; 0x1100
    1164:	114c9102 	cmpne	ip, r2, lsl #2
    1168:	91035201 	tstls	r3, r1, lsl #4
    116c:	01110648 	tsteq	r1, r8, asr #12
    1170:	000a0351 	andeq	r0, sl, r1, asr r3
    1174:	50011104 	andpl	r1, r1, r4, lsl #2
    1178:	00007402 	andeq	r7, r0, r2, lsl #8
    117c:	00871c12 	addeq	r1, r7, r2, lsl ip
    1180:	50011100 	andpl	r1, r1, r0, lsl #2
    1184:	00007402 	andeq	r7, r0, r2, lsl #8
    1188:	00a71300 	adceq	r1, r7, r0, lsl #6
    118c:	01540000 	cmpeq	r4, r0
    1190:	9a140000 	bls	501198 <__bss_end__+0x4f6cf8>
    1194:	ff000000 			; <UNDEFINED> instruction: 0xff000000
    1198:	54150003 	ldrpl	r0, [r5], #-3
    119c:	63000000 	movwvs	r0, #0
    11a0:	16000001 	strne	r0, [r0], -r1
    11a4:	000000ae 	andeq	r0, r0, lr, lsr #1
    11a8:	03da1700 	bicseq	r1, sl, #0, 14
    11ac:	22040000 	andcs	r0, r4, #0
    11b0:	0000016e 	andeq	r0, r0, lr, ror #2
    11b4:	01540408 	cmpeq	r4, r8, lsl #8
    11b8:	2a180000 	bcs	6011c0 <__bss_end__+0x5f6d20>
    11bc:	05000003 	streq	r0, [r0, #-3]
    11c0:	00005402 	andeq	r5, r0, r2, lsl #8
    11c4:	00a11600 	adceq	r1, r1, r0, lsl #12
    11c8:	54160000 	ldrpl	r0, [r6], #-0
    11cc:	16000000 	strne	r0, [r0], -r0
    11d0:	000000ae 	andeq	r0, r0, lr, lsr #1
    11d4:	00004916 	andeq	r4, r0, r6, lsl r9
    11d8:	13000000 	movwne	r0, #0
    11dc:	04000001 	streq	r0, [r0], #-1
    11e0:	0003ab00 	andeq	sl, r3, r0, lsl #22
    11e4:	d3010400 	movwle	r0, #5120	; 0x1400
    11e8:	01000002 	tsteq	r0, r2
    11ec:	000003a9 	andeq	r0, r0, r9, lsr #7
    11f0:	0000033e 	andeq	r0, r0, lr, lsr r3
    11f4:	00008738 	andeq	r8, r0, r8, lsr r7
    11f8:	0000003c 	andeq	r0, r0, ip, lsr r0
    11fc:	000003f4 	strdeq	r0, [r0], -r4
    1200:	69050402 	stmdbvs	r5, {r1, sl}
    1204:	0300746e 	movweq	r7, #1134	; 0x46e
    1208:	004d0704 	subeq	r0, sp, r4, lsl #14
    120c:	01030000 	mrseq	r0, (UNDEF: 3)
    1210:	00022606 	andeq	r2, r2, r6, lsl #12
    1214:	05020300 	streq	r0, [r2, #-768]	; 0x300
    1218:	00000232 	andeq	r0, r0, r2, lsr r2
    121c:	7c050403 	cfstrsvc	mvf0, [r5], {3}
    1220:	03000000 	movweq	r0, #0
    1224:	00770508 	rsbseq	r0, r7, r8, lsl #10
    1228:	01030000 	mrseq	r0, (UNDEF: 3)
    122c:	00022408 	andeq	r2, r2, r8, lsl #8
    1230:	07020300 	streq	r0, [r2, -r0, lsl #6]
    1234:	0000017e 	andeq	r0, r0, lr, ror r1
    1238:	48070403 	stmdami	r7, {r0, r1, sl}
    123c:	03000000 	movweq	r0, #0
    1240:	00430708 	subeq	r0, r3, r8, lsl #14
    1244:	04030000 	streq	r0, [r3], #-0
    1248:	0001c007 	andeq	ip, r1, r7
    124c:	08010300 	stmdaeq	r1, {r8, r9}
    1250:	0000022d 	andeq	r0, r0, sp, lsr #4
    1254:	00038c04 	andeq	r8, r3, r4, lsl #24
    1258:	25030100 	strcs	r0, [r3, #-256]	; 0x100
    125c:	38000000 	stmdacc	r0, {}	; <UNPREDICTABLE>
    1260:	14000087 	strne	r0, [r0], #-135	; 0x87
    1264:	01000000 	mrseq	r0, (UNDEF: 0)
    1268:	0000b09c 	muleq	r0, ip, r0
    126c:	00630500 	rsbeq	r0, r3, r0, lsl #10
    1270:	00250301 	eoreq	r0, r5, r1, lsl #6
    1274:	09c90000 	stmibeq	r9, {}^	; <UNPREDICTABLE>
    1278:	44060000 	strmi	r0, [r6], #-0
    127c:	09000087 	stmdbeq	r0, {r0, r1, r2, r7}
    1280:	07000001 	streq	r0, [r0, -r1]
    1284:	74025001 	strvc	r5, [r2], #-1
    1288:	08000000 	stmdaeq	r0, {}	; <UNPREDICTABLE>
    128c:	0000012e 	andeq	r0, r0, lr, lsr #2
    1290:	874c0801 	strbhi	r0, [ip, -r1, lsl #16]
    1294:	00180000 	andseq	r0, r8, r0
    1298:	9c010000 	stcls	0, cr0, [r1], {-0}
    129c:	0003b809 	andeq	fp, r3, r9, lsl #16
    12a0:	640b0100 	strvs	r0, [fp], #-256	; 0x100
    12a4:	10000087 	andne	r0, r0, r7, lsl #1
    12a8:	01000000 	mrseq	r0, (UNDEF: 0)
    12ac:	0000e39c 	muleq	r0, ip, r3
    12b0:	70660a00 	rsbvc	r0, r6, r0, lsl #20
    12b4:	f20b0100 	vrhadd.s8	d0, d11, d0
    12b8:	01000000 	mrseq	r0, (UNDEF: 0)
    12bc:	250b0050 	strcs	r0, [fp, #-80]	; 0x50
    12c0:	f2000000 	vhadd.s8	d0, d0, d0
    12c4:	0c000000 	stceq	0, cr0, [r0], {-0}
    12c8:	00000025 	andeq	r0, r0, r5, lsr #32
    12cc:	e3040d00 	movw	r0, #19712	; 0x4d00
    12d0:	0e000000 	cdpeq	0, 0, cr0, cr0, cr0, {0}
    12d4:	0000039d 	muleq	r0, sp, r3
    12d8:	00f20601 	rscseq	r0, r2, r1, lsl #12
    12dc:	03050000 	movweq	r0, #20480	; 0x5000
    12e0:	00009cf0 	strdeq	r9, [r0], -r0
    12e4:	0005250f 	andeq	r2, r5, pc, lsl #10
    12e8:	0c3c0200 	lfmeq	f0, 4, [ip], #-0
    12ec:	0000002c 	andeq	r0, r0, ip, lsr #32
    12f0:	00ee0000 	rsceq	r0, lr, r0
    12f4:	00040000 	andeq	r0, r4, r0
    12f8:	00000493 	muleq	r0, r3, r4
    12fc:	02d30104 	sbcseq	r0, r3, #4, 2
    1300:	c5010000 	strgt	r0, [r1, #-0]
    1304:	3e000003 	cdpcc	0, 0, cr0, cr0, cr3, {0}
    1308:	74000003 	strvc	r0, [r0], #-3
    130c:	34000087 	strcc	r0, [r0], #-135	; 0x87
    1310:	82000000 	andhi	r0, r0, #0
    1314:	02000004 	andeq	r0, r0, #4
    1318:	6e690504 	cdpvs	5, 6, cr0, cr9, cr4, {0}
    131c:	04030074 	streq	r0, [r3], #-116	; 0x74
    1320:	00004d07 	andeq	r4, r0, r7, lsl #26
    1324:	06010300 	streq	r0, [r1], -r0, lsl #6
    1328:	00000226 	andeq	r0, r0, r6, lsr #4
    132c:	32050203 	andcc	r0, r5, #805306368	; 0x30000000
    1330:	03000002 	movweq	r0, #2
    1334:	007c0504 	rsbseq	r0, ip, r4, lsl #10
    1338:	08030000 	stmdaeq	r3, {}	; <UNPREDICTABLE>
    133c:	00007705 	andeq	r7, r0, r5, lsl #14
    1340:	08010300 	stmdaeq	r1, {r8, r9}
    1344:	00000224 	andeq	r0, r0, r4, lsr #4
    1348:	7e070203 	cdpvc	2, 0, cr0, cr7, cr3, {0}
    134c:	03000001 	movweq	r0, #1
    1350:	00480704 	subeq	r0, r8, r4, lsl #14
    1354:	08030000 	stmdaeq	r3, {}	; <UNPREDICTABLE>
    1358:	00004307 	andeq	r4, r0, r7, lsl #6
    135c:	07040300 	streq	r0, [r4, -r0, lsl #6]
    1360:	000001c0 	andeq	r0, r0, r0, asr #3
    1364:	2d080103 	stfcss	f0, [r8, #-12]
    1368:	04000002 	streq	r0, [r0], #-2
    136c:	00007f04 	andeq	r7, r0, r4, lsl #30
    1370:	00720500 	rsbseq	r0, r2, r0, lsl #10
    1374:	d1060000 	mrsle	r0, (UNDEF: 6)
    1378:	01000003 	tsteq	r0, r3
    137c:	00002504 	andeq	r2, r0, r4, lsl #10
    1380:	00877400 	addeq	r7, r7, r0, lsl #8
    1384:	00003400 	andeq	r3, r0, r0, lsl #8
    1388:	ab9c0100 	blge	fe701790 <__bss_end__+0xfe6f72f0>
    138c:	07000000 	streq	r0, [r0, -r0]
    1390:	04010070 	streq	r0, [r1], #-112	; 0x70
    1394:	00000079 	andeq	r0, r0, r9, ror r0
    1398:	000009e7 	andeq	r0, r0, r7, ror #19
    139c:	00250800 	eoreq	r0, r5, r0, lsl #16
    13a0:	00ba0000 	adcseq	r0, sl, r0
    13a4:	25090000 	strcs	r0, [r9, #-0]
    13a8:	00000000 	andeq	r0, r0, r0
    13ac:	00039d0a 	andeq	r9, r3, sl, lsl #26
    13b0:	c51d0200 	ldrgt	r0, [sp, #-512]	; 0x200
    13b4:	04000000 	streq	r0, [r0], #-0
    13b8:	0000ab04 	andeq	sl, r0, r4, lsl #22
    13bc:	00250800 	eoreq	r0, r5, r0, lsl #16
    13c0:	00da0000 	sbcseq	r0, sl, r0
    13c4:	79090000 	stmdbvc	r9, {}	; <UNPREDICTABLE>
    13c8:	00000000 	andeq	r0, r0, r0
    13cc:	0003da0b 	andeq	sp, r3, fp, lsl #20
    13d0:	eb0c0100 	bl	3017d8 <__bss_end__+0x2f7338>
    13d4:	05000000 	streq	r0, [r0, #-0]
    13d8:	009cf403 	addseq	pc, ip, r3, lsl #8
    13dc:	cb040400 	blgt	1023e4 <__bss_end__+0xf7f44>
    13e0:	00000000 	andeq	r0, r0, r0
    13e4:	000006a1 	andeq	r0, r0, r1, lsr #13
    13e8:	052c0004 	streq	r0, [ip, #-4]!
    13ec:	01040000 	mrseq	r0, (UNDEF: 4)
    13f0:	000002d3 	ldrdeq	r0, [r0], -r3
    13f4:	00040b01 	andeq	r0, r4, r1, lsl #22
    13f8:	00033e00 	andeq	r3, r3, r0, lsl #28
    13fc:	0087a800 	addeq	sl, r7, r0, lsl #16
    1400:	00052400 	andeq	r2, r5, r0, lsl #8
    1404:	00051c00 	andeq	r1, r5, r0, lsl #24
    1408:	05040200 	streq	r0, [r4, #-512]	; 0x200
    140c:	00746e69 	rsbseq	r6, r4, r9, ror #28
    1410:	4d070403 	cfstrsmi	mvf0, [r7, #-12]
    1414:	03000000 	movweq	r0, #0
    1418:	02260601 	eoreq	r0, r6, #1048576	; 0x100000
    141c:	02030000 	andeq	r0, r3, #0
    1420:	00023205 	andeq	r3, r2, r5, lsl #4
    1424:	05040300 	streq	r0, [r4, #-768]	; 0x300
    1428:	0000007c 	andeq	r0, r0, ip, ror r0
    142c:	77050803 	strvc	r0, [r5, -r3, lsl #16]
    1430:	03000000 	movweq	r0, #0
    1434:	02240801 	eoreq	r0, r4, #65536	; 0x10000
    1438:	02030000 	andeq	r0, r3, #0
    143c:	00017e07 	andeq	r7, r1, r7, lsl #28
    1440:	07040300 	streq	r0, [r4, -r0, lsl #6]
    1444:	00000048 	andeq	r0, r0, r8, asr #32
    1448:	43070803 	movwmi	r0, #30723	; 0x7803
    144c:	03000000 	movweq	r0, #0
    1450:	01c00704 	biceq	r0, r0, r4, lsl #14
    1454:	04040000 	streq	r0, [r4], #-0
    1458:	007a0405 	rsbseq	r0, sl, r5, lsl #8
    145c:	01030000 	mrseq	r0, (UNDEF: 3)
    1460:	00022d08 	andeq	r2, r2, r8, lsl #26
    1464:	87040500 	strhi	r0, [r4, -r0, lsl #10]
    1468:	06000000 	streq	r0, [r0], -r0
    146c:	0000007a 	andeq	r0, r0, sl, ror r0
    1470:	0002b607 	andeq	fp, r2, r7, lsl #12
    1474:	97280200 	strls	r0, [r8, -r0, lsl #4]!
    1478:	08000000 	stmdaeq	r0, {}	; <UNPREDICTABLE>
    147c:	00000334 	andeq	r0, r0, r4, lsr r3
    1480:	ae000404 	cdpge	4, 0, cr0, cr0, cr4, {0}
    1484:	09000000 	stmdbeq	r0, {}	; <UNPREDICTABLE>
    1488:	00000387 	andeq	r0, r0, r7, lsl #7
    148c:	00000072 	andeq	r0, r0, r2, ror r0
    1490:	36070000 	strcc	r0, [r7], -r0
    1494:	02000003 	andeq	r0, r0, #3
    1498:	00008c62 	andeq	r8, r0, r2, ror #24
    149c:	03ed0a00 	mvneq	r0, #0, 20
    14a0:	27010000 	strcs	r0, [r1, -r0]
    14a4:	00000025 	andeq	r0, r0, r5, lsr #32
    14a8:	000087a8 	andeq	r8, r0, r8, lsr #15
    14ac:	00000014 	andeq	r0, r0, r4, lsl r0
    14b0:	00e09c01 	rsceq	r9, r0, r1, lsl #24
    14b4:	630b0000 	movwvs	r0, #45056	; 0xb000
    14b8:	25270100 	strcs	r0, [r7, #-256]!	; 0x100
    14bc:	05000000 	streq	r0, [r0, #-0]
    14c0:	0000000a 	andeq	r0, r0, sl
    14c4:	6461700c 	strbtvs	r7, [r1], #-12
    14c8:	742e0100 	strtvc	r0, [lr], #-256	; 0x100
    14cc:	bc000000 	stclt	0, cr0, [r0], {-0}
    14d0:	2c000087 	stccs	0, cr0, [r0], {135}	; 0x87
    14d4:	01000000 	mrseq	r0, (UNDEF: 0)
    14d8:	0001309c 	muleq	r1, ip, r0
    14dc:	00700b00 	rsbseq	r0, r0, r0, lsl #22
    14e0:	00742e01 	rsbseq	r2, r4, r1, lsl #28
    14e4:	0a330000 	beq	cc14ec <__bss_end__+0xcb704c>
    14e8:	fd0d0000 	stc2	0, cr0, [sp, #-0]
    14ec:	01000003 	tsteq	r0, r3
    14f0:	0000742e 	andeq	r7, r0, lr, lsr #8
    14f4:	000a5e00 	andeq	r5, sl, r0, lsl #28
    14f8:	042b0e00 	strteq	r0, [fp], #-3584	; 0xe00
    14fc:	2e010000 	cdpcs	0, 0, cr0, cr1, cr0, {0}
    1500:	00000025 	andeq	r0, r0, r5, lsr #32
    1504:	6c0f5201 	sfmvs	f5, 4, [pc], {1}
    1508:	01006e65 	tsteq	r0, r5, ror #28
    150c:	0000252f 	andeq	r2, r0, pc, lsr #10
    1510:	00510100 	subseq	r0, r1, r0, lsl #2
    1514:	0003e50a 	andeq	lr, r3, sl, lsl #10
    1518:	74370100 	ldrtvc	r0, [r7], #-256	; 0x100
    151c:	e8000000 	stmda	r0, {}	; <UNPREDICTABLE>
    1520:	40000087 	andmi	r0, r0, r7, lsl #1
    1524:	01000000 	mrseq	r0, (UNDEF: 0)
    1528:	00019c9c 	muleq	r1, ip, ip
    152c:	73640b00 	cmnvc	r4, #0, 22
    1530:	37010074 	smlsdxcc	r1, r4, r0, r0
    1534:	00000074 	andeq	r0, r0, r4, ror r0
    1538:	00000a7f 	andeq	r0, r0, pc, ror sl
    153c:	01006e0b 	tsteq	r0, fp, lsl #28
    1540:	00002537 	andeq	r2, r0, r7, lsr r5
    1544:	000ab700 	andeq	fp, sl, r0, lsl #14
    1548:	00700b00 	rsbseq	r0, r0, r0, lsl #22
    154c:	00743701 	rsbseq	r3, r4, r1, lsl #14
    1550:	0ad80000 	beq	ff601558 <__bss_end__+0xff5f70b8>
    1554:	110d0000 	mrsne	r0, (UNDEF: 13)
    1558:	01000005 	tsteq	r0, r5
    155c:	00007437 	andeq	r7, r0, r7, lsr r4
    1560:	000b0e00 	andeq	r0, fp, r0, lsl #28
    1564:	656c1000 	strbvs	r1, [ip, #-0]!
    1568:	3901006e 	stmdbcc	r1, {r1, r2, r3, r5, r6}
    156c:	00000025 	andeq	r0, r0, r5, lsr #32
    1570:	00000b2c 	andeq	r0, r0, ip, lsr #22
    1574:	0100730f 	tsteq	r0, pc, lsl #6
    1578:	0000743d 	andeq	r7, r0, sp, lsr r4
    157c:	00500100 	subseq	r0, r0, r0, lsl #2
    1580:	0004390a 	andeq	r3, r4, sl, lsl #18
    1584:	74470100 	strbvc	r0, [r7], #-256	; 0x100
    1588:	28000000 	stmdacs	r0, {}	; <UNPREDICTABLE>
    158c:	a8000088 	stmdage	r0, {r3, r7}
    1590:	01000001 	tsteq	r0, r1
    1594:	0002df9c 	muleq	r2, ip, pc	; <UNPREDICTABLE>
    1598:	03fd0d00 	mvnseq	r0, #0, 26
    159c:	47010000 	strmi	r0, [r1, -r0]
    15a0:	0000002c 	andeq	r0, r0, ip, lsr #32
    15a4:	00000b53 	andeq	r0, r0, r3, asr fp
    15a8:	7473640b 	ldrbtvc	r6, [r3], #-1035	; 0x40b
    15ac:	74470100 	strbvc	r0, [r7], #-256	; 0x100
    15b0:	81000000 	mrshi	r0, (UNDEF: 0)
    15b4:	0b00000b 	bleq	15e8 <_start-0x6a18>
    15b8:	4701006e 	strmi	r0, [r1, -lr, rrx]
    15bc:	00000025 	andeq	r0, r0, r5, lsr #32
    15c0:	00000bef 	andeq	r0, r0, pc, ror #23
    15c4:	6c61760b 	stclvs	6, cr7, [r1], #-44	; 0xffffffd4
    15c8:	25470100 	strbcs	r0, [r7, #-256]	; 0x100
    15cc:	1b000000 	blne	15d4 <_start-0x6a2c>
    15d0:	0d00000c 	stceq	0, cr0, [r0, #-48]	; 0xffffffd0
    15d4:	0000042b 	andeq	r0, r0, fp, lsr #8
    15d8:	00254701 	eoreq	r4, r5, r1, lsl #14
    15dc:	0c9a0000 	ldceq	0, cr0, [sl], {0}
    15e0:	020e0000 	andeq	r0, lr, #0
    15e4:	01000004 	tsteq	r0, r4
    15e8:	00002547 	andeq	r2, r0, r7, asr #10
    15ec:	04910200 	ldreq	r0, [r1], #512	; 0x200
    15f0:	6675620f 	ldrbtvs	r6, [r5], -pc, lsl #4
    15f4:	df4c0100 	svcle	0x004c0100
    15f8:	03000002 	movweq	r0, #2
    15fc:	107fa891 			; <UNDEFINED> instruction: 0x107fa891
    1600:	4c010070 	stcmi	0, cr0, [r1], {112}	; 0x70
    1604:	00000074 	andeq	r0, r0, r4, ror r0
    1608:	00000cc4 	andeq	r0, r0, r4, asr #25
    160c:	01007510 	tsteq	r0, r0, lsl r5
    1610:	00002c4d 	andeq	r2, r0, sp, asr #24
    1614:	000d8000 	andeq	r8, sp, r0
    1618:	01711100 	cmneq	r1, r0, lsl #2
    161c:	02ff0000 	rscseq	r0, pc, #0
    1620:	03050000 	movweq	r0, #20480	; 0x5000
    1624:	00009e58 	andeq	r9, r0, r8, asr lr
    1628:	00889412 	addeq	r9, r8, r2, lsl r4
    162c:	00007400 	andeq	r7, r0, r0, lsl #8
    1630:	00026100 	andeq	r6, r2, r0, lsl #2
    1634:	03df1300 	bicseq	r1, pc, #0, 6
    1638:	52010000 	andpl	r0, r1, #0
    163c:	0000002c 	andeq	r0, r0, ip, lsr #32
    1640:	00000e85 	andeq	r0, r0, r5, lsl #29
    1644:	89681400 	stmdbhi	r8!, {sl, ip}^
    1648:	06800000 	streq	r0, [r0], r0
    164c:	84150000 	ldrhi	r0, [r5], #-0
    1650:	87000089 	strhi	r0, [r0, -r9, lsl #1]
    1654:	a3000006 	movwge	r0, #6
    1658:	16000002 	strne	r0, [r0], -r2
    165c:	08025301 	stmdaeq	r2, {r0, r8, r9, ip, lr}
    1660:	52011675 	andpl	r1, r1, #122683392	; 0x7500000
    1664:	9e580305 	cdpls	3, 5, cr0, cr8, cr5, {0}
    1668:	01160000 	tsteq	r6, r0
    166c:	90030551 	andls	r0, r3, r1, asr r5
    1670:	1600009e 			; <UNDEFINED> instruction: 0x1600009e
    1674:	03055001 	movweq	r5, #20481	; 0x5001
    1678:	00009e7c 	andeq	r9, r0, ip, ror lr
    167c:	007d0216 	rsbseq	r0, sp, r6, lsl r2
    1680:	9ea40305 	cdpls	3, 10, cr0, cr4, cr5, {0}
    1684:	14000000 	strne	r0, [r0], #-0
    1688:	00008988 	andeq	r8, r0, r8, lsl #19
    168c:	0000069d 	muleq	r0, sp, r6
    1690:	00899415 	addeq	r9, r9, r5, lsl r4
    1694:	0000e000 	andeq	lr, r0, r0
    1698:	0002c100 	andeq	ip, r2, r0, lsl #2
    169c:	51011600 	tstpl	r1, r0, lsl #12
    16a0:	7fa09103 	svcvc	0x00a09103
    16a4:	89a81700 	stmibhi	r8!, {r8, r9, sl, ip}
    16a8:	01300000 	teqeq	r0, r0
    16ac:	01160000 	tsteq	r6, r0
    16b0:	a0910353 	addsge	r0, r1, r3, asr r3
    16b4:	5101167f 	tstpl	r1, pc, ror r6
    16b8:	16007402 	strne	r7, [r0], -r2, lsl #8
    16bc:	75025001 	strvc	r5, [r2, #-1]
    16c0:	18000000 	stmdane	r0, {}	; <UNPREDICTABLE>
    16c4:	0000007a 	andeq	r0, r0, sl, ror r0
    16c8:	000002ef 	andeq	r0, r0, pc, ror #5
    16cc:	00006b19 	andeq	r6, r0, r9, lsl fp
    16d0:	18003f00 	stmdane	r0, {r8, r9, sl, fp, ip, sp}
    16d4:	0000007a 	andeq	r0, r0, sl, ror r0
    16d8:	000002ff 	strdeq	r0, [r0], -pc	; <UNPREDICTABLE>
    16dc:	00006b19 	andeq	r6, r0, r9, lsl fp
    16e0:	06000400 	streq	r0, [r0], -r0, lsl #8
    16e4:	000002ef 	andeq	r0, r0, pc, ror #5
    16e8:	00041c1a 	andeq	r1, r4, sl, lsl ip
    16ec:	d01f0100 	andsle	r0, pc, r0, lsl #2
    16f0:	68000089 	stmdavs	r0, {r0, r3, r7}
    16f4:	01000000 	mrseq	r0, (UNDEF: 0)
    16f8:	0003929c 	muleq	r3, ip, r2
    16fc:	04310d00 	ldrteq	r0, [r1], #-3328	; 0xd00
    1700:	1f010000 	svcne	0x00010000
    1704:	000003a1 	andeq	r0, r0, r1, lsr #7
    1708:	00000eb1 			; <UNDEFINED> instruction: 0x00000eb1
    170c:	0003f50d 	andeq	pc, r3, sp, lsl #10
    1710:	b61f0100 	ldrlt	r0, [pc], -r0, lsl #2
    1714:	dd000003 	stcle	0, cr0, [r0, #-12]
    1718:	1100000e 	tstne	r0, lr
    171c:	00000171 	andeq	r0, r0, r1, ror r1
    1720:	000003cc 	andeq	r0, r0, ip, asr #7
    1724:	9e600305 	cdpls	3, 6, cr0, cr0, cr5, {0}
    1728:	e4140000 	ldr	r0, [r4], #-0
    172c:	80000089 	andhi	r0, r0, r9, lsl #1
    1730:	15000006 	strne	r0, [r0, #-6]
    1734:	00008a00 	andeq	r8, r0, r0, lsl #20
    1738:	00000687 	andeq	r0, r0, r7, lsl #13
    173c:	00000388 	andeq	r0, r0, r8, lsl #7
    1740:	02530116 	subseq	r0, r3, #-2147483643	; 0x80000005
    1744:	01162008 	tsteq	r6, r8
    1748:	60030552 	andvs	r0, r3, r2, asr r5
    174c:	1600009e 			; <UNDEFINED> instruction: 0x1600009e
    1750:	03055101 	movweq	r5, #20737	; 0x5101
    1754:	00009e90 	muleq	r0, r0, lr
    1758:	05500116 	ldrbeq	r0, [r0, #-278]	; 0x116
    175c:	009e7c03 	addseq	r7, lr, r3, lsl #24
    1760:	7d021600 	stcvc	6, cr1, [r2, #-0]
    1764:	cc030500 	cfstr32gt	mvfx0, [r3], {-0}
    1768:	0000009e 	muleq	r0, lr, r0
    176c:	008a0414 	addeq	r0, sl, r4, lsl r4
    1770:	00069d00 	andeq	r9, r6, r0, lsl #26
    1774:	251b0000 	ldrcs	r0, [fp, #-0]
    1778:	a1000000 	mrsge	r0, (UNDEF: 0)
    177c:	1c000003 	stcne	0, cr0, [r0], {3}
    1780:	00000025 	andeq	r0, r0, r5, lsr #32
    1784:	92040500 	andls	r0, r4, #0, 10
    1788:	1b000003 	blne	179c <_start-0x6864>
    178c:	00000025 	andeq	r0, r0, r5, lsr #32
    1790:	000003b6 			; <UNDEFINED> instruction: 0x000003b6
    1794:	0000811c 	andeq	r8, r0, ip, lsl r1
    1798:	04050000 	streq	r0, [r5], #-0
    179c:	000003a7 	andeq	r0, r0, r7, lsr #7
    17a0:	00007a18 	andeq	r7, r0, r8, lsl sl
    17a4:	0003cc00 	andeq	ip, r3, r0, lsl #24
    17a8:	006b1900 	rsbeq	r1, fp, r0, lsl #18
    17ac:	000e0000 	andeq	r0, lr, r0
    17b0:	0003bc06 	andeq	fp, r3, r6, lsl #24
    17b4:	032a1d00 	teqeq	sl, #0, 26
    17b8:	7d010000 	stcvc	0, cr0, [r1, #-0]
    17bc:	00000025 	andeq	r0, r0, r5, lsr #32
    17c0:	00008a38 	andeq	r8, r0, r8, lsr sl
    17c4:	00000294 	muleq	r0, r4, r2
    17c8:	06459c01 	strbeq	r9, [r5], -r1, lsl #24
    17cc:	620b0000 	andvs	r0, fp, #0
    17d0:	01006675 	tsteq	r0, r5, ror r6
    17d4:	0000747d 	andeq	r7, r0, sp, ror r4
    17d8:	000f0900 	andeq	r0, pc, r0, lsl #18
    17dc:	006e0b00 	rsbeq	r0, lr, r0, lsl #22
    17e0:	00257d01 	eoreq	r7, r5, r1, lsl #26
    17e4:	0f350000 	svceq	0x00350000
    17e8:	660b0000 	strvs	r0, [fp], -r0
    17ec:	0100746d 	tsteq	r0, sp, ror #8
    17f0:	0000817d 	andeq	r8, r0, sp, ror r1
    17f4:	000f6300 	andeq	r6, pc, r0, lsl #6
    17f8:	03820d00 	orreq	r0, r2, #0, 26
    17fc:	7d010000 	stcvc	0, cr0, [r1, #-0]
    1800:	000000ae 	andeq	r0, r0, lr, lsr #1
    1804:	00000f97 	muleq	r0, r7, pc	; <UNPREDICTABLE>
    1808:	01007010 	tsteq	r0, r0, lsl r0
    180c:	0000747e 	andeq	r7, r0, lr, ror r4
    1810:	000faa00 	andeq	sl, pc, r0, lsl #20
    1814:	00651000 	rsbeq	r1, r5, r0
    1818:	00747e01 	rsbseq	r7, r4, r1, lsl #28
    181c:	10280000 	eorne	r0, r8, r0
    1820:	71110000 	tstvc	r1, r0
    1824:	55000001 	strpl	r0, [r0, #-1]
    1828:	05000006 	streq	r0, [r0, #-6]
    182c:	009e7003 	addseq	r7, lr, r3
    1830:	02581e00 	subseq	r1, r8, #0, 28
    1834:	73100000 	tstvc	r0, #0
    1838:	748b0100 	strvc	r0, [fp], #256	; 0x100
    183c:	4f000000 	svcmi	0x00000000
    1840:	0f000010 	svceq	0x00000010
    1844:	006d756e 	rsbeq	r7, sp, lr, ror #10
    1848:	065a8b01 	ldrbeq	r8, [sl], -r1, lsl #22
    184c:	91030000 	mrsls	r0, (UNDEF: 3)
    1850:	2b137ed8 	blcs	4e13b8 <__bss_end__+0x4d6f18>
    1854:	01000004 	tsteq	r0, r4
    1858:	00002c8c 	andeq	r2, r0, ip, lsl #25
    185c:	0010a400 	andseq	sl, r0, r0, lsl #8
    1860:	8abc1500 	bhi	fef06c68 <__bss_end__+0xfeefc7c8>
    1864:	00b90000 	adcseq	r0, r9, r0
    1868:	04910000 	ldreq	r0, [r1], #0
    186c:	01160000 	tsteq	r6, r0
    1870:	00750250 	rsbseq	r0, r5, r0, asr r2
    1874:	8ad01400 	bhi	ff40687c <__bss_end__+0xff3fc3dc>
    1878:	06800000 	streq	r0, [r0], r0
    187c:	ec150000 	ldc	0, cr0, [r5], {-0}
    1880:	8700008a 	strhi	r0, [r0, -sl, lsl #1]
    1884:	d3000006 	movwle	r0, #6
    1888:	16000004 	strne	r0, [r0], -r4
    188c:	08025301 	stmdaeq	r2, {r0, r8, r9, ip, lr}
    1890:	52011692 	andpl	r1, r1, #153092096	; 0x9200000
    1894:	9e700305 	cdpls	3, 7, cr0, cr0, cr5, {0}
    1898:	01160000 	tsteq	r6, r0
    189c:	90030551 	andls	r0, r3, r1, asr r5
    18a0:	1600009e 			; <UNDEFINED> instruction: 0x1600009e
    18a4:	03055001 	movweq	r5, #20481	; 0x5001
    18a8:	00009e7c 	andeq	r9, r0, ip, ror lr
    18ac:	007d0216 	rsbseq	r0, sp, r6, lsl r2
    18b0:	9ed40305 	cdpls	3, 13, cr0, cr4, cr5, {0}
    18b4:	14000000 	strne	r0, [r0], #-0
    18b8:	00008af0 	strdeq	r8, [r0], -r0
    18bc:	0000069d 	muleq	r0, sp, r6
    18c0:	008b6014 	addeq	r6, fp, r4, lsl r0
    18c4:	00068000 	andeq	r8, r6, r0
    18c8:	8b741500 	blhi	1d06cd0 <__bss_end__+0x1cfc830>
    18cc:	06870000 	streq	r0, [r7], r0
    18d0:	05140000 	ldreq	r0, [r4, #-0]
    18d4:	01160000 	tsteq	r6, r0
    18d8:	98080253 	stmdals	r8, {r0, r1, r4, r6, r9}
    18dc:	05520116 	ldrbeq	r0, [r2, #-278]	; 0x116
    18e0:	009e7003 	addseq	r7, lr, r3
    18e4:	51011600 	tstpl	r1, r0, lsl #12
    18e8:	9e900305 	cdpls	3, 9, cr0, cr0, cr5, {0}
    18ec:	01160000 	tsteq	r6, r0
    18f0:	e0030550 	and	r0, r3, r0, asr r5
    18f4:	0000009e 	muleq	r0, lr, r0
    18f8:	008b7814 	addeq	r7, fp, r4, lsl r8
    18fc:	00069d00 	andeq	r9, r6, r0, lsl #26
    1900:	8b9c1500 	blhi	fe706d08 <__bss_end__+0xfe6fc868>
    1904:	019c0000 	orrseq	r0, ip, r0
    1908:	054a0000 	strbeq	r0, [sl, #-0]
    190c:	01160000 	tsteq	r6, r0
    1910:	80080252 	andhi	r0, r8, r2, asr r2
    1914:	03510116 	cmpeq	r1, #-2147483643	; 0x80000005
    1918:	167ed091 			; <UNDEFINED> instruction: 0x167ed091
    191c:	3a015001 	bcc	55928 <__bss_end__+0x4b488>
    1920:	047d0216 	ldrbteq	r0, [sp], #-534	; 0x216
    1924:	02163101 	andseq	r3, r6, #1073741824	; 0x40000000
    1928:	7702007d 	smlsdxvc	r2, sp, r0, r0
    192c:	c0150000 	andsgt	r0, r5, r0
    1930:	9c00008b 	stcls	0, cr0, [r0], {139}	; 0x8b
    1934:	78000001 	stmdavc	r0, {r0}
    1938:	16000005 	strne	r0, [r0], -r5
    193c:	08025201 	stmdaeq	r2, {r0, r9, ip, lr}
    1940:	51011680 	smlabbpl	r1, r0, r6, r1
    1944:	7ed09103 	atnvcs	f1, f3
    1948:	01500116 	cmpeq	r0, r6, lsl r1
    194c:	7d02163a 	stcvc	6, cr1, [r2, #-232]	; 0xffffff18
    1950:	007b0204 	rsbseq	r0, fp, r4, lsl #4
    1954:	007d0216 	rsbseq	r0, sp, r6, lsl r2
    1958:	00007702 	andeq	r7, r0, r2, lsl #14
    195c:	008be415 	addeq	lr, fp, r5, lsl r4
    1960:	00019c00 	andeq	r9, r1, r0, lsl #24
    1964:	0005a600 	andeq	sl, r5, r0, lsl #12
    1968:	52011600 	andpl	r1, r1, #0, 12
    196c:	16800802 	strne	r0, [r0], r2, lsl #16
    1970:	91035101 	tstls	r3, r1, lsl #2
    1974:	01167ed0 			; <UNDEFINED> instruction: 0x01167ed0
    1978:	16400150 			; <UNDEFINED> instruction: 0x16400150
    197c:	02047d02 	andeq	r7, r4, #2, 26	; 0x80
    1980:	0216007b 	andseq	r0, r6, #123	; 0x7b
    1984:	7702007d 	smlsdxvc	r2, sp, r0, r0
    1988:	08150000 	ldmdaeq	r5, {}	; <UNPREDICTABLE>
    198c:	9c00008c 	stcls	0, cr0, [r0], {140}	; 0x8c
    1990:	d4000001 	strle	r0, [r0], #-1
    1994:	16000005 	strne	r0, [r0], -r5
    1998:	08025201 	stmdaeq	r2, {r0, r9, ip, lr}
    199c:	51011680 	smlabbpl	r1, r0, r6, r1
    19a0:	7ed09103 	atnvcs	f1, f3
    19a4:	01500116 	cmpeq	r0, r6, lsl r1
    19a8:	7d021632 	stcvc	6, cr1, [r2, #-200]	; 0xffffff38
    19ac:	007b0204 	rsbseq	r0, fp, r4, lsl #4
    19b0:	007d0216 	rsbseq	r0, sp, r6, lsl r2
    19b4:	00007702 	andeq	r7, r0, r2, lsl #14
    19b8:	008c3815 	addeq	r3, ip, r5, lsl r8
    19bc:	00019c00 	andeq	r9, r1, r0, lsl #24
    19c0:	00060200 	andeq	r0, r6, r0, lsl #4
    19c4:	52011600 	andpl	r1, r1, #0, 12
    19c8:	16800802 	strne	r0, [r0], r2, lsl #16
    19cc:	91035101 	tstls	r3, r1, lsl #2
    19d0:	01167ed0 			; <UNDEFINED> instruction: 0x01167ed0
    19d4:	16380150 			; <UNDEFINED> instruction: 0x16380150
    19d8:	02047d02 	andeq	r7, r4, #2, 26	; 0x80
    19dc:	0216007b 	andseq	r0, r6, #123	; 0x7b
    19e0:	7702007d 	smlsdxvc	r2, sp, r0, r0
    19e4:	40140000 	andsmi	r0, r4, r0
    19e8:	8000008c 	andhi	r0, r0, ip, lsl #1
    19ec:	15000006 	strne	r0, [r0, #-6]
    19f0:	00008c5c 	andeq	r8, r0, ip, asr ip
    19f4:	00000687 	andeq	r0, r0, r7, lsl #13
    19f8:	0000063a 	andeq	r0, r0, sl, lsr r6
    19fc:	02530116 	subseq	r0, r3, #-2147483643	; 0x80000005
    1a00:	0116b908 	tsteq	r6, r8, lsl #18
    1a04:	70030552 	andvc	r0, r3, r2, asr r5
    1a08:	1600009e 			; <UNDEFINED> instruction: 0x1600009e
    1a0c:	03055101 	movweq	r5, #20737	; 0x5101
    1a10:	00009e90 	muleq	r0, r0, lr
    1a14:	05500116 	ldrbeq	r0, [r0, #-278]	; 0x116
    1a18:	009f0803 	addseq	r0, pc, r3, lsl #16
    1a1c:	60140000 	andsvs	r0, r4, r0
    1a20:	9d00008c 	stcls	0, cr0, [r0, #-560]	; 0xfffffdd0
    1a24:	00000006 	andeq	r0, r0, r6
    1a28:	007a1800 	rsbseq	r1, sl, r0, lsl #16
    1a2c:	06550000 	ldrbeq	r0, [r5], -r0
    1a30:	6b190000 	blvs	641a38 <__bss_end__+0x637598>
    1a34:	09000000 	stmdbeq	r0, {}	; <UNPREDICTABLE>
    1a38:	06450600 	strbeq	r0, [r5], -r0, lsl #12
    1a3c:	7a180000 	bvc	601a44 <__bss_end__+0x5f75a4>
    1a40:	6a000000 	bvs	1a48 <_start-0x65b8>
    1a44:	19000006 	stmdbne	r0, {r1, r2}
    1a48:	0000006b 	andeq	r0, r0, fp, rrx
    1a4c:	9d1f007f 	ldcls	0, cr0, [pc, #-508]	; 1858 <_start-0x67a8>
    1a50:	03000003 	movweq	r0, #3
    1a54:	0003a11d 	andeq	sl, r3, sp, lsl r1
    1a58:	03da1f00 	bicseq	r1, sl, #0, 30
    1a5c:	22030000 	andcs	r0, r3, #0
    1a60:	000003b6 			; <UNDEFINED> instruction: 0x000003b6
    1a64:	00012e20 	andeq	r2, r1, r0, lsr #28
    1a68:	211e0300 	tstcs	lr, r0, lsl #6
    1a6c:	0000032d 	andeq	r0, r0, sp, lsr #6
    1a70:	00252903 	eoreq	r2, r5, r3, lsl #18
    1a74:	069d0000 	ldreq	r0, [sp], r0
    1a78:	811c0000 	tsthi	ip, r0
    1a7c:	22000000 	andcs	r0, r0, #0
    1a80:	01ad2000 			; <UNDEFINED> instruction: 0x01ad2000
    1a84:	66030000 	strvs	r0, [r3], -r0
    1a88:	0000b800 	andeq	fp, r0, r0, lsl #16
    1a8c:	08000400 	stmdaeq	r0, {sl}
    1a90:	04000007 	streq	r0, [r0], #-7
    1a94:	0002d301 	andeq	sp, r2, r1, lsl #6
    1a98:	044c0100 	strbeq	r0, [ip], #-256	; 0x100
    1a9c:	033e0000 	teqeq	lr, #0
    1aa0:	8ccc0000 	stclhi	0, cr0, [ip], {0}
    1aa4:	00200000 	eoreq	r0, r0, r0
    1aa8:	07020000 	streq	r0, [r2, -r0]
    1aac:	04020000 	streq	r0, [r2], #-0
    1ab0:	746e6905 	strbtvc	r6, [lr], #-2309	; 0x905
    1ab4:	07040300 	streq	r0, [r4, -r0, lsl #6]
    1ab8:	0000004d 	andeq	r0, r0, sp, asr #32
    1abc:	26060103 	strcs	r0, [r6], -r3, lsl #2
    1ac0:	03000002 	movweq	r0, #2
    1ac4:	02320502 	eorseq	r0, r2, #8388608	; 0x800000
    1ac8:	04030000 	streq	r0, [r3], #-0
    1acc:	00007c05 	andeq	r7, r0, r5, lsl #24
    1ad0:	05080300 	streq	r0, [r8, #-768]	; 0x300
    1ad4:	00000077 	andeq	r0, r0, r7, ror r0
    1ad8:	24080103 	strcs	r0, [r8], #-259	; 0x103
    1adc:	03000002 	movweq	r0, #2
    1ae0:	017e0702 	cmneq	lr, r2, lsl #14
    1ae4:	04030000 	streq	r0, [r3], #-0
    1ae8:	00004807 	andeq	r4, r0, r7, lsl #16
    1aec:	07080300 	streq	r0, [r8, -r0, lsl #6]
    1af0:	00000043 	andeq	r0, r0, r3, asr #32
    1af4:	c0070403 	andgt	r0, r7, r3, lsl #8
    1af8:	03000001 	movweq	r0, #1
    1afc:	022d0801 	eoreq	r0, sp, #65536	; 0x10000
    1b00:	8f040000 	svchi	0x00040000
    1b04:	01000002 	tsteq	r0, r2
    1b08:	008ccc03 	addeq	ip, ip, r3, lsl #24
    1b0c:	00001000 	andeq	r1, r0, r0
    1b10:	9c9c0100 	ldflss	f0, [ip], {0}
    1b14:	05000000 	streq	r0, [r0, #-0]
    1b18:	04010072 	streq	r0, [r1], #-114	; 0x72
    1b1c:	0000002c 	andeq	r0, r0, ip, lsr #32
    1b20:	000010ce 	andeq	r1, r0, lr, asr #1
    1b24:	043e0600 	ldrteq	r0, [lr], #-1536	; 0x600
    1b28:	0c010000 	stceq	0, cr0, [r1], {-0}
    1b2c:	00008cdc 	ldrdeq	r8, [r0], -ip
    1b30:	00000010 	andeq	r0, r0, r0, lsl r0
    1b34:	72059c01 	andvc	r9, r5, #256	; 0x100
    1b38:	2c0d0100 	stfcss	f0, [sp], {-0}
    1b3c:	f2000000 	vhadd.s8	d0, d0, d0
    1b40:	00000010 	andeq	r0, r0, r0, lsl r0
    1b44:	0000ff00 	andeq	pc, r0, r0, lsl #30
    1b48:	73000400 	movwvc	r0, #1024	; 0x400
    1b4c:	04000007 	streq	r0, [r0], #-7
    1b50:	0002d301 	andeq	sp, r2, r1, lsl #6
    1b54:	046a0100 	strbteq	r0, [sl], #-256	; 0x100
    1b58:	033e0000 	teqeq	lr, #0
    1b5c:	8cec0000 	stclhi	0, cr0, [ip]
    1b60:	00280000 	eoreq	r0, r8, r0
    1b64:	07490000 	strbeq	r0, [r9, -r0]
    1b68:	04020000 	streq	r0, [r2], #-0
    1b6c:	746e6905 	strbtvc	r6, [lr], #-2309	; 0x905
    1b70:	07040300 	streq	r0, [r4, -r0, lsl #6]
    1b74:	0000004d 	andeq	r0, r0, sp, asr #32
    1b78:	26060103 	strcs	r0, [r6], -r3, lsl #2
    1b7c:	03000002 	movweq	r0, #2
    1b80:	02320502 	eorseq	r0, r2, #8388608	; 0x800000
    1b84:	04030000 	streq	r0, [r3], #-0
    1b88:	00007c05 	andeq	r7, r0, r5, lsl #24
    1b8c:	05080300 	streq	r0, [r8, #-768]	; 0x300
    1b90:	00000077 	andeq	r0, r0, r7, ror r0
    1b94:	24080103 	strcs	r0, [r8], #-259	; 0x103
    1b98:	03000002 	movweq	r0, #2
    1b9c:	017e0702 	cmneq	lr, r2, lsl #14
    1ba0:	04030000 	streq	r0, [r3], #-0
    1ba4:	00004807 	andeq	r4, r0, r7, lsl #16
    1ba8:	07080300 	streq	r0, [r8, -r0, lsl #6]
    1bac:	00000043 	andeq	r0, r0, r3, asr #32
    1bb0:	c0070403 	andgt	r0, r7, r3, lsl #8
    1bb4:	03000001 	movweq	r0, #1
    1bb8:	022d0801 	eoreq	r0, sp, #65536	; 0x10000
    1bbc:	04040000 	streq	r0, [r4], #-0
    1bc0:	0000007f 	andeq	r0, r0, pc, ror r0
    1bc4:	00007205 	andeq	r7, r0, r5, lsl #4
    1bc8:	01ad0600 			; <UNDEFINED> instruction: 0x01ad0600
    1bcc:	04010000 	streq	r0, [r1], #-0
    1bd0:	00008cec 	andeq	r8, r0, ip, ror #25
    1bd4:	00000028 	andeq	r0, r0, r8, lsr #32
    1bd8:	00ca9c01 	sbceq	r9, sl, r1, lsl #24
    1bdc:	00070000 	andeq	r0, r7, r0
    1be0:	ac00008d 	stcge	0, cr0, [r0], {141}	; 0x8d
    1be4:	08000000 	stmdaeq	r0, {}	; <UNPREDICTABLE>
    1be8:	03055001 	movweq	r5, #20481	; 0x5001
    1bec:	00009f40 	andeq	r9, r0, r0, asr #30
    1bf0:	8d080900 	stchi	9, cr0, [r8, #-0]
    1bf4:	00ea0000 	rsceq	r0, sl, r0
    1bf8:	00c00000 	sbceq	r0, r0, r0
    1bfc:	01080000 	mrseq	r0, (UNDEF: 8)
    1c00:	64080250 	strvs	r0, [r8], #-592	; 0x250
    1c04:	8d0c0a00 	vstrhi	s0, [ip, #-0]
    1c08:	00fb0000 	rscseq	r0, fp, r0
    1c0c:	0b000000 	bleq	1c14 <_start-0x63ec>
    1c10:	00000025 	andeq	r0, r0, r5, lsr #32
    1c14:	000000d9 	ldrdeq	r0, [r0], -r9
    1c18:	0000790c 	andeq	r7, r0, ip, lsl #18
    1c1c:	da0d0000 	ble	341c24 <__bss_end__+0x337784>
    1c20:	02000003 	andeq	r0, r0, #3
    1c24:	0000e422 	andeq	lr, r0, r2, lsr #8
    1c28:	ca040400 	bgt	102c30 <__bss_end__+0xf8790>
    1c2c:	0e000000 	cdpeq	0, 0, cr0, cr0, cr0, {0}
    1c30:	00000243 	andeq	r0, r0, r3, asr #4
    1c34:	00fb5002 	rscseq	r5, fp, r2
    1c38:	2c0c0000 	stccs	0, cr0, [ip], {-0}
    1c3c:	00000000 	andeq	r0, r0, r0
    1c40:	00045f0f 	andeq	r5, r4, pc, lsl #30
    1c44:	00630200 	rsbeq	r0, r3, r0, lsl #4
    1c48:	000002dd 	ldrdeq	r0, [r0], -sp
    1c4c:	083d0004 	ldmdaeq	sp!, {r2}
    1c50:	01040000 	mrseq	r0, (UNDEF: 4)
    1c54:	000002d3 	ldrdeq	r0, [r0], -r3
    1c58:	00055e01 	andeq	r5, r5, r1, lsl #28
    1c5c:	00033e00 	andeq	r3, r3, r0, lsl #28
    1c60:	008d1400 	addeq	r1, sp, r0, lsl #8
    1c64:	0000b000 	andeq	fp, r0, r0
    1c68:	0007e000 	andeq	lr, r7, r0
    1c6c:	05040200 	streq	r0, [r4, #-512]	; 0x200
    1c70:	00746e69 	rsbseq	r6, r4, r9, ror #28
    1c74:	4d070403 	cfstrsmi	mvf0, [r7, #-12]
    1c78:	03000000 	movweq	r0, #0
    1c7c:	02260601 	eoreq	r0, r6, #1048576	; 0x100000
    1c80:	02030000 	andeq	r0, r3, #0
    1c84:	00023205 	andeq	r3, r2, r5, lsl #4
    1c88:	05040300 	streq	r0, [r4, #-768]	; 0x300
    1c8c:	0000007c 	andeq	r0, r0, ip, ror r0
    1c90:	77050803 	strvc	r0, [r5, -r3, lsl #16]
    1c94:	04000000 	streq	r0, [r0], #-0
    1c98:	0000029c 	muleq	r0, ip, r2
    1c9c:	005a2e02 	subseq	r2, sl, r2, lsl #28
    1ca0:	01030000 	mrseq	r0, (UNDEF: 3)
    1ca4:	00022408 	andeq	r2, r2, r8, lsl #8
    1ca8:	07020300 	streq	r0, [r2, -r0, lsl #6]
    1cac:	0000017e 	andeq	r0, r0, lr, ror r1
    1cb0:	00057e04 	andeq	r7, r5, r4, lsl #28
    1cb4:	73340200 	teqvc	r4, #0, 4
    1cb8:	03000000 	movweq	r0, #0
    1cbc:	00480704 	subeq	r0, r8, r4, lsl #14
    1cc0:	08030000 	stmdaeq	r3, {}	; <UNPREDICTABLE>
    1cc4:	00004307 	andeq	r4, r0, r7, lsl #6
    1cc8:	07040300 	streq	r0, [r4, -r0, lsl #6]
    1ccc:	000001c0 	andeq	r0, r0, r0, asr #3
    1cd0:	2d080103 	stfcss	f0, [r8, #-12]
    1cd4:	05000002 	streq	r0, [r0, #-2]
    1cd8:	00009504 	andeq	r9, r0, r4, lsl #10
    1cdc:	00880600 	addeq	r0, r8, r0, lsl #12
    1ce0:	0c070000 	stceq	0, cr0, [r7], {-0}
    1ce4:	00d10e03 	sbcseq	r0, r1, r3, lsl #28
    1ce8:	74080000 	strvc	r0, [r8], #-0
    1cec:	0f030078 	svceq	0x00030078
    1cf0:	0000004f 	andeq	r0, r0, pc, asr #32
    1cf4:	78720800 	ldmdavc	r2!, {fp}^
    1cf8:	4f0f0300 	svcmi	0x000f0300
    1cfc:	01000000 	mrseq	r0, (UNDEF: 0)
    1d00:	0004fd09 	andeq	pc, r4, r9, lsl #26
    1d04:	68100300 	ldmdavs	r0, {r8, r9}
    1d08:	04000000 	streq	r0, [r0], #-0
    1d0c:	0004ae09 	andeq	sl, r4, r9, lsl #28
    1d10:	68110300 	ldmdavs	r1, {r8, r9}
    1d14:	08000000 	stmdaeq	r0, {}	; <UNPREDICTABLE>
    1d18:	04e60400 	strbteq	r0, [r6], #1024	; 0x400
    1d1c:	12030000 	andne	r0, r3, #0
    1d20:	0000009a 	muleq	r0, sl, r0
    1d24:	1004010a 	andne	r0, r4, sl, lsl #2
    1d28:	000000f7 	strdeq	r0, [r0], -r7
    1d2c:	0005020b 	andeq	r0, r5, fp, lsl #4
    1d30:	f00b0100 			; <UNDEFINED> instruction: 0xf00b0100
    1d34:	02000004 	andeq	r0, r0, #4
    1d38:	0004d80b 	andeq	sp, r4, fp, lsl #16
    1d3c:	04000300 	streq	r0, [r0], #-768	; 0x300
    1d40:	00000517 	andeq	r0, r0, r7, lsl r5
    1d44:	00dc1004 	sbcseq	r1, ip, r4
    1d48:	14070000 	strne	r0, [r7], #-0
    1d4c:	012f1404 	teqeq	pc, r4, lsl #8
    1d50:	87090000 	strhi	r0, [r9, -r0]
    1d54:	04000005 	streq	r0, [r0], #-5
    1d58:	00002c15 	andeq	r2, r0, r5, lsl ip
    1d5c:	72090000 	andvc	r0, r9, #0
    1d60:	04000005 	streq	r0, [r0], #-5
    1d64:	0000f718 	andeq	pc, r0, r8, lsl r7	; <UNPREDICTABLE>
    1d68:	3d090400 	cfstrscc	mvf0, [r9, #-0]
    1d6c:	04000005 	streq	r0, [r0], #-5
    1d70:	0000d11b 	andeq	sp, r0, fp, lsl r1
    1d74:	04000800 	streq	r0, [r0], #-2048	; 0x800
    1d78:	0000052f 	andeq	r0, r0, pc, lsr #10
    1d7c:	01022004 	tsteq	r2, r4
    1d80:	840c0000 	strhi	r0, [ip], #-0
    1d84:	01000004 	tsteq	r0, r4
    1d88:	00002506 	andeq	r2, r0, r6, lsl #10
    1d8c:	008d1400 	addeq	r1, sp, r0, lsl #8
    1d90:	00002000 	andeq	r2, r0, r0
    1d94:	7a9c0100 	bvc	fe70219c <__bss_end__+0xfe6f7cfc>
    1d98:	0d000001 	stceq	0, cr0, [r0, #-4]
    1d9c:	06010063 	streq	r0, [r1], -r3, rrx
    1da0:	00000025 	andeq	r0, r0, r5, lsr #32
    1da4:	00001116 	andeq	r1, r0, r6, lsl r1
    1da8:	008d280e 	addeq	r2, sp, lr, lsl #16
    1dac:	00027a00 	andeq	r7, r2, r0, lsl #20
    1db0:	51010f00 	tstpl	r1, r0, lsl #30
    1db4:	0f007402 	svceq	0x00007402
    1db8:	03055001 	movweq	r5, #20481	; 0x5001
    1dbc:	0000a494 	muleq	r0, r4, r4
    1dc0:	0f100000 	svceq	0x00100000
    1dc4:	01000005 	tsteq	r0, r5
    1dc8:	008d340b 	addeq	r3, sp, fp, lsl #8
    1dcc:	00009000 	andeq	r9, r0, r0
    1dd0:	279c0100 	ldrcs	r0, [ip, r0, lsl #2]
    1dd4:	11000002 	tstne	r0, r2
    1dd8:	00000498 	muleq	r0, r8, r4
    1ddc:	00250c01 	eoreq	r0, r5, r1, lsl #24
    1de0:	52110000 	andspl	r0, r1, #0
    1de4:	01000005 	tsteq	r0, r5
    1de8:	0000250c 	andeq	r2, r0, ip, lsl #10
    1dec:	00b11200 	adcseq	r1, r1, r0, lsl #4
    1df0:	0d010000 	stceq	0, cr0, [r1, #-0]
    1df4:	73736213 	cmnvc	r3, #805306369	; 0x30000001
    1df8:	270f0100 	strcs	r0, [pc, -r0, lsl #2]
    1dfc:	34000002 	strcc	r0, [r0], #-2
    1e00:	14000011 	strne	r0, [r0], #-17
    1e04:	000004a6 	andeq	r0, r0, r6, lsr #9
    1e08:	02271001 	eoreq	r1, r7, #1
    1e0c:	63130000 	tstvs	r3, #0
    1e10:	17010062 	strne	r0, [r1, -r2, rrx]
    1e14:	0000022d 	andeq	r0, r0, sp, lsr #4
    1e18:	00001154 	andeq	r1, r0, r4, asr r1
    1e1c:	008d5c15 	addeq	r5, sp, r5, lsl ip
    1e20:	00029600 	andeq	r9, r2, r0, lsl #12
    1e24:	8d981600 	ldchi	6, cr1, [r8]
    1e28:	02a10000 	adceq	r0, r1, #0
    1e2c:	01fd0000 	mvnseq	r0, r0
    1e30:	010f0000 	mrseq	r0, CPSR
    1e34:	4c030551 	cfstr32mi	mvfx0, [r3], {81}	; 0x51
    1e38:	0f00009f 	svceq	0x0000009f
    1e3c:	03055001 	movweq	r5, #20481	; 0x5001
    1e40:	0000a494 	muleq	r0, r4, r4
    1e44:	8da01600 	stchi	6, cr1, [r0]
    1e48:	02bc0000 	adcseq	r0, ip, #0
    1e4c:	02140000 	andseq	r0, r4, #0
    1e50:	010f0000 	mrseq	r0, CPSR
    1e54:	70030550 	andvc	r0, r3, r0, asr r5
    1e58:	0000009f 	muleq	r0, pc, r0	; <UNPREDICTABLE>
    1e5c:	008da415 	addeq	sl, sp, r5, lsl r4
    1e60:	0002d200 	andeq	sp, r2, r0, lsl #4
    1e64:	8da81500 	cfstr32hi	mvfx1, [r8]
    1e68:	02d90000 	sbcseq	r0, r9, #0
    1e6c:	05000000 	streq	r0, [r0, #-0]
    1e70:	00002504 	andeq	r2, r0, r4, lsl #10
    1e74:	2f040500 	svccs	0x00040500
    1e78:	17000001 	strne	r0, [r0, -r1]
    1e7c:	000004bc 			; <UNDEFINED> instruction: 0x000004bc
    1e80:	00d10501 	sbcseq	r0, r1, r1, lsl #10
    1e84:	03050000 	movweq	r0, #20480	; 0x5000
    1e88:	0000a494 	muleq	r0, r4, r4
    1e8c:	00002518 	andeq	r2, r0, r8, lsl r5
    1e90:	00025300 	andeq	r5, r2, r0, lsl #6
    1e94:	00251900 	eoreq	r1, r5, r0, lsl #18
    1e98:	11000000 	mrsne	r0, (UNDEF: 0)
    1e9c:	0000039d 	muleq	r0, sp, r3
    1ea0:	025e1d05 	subseq	r1, lr, #320	; 0x140
    1ea4:	04050000 	streq	r0, [r5], #-0
    1ea8:	00000244 	andeq	r0, r0, r4, asr #4
    1eac:	00049811 	andeq	r9, r4, r1, lsl r8
    1eb0:	250c0100 	strcs	r0, [ip, #-256]	; 0x100
    1eb4:	11000000 	mrsne	r0, (UNDEF: 0)
    1eb8:	00000552 	andeq	r0, r0, r2, asr r5
    1ebc:	00250c01 	eoreq	r0, r5, r1, lsl #24
    1ec0:	221a0000 	andscs	r0, sl, #0
    1ec4:	03000005 	movweq	r0, #5
    1ec8:	00029044 	andeq	r9, r2, r4, asr #32
    1ecc:	02901900 	addseq	r1, r0, #0, 18
    1ed0:	5a190000 	bpl	641ed8 <__bss_end__+0x637a38>
    1ed4:	00000000 	andeq	r0, r0, r0
    1ed8:	00d10405 	sbcseq	r0, r1, r5, lsl #8
    1edc:	451b0000 	ldrmi	r0, [fp, #-0]
    1ee0:	04000005 	streq	r0, [r0], #-5
    1ee4:	00022d2a 	andeq	r2, r2, sl, lsr #26
    1ee8:	04c91c00 	strbeq	r1, [r9], #3072	; 0xc00
    1eec:	15030000 	strne	r0, [r3, #-0]
    1ef0:	00000025 	andeq	r0, r0, r5, lsr #32
    1ef4:	000002bc 			; <UNDEFINED> instruction: 0x000002bc
    1ef8:	00029019 	andeq	r9, r2, r9, lsl r0
    1efc:	008f1900 	addeq	r1, pc, r0, lsl #18
    1f00:	001d0000 	andseq	r0, sp, r0
    1f04:	00032d1c 	andeq	r2, r3, ip, lsl sp
    1f08:	25290500 	strcs	r0, [r9, #-1280]!	; 0x500
    1f0c:	d2000000 	andle	r0, r0, #0
    1f10:	19000002 	stmdbne	r0, {r1}
    1f14:	0000008f 	andeq	r0, r0, pc, lsl #1
    1f18:	b112001d 	tstlt	r2, sp, lsl r0
    1f1c:	05000000 	streq	r0, [r0, #-0]
    1f20:	045f12d1 	ldrbeq	r1, [pc], #-721	; 1f28 <_start-0x60d8>
    1f24:	63050000 	movwvs	r0, #20480	; 0x5000
    1f28:	0001ad00 	andeq	sl, r1, r0, lsl #26
    1f2c:	d4000400 	strle	r0, [r0], #-1024	; 0x400
    1f30:	04000009 	streq	r0, [r0], #-9
    1f34:	0002d301 	andeq	sp, r2, r1, lsl #6
    1f38:	05a70100 	streq	r0, [r7, #256]!	; 0x100
    1f3c:	033e0000 	teqeq	lr, #0
    1f40:	02700000 	rsbseq	r0, r0, #0
    1f44:	00000000 	andeq	r0, r0, r0
    1f48:	09050000 	stmdbeq	r5, {}	; <UNPREDICTABLE>
    1f4c:	04020000 	streq	r0, [r2], #-0
    1f50:	746e6905 	strbtvc	r6, [lr], #-2309	; 0x905
    1f54:	07040300 	streq	r0, [r4, -r0, lsl #6]
    1f58:	0000004d 	andeq	r0, r0, sp, asr #32
    1f5c:	26060103 	strcs	r0, [r6], -r3, lsl #2
    1f60:	03000002 	movweq	r0, #2
    1f64:	02320502 	eorseq	r0, r2, #8388608	; 0x800000
    1f68:	04030000 	streq	r0, [r3], #-0
    1f6c:	00007c05 	andeq	r7, r0, r5, lsl #24
    1f70:	05080300 	streq	r0, [r8, #-768]	; 0x300
    1f74:	00000077 	andeq	r0, r0, r7, ror r0
    1f78:	24080103 	strcs	r0, [r8], #-259	; 0x103
    1f7c:	03000002 	movweq	r0, #2
    1f80:	017e0702 	cmneq	lr, r2, lsl #14
    1f84:	04030000 	streq	r0, [r3], #-0
    1f88:	00004807 	andeq	r4, r0, r7, lsl #16
    1f8c:	07080300 	streq	r0, [r8, -r0, lsl #6]
    1f90:	00000043 	andeq	r0, r0, r3, asr #32
    1f94:	c0070403 	andgt	r0, r7, r3, lsl #8
    1f98:	03000001 	movweq	r0, #1
    1f9c:	022d0801 	eoreq	r0, sp, #65536	; 0x10000
    1fa0:	8d040000 	stchi	0, cr0, [r4, #-0]
    1fa4:	01000005 	tsteq	r0, r5
    1fa8:	0000250e 	andeq	r2, r0, lr, lsl #10
    1fac:	008dc400 	addeq	ip, sp, r0, lsl #8
    1fb0:	00001800 	andeq	r1, r0, r0, lsl #16
    1fb4:	a29c0100 	addsge	r0, ip, #0, 2
    1fb8:	05000000 	streq	r0, [r0, #-0]
    1fbc:	000005f9 	strdeq	r0, [r0], -r9
    1fc0:	002c0f01 	eoreq	r0, ip, r1, lsl #30
    1fc4:	11740000 	cmnne	r4, r0
    1fc8:	06000000 	streq	r0, [r0], -r0
    1fcc:	000005dc 	ldrdeq	r0, [r0], -ip
    1fd0:	8ddc1701 	ldclhi	7, cr1, [ip, #4]
    1fd4:	00140000 	andseq	r0, r4, r0
    1fd8:	9c010000 	stcls	0, cr0, [r1], {-0}
    1fdc:	000000c7 	andeq	r0, r0, r7, asr #1
    1fe0:	0005f905 	andeq	pc, r5, r5, lsl #18
    1fe4:	2c180100 	ldfcss	f0, [r8], {-0}
    1fe8:	93000000 	movwls	r0, #0
    1fec:	00000011 	andeq	r0, r0, r1, lsl r0
    1ff0:	00045f06 	andeq	r5, r4, r6, lsl #30
    1ff4:	f01f0100 			; <UNDEFINED> instruction: 0xf01f0100
    1ff8:	4800008d 	stmdami	r0, {r0, r2, r3, r7}
    1ffc:	01000000 	mrseq	r0, (UNDEF: 0)
    2000:	0001779c 	muleq	r1, ip, r7
    2004:	05f10700 	ldrbeq	r0, [r1, #1792]!	; 0x700
    2008:	2a010000 	bcs	42010 <__bss_end__+0x37b70>
    200c:	00000177 	andeq	r0, r0, r7, ror r1
    2010:	2010001c 	andscs	r0, r0, ip, lsl r0
    2014:	0005d407 	andeq	sp, r5, r7, lsl #8
    2018:	772b0100 	strvc	r0, [fp, -r0, lsl #2]!
    201c:	24000001 	strcs	r0, [r0], #-1
    2020:	07201000 	streq	r1, [r0, -r0]!
    2024:	0000059b 	muleq	r0, fp, r5
    2028:	01772c01 	cmneq	r7, r1, lsl #24
    202c:	00000000 	andeq	r0, r0, r0
    2030:	bb085a00 	bllt	218838 <__bss_end__+0x20e398>
    2034:	01000005 	tsteq	r0, r5
    2038:	0001772d 	andeq	r7, r1, sp, lsr #14
    203c:	f8092000 			; <UNDEFINED> instruction: 0xf8092000
    2040:	7900008d 	stmdbvc	r0, {r0, r2, r3, r7}
    2044:	09000000 	stmdbeq	r0, {}	; <UNPREDICTABLE>
    2048:	00008e04 	andeq	r8, r0, r4, lsl #28
    204c:	000000a2 	andeq	r0, r0, r2, lsr #1
    2050:	008e0c0a 	addeq	r0, lr, sl, lsl #24
    2054:	00018d00 	andeq	r8, r1, r0, lsl #26
    2058:	00013a00 	andeq	r3, r1, r0, lsl #20
    205c:	50010b00 	andpl	r0, r1, r0, lsl #22
    2060:	0a004e01 	beq	1586c <__bss_end__+0xb3cc>
    2064:	00008e18 	andeq	r8, r0, r8, lsl lr
    2068:	0000019e 	muleq	r0, lr, r1
    206c:	0000015a 	andeq	r0, r0, sl, asr r1
    2070:	0551010b 	ldrbeq	r0, [r1, #-267]	; 0x10b
    2074:	0000010c 	andeq	r0, r0, ip, lsl #2
    2078:	50010b5a 	andpl	r0, r1, sl, asr fp
    207c:	00240c05 	eoreq	r0, r4, r5, lsl #24
    2080:	0c002010 	stceq	0, cr2, [r0], {16}
    2084:	00008e24 	andeq	r8, r0, r4, lsr #28
    2088:	0000019e 	muleq	r0, lr, r1
    208c:	0551010b 	ldrbeq	r0, [r1, #-267]	; 0x10b
    2090:	0000200c 	andeq	r2, r0, ip
    2094:	50010b5a 	andpl	r0, r1, sl, asr fp
    2098:	001c0c05 	andseq	r0, ip, r5, lsl #24
    209c:	00002010 	andeq	r2, r0, r0, lsl r0
    20a0:	0000250d 	andeq	r2, r0, sp, lsl #10
    20a4:	05900800 	ldreq	r0, [r0, #2048]	; 0x800
    20a8:	0d010000 	stceq	0, cr0, [r1, #-0]
    20ac:	00000188 	andeq	r0, r0, r8, lsl #3
    20b0:	002c0d10 	eoreq	r0, ip, r0, lsl sp
    20b4:	430e0000 	movwmi	r0, #57344	; 0xe000
    20b8:	02000002 	andeq	r0, r0, #2
    20bc:	00019e50 	andeq	r9, r1, r0, asr lr
    20c0:	002c0f00 	eoreq	r0, ip, r0, lsl #30
    20c4:	10000000 	andne	r0, r0, r0
    20c8:	000005eb 	andeq	r0, r0, fp, ror #11
    20cc:	2c0f9c02 	stccs	12, cr9, [pc], {2}
    20d0:	0f000000 	svceq	0x00000000
    20d4:	0000002c 	andeq	r0, r0, ip, lsr #32
    20d8:	01d80000 	bicseq	r0, r8, r0
    20dc:	00040000 	andeq	r0, r4, r0
    20e0:	00000ac2 	andeq	r0, r0, r2, asr #21
    20e4:	02d30104 	sbcseq	r0, r3, #4, 2
    20e8:	1b010000 	blne	420f0 <__bss_end__+0x37c50>
    20ec:	3e000006 	cdpcc	0, 0, cr0, cr0, cr6, {0}
    20f0:	38000003 	stmdacc	r0, {r0, r1}
    20f4:	8800008e 	stmdahi	r0, {r1, r2, r3, r7}
    20f8:	a2000000 	andge	r0, r0, #0
    20fc:	02000009 	andeq	r0, r0, #9
    2100:	6e690504 	cdpvs	5, 6, cr0, cr9, cr4, {0}
    2104:	04030074 	streq	r0, [r3], #-116	; 0x74
    2108:	00004d07 	andeq	r4, r0, r7, lsl #26
    210c:	06010300 	streq	r0, [r1], -r0, lsl #6
    2110:	00000226 	andeq	r0, r0, r6, lsr #4
    2114:	32050203 	andcc	r0, r5, #805306368	; 0x30000000
    2118:	03000002 	movweq	r0, #2
    211c:	007c0504 	rsbseq	r0, ip, r4, lsl #10
    2120:	08030000 	stmdaeq	r3, {}	; <UNPREDICTABLE>
    2124:	00007705 	andeq	r7, r0, r5, lsl #14
    2128:	08010300 	stmdaeq	r1, {r8, r9}
    212c:	00000224 	andeq	r0, r0, r4, lsr #4
    2130:	7e070203 	cdpvc	2, 0, cr0, cr7, cr3, {0}
    2134:	03000001 	movweq	r0, #1
    2138:	00480704 	subeq	r0, r8, r4, lsl #14
    213c:	08030000 	stmdaeq	r3, {}	; <UNPREDICTABLE>
    2140:	00004307 	andeq	r4, r0, r7, lsl #6
    2144:	07040300 	streq	r0, [r4, -r0, lsl #6]
    2148:	000001c0 	andeq	r0, r0, r0, asr #3
    214c:	2d080103 	stfcss	f0, [r8, #-12]
    2150:	04000002 	streq	r0, [r0], #-2
    2154:	0000063a 	andeq	r0, r0, sl, lsr r6
    2158:	8e380501 	cdphi	5, 3, cr0, cr8, cr1, {0}
    215c:	001c0000 	andseq	r0, ip, r0
    2160:	9c010000 	stcls	0, cr0, [r1], {-0}
    2164:	0000009e 	muleq	r0, lr, r0
    2168:	00063405 	andeq	r3, r6, r5, lsl #8
    216c:	2c050100 	stfcss	f0, [r5], {-0}
    2170:	bd000000 	stclt	0, cr0, [r0, #-0]
    2174:	00000011 	andeq	r0, r0, r1, lsl r0
    2178:	0005fe06 	andeq	pc, r5, r6, lsl #28
    217c:	2c0b0100 	stfcss	f0, [fp], {-0}
    2180:	54000000 	strpl	r0, [r0], #-0
    2184:	1400008e 	strne	r0, [r0], #-142	; 0x8e
    2188:	01000000 	mrseq	r0, (UNDEF: 0)
    218c:	0000cb9c 	muleq	r0, ip, fp
    2190:	8e600700 	cdphi	7, 6, cr0, cr0, cr0, {0}
    2194:	01ca0000 	biceq	r0, sl, r0
    2198:	01080000 	mrseq	r0, (UNDEF: 8)
    219c:	040c0550 	streq	r0, [ip], #-1360	; 0x550
    21a0:	00200030 	eoreq	r0, r0, r0, lsr r0
    21a4:	06500600 	ldrbeq	r0, [r0], -r0, lsl #12
    21a8:	10010000 	andne	r0, r1, r0
    21ac:	0000002c 	andeq	r0, r0, ip, lsr #32
    21b0:	00008e68 	andeq	r8, r0, r8, ror #28
    21b4:	0000000c 	andeq	r0, r0, ip
    21b8:	00f99c01 	rscseq	r9, r9, r1, lsl #24
    21bc:	75090000 	strvc	r0, [r9, #-0]
    21c0:	2c140100 	ldfcss	f0, [r4], {-0}
    21c4:	01000000 	mrseq	r0, (UNDEF: 0)
    21c8:	8e700a50 	mrchi	10, 3, r0, cr0, cr0, {2}
    21cc:	009e0000 	addseq	r0, lr, r0
    21d0:	04000000 	streq	r0, [r0], #-0
    21d4:	00000647 	andeq	r0, r0, r7, asr #12
    21d8:	8e741901 	cdphi	9, 7, cr1, cr4, cr1, {0}
    21dc:	00240000 	eoreq	r0, r4, r0
    21e0:	9c010000 	stcls	0, cr0, [r1], {-0}
    21e4:	00000157 	andeq	r0, r0, r7, asr r1
    21e8:	0073750b 	rsbseq	r7, r3, fp, lsl #10
    21ec:	002c1901 	eoreq	r1, ip, r1, lsl #18
    21f0:	11f10000 	mvnsne	r0, r0
    21f4:	72090000 	andvc	r0, r9, #0
    21f8:	1a010062 	bne	42388 <__bss_end__+0x37ee8>
    21fc:	0000002c 	andeq	r0, r0, ip, lsr #32
    2200:	840c5401 	strhi	r5, [ip], #-1025	; 0x401
    2204:	1000008e 	andne	r0, r0, lr, lsl #1
    2208:	4d000000 	stcmi	0, cr0, [r0, #-0]
    220c:	0d000001 	stceq	0, cr0, [r0, #-4]
    2210:	01006172 	tsteq	r0, r2, ror r1
    2214:	00002c1c 	andeq	r2, r0, ip, lsl ip
    2218:	00120f00 	andseq	r0, r2, r0, lsl #30
    221c:	8e880a00 	vdivhi.f32	s0, s16, s0
    2220:	00cb0000 	sbceq	r0, fp, r0
    2224:	0a000000 	beq	222c <_start-0x5dd4>
    2228:	00008e80 	andeq	r8, r0, r0, lsl #29
    222c:	000000cb 	andeq	r0, r0, fp, asr #1
    2230:	02430400 	subeq	r0, r3, #0, 8
    2234:	22010000 	andcs	r0, r1, #0
    2238:	00008e98 	muleq	r0, r8, lr
    223c:	00000014 	andeq	r0, r0, r4, lsl r0
    2240:	01909c01 	orrseq	r9, r0, r1, lsl #24
    2244:	6d0b0000 	stcvs	0, cr0, [fp, #-0]
    2248:	22010073 	andcs	r0, r1, #115	; 0x73
    224c:	0000002c 	andeq	r0, r0, ip, lsr #32
    2250:	00001222 	andeq	r1, r0, r2, lsr #4
    2254:	008ea807 	addeq	sl, lr, r7, lsl #16
    2258:	0000f900 	andeq	pc, r0, r0, lsl #18
    225c:	50010800 	andpl	r0, r1, r0, lsl #16
    2260:	5001f307 	andpl	pc, r1, r7, lsl #6
    2264:	1e03e80a 	cdpne	8, 0, cr14, cr3, cr10, {0}
    2268:	11040000 	mrsne	r0, (UNDEF: 4)
    226c:	01000006 	tsteq	r0, r6
    2270:	008eac25 	addeq	sl, lr, r5, lsr #24
    2274:	00001400 	andeq	r1, r0, r0, lsl #8
    2278:	ca9c0100 	bgt	fe702680 <__bss_end__+0xfe6f81e0>
    227c:	0b000001 	bleq	2288 <_start-0x5d78>
    2280:	00636573 	rsbeq	r6, r3, r3, ror r5
    2284:	002c2501 	eoreq	r2, ip, r1, lsl #10
    2288:	12430000 	subne	r0, r3, #0
    228c:	bc070000 	stclt	0, cr0, [r7], {-0}
    2290:	5700008e 	strpl	r0, [r0, -lr, lsl #1]
    2294:	08000001 	stmdaeq	r0, {r0}
    2298:	f3075001 	vhadd.u8	d5, d7, d1
    229c:	e80a5001 	stmda	sl, {r0, ip, lr}
    22a0:	00001e03 	andeq	r1, r0, r3, lsl #28
    22a4:	00062e0e 	andeq	r2, r6, lr, lsl #28
    22a8:	2ca80200 	sfmcs	f0, 4, [r8]
    22ac:	0f000000 	svceq	0x00000000
    22b0:	0000002c 	andeq	r0, r0, ip, lsr #32
    22b4:	08820000 	stmeq	r2, {}	; <UNPREDICTABLE>
    22b8:	00040000 	andeq	r0, r4, r0
    22bc:	00000ba5 	andeq	r0, r0, r5, lsr #23
    22c0:	02d30104 	sbcseq	r0, r3, #4, 2
    22c4:	a3010000 	movwge	r0, #4096	; 0x1000
    22c8:	3e000006 	cdpcc	0, 0, cr0, cr0, cr6, {0}
    22cc:	c0000003 	andgt	r0, r0, r3
    22d0:	a000008e 	andge	r0, r0, lr, lsl #1
    22d4:	49000005 	stmdbmi	r0, {r0, r2}
    22d8:	0200000a 	andeq	r0, r0, #10
    22dc:	00430708 	subeq	r0, r3, r8, lsl #14
    22e0:	04020000 	streq	r0, [r2], #-0
    22e4:	00004d07 	andeq	r4, r0, r7, lsl #26
    22e8:	06010200 	streq	r0, [r1], -r0, lsl #4
    22ec:	00000226 	andeq	r0, r0, r6, lsr #4
    22f0:	32050202 	andcc	r0, r5, #536870912	; 0x20000000
    22f4:	02000002 	andeq	r0, r0, #2
    22f8:	007c0504 	rsbseq	r0, ip, r4, lsl #10
    22fc:	08020000 	stmdaeq	r2, {}	; <UNPREDICTABLE>
    2300:	00007705 	andeq	r7, r0, r5, lsl #14
    2304:	08010200 	stmdaeq	r1, {r9}
    2308:	00000224 	andeq	r0, r0, r4, lsr #4
    230c:	7e070202 	cdpvc	2, 0, cr0, cr7, cr2, {0}
    2310:	02000001 	andeq	r0, r0, #1
    2314:	00480704 	subeq	r0, r8, r4, lsl #14
    2318:	04030000 	streq	r0, [r3], #-0
    231c:	746e6905 	strbtvc	r6, [lr], #-2309	; 0x905
    2320:	07040200 	streq	r0, [r4, -r0, lsl #4]
    2324:	000001c0 	andeq	r0, r0, r0, asr #3
    2328:	2d080102 	stfcss	f0, [r8, #-8]
    232c:	04000002 	streq	r0, [r0], #-2
    2330:	b20c0201 	andlt	r0, ip, #268435456	; 0x10000000
    2334:	05000000 	streq	r0, [r0, #-0]
    2338:	00000693 	muleq	r0, r3, r6
    233c:	076f0500 	strbeq	r0, [pc, -r0, lsl #10]!
    2340:	05010000 	streq	r0, [r1, #-0]
    2344:	000007a8 	andeq	r0, r0, r8, lsr #15
    2348:	07b70504 	ldreq	r0, [r7, r4, lsl #10]!
    234c:	05050000 	streq	r0, [r5, #-0]
    2350:	000007c6 	andeq	r0, r0, r6, asr #15
    2354:	07d50506 	ldrbeq	r0, [r5, r6, lsl #10]
    2358:	05070000 	streq	r0, [r7, #-0]
    235c:	000007e4 	andeq	r0, r0, r4, ror #15
    2360:	07f30503 	ldrbeq	r0, [r3, r3, lsl #10]!
    2364:	00020000 	andeq	r0, r2, r0
    2368:	00079c06 	andeq	r9, r7, r6, lsl #24
    236c:	79150200 	ldmdbvc	r5, {r9}
    2370:	07000000 	streq	r0, [r0, -r0]
    2374:	0000027f 	andeq	r0, r0, pc, ror r2
    2378:	8ec03f01 	cdphi	15, 12, cr3, cr0, cr1, {0}
    237c:	00d40000 	sbcseq	r0, r4, r0
    2380:	9c010000 	stcls	0, cr0, [r1], {-0}
    2384:	00000133 	andeq	r0, r0, r3, lsr r1
    2388:	6e697008 	cdpvs	0, 6, cr7, cr9, cr8, {0}
    238c:	2c3f0100 	ldfcss	f0, [pc], #-0	; 2394 <_start-0x5c6c>
    2390:	64000000 	strvs	r0, [r0], #-0
    2394:	09000012 	stmdbeq	r0, {r1, r4}
    2398:	000006c3 	andeq	r0, r0, r3, asr #13
    239c:	01334701 	teqeq	r3, r1, lsl #14
    23a0:	12820000 	addne	r0, r2, #0
    23a4:	02090000 	andeq	r0, r9, #0
    23a8:	01000008 	tsteq	r0, r8
    23ac:	00002c49 	andeq	r2, r0, r9, asr #24
    23b0:	0012d700 	andseq	sp, r2, r0, lsl #14
    23b4:	073a0900 	ldreq	r0, [sl, -r0, lsl #18]!
    23b8:	57010000 	strpl	r0, [r1, -r0]
    23bc:	0000002c 	andeq	r0, r0, ip, lsr #32
    23c0:	000014a3 	andeq	r1, r0, r3, lsr #9
    23c4:	008f540a 	addeq	r5, pc, sl, lsl #8
    23c8:	00084100 	andeq	r4, r8, r0, lsl #2
    23cc:	00012200 	andeq	r2, r1, r0, lsl #4
    23d0:	50010b00 	andpl	r0, r1, r0, lsl #22
    23d4:	00007502 	andeq	r7, r0, r2, lsl #10
    23d8:	008f880c 	addeq	r8, pc, ip, lsl #16
    23dc:	00086200 	andeq	r6, r8, r0, lsl #4
    23e0:	50010b00 	andpl	r0, r1, r0, lsl #22
    23e4:	00007502 	andeq	r7, r0, r2, lsl #10
    23e8:	39040d00 	stmdbcc	r4, {r8, sl, fp}
    23ec:	0e000001 	cdpeq	0, 0, cr0, cr0, cr1, {0}
    23f0:	0000002c 	andeq	r0, r0, ip, lsr #32
    23f4:	00005f07 	andeq	r5, r0, r7, lsl #30
    23f8:	94600100 	strbtls	r0, [r0], #-256	; 0x100
    23fc:	3800008f 	stmdacc	r0, {r0, r1, r2, r3, r7}
    2400:	01000000 	mrseq	r0, (UNDEF: 0)
    2404:	0001969c 	muleq	r1, ip, r6
    2408:	69700800 	ldmdbvs	r0!, {fp}^
    240c:	6001006e 	andvs	r0, r1, lr, rrx
    2410:	0000002c 	andeq	r0, r0, ip, lsr #32
    2414:	000014d3 	ldrdeq	r1, [r0], -r3
    2418:	0006c309 	andeq	ip, r6, r9, lsl #6
    241c:	33670100 	cmncc	r7, #0, 2
    2420:	f4000001 	vst4.8	{d0-d3}, [r0], r1
    2424:	09000014 	stmdbeq	r0, {r2, r4}
    2428:	0000073a 	andeq	r0, r0, sl, lsr r7
    242c:	002c6801 	eoreq	r6, ip, r1, lsl #16
    2430:	152a0000 	strne	r0, [sl, #-0]!
    2434:	c40c0000 	strgt	r0, [ip], #-0
    2438:	6200008f 	andvs	r0, r0, #143	; 0x8f
    243c:	0b000008 	bleq	2464 <_start-0x5b9c>
    2440:	31075101 	tstcc	r7, r1, lsl #2
    2444:	4f5001f3 	svcmi	0x005001f3
    2448:	0000241a 	andeq	r2, r0, sl, lsl r4
    244c:	0000be07 	andeq	fp, r0, r7, lsl #28
    2450:	cc7b0100 	ldfgte	f0, [fp], #-0
    2454:	3800008f 	stmdacc	r0, {r0, r1, r2, r3, r7}
    2458:	01000000 	mrseq	r0, (UNDEF: 0)
    245c:	0001ee9c 	muleq	r1, ip, lr
    2460:	69700800 	ldmdbvs	r0!, {fp}^
    2464:	7b01006e 	blvc	42624 <__bss_end__+0x38184>
    2468:	0000002c 	andeq	r0, r0, ip, lsr #32
    246c:	0000156a 	andeq	r1, r0, sl, ror #10
    2470:	0006c309 	andeq	ip, r6, r9, lsl #6
    2474:	33810100 	orrcc	r0, r1, #0, 2
    2478:	8b000001 	blhi	2484 <_start-0x5b7c>
    247c:	09000015 	stmdbeq	r0, {r0, r2, r4}
    2480:	0000073a 	andeq	r0, r0, sl, lsr r7
    2484:	002c8201 	eoreq	r8, ip, r1, lsl #4
    2488:	15c10000 	strbne	r0, [r1]
    248c:	fc0c0000 	stc2	0, cr0, [ip], {-0}
    2490:	6200008f 	andvs	r0, r0, #143	; 0x8f
    2494:	0b000008 	bleq	24bc <_start-0x5b44>
    2498:	31075101 	tstcc	r7, r1, lsl #2
    249c:	4f5001f3 	svcmi	0x005001f3
    24a0:	0000241a 	andeq	r2, r0, sl, lsl r4
    24a4:	00026b07 	andeq	r6, r2, r7, lsl #22
    24a8:	04950100 	ldreq	r0, [r5], #256	; 0x100
    24ac:	cc000090 	stcgt	0, cr0, [r0], {144}	; 0x90
    24b0:	01000000 	mrseq	r0, (UNDEF: 0)
    24b4:	0002649c 	muleq	r2, ip, r4
    24b8:	69700800 	ldmdbvs	r0!, {fp}^
    24bc:	9501006e 	strls	r0, [r1, #-110]	; 0x6e
    24c0:	0000002c 	andeq	r0, r0, ip, lsr #32
    24c4:	00001601 	andeq	r1, r0, r1, lsl #12
    24c8:	0006c309 	andeq	ip, r6, r9, lsl #6
    24cc:	339b0100 	orrscc	r0, fp, #0, 2
    24d0:	1f000001 	svcne	0x00000001
    24d4:	09000016 	stmdbeq	r0, {r1, r2, r4}
    24d8:	00000802 	andeq	r0, r0, r2, lsl #16
    24dc:	002c9d01 	eoreq	r9, ip, r1, lsl #26
    24e0:	16740000 	ldrbtne	r0, [r4], -r0
    24e4:	3a090000 	bcc	2424ec <__bss_end__+0x23804c>
    24e8:	01000007 	tsteq	r0, r7
    24ec:	00002cab 	andeq	r2, r0, fp, lsr #25
    24f0:	00184000 	andseq	r4, r8, r0
    24f4:	90980a00 	addsls	r0, r8, r0, lsl #20
    24f8:	08410000 	stmdaeq	r1, {}^	; <UNPREDICTABLE>
    24fc:	02530000 	subseq	r0, r3, #0
    2500:	010b0000 	mrseq	r0, (UNDEF: 11)
    2504:	00750250 	rsbseq	r0, r5, r0, asr r2
    2508:	90c40c00 	sbcls	r0, r4, r0, lsl #24
    250c:	08620000 	stmdaeq	r2!, {}^	; <UNPREDICTABLE>
    2510:	010b0000 	mrseq	r0, (UNDEF: 11)
    2514:	00750250 	rsbseq	r0, r5, r0, asr r2
    2518:	a30f0000 	movwge	r0, #61440	; 0xf000
    251c:	01000001 	tsteq	r0, r1
    2520:	000064b3 			; <UNDEFINED> instruction: 0x000064b3
    2524:	0090d000 	addseq	sp, r0, r0
    2528:	00004c00 	andeq	r4, r0, r0, lsl #24
    252c:	ac9c0100 	ldfges	f0, [ip], {0}
    2530:	08000002 	stmdaeq	r0, {r1}
    2534:	006e6970 	rsbeq	r6, lr, r0, ror r9
    2538:	002cb301 	eoreq	fp, ip, r1, lsl #6
    253c:	185e0000 	ldmdane	lr, {}^	; <UNPREDICTABLE>
    2540:	76100000 	ldrvc	r0, [r0], -r0
    2544:	2cb90100 	ldfcss	f0, [r9]
    2548:	b6000000 	strlt	r0, [r0], -r0
    254c:	11000018 	tstne	r0, r8, lsl r0
    2550:	000090f0 	strdeq	r9, [r0], -r0
    2554:	00000841 	andeq	r0, r0, r1, asr #16
    2558:	00910011 	addseq	r0, r1, r1, lsl r0
    255c:	00084100 	andeq	r4, r8, r0, lsl #2
    2560:	29070000 	stmdbcs	r7, {}	; <UNPREDICTABLE>
    2564:	01000000 	mrseq	r0, (UNDEF: 0)
    2568:	00911cc5 	addseq	r1, r1, r5, asr #25
    256c:	00002400 	andeq	r2, r0, r0, lsl #8
    2570:	fc9c0100 	ldc2	1, cr0, [ip], {0}
    2574:	08000002 	stmdaeq	r0, {r1}
    2578:	006e6970 	rsbeq	r6, lr, r0, ror r9
    257c:	002cc501 	eoreq	ip, ip, r1, lsl #10
    2580:	18ec0000 	stmiane	ip!, {}^	; <UNPREDICTABLE>
    2584:	76080000 	strvc	r0, [r8], -r0
    2588:	2cc50100 	stfcse	f0, [r5], {0}
    258c:	26000000 	strcs	r0, [r0], -r0
    2590:	0a000019 	beq	25fc <_start-0x5a04>
    2594:	00009134 	andeq	r9, r0, r4, lsr r1
    2598:	0000013e 	andeq	r0, r0, lr, lsr r1
    259c:	000002f2 	strdeq	r0, [r0], -r2
    25a0:	0350010b 	cmpeq	r0, #-1073741822	; 0xc0000002
    25a4:	005001f3 	ldrsheq	r0, [r0], #-19	; 0xffffffed
    25a8:	00913c11 	addseq	r3, r1, r1, lsl ip
    25ac:	00019600 	andeq	r9, r1, r0, lsl #12
    25b0:	ed070000 	stc	0, cr0, [r7, #-0]
    25b4:	01000006 	tsteq	r0, r6
    25b8:	009140d1 	ldrsbeq	r4, [r1], r1
    25bc:	0000d800 	andeq	sp, r0, r0, lsl #16
    25c0:	819c0100 	orrshi	r0, ip, r0, lsl #2
    25c4:	08000003 	stmdaeq	r0, {r0, r1}
    25c8:	006e6970 	rsbeq	r6, lr, r0, ror r9
    25cc:	002cd101 	eoreq	sp, ip, r1, lsl #2
    25d0:	19600000 	stmdbne	r0!, {}^	; <UNPREDICTABLE>
    25d4:	42120000 	andsmi	r0, r2, #0
    25d8:	01000007 	tsteq	r0, r7
    25dc:	0000b2d1 	ldrdeq	fp, [r0], -r1
    25e0:	00197e00 	andseq	r7, r9, r0, lsl #28
    25e4:	06c30900 	strbeq	r0, [r3], r0, lsl #18
    25e8:	d9010000 	stmdble	r1, {}	; <UNPREDICTABLE>
    25ec:	00000133 	andeq	r0, r0, r3, lsr r1
    25f0:	0000199f 	muleq	r0, pc, r9	; <UNPREDICTABLE>
    25f4:	00080209 	andeq	r0, r8, r9, lsl #4
    25f8:	2cda0100 	ldfcse	f0, [sl], {0}
    25fc:	f4000000 	vst4.8	{d0-d3}, [r0], r0
    2600:	09000019 	stmdbeq	r0, {r0, r3, r4}
    2604:	0000073a 	andeq	r0, r0, sl, lsr r7
    2608:	002ce801 	eoreq	lr, ip, r1, lsl #16
    260c:	1bc00000 	blne	ff002614 <__bss_end__+0xfeff8174>
    2610:	dc0a0000 	stcle	0, cr0, [sl], {-0}
    2614:	41000091 	swpmi	r0, r1, [r0]	; <UNPREDICTABLE>
    2618:	70000008 	andvc	r0, r0, r8
    261c:	0b000003 	bleq	2630 <_start-0x59d0>
    2620:	76025001 	strvc	r5, [r2], -r1
    2624:	0c0c0000 	stceq	0, cr0, [ip], {-0}
    2628:	62000092 	andvs	r0, r0, #146	; 0x92
    262c:	0b000008 	bleq	2654 <_start-0x59ac>
    2630:	76025001 	strvc	r5, [r2], -r1
    2634:	07000000 	streq	r0, [r0, -r0]
    2638:	00000747 	andeq	r0, r0, r7, asr #14
    263c:	9218f101 	andsls	pc, r8, #1073741824	; 0x40000000
    2640:	00380000 	eorseq	r0, r8, r0
    2644:	9c010000 	stcls	0, cr0, [r1], {-0}
    2648:	000003d9 	ldrdeq	r0, [r0], -r9
    264c:	6e697008 	cdpvs	0, 6, cr7, cr9, cr8, {0}
    2650:	2cf10100 	ldfcse	f0, [r1]
    2654:	f1000000 	cps	#0
    2658:	0900001b 	stmdbeq	r0, {r0, r1, r3, r4}
    265c:	000006c3 	andeq	r0, r0, r3, asr #13
    2660:	0133f701 	teqeq	r3, r1, lsl #14
    2664:	1c120000 	ldcne	0, cr0, [r2], {-0}
    2668:	3a090000 	bcc	242670 <__bss_end__+0x2381d0>
    266c:	01000007 	tsteq	r0, r7
    2670:	00002cf8 	strdeq	r2, [r0], -r8
    2674:	001c4800 	andseq	r4, ip, r0, lsl #16
    2678:	92480c00 	subls	r0, r8, #0, 24
    267c:	08620000 	stmdaeq	r2!, {}^	; <UNPREDICTABLE>
    2680:	010b0000 	mrseq	r0, (UNDEF: 11)
    2684:	f3310751 	vaba.u<illegal width 64>	q0, <illegal reg q0.5>, <illegal reg q0.5>
    2688:	1a4f5001 	bne	13d6694 <__bss_end__+0x13cc1f4>
    268c:	13000024 	movwne	r0, #36	; 0x24
    2690:	00000687 	andeq	r0, r0, r7, lsl #13
    2694:	64011f01 	strvs	r1, [r1], #-3841	; 0xf01
    2698:	50000000 	andpl	r0, r0, r0
    269c:	2c000092 	stccs	0, cr0, [r0], {146}	; 0x92
    26a0:	01000000 	mrseq	r0, (UNDEF: 0)
    26a4:	00040d9c 	muleq	r4, ip, sp
    26a8:	068a1400 	streq	r1, [sl], r0, lsl #8
    26ac:	1f010000 	svcne	0x00010000
    26b0:	00002c01 	andeq	r2, r0, r1, lsl #24
    26b4:	001c8800 	andseq	r8, ip, r0, lsl #16
    26b8:	92601100 	rsbls	r1, r0, #0, 2
    26bc:	08410000 	stmdaeq	r1, {}^	; <UNPREDICTABLE>
    26c0:	15000000 	strne	r0, [r0, #-0]
    26c4:	000006d8 	ldrdeq	r0, [r0], -r8
    26c8:	7c012e01 	stcvc	14, cr2, [r1], {1}
    26cc:	84000092 	strhi	r0, [r0], #-146	; 0x92
    26d0:	01000000 	mrseq	r0, (UNDEF: 0)
    26d4:	0004d19c 	muleq	r4, ip, r1
    26d8:	69701600 	ldmdbvs	r0!, {r9, sl, ip}^
    26dc:	2e01006e 	cdpcs	0, 0, cr0, cr1, cr14, {3}
    26e0:	00002c01 	andeq	r2, r0, r1, lsl #24
    26e4:	001ca900 	andseq	sl, ip, r0, lsl #18
    26e8:	06b11700 	ldrteq	r1, [r1], r0, lsl #14
    26ec:	40010000 	andmi	r0, r1, r0
    26f0:	00002c01 	andeq	r2, r0, r1, lsl #24
    26f4:	001cd500 	andseq	sp, ip, r0, lsl #10
    26f8:	92981800 	addsls	r1, r8, #0, 16
    26fc:	001c0000 	andseq	r0, ip, r0
    2700:	04730000 	ldrbteq	r0, [r3], #-0
    2704:	3a170000 	bcc	5c270c <__bss_end__+0x5b826c>
    2708:	01000007 	tsteq	r0, r7
    270c:	002c0137 	eoreq	r0, ip, r7, lsr r1
    2710:	1cf30000 	ldclne	0, cr0, [r3]
    2714:	a4110000 	ldrge	r0, [r1], #-0
    2718:	41000092 	swpmi	r0, r2, [r0]	; <UNPREDICTABLE>
    271c:	11000008 	tstne	r0, r8
    2720:	000092b4 			; <UNDEFINED> instruction: 0x000092b4
    2724:	00000862 	andeq	r0, r0, r2, ror #16
    2728:	92b81800 	adcsls	r1, r8, #0, 16
    272c:	00200000 	eoreq	r0, r0, r0
    2730:	04a30000 	strteq	r0, [r3], #0
    2734:	3a170000 	bcc	5c273c <__bss_end__+0x5b829c>
    2738:	01000007 	tsteq	r0, r7
    273c:	002c013b 	eoreq	r0, ip, fp, lsr r1
    2740:	1d110000 	ldcne	0, cr0, [r1, #-0]
    2744:	c4110000 	ldrgt	r0, [r1], #-0
    2748:	41000092 	swpmi	r0, r2, [r0]	; <UNPREDICTABLE>
    274c:	11000008 	tstne	r0, r8
    2750:	000092d8 	ldrdeq	r9, [r0], -r8
    2754:	00000862 	andeq	r0, r0, r2, ror #16
    2758:	92901100 	addsls	r1, r0, #0, 2
    275c:	087e0000 	ldmdaeq	lr!, {}^	; <UNPREDICTABLE>
    2760:	dc110000 	ldcle	0, cr0, [r1], {-0}
    2764:	7e000092 	mcrvc	0, 0, r0, cr0, cr2, {4}
    2768:	11000008 	tstne	r0, r8
    276c:	000092e8 	andeq	r9, r0, r8, ror #5
    2770:	00000841 	andeq	r0, r0, r1, asr #16
    2774:	0092f411 	addseq	pc, r2, r1, lsl r4	; <UNPREDICTABLE>
    2778:	00086200 	andeq	r6, r8, r0, lsl #4
    277c:	92f81100 	rscsls	r1, r8, #0, 2
    2780:	087e0000 	ldmdaeq	lr!, {}^	; <UNPREDICTABLE>
    2784:	15000000 	strne	r0, [r0, #-0]
    2788:	00000786 	andeq	r0, r0, r6, lsl #15
    278c:	00014b01 	andeq	r4, r1, r1, lsl #22
    2790:	84000093 	strhi	r0, [r0], #-147	; 0x93
    2794:	01000000 	mrseq	r0, (UNDEF: 0)
    2798:	0005959c 	muleq	r5, ip, r5
    279c:	69701600 	ldmdbvs	r0!, {r9, sl, ip}^
    27a0:	4b01006e 	blmi	42960 <__bss_end__+0x384c0>
    27a4:	00002c01 	andeq	r2, r0, r1, lsl #24
    27a8:	001d2f00 	andseq	r2, sp, r0, lsl #30
    27ac:	06b11700 	ldrteq	r1, [r1], r0, lsl #14
    27b0:	5c010000 	stcpl	0, cr0, [r1], {-0}
    27b4:	00002c01 	andeq	r2, r0, r1, lsl #24
    27b8:	001d5b00 	andseq	r5, sp, r0, lsl #22
    27bc:	931c1800 	tstls	ip, #0, 16
    27c0:	001c0000 	andseq	r0, ip, r0
    27c4:	05370000 	ldreq	r0, [r7, #-0]!
    27c8:	3a170000 	bcc	5c27d0 <__bss_end__+0x5b8330>
    27cc:	01000007 	tsteq	r0, r7
    27d0:	002c0153 	eoreq	r0, ip, r3, asr r1
    27d4:	1d790000 	ldclne	0, cr0, [r9, #-0]
    27d8:	28110000 	ldmdacs	r1, {}	; <UNPREDICTABLE>
    27dc:	41000093 	swpmi	r0, r3, [r0]	; <UNPREDICTABLE>
    27e0:	11000008 	tstne	r0, r8
    27e4:	00009338 	andeq	r9, r0, r8, lsr r3
    27e8:	00000862 	andeq	r0, r0, r2, ror #16
    27ec:	933c1800 	teqls	ip, #0, 16
    27f0:	00200000 	eoreq	r0, r0, r0
    27f4:	05670000 	strbeq	r0, [r7, #-0]!
    27f8:	3a170000 	bcc	5c2800 <__bss_end__+0x5b8360>
    27fc:	01000007 	tsteq	r0, r7
    2800:	002c0157 	eoreq	r0, ip, r7, asr r1
    2804:	1d970000 	ldcne	0, cr0, [r7]
    2808:	48110000 	ldmdami	r1, {}	; <UNPREDICTABLE>
    280c:	41000093 	swpmi	r0, r3, [r0]	; <UNPREDICTABLE>
    2810:	11000008 	tstne	r0, r8
    2814:	0000935c 	andeq	r9, r0, ip, asr r3
    2818:	00000862 	andeq	r0, r0, r2, ror #16
    281c:	93141100 	tstls	r4, #0, 2
    2820:	087e0000 	ldmdaeq	lr!, {}^	; <UNPREDICTABLE>
    2824:	60110000 	andsvs	r0, r1, r0
    2828:	7e000093 	mcrvc	0, 0, r0, cr0, cr3, {4}
    282c:	11000008 	tstne	r0, r8
    2830:	0000936c 	andeq	r9, r0, ip, ror #6
    2834:	00000841 	andeq	r0, r0, r1, asr #16
    2838:	00937811 	addseq	r7, r3, r1, lsl r8
    283c:	00086200 	andeq	r6, r8, r0, lsl #4
    2840:	937c1100 	cmnls	ip, #0, 2
    2844:	087e0000 	ldmdaeq	lr!, {}^	; <UNPREDICTABLE>
    2848:	13000000 	movwne	r0, #0
    284c:	0000065f 	andeq	r0, r0, pc, asr r6
    2850:	64016601 	strvs	r6, [r1], #-1537	; 0x601
    2854:	84000000 	strhi	r0, [r0], #-0
    2858:	84000093 	strhi	r0, [r0], #-147	; 0x93
    285c:	01000000 	mrseq	r0, (UNDEF: 0)
    2860:	00063b9c 	muleq	r6, ip, fp
    2864:	69701600 	ldmdbvs	r0!, {r9, sl, ip}^
    2868:	6601006e 	strvs	r0, [r1], -lr, rrx
    286c:	00002c01 	andeq	r2, r0, r1, lsl #24
    2870:	001db500 	andseq	fp, sp, r0, lsl #10
    2874:	93a01800 	movls	r1, #0, 16
    2878:	00240000 	eoreq	r0, r4, r0
    287c:	05ef0000 	strbeq	r0, [pc, #0]!	; 2884 <_start-0x577c>
    2880:	ba170000 	blt	5c2888 <__bss_end__+0x5b83e8>
    2884:	01000006 	tsteq	r0, r6
    2888:	002c016d 	eoreq	r0, ip, sp, ror #2
    288c:	1df70000 	ldclne	0, cr0, [r7]
    2890:	ac110000 	ldcge	0, cr0, [r1], {-0}
    2894:	41000093 	swpmi	r0, r3, [r0]	; <UNPREDICTABLE>
    2898:	11000008 	tstne	r0, r8
    289c:	000093bc 			; <UNDEFINED> instruction: 0x000093bc
    28a0:	0000087e 	andeq	r0, r0, lr, ror r8
    28a4:	93c41800 	bicls	r1, r4, #0, 16
    28a8:	002c0000 	eoreq	r0, ip, r0
    28ac:	06280000 	strteq	r0, [r8], -r0
    28b0:	ba170000 	blt	5c28b8 <__bss_end__+0x5b8418>
    28b4:	01000006 	tsteq	r0, r6
    28b8:	002c0170 	eoreq	r0, ip, r0, ror r1
    28bc:	1e110000 	cdpne	0, 1, cr0, cr1, cr0, {0}
    28c0:	d0110000 	andsle	r0, r1, r0
    28c4:	41000093 	swpmi	r0, r3, [r0]	; <UNPREDICTABLE>
    28c8:	11000008 	tstne	r0, r8
    28cc:	000093dc 	ldrdeq	r9, [r0], -ip
    28d0:	0000087e 	andeq	r0, r0, lr, ror r8
    28d4:	0093e811 	addseq	lr, r3, r1, lsl r8
    28d8:	00087e00 	andeq	r7, r8, r0, lsl #28
    28dc:	98110000 	ldmdals	r1, {}	; <UNPREDICTABLE>
    28e0:	7e000093 	mcrvc	0, 0, r0, cr0, cr3, {4}
    28e4:	11000008 	tstne	r0, r8
    28e8:	000093f4 	strdeq	r9, [r0], -r4
    28ec:	0000087e 	andeq	r0, r0, lr, ror r8
    28f0:	070d1500 	streq	r1, [sp, -r0, lsl #10]
    28f4:	79010000 	stmdbvc	r1, {}	; <UNPREDICTABLE>
    28f8:	00940801 	addseq	r0, r4, r1, lsl #16
    28fc:	00005800 	andeq	r5, r0, r0, lsl #16
    2900:	a09c0100 	addsge	r0, ip, r0, lsl #2
    2904:	16000006 	strne	r0, [r0], -r6
    2908:	006e6970 	rsbeq	r6, lr, r0, ror r9
    290c:	2c017901 	stccs	9, cr7, [r1], {1}
    2910:	24000000 	strcs	r0, [r0], #-0
    2914:	1100001e 	tstne	r0, lr, lsl r0
    2918:	0000941c 	andeq	r9, r0, ip, lsl r4
    291c:	0000087e 	andeq	r0, r0, lr, ror r8
    2920:	0094380a 	addseq	r3, r4, sl, lsl #16
    2924:	00086200 	andeq	r6, r8, r0, lsl #4
    2928:	00068000 	andeq	r8, r6, r0
    292c:	51010b00 	tstpl	r1, r0, lsl #22
    2930:	00743104 	rsbseq	r3, r4, r4, lsl #2
    2934:	540a0024 	strpl	r0, [sl], #-36	; 0x24
    2938:	62000094 	andvs	r0, r0, #148	; 0x94
    293c:	96000008 	strls	r0, [r0], -r8
    2940:	0b000006 	bleq	2960 <_start-0x56a0>
    2944:	31045101 	tstcc	r4, r1, lsl #2
    2948:	00240074 	eoreq	r0, r4, r4, ror r0
    294c:	00945811 	addseq	r5, r4, r1, lsl r8
    2950:	00087e00 	andeq	r7, r8, r0, lsl #28
    2954:	91190000 	tstls	r9, r0
    2958:	01000001 	tsteq	r0, r1
    295c:	00013328 	andeq	r3, r1, r8, lsr #6
    2960:	54030500 	strpl	r0, [r3], #-1280	; 0x500
    2964:	1900009d 	stmdbne	r0, {r0, r2, r3, r4, r7}
    2968:	0000025b 	andeq	r0, r0, fp, asr r2
    296c:	01332901 	teqeq	r3, r1, lsl #18
    2970:	03050000 	movweq	r0, #20480	; 0x5000
    2974:	00009d50 	andeq	r9, r0, r0, asr sp
    2978:	0002a419 	andeq	sl, r2, r9, lsl r4
    297c:	332a0100 	teqcc	sl, #0, 2
    2980:	05000001 	streq	r0, [r0, #-1]
    2984:	009d4c03 	addseq	r4, sp, r3, lsl #24
    2988:	013d1900 	teqeq	sp, r0, lsl #18
    298c:	2c010000 	stccs	0, cr0, [r1], {-0}
    2990:	00000133 	andeq	r0, r0, r3, lsr r1
    2994:	9cf80305 	ldclls	3, cr0, [r8], #20
    2998:	45190000 	ldrmi	r0, [r9, #-0]
    299c:	01000001 	tsteq	r0, r1
    29a0:	0001332d 	andeq	r3, r1, sp, lsr #6
    29a4:	fc030500 	stc2	5, cr0, [r3], {-0}
    29a8:	1900009c 	stmdbne	r0, {r2, r3, r4, r7}
    29ac:	00000000 	andeq	r0, r0, r0
    29b0:	01332e01 	teqeq	r3, r1, lsl #28
    29b4:	03050000 	movweq	r0, #20480	; 0x5000
    29b8:	00009d00 	andeq	r9, r0, r0, lsl #26
    29bc:	00014d19 	andeq	r4, r1, r9, lsl sp
    29c0:	332f0100 	teqcc	pc, #0, 2
    29c4:	05000001 	streq	r0, [r0, #-1]
    29c8:	009d0403 	addseq	r0, sp, r3, lsl #8
    29cc:	00081900 	andeq	r1, r8, r0, lsl #18
    29d0:	30010000 	andcc	r0, r1, r0
    29d4:	00000133 	andeq	r0, r0, r3, lsr r1
    29d8:	9d080305 	stcls	3, cr0, [r8, #-20]	; 0xffffffec
    29dc:	5e190000 	cdppl	0, 1, cr0, cr9, cr0, {0}
    29e0:	01000001 	tsteq	r0, r1
    29e4:	00013331 	andeq	r3, r1, r1, lsr r3
    29e8:	0c030500 	cfstr32eq	mvfx0, [r3], {-0}
    29ec:	1900009d 	stmdbne	r0, {r0, r2, r3, r4, r7}
    29f0:	0000008c 	andeq	r0, r0, ip, lsl #1
    29f4:	01333301 	teqeq	r3, r1, lsl #6
    29f8:	03050000 	movweq	r0, #20480	; 0x5000
    29fc:	00009d10 	andeq	r9, r0, r0, lsl sp
    2a00:	00009319 	andeq	r9, r0, r9, lsl r3
    2a04:	33340100 	teqcc	r4, #0, 2
    2a08:	05000001 	streq	r0, [r0, #-1]
    2a0c:	009d1403 	addseq	r1, sp, r3, lsl #8
    2a10:	023c1900 	eorseq	r1, ip, #0, 18
    2a14:	36010000 	strcc	r0, [r1], -r0
    2a18:	00000133 	andeq	r0, r0, r3, lsr r1
    2a1c:	9d180305 	ldcls	3, cr0, [r8, #-20]	; 0xffffffec
    2a20:	9c190000 	ldcls	0, cr0, [r9], {-0}
    2a24:	01000001 	tsteq	r0, r1
    2a28:	00013337 	andeq	r3, r1, r7, lsr r3
    2a2c:	1c030500 	cfstr32ne	mvfx0, [r3], {-0}
    2a30:	1900009d 	stmdbne	r0, {r0, r2, r3, r4, r7}
    2a34:	0000009a 	muleq	r0, sl, r0
    2a38:	01333901 	teqeq	r3, r1, lsl #18
    2a3c:	03050000 	movweq	r0, #20480	; 0x5000
    2a40:	00009d20 	andeq	r9, r0, r0, lsr #26
    2a44:	0000a119 	andeq	sl, r0, r9, lsl r1
    2a48:	333a0100 	teqcc	sl, #0, 2
    2a4c:	05000001 	streq	r0, [r0, #-1]
    2a50:	009d2403 	addseq	r2, sp, r3, lsl #8
    2a54:	071e1a00 	ldreq	r1, [lr, -r0, lsl #20]
    2a58:	0a010000 	beq	42a60 <__bss_end__+0x385c0>
    2a5c:	00013301 	andeq	r3, r1, r1, lsl #6
    2a60:	48030500 	stmdami	r3, {r8, sl}
    2a64:	1a00009d 	bne	2ce0 <_start-0x5320>
    2a68:	0000072c 	andeq	r0, r0, ip, lsr #14
    2a6c:	33010b01 	movwcc	r0, #6913	; 0x1b01
    2a70:	05000001 	streq	r0, [r0, #-1]
    2a74:	009d2803 	addseq	r2, sp, r3, lsl #16
    2a78:	07531a00 	ldrbeq	r1, [r3, -r0, lsl #20]
    2a7c:	0d010000 	stceq	0, cr0, [r1, #-0]
    2a80:	00013301 	andeq	r3, r1, r1, lsl #6
    2a84:	40030500 	andmi	r0, r3, r0, lsl #10
    2a88:	1a00009d 	bne	2d04 <_start-0x52fc>
    2a8c:	0000075a 	andeq	r0, r0, sl, asr r7
    2a90:	33010e01 	movwcc	r0, #7681	; 0x1e01
    2a94:	05000001 	streq	r0, [r0, #-1]
    2a98:	009d4403 	addseq	r4, sp, r3, lsl #8
    2a9c:	06ff1a00 	ldrbteq	r1, [pc], r0, lsl #20
    2aa0:	10010000 	andne	r0, r1, r0
    2aa4:	00013301 	andeq	r3, r1, r1, lsl #6
    2aa8:	2c030500 	cfstr32cs	mvfx0, [r3], {-0}
    2aac:	1a00009d 	bne	2d28 <_start-0x52d8>
    2ab0:	00000706 	andeq	r0, r0, r6, lsl #14
    2ab4:	33011101 	movwcc	r1, #4353	; 0x1101
    2ab8:	05000001 	streq	r0, [r0, #-1]
    2abc:	009d3003 	addseq	r3, sp, r3
    2ac0:	07611a00 	strbeq	r1, [r1, -r0, lsl #20]!
    2ac4:	13010000 	movwne	r0, #4096	; 0x1000
    2ac8:	00013301 	andeq	r3, r1, r1, lsl #6
    2acc:	38030500 	stmdacc	r3, {r8, sl}
    2ad0:	1a00009d 	bne	2d4c <_start-0x52b4>
    2ad4:	00000768 	andeq	r0, r0, r8, ror #14
    2ad8:	33011401 	movwcc	r1, #5121	; 0x1401
    2adc:	05000001 	streq	r0, [r0, #-1]
    2ae0:	009d3c03 	addseq	r3, sp, r3, lsl #24
    2ae4:	06791a00 	ldrbteq	r1, [r9], -r0, lsl #20
    2ae8:	16010000 	strne	r0, [r1], -r0
    2aec:	00013301 	andeq	r3, r1, r1, lsl #6
    2af0:	34030500 	strcc	r0, [r3], #-1280	; 0x500
    2af4:	1b00009d 	blne	2d70 <_start-0x5290>
    2af8:	00000780 	andeq	r0, r0, r0, lsl #15
    2afc:	002c2001 	eoreq	r2, ip, r1
    2b00:	08560000 	ldmdaeq	r6, {}^	; <UNPREDICTABLE>
    2b04:	561c0000 	ldrpl	r0, [ip], -r0
    2b08:	00000008 	andeq	r0, r0, r8
    2b0c:	085c040d 	ldmdaeq	ip, {r0, r2, r3, sl}^
    2b10:	611d0000 	tstvs	sp, r0
    2b14:	1e000008 	cdpne	0, 0, cr0, cr0, cr8, {0}
    2b18:	0006731f 	andeq	r7, r6, pc, lsl r3
    2b1c:	781e0100 	ldmdavc	lr, {r8}
    2b20:	1c000008 	stcne	0, cr0, [r0], {8}
    2b24:	00000878 	andeq	r0, r0, r8, ror r8
    2b28:	00002c1c 	andeq	r2, r0, ip, lsl ip
    2b2c:	040d0000 	streq	r0, [sp], #-0
    2b30:	00000861 	andeq	r0, r0, r1, ror #16
    2b34:	0006cc20 	andeq	ip, r6, r0, lsr #24
    2b38:	008a0300 	addeq	r0, sl, r0, lsl #6
    2b3c:	000011f2 	strdeq	r1, [r0], -r2
    2b40:	0d7f0004 	ldcleq	0, cr0, [pc, #-16]!	; 2b38 <_start-0x54c8>
    2b44:	01040000 	mrseq	r0, (UNDEF: 4)
    2b48:	000002d3 	ldrdeq	r0, [r0], -r3
    2b4c:	0008a201 	andeq	sl, r8, r1, lsl #4
    2b50:	00033e00 	andeq	r3, r3, r0, lsl #28
    2b54:	00946000 	addseq	r6, r4, r0
    2b58:	00066800 	andeq	r6, r6, r0, lsl #16
    2b5c:	000bcc00 	andeq	ip, fp, r0, lsl #24
    2b60:	05040200 	streq	r0, [r4, #-512]	; 0x200
    2b64:	00746e69 	rsbseq	r6, r4, r9, ror #28
    2b68:	4d070403 	cfstrsmi	mvf0, [r7, #-12]
    2b6c:	03000000 	movweq	r0, #0
    2b70:	02260601 	eoreq	r0, r6, #1048576	; 0x100000
    2b74:	02030000 	andeq	r0, r3, #0
    2b78:	00023205 	andeq	r3, r2, r5, lsl #4
    2b7c:	05040300 	streq	r0, [r4, #-768]	; 0x300
    2b80:	0000007c 	andeq	r0, r0, ip, ror r0
    2b84:	77050803 	strvc	r0, [r5, -r3, lsl #16]
    2b88:	04000000 	streq	r0, [r0], #-0
    2b8c:	0000029c 	muleq	r0, ip, r2
    2b90:	005a2e03 	subseq	r2, sl, r3, lsl #28
    2b94:	01030000 	mrseq	r0, (UNDEF: 3)
    2b98:	00022408 	andeq	r2, r2, r8, lsl #8
    2b9c:	07020300 	streq	r0, [r2, -r0, lsl #6]
    2ba0:	0000017e 	andeq	r0, r0, lr, ror r1
    2ba4:	00057e04 	andeq	r7, r5, r4, lsl #28
    2ba8:	73340300 	teqvc	r4, #0, 6
    2bac:	03000000 	movweq	r0, #0
    2bb0:	00480704 	subeq	r0, r8, r4, lsl #14
    2bb4:	08030000 	stmdaeq	r3, {}	; <UNPREDICTABLE>
    2bb8:	00004307 	andeq	r4, r0, r7, lsl #6
    2bbc:	07040300 	streq	r0, [r4, -r0, lsl #6]
    2bc0:	000001c0 	andeq	r0, r0, r0, asr #3
    2bc4:	04060405 	streq	r0, [r6], #-1029	; 0x405
    2bc8:	00000090 	muleq	r0, r0, r0
    2bcc:	2d080103 	stfcss	f0, [r8, #-12]
    2bd0:	06000002 	streq	r0, [r0], -r2
    2bd4:	00009d04 	andeq	r9, r0, r4, lsl #26
    2bd8:	00900700 	addseq	r0, r0, r0, lsl #14
    2bdc:	0c080000 	stceq	0, cr0, [r8], {-0}
    2be0:	00d90e04 	sbcseq	r0, r9, r4, lsl #28
    2be4:	74090000 	strvc	r0, [r9], #-0
    2be8:	0f040078 	svceq	0x00040078
    2bec:	0000004f 	andeq	r0, r0, pc, asr #32
    2bf0:	78720900 	ldmdavc	r2!, {r8, fp}^
    2bf4:	4f0f0400 	svcmi	0x000f0400
    2bf8:	01000000 	mrseq	r0, (UNDEF: 0)
    2bfc:	0004fd0a 	andeq	pc, r4, sl, lsl #26
    2c00:	68100400 	ldmdavs	r0, {sl}
    2c04:	04000000 	streq	r0, [r0], #-0
    2c08:	0004ae0a 	andeq	sl, r4, sl, lsl #28
    2c0c:	68110400 	ldmdavs	r1, {sl}
    2c10:	08000000 	stmdaeq	r0, {}	; <UNPREDICTABLE>
    2c14:	04e60400 	strbteq	r0, [r6], #1024	; 0x400
    2c18:	12040000 	andne	r0, r4, #0
    2c1c:	000000a2 	andeq	r0, r0, r2, lsr #1
    2c20:	0002b604 	andeq	fp, r2, r4, lsl #12
    2c24:	ef280500 	svc	0x00280500
    2c28:	0b000000 	bleq	2c30 <_start-0x53d0>
    2c2c:	00000334 	andeq	r0, r0, r4, lsr r3
    2c30:	06000904 	streq	r0, [r0], -r4, lsl #18
    2c34:	0c000001 	stceq	0, cr0, [r0], {1}
    2c38:	00000387 	andeq	r0, r0, r7, lsl #7
    2c3c:	00000088 	andeq	r0, r0, r8, lsl #1
    2c40:	36040000 	strcc	r0, [r4], -r0
    2c44:	05000003 	streq	r0, [r0, #-3]
    2c48:	0000e462 	andeq	lr, r0, r2, ror #8
    2c4c:	08660d00 	stmdaeq	r6!, {r8, sl, fp}^
    2c50:	09020000 	stmdbeq	r2, {}	; <UNPREDICTABLE>
    2c54:	00013f03 	andeq	r3, r1, r3, lsl #30
    2c58:	05110e00 	ldreq	r0, [r1, #-3584]	; 0xe00
    2c5c:	09020000 	stmdbeq	r2, {}	; <UNPREDICTABLE>
    2c60:	0000002c 	andeq	r0, r0, ip, lsr #32
    2c64:	02006e0f 	andeq	r6, r0, #15, 28	; 0xf0
    2c68:	00002c09 	andeq	r2, r0, r9, lsl #24
    2c6c:	1f111000 	svcne	0x00111000
    2c70:	02000002 	andeq	r0, r0, #2
    2c74:	00002c0c 	andeq	r2, r0, ip, lsl #24
    2c78:	0d000000 	stceq	0, cr0, [r0, #-0]
    2c7c:	00000819 	andeq	r0, r0, r9, lsl r8
    2c80:	76031702 	strvc	r1, [r3], -r2, lsl #14
    2c84:	0f000001 	svceq	0x00000001
    2c88:	006e6970 	rsbeq	r6, lr, r0, ror r9
    2c8c:	002c1702 	eoreq	r1, ip, r2, lsl #14
    2c90:	760f0000 	strvc	r0, [pc], -r0
    2c94:	2c170200 	lfmcs	f0, 4, [r7], {-0}
    2c98:	0e000000 	cdpeq	0, 0, cr0, cr0, cr0, {0}
    2c9c:	00000511 	andeq	r0, r0, r1, lsl r5
    2ca0:	002c1702 	eoreq	r1, ip, r2, lsl #14
    2ca4:	6c0e0000 	stcvs	0, cr0, [lr], {-0}
    2ca8:	02000008 	andeq	r0, r0, #8
    2cac:	00002c17 	andeq	r2, r0, r7, lsl ip
    2cb0:	22120000 	andscs	r0, r2, #0
    2cb4:	01000005 	tsteq	r0, r5
    2cb8:	00946009 	addseq	r6, r4, r9
    2cbc:	00015400 	andeq	r5, r1, r0, lsl #8
    2cc0:	229c0100 	addscs	r0, ip, #0, 2
    2cc4:	13000007 	movwne	r0, #7
    2cc8:	000004c4 	andeq	r0, r0, r4, asr #9
    2ccc:	07220901 	streq	r0, [r2, -r1, lsl #18]!
    2cd0:	1e500000 	cdpne	0, 5, cr0, cr0, cr0, {0}
    2cd4:	63140000 	tstvs	r4, #0
    2cd8:	5a090100 	bpl	2430e0 <__bss_end__+0x238c40>
    2cdc:	71000000 	mrsvc	r0, (UNDEF: 0)
    2ce0:	1500001e 	strne	r0, [r0, #-30]
    2ce4:	01007874 	tsteq	r0, r4, ror r8
    2ce8:	0000250b 	andeq	r2, r0, fp, lsl #10
    2cec:	00760600 	rsbseq	r0, r6, r0, lsl #12
    2cf0:	9f1aff08 	svcls	0x001aff08
    2cf4:	01006e16 	tsteq	r0, r6, lsl lr
    2cf8:	0000680c 	andeq	r6, r0, ip, lsl #16
    2cfc:	001e9200 	andseq	r9, lr, r0, lsl #4
    2d00:	00751600 	rsbseq	r1, r5, r0, lsl #12
    2d04:	00680d01 	rsbeq	r0, r8, r1, lsl #26
    2d08:	1ea50000 	cdpne	0, 10, cr0, cr5, cr0, {0}
    2d0c:	73150000 	tstvc	r5, #0
    2d10:	680e0100 	stmdavs	lr, {r8}
    2d14:	01000000 	mrseq	r0, (UNDEF: 0)
    2d18:	94701754 	ldrbtls	r1, [r0], #-1876	; 0x754
    2d1c:	00040000 	andeq	r0, r4, r0
    2d20:	01f80000 	mvnseq	r0, r0
    2d24:	1f180000 	svcne	0x00180000
    2d28:	01000002 	tsteq	r0, r2
    2d2c:	00002c0e 	andeq	r2, r0, lr, lsl #24
    2d30:	00540100 	subseq	r0, r4, r0, lsl #2
    2d34:	00013f19 	andeq	r3, r1, r9, lsl pc
    2d38:	00947400 	addseq	r7, r4, r0, lsl #8
    2d3c:	00001c00 	andeq	r1, r0, r0, lsl #24
    2d40:	75110100 	ldrvc	r0, [r1, #-256]	; 0x100
    2d44:	1a000002 	bne	2d54 <_start-0x52ac>
    2d48:	0000016a 	andeq	r0, r0, sl, ror #2
    2d4c:	00001ece 	andeq	r1, r0, lr, asr #29
    2d50:	00015f1b 	andeq	r5, r1, fp, lsl pc
    2d54:	1c540100 	ldfnee	f0, [r4], {-0}
    2d58:	00000156 	andeq	r0, r0, r6, asr r1
    2d5c:	014b1b00 	cmpeq	fp, r0, lsl #22
    2d60:	56010000 	strpl	r0, [r1], -r0
    2d64:	00011119 	andeq	r1, r1, r9, lsl r1
    2d68:	00948000 	addseq	r8, r4, r0
    2d6c:	00001000 	andeq	r1, r0, r0
    2d70:	5f1a0200 	svcpl	0x001a0200
    2d74:	1a000002 	bne	2d84 <_start-0x527c>
    2d78:	00000128 	andeq	r0, r0, r8, lsr #2
    2d7c:	00001ee1 	andeq	r1, r0, r1, ror #29
    2d80:	00011d1b 	andeq	r1, r1, fp, lsl sp
    2d84:	1d540100 	ldfnee	f0, [r4, #-0]
    2d88:	00009480 	andeq	r9, r0, r0, lsl #9
    2d8c:	00000004 	andeq	r0, r0, r4
    2d90:	0001321e 	andeq	r3, r1, lr, lsl r2
    2d94:	001ef400 	andseq	pc, lr, r0, lsl #8
    2d98:	1f000000 	svcne	0x00000000
    2d9c:	00009480 	andeq	r9, r0, r0, lsl #9
    2da0:	00001159 	andeq	r1, r0, r9, asr r1
    2da4:	01510120 	cmpeq	r1, r0, lsr #2
    2da8:	50012030 	andpl	r2, r1, r0, lsr r0
    2dac:	00007602 	andeq	r7, r0, r2, lsl #12
    2db0:	013f1900 	teqeq	pc, r0, lsl #18
    2db4:	94940000 	ldrls	r0, [r4], #0
    2db8:	001c0000 	andseq	r0, ip, r0
    2dbc:	13010000 	movwne	r0, #4096	; 0x1000
    2dc0:	000002f8 	strdeq	r0, [r0], -r8
    2dc4:	00016a1a 	andeq	r6, r1, sl, lsl sl
    2dc8:	001f0700 	andseq	r0, pc, r0, lsl #14
    2dcc:	015f1b00 	cmpeq	pc, r0, lsl #22
    2dd0:	54010000 	strpl	r0, [r1], #-0
    2dd4:	0001561a 	andeq	r5, r1, sl, lsl r6
    2dd8:	001f2900 	andseq	r2, pc, r0, lsl #18
    2ddc:	014b1b00 	cmpeq	fp, r0, lsl #22
    2de0:	56010000 	strpl	r0, [r1], -r0
    2de4:	00011119 	andeq	r1, r1, r9, lsl r1
    2de8:	0094a000 	addseq	sl, r4, r0
    2dec:	00001000 	andeq	r1, r0, r0
    2df0:	df1a0200 	svcle	0x001a0200
    2df4:	1a000002 	bne	2e04 <_start-0x51fc>
    2df8:	00000128 	andeq	r0, r0, r8, lsr #2
    2dfc:	00001f5a 	andeq	r1, r0, sl, asr pc
    2e00:	00011d1b 	andeq	r1, r1, fp, lsl sp
    2e04:	1d540100 	ldfnee	f0, [r4, #-0]
    2e08:	000094a0 	andeq	r9, r0, r0, lsr #9
    2e0c:	00000004 	andeq	r0, r0, r4
    2e10:	0001321e 	andeq	r3, r1, lr, lsl r2
    2e14:	001f7c00 	andseq	r7, pc, r0, lsl #24
    2e18:	1f000000 	svcne	0x00000000
    2e1c:	000094a0 	andeq	r9, r0, r0, lsr #9
    2e20:	00001159 	andeq	r1, r0, r9, asr r1
    2e24:	04510120 	ldrbeq	r0, [r1], #-288	; 0x120
    2e28:	1a310077 	bne	c4300c <__bss_end__+0xc38b6c>
    2e2c:	02500120 	subseq	r0, r0, #32, 2
    2e30:	00000076 	andeq	r0, r0, r6, ror r0
    2e34:	00013f19 	andeq	r3, r1, r9, lsl pc
    2e38:	0094b400 	addseq	fp, r4, r0, lsl #8
    2e3c:	00001c00 	andeq	r1, r0, r0, lsl #24
    2e40:	80150100 	andshi	r0, r5, r0, lsl #2
    2e44:	1a000003 	bne	2e58 <_start-0x51a8>
    2e48:	0000016a 	andeq	r0, r0, sl, ror #2
    2e4c:	00001f8f 	andeq	r1, r0, pc, lsl #31
    2e50:	00015f1b 	andeq	r5, r1, fp, lsl pc
    2e54:	1b540100 	blne	150325c <__bss_end__+0x14f8dbc>
    2e58:	00000156 	andeq	r0, r0, r6, asr r1
    2e5c:	32007708 	andcc	r7, r0, #8, 14	; 0x200000
    2e60:	1aff081a 	bne	fffc4ed0 <__bss_end__+0xfffbaa30>
    2e64:	014b1b9f 			; <UNDEFINED> instruction: 0x014b1b9f
    2e68:	56010000 	strpl	r0, [r1], -r0
    2e6c:	00011119 	andeq	r1, r1, r9, lsl r1
    2e70:	0094c000 	addseq	ip, r4, r0
    2e74:	00001000 	andeq	r1, r0, r0
    2e78:	671a0200 	ldrvs	r0, [sl, -r0, lsl #4]
    2e7c:	1a000003 	bne	2e90 <_start-0x5170>
    2e80:	00000128 	andeq	r0, r0, r8, lsr #2
    2e84:	00001fb4 			; <UNDEFINED> instruction: 0x00001fb4
    2e88:	00011d1b 	andeq	r1, r1, fp, lsl sp
    2e8c:	1d540100 	ldfnee	f0, [r4, #-0]
    2e90:	000094c0 	andeq	r9, r0, r0, asr #9
    2e94:	00000004 	andeq	r0, r0, r4
    2e98:	0001321e 	andeq	r3, r1, lr, lsl r2
    2e9c:	001fd900 	andseq	sp, pc, r0, lsl #18
    2ea0:	1f000000 	svcne	0x00000000
    2ea4:	000094c0 	andeq	r9, r0, r0, asr #9
    2ea8:	00001159 	andeq	r1, r0, r9, asr r1
    2eac:	04510120 	ldrbeq	r0, [r1], #-288	; 0x120
    2eb0:	1a320077 	bne	c83094 <__bss_end__+0xc78bf4>
    2eb4:	02500120 	subseq	r0, r0, #32, 2
    2eb8:	00000076 	andeq	r0, r0, r6, ror r0
    2ebc:	00013f19 	andeq	r3, r1, r9, lsl pc
    2ec0:	0094d400 	addseq	sp, r4, r0, lsl #8
    2ec4:	00001c00 	andeq	r1, r0, r0, lsl #24
    2ec8:	08170100 	ldmdaeq	r7, {r8}
    2ecc:	1a000004 	bne	2ee4 <_start-0x511c>
    2ed0:	0000016a 	andeq	r0, r0, sl, ror #2
    2ed4:	00001fec 	andeq	r1, r0, ip, ror #31
    2ed8:	00015f1b 	andeq	r5, r1, fp, lsl pc
    2edc:	1b540100 	blne	15032e4 <__bss_end__+0x14f8e44>
    2ee0:	00000156 	andeq	r0, r0, r6, asr r1
    2ee4:	34007708 	strcc	r7, [r0], #-1800	; 0x708
    2ee8:	1aff081a 	bne	fffc4f58 <__bss_end__+0xfffbaab8>
    2eec:	014b1b9f 			; <UNDEFINED> instruction: 0x014b1b9f
    2ef0:	56010000 	strpl	r0, [r1], -r0
    2ef4:	00011119 	andeq	r1, r1, r9, lsl r1
    2ef8:	0094e000 	addseq	lr, r4, r0
    2efc:	00001000 	andeq	r1, r0, r0
    2f00:	ef1a0200 	svc	0x001a0200
    2f04:	1a000003 	bne	2f18 <_start-0x50e8>
    2f08:	00000128 	andeq	r0, r0, r8, lsr #2
    2f0c:	0000200e 	andeq	r2, r0, lr
    2f10:	00011d1b 	andeq	r1, r1, fp, lsl sp
    2f14:	1d540100 	ldfnee	f0, [r4, #-0]
    2f18:	000094e0 	andeq	r9, r0, r0, ror #9
    2f1c:	00000004 	andeq	r0, r0, r4
    2f20:	0001321e 	andeq	r3, r1, lr, lsl r2
    2f24:	00203000 	eoreq	r3, r0, r0
    2f28:	1f000000 	svcne	0x00000000
    2f2c:	000094e0 	andeq	r9, r0, r0, ror #9
    2f30:	00001159 	andeq	r1, r0, r9, asr r1
    2f34:	04510120 	ldrbeq	r0, [r1], #-288	; 0x120
    2f38:	1a340077 	bne	d0311c <__bss_end__+0xcf8c7c>
    2f3c:	02500120 	subseq	r0, r0, #32, 2
    2f40:	00000076 	andeq	r0, r0, r6, ror r0
    2f44:	00013f19 	andeq	r3, r1, r9, lsl pc
    2f48:	0094f400 	addseq	pc, r4, r0, lsl #8
    2f4c:	00001c00 	andeq	r1, r0, r0, lsl #24
    2f50:	90190100 	andsls	r0, r9, r0, lsl #2
    2f54:	1a000004 	bne	2f6c <_start-0x5094>
    2f58:	0000016a 	andeq	r0, r0, sl, ror #2
    2f5c:	00002043 	andeq	r2, r0, r3, asr #32
    2f60:	00015f1b 	andeq	r5, r1, fp, lsl pc
    2f64:	1b540100 	blne	150336c <__bss_end__+0x14f8ecc>
    2f68:	00000156 	andeq	r0, r0, r6, asr r1
    2f6c:	38007708 	stmdacc	r0, {r3, r8, r9, sl, ip, sp, lr}
    2f70:	1aff081a 	bne	fffc4fe0 <__bss_end__+0xfffbab40>
    2f74:	014b1b9f 			; <UNDEFINED> instruction: 0x014b1b9f
    2f78:	56010000 	strpl	r0, [r1], -r0
    2f7c:	00011119 	andeq	r1, r1, r9, lsl r1
    2f80:	00950000 	addseq	r0, r5, r0
    2f84:	00001000 	andeq	r1, r0, r0
    2f88:	771a0200 	ldrvc	r0, [sl, -r0, lsl #4]
    2f8c:	1a000004 	bne	2fa4 <_start-0x505c>
    2f90:	00000128 	andeq	r0, r0, r8, lsr #2
    2f94:	00002068 	andeq	r2, r0, r8, rrx
    2f98:	00011d1b 	andeq	r1, r1, fp, lsl sp
    2f9c:	1d540100 	ldfnee	f0, [r4, #-0]
    2fa0:	00009500 	andeq	r9, r0, r0, lsl #10
    2fa4:	00000004 	andeq	r0, r0, r4
    2fa8:	0001321e 	andeq	r3, r1, lr, lsl r2
    2fac:	00208d00 	eoreq	r8, r0, r0, lsl #26
    2fb0:	1f000000 	svcne	0x00000000
    2fb4:	00009500 	andeq	r9, r0, r0, lsl #10
    2fb8:	00001159 	andeq	r1, r0, r9, asr r1
    2fbc:	04510120 	ldrbeq	r0, [r1], #-288	; 0x120
    2fc0:	1a380077 	bne	e031a4 <__bss_end__+0xdf8d04>
    2fc4:	02500120 	subseq	r0, r0, #32, 2
    2fc8:	00000076 	andeq	r0, r0, r6, ror r0
    2fcc:	00013f19 	andeq	r3, r1, r9, lsl pc
    2fd0:	00951400 	addseq	r1, r5, r0, lsl #8
    2fd4:	00001c00 	andeq	r1, r0, r0, lsl #24
    2fd8:	181b0100 	ldmdane	fp, {r8}
    2fdc:	1a000005 	bne	2ff8 <_start-0x5008>
    2fe0:	0000016a 	andeq	r0, r0, sl, ror #2
    2fe4:	000020a0 	andeq	r2, r0, r0, lsr #1
    2fe8:	00015f1b 	andeq	r5, r1, fp, lsl pc
    2fec:	1b540100 	blne	15033f4 <__bss_end__+0x14f8f54>
    2ff0:	00000156 	andeq	r0, r0, r6, asr r1
    2ff4:	40007708 	andmi	r7, r0, r8, lsl #14
    2ff8:	1aff081a 	bne	fffc5068 <__bss_end__+0xfffbabc8>
    2ffc:	014b1b9f 			; <UNDEFINED> instruction: 0x014b1b9f
    3000:	56010000 	strpl	r0, [r1], -r0
    3004:	00011119 	andeq	r1, r1, r9, lsl r1
    3008:	00952000 	addseq	r2, r5, r0
    300c:	00001000 	andeq	r1, r0, r0
    3010:	ff1a0200 			; <UNDEFINED> instruction: 0xff1a0200
    3014:	1a000004 	bne	302c <_start-0x4fd4>
    3018:	00000128 	andeq	r0, r0, r8, lsr #2
    301c:	000020c7 	andeq	r2, r0, r7, asr #1
    3020:	00011d1b 	andeq	r1, r1, fp, lsl sp
    3024:	1d540100 	ldfnee	f0, [r4, #-0]
    3028:	00009520 	andeq	r9, r0, r0, lsr #10
    302c:	00000004 	andeq	r0, r0, r4
    3030:	0001321e 	andeq	r3, r1, lr, lsl r2
    3034:	0020ee00 	eoreq	lr, r0, r0, lsl #28
    3038:	1f000000 	svcne	0x00000000
    303c:	00009520 	andeq	r9, r0, r0, lsr #10
    3040:	00001159 	andeq	r1, r0, r9, asr r1
    3044:	04510120 	ldrbeq	r0, [r1], #-288	; 0x120
    3048:	1a400077 	bne	100322c <__bss_end__+0xff8d8c>
    304c:	02500120 	subseq	r0, r0, #32, 2
    3050:	00000076 	andeq	r0, r0, r6, ror r0
    3054:	00013f19 	andeq	r3, r1, r9, lsl pc
    3058:	00953400 	addseq	r3, r5, r0, lsl #8
    305c:	00001c00 	andeq	r1, r0, r0, lsl #24
    3060:	a21d0100 	andsge	r0, sp, #0, 2
    3064:	1a000005 	bne	3080 <_start-0x4f80>
    3068:	0000016a 	andeq	r0, r0, sl, ror #2
    306c:	00002101 	andeq	r2, r0, r1, lsl #2
    3070:	00015f1b 	andeq	r5, r1, fp, lsl pc
    3074:	1b540100 	blne	150347c <__bss_end__+0x14f8fdc>
    3078:	00000156 	andeq	r0, r0, r6, asr r1
    307c:	08007709 	stmdaeq	r0, {r0, r3, r8, r9, sl, ip, sp, lr}
    3080:	ff081a20 			; <UNDEFINED> instruction: 0xff081a20
    3084:	4b1b9f1a 	blmi	6eacf4 <__bss_end__+0x6e0854>
    3088:	01000001 	tsteq	r0, r1
    308c:	01111956 	tsteq	r1, r6, asr r9
    3090:	95400000 	strbls	r0, [r0, #-0]
    3094:	00100000 	andseq	r0, r0, r0
    3098:	1a020000 	bne	830a0 <__bss_end__+0x78c00>
    309c:	00000588 	andeq	r0, r0, r8, lsl #11
    30a0:	0001281a 	andeq	r2, r1, sl, lsl r8
    30a4:	00212b00 	eoreq	r2, r1, r0, lsl #22
    30a8:	011d1b00 	tsteq	sp, r0, lsl #22
    30ac:	54010000 	strpl	r0, [r1], #-0
    30b0:	0095401d 	addseq	r4, r5, sp, lsl r0
    30b4:	00000400 	andeq	r0, r0, r0, lsl #8
    30b8:	01321e00 	teqeq	r2, r0, lsl #28
    30bc:	21550000 	cmpcs	r5, r0
    30c0:	00000000 	andeq	r0, r0, r0
    30c4:	0095401f 	addseq	r4, r5, pc, lsl r0
    30c8:	00115900 	andseq	r5, r1, r0, lsl #18
    30cc:	51012000 	mrspl	r2, (UNDEF: 1)
    30d0:	08007705 	stmdaeq	r0, {r0, r2, r8, r9, sl, ip, sp, lr}
    30d4:	01201a20 	teqeq	r0, r0, lsr #20
    30d8:	00760250 	rsbseq	r0, r6, r0, asr r2
    30dc:	3f190000 	svccc	0x00190000
    30e0:	54000001 	strpl	r0, [r0], #-1
    30e4:	1c000095 	stcne	0, cr0, [r0], {149}	; 0x95
    30e8:	01000000 	mrseq	r0, (UNDEF: 0)
    30ec:	00062c1f 	andeq	r2, r6, pc, lsl ip
    30f0:	016a1a00 	cmneq	sl, r0, lsl #20
    30f4:	21680000 	cmncs	r8, r0
    30f8:	5f1b0000 	svcpl	0x001b0000
    30fc:	01000001 	tsteq	r0, r1
    3100:	01561b54 	cmpeq	r6, r4, asr fp
    3104:	77090000 	strvc	r0, [r9, -r0]
    3108:	1a400800 	bne	1005110 <__bss_end__+0xffac70>
    310c:	9f1aff08 	svcls	0x001aff08
    3110:	00014b1b 	andeq	r4, r1, fp, lsl fp
    3114:	19560100 	ldmdbne	r6, {r8}^
    3118:	00000111 	andeq	r0, r0, r1, lsl r1
    311c:	00009560 	andeq	r9, r0, r0, ror #10
    3120:	00000010 	andeq	r0, r0, r0, lsl r0
    3124:	06121a02 	ldreq	r1, [r2], -r2, lsl #20
    3128:	281a0000 	ldmdacs	sl, {}	; <UNPREDICTABLE>
    312c:	8a000001 	bhi	3138 <_start-0x4ec8>
    3130:	1b000021 	blne	31bc <_start-0x4e44>
    3134:	0000011d 	andeq	r0, r0, sp, lsl r1
    3138:	601d5401 	andsvs	r5, sp, r1, lsl #8
    313c:	04000095 	streq	r0, [r0], #-149	; 0x95
    3140:	1e000000 	cdpne	0, 0, cr0, cr0, cr0, {0}
    3144:	00000132 	andeq	r0, r0, r2, lsr r1
    3148:	000021ac 	andeq	r2, r0, ip, lsr #3
    314c:	601f0000 	andsvs	r0, pc, r0
    3150:	59000095 	stmdbpl	r0, {r0, r2, r4, r7}
    3154:	20000011 	andcs	r0, r0, r1, lsl r0
    3158:	77055101 	strvc	r5, [r5, -r1, lsl #2]
    315c:	1a400800 	bne	1005164 <__bss_end__+0xffacc4>
    3160:	02500120 	subseq	r0, r0, #32, 2
    3164:	00000076 	andeq	r0, r0, r6, ror r0
    3168:	00013f19 	andeq	r3, r1, r9, lsl pc
    316c:	00957400 	addseq	r7, r5, r0, lsl #8
    3170:	00001c00 	andeq	r1, r0, r0, lsl #24
    3174:	ac210100 	stfges	f0, [r1], #-0
    3178:	1b000006 	blne	3198 <_start-0x4e68>
    317c:	0000016a 	andeq	r0, r0, sl, ror #2
    3180:	5f1b5801 	svcpl	0x001b5801
    3184:	01000001 	tsteq	r0, r1
    3188:	01561a54 	cmpeq	r6, r4, asr sl
    318c:	21bf0000 			; <UNDEFINED> instruction: 0x21bf0000
    3190:	4b1b0000 	blmi	6c3198 <__bss_end__+0x6b8cf8>
    3194:	01000001 	tsteq	r0, r1
    3198:	01111956 	tsteq	r1, r6, asr r9
    319c:	95800000 	strls	r0, [r0]
    31a0:	00100000 	andseq	r0, r0, r0
    31a4:	1a020000 	bne	831ac <__bss_end__+0x78d0c>
    31a8:	00000692 	muleq	r0, r2, r6
    31ac:	0001281b 	andeq	r2, r1, fp, lsl r8
    31b0:	1b580100 	blne	16035b8 <__bss_end__+0x15f9118>
    31b4:	0000011d 	andeq	r0, r0, sp, lsl r1
    31b8:	801d5401 	andshi	r5, sp, r1, lsl #8
    31bc:	04000095 	streq	r0, [r0], #-149	; 0x95
    31c0:	1e000000 	cdpne	0, 0, cr0, cr0, cr0, {0}
    31c4:	00000132 	andeq	r0, r0, r2, lsr r1
    31c8:	000021f2 	strdeq	r2, [r0], -r2	; <UNPREDICTABLE>
    31cc:	801f0000 	andshi	r0, pc, r0
    31d0:	59000095 	stmdbpl	r0, {r0, r2, r4, r7}
    31d4:	20000011 	andcs	r0, r0, r1, lsl r0
    31d8:	77055101 	strvc	r5, [r5, -r1, lsl #2]
    31dc:	1a800800 	bne	fe0051e4 <__bss_end__+0xfdffad44>
    31e0:	02500120 	subseq	r0, r0, #32, 2
    31e4:	00000076 	andeq	r0, r0, r6, ror r0
    31e8:	00013f21 	andeq	r3, r1, r1, lsr #30
    31ec:	00959400 	addseq	r9, r5, r0, lsl #8
    31f0:	00001c00 	andeq	r1, r0, r0, lsl #24
    31f4:	1b230100 	blne	8c35fc <__bss_end__+0x8b915c>
    31f8:	0000016a 	andeq	r0, r0, sl, ror #2
    31fc:	5f1b5501 	svcpl	0x001b5501
    3200:	01000001 	tsteq	r0, r1
    3204:	01561c54 	cmpeq	r6, r4, asr ip
    3208:	1b010000 	blne	43210 <__bss_end__+0x38d70>
    320c:	0000014b 	andeq	r0, r0, fp, asr #2
    3210:	11195601 	tstne	r9, r1, lsl #12
    3214:	a0000001 	andge	r0, r0, r1
    3218:	10000095 	mulne	r0, r5, r0
    321c:	02000000 	andeq	r0, r0, #0
    3220:	00070b1a 	andeq	r0, r7, sl, lsl fp
    3224:	01281b00 	teqeq	r8, r0, lsl #22
    3228:	55010000 	strpl	r0, [r1, #-0]
    322c:	00011d1b 	andeq	r1, r1, fp, lsl sp
    3230:	1d540100 	ldfnee	f0, [r4, #-0]
    3234:	000095a0 	andeq	r9, r0, r0, lsr #11
    3238:	00000004 	andeq	r0, r0, r4
    323c:	0001321e 	andeq	r3, r1, lr, lsl r2
    3240:	00220500 	eoreq	r0, r2, r0, lsl #10
    3244:	1f000000 	svcne	0x00000000
    3248:	000095a0 	andeq	r9, r0, r0, lsr #11
    324c:	00001159 	andeq	r1, r0, r9, asr r1
    3250:	01510120 	cmpeq	r1, r0, lsr #2
    3254:	50012031 	andpl	r2, r1, r1, lsr r0
    3258:	00007602 	andeq	r7, r0, r2, lsl #12
    325c:	04060000 	streq	r0, [r6], #-0
    3260:	000000d9 	ldrdeq	r0, [r0], -r9
    3264:	0008fb22 	andeq	pc, r8, r2, lsr #22
    3268:	25270100 	strcs	r0, [r7, #-256]!	; 0x100
    326c:	03000000 	movweq	r0, #0
    3270:	00000762 	andeq	r0, r0, r2, ror #14
    3274:	0078720f 	rsbseq	r7, r8, pc, lsl #4
    3278:	00252701 	eoreq	r2, r5, r1, lsl #14
    327c:	760f0000 	strvc	r0, [pc], -r0
    3280:	25270100 	strcs	r0, [r7, #-256]!	; 0x100
    3284:	0e000000 	cdpeq	0, 0, cr0, cr0, cr0, {0}
    3288:	00000888 	andeq	r0, r0, r8, lsl #17
    328c:	002c2701 	eoreq	r2, ip, r1, lsl #14
    3290:	11110000 	tstne	r1, r0
    3294:	01000005 	tsteq	r0, r5
    3298:	00002c28 	andeq	r2, r0, r8, lsr #24
    329c:	29230000 	stmdbcs	r3!, {}	; <UNPREDICTABLE>
    32a0:	01000008 	tsteq	r0, r8
    32a4:	00002534 	andeq	r2, r0, r4, lsr r5
    32a8:	0095b400 	addseq	fp, r5, r0, lsl #8
    32ac:	0001c800 	andeq	ip, r1, r0, lsl #16
    32b0:	1e9c0100 	fmlnee	f0, f4, f0
    32b4:	1300000b 	movwne	r0, #11
    32b8:	000004c4 	andeq	r0, r0, r4, asr #9
    32bc:	07223401 	streq	r3, [r2, -r1, lsl #8]!
    32c0:	22180000 	andscs	r0, r8, #0
    32c4:	88130000 	ldmdahi	r3, {}	; <UNPREDICTABLE>
    32c8:	01000008 	tsteq	r0, r8
    32cc:	00002534 	andeq	r2, r0, r4, lsr r5
    32d0:	00225d00 	eoreq	r5, r2, r0, lsl #26
    32d4:	78721500 	ldmdavc	r2!, {r8, sl, ip}^
    32d8:	25350100 	ldrcs	r0, [r5, #-256]!	; 0x100
    32dc:	01000000 	mrseq	r0, (UNDEF: 0)
    32e0:	00731655 	rsbseq	r1, r3, r5, asr r6
    32e4:	002c3c01 	eoreq	r3, ip, r1, lsl #24
    32e8:	227b0000 	rsbscs	r0, fp, #0
    32ec:	75160000 	ldrvc	r0, [r6, #-0]
    32f0:	683f0100 	ldmdavs	pc!, {r8}	; <UNPREDICTABLE>
    32f4:	8e000000 	cdphi	0, 0, cr0, cr0, cr0, {0}
    32f8:	16000022 	strne	r0, [r0], -r2, lsr #32
    32fc:	4001006e 	andmi	r0, r1, lr, rrx
    3300:	0000002c 	andeq	r0, r0, ip, lsr #32
    3304:	000022a1 	andeq	r2, r0, r1, lsr #5
    3308:	01006316 	tsteq	r0, r6, lsl r3
    330c:	00002c41 	andeq	r2, r0, r1, asr #24
    3310:	0022b800 	eoreq	fp, r2, r0, lsl #16
    3314:	07281900 	streq	r1, [r8, -r0, lsl #18]!
    3318:	95c80000 	strbls	r0, [r8]
    331c:	00340000 	eorseq	r0, r4, r0
    3320:	38010000 	stmdacc	r1, {}	; <UNPREDICTABLE>
    3324:	0000083c 	andeq	r0, r0, ip, lsr r8
    3328:	00074b1a 	andeq	r4, r7, sl, lsl fp
    332c:	0022e200 	eoreq	lr, r2, r0, lsl #4
    3330:	07421c00 	strbeq	r1, [r2, -r0, lsl #24]
    3334:	1b000000 	blne	333c <_start-0x4cc4>
    3338:	00000738 	andeq	r0, r0, r8, lsr r7
    333c:	c81d5501 	ldmdagt	sp, {r0, r8, sl, ip, lr}
    3340:	34000095 	strcc	r0, [r0], #-149	; 0x95
    3344:	1e000000 	cdpne	0, 0, cr0, cr0, cr0, {0}
    3348:	00000756 	andeq	r0, r0, r6, asr r7
    334c:	00002300 	andeq	r2, r0, r0, lsl #6
    3350:	0095cc24 	addseq	ip, r5, r4, lsr #24
    3354:	00116f00 	andseq	r6, r1, r0, lsl #30
    3358:	95d82500 	ldrbls	r2, [r8, #1280]	; 0x500
    335c:	117a0000 	cmnne	sl, r0
    3360:	08310000 	ldmdaeq	r1!, {}	; <UNPREDICTABLE>
    3364:	01200000 	teqeq	r0, r0
    3368:	00750250 	rsbseq	r0, r5, r0, asr r2
    336c:	95e42400 	strbls	r2, [r4, #1024]!	; 0x400
    3370:	116f0000 	cmnne	pc, r0
    3374:	00000000 	andeq	r0, r0, r0
    3378:	00960417 	addseq	r0, r6, r7, lsl r4
    337c:	00000400 	andeq	r0, r0, r0, lsl #8
    3380:	00085900 	andeq	r5, r8, r0, lsl #18
    3384:	021f2600 	andseq	r2, pc, #0, 12
    3388:	3c010000 	stccc	0, cr0, [r1], {-0}
    338c:	0000002c 	andeq	r0, r0, ip, lsr #32
    3390:	0000231e 	andeq	r2, r0, lr, lsl r3
    3394:	01111900 	tsteq	r1, r0, lsl #18
    3398:	96100000 	ldrls	r0, [r0], -r0
    339c:	00100000 	andseq	r0, r0, r0
    33a0:	44010000 	strmi	r0, [r1], #-0
    33a4:	00000892 	muleq	r0, r2, r8
    33a8:	0001281a 	andeq	r2, r1, sl, lsl r8
    33ac:	00233100 	eoreq	r3, r3, r0, lsl #2
    33b0:	011d1a00 	tsteq	sp, r0, lsl #20
    33b4:	23560000 	cmpcs	r6, #0
    33b8:	101d0000 	andsne	r0, sp, r0
    33bc:	04000096 	streq	r0, [r0], #-150	; 0x96
    33c0:	1e000000 	cdpne	0, 0, cr0, cr0, cr0, {0}
    33c4:	00000132 	andeq	r0, r0, r2, lsr r1
    33c8:	00002369 	andeq	r2, r0, r9, ror #6
    33cc:	11190000 	tstne	r9, r0
    33d0:	30000001 	andcc	r0, r0, r1
    33d4:	10000096 	mulne	r0, r6, r0
    33d8:	01000000 	mrseq	r0, (UNDEF: 0)
    33dc:	0008cb48 	andeq	ip, r8, r8, asr #22
    33e0:	01281a00 	teqeq	r8, r0, lsl #20
    33e4:	237c0000 	cmncs	ip, #0
    33e8:	1d1a0000 	ldcne	0, cr0, [sl, #-0]
    33ec:	8f000001 	svchi	0x00000001
    33f0:	1d000023 	stcne	0, cr0, [r0, #-140]	; 0xffffff74
    33f4:	00009630 	andeq	r9, r0, r0, lsr r6
    33f8:	00000004 	andeq	r0, r0, r4
    33fc:	0001321e 	andeq	r3, r1, lr, lsl r2
    3400:	0023a200 	eoreq	sl, r3, r0, lsl #4
    3404:	19000000 	stmdbne	r0, {}	; <UNPREDICTABLE>
    3408:	00000111 	andeq	r0, r0, r1, lsl r1
    340c:	00009654 	andeq	r9, r0, r4, asr r6
    3410:	00000010 	andeq	r0, r0, r0, lsl r0
    3414:	09044b01 	stmdbeq	r4, {r0, r8, r9, fp, lr}
    3418:	281a0000 	ldmdacs	sl, {}	; <UNPREDICTABLE>
    341c:	b5000001 	strlt	r0, [r0, #-1]
    3420:	1a000023 	bne	34b4 <_start-0x4b4c>
    3424:	0000011d 	andeq	r0, r0, sp, lsl r1
    3428:	000023c8 	andeq	r2, r0, r8, asr #7
    342c:	0096541d 	addseq	r5, r6, sp, lsl r4
    3430:	00000400 	andeq	r0, r0, r0, lsl #8
    3434:	01321e00 	teqeq	r2, r0, lsl #28
    3438:	23db0000 	bicscs	r0, fp, #0
    343c:	00000000 	andeq	r0, r0, r0
    3440:	00011119 	andeq	r1, r1, r9, lsl r1
    3444:	00967800 	addseq	r7, r6, r0, lsl #16
    3448:	00001000 	andeq	r1, r0, r0
    344c:	3d4e0100 	stfcce	f0, [lr, #-0]
    3450:	1a000009 	bne	347c <_start-0x4b84>
    3454:	00000128 	andeq	r0, r0, r8, lsr #2
    3458:	000023ee 	andeq	r2, r0, lr, ror #7
    345c:	00011d1a 	andeq	r1, r1, sl, lsl sp
    3460:	00240100 	eoreq	r0, r4, r0, lsl #2
    3464:	96781d00 	ldrbtls	r1, [r8], -r0, lsl #26
    3468:	00040000 	andeq	r0, r4, r0
    346c:	321e0000 	andscc	r0, lr, #0
    3470:	14000001 	strne	r0, [r0], #-1
    3474:	00000024 	andeq	r0, r0, r4, lsr #32
    3478:	01111900 	tsteq	r1, r0, lsl #18
    347c:	969c0000 	ldrls	r0, [ip], r0
    3480:	00100000 	andseq	r0, r0, r0
    3484:	51010000 	mrspl	r0, (UNDEF: 1)
    3488:	00000976 	andeq	r0, r0, r6, ror r9
    348c:	0001281a 	andeq	r2, r1, sl, lsl r8
    3490:	00242700 	eoreq	r2, r4, r0, lsl #14
    3494:	011d1a00 	tsteq	sp, r0, lsl #20
    3498:	243a0000 	ldrtcs	r0, [sl], #-0
    349c:	9c1d0000 	ldcls	0, cr0, [sp], {-0}
    34a0:	04000096 	streq	r0, [r0], #-150	; 0x96
    34a4:	1e000000 	cdpne	0, 0, cr0, cr0, cr0, {0}
    34a8:	00000132 	andeq	r0, r0, r2, lsr r1
    34ac:	0000244d 	andeq	r2, r0, sp, asr #8
    34b0:	11190000 	tstne	r9, r0
    34b4:	c0000001 	andgt	r0, r0, r1
    34b8:	10000096 	mulne	r0, r6, r0
    34bc:	01000000 	mrseq	r0, (UNDEF: 0)
    34c0:	0009af54 	andeq	sl, r9, r4, asr pc
    34c4:	01281a00 	teqeq	r8, r0, lsl #20
    34c8:	24600000 	strbtcs	r0, [r0], #-0
    34cc:	1d1a0000 	ldcne	0, cr0, [sl, #-0]
    34d0:	73000001 	movwvc	r0, #1
    34d4:	1d000024 	stcne	0, cr0, [r0, #-144]	; 0xffffff70
    34d8:	000096c0 	andeq	r9, r0, r0, asr #13
    34dc:	00000004 	andeq	r0, r0, r4
    34e0:	0001321e 	andeq	r3, r1, lr, lsl r2
    34e4:	00248600 	eoreq	r8, r4, r0, lsl #12
    34e8:	19000000 	stmdbne	r0, {}	; <UNPREDICTABLE>
    34ec:	00000111 	andeq	r0, r0, r1, lsl r1
    34f0:	000096e4 	andeq	r9, r0, r4, ror #13
    34f4:	00000010 	andeq	r0, r0, r0, lsl r0
    34f8:	09e85701 	stmibeq	r8!, {r0, r8, r9, sl, ip, lr}^
    34fc:	281a0000 	ldmdacs	sl, {}	; <UNPREDICTABLE>
    3500:	99000001 	stmdbls	r0, {r0}
    3504:	1a000024 	bne	359c <_start-0x4a64>
    3508:	0000011d 	andeq	r0, r0, sp, lsl r1
    350c:	000024ac 	andeq	r2, r0, ip, lsr #9
    3510:	0096e41d 	addseq	lr, r6, sp, lsl r4
    3514:	00000400 	andeq	r0, r0, r0, lsl #8
    3518:	01321e00 	teqeq	r2, r0, lsl #28
    351c:	24bf0000 	ldrtcs	r0, [pc], #0	; 3524 <_start-0x4adc>
    3520:	00000000 	andeq	r0, r0, r0
    3524:	00011119 	andeq	r1, r1, r9, lsl r1
    3528:	00970800 	addseq	r0, r7, r0, lsl #16
    352c:	00001000 	andeq	r1, r0, r0
    3530:	1d5a0100 	ldfnee	f0, [sl, #-0]
    3534:	1a00000a 	bne	3564 <_start-0x4a9c>
    3538:	00000128 	andeq	r0, r0, r8, lsr #2
    353c:	000024d2 	ldrdeq	r2, [r0], -r2	; <UNPREDICTABLE>
    3540:	00011d27 	andeq	r1, r1, r7, lsr #26
    3544:	97081d00 	strls	r1, [r8, -r0, lsl #26]
    3548:	00040000 	andeq	r0, r4, r0
    354c:	321e0000 	andscc	r0, lr, #0
    3550:	e5000001 	str	r0, [r0, #-1]
    3554:	00000024 	andeq	r0, r0, r4, lsr #32
    3558:	07281900 	streq	r1, [r8, -r0, lsl #18]!
    355c:	97280000 	strls	r0, [r8, -r0]!
    3560:	00340000 	eorseq	r0, r4, r0
    3564:	61010000 	mrsvs	r0, (UNDEF: 1)
    3568:	00000a81 	andeq	r0, r0, r1, lsl #21
    356c:	00074b27 	andeq	r4, r7, r7, lsr #22
    3570:	07421a00 	strbeq	r1, [r2, -r0, lsl #20]
    3574:	24f80000 	ldrbtcs	r0, [r8], #0
    3578:	381a0000 	ldmdacc	sl, {}	; <UNPREDICTABLE>
    357c:	18000007 	stmdane	r0, {r0, r1, r2}
    3580:	1d000025 	stcne	0, cr0, [r0, #-148]	; 0xffffff6c
    3584:	00009728 	andeq	r9, r0, r8, lsr #14
    3588:	00000034 	andeq	r0, r0, r4, lsr r0
    358c:	0007561e 	andeq	r5, r7, lr, lsl r6
    3590:	00253600 	eoreq	r3, r5, r0, lsl #12
    3594:	972c2400 	strls	r2, [ip, -r0, lsl #8]!
    3598:	116f0000 	cmnne	pc, r0
    359c:	38250000 	stmdacc	r5!, {}	; <UNPREDICTABLE>
    35a0:	7a000097 	bvc	3804 <_start-0x47fc>
    35a4:	76000011 			; <UNDEFINED> instruction: 0x76000011
    35a8:	2000000a 	andcs	r0, r0, sl
    35ac:	75025001 	strvc	r5, [r2, #-1]
    35b0:	44240000 	strtmi	r0, [r4], #-0
    35b4:	6f000097 	svcvs	0x00000097
    35b8:	00000011 	andeq	r0, r0, r1, lsl r0
    35bc:	962c2500 	strtls	r2, [ip], -r0, lsl #10
    35c0:	117a0000 	cmnne	sl, r0
    35c4:	0a950000 	beq	fe5435cc <__bss_end__+0xfe53912c>
    35c8:	01200000 	teqeq	r0, r0
    35cc:	00750250 	rsbseq	r0, r5, r0, asr r2
    35d0:	964c2500 	strbls	r2, [ip], -r0, lsl #10
    35d4:	117a0000 	cmnne	sl, r0
    35d8:	0aa90000 	beq	fea435e0 <__bss_end__+0xfea39140>
    35dc:	01200000 	teqeq	r0, r0
    35e0:	00750250 	rsbseq	r0, r5, r0, asr r2
    35e4:	96702500 	ldrbtls	r2, [r0], -r0, lsl #10
    35e8:	117a0000 	cmnne	sl, r0
    35ec:	0abd0000 	beq	fef435f4 <__bss_end__+0xfef39154>
    35f0:	01200000 	teqeq	r0, r0
    35f4:	00750250 	rsbseq	r0, r5, r0, asr r2
    35f8:	96942500 	ldrls	r2, [r4], r0, lsl #10
    35fc:	117a0000 	cmnne	sl, r0
    3600:	0ad10000 	beq	ff443608 <__bss_end__+0xff439168>
    3604:	01200000 	teqeq	r0, r0
    3608:	00750250 	rsbseq	r0, r5, r0, asr r2
    360c:	96b82500 	ldrtls	r2, [r8], r0, lsl #10
    3610:	117a0000 	cmnne	sl, r0
    3614:	0ae50000 	beq	ff94361c <__bss_end__+0xff93917c>
    3618:	01200000 	teqeq	r0, r0
    361c:	00750250 	rsbseq	r0, r5, r0, asr r2
    3620:	96dc2500 	ldrbls	r2, [ip], r0, lsl #10
    3624:	117a0000 	cmnne	sl, r0
    3628:	0af90000 	beq	ffe43630 <__bss_end__+0xffe39190>
    362c:	01200000 	teqeq	r0, r0
    3630:	00750250 	rsbseq	r0, r5, r0, asr r2
    3634:	97002500 	strls	r2, [r0, -r0, lsl #10]
    3638:	117a0000 	cmnne	sl, r0
    363c:	0b0d0000 	bleq	343644 <__bss_end__+0x3391a4>
    3640:	01200000 	teqeq	r0, r0
    3644:	00750250 	rsbseq	r0, r5, r0, asr r2
    3648:	97201f00 	strls	r1, [r0, -r0, lsl #30]!
    364c:	117a0000 	cmnne	sl, r0
    3650:	01200000 	teqeq	r0, r0
    3654:	00750250 	rsbseq	r0, r5, r0, asr r2
    3658:	3e230000 	cdpcc	0, 2, cr0, cr3, cr0, {0}
    365c:	01000008 	tsteq	r0, r8
    3660:	0000256c 	andeq	r2, r0, ip, ror #10
    3664:	00977c00 	addseq	r7, r7, r0, lsl #24
    3668:	0000a400 	andeq	sl, r0, r0, lsl #8
    366c:	0c9c0100 	ldfeqs	f0, [ip], {0}
    3670:	1400000c 	strne	r0, [r0], #-12
    3674:	6c010075 	stcvs	0, cr0, [r1], {117}	; 0x75
    3678:	00000722 	andeq	r0, r0, r2, lsr #14
    367c:	00002554 	andeq	r2, r0, r4, asr r5
    3680:	66756214 			; <UNDEFINED> instruction: 0x66756214
    3684:	0c6c0100 	stfeqe	f0, [ip], #-0
    3688:	9600000c 	strls	r0, [r0], -ip
    368c:	13000025 	movwne	r0, #37	; 0x25
    3690:	000008d0 	ldrdeq	r0, [r0], -r0	; <UNPREDICTABLE>
    3694:	00686c01 	rsbeq	r6, r8, r1, lsl #24
    3698:	25d80000 	ldrbcs	r0, [r8]
    369c:	65140000 	ldrvs	r0, [r4, #-0]
    36a0:	0100646e 	tsteq	r0, lr, ror #8
    36a4:	00004f6c 	andeq	r4, r0, ip, ror #30
    36a8:	00261f00 	eoreq	r1, r6, r0, lsl #30
    36ac:	08d72800 	ldmeq	r7, {fp, sp}^
    36b0:	6c010000 	stcvs	0, cr0, [r1], {-0}
    36b4:	00000068 	andeq	r0, r0, r8, rrx
    36b8:	29009102 	stmdbcs	r0, {r1, r8, ip, pc}
    36bc:	00000171 	andeq	r0, r0, r1, ror r1
    36c0:	00000c22 	andeq	r0, r0, r2, lsr #24
    36c4:	9f7c0305 	svcls	0x007c0305
    36c8:	69160000 	ldmdbvs	r6, {}	; <UNPREDICTABLE>
    36cc:	25700100 	ldrbcs	r0, [r0, #-256]!	; 0x100
    36d0:	59000000 	stmdbpl	r0, {}	; <UNPREDICTABLE>
    36d4:	26000026 	strcs	r0, [r0], -r6, lsr #32
    36d8:	000008b3 			; <UNDEFINED> instruction: 0x000008b3
    36dc:	004f7101 	subeq	r7, pc, r1, lsl #2
    36e0:	26830000 	strcs	r0, [r3], r0
    36e4:	a0240000 	eorge	r0, r4, r0
    36e8:	8f000097 	svchi	0x00000097
    36ec:	25000011 	strcs	r0, [r0, #-17]
    36f0:	000097bc 			; <UNDEFINED> instruction: 0x000097bc
    36f4:	00001196 	muleq	r0, r6, r1
    36f8:	00000bec 	andeq	r0, r0, ip, ror #23
    36fc:	02530120 	subseq	r0, r3, #32, 2
    3700:	01206d08 	teqeq	r0, r8, lsl #26
    3704:	7c030552 	cfstr32vc	mvfx0, [r3], {82}	; 0x52
    3708:	2000009f 	mulcs	r0, pc, r0	; <UNPREDICTABLE>
    370c:	03055101 	movweq	r5, #20737	; 0x5101
    3710:	00009ff4 	strdeq	r9, [r0], -r4
    3714:	05500120 	ldrbeq	r0, [r0, #-288]	; 0x120
    3718:	009e7c03 	addseq	r7, lr, r3, lsl #24
    371c:	7d022000 	stcvc	0, cr2, [r2, #-0]
    3720:	08030500 	stmdaeq	r3, {r8, sl}
    3724:	000000a0 	andeq	r0, r0, r0, lsr #1
    3728:	0097c024 	addseq	ip, r7, r4, lsr #32
    372c:	0011ac00 	andseq	sl, r1, r0, lsl #24
    3730:	97dc1f00 	ldrbls	r1, [ip, r0, lsl #30]
    3734:	07620000 	strbeq	r0, [r2, -r0]!
    3738:	01200000 	teqeq	r0, r0
    373c:	007a0251 	rsbseq	r0, sl, r1, asr r2
    3740:	02500120 	subseq	r0, r0, #32, 2
    3744:	00000078 	andeq	r0, r0, r8, ror r0
    3748:	004f0406 	subeq	r0, pc, r6, lsl #8
    374c:	902a0000 	eorls	r0, sl, r0
    3750:	22000000 	andcs	r0, r0, #0
    3754:	2b00000c 	blcs	378c <_start-0x4874>
    3758:	00000081 	andeq	r0, r0, r1, lsl #1
    375c:	12070012 	andne	r0, r7, #18
    3760:	2300000c 	movwcs	r0, #12
    3764:	000008bb 			; <UNDEFINED> instruction: 0x000008bb
    3768:	00258001 	eoreq	r8, r5, r1
    376c:	98200000 	stmdals	r0!, {}	; <UNPREDICTABLE>
    3770:	00900000 	addseq	r0, r0, r0
    3774:	9c010000 	stcls	0, cr0, [r1], {-0}
    3778:	00000cf8 	strdeq	r0, [r0], -r8
    377c:	01007514 	tsteq	r0, r4, lsl r5
    3780:	00072280 	andeq	r2, r7, r0, lsl #5
    3784:	00269600 	eoreq	r9, r6, r0, lsl #12
    3788:	75621400 	strbvc	r1, [r2, #-1024]!	; 0x400
    378c:	80010066 	andhi	r0, r1, r6, rrx
    3790:	00000c0c 	andeq	r0, r0, ip, lsl #24
    3794:	000026d8 	ldrdeq	r2, [r0], -r8
    3798:	0008d013 	andeq	sp, r8, r3, lsl r0
    379c:	68810100 	stmvs	r1, {r8}
    37a0:	1a000000 	bne	37a8 <_start-0x4858>
    37a4:	13000027 	movwne	r0, #39	; 0x27
    37a8:	000008d7 	ldrdeq	r0, [r0], -r7
    37ac:	00688101 	rsbeq	r8, r8, r1, lsl #2
    37b0:	27610000 	strbcs	r0, [r1, -r0]!
    37b4:	71290000 	teqvc	r9, r0
    37b8:	08000001 	stmdaeq	r0, {r0}
    37bc:	0500000d 	streq	r0, [r0, #-13]
    37c0:	009f9003 	addseq	r9, pc, r3
    37c4:	00691600 	rsbeq	r1, r9, r0, lsl #12
    37c8:	00258601 	eoreq	r8, r5, r1, lsl #12
    37cc:	27a30000 	strcs	r0, [r3, r0]!
    37d0:	40240000 	eormi	r0, r4, r0
    37d4:	8f000098 	svchi	0x00000098
    37d8:	25000011 	strcs	r0, [r0, #-17]
    37dc:	0000985c 	andeq	r9, r0, ip, asr r8
    37e0:	00001196 	muleq	r0, r6, r1
    37e4:	00000cd8 	ldrdeq	r0, [r0], -r8
    37e8:	02530120 	subseq	r0, r3, #32, 2
    37ec:	01208308 	teqeq	r0, r8, lsl #6
    37f0:	90030552 	andls	r0, r3, r2, asr r5
    37f4:	2000009f 	mulcs	r0, pc, r0	; <UNPREDICTABLE>
    37f8:	03055101 	movweq	r5, #20737	; 0x5101
    37fc:	00009ff4 	strdeq	r9, [r0], -r4
    3800:	05500120 	ldrbeq	r0, [r0, #-288]	; 0x120
    3804:	009e7c03 	addseq	r7, lr, r3, lsl #24
    3808:	7d022000 	stcvc	0, cr2, [r2, #-0]
    380c:	08030500 	stmdaeq	r3, {r8, sl}
    3810:	000000a0 	andeq	r0, r0, r0, lsr #1
    3814:	00986024 	addseq	r6, r8, r4, lsr #32
    3818:	0011ac00 	andseq	sl, r1, r0, lsl #24
    381c:	987c1f00 	ldmdals	ip!, {r8, r9, sl, fp, ip}^
    3820:	07620000 	strbeq	r0, [r2, -r0]!
    3824:	01200000 	teqeq	r0, r0
    3828:	00780251 	rsbseq	r0, r8, r1, asr r2
    382c:	02500120 	subseq	r0, r0, #32, 2
    3830:	00000077 	andeq	r0, r0, r7, ror r0
    3834:	0000902a 	andeq	r9, r0, sl, lsr #32
    3838:	000d0800 	andeq	r0, sp, r0, lsl #16
    383c:	00812b00 	addeq	r2, r1, r0, lsl #22
    3840:	00140000 	andseq	r0, r4, r0
    3844:	000cf807 	andeq	pc, ip, r7, lsl #16
    3848:	08742300 	ldmdaeq	r4!, {r8, r9, sp}^
    384c:	93010000 	movwls	r0, #4096	; 0x1000
    3850:	000000d9 	ldrdeq	r0, [r0], -r9
    3854:	000098b0 			; <UNDEFINED> instruction: 0x000098b0
    3858:	000000d4 	ldrdeq	r0, [r0], -r4
    385c:	0e329c01 	cdpeq	12, 3, cr9, cr2, cr1, {0}
    3860:	74140000 	ldrvc	r0, [r4], #-0
    3864:	93010078 	movwls	r0, #4216	; 0x1078
    3868:	0000004f 	andeq	r0, r0, pc, asr #32
    386c:	000027cd 	andeq	r2, r0, sp, asr #15
    3870:	00787214 	rsbseq	r7, r8, r4, lsl r2
    3874:	004f9301 	subeq	r9, pc, r1, lsl #6
    3878:	27ee0000 	strbcs	r0, [lr, r0]!
    387c:	fd130000 	ldc2	0, cr0, [r3, #-0]
    3880:	01000004 	tsteq	r0, r4
    3884:	00006893 	muleq	r0, r3, r8
    3888:	00280f00 	eoreq	r0, r8, r0, lsl #30
    388c:	080d2800 	stmdaeq	sp, {fp, sp}
    3890:	93010000 	movwls	r0, #4096	; 0x1000
    3894:	00000068 	andeq	r0, r0, r8, rrx
    3898:	2c009102 	stfcsd	f1, [r0], {2}
    389c:	007a686d 	rsbseq	r6, sl, sp, ror #16
    38a0:	002c9b01 	eoreq	r9, ip, r1, lsl #22
    38a4:	27000000 	strcs	r0, [r0, -r0]
    38a8:	5e2629b9 	mcrpl	9, 1, r2, cr6, cr9, {5}
    38ac:	01000008 	tsteq	r0, r8
    38b0:	00002c9c 	muleq	r0, ip, ip
    38b4:	00283900 	eoreq	r3, r8, r0, lsl #18
    38b8:	01712900 	cmneq	r1, r0, lsl #18
    38bc:	0e420000 	cdpeq	0, 4, cr0, cr2, cr0, {0}
    38c0:	03050000 	movweq	r0, #20480	; 0x5000
    38c4:	00009fa8 	andeq	r9, r0, r8, lsr #31
    38c8:	0098dc17 	addseq	sp, r8, r7, lsl ip
    38cc:	00000800 	andeq	r0, r0, r0, lsl #16
    38d0:	000da500 	andeq	sl, sp, r0, lsl #10
    38d4:	6e692d00 	cdpvs	13, 6, cr2, cr9, cr0, {0}
    38d8:	2c970100 	ldfcss	f0, [r7], {0}
    38dc:	01000000 	mrseq	r0, (UNDEF: 0)
    38e0:	98d42500 	ldmls	r4, {r8, sl, sp}^
    38e4:	11b30000 			; <UNDEFINED> instruction: 0x11b30000
    38e8:	0db90000 	ldceq	0, cr0, [r9]
    38ec:	01200000 	teqeq	r0, r0
    38f0:	00760250 	rsbseq	r0, r6, r0, asr r2
    38f4:	98dc2500 	ldmls	ip, {r8, sl, sp}^
    38f8:	11c40000 	bicne	r0, r4, r0
    38fc:	0dcd0000 	stcleq	0, cr0, [sp]
    3900:	01200000 	teqeq	r0, r0
    3904:	00780250 	rsbseq	r0, r8, r0, asr r2
    3908:	98f02500 	ldmls	r0!, {r8, sl, sp}^
    390c:	11590000 	cmpne	r9, r0
    3910:	0de60000 	stcleq	0, cr0, [r6]
    3914:	01200000 	teqeq	r0, r0
    3918:	20310151 	eorscs	r0, r1, r1, asr r1
    391c:	76025001 	strvc	r5, [r2], -r1
    3920:	34240000 	strtcc	r0, [r4], #-0
    3924:	8f000099 	svchi	0x00000099
    3928:	25000011 	strcs	r0, [r0, #-17]
    392c:	00009950 	andeq	r9, r0, r0, asr r9
    3930:	00001196 	muleq	r0, r6, r1
    3934:	00000e28 	andeq	r0, r0, r8, lsr #28
    3938:	02530120 	subseq	r0, r3, #32, 2
    393c:	01209d08 	teqeq	r0, r8, lsl #26
    3940:	a8030552 	stmdage	r3, {r1, r4, r6, r8, sl}
    3944:	2000009f 	mulcs	r0, pc, r0	; <UNPREDICTABLE>
    3948:	03055101 	movweq	r5, #20737	; 0x5101
    394c:	00009ff4 	strdeq	r9, [r0], -r4
    3950:	05500120 	ldrbeq	r0, [r0, #-288]	; 0x120
    3954:	009e7c03 	addseq	r7, lr, r3, lsl #24
    3958:	7d022000 	stcvc	0, cr2, [r2, #-0]
    395c:	14030500 	strne	r0, [r3], #-1280	; 0x500
    3960:	000000a0 	andeq	r0, r0, r0, lsr #1
    3964:	00995424 	addseq	r5, r9, r4, lsr #8
    3968:	0011ac00 	andseq	sl, r1, r0, lsl #24
    396c:	902a0000 	eorls	r0, sl, r0
    3970:	42000000 	andmi	r0, r0, #0
    3974:	2b00000e 	blcs	39b4 <_start-0x464c>
    3978:	00000081 	andeq	r0, r0, r1, lsl #1
    397c:	32070013 	andcc	r0, r7, #19
    3980:	2300000e 	movwcs	r0, #14
    3984:	00000851 	andeq	r0, r0, r1, asr r8
    3988:	0025a901 	eoreq	sl, r5, r1, lsl #18
    398c:	99840000 	stmibls	r4, {}	; <UNPREDICTABLE>
    3990:	003c0000 	eorseq	r0, ip, r0
    3994:	9c010000 	stcls	0, cr0, [r1], {-0}
    3998:	00000eea 	andeq	r0, r0, sl, ror #29
    399c:	0004c413 	andeq	ip, r4, r3, lsl r4
    39a0:	22a90100 	adccs	r0, r9, #0, 2
    39a4:	67000007 	strvs	r0, [r0, -r7]
    39a8:	16000028 	strne	r0, [r0], -r8, lsr #32
    39ac:	00736572 	rsbseq	r6, r3, r2, ror r5
    39b0:	0025aa01 	eoreq	sl, r5, r1, lsl #20
    39b4:	28880000 	stmcs	r8, {}	; <UNPREDICTABLE>
    39b8:	71290000 	teqvc	r9, r0
    39bc:	fa000001 	blx	39c8 <_start-0x4638>
    39c0:	0500000e 	streq	r0, [r0, #-14]
    39c4:	009fbc03 	addseq	fp, pc, r3, lsl #24
    39c8:	99902500 	ldmibls	r0, {r8, sl, sp}
    39cc:	07620000 	strbeq	r0, [r2, -r0]!
    39d0:	0ea80000 	cdpeq	0, 10, cr0, cr8, cr0, {0}
    39d4:	01200000 	teqeq	r0, r0
    39d8:	ff090251 			; <UNDEFINED> instruction: 0xff090251
    39dc:	03500120 	cmpeq	r0, #32, 2
    39e0:	005001f3 	ldrsheq	r0, [r0], #-19	; 0xffffffed
    39e4:	00999c24 	addseq	r9, r9, r4, lsr #24
    39e8:	00118f00 	andseq	r8, r1, r0, lsl #30
    39ec:	99b02500 	ldmibls	r0!, {r8, sl, sp}
    39f0:	11960000 	orrsne	r0, r6, r0
    39f4:	0ee00000 	cdpeq	0, 14, cr0, cr0, cr0, {0}
    39f8:	01200000 	teqeq	r0, r0
    39fc:	ac080253 	sfmge	f0, 4, [r8], {83}	; 0x53
    3a00:	05520120 	ldrbeq	r0, [r2, #-288]	; 0x120
    3a04:	009fbc03 	addseq	fp, pc, r3, lsl #24
    3a08:	51012000 	mrspl	r2, (UNDEF: 1)
    3a0c:	9ff40305 	svcls	0x00f40305
    3a10:	01200000 	teqeq	r0, r0
    3a14:	48030550 	stmdami	r3, {r4, r6, r8, sl}
    3a18:	000000a0 	andeq	r0, r0, r0, lsr #1
    3a1c:	0099b424 	addseq	fp, r9, r4, lsr #8
    3a20:	0011ac00 	andseq	sl, r1, r0, lsl #24
    3a24:	902a0000 	eorls	r0, sl, r0
    3a28:	fa000000 	blx	3a30 <_start-0x45d0>
    3a2c:	2b00000e 	blcs	3a6c <_start-0x4594>
    3a30:	00000081 	andeq	r0, r0, r1, lsl #1
    3a34:	ea07000c 	b	1c3a6c <__bss_end__+0x1b95cc>
    3a38:	1200000e 	andne	r0, r0, #14
    3a3c:	00000895 	muleq	r0, r5, r8
    3a40:	99c0b001 	stmibls	r0, {r0, ip, sp, pc}^
    3a44:	002c0000 	eoreq	r0, ip, r0
    3a48:	9c010000 	stcls	0, cr0, [r1], {-0}
    3a4c:	00000f43 	andeq	r0, r0, r3, asr #30
    3a50:	0004c413 	andeq	ip, r4, r3, lsl r4
    3a54:	22b00100 	adcscs	r0, r0, #0, 2
    3a58:	9b000007 	blls	3a7c <_start-0x4584>
    3a5c:	14000028 	strne	r0, [r0], #-40	; 0x28
    3a60:	0067736d 	rsbeq	r7, r7, sp, ror #6
    3a64:	0097b001 	addseq	fp, r7, r1
    3a68:	28b90000 	ldmcs	r9!, {}	; <UNPREDICTABLE>
    3a6c:	d81f0000 	ldmdale	pc, {}	; <UNPREDICTABLE>
    3a70:	76000099 			; <UNDEFINED> instruction: 0x76000099
    3a74:	20000001 	andcs	r0, r0, r1
    3a78:	75025001 	strvc	r5, [r2, #-1]
    3a7c:	23000000 	movwcs	r0, #0
    3a80:	000004c9 	andeq	r0, r0, r9, asr #9
    3a84:	0025b901 	eoreq	fp, r5, r1, lsl #18
    3a88:	99ec0000 	stmibls	ip!, {}^	; <UNPREDICTABLE>
    3a8c:	00900000 	addseq	r0, r0, r0
    3a90:	9c010000 	stcls	0, cr0, [r1], {-0}
    3a94:	00001041 	andeq	r1, r0, r1, asr #32
    3a98:	0004c413 	andeq	ip, r4, r3, lsl r4
    3a9c:	22b90100 	adcscs	r0, r9, #0, 2
    3aa0:	d7000007 	strle	r0, [r0, -r7]
    3aa4:	2e000028 	cdpcs	0, 0, cr0, cr0, cr8, {1}
    3aa8:	00746d66 	rsbseq	r6, r4, r6, ror #26
    3aac:	0097b901 	addseq	fp, r7, r1, lsl #18
    3ab0:	91020000 	mrsls	r0, (UNDEF: 2)
    3ab4:	62152f74 	andsvs	r2, r5, #116, 30	; 0x1d0
    3ab8:	01006675 	tsteq	r0, r5, ror r6
    3abc:	001041ba 			; <UNDEFINED> instruction: 0x001041ba
    3ac0:	9c910300 	ldcls	3, cr0, [r1], {0}
    3ac4:	0382187c 	orreq	r1, r2, #124, 16	; 0x7c0000
    3ac8:	bc010000 	stclt	0, cr0, [r1], {-0}
    3acc:	00000106 	andeq	r0, r0, r6, lsl #2
    3ad0:	7c989103 	ldfvcd	f1, [r8], {3}
    3ad4:	007a7316 	rsbseq	r7, sl, r6, lsl r3
    3ad8:	0025be01 	eoreq	fp, r5, r1, lsl #28
    3adc:	29030000 	stmdbcs	r3, {}	; <UNPREDICTABLE>
    3ae0:	71290000 	teqvc	r9, r0
    3ae4:	62000001 	andvs	r0, r0, #1
    3ae8:	05000010 	streq	r0, [r0, #-16]
    3aec:	009fcc03 	addseq	ip, pc, r3, lsl #24
    3af0:	9a142500 	bls	50cef8 <__bss_end__+0x502a58>
    3af4:	11d50000 	bicsne	r0, r5, r0
    3af8:	0fde0000 	svceq	0x00de0000
    3afc:	01200000 	teqeq	r0, r0
    3b00:	58910253 	ldmpl	r1, {r0, r1, r4, r6, r9}
    3b04:	03520120 	cmpeq	r2, #32, 2
    3b08:	20065491 	mulcs	r6, r1, r4
    3b0c:	0a035101 	beq	d7f18 <__bss_end__+0xcda78>
    3b10:	012001cc 	smlawteq	r0, ip, r1, r0
    3b14:	fc910350 	ldc2	3, cr0, [r1], {80}	; 0x50
    3b18:	2824007b 	stmdacs	r4!, {r0, r1, r3, r4, r5, r6}
    3b1c:	8f00009a 	svchi	0x0000009a
    3b20:	25000011 	strcs	r0, [r0, #-17]
    3b24:	00009a44 	andeq	r9, r0, r4, asr #20
    3b28:	00001196 	muleq	r0, r6, r1
    3b2c:	00001020 	andeq	r1, r0, r0, lsr #32
    3b30:	02530120 	subseq	r0, r3, #32, 2
    3b34:	0120c008 	teqeq	r0, r8
    3b38:	cc030552 	cfstr32gt	mvfx0, [r3], {82}	; 0x52
    3b3c:	2000009f 	mulcs	r0, pc, r0	; <UNPREDICTABLE>
    3b40:	03055101 	movweq	r5, #20737	; 0x5101
    3b44:	00009ff4 	strdeq	r9, [r0], -r4
    3b48:	05500120 	ldrbeq	r0, [r0, #-288]	; 0x120
    3b4c:	009e7c03 	addseq	r7, lr, r3, lsl #24
    3b50:	7d022000 	stcvc	0, cr2, [r2, #-0]
    3b54:	80030500 	andhi	r0, r3, r0, lsl #10
    3b58:	000000a0 	andeq	r0, r0, r0, lsr #1
    3b5c:	009a4824 	addseq	r4, sl, r4, lsr #16
    3b60:	0011ac00 	andseq	sl, r1, r0, lsl #24
    3b64:	9a541f00 	bls	150b76c <__bss_end__+0x15012cc>
    3b68:	0eff0000 	cdpeq	0, 15, cr0, cr15, cr0, {0}
    3b6c:	01200000 	teqeq	r0, r0
    3b70:	fc910351 	ldc2	3, cr0, [r1], {81}	; 0x51
    3b74:	5001207b 	andpl	r2, r1, fp, ror r0
    3b78:	00007502 	andeq	r7, r0, r2, lsl #10
    3b7c:	00902a00 	addseq	r2, r0, r0, lsl #20
    3b80:	10520000 	subsne	r0, r2, r0
    3b84:	81300000 	teqhi	r0, r0
    3b88:	cb000000 	blgt	3b90 <_start-0x4470>
    3b8c:	902a0001 	eorls	r0, sl, r1
    3b90:	62000000 	andvs	r0, r0, #0
    3b94:	2b000010 	blcs	3bdc <_start-0x4424>
    3b98:	00000081 	andeq	r0, r0, r1, lsl #1
    3b9c:	5207000e 	andpl	r0, r7, #14
    3ba0:	23000010 	movwcs	r0, #16
    3ba4:	000008e4 	andeq	r0, r0, r4, ror #17
    3ba8:	0025c501 	eoreq	ip, r5, r1, lsl #10
    3bac:	9a7c0000 	bls	1f03bb4 <__bss_end__+0x1ef9714>
    3bb0:	004c0000 	subeq	r0, ip, r0
    3bb4:	9c010000 	stcls	0, cr0, [r1], {-0}
    3bb8:	00001144 	andeq	r1, r0, r4, asr #2
    3bbc:	01007514 	tsteq	r0, r4, lsl r5
    3bc0:	000722c5 	andeq	r2, r7, r5, asr #5
    3bc4:	00294200 	eoreq	r4, r9, r0, lsl #4
    3bc8:	75621400 	strbvc	r1, [r2, #-1024]!	; 0x400
    3bcc:	c5010066 	strgt	r0, [r1, #-102]	; 0x66
    3bd0:	00000c0c 	andeq	r0, r0, ip, lsl #24
    3bd4:	00002963 	andeq	r2, r0, r3, ror #18
    3bd8:	0008d013 	andeq	sp, r8, r3, lsl r0
    3bdc:	68c50100 	stmiavs	r5, {r8}^
    3be0:	84000000 	strhi	r0, [r0], #-0
    3be4:	14000029 	strne	r0, [r0], #-41	; 0x29
    3be8:	00646e65 	rsbeq	r6, r4, r5, ror #28
    3bec:	004fc501 	subeq	ip, pc, r1, lsl #10
    3bf0:	29a50000 	stmibcs	r5!, {}	; <UNPREDICTABLE>
    3bf4:	72160000 	andsvc	r0, r6, #0
    3bf8:	01007365 	tsteq	r0, r5, ror #6
    3bfc:	000025c6 	andeq	r2, r0, r6, asr #11
    3c00:	0029c600 	eoreq	ip, r9, r0, lsl #12
    3c04:	01712900 	cmneq	r1, r0, lsl #18
    3c08:	11540000 	cmpne	r4, r0
    3c0c:	03050000 	movweq	r0, #20480	; 0x5000
    3c10:	00009fdc 	ldrdeq	r9, [r0], -ip
    3c14:	009a9025 	addseq	r9, sl, r5, lsr #32
    3c18:	000b1e00 	andeq	r1, fp, r0, lsl #28
    3c1c:	00110200 	andseq	r0, r1, r0, lsl #4
    3c20:	52012000 	andpl	r2, r1, #0
    3c24:	5201f303 	andpl	pc, r1, #201326592	; 0xc000000
    3c28:	03510120 	cmpeq	r1, #32, 2
    3c2c:	205101f3 	ldrshcs	r0, [r1], #-19	; 0xffffffed
    3c30:	f3035001 	vhadd.u8	d5, d3, d1
    3c34:	02205001 	eoreq	r5, r0, #1
    3c38:	0902007d 	stmdbeq	r2, {r0, r2, r3, r4, r5, r6}
    3c3c:	9c2400ff 	stcls	0, cr0, [r4], #-1020	; 0xfffffc04
    3c40:	8f00009a 	svchi	0x0000009a
    3c44:	25000011 	strcs	r0, [r0, #-17]
    3c48:	00009ab0 			; <UNDEFINED> instruction: 0x00009ab0
    3c4c:	00001196 	muleq	r0, r6, r1
    3c50:	0000113a 	andeq	r1, r0, sl, lsr r1
    3c54:	02530120 	subseq	r0, r3, #32, 2
    3c58:	0120c808 	teqeq	r0, r8, lsl #16
    3c5c:	dc030552 	cfstr32le	mvfx0, [r3], {82}	; 0x52
    3c60:	2000009f 	mulcs	r0, pc, r0	; <UNPREDICTABLE>
    3c64:	03055101 	movweq	r5, #20737	; 0x5101
    3c68:	00009ff4 	strdeq	r9, [r0], -r4
    3c6c:	05500120 	ldrbeq	r0, [r0, #-288]	; 0x120
    3c70:	00a04803 	adceq	r4, r0, r3, lsl #16
    3c74:	b4240000 	strtlt	r0, [r4], #-0
    3c78:	ac00009a 	stcge	0, cr0, [r0], {154}	; 0x9a
    3c7c:	00000011 	andeq	r0, r0, r1, lsl r0
    3c80:	0000902a 	andeq	r9, r0, sl, lsr #32
    3c84:	00115400 	andseq	r5, r1, r0, lsl #8
    3c88:	00812b00 	addeq	r2, r1, r0, lsl #22
    3c8c:	00160000 	andseq	r0, r6, r0
    3c90:	00114407 	andseq	r4, r1, r7, lsl #8
    3c94:	00293100 	eoreq	r3, r9, r0, lsl #2
    3c98:	21060000 	mrscs	r0, (UNDEF: 6)
    3c9c:	0000116f 	andeq	r1, r0, pc, ror #2
    3ca0:	00002c32 	andeq	r2, r0, r2, lsr ip
    3ca4:	002c3200 	eoreq	r3, ip, r0, lsl #4
    3ca8:	33000000 	movwcc	r0, #0
    3cac:	000005fe 	strdeq	r0, [r0], -lr
    3cb0:	002c5707 	eoreq	r5, ip, r7, lsl #14
    3cb4:	a3340000 	teqge	r4, #0
    3cb8:	06000001 	streq	r0, [r0], -r1
    3cbc:	00002524 	andeq	r2, r0, r4, lsr #10
    3cc0:	00118f00 	andseq	r8, r1, r0, lsl #30
    3cc4:	002c3200 	eoreq	r3, ip, r0, lsl #4
    3cc8:	35000000 	strcc	r0, [r0, #-0]
    3ccc:	0000012e 	andeq	r0, r0, lr, lsr #2
    3cd0:	2d341e07 	ldccs	14, cr1, [r4, #-28]!	; 0xffffffe4
    3cd4:	07000003 	streq	r0, [r0, -r3]
    3cd8:	00002529 	andeq	r2, r0, r9, lsr #10
    3cdc:	0011ac00 	andseq	sl, r1, r0, lsl #24
    3ce0:	00973200 	addseq	r3, r7, r0, lsl #4
    3ce4:	002f0000 	eoreq	r0, pc, r0
    3ce8:	0001ad35 	andeq	sl, r1, r5, lsr sp
    3cec:	31660700 	cmncc	r6, r0, lsl #14
    3cf0:	0000027f 	andeq	r0, r0, pc, ror r2
    3cf4:	11c41d06 	bicne	r1, r4, r6, lsl #26
    3cf8:	2c320000 	ldccs	0, cr0, [r2], #-0
    3cfc:	00000000 	andeq	r0, r0, r0
    3d00:	00026b31 	andeq	r6, r2, r1, lsr fp
    3d04:	d51c0600 	ldrle	r0, [ip, #-1536]	; 0x600
    3d08:	32000011 	andcc	r0, r0, #17
    3d0c:	0000002c 	andeq	r0, r0, ip, lsr #32
    3d10:	032a3600 	teqeq	sl, #0, 12
    3d14:	02080000 	andeq	r0, r8, #0
    3d18:	00000025 	andeq	r0, r0, r5, lsr #32
    3d1c:	00008a32 	andeq	r8, r0, r2, lsr sl
    3d20:	00253200 	eoreq	r3, r5, r0, lsl #4
    3d24:	97320000 	ldrls	r0, [r2, -r0]!
    3d28:	32000000 	andcc	r0, r0, #0
    3d2c:	00000106 	andeq	r0, r0, r6, lsl #2
    3d30:	03ff0000 	mvnseq	r0, #0
    3d34:	00040000 	andeq	r0, r4, r0
    3d38:	00001051 	andeq	r1, r0, r1, asr r0
    3d3c:	02d30104 	sbcseq	r0, r3, #4, 2
    3d40:	dc010000 	stcle	0, cr0, [r1], {-0}
    3d44:	3e000009 	cdpcc	0, 0, cr0, cr0, cr9, {0}
    3d48:	c8000003 	stmdagt	r0, {r0, r1}
    3d4c:	5400009a 	strpl	r0, [r0], #-154	; 0x9a
    3d50:	19000001 	stmdbne	r0, {r0}
    3d54:	0200000f 	andeq	r0, r0, #15
    3d58:	6e690504 	cdpvs	5, 6, cr0, cr9, cr4, {0}
    3d5c:	04030074 	streq	r0, [r3], #-116	; 0x74
    3d60:	00004d07 	andeq	r4, r0, r7, lsl #26
    3d64:	06010300 	streq	r0, [r1], -r0, lsl #6
    3d68:	00000226 	andeq	r0, r0, r6, lsr #4
    3d6c:	32050203 	andcc	r0, r5, #805306368	; 0x30000000
    3d70:	03000002 	movweq	r0, #2
    3d74:	007c0504 	rsbseq	r0, ip, r4, lsl #10
    3d78:	08030000 	stmdaeq	r3, {}	; <UNPREDICTABLE>
    3d7c:	00007705 	andeq	r7, r0, r5, lsl #14
    3d80:	08010300 	stmdaeq	r1, {r8, r9}
    3d84:	00000224 	andeq	r0, r0, r4, lsr #4
    3d88:	7e070203 	cdpvc	2, 0, cr0, cr7, cr3, {0}
    3d8c:	03000001 	movweq	r0, #1
    3d90:	00480704 	subeq	r0, r8, r4, lsl #14
    3d94:	08030000 	stmdaeq	r3, {}	; <UNPREDICTABLE>
    3d98:	00004307 	andeq	r4, r0, r7, lsl #6
    3d9c:	07040300 	streq	r0, [r4, -r0, lsl #6]
    3da0:	000001c0 	andeq	r0, r0, r0, asr #3
    3da4:	2d080103 	stfcss	f0, [r8, #-12]
    3da8:	04000002 	streq	r0, [r0], #-2
    3dac:	b20c0201 	andlt	r0, ip, #268435456	; 0x10000000
    3db0:	05000000 	streq	r0, [r0, #-0]
    3db4:	00000693 	muleq	r0, r3, r6
    3db8:	076f0500 	strbeq	r0, [pc, -r0, lsl #10]!
    3dbc:	05010000 	streq	r0, [r1, #-0]
    3dc0:	000007a8 	andeq	r0, r0, r8, lsr #15
    3dc4:	07b70504 	ldreq	r0, [r7, r4, lsl #10]!
    3dc8:	05050000 	streq	r0, [r5, #-0]
    3dcc:	000007c6 	andeq	r0, r0, r6, asr #15
    3dd0:	07d50506 	ldrbeq	r0, [r5, r6, lsl #10]
    3dd4:	05070000 	streq	r0, [r7, #-0]
    3dd8:	000007e4 	andeq	r0, r0, r4, ror #15
    3ddc:	07f30503 	ldrbeq	r0, [r3, r3, lsl #10]!
    3de0:	00020000 	andeq	r0, r2, r0
    3de4:	00079c06 	andeq	r9, r7, r6, lsl #24
    3de8:	79150200 	ldmdbvc	r5, {r9}
    3dec:	07000000 	streq	r0, [r0, -r0]
    3df0:	00000963 	andeq	r0, r0, r3, ror #18
    3df4:	9ac83701 	bls	ff211a00 <__bss_end__+0xff207560>
    3df8:	009c0000 	addseq	r0, ip, r0
    3dfc:	9c010000 	stcls	0, cr0, [r1], {-0}
    3e00:	000001c3 	andeq	r0, r0, r3, asr #3
    3e04:	009ad008 	addseq	sp, sl, r8
    3e08:	0003a800 	andeq	sl, r3, r0, lsl #16
    3e0c:	9adc0900 	bls	ff706214 <__bss_end__+0xff6fbd74>
    3e10:	03af0000 			; <UNDEFINED> instruction: 0x03af0000
    3e14:	00f30000 	rscseq	r0, r3, r0
    3e18:	010a0000 	mrseq	r0, (UNDEF: 10)
    3e1c:	0a320151 	beq	c84368 <__bss_end__+0xc79ec8>
    3e20:	3e015001 	cdpcc	0, 0, cr5, cr1, cr1, {0}
    3e24:	9ae80900 	bls	ffa0622c <__bss_end__+0xff9fbd8c>
    3e28:	03af0000 			; <UNDEFINED> instruction: 0x03af0000
    3e2c:	010b0000 	mrseq	r0, (UNDEF: 11)
    3e30:	010a0000 	mrseq	r0, (UNDEF: 10)
    3e34:	0a320151 	beq	c84380 <__bss_end__+0xc79ee0>
    3e38:	3f015001 	svccc	0x00015001
    3e3c:	9aec0800 	bls	ffb05e44 <__bss_end__+0xffafb9a4>
    3e40:	03a80000 			; <UNDEFINED> instruction: 0x03a80000
    3e44:	fc090000 	stc2	0, cr0, [r9], {-0}
    3e48:	c500009a 	strgt	r0, [r0, #-154]	; 0x9a
    3e4c:	28000003 	stmdacs	r0, {r0, r1}
    3e50:	0a000001 	beq	3e5c <_start-0x41a4>
    3e54:	75025001 	strvc	r5, [r2, #-1]
    3e58:	08090000 	stmdaeq	r9, {}	; <UNPREDICTABLE>
    3e5c:	e600009b 			; <UNDEFINED> instruction: 0xe600009b
    3e60:	3c000003 	stccc	0, cr0, [r0], {3}
    3e64:	0a000001 	beq	3e70 <_start-0x4190>
    3e68:	75025001 	strvc	r5, [r2, #-1]
    3e6c:	0c080000 	stceq	0, cr0, [r8], {-0}
    3e70:	a800009b 	stmdage	r0, {r0, r1, r3, r4, r7}
    3e74:	09000003 	stmdbeq	r0, {r0, r1}
    3e78:	00009b18 	andeq	r9, r0, r8, lsl fp
    3e7c:	000003e6 	andeq	r0, r0, r6, ror #7
    3e80:	00000158 	andeq	r0, r0, r8, asr r1
    3e84:	0151010a 	cmpeq	r1, sl, lsl #2
    3e88:	24090030 	strcs	r0, [r9], #-48	; 0x30
    3e8c:	e600009b 			; <UNDEFINED> instruction: 0xe600009b
    3e90:	6b000003 	blvs	3ea4 <_start-0x415c>
    3e94:	0a000001 	beq	3ea0 <_start-0x4160>
    3e98:	30015101 	andcc	r5, r1, r1, lsl #2
    3e9c:	9b300900 	blls	c062a4 <__bss_end__+0xbfbe04>
    3ea0:	03e60000 	mvneq	r0, #0
    3ea4:	017e0000 	cmneq	lr, r0
    3ea8:	010a0000 	mrseq	r0, (UNDEF: 10)
    3eac:	00360151 	eorseq	r0, r6, r1, asr r1
    3eb0:	009b3c09 	addseq	r3, fp, r9, lsl #24
    3eb4:	0003e600 	andeq	lr, r3, r0, lsl #12
    3eb8:	00019100 	andeq	r9, r1, r0, lsl #2
    3ebc:	51010a00 	tstpl	r1, r0, lsl #20
    3ec0:	09003301 	stmdbeq	r0, {r0, r8, r9, ip, sp}
    3ec4:	00009b48 	andeq	r9, r0, r8, asr #22
    3ec8:	000003e6 	andeq	r0, r0, r6, ror #7
    3ecc:	000001a6 	andeq	r0, r0, r6, lsr #3
    3ed0:	0351010a 	cmpeq	r1, #-2147483646	; 0x80000002
    3ed4:	00010e0a 	andeq	r0, r1, sl, lsl #28
    3ed8:	009b5409 	addseq	r5, fp, r9, lsl #8
    3edc:	0003e600 	andeq	lr, r3, r0, lsl #12
    3ee0:	0001b900 	andeq	fp, r1, r0, lsl #18
    3ee4:	51010a00 	tstpl	r1, r0, lsl #20
    3ee8:	08003301 	stmdaeq	r0, {r0, r8, r9, ip, sp}
    3eec:	00009b58 	andeq	r9, r0, r8, asr fp
    3ef0:	000003a8 	andeq	r0, r0, r8, lsr #7
    3ef4:	09370b00 	ldmdbeq	r7!, {r8, r9, fp}
    3ef8:	57010000 	strpl	r0, [r1, -r0]
    3efc:	00000025 	andeq	r0, r0, r5, lsr #32
    3f00:	00009b64 	andeq	r9, r0, r4, ror #22
    3f04:	0000001c 	andeq	r0, r0, ip, lsl r0
    3f08:	01e69c01 	mvneq	r9, r1, lsl #24
    3f0c:	74080000 	strvc	r0, [r8], #-0
    3f10:	c500009b 	strgt	r0, [r0, #-155]	; 0x9b
    3f14:	00000003 	andeq	r0, r0, r3
    3f18:	0008540b 	andeq	r5, r8, fp, lsl #8
    3f1c:	255d0100 	ldrbcs	r0, [sp, #-256]	; 0x100
    3f20:	80000000 	andhi	r0, r0, r0
    3f24:	2800009b 	stmdacs	r0, {r0, r1, r3, r4, r7}
    3f28:	01000000 	mrseq	r0, (UNDEF: 0)
    3f2c:	0002129c 	muleq	r2, ip, r2
    3f30:	9b880800 	blls	fe205f38 <__bss_end__+0xfe1fba98>
    3f34:	01c30000 	biceq	r0, r3, r0
    3f38:	9c080000 	stcls	0, cr0, [r8], {-0}
    3f3c:	c500009b 	strgt	r0, [r0, #-155]	; 0x9b
    3f40:	00000003 	andeq	r0, r0, r3
    3f44:	00098b0b 	andeq	r8, r9, fp, lsl #22
    3f48:	25640100 	strbcs	r0, [r4, #-256]!	; 0x100
    3f4c:	a8000000 	stmdage	r0, {}	; <UNPREDICTABLE>
    3f50:	1c00009b 	stcne	0, cr0, [r0], {155}	; 0x9b
    3f54:	01000000 	mrseq	r0, (UNDEF: 0)
    3f58:	0002359c 	muleq	r2, ip, r5
    3f5c:	9bb80800 	blls	fee05f64 <__bss_end__+0xfedfbac4>
    3f60:	03c50000 	biceq	r0, r5, #0
    3f64:	07000000 	streq	r0, [r0, -r0]
    3f68:	00000525 	andeq	r0, r0, r5, lsr #10
    3f6c:	9bc46a01 	blls	ff11e778 <__bss_end__+0xff1142d8>
    3f70:	002c0000 	eoreq	r0, ip, r0
    3f74:	9c010000 	stcls	0, cr0, [r1], {-0}
    3f78:	00000271 	andeq	r0, r0, r1, ror r2
    3f7c:	0100630c 	tsteq	r0, ip, lsl #6
    3f80:	00002c6a 	andeq	r2, r0, sl, ror #24
    3f84:	0029e400 	eoreq	lr, r9, r0, lsl #8
    3f88:	9bd00800 	blls	ff405f90 <__bss_end__+0xff3fbaf0>
    3f8c:	02120000 	andseq	r0, r2, #0
    3f90:	e80d0000 	stmda	sp, {}	; <UNPREDICTABLE>
    3f94:	e600009b 			; <UNDEFINED> instruction: 0xe600009b
    3f98:	0a000003 	beq	3fac <_start-0x4054>
    3f9c:	74025101 	strvc	r5, [r2], #-257	; 0x101
    3fa0:	0b000000 	bleq	3fa8 <_start-0x4058>
    3fa4:	00000955 	andeq	r0, r0, r5, asr r9
    3fa8:	00257401 	eoreq	r7, r5, r1, lsl #8
    3fac:	9bf00000 	blls	ffc03fb4 <__bss_end__+0xffbf9b14>
    3fb0:	000c0000 	andeq	r0, ip, r0
    3fb4:	9c010000 	stcls	0, cr0, [r1], {-0}
    3fb8:	00000294 	muleq	r0, r4, r2
    3fbc:	009bf808 	addseq	pc, fp, r8, lsl #16
    3fc0:	0001c300 	andeq	ip, r1, r0, lsl #6
    3fc4:	080b0000 	stmdaeq	fp, {}	; <UNPREDICTABLE>
    3fc8:	0100000a 	tsteq	r0, sl
    3fcc:	00002578 	andeq	r2, r0, r8, ror r5
    3fd0:	009bfc00 	addseq	pc, fp, r0, lsl #24
    3fd4:	00002000 	andeq	r2, r0, r0
    3fd8:	c09c0100 	addsgt	r0, ip, r0, lsl #2
    3fdc:	08000002 	stmdaeq	r0, {r1}
    3fe0:	00009c04 	andeq	r9, r0, r4, lsl #24
    3fe4:	00000271 	andeq	r0, r0, r1, ror r2
    3fe8:	009c1008 	addseq	r1, ip, r8
    3fec:	0001e600 	andeq	lr, r1, r0, lsl #12
    3ff0:	a50e0000 	strge	r0, [lr, #-0]
    3ff4:	01000009 	tsteq	r0, r9
    3ff8:	0002d116 	andeq	sp, r2, r6, lsl r1
    3ffc:	88030500 	stmdahi	r3, {r8, sl}
    4000:	0f00009d 	svceq	0x0000009d
    4004:	0002d704 	andeq	sp, r2, r4, lsl #14
    4008:	002c1000 	eoreq	r1, ip, r0
    400c:	990e0000 	stmdbls	lr, {}	; <UNPREDICTABLE>
    4010:	01000009 	tsteq	r0, r9
    4014:	0002d117 	andeq	sp, r2, r7, lsl r1
    4018:	58030500 	stmdapl	r3, {r8, sl}
    401c:	0e00009d 	mcreq	0, 0, r0, cr0, cr13, {4}
    4020:	0000091a 	andeq	r0, r0, sl, lsl r9
    4024:	02d11a01 	sbcseq	r1, r1, #4096	; 0x1000
    4028:	03050000 	movweq	r0, #20480	; 0x5000
    402c:	00009d74 	andeq	r9, r0, r4, ror sp
    4030:	00096d0e 	andeq	r6, r9, lr, lsl #26
    4034:	d11b0100 	tstle	fp, r0, lsl #2
    4038:	05000002 	streq	r0, [r0, #-2]
    403c:	009d6003 	addseq	r6, sp, r3
    4040:	097c0e00 	ldmdbeq	ip!, {r9, sl, fp}^
    4044:	1c010000 	stcne	0, cr0, [r1], {-0}
    4048:	000002d1 	ldrdeq	r0, [r0], -r1
    404c:	9d640305 	stclls	3, cr0, [r4, #-20]!	; 0xffffffec
    4050:	ea0e0000 	b	384058 <__bss_end__+0x379bb8>
    4054:	01000009 	tsteq	r0, r9
    4058:	0002d11d 	andeq	sp, r2, sp, lsl r1
    405c:	68030500 	stmdavs	r3, {r8, sl}
    4060:	0e00009d 	mcreq	0, 0, r0, cr0, cr13, {4}
    4064:	0000090b 	andeq	r0, r0, fp, lsl #18
    4068:	02d11e01 	sbcseq	r1, r1, #1, 28
    406c:	03050000 	movweq	r0, #20480	; 0x5000
    4070:	00009d84 	andeq	r9, r0, r4, lsl #27
    4074:	0009f90e 	andeq	pc, r9, lr, lsl #18
    4078:	d11f0100 	tstle	pc, r0, lsl #2
    407c:	05000002 	streq	r0, [r0, #-2]
    4080:	009d7003 	addseq	r7, sp, r3
    4084:	09280e00 	stmdbeq	r8!, {r9, sl, fp}
    4088:	20010000 	andcs	r0, r1, r0
    408c:	000002d1 	ldrdeq	r0, [r0], -r1
    4090:	9d800305 	stcls	3, cr0, [r0, #20]
    4094:	cd0e0000 	stcgt	0, cr0, [lr, #-0]
    4098:	01000009 	tsteq	r0, r9
    409c:	0002d121 	andeq	sp, r2, r1, lsr #2
    40a0:	7c030500 	cfstr32vc	mvfx0, [r3], {-0}
    40a4:	0e00009d 	mcreq	0, 0, r0, cr0, cr13, {4}
    40a8:	00000945 	andeq	r0, r0, r5, asr #18
    40ac:	02d12201 	sbcseq	r2, r1, #268435456	; 0x10000000
    40b0:	03050000 	movweq	r0, #20480	; 0x5000
    40b4:	00009d5c 	andeq	r9, r0, ip, asr sp
    40b8:	0009bd0e 	andeq	fp, r9, lr, lsl #26
    40bc:	d1230100 	teqle	r3, r0, lsl #2
    40c0:	05000002 	streq	r0, [r0, #-2]
    40c4:	009d7803 	addseq	r7, sp, r3, lsl #16
    40c8:	09ad0e00 	stmibeq	sp!, {r9, sl, fp}
    40cc:	24010000 	strcs	r0, [r1], #-0
    40d0:	000002d1 	ldrdeq	r0, [r0], -r1
    40d4:	9d6c0305 	stclls	3, cr0, [ip, #-20]!	; 0xffffffec
    40d8:	cc110000 	ldcgt	0, cr0, [r1], {-0}
    40dc:	03000006 	movweq	r0, #6
    40e0:	06ed128a 	strbteq	r1, [sp], sl, lsl #5
    40e4:	19020000 	stmdbne	r2, {}	; <UNPREDICTABLE>
    40e8:	000003c5 	andeq	r0, r0, r5, asr #7
    40ec:	00002c13 	andeq	r2, r0, r3, lsl ip
    40f0:	00b21300 	adcseq	r1, r2, r0, lsl #6
    40f4:	14000000 	strne	r0, [r0], #-0
    40f8:	00000780 	andeq	r0, r0, r0, lsl #15
    40fc:	002ca903 	eoreq	sl, ip, r3, lsl #18
    4100:	03da0000 	bicseq	r0, sl, #0
    4104:	da130000 	ble	4c410c <__bss_end__+0x4b9c6c>
    4108:	00000003 	andeq	r0, r0, r3
    410c:	03e0040f 	mvneq	r0, #251658240	; 0xf000000
    4110:	e5150000 	ldr	r0, [r5, #-0]
    4114:	16000003 	strne	r0, [r0], -r3
    4118:	00067312 	andeq	r7, r6, r2, lsl r3
    411c:	fc9d0300 	ldc2	3, cr0, [sp], {0}
    4120:	13000003 	movwne	r0, #3
    4124:	000003fc 	strdeq	r0, [r0], -ip
    4128:	00002c13 	andeq	r2, r0, r3, lsl ip
    412c:	040f0000 	streq	r0, [pc], #-0	; 4134 <_start-0x3ecc>
    4130:	000003e5 	andeq	r0, r0, r5, ror #7
    4134:	0001c300 	andeq	ip, r1, r0, lsl #6
    4138:	7f000400 	svcvc	0x00000400
    413c:	04000011 	streq	r0, [r0], #-17
    4140:	0002d301 	andeq	sp, r2, r1, lsl #6
    4144:	0a2d0100 	beq	b4454c <__bss_end__+0xb3a0ac>
    4148:	033e0000 	teqeq	lr, #0
    414c:	9c800000 	stcls	0, cr0, [r0], {0}
    4150:	00500000 	subseq	r0, r0, r0
    4154:	101e0000 	andsne	r0, lr, r0
    4158:	04020000 	streq	r0, [r2], #-0
    415c:	746e6905 	strbtvc	r6, [lr], #-2309	; 0x905
    4160:	0a180300 	beq	604d68 <__bss_end__+0x5fa8c8>
    4164:	d4020000 	strle	r0, [r2], #-0
    4168:	00000037 	andeq	r0, r0, r7, lsr r0
    416c:	4d070404 	cfstrsmi	mvf0, [r7, #-16]
    4170:	04000000 	streq	r0, [r0], #-0
    4174:	02260601 	eoreq	r0, r6, #1048576	; 0x100000
    4178:	02040000 	andeq	r0, r4, #0
    417c:	00023205 	andeq	r3, r2, r5, lsl #4
    4180:	05040400 	streq	r0, [r4, #-1024]	; 0x400
    4184:	0000007c 	andeq	r0, r0, ip, ror r0
    4188:	77050804 	strvc	r0, [r5, -r4, lsl #16]
    418c:	03000000 	movweq	r0, #0
    4190:	0000029c 	muleq	r0, ip, r2
    4194:	00652e03 	rsbeq	r2, r5, r3, lsl #28
    4198:	01040000 	mrseq	r0, (UNDEF: 4)
    419c:	00022408 	andeq	r2, r2, r8, lsl #8
    41a0:	07020400 	streq	r0, [r2, -r0, lsl #8]
    41a4:	0000017e 	andeq	r0, r0, lr, ror r1
    41a8:	00057e03 	andeq	r7, r5, r3, lsl #28
    41ac:	7e340300 	cdpvc	3, 3, cr0, cr4, cr0, {0}
    41b0:	04000000 	streq	r0, [r0], #-0
    41b4:	00480704 	subeq	r0, r8, r4, lsl #14
    41b8:	08040000 	stmdaeq	r4, {}	; <UNPREDICTABLE>
    41bc:	00004307 	andeq	r4, r0, r7, lsl #6
    41c0:	07040400 	streq	r0, [r4, -r0, lsl #8]
    41c4:	000001c0 	andeq	r0, r0, r0, asr #3
    41c8:	01040405 	tsteq	r4, r5, lsl #8
    41cc:	00022d08 	andeq	r2, r2, r8, lsl #26
    41d0:	040c0600 	streq	r0, [ip], #-1536	; 0x600
    41d4:	0000d30e 	andeq	sp, r0, lr, lsl #6
    41d8:	78740700 	ldmdavc	r4!, {r8, r9, sl}^
    41dc:	5a0f0400 	bpl	3c51e4 <__bss_end__+0x3bad44>
    41e0:	00000000 	andeq	r0, r0, r0
    41e4:	00787207 	rsbseq	r7, r8, r7, lsl #4
    41e8:	005a0f04 	subseq	r0, sl, r4, lsl #30
    41ec:	08010000 	stmdaeq	r1, {}	; <UNPREDICTABLE>
    41f0:	000004fd 	strdeq	r0, [r0], -sp
    41f4:	00731004 	rsbseq	r1, r3, r4
    41f8:	08040000 	stmdaeq	r4, {}	; <UNPREDICTABLE>
    41fc:	000004ae 	andeq	r0, r0, lr, lsr #9
    4200:	00731104 	rsbseq	r1, r3, r4, lsl #2
    4204:	00080000 	andeq	r0, r8, r0
    4208:	0004e603 	andeq	lr, r4, r3, lsl #12
    420c:	9c120400 	cfldrsls	mvf0, [r2], {-0}
    4210:	09000000 	stmdbeq	r0, {}	; <UNPREDICTABLE>
    4214:	f9100501 			; <UNDEFINED> instruction: 0xf9100501
    4218:	0a000000 	beq	4220 <_start-0x3de0>
    421c:	00000502 	andeq	r0, r0, r2, lsl #10
    4220:	04f00a01 	ldrbteq	r0, [r0], #2561	; 0xa01
    4224:	0a020000 	beq	8422c <__bss_end__+0x79d8c>
    4228:	000004d8 	ldrdeq	r0, [r0], -r8
    422c:	17030003 	strne	r0, [r3, -r3]
    4230:	05000005 	streq	r0, [r0, #-5]
    4234:	0000de10 	andeq	sp, r0, r0, lsl lr
    4238:	05140600 	ldreq	r0, [r4, #-1536]	; 0x600
    423c:	00013114 	andeq	r3, r1, r4, lsl r1
    4240:	05870800 	streq	r0, [r7, #2048]	; 0x800
    4244:	15050000 	strne	r0, [r5, #-0]
    4248:	00000037 	andeq	r0, r0, r7, lsr r0
    424c:	05720800 	ldrbeq	r0, [r2, #-2048]!	; 0x800
    4250:	18050000 	stmdane	r5, {}	; <UNPREDICTABLE>
    4254:	000000f9 	strdeq	r0, [r0], -r9
    4258:	053d0804 	ldreq	r0, [sp, #-2052]!	; 0x804
    425c:	1b050000 	blne	144264 <__bss_end__+0x139dc4>
    4260:	000000d3 	ldrdeq	r0, [r0], -r3
    4264:	2f030008 	svccs	0x00030008
    4268:	05000005 	streq	r0, [r0, #-5]
    426c:	00010420 	andeq	r0, r1, r0, lsr #8
    4270:	0a260b00 	beq	986e78 <__bss_end__+0x97c9d8>
    4274:	05010000 	streq	r0, [r1, #-0]
    4278:	0000017e 	andeq	r0, r0, lr, ror r1
    427c:	00009c80 	andeq	r9, r0, r0, lsl #25
    4280:	00000028 	andeq	r0, r0, r8, lsr #32
    4284:	017e9c01 	cmneq	lr, r1, lsl #24
    4288:	630c0000 	movwvs	r0, #49152	; 0xc000
    428c:	7e060100 	adfvcs	f0, f6, f0
    4290:	00000001 	andeq	r0, r0, r1
    4294:	0d090000 	stceq	0, cr0, [r9, #-0]
    4298:	00009c94 	muleq	r0, r4, ip
    429c:	000001ab 	andeq	r0, r0, fp, lsr #3
    42a0:	0152010e 	cmpeq	r2, lr, lsl #2
    42a4:	51010e34 	tstpl	r1, r4, lsr lr
    42a8:	010e3001 	tsteq	lr, r1
    42ac:	47420350 	smlsldmi	r0, r2, r0, r3
    42b0:	0f000024 	svceq	0x00000024
    42b4:	00013104 	andeq	r3, r1, r4, lsl #2
    42b8:	05450b00 	strbeq	r0, [r5, #-2816]	; 0xb00
    42bc:	0c010000 	stceq	0, cr0, [r1], {-0}
    42c0:	0000017e 	andeq	r0, r0, lr, ror r1
    42c4:	00009ca8 	andeq	r9, r0, r8, lsr #25
    42c8:	00000028 	andeq	r0, r0, r8, lsr #32
    42cc:	01ab9c01 			; <UNDEFINED> instruction: 0x01ab9c01
    42d0:	630c0000 	movwvs	r0, #49152	; 0xc000
    42d4:	7e0d0100 	adfvce	f0, f5, f0
    42d8:	00000001 	andeq	r0, r0, r1
    42dc:	00090000 	andeq	r0, r9, r0
    42e0:	000a1f10 	andeq	r1, sl, r0, lsl pc
    42e4:	931b0600 	tstls	fp, #0, 12
    42e8:	11000000 	mrsne	r0, (UNDEF: 0)
    42ec:	00000093 	muleq	r0, r3, r0
    42f0:	00002511 	andeq	r2, r0, r1, lsl r5
    42f4:	002c1100 	eoreq	r1, ip, r0, lsl #2
    42f8:	00000000 	andeq	r0, r0, r0
    42fc:	000000db 	ldrdeq	r0, [r0], -fp
    4300:	12630004 	rsbne	r0, r3, #4
    4304:	01040000 	mrseq	r0, (UNDEF: 4)
    4308:	000002d3 	ldrdeq	r0, [r0], -r3
    430c:	000a4801 	andeq	r4, sl, r1, lsl #16
    4310:	00033e00 	andeq	r3, r3, r0, lsl #28
    4314:	009cd000 	addseq	sp, ip, r0
    4318:	00002000 	andeq	r2, r0, r0
    431c:	00114a00 	andseq	r4, r1, r0, lsl #20
    4320:	06010200 	streq	r0, [r1], -r0, lsl #4
    4324:	00000226 	andeq	r0, r0, r6, lsr #4
    4328:	24080102 	strcs	r0, [r8], #-258	; 0x102
    432c:	02000002 	andeq	r0, r0, #2
    4330:	02320502 	eorseq	r0, r2, #8388608	; 0x800000
    4334:	02020000 	andeq	r0, r2, #0
    4338:	00017e07 	andeq	r7, r1, r7, lsl #28
    433c:	05040300 	streq	r0, [r4, #-768]	; 0x300
    4340:	00746e69 	rsbseq	r6, r4, r9, ror #28
    4344:	4d070402 	cfstrsmi	mvf0, [r7, #-8]
    4348:	02000000 	andeq	r0, r0, #0
    434c:	00770508 	rsbseq	r0, r7, r8, lsl #10
    4350:	08020000 	stmdaeq	r2, {}	; <UNPREDICTABLE>
    4354:	00004307 	andeq	r4, r0, r7, lsl #6
    4358:	05040200 	streq	r0, [r4, #-512]	; 0x200
    435c:	0000007c 	andeq	r0, r0, ip, ror r0
    4360:	c0070402 	andgt	r0, r7, r2, lsl #8
    4364:	04000001 	streq	r0, [r0], #-1
    4368:	07040204 	streq	r0, [r4, -r4, lsl #4]
    436c:	00000048 	andeq	r0, r0, r8, asr #32
    4370:	007a0405 	rsbseq	r0, sl, r5, lsl #8
    4374:	01020000 	mrseq	r0, (UNDEF: 2)
    4378:	00022d08 	andeq	r2, r2, r8, lsl #26
    437c:	0a180600 	beq	605b84 <__bss_end__+0x5fb6e4>
    4380:	d4020000 	strle	r0, [r2], #-0
    4384:	00000048 	andeq	r0, r0, r8, asr #32
    4388:	000a1f07 	andeq	r1, sl, r7, lsl #30
    438c:	6b1b0300 	blvs	6c4f94 <__bss_end__+0x6baaf4>
    4390:	d0000000 	andle	r0, r0, r0
    4394:	2000009c 	mulcs	r0, ip, r0
    4398:	01000000 	mrseq	r0, (UNDEF: 0)
    439c:	705f089c 			; <UNDEFINED> instruction: 0x705f089c
    43a0:	6b030100 	blvs	c47a8 <__bss_end__+0xba308>
    43a4:	01000000 	mrseq	r0, (UNDEF: 0)
    43a8:	00630850 	rsbeq	r0, r3, r0, asr r8
    43ac:	00410301 	subeq	r0, r1, r1, lsl #6
    43b0:	51010000 	mrspl	r0, (UNDEF: 1)
    43b4:	01006e09 	tsteq	r0, r9, lsl #28
    43b8:	00008103 	andeq	r8, r0, r3, lsl #2
    43bc:	002a0200 	eoreq	r0, sl, r0, lsl #4
    43c0:	00700a00 	rsbseq	r0, r0, r0, lsl #20
    43c4:	00740401 	rsbseq	r0, r4, r1, lsl #8
    43c8:	2a230000 	bcs	8c43d0 <__bss_end__+0x8b9f30>
    43cc:	650b0000 	strvs	r0, [fp, #-0]
    43d0:	74040100 	strvc	r0, [r4], #-256	; 0x100
    43d4:	01000000 	mrseq	r0, (UNDEF: 0)
    43d8:	Address 0x00000000000043d8 is out of bounds.


Disassembly of section .debug_abbrev:

00000000 <.debug_abbrev>:
       0:	25011101 	strcs	r1, [r1, #-257]	; 0x101
       4:	030b130e 	movweq	r1, #45838	; 0xb30e
       8:	110e1b0e 	tstne	lr, lr, lsl #22
       c:	10061201 	andne	r1, r6, r1, lsl #4
      10:	02000017 	andeq	r0, r0, #23
      14:	0b0b0024 	bleq	2c00ac <__bss_end__+0x2b5c0c>
      18:	08030b3e 	stmdaeq	r3, {r1, r2, r3, r4, r5, r8, r9, fp}
      1c:	24030000 	strcs	r0, [r3], #-0
      20:	3e0b0b00 	vmlacc.f64	d0, d11, d0
      24:	000e030b 	andeq	r0, lr, fp, lsl #6
      28:	00160400 	andseq	r0, r6, r0, lsl #8
      2c:	0b3a0e03 	bleq	e83840 <__bss_end__+0xe793a0>
      30:	13490b3b 	movtne	r0, #39739	; 0x9b3b
      34:	0f050000 	svceq	0x00050000
      38:	490b0b00 	stmdbmi	fp, {r8, r9, fp}
      3c:	06000013 			; <UNDEFINED> instruction: 0x06000013
      40:	13490026 	movtne	r0, #36902	; 0x9026
      44:	2e070000 	cdpcs	0, 0, cr0, cr7, cr0, {0}
      48:	3a0e0301 	bcc	380c54 <__bss_end__+0x3767b4>
      4c:	270b3b0b 	strcs	r3, [fp, -fp, lsl #22]
      50:	010b2019 	tsteq	fp, r9, lsl r0
      54:	08000013 	stmdaeq	r0, {r0, r1, r4}
      58:	08030005 	stmdaeq	r3, {r0, r2}
      5c:	0b3b0b3a 	bleq	ec2d4c <__bss_end__+0xeb88ac>
      60:	00001349 	andeq	r1, r0, r9, asr #6
      64:	3f012e09 	svccc	0x00012e09
      68:	3a0e0319 	bcc	380cd4 <__bss_end__+0x376834>
      6c:	270b3b0b 	strcs	r3, [fp, -fp, lsl #22]
      70:	20134919 	andscs	r4, r3, r9, lsl r9
      74:	0013010b 	andseq	r0, r3, fp, lsl #2
      78:	00340a00 	eorseq	r0, r4, r0, lsl #20
      7c:	0b3a0e03 	bleq	e83890 <__bss_end__+0xe793f0>
      80:	13490b3b 	movtne	r0, #39739	; 0x9b3b
      84:	340b0000 	strcc	r0, [fp], #-0
      88:	3a080300 	bcc	200c90 <__bss_end__+0x1f67f0>
      8c:	490b3b0b 	stmdbmi	fp, {r0, r1, r3, r8, r9, fp, ip, sp}
      90:	0c000013 	stceq	0, cr0, [r0], {19}
      94:	1301010b 	movwne	r0, #4363	; 0x110b
      98:	0b0d0000 	bleq	3400a0 <__bss_end__+0x335c00>
      9c:	0e000001 	cdpeq	0, 0, cr0, cr0, cr1, {0}
      a0:	1331012e 	teqne	r1, #-2147483637	; 0x8000000b
      a4:	06120111 			; <UNDEFINED> instruction: 0x06120111
      a8:	42971840 	addsmi	r1, r7, #64, 16	; 0x400000
      ac:	00130119 	andseq	r0, r3, r9, lsl r1
      b0:	00340f00 	eorseq	r0, r4, r0, lsl #30
      b4:	17021331 	smladxne	r2, r1, r3, r1
      b8:	34100000 	ldrcc	r0, [r0], #-0
      bc:	00133100 	andseq	r3, r3, r0, lsl #2
      c0:	00341100 	eorseq	r1, r4, r0, lsl #2
      c4:	18021331 	stmdane	r2, {r0, r4, r5, r8, r9, ip}
      c8:	05120000 	ldreq	r0, [r2, #-0]
      cc:	1c133100 	ldfnes	f3, [r3], {-0}
      d0:	1300000b 	movwne	r0, #11
      d4:	0111010b 	tsteq	r1, fp, lsl #2
      d8:	13010612 	movwne	r0, #5650	; 0x1612
      dc:	0b140000 	bleq	5000e4 <__bss_end__+0x4f5c44>
      e0:	12011101 	andne	r1, r1, #1073741824	; 0x40000000
      e4:	15000006 	strne	r0, [r0, #-6]
      e8:	193f012e 	ldmdbne	pc!, {r1, r2, r3, r5, r8}	; <UNPREDICTABLE>
      ec:	0b3a0e03 	bleq	e83900 <__bss_end__+0xe79460>
      f0:	19270b3b 	stmdbne	r7!, {r0, r1, r3, r4, r5, r8, r9, fp}
      f4:	01111349 	tsteq	r1, r9, asr #6
      f8:	18400612 	stmdane	r0, {r1, r4, r9, sl}^
      fc:	01194297 			; <UNDEFINED> instruction: 0x01194297
     100:	16000013 			; <UNDEFINED> instruction: 0x16000013
     104:	08030005 	stmdaeq	r3, {r0, r2}
     108:	0b3b0b3a 	bleq	ec2df8 <__bss_end__+0xeb8958>
     10c:	17021349 	strne	r1, [r2, -r9, asr #6]
     110:	34170000 	ldrcc	r0, [r7], #-0
     114:	490e0300 	stmdbmi	lr, {r8, r9}
     118:	02193413 	andseq	r3, r9, #318767104	; 0x13000000
     11c:	18000018 	stmdane	r0, {r3, r4}
     120:	0e030034 	mcreq	0, 0, r0, cr3, cr4, {1}
     124:	0b3b0b3a 	bleq	ec2e14 <__bss_end__+0xeb8974>
     128:	17021349 	strne	r1, [r2, -r9, asr #6]
     12c:	89190000 	ldmdbhi	r9, {}	; <UNPREDICTABLE>
     130:	11010182 	smlabbne	r1, r2, r1, r0
     134:	01133101 	tsteq	r3, r1, lsl #2
     138:	1a000013 	bne	18c <_start-0x7e74>
     13c:	0001828a 	andeq	r8, r1, sl, lsl #5
     140:	42911802 	addsmi	r1, r1, #131072	; 0x20000
     144:	1b000018 	blne	1ac <_start-0x7e54>
     148:	00018289 	andeq	r8, r1, r9, lsl #5
     14c:	13310111 	teqne	r1, #1073741828	; 0x40000004
     150:	011c0000 	tsteq	ip, r0
     154:	01134901 	tsteq	r3, r1, lsl #18
     158:	1d000013 	stcne	0, cr0, [r0, #-76]	; 0xffffffb4
     15c:	13490021 	movtne	r0, #36897	; 0x9021
     160:	00000b2f 	andeq	r0, r0, pc, lsr #22
     164:	3100051e 	tstcc	r0, lr, lsl r5
     168:	00170213 	andseq	r0, r7, r3, lsl r2
     16c:	00341f00 	eorseq	r1, r4, r0, lsl #30
     170:	0b1c1331 	bleq	704e3c <__bss_end__+0x6fa99c>
     174:	2e200000 	cdpcs	0, 2, cr0, cr0, cr0, {0}
     178:	03193f01 	tsteq	r9, #1, 30
     17c:	3b0b3a0e 	blcc	2ce9bc <__bss_end__+0x2c451c>
     180:	1119270b 	tstne	r9, fp, lsl #14
     184:	40061201 	andmi	r1, r6, r1, lsl #4
     188:	19429718 	stmdbne	r2, {r3, r4, r8, r9, sl, ip, pc}^
     18c:	00001301 	andeq	r1, r0, r1, lsl #6
     190:	03000521 	movweq	r0, #1313	; 0x521
     194:	3b0b3a0e 	blcc	2ce9d4 <__bss_end__+0x2c4534>
     198:	0213490b 	andseq	r4, r3, #180224	; 0x2c000
     19c:	22000017 	andcs	r0, r0, #23
     1a0:	08030034 	stmdaeq	r3, {r2, r4, r5}
     1a4:	0b3b0b3a 	bleq	ec2e94 <__bss_end__+0xeb89f4>
     1a8:	0b1c1349 	bleq	704ed4 <__bss_end__+0x6faa34>
     1ac:	1d230000 	stcne	0, cr0, [r3, #-0]
     1b0:	11133101 	tstne	r3, r1, lsl #2
     1b4:	58061201 	stmdapl	r6, {r0, r9, ip}
     1b8:	010b590b 	tsteq	fp, fp, lsl #18
     1bc:	24000013 	strcs	r0, [r0], #-19
     1c0:	1331011d 	teqne	r1, #1073741831	; 0x40000007
     1c4:	06120111 			; <UNDEFINED> instruction: 0x06120111
     1c8:	0b590b58 	bleq	1642f30 <__bss_end__+0x1638a90>
     1cc:	05250000 	streq	r0, [r5, #-0]!
     1d0:	02133100 	andseq	r3, r3, #0, 2
     1d4:	26000018 			; <UNDEFINED> instruction: 0x26000018
     1d8:	1755010b 	ldrbne	r0, [r5, -fp, lsl #2]
     1dc:	00001301 	andeq	r1, r0, r1, lsl #6
     1e0:	31011d27 	tstcc	r1, r7, lsr #26
     1e4:	55015213 	strpl	r5, [r1, #-531]	; 0x213
     1e8:	590b5817 	stmdbpl	fp, {r0, r1, r2, r4, fp, ip, lr}
     1ec:	2800000b 	stmdacs	r0, {r0, r1, r3}
     1f0:	01018289 	smlabbeq	r1, r9, r2, r8
     1f4:	13310111 	teqne	r1, #1073741828	; 0x40000004
     1f8:	1d290000 	stcne	0, cr0, [r9, #-0]
     1fc:	52133101 	andspl	r3, r3, #1073741824	; 0x40000000
     200:	58175501 	ldmdapl	r7, {r0, r8, sl, ip, lr}
     204:	010b590b 	tsteq	fp, fp, lsl #18
     208:	2a000013 	bcs	25c <_start-0x7da4>
     20c:	0e030034 	mcreq	0, 0, r0, cr3, cr4, {1}
     210:	0b3b0b3a 	bleq	ec2f00 <__bss_end__+0xeb8a60>
     214:	061c1349 	ldreq	r1, [ip], -r9, asr #6
     218:	352b0000 	strcc	r0, [fp, #-0]!
     21c:	00134900 	andseq	r4, r3, r0, lsl #18
     220:	012e2c00 	teqeq	lr, r0, lsl #24
     224:	0e03193f 	mcreq	9, 0, r1, cr3, cr15, {1}
     228:	0b3b0b3a 	bleq	ec2f18 <__bss_end__+0xeb8a78>
     22c:	193c1927 	ldmdbne	ip!, {r0, r1, r2, r5, r8, fp, ip}
     230:	00001301 	andeq	r1, r0, r1, lsl #6
     234:	4900052d 	stmdbmi	r0, {r0, r2, r3, r5, r8, sl}
     238:	2e000013 	mcrcs	0, 0, r0, cr0, cr3, {0}
     23c:	193f002e 	ldmdbne	pc!, {r1, r2, r3, r5}	; <UNPREDICTABLE>
     240:	0b3a0e03 	bleq	e83a54 <__bss_end__+0xe795b4>
     244:	19270b3b 	stmdbne	r7!, {r0, r1, r3, r4, r5, r8, r9, fp}
     248:	0000193c 	andeq	r1, r0, ip, lsr r9
     24c:	3f012e2f 	svccc	0x00012e2f
     250:	3a0e0319 	bcc	380ebc <__bss_end__+0x376a1c>
     254:	270b3b0b 	strcs	r3, [fp, -fp, lsl #22]
     258:	3c134919 	ldccc	9, cr4, [r3], {25}
     25c:	00130119 	andseq	r0, r3, r9, lsl r1
     260:	00183000 	andseq	r3, r8, r0
     264:	2e310000 	cdpcs	0, 3, cr0, cr1, cr0, {0}
     268:	03193f01 	tsteq	r9, #1, 30
     26c:	3b0b3a0e 	blcc	2ceaac <__bss_end__+0x2c460c>
     270:	4919270b 	ldmdbmi	r9, {r0, r1, r3, r8, r9, sl, sp}
     274:	00193c13 	andseq	r3, r9, r3, lsl ip
     278:	11010000 	mrsne	r0, (UNDEF: 1)
     27c:	130e2501 	movwne	r2, #58625	; 0xe501
     280:	1b0e030b 	blne	380eb4 <__bss_end__+0x376a14>
     284:	1201110e 	andne	r1, r1, #-2147483645	; 0x80000003
     288:	00171006 	andseq	r1, r7, r6
     28c:	00160200 	andseq	r0, r6, r0, lsl #4
     290:	0b3a0e03 	bleq	e83aa4 <__bss_end__+0xe79604>
     294:	13490b3b 	movtne	r0, #39739	; 0x9b3b
     298:	13030000 	movwne	r0, #12288	; 0x3000
     29c:	0b0e0301 	bleq	380ea8 <__bss_end__+0x376a08>
     2a0:	3b0b3a0b 	blcc	2cead4 <__bss_end__+0x2c4634>
     2a4:	0013010b 	andseq	r0, r3, fp, lsl #2
     2a8:	000d0400 	andeq	r0, sp, r0, lsl #8
     2ac:	13490e03 	movtne	r0, #40451	; 0x9e03
     2b0:	19340b38 	ldmdbne	r4!, {r3, r4, r5, r8, r9, fp}
     2b4:	0f050000 	svceq	0x00050000
     2b8:	000b0b00 	andeq	r0, fp, r0, lsl #22
     2bc:	00240600 	eoreq	r0, r4, r0, lsl #12
     2c0:	0b3e0b0b 	bleq	f82ef4 <__bss_end__+0xf78a54>
     2c4:	00000803 	andeq	r0, r0, r3, lsl #16
     2c8:	0b002407 	bleq	92ec <gpio_int_rising_edge+0x70>
     2cc:	030b3e0b 	movweq	r3, #48651	; 0xbe0b
     2d0:	0800000e 	stmdaeq	r0, {r1, r2, r3}
     2d4:	0b0b000f 	bleq	2c0318 <__bss_end__+0x2b5e78>
     2d8:	00001349 	andeq	r1, r0, r9, asr #6
     2dc:	49002609 	stmdbmi	r0, {r0, r3, r9, sl, sp}
     2e0:	0a000013 	beq	334 <_start-0x7ccc>
     2e4:	193f012e 	ldmdbne	pc!, {r1, r2, r3, r5, r8}	; <UNPREDICTABLE>
     2e8:	0b3a0e03 	bleq	e83afc <__bss_end__+0xe7965c>
     2ec:	19270b3b 	stmdbne	r7!, {r0, r1, r3, r4, r5, r8, r9, fp}
     2f0:	01111349 	tsteq	r1, r9, asr #6
     2f4:	18400612 	stmdane	r0, {r1, r4, r9, sl}^
     2f8:	01194297 			; <UNDEFINED> instruction: 0x01194297
     2fc:	0b000013 	bleq	350 <_start-0x7cb0>
     300:	08030005 	stmdaeq	r3, {r0, r2}
     304:	0b3b0b3a 	bleq	ec2ff4 <__bss_end__+0xeb8b54>
     308:	18021349 	stmdane	r2, {r0, r3, r6, r8, r9, ip}
     30c:	180c0000 	stmdane	ip, {}	; <UNPREDICTABLE>
     310:	0d000000 	stceq	0, cr0, [r0, #-0]
     314:	08030034 	stmdaeq	r3, {r2, r4, r5}
     318:	0b3b0b3a 	bleq	ec3008 <__bss_end__+0xeb8b68>
     31c:	18021349 	stmdane	r2, {r0, r3, r6, r8, r9, ip}
     320:	340e0000 	strcc	r0, [lr], #-0
     324:	3a0e0300 	bcc	380f2c <__bss_end__+0x376a8c>
     328:	490b3b0b 	stmdbmi	fp, {r0, r1, r3, r8, r9, fp, ip, sp}
     32c:	00180213 	andseq	r0, r8, r3, lsl r2
     330:	00340f00 	eorseq	r0, r4, r0, lsl #30
     334:	0b3a0803 	bleq	e82348 <__bss_end__+0xe77ea8>
     338:	13490b3b 	movtne	r0, #39739	; 0x9b3b
     33c:	00001702 	andeq	r1, r0, r2, lsl #14
     340:	01828910 	orreq	r8, r2, r0, lsl r9
     344:	31011101 	tstcc	r1, r1, lsl #2
     348:	00130113 	andseq	r0, r3, r3, lsl r1
     34c:	828a1100 	addhi	r1, sl, #0, 2
     350:	18020001 	stmdane	r2, {r0}
     354:	00184291 	mulseq	r8, r1, r2
     358:	82891200 	addhi	r1, r9, #0, 4
     35c:	01110101 	tsteq	r1, r1, lsl #2
     360:	01130000 	tsteq	r3, r0
     364:	01134901 	tsteq	r3, r1, lsl #18
     368:	14000013 	strne	r0, [r0], #-19
     36c:	13490021 	movtne	r0, #36897	; 0x9021
     370:	0000052f 	andeq	r0, r0, pc, lsr #10
     374:	27011515 	smladcs	r1, r5, r5, r1
     378:	01134919 	tsteq	r3, r9, lsl r9
     37c:	16000013 			; <UNDEFINED> instruction: 0x16000013
     380:	13490005 	movtne	r0, #36869	; 0x9005
     384:	34170000 	ldrcc	r0, [r7], #-0
     388:	3a0e0300 	bcc	380f90 <__bss_end__+0x376af0>
     38c:	490b3b0b 	stmdbmi	fp, {r0, r1, r3, r8, r9, fp, ip, sp}
     390:	3c193f13 	ldccc	15, cr3, [r9], {19}
     394:	18000019 	stmdane	r0, {r0, r3, r4}
     398:	193f012e 	ldmdbne	pc!, {r1, r2, r3, r5, r8}	; <UNPREDICTABLE>
     39c:	0b3a0e03 	bleq	e83bb0 <__bss_end__+0xe79710>
     3a0:	19270b3b 	stmdbne	r7!, {r0, r1, r3, r4, r5, r8, r9, fp}
     3a4:	193c1349 	ldmdbne	ip!, {r0, r3, r6, r8, r9, ip}
     3a8:	01000000 	mrseq	r0, (UNDEF: 0)
     3ac:	0e250111 	mcreq	1, 1, r0, cr5, cr1, {0}
     3b0:	0e030b13 	vmoveq.32	d3[0], r0
     3b4:	01110e1b 	tsteq	r1, fp, lsl lr
     3b8:	17100612 			; <UNDEFINED> instruction: 0x17100612
     3bc:	24020000 	strcs	r0, [r2], #-0
     3c0:	3e0b0b00 	vmlacc.f64	d0, d11, d0
     3c4:	0008030b 	andeq	r0, r8, fp, lsl #6
     3c8:	00240300 	eoreq	r0, r4, r0, lsl #6
     3cc:	0b3e0b0b 	bleq	f83000 <__bss_end__+0xf78b60>
     3d0:	00000e03 	andeq	r0, r0, r3, lsl #28
     3d4:	03012e04 	movweq	r2, #7684	; 0x1e04
     3d8:	3b0b3a0e 	blcc	2cec18 <__bss_end__+0x2c4778>
     3dc:	4919270b 	ldmdbmi	r9, {r0, r1, r3, r8, r9, sl, sp}
     3e0:	12011113 	andne	r1, r1, #-1073741820	; 0xc0000004
     3e4:	97184006 	ldrls	r4, [r8, -r6]
     3e8:	13011942 	movwne	r1, #6466	; 0x1942
     3ec:	05050000 	streq	r0, [r5, #-0]
     3f0:	3a080300 	bcc	200ff8 <__bss_end__+0x1f6b58>
     3f4:	490b3b0b 	stmdbmi	fp, {r0, r1, r3, r8, r9, fp, ip, sp}
     3f8:	00170213 	andseq	r0, r7, r3, lsl r2
     3fc:	82890600 	addhi	r0, r9, #0, 12
     400:	01110101 	tsteq	r1, r1, lsl #2
     404:	00001331 	andeq	r1, r0, r1, lsr r3
     408:	01828a07 	orreq	r8, r2, r7, lsl #20
     40c:	91180200 	tstls	r8, r0, lsl #4
     410:	00001842 	andeq	r1, r0, r2, asr #16
     414:	3f002e08 	svccc	0x00002e08
     418:	3a0e0319 	bcc	381084 <__bss_end__+0x376be4>
     41c:	270b3b0b 	strcs	r3, [fp, -fp, lsl #22]
     420:	12011119 	andne	r1, r1, #1073741830	; 0x40000006
     424:	97184006 	ldrls	r4, [r8, -r6]
     428:	00001942 	andeq	r1, r0, r2, asr #18
     42c:	3f012e09 	svccc	0x00012e09
     430:	3a0e0319 	bcc	38109c <__bss_end__+0x376bfc>
     434:	270b3b0b 	strcs	r3, [fp, -fp, lsl #22]
     438:	12011119 	andne	r1, r1, #1073741830	; 0x40000006
     43c:	97184006 	ldrls	r4, [r8, -r6]
     440:	13011942 	movwne	r1, #6466	; 0x1942
     444:	050a0000 	streq	r0, [sl, #-0]
     448:	3a080300 	bcc	201050 <__bss_end__+0x1f6bb0>
     44c:	490b3b0b 	stmdbmi	fp, {r0, r1, r3, r8, r9, fp, ip, sp}
     450:	00180213 	andseq	r0, r8, r3, lsl r2
     454:	01150b00 	tsteq	r5, r0, lsl #22
     458:	13491927 	movtne	r1, #39207	; 0x9927
     45c:	00001301 	andeq	r1, r0, r1, lsl #6
     460:	4900050c 	stmdbmi	r0, {r2, r3, r8, sl}
     464:	0d000013 	stceq	0, cr0, [r0, #-76]	; 0xffffffb4
     468:	0b0b000f 	bleq	2c04ac <__bss_end__+0x2b600c>
     46c:	00001349 	andeq	r1, r0, r9, asr #6
     470:	0300340e 	movweq	r3, #1038	; 0x40e
     474:	3b0b3a0e 	blcc	2cecb4 <__bss_end__+0x2c4814>
     478:	3f13490b 	svccc	0x0013490b
     47c:	00180219 	andseq	r0, r8, r9, lsl r2
     480:	012e0f00 	teqeq	lr, r0, lsl #30
     484:	0e03193f 	mcreq	9, 0, r1, cr3, cr15, {1}
     488:	0b3b0b3a 	bleq	ec3178 <__bss_end__+0xeb8cd8>
     48c:	193c1927 	ldmdbne	ip!, {r0, r1, r2, r5, r8, fp, ip}
     490:	01000000 	mrseq	r0, (UNDEF: 0)
     494:	0e250111 	mcreq	1, 1, r0, cr5, cr1, {0}
     498:	0e030b13 	vmoveq.32	d3[0], r0
     49c:	01110e1b 	tsteq	r1, fp, lsl lr
     4a0:	17100612 			; <UNDEFINED> instruction: 0x17100612
     4a4:	24020000 	strcs	r0, [r2], #-0
     4a8:	3e0b0b00 	vmlacc.f64	d0, d11, d0
     4ac:	0008030b 	andeq	r0, r8, fp, lsl #6
     4b0:	00240300 	eoreq	r0, r4, r0, lsl #6
     4b4:	0b3e0b0b 	bleq	f830e8 <__bss_end__+0xf78c48>
     4b8:	00000e03 	andeq	r0, r0, r3, lsl #28
     4bc:	0b000f04 	bleq	40d4 <_start-0x3f2c>
     4c0:	0013490b 	andseq	r4, r3, fp, lsl #18
     4c4:	00260500 	eoreq	r0, r6, r0, lsl #10
     4c8:	00001349 	andeq	r1, r0, r9, asr #6
     4cc:	3f012e06 	svccc	0x00012e06
     4d0:	3a0e0319 	bcc	38113c <__bss_end__+0x376c9c>
     4d4:	270b3b0b 	strcs	r3, [fp, -fp, lsl #22]
     4d8:	11134919 	tstne	r3, r9, lsl r9
     4dc:	40061201 	andmi	r1, r6, r1, lsl #4
     4e0:	19429618 	stmdbne	r2, {r3, r4, r9, sl, ip, pc}^
     4e4:	00001301 	andeq	r1, r0, r1, lsl #6
     4e8:	03000507 	movweq	r0, #1287	; 0x507
     4ec:	3b0b3a08 	blcc	2ced14 <__bss_end__+0x2c4874>
     4f0:	0213490b 	andseq	r4, r3, #180224	; 0x2c000
     4f4:	08000017 	stmdaeq	r0, {r0, r1, r2, r4}
     4f8:	19270115 	stmdbne	r7!, {r0, r2, r4, r8}
     4fc:	13011349 	movwne	r1, #4937	; 0x1349
     500:	05090000 	streq	r0, [r9, #-0]
     504:	00134900 	andseq	r4, r3, r0, lsl #18
     508:	00340a00 	eorseq	r0, r4, r0, lsl #20
     50c:	0b3a0e03 	bleq	e83d20 <__bss_end__+0xe79880>
     510:	13490b3b 	movtne	r0, #39739	; 0x9b3b
     514:	193c193f 	ldmdbne	ip!, {r0, r1, r2, r3, r4, r5, r8, fp, ip}
     518:	340b0000 	strcc	r0, [fp], #-0
     51c:	3a0e0300 	bcc	381124 <__bss_end__+0x376c84>
     520:	490b3b0b 	stmdbmi	fp, {r0, r1, r3, r8, r9, fp, ip, sp}
     524:	02193f13 	andseq	r3, r9, #19, 30	; 0x4c
     528:	00000018 	andeq	r0, r0, r8, lsl r0
     52c:	25011101 	strcs	r1, [r1, #-257]	; 0x101
     530:	030b130e 	movweq	r1, #45838	; 0xb30e
     534:	110e1b0e 	tstne	lr, lr, lsl #22
     538:	10061201 	andne	r1, r6, r1, lsl #4
     53c:	02000017 	andeq	r0, r0, #23
     540:	0b0b0024 	bleq	2c05d8 <__bss_end__+0x2b6138>
     544:	08030b3e 	stmdaeq	r3, {r1, r2, r3, r4, r5, r8, r9, fp}
     548:	24030000 	strcs	r0, [r3], #-0
     54c:	3e0b0b00 	vmlacc.f64	d0, d11, d0
     550:	000e030b 	andeq	r0, lr, fp, lsl #6
     554:	000f0400 	andeq	r0, pc, r0, lsl #8
     558:	00000b0b 	andeq	r0, r0, fp, lsl #22
     55c:	0b000f05 	bleq	4178 <_start-0x3e88>
     560:	0013490b 	andseq	r4, r3, fp, lsl #18
     564:	00260600 	eoreq	r0, r6, r0, lsl #12
     568:	00001349 	andeq	r1, r0, r9, asr #6
     56c:	03001607 	movweq	r1, #1543	; 0x607
     570:	3b0b3a0e 	blcc	2cedb0 <__bss_end__+0x2c4910>
     574:	0013490b 	andseq	r4, r3, fp, lsl #18
     578:	01130800 	tsteq	r3, r0, lsl #16
     57c:	0b0b0e03 	bleq	2c3d90 <__bss_end__+0x2b98f0>
     580:	0b3b0b3a 	bleq	ec3270 <__bss_end__+0xeb8dd0>
     584:	00001301 	andeq	r1, r0, r1, lsl #6
     588:	03000d09 	movweq	r0, #3337	; 0xd09
     58c:	3813490e 	ldmdacc	r3, {r1, r2, r3, r8, fp, lr}
     590:	0019340b 	andseq	r3, r9, fp, lsl #8
     594:	012e0a00 	teqeq	lr, r0, lsl #20
     598:	0b3a0e03 	bleq	e83dac <__bss_end__+0xe7990c>
     59c:	19270b3b 	stmdbne	r7!, {r0, r1, r3, r4, r5, r8, r9, fp}
     5a0:	01111349 	tsteq	r1, r9, asr #6
     5a4:	18400612 	stmdane	r0, {r1, r4, r9, sl}^
     5a8:	01194297 			; <UNDEFINED> instruction: 0x01194297
     5ac:	0b000013 	bleq	600 <_start-0x7a00>
     5b0:	08030005 	stmdaeq	r3, {r0, r2}
     5b4:	0b3b0b3a 	bleq	ec32a4 <__bss_end__+0xeb8e04>
     5b8:	17021349 	strne	r1, [r2, -r9, asr #6]
     5bc:	2e0c0000 	cdpcs	0, 0, cr0, cr12, cr0, {0}
     5c0:	3a080301 	bcc	2011cc <__bss_end__+0x1f6d2c>
     5c4:	270b3b0b 	strcs	r3, [fp, -fp, lsl #22]
     5c8:	11134919 	tstne	r3, r9, lsl r9
     5cc:	40061201 	andmi	r1, r6, r1, lsl #4
     5d0:	19429718 	stmdbne	r2, {r3, r4, r8, r9, sl, ip, pc}^
     5d4:	00001301 	andeq	r1, r0, r1, lsl #6
     5d8:	0300050d 	movweq	r0, #1293	; 0x50d
     5dc:	3b0b3a0e 	blcc	2cee1c <__bss_end__+0x2c497c>
     5e0:	0213490b 	andseq	r4, r3, #180224	; 0x2c000
     5e4:	0e000017 	mcreq	0, 0, r0, cr0, cr7, {0}
     5e8:	0e030005 	cdpeq	0, 0, cr0, cr3, cr5, {0}
     5ec:	0b3b0b3a 	bleq	ec32dc <__bss_end__+0xeb8e3c>
     5f0:	18021349 	stmdane	r2, {r0, r3, r6, r8, r9, ip}
     5f4:	340f0000 	strcc	r0, [pc], #-0	; 5fc <_start-0x7a04>
     5f8:	3a080300 	bcc	201200 <__bss_end__+0x1f6d60>
     5fc:	490b3b0b 	stmdbmi	fp, {r0, r1, r3, r8, r9, fp, ip, sp}
     600:	00180213 	andseq	r0, r8, r3, lsl r2
     604:	00341000 	eorseq	r1, r4, r0
     608:	0b3a0803 	bleq	e8261c <__bss_end__+0xe7817c>
     60c:	13490b3b 	movtne	r0, #39739	; 0x9b3b
     610:	00001702 	andeq	r1, r0, r2, lsl #14
     614:	03003411 	movweq	r3, #1041	; 0x411
     618:	3413490e 	ldrcc	r4, [r3], #-2318	; 0x90e
     61c:	00180219 	andseq	r0, r8, r9, lsl r2
     620:	010b1200 	mrseq	r1, R11_fiq
     624:	06120111 			; <UNDEFINED> instruction: 0x06120111
     628:	00001301 	andeq	r1, r0, r1, lsl #6
     62c:	03003413 	movweq	r3, #1043	; 0x413
     630:	3b0b3a0e 	blcc	2cee70 <__bss_end__+0x2c49d0>
     634:	0213490b 	andseq	r4, r3, #180224	; 0x2c000
     638:	14000017 	strne	r0, [r0], #-23
     63c:	00018289 	andeq	r8, r1, r9, lsl #5
     640:	13310111 	teqne	r1, #1073741828	; 0x40000004
     644:	89150000 	ldmdbhi	r5, {}	; <UNPREDICTABLE>
     648:	11010182 	smlabbne	r1, r2, r1, r0
     64c:	01133101 	tsteq	r3, r1, lsl #2
     650:	16000013 			; <UNDEFINED> instruction: 0x16000013
     654:	0001828a 	andeq	r8, r1, sl, lsl #5
     658:	42911802 	addsmi	r1, r1, #131072	; 0x20000
     65c:	17000018 	smladne	r0, r8, r0, r0
     660:	01018289 	smlabbeq	r1, r9, r2, r8
     664:	13310111 	teqne	r1, #1073741828	; 0x40000004
     668:	01180000 	tsteq	r8, r0
     66c:	01134901 	tsteq	r3, r1, lsl #18
     670:	19000013 	stmdbne	r0, {r0, r1, r4}
     674:	13490021 	movtne	r0, #36897	; 0x9021
     678:	00000b2f 	andeq	r0, r0, pc, lsr #22
     67c:	3f012e1a 	svccc	0x00012e1a
     680:	3a0e0319 	bcc	3812ec <__bss_end__+0x376e4c>
     684:	270b3b0b 	strcs	r3, [fp, -fp, lsl #22]
     688:	12011119 	andne	r1, r1, #1073741830	; 0x40000006
     68c:	97184006 	ldrls	r4, [r8, -r6]
     690:	13011942 	movwne	r1, #6466	; 0x1942
     694:	151b0000 	ldrne	r0, [fp, #-0]
     698:	49192701 	ldmdbmi	r9, {r0, r8, r9, sl, sp}
     69c:	00130113 	andseq	r0, r3, r3, lsl r1
     6a0:	00051c00 	andeq	r1, r5, r0, lsl #24
     6a4:	00001349 	andeq	r1, r0, r9, asr #6
     6a8:	3f012e1d 	svccc	0x00012e1d
     6ac:	3a0e0319 	bcc	381318 <__bss_end__+0x376e78>
     6b0:	270b3b0b 	strcs	r3, [fp, -fp, lsl #22]
     6b4:	11134919 	tstne	r3, r9, lsl r9
     6b8:	40061201 	andmi	r1, r6, r1, lsl #4
     6bc:	19429718 	stmdbne	r2, {r3, r4, r8, r9, sl, ip, pc}^
     6c0:	00001301 	andeq	r1, r0, r1, lsl #6
     6c4:	55010b1e 	strpl	r0, [r1, #-2846]	; 0xb1e
     6c8:	1f000017 	svcne	0x00000017
     6cc:	0e030034 	mcreq	0, 0, r0, cr3, cr4, {1}
     6d0:	0b3b0b3a 	bleq	ec33c0 <__bss_end__+0xeb8f20>
     6d4:	193f1349 	ldmdbne	pc!, {r0, r3, r6, r8, r9, ip}	; <UNPREDICTABLE>
     6d8:	0000193c 	andeq	r1, r0, ip, lsr r9
     6dc:	3f002e20 	svccc	0x00002e20
     6e0:	3a0e0319 	bcc	38134c <__bss_end__+0x376eac>
     6e4:	270b3b0b 	strcs	r3, [fp, -fp, lsl #22]
     6e8:	00193c19 	andseq	r3, r9, r9, lsl ip
     6ec:	012e2100 	teqeq	lr, r0, lsl #2
     6f0:	0e03193f 	mcreq	9, 0, r1, cr3, cr15, {1}
     6f4:	0b3b0b3a 	bleq	ec33e4 <__bss_end__+0xeb8f44>
     6f8:	13491927 	movtne	r1, #39207	; 0x9927
     6fc:	1301193c 	movwne	r1, #6460	; 0x193c
     700:	18220000 	stmdane	r2!, {}	; <UNPREDICTABLE>
     704:	00000000 	andeq	r0, r0, r0
     708:	25011101 	strcs	r1, [r1, #-257]	; 0x101
     70c:	030b130e 	movweq	r1, #45838	; 0xb30e
     710:	110e1b0e 	tstne	lr, lr, lsl #22
     714:	10061201 	andne	r1, r6, r1, lsl #4
     718:	02000017 	andeq	r0, r0, #23
     71c:	0b0b0024 	bleq	2c07b4 <__bss_end__+0x2b6314>
     720:	08030b3e 	stmdaeq	r3, {r1, r2, r3, r4, r5, r8, r9, fp}
     724:	24030000 	strcs	r0, [r3], #-0
     728:	3e0b0b00 	vmlacc.f64	d0, d11, d0
     72c:	000e030b 	andeq	r0, lr, fp, lsl #6
     730:	012e0400 	teqeq	lr, r0, lsl #8
     734:	0e03193f 	mcreq	9, 0, r1, cr3, cr15, {1}
     738:	0b3b0b3a 	bleq	ec3428 <__bss_end__+0xeb8f88>
     73c:	01111927 	tsteq	r1, r7, lsr #18
     740:	18400612 	stmdane	r0, {r1, r4, r9, sl}^
     744:	01194297 			; <UNDEFINED> instruction: 0x01194297
     748:	05000013 	streq	r0, [r0, #-19]
     74c:	08030034 	stmdaeq	r3, {r2, r4, r5}
     750:	0b3b0b3a 	bleq	ec3440 <__bss_end__+0xeb8fa0>
     754:	17021349 	strne	r1, [r2, -r9, asr #6]
     758:	2e060000 	cdpcs	0, 0, cr0, cr6, cr0, {0}
     75c:	03193f01 	tsteq	r9, #1, 30
     760:	3b0b3a0e 	blcc	2cefa0 <__bss_end__+0x2c4b00>
     764:	1119270b 	tstne	r9, fp, lsl #14
     768:	40061201 	andmi	r1, r6, r1, lsl #4
     76c:	19429718 	stmdbne	r2, {r3, r4, r8, r9, sl, ip, pc}^
     770:	01000000 	mrseq	r0, (UNDEF: 0)
     774:	0e250111 	mcreq	1, 1, r0, cr5, cr1, {0}
     778:	0e030b13 	vmoveq.32	d3[0], r0
     77c:	01110e1b 	tsteq	r1, fp, lsl lr
     780:	17100612 			; <UNDEFINED> instruction: 0x17100612
     784:	24020000 	strcs	r0, [r2], #-0
     788:	3e0b0b00 	vmlacc.f64	d0, d11, d0
     78c:	0008030b 	andeq	r0, r8, fp, lsl #6
     790:	00240300 	eoreq	r0, r4, r0, lsl #6
     794:	0b3e0b0b 	bleq	f833c8 <__bss_end__+0xf78f28>
     798:	00000e03 	andeq	r0, r0, r3, lsl #28
     79c:	0b000f04 	bleq	43b4 <_start-0x3c4c>
     7a0:	0013490b 	andseq	r4, r3, fp, lsl #18
     7a4:	00260500 	eoreq	r0, r6, r0, lsl #10
     7a8:	00001349 	andeq	r1, r0, r9, asr #6
     7ac:	3f012e06 	svccc	0x00012e06
     7b0:	3a0e0319 	bcc	38141c <__bss_end__+0x376f7c>
     7b4:	270b3b0b 	strcs	r3, [fp, -fp, lsl #22]
     7b8:	12011119 	andne	r1, r1, #1073741830	; 0x40000006
     7bc:	97184006 	ldrls	r4, [r8, -r6]
     7c0:	13011942 	movwne	r1, #6466	; 0x1942
     7c4:	89070000 	stmdbhi	r7, {}	; <UNPREDICTABLE>
     7c8:	11010182 	smlabbne	r1, r2, r1, r0
     7cc:	00130101 	andseq	r0, r3, r1, lsl #2
     7d0:	828a0800 	addhi	r0, sl, #0, 16
     7d4:	18020001 	stmdane	r2, {r0}
     7d8:	00184291 	mulseq	r8, r1, r2
     7dc:	82890900 	addhi	r0, r9, #0, 18
     7e0:	01110101 	tsteq	r1, r1, lsl #2
     7e4:	13011331 	movwne	r1, #4913	; 0x1331
     7e8:	890a0000 	stmdbhi	sl, {}	; <UNPREDICTABLE>
     7ec:	11000182 	smlabbne	r0, r2, r1, r0
     7f0:	00133101 	andseq	r3, r3, r1, lsl #2
     7f4:	01150b00 	tsteq	r5, r0, lsl #22
     7f8:	13491927 	movtne	r1, #39207	; 0x9927
     7fc:	00001301 	andeq	r1, r0, r1, lsl #6
     800:	4900050c 	stmdbmi	r0, {r2, r3, r8, sl}
     804:	0d000013 	stceq	0, cr0, [r0, #-76]	; 0xffffffb4
     808:	0e030034 	mcreq	0, 0, r0, cr3, cr4, {1}
     80c:	0b3b0b3a 	bleq	ec34fc <__bss_end__+0xeb905c>
     810:	193f1349 	ldmdbne	pc!, {r0, r3, r6, r8, r9, ip}	; <UNPREDICTABLE>
     814:	0000193c 	andeq	r1, r0, ip, lsr r9
     818:	3f012e0e 	svccc	0x00012e0e
     81c:	3a0e0319 	bcc	381488 <__bss_end__+0x376fe8>
     820:	270b3b0b 	strcs	r3, [fp, -fp, lsl #22]
     824:	01193c19 	tsteq	r9, r9, lsl ip
     828:	0f000013 	svceq	0x00000013
     82c:	193f002e 	ldmdbne	pc!, {r1, r2, r3, r5}	; <UNPREDICTABLE>
     830:	0b3a0e03 	bleq	e84044 <__bss_end__+0xe79ba4>
     834:	19270b3b 	stmdbne	r7!, {r0, r1, r3, r4, r5, r8, r9, fp}
     838:	0000193c 	andeq	r1, r0, ip, lsr r9
     83c:	01110100 	tsteq	r1, r0, lsl #2
     840:	0b130e25 	bleq	4c40dc <__bss_end__+0x4b9c3c>
     844:	0e1b0e03 	cdpeq	14, 1, cr0, cr11, cr3, {0}
     848:	06120111 			; <UNDEFINED> instruction: 0x06120111
     84c:	00001710 	andeq	r1, r0, r0, lsl r7
     850:	0b002402 	bleq	9860 <sw_uart_gets_timeout+0x40>
     854:	030b3e0b 	movweq	r3, #48651	; 0xbe0b
     858:	03000008 	movweq	r0, #8
     85c:	0b0b0024 	bleq	2c08f4 <__bss_end__+0x2b6454>
     860:	0e030b3e 	vmoveq.16	d3[0], r0
     864:	16040000 	strne	r0, [r4], -r0
     868:	3a0e0300 	bcc	381470 <__bss_end__+0x376fd0>
     86c:	490b3b0b 	stmdbmi	fp, {r0, r1, r3, r8, r9, fp, ip, sp}
     870:	05000013 	streq	r0, [r0, #-19]
     874:	0b0b000f 	bleq	2c08b8 <__bss_end__+0x2b6418>
     878:	00001349 	andeq	r1, r0, r9, asr #6
     87c:	49002606 	stmdbmi	r0, {r1, r2, r9, sl, sp}
     880:	07000013 	smladeq	r0, r3, r0, r0
     884:	0b0b0113 	bleq	2c0cd8 <__bss_end__+0x2b6838>
     888:	0b3b0b3a 	bleq	ec3578 <__bss_end__+0xeb90d8>
     88c:	00001301 	andeq	r1, r0, r1, lsl #6
     890:	03000d08 	movweq	r0, #3336	; 0xd08
     894:	3b0b3a08 	blcc	2cf0bc <__bss_end__+0x2c4c1c>
     898:	3813490b 	ldmdacc	r3, {r0, r1, r3, r8, fp, lr}
     89c:	0900000b 	stmdbeq	r0, {r0, r1, r3}
     8a0:	0e03000d 	cdpeq	0, 0, cr0, cr3, cr13, {0}
     8a4:	0b3b0b3a 	bleq	ec3594 <__bss_end__+0xeb90f4>
     8a8:	0b381349 	bleq	e055d4 <__bss_end__+0xdfb134>
     8ac:	040a0000 	streq	r0, [sl], #-0
     8b0:	3a0b0b01 	bcc	2c34bc <__bss_end__+0x2b901c>
     8b4:	010b3b0b 	tsteq	fp, fp, lsl #22
     8b8:	0b000013 	bleq	90c <_start-0x76f4>
     8bc:	0e030028 	cdpeq	0, 0, cr0, cr3, cr8, {1}
     8c0:	00000d1c 	andeq	r0, r0, ip, lsl sp
     8c4:	03012e0c 	movweq	r2, #7692	; 0x1e0c
     8c8:	3b0b3a0e 	blcc	2cf108 <__bss_end__+0x2c4c68>
     8cc:	4919270b 	ldmdbmi	r9, {r0, r1, r3, r8, r9, sl, sp}
     8d0:	12011113 	andne	r1, r1, #-1073741820	; 0xc0000004
     8d4:	97184006 	ldrls	r4, [r8, -r6]
     8d8:	13011942 	movwne	r1, #6466	; 0x1942
     8dc:	050d0000 	streq	r0, [sp, #-0]
     8e0:	3a080300 	bcc	2014e8 <__bss_end__+0x1f7048>
     8e4:	490b3b0b 	stmdbmi	fp, {r0, r1, r3, r8, r9, fp, ip, sp}
     8e8:	00170213 	andseq	r0, r7, r3, lsl r2
     8ec:	82890e00 	addhi	r0, r9, #0, 28
     8f0:	01110101 	tsteq	r1, r1, lsl #2
     8f4:	00001331 	andeq	r1, r0, r1, lsr r3
     8f8:	01828a0f 	orreq	r8, r2, pc, lsl #20
     8fc:	91180200 	tstls	r8, r0, lsl #4
     900:	00001842 	andeq	r1, r0, r2, asr #16
     904:	3f012e10 	svccc	0x00012e10
     908:	3a0e0319 	bcc	381574 <__bss_end__+0x3770d4>
     90c:	110b3b0b 	tstne	fp, fp, lsl #22
     910:	40061201 	andmi	r1, r6, r1, lsl #4
     914:	19429718 	stmdbne	r2, {r3, r4, r8, r9, sl, ip, pc}^
     918:	00001301 	andeq	r1, r0, r1, lsl #6
     91c:	03003411 	movweq	r3, #1041	; 0x411
     920:	3b0b3a0e 	blcc	2cf160 <__bss_end__+0x2c4cc0>
     924:	3f13490b 	svccc	0x0013490b
     928:	00193c19 	andseq	r3, r9, r9, lsl ip
     92c:	002e1200 	eoreq	r1, lr, r0, lsl #4
     930:	0e03193f 	mcreq	9, 0, r1, cr3, cr15, {1}
     934:	0b3b0b3a 	bleq	ec3624 <__bss_end__+0xeb9184>
     938:	193c1927 	ldmdbne	ip!, {r0, r1, r2, r5, r8, fp, ip}
     93c:	34130000 	ldrcc	r0, [r3], #-0
     940:	3a080300 	bcc	201548 <__bss_end__+0x1f70a8>
     944:	490b3b0b 	stmdbmi	fp, {r0, r1, r3, r8, r9, fp, ip, sp}
     948:	00170213 	andseq	r0, r7, r3, lsl r2
     94c:	00341400 	eorseq	r1, r4, r0, lsl #8
     950:	0b3a0e03 	bleq	e84164 <__bss_end__+0xe79cc4>
     954:	13490b3b 	movtne	r0, #39739	; 0x9b3b
     958:	89150000 	ldmdbhi	r5, {}	; <UNPREDICTABLE>
     95c:	11000182 	smlabbne	r0, r2, r1, r0
     960:	00133101 	andseq	r3, r3, r1, lsl #2
     964:	82891600 	addhi	r1, r9, #0, 12
     968:	01110101 	tsteq	r1, r1, lsl #2
     96c:	13011331 	movwne	r1, #4913	; 0x1331
     970:	34170000 	ldrcc	r0, [r7], #-0
     974:	3a0e0300 	bcc	38157c <__bss_end__+0x3770dc>
     978:	490b3b0b 	stmdbmi	fp, {r0, r1, r3, r8, r9, fp, ip, sp}
     97c:	00180213 	andseq	r0, r8, r3, lsl r2
     980:	01151800 	tsteq	r5, r0, lsl #16
     984:	13491927 	movtne	r1, #39207	; 0x9927
     988:	00001301 	andeq	r1, r0, r1, lsl #6
     98c:	49000519 	stmdbmi	r0, {r0, r3, r4, r8, sl}
     990:	1a000013 	bne	9e4 <_start-0x761c>
     994:	193f012e 	ldmdbne	pc!, {r1, r2, r3, r5, r8}	; <UNPREDICTABLE>
     998:	0b3a0e03 	bleq	e841ac <__bss_end__+0xe79d0c>
     99c:	19270b3b 	stmdbne	r7!, {r0, r1, r3, r4, r5, r8, r9, fp}
     9a0:	1301193c 	movwne	r1, #6460	; 0x193c
     9a4:	2e1b0000 	cdpcs	0, 1, cr0, cr11, cr0, {0}
     9a8:	03193f00 	tsteq	r9, #0, 30
     9ac:	3b0b3a0e 	blcc	2cf1ec <__bss_end__+0x2c4d4c>
     9b0:	4919270b 	ldmdbmi	r9, {r0, r1, r3, r8, r9, sl, sp}
     9b4:	00193c13 	andseq	r3, r9, r3, lsl ip
     9b8:	012e1c00 	teqeq	lr, r0, lsl #24
     9bc:	0e03193f 	mcreq	9, 0, r1, cr3, cr15, {1}
     9c0:	0b3b0b3a 	bleq	ec36b0 <__bss_end__+0xeb9210>
     9c4:	13491927 	movtne	r1, #39207	; 0x9927
     9c8:	1301193c 	movwne	r1, #6460	; 0x193c
     9cc:	181d0000 	ldmdane	sp, {}	; <UNPREDICTABLE>
     9d0:	00000000 	andeq	r0, r0, r0
     9d4:	25011101 	strcs	r1, [r1, #-257]	; 0x101
     9d8:	030b130e 	movweq	r1, #45838	; 0xb30e
     9dc:	550e1b0e 	strpl	r1, [lr, #-2830]	; 0xb0e
     9e0:	10011117 	andne	r1, r1, r7, lsl r1
     9e4:	02000017 	andeq	r0, r0, #23
     9e8:	0b0b0024 	bleq	2c0a80 <__bss_end__+0x2b65e0>
     9ec:	08030b3e 	stmdaeq	r3, {r1, r2, r3, r4, r5, r8, r9, fp}
     9f0:	24030000 	strcs	r0, [r3], #-0
     9f4:	3e0b0b00 	vmlacc.f64	d0, d11, d0
     9f8:	000e030b 	andeq	r0, lr, fp, lsl #6
     9fc:	012e0400 	teqeq	lr, r0, lsl #8
     a00:	0e03193f 	mcreq	9, 0, r1, cr3, cr15, {1}
     a04:	0b3b0b3a 	bleq	ec36f4 <__bss_end__+0xeb9254>
     a08:	13491927 	movtne	r1, #39207	; 0x9927
     a0c:	06120111 			; <UNDEFINED> instruction: 0x06120111
     a10:	42971840 	addsmi	r1, r7, #64, 16	; 0x400000
     a14:	00130119 	andseq	r0, r3, r9, lsl r1
     a18:	00340500 	eorseq	r0, r4, r0, lsl #10
     a1c:	0b3a0e03 	bleq	e84230 <__bss_end__+0xe79d90>
     a20:	13490b3b 	movtne	r0, #39739	; 0x9b3b
     a24:	00001702 	andeq	r1, r0, r2, lsl #14
     a28:	3f012e06 	svccc	0x00012e06
     a2c:	3a0e0319 	bcc	381698 <__bss_end__+0x3771f8>
     a30:	270b3b0b 	strcs	r3, [fp, -fp, lsl #22]
     a34:	12011119 	andne	r1, r1, #1073741830	; 0x40000006
     a38:	97184006 	ldrls	r4, [r8, -r6]
     a3c:	13011942 	movwne	r1, #6466	; 0x1942
     a40:	34070000 	strcc	r0, [r7], #-0
     a44:	3a0e0300 	bcc	38164c <__bss_end__+0x3771ac>
     a48:	490b3b0b 	stmdbmi	fp, {r0, r1, r3, r8, r9, fp, ip, sp}
     a4c:	00061c13 	andeq	r1, r6, r3, lsl ip
     a50:	00340800 	eorseq	r0, r4, r0, lsl #16
     a54:	0b3a0e03 	bleq	e84268 <__bss_end__+0xe79dc8>
     a58:	13490b3b 	movtne	r0, #39739	; 0x9b3b
     a5c:	00000b1c 	andeq	r0, r0, ip, lsl fp
     a60:	01828909 	orreq	r8, r2, r9, lsl #18
     a64:	31011100 	mrscc	r1, (UNDEF: 17)
     a68:	0a000013 	beq	abc <_start-0x7544>
     a6c:	01018289 	smlabbeq	r1, r9, r2, r8
     a70:	13310111 	teqne	r1, #1073741828	; 0x40000004
     a74:	00001301 	andeq	r1, r0, r1, lsl #6
     a78:	01828a0b 	orreq	r8, r2, fp, lsl #20
     a7c:	91180200 	tstls	r8, r0, lsl #4
     a80:	00001842 	andeq	r1, r0, r2, asr #16
     a84:	0182890c 	orreq	r8, r2, ip, lsl #18
     a88:	31011101 	tstcc	r1, r1, lsl #2
     a8c:	0d000013 	stceq	0, cr0, [r0, #-76]	; 0xffffffb4
     a90:	13490026 	movtne	r0, #36902	; 0x9026
     a94:	2e0e0000 	cdpcs	0, 0, cr0, cr14, cr0, {0}
     a98:	03193f01 	tsteq	r9, #1, 30
     a9c:	3b0b3a0e 	blcc	2cf2dc <__bss_end__+0x2c4e3c>
     aa0:	3c19270b 	ldccc	7, cr2, [r9], {11}
     aa4:	00130119 	andseq	r0, r3, r9, lsl r1
     aa8:	00050f00 	andeq	r0, r5, r0, lsl #30
     aac:	00001349 	andeq	r1, r0, r9, asr #6
     ab0:	3f012e10 	svccc	0x00012e10
     ab4:	3a0e0319 	bcc	381720 <__bss_end__+0x377280>
     ab8:	270b3b0b 	strcs	r3, [fp, -fp, lsl #22]
     abc:	00193c19 	andseq	r3, r9, r9, lsl ip
     ac0:	11010000 	mrsne	r0, (UNDEF: 1)
     ac4:	130e2501 	movwne	r2, #58625	; 0xe501
     ac8:	1b0e030b 	blne	3816fc <__bss_end__+0x37725c>
     acc:	1201110e 	andne	r1, r1, #-2147483645	; 0x80000003
     ad0:	00171006 	andseq	r1, r7, r6
     ad4:	00240200 	eoreq	r0, r4, r0, lsl #4
     ad8:	0b3e0b0b 	bleq	f8370c <__bss_end__+0xf7926c>
     adc:	00000803 	andeq	r0, r0, r3, lsl #16
     ae0:	0b002403 	bleq	9af4 <uart_init+0x2c>
     ae4:	030b3e0b 	movweq	r3, #48651	; 0xbe0b
     ae8:	0400000e 	streq	r0, [r0], #-14
     aec:	193f012e 	ldmdbne	pc!, {r1, r2, r3, r5, r8}	; <UNPREDICTABLE>
     af0:	0b3a0e03 	bleq	e84304 <__bss_end__+0xe79e64>
     af4:	19270b3b 	stmdbne	r7!, {r0, r1, r3, r4, r5, r8, r9, fp}
     af8:	06120111 			; <UNDEFINED> instruction: 0x06120111
     afc:	42971840 	addsmi	r1, r7, #64, 16	; 0x400000
     b00:	00130119 	andseq	r0, r3, r9, lsl r1
     b04:	00050500 	andeq	r0, r5, r0, lsl #10
     b08:	0b3a0e03 	bleq	e8431c <__bss_end__+0xe79e7c>
     b0c:	13490b3b 	movtne	r0, #39739	; 0x9b3b
     b10:	00001702 	andeq	r1, r0, r2, lsl #14
     b14:	3f012e06 	svccc	0x00012e06
     b18:	3a0e0319 	bcc	381784 <__bss_end__+0x3772e4>
     b1c:	270b3b0b 	strcs	r3, [fp, -fp, lsl #22]
     b20:	11134919 	tstne	r3, r9, lsl r9
     b24:	40061201 	andmi	r1, r6, r1, lsl #4
     b28:	19429718 	stmdbne	r2, {r3, r4, r8, r9, sl, ip, pc}^
     b2c:	00001301 	andeq	r1, r0, r1, lsl #6
     b30:	01828907 	orreq	r8, r2, r7, lsl #18
     b34:	31011101 	tstcc	r1, r1, lsl #2
     b38:	08000013 	stmdaeq	r0, {r0, r1, r4}
     b3c:	0001828a 	andeq	r8, r1, sl, lsl #5
     b40:	42911802 	addsmi	r1, r1, #131072	; 0x20000
     b44:	09000018 	stmdbeq	r0, {r3, r4}
     b48:	08030034 	stmdaeq	r3, {r2, r4, r5}
     b4c:	0b3b0b3a 	bleq	ec383c <__bss_end__+0xeb939c>
     b50:	18021349 	stmdane	r2, {r0, r3, r6, r8, r9, ip}
     b54:	890a0000 	stmdbhi	sl, {}	; <UNPREDICTABLE>
     b58:	11000182 	smlabbne	r0, r2, r1, r0
     b5c:	00133101 	andseq	r3, r3, r1, lsl #2
     b60:	00050b00 	andeq	r0, r5, r0, lsl #22
     b64:	0b3a0803 	bleq	e82b78 <__bss_end__+0xe786d8>
     b68:	13490b3b 	movtne	r0, #39739	; 0x9b3b
     b6c:	00001702 	andeq	r1, r0, r2, lsl #14
     b70:	11010b0c 	tstne	r1, ip, lsl #22
     b74:	01061201 	tsteq	r6, r1, lsl #4
     b78:	0d000013 	stceq	0, cr0, [r0, #-76]	; 0xffffffb4
     b7c:	08030034 	stmdaeq	r3, {r2, r4, r5}
     b80:	0b3b0b3a 	bleq	ec3870 <__bss_end__+0xeb93d0>
     b84:	17021349 	strne	r1, [r2, -r9, asr #6]
     b88:	2e0e0000 	cdpcs	0, 0, cr0, cr14, cr0, {0}
     b8c:	03193f01 	tsteq	r9, #1, 30
     b90:	3b0b3a0e 	blcc	2cf3d0 <__bss_end__+0x2c4f30>
     b94:	4919270b 	ldmdbmi	r9, {r0, r1, r3, r8, r9, sl, sp}
     b98:	00193c13 	andseq	r3, r9, r3, lsl ip
     b9c:	00050f00 	andeq	r0, r5, r0, lsl #30
     ba0:	00001349 	andeq	r1, r0, r9, asr #6
     ba4:	01110100 	tsteq	r1, r0, lsl #2
     ba8:	0b130e25 	bleq	4c4444 <__bss_end__+0x4b9fa4>
     bac:	0e1b0e03 	cdpeq	14, 1, cr0, cr11, cr3, {0}
     bb0:	06120111 			; <UNDEFINED> instruction: 0x06120111
     bb4:	00001710 	andeq	r1, r0, r0, lsl r7
     bb8:	0b002402 	bleq	9bc8 <uart_putc+0x4>
     bbc:	030b3e0b 	movweq	r3, #48651	; 0xbe0b
     bc0:	0300000e 	movweq	r0, #14
     bc4:	0b0b0024 	bleq	2c0c5c <__bss_end__+0x2b67bc>
     bc8:	08030b3e 	stmdaeq	r3, {r1, r2, r3, r4, r5, r8, r9, fp}
     bcc:	04040000 	streq	r0, [r4], #-0
     bd0:	3a0b0b01 	bcc	2c37dc <__bss_end__+0x2b933c>
     bd4:	010b3b0b 	tsteq	fp, fp, lsl #22
     bd8:	05000013 	streq	r0, [r0, #-19]
     bdc:	0e030028 	cdpeq	0, 0, cr0, cr3, cr8, {1}
     be0:	00000d1c 	andeq	r0, r0, ip, lsl sp
     be4:	03001606 	movweq	r1, #1542	; 0x606
     be8:	3b0b3a0e 	blcc	2cf428 <__bss_end__+0x2c4f88>
     bec:	0013490b 	andseq	r4, r3, fp, lsl #18
     bf0:	012e0700 	teqeq	lr, r0, lsl #14
     bf4:	0e03193f 	mcreq	9, 0, r1, cr3, cr15, {1}
     bf8:	0b3b0b3a 	bleq	ec38e8 <__bss_end__+0xeb9448>
     bfc:	01111927 	tsteq	r1, r7, lsr #18
     c00:	18400612 	stmdane	r0, {r1, r4, r9, sl}^
     c04:	01194297 			; <UNDEFINED> instruction: 0x01194297
     c08:	08000013 	stmdaeq	r0, {r0, r1, r4}
     c0c:	08030005 	stmdaeq	r3, {r0, r2}
     c10:	0b3b0b3a 	bleq	ec3900 <__bss_end__+0xeb9460>
     c14:	17021349 	strne	r1, [r2, -r9, asr #6]
     c18:	34090000 	strcc	r0, [r9], #-0
     c1c:	3a0e0300 	bcc	381824 <__bss_end__+0x377384>
     c20:	490b3b0b 	stmdbmi	fp, {r0, r1, r3, r8, r9, fp, ip, sp}
     c24:	00170213 	andseq	r0, r7, r3, lsl r2
     c28:	82890a00 	addhi	r0, r9, #0, 20
     c2c:	01110101 	tsteq	r1, r1, lsl #2
     c30:	13011331 	movwne	r1, #4913	; 0x1331
     c34:	8a0b0000 	bhi	2c0c3c <__bss_end__+0x2b679c>
     c38:	02000182 	andeq	r0, r0, #-2147483616	; 0x80000020
     c3c:	18429118 	stmdane	r2, {r3, r4, r8, ip, pc}^
     c40:	890c0000 	stmdbhi	ip, {}	; <UNPREDICTABLE>
     c44:	11010182 	smlabbne	r1, r2, r1, r0
     c48:	00133101 	andseq	r3, r3, r1, lsl #2
     c4c:	000f0d00 	andeq	r0, pc, r0, lsl #26
     c50:	13490b0b 	movtne	r0, #39691	; 0x9b0b
     c54:	350e0000 	strcc	r0, [lr, #-0]
     c58:	00134900 	andseq	r4, r3, r0, lsl #18
     c5c:	012e0f00 	teqeq	lr, r0, lsl #30
     c60:	0e03193f 	mcreq	9, 0, r1, cr3, cr15, {1}
     c64:	0b3b0b3a 	bleq	ec3954 <__bss_end__+0xeb94b4>
     c68:	13491927 	movtne	r1, #39207	; 0x9927
     c6c:	06120111 			; <UNDEFINED> instruction: 0x06120111
     c70:	42971840 	addsmi	r1, r7, #64, 16	; 0x400000
     c74:	00130119 	andseq	r0, r3, r9, lsl r1
     c78:	00341000 	eorseq	r1, r4, r0
     c7c:	0b3a0803 	bleq	e82c90 <__bss_end__+0xe787f0>
     c80:	13490b3b 	movtne	r0, #39739	; 0x9b3b
     c84:	00001702 	andeq	r1, r0, r2, lsl #14
     c88:	01828911 	orreq	r8, r2, r1, lsl r9
     c8c:	31011100 	mrscc	r1, (UNDEF: 17)
     c90:	12000013 	andne	r0, r0, #19
     c94:	0e030005 	cdpeq	0, 0, cr0, cr3, cr5, {0}
     c98:	0b3b0b3a 	bleq	ec3988 <__bss_end__+0xeb94e8>
     c9c:	17021349 	strne	r1, [r2, -r9, asr #6]
     ca0:	2e130000 	cdpcs	0, 1, cr0, cr3, cr0, {0}
     ca4:	03193f01 	tsteq	r9, #1, 30
     ca8:	3b0b3a0e 	blcc	2cf4e8 <__bss_end__+0x2c5048>
     cac:	49192705 	ldmdbmi	r9, {r0, r2, r8, r9, sl, sp}
     cb0:	12011113 	andne	r1, r1, #-1073741820	; 0xc0000004
     cb4:	97184006 	ldrls	r4, [r8, -r6]
     cb8:	13011942 	movwne	r1, #6466	; 0x1942
     cbc:	05140000 	ldreq	r0, [r4, #-0]
     cc0:	3a0e0300 	bcc	3818c8 <__bss_end__+0x377428>
     cc4:	49053b0b 	stmdbmi	r5, {r0, r1, r3, r8, r9, fp, ip, sp}
     cc8:	00170213 	andseq	r0, r7, r3, lsl r2
     ccc:	012e1500 	teqeq	lr, r0, lsl #10
     cd0:	0e03193f 	mcreq	9, 0, r1, cr3, cr15, {1}
     cd4:	053b0b3a 	ldreq	r0, [fp, #-2874]!	; 0xb3a
     cd8:	01111927 	tsteq	r1, r7, lsr #18
     cdc:	18400612 	stmdane	r0, {r1, r4, r9, sl}^
     ce0:	01194297 			; <UNDEFINED> instruction: 0x01194297
     ce4:	16000013 			; <UNDEFINED> instruction: 0x16000013
     ce8:	08030005 	stmdaeq	r3, {r0, r2}
     cec:	053b0b3a 	ldreq	r0, [fp, #-2874]!	; 0xb3a
     cf0:	17021349 	strne	r1, [r2, -r9, asr #6]
     cf4:	34170000 	ldrcc	r0, [r7], #-0
     cf8:	3a0e0300 	bcc	381900 <__bss_end__+0x377460>
     cfc:	49053b0b 	stmdbmi	r5, {r0, r1, r3, r8, r9, fp, ip, sp}
     d00:	00170213 	andseq	r0, r7, r3, lsl r2
     d04:	010b1800 	tsteq	fp, r0, lsl #16
     d08:	06120111 			; <UNDEFINED> instruction: 0x06120111
     d0c:	00001301 	andeq	r1, r0, r1, lsl #6
     d10:	03003419 	movweq	r3, #1049	; 0x419
     d14:	3b0b3a0e 	blcc	2cf554 <__bss_end__+0x2c50b4>
     d18:	3f13490b 	svccc	0x0013490b
     d1c:	00180219 	andseq	r0, r8, r9, lsl r2
     d20:	00341a00 	eorseq	r1, r4, r0, lsl #20
     d24:	0b3a0e03 	bleq	e84538 <__bss_end__+0xe7a098>
     d28:	1349053b 	movtne	r0, #38203	; 0x953b
     d2c:	1802193f 	stmdane	r2, {r0, r1, r2, r3, r4, r5, r8, fp, ip}
     d30:	2e1b0000 	cdpcs	0, 1, cr0, cr11, cr0, {0}
     d34:	03193f01 	tsteq	r9, #1, 30
     d38:	3b0b3a0e 	blcc	2cf578 <__bss_end__+0x2c50d8>
     d3c:	4919270b 	ldmdbmi	r9, {r0, r1, r3, r8, r9, sl, sp}
     d40:	01193c13 	tsteq	r9, r3, lsl ip
     d44:	1c000013 	stcne	0, cr0, [r0], {19}
     d48:	13490005 	movtne	r0, #36869	; 0x9005
     d4c:	261d0000 	ldrcs	r0, [sp], -r0
     d50:	00134900 	andseq	r4, r3, r0, lsl #18
     d54:	00351e00 	eorseq	r1, r5, r0, lsl #28
     d58:	2e1f0000 	cdpcs	0, 1, cr0, cr15, cr0, {0}
     d5c:	03193f01 	tsteq	r9, #1, 30
     d60:	3b0b3a0e 	blcc	2cf5a0 <__bss_end__+0x2c5100>
     d64:	3c19270b 	ldccc	7, cr2, [r9], {11}
     d68:	00130119 	andseq	r0, r3, r9, lsl r1
     d6c:	002e2000 	eoreq	r2, lr, r0
     d70:	0e03193f 	mcreq	9, 0, r1, cr3, cr15, {1}
     d74:	0b3b0b3a 	bleq	ec3a64 <__bss_end__+0xeb95c4>
     d78:	193c1927 	ldmdbne	ip!, {r0, r1, r2, r5, r8, fp, ip}
     d7c:	01000000 	mrseq	r0, (UNDEF: 0)
     d80:	0e250111 	mcreq	1, 1, r0, cr5, cr1, {0}
     d84:	0e030b13 	vmoveq.32	d3[0], r0
     d88:	01110e1b 	tsteq	r1, fp, lsl lr
     d8c:	17100612 			; <UNDEFINED> instruction: 0x17100612
     d90:	24020000 	strcs	r0, [r2], #-0
     d94:	3e0b0b00 	vmlacc.f64	d0, d11, d0
     d98:	0008030b 	andeq	r0, r8, fp, lsl #6
     d9c:	00240300 	eoreq	r0, r4, r0, lsl #6
     da0:	0b3e0b0b 	bleq	f839d4 <__bss_end__+0xf79534>
     da4:	00000e03 	andeq	r0, r0, r3, lsl #28
     da8:	03001604 	movweq	r1, #1540	; 0x604
     dac:	3b0b3a0e 	blcc	2cf5ec <__bss_end__+0x2c514c>
     db0:	0013490b 	andseq	r4, r3, fp, lsl #18
     db4:	000f0500 	andeq	r0, pc, r0, lsl #10
     db8:	00000b0b 	andeq	r0, r0, fp, lsl #22
     dbc:	0b000f06 	bleq	49dc <_start-0x3624>
     dc0:	0013490b 	andseq	r4, r3, fp, lsl #18
     dc4:	00260700 	eoreq	r0, r6, r0, lsl #14
     dc8:	00001349 	andeq	r1, r0, r9, asr #6
     dcc:	0b011308 	bleq	459f4 <__bss_end__+0x3b554>
     dd0:	3b0b3a0b 	blcc	2cf604 <__bss_end__+0x2c5164>
     dd4:	0013010b 	andseq	r0, r3, fp, lsl #2
     dd8:	000d0900 	andeq	r0, sp, r0, lsl #18
     ddc:	0b3a0803 	bleq	e82df0 <__bss_end__+0xe78950>
     de0:	13490b3b 	movtne	r0, #39739	; 0x9b3b
     de4:	00000b38 	andeq	r0, r0, r8, lsr fp
     de8:	03000d0a 	movweq	r0, #3338	; 0xd0a
     dec:	3b0b3a0e 	blcc	2cf62c <__bss_end__+0x2c518c>
     df0:	3813490b 	ldmdacc	r3, {r0, r1, r3, r8, fp, lr}
     df4:	0b00000b 	bleq	e28 <_start-0x71d8>
     df8:	0e030113 	mcreq	1, 0, r0, cr3, cr3, {0}
     dfc:	0b3a0b0b 	bleq	e83a30 <__bss_end__+0xe79590>
     e00:	13010b3b 	movwne	r0, #6971	; 0x1b3b
     e04:	0d0c0000 	stceq	0, cr0, [ip, #-0]
     e08:	490e0300 	stmdbmi	lr, {r8, r9}
     e0c:	340b3813 	strcc	r3, [fp], #-2067	; 0x813
     e10:	0d000019 	stceq	0, cr0, [r0, #-100]	; 0xffffff9c
     e14:	0e03012e 	adfeqsp	f0, f3, #0.5
     e18:	0b3b0b3a 	bleq	ec3b08 <__bss_end__+0xeb9668>
     e1c:	0b201927 	bleq	8072c0 <__bss_end__+0x7fce20>
     e20:	00001301 	andeq	r1, r0, r1, lsl #6
     e24:	0300050e 	movweq	r0, #1294	; 0x50e
     e28:	3b0b3a0e 	blcc	2cf668 <__bss_end__+0x2c51c8>
     e2c:	0013490b 	andseq	r4, r3, fp, lsl #18
     e30:	00050f00 	andeq	r0, r5, r0, lsl #30
     e34:	0b3a0803 	bleq	e82e48 <__bss_end__+0xe789a8>
     e38:	13490b3b 	movtne	r0, #39739	; 0x9b3b
     e3c:	0b100000 	bleq	400e44 <__bss_end__+0x3f69a4>
     e40:	11000001 	tstne	r0, r1
     e44:	0e030034 	mcreq	0, 0, r0, cr3, cr4, {1}
     e48:	0b3b0b3a 	bleq	ec3b38 <__bss_end__+0xeb9698>
     e4c:	00001349 	andeq	r1, r0, r9, asr #6
     e50:	3f012e12 	svccc	0x00012e12
     e54:	3a0e0319 	bcc	381ac0 <__bss_end__+0x377620>
     e58:	270b3b0b 	strcs	r3, [fp, -fp, lsl #22]
     e5c:	12011119 	andne	r1, r1, #1073741830	; 0x40000006
     e60:	97184006 	ldrls	r4, [r8, -r6]
     e64:	13011942 	movwne	r1, #6466	; 0x1942
     e68:	05130000 	ldreq	r0, [r3, #-0]
     e6c:	3a0e0300 	bcc	381a74 <__bss_end__+0x3775d4>
     e70:	490b3b0b 	stmdbmi	fp, {r0, r1, r3, r8, r9, fp, ip, sp}
     e74:	00170213 	andseq	r0, r7, r3, lsl r2
     e78:	00051400 	andeq	r1, r5, r0, lsl #8
     e7c:	0b3a0803 	bleq	e82e90 <__bss_end__+0xe789f0>
     e80:	13490b3b 	movtne	r0, #39739	; 0x9b3b
     e84:	00001702 	andeq	r1, r0, r2, lsl #14
     e88:	03003415 	movweq	r3, #1045	; 0x415
     e8c:	3b0b3a08 	blcc	2cf6b4 <__bss_end__+0x2c5214>
     e90:	0213490b 	andseq	r4, r3, #180224	; 0x2c000
     e94:	16000018 			; <UNDEFINED> instruction: 0x16000018
     e98:	08030034 	stmdaeq	r3, {r2, r4, r5}
     e9c:	0b3b0b3a 	bleq	ec3b8c <__bss_end__+0xeb96ec>
     ea0:	17021349 	strne	r1, [r2, -r9, asr #6]
     ea4:	0b170000 	bleq	5c0eac <__bss_end__+0x5b6a0c>
     ea8:	12011101 	andne	r1, r1, #1073741824	; 0x40000000
     eac:	00130106 	andseq	r0, r3, r6, lsl #2
     eb0:	00341800 	eorseq	r1, r4, r0, lsl #16
     eb4:	0b3a0e03 	bleq	e846c8 <__bss_end__+0xe7a228>
     eb8:	13490b3b 	movtne	r0, #39739	; 0x9b3b
     ebc:	00001802 	andeq	r1, r0, r2, lsl #16
     ec0:	31011d19 	tstcc	r1, r9, lsl sp
     ec4:	12011113 	andne	r1, r1, #-1073741820	; 0xc0000004
     ec8:	590b5806 	stmdbpl	fp, {r1, r2, fp, ip, lr}
     ecc:	0013010b 	andseq	r0, r3, fp, lsl #2
     ed0:	00051a00 	andeq	r1, r5, r0, lsl #20
     ed4:	17021331 	smladxne	r2, r1, r3, r1
     ed8:	051b0000 	ldreq	r0, [fp, #-0]
     edc:	02133100 	andseq	r3, r3, #0, 2
     ee0:	1c000018 	stcne	0, cr0, [r0], {24}
     ee4:	13310005 	teqne	r1, #5
     ee8:	00000b1c 	andeq	r0, r0, ip, lsl fp
     eec:	11010b1d 	tstne	r1, sp, lsl fp
     ef0:	00061201 	andeq	r1, r6, r1, lsl #4
     ef4:	00341e00 	eorseq	r1, r4, r0, lsl #28
     ef8:	17021331 	smladxne	r2, r1, r3, r1
     efc:	891f0000 	ldmdbhi	pc, {}	; <UNPREDICTABLE>
     f00:	11010182 	smlabbne	r1, r2, r1, r0
     f04:	00133101 	andseq	r3, r3, r1, lsl #2
     f08:	828a2000 	addhi	r2, sl, #0
     f0c:	18020001 	stmdane	r2, {r0}
     f10:	00184291 	mulseq	r8, r1, r2
     f14:	011d2100 	tsteq	sp, r0, lsl #2
     f18:	01111331 	tsteq	r1, r1, lsr r3
     f1c:	0b580612 	bleq	160276c <__bss_end__+0x15f82cc>
     f20:	00000b59 	andeq	r0, r0, r9, asr fp
     f24:	03012e22 	movweq	r2, #7714	; 0x1e22
     f28:	3b0b3a0e 	blcc	2cf768 <__bss_end__+0x2c52c8>
     f2c:	4919270b 	ldmdbmi	r9, {r0, r1, r3, r8, r9, sl, sp}
     f30:	010b2013 	tsteq	fp, r3, lsl r0
     f34:	23000013 	movwcs	r0, #19
     f38:	193f012e 	ldmdbne	pc!, {r1, r2, r3, r5, r8}	; <UNPREDICTABLE>
     f3c:	0b3a0e03 	bleq	e84750 <__bss_end__+0xe7a2b0>
     f40:	19270b3b 	stmdbne	r7!, {r0, r1, r3, r4, r5, r8, r9, fp}
     f44:	01111349 	tsteq	r1, r9, asr #6
     f48:	18400612 	stmdane	r0, {r1, r4, r9, sl}^
     f4c:	01194297 			; <UNDEFINED> instruction: 0x01194297
     f50:	24000013 	strcs	r0, [r0], #-19
     f54:	00018289 	andeq	r8, r1, r9, lsl #5
     f58:	13310111 	teqne	r1, #1073741828	; 0x40000004
     f5c:	89250000 	stmdbhi	r5!, {}	; <UNPREDICTABLE>
     f60:	11010182 	smlabbne	r1, r2, r1, r0
     f64:	01133101 	tsteq	r3, r1, lsl #2
     f68:	26000013 			; <UNDEFINED> instruction: 0x26000013
     f6c:	0e030034 	mcreq	0, 0, r0, cr3, cr4, {1}
     f70:	0b3b0b3a 	bleq	ec3c60 <__bss_end__+0xeb97c0>
     f74:	17021349 	strne	r1, [r2, -r9, asr #6]
     f78:	05270000 	streq	r0, [r7, #-0]!
     f7c:	00133100 	andseq	r3, r3, r0, lsl #2
     f80:	00052800 	andeq	r2, r5, r0, lsl #16
     f84:	0b3a0e03 	bleq	e84798 <__bss_end__+0xe7a2f8>
     f88:	13490b3b 	movtne	r0, #39739	; 0x9b3b
     f8c:	00001802 	andeq	r1, r0, r2, lsl #16
     f90:	03003429 	movweq	r3, #1065	; 0x429
     f94:	3413490e 	ldrcc	r4, [r3], #-2318	; 0x90e
     f98:	00180219 	andseq	r0, r8, r9, lsl r2
     f9c:	01012a00 	tsteq	r1, r0, lsl #20
     fa0:	13011349 	movwne	r1, #4937	; 0x1349
     fa4:	212b0000 	teqcs	fp, r0
     fa8:	2f134900 	svccs	0x00134900
     fac:	2c00000b 	stccs	0, cr0, [r0], {11}
     fb0:	08030034 	stmdaeq	r3, {r2, r4, r5}
     fb4:	0b3b0b3a 	bleq	ec3ca4 <__bss_end__+0xeb9804>
     fb8:	061c1349 	ldreq	r1, [ip], -r9, asr #6
     fbc:	342d0000 	strtcc	r0, [sp], #-0
     fc0:	3a080300 	bcc	201bc8 <__bss_end__+0x1f7728>
     fc4:	490b3b0b 	stmdbmi	fp, {r0, r1, r3, r8, r9, fp, ip, sp}
     fc8:	000b1c13 	andeq	r1, fp, r3, lsl ip
     fcc:	00052e00 	andeq	r2, r5, r0, lsl #28
     fd0:	0b3a0803 	bleq	e82fe4 <__bss_end__+0xe78b44>
     fd4:	13490b3b 	movtne	r0, #39739	; 0x9b3b
     fd8:	00001802 	andeq	r1, r0, r2, lsl #16
     fdc:	0000182f 	andeq	r1, r0, pc, lsr #16
     fe0:	00213000 	eoreq	r3, r1, r0
     fe4:	052f1349 	streq	r1, [pc, #-841]!	; ca3 <_start-0x735d>
     fe8:	2e310000 	cdpcs	0, 3, cr0, cr1, cr0, {0}
     fec:	03193f01 	tsteq	r9, #1, 30
     ff0:	3b0b3a0e 	blcc	2cf830 <__bss_end__+0x2c5390>
     ff4:	3c19270b 	ldccc	7, cr2, [r9], {11}
     ff8:	00130119 	andseq	r0, r3, r9, lsl r1
     ffc:	00053200 	andeq	r3, r5, r0, lsl #4
    1000:	00001349 	andeq	r1, r0, r9, asr #6
    1004:	3f002e33 	svccc	0x00002e33
    1008:	3a0e0319 	bcc	381c74 <__bss_end__+0x3777d4>
    100c:	270b3b0b 	strcs	r3, [fp, -fp, lsl #22]
    1010:	3c134919 	ldccc	9, cr4, [r3], {25}
    1014:	34000019 	strcc	r0, [r0], #-25
    1018:	193f012e 	ldmdbne	pc!, {r1, r2, r3, r5, r8}	; <UNPREDICTABLE>
    101c:	0b3a0e03 	bleq	e84830 <__bss_end__+0xe7a390>
    1020:	19270b3b 	stmdbne	r7!, {r0, r1, r3, r4, r5, r8, r9, fp}
    1024:	193c1349 	ldmdbne	ip!, {r0, r3, r6, r8, r9, ip}
    1028:	00001301 	andeq	r1, r0, r1, lsl #6
    102c:	3f002e35 	svccc	0x00002e35
    1030:	3a0e0319 	bcc	381c9c <__bss_end__+0x3777fc>
    1034:	270b3b0b 	strcs	r3, [fp, -fp, lsl #22]
    1038:	00193c19 	andseq	r3, r9, r9, lsl ip
    103c:	012e3600 	teqeq	lr, r0, lsl #12
    1040:	0e03193f 	mcreq	9, 0, r1, cr3, cr15, {1}
    1044:	0b3b0b3a 	bleq	ec3d34 <__bss_end__+0xeb9894>
    1048:	13491927 	movtne	r1, #39207	; 0x9927
    104c:	0000193c 	andeq	r1, r0, ip, lsr r9
    1050:	01110100 	tsteq	r1, r0, lsl #2
    1054:	0b130e25 	bleq	4c48f0 <__bss_end__+0x4ba450>
    1058:	0e1b0e03 	cdpeq	14, 1, cr0, cr11, cr3, {0}
    105c:	06120111 			; <UNDEFINED> instruction: 0x06120111
    1060:	00001710 	andeq	r1, r0, r0, lsl r7
    1064:	0b002402 	bleq	a074 <__FUNCTION__.4376+0x98>
    1068:	030b3e0b 	movweq	r3, #48651	; 0xbe0b
    106c:	03000008 	movweq	r0, #8
    1070:	0b0b0024 	bleq	2c1108 <__bss_end__+0x2b6c68>
    1074:	0e030b3e 	vmoveq.16	d3[0], r0
    1078:	04040000 	streq	r0, [r4], #-0
    107c:	3a0b0b01 	bcc	2c3c88 <__bss_end__+0x2b97e8>
    1080:	010b3b0b 	tsteq	fp, fp, lsl #22
    1084:	05000013 	streq	r0, [r0, #-19]
    1088:	0e030028 	cdpeq	0, 0, cr0, cr3, cr8, {1}
    108c:	00000d1c 	andeq	r0, r0, ip, lsl sp
    1090:	03001606 	movweq	r1, #1542	; 0x606
    1094:	3b0b3a0e 	blcc	2cf8d4 <__bss_end__+0x2c5434>
    1098:	0013490b 	andseq	r4, r3, fp, lsl #18
    109c:	012e0700 	teqeq	lr, r0, lsl #14
    10a0:	0e03193f 	mcreq	9, 0, r1, cr3, cr15, {1}
    10a4:	0b3b0b3a 	bleq	ec3d94 <__bss_end__+0xeb98f4>
    10a8:	01111927 	tsteq	r1, r7, lsr #18
    10ac:	18400612 	stmdane	r0, {r1, r4, r9, sl}^
    10b0:	01194297 			; <UNDEFINED> instruction: 0x01194297
    10b4:	08000013 	stmdaeq	r0, {r0, r1, r4}
    10b8:	00018289 	andeq	r8, r1, r9, lsl #5
    10bc:	13310111 	teqne	r1, #1073741828	; 0x40000004
    10c0:	89090000 	stmdbhi	r9, {}	; <UNPREDICTABLE>
    10c4:	11010182 	smlabbne	r1, r2, r1, r0
    10c8:	01133101 	tsteq	r3, r1, lsl #2
    10cc:	0a000013 	beq	1120 <_start-0x6ee0>
    10d0:	0001828a 	andeq	r8, r1, sl, lsl #5
    10d4:	42911802 	addsmi	r1, r1, #131072	; 0x20000
    10d8:	0b000018 	bleq	1140 <_start-0x6ec0>
    10dc:	193f012e 	ldmdbne	pc!, {r1, r2, r3, r5, r8}	; <UNPREDICTABLE>
    10e0:	0b3a0e03 	bleq	e848f4 <__bss_end__+0xe7a454>
    10e4:	19270b3b 	stmdbne	r7!, {r0, r1, r3, r4, r5, r8, r9, fp}
    10e8:	01111349 	tsteq	r1, r9, asr #6
    10ec:	18400612 	stmdane	r0, {r1, r4, r9, sl}^
    10f0:	01194297 			; <UNDEFINED> instruction: 0x01194297
    10f4:	0c000013 	stceq	0, cr0, [r0], {19}
    10f8:	08030005 	stmdaeq	r3, {r0, r2}
    10fc:	0b3b0b3a 	bleq	ec3dec <__bss_end__+0xeb994c>
    1100:	17021349 	strne	r1, [r2, -r9, asr #6]
    1104:	890d0000 	stmdbhi	sp, {}	; <UNPREDICTABLE>
    1108:	11010182 	smlabbne	r1, r2, r1, r0
    110c:	00133101 	andseq	r3, r3, r1, lsl #2
    1110:	00340e00 	eorseq	r0, r4, r0, lsl #28
    1114:	0b3a0e03 	bleq	e84928 <__bss_end__+0xe7a488>
    1118:	13490b3b 	movtne	r0, #39739	; 0x9b3b
    111c:	1802193f 	stmdane	r2, {r0, r1, r2, r3, r4, r5, r8, fp, ip}
    1120:	0f0f0000 	svceq	0x000f0000
    1124:	490b0b00 	stmdbmi	fp, {r8, r9, fp}
    1128:	10000013 	andne	r0, r0, r3, lsl r0
    112c:	13490035 	movtne	r0, #36917	; 0x9035
    1130:	2e110000 	cdpcs	0, 1, cr0, cr1, cr0, {0}
    1134:	03193f00 	tsteq	r9, #0, 30
    1138:	3b0b3a0e 	blcc	2cf978 <__bss_end__+0x2c54d8>
    113c:	3c19270b 	ldccc	7, cr2, [r9], {11}
    1140:	12000019 	andne	r0, r0, #25
    1144:	193f012e 	ldmdbne	pc!, {r1, r2, r3, r5, r8}	; <UNPREDICTABLE>
    1148:	0b3a0e03 	bleq	e8495c <__bss_end__+0xe7a4bc>
    114c:	19270b3b 	stmdbne	r7!, {r0, r1, r3, r4, r5, r8, r9, fp}
    1150:	1301193c 	movwne	r1, #6460	; 0x193c
    1154:	05130000 	ldreq	r0, [r3, #-0]
    1158:	00134900 	andseq	r4, r3, r0, lsl #18
    115c:	012e1400 	teqeq	lr, r0, lsl #8
    1160:	0e03193f 	mcreq	9, 0, r1, cr3, cr15, {1}
    1164:	0b3b0b3a 	bleq	ec3e54 <__bss_end__+0xeb99b4>
    1168:	13491927 	movtne	r1, #39207	; 0x9927
    116c:	1301193c 	movwne	r1, #6460	; 0x193c
    1170:	26150000 	ldrcs	r0, [r5], -r0
    1174:	00134900 	andseq	r4, r3, r0, lsl #18
    1178:	00351600 	eorseq	r1, r5, r0, lsl #12
    117c:	01000000 	mrseq	r0, (UNDEF: 0)
    1180:	0e250111 	mcreq	1, 1, r0, cr5, cr1, {0}
    1184:	0e030b13 	vmoveq.32	d3[0], r0
    1188:	01110e1b 	tsteq	r1, fp, lsl lr
    118c:	17100612 			; <UNDEFINED> instruction: 0x17100612
    1190:	24020000 	strcs	r0, [r2], #-0
    1194:	3e0b0b00 	vmlacc.f64	d0, d11, d0
    1198:	0008030b 	andeq	r0, r8, fp, lsl #6
    119c:	00160300 	andseq	r0, r6, r0, lsl #6
    11a0:	0b3a0e03 	bleq	e849b4 <__bss_end__+0xe7a514>
    11a4:	13490b3b 	movtne	r0, #39739	; 0x9b3b
    11a8:	24040000 	strcs	r0, [r4], #-0
    11ac:	3e0b0b00 	vmlacc.f64	d0, d11, d0
    11b0:	000e030b 	andeq	r0, lr, fp, lsl #6
    11b4:	000f0500 	andeq	r0, pc, r0, lsl #10
    11b8:	00000b0b 	andeq	r0, r0, fp, lsl #22
    11bc:	0b011306 	bleq	45ddc <__bss_end__+0x3b93c>
    11c0:	3b0b3a0b 	blcc	2cf9f4 <__bss_end__+0x2c5554>
    11c4:	0013010b 	andseq	r0, r3, fp, lsl #2
    11c8:	000d0700 	andeq	r0, sp, r0, lsl #14
    11cc:	0b3a0803 	bleq	e831e0 <__bss_end__+0xe78d40>
    11d0:	13490b3b 	movtne	r0, #39739	; 0x9b3b
    11d4:	00000b38 	andeq	r0, r0, r8, lsr fp
    11d8:	03000d08 	movweq	r0, #3336	; 0xd08
    11dc:	3b0b3a0e 	blcc	2cfa1c <__bss_end__+0x2c557c>
    11e0:	3813490b 	ldmdacc	r3, {r0, r1, r3, r8, fp, lr}
    11e4:	0900000b 	stmdbeq	r0, {r0, r1, r3}
    11e8:	0b0b0104 	bleq	2c1600 <__bss_end__+0x2b7160>
    11ec:	0b3b0b3a 	bleq	ec3edc <__bss_end__+0xeb9a3c>
    11f0:	00001301 	andeq	r1, r0, r1, lsl #6
    11f4:	0300280a 	movweq	r2, #2058	; 0x80a
    11f8:	000d1c0e 	andeq	r1, sp, lr, lsl #24
    11fc:	012e0b00 	teqeq	lr, r0, lsl #22
    1200:	0e03193f 	mcreq	9, 0, r1, cr3, cr15, {1}
    1204:	0b3b0b3a 	bleq	ec3ef4 <__bss_end__+0xeb9a54>
    1208:	13491927 	movtne	r1, #39207	; 0x9927
    120c:	06120111 			; <UNDEFINED> instruction: 0x06120111
    1210:	42971840 	addsmi	r1, r7, #64, 16	; 0x400000
    1214:	00130119 	andseq	r0, r3, r9, lsl r1
    1218:	00340c00 	eorseq	r0, r4, r0, lsl #24
    121c:	0b3a0803 	bleq	e83230 <__bss_end__+0xe78d90>
    1220:	13490b3b 	movtne	r0, #39739	; 0x9b3b
    1224:	0000061c 	andeq	r0, r0, ip, lsl r6
    1228:	0182890d 	orreq	r8, r2, sp, lsl #18
    122c:	31011101 	tstcc	r1, r1, lsl #2
    1230:	0e000013 	mcreq	0, 0, r0, cr0, cr3, {0}
    1234:	0001828a 	andeq	r8, r1, sl, lsl #5
    1238:	42911802 	addsmi	r1, r1, #131072	; 0x20000
    123c:	0f000018 	svceq	0x00000018
    1240:	0b0b000f 	bleq	2c1284 <__bss_end__+0x2b6de4>
    1244:	00001349 	andeq	r1, r0, r9, asr #6
    1248:	3f012e10 	svccc	0x00012e10
    124c:	3a0e0319 	bcc	381eb8 <__bss_end__+0x377a18>
    1250:	270b3b0b 	strcs	r3, [fp, -fp, lsl #22]
    1254:	3c134919 	ldccc	9, cr4, [r3], {25}
    1258:	11000019 	tstne	r0, r9, lsl r0
    125c:	13490005 	movtne	r0, #36869	; 0x9005
    1260:	01000000 	mrseq	r0, (UNDEF: 0)
    1264:	0e250111 	mcreq	1, 1, r0, cr5, cr1, {0}
    1268:	0e030b13 	vmoveq.32	d3[0], r0
    126c:	01110e1b 	tsteq	r1, fp, lsl lr
    1270:	17100612 			; <UNDEFINED> instruction: 0x17100612
    1274:	24020000 	strcs	r0, [r2], #-0
    1278:	3e0b0b00 	vmlacc.f64	d0, d11, d0
    127c:	000e030b 	andeq	r0, lr, fp, lsl #6
    1280:	00240300 	eoreq	r0, r4, r0, lsl #6
    1284:	0b3e0b0b 	bleq	f83eb8 <__bss_end__+0xf79a18>
    1288:	00000803 	andeq	r0, r0, r3, lsl #16
    128c:	0b000f04 	bleq	4ea4 <_start-0x315c>
    1290:	0500000b 	streq	r0, [r0, #-11]
    1294:	0b0b000f 	bleq	2c12d8 <__bss_end__+0x2b6e38>
    1298:	00001349 	andeq	r1, r0, r9, asr #6
    129c:	03001606 	movweq	r1, #1542	; 0x606
    12a0:	3b0b3a0e 	blcc	2cfae0 <__bss_end__+0x2c5640>
    12a4:	0013490b 	andseq	r4, r3, fp, lsl #18
    12a8:	012e0700 	teqeq	lr, r0, lsl #14
    12ac:	0e03193f 	mcreq	9, 0, r1, cr3, cr15, {1}
    12b0:	0b3b0b3a 	bleq	ec3fa0 <__bss_end__+0xeb9b00>
    12b4:	13491927 	movtne	r1, #39207	; 0x9927
    12b8:	06120111 			; <UNDEFINED> instruction: 0x06120111
    12bc:	42971840 	addsmi	r1, r7, #64, 16	; 0x400000
    12c0:	08000019 	stmdaeq	r0, {r0, r3, r4}
    12c4:	08030005 	stmdaeq	r3, {r0, r2}
    12c8:	0b3b0b3a 	bleq	ec3fb8 <__bss_end__+0xeb9b18>
    12cc:	18021349 	stmdane	r2, {r0, r3, r6, r8, r9, ip}
    12d0:	05090000 	streq	r0, [r9, #-0]
    12d4:	3a080300 	bcc	201edc <__bss_end__+0x1f7a3c>
    12d8:	490b3b0b 	stmdbmi	fp, {r0, r1, r3, r8, r9, fp, ip, sp}
    12dc:	00170213 	andseq	r0, r7, r3, lsl r2
    12e0:	00340a00 	eorseq	r0, r4, r0, lsl #20
    12e4:	0b3a0803 	bleq	e832f8 <__bss_end__+0xe78e58>
    12e8:	13490b3b 	movtne	r0, #39739	; 0x9b3b
    12ec:	00001702 	andeq	r1, r0, r2, lsl #14
    12f0:	0300340b 	movweq	r3, #1035	; 0x40b
    12f4:	3b0b3a08 	blcc	2cfb1c <__bss_end__+0x2c567c>
    12f8:	0213490b 	andseq	r4, r3, #180224	; 0x2c000
    12fc:	00000018 	andeq	r0, r0, r8, lsl r0

Disassembly of section .debug_loc:

00000000 <.debug_loc>:
       0:	0000014c 	andeq	r0, r0, ip, asr #2
       4:	00000150 	andeq	r0, r0, r0, asr r1
       8:	00750026 	rsbseq	r0, r5, r6, lsr #32
       c:	00762431 	rsbseq	r2, r6, r1, lsr r4
      10:	7c212432 	cfstrsvc	mvf2, [r1], #-200	; 0xffffff38
      14:	21243300 	teqcs	r4, r0, lsl #6
      18:	24340071 	ldrtcs	r0, [r4], #-113	; 0x71
      1c:	35007721 	strcc	r7, [r0, #-1825]	; 0x721
      20:	00792124 	rsbseq	r2, r9, r4, lsr #2
      24:	70212436 	eorvc	r2, r1, r6, lsr r4
      28:	21243700 	teqcs	r4, r0, lsl #14
      2c:	9f210074 	svcls	0x00210074
	...
      38:	00000040 	andeq	r0, r0, r0, asr #32
      3c:	00000158 	andeq	r0, r0, r8, asr r1
      40:	00540001 	subseq	r0, r4, r1
      44:	00000000 	andeq	r0, r0, r0
      48:	64000000 	strvs	r0, [r0], #-0
      4c:	54000000 	strpl	r0, [r0], #-0
      50:	01000001 	tsteq	r0, r1
      54:	00005500 	andeq	r5, r0, r0, lsl #10
      58:	00000000 	andeq	r0, r0, r0
      5c:	00880000 	addeq	r0, r8, r0
      60:	01500000 	cmpeq	r0, r0
      64:	00010000 	andeq	r0, r1, r0
      68:	00000056 	andeq	r0, r0, r6, asr r0
      6c:	00000000 	andeq	r0, r0, r0
      70:	0000ac00 	andeq	sl, r0, r0, lsl #24
      74:	00015c00 	andeq	r5, r1, r0, lsl #24
      78:	5c000100 	stfpls	f0, [r0], {-0}
	...
      84:	000000d0 	ldrdeq	r0, [r0], -r0	; <UNPREDICTABLE>
      88:	00000160 	andeq	r0, r0, r0, ror #2
      8c:	00510001 	subseq	r0, r1, r1
      90:	00000000 	andeq	r0, r0, r0
      94:	f4000000 	vst4.8	{d0-d3}, [r0], r0
      98:	64000000 	strvs	r0, [r0], #-0
      9c:	01000001 	tsteq	r0, r1
      a0:	00005700 	andeq	r5, r0, r0, lsl #14
      a4:	00000000 	andeq	r0, r0, r0
      a8:	01180000 	tsteq	r8, r0
      ac:	01680000 	cmneq	r8, r0
      b0:	00010000 	andeq	r0, r1, r0
      b4:	00000059 	andeq	r0, r0, r9, asr r0
      b8:	00000000 	andeq	r0, r0, r0
      bc:	00013c00 	andeq	r3, r1, r0, lsl #24
      c0:	00016c00 	andeq	r6, r1, r0, lsl #24
      c4:	50000100 	andpl	r0, r0, r0, lsl #2
	...
      d0:	00000020 	andeq	r0, r0, r0, lsr #32
      d4:	00000024 	andeq	r0, r0, r4, lsr #32
      d8:	00520001 	subseq	r0, r2, r1
      dc:	00000000 	andeq	r0, r0, r0
      e0:	44000000 	strmi	r0, [r0], #-0
      e4:	48000000 	stmdami	r0, {}	; <UNPREDICTABLE>
      e8:	01000000 	mrseq	r0, (UNDEF: 0)
      ec:	00005200 	andeq	r5, r0, r0, lsl #4
      f0:	00000000 	andeq	r0, r0, r0
      f4:	00680000 	rsbeq	r0, r8, r0
      f8:	006c0000 	rsbeq	r0, ip, r0
      fc:	00010000 	andeq	r0, r1, r0
     100:	00000052 	andeq	r0, r0, r2, asr r0
     104:	00000000 	andeq	r0, r0, r0
     108:	00008c00 	andeq	r8, r0, r0, lsl #24
     10c:	00009000 	andeq	r9, r0, r0
     110:	52000100 	andpl	r0, r0, #0, 2
	...
     11c:	000000b0 	strheq	r0, [r0], -r0	; <UNPREDICTABLE>
     120:	000000b4 	strheq	r0, [r0], -r4
     124:	00520001 	subseq	r0, r2, r1
     128:	00000000 	andeq	r0, r0, r0
     12c:	d4000000 	strle	r0, [r0], #-0
     130:	d8000000 	stmdale	r0, {}	; <UNPREDICTABLE>
     134:	01000000 	mrseq	r0, (UNDEF: 0)
     138:	00005200 	andeq	r5, r0, r0, lsl #4
     13c:	00000000 	andeq	r0, r0, r0
     140:	00f80000 	rscseq	r0, r8, r0
     144:	00fc0000 	rscseq	r0, ip, r0
     148:	00010000 	andeq	r0, r1, r0
     14c:	00000052 	andeq	r0, r0, r2, asr r0
     150:	00000000 	andeq	r0, r0, r0
     154:	00011c00 	andeq	r1, r1, r0, lsl #24
     158:	00012000 	andeq	r2, r1, r0
     15c:	52000100 	andpl	r0, r0, #0, 2
	...
     168:	00000140 	andeq	r0, r0, r0, asr #2
     16c:	00000144 	andeq	r0, r0, r4, asr #2
     170:	00520001 	subseq	r0, r2, r1
     174:	00000000 	andeq	r0, r0, r0
     178:	9c000000 	stcls	0, cr0, [r0], {-0}
     17c:	b4000001 	strlt	r0, [r0], #-1
     180:	01000001 	tsteq	r0, r1
     184:	01b45000 			; <UNDEFINED> instruction: 0x01b45000
     188:	01c40000 	biceq	r0, r4, r0
     18c:	00040000 	andeq	r0, r4, r0
     190:	9f5001f3 	svcls	0x005001f3
     194:	000001c4 	andeq	r0, r0, r4, asr #3
     198:	000001c7 	andeq	r0, r0, r7, asr #3
     19c:	c7500001 	ldrbgt	r0, [r0, -r1]
     1a0:	ec000001 	stc	0, cr0, [r0], {1}
     1a4:	04000001 	streq	r0, [r0], #-1
     1a8:	5001f300 	andpl	pc, r1, r0, lsl #6
     1ac:	0000009f 	muleq	r0, pc, r0	; <UNPREDICTABLE>
     1b0:	00000000 	andeq	r0, r0, r0
     1b4:	0001bc00 	andeq	fp, r1, r0, lsl #24
     1b8:	0001c000 	andeq	ip, r1, r0
     1bc:	50000100 	andpl	r0, r0, r0, lsl #2
	...
     1c8:	000001ec 	andeq	r0, r0, ip, ror #3
     1cc:	000002b0 			; <UNDEFINED> instruction: 0x000002b0
     1d0:	b0500001 	subslt	r0, r0, r1
     1d4:	88000002 	stmdahi	r0, {r1}
     1d8:	04000003 	streq	r0, [r0], #-3
     1dc:	5001f300 	andpl	pc, r1, r0, lsl #6
     1e0:	0000009f 	muleq	r0, pc, r0	; <UNPREDICTABLE>
     1e4:	00000000 	andeq	r0, r0, r0
     1e8:	0001ec00 	andeq	lr, r1, r0, lsl #24
     1ec:	00033800 	andeq	r3, r3, r0, lsl #16
     1f0:	30000200 	andcc	r0, r0, r0, lsl #4
     1f4:	0003389f 	muleq	r3, pc, r8	; <UNPREDICTABLE>
     1f8:	00033c00 	andeq	r3, r3, r0, lsl #24
     1fc:	75002600 	strvc	r2, [r0, #-1536]	; 0x600
     200:	76243100 	strtvc	r3, [r4], -r0, lsl #2
     204:	21243200 	teqcs	r4, r0, lsl #4
     208:	2433007c 	ldrtcs	r0, [r3], #-124	; 0x7c
     20c:	34007121 	strcc	r7, [r0], #-289	; 0x121
     210:	00772124 	rsbseq	r2, r7, r4, lsr #2
     214:	79212435 	stmdbvc	r1!, {r0, r2, r4, r5, sl, sp}
     218:	21243600 	teqcs	r4, r0, lsl #12
     21c:	24370070 	ldrtcs	r0, [r7], #-112	; 0x70
     220:	21007421 	tstcs	r0, r1, lsr #8
     224:	0000009f 	muleq	r0, pc, r0	; <UNPREDICTABLE>
     228:	00000000 	andeq	r0, r0, r0
     22c:	0001ec00 	andeq	lr, r1, r0, lsl #24
     230:	00022c00 	andeq	r2, r2, r0, lsl #24
     234:	30000200 	andcc	r0, r0, r0, lsl #4
     238:	00022c9f 	muleq	r2, pc, ip	; <UNPREDICTABLE>
     23c:	00034400 	andeq	r4, r3, r0, lsl #8
     240:	54000100 	strpl	r0, [r0], #-256	; 0x100
	...
     24c:	000001ec 	andeq	r0, r0, ip, ror #3
     250:	00000250 	andeq	r0, r0, r0, asr r2
     254:	9f300002 	svcls	0x00300002
     258:	00000250 	andeq	r0, r0, r0, asr r2
     25c:	00000340 	andeq	r0, r0, r0, asr #6
     260:	00550001 	subseq	r0, r5, r1
     264:	00000000 	andeq	r0, r0, r0
     268:	ec000000 	stc	0, cr0, [r0], {-0}
     26c:	74000001 	strvc	r0, [r0], #-1
     270:	02000002 	andeq	r0, r0, #2
     274:	749f3000 	ldrvc	r3, [pc], #0	; 27c <_start-0x7d84>
     278:	3c000002 	stccc	0, cr0, [r0], {2}
     27c:	01000003 	tsteq	r0, r3
     280:	00005600 	andeq	r5, r0, r0, lsl #12
     284:	00000000 	andeq	r0, r0, r0
     288:	01ec0000 	mvneq	r0, r0
     28c:	02980000 	addseq	r0, r8, #0
     290:	00020000 	andeq	r0, r2, r0
     294:	02989f30 	addseq	r9, r8, #48, 30	; 0xc0
     298:	03480000 	movteq	r0, #32768	; 0x8000
     29c:	00010000 	andeq	r0, r1, r0
     2a0:	0000005c 	andeq	r0, r0, ip, asr r0
     2a4:	00000000 	andeq	r0, r0, r0
     2a8:	0001ec00 	andeq	lr, r1, r0, lsl #24
     2ac:	0002bc00 	andeq	fp, r2, r0, lsl #24
     2b0:	30000200 	andcc	r0, r0, r0, lsl #4
     2b4:	0002bc9f 	muleq	r2, pc, ip	; <UNPREDICTABLE>
     2b8:	00034c00 	andeq	r4, r3, r0, lsl #24
     2bc:	51000100 	mrspl	r0, (UNDEF: 16)
	...
     2c8:	000001ec 	andeq	r0, r0, ip, ror #3
     2cc:	000002e0 	andeq	r0, r0, r0, ror #5
     2d0:	9f300002 	svcls	0x00300002
     2d4:	000002e0 	andeq	r0, r0, r0, ror #5
     2d8:	00000350 	andeq	r0, r0, r0, asr r3
     2dc:	00570001 	subseq	r0, r7, r1
     2e0:	00000000 	andeq	r0, r0, r0
     2e4:	ec000000 	stc	0, cr0, [r0], {-0}
     2e8:	04000001 	streq	r0, [r0], #-1
     2ec:	02000003 	andeq	r0, r0, #3
     2f0:	049f3000 	ldreq	r3, [pc], #0	; 2f8 <_start-0x7d08>
     2f4:	54000003 	strpl	r0, [r0], #-3
     2f8:	01000003 	tsteq	r0, r3
     2fc:	00005900 	andeq	r5, r0, r0, lsl #18
     300:	00000000 	andeq	r0, r0, r0
     304:	01ec0000 	mvneq	r0, r0
     308:	03280000 	teqeq	r8, #0
     30c:	00020000 	andeq	r0, r2, r0
     310:	03289f30 	teqeq	r8, #48, 30	; 0xc0
     314:	03580000 	cmpeq	r8, #0
     318:	00010000 	andeq	r0, r1, r0
     31c:	00000050 	andeq	r0, r0, r0, asr r0
     320:	00000000 	andeq	r0, r0, r0
     324:	00020c00 	andeq	r0, r2, r0, lsl #24
     328:	00021000 	andeq	r1, r2, r0
     32c:	52000100 	andpl	r0, r0, #0, 2
	...
     338:	00000230 	andeq	r0, r0, r0, lsr r2
     33c:	00000234 	andeq	r0, r0, r4, lsr r2
     340:	00520001 	subseq	r0, r2, r1
     344:	00000000 	andeq	r0, r0, r0
     348:	54000000 	strpl	r0, [r0], #-0
     34c:	58000002 	stmdapl	r0, {r1}
     350:	01000002 	tsteq	r0, r2
     354:	00005200 	andeq	r5, r0, r0, lsl #4
     358:	00000000 	andeq	r0, r0, r0
     35c:	02780000 	rsbseq	r0, r8, #0
     360:	027c0000 	rsbseq	r0, ip, #0
     364:	00010000 	andeq	r0, r1, r0
     368:	00000052 	andeq	r0, r0, r2, asr r0
     36c:	00000000 	andeq	r0, r0, r0
     370:	00029c00 	andeq	r9, r2, r0, lsl #24
     374:	0002a000 	andeq	sl, r2, r0
     378:	52000100 	andpl	r0, r0, #0, 2
	...
     384:	000002c0 	andeq	r0, r0, r0, asr #5
     388:	000002c4 	andeq	r0, r0, r4, asr #5
     38c:	00520001 	subseq	r0, r2, r1
     390:	00000000 	andeq	r0, r0, r0
     394:	e4000000 	str	r0, [r0], #-0
     398:	e8000002 	stmda	r0, {r1}
     39c:	01000002 	tsteq	r0, r2
     3a0:	00005200 	andeq	r5, r0, r0, lsl #4
     3a4:	00000000 	andeq	r0, r0, r0
     3a8:	03080000 	movweq	r0, #32768	; 0x8000
     3ac:	030c0000 	movweq	r0, #49152	; 0xc000
     3b0:	00010000 	andeq	r0, r1, r0
     3b4:	00000052 	andeq	r0, r0, r2, asr r0
     3b8:	00000000 	andeq	r0, r0, r0
     3bc:	00032c00 	andeq	r2, r3, r0, lsl #24
     3c0:	00033000 	andeq	r3, r3, r0
     3c4:	52000100 	andpl	r0, r0, #0, 2
	...
     3d0:	00000388 	andeq	r0, r0, r8, lsl #7
     3d4:	00000398 	muleq	r0, r8, r3
     3d8:	98500001 	ldmdals	r0, {r0}^
     3dc:	94000003 	strls	r0, [r0], #-3
     3e0:	04000005 	streq	r0, [r0], #-5
     3e4:	5001f300 	andpl	pc, r1, r0, lsl #6
     3e8:	0000009f 	muleq	r0, pc, r0	; <UNPREDICTABLE>
     3ec:	00000000 	andeq	r0, r0, r0
     3f0:	00038800 	andeq	r8, r3, r0, lsl #16
     3f4:	00053000 	andeq	r3, r5, r0
     3f8:	51000100 	mrspl	r0, (UNDEF: 16)
     3fc:	00000530 	andeq	r0, r0, r0, lsr r5
     400:	00000594 	muleq	r0, r4, r5
     404:	01f30004 	mvnseq	r0, r4
     408:	00009f51 	andeq	r9, r0, r1, asr pc
     40c:	00000000 	andeq	r0, r0, r0
     410:	03880000 	orreq	r0, r8, #0
     414:	05740000 	ldrbeq	r0, [r4, #-0]!
     418:	00010000 	andeq	r0, r1, r0
     41c:	00057452 	andeq	r7, r5, r2, asr r4
     420:	00059400 	andeq	r9, r5, r0, lsl #8
     424:	f3000400 	vshl.u8	d0, d0, d0
     428:	009f5201 	addseq	r5, pc, r1, lsl #4
     42c:	00000000 	andeq	r0, r0, r0
     430:	90000000 	andls	r0, r0, r0
     434:	88000003 	stmdahi	r0, {r0, r1}
     438:	01000005 	tsteq	r0, r5
     43c:	00005300 	andeq	r5, r0, r0, lsl #6
     440:	00000000 	andeq	r0, r0, r0
     444:	03900000 	orrseq	r0, r0, #0
     448:	03980000 	orrseq	r0, r8, #0
     44c:	00010000 	andeq	r0, r1, r0
     450:	00039850 	andeq	r9, r3, r0, asr r8
     454:	00059400 	andeq	r9, r5, r0, lsl #8
     458:	f3000400 	vshl.u8	d0, d0, d0
     45c:	009f5001 	addseq	r5, pc, r1
     460:	00000000 	andeq	r0, r0, r0
     464:	ac000000 	stcge	0, cr0, [r0], {-0}
     468:	b0000003 	andlt	r0, r0, r3
     46c:	01000003 	tsteq	r0, r3
     470:	00005c00 	andeq	r5, r0, r0, lsl #24
     474:	00000000 	andeq	r0, r0, r0
     478:	03b80000 			; <UNDEFINED> instruction: 0x03b80000
     47c:	05300000 	ldreq	r0, [r0, #-0]!
     480:	00080000 	andeq	r0, r8, r0
     484:	1a310071 	bne	c40650 <__bss_end__+0xc361b0>
     488:	9f1aff08 	svcls	0x001aff08
	...
     494:	000003c0 	andeq	r0, r0, r0, asr #7
     498:	000003f4 	strdeq	r0, [r0], -r4
     49c:	00710008 	rsbseq	r0, r1, r8
     4a0:	ff081a31 			; <UNDEFINED> instruction: 0xff081a31
     4a4:	03f49f1a 	mvnseq	r9, #26, 30	; 0x68
     4a8:	04280000 	strteq	r0, [r8], #-0
     4ac:	00080000 	andeq	r0, r8, r0
     4b0:	1a320071 	bne	c8067c <__bss_end__+0xc761dc>
     4b4:	9f1aff08 	svcls	0x001aff08
     4b8:	00000428 	andeq	r0, r0, r8, lsr #8
     4bc:	0000045c 	andeq	r0, r0, ip, asr r4
     4c0:	00710008 	rsbseq	r0, r1, r8
     4c4:	ff081a34 			; <UNDEFINED> instruction: 0xff081a34
     4c8:	045c9f1a 	ldrbeq	r9, [ip], #-3866	; 0xf1a
     4cc:	04900000 	ldreq	r0, [r0], #0
     4d0:	00080000 	andeq	r0, r8, r0
     4d4:	1a380071 	bne	e006a0 <__bss_end__+0xdf6200>
     4d8:	9f1aff08 	svcls	0x001aff08
     4dc:	00000490 	muleq	r0, r0, r4
     4e0:	000004c8 	andeq	r0, r0, r8, asr #9
     4e4:	00710008 	rsbseq	r0, r1, r8
     4e8:	ff081a40 			; <UNDEFINED> instruction: 0xff081a40
     4ec:	04c89f1a 	strbeq	r9, [r8], #3866	; 0xf1a
     4f0:	05000000 	streq	r0, [r0, #-0]
     4f4:	00090000 	andeq	r0, r9, r0
     4f8:	20080071 	andcs	r0, r8, r1, ror r0
     4fc:	1aff081a 	bne	fffc256c <__bss_end__+0xfffb80cc>
     500:	0005009f 	muleq	r5, pc, r0	; <UNPREDICTABLE>
     504:	00053000 	andeq	r3, r5, r0
     508:	71000900 	tstvc	r0, r0, lsl #18
     50c:	1a400800 	bne	1002514 <__bss_end__+0xff8074>
     510:	9f1aff08 	svcls	0x001aff08
     514:	0000055c 	andeq	r0, r0, ip, asr r5
     518:	00000594 	muleq	r0, r4, r5
     51c:	9f310002 	svcls	0x00310002
	...
     528:	000003e0 	andeq	r0, r0, r0, ror #7
     52c:	000003e4 	andeq	r0, r0, r4, ror #7
     530:	005c0001 	subseq	r0, ip, r1
     534:	00000000 	andeq	r0, r0, r0
     538:	ec000000 	stc	0, cr0, [r0], {-0}
     53c:	30000003 	andcc	r0, r0, r3
     540:	08000005 	stmdaeq	r0, {r0, r2}
     544:	32007100 	andcc	r7, r0, #0, 2
     548:	1aff081a 	bne	fffc25b8 <__bss_end__+0xfffb8118>
     54c:	0000009f 	muleq	r0, pc, r0	; <UNPREDICTABLE>
     550:	00000000 	andeq	r0, r0, r0
     554:	0003f400 	andeq	pc, r3, r0, lsl #8
     558:	00042800 	andeq	r2, r4, r0, lsl #16
     55c:	71000800 	tstvc	r0, r0, lsl #16
     560:	081a3200 	ldmdaeq	sl, {r9, ip, sp}
     564:	289f1aff 	ldmcs	pc, {r0, r1, r2, r3, r4, r5, r6, r7, r9, fp, ip}	; <UNPREDICTABLE>
     568:	5c000004 	stcpl	0, cr0, [r0], {4}
     56c:	08000004 	stmdaeq	r0, {r2}
     570:	34007100 	strcc	r7, [r0], #-256	; 0x100
     574:	1aff081a 	bne	fffc25e4 <__bss_end__+0xfffb8144>
     578:	00045c9f 	muleq	r4, pc, ip	; <UNPREDICTABLE>
     57c:	00049000 	andeq	r9, r4, r0
     580:	71000800 	tstvc	r0, r0, lsl #16
     584:	081a3800 	ldmdaeq	sl, {fp, ip, sp}
     588:	909f1aff 			; <UNDEFINED> instruction: 0x909f1aff
     58c:	c8000004 	stmdagt	r0, {r2}
     590:	08000004 	stmdaeq	r0, {r2}
     594:	40007100 	andmi	r7, r0, r0, lsl #2
     598:	1aff081a 	bne	fffc2608 <__bss_end__+0xfffb8168>
     59c:	0004c89f 	muleq	r4, pc, r8	; <UNPREDICTABLE>
     5a0:	00050000 	andeq	r0, r5, r0
     5a4:	71000900 	tstvc	r0, r0, lsl #18
     5a8:	1a200800 	bne	8025b0 <__bss_end__+0x7f8110>
     5ac:	9f1aff08 	svcls	0x001aff08
     5b0:	00000500 	andeq	r0, r0, r0, lsl #10
     5b4:	00000530 	andeq	r0, r0, r0, lsr r5
     5b8:	00710009 	rsbseq	r0, r1, r9
     5bc:	081a4008 	ldmdaeq	sl, {r3, lr}
     5c0:	5c9f1aff 	vldmiapl	pc, {s2-s256}
     5c4:	94000005 	strls	r0, [r0], #-5
     5c8:	02000005 	andeq	r0, r0, #5
     5cc:	009f3100 	addseq	r3, pc, r0, lsl #2
     5d0:	00000000 	andeq	r0, r0, r0
     5d4:	14000000 	strne	r0, [r0], #-0
     5d8:	18000004 	stmdane	r0, {r2}
     5dc:	01000004 	tsteq	r0, r4
     5e0:	00005c00 	andeq	r5, r0, r0, lsl #24
     5e4:	00000000 	andeq	r0, r0, r0
     5e8:	04200000 	strteq	r0, [r0], #-0
     5ec:	05300000 	ldreq	r0, [r0, #-0]!
     5f0:	00080000 	andeq	r0, r8, r0
     5f4:	1a340071 	bne	d007c0 <__bss_end__+0xcf6320>
     5f8:	9f1aff08 	svcls	0x001aff08
	...
     604:	00000428 	andeq	r0, r0, r8, lsr #8
     608:	0000045c 	andeq	r0, r0, ip, asr r4
     60c:	00710008 	rsbseq	r0, r1, r8
     610:	ff081a34 			; <UNDEFINED> instruction: 0xff081a34
     614:	045c9f1a 	ldrbeq	r9, [ip], #-3866	; 0xf1a
     618:	04900000 	ldreq	r0, [r0], #0
     61c:	00080000 	andeq	r0, r8, r0
     620:	1a380071 	bne	e007ec <__bss_end__+0xdf634c>
     624:	9f1aff08 	svcls	0x001aff08
     628:	00000490 	muleq	r0, r0, r4
     62c:	000004c8 	andeq	r0, r0, r8, asr #9
     630:	00710008 	rsbseq	r0, r1, r8
     634:	ff081a40 			; <UNDEFINED> instruction: 0xff081a40
     638:	04c89f1a 	strbeq	r9, [r8], #3866	; 0xf1a
     63c:	05000000 	streq	r0, [r0, #-0]
     640:	00090000 	andeq	r0, r9, r0
     644:	20080071 	andcs	r0, r8, r1, ror r0
     648:	1aff081a 	bne	fffc26b8 <__bss_end__+0xfffb8218>
     64c:	0005009f 	muleq	r5, pc, r0	; <UNPREDICTABLE>
     650:	00053000 	andeq	r3, r5, r0
     654:	71000900 	tstvc	r0, r0, lsl #18
     658:	1a400800 	bne	1002660 <__bss_end__+0xff81c0>
     65c:	9f1aff08 	svcls	0x001aff08
     660:	0000055c 	andeq	r0, r0, ip, asr r5
     664:	00000594 	muleq	r0, r4, r5
     668:	9f310002 	svcls	0x00310002
	...
     674:	00000448 	andeq	r0, r0, r8, asr #8
     678:	0000044c 	andeq	r0, r0, ip, asr #8
     67c:	005c0001 	subseq	r0, ip, r1
     680:	00000000 	andeq	r0, r0, r0
     684:	54000000 	strpl	r0, [r0], #-0
     688:	30000004 	andcc	r0, r0, r4
     68c:	08000005 	stmdaeq	r0, {r0, r2}
     690:	38007100 	stmdacc	r0, {r8, ip, sp, lr}
     694:	1aff081a 	bne	fffc2704 <__bss_end__+0xfffb8264>
     698:	0000009f 	muleq	r0, pc, r0	; <UNPREDICTABLE>
     69c:	00000000 	andeq	r0, r0, r0
     6a0:	00045c00 	andeq	r5, r4, r0, lsl #24
     6a4:	00049000 	andeq	r9, r4, r0
     6a8:	71000800 	tstvc	r0, r0, lsl #16
     6ac:	081a3800 	ldmdaeq	sl, {fp, ip, sp}
     6b0:	909f1aff 			; <UNDEFINED> instruction: 0x909f1aff
     6b4:	c8000004 	stmdagt	r0, {r2}
     6b8:	08000004 	stmdaeq	r0, {r2}
     6bc:	40007100 	andmi	r7, r0, r0, lsl #2
     6c0:	1aff081a 	bne	fffc2730 <__bss_end__+0xfffb8290>
     6c4:	0004c89f 	muleq	r4, pc, r8	; <UNPREDICTABLE>
     6c8:	00050000 	andeq	r0, r5, r0
     6cc:	71000900 	tstvc	r0, r0, lsl #18
     6d0:	1a200800 	bne	8026d8 <__bss_end__+0x7f8238>
     6d4:	9f1aff08 	svcls	0x001aff08
     6d8:	00000500 	andeq	r0, r0, r0, lsl #10
     6dc:	00000530 	andeq	r0, r0, r0, lsr r5
     6e0:	00710009 	rsbseq	r0, r1, r9
     6e4:	081a4008 	ldmdaeq	sl, {r3, lr}
     6e8:	5c9f1aff 	vldmiapl	pc, {s2-s256}
     6ec:	94000005 	strls	r0, [r0], #-5
     6f0:	02000005 	andeq	r0, r0, #5
     6f4:	009f3100 	addseq	r3, pc, r0, lsl #2
     6f8:	00000000 	andeq	r0, r0, r0
     6fc:	7c000000 	stcvc	0, cr0, [r0], {-0}
     700:	80000004 	andhi	r0, r0, r4
     704:	01000004 	tsteq	r0, r4
     708:	00005c00 	andeq	r5, r0, r0, lsl #24
     70c:	00000000 	andeq	r0, r0, r0
     710:	04880000 	streq	r0, [r8], #0
     714:	05300000 	ldreq	r0, [r0, #-0]!
     718:	00080000 	andeq	r0, r8, r0
     71c:	1a400071 	bne	10008e8 <__bss_end__+0xff6448>
     720:	9f1aff08 	svcls	0x001aff08
	...
     72c:	00000490 	muleq	r0, r0, r4
     730:	000004c8 	andeq	r0, r0, r8, asr #9
     734:	00710008 	rsbseq	r0, r1, r8
     738:	ff081a40 			; <UNDEFINED> instruction: 0xff081a40
     73c:	04c89f1a 	strbeq	r9, [r8], #3866	; 0xf1a
     740:	05000000 	streq	r0, [r0, #-0]
     744:	00090000 	andeq	r0, r9, r0
     748:	20080071 	andcs	r0, r8, r1, ror r0
     74c:	1aff081a 	bne	fffc27bc <__bss_end__+0xfffb831c>
     750:	0005009f 	muleq	r5, pc, r0	; <UNPREDICTABLE>
     754:	00053000 	andeq	r3, r5, r0
     758:	71000900 	tstvc	r0, r0, lsl #18
     75c:	1a400800 	bne	1002764 <__bss_end__+0xff82c4>
     760:	9f1aff08 	svcls	0x001aff08
     764:	0000055c 	andeq	r0, r0, ip, asr r5
     768:	00000594 	muleq	r0, r4, r5
     76c:	9f310002 	svcls	0x00310002
	...
     778:	000004b4 			; <UNDEFINED> instruction: 0x000004b4
     77c:	000004b8 			; <UNDEFINED> instruction: 0x000004b8
     780:	005c0001 	subseq	r0, ip, r1
     784:	00000000 	andeq	r0, r0, r0
     788:	c0000000 	andgt	r0, r0, r0
     78c:	30000004 	andcc	r0, r0, r4
     790:	09000005 	stmdbeq	r0, {r0, r2}
     794:	08007100 	stmdaeq	r0, {r8, ip, sp, lr}
     798:	ff081a20 			; <UNDEFINED> instruction: 0xff081a20
     79c:	00009f1a 	andeq	r9, r0, sl, lsl pc
     7a0:	00000000 	andeq	r0, r0, r0
     7a4:	04c80000 	strbeq	r0, [r8], #0
     7a8:	05000000 	streq	r0, [r0, #-0]
     7ac:	00090000 	andeq	r0, r9, r0
     7b0:	20080071 	andcs	r0, r8, r1, ror r0
     7b4:	1aff081a 	bne	fffc2824 <__bss_end__+0xfffb8384>
     7b8:	0005009f 	muleq	r5, pc, r0	; <UNPREDICTABLE>
     7bc:	00053000 	andeq	r3, r5, r0
     7c0:	71000900 	tstvc	r0, r0, lsl #18
     7c4:	1a400800 	bne	10027cc <__bss_end__+0xff832c>
     7c8:	9f1aff08 	svcls	0x001aff08
     7cc:	0000055c 	andeq	r0, r0, ip, asr r5
     7d0:	00000594 	muleq	r0, r4, r5
     7d4:	9f310002 	svcls	0x00310002
	...
     7e0:	000004ec 	andeq	r0, r0, ip, ror #9
     7e4:	000004f0 	strdeq	r0, [r0], -r0	; <UNPREDICTABLE>
     7e8:	005c0001 	subseq	r0, ip, r1
     7ec:	00000000 	andeq	r0, r0, r0
     7f0:	f8000000 			; <UNDEFINED> instruction: 0xf8000000
     7f4:	30000004 	andcc	r0, r0, r4
     7f8:	09000005 	stmdbeq	r0, {r0, r2}
     7fc:	08007100 	stmdaeq	r0, {r8, ip, sp, lr}
     800:	ff081a40 			; <UNDEFINED> instruction: 0xff081a40
     804:	00009f1a 	andeq	r9, r0, sl, lsl pc
     808:	00000000 	andeq	r0, r0, r0
     80c:	05000000 	streq	r0, [r0, #-0]
     810:	05300000 	ldreq	r0, [r0, #-0]!
     814:	00090000 	andeq	r0, r9, r0
     818:	40080071 	andmi	r0, r8, r1, ror r0
     81c:	1aff081a 	bne	fffc288c <__bss_end__+0xfffb83ec>
     820:	00055c9f 	muleq	r5, pc, ip	; <UNPREDICTABLE>
     824:	00059400 	andeq	r9, r5, r0, lsl #8
     828:	31000200 	mrscc	r0, R8_usr
     82c:	0000009f 	muleq	r0, pc, r0	; <UNPREDICTABLE>
     830:	00000000 	andeq	r0, r0, r0
     834:	00051c00 	andeq	r1, r5, r0, lsl #24
     838:	00052000 	andeq	r2, r5, r0
     83c:	5c000100 	stfpls	f0, [r0], {-0}
	...
     848:	00000528 	andeq	r0, r0, r8, lsr #10
     84c:	00000530 	andeq	r0, r0, r0, lsr r5
     850:	00710009 	rsbseq	r0, r1, r9
     854:	081a8009 	ldmdaeq	sl, {r0, r3, pc}
     858:	009f1aff 			; <UNDEFINED> instruction: 0x009f1aff
     85c:	00000000 	andeq	r0, r0, r0
     860:	5c000000 	stcpl	0, cr0, [r0], {-0}
     864:	94000005 	strls	r0, [r0], #-5
     868:	02000005 	andeq	r0, r0, #5
     86c:	009f3100 	addseq	r3, pc, r0, lsl #2
     870:	00000000 	andeq	r0, r0, r0
     874:	50000000 	andpl	r0, r0, r0
     878:	54000005 	strpl	r0, [r0], #-5
     87c:	01000005 	tsteq	r0, r5
     880:	00005100 	andeq	r5, r0, r0, lsl #2
     884:	00000000 	andeq	r0, r0, r0
     888:	05780000 	ldrbeq	r0, [r8, #-0]!
     88c:	057c0000 	ldrbeq	r0, [ip, #-0]!
     890:	00010000 	andeq	r0, r1, r0
     894:	00000052 	andeq	r0, r0, r2, asr r0
     898:	00000000 	andeq	r0, r0, r0
     89c:	0005c400 	andeq	ip, r5, r0, lsl #8
     8a0:	00062c00 	andeq	r2, r6, r0, lsl #24
     8a4:	45000200 	strmi	r0, [r0, #-512]	; 0x200
     8a8:	0000009f 	muleq	r0, pc, r0	; <UNPREDICTABLE>
     8ac:	00000000 	andeq	r0, r0, r0
     8b0:	0005c400 	andeq	ip, r5, r0, lsl #8
     8b4:	00062c00 	andeq	r2, r6, r0, lsl #24
     8b8:	44000200 	strmi	r0, [r0], #-512	; 0x200
     8bc:	0000009f 	muleq	r0, pc, r0	; <UNPREDICTABLE>
     8c0:	00000000 	andeq	r0, r0, r0
     8c4:	0005c400 	andeq	ip, r5, r0, lsl #8
     8c8:	00062c00 	andeq	r2, r6, r0, lsl #24
     8cc:	08000300 	stmdaeq	r0, {r8, r9}
     8d0:	00009ffe 	strdeq	r9, [r0], -lr
     8d4:	00000000 	andeq	r0, r0, r0
     8d8:	05cc0000 	strbeq	r0, [ip]
     8dc:	05e00000 	strbeq	r0, [r0, #0]!
     8e0:	00020000 	andeq	r0, r2, r0
     8e4:	05e09f30 	strbeq	r9, [r0, #3888]!	; 0xf30
     8e8:	05ec0000 	strbeq	r0, [ip, #0]!
     8ec:	00020000 	andeq	r0, r2, r0
     8f0:	06049f31 			; <UNDEFINED> instruction: 0x06049f31
     8f4:	061c0000 	ldreq	r0, [ip], -r0
     8f8:	00010000 	andeq	r0, r1, r0
     8fc:	00000056 	andeq	r0, r0, r6, asr r0
     900:	00000000 	andeq	r0, r0, r0
     904:	0005cc00 	andeq	ip, r5, r0, lsl #24
     908:	0005ec00 	andeq	lr, r5, r0, lsl #24
     90c:	31000200 	mrscc	r0, R8_usr
     910:	0005ec9f 	muleq	r5, pc, ip	; <UNPREDICTABLE>
     914:	00062c00 	andeq	r2, r6, r0, lsl #24
     918:	55000100 	strpl	r0, [r0, #-256]	; 0x100
	...
     924:	000005e0 	andeq	r0, r0, r0, ror #11
     928:	000005ec 	andeq	r0, r0, ip, ror #11
     92c:	9f300002 	svcls	0x00300002
	...
     938:	00000640 	andeq	r0, r0, r0, asr #12
     93c:	0000066c 	andeq	r0, r0, ip, ror #12
     940:	9f300002 	svcls	0x00300002
     944:	0000066c 	andeq	r0, r0, ip, ror #12
     948:	000006d0 	ldrdeq	r0, [r0], -r0	; <UNPREDICTABLE>
     94c:	00560001 	subseq	r0, r6, r1
     950:	00000000 	andeq	r0, r0, r0
     954:	40000000 	andmi	r0, r0, r0
     958:	48000006 	stmdami	r0, {r1, r2}
     95c:	02000006 	andeq	r0, r0, #6
     960:	489f3000 	ldmmi	pc, {ip, sp}	; <UNPREDICTABLE>
     964:	d0000006 	andle	r0, r0, r6
     968:	01000006 	tsteq	r0, r6
     96c:	00005500 	andeq	r5, r0, r0, lsl #10
     970:	00000000 	andeq	r0, r0, r0
     974:	06400000 	strbeq	r0, [r0], -r0
     978:	06480000 	strbeq	r0, [r8], -r0
     97c:	00020000 	andeq	r0, r2, r0
     980:	06549f30 	uasxeq	r9, r4, r0
     984:	06600000 	strbteq	r0, [r0], -r0
     988:	00010000 	andeq	r0, r1, r0
     98c:	00066050 	andeq	r6, r6, r0, asr r0
     990:	0006d000 	andeq	sp, r6, r0
     994:	54000100 	strpl	r0, [r0], #-256	; 0x100
	...
     9a0:	0000002c 	andeq	r0, r0, ip, lsr #32
     9a4:	00000038 	andeq	r0, r0, r8, lsr r0
     9a8:	38500001 	ldmdacc	r0, {r0}^
     9ac:	48000000 	stmdami	r0, {}	; <UNPREDICTABLE>
     9b0:	01000000 	mrseq	r0, (UNDEF: 0)
     9b4:	00485500 	subeq	r5, r8, r0, lsl #10
     9b8:	00580000 	subseq	r0, r8, r0
     9bc:	00010000 	andeq	r0, r1, r0
     9c0:	00000050 	andeq	r0, r0, r0, asr r0
	...
     9cc:	00000b00 	andeq	r0, r0, r0, lsl #22
     9d0:	50000100 	andpl	r0, r0, r0, lsl #2
     9d4:	0000000b 	andeq	r0, r0, fp
     9d8:	00000014 	andeq	r0, r0, r4, lsl r0
     9dc:	00540001 	subseq	r0, r4, r1
	...
     9e8:	10000000 	andne	r0, r0, r0
     9ec:	01000000 	mrseq	r0, (UNDEF: 0)
     9f0:	00105000 	andseq	r5, r0, r0
     9f4:	00340000 	eorseq	r0, r4, r0
     9f8:	00010000 	andeq	r0, r1, r0
     9fc:	00000054 	andeq	r0, r0, r4, asr r0
	...
     a08:	00000400 	andeq	r0, r0, r0, lsl #8
     a0c:	50000100 	andpl	r0, r0, r0, lsl #2
     a10:	00000004 	andeq	r0, r0, r4
     a14:	0000000c 	andeq	r0, r0, ip
     a18:	30700003 	rsbscc	r0, r0, r3
     a1c:	00000c9f 	muleq	r0, pc, ip	; <UNPREDICTABLE>
     a20:	00001400 	andeq	r1, r0, r0, lsl #8
     a24:	f3000400 	vshl.u8	d0, d0, d0
     a28:	009f5001 	addseq	r5, pc, r1
     a2c:	00000000 	andeq	r0, r0, r0
     a30:	14000000 	strne	r0, [r0], #-0
     a34:	20000000 	andcs	r0, r0, r0
     a38:	01000000 	mrseq	r0, (UNDEF: 0)
     a3c:	00205000 	eoreq	r5, r0, r0
     a40:	002c0000 	eoreq	r0, ip, r0
     a44:	00030000 	andeq	r0, r3, r0
     a48:	2c9f0170 	ldfcss	f0, [pc], {112}	; 0x70
     a4c:	40000000 	andmi	r0, r0, r0
     a50:	01000000 	mrseq	r0, (UNDEF: 0)
     a54:	00005000 	andeq	r5, r0, r0
     a58:	00000000 	andeq	r0, r0, r0
     a5c:	00140000 	andseq	r0, r4, r0
     a60:	00180000 	andseq	r0, r8, r0
     a64:	00010000 	andeq	r0, r1, r0
     a68:	00001851 	andeq	r1, r0, r1, asr r8
     a6c:	00004000 	andeq	r4, r0, r0
     a70:	f3000400 	vshl.u8	d0, d0, d0
     a74:	009f5101 	addseq	r5, pc, r1, lsl #2
     a78:	00000000 	andeq	r0, r0, r0
     a7c:	40000000 	andmi	r0, r0, r0
     a80:	60000000 	andvs	r0, r0, r0
     a84:	01000000 	mrseq	r0, (UNDEF: 0)
     a88:	00605000 	rsbeq	r5, r0, r0
     a8c:	006c0000 	rsbeq	r0, ip, r0
     a90:	00030000 	andeq	r0, r3, r0
     a94:	6c9f0171 	ldfvss	f0, [pc], {113}	; 0x71
     a98:	74000000 	strvc	r0, [r0], #-0
     a9c:	01000000 	mrseq	r0, (UNDEF: 0)
     aa0:	00745100 	rsbseq	r5, r4, r0, lsl #2
     aa4:	00800000 	addeq	r0, r0, r0
     aa8:	00030000 	andeq	r0, r3, r0
     aac:	009f0171 	addseq	r0, pc, r1, ror r1	; <UNPREDICTABLE>
     ab0:	00000000 	andeq	r0, r0, r0
     ab4:	40000000 	andmi	r0, r0, r0
     ab8:	50000000 	andpl	r0, r0, r0
     abc:	01000000 	mrseq	r0, (UNDEF: 0)
     ac0:	00505100 	subseq	r5, r0, r0, lsl #2
     ac4:	00800000 	addeq	r0, r0, r0
     ac8:	00040000 	andeq	r0, r4, r0
     acc:	9f5101f3 	svcls	0x005101f3
	...
     ad8:	00000040 	andeq	r0, r0, r0, asr #32
     adc:	00000058 	andeq	r0, r0, r8, asr r0
     ae0:	58520001 	ldmdapl	r2, {r0}^
     ae4:	64000000 	strvs	r0, [r0], #-0
     ae8:	01000000 	mrseq	r0, (UNDEF: 0)
     aec:	00645200 	rsbeq	r5, r4, r0, lsl #4
     af0:	00680000 	rsbeq	r0, r8, r0
     af4:	00030000 	andeq	r0, r3, r0
     af8:	689f0172 	ldmvs	pc, {r1, r4, r5, r6, r8}	; <UNPREDICTABLE>
     afc:	80000000 	andhi	r0, r0, r0
     b00:	01000000 	mrseq	r0, (UNDEF: 0)
     b04:	00005200 	andeq	r5, r0, r0, lsl #4
     b08:	00000000 	andeq	r0, r0, r0
     b0c:	00400000 	subeq	r0, r0, r0
     b10:	00540000 	subseq	r0, r4, r0
     b14:	00010000 	andeq	r0, r1, r0
     b18:	00005453 	andeq	r5, r0, r3, asr r4
     b1c:	00007800 	andeq	r7, r0, r0, lsl #16
     b20:	53000100 	movwpl	r0, #256	; 0x100
	...
     b2c:	00000048 	andeq	r0, r0, r8, asr #32
     b30:	00000060 	andeq	r0, r0, r0, rrx
     b34:	605c0001 	subsvs	r0, ip, r1
     b38:	80000000 	andhi	r0, r0, r0
     b3c:	0a000000 	beq	b44 <_start-0x74bc>
     b40:	5201f300 	andpl	pc, r1, #0, 6
     b44:	1c5301f3 	ldfnee	f0, [r3], {243}	; 0xf3
     b48:	009f0123 	addseq	r0, pc, r3, lsr #2
     b4c:	00000000 	andeq	r0, r0, r0
     b50:	80000000 	andhi	r0, r0, r0
     b54:	a4000000 	strge	r0, [r0], #-0
     b58:	01000000 	mrseq	r0, (UNDEF: 0)
     b5c:	00a45000 	adceq	r5, r4, r0
     b60:	01180000 	tsteq	r8, r0
     b64:	00030000 	andeq	r0, r3, r0
     b68:	189f0270 	ldmne	pc, {r4, r5, r6, r9}	; <UNPREDICTABLE>
     b6c:	28000001 	stmdacs	r0, {r0}
     b70:	04000002 	streq	r0, [r0], #-2
     b74:	5001f300 	andpl	pc, r1, r0, lsl #6
     b78:	0000009f 	muleq	r0, pc, r0	; <UNPREDICTABLE>
     b7c:	00000000 	andeq	r0, r0, r0
     b80:	00008000 	andeq	r8, r0, r0
     b84:	0000f000 	andeq	pc, r0, r0
     b88:	51000100 	mrspl	r0, (UNDEF: 16)
     b8c:	000000f0 	strdeq	r0, [r0], -r0	; <UNPREDICTABLE>
     b90:	00000160 	andeq	r0, r0, r0, ror #2
     b94:	60550001 	subsvs	r0, r5, r1
     b98:	68000001 	stmdavs	r0, {r0}
     b9c:	01000001 	tsteq	r0, r1
     ba0:	01685100 	cmneq	r8, r0, lsl #2
     ba4:	01880000 	orreq	r0, r8, r0
     ba8:	00010000 	andeq	r0, r1, r0
     bac:	00018855 	andeq	r8, r1, r5, asr r8
     bb0:	00019c00 	andeq	r9, r1, r0, lsl #24
     bb4:	51000100 	mrspl	r0, (UNDEF: 16)
     bb8:	0000019c 	muleq	r0, ip, r1
     bbc:	000001bc 			; <UNDEFINED> instruction: 0x000001bc
     bc0:	bc550001 	mrrclt	0, 0, r0, r5, cr1
     bc4:	bf000001 	svclt	0x00000001
     bc8:	01000001 	tsteq	r0, r1
     bcc:	01bf5100 			; <UNDEFINED> instruction: 0x01bf5100
     bd0:	02080000 	andeq	r0, r8, #0
     bd4:	00010000 	andeq	r0, r1, r0
     bd8:	00020855 	andeq	r0, r2, r5, asr r8
     bdc:	00022800 	andeq	r2, r2, r0, lsl #16
     be0:	f3000400 	vshl.u8	d0, d0, d0
     be4:	009f5101 	addseq	r5, pc, r1, lsl #2
     be8:	00000000 	andeq	r0, r0, r0
     bec:	80000000 	andhi	r0, r0, r0
     bf0:	94000000 	strls	r0, [r0], #-0
     bf4:	01000000 	mrseq	r0, (UNDEF: 0)
     bf8:	00945200 	addseq	r5, r4, r0, lsl #4
     bfc:	02080000 	andeq	r0, r8, #0
     c00:	00010000 	andeq	r0, r1, r0
     c04:	00020854 	andeq	r0, r2, r4, asr r8
     c08:	00022800 	andeq	r2, r2, r0, lsl #16
     c0c:	f3000400 	vshl.u8	d0, d0, d0
     c10:	009f5201 	addseq	r5, pc, r1, lsl #4
     c14:	00000000 	andeq	r0, r0, r0
     c18:	80000000 	andhi	r0, r0, r0
     c1c:	00000000 	andeq	r0, r0, r0
     c20:	01000001 	tsteq	r0, r1
     c24:	01045300 	mrseq	r5, LR_abt
     c28:	01080000 	mrseq	r0, (UNDEF: 8)
     c2c:	00010000 	andeq	r0, r1, r0
     c30:	00016053 	andeq	r6, r1, r3, asr r0
     c34:	00016800 	andeq	r6, r1, r0, lsl #16
     c38:	53000100 	movwpl	r0, #256	; 0x100
     c3c:	00000168 	andeq	r0, r0, r8, ror #2
     c40:	00000188 	andeq	r0, r0, r8, lsl #3
     c44:	01f30004 	mvnseq	r0, r4
     c48:	01889f53 	orreq	r9, r8, r3, asr pc
     c4c:	01900000 	orrseq	r0, r0, r0
     c50:	00010000 	andeq	r0, r1, r0
     c54:	00019053 	andeq	r9, r1, r3, asr r0
     c58:	00019400 	andeq	r9, r1, r0, lsl #8
     c5c:	5c000100 	stfpls	f0, [r0], {-0}
     c60:	00000194 	muleq	r0, r4, r1
     c64:	0000019c 	muleq	r0, ip, r1
     c68:	9c530001 	mrrcls	0, 0, r0, r3, cr1
     c6c:	bc000001 	stclt	0, cr0, [r0], {1}
     c70:	04000001 	streq	r0, [r0], #-1
     c74:	5301f300 	movwpl	pc, #4864	; 0x1300	; <UNPREDICTABLE>
     c78:	0001bc9f 	muleq	r1, pc, ip	; <UNPREDICTABLE>
     c7c:	0001bf00 	andeq	fp, r1, r0, lsl #30
     c80:	53000100 	movwpl	r0, #256	; 0x100
     c84:	000001bf 			; <UNDEFINED> instruction: 0x000001bf
     c88:	000001e0 	andeq	r0, r0, r0, ror #3
     c8c:	01f30004 	mvnseq	r0, r4
     c90:	00009f53 	andeq	r9, r0, r3, asr pc
     c94:	00000000 	andeq	r0, r0, r0
     c98:	00800000 	addeq	r0, r0, r0
     c9c:	009c0000 	addseq	r0, ip, r0
     ca0:	00020000 	andeq	r0, r2, r0
     ca4:	009c0091 	umullseq	r0, ip, r1, r0
     ca8:	01bf0000 			; <UNDEFINED> instruction: 0x01bf0000
     cac:	00010000 	andeq	r0, r1, r0
     cb0:	0001e052 	andeq	lr, r1, r2, asr r0
     cb4:	0001eb00 	andeq	lr, r1, r0, lsl #22
     cb8:	52000100 	andpl	r0, r0, #0, 2
	...
     cc4:	0000009c 	muleq	r0, ip, r0
     cc8:	0000010c 	andeq	r0, r0, ip, lsl #2
     ccc:	a0910004 	addsge	r0, r1, r4
     cd0:	010c9f7f 	tsteq	ip, pc, ror pc
     cd4:	01180000 	tsteq	r8, r0
     cd8:	00010000 	andeq	r0, r1, r0
     cdc:	00011851 	andeq	r1, r1, r1, asr r8
     ce0:	00011c00 	andeq	r1, r1, r0, lsl #24
     ce4:	53000100 	movwpl	r0, #256	; 0x100
     ce8:	0000011c 	andeq	r0, r0, ip, lsl r1
     cec:	00000120 	andeq	r0, r0, r0, lsr #2
     cf0:	20510001 	subscs	r0, r1, r1
     cf4:	60000001 	andvs	r0, r0, r1
     cf8:	01000001 	tsteq	r0, r1
     cfc:	01605300 	cmneq	r0, r0, lsl #6
     d00:	01640000 	cmneq	r4, r0
     d04:	00040000 	andeq	r0, r4, r0
     d08:	9f7fa091 	svcls	0x007fa091
     d0c:	00000164 	andeq	r0, r0, r4, ror #2
     d10:	0000016c 	andeq	r0, r0, ip, ror #2
     d14:	6c5e0001 	mrrcvs	0, 0, r0, lr, cr1
     d18:	88000001 	stmdahi	r0, {r0}
     d1c:	01000001 	tsteq	r0, r1
     d20:	01885300 	orreq	r5, r8, r0, lsl #6
     d24:	01900000 	orrseq	r0, r0, r0
     d28:	00040000 	andeq	r0, r4, r0
     d2c:	9f7fa191 	svcls	0x007fa191
     d30:	00000190 	muleq	r0, r0, r1
     d34:	00000194 	muleq	r0, r4, r1
     d38:	94530001 	ldrbls	r0, [r3], #-1
     d3c:	98000001 	stmdals	r0, {r0}
     d40:	04000001 	streq	r0, [r0], #-1
     d44:	7fa09100 	svcvc	0x00a09100
     d48:	0001989f 	muleq	r1, pc, r8	; <UNPREDICTABLE>
     d4c:	0001a000 	andeq	sl, r1, r0
     d50:	5e000100 	adfpls	f0, f0, f0
     d54:	000001a0 	andeq	r0, r0, r0, lsr #3
     d58:	000001bc 			; <UNDEFINED> instruction: 0x000001bc
     d5c:	bc530001 	mrrclt	0, 0, r0, r3, cr1
     d60:	e0000001 	and	r0, r0, r1
     d64:	04000001 	streq	r0, [r0], #-1
     d68:	7fa09100 	svcvc	0x00a09100
     d6c:	0001e09f 	muleq	r1, pc, r0	; <UNPREDICTABLE>
     d70:	0001eb00 	andeq	lr, r1, r0, lsl #22
     d74:	53000100 	movwpl	r0, #256	; 0x100
	...
     d80:	000000a0 	andeq	r0, r0, r0, lsr #1
     d84:	000000ec 	andeq	r0, r0, ip, ror #1
     d88:	ec5c0001 	mrrc	0, 0, r0, ip, cr1
     d8c:	00000000 	andeq	r0, r0, r0
     d90:	01000001 	tsteq	r0, r1
     d94:	01005300 	mrseq	r5, LR_irq
     d98:	01040000 	mrseq	r0, (UNDEF: 4)
     d9c:	00010000 	andeq	r0, r1, r0
     da0:	0001045c 	andeq	r0, r1, ip, asr r4
     da4:	00010800 	andeq	r0, r1, r0, lsl #16
     da8:	53000100 	movwpl	r0, #256	; 0x100
     dac:	00000108 	andeq	r0, r0, r8, lsl #2
     db0:	00000118 	andeq	r0, r0, r8, lsl r1
     db4:	185c0001 	ldmdane	ip, {r0}^
     db8:	1c000001 	stcne	0, cr0, [r0], {1}
     dbc:	01000001 	tsteq	r0, r1
     dc0:	011c5000 	tsteq	ip, r0
     dc4:	013c0000 	teqeq	ip, r0
     dc8:	00010000 	andeq	r0, r1, r0
     dcc:	0001445c 	andeq	r4, r1, ip, asr r4
     dd0:	00015800 	andeq	r5, r1, r0, lsl #16
     dd4:	50000100 	andpl	r0, r0, r0, lsl #2
     dd8:	00000158 	andeq	r0, r0, r8, asr r1
     ddc:	00000160 	andeq	r0, r0, r0, ror #2
     de0:	605c0001 	subsvs	r0, ip, r1
     de4:	68000001 	stmdavs	r0, {r0}
     de8:	01000001 	tsteq	r0, r1
     dec:	01685300 	cmneq	r8, r0, lsl #6
     df0:	01780000 	cmneq	r8, r0
     df4:	00010000 	andeq	r0, r1, r0
     df8:	0001785c 	andeq	r7, r1, ip, asr r8
     dfc:	00018000 	andeq	r8, r1, r0
     e00:	7c000500 	cfstr32vc	mvfx0, [r0], {-0}
     e04:	9f253400 	svcls	0x00253400
     e08:	00000180 	andeq	r0, r0, r0, lsl #3
     e0c:	00000188 	andeq	r0, r0, r8, lsl #3
     e10:	885c0001 	ldmdahi	ip, {r0}^
     e14:	90000001 	andls	r0, r0, r1
     e18:	01000001 	tsteq	r0, r1
     e1c:	01905300 	orrseq	r5, r0, r0, lsl #6
     e20:	01940000 	orrseq	r0, r4, r0
     e24:	00010000 	andeq	r0, r1, r0
     e28:	0001945c 	andeq	r9, r1, ip, asr r4
     e2c:	00019c00 	andeq	r9, r1, r0, lsl #24
     e30:	53000100 	movwpl	r0, #256	; 0x100
     e34:	0000019c 	muleq	r0, ip, r1
     e38:	000001ac 	andeq	r0, r0, ip, lsr #3
     e3c:	ac5c0001 	mrrcge	0, 0, r0, ip, cr1
     e40:	b4000001 	strlt	r0, [r0], #-1
     e44:	05000001 	streq	r0, [r0, #-1]
     e48:	31007c00 	tstcc	r0, r0, lsl #24
     e4c:	01b49f25 			; <UNDEFINED> instruction: 0x01b49f25
     e50:	01bc0000 			; <UNDEFINED> instruction: 0x01bc0000
     e54:	00010000 	andeq	r0, r1, r0
     e58:	0001bc5c 	andeq	fp, r1, ip, asr ip
     e5c:	0001bf00 	andeq	fp, r1, r0, lsl #30
     e60:	53000100 	movwpl	r0, #256	; 0x100
     e64:	000001bf 			; <UNDEFINED> instruction: 0x000001bf
     e68:	000001e0 	andeq	r0, r0, r0, ror #3
     e6c:	01f30004 	mvnseq	r0, r4
     e70:	01e09f53 	mvneq	r9, r3, asr pc
     e74:	01eb0000 	mvneq	r0, r0
     e78:	00010000 	andeq	r0, r1, r0
     e7c:	0000005c 	andeq	r0, r0, ip, asr r0
     e80:	00000000 	andeq	r0, r0, r0
     e84:	0000ec00 	andeq	lr, r0, r0, lsl #24
     e88:	0000fc00 	andeq	pc, r0, r0, lsl #24
     e8c:	30000200 	andcc	r0, r0, r0, lsl #4
     e90:	0000fc9f 	muleq	r0, pc, ip	; <UNPREDICTABLE>
     e94:	00010400 	andeq	r0, r1, r0, lsl #8
     e98:	31000200 	mrscc	r0, R8_usr
     e9c:	0001049f 	muleq	r1, pc, r4	; <UNPREDICTABLE>
     ea0:	00010800 	andeq	r0, r1, r0, lsl #16
     ea4:	30000200 	andcc	r0, r0, r0, lsl #4
     ea8:	0000009f 	muleq	r0, pc, r0	; <UNPREDICTABLE>
     eac:	00000000 	andeq	r0, r0, r0
     eb0:	00022800 	andeq	r2, r2, r0, lsl #16
     eb4:	00023b00 	andeq	r3, r2, r0, lsl #22
     eb8:	50000100 	andpl	r0, r0, r0, lsl #2
     ebc:	0000023b 	andeq	r0, r0, fp, lsr r2
     ec0:	0000025c 	andeq	r0, r0, ip, asr r2
     ec4:	01f30004 	mvnseq	r0, r4
     ec8:	025c9f50 	subseq	r9, ip, #80, 30	; 0x140
     ecc:	02900000 	addseq	r0, r0, #0
     ed0:	00010000 	andeq	r0, r1, r0
     ed4:	00000050 	andeq	r0, r0, r0, asr r0
     ed8:	00000000 	andeq	r0, r0, r0
     edc:	00022800 	andeq	r2, r2, r0, lsl #16
     ee0:	00023b00 	andeq	r3, r2, r0, lsl #22
     ee4:	51000100 	mrspl	r0, (UNDEF: 16)
     ee8:	0000023b 	andeq	r0, r0, fp, lsr r2
     eec:	0000025c 	andeq	r0, r0, ip, asr r2
     ef0:	01f30004 	mvnseq	r0, r4
     ef4:	025c9f51 	subseq	r9, ip, #324	; 0x144
     ef8:	02900000 	addseq	r0, r0, #0
     efc:	00010000 	andeq	r0, r1, r0
     f00:	00000051 	andeq	r0, r0, r1, asr r0
     f04:	00000000 	andeq	r0, r0, r0
     f08:	00029000 	andeq	r9, r2, r0
     f0c:	0002bc00 	andeq	fp, r2, r0, lsl #24
     f10:	50000100 	andpl	r0, r0, r0, lsl #2
     f14:	000002bc 			; <UNDEFINED> instruction: 0x000002bc
     f18:	0000050c 	andeq	r0, r0, ip, lsl #10
     f1c:	0c5a0001 	mrrceq	0, 0, r0, sl, cr1
     f20:	24000005 	strcs	r0, [r0], #-5
     f24:	04000005 	streq	r0, [r0], #-5
     f28:	5001f300 	andpl	pc, r1, r0, lsl #6
     f2c:	0000009f 	muleq	r0, pc, r0	; <UNPREDICTABLE>
     f30:	00000000 	andeq	r0, r0, r0
     f34:	00029000 	andeq	r9, r2, r0
     f38:	0002a400 	andeq	sl, r2, r0, lsl #8
     f3c:	51000100 	mrspl	r0, (UNDEF: 16)
     f40:	000002a4 	andeq	r0, r0, r4, lsr #5
     f44:	000002bc 			; <UNDEFINED> instruction: 0x000002bc
     f48:	01710003 	cmneq	r1, r3
     f4c:	0002bc9f 	muleq	r2, pc, ip	; <UNPREDICTABLE>
     f50:	00052400 	andeq	r2, r5, r0, lsl #8
     f54:	f3000400 	vshl.u8	d0, d0, d0
     f58:	009f5101 	addseq	r5, pc, r1, lsl #2
     f5c:	00000000 	andeq	r0, r0, r0
     f60:	90000000 	andls	r0, r0, r0
     f64:	c4000002 	strgt	r0, [r0], #-2
     f68:	01000002 	tsteq	r0, r2
     f6c:	02c45200 	sbceq	r5, r4, #0, 4
     f70:	02ec0000 	rsceq	r0, ip, #0
     f74:	00010000 	andeq	r0, r1, r0
     f78:	0002ec52 	andeq	lr, r2, r2, asr ip
     f7c:	0004bc00 	andeq	fp, r4, r0, lsl #24
     f80:	56000100 	strpl	r0, [r0], -r0, lsl #2
     f84:	000004bc 			; <UNDEFINED> instruction: 0x000004bc
     f88:	00000524 	andeq	r0, r0, r4, lsr #10
     f8c:	00520001 	subseq	r0, r2, r1
     f90:	00000000 	andeq	r0, r0, r0
     f94:	90000000 	andls	r0, r0, r0
     f98:	ac000002 	stcge	0, cr0, [r0], {2}
     f9c:	01000002 	tsteq	r0, r2
     fa0:	00005300 	andeq	r5, r0, r0, lsl #6
     fa4:	00000000 	andeq	r0, r0, r0
     fa8:	02a00000 	adceq	r0, r0, #0
     fac:	02bc0000 	adcseq	r0, ip, #0
     fb0:	00010000 	andeq	r0, r1, r0
     fb4:	0002bc50 	andeq	fp, r2, r0, asr ip
     fb8:	0002c000 	andeq	ip, r2, r0
     fbc:	54000100 	strpl	r0, [r0], #-256	; 0x100
     fc0:	000002c0 	andeq	r0, r0, r0, asr #5
     fc4:	000002cc 	andeq	r0, r0, ip, asr #5
     fc8:	01740003 	cmneq	r4, r3
     fcc:	0002cc9f 	muleq	r2, pc, ip	; <UNPREDICTABLE>
     fd0:	0002d800 	andeq	sp, r2, r0, lsl #16
     fd4:	54000100 	strpl	r0, [r0], #-256	; 0x100
     fd8:	000002d8 	ldrdeq	r0, [r0], -r8
     fdc:	000002e4 	andeq	r0, r0, r4, ror #5
     fe0:	01740003 	cmneq	r4, r3
     fe4:	0002e49f 	muleq	r2, pc, r4	; <UNPREDICTABLE>
     fe8:	0004c000 	andeq	ip, r4, r0
     fec:	54000100 	strpl	r0, [r0], #-256	; 0x100
     ff0:	000004c0 	andeq	r0, r0, r0, asr #9
     ff4:	000004cc 	andeq	r0, r0, ip, asr #9
     ff8:	01740003 	cmneq	r4, r3
     ffc:	0004cc9f 	muleq	r4, pc, ip	; <UNPREDICTABLE>
    1000:	0004f800 	andeq	pc, r4, r0, lsl #16
    1004:	54000100 	strpl	r0, [r0], #-256	; 0x100
    1008:	000004f8 	strdeq	r0, [r0], -r8
    100c:	00000504 	andeq	r0, r0, r4, lsl #10
    1010:	04500001 	ldrbeq	r0, [r0], #-1
    1014:	0c000005 	stceq	0, cr0, [r0], {5}
    1018:	03000005 	movweq	r0, #5
    101c:	9f017400 	svcls	0x00017400
	...
    1028:	000002a8 	andeq	r0, r0, r8, lsr #5
    102c:	0000050c 	andeq	r0, r0, ip, lsl #10
    1030:	0c580001 	mrrceq	0, 0, r0, r8, cr1
    1034:	24000005 	strcs	r0, [r0], #-5
    1038:	0a000005 	beq	1054 <_start-0x6fac>
    103c:	5101f300 	mrspl	pc, SP_irq	; <UNPREDICTABLE>
    1040:	225001f3 	subscs	r0, r0, #-1073741764	; 0xc000003c
    1044:	009f1c31 	addseq	r1, pc, r1, lsr ip	; <UNPREDICTABLE>
    1048:	00000000 	andeq	r0, r0, r0
    104c:	f4000000 	vst4.8	{d0-d3}, [r0], r0
    1050:	f8000003 			; <UNDEFINED> instruction: 0xf8000003
    1054:	01000003 	tsteq	r0, r3
    1058:	04185000 	ldreq	r5, [r8], #-0
    105c:	041c0000 	ldreq	r0, [ip], #-0
    1060:	00010000 	andeq	r0, r1, r0
    1064:	00043c50 	andeq	r3, r4, r0, asr ip
    1068:	00044000 	andeq	r4, r4, r0
    106c:	50000100 	andpl	r0, r0, r0, lsl #2
    1070:	00000460 	andeq	r0, r0, r0, ror #8
    1074:	00000464 	andeq	r0, r0, r4, ror #8
    1078:	6c500001 	mrrcvs	0, 0, r0, r0, cr1	; <UNPREDICTABLE>
    107c:	70000004 	andvc	r0, r0, r4
    1080:	01000004 	tsteq	r0, r4
    1084:	04905000 	ldreq	r5, [r0], #0
    1088:	04940000 	ldreq	r0, [r4], #0
    108c:	00010000 	andeq	r0, r1, r0
    1090:	0004b850 	andeq	fp, r4, r0, asr r8
    1094:	0004e000 	andeq	lr, r4, r0
    1098:	50000100 	andpl	r0, r0, r0, lsl #2
	...
    10a4:	000002ec 	andeq	r0, r0, ip, ror #5
    10a8:	000002f4 	strdeq	r0, [r0], -r4
    10ac:	9f300002 	svcls	0x00300002
    10b0:	000002f4 	strdeq	r0, [r0], -r4
    10b4:	000002f8 	strdeq	r0, [r0], -r8
    10b8:	04570001 	ldrbeq	r0, [r7], #-1
    10bc:	e0000003 	and	r0, r0, r3
    10c0:	01000004 	tsteq	r0, r4
    10c4:	00005700 	andeq	r5, r0, r0, lsl #14
    10c8:	00000000 	andeq	r0, r0, r0
    10cc:	00040000 	andeq	r0, r4, r0
    10d0:	00080000 	andeq	r0, r8, r0
    10d4:	00070000 	andeq	r0, r7, r0
    10d8:	000a0073 	andeq	r0, sl, r3, ror r0
    10dc:	089f2110 	ldmeq	pc, {r4, r8, sp}	; <UNPREDICTABLE>
    10e0:	10000000 	andne	r0, r0, r0
    10e4:	01000000 	mrseq	r0, (UNDEF: 0)
    10e8:	00005300 	andeq	r5, r0, r0, lsl #6
    10ec:	00000000 	andeq	r0, r0, r0
    10f0:	00140000 	andseq	r0, r4, r0
    10f4:	00180000 	andseq	r0, r8, r0
    10f8:	00070000 	andeq	r0, r7, r0
    10fc:	ff0b0073 			; <UNDEFINED> instruction: 0xff0b0073
    1100:	189f1aef 	ldmne	pc, {r0, r1, r2, r3, r5, r6, r7, r9, fp, ip}	; <UNPREDICTABLE>
    1104:	20000000 	andcs	r0, r0, r0
    1108:	01000000 	mrseq	r0, (UNDEF: 0)
    110c:	00005300 	andeq	r5, r0, r0, lsl #6
	...
    1118:	000c0000 	andeq	r0, ip, r0
    111c:	00010000 	andeq	r0, r1, r0
    1120:	00000c50 	andeq	r0, r0, r0, asr ip
    1124:	00002000 	andeq	r2, r0, r0
    1128:	54000100 	strpl	r0, [r0], #-256	; 0x100
	...
    1134:	00000034 	andeq	r0, r0, r4, lsr r0
    1138:	0000003c 	andeq	r0, r0, ip, lsr r0
    113c:	04730003 	ldrbteq	r0, [r3], #-3
    1140:	00003c9f 	muleq	r0, pc, ip	; <UNPREDICTABLE>
    1144:	00004700 	andeq	r4, r0, r0, lsl #14
    1148:	53000100 	movwpl	r0, #256	; 0x100
	...
    1154:	00000048 	andeq	r0, r0, r8, asr #32
    1158:	00000074 	andeq	r0, r0, r4, ror r0
    115c:	74500001 	ldrbvc	r0, [r0], #-1
    1160:	83000000 	movwhi	r0, #0
    1164:	03000000 	movweq	r0, #0
    1168:	9f787300 	svcls	0x00787300
	...
    1174:	00008dc4 	andeq	r8, r0, r4, asr #27
    1178:	00008dc8 	andeq	r8, r0, r8, asr #27
    117c:	9f300002 	svcls	0x00300002
    1180:	00008dc8 	andeq	r8, r0, r8, asr #27
    1184:	00008dcc 	andeq	r8, r0, ip, asr #27
    1188:	00500001 	subseq	r0, r0, r1
    118c:	00000000 	andeq	r0, r0, r0
    1190:	dc000000 	stcle	0, cr0, [r0], {-0}
    1194:	e000008d 	and	r0, r0, sp, lsl #1
    1198:	0200008d 	andeq	r0, r0, #141	; 0x8d
    119c:	e09f3000 	adds	r3, pc, r0
    11a0:	e400008d 	str	r0, [r0], #-141	; 0x8d
    11a4:	0100008d 	smlabbeq	r0, sp, r0, r0
    11a8:	8de85300 	stclhi	3, cr5, [r8]
    11ac:	8df00000 	ldclhi	0, cr0, [r0]
    11b0:	00010000 	andeq	r0, r1, r0
    11b4:	00000053 	andeq	r0, r0, r3, asr r0
	...
    11c0:	00000400 	andeq	r0, r0, r0, lsl #8
    11c4:	50000100 	andpl	r0, r0, r0, lsl #2
    11c8:	00000004 	andeq	r0, r0, r4
    11cc:	0000000c 	andeq	r0, r0, ip
    11d0:	0c530001 	mrrceq	0, 0, r0, r3, cr1
    11d4:	10000000 	andne	r0, r0, r0
    11d8:	01000000 	mrseq	r0, (UNDEF: 0)
    11dc:	00105000 	andseq	r5, r0, r0
    11e0:	001c0000 	andseq	r0, ip, r0
    11e4:	00010000 	andeq	r0, r1, r0
    11e8:	00000053 	andeq	r0, r0, r3, asr r0
    11ec:	00000000 	andeq	r0, r0, r0
    11f0:	00003c00 	andeq	r3, r0, r0, lsl #24
    11f4:	00004700 	andeq	r4, r0, r0, lsl #14
    11f8:	50000100 	andpl	r0, r0, r0, lsl #2
    11fc:	00000047 	andeq	r0, r0, r7, asr #32
    1200:	00000060 	andeq	r0, r0, r0, rrx
    1204:	00550001 	subseq	r0, r5, r1
    1208:	00000000 	andeq	r0, r0, r0
    120c:	50000000 	andpl	r0, r0, r0
    1210:	54000000 	strpl	r0, [r0], #-0
    1214:	01000000 	mrseq	r0, (UNDEF: 0)
    1218:	00005000 	andeq	r5, r0, r0
    121c:	00000000 	andeq	r0, r0, r0
    1220:	00600000 	rsbeq	r0, r0, r0
    1224:	006c0000 	rsbeq	r0, ip, r0
    1228:	00010000 	andeq	r0, r1, r0
    122c:	00006c50 	andeq	r6, r0, r0, asr ip
    1230:	00007400 	andeq	r7, r0, r0, lsl #8
    1234:	f3000400 	vshl.u8	d0, d0, d0
    1238:	009f5001 	addseq	r5, pc, r1
    123c:	00000000 	andeq	r0, r0, r0
    1240:	74000000 	strvc	r0, [r0], #-0
    1244:	80000000 	andhi	r0, r0, r0
    1248:	01000000 	mrseq	r0, (UNDEF: 0)
    124c:	00805000 	addeq	r5, r0, r0
    1250:	00880000 	addeq	r0, r8, r0
    1254:	00040000 	andeq	r0, r4, r0
    1258:	9f5001f3 	svcls	0x005001f3
	...
    1268:	00000090 	muleq	r0, r0, r0
    126c:	90500001 	subsls	r0, r0, r1
    1270:	d4000000 	strle	r0, [r0], #-0
    1274:	01000000 	mrseq	r0, (UNDEF: 0)
    1278:	00005400 	andeq	r5, r0, r0, lsl #8
    127c:	00000000 	andeq	r0, r0, r0
    1280:	00480000 	subeq	r0, r8, r0
    1284:	004c0000 	subeq	r0, ip, r0
    1288:	00010000 	andeq	r0, r1, r0
    128c:	00005455 	andeq	r5, r0, r5, asr r4
    1290:	00005800 	andeq	r5, r0, r0, lsl #16
    1294:	55000100 	strpl	r0, [r0, #-256]	; 0x100
    1298:	00000060 	andeq	r0, r0, r0, rrx
    129c:	00000064 	andeq	r0, r0, r4, rrx
    12a0:	6c550001 	mrrcvs	0, 0, r0, r5, cr1
    12a4:	70000000 	andvc	r0, r0, r0
    12a8:	01000000 	mrseq	r0, (UNDEF: 0)
    12ac:	00785500 	rsbseq	r5, r8, r0, lsl #10
    12b0:	007c0000 	rsbseq	r0, ip, r0
    12b4:	00010000 	andeq	r0, r1, r0
    12b8:	00008455 	andeq	r8, r0, r5, asr r4
    12bc:	00008800 	andeq	r8, r0, r0, lsl #16
    12c0:	55000100 	strpl	r0, [r0, #-256]	; 0x100
    12c4:	0000008c 	andeq	r0, r0, ip, lsl #1
    12c8:	000000d4 	ldrdeq	r0, [r0], -r4
    12cc:	00550001 	subseq	r0, r5, r1
    12d0:	00000000 	andeq	r0, r0, r0
    12d4:	1c000000 	stcne	0, cr0, [r0], {-0}
    12d8:	44000000 	strmi	r0, [r0], #-0
    12dc:	01000000 	mrseq	r0, (UNDEF: 0)
    12e0:	00445300 	subeq	r5, r4, r0, lsl #6
    12e4:	004c0000 	subeq	r0, ip, r0
    12e8:	001c0000 	andseq	r0, ip, r0
    12ec:	2cf70070 	ldclcs	0, cr0, [r7], #448	; 0x1c0
    12f0:	25f425f7 	ldrbcs	r2, [r4, #1527]!	; 0x5f7
    12f4:	cccccd08 	stclgt	13, cr12, [ip], {8}
    12f8:	000000cc 	andeq	r0, r0, ip, asr #1
    12fc:	20081e00 	andcs	r1, r8, r0, lsl #28
    1300:	f72525f7 			; <UNDEFINED> instruction: 0xf72525f7
    1304:	9f25332c 	svcls	0x0025332c
    1308:	0000004c 	andeq	r0, r0, ip, asr #32
    130c:	00000050 	andeq	r0, r0, r0, asr r0
    1310:	50530001 	subspl	r0, r3, r1
    1314:	58000000 	stmdapl	r0, {}	; <UNPREDICTABLE>
    1318:	1c000000 	stcne	0, cr0, [r0], {-0}
    131c:	f7007000 			; <UNDEFINED> instruction: 0xf7007000
    1320:	f425f72c 	vld1.8	{d15}, [r5 :128], ip
    1324:	cccd0825 	stclgt	8, cr0, [sp], {37}	; 0x25
    1328:	0000cccc 	andeq	ip, r0, ip, asr #25
    132c:	081e0000 	ldmdaeq	lr, {}	; <UNPREDICTABLE>
    1330:	2525f720 	strcs	pc, [r5, #-1824]!	; 0x720
    1334:	25332cf7 	ldrcs	r2, [r3, #-3319]!	; 0xcf7
    1338:	0000589f 	muleq	r0, pc, r8	; <UNPREDICTABLE>
    133c:	00005c00 	andeq	r5, r0, r0, lsl #24
    1340:	53000100 	movwpl	r0, #256	; 0x100
    1344:	0000005c 	andeq	r0, r0, ip, asr r0
    1348:	00000064 	andeq	r0, r0, r4, rrx
    134c:	0070001c 	rsbseq	r0, r0, ip, lsl r0
    1350:	25f72cf7 	ldrbcs	r2, [r7, #3319]!	; 0xcf7
    1354:	cd0825f4 	cfstr32gt	mvfx2, [r8, #-976]	; 0xfffffc30
    1358:	00cccccc 	sbceq	ip, ip, ip, asr #25
    135c:	1e000000 	cdpne	0, 0, cr0, cr0, cr0, {0}
    1360:	25f72008 	ldrbcs	r2, [r7, #8]!
    1364:	332cf725 	msrcc	CPSR_fs, #9699328	; 0x940000
    1368:	00649f25 	rsbeq	r9, r4, r5, lsr #30
    136c:	00680000 	rsbeq	r0, r8, r0
    1370:	00010000 	andeq	r0, r1, r0
    1374:	00006853 	andeq	r6, r0, r3, asr r8
    1378:	00007000 	andeq	r7, r0, r0
    137c:	70001c00 	andvc	r1, r0, r0, lsl #24
    1380:	f72cf700 			; <UNDEFINED> instruction: 0xf72cf700
    1384:	0825f425 	stmdaeq	r5!, {r0, r2, r5, sl, ip, sp, lr, pc}
    1388:	cccccccd 	stclgt	12, cr12, [ip], {205}	; 0xcd
    138c:	00000000 	andeq	r0, r0, r0
    1390:	f720081e 			; <UNDEFINED> instruction: 0xf720081e
    1394:	2cf72525 	cfldr64cs	mvdx2, [r7], #148	; 0x94
    1398:	709f2533 	addsvc	r2, pc, r3, lsr r5	; <UNPREDICTABLE>
    139c:	74000000 	strvc	r0, [r0], #-0
    13a0:	01000000 	mrseq	r0, (UNDEF: 0)
    13a4:	00745300 	rsbseq	r5, r4, r0, lsl #6
    13a8:	007c0000 	rsbseq	r0, ip, r0
    13ac:	001c0000 	andseq	r0, ip, r0
    13b0:	2cf70070 	ldclcs	0, cr0, [r7], #448	; 0x1c0
    13b4:	25f425f7 	ldrbcs	r2, [r4, #1527]!	; 0x5f7
    13b8:	cccccd08 	stclgt	13, cr12, [ip], {8}
    13bc:	000000cc 	andeq	r0, r0, ip, asr #1
    13c0:	20081e00 	andcs	r1, r8, r0, lsl #28
    13c4:	f72525f7 			; <UNDEFINED> instruction: 0xf72525f7
    13c8:	9f25332c 	svcls	0x0025332c
    13cc:	0000007c 	andeq	r0, r0, ip, ror r0
    13d0:	00000080 	andeq	r0, r0, r0, lsl #1
    13d4:	80530001 	subshi	r0, r3, r1
    13d8:	88000000 	stmdahi	r0, {}	; <UNPREDICTABLE>
    13dc:	1c000000 	stcne	0, cr0, [r0], {-0}
    13e0:	f7007000 			; <UNDEFINED> instruction: 0xf7007000
    13e4:	f425f72c 	vld1.8	{d15}, [r5 :128], ip
    13e8:	cccd0825 	stclgt	8, cr0, [sp], {37}	; 0x25
    13ec:	0000cccc 	andeq	ip, r0, ip, asr #25
    13f0:	081e0000 	ldmdaeq	lr, {}	; <UNPREDICTABLE>
    13f4:	2525f720 	strcs	pc, [r5, #-1824]!	; 0x720
    13f8:	25332cf7 	ldrcs	r2, [r3, #-3319]!	; 0xcf7
    13fc:	0000889f 	muleq	r0, pc, r8	; <UNPREDICTABLE>
    1400:	00008c00 	andeq	r8, r0, r0, lsl #24
    1404:	53000100 	movwpl	r0, #256	; 0x100
    1408:	0000008c 	andeq	r0, r0, ip, lsl #1
    140c:	00000090 	muleq	r0, r0, r0
    1410:	0070001c 	rsbseq	r0, r0, ip, lsl r0
    1414:	25f72cf7 	ldrbcs	r2, [r7, #3319]!	; 0xcf7
    1418:	cd0825f4 	cfstr32gt	mvfx2, [r8, #-976]	; 0xfffffc30
    141c:	00cccccc 	sbceq	ip, ip, ip, asr #25
    1420:	1e000000 	cdpne	0, 0, cr0, cr0, cr0, {0}
    1424:	25f72008 	ldrbcs	r2, [r7, #8]!
    1428:	332cf725 	msrcc	CPSR_fs, #9699328	; 0x940000
    142c:	00909f25 	addseq	r9, r0, r5, lsr #30
    1430:	00980000 	addseq	r0, r8, r0
    1434:	001c0000 	andseq	r0, ip, r0
    1438:	2cf70074 	ldclcs	0, cr0, [r7], #464	; 0x1d0
    143c:	25f425f7 	ldrbcs	r2, [r4, #1527]!	; 0x5f7
    1440:	cccccd08 	stclgt	13, cr12, [ip], {8}
    1444:	000000cc 	andeq	r0, r0, ip, asr #1
    1448:	20081e00 	andcs	r1, r8, r0, lsl #28
    144c:	f72525f7 			; <UNDEFINED> instruction: 0xf72525f7
    1450:	9f25332c 	svcls	0x0025332c
    1454:	00000098 	muleq	r0, r8, r0
    1458:	0000009c 	muleq	r0, ip, r0
    145c:	00740017 	rsbseq	r0, r4, r7, lsl r0
    1460:	25f72cf7 	ldrbcs	r2, [r7, #3319]!	; 0xcf7
    1464:	2cf70071 	ldclcs	0, cr0, [r7], #452	; 0x1c4
    1468:	081e25f7 	ldmdaeq	lr, {r0, r1, r2, r4, r5, r6, r7, r8, sl, sp}
    146c:	2525f720 	strcs	pc, [r5, #-1824]!	; 0x720
    1470:	25332cf7 	ldrcs	r2, [r3, #-3319]!	; 0xcf7
    1474:	00009c9f 	muleq	r0, pc, ip	; <UNPREDICTABLE>
    1478:	0000d400 	andeq	sp, r0, r0, lsl #8
    147c:	74001c00 	strvc	r1, [r0], #-3072	; 0xc00
    1480:	f72cf700 			; <UNDEFINED> instruction: 0xf72cf700
    1484:	0825f425 	stmdaeq	r5!, {r0, r2, r5, sl, ip, sp, lr, pc}
    1488:	cccccccd 	stclgt	12, cr12, [ip], {205}	; 0xcd
    148c:	00000000 	andeq	r0, r0, r0
    1490:	f720081e 			; <UNDEFINED> instruction: 0xf720081e
    1494:	2cf72525 	cfldr64cs	mvdx2, [r7], #148	; 0x94
    1498:	009f2533 	addseq	r2, pc, r3, lsr r5	; <UNPREDICTABLE>
    149c:	00000000 	andeq	r0, r0, r0
    14a0:	94000000 	strls	r0, [r0], #-0
    14a4:	b8000000 	stmdalt	r0, {}	; <UNPREDICTABLE>
    14a8:	01000000 	mrseq	r0, (UNDEF: 0)
    14ac:	00b85000 	adcseq	r5, r8, r0
    14b0:	00c40000 	sbceq	r0, r4, r0
    14b4:	00080000 	andeq	r0, r8, r0
    14b8:	24007131 	strcs	r7, [r0], #-305	; 0x131
    14bc:	9f210073 	svcls	0x00210073
    14c0:	000000c4 	andeq	r0, r0, r4, asr #1
    14c4:	000000c7 	andeq	r0, r0, r7, asr #1
    14c8:	00510001 	subseq	r0, r1, r1
    14cc:	00000000 	andeq	r0, r0, r0
    14d0:	d4000000 	strle	r0, [r0], #-0
    14d4:	f8000000 			; <UNDEFINED> instruction: 0xf8000000
    14d8:	01000000 	mrseq	r0, (UNDEF: 0)
    14dc:	00f85000 	rscseq	r5, r8, r0
    14e0:	010c0000 	mrseq	r0, (UNDEF: 12)
    14e4:	00040000 	andeq	r0, r4, r0
    14e8:	9f5001f3 	svcls	0x005001f3
	...
    14f4:	000000e0 	andeq	r0, r0, r0, ror #1
    14f8:	000000e8 	andeq	r0, r0, r8, ror #1
    14fc:	9f300002 	svcls	0x00300002
    1500:	000000e8 	andeq	r0, r0, r8, ror #1
    1504:	000000e8 	andeq	r0, r0, r8, ror #1
    1508:	e8520001 	ldmda	r2, {r0}^
    150c:	f0000000 			; <UNDEFINED> instruction: 0xf0000000
    1510:	02000000 	andeq	r0, r0, #0
    1514:	f09f3000 			; <UNDEFINED> instruction: 0xf09f3000
    1518:	03000000 	movweq	r0, #0
    151c:	01000001 	tsteq	r0, r1
    1520:	00005200 	andeq	r5, r0, r0, lsl #4
    1524:	00000000 	andeq	r0, r0, r0
    1528:	00e00000 	rsceq	r0, r0, r0
    152c:	00f40000 	rscseq	r0, r4, r0
    1530:	00020000 	andeq	r0, r2, r0
    1534:	00f49f30 	rscseq	r9, r4, r0, lsr pc
    1538:	01000000 	mrseq	r0, (UNDEF: 0)
    153c:	00050000 	andeq	r0, r5, r0
    1540:	24007331 	strcs	r7, [r0], #-817	; 0x331
    1544:	0001009f 	muleq	r1, pc, r0	; <UNPREDICTABLE>
    1548:	00010300 	andeq	r0, r1, r0, lsl #6
    154c:	51000100 	mrspl	r0, (UNDEF: 16)
    1550:	00000103 	andeq	r0, r0, r3, lsl #2
    1554:	0000010c 	andeq	r0, r0, ip, lsl #2
    1558:	f3310008 	vhadd.u<illegal width 64>	d0, d1, d8
    155c:	1a4f5001 	bne	13d5568 <__bss_end__+0x13cb0c8>
    1560:	00009f24 	andeq	r9, r0, r4, lsr #30
    1564:	00000000 	andeq	r0, r0, r0
    1568:	010c0000 	mrseq	r0, (UNDEF: 12)
    156c:	01300000 	teqeq	r0, r0
    1570:	00010000 	andeq	r0, r1, r0
    1574:	00013050 	andeq	r3, r1, r0, asr r0
    1578:	00014400 	andeq	r4, r1, r0, lsl #8
    157c:	f3000400 	vshl.u8	d0, d0, d0
    1580:	009f5001 	addseq	r5, pc, r1
    1584:	00000000 	andeq	r0, r0, r0
    1588:	18000000 	stmdane	r0, {}	; <UNPREDICTABLE>
    158c:	20000001 	andcs	r0, r0, r1
    1590:	02000001 	andeq	r0, r0, #1
    1594:	209f3000 	addscs	r3, pc, r0
    1598:	20000001 	andcs	r0, r0, r1
    159c:	01000001 	tsteq	r0, r1
    15a0:	01205200 	teqeq	r0, r0, lsl #4
    15a4:	01280000 	teqeq	r8, r0
    15a8:	00020000 	andeq	r0, r2, r0
    15ac:	01289f30 	teqeq	r8, r0, lsr pc
    15b0:	013b0000 	teqeq	fp, r0
    15b4:	00010000 	andeq	r0, r1, r0
    15b8:	00000052 	andeq	r0, r0, r2, asr r0
    15bc:	00000000 	andeq	r0, r0, r0
    15c0:	00011800 	andeq	r1, r1, r0, lsl #16
    15c4:	00012c00 	andeq	r2, r1, r0, lsl #24
    15c8:	30000200 	andcc	r0, r0, r0, lsl #4
    15cc:	00012c9f 	muleq	r1, pc, ip	; <UNPREDICTABLE>
    15d0:	00013800 	andeq	r3, r1, r0, lsl #16
    15d4:	31000500 	tstcc	r0, r0, lsl #10
    15d8:	9f240073 	svcls	0x00240073
    15dc:	00000138 	andeq	r0, r0, r8, lsr r1
    15e0:	0000013b 	andeq	r0, r0, fp, lsr r1
    15e4:	3b510001 	blcc	14415f0 <__bss_end__+0x1437150>
    15e8:	44000001 	strmi	r0, [r0], #-1
    15ec:	08000001 	stmdaeq	r0, {r0}
    15f0:	01f33100 	mvnseq	r3, r0, lsl #2
    15f4:	241a4f50 	ldrcs	r4, [sl], #-3920	; 0xf50
    15f8:	0000009f 	muleq	r0, pc, r0	; <UNPREDICTABLE>
    15fc:	00000000 	andeq	r0, r0, r0
    1600:	00014400 	andeq	r4, r1, r0, lsl #8
    1604:	0001d400 	andeq	sp, r1, r0, lsl #8
    1608:	50000100 	andpl	r0, r0, r0, lsl #2
    160c:	000001d4 	ldrdeq	r0, [r0], -r4
    1610:	00000210 	andeq	r0, r0, r0, lsl r2
    1614:	00540001 	subseq	r0, r4, r1
    1618:	00000000 	andeq	r0, r0, r0
    161c:	8c000000 	stchi	0, cr0, [r0], {-0}
    1620:	90000001 	andls	r0, r0, r1
    1624:	01000001 	tsteq	r0, r1
    1628:	01985500 	orrseq	r5, r8, r0, lsl #10
    162c:	019c0000 	orrseq	r0, ip, r0
    1630:	00010000 	andeq	r0, r1, r0
    1634:	0001a455 	andeq	sl, r1, r5, asr r4
    1638:	0001a800 	andeq	sl, r1, r0, lsl #16
    163c:	55000100 	strpl	r0, [r0, #-256]	; 0x100
    1640:	000001b0 			; <UNDEFINED> instruction: 0x000001b0
    1644:	000001b4 			; <UNDEFINED> instruction: 0x000001b4
    1648:	bc550001 	mrrclt	0, 0, r0, r5, cr1
    164c:	c0000001 	andgt	r0, r0, r1
    1650:	01000001 	tsteq	r0, r1
    1654:	01c85500 	biceq	r5, r8, r0, lsl #10
    1658:	01cc0000 	biceq	r0, ip, r0
    165c:	00010000 	andeq	r0, r1, r0
    1660:	0001d055 	andeq	sp, r1, r5, asr r0
    1664:	00021000 	andeq	r1, r2, r0
    1668:	55000100 	strpl	r0, [r0, #-256]	; 0x100
	...
    1674:	00000160 	andeq	r0, r0, r0, ror #2
    1678:	00000188 	andeq	r0, r0, r8, lsl #3
    167c:	88530001 	ldmdahi	r3, {r0}^
    1680:	90000001 	andls	r0, r0, r1
    1684:	1c000001 	stcne	0, cr0, [r0], {1}
    1688:	f7007000 			; <UNDEFINED> instruction: 0xf7007000
    168c:	f425f72c 	vld1.8	{d15}, [r5 :128], ip
    1690:	cccd0825 	stclgt	8, cr0, [sp], {37}	; 0x25
    1694:	0000cccc 	andeq	ip, r0, ip, asr #25
    1698:	081e0000 	ldmdaeq	lr, {}	; <UNPREDICTABLE>
    169c:	2525f720 	strcs	pc, [r5, #-1824]!	; 0x720
    16a0:	25332cf7 	ldrcs	r2, [r3, #-3319]!	; 0xcf7
    16a4:	0001909f 	muleq	r1, pc, r0	; <UNPREDICTABLE>
    16a8:	00019400 	andeq	r9, r1, r0, lsl #8
    16ac:	53000100 	movwpl	r0, #256	; 0x100
    16b0:	00000194 	muleq	r0, r4, r1
    16b4:	0000019c 	muleq	r0, ip, r1
    16b8:	0070001c 	rsbseq	r0, r0, ip, lsl r0
    16bc:	25f72cf7 	ldrbcs	r2, [r7, #3319]!	; 0xcf7
    16c0:	cd0825f4 	cfstr32gt	mvfx2, [r8, #-976]	; 0xfffffc30
    16c4:	00cccccc 	sbceq	ip, ip, ip, asr #25
    16c8:	1e000000 	cdpne	0, 0, cr0, cr0, cr0, {0}
    16cc:	25f72008 	ldrbcs	r2, [r7, #8]!
    16d0:	332cf725 	msrcc	CPSR_fs, #9699328	; 0x940000
    16d4:	019c9f25 	orrseq	r9, ip, r5, lsr #30
    16d8:	01a00000 	moveq	r0, r0
    16dc:	00010000 	andeq	r0, r1, r0
    16e0:	0001a053 	andeq	sl, r1, r3, asr r0
    16e4:	0001a800 	andeq	sl, r1, r0, lsl #16
    16e8:	70001c00 	andvc	r1, r0, r0, lsl #24
    16ec:	f72cf700 			; <UNDEFINED> instruction: 0xf72cf700
    16f0:	0825f425 	stmdaeq	r5!, {r0, r2, r5, sl, ip, sp, lr, pc}
    16f4:	cccccccd 	stclgt	12, cr12, [ip], {205}	; 0xcd
    16f8:	00000000 	andeq	r0, r0, r0
    16fc:	f720081e 			; <UNDEFINED> instruction: 0xf720081e
    1700:	2cf72525 	cfldr64cs	mvdx2, [r7], #148	; 0x94
    1704:	a89f2533 	ldmge	pc, {r0, r1, r4, r5, r8, sl, sp}	; <UNPREDICTABLE>
    1708:	ac000001 	stcge	0, cr0, [r0], {1}
    170c:	01000001 	tsteq	r0, r1
    1710:	01ac5300 			; <UNDEFINED> instruction: 0x01ac5300
    1714:	01b40000 			; <UNDEFINED> instruction: 0x01b40000
    1718:	001c0000 	andseq	r0, ip, r0
    171c:	2cf70070 	ldclcs	0, cr0, [r7], #448	; 0x1c0
    1720:	25f425f7 	ldrbcs	r2, [r4, #1527]!	; 0x5f7
    1724:	cccccd08 	stclgt	13, cr12, [ip], {8}
    1728:	000000cc 	andeq	r0, r0, ip, asr #1
    172c:	20081e00 	andcs	r1, r8, r0, lsl #28
    1730:	f72525f7 			; <UNDEFINED> instruction: 0xf72525f7
    1734:	9f25332c 	svcls	0x0025332c
    1738:	000001b4 			; <UNDEFINED> instruction: 0x000001b4
    173c:	000001b8 			; <UNDEFINED> instruction: 0x000001b8
    1740:	b8530001 	ldmdalt	r3, {r0}^
    1744:	c0000001 	andgt	r0, r0, r1
    1748:	1c000001 	stcne	0, cr0, [r0], {1}
    174c:	f7007000 			; <UNDEFINED> instruction: 0xf7007000
    1750:	f425f72c 	vld1.8	{d15}, [r5 :128], ip
    1754:	cccd0825 	stclgt	8, cr0, [sp], {37}	; 0x25
    1758:	0000cccc 	andeq	ip, r0, ip, asr #25
    175c:	081e0000 	ldmdaeq	lr, {}	; <UNPREDICTABLE>
    1760:	2525f720 	strcs	pc, [r5, #-1824]!	; 0x720
    1764:	25332cf7 	ldrcs	r2, [r3, #-3319]!	; 0xcf7
    1768:	0001c09f 	muleq	r1, pc, r0	; <UNPREDICTABLE>
    176c:	0001c400 	andeq	ip, r1, r0, lsl #8
    1770:	53000100 	movwpl	r0, #256	; 0x100
    1774:	000001c4 	andeq	r0, r0, r4, asr #3
    1778:	000001cc 	andeq	r0, r0, ip, asr #3
    177c:	0070001c 	rsbseq	r0, r0, ip, lsl r0
    1780:	25f72cf7 	ldrbcs	r2, [r7, #3319]!	; 0xcf7
    1784:	cd0825f4 	cfstr32gt	mvfx2, [r8, #-976]	; 0xfffffc30
    1788:	00cccccc 	sbceq	ip, ip, ip, asr #25
    178c:	1e000000 	cdpne	0, 0, cr0, cr0, cr0, {0}
    1790:	25f72008 	ldrbcs	r2, [r7, #8]!
    1794:	332cf725 	msrcc	CPSR_fs, #9699328	; 0x940000
    1798:	01cc9f25 	biceq	r9, ip, r5, lsr #30
    179c:	01d00000 	bicseq	r0, r0, r0
    17a0:	00010000 	andeq	r0, r1, r0
    17a4:	0001d053 	andeq	sp, r1, r3, asr r0
    17a8:	0001d400 	andeq	sp, r1, r0, lsl #8
    17ac:	70001c00 	andvc	r1, r0, r0, lsl #24
    17b0:	f72cf700 			; <UNDEFINED> instruction: 0xf72cf700
    17b4:	0825f425 	stmdaeq	r5!, {r0, r2, r5, sl, ip, sp, lr, pc}
    17b8:	cccccccd 	stclgt	12, cr12, [ip], {205}	; 0xcd
    17bc:	00000000 	andeq	r0, r0, r0
    17c0:	f720081e 			; <UNDEFINED> instruction: 0xf720081e
    17c4:	2cf72525 	cfldr64cs	mvdx2, [r7], #148	; 0x94
    17c8:	d49f2533 	ldrle	r2, [pc], #1331	; 17d0 <_start-0x6830>
    17cc:	dc000001 	stcle	0, cr0, [r0], {1}
    17d0:	1c000001 	stcne	0, cr0, [r0], {1}
    17d4:	f7007400 			; <UNDEFINED> instruction: 0xf7007400
    17d8:	f425f72c 	vld1.8	{d15}, [r5 :128], ip
    17dc:	cccd0825 	stclgt	8, cr0, [sp], {37}	; 0x25
    17e0:	0000cccc 	andeq	ip, r0, ip, asr #25
    17e4:	081e0000 	ldmdaeq	lr, {}	; <UNPREDICTABLE>
    17e8:	2525f720 	strcs	pc, [r5, #-1824]!	; 0x720
    17ec:	25332cf7 	ldrcs	r2, [r3, #-3319]!	; 0xcf7
    17f0:	0001dc9f 	muleq	r1, pc, ip	; <UNPREDICTABLE>
    17f4:	0001e000 	andeq	lr, r1, r0
    17f8:	74001700 	strvc	r1, [r0], #-1792	; 0x700
    17fc:	f72cf700 			; <UNDEFINED> instruction: 0xf72cf700
    1800:	f7007125 			; <UNDEFINED> instruction: 0xf7007125
    1804:	1e25f72c 	cdpne	7, 2, cr15, cr5, cr12, {1}
    1808:	25f72008 	ldrbcs	r2, [r7, #8]!
    180c:	332cf725 	msrcc	CPSR_fs, #9699328	; 0x940000
    1810:	01e09f25 	mvneq	r9, r5, lsr #30
    1814:	02100000 	andseq	r0, r0, #0
    1818:	001c0000 	andseq	r0, ip, r0
    181c:	2cf70074 	ldclcs	0, cr0, [r7], #464	; 0x1d0
    1820:	25f425f7 	ldrbcs	r2, [r4, #1527]!	; 0x5f7
    1824:	cccccd08 	stclgt	13, cr12, [ip], {8}
    1828:	000000cc 	andeq	r0, r0, ip, asr #1
    182c:	20081e00 	andcs	r1, r8, r0, lsl #28
    1830:	f72525f7 			; <UNDEFINED> instruction: 0xf72525f7
    1834:	9f25332c 	svcls	0x0025332c
	...
    1840:	000001d8 	ldrdeq	r0, [r0], -r8
    1844:	000001fc 	strdeq	r0, [r0], -ip
    1848:	fc500001 	mrrc2	0, 0, r0, r0, cr1	; <UNPREDICTABLE>
    184c:	03000001 	movweq	r0, #1
    1850:	01000002 	tsteq	r0, r2
    1854:	00005100 	andeq	r5, r0, r0, lsl #2
    1858:	00000000 	andeq	r0, r0, r0
    185c:	02100000 	andseq	r0, r0, #0
    1860:	022c0000 	eoreq	r0, ip, #0
    1864:	00010000 	andeq	r0, r1, r0
    1868:	00022c50 	andeq	r2, r2, r0, asr ip
    186c:	00023400 	andeq	r3, r2, r0, lsl #8
    1870:	54000100 	strpl	r0, [r0], #-256	; 0x100
    1874:	00000234 	andeq	r0, r0, r4, lsr r2
    1878:	0000023c 	andeq	r0, r0, ip, lsr r2
    187c:	3c500001 	mrrccc	0, 0, r0, r0, cr1	; <UNPREDICTABLE>
    1880:	44000002 	strmi	r0, [r0], #-2
    1884:	01000002 	tsteq	r0, r2
    1888:	02445400 	subeq	r5, r4, #0, 8
    188c:	02500000 	subseq	r0, r0, #0
    1890:	00040000 	andeq	r0, r4, r0
    1894:	9f5001f3 	svcls	0x005001f3
    1898:	00000250 	andeq	r0, r0, r0, asr r2
    189c:	00000254 	andeq	r0, r0, r4, asr r2
    18a0:	54500001 	ldrbpl	r0, [r0], #-1
    18a4:	5c000002 	stcpl	0, cr0, [r0], {2}
    18a8:	01000002 	tsteq	r0, r2
    18ac:	00005400 	andeq	r5, r0, r0, lsl #8
    18b0:	00000000 	andeq	r0, r0, r0
    18b4:	02200000 	eoreq	r0, r0, #0
    18b8:	02300000 	eorseq	r0, r0, #0
    18bc:	00020000 	andeq	r0, r2, r0
    18c0:	02309f30 	eorseq	r9, r0, #48, 30	; 0xc0
    18c4:	02340000 	eorseq	r0, r4, #0
    18c8:	00010000 	andeq	r0, r1, r0
    18cc:	00023450 	andeq	r3, r2, r0, asr r4
    18d0:	00024000 	andeq	r4, r2, r0
    18d4:	30000200 	andcc	r0, r0, r0, lsl #4
    18d8:	0002409f 	muleq	r2, pc, r0	; <UNPREDICTABLE>
    18dc:	00024c00 	andeq	r4, r2, r0, lsl #24
    18e0:	50000100 	andpl	r0, r0, r0, lsl #2
	...
    18ec:	0000025c 	andeq	r0, r0, ip, asr r2
    18f0:	00000273 	andeq	r0, r0, r3, ror r2
    18f4:	73500001 	cmpvc	r0, #1
    18f8:	78000002 	stmdavc	r0, {r1}
    18fc:	04000002 	streq	r0, [r0], #-2
    1900:	5001f300 	andpl	pc, r1, r0, lsl #6
    1904:	0002789f 	muleq	r2, pc, r8	; <UNPREDICTABLE>
    1908:	00027b00 	andeq	r7, r2, r0, lsl #22
    190c:	50000100 	andpl	r0, r0, r0, lsl #2
    1910:	0000027b 	andeq	r0, r0, fp, ror r2
    1914:	00000280 	andeq	r0, r0, r0, lsl #5
    1918:	01f30004 	mvnseq	r0, r4
    191c:	00009f50 	andeq	r9, r0, r0, asr pc
    1920:	00000000 	andeq	r0, r0, r0
    1924:	025c0000 	subseq	r0, ip, #0
    1928:	02730000 	rsbseq	r0, r3, #0
    192c:	00010000 	andeq	r0, r1, r0
    1930:	00027351 	andeq	r7, r2, r1, asr r3
    1934:	00027800 	andeq	r7, r2, r0, lsl #16
    1938:	f3000400 	vshl.u8	d0, d0, d0
    193c:	789f5101 	ldmvc	pc, {r0, r8, ip, lr}	; <UNPREDICTABLE>
    1940:	7b000002 	blvc	1950 <_start-0x66b0>
    1944:	01000002 	tsteq	r0, r2
    1948:	027b5100 	rsbseq	r5, fp, #0, 2
    194c:	02800000 	addeq	r0, r0, #0
    1950:	00040000 	andeq	r0, r4, r0
    1954:	9f5101f3 	svcls	0x005101f3
	...
    1960:	00000280 	andeq	r0, r0, r0, lsl #5
    1964:	00000318 	andeq	r0, r0, r8, lsl r3
    1968:	18500001 	ldmdane	r0, {r0}^
    196c:	58000003 	stmdapl	r0, {r0, r1}
    1970:	01000003 	tsteq	r0, r3
    1974:	00005400 	andeq	r5, r0, r0, lsl #8
    1978:	00000000 	andeq	r0, r0, r0
    197c:	02800000 	addeq	r0, r0, #0
    1980:	031b0000 	tsteq	fp, #0
    1984:	00010000 	andeq	r0, r1, r0
    1988:	00031b51 	andeq	r1, r3, r1, asr fp
    198c:	00035800 	andeq	r5, r3, r0, lsl #16
    1990:	f3000400 	vshl.u8	d0, d0, d0
    1994:	009f5101 	addseq	r5, pc, r1, lsl #2
    1998:	00000000 	andeq	r0, r0, r0
    199c:	d0000000 	andle	r0, r0, r0
    19a0:	d4000002 	strle	r0, [r0], #-2
    19a4:	01000002 	tsteq	r0, r2
    19a8:	02dc5600 	sbcseq	r5, ip, #0, 12
    19ac:	02e00000 	rsceq	r0, r0, #0
    19b0:	00010000 	andeq	r0, r1, r0
    19b4:	0002e856 	andeq	lr, r2, r6, asr r8
    19b8:	0002ec00 	andeq	lr, r2, r0, lsl #24
    19bc:	56000100 	strpl	r0, [r0], -r0, lsl #2
    19c0:	000002f4 	strdeq	r0, [r0], -r4
    19c4:	000002f8 	strdeq	r0, [r0], -r8
    19c8:	00560001 	subseq	r0, r6, r1
    19cc:	04000003 	streq	r0, [r0], #-3
    19d0:	01000003 	tsteq	r0, r3
    19d4:	030c5600 	movweq	r5, #50688	; 0xc600
    19d8:	03100000 	tsteq	r0, #0
    19dc:	00010000 	andeq	r0, r1, r0
    19e0:	00031456 	andeq	r1, r3, r6, asr r4
    19e4:	00035800 	andeq	r5, r3, r0, lsl #16
    19e8:	56000100 	strpl	r0, [r0], -r0, lsl #2
	...
    19f4:	000002a4 	andeq	r0, r0, r4, lsr #5
    19f8:	000002cc 	andeq	r0, r0, ip, asr #5
    19fc:	cc530001 	mrrcgt	0, 0, r0, r3, cr1
    1a00:	d4000002 	strle	r0, [r0], #-2
    1a04:	1c000002 	stcne	0, cr0, [r0], {2}
    1a08:	f7007000 			; <UNDEFINED> instruction: 0xf7007000
    1a0c:	f425f72c 	vld1.8	{d15}, [r5 :128], ip
    1a10:	cccd0825 	stclgt	8, cr0, [sp], {37}	; 0x25
    1a14:	0000cccc 	andeq	ip, r0, ip, asr #25
    1a18:	081e0000 	ldmdaeq	lr, {}	; <UNPREDICTABLE>
    1a1c:	2525f720 	strcs	pc, [r5, #-1824]!	; 0x720
    1a20:	25332cf7 	ldrcs	r2, [r3, #-3319]!	; 0xcf7
    1a24:	0002d49f 	muleq	r2, pc, r4	; <UNPREDICTABLE>
    1a28:	0002d800 	andeq	sp, r2, r0, lsl #16
    1a2c:	53000100 	movwpl	r0, #256	; 0x100
    1a30:	000002d8 	ldrdeq	r0, [r0], -r8
    1a34:	000002e0 	andeq	r0, r0, r0, ror #5
    1a38:	0070001c 	rsbseq	r0, r0, ip, lsl r0
    1a3c:	25f72cf7 	ldrbcs	r2, [r7, #3319]!	; 0xcf7
    1a40:	cd0825f4 	cfstr32gt	mvfx2, [r8, #-976]	; 0xfffffc30
    1a44:	00cccccc 	sbceq	ip, ip, ip, asr #25
    1a48:	1e000000 	cdpne	0, 0, cr0, cr0, cr0, {0}
    1a4c:	25f72008 	ldrbcs	r2, [r7, #8]!
    1a50:	332cf725 	msrcc	CPSR_fs, #9699328	; 0x940000
    1a54:	02e09f25 	rsceq	r9, r0, #37, 30	; 0x94
    1a58:	02e40000 	rsceq	r0, r4, #0
    1a5c:	00010000 	andeq	r0, r1, r0
    1a60:	0002e453 	andeq	lr, r2, r3, asr r4
    1a64:	0002ec00 	andeq	lr, r2, r0, lsl #24
    1a68:	70001c00 	andvc	r1, r0, r0, lsl #24
    1a6c:	f72cf700 			; <UNDEFINED> instruction: 0xf72cf700
    1a70:	0825f425 	stmdaeq	r5!, {r0, r2, r5, sl, ip, sp, lr, pc}
    1a74:	cccccccd 	stclgt	12, cr12, [ip], {205}	; 0xcd
    1a78:	00000000 	andeq	r0, r0, r0
    1a7c:	f720081e 			; <UNDEFINED> instruction: 0xf720081e
    1a80:	2cf72525 	cfldr64cs	mvdx2, [r7], #148	; 0x94
    1a84:	ec9f2533 	cfldr32	mvfx2, [pc], {51}	; 0x33
    1a88:	f0000002 			; <UNDEFINED> instruction: 0xf0000002
    1a8c:	01000002 	tsteq	r0, r2
    1a90:	02f05300 	rscseq	r5, r0, #0, 6
    1a94:	02f80000 	rscseq	r0, r8, #0
    1a98:	001c0000 	andseq	r0, ip, r0
    1a9c:	2cf70070 	ldclcs	0, cr0, [r7], #448	; 0x1c0
    1aa0:	25f425f7 	ldrbcs	r2, [r4, #1527]!	; 0x5f7
    1aa4:	cccccd08 	stclgt	13, cr12, [ip], {8}
    1aa8:	000000cc 	andeq	r0, r0, ip, asr #1
    1aac:	20081e00 	andcs	r1, r8, r0, lsl #28
    1ab0:	f72525f7 			; <UNDEFINED> instruction: 0xf72525f7
    1ab4:	9f25332c 	svcls	0x0025332c
    1ab8:	000002f8 	strdeq	r0, [r0], -r8
    1abc:	000002fc 	strdeq	r0, [r0], -ip
    1ac0:	fc530001 	mrrc2	0, 0, r0, r3, cr1
    1ac4:	04000002 	streq	r0, [r0], #-2
    1ac8:	1c000003 	stcne	0, cr0, [r0], {3}
    1acc:	f7007000 			; <UNDEFINED> instruction: 0xf7007000
    1ad0:	f425f72c 	vld1.8	{d15}, [r5 :128], ip
    1ad4:	cccd0825 	stclgt	8, cr0, [sp], {37}	; 0x25
    1ad8:	0000cccc 	andeq	ip, r0, ip, asr #25
    1adc:	081e0000 	ldmdaeq	lr, {}	; <UNPREDICTABLE>
    1ae0:	2525f720 	strcs	pc, [r5, #-1824]!	; 0x720
    1ae4:	25332cf7 	ldrcs	r2, [r3, #-3319]!	; 0xcf7
    1ae8:	0003049f 	muleq	r3, pc, r4	; <UNPREDICTABLE>
    1aec:	00030800 	andeq	r0, r3, r0, lsl #16
    1af0:	53000100 	movwpl	r0, #256	; 0x100
    1af4:	00000308 	andeq	r0, r0, r8, lsl #6
    1af8:	00000310 	andeq	r0, r0, r0, lsl r3
    1afc:	0070001c 	rsbseq	r0, r0, ip, lsl r0
    1b00:	25f72cf7 	ldrbcs	r2, [r7, #3319]!	; 0xcf7
    1b04:	cd0825f4 	cfstr32gt	mvfx2, [r8, #-976]	; 0xfffffc30
    1b08:	00cccccc 	sbceq	ip, ip, ip, asr #25
    1b0c:	1e000000 	cdpne	0, 0, cr0, cr0, cr0, {0}
    1b10:	25f72008 	ldrbcs	r2, [r7, #8]!
    1b14:	332cf725 	msrcc	CPSR_fs, #9699328	; 0x940000
    1b18:	03109f25 	tsteq	r0, #37, 30	; 0x94
    1b1c:	03140000 	tsteq	r4, #0
    1b20:	00010000 	andeq	r0, r1, r0
    1b24:	00031453 	andeq	r1, r3, r3, asr r4
    1b28:	00031800 	andeq	r1, r3, r0, lsl #16
    1b2c:	70001c00 	andvc	r1, r0, r0, lsl #24
    1b30:	f72cf700 			; <UNDEFINED> instruction: 0xf72cf700
    1b34:	0825f425 	stmdaeq	r5!, {r0, r2, r5, sl, ip, sp, lr, pc}
    1b38:	cccccccd 	stclgt	12, cr12, [ip], {205}	; 0xcd
    1b3c:	00000000 	andeq	r0, r0, r0
    1b40:	f720081e 			; <UNDEFINED> instruction: 0xf720081e
    1b44:	2cf72525 	cfldr64cs	mvdx2, [r7], #148	; 0x94
    1b48:	189f2533 	ldmne	pc, {r0, r1, r4, r5, r8, sl, sp}	; <UNPREDICTABLE>
    1b4c:	20000003 	andcs	r0, r0, r3
    1b50:	1c000003 	stcne	0, cr0, [r0], {3}
    1b54:	f7007400 			; <UNDEFINED> instruction: 0xf7007400
    1b58:	f425f72c 	vld1.8	{d15}, [r5 :128], ip
    1b5c:	cccd0825 	stclgt	8, cr0, [sp], {37}	; 0x25
    1b60:	0000cccc 	andeq	ip, r0, ip, asr #25
    1b64:	081e0000 	ldmdaeq	lr, {}	; <UNPREDICTABLE>
    1b68:	2525f720 	strcs	pc, [r5, #-1824]!	; 0x720
    1b6c:	25332cf7 	ldrcs	r2, [r3, #-3319]!	; 0xcf7
    1b70:	0003209f 	muleq	r3, pc, r0	; <UNPREDICTABLE>
    1b74:	00032400 	andeq	r2, r3, r0, lsl #8
    1b78:	74001700 	strvc	r1, [r0], #-1792	; 0x700
    1b7c:	f72cf700 			; <UNDEFINED> instruction: 0xf72cf700
    1b80:	f7007325 			; <UNDEFINED> instruction: 0xf7007325
    1b84:	1e25f72c 	cdpne	7, 2, cr15, cr5, cr12, {1}
    1b88:	25f72008 	ldrbcs	r2, [r7, #8]!
    1b8c:	332cf725 	msrcc	CPSR_fs, #9699328	; 0x940000
    1b90:	03249f25 	teqeq	r4, #37, 30	; 0x94
    1b94:	03580000 	cmpeq	r8, #0
    1b98:	001c0000 	andseq	r0, ip, r0
    1b9c:	2cf70074 	ldclcs	0, cr0, [r7], #464	; 0x1d0
    1ba0:	25f425f7 	ldrbcs	r2, [r4, #1527]!	; 0x5f7
    1ba4:	cccccd08 	stclgt	13, cr12, [ip], {8}
    1ba8:	000000cc 	andeq	r0, r0, ip, asr #1
    1bac:	20081e00 	andcs	r1, r8, r0, lsl #28
    1bb0:	f72525f7 			; <UNDEFINED> instruction: 0xf72525f7
    1bb4:	9f25332c 	svcls	0x0025332c
	...
    1bc0:	0000031c 	andeq	r0, r0, ip, lsl r3
    1bc4:	00000340 	andeq	r0, r0, r0, asr #6
    1bc8:	40500001 	subsmi	r0, r0, r1
    1bcc:	48000003 	stmdami	r0, {r0, r1}
    1bd0:	09000003 	stmdbeq	r0, {r0, r1}
    1bd4:	73007500 	movwvc	r7, #1280	; 0x500
    1bd8:	00712400 	rsbseq	r2, r1, r0, lsl #8
    1bdc:	03489f21 	movteq	r9, #36641	; 0x8f21
    1be0:	034b0000 	movteq	r0, #45056	; 0xb000
    1be4:	00010000 	andeq	r0, r1, r0
    1be8:	00000051 	andeq	r0, r0, r1, asr r0
    1bec:	00000000 	andeq	r0, r0, r0
    1bf0:	00035800 	andeq	r5, r3, r0, lsl #16
    1bf4:	00037c00 	andeq	r7, r3, r0, lsl #24
    1bf8:	50000100 	andpl	r0, r0, r0, lsl #2
    1bfc:	0000037c 	andeq	r0, r0, ip, ror r3
    1c00:	00000390 	muleq	r0, r0, r3
    1c04:	01f30004 	mvnseq	r0, r4
    1c08:	00009f50 	andeq	r9, r0, r0, asr pc
    1c0c:	00000000 	andeq	r0, r0, r0
    1c10:	03640000 	cmneq	r4, #0
    1c14:	036c0000 	cmneq	ip, #0
    1c18:	00020000 	andeq	r0, r2, r0
    1c1c:	036c9f30 	cmneq	ip, #48, 30	; 0xc0
    1c20:	036c0000 	cmneq	ip, #0
    1c24:	00010000 	andeq	r0, r1, r0
    1c28:	00036c52 	andeq	r6, r3, r2, asr ip
    1c2c:	00037400 	andeq	r7, r3, r0, lsl #8
    1c30:	30000200 	andcc	r0, r0, r0, lsl #4
    1c34:	0003749f 	muleq	r3, pc, r4	; <UNPREDICTABLE>
    1c38:	00038700 	andeq	r8, r3, r0, lsl #14
    1c3c:	52000100 	andpl	r0, r0, #0, 2
	...
    1c48:	00000364 	andeq	r0, r0, r4, ror #6
    1c4c:	00000378 	andeq	r0, r0, r8, ror r3
    1c50:	9f300002 	svcls	0x00300002
    1c54:	00000378 	andeq	r0, r0, r8, ror r3
    1c58:	00000384 	andeq	r0, r0, r4, lsl #7
    1c5c:	73310005 	teqvc	r1, #5
    1c60:	849f2400 	ldrhi	r2, [pc], #1024	; 1c68 <_start-0x6398>
    1c64:	87000003 	strhi	r0, [r0, -r3]
    1c68:	01000003 	tsteq	r0, r3
    1c6c:	03875100 	orreq	r5, r7, #0, 2
    1c70:	03900000 	orrseq	r0, r0, #0
    1c74:	00080000 	andeq	r0, r8, r0
    1c78:	5001f331 	andpl	pc, r1, r1, lsr r3	; <UNPREDICTABLE>
    1c7c:	9f241a4f 	svcls	0x00241a4f
	...
    1c88:	00000390 	muleq	r0, r0, r3
    1c8c:	0000039c 	muleq	r0, ip, r3
    1c90:	9c500001 	mrrcls	0, 0, r0, r0, cr1	; <UNPREDICTABLE>
    1c94:	bc000003 	stclt	0, cr0, [r0], {3}
    1c98:	04000003 	streq	r0, [r0], #-3
    1c9c:	5001f300 	andpl	pc, r1, r0, lsl #6
    1ca0:	0000009f 	muleq	r0, pc, r0	; <UNPREDICTABLE>
    1ca4:	00000000 	andeq	r0, r0, r0
    1ca8:	0003bc00 	andeq	fp, r3, r0, lsl #24
    1cac:	0003cf00 	andeq	ip, r3, r0, lsl #30
    1cb0:	50000100 	andpl	r0, r0, r0, lsl #2
    1cb4:	000003cf 	andeq	r0, r0, pc, asr #7
    1cb8:	00000408 	andeq	r0, r0, r8, lsl #8
    1cbc:	08540001 	ldmdaeq	r4, {r0}^
    1cc0:	40000004 	andmi	r0, r0, r4
    1cc4:	04000004 	streq	r0, [r0], #-4
    1cc8:	5001f300 	andpl	pc, r1, r0, lsl #6
    1ccc:	0000009f 	muleq	r0, pc, r0	; <UNPREDICTABLE>
    1cd0:	00000000 	andeq	r0, r0, r0
    1cd4:	00042800 	andeq	r2, r4, r0, lsl #16
    1cd8:	00042c00 	andeq	r2, r4, r0, lsl #24
    1cdc:	50000100 	andpl	r0, r0, r0, lsl #2
    1ce0:	0000042c 	andeq	r0, r0, ip, lsr #8
    1ce4:	00000433 	andeq	r0, r0, r3, lsr r4
    1ce8:	00510001 	subseq	r0, r1, r1
    1cec:	00000000 	andeq	r0, r0, r0
    1cf0:	e4000000 	str	r0, [r0], #-0
    1cf4:	ec000003 	stc	0, cr0, [r0], {3}
    1cf8:	01000003 	tsteq	r0, r3
    1cfc:	03ec5000 	mvneq	r5, #0
    1d00:	03f30000 	mvnseq	r0, #0
    1d04:	00010000 	andeq	r0, r1, r0
    1d08:	00000051 	andeq	r0, r0, r1, asr r0
    1d0c:	00000000 	andeq	r0, r0, r0
    1d10:	00040400 	andeq	r0, r4, r0, lsl #8
    1d14:	00041000 	andeq	r1, r4, r0
    1d18:	50000100 	andpl	r0, r0, r0, lsl #2
    1d1c:	00000410 	andeq	r0, r0, r0, lsl r4
    1d20:	00000417 	andeq	r0, r0, r7, lsl r4
    1d24:	00510001 	subseq	r0, r1, r1
    1d28:	00000000 	andeq	r0, r0, r0
    1d2c:	40000000 	andmi	r0, r0, r0
    1d30:	53000004 	movwpl	r0, #4
    1d34:	01000004 	tsteq	r0, r4
    1d38:	04535000 	ldrbeq	r5, [r3], #-0
    1d3c:	048c0000 	streq	r0, [ip], #0
    1d40:	00010000 	andeq	r0, r1, r0
    1d44:	00048c54 	andeq	r8, r4, r4, asr ip
    1d48:	0004c400 	andeq	ip, r4, r0, lsl #8
    1d4c:	f3000400 	vshl.u8	d0, d0, d0
    1d50:	009f5001 	addseq	r5, pc, r1
    1d54:	00000000 	andeq	r0, r0, r0
    1d58:	ac000000 	stcge	0, cr0, [r0], {-0}
    1d5c:	b0000004 	andlt	r0, r0, r4
    1d60:	01000004 	tsteq	r0, r4
    1d64:	04b05000 	ldrteq	r5, [r0], #0
    1d68:	04b70000 	ldrteq	r0, [r7], #0
    1d6c:	00010000 	andeq	r0, r1, r0
    1d70:	00000051 	andeq	r0, r0, r1, asr r0
    1d74:	00000000 	andeq	r0, r0, r0
    1d78:	00046800 	andeq	r6, r4, r0, lsl #16
    1d7c:	00047000 	andeq	r7, r4, r0
    1d80:	50000100 	andpl	r0, r0, r0, lsl #2
    1d84:	00000470 	andeq	r0, r0, r0, ror r4
    1d88:	00000477 	andeq	r0, r0, r7, ror r4
    1d8c:	00510001 	subseq	r0, r1, r1
    1d90:	00000000 	andeq	r0, r0, r0
    1d94:	88000000 	stmdahi	r0, {}	; <UNPREDICTABLE>
    1d98:	94000004 	strls	r0, [r0], #-4
    1d9c:	01000004 	tsteq	r0, r4
    1da0:	04945000 	ldreq	r5, [r4], #0
    1da4:	049b0000 	ldreq	r0, [fp], #0
    1da8:	00010000 	andeq	r0, r1, r0
    1dac:	00000051 	andeq	r0, r0, r1, asr r0
    1db0:	00000000 	andeq	r0, r0, r0
    1db4:	0004c400 	andeq	ip, r4, r0, lsl #8
    1db8:	0004d700 	andeq	sp, r4, r0, lsl #14
    1dbc:	50000100 	andpl	r0, r0, r0, lsl #2
    1dc0:	000004d7 	ldrdeq	r0, [r0], -r7
    1dc4:	00000518 	andeq	r0, r0, r8, lsl r5
    1dc8:	18540001 	ldmdane	r4, {r0}^
    1dcc:	3c000005 	stccc	0, cr0, [r0], {5}
    1dd0:	04000005 	streq	r0, [r0], #-5
    1dd4:	5001f300 	andpl	pc, r1, r0, lsl #6
    1dd8:	00053c9f 	muleq	r5, pc, ip	; <UNPREDICTABLE>
    1ddc:	00054000 	andeq	r4, r5, r0
    1de0:	50000100 	andpl	r0, r0, r0, lsl #2
    1de4:	00000540 	andeq	r0, r0, r0, asr #10
    1de8:	00000548 	andeq	r0, r0, r8, asr #10
    1dec:	00540001 	subseq	r0, r4, r1
    1df0:	00000000 	andeq	r0, r0, r0
    1df4:	ec000000 	stc	0, cr0, [r0], {-0}
    1df8:	fb000004 	blx	1e12 <_start-0x61ee>
    1dfc:	08000004 	stmdaeq	r0, {r2}
    1e00:	00743100 	rsbseq	r3, r4, r0, lsl #2
    1e04:	1a007024 	bne	1de9c <__bss_end__+0x139fc>
    1e08:	0000009f 	muleq	r0, pc, r0	; <UNPREDICTABLE>
    1e0c:	00000000 	andeq	r0, r0, r0
    1e10:	00051800 	andeq	r1, r5, r0, lsl #16
    1e14:	00053000 	andeq	r3, r5, r0
    1e18:	54000100 	strpl	r0, [r0], #-256	; 0x100
	...
    1e24:	00000548 	andeq	r0, r0, r8, asr #10
    1e28:	0000055b 	andeq	r0, r0, fp, asr r5
    1e2c:	5b500001 	blpl	1401e38 <__bss_end__+0x13f7998>
    1e30:	80000005 	andhi	r0, r0, r5
    1e34:	01000005 	tsteq	r0, r5
    1e38:	05805400 	streq	r5, [r0, #1024]	; 0x400
    1e3c:	05a00000 	streq	r0, [r0, #0]!
    1e40:	00040000 	andeq	r0, r4, r0
    1e44:	9f5001f3 	svcls	0x005001f3
	...
    1e54:	00000018 	andeq	r0, r0, r8, lsl r0
    1e58:	18500001 	ldmdane	r0, {r0}^
    1e5c:	54000000 	strpl	r0, [r0], #-0
    1e60:	04000001 	streq	r0, [r0], #-1
    1e64:	5001f300 	andpl	pc, r1, r0, lsl #6
    1e68:	0000009f 	muleq	r0, pc, r0	; <UNPREDICTABLE>
	...
    1e74:	00001c00 	andeq	r1, r0, r0, lsl #24
    1e78:	51000100 	mrspl	r0, (UNDEF: 16)
    1e7c:	0000001c 	andeq	r0, r0, ip, lsl r0
    1e80:	00000154 	andeq	r0, r0, r4, asr r1
    1e84:	01f30004 	mvnseq	r0, r4
    1e88:	00009f51 	andeq	r9, r0, r1, asr pc
    1e8c:	00000000 	andeq	r0, r0, r0
    1e90:	00100000 	andseq	r0, r0, r0
    1e94:	01340000 	teqeq	r4, r0
    1e98:	00010000 	andeq	r0, r1, r0
    1e9c:	00000055 	andeq	r0, r0, r5, asr r0
    1ea0:	00000000 	andeq	r0, r0, r0
    1ea4:	00001000 	andeq	r1, r0, r0
    1ea8:	00003400 	andeq	r3, r0, r0, lsl #8
    1eac:	55000100 	strpl	r0, [r0, #-256]	; 0x100
    1eb0:	00000034 	andeq	r0, r0, r4, lsr r0
    1eb4:	00000134 	andeq	r0, r0, r4, lsr r1
    1eb8:	34580001 	ldrbcc	r0, [r8], #-1
    1ebc:	54000001 	strpl	r0, [r0], #-1
    1ec0:	01000001 	tsteq	r0, r1
    1ec4:	00005500 	andeq	r5, r0, r0, lsl #10
    1ec8:	00000000 	andeq	r0, r0, r0
    1ecc:	00140000 	andseq	r0, r4, r0
    1ed0:	01340000 	teqeq	r4, r0
    1ed4:	00010000 	andeq	r0, r1, r0
    1ed8:	00000055 	andeq	r0, r0, r5, asr r0
    1edc:	00000000 	andeq	r0, r0, r0
    1ee0:	00002000 	andeq	r2, r0, r0
    1ee4:	00013400 	andeq	r3, r1, r0, lsl #8
    1ee8:	55000100 	strpl	r0, [r0, #-256]	; 0x100
	...
    1ef4:	00000024 	andeq	r0, r0, r4, lsr #32
    1ef8:	00000028 	andeq	r0, r0, r8, lsr #32
    1efc:	00530001 	subseq	r0, r3, r1
    1f00:	00000000 	andeq	r0, r0, r0
    1f04:	34000000 	strcc	r0, [r0], #-0
    1f08:	54000000 	strpl	r0, [r0], #-0
    1f0c:	01000000 	mrseq	r0, (UNDEF: 0)
    1f10:	00545800 	subseq	r5, r4, r0, lsl #16
    1f14:	01340000 	teqeq	r4, r0
    1f18:	00050000 	andeq	r0, r5, r0
    1f1c:	24310075 	ldrtcs	r0, [r1], #-117	; 0x75
    1f20:	0000009f 	muleq	r0, pc, r0	; <UNPREDICTABLE>
    1f24:	00000000 	andeq	r0, r0, r0
    1f28:	00003400 	andeq	r3, r0, r0, lsl #8
    1f2c:	00003c00 	andeq	r3, r0, r0, lsl #24
    1f30:	77000500 	strvc	r0, [r0, -r0, lsl #10]
    1f34:	9f1a3100 	svcls	0x001a3100
    1f38:	0000003c 	andeq	r0, r0, ip, lsr r0
    1f3c:	0000003f 	andeq	r0, r0, pc, lsr r0
    1f40:	3f510001 	svccc	0x00510001
    1f44:	54000000 	strpl	r0, [r0], #-0
    1f48:	05000001 	streq	r0, [r0, #-1]
    1f4c:	31007700 	tstcc	r0, r0, lsl #14
    1f50:	00009f1a 	andeq	r9, r0, sl, lsl pc
    1f54:	00000000 	andeq	r0, r0, r0
    1f58:	00400000 	subeq	r0, r0, r0
    1f5c:	00540000 	subseq	r0, r4, r0
    1f60:	00010000 	andeq	r0, r1, r0
    1f64:	00005458 	andeq	r5, r0, r8, asr r4
    1f68:	00013400 	andeq	r3, r1, r0, lsl #8
    1f6c:	75000500 	strvc	r0, [r0, #-1280]	; 0x500
    1f70:	9f243100 	svcls	0x00243100
	...
    1f7c:	00000044 	andeq	r0, r0, r4, asr #32
    1f80:	00000048 	andeq	r0, r0, r8, asr #32
    1f84:	00530001 	subseq	r0, r3, r1
    1f88:	00000000 	andeq	r0, r0, r0
    1f8c:	54000000 	strpl	r0, [r0], #-0
    1f90:	74000000 	strvc	r0, [r0], #-0
    1f94:	01000000 	mrseq	r0, (UNDEF: 0)
    1f98:	00745800 	rsbseq	r5, r4, r0, lsl #16
    1f9c:	01340000 	teqeq	r4, r0
    1fa0:	00080000 	andeq	r0, r8, r0
    1fa4:	24310075 	ldrtcs	r0, [r1], #-117	; 0x75
    1fa8:	9f220075 	svcls	0x00220075
	...
    1fb4:	00000060 	andeq	r0, r0, r0, rrx
    1fb8:	00000074 	andeq	r0, r0, r4, ror r0
    1fbc:	74580001 	ldrbvc	r0, [r8], #-1
    1fc0:	34000000 	strcc	r0, [r0], #-0
    1fc4:	08000001 	stmdaeq	r0, {r0}
    1fc8:	31007500 	tstcc	r0, r0, lsl #10
    1fcc:	22007524 	andcs	r7, r0, #36, 10	; 0x9000000
    1fd0:	0000009f 	muleq	r0, pc, r0	; <UNPREDICTABLE>
    1fd4:	00000000 	andeq	r0, r0, r0
    1fd8:	00006400 	andeq	r6, r0, r0, lsl #8
    1fdc:	00006800 	andeq	r6, r0, r0, lsl #16
    1fe0:	53000100 	movwpl	r0, #256	; 0x100
	...
    1fec:	00000074 	andeq	r0, r0, r4, ror r0
    1ff0:	00000094 	muleq	r0, r4, r0
    1ff4:	94580001 	ldrbls	r0, [r8], #-1
    1ff8:	34000000 	strcc	r0, [r0], #-0
    1ffc:	05000001 	streq	r0, [r0, #-1]
    2000:	32007500 	andcc	r7, r0, #0, 10
    2004:	00009f24 	andeq	r9, r0, r4, lsr #30
    2008:	00000000 	andeq	r0, r0, r0
    200c:	00800000 	addeq	r0, r0, r0
    2010:	00940000 	addseq	r0, r4, r0
    2014:	00010000 	andeq	r0, r1, r0
    2018:	00009458 	andeq	r9, r0, r8, asr r4
    201c:	00013400 	andeq	r3, r1, r0, lsl #8
    2020:	75000500 	strvc	r0, [r0, #-1280]	; 0x500
    2024:	9f243200 	svcls	0x00243200
	...
    2030:	00000084 	andeq	r0, r0, r4, lsl #1
    2034:	00000088 	andeq	r0, r0, r8, lsl #1
    2038:	00530001 	subseq	r0, r3, r1
    203c:	00000000 	andeq	r0, r0, r0
    2040:	94000000 	strls	r0, [r0], #-0
    2044:	b4000000 	strlt	r0, [r0], #-0
    2048:	01000000 	mrseq	r0, (UNDEF: 0)
    204c:	00b45800 	adcseq	r5, r4, r0, lsl #16
    2050:	01340000 	teqeq	r4, r0
    2054:	00080000 	andeq	r0, r8, r0
    2058:	24320075 	ldrtcs	r0, [r2], #-117	; 0x75
    205c:	9f220075 	svcls	0x00220075
	...
    2068:	000000a0 	andeq	r0, r0, r0, lsr #1
    206c:	000000b4 	strheq	r0, [r0], -r4
    2070:	b4580001 	ldrblt	r0, [r8], #-1
    2074:	34000000 	strcc	r0, [r0], #-0
    2078:	08000001 	stmdaeq	r0, {r0}
    207c:	32007500 	andcc	r7, r0, #0, 10
    2080:	22007524 	andcs	r7, r0, #36, 10	; 0x9000000
    2084:	0000009f 	muleq	r0, pc, r0	; <UNPREDICTABLE>
    2088:	00000000 	andeq	r0, r0, r0
    208c:	0000a400 	andeq	sl, r0, r0, lsl #8
    2090:	0000a800 	andeq	sl, r0, r0, lsl #16
    2094:	53000100 	movwpl	r0, #256	; 0x100
	...
    20a0:	000000b4 	strheq	r0, [r0], -r4
    20a4:	000000d4 	ldrdeq	r0, [r0], -r4
    20a8:	d4580001 	ldrble	r0, [r8], #-1
    20ac:	34000000 	strcc	r0, [r0], #-0
    20b0:	0a000001 	beq	20bc <_start-0x5f44>
    20b4:	32007500 	andcc	r7, r0, #0, 10
    20b8:	31007524 	tstcc	r0, r4, lsr #10
    20bc:	009f2224 	addseq	r2, pc, r4, lsr #4
    20c0:	00000000 	andeq	r0, r0, r0
    20c4:	c0000000 	andgt	r0, r0, r0
    20c8:	d4000000 	strle	r0, [r0], #-0
    20cc:	01000000 	mrseq	r0, (UNDEF: 0)
    20d0:	00d45800 	sbcseq	r5, r4, r0, lsl #16
    20d4:	01340000 	teqeq	r4, r0
    20d8:	000a0000 	andeq	r0, sl, r0
    20dc:	24320075 	ldrtcs	r0, [r2], #-117	; 0x75
    20e0:	24310075 	ldrtcs	r0, [r1], #-117	; 0x75
    20e4:	00009f22 	andeq	r9, r0, r2, lsr #30
    20e8:	00000000 	andeq	r0, r0, r0
    20ec:	00c40000 	sbceq	r0, r4, r0
    20f0:	00c80000 	sbceq	r0, r8, r0
    20f4:	00010000 	andeq	r0, r1, r0
    20f8:	00000053 	andeq	r0, r0, r3, asr r0
    20fc:	00000000 	andeq	r0, r0, r0
    2100:	0000d400 	andeq	sp, r0, r0, lsl #8
    2104:	0000f400 	andeq	pc, r0, r0, lsl #8
    2108:	58000100 	stmdapl	r0, {r8}
    210c:	000000f4 	strdeq	r0, [r0], -r4
    2110:	00000134 	andeq	r0, r0, r4, lsr r1
    2114:	0075000d 	rsbseq	r0, r5, sp
    2118:	00752432 	rsbseq	r2, r5, r2, lsr r4
    211c:	75222431 	strvc	r2, [r2, #-1073]!	; 0x431
    2120:	009f2200 	addseq	r2, pc, r0, lsl #4
    2124:	00000000 	andeq	r0, r0, r0
    2128:	e0000000 	and	r0, r0, r0
    212c:	f4000000 	vst4.8	{d0-d3}, [r0], r0
    2130:	01000000 	mrseq	r0, (UNDEF: 0)
    2134:	00f45800 	rscseq	r5, r4, r0, lsl #16
    2138:	01340000 	teqeq	r4, r0
    213c:	000d0000 	andeq	r0, sp, r0
    2140:	24320075 	ldrtcs	r0, [r2], #-117	; 0x75
    2144:	24310075 	ldrtcs	r0, [r1], #-117	; 0x75
    2148:	22007522 	andcs	r7, r0, #142606336	; 0x8800000
    214c:	0000009f 	muleq	r0, pc, r0	; <UNPREDICTABLE>
    2150:	00000000 	andeq	r0, r0, r0
    2154:	0000e400 	andeq	lr, r0, r0, lsl #8
    2158:	0000e800 	andeq	lr, r0, r0, lsl #16
    215c:	53000100 	movwpl	r0, #256	; 0x100
	...
    2168:	000000f4 	strdeq	r0, [r0], -r4
    216c:	00000114 	andeq	r0, r0, r4, lsl r1
    2170:	14580001 	ldrbne	r0, [r8], #-1
    2174:	34000001 	strcc	r0, [r0], #-1
    2178:	05000001 	streq	r0, [r0, #-1]
    217c:	33007500 	movwcc	r7, #1280	; 0x500
    2180:	00009f24 	andeq	r9, r0, r4, lsr #30
    2184:	00000000 	andeq	r0, r0, r0
    2188:	01000000 	mrseq	r0, (UNDEF: 0)
    218c:	01140000 	tsteq	r4, r0
    2190:	00010000 	andeq	r0, r1, r0
    2194:	00011458 	andeq	r1, r1, r8, asr r4
    2198:	00013400 	andeq	r3, r1, r0, lsl #8
    219c:	75000500 	strvc	r0, [r0, #-1280]	; 0x500
    21a0:	9f243300 	svcls	0x00243300
	...
    21ac:	00000104 	andeq	r0, r0, r4, lsl #2
    21b0:	00000108 	andeq	r0, r0, r8, lsl #2
    21b4:	00530001 	subseq	r0, r3, r1
    21b8:	00000000 	andeq	r0, r0, r0
    21bc:	14000000 	strne	r0, [r0], #-0
    21c0:	1c000001 	stcne	0, cr0, [r0], {1}
    21c4:	06000001 	streq	r0, [r0], -r1
    21c8:	08007700 	stmdaeq	r0, {r8, r9, sl, ip, sp, lr}
    21cc:	1c9f1a80 	vldmiane	pc, {s2-s129}
    21d0:	1f000001 	svcne	0x00000001
    21d4:	01000001 	tsteq	r0, r1
    21d8:	011f5100 	tsteq	pc, r0, lsl #2
    21dc:	01540000 	cmpeq	r4, r0
    21e0:	00060000 	andeq	r0, r6, r0
    21e4:	80080077 	andhi	r0, r8, r7, ror r0
    21e8:	00009f1a 	andeq	r9, r0, sl, lsl pc
    21ec:	00000000 	andeq	r0, r0, r0
    21f0:	01240000 	teqeq	r4, r0
    21f4:	01280000 	teqeq	r8, r0
    21f8:	00010000 	andeq	r0, r1, r0
    21fc:	00000053 	andeq	r0, r0, r3, asr r0
    2200:	00000000 	andeq	r0, r0, r0
    2204:	00014400 	andeq	r4, r1, r0, lsl #8
    2208:	00014800 	andeq	r4, r1, r0, lsl #16
    220c:	53000100 	movwpl	r0, #256	; 0x100
	...
    2218:	00000154 	andeq	r0, r0, r4, asr r1
    221c:	0000016b 	andeq	r0, r0, fp, ror #2
    2220:	6b500001 	blvs	140222c <__bss_end__+0x13f7d8c>
    2224:	d0000001 	andle	r0, r0, r1
    2228:	01000001 	tsteq	r0, r1
    222c:	01d05900 	bicseq	r5, r0, r0, lsl #18
    2230:	030c0000 	movweq	r0, #49152	; 0xc000
    2234:	00040000 	andeq	r0, r4, r0
    2238:	9f5001f3 	svcls	0x005001f3
    223c:	0000030c 	andeq	r0, r0, ip, lsl #6
    2240:	00000314 	andeq	r0, r0, r4, lsl r3
    2244:	14590001 	ldrbne	r0, [r9], #-1
    2248:	1c000003 	stcne	0, cr0, [r0], {3}
    224c:	04000003 	streq	r0, [r0], #-3
    2250:	5001f300 	andpl	pc, r1, r0, lsl #6
    2254:	0000009f 	muleq	r0, pc, r0	; <UNPREDICTABLE>
    2258:	00000000 	andeq	r0, r0, r0
    225c:	00015400 	andeq	r5, r1, r0, lsl #8
    2260:	00016b00 	andeq	r6, r1, r0, lsl #22
    2264:	51000100 	mrspl	r0, (UNDEF: 16)
    2268:	0000016b 	andeq	r0, r0, fp, ror #2
    226c:	0000031c 	andeq	r0, r0, ip, lsl r3
    2270:	00560001 	subseq	r0, r6, r1
    2274:	00000000 	andeq	r0, r0, r0
    2278:	a8000000 	stmdage	r0, {}	; <UNPREDICTABLE>
    227c:	98000001 	stmdals	r0, {r0}
    2280:	01000002 	tsteq	r0, r2
    2284:	00005800 	andeq	r5, r0, r0, lsl #16
    2288:	00000000 	andeq	r0, r0, r0
    228c:	01ac0000 			; <UNDEFINED> instruction: 0x01ac0000
    2290:	02d00000 	sbcseq	r0, r0, #0
    2294:	00010000 	andeq	r0, r1, r0
    2298:	00000054 	andeq	r0, r0, r4, asr r0
    229c:	00000000 	andeq	r0, r0, r0
    22a0:	0001ac00 	andeq	sl, r1, r0, lsl #24
    22a4:	0002d000 	andeq	sp, r2, r0
    22a8:	74000500 	strvc	r0, [r0], #-1280	; 0x500
    22ac:	9f253100 	svcls	0x00253100
	...
    22b8:	000001ac 	andeq	r0, r0, ip, lsr #3
    22bc:	000001d0 	ldrdeq	r0, [r0], -r0	; <UNPREDICTABLE>
    22c0:	9f300002 	svcls	0x00300002
    22c4:	000001d0 	ldrdeq	r0, [r0], -r0	; <UNPREDICTABLE>
    22c8:	0000030c 	andeq	r0, r0, ip, lsl #6
    22cc:	14590001 	ldrbne	r0, [r9], #-1
    22d0:	1c000003 	stcne	0, cr0, [r0], {3}
    22d4:	01000003 	tsteq	r0, r3
    22d8:	00005900 	andeq	r5, r0, r0, lsl #18
    22dc:	00000000 	andeq	r0, r0, r0
    22e0:	01680000 	cmneq	r8, r0
    22e4:	016b0000 	cmneq	fp, r0
    22e8:	00010000 	andeq	r0, r1, r0
    22ec:	00016b51 	andeq	r6, r1, r1, asr fp
    22f0:	00031c00 	andeq	r1, r3, r0, lsl #24
    22f4:	56000100 	strpl	r0, [r0], -r0, lsl #2
	...
    2300:	00000170 	andeq	r0, r0, r0, ror r1
    2304:	000001ac 	andeq	r0, r0, ip, lsr #3
    2308:	0c540001 	mrrceq	0, 0, r0, r4, cr1
    230c:	14000003 	strne	r0, [r0], #-3
    2310:	01000003 	tsteq	r0, r3
    2314:	00005400 	andeq	r5, r0, r0, lsl #8
    2318:	00000000 	andeq	r0, r0, r0
    231c:	01a80000 			; <UNDEFINED> instruction: 0x01a80000
    2320:	01c40000 	biceq	r0, r4, r0
    2324:	00010000 	andeq	r0, r1, r0
    2328:	00000058 	andeq	r0, r0, r8, asr r0
    232c:	00000000 	andeq	r0, r0, r0
    2330:	0001b000 	andeq	fp, r1, r0
    2334:	0001cb00 	andeq	ip, r1, r0, lsl #22
    2338:	52000100 	andpl	r0, r0, #0, 2
    233c:	000001cb 	andeq	r0, r0, fp, asr #3
    2340:	000002d0 	ldrdeq	r0, [r0], -r0	; <UNPREDICTABLE>
    2344:	00740008 	rsbseq	r0, r4, r8
    2348:	00742531 	rsbseq	r2, r4, r1, lsr r5
    234c:	00009f22 	andeq	r9, r0, r2, lsr #30
    2350:	00000000 	andeq	r0, r0, r0
    2354:	01b00000 	movseq	r0, r0
    2358:	01c40000 	biceq	r0, r4, r0
    235c:	00010000 	andeq	r0, r1, r0
    2360:	00000058 	andeq	r0, r0, r8, asr r0
    2364:	00000000 	andeq	r0, r0, r0
    2368:	0001b400 	andeq	fp, r1, r0, lsl #8
    236c:	0001b800 	andeq	fp, r1, r0, lsl #16
    2370:	53000100 	movwpl	r0, #256	; 0x100
	...
    237c:	000001d0 	ldrdeq	r0, [r0], -r0	; <UNPREDICTABLE>
    2380:	000002d0 	ldrdeq	r0, [r0], -r0	; <UNPREDICTABLE>
    2384:	00540001 	subseq	r0, r4, r1
    2388:	00000000 	andeq	r0, r0, r0
    238c:	d0000000 	andle	r0, r0, r0
    2390:	e4000001 	str	r0, [r0], #-1
    2394:	01000001 	tsteq	r0, r1
    2398:	00005800 	andeq	r5, r0, r0, lsl #16
    239c:	00000000 	andeq	r0, r0, r0
    23a0:	01d40000 	bicseq	r0, r4, r0
    23a4:	01d80000 	bicseq	r0, r8, r0
    23a8:	00010000 	andeq	r0, r1, r0
    23ac:	00000053 	andeq	r0, r0, r3, asr r0
    23b0:	00000000 	andeq	r0, r0, r0
    23b4:	0001f400 	andeq	pc, r1, r0, lsl #8
    23b8:	0002d000 	andeq	sp, r2, r0
    23bc:	54000100 	strpl	r0, [r0], #-256	; 0x100
	...
    23c8:	000001f4 	strdeq	r0, [r0], -r4
    23cc:	00000208 	andeq	r0, r0, r8, lsl #4
    23d0:	00580001 	subseq	r0, r8, r1
    23d4:	00000000 	andeq	r0, r0, r0
    23d8:	f8000000 			; <UNDEFINED> instruction: 0xf8000000
    23dc:	fc000001 	stc2	0, cr0, [r0], {1}
    23e0:	01000001 	tsteq	r0, r1
    23e4:	00005300 	andeq	r5, r0, r0, lsl #6
    23e8:	00000000 	andeq	r0, r0, r0
    23ec:	02180000 	andseq	r0, r8, #0
    23f0:	02d00000 	sbcseq	r0, r0, #0
    23f4:	00010000 	andeq	r0, r1, r0
    23f8:	00000054 	andeq	r0, r0, r4, asr r0
    23fc:	00000000 	andeq	r0, r0, r0
    2400:	00021800 	andeq	r1, r2, r0, lsl #16
    2404:	00022c00 	andeq	r2, r2, r0, lsl #24
    2408:	58000100 	stmdapl	r0, {r8}
	...
    2414:	0000021c 	andeq	r0, r0, ip, lsl r2
    2418:	00000220 	andeq	r0, r0, r0, lsr #4
    241c:	00530001 	subseq	r0, r3, r1
    2420:	00000000 	andeq	r0, r0, r0
    2424:	3c000000 	stccc	0, cr0, [r0], {-0}
    2428:	d0000002 	andle	r0, r0, r2
    242c:	01000002 	tsteq	r0, r2
    2430:	00005400 	andeq	r5, r0, r0, lsl #8
    2434:	00000000 	andeq	r0, r0, r0
    2438:	023c0000 	eorseq	r0, ip, #0
    243c:	02500000 	subseq	r0, r0, #0
    2440:	00010000 	andeq	r0, r1, r0
    2444:	00000058 	andeq	r0, r0, r8, asr r0
    2448:	00000000 	andeq	r0, r0, r0
    244c:	00024000 	andeq	r4, r2, r0
    2450:	00024400 	andeq	r4, r2, r0, lsl #8
    2454:	53000100 	movwpl	r0, #256	; 0x100
	...
    2460:	00000260 	andeq	r0, r0, r0, ror #4
    2464:	000002d0 	ldrdeq	r0, [r0], -r0	; <UNPREDICTABLE>
    2468:	00540001 	subseq	r0, r4, r1
    246c:	00000000 	andeq	r0, r0, r0
    2470:	60000000 	andvs	r0, r0, r0
    2474:	74000002 	strvc	r0, [r0], #-2
    2478:	01000002 	tsteq	r0, r2
    247c:	00005800 	andeq	r5, r0, r0, lsl #16
    2480:	00000000 	andeq	r0, r0, r0
    2484:	02640000 	rsbeq	r0, r4, #0
    2488:	02680000 	rsbeq	r0, r8, #0
    248c:	00010000 	andeq	r0, r1, r0
    2490:	00000053 	andeq	r0, r0, r3, asr r0
    2494:	00000000 	andeq	r0, r0, r0
    2498:	00028400 	andeq	r8, r2, r0, lsl #8
    249c:	0002d000 	andeq	sp, r2, r0
    24a0:	54000100 	strpl	r0, [r0], #-256	; 0x100
	...
    24ac:	00000284 	andeq	r0, r0, r4, lsl #5
    24b0:	00000298 	muleq	r0, r8, r2
    24b4:	00580001 	subseq	r0, r8, r1
    24b8:	00000000 	andeq	r0, r0, r0
    24bc:	88000000 	stmdahi	r0, {}	; <UNPREDICTABLE>
    24c0:	8c000002 	stchi	0, cr0, [r0], {2}
    24c4:	01000002 	tsteq	r0, r2
    24c8:	00005300 	andeq	r5, r0, r0, lsl #6
    24cc:	00000000 	andeq	r0, r0, r0
    24d0:	02a80000 	adceq	r0, r8, #0
    24d4:	02d00000 	sbcseq	r0, r0, #0
    24d8:	00010000 	andeq	r0, r1, r0
    24dc:	00000054 	andeq	r0, r0, r4, asr r0
    24e0:	00000000 	andeq	r0, r0, r0
    24e4:	0002ac00 	andeq	sl, r2, r0, lsl #24
    24e8:	0002b000 	andeq	fp, r2, r0
    24ec:	53000100 	movwpl	r0, #256	; 0x100
	...
    24f8:	000002c8 	andeq	r0, r0, r8, asr #5
    24fc:	0000030c 	andeq	r0, r0, ip, lsl #6
    2500:	9f300002 	svcls	0x00300002
    2504:	00000314 	andeq	r0, r0, r4, lsl r3
    2508:	0000031c 	andeq	r0, r0, ip, lsl r3
    250c:	9f300002 	svcls	0x00300002
	...
    2518:	000002c8 	andeq	r0, r0, r8, asr #5
    251c:	0000030c 	andeq	r0, r0, ip, lsl #6
    2520:	14550001 	ldrbne	r0, [r5], #-1
    2524:	1c000003 	stcne	0, cr0, [r0], {3}
    2528:	01000003 	tsteq	r0, r3
    252c:	00005500 	andeq	r5, r0, r0, lsl #10
    2530:	00000000 	andeq	r0, r0, r0
    2534:	02d00000 	sbcseq	r0, r0, #0
    2538:	030c0000 	movweq	r0, #49152	; 0xc000
    253c:	00010000 	andeq	r0, r1, r0
    2540:	00031454 	andeq	r1, r3, r4, asr r4
    2544:	00031c00 	andeq	r1, r3, r0, lsl #24
    2548:	54000100 	strpl	r0, [r0], #-256	; 0x100
	...
    2554:	0000031c 	andeq	r0, r0, ip, lsl r3
    2558:	0000033f 	andeq	r0, r0, pc, lsr r3
    255c:	3f500001 	svccc	0x00500001
    2560:	60000003 	andvs	r0, r0, r3
    2564:	01000003 	tsteq	r0, r3
    2568:	03605800 	cmneq	r0, #0, 16
    256c:	03700000 	cmneq	r0, #0
    2570:	00010000 	andeq	r0, r1, r0
    2574:	00037050 	andeq	r7, r3, r0, asr r0
    2578:	0003b000 	andeq	fp, r3, r0
    257c:	58000100 	stmdapl	r0, {r8}
    2580:	000003b0 			; <UNDEFINED> instruction: 0x000003b0
    2584:	000003c0 	andeq	r0, r0, r0, asr #7
    2588:	01f30004 	mvnseq	r0, r4
    258c:	00009f50 	andeq	r9, r0, r0, asr pc
    2590:	00000000 	andeq	r0, r0, r0
    2594:	031c0000 	tsteq	ip, #0
    2598:	033f0000 	teqeq	pc, #0
    259c:	00010000 	andeq	r0, r1, r0
    25a0:	00033f51 	andeq	r3, r3, r1, asr pc
    25a4:	00036000 	andeq	r6, r3, r0
    25a8:	56000100 	strpl	r0, [r0], -r0, lsl #2
    25ac:	00000360 	andeq	r0, r0, r0, ror #6
    25b0:	00000370 	andeq	r0, r0, r0, ror r3
    25b4:	70510001 	subsvc	r0, r1, r1
    25b8:	b0000003 	andlt	r0, r0, r3
    25bc:	01000003 	tsteq	r0, r3
    25c0:	03b05600 	movseq	r5, #0, 12
    25c4:	03c00000 	biceq	r0, r0, #0
    25c8:	00040000 	andeq	r0, r4, r0
    25cc:	9f5101f3 	svcls	0x005101f3
	...
    25d8:	0000031c 	andeq	r0, r0, ip, lsl r3
    25dc:	0000033f 	andeq	r0, r0, pc, lsr r3
    25e0:	3f520001 	svccc	0x00520001
    25e4:	60000003 	andvs	r0, r0, r3
    25e8:	04000003 	streq	r0, [r0], #-3
    25ec:	5201f300 	andpl	pc, r1, #0, 6
    25f0:	0003609f 	muleq	r3, pc, r0	; <UNPREDICTABLE>
    25f4:	00037000 	andeq	r7, r3, r0
    25f8:	52000100 	andpl	r0, r0, #0, 2
    25fc:	00000370 	andeq	r0, r0, r0, ror r3
    2600:	000003b0 			; <UNDEFINED> instruction: 0x000003b0
    2604:	01770003 	cmneq	r7, r3
    2608:	0003b09f 	muleq	r3, pc, r0	; <UNPREDICTABLE>
    260c:	0003c000 	andeq	ip, r3, r0
    2610:	f3000400 	vshl.u8	d0, d0, d0
    2614:	009f5201 	addseq	r5, pc, r1, lsl #4
    2618:	00000000 	andeq	r0, r0, r0
    261c:	1c000000 	stcne	0, cr0, [r0], {-0}
    2620:	3f000003 	svccc	0x00000003
    2624:	01000003 	tsteq	r0, r3
    2628:	033f5300 	teqeq	pc, #0, 6
    262c:	03600000 	cmneq	r0, #0
    2630:	00040000 	andeq	r0, r4, r0
    2634:	9f5301f3 	svcls	0x005301f3
    2638:	00000360 	andeq	r0, r0, r0, ror #6
    263c:	00000370 	andeq	r0, r0, r0, ror r3
    2640:	70530001 	subsvc	r0, r3, r1
    2644:	c0000003 	andgt	r0, r0, r3
    2648:	04000003 	streq	r0, [r0], #-3
    264c:	5301f300 	movwpl	pc, #4864	; 0x1300	; <UNPREDICTABLE>
    2650:	0000009f 	muleq	r0, pc, r0	; <UNPREDICTABLE>
    2654:	00000000 	andeq	r0, r0, r0
    2658:	00036800 	andeq	r6, r3, r0, lsl #16
    265c:	00037000 	andeq	r7, r3, r0
    2660:	30000200 	andcc	r0, r0, r0, lsl #4
    2664:	0003709f 	muleq	r3, pc, r0	; <UNPREDICTABLE>
    2668:	0003b000 	andeq	fp, r3, r0
    266c:	54000100 	strpl	r0, [r0], #-256	; 0x100
    2670:	000003b0 			; <UNDEFINED> instruction: 0x000003b0
    2674:	000003c0 	andeq	r0, r0, r0, asr #7
    2678:	00500001 	subseq	r0, r0, r1
    267c:	00000000 	andeq	r0, r0, r0
    2680:	80000000 	andhi	r0, r0, r0
    2684:	90000003 	andls	r0, r0, r3
    2688:	01000003 	tsteq	r0, r3
    268c:	00005000 	andeq	r5, r0, r0
    2690:	00000000 	andeq	r0, r0, r0
    2694:	03c00000 	biceq	r0, r0, #0
    2698:	03df0000 	bicseq	r0, pc, #0
    269c:	00010000 	andeq	r0, r1, r0
    26a0:	0003df50 	andeq	sp, r3, r0, asr pc
    26a4:	00040000 	andeq	r0, r4, r0
    26a8:	57000100 	strpl	r0, [r0, -r0, lsl #2]
    26ac:	00000400 	andeq	r0, r0, r0, lsl #8
    26b0:	00000410 	andeq	r0, r0, r0, lsl r4
    26b4:	10500001 	subsne	r0, r0, r1
    26b8:	40000004 	andmi	r0, r0, r4
    26bc:	01000004 	tsteq	r0, r4
    26c0:	04405700 	strbeq	r5, [r0], #-1792	; 0x700
    26c4:	04500000 	ldrbeq	r0, [r0], #-0
    26c8:	00040000 	andeq	r0, r4, r0
    26cc:	9f5001f3 	svcls	0x005001f3
	...
    26d8:	000003c0 	andeq	r0, r0, r0, asr #7
    26dc:	000003df 	ldrdeq	r0, [r0], -pc	; <UNPREDICTABLE>
    26e0:	df510001 	svcle	0x00510001
    26e4:	00000003 	andeq	r0, r0, r3
    26e8:	01000004 	tsteq	r0, r4
    26ec:	04005500 	streq	r5, [r0], #-1280	; 0x500
    26f0:	04100000 	ldreq	r0, [r0], #-0
    26f4:	00010000 	andeq	r0, r1, r0
    26f8:	00041051 	andeq	r1, r4, r1, asr r0
    26fc:	00044000 	andeq	r4, r4, r0
    2700:	55000100 	strpl	r0, [r0, #-256]	; 0x100
    2704:	00000440 	andeq	r0, r0, r0, asr #8
    2708:	00000450 	andeq	r0, r0, r0, asr r4
    270c:	01f30004 	mvnseq	r0, r4
    2710:	00009f51 	andeq	r9, r0, r1, asr pc
    2714:	00000000 	andeq	r0, r0, r0
    2718:	03c00000 	biceq	r0, r0, #0
    271c:	03df0000 	bicseq	r0, pc, #0
    2720:	00010000 	andeq	r0, r1, r0
    2724:	0003df52 	andeq	sp, r3, r2, asr pc
    2728:	00040000 	andeq	r0, r4, r0
    272c:	f3000400 	vshl.u8	d0, d0, d0
    2730:	009f5201 	addseq	r5, pc, r1, lsl #4
    2734:	10000004 	andne	r0, r0, r4
    2738:	01000004 	tsteq	r0, r4
    273c:	04105200 	ldreq	r5, [r0], #-512	; 0x200
    2740:	04400000 	strbeq	r0, [r0], #-0
    2744:	00030000 	andeq	r0, r3, r0
    2748:	409f0176 	addsmi	r0, pc, r6, ror r1	; <UNPREDICTABLE>
    274c:	50000004 	andpl	r0, r0, r4
    2750:	04000004 	streq	r0, [r0], #-4
    2754:	5201f300 	andpl	pc, r1, #0, 6
    2758:	0000009f 	muleq	r0, pc, r0	; <UNPREDICTABLE>
    275c:	00000000 	andeq	r0, r0, r0
    2760:	0003c000 	andeq	ip, r3, r0
    2764:	0003df00 	andeq	sp, r3, r0, lsl #30
    2768:	53000100 	movwpl	r0, #256	; 0x100
    276c:	000003df 	ldrdeq	r0, [r0], -pc	; <UNPREDICTABLE>
    2770:	00000400 	andeq	r0, r0, r0, lsl #8
    2774:	00580001 	subseq	r0, r8, r1
    2778:	10000004 	andne	r0, r0, r4
    277c:	01000004 	tsteq	r0, r4
    2780:	04105300 	ldreq	r5, [r0], #-768	; 0x300
    2784:	04400000 	strbeq	r0, [r0], #-0
    2788:	00010000 	andeq	r0, r1, r0
    278c:	00044058 	andeq	r4, r4, r8, asr r0
    2790:	00045000 	andeq	r5, r4, r0
    2794:	f3000400 	vshl.u8	d0, d0, d0
    2798:	009f5301 	addseq	r5, pc, r1, lsl #6
    279c:	00000000 	andeq	r0, r0, r0
    27a0:	08000000 	stmdaeq	r0, {}	; <UNPREDICTABLE>
    27a4:	10000004 	andne	r0, r0, r4
    27a8:	02000004 	andeq	r0, r0, #4
    27ac:	109f3000 	addsne	r3, pc, r0
    27b0:	40000004 	andmi	r0, r0, r4
    27b4:	01000004 	tsteq	r0, r4
    27b8:	04405400 	strbeq	r5, [r0], #-1024	; 0x400
    27bc:	04500000 	ldrbeq	r0, [r0], #-0
    27c0:	00010000 	andeq	r0, r1, r0
    27c4:	00000050 	andeq	r0, r0, r0, asr r0
    27c8:	00000000 	andeq	r0, r0, r0
    27cc:	00045000 	andeq	r5, r4, r0
    27d0:	00047300 	andeq	r7, r4, r0, lsl #6
    27d4:	51000100 	mrspl	r0, (UNDEF: 16)
    27d8:	00000473 	andeq	r0, r0, r3, ror r4
    27dc:	00000524 	andeq	r0, r0, r4, lsr #10
    27e0:	01f30004 	mvnseq	r0, r4
    27e4:	00009f51 	andeq	r9, r0, r1, asr pc
    27e8:	00000000 	andeq	r0, r0, r0
    27ec:	04500000 	ldrbeq	r0, [r0], #-0
    27f0:	04730000 	ldrbteq	r0, [r3], #-0
    27f4:	00010000 	andeq	r0, r1, r0
    27f8:	00047352 	andeq	r7, r4, r2, asr r3
    27fc:	00052400 	andeq	r2, r5, r0, lsl #8
    2800:	f3000400 	vshl.u8	d0, d0, d0
    2804:	009f5201 	addseq	r5, pc, r1, lsl #4
    2808:	00000000 	andeq	r0, r0, r0
    280c:	50000000 	andpl	r0, r0, r0
    2810:	73000004 	movwvc	r0, #4
    2814:	01000004 	tsteq	r0, r4
    2818:	04735300 	ldrbteq	r5, [r3], #-768	; 0x300
    281c:	05100000 	ldreq	r0, [r0, #-0]
    2820:	00010000 	andeq	r0, r1, r0
    2824:	00051055 	andeq	r1, r5, r5, asr r0
    2828:	00052400 	andeq	r2, r5, r0, lsl #8
    282c:	70000200 	andvc	r0, r0, r0, lsl #4
    2830:	00000004 	andeq	r0, r0, r4
    2834:	00000000 	andeq	r0, r0, r0
    2838:	00049400 	andeq	r9, r4, r0, lsl #8
    283c:	0004d300 	andeq	sp, r4, r0, lsl #6
    2840:	52000100 	andpl	r0, r0, #0, 2
    2844:	000004d3 	ldrdeq	r0, [r0], -r3
    2848:	000004f4 	strdeq	r0, [r0], -r4
    284c:	00750006 	rsbseq	r0, r5, r6
    2850:	9f1e0077 	svcls	0x001e0077
    2854:	000004f4 	strdeq	r0, [r0], -r4
    2858:	00000524 	andeq	r0, r0, r4, lsr #10
    285c:	00520001 	subseq	r0, r2, r1
    2860:	00000000 	andeq	r0, r0, r0
    2864:	24000000 	strcs	r0, [r0], #-0
    2868:	2f000005 	svccs	0x00000005
    286c:	01000005 	tsteq	r0, r5
    2870:	052f5000 	streq	r5, [pc, #-0]!	; 2878 <_start-0x5788>
    2874:	05600000 	strbeq	r0, [r0, #-0]!
    2878:	00040000 	andeq	r0, r4, r0
    287c:	9f5001f3 	svcls	0x005001f3
	...
    2888:	00000530 	andeq	r0, r0, r0, lsr r5
    288c:	0000053b 	andeq	r0, r0, fp, lsr r5
    2890:	00500001 	subseq	r0, r0, r1
    2894:	00000000 	andeq	r0, r0, r0
    2898:	60000000 	andvs	r0, r0, r0
    289c:	70000005 	andvc	r0, r0, r5
    28a0:	01000005 	tsteq	r0, r5
    28a4:	05705000 	ldrbeq	r5, [r0, #-0]!
    28a8:	058c0000 	streq	r0, [ip]
    28ac:	00010000 	andeq	r0, r1, r0
    28b0:	00000055 	andeq	r0, r0, r5, asr r0
    28b4:	00000000 	andeq	r0, r0, r0
    28b8:	00056000 	andeq	r6, r5, r0
    28bc:	00057000 	andeq	r7, r5, r0
    28c0:	51000100 	mrspl	r0, (UNDEF: 16)
    28c4:	00000570 	andeq	r0, r0, r0, ror r5
    28c8:	0000058c 	andeq	r0, r0, ip, lsl #11
    28cc:	00540001 	subseq	r0, r4, r1
    28d0:	00000000 	andeq	r0, r0, r0
    28d4:	8c000000 	stchi	0, cr0, [r0], {-0}
    28d8:	a8000005 	stmdage	r0, {r0, r2}
    28dc:	01000005 	tsteq	r0, r5
    28e0:	05a85000 	streq	r5, [r8, #0]!
    28e4:	06000000 	streq	r0, [r0], -r0
    28e8:	00010000 	andeq	r0, r1, r0
    28ec:	00060055 	andeq	r0, r6, r5, asr r0
    28f0:	00061c00 	andeq	r1, r6, r0, lsl #24
    28f4:	f3000400 	vshl.u8	d0, d0, d0
    28f8:	009f5001 	addseq	r5, pc, r1
    28fc:	00000000 	andeq	r0, r0, r0
    2900:	b8000000 	stmdalt	r0, {}	; <UNPREDICTABLE>
    2904:	c7000005 	strgt	r0, [r0, -r5]
    2908:	01000005 	tsteq	r0, r5
    290c:	05c75000 	strbeq	r5, [r7]
    2910:	05e80000 	strbeq	r0, [r8, #0]!
    2914:	00010000 	andeq	r0, r1, r0
    2918:	0005e854 	andeq	lr, r5, r4, asr r8
    291c:	0005ec00 	andeq	lr, r5, r0, lsl #24
    2920:	50000100 	andpl	r0, r0, r0, lsl #2
    2924:	000005ec 	andeq	r0, r0, ip, ror #11
    2928:	00000600 	andeq	r0, r0, r0, lsl #12
    292c:	00540001 	subseq	r0, r4, r1
    2930:	1c000006 	stcne	0, cr0, [r0], {6}
    2934:	01000006 	tsteq	r0, r6
    2938:	00005000 	andeq	r5, r0, r0
    293c:	00000000 	andeq	r0, r0, r0
    2940:	061c0000 	ldreq	r0, [ip], -r0
    2944:	062f0000 	strteq	r0, [pc], -r0
    2948:	00010000 	andeq	r0, r1, r0
    294c:	00062f50 	andeq	r2, r6, r0, asr pc
    2950:	00066800 	andeq	r6, r6, r0, lsl #16
    2954:	f3000400 	vshl.u8	d0, d0, d0
    2958:	009f5001 	addseq	r5, pc, r1
    295c:	00000000 	andeq	r0, r0, r0
    2960:	1c000000 	stcne	0, cr0, [r0], {-0}
    2964:	2f000006 	svccs	0x00000006
    2968:	01000006 	tsteq	r0, r6
    296c:	062f5100 	strteq	r5, [pc], -r0, lsl #2
    2970:	06680000 	strbteq	r0, [r8], -r0
    2974:	00040000 	andeq	r0, r4, r0
    2978:	9f5101f3 	svcls	0x005101f3
	...
    2984:	0000061c 	andeq	r0, r0, ip, lsl r6
    2988:	0000062f 	andeq	r0, r0, pc, lsr #12
    298c:	2f520001 	svccs	0x00520001
    2990:	68000006 	stmdavs	r0, {r1, r2}
    2994:	04000006 	streq	r0, [r0], #-6
    2998:	5201f300 	andpl	pc, r1, #0, 6
    299c:	0000009f 	muleq	r0, pc, r0	; <UNPREDICTABLE>
    29a0:	00000000 	andeq	r0, r0, r0
    29a4:	00061c00 	andeq	r1, r6, r0, lsl #24
    29a8:	00062f00 	andeq	r2, r6, r0, lsl #30
    29ac:	53000100 	movwpl	r0, #256	; 0x100
    29b0:	0000062f 	andeq	r0, r0, pc, lsr #12
    29b4:	00000668 	andeq	r0, r0, r8, ror #12
    29b8:	01f30004 	mvnseq	r0, r4
    29bc:	00009f53 	andeq	r9, r0, r3, asr pc
    29c0:	00000000 	andeq	r0, r0, r0
    29c4:	06300000 	ldrteq	r0, [r0], -r0
    29c8:	063b0000 	ldrteq	r0, [fp], -r0
    29cc:	00010000 	andeq	r0, r1, r0
    29d0:	00065450 	andeq	r5, r6, r0, asr r4
    29d4:	00066800 	andeq	r6, r6, r0, lsl #16
    29d8:	50000100 	andpl	r0, r0, r0, lsl #2
	...
    29e4:	000000fc 	strdeq	r0, [r0], -ip
    29e8:	00000104 	andeq	r0, r0, r4, lsl #2
    29ec:	04500001 	ldrbeq	r0, [r0], #-1
    29f0:	28000001 	stmdacs	r0, {r0}
    29f4:	01000001 	tsteq	r0, r1
    29f8:	00005400 	andeq	r5, r0, r0, lsl #8
	...
    2a04:	00040000 	andeq	r0, r4, r0
    2a08:	00010000 	andeq	r0, r1, r0
    2a0c:	00000452 	andeq	r0, r0, r2, asr r4
    2a10:	00002000 	andeq	r2, r0, r0
    2a14:	f3000400 	vshl.u8	d0, d0, d0
    2a18:	009f5201 	addseq	r5, pc, r1, lsl #4
	...
    2a24:	0c000000 	stceq	0, cr0, [r0], {-0}
    2a28:	01000000 	mrseq	r0, (UNDEF: 0)
    2a2c:	000c5000 	andeq	r5, ip, r0
    2a30:	00140000 	andseq	r0, r4, r0
    2a34:	00030000 	andeq	r0, r3, r0
    2a38:	149f0173 	ldrne	r0, [pc], #371	; 2a40 <_start-0x55c0>
    2a3c:	20000000 	andcs	r0, r0, r0
    2a40:	01000000 	mrseq	r0, (UNDEF: 0)
    2a44:	00005300 	andeq	r5, r0, r0, lsl #6
    2a48:	00000000 	andeq	r0, r0, r0
	...

Disassembly of section .debug_aranges:

00000000 <.debug_aranges>:
   0:	0000001c 	andeq	r0, r0, ip, lsl r0
   4:	00000002 	andeq	r0, r0, r2
   8:	00040000 	andeq	r0, r4, r0
   c:	00000000 	andeq	r0, r0, r0
  10:	00008010 	andeq	r8, r0, r0, lsl r0
  14:	000006d0 	ldrdeq	r0, [r0], -r0	; <UNPREDICTABLE>
	...
  20:	0000001c 	andeq	r0, r0, ip, lsl r0
  24:	10460002 	subne	r0, r6, r2
  28:	00040000 	andeq	r0, r4, r0
  2c:	00000000 	andeq	r0, r0, r0
  30:	000086e0 	andeq	r8, r0, r0, ror #13
  34:	00000058 	andeq	r0, r0, r8, asr r0
	...
  40:	0000001c 	andeq	r0, r0, ip, lsl r0
  44:	11db0002 	bicsne	r0, fp, r2
  48:	00040000 	andeq	r0, r4, r0
  4c:	00000000 	andeq	r0, r0, r0
  50:	00008738 	andeq	r8, r0, r8, lsr r7
  54:	0000003c 	andeq	r0, r0, ip, lsr r0
	...
  60:	0000001c 	andeq	r0, r0, ip, lsl r0
  64:	12f20002 	rscsne	r0, r2, #2
  68:	00040000 	andeq	r0, r4, r0
  6c:	00000000 	andeq	r0, r0, r0
  70:	00008774 	andeq	r8, r0, r4, ror r7
  74:	00000034 	andeq	r0, r0, r4, lsr r0
	...
  80:	0000001c 	andeq	r0, r0, ip, lsl r0
  84:	13e40002 	mvnne	r0, #2
  88:	00040000 	andeq	r0, r4, r0
  8c:	00000000 	andeq	r0, r0, r0
  90:	000087a8 	andeq	r8, r0, r8, lsr #15
  94:	00000524 	andeq	r0, r0, r4, lsr #10
	...
  a0:	0000001c 	andeq	r0, r0, ip, lsl r0
  a4:	1a890002 	bne	fe2400b4 <__bss_end__+0xfe235c14>
  a8:	00040000 	andeq	r0, r4, r0
  ac:	00000000 	andeq	r0, r0, r0
  b0:	00008ccc 	andeq	r8, r0, ip, asr #25
  b4:	00000020 	andeq	r0, r0, r0, lsr #32
	...
  c0:	0000001c 	andeq	r0, r0, ip, lsl r0
  c4:	1b450002 	blne	11400d4 <__bss_end__+0x1135c34>
  c8:	00040000 	andeq	r0, r4, r0
  cc:	00000000 	andeq	r0, r0, r0
  d0:	00008cec 	andeq	r8, r0, ip, ror #25
  d4:	00000028 	andeq	r0, r0, r8, lsr #32
	...
  e0:	0000001c 	andeq	r0, r0, ip, lsl r0
  e4:	1c480002 	mcrrne	0, 0, r0, r8, cr2
  e8:	00040000 	andeq	r0, r4, r0
  ec:	00000000 	andeq	r0, r0, r0
  f0:	00008d14 	andeq	r8, r0, r4, lsl sp
  f4:	000000b0 	strheq	r0, [r0], -r0	; <UNPREDICTABLE>
	...
 100:	0000001c 	andeq	r0, r0, ip, lsl r0
 104:	1f290002 	svcne	0x00290002
 108:	00040000 	andeq	r0, r4, r0
 10c:	00000000 	andeq	r0, r0, r0
 110:	00008dc4 	andeq	r8, r0, r4, asr #27
 114:	00000074 	andeq	r0, r0, r4, ror r0
	...
 120:	0000001c 	andeq	r0, r0, ip, lsl r0
 124:	20da0002 	sbcscs	r0, sl, r2
 128:	00040000 	andeq	r0, r4, r0
 12c:	00000000 	andeq	r0, r0, r0
 130:	00008e38 	andeq	r8, r0, r8, lsr lr
 134:	00000088 	andeq	r0, r0, r8, lsl #1
	...
 140:	0000001c 	andeq	r0, r0, ip, lsl r0
 144:	22b60002 	adcscs	r0, r6, #2
 148:	00040000 	andeq	r0, r4, r0
 14c:	00000000 	andeq	r0, r0, r0
 150:	00008ec0 	andeq	r8, r0, r0, asr #29
 154:	000005a0 	andeq	r0, r0, r0, lsr #11
	...
 160:	0000001c 	andeq	r0, r0, ip, lsl r0
 164:	2b3c0002 	blcs	f00174 <__bss_end__+0xef5cd4>
 168:	00040000 	andeq	r0, r4, r0
 16c:	00000000 	andeq	r0, r0, r0
 170:	00009460 	andeq	r9, r0, r0, ror #8
 174:	00000668 	andeq	r0, r0, r8, ror #12
	...
 180:	0000001c 	andeq	r0, r0, ip, lsl r0
 184:	3d320002 	ldccc	0, cr0, [r2, #-8]!
 188:	00040000 	andeq	r0, r4, r0
 18c:	00000000 	andeq	r0, r0, r0
 190:	00009ac8 	andeq	r9, r0, r8, asr #21
 194:	00000154 	andeq	r0, r0, r4, asr r1
	...
 1a0:	0000001c 	andeq	r0, r0, ip, lsl r0
 1a4:	41350002 	teqmi	r5, r2
 1a8:	00040000 	andeq	r0, r4, r0
 1ac:	00000000 	andeq	r0, r0, r0
 1b0:	00009c80 	andeq	r9, r0, r0, lsl #25
 1b4:	00000050 	andeq	r0, r0, r0, asr r0
	...
 1c0:	0000001c 	andeq	r0, r0, ip, lsl r0
 1c4:	42fc0002 	rscsmi	r0, ip, #2
 1c8:	00040000 	andeq	r0, r4, r0
 1cc:	00000000 	andeq	r0, r0, r0
 1d0:	00009cd0 	ldrdeq	r9, [r0], -r0
 1d4:	00000020 	andeq	r0, r0, r0, lsr #32
	...

Disassembly of section .debug_ranges:

00000000 <.debug_ranges>:
   0:	000003b8 			; <UNDEFINED> instruction: 0x000003b8
   4:	000003bc 			; <UNDEFINED> instruction: 0x000003bc
   8:	000003c0 	andeq	r0, r0, r0, asr #7
   c:	000003c4 	andeq	r0, r0, r4, asr #7
  10:	000003c8 	andeq	r0, r0, r8, asr #7
  14:	000003cc 	andeq	r0, r0, ip, asr #7
  18:	000003d0 	ldrdeq	r0, [r0], -r0	; <UNPREDICTABLE>
  1c:	000003d4 	ldrdeq	r0, [r0], -r4
	...
  28:	000003c4 	andeq	r0, r0, r4, asr #7
  2c:	000003c8 	andeq	r0, r0, r8, asr #7
  30:	000003cc 	andeq	r0, r0, ip, asr #7
  34:	000003d0 	ldrdeq	r0, [r0], -r0	; <UNPREDICTABLE>
  38:	000003d4 	ldrdeq	r0, [r0], -r4
  3c:	000003dc 	ldrdeq	r0, [r0], -ip
	...
  48:	000003ec 	andeq	r0, r0, ip, ror #7
  4c:	000003f0 	strdeq	r0, [r0], -r0	; <UNPREDICTABLE>
  50:	000003f4 	strdeq	r0, [r0], -r4
  54:	000003f8 	strdeq	r0, [r0], -r8
  58:	000003fc 	strdeq	r0, [r0], -ip
  5c:	00000400 	andeq	r0, r0, r0, lsl #8
  60:	00000404 	andeq	r0, r0, r4, lsl #8
  64:	00000408 	andeq	r0, r0, r8, lsl #8
	...
  70:	000003f8 	strdeq	r0, [r0], -r8
  74:	000003fc 	strdeq	r0, [r0], -ip
  78:	00000400 	andeq	r0, r0, r0, lsl #8
  7c:	00000404 	andeq	r0, r0, r4, lsl #8
  80:	00000408 	andeq	r0, r0, r8, lsl #8
  84:	00000410 	andeq	r0, r0, r0, lsl r4
	...
  90:	00000420 	andeq	r0, r0, r0, lsr #8
  94:	00000424 	andeq	r0, r0, r4, lsr #8
  98:	00000428 	andeq	r0, r0, r8, lsr #8
  9c:	0000042c 	andeq	r0, r0, ip, lsr #8
  a0:	00000430 	andeq	r0, r0, r0, lsr r4
  a4:	00000434 	andeq	r0, r0, r4, lsr r4
  a8:	00000438 	andeq	r0, r0, r8, lsr r4
  ac:	0000043c 	andeq	r0, r0, ip, lsr r4
	...
  b8:	0000042c 	andeq	r0, r0, ip, lsr #8
  bc:	00000430 	andeq	r0, r0, r0, lsr r4
  c0:	00000434 	andeq	r0, r0, r4, lsr r4
  c4:	00000438 	andeq	r0, r0, r8, lsr r4
  c8:	0000043c 	andeq	r0, r0, ip, lsr r4
  cc:	00000444 	andeq	r0, r0, r4, asr #8
	...
  d8:	00000454 	andeq	r0, r0, r4, asr r4
  dc:	00000458 	andeq	r0, r0, r8, asr r4
  e0:	0000045c 	andeq	r0, r0, ip, asr r4
  e4:	00000460 	andeq	r0, r0, r0, ror #8
  e8:	00000464 	andeq	r0, r0, r4, ror #8
  ec:	00000468 	andeq	r0, r0, r8, ror #8
  f0:	0000046c 	andeq	r0, r0, ip, ror #8
  f4:	00000470 	andeq	r0, r0, r0, ror r4
	...
 100:	00000460 	andeq	r0, r0, r0, ror #8
 104:	00000464 	andeq	r0, r0, r4, ror #8
 108:	00000468 	andeq	r0, r0, r8, ror #8
 10c:	0000046c 	andeq	r0, r0, ip, ror #8
 110:	00000470 	andeq	r0, r0, r0, ror r4
 114:	00000478 	andeq	r0, r0, r8, ror r4
	...
 120:	00000488 	andeq	r0, r0, r8, lsl #9
 124:	0000048c 	andeq	r0, r0, ip, lsl #9
 128:	00000490 	muleq	r0, r0, r4
 12c:	00000494 	muleq	r0, r4, r4
 130:	00000498 	muleq	r0, r8, r4
 134:	0000049c 	muleq	r0, ip, r4
 138:	000004a4 	andeq	r0, r0, r4, lsr #9
 13c:	000004a8 	andeq	r0, r0, r8, lsr #9
	...
 148:	00000494 	muleq	r0, r4, r4
 14c:	00000498 	muleq	r0, r8, r4
 150:	0000049c 	muleq	r0, ip, r4
 154:	000004a4 	andeq	r0, r0, r4, lsr #9
 158:	000004a8 	andeq	r0, r0, r8, lsr #9
 15c:	000004b0 			; <UNDEFINED> instruction: 0x000004b0
	...
 168:	000004c0 	andeq	r0, r0, r0, asr #9
 16c:	000004c4 	andeq	r0, r0, r4, asr #9
 170:	000004c8 	andeq	r0, r0, r8, asr #9
 174:	000004cc 	andeq	r0, r0, ip, asr #9
 178:	000004d0 	ldrdeq	r0, [r0], -r0	; <UNPREDICTABLE>
 17c:	000004d4 	ldrdeq	r0, [r0], -r4
 180:	000004d8 	ldrdeq	r0, [r0], -r8
 184:	000004dc 	ldrdeq	r0, [r0], -ip
	...
 190:	000004cc 	andeq	r0, r0, ip, asr #9
 194:	000004d0 	ldrdeq	r0, [r0], -r0	; <UNPREDICTABLE>
 198:	000004d4 	ldrdeq	r0, [r0], -r4
 19c:	000004d8 	ldrdeq	r0, [r0], -r8
 1a0:	000004dc 	ldrdeq	r0, [r0], -ip
 1a4:	000004e8 	andeq	r0, r0, r8, ror #9
	...
 1b0:	000004f8 	strdeq	r0, [r0], -r8
 1b4:	000004fc 	strdeq	r0, [r0], -ip
 1b8:	00000500 	andeq	r0, r0, r0, lsl #10
 1bc:	00000504 	andeq	r0, r0, r4, lsl #10
 1c0:	00000508 	andeq	r0, r0, r8, lsl #10
 1c4:	0000050c 	andeq	r0, r0, ip, lsl #10
 1c8:	00000510 	andeq	r0, r0, r0, lsl r5
 1cc:	00000514 	andeq	r0, r0, r4, lsl r5
	...
 1d8:	00000504 	andeq	r0, r0, r4, lsl #10
 1dc:	00000508 	andeq	r0, r0, r8, lsl #10
 1e0:	0000050c 	andeq	r0, r0, ip, lsl #10
 1e4:	00000510 	andeq	r0, r0, r0, lsl r5
 1e8:	00000514 	andeq	r0, r0, r4, lsl r5
 1ec:	00000518 	andeq	r0, r0, r8, lsl r5
	...
 1f8:	0000052c 	andeq	r0, r0, ip, lsr #10
 1fc:	00000538 	andeq	r0, r0, r8, lsr r5
 200:	0000053c 	andeq	r0, r0, ip, lsr r5
 204:	00000540 	andeq	r0, r0, r0, asr #10
 208:	00000544 	andeq	r0, r0, r4, asr #10
 20c:	00000548 	andeq	r0, r0, r8, asr #10
	...
 218:	00000538 	andeq	r0, r0, r8, lsr r5
 21c:	0000053c 	andeq	r0, r0, ip, lsr r5
 220:	00000540 	andeq	r0, r0, r0, asr #10
 224:	00000544 	andeq	r0, r0, r4, asr #10
 228:	00000548 	andeq	r0, r0, r8, asr #10
 22c:	0000054c 	andeq	r0, r0, ip, asr #10
	...
 238:	00000640 	andeq	r0, r0, r0, asr #12
 23c:	00000644 	andeq	r0, r0, r4, asr #12
 240:	00000664 	andeq	r0, r0, r4, ror #12
 244:	00000668 	andeq	r0, r0, r8, ror #12
 248:	0000066c 	andeq	r0, r0, ip, ror #12
 24c:	00000674 	andeq	r0, r0, r4, ror r6
	...
 258:	000002b4 			; <UNDEFINED> instruction: 0x000002b4
 25c:	000002b8 			; <UNDEFINED> instruction: 0x000002b8
 260:	000002e8 	andeq	r0, r0, r8, ror #5
 264:	000004e0 	andeq	r0, r0, r0, ror #9
	...
 270:	00008dc4 	andeq	r8, r0, r4, asr #27
 274:	00008e38 	andeq	r8, r0, r8, lsr lr
	...

Disassembly of section .debug_line:

00000000 <.debug_line>:
       0:	000002ea 	andeq	r0, r0, sl, ror #5
       4:	01250002 	teqeq	r5, r2
       8:	01020000 	mrseq	r0, (UNDEF: 2)
       c:	000d0efb 	strdeq	r0, [sp], -fp
      10:	01010101 	tsteq	r1, r1, lsl #2
      14:	01000000 	mrseq	r0, (UNDEF: 0)
      18:	2f010000 	svccs	0x00010000
      1c:	72657355 	rsbvc	r7, r5, #1409286145	; 0x54000001
      20:	72622f73 	rsbvc	r2, r2, #460	; 0x1cc
      24:	6a6e6169 	bvs	1b985d0 <__bss_end__+0x1b8e130>
      28:	442f6e75 	strtmi	r6, [pc], #-3701	; 30 <_start-0x7fd0>
      2c:	746b7365 	strbtvc	r7, [fp], #-869	; 0x365
      30:	732f706f 	teqvc	pc, #111	; 0x6f
      34:	6f6f6863 	svcvs	0x006f6863
      38:	69572f6c 	ldmdbvs	r7, {r2, r3, r5, r6, r8, r9, sl, fp, sp}^
      3c:	7265746e 	rsbvc	r7, r5, #1845493760	; 0x6e000000
      40:	30323931 	eorscc	r3, r2, r1, lsr r9
      44:	3153432f 	cmpcc	r3, pc, lsr #6
      48:	2f453034 	svccs	0x00453034
      4c:	34317363 	ldrtcc	r7, [r1], #-867	; 0x363
      50:	322d6530 	eorcc	r6, sp, #48, 10	; 0xc000000
      54:	6e697730 	mcrvs	7, 3, r7, cr9, cr0, {1}
      58:	62696c2f 	rsbvs	r6, r9, #12032	; 0x2f00
      5c:	2f006970 	svccs	0x00006970
      60:	72657355 	rsbvc	r7, r5, #1409286145	; 0x54000001
      64:	72622f73 	rsbvc	r2, r2, #460	; 0x1cc
      68:	6a6e6169 	bvs	1b98614 <__bss_end__+0x1b8e174>
      6c:	442f6e75 	strtmi	r6, [pc], #-3701	; 74 <_start-0x7f8c>
      70:	746b7365 	strbtvc	r7, [fp], #-869	; 0x365
      74:	732f706f 	teqvc	pc, #111	; 0x6f
      78:	6f6f6863 	svcvs	0x006f6863
      7c:	69572f6c 	ldmdbvs	r7, {r2, r3, r5, r6, r8, r9, sl, fp, sp}^
      80:	7265746e 	rsbvc	r7, r5, #1845493760	; 0x6e000000
      84:	30323931 	eorscc	r3, r2, r1, lsr r9
      88:	3153432f 	cmpcc	r3, pc, lsr #6
      8c:	2f453034 	svccs	0x00453034
      90:	34317363 	ldrtcc	r7, [r1], #-867	; 0x363
      94:	322d6530 	eorcc	r6, sp, #48, 10	; 0xc000000
      98:	6e697730 	mcrvs	7, 3, r7, cr9, cr0, {1}
      9c:	62696c2f 	rsbvs	r6, r9, #12032	; 0x2f00
      a0:	632f6970 	teqvs	pc, #112, 18	; 0x1c0000
      a4:	30343173 	eorscc	r3, r4, r3, ror r1
      a8:	72732d65 	rsbsvc	r2, r3, #6464	; 0x1940
      ac:	752f0063 	strvc	r0, [pc, #-99]!	; 51 <_start-0x7faf>
      b0:	6c2f7273 	sfmvs	f7, 4, [pc], #-460	; fffffeec <__bss_end__+0xffff5a4c>
      b4:	6c61636f 	stclvs	3, cr6, [r1], #-444	; 0xfffffe44
      b8:	6c65432f 	stclvs	3, cr4, [r5], #-188	; 0xffffff44
      bc:	2f72616c 	svccs	0x0072616c
      c0:	2d6d7261 	sfmcs	f7, 2, [sp, #-388]!	; 0xfffffe7c
      c4:	656e6f6e 	strbvs	r6, [lr, #-3950]!	; 0xf6e
      c8:	6261652d 	rsbvs	r6, r1, #188743680	; 0xb400000
      cc:	2e342f69 	cdpcs	15, 3, cr2, cr4, cr9, {3}
      d0:	2d332e38 	ldccs	14, cr2, [r3, #-224]!	; 0xffffff20
      d4:	37317363 	ldrcc	r7, [r1, -r3, ror #6]!
      d8:	6c2f6530 	cfstr32vs	mvfx6, [pc], #-192	; 20 <_start-0x7fe0>
      dc:	672f6269 	strvs	r6, [pc, -r9, ror #4]!
      e0:	612f6363 	teqvs	pc, r3, ror #6
      e4:	6e2d6d72 	mcrvs	13, 1, r6, cr13, cr2, {3}
      e8:	2d656e6f 	stclcs	14, cr6, [r5, #-444]!	; 0xfffffe44
      ec:	69626165 	stmdbvs	r2!, {r0, r2, r5, r6, r8, sp, lr}^
      f0:	382e342f 	stmdacc	lr!, {r0, r1, r2, r3, r5, sl, ip, sp}
      f4:	692f332e 	stmdbvs	pc!, {r1, r2, r3, r5, r8, r9, ip, sp}	; <UNPREDICTABLE>
      f8:	756c636e 	strbvc	r6, [ip, #-878]!	; 0x36e
      fc:	00006564 	andeq	r6, r0, r4, ror #10
     100:	706f6373 	rsbvc	r6, pc, r3, ror r3	; <UNPREDICTABLE>
     104:	00632e65 	rsbeq	r2, r3, r5, ror #28
     108:	72000000 	andvc	r0, r0, #0
     10c:	682e6970 	stmdavs	lr!, {r4, r5, r6, r8, fp, sp, lr}
     110:	00000100 	andeq	r0, r0, r0, lsl #2
     114:	6f697067 	svcvs	0x00697067
     118:	0200682e 	andeq	r6, r0, #3014656	; 0x2e0000
     11c:	74730000 	ldrbtvc	r0, [r3], #-0
     120:	746e6964 	strbtvc	r6, [lr], #-2404	; 0x964
     124:	6363672d 	cmnvs	r3, #11796480	; 0xb40000
     128:	0300682e 	movweq	r6, #2094	; 0x82e
     12c:	00000000 	andeq	r0, r0, r0
     130:	80100205 	andshi	r0, r0, r5, lsl #4
     134:	c6030000 	strgt	r0, [r3], -r0
     138:	0f030100 	svceq	0x00030100
     13c:	9f2f852e 	svcls	0x002f852e
     140:	83672d2f 	cmnhi	r7, #3008	; 0xbc0
     144:	83672d2f 	cmnhi	r7, #3008	; 0xbc0
     148:	83672d2f 	cmnhi	r7, #3008	; 0xbc0
     14c:	83672d2f 	cmnhi	r7, #3008	; 0xbc0
     150:	83672d2f 	cmnhi	r7, #3008	; 0xbc0
     154:	83672d2f 	cmnhi	r7, #3008	; 0xbc0
     158:	83672d2f 	cmnhi	r7, #3008	; 0xbc0
     15c:	85672d2f 	strbhi	r2, [r7, #-3375]!	; 0xd2f
     160:	2f2f2f2c 	svccs	0x002f2f2c
     164:	03322f2f 	teqeq	r2, #47, 30	; 0xbc
     168:	13900845 	orrsne	r0, r0, #4521984	; 0x450000
     16c:	2f2f2f2d 	svccs	0x002f2f2d
     170:	02003067 	andeq	r3, r0, #103	; 0x67
     174:	03450104 	movteq	r0, #20740	; 0x5104
     178:	033c080d 	teqeq	ip, #851968	; 0xd0000
     17c:	02002e0f 	andeq	r2, r0, #15, 28	; 0xf0
     180:	2e060104 	adfcss	f0, f6, f4
     184:	002f6906 	eoreq	r6, pc, r6, lsl #18
     188:	06010402 	streq	r0, [r1], -r2, lsl #8
     18c:	2f83062e 	svccs	0x0083062e
     190:	0402002d 	streq	r0, [r2], #-45	; 0x2d
     194:	2f836701 	svccs	0x00836701
     198:	0402002d 	streq	r0, [r2], #-45	; 0x2d
     19c:	2f836701 	svccs	0x00836701
     1a0:	0402002d 	streq	r0, [r2], #-45	; 0x2d
     1a4:	2f836701 	svccs	0x00836701
     1a8:	0402002d 	streq	r0, [r2], #-45	; 0x2d
     1ac:	2f836701 	svccs	0x00836701
     1b0:	0402002d 	streq	r0, [r2], #-45	; 0x2d
     1b4:	2f836701 	svccs	0x00836701
     1b8:	0402002d 	streq	r0, [r2], #-45	; 0x2d
     1bc:	2f836701 	svccs	0x00836701
     1c0:	0402002d 	streq	r0, [r2], #-45	; 0x2d
     1c4:	2f836701 	svccs	0x00836701
     1c8:	0402002d 	streq	r0, [r2], #-45	; 0x2d
     1cc:	2c856701 	stccs	7, cr6, [r5], {1}
     1d0:	2f2f2f2f 	svccs	0x002f2f2f
     1d4:	9308322f 	movwls	r3, #33327	; 0x822f
     1d8:	7fa90330 	svcvc	0x00a90330
     1dc:	0402002e 	streq	r0, [r2], #-46	; 0x2e
     1e0:	00ec0301 	rsceq	r0, ip, r1, lsl #6
     1e4:	7f8f03ba 	svcvc	0x008f03ba
     1e8:	2e0b0382 	cdpcs	3, 0, cr0, cr11, cr2, {4}
     1ec:	332e7503 	teqcc	lr, #12582912	; 0xc00000
     1f0:	33293329 	teqcc	r9, #-1543503872	; 0xa4000000
     1f4:	01040200 	mrseq	r0, R12_usr
     1f8:	4a00ee03 	bmi	3ba0c <__bss_end__+0x3156c>
     1fc:	827f8d03 	rsbshi	r8, pc, #3, 26	; 0xc0
     200:	032e0b03 	teqeq	lr, #3072	; 0xc00
     204:	29332e75 	ldmdbcs	r3!, {r0, r2, r4, r5, r6, r9, sl, fp, sp}
     208:	00332933 	eorseq	r2, r3, r3, lsr r9
     20c:	03010402 	movweq	r0, #5122	; 0x1402
     210:	034a00f0 	movteq	r0, #41200	; 0xa0f0
     214:	03827f8b 	orreq	r7, r2, #556	; 0x22c
     218:	75032e0b 	strvc	r2, [r3, #-3595]	; 0xe0b
     21c:	3329332e 	teqcc	r9, #-1207959552	; 0xb8000000
     220:	02003329 	andeq	r3, r0, #-1543503872	; 0xa4000000
     224:	f2030104 	vrhadd.s8	d0, d3, d4
     228:	89034a00 	stmdbhi	r3, {r9, fp, lr}
     22c:	0b03827f 	bleq	e0c30 <__bss_end__+0xd6790>
     230:	2e75032e 	cdpcs	3, 7, cr0, cr5, cr14, {1}
     234:	29332933 	ldmdbcs	r3!, {r0, r1, r4, r5, r8, fp, sp}
     238:	04020033 	streq	r0, [r2], #-51	; 0x33
     23c:	00f40301 	rscseq	r0, r4, r1, lsl #6
     240:	7f87034a 	svcvc	0x0087034a
     244:	2e0b0382 	cdpcs	3, 0, cr0, cr11, cr2, {4}
     248:	332e7503 	teqcc	lr, #12582912	; 0xc00000
     24c:	33453329 	movtcc	r3, #21289	; 0x5329
     250:	01040200 	mrseq	r0, R12_usr
     254:	4a00f603 	bmi	3da68 <__bss_end__+0x335c8>
     258:	827f8503 	rsbshi	r8, pc, #12582912	; 0xc00000
     25c:	032e0b03 	teqeq	lr, #3072	; 0xc00
     260:	29332e75 	ldmdbcs	r3!, {r0, r2, r4, r5, r6, r9, sl, fp, sp}
     264:	00332933 	eorseq	r2, r3, r3, lsr r9
     268:	03010402 	movweq	r0, #5122	; 0x1402
     26c:	036600f8 	cmneq	r6, #248	; 0xf8
     270:	03827f83 	orreq	r7, r2, #524	; 0x20c
     274:	75032e0b 	strvc	r2, [r3, #-3595]	; 0xe0b
     278:	3329332e 	teqcc	r9, #-1207959552	; 0xb8000000
     27c:	02003329 	andeq	r3, r0, #-1543503872	; 0xa4000000
     280:	fa030104 	blx	c0698 <__bss_end__+0xb61f8>
     284:	8c032e00 	stchi	14, cr2, [r3], {-0}
     288:	7503827f 	strvc	r8, [r3, #-639]	; 0x27f
     28c:	33296b2e 	teqcc	r9, #47104	; 0xb800
     290:	02003329 	andeq	r3, r0, #-1543503872	; 0xa4000000
     294:	fc030104 	stc2	1, cr0, [r3], {4}
     298:	ff032e00 			; <UNDEFINED> instruction: 0xff032e00
     29c:	0200827e 	andeq	r8, r0, #-536870905	; 0xe0000007
     2a0:	83030104 	movwhi	r0, #12548	; 0x3104
     2a4:	3183ba01 	orrcc	fp, r3, r1, lsl #20
     2a8:	31662b03 	cmncc	r6, r3, lsl #22
     2ac:	4c2f4b4b 	stcmi	11, cr4, [pc], #-300	; 188 <_start-0x7e78>
     2b0:	4f825103 	svcmi	0x00825103
     2b4:	4c30802d 	ldcmi	0, cr8, [r0], #-180	; 0xffffff4c
     2b8:	7d30674c 	ldcvc	7, cr6, [r0, #-304]!	; 0xfffffed0
     2bc:	03362a32 	teqeq	r6, #204800	; 0x32000
     2c0:	5e036626 	cfmadd32pl	mvax1, mvfx6, mvfx3, mvfx6
     2c4:	e2034b2e 	and	r4, r3, #47104	; 0xb800
     2c8:	a2034a7e 	andge	r4, r3, #516096	; 0x7e000
     2cc:	83322e01 	teqhi	r2, #1, 28
     2d0:	667ed903 	ldrbtvs	sp, [lr], -r3, lsl #18
     2d4:	2e01a803 	cdpcs	8, 0, cr10, cr1, cr3, {0}
     2d8:	2e7ed803 	cdpcs	8, 7, cr13, cr14, cr3, {0}
     2dc:	4a01ab03 	bmi	6aef0 <__bss_end__+0x60a50>
     2e0:	82780367 	rsbshi	r0, r8, #-1677721599	; 0x9c000001
     2e4:	0b032933 	bleq	ca7b8 <__bss_end__+0xc0318>
     2e8:	001a022e 	andseq	r0, sl, lr, lsr #4
     2ec:	01020101 	tsteq	r2, r1, lsl #2
     2f0:	00020000 	andeq	r0, r2, r0
     2f4:	000000eb 	andeq	r0, r0, fp, ror #1
     2f8:	0efb0102 	cdpeq	1, 15, cr0, cr11, cr2, {0}
     2fc:	0101000d 	tsteq	r1, sp
     300:	00000101 	andeq	r0, r0, r1, lsl #2
     304:	00000100 	andeq	r0, r0, r0, lsl #2
     308:	62696c01 	rsbvs	r6, r9, #256	; 0x100
     30c:	752f0063 	strvc	r0, [pc, #-99]!	; 2b1 <_start-0x7d4f>
     310:	6c2f7273 	sfmvs	f7, 4, [pc], #-460	; 14c <_start-0x7eb4>
     314:	6c61636f 	stclvs	3, cr6, [r1], #-444	; 0xfffffe44
     318:	6c65432f 	stclvs	3, cr4, [r5], #-188	; 0xffffff44
     31c:	2f72616c 	svccs	0x0072616c
     320:	2d6d7261 	sfmcs	f7, 2, [sp, #-388]!	; 0xfffffe7c
     324:	656e6f6e 	strbvs	r6, [lr, #-3950]!	; 0xf6e
     328:	6261652d 	rsbvs	r6, r1, #188743680	; 0xb400000
     32c:	2e342f69 	cdpcs	15, 3, cr2, cr4, cr9, {3}
     330:	2d332e38 	ldccs	14, cr2, [r3, #-224]!	; 0xffffff20
     334:	37317363 	ldrcc	r7, [r1, -r3, ror #6]!
     338:	6c2f6530 	cfstr32vs	mvfx6, [pc], #-192	; 280 <_start-0x7d80>
     33c:	672f6269 	strvs	r6, [pc, -r9, ror #4]!
     340:	612f6363 	teqvs	pc, r3, ror #6
     344:	6e2d6d72 	mcrvs	13, 1, r6, cr13, cr2, {3}
     348:	2d656e6f 	stclcs	14, cr6, [r5, #-444]!	; 0xfffffe44
     34c:	69626165 	stmdbvs	r2!, {r0, r2, r5, r6, r8, sp, lr}^
     350:	382e342f 	stmdacc	lr!, {r0, r1, r2, r3, r5, sl, ip, sp}
     354:	692f332e 	stmdbvs	pc!, {r1, r2, r3, r5, r8, r9, ip, sp}	; <UNPREDICTABLE>
     358:	756c636e 	strbvc	r6, [ip, #-878]!	; 0x36e
     35c:	2f006564 	svccs	0x00006564
     360:	72657355 	rsbvc	r7, r5, #1409286145	; 0x54000001
     364:	72622f73 	rsbvc	r2, r2, #460	; 0x1cc
     368:	6a6e6169 	bvs	1b98914 <__bss_end__+0x1b8e474>
     36c:	442f6e75 	strtmi	r6, [pc], #-3701	; 374 <_start-0x7c8c>
     370:	746b7365 	strbtvc	r7, [fp], #-869	; 0x365
     374:	732f706f 	teqvc	pc, #111	; 0x6f
     378:	6f6f6863 	svcvs	0x006f6863
     37c:	69572f6c 	ldmdbvs	r7, {r2, r3, r5, r6, r8, r9, sl, fp, sp}^
     380:	7265746e 	rsbvc	r7, r5, #1845493760	; 0x6e000000
     384:	30323931 	eorscc	r3, r2, r1, lsr r9
     388:	3153432f 	cmpcc	r3, pc, lsr #6
     38c:	2f453034 	svccs	0x00453034
     390:	34317363 	ldrtcc	r7, [r1], #-867	; 0x363
     394:	322d6530 	eorcc	r6, sp, #48, 10	; 0xc000000
     398:	6e697730 	mcrvs	7, 3, r7, cr9, cr0, {1}
     39c:	62696c2f 	rsbvs	r6, r9, #12032	; 0x2f00
     3a0:	00006970 	andeq	r6, r0, r0, ror r9
     3a4:	6e697270 	mcrvs	2, 3, r7, cr9, cr0, {3}
     3a8:	632e6b74 	teqvs	lr, #116, 22	; 0x1d000
     3ac:	00000100 	andeq	r0, r0, r0, lsl #2
     3b0:	61647473 	smcvs	18243	; 0x4743
     3b4:	682e6772 	stmdavs	lr!, {r1, r4, r5, r6, r8, r9, sl, sp, lr}
     3b8:	00000200 	andeq	r0, r0, r0, lsl #4
     3bc:	6975623c 	ldmdbvs	r5!, {r2, r3, r4, r5, r9, sp, lr}^
     3c0:	692d746c 	pushvs	{r2, r3, r5, r6, sl, ip, sp, lr}
     3c4:	00003e6e 	andeq	r3, r0, lr, ror #28
     3c8:	70720000 	rsbsvc	r0, r2, r0
     3cc:	00682e69 	rsbeq	r2, r8, r9, ror #28
     3d0:	76000003 	strvc	r0, [r0], -r3
     3d4:	72702d61 	rsbsvc	r2, r0, #6208	; 0x1840
     3d8:	6b746e69 	blvs	1d1bd84 <__bss_end__+0x1d118e4>
     3dc:	0100682e 	tsteq	r0, lr, lsr #16
     3e0:	00000000 	andeq	r0, r0, r0
     3e4:	86e00205 	strbthi	r0, [r0], r5, lsl #4
     3e8:	6b170000 	blvs	5c03f0 <__bss_end__+0x5b5f50>
     3ec:	0289bf4b 	addeq	fp, r9, #300	; 0x12c
     3f0:	0101000e 	tsteq	r1, lr
     3f4:	0000008a 	andeq	r0, r0, sl, lsl #1
     3f8:	00720002 	rsbseq	r0, r2, r2
     3fc:	01020000 	mrseq	r0, (UNDEF: 2)
     400:	000d0efb 	strdeq	r0, [sp], -fp
     404:	01010101 	tsteq	r1, r1, lsl #2
     408:	01000000 	mrseq	r0, (UNDEF: 0)
     40c:	6c010000 	stcvs	0, cr0, [r1], {-0}
     410:	00636269 	rsbeq	r6, r3, r9, ror #4
     414:	6573552f 	ldrbvs	r5, [r3, #-1327]!	; 0x52f
     418:	622f7372 	eorvs	r7, pc, #-939524095	; 0xc8000001
     41c:	6e616972 	mcrvs	9, 3, r6, cr1, cr2, {3}
     420:	2f6e756a 	svccs	0x006e756a
     424:	6b736544 	blvs	1cd993c <__bss_end__+0x1ccf49c>
     428:	2f706f74 	svccs	0x00706f74
     42c:	6f686373 	svcvs	0x00686373
     430:	572f6c6f 	strpl	r6, [pc, -pc, ror #24]!
     434:	65746e69 	ldrbvs	r6, [r4, #-3689]!	; 0xe69
     438:	32393172 	eorscc	r3, r9, #-2147483620	; 0x8000001c
     43c:	53432f30 	movtpl	r2, #16176	; 0x3f30
     440:	45303431 	ldrmi	r3, [r0, #-1073]!	; 0x431
     444:	3173632f 	cmncc	r3, pc, lsr #6
     448:	2d653034 	stclcs	0, cr3, [r5, #-208]!	; 0xffffff30
     44c:	69773032 	ldmdbvs	r7!, {r1, r4, r5, ip, sp}^
     450:	696c2f6e 	stmdbvs	ip!, {r1, r2, r3, r5, r6, r8, r9, sl, fp, sp}^
     454:	00697062 	rsbeq	r7, r9, r2, rrx
     458:	74757000 	ldrbtvc	r7, [r5], #-0
     45c:	72616863 	rsbvc	r6, r1, #6488064	; 0x630000
     460:	0100632e 	tsteq	r0, lr, lsr #6
     464:	70720000 	rsbsvc	r0, r2, r0
     468:	00682e69 	rsbeq	r2, r8, r9, ror #28
     46c:	00000002 	andeq	r0, r0, r2
     470:	38020500 	stmdacc	r2, {r8, sl}
     474:	14000087 	strne	r0, [r0], #-135	; 0x87
     478:	bc136b4a 	ldclt	11, cr6, [r3], {74}	; 0x4a
     47c:	00080213 	andeq	r0, r8, r3, lsl r2
     480:	00960101 	addseq	r0, r6, r1, lsl #2
     484:	00020000 	andeq	r0, r2, r0
     488:	0000006f 	andeq	r0, r0, pc, rrx
     48c:	0efb0102 	cdpeq	1, 15, cr0, cr11, cr2, {0}
     490:	0101000d 	tsteq	r1, sp
     494:	00000101 	andeq	r0, r0, r1, lsl #2
     498:	00000100 	andeq	r0, r0, r0, lsl #2
     49c:	62696c01 	rsbvs	r6, r9, #256	; 0x100
     4a0:	552f0063 	strpl	r0, [pc, #-99]!	; 445 <_start-0x7bbb>
     4a4:	73726573 	cmnvc	r2, #482344960	; 0x1cc00000
     4a8:	6972622f 	ldmdbvs	r2!, {r0, r1, r2, r3, r5, r9, sp, lr}^
     4ac:	756a6e61 	strbvc	r6, [sl, #-3681]!	; 0xe61
     4b0:	65442f6e 	strbvs	r2, [r4, #-3950]	; 0xf6e
     4b4:	6f746b73 	svcvs	0x00746b73
     4b8:	63732f70 	cmnvs	r3, #112, 30	; 0x1c0
     4bc:	6c6f6f68 	stclvs	15, cr6, [pc], #-416	; 324 <_start-0x7cdc>
     4c0:	6e69572f 	cdpvs	7, 6, cr5, cr9, cr15, {1}
     4c4:	31726574 	cmncc	r2, r4, ror r5
     4c8:	2f303239 	svccs	0x00303239
     4cc:	34315343 	ldrtcc	r5, [r1], #-835	; 0x343
     4d0:	632f4530 	teqvs	pc, #48, 10	; 0xc000000
     4d4:	30343173 	eorscc	r3, r4, r3, ror r1
     4d8:	30322d65 	eorscc	r2, r2, r5, ror #26
     4dc:	2f6e6977 	svccs	0x006e6977
     4e0:	7062696c 	rsbvc	r6, r2, ip, ror #18
     4e4:	70000069 	andvc	r0, r0, r9, rrx
     4e8:	2e6b7475 	mcrcs	4, 3, r7, cr11, cr5, {3}
     4ec:	00010063 	andeq	r0, r1, r3, rrx
     4f0:	69707200 	ldmdbvs	r0!, {r9, ip, sp, lr}^
     4f4:	0200682e 	andeq	r6, r0, #3014656	; 0x2e0000
     4f8:	00000000 	andeq	r0, r0, r0
     4fc:	87740205 	ldrbhi	r0, [r4, -r5, lsl #4]!
     500:	4c150000 	ldcmi	0, cr0, [r5], {-0}
     504:	0402002d 	streq	r0, [r2], #-45	; 0x2d
     508:	02002f02 	andeq	r2, r0, #2, 30
     50c:	00490204 	subeq	r0, r9, r4, lsl #4
     510:	06010402 	streq	r0, [r1], -r2, lsl #8
     514:	026b062e 	rsbeq	r0, fp, #48234496	; 0x2e00000
     518:	01010006 	tsteq	r1, r6
     51c:	000001e2 	andeq	r0, r0, r2, ror #3
     520:	00df0002 	sbcseq	r0, pc, r2
     524:	01020000 	mrseq	r0, (UNDEF: 2)
     528:	000d0efb 	strdeq	r0, [sp], -fp
     52c:	01010101 	tsteq	r1, r1, lsl #2
     530:	01000000 	mrseq	r0, (UNDEF: 0)
     534:	6c010000 	stcvs	0, cr0, [r1], {-0}
     538:	00636269 	rsbeq	r6, r3, r9, ror #4
     53c:	7273752f 	rsbsvc	r7, r3, #197132288	; 0xbc00000
     540:	636f6c2f 	cmnvs	pc, #12032	; 0x2f00
     544:	432f6c61 	teqmi	pc, #24832	; 0x6100
     548:	616c6c65 	cmnvs	ip, r5, ror #24
     54c:	72612f72 	rsbvc	r2, r1, #456	; 0x1c8
     550:	6f6e2d6d 	svcvs	0x006e2d6d
     554:	652d656e 	strvs	r6, [sp, #-1390]!	; 0x56e
     558:	2f696261 	svccs	0x00696261
     55c:	2e382e34 	mrccs	14, 1, r2, cr8, cr4, {1}
     560:	73632d33 	cmnvc	r3, #3264	; 0xcc0
     564:	65303731 	ldrvs	r3, [r0, #-1841]!	; 0x731
     568:	62696c2f 	rsbvs	r6, r9, #12032	; 0x2f00
     56c:	6363672f 	cmnvs	r3, #12320768	; 0xbc0000
     570:	6d72612f 	ldfvse	f6, [r2, #-188]!	; 0xffffff44
     574:	6e6f6e2d 	cdpvs	14, 6, cr6, cr15, cr13, {1}
     578:	61652d65 	cmnvs	r5, r5, ror #26
     57c:	342f6962 	strtcc	r6, [pc], #-2402	; 584 <_start-0x7a7c>
     580:	332e382e 	teqcc	lr, #3014656	; 0x2e0000
     584:	636e692f 	cmnvs	lr, #770048	; 0xbc000
     588:	6564756c 	strbvs	r7, [r4, #-1388]!	; 0x56c
     58c:	73552f00 	cmpvc	r5, #0, 30
     590:	2f737265 	svccs	0x00737265
     594:	61697262 	cmnvs	r9, r2, ror #4
     598:	6e756a6e 	vsubvs.f32	s13, s10, s29
     59c:	7365442f 	cmnvc	r5, #788529152	; 0x2f000000
     5a0:	706f746b 	rsbvc	r7, pc, fp, ror #8
     5a4:	6863732f 	stmdavs	r3!, {r0, r1, r2, r3, r5, r8, r9, ip, sp, lr}^
     5a8:	2f6c6f6f 	svccs	0x006c6f6f
     5ac:	746e6957 	strbtvc	r6, [lr], #-2391	; 0x957
     5b0:	39317265 	ldmdbcc	r1!, {r0, r2, r5, r6, r9, ip, sp, lr}
     5b4:	432f3032 	teqmi	pc, #50	; 0x32
     5b8:	30343153 	eorscc	r3, r4, r3, asr r1
     5bc:	73632f45 	cmnvc	r3, #276	; 0x114
     5c0:	65303431 	ldrvs	r3, [r0, #-1073]!	; 0x431
     5c4:	7730322d 	ldrvc	r3, [r0, -sp, lsr #4]!
     5c8:	6c2f6e69 	stcvs	14, cr6, [pc], #-420	; 42c <_start-0x7bd4>
     5cc:	69706269 	ldmdbvs	r0!, {r0, r3, r5, r6, r9, sp, lr}^
     5d0:	61760000 	cmnvs	r6, r0
     5d4:	6972702d 	ldmdbvs	r2!, {r0, r2, r3, r5, ip, sp, lr}^
     5d8:	2e6b746e 	cdpcs	4, 6, cr7, cr11, cr14, {3}
     5dc:	00010063 	andeq	r0, r1, r3, rrx
     5e0:	64747300 	ldrbtvs	r7, [r4], #-768	; 0x300
     5e4:	2e677261 	cdpcs	2, 6, cr7, cr7, cr1, {3}
     5e8:	00020068 	andeq	r0, r2, r8, rrx
     5ec:	69707200 	ldmdbvs	r0!, {r9, ip, sp, lr}^
     5f0:	0300682e 	movweq	r6, #2094	; 0x82e
     5f4:	623c0000 	eorsvs	r0, ip, #0
     5f8:	746c6975 	strbtvc	r6, [ip], #-2421	; 0x975
     5fc:	3e6e692d 	cdpcc	9, 6, cr6, cr14, cr13, {1}
     600:	00000000 	andeq	r0, r0, r0
     604:	02050000 	andeq	r0, r5, #0
     608:	000087a8 	andeq	r8, r0, r8, lsr #15
     60c:	01012603 	tsteq	r1, r3, lsl #12
     610:	2d3113a5 	ldccs	3, cr1, [r1, #-660]!	; 0xfffffd6c
     614:	02040200 	andeq	r0, r4, #0, 4
     618:	0402002f 	streq	r0, [r2], #-47	; 0x2f
     61c:	02002d02 	andeq	r2, r0, #2, 26	; 0x80
     620:	002f0204 	eoreq	r0, pc, r4, lsl #4
     624:	2d010402 	cfstrscs	mvf0, [r1, #-8]
     628:	14304c4c 	ldrtne	r4, [r0], #-3148	; 0xc4c
     62c:	004f2f4b 	subeq	r2, pc, fp, asr #30
     630:	67020402 	strvs	r0, [r2, -r2, lsl #8]
     634:	01040200 	mrseq	r0, R12_usr
     638:	304d4c65 	subcc	r4, sp, r5, ror #24
     63c:	30312fa0 	eorscc	r2, r1, r0, lsr #31
     640:	84162602 	ldrhi	r2, [r6], #-1538	; 0x602
     644:	02002c2d 	andeq	r2, r0, #11520	; 0x2d00
     648:	00300104 	eorseq	r0, r0, r4, lsl #2
     64c:	33010402 	movwcc	r0, #5122	; 0x1402
     650:	02006606 	andeq	r6, r0, #6291456	; 0x600000
     654:	002e0104 	eoreq	r0, lr, r4, lsl #2
     658:	06010402 	streq	r0, [r1], -r2, lsl #8
     65c:	2f672108 	svccs	0x00672108
     660:	03827303 	orreq	r7, r2, #201326592	; 0xc000000
     664:	02002e13 	andeq	r2, r0, #304	; 0x130
     668:	2e060104 	adfcss	f0, f6, f4
     66c:	01040200 	mrseq	r0, R12_usr
     670:	4b6a9f06 	blmi	1aa8290 <__bss_end__+0x1a9ddf0>
     674:	032e6703 	teqeq	lr, #786432	; 0xc0000
     678:	02002e21 	andeq	r2, r0, #528	; 0x210
     67c:	2e060104 	adfcss	f0, f6, f4
     680:	01040200 	mrseq	r0, R12_usr
     684:	02009f06 	andeq	r9, r0, #6, 30
     688:	086a0104 	stmdaeq	sl!, {r2, r8}^
     68c:	a603f323 	strge	pc, [r3], -r3, lsr #6
     690:	4b3c087f 	blmi	f02894 <__bss_end__+0xef83f4>
     694:	01040200 	mrseq	r0, R12_usr
     698:	08064a06 	stmdaeq	r6, {r1, r2, r9, fp, lr}
     69c:	4b2f4b21 	blmi	bd3328 <__bss_end__+0xbc8e88>
     6a0:	f200d903 	vmla.i8	d13, d0, d3
     6a4:	03484c83 	movteq	r4, #35971	; 0x8c83
     6a8:	75032e0e 	strvc	r2, [r3, #-3598]	; 0xe0e
     6ac:	842f2f2e 	strthi	r2, [pc], #-3886	; 6b4 <_start-0x794c>
     6b0:	4d2d2f4b 	stcmi	15, cr2, [sp, #-300]!	; 0xfffffed4
     6b4:	832f3031 	teqhi	pc, #49	; 0x31
     6b8:	01040200 	mrseq	r0, R12_usr
     6bc:	0200a22c 	andeq	sl, r0, #44, 4	; 0xc0000002
     6c0:	4a060104 	bmi	180ad8 <__bss_end__+0x176638>
     6c4:	02220806 	eoreq	r0, r2, #393216	; 0x60000
     6c8:	0e031636 	mcreq	6, 0, r1, cr3, cr6, {1}
     6cc:	302108d6 	ldrdcc	r0, [r1], -r6	; <UNPREDICTABLE>
     6d0:	30f331f3 	ldrshtcc	r3, [r3], #19
     6d4:	304b30f3 	strdcc	r3, [fp], #-3
     6d8:	230830f3 	movwcs	r3, #33011	; 0x80f3
     6dc:	02002f31 	andeq	r2, r0, #49, 30	; 0xc4
     6e0:	00650104 	rsbeq	r0, r5, r4, lsl #2
     6e4:	06020402 	streq	r0, [r2], -r2, lsl #8
     6e8:	0402004a 	streq	r0, [r2], #-74	; 0x4a
     6ec:	42030601 	andmi	r0, r3, #1048576	; 0x100000
     6f0:	04020066 	streq	r0, [r2], #-102	; 0x66
     6f4:	06660602 	strbteq	r0, [r6], -r2, lsl #12
     6f8:	4a00c203 	bmi	30f0c <__bss_end__+0x26a6c>
     6fc:	00120268 	andseq	r0, r2, r8, ror #4
     700:	00430101 	subeq	r0, r3, r1, lsl #2
     704:	00020000 	andeq	r0, r2, r0
     708:	00000029 	andeq	r0, r0, r9, lsr #32
     70c:	0efb0102 	cdpeq	1, 15, cr0, cr11, cr2, {0}
     710:	0101000d 	tsteq	r1, sp
     714:	00000101 	andeq	r0, r0, r1, lsl #2
     718:	00000100 	andeq	r0, r0, r0, lsl #2
     71c:	31736301 	cmncc	r3, r1, lsl #6
     720:	2d653034 	stclcs	0, cr3, [r5, #-208]!	; 0xffffff30
     724:	00637273 	rsbeq	r7, r3, r3, ror r2
     728:	63616300 	cmnvs	r1, #0, 6
     72c:	632e6568 	teqvs	lr, #104, 10	; 0x1a000000
     730:	00000100 	andeq	r0, r0, r0, lsl #2
     734:	02050000 	andeq	r0, r5, #0
     738:	00008ccc 	andeq	r8, r0, ip, asr #25
     73c:	2f301414 	svccs	0x00301414
     740:	2f31144e 	svccs	0x0031144e
     744:	01000402 	tsteq	r0, r2, lsl #8
     748:	00009301 	andeq	r9, r0, r1, lsl #6
     74c:	7d000200 	sfmvc	f0, 4, [r0, #-0]
     750:	02000000 	andeq	r0, r0, #0
     754:	0d0efb01 	vstreq	d15, [lr, #-4]
     758:	01010100 	mrseq	r0, (UNDEF: 17)
     75c:	00000001 	andeq	r0, r0, r1
     760:	01000001 	tsteq	r0, r1
     764:	34317363 	ldrtcc	r7, [r1], #-867	; 0x363
     768:	732d6530 	teqvc	sp, #48, 10	; 0xc000000
     76c:	2f006372 	svccs	0x00006372
     770:	72657355 	rsbvc	r7, r5, #1409286145	; 0x54000001
     774:	72622f73 	rsbvc	r2, r2, #460	; 0x1cc
     778:	6a6e6169 	bvs	1b98d24 <__bss_end__+0x1b8e884>
     77c:	442f6e75 	strtmi	r6, [pc], #-3701	; 784 <_start-0x787c>
     780:	746b7365 	strbtvc	r7, [fp], #-869	; 0x365
     784:	732f706f 	teqvc	pc, #111	; 0x6f
     788:	6f6f6863 	svcvs	0x006f6863
     78c:	69572f6c 	ldmdbvs	r7, {r2, r3, r5, r6, r8, r9, sl, fp, sp}^
     790:	7265746e 	rsbvc	r7, r5, #1845493760	; 0x6e000000
     794:	30323931 	eorscc	r3, r2, r1, lsr r9
     798:	3153432f 	cmpcc	r3, pc, lsr #6
     79c:	2f453034 	svccs	0x00453034
     7a0:	34317363 	ldrtcc	r7, [r1], #-867	; 0x363
     7a4:	322d6530 	eorcc	r6, sp, #48, 10	; 0xc000000
     7a8:	6e697730 	mcrvs	7, 3, r7, cr9, cr0, {1}
     7ac:	62696c2f 	rsbvs	r6, r9, #12032	; 0x2f00
     7b0:	00006970 	andeq	r6, r0, r0, ror r9
     7b4:	61656c63 	cmnvs	r5, r3, ror #24
     7b8:	65722d6e 	ldrbvs	r2, [r2, #-3438]!	; 0xd6e
     7bc:	746f6f62 	strbtvc	r6, [pc], #-3938	; 7c4 <_start-0x783c>
     7c0:	0100632e 	tsteq	r0, lr, lsr #6
     7c4:	70720000 	rsbsvc	r0, r2, r0
     7c8:	00682e69 	rsbeq	r2, r8, r9, ror #28
     7cc:	00000002 	andeq	r0, r0, r2
     7d0:	ec020500 	cfstr32	mvfx0, [r2], {-0}
     7d4:	1500008c 	strne	r0, [r0, #-140]	; 0x8c
     7d8:	024b832f 	subeq	r8, fp, #-1140850688	; 0xbc000000
     7dc:	01010006 	tsteq	r1, r6
     7e0:	00000121 	andeq	r0, r0, r1, lsr #2
     7e4:	00f80002 	rscseq	r0, r8, r2
     7e8:	01020000 	mrseq	r0, (UNDEF: 2)
     7ec:	000d0efb 	strdeq	r0, [sp], -fp
     7f0:	01010101 	tsteq	r1, r1, lsl #2
     7f4:	01000000 	mrseq	r0, (UNDEF: 0)
     7f8:	63010000 	movwvs	r0, #4096	; 0x1000
     7fc:	30343173 	eorscc	r3, r4, r3, ror r1
     800:	72732d65 	rsbsvc	r2, r3, #6464	; 0x1940
     804:	752f0063 	strvc	r0, [pc, #-99]!	; 7a9 <_start-0x7857>
     808:	6c2f7273 	sfmvs	f7, 4, [pc], #-460	; 644 <_start-0x79bc>
     80c:	6c61636f 	stclvs	3, cr6, [r1], #-444	; 0xfffffe44
     810:	6c65432f 	stclvs	3, cr4, [r5], #-188	; 0xffffff44
     814:	2f72616c 	svccs	0x0072616c
     818:	2d6d7261 	sfmcs	f7, 2, [sp, #-388]!	; 0xfffffe7c
     81c:	656e6f6e 	strbvs	r6, [lr, #-3950]!	; 0xf6e
     820:	6261652d 	rsbvs	r6, r1, #188743680	; 0xb400000
     824:	2e342f69 	cdpcs	15, 3, cr2, cr4, cr9, {3}
     828:	2d332e38 	ldccs	14, cr2, [r3, #-224]!	; 0xffffff20
     82c:	37317363 	ldrcc	r7, [r1, -r3, ror #6]!
     830:	6c2f6530 	cfstr32vs	mvfx6, [pc], #-192	; 778 <_start-0x7888>
     834:	672f6269 	strvs	r6, [pc, -r9, ror #4]!
     838:	612f6363 	teqvs	pc, r3, ror #6
     83c:	6e2d6d72 	mcrvs	13, 1, r6, cr13, cr2, {3}
     840:	2d656e6f 	stclcs	14, cr6, [r5, #-444]!	; 0xfffffe44
     844:	69626165 	stmdbvs	r2!, {r0, r2, r5, r6, r8, sp, lr}^
     848:	382e342f 	stmdacc	lr!, {r0, r1, r2, r3, r5, sl, ip, sp}
     84c:	692f332e 	stmdbvs	pc!, {r1, r2, r3, r5, r8, r9, ip, sp}	; <UNPREDICTABLE>
     850:	756c636e 	strbvc	r6, [ip, #-878]!	; 0x36e
     854:	2f006564 	svccs	0x00006564
     858:	72657355 	rsbvc	r7, r5, #1409286145	; 0x54000001
     85c:	72622f73 	rsbvc	r2, r2, #460	; 0x1cc
     860:	6a6e6169 	bvs	1b98e0c <__bss_end__+0x1b8e96c>
     864:	442f6e75 	strtmi	r6, [pc], #-3701	; 86c <_start-0x7794>
     868:	746b7365 	strbtvc	r7, [fp], #-869	; 0x365
     86c:	732f706f 	teqvc	pc, #111	; 0x6f
     870:	6f6f6863 	svcvs	0x006f6863
     874:	69572f6c 	ldmdbvs	r7, {r2, r3, r5, r6, r8, r9, sl, fp, sp}^
     878:	7265746e 	rsbvc	r7, r5, #1845493760	; 0x6e000000
     87c:	30323931 	eorscc	r3, r2, r1, lsr r9
     880:	3153432f 	cmpcc	r3, pc, lsr #6
     884:	2f453034 	svccs	0x00453034
     888:	34317363 	ldrtcc	r7, [r1], #-867	; 0x363
     88c:	322d6530 	eorcc	r6, sp, #48, 10	; 0xc000000
     890:	6e697730 	mcrvs	7, 3, r7, cr9, cr0, {1}
     894:	62696c2f 	rsbvs	r6, r9, #12032	; 0x2f00
     898:	00006970 	andeq	r6, r0, r0, ror r9
     89c:	61747363 	cmnvs	r4, r3, ror #6
     8a0:	632e7472 	teqvs	lr, #1912602624	; 0x72000000
     8a4:	00000100 	andeq	r0, r0, r0, lsl #2
     8a8:	69647473 	stmdbvs	r4!, {r0, r1, r4, r5, r6, sl, ip, sp, lr}^
     8ac:	672d746e 	strvs	r7, [sp, -lr, ror #8]!
     8b0:	682e6363 	stmdavs	lr!, {r0, r1, r5, r6, r8, r9, sp, lr}
     8b4:	00000200 	andeq	r0, r0, r0, lsl #4
     8b8:	752d7773 	strvc	r7, [sp, #-1907]!	; 0x773
     8bc:	2e747261 	cdpcs	2, 7, cr7, cr4, cr1, {3}
     8c0:	00010068 	andeq	r0, r1, r8, rrx
     8c4:	6e6f6300 	cdpvs	3, 6, cr6, cr15, cr0, {0}
     8c8:	6c6f7274 	sfmvs	f7, 2, [pc], #-464	; 700 <_start-0x7900>
     8cc:	6f6c622d 	svcvs	0x006c622d
     8d0:	682e6b63 	stmdavs	lr!, {r0, r1, r5, r6, r8, r9, fp, sp, lr}
     8d4:	00000100 	andeq	r0, r0, r0, lsl #2
     8d8:	2e697072 	mcrcs	0, 3, r7, cr9, cr2, {3}
     8dc:	00030068 	andeq	r0, r3, r8, rrx
     8e0:	05000000 	streq	r0, [r0, #-0]
     8e4:	008d1402 	addeq	r1, sp, r2, lsl #8
     8e8:	684b1700 	stmdavs	fp, {r8, r9, sl, ip}^
     8ec:	2f313268 	svccs	0x00313268
     8f0:	02002f2d 	andeq	r2, r0, #45, 30	; 0xb4
     8f4:	4f490104 	svcmi	0x00490104
     8f8:	67674b2f 	strbvs	r4, [r7, -pc, lsr #22]!
     8fc:	2f4e6783 	svccs	0x004e6783
     900:	01001002 	tsteq	r0, r2
     904:	00009901 	andeq	r9, r0, r1, lsl #18
     908:	77000200 	strvc	r0, [r0, -r0, lsl #4]
     90c:	02000000 	andeq	r0, r0, #0
     910:	0d0efb01 	vstreq	d15, [lr, #-4]
     914:	01010100 	mrseq	r0, (UNDEF: 17)
     918:	00000001 	andeq	r0, r0, r1
     91c:	01000001 	tsteq	r0, r1
     920:	34317363 	ldrtcc	r7, [r1], #-867	; 0x363
     924:	732d6530 	teqvc	sp, #48, 10	; 0xc000000
     928:	2f006372 	svccs	0x00006372
     92c:	72657355 	rsbvc	r7, r5, #1409286145	; 0x54000001
     930:	72622f73 	rsbvc	r2, r2, #460	; 0x1cc
     934:	6a6e6169 	bvs	1b98ee0 <__bss_end__+0x1b8ea40>
     938:	442f6e75 	strtmi	r6, [pc], #-3701	; 940 <_start-0x76c0>
     93c:	746b7365 	strbtvc	r7, [fp], #-869	; 0x365
     940:	732f706f 	teqvc	pc, #111	; 0x6f
     944:	6f6f6863 	svcvs	0x006f6863
     948:	69572f6c 	ldmdbvs	r7, {r2, r3, r5, r6, r8, r9, sl, fp, sp}^
     94c:	7265746e 	rsbvc	r7, r5, #1845493760	; 0x6e000000
     950:	30323931 	eorscc	r3, r2, r1, lsr r9
     954:	3153432f 	cmpcc	r3, pc, lsr #6
     958:	2f453034 	svccs	0x00453034
     95c:	34317363 	ldrtcc	r7, [r1], #-867	; 0x363
     960:	322d6530 	eorcc	r6, sp, #48, 10	; 0xc000000
     964:	6e697730 	mcrvs	7, 3, r7, cr9, cr0, {1}
     968:	62696c2f 	rsbvs	r6, r9, #12032	; 0x2f00
     96c:	00006970 	andeq	r6, r0, r0, ror r9
     970:	6f626572 	svcvs	0x00626572
     974:	632e746f 	teqvs	lr, #1862270976	; 0x6f000000
     978:	00000100 	andeq	r0, r0, r0, lsl #2
     97c:	2e697072 	mcrcs	0, 3, r7, cr9, cr2, {3}
     980:	00020068 	andeq	r0, r2, r8, rrx
     984:	05000000 	streq	r0, [r0, #-0]
     988:	008dc402 	addeq	ip, sp, r2, lsl #8
     98c:	010d0300 	mrseq	r0, SP_mon
     990:	852f3114 	strhi	r3, [pc, #-276]!	; 884 <_start-0x777c>
     994:	4d4b2f15 	stclmi	15, cr2, [fp, #-84]	; 0xffffffac
     998:	5235672f 	eorspl	r6, r5, #12320768	; 0xbc0000
     99c:	00100267 	andseq	r0, r0, r7, ror #4
     9a0:	00a30101 	adceq	r0, r3, r1, lsl #2
     9a4:	00020000 	andeq	r0, r2, r0
     9a8:	00000076 	andeq	r0, r0, r6, ror r0
     9ac:	0efb0102 	cdpeq	1, 15, cr0, cr11, cr2, {0}
     9b0:	0101000d 	tsteq	r1, sp
     9b4:	00000101 	andeq	r0, r0, r1, lsl #2
     9b8:	00000100 	andeq	r0, r0, r0, lsl #2
     9bc:	31736301 	cmncc	r3, r1, lsl #6
     9c0:	2d653034 	stclcs	0, cr3, [r5, #-208]!	; 0xffffff30
     9c4:	00637273 	rsbeq	r7, r3, r3, ror r2
     9c8:	6573552f 	ldrbvs	r5, [r3, #-1327]!	; 0x52f
     9cc:	622f7372 	eorvs	r7, pc, #-939524095	; 0xc8000001
     9d0:	6e616972 	mcrvs	9, 3, r6, cr1, cr2, {3}
     9d4:	2f6e756a 	svccs	0x006e756a
     9d8:	6b736544 	blvs	1cd9ef0 <__bss_end__+0x1ccfa50>
     9dc:	2f706f74 	svccs	0x00706f74
     9e0:	6f686373 	svcvs	0x00686373
     9e4:	572f6c6f 	strpl	r6, [pc, -pc, ror #24]!
     9e8:	65746e69 	ldrbvs	r6, [r4, #-3689]!	; 0xe69
     9ec:	32393172 	eorscc	r3, r9, #-2147483620	; 0x8000001c
     9f0:	53432f30 	movtpl	r2, #16176	; 0x3f30
     9f4:	45303431 	ldrmi	r3, [r0, #-1073]!	; 0x431
     9f8:	3173632f 	cmncc	r3, pc, lsr #6
     9fc:	2d653034 	stclcs	0, cr3, [r5, #-208]!	; 0xffffff30
     a00:	69773032 	ldmdbvs	r7!, {r1, r4, r5, ip, sp}^
     a04:	696c2f6e 	stmdbvs	ip!, {r1, r2, r3, r5, r6, r8, r9, sl, fp, sp}^
     a08:	00697062 	rsbeq	r7, r9, r2, rrx
     a0c:	6d697400 	cfstrdvs	mvd7, [r9, #-0]
     a10:	632e7265 	teqvs	lr, #1342177286	; 0x50000006
     a14:	00000100 	andeq	r0, r0, r0, lsl #2
     a18:	2e697072 	mcrcs	0, 3, r7, cr9, cr2, {3}
     a1c:	00020068 	andeq	r0, r2, r8, rrx
     a20:	05000000 	streq	r0, [r0, #-0]
     a24:	008e3802 	addeq	r3, lr, r2, lsl #16
     a28:	2f131600 	svccs	0x00131600
     a2c:	0402002d 	streq	r0, [r2], #-45	; 0x2d
     a30:	062e0601 	strteq	r0, [lr], -r1, lsl #12
     a34:	4b2f3168 	blmi	bccfdc <__bss_end__+0xbc2b3c>
     a38:	3031324d 	eorscc	r3, r1, sp, asr #4
     a3c:	6a2f4c4b 	bvs	bd3b70 <__bss_end__+0xbc96d0>
     a40:	2f842f2f 	svccs	0x00842f2f
     a44:	01000802 	tsteq	r0, r2, lsl #16
     a48:	00017f01 	andeq	r7, r1, r1, lsl #30
     a4c:	ca000200 	bgt	1254 <_start-0x6dac>
     a50:	02000000 	andeq	r0, r0, #0
     a54:	0d0efb01 	vstreq	d15, [lr, #-4]
     a58:	01010100 	mrseq	r0, (UNDEF: 17)
     a5c:	00000001 	andeq	r0, r0, r1
     a60:	01000001 	tsteq	r0, r1
     a64:	732d796d 	teqvc	sp, #1785856	; 0x1b4000
     a68:	2f006372 	svccs	0x00006372
     a6c:	72657355 	rsbvc	r7, r5, #1409286145	; 0x54000001
     a70:	72622f73 	rsbvc	r2, r2, #460	; 0x1cc
     a74:	6a6e6169 	bvs	1b99020 <__bss_end__+0x1b8eb80>
     a78:	442f6e75 	strtmi	r6, [pc], #-3701	; a80 <_start-0x7580>
     a7c:	746b7365 	strbtvc	r7, [fp], #-869	; 0x365
     a80:	732f706f 	teqvc	pc, #111	; 0x6f
     a84:	6f6f6863 	svcvs	0x006f6863
     a88:	69572f6c 	ldmdbvs	r7, {r2, r3, r5, r6, r8, r9, sl, fp, sp}^
     a8c:	7265746e 	rsbvc	r7, r5, #1845493760	; 0x6e000000
     a90:	30323931 	eorscc	r3, r2, r1, lsr r9
     a94:	3153432f 	cmpcc	r3, pc, lsr #6
     a98:	2f453034 	svccs	0x00453034
     a9c:	34317363 	ldrtcc	r7, [r1], #-867	; 0x363
     aa0:	322d6530 	eorcc	r6, sp, #48, 10	; 0xc000000
     aa4:	6e697730 	mcrvs	7, 3, r7, cr9, cr0, {1}
     aa8:	62696c2f 	rsbvs	r6, r9, #12032	; 0x2f00
     aac:	632f6970 	teqvs	pc, #112, 18	; 0x1c0000
     ab0:	30343173 	eorscc	r3, r4, r3, ror r1
     ab4:	72732d65 	rsbsvc	r2, r3, #6464	; 0x1940
     ab8:	552f0063 	strpl	r0, [pc, #-99]!	; a5d <_start-0x75a3>
     abc:	73726573 	cmnvc	r2, #482344960	; 0x1cc00000
     ac0:	6972622f 	ldmdbvs	r2!, {r0, r1, r2, r3, r5, r9, sp, lr}^
     ac4:	756a6e61 	strbvc	r6, [sl, #-3681]!	; 0xe61
     ac8:	65442f6e 	strbvs	r2, [r4, #-3950]	; 0xf6e
     acc:	6f746b73 	svcvs	0x00746b73
     ad0:	63732f70 	cmnvs	r3, #112, 30	; 0x1c0
     ad4:	6c6f6f68 	stclvs	15, cr6, [pc], #-416	; 93c <_start-0x76c4>
     ad8:	6e69572f 	cdpvs	7, 6, cr5, cr9, cr15, {1}
     adc:	31726574 	cmncc	r2, r4, ror r5
     ae0:	2f303239 	svccs	0x00303239
     ae4:	34315343 	ldrtcc	r5, [r1], #-835	; 0x343
     ae8:	632f4530 	teqvs	pc, #48, 10	; 0xc000000
     aec:	30343173 	eorscc	r3, r4, r3, ror r1
     af0:	30322d65 	eorscc	r2, r2, r5, ror #26
     af4:	2f6e6977 	svccs	0x006e6977
     af8:	7062696c 	rsbvc	r6, r2, ip, ror #18
     afc:	67000069 	strvs	r0, [r0, -r9, rrx]
     b00:	2e6f6970 	mcrcs	9, 3, r6, cr15, cr0, {3}
     b04:	00010063 	andeq	r0, r1, r3, rrx
     b08:	69706700 	ldmdbvs	r0!, {r8, r9, sl, sp, lr}^
     b0c:	00682e6f 	rsbeq	r2, r8, pc, ror #28
     b10:	72000002 	andvc	r0, r0, #2
     b14:	682e6970 	stmdavs	lr!, {r4, r5, r6, r8, fp, sp, lr}
     b18:	00000300 	andeq	r0, r0, r0, lsl #6
     b1c:	02050000 	andeq	r0, r5, #0
     b20:	00008ec0 	andeq	r8, r0, r0, asr #29
     b24:	4e013e03 	cdpmi	14, 0, cr3, cr1, cr3, {0}
     b28:	21086950 	tstcs	r8, r0, asr r9
     b2c:	67676767 	strbvs	r6, [r7, -r7, ror #14]!
     b30:	4b326767 	blmi	c9a8d4 <__bss_end__+0xc90434>
     b34:	31dc2208 	bicscc	r2, ip, r8, lsl #4
     b38:	504e1351 	subpl	r1, lr, r1, asr r3
     b3c:	5031be30 	eorspl	fp, r1, r0, lsr lr
     b40:	304f4d13 	subcc	r4, pc, r3, lsl sp	; <UNPREDICTABLE>
     b44:	69504cc0 	ldmdbvs	r0, {r6, r7, sl, fp, lr}^
     b48:	67672108 	strbvs	r2, [r7, -r8, lsl #2]!
     b4c:	67676767 	strbvs	r6, [r7, -r7, ror #14]!
     b50:	21084b32 	tstcs	r8, r2, lsr fp
     b54:	2f504ca4 	svccs	0x00504ca4
     b58:	75036984 	strvc	r6, [r3, #-2436]	; 0x984
     b5c:	2e0c0382 	cdpcs	3, 0, cr0, cr12, cr2, {4}
     b60:	4b4e304d 	blmi	138cc9c <__bss_end__+0x13827fc>
     b64:	6b6a4d4c 	blvs	1a9409c <__bss_end__+0x1a89bfc>
     b68:	67210869 	strvs	r0, [r1, -r9, ror #16]!
     b6c:	67676767 	strbvs	r6, [r7, -r7, ror #14]!
     b70:	084b3267 	stmdaeq	fp, {r0, r1, r2, r5, r6, r9, ip, sp}^
     b74:	5130c022 	teqpl	r0, r2, lsr #32
     b78:	30504e13 	subscc	r4, r0, r3, lsl lr
     b7c:	31ba1803 			; <UNDEFINED> instruction: 0x31ba1803
     b80:	522f4c9f 	eorpl	r4, pc, #40704	; 0x9f00
     b84:	4b2f4e4d 	blmi	bd44c0 <__bss_end__+0xbca020>
     b88:	67684b67 	strbvs	r4, [r8, -r7, ror #22]!
     b8c:	672f4c67 	strvs	r4, [pc, -r7, ror #24]!
     b90:	4c6e4b2f 	stclmi	11, cr4, [lr], #-188	; 0xffffff44
     b94:	674b2f4e 	strbvs	r2, [fp, -lr, asr #30]
     b98:	6767684b 	strbvs	r6, [r7, -fp, asr #16]!
     b9c:	2f672f4c 	svccs	0x00672f4c
     ba0:	4e4b6d4b 	cdpmi	13, 4, cr6, cr11, cr11, {2}
     ba4:	00674b2f 	rsbeq	r4, r7, pc, lsr #22
     ba8:	06010402 	streq	r0, [r1], -r2, lsl #8
     bac:	9f680666 	svcls	0x00680666
     bb0:	0402002f 	streq	r0, [r2], #-47	; 0x2f
     bb4:	064a0601 	strbeq	r0, [sl], -r1, lsl #12
     bb8:	73032f68 	movwvc	r2, #16232	; 0x3f68
     bbc:	2e0e034a 	cdpcs	3, 0, cr0, cr14, cr10, {2}
     bc0:	2f4e4c4d 	svccs	0x004e4c4d
     bc4:	02bcbc4b 	adcseq	fp, ip, #19200	; 0x4b00
     bc8:	01010006 	tsteq	r1, r6
     bcc:	00000349 	andeq	r0, r0, r9, asr #6
     bd0:	01bd0002 			; <UNDEFINED> instruction: 0x01bd0002
     bd4:	01020000 	mrseq	r0, (UNDEF: 2)
     bd8:	000d0efb 	strdeq	r0, [sp], -fp
     bdc:	01010101 	tsteq	r1, r1, lsl #2
     be0:	01000000 	mrseq	r0, (UNDEF: 0)
     be4:	6d010000 	stcvs	0, cr0, [r1, #-0]
     be8:	72732d79 	rsbsvc	r2, r3, #7744	; 0x1e40
     bec:	552f0063 	strpl	r0, [pc, #-99]!	; b91 <_start-0x746f>
     bf0:	73726573 	cmnvc	r2, #482344960	; 0x1cc00000
     bf4:	6972622f 	ldmdbvs	r2!, {r0, r1, r2, r3, r5, r9, sp, lr}^
     bf8:	756a6e61 	strbvc	r6, [sl, #-3681]!	; 0xe61
     bfc:	65442f6e 	strbvs	r2, [r4, #-3950]	; 0xf6e
     c00:	6f746b73 	svcvs	0x00746b73
     c04:	63732f70 	cmnvs	r3, #112, 30	; 0x1c0
     c08:	6c6f6f68 	stclvs	15, cr6, [pc], #-416	; a70 <_start-0x7590>
     c0c:	6e69572f 	cdpvs	7, 6, cr5, cr9, cr15, {1}
     c10:	31726574 	cmncc	r2, r4, ror r5
     c14:	2f303239 	svccs	0x00303239
     c18:	34315343 	ldrtcc	r5, [r1], #-835	; 0x343
     c1c:	632f4530 	teqvs	pc, #48, 10	; 0xc000000
     c20:	30343173 	eorscc	r3, r4, r3, ror r1
     c24:	30322d65 	eorscc	r2, r2, r5, ror #26
     c28:	2f6e6977 	svccs	0x006e6977
     c2c:	7062696c 	rsbvc	r6, r2, ip, ror #18
     c30:	73632f69 	cmnvc	r3, #420	; 0x1a4
     c34:	65303431 	ldrvs	r3, [r0, #-1073]!	; 0x431
     c38:	6372732d 	cmnvs	r2, #-1275068416	; 0xb4000000
     c3c:	73752f00 	cmnvc	r5, #0, 30
     c40:	6f6c2f72 	svcvs	0x006c2f72
     c44:	2f6c6163 	svccs	0x006c6163
     c48:	6c6c6543 	cfstr64vs	mvdx6, [ip], #-268	; 0xfffffef4
     c4c:	612f7261 	teqvs	pc, r1, ror #4
     c50:	6e2d6d72 	mcrvs	13, 1, r6, cr13, cr2, {3}
     c54:	2d656e6f 	stclcs	14, cr6, [r5, #-444]!	; 0xfffffe44
     c58:	69626165 	stmdbvs	r2!, {r0, r2, r5, r6, r8, sp, lr}^
     c5c:	382e342f 	stmdacc	lr!, {r0, r1, r2, r3, r5, sl, ip, sp}
     c60:	632d332e 	teqvs	sp, #-1207959552	; 0xb8000000
     c64:	30373173 	eorscc	r3, r7, r3, ror r1
     c68:	696c2f65 	stmdbvs	ip!, {r0, r2, r5, r6, r8, r9, sl, fp, sp}^
     c6c:	63672f62 	cmnvs	r7, #392	; 0x188
     c70:	72612f63 	rsbvc	r2, r1, #396	; 0x18c
     c74:	6f6e2d6d 	svcvs	0x006e2d6d
     c78:	652d656e 	strvs	r6, [sp, #-1390]!	; 0x56e
     c7c:	2f696261 	svccs	0x00696261
     c80:	2e382e34 	mrccs	14, 1, r2, cr8, cr4, {1}
     c84:	6e692f33 	mcrvs	15, 3, r2, cr9, cr3, {1}
     c88:	64756c63 	ldrbtvs	r6, [r5], #-3171	; 0xc63
     c8c:	552f0065 	strpl	r0, [pc, #-101]!	; c2f <_start-0x73d1>
     c90:	73726573 	cmnvc	r2, #482344960	; 0x1cc00000
     c94:	6972622f 	ldmdbvs	r2!, {r0, r1, r2, r3, r5, r9, sp, lr}^
     c98:	756a6e61 	strbvc	r6, [sl, #-3681]!	; 0xe61
     c9c:	65442f6e 	strbvs	r2, [r4, #-3950]	; 0xf6e
     ca0:	6f746b73 	svcvs	0x00746b73
     ca4:	63732f70 	cmnvs	r3, #112, 30	; 0x1c0
     ca8:	6c6f6f68 	stclvs	15, cr6, [pc], #-416	; b10 <_start-0x74f0>
     cac:	6e69572f 	cdpvs	7, 6, cr5, cr9, cr15, {1}
     cb0:	31726574 	cmncc	r2, r4, ror r5
     cb4:	2f303239 	svccs	0x00303239
     cb8:	34315343 	ldrtcc	r5, [r1], #-835	; 0x343
     cbc:	632f4530 	teqvs	pc, #48, 10	; 0xc000000
     cc0:	30343173 	eorscc	r3, r4, r3, ror r1
     cc4:	30322d65 	eorscc	r2, r2, r5, ror #26
     cc8:	2f6e6977 	svccs	0x006e6977
     ccc:	7062696c 	rsbvc	r6, r2, ip, ror #18
     cd0:	552f0069 	strpl	r0, [pc, #-105]!	; c6f <_start-0x7391>
     cd4:	73726573 	cmnvc	r2, #482344960	; 0x1cc00000
     cd8:	6972622f 	ldmdbvs	r2!, {r0, r1, r2, r3, r5, r9, sp, lr}^
     cdc:	756a6e61 	strbvc	r6, [sl, #-3681]!	; 0xe61
     ce0:	65442f6e 	strbvs	r2, [r4, #-3950]	; 0xf6e
     ce4:	6f746b73 	svcvs	0x00746b73
     ce8:	63732f70 	cmnvs	r3, #112, 30	; 0x1c0
     cec:	6c6f6f68 	stclvs	15, cr6, [pc], #-416	; b54 <_start-0x74ac>
     cf0:	6e69572f 	cdpvs	7, 6, cr5, cr9, cr15, {1}
     cf4:	31726574 	cmncc	r2, r4, ror r5
     cf8:	2f303239 	svccs	0x00303239
     cfc:	34315343 	ldrtcc	r5, [r1], #-835	; 0x343
     d00:	632f4530 	teqvs	pc, #48, 10	; 0xc000000
     d04:	30343173 	eorscc	r3, r4, r3, ror r1
     d08:	30322d65 	eorscc	r2, r2, r5, ror #26
     d0c:	2f6e6977 	svccs	0x006e6977
     d10:	7062696c 	rsbvc	r6, r2, ip, ror #18
     d14:	696c2f69 	stmdbvs	ip!, {r0, r3, r5, r6, r8, r9, sl, fp, sp}^
     d18:	00006362 	andeq	r6, r0, r2, ror #6
     d1c:	752d7773 	strvc	r7, [sp, #-1907]!	; 0x773
     d20:	2e747261 	cdpcs	2, 7, cr7, cr4, cr1, {3}
     d24:	00010063 	andeq	r0, r1, r3, rrx
     d28:	63796300 	cmnvs	r9, #0, 6
     d2c:	752d656c 	strvc	r6, [sp, #-1388]!	; 0x56c
     d30:	2e6c6974 	mcrcs	9, 3, r6, cr12, cr4, {3}
     d34:	00020068 	andeq	r0, r2, r8, rrx
     d38:	64747300 	ldrbtvs	r7, [r4], #-768	; 0x300
     d3c:	2d746e69 	ldclcs	14, cr6, [r4, #-420]!	; 0xfffffe5c
     d40:	2e636367 	cdpcs	3, 6, cr6, cr3, cr7, {3}
     d44:	00030068 	andeq	r0, r3, r8, rrx
     d48:	2d777300 	ldclcs	3, cr7, [r7, #-0]
     d4c:	74726175 	ldrbtvc	r6, [r2], #-373	; 0x175
     d50:	0200682e 	andeq	r6, r0, #3014656	; 0x2e0000
     d54:	74730000 	ldrbtvc	r0, [r3], #-0
     d58:	67726164 	ldrbvs	r6, [r2, -r4, ror #2]!
     d5c:	0300682e 	movweq	r6, #2094	; 0x82e
     d60:	70670000 	rsbvc	r0, r7, r0
     d64:	682e6f69 	stmdavs	lr!, {r0, r3, r5, r6, r8, r9, sl, fp, sp, lr}
     d68:	00000200 	andeq	r0, r0, r0, lsl #4
     d6c:	2e697072 	mcrcs	0, 3, r7, cr9, cr2, {3}
     d70:	00040068 	andeq	r0, r4, r8, rrx
     d74:	2d617600 	stclcs	6, cr7, [r1, #-0]
     d78:	6e697270 	mcrvs	2, 3, r7, cr9, cr0, {3}
     d7c:	682e6b74 	stmdavs	lr!, {r2, r4, r5, r6, r8, r9, fp, sp, lr}
     d80:	00000500 	andeq	r0, r0, r0, lsl #10
     d84:	6975623c 	ldmdbvs	r5!, {r2, r3, r4, r5, r9, sp, lr}^
     d88:	692d746c 	pushvs	{r2, r3, r5, r6, sl, ip, sp, lr}
     d8c:	00003e6e 	andeq	r3, r0, lr, ror #28
     d90:	00000000 	andeq	r0, r0, r0
     d94:	94600205 	strbtls	r0, [r0], #-517	; 0x205
     d98:	4c1a0000 	ldcmi	0, cr0, [sl], {-0}
     d9c:	0204302f 	andeq	r3, r4, #47	; 0x2f
     da0:	032e0b03 	teqeq	lr, #3072	; 0xc00
     da4:	01046673 	tsteq	r4, r3, ror r6
     da8:	35020488 	strcc	r0, [r2, #-1160]	; 0x488
     dac:	04667303 	strbteq	r7, [r6], #-771	; 0x303
     db0:	02048a01 	andeq	r8, r4, #4096	; 0x1000
     db4:	66730333 			; <UNDEFINED> instruction: 0x66730333
     db8:	0a030104 	beq	c11d0 <__bss_end__+0xb6d30>
     dbc:	31020482 	smlabbcc	r2, r2, r4, r0
     dc0:	04667303 	strbteq	r7, [r6], #-771	; 0x303
     dc4:	820c0301 	andhi	r0, ip, #67108864	; 0x4000000
     dc8:	032f0204 	teqeq	pc, #4, 4	; 0x40000000
     dcc:	01046673 	tsteq	r4, r3, ror r6
     dd0:	04820e03 	streq	r0, [r2], #3587	; 0xe03
     dd4:	73032d02 	movwvc	r2, #15618	; 0x3d02
     dd8:	03010466 	movweq	r0, #5222	; 0x1466
     ddc:	02048210 	andeq	r8, r4, #16, 4
     de0:	6673032b 	ldrbtvs	r0, [r3], -fp, lsr #6
     de4:	12030104 	andne	r0, r3, #4, 2
     de8:	29020482 	stmdbcs	r2, {r1, r7, sl}
     dec:	04667303 	strbteq	r7, [r6], #-771	; 0x303
     df0:	82140301 	andshi	r0, r4, #67108864	; 0x4000000
     df4:	79030204 	stmdbvc	r3, {r2, r9}
     df8:	6673032e 	ldrbtvs	r0, [r3], -lr, lsr #6
     dfc:	16030104 	strne	r0, [r3], -r4, lsl #2
     e00:	03020482 	movweq	r0, #9346	; 0x2482
     e04:	73032e77 	movwvc	r2, #15991	; 0x3e77
     e08:	03010466 	movweq	r0, #5222	; 0x1466
     e0c:	10038218 	andne	r8, r3, r8, lsl r2
     e10:	034d4b2e 	movteq	r4, #56110	; 0xdb2e
     e14:	844c2e70 	strbhi	r2, [ip], #-3696	; 0xe70
     e18:	0d034883 	stceq	8, cr4, [r3, #-524]	; 0xfffffdf4
     e1c:	33314e2e 	teqcc	r1, #736	; 0x2e0
     e20:	48030204 	stmdami	r3, {r2, r9}
     e24:	0301042e 	movweq	r0, #5166	; 0x142e
     e28:	042f823a 	strteq	r8, [pc], #-570	; e30 <_start-0x71d0>
     e2c:	66450302 	strbvs	r0, [r5], -r2, lsl #6
     e30:	3d030104 	stfccs	f0, [r3, #-16]
     e34:	02042f82 	andeq	r2, r4, #520	; 0x208
     e38:	04824203 	streq	r4, [r2], #515	; 0x203
     e3c:	00c00301 	sbceq	r0, r0, r1, lsl #6
     e40:	02042f82 	andeq	r2, r4, #520	; 0x208
     e44:	827fbf03 	rsbshi	fp, pc, #3, 30
     e48:	c3030104 	movwgt	r0, #12548	; 0x3104
     e4c:	042f8200 	strteq	r8, [pc], #-512	; e54 <_start-0x71ac>
     e50:	7fbc0302 	svcvc	0x00bc0302
     e54:	03010482 	movweq	r0, #5250	; 0x1482
     e58:	2f8200c6 	svccs	0x008200c6
     e5c:	b9030204 	stmdblt	r3, {r2, r9}
     e60:	0104827f 	tsteq	r4, pc, ror r2
     e64:	8200c903 	andhi	ip, r0, #49152	; 0xc000
     e68:	0302042f 	movweq	r0, #9263	; 0x242f
     e6c:	04827fb6 	streq	r7, [r2], #4022	; 0xfb6
     e70:	00cc0301 	sbceq	r0, ip, r1, lsl #6
     e74:	02042f82 	andeq	r2, r4, #520	; 0x208
     e78:	827fb303 	rsbshi	fp, pc, #201326592	; 0xc000000
     e7c:	d0030104 	andle	r0, r3, r4, lsl #2
     e80:	4c038200 	sfmmi	f0, 1, [r3], {-0}
     e84:	83844c82 	orrhi	r4, r4, #33280	; 0x8200
     e88:	2e360348 	cdpcs	3, 3, cr0, cr6, cr8, {2}
     e8c:	4a54034e 	bmi	1501bcc <__bss_end__+0x14f772c>
     e90:	324a2903 	subcc	r2, sl, #49152	; 0xc000
     e94:	0200bb34 	andeq	fp, r0, #52, 22	; 0xd000
     e98:	4a060104 	bmi	1812b0 <__bss_end__+0x176e10>
     e9c:	4e210806 	cdpmi	8, 2, cr0, cr1, cr6, {0}
     ea0:	002cbb4b 	eoreq	fp, ip, fp, asr #22
     ea4:	06010402 	streq	r0, [r1], -r2, lsl #8
     ea8:	4c6d062e 	stclmi	6, cr0, [sp], #-184	; 0xffffff48
     eac:	0200a0dc 	andeq	sl, r0, #220	; 0xdc
     eb0:	4a060104 	bmi	1812c8 <__bss_end__+0x176e28>
     eb4:	4d210806 	stcmi	8, cr0, [r1, #-24]!	; 0xffffffe8
     eb8:	02040200 	andeq	r0, r4, #0, 4
     ebc:	0402004b 	streq	r0, [r2], #-75	; 0x4b
     ec0:	02008102 	andeq	r8, r0, #-2147483648	; 0x80000000
     ec4:	2e060104 	adfcss	f0, f6, f4
     ec8:	dd4c4d06 	stclle	13, cr4, [ip, #-24]	; 0xffffffe8
     ecc:	4b4b4bd8 	blmi	12d3e34 <__bss_end__+0x12c9994>
     ed0:	02002f6a 	andeq	r2, r0, #424	; 0x1a8
     ed4:	82060104 	andhi	r0, r6, #4, 2
     ed8:	04020082 	streq	r0, [r2], #-130	; 0x82
     edc:	02009e04 	andeq	r9, r0, #4, 28	; 0x40
     ee0:	064a0104 	strbeq	r0, [sl], -r4, lsl #2
     ee4:	f5882308 			; <UNDEFINED> instruction: 0xf5882308
     ee8:	084b4b2f 	stmdaeq	fp, {r0, r1, r2, r3, r5, r8, r9, fp, lr}^
     eec:	02006740 	andeq	r6, r0, #64, 14	; 0x1000000
     ef0:	002f0204 	eoreq	r0, pc, r4, lsl #4
     ef4:	49020402 	stmdbmi	r2, {r1, sl}
     ef8:	01040200 	mrseq	r0, R12_usr
     efc:	68062e06 	stmdavs	r6, {r1, r2, r9, sl, fp, sp}
     f00:	a04b8634 	subge	r8, fp, r4, lsr r6
     f04:	01040200 	mrseq	r0, R12_usr
     f08:	08066606 	stmdaeq	r6, {r1, r2, r9, sl, sp, lr}
     f0c:	3e086821 	cdpcc	8, 0, cr6, cr8, cr1, {1}
     f10:	d84b674b 	stmdale	fp, {r0, r1, r3, r6, r8, r9, sl, sp, lr}^
     f14:	01000a02 	tsteq	r0, r2, lsl #20
     f18:	00010101 	andeq	r0, r1, r1, lsl #2
     f1c:	ca000200 	bgt	1724 <_start-0x68dc>
     f20:	02000000 	andeq	r0, r0, #0
     f24:	0d0efb01 	vstreq	d15, [lr, #-4]
     f28:	01010100 	mrseq	r0, (UNDEF: 17)
     f2c:	00000001 	andeq	r0, r0, r1
     f30:	01000001 	tsteq	r0, r1
     f34:	732d796d 	teqvc	sp, #1785856	; 0x1b4000
     f38:	2f006372 	svccs	0x00006372
     f3c:	72657355 	rsbvc	r7, r5, #1409286145	; 0x54000001
     f40:	72622f73 	rsbvc	r2, r2, #460	; 0x1cc
     f44:	6a6e6169 	bvs	1b994f0 <__bss_end__+0x1b8f050>
     f48:	442f6e75 	strtmi	r6, [pc], #-3701	; f50 <_start-0x70b0>
     f4c:	746b7365 	strbtvc	r7, [fp], #-869	; 0x365
     f50:	732f706f 	teqvc	pc, #111	; 0x6f
     f54:	6f6f6863 	svcvs	0x006f6863
     f58:	69572f6c 	ldmdbvs	r7, {r2, r3, r5, r6, r8, r9, sl, fp, sp}^
     f5c:	7265746e 	rsbvc	r7, r5, #1845493760	; 0x6e000000
     f60:	30323931 	eorscc	r3, r2, r1, lsr r9
     f64:	3153432f 	cmpcc	r3, pc, lsr #6
     f68:	2f453034 	svccs	0x00453034
     f6c:	34317363 	ldrtcc	r7, [r1], #-867	; 0x363
     f70:	322d6530 	eorcc	r6, sp, #48, 10	; 0xc000000
     f74:	6e697730 	mcrvs	7, 3, r7, cr9, cr0, {1}
     f78:	62696c2f 	rsbvs	r6, r9, #12032	; 0x2f00
     f7c:	632f6970 	teqvs	pc, #112, 18	; 0x1c0000
     f80:	30343173 	eorscc	r3, r4, r3, ror r1
     f84:	72732d65 	rsbsvc	r2, r3, #6464	; 0x1940
     f88:	552f0063 	strpl	r0, [pc, #-99]!	; f2d <_start-0x70d3>
     f8c:	73726573 	cmnvc	r2, #482344960	; 0x1cc00000
     f90:	6972622f 	ldmdbvs	r2!, {r0, r1, r2, r3, r5, r9, sp, lr}^
     f94:	756a6e61 	strbvc	r6, [sl, #-3681]!	; 0xe61
     f98:	65442f6e 	strbvs	r2, [r4, #-3950]	; 0xf6e
     f9c:	6f746b73 	svcvs	0x00746b73
     fa0:	63732f70 	cmnvs	r3, #112, 30	; 0x1c0
     fa4:	6c6f6f68 	stclvs	15, cr6, [pc], #-416	; e0c <_start-0x71f4>
     fa8:	6e69572f 	cdpvs	7, 6, cr5, cr9, cr15, {1}
     fac:	31726574 	cmncc	r2, r4, ror r5
     fb0:	2f303239 	svccs	0x00303239
     fb4:	34315343 	ldrtcc	r5, [r1], #-835	; 0x343
     fb8:	632f4530 	teqvs	pc, #48, 10	; 0xc000000
     fbc:	30343173 	eorscc	r3, r4, r3, ror r1
     fc0:	30322d65 	eorscc	r2, r2, r5, ror #26
     fc4:	2f6e6977 	svccs	0x006e6977
     fc8:	7062696c 	rsbvc	r6, r2, ip, ror #18
     fcc:	75000069 	strvc	r0, [r0, #-105]	; 0x69
     fd0:	2e747261 	cdpcs	2, 7, cr7, cr4, cr1, {3}
     fd4:	00010063 	andeq	r0, r1, r3, rrx
     fd8:	69706700 	ldmdbvs	r0!, {r8, r9, sl, sp, lr}^
     fdc:	00682e6f 	rsbeq	r2, r8, pc, ror #28
     fe0:	72000002 	andvc	r0, r0, #2
     fe4:	682e6970 	stmdavs	lr!, {r4, r5, r6, r8, fp, sp, lr}
     fe8:	00000300 	andeq	r0, r0, r0, lsl #6
     fec:	02050000 	andeq	r0, r5, #0
     ff0:	00009ac8 	andeq	r9, r0, r8, asr #21
     ff4:	30013603 	andcc	r3, r1, r3, lsl #12
     ff8:	306d6733 	rsbcc	r6, sp, r3, lsr r7
     ffc:	676730d8 			; <UNDEFINED> instruction: 0x676730d8
    1000:	68676767 	stmdavs	r7!, {r0, r1, r2, r5, r6, r8, r9, sl, sp, lr}^
    1004:	6a672f86 	bvs	19cce24 <__bss_end__+0x19c2984>
    1008:	69676730 	stmdbvs	r7!, {r4, r5, r8, r9, sl, sp, lr}^
    100c:	4c6a672f 	stclmi	7, cr6, [sl], #-188	; 0xffffff44
    1010:	2f2fc167 	svccs	0x002fc167
    1014:	49682f30 	stmdbmi	r8!, {r4, r5, r8, r9, sl, fp, sp}^
    1018:	00020230 	andeq	r0, r2, r0, lsr r2
    101c:	01280101 	teqeq	r8, r1, lsl #2
    1020:	00020000 	andeq	r0, r2, r0
    1024:	0000010d 	andeq	r0, r0, sp, lsl #2
    1028:	0efb0102 	cdpeq	1, 15, cr0, cr11, cr2, {0}
    102c:	0101000d 	tsteq	r1, sp
    1030:	00000101 	andeq	r0, r0, r1, lsl #2
    1034:	00000100 	andeq	r0, r0, r0, lsl #2
    1038:	31736301 	cmncc	r3, r1, lsl #6
    103c:	2d653034 	stclcs	0, cr3, [r5, #-208]!	; 0xffffff30
    1040:	00637273 	rsbeq	r7, r3, r3, ror r2
    1044:	7273752f 	rsbsvc	r7, r3, #197132288	; 0xbc00000
    1048:	636f6c2f 	cmnvs	pc, #12032	; 0x2f00
    104c:	432f6c61 	teqmi	pc, #24832	; 0x6100
    1050:	616c6c65 	cmnvs	ip, r5, ror #24
    1054:	72612f72 	rsbvc	r2, r1, #456	; 0x1c8
    1058:	6f6e2d6d 	svcvs	0x006e2d6d
    105c:	652d656e 	strvs	r6, [sp, #-1390]!	; 0x56e
    1060:	2f696261 	svccs	0x00696261
    1064:	2e382e34 	mrccs	14, 1, r2, cr8, cr4, {1}
    1068:	73632d33 	cmnvc	r3, #3264	; 0xcc0
    106c:	65303731 	ldrvs	r3, [r0, #-1841]!	; 0x731
    1070:	62696c2f 	rsbvs	r6, r9, #12032	; 0x2f00
    1074:	6363672f 	cmnvs	r3, #12320768	; 0xbc0000
    1078:	6d72612f 	ldfvse	f6, [r2, #-188]!	; 0xffffff44
    107c:	6e6f6e2d 	cdpvs	14, 6, cr6, cr15, cr13, {1}
    1080:	61652d65 	cmnvs	r5, r5, ror #26
    1084:	342f6962 	strtcc	r6, [pc], #-2402	; 108c <_start-0x6f74>
    1088:	332e382e 	teqcc	lr, #3014656	; 0x2e0000
    108c:	636e692f 	cmnvs	lr, #770048	; 0xbc000
    1090:	6564756c 	strbvs	r7, [r4, #-1388]!	; 0x56c
    1094:	73752f00 	cmnvc	r5, #0, 30
    1098:	6f6c2f72 	svcvs	0x006c2f72
    109c:	2f6c6163 	svccs	0x006c6163
    10a0:	6c6c6543 	cfstr64vs	mvdx6, [ip], #-268	; 0xfffffef4
    10a4:	612f7261 	teqvs	pc, r1, ror #4
    10a8:	6e2d6d72 	mcrvs	13, 1, r6, cr13, cr2, {3}
    10ac:	2d656e6f 	stclcs	14, cr6, [r5, #-444]!	; 0xfffffe44
    10b0:	69626165 	stmdbvs	r2!, {r0, r2, r5, r6, r8, sp, lr}^
    10b4:	382e342f 	stmdacc	lr!, {r0, r1, r2, r3, r5, sl, ip, sp}
    10b8:	632d332e 	teqvs	sp, #-1207959552	; 0xb8000000
    10bc:	30373173 	eorscc	r3, r7, r3, ror r1
    10c0:	72612f65 	rsbvc	r2, r1, #404	; 0x194
    10c4:	6f6e2d6d 	svcvs	0x006e2d6d
    10c8:	652d656e 	strvs	r6, [sp, #-1390]!	; 0x56e
    10cc:	2f696261 	svccs	0x00696261
    10d0:	6c636e69 	stclvs	14, cr6, [r3], #-420	; 0xfffffe5c
    10d4:	00656475 	rsbeq	r6, r5, r5, ror r4
    10d8:	6e6f6300 	cdpvs	3, 6, cr6, cr15, cr0, {0}
    10dc:	6c6f7274 	sfmvs	f7, 2, [pc], #-464	; f14 <_start-0x70ec>
    10e0:	6f6c622d 	svcvs	0x006c622d
    10e4:	632e6b63 	teqvs	lr, #101376	; 0x18c00
    10e8:	00000100 	andeq	r0, r0, r0, lsl #2
    10ec:	64647473 	strbtvs	r7, [r4], #-1139	; 0x473
    10f0:	682e6665 	stmdavs	lr!, {r0, r2, r5, r6, r9, sl, sp, lr}
    10f4:	00000200 	andeq	r0, r0, r0, lsl #4
    10f8:	69647473 	stmdbvs	r4!, {r0, r1, r4, r5, r6, sl, ip, sp, lr}^
    10fc:	672d746e 	strvs	r7, [sp, -lr, ror #8]!
    1100:	682e6363 	stmdavs	lr!, {r0, r1, r5, r6, r8, r9, sp, lr}
    1104:	00000200 	andeq	r0, r0, r0, lsl #4
    1108:	752d7773 	strvc	r7, [sp, #-1907]!	; 0x773
    110c:	2e747261 	cdpcs	2, 7, cr7, cr4, cr1, {3}
    1110:	00010068 	andeq	r0, r1, r8, rrx
    1114:	6e6f6300 	cdpvs	3, 6, cr6, cr15, cr0, {0}
    1118:	6c6f7274 	sfmvs	f7, 2, [pc], #-464	; f50 <_start-0x70b0>
    111c:	6f6c622d 	svcvs	0x006c622d
    1120:	682e6b63 	stmdavs	lr!, {r0, r1, r5, r6, r8, r9, fp, sp, lr}
    1124:	00000100 	andeq	r0, r0, r0, lsl #2
    1128:	69727473 	ldmdbvs	r2!, {r0, r1, r4, r5, r6, sl, ip, sp, lr}^
    112c:	682e676e 	stmdavs	lr!, {r1, r2, r3, r5, r6, r8, r9, sl, sp, lr}
    1130:	00000300 	andeq	r0, r0, r0, lsl #6
    1134:	02050000 	andeq	r0, r5, #0
    1138:	00009c80 	andeq	r9, r0, r0, lsl #25
    113c:	68833016 	stmvs	r3, {r1, r2, r4, ip, sp}
    1140:	4b9f144c 	blmi	fe7c6278 <__bss_end__+0xfe7bbdd8>
    1144:	0004022f 	andeq	r0, r4, pc, lsr #4
    1148:	00ec0101 	rsceq	r0, ip, r1, lsl #2
    114c:	00020000 	andeq	r0, r2, r0
    1150:	000000d0 	ldrdeq	r0, [r0], -r0	; <UNPREDICTABLE>
    1154:	0efb0102 	cdpeq	1, 15, cr0, cr11, cr2, {0}
    1158:	0101000d 	tsteq	r1, sp
    115c:	00000101 	andeq	r0, r0, r1, lsl #2
    1160:	00000100 	andeq	r0, r0, r0, lsl #2
    1164:	62696c01 	rsbvs	r6, r9, #256	; 0x100
    1168:	752f0063 	strvc	r0, [pc, #-99]!	; 110d <_start-0x6ef3>
    116c:	6c2f7273 	sfmvs	f7, 4, [pc], #-460	; fa8 <_start-0x7058>
    1170:	6c61636f 	stclvs	3, cr6, [r1], #-444	; 0xfffffe44
    1174:	6c65432f 	stclvs	3, cr4, [r5], #-188	; 0xffffff44
    1178:	2f72616c 	svccs	0x0072616c
    117c:	2d6d7261 	sfmcs	f7, 2, [sp, #-388]!	; 0xfffffe7c
    1180:	656e6f6e 	strbvs	r6, [lr, #-3950]!	; 0xf6e
    1184:	6261652d 	rsbvs	r6, r1, #188743680	; 0xb400000
    1188:	2e342f69 	cdpcs	15, 3, cr2, cr4, cr9, {3}
    118c:	2d332e38 	ldccs	14, cr2, [r3, #-224]!	; 0xffffff20
    1190:	37317363 	ldrcc	r7, [r1, -r3, ror #6]!
    1194:	6c2f6530 	cfstr32vs	mvfx6, [pc], #-192	; 10dc <_start-0x6f24>
    1198:	672f6269 	strvs	r6, [pc, -r9, ror #4]!
    119c:	612f6363 	teqvs	pc, r3, ror #6
    11a0:	6e2d6d72 	mcrvs	13, 1, r6, cr13, cr2, {3}
    11a4:	2d656e6f 	stclcs	14, cr6, [r5, #-444]!	; 0xfffffe44
    11a8:	69626165 	stmdbvs	r2!, {r0, r2, r5, r6, r8, sp, lr}^
    11ac:	382e342f 	stmdacc	lr!, {r0, r1, r2, r3, r5, sl, ip, sp}
    11b0:	692f332e 	stmdbvs	pc!, {r1, r2, r3, r5, r8, r9, ip, sp}	; <UNPREDICTABLE>
    11b4:	756c636e 	strbvc	r6, [ip, #-878]!	; 0x36e
    11b8:	2f006564 	svccs	0x00006564
    11bc:	2f727375 	svccs	0x00727375
    11c0:	61636f6c 	cmnvs	r3, ip, ror #30
    11c4:	65432f6c 	strbvs	r2, [r3, #-3948]	; 0xf6c
    11c8:	72616c6c 	rsbvc	r6, r1, #108, 24	; 0x6c00
    11cc:	6d72612f 	ldfvse	f6, [r2, #-188]!	; 0xffffff44
    11d0:	6e6f6e2d 	cdpvs	14, 6, cr6, cr15, cr13, {1}
    11d4:	61652d65 	cmnvs	r5, r5, ror #26
    11d8:	342f6962 	strtcc	r6, [pc], #-2402	; 11e0 <_start-0x6e20>
    11dc:	332e382e 	teqcc	lr, #3014656	; 0x2e0000
    11e0:	3173632d 	cmncc	r3, sp, lsr #6
    11e4:	2f653037 	svccs	0x00653037
    11e8:	2d6d7261 	sfmcs	f7, 2, [sp, #-388]!	; 0xfffffe7c
    11ec:	656e6f6e 	strbvs	r6, [lr, #-3950]!	; 0xf6e
    11f0:	6261652d 	rsbvs	r6, r1, #188743680	; 0xb400000
    11f4:	6e692f69 	cdpvs	15, 6, cr2, cr9, cr9, {3}
    11f8:	64756c63 	ldrbtvs	r6, [r5], #-3171	; 0xc63
    11fc:	6d000065 	stcvs	0, cr0, [r0, #-404]	; 0xfffffe6c
    1200:	65736d65 	ldrbvs	r6, [r3, #-3429]!	; 0xd65
    1204:	00632e74 	rsbeq	r2, r3, r4, ror lr
    1208:	73000001 	movwvc	r0, #1
    120c:	65646474 	strbvs	r6, [r4, #-1140]!	; 0x474
    1210:	00682e66 	rsbeq	r2, r8, r6, ror #28
    1214:	73000002 	movwvc	r0, #2
    1218:	6e697274 	mcrvs	2, 3, r7, cr9, cr4, {3}
    121c:	00682e67 	rsbeq	r2, r8, r7, ror #28
    1220:	00000003 	andeq	r0, r0, r3
    1224:	d0020500 	andle	r0, r2, r0, lsl #10
    1228:	1400009c 	strne	r0, [r0], #-156	; 0x9c
    122c:	002f4c13 	eoreq	r4, pc, r3, lsl ip	; <UNPREDICTABLE>
    1230:	49010402 	stmdbmi	r1, {r1, sl}
    1234:	0002024d 	andeq	r0, r2, sp, asr #4
    1238:	Address 0x0000000000001238 is out of bounds.


Disassembly of section .debug_str:

00000000 <.debug_str>:
   0:	53465047 	movtpl	r5, #24647	; 0x6047
   4:	00324c45 	eorseq	r4, r2, r5, asr #24
   8:	53465047 	movtpl	r5, #24647	; 0x6047
   c:	00344c45 	eorseq	r4, r4, r5, asr #24
  10:	30746962 	rsbscc	r6, r4, r2, ror #18
  14:	74696200 	strbtvc	r6, [r9], #-512	; 0x200
  18:	69620031 	stmdbvs	r2!, {r0, r4, r5}^
  1c:	62003274 	andvs	r3, r0, #116, 4	; 0x40000007
  20:	00337469 	eorseq	r7, r3, r9, ror #8
  24:	74736166 	ldrbtvc	r6, [r3], #-358	; 0x166
  28:	6970675f 	ldmdbvs	r0!, {r0, r1, r2, r3, r4, r6, r8, r9, sl, sp, lr}^
  2c:	72775f6f 	rsbsvc	r5, r7, #444	; 0x1bc
  30:	00657469 	rsbeq	r7, r5, r9, ror #8
  34:	35746962 	ldrbcc	r6, [r4, #-2402]!	; 0x962
  38:	74696200 	strbtvc	r6, [r9], #-512	; 0x200
  3c:	69620036 	stmdbvs	r2!, {r1, r2, r4, r5}^
  40:	6c003774 	stcvs	7, cr3, [r0], {116}	; 0x74
  44:	20676e6f 	rsbcs	r6, r7, pc, ror #28
  48:	676e6f6c 	strbvs	r6, [lr, -ip, ror #30]!
  4c:	736e7520 	cmnvc	lr, #32, 10	; 0x8000000
  50:	656e6769 	strbvs	r6, [lr, #-1897]!	; 0x769
  54:	6e692064 	cdpvs	0, 6, cr2, cr9, cr4, {3}
  58:	61660074 	smcvs	24580	; 0x6004
  5c:	675f7473 			; <UNDEFINED> instruction: 0x675f7473
  60:	5f6f6970 	svcpl	0x006f6970
  64:	5f746573 	svcpl	0x00746573
  68:	73006e6f 	movwvc	r6, #3695	; 0xe6f
  6c:	65767265 	ldrbvs	r7, [r6, #-613]!	; 0x265
  70:	69620072 	stmdbvs	r2!, {r1, r4, r5, r6}^
  74:	6c003474 	cfstrsvs	mvf3, [r0], {116}	; 0x74
  78:	20676e6f 	rsbcs	r6, r7, pc, ror #28
  7c:	676e6f6c 	strbvs	r6, [lr, -ip, ror #30]!
  80:	746e6920 	strbtvc	r6, [lr], #-2336	; 0x920
  84:	79636e00 	stmdbvc	r3!, {r9, sl, fp, sp, lr}^
  88:	00656c63 	rsbeq	r6, r5, r3, ror #24
  8c:	45535047 	ldrbmi	r5, [r3, #-71]	; 0x47
  90:	47003054 	smlsdmi	r0, r4, r0, r3
  94:	54455350 	strbpl	r5, [r5], #-848	; 0x350
  98:	50470031 	subpl	r0, r7, r1, lsr r0
  9c:	3056454c 	subscc	r4, r6, ip, asr #10
  a0:	4c504700 	mrrcmi	7, 0, r4, r0, cr0
  a4:	00315645 	eorseq	r5, r1, r5, asr #12
  a8:	74736574 	ldrbtvc	r6, [r3], #-1396	; 0x574
  ac:	6e65675f 	mcrvs	7, 3, r6, cr5, cr15, {2}
  b0:	746f6e00 	strbtvc	r6, [pc], #-3584	; b8 <_start-0x7f48>
  b4:	6e69616d 	powvsez	f6, f1, #5.0
  b8:	73616600 	cmnvc	r1, #0, 12
  bc:	70675f74 	rsbvc	r5, r7, r4, ror pc
  c0:	735f6f69 	cmpvc	pc, #420	; 0x1a4
  c4:	6f5f7465 	svcvs	0x005f7465
  c8:	47006666 	strmi	r6, [r0, -r6, ror #12]
  cc:	4320554e 	teqmi	r0, #327155712	; 0x13800000
  d0:	382e3420 	stmdacc	lr!, {r5, sl, ip, sp}
  d4:	2d20332e 	stccs	3, cr3, [r0, #-184]!	; 0xffffff48
  d8:	7570636d 	ldrbvc	r6, [r0, #-877]!	; 0x36d
  dc:	6d72613d 	ldfvse	f6, [r2, #-244]!	; 0xffffff0c
  e0:	36373131 			; <UNDEFINED> instruction: 0x36373131
  e4:	2d667a6a 	vstmdbcs	r6!, {s15-s120}
  e8:	6d2d2073 	stcvs	0, cr2, [sp, #-460]!	; 0xfffffe34
  ec:	656e7574 	strbvs	r7, [lr, #-1396]!	; 0x574
  f0:	6d72613d 	ldfvse	f6, [r2, #-244]!	; 0xffffff0c
  f4:	36373131 			; <UNDEFINED> instruction: 0x36373131
  f8:	2d667a6a 	vstmdbcs	r6!, {s15-s120}
  fc:	672d2073 			; <UNDEFINED> instruction: 0x672d2073
 100:	20626467 	rsbcs	r6, r2, r7, ror #8
 104:	20334f2d 	eorscs	r4, r3, sp, lsr #30
 108:	6474732d 	ldrbtvs	r7, [r4], #-813	; 0x32d
 10c:	756e673d 	strbvc	r6, [lr, #-1853]!	; 0x73d
 110:	2d203939 	stccs	9, cr3, [r0, #-228]!	; 0xffffff1c
 114:	65726666 	ldrbvs	r6, [r2, #-1638]!	; 0x666
 118:	61747365 	cmnvs	r4, r5, ror #6
 11c:	6e69646e 	cdpvs	4, 6, cr6, cr9, cr14, {3}
 120:	6c630067 	stclvs	0, cr0, [r3], #-412	; 0xfffffe64
 124:	746e6569 	strbtvc	r6, [lr], #-1385	; 0x569
 128:	6d657400 	cfstrdvs	mvd7, [r5, #-0]
 12c:	70720070 	rsbsvc	r0, r2, r0, ror r0
 130:	65725f69 	ldrbvs	r5, [r2, #-3945]!	; 0xf69
 134:	5f746573 	svcpl	0x00746573
 138:	63747570 	cmnvs	r4, #112, 10	; 0x1c000000
 13c:	46504700 	ldrbmi	r4, [r0], -r0, lsl #14
 140:	304c4553 	subcc	r4, ip, r3, asr r5
 144:	46504700 	ldrbmi	r4, [r0], -r0, lsl #14
 148:	314c4553 	cmpcc	ip, r3, asr r5
 14c:	46504700 	ldrbmi	r4, [r0], -r0, lsl #14
 150:	334c4553 	movtcc	r4, #50515	; 0xc553
 154:	70786500 	rsbsvc	r6, r8, r0, lsl #10
 158:	65746365 	ldrbvs	r6, [r4, #-869]!	; 0x365
 15c:	50470064 	subpl	r0, r7, r4, rrx
 160:	4c455346 	mcrrmi	3, 4, r5, r5, cr6
 164:	75630035 	strbvc	r0, [r3, #-53]!	; 0x35
 168:	765f7272 			; <UNDEFINED> instruction: 0x765f7272
 16c:	65756c61 	ldrbvs	r6, [r5, #-3169]!	; 0xc61
 170:	465f5f00 	ldrbmi	r5, [pc], -r0, lsl #30
 174:	54434e55 	strbpl	r4, [r3], #-3669	; 0xe55
 178:	5f4e4f49 	svcpl	0x004e4f49
 17c:	6873005f 	ldmdavs	r3!, {r0, r1, r2, r3, r4, r6}^
 180:	2074726f 	rsbscs	r7, r4, pc, ror #4
 184:	69736e75 	ldmdbvs	r3!, {r0, r2, r4, r5, r6, r9, sl, fp, sp, lr}^
 188:	64656e67 	strbtvs	r6, [r5], #-3687	; 0xe67
 18c:	746e6920 	strbtvc	r6, [lr], #-2336	; 0x920
 190:	69706700 	ldmdbvs	r0!, {r8, r9, sl, sp, lr}^
 194:	73665f6f 	cmnvc	r6, #444	; 0x1bc
 198:	00306c65 	eorseq	r6, r0, r5, ror #24
 19c:	4c435047 	mcrrmi	0, 4, r5, r3, cr7
 1a0:	67003152 	smlsdvs	r0, r2, r1, r3
 1a4:	5f6f6970 	svcpl	0x006f6970
 1a8:	64616572 	strbtvs	r6, [r1], #-1394	; 0x572
 1ac:	656c6300 	strbvs	r6, [ip, #-768]!	; 0x300
 1b0:	725f6e61 	subsvc	r6, pc, #1552	; 0x610
 1b4:	6f6f6265 	svcvs	0x006f6265
 1b8:	65720074 	ldrbvs	r0, [r2, #-116]!	; 0x74
 1bc:	00796c70 	rsbseq	r6, r9, r0, ror ip
 1c0:	657a6973 	ldrbvs	r6, [sl, #-2419]!	; 0x973
 1c4:	65707974 	ldrbvs	r7, [r0, #-2420]!	; 0x974
 1c8:	73552f00 	cmpvc	r5, #0, 30
 1cc:	2f737265 	svccs	0x00737265
 1d0:	61697262 	cmnvs	r9, r2, ror #4
 1d4:	6e756a6e 	vsubvs.f32	s13, s10, s29
 1d8:	7365442f 	cmnvc	r5, #788529152	; 0x2f000000
 1dc:	706f746b 	rsbvc	r7, pc, fp, ror #8
 1e0:	6863732f 	stmdavs	r3!, {r0, r1, r2, r3, r5, r8, r9, ip, sp, lr}^
 1e4:	2f6c6f6f 	svccs	0x006c6f6f
 1e8:	69727053 	ldmdbvs	r2!, {r0, r1, r4, r6, ip, sp, lr}^
 1ec:	3931676e 	ldmdbcc	r1!, {r1, r2, r3, r5, r6, r8, r9, sl, sp, lr}
 1f0:	432f3032 	teqmi	pc, #50	; 0x32
 1f4:	30343253 	eorscc	r3, r4, r3, asr r2
 1f8:	632f584c 	teqvs	pc, #76, 16	; 0x4c0000
 1fc:	30343273 	eorscc	r3, r4, r3, ror r2
 200:	322d786c 	eorcc	r7, sp, #108, 16	; 0x6c0000
 204:	72707330 	rsbsvc	r7, r0, #48, 6	; 0xc0000000
 208:	62616c2f 	rsbvs	r6, r1, #12032	; 0x2f00
 20c:	2d342f73 	ldccs	15, cr2, [r4, #-460]!	; 0xfffffe34
 210:	74726175 	ldrbtvc	r6, [r2], #-373	; 0x175
 214:	316e382d 	cmncc	lr, sp, lsr #16
 218:	6f63732f 	svcvs	0x0063732f
 21c:	5f006570 	svcpl	0x00006570
 220:	0074756f 	rsbseq	r7, r4, pc, ror #10
 224:	69736e75 	ldmdbvs	r3!, {r0, r2, r4, r5, r6, r9, sl, fp, sp, lr}^
 228:	64656e67 	strbtvs	r6, [r5], #-3687	; 0xe67
 22c:	61686320 	cmnvs	r8, r0, lsr #6
 230:	68730072 	ldmdavs	r3!, {r1, r4, r5, r6}^
 234:	2074726f 	rsbscs	r7, r4, pc, ror #4
 238:	00746e69 	rsbseq	r6, r4, r9, ror #28
 23c:	4c435047 	mcrrmi	0, 4, r5, r3, cr7
 240:	64003052 	strvs	r3, [r0], #-82	; 0x52
 244:	79616c65 	stmdbvc	r1!, {r0, r2, r5, r6, sl, fp, sp, lr}^
 248:	00736d5f 	rsbseq	r6, r3, pc, asr sp
 24c:	6c637963 	stclvs	9, cr7, [r3], #-396	; 0xfffffe74
 250:	705f7365 	subsvc	r7, pc, r5, ror #6
 254:	735f7265 	cmpvc	pc, #1342177286	; 0x50000006
 258:	67006365 	strvs	r6, [r0, -r5, ror #6]
 25c:	5f6f6970 	svcpl	0x006f6970
 260:	30746573 	rsbscc	r6, r4, r3, ror r5
 264:	72696600 	rsbvc	r6, r9, #0, 12
 268:	67007473 	smlsdxvs	r0, r3, r4, r7
 26c:	5f6f6970 	svcpl	0x006f6970
 270:	5f746573 	svcpl	0x00746573
 274:	75706e69 	ldrbvc	r6, [r0, #-3689]!	; 0xe69
 278:	616c0074 	smcvs	49156	; 0xc004
 27c:	67007473 	smlsdxvs	r0, r3, r4, r7
 280:	5f6f6970 	svcpl	0x006f6970
 284:	5f746573 	svcpl	0x00746573
 288:	7074756f 	rsbsvc	r7, r4, pc, ror #10
 28c:	65007475 	strvs	r7, [r0, #-1141]	; 0x475
 290:	6c62616e 	stfvse	f6, [r2], #-440	; 0xfffffe48
 294:	61635f65 	cmnvs	r3, r5, ror #30
 298:	00656863 	rsbeq	r6, r5, r3, ror #16
 29c:	746e6975 	strbtvc	r6, [lr], #-2421	; 0x975
 2a0:	00745f38 	rsbseq	r5, r4, r8, lsr pc
 2a4:	6f697067 	svcvs	0x00697067
 2a8:	726c635f 	rsbvc	r6, ip, #2080374785	; 0x7c000001
 2ac:	63730030 	cmnvs	r3, #48	; 0x30
 2b0:	2e65706f 	cdpcs	0, 6, cr7, cr5, cr15, {3}
 2b4:	5f5f0063 	svcpl	0x005f0063
 2b8:	63756e67 	cmnvs	r5, #1648	; 0x670
 2bc:	5f61765f 	svcpl	0x0061765f
 2c0:	7473696c 	ldrbtvc	r6, [r3], #-2412	; 0x96c
 2c4:	62696c00 	rsbvs	r6, r9, #0, 24
 2c8:	72702f63 	rsbsvc	r2, r0, #396	; 0x18c
 2cc:	6b746e69 	blvs	1d1bc78 <__bss_end__+0x1d117d8>
 2d0:	4700632e 	strmi	r6, [r0, -lr, lsr #6]
 2d4:	4320554e 	teqmi	r0, #327155712	; 0x13800000
 2d8:	382e3420 	stmdacc	lr!, {r5, sl, ip, sp}
 2dc:	2d20332e 	stccs	3, cr3, [r0, #-184]!	; 0xffffff48
 2e0:	7570636d 	ldrbvc	r6, [r0, #-877]!	; 0x36d
 2e4:	6d72613d 	ldfvse	f6, [r2, #-244]!	; 0xffffff0c
 2e8:	36373131 			; <UNDEFINED> instruction: 0x36373131
 2ec:	2d667a6a 	vstmdbcs	r6!, {s15-s120}
 2f0:	6d2d2073 	stcvs	0, cr2, [sp, #-460]!	; 0xfffffe34
 2f4:	656e7574 	strbvs	r7, [lr, #-1396]!	; 0x574
 2f8:	6d72613d 	ldfvse	f6, [r2, #-244]!	; 0xffffff0c
 2fc:	36373131 			; <UNDEFINED> instruction: 0x36373131
 300:	2d667a6a 	vstmdbcs	r6!, {s15-s120}
 304:	672d2073 			; <UNDEFINED> instruction: 0x672d2073
 308:	20626467 	rsbcs	r6, r2, r7, ror #8
 30c:	20674f2d 	rsbcs	r4, r7, sp, lsr #30
 310:	6474732d 	ldrbtvs	r7, [r4], #-813	; 0x32d
 314:	756e673d 	strbvc	r6, [lr, #-1853]!	; 0x73d
 318:	2d203939 	stccs	9, cr3, [r0, #-228]!	; 0xffffff1c
 31c:	65726666 	ldrbvs	r6, [r2, #-1638]!	; 0x666
 320:	61747365 	cmnvs	r4, r5, ror #6
 324:	6e69646e 	cdpvs	4, 6, cr6, cr9, cr14, {3}
 328:	61760067 	cmnvs	r6, r7, rrx
 32c:	6972705f 	ldmdbvs	r2!, {r0, r1, r2, r3, r4, r6, ip, sp, lr}^
 330:	006b746e 	rsbeq	r7, fp, lr, ror #8
 334:	61765f5f 	cmnvs	r6, pc, asr pc
 338:	73696c5f 	cmnvc	r9, #24320	; 0x5f00
 33c:	552f0074 	strpl	r0, [pc, #-116]!	; 2d0 <_start-0x7d30>
 340:	73726573 	cmnvc	r2, #482344960	; 0x1cc00000
 344:	6972622f 	ldmdbvs	r2!, {r0, r1, r2, r3, r5, r9, sp, lr}^
 348:	756a6e61 	strbvc	r6, [sl, #-3681]!	; 0xe61
 34c:	65442f6e 	strbvs	r2, [r4, #-3950]	; 0xf6e
 350:	6f746b73 	svcvs	0x00746b73
 354:	63732f70 	cmnvs	r3, #112, 30	; 0x1c0
 358:	6c6f6f68 	stclvs	15, cr6, [pc], #-416	; 1c0 <_start-0x7e40>
 35c:	6e69572f 	cdpvs	7, 6, cr5, cr9, cr15, {1}
 360:	31726574 	cmncc	r2, r4, ror r5
 364:	2f303239 	svccs	0x00303239
 368:	34315343 	ldrtcc	r5, [r1], #-835	; 0x343
 36c:	632f4530 	teqvs	pc, #48, 10	; 0xc000000
 370:	30343173 	eorscc	r3, r4, r3, ror r1
 374:	30322d65 	eorscc	r2, r2, r5, ror #26
 378:	2f6e6977 	svccs	0x006e6977
 37c:	7062696c 	rsbvc	r6, r2, ip, ror #18
 380:	72610069 	rsbvc	r0, r1, #105	; 0x69
 384:	5f007367 	svcpl	0x00007367
 388:	0070615f 	rsbseq	r6, r0, pc, asr r1
 38c:	65746e69 	ldrbvs	r6, [r4, #-3689]!	; 0xe69
 390:	6c616e72 	stclvs	14, cr6, [r1], #-456	; 0xfffffe38
 394:	7475705f 	ldrbtvc	r7, [r5], #-95	; 0x5f
 398:	72616863 	rsbvc	r6, r1, #6488064	; 0x630000
 39c:	69707200 	ldmdbvs	r0!, {r9, ip, sp, lr}^
 3a0:	7475705f 	ldrbtvc	r7, [r5], #-95	; 0x5f
 3a4:	72616863 	rsbvc	r6, r1, #6488064	; 0x630000
 3a8:	62696c00 	rsbvs	r6, r9, #0, 24
 3ac:	75702f63 	ldrbvc	r2, [r0, #-3939]!	; 0xf63
 3b0:	61686374 	smcvs	34356	; 0x8634
 3b4:	00632e72 	rsbeq	r2, r3, r2, ror lr
 3b8:	5f697072 	svcpl	0x00697072
 3bc:	5f746573 	svcpl	0x00746573
 3c0:	63747570 	cmnvs	r4, #112, 10	; 0x1c000000
 3c4:	62696c00 	rsbvs	r6, r9, #0, 24
 3c8:	75702f63 	ldrbvc	r2, [r0, #-3939]!	; 0xf63
 3cc:	632e6b74 	teqvs	lr, #116, 22	; 0x1d000
 3d0:	746e6900 	strbtvc	r6, [lr], #-2304	; 0x900
 3d4:	616e7265 	cmnvs	lr, r5, ror #4
 3d8:	75705f6c 	ldrbvc	r5, [r0, #-3948]!	; 0xf6c
 3dc:	6e006b74 	vmovvs.16	d0[1], r6
 3e0:	705f6765 	subsvc	r6, pc, r5, ror #14
 3e4:	76657200 	strbtvc	r7, [r5], -r0, lsl #4
 3e8:	65737265 	ldrbvs	r7, [r3, #-613]!	; 0x265
 3ec:	64736900 	ldrbtvs	r6, [r3], #-2304	; 0x900
 3f0:	74696769 	strbtvc	r6, [r9], #-1897	; 0x769
 3f4:	74757000 	ldrbtvc	r7, [r5], #-0
 3f8:	70665f73 	rsbvc	r5, r6, r3, ror pc
 3fc:	73616200 	cmnvc	r1, #0, 4
 400:	69730065 	ldmdbvs	r3!, {r0, r2, r5, r6}^
 404:	64656e67 	strbtvs	r6, [r5], #-3687	; 0xe67
 408:	6c00705f 	stcvs	0, cr7, [r0], {95}	; 0x5f
 40c:	2f636269 	svccs	0x00636269
 410:	702d6176 	eorvc	r6, sp, r6, ror r1
 414:	746e6972 	strbtvc	r6, [lr], #-2418	; 0x972
 418:	00632e6b 	rsbeq	r2, r3, fp, ror #28
 41c:	5f697072 	svcpl	0x00697072
 420:	5f746573 	svcpl	0x00746573
 424:	7074756f 	rsbsvc	r7, r4, pc, ror #10
 428:	77007475 	smlsdxvc	r0, r5, r4, r7
 42c:	68746469 	ldmdavs	r4!, {r0, r3, r5, r6, sl, sp, lr}^
 430:	74757000 	ldrbtvc	r7, [r5], #-0
 434:	70665f63 	rsbvc	r5, r6, r3, ror #30
 438:	696d6500 	stmdbvs	sp!, {r8, sl, sp, lr}^
 43c:	69640074 	stmdbvs	r4!, {r2, r4, r5, r6}^
 440:	6c626173 	stfvse	f6, [r2], #-460	; 0xfffffe34
 444:	61635f65 	cmnvs	r3, r5, ror #30
 448:	00656863 	rsbeq	r6, r5, r3, ror #16
 44c:	34317363 	ldrtcc	r7, [r1], #-867	; 0x363
 450:	732d6530 	teqvc	sp, #48, 10	; 0xc000000
 454:	632f6372 	teqvs	pc, #-939524095	; 0xc8000001
 458:	65686361 	strbvs	r6, [r8, #-865]!	; 0x361
 45c:	7200632e 	andvc	r6, r0, #-1207959552	; 0xb8000000
 460:	725f6970 	subsvc	r6, pc, #112, 18	; 0x1c0000
 464:	6f6f6265 	svcvs	0x006f6265
 468:	73630074 	cmnvc	r3, #116	; 0x74
 46c:	65303431 	ldrvs	r3, [r0, #-1073]!	; 0x431
 470:	6372732d 	cmnvs	r2, #-1275068416	; 0xb4000000
 474:	656c632f 	strbvs	r6, [ip, #-815]!	; 0x32f
 478:	722d6e61 	eorvc	r6, sp, #1552	; 0x610
 47c:	6f6f6265 	svcvs	0x006f6265
 480:	00632e74 	rsbeq	r2, r3, r4, ror lr
 484:	65746e69 	ldrbvs	r6, [r4, #-3689]!	; 0xe69
 488:	6c616e72 	stclvs	14, cr6, [r1], #-456	; 0xfffffe38
 48c:	5f77735f 	svcpl	0x0077735f
 490:	63747570 	cmnvs	r4, #112, 10	; 0x1c000000
 494:	00726168 	rsbseq	r6, r2, r8, ror #2
 498:	73625f5f 	cmnvc	r2, #380	; 0x17c
 49c:	74735f73 	ldrbtvc	r5, [r3], #-3955	; 0xf73
 4a0:	5f747261 	svcpl	0x00747261
 4a4:	7362005f 	cmnvc	r2, #95	; 0x5f
 4a8:	6e655f73 	mcrvs	15, 3, r5, cr5, cr3, {3}
 4ac:	79630064 	stmdbvc	r3!, {r2, r5, r6}^
 4b0:	5f656c63 	svcpl	0x00656c63
 4b4:	5f726570 	svcpl	0x00726570
 4b8:	00746962 	rsbseq	r6, r4, r2, ror #18
 4bc:	736e6f63 	cmnvc	lr, #396	; 0x18c
 4c0:	5f656c6f 	svcpl	0x00656c6f
 4c4:	74726175 	ldrbtvc	r6, [r2], #-373	; 0x175
 4c8:	5f777300 	svcpl	0x00777300
 4cc:	74726175 	ldrbtvc	r6, [r2], #-373	; 0x175
 4d0:	6972705f 	ldmdbvs	r2!, {r0, r1, r2, r3, r4, r6, ip, sp, lr}^
 4d4:	006b746e 	rsbeq	r7, fp, lr, ror #8
 4d8:	43545550 	cmpmi	r4, #80, 10	; 0x14000000
 4dc:	5053455f 	subspl	r4, r3, pc, asr r5
 4e0:	5241555f 	subpl	r5, r1, #398458880	; 0x17c00000
 4e4:	77730054 			; <UNDEFINED> instruction: 0x77730054
 4e8:	7261755f 	rsbvc	r7, r1, #398458880	; 0x17c00000
 4ec:	00745f74 	rsbseq	r5, r4, r4, ror pc
 4f0:	43545550 	cmpmi	r4, #80, 10	; 0x14000000
 4f4:	5f57535f 	svcpl	0x0057535f
 4f8:	54524155 	ldrbpl	r4, [r2], #-341	; 0x155
 4fc:	75616200 	strbvc	r6, [r1, #-512]!	; 0x200
 500:	55500064 	ldrbpl	r0, [r0, #-100]	; 0x64
 504:	485f4354 	ldmdami	pc, {r2, r4, r6, r8, r9, lr}^	; <UNPREDICTABLE>
 508:	41555f57 	cmpmi	r5, r7, asr pc
 50c:	5f005452 	svcpl	0x00005452
 510:	61747363 	cmnvs	r4, r3, ror #6
 514:	75007472 	strvc	r7, [r0, #-1138]	; 0x472
 518:	5f747261 	svcpl	0x00747261
 51c:	5f766564 	svcpl	0x00766564
 520:	77730074 			; <UNDEFINED> instruction: 0x77730074
 524:	7261755f 	rsbvc	r7, r1, #398458880	; 0x17c00000
 528:	75705f74 	ldrbvc	r5, [r0, #-3956]!	; 0xf74
 52c:	63006374 	movwvs	r6, #884	; 0x374
 530:	72746e6f 	rsbsvc	r6, r4, #1776	; 0x6f0
 534:	625f6c6f 	subsvs	r6, pc, #28416	; 0x6f00
 538:	745f6b6c 	ldrbvc	r6, [pc], #-2924	; 540 <_start-0x7ac0>
 53c:	5f777300 	svcpl	0x00777300
 540:	74726175 	ldrbtvc	r6, [r2], #-373	; 0x175
 544:	5f626300 	svcpl	0x00626300
 548:	5f746567 	svcpl	0x00746567
 54c:	636f6c62 	cmnvs	pc, #25088	; 0x6200
 550:	5f5f006b 	svcpl	0x005f006b
 554:	5f737362 	svcpl	0x00737362
 558:	5f646e65 	svcpl	0x00646e65
 55c:	7363005f 	cmnvc	r3, #95	; 0x5f
 560:	65303431 	ldrvs	r3, [r0, #-1073]!	; 0x431
 564:	6372732d 	cmnvs	r2, #-1275068416	; 0xb4000000
 568:	7473632f 	ldrbtvc	r6, [r3], #-815	; 0x32f
 56c:	2e747261 	cdpcs	2, 7, cr7, cr4, cr1, {3}
 570:	6f630063 	svcvs	0x00630063
 574:	6c6f736e 	stclvs	3, cr7, [pc], #-440	; 3c4 <_start-0x7c3c>
 578:	65645f65 	strbvs	r5, [r4, #-3941]!	; 0xf65
 57c:	69750076 	ldmdbvs	r5!, {r1, r2, r4, r5, r6}^
 580:	3233746e 	eorscc	r7, r3, #1845493760	; 0x6e000000
 584:	6d00745f 	cfstrsvs	mvf7, [r0, #-380]	; 0xfffffe84
 588:	63696761 	cmnvs	r9, #25427968	; 0x1840000
 58c:	5f746100 	svcpl	0x00746100
 590:	72657375 	rsbvc	r7, r5, #-738197503	; 0xd4000001
 594:	76656c5f 			; <UNDEFINED> instruction: 0x76656c5f
 598:	50006c65 	andpl	r6, r0, r5, ror #24
 59c:	41505f4d 	cmpmi	r0, sp, asr #30
 5a0:	4f575353 	svcmi	0x00575353
 5a4:	63004452 	movwvs	r4, #1106	; 0x452
 5a8:	30343173 	eorscc	r3, r4, r3, ror r1
 5ac:	72732d65 	rsbsvc	r2, r3, #6464	; 0x1940
 5b0:	65722f63 	ldrbvs	r2, [r2, #-3939]!	; 0xf63
 5b4:	746f6f62 	strbtvc	r6, [pc], #-3938	; 5bc <_start-0x7a44>
 5b8:	5000632e 	andpl	r6, r0, lr, lsr #6
 5bc:	53525f4d 	cmppl	r2, #308	; 0x134
 5c0:	575f4354 			; <UNDEFINED> instruction: 0x575f4354
 5c4:	47464352 	smlsldmi	r4, r6, r2, r3
 5c8:	4c55465f 	mrrcmi	6, 5, r4, r5, cr15
 5cc:	45525f4c 	ldrbmi	r5, [r2, #-3916]	; 0xf4c
 5d0:	00544553 	subseq	r4, r4, r3, asr r5
 5d4:	575f4d50 			; <UNDEFINED> instruction: 0x575f4d50
 5d8:	00474f44 	subeq	r4, r7, r4, asr #30
 5dc:	5f746573 	svcpl	0x00746573
 5e0:	72657375 	rsbvc	r7, r5, #-738197503	; 0xd4000001
 5e4:	76656c5f 			; <UNDEFINED> instruction: 0x76656c5f
 5e8:	50006c65 	andpl	r6, r0, r5, ror #24
 5ec:	32335455 	eorscc	r5, r3, #1426063360	; 0x55000000
 5f0:	5f4d5000 	svcpl	0x004d5000
 5f4:	43545352 	cmpmi	r4, #1207959553	; 0x48000001
 5f8:	73706300 	cmnvc	r0, #0, 6
 5fc:	69740072 	ldmdbvs	r4!, {r1, r4, r5, r6}^
 600:	5f72656d 	svcpl	0x0072656d
 604:	5f746567 	svcpl	0x00746567
 608:	63657375 	cmnvs	r5, #-738197503	; 0xd4000001
 60c:	7761725f 			; <UNDEFINED> instruction: 0x7761725f
 610:	6c656400 	cfstrdvs	mvd6, [r5], #-0
 614:	735f7961 	cmpvc	pc, #1589248	; 0x184000
 618:	63006365 	movwvs	r6, #869	; 0x365
 61c:	30343173 	eorscc	r3, r4, r3, ror r1
 620:	72732d65 	rsbsvc	r2, r3, #6464	; 0x1940
 624:	69742f63 	ldmdbvs	r4!, {r0, r1, r5, r6, r8, r9, sl, fp, sp}^
 628:	2e72656d 	cdpcs	5, 7, cr6, cr2, cr13, {3}
 62c:	45470063 	strbmi	r0, [r7, #-99]	; 0x63
 630:	00323354 	eorseq	r3, r2, r4, asr r3
 634:	6b636974 	blvs	18dac0c <__bss_end__+0x18d076c>
 638:	65640073 	strbvs	r0, [r4, #-115]!	; 0x73
 63c:	5f79616c 	svcpl	0x0079616c
 640:	6c637963 	stclvs	9, cr7, [r3], #-396	; 0xfffffe74
 644:	64007365 	strvs	r7, [r0], #-869	; 0x365
 648:	79616c65 	stmdbvc	r1!, {r0, r2, r5, r6, sl, fp, sp, lr}^
 64c:	0073755f 	rsbseq	r7, r3, pc, asr r5
 650:	656d6974 	strbvs	r6, [sp, #-2420]!	; 0x974
 654:	65675f72 	strbvs	r5, [r7, #-3954]!	; 0xf72
 658:	73755f74 	cmnvc	r5, #116, 30	; 0x1d0
 65c:	67006365 	strvs	r6, [r0, -r5, ror #6]
 660:	5f6f6970 	svcpl	0x006f6970
 664:	6e657665 	cdpvs	6, 6, cr7, cr5, cr5, {3}
 668:	65645f74 	strbvs	r5, [r4, #-3956]!	; 0xf74
 66c:	74636574 	strbtvc	r6, [r3], #-1396	; 0x574
 670:	70006465 	andvc	r6, r0, r5, ror #8
 674:	32337475 	eorscc	r7, r3, #1962934272	; 0x75000000
 678:	414e4500 	cmpmi	lr, r0, lsl #10
 67c:	5f454c42 	svcpl	0x00454c42
 680:	53515249 	cmppl	r1, #-1879048188	; 0x90000004
 684:	6900325f 	stmdbvs	r0, {r0, r1, r2, r3, r4, r6, r9, ip, sp}
 688:	70675f73 	rsbvc	r5, r7, r3, ror pc
 68c:	695f6f69 	ldmdbvs	pc, {r0, r3, r5, r6, r8, r9, sl, fp, sp, lr}^	; <UNPREDICTABLE>
 690:	4700746e 	strmi	r7, [r0, -lr, ror #8]
 694:	5f4f4950 	svcpl	0x004f4950
 698:	434e5546 	movtmi	r5, #58694	; 0xe546
 69c:	504e495f 	subpl	r4, lr, pc, asr r9
 6a0:	6d005455 	cfstrsvs	mvf5, [r0, #-340]	; 0xfffffeac
 6a4:	72732d79 	rsbsvc	r2, r3, #7744	; 0x1e40
 6a8:	70672f63 	rsbvc	r2, r7, r3, ror #30
 6ac:	632e6f69 	teqvs	lr, #420	; 0x1a4
 6b0:	746e6900 	strbtvc	r6, [lr], #-2304	; 0x900
 6b4:	73616d5f 	cmnvc	r1, #6080	; 0x17c0
 6b8:	6572006b 	ldrbvs	r0, [r2, #-107]!	; 0x6b
 6bc:	74735f67 	ldrbtvc	r5, [r3], #-3943	; 0xf67
 6c0:	67007461 	strvs	r7, [r0, -r1, ror #8]
 6c4:	5f6f6970 	svcpl	0x006f6970
 6c8:	00676572 	rsbeq	r6, r7, r2, ror r5
 6cc:	5f766564 	svcpl	0x00766564
 6d0:	72726162 	rsbsvc	r6, r2, #-2147483624	; 0x80000018
 6d4:	00726569 	rsbseq	r6, r2, r9, ror #10
 6d8:	6f697067 	svcvs	0x00697067
 6dc:	746e695f 	strbtvc	r6, [lr], #-2399	; 0x95f
 6e0:	7369725f 	cmnvc	r9, #-268435451	; 0xf0000005
 6e4:	5f676e69 	svcpl	0x00676e69
 6e8:	65676465 	strbvs	r6, [r7, #-1125]!	; 0x465
 6ec:	69706700 	ldmdbvs	r0!, {r8, r9, sl, sp, lr}^
 6f0:	65735f6f 	ldrbvs	r5, [r3, #-3951]!	; 0xf6f
 6f4:	75665f74 	strbvc	r5, [r6, #-3956]!	; 0xf74
 6f8:	6974636e 	ldmdbvs	r4!, {r1, r2, r3, r5, r6, r8, r9, sp, lr}^
 6fc:	47006e6f 	strmi	r6, [r0, -pc, ror #28]
 700:	4e455250 	mcrmi	2, 2, r5, cr5, cr0, {2}
 704:	50470030 	subpl	r0, r7, r0, lsr r0
 708:	314e4552 	cmpcc	lr, r2, asr r5
 70c:	69706700 	ldmdbvs	r0!, {r8, r9, sl, sp, lr}^
 710:	76655f6f 	strbtvc	r5, [r5], -pc, ror #30
 714:	5f746e65 	svcpl	0x00746e65
 718:	61656c63 	cmnvs	r5, r3, ror #24
 71c:	52490072 	subpl	r0, r9, #114	; 0x72
 720:	45505f51 	ldrbmi	r5, [r0, #-3921]	; 0xf51
 724:	4e49444e 	cdpmi	4, 4, cr4, cr9, cr14, {2}
 728:	00315f47 	eorseq	r5, r1, r7, asr #30
 72c:	5f515249 	svcpl	0x00515249
 730:	444e4550 	strbmi	r4, [lr], #-1360	; 0x550
 734:	5f474e49 	svcpl	0x00474e49
 738:	69620032 	stmdbvs	r2!, {r1, r4, r5}^
 73c:	73616d74 	cmnvc	r1, #116, 26	; 0x1d00
 740:	7566006b 	strbvc	r0, [r6, #-107]!	; 0x6b
 744:	6700636e 	strvs	r6, [r0, -lr, ror #6]
 748:	5f6f6970 	svcpl	0x006f6970
 74c:	67676f74 			; <UNDEFINED> instruction: 0x67676f74
 750:	4700656c 	strmi	r6, [r0, -ip, ror #10]
 754:	53444550 	movtpl	r4, #17744	; 0x4550
 758:	50470030 	subpl	r0, r7, r0, lsr r0
 75c:	31534445 	cmpcc	r3, r5, asr #8
 760:	46504700 	ldrbmi	r4, [r0], -r0, lsl #14
 764:	00304e45 	eorseq	r4, r0, r5, asr #28
 768:	45465047 	strbmi	r5, [r6, #-71]	; 0x47
 76c:	4700314e 	strmi	r3, [r0, -lr, asr #2]
 770:	5f4f4950 	svcpl	0x004f4950
 774:	434e5546 	movtmi	r5, #58694	; 0xe546
 778:	54554f5f 	ldrbpl	r4, [r5], #-3935	; 0xf5f
 77c:	00545550 	subseq	r5, r4, r0, asr r5
 780:	33746567 	cmncc	r4, #432013312	; 0x19c00000
 784:	70670032 	rsbvc	r0, r7, r2, lsr r0
 788:	695f6f69 	ldmdbvs	pc, {r0, r3, r5, r6, r8, r9, sl, fp, sp, lr}^	; <UNPREDICTABLE>
 78c:	665f746e 	ldrbvs	r7, [pc], -lr, ror #8
 790:	696c6c61 	stmdbvs	ip!, {r0, r5, r6, sl, fp, sp, lr}^
 794:	655f676e 	ldrbvs	r6, [pc, #-1902]	; 2e <_start-0x7fd2>
 798:	00656764 	rsbeq	r6, r5, r4, ror #14
 79c:	6f697067 	svcvs	0x00697067
 7a0:	6e75665f 	mrcvs	6, 3, r6, cr5, cr15, {2}
 7a4:	00745f63 	rsbseq	r5, r4, r3, ror #30
 7a8:	4f495047 	svcmi	0x00495047
 7ac:	4e55465f 	mrcmi	6, 2, r4, cr5, cr15, {2}
 7b0:	4c415f43 	mcrrmi	15, 4, r5, r1, cr3
 7b4:	47003054 	smlsdmi	r0, r4, r0, r3
 7b8:	5f4f4950 	svcpl	0x004f4950
 7bc:	434e5546 	movtmi	r5, #58694	; 0xe546
 7c0:	544c415f 	strbpl	r4, [ip], #-351	; 0x15f
 7c4:	50470031 	subpl	r0, r7, r1, lsr r0
 7c8:	465f4f49 	ldrbmi	r4, [pc], -r9, asr #30
 7cc:	5f434e55 	svcpl	0x00434e55
 7d0:	32544c41 	subscc	r4, r4, #16640	; 0x4100
 7d4:	49504700 	ldmdbmi	r0, {r8, r9, sl, lr}^
 7d8:	55465f4f 	strbpl	r5, [r6, #-3919]	; 0xf4f
 7dc:	415f434e 	cmpmi	pc, lr, asr #6
 7e0:	0033544c 	eorseq	r5, r3, ip, asr #8
 7e4:	4f495047 	svcmi	0x00495047
 7e8:	4e55465f 	mrcmi	6, 2, r4, cr5, cr15, {2}
 7ec:	4c415f43 	mcrrmi	15, 4, r5, r1, cr3
 7f0:	47003454 	smlsdmi	r0, r4, r4, r3
 7f4:	5f4f4950 	svcpl	0x004f4950
 7f8:	434e5546 	movtmi	r5, #58694	; 0xe546
 7fc:	544c415f 	strbpl	r4, [ip], #-351	; 0x15f
 800:	65720035 	ldrbvs	r0, [r2, #-53]!	; 0x35
 804:	65735f67 	ldrbvs	r5, [r3, #-3943]!	; 0xf67
 808:	7463656c 	strbtvc	r6, [r3], #-1388	; 0x56c
 80c:	63796300 	cmnvs	r9, #0, 6
 810:	7265705f 	rsbvc	r7, r5, #95	; 0x5f
 814:	7469625f 	strbtvc	r6, [r9], #-607	; 0x25f
 818:	69727700 	ldmdbvs	r2!, {r8, r9, sl, ip, sp, lr}^
 81c:	635f6574 	cmpvs	pc, #116, 10	; 0x1d000000
 820:	755f6379 	ldrbvc	r6, [pc, #-889]	; 4af <_start-0x7b51>
 824:	6c69746e 	cfstrdvs	mvd7, [r9], #-440	; 0xfffffe48
 828:	5f777300 	svcpl	0x00777300
 82c:	74726175 	ldrbtvc	r6, [r2], #-373	; 0x175
 830:	7465675f 	strbtvc	r6, [r5], #-1887	; 0x75f
 834:	69745f63 	ldmdbvs	r4!, {r0, r1, r5, r6, r8, r9, sl, fp, ip, lr}^
 838:	756f656d 	strbvc	r6, [pc, #-1389]!	; 2d3 <_start-0x7d2d>
 83c:	77730074 			; <UNDEFINED> instruction: 0x77730074
 840:	7261755f 	rsbvc	r7, r1, #398458880	; 0x17c00000
 844:	65675f74 	strbvs	r5, [r7, #-3956]!	; 0xf74
 848:	755f7374 	ldrbvc	r7, [pc, #-884]	; 4dc <_start-0x7b24>
 84c:	6c69746e 	cfstrdvs	mvd7, [r9], #-440	; 0xfffffe48
 850:	5f777300 	svcpl	0x00777300
 854:	74726175 	ldrbtvc	r6, [r2], #-373	; 0x175
 858:	7465675f 	strbtvc	r6, [r5], #-1887	; 0x75f
 85c:	65640063 	strbvs	r0, [r4, #-99]!	; 0x63
 860:	65766972 	ldrbvs	r6, [r6, #-2418]!	; 0x972
 864:	65640064 	strbvs	r0, [r4, #-100]!	; 0x64
 868:	5f79616c 	svcpl	0x0079616c
 86c:	6379636e 	cmnvs	r9, #-1207959551	; 0xb8000001
 870:	0073656c 	rsbseq	r6, r3, ip, ror #10
 874:	755f7773 	ldrbvc	r7, [pc, #-1907]	; 109 <_start-0x7ef7>
 878:	5f747261 	svcpl	0x00747261
 87c:	74696e69 	strbtvc	r6, [r9], #-3689	; 0xe69
 880:	6c65685f 	stclvs	8, cr6, [r5], #-380	; 0xfffffe84
 884:	00726570 	rsbseq	r6, r2, r0, ror r5
 888:	656d6974 	strbvs	r6, [sp, #-2420]!	; 0x974
 88c:	5f74756f 	svcpl	0x0074756f
 890:	63657375 	cmnvs	r5, #-738197503	; 0xd4000001
 894:	5f777300 	svcpl	0x00777300
 898:	74726175 	ldrbtvc	r6, [r2], #-373	; 0x175
 89c:	7475705f 	ldrbtvc	r7, [r5], #-95	; 0x5f
 8a0:	796d006b 	stmdbvc	sp!, {r0, r1, r3, r5, r6}^
 8a4:	6372732d 	cmnvs	r2, #-1275068416	; 0xb4000000
 8a8:	2d77732f 	ldclcs	3, cr7, [r7, #-188]!	; 0xffffff44
 8ac:	74726175 	ldrbtvc	r6, [r2], #-373	; 0x175
 8b0:	6300632e 	movwvs	r6, #814	; 0x32e
 8b4:	5f726168 	svcpl	0x00726168
 8b8:	73006e69 	movwvc	r6, #3689	; 0xe69
 8bc:	61755f77 	cmnvs	r5, r7, ror pc
 8c0:	675f7472 			; <UNDEFINED> instruction: 0x675f7472
 8c4:	5f737465 	svcpl	0x00737465
 8c8:	656d6974 	strbvs	r6, [sp, #-2420]!	; 0x974
 8cc:	0074756f 	rsbseq	r7, r4, pc, ror #10
 8d0:	7479626e 	ldrbtvc	r6, [r9], #-622	; 0x26e
 8d4:	75007365 	strvc	r7, [r0, #-869]	; 0x365
 8d8:	5f636573 	svcpl	0x00636573
 8dc:	656d6974 	strbvs	r6, [sp, #-2420]!	; 0x974
 8e0:	0074756f 	rsbseq	r7, r4, pc, ror #10
 8e4:	755f7773 	ldrbvc	r7, [pc, #-1907]	; 179 <_start-0x7e87>
 8e8:	5f747261 	svcpl	0x00747261
 8ec:	73746567 	cmnvc	r4, #432013312	; 0x19c00000
 8f0:	746e755f 	strbtvc	r7, [lr], #-1375	; 0x55f
 8f4:	625f6c69 	subsvs	r6, pc, #26880	; 0x6900
 8f8:	77006b6c 	strvc	r6, [r0, -ip, ror #22]
 8fc:	5f746961 	svcpl	0x00746961
 900:	69746e75 	ldmdbvs	r4!, {r0, r2, r4, r5, r6, r9, sl, fp, sp, lr}^
 904:	73755f6c 	cmnvc	r5, #108, 30	; 0x1b0
 908:	41006365 	tstmi	r0, r5, ror #6
 90c:	4d5f5855 	ldclmi	8, cr5, [pc, #-340]	; 7c0 <_start-0x7840>
 910:	434d5f55 	movtmi	r5, #57173	; 0xdf55
 914:	45525f52 	ldrbmi	r5, [r2, #-3922]	; 0xf52
 918:	55410047 	strbpl	r0, [r1, #-71]	; 0x47
 91c:	554d5f58 	strbpl	r5, [sp, #-3928]	; 0xf58
 920:	5f4f495f 	svcpl	0x004f495f
 924:	00474552 	subeq	r4, r7, r2, asr r5
 928:	5f585541 	svcpl	0x00585541
 92c:	4d5f554d 	cfldr64mi	mvdx5, [pc, #-308]	; 800 <_start-0x7800>
 930:	525f5253 	subspl	r5, pc, #805306373	; 0x30000005
 934:	75004745 	strvc	r4, [r0, #-1861]	; 0x745
 938:	5f747261 	svcpl	0x00747261
 93c:	5f6e6163 	svcpl	0x006e6163
 940:	63746567 	cmnvs	r4, #432013312	; 0x19c00000
 944:	58554100 	ldmdapl	r5, {r8, lr}^
 948:	5f554d5f 	svcpl	0x00554d5f
 94c:	4c544e43 	mrrcmi	14, 4, r4, r4, cr3	; <UNPREDICTABLE>
 950:	4745525f 	smlsldmi	r5, r5, pc, r2	; <UNPREDICTABLE>
 954:	72617500 	rsbvc	r7, r1, #0, 10
 958:	61685f74 	smcvs	34292	; 0x85f4
 95c:	61645f73 	smcvs	17907	; 0x45f3
 960:	75006174 	strvc	r6, [r0, #-372]	; 0x174
 964:	5f747261 	svcpl	0x00747261
 968:	74696e69 	strbtvc	r6, [r9], #-3689	; 0xe69
 96c:	58554100 	ldmdapl	r5, {r8, lr}^
 970:	5f554d5f 	svcpl	0x00554d5f
 974:	5f524549 	svcpl	0x00524549
 978:	00474552 	subeq	r4, r7, r2, asr r5
 97c:	5f585541 	svcpl	0x00585541
 980:	495f554d 	ldmdbmi	pc, {r0, r2, r3, r6, r8, sl, ip, lr}^	; <UNPREDICTABLE>
 984:	525f5249 	subspl	r5, pc, #-1879048188	; 0x90000004
 988:	75004745 	strvc	r4, [r0, #-1861]	; 0x745
 98c:	5f747261 	svcpl	0x00747261
 990:	5f6e6163 	svcpl	0x006e6163
 994:	63747570 	cmnvs	r4, #112, 10	; 0x1c000000
 998:	58554100 	ldmdapl	r5, {r8, lr}^
 99c:	414e455f 	cmpmi	lr, pc, asr r5
 9a0:	53454c42 	movtpl	r4, #23618	; 0x5c42
 9a4:	58554100 	ldmdapl	r5, {r8, lr}^
 9a8:	5152495f 	cmppl	r2, pc, asr r9
 9ac:	58554100 	ldmdapl	r5, {r8, lr}^
 9b0:	5f554d5f 	svcpl	0x00554d5f
 9b4:	44554142 	ldrbmi	r4, [r5], #-322	; 0x142
 9b8:	4745525f 	smlsldmi	r5, r5, pc, r2	; <UNPREDICTABLE>
 9bc:	58554100 	ldmdapl	r5, {r8, lr}^
 9c0:	5f554d5f 	svcpl	0x00554d5f
 9c4:	54415453 	strbpl	r5, [r1], #-1107	; 0x453
 9c8:	4745525f 	smlsldmi	r5, r5, pc, r2	; <UNPREDICTABLE>
 9cc:	58554100 	ldmdapl	r5, {r8, lr}^
 9d0:	5f554d5f 	svcpl	0x00554d5f
 9d4:	41524353 	cmpmi	r2, r3, asr r3
 9d8:	00484354 	subeq	r4, r8, r4, asr r3
 9dc:	732d796d 	teqvc	sp, #1785856	; 0x1b4000
 9e0:	752f6372 	strvc	r6, [pc, #-882]!	; 676 <_start-0x798a>
 9e4:	2e747261 	cdpcs	2, 7, cr7, cr4, cr1, {3}
 9e8:	55410063 	strbpl	r0, [r1, #-99]	; 0x63
 9ec:	554d5f58 	strbpl	r5, [sp, #-3928]	; 0xf58
 9f0:	52434c5f 	subpl	r4, r3, #24320	; 0x5f00
 9f4:	4745525f 	smlsldmi	r5, r5, pc, r2	; <UNPREDICTABLE>
 9f8:	58554100 	ldmdapl	r5, {r8, lr}^
 9fc:	5f554d5f 	svcpl	0x00554d5f
 a00:	5f52534c 	svcpl	0x0052534c
 a04:	00474552 	subeq	r4, r7, r2, asr r5
 a08:	74726175 	ldrbtvc	r6, [r2], #-373	; 0x175
 a0c:	7465675f 	strbtvc	r6, [r5], #-1887	; 0x75f
 a10:	73615f63 	cmnvc	r1, #396	; 0x18c
 a14:	00636e79 	rsbeq	r6, r3, r9, ror lr
 a18:	657a6973 	ldrbvs	r6, [sl, #-2419]!	; 0x973
 a1c:	6d00745f 	cfstrsvs	mvf7, [r0, #-380]	; 0xfffffe84
 a20:	65736d65 	ldrbvs	r6, [r3, #-3429]!	; 0xd65
 a24:	62630074 	rsbvs	r0, r3, #116	; 0x74
 a28:	77656e5f 			; <UNDEFINED> instruction: 0x77656e5f
 a2c:	31736300 	cmncc	r3, r0, lsl #6
 a30:	2d653034 	stclcs	0, cr3, [r5, #-208]!	; 0xffffff30
 a34:	2f637273 	svccs	0x00637273
 a38:	746e6f63 	strbtvc	r6, [lr], #-3939	; 0xf63
 a3c:	2d6c6f72 	stclcs	15, cr6, [ip, #-456]!	; 0xfffffe38
 a40:	636f6c62 	cmnvs	pc, #25088	; 0x6200
 a44:	00632e6b 	rsbeq	r2, r3, fp, ror #28
 a48:	6362696c 	cmnvs	r2, #108, 18	; 0x1b0000
 a4c:	6d656d2f 	stclvs	13, cr6, [r5, #-188]!	; 0xffffff44
 a50:	2e746573 	mrccs	5, 3, r6, cr4, cr3, {3}
 a54:	Address 0x0000000000000a54 is out of bounds.


Disassembly of section .debug_frame:

00000000 <.debug_frame>:
   0:	0000000c 	andeq	r0, r0, ip
   4:	ffffffff 			; <UNDEFINED> instruction: 0xffffffff
   8:	7c020001 	stcvc	0, cr0, [r2], {1}
   c:	000d0c0e 	andeq	r0, sp, lr, lsl #24
  10:	0000001c 	andeq	r0, r0, ip, lsl r0
  14:	00000000 	andeq	r0, r0, r0
  18:	00008010 	andeq	r8, r0, r0, lsl r0
  1c:	0000019c 	muleq	r0, ip, r1
  20:	84180e42 	ldrhi	r0, [r8], #-3650	; 0xe42
  24:	86058506 	strhi	r8, [r5], -r6, lsl #10
  28:	88038704 	stmdahi	r3, {r2, r8, r9, sl, pc}
  2c:	00018902 	andeq	r8, r1, r2, lsl #18
  30:	00000014 	andeq	r0, r0, r4, lsl r0
  34:	00000000 	andeq	r0, r0, r0
  38:	000081ac 	andeq	r8, r0, ip, lsr #3
  3c:	00000050 	andeq	r0, r0, r0, asr r0
  40:	84080e44 	strhi	r0, [r8], #-3652	; 0xe44
  44:	00018e02 	andeq	r8, r1, r2, lsl #28
  48:	0000001c 	andeq	r0, r0, ip, lsl r0
  4c:	00000000 	andeq	r0, r0, r0
  50:	000081fc 	strdeq	r8, [r0], -ip
  54:	0000019c 	muleq	r0, ip, r1
  58:	84180e42 	ldrhi	r0, [r8], #-3650	; 0xe42
  5c:	86058506 	strhi	r8, [r5], -r6, lsl #10
  60:	88038704 	stmdahi	r3, {r2, r8, r9, sl, pc}
  64:	00018902 	andeq	r8, r1, r2, lsl #18
  68:	00000018 	andeq	r0, r0, r8, lsl r0
  6c:	00000000 	andeq	r0, r0, r0
  70:	00008398 	muleq	r0, r8, r3
  74:	0000020c 	andeq	r0, r0, ip, lsl #4
  78:	840c0e42 	strhi	r0, [ip], #-3650	; 0xe42
  7c:	86028503 	strhi	r8, [r2], -r3, lsl #10
  80:	00000001 	andeq	r0, r0, r1
  84:	0000001c 	andeq	r0, r0, ip, lsl r0
  88:	00000000 	andeq	r0, r0, r0
  8c:	000085a4 	andeq	r8, r0, r4, lsr #11
  90:	0000013c 	andeq	r0, r0, ip, lsr r1
  94:	83180e42 	tsthi	r8, #1056	; 0x420
  98:	85058406 	strhi	r8, [r5, #-1030]	; 0x406
  9c:	87038604 	strhi	r8, [r3, -r4, lsl #12]
  a0:	00018e02 	andeq	r8, r1, r2, lsl #28
  a4:	0000000c 	andeq	r0, r0, ip
  a8:	ffffffff 			; <UNDEFINED> instruction: 0xffffffff
  ac:	7c020001 	stcvc	0, cr0, [r2], {1}
  b0:	000d0c0e 	andeq	r0, sp, lr, lsl #24
  b4:	00000024 	andeq	r0, r0, r4, lsr #32
  b8:	000000a4 	andeq	r0, r0, r4, lsr #1
  bc:	000086e0 	andeq	r8, r0, r0, ror #13
  c0:	00000058 	andeq	r0, r0, r8, asr r0
  c4:	80100e42 	andshi	r0, r0, r2, asr #28
  c8:	82038104 	andhi	r8, r3, #4, 2
  cc:	42018302 	andmi	r8, r1, #134217728	; 0x8000000
  d0:	07841c0e 	streq	r1, [r4, lr, lsl #24]
  d4:	058e0685 	streq	r0, [lr, #1669]	; 0x685
  d8:	00280e42 	eoreq	r0, r8, r2, asr #28
  dc:	0000000c 	andeq	r0, r0, ip
  e0:	ffffffff 			; <UNDEFINED> instruction: 0xffffffff
  e4:	7c020001 	stcvc	0, cr0, [r2], {1}
  e8:	000d0c0e 	andeq	r0, sp, lr, lsl #24
  ec:	00000014 	andeq	r0, r0, r4, lsl r0
  f0:	000000dc 	ldrdeq	r0, [r0], -ip
  f4:	00008738 	andeq	r8, r0, r8, lsr r7
  f8:	00000014 	andeq	r0, r0, r4, lsl r0
  fc:	84080e42 	strhi	r0, [r8], #-3650	; 0xe42
 100:	00018e02 	andeq	r8, r1, r2, lsl #28
 104:	0000000c 	andeq	r0, r0, ip
 108:	000000dc 	ldrdeq	r0, [r0], -ip
 10c:	0000874c 	andeq	r8, r0, ip, asr #14
 110:	00000018 	andeq	r0, r0, r8, lsl r0
 114:	0000000c 	andeq	r0, r0, ip
 118:	000000dc 	ldrdeq	r0, [r0], -ip
 11c:	00008764 	andeq	r8, r0, r4, ror #14
 120:	00000010 	andeq	r0, r0, r0, lsl r0
 124:	0000000c 	andeq	r0, r0, ip
 128:	ffffffff 			; <UNDEFINED> instruction: 0xffffffff
 12c:	7c020001 	stcvc	0, cr0, [r2], {1}
 130:	000d0c0e 	andeq	r0, sp, lr, lsl #24
 134:	00000018 	andeq	r0, r0, r8, lsl r0
 138:	00000124 	andeq	r0, r0, r4, lsr #2
 13c:	00008774 	andeq	r8, r0, r4, ror r7
 140:	00000034 	andeq	r0, r0, r4, lsr r0
 144:	83100e42 	tsthi	r0, #1056	; 0x420
 148:	85038404 	strhi	r8, [r3, #-1028]	; 0x404
 14c:	00018e02 	andeq	r8, r1, r2, lsl #28
 150:	0000000c 	andeq	r0, r0, ip
 154:	ffffffff 			; <UNDEFINED> instruction: 0xffffffff
 158:	7c020001 	stcvc	0, cr0, [r2], {1}
 15c:	000d0c0e 	andeq	r0, sp, lr, lsl #24
 160:	0000000c 	andeq	r0, r0, ip
 164:	00000150 	andeq	r0, r0, r0, asr r1
 168:	000087a8 	andeq	r8, r0, r8, lsr #15
 16c:	00000014 	andeq	r0, r0, r4, lsl r0
 170:	0000000c 	andeq	r0, r0, ip
 174:	00000150 	andeq	r0, r0, r0, asr r1
 178:	000087bc 			; <UNDEFINED> instruction: 0x000087bc
 17c:	0000002c 	andeq	r0, r0, ip, lsr #32
 180:	0000000c 	andeq	r0, r0, ip
 184:	00000150 	andeq	r0, r0, r0, asr r1
 188:	000087e8 	andeq	r8, r0, r8, ror #15
 18c:	00000040 	andeq	r0, r0, r0, asr #32
 190:	00000020 	andeq	r0, r0, r0, lsr #32
 194:	00000150 	andeq	r0, r0, r0, asr r1
 198:	00008828 	andeq	r8, r0, r8, lsr #16
 19c:	000001a8 	andeq	r0, r0, r8, lsr #3
 1a0:	84180e42 	ldrhi	r0, [r8], #-3650	; 0xe42
 1a4:	86058506 	strhi	r8, [r5], -r6, lsl #10
 1a8:	88038704 	stmdahi	r3, {r2, r8, r9, sl, pc}
 1ac:	42018e02 	andmi	r8, r1, #2, 28
 1b0:	0000600e 	andeq	r6, r0, lr
 1b4:	00000014 	andeq	r0, r0, r4, lsl r0
 1b8:	00000150 	andeq	r0, r0, r0, asr r1
 1bc:	000089d0 	ldrdeq	r8, [r0], -r0
 1c0:	00000068 	andeq	r0, r0, r8, rrx
 1c4:	8e040e42 	cdphi	14, 0, cr0, cr4, cr2, {2}
 1c8:	100e4201 	andne	r4, lr, r1, lsl #4
 1cc:	00000028 	andeq	r0, r0, r8, lsr #32
 1d0:	00000150 	andeq	r0, r0, r0, asr r1
 1d4:	00008a38 	andeq	r8, r0, r8, lsr sl
 1d8:	00000294 	muleq	r0, r4, r2
 1dc:	84240e42 	strthi	r0, [r4], #-3650	; 0xe42
 1e0:	86088509 	strhi	r8, [r8], -r9, lsl #10
 1e4:	88068707 	stmdahi	r6, {r0, r1, r2, r8, r9, sl, pc}
 1e8:	8a048905 	bhi	122604 <__bss_end__+0x118164>
 1ec:	8e028b03 	vmlahi.f64	d8, d2, d3
 1f0:	b00e4201 	andlt	r4, lr, r1, lsl #4
 1f4:	00000001 	andeq	r0, r0, r1
 1f8:	0000000c 	andeq	r0, r0, ip
 1fc:	ffffffff 			; <UNDEFINED> instruction: 0xffffffff
 200:	7c020001 	stcvc	0, cr0, [r2], {1}
 204:	000d0c0e 	andeq	r0, sp, lr, lsl #24
 208:	0000000c 	andeq	r0, r0, ip
 20c:	000001f8 	strdeq	r0, [r0], -r8
 210:	00008ccc 	andeq	r8, r0, ip, asr #25
 214:	00000010 	andeq	r0, r0, r0, lsl r0
 218:	0000000c 	andeq	r0, r0, ip
 21c:	000001f8 	strdeq	r0, [r0], -r8
 220:	00008cdc 	ldrdeq	r8, [r0], -ip
 224:	00000010 	andeq	r0, r0, r0, lsl r0
 228:	0000000c 	andeq	r0, r0, ip
 22c:	ffffffff 			; <UNDEFINED> instruction: 0xffffffff
 230:	7c020001 	stcvc	0, cr0, [r2], {1}
 234:	000d0c0e 	andeq	r0, sp, lr, lsl #24
 238:	00000014 	andeq	r0, r0, r4, lsl r0
 23c:	00000228 	andeq	r0, r0, r8, lsr #4
 240:	00008cec 	andeq	r8, r0, ip, ror #25
 244:	00000028 	andeq	r0, r0, r8, lsr #32
 248:	83080e42 	movwhi	r0, #36418	; 0x8e42
 24c:	00018e02 	andeq	r8, r1, r2, lsl #28
 250:	0000000c 	andeq	r0, r0, ip
 254:	ffffffff 			; <UNDEFINED> instruction: 0xffffffff
 258:	7c020001 	stcvc	0, cr0, [r2], {1}
 25c:	000d0c0e 	andeq	r0, sp, lr, lsl #24
 260:	00000014 	andeq	r0, r0, r4, lsl r0
 264:	00000250 	andeq	r0, r0, r0, asr r2
 268:	00008d14 	andeq	r8, r0, r4, lsl sp
 26c:	00000020 	andeq	r0, r0, r0, lsr #32
 270:	84080e42 	strhi	r0, [r8], #-3650	; 0xe42
 274:	00018e02 	andeq	r8, r1, r2, lsl #28
 278:	00000014 	andeq	r0, r0, r4, lsl r0
 27c:	00000250 	andeq	r0, r0, r0, asr r2
 280:	00008d34 	andeq	r8, r0, r4, lsr sp
 284:	00000090 	muleq	r0, r0, r0
 288:	83080e42 	movwhi	r0, #36418	; 0x8e42
 28c:	00018e02 	andeq	r8, r1, r2, lsl #28
 290:	0000000c 	andeq	r0, r0, ip
 294:	ffffffff 			; <UNDEFINED> instruction: 0xffffffff
 298:	7c020001 	stcvc	0, cr0, [r2], {1}
 29c:	000d0c0e 	andeq	r0, sp, lr, lsl #24
 2a0:	0000000c 	andeq	r0, r0, ip
 2a4:	00000290 	muleq	r0, r0, r2
 2a8:	00008dc4 	andeq	r8, r0, r4, asr #27
 2ac:	00000018 	andeq	r0, r0, r8, lsl r0
 2b0:	0000000c 	andeq	r0, r0, ip
 2b4:	00000290 	muleq	r0, r0, r2
 2b8:	00008ddc 	ldrdeq	r8, [r0], -ip
 2bc:	00000014 	andeq	r0, r0, r4, lsl r0
 2c0:	00000014 	andeq	r0, r0, r4, lsl r0
 2c4:	00000290 	muleq	r0, r0, r2
 2c8:	00008df0 	strdeq	r8, [r0], -r0
 2cc:	00000048 	andeq	r0, r0, r8, asr #32
 2d0:	83080e42 	movwhi	r0, #36418	; 0x8e42
 2d4:	00018e02 	andeq	r8, r1, r2, lsl #28
 2d8:	0000000c 	andeq	r0, r0, ip
 2dc:	ffffffff 			; <UNDEFINED> instruction: 0xffffffff
 2e0:	7c020001 	stcvc	0, cr0, [r2], {1}
 2e4:	000d0c0e 	andeq	r0, sp, lr, lsl #24
 2e8:	0000000c 	andeq	r0, r0, ip
 2ec:	000002d8 	ldrdeq	r0, [r0], -r8
 2f0:	00008e38 	andeq	r8, r0, r8, lsr lr
 2f4:	0000001c 	andeq	r0, r0, ip, lsl r0
 2f8:	00000014 	andeq	r0, r0, r4, lsl r0
 2fc:	000002d8 	ldrdeq	r0, [r0], -r8
 300:	00008e54 	andeq	r8, r0, r4, asr lr
 304:	00000014 	andeq	r0, r0, r4, lsl r0
 308:	83080e42 	movwhi	r0, #36418	; 0x8e42
 30c:	00018e02 	andeq	r8, r1, r2, lsl #28
 310:	00000014 	andeq	r0, r0, r4, lsl r0
 314:	000002d8 	ldrdeq	r0, [r0], -r8
 318:	00008e68 	andeq	r8, r0, r8, ror #28
 31c:	0000000c 	andeq	r0, r0, ip
 320:	83080e42 	movwhi	r0, #36418	; 0x8e42
 324:	00018e02 	andeq	r8, r1, r2, lsl #28
 328:	00000018 	andeq	r0, r0, r8, lsl r0
 32c:	000002d8 	ldrdeq	r0, [r0], -r8
 330:	00008e74 	andeq	r8, r0, r4, ror lr
 334:	00000024 	andeq	r0, r0, r4, lsr #32
 338:	83100e42 	tsthi	r0, #1056	; 0x420
 33c:	85038404 	strhi	r8, [r3, #-1028]	; 0x404
 340:	00018e02 	andeq	r8, r1, r2, lsl #28
 344:	00000014 	andeq	r0, r0, r4, lsl r0
 348:	000002d8 	ldrdeq	r0, [r0], -r8
 34c:	00008e98 	muleq	r0, r8, lr
 350:	00000014 	andeq	r0, r0, r4, lsl r0
 354:	83080e42 	movwhi	r0, #36418	; 0x8e42
 358:	00018e02 	andeq	r8, r1, r2, lsl #28
 35c:	00000014 	andeq	r0, r0, r4, lsl r0
 360:	000002d8 	ldrdeq	r0, [r0], -r8
 364:	00008eac 	andeq	r8, r0, ip, lsr #29
 368:	00000014 	andeq	r0, r0, r4, lsl r0
 36c:	83080e42 	movwhi	r0, #36418	; 0x8e42
 370:	00018e02 	andeq	r8, r1, r2, lsl #28
 374:	0000000c 	andeq	r0, r0, ip
 378:	ffffffff 			; <UNDEFINED> instruction: 0xffffffff
 37c:	7c020001 	stcvc	0, cr0, [r2], {1}
 380:	000d0c0e 	andeq	r0, sp, lr, lsl #24
 384:	00000018 	andeq	r0, r0, r8, lsl r0
 388:	00000374 	andeq	r0, r0, r4, ror r3
 38c:	00008ec0 	andeq	r8, r0, r0, asr #29
 390:	000000d4 	ldrdeq	r0, [r0], -r4
 394:	83100e42 	tsthi	r0, #1056	; 0x420
 398:	85038404 	strhi	r8, [r3, #-1028]	; 0x404
 39c:	00018e02 	andeq	r8, r1, r2, lsl #28
 3a0:	00000014 	andeq	r0, r0, r4, lsl r0
 3a4:	00000374 	andeq	r0, r0, r4, ror r3
 3a8:	00008f94 	muleq	r0, r4, pc	; <UNPREDICTABLE>
 3ac:	00000038 	andeq	r0, r0, r8, lsr r0
 3b0:	83080e42 	movwhi	r0, #36418	; 0x8e42
 3b4:	00018e02 	andeq	r8, r1, r2, lsl #28
 3b8:	00000014 	andeq	r0, r0, r4, lsl r0
 3bc:	00000374 	andeq	r0, r0, r4, ror r3
 3c0:	00008fcc 	andeq	r8, r0, ip, asr #31
 3c4:	00000038 	andeq	r0, r0, r8, lsr r0
 3c8:	83080e42 	movwhi	r0, #36418	; 0x8e42
 3cc:	00018e02 	andeq	r8, r1, r2, lsl #28
 3d0:	00000018 	andeq	r0, r0, r8, lsl r0
 3d4:	00000374 	andeq	r0, r0, r4, ror r3
 3d8:	00009004 	andeq	r9, r0, r4
 3dc:	000000cc 	andeq	r0, r0, ip, asr #1
 3e0:	83100e42 	tsthi	r0, #1056	; 0x420
 3e4:	85038404 	strhi	r8, [r3, #-1028]	; 0x404
 3e8:	00018e02 	andeq	r8, r1, r2, lsl #28
 3ec:	00000014 	andeq	r0, r0, r4, lsl r0
 3f0:	00000374 	andeq	r0, r0, r4, ror r3
 3f4:	000090d0 	ldrdeq	r9, [r0], -r0
 3f8:	0000004c 	andeq	r0, r0, ip, asr #32
 3fc:	84080e42 	strhi	r0, [r8], #-3650	; 0xe42
 400:	00018e02 	andeq	r8, r1, r2, lsl #28
 404:	00000014 	andeq	r0, r0, r4, lsl r0
 408:	00000374 	andeq	r0, r0, r4, ror r3
 40c:	0000911c 	andeq	r9, r0, ip, lsl r1
 410:	00000024 	andeq	r0, r0, r4, lsr #32
 414:	83080e42 	movwhi	r0, #36418	; 0x8e42
 418:	00018e02 	andeq	r8, r1, r2, lsl #28
 41c:	00000018 	andeq	r0, r0, r8, lsl r0
 420:	00000374 	andeq	r0, r0, r4, ror r3
 424:	00009140 	andeq	r9, r0, r0, asr #2
 428:	000000d8 	ldrdeq	r0, [r0], -r8
 42c:	84100e42 	ldrhi	r0, [r0], #-3650	; 0xe42
 430:	86038504 	strhi	r8, [r3], -r4, lsl #10
 434:	00018e02 	andeq	r8, r1, r2, lsl #28
 438:	00000014 	andeq	r0, r0, r4, lsl r0
 43c:	00000374 	andeq	r0, r0, r4, ror r3
 440:	00009218 	andeq	r9, r0, r8, lsl r2
 444:	00000038 	andeq	r0, r0, r8, lsr r0
 448:	83080e42 	movwhi	r0, #36418	; 0x8e42
 44c:	00018e02 	andeq	r8, r1, r2, lsl #28
 450:	00000014 	andeq	r0, r0, r4, lsl r0
 454:	00000374 	andeq	r0, r0, r4, ror r3
 458:	00009250 	andeq	r9, r0, r0, asr r2
 45c:	0000002c 	andeq	r0, r0, ip, lsr #32
 460:	83080e42 	movwhi	r0, #36418	; 0x8e42
 464:	00018e02 	andeq	r8, r1, r2, lsl #28
 468:	00000018 	andeq	r0, r0, r8, lsl r0
 46c:	00000374 	andeq	r0, r0, r4, ror r3
 470:	0000927c 	andeq	r9, r0, ip, ror r2
 474:	00000084 	andeq	r0, r0, r4, lsl #1
 478:	83100e42 	tsthi	r0, #1056	; 0x420
 47c:	85038404 	strhi	r8, [r3, #-1028]	; 0x404
 480:	00018e02 	andeq	r8, r1, r2, lsl #28
 484:	00000018 	andeq	r0, r0, r8, lsl r0
 488:	00000374 	andeq	r0, r0, r4, ror r3
 48c:	00009300 	andeq	r9, r0, r0, lsl #6
 490:	00000084 	andeq	r0, r0, r4, lsl #1
 494:	83100e42 	tsthi	r0, #1056	; 0x420
 498:	85038404 	strhi	r8, [r3, #-1028]	; 0x404
 49c:	00018e02 	andeq	r8, r1, r2, lsl #28
 4a0:	00000014 	andeq	r0, r0, r4, lsl r0
 4a4:	00000374 	andeq	r0, r0, r4, ror r3
 4a8:	00009384 	andeq	r9, r0, r4, lsl #7
 4ac:	00000084 	andeq	r0, r0, r4, lsl #1
 4b0:	84080e42 	strhi	r0, [r8], #-3650	; 0xe42
 4b4:	00018e02 	andeq	r8, r1, r2, lsl #28
 4b8:	00000014 	andeq	r0, r0, r4, lsl r0
 4bc:	00000374 	andeq	r0, r0, r4, ror r3
 4c0:	00009408 	andeq	r9, r0, r8, lsl #8
 4c4:	00000058 	andeq	r0, r0, r8, asr r0
 4c8:	84080e42 	strhi	r0, [r8], #-3650	; 0xe42
 4cc:	00018e02 	andeq	r8, r1, r2, lsl #28
 4d0:	0000000c 	andeq	r0, r0, ip
 4d4:	ffffffff 			; <UNDEFINED> instruction: 0xffffffff
 4d8:	7c020001 	stcvc	0, cr0, [r2], {1}
 4dc:	000d0c0e 	andeq	r0, sp, lr, lsl #24
 4e0:	0000001c 	andeq	r0, r0, ip, lsl r0
 4e4:	000004d0 	ldrdeq	r0, [r0], -r0	; <UNPREDICTABLE>
 4e8:	00009460 	andeq	r9, r0, r0, ror #8
 4ec:	00000154 	andeq	r0, r0, r4, asr r1
 4f0:	84180e42 	ldrhi	r0, [r8], #-3650	; 0xe42
 4f4:	86058506 	strhi	r8, [r5], -r6, lsl #10
 4f8:	88038704 	stmdahi	r3, {r2, r8, r9, sl, pc}
 4fc:	00018e02 	andeq	r8, r1, r2, lsl #28
 500:	00000020 	andeq	r0, r0, r0, lsr #32
 504:	000004d0 	ldrdeq	r0, [r0], -r0	; <UNPREDICTABLE>
 508:	000095b4 			; <UNDEFINED> instruction: 0x000095b4
 50c:	000001c8 	andeq	r0, r0, r8, asr #3
 510:	83200e42 	teqhi	r0, #1056	; 0x420
 514:	85078408 	strhi	r8, [r7, #-1032]	; 0x408
 518:	87058606 	strhi	r8, [r5, -r6, lsl #12]
 51c:	89038804 	stmdbhi	r3, {r2, fp, pc}
 520:	00018e02 	andeq	r8, r1, r2, lsl #28
 524:	00000024 	andeq	r0, r0, r4, lsr #32
 528:	000004d0 	ldrdeq	r0, [r0], -r0	; <UNPREDICTABLE>
 52c:	0000977c 	andeq	r9, r0, ip, ror r7
 530:	000000a4 	andeq	r0, r0, r4, lsr #1
 534:	84200e42 	strthi	r0, [r0], #-3650	; 0xe42
 538:	86078508 	strhi	r8, [r7], -r8, lsl #10
 53c:	88058706 	stmdahi	r5, {r1, r2, r8, r9, sl, pc}
 540:	8a038904 	bhi	e2958 <__bss_end__+0xd84b8>
 544:	42018e02 	andmi	r8, r1, #2, 28
 548:	0000280e 	andeq	r2, r0, lr, lsl #16
 54c:	00000020 	andeq	r0, r0, r0, lsr #32
 550:	000004d0 	ldrdeq	r0, [r0], -r0	; <UNPREDICTABLE>
 554:	00009820 	andeq	r9, r0, r0, lsr #16
 558:	00000090 	muleq	r0, r0, r0
 55c:	84180e42 	ldrhi	r0, [r8], #-3650	; 0xe42
 560:	86058506 	strhi	r8, [r5], -r6, lsl #10
 564:	88038704 	stmdahi	r3, {r2, r8, r9, sl, pc}
 568:	42018e02 	andmi	r8, r1, #2, 28
 56c:	0000200e 	andeq	r2, r0, lr
 570:	00000020 	andeq	r0, r0, r0, lsr #32
 574:	000004d0 	ldrdeq	r0, [r0], -r0	; <UNPREDICTABLE>
 578:	000098b0 			; <UNDEFINED> instruction: 0x000098b0
 57c:	000000d4 	ldrdeq	r0, [r0], -r4
 580:	84180e42 	ldrhi	r0, [r8], #-3650	; 0xe42
 584:	86058506 	strhi	r8, [r5], -r6, lsl #10
 588:	88038704 	stmdahi	r3, {r2, r8, r9, sl, pc}
 58c:	42018e02 	andmi	r8, r1, #2, 28
 590:	0000200e 	andeq	r2, r0, lr
 594:	00000014 	andeq	r0, r0, r4, lsl r0
 598:	000004d0 	ldrdeq	r0, [r0], -r0	; <UNPREDICTABLE>
 59c:	00009984 	andeq	r9, r0, r4, lsl #19
 5a0:	0000003c 	andeq	r0, r0, ip, lsr r0
 5a4:	83080e42 	movwhi	r0, #36418	; 0x8e42
 5a8:	00018e02 	andeq	r8, r1, r2, lsl #28
 5ac:	00000018 	andeq	r0, r0, r8, lsl r0
 5b0:	000004d0 	ldrdeq	r0, [r0], -r0	; <UNPREDICTABLE>
 5b4:	000099c0 	andeq	r9, r0, r0, asr #19
 5b8:	0000002c 	andeq	r0, r0, ip, lsr #32
 5bc:	83100e42 	tsthi	r0, #1056	; 0x420
 5c0:	85038404 	strhi	r8, [r3, #-1028]	; 0x404
 5c4:	00018e02 	andeq	r8, r1, r2, lsl #28
 5c8:	00000024 	andeq	r0, r0, r4, lsr #32
 5cc:	000004d0 	ldrdeq	r0, [r0], -r0	; <UNPREDICTABLE>
 5d0:	000099ec 	andeq	r9, r0, ip, ror #19
 5d4:	00000090 	muleq	r0, r0, r0
 5d8:	810c0e42 	tsthi	ip, r2, asr #28
 5dc:	83028203 	movwhi	r8, #8707	; 0x2203
 5e0:	180e4201 	stmdane	lr, {r0, r9, lr}
 5e4:	05850684 	streq	r0, [r5, #1668]	; 0x684
 5e8:	0e42048e 	cdpeq	4, 4, cr0, cr2, cr14, {4}
 5ec:	000003f0 	strdeq	r0, [r0], -r0	; <UNPREDICTABLE>
 5f0:	00000014 	andeq	r0, r0, r4, lsl r0
 5f4:	000004d0 	ldrdeq	r0, [r0], -r0	; <UNPREDICTABLE>
 5f8:	00009a7c 	andeq	r9, r0, ip, ror sl
 5fc:	0000004c 	andeq	r0, r0, ip, asr #32
 600:	8e040e42 	cdphi	14, 0, cr0, cr4, cr2, {2}
 604:	100e4201 	andne	r4, lr, r1, lsl #4
 608:	0000000c 	andeq	r0, r0, ip
 60c:	ffffffff 			; <UNDEFINED> instruction: 0xffffffff
 610:	7c020001 	stcvc	0, cr0, [r2], {1}
 614:	000d0c0e 	andeq	r0, sp, lr, lsl #24
 618:	00000018 	andeq	r0, r0, r8, lsl r0
 61c:	00000608 	andeq	r0, r0, r8, lsl #12
 620:	00009ac8 	andeq	r9, r0, r8, asr #21
 624:	0000009c 	muleq	r0, ip, r0
 628:	83100e42 	tsthi	r0, #1056	; 0x420
 62c:	85038404 	strhi	r8, [r3, #-1028]	; 0x404
 630:	00018e02 	andeq	r8, r1, r2, lsl #28
 634:	00000014 	andeq	r0, r0, r4, lsl r0
 638:	00000608 	andeq	r0, r0, r8, lsl #12
 63c:	00009b64 	andeq	r9, r0, r4, ror #22
 640:	0000001c 	andeq	r0, r0, ip, lsl r0
 644:	83080e42 	movwhi	r0, #36418	; 0x8e42
 648:	00018e02 	andeq	r8, r1, r2, lsl #28
 64c:	00000014 	andeq	r0, r0, r4, lsl r0
 650:	00000608 	andeq	r0, r0, r8, lsl #12
 654:	00009b80 	andeq	r9, r0, r0, lsl #23
 658:	00000028 	andeq	r0, r0, r8, lsr #32
 65c:	83080e42 	movwhi	r0, #36418	; 0x8e42
 660:	00018e02 	andeq	r8, r1, r2, lsl #28
 664:	00000014 	andeq	r0, r0, r4, lsl r0
 668:	00000608 	andeq	r0, r0, r8, lsl #12
 66c:	00009ba8 	andeq	r9, r0, r8, lsr #23
 670:	0000001c 	andeq	r0, r0, ip, lsl r0
 674:	83080e42 	movwhi	r0, #36418	; 0x8e42
 678:	00018e02 	andeq	r8, r1, r2, lsl #28
 67c:	00000014 	andeq	r0, r0, r4, lsl r0
 680:	00000608 	andeq	r0, r0, r8, lsl #12
 684:	00009bc4 	andeq	r9, r0, r4, asr #23
 688:	0000002c 	andeq	r0, r0, ip, lsr #32
 68c:	84080e42 	strhi	r0, [r8], #-3650	; 0xe42
 690:	00018e02 	andeq	r8, r1, r2, lsl #28
 694:	00000014 	andeq	r0, r0, r4, lsl r0
 698:	00000608 	andeq	r0, r0, r8, lsl #12
 69c:	00009bf0 	strdeq	r9, [r0], -r0
 6a0:	0000000c 	andeq	r0, r0, ip
 6a4:	83080e42 	movwhi	r0, #36418	; 0x8e42
 6a8:	00018e02 	andeq	r8, r1, r2, lsl #28
 6ac:	00000014 	andeq	r0, r0, r4, lsl r0
 6b0:	00000608 	andeq	r0, r0, r8, lsl #12
 6b4:	00009bfc 	strdeq	r9, [r0], -ip
 6b8:	00000020 	andeq	r0, r0, r0, lsr #32
 6bc:	83080e42 	movwhi	r0, #36418	; 0x8e42
 6c0:	00018e02 	andeq	r8, r1, r2, lsl #28
 6c4:	0000000c 	andeq	r0, r0, ip
 6c8:	ffffffff 			; <UNDEFINED> instruction: 0xffffffff
 6cc:	7c020001 	stcvc	0, cr0, [r2], {1}
 6d0:	000d0c0e 	andeq	r0, sp, lr, lsl #24
 6d4:	00000014 	andeq	r0, r0, r4, lsl r0
 6d8:	000006c4 	andeq	r0, r0, r4, asr #13
 6dc:	00009c80 	andeq	r9, r0, r0, lsl #25
 6e0:	00000028 	andeq	r0, r0, r8, lsr #32
 6e4:	83080e42 	movwhi	r0, #36418	; 0x8e42
 6e8:	00018e02 	andeq	r8, r1, r2, lsl #28
 6ec:	0000000c 	andeq	r0, r0, ip
 6f0:	000006c4 	andeq	r0, r0, r4, asr #13
 6f4:	00009ca8 	andeq	r9, r0, r8, lsr #25
 6f8:	00000028 	andeq	r0, r0, r8, lsr #32
 6fc:	0000000c 	andeq	r0, r0, ip
 700:	ffffffff 			; <UNDEFINED> instruction: 0xffffffff
 704:	7c020001 	stcvc	0, cr0, [r2], {1}
 708:	000d0c0e 	andeq	r0, sp, lr, lsl #24
 70c:	0000000c 	andeq	r0, r0, ip
 710:	000006fc 	strdeq	r0, [r0], -ip
 714:	00009cd0 	ldrdeq	r9, [r0], -r0
 718:	00000020 	andeq	r0, r0, r0, lsr #32
