
test-gen.elf:     file format elf32-littlearm


Disassembly of section .text:

00008000 <_start>:
    8000:	e3a0d302 	mov	sp, #134217728	; 0x8000000
    8004:	e3a0b000 	mov	fp, #0
    8008:	eb000312 	bl	8c58 <_cstart>
    800c:	eb000340 	bl	8d14 <rpi_reboot>

00008010 <cycles_per_sec>:
    8010:	e3500001 	cmp	r0, #1
    8014:	e92d4010 	push	{r4, lr}
    8018:	8a000006 	bhi	8038 <cycles_per_sec+0x28>
    801c:	ee1f4f3c 	mrc	15, 0, r4, cr15, cr12, {1}
    8020:	e3a03ffa 	mov	r3, #1000	; 0x3e8
    8024:	e0000093 	mul	r0, r3, r0
    8028:	eb000363 	bl	8dbc <delay_ms>
    802c:	ee1f0f3c 	mrc	15, 0, r0, cr15, cr12, {1}
    8030:	e0640000 	rsb	r0, r4, r0
    8034:	e8bd8010 	pop	{r4, pc}
    8038:	eb00018c 	bl	8670 <rpi_reset_putc>
    803c:	e59f1010 	ldr	r1, [pc, #16]	; 8054 <cycles_per_sec+0x44>
    8040:	e59f2010 	ldr	r2, [pc, #16]	; 8058 <cycles_per_sec+0x48>
    8044:	e3a0303a 	mov	r3, #58	; 0x3a
    8048:	e59f000c 	ldr	r0, [pc, #12]	; 805c <cycles_per_sec+0x4c>
    804c:	eb00016c 	bl	8604 <printk>
    8050:	eb0002ee 	bl	8c10 <clean_reboot>
    8054:	00009cf0 	strdeq	r9, [r0], -r0
    8058:	00009cb0 			; <UNDEFINED> instruction: 0x00009cb0
    805c:	00009cc0 	andeq	r9, r0, r0, asr #25

00008060 <scope>:
    8060:	e92d03f0 	push	{r4, r5, r6, r7, r8, r9}
    8064:	e59f2168 	ldr	r2, [pc, #360]	; 81d4 <scope+0x174>
    8068:	e5923034 	ldr	r3, [r2, #52]	; 0x34
    806c:	e3130601 	tst	r3, #1048576	; 0x100000
    8070:	1afffffc 	bne	8068 <scope+0x8>
    8074:	ee1f3f3c 	mrc	15, 0, r3, cr15, cr12, {1}
    8078:	e59f1158 	ldr	r1, [pc, #344]	; 81d8 <scope+0x178>
    807c:	ee1f2f3c 	mrc	15, 0, r2, cr15, cr12, {1}
    8080:	e0632002 	rsb	r2, r3, r2
    8084:	e1520001 	cmp	r2, r1
    8088:	9afffffb 	bls	807c <scope+0x1c>
    808c:	e59f2140 	ldr	r2, [pc, #320]	; 81d4 <scope+0x174>
    8090:	e59f1144 	ldr	r1, [pc, #324]	; 81dc <scope+0x17c>
    8094:	e5924034 	ldr	r4, [r2, #52]	; 0x34
    8098:	e2044601 	and	r4, r4, #1048576	; 0x100000
    809c:	e1a04a24 	lsr	r4, r4, #20
    80a0:	ee1f2f3c 	mrc	15, 0, r2, cr15, cr12, {1}
    80a4:	e0632002 	rsb	r2, r3, r2
    80a8:	e1520001 	cmp	r2, r1
    80ac:	9afffffb 	bls	80a0 <scope+0x40>
    80b0:	e59f211c 	ldr	r2, [pc, #284]	; 81d4 <scope+0x174>
    80b4:	e59f1124 	ldr	r1, [pc, #292]	; 81e0 <scope+0x180>
    80b8:	e5925034 	ldr	r5, [r2, #52]	; 0x34
    80bc:	e2055601 	and	r5, r5, #1048576	; 0x100000
    80c0:	e1a05a25 	lsr	r5, r5, #20
    80c4:	ee1f2f3c 	mrc	15, 0, r2, cr15, cr12, {1}
    80c8:	e0632002 	rsb	r2, r3, r2
    80cc:	e1520001 	cmp	r2, r1
    80d0:	9afffffb 	bls	80c4 <scope+0x64>
    80d4:	e59f20f8 	ldr	r2, [pc, #248]	; 81d4 <scope+0x174>
    80d8:	e59f1104 	ldr	r1, [pc, #260]	; 81e4 <scope+0x184>
    80dc:	e5926034 	ldr	r6, [r2, #52]	; 0x34
    80e0:	e2066601 	and	r6, r6, #1048576	; 0x100000
    80e4:	e1a06a26 	lsr	r6, r6, #20
    80e8:	ee1f2f3c 	mrc	15, 0, r2, cr15, cr12, {1}
    80ec:	e0632002 	rsb	r2, r3, r2
    80f0:	e1520001 	cmp	r2, r1
    80f4:	9afffffb 	bls	80e8 <scope+0x88>
    80f8:	e59f20d4 	ldr	r2, [pc, #212]	; 81d4 <scope+0x174>
    80fc:	e59f10e4 	ldr	r1, [pc, #228]	; 81e8 <scope+0x188>
    8100:	e592c034 	ldr	ip, [r2, #52]	; 0x34
    8104:	e20cc601 	and	ip, ip, #1048576	; 0x100000
    8108:	e1a0ca2c 	lsr	ip, ip, #20
    810c:	ee1f2f3c 	mrc	15, 0, r2, cr15, cr12, {1}
    8110:	e0632002 	rsb	r2, r3, r2
    8114:	e1520001 	cmp	r2, r1
    8118:	9afffffb 	bls	810c <scope+0xac>
    811c:	e59f20b0 	ldr	r2, [pc, #176]	; 81d4 <scope+0x174>
    8120:	e59f00c4 	ldr	r0, [pc, #196]	; 81ec <scope+0x18c>
    8124:	e5921034 	ldr	r1, [r2, #52]	; 0x34
    8128:	e2011601 	and	r1, r1, #1048576	; 0x100000
    812c:	e1a01a21 	lsr	r1, r1, #20
    8130:	ee1f2f3c 	mrc	15, 0, r2, cr15, cr12, {1}
    8134:	e0632002 	rsb	r2, r3, r2
    8138:	e1520000 	cmp	r2, r0
    813c:	9afffffb 	bls	8130 <scope+0xd0>
    8140:	e59f208c 	ldr	r2, [pc, #140]	; 81d4 <scope+0x174>
    8144:	e59f00a4 	ldr	r0, [pc, #164]	; 81f0 <scope+0x190>
    8148:	e5927034 	ldr	r7, [r2, #52]	; 0x34
    814c:	e2077601 	and	r7, r7, #1048576	; 0x100000
    8150:	e1a07a27 	lsr	r7, r7, #20
    8154:	ee1f2f3c 	mrc	15, 0, r2, cr15, cr12, {1}
    8158:	e0632002 	rsb	r2, r3, r2
    815c:	e1520000 	cmp	r2, r0
    8160:	9afffffb 	bls	8154 <scope+0xf4>
    8164:	e59f2068 	ldr	r2, [pc, #104]	; 81d4 <scope+0x174>
    8168:	e59f0084 	ldr	r0, [pc, #132]	; 81f4 <scope+0x194>
    816c:	e5929034 	ldr	r9, [r2, #52]	; 0x34
    8170:	e2099601 	and	r9, r9, #1048576	; 0x100000
    8174:	e1a09a29 	lsr	r9, r9, #20
    8178:	ee1f2f3c 	mrc	15, 0, r2, cr15, cr12, {1}
    817c:	e0632002 	rsb	r2, r3, r2
    8180:	e1520000 	cmp	r2, r0
    8184:	9afffffb 	bls	8178 <scope+0x118>
    8188:	e59f2044 	ldr	r2, [pc, #68]	; 81d4 <scope+0x174>
    818c:	e59f8064 	ldr	r8, [pc, #100]	; 81f8 <scope+0x198>
    8190:	e5920034 	ldr	r0, [r2, #52]	; 0x34
    8194:	e2000601 	and	r0, r0, #1048576	; 0x100000
    8198:	e1a00a20 	lsr	r0, r0, #20
    819c:	ee1f2f3c 	mrc	15, 0, r2, cr15, cr12, {1}
    81a0:	e0632002 	rsb	r2, r3, r2
    81a4:	e1520008 	cmp	r2, r8
    81a8:	9afffffb 	bls	819c <scope+0x13c>
    81ac:	e1a06106 	lsl	r6, r6, #2
    81b0:	e1865085 	orr	r5, r6, r5, lsl #1
    81b4:	e1854004 	orr	r4, r5, r4
    81b8:	e184c18c 	orr	ip, r4, ip, lsl #3
    81bc:	e18c1201 	orr	r1, ip, r1, lsl #4
    81c0:	e1817287 	orr	r7, r1, r7, lsl #5
    81c4:	e1879309 	orr	r9, r7, r9, lsl #6
    81c8:	e1890380 	orr	r0, r9, r0, lsl #7
    81cc:	e8bd03f0 	pop	{r4, r5, r6, r7, r8, r9}
    81d0:	e12fff1e 	bx	lr
    81d4:	20200000 	eorcs	r0, r0, r0
    81d8:	00002399 	muleq	r0, r9, r3
    81dc:	00002f77 	andeq	r2, r0, r7, ror pc
    81e0:	00004733 	andeq	r4, r0, r3, lsr r7
    81e4:	00005eef 	andeq	r5, r0, pc, ror #29
    81e8:	000076ab 	andeq	r7, r0, fp, lsr #13
    81ec:	00008e67 	andeq	r8, r0, r7, ror #28
    81f0:	0000a623 	andeq	sl, r0, r3, lsr #12
    81f4:	0000bddf 	ldrdeq	fp, [r0], -pc	; <UNPREDICTABLE>
    81f8:	0000d59b 	muleq	r0, fp, r5

000081fc <fuse_scope>:
    81fc:	e92d4070 	push	{r4, r5, r6, lr}
    8200:	e1a04000 	mov	r4, r0
    8204:	ebffff95 	bl	8060 <scope>
    8208:	e1a05000 	mov	r5, r0
    820c:	e1a00004 	mov	r0, r4
    8210:	ebffff92 	bl	8060 <scope>
    8214:	e1a06000 	mov	r6, r0
    8218:	e1a00004 	mov	r0, r4
    821c:	ebffff8f 	bl	8060 <scope>
    8220:	e1a00800 	lsl	r0, r0, #16
    8224:	e1806406 	orr	r6, r0, r6, lsl #8
    8228:	e1a00004 	mov	r0, r4
    822c:	ebffff8b 	bl	8060 <scope>
    8230:	e1864005 	orr	r4, r6, r5
    8234:	e1840c00 	orr	r0, r4, r0, lsl #24
    8238:	e8bd8070 	pop	{r4, r5, r6, pc}

0000823c <test_gen>:
    823c:	e92d0070 	push	{r4, r5, r6}
    8240:	ee1f3f3c 	mrc	15, 0, r3, cr15, cr12, {1}
    8244:	e3a0c001 	mov	ip, #1
    8248:	e1a0001c 	lsl	r0, ip, r0
    824c:	e59fc1f0 	ldr	ip, [pc, #496]	; 8444 <test_gen+0x208>
    8250:	e59c4028 	ldr	r4, [ip, #40]	; 0x28
    8254:	e1804004 	orr	r4, r0, r4
    8258:	e58c4028 	str	r4, [ip, #40]	; 0x28
    825c:	ee1fcf3c 	mrc	15, 0, ip, cr15, cr12, {1}
    8260:	e063c00c 	rsb	ip, r3, ip
    8264:	e15c0002 	cmp	ip, r2
    8268:	3afffffb 	bcc	825c <test_gen+0x20>
    826c:	e59fc1d0 	ldr	ip, [pc, #464]	; 8444 <test_gen+0x208>
    8270:	e3110001 	tst	r1, #1
    8274:	159c401c 	ldrne	r4, [ip, #28]
    8278:	059c4028 	ldreq	r4, [ip, #40]	; 0x28
    827c:	11804004 	orrne	r4, r0, r4
    8280:	01804004 	orreq	r4, r0, r4
    8284:	158c401c 	strne	r4, [ip, #28]
    8288:	058c4028 	streq	r4, [ip, #40]	; 0x28
    828c:	e1a05082 	lsl	r5, r2, #1
    8290:	ee1fcf3c 	mrc	15, 0, ip, cr15, cr12, {1}
    8294:	e063c00c 	rsb	ip, r3, ip
    8298:	e15c0005 	cmp	ip, r5
    829c:	3afffffb 	bcc	8290 <test_gen+0x54>
    82a0:	e59fc19c 	ldr	ip, [pc, #412]	; 8444 <test_gen+0x208>
    82a4:	e3110002 	tst	r1, #2
    82a8:	159c401c 	ldrne	r4, [ip, #28]
    82ac:	059c4028 	ldreq	r4, [ip, #40]	; 0x28
    82b0:	11804004 	orrne	r4, r0, r4
    82b4:	01804004 	orreq	r4, r0, r4
    82b8:	158c401c 	strne	r4, [ip, #28]
    82bc:	058c4028 	streq	r4, [ip, #40]	; 0x28
    82c0:	e0854002 	add	r4, r5, r2
    82c4:	ee1fcf3c 	mrc	15, 0, ip, cr15, cr12, {1}
    82c8:	e063c00c 	rsb	ip, r3, ip
    82cc:	e15c0004 	cmp	ip, r4
    82d0:	3afffffb 	bcc	82c4 <test_gen+0x88>
    82d4:	e59fc168 	ldr	ip, [pc, #360]	; 8444 <test_gen+0x208>
    82d8:	e3110004 	tst	r1, #4
    82dc:	159c401c 	ldrne	r4, [ip, #28]
    82e0:	059c4028 	ldreq	r4, [ip, #40]	; 0x28
    82e4:	11804004 	orrne	r4, r0, r4
    82e8:	01804004 	orreq	r4, r0, r4
    82ec:	158c401c 	strne	r4, [ip, #28]
    82f0:	058c4028 	streq	r4, [ip, #40]	; 0x28
    82f4:	e1a04102 	lsl	r4, r2, #2
    82f8:	ee1fcf3c 	mrc	15, 0, ip, cr15, cr12, {1}
    82fc:	e063c00c 	rsb	ip, r3, ip
    8300:	e15c0004 	cmp	ip, r4
    8304:	3afffffb 	bcc	82f8 <test_gen+0xbc>
    8308:	e59fc134 	ldr	ip, [pc, #308]	; 8444 <test_gen+0x208>
    830c:	e3110008 	tst	r1, #8
    8310:	159c601c 	ldrne	r6, [ip, #28]
    8314:	059c6028 	ldreq	r6, [ip, #40]	; 0x28
    8318:	11806006 	orrne	r6, r0, r6
    831c:	01806006 	orreq	r6, r0, r6
    8320:	158c601c 	strne	r6, [ip, #28]
    8324:	058c6028 	streq	r6, [ip, #40]	; 0x28
    8328:	e0846002 	add	r6, r4, r2
    832c:	ee1fcf3c 	mrc	15, 0, ip, cr15, cr12, {1}
    8330:	e063c00c 	rsb	ip, r3, ip
    8334:	e15c0006 	cmp	ip, r6
    8338:	3afffffb 	bcc	832c <test_gen+0xf0>
    833c:	e59fc100 	ldr	ip, [pc, #256]	; 8444 <test_gen+0x208>
    8340:	e3110010 	tst	r1, #16
    8344:	159c601c 	ldrne	r6, [ip, #28]
    8348:	059c6028 	ldreq	r6, [ip, #40]	; 0x28
    834c:	11806006 	orrne	r6, r0, r6
    8350:	01806006 	orreq	r6, r0, r6
    8354:	e0855002 	add	r5, r5, r2
    8358:	158c601c 	strne	r6, [ip, #28]
    835c:	058c6028 	streq	r6, [ip, #40]	; 0x28
    8360:	e1a05085 	lsl	r5, r5, #1
    8364:	ee1fcf3c 	mrc	15, 0, ip, cr15, cr12, {1}
    8368:	e063c00c 	rsb	ip, r3, ip
    836c:	e15c0005 	cmp	ip, r5
    8370:	3afffffb 	bcc	8364 <test_gen+0x128>
    8374:	e59fc0c8 	ldr	ip, [pc, #200]	; 8444 <test_gen+0x208>
    8378:	e3110020 	tst	r1, #32
    837c:	159c501c 	ldrne	r5, [ip, #28]
    8380:	059c5028 	ldreq	r5, [ip, #40]	; 0x28
    8384:	11805005 	orrne	r5, r0, r5
    8388:	01805005 	orreq	r5, r0, r5
    838c:	158c501c 	strne	r5, [ip, #28]
    8390:	058c5028 	streq	r5, [ip, #40]	; 0x28
    8394:	e1a05182 	lsl	r5, r2, #3
    8398:	e0626005 	rsb	r6, r2, r5
    839c:	ee1fcf3c 	mrc	15, 0, ip, cr15, cr12, {1}
    83a0:	e063c00c 	rsb	ip, r3, ip
    83a4:	e15c0006 	cmp	ip, r6
    83a8:	3afffffb 	bcc	839c <test_gen+0x160>
    83ac:	e59fc090 	ldr	ip, [pc, #144]	; 8444 <test_gen+0x208>
    83b0:	e3110040 	tst	r1, #64	; 0x40
    83b4:	159c601c 	ldrne	r6, [ip, #28]
    83b8:	059c6028 	ldreq	r6, [ip, #40]	; 0x28
    83bc:	11806006 	orrne	r6, r0, r6
    83c0:	01806006 	orreq	r6, r0, r6
    83c4:	158c601c 	strne	r6, [ip, #28]
    83c8:	058c6028 	streq	r6, [ip, #40]	; 0x28
    83cc:	ee1fcf3c 	mrc	15, 0, ip, cr15, cr12, {1}
    83d0:	e063c00c 	rsb	ip, r3, ip
    83d4:	e15c0005 	cmp	ip, r5
    83d8:	3afffffb 	bcc	83cc <test_gen+0x190>
    83dc:	e3110080 	tst	r1, #128	; 0x80
    83e0:	e59f105c 	ldr	r1, [pc, #92]	; 8444 <test_gen+0x208>
    83e4:	e0855002 	add	r5, r5, r2
    83e8:	1591c01c 	ldrne	ip, [r1, #28]
    83ec:	0591c028 	ldreq	ip, [r1, #40]	; 0x28
    83f0:	1180c00c 	orrne	ip, r0, ip
    83f4:	0180c00c 	orreq	ip, r0, ip
    83f8:	1581c01c 	strne	ip, [r1, #28]
    83fc:	0581c028 	streq	ip, [r1, #40]	; 0x28
    8400:	ee1f1f3c 	mrc	15, 0, r1, cr15, cr12, {1}
    8404:	e0631001 	rsb	r1, r3, r1
    8408:	e1510005 	cmp	r1, r5
    840c:	3afffffb 	bcc	8400 <test_gen+0x1c4>
    8410:	e59f102c 	ldr	r1, [pc, #44]	; 8444 <test_gen+0x208>
    8414:	e0844002 	add	r4, r4, r2
    8418:	e591c01c 	ldr	ip, [r1, #28]
    841c:	e1a04084 	lsl	r4, r4, #1
    8420:	e180000c 	orr	r0, r0, ip
    8424:	e581001c 	str	r0, [r1, #28]
    8428:	ee1f2f3c 	mrc	15, 0, r2, cr15, cr12, {1}
    842c:	e0632002 	rsb	r2, r3, r2
    8430:	e1520004 	cmp	r2, r4
    8434:	3afffffb 	bcc	8428 <test_gen+0x1ec>
    8438:	ee1f3f3c 	mrc	15, 0, r3, cr15, cr12, {1}
    843c:	e8bd0070 	pop	{r4, r5, r6}
    8440:	e12fff1e 	bx	lr
    8444:	20200000 	eorcs	r0, r0, r0

00008448 <notmain>:
    8448:	e92d40f8 	push	{r3, r4, r5, r6, r7, lr}
    844c:	e3a00015 	mov	r0, #21
    8450:	eb000263 	bl	8de4 <gpio_set_output>
    8454:	e3a00014 	mov	r0, #20
    8458:	eb0002b2 	bl	8f28 <gpio_set_input>
    845c:	eb0001e3 	bl	8bf0 <enable_cache>
    8460:	e59f3180 	ldr	r3, [pc, #384]	; 85e8 <notmain+0x1a0>
    8464:	e59f0180 	ldr	r0, [pc, #384]	; 85ec <notmain+0x1a4>
    8468:	e593201c 	ldr	r2, [r3, #28]
    846c:	e3822602 	orr	r2, r2, #2097152	; 0x200000
    8470:	e583201c 	str	r2, [r3, #28]
    8474:	eb000250 	bl	8dbc <delay_ms>
    8478:	e3a03001 	mov	r3, #1
    847c:	ee0f3f1c 	mcr	15, 0, r3, cr15, cr12, {0}
    8480:	e3a00014 	mov	r0, #20
    8484:	eb0002da 	bl	8ff4 <gpio_read>
    8488:	e2504000 	subs	r4, r0, #0
    848c:	1a000042 	bne	859c <notmain+0x154>
    8490:	e59f0158 	ldr	r0, [pc, #344]	; 85f0 <notmain+0x1a8>
    8494:	eb00005a 	bl	8604 <printk>
    8498:	e3a00015 	mov	r0, #21
    849c:	e1a01004 	mov	r1, r4
    84a0:	e59f214c 	ldr	r2, [pc, #332]	; 85f4 <notmain+0x1ac>
    84a4:	ebffff64 	bl	823c <test_gen>
    84a8:	e3a00015 	mov	r0, #21
    84ac:	e1a01004 	mov	r1, r4
    84b0:	e59f213c 	ldr	r2, [pc, #316]	; 85f4 <notmain+0x1ac>
    84b4:	ebffff60 	bl	823c <test_gen>
    84b8:	e3a00015 	mov	r0, #21
    84bc:	e1a01004 	mov	r1, r4
    84c0:	e59f212c 	ldr	r2, [pc, #300]	; 85f4 <notmain+0x1ac>
    84c4:	ebffff5c 	bl	823c <test_gen>
    84c8:	e3a06001 	mov	r6, #1
    84cc:	e1a01004 	mov	r1, r4
    84d0:	e3a00015 	mov	r0, #21
    84d4:	e59f2118 	ldr	r2, [pc, #280]	; 85f4 <notmain+0x1ac>
    84d8:	ebffff57 	bl	823c <test_gen>
    84dc:	e1a07006 	mov	r7, r6
    84e0:	ea000004 	b	84f8 <notmain+0xb0>
    84e4:	e1a01004 	mov	r1, r4
    84e8:	e59f0108 	ldr	r0, [pc, #264]	; 85f8 <notmain+0x1b0>
    84ec:	eb000044 	bl	8604 <printk>
    84f0:	e35600fd 	cmp	r6, #253	; 0xfd
    84f4:	8a000024 	bhi	858c <notmain+0x144>
    84f8:	e3a00014 	mov	r0, #20
    84fc:	ebfffed7 	bl	8060 <scope>
    8500:	e1a05000 	mov	r5, r0
    8504:	e3a00014 	mov	r0, #20
    8508:	ebfffed4 	bl	8060 <scope>
    850c:	e1a04000 	mov	r4, r0
    8510:	e3a00014 	mov	r0, #20
    8514:	ebfffed1 	bl	8060 <scope>
    8518:	e1a00800 	lsl	r0, r0, #16
    851c:	e1804404 	orr	r4, r0, r4, lsl #8
    8520:	e3a00014 	mov	r0, #20
    8524:	ebfffecd 	bl	8060 <scope>
    8528:	e1844005 	orr	r4, r4, r5
    852c:	e1844c00 	orr	r4, r4, r0, lsl #24
    8530:	e1570004 	cmp	r7, r4
    8534:	1affffea 	bne	84e4 <notmain+0x9c>
    8538:	e2876001 	add	r6, r7, #1
    853c:	e1a01c26 	lsr	r1, r6, #24
    8540:	e3a00015 	mov	r0, #21
    8544:	e59f20a8 	ldr	r2, [pc, #168]	; 85f4 <notmain+0x1ac>
    8548:	ebffff3b 	bl	823c <test_gen>
    854c:	e20618ff 	and	r1, r6, #16711680	; 0xff0000
    8550:	e1a01821 	lsr	r1, r1, #16
    8554:	e3a00015 	mov	r0, #21
    8558:	e59f2094 	ldr	r2, [pc, #148]	; 85f4 <notmain+0x1ac>
    855c:	ebffff36 	bl	823c <test_gen>
    8560:	e2061cff 	and	r1, r6, #65280	; 0xff00
    8564:	e1a01421 	lsr	r1, r1, #8
    8568:	e3a00015 	mov	r0, #21
    856c:	e59f2080 	ldr	r2, [pc, #128]	; 85f4 <notmain+0x1ac>
    8570:	ebffff31 	bl	823c <test_gen>
    8574:	e6ef1076 	uxtb	r1, r6
    8578:	e3a00015 	mov	r0, #21
    857c:	e59f2070 	ldr	r2, [pc, #112]	; 85f4 <notmain+0x1ac>
    8580:	e2877002 	add	r7, r7, #2
    8584:	ebffff2c 	bl	823c <test_gen>
    8588:	eaffffd5 	b	84e4 <notmain+0x9c>
    858c:	e1a01006 	mov	r1, r6
    8590:	e59f0064 	ldr	r0, [pc, #100]	; 85fc <notmain+0x1b4>
    8594:	eb00001a 	bl	8604 <printk>
    8598:	eb00019c 	bl	8c10 <clean_reboot>
    859c:	e59f005c 	ldr	r0, [pc, #92]	; 8600 <notmain+0x1b8>
    85a0:	e3a06000 	mov	r6, #0
    85a4:	eb000016 	bl	8604 <printk>
    85a8:	e1a05006 	mov	r5, r6
    85ac:	e3a040fe 	mov	r4, #254	; 0xfe
    85b0:	ea000001 	b	85bc <notmain+0x174>
    85b4:	e2544001 	subs	r4, r4, #1
    85b8:	0afffff3 	beq	858c <notmain+0x144>
    85bc:	e3a00014 	mov	r0, #20
    85c0:	ebfffea6 	bl	8060 <scope>
    85c4:	e1500005 	cmp	r0, r5
    85c8:	1afffff9 	bne	85b4 <notmain+0x16c>
    85cc:	e2856001 	add	r6, r5, #1
    85d0:	e6ef1076 	uxtb	r1, r6
    85d4:	e3a00015 	mov	r0, #21
    85d8:	e59f2014 	ldr	r2, [pc, #20]	; 85f4 <notmain+0x1ac>
    85dc:	e2855002 	add	r5, r5, #2
    85e0:	ebffff15 	bl	823c <test_gen>
    85e4:	eafffff2 	b	85b4 <notmain+0x16c>
    85e8:	20200000 	eorcs	r0, r0, r0
    85ec:	00001b58 	andeq	r1, r0, r8, asr fp
    85f0:	00009cfc 	strdeq	r9, [r0], -ip
    85f4:	000017bc 			; <UNDEFINED> instruction: 0x000017bc
    85f8:	00009d14 	andeq	r9, r0, r4, lsl sp
    85fc:	00009d1c 	andeq	r9, r0, ip, lsl sp
    8600:	00009d38 	andeq	r9, r0, r8, lsr sp

00008604 <printk>:
    8604:	e92d000f 	push	{r0, r1, r2, r3}
    8608:	e92d4030 	push	{r4, r5, lr}
    860c:	e24dd00c 	sub	sp, sp, #12
    8610:	e28d301c 	add	r3, sp, #28
    8614:	e58d3004 	str	r3, [sp, #4]
    8618:	e59f4034 	ldr	r4, [pc, #52]	; 8654 <printk+0x50>
    861c:	e1a00004 	mov	r0, r4
    8620:	e3a01b01 	mov	r1, #1024	; 0x400
    8624:	e59d2018 	ldr	r2, [sp, #24]
    8628:	eb0000cb 	bl	895c <va_printk>
    862c:	e1a05000 	mov	r5, r0
    8630:	e59f3020 	ldr	r3, [pc, #32]	; 8658 <printk+0x54>
    8634:	e5933000 	ldr	r3, [r3]
    8638:	e1a00004 	mov	r0, r4
    863c:	e12fff33 	blx	r3
    8640:	e1a00005 	mov	r0, r5
    8644:	e28dd00c 	add	sp, sp, #12
    8648:	e8bd4030 	pop	{r4, r5, lr}
    864c:	e28dd010 	add	sp, sp, #16
    8650:	e12fff1e 	bx	lr
    8654:	00009f84 	andeq	r9, r0, r4, lsl #31
    8658:	00009c18 	andeq	r9, r0, r8, lsl ip

0000865c <internal_putchar>:
    865c:	e92d4010 	push	{r4, lr}
    8660:	e1a04000 	mov	r4, r0
    8664:	eb00051f 	bl	9ae8 <uart_putc>
    8668:	e1a00004 	mov	r0, r4
    866c:	e8bd8010 	pop	{r4, pc}

00008670 <rpi_reset_putc>:
    8670:	e59f2008 	ldr	r2, [pc, #8]	; 8680 <rpi_reset_putc+0x10>
    8674:	e59f3008 	ldr	r3, [pc, #8]	; 8684 <rpi_reset_putc+0x14>
    8678:	e5832000 	str	r2, [r3]
    867c:	e12fff1e 	bx	lr
    8680:	0000865c 	andeq	r8, r0, ip, asr r6
    8684:	00009c14 	andeq	r9, r0, r4, lsl ip

00008688 <rpi_set_putc>:
    8688:	e59f3004 	ldr	r3, [pc, #4]	; 8694 <rpi_set_putc+0xc>
    868c:	e5830000 	str	r0, [r3]
    8690:	e12fff1e 	bx	lr
    8694:	00009c14 	andeq	r9, r0, r4, lsl ip

00008698 <internal_putk>:
    8698:	e92d4038 	push	{r3, r4, r5, lr}
    869c:	e1a04000 	mov	r4, r0
    86a0:	e59f5020 	ldr	r5, [pc, #32]	; 86c8 <internal_putk+0x30>
    86a4:	ea000002 	b	86b4 <internal_putk+0x1c>
    86a8:	e5953000 	ldr	r3, [r5]
    86ac:	e12fff33 	blx	r3
    86b0:	e2844001 	add	r4, r4, #1
    86b4:	e5d40000 	ldrb	r0, [r4]
    86b8:	e3500000 	cmp	r0, #0
    86bc:	1afffff9 	bne	86a8 <internal_putk+0x10>
    86c0:	e3a00001 	mov	r0, #1
    86c4:	e8bd8038 	pop	{r3, r4, r5, pc}
    86c8:	00009c14 	andeq	r9, r0, r4, lsl ip

000086cc <isdigit>:
    86cc:	e2400030 	sub	r0, r0, #48	; 0x30
    86d0:	e3500009 	cmp	r0, #9
    86d4:	83a00000 	movhi	r0, #0
    86d8:	93a00001 	movls	r0, #1
    86dc:	e12fff1e 	bx	lr

000086e0 <pad>:
    86e0:	e0611000 	rsb	r1, r1, r0
    86e4:	e3a03020 	mov	r3, #32
    86e8:	ea000002 	b	86f8 <pad+0x18>
    86ec:	e5c03000 	strb	r3, [r0]
    86f0:	e2811001 	add	r1, r1, #1
    86f4:	e2800001 	add	r0, r0, #1
    86f8:	e1510002 	cmp	r1, r2
    86fc:	bafffffa 	blt	86ec <pad+0xc>
    8700:	e3a03000 	mov	r3, #0
    8704:	e5c03000 	strb	r3, [r0]
    8708:	e12fff1e 	bx	lr

0000870c <reverse>:
    870c:	e063c002 	rsb	ip, r3, r2
    8710:	e28cc001 	add	ip, ip, #1
    8714:	e15c0001 	cmp	ip, r1
    8718:	c061100c 	rsbgt	r1, r1, ip
    871c:	c0833001 	addgt	r3, r3, r1
    8720:	e2422001 	sub	r2, r2, #1
    8724:	e1a01000 	mov	r1, r0
    8728:	ea000002 	b	8738 <reverse+0x2c>
    872c:	e452c001 	ldrb	ip, [r2], #-1
    8730:	e5c1c000 	strb	ip, [r1]
    8734:	e2811001 	add	r1, r1, #1
    8738:	e1520003 	cmp	r2, r3
    873c:	2afffffa 	bcs	872c <reverse+0x20>
    8740:	e3a03000 	mov	r3, #0
    8744:	e5c13000 	strb	r3, [r1]
    8748:	e12fff1e 	bx	lr

0000874c <emit>:
    874c:	e92d41f0 	push	{r4, r5, r6, r7, r8, lr}
    8750:	e24dd048 	sub	sp, sp, #72	; 0x48
    8754:	e1a05001 	mov	r5, r1
    8758:	e1a04002 	mov	r4, r2
    875c:	e59d2060 	ldr	r2, [sp, #96]	; 0x60
    8760:	e1520004 	cmp	r2, r4
    8764:	c2442001 	subgt	r2, r4, #1
    8768:	e1a0c003 	mov	ip, r3
    876c:	e2400002 	sub	r0, r0, #2
    8770:	e350000e 	cmp	r0, #14
    8774:	979ff100 	ldrls	pc, [pc, r0, lsl #2]
    8778:	ea000042 	b	8888 <emit+0x13c>
    877c:	00008860 	andeq	r8, r0, r0, ror #16
    8780:	00008888 	andeq	r8, r0, r8, lsl #17
    8784:	00008888 	andeq	r8, r0, r8, lsl #17
    8788:	00008888 	andeq	r8, r0, r8, lsl #17
    878c:	00008888 	andeq	r8, r0, r8, lsl #17
    8790:	00008888 	andeq	r8, r0, r8, lsl #17
    8794:	00008854 	andeq	r8, r0, r4, asr r8
    8798:	00008888 	andeq	r8, r0, r8, lsl #17
    879c:	000087b8 			; <UNDEFINED> instruction: 0x000087b8
    87a0:	00008888 	andeq	r8, r0, r8, lsl #17
    87a4:	00008888 	andeq	r8, r0, r8, lsl #17
    87a8:	00008888 	andeq	r8, r0, r8, lsl #17
    87ac:	00008888 	andeq	r8, r0, r8, lsl #17
    87b0:	00008888 	andeq	r8, r0, r8, lsl #17
    87b4:	0000882c 	andeq	r8, r0, ip, lsr #16
    87b8:	e59d1064 	ldr	r1, [sp, #100]	; 0x64
    87bc:	e2911000 	adds	r1, r1, #0
    87c0:	13a01001 	movne	r1, #1
    87c4:	e0111fa3 	ands	r1, r1, r3, lsr #31
    87c8:	1263c000 	rsbne	ip, r3, #0
    87cc:	13a08001 	movne	r8, #1
    87d0:	03a08000 	moveq	r8, #0
    87d4:	e28d1008 	add	r1, sp, #8
    87d8:	e59f70f4 	ldr	r7, [pc, #244]	; 88d4 <emit+0x188>
    87dc:	e59f60f4 	ldr	r6, [pc, #244]	; 88d8 <emit+0x18c>
    87e0:	ea000000 	b	87e8 <emit+0x9c>
    87e4:	e1a01003 	mov	r1, r3
    87e8:	e2813001 	add	r3, r1, #1
    87ec:	e08e0c97 	umull	r0, lr, r7, ip
    87f0:	e1a0e1ae 	lsr	lr, lr, #3
    87f4:	e1a0000e 	mov	r0, lr
    87f8:	e08ee10e 	add	lr, lr, lr, lsl #2
    87fc:	e1a0e08e 	lsl	lr, lr, #1
    8800:	e06ee00c 	rsb	lr, lr, ip
    8804:	e7d6c00e 	ldrb	ip, [r6, lr]
    8808:	e5c1c000 	strb	ip, [r1]
    880c:	e1a0c000 	mov	ip, r0
    8810:	e3500000 	cmp	r0, #0
    8814:	1afffff2 	bne	87e4 <emit+0x98>
    8818:	e3580000 	cmp	r8, #0
    881c:	12813002 	addne	r3, r1, #2
    8820:	13a0002d 	movne	r0, #45	; 0x2d
    8824:	15c10001 	strbne	r0, [r1, #1]
    8828:	ea00001f 	b	88ac <emit+0x160>
    882c:	e28de008 	add	lr, sp, #8
    8830:	e59f00a4 	ldr	r0, [pc, #164]	; 88dc <emit+0x190>
    8834:	e28e3001 	add	r3, lr, #1
    8838:	e20c100f 	and	r1, ip, #15
    883c:	e7d01001 	ldrb	r1, [r0, r1]
    8840:	e5ce1000 	strb	r1, [lr]
    8844:	e1a0e003 	mov	lr, r3
    8848:	e1b0c22c 	lsrs	ip, ip, #4
    884c:	1afffff8 	bne	8834 <emit+0xe8>
    8850:	ea000015 	b	88ac <emit+0x160>
    8854:	e5cd3008 	strb	r3, [sp, #8]
    8858:	e28d3009 	add	r3, sp, #9
    885c:	ea000012 	b	88ac <emit+0x160>
    8860:	e28de008 	add	lr, sp, #8
    8864:	e59f0074 	ldr	r0, [pc, #116]	; 88e0 <emit+0x194>
    8868:	e28e3001 	add	r3, lr, #1
    886c:	e20c1001 	and	r1, ip, #1
    8870:	e7d01001 	ldrb	r1, [r0, r1]
    8874:	e5ce1000 	strb	r1, [lr]
    8878:	e1a0e003 	mov	lr, r3
    887c:	e1b0c0ac 	lsrs	ip, ip, #1
    8880:	1afffff8 	bne	8868 <emit+0x11c>
    8884:	ea000008 	b	88ac <emit+0x160>
    8888:	ebffff78 	bl	8670 <rpi_reset_putc>
    888c:	e59f3050 	ldr	r3, [pc, #80]	; 88e4 <emit+0x198>
    8890:	e58d3000 	str	r3, [sp]
    8894:	e59f004c 	ldr	r0, [pc, #76]	; 88e8 <emit+0x19c>
    8898:	e59f104c 	ldr	r1, [pc, #76]	; 88ec <emit+0x1a0>
    889c:	e59f204c 	ldr	r2, [pc, #76]	; 88f0 <emit+0x1a4>
    88a0:	e3a03075 	mov	r3, #117	; 0x75
    88a4:	ebffff56 	bl	8604 <printk>
    88a8:	eb0000d8 	bl	8c10 <clean_reboot>
    88ac:	e1a00003 	mov	r0, r3
    88b0:	e28d1008 	add	r1, sp, #8
    88b4:	ebffff89 	bl	86e0 <pad>
    88b8:	e1a02000 	mov	r2, r0
    88bc:	e1a00005 	mov	r0, r5
    88c0:	e1a01004 	mov	r1, r4
    88c4:	e28d3008 	add	r3, sp, #8
    88c8:	ebffff8f 	bl	870c <reverse>
    88cc:	e28dd048 	add	sp, sp, #72	; 0x48
    88d0:	e8bd81f0 	pop	{r4, r5, r6, r7, r8, pc}
    88d4:	cccccccd 	stclgt	12, cr12, [ip], {205}	; 0xcd
    88d8:	00009d98 	muleq	r0, r8, sp
    88dc:	00009da4 	andeq	r9, r0, r4, lsr #27
    88e0:	00009db8 			; <UNDEFINED> instruction: 0x00009db8
    88e4:	00009d94 	muleq	r0, r4, sp
    88e8:	00009d6c 	andeq	r9, r0, ip, ror #26
    88ec:	00009d80 	andeq	r9, r0, r0, lsl #27
    88f0:	00009d48 	andeq	r9, r0, r8, asr #26

000088f4 <rpi_set_output>:
    88f4:	e52de004 	push	{lr}		; (str lr, [sp, #-4]!)
    88f8:	e24dd00c 	sub	sp, sp, #12
    88fc:	e3500000 	cmp	r0, #0
    8900:	1a000008 	bne	8928 <rpi_set_output+0x34>
    8904:	ebffff59 	bl	8670 <rpi_reset_putc>
    8908:	e59f3034 	ldr	r3, [pc, #52]	; 8944 <rpi_set_output+0x50>
    890c:	e58d3000 	str	r3, [sp]
    8910:	e59f0030 	ldr	r0, [pc, #48]	; 8948 <rpi_set_output+0x54>
    8914:	e59f1030 	ldr	r1, [pc, #48]	; 894c <rpi_set_output+0x58>
    8918:	e59f2030 	ldr	r2, [pc, #48]	; 8950 <rpi_set_output+0x5c>
    891c:	e3a03020 	mov	r3, #32
    8920:	ebffff37 	bl	8604 <printk>
    8924:	eb0000b9 	bl	8c10 <clean_reboot>
    8928:	e59f3024 	ldr	r3, [pc, #36]	; 8954 <rpi_set_output+0x60>
    892c:	e5830000 	str	r0, [r3]
    8930:	e3510000 	cmp	r1, #0
    8934:	159f301c 	ldrne	r3, [pc, #28]	; 8958 <rpi_set_output+0x64>
    8938:	15831000 	strne	r1, [r3]
    893c:	e28dd00c 	add	sp, sp, #12
    8940:	e49df004 	pop	{pc}		; (ldr pc, [sp], #4)
    8944:	00009dbc 			; <UNDEFINED> instruction: 0x00009dbc
    8948:	00009d6c 	andeq	r9, r0, ip, ror #26
    894c:	00009d80 	andeq	r9, r0, r0, lsl #27
    8950:	00009d50 	andeq	r9, r0, r0, asr sp
    8954:	00009c14 	andeq	r9, r0, r4, lsl ip
    8958:	00009c18 	andeq	r9, r0, r8, lsl ip

0000895c <va_printk>:
    895c:	e92d4ff0 	push	{r4, r5, r6, r7, r8, r9, sl, fp, lr}
    8960:	e24dd08c 	sub	sp, sp, #140	; 0x8c
    8964:	e1a0a000 	mov	sl, r0
    8968:	e1a09003 	mov	r9, r3
    896c:	e2411001 	sub	r1, r1, #1
    8970:	e0808001 	add	r8, r0, r1
    8974:	e3a03000 	mov	r3, #0
    8978:	e5c03000 	strb	r3, [r0]
    897c:	e1a04000 	mov	r4, r0
    8980:	e1a0b003 	mov	fp, r3
    8984:	ea000088 	b	8bac <va_printk+0x250>
    8988:	e3530025 	cmp	r3, #37	; 0x25
    898c:	12822001 	addne	r2, r2, #1
    8990:	15c43000 	strbne	r3, [r4]
    8994:	12844001 	addne	r4, r4, #1
    8998:	1a000083 	bne	8bac <va_printk+0x250>
    899c:	e5d21001 	ldrb	r1, [r2, #1]
    89a0:	e3510025 	cmp	r1, #37	; 0x25
    89a4:	05c43000 	strbeq	r3, [r4]
    89a8:	02822002 	addeq	r2, r2, #2
    89ac:	02844001 	addeq	r4, r4, #1
    89b0:	0a00007d 	beq	8bac <va_printk+0x250>
    89b4:	e2826001 	add	r6, r2, #1
    89b8:	e1a0700b 	mov	r7, fp
    89bc:	ea000004 	b	89d4 <va_printk+0x78>
    89c0:	e0877107 	add	r7, r7, r7, lsl #2
    89c4:	e1a07087 	lsl	r7, r7, #1
    89c8:	e0877005 	add	r7, r7, r5
    89cc:	e2477030 	sub	r7, r7, #48	; 0x30
    89d0:	e2866001 	add	r6, r6, #1
    89d4:	e5d65000 	ldrb	r5, [r6]
    89d8:	e1a00005 	mov	r0, r5
    89dc:	ebffff3a 	bl	86cc <isdigit>
    89e0:	e3500000 	cmp	r0, #0
    89e4:	1afffff5 	bne	89c0 <va_printk+0x64>
    89e8:	e357001f 	cmp	r7, #31
    89ec:	9a000008 	bls	8a14 <va_printk+0xb8>
    89f0:	ebffff1e 	bl	8670 <rpi_reset_putc>
    89f4:	e59f31dc 	ldr	r3, [pc, #476]	; 8bd8 <va_printk+0x27c>
    89f8:	e58d3000 	str	r3, [sp]
    89fc:	e59f01d8 	ldr	r0, [pc, #472]	; 8bdc <va_printk+0x280>
    8a00:	e59f11d8 	ldr	r1, [pc, #472]	; 8be0 <va_printk+0x284>
    8a04:	e59f21d8 	ldr	r2, [pc, #472]	; 8be4 <va_printk+0x288>
    8a08:	e3a03092 	mov	r3, #146	; 0x92
    8a0c:	ebfffefc 	bl	8604 <printk>
    8a10:	eb00007e 	bl	8c10 <clean_reboot>
    8a14:	e2455062 	sub	r5, r5, #98	; 0x62
    8a18:	e3550016 	cmp	r5, #22
    8a1c:	979ff105 	ldrls	pc, [pc, r5, lsl #2]
    8a20:	ea00004e 	b	8b60 <va_printk+0x204>
    8a24:	00008b0c 	andeq	r8, r0, ip, lsl #22
    8a28:	00008b3c 	andeq	r8, r0, ip, lsr fp
    8a2c:	00008a9c 	muleq	r0, ip, sl
    8a30:	00008b60 	andeq	r8, r0, r0, ror #22
    8a34:	00008a80 	andeq	r8, r0, r0, lsl #21
    8a38:	00008b60 	andeq	r8, r0, r0, ror #22
    8a3c:	00008b60 	andeq	r8, r0, r0, ror #22
    8a40:	00008b60 	andeq	r8, r0, r0, ror #22
    8a44:	00008b60 	andeq	r8, r0, r0, ror #22
    8a48:	00008b60 	andeq	r8, r0, r0, ror #22
    8a4c:	00008b60 	andeq	r8, r0, r0, ror #22
    8a50:	00008b60 	andeq	r8, r0, r0, ror #22
    8a54:	00008b60 	andeq	r8, r0, r0, ror #22
    8a58:	00008b60 	andeq	r8, r0, r0, ror #22
    8a5c:	00008ae8 	andeq	r8, r0, r8, ror #21
    8a60:	00008b60 	andeq	r8, r0, r0, ror #22
    8a64:	00008b60 	andeq	r8, r0, r0, ror #22
    8a68:	00008b30 	andeq	r8, r0, r0, lsr fp
    8a6c:	00008b60 	andeq	r8, r0, r0, ror #22
    8a70:	00008ac4 	andeq	r8, r0, r4, asr #21
    8a74:	00008b60 	andeq	r8, r0, r0, ror #22
    8a78:	00008b60 	andeq	r8, r0, r0, ror #22
    8a7c:	00008ae8 	andeq	r8, r0, r8, ror #21
    8a80:	ebfffefa 	bl	8670 <rpi_reset_putc>
    8a84:	e59f015c 	ldr	r0, [pc, #348]	; 8be8 <va_printk+0x28c>
    8a88:	e59f1150 	ldr	r1, [pc, #336]	; 8be0 <va_printk+0x284>
    8a8c:	e59f2150 	ldr	r2, [pc, #336]	; 8be4 <va_printk+0x288>
    8a90:	e3a03098 	mov	r3, #152	; 0x98
    8a94:	ebfffeda 	bl	8604 <printk>
    8a98:	eb00005c 	bl	8c10 <clean_reboot>
    8a9c:	e5993000 	ldr	r3, [r9]
    8aa0:	e2899004 	add	r9, r9, #4
    8aa4:	e58d7000 	str	r7, [sp]
    8aa8:	e3a02001 	mov	r2, #1
    8aac:	e58d2004 	str	r2, [sp, #4]
    8ab0:	e3a0000a 	mov	r0, #10
    8ab4:	e28d1008 	add	r1, sp, #8
    8ab8:	e3a02080 	mov	r2, #128	; 0x80
    8abc:	ebffff22 	bl	874c <emit>
    8ac0:	ea00002f 	b	8b84 <va_printk+0x228>
    8ac4:	e5993000 	ldr	r3, [r9]
    8ac8:	e2899004 	add	r9, r9, #4
    8acc:	e58d7000 	str	r7, [sp]
    8ad0:	e58db004 	str	fp, [sp, #4]
    8ad4:	e3a0000a 	mov	r0, #10
    8ad8:	e28d1008 	add	r1, sp, #8
    8adc:	e3a02080 	mov	r2, #128	; 0x80
    8ae0:	ebffff19 	bl	874c <emit>
    8ae4:	ea000026 	b	8b84 <va_printk+0x228>
    8ae8:	e5993000 	ldr	r3, [r9]
    8aec:	e2899004 	add	r9, r9, #4
    8af0:	e58d7000 	str	r7, [sp]
    8af4:	e58db004 	str	fp, [sp, #4]
    8af8:	e3a00010 	mov	r0, #16
    8afc:	e28d1008 	add	r1, sp, #8
    8b00:	e3a02080 	mov	r2, #128	; 0x80
    8b04:	ebffff10 	bl	874c <emit>
    8b08:	ea00001d 	b	8b84 <va_printk+0x228>
    8b0c:	e5993000 	ldr	r3, [r9]
    8b10:	e2899004 	add	r9, r9, #4
    8b14:	e58d7000 	str	r7, [sp]
    8b18:	e58db004 	str	fp, [sp, #4]
    8b1c:	e3a00002 	mov	r0, #2
    8b20:	e28d1008 	add	r1, sp, #8
    8b24:	e3a02080 	mov	r2, #128	; 0x80
    8b28:	ebffff07 	bl	874c <emit>
    8b2c:	ea000014 	b	8b84 <va_printk+0x228>
    8b30:	e5990000 	ldr	r0, [r9]
    8b34:	e2899004 	add	r9, r9, #4
    8b38:	ea000011 	b	8b84 <va_printk+0x228>
    8b3c:	e5993000 	ldr	r3, [r9]
    8b40:	e2899004 	add	r9, r9, #4
    8b44:	e58d7000 	str	r7, [sp]
    8b48:	e58db004 	str	fp, [sp, #4]
    8b4c:	e3a00008 	mov	r0, #8
    8b50:	e08d1000 	add	r1, sp, r0
    8b54:	e3a02080 	mov	r2, #128	; 0x80
    8b58:	ebfffefb 	bl	874c <emit>
    8b5c:	ea000008 	b	8b84 <va_printk+0x228>
    8b60:	ebfffec2 	bl	8670 <rpi_reset_putc>
    8b64:	e5d63000 	ldrb	r3, [r6]
    8b68:	e58d3000 	str	r3, [sp]
    8b6c:	e59f0078 	ldr	r0, [pc, #120]	; 8bec <va_printk+0x290>
    8b70:	e59f1068 	ldr	r1, [pc, #104]	; 8be0 <va_printk+0x284>
    8b74:	e59f2068 	ldr	r2, [pc, #104]	; 8be4 <va_printk+0x288>
    8b78:	e3a030b9 	mov	r3, #185	; 0xb9
    8b7c:	ebfffea0 	bl	8604 <printk>
    8b80:	eb000022 	bl	8c10 <clean_reboot>
    8b84:	e2862001 	add	r2, r6, #1
    8b88:	ea000002 	b	8b98 <va_printk+0x23c>
    8b8c:	e2800001 	add	r0, r0, #1
    8b90:	e5c43000 	strb	r3, [r4]
    8b94:	e2844001 	add	r4, r4, #1
    8b98:	e1540008 	cmp	r4, r8
    8b9c:	2a000002 	bcs	8bac <va_printk+0x250>
    8ba0:	e5d03000 	ldrb	r3, [r0]
    8ba4:	e3530000 	cmp	r3, #0
    8ba8:	1afffff7 	bne	8b8c <va_printk+0x230>
    8bac:	e5d23000 	ldrb	r3, [r2]
    8bb0:	e3530000 	cmp	r3, #0
    8bb4:	0a000001 	beq	8bc0 <va_printk+0x264>
    8bb8:	e1540008 	cmp	r4, r8
    8bbc:	3affff71 	bcc	8988 <va_printk+0x2c>
    8bc0:	e2840001 	add	r0, r4, #1
    8bc4:	e3a03000 	mov	r3, #0
    8bc8:	e5c43000 	strb	r3, [r4]
    8bcc:	e06a0000 	rsb	r0, sl, r0
    8bd0:	e28dd08c 	add	sp, sp, #140	; 0x8c
    8bd4:	e8bd8ff0 	pop	{r4, r5, r6, r7, r8, r9, sl, fp, pc}
    8bd8:	00009dc4 	andeq	r9, r0, r4, asr #27
    8bdc:	00009d6c 	andeq	r9, r0, ip, ror #26
    8be0:	00009d80 	andeq	r9, r0, r0, lsl #27
    8be4:	00009d60 	andeq	r9, r0, r0, ror #26
    8be8:	00009dd0 	ldrdeq	r9, [r0], -r0
    8bec:	00009df8 	strdeq	r9, [r0], -r8

00008bf0 <enable_cache>:
    8bf0:	ee113f10 	mrc	15, 0, r3, cr1, cr0, {0}
    8bf4:	e3833b06 	orr	r3, r3, #6144	; 0x1800
    8bf8:	ee013f10 	mcr	15, 0, r3, cr1, cr0, {0}
    8bfc:	e12fff1e 	bx	lr

00008c00 <disable_cache>:
    8c00:	ee113f10 	mrc	15, 0, r3, cr1, cr0, {0}
    8c04:	e3c33b06 	bic	r3, r3, #6144	; 0x1800
    8c08:	ee013f10 	mcr	15, 0, r3, cr1, cr0, {0}
    8c0c:	e12fff1e 	bx	lr

00008c10 <clean_reboot>:
    8c10:	e92d4008 	push	{r3, lr}
    8c14:	e59f3014 	ldr	r3, [pc, #20]	; 8c30 <clean_reboot+0x20>
    8c18:	e5933000 	ldr	r3, [r3]
    8c1c:	e59f0010 	ldr	r0, [pc, #16]	; 8c34 <clean_reboot+0x24>
    8c20:	e12fff33 	blx	r3
    8c24:	e3a00064 	mov	r0, #100	; 0x64
    8c28:	eb000063 	bl	8dbc <delay_ms>
    8c2c:	eb000038 	bl	8d14 <rpi_reboot>
    8c30:	00009c18 	andeq	r9, r0, r8, lsl ip
    8c34:	00009e30 	andeq	r9, r0, r0, lsr lr

00008c38 <internal_sw_putchar>:
    8c38:	e92d4010 	push	{r4, lr}
    8c3c:	e1a04000 	mov	r4, r0
    8c40:	e59f000c 	ldr	r0, [pc, #12]	; 8c54 <internal_sw_putchar+0x1c>
    8c44:	e6ef1074 	uxtb	r1, r4
    8c48:	eb0001cd 	bl	9384 <sw_uart_putc>
    8c4c:	e1a00004 	mov	r0, r4
    8c50:	e8bd8010 	pop	{r4, pc}
    8c54:	0000a384 	andeq	sl, r0, r4, lsl #7

00008c58 <_cstart>:
    8c58:	e92d4008 	push	{r3, lr}
    8c5c:	e59f3068 	ldr	r3, [pc, #104]	; 8ccc <_cstart+0x74>
    8c60:	e59f2068 	ldr	r2, [pc, #104]	; 8cd0 <_cstart+0x78>
    8c64:	e3a01000 	mov	r1, #0
    8c68:	ea000001 	b	8c74 <_cstart+0x1c>
    8c6c:	e5831000 	str	r1, [r3]
    8c70:	e2833004 	add	r3, r3, #4
    8c74:	e1530002 	cmp	r3, r2
    8c78:	3afffffb 	bcc	8c6c <_cstart+0x14>
    8c7c:	eb0003d2 	bl	9bcc <cb_get_block>
    8c80:	e3500000 	cmp	r0, #0
    8c84:	0a00000e 	beq	8cc4 <_cstart+0x6c>
    8c88:	e5d02004 	ldrb	r2, [r0, #4]
    8c8c:	e3520002 	cmp	r2, #2
    8c90:	1a00000b 	bne	8cc4 <_cstart+0x6c>
    8c94:	e59f1038 	ldr	r1, [pc, #56]	; 8cd4 <_cstart+0x7c>
    8c98:	e59f2038 	ldr	r2, [pc, #56]	; 8cd8 <_cstart+0x80>
    8c9c:	e5821000 	str	r1, [r2]
    8ca0:	e59fc034 	ldr	ip, [pc, #52]	; 8cdc <_cstart+0x84>
    8ca4:	e2803008 	add	r3, r0, #8
    8ca8:	e8930007 	ldm	r3, {r0, r1, r2}
    8cac:	e88c0007 	stm	ip, {r0, r1, r2}
    8cb0:	e1a0000c 	mov	r0, ip
    8cb4:	e59f1024 	ldr	r1, [pc, #36]	; 8ce0 <_cstart+0x88>
    8cb8:	eb000314 	bl	9910 <sw_uart_printk>
    8cbc:	e59f0020 	ldr	r0, [pc, #32]	; 8ce4 <_cstart+0x8c>
    8cc0:	ebfffe4f 	bl	8604 <printk>
    8cc4:	ebfffddf 	bl	8448 <notmain>
    8cc8:	eb000011 	bl	8d14 <rpi_reboot>
    8ccc:	00009f84 	andeq	r9, r0, r4, lsl #31
    8cd0:	0000a390 	muleq	r0, r0, r3
    8cd4:	00008c38 	andeq	r8, r0, r8, lsr ip
    8cd8:	00009c14 	andeq	r9, r0, r4, lsl ip
    8cdc:	0000a384 	andeq	sl, r0, r4, lsl #7
    8ce0:	00009e3c 	andeq	r9, r0, ip, lsr lr
    8ce4:	00009e60 	andeq	r9, r0, r0, ror #28

00008ce8 <at_user_level>:
    8ce8:	e10f0000 	mrs	r0, CPSR
    8cec:	e200001f 	and	r0, r0, #31
    8cf0:	e3500010 	cmp	r0, #16
    8cf4:	13a00000 	movne	r0, #0
    8cf8:	03a00001 	moveq	r0, #1
    8cfc:	e12fff1e 	bx	lr

00008d00 <set_user_level>:
    8d00:	e10f3000 	mrs	r3, CPSR
    8d04:	e3c3301f 	bic	r3, r3, #31
    8d08:	e3833010 	orr	r3, r3, #16
    8d0c:	e129f003 	msr	CPSR_fc, r3
    8d10:	e12fff1e 	bx	lr

00008d14 <rpi_reboot>:
    8d14:	e92d4008 	push	{r3, lr}
    8d18:	ebfffff2 	bl	8ce8 <at_user_level>
    8d1c:	e3500000 	cmp	r0, #0
    8d20:	0a000000 	beq	8d28 <rpi_reboot+0x14>
    8d24:	ebfffff5 	bl	8d00 <set_user_level>
    8d28:	e3a0001e 	mov	r0, #30
    8d2c:	eb000022 	bl	8dbc <delay_ms>
    8d30:	e59f0014 	ldr	r0, [pc, #20]	; 8d4c <rpi_reboot+0x38>
    8d34:	e59f1014 	ldr	r1, [pc, #20]	; 8d50 <rpi_reboot+0x3c>
    8d38:	eb000388 	bl	9b60 <PUT32>
    8d3c:	e59f0010 	ldr	r0, [pc, #16]	; 8d54 <rpi_reboot+0x40>
    8d40:	e59f1010 	ldr	r1, [pc, #16]	; 8d58 <rpi_reboot+0x44>
    8d44:	eb000385 	bl	9b60 <PUT32>
    8d48:	eafffffe 	b	8d48 <rpi_reboot+0x34>
    8d4c:	20100024 	andscs	r0, r0, r4, lsr #32
    8d50:	5a000001 	bpl	8d5c <delay_cycles>
    8d54:	2010001c 	andscs	r0, r0, ip, lsl r0
    8d58:	5a000020 	bpl	8de0 <delay_sec+0x10>

00008d5c <delay_cycles>:
    8d5c:	ea000001 	b	8d68 <delay_cycles+0xc>
    8d60:	e2811000 	add	r1, r1, #0
    8d64:	e1a00003 	mov	r0, r3
    8d68:	e2403001 	sub	r3, r0, #1
    8d6c:	e3500000 	cmp	r0, #0
    8d70:	1afffffa 	bne	8d60 <delay_cycles+0x4>
    8d74:	e12fff1e 	bx	lr

00008d78 <timer_get_usec_raw>:
    8d78:	e92d4008 	push	{r3, lr}
    8d7c:	e59f0004 	ldr	r0, [pc, #4]	; 8d88 <timer_get_usec_raw+0x10>
    8d80:	eb000382 	bl	9b90 <GET32>
    8d84:	e8bd8008 	pop	{r3, pc}
    8d88:	20003004 	andcs	r3, r0, r4

00008d8c <timer_get_usec>:
    8d8c:	e92d4008 	push	{r3, lr}
    8d90:	ebfffff8 	bl	8d78 <timer_get_usec_raw>
    8d94:	e8bd8008 	pop	{r3, pc}

00008d98 <delay_us>:
    8d98:	e92d4038 	push	{r3, r4, r5, lr}
    8d9c:	e1a05000 	mov	r5, r0
    8da0:	ebfffff9 	bl	8d8c <timer_get_usec>
    8da4:	e1a04000 	mov	r4, r0
    8da8:	ebfffff7 	bl	8d8c <timer_get_usec>
    8dac:	e0640000 	rsb	r0, r4, r0
    8db0:	e1500005 	cmp	r0, r5
    8db4:	3afffffb 	bcc	8da8 <delay_us+0x10>
    8db8:	e8bd8038 	pop	{r3, r4, r5, pc}

00008dbc <delay_ms>:
    8dbc:	e92d4008 	push	{r3, lr}
    8dc0:	e3a03ffa 	mov	r3, #1000	; 0x3e8
    8dc4:	e0000093 	mul	r0, r3, r0
    8dc8:	ebfffff2 	bl	8d98 <delay_us>
    8dcc:	e8bd8008 	pop	{r3, pc}

00008dd0 <delay_sec>:
    8dd0:	e92d4008 	push	{r3, lr}
    8dd4:	e3a03ffa 	mov	r3, #1000	; 0x3e8
    8dd8:	e0000093 	mul	r0, r3, r0
    8ddc:	ebfffff6 	bl	8dbc <delay_ms>
    8de0:	e8bd8008 	pop	{r3, pc}

00008de4 <gpio_set_output>:
    8de4:	e92d4038 	push	{r3, r4, r5, lr}
    8de8:	e1a04000 	mov	r4, r0
    8dec:	e350001f 	cmp	r0, #31
    8df0:	88bd8038 	pophi	{r3, r4, r5, pc}
    8df4:	e59f30b4 	ldr	r3, [pc, #180]	; 8eb0 <gpio_set_output+0xcc>
    8df8:	e0832093 	umull	r2, r3, r3, r0
    8dfc:	e1a031a3 	lsr	r3, r3, #3
    8e00:	e3530005 	cmp	r3, #5
    8e04:	979ff103 	ldrls	pc, [pc, r3, lsl #2]
    8e08:	ea000017 	b	8e6c <gpio_set_output+0x88>
    8e0c:	00008e24 	andeq	r8, r0, r4, lsr #28
    8e10:	00008e30 	andeq	r8, r0, r0, lsr lr
    8e14:	00008e3c 	andeq	r8, r0, ip, lsr lr
    8e18:	00008e48 	andeq	r8, r0, r8, asr #28
    8e1c:	00008e54 	andeq	r8, r0, r4, asr lr
    8e20:	00008e60 	andeq	r8, r0, r0, ror #28
    8e24:	e59f3088 	ldr	r3, [pc, #136]	; 8eb4 <gpio_set_output+0xd0>
    8e28:	e5935000 	ldr	r5, [r3]
    8e2c:	ea00000f 	b	8e70 <gpio_set_output+0x8c>
    8e30:	e59f307c 	ldr	r3, [pc, #124]	; 8eb4 <gpio_set_output+0xd0>
    8e34:	e5935004 	ldr	r5, [r3, #4]
    8e38:	ea00000c 	b	8e70 <gpio_set_output+0x8c>
    8e3c:	e59f3070 	ldr	r3, [pc, #112]	; 8eb4 <gpio_set_output+0xd0>
    8e40:	e5935008 	ldr	r5, [r3, #8]
    8e44:	ea000009 	b	8e70 <gpio_set_output+0x8c>
    8e48:	e59f3064 	ldr	r3, [pc, #100]	; 8eb4 <gpio_set_output+0xd0>
    8e4c:	e593500c 	ldr	r5, [r3, #12]
    8e50:	ea000006 	b	8e70 <gpio_set_output+0x8c>
    8e54:	e59f3058 	ldr	r3, [pc, #88]	; 8eb4 <gpio_set_output+0xd0>
    8e58:	e5935010 	ldr	r5, [r3, #16]
    8e5c:	ea000003 	b	8e70 <gpio_set_output+0x8c>
    8e60:	e59f304c 	ldr	r3, [pc, #76]	; 8eb4 <gpio_set_output+0xd0>
    8e64:	e5935014 	ldr	r5, [r3, #20]
    8e68:	ea000000 	b	8e70 <gpio_set_output+0x8c>
    8e6c:	e3a05000 	mov	r5, #0
    8e70:	e1a00005 	mov	r0, r5
    8e74:	eb000343 	bl	9b88 <get32>
    8e78:	e59f1030 	ldr	r1, [pc, #48]	; 8eb0 <gpio_set_output+0xcc>
    8e7c:	e0813491 	umull	r3, r1, r1, r4
    8e80:	e1a011a1 	lsr	r1, r1, #3
    8e84:	e0811101 	add	r1, r1, r1, lsl #2
    8e88:	e1a01081 	lsl	r1, r1, #1
    8e8c:	e0611004 	rsb	r1, r1, r4
    8e90:	e0811081 	add	r1, r1, r1, lsl #1
    8e94:	e3a03007 	mov	r3, #7
    8e98:	e1c03113 	bic	r3, r0, r3, lsl r1
    8e9c:	e1a00005 	mov	r0, r5
    8ea0:	e3a02001 	mov	r2, #1
    8ea4:	e1831112 	orr	r1, r3, r2, lsl r1
    8ea8:	eb00032a 	bl	9b58 <put32>
    8eac:	e8bd8038 	pop	{r3, r4, r5, pc}
    8eb0:	cccccccd 	stclgt	12, cr12, [ip], {205}	; 0xcd
    8eb4:	00009c1c 	andeq	r9, r0, ip, lsl ip

00008eb8 <gpio_set_on>:
    8eb8:	e92d4008 	push	{r3, lr}
    8ebc:	e350001f 	cmp	r0, #31
    8ec0:	88bd8008 	pophi	{r3, pc}
    8ec4:	959f3020 	ldrls	r3, [pc, #32]	; 8eec <gpio_set_on+0x34>
    8ec8:	95932018 	ldrls	r2, [r3, #24]
    8ecc:	859f3018 	ldrhi	r3, [pc, #24]	; 8eec <gpio_set_on+0x34>
    8ed0:	8593201c 	ldrhi	r2, [r3, #28]
    8ed4:	e200301f 	and	r3, r0, #31
    8ed8:	e1a00002 	mov	r0, r2
    8edc:	e3a01001 	mov	r1, #1
    8ee0:	e1a01311 	lsl	r1, r1, r3
    8ee4:	eb00031b 	bl	9b58 <put32>
    8ee8:	e8bd8008 	pop	{r3, pc}
    8eec:	00009c1c 	andeq	r9, r0, ip, lsl ip

00008ef0 <gpio_set_off>:
    8ef0:	e92d4008 	push	{r3, lr}
    8ef4:	e350001f 	cmp	r0, #31
    8ef8:	88bd8008 	pophi	{r3, pc}
    8efc:	959f3020 	ldrls	r3, [pc, #32]	; 8f24 <gpio_set_off+0x34>
    8f00:	95932020 	ldrls	r2, [r3, #32]
    8f04:	859f3018 	ldrhi	r3, [pc, #24]	; 8f24 <gpio_set_off+0x34>
    8f08:	85932024 	ldrhi	r2, [r3, #36]	; 0x24
    8f0c:	e200301f 	and	r3, r0, #31
    8f10:	e1a00002 	mov	r0, r2
    8f14:	e3a01001 	mov	r1, #1
    8f18:	e1a01311 	lsl	r1, r1, r3
    8f1c:	eb00030d 	bl	9b58 <put32>
    8f20:	e8bd8008 	pop	{r3, pc}
    8f24:	00009c1c 	andeq	r9, r0, ip, lsl ip

00008f28 <gpio_set_input>:
    8f28:	e92d4038 	push	{r3, r4, r5, lr}
    8f2c:	e1a04000 	mov	r4, r0
    8f30:	e350001f 	cmp	r0, #31
    8f34:	88bd8038 	pophi	{r3, r4, r5, pc}
    8f38:	e59f30ac 	ldr	r3, [pc, #172]	; 8fec <gpio_set_input+0xc4>
    8f3c:	e0832093 	umull	r2, r3, r3, r0
    8f40:	e1a031a3 	lsr	r3, r3, #3
    8f44:	e3530005 	cmp	r3, #5
    8f48:	979ff103 	ldrls	pc, [pc, r3, lsl #2]
    8f4c:	ea000017 	b	8fb0 <gpio_set_input+0x88>
    8f50:	00008f68 	andeq	r8, r0, r8, ror #30
    8f54:	00008f74 	andeq	r8, r0, r4, ror pc
    8f58:	00008f80 	andeq	r8, r0, r0, lsl #31
    8f5c:	00008f8c 	andeq	r8, r0, ip, lsl #31
    8f60:	00008f98 	muleq	r0, r8, pc	; <UNPREDICTABLE>
    8f64:	00008fa4 	andeq	r8, r0, r4, lsr #31
    8f68:	e59f3080 	ldr	r3, [pc, #128]	; 8ff0 <gpio_set_input+0xc8>
    8f6c:	e5935000 	ldr	r5, [r3]
    8f70:	ea00000f 	b	8fb4 <gpio_set_input+0x8c>
    8f74:	e59f3074 	ldr	r3, [pc, #116]	; 8ff0 <gpio_set_input+0xc8>
    8f78:	e5935004 	ldr	r5, [r3, #4]
    8f7c:	ea00000c 	b	8fb4 <gpio_set_input+0x8c>
    8f80:	e59f3068 	ldr	r3, [pc, #104]	; 8ff0 <gpio_set_input+0xc8>
    8f84:	e5935008 	ldr	r5, [r3, #8]
    8f88:	ea000009 	b	8fb4 <gpio_set_input+0x8c>
    8f8c:	e59f305c 	ldr	r3, [pc, #92]	; 8ff0 <gpio_set_input+0xc8>
    8f90:	e593500c 	ldr	r5, [r3, #12]
    8f94:	ea000006 	b	8fb4 <gpio_set_input+0x8c>
    8f98:	e59f3050 	ldr	r3, [pc, #80]	; 8ff0 <gpio_set_input+0xc8>
    8f9c:	e5935010 	ldr	r5, [r3, #16]
    8fa0:	ea000003 	b	8fb4 <gpio_set_input+0x8c>
    8fa4:	e59f3044 	ldr	r3, [pc, #68]	; 8ff0 <gpio_set_input+0xc8>
    8fa8:	e5935014 	ldr	r5, [r3, #20]
    8fac:	ea000000 	b	8fb4 <gpio_set_input+0x8c>
    8fb0:	e3a05000 	mov	r5, #0
    8fb4:	e1a00005 	mov	r0, r5
    8fb8:	eb0002f2 	bl	9b88 <get32>
    8fbc:	e59f1028 	ldr	r1, [pc, #40]	; 8fec <gpio_set_input+0xc4>
    8fc0:	e0813491 	umull	r3, r1, r1, r4
    8fc4:	e1a011a1 	lsr	r1, r1, #3
    8fc8:	e0811101 	add	r1, r1, r1, lsl #2
    8fcc:	e1a01081 	lsl	r1, r1, #1
    8fd0:	e0611004 	rsb	r1, r1, r4
    8fd4:	e0811081 	add	r1, r1, r1, lsl #1
    8fd8:	e3a03007 	mov	r3, #7
    8fdc:	e1c01113 	bic	r1, r0, r3, lsl r1
    8fe0:	e1a00005 	mov	r0, r5
    8fe4:	eb0002db 	bl	9b58 <put32>
    8fe8:	e8bd8038 	pop	{r3, r4, r5, pc}
    8fec:	cccccccd 	stclgt	12, cr12, [ip], {205}	; 0xcd
    8ff0:	00009c1c 	andeq	r9, r0, ip, lsl ip

00008ff4 <gpio_read>:
    8ff4:	e92d4010 	push	{r4, lr}
    8ff8:	e1a04000 	mov	r4, r0
    8ffc:	e350001f 	cmp	r0, #31
    9000:	8a00000b 	bhi	9034 <gpio_read+0x40>
    9004:	8a000003 	bhi	9018 <gpio_read+0x24>
    9008:	e59f302c 	ldr	r3, [pc, #44]	; 903c <gpio_read+0x48>
    900c:	e5930028 	ldr	r0, [r3, #40]	; 0x28
    9010:	eb0002dc 	bl	9b88 <get32>
    9014:	ea000002 	b	9024 <gpio_read+0x30>
    9018:	e59f301c 	ldr	r3, [pc, #28]	; 903c <gpio_read+0x48>
    901c:	e593002c 	ldr	r0, [r3, #44]	; 0x2c
    9020:	eb0002d8 	bl	9b88 <get32>
    9024:	e204401f 	and	r4, r4, #31
    9028:	e3a03001 	mov	r3, #1
    902c:	e0000413 	and	r0, r0, r3, lsl r4
    9030:	e8bd8010 	pop	{r4, pc}
    9034:	e3e00000 	mvn	r0, #0
    9038:	e8bd8010 	pop	{r4, pc}
    903c:	00009c1c 	andeq	r9, r0, ip, lsl ip

00009040 <gpio_write>:
    9040:	e92d4008 	push	{r3, lr}
    9044:	e350001f 	cmp	r0, #31
    9048:	88bd8008 	pophi	{r3, pc}
    904c:	e3510000 	cmp	r1, #0
    9050:	0a000001 	beq	905c <gpio_write+0x1c>
    9054:	ebffff97 	bl	8eb8 <gpio_set_on>
    9058:	e8bd8008 	pop	{r3, pc}
    905c:	ebffffa3 	bl	8ef0 <gpio_set_off>
    9060:	e8bd8008 	pop	{r3, pc}

00009064 <gpio_set_function>:
    9064:	e92d4070 	push	{r4, r5, r6, lr}
    9068:	e1a04000 	mov	r4, r0
    906c:	e1a05001 	mov	r5, r1
    9070:	e3510007 	cmp	r1, #7
    9074:	9350001f 	cmpls	r0, #31
    9078:	88bd8070 	pophi	{r4, r5, r6, pc}
    907c:	e59f30b0 	ldr	r3, [pc, #176]	; 9134 <gpio_set_function+0xd0>
    9080:	e0832093 	umull	r2, r3, r3, r0
    9084:	e1a031a3 	lsr	r3, r3, #3
    9088:	e3530005 	cmp	r3, #5
    908c:	979ff103 	ldrls	pc, [pc, r3, lsl #2]
    9090:	ea000017 	b	90f4 <gpio_set_function+0x90>
    9094:	000090ac 	andeq	r9, r0, ip, lsr #1
    9098:	000090b8 	strheq	r9, [r0], -r8
    909c:	000090c4 	andeq	r9, r0, r4, asr #1
    90a0:	000090d0 	ldrdeq	r9, [r0], -r0
    90a4:	000090dc 	ldrdeq	r9, [r0], -ip
    90a8:	000090e8 	andeq	r9, r0, r8, ror #1
    90ac:	e59f3084 	ldr	r3, [pc, #132]	; 9138 <gpio_set_function+0xd4>
    90b0:	e5936000 	ldr	r6, [r3]
    90b4:	ea00000f 	b	90f8 <gpio_set_function+0x94>
    90b8:	e59f3078 	ldr	r3, [pc, #120]	; 9138 <gpio_set_function+0xd4>
    90bc:	e5936004 	ldr	r6, [r3, #4]
    90c0:	ea00000c 	b	90f8 <gpio_set_function+0x94>
    90c4:	e59f306c 	ldr	r3, [pc, #108]	; 9138 <gpio_set_function+0xd4>
    90c8:	e5936008 	ldr	r6, [r3, #8]
    90cc:	ea000009 	b	90f8 <gpio_set_function+0x94>
    90d0:	e59f3060 	ldr	r3, [pc, #96]	; 9138 <gpio_set_function+0xd4>
    90d4:	e593600c 	ldr	r6, [r3, #12]
    90d8:	ea000006 	b	90f8 <gpio_set_function+0x94>
    90dc:	e59f3054 	ldr	r3, [pc, #84]	; 9138 <gpio_set_function+0xd4>
    90e0:	e5936010 	ldr	r6, [r3, #16]
    90e4:	ea000003 	b	90f8 <gpio_set_function+0x94>
    90e8:	e59f3048 	ldr	r3, [pc, #72]	; 9138 <gpio_set_function+0xd4>
    90ec:	e5936014 	ldr	r6, [r3, #20]
    90f0:	ea000000 	b	90f8 <gpio_set_function+0x94>
    90f4:	e3a06000 	mov	r6, #0
    90f8:	e1a00006 	mov	r0, r6
    90fc:	eb0002a1 	bl	9b88 <get32>
    9100:	e59f302c 	ldr	r3, [pc, #44]	; 9134 <gpio_set_function+0xd0>
    9104:	e0832493 	umull	r2, r3, r3, r4
    9108:	e1a031a3 	lsr	r3, r3, #3
    910c:	e0833103 	add	r3, r3, r3, lsl #2
    9110:	e1a03083 	lsl	r3, r3, #1
    9114:	e0633004 	rsb	r3, r3, r4
    9118:	e0833083 	add	r3, r3, r3, lsl #1
    911c:	e3a01007 	mov	r1, #7
    9120:	e1c01311 	bic	r1, r0, r1, lsl r3
    9124:	e1a00006 	mov	r0, r6
    9128:	e1811315 	orr	r1, r1, r5, lsl r3
    912c:	eb000289 	bl	9b58 <put32>
    9130:	e8bd8070 	pop	{r4, r5, r6, pc}
    9134:	cccccccd 	stclgt	12, cr12, [ip], {205}	; 0xcd
    9138:	00009c1c 	andeq	r9, r0, ip, lsl ip

0000913c <gpio_toggle>:
    913c:	e92d4008 	push	{r3, lr}
    9140:	e350001f 	cmp	r0, #31
    9144:	88bd8008 	pophi	{r3, pc}
    9148:	959f3020 	ldrls	r3, [pc, #32]	; 9170 <gpio_toggle+0x34>
    914c:	95932018 	ldrls	r2, [r3, #24]
    9150:	859f3018 	ldrhi	r3, [pc, #24]	; 9170 <gpio_toggle+0x34>
    9154:	8593201c 	ldrhi	r2, [r3, #28]
    9158:	e200301f 	and	r3, r0, #31
    915c:	e1a00002 	mov	r0, r2
    9160:	e3a01001 	mov	r1, #1
    9164:	e1a01311 	lsl	r1, r1, r3
    9168:	eb00027a 	bl	9b58 <put32>
    916c:	e8bd8008 	pop	{r3, pc}
    9170:	00009c1c 	andeq	r9, r0, ip, lsl ip

00009174 <is_gpio_int>:
    9174:	e92d4008 	push	{r3, lr}
    9178:	e59f301c 	ldr	r3, [pc, #28]	; 919c <is_gpio_int+0x28>
    917c:	e5930030 	ldr	r0, [r3, #48]	; 0x30
    9180:	eb000280 	bl	9b88 <get32>
    9184:	e3500000 	cmp	r0, #0
    9188:	0a000001 	beq	9194 <is_gpio_int+0x20>
    918c:	e3a00001 	mov	r0, #1
    9190:	e8bd8008 	pop	{r3, pc}
    9194:	e3a00000 	mov	r0, #0
    9198:	e8bd8008 	pop	{r3, pc}
    919c:	00009c1c 	andeq	r9, r0, ip, lsl ip

000091a0 <gpio_int_rising_edge>:
    91a0:	e92d4038 	push	{r3, r4, r5, lr}
    91a4:	e1a04000 	mov	r4, r0
    91a8:	e350001f 	cmp	r0, #31
    91ac:	88bd8038 	pophi	{r3, r4, r5, pc}
    91b0:	eb000262 	bl	9b40 <dev_barrier>
    91b4:	e354001f 	cmp	r4, #31
    91b8:	8a000007 	bhi	91dc <gpio_int_rising_edge+0x3c>
    91bc:	e59f505c 	ldr	r5, [pc, #92]	; 9220 <gpio_int_rising_edge+0x80>
    91c0:	e5950034 	ldr	r0, [r5, #52]	; 0x34
    91c4:	eb00026f 	bl	9b88 <get32>
    91c8:	e3a01001 	mov	r1, #1
    91cc:	e1801411 	orr	r1, r0, r1, lsl r4
    91d0:	e5950034 	ldr	r0, [r5, #52]	; 0x34
    91d4:	eb00025f 	bl	9b58 <put32>
    91d8:	ea000007 	b	91fc <gpio_int_rising_edge+0x5c>
    91dc:	e59f503c 	ldr	r5, [pc, #60]	; 9220 <gpio_int_rising_edge+0x80>
    91e0:	e5950038 	ldr	r0, [r5, #56]	; 0x38
    91e4:	eb000267 	bl	9b88 <get32>
    91e8:	e204401f 	and	r4, r4, #31
    91ec:	e3a01001 	mov	r1, #1
    91f0:	e1801411 	orr	r1, r0, r1, lsl r4
    91f4:	e5950038 	ldr	r0, [r5, #56]	; 0x38
    91f8:	eb000256 	bl	9b58 <put32>
    91fc:	eb00024f 	bl	9b40 <dev_barrier>
    9200:	e59f4018 	ldr	r4, [pc, #24]	; 9220 <gpio_int_rising_edge+0x80>
    9204:	e594003c 	ldr	r0, [r4, #60]	; 0x3c
    9208:	eb00025e 	bl	9b88 <get32>
    920c:	e3801802 	orr	r1, r0, #131072	; 0x20000
    9210:	e594003c 	ldr	r0, [r4, #60]	; 0x3c
    9214:	eb00024f 	bl	9b58 <put32>
    9218:	eb000248 	bl	9b40 <dev_barrier>
    921c:	e8bd8038 	pop	{r3, r4, r5, pc}
    9220:	00009c1c 	andeq	r9, r0, ip, lsl ip

00009224 <gpio_int_falling_edge>:
    9224:	e92d4038 	push	{r3, r4, r5, lr}
    9228:	e1a04000 	mov	r4, r0
    922c:	e350001f 	cmp	r0, #31
    9230:	88bd8038 	pophi	{r3, r4, r5, pc}
    9234:	eb000241 	bl	9b40 <dev_barrier>
    9238:	e354001f 	cmp	r4, #31
    923c:	8a000007 	bhi	9260 <gpio_int_falling_edge+0x3c>
    9240:	e59f505c 	ldr	r5, [pc, #92]	; 92a4 <gpio_int_falling_edge+0x80>
    9244:	e5950040 	ldr	r0, [r5, #64]	; 0x40
    9248:	eb00024e 	bl	9b88 <get32>
    924c:	e3a01001 	mov	r1, #1
    9250:	e1801411 	orr	r1, r0, r1, lsl r4
    9254:	e5950040 	ldr	r0, [r5, #64]	; 0x40
    9258:	eb00023e 	bl	9b58 <put32>
    925c:	ea000007 	b	9280 <gpio_int_falling_edge+0x5c>
    9260:	e59f503c 	ldr	r5, [pc, #60]	; 92a4 <gpio_int_falling_edge+0x80>
    9264:	e5950044 	ldr	r0, [r5, #68]	; 0x44
    9268:	eb000246 	bl	9b88 <get32>
    926c:	e204401f 	and	r4, r4, #31
    9270:	e3a01001 	mov	r1, #1
    9274:	e1801411 	orr	r1, r0, r1, lsl r4
    9278:	e5950044 	ldr	r0, [r5, #68]	; 0x44
    927c:	eb000235 	bl	9b58 <put32>
    9280:	eb00022e 	bl	9b40 <dev_barrier>
    9284:	e59f4018 	ldr	r4, [pc, #24]	; 92a4 <gpio_int_falling_edge+0x80>
    9288:	e594003c 	ldr	r0, [r4, #60]	; 0x3c
    928c:	eb00023d 	bl	9b88 <get32>
    9290:	e3801601 	orr	r1, r0, #1048576	; 0x100000
    9294:	e594003c 	ldr	r0, [r4, #60]	; 0x3c
    9298:	eb00022e 	bl	9b58 <put32>
    929c:	eb000227 	bl	9b40 <dev_barrier>
    92a0:	e8bd8038 	pop	{r3, r4, r5, pc}
    92a4:	00009c1c 	andeq	r9, r0, ip, lsl ip

000092a8 <gpio_event_detected>:
    92a8:	e92d4010 	push	{r4, lr}
    92ac:	e1a04000 	mov	r4, r0
    92b0:	e350001f 	cmp	r0, #31
    92b4:	8a000019 	bhi	9320 <gpio_event_detected+0x78>
    92b8:	eb000220 	bl	9b40 <dev_barrier>
    92bc:	e354001f 	cmp	r4, #31
    92c0:	8a000008 	bhi	92e8 <gpio_event_detected+0x40>
    92c4:	e59f305c 	ldr	r3, [pc, #92]	; 9328 <gpio_event_detected+0x80>
    92c8:	e5930048 	ldr	r0, [r3, #72]	; 0x48
    92cc:	eb00022d 	bl	9b88 <get32>
    92d0:	e3a03001 	mov	r3, #1
    92d4:	e0103413 	ands	r3, r0, r3, lsl r4
    92d8:	0a00000d 	beq	9314 <gpio_event_detected+0x6c>
    92dc:	eb000217 	bl	9b40 <dev_barrier>
    92e0:	e3a00001 	mov	r0, #1
    92e4:	e8bd8010 	pop	{r4, pc}
    92e8:	e59f3038 	ldr	r3, [pc, #56]	; 9328 <gpio_event_detected+0x80>
    92ec:	e593004c 	ldr	r0, [r3, #76]	; 0x4c
    92f0:	eb000224 	bl	9b88 <get32>
    92f4:	e3a03001 	mov	r3, #1
    92f8:	e0004413 	and	r4, r0, r3, lsl r4
    92fc:	eb00020f 	bl	9b40 <dev_barrier>
    9300:	e3540000 	cmp	r4, #0
    9304:	0a000002 	beq	9314 <gpio_event_detected+0x6c>
    9308:	eb00020c 	bl	9b40 <dev_barrier>
    930c:	e3a00001 	mov	r0, #1
    9310:	e8bd8010 	pop	{r4, pc}
    9314:	eb000209 	bl	9b40 <dev_barrier>
    9318:	e3a00000 	mov	r0, #0
    931c:	e8bd8010 	pop	{r4, pc}
    9320:	e3e00000 	mvn	r0, #0
    9324:	e8bd8010 	pop	{r4, pc}
    9328:	00009c1c 	andeq	r9, r0, ip, lsl ip

0000932c <gpio_event_clear>:
    932c:	e92d4010 	push	{r4, lr}
    9330:	e1a04000 	mov	r4, r0
    9334:	e350001f 	cmp	r0, #31
    9338:	88bd8010 	pophi	{r4, pc}
    933c:	eb0001ff 	bl	9b40 <dev_barrier>
    9340:	e354001f 	cmp	r4, #31
    9344:	8a000005 	bhi	9360 <gpio_event_clear+0x34>
    9348:	e59f3030 	ldr	r3, [pc, #48]	; 9380 <gpio_event_clear+0x54>
    934c:	e5930048 	ldr	r0, [r3, #72]	; 0x48
    9350:	e3a01001 	mov	r1, #1
    9354:	e1a01411 	lsl	r1, r1, r4
    9358:	eb0001fe 	bl	9b58 <put32>
    935c:	ea000005 	b	9378 <gpio_event_clear+0x4c>
    9360:	e204401f 	and	r4, r4, #31
    9364:	e59f3014 	ldr	r3, [pc, #20]	; 9380 <gpio_event_clear+0x54>
    9368:	e593004c 	ldr	r0, [r3, #76]	; 0x4c
    936c:	e3a01001 	mov	r1, #1
    9370:	e1a01411 	lsl	r1, r1, r4
    9374:	eb0001f7 	bl	9b58 <put32>
    9378:	eb0001f0 	bl	9b40 <dev_barrier>
    937c:	e8bd8010 	pop	{r4, pc}
    9380:	00009c1c 	andeq	r9, r0, ip, lsl ip

00009384 <sw_uart_putc>:
    9384:	e92d41f0 	push	{r4, r5, r6, r7, r8, lr}
    9388:	e1a07001 	mov	r7, r1
    938c:	e5d06000 	ldrb	r6, [r0]
    9390:	e5905008 	ldr	r5, [r0, #8]
    9394:	ee1f4f3c 	mrc	15, 0, r4, cr15, cr12, {1}
    9398:	e1a00006 	mov	r0, r6
    939c:	e3a01000 	mov	r1, #0
    93a0:	ebffff26 	bl	9040 <gpio_write>
    93a4:	ee1f3f3c 	mrc	15, 0, r3, cr15, cr12, {1}
    93a8:	e0643003 	rsb	r3, r4, r3
    93ac:	e1550003 	cmp	r5, r3
    93b0:	8afffffb 	bhi	93a4 <sw_uart_putc+0x20>
    93b4:	e1a08085 	lsl	r8, r5, #1
    93b8:	e1a00006 	mov	r0, r6
    93bc:	e2071001 	and	r1, r7, #1
    93c0:	ebffff1e 	bl	9040 <gpio_write>
    93c4:	ee1f3f3c 	mrc	15, 0, r3, cr15, cr12, {1}
    93c8:	e0643003 	rsb	r3, r4, r3
    93cc:	e1580003 	cmp	r8, r3
    93d0:	8afffffb 	bhi	93c4 <sw_uart_putc+0x40>
    93d4:	e0888005 	add	r8, r8, r5
    93d8:	e1a00006 	mov	r0, r6
    93dc:	e2071002 	and	r1, r7, #2
    93e0:	ebffff16 	bl	9040 <gpio_write>
    93e4:	ee1f3f3c 	mrc	15, 0, r3, cr15, cr12, {1}
    93e8:	e0643003 	rsb	r3, r4, r3
    93ec:	e1580003 	cmp	r8, r3
    93f0:	8afffffb 	bhi	93e4 <sw_uart_putc+0x60>
    93f4:	e0888005 	add	r8, r8, r5
    93f8:	e1a00006 	mov	r0, r6
    93fc:	e2071004 	and	r1, r7, #4
    9400:	ebffff0e 	bl	9040 <gpio_write>
    9404:	ee1f3f3c 	mrc	15, 0, r3, cr15, cr12, {1}
    9408:	e0643003 	rsb	r3, r4, r3
    940c:	e1580003 	cmp	r8, r3
    9410:	8afffffb 	bhi	9404 <sw_uart_putc+0x80>
    9414:	e0888005 	add	r8, r8, r5
    9418:	e1a00006 	mov	r0, r6
    941c:	e2071008 	and	r1, r7, #8
    9420:	ebffff06 	bl	9040 <gpio_write>
    9424:	ee1f3f3c 	mrc	15, 0, r3, cr15, cr12, {1}
    9428:	e0643003 	rsb	r3, r4, r3
    942c:	e1580003 	cmp	r8, r3
    9430:	8afffffb 	bhi	9424 <sw_uart_putc+0xa0>
    9434:	e0888005 	add	r8, r8, r5
    9438:	e1a00006 	mov	r0, r6
    943c:	e2071010 	and	r1, r7, #16
    9440:	ebfffefe 	bl	9040 <gpio_write>
    9444:	ee1f3f3c 	mrc	15, 0, r3, cr15, cr12, {1}
    9448:	e0643003 	rsb	r3, r4, r3
    944c:	e1580003 	cmp	r8, r3
    9450:	8afffffb 	bhi	9444 <sw_uart_putc+0xc0>
    9454:	e0888005 	add	r8, r8, r5
    9458:	e1a00006 	mov	r0, r6
    945c:	e2071020 	and	r1, r7, #32
    9460:	ebfffef6 	bl	9040 <gpio_write>
    9464:	ee1f3f3c 	mrc	15, 0, r3, cr15, cr12, {1}
    9468:	e0643003 	rsb	r3, r4, r3
    946c:	e1580003 	cmp	r8, r3
    9470:	8afffffb 	bhi	9464 <sw_uart_putc+0xe0>
    9474:	e0888005 	add	r8, r8, r5
    9478:	e1a00006 	mov	r0, r6
    947c:	e2071040 	and	r1, r7, #64	; 0x40
    9480:	ebfffeee 	bl	9040 <gpio_write>
    9484:	ee1f3f3c 	mrc	15, 0, r3, cr15, cr12, {1}
    9488:	e0643003 	rsb	r3, r4, r3
    948c:	e1580003 	cmp	r8, r3
    9490:	8afffffb 	bhi	9484 <sw_uart_putc+0x100>
    9494:	e0888005 	add	r8, r8, r5
    9498:	e1a00006 	mov	r0, r6
    949c:	e2071080 	and	r1, r7, #128	; 0x80
    94a0:	ebfffee6 	bl	9040 <gpio_write>
    94a4:	ee1f3f3c 	mrc	15, 0, r3, cr15, cr12, {1}
    94a8:	e0643003 	rsb	r3, r4, r3
    94ac:	e1580003 	cmp	r8, r3
    94b0:	8afffffb 	bhi	94a4 <sw_uart_putc+0x120>
    94b4:	e0885005 	add	r5, r8, r5
    94b8:	e1a00006 	mov	r0, r6
    94bc:	e3a01001 	mov	r1, #1
    94c0:	ebfffede 	bl	9040 <gpio_write>
    94c4:	ee1f3f3c 	mrc	15, 0, r3, cr15, cr12, {1}
    94c8:	e0643003 	rsb	r3, r4, r3
    94cc:	e1550003 	cmp	r5, r3
    94d0:	8afffffb 	bhi	94c4 <sw_uart_putc+0x140>
    94d4:	e8bd81f0 	pop	{r4, r5, r6, r7, r8, pc}

000094d8 <sw_uart_getc_timeout>:
    94d8:	e92d43f8 	push	{r3, r4, r5, r6, r7, r8, r9, lr}
    94dc:	e1a09000 	mov	r9, r0
    94e0:	e5d07001 	ldrb	r7, [r0, #1]
    94e4:	e1a05007 	mov	r5, r7
    94e8:	e1a06001 	mov	r6, r1
    94ec:	ebfffe21 	bl	8d78 <timer_get_usec_raw>
    94f0:	e1a04000 	mov	r4, r0
    94f4:	e1a00005 	mov	r0, r5
    94f8:	ebfffebd 	bl	8ff4 <gpio_read>
    94fc:	e3500000 	cmp	r0, #0
    9500:	0a000005 	beq	951c <sw_uart_getc_timeout+0x44>
    9504:	ebfffe1b 	bl	8d78 <timer_get_usec_raw>
    9508:	e0640000 	rsb	r0, r4, r0
    950c:	e1560000 	cmp	r6, r0
    9510:	2afffff7 	bcs	94f4 <sw_uart_getc_timeout+0x1c>
    9514:	e3a03000 	mov	r3, #0
    9518:	ea000000 	b	9520 <sw_uart_getc_timeout+0x48>
    951c:	e3a03001 	mov	r3, #1
    9520:	e3530000 	cmp	r3, #0
    9524:	0a000059 	beq	9690 <sw_uart_getc_timeout+0x1b8>
    9528:	ee1f8f3c 	mrc	15, 0, r8, cr15, cr12, {1}
    952c:	e5994008 	ldr	r4, [r9, #8]
    9530:	e08420a4 	add	r2, r4, r4, lsr #1
    9534:	ee1f3f3c 	mrc	15, 0, r3, cr15, cr12, {1}
    9538:	e0683003 	rsb	r3, r8, r3
    953c:	e1520003 	cmp	r2, r3
    9540:	8afffffb 	bhi	9534 <sw_uart_getc_timeout+0x5c>
    9544:	e0888004 	add	r8, r8, r4
    9548:	e1a00007 	mov	r0, r7
    954c:	ebfffea8 	bl	8ff4 <gpio_read>
    9550:	e1a09750 	asr	r9, r0, r7
    9554:	ee1f3f3c 	mrc	15, 0, r3, cr15, cr12, {1}
    9558:	e0683003 	rsb	r3, r8, r3
    955c:	e1540003 	cmp	r4, r3
    9560:	8afffffb 	bhi	9554 <sw_uart_getc_timeout+0x7c>
    9564:	e0888004 	add	r8, r8, r4
    9568:	e1a00007 	mov	r0, r7
    956c:	ebfffea0 	bl	8ff4 <gpio_read>
    9570:	e1a00750 	asr	r0, r0, r7
    9574:	e1899080 	orr	r9, r9, r0, lsl #1
    9578:	ee1f3f3c 	mrc	15, 0, r3, cr15, cr12, {1}
    957c:	e0683003 	rsb	r3, r8, r3
    9580:	e1540003 	cmp	r4, r3
    9584:	8afffffb 	bhi	9578 <sw_uart_getc_timeout+0xa0>
    9588:	e0888004 	add	r8, r8, r4
    958c:	e1a00007 	mov	r0, r7
    9590:	ebfffe97 	bl	8ff4 <gpio_read>
    9594:	e1a00750 	asr	r0, r0, r7
    9598:	e1899100 	orr	r9, r9, r0, lsl #2
    959c:	ee1f3f3c 	mrc	15, 0, r3, cr15, cr12, {1}
    95a0:	e0683003 	rsb	r3, r8, r3
    95a4:	e1540003 	cmp	r4, r3
    95a8:	8afffffb 	bhi	959c <sw_uart_getc_timeout+0xc4>
    95ac:	e0888004 	add	r8, r8, r4
    95b0:	e1a00007 	mov	r0, r7
    95b4:	ebfffe8e 	bl	8ff4 <gpio_read>
    95b8:	e1a00750 	asr	r0, r0, r7
    95bc:	e1899180 	orr	r9, r9, r0, lsl #3
    95c0:	ee1f3f3c 	mrc	15, 0, r3, cr15, cr12, {1}
    95c4:	e0683003 	rsb	r3, r8, r3
    95c8:	e1540003 	cmp	r4, r3
    95cc:	8afffffb 	bhi	95c0 <sw_uart_getc_timeout+0xe8>
    95d0:	e0888004 	add	r8, r8, r4
    95d4:	e1a00007 	mov	r0, r7
    95d8:	ebfffe85 	bl	8ff4 <gpio_read>
    95dc:	e1a00750 	asr	r0, r0, r7
    95e0:	e1899200 	orr	r9, r9, r0, lsl #4
    95e4:	ee1f3f3c 	mrc	15, 0, r3, cr15, cr12, {1}
    95e8:	e0683003 	rsb	r3, r8, r3
    95ec:	e1540003 	cmp	r4, r3
    95f0:	8afffffb 	bhi	95e4 <sw_uart_getc_timeout+0x10c>
    95f4:	e0888004 	add	r8, r8, r4
    95f8:	e1a00007 	mov	r0, r7
    95fc:	ebfffe7c 	bl	8ff4 <gpio_read>
    9600:	e1a00750 	asr	r0, r0, r7
    9604:	e1899280 	orr	r9, r9, r0, lsl #5
    9608:	ee1f3f3c 	mrc	15, 0, r3, cr15, cr12, {1}
    960c:	e0683003 	rsb	r3, r8, r3
    9610:	e1540003 	cmp	r4, r3
    9614:	8afffffb 	bhi	9608 <sw_uart_getc_timeout+0x130>
    9618:	e0888004 	add	r8, r8, r4
    961c:	e1a00007 	mov	r0, r7
    9620:	ebfffe73 	bl	8ff4 <gpio_read>
    9624:	e1a00750 	asr	r0, r0, r7
    9628:	e1899300 	orr	r9, r9, r0, lsl #6
    962c:	ee1f3f3c 	mrc	15, 0, r3, cr15, cr12, {1}
    9630:	e0683003 	rsb	r3, r8, r3
    9634:	e1540003 	cmp	r4, r3
    9638:	8afffffb 	bhi	962c <sw_uart_getc_timeout+0x154>
    963c:	e1a00007 	mov	r0, r7
    9640:	ebfffe6b 	bl	8ff4 <gpio_read>
    9644:	e1a00750 	asr	r0, r0, r7
    9648:	e1899380 	orr	r9, r9, r0, lsl #7
    964c:	ebfffdc9 	bl	8d78 <timer_get_usec_raw>
    9650:	e1a04000 	mov	r4, r0
    9654:	e1a00005 	mov	r0, r5
    9658:	ebfffe65 	bl	8ff4 <gpio_read>
    965c:	e3500000 	cmp	r0, #0
    9660:	0a000005 	beq	967c <sw_uart_getc_timeout+0x1a4>
    9664:	ebfffdc3 	bl	8d78 <timer_get_usec_raw>
    9668:	e0640000 	rsb	r0, r4, r0
    966c:	e1560000 	cmp	r6, r0
    9670:	2afffff7 	bcs	9654 <sw_uart_getc_timeout+0x17c>
    9674:	e3a03000 	mov	r3, #0
    9678:	ea000000 	b	9680 <sw_uart_getc_timeout+0x1a8>
    967c:	e3a03001 	mov	r3, #1
    9680:	e3530000 	cmp	r3, #0
    9684:	0a000003 	beq	9698 <sw_uart_getc_timeout+0x1c0>
    9688:	e1a00009 	mov	r0, r9
    968c:	e8bd83f8 	pop	{r3, r4, r5, r6, r7, r8, r9, pc}
    9690:	e3e00000 	mvn	r0, #0
    9694:	e8bd83f8 	pop	{r3, r4, r5, r6, r7, r8, r9, pc}
    9698:	e3e00000 	mvn	r0, #0
    969c:	e8bd83f8 	pop	{r3, r4, r5, r6, r7, r8, r9, pc}

000096a0 <sw_uart_gets_until>:
    96a0:	e92d47f0 	push	{r4, r5, r6, r7, r8, r9, sl, lr}
    96a4:	e24dd008 	sub	sp, sp, #8
    96a8:	e1a08000 	mov	r8, r0
    96ac:	e1a06001 	mov	r6, r1
    96b0:	e1a09003 	mov	r9, r3
    96b4:	e59da028 	ldr	sl, [sp, #40]	; 0x28
    96b8:	e3520000 	cmp	r2, #0
    96bc:	1a000008 	bne	96e4 <sw_uart_gets_until+0x44>
    96c0:	ebfffbea 	bl	8670 <rpi_reset_putc>
    96c4:	e59f3068 	ldr	r3, [pc, #104]	; 9734 <sw_uart_gets_until+0x94>
    96c8:	e58d3000 	str	r3, [sp]
    96cc:	e59f0064 	ldr	r0, [pc, #100]	; 9738 <sw_uart_gets_until+0x98>
    96d0:	e59f1064 	ldr	r1, [pc, #100]	; 973c <sw_uart_gets_until+0x9c>
    96d4:	e59f2064 	ldr	r2, [pc, #100]	; 9740 <sw_uart_gets_until+0xa0>
    96d8:	e3a0306d 	mov	r3, #109	; 0x6d
    96dc:	ebfffbc8 	bl	8604 <printk>
    96e0:	ebfffd4a 	bl	8c10 <clean_reboot>
    96e4:	e3a04000 	mov	r4, #0
    96e8:	e5c14000 	strb	r4, [r1]
    96ec:	e2427001 	sub	r7, r2, #1
    96f0:	ea000007 	b	9714 <sw_uart_gets_until+0x74>
    96f4:	e1a00008 	mov	r0, r8
    96f8:	e1a0100a 	mov	r1, sl
    96fc:	ebffff75 	bl	94d8 <sw_uart_getc_timeout>
    9700:	e6ef0070 	uxtb	r0, r0
    9704:	e1500009 	cmp	r0, r9
    9708:	0a000004 	beq	9720 <sw_uart_gets_until+0x80>
    970c:	e7c60005 	strb	r0, [r6, r5]
    9710:	e2844001 	add	r4, r4, #1
    9714:	e1a05004 	mov	r5, r4
    9718:	e1540007 	cmp	r4, r7
    971c:	3afffff4 	bcc	96f4 <sw_uart_gets_until+0x54>
    9720:	e3a03000 	mov	r3, #0
    9724:	e7c63005 	strb	r3, [r6, r5]
    9728:	e1a00004 	mov	r0, r4
    972c:	e28dd008 	add	sp, sp, #8
    9730:	e8bd87f0 	pop	{r4, r5, r6, r7, r8, r9, sl, pc}
    9734:	00009ef8 	strdeq	r9, [r0], -r8
    9738:	00009d6c 	andeq	r9, r0, ip, ror #26
    973c:	00009ee4 	andeq	r9, r0, r4, ror #29
    9740:	00009e6c 	andeq	r9, r0, ip, ror #28

00009744 <sw_uart_gets_timeout>:
    9744:	e92d41f0 	push	{r4, r5, r6, r7, r8, lr}
    9748:	e24dd008 	sub	sp, sp, #8
    974c:	e1a07000 	mov	r7, r0
    9750:	e1a05001 	mov	r5, r1
    9754:	e1a08003 	mov	r8, r3
    9758:	e3520000 	cmp	r2, #0
    975c:	1a000008 	bne	9784 <sw_uart_gets_timeout+0x40>
    9760:	ebfffbc2 	bl	8670 <rpi_reset_putc>
    9764:	e59f3058 	ldr	r3, [pc, #88]	; 97c4 <sw_uart_gets_timeout+0x80>
    9768:	e58d3000 	str	r3, [sp]
    976c:	e59f0054 	ldr	r0, [pc, #84]	; 97c8 <sw_uart_gets_timeout+0x84>
    9770:	e59f1054 	ldr	r1, [pc, #84]	; 97cc <sw_uart_gets_timeout+0x88>
    9774:	e59f2054 	ldr	r2, [pc, #84]	; 97d0 <sw_uart_gets_timeout+0x8c>
    9778:	e3a03083 	mov	r3, #131	; 0x83
    977c:	ebfffba0 	bl	8604 <printk>
    9780:	ebfffd22 	bl	8c10 <clean_reboot>
    9784:	e3a04000 	mov	r4, #0
    9788:	e5c14000 	strb	r4, [r1]
    978c:	e2426001 	sub	r6, r2, #1
    9790:	ea000004 	b	97a8 <sw_uart_gets_timeout+0x64>
    9794:	e1a00007 	mov	r0, r7
    9798:	e1a01008 	mov	r1, r8
    979c:	ebffff4d 	bl	94d8 <sw_uart_getc_timeout>
    97a0:	e7c50004 	strb	r0, [r5, r4]
    97a4:	e2844001 	add	r4, r4, #1
    97a8:	e1540006 	cmp	r4, r6
    97ac:	3afffff8 	bcc	9794 <sw_uart_gets_timeout+0x50>
    97b0:	e3a03000 	mov	r3, #0
    97b4:	e7c53004 	strb	r3, [r5, r4]
    97b8:	e1a00004 	mov	r0, r4
    97bc:	e28dd008 	add	sp, sp, #8
    97c0:	e8bd81f0 	pop	{r4, r5, r6, r7, r8, pc}
    97c4:	00009ef8 	strdeq	r9, [r0], -r8
    97c8:	00009d6c 	andeq	r9, r0, ip, ror #26
    97cc:	00009ee4 	andeq	r9, r0, r4, ror #29
    97d0:	00009e80 	andeq	r9, r0, r0, lsl #29

000097d4 <sw_uart_init_helper>:
    97d4:	e92d41f0 	push	{r4, r5, r6, r7, r8, lr}
    97d8:	e24dd008 	sub	sp, sp, #8
    97dc:	e1a04000 	mov	r4, r0
    97e0:	e1a06001 	mov	r6, r1
    97e4:	e1a08002 	mov	r8, r2
    97e8:	e1a05003 	mov	r5, r3
    97ec:	e59d7020 	ldr	r7, [sp, #32]
    97f0:	e1a00001 	mov	r0, r1
    97f4:	ebfffd7a 	bl	8de4 <gpio_set_output>
    97f8:	e1a00008 	mov	r0, r8
    97fc:	ebfffdc9 	bl	8f28 <gpio_set_input>
    9800:	e3a03001 	mov	r3, #1
    9804:	ee0f3f1c 	mcr	15, 0, r3, cr15, cr12, {0}
    9808:	e1a00006 	mov	r0, r6
    980c:	e3a01001 	mov	r1, #1
    9810:	ebfffe0a 	bl	9040 <gpio_write>
    9814:	e0020795 	mul	r2, r5, r7
    9818:	e59f3074 	ldr	r3, [pc, #116]	; 9894 <sw_uart_init_helper+0xc0>
    981c:	e0653003 	rsb	r3, r5, r3
    9820:	e1530002 	cmp	r3, r2
    9824:	8a000005 	bhi	9840 <sw_uart_init_helper+0x6c>
    9828:	e59f3064 	ldr	r3, [pc, #100]	; 9894 <sw_uart_init_helper+0xc0>
    982c:	e0853003 	add	r3, r5, r3
    9830:	e1530002 	cmp	r3, r2
    9834:	2a000003 	bcs	9848 <sw_uart_init_helper+0x74>
    9838:	e3a03000 	mov	r3, #0
    983c:	ea000002 	b	984c <sw_uart_init_helper+0x78>
    9840:	e3a03000 	mov	r3, #0
    9844:	ea000000 	b	984c <sw_uart_init_helper+0x78>
    9848:	e3a03001 	mov	r3, #1
    984c:	e3530000 	cmp	r3, #0
    9850:	1a000008 	bne	9878 <sw_uart_init_helper+0xa4>
    9854:	ebfffb85 	bl	8670 <rpi_reset_putc>
    9858:	e59f3038 	ldr	r3, [pc, #56]	; 9898 <sw_uart_init_helper+0xc4>
    985c:	e58d3000 	str	r3, [sp]
    9860:	e59f0034 	ldr	r0, [pc, #52]	; 989c <sw_uart_init_helper+0xc8>
    9864:	e59f1034 	ldr	r1, [pc, #52]	; 98a0 <sw_uart_init_helper+0xcc>
    9868:	e59f2034 	ldr	r2, [pc, #52]	; 98a4 <sw_uart_init_helper+0xd0>
    986c:	e3a0309d 	mov	r3, #157	; 0x9d
    9870:	ebfffb63 	bl	8604 <printk>
    9874:	ebfffce5 	bl	8c10 <clean_reboot>
    9878:	e5c46000 	strb	r6, [r4]
    987c:	e5c48001 	strb	r8, [r4, #1]
    9880:	e5845004 	str	r5, [r4, #4]
    9884:	e5847008 	str	r7, [r4, #8]
    9888:	e1a00004 	mov	r0, r4
    988c:	e28dd008 	add	sp, sp, #8
    9890:	e8bd81f0 	pop	{r4, r5, r6, r7, r8, pc}
    9894:	29b92700 	ldmibcs	r9!, {r8, r9, sl, sp}
    9898:	00009f04 	andeq	r9, r0, r4, lsl #30
    989c:	00009d6c 	andeq	r9, r0, ip, ror #26
    98a0:	00009ee4 	andeq	r9, r0, r4, ror #29
    98a4:	00009e98 	muleq	r0, r8, lr

000098a8 <sw_uart_getc>:
    98a8:	e92d4008 	push	{r3, lr}
    98ac:	e3e01000 	mvn	r1, #0
    98b0:	ebffff08 	bl	94d8 <sw_uart_getc_timeout>
    98b4:	e3500000 	cmp	r0, #0
    98b8:	a8bd8008 	popge	{r3, pc}
    98bc:	ebfffb6b 	bl	8670 <rpi_reset_putc>
    98c0:	e59f0010 	ldr	r0, [pc, #16]	; 98d8 <sw_uart_getc+0x30>
    98c4:	e59f1010 	ldr	r1, [pc, #16]	; 98dc <sw_uart_getc+0x34>
    98c8:	e59f2010 	ldr	r2, [pc, #16]	; 98e0 <sw_uart_getc+0x38>
    98cc:	e3a030ac 	mov	r3, #172	; 0xac
    98d0:	ebfffb4b 	bl	8604 <printk>
    98d4:	ebfffccd 	bl	8c10 <clean_reboot>
    98d8:	00009f38 	andeq	r9, r0, r8, lsr pc
    98dc:	00009ee4 	andeq	r9, r0, r4, ror #29
    98e0:	00009eac 	andeq	r9, r0, ip, lsr #29

000098e4 <sw_uart_putk>:
    98e4:	e92d4038 	push	{r3, r4, r5, lr}
    98e8:	e1a05000 	mov	r5, r0
    98ec:	e1a04001 	mov	r4, r1
    98f0:	ea000002 	b	9900 <sw_uart_putk+0x1c>
    98f4:	e1a00005 	mov	r0, r5
    98f8:	ebfffea1 	bl	9384 <sw_uart_putc>
    98fc:	e2844001 	add	r4, r4, #1
    9900:	e5d41000 	ldrb	r1, [r4]
    9904:	e3510000 	cmp	r1, #0
    9908:	1afffff9 	bne	98f4 <sw_uart_putk+0x10>
    990c:	e8bd8038 	pop	{r3, r4, r5, pc}

00009910 <sw_uart_printk>:
    9910:	e92d000e 	push	{r1, r2, r3}
    9914:	e92d4030 	push	{r4, r5, lr}
    9918:	e24ddf76 	sub	sp, sp, #472	; 0x1d8
    991c:	e1a05000 	mov	r5, r0
    9920:	e28d3f7a 	add	r3, sp, #488	; 0x1e8
    9924:	e58d3008 	str	r3, [sp, #8]
    9928:	e28d000c 	add	r0, sp, #12
    992c:	e3a01f73 	mov	r1, #460	; 0x1cc
    9930:	e59d21e4 	ldr	r2, [sp, #484]	; 0x1e4
    9934:	ebfffc08 	bl	895c <va_printk>
    9938:	e1a04000 	mov	r4, r0
    993c:	e59f3048 	ldr	r3, [pc, #72]	; 998c <sw_uart_printk+0x7c>
    9940:	e1500003 	cmp	r0, r3
    9944:	9a000008 	bls	996c <sw_uart_printk+0x5c>
    9948:	ebfffb48 	bl	8670 <rpi_reset_putc>
    994c:	e59f303c 	ldr	r3, [pc, #60]	; 9990 <sw_uart_printk+0x80>
    9950:	e58d3000 	str	r3, [sp]
    9954:	e59f0038 	ldr	r0, [pc, #56]	; 9994 <sw_uart_printk+0x84>
    9958:	e59f1038 	ldr	r1, [pc, #56]	; 9998 <sw_uart_printk+0x88>
    995c:	e59f2038 	ldr	r2, [pc, #56]	; 999c <sw_uart_printk+0x8c>
    9960:	e3a030c0 	mov	r3, #192	; 0xc0
    9964:	ebfffb26 	bl	8604 <printk>
    9968:	ebfffca8 	bl	8c10 <clean_reboot>
    996c:	e1a00005 	mov	r0, r5
    9970:	e28d100c 	add	r1, sp, #12
    9974:	ebffffda 	bl	98e4 <sw_uart_putk>
    9978:	e1a00004 	mov	r0, r4
    997c:	e28ddf76 	add	sp, sp, #472	; 0x1d8
    9980:	e8bd4030 	pop	{r4, r5, lr}
    9984:	e28dd00c 	add	sp, sp, #12
    9988:	e12fff1e 	bx	lr
    998c:	000001ca 	andeq	r0, r0, sl, asr #3
    9990:	00009f70 	andeq	r9, r0, r0, ror pc
    9994:	00009d6c 	andeq	r9, r0, ip, ror #26
    9998:	00009ee4 	andeq	r9, r0, r4, ror #29
    999c:	00009ebc 			; <UNDEFINED> instruction: 0x00009ebc

000099a0 <sw_uart_gets_until_blk>:
    99a0:	e52de004 	push	{lr}		; (str lr, [sp, #-4]!)
    99a4:	e24dd00c 	sub	sp, sp, #12
    99a8:	e3e0c000 	mvn	ip, #0
    99ac:	e58dc000 	str	ip, [sp]
    99b0:	ebffff3a 	bl	96a0 <sw_uart_gets_until>
    99b4:	e3500000 	cmp	r0, #0
    99b8:	aa000006 	bge	99d8 <sw_uart_gets_until_blk+0x38>
    99bc:	ebfffb2b 	bl	8670 <rpi_reset_putc>
    99c0:	e59f0018 	ldr	r0, [pc, #24]	; 99e0 <sw_uart_gets_until_blk+0x40>
    99c4:	e59f1018 	ldr	r1, [pc, #24]	; 99e4 <sw_uart_gets_until_blk+0x44>
    99c8:	e59f2018 	ldr	r2, [pc, #24]	; 99e8 <sw_uart_gets_until_blk+0x48>
    99cc:	e3a030c8 	mov	r3, #200	; 0xc8
    99d0:	ebfffb0b 	bl	8604 <printk>
    99d4:	ebfffc8d 	bl	8c10 <clean_reboot>
    99d8:	e28dd00c 	add	sp, sp, #12
    99dc:	e49df004 	pop	{pc}		; (ldr pc, [sp], #4)
    99e0:	00009f38 	andeq	r9, r0, r8, lsr pc
    99e4:	00009ee4 	andeq	r9, r0, r4, ror #29
    99e8:	00009ecc 	andeq	r9, r0, ip, asr #29

000099ec <uart_init>:
    99ec:	e92d4038 	push	{r3, r4, r5, lr}
    99f0:	eb000052 	bl	9b40 <dev_barrier>
    99f4:	e3a0000e 	mov	r0, #14
    99f8:	e3a01002 	mov	r1, #2
    99fc:	ebfffd98 	bl	9064 <gpio_set_function>
    9a00:	e3a0000f 	mov	r0, #15
    9a04:	e3a01002 	mov	r1, #2
    9a08:	ebfffd95 	bl	9064 <gpio_set_function>
    9a0c:	eb00004b 	bl	9b40 <dev_barrier>
    9a10:	e59f4068 	ldr	r4, [pc, #104]	; 9a80 <uart_init+0x94>
    9a14:	e5945000 	ldr	r5, [r4]
    9a18:	e1a00005 	mov	r0, r5
    9a1c:	eb000059 	bl	9b88 <get32>
    9a20:	e3801001 	orr	r1, r0, #1
    9a24:	e1a00005 	mov	r0, r5
    9a28:	eb00004a 	bl	9b58 <put32>
    9a2c:	eb000043 	bl	9b40 <dev_barrier>
    9a30:	e5940004 	ldr	r0, [r4, #4]
    9a34:	e3a01000 	mov	r1, #0
    9a38:	eb000046 	bl	9b58 <put32>
    9a3c:	e5940008 	ldr	r0, [r4, #8]
    9a40:	e3a01000 	mov	r1, #0
    9a44:	eb000043 	bl	9b58 <put32>
    9a48:	e594000c 	ldr	r0, [r4, #12]
    9a4c:	e3a01006 	mov	r1, #6
    9a50:	eb000040 	bl	9b58 <put32>
    9a54:	e5940010 	ldr	r0, [r4, #16]
    9a58:	e3a01003 	mov	r1, #3
    9a5c:	eb00003d 	bl	9b58 <put32>
    9a60:	e5940014 	ldr	r0, [r4, #20]
    9a64:	e59f1018 	ldr	r1, [pc, #24]	; 9a84 <uart_init+0x98>
    9a68:	eb00003a 	bl	9b58 <put32>
    9a6c:	e5940004 	ldr	r0, [r4, #4]
    9a70:	e3a01003 	mov	r1, #3
    9a74:	eb000037 	bl	9b58 <put32>
    9a78:	eb000030 	bl	9b40 <dev_barrier>
    9a7c:	e8bd8038 	pop	{r3, r4, r5, pc}
    9a80:	00009c7c 	andeq	r9, r0, ip, ror ip
    9a84:	0000010e 	andeq	r0, r0, lr, lsl #2

00009a88 <uart_can_getc>:
    9a88:	e92d4008 	push	{r3, lr}
    9a8c:	e59f300c 	ldr	r3, [pc, #12]	; 9aa0 <uart_can_getc+0x18>
    9a90:	e5930018 	ldr	r0, [r3, #24]
    9a94:	eb00003b 	bl	9b88 <get32>
    9a98:	e2000001 	and	r0, r0, #1
    9a9c:	e8bd8008 	pop	{r3, pc}
    9aa0:	00009c7c 	andeq	r9, r0, ip, ror ip

00009aa4 <uart_getc>:
    9aa4:	e92d4008 	push	{r3, lr}
    9aa8:	ebfffff6 	bl	9a88 <uart_can_getc>
    9aac:	e3500000 	cmp	r0, #0
    9ab0:	0afffffc 	beq	9aa8 <uart_getc+0x4>
    9ab4:	e59f300c 	ldr	r3, [pc, #12]	; 9ac8 <uart_getc+0x24>
    9ab8:	e593001c 	ldr	r0, [r3, #28]
    9abc:	eb000031 	bl	9b88 <get32>
    9ac0:	e6ef0070 	uxtb	r0, r0
    9ac4:	e8bd8008 	pop	{r3, pc}
    9ac8:	00009c7c 	andeq	r9, r0, ip, ror ip

00009acc <uart_can_putc>:
    9acc:	e92d4008 	push	{r3, lr}
    9ad0:	e59f300c 	ldr	r3, [pc, #12]	; 9ae4 <uart_can_putc+0x18>
    9ad4:	e5930018 	ldr	r0, [r3, #24]
    9ad8:	eb00002a 	bl	9b88 <get32>
    9adc:	e2000020 	and	r0, r0, #32
    9ae0:	e8bd8008 	pop	{r3, pc}
    9ae4:	00009c7c 	andeq	r9, r0, ip, ror ip

00009ae8 <uart_putc>:
    9ae8:	e92d4010 	push	{r4, lr}
    9aec:	e1a04000 	mov	r4, r0
    9af0:	ebfffff5 	bl	9acc <uart_can_putc>
    9af4:	e3500000 	cmp	r0, #0
    9af8:	0afffffc 	beq	9af0 <uart_putc+0x8>
    9afc:	e59f300c 	ldr	r3, [pc, #12]	; 9b10 <uart_putc+0x28>
    9b00:	e593001c 	ldr	r0, [r3, #28]
    9b04:	e1a01004 	mov	r1, r4
    9b08:	eb000012 	bl	9b58 <put32>
    9b0c:	e8bd8010 	pop	{r4, pc}
    9b10:	00009c7c 	andeq	r9, r0, ip, ror ip

00009b14 <uart_has_data>:
    9b14:	e92d4008 	push	{r3, lr}
    9b18:	ebffffda 	bl	9a88 <uart_can_getc>
    9b1c:	e8bd8008 	pop	{r3, pc}

00009b20 <uart_getc_async>:
    9b20:	e92d4008 	push	{r3, lr}
    9b24:	ebfffffa 	bl	9b14 <uart_has_data>
    9b28:	e3500000 	cmp	r0, #0
    9b2c:	0a000001 	beq	9b38 <uart_getc_async+0x18>
    9b30:	ebffffdb 	bl	9aa4 <uart_getc>
    9b34:	e8bd8008 	pop	{r3, pc}
    9b38:	e3e00000 	mvn	r0, #0
    9b3c:	e8bd8008 	pop	{r3, pc}

00009b40 <dev_barrier>:
    9b40:	ea000002 	b	9b50 <dsb>

00009b44 <dmb>:
    9b44:	e3a00000 	mov	r0, #0
    9b48:	ee070fba 	mcr	15, 0, r0, cr7, cr10, {5}
    9b4c:	e12fff1e 	bx	lr

00009b50 <dsb>:
    9b50:	ee070f9a 	mcr	15, 0, r0, cr7, cr10, {4}
    9b54:	e12fff1e 	bx	lr

00009b58 <put32>:
    9b58:	e5801000 	str	r1, [r0]
    9b5c:	e12fff1e 	bx	lr

00009b60 <PUT32>:
    9b60:	e5801000 	str	r1, [r0]
    9b64:	e12fff1e 	bx	lr

00009b68 <put16>:
    9b68:	e1c010b0 	strh	r1, [r0]
    9b6c:	e12fff1e 	bx	lr

00009b70 <PUT16>:
    9b70:	e1c010b0 	strh	r1, [r0]
    9b74:	e12fff1e 	bx	lr

00009b78 <put8>:
    9b78:	e5c01000 	strb	r1, [r0]
    9b7c:	e12fff1e 	bx	lr

00009b80 <PUT8>:
    9b80:	e5c01000 	strb	r1, [r0]
    9b84:	e12fff1e 	bx	lr

00009b88 <get32>:
    9b88:	e5900000 	ldr	r0, [r0]
    9b8c:	e12fff1e 	bx	lr

00009b90 <GET32>:
    9b90:	e5900000 	ldr	r0, [r0]
    9b94:	e12fff1e 	bx	lr

00009b98 <GETPC>:
    9b98:	e1a0000e 	mov	r0, lr
    9b9c:	e12fff1e 	bx	lr

00009ba0 <dummy>:
    9ba0:	e12fff1e 	bx	lr

00009ba4 <cb_new>:
    9ba4:	e92d4008 	push	{r3, lr}
    9ba8:	e3a00409 	mov	r0, #150994944	; 0x9000000
    9bac:	e3a01000 	mov	r1, #0
    9bb0:	e3a02004 	mov	r2, #4
    9bb4:	eb00000e 	bl	9bf4 <memset>
    9bb8:	e3a00409 	mov	r0, #150994944	; 0x9000000
    9bbc:	e59f3004 	ldr	r3, [pc, #4]	; 9bc8 <cb_new+0x24>
    9bc0:	e5803000 	str	r3, [r0]
    9bc4:	e8bd8008 	pop	{r3, pc}
    9bc8:	12345678 	eorsne	r5, r4, #120, 12	; 0x7800000

00009bcc <cb_get_block>:
    9bcc:	e3a03409 	mov	r3, #150994944	; 0x9000000
    9bd0:	e5932000 	ldr	r2, [r3]
    9bd4:	e59f3014 	ldr	r3, [pc, #20]	; 9bf0 <cb_get_block+0x24>
    9bd8:	e1520003 	cmp	r2, r3
    9bdc:	0a000001 	beq	9be8 <cb_get_block+0x1c>
    9be0:	e3a00000 	mov	r0, #0
    9be4:	e12fff1e 	bx	lr
    9be8:	e3a00409 	mov	r0, #150994944	; 0x9000000
    9bec:	e12fff1e 	bx	lr
    9bf0:	12345678 	eorsne	r5, r4, #120, 12	; 0x7800000

00009bf4 <memset>:
    9bf4:	e0802002 	add	r2, r0, r2
    9bf8:	e1a03000 	mov	r3, r0
    9bfc:	ea000001 	b	9c08 <memset+0x14>
    9c00:	e5c31000 	strb	r1, [r3]
    9c04:	e2833001 	add	r3, r3, #1
    9c08:	e1530002 	cmp	r3, r2
    9c0c:	3afffffb 	bcc	9c00 <memset+0xc>
    9c10:	e12fff1e 	bx	lr

Disassembly of section .data:

00009c14 <rpi_putchar>:
    9c14:	0000865c 	andeq	r8, r0, ip, asr r6

00009c18 <putk>:
    9c18:	00008698 	muleq	r0, r8, r6

00009c1c <GPFSEL0>:
    9c1c:	20200000 	eorcs	r0, r0, r0

00009c20 <GPFSEL1>:
    9c20:	20200004 	eorcs	r0, r0, r4

00009c24 <GPFSEL2>:
    9c24:	20200008 	eorcs	r0, r0, r8

00009c28 <GPFSEL3>:
    9c28:	2020000c 	eorcs	r0, r0, ip

00009c2c <GPFSEL4>:
    9c2c:	20200010 	eorcs	r0, r0, r0, lsl r0

00009c30 <GPFSEL5>:
    9c30:	20200014 	eorcs	r0, r0, r4, lsl r0

00009c34 <GPSET0>:
    9c34:	2020001c 	eorcs	r0, r0, ip, lsl r0

00009c38 <GPSET1>:
    9c38:	20200020 	eorcs	r0, r0, r0, lsr #32

00009c3c <GPCLR0>:
    9c3c:	20200028 	eorcs	r0, r0, r8, lsr #32

00009c40 <GPCLR1>:
    9c40:	2020002c 	eorcs	r0, r0, ip, lsr #32

00009c44 <GPLEV0>:
    9c44:	20200034 	eorcs	r0, r0, r4, lsr r0

00009c48 <GPLEV1>:
    9c48:	20200038 	eorcs	r0, r0, r8, lsr r0

00009c4c <IRQ_PENDING_2>:
    9c4c:	2000b208 	andcs	fp, r0, r8, lsl #4

00009c50 <GPREN0>:
    9c50:	2020004c 	eorcs	r0, r0, ip, asr #32

00009c54 <GPREN1>:
    9c54:	20200050 	eorcs	r0, r0, r0, asr r0

00009c58 <ENABLE_IRQS_2>:
    9c58:	2000b214 	andcs	fp, r0, r4, lsl r2

00009c5c <GPFEN0>:
    9c5c:	20200058 	eorcs	r0, r0, r8, asr r0

00009c60 <GPFEN1>:
    9c60:	2020005c 	eorcs	r0, r0, ip, asr r0

00009c64 <GPEDS0>:
    9c64:	20200040 	eorcs	r0, r0, r0, asr #32

00009c68 <GPEDS1>:
    9c68:	20200044 	eorcs	r0, r0, r4, asr #32

00009c6c <IRQ_PENDING_1>:
    9c6c:	2000b204 	andcs	fp, r0, r4, lsl #4

00009c70 <gpio_clr0>:
    9c70:	20200028 	eorcs	r0, r0, r8, lsr #32

00009c74 <gpio_set0>:
    9c74:	2020001c 	eorcs	r0, r0, ip, lsl r0

00009c78 <gpio_fsel0>:
    9c78:	20200000 	eorcs	r0, r0, r0

00009c7c <AUX_ENABLES>:
    9c7c:	20215004 	eorcs	r5, r1, r4

00009c80 <AUX_MU_CNTL_REG>:
    9c80:	20215060 	eorcs	r5, r1, r0, rrx

00009c84 <AUX_MU_IER_REG>:
    9c84:	20215044 	eorcs	r5, r1, r4, asr #32

00009c88 <AUX_MU_IIR_REG>:
    9c88:	20215048 	eorcs	r5, r1, r8, asr #32

00009c8c <AUX_MU_LCR_REG>:
    9c8c:	2021504c 	eorcs	r5, r1, ip, asr #32

00009c90 <AUX_MU_BAUD_REG>:
    9c90:	20215068 	eorcs	r5, r1, r8, rrx

00009c94 <AUX_MU_LSR_REG>:
    9c94:	20215054 	eorcs	r5, r1, r4, asr r0

00009c98 <AUX_MU_IO_REG>:
    9c98:	20215040 	eorcs	r5, r1, r0, asr #32

00009c9c <AUX_MU_STAT_REG>:
    9c9c:	20215064 	eorcs	r5, r1, r4, rrx

00009ca0 <AUX_MU_SCRATCH>:
    9ca0:	2021505c 	eorcs	r5, r1, ip, asr r0

00009ca4 <AUX_MU_MSR_REG>:
    9ca4:	20215058 	eorcs	r5, r1, r8, asr r0

00009ca8 <AUX_MU_MCR_REG>:
    9ca8:	20215050 	eorcs	r5, r1, r0, asr r0

00009cac <AUX_IRQ>:
    9cac:	20215000 	eorcs	r5, r1, r0

Disassembly of section .rodata:

00009cb0 <__FUNCTION__.4258>:
    9cb0:	6c637963 	stclvs	9, cr7, [r3], #-396	; 0xfffffe74
    9cb4:	705f7365 	subsvc	r7, pc, r5, ror #6
    9cb8:	735f7265 	cmpvc	pc, #1342177286	; 0x50000006
    9cbc:	00006365 	andeq	r6, r0, r5, ror #6
    9cc0:	4f525245 	svcmi	0x00525245
    9cc4:	73253a52 	teqvc	r5, #335872	; 0x52000
    9cc8:	3a73253a 	bcc	1cd31b8 <__bss_end__+0x1cc8e28>
    9ccc:	203a6425 	eorscs	r6, sl, r5, lsr #8
    9cd0:	534c4146 	movtpl	r4, #49478	; 0xc146
    9cd4:	733c2845 	teqvc	ip, #4521984	; 0x450000
    9cd8:	32203c20 	eorcc	r3, r0, #32, 24	; 0x2000
    9cdc:	203a293e 	eorscs	r2, sl, lr, lsr r9
    9ce0:	6c6c6977 	stclvs	9, cr6, [ip], #-476	; 0xfffffe24
    9ce4:	65766f20 	ldrbvs	r6, [r6, #-3872]!	; 0xf20
    9ce8:	6f6c6672 	svcvs	0x006c6672
    9cec:	00000a77 	andeq	r0, r0, r7, ror sl
    9cf0:	74736574 	ldrbtvc	r6, [r3], #-1396	; 0x574
    9cf4:	6e65672d 	cdpvs	7, 6, cr6, cr5, cr13, {1}
    9cf8:	0000632e 	andeq	r6, r0, lr, lsr #6
    9cfc:	61206d61 	teqvs	r0, r1, ror #26
    9d00:	72657320 	rsbvc	r7, r5, #32, 6	; 0x80000000
    9d04:	2c726576 	cfldr64cs	mvdx6, [r2], #-472	; 0xfffffe28
    9d08:	6e657320 	cdpvs	3, 6, cr7, cr5, cr0, {1}
    9d0c:	676e6964 	strbvs	r6, [lr, -r4, ror #18]!
    9d10:	000a3020 	andeq	r3, sl, r0, lsr #32
    9d14:	20746f47 	rsbscs	r6, r4, r7, asr #30
    9d18:	000a6425 	andeq	r6, sl, r5, lsr #8
    9d1c:	65696c63 	strbvs	r6, [r9, #-3171]!	; 0xc63
    9d20:	6420746e 	strtvs	r7, [r0], #-1134	; 0x46e
    9d24:	3a656e6f 	bcc	19656e8 <__bss_end__+0x195b358>
    9d28:	646e6520 	strbtvs	r6, [lr], #-1312	; 0x520
    9d2c:	77206465 	strvc	r6, [r0, -r5, ror #8]!
    9d30:	20687469 	rsbcs	r7, r8, r9, ror #8
    9d34:	000a6425 	andeq	r6, sl, r5, lsr #8
    9d38:	61206d61 	teqvs	r0, r1, ror #26
    9d3c:	696c6320 	stmdbvs	ip!, {r5, r8, r9, sp, lr}^
    9d40:	0a746e65 	beq	1d256dc <__bss_end__+0x1d1b34c>
    9d44:	00000000 	andeq	r0, r0, r0

00009d48 <__FUNCTION__.4265>:
    9d48:	74696d65 	strbtvc	r6, [r9], #-3429	; 0xd65
    9d4c:	00000000 	andeq	r0, r0, r0

00009d50 <__FUNCTION__.4213>:
    9d50:	5f697072 	svcpl	0x00697072
    9d54:	5f746573 	svcpl	0x00746573
    9d58:	7074756f 	rsbsvc	r7, r4, pc, ror #10
    9d5c:	00007475 	andeq	r7, r0, r5, ror r4

00009d60 <__FUNCTION__.4287>:
    9d60:	705f6176 	subsvc	r6, pc, r6, ror r1	; <UNPREDICTABLE>
    9d64:	746e6972 	strbtvc	r6, [lr], #-2418	; 0x972
    9d68:	0000006b 	andeq	r0, r0, fp, rrx
    9d6c:	494e4150 	stmdbmi	lr, {r4, r6, r8, lr}^
    9d70:	73253a43 	teqvc	r5, #274432	; 0x43000
    9d74:	3a73253a 	bcc	1cd3264 <__bss_end__+0x1cc8ed4>
    9d78:	253a6425 	ldrcs	r6, [sl, #-1061]!	; 0x425
    9d7c:	00000a73 	andeq	r0, r0, r3, ror sl
    9d80:	6362696c 	cmnvs	r2, #108, 18	; 0x1b0000
    9d84:	2d61762f 	stclcs	6, cr7, [r1, #-188]!	; 0xffffff44
    9d88:	6e697270 	mcrvs	2, 3, r7, cr9, cr0, {3}
    9d8c:	632e6b74 	teqvs	lr, #116, 22	; 0x1d000
    9d90:	00000000 	andeq	r0, r0, r0
    9d94:	00000030 	andeq	r0, r0, r0, lsr r0
    9d98:	33323130 	teqcc	r2, #48, 2
    9d9c:	37363534 			; <UNDEFINED> instruction: 0x37363534
    9da0:	00003938 	andeq	r3, r0, r8, lsr r9
    9da4:	33323130 	teqcc	r2, #48, 2
    9da8:	37363534 			; <UNDEFINED> instruction: 0x37363534
    9dac:	62613938 	rsbvs	r3, r1, #56, 18	; 0xe0000
    9db0:	66656463 	strbtvs	r6, [r5], -r3, ror #8
    9db4:	00000000 	andeq	r0, r0, r0
    9db8:	00003130 	andeq	r3, r0, r0, lsr r1
    9dbc:	63747570 	cmnvs	r4, #112, 10	; 0x1c000000
    9dc0:	0070665f 	rsbseq	r6, r0, pc, asr r6
    9dc4:	74646977 	strbtvc	r6, [r4], #-2423	; 0x977
    9dc8:	203c2068 	eorscs	r2, ip, r8, rrx
    9dcc:	00003233 	andeq	r3, r0, r3, lsr r2
    9dd0:	494e4150 	stmdbmi	lr, {r4, r6, r8, lr}^
    9dd4:	73253a43 	teqvc	r5, #274432	; 0x43000
    9dd8:	3a73253a 	bcc	1cd32c8 <__bss_end__+0x1cc8f38>
    9ddc:	663a6425 	ldrtvs	r6, [sl], -r5, lsr #8
    9de0:	74616f6c 	strbtvc	r6, [r1], #-3948	; 0xf6c
    9de4:	746f6e20 	strbtvc	r6, [pc], #-3616	; 9dec <__FUNCTION__.4287+0x8c>
    9de8:	616e6520 	cmnvs	lr, r0, lsr #10
    9dec:	64656c62 	strbtvs	r6, [r5], #-3170	; 0xc62
    9df0:	0a212121 	beq	85227c <__bss_end__+0x847eec>
    9df4:	00000000 	andeq	r0, r0, r0
    9df8:	494e4150 	stmdbmi	lr, {r4, r6, r8, lr}^
    9dfc:	73253a43 	teqvc	r5, #274432	; 0x43000
    9e00:	3a73253a 	bcc	1cd32f0 <__bss_end__+0x1cc8f60>
    9e04:	703a6425 	eorsvc	r6, sl, r5, lsr #8
    9e08:	746e6972 	strbtvc	r6, [lr], #-2418	; 0x972
    9e0c:	6e203a6b 	vnmulvs.f32	s6, s0, s23
    9e10:	6820746f 	stmdavs	r0!, {r0, r1, r2, r3, r5, r6, sl, ip, sp, lr}
    9e14:	6c646e61 	stclvs	14, cr6, [r4], #-388	; 0xfffffe7c
    9e18:	20676e69 	rsbcs	r6, r7, r9, ror #28
    9e1c:	63657073 	cmnvs	r5, #115	; 0x73
    9e20:	65696669 	strbvs	r6, [r9, #-1641]!	; 0x669
    9e24:	25272072 	strcs	r2, [r7, #-114]!	; 0x72
    9e28:	0a0a2763 	beq	293bbc <__bss_end__+0x28982c>
    9e2c:	00000000 	andeq	r0, r0, r0
    9e30:	454e4f44 	strbmi	r4, [lr, #-3908]	; 0xf44
    9e34:	0a212121 	beq	8522c0 <__bss_end__+0x847f30>
    9e38:	00000000 	andeq	r0, r0, r0
    9e3c:	756f6261 	strbvc	r6, [pc, #-609]!	; 9be3 <cb_get_block+0x17>
    9e40:	6f742074 	svcvs	0x00742074
    9e44:	69727020 	ldmdbvs	r2!, {r5, ip, sp, lr}^
    9e48:	6f20746e 	svcvs	0x0020746e
    9e4c:	6572206e 	ldrbvs	r2, [r2, #-110]!	; 0x6e
    9e50:	616c7567 	cmnvs	ip, r7, ror #10
    9e54:	72702072 	rsbsvc	r2, r0, #114	; 0x72
    9e58:	66746e69 	ldrbtvs	r6, [r4], -r9, ror #28
    9e5c:	0000000a 	andeq	r0, r0, sl
    9e60:	63637573 	cmnvs	r3, #482344960	; 0x1cc00000
    9e64:	21737365 	cmncs	r3, r5, ror #6
    9e68:	0000000a 	andeq	r0, r0, sl

00009e6c <__FUNCTION__.4314>:
    9e6c:	755f7773 	ldrbvc	r7, [pc, #-1907]	; 9701 <sw_uart_gets_until+0x61>
    9e70:	5f747261 	svcpl	0x00747261
    9e74:	73746567 	cmnvc	r4, #432013312	; 0x19c00000
    9e78:	746e755f 	strbtvc	r7, [lr], #-1375	; 0x55f
    9e7c:	00006c69 	andeq	r6, r0, r9, ror #24

00009e80 <__FUNCTION__.4326>:
    9e80:	755f7773 	ldrbvc	r7, [pc, #-1907]	; 9715 <sw_uart_gets_until+0x75>
    9e84:	5f747261 	svcpl	0x00747261
    9e88:	73746567 	cmnvc	r4, #432013312	; 0x19c00000
    9e8c:	6d69745f 	cfstrdvs	mvd7, [r9, #-380]!	; 0xfffffe84
    9e90:	74756f65 	ldrbtvc	r6, [r5], #-3941	; 0xf65
    9e94:	00000000 	andeq	r0, r0, r0

00009e98 <__FUNCTION__.4340>:
    9e98:	755f7773 	ldrbvc	r7, [pc, #-1907]	; 972d <sw_uart_gets_until+0x8d>
    9e9c:	5f747261 	svcpl	0x00747261
    9ea0:	74696e69 	strbtvc	r6, [r9], #-3689	; 0xe69
    9ea4:	6c65685f 	stclvs	8, cr6, [r5], #-380	; 0xfffffe84
    9ea8:	00726570 	rsbseq	r6, r2, r0, ror r5

00009eac <__FUNCTION__.4346>:
    9eac:	755f7773 	ldrbvc	r7, [pc, #-1907]	; 9741 <sw_uart_gets_until+0xa1>
    9eb0:	5f747261 	svcpl	0x00747261
    9eb4:	63746567 	cmnvs	r4, #432013312	; 0x19c00000
    9eb8:	00000000 	andeq	r0, r0, r0

00009ebc <__FUNCTION__.4368>:
    9ebc:	755f7773 	ldrbvc	r7, [pc, #-1907]	; 9751 <sw_uart_gets_timeout+0xd>
    9ec0:	5f747261 	svcpl	0x00747261
    9ec4:	6e697270 	mcrvs	2, 3, r7, cr9, cr0, {3}
    9ec8:	00006b74 	andeq	r6, r0, r4, ror fp

00009ecc <__FUNCTION__.4376>:
    9ecc:	755f7773 	ldrbvc	r7, [pc, #-1907]	; 9761 <sw_uart_gets_timeout+0x1d>
    9ed0:	5f747261 	svcpl	0x00747261
    9ed4:	73746567 	cmnvc	r4, #432013312	; 0x19c00000
    9ed8:	746e755f 	strbtvc	r7, [lr], #-1375	; 0x55f
    9edc:	625f6c69 	subsvs	r6, pc, #26880	; 0x6900
    9ee0:	00006b6c 	andeq	r6, r0, ip, ror #22
    9ee4:	732d796d 	teqvc	sp, #1785856	; 0x1b4000
    9ee8:	732f6372 	teqvc	pc, #-939524095	; 0xc8000001
    9eec:	61752d77 	cmnvs	r5, r7, ror sp
    9ef0:	632e7472 	teqvs	lr, #1912602624	; 0x72000000
    9ef4:	00000000 	andeq	r0, r0, r0
    9ef8:	7479626e 	ldrbtvc	r6, [r9], #-622	; 0x26e
    9efc:	303e7365 	eorscc	r7, lr, r5, ror #6
    9f00:	00000000 	andeq	r0, r0, r0
    9f04:	7a686d28 	bvc	1a253ac <__bss_end__+0x1a1b01c>
    9f08:	62202d20 	eorvs	r2, r0, #32, 26	; 0x800
    9f0c:	29647561 	stmdbcs	r4!, {r0, r5, r6, r8, sl, ip, sp, lr}^
    9f10:	203d3c20 	eorscs	r3, sp, r0, lsr #24
    9f14:	69726564 	ldmdbvs	r2!, {r2, r5, r6, r8, sl, sp, lr}^
    9f18:	20646576 	rsbcs	r6, r4, r6, ror r5
    9f1c:	64202626 	strtvs	r2, [r0], #-1574	; 0x626
    9f20:	76697265 	strbtvc	r7, [r9], -r5, ror #4
    9f24:	3c206465 	cfstrscc	mvf6, [r0], #-404	; 0xfffffe6c
    9f28:	6d28203d 	stcvs	0, cr2, [r8, #-244]!	; 0xffffff0c
    9f2c:	2b207a68 	blcs	8288d4 <__bss_end__+0x81e544>
    9f30:	75616220 	strbvc	r6, [r1, #-544]!	; 0x220
    9f34:	00002964 	andeq	r2, r0, r4, ror #18
    9f38:	494e4150 	stmdbmi	lr, {r4, r6, r8, lr}^
    9f3c:	73253a43 	teqvc	r5, #274432	; 0x43000
    9f40:	3a73253a 	bcc	1cd3430 <__bss_end__+0x1cc90a0>
    9f44:	693a6425 	ldmdbvs	sl!, {r0, r2, r5, sl, sp, lr}
    9f48:	736f706d 	cmnvc	pc, #109	; 0x6d
    9f4c:	6c626973 	stclvs	9, cr6, [r2], #-460	; 0xfffffe34
    9f50:	68203a65 	stmdavs	r0!, {r0, r2, r5, r6, r9, fp, ip, sp}
    9f54:	20657661 	rsbcs	r7, r5, r1, ror #12
    9f58:	69206e61 	stmdbvs	r0!, {r0, r5, r6, r9, sl, fp, sp, lr}
    9f5c:	6e69666e 	cdpvs	6, 6, cr6, cr9, cr14, {3}
    9f60:	20657469 	rsbcs	r7, r5, r9, ror #8
    9f64:	656d6974 	strbvs	r6, [sp, #-2420]!	; 0x974
    9f68:	2174756f 	cmncs	r4, pc, ror #10
    9f6c:	00000a0a 	andeq	r0, r0, sl, lsl #20
    9f70:	3c207a73 	stccc	10, cr7, [r0], #-460	; 0xfffffe34
    9f74:	7a697320 	bvc	1a66bfc <__bss_end__+0x1a5c86c>
    9f78:	20666f65 	rsbcs	r6, r6, r5, ror #30
    9f7c:	2d667562 	cfstr64cs	mvdx7, [r6, #-392]!	; 0xfffffe78
    9f80:	00000031 	andeq	r0, r0, r1, lsr r0

Disassembly of section .bss:

00009f84 <__bss_start__>:
	...

0000a384 <console_uart>:
	...

Disassembly of section .ARM.attributes:

00000000 <.ARM.attributes>:
   0:	00002a41 	andeq	r2, r0, r1, asr #20
   4:	61656100 	cmnvs	r5, r0, lsl #2
   8:	01006962 	tsteq	r0, r2, ror #18
   c:	00000020 	andeq	r0, r0, r0, lsr #32
  10:	4b5a3605 	blmi	168d82c <__bss_end__+0x168349c>
  14:	08070600 	stmdaeq	r7, {r9, sl}
  18:	12010901 	andne	r0, r1, #16384	; 0x4000
  1c:	15011404 	strne	r1, [r1, #-1028]	; 0x404
  20:	18031701 	stmdane	r3, {r0, r8, r9, sl, ip}
  24:	22011a01 	andcs	r1, r1, #4096	; 0x1000
  28:	Address 0x0000000000000028 is out of bounds.


Disassembly of section .comment:

00000000 <.comment>:
   0:	3a434347 	bcc	10d0d24 <__bss_end__+0x10c6994>
   4:	4e472820 	cdpmi	8, 4, cr2, cr7, cr0, {1}
   8:	34202955 	strtcc	r2, [r0], #-2389	; 0x955
   c:	332e382e 	teqcc	lr, #3014656	; 0x2e0000
	...

Disassembly of section .debug_info:

00000000 <.debug_info>:
       0:	00000fdb 	ldrdeq	r0, [r0], -fp
       4:	00000004 	andeq	r0, r0, r4
       8:	01040000 	mrseq	r0, (UNDEF: 4)
       c:	000000cb 	andeq	r0, r0, fp, asr #1
      10:	0002b901 	andeq	fp, r2, r1, lsl #18
      14:	0001ad00 	andeq	sl, r1, r0, lsl #26
      18:	00801000 	addeq	r1, r0, r0
      1c:	0005f400 	andeq	pc, r5, r0, lsl #8
      20:	00000000 	andeq	r0, r0, r0
      24:	05040200 	streq	r0, [r4, #-512]	; 0x200
      28:	00746e69 	rsbseq	r6, r4, r9, ror #28
      2c:	4d070403 	cfstrsmi	mvf0, [r7, #-12]
      30:	03000000 	movweq	r0, #0
      34:	02290601 	eoreq	r0, r9, #1048576	; 0x100000
      38:	02030000 	andeq	r0, r3, #0
      3c:	00023505 	andeq	r3, r2, r5, lsl #10
      40:	05040300 	streq	r0, [r4, #-768]	; 0x300
      44:	0000007c 	andeq	r0, r0, ip, ror r0
      48:	77050803 	strvc	r0, [r5, -r3, lsl #16]
      4c:	04000000 	streq	r0, [r0], #-0
      50:	000002aa 	andeq	r0, r0, sl, lsr #5
      54:	005a2e04 	subseq	r2, sl, r4, lsl #28
      58:	01030000 	mrseq	r0, (UNDEF: 3)
      5c:	00022708 	andeq	r2, r2, r8, lsl #14
      60:	07020300 	streq	r0, [r2, -r0, lsl #6]
      64:	0000017e 	andeq	r0, r0, lr, ror r1
      68:	48070403 	stmdami	r7, {r0, r1, sl}
      6c:	03000000 	movweq	r0, #0
      70:	00430708 	subeq	r0, r3, r8, lsl #14
      74:	04030000 	streq	r0, [r3], #-0
      78:	00021907 	andeq	r1, r2, r7, lsl #18
      7c:	08010300 	stmdaeq	r1, {r8, r9}
      80:	00000230 	andeq	r0, r0, r0, lsr r2
      84:	008a0405 	addeq	r0, sl, r5, lsl #8
      88:	7d060000 	stcvc	0, cr0, [r6, #-0]
      8c:	07000000 	streq	r0, [r0, -r0]
      90:	0000005a 	andeq	r0, r0, sl, asr r0
      94:	a7032101 	strge	r2, [r3, -r1, lsl #2]
      98:	08000000 	stmdaeq	r0, {}	; <UNPREDICTABLE>
      9c:	006e6970 	rsbeq	r6, lr, r0, ror r9
      a0:	002c2101 	eoreq	r2, ip, r1, lsl #2
      a4:	07000000 	streq	r0, [r0, -r0]
      a8:	000000b9 	strheq	r0, [r0], -r9
      ac:	bf032601 	svclt	0x00032601
      b0:	08000000 	stmdaeq	r0, {}	; <UNPREDICTABLE>
      b4:	006e6970 	rsbeq	r6, lr, r0, ror r9
      b8:	002c2601 	eoreq	r2, ip, r1, lsl #12
      bc:	07000000 	streq	r0, [r0, -r0]
      c0:	00000024 	andeq	r0, r0, r4, lsr #32
      c4:	e0032b01 	and	r2, r3, r1, lsl #22
      c8:	08000000 	stmdaeq	r0, {}	; <UNPREDICTABLE>
      cc:	006e6970 	rsbeq	r6, lr, r0, ror r9
      d0:	002c2b01 	eoreq	r2, ip, r1, lsl #22
      d4:	76080000 	strvc	r0, [r8], -r0
      d8:	2c2b0100 	stfcss	f0, [fp], #-0
      dc:	00000000 	andeq	r0, r0, r0
      e0:	00006b07 	andeq	r6, r0, r7, lsl #22
      e4:	01ae0100 			; <UNDEFINED> instruction: 0x01ae0100
      e8:	0000012b 	andeq	r0, r0, fp, lsr #2
      ec:	00787408 	rsbseq	r7, r8, r8, lsl #8
      f0:	002cae01 	eoreq	sl, ip, r1, lsl #28
      f4:	72080000 	andvc	r0, r8, #0
      f8:	ae010078 	mcrge	0, 0, r0, cr1, cr8, {3}
      fc:	0000002c 	andeq	r0, r0, ip, lsr #32
     100:	01006e08 	tsteq	r0, r8, lsl #28
     104:	00002cae 	andeq	r2, r0, lr, lsr #25
     108:	01660900 	cmneq	r6, r0, lsl #18
     10c:	b1010000 	mrslt	r0, (UNDEF: 1)
     110:	0000002c 	andeq	r0, r0, ip, lsr #32
     114:	00015509 	andeq	r5, r1, r9, lsl #10
     118:	2cb20100 	ldfcss	f0, [r2]
     11c:	09000000 	stmdbeq	r0, {}	; <UNPREDICTABLE>
     120:	00000129 	andeq	r0, r0, r9, lsr #2
     124:	002cb301 	eoreq	fp, ip, r1, lsl #6
     128:	07000000 	streq	r0, [r0, -r0]
     12c:	00000122 	andeq	r0, r0, r2, lsr #2
     130:	7601d001 	strvc	sp, [r1], -r1
     134:	08000001 	stmdaeq	r0, {r0}
     138:	01007874 	tsteq	r0, r4, ror r8
     13c:	00002cd0 	ldrdeq	r2, [r0], -r0
     140:	78720800 	ldmdavc	r2!, {fp}^
     144:	2cd00100 	ldfcse	f0, [r0], {0}
     148:	08000000 	stmdaeq	r0, {}	; <UNPREDICTABLE>
     14c:	d001006e 	andle	r0, r1, lr, rrx
     150:	0000002c 	andeq	r0, r0, ip, lsr #32
     154:	00021309 	andeq	r1, r2, r9, lsl #6
     158:	2cd40100 	ldfcse	f0, [r4], {0}
     15c:	09000000 	stmdbeq	r0, {}	; <UNPREDICTABLE>
     160:	00000155 	andeq	r0, r0, r5, asr r1
     164:	002cd501 	eoreq	sp, ip, r1, lsl #10
     168:	0b0a0000 	bleq	280170 <__bss_end__+0x275de0>
     16c:	d6010069 	strle	r0, [r1], -r9, rrx
     170:	0000002c 	andeq	r0, r0, ip, lsr #32
     174:	4f0c0000 	svcmi	0x000c0000
     178:	01000002 	tsteq	r0, r2
     17c:	00002c39 	andeq	r2, r0, r9, lsr ip
     180:	00801000 	addeq	r1, r0, r0
     184:	00005000 	andeq	r5, r0, r0
     188:	569c0100 	ldrpl	r0, [ip], r0, lsl #2
     18c:	0d000002 	stceq	0, cr0, [r0, #-8]
     190:	39010073 	stmdbcc	r1, {r0, r1, r4, r5, r6}
     194:	0000002c 	andeq	r0, r0, ip, lsr #32
     198:	00000000 	andeq	r0, r0, r0
     19c:	0001710e 	andeq	r7, r1, lr, lsl #2
     1a0:	00026600 	andeq	r6, r2, r0, lsl #12
     1a4:	b0030500 	andlt	r0, r3, r0, lsl #10
     1a8:	0900009c 	stmdbeq	r0, {r2, r3, r4, r7}
     1ac:	00000268 	andeq	r0, r0, r8, ror #4
     1b0:	002c3b01 	eoreq	r3, ip, r1, lsl #22
     1b4:	880f0000 	stmdahi	pc, {}	; <UNPREDICTABLE>
     1b8:	01000002 	tsteq	r0, r2
     1bc:	00002c3d 	andeq	r2, r0, sp, lsr ip
     1c0:	00003a00 	andeq	r3, r0, r0, lsl #20
     1c4:	801c1000 	andshi	r1, ip, r0
     1c8:	00040000 	andeq	r0, r4, r0
     1cc:	01de0000 	bicseq	r0, lr, r0
     1d0:	22090000 	andcs	r0, r9, #0
     1d4:	01000002 	tsteq	r0, r2
     1d8:	00002c3b 	andeq	r2, r0, fp, lsr ip
     1dc:	2c100000 	ldccs	0, cr0, [r0], {-0}
     1e0:	04000080 	streq	r0, [r0], #-128	; 0x80
     1e4:	fb000000 	blx	1ee <_start-0x7e12>
     1e8:	0f000001 	svceq	0x00000001
     1ec:	00000222 	andeq	r0, r0, r2, lsr #4
     1f0:	002c3d01 	eoreq	r3, ip, r1, lsl #26
     1f4:	003a0000 	eorseq	r0, sl, r0
     1f8:	11000000 	mrsne	r0, (UNDEF: 0)
     1fc:	0000802c 	andeq	r8, r0, ip, lsr #32
     200:	00000f6f 	andeq	r0, r0, pc, ror #30
     204:	00000214 	andeq	r0, r0, r4, lsl r2
     208:	07500112 	smmlaeq	r0, r2, r1, r0
     20c:	0a5001f3 	beq	14009e0 <__bss_end__+0x13f6650>
     210:	001e03e8 	andseq	r0, lr, r8, ror #7
     214:	00803c13 	addeq	r3, r0, r3, lsl ip
     218:	000f8000 	andeq	r8, pc, r0
     21c:	80501100 	subshi	r1, r0, r0, lsl #2
     220:	0f870000 	svceq	0x00870000
     224:	024c0000 	subeq	r0, ip, #0
     228:	01120000 	tsteq	r2, r0
     22c:	3a080253 	bcc	200b80 <__bss_end__+0x1f67f0>
     230:	05520112 	ldrbeq	r0, [r2, #-274]	; 0x112
     234:	009cb003 	addseq	fp, ip, r3
     238:	51011200 	mrspl	r1, R9_usr
     23c:	9cf00305 	ldclls	3, cr0, [r0], #20
     240:	01120000 	tsteq	r2, r0
     244:	c0030550 	andgt	r0, r3, r0, asr r5
     248:	0000009c 	muleq	r0, ip, r0
     24c:	00805413 	addeq	r5, r0, r3, lsl r4
     250:	000f9d00 	andeq	r9, pc, r0, lsl #26
     254:	7d140000 	ldcvc	0, cr0, [r4, #-0]
     258:	66000000 	strvs	r0, [r0], -r0
     25c:	15000002 	strne	r0, [r0, #-2]
     260:	00000076 	andeq	r0, r0, r6, ror r0
     264:	5606000e 	strpl	r0, [r6], -lr
     268:	0c000002 	stceq	0, cr0, [r0], {2}
     26c:	00000273 	andeq	r0, r0, r3, ror r2
     270:	004f4201 	subeq	r4, pc, r1, lsl #4
     274:	80600000 	rsbhi	r0, r0, r0
     278:	019c0000 	orrseq	r0, ip, r0
     27c:	9c010000 	stcls	0, cr0, [r1], {-0}
     280:	0000044e 	andeq	r0, r0, lr, asr #8
     284:	6e69700d 	cdpvs	0, 6, cr7, cr9, cr13, {0}
     288:	2c420100 	stfcse	f0, [r2], {-0}
     28c:	4d000000 	stcmi	0, cr0, [r0, #-0]
     290:	0f000000 	svceq	0x00000000
     294:	00000345 	andeq	r0, r0, r5, asr #6
     298:	00254501 	eoreq	r4, r5, r1, lsl #10
     29c:	006e0000 	rsbeq	r0, lr, r0
     2a0:	3e0f0000 	cdpcc	0, 0, cr0, cr15, cr0, {0}
     2a4:	01000000 	mrseq	r0, (UNDEF: 0)
     2a8:	00002546 	andeq	r2, r0, r6, asr #10
     2ac:	0000b200 	andeq	fp, r0, r0, lsl #4
     2b0:	00390f00 	eorseq	r0, r9, r0, lsl #30
     2b4:	47010000 	strmi	r0, [r1, -r0]
     2b8:	00000025 	andeq	r0, r0, r5, lsr #32
     2bc:	000000d1 	ldrdeq	r0, [r0], -r1
     2c0:	0000340f 	andeq	r3, r0, pc, lsl #8
     2c4:	25480100 	strbcs	r0, [r8, #-256]	; 0x100
     2c8:	f0000000 			; <UNDEFINED> instruction: 0xf0000000
     2cc:	0f000000 	svceq	0x00000000
     2d0:	00000072 	andeq	r0, r0, r2, ror r0
     2d4:	00254901 	eoreq	r4, r5, r1, lsl #18
     2d8:	010f0000 	mrseq	r0, CPSR
     2dc:	1f0f0000 	svcne	0x000f0000
     2e0:	01000000 	mrseq	r0, (UNDEF: 0)
     2e4:	0000254a 	andeq	r2, r0, sl, asr #10
     2e8:	00012e00 	andeq	r2, r1, r0, lsl #28
     2ec:	001a0f00 	andseq	r0, sl, r0, lsl #30
     2f0:	4b010000 	blmi	402f8 <__bss_end__+0x35f68>
     2f4:	00000025 	andeq	r0, r0, r5, lsr #32
     2f8:	0000014d 	andeq	r0, r0, sp, asr #2
     2fc:	0000150f 	andeq	r1, r0, pc, lsl #10
     300:	254c0100 	strbcs	r0, [ip, #-256]	; 0x100
     304:	6c000000 	stcvs	0, cr0, [r0], {-0}
     308:	0f000001 	svceq	0x00000001
     30c:	00000010 	andeq	r0, r0, r0, lsl r0
     310:	00254d01 	eoreq	r4, r5, r1, lsl #26
     314:	018b0000 	orreq	r0, fp, r0
     318:	69160000 	ldmdbvs	r6, {}	; <UNPREDICTABLE>
     31c:	2c4f0100 	stfcse	f0, [pc], {-0}
     320:	01000000 	mrseq	r0, (UNDEF: 0)
     324:	00052917 	andeq	r2, r5, r7, lsl r9
     328:	2c540100 	ldfcse	f0, [r4], {-0}
     32c:	01000000 	mrseq	r0, (UNDEF: 0)
     330:	80741053 	rsbshi	r1, r4, r3, asr r0
     334:	00040000 	andeq	r0, r4, r0
     338:	034c0000 	movteq	r0, #49152	; 0xc000
     33c:	22170000 	andscs	r0, r7, #0
     340:	01000002 	tsteq	r0, r2
     344:	00002c54 	andeq	r2, r0, r4, asr ip
     348:	00530100 	subseq	r0, r3, r0, lsl #2
     34c:	00807c10 	addeq	r7, r0, r0, lsl ip
     350:	00000400 	andeq	r0, r0, r0, lsl #8
     354:	00036900 	andeq	r6, r3, r0, lsl #18
     358:	02220f00 	eoreq	r0, r2, #0, 30
     35c:	55010000 	strpl	r0, [r1, #-0]
     360:	0000002c 	andeq	r0, r0, ip, lsr #32
     364:	000001aa 	andeq	r0, r0, sl, lsr #3
     368:	80a01000 	adchi	r1, r0, r0
     36c:	00040000 	andeq	r0, r4, r0
     370:	03860000 	orreq	r0, r6, #0
     374:	220f0000 	andcs	r0, pc, #0
     378:	01000002 	tsteq	r0, r2
     37c:	00002c57 	andeq	r2, r0, r7, asr ip
     380:	0001bd00 	andeq	fp, r1, r0, lsl #26
     384:	c4100000 	ldrgt	r0, [r0], #-0
     388:	04000080 	streq	r0, [r0], #-128	; 0x80
     38c:	a3000000 	movwge	r0, #0
     390:	0f000003 	svceq	0x00000003
     394:	00000222 	andeq	r0, r0, r2, lsr #4
     398:	002c5901 	eoreq	r5, ip, r1, lsl #18
     39c:	01d00000 	bicseq	r0, r0, r0
     3a0:	10000000 	andne	r0, r0, r0
     3a4:	000080e8 	andeq	r8, r0, r8, ror #1
     3a8:	00000004 	andeq	r0, r0, r4
     3ac:	000003c0 	andeq	r0, r0, r0, asr #7
     3b0:	0002220f 	andeq	r2, r2, pc, lsl #4
     3b4:	2c5b0100 	ldfcse	f0, [fp], {-0}
     3b8:	e3000000 	movw	r0, #0
     3bc:	00000001 	andeq	r0, r0, r1
     3c0:	00810c10 	addeq	r0, r1, r0, lsl ip
     3c4:	00000400 	andeq	r0, r0, r0, lsl #8
     3c8:	0003dd00 	andeq	sp, r3, r0, lsl #26
     3cc:	02220f00 	eoreq	r0, r2, #0, 30
     3d0:	5d010000 	stcpl	0, cr0, [r1, #-0]
     3d4:	0000002c 	andeq	r0, r0, ip, lsr #32
     3d8:	000001f6 	strdeq	r0, [r0], -r6
     3dc:	81301000 	teqhi	r0, r0
     3e0:	00040000 	andeq	r0, r4, r0
     3e4:	03fa0000 	mvnseq	r0, #0
     3e8:	220f0000 	andcs	r0, pc, #0
     3ec:	01000002 	tsteq	r0, r2
     3f0:	00002c5f 	andeq	r2, r0, pc, asr ip
     3f4:	00020900 	andeq	r0, r2, r0, lsl #18
     3f8:	54100000 	ldrpl	r0, [r0], #-0
     3fc:	04000081 	streq	r0, [r0], #-129	; 0x81
     400:	17000000 	strne	r0, [r0, -r0]
     404:	0f000004 	svceq	0x00000004
     408:	00000222 	andeq	r0, r0, r2, lsr #4
     40c:	002c6101 	eoreq	r6, ip, r1, lsl #2
     410:	021c0000 	andseq	r0, ip, #0
     414:	10000000 	andne	r0, r0, r0
     418:	00008178 	andeq	r8, r0, r8, ror r1
     41c:	00000004 	andeq	r0, r0, r4
     420:	00000434 	andeq	r0, r0, r4, lsr r4
     424:	0002220f 	andeq	r2, r2, pc, lsl #4
     428:	2c630100 	stfcse	f0, [r3], #-0
     42c:	2f000000 	svccs	0x00000000
     430:	00000002 	andeq	r0, r0, r2
     434:	00819c18 	addeq	r9, r1, r8, lsl ip
     438:	00000400 	andeq	r0, r0, r0, lsl #8
     43c:	02220f00 	eoreq	r0, r2, #0, 30
     440:	65010000 	strvs	r0, [r1, #-0]
     444:	0000002c 	andeq	r0, r0, ip, lsr #32
     448:	00000242 	andeq	r0, r0, r2, asr #4
     44c:	6e190000 	cdpvs	0, 1, cr0, cr9, cr0, {0}
     450:	01000002 	tsteq	r0, r2
     454:	00002c71 	andeq	r2, r0, r1, ror ip
     458:	04750100 	ldrbteq	r0, [r5], #-256	; 0x100
     45c:	70080000 	andvc	r0, r8, r0
     460:	01006e69 	tsteq	r0, r9, ror #28
     464:	00002c71 	andeq	r2, r0, r1, ror ip
     468:	02b20900 	adcseq	r0, r2, #0, 18
     46c:	72010000 	andvc	r0, r1, #0
     470:	0000002c 	andeq	r0, r0, ip, lsr #32
     474:	044e1a00 	strbeq	r1, [lr], #-2560	; 0xa00
     478:	81fc0000 	mvnshi	r0, r0
     47c:	00400000 	subeq	r0, r0, r0
     480:	9c010000 	stcls	0, cr0, [r1], {-0}
     484:	000004e7 	andeq	r0, r0, r7, ror #9
     488:	00045e1b 	andeq	r5, r4, fp, lsl lr
     48c:	00025500 	andeq	r5, r2, r0, lsl #10
     490:	04691c00 	strbteq	r1, [r9], #-3072	; 0xc00
     494:	02810000 	addeq	r0, r1, #0
     498:	08110000 	ldmdaeq	r1, {}	; <UNPREDICTABLE>
     49c:	6b000082 	blvs	6ac <_start-0x7954>
     4a0:	ae000002 	cdpge	0, 0, cr0, cr0, cr2, {0}
     4a4:	12000004 	andne	r0, r0, #4
     4a8:	74025001 	strvc	r5, [r2], #-1
     4ac:	14110000 	ldrne	r0, [r1], #-0
     4b0:	6b000082 	blvs	6c0 <_start-0x7940>
     4b4:	c2000002 	andgt	r0, r0, #2
     4b8:	12000004 	andne	r0, r0, #4
     4bc:	74025001 	strvc	r5, [r2], #-1
     4c0:	20110000 	andscs	r0, r1, r0
     4c4:	6b000082 	blvs	6d4 <_start-0x792c>
     4c8:	d6000002 	strle	r0, [r0], -r2
     4cc:	12000004 	andne	r0, r0, #4
     4d0:	74025001 	strvc	r5, [r2], #-1
     4d4:	301d0000 	andscc	r0, sp, r0
     4d8:	6b000082 	blvs	6e8 <_start-0x7918>
     4dc:	12000002 	andne	r0, r0, #2
     4e0:	74025001 	strvc	r5, [r2], #-1
     4e4:	1e000000 	cdpne	0, 0, cr0, cr0, cr0, {0}
     4e8:	000000a8 	andeq	r0, r0, r8, lsr #1
     4ec:	823c7f01 	eorshi	r7, ip, #1, 30
     4f0:	020c0000 	andeq	r0, ip, #0
     4f4:	9c010000 	stcls	0, cr0, [r1], {-0}
     4f8:	00000af6 	strdeq	r0, [r0], -r6
     4fc:	6e69700d 	cdpvs	0, 6, cr7, cr9, cr13, {0}
     500:	2c7f0100 	ldfcse	f0, [pc], #-0	; 508 <_start-0x7af8>
     504:	fa000000 	blx	50c <_start-0x7af4>
     508:	1f000002 	svcne	0x00000002
     50c:	00000976 	andeq	r0, r0, r6, ror r9
     510:	004f7f01 	subeq	r7, pc, r1, lsl #30
     514:	031b0000 	tsteq	fp, #0
     518:	851f0000 	ldrhi	r0, [pc, #-0]	; 520 <_start-0x7ae0>
     51c:	01000000 	mrseq	r0, (UNDEF: 0)
     520:	00002c7f 	andeq	r2, r0, pc, ror ip
     524:	00033c00 	andeq	r3, r3, r0, lsl #24
     528:	00691600 	rsbeq	r1, r9, r0, lsl #12
     52c:	002c8001 	eoreq	r8, ip, r1
     530:	0f010000 	svceq	0x00010000
     534:	00000529 	andeq	r0, r0, r9, lsr #10
     538:	002c8101 	eoreq	r8, ip, r1, lsl #2
     53c:	035d0000 	cmpeq	sp, #0
     540:	650b0000 	strvs	r0, [fp, #-0]
     544:	0100646e 	tsteq	r0, lr, ror #8
     548:	00002ca9 	andeq	r2, r0, r9, lsr #25
     54c:	82401000 	subhi	r1, r0, #0
     550:	00040000 	andeq	r0, r4, r0
     554:	056a0000 	strbeq	r0, [sl, #-0]!
     558:	220f0000 	andcs	r0, pc, #0
     55c:	01000002 	tsteq	r0, r2
     560:	00002c81 	andeq	r2, r0, r1, lsl #25
     564:	00035d00 	andeq	r5, r3, r0, lsl #26
     568:	bf200000 	svclt	0x00200000
     56c:	44000000 	strmi	r0, [r0], #-0
     570:	18000082 	stmdane	r0, {r1, r7}
     574:	01000000 	mrseq	r0, (UNDEF: 0)
     578:	0005a695 	muleq	r5, r5, r6
     57c:	00d62100 	sbcseq	r2, r6, r0, lsl #2
     580:	1b000000 	blne	588 <_start-0x7a78>
     584:	000000cb 	andeq	r0, r0, fp, asr #1
     588:	00000370 	andeq	r0, r0, r0, ror r3
     58c:	0000a722 	andeq	sl, r0, r2, lsr #14
     590:	00824400 	addeq	r4, r2, r0, lsl #8
     594:	00001800 	andeq	r1, r0, r0, lsl #16
     598:	1b300100 	blne	c009a0 <__bss_end__+0xbf6610>
     59c:	000000b3 	strheq	r0, [r0], -r3
     5a0:	00000370 	andeq	r0, r0, r0, ror r3
     5a4:	5c100000 	ldcpl	0, cr0, [r0], {-0}
     5a8:	04000082 	streq	r0, [r0], #-130	; 0x82
     5ac:	c3000000 	movwgt	r0, #0
     5b0:	0f000005 	svceq	0x00000005
     5b4:	00000222 	andeq	r0, r0, r2, lsr #4
     5b8:	002c9601 	eoreq	r9, ip, r1, lsl #12
     5bc:	03910000 	orrseq	r0, r1, #0
     5c0:	20000000 	andcs	r0, r0, r0
     5c4:	000000bf 	strheq	r0, [r0], -pc	; <UNPREDICTABLE>
     5c8:	0000826c 	andeq	r8, r0, ip, ror #4
     5cc:	00000024 	andeq	r0, r0, r4, lsr #32
     5d0:	063b9701 	ldrteq	r9, [fp], -r1, lsl #14
     5d4:	d61b0000 	ldrle	r0, [fp], -r0
     5d8:	a4000000 	strge	r0, [r0], #-0
     5dc:	23000003 	movwcs	r0, #3
     5e0:	000000cb 	andeq	r0, r0, fp, asr #1
     5e4:	5001f304 	andpl	pc, r1, r4, lsl #6
     5e8:	0000249f 	muleq	r0, pc, r4	; <UNPREDICTABLE>
     5ec:	06200000 	strteq	r0, [r0], -r0
     5f0:	d61b0000 	ldrle	r0, [fp], -r0
     5f4:	be000000 	cdplt	0, 0, cr0, cr0, cr0, {0}
     5f8:	23000003 	movwcs	r0, #3
     5fc:	000000cb 	andeq	r0, r0, fp, asr #1
     600:	5001f304 	andpl	pc, r1, r4, lsl #6
     604:	008f259f 	umulleq	r2, pc, pc, r5	; <UNPREDICTABLE>
     608:	826c0000 	rsbhi	r0, ip, #0
     60c:	00000000 	andeq	r0, r0, r0
     610:	2e010000 	cdpcs	0, 0, cr0, cr1, cr0, {0}
     614:	00009b23 	andeq	r9, r0, r3, lsr #22
     618:	01f30400 	mvnseq	r0, r0, lsl #8
     61c:	00009f50 	andeq	r9, r0, r0, asr pc
     620:	0000a725 	andeq	sl, r0, r5, lsr #14
     624:	00827800 	addeq	r7, r2, r0, lsl #16
     628:	00002800 	andeq	r2, r0, r0, lsl #16
     62c:	23300100 	teqcs	r0, #0, 2
     630:	000000b3 	strheq	r0, [r0], -r3
     634:	5001f304 	andpl	pc, r1, r4, lsl #6
     638:	1000009f 	mulne	r0, pc, r0	; <UNPREDICTABLE>
     63c:	00008290 	muleq	r0, r0, r2
     640:	00000004 	andeq	r0, r0, r4
     644:	00000658 	andeq	r0, r0, r8, asr r6
     648:	0002220f 	andeq	r2, r2, pc, lsl #4
     64c:	2c980100 	ldfcss	f0, [r8], {0}
     650:	52000000 	andpl	r0, r0, #0
     654:	00000004 	andeq	r0, r0, r4
     658:	0000bf20 	andeq	fp, r0, r0, lsr #30
     65c:	0082a000 	addeq	sl, r2, r0
     660:	00002400 	andeq	r2, r0, r0, lsl #8
     664:	d0990100 	addsle	r0, r9, r0, lsl #2
     668:	1b000006 	blne	688 <_start-0x7978>
     66c:	000000d6 	ldrdeq	r0, [r0], -r6
     670:	00000465 	andeq	r0, r0, r5, ror #8
     674:	0000cb23 	andeq	ip, r0, r3, lsr #22
     678:	01f30400 	mvnseq	r0, r0, lsl #8
     67c:	48249f50 	stmdami	r4!, {r4, r6, r8, r9, sl, fp, ip, pc}
     680:	b5000000 	strlt	r0, [r0, #-0]
     684:	1b000006 	blne	6a4 <_start-0x795c>
     688:	000000d6 	ldrdeq	r0, [r0], -r6
     68c:	0000047f 	andeq	r0, r0, pc, ror r4
     690:	0000cb23 	andeq	ip, r0, r3, lsr #22
     694:	01f30400 	mvnseq	r0, r0, lsl #8
     698:	8f259f50 	svchi	0x00259f50
     69c:	a0000000 	andge	r0, r0, r0
     6a0:	48000082 	stmdami	r0, {r1, r7}
     6a4:	01000000 	mrseq	r0, (UNDEF: 0)
     6a8:	009b232e 	addseq	r2, fp, lr, lsr #6
     6ac:	f3040000 	vhadd.u8	d0, d4, d0
     6b0:	009f5001 	addseq	r5, pc, r1
     6b4:	00a72500 	adceq	r2, r7, r0, lsl #10
     6b8:	82ac0000 	adchi	r0, ip, #0
     6bc:	00700000 	rsbseq	r0, r0, r0
     6c0:	30010000 	andcc	r0, r1, r0
     6c4:	0000b323 	andeq	fp, r0, r3, lsr #6
     6c8:	01f30400 	mvnseq	r0, r0, lsl #8
     6cc:	00009f50 	andeq	r9, r0, r0, asr pc
     6d0:	0082c410 	addeq	ip, r2, r0, lsl r4
     6d4:	00000400 	andeq	r0, r0, r0, lsl #8
     6d8:	0006ed00 	andeq	lr, r6, r0, lsl #26
     6dc:	02220f00 	eoreq	r0, r2, #0, 30
     6e0:	9a010000 	bls	406e8 <__bss_end__+0x36358>
     6e4:	0000002c 	andeq	r0, r0, ip, lsr #32
     6e8:	00000501 	andeq	r0, r0, r1, lsl #10
     6ec:	00bf2000 	adcseq	r2, pc, r0
     6f0:	82d40000 	sbcshi	r0, r4, #0
     6f4:	00240000 	eoreq	r0, r4, r0
     6f8:	9b010000 	blls	40700 <__bss_end__+0x36370>
     6fc:	00000765 	andeq	r0, r0, r5, ror #14
     700:	0000d61b 	andeq	sp, r0, fp, lsl r6
     704:	00051400 	andeq	r1, r5, r0, lsl #8
     708:	00cb2300 	sbceq	r2, fp, r0, lsl #6
     70c:	f3040000 	vhadd.u8	d0, d4, d0
     710:	249f5001 	ldrcs	r5, [pc], #1	; 718 <_start-0x78e8>
     714:	00000090 	muleq	r0, r0, r0
     718:	0000074a 	andeq	r0, r0, sl, asr #14
     71c:	0000d61b 	andeq	sp, r0, fp, lsl r6
     720:	00052e00 	andeq	r2, r5, r0, lsl #28
     724:	00cb2300 	sbceq	r2, fp, r0, lsl #6
     728:	f3040000 	vhadd.u8	d0, d4, d0
     72c:	259f5001 	ldrcs	r5, [pc, #1]	; 735 <_start-0x78cb>
     730:	0000008f 	andeq	r0, r0, pc, lsl #1
     734:	000082d4 	ldrdeq	r8, [r0], -r4
     738:	00000090 	muleq	r0, r0, r0
     73c:	9b232e01 	blls	8cbf48 <__bss_end__+0x8c1bb8>
     740:	04000000 	streq	r0, [r0], #-0
     744:	9f5001f3 	svcls	0x005001f3
     748:	a7250000 	strge	r0, [r5, -r0]!
     74c:	e0000000 	and	r0, r0, r0
     750:	b8000082 	stmdalt	r0, {r1, r7}
     754:	01000000 	mrseq	r0, (UNDEF: 0)
     758:	00b32330 	adcseq	r2, r3, r0, lsr r3
     75c:	f3040000 	vhadd.u8	d0, d4, d0
     760:	009f5001 	addseq	r5, pc, r1
     764:	82f81000 	rscshi	r1, r8, #0
     768:	00040000 	andeq	r0, r4, r0
     76c:	07820000 	streq	r0, [r2, r0]
     770:	220f0000 	andcs	r0, pc, #0
     774:	01000002 	tsteq	r0, r2
     778:	00002c9c 	muleq	r0, ip, ip
     77c:	00059e00 	andeq	r9, r5, r0, lsl #28
     780:	bf200000 	svclt	0x00200000
     784:	08000000 	stmdaeq	r0, {}	; <UNPREDICTABLE>
     788:	24000083 	strcs	r0, [r0], #-131	; 0x83
     78c:	01000000 	mrseq	r0, (UNDEF: 0)
     790:	0007fa9d 	muleq	r7, sp, sl
     794:	00d61b00 	sbcseq	r1, r6, r0, lsl #22
     798:	05b10000 	ldreq	r0, [r1, #0]!
     79c:	cb230000 	blgt	8c07a4 <__bss_end__+0x8b6414>
     7a0:	04000000 	streq	r0, [r0], #-0
     7a4:	9f5001f3 	svcls	0x005001f3
     7a8:	0000d824 	andeq	sp, r0, r4, lsr #16
     7ac:	0007df00 	andeq	sp, r7, r0, lsl #30
     7b0:	00d61b00 	sbcseq	r1, r6, r0, lsl #22
     7b4:	05cb0000 	strbeq	r0, [fp]
     7b8:	cb230000 	blgt	8c07c0 <__bss_end__+0x8b6430>
     7bc:	04000000 	streq	r0, [r0], #-0
     7c0:	9f5001f3 	svcls	0x005001f3
     7c4:	00008f25 	andeq	r8, r0, r5, lsr #30
     7c8:	00830800 	addeq	r0, r3, r0, lsl #16
     7cc:	0000d800 	andeq	sp, r0, r0, lsl #16
     7d0:	232e0100 	teqcs	lr, #0, 2
     7d4:	0000009b 	muleq	r0, fp, r0
     7d8:	5001f304 	andpl	pc, r1, r4, lsl #6
     7dc:	2500009f 	strcs	r0, [r0, #-159]	; 0x9f
     7e0:	000000a7 	andeq	r0, r0, r7, lsr #1
     7e4:	00008314 	andeq	r8, r0, r4, lsl r3
     7e8:	00000100 	andeq	r0, r0, r0, lsl #2
     7ec:	b3233001 	teqlt	r3, #1
     7f0:	04000000 	streq	r0, [r0], #-0
     7f4:	9f5001f3 	svcls	0x005001f3
     7f8:	2c100000 	ldccs	0, cr0, [r0], {-0}
     7fc:	04000083 	streq	r0, [r0], #-131	; 0x83
     800:	17000000 	strne	r0, [r0, -r0]
     804:	0f000008 	svceq	0x00000008
     808:	00000222 	andeq	r0, r0, r2, lsr #4
     80c:	002c9e01 	eoreq	r9, ip, r1, lsl #28
     810:	06290000 	strteq	r0, [r9], -r0
     814:	20000000 	andcs	r0, r0, r0
     818:	000000bf 	strheq	r0, [r0], -pc	; <UNPREDICTABLE>
     81c:	0000833c 	andeq	r8, r0, ip, lsr r3
     820:	00000028 	andeq	r0, r0, r8, lsr #32
     824:	088f9f01 	stmeq	pc, {r0, r8, r9, sl, fp, ip, pc}	; <UNPREDICTABLE>
     828:	d61b0000 	ldrle	r0, [fp], -r0
     82c:	3c000000 	stccc	0, cr0, [r0], {-0}
     830:	23000006 	movwcs	r0, #6
     834:	000000cb 	andeq	r0, r0, fp, asr #1
     838:	5001f304 	andpl	pc, r1, r4, lsl #6
     83c:	0120249f 			; <UNDEFINED> instruction: 0x0120249f
     840:	08740000 	ldmdaeq	r4!, {}^	; <UNPREDICTABLE>
     844:	d61b0000 	ldrle	r0, [fp], -r0
     848:	56000000 	strpl	r0, [r0], -r0
     84c:	23000006 	movwcs	r0, #6
     850:	000000cb 	andeq	r0, r0, fp, asr #1
     854:	5001f304 	andpl	pc, r1, r4, lsl #6
     858:	008f259f 	umulleq	r2, pc, pc, r5	; <UNPREDICTABLE>
     85c:	833c0000 	teqhi	ip, #0
     860:	01200000 	teqeq	r0, r0
     864:	2e010000 	cdpcs	0, 0, cr0, cr1, cr0, {0}
     868:	00009b23 	andeq	r9, r0, r3, lsr #22
     86c:	01f30400 	mvnseq	r0, r0, lsl #8
     870:	00009f50 	andeq	r9, r0, r0, asr pc
     874:	0000a725 	andeq	sl, r0, r5, lsr #14
     878:	00834800 	addeq	r4, r3, r0, lsl #16
     87c:	00014800 	andeq	r4, r1, r0, lsl #16
     880:	23300100 	teqcs	r0, #0, 2
     884:	000000b3 	strheq	r0, [r0], -r3
     888:	5001f304 	andpl	pc, r1, r4, lsl #6
     88c:	1000009f 	mulne	r0, pc, r0	; <UNPREDICTABLE>
     890:	00008364 	andeq	r8, r0, r4, ror #6
     894:	00000004 	andeq	r0, r0, r4
     898:	000008ac 	andeq	r0, r0, ip, lsr #17
     89c:	0002220f 	andeq	r2, r2, pc, lsl #4
     8a0:	2ca00100 	stfcss	f0, [r0]
     8a4:	a2000000 	andge	r0, r0, #0
     8a8:	00000006 	andeq	r0, r0, r6
     8ac:	0000bf20 	andeq	fp, r0, r0, lsr #30
     8b0:	00837400 	addeq	r7, r3, r0, lsl #8
     8b4:	00002800 	andeq	r2, r0, r0, lsl #16
     8b8:	24a10100 	strtcs	r0, [r1], #256	; 0x100
     8bc:	1b000009 	blne	8e8 <_start-0x7718>
     8c0:	000000d6 	ldrdeq	r0, [r0], -r6
     8c4:	000006b5 			; <UNDEFINED> instruction: 0x000006b5
     8c8:	0000cb23 	andeq	ip, r0, r3, lsr #22
     8cc:	01f30400 	mvnseq	r0, r0, lsl #8
     8d0:	68249f50 	stmdavs	r4!, {r4, r6, r8, r9, sl, fp, ip, pc}
     8d4:	09000001 	stmdbeq	r0, {r0}
     8d8:	1b000009 	blne	904 <_start-0x76fc>
     8dc:	000000d6 	ldrdeq	r0, [r0], -r6
     8e0:	000006d0 	ldrdeq	r0, [r0], -r0	; <UNPREDICTABLE>
     8e4:	0000cb23 	andeq	ip, r0, r3, lsr #22
     8e8:	01f30400 	mvnseq	r0, r0, lsl #8
     8ec:	8f259f50 	svchi	0x00259f50
     8f0:	74000000 	strvc	r0, [r0], #-0
     8f4:	68000083 	stmdavs	r0, {r0, r1, r7}
     8f8:	01000001 	tsteq	r0, r1
     8fc:	009b232e 	addseq	r2, fp, lr, lsr #6
     900:	f3040000 	vhadd.u8	d0, d4, d0
     904:	009f5001 	addseq	r5, pc, r1
     908:	00a72500 	adceq	r2, r7, r0, lsl #10
     90c:	83800000 	orrhi	r0, r0, #0
     910:	01900000 	orrseq	r0, r0, r0
     914:	30010000 	andcc	r0, r1, r0
     918:	0000b323 	andeq	fp, r0, r3, lsr #6
     91c:	01f30400 	mvnseq	r0, r0, lsl #8
     920:	00009f50 	andeq	r9, r0, r0, asr pc
     924:	00839c10 	addeq	r9, r3, r0, lsl ip
     928:	00000400 	andeq	r0, r0, r0, lsl #8
     92c:	00094100 	andeq	r4, r9, r0, lsl #2
     930:	02220f00 	eoreq	r0, r2, #0, 30
     934:	a2010000 	andge	r0, r1, #0
     938:	0000002c 	andeq	r0, r0, ip, lsr #32
     93c:	0000070a 	andeq	r0, r0, sl, lsl #14
     940:	00bf2000 	adcseq	r2, pc, r0
     944:	83ac0000 			; <UNDEFINED> instruction: 0x83ac0000
     948:	00200000 	eoreq	r0, r0, r0
     94c:	a3010000 	movwge	r0, #4096	; 0x1000
     950:	000009b9 			; <UNDEFINED> instruction: 0x000009b9
     954:	0000d61b 	andeq	sp, r0, fp, lsl r6
     958:	00071d00 	andeq	r1, r7, r0, lsl #26
     95c:	00cb2300 	sbceq	r2, fp, r0, lsl #6
     960:	f3040000 	vhadd.u8	d0, d4, d0
     964:	249f5001 	ldrcs	r5, [pc], #1	; 96c <_start-0x7694>
     968:	000001b0 			; <UNDEFINED> instruction: 0x000001b0
     96c:	0000099e 	muleq	r0, lr, r9
     970:	0000d61b 	andeq	sp, r0, fp, lsl r6
     974:	00073800 	andeq	r3, r7, r0, lsl #16
     978:	00cb2300 	sbceq	r2, fp, r0, lsl #6
     97c:	f3040000 	vhadd.u8	d0, d4, d0
     980:	259f5001 	ldrcs	r5, [pc, #1]	; 989 <_start-0x7677>
     984:	0000008f 	andeq	r0, r0, pc, lsl #1
     988:	000083ac 	andeq	r8, r0, ip, lsr #7
     98c:	000001b0 			; <UNDEFINED> instruction: 0x000001b0
     990:	9b232e01 	blls	8cc19c <__bss_end__+0x8c1e0c>
     994:	04000000 	streq	r0, [r0], #-0
     998:	9f5001f3 	svcls	0x005001f3
     99c:	a7250000 	strge	r0, [r5, -r0]!
     9a0:	b8000000 	stmdalt	r0, {}	; <UNPREDICTABLE>
     9a4:	d8000083 	stmdale	r0, {r0, r1, r7}
     9a8:	01000001 	tsteq	r0, r1
     9ac:	00b32330 	adcseq	r2, r3, r0, lsr r3
     9b0:	f3040000 	vhadd.u8	d0, d4, d0
     9b4:	009f5001 	addseq	r5, pc, r1
     9b8:	83cc1000 	bichi	r1, ip, #0
     9bc:	00040000 	andeq	r0, r4, r0
     9c0:	09d60000 	ldmibeq	r6, {}^	; <UNPREDICTABLE>
     9c4:	220f0000 	andcs	r0, pc, #0
     9c8:	01000002 	tsteq	r0, r2
     9cc:	00002ca4 	andeq	r2, r0, r4, lsr #25
     9d0:	00075f00 	andeq	r5, r7, r0, lsl #30
     9d4:	bf200000 	svclt	0x00200000
     9d8:	dc000000 	stcle	0, cr0, [r0], {-0}
     9dc:	24000083 	strcs	r0, [r0], #-131	; 0x83
     9e0:	01000000 	mrseq	r0, (UNDEF: 0)
     9e4:	000a4ea5 	andeq	r4, sl, r5, lsr #29
     9e8:	00d61b00 	sbcseq	r1, r6, r0, lsl #22
     9ec:	07720000 	ldrbeq	r0, [r2, -r0]!
     9f0:	cb230000 	blgt	8c09f8 <__bss_end__+0x8b6668>
     9f4:	04000000 	streq	r0, [r0], #-0
     9f8:	9f5001f3 	svcls	0x005001f3
     9fc:	0001f824 	andeq	pc, r1, r4, lsr #16
     a00:	000a3300 	andeq	r3, sl, r0, lsl #6
     a04:	00d61b00 	sbcseq	r1, r6, r0, lsl #22
     a08:	078d0000 	streq	r0, [sp, r0]
     a0c:	cb230000 	blgt	8c0a14 <__bss_end__+0x8b6684>
     a10:	04000000 	streq	r0, [r0], #-0
     a14:	9f5001f3 	svcls	0x005001f3
     a18:	00008f25 	andeq	r8, r0, r5, lsr #30
     a1c:	0083e000 	addeq	lr, r3, r0
     a20:	0001f800 	andeq	pc, r1, r0, lsl #16
     a24:	232e0100 	teqcs	lr, #0, 2
     a28:	0000009b 	muleq	r0, fp, r0
     a2c:	5001f304 	andpl	pc, r1, r4, lsl #6
     a30:	2500009f 	strcs	r0, [r0, #-159]	; 0x9f
     a34:	000000a7 	andeq	r0, r0, r7, lsr #1
     a38:	000083ec 	andeq	r8, r0, ip, ror #7
     a3c:	00000218 	andeq	r0, r0, r8, lsl r2
     a40:	b3233001 	teqlt	r3, #1
     a44:	04000000 	streq	r0, [r0], #-0
     a48:	9f5001f3 	svcls	0x005001f3
     a4c:	00100000 	andseq	r0, r0, r0
     a50:	04000084 	streq	r0, [r0], #-132	; 0x84
     a54:	6b000000 	blvs	a5c <_start-0x75a4>
     a58:	0f00000a 	svceq	0x0000000a
     a5c:	00000222 	andeq	r0, r0, r2, lsr #4
     a60:	002ca601 	eoreq	sl, ip, r1, lsl #12
     a64:	07a10000 	streq	r0, [r1, r0]!
     a68:	20000000 	andcs	r0, r0, r0
     a6c:	000000bf 	strheq	r0, [r0], -pc	; <UNPREDICTABLE>
     a70:	00008410 	andeq	r8, r0, r0, lsl r4
     a74:	00000018 	andeq	r0, r0, r8, lsl r0
     a78:	0ac3a701 	beq	ff0ea684 <__bss_end__+0xff0e02f4>
     a7c:	d6210000 	strtle	r0, [r1], -r0
     a80:	01000000 	mrseq	r0, (UNDEF: 0)
     a84:	0000cb23 	andeq	ip, r0, r3, lsr #22
     a88:	01f30400 	mvnseq	r0, r0, lsl #8
     a8c:	10189f50 	andsne	r9, r8, r0, asr pc
     a90:	18000084 	stmdane	r0, {r2, r7}
     a94:	21000000 	mrscs	r0, (UNDEF: 0)
     a98:	000000d6 	ldrdeq	r0, [r0], -r6
     a9c:	00cb2301 	sbceq	r2, fp, r1, lsl #6
     aa0:	f3040000 	vhadd.u8	d0, d4, d0
     aa4:	229f5001 	addscs	r5, pc, #1
     aa8:	0000008f 	andeq	r0, r0, pc, lsl #1
     aac:	00008410 	andeq	r8, r0, r0, lsl r4
     ab0:	00000018 	andeq	r0, r0, r8, lsl r0
     ab4:	9b232e01 	blls	8cc2c0 <__bss_end__+0x8c1f30>
     ab8:	04000000 	streq	r0, [r0], #-0
     abc:	9f5001f3 	svcls	0x005001f3
     ac0:	10000000 	andne	r0, r0, r0
     ac4:	00008428 	andeq	r8, r0, r8, lsr #8
     ac8:	00000004 	andeq	r0, r0, r4
     acc:	00000ae0 	andeq	r0, r0, r0, ror #21
     ad0:	0002220f 	andeq	r2, r2, pc, lsl #4
     ad4:	2ca80100 	stfcss	f0, [r8]
     ad8:	b4000000 	strlt	r0, [r0], #-0
     adc:	00000007 	andeq	r0, r0, r7
     ae0:	00843818 	addeq	r3, r4, r8, lsl r8
     ae4:	00000400 	andeq	r0, r0, r0, lsl #8
     ae8:	02220900 	eoreq	r0, r2, #0, 18
     aec:	a9010000 	stmdbge	r1, {}	; <UNPREDICTABLE>
     af0:	0000002c 	andeq	r0, r0, ip, lsr #32
     af4:	b11e0000 	tstlt	lr, r0
     af8:	01000000 	mrseq	r0, (UNDEF: 0)
     afc:	008448e1 	addeq	r4, r4, r1, ror #17
     b00:	0001bc00 	andeq	fp, r1, r0, lsl #24
     b04:	749c0100 	ldrvc	r0, [ip], #256	; 0x100
     b08:	1600000e 	strne	r0, [r0], -lr
     b0c:	01007872 	tsteq	r0, r2, ror r8
     b10:	000025e2 	andeq	r2, r0, r2, ror #11
     b14:	74161400 	ldrvc	r1, [r6], #-1024	; 0x400
     b18:	e3010078 	movw	r0, #4216	; 0x1078
     b1c:	00000025 	andeq	r0, r0, r5, lsr #32
     b20:	008f2615 	addeq	r2, pc, r5, lsl r6	; <UNPREDICTABLE>
     b24:	84600000 	strbthi	r0, [r0], #-0
     b28:	02380000 	eorseq	r0, r8, #0
     b2c:	e7010000 	str	r0, [r1, -r0]
     b30:	00000b3b 	andeq	r0, r0, fp, lsr fp
     b34:	00009b21 	andeq	r9, r0, r1, lsr #22
     b38:	10001500 	andne	r1, r0, r0, lsl #10
     b3c:	00008478 	andeq	r8, r0, r8, ror r4
     b40:	00000008 	andeq	r0, r0, r8
     b44:	00000b54 	andeq	r0, r0, r4, asr fp
     b48:	006e6916 	rsbeq	r6, lr, r6, lsl r9
     b4c:	002ce901 	eoreq	lr, ip, r1, lsl #18
     b50:	00010000 	andeq	r0, r1, r0
     b54:	0000e020 	andeq	lr, r0, r0, lsr #32
     b58:	00849000 	addeq	r9, r4, r0
     b5c:	0000fc00 	andeq	pc, r0, r0, lsl #24
     b60:	5fec0100 	svcpl	0x00ec0100
     b64:	1b00000d 	blne	ba0 <_start-0x7460>
     b68:	000000ec 	andeq	r0, r0, ip, ror #1
     b6c:	000007c7 	andeq	r0, r0, r7, asr #15
     b70:	0000f61b 	andeq	pc, r0, fp, lsl r6	; <UNPREDICTABLE>
     b74:	0007db00 	andeq	sp, r7, r0, lsl #22
     b78:	01001b00 	tsteq	r0, r0, lsl #22
     b7c:	07ef0000 	strbeq	r0, [pc, r0]!
     b80:	90180000 	andsls	r0, r8, r0
     b84:	fc000084 	stc2	0, cr0, [r0], {132}	; 0x84
     b88:	1c000000 	stcne	0, cr0, [r0], {-0}
     b8c:	00000109 	andeq	r0, r0, r9, lsl #2
     b90:	00000804 	andeq	r0, r0, r4, lsl #16
     b94:	0001141c 	andeq	r1, r1, ip, lsl r4
     b98:	00082f00 	andeq	r2, r8, r0, lsl #30
     b9c:	011f1c00 	tsteq	pc, r0, lsl #24
     ba0:	084e0000 	stmdaeq	lr, {}^	; <UNPREDICTABLE>
     ba4:	4e200000 	cdpmi	0, 2, cr0, cr0, cr0, {0}
     ba8:	f8000004 			; <UNDEFINED> instruction: 0xf8000004
     bac:	38000084 	stmdacc	r0, {r2, r7}
     bb0:	01000000 	mrseq	r0, (UNDEF: 0)
     bb4:	000c1ebf 			; <UNDEFINED> instruction: 0x000c1ebf
     bb8:	045e1b00 	ldrbeq	r1, [lr], #-2816	; 0xb00
     bbc:	08620000 	stmdaeq	r2!, {}^	; <UNPREDICTABLE>
     bc0:	f8180000 			; <UNDEFINED> instruction: 0xf8180000
     bc4:	38000084 	stmdacc	r0, {r2, r7}
     bc8:	1c000000 	stcne	0, cr0, [r0], {-0}
     bcc:	00000469 	andeq	r0, r0, r9, ror #8
     bd0:	00000876 	andeq	r0, r0, r6, ror r8
     bd4:	00850011 	addeq	r0, r5, r1, lsl r0
     bd8:	00026b00 	andeq	r6, r2, r0, lsl #22
     bdc:	000be700 	andeq	lr, fp, r0, lsl #14
     be0:	50011200 	andpl	r1, r1, r0, lsl #4
     be4:	11004401 	tstne	r0, r1, lsl #8
     be8:	0000850c 	andeq	r8, r0, ip, lsl #10
     bec:	0000026b 	andeq	r0, r0, fp, ror #4
     bf0:	00000bfa 	strdeq	r0, [r0], -sl
     bf4:	01500112 	cmpeq	r0, r2, lsl r1
     bf8:	18110044 	ldmdane	r1, {r2, r6}
     bfc:	6b000085 	blvs	e18 <_start-0x71e8>
     c00:	0d000002 	stceq	0, cr0, [r0, #-8]
     c04:	1200000c 	andne	r0, r0, #12
     c08:	44015001 	strmi	r5, [r1], #-1
     c0c:	85281d00 	strhi	r1, [r8, #-3328]!	; 0xd00
     c10:	026b0000 	rsbeq	r0, fp, #0
     c14:	01120000 	tsteq	r2, r0
     c18:	00440150 	subeq	r0, r4, r0, asr r1
     c1c:	98110000 	ldmdals	r1, {}	; <UNPREDICTABLE>
     c20:	87000084 	strhi	r0, [r0, -r4, lsl #1]
     c24:	3500000f 	strcc	r0, [r0, #-15]
     c28:	1200000c 	andne	r0, r0, #12
     c2c:	03055001 	movweq	r5, #20481	; 0x5001
     c30:	00009cfc 	strdeq	r9, [r0], -ip
     c34:	84a81100 	strthi	r1, [r8], #256	; 0x100
     c38:	04e70000 	strbteq	r0, [r7], #0
     c3c:	0c550000 	mraeq	r0, r5, acc0
     c40:	01120000 	tsteq	r2, r0
     c44:	bc0a0352 	stclt	3, cr0, [sl], {82}	; 0x52
     c48:	51011217 	tstpl	r1, r7, lsl r2
     c4c:	12007402 	andne	r7, r0, #33554432	; 0x2000000
     c50:	45015001 	strmi	r5, [r1, #-1]
     c54:	84b81100 	ldrthi	r1, [r8], #256	; 0x100
     c58:	04e70000 	strbteq	r0, [r7], #0
     c5c:	0c750000 	ldcleq	0, cr0, [r5], #-0
     c60:	01120000 	tsteq	r2, r0
     c64:	bc0a0352 	stclt	3, cr0, [sl], {82}	; 0x52
     c68:	51011217 	tstpl	r1, r7, lsl r2
     c6c:	12007402 	andne	r7, r0, #33554432	; 0x2000000
     c70:	45015001 	strmi	r5, [r1, #-1]
     c74:	84c81100 	strbhi	r1, [r8], #256	; 0x100
     c78:	04e70000 	strbteq	r0, [r7], #0
     c7c:	0c950000 	ldceq	0, cr0, [r5], {0}
     c80:	01120000 	tsteq	r2, r0
     c84:	bc0a0352 	stclt	3, cr0, [sl], {82}	; 0x52
     c88:	51011217 	tstpl	r1, r7, lsl r2
     c8c:	12007402 	andne	r7, r0, #33554432	; 0x2000000
     c90:	45015001 	strmi	r5, [r1, #-1]
     c94:	84dc1100 	ldrbhi	r1, [ip], #256	; 0x100
     c98:	04e70000 	strbteq	r0, [r7], #0
     c9c:	0cb50000 	ldceq	0, cr0, [r5]
     ca0:	01120000 	tsteq	r2, r0
     ca4:	bc0a0352 	stclt	3, cr0, [sl], {82}	; 0x52
     ca8:	51011217 	tstpl	r1, r7, lsl r2
     cac:	12007402 	andne	r7, r0, #33554432	; 0x2000000
     cb0:	45015001 	strmi	r5, [r1, #-1]
     cb4:	84f01100 	ldrbthi	r1, [r0], #256	; 0x100
     cb8:	0f870000 	svceq	0x00870000
     cbc:	0cd20000 	ldcleq	0, cr0, [r2], {0}
     cc0:	01120000 	tsteq	r2, r0
     cc4:	00740251 	rsbseq	r0, r4, r1, asr r2
     cc8:	05500112 	ldrbeq	r0, [r0, #-274]	; 0x112
     ccc:	009d1403 	addseq	r1, sp, r3, lsl #8
     cd0:	4c110000 	ldcmi	0, cr0, [r1], {-0}
     cd4:	e7000085 	str	r0, [r0, -r5, lsl #1]
     cd8:	f4000004 	vst4.8	{d0-d3}, [r0], r4
     cdc:	1200000c 	andne	r0, r0, #12
     ce0:	0a035201 	beq	d54ec <__bss_end__+0xcb15c>
     ce4:	011217bc 			; <UNDEFINED> instruction: 0x011217bc
     ce8:	00760451 	rsbseq	r0, r6, r1, asr r4
     cec:	01122548 	tsteq	r2, r8, asr #10
     cf0:	00450150 	subeq	r0, r5, r0, asr r1
     cf4:	00856011 	addeq	r6, r5, r1, lsl r0
     cf8:	0004e700 	andeq	lr, r4, r0, lsl #14
     cfc:	000d1b00 	andeq	r1, sp, r0, lsl #22
     d00:	52011200 	andpl	r1, r1, #0, 4
     d04:	17bc0a03 	ldrne	r0, [ip, r3, lsl #20]!
     d08:	09510112 	ldmdbeq	r1, {r1, r4, r8}^
     d0c:	ff080076 			; <UNDEFINED> instruction: 0xff080076
     d10:	401a2440 	andsmi	r2, sl, r0, asr #8
     d14:	50011225 	andpl	r1, r1, r5, lsr #4
     d18:	11004501 	tstne	r0, r1, lsl #10
     d1c:	00008574 	andeq	r8, r0, r4, ror r5
     d20:	000004e7 	andeq	r0, r0, r7, ror #9
     d24:	00000d41 	andeq	r0, r0, r1, asr #26
     d28:	03520112 	cmpeq	r2, #-2147483644	; 0x80000004
     d2c:	1217bc0a 	andsne	fp, r7, #2560	; 0xa00
     d30:	76085101 	strvc	r5, [r8], -r1, lsl #2
     d34:	ff000a00 			; <UNDEFINED> instruction: 0xff000a00
     d38:	1225381a 	eorne	r3, r5, #1703936	; 0x1a0000
     d3c:	45015001 	strmi	r5, [r1, #-1]
     d40:	85881d00 	strhi	r1, [r8, #3328]	; 0xd00
     d44:	04e70000 	strbteq	r0, [r7], #0
     d48:	01120000 	tsteq	r2, r0
     d4c:	bc0a0352 	stclt	3, cr0, [sl], {82}	; 0x52
     d50:	51011217 	tstpl	r1, r7, lsl r2
     d54:	12007602 	andne	r7, r0, #2097152	; 0x200000
     d58:	45015001 	strmi	r5, [r1, #-1]
     d5c:	26000000 	strcs	r0, [r0], -r0
     d60:	0000012b 	andeq	r0, r0, fp, lsr #2
     d64:	0000858c 	andeq	r8, r0, ip, lsl #11
     d68:	00000250 	andeq	r0, r0, r0, asr r2
     d6c:	0e13ee01 	cdpeq	14, 1, cr14, cr3, cr1, {0}
     d70:	37210000 	strcc	r0, [r1, -r0]!
     d74:	15000001 	strne	r0, [r0, #-1]
     d78:	00014121 	andeq	r4, r1, r1, lsr #2
     d7c:	4b211400 	blmi	845d84 <__bss_end__+0x83b9f4>
     d80:	fe000001 	cdp2	0, 0, cr0, cr0, cr1, {0}
     d84:	00025027 	andeq	r5, r2, r7, lsr #32
     d88:	01541c00 	cmpeq	r4, r0, lsl #24
     d8c:	08f00000 	ldmeq	r0!, {}^	; <UNPREDICTABLE>
     d90:	5f1c0000 	svcpl	0x001c0000
     d94:	0f000001 	svceq	0x00000001
     d98:	10000009 	andne	r0, r0, r9
     d9c:	000085b4 			; <UNDEFINED> instruction: 0x000085b4
     da0:	00000050 	andeq	r0, r0, r0, asr r0
     da4:	00000de1 	andeq	r0, r0, r1, ror #27
     da8:	00016b1c 	andeq	r6, r1, ip, lsl fp
     dac:	00092e00 	andeq	r2, r9, r0, lsl #28
     db0:	85c41100 	strbhi	r1, [r4, #256]	; 0x100
     db4:	026b0000 	rsbeq	r0, fp, #0
     db8:	0dc40000 	stcleq	0, cr0, [r4]
     dbc:	01120000 	tsteq	r2, r0
     dc0:	00440150 	subeq	r0, r4, r0, asr r1
     dc4:	0085e41d 	addeq	lr, r5, sp, lsl r4
     dc8:	0004e700 	andeq	lr, r4, r0, lsl #14
     dcc:	52011200 	andpl	r1, r1, #0, 4
     dd0:	17bc0a03 	ldrne	r0, [ip, r3, lsl #20]!
     dd4:	02510112 	subseq	r0, r1, #-2147483644	; 0x80000004
     dd8:	01120076 	tsteq	r2, r6, ror r0
     ddc:	00450150 	subeq	r0, r5, r0, asr r1
     de0:	85981100 	ldrhi	r1, [r8, #256]	; 0x100
     de4:	0f870000 	svceq	0x00870000
     de8:	0dfe0000 	ldcleq	0, cr0, [lr]
     dec:	01120000 	tsteq	r2, r0
     df0:	00760251 	rsbseq	r0, r6, r1, asr r2
     df4:	05500112 	ldrbeq	r0, [r0, #-274]	; 0x112
     df8:	009d1c03 	addseq	r1, sp, r3, lsl #24
     dfc:	a81d0000 	ldmdage	sp, {}	; <UNPREDICTABLE>
     e00:	87000085 	strhi	r0, [r0, -r5, lsl #1]
     e04:	1200000f 	andne	r0, r0, #15
     e08:	03055001 	movweq	r5, #20481	; 0x5001
     e0c:	00009d38 	andeq	r9, r0, r8, lsr sp
     e10:	11000000 	mrsne	r0, (UNDEF: 0)
     e14:	00008454 	andeq	r8, r0, r4, asr r4
     e18:	00000fa4 	andeq	r0, r0, r4, lsr #31
     e1c:	00000e26 	andeq	r0, r0, r6, lsr #28
     e20:	01500112 	cmpeq	r0, r2, lsl r1
     e24:	5c110045 	ldcpl	0, cr0, [r1], {69}	; 0x45
     e28:	b5000084 	strlt	r0, [r0, #-132]	; 0x84
     e2c:	3900000f 	stmdbcc	r0, {r0, r1, r2, r3}
     e30:	1200000e 	andne	r0, r0, #14
     e34:	44015001 	strmi	r5, [r1], #-1
     e38:	84601300 	strbthi	r1, [r0], #-768	; 0x300
     e3c:	0fc60000 	svceq	0x00c60000
     e40:	78110000 	ldmdavc	r1, {}	; <UNPREDICTABLE>
     e44:	6f000084 	svcvs	0x00000084
     e48:	5700000f 	strpl	r0, [r0, -pc]
     e4c:	1200000e 	andne	r0, r0, #14
     e50:	0a035001 	beq	d4e5c <__bss_end__+0xcaacc>
     e54:	11001b58 	tstne	r0, r8, asr fp
     e58:	00008488 	andeq	r8, r0, r8, lsl #9
     e5c:	00000fcd 	andeq	r0, r0, sp, asr #31
     e60:	00000e6a 	andeq	r0, r0, sl, ror #28
     e64:	01500112 	cmpeq	r0, r2, lsl r1
     e68:	9c130044 	ldcls	0, cr0, [r3], {68}	; 0x44
     e6c:	9d000085 	stcls	0, cr0, [r0, #-532]	; 0xfffffdec
     e70:	0000000f 	andeq	r0, r0, pc
     e74:	00019128 	andeq	r9, r1, r8, lsr #2
     e78:	830a0100 	movwhi	r0, #41216	; 0xa100
     e7c:	0000000e 	andeq	r0, r0, lr
     e80:	05202000 	streq	r2, [r0, #-0]!
     e84:	000e8904 	andeq	r8, lr, r4, lsl #18
     e88:	002c2900 	eoreq	r2, ip, r0, lsl #18
     e8c:	5e280000 	cdppl	0, 2, cr0, cr8, cr0, {0}
     e90:	01000002 	tsteq	r0, r2
     e94:	000e830b 	andeq	r8, lr, fp, lsl #6
     e98:	20001c00 	andcs	r1, r0, r0, lsl #24
     e9c:	02c42820 	sbceq	r2, r4, #32, 16	; 0x200000
     ea0:	0c010000 	stceq	0, cr0, [r1], {-0}
     ea4:	00000e83 	andeq	r0, r0, r3, lsl #29
     ea8:	20200028 	eorcs	r0, r0, r8, lsr #32
     eac:	00013d28 	andeq	r3, r1, r8, lsr #26
     eb0:	830e0100 	movwhi	r0, #57600	; 0xe100
     eb4:	0000000e 	andeq	r0, r0, lr
     eb8:	28202000 	stmdacs	r0!, {sp}
     ebc:	00000145 	andeq	r0, r0, r5, asr #2
     ec0:	0e830f01 	cdpeq	15, 8, cr0, cr3, cr1, {0}
     ec4:	00040000 	andeq	r0, r4, r0
     ec8:	00282020 	eoreq	r2, r8, r0, lsr #32
     ecc:	01000000 	mrseq	r0, (UNDEF: 0)
     ed0:	000e8310 	andeq	r8, lr, r0, lsl r3
     ed4:	20000800 	andcs	r0, r0, r0, lsl #16
     ed8:	014d2820 	cmpeq	sp, r0, lsr #16
     edc:	11010000 	mrsne	r0, (UNDEF: 1)
     ee0:	00000e83 	andeq	r0, r0, r3, lsl #29
     ee4:	2020000c 	eorcs	r0, r0, ip
     ee8:	00000828 	andeq	r0, r0, r8, lsr #16
     eec:	83120100 	tsthi	r2, #0, 2
     ef0:	1000000e 	andne	r0, r0, lr
     ef4:	28202000 	stmdacs	r0!, {sp}
     ef8:	0000015e 	andeq	r0, r0, lr, asr r1
     efc:	0e831301 	cdpeq	3, 8, cr1, cr3, cr1, {0}
     f00:	00140000 	andseq	r0, r4, r0
     f04:	8c282020 	stchi	0, cr2, [r8], #-128	; 0xffffff80
     f08:	01000000 	mrseq	r0, (UNDEF: 0)
     f0c:	000f1515 	andeq	r1, pc, r5, lsl r5	; <UNPREDICTABLE>
     f10:	20001c00 	andcs	r1, r0, r0, lsl #24
     f14:	0e830620 	cdpeq	6, 8, cr0, cr3, cr0, {1}
     f18:	93280000 	teqls	r8, #0
     f1c:	01000000 	mrseq	r0, (UNDEF: 0)
     f20:	000e8316 	andeq	r8, lr, r6, lsl r3
     f24:	20002000 	andcs	r2, r0, r0
     f28:	023f2820 	eorseq	r2, pc, #32, 16	; 0x200000
     f2c:	18010000 	stmdane	r1, {}	; <UNPREDICTABLE>
     f30:	00000f38 	andeq	r0, r0, r8, lsr pc
     f34:	20200028 	eorcs	r0, r0, r8, lsr #32
     f38:	000e8306 	andeq	r8, lr, r6, lsl #6
     f3c:	019c2800 	orrseq	r2, ip, r0, lsl #16
     f40:	19010000 	stmdbne	r1, {}	; <UNPREDICTABLE>
     f44:	00000e83 	andeq	r0, r0, r3, lsl #29
     f48:	2020002c 	eorcs	r0, r0, ip, lsr #32
     f4c:	00009a28 	andeq	r9, r0, r8, lsr #20
     f50:	5b1b0100 	blpl	6c1358 <__bss_end__+0x6b6fc8>
     f54:	3400000f 	strcc	r0, [r0], #-15
     f58:	06202000 	strteq	r2, [r0], -r0
     f5c:	00000e83 	andeq	r0, r0, r3, lsl #29
     f60:	0000a128 	andeq	sl, r0, r8, lsr #2
     f64:	831c0100 	tsthi	ip, #0, 2
     f68:	3800000e 	stmdacc	r0, {r1, r2, r3}
     f6c:	2a202000 	bcs	808f74 <__bss_end__+0x7febe4>
     f70:	00000246 	andeq	r0, r0, r6, asr #4
     f74:	0f805002 	svceq	0x00805002
     f78:	2c2b0000 	stccs	0, cr0, [fp], #-0
     f7c:	00000000 	andeq	r0, r0, r0
     f80:	00012e2c 	andeq	r2, r1, ip, lsr #28
     f84:	2d1e0200 	lfmcs	f0, 4, [lr, #-0]
     f88:	00000345 	andeq	r0, r0, r5, asr #6
     f8c:	00252902 	eoreq	r2, r5, r2, lsl #18
     f90:	0f9d0000 	svceq	0x009d0000
     f94:	842b0000 	strthi	r0, [fp], #-0
     f98:	2e000000 	cdpcs	0, 0, cr0, cr0, cr0, {0}
     f9c:	02062c00 	andeq	r2, r6, #0, 24
     fa0:	66020000 	strvs	r0, [r2], -r0
     fa4:	00028d2a 	andeq	r8, r2, sl, lsr #26
     fa8:	b51d0300 	ldrlt	r0, [sp, #-768]	; 0x300
     fac:	2b00000f 	blcs	ff0 <_start-0x7010>
     fb0:	0000002c 	andeq	r0, r0, ip, lsr #32
     fb4:	02792a00 	rsbseq	r2, r9, #0, 20
     fb8:	1c030000 	stcne	0, cr0, [r3], {-0}
     fbc:	00000fc6 	andeq	r0, r0, r6, asr #31
     fc0:	00002c2b 	andeq	r2, r0, fp, lsr #24
     fc4:	9d2c0000 	stcls	0, cr0, [ip, #-0]
     fc8:	02000002 	andeq	r0, r0, #2
     fcc:	01a32f8e 			; <UNDEFINED> instruction: 0x01a32f8e
     fd0:	24030000 	strcs	r0, [r3], #-0
     fd4:	00000025 	andeq	r0, r0, r5, lsr #32
     fd8:	00002c2b 	andeq	r2, r0, fp, lsr #24
     fdc:	91000000 	mrsls	r0, (UNDEF: 0)
     fe0:	04000001 	streq	r0, [r0], #-1
     fe4:	00027000 	andeq	r7, r2, r0
     fe8:	eb010400 	bl	41ff0 <__bss_end__+0x37c60>
     fec:	01000002 	tsteq	r0, r2
     ff0:	000002dd 	ldrdeq	r0, [r0], -sp
     ff4:	00000356 	andeq	r0, r0, r6, asr r3
     ff8:	00008604 	andeq	r8, r0, r4, lsl #12
     ffc:	00000058 	andeq	r0, r0, r8, asr r0
    1000:	000002d8 	ldrdeq	r0, [r0], -r8
    1004:	0002ce02 	andeq	ip, r2, r2, lsl #28
    1008:	30280200 	eorcc	r0, r8, r0, lsl #4
    100c:	03000000 	movweq	r0, #0
    1010:	0000034c 	andeq	r0, r0, ip, asr #6
    1014:	47000304 	strmi	r0, [r0, -r4, lsl #6]
    1018:	04000000 	streq	r0, [r0], #-0
    101c:	0000039f 	muleq	r0, pc, r3	; <UNPREDICTABLE>
    1020:	00000047 	andeq	r0, r0, r7, asr #32
    1024:	04050000 	streq	r0, [r5], #-0
    1028:	00034e02 	andeq	r4, r3, r2, lsl #28
    102c:	25620200 	strbcs	r0, [r2, #-512]!	; 0x200
    1030:	06000000 	streq	r0, [r0], -r0
    1034:	6e690504 	cdpvs	5, 6, cr0, cr9, cr4, {0}
    1038:	04070074 	streq	r0, [r7], #-116	; 0x74
    103c:	00004d07 	andeq	r4, r0, r7, lsl #26
    1040:	06010700 	streq	r0, [r1], -r0, lsl #14
    1044:	00000229 	andeq	r0, r0, r9, lsr #4
    1048:	35050207 	strcc	r0, [r5, #-519]	; 0x207
    104c:	07000002 	streq	r0, [r0, -r2]
    1050:	007c0504 	rsbseq	r0, ip, r4, lsl #10
    1054:	08070000 	stmdaeq	r7, {}	; <UNPREDICTABLE>
    1058:	00007705 	andeq	r7, r0, r5, lsl #14
    105c:	08010700 	stmdaeq	r1, {r8, r9, sl}
    1060:	00000227 	andeq	r0, r0, r7, lsr #4
    1064:	7e070207 	cdpvc	2, 0, cr0, cr7, cr7, {0}
    1068:	07000001 	streq	r0, [r0, -r1]
    106c:	00480704 	subeq	r0, r8, r4, lsl #14
    1070:	08070000 	stmdaeq	r7, {}	; <UNPREDICTABLE>
    1074:	00004307 	andeq	r4, r0, r7, lsl #6
    1078:	07040700 	streq	r0, [r4, -r0, lsl #14]
    107c:	00000219 	andeq	r0, r0, r9, lsl r2
    1080:	00a70408 	adceq	r0, r7, r8, lsl #8
    1084:	01070000 	mrseq	r0, (UNDEF: 7)
    1088:	00023008 	andeq	r3, r2, r8
    108c:	b4040800 	strlt	r0, [r4], #-2048	; 0x800
    1090:	09000000 	stmdbeq	r0, {}	; <UNPREDICTABLE>
    1094:	000000a7 	andeq	r0, r0, r7, lsr #1
    1098:	0003450a 	andeq	r4, r3, sl, lsl #10
    109c:	54060100 	strpl	r0, [r6], #-256	; 0x100
    10a0:	04000000 	streq	r0, [r0], #-0
    10a4:	58000086 	stmdapl	r0, {r1, r2, r7}
    10a8:	01000000 	mrseq	r0, (UNDEF: 0)
    10ac:	0001439c 	muleq	r1, ip, r3
    10b0:	6d660b00 	vstmdbvs	r6!, {d16-d15}
    10b4:	06010074 			; <UNDEFINED> instruction: 0x06010074
    10b8:	000000ae 	andeq	r0, r0, lr, lsr #1
    10bc:	0c709102 	ldfeqp	f1, [r0], #-8
    10c0:	6675620d 	ldrbtvs	r6, [r5], -sp, lsl #4
    10c4:	43080100 	movwmi	r0, #33024	; 0x8100
    10c8:	05000001 	streq	r0, [r0, #-1]
    10cc:	009f8403 	addseq	r8, pc, r3, lsl #8
    10d0:	039a0e00 	orrseq	r0, sl, #0, 28
    10d4:	09010000 	stmdbeq	r1, {}	; <UNPREDICTABLE>
    10d8:	00000049 	andeq	r0, r0, r9, asr #32
    10dc:	0f5c9102 	svceq	0x005c9102
    10e0:	01007a73 	tsteq	r0, r3, ror sl
    10e4:	0000540c 	andeq	r5, r0, ip, lsl #8
    10e8:	00094200 	andeq	r4, r9, r0, lsl #4
    10ec:	862c1000 	strthi	r1, [ip], -r0
    10f0:	01740000 	cmneq	r4, r0
    10f4:	01360000 	teqeq	r6, r0
    10f8:	01110000 	tsteq	r1, r0
    10fc:	4c910253 	lfmmi	f0, 4, [r1], {83}	; 0x53
    1100:	03520111 	cmpeq	r2, #1073741828	; 0x40000004
    1104:	11064891 			; <UNDEFINED> instruction: 0x11064891
    1108:	0a035101 	beq	d5514 <__bss_end__+0xcb184>
    110c:	01110400 	tsteq	r1, r0, lsl #8
    1110:	00740250 	rsbseq	r0, r4, r0, asr r2
    1114:	86401200 	strbhi	r1, [r0], -r0, lsl #4
    1118:	01110000 	tsteq	r1, r0
    111c:	00740250 	rsbseq	r0, r4, r0, asr r2
    1120:	a7130000 	ldrge	r0, [r3, -r0]
    1124:	54000000 	strpl	r0, [r0], #-0
    1128:	14000001 	strne	r0, [r0], #-1
    112c:	0000009a 	muleq	r0, sl, r0
    1130:	150003ff 	strne	r0, [r0, #-1023]	; 0x3ff
    1134:	00000054 	andeq	r0, r0, r4, asr r0
    1138:	00000163 	andeq	r0, r0, r3, ror #2
    113c:	0000ae16 	andeq	sl, r0, r6, lsl lr
    1140:	f2170000 	vhadd.s16	d0, d7, d0
    1144:	04000003 	streq	r0, [r0], #-3
    1148:	00016e22 	andeq	r6, r1, r2, lsr #28
    114c:	54040800 	strpl	r0, [r4], #-2048	; 0x800
    1150:	18000001 	stmdane	r0, {r0}
    1154:	00000342 	andeq	r0, r0, r2, asr #6
    1158:	00540205 	subseq	r0, r4, r5, lsl #4
    115c:	a1160000 	tstge	r6, r0
    1160:	16000000 	strne	r0, [r0], -r0
    1164:	00000054 	andeq	r0, r0, r4, asr r0
    1168:	0000ae16 	andeq	sl, r0, r6, lsl lr
    116c:	00491600 	subeq	r1, r9, r0, lsl #12
    1170:	00000000 	andeq	r0, r0, r0
    1174:	00000113 	andeq	r0, r0, r3, lsl r1
    1178:	03a10004 			; <UNDEFINED> instruction: 0x03a10004
    117c:	01040000 	mrseq	r0, (UNDEF: 4)
    1180:	000002eb 	andeq	r0, r0, fp, ror #5
    1184:	0003c101 	andeq	ip, r3, r1, lsl #2
    1188:	00035600 	andeq	r5, r3, r0, lsl #12
    118c:	00865c00 	addeq	r5, r6, r0, lsl #24
    1190:	00003c00 	andeq	r3, r0, r0, lsl #24
    1194:	0003de00 	andeq	sp, r3, r0, lsl #28
    1198:	05040200 	streq	r0, [r4, #-512]	; 0x200
    119c:	00746e69 	rsbseq	r6, r4, r9, ror #28
    11a0:	4d070403 	cfstrsmi	mvf0, [r7, #-12]
    11a4:	03000000 	movweq	r0, #0
    11a8:	02290601 	eoreq	r0, r9, #1048576	; 0x100000
    11ac:	02030000 	andeq	r0, r3, #0
    11b0:	00023505 	andeq	r3, r2, r5, lsl #10
    11b4:	05040300 	streq	r0, [r4, #-768]	; 0x300
    11b8:	0000007c 	andeq	r0, r0, ip, ror r0
    11bc:	77050803 	strvc	r0, [r5, -r3, lsl #16]
    11c0:	03000000 	movweq	r0, #0
    11c4:	02270801 	eoreq	r0, r7, #65536	; 0x10000
    11c8:	02030000 	andeq	r0, r3, #0
    11cc:	00017e07 	andeq	r7, r1, r7, lsl #28
    11d0:	07040300 	streq	r0, [r4, -r0, lsl #6]
    11d4:	00000048 	andeq	r0, r0, r8, asr #32
    11d8:	43070803 	movwmi	r0, #30723	; 0x7803
    11dc:	03000000 	movweq	r0, #0
    11e0:	02190704 	andseq	r0, r9, #4, 14	; 0x100000
    11e4:	01030000 	mrseq	r0, (UNDEF: 3)
    11e8:	00023008 	andeq	r3, r2, r8
    11ec:	03a40400 			; <UNDEFINED> instruction: 0x03a40400
    11f0:	03010000 	movweq	r0, #4096	; 0x1000
    11f4:	00000025 	andeq	r0, r0, r5, lsr #32
    11f8:	0000865c 	andeq	r8, r0, ip, asr r6
    11fc:	00000014 	andeq	r0, r0, r4, lsl r0
    1200:	00b09c01 	adcseq	r9, r0, r1, lsl #24
    1204:	63050000 	movwvs	r0, #20480	; 0x5000
    1208:	25030100 	strcs	r0, [r3, #-256]	; 0x100
    120c:	6b000000 	blvs	1214 <_start-0x6dec>
    1210:	06000009 	streq	r0, [r0], -r9
    1214:	00008668 	andeq	r8, r0, r8, ror #12
    1218:	00000109 	andeq	r0, r0, r9, lsl #2
    121c:	02500107 	subseq	r0, r0, #-1073741823	; 0xc0000001
    1220:	00000074 	andeq	r0, r0, r4, ror r0
    1224:	00012e08 	andeq	r2, r1, r8, lsl #28
    1228:	70080100 	andvc	r0, r8, r0, lsl #2
    122c:	18000086 	stmdane	r0, {r1, r2, r7}
    1230:	01000000 	mrseq	r0, (UNDEF: 0)
    1234:	03d0099c 	bicseq	r0, r0, #156, 18	; 0x270000
    1238:	0b010000 	bleq	41240 <__bss_end__+0x36eb0>
    123c:	00008688 	andeq	r8, r0, r8, lsl #13
    1240:	00000010 	andeq	r0, r0, r0, lsl r0
    1244:	00e39c01 	rsceq	r9, r3, r1, lsl #24
    1248:	660a0000 	strvs	r0, [sl], -r0
    124c:	0b010070 	bleq	41414 <__bss_end__+0x37084>
    1250:	000000f2 	strdeq	r0, [r0], -r2
    1254:	0b005001 	bleq	15260 <__bss_end__+0xaed0>
    1258:	00000025 	andeq	r0, r0, r5, lsr #32
    125c:	000000f2 	strdeq	r0, [r0], -r2
    1260:	0000250c 	andeq	r2, r0, ip, lsl #10
    1264:	040d0000 	streq	r0, [sp], #-0
    1268:	000000e3 	andeq	r0, r0, r3, ror #1
    126c:	0003b50e 	andeq	fp, r3, lr, lsl #10
    1270:	f2060100 	vrhadd.s8	d0, d6, d0
    1274:	05000000 	streq	r0, [r0, #-0]
    1278:	009c1403 	addseq	r1, ip, r3, lsl #8
    127c:	053d0f00 	ldreq	r0, [sp, #-3840]!	; 0xf00
    1280:	3c020000 	stccc	0, cr0, [r2], {-0}
    1284:	00002c0c 	andeq	r2, r0, ip, lsl #24
    1288:	ee000000 	cdp	0, 0, cr0, cr0, cr0, {0}
    128c:	04000000 	streq	r0, [r0], #-0
    1290:	00048900 	andeq	r8, r4, r0, lsl #18
    1294:	eb010400 	bl	4229c <__bss_end__+0x37f0c>
    1298:	01000002 	tsteq	r0, r2
    129c:	000003dd 	ldrdeq	r0, [r0], -sp
    12a0:	00000356 	andeq	r0, r0, r6, asr r3
    12a4:	00008698 	muleq	r0, r8, r6
    12a8:	00000034 	andeq	r0, r0, r4, lsr r0
    12ac:	0000046c 	andeq	r0, r0, ip, ror #8
    12b0:	69050402 	stmdbvs	r5, {r1, sl}
    12b4:	0300746e 	movweq	r7, #1134	; 0x46e
    12b8:	004d0704 	subeq	r0, sp, r4, lsl #14
    12bc:	01030000 	mrseq	r0, (UNDEF: 3)
    12c0:	00022906 	andeq	r2, r2, r6, lsl #18
    12c4:	05020300 	streq	r0, [r2, #-768]	; 0x300
    12c8:	00000235 	andeq	r0, r0, r5, lsr r2
    12cc:	7c050403 	cfstrsvc	mvf0, [r5], {3}
    12d0:	03000000 	movweq	r0, #0
    12d4:	00770508 	rsbseq	r0, r7, r8, lsl #10
    12d8:	01030000 	mrseq	r0, (UNDEF: 3)
    12dc:	00022708 	andeq	r2, r2, r8, lsl #14
    12e0:	07020300 	streq	r0, [r2, -r0, lsl #6]
    12e4:	0000017e 	andeq	r0, r0, lr, ror r1
    12e8:	48070403 	stmdami	r7, {r0, r1, sl}
    12ec:	03000000 	movweq	r0, #0
    12f0:	00430708 	subeq	r0, r3, r8, lsl #14
    12f4:	04030000 	streq	r0, [r3], #-0
    12f8:	00021907 	andeq	r1, r2, r7, lsl #18
    12fc:	08010300 	stmdaeq	r1, {r8, r9}
    1300:	00000230 	andeq	r0, r0, r0, lsr r2
    1304:	007f0404 	rsbseq	r0, pc, r4, lsl #8
    1308:	72050000 	andvc	r0, r5, #0
    130c:	06000000 	streq	r0, [r0], -r0
    1310:	000003e9 	andeq	r0, r0, r9, ror #7
    1314:	00250401 	eoreq	r0, r5, r1, lsl #8
    1318:	86980000 	ldrhi	r0, [r8], r0
    131c:	00340000 	eorseq	r0, r4, r0
    1320:	9c010000 	stcls	0, cr0, [r1], {-0}
    1324:	000000ab 	andeq	r0, r0, fp, lsr #1
    1328:	01007007 	tsteq	r0, r7
    132c:	00007904 	andeq	r7, r0, r4, lsl #18
    1330:	00098900 	andeq	r8, r9, r0, lsl #18
    1334:	25080000 	strcs	r0, [r8, #-0]
    1338:	ba000000 	blt	1340 <_start-0x6cc0>
    133c:	09000000 	stmdbeq	r0, {}	; <UNPREDICTABLE>
    1340:	00000025 	andeq	r0, r0, r5, lsr #32
    1344:	03b50a00 			; <UNDEFINED> instruction: 0x03b50a00
    1348:	1d020000 	stcne	0, cr0, [r2, #-0]
    134c:	000000c5 	andeq	r0, r0, r5, asr #1
    1350:	00ab0404 	adceq	r0, fp, r4, lsl #8
    1354:	25080000 	strcs	r0, [r8, #-0]
    1358:	da000000 	ble	1360 <_start-0x6ca0>
    135c:	09000000 	stmdbeq	r0, {}	; <UNPREDICTABLE>
    1360:	00000079 	andeq	r0, r0, r9, ror r0
    1364:	03f20b00 	mvnseq	r0, #0, 22
    1368:	0c010000 	stceq	0, cr0, [r1], {-0}
    136c:	000000eb 	andeq	r0, r0, fp, ror #1
    1370:	9c180305 	ldcls	3, cr0, [r8], {5}
    1374:	04040000 	streq	r0, [r4], #-0
    1378:	000000cb 	andeq	r0, r0, fp, asr #1
    137c:	0006a100 	andeq	sl, r6, r0, lsl #2
    1380:	22000400 	andcs	r0, r0, #0, 8
    1384:	04000005 	streq	r0, [r0], #-5
    1388:	0002eb01 	andeq	lr, r2, r1, lsl #22
    138c:	04230100 	strteq	r0, [r3], #-256	; 0x100
    1390:	03560000 	cmpeq	r6, #0
    1394:	86cc0000 	strbhi	r0, [ip], r0
    1398:	05240000 	streq	r0, [r4, #-0]!
    139c:	05060000 	streq	r0, [r6, #-0]
    13a0:	04020000 	streq	r0, [r2], #-0
    13a4:	746e6905 	strbtvc	r6, [lr], #-2309	; 0x905
    13a8:	07040300 	streq	r0, [r4, -r0, lsl #6]
    13ac:	0000004d 	andeq	r0, r0, sp, asr #32
    13b0:	29060103 	stmdbcs	r6, {r0, r1, r8}
    13b4:	03000002 	movweq	r0, #2
    13b8:	02350502 	eorseq	r0, r5, #8388608	; 0x800000
    13bc:	04030000 	streq	r0, [r3], #-0
    13c0:	00007c05 	andeq	r7, r0, r5, lsl #24
    13c4:	05080300 	streq	r0, [r8, #-768]	; 0x300
    13c8:	00000077 	andeq	r0, r0, r7, ror r0
    13cc:	27080103 	strcs	r0, [r8, -r3, lsl #2]
    13d0:	03000002 	movweq	r0, #2
    13d4:	017e0702 	cmneq	lr, r2, lsl #14
    13d8:	04030000 	streq	r0, [r3], #-0
    13dc:	00004807 	andeq	r4, r0, r7, lsl #16
    13e0:	07080300 	streq	r0, [r8, -r0, lsl #6]
    13e4:	00000043 	andeq	r0, r0, r3, asr #32
    13e8:	19070403 	stmdbne	r7, {r0, r1, sl}
    13ec:	04000002 	streq	r0, [r0], #-2
    13f0:	7a040504 	bvc	102808 <__bss_end__+0xf8478>
    13f4:	03000000 	movweq	r0, #0
    13f8:	02300801 	eorseq	r0, r0, #65536	; 0x10000
    13fc:	04050000 	streq	r0, [r5], #-0
    1400:	00000087 	andeq	r0, r0, r7, lsl #1
    1404:	00007a06 	andeq	r7, r0, r6, lsl #20
    1408:	02ce0700 	sbceq	r0, lr, #0, 14
    140c:	28020000 	stmdacs	r2, {}	; <UNPREDICTABLE>
    1410:	00000097 	muleq	r0, r7, r0
    1414:	00034c08 	andeq	r4, r3, r8, lsl #24
    1418:	00040400 	andeq	r0, r4, r0, lsl #8
    141c:	000000ae 	andeq	r0, r0, lr, lsr #1
    1420:	00039f09 	andeq	r9, r3, r9, lsl #30
    1424:	00007200 	andeq	r7, r0, r0, lsl #4
    1428:	07000000 	streq	r0, [r0, -r0]
    142c:	0000034e 	andeq	r0, r0, lr, asr #6
    1430:	008c6202 	addeq	r6, ip, r2, lsl #4
    1434:	050a0000 	streq	r0, [sl, #-0]
    1438:	01000004 	tsteq	r0, r4
    143c:	00002527 	andeq	r2, r0, r7, lsr #10
    1440:	0086cc00 	addeq	ip, r6, r0, lsl #24
    1444:	00001400 	andeq	r1, r0, r0, lsl #8
    1448:	e09c0100 	adds	r0, ip, r0, lsl #2
    144c:	0b000000 	bleq	1454 <_start-0x6bac>
    1450:	27010063 	strcs	r0, [r1, -r3, rrx]
    1454:	00000025 	andeq	r0, r0, r5, lsr #32
    1458:	000009a7 	andeq	r0, r0, r7, lsr #19
    145c:	61700c00 	cmnvs	r0, r0, lsl #24
    1460:	2e010064 	cdpcs	0, 0, cr0, cr1, cr4, {3}
    1464:	00000074 	andeq	r0, r0, r4, ror r0
    1468:	000086e0 	andeq	r8, r0, r0, ror #13
    146c:	0000002c 	andeq	r0, r0, ip, lsr #32
    1470:	01309c01 	teqeq	r0, r1, lsl #24
    1474:	700b0000 	andvc	r0, fp, r0
    1478:	742e0100 	strtvc	r0, [lr], #-256	; 0x100
    147c:	d5000000 	strle	r0, [r0, #-0]
    1480:	0d000009 	stceq	0, cr0, [r0, #-36]	; 0xffffffdc
    1484:	00000415 	andeq	r0, r0, r5, lsl r4
    1488:	00742e01 	rsbseq	r2, r4, r1, lsl #28
    148c:	0a000000 	beq	1494 <_start-0x6b6c>
    1490:	430e0000 	movwmi	r0, #57344	; 0xe000
    1494:	01000004 	tsteq	r0, r4
    1498:	0000252e 	andeq	r2, r0, lr, lsr #10
    149c:	0f520100 	svceq	0x00520100
    14a0:	006e656c 	rsbeq	r6, lr, ip, ror #10
    14a4:	00252f01 	eoreq	r2, r5, r1, lsl #30
    14a8:	51010000 	mrspl	r0, (UNDEF: 1)
    14ac:	03fd0a00 	mvnseq	r0, #0, 20
    14b0:	37010000 	strcc	r0, [r1, -r0]
    14b4:	00000074 	andeq	r0, r0, r4, ror r0
    14b8:	0000870c 	andeq	r8, r0, ip, lsl #14
    14bc:	00000040 	andeq	r0, r0, r0, asr #32
    14c0:	019c9c01 	orrseq	r9, ip, r1, lsl #24
    14c4:	640b0000 	strvs	r0, [fp], #-0
    14c8:	01007473 	tsteq	r0, r3, ror r4
    14cc:	00007437 	andeq	r7, r0, r7, lsr r4
    14d0:	000a2100 	andeq	r2, sl, r0, lsl #2
    14d4:	006e0b00 	rsbeq	r0, lr, r0, lsl #22
    14d8:	00253701 	eoreq	r3, r5, r1, lsl #14
    14dc:	0a590000 	beq	16414e4 <__bss_end__+0x1637154>
    14e0:	700b0000 	andvc	r0, fp, r0
    14e4:	74370100 	ldrtvc	r0, [r7], #-256	; 0x100
    14e8:	7a000000 	bvc	14f0 <_start-0x6b10>
    14ec:	0d00000a 	stceq	0, cr0, [r0, #-40]	; 0xffffffd8
    14f0:	00000529 	andeq	r0, r0, r9, lsr #10
    14f4:	00743701 	rsbseq	r3, r4, r1, lsl #14
    14f8:	0ab00000 	beq	fec01500 <__bss_end__+0xfebf7170>
    14fc:	6c100000 	ldcvs	0, cr0, [r0], {-0}
    1500:	01006e65 	tsteq	r0, r5, ror #28
    1504:	00002539 	andeq	r2, r0, r9, lsr r5
    1508:	000ace00 	andeq	ip, sl, r0, lsl #28
    150c:	00730f00 	rsbseq	r0, r3, r0, lsl #30
    1510:	00743d01 	rsbseq	r3, r4, r1, lsl #26
    1514:	50010000 	andpl	r0, r1, r0
    1518:	04510a00 	ldrbeq	r0, [r1], #-2560	; 0xa00
    151c:	47010000 	strmi	r0, [r1, -r0]
    1520:	00000074 	andeq	r0, r0, r4, ror r0
    1524:	0000874c 	andeq	r8, r0, ip, asr #14
    1528:	000001a8 	andeq	r0, r0, r8, lsr #3
    152c:	02df9c01 	sbcseq	r9, pc, #256	; 0x100
    1530:	150d0000 	strne	r0, [sp, #-0]
    1534:	01000004 	tsteq	r0, r4
    1538:	00002c47 	andeq	r2, r0, r7, asr #24
    153c:	000af500 	andeq	pc, sl, r0, lsl #10
    1540:	73640b00 	cmnvc	r4, #0, 22
    1544:	47010074 	smlsdxmi	r1, r4, r0, r0
    1548:	00000074 	andeq	r0, r0, r4, ror r0
    154c:	00000b23 	andeq	r0, r0, r3, lsr #22
    1550:	01006e0b 	tsteq	r0, fp, lsl #28
    1554:	00002547 	andeq	r2, r0, r7, asr #10
    1558:	000b9100 	andeq	r9, fp, r0, lsl #2
    155c:	61760b00 	cmnvs	r6, r0, lsl #22
    1560:	4701006c 	strmi	r0, [r1, -ip, rrx]
    1564:	00000025 	andeq	r0, r0, r5, lsr #32
    1568:	00000bbd 			; <UNDEFINED> instruction: 0x00000bbd
    156c:	0004430d 	andeq	r4, r4, sp, lsl #6
    1570:	25470100 	strbcs	r0, [r7, #-256]	; 0x100
    1574:	3c000000 	stccc	0, cr0, [r0], {-0}
    1578:	0e00000c 	cdpeq	0, 0, cr0, cr0, cr12, {0}
    157c:	0000041a 	andeq	r0, r0, sl, lsl r4
    1580:	00254701 	eoreq	r4, r5, r1, lsl #14
    1584:	91020000 	mrsls	r0, (UNDEF: 2)
    1588:	75620f04 	strbvc	r0, [r2, #-3844]!	; 0xf04
    158c:	4c010066 	stcmi	0, cr0, [r1], {102}	; 0x66
    1590:	000002df 	ldrdeq	r0, [r0], -pc	; <UNPREDICTABLE>
    1594:	7fa89103 	svcvc	0x00a89103
    1598:	01007010 	tsteq	r0, r0, lsl r0
    159c:	0000744c 	andeq	r7, r0, ip, asr #8
    15a0:	000c6600 	andeq	r6, ip, r0, lsl #12
    15a4:	00751000 	rsbseq	r1, r5, r0
    15a8:	002c4d01 	eoreq	r4, ip, r1, lsl #26
    15ac:	0d220000 	stceq	0, cr0, [r2, #-0]
    15b0:	71110000 	tstvc	r1, r0
    15b4:	ff000001 			; <UNDEFINED> instruction: 0xff000001
    15b8:	05000002 	streq	r0, [r0, #-2]
    15bc:	009d4803 	addseq	r4, sp, r3, lsl #16
    15c0:	87b81200 	ldrhi	r1, [r8, r0, lsl #4]!
    15c4:	00740000 	rsbseq	r0, r4, r0
    15c8:	02610000 	rsbeq	r0, r1, #0
    15cc:	f7130000 			; <UNDEFINED> instruction: 0xf7130000
    15d0:	01000003 	tsteq	r0, r3
    15d4:	00002c52 	andeq	r2, r0, r2, asr ip
    15d8:	000e2700 	andeq	r2, lr, r0, lsl #14
    15dc:	8c140000 	ldchi	0, cr0, [r4], {-0}
    15e0:	80000088 	andhi	r0, r0, r8, lsl #1
    15e4:	15000006 	strne	r0, [r0, #-6]
    15e8:	000088a8 	andeq	r8, r0, r8, lsr #17
    15ec:	00000687 	andeq	r0, r0, r7, lsl #13
    15f0:	000002a3 	andeq	r0, r0, r3, lsr #5
    15f4:	02530116 	subseq	r0, r3, #-2147483643	; 0x80000005
    15f8:	01167508 	tsteq	r6, r8, lsl #10
    15fc:	48030552 	stmdami	r3, {r1, r4, r6, r8, sl}
    1600:	1600009d 			; <UNDEFINED> instruction: 0x1600009d
    1604:	03055101 	movweq	r5, #20737	; 0x5101
    1608:	00009d80 	andeq	r9, r0, r0, lsl #27
    160c:	05500116 	ldrbeq	r0, [r0, #-278]	; 0x116
    1610:	009d6c03 	addseq	r6, sp, r3, lsl #24
    1614:	7d021600 	stcvc	6, cr1, [r2, #-0]
    1618:	94030500 	strls	r0, [r3], #-1280	; 0x500
    161c:	0000009d 	muleq	r0, sp, r0
    1620:	0088ac14 	addeq	sl, r8, r4, lsl ip
    1624:	00069d00 	andeq	r9, r6, r0, lsl #26
    1628:	88b81500 	ldmhi	r8!, {r8, sl, ip}
    162c:	00e00000 	rsceq	r0, r0, r0
    1630:	02c10000 	sbceq	r0, r1, #0
    1634:	01160000 	tsteq	r6, r0
    1638:	a0910351 	addsge	r0, r1, r1, asr r3
    163c:	cc17007f 	ldcgt	0, cr0, [r7], {127}	; 0x7f
    1640:	30000088 	andcc	r0, r0, r8, lsl #1
    1644:	16000001 	strne	r0, [r0], -r1
    1648:	91035301 	tstls	r3, r1, lsl #6
    164c:	01167fa0 	tsteq	r6, r0, lsr #31
    1650:	00740251 	rsbseq	r0, r4, r1, asr r2
    1654:	02500116 	subseq	r0, r0, #-2147483643	; 0x80000005
    1658:	00000075 	andeq	r0, r0, r5, ror r0
    165c:	00007a18 	andeq	r7, r0, r8, lsl sl
    1660:	0002ef00 	andeq	lr, r2, r0, lsl #30
    1664:	006b1900 	rsbeq	r1, fp, r0, lsl #18
    1668:	003f0000 	eorseq	r0, pc, r0
    166c:	00007a18 	andeq	r7, r0, r8, lsl sl
    1670:	0002ff00 	andeq	pc, r2, r0, lsl #30
    1674:	006b1900 	rsbeq	r1, fp, r0, lsl #18
    1678:	00040000 	andeq	r0, r4, r0
    167c:	0002ef06 	andeq	lr, r2, r6, lsl #30
    1680:	04341a00 	ldrteq	r1, [r4], #-2560	; 0xa00
    1684:	1f010000 	svcne	0x00010000
    1688:	000088f4 	strdeq	r8, [r0], -r4
    168c:	00000068 	andeq	r0, r0, r8, rrx
    1690:	03929c01 	orrseq	r9, r2, #256	; 0x100
    1694:	490d0000 	stmdbmi	sp, {}	; <UNPREDICTABLE>
    1698:	01000004 	tsteq	r0, r4
    169c:	0003a11f 	andeq	sl, r3, pc, lsl r1
    16a0:	000e5300 	andeq	r5, lr, r0, lsl #6
    16a4:	040d0d00 	streq	r0, [sp], #-3328	; 0xd00
    16a8:	1f010000 	svcne	0x00010000
    16ac:	000003b6 			; <UNDEFINED> instruction: 0x000003b6
    16b0:	00000e7f 	andeq	r0, r0, pc, ror lr
    16b4:	00017111 	andeq	r7, r1, r1, lsl r1
    16b8:	0003cc00 	andeq	ip, r3, r0, lsl #24
    16bc:	50030500 	andpl	r0, r3, r0, lsl #10
    16c0:	1400009d 	strne	r0, [r0], #-157	; 0x9d
    16c4:	00008908 	andeq	r8, r0, r8, lsl #18
    16c8:	00000680 	andeq	r0, r0, r0, lsl #13
    16cc:	00892415 	addeq	r2, r9, r5, lsl r4
    16d0:	00068700 	andeq	r8, r6, r0, lsl #14
    16d4:	00038800 	andeq	r8, r3, r0, lsl #16
    16d8:	53011600 	movwpl	r1, #5632	; 0x1600
    16dc:	16200802 	strtne	r0, [r0], -r2, lsl #16
    16e0:	03055201 	movweq	r5, #20993	; 0x5201
    16e4:	00009d50 	andeq	r9, r0, r0, asr sp
    16e8:	05510116 	ldrbeq	r0, [r1, #-278]	; 0x116
    16ec:	009d8003 	addseq	r8, sp, r3
    16f0:	50011600 	andpl	r1, r1, r0, lsl #12
    16f4:	9d6c0305 	stclls	3, cr0, [ip, #-20]!	; 0xffffffec
    16f8:	02160000 	andseq	r0, r6, #0
    16fc:	0305007d 	movweq	r0, #20605	; 0x507d
    1700:	00009dbc 			; <UNDEFINED> instruction: 0x00009dbc
    1704:	89281400 	stmdbhi	r8!, {sl, ip}
    1708:	069d0000 	ldreq	r0, [sp], r0
    170c:	1b000000 	blne	1714 <_start-0x68ec>
    1710:	00000025 	andeq	r0, r0, r5, lsr #32
    1714:	000003a1 	andeq	r0, r0, r1, lsr #7
    1718:	0000251c 	andeq	r2, r0, ip, lsl r5
    171c:	04050000 	streq	r0, [r5], #-0
    1720:	00000392 	muleq	r0, r2, r3
    1724:	0000251b 	andeq	r2, r0, fp, lsl r5
    1728:	0003b600 	andeq	fp, r3, r0, lsl #12
    172c:	00811c00 	addeq	r1, r1, r0, lsl #24
    1730:	05000000 	streq	r0, [r0, #-0]
    1734:	0003a704 	andeq	sl, r3, r4, lsl #14
    1738:	007a1800 	rsbseq	r1, sl, r0, lsl #16
    173c:	03cc0000 	biceq	r0, ip, #0
    1740:	6b190000 	blvs	641748 <__bss_end__+0x6373b8>
    1744:	0e000000 	cdpeq	0, 0, cr0, cr0, cr0, {0}
    1748:	03bc0600 			; <UNDEFINED> instruction: 0x03bc0600
    174c:	421d0000 	andsmi	r0, sp, #0
    1750:	01000003 	tsteq	r0, r3
    1754:	0000257d 	andeq	r2, r0, sp, ror r5
    1758:	00895c00 	addeq	r5, r9, r0, lsl #24
    175c:	00029400 	andeq	r9, r2, r0, lsl #8
    1760:	459c0100 	ldrmi	r0, [ip, #256]	; 0x100
    1764:	0b000006 	bleq	1784 <_start-0x687c>
    1768:	00667562 	rsbeq	r7, r6, r2, ror #10
    176c:	00747d01 	rsbseq	r7, r4, r1, lsl #26
    1770:	0eab0000 	cdpeq	0, 10, cr0, cr11, cr0, {0}
    1774:	6e0b0000 	cdpvs	0, 0, cr0, cr11, cr0, {0}
    1778:	257d0100 	ldrbcs	r0, [sp, #-256]!	; 0x100
    177c:	d7000000 	strle	r0, [r0, -r0]
    1780:	0b00000e 	bleq	17c0 <_start-0x6840>
    1784:	00746d66 	rsbseq	r6, r4, r6, ror #26
    1788:	00817d01 	addeq	r7, r1, r1, lsl #26
    178c:	0f050000 	svceq	0x00050000
    1790:	9a0d0000 	bls	341798 <__bss_end__+0x337408>
    1794:	01000003 	tsteq	r0, r3
    1798:	0000ae7d 	andeq	sl, r0, sp, ror lr
    179c:	000f3900 	andeq	r3, pc, r0, lsl #18
    17a0:	00701000 	rsbseq	r1, r0, r0
    17a4:	00747e01 	rsbseq	r7, r4, r1, lsl #28
    17a8:	0f4c0000 	svceq	0x004c0000
    17ac:	65100000 	ldrvs	r0, [r0, #-0]
    17b0:	747e0100 	ldrbtvc	r0, [lr], #-256	; 0x100
    17b4:	ca000000 	bgt	17bc <_start-0x6844>
    17b8:	1100000f 	tstne	r0, pc
    17bc:	00000171 	andeq	r0, r0, r1, ror r1
    17c0:	00000655 	andeq	r0, r0, r5, asr r6
    17c4:	9d600305 	stclls	3, cr0, [r0, #-20]!	; 0xffffffec
    17c8:	681e0000 	ldmdavs	lr, {}	; <UNPREDICTABLE>
    17cc:	10000002 	andne	r0, r0, r2
    17d0:	8b010073 	blhi	419a4 <__bss_end__+0x37614>
    17d4:	00000074 	andeq	r0, r0, r4, ror r0
    17d8:	00000ff1 	strdeq	r0, [r0], -r1
    17dc:	6d756e0f 	ldclvs	14, cr6, [r5, #-60]!	; 0xffffffc4
    17e0:	5a8b0100 	bpl	fe2c1be8 <__bss_end__+0xfe2b7858>
    17e4:	03000006 	movweq	r0, #6
    17e8:	137ed891 	cmnne	lr, #9502720	; 0x910000
    17ec:	00000443 	andeq	r0, r0, r3, asr #8
    17f0:	002c8c01 	eoreq	r8, ip, r1, lsl #24
    17f4:	10460000 	subne	r0, r6, r0
    17f8:	e0150000 	ands	r0, r5, r0
    17fc:	b9000089 	stmdblt	r0, {r0, r3, r7}
    1800:	91000000 	mrsls	r0, (UNDEF: 0)
    1804:	16000004 	strne	r0, [r0], -r4
    1808:	75025001 	strvc	r5, [r2, #-1]
    180c:	f4140000 			; <UNDEFINED> instruction: 0xf4140000
    1810:	80000089 	andhi	r0, r0, r9, lsl #1
    1814:	15000006 	strne	r0, [r0, #-6]
    1818:	00008a10 	andeq	r8, r0, r0, lsl sl
    181c:	00000687 	andeq	r0, r0, r7, lsl #13
    1820:	000004d3 	ldrdeq	r0, [r0], -r3
    1824:	02530116 	subseq	r0, r3, #-2147483643	; 0x80000005
    1828:	01169208 	tsteq	r6, r8, lsl #4
    182c:	60030552 	andvs	r0, r3, r2, asr r5
    1830:	1600009d 			; <UNDEFINED> instruction: 0x1600009d
    1834:	03055101 	movweq	r5, #20737	; 0x5101
    1838:	00009d80 	andeq	r9, r0, r0, lsl #27
    183c:	05500116 	ldrbeq	r0, [r0, #-278]	; 0x116
    1840:	009d6c03 	addseq	r6, sp, r3, lsl #24
    1844:	7d021600 	stcvc	6, cr1, [r2, #-0]
    1848:	c4030500 	strgt	r0, [r3], #-1280	; 0x500
    184c:	0000009d 	muleq	r0, sp, r0
    1850:	008a1414 	addeq	r1, sl, r4, lsl r4
    1854:	00069d00 	andeq	r9, r6, r0, lsl #26
    1858:	8a841400 	bhi	fe106860 <__bss_end__+0xfe0fc4d0>
    185c:	06800000 	streq	r0, [r0], r0
    1860:	98150000 	ldmdals	r5, {}	; <UNPREDICTABLE>
    1864:	8700008a 	strhi	r0, [r0, -sl, lsl #1]
    1868:	14000006 	strne	r0, [r0], #-6
    186c:	16000005 	strne	r0, [r0], -r5
    1870:	08025301 	stmdaeq	r2, {r0, r8, r9, ip, lr}
    1874:	52011698 	andpl	r1, r1, #152, 12	; 0x9800000
    1878:	9d600305 	stclls	3, cr0, [r0, #-20]!	; 0xffffffec
    187c:	01160000 	tsteq	r6, r0
    1880:	80030551 	andhi	r0, r3, r1, asr r5
    1884:	1600009d 			; <UNDEFINED> instruction: 0x1600009d
    1888:	03055001 	movweq	r5, #20481	; 0x5001
    188c:	00009dd0 	ldrdeq	r9, [r0], -r0
    1890:	8a9c1400 	bhi	fe706898 <__bss_end__+0xfe6fc508>
    1894:	069d0000 	ldreq	r0, [sp], r0
    1898:	c0150000 	andsgt	r0, r5, r0
    189c:	9c00008a 	stcls	0, cr0, [r0], {138}	; 0x8a
    18a0:	4a000001 	bmi	18ac <_start-0x6754>
    18a4:	16000005 	strne	r0, [r0], -r5
    18a8:	08025201 	stmdaeq	r2, {r0, r9, ip, lr}
    18ac:	51011680 	smlabbpl	r1, r0, r6, r1
    18b0:	7ed09103 	atnvcs	f1, f3
    18b4:	01500116 	cmpeq	r0, r6, lsl r1
    18b8:	7d02163a 	stcvc	6, cr1, [r2, #-232]	; 0xffffff18
    18bc:	16310104 	ldrtne	r0, [r1], -r4, lsl #2
    18c0:	02007d02 	andeq	r7, r0, #2, 26	; 0x80
    18c4:	15000077 	strne	r0, [r0, #-119]	; 0x77
    18c8:	00008ae4 	andeq	r8, r0, r4, ror #21
    18cc:	0000019c 	muleq	r0, ip, r1
    18d0:	00000578 	andeq	r0, r0, r8, ror r5
    18d4:	02520116 	subseq	r0, r2, #-2147483643	; 0x80000005
    18d8:	01168008 	tsteq	r6, r8
    18dc:	d0910351 	addsle	r0, r1, r1, asr r3
    18e0:	5001167e 	andpl	r1, r1, lr, ror r6
    18e4:	02163a01 	andseq	r3, r6, #4096	; 0x1000
    18e8:	7b02047d 	blvc	82ae4 <__bss_end__+0x78754>
    18ec:	7d021600 	stcvc	6, cr1, [r2, #-0]
    18f0:	00770200 	rsbseq	r0, r7, r0, lsl #4
    18f4:	8b081500 	blhi	206cfc <__bss_end__+0x1fc96c>
    18f8:	019c0000 	orrseq	r0, ip, r0
    18fc:	05a60000 	streq	r0, [r6, #0]!
    1900:	01160000 	tsteq	r6, r0
    1904:	80080252 	andhi	r0, r8, r2, asr r2
    1908:	03510116 	cmpeq	r1, #-2147483643	; 0x80000005
    190c:	167ed091 			; <UNDEFINED> instruction: 0x167ed091
    1910:	40015001 	andmi	r5, r1, r1
    1914:	047d0216 	ldrbteq	r0, [sp], #-534	; 0x216
    1918:	16007b02 	strne	r7, [r0], -r2, lsl #22
    191c:	02007d02 	andeq	r7, r0, #2, 26	; 0x80
    1920:	15000077 	strne	r0, [r0, #-119]	; 0x77
    1924:	00008b2c 	andeq	r8, r0, ip, lsr #22
    1928:	0000019c 	muleq	r0, ip, r1
    192c:	000005d4 	ldrdeq	r0, [r0], -r4
    1930:	02520116 	subseq	r0, r2, #-2147483643	; 0x80000005
    1934:	01168008 	tsteq	r6, r8
    1938:	d0910351 	addsle	r0, r1, r1, asr r3
    193c:	5001167e 	andpl	r1, r1, lr, ror r6
    1940:	02163201 	andseq	r3, r6, #268435456	; 0x10000000
    1944:	7b02047d 	blvc	82b40 <__bss_end__+0x787b0>
    1948:	7d021600 	stcvc	6, cr1, [r2, #-0]
    194c:	00770200 	rsbseq	r0, r7, r0, lsl #4
    1950:	8b5c1500 	blhi	1706d58 <__bss_end__+0x16fc9c8>
    1954:	019c0000 	orrseq	r0, ip, r0
    1958:	06020000 	streq	r0, [r2], -r0
    195c:	01160000 	tsteq	r6, r0
    1960:	80080252 	andhi	r0, r8, r2, asr r2
    1964:	03510116 	cmpeq	r1, #-2147483643	; 0x80000005
    1968:	167ed091 			; <UNDEFINED> instruction: 0x167ed091
    196c:	38015001 	stmdacc	r1, {r0, ip, lr}
    1970:	047d0216 	ldrbteq	r0, [sp], #-534	; 0x216
    1974:	16007b02 	strne	r7, [r0], -r2, lsl #22
    1978:	02007d02 	andeq	r7, r0, #2, 26	; 0x80
    197c:	14000077 	strne	r0, [r0], #-119	; 0x77
    1980:	00008b64 	andeq	r8, r0, r4, ror #22
    1984:	00000680 	andeq	r0, r0, r0, lsl #13
    1988:	008b8015 	addeq	r8, fp, r5, lsl r0
    198c:	00068700 	andeq	r8, r6, r0, lsl #14
    1990:	00063a00 	andeq	r3, r6, r0, lsl #20
    1994:	53011600 	movwpl	r1, #5632	; 0x1600
    1998:	16b90802 	ldrtne	r0, [r9], r2, lsl #16
    199c:	03055201 	movweq	r5, #20993	; 0x5201
    19a0:	00009d60 	andeq	r9, r0, r0, ror #26
    19a4:	05510116 	ldrbeq	r0, [r1, #-278]	; 0x116
    19a8:	009d8003 	addseq	r8, sp, r3
    19ac:	50011600 	andpl	r1, r1, r0, lsl #12
    19b0:	9df80305 	ldclls	3, cr0, [r8, #20]!
    19b4:	14000000 	strne	r0, [r0], #-0
    19b8:	00008b84 	andeq	r8, r0, r4, lsl #23
    19bc:	0000069d 	muleq	r0, sp, r6
    19c0:	7a180000 	bvc	6019c8 <__bss_end__+0x5f7638>
    19c4:	55000000 	strpl	r0, [r0, #-0]
    19c8:	19000006 	stmdbne	r0, {r1, r2}
    19cc:	0000006b 	andeq	r0, r0, fp, rrx
    19d0:	45060009 	strmi	r0, [r6, #-9]
    19d4:	18000006 	stmdane	r0, {r1, r2}
    19d8:	0000007a 	andeq	r0, r0, sl, ror r0
    19dc:	0000066a 	andeq	r0, r0, sl, ror #12
    19e0:	00006b19 	andeq	r6, r0, r9, lsl fp
    19e4:	1f007f00 	svcne	0x00007f00
    19e8:	000003b5 			; <UNDEFINED> instruction: 0x000003b5
    19ec:	03a11d03 			; <UNDEFINED> instruction: 0x03a11d03
    19f0:	f21f0000 	vhadd.s16	d0, d15, d0
    19f4:	03000003 	movweq	r0, #3
    19f8:	0003b622 	andeq	fp, r3, r2, lsr #12
    19fc:	012e2000 	teqeq	lr, r0
    1a00:	1e030000 	cdpne	0, 0, cr0, cr3, cr0, {0}
    1a04:	00034521 	andeq	r4, r3, r1, lsr #10
    1a08:	25290300 	strcs	r0, [r9, #-768]!	; 0x300
    1a0c:	9d000000 	stcls	0, cr0, [r0, #-0]
    1a10:	1c000006 	stcne	0, cr0, [r0], {6}
    1a14:	00000081 	andeq	r0, r0, r1, lsl #1
    1a18:	06200022 	strteq	r0, [r0], -r2, lsr #32
    1a1c:	03000002 	movweq	r0, #2
    1a20:	00b80066 	adcseq	r0, r8, r6, rrx
    1a24:	00040000 	andeq	r0, r4, r0
    1a28:	000006fe 	strdeq	r0, [r0], -lr
    1a2c:	02eb0104 	rsceq	r0, fp, #4, 2
    1a30:	64010000 	strvs	r0, [r1], #-0
    1a34:	56000004 	strpl	r0, [r0], -r4
    1a38:	f0000003 			; <UNDEFINED> instruction: 0xf0000003
    1a3c:	2000008b 	andcs	r0, r0, fp, lsl #1
    1a40:	ec000000 	stc	0, cr0, [r0], {-0}
    1a44:	02000006 	andeq	r0, r0, #6
    1a48:	6e690504 	cdpvs	5, 6, cr0, cr9, cr4, {0}
    1a4c:	04030074 	streq	r0, [r3], #-116	; 0x74
    1a50:	00004d07 	andeq	r4, r0, r7, lsl #26
    1a54:	06010300 	streq	r0, [r1], -r0, lsl #6
    1a58:	00000229 	andeq	r0, r0, r9, lsr #4
    1a5c:	35050203 	strcc	r0, [r5, #-515]	; 0x203
    1a60:	03000002 	movweq	r0, #2
    1a64:	007c0504 	rsbseq	r0, ip, r4, lsl #10
    1a68:	08030000 	stmdaeq	r3, {}	; <UNPREDICTABLE>
    1a6c:	00007705 	andeq	r7, r0, r5, lsl #14
    1a70:	08010300 	stmdaeq	r1, {r8, r9}
    1a74:	00000227 	andeq	r0, r0, r7, lsr #4
    1a78:	7e070203 	cdpvc	2, 0, cr0, cr7, cr3, {0}
    1a7c:	03000001 	movweq	r0, #1
    1a80:	00480704 	subeq	r0, r8, r4, lsl #14
    1a84:	08030000 	stmdaeq	r3, {}	; <UNPREDICTABLE>
    1a88:	00004307 	andeq	r4, r0, r7, lsl #6
    1a8c:	07040300 	streq	r0, [r4, -r0, lsl #6]
    1a90:	00000219 	andeq	r0, r0, r9, lsl r2
    1a94:	30080103 	andcc	r0, r8, r3, lsl #2
    1a98:	04000002 	streq	r0, [r0], #-2
    1a9c:	0000029d 	muleq	r0, sp, r2
    1aa0:	8bf00301 	blhi	ffc026ac <__bss_end__+0xffbf831c>
    1aa4:	00100000 	andseq	r0, r0, r0
    1aa8:	9c010000 	stcls	0, cr0, [r1], {-0}
    1aac:	0000009c 	muleq	r0, ip, r0
    1ab0:	01007205 	tsteq	r0, r5, lsl #4
    1ab4:	00002c04 	andeq	r2, r0, r4, lsl #24
    1ab8:	00107000 	andseq	r7, r0, r0
    1abc:	56060000 	strpl	r0, [r6], -r0
    1ac0:	01000004 	tsteq	r0, r4
    1ac4:	008c000c 	addeq	r0, ip, ip
    1ac8:	00001000 	andeq	r1, r0, r0
    1acc:	059c0100 	ldreq	r0, [ip, #256]	; 0x100
    1ad0:	0d010072 	stceq	0, cr0, [r1, #-456]	; 0xfffffe38
    1ad4:	0000002c 	andeq	r0, r0, ip, lsr #32
    1ad8:	00001094 	muleq	r0, r4, r0
    1adc:	00ff0000 	rscseq	r0, pc, r0
    1ae0:	00040000 	andeq	r0, r4, r0
    1ae4:	00000769 	andeq	r0, r0, r9, ror #14
    1ae8:	02eb0104 	rsceq	r0, fp, #4, 2
    1aec:	82010000 	andhi	r0, r1, #0
    1af0:	56000004 	strpl	r0, [r0], -r4
    1af4:	10000003 	andne	r0, r0, r3
    1af8:	2800008c 	stmdacs	r0, {r2, r3, r7}
    1afc:	33000000 	movwcc	r0, #0
    1b00:	02000007 	andeq	r0, r0, #7
    1b04:	6e690504 	cdpvs	5, 6, cr0, cr9, cr4, {0}
    1b08:	04030074 	streq	r0, [r3], #-116	; 0x74
    1b0c:	00004d07 	andeq	r4, r0, r7, lsl #26
    1b10:	06010300 	streq	r0, [r1], -r0, lsl #6
    1b14:	00000229 	andeq	r0, r0, r9, lsr #4
    1b18:	35050203 	strcc	r0, [r5, #-515]	; 0x203
    1b1c:	03000002 	movweq	r0, #2
    1b20:	007c0504 	rsbseq	r0, ip, r4, lsl #10
    1b24:	08030000 	stmdaeq	r3, {}	; <UNPREDICTABLE>
    1b28:	00007705 	andeq	r7, r0, r5, lsl #14
    1b2c:	08010300 	stmdaeq	r1, {r8, r9}
    1b30:	00000227 	andeq	r0, r0, r7, lsr #4
    1b34:	7e070203 	cdpvc	2, 0, cr0, cr7, cr3, {0}
    1b38:	03000001 	movweq	r0, #1
    1b3c:	00480704 	subeq	r0, r8, r4, lsl #14
    1b40:	08030000 	stmdaeq	r3, {}	; <UNPREDICTABLE>
    1b44:	00004307 	andeq	r4, r0, r7, lsl #6
    1b48:	07040300 	streq	r0, [r4, -r0, lsl #6]
    1b4c:	00000219 	andeq	r0, r0, r9, lsl r2
    1b50:	30080103 	andcc	r0, r8, r3, lsl #2
    1b54:	04000002 	streq	r0, [r0], #-2
    1b58:	00007f04 	andeq	r7, r0, r4, lsl #30
    1b5c:	00720500 	rsbseq	r0, r2, r0, lsl #10
    1b60:	06060000 	streq	r0, [r6], -r0
    1b64:	01000002 	tsteq	r0, r2
    1b68:	008c1004 	addeq	r1, ip, r4
    1b6c:	00002800 	andeq	r2, r0, r0, lsl #16
    1b70:	ca9c0100 	bgt	fe701f78 <__bss_end__+0xfe6f7be8>
    1b74:	07000000 	streq	r0, [r0, -r0]
    1b78:	00008c24 	andeq	r8, r0, r4, lsr #24
    1b7c:	000000ac 	andeq	r0, r0, ip, lsr #1
    1b80:	05500108 	ldrbeq	r0, [r0, #-264]	; 0x108
    1b84:	009e3003 	addseq	r3, lr, r3
    1b88:	2c090000 	stccs	0, cr0, [r9], {-0}
    1b8c:	ea00008c 	b	1dc4 <_start-0x623c>
    1b90:	c0000000 	andgt	r0, r0, r0
    1b94:	08000000 	stmdaeq	r0, {}	; <UNPREDICTABLE>
    1b98:	08025001 	stmdaeq	r2, {r0, ip, lr}
    1b9c:	300a0064 	andcc	r0, sl, r4, rrx
    1ba0:	fb00008c 	blx	1dda <_start-0x6226>
    1ba4:	00000000 	andeq	r0, r0, r0
    1ba8:	0000250b 	andeq	r2, r0, fp, lsl #10
    1bac:	0000d900 	andeq	sp, r0, r0, lsl #18
    1bb0:	00790c00 	rsbseq	r0, r9, r0, lsl #24
    1bb4:	0d000000 	stceq	0, cr0, [r0, #-0]
    1bb8:	000003f2 	strdeq	r0, [r0], -r2
    1bbc:	00e42202 	rsceq	r2, r4, r2, lsl #4
    1bc0:	04040000 	streq	r0, [r4], #-0
    1bc4:	000000ca 	andeq	r0, r0, sl, asr #1
    1bc8:	0002460e 	andeq	r4, r2, lr, lsl #12
    1bcc:	fb500200 	blx	14023d6 <__bss_end__+0x13f8046>
    1bd0:	0c000000 	stceq	0, cr0, [r0], {-0}
    1bd4:	0000002c 	andeq	r0, r0, ip, lsr #32
    1bd8:	04770f00 	ldrbteq	r0, [r7], #-3840	; 0xf00
    1bdc:	63020000 	movwvs	r0, #8192	; 0x2000
    1be0:	0002dd00 	andeq	sp, r2, r0, lsl #26
    1be4:	33000400 	movwcc	r0, #1024	; 0x400
    1be8:	04000008 	streq	r0, [r0], #-8
    1bec:	0002eb01 	andeq	lr, r2, r1, lsl #22
    1bf0:	05760100 	ldrbeq	r0, [r6, #-256]!	; 0x100
    1bf4:	03560000 	cmpeq	r6, #0
    1bf8:	8c380000 	ldchi	0, cr0, [r8], #-0
    1bfc:	00b00000 	adcseq	r0, r0, r0
    1c00:	07ca0000 	strbeq	r0, [sl, r0]
    1c04:	04020000 	streq	r0, [r2], #-0
    1c08:	746e6905 	strbtvc	r6, [lr], #-2309	; 0x905
    1c0c:	07040300 	streq	r0, [r4, -r0, lsl #6]
    1c10:	0000004d 	andeq	r0, r0, sp, asr #32
    1c14:	29060103 	stmdbcs	r6, {r0, r1, r8}
    1c18:	03000002 	movweq	r0, #2
    1c1c:	02350502 	eorseq	r0, r5, #8388608	; 0x800000
    1c20:	04030000 	streq	r0, [r3], #-0
    1c24:	00007c05 	andeq	r7, r0, r5, lsl #24
    1c28:	05080300 	streq	r0, [r8, #-768]	; 0x300
    1c2c:	00000077 	andeq	r0, r0, r7, ror r0
    1c30:	0002aa04 	andeq	sl, r2, r4, lsl #20
    1c34:	5a2e0200 	bpl	b8243c <__bss_end__+0xb780ac>
    1c38:	03000000 	movweq	r0, #0
    1c3c:	02270801 	eoreq	r0, r7, #65536	; 0x10000
    1c40:	02030000 	andeq	r0, r3, #0
    1c44:	00017e07 	andeq	r7, r1, r7, lsl #28
    1c48:	05960400 	ldreq	r0, [r6, #1024]	; 0x400
    1c4c:	34020000 	strcc	r0, [r2], #-0
    1c50:	00000073 	andeq	r0, r0, r3, ror r0
    1c54:	48070403 	stmdami	r7, {r0, r1, sl}
    1c58:	03000000 	movweq	r0, #0
    1c5c:	00430708 	subeq	r0, r3, r8, lsl #14
    1c60:	04030000 	streq	r0, [r3], #-0
    1c64:	00021907 	andeq	r1, r2, r7, lsl #18
    1c68:	08010300 	stmdaeq	r1, {r8, r9}
    1c6c:	00000230 	andeq	r0, r0, r0, lsr r2
    1c70:	00950405 	addseq	r0, r5, r5, lsl #8
    1c74:	88060000 	stmdahi	r6, {}	; <UNPREDICTABLE>
    1c78:	07000000 	streq	r0, [r0, -r0]
    1c7c:	d10e030c 	tstle	lr, ip, lsl #6
    1c80:	08000000 	stmdaeq	r0, {}	; <UNPREDICTABLE>
    1c84:	03007874 	movweq	r7, #2164	; 0x874
    1c88:	00004f0f 	andeq	r4, r0, pc, lsl #30
    1c8c:	72080000 	andvc	r0, r8, #0
    1c90:	0f030078 	svceq	0x00030078
    1c94:	0000004f 	andeq	r0, r0, pc, asr #32
    1c98:	05150901 	ldreq	r0, [r5, #-2305]	; 0x901
    1c9c:	10030000 	andne	r0, r3, r0
    1ca0:	00000068 	andeq	r0, r0, r8, rrx
    1ca4:	04c60904 	strbeq	r0, [r6], #2308	; 0x904
    1ca8:	11030000 	mrsne	r0, (UNDEF: 3)
    1cac:	00000068 	andeq	r0, r0, r8, rrx
    1cb0:	fe040008 	cdp2	0, 0, cr0, cr4, cr8, {0}
    1cb4:	03000004 	movweq	r0, #4
    1cb8:	00009a12 	andeq	r9, r0, r2, lsl sl
    1cbc:	04010a00 	streq	r0, [r1], #-2560	; 0xa00
    1cc0:	0000f710 	andeq	pc, r0, r0, lsl r7	; <UNPREDICTABLE>
    1cc4:	051a0b00 	ldreq	r0, [sl, #-2816]	; 0xb00
    1cc8:	0b010000 	bleq	41cd0 <__bss_end__+0x37940>
    1ccc:	00000508 	andeq	r0, r0, r8, lsl #10
    1cd0:	04f00b02 	ldrbteq	r0, [r0], #2818	; 0xb02
    1cd4:	00030000 	andeq	r0, r3, r0
    1cd8:	00052f04 	andeq	r2, r5, r4, lsl #30
    1cdc:	dc100400 	cfldrsle	mvf0, [r0], {-0}
    1ce0:	07000000 	streq	r0, [r0, -r0]
    1ce4:	2f140414 	svccs	0x00140414
    1ce8:	09000001 	stmdbeq	r0, {r0}
    1cec:	0000059f 	muleq	r0, pc, r5	; <UNPREDICTABLE>
    1cf0:	002c1504 	eoreq	r1, ip, r4, lsl #10
    1cf4:	09000000 	stmdbeq	r0, {}	; <UNPREDICTABLE>
    1cf8:	0000058a 	andeq	r0, r0, sl, lsl #11
    1cfc:	00f71804 	rscseq	r1, r7, r4, lsl #16
    1d00:	09040000 	stmdbeq	r4, {}	; <UNPREDICTABLE>
    1d04:	00000555 	andeq	r0, r0, r5, asr r5
    1d08:	00d11b04 	sbcseq	r1, r1, r4, lsl #22
    1d0c:	00080000 	andeq	r0, r8, r0
    1d10:	00054704 	andeq	r4, r5, r4, lsl #14
    1d14:	02200400 	eoreq	r0, r0, #0, 8
    1d18:	0c000001 	stceq	0, cr0, [r0], {1}
    1d1c:	0000049c 	muleq	r0, ip, r4
    1d20:	00250601 	eoreq	r0, r5, r1, lsl #12
    1d24:	8c380000 	ldchi	0, cr0, [r8], #-0
    1d28:	00200000 	eoreq	r0, r0, r0
    1d2c:	9c010000 	stcls	0, cr0, [r1], {-0}
    1d30:	0000017a 	andeq	r0, r0, sl, ror r1
    1d34:	0100630d 	tsteq	r0, sp, lsl #6
    1d38:	00002506 	andeq	r2, r0, r6, lsl #10
    1d3c:	0010b800 	andseq	fp, r0, r0, lsl #16
    1d40:	8c4c0e00 	mcrrhi	14, 0, r0, ip, cr0
    1d44:	027a0000 	rsbseq	r0, sl, #0
    1d48:	010f0000 	mrseq	r0, CPSR
    1d4c:	00740251 	rsbseq	r0, r4, r1, asr r2
    1d50:	0550010f 	ldrbeq	r0, [r0, #-271]	; 0x10f
    1d54:	00a38403 	adceq	r8, r3, r3, lsl #8
    1d58:	10000000 	andne	r0, r0, r0
    1d5c:	00000527 	andeq	r0, r0, r7, lsr #10
    1d60:	8c580b01 	mrrchi	11, 0, r0, r8, cr1
    1d64:	00900000 	addseq	r0, r0, r0
    1d68:	9c010000 	stcls	0, cr0, [r1], {-0}
    1d6c:	00000227 	andeq	r0, r0, r7, lsr #4
    1d70:	0004b011 	andeq	fp, r4, r1, lsl r0
    1d74:	250c0100 	strcs	r0, [ip, #-256]	; 0x100
    1d78:	11000000 	mrsne	r0, (UNDEF: 0)
    1d7c:	0000056a 	andeq	r0, r0, sl, ror #10
    1d80:	00250c01 	eoreq	r0, r5, r1, lsl #24
    1d84:	b1120000 	tstlt	r2, r0
    1d88:	01000000 	mrseq	r0, (UNDEF: 0)
    1d8c:	7362130d 	cmnvc	r2, #872415232	; 0x34000000
    1d90:	0f010073 	svceq	0x00010073
    1d94:	00000227 	andeq	r0, r0, r7, lsr #4
    1d98:	000010d6 	ldrdeq	r1, [r0], -r6
    1d9c:	0004be14 	andeq	fp, r4, r4, lsl lr
    1da0:	27100100 	ldrcs	r0, [r0, -r0, lsl #2]
    1da4:	13000002 	movwne	r0, #2
    1da8:	01006263 	tsteq	r0, r3, ror #4
    1dac:	00022d17 	andeq	r2, r2, r7, lsl sp
    1db0:	0010f600 	andseq	pc, r0, r0, lsl #12
    1db4:	8c801500 	cfstr32hi	mvfx1, [r0], {0}
    1db8:	02960000 	addseq	r0, r6, #0
    1dbc:	bc160000 	ldclt	0, cr0, [r6], {-0}
    1dc0:	a100008c 	smlabbge	r0, ip, r0, r0
    1dc4:	fd000002 	stc2	0, cr0, [r0, #-8]
    1dc8:	0f000001 	svceq	0x00000001
    1dcc:	03055101 	movweq	r5, #20737	; 0x5101
    1dd0:	00009e3c 	andeq	r9, r0, ip, lsr lr
    1dd4:	0550010f 	ldrbeq	r0, [r0, #-271]	; 0x10f
    1dd8:	00a38403 	adceq	r8, r3, r3, lsl #8
    1ddc:	c4160000 	ldrgt	r0, [r6], #-0
    1de0:	bc00008c 	stclt	0, cr0, [r0], {140}	; 0x8c
    1de4:	14000002 	strne	r0, [r0], #-2
    1de8:	0f000002 	svceq	0x00000002
    1dec:	03055001 	movweq	r5, #20481	; 0x5001
    1df0:	00009e60 	andeq	r9, r0, r0, ror #28
    1df4:	8cc81500 	cfstr64hi	mvdx1, [r8], {0}
    1df8:	02d20000 	sbcseq	r0, r2, #0
    1dfc:	cc150000 	ldcgt	0, cr0, [r5], {-0}
    1e00:	d900008c 	stmdble	r0, {r2, r3, r7}
    1e04:	00000002 	andeq	r0, r0, r2
    1e08:	00250405 	eoreq	r0, r5, r5, lsl #8
    1e0c:	04050000 	streq	r0, [r5], #-0
    1e10:	0000012f 	andeq	r0, r0, pc, lsr #2
    1e14:	0004d417 	andeq	sp, r4, r7, lsl r4
    1e18:	d1050100 	mrsle	r0, (UNDEF: 21)
    1e1c:	05000000 	streq	r0, [r0, #-0]
    1e20:	00a38403 	adceq	r8, r3, r3, lsl #8
    1e24:	00251800 	eoreq	r1, r5, r0, lsl #16
    1e28:	02530000 	subseq	r0, r3, #0
    1e2c:	25190000 	ldrcs	r0, [r9, #-0]
    1e30:	00000000 	andeq	r0, r0, r0
    1e34:	0003b511 	andeq	fp, r3, r1, lsl r5
    1e38:	5e1d0500 	cfmul32pl	mvfx0, mvfx13, mvfx0
    1e3c:	05000002 	streq	r0, [r0, #-2]
    1e40:	00024404 	andeq	r4, r2, r4, lsl #8
    1e44:	04b01100 	ldrteq	r1, [r0], #256	; 0x100
    1e48:	0c010000 	stceq	0, cr0, [r1], {-0}
    1e4c:	00000025 	andeq	r0, r0, r5, lsr #32
    1e50:	00056a11 	andeq	r6, r5, r1, lsl sl
    1e54:	250c0100 	strcs	r0, [ip, #-256]	; 0x100
    1e58:	1a000000 	bne	1e60 <_start-0x61a0>
    1e5c:	0000053a 	andeq	r0, r0, sl, lsr r5
    1e60:	02904403 	addseq	r4, r0, #50331648	; 0x3000000
    1e64:	90190000 	andsls	r0, r9, r0
    1e68:	19000002 	stmdbne	r0, {r1}
    1e6c:	0000005a 	andeq	r0, r0, sl, asr r0
    1e70:	d1040500 	tstle	r4, r0, lsl #10
    1e74:	1b000000 	blne	1e7c <_start-0x6184>
    1e78:	0000055d 	andeq	r0, r0, sp, asr r5
    1e7c:	022d2a04 	eoreq	r2, sp, #4, 20	; 0x4000
    1e80:	e11c0000 	tst	ip, r0
    1e84:	03000004 	movweq	r0, #4
    1e88:	00002515 	andeq	r2, r0, r5, lsl r5
    1e8c:	0002bc00 	andeq	fp, r2, r0, lsl #24
    1e90:	02901900 	addseq	r1, r0, #0, 18
    1e94:	8f190000 	svchi	0x00190000
    1e98:	1d000000 	stcne	0, cr0, [r0, #-0]
    1e9c:	03451c00 	movteq	r1, #23552	; 0x5c00
    1ea0:	29050000 	stmdbcs	r5, {}	; <UNPREDICTABLE>
    1ea4:	00000025 	andeq	r0, r0, r5, lsr #32
    1ea8:	000002d2 	ldrdeq	r0, [r0], -r2
    1eac:	00008f19 	andeq	r8, r0, r9, lsl pc
    1eb0:	12001d00 	andne	r1, r0, #0, 26
    1eb4:	000000b1 	strheq	r0, [r0], -r1
    1eb8:	7712d105 	ldrvc	sp, [r2, -r5, lsl #2]
    1ebc:	05000004 	streq	r0, [r0, #-4]
    1ec0:	01ad0063 			; <UNDEFINED> instruction: 0x01ad0063
    1ec4:	00040000 	andeq	r0, r4, r0
    1ec8:	000009ca 	andeq	r0, r0, sl, asr #19
    1ecc:	02eb0104 	rsceq	r0, fp, #4, 2
    1ed0:	bf010000 	svclt	0x00010000
    1ed4:	56000005 	strpl	r0, [r0], -r5
    1ed8:	80000003 	andhi	r0, r0, r3
    1edc:	00000002 	andeq	r0, r0, r2
    1ee0:	ef000000 	svc	0x00000000
    1ee4:	02000008 	andeq	r0, r0, #8
    1ee8:	6e690504 	cdpvs	5, 6, cr0, cr9, cr4, {0}
    1eec:	04030074 	streq	r0, [r3], #-116	; 0x74
    1ef0:	00004d07 	andeq	r4, r0, r7, lsl #26
    1ef4:	06010300 	streq	r0, [r1], -r0, lsl #6
    1ef8:	00000229 	andeq	r0, r0, r9, lsr #4
    1efc:	35050203 	strcc	r0, [r5, #-515]	; 0x203
    1f00:	03000002 	movweq	r0, #2
    1f04:	007c0504 	rsbseq	r0, ip, r4, lsl #10
    1f08:	08030000 	stmdaeq	r3, {}	; <UNPREDICTABLE>
    1f0c:	00007705 	andeq	r7, r0, r5, lsl #14
    1f10:	08010300 	stmdaeq	r1, {r8, r9}
    1f14:	00000227 	andeq	r0, r0, r7, lsr #4
    1f18:	7e070203 	cdpvc	2, 0, cr0, cr7, cr3, {0}
    1f1c:	03000001 	movweq	r0, #1
    1f20:	00480704 	subeq	r0, r8, r4, lsl #14
    1f24:	08030000 	stmdaeq	r3, {}	; <UNPREDICTABLE>
    1f28:	00004307 	andeq	r4, r0, r7, lsl #6
    1f2c:	07040300 	streq	r0, [r4, -r0, lsl #6]
    1f30:	00000219 	andeq	r0, r0, r9, lsl r2
    1f34:	30080103 	andcc	r0, r8, r3, lsl #2
    1f38:	04000002 	streq	r0, [r0], #-2
    1f3c:	000005a5 	andeq	r0, r0, r5, lsr #11
    1f40:	00250e01 	eoreq	r0, r5, r1, lsl #28
    1f44:	8ce80000 	stclhi	0, cr0, [r8]
    1f48:	00180000 	andseq	r0, r8, r0
    1f4c:	9c010000 	stcls	0, cr0, [r1], {-0}
    1f50:	000000a2 	andeq	r0, r0, r2, lsr #1
    1f54:	00061105 	andeq	r1, r6, r5, lsl #2
    1f58:	2c0f0100 	stfcss	f0, [pc], {-0}
    1f5c:	16000000 	strne	r0, [r0], -r0
    1f60:	00000011 	andeq	r0, r0, r1, lsl r0
    1f64:	0005f406 	andeq	pc, r5, r6, lsl #8
    1f68:	00170100 	andseq	r0, r7, r0, lsl #2
    1f6c:	1400008d 	strne	r0, [r0], #-141	; 0x8d
    1f70:	01000000 	mrseq	r0, (UNDEF: 0)
    1f74:	0000c79c 	muleq	r0, ip, r7
    1f78:	06110500 	ldreq	r0, [r1], -r0, lsl #10
    1f7c:	18010000 	stmdane	r1, {}	; <UNPREDICTABLE>
    1f80:	0000002c 	andeq	r0, r0, ip, lsr #32
    1f84:	00001135 	andeq	r1, r0, r5, lsr r1
    1f88:	04770600 	ldrbteq	r0, [r7], #-1536	; 0x600
    1f8c:	1f010000 	svcne	0x00010000
    1f90:	00008d14 	andeq	r8, r0, r4, lsl sp
    1f94:	00000048 	andeq	r0, r0, r8, asr #32
    1f98:	01779c01 	cmneq	r7, r1, lsl #24
    1f9c:	09070000 	stmdbeq	r7, {}	; <UNPREDICTABLE>
    1fa0:	01000006 	tsteq	r0, r6
    1fa4:	0001772a 	andeq	r7, r1, sl, lsr #14
    1fa8:	10001c00 	andne	r1, r0, r0, lsl #24
    1fac:	05ec0720 	strbeq	r0, [ip, #1824]!	; 0x720
    1fb0:	2b010000 	blcs	41fb8 <__bss_end__+0x37c28>
    1fb4:	00000177 	andeq	r0, r0, r7, ror r1
    1fb8:	20100024 	andscs	r0, r0, r4, lsr #32
    1fbc:	0005b307 	andeq	fp, r5, r7, lsl #6
    1fc0:	772c0100 	strvc	r0, [ip, -r0, lsl #2]!
    1fc4:	00000001 	andeq	r0, r0, r1
    1fc8:	085a0000 	ldmdaeq	sl, {}^	; <UNPREDICTABLE>
    1fcc:	000005d3 	ldrdeq	r0, [r0], -r3
    1fd0:	01772d01 	cmneq	r7, r1, lsl #26
    1fd4:	09200000 	stmdbeq	r0!, {}	; <UNPREDICTABLE>
    1fd8:	00008d1c 	andeq	r8, r0, ip, lsl sp
    1fdc:	00000079 	andeq	r0, r0, r9, ror r0
    1fe0:	008d2809 	addeq	r2, sp, r9, lsl #16
    1fe4:	0000a200 	andeq	sl, r0, r0, lsl #4
    1fe8:	8d300a00 	vldmdbhi	r0!, {s0-s-1}
    1fec:	018d0000 	orreq	r0, sp, r0
    1ff0:	013a0000 	teqeq	sl, r0
    1ff4:	010b0000 	mrseq	r0, (UNDEF: 11)
    1ff8:	004e0150 	subeq	r0, lr, r0, asr r1
    1ffc:	008d3c0a 	addeq	r3, sp, sl, lsl #24
    2000:	00019e00 	andeq	r9, r1, r0, lsl #28
    2004:	00015a00 	andeq	r5, r1, r0, lsl #20
    2008:	51010b00 	tstpl	r1, r0, lsl #22
    200c:	00010c05 	andeq	r0, r1, r5, lsl #24
    2010:	010b5a00 	tsteq	fp, r0, lsl #20
    2014:	240c0550 	strcs	r0, [ip], #-1360	; 0x550
    2018:	00201000 	eoreq	r1, r0, r0
    201c:	008d480c 	addeq	r4, sp, ip, lsl #16
    2020:	00019e00 	andeq	r9, r1, r0, lsl #28
    2024:	51010b00 	tstpl	r1, r0, lsl #22
    2028:	00200c05 	eoreq	r0, r0, r5, lsl #24
    202c:	010b5a00 	tsteq	fp, r0, lsl #20
    2030:	1c0c0550 	cfstr32ne	mvfx0, [ip], {80}	; 0x50
    2034:	00201000 	eoreq	r1, r0, r0
    2038:	00250d00 	eoreq	r0, r5, r0, lsl #26
    203c:	a8080000 	stmdage	r8, {}	; <UNPREDICTABLE>
    2040:	01000005 	tsteq	r0, r5
    2044:	0001880d 	andeq	r8, r1, sp, lsl #16
    2048:	2c0d1000 	stccs	0, cr1, [sp], {-0}
    204c:	0e000000 	cdpeq	0, 0, cr0, cr0, cr0, {0}
    2050:	00000246 	andeq	r0, r0, r6, asr #4
    2054:	019e5002 	orrseq	r5, lr, r2
    2058:	2c0f0000 	stccs	0, cr0, [pc], {-0}
    205c:	00000000 	andeq	r0, r0, r0
    2060:	00060310 	andeq	r0, r6, r0, lsl r3
    2064:	0f9c0200 	svceq	0x009c0200
    2068:	0000002c 	andeq	r0, r0, ip, lsr #32
    206c:	00002c0f 	andeq	r2, r0, pc, lsl #24
    2070:	d8000000 	stmdale	r0, {}	; <UNPREDICTABLE>
    2074:	04000001 	streq	r0, [r0], #-1
    2078:	000ab800 	andeq	fp, sl, r0, lsl #16
    207c:	eb010400 	bl	43084 <__bss_end__+0x38cf4>
    2080:	01000002 	tsteq	r0, r2
    2084:	00000633 	andeq	r0, r0, r3, lsr r6
    2088:	00000356 	andeq	r0, r0, r6, asr r3
    208c:	00008d5c 	andeq	r8, r0, ip, asr sp
    2090:	00000088 	andeq	r0, r0, r8, lsl #1
    2094:	0000098c 	andeq	r0, r0, ip, lsl #19
    2098:	69050402 	stmdbvs	r5, {r1, sl}
    209c:	0300746e 	movweq	r7, #1134	; 0x46e
    20a0:	004d0704 	subeq	r0, sp, r4, lsl #14
    20a4:	01030000 	mrseq	r0, (UNDEF: 3)
    20a8:	00022906 	andeq	r2, r2, r6, lsl #18
    20ac:	05020300 	streq	r0, [r2, #-768]	; 0x300
    20b0:	00000235 	andeq	r0, r0, r5, lsr r2
    20b4:	7c050403 	cfstrsvc	mvf0, [r5], {3}
    20b8:	03000000 	movweq	r0, #0
    20bc:	00770508 	rsbseq	r0, r7, r8, lsl #10
    20c0:	01030000 	mrseq	r0, (UNDEF: 3)
    20c4:	00022708 	andeq	r2, r2, r8, lsl #14
    20c8:	07020300 	streq	r0, [r2, -r0, lsl #6]
    20cc:	0000017e 	andeq	r0, r0, lr, ror r1
    20d0:	48070403 	stmdami	r7, {r0, r1, sl}
    20d4:	03000000 	movweq	r0, #0
    20d8:	00430708 	subeq	r0, r3, r8, lsl #14
    20dc:	04030000 	streq	r0, [r3], #-0
    20e0:	00021907 	andeq	r1, r2, r7, lsl #18
    20e4:	08010300 	stmdaeq	r1, {r8, r9}
    20e8:	00000230 	andeq	r0, r0, r0, lsr r2
    20ec:	00065204 	andeq	r5, r6, r4, lsl #4
    20f0:	5c050100 	stfpls	f0, [r5], {-0}
    20f4:	1c00008d 	stcne	0, cr0, [r0], {141}	; 0x8d
    20f8:	01000000 	mrseq	r0, (UNDEF: 0)
    20fc:	00009e9c 	muleq	r0, ip, lr
    2100:	064c0500 	strbeq	r0, [ip], -r0, lsl #10
    2104:	05010000 	streq	r0, [r1, #-0]
    2108:	0000002c 	andeq	r0, r0, ip, lsr #32
    210c:	0000115f 	andeq	r1, r0, pc, asr r1
    2110:	06160600 	ldreq	r0, [r6], -r0, lsl #12
    2114:	0b010000 	bleq	4211c <__bss_end__+0x37d8c>
    2118:	0000002c 	andeq	r0, r0, ip, lsr #32
    211c:	00008d78 	andeq	r8, r0, r8, ror sp
    2120:	00000014 	andeq	r0, r0, r4, lsl r0
    2124:	00cb9c01 	sbceq	r9, fp, r1, lsl #24
    2128:	84070000 	strhi	r0, [r7], #-0
    212c:	ca00008d 	bgt	2368 <_start-0x5c98>
    2130:	08000001 	stmdaeq	r0, {r0}
    2134:	0c055001 	stceq	0, cr5, [r5], {1}
    2138:	20003004 	andcs	r3, r0, r4
    213c:	68060000 	stmdavs	r6, {}	; <UNPREDICTABLE>
    2140:	01000006 	tsteq	r0, r6
    2144:	00002c10 	andeq	r2, r0, r0, lsl ip
    2148:	008d8c00 	addeq	r8, sp, r0, lsl #24
    214c:	00000c00 	andeq	r0, r0, r0, lsl #24
    2150:	f99c0100 			; <UNDEFINED> instruction: 0xf99c0100
    2154:	09000000 	stmdbeq	r0, {}	; <UNPREDICTABLE>
    2158:	14010075 	strne	r0, [r1], #-117	; 0x75
    215c:	0000002c 	andeq	r0, r0, ip, lsr #32
    2160:	940a5001 	strls	r5, [sl], #-1
    2164:	9e00008d 	cdpls	0, 0, cr0, cr0, cr13, {4}
    2168:	00000000 	andeq	r0, r0, r0
    216c:	00065f04 	andeq	r5, r6, r4, lsl #30
    2170:	98190100 	ldmdals	r9, {r8}
    2174:	2400008d 	strcs	r0, [r0], #-141	; 0x8d
    2178:	01000000 	mrseq	r0, (UNDEF: 0)
    217c:	0001579c 	muleq	r1, ip, r7
    2180:	73750b00 	cmnvc	r5, #0, 22
    2184:	2c190100 	ldfcss	f0, [r9], {-0}
    2188:	93000000 	movwls	r0, #0
    218c:	09000011 	stmdbeq	r0, {r0, r4}
    2190:	01006272 	tsteq	r0, r2, ror r2
    2194:	00002c1a 	andeq	r2, r0, sl, lsl ip
    2198:	0c540100 	ldfeqe	f0, [r4], {-0}
    219c:	00008da8 	andeq	r8, r0, r8, lsr #27
    21a0:	00000010 	andeq	r0, r0, r0, lsl r0
    21a4:	0000014d 	andeq	r0, r0, sp, asr #2
    21a8:	0061720d 	rsbeq	r7, r1, sp, lsl #4
    21ac:	002c1c01 	eoreq	r1, ip, r1, lsl #24
    21b0:	11b10000 			; <UNDEFINED> instruction: 0x11b10000
    21b4:	ac0a0000 	stcge	0, cr0, [sl], {-0}
    21b8:	cb00008d 	blgt	23f4 <_start-0x5c0c>
    21bc:	00000000 	andeq	r0, r0, r0
    21c0:	008da40a 	addeq	sl, sp, sl, lsl #8
    21c4:	0000cb00 	andeq	ip, r0, r0, lsl #22
    21c8:	46040000 	strmi	r0, [r4], -r0
    21cc:	01000002 	tsteq	r0, r2
    21d0:	008dbc22 	addeq	fp, sp, r2, lsr #24
    21d4:	00001400 	andeq	r1, r0, r0, lsl #8
    21d8:	909c0100 	addsls	r0, ip, r0, lsl #2
    21dc:	0b000001 	bleq	21e8 <_start-0x5e18>
    21e0:	0100736d 	tsteq	r0, sp, ror #6
    21e4:	00002c22 	andeq	r2, r0, r2, lsr #24
    21e8:	0011c400 	andseq	ip, r1, r0, lsl #8
    21ec:	8dcc0700 	stclhi	7, cr0, [ip]
    21f0:	00f90000 	rscseq	r0, r9, r0
    21f4:	01080000 	mrseq	r0, (UNDEF: 8)
    21f8:	01f30750 	mvnseq	r0, r0, asr r7
    21fc:	03e80a50 	mvneq	r0, #80, 20	; 0x50000
    2200:	0400001e 	streq	r0, [r0], #-30
    2204:	00000629 	andeq	r0, r0, r9, lsr #12
    2208:	8dd02501 	cfldr64hi	mvdx2, [r0, #4]
    220c:	00140000 	andseq	r0, r4, r0
    2210:	9c010000 	stcls	0, cr0, [r1], {-0}
    2214:	000001ca 	andeq	r0, r0, sl, asr #3
    2218:	6365730b 	cmnvs	r5, #738197504	; 0x2c000000
    221c:	2c250100 	stfcss	f0, [r5], #-0
    2220:	e5000000 	str	r0, [r0, #-0]
    2224:	07000011 	smladeq	r0, r1, r0, r0
    2228:	00008de0 	andeq	r8, r0, r0, ror #27
    222c:	00000157 	andeq	r0, r0, r7, asr r1
    2230:	07500108 	ldrbeq	r0, [r0, -r8, lsl #2]
    2234:	0a5001f3 	beq	1402a08 <__bss_end__+0x13f8678>
    2238:	001e03e8 	andseq	r0, lr, r8, ror #7
    223c:	06460e00 	strbeq	r0, [r6], -r0, lsl #28
    2240:	a8020000 	stmdage	r2, {}	; <UNPREDICTABLE>
    2244:	0000002c 	andeq	r0, r0, ip, lsr #32
    2248:	00002c0f 	andeq	r2, r0, pc, lsl #24
    224c:	82000000 	andhi	r0, r0, #0
    2250:	04000008 	streq	r0, [r0], #-8
    2254:	000b9b00 	andeq	r9, fp, r0, lsl #22
    2258:	eb010400 	bl	43260 <__bss_end__+0x38ed0>
    225c:	01000002 	tsteq	r0, r2
    2260:	000006bb 			; <UNDEFINED> instruction: 0x000006bb
    2264:	00000356 	andeq	r0, r0, r6, asr r3
    2268:	00008de4 	andeq	r8, r0, r4, ror #27
    226c:	000005a0 	andeq	r0, r0, r0, lsr #11
    2270:	00000a33 	andeq	r0, r0, r3, lsr sl
    2274:	43070802 	movwmi	r0, #30722	; 0x7802
    2278:	02000000 	andeq	r0, r0, #0
    227c:	004d0704 	subeq	r0, sp, r4, lsl #14
    2280:	01020000 	mrseq	r0, (UNDEF: 2)
    2284:	00022906 	andeq	r2, r2, r6, lsl #18
    2288:	05020200 	streq	r0, [r2, #-512]	; 0x200
    228c:	00000235 	andeq	r0, r0, r5, lsr r2
    2290:	7c050402 	cfstrsvc	mvf0, [r5], {2}
    2294:	02000000 	andeq	r0, r0, #0
    2298:	00770508 	rsbseq	r0, r7, r8, lsl #10
    229c:	01020000 	mrseq	r0, (UNDEF: 2)
    22a0:	00022708 	andeq	r2, r2, r8, lsl #14
    22a4:	07020200 	streq	r0, [r2, -r0, lsl #4]
    22a8:	0000017e 	andeq	r0, r0, lr, ror r1
    22ac:	48070402 	stmdami	r7, {r1, sl}
    22b0:	03000000 	movweq	r0, #0
    22b4:	6e690504 	cdpvs	5, 6, cr0, cr9, cr4, {0}
    22b8:	04020074 	streq	r0, [r2], #-116	; 0x74
    22bc:	00021907 	andeq	r1, r2, r7, lsl #18
    22c0:	08010200 	stmdaeq	r1, {r9}
    22c4:	00000230 	andeq	r0, r0, r0, lsr r2
    22c8:	0c020104 	stfeqs	f0, [r2], {4}
    22cc:	000000b2 	strheq	r0, [r0], -r2
    22d0:	0006ab05 	andeq	sl, r6, r5, lsl #22
    22d4:	87050000 	strhi	r0, [r5, -r0]
    22d8:	01000007 	tsteq	r0, r7
    22dc:	0007c005 	andeq	ip, r7, r5
    22e0:	cf050400 	svcgt	0x00050400
    22e4:	05000007 	streq	r0, [r0, #-7]
    22e8:	0007de05 	andeq	sp, r7, r5, lsl #28
    22ec:	ed050600 	stc	6, cr0, [r5, #-0]
    22f0:	07000007 	streq	r0, [r0, -r7]
    22f4:	0007fc05 	andeq	pc, r7, r5, lsl #24
    22f8:	0b050300 	bleq	142f00 <__bss_end__+0x138b70>
    22fc:	02000008 	andeq	r0, r0, #8
    2300:	07b40600 	ldreq	r0, [r4, r0, lsl #12]!
    2304:	15020000 	strne	r0, [r2, #-0]
    2308:	00000079 	andeq	r0, r0, r9, ror r0
    230c:	00028d07 	andeq	r8, r2, r7, lsl #26
    2310:	e43f0100 	ldrt	r0, [pc], #-256	; 2318 <_start-0x5ce8>
    2314:	d400008d 	strle	r0, [r0], #-141	; 0x8d
    2318:	01000000 	mrseq	r0, (UNDEF: 0)
    231c:	0001339c 	muleq	r1, ip, r3
    2320:	69700800 	ldmdbvs	r0!, {fp}^
    2324:	3f01006e 	svccc	0x0001006e
    2328:	0000002c 	andeq	r0, r0, ip, lsr #32
    232c:	00001206 	andeq	r1, r0, r6, lsl #4
    2330:	0006db09 	andeq	sp, r6, r9, lsl #22
    2334:	33470100 	movtcc	r0, #28928	; 0x7100
    2338:	24000001 	strcs	r0, [r0], #-1
    233c:	09000012 	stmdbeq	r0, {r1, r4}
    2340:	0000081a 	andeq	r0, r0, sl, lsl r8
    2344:	002c4901 	eoreq	r4, ip, r1, lsl #18
    2348:	12790000 	rsbsne	r0, r9, #0
    234c:	52090000 	andpl	r0, r9, #0
    2350:	01000007 	tsteq	r0, r7
    2354:	00002c57 	andeq	r2, r0, r7, asr ip
    2358:	00144500 	andseq	r4, r4, r0, lsl #10
    235c:	8e780a00 	vaddhi.f32	s1, s16, s0
    2360:	08410000 	stmdaeq	r1, {}^	; <UNPREDICTABLE>
    2364:	01220000 	teqeq	r2, r0
    2368:	010b0000 	mrseq	r0, (UNDEF: 11)
    236c:	00750250 	rsbseq	r0, r5, r0, asr r2
    2370:	8eac0c00 	cdphi	12, 10, cr0, cr12, cr0, {0}
    2374:	08620000 	stmdaeq	r2!, {}^	; <UNPREDICTABLE>
    2378:	010b0000 	mrseq	r0, (UNDEF: 11)
    237c:	00750250 	rsbseq	r0, r5, r0, asr r2
    2380:	040d0000 	streq	r0, [sp], #-0
    2384:	00000139 	andeq	r0, r0, r9, lsr r1
    2388:	00002c0e 	andeq	r2, r0, lr, lsl #24
    238c:	005f0700 	subseq	r0, pc, r0, lsl #14
    2390:	60010000 	andvs	r0, r1, r0
    2394:	00008eb8 			; <UNDEFINED> instruction: 0x00008eb8
    2398:	00000038 	andeq	r0, r0, r8, lsr r0
    239c:	01969c01 	orrseq	r9, r6, r1, lsl #24
    23a0:	70080000 	andvc	r0, r8, r0
    23a4:	01006e69 	tsteq	r0, r9, ror #28
    23a8:	00002c60 	andeq	r2, r0, r0, ror #24
    23ac:	00147500 	andseq	r7, r4, r0, lsl #10
    23b0:	06db0900 	ldrbeq	r0, [fp], r0, lsl #18
    23b4:	67010000 	strvs	r0, [r1, -r0]
    23b8:	00000133 	andeq	r0, r0, r3, lsr r1
    23bc:	00001496 	muleq	r0, r6, r4
    23c0:	00075209 	andeq	r5, r7, r9, lsl #4
    23c4:	2c680100 	stfcse	f0, [r8], #-0
    23c8:	cc000000 	stcgt	0, cr0, [r0], {-0}
    23cc:	0c000014 	stceq	0, cr0, [r0], {20}
    23d0:	00008ee8 	andeq	r8, r0, r8, ror #29
    23d4:	00000862 	andeq	r0, r0, r2, ror #16
    23d8:	0751010b 	ldrbeq	r0, [r1, -fp, lsl #2]
    23dc:	5001f331 	andpl	pc, r1, r1, lsr r3	; <UNPREDICTABLE>
    23e0:	00241a4f 	eoreq	r1, r4, pc, asr #20
    23e4:	00be0700 	adcseq	r0, lr, r0, lsl #14
    23e8:	7b010000 	blvc	423f0 <__bss_end__+0x38060>
    23ec:	00008ef0 	strdeq	r8, [r0], -r0
    23f0:	00000038 	andeq	r0, r0, r8, lsr r0
    23f4:	01ee9c01 	mvneq	r9, r1, lsl #24
    23f8:	70080000 	andvc	r0, r8, r0
    23fc:	01006e69 	tsteq	r0, r9, ror #28
    2400:	00002c7b 	andeq	r2, r0, fp, ror ip
    2404:	00150c00 	andseq	r0, r5, r0, lsl #24
    2408:	06db0900 	ldrbeq	r0, [fp], r0, lsl #18
    240c:	81010000 	mrshi	r0, (UNDEF: 1)
    2410:	00000133 	andeq	r0, r0, r3, lsr r1
    2414:	0000152d 	andeq	r1, r0, sp, lsr #10
    2418:	00075209 	andeq	r5, r7, r9, lsl #4
    241c:	2c820100 	stfcss	f0, [r2], {0}
    2420:	63000000 	movwvs	r0, #0
    2424:	0c000015 	stceq	0, cr0, [r0], {21}
    2428:	00008f20 	andeq	r8, r0, r0, lsr #30
    242c:	00000862 	andeq	r0, r0, r2, ror #16
    2430:	0751010b 	ldrbeq	r0, [r1, -fp, lsl #2]
    2434:	5001f331 	andpl	pc, r1, r1, lsr r3	; <UNPREDICTABLE>
    2438:	00241a4f 	eoreq	r1, r4, pc, asr #20
    243c:	02790700 	rsbseq	r0, r9, #0, 14
    2440:	95010000 	strls	r0, [r1, #-0]
    2444:	00008f28 	andeq	r8, r0, r8, lsr #30
    2448:	000000cc 	andeq	r0, r0, ip, asr #1
    244c:	02649c01 	rsbeq	r9, r4, #256	; 0x100
    2450:	70080000 	andvc	r0, r8, r0
    2454:	01006e69 	tsteq	r0, r9, ror #28
    2458:	00002c95 	muleq	r0, r5, ip
    245c:	0015a300 	andseq	sl, r5, r0, lsl #6
    2460:	06db0900 	ldrbeq	r0, [fp], r0, lsl #18
    2464:	9b010000 	blls	4246c <__bss_end__+0x380dc>
    2468:	00000133 	andeq	r0, r0, r3, lsr r1
    246c:	000015c1 	andeq	r1, r0, r1, asr #11
    2470:	00081a09 	andeq	r1, r8, r9, lsl #20
    2474:	2c9d0100 	ldfcss	f0, [sp], {0}
    2478:	16000000 	strne	r0, [r0], -r0
    247c:	09000016 	stmdbeq	r0, {r1, r2, r4}
    2480:	00000752 	andeq	r0, r0, r2, asr r7
    2484:	002cab01 	eoreq	sl, ip, r1, lsl #22
    2488:	17e20000 	strbne	r0, [r2, r0]!
    248c:	bc0a0000 	stclt	0, cr0, [sl], {-0}
    2490:	4100008f 	smlabbmi	r0, pc, r0, r0	; <UNPREDICTABLE>
    2494:	53000008 	movwpl	r0, #8
    2498:	0b000002 	bleq	24a8 <_start-0x5b58>
    249c:	75025001 	strvc	r5, [r2, #-1]
    24a0:	e80c0000 	stmda	ip, {}	; <UNPREDICTABLE>
    24a4:	6200008f 	andvs	r0, r0, #143	; 0x8f
    24a8:	0b000008 	bleq	24d0 <_start-0x5b30>
    24ac:	75025001 	strvc	r5, [r2, #-1]
    24b0:	0f000000 	svceq	0x00000000
    24b4:	000001a3 	andeq	r0, r0, r3, lsr #3
    24b8:	0064b301 	rsbeq	fp, r4, r1, lsl #6
    24bc:	8ff40000 	svchi	0x00f40000
    24c0:	004c0000 	subeq	r0, ip, r0
    24c4:	9c010000 	stcls	0, cr0, [r1], {-0}
    24c8:	000002ac 	andeq	r0, r0, ip, lsr #5
    24cc:	6e697008 	cdpvs	0, 6, cr7, cr9, cr8, {0}
    24d0:	2cb30100 	ldfcss	f0, [r3]
    24d4:	00000000 	andeq	r0, r0, r0
    24d8:	10000018 	andne	r0, r0, r8, lsl r0
    24dc:	b9010076 	stmdblt	r1, {r1, r2, r4, r5, r6}
    24e0:	0000002c 	andeq	r0, r0, ip, lsr #32
    24e4:	00001858 	andeq	r1, r0, r8, asr r8
    24e8:	00901411 	addseq	r1, r0, r1, lsl r4
    24ec:	00084100 	andeq	r4, r8, r0, lsl #2
    24f0:	90241100 	eorls	r1, r4, r0, lsl #2
    24f4:	08410000 	stmdaeq	r1, {}^	; <UNPREDICTABLE>
    24f8:	07000000 	streq	r0, [r0, -r0]
    24fc:	00000029 	andeq	r0, r0, r9, lsr #32
    2500:	9040c501 	subls	ip, r0, r1, lsl #10
    2504:	00240000 	eoreq	r0, r4, r0
    2508:	9c010000 	stcls	0, cr0, [r1], {-0}
    250c:	000002fc 	strdeq	r0, [r0], -ip
    2510:	6e697008 	cdpvs	0, 6, cr7, cr9, cr8, {0}
    2514:	2cc50100 	stfcse	f0, [r5], {0}
    2518:	8e000000 	cdphi	0, 0, cr0, cr0, cr0, {0}
    251c:	08000018 	stmdaeq	r0, {r3, r4}
    2520:	c5010076 	strgt	r0, [r1, #-118]	; 0x76
    2524:	0000002c 	andeq	r0, r0, ip, lsr #32
    2528:	000018c8 	andeq	r1, r0, r8, asr #17
    252c:	0090580a 	addseq	r5, r0, sl, lsl #16
    2530:	00013e00 	andeq	r3, r1, r0, lsl #28
    2534:	0002f200 	andeq	pc, r2, r0, lsl #4
    2538:	50010b00 	andpl	r0, r1, r0, lsl #22
    253c:	5001f303 	andpl	pc, r1, r3, lsl #6
    2540:	90601100 	rsbls	r1, r0, r0, lsl #2
    2544:	01960000 	orrseq	r0, r6, r0
    2548:	07000000 	streq	r0, [r0, -r0]
    254c:	00000705 	andeq	r0, r0, r5, lsl #14
    2550:	9064d101 	rsbls	sp, r4, r1, lsl #2
    2554:	00d80000 	sbcseq	r0, r8, r0
    2558:	9c010000 	stcls	0, cr0, [r1], {-0}
    255c:	00000381 	andeq	r0, r0, r1, lsl #7
    2560:	6e697008 	cdpvs	0, 6, cr7, cr9, cr8, {0}
    2564:	2cd10100 	ldfcse	f0, [r1], {0}
    2568:	02000000 	andeq	r0, r0, #0
    256c:	12000019 	andne	r0, r0, #25
    2570:	0000075a 	andeq	r0, r0, sl, asr r7
    2574:	00b2d101 	adcseq	sp, r2, r1, lsl #2
    2578:	19200000 	stmdbne	r0!, {}	; <UNPREDICTABLE>
    257c:	db090000 	blle	242584 <__bss_end__+0x2381f4>
    2580:	01000006 	tsteq	r0, r6
    2584:	000133d9 	ldrdeq	r3, [r1], -r9
    2588:	00194100 	andseq	r4, r9, r0, lsl #2
    258c:	081a0900 	ldmdaeq	sl, {r8, fp}
    2590:	da010000 	ble	42598 <__bss_end__+0x38208>
    2594:	0000002c 	andeq	r0, r0, ip, lsr #32
    2598:	00001996 	muleq	r0, r6, r9
    259c:	00075209 	andeq	r5, r7, r9, lsl #4
    25a0:	2ce80100 	stfcse	f0, [r8]
    25a4:	62000000 	andvs	r0, r0, #0
    25a8:	0a00001b 	beq	261c <_start-0x59e4>
    25ac:	00009100 	andeq	r9, r0, r0, lsl #2
    25b0:	00000841 	andeq	r0, r0, r1, asr #16
    25b4:	00000370 	andeq	r0, r0, r0, ror r3
    25b8:	0250010b 	subseq	r0, r0, #-1073741822	; 0xc0000002
    25bc:	0c000076 	stceq	0, cr0, [r0], {118}	; 0x76
    25c0:	00009130 	andeq	r9, r0, r0, lsr r1
    25c4:	00000862 	andeq	r0, r0, r2, ror #16
    25c8:	0250010b 	subseq	r0, r0, #-1073741822	; 0xc0000002
    25cc:	00000076 	andeq	r0, r0, r6, ror r0
    25d0:	00075f07 	andeq	r5, r7, r7, lsl #30
    25d4:	3cf10100 	ldfcce	f0, [r1]
    25d8:	38000091 	stmdacc	r0, {r0, r4, r7}
    25dc:	01000000 	mrseq	r0, (UNDEF: 0)
    25e0:	0003d99c 	muleq	r3, ip, r9
    25e4:	69700800 	ldmdbvs	r0!, {fp}^
    25e8:	f101006e 	setend	le
    25ec:	0000002c 	andeq	r0, r0, ip, lsr #32
    25f0:	00001b93 	muleq	r0, r3, fp
    25f4:	0006db09 	andeq	sp, r6, r9, lsl #22
    25f8:	33f70100 	mvnscc	r0, #0, 2
    25fc:	b4000001 	strlt	r0, [r0], #-1
    2600:	0900001b 	stmdbeq	r0, {r0, r1, r3, r4}
    2604:	00000752 	andeq	r0, r0, r2, asr r7
    2608:	002cf801 	eoreq	pc, ip, r1, lsl #16
    260c:	1bea0000 	blne	ffa82614 <__bss_end__+0xffa78284>
    2610:	6c0c0000 	stcvs	0, cr0, [ip], {-0}
    2614:	62000091 	andvs	r0, r0, #145	; 0x91
    2618:	0b000008 	bleq	2640 <_start-0x59c0>
    261c:	31075101 	tstcc	r7, r1, lsl #2
    2620:	4f5001f3 	svcmi	0x005001f3
    2624:	0000241a 	andeq	r2, r0, sl, lsl r4
    2628:	00069f13 	andeq	r9, r6, r3, lsl pc
    262c:	011f0100 	tsteq	pc, r0, lsl #2
    2630:	00000064 	andeq	r0, r0, r4, rrx
    2634:	00009174 	andeq	r9, r0, r4, ror r1
    2638:	0000002c 	andeq	r0, r0, ip, lsr #32
    263c:	040d9c01 	streq	r9, [sp], #-3073	; 0xc01
    2640:	a2140000 	andsge	r0, r4, #0
    2644:	01000006 	tsteq	r0, r6
    2648:	002c011f 	eoreq	r0, ip, pc, lsl r1
    264c:	1c2a0000 	stcne	0, cr0, [sl], #-0
    2650:	84110000 	ldrhi	r0, [r1], #-0
    2654:	41000091 	swpmi	r0, r1, [r0]	; <UNPREDICTABLE>
    2658:	00000008 	andeq	r0, r0, r8
    265c:	0006f015 	andeq	pc, r6, r5, lsl r0	; <UNPREDICTABLE>
    2660:	012e0100 	teqeq	lr, r0, lsl #2
    2664:	000091a0 	andeq	r9, r0, r0, lsr #3
    2668:	00000084 	andeq	r0, r0, r4, lsl #1
    266c:	04d19c01 	ldrbeq	r9, [r1], #3073	; 0xc01
    2670:	70160000 	andsvc	r0, r6, r0
    2674:	01006e69 	tsteq	r0, r9, ror #28
    2678:	002c012e 	eoreq	r0, ip, lr, lsr #2
    267c:	1c4b0000 	marne	acc0, r0, fp
    2680:	c9170000 	ldmdbgt	r7, {}	; <UNPREDICTABLE>
    2684:	01000006 	tsteq	r0, r6
    2688:	002c0140 	eoreq	r0, ip, r0, asr #2
    268c:	1c770000 	ldclne	0, cr0, [r7], #-0
    2690:	bc180000 	ldclt	0, cr0, [r8], {-0}
    2694:	1c000091 	stcne	0, cr0, [r0], {145}	; 0x91
    2698:	73000000 	movwvc	r0, #0
    269c:	17000004 	strne	r0, [r0, -r4]
    26a0:	00000752 	andeq	r0, r0, r2, asr r7
    26a4:	2c013701 	stccs	7, cr3, [r1], {1}
    26a8:	95000000 	strls	r0, [r0, #-0]
    26ac:	1100001c 	tstne	r0, ip, lsl r0
    26b0:	000091c8 	andeq	r9, r0, r8, asr #3
    26b4:	00000841 	andeq	r0, r0, r1, asr #16
    26b8:	0091d811 	addseq	sp, r1, r1, lsl r8
    26bc:	00086200 	andeq	r6, r8, r0, lsl #4
    26c0:	dc180000 	ldcle	0, cr0, [r8], {-0}
    26c4:	20000091 	mulcs	r0, r1, r0
    26c8:	a3000000 	movwge	r0, #0
    26cc:	17000004 	strne	r0, [r0, -r4]
    26d0:	00000752 	andeq	r0, r0, r2, asr r7
    26d4:	2c013b01 	stccs	11, cr3, [r1], {1}
    26d8:	b3000000 	movwlt	r0, #0
    26dc:	1100001c 	tstne	r0, ip, lsl r0
    26e0:	000091e8 	andeq	r9, r0, r8, ror #3
    26e4:	00000841 	andeq	r0, r0, r1, asr #16
    26e8:	0091fc11 	addseq	pc, r1, r1, lsl ip	; <UNPREDICTABLE>
    26ec:	00086200 	andeq	r6, r8, r0, lsl #4
    26f0:	b4110000 	ldrlt	r0, [r1], #-0
    26f4:	7e000091 	mcrvc	0, 0, r0, cr0, cr1, {4}
    26f8:	11000008 	tstne	r0, r8
    26fc:	00009200 	andeq	r9, r0, r0, lsl #4
    2700:	0000087e 	andeq	r0, r0, lr, ror r8
    2704:	00920c11 	addseq	r0, r2, r1, lsl ip
    2708:	00084100 	andeq	r4, r8, r0, lsl #2
    270c:	92181100 	andsls	r1, r8, #0, 2
    2710:	08620000 	stmdaeq	r2!, {}^	; <UNPREDICTABLE>
    2714:	1c110000 	ldcne	0, cr0, [r1], {-0}
    2718:	7e000092 	mcrvc	0, 0, r0, cr0, cr2, {4}
    271c:	00000008 	andeq	r0, r0, r8
    2720:	00079e15 	andeq	r9, r7, r5, lsl lr
    2724:	014b0100 	mrseq	r0, (UNDEF: 91)
    2728:	00009224 	andeq	r9, r0, r4, lsr #4
    272c:	00000084 	andeq	r0, r0, r4, lsl #1
    2730:	05959c01 	ldreq	r9, [r5, #3073]	; 0xc01
    2734:	70160000 	andsvc	r0, r6, r0
    2738:	01006e69 	tsteq	r0, r9, ror #28
    273c:	002c014b 	eoreq	r0, ip, fp, asr #2
    2740:	1cd10000 	ldclne	0, cr0, [r1], {0}
    2744:	c9170000 	ldmdbgt	r7, {}	; <UNPREDICTABLE>
    2748:	01000006 	tsteq	r0, r6
    274c:	002c015c 	eoreq	r0, ip, ip, asr r1
    2750:	1cfd0000 	ldclne	0, cr0, [sp]
    2754:	40180000 	andsmi	r0, r8, r0
    2758:	1c000092 	stcne	0, cr0, [r0], {146}	; 0x92
    275c:	37000000 	strcc	r0, [r0, -r0]
    2760:	17000005 	strne	r0, [r0, -r5]
    2764:	00000752 	andeq	r0, r0, r2, asr r7
    2768:	2c015301 	stccs	3, cr5, [r1], {1}
    276c:	1b000000 	blne	2774 <_start-0x588c>
    2770:	1100001d 	tstne	r0, sp, lsl r0
    2774:	0000924c 	andeq	r9, r0, ip, asr #4
    2778:	00000841 	andeq	r0, r0, r1, asr #16
    277c:	00925c11 	addseq	r5, r2, r1, lsl ip
    2780:	00086200 	andeq	r6, r8, r0, lsl #4
    2784:	60180000 	andsvs	r0, r8, r0
    2788:	20000092 	mulcs	r0, r2, r0
    278c:	67000000 	strvs	r0, [r0, -r0]
    2790:	17000005 	strne	r0, [r0, -r5]
    2794:	00000752 	andeq	r0, r0, r2, asr r7
    2798:	2c015701 	stccs	7, cr5, [r1], {1}
    279c:	39000000 	stmdbcc	r0, {}	; <UNPREDICTABLE>
    27a0:	1100001d 	tstne	r0, sp, lsl r0
    27a4:	0000926c 	andeq	r9, r0, ip, ror #4
    27a8:	00000841 	andeq	r0, r0, r1, asr #16
    27ac:	00928011 	addseq	r8, r2, r1, lsl r0
    27b0:	00086200 	andeq	r6, r8, r0, lsl #4
    27b4:	38110000 	ldmdacc	r1, {}	; <UNPREDICTABLE>
    27b8:	7e000092 	mcrvc	0, 0, r0, cr0, cr2, {4}
    27bc:	11000008 	tstne	r0, r8
    27c0:	00009284 	andeq	r9, r0, r4, lsl #5
    27c4:	0000087e 	andeq	r0, r0, lr, ror r8
    27c8:	00929011 	addseq	r9, r2, r1, lsl r0
    27cc:	00084100 	andeq	r4, r8, r0, lsl #2
    27d0:	929c1100 	addsls	r1, ip, #0, 2
    27d4:	08620000 	stmdaeq	r2!, {}^	; <UNPREDICTABLE>
    27d8:	a0110000 	andsge	r0, r1, r0
    27dc:	7e000092 	mcrvc	0, 0, r0, cr0, cr2, {4}
    27e0:	00000008 	andeq	r0, r0, r8
    27e4:	00067713 	andeq	r7, r6, r3, lsl r7
    27e8:	01660100 	cmneq	r6, r0, lsl #2
    27ec:	00000064 	andeq	r0, r0, r4, rrx
    27f0:	000092a8 	andeq	r9, r0, r8, lsr #5
    27f4:	00000084 	andeq	r0, r0, r4, lsl #1
    27f8:	063b9c01 	ldrteq	r9, [fp], -r1, lsl #24
    27fc:	70160000 	andsvc	r0, r6, r0
    2800:	01006e69 	tsteq	r0, r9, ror #28
    2804:	002c0166 	eoreq	r0, ip, r6, ror #2
    2808:	1d570000 	ldclne	0, cr0, [r7, #-0]
    280c:	c4180000 	ldrgt	r0, [r8], #-0
    2810:	24000092 	strcs	r0, [r0], #-146	; 0x92
    2814:	ef000000 	svc	0x00000000
    2818:	17000005 	strne	r0, [r0, -r5]
    281c:	000006d2 	ldrdeq	r0, [r0], -r2
    2820:	2c016d01 	stccs	13, cr6, [r1], {1}
    2824:	99000000 	stmdbls	r0, {}	; <UNPREDICTABLE>
    2828:	1100001d 	tstne	r0, sp, lsl r0
    282c:	000092d0 	ldrdeq	r9, [r0], -r0
    2830:	00000841 	andeq	r0, r0, r1, asr #16
    2834:	0092e011 	addseq	lr, r2, r1, lsl r0
    2838:	00087e00 	andeq	r7, r8, r0, lsl #28
    283c:	e8180000 	ldmda	r8, {}	; <UNPREDICTABLE>
    2840:	2c000092 	stccs	0, cr0, [r0], {146}	; 0x92
    2844:	28000000 	stmdacs	r0, {}	; <UNPREDICTABLE>
    2848:	17000006 	strne	r0, [r0, -r6]
    284c:	000006d2 	ldrdeq	r0, [r0], -r2
    2850:	2c017001 	stccs	0, cr7, [r1], {1}
    2854:	b3000000 	movwlt	r0, #0
    2858:	1100001d 	tstne	r0, sp, lsl r0
    285c:	000092f4 	strdeq	r9, [r0], -r4
    2860:	00000841 	andeq	r0, r0, r1, asr #16
    2864:	00930011 	addseq	r0, r3, r1, lsl r0
    2868:	00087e00 	andeq	r7, r8, r0, lsl #28
    286c:	930c1100 	movwls	r1, #49408	; 0xc100
    2870:	087e0000 	ldmdaeq	lr!, {}^	; <UNPREDICTABLE>
    2874:	11000000 	mrsne	r0, (UNDEF: 0)
    2878:	000092bc 			; <UNDEFINED> instruction: 0x000092bc
    287c:	0000087e 	andeq	r0, r0, lr, ror r8
    2880:	00931811 	addseq	r1, r3, r1, lsl r8
    2884:	00087e00 	andeq	r7, r8, r0, lsl #28
    2888:	25150000 	ldrcs	r0, [r5, #-0]
    288c:	01000007 	tsteq	r0, r7
    2890:	932c0179 	teqls	ip, #1073741854	; 0x4000001e
    2894:	00580000 	subseq	r0, r8, r0
    2898:	9c010000 	stcls	0, cr0, [r1], {-0}
    289c:	000006a0 	andeq	r0, r0, r0, lsr #13
    28a0:	6e697016 	mcrvs	0, 3, r7, cr9, cr6, {0}
    28a4:	01790100 	cmneq	r9, r0, lsl #2
    28a8:	0000002c 	andeq	r0, r0, ip, lsr #32
    28ac:	00001dc6 	andeq	r1, r0, r6, asr #27
    28b0:	00934011 	addseq	r4, r3, r1, lsl r0
    28b4:	00087e00 	andeq	r7, r8, r0, lsl #28
    28b8:	935c0a00 	cmpls	ip, #0, 20
    28bc:	08620000 	stmdaeq	r2!, {}^	; <UNPREDICTABLE>
    28c0:	06800000 	streq	r0, [r0], r0
    28c4:	010b0000 	mrseq	r0, (UNDEF: 11)
    28c8:	74310451 	ldrtvc	r0, [r1], #-1105	; 0x451
    28cc:	0a002400 	beq	b8d4 <__bss_end__+0x1544>
    28d0:	00009378 	andeq	r9, r0, r8, ror r3
    28d4:	00000862 	andeq	r0, r0, r2, ror #16
    28d8:	00000696 	muleq	r0, r6, r6
    28dc:	0451010b 	ldrbeq	r0, [r1], #-267	; 0x10b
    28e0:	24007431 	strcs	r7, [r0], #-1073	; 0x431
    28e4:	937c1100 	cmnls	ip, #0, 2
    28e8:	087e0000 	ldmdaeq	lr!, {}^	; <UNPREDICTABLE>
    28ec:	19000000 	stmdbne	r0, {}	; <UNPREDICTABLE>
    28f0:	00000191 	muleq	r0, r1, r1
    28f4:	01332801 	teqeq	r3, r1, lsl #16
    28f8:	03050000 	movweq	r0, #20480	; 0x5000
    28fc:	00009c78 	andeq	r9, r0, r8, ror ip
    2900:	00025e19 	andeq	r5, r2, r9, lsl lr
    2904:	33290100 	teqcc	r9, #0, 2
    2908:	05000001 	streq	r0, [r0, #-1]
    290c:	009c7403 	addseq	r7, ip, r3, lsl #8
    2910:	02c41900 	sbceq	r1, r4, #0, 18
    2914:	2a010000 	bcs	4291c <__bss_end__+0x3858c>
    2918:	00000133 	andeq	r0, r0, r3, lsr r1
    291c:	9c700305 	ldclls	3, cr0, [r0], #-20	; 0xffffffec
    2920:	3d190000 	ldccc	0, cr0, [r9, #-0]
    2924:	01000001 	tsteq	r0, r1
    2928:	0001332c 	andeq	r3, r1, ip, lsr #6
    292c:	1c030500 	cfstr32ne	mvfx0, [r3], {-0}
    2930:	1900009c 	stmdbne	r0, {r2, r3, r4, r7}
    2934:	00000145 	andeq	r0, r0, r5, asr #2
    2938:	01332d01 	teqeq	r3, r1, lsl #26
    293c:	03050000 	movweq	r0, #20480	; 0x5000
    2940:	00009c20 	andeq	r9, r0, r0, lsr #24
    2944:	00000019 	andeq	r0, r0, r9, lsl r0
    2948:	332e0100 	teqcc	lr, #0, 2
    294c:	05000001 	streq	r0, [r0, #-1]
    2950:	009c2403 	addseq	r2, ip, r3, lsl #8
    2954:	014d1900 	cmpeq	sp, r0, lsl #18
    2958:	2f010000 	svccs	0x00010000
    295c:	00000133 	andeq	r0, r0, r3, lsr r1
    2960:	9c280305 	stcls	3, cr0, [r8], #-20	; 0xffffffec
    2964:	08190000 	ldmdaeq	r9, {}	; <UNPREDICTABLE>
    2968:	01000000 	mrseq	r0, (UNDEF: 0)
    296c:	00013330 	andeq	r3, r1, r0, lsr r3
    2970:	2c030500 	cfstr32cs	mvfx0, [r3], {-0}
    2974:	1900009c 	stmdbne	r0, {r2, r3, r4, r7}
    2978:	0000015e 	andeq	r0, r0, lr, asr r1
    297c:	01333101 	teqeq	r3, r1, lsl #2
    2980:	03050000 	movweq	r0, #20480	; 0x5000
    2984:	00009c30 	andeq	r9, r0, r0, lsr ip
    2988:	00008c19 	andeq	r8, r0, r9, lsl ip
    298c:	33330100 	teqcc	r3, #0, 2
    2990:	05000001 	streq	r0, [r0, #-1]
    2994:	009c3403 	addseq	r3, ip, r3, lsl #8
    2998:	00931900 	addseq	r1, r3, r0, lsl #18
    299c:	34010000 	strcc	r0, [r1], #-0
    29a0:	00000133 	andeq	r0, r0, r3, lsr r1
    29a4:	9c380305 	ldcls	3, cr0, [r8], #-20	; 0xffffffec
    29a8:	3f190000 	svccc	0x00190000
    29ac:	01000002 	tsteq	r0, r2
    29b0:	00013336 	andeq	r3, r1, r6, lsr r3
    29b4:	3c030500 	cfstr32cc	mvfx0, [r3], {-0}
    29b8:	1900009c 	stmdbne	r0, {r2, r3, r4, r7}
    29bc:	0000019c 	muleq	r0, ip, r1
    29c0:	01333701 	teqeq	r3, r1, lsl #14
    29c4:	03050000 	movweq	r0, #20480	; 0x5000
    29c8:	00009c40 	andeq	r9, r0, r0, asr #24
    29cc:	00009a19 	andeq	r9, r0, r9, lsl sl
    29d0:	33390100 	teqcc	r9, #0, 2
    29d4:	05000001 	streq	r0, [r0, #-1]
    29d8:	009c4403 	addseq	r4, ip, r3, lsl #8
    29dc:	00a11900 	adceq	r1, r1, r0, lsl #18
    29e0:	3a010000 	bcc	429e8 <__bss_end__+0x38658>
    29e4:	00000133 	andeq	r0, r0, r3, lsr r1
    29e8:	9c480305 	mcrrls	3, 0, r0, r8, cr5
    29ec:	361a0000 	ldrcc	r0, [sl], -r0
    29f0:	01000007 	tsteq	r0, r7
    29f4:	0133010a 	teqeq	r3, sl, lsl #2
    29f8:	03050000 	movweq	r0, #20480	; 0x5000
    29fc:	00009c6c 	andeq	r9, r0, ip, ror #24
    2a00:	0007441a 	andeq	r4, r7, sl, lsl r4
    2a04:	010b0100 	mrseq	r0, (UNDEF: 27)
    2a08:	00000133 	andeq	r0, r0, r3, lsr r1
    2a0c:	9c4c0305 	mcrrls	3, 0, r0, ip, cr5
    2a10:	6b1a0000 	blvs	682a18 <__bss_end__+0x678688>
    2a14:	01000007 	tsteq	r0, r7
    2a18:	0133010d 	teqeq	r3, sp, lsl #2
    2a1c:	03050000 	movweq	r0, #20480	; 0x5000
    2a20:	00009c64 	andeq	r9, r0, r4, ror #24
    2a24:	0007721a 	andeq	r7, r7, sl, lsl r2
    2a28:	010e0100 	mrseq	r0, (UNDEF: 30)
    2a2c:	00000133 	andeq	r0, r0, r3, lsr r1
    2a30:	9c680305 	stclls	3, cr0, [r8], #-20	; 0xffffffec
    2a34:	171a0000 	ldrne	r0, [sl, -r0]
    2a38:	01000007 	tsteq	r0, r7
    2a3c:	01330110 	teqeq	r3, r0, lsl r1
    2a40:	03050000 	movweq	r0, #20480	; 0x5000
    2a44:	00009c50 	andeq	r9, r0, r0, asr ip
    2a48:	00071e1a 	andeq	r1, r7, sl, lsl lr
    2a4c:	01110100 	tsteq	r1, r0, lsl #2
    2a50:	00000133 	andeq	r0, r0, r3, lsr r1
    2a54:	9c540305 	mrrcls	3, 0, r0, r4, cr5
    2a58:	791a0000 	ldmdbvc	sl, {}	; <UNPREDICTABLE>
    2a5c:	01000007 	tsteq	r0, r7
    2a60:	01330113 	teqeq	r3, r3, lsl r1
    2a64:	03050000 	movweq	r0, #20480	; 0x5000
    2a68:	00009c5c 	andeq	r9, r0, ip, asr ip
    2a6c:	0007801a 	andeq	r8, r7, sl, lsl r0
    2a70:	01140100 	tsteq	r4, r0, lsl #2
    2a74:	00000133 	andeq	r0, r0, r3, lsr r1
    2a78:	9c600305 	stclls	3, cr0, [r0], #-20	; 0xffffffec
    2a7c:	911a0000 	tstls	sl, r0
    2a80:	01000006 	tsteq	r0, r6
    2a84:	01330116 	teqeq	r3, r6, lsl r1
    2a88:	03050000 	movweq	r0, #20480	; 0x5000
    2a8c:	00009c58 	andeq	r9, r0, r8, asr ip
    2a90:	0007981b 	andeq	r9, r7, fp, lsl r8
    2a94:	2c200100 	stfcss	f0, [r0], #-0
    2a98:	56000000 	strpl	r0, [r0], -r0
    2a9c:	1c000008 	stcne	0, cr0, [r0], {8}
    2aa0:	00000856 	andeq	r0, r0, r6, asr r8
    2aa4:	5c040d00 	stcpl	13, cr0, [r4], {-0}
    2aa8:	1d000008 	stcne	0, cr0, [r0, #-32]	; 0xffffffe0
    2aac:	00000861 	andeq	r0, r0, r1, ror #16
    2ab0:	068b1f1e 	pkhbteq	r1, fp, lr, lsl #30
    2ab4:	1e010000 	cdpne	0, 0, cr0, cr1, cr0, {0}
    2ab8:	00000878 	andeq	r0, r0, r8, ror r8
    2abc:	0008781c 	andeq	r7, r8, ip, lsl r8
    2ac0:	002c1c00 	eoreq	r1, ip, r0, lsl #24
    2ac4:	0d000000 	stceq	0, cr0, [r0, #-0]
    2ac8:	00086104 	andeq	r6, r8, r4, lsl #2
    2acc:	06e42000 	strbteq	r2, [r4], r0
    2ad0:	8a030000 	bhi	c2ad8 <__bss_end__+0xb8748>
    2ad4:	0011f200 	andseq	pc, r1, r0, lsl #4
    2ad8:	75000400 	strvc	r0, [r0, #-1024]	; 0x400
    2adc:	0400000d 	streq	r0, [r0], #-13
    2ae0:	0002eb01 	andeq	lr, r2, r1, lsl #22
    2ae4:	08ba0100 	ldmeq	sl!, {r8}
    2ae8:	03560000 	cmpeq	r6, #0
    2aec:	93840000 	orrls	r0, r4, #0
    2af0:	06680000 	strbteq	r0, [r8], -r0
    2af4:	0bb60000 	bleq	fed82afc <__bss_end__+0xfed7876c>
    2af8:	04020000 	streq	r0, [r2], #-0
    2afc:	746e6905 	strbtvc	r6, [lr], #-2309	; 0x905
    2b00:	07040300 	streq	r0, [r4, -r0, lsl #6]
    2b04:	0000004d 	andeq	r0, r0, sp, asr #32
    2b08:	29060103 	stmdbcs	r6, {r0, r1, r8}
    2b0c:	03000002 	movweq	r0, #2
    2b10:	02350502 	eorseq	r0, r5, #8388608	; 0x800000
    2b14:	04030000 	streq	r0, [r3], #-0
    2b18:	00007c05 	andeq	r7, r0, r5, lsl #24
    2b1c:	05080300 	streq	r0, [r8, #-768]	; 0x300
    2b20:	00000077 	andeq	r0, r0, r7, ror r0
    2b24:	0002aa04 	andeq	sl, r2, r4, lsl #20
    2b28:	5a2e0300 	bpl	b83730 <__bss_end__+0xb793a0>
    2b2c:	03000000 	movweq	r0, #0
    2b30:	02270801 	eoreq	r0, r7, #65536	; 0x10000
    2b34:	02030000 	andeq	r0, r3, #0
    2b38:	00017e07 	andeq	r7, r1, r7, lsl #28
    2b3c:	05960400 	ldreq	r0, [r6, #1024]	; 0x400
    2b40:	34030000 	strcc	r0, [r3], #-0
    2b44:	00000073 	andeq	r0, r0, r3, ror r0
    2b48:	48070403 	stmdami	r7, {r0, r1, sl}
    2b4c:	03000000 	movweq	r0, #0
    2b50:	00430708 	subeq	r0, r3, r8, lsl #14
    2b54:	04030000 	streq	r0, [r3], #-0
    2b58:	00021907 	andeq	r1, r2, r7, lsl #18
    2b5c:	06040500 	streq	r0, [r4], -r0, lsl #10
    2b60:	00009004 	andeq	r9, r0, r4
    2b64:	08010300 	stmdaeq	r1, {r8, r9}
    2b68:	00000230 	andeq	r0, r0, r0, lsr r2
    2b6c:	009d0406 	addseq	r0, sp, r6, lsl #8
    2b70:	90070000 	andls	r0, r7, r0
    2b74:	08000000 	stmdaeq	r0, {}	; <UNPREDICTABLE>
    2b78:	d90e040c 	stmdble	lr, {r2, r3, sl}
    2b7c:	09000000 	stmdbeq	r0, {}	; <UNPREDICTABLE>
    2b80:	04007874 	streq	r7, [r0], #-2164	; 0x874
    2b84:	00004f0f 	andeq	r4, r0, pc, lsl #30
    2b88:	72090000 	andvc	r0, r9, #0
    2b8c:	0f040078 	svceq	0x00040078
    2b90:	0000004f 	andeq	r0, r0, pc, asr #32
    2b94:	05150a01 	ldreq	r0, [r5, #-2561]	; 0xa01
    2b98:	10040000 	andne	r0, r4, r0
    2b9c:	00000068 	andeq	r0, r0, r8, rrx
    2ba0:	04c60a04 	strbeq	r0, [r6], #2564	; 0xa04
    2ba4:	11040000 	mrsne	r0, (UNDEF: 4)
    2ba8:	00000068 	andeq	r0, r0, r8, rrx
    2bac:	fe040008 	cdp2	0, 0, cr0, cr4, cr8, {0}
    2bb0:	04000004 	streq	r0, [r0], #-4
    2bb4:	0000a212 	andeq	sl, r0, r2, lsl r2
    2bb8:	02ce0400 	sbceq	r0, lr, #0, 8
    2bbc:	28050000 	stmdacs	r5, {}	; <UNPREDICTABLE>
    2bc0:	000000ef 	andeq	r0, r0, pc, ror #1
    2bc4:	00034c0b 	andeq	r4, r3, fp, lsl #24
    2bc8:	00090400 	andeq	r0, r9, r0, lsl #8
    2bcc:	00000106 	andeq	r0, r0, r6, lsl #2
    2bd0:	00039f0c 	andeq	r9, r3, ip, lsl #30
    2bd4:	00008800 	andeq	r8, r0, r0, lsl #16
    2bd8:	04000000 	streq	r0, [r0], #-0
    2bdc:	0000034e 	andeq	r0, r0, lr, asr #6
    2be0:	00e46205 	rsceq	r6, r4, r5, lsl #4
    2be4:	7e0d0000 	cdpvc	0, 0, cr0, cr13, cr0, {0}
    2be8:	02000008 	andeq	r0, r0, #8
    2bec:	013f0309 	teqeq	pc, r9, lsl #6
    2bf0:	290e0000 	stmdbcs	lr, {}	; <UNPREDICTABLE>
    2bf4:	02000005 	andeq	r0, r0, #5
    2bf8:	00002c09 	andeq	r2, r0, r9, lsl #24
    2bfc:	006e0f00 	rsbeq	r0, lr, r0, lsl #30
    2c00:	002c0902 	eoreq	r0, ip, r2, lsl #18
    2c04:	11100000 	tstne	r0, r0
    2c08:	00000222 	andeq	r0, r0, r2, lsr #4
    2c0c:	002c0c02 	eoreq	r0, ip, r2, lsl #24
    2c10:	00000000 	andeq	r0, r0, r0
    2c14:	0008310d 	andeq	r3, r8, sp, lsl #2
    2c18:	03170200 	tsteq	r7, #0, 4
    2c1c:	00000176 	andeq	r0, r0, r6, ror r1
    2c20:	6e69700f 	cdpvs	0, 6, cr7, cr9, cr15, {0}
    2c24:	2c170200 	lfmcs	f0, 4, [r7], {-0}
    2c28:	0f000000 	svceq	0x00000000
    2c2c:	17020076 	smlsdxne	r2, r6, r0, r0
    2c30:	0000002c 	andeq	r0, r0, ip, lsr #32
    2c34:	0005290e 	andeq	r2, r5, lr, lsl #18
    2c38:	2c170200 	lfmcs	f0, 4, [r7], {-0}
    2c3c:	0e000000 	cdpeq	0, 0, cr0, cr0, cr0, {0}
    2c40:	00000884 	andeq	r0, r0, r4, lsl #17
    2c44:	002c1702 	eoreq	r1, ip, r2, lsl #14
    2c48:	12000000 	andne	r0, r0, #0
    2c4c:	0000053a 	andeq	r0, r0, sl, lsr r5
    2c50:	93840901 	orrls	r0, r4, #16384	; 0x4000
    2c54:	01540000 	cmpeq	r4, r0
    2c58:	9c010000 	stcls	0, cr0, [r1], {-0}
    2c5c:	00000722 	andeq	r0, r0, r2, lsr #14
    2c60:	0004dc13 	andeq	sp, r4, r3, lsl ip
    2c64:	22090100 	andcs	r0, r9, #0, 2
    2c68:	f2000007 	vhadd.s8	d0, d0, d7
    2c6c:	1400001d 	strne	r0, [r0], #-29
    2c70:	09010063 	stmdbeq	r1, {r0, r1, r5, r6}
    2c74:	0000005a 	andeq	r0, r0, sl, asr r0
    2c78:	00001e13 	andeq	r1, r0, r3, lsl lr
    2c7c:	00787415 	rsbseq	r7, r8, r5, lsl r4
    2c80:	00250b01 	eoreq	r0, r5, r1, lsl #22
    2c84:	76060000 	strvc	r0, [r6], -r0
    2c88:	1aff0800 	bne	fffc4c90 <__bss_end__+0xfffba900>
    2c8c:	006e169f 	mlseq	lr, pc, r6, r1	; <UNPREDICTABLE>
    2c90:	00680c01 	rsbeq	r0, r8, r1, lsl #24
    2c94:	1e340000 	cdpne	0, 3, cr0, cr4, cr0, {0}
    2c98:	75160000 	ldrvc	r0, [r6, #-0]
    2c9c:	680d0100 	stmdavs	sp, {r8}
    2ca0:	47000000 	strmi	r0, [r0, -r0]
    2ca4:	1500001e 	strne	r0, [r0, #-30]
    2ca8:	0e010073 	mcreq	0, 0, r0, cr1, cr3, {3}
    2cac:	00000068 	andeq	r0, r0, r8, rrx
    2cb0:	94175401 	ldrls	r5, [r7], #-1025	; 0x401
    2cb4:	04000093 	streq	r0, [r0], #-147	; 0x93
    2cb8:	f8000000 			; <UNDEFINED> instruction: 0xf8000000
    2cbc:	18000001 	stmdane	r0, {r0}
    2cc0:	00000222 	andeq	r0, r0, r2, lsr #4
    2cc4:	002c0e01 	eoreq	r0, ip, r1, lsl #28
    2cc8:	54010000 	strpl	r0, [r1], #-0
    2ccc:	013f1900 	teqeq	pc, r0, lsl #18
    2cd0:	93980000 	orrsls	r0, r8, #0
    2cd4:	001c0000 	andseq	r0, ip, r0
    2cd8:	11010000 	mrsne	r0, (UNDEF: 1)
    2cdc:	00000275 	andeq	r0, r0, r5, ror r2
    2ce0:	00016a1a 	andeq	r6, r1, sl, lsl sl
    2ce4:	001e7000 	andseq	r7, lr, r0
    2ce8:	015f1b00 	cmpeq	pc, r0, lsl #22
    2cec:	54010000 	strpl	r0, [r1], #-0
    2cf0:	0001561c 	andeq	r5, r1, ip, lsl r6
    2cf4:	4b1b0000 	blmi	6c2cfc <__bss_end__+0x6b896c>
    2cf8:	01000001 	tsteq	r0, r1
    2cfc:	01111956 	tsteq	r1, r6, asr r9
    2d00:	93a40000 			; <UNDEFINED> instruction: 0x93a40000
    2d04:	00100000 	andseq	r0, r0, r0
    2d08:	1a020000 	bne	82d10 <__bss_end__+0x78980>
    2d0c:	0000025f 	andeq	r0, r0, pc, asr r2
    2d10:	0001281a 	andeq	r2, r1, sl, lsl r8
    2d14:	001e8300 	andseq	r8, lr, r0, lsl #6
    2d18:	011d1b00 	tsteq	sp, r0, lsl #22
    2d1c:	54010000 	strpl	r0, [r1], #-0
    2d20:	0093a41d 	addseq	sl, r3, sp, lsl r4
    2d24:	00000400 	andeq	r0, r0, r0, lsl #8
    2d28:	01321e00 	teqeq	r2, r0, lsl #28
    2d2c:	1e960000 	cdpne	0, 9, cr0, cr6, cr0, {0}
    2d30:	00000000 	andeq	r0, r0, r0
    2d34:	0093a41f 	addseq	sl, r3, pc, lsl r4
    2d38:	00115900 	andseq	r5, r1, r0, lsl #18
    2d3c:	51012000 	mrspl	r2, (UNDEF: 1)
    2d40:	01203001 	teqeq	r0, r1
    2d44:	00760250 	rsbseq	r0, r6, r0, asr r2
    2d48:	3f190000 	svccc	0x00190000
    2d4c:	b8000001 	stmdalt	r0, {r0}
    2d50:	1c000093 	stcne	0, cr0, [r0], {147}	; 0x93
    2d54:	01000000 	mrseq	r0, (UNDEF: 0)
    2d58:	0002f813 	andeq	pc, r2, r3, lsl r8	; <UNPREDICTABLE>
    2d5c:	016a1a00 	cmneq	sl, r0, lsl #20
    2d60:	1ea90000 	cdpne	0, 10, cr0, cr9, cr0, {0}
    2d64:	5f1b0000 	svcpl	0x001b0000
    2d68:	01000001 	tsteq	r0, r1
    2d6c:	01561a54 	cmpeq	r6, r4, asr sl
    2d70:	1ecb0000 	cdpne	0, 12, cr0, cr11, cr0, {0}
    2d74:	4b1b0000 	blmi	6c2d7c <__bss_end__+0x6b89ec>
    2d78:	01000001 	tsteq	r0, r1
    2d7c:	01111956 	tsteq	r1, r6, asr r9
    2d80:	93c40000 	bicls	r0, r4, #0
    2d84:	00100000 	andseq	r0, r0, r0
    2d88:	1a020000 	bne	82d90 <__bss_end__+0x78a00>
    2d8c:	000002df 	ldrdeq	r0, [r0], -pc	; <UNPREDICTABLE>
    2d90:	0001281a 	andeq	r2, r1, sl, lsl r8
    2d94:	001efc00 	andseq	pc, lr, r0, lsl #24
    2d98:	011d1b00 	tsteq	sp, r0, lsl #22
    2d9c:	54010000 	strpl	r0, [r1], #-0
    2da0:	0093c41d 	addseq	ip, r3, sp, lsl r4
    2da4:	00000400 	andeq	r0, r0, r0, lsl #8
    2da8:	01321e00 	teqeq	r2, r0, lsl #28
    2dac:	1f1e0000 	svcne	0x001e0000
    2db0:	00000000 	andeq	r0, r0, r0
    2db4:	0093c41f 	addseq	ip, r3, pc, lsl r4
    2db8:	00115900 	andseq	r5, r1, r0, lsl #18
    2dbc:	51012000 	mrspl	r2, (UNDEF: 1)
    2dc0:	31007704 	tstcc	r0, r4, lsl #14
    2dc4:	5001201a 	andpl	r2, r1, sl, lsl r0
    2dc8:	00007602 	andeq	r7, r0, r2, lsl #12
    2dcc:	013f1900 	teqeq	pc, r0, lsl #18
    2dd0:	93d80000 	bicsls	r0, r8, #0
    2dd4:	001c0000 	andseq	r0, ip, r0
    2dd8:	15010000 	strne	r0, [r1, #-0]
    2ddc:	00000380 	andeq	r0, r0, r0, lsl #7
    2de0:	00016a1a 	andeq	r6, r1, sl, lsl sl
    2de4:	001f3100 	andseq	r3, pc, r0, lsl #2
    2de8:	015f1b00 	cmpeq	pc, r0, lsl #22
    2dec:	54010000 	strpl	r0, [r1], #-0
    2df0:	0001561b 	andeq	r5, r1, fp, lsl r6
    2df4:	00770800 	rsbseq	r0, r7, r0, lsl #16
    2df8:	ff081a32 			; <UNDEFINED> instruction: 0xff081a32
    2dfc:	4b1b9f1a 	blmi	6eaa6c <__bss_end__+0x6e06dc>
    2e00:	01000001 	tsteq	r0, r1
    2e04:	01111956 	tsteq	r1, r6, asr r9
    2e08:	93e40000 	mvnls	r0, #0
    2e0c:	00100000 	andseq	r0, r0, r0
    2e10:	1a020000 	bne	82e18 <__bss_end__+0x78a88>
    2e14:	00000367 	andeq	r0, r0, r7, ror #6
    2e18:	0001281a 	andeq	r2, r1, sl, lsl r8
    2e1c:	001f5600 	andseq	r5, pc, r0, lsl #12
    2e20:	011d1b00 	tsteq	sp, r0, lsl #22
    2e24:	54010000 	strpl	r0, [r1], #-0
    2e28:	0093e41d 	addseq	lr, r3, sp, lsl r4
    2e2c:	00000400 	andeq	r0, r0, r0, lsl #8
    2e30:	01321e00 	teqeq	r2, r0, lsl #28
    2e34:	1f7b0000 	svcne	0x007b0000
    2e38:	00000000 	andeq	r0, r0, r0
    2e3c:	0093e41f 	addseq	lr, r3, pc, lsl r4
    2e40:	00115900 	andseq	r5, r1, r0, lsl #18
    2e44:	51012000 	mrspl	r2, (UNDEF: 1)
    2e48:	32007704 	andcc	r7, r0, #4, 14	; 0x100000
    2e4c:	5001201a 	andpl	r2, r1, sl, lsl r0
    2e50:	00007602 	andeq	r7, r0, r2, lsl #12
    2e54:	013f1900 	teqeq	pc, r0, lsl #18
    2e58:	93f80000 	mvnsls	r0, #0
    2e5c:	001c0000 	andseq	r0, ip, r0
    2e60:	17010000 	strne	r0, [r1, -r0]
    2e64:	00000408 	andeq	r0, r0, r8, lsl #8
    2e68:	00016a1a 	andeq	r6, r1, sl, lsl sl
    2e6c:	001f8e00 	andseq	r8, pc, r0, lsl #28
    2e70:	015f1b00 	cmpeq	pc, r0, lsl #22
    2e74:	54010000 	strpl	r0, [r1], #-0
    2e78:	0001561b 	andeq	r5, r1, fp, lsl r6
    2e7c:	00770800 	rsbseq	r0, r7, r0, lsl #16
    2e80:	ff081a34 			; <UNDEFINED> instruction: 0xff081a34
    2e84:	4b1b9f1a 	blmi	6eaaf4 <__bss_end__+0x6e0764>
    2e88:	01000001 	tsteq	r0, r1
    2e8c:	01111956 	tsteq	r1, r6, asr r9
    2e90:	94040000 	strls	r0, [r4], #-0
    2e94:	00100000 	andseq	r0, r0, r0
    2e98:	1a020000 	bne	82ea0 <__bss_end__+0x78b10>
    2e9c:	000003ef 	andeq	r0, r0, pc, ror #7
    2ea0:	0001281a 	andeq	r2, r1, sl, lsl r8
    2ea4:	001fb000 	andseq	fp, pc, r0
    2ea8:	011d1b00 	tsteq	sp, r0, lsl #22
    2eac:	54010000 	strpl	r0, [r1], #-0
    2eb0:	0094041d 	addseq	r0, r4, sp, lsl r4
    2eb4:	00000400 	andeq	r0, r0, r0, lsl #8
    2eb8:	01321e00 	teqeq	r2, r0, lsl #28
    2ebc:	1fd20000 	svcne	0x00d20000
    2ec0:	00000000 	andeq	r0, r0, r0
    2ec4:	0094041f 	addseq	r0, r4, pc, lsl r4
    2ec8:	00115900 	andseq	r5, r1, r0, lsl #18
    2ecc:	51012000 	mrspl	r2, (UNDEF: 1)
    2ed0:	34007704 	strcc	r7, [r0], #-1796	; 0x704
    2ed4:	5001201a 	andpl	r2, r1, sl, lsl r0
    2ed8:	00007602 	andeq	r7, r0, r2, lsl #12
    2edc:	013f1900 	teqeq	pc, r0, lsl #18
    2ee0:	94180000 	ldrls	r0, [r8], #-0
    2ee4:	001c0000 	andseq	r0, ip, r0
    2ee8:	19010000 	stmdbne	r1, {}	; <UNPREDICTABLE>
    2eec:	00000490 	muleq	r0, r0, r4
    2ef0:	00016a1a 	andeq	r6, r1, sl, lsl sl
    2ef4:	001fe500 	andseq	lr, pc, r0, lsl #10
    2ef8:	015f1b00 	cmpeq	pc, r0, lsl #22
    2efc:	54010000 	strpl	r0, [r1], #-0
    2f00:	0001561b 	andeq	r5, r1, fp, lsl r6
    2f04:	00770800 	rsbseq	r0, r7, r0, lsl #16
    2f08:	ff081a38 			; <UNDEFINED> instruction: 0xff081a38
    2f0c:	4b1b9f1a 	blmi	6eab7c <__bss_end__+0x6e07ec>
    2f10:	01000001 	tsteq	r0, r1
    2f14:	01111956 	tsteq	r1, r6, asr r9
    2f18:	94240000 	strtls	r0, [r4], #-0
    2f1c:	00100000 	andseq	r0, r0, r0
    2f20:	1a020000 	bne	82f28 <__bss_end__+0x78b98>
    2f24:	00000477 	andeq	r0, r0, r7, ror r4
    2f28:	0001281a 	andeq	r2, r1, sl, lsl r8
    2f2c:	00200a00 	eoreq	r0, r0, r0, lsl #20
    2f30:	011d1b00 	tsteq	sp, r0, lsl #22
    2f34:	54010000 	strpl	r0, [r1], #-0
    2f38:	0094241d 	addseq	r2, r4, sp, lsl r4
    2f3c:	00000400 	andeq	r0, r0, r0, lsl #8
    2f40:	01321e00 	teqeq	r2, r0, lsl #28
    2f44:	202f0000 	eorcs	r0, pc, r0
    2f48:	00000000 	andeq	r0, r0, r0
    2f4c:	0094241f 	addseq	r2, r4, pc, lsl r4
    2f50:	00115900 	andseq	r5, r1, r0, lsl #18
    2f54:	51012000 	mrspl	r2, (UNDEF: 1)
    2f58:	38007704 	stmdacc	r0, {r2, r8, r9, sl, ip, sp, lr}
    2f5c:	5001201a 	andpl	r2, r1, sl, lsl r0
    2f60:	00007602 	andeq	r7, r0, r2, lsl #12
    2f64:	013f1900 	teqeq	pc, r0, lsl #18
    2f68:	94380000 	ldrtls	r0, [r8], #-0
    2f6c:	001c0000 	andseq	r0, ip, r0
    2f70:	1b010000 	blne	42f78 <__bss_end__+0x38be8>
    2f74:	00000518 	andeq	r0, r0, r8, lsl r5
    2f78:	00016a1a 	andeq	r6, r1, sl, lsl sl
    2f7c:	00204200 	eoreq	r4, r0, r0, lsl #4
    2f80:	015f1b00 	cmpeq	pc, r0, lsl #22
    2f84:	54010000 	strpl	r0, [r1], #-0
    2f88:	0001561b 	andeq	r5, r1, fp, lsl r6
    2f8c:	00770800 	rsbseq	r0, r7, r0, lsl #16
    2f90:	ff081a40 			; <UNDEFINED> instruction: 0xff081a40
    2f94:	4b1b9f1a 	blmi	6eac04 <__bss_end__+0x6e0874>
    2f98:	01000001 	tsteq	r0, r1
    2f9c:	01111956 	tsteq	r1, r6, asr r9
    2fa0:	94440000 	strbls	r0, [r4], #-0
    2fa4:	00100000 	andseq	r0, r0, r0
    2fa8:	1a020000 	bne	82fb0 <__bss_end__+0x78c20>
    2fac:	000004ff 	strdeq	r0, [r0], -pc	; <UNPREDICTABLE>
    2fb0:	0001281a 	andeq	r2, r1, sl, lsl r8
    2fb4:	00206900 	eoreq	r6, r0, r0, lsl #18
    2fb8:	011d1b00 	tsteq	sp, r0, lsl #22
    2fbc:	54010000 	strpl	r0, [r1], #-0
    2fc0:	0094441d 	addseq	r4, r4, sp, lsl r4
    2fc4:	00000400 	andeq	r0, r0, r0, lsl #8
    2fc8:	01321e00 	teqeq	r2, r0, lsl #28
    2fcc:	20900000 	addscs	r0, r0, r0
    2fd0:	00000000 	andeq	r0, r0, r0
    2fd4:	0094441f 	addseq	r4, r4, pc, lsl r4
    2fd8:	00115900 	andseq	r5, r1, r0, lsl #18
    2fdc:	51012000 	mrspl	r2, (UNDEF: 1)
    2fe0:	40007704 	andmi	r7, r0, r4, lsl #14
    2fe4:	5001201a 	andpl	r2, r1, sl, lsl r0
    2fe8:	00007602 	andeq	r7, r0, r2, lsl #12
    2fec:	013f1900 	teqeq	pc, r0, lsl #18
    2ff0:	94580000 	ldrbls	r0, [r8], #-0
    2ff4:	001c0000 	andseq	r0, ip, r0
    2ff8:	1d010000 	stcne	0, cr0, [r1, #-0]
    2ffc:	000005a2 	andeq	r0, r0, r2, lsr #11
    3000:	00016a1a 	andeq	r6, r1, sl, lsl sl
    3004:	0020a300 	eoreq	sl, r0, r0, lsl #6
    3008:	015f1b00 	cmpeq	pc, r0, lsl #22
    300c:	54010000 	strpl	r0, [r1], #-0
    3010:	0001561b 	andeq	r5, r1, fp, lsl r6
    3014:	00770900 	rsbseq	r0, r7, r0, lsl #18
    3018:	081a2008 	ldmdaeq	sl, {r3, sp}
    301c:	1b9f1aff 	blne	fe7c9c20 <__bss_end__+0xfe7bf890>
    3020:	0000014b 	andeq	r0, r0, fp, asr #2
    3024:	11195601 	tstne	r9, r1, lsl #12
    3028:	64000001 	strvs	r0, [r0], #-1
    302c:	10000094 	mulne	r0, r4, r0
    3030:	02000000 	andeq	r0, r0, #0
    3034:	0005881a 	andeq	r8, r5, sl, lsl r8
    3038:	01281a00 	teqeq	r8, r0, lsl #20
    303c:	20cd0000 	sbccs	r0, sp, r0
    3040:	1d1b0000 	ldcne	0, cr0, [fp, #-0]
    3044:	01000001 	tsteq	r0, r1
    3048:	94641d54 	strbtls	r1, [r4], #-3412	; 0xd54
    304c:	00040000 	andeq	r0, r4, r0
    3050:	321e0000 	andscc	r0, lr, #0
    3054:	f7000001 			; <UNDEFINED> instruction: 0xf7000001
    3058:	00000020 	andeq	r0, r0, r0, lsr #32
    305c:	94641f00 	strbtls	r1, [r4], #-3840	; 0xf00
    3060:	11590000 	cmpne	r9, r0
    3064:	01200000 	teqeq	r0, r0
    3068:	00770551 	rsbseq	r0, r7, r1, asr r5
    306c:	201a2008 	andscs	r2, sl, r8
    3070:	76025001 	strvc	r5, [r2], -r1
    3074:	19000000 	stmdbne	r0, {}	; <UNPREDICTABLE>
    3078:	0000013f 	andeq	r0, r0, pc, lsr r1
    307c:	00009478 	andeq	r9, r0, r8, ror r4
    3080:	0000001c 	andeq	r0, r0, ip, lsl r0
    3084:	062c1f01 	strteq	r1, [ip], -r1, lsl #30
    3088:	6a1a0000 	bvs	683090 <__bss_end__+0x678d00>
    308c:	0a000001 	beq	3098 <_start-0x4f68>
    3090:	1b000021 	blne	311c <_start-0x4ee4>
    3094:	0000015f 	andeq	r0, r0, pc, asr r1
    3098:	561b5401 	ldrpl	r5, [fp], -r1, lsl #8
    309c:	09000001 	stmdbeq	r0, {r0}
    30a0:	40080077 	andmi	r0, r8, r7, ror r0
    30a4:	1aff081a 	bne	fffc5114 <__bss_end__+0xfffbad84>
    30a8:	014b1b9f 			; <UNDEFINED> instruction: 0x014b1b9f
    30ac:	56010000 	strpl	r0, [r1], -r0
    30b0:	00011119 	andeq	r1, r1, r9, lsl r1
    30b4:	00948400 	addseq	r8, r4, r0, lsl #8
    30b8:	00001000 	andeq	r1, r0, r0
    30bc:	121a0200 	andsne	r0, sl, #0, 4
    30c0:	1a000006 	bne	30e0 <_start-0x4f20>
    30c4:	00000128 	andeq	r0, r0, r8, lsr #2
    30c8:	0000212c 	andeq	r2, r0, ip, lsr #2
    30cc:	00011d1b 	andeq	r1, r1, fp, lsl sp
    30d0:	1d540100 	ldfnee	f0, [r4, #-0]
    30d4:	00009484 	andeq	r9, r0, r4, lsl #9
    30d8:	00000004 	andeq	r0, r0, r4
    30dc:	0001321e 	andeq	r3, r1, lr, lsl r2
    30e0:	00214e00 	eoreq	r4, r1, r0, lsl #28
    30e4:	1f000000 	svcne	0x00000000
    30e8:	00009484 	andeq	r9, r0, r4, lsl #9
    30ec:	00001159 	andeq	r1, r0, r9, asr r1
    30f0:	05510120 	ldrbeq	r0, [r1, #-288]	; 0x120
    30f4:	40080077 	andmi	r0, r8, r7, ror r0
    30f8:	5001201a 	andpl	r2, r1, sl, lsl r0
    30fc:	00007602 	andeq	r7, r0, r2, lsl #12
    3100:	013f1900 	teqeq	pc, r0, lsl #18
    3104:	94980000 	ldrls	r0, [r8], #0
    3108:	001c0000 	andseq	r0, ip, r0
    310c:	21010000 	mrscs	r0, (UNDEF: 1)
    3110:	000006ac 	andeq	r0, r0, ip, lsr #13
    3114:	00016a1b 	andeq	r6, r1, fp, lsl sl
    3118:	1b580100 	blne	1603520 <__bss_end__+0x15f9190>
    311c:	0000015f 	andeq	r0, r0, pc, asr r1
    3120:	561a5401 	ldrpl	r5, [sl], -r1, lsl #8
    3124:	61000001 	tstvs	r0, r1
    3128:	1b000021 	blne	31b4 <_start-0x4e4c>
    312c:	0000014b 	andeq	r0, r0, fp, asr #2
    3130:	11195601 	tstne	r9, r1, lsl #12
    3134:	a4000001 	strge	r0, [r0], #-1
    3138:	10000094 	mulne	r0, r4, r0
    313c:	02000000 	andeq	r0, r0, #0
    3140:	0006921a 	andeq	r9, r6, sl, lsl r2
    3144:	01281b00 	teqeq	r8, r0, lsl #22
    3148:	58010000 	stmdapl	r1, {}	; <UNPREDICTABLE>
    314c:	00011d1b 	andeq	r1, r1, fp, lsl sp
    3150:	1d540100 	ldfnee	f0, [r4, #-0]
    3154:	000094a4 	andeq	r9, r0, r4, lsr #9
    3158:	00000004 	andeq	r0, r0, r4
    315c:	0001321e 	andeq	r3, r1, lr, lsl r2
    3160:	00219400 	eoreq	r9, r1, r0, lsl #8
    3164:	1f000000 	svcne	0x00000000
    3168:	000094a4 	andeq	r9, r0, r4, lsr #9
    316c:	00001159 	andeq	r1, r0, r9, asr r1
    3170:	05510120 	ldrbeq	r0, [r1, #-288]	; 0x120
    3174:	80080077 	andhi	r0, r8, r7, ror r0
    3178:	5001201a 	andpl	r2, r1, sl, lsl r0
    317c:	00007602 	andeq	r7, r0, r2, lsl #12
    3180:	013f2100 	teqeq	pc, r0, lsl #2
    3184:	94b80000 	ldrtls	r0, [r8], #0
    3188:	001c0000 	andseq	r0, ip, r0
    318c:	23010000 	movwcs	r0, #4096	; 0x1000
    3190:	00016a1b 	andeq	r6, r1, fp, lsl sl
    3194:	1b550100 	blne	154359c <__bss_end__+0x153920c>
    3198:	0000015f 	andeq	r0, r0, pc, asr r1
    319c:	561c5401 	ldrpl	r5, [ip], -r1, lsl #8
    31a0:	01000001 	tsteq	r0, r1
    31a4:	00014b1b 	andeq	r4, r1, fp, lsl fp
    31a8:	19560100 	ldmdbne	r6, {r8}^
    31ac:	00000111 	andeq	r0, r0, r1, lsl r1
    31b0:	000094c4 	andeq	r9, r0, r4, asr #9
    31b4:	00000010 	andeq	r0, r0, r0, lsl r0
    31b8:	070b1a02 	streq	r1, [fp, -r2, lsl #20]
    31bc:	281b0000 	ldmdacs	fp, {}	; <UNPREDICTABLE>
    31c0:	01000001 	tsteq	r0, r1
    31c4:	011d1b55 	tsteq	sp, r5, asr fp
    31c8:	54010000 	strpl	r0, [r1], #-0
    31cc:	0094c41d 	addseq	ip, r4, sp, lsl r4
    31d0:	00000400 	andeq	r0, r0, r0, lsl #8
    31d4:	01321e00 	teqeq	r2, r0, lsl #28
    31d8:	21a70000 			; <UNDEFINED> instruction: 0x21a70000
    31dc:	00000000 	andeq	r0, r0, r0
    31e0:	0094c41f 	addseq	ip, r4, pc, lsl r4
    31e4:	00115900 	andseq	r5, r1, r0, lsl #18
    31e8:	51012000 	mrspl	r2, (UNDEF: 1)
    31ec:	01203101 	teqeq	r0, r1, lsl #2
    31f0:	00760250 	rsbseq	r0, r6, r0, asr r2
    31f4:	06000000 	streq	r0, [r0], -r0
    31f8:	0000d904 	andeq	sp, r0, r4, lsl #18
    31fc:	09132200 	ldmdbeq	r3, {r9, sp}
    3200:	27010000 	strcs	r0, [r1, -r0]
    3204:	00000025 	andeq	r0, r0, r5, lsr #32
    3208:	00076203 	andeq	r6, r7, r3, lsl #4
    320c:	78720f00 	ldmdavc	r2!, {r8, r9, sl, fp}^
    3210:	25270100 	strcs	r0, [r7, #-256]!	; 0x100
    3214:	0f000000 	svceq	0x00000000
    3218:	27010076 	smlsdxcs	r1, r6, r0, r0
    321c:	00000025 	andeq	r0, r0, r5, lsr #32
    3220:	0008a00e 	andeq	sl, r8, lr
    3224:	2c270100 	stfcss	f0, [r7], #-0
    3228:	11000000 	mrsne	r0, (UNDEF: 0)
    322c:	00000529 	andeq	r0, r0, r9, lsr #10
    3230:	002c2801 	eoreq	r2, ip, r1, lsl #16
    3234:	23000000 	movwcs	r0, #0
    3238:	00000841 	andeq	r0, r0, r1, asr #16
    323c:	00253401 	eoreq	r3, r5, r1, lsl #8
    3240:	94d80000 	ldrbls	r0, [r8], #0
    3244:	01c80000 	biceq	r0, r8, r0
    3248:	9c010000 	stcls	0, cr0, [r1], {-0}
    324c:	00000b1e 	andeq	r0, r0, lr, lsl fp
    3250:	0004dc13 	andeq	sp, r4, r3, lsl ip
    3254:	22340100 	eorscs	r0, r4, #0, 2
    3258:	ba000007 	blt	327c <_start-0x4d84>
    325c:	13000021 	movwne	r0, #33	; 0x21
    3260:	000008a0 	andeq	r0, r0, r0, lsr #17
    3264:	00253401 	eoreq	r3, r5, r1, lsl #8
    3268:	21ff0000 	mvnscs	r0, r0
    326c:	72150000 	andsvc	r0, r5, #0
    3270:	35010078 	strcc	r0, [r1, #-120]	; 0x78
    3274:	00000025 	andeq	r0, r0, r5, lsr #32
    3278:	73165501 	tstvc	r6, #4194304	; 0x400000
    327c:	2c3c0100 	ldfcss	f0, [ip], #-0
    3280:	1d000000 	stcne	0, cr0, [r0, #-0]
    3284:	16000022 	strne	r0, [r0], -r2, lsr #32
    3288:	3f010075 	svccc	0x00010075
    328c:	00000068 	andeq	r0, r0, r8, rrx
    3290:	00002230 	andeq	r2, r0, r0, lsr r2
    3294:	01006e16 	tsteq	r0, r6, lsl lr
    3298:	00002c40 	andeq	r2, r0, r0, asr #24
    329c:	00224300 	eoreq	r4, r2, r0, lsl #6
    32a0:	00631600 	rsbeq	r1, r3, r0, lsl #12
    32a4:	002c4101 	eoreq	r4, ip, r1, lsl #2
    32a8:	225a0000 	subscs	r0, sl, #0
    32ac:	28190000 	ldmdacs	r9, {}	; <UNPREDICTABLE>
    32b0:	ec000007 	stc	0, cr0, [r0], {7}
    32b4:	34000094 	strcc	r0, [r0], #-148	; 0x94
    32b8:	01000000 	mrseq	r0, (UNDEF: 0)
    32bc:	00083c38 	andeq	r3, r8, r8, lsr ip
    32c0:	074b1a00 	strbeq	r1, [fp, -r0, lsl #20]
    32c4:	22840000 	addcs	r0, r4, #0
    32c8:	421c0000 	andsmi	r0, ip, #0
    32cc:	00000007 	andeq	r0, r0, r7
    32d0:	0007381b 	andeq	r3, r7, fp, lsl r8
    32d4:	1d550100 	ldfnee	f0, [r5, #-0]
    32d8:	000094ec 	andeq	r9, r0, ip, ror #9
    32dc:	00000034 	andeq	r0, r0, r4, lsr r0
    32e0:	0007561e 	andeq	r5, r7, lr, lsl r6
    32e4:	0022a200 	eoreq	sl, r2, r0, lsl #4
    32e8:	94f02400 	ldrbtls	r2, [r0], #1024	; 0x400
    32ec:	116f0000 	cmnne	pc, r0
    32f0:	fc250000 	stc2	0, cr0, [r5], #-0
    32f4:	7a000094 	bvc	354c <_start-0x4ab4>
    32f8:	31000011 	tstcc	r0, r1, lsl r0
    32fc:	20000008 	andcs	r0, r0, r8
    3300:	75025001 	strvc	r5, [r2, #-1]
    3304:	08240000 	stmdaeq	r4!, {}	; <UNPREDICTABLE>
    3308:	6f000095 	svcvs	0x00000095
    330c:	00000011 	andeq	r0, r0, r1, lsl r0
    3310:	95281700 	strls	r1, [r8, #-1792]!	; 0x700
    3314:	00040000 	andeq	r0, r4, r0
    3318:	08590000 	ldmdaeq	r9, {}^	; <UNPREDICTABLE>
    331c:	22260000 	eorcs	r0, r6, #0
    3320:	01000002 	tsteq	r0, r2
    3324:	00002c3c 	andeq	r2, r0, ip, lsr ip
    3328:	0022c000 	eoreq	ip, r2, r0
    332c:	11190000 	tstne	r9, r0
    3330:	34000001 	strcc	r0, [r0], #-1
    3334:	10000095 	mulne	r0, r5, r0
    3338:	01000000 	mrseq	r0, (UNDEF: 0)
    333c:	00089244 	andeq	r9, r8, r4, asr #4
    3340:	01281a00 	teqeq	r8, r0, lsl #20
    3344:	22d30000 	sbcscs	r0, r3, #0
    3348:	1d1a0000 	ldcne	0, cr0, [sl, #-0]
    334c:	f8000001 			; <UNDEFINED> instruction: 0xf8000001
    3350:	1d000022 	stcne	0, cr0, [r0, #-136]	; 0xffffff78
    3354:	00009534 	andeq	r9, r0, r4, lsr r5
    3358:	00000004 	andeq	r0, r0, r4
    335c:	0001321e 	andeq	r3, r1, lr, lsl r2
    3360:	00230b00 	eoreq	r0, r3, r0, lsl #22
    3364:	19000000 	stmdbne	r0, {}	; <UNPREDICTABLE>
    3368:	00000111 	andeq	r0, r0, r1, lsl r1
    336c:	00009554 	andeq	r9, r0, r4, asr r5
    3370:	00000010 	andeq	r0, r0, r0, lsl r0
    3374:	08cb4801 	stmiaeq	fp, {r0, fp, lr}^
    3378:	281a0000 	ldmdacs	sl, {}	; <UNPREDICTABLE>
    337c:	1e000001 	cdpne	0, 0, cr0, cr0, cr1, {0}
    3380:	1a000023 	bne	3414 <_start-0x4bec>
    3384:	0000011d 	andeq	r0, r0, sp, lsl r1
    3388:	00002331 	andeq	r2, r0, r1, lsr r3
    338c:	0095541d 	addseq	r5, r5, sp, lsl r4
    3390:	00000400 	andeq	r0, r0, r0, lsl #8
    3394:	01321e00 	teqeq	r2, r0, lsl #28
    3398:	23440000 	movtcs	r0, #16384	; 0x4000
    339c:	00000000 	andeq	r0, r0, r0
    33a0:	00011119 	andeq	r1, r1, r9, lsl r1
    33a4:	00957800 	addseq	r7, r5, r0, lsl #16
    33a8:	00001000 	andeq	r1, r0, r0
    33ac:	044b0100 	strbeq	r0, [fp], #-256	; 0x100
    33b0:	1a000009 	bne	33dc <_start-0x4c24>
    33b4:	00000128 	andeq	r0, r0, r8, lsr #2
    33b8:	00002357 	andeq	r2, r0, r7, asr r3
    33bc:	00011d1a 	andeq	r1, r1, sl, lsl sp
    33c0:	00236a00 	eoreq	r6, r3, r0, lsl #20
    33c4:	95781d00 	ldrbls	r1, [r8, #-3328]!	; 0xd00
    33c8:	00040000 	andeq	r0, r4, r0
    33cc:	321e0000 	andscc	r0, lr, #0
    33d0:	7d000001 	stcvc	0, cr0, [r0, #-4]
    33d4:	00000023 	andeq	r0, r0, r3, lsr #32
    33d8:	01111900 	tsteq	r1, r0, lsl #18
    33dc:	959c0000 	ldrls	r0, [ip]
    33e0:	00100000 	andseq	r0, r0, r0
    33e4:	4e010000 	cdpmi	0, 0, cr0, cr1, cr0, {0}
    33e8:	0000093d 	andeq	r0, r0, sp, lsr r9
    33ec:	0001281a 	andeq	r2, r1, sl, lsl r8
    33f0:	00239000 	eoreq	r9, r3, r0
    33f4:	011d1a00 	tsteq	sp, r0, lsl #20
    33f8:	23a30000 			; <UNDEFINED> instruction: 0x23a30000
    33fc:	9c1d0000 	ldcls	0, cr0, [sp], {-0}
    3400:	04000095 	streq	r0, [r0], #-149	; 0x95
    3404:	1e000000 	cdpne	0, 0, cr0, cr0, cr0, {0}
    3408:	00000132 	andeq	r0, r0, r2, lsr r1
    340c:	000023b6 			; <UNDEFINED> instruction: 0x000023b6
    3410:	11190000 	tstne	r9, r0
    3414:	c0000001 	andgt	r0, r0, r1
    3418:	10000095 	mulne	r0, r5, r0
    341c:	01000000 	mrseq	r0, (UNDEF: 0)
    3420:	00097651 	andeq	r7, r9, r1, asr r6
    3424:	01281a00 	teqeq	r8, r0, lsl #20
    3428:	23c90000 	biccs	r0, r9, #0
    342c:	1d1a0000 	ldcne	0, cr0, [sl, #-0]
    3430:	dc000001 	stcle	0, cr0, [r0], {1}
    3434:	1d000023 	stcne	0, cr0, [r0, #-140]	; 0xffffff74
    3438:	000095c0 	andeq	r9, r0, r0, asr #11
    343c:	00000004 	andeq	r0, r0, r4
    3440:	0001321e 	andeq	r3, r1, lr, lsl r2
    3444:	0023ef00 	eoreq	lr, r3, r0, lsl #30
    3448:	19000000 	stmdbne	r0, {}	; <UNPREDICTABLE>
    344c:	00000111 	andeq	r0, r0, r1, lsl r1
    3450:	000095e4 	andeq	r9, r0, r4, ror #11
    3454:	00000010 	andeq	r0, r0, r0, lsl r0
    3458:	09af5401 	stmibeq	pc!, {r0, sl, ip, lr}	; <UNPREDICTABLE>
    345c:	281a0000 	ldmdacs	sl, {}	; <UNPREDICTABLE>
    3460:	02000001 	andeq	r0, r0, #1
    3464:	1a000024 	bne	34fc <_start-0x4b04>
    3468:	0000011d 	andeq	r0, r0, sp, lsl r1
    346c:	00002415 	andeq	r2, r0, r5, lsl r4
    3470:	0095e41d 	addseq	lr, r5, sp, lsl r4
    3474:	00000400 	andeq	r0, r0, r0, lsl #8
    3478:	01321e00 	teqeq	r2, r0, lsl #28
    347c:	24280000 	strtcs	r0, [r8], #-0
    3480:	00000000 	andeq	r0, r0, r0
    3484:	00011119 	andeq	r1, r1, r9, lsl r1
    3488:	00960800 	addseq	r0, r6, r0, lsl #16
    348c:	00001000 	andeq	r1, r0, r0
    3490:	e8570100 	ldmda	r7, {r8}^
    3494:	1a000009 	bne	34c0 <_start-0x4b40>
    3498:	00000128 	andeq	r0, r0, r8, lsr #2
    349c:	0000243b 	andeq	r2, r0, fp, lsr r4
    34a0:	00011d1a 	andeq	r1, r1, sl, lsl sp
    34a4:	00244e00 	eoreq	r4, r4, r0, lsl #28
    34a8:	96081d00 	strls	r1, [r8], -r0, lsl #26
    34ac:	00040000 	andeq	r0, r4, r0
    34b0:	321e0000 	andscc	r0, lr, #0
    34b4:	61000001 	tstvs	r0, r1
    34b8:	00000024 	andeq	r0, r0, r4, lsr #32
    34bc:	01111900 	tsteq	r1, r0, lsl #18
    34c0:	962c0000 	strtls	r0, [ip], -r0
    34c4:	00100000 	andseq	r0, r0, r0
    34c8:	5a010000 	bpl	434d0 <__bss_end__+0x39140>
    34cc:	00000a1d 	andeq	r0, r0, sp, lsl sl
    34d0:	0001281a 	andeq	r2, r1, sl, lsl r8
    34d4:	00247400 	eoreq	r7, r4, r0, lsl #8
    34d8:	011d2700 	tsteq	sp, r0, lsl #14
    34dc:	2c1d0000 	ldccs	0, cr0, [sp], {-0}
    34e0:	04000096 	streq	r0, [r0], #-150	; 0x96
    34e4:	1e000000 	cdpne	0, 0, cr0, cr0, cr0, {0}
    34e8:	00000132 	andeq	r0, r0, r2, lsr r1
    34ec:	00002487 	andeq	r2, r0, r7, lsl #9
    34f0:	28190000 	ldmdacs	r9, {}	; <UNPREDICTABLE>
    34f4:	4c000007 	stcmi	0, cr0, [r0], {7}
    34f8:	34000096 	strcc	r0, [r0], #-150	; 0x96
    34fc:	01000000 	mrseq	r0, (UNDEF: 0)
    3500:	000a8161 	andeq	r8, sl, r1, ror #2
    3504:	074b2700 	strbeq	r2, [fp, -r0, lsl #14]
    3508:	421a0000 	andsmi	r0, sl, #0
    350c:	9a000007 	bls	3530 <_start-0x4ad0>
    3510:	1a000024 	bne	35a8 <_start-0x4a58>
    3514:	00000738 	andeq	r0, r0, r8, lsr r7
    3518:	000024ba 			; <UNDEFINED> instruction: 0x000024ba
    351c:	00964c1d 	addseq	r4, r6, sp, lsl ip
    3520:	00003400 	andeq	r3, r0, r0, lsl #8
    3524:	07561e00 	ldrbeq	r1, [r6, -r0, lsl #28]
    3528:	24d80000 	ldrbcs	r0, [r8], #0
    352c:	50240000 	eorpl	r0, r4, r0
    3530:	6f000096 	svcvs	0x00000096
    3534:	25000011 	strcs	r0, [r0, #-17]
    3538:	0000965c 	andeq	r9, r0, ip, asr r6
    353c:	0000117a 	andeq	r1, r0, sl, ror r1
    3540:	00000a76 	andeq	r0, r0, r6, ror sl
    3544:	02500120 	subseq	r0, r0, #32, 2
    3548:	24000075 	strcs	r0, [r0], #-117	; 0x75
    354c:	00009668 	andeq	r9, r0, r8, ror #12
    3550:	0000116f 	andeq	r1, r0, pc, ror #2
    3554:	50250000 	eorpl	r0, r5, r0
    3558:	7a000095 	bvc	37b4 <_start-0x484c>
    355c:	95000011 	strls	r0, [r0, #-17]
    3560:	2000000a 	andcs	r0, r0, sl
    3564:	75025001 	strvc	r5, [r2, #-1]
    3568:	70250000 	eorvc	r0, r5, r0
    356c:	7a000095 	bvc	37c8 <_start-0x4838>
    3570:	a9000011 	stmdbge	r0, {r0, r4}
    3574:	2000000a 	andcs	r0, r0, sl
    3578:	75025001 	strvc	r5, [r2, #-1]
    357c:	94250000 	strtls	r0, [r5], #-0
    3580:	7a000095 	bvc	37dc <_start-0x4824>
    3584:	bd000011 	stclt	0, cr0, [r0, #-68]	; 0xffffffbc
    3588:	2000000a 	andcs	r0, r0, sl
    358c:	75025001 	strvc	r5, [r2, #-1]
    3590:	b8250000 	stmdalt	r5!, {}	; <UNPREDICTABLE>
    3594:	7a000095 	bvc	37f0 <_start-0x4810>
    3598:	d1000011 	tstle	r0, r1, lsl r0
    359c:	2000000a 	andcs	r0, r0, sl
    35a0:	75025001 	strvc	r5, [r2, #-1]
    35a4:	dc250000 	stcle	0, cr0, [r5], #-0
    35a8:	7a000095 	bvc	3804 <_start-0x47fc>
    35ac:	e5000011 	str	r0, [r0, #-17]
    35b0:	2000000a 	andcs	r0, r0, sl
    35b4:	75025001 	strvc	r5, [r2, #-1]
    35b8:	00250000 	eoreq	r0, r5, r0
    35bc:	7a000096 	bvc	381c <_start-0x47e4>
    35c0:	f9000011 			; <UNDEFINED> instruction: 0xf9000011
    35c4:	2000000a 	andcs	r0, r0, sl
    35c8:	75025001 	strvc	r5, [r2, #-1]
    35cc:	24250000 	strtcs	r0, [r5], #-0
    35d0:	7a000096 	bvc	3830 <_start-0x47d0>
    35d4:	0d000011 	stceq	0, cr0, [r0, #-68]	; 0xffffffbc
    35d8:	2000000b 	andcs	r0, r0, fp
    35dc:	75025001 	strvc	r5, [r2, #-1]
    35e0:	441f0000 	ldrmi	r0, [pc], #-0	; 35e8 <_start-0x4a18>
    35e4:	7a000096 	bvc	3844 <_start-0x47bc>
    35e8:	20000011 	andcs	r0, r0, r1, lsl r0
    35ec:	75025001 	strvc	r5, [r2, #-1]
    35f0:	23000000 	movwcs	r0, #0
    35f4:	00000856 	andeq	r0, r0, r6, asr r8
    35f8:	00256c01 	eoreq	r6, r5, r1, lsl #24
    35fc:	96a00000 	strtls	r0, [r0], r0
    3600:	00a40000 	adceq	r0, r4, r0
    3604:	9c010000 	stcls	0, cr0, [r1], {-0}
    3608:	00000c0c 	andeq	r0, r0, ip, lsl #24
    360c:	01007514 	tsteq	r0, r4, lsl r5
    3610:	0007226c 	andeq	r2, r7, ip, ror #4
    3614:	0024f600 	eoreq	pc, r4, r0, lsl #12
    3618:	75621400 	strbvc	r1, [r2, #-1024]!	; 0x400
    361c:	6c010066 	stcvs	0, cr0, [r1], {102}	; 0x66
    3620:	00000c0c 	andeq	r0, r0, ip, lsl #24
    3624:	00002538 	andeq	r2, r0, r8, lsr r5
    3628:	0008e813 	andeq	lr, r8, r3, lsl r8
    362c:	686c0100 	stmdavs	ip!, {r8}^
    3630:	7a000000 	bvc	3638 <_start-0x49c8>
    3634:	14000025 	strne	r0, [r0], #-37	; 0x25
    3638:	00646e65 	rsbeq	r6, r4, r5, ror #28
    363c:	004f6c01 	subeq	r6, pc, r1, lsl #24
    3640:	25c10000 	strbcs	r0, [r1]
    3644:	ef280000 	svc	0x00280000
    3648:	01000008 	tsteq	r0, r8
    364c:	0000686c 	andeq	r6, r0, ip, ror #16
    3650:	00910200 	addseq	r0, r1, r0, lsl #4
    3654:	00017129 	andeq	r7, r1, r9, lsr #2
    3658:	000c2200 	andeq	r2, ip, r0, lsl #4
    365c:	6c030500 	cfstr32vs	mvfx0, [r3], {-0}
    3660:	1600009e 			; <UNDEFINED> instruction: 0x1600009e
    3664:	70010069 	andvc	r0, r1, r9, rrx
    3668:	00000025 	andeq	r0, r0, r5, lsr #32
    366c:	000025fb 	strdeq	r2, [r0], -fp
    3670:	0008cb26 	andeq	ip, r8, r6, lsr #22
    3674:	4f710100 	svcmi	0x00710100
    3678:	25000000 	strcs	r0, [r0, #-0]
    367c:	24000026 	strcs	r0, [r0], #-38	; 0x26
    3680:	000096c4 	andeq	r9, r0, r4, asr #13
    3684:	0000118f 	andeq	r1, r0, pc, lsl #3
    3688:	0096e025 	addseq	lr, r6, r5, lsr #32
    368c:	00119600 	andseq	r9, r1, r0, lsl #12
    3690:	000bec00 	andeq	lr, fp, r0, lsl #24
    3694:	53012000 	movwpl	r2, #4096	; 0x1000
    3698:	206d0802 	rsbcs	r0, sp, r2, lsl #16
    369c:	03055201 	movweq	r5, #20993	; 0x5201
    36a0:	00009e6c 	andeq	r9, r0, ip, ror #28
    36a4:	05510120 	ldrbeq	r0, [r1, #-288]	; 0x120
    36a8:	009ee403 	addseq	lr, lr, r3, lsl #8
    36ac:	50012000 	andpl	r2, r1, r0
    36b0:	9d6c0305 	stclls	3, cr0, [ip, #-20]!	; 0xffffffec
    36b4:	02200000 	eoreq	r0, r0, #0
    36b8:	0305007d 	movweq	r0, #20605	; 0x507d
    36bc:	00009ef8 	strdeq	r9, [r0], -r8
    36c0:	96e42400 	strbtls	r2, [r4], r0, lsl #8
    36c4:	11ac0000 			; <UNDEFINED> instruction: 0x11ac0000
    36c8:	001f0000 	andseq	r0, pc, r0
    36cc:	62000097 	andvs	r0, r0, #151	; 0x97
    36d0:	20000007 	andcs	r0, r0, r7
    36d4:	7a025101 	bvc	97ae0 <__bss_end__+0x8d750>
    36d8:	50012000 	andpl	r2, r1, r0
    36dc:	00007802 	andeq	r7, r0, r2, lsl #16
    36e0:	4f040600 	svcmi	0x00040600
    36e4:	2a000000 	bcs	36ec <_start-0x4914>
    36e8:	00000090 	muleq	r0, r0, r0
    36ec:	00000c22 	andeq	r0, r0, r2, lsr #24
    36f0:	0000812b 	andeq	r8, r0, fp, lsr #2
    36f4:	07001200 	streq	r1, [r0, -r0, lsl #4]
    36f8:	00000c12 	andeq	r0, r0, r2, lsl ip
    36fc:	0008d323 	andeq	sp, r8, r3, lsr #6
    3700:	25800100 	strcs	r0, [r0, #256]	; 0x100
    3704:	44000000 	strmi	r0, [r0], #-0
    3708:	90000097 	mulls	r0, r7, r0
    370c:	01000000 	mrseq	r0, (UNDEF: 0)
    3710:	000cf89c 	muleq	ip, ip, r8
    3714:	00751400 	rsbseq	r1, r5, r0, lsl #8
    3718:	07228001 	streq	r8, [r2, -r1]!
    371c:	26380000 	ldrtcs	r0, [r8], -r0
    3720:	62140000 	andsvs	r0, r4, #0
    3724:	01006675 	tsteq	r0, r5, ror r6
    3728:	000c0c80 	andeq	r0, ip, r0, lsl #25
    372c:	00267a00 	eoreq	r7, r6, r0, lsl #20
    3730:	08e81300 	stmiaeq	r8!, {r8, r9, ip}^
    3734:	81010000 	mrshi	r0, (UNDEF: 1)
    3738:	00000068 	andeq	r0, r0, r8, rrx
    373c:	000026bc 			; <UNDEFINED> instruction: 0x000026bc
    3740:	0008ef13 	andeq	lr, r8, r3, lsl pc
    3744:	68810100 	stmvs	r1, {r8}
    3748:	03000000 	movweq	r0, #0
    374c:	29000027 	stmdbcs	r0, {r0, r1, r2, r5}
    3750:	00000171 	andeq	r0, r0, r1, ror r1
    3754:	00000d08 	andeq	r0, r0, r8, lsl #26
    3758:	9e800305 	cdpls	3, 8, cr0, cr0, cr5, {0}
    375c:	69160000 	ldmdbvs	r6, {}	; <UNPREDICTABLE>
    3760:	25860100 	strcs	r0, [r6, #256]	; 0x100
    3764:	45000000 	strmi	r0, [r0, #-0]
    3768:	24000027 	strcs	r0, [r0], #-39	; 0x27
    376c:	00009764 	andeq	r9, r0, r4, ror #14
    3770:	0000118f 	andeq	r1, r0, pc, lsl #3
    3774:	00978025 	addseq	r8, r7, r5, lsr #32
    3778:	00119600 	andseq	r9, r1, r0, lsl #12
    377c:	000cd800 	andeq	sp, ip, r0, lsl #16
    3780:	53012000 	movwpl	r2, #4096	; 0x1000
    3784:	20830802 	addcs	r0, r3, r2, lsl #16
    3788:	03055201 	movweq	r5, #20993	; 0x5201
    378c:	00009e80 	andeq	r9, r0, r0, lsl #29
    3790:	05510120 	ldrbeq	r0, [r1, #-288]	; 0x120
    3794:	009ee403 	addseq	lr, lr, r3, lsl #8
    3798:	50012000 	andpl	r2, r1, r0
    379c:	9d6c0305 	stclls	3, cr0, [ip, #-20]!	; 0xffffffec
    37a0:	02200000 	eoreq	r0, r0, #0
    37a4:	0305007d 	movweq	r0, #20605	; 0x507d
    37a8:	00009ef8 	strdeq	r9, [r0], -r8
    37ac:	97842400 	strls	r2, [r4, r0, lsl #8]
    37b0:	11ac0000 			; <UNDEFINED> instruction: 0x11ac0000
    37b4:	a01f0000 	andsge	r0, pc, r0
    37b8:	62000097 	andvs	r0, r0, #151	; 0x97
    37bc:	20000007 	andcs	r0, r0, r7
    37c0:	78025101 	stmdavc	r2, {r0, r8, ip, lr}
    37c4:	50012000 	andpl	r2, r1, r0
    37c8:	00007702 	andeq	r7, r0, r2, lsl #14
    37cc:	00902a00 	addseq	r2, r0, r0, lsl #20
    37d0:	0d080000 	stceq	0, cr0, [r8, #-0]
    37d4:	812b0000 	teqhi	fp, r0
    37d8:	14000000 	strne	r0, [r0], #-0
    37dc:	0cf80700 	ldcleq	7, cr0, [r8]
    37e0:	8c230000 	stchi	0, cr0, [r3], #-0
    37e4:	01000008 	tsteq	r0, r8
    37e8:	0000d993 	muleq	r0, r3, r9
    37ec:	0097d400 	addseq	sp, r7, r0, lsl #8
    37f0:	0000d400 	andeq	sp, r0, r0, lsl #8
    37f4:	329c0100 	addscc	r0, ip, #0, 2
    37f8:	1400000e 	strne	r0, [r0], #-14
    37fc:	01007874 	tsteq	r0, r4, ror r8
    3800:	00004f93 	muleq	r0, r3, pc	; <UNPREDICTABLE>
    3804:	00276f00 	eoreq	r6, r7, r0, lsl #30
    3808:	78721400 	ldmdavc	r2!, {sl, ip}^
    380c:	4f930100 	svcmi	0x00930100
    3810:	90000000 	andls	r0, r0, r0
    3814:	13000027 	movwne	r0, #39	; 0x27
    3818:	00000515 	andeq	r0, r0, r5, lsl r5
    381c:	00689301 	rsbeq	r9, r8, r1, lsl #6
    3820:	27b10000 	ldrcs	r0, [r1, r0]!
    3824:	25280000 	strcs	r0, [r8, #-0]!
    3828:	01000008 	tsteq	r0, r8
    382c:	00006893 	muleq	r0, r3, r8
    3830:	00910200 	addseq	r0, r1, r0, lsl #4
    3834:	7a686d2c 	bvc	1a1ecec <__bss_end__+0x1a1495c>
    3838:	2c9b0100 	ldfcss	f0, [fp], {0}
    383c:	00000000 	andeq	r0, r0, r0
    3840:	2629b927 	strtcs	fp, [r9], -r7, lsr #18
    3844:	00000876 	andeq	r0, r0, r6, ror r8
    3848:	002c9c01 	eoreq	r9, ip, r1, lsl #24
    384c:	27db0000 	ldrbcs	r0, [fp, r0]
    3850:	71290000 	teqvc	r9, r0
    3854:	42000001 	andmi	r0, r0, #1
    3858:	0500000e 	streq	r0, [r0, #-14]
    385c:	009e9803 	addseq	r9, lr, r3, lsl #16
    3860:	98001700 	stmdals	r0, {r8, r9, sl, ip}
    3864:	00080000 	andeq	r0, r8, r0
    3868:	0da50000 	stceq	0, cr0, [r5]
    386c:	692d0000 	pushvs	{}	; <UNPREDICTABLE>
    3870:	9701006e 	strls	r0, [r1, -lr, rrx]
    3874:	0000002c 	andeq	r0, r0, ip, lsr #32
    3878:	f8250001 			; <UNDEFINED> instruction: 0xf8250001
    387c:	b3000097 	movwlt	r0, #151	; 0x97
    3880:	b9000011 	stmdblt	r0, {r0, r4}
    3884:	2000000d 	andcs	r0, r0, sp
    3888:	76025001 	strvc	r5, [r2], -r1
    388c:	00250000 	eoreq	r0, r5, r0
    3890:	c4000098 	strgt	r0, [r0], #-152	; 0x98
    3894:	cd000011 	stcgt	0, cr0, [r0, #-68]	; 0xffffffbc
    3898:	2000000d 	andcs	r0, r0, sp
    389c:	78025001 	stmdavc	r2, {r0, ip, lr}
    38a0:	14250000 	strtne	r0, [r5], #-0
    38a4:	59000098 	stmdbpl	r0, {r3, r4, r7}
    38a8:	e6000011 			; <UNDEFINED> instruction: 0xe6000011
    38ac:	2000000d 	andcs	r0, r0, sp
    38b0:	31015101 	tstcc	r1, r1, lsl #2
    38b4:	02500120 	subseq	r0, r0, #32, 2
    38b8:	24000076 	strcs	r0, [r0], #-118	; 0x76
    38bc:	00009858 	andeq	r9, r0, r8, asr r8
    38c0:	0000118f 	andeq	r1, r0, pc, lsl #3
    38c4:	00987425 	addseq	r7, r8, r5, lsr #8
    38c8:	00119600 	andseq	r9, r1, r0, lsl #12
    38cc:	000e2800 	andeq	r2, lr, r0, lsl #16
    38d0:	53012000 	movwpl	r2, #4096	; 0x1000
    38d4:	209d0802 	addscs	r0, sp, r2, lsl #16
    38d8:	03055201 	movweq	r5, #20993	; 0x5201
    38dc:	00009e98 	muleq	r0, r8, lr
    38e0:	05510120 	ldrbeq	r0, [r1, #-288]	; 0x120
    38e4:	009ee403 	addseq	lr, lr, r3, lsl #8
    38e8:	50012000 	andpl	r2, r1, r0
    38ec:	9d6c0305 	stclls	3, cr0, [ip, #-20]!	; 0xffffffec
    38f0:	02200000 	eoreq	r0, r0, #0
    38f4:	0305007d 	movweq	r0, #20605	; 0x507d
    38f8:	00009f04 	andeq	r9, r0, r4, lsl #30
    38fc:	98782400 	ldmdals	r8!, {sl, sp}^
    3900:	11ac0000 			; <UNDEFINED> instruction: 0x11ac0000
    3904:	2a000000 	bcs	390c <_start-0x46f4>
    3908:	00000090 	muleq	r0, r0, r0
    390c:	00000e42 	andeq	r0, r0, r2, asr #28
    3910:	0000812b 	andeq	r8, r0, fp, lsr #2
    3914:	07001300 	streq	r1, [r0, -r0, lsl #6]
    3918:	00000e32 	andeq	r0, r0, r2, lsr lr
    391c:	00086923 	andeq	r6, r8, r3, lsr #18
    3920:	25a90100 	strcs	r0, [r9, #256]!	; 0x100
    3924:	a8000000 	stmdage	r0, {}	; <UNPREDICTABLE>
    3928:	3c000098 	stccc	0, cr0, [r0], {152}	; 0x98
    392c:	01000000 	mrseq	r0, (UNDEF: 0)
    3930:	000eea9c 	muleq	lr, ip, sl
    3934:	04dc1300 	ldrbeq	r1, [ip], #768	; 0x300
    3938:	a9010000 	stmdbge	r1, {}	; <UNPREDICTABLE>
    393c:	00000722 	andeq	r0, r0, r2, lsr #14
    3940:	00002809 	andeq	r2, r0, r9, lsl #16
    3944:	73657216 	cmnvc	r5, #1610612737	; 0x60000001
    3948:	25aa0100 	strcs	r0, [sl, #256]!	; 0x100
    394c:	2a000000 	bcs	3954 <_start-0x46ac>
    3950:	29000028 	stmdbcs	r0, {r3, r5}
    3954:	00000171 	andeq	r0, r0, r1, ror r1
    3958:	00000efa 	strdeq	r0, [r0], -sl
    395c:	9eac0305 	cdpls	3, 10, cr0, cr12, cr5, {0}
    3960:	b4250000 	strtlt	r0, [r5], #-0
    3964:	62000098 	andvs	r0, r0, #152	; 0x98
    3968:	a8000007 	stmdage	r0, {r0, r1, r2}
    396c:	2000000e 	andcs	r0, r0, lr
    3970:	09025101 	stmdbeq	r2, {r0, r8, ip, lr}
    3974:	500120ff 	strdpl	r2, [r1], -pc	; <UNPREDICTABLE>
    3978:	5001f303 	andpl	pc, r1, r3, lsl #6
    397c:	98c02400 	stmials	r0, {sl, sp}^
    3980:	118f0000 	orrne	r0, pc, r0
    3984:	d4250000 	strtle	r0, [r5], #-0
    3988:	96000098 			; <UNDEFINED> instruction: 0x96000098
    398c:	e0000011 	and	r0, r0, r1, lsl r0
    3990:	2000000e 	andcs	r0, r0, lr
    3994:	08025301 	stmdaeq	r2, {r0, r8, r9, ip, lr}
    3998:	520120ac 	andpl	r2, r1, #172	; 0xac
    399c:	9eac0305 	cdpls	3, 10, cr0, cr12, cr5, {0}
    39a0:	01200000 	teqeq	r0, r0
    39a4:	e4030551 	str	r0, [r3], #-1361	; 0x551
    39a8:	2000009e 	mulcs	r0, lr, r0
    39ac:	03055001 	movweq	r5, #20481	; 0x5001
    39b0:	00009f38 	andeq	r9, r0, r8, lsr pc
    39b4:	98d82400 	ldmls	r8, {sl, sp}^
    39b8:	11ac0000 			; <UNDEFINED> instruction: 0x11ac0000
    39bc:	2a000000 	bcs	39c4 <_start-0x463c>
    39c0:	00000090 	muleq	r0, r0, r0
    39c4:	00000efa 	strdeq	r0, [r0], -sl
    39c8:	0000812b 	andeq	r8, r0, fp, lsr #2
    39cc:	07000c00 	streq	r0, [r0, -r0, lsl #24]
    39d0:	00000eea 	andeq	r0, r0, sl, ror #29
    39d4:	0008ad12 	andeq	sl, r8, r2, lsl sp
    39d8:	e4b00100 	ldrt	r0, [r0], #256	; 0x100
    39dc:	2c000098 	stccs	0, cr0, [r0], {152}	; 0x98
    39e0:	01000000 	mrseq	r0, (UNDEF: 0)
    39e4:	000f439c 	muleq	pc, ip, r3	; <UNPREDICTABLE>
    39e8:	04dc1300 	ldrbeq	r1, [ip], #768	; 0x300
    39ec:	b0010000 	andlt	r0, r1, r0
    39f0:	00000722 	andeq	r0, r0, r2, lsr #14
    39f4:	0000283d 	andeq	r2, r0, sp, lsr r8
    39f8:	67736d14 			; <UNDEFINED> instruction: 0x67736d14
    39fc:	97b00100 	ldrls	r0, [r0, r0, lsl #2]!
    3a00:	5b000000 	blpl	3a08 <_start-0x45f8>
    3a04:	1f000028 	svcne	0x00000028
    3a08:	000098fc 	strdeq	r9, [r0], -ip
    3a0c:	00000176 	andeq	r0, r0, r6, ror r1
    3a10:	02500120 	subseq	r0, r0, #32, 2
    3a14:	00000075 	andeq	r0, r0, r5, ror r0
    3a18:	0004e123 	andeq	lr, r4, r3, lsr #2
    3a1c:	25b90100 	ldrcs	r0, [r9, #256]!	; 0x100
    3a20:	10000000 	andne	r0, r0, r0
    3a24:	90000099 	mulls	r0, r9, r0
    3a28:	01000000 	mrseq	r0, (UNDEF: 0)
    3a2c:	0010419c 	mulseq	r0, ip, r1
    3a30:	04dc1300 	ldrbeq	r1, [ip], #768	; 0x300
    3a34:	b9010000 	stmdblt	r1, {}	; <UNPREDICTABLE>
    3a38:	00000722 	andeq	r0, r0, r2, lsr #14
    3a3c:	00002879 	andeq	r2, r0, r9, ror r8
    3a40:	746d662e 	strbtvc	r6, [sp], #-1582	; 0x62e
    3a44:	97b90100 	ldrls	r0, [r9, r0, lsl #2]!
    3a48:	02000000 	andeq	r0, r0, #0
    3a4c:	152f7491 	strne	r7, [pc, #-1169]!	; 35c3 <_start-0x4a3d>
    3a50:	00667562 	rsbeq	r7, r6, r2, ror #10
    3a54:	1041ba01 	subne	fp, r1, r1, lsl #20
    3a58:	91030000 	mrsls	r0, (UNDEF: 3)
    3a5c:	9a187c9c 	bls	622cd4 <__bss_end__+0x618944>
    3a60:	01000003 	tsteq	r0, r3
    3a64:	000106bc 			; <UNDEFINED> instruction: 0x000106bc
    3a68:	98910300 	ldmls	r1, {r8, r9}
    3a6c:	7a73167c 	bvc	1cc9464 <__bss_end__+0x1cbf0d4>
    3a70:	25be0100 	ldrcs	r0, [lr, #256]!	; 0x100
    3a74:	a5000000 	strge	r0, [r0, #-0]
    3a78:	29000028 	stmdbcs	r0, {r3, r5}
    3a7c:	00000171 	andeq	r0, r0, r1, ror r1
    3a80:	00001062 	andeq	r1, r0, r2, rrx
    3a84:	9ebc0305 	cdpls	3, 11, cr0, cr12, cr5, {0}
    3a88:	38250000 	stmdacc	r5!, {}	; <UNPREDICTABLE>
    3a8c:	d5000099 	strle	r0, [r0, #-153]	; 0x99
    3a90:	de000011 	mcrle	0, 0, r0, cr0, cr1, {0}
    3a94:	2000000f 	andcs	r0, r0, pc
    3a98:	91025301 	tstls	r2, r1, lsl #6
    3a9c:	52012058 	andpl	r2, r1, #88	; 0x58
    3aa0:	06549103 	ldrbeq	r9, [r4], -r3, lsl #2
    3aa4:	03510120 	cmpeq	r1, #32, 2
    3aa8:	2001cc0a 	andcs	ip, r1, sl, lsl #24
    3aac:	91035001 	tstls	r3, r1
    3ab0:	24007bfc 	strcs	r7, [r0], #-3068	; 0xbfc
    3ab4:	0000994c 	andeq	r9, r0, ip, asr #18
    3ab8:	0000118f 	andeq	r1, r0, pc, lsl #3
    3abc:	00996825 	addseq	r6, r9, r5, lsr #16
    3ac0:	00119600 	andseq	r9, r1, r0, lsl #12
    3ac4:	00102000 	andseq	r2, r0, r0
    3ac8:	53012000 	movwpl	r2, #4096	; 0x1000
    3acc:	20c00802 	sbccs	r0, r0, r2, lsl #16
    3ad0:	03055201 	movweq	r5, #20993	; 0x5201
    3ad4:	00009ebc 			; <UNDEFINED> instruction: 0x00009ebc
    3ad8:	05510120 	ldrbeq	r0, [r1, #-288]	; 0x120
    3adc:	009ee403 	addseq	lr, lr, r3, lsl #8
    3ae0:	50012000 	andpl	r2, r1, r0
    3ae4:	9d6c0305 	stclls	3, cr0, [ip, #-20]!	; 0xffffffec
    3ae8:	02200000 	eoreq	r0, r0, #0
    3aec:	0305007d 	movweq	r0, #20605	; 0x507d
    3af0:	00009f70 	andeq	r9, r0, r0, ror pc
    3af4:	996c2400 	stmdbls	ip!, {sl, sp}^
    3af8:	11ac0000 			; <UNDEFINED> instruction: 0x11ac0000
    3afc:	781f0000 	ldmdavc	pc, {}	; <UNPREDICTABLE>
    3b00:	ff000099 			; <UNDEFINED> instruction: 0xff000099
    3b04:	2000000e 	andcs	r0, r0, lr
    3b08:	91035101 	tstls	r3, r1, lsl #2
    3b0c:	01207bfc 	strdeq	r7, [r0, -ip]!
    3b10:	00750250 	rsbseq	r0, r5, r0, asr r2
    3b14:	902a0000 	eorls	r0, sl, r0
    3b18:	52000000 	andpl	r0, r0, #0
    3b1c:	30000010 	andcc	r0, r0, r0, lsl r0
    3b20:	00000081 	andeq	r0, r0, r1, lsl #1
    3b24:	2a0001cb 	bcs	4258 <_start-0x3da8>
    3b28:	00000090 	muleq	r0, r0, r0
    3b2c:	00001062 	andeq	r1, r0, r2, rrx
    3b30:	0000812b 	andeq	r8, r0, fp, lsr #2
    3b34:	07000e00 	streq	r0, [r0, -r0, lsl #28]
    3b38:	00001052 	andeq	r1, r0, r2, asr r0
    3b3c:	0008fc23 	andeq	pc, r8, r3, lsr #24
    3b40:	25c50100 	strbcs	r0, [r5, #256]	; 0x100
    3b44:	a0000000 	andge	r0, r0, r0
    3b48:	4c000099 	stcmi	0, cr0, [r0], {153}	; 0x99
    3b4c:	01000000 	mrseq	r0, (UNDEF: 0)
    3b50:	0011449c 	mulseq	r1, ip, r4
    3b54:	00751400 	rsbseq	r1, r5, r0, lsl #8
    3b58:	0722c501 	streq	ip, [r2, -r1, lsl #10]!
    3b5c:	28e40000 	stmiacs	r4!, {}^	; <UNPREDICTABLE>
    3b60:	62140000 	andsvs	r0, r4, #0
    3b64:	01006675 	tsteq	r0, r5, ror r6
    3b68:	000c0cc5 	andeq	r0, ip, r5, asr #25
    3b6c:	00290500 	eoreq	r0, r9, r0, lsl #10
    3b70:	08e81300 	stmiaeq	r8!, {r8, r9, ip}^
    3b74:	c5010000 	strgt	r0, [r1, #-0]
    3b78:	00000068 	andeq	r0, r0, r8, rrx
    3b7c:	00002926 	andeq	r2, r0, r6, lsr #18
    3b80:	646e6514 	strbtvs	r6, [lr], #-1300	; 0x514
    3b84:	4fc50100 	svcmi	0x00c50100
    3b88:	47000000 	strmi	r0, [r0, -r0]
    3b8c:	16000029 	strne	r0, [r0], -r9, lsr #32
    3b90:	00736572 	rsbseq	r6, r3, r2, ror r5
    3b94:	0025c601 	eoreq	ip, r5, r1, lsl #12
    3b98:	29680000 	stmdbcs	r8!, {}^	; <UNPREDICTABLE>
    3b9c:	71290000 	teqvc	r9, r0
    3ba0:	54000001 	strpl	r0, [r0], #-1
    3ba4:	05000011 	streq	r0, [r0, #-17]
    3ba8:	009ecc03 	addseq	ip, lr, r3, lsl #24
    3bac:	99b42500 	ldmibls	r4!, {r8, sl, sp}
    3bb0:	0b1e0000 	bleq	783bb8 <__bss_end__+0x779828>
    3bb4:	11020000 	mrsne	r0, (UNDEF: 2)
    3bb8:	01200000 	teqeq	r0, r0
    3bbc:	01f30352 	mvnseq	r0, r2, asr r3
    3bc0:	51012052 	qaddpl	r2, r2, r1
    3bc4:	5101f303 	tstpl	r1, r3, lsl #6
    3bc8:	03500120 	cmpeq	r0, #32, 2
    3bcc:	205001f3 	ldrshcs	r0, [r0], #-19	; 0xffffffed
    3bd0:	02007d02 	andeq	r7, r0, #2, 26	; 0x80
    3bd4:	2400ff09 	strcs	pc, [r0], #-3849	; 0xf09
    3bd8:	000099c0 	andeq	r9, r0, r0, asr #19
    3bdc:	0000118f 	andeq	r1, r0, pc, lsl #3
    3be0:	0099d425 	addseq	sp, r9, r5, lsr #8
    3be4:	00119600 	andseq	r9, r1, r0, lsl #12
    3be8:	00113a00 	andseq	r3, r1, r0, lsl #20
    3bec:	53012000 	movwpl	r2, #4096	; 0x1000
    3bf0:	20c80802 	sbccs	r0, r8, r2, lsl #16
    3bf4:	03055201 	movweq	r5, #20993	; 0x5201
    3bf8:	00009ecc 	andeq	r9, r0, ip, asr #29
    3bfc:	05510120 	ldrbeq	r0, [r1, #-288]	; 0x120
    3c00:	009ee403 	addseq	lr, lr, r3, lsl #8
    3c04:	50012000 	andpl	r2, r1, r0
    3c08:	9f380305 	svcls	0x00380305
    3c0c:	24000000 	strcs	r0, [r0], #-0
    3c10:	000099d8 	ldrdeq	r9, [r0], -r8
    3c14:	000011ac 	andeq	r1, r0, ip, lsr #3
    3c18:	00902a00 	addseq	r2, r0, r0, lsl #20
    3c1c:	11540000 	cmpne	r4, r0
    3c20:	812b0000 	teqhi	fp, r0
    3c24:	16000000 	strne	r0, [r0], -r0
    3c28:	11440700 	cmpne	r4, r0, lsl #14
    3c2c:	29310000 	ldmdbcs	r1!, {}	; <UNPREDICTABLE>
    3c30:	06000000 	streq	r0, [r0], -r0
    3c34:	00116f21 	andseq	r6, r1, r1, lsr #30
    3c38:	002c3200 	eoreq	r3, ip, r0, lsl #4
    3c3c:	2c320000 	ldccs	0, cr0, [r2], #-0
    3c40:	00000000 	andeq	r0, r0, r0
    3c44:	00061633 	andeq	r1, r6, r3, lsr r6
    3c48:	2c570700 	mrrccs	7, 0, r0, r7, cr0
    3c4c:	34000000 	strcc	r0, [r0], #-0
    3c50:	000001a3 	andeq	r0, r0, r3, lsr #3
    3c54:	00252406 	eoreq	r2, r5, r6, lsl #8
    3c58:	118f0000 	orrne	r0, pc, r0
    3c5c:	2c320000 	ldccs	0, cr0, [r2], #-0
    3c60:	00000000 	andeq	r0, r0, r0
    3c64:	00012e35 	andeq	r2, r1, r5, lsr lr
    3c68:	341e0700 	ldrcc	r0, [lr], #-1792	; 0x700
    3c6c:	00000345 	andeq	r0, r0, r5, asr #6
    3c70:	00252907 	eoreq	r2, r5, r7, lsl #18
    3c74:	11ac0000 			; <UNDEFINED> instruction: 0x11ac0000
    3c78:	97320000 	ldrls	r0, [r2, -r0]!
    3c7c:	2f000000 	svccs	0x00000000
    3c80:	02063500 	andeq	r3, r6, #0, 10
    3c84:	66070000 	strvs	r0, [r7], -r0
    3c88:	00028d31 	andeq	r8, r2, r1, lsr sp
    3c8c:	c41d0600 	ldrgt	r0, [sp], #-1536	; 0x600
    3c90:	32000011 	andcc	r0, r0, #17
    3c94:	0000002c 	andeq	r0, r0, ip, lsr #32
    3c98:	02793100 	rsbseq	r3, r9, #0, 2
    3c9c:	1c060000 	stcne	0, cr0, [r6], {-0}
    3ca0:	000011d5 	ldrdeq	r1, [r0], -r5
    3ca4:	00002c32 	andeq	r2, r0, r2, lsr ip
    3ca8:	42360000 	eorsmi	r0, r6, #0
    3cac:	08000003 	stmdaeq	r0, {r0, r1}
    3cb0:	00002502 	andeq	r2, r0, r2, lsl #10
    3cb4:	008a3200 	addeq	r3, sl, r0, lsl #4
    3cb8:	25320000 	ldrcs	r0, [r2, #-0]!
    3cbc:	32000000 	andcc	r0, r0, #0
    3cc0:	00000097 	muleq	r0, r7, r0
    3cc4:	00010632 	andeq	r0, r1, r2, lsr r6
    3cc8:	ff000000 			; <UNDEFINED> instruction: 0xff000000
    3ccc:	04000003 	streq	r0, [r0], #-3
    3cd0:	00104700 	andseq	r4, r0, r0, lsl #14
    3cd4:	eb010400 	bl	44cdc <__bss_end__+0x3a94c>
    3cd8:	01000002 	tsteq	r0, r2
    3cdc:	000009f4 	strdeq	r0, [r0], -r4
    3ce0:	00000356 	andeq	r0, r0, r6, asr r3
    3ce4:	000099ec 	andeq	r9, r0, ip, ror #19
    3ce8:	00000154 	andeq	r0, r0, r4, asr r1
    3cec:	00000f03 	andeq	r0, r0, r3, lsl #30
    3cf0:	69050402 	stmdbvs	r5, {r1, sl}
    3cf4:	0300746e 	movweq	r7, #1134	; 0x46e
    3cf8:	004d0704 	subeq	r0, sp, r4, lsl #14
    3cfc:	01030000 	mrseq	r0, (UNDEF: 3)
    3d00:	00022906 	andeq	r2, r2, r6, lsl #18
    3d04:	05020300 	streq	r0, [r2, #-768]	; 0x300
    3d08:	00000235 	andeq	r0, r0, r5, lsr r2
    3d0c:	7c050403 	cfstrsvc	mvf0, [r5], {3}
    3d10:	03000000 	movweq	r0, #0
    3d14:	00770508 	rsbseq	r0, r7, r8, lsl #10
    3d18:	01030000 	mrseq	r0, (UNDEF: 3)
    3d1c:	00022708 	andeq	r2, r2, r8, lsl #14
    3d20:	07020300 	streq	r0, [r2, -r0, lsl #6]
    3d24:	0000017e 	andeq	r0, r0, lr, ror r1
    3d28:	48070403 	stmdami	r7, {r0, r1, sl}
    3d2c:	03000000 	movweq	r0, #0
    3d30:	00430708 	subeq	r0, r3, r8, lsl #14
    3d34:	04030000 	streq	r0, [r3], #-0
    3d38:	00021907 	andeq	r1, r2, r7, lsl #18
    3d3c:	08010300 	stmdaeq	r1, {r8, r9}
    3d40:	00000230 	andeq	r0, r0, r0, lsr r2
    3d44:	0c020104 	stfeqs	f0, [r2], {4}
    3d48:	000000b2 	strheq	r0, [r0], -r2
    3d4c:	0006ab05 	andeq	sl, r6, r5, lsl #22
    3d50:	87050000 	strhi	r0, [r5, -r0]
    3d54:	01000007 	tsteq	r0, r7
    3d58:	0007c005 	andeq	ip, r7, r5
    3d5c:	cf050400 	svcgt	0x00050400
    3d60:	05000007 	streq	r0, [r0, #-7]
    3d64:	0007de05 	andeq	sp, r7, r5, lsl #28
    3d68:	ed050600 	stc	6, cr0, [r5, #-0]
    3d6c:	07000007 	streq	r0, [r0, -r7]
    3d70:	0007fc05 	andeq	pc, r7, r5, lsl #24
    3d74:	0b050300 	bleq	14497c <__bss_end__+0x13a5ec>
    3d78:	02000008 	andeq	r0, r0, #8
    3d7c:	07b40600 	ldreq	r0, [r4, r0, lsl #12]!
    3d80:	15020000 	strne	r0, [r2, #-0]
    3d84:	00000079 	andeq	r0, r0, r9, ror r0
    3d88:	00097b07 	andeq	r7, r9, r7, lsl #22
    3d8c:	ec370100 	ldfs	f0, [r7], #-0
    3d90:	9c000099 	stcls	0, cr0, [r0], {153}	; 0x99
    3d94:	01000000 	mrseq	r0, (UNDEF: 0)
    3d98:	0001c39c 	muleq	r1, ip, r3
    3d9c:	99f40800 	ldmibls	r4!, {fp}^
    3da0:	03a80000 			; <UNDEFINED> instruction: 0x03a80000
    3da4:	00090000 	andeq	r0, r9, r0
    3da8:	af00009a 	svcge	0x0000009a
    3dac:	f3000003 	vhadd.u8	d0, d0, d3
    3db0:	0a000000 	beq	3db8 <_start-0x4248>
    3db4:	32015101 	andcc	r5, r1, #1073741824	; 0x40000000
    3db8:	0150010a 	cmpeq	r0, sl, lsl #2
    3dbc:	0c09003e 	stceq	0, cr0, [r9], {62}	; 0x3e
    3dc0:	af00009a 	svcge	0x0000009a
    3dc4:	0b000003 	bleq	3dd8 <_start-0x4228>
    3dc8:	0a000001 	beq	3dd4 <_start-0x422c>
    3dcc:	32015101 	andcc	r5, r1, #1073741824	; 0x40000000
    3dd0:	0150010a 	cmpeq	r0, sl, lsl #2
    3dd4:	1008003f 	andne	r0, r8, pc, lsr r0
    3dd8:	a800009a 	stmdage	r0, {r1, r3, r4, r7}
    3ddc:	09000003 	stmdbeq	r0, {r0, r1}
    3de0:	00009a20 	andeq	r9, r0, r0, lsr #20
    3de4:	000003c5 	andeq	r0, r0, r5, asr #7
    3de8:	00000128 	andeq	r0, r0, r8, lsr #2
    3dec:	0250010a 	subseq	r0, r0, #-2147483646	; 0x80000002
    3df0:	09000075 	stmdbeq	r0, {r0, r2, r4, r5, r6}
    3df4:	00009a2c 	andeq	r9, r0, ip, lsr #20
    3df8:	000003e6 	andeq	r0, r0, r6, ror #7
    3dfc:	0000013c 	andeq	r0, r0, ip, lsr r1
    3e00:	0250010a 	subseq	r0, r0, #-2147483646	; 0x80000002
    3e04:	08000075 	stmdaeq	r0, {r0, r2, r4, r5, r6}
    3e08:	00009a30 	andeq	r9, r0, r0, lsr sl
    3e0c:	000003a8 	andeq	r0, r0, r8, lsr #7
    3e10:	009a3c09 	addseq	r3, sl, r9, lsl #24
    3e14:	0003e600 	andeq	lr, r3, r0, lsl #12
    3e18:	00015800 	andeq	r5, r1, r0, lsl #16
    3e1c:	51010a00 	tstpl	r1, r0, lsl #20
    3e20:	09003001 	stmdbeq	r0, {r0, ip, sp}
    3e24:	00009a48 	andeq	r9, r0, r8, asr #20
    3e28:	000003e6 	andeq	r0, r0, r6, ror #7
    3e2c:	0000016b 	andeq	r0, r0, fp, ror #2
    3e30:	0151010a 	cmpeq	r1, sl, lsl #2
    3e34:	54090030 	strpl	r0, [r9], #-48	; 0x30
    3e38:	e600009a 			; <UNDEFINED> instruction: 0xe600009a
    3e3c:	7e000003 	cdpvc	0, 0, cr0, cr0, cr3, {0}
    3e40:	0a000001 	beq	3e4c <_start-0x41b4>
    3e44:	36015101 	strcc	r5, [r1], -r1, lsl #2
    3e48:	9a600900 	bls	1806250 <__bss_end__+0x17fbec0>
    3e4c:	03e60000 	mvneq	r0, #0
    3e50:	01910000 	orrseq	r0, r1, r0
    3e54:	010a0000 	mrseq	r0, (UNDEF: 10)
    3e58:	00330151 	eorseq	r0, r3, r1, asr r1
    3e5c:	009a6c09 	addseq	r6, sl, r9, lsl #24
    3e60:	0003e600 	andeq	lr, r3, r0, lsl #12
    3e64:	0001a600 	andeq	sl, r1, r0, lsl #12
    3e68:	51010a00 	tstpl	r1, r0, lsl #20
    3e6c:	010e0a03 	tsteq	lr, r3, lsl #20
    3e70:	9a780900 	bls	1e06278 <__bss_end__+0x1dfbee8>
    3e74:	03e60000 	mvneq	r0, #0
    3e78:	01b90000 			; <UNDEFINED> instruction: 0x01b90000
    3e7c:	010a0000 	mrseq	r0, (UNDEF: 10)
    3e80:	00330151 	eorseq	r0, r3, r1, asr r1
    3e84:	009a7c08 	addseq	r7, sl, r8, lsl #24
    3e88:	0003a800 	andeq	sl, r3, r0, lsl #16
    3e8c:	4f0b0000 	svcmi	0x000b0000
    3e90:	01000009 	tsteq	r0, r9
    3e94:	00002557 	andeq	r2, r0, r7, asr r5
    3e98:	009a8800 	addseq	r8, sl, r0, lsl #16
    3e9c:	00001c00 	andeq	r1, r0, r0, lsl #24
    3ea0:	e69c0100 	ldr	r0, [ip], r0, lsl #2
    3ea4:	08000001 	stmdaeq	r0, {r0}
    3ea8:	00009a98 	muleq	r0, r8, sl
    3eac:	000003c5 	andeq	r0, r0, r5, asr #7
    3eb0:	086c0b00 	stmdaeq	ip!, {r8, r9, fp}^
    3eb4:	5d010000 	stcpl	0, cr0, [r1, #-0]
    3eb8:	00000025 	andeq	r0, r0, r5, lsr #32
    3ebc:	00009aa4 	andeq	r9, r0, r4, lsr #21
    3ec0:	00000028 	andeq	r0, r0, r8, lsr #32
    3ec4:	02129c01 	andseq	r9, r2, #256	; 0x100
    3ec8:	ac080000 	stcge	0, cr0, [r8], {-0}
    3ecc:	c300009a 	movwgt	r0, #154	; 0x9a
    3ed0:	08000001 	stmdaeq	r0, {r0}
    3ed4:	00009ac0 	andeq	r9, r0, r0, asr #21
    3ed8:	000003c5 	andeq	r0, r0, r5, asr #7
    3edc:	09a30b00 	stmibeq	r3!, {r8, r9, fp}
    3ee0:	64010000 	strvs	r0, [r1], #-0
    3ee4:	00000025 	andeq	r0, r0, r5, lsr #32
    3ee8:	00009acc 	andeq	r9, r0, ip, asr #21
    3eec:	0000001c 	andeq	r0, r0, ip, lsl r0
    3ef0:	02359c01 	eorseq	r9, r5, #256	; 0x100
    3ef4:	dc080000 	stcle	0, cr0, [r8], {-0}
    3ef8:	c500009a 	strgt	r0, [r0, #-154]	; 0x9a
    3efc:	00000003 	andeq	r0, r0, r3
    3f00:	00053d07 	andeq	r3, r5, r7, lsl #26
    3f04:	e86a0100 	stmda	sl!, {r8}^
    3f08:	2c00009a 	stccs	0, cr0, [r0], {154}	; 0x9a
    3f0c:	01000000 	mrseq	r0, (UNDEF: 0)
    3f10:	0002719c 	muleq	r2, ip, r1
    3f14:	00630c00 	rsbeq	r0, r3, r0, lsl #24
    3f18:	002c6a01 	eoreq	r6, ip, r1, lsl #20
    3f1c:	29860000 	stmibcs	r6, {}	; <UNPREDICTABLE>
    3f20:	f4080000 	vst4.8	{d0-d3}, [r8], r0
    3f24:	1200009a 	andne	r0, r0, #154	; 0x9a
    3f28:	0d000002 	stceq	0, cr0, [r0, #-8]
    3f2c:	00009b0c 	andeq	r9, r0, ip, lsl #22
    3f30:	000003e6 	andeq	r0, r0, r6, ror #7
    3f34:	0251010a 	subseq	r0, r1, #-2147483646	; 0x80000002
    3f38:	00000074 	andeq	r0, r0, r4, ror r0
    3f3c:	00096d0b 	andeq	r6, r9, fp, lsl #26
    3f40:	25740100 	ldrbcs	r0, [r4, #-256]!	; 0x100
    3f44:	14000000 	strne	r0, [r0], #-0
    3f48:	0c00009b 	stceq	0, cr0, [r0], {155}	; 0x9b
    3f4c:	01000000 	mrseq	r0, (UNDEF: 0)
    3f50:	0002949c 	muleq	r2, ip, r4
    3f54:	9b1c0800 	blls	705f5c <__bss_end__+0x6fbbcc>
    3f58:	01c30000 	biceq	r0, r3, r0
    3f5c:	0b000000 	bleq	3f64 <_start-0x409c>
    3f60:	00000a20 	andeq	r0, r0, r0, lsr #20
    3f64:	00257801 	eoreq	r7, r5, r1, lsl #16
    3f68:	9b200000 	blls	803f70 <__bss_end__+0x7f9be0>
    3f6c:	00200000 	eoreq	r0, r0, r0
    3f70:	9c010000 	stcls	0, cr0, [r1], {-0}
    3f74:	000002c0 	andeq	r0, r0, r0, asr #5
    3f78:	009b2808 	addseq	r2, fp, r8, lsl #16
    3f7c:	00027100 	andeq	r7, r2, r0, lsl #2
    3f80:	9b340800 	blls	d05f88 <__bss_end__+0xcfbbf8>
    3f84:	01e60000 	mvneq	r0, r0
    3f88:	0e000000 	cdpeq	0, 0, cr0, cr0, cr0, {0}
    3f8c:	000009bd 			; <UNDEFINED> instruction: 0x000009bd
    3f90:	02d11601 	sbcseq	r1, r1, #1048576	; 0x100000
    3f94:	03050000 	movweq	r0, #20480	; 0x5000
    3f98:	00009cac 	andeq	r9, r0, ip, lsr #25
    3f9c:	02d7040f 	sbcseq	r0, r7, #251658240	; 0xf000000
    3fa0:	2c100000 	ldccs	0, cr0, [r0], {-0}
    3fa4:	0e000000 	cdpeq	0, 0, cr0, cr0, cr0, {0}
    3fa8:	000009b1 			; <UNDEFINED> instruction: 0x000009b1
    3fac:	02d11701 	sbcseq	r1, r1, #262144	; 0x40000
    3fb0:	03050000 	movweq	r0, #20480	; 0x5000
    3fb4:	00009c7c 	andeq	r9, r0, ip, ror ip
    3fb8:	0009320e 	andeq	r3, r9, lr, lsl #4
    3fbc:	d11a0100 	tstle	sl, r0, lsl #2
    3fc0:	05000002 	streq	r0, [r0, #-2]
    3fc4:	009c9803 	addseq	r9, ip, r3, lsl #16
    3fc8:	09850e00 	stmibeq	r5, {r9, sl, fp}
    3fcc:	1b010000 	blne	43fd4 <__bss_end__+0x39c44>
    3fd0:	000002d1 	ldrdeq	r0, [r0], -r1
    3fd4:	9c840305 	stcls	3, cr0, [r4], {5}
    3fd8:	940e0000 	strls	r0, [lr], #-0
    3fdc:	01000009 	tsteq	r0, r9
    3fe0:	0002d11c 	andeq	sp, r2, ip, lsl r1
    3fe4:	88030500 	stmdahi	r3, {r8, sl}
    3fe8:	0e00009c 	mcreq	0, 0, r0, cr0, cr12, {4}
    3fec:	00000a02 	andeq	r0, r0, r2, lsl #20
    3ff0:	02d11d01 	sbcseq	r1, r1, #1, 26	; 0x40
    3ff4:	03050000 	movweq	r0, #20480	; 0x5000
    3ff8:	00009c8c 	andeq	r9, r0, ip, lsl #25
    3ffc:	0009230e 	andeq	r2, r9, lr, lsl #6
    4000:	d11e0100 	tstle	lr, r0, lsl #2
    4004:	05000002 	streq	r0, [r0, #-2]
    4008:	009ca803 	addseq	sl, ip, r3, lsl #16
    400c:	0a110e00 	beq	447814 <__bss_end__+0x43d484>
    4010:	1f010000 	svcne	0x00010000
    4014:	000002d1 	ldrdeq	r0, [r0], -r1
    4018:	9c940305 	ldcls	3, cr0, [r4], {5}
    401c:	400e0000 	andmi	r0, lr, r0
    4020:	01000009 	tsteq	r0, r9
    4024:	0002d120 	andeq	sp, r2, r0, lsr #2
    4028:	a4030500 	strge	r0, [r3], #-1280	; 0x500
    402c:	0e00009c 	mcreq	0, 0, r0, cr0, cr12, {4}
    4030:	000009e5 	andeq	r0, r0, r5, ror #19
    4034:	02d12101 	sbcseq	r2, r1, #1073741824	; 0x40000000
    4038:	03050000 	movweq	r0, #20480	; 0x5000
    403c:	00009ca0 	andeq	r9, r0, r0, lsr #25
    4040:	00095d0e 	andeq	r5, r9, lr, lsl #26
    4044:	d1220100 	teqle	r2, r0, lsl #2
    4048:	05000002 	streq	r0, [r0, #-2]
    404c:	009c8003 	addseq	r8, ip, r3
    4050:	09d50e00 	ldmibeq	r5, {r9, sl, fp}^
    4054:	23010000 	movwcs	r0, #4096	; 0x1000
    4058:	000002d1 	ldrdeq	r0, [r0], -r1
    405c:	9c9c0305 	ldcls	3, cr0, [ip], {5}
    4060:	c50e0000 	strgt	r0, [lr, #-0]
    4064:	01000009 	tsteq	r0, r9
    4068:	0002d124 	andeq	sp, r2, r4, lsr #2
    406c:	90030500 	andls	r0, r3, r0, lsl #10
    4070:	1100009c 	swpne	r0, ip, [r0]	; <UNPREDICTABLE>
    4074:	000006e4 	andeq	r0, r0, r4, ror #13
    4078:	05128a03 	ldreq	r8, [r2, #-2563]	; 0xa03
    407c:	02000007 	andeq	r0, r0, #7
    4080:	0003c519 	andeq	ip, r3, r9, lsl r5
    4084:	002c1300 	eoreq	r1, ip, r0, lsl #6
    4088:	b2130000 	andslt	r0, r3, #0
    408c:	00000000 	andeq	r0, r0, r0
    4090:	00079814 	andeq	r9, r7, r4, lsl r8
    4094:	2ca90300 	stccs	3, cr0, [r9]
    4098:	da000000 	ble	40a0 <_start-0x3f60>
    409c:	13000003 	movwne	r0, #3
    40a0:	000003da 	ldrdeq	r0, [r0], -sl
    40a4:	e0040f00 	and	r0, r4, r0, lsl #30
    40a8:	15000003 	strne	r0, [r0, #-3]
    40ac:	000003e5 	andeq	r0, r0, r5, ror #7
    40b0:	068b1216 	pkhbteq	r1, fp, r6, lsl #4
    40b4:	9d030000 	stcls	0, cr0, [r3, #-0]
    40b8:	000003fc 	strdeq	r0, [r0], -ip
    40bc:	0003fc13 	andeq	pc, r3, r3, lsl ip	; <UNPREDICTABLE>
    40c0:	002c1300 	eoreq	r1, ip, r0, lsl #6
    40c4:	0f000000 	svceq	0x00000000
    40c8:	0003e504 	andeq	lr, r3, r4, lsl #10
    40cc:	01c30000 	biceq	r0, r3, r0
    40d0:	00040000 	andeq	r0, r4, r0
    40d4:	00001175 	andeq	r1, r0, r5, ror r1
    40d8:	02eb0104 	rsceq	r0, fp, #4, 2
    40dc:	45010000 	strmi	r0, [r1, #-0]
    40e0:	5600000a 	strpl	r0, [r0], -sl
    40e4:	a4000003 	strge	r0, [r0], #-3
    40e8:	5000009b 	mulpl	r0, fp, r0
    40ec:	08000000 	stmdaeq	r0, {}	; <UNPREDICTABLE>
    40f0:	02000010 	andeq	r0, r0, #16
    40f4:	6e690504 	cdpvs	5, 6, cr0, cr9, cr4, {0}
    40f8:	30030074 	andcc	r0, r3, r4, ror r0
    40fc:	0200000a 	andeq	r0, r0, #10
    4100:	000037d4 	ldrdeq	r3, [r0], -r4
    4104:	07040400 	streq	r0, [r4, -r0, lsl #8]
    4108:	0000004d 	andeq	r0, r0, sp, asr #32
    410c:	29060104 	stmdbcs	r6, {r2, r8}
    4110:	04000002 	streq	r0, [r0], #-2
    4114:	02350502 	eorseq	r0, r5, #8388608	; 0x800000
    4118:	04040000 	streq	r0, [r4], #-0
    411c:	00007c05 	andeq	r7, r0, r5, lsl #24
    4120:	05080400 	streq	r0, [r8, #-1024]	; 0x400
    4124:	00000077 	andeq	r0, r0, r7, ror r0
    4128:	0002aa03 	andeq	sl, r2, r3, lsl #20
    412c:	652e0300 	strvs	r0, [lr, #-768]!	; 0x300
    4130:	04000000 	streq	r0, [r0], #-0
    4134:	02270801 	eoreq	r0, r7, #65536	; 0x10000
    4138:	02040000 	andeq	r0, r4, #0
    413c:	00017e07 	andeq	r7, r1, r7, lsl #28
    4140:	05960300 	ldreq	r0, [r6, #768]	; 0x300
    4144:	34030000 	strcc	r0, [r3], #-0
    4148:	0000007e 	andeq	r0, r0, lr, ror r0
    414c:	48070404 	stmdami	r7, {r2, sl}
    4150:	04000000 	streq	r0, [r0], #-0
    4154:	00430708 	subeq	r0, r3, r8, lsl #14
    4158:	04040000 	streq	r0, [r4], #-0
    415c:	00021907 	andeq	r1, r2, r7, lsl #18
    4160:	04040500 	streq	r0, [r4], #-1280	; 0x500
    4164:	02300801 	eorseq	r0, r0, #65536	; 0x10000
    4168:	0c060000 	stceq	0, cr0, [r6], {-0}
    416c:	00d30e04 	sbcseq	r0, r3, r4, lsl #28
    4170:	74070000 	strvc	r0, [r7], #-0
    4174:	0f040078 	svceq	0x00040078
    4178:	0000005a 	andeq	r0, r0, sl, asr r0
    417c:	78720700 	ldmdavc	r2!, {r8, r9, sl}^
    4180:	5a0f0400 	bpl	3c5188 <__bss_end__+0x3badf8>
    4184:	01000000 	mrseq	r0, (UNDEF: 0)
    4188:	00051508 	andeq	r1, r5, r8, lsl #10
    418c:	73100400 	tstvc	r0, #0, 8
    4190:	04000000 	streq	r0, [r0], #-0
    4194:	0004c608 	andeq	ip, r4, r8, lsl #12
    4198:	73110400 	tstvc	r1, #0, 8
    419c:	08000000 	stmdaeq	r0, {}	; <UNPREDICTABLE>
    41a0:	04fe0300 	ldrbteq	r0, [lr], #768	; 0x300
    41a4:	12040000 	andne	r0, r4, #0
    41a8:	0000009c 	muleq	r0, ip, r0
    41ac:	10050109 	andne	r0, r5, r9, lsl #2
    41b0:	000000f9 	strdeq	r0, [r0], -r9
    41b4:	00051a0a 	andeq	r1, r5, sl, lsl #20
    41b8:	080a0100 	stmdaeq	sl, {r8}
    41bc:	02000005 	andeq	r0, r0, #5
    41c0:	0004f00a 	andeq	pc, r4, sl
    41c4:	03000300 	movweq	r0, #768	; 0x300
    41c8:	0000052f 	andeq	r0, r0, pc, lsr #10
    41cc:	00de1005 	sbcseq	r1, lr, r5
    41d0:	14060000 	strne	r0, [r6], #-0
    41d4:	01311405 	teqeq	r1, r5, lsl #8
    41d8:	9f080000 	svcls	0x00080000
    41dc:	05000005 	streq	r0, [r0, #-5]
    41e0:	00003715 	andeq	r3, r0, r5, lsl r7
    41e4:	8a080000 	bhi	2041ec <__bss_end__+0x1f9e5c>
    41e8:	05000005 	streq	r0, [r0, #-5]
    41ec:	0000f918 	andeq	pc, r0, r8, lsl r9	; <UNPREDICTABLE>
    41f0:	55080400 	strpl	r0, [r8, #-1024]	; 0x400
    41f4:	05000005 	streq	r0, [r0, #-5]
    41f8:	0000d31b 	andeq	sp, r0, fp, lsl r3
    41fc:	03000800 	movweq	r0, #2048	; 0x800
    4200:	00000547 	andeq	r0, r0, r7, asr #10
    4204:	01042005 	tsteq	r4, r5
    4208:	3e0b0000 	cdpcc	0, 0, cr0, cr11, cr0, {0}
    420c:	0100000a 	tsteq	r0, sl
    4210:	00017e05 	andeq	r7, r1, r5, lsl #28
    4214:	009ba400 	addseq	sl, fp, r0, lsl #8
    4218:	00002800 	andeq	r2, r0, r0, lsl #16
    421c:	7e9c0100 	fmlvce	f0, f4, f0
    4220:	0c000001 	stceq	0, cr0, [r0], {1}
    4224:	06010063 	streq	r0, [r1], -r3, rrx
    4228:	0000017e 	andeq	r0, r0, lr, ror r1
    422c:	09000000 	stmdbeq	r0, {}	; <UNPREDICTABLE>
    4230:	009bb80d 	addseq	fp, fp, sp, lsl #16
    4234:	0001ab00 	andeq	sl, r1, r0, lsl #22
    4238:	52010e00 	andpl	r0, r1, #0, 28
    423c:	010e3401 	tsteq	lr, r1, lsl #8
    4240:	0e300151 	mrceq	1, 1, r0, cr0, cr1, {2}
    4244:	42035001 	andmi	r5, r3, #1
    4248:	00002447 	andeq	r2, r0, r7, asr #8
    424c:	0131040f 	teqeq	r1, pc, lsl #8
    4250:	5d0b0000 	stcpl	0, cr0, [fp, #-0]
    4254:	01000005 	tsteq	r0, r5
    4258:	00017e0c 	andeq	r7, r1, ip, lsl #28
    425c:	009bcc00 	addseq	ip, fp, r0, lsl #24
    4260:	00002800 	andeq	r2, r0, r0, lsl #16
    4264:	ab9c0100 	blge	fe70466c <__bss_end__+0xfe6fa2dc>
    4268:	0c000001 	stceq	0, cr0, [r0], {1}
    426c:	0d010063 	stceq	0, cr0, [r1, #-396]	; 0xfffffe74
    4270:	0000017e 	andeq	r0, r0, lr, ror r1
    4274:	09000000 	stmdbeq	r0, {}	; <UNPREDICTABLE>
    4278:	0a371000 	beq	dc8280 <__bss_end__+0xdbdef0>
    427c:	1b060000 	blne	184284 <__bss_end__+0x179ef4>
    4280:	00000093 	muleq	r0, r3, r0
    4284:	00009311 	andeq	r9, r0, r1, lsl r3
    4288:	00251100 	eoreq	r1, r5, r0, lsl #2
    428c:	2c110000 	ldccs	0, cr0, [r1], {-0}
    4290:	00000000 	andeq	r0, r0, r0
    4294:	0000db00 	andeq	sp, r0, r0, lsl #22
    4298:	59000400 	stmdbpl	r0, {sl}
    429c:	04000012 	streq	r0, [r0], #-18
    42a0:	0002eb01 	andeq	lr, r2, r1, lsl #22
    42a4:	0a600100 	beq	18046ac <__bss_end__+0x17fa31c>
    42a8:	03560000 	cmpeq	r6, #0
    42ac:	9bf40000 	blls	ffd042b4 <__bss_end__+0xffcf9f24>
    42b0:	00200000 	eoreq	r0, r0, r0
    42b4:	11340000 	teqne	r4, r0
    42b8:	01020000 	mrseq	r0, (UNDEF: 2)
    42bc:	00022906 	andeq	r2, r2, r6, lsl #18
    42c0:	08010200 	stmdaeq	r1, {r9}
    42c4:	00000227 	andeq	r0, r0, r7, lsr #4
    42c8:	35050202 	strcc	r0, [r5, #-514]	; 0x202
    42cc:	02000002 	andeq	r0, r0, #2
    42d0:	017e0702 	cmneq	lr, r2, lsl #14
    42d4:	04030000 	streq	r0, [r3], #-0
    42d8:	746e6905 	strbtvc	r6, [lr], #-2309	; 0x905
    42dc:	07040200 	streq	r0, [r4, -r0, lsl #4]
    42e0:	0000004d 	andeq	r0, r0, sp, asr #32
    42e4:	77050802 	strvc	r0, [r5, -r2, lsl #16]
    42e8:	02000000 	andeq	r0, r0, #0
    42ec:	00430708 	subeq	r0, r3, r8, lsl #14
    42f0:	04020000 	streq	r0, [r2], #-0
    42f4:	00007c05 	andeq	r7, r0, r5, lsl #24
    42f8:	07040200 	streq	r0, [r4, -r0, lsl #4]
    42fc:	00000219 	andeq	r0, r0, r9, lsl r2
    4300:	04020404 	streq	r0, [r2], #-1028	; 0x404
    4304:	00004807 	andeq	r4, r0, r7, lsl #16
    4308:	7a040500 	bvc	105710 <__bss_end__+0xfb380>
    430c:	02000000 	andeq	r0, r0, #0
    4310:	02300801 	eorseq	r0, r0, #65536	; 0x10000
    4314:	30060000 	andcc	r0, r6, r0
    4318:	0200000a 	andeq	r0, r0, #10
    431c:	000048d4 	ldrdeq	r4, [r0], -r4	; <UNPREDICTABLE>
    4320:	0a370700 	beq	dc5f28 <__bss_end__+0xdbbb98>
    4324:	1b030000 	blne	c432c <__bss_end__+0xb9f9c>
    4328:	0000006b 	andeq	r0, r0, fp, rrx
    432c:	00009bf4 	strdeq	r9, [r0], -r4
    4330:	00000020 	andeq	r0, r0, r0, lsr #32
    4334:	5f089c01 	svcpl	0x00089c01
    4338:	03010070 	movweq	r0, #4208	; 0x1070
    433c:	0000006b 	andeq	r0, r0, fp, rrx
    4340:	63085001 	movwvs	r5, #32769	; 0x8001
    4344:	41030100 	mrsmi	r0, (UNDEF: 19)
    4348:	01000000 	mrseq	r0, (UNDEF: 0)
    434c:	006e0951 	rsbeq	r0, lr, r1, asr r9
    4350:	00810301 	addeq	r0, r1, r1, lsl #6
    4354:	29a40000 	stmibcs	r4!, {}	; <UNPREDICTABLE>
    4358:	700a0000 	andvc	r0, sl, r0
    435c:	74040100 	strvc	r0, [r4], #-256	; 0x100
    4360:	c5000000 	strgt	r0, [r0, #-0]
    4364:	0b000029 	bleq	4410 <_start-0x3bf0>
    4368:	04010065 	streq	r0, [r1], #-101	; 0x65
    436c:	00000074 	andeq	r0, r0, r4, ror r0
    4370:	00005201 	andeq	r5, r0, r1, lsl #4

Disassembly of section .debug_abbrev:

00000000 <.debug_abbrev>:
       0:	25011101 	strcs	r1, [r1, #-257]	; 0x101
       4:	030b130e 	movweq	r1, #45838	; 0xb30e
       8:	110e1b0e 	tstne	lr, lr, lsl #22
       c:	10061201 	andne	r1, r6, r1, lsl #4
      10:	02000017 	andeq	r0, r0, #23
      14:	0b0b0024 	bleq	2c00ac <__bss_end__+0x2b5d1c>
      18:	08030b3e 	stmdaeq	r3, {r1, r2, r3, r4, r5, r8, r9, fp}
      1c:	24030000 	strcs	r0, [r3], #-0
      20:	3e0b0b00 	vmlacc.f64	d0, d11, d0
      24:	000e030b 	andeq	r0, lr, fp, lsl #6
      28:	00160400 	andseq	r0, r6, r0, lsl #8
      2c:	0b3a0e03 	bleq	e83840 <__bss_end__+0xe794b0>
      30:	13490b3b 	movtne	r0, #39739	; 0x9b3b
      34:	0f050000 	svceq	0x00050000
      38:	490b0b00 	stmdbmi	fp, {r8, r9, fp}
      3c:	06000013 			; <UNDEFINED> instruction: 0x06000013
      40:	13490026 	movtne	r0, #36902	; 0x9026
      44:	2e070000 	cdpcs	0, 0, cr0, cr7, cr0, {0}
      48:	3a0e0301 	bcc	380c54 <__bss_end__+0x3768c4>
      4c:	270b3b0b 	strcs	r3, [fp, -fp, lsl #22]
      50:	010b2019 	tsteq	fp, r9, lsl r0
      54:	08000013 	stmdaeq	r0, {r0, r1, r4}
      58:	08030005 	stmdaeq	r3, {r0, r2}
      5c:	0b3b0b3a 	bleq	ec2d4c <__bss_end__+0xeb89bc>
      60:	00001349 	andeq	r1, r0, r9, asr #6
      64:	03003409 	movweq	r3, #1033	; 0x409
      68:	3b0b3a0e 	blcc	2ce8a8 <__bss_end__+0x2c4518>
      6c:	0013490b 	andseq	r4, r3, fp, lsl #18
      70:	010b0a00 	tsteq	fp, r0, lsl #20
      74:	340b0000 	strcc	r0, [fp], #-0
      78:	3a080300 	bcc	200c80 <__bss_end__+0x1f68f0>
      7c:	490b3b0b 	stmdbmi	fp, {r0, r1, r3, r8, r9, fp, ip, sp}
      80:	0c000013 	stceq	0, cr0, [r0], {19}
      84:	193f012e 	ldmdbne	pc!, {r1, r2, r3, r5, r8}	; <UNPREDICTABLE>
      88:	0b3a0e03 	bleq	e8389c <__bss_end__+0xe7950c>
      8c:	19270b3b 	stmdbne	r7!, {r0, r1, r3, r4, r5, r8, r9, fp}
      90:	01111349 	tsteq	r1, r9, asr #6
      94:	18400612 	stmdane	r0, {r1, r4, r9, sl}^
      98:	01194297 			; <UNDEFINED> instruction: 0x01194297
      9c:	0d000013 	stceq	0, cr0, [r0, #-76]	; 0xffffffb4
      a0:	08030005 	stmdaeq	r3, {r0, r2}
      a4:	0b3b0b3a 	bleq	ec2d94 <__bss_end__+0xeb8a04>
      a8:	17021349 	strne	r1, [r2, -r9, asr #6]
      ac:	340e0000 	strcc	r0, [lr], #-0
      b0:	490e0300 	stmdbmi	lr, {r8, r9}
      b4:	02193413 	andseq	r3, r9, #318767104	; 0x13000000
      b8:	0f000018 	svceq	0x00000018
      bc:	0e030034 	mcreq	0, 0, r0, cr3, cr4, {1}
      c0:	0b3b0b3a 	bleq	ec2db0 <__bss_end__+0xeb8a20>
      c4:	17021349 	strne	r1, [r2, -r9, asr #6]
      c8:	0b100000 	bleq	4000d0 <__bss_end__+0x3f5d40>
      cc:	12011101 	andne	r1, r1, #1073741824	; 0x40000000
      d0:	00130106 	andseq	r0, r3, r6, lsl #2
      d4:	82891100 	addhi	r1, r9, #0, 2
      d8:	01110101 	tsteq	r1, r1, lsl #2
      dc:	13011331 	movwne	r1, #4913	; 0x1331
      e0:	8a120000 	bhi	4800e8 <__bss_end__+0x475d58>
      e4:	02000182 	andeq	r0, r0, #-2147483616	; 0x80000020
      e8:	18429118 	stmdane	r2, {r3, r4, r8, ip, pc}^
      ec:	89130000 	ldmdbhi	r3, {}	; <UNPREDICTABLE>
      f0:	11000182 	smlabbne	r0, r2, r1, r0
      f4:	00133101 	andseq	r3, r3, r1, lsl #2
      f8:	01011400 	tsteq	r1, r0, lsl #8
      fc:	13011349 	movwne	r1, #4937	; 0x1349
     100:	21150000 	tstcs	r5, r0
     104:	2f134900 	svccs	0x00134900
     108:	1600000b 	strne	r0, [r0], -fp
     10c:	08030034 	stmdaeq	r3, {r2, r4, r5}
     110:	0b3b0b3a 	bleq	ec2e00 <__bss_end__+0xeb8a70>
     114:	0b1c1349 	bleq	704e40 <__bss_end__+0x6faab0>
     118:	34170000 	ldrcc	r0, [r7], #-0
     11c:	3a0e0300 	bcc	380d24 <__bss_end__+0x376994>
     120:	490b3b0b 	stmdbmi	fp, {r0, r1, r3, r8, r9, fp, ip, sp}
     124:	00180213 	andseq	r0, r8, r3, lsl r2
     128:	010b1800 	tsteq	fp, r0, lsl #16
     12c:	06120111 			; <UNDEFINED> instruction: 0x06120111
     130:	2e190000 	cdpcs	0, 1, cr0, cr9, cr0, {0}
     134:	03193f01 	tsteq	r9, #1, 30
     138:	3b0b3a0e 	blcc	2ce978 <__bss_end__+0x2c45e8>
     13c:	4919270b 	ldmdbmi	r9, {r0, r1, r3, r8, r9, sl, sp}
     140:	010b2013 	tsteq	fp, r3, lsl r0
     144:	1a000013 	bne	198 <_start-0x7e68>
     148:	1331012e 	teqne	r1, #-2147483637	; 0x8000000b
     14c:	06120111 			; <UNDEFINED> instruction: 0x06120111
     150:	42971840 	addsmi	r1, r7, #64, 16	; 0x400000
     154:	00130119 	andseq	r0, r3, r9, lsl r1
     158:	00051b00 	andeq	r1, r5, r0, lsl #22
     15c:	17021331 	smladxne	r2, r1, r3, r1
     160:	341c0000 	ldrcc	r0, [ip], #-0
     164:	02133100 	andseq	r3, r3, #0, 2
     168:	1d000017 	stcne	0, cr0, [r0, #-92]	; 0xffffffa4
     16c:	01018289 	smlabbeq	r1, r9, r2, r8
     170:	13310111 	teqne	r1, #1073741828	; 0x40000004
     174:	2e1e0000 	cdpcs	0, 1, cr0, cr14, cr0, {0}
     178:	03193f01 	tsteq	r9, #1, 30
     17c:	3b0b3a0e 	blcc	2ce9bc <__bss_end__+0x2c462c>
     180:	1119270b 	tstne	r9, fp, lsl #14
     184:	40061201 	andmi	r1, r6, r1, lsl #4
     188:	19429718 	stmdbne	r2, {r3, r4, r8, r9, sl, ip, pc}^
     18c:	00001301 	andeq	r1, r0, r1, lsl #6
     190:	0300051f 	movweq	r0, #1311	; 0x51f
     194:	3b0b3a0e 	blcc	2ce9d4 <__bss_end__+0x2c4644>
     198:	0213490b 	andseq	r4, r3, #180224	; 0x2c000
     19c:	20000017 	andcs	r0, r0, r7, lsl r0
     1a0:	1331011d 	teqne	r1, #1073741831	; 0x40000007
     1a4:	06120111 			; <UNDEFINED> instruction: 0x06120111
     1a8:	0b590b58 	bleq	1642f10 <__bss_end__+0x1638b80>
     1ac:	00001301 	andeq	r1, r0, r1, lsl #6
     1b0:	31000521 	tstcc	r0, r1, lsr #10
     1b4:	000b1c13 	andeq	r1, fp, r3, lsl ip
     1b8:	011d2200 	tsteq	sp, r0, lsl #4
     1bc:	01111331 	tsteq	r1, r1, lsr r3
     1c0:	0b580612 	bleq	1601a10 <__bss_end__+0x15f7680>
     1c4:	00000b59 	andeq	r0, r0, r9, asr fp
     1c8:	31000523 	tstcc	r0, r3, lsr #10
     1cc:	00180213 	andseq	r0, r8, r3, lsl r2
     1d0:	010b2400 	tsteq	fp, r0, lsl #8
     1d4:	13011755 	movwne	r1, #5973	; 0x1755
     1d8:	1d250000 	stcne	0, cr0, [r5, #-0]
     1dc:	52133101 	andspl	r3, r3, #1073741824	; 0x40000000
     1e0:	58175501 	ldmdapl	r7, {r0, r8, sl, ip, lr}
     1e4:	000b590b 	andeq	r5, fp, fp, lsl #18
     1e8:	011d2600 	tsteq	sp, r0, lsl #12
     1ec:	01521331 	cmpeq	r2, r1, lsr r3
     1f0:	0b581755 	bleq	1605f4c <__bss_end__+0x15fbbbc>
     1f4:	13010b59 	movwne	r0, #7001	; 0x1b59
     1f8:	0b270000 	bleq	9c0200 <__bss_end__+0x9b5e70>
     1fc:	00175501 	andseq	r5, r7, r1, lsl #10
     200:	00342800 	eorseq	r2, r4, r0, lsl #16
     204:	0b3a0e03 	bleq	e83a18 <__bss_end__+0xe79688>
     208:	13490b3b 	movtne	r0, #39739	; 0x9b3b
     20c:	0000061c 	andeq	r0, r0, ip, lsl r6
     210:	49003529 	stmdbmi	r0, {r0, r3, r5, r8, sl, ip, sp}
     214:	2a000013 	bcs	268 <_start-0x7d98>
     218:	193f012e 	ldmdbne	pc!, {r1, r2, r3, r5, r8}	; <UNPREDICTABLE>
     21c:	0b3a0e03 	bleq	e83a30 <__bss_end__+0xe796a0>
     220:	19270b3b 	stmdbne	r7!, {r0, r1, r3, r4, r5, r8, r9, fp}
     224:	1301193c 	movwne	r1, #6460	; 0x193c
     228:	052b0000 	streq	r0, [fp, #-0]!
     22c:	00134900 	andseq	r4, r3, r0, lsl #18
     230:	002e2c00 	eoreq	r2, lr, r0, lsl #24
     234:	0e03193f 	mcreq	9, 0, r1, cr3, cr15, {1}
     238:	0b3b0b3a 	bleq	ec2f28 <__bss_end__+0xeb8b98>
     23c:	193c1927 	ldmdbne	ip!, {r0, r1, r2, r5, r8, fp, ip}
     240:	2e2d0000 	cdpcs	0, 2, cr0, cr13, cr0, {0}
     244:	03193f01 	tsteq	r9, #1, 30
     248:	3b0b3a0e 	blcc	2cea88 <__bss_end__+0x2c46f8>
     24c:	4919270b 	ldmdbmi	r9, {r0, r1, r3, r8, r9, sl, sp}
     250:	01193c13 	tsteq	r9, r3, lsl ip
     254:	2e000013 	mcrcs	0, 0, r0, cr0, cr3, {0}
     258:	00000018 	andeq	r0, r0, r8, lsl r0
     25c:	3f012e2f 	svccc	0x00012e2f
     260:	3a0e0319 	bcc	380ecc <__bss_end__+0x376b3c>
     264:	270b3b0b 	strcs	r3, [fp, -fp, lsl #22]
     268:	3c134919 	ldccc	9, cr4, [r3], {25}
     26c:	00000019 	andeq	r0, r0, r9, lsl r0
     270:	25011101 	strcs	r1, [r1, #-257]	; 0x101
     274:	030b130e 	movweq	r1, #45838	; 0xb30e
     278:	110e1b0e 	tstne	lr, lr, lsl #22
     27c:	10061201 	andne	r1, r6, r1, lsl #4
     280:	02000017 	andeq	r0, r0, #23
     284:	0e030016 	mcreq	0, 0, r0, cr3, cr6, {0}
     288:	0b3b0b3a 	bleq	ec2f78 <__bss_end__+0xeb8be8>
     28c:	00001349 	andeq	r1, r0, r9, asr #6
     290:	03011303 	movweq	r1, #4867	; 0x1303
     294:	3a0b0b0e 	bcc	2c2ed4 <__bss_end__+0x2b8b44>
     298:	010b3b0b 	tsteq	fp, fp, lsl #22
     29c:	04000013 	streq	r0, [r0], #-19
     2a0:	0e03000d 	cdpeq	0, 0, cr0, cr3, cr13, {0}
     2a4:	0b381349 	bleq	e04fd0 <__bss_end__+0xdfac40>
     2a8:	00001934 	andeq	r1, r0, r4, lsr r9
     2ac:	0b000f05 	bleq	3ec8 <_start-0x4138>
     2b0:	0600000b 	streq	r0, [r0], -fp
     2b4:	0b0b0024 	bleq	2c034c <__bss_end__+0x2b5fbc>
     2b8:	08030b3e 	stmdaeq	r3, {r1, r2, r3, r4, r5, r8, r9, fp}
     2bc:	24070000 	strcs	r0, [r7], #-0
     2c0:	3e0b0b00 	vmlacc.f64	d0, d11, d0
     2c4:	000e030b 	andeq	r0, lr, fp, lsl #6
     2c8:	000f0800 	andeq	r0, pc, r0, lsl #16
     2cc:	13490b0b 	movtne	r0, #39691	; 0x9b0b
     2d0:	26090000 	strcs	r0, [r9], -r0
     2d4:	00134900 	andseq	r4, r3, r0, lsl #18
     2d8:	012e0a00 	teqeq	lr, r0, lsl #20
     2dc:	0e03193f 	mcreq	9, 0, r1, cr3, cr15, {1}
     2e0:	0b3b0b3a 	bleq	ec2fd0 <__bss_end__+0xeb8c40>
     2e4:	13491927 	movtne	r1, #39207	; 0x9927
     2e8:	06120111 			; <UNDEFINED> instruction: 0x06120111
     2ec:	42971840 	addsmi	r1, r7, #64, 16	; 0x400000
     2f0:	00130119 	andseq	r0, r3, r9, lsl r1
     2f4:	00050b00 	andeq	r0, r5, r0, lsl #22
     2f8:	0b3a0803 	bleq	e8230c <__bss_end__+0xe77f7c>
     2fc:	13490b3b 	movtne	r0, #39739	; 0x9b3b
     300:	00001802 	andeq	r1, r0, r2, lsl #16
     304:	0000180c 	andeq	r1, r0, ip, lsl #16
     308:	00340d00 	eorseq	r0, r4, r0, lsl #26
     30c:	0b3a0803 	bleq	e82320 <__bss_end__+0xe77f90>
     310:	13490b3b 	movtne	r0, #39739	; 0x9b3b
     314:	00001802 	andeq	r1, r0, r2, lsl #16
     318:	0300340e 	movweq	r3, #1038	; 0x40e
     31c:	3b0b3a0e 	blcc	2ceb5c <__bss_end__+0x2c47cc>
     320:	0213490b 	andseq	r4, r3, #180224	; 0x2c000
     324:	0f000018 	svceq	0x00000018
     328:	08030034 	stmdaeq	r3, {r2, r4, r5}
     32c:	0b3b0b3a 	bleq	ec301c <__bss_end__+0xeb8c8c>
     330:	17021349 	strne	r1, [r2, -r9, asr #6]
     334:	89100000 	ldmdbhi	r0, {}	; <UNPREDICTABLE>
     338:	11010182 	smlabbne	r1, r2, r1, r0
     33c:	01133101 	tsteq	r3, r1, lsl #2
     340:	11000013 	tstne	r0, r3, lsl r0
     344:	0001828a 	andeq	r8, r1, sl, lsl #5
     348:	42911802 	addsmi	r1, r1, #131072	; 0x20000
     34c:	12000018 	andne	r0, r0, #24
     350:	01018289 	smlabbeq	r1, r9, r2, r8
     354:	00000111 	andeq	r0, r0, r1, lsl r1
     358:	49010113 	stmdbmi	r1, {r0, r1, r4, r8}
     35c:	00130113 	andseq	r0, r3, r3, lsl r1
     360:	00211400 	eoreq	r1, r1, r0, lsl #8
     364:	052f1349 	streq	r1, [pc, #-841]!	; 23 <_start-0x7fdd>
     368:	15150000 	ldrne	r0, [r5, #-0]
     36c:	49192701 	ldmdbmi	r9, {r0, r8, r9, sl, sp}
     370:	00130113 	andseq	r0, r3, r3, lsl r1
     374:	00051600 	andeq	r1, r5, r0, lsl #12
     378:	00001349 	andeq	r1, r0, r9, asr #6
     37c:	03003417 	movweq	r3, #1047	; 0x417
     380:	3b0b3a0e 	blcc	2cebc0 <__bss_end__+0x2c4830>
     384:	3f13490b 	svccc	0x0013490b
     388:	00193c19 	andseq	r3, r9, r9, lsl ip
     38c:	012e1800 	teqeq	lr, r0, lsl #16
     390:	0e03193f 	mcreq	9, 0, r1, cr3, cr15, {1}
     394:	0b3b0b3a 	bleq	ec3084 <__bss_end__+0xeb8cf4>
     398:	13491927 	movtne	r1, #39207	; 0x9927
     39c:	0000193c 	andeq	r1, r0, ip, lsr r9
     3a0:	01110100 	tsteq	r1, r0, lsl #2
     3a4:	0b130e25 	bleq	4c3c40 <__bss_end__+0x4b98b0>
     3a8:	0e1b0e03 	cdpeq	14, 1, cr0, cr11, cr3, {0}
     3ac:	06120111 			; <UNDEFINED> instruction: 0x06120111
     3b0:	00001710 	andeq	r1, r0, r0, lsl r7
     3b4:	0b002402 	bleq	93c4 <sw_uart_putc+0x40>
     3b8:	030b3e0b 	movweq	r3, #48651	; 0xbe0b
     3bc:	03000008 	movweq	r0, #8
     3c0:	0b0b0024 	bleq	2c0458 <__bss_end__+0x2b60c8>
     3c4:	0e030b3e 	vmoveq.16	d3[0], r0
     3c8:	2e040000 	cdpcs	0, 0, cr0, cr4, cr0, {0}
     3cc:	3a0e0301 	bcc	380fd8 <__bss_end__+0x376c48>
     3d0:	270b3b0b 	strcs	r3, [fp, -fp, lsl #22]
     3d4:	11134919 	tstne	r3, r9, lsl r9
     3d8:	40061201 	andmi	r1, r6, r1, lsl #4
     3dc:	19429718 	stmdbne	r2, {r3, r4, r8, r9, sl, ip, pc}^
     3e0:	00001301 	andeq	r1, r0, r1, lsl #6
     3e4:	03000505 	movweq	r0, #1285	; 0x505
     3e8:	3b0b3a08 	blcc	2cec10 <__bss_end__+0x2c4880>
     3ec:	0213490b 	andseq	r4, r3, #180224	; 0x2c000
     3f0:	06000017 			; <UNDEFINED> instruction: 0x06000017
     3f4:	01018289 	smlabbeq	r1, r9, r2, r8
     3f8:	13310111 	teqne	r1, #1073741828	; 0x40000004
     3fc:	8a070000 	bhi	1c0404 <__bss_end__+0x1b6074>
     400:	02000182 	andeq	r0, r0, #-2147483616	; 0x80000020
     404:	18429118 	stmdane	r2, {r3, r4, r8, ip, pc}^
     408:	2e080000 	cdpcs	0, 0, cr0, cr8, cr0, {0}
     40c:	03193f00 	tsteq	r9, #0, 30
     410:	3b0b3a0e 	blcc	2cec50 <__bss_end__+0x2c48c0>
     414:	1119270b 	tstne	r9, fp, lsl #14
     418:	40061201 	andmi	r1, r6, r1, lsl #4
     41c:	19429718 	stmdbne	r2, {r3, r4, r8, r9, sl, ip, pc}^
     420:	2e090000 	cdpcs	0, 0, cr0, cr9, cr0, {0}
     424:	03193f01 	tsteq	r9, #1, 30
     428:	3b0b3a0e 	blcc	2cec68 <__bss_end__+0x2c48d8>
     42c:	1119270b 	tstne	r9, fp, lsl #14
     430:	40061201 	andmi	r1, r6, r1, lsl #4
     434:	19429718 	stmdbne	r2, {r3, r4, r8, r9, sl, ip, pc}^
     438:	00001301 	andeq	r1, r0, r1, lsl #6
     43c:	0300050a 	movweq	r0, #1290	; 0x50a
     440:	3b0b3a08 	blcc	2cec68 <__bss_end__+0x2c48d8>
     444:	0213490b 	andseq	r4, r3, #180224	; 0x2c000
     448:	0b000018 	bleq	4b0 <_start-0x7b50>
     44c:	19270115 	stmdbne	r7!, {r0, r2, r4, r8}
     450:	13011349 	movwne	r1, #4937	; 0x1349
     454:	050c0000 	streq	r0, [ip, #-0]
     458:	00134900 	andseq	r4, r3, r0, lsl #18
     45c:	000f0d00 	andeq	r0, pc, r0, lsl #26
     460:	13490b0b 	movtne	r0, #39691	; 0x9b0b
     464:	340e0000 	strcc	r0, [lr], #-0
     468:	3a0e0300 	bcc	381070 <__bss_end__+0x376ce0>
     46c:	490b3b0b 	stmdbmi	fp, {r0, r1, r3, r8, r9, fp, ip, sp}
     470:	02193f13 	andseq	r3, r9, #19, 30	; 0x4c
     474:	0f000018 	svceq	0x00000018
     478:	193f012e 	ldmdbne	pc!, {r1, r2, r3, r5, r8}	; <UNPREDICTABLE>
     47c:	0b3a0e03 	bleq	e83c90 <__bss_end__+0xe79900>
     480:	19270b3b 	stmdbne	r7!, {r0, r1, r3, r4, r5, r8, r9, fp}
     484:	0000193c 	andeq	r1, r0, ip, lsr r9
     488:	01110100 	tsteq	r1, r0, lsl #2
     48c:	0b130e25 	bleq	4c3d28 <__bss_end__+0x4b9998>
     490:	0e1b0e03 	cdpeq	14, 1, cr0, cr11, cr3, {0}
     494:	06120111 			; <UNDEFINED> instruction: 0x06120111
     498:	00001710 	andeq	r1, r0, r0, lsl r7
     49c:	0b002402 	bleq	94ac <sw_uart_putc+0x128>
     4a0:	030b3e0b 	movweq	r3, #48651	; 0xbe0b
     4a4:	03000008 	movweq	r0, #8
     4a8:	0b0b0024 	bleq	2c0540 <__bss_end__+0x2b61b0>
     4ac:	0e030b3e 	vmoveq.16	d3[0], r0
     4b0:	0f040000 	svceq	0x00040000
     4b4:	490b0b00 	stmdbmi	fp, {r8, r9, fp}
     4b8:	05000013 	streq	r0, [r0, #-19]
     4bc:	13490026 	movtne	r0, #36902	; 0x9026
     4c0:	2e060000 	cdpcs	0, 0, cr0, cr6, cr0, {0}
     4c4:	03193f01 	tsteq	r9, #1, 30
     4c8:	3b0b3a0e 	blcc	2ced08 <__bss_end__+0x2c4978>
     4cc:	4919270b 	ldmdbmi	r9, {r0, r1, r3, r8, r9, sl, sp}
     4d0:	12011113 	andne	r1, r1, #-1073741820	; 0xc0000004
     4d4:	96184006 	ldrls	r4, [r8], -r6
     4d8:	13011942 	movwne	r1, #6466	; 0x1942
     4dc:	05070000 	streq	r0, [r7, #-0]
     4e0:	3a080300 	bcc	2010e8 <__bss_end__+0x1f6d58>
     4e4:	490b3b0b 	stmdbmi	fp, {r0, r1, r3, r8, r9, fp, ip, sp}
     4e8:	00170213 	andseq	r0, r7, r3, lsl r2
     4ec:	01150800 	tsteq	r5, r0, lsl #16
     4f0:	13491927 	movtne	r1, #39207	; 0x9927
     4f4:	00001301 	andeq	r1, r0, r1, lsl #6
     4f8:	49000509 	stmdbmi	r0, {r0, r3, r8, sl}
     4fc:	0a000013 	beq	550 <_start-0x7ab0>
     500:	0e030034 	mcreq	0, 0, r0, cr3, cr4, {1}
     504:	0b3b0b3a 	bleq	ec31f4 <__bss_end__+0xeb8e64>
     508:	193f1349 	ldmdbne	pc!, {r0, r3, r6, r8, r9, ip}	; <UNPREDICTABLE>
     50c:	0000193c 	andeq	r1, r0, ip, lsr r9
     510:	0300340b 	movweq	r3, #1035	; 0x40b
     514:	3b0b3a0e 	blcc	2ced54 <__bss_end__+0x2c49c4>
     518:	3f13490b 	svccc	0x0013490b
     51c:	00180219 	andseq	r0, r8, r9, lsl r2
     520:	11010000 	mrsne	r0, (UNDEF: 1)
     524:	130e2501 	movwne	r2, #58625	; 0xe501
     528:	1b0e030b 	blne	38115c <__bss_end__+0x376dcc>
     52c:	1201110e 	andne	r1, r1, #-2147483645	; 0x80000003
     530:	00171006 	andseq	r1, r7, r6
     534:	00240200 	eoreq	r0, r4, r0, lsl #4
     538:	0b3e0b0b 	bleq	f8316c <__bss_end__+0xf78ddc>
     53c:	00000803 	andeq	r0, r0, r3, lsl #16
     540:	0b002403 	bleq	9554 <sw_uart_getc_timeout+0x7c>
     544:	030b3e0b 	movweq	r3, #48651	; 0xbe0b
     548:	0400000e 	streq	r0, [r0], #-14
     54c:	0b0b000f 	bleq	2c0590 <__bss_end__+0x2b6200>
     550:	0f050000 	svceq	0x00050000
     554:	490b0b00 	stmdbmi	fp, {r8, r9, fp}
     558:	06000013 			; <UNDEFINED> instruction: 0x06000013
     55c:	13490026 	movtne	r0, #36902	; 0x9026
     560:	16070000 	strne	r0, [r7], -r0
     564:	3a0e0300 	bcc	38116c <__bss_end__+0x376ddc>
     568:	490b3b0b 	stmdbmi	fp, {r0, r1, r3, r8, r9, fp, ip, sp}
     56c:	08000013 	stmdaeq	r0, {r0, r1, r4}
     570:	0e030113 	mcreq	1, 0, r0, cr3, cr3, {0}
     574:	0b3a0b0b 	bleq	e831a8 <__bss_end__+0xe78e18>
     578:	13010b3b 	movwne	r0, #6971	; 0x1b3b
     57c:	0d090000 	stceq	0, cr0, [r9, #-0]
     580:	490e0300 	stmdbmi	lr, {r8, r9}
     584:	340b3813 	strcc	r3, [fp], #-2067	; 0x813
     588:	0a000019 	beq	5f4 <_start-0x7a0c>
     58c:	0e03012e 	adfeqsp	f0, f3, #0.5
     590:	0b3b0b3a 	bleq	ec3280 <__bss_end__+0xeb8ef0>
     594:	13491927 	movtne	r1, #39207	; 0x9927
     598:	06120111 			; <UNDEFINED> instruction: 0x06120111
     59c:	42971840 	addsmi	r1, r7, #64, 16	; 0x400000
     5a0:	00130119 	andseq	r0, r3, r9, lsl r1
     5a4:	00050b00 	andeq	r0, r5, r0, lsl #22
     5a8:	0b3a0803 	bleq	e825bc <__bss_end__+0xe7822c>
     5ac:	13490b3b 	movtne	r0, #39739	; 0x9b3b
     5b0:	00001702 	andeq	r1, r0, r2, lsl #14
     5b4:	03012e0c 	movweq	r2, #7692	; 0x1e0c
     5b8:	3b0b3a08 	blcc	2cede0 <__bss_end__+0x2c4a50>
     5bc:	4919270b 	ldmdbmi	r9, {r0, r1, r3, r8, r9, sl, sp}
     5c0:	12011113 	andne	r1, r1, #-1073741820	; 0xc0000004
     5c4:	97184006 	ldrls	r4, [r8, -r6]
     5c8:	13011942 	movwne	r1, #6466	; 0x1942
     5cc:	050d0000 	streq	r0, [sp, #-0]
     5d0:	3a0e0300 	bcc	3811d8 <__bss_end__+0x376e48>
     5d4:	490b3b0b 	stmdbmi	fp, {r0, r1, r3, r8, r9, fp, ip, sp}
     5d8:	00170213 	andseq	r0, r7, r3, lsl r2
     5dc:	00050e00 	andeq	r0, r5, r0, lsl #28
     5e0:	0b3a0e03 	bleq	e83df4 <__bss_end__+0xe79a64>
     5e4:	13490b3b 	movtne	r0, #39739	; 0x9b3b
     5e8:	00001802 	andeq	r1, r0, r2, lsl #16
     5ec:	0300340f 	movweq	r3, #1039	; 0x40f
     5f0:	3b0b3a08 	blcc	2cee18 <__bss_end__+0x2c4a88>
     5f4:	0213490b 	andseq	r4, r3, #180224	; 0x2c000
     5f8:	10000018 	andne	r0, r0, r8, lsl r0
     5fc:	08030034 	stmdaeq	r3, {r2, r4, r5}
     600:	0b3b0b3a 	bleq	ec32f0 <__bss_end__+0xeb8f60>
     604:	17021349 	strne	r1, [r2, -r9, asr #6]
     608:	34110000 	ldrcc	r0, [r1], #-0
     60c:	490e0300 	stmdbmi	lr, {r8, r9}
     610:	02193413 	andseq	r3, r9, #318767104	; 0x13000000
     614:	12000018 	andne	r0, r0, #24
     618:	0111010b 	tsteq	r1, fp, lsl #2
     61c:	13010612 	movwne	r0, #5650	; 0x1612
     620:	34130000 	ldrcc	r0, [r3], #-0
     624:	3a0e0300 	bcc	38122c <__bss_end__+0x376e9c>
     628:	490b3b0b 	stmdbmi	fp, {r0, r1, r3, r8, r9, fp, ip, sp}
     62c:	00170213 	andseq	r0, r7, r3, lsl r2
     630:	82891400 	addhi	r1, r9, #0, 8
     634:	01110001 	tsteq	r1, r1
     638:	00001331 	andeq	r1, r0, r1, lsr r3
     63c:	01828915 	orreq	r8, r2, r5, lsl r9
     640:	31011101 	tstcc	r1, r1, lsl #2
     644:	00130113 	andseq	r0, r3, r3, lsl r1
     648:	828a1600 	addhi	r1, sl, #0, 12
     64c:	18020001 	stmdane	r2, {r0}
     650:	00184291 	mulseq	r8, r1, r2
     654:	82891700 	addhi	r1, r9, #0, 14
     658:	01110101 	tsteq	r1, r1, lsl #2
     65c:	00001331 	andeq	r1, r0, r1, lsr r3
     660:	49010118 	stmdbmi	r1, {r3, r4, r8}
     664:	00130113 	andseq	r0, r3, r3, lsl r1
     668:	00211900 	eoreq	r1, r1, r0, lsl #18
     66c:	0b2f1349 	bleq	bc5398 <__bss_end__+0xbbb008>
     670:	2e1a0000 	cdpcs	0, 1, cr0, cr10, cr0, {0}
     674:	03193f01 	tsteq	r9, #1, 30
     678:	3b0b3a0e 	blcc	2ceeb8 <__bss_end__+0x2c4b28>
     67c:	1119270b 	tstne	r9, fp, lsl #14
     680:	40061201 	andmi	r1, r6, r1, lsl #4
     684:	19429718 	stmdbne	r2, {r3, r4, r8, r9, sl, ip, pc}^
     688:	00001301 	andeq	r1, r0, r1, lsl #6
     68c:	2701151b 	smladcs	r1, fp, r5, r1
     690:	01134919 	tsteq	r3, r9, lsl r9
     694:	1c000013 	stcne	0, cr0, [r0], {19}
     698:	13490005 	movtne	r0, #36869	; 0x9005
     69c:	2e1d0000 	cdpcs	0, 1, cr0, cr13, cr0, {0}
     6a0:	03193f01 	tsteq	r9, #1, 30
     6a4:	3b0b3a0e 	blcc	2ceee4 <__bss_end__+0x2c4b54>
     6a8:	4919270b 	ldmdbmi	r9, {r0, r1, r3, r8, r9, sl, sp}
     6ac:	12011113 	andne	r1, r1, #-1073741820	; 0xc0000004
     6b0:	97184006 	ldrls	r4, [r8, -r6]
     6b4:	13011942 	movwne	r1, #6466	; 0x1942
     6b8:	0b1e0000 	bleq	7806c0 <__bss_end__+0x776330>
     6bc:	00175501 	andseq	r5, r7, r1, lsl #10
     6c0:	00341f00 	eorseq	r1, r4, r0, lsl #30
     6c4:	0b3a0e03 	bleq	e83ed8 <__bss_end__+0xe79b48>
     6c8:	13490b3b 	movtne	r0, #39739	; 0x9b3b
     6cc:	193c193f 	ldmdbne	ip!, {r0, r1, r2, r3, r4, r5, r8, fp, ip}
     6d0:	2e200000 	cdpcs	0, 2, cr0, cr0, cr0, {0}
     6d4:	03193f00 	tsteq	r9, #0, 30
     6d8:	3b0b3a0e 	blcc	2cef18 <__bss_end__+0x2c4b88>
     6dc:	3c19270b 	ldccc	7, cr2, [r9], {11}
     6e0:	21000019 	tstcs	r0, r9, lsl r0
     6e4:	193f012e 	ldmdbne	pc!, {r1, r2, r3, r5, r8}	; <UNPREDICTABLE>
     6e8:	0b3a0e03 	bleq	e83efc <__bss_end__+0xe79b6c>
     6ec:	19270b3b 	stmdbne	r7!, {r0, r1, r3, r4, r5, r8, r9, fp}
     6f0:	193c1349 	ldmdbne	ip!, {r0, r3, r6, r8, r9, ip}
     6f4:	00001301 	andeq	r1, r0, r1, lsl #6
     6f8:	00001822 	andeq	r1, r0, r2, lsr #16
     6fc:	11010000 	mrsne	r0, (UNDEF: 1)
     700:	130e2501 	movwne	r2, #58625	; 0xe501
     704:	1b0e030b 	blne	381338 <__bss_end__+0x376fa8>
     708:	1201110e 	andne	r1, r1, #-2147483645	; 0x80000003
     70c:	00171006 	andseq	r1, r7, r6
     710:	00240200 	eoreq	r0, r4, r0, lsl #4
     714:	0b3e0b0b 	bleq	f83348 <__bss_end__+0xf78fb8>
     718:	00000803 	andeq	r0, r0, r3, lsl #16
     71c:	0b002403 	bleq	9730 <sw_uart_gets_until+0x90>
     720:	030b3e0b 	movweq	r3, #48651	; 0xbe0b
     724:	0400000e 	streq	r0, [r0], #-14
     728:	193f012e 	ldmdbne	pc!, {r1, r2, r3, r5, r8}	; <UNPREDICTABLE>
     72c:	0b3a0e03 	bleq	e83f40 <__bss_end__+0xe79bb0>
     730:	19270b3b 	stmdbne	r7!, {r0, r1, r3, r4, r5, r8, r9, fp}
     734:	06120111 			; <UNDEFINED> instruction: 0x06120111
     738:	42971840 	addsmi	r1, r7, #64, 16	; 0x400000
     73c:	00130119 	andseq	r0, r3, r9, lsl r1
     740:	00340500 	eorseq	r0, r4, r0, lsl #10
     744:	0b3a0803 	bleq	e82758 <__bss_end__+0xe783c8>
     748:	13490b3b 	movtne	r0, #39739	; 0x9b3b
     74c:	00001702 	andeq	r1, r0, r2, lsl #14
     750:	3f012e06 	svccc	0x00012e06
     754:	3a0e0319 	bcc	3813c0 <__bss_end__+0x377030>
     758:	270b3b0b 	strcs	r3, [fp, -fp, lsl #22]
     75c:	12011119 	andne	r1, r1, #1073741830	; 0x40000006
     760:	97184006 	ldrls	r4, [r8, -r6]
     764:	00001942 	andeq	r1, r0, r2, asr #18
     768:	01110100 	tsteq	r1, r0, lsl #2
     76c:	0b130e25 	bleq	4c4008 <__bss_end__+0x4b9c78>
     770:	0e1b0e03 	cdpeq	14, 1, cr0, cr11, cr3, {0}
     774:	06120111 			; <UNDEFINED> instruction: 0x06120111
     778:	00001710 	andeq	r1, r0, r0, lsl r7
     77c:	0b002402 	bleq	978c <sw_uart_gets_timeout+0x48>
     780:	030b3e0b 	movweq	r3, #48651	; 0xbe0b
     784:	03000008 	movweq	r0, #8
     788:	0b0b0024 	bleq	2c0820 <__bss_end__+0x2b6490>
     78c:	0e030b3e 	vmoveq.16	d3[0], r0
     790:	0f040000 	svceq	0x00040000
     794:	490b0b00 	stmdbmi	fp, {r8, r9, fp}
     798:	05000013 	streq	r0, [r0, #-19]
     79c:	13490026 	movtne	r0, #36902	; 0x9026
     7a0:	2e060000 	cdpcs	0, 0, cr0, cr6, cr0, {0}
     7a4:	03193f01 	tsteq	r9, #1, 30
     7a8:	3b0b3a0e 	blcc	2cefe8 <__bss_end__+0x2c4c58>
     7ac:	1119270b 	tstne	r9, fp, lsl #14
     7b0:	40061201 	andmi	r1, r6, r1, lsl #4
     7b4:	19429718 	stmdbne	r2, {r3, r4, r8, r9, sl, ip, pc}^
     7b8:	00001301 	andeq	r1, r0, r1, lsl #6
     7bc:	01828907 	orreq	r8, r2, r7, lsl #18
     7c0:	01011101 	tsteq	r1, r1, lsl #2
     7c4:	08000013 	stmdaeq	r0, {r0, r1, r4}
     7c8:	0001828a 	andeq	r8, r1, sl, lsl #5
     7cc:	42911802 	addsmi	r1, r1, #131072	; 0x20000
     7d0:	09000018 	stmdbeq	r0, {r3, r4}
     7d4:	01018289 	smlabbeq	r1, r9, r2, r8
     7d8:	13310111 	teqne	r1, #1073741828	; 0x40000004
     7dc:	00001301 	andeq	r1, r0, r1, lsl #6
     7e0:	0182890a 	orreq	r8, r2, sl, lsl #18
     7e4:	31011100 	mrscc	r1, (UNDEF: 17)
     7e8:	0b000013 	bleq	83c <_start-0x77c4>
     7ec:	19270115 	stmdbne	r7!, {r0, r2, r4, r8}
     7f0:	13011349 	movwne	r1, #4937	; 0x1349
     7f4:	050c0000 	streq	r0, [ip, #-0]
     7f8:	00134900 	andseq	r4, r3, r0, lsl #18
     7fc:	00340d00 	eorseq	r0, r4, r0, lsl #26
     800:	0b3a0e03 	bleq	e84014 <__bss_end__+0xe79c84>
     804:	13490b3b 	movtne	r0, #39739	; 0x9b3b
     808:	193c193f 	ldmdbne	ip!, {r0, r1, r2, r3, r4, r5, r8, fp, ip}
     80c:	2e0e0000 	cdpcs	0, 0, cr0, cr14, cr0, {0}
     810:	03193f01 	tsteq	r9, #1, 30
     814:	3b0b3a0e 	blcc	2cf054 <__bss_end__+0x2c4cc4>
     818:	3c19270b 	ldccc	7, cr2, [r9], {11}
     81c:	00130119 	andseq	r0, r3, r9, lsl r1
     820:	002e0f00 	eoreq	r0, lr, r0, lsl #30
     824:	0e03193f 	mcreq	9, 0, r1, cr3, cr15, {1}
     828:	0b3b0b3a 	bleq	ec3518 <__bss_end__+0xeb9188>
     82c:	193c1927 	ldmdbne	ip!, {r0, r1, r2, r5, r8, fp, ip}
     830:	01000000 	mrseq	r0, (UNDEF: 0)
     834:	0e250111 	mcreq	1, 1, r0, cr5, cr1, {0}
     838:	0e030b13 	vmoveq.32	d3[0], r0
     83c:	01110e1b 	tsteq	r1, fp, lsl lr
     840:	17100612 			; <UNDEFINED> instruction: 0x17100612
     844:	24020000 	strcs	r0, [r2], #-0
     848:	3e0b0b00 	vmlacc.f64	d0, d11, d0
     84c:	0008030b 	andeq	r0, r8, fp, lsl #6
     850:	00240300 	eoreq	r0, r4, r0, lsl #6
     854:	0b3e0b0b 	bleq	f83488 <__bss_end__+0xf790f8>
     858:	00000e03 	andeq	r0, r0, r3, lsl #28
     85c:	03001604 	movweq	r1, #1540	; 0x604
     860:	3b0b3a0e 	blcc	2cf0a0 <__bss_end__+0x2c4d10>
     864:	0013490b 	andseq	r4, r3, fp, lsl #18
     868:	000f0500 	andeq	r0, pc, r0, lsl #10
     86c:	13490b0b 	movtne	r0, #39691	; 0x9b0b
     870:	26060000 	strcs	r0, [r6], -r0
     874:	00134900 	andseq	r4, r3, r0, lsl #18
     878:	01130700 	tsteq	r3, r0, lsl #14
     87c:	0b3a0b0b 	bleq	e834b0 <__bss_end__+0xe79120>
     880:	13010b3b 	movwne	r0, #6971	; 0x1b3b
     884:	0d080000 	stceq	0, cr0, [r8, #-0]
     888:	3a080300 	bcc	201490 <__bss_end__+0x1f7100>
     88c:	490b3b0b 	stmdbmi	fp, {r0, r1, r3, r8, r9, fp, ip, sp}
     890:	000b3813 	andeq	r3, fp, r3, lsl r8
     894:	000d0900 	andeq	r0, sp, r0, lsl #18
     898:	0b3a0e03 	bleq	e840ac <__bss_end__+0xe79d1c>
     89c:	13490b3b 	movtne	r0, #39739	; 0x9b3b
     8a0:	00000b38 	andeq	r0, r0, r8, lsr fp
     8a4:	0b01040a 	bleq	418d4 <__bss_end__+0x37544>
     8a8:	3b0b3a0b 	blcc	2cf0dc <__bss_end__+0x2c4d4c>
     8ac:	0013010b 	andseq	r0, r3, fp, lsl #2
     8b0:	00280b00 	eoreq	r0, r8, r0, lsl #22
     8b4:	0d1c0e03 	ldceq	14, cr0, [ip, #-12]
     8b8:	2e0c0000 	cdpcs	0, 0, cr0, cr12, cr0, {0}
     8bc:	3a0e0301 	bcc	3814c8 <__bss_end__+0x377138>
     8c0:	270b3b0b 	strcs	r3, [fp, -fp, lsl #22]
     8c4:	11134919 	tstne	r3, r9, lsl r9
     8c8:	40061201 	andmi	r1, r6, r1, lsl #4
     8cc:	19429718 	stmdbne	r2, {r3, r4, r8, r9, sl, ip, pc}^
     8d0:	00001301 	andeq	r1, r0, r1, lsl #6
     8d4:	0300050d 	movweq	r0, #1293	; 0x50d
     8d8:	3b0b3a08 	blcc	2cf100 <__bss_end__+0x2c4d70>
     8dc:	0213490b 	andseq	r4, r3, #180224	; 0x2c000
     8e0:	0e000017 	mcreq	0, 0, r0, cr0, cr7, {0}
     8e4:	01018289 	smlabbeq	r1, r9, r2, r8
     8e8:	13310111 	teqne	r1, #1073741828	; 0x40000004
     8ec:	8a0f0000 	bhi	3c08f4 <__bss_end__+0x3b6564>
     8f0:	02000182 	andeq	r0, r0, #-2147483616	; 0x80000020
     8f4:	18429118 	stmdane	r2, {r3, r4, r8, ip, pc}^
     8f8:	2e100000 	cdpcs	0, 1, cr0, cr0, cr0, {0}
     8fc:	03193f01 	tsteq	r9, #1, 30
     900:	3b0b3a0e 	blcc	2cf140 <__bss_end__+0x2c4db0>
     904:	1201110b 	andne	r1, r1, #-1073741822	; 0xc0000002
     908:	97184006 	ldrls	r4, [r8, -r6]
     90c:	13011942 	movwne	r1, #6466	; 0x1942
     910:	34110000 	ldrcc	r0, [r1], #-0
     914:	3a0e0300 	bcc	38151c <__bss_end__+0x37718c>
     918:	490b3b0b 	stmdbmi	fp, {r0, r1, r3, r8, r9, fp, ip, sp}
     91c:	3c193f13 	ldccc	15, cr3, [r9], {19}
     920:	12000019 	andne	r0, r0, #25
     924:	193f002e 	ldmdbne	pc!, {r1, r2, r3, r5}	; <UNPREDICTABLE>
     928:	0b3a0e03 	bleq	e8413c <__bss_end__+0xe79dac>
     92c:	19270b3b 	stmdbne	r7!, {r0, r1, r3, r4, r5, r8, r9, fp}
     930:	0000193c 	andeq	r1, r0, ip, lsr r9
     934:	03003413 	movweq	r3, #1043	; 0x413
     938:	3b0b3a08 	blcc	2cf160 <__bss_end__+0x2c4dd0>
     93c:	0213490b 	andseq	r4, r3, #180224	; 0x2c000
     940:	14000017 	strne	r0, [r0], #-23
     944:	0e030034 	mcreq	0, 0, r0, cr3, cr4, {1}
     948:	0b3b0b3a 	bleq	ec3638 <__bss_end__+0xeb92a8>
     94c:	00001349 	andeq	r1, r0, r9, asr #6
     950:	01828915 	orreq	r8, r2, r5, lsl r9
     954:	31011100 	mrscc	r1, (UNDEF: 17)
     958:	16000013 			; <UNDEFINED> instruction: 0x16000013
     95c:	01018289 	smlabbeq	r1, r9, r2, r8
     960:	13310111 	teqne	r1, #1073741828	; 0x40000004
     964:	00001301 	andeq	r1, r0, r1, lsl #6
     968:	03003417 	movweq	r3, #1047	; 0x417
     96c:	3b0b3a0e 	blcc	2cf1ac <__bss_end__+0x2c4e1c>
     970:	0213490b 	andseq	r4, r3, #180224	; 0x2c000
     974:	18000018 	stmdane	r0, {r3, r4}
     978:	19270115 	stmdbne	r7!, {r0, r2, r4, r8}
     97c:	13011349 	movwne	r1, #4937	; 0x1349
     980:	05190000 	ldreq	r0, [r9, #-0]
     984:	00134900 	andseq	r4, r3, r0, lsl #18
     988:	012e1a00 	teqeq	lr, r0, lsl #20
     98c:	0e03193f 	mcreq	9, 0, r1, cr3, cr15, {1}
     990:	0b3b0b3a 	bleq	ec3680 <__bss_end__+0xeb92f0>
     994:	193c1927 	ldmdbne	ip!, {r0, r1, r2, r5, r8, fp, ip}
     998:	00001301 	andeq	r1, r0, r1, lsl #6
     99c:	3f002e1b 	svccc	0x00002e1b
     9a0:	3a0e0319 	bcc	38160c <__bss_end__+0x37727c>
     9a4:	270b3b0b 	strcs	r3, [fp, -fp, lsl #22]
     9a8:	3c134919 	ldccc	9, cr4, [r3], {25}
     9ac:	1c000019 	stcne	0, cr0, [r0], {25}
     9b0:	193f012e 	ldmdbne	pc!, {r1, r2, r3, r5, r8}	; <UNPREDICTABLE>
     9b4:	0b3a0e03 	bleq	e841c8 <__bss_end__+0xe79e38>
     9b8:	19270b3b 	stmdbne	r7!, {r0, r1, r3, r4, r5, r8, r9, fp}
     9bc:	193c1349 	ldmdbne	ip!, {r0, r3, r6, r8, r9, ip}
     9c0:	00001301 	andeq	r1, r0, r1, lsl #6
     9c4:	0000181d 	andeq	r1, r0, sp, lsl r8
     9c8:	11010000 	mrsne	r0, (UNDEF: 1)
     9cc:	130e2501 	movwne	r2, #58625	; 0xe501
     9d0:	1b0e030b 	blne	381604 <__bss_end__+0x377274>
     9d4:	1117550e 	tstne	r7, lr, lsl #10
     9d8:	00171001 	andseq	r1, r7, r1
     9dc:	00240200 	eoreq	r0, r4, r0, lsl #4
     9e0:	0b3e0b0b 	bleq	f83614 <__bss_end__+0xf79284>
     9e4:	00000803 	andeq	r0, r0, r3, lsl #16
     9e8:	0b002403 	bleq	99fc <uart_init+0x10>
     9ec:	030b3e0b 	movweq	r3, #48651	; 0xbe0b
     9f0:	0400000e 	streq	r0, [r0], #-14
     9f4:	193f012e 	ldmdbne	pc!, {r1, r2, r3, r5, r8}	; <UNPREDICTABLE>
     9f8:	0b3a0e03 	bleq	e8420c <__bss_end__+0xe79e7c>
     9fc:	19270b3b 	stmdbne	r7!, {r0, r1, r3, r4, r5, r8, r9, fp}
     a00:	01111349 	tsteq	r1, r9, asr #6
     a04:	18400612 	stmdane	r0, {r1, r4, r9, sl}^
     a08:	01194297 			; <UNDEFINED> instruction: 0x01194297
     a0c:	05000013 	streq	r0, [r0, #-19]
     a10:	0e030034 	mcreq	0, 0, r0, cr3, cr4, {1}
     a14:	0b3b0b3a 	bleq	ec3704 <__bss_end__+0xeb9374>
     a18:	17021349 	strne	r1, [r2, -r9, asr #6]
     a1c:	2e060000 	cdpcs	0, 0, cr0, cr6, cr0, {0}
     a20:	03193f01 	tsteq	r9, #1, 30
     a24:	3b0b3a0e 	blcc	2cf264 <__bss_end__+0x2c4ed4>
     a28:	1119270b 	tstne	r9, fp, lsl #14
     a2c:	40061201 	andmi	r1, r6, r1, lsl #4
     a30:	19429718 	stmdbne	r2, {r3, r4, r8, r9, sl, ip, pc}^
     a34:	00001301 	andeq	r1, r0, r1, lsl #6
     a38:	03003407 	movweq	r3, #1031	; 0x407
     a3c:	3b0b3a0e 	blcc	2cf27c <__bss_end__+0x2c4eec>
     a40:	1c13490b 	ldcne	9, cr4, [r3], {11}
     a44:	08000006 	stmdaeq	r0, {r1, r2}
     a48:	0e030034 	mcreq	0, 0, r0, cr3, cr4, {1}
     a4c:	0b3b0b3a 	bleq	ec373c <__bss_end__+0xeb93ac>
     a50:	0b1c1349 	bleq	70577c <__bss_end__+0x6fb3ec>
     a54:	89090000 	stmdbhi	r9, {}	; <UNPREDICTABLE>
     a58:	11000182 	smlabbne	r0, r2, r1, r0
     a5c:	00133101 	andseq	r3, r3, r1, lsl #2
     a60:	82890a00 	addhi	r0, r9, #0, 20
     a64:	01110101 	tsteq	r1, r1, lsl #2
     a68:	13011331 	movwne	r1, #4913	; 0x1331
     a6c:	8a0b0000 	bhi	2c0a74 <__bss_end__+0x2b66e4>
     a70:	02000182 	andeq	r0, r0, #-2147483616	; 0x80000020
     a74:	18429118 	stmdane	r2, {r3, r4, r8, ip, pc}^
     a78:	890c0000 	stmdbhi	ip, {}	; <UNPREDICTABLE>
     a7c:	11010182 	smlabbne	r1, r2, r1, r0
     a80:	00133101 	andseq	r3, r3, r1, lsl #2
     a84:	00260d00 	eoreq	r0, r6, r0, lsl #26
     a88:	00001349 	andeq	r1, r0, r9, asr #6
     a8c:	3f012e0e 	svccc	0x00012e0e
     a90:	3a0e0319 	bcc	3816fc <__bss_end__+0x37736c>
     a94:	270b3b0b 	strcs	r3, [fp, -fp, lsl #22]
     a98:	01193c19 	tsteq	r9, r9, lsl ip
     a9c:	0f000013 	svceq	0x00000013
     aa0:	13490005 	movtne	r0, #36869	; 0x9005
     aa4:	2e100000 	cdpcs	0, 1, cr0, cr0, cr0, {0}
     aa8:	03193f01 	tsteq	r9, #1, 30
     aac:	3b0b3a0e 	blcc	2cf2ec <__bss_end__+0x2c4f5c>
     ab0:	3c19270b 	ldccc	7, cr2, [r9], {11}
     ab4:	00000019 	andeq	r0, r0, r9, lsl r0
     ab8:	25011101 	strcs	r1, [r1, #-257]	; 0x101
     abc:	030b130e 	movweq	r1, #45838	; 0xb30e
     ac0:	110e1b0e 	tstne	lr, lr, lsl #22
     ac4:	10061201 	andne	r1, r6, r1, lsl #4
     ac8:	02000017 	andeq	r0, r0, #23
     acc:	0b0b0024 	bleq	2c0b64 <__bss_end__+0x2b67d4>
     ad0:	08030b3e 	stmdaeq	r3, {r1, r2, r3, r4, r5, r8, r9, fp}
     ad4:	24030000 	strcs	r0, [r3], #-0
     ad8:	3e0b0b00 	vmlacc.f64	d0, d11, d0
     adc:	000e030b 	andeq	r0, lr, fp, lsl #6
     ae0:	012e0400 	teqeq	lr, r0, lsl #8
     ae4:	0e03193f 	mcreq	9, 0, r1, cr3, cr15, {1}
     ae8:	0b3b0b3a 	bleq	ec37d8 <__bss_end__+0xeb9448>
     aec:	01111927 	tsteq	r1, r7, lsr #18
     af0:	18400612 	stmdane	r0, {r1, r4, r9, sl}^
     af4:	01194297 			; <UNDEFINED> instruction: 0x01194297
     af8:	05000013 	streq	r0, [r0, #-19]
     afc:	0e030005 	cdpeq	0, 0, cr0, cr3, cr5, {0}
     b00:	0b3b0b3a 	bleq	ec37f0 <__bss_end__+0xeb9460>
     b04:	17021349 	strne	r1, [r2, -r9, asr #6]
     b08:	2e060000 	cdpcs	0, 0, cr0, cr6, cr0, {0}
     b0c:	03193f01 	tsteq	r9, #1, 30
     b10:	3b0b3a0e 	blcc	2cf350 <__bss_end__+0x2c4fc0>
     b14:	4919270b 	ldmdbmi	r9, {r0, r1, r3, r8, r9, sl, sp}
     b18:	12011113 	andne	r1, r1, #-1073741820	; 0xc0000004
     b1c:	97184006 	ldrls	r4, [r8, -r6]
     b20:	13011942 	movwne	r1, #6466	; 0x1942
     b24:	89070000 	stmdbhi	r7, {}	; <UNPREDICTABLE>
     b28:	11010182 	smlabbne	r1, r2, r1, r0
     b2c:	00133101 	andseq	r3, r3, r1, lsl #2
     b30:	828a0800 	addhi	r0, sl, #0, 16
     b34:	18020001 	stmdane	r2, {r0}
     b38:	00184291 	mulseq	r8, r1, r2
     b3c:	00340900 	eorseq	r0, r4, r0, lsl #18
     b40:	0b3a0803 	bleq	e82b54 <__bss_end__+0xe787c4>
     b44:	13490b3b 	movtne	r0, #39739	; 0x9b3b
     b48:	00001802 	andeq	r1, r0, r2, lsl #16
     b4c:	0182890a 	orreq	r8, r2, sl, lsl #18
     b50:	31011100 	mrscc	r1, (UNDEF: 17)
     b54:	0b000013 	bleq	ba8 <_start-0x7458>
     b58:	08030005 	stmdaeq	r3, {r0, r2}
     b5c:	0b3b0b3a 	bleq	ec384c <__bss_end__+0xeb94bc>
     b60:	17021349 	strne	r1, [r2, -r9, asr #6]
     b64:	0b0c0000 	bleq	300b6c <__bss_end__+0x2f67dc>
     b68:	12011101 	andne	r1, r1, #1073741824	; 0x40000000
     b6c:	00130106 	andseq	r0, r3, r6, lsl #2
     b70:	00340d00 	eorseq	r0, r4, r0, lsl #26
     b74:	0b3a0803 	bleq	e82b88 <__bss_end__+0xe787f8>
     b78:	13490b3b 	movtne	r0, #39739	; 0x9b3b
     b7c:	00001702 	andeq	r1, r0, r2, lsl #14
     b80:	3f012e0e 	svccc	0x00012e0e
     b84:	3a0e0319 	bcc	3817f0 <__bss_end__+0x377460>
     b88:	270b3b0b 	strcs	r3, [fp, -fp, lsl #22]
     b8c:	3c134919 	ldccc	9, cr4, [r3], {25}
     b90:	0f000019 	svceq	0x00000019
     b94:	13490005 	movtne	r0, #36869	; 0x9005
     b98:	01000000 	mrseq	r0, (UNDEF: 0)
     b9c:	0e250111 	mcreq	1, 1, r0, cr5, cr1, {0}
     ba0:	0e030b13 	vmoveq.32	d3[0], r0
     ba4:	01110e1b 	tsteq	r1, fp, lsl lr
     ba8:	17100612 			; <UNDEFINED> instruction: 0x17100612
     bac:	24020000 	strcs	r0, [r2], #-0
     bb0:	3e0b0b00 	vmlacc.f64	d0, d11, d0
     bb4:	000e030b 	andeq	r0, lr, fp, lsl #6
     bb8:	00240300 	eoreq	r0, r4, r0, lsl #6
     bbc:	0b3e0b0b 	bleq	f837f0 <__bss_end__+0xf79460>
     bc0:	00000803 	andeq	r0, r0, r3, lsl #16
     bc4:	0b010404 	bleq	41bdc <__bss_end__+0x3784c>
     bc8:	3b0b3a0b 	blcc	2cf3fc <__bss_end__+0x2c506c>
     bcc:	0013010b 	andseq	r0, r3, fp, lsl #2
     bd0:	00280500 	eoreq	r0, r8, r0, lsl #10
     bd4:	0d1c0e03 	ldceq	14, cr0, [ip, #-12]
     bd8:	16060000 	strne	r0, [r6], -r0
     bdc:	3a0e0300 	bcc	3817e4 <__bss_end__+0x377454>
     be0:	490b3b0b 	stmdbmi	fp, {r0, r1, r3, r8, r9, fp, ip, sp}
     be4:	07000013 	smladeq	r0, r3, r0, r0
     be8:	193f012e 	ldmdbne	pc!, {r1, r2, r3, r5, r8}	; <UNPREDICTABLE>
     bec:	0b3a0e03 	bleq	e84400 <__bss_end__+0xe7a070>
     bf0:	19270b3b 	stmdbne	r7!, {r0, r1, r3, r4, r5, r8, r9, fp}
     bf4:	06120111 			; <UNDEFINED> instruction: 0x06120111
     bf8:	42971840 	addsmi	r1, r7, #64, 16	; 0x400000
     bfc:	00130119 	andseq	r0, r3, r9, lsl r1
     c00:	00050800 	andeq	r0, r5, r0, lsl #16
     c04:	0b3a0803 	bleq	e82c18 <__bss_end__+0xe78888>
     c08:	13490b3b 	movtne	r0, #39739	; 0x9b3b
     c0c:	00001702 	andeq	r1, r0, r2, lsl #14
     c10:	03003409 	movweq	r3, #1033	; 0x409
     c14:	3b0b3a0e 	blcc	2cf454 <__bss_end__+0x2c50c4>
     c18:	0213490b 	andseq	r4, r3, #180224	; 0x2c000
     c1c:	0a000017 	beq	c80 <_start-0x7380>
     c20:	01018289 	smlabbeq	r1, r9, r2, r8
     c24:	13310111 	teqne	r1, #1073741828	; 0x40000004
     c28:	00001301 	andeq	r1, r0, r1, lsl #6
     c2c:	01828a0b 	orreq	r8, r2, fp, lsl #20
     c30:	91180200 	tstls	r8, r0, lsl #4
     c34:	00001842 	andeq	r1, r0, r2, asr #16
     c38:	0182890c 	orreq	r8, r2, ip, lsl #18
     c3c:	31011101 	tstcc	r1, r1, lsl #2
     c40:	0d000013 	stceq	0, cr0, [r0, #-76]	; 0xffffffb4
     c44:	0b0b000f 	bleq	2c0c88 <__bss_end__+0x2b68f8>
     c48:	00001349 	andeq	r1, r0, r9, asr #6
     c4c:	4900350e 	stmdbmi	r0, {r1, r2, r3, r8, sl, ip, sp}
     c50:	0f000013 	svceq	0x00000013
     c54:	193f012e 	ldmdbne	pc!, {r1, r2, r3, r5, r8}	; <UNPREDICTABLE>
     c58:	0b3a0e03 	bleq	e8446c <__bss_end__+0xe7a0dc>
     c5c:	19270b3b 	stmdbne	r7!, {r0, r1, r3, r4, r5, r8, r9, fp}
     c60:	01111349 	tsteq	r1, r9, asr #6
     c64:	18400612 	stmdane	r0, {r1, r4, r9, sl}^
     c68:	01194297 			; <UNDEFINED> instruction: 0x01194297
     c6c:	10000013 	andne	r0, r0, r3, lsl r0
     c70:	08030034 	stmdaeq	r3, {r2, r4, r5}
     c74:	0b3b0b3a 	bleq	ec3964 <__bss_end__+0xeb95d4>
     c78:	17021349 	strne	r1, [r2, -r9, asr #6]
     c7c:	89110000 	ldmdbhi	r1, {}	; <UNPREDICTABLE>
     c80:	11000182 	smlabbne	r0, r2, r1, r0
     c84:	00133101 	andseq	r3, r3, r1, lsl #2
     c88:	00051200 	andeq	r1, r5, r0, lsl #4
     c8c:	0b3a0e03 	bleq	e844a0 <__bss_end__+0xe7a110>
     c90:	13490b3b 	movtne	r0, #39739	; 0x9b3b
     c94:	00001702 	andeq	r1, r0, r2, lsl #14
     c98:	3f012e13 	svccc	0x00012e13
     c9c:	3a0e0319 	bcc	381908 <__bss_end__+0x377578>
     ca0:	27053b0b 	strcs	r3, [r5, -fp, lsl #22]
     ca4:	11134919 	tstne	r3, r9, lsl r9
     ca8:	40061201 	andmi	r1, r6, r1, lsl #4
     cac:	19429718 	stmdbne	r2, {r3, r4, r8, r9, sl, ip, pc}^
     cb0:	00001301 	andeq	r1, r0, r1, lsl #6
     cb4:	03000514 	movweq	r0, #1300	; 0x514
     cb8:	3b0b3a0e 	blcc	2cf4f8 <__bss_end__+0x2c5168>
     cbc:	02134905 	andseq	r4, r3, #81920	; 0x14000
     cc0:	15000017 	strne	r0, [r0, #-23]
     cc4:	193f012e 	ldmdbne	pc!, {r1, r2, r3, r5, r8}	; <UNPREDICTABLE>
     cc8:	0b3a0e03 	bleq	e844dc <__bss_end__+0xe7a14c>
     ccc:	1927053b 	stmdbne	r7!, {r0, r1, r3, r4, r5, r8, sl}
     cd0:	06120111 			; <UNDEFINED> instruction: 0x06120111
     cd4:	42971840 	addsmi	r1, r7, #64, 16	; 0x400000
     cd8:	00130119 	andseq	r0, r3, r9, lsl r1
     cdc:	00051600 	andeq	r1, r5, r0, lsl #12
     ce0:	0b3a0803 	bleq	e82cf4 <__bss_end__+0xe78964>
     ce4:	1349053b 	movtne	r0, #38203	; 0x953b
     ce8:	00001702 	andeq	r1, r0, r2, lsl #14
     cec:	03003417 	movweq	r3, #1047	; 0x417
     cf0:	3b0b3a0e 	blcc	2cf530 <__bss_end__+0x2c51a0>
     cf4:	02134905 	andseq	r4, r3, #81920	; 0x14000
     cf8:	18000017 	stmdane	r0, {r0, r1, r2, r4}
     cfc:	0111010b 	tsteq	r1, fp, lsl #2
     d00:	13010612 	movwne	r0, #5650	; 0x1612
     d04:	34190000 	ldrcc	r0, [r9], #-0
     d08:	3a0e0300 	bcc	381910 <__bss_end__+0x377580>
     d0c:	490b3b0b 	stmdbmi	fp, {r0, r1, r3, r8, r9, fp, ip, sp}
     d10:	02193f13 	andseq	r3, r9, #19, 30	; 0x4c
     d14:	1a000018 	bne	d7c <_start-0x7284>
     d18:	0e030034 	mcreq	0, 0, r0, cr3, cr4, {1}
     d1c:	053b0b3a 	ldreq	r0, [fp, #-2874]!	; 0xb3a
     d20:	193f1349 	ldmdbne	pc!, {r0, r3, r6, r8, r9, ip}	; <UNPREDICTABLE>
     d24:	00001802 	andeq	r1, r0, r2, lsl #16
     d28:	3f012e1b 	svccc	0x00012e1b
     d2c:	3a0e0319 	bcc	381998 <__bss_end__+0x377608>
     d30:	270b3b0b 	strcs	r3, [fp, -fp, lsl #22]
     d34:	3c134919 	ldccc	9, cr4, [r3], {25}
     d38:	00130119 	andseq	r0, r3, r9, lsl r1
     d3c:	00051c00 	andeq	r1, r5, r0, lsl #24
     d40:	00001349 	andeq	r1, r0, r9, asr #6
     d44:	4900261d 	stmdbmi	r0, {r0, r2, r3, r4, r9, sl, sp}
     d48:	1e000013 	mcrne	0, 0, r0, cr0, cr3, {0}
     d4c:	00000035 	andeq	r0, r0, r5, lsr r0
     d50:	3f012e1f 	svccc	0x00012e1f
     d54:	3a0e0319 	bcc	3819c0 <__bss_end__+0x377630>
     d58:	270b3b0b 	strcs	r3, [fp, -fp, lsl #22]
     d5c:	01193c19 	tsteq	r9, r9, lsl ip
     d60:	20000013 	andcs	r0, r0, r3, lsl r0
     d64:	193f002e 	ldmdbne	pc!, {r1, r2, r3, r5}	; <UNPREDICTABLE>
     d68:	0b3a0e03 	bleq	e8457c <__bss_end__+0xe7a1ec>
     d6c:	19270b3b 	stmdbne	r7!, {r0, r1, r3, r4, r5, r8, r9, fp}
     d70:	0000193c 	andeq	r1, r0, ip, lsr r9
     d74:	01110100 	tsteq	r1, r0, lsl #2
     d78:	0b130e25 	bleq	4c4614 <__bss_end__+0x4ba284>
     d7c:	0e1b0e03 	cdpeq	14, 1, cr0, cr11, cr3, {0}
     d80:	06120111 			; <UNDEFINED> instruction: 0x06120111
     d84:	00001710 	andeq	r1, r0, r0, lsl r7
     d88:	0b002402 	bleq	9d98 <__FUNCTION__.4287+0x38>
     d8c:	030b3e0b 	movweq	r3, #48651	; 0xbe0b
     d90:	03000008 	movweq	r0, #8
     d94:	0b0b0024 	bleq	2c0e2c <__bss_end__+0x2b6a9c>
     d98:	0e030b3e 	vmoveq.16	d3[0], r0
     d9c:	16040000 	strne	r0, [r4], -r0
     da0:	3a0e0300 	bcc	3819a8 <__bss_end__+0x377618>
     da4:	490b3b0b 	stmdbmi	fp, {r0, r1, r3, r8, r9, fp, ip, sp}
     da8:	05000013 	streq	r0, [r0, #-19]
     dac:	0b0b000f 	bleq	2c0df0 <__bss_end__+0x2b6a60>
     db0:	0f060000 	svceq	0x00060000
     db4:	490b0b00 	stmdbmi	fp, {r8, r9, fp}
     db8:	07000013 	smladeq	r0, r3, r0, r0
     dbc:	13490026 	movtne	r0, #36902	; 0x9026
     dc0:	13080000 	movwne	r0, #32768	; 0x8000
     dc4:	3a0b0b01 	bcc	2c39d0 <__bss_end__+0x2b9640>
     dc8:	010b3b0b 	tsteq	fp, fp, lsl #22
     dcc:	09000013 	stmdbeq	r0, {r0, r1, r4}
     dd0:	0803000d 	stmdaeq	r3, {r0, r2, r3}
     dd4:	0b3b0b3a 	bleq	ec3ac4 <__bss_end__+0xeb9734>
     dd8:	0b381349 	bleq	e05b04 <__bss_end__+0xdfb774>
     ddc:	0d0a0000 	stceq	0, cr0, [sl, #-0]
     de0:	3a0e0300 	bcc	3819e8 <__bss_end__+0x377658>
     de4:	490b3b0b 	stmdbmi	fp, {r0, r1, r3, r8, r9, fp, ip, sp}
     de8:	000b3813 	andeq	r3, fp, r3, lsl r8
     dec:	01130b00 	tsteq	r3, r0, lsl #22
     df0:	0b0b0e03 	bleq	2c4604 <__bss_end__+0x2ba274>
     df4:	0b3b0b3a 	bleq	ec3ae4 <__bss_end__+0xeb9754>
     df8:	00001301 	andeq	r1, r0, r1, lsl #6
     dfc:	03000d0c 	movweq	r0, #3340	; 0xd0c
     e00:	3813490e 	ldmdacc	r3, {r1, r2, r3, r8, fp, lr}
     e04:	0019340b 	andseq	r3, r9, fp, lsl #8
     e08:	012e0d00 	teqeq	lr, r0, lsl #26
     e0c:	0b3a0e03 	bleq	e84620 <__bss_end__+0xe7a290>
     e10:	19270b3b 	stmdbne	r7!, {r0, r1, r3, r4, r5, r8, r9, fp}
     e14:	13010b20 	movwne	r0, #6944	; 0x1b20
     e18:	050e0000 	streq	r0, [lr, #-0]
     e1c:	3a0e0300 	bcc	381a24 <__bss_end__+0x377694>
     e20:	490b3b0b 	stmdbmi	fp, {r0, r1, r3, r8, r9, fp, ip, sp}
     e24:	0f000013 	svceq	0x00000013
     e28:	08030005 	stmdaeq	r3, {r0, r2}
     e2c:	0b3b0b3a 	bleq	ec3b1c <__bss_end__+0xeb978c>
     e30:	00001349 	andeq	r1, r0, r9, asr #6
     e34:	00010b10 	andeq	r0, r1, r0, lsl fp
     e38:	00341100 	eorseq	r1, r4, r0, lsl #2
     e3c:	0b3a0e03 	bleq	e84650 <__bss_end__+0xe7a2c0>
     e40:	13490b3b 	movtne	r0, #39739	; 0x9b3b
     e44:	2e120000 	cdpcs	0, 1, cr0, cr2, cr0, {0}
     e48:	03193f01 	tsteq	r9, #1, 30
     e4c:	3b0b3a0e 	blcc	2cf68c <__bss_end__+0x2c52fc>
     e50:	1119270b 	tstne	r9, fp, lsl #14
     e54:	40061201 	andmi	r1, r6, r1, lsl #4
     e58:	19429718 	stmdbne	r2, {r3, r4, r8, r9, sl, ip, pc}^
     e5c:	00001301 	andeq	r1, r0, r1, lsl #6
     e60:	03000513 	movweq	r0, #1299	; 0x513
     e64:	3b0b3a0e 	blcc	2cf6a4 <__bss_end__+0x2c5314>
     e68:	0213490b 	andseq	r4, r3, #180224	; 0x2c000
     e6c:	14000017 	strne	r0, [r0], #-23
     e70:	08030005 	stmdaeq	r3, {r0, r2}
     e74:	0b3b0b3a 	bleq	ec3b64 <__bss_end__+0xeb97d4>
     e78:	17021349 	strne	r1, [r2, -r9, asr #6]
     e7c:	34150000 	ldrcc	r0, [r5], #-0
     e80:	3a080300 	bcc	201a88 <__bss_end__+0x1f76f8>
     e84:	490b3b0b 	stmdbmi	fp, {r0, r1, r3, r8, r9, fp, ip, sp}
     e88:	00180213 	andseq	r0, r8, r3, lsl r2
     e8c:	00341600 	eorseq	r1, r4, r0, lsl #12
     e90:	0b3a0803 	bleq	e82ea4 <__bss_end__+0xe78b14>
     e94:	13490b3b 	movtne	r0, #39739	; 0x9b3b
     e98:	00001702 	andeq	r1, r0, r2, lsl #14
     e9c:	11010b17 	tstne	r1, r7, lsl fp
     ea0:	01061201 	tsteq	r6, r1, lsl #4
     ea4:	18000013 	stmdane	r0, {r0, r1, r4}
     ea8:	0e030034 	mcreq	0, 0, r0, cr3, cr4, {1}
     eac:	0b3b0b3a 	bleq	ec3b9c <__bss_end__+0xeb980c>
     eb0:	18021349 	stmdane	r2, {r0, r3, r6, r8, r9, ip}
     eb4:	1d190000 	ldcne	0, cr0, [r9, #-0]
     eb8:	11133101 	tstne	r3, r1, lsl #2
     ebc:	58061201 	stmdapl	r6, {r0, r9, ip}
     ec0:	010b590b 	tsteq	fp, fp, lsl #18
     ec4:	1a000013 	bne	f18 <_start-0x70e8>
     ec8:	13310005 	teqne	r1, #5
     ecc:	00001702 	andeq	r1, r0, r2, lsl #14
     ed0:	3100051b 	tstcc	r0, fp, lsl r5
     ed4:	00180213 	andseq	r0, r8, r3, lsl r2
     ed8:	00051c00 	andeq	r1, r5, r0, lsl #24
     edc:	0b1c1331 	bleq	705ba8 <__bss_end__+0x6fb818>
     ee0:	0b1d0000 	bleq	740ee8 <__bss_end__+0x736b58>
     ee4:	12011101 	andne	r1, r1, #1073741824	; 0x40000000
     ee8:	1e000006 	cdpne	0, 0, cr0, cr0, cr6, {0}
     eec:	13310034 	teqne	r1, #52	; 0x34
     ef0:	00001702 	andeq	r1, r0, r2, lsl #14
     ef4:	0182891f 	orreq	r8, r2, pc, lsl r9
     ef8:	31011101 	tstcc	r1, r1, lsl #2
     efc:	20000013 	andcs	r0, r0, r3, lsl r0
     f00:	0001828a 	andeq	r8, r1, sl, lsl #5
     f04:	42911802 	addsmi	r1, r1, #131072	; 0x20000
     f08:	21000018 	tstcs	r0, r8, lsl r0
     f0c:	1331011d 	teqne	r1, #1073741831	; 0x40000007
     f10:	06120111 			; <UNDEFINED> instruction: 0x06120111
     f14:	0b590b58 	bleq	1643c7c <__bss_end__+0x16398ec>
     f18:	2e220000 	cdpcs	0, 2, cr0, cr2, cr0, {0}
     f1c:	3a0e0301 	bcc	381b28 <__bss_end__+0x377798>
     f20:	270b3b0b 	strcs	r3, [fp, -fp, lsl #22]
     f24:	20134919 	andscs	r4, r3, r9, lsl r9
     f28:	0013010b 	andseq	r0, r3, fp, lsl #2
     f2c:	012e2300 	teqeq	lr, r0, lsl #6
     f30:	0e03193f 	mcreq	9, 0, r1, cr3, cr15, {1}
     f34:	0b3b0b3a 	bleq	ec3c24 <__bss_end__+0xeb9894>
     f38:	13491927 	movtne	r1, #39207	; 0x9927
     f3c:	06120111 			; <UNDEFINED> instruction: 0x06120111
     f40:	42971840 	addsmi	r1, r7, #64, 16	; 0x400000
     f44:	00130119 	andseq	r0, r3, r9, lsl r1
     f48:	82892400 	addhi	r2, r9, #0, 8
     f4c:	01110001 	tsteq	r1, r1
     f50:	00001331 	andeq	r1, r0, r1, lsr r3
     f54:	01828925 	orreq	r8, r2, r5, lsr #18
     f58:	31011101 	tstcc	r1, r1, lsl #2
     f5c:	00130113 	andseq	r0, r3, r3, lsl r1
     f60:	00342600 	eorseq	r2, r4, r0, lsl #12
     f64:	0b3a0e03 	bleq	e84778 <__bss_end__+0xe7a3e8>
     f68:	13490b3b 	movtne	r0, #39739	; 0x9b3b
     f6c:	00001702 	andeq	r1, r0, r2, lsl #14
     f70:	31000527 	tstcc	r0, r7, lsr #10
     f74:	28000013 	stmdacs	r0, {r0, r1, r4}
     f78:	0e030005 	cdpeq	0, 0, cr0, cr3, cr5, {0}
     f7c:	0b3b0b3a 	bleq	ec3c6c <__bss_end__+0xeb98dc>
     f80:	18021349 	stmdane	r2, {r0, r3, r6, r8, r9, ip}
     f84:	34290000 	strtcc	r0, [r9], #-0
     f88:	490e0300 	stmdbmi	lr, {r8, r9}
     f8c:	02193413 	andseq	r3, r9, #318767104	; 0x13000000
     f90:	2a000018 	bcs	ff8 <_start-0x7008>
     f94:	13490101 	movtne	r0, #37121	; 0x9101
     f98:	00001301 	andeq	r1, r0, r1, lsl #6
     f9c:	4900212b 	stmdbmi	r0, {r0, r1, r3, r5, r8, sp}
     fa0:	000b2f13 	andeq	r2, fp, r3, lsl pc
     fa4:	00342c00 	eorseq	r2, r4, r0, lsl #24
     fa8:	0b3a0803 	bleq	e82fbc <__bss_end__+0xe78c2c>
     fac:	13490b3b 	movtne	r0, #39739	; 0x9b3b
     fb0:	0000061c 	andeq	r0, r0, ip, lsl r6
     fb4:	0300342d 	movweq	r3, #1069	; 0x42d
     fb8:	3b0b3a08 	blcc	2cf7e0 <__bss_end__+0x2c5450>
     fbc:	1c13490b 	ldcne	9, cr4, [r3], {11}
     fc0:	2e00000b 	cdpcs	0, 0, cr0, cr0, cr11, {0}
     fc4:	08030005 	stmdaeq	r3, {r0, r2}
     fc8:	0b3b0b3a 	bleq	ec3cb8 <__bss_end__+0xeb9928>
     fcc:	18021349 	stmdane	r2, {r0, r3, r6, r8, r9, ip}
     fd0:	182f0000 	stmdane	pc!, {}	; <UNPREDICTABLE>
     fd4:	30000000 	andcc	r0, r0, r0
     fd8:	13490021 	movtne	r0, #36897	; 0x9021
     fdc:	0000052f 	andeq	r0, r0, pc, lsr #10
     fe0:	3f012e31 	svccc	0x00012e31
     fe4:	3a0e0319 	bcc	381c50 <__bss_end__+0x3778c0>
     fe8:	270b3b0b 	strcs	r3, [fp, -fp, lsl #22]
     fec:	01193c19 	tsteq	r9, r9, lsl ip
     ff0:	32000013 	andcc	r0, r0, #19
     ff4:	13490005 	movtne	r0, #36869	; 0x9005
     ff8:	2e330000 	cdpcs	0, 3, cr0, cr3, cr0, {0}
     ffc:	03193f00 	tsteq	r9, #0, 30
    1000:	3b0b3a0e 	blcc	2cf840 <__bss_end__+0x2c54b0>
    1004:	4919270b 	ldmdbmi	r9, {r0, r1, r3, r8, r9, sl, sp}
    1008:	00193c13 	andseq	r3, r9, r3, lsl ip
    100c:	012e3400 	teqeq	lr, r0, lsl #8
    1010:	0e03193f 	mcreq	9, 0, r1, cr3, cr15, {1}
    1014:	0b3b0b3a 	bleq	ec3d04 <__bss_end__+0xeb9974>
    1018:	13491927 	movtne	r1, #39207	; 0x9927
    101c:	1301193c 	movwne	r1, #6460	; 0x193c
    1020:	2e350000 	cdpcs	0, 3, cr0, cr5, cr0, {0}
    1024:	03193f00 	tsteq	r9, #0, 30
    1028:	3b0b3a0e 	blcc	2cf868 <__bss_end__+0x2c54d8>
    102c:	3c19270b 	ldccc	7, cr2, [r9], {11}
    1030:	36000019 			; <UNDEFINED> instruction: 0x36000019
    1034:	193f012e 	ldmdbne	pc!, {r1, r2, r3, r5, r8}	; <UNPREDICTABLE>
    1038:	0b3a0e03 	bleq	e8484c <__bss_end__+0xe7a4bc>
    103c:	19270b3b 	stmdbne	r7!, {r0, r1, r3, r4, r5, r8, r9, fp}
    1040:	193c1349 	ldmdbne	ip!, {r0, r3, r6, r8, r9, ip}
    1044:	01000000 	mrseq	r0, (UNDEF: 0)
    1048:	0e250111 	mcreq	1, 1, r0, cr5, cr1, {0}
    104c:	0e030b13 	vmoveq.32	d3[0], r0
    1050:	01110e1b 	tsteq	r1, fp, lsl lr
    1054:	17100612 			; <UNDEFINED> instruction: 0x17100612
    1058:	24020000 	strcs	r0, [r2], #-0
    105c:	3e0b0b00 	vmlacc.f64	d0, d11, d0
    1060:	0008030b 	andeq	r0, r8, fp, lsl #6
    1064:	00240300 	eoreq	r0, r4, r0, lsl #6
    1068:	0b3e0b0b 	bleq	f83c9c <__bss_end__+0xf7990c>
    106c:	00000e03 	andeq	r0, r0, r3, lsl #28
    1070:	0b010404 	bleq	42088 <__bss_end__+0x37cf8>
    1074:	3b0b3a0b 	blcc	2cf8a8 <__bss_end__+0x2c5518>
    1078:	0013010b 	andseq	r0, r3, fp, lsl #2
    107c:	00280500 	eoreq	r0, r8, r0, lsl #10
    1080:	0d1c0e03 	ldceq	14, cr0, [ip, #-12]
    1084:	16060000 	strne	r0, [r6], -r0
    1088:	3a0e0300 	bcc	381c90 <__bss_end__+0x377900>
    108c:	490b3b0b 	stmdbmi	fp, {r0, r1, r3, r8, r9, fp, ip, sp}
    1090:	07000013 	smladeq	r0, r3, r0, r0
    1094:	193f012e 	ldmdbne	pc!, {r1, r2, r3, r5, r8}	; <UNPREDICTABLE>
    1098:	0b3a0e03 	bleq	e848ac <__bss_end__+0xe7a51c>
    109c:	19270b3b 	stmdbne	r7!, {r0, r1, r3, r4, r5, r8, r9, fp}
    10a0:	06120111 			; <UNDEFINED> instruction: 0x06120111
    10a4:	42971840 	addsmi	r1, r7, #64, 16	; 0x400000
    10a8:	00130119 	andseq	r0, r3, r9, lsl r1
    10ac:	82890800 	addhi	r0, r9, #0, 16
    10b0:	01110001 	tsteq	r1, r1
    10b4:	00001331 	andeq	r1, r0, r1, lsr r3
    10b8:	01828909 	orreq	r8, r2, r9, lsl #18
    10bc:	31011101 	tstcc	r1, r1, lsl #2
    10c0:	00130113 	andseq	r0, r3, r3, lsl r1
    10c4:	828a0a00 	addhi	r0, sl, #0, 20
    10c8:	18020001 	stmdane	r2, {r0}
    10cc:	00184291 	mulseq	r8, r1, r2
    10d0:	012e0b00 	teqeq	lr, r0, lsl #22
    10d4:	0e03193f 	mcreq	9, 0, r1, cr3, cr15, {1}
    10d8:	0b3b0b3a 	bleq	ec3dc8 <__bss_end__+0xeb9a38>
    10dc:	13491927 	movtne	r1, #39207	; 0x9927
    10e0:	06120111 			; <UNDEFINED> instruction: 0x06120111
    10e4:	42971840 	addsmi	r1, r7, #64, 16	; 0x400000
    10e8:	00130119 	andseq	r0, r3, r9, lsl r1
    10ec:	00050c00 	andeq	r0, r5, r0, lsl #24
    10f0:	0b3a0803 	bleq	e83104 <__bss_end__+0xe78d74>
    10f4:	13490b3b 	movtne	r0, #39739	; 0x9b3b
    10f8:	00001702 	andeq	r1, r0, r2, lsl #14
    10fc:	0182890d 	orreq	r8, r2, sp, lsl #18
    1100:	31011101 	tstcc	r1, r1, lsl #2
    1104:	0e000013 	mcreq	0, 0, r0, cr0, cr3, {0}
    1108:	0e030034 	mcreq	0, 0, r0, cr3, cr4, {1}
    110c:	0b3b0b3a 	bleq	ec3dfc <__bss_end__+0xeb9a6c>
    1110:	193f1349 	ldmdbne	pc!, {r0, r3, r6, r8, r9, ip}	; <UNPREDICTABLE>
    1114:	00001802 	andeq	r1, r0, r2, lsl #16
    1118:	0b000f0f 	bleq	4d5c <_start-0x32a4>
    111c:	0013490b 	andseq	r4, r3, fp, lsl #18
    1120:	00351000 	eorseq	r1, r5, r0
    1124:	00001349 	andeq	r1, r0, r9, asr #6
    1128:	3f002e11 	svccc	0x00002e11
    112c:	3a0e0319 	bcc	381d98 <__bss_end__+0x377a08>
    1130:	270b3b0b 	strcs	r3, [fp, -fp, lsl #22]
    1134:	00193c19 	andseq	r3, r9, r9, lsl ip
    1138:	012e1200 	teqeq	lr, r0, lsl #4
    113c:	0e03193f 	mcreq	9, 0, r1, cr3, cr15, {1}
    1140:	0b3b0b3a 	bleq	ec3e30 <__bss_end__+0xeb9aa0>
    1144:	193c1927 	ldmdbne	ip!, {r0, r1, r2, r5, r8, fp, ip}
    1148:	00001301 	andeq	r1, r0, r1, lsl #6
    114c:	49000513 	stmdbmi	r0, {r0, r1, r4, r8, sl}
    1150:	14000013 	strne	r0, [r0], #-19
    1154:	193f012e 	ldmdbne	pc!, {r1, r2, r3, r5, r8}	; <UNPREDICTABLE>
    1158:	0b3a0e03 	bleq	e8496c <__bss_end__+0xe7a5dc>
    115c:	19270b3b 	stmdbne	r7!, {r0, r1, r3, r4, r5, r8, r9, fp}
    1160:	193c1349 	ldmdbne	ip!, {r0, r3, r6, r8, r9, ip}
    1164:	00001301 	andeq	r1, r0, r1, lsl #6
    1168:	49002615 	stmdbmi	r0, {r0, r2, r4, r9, sl, sp}
    116c:	16000013 			; <UNDEFINED> instruction: 0x16000013
    1170:	00000035 	andeq	r0, r0, r5, lsr r0
    1174:	01110100 	tsteq	r1, r0, lsl #2
    1178:	0b130e25 	bleq	4c4a14 <__bss_end__+0x4ba684>
    117c:	0e1b0e03 	cdpeq	14, 1, cr0, cr11, cr3, {0}
    1180:	06120111 			; <UNDEFINED> instruction: 0x06120111
    1184:	00001710 	andeq	r1, r0, r0, lsl r7
    1188:	0b002402 	bleq	a198 <__bss_start__+0x214>
    118c:	030b3e0b 	movweq	r3, #48651	; 0xbe0b
    1190:	03000008 	movweq	r0, #8
    1194:	0e030016 	mcreq	0, 0, r0, cr3, cr6, {0}
    1198:	0b3b0b3a 	bleq	ec3e88 <__bss_end__+0xeb9af8>
    119c:	00001349 	andeq	r1, r0, r9, asr #6
    11a0:	0b002404 	bleq	a1b8 <__bss_start__+0x234>
    11a4:	030b3e0b 	movweq	r3, #48651	; 0xbe0b
    11a8:	0500000e 	streq	r0, [r0, #-14]
    11ac:	0b0b000f 	bleq	2c11f0 <__bss_end__+0x2b6e60>
    11b0:	13060000 	movwne	r0, #24576	; 0x6000
    11b4:	3a0b0b01 	bcc	2c3dc0 <__bss_end__+0x2b9a30>
    11b8:	010b3b0b 	tsteq	fp, fp, lsl #22
    11bc:	07000013 	smladeq	r0, r3, r0, r0
    11c0:	0803000d 	stmdaeq	r3, {r0, r2, r3}
    11c4:	0b3b0b3a 	bleq	ec3eb4 <__bss_end__+0xeb9b24>
    11c8:	0b381349 	bleq	e05ef4 <__bss_end__+0xdfbb64>
    11cc:	0d080000 	stceq	0, cr0, [r8, #-0]
    11d0:	3a0e0300 	bcc	381dd8 <__bss_end__+0x377a48>
    11d4:	490b3b0b 	stmdbmi	fp, {r0, r1, r3, r8, r9, fp, ip, sp}
    11d8:	000b3813 	andeq	r3, fp, r3, lsl r8
    11dc:	01040900 	tsteq	r4, r0, lsl #18
    11e0:	0b3a0b0b 	bleq	e83e14 <__bss_end__+0xe79a84>
    11e4:	13010b3b 	movwne	r0, #6971	; 0x1b3b
    11e8:	280a0000 	stmdacs	sl, {}	; <UNPREDICTABLE>
    11ec:	1c0e0300 	stcne	3, cr0, [lr], {-0}
    11f0:	0b00000d 	bleq	122c <_start-0x6dd4>
    11f4:	193f012e 	ldmdbne	pc!, {r1, r2, r3, r5, r8}	; <UNPREDICTABLE>
    11f8:	0b3a0e03 	bleq	e84a0c <__bss_end__+0xe7a67c>
    11fc:	19270b3b 	stmdbne	r7!, {r0, r1, r3, r4, r5, r8, r9, fp}
    1200:	01111349 	tsteq	r1, r9, asr #6
    1204:	18400612 	stmdane	r0, {r1, r4, r9, sl}^
    1208:	01194297 			; <UNDEFINED> instruction: 0x01194297
    120c:	0c000013 	stceq	0, cr0, [r0], {19}
    1210:	08030034 	stmdaeq	r3, {r2, r4, r5}
    1214:	0b3b0b3a 	bleq	ec3f04 <__bss_end__+0xeb9b74>
    1218:	061c1349 	ldreq	r1, [ip], -r9, asr #6
    121c:	890d0000 	stmdbhi	sp, {}	; <UNPREDICTABLE>
    1220:	11010182 	smlabbne	r1, r2, r1, r0
    1224:	00133101 	andseq	r3, r3, r1, lsl #2
    1228:	828a0e00 	addhi	r0, sl, #0, 28
    122c:	18020001 	stmdane	r2, {r0}
    1230:	00184291 	mulseq	r8, r1, r2
    1234:	000f0f00 	andeq	r0, pc, r0, lsl #30
    1238:	13490b0b 	movtne	r0, #39691	; 0x9b0b
    123c:	2e100000 	cdpcs	0, 1, cr0, cr0, cr0, {0}
    1240:	03193f01 	tsteq	r9, #1, 30
    1244:	3b0b3a0e 	blcc	2cfa84 <__bss_end__+0x2c56f4>
    1248:	4919270b 	ldmdbmi	r9, {r0, r1, r3, r8, r9, sl, sp}
    124c:	00193c13 	andseq	r3, r9, r3, lsl ip
    1250:	00051100 	andeq	r1, r5, r0, lsl #2
    1254:	00001349 	andeq	r1, r0, r9, asr #6
    1258:	01110100 	tsteq	r1, r0, lsl #2
    125c:	0b130e25 	bleq	4c4af8 <__bss_end__+0x4ba768>
    1260:	0e1b0e03 	cdpeq	14, 1, cr0, cr11, cr3, {0}
    1264:	06120111 			; <UNDEFINED> instruction: 0x06120111
    1268:	00001710 	andeq	r1, r0, r0, lsl r7
    126c:	0b002402 	bleq	a27c <__bss_start__+0x2f8>
    1270:	030b3e0b 	movweq	r3, #48651	; 0xbe0b
    1274:	0300000e 	movweq	r0, #14
    1278:	0b0b0024 	bleq	2c1310 <__bss_end__+0x2b6f80>
    127c:	08030b3e 	stmdaeq	r3, {r1, r2, r3, r4, r5, r8, r9, fp}
    1280:	0f040000 	svceq	0x00040000
    1284:	000b0b00 	andeq	r0, fp, r0, lsl #22
    1288:	000f0500 	andeq	r0, pc, r0, lsl #10
    128c:	13490b0b 	movtne	r0, #39691	; 0x9b0b
    1290:	16060000 	strne	r0, [r6], -r0
    1294:	3a0e0300 	bcc	381e9c <__bss_end__+0x377b0c>
    1298:	490b3b0b 	stmdbmi	fp, {r0, r1, r3, r8, r9, fp, ip, sp}
    129c:	07000013 	smladeq	r0, r3, r0, r0
    12a0:	193f012e 	ldmdbne	pc!, {r1, r2, r3, r5, r8}	; <UNPREDICTABLE>
    12a4:	0b3a0e03 	bleq	e84ab8 <__bss_end__+0xe7a728>
    12a8:	19270b3b 	stmdbne	r7!, {r0, r1, r3, r4, r5, r8, r9, fp}
    12ac:	01111349 	tsteq	r1, r9, asr #6
    12b0:	18400612 	stmdane	r0, {r1, r4, r9, sl}^
    12b4:	00194297 	mulseq	r9, r7, r2
    12b8:	00050800 	andeq	r0, r5, r0, lsl #16
    12bc:	0b3a0803 	bleq	e832d0 <__bss_end__+0xe78f40>
    12c0:	13490b3b 	movtne	r0, #39739	; 0x9b3b
    12c4:	00001802 	andeq	r1, r0, r2, lsl #16
    12c8:	03000509 	movweq	r0, #1289	; 0x509
    12cc:	3b0b3a08 	blcc	2cfaf4 <__bss_end__+0x2c5764>
    12d0:	0213490b 	andseq	r4, r3, #180224	; 0x2c000
    12d4:	0a000017 	beq	1338 <_start-0x6cc8>
    12d8:	08030034 	stmdaeq	r3, {r2, r4, r5}
    12dc:	0b3b0b3a 	bleq	ec3fcc <__bss_end__+0xeb9c3c>
    12e0:	17021349 	strne	r1, [r2, -r9, asr #6]
    12e4:	340b0000 	strcc	r0, [fp], #-0
    12e8:	3a080300 	bcc	201ef0 <__bss_end__+0x1f7b60>
    12ec:	490b3b0b 	stmdbmi	fp, {r0, r1, r3, r8, r9, fp, ip, sp}
    12f0:	00180213 	andseq	r0, r8, r3, lsl r2
	...

Disassembly of section .debug_loc:

00000000 <.debug_loc>:
       0:	00000000 	andeq	r0, r0, r0
       4:	00000018 	andeq	r0, r0, r8, lsl r0
       8:	18500001 	ldmdane	r0, {r0}^
       c:	28000000 	stmdacs	r0, {}	; <UNPREDICTABLE>
      10:	04000000 	streq	r0, [r0], #-0
      14:	5001f300 	andpl	pc, r1, r0, lsl #6
      18:	0000289f 	muleq	r0, pc, r8	; <UNPREDICTABLE>
      1c:	00002b00 	andeq	r2, r0, r0, lsl #22
      20:	50000100 	andpl	r0, r0, r0, lsl #2
      24:	0000002b 	andeq	r0, r0, fp, lsr #32
      28:	00000050 	andeq	r0, r0, r0, asr r0
      2c:	01f30004 	mvnseq	r0, r4
      30:	00009f50 	andeq	r9, r0, r0, asr pc
      34:	00000000 	andeq	r0, r0, r0
      38:	00200000 	eoreq	r0, r0, r0
      3c:	00240000 	eoreq	r0, r4, r0
      40:	00010000 	andeq	r0, r1, r0
      44:	00000050 	andeq	r0, r0, r0, asr r0
      48:	00000000 	andeq	r0, r0, r0
      4c:	00005000 	andeq	r5, r0, r0
      50:	00011400 	andeq	r1, r1, r0, lsl #8
      54:	50000100 	andpl	r0, r0, r0, lsl #2
      58:	00000114 	andeq	r0, r0, r4, lsl r1
      5c:	000001ec 	andeq	r0, r0, ip, ror #3
      60:	01f30004 	mvnseq	r0, r4
      64:	00009f50 	andeq	r9, r0, r0, asr pc
      68:	00000000 	andeq	r0, r0, r0
      6c:	00500000 	subseq	r0, r0, r0
      70:	019c0000 	orrseq	r0, ip, r0
      74:	00020000 	andeq	r0, r2, r0
      78:	019c9f30 	orrseq	r9, ip, r0, lsr pc
      7c:	01a00000 	moveq	r0, r0
      80:	00260000 	eoreq	r0, r6, r0
      84:	24310075 	ldrtcs	r0, [r1], #-117	; 0x75
      88:	24320076 	ldrtcs	r0, [r2], #-118	; 0x76
      8c:	33007c21 	movwcc	r7, #3105	; 0xc21
      90:	00712124 	rsbseq	r2, r1, r4, lsr #2
      94:	77212434 			; <UNDEFINED> instruction: 0x77212434
      98:	21243500 	teqcs	r4, r0, lsl #10
      9c:	24360079 	ldrtcs	r0, [r6], #-121	; 0x79
      a0:	37007021 	strcc	r7, [r0, -r1, lsr #32]
      a4:	00742124 	rsbseq	r2, r4, r4, lsr #2
      a8:	00009f21 	andeq	r9, r0, r1, lsr #30
      ac:	00000000 	andeq	r0, r0, r0
      b0:	00500000 	subseq	r0, r0, r0
      b4:	00900000 	addseq	r0, r0, r0
      b8:	00020000 	andeq	r0, r2, r0
      bc:	00909f30 	addseq	r9, r0, r0, lsr pc
      c0:	01a80000 			; <UNDEFINED> instruction: 0x01a80000
      c4:	00010000 	andeq	r0, r1, r0
      c8:	00000054 	andeq	r0, r0, r4, asr r0
      cc:	00000000 	andeq	r0, r0, r0
      d0:	00005000 	andeq	r5, r0, r0
      d4:	0000b400 	andeq	fp, r0, r0, lsl #8
      d8:	30000200 	andcc	r0, r0, r0, lsl #4
      dc:	0000b49f 	muleq	r0, pc, r4	; <UNPREDICTABLE>
      e0:	0001a400 	andeq	sl, r1, r0, lsl #8
      e4:	55000100 	strpl	r0, [r0, #-256]	; 0x100
	...
      f0:	00000050 	andeq	r0, r0, r0, asr r0
      f4:	000000d8 	ldrdeq	r0, [r0], -r8
      f8:	9f300002 	svcls	0x00300002
      fc:	000000d8 	ldrdeq	r0, [r0], -r8
     100:	000001a0 	andeq	r0, r0, r0, lsr #3
     104:	00560001 	subseq	r0, r6, r1
     108:	00000000 	andeq	r0, r0, r0
     10c:	50000000 	andpl	r0, r0, r0
     110:	fc000000 	stc2	0, cr0, [r0], {-0}
     114:	02000000 	andeq	r0, r0, #0
     118:	fc9f3000 	ldc2	0, cr3, [pc], {0}
     11c:	ac000000 	stcge	0, cr0, [r0], {-0}
     120:	01000001 	tsteq	r0, r1
     124:	00005c00 	andeq	r5, r0, r0, lsl #24
     128:	00000000 	andeq	r0, r0, r0
     12c:	00500000 	subseq	r0, r0, r0
     130:	01200000 	teqeq	r0, r0
     134:	00020000 	andeq	r0, r2, r0
     138:	01209f30 	teqeq	r0, r0, lsr pc
     13c:	01b00000 	movseq	r0, r0
     140:	00010000 	andeq	r0, r1, r0
     144:	00000051 	andeq	r0, r0, r1, asr r0
     148:	00000000 	andeq	r0, r0, r0
     14c:	00005000 	andeq	r5, r0, r0
     150:	00014400 	andeq	r4, r1, r0, lsl #8
     154:	30000200 	andcc	r0, r0, r0, lsl #4
     158:	0001449f 	muleq	r1, pc, r4	; <UNPREDICTABLE>
     15c:	0001b400 	andeq	fp, r1, r0, lsl #8
     160:	57000100 	strpl	r0, [r0, -r0, lsl #2]
	...
     16c:	00000050 	andeq	r0, r0, r0, asr r0
     170:	00000168 	andeq	r0, r0, r8, ror #2
     174:	9f300002 	svcls	0x00300002
     178:	00000168 	andeq	r0, r0, r8, ror #2
     17c:	000001b8 			; <UNDEFINED> instruction: 0x000001b8
     180:	00590001 	subseq	r0, r9, r1
     184:	00000000 	andeq	r0, r0, r0
     188:	50000000 	andpl	r0, r0, r0
     18c:	8c000000 	stchi	0, cr0, [r0], {-0}
     190:	02000001 	andeq	r0, r0, #1
     194:	8c9f3000 	ldchi	0, cr3, [pc], {0}
     198:	bc000001 	stclt	0, cr0, [r0], {1}
     19c:	01000001 	tsteq	r0, r1
     1a0:	00005000 	andeq	r5, r0, r0
     1a4:	00000000 	andeq	r0, r0, r0
     1a8:	00700000 	rsbseq	r0, r0, r0
     1ac:	00740000 	rsbseq	r0, r4, r0
     1b0:	00010000 	andeq	r0, r1, r0
     1b4:	00000052 	andeq	r0, r0, r2, asr r0
     1b8:	00000000 	andeq	r0, r0, r0
     1bc:	00009400 	andeq	r9, r0, r0, lsl #8
     1c0:	00009800 	andeq	r9, r0, r0, lsl #16
     1c4:	52000100 	andpl	r0, r0, #0, 2
	...
     1d0:	000000b8 	strheq	r0, [r0], -r8
     1d4:	000000bc 	strheq	r0, [r0], -ip
     1d8:	00520001 	subseq	r0, r2, r1
     1dc:	00000000 	andeq	r0, r0, r0
     1e0:	dc000000 	stcle	0, cr0, [r0], {-0}
     1e4:	e0000000 	and	r0, r0, r0
     1e8:	01000000 	mrseq	r0, (UNDEF: 0)
     1ec:	00005200 	andeq	r5, r0, r0, lsl #4
     1f0:	00000000 	andeq	r0, r0, r0
     1f4:	01000000 	mrseq	r0, (UNDEF: 0)
     1f8:	01040000 	mrseq	r0, (UNDEF: 4)
     1fc:	00010000 	andeq	r0, r1, r0
     200:	00000052 	andeq	r0, r0, r2, asr r0
     204:	00000000 	andeq	r0, r0, r0
     208:	00012400 	andeq	r2, r1, r0, lsl #8
     20c:	00012800 	andeq	r2, r1, r0, lsl #16
     210:	52000100 	andpl	r0, r0, #0, 2
	...
     21c:	00000148 	andeq	r0, r0, r8, asr #2
     220:	0000014c 	andeq	r0, r0, ip, asr #2
     224:	00520001 	subseq	r0, r2, r1
     228:	00000000 	andeq	r0, r0, r0
     22c:	6c000000 	stcvs	0, cr0, [r0], {-0}
     230:	70000001 	andvc	r0, r0, r1
     234:	01000001 	tsteq	r0, r1
     238:	00005200 	andeq	r5, r0, r0, lsl #4
     23c:	00000000 	andeq	r0, r0, r0
     240:	01900000 	orrseq	r0, r0, r0
     244:	01940000 	orrseq	r0, r4, r0
     248:	00010000 	andeq	r0, r1, r0
     24c:	00000052 	andeq	r0, r0, r2, asr r0
     250:	00000000 	andeq	r0, r0, r0
     254:	0001ec00 	andeq	lr, r1, r0, lsl #24
     258:	0001f700 	andeq	pc, r1, r0, lsl #14
     25c:	50000100 	andpl	r0, r0, r0, lsl #2
     260:	000001f7 	strdeq	r0, [r0], -r7
     264:	00000224 	andeq	r0, r0, r4, lsr #4
     268:	24540001 	ldrbcs	r0, [r4], #-1
     26c:	2c000002 	stccs	0, cr0, [r0], {2}
     270:	04000002 	streq	r0, [r0], #-2
     274:	5001f300 	andpl	pc, r1, r0, lsl #6
     278:	0000009f 	muleq	r0, pc, r0	; <UNPREDICTABLE>
     27c:	00000000 	andeq	r0, r0, r0
     280:	0001ec00 	andeq	lr, r1, r0, lsl #24
     284:	0001fc00 	andeq	pc, r1, r0, lsl #24
     288:	30000200 	andcc	r0, r0, r0, lsl #4
     28c:	0001fc9f 	muleq	r1, pc, ip	; <UNPREDICTABLE>
     290:	00020000 	andeq	r0, r2, r0
     294:	70000600 	andvc	r0, r0, r0, lsl #12
     298:	1aff0800 	bne	fffc22a0 <__bss_end__+0xfffb7f10>
     29c:	0002009f 	muleq	r2, pc, r0	; <UNPREDICTABLE>
     2a0:	00020800 	andeq	r0, r2, r0, lsl #16
     2a4:	75000600 	strvc	r0, [r0, #-1536]	; 0x600
     2a8:	1aff0800 	bne	fffc22b0 <__bss_end__+0xfffb7f20>
     2ac:	0002089f 	muleq	r2, pc, r8	; <UNPREDICTABLE>
     2b0:	00020c00 	andeq	r0, r2, r0, lsl #24
     2b4:	70000e00 	andvc	r0, r0, r0, lsl #28
     2b8:	1aff0800 	bne	fffc22c0 <__bss_end__+0xfffb7f30>
     2bc:	00752438 	rsbseq	r2, r5, r8, lsr r4
     2c0:	211aff08 	tstcs	sl, r8, lsl #30
     2c4:	00020c9f 	muleq	r2, pc, ip	; <UNPREDICTABLE>
     2c8:	00021800 	andeq	r1, r2, r0, lsl #16
     2cc:	76000e00 	strvc	r0, [r0], -r0, lsl #28
     2d0:	1aff0800 	bne	fffc22d8 <__bss_end__+0xfffb7f48>
     2d4:	00752438 	rsbseq	r2, r5, r8, lsr r4
     2d8:	211aff08 	tstcs	sl, r8, lsl #30
     2dc:	0002249f 	muleq	r2, pc, r4	; <UNPREDICTABLE>
     2e0:	00022800 	andeq	r2, r2, r0, lsl #16
     2e4:	70000b00 	andvc	r0, r0, r0, lsl #22
     2e8:	1aff0800 	bne	fffc22f0 <__bss_end__+0xfffb7f60>
     2ec:	00742448 	rsbseq	r2, r4, r8, asr #8
     2f0:	00009f21 	andeq	r9, r0, r1, lsr #30
     2f4:	00000000 	andeq	r0, r0, r0
     2f8:	022c0000 	eoreq	r0, ip, #0
     2fc:	023c0000 	eorseq	r0, ip, #0
     300:	00010000 	andeq	r0, r1, r0
     304:	00023c50 	andeq	r3, r2, r0, asr ip
     308:	00043800 	andeq	r3, r4, r0, lsl #16
     30c:	f3000400 	vshl.u8	d0, d0, d0
     310:	009f5001 	addseq	r5, pc, r1
     314:	00000000 	andeq	r0, r0, r0
     318:	2c000000 	stccs	0, cr0, [r0], {-0}
     31c:	d4000002 	strle	r0, [r0], #-2
     320:	01000003 	tsteq	r0, r3
     324:	03d45100 	bicseq	r5, r4, #0, 2
     328:	04380000 	ldrteq	r0, [r8], #-0
     32c:	00040000 	andeq	r0, r4, r0
     330:	9f5101f3 	svcls	0x005101f3
	...
     33c:	0000022c 	andeq	r0, r0, ip, lsr #4
     340:	00000418 	andeq	r0, r0, r8, lsl r4
     344:	18520001 	ldmdane	r2, {r0}^
     348:	38000004 	stmdacc	r0, {r2}
     34c:	04000004 	streq	r0, [r0], #-4
     350:	5201f300 	andpl	pc, r1, #0, 6
     354:	0000009f 	muleq	r0, pc, r0	; <UNPREDICTABLE>
     358:	00000000 	andeq	r0, r0, r0
     35c:	00023400 	andeq	r3, r2, r0, lsl #8
     360:	00042c00 	andeq	r2, r4, r0, lsl #24
     364:	53000100 	movwpl	r0, #256	; 0x100
	...
     370:	00000234 	andeq	r0, r0, r4, lsr r2
     374:	0000023c 	andeq	r0, r0, ip, lsr r2
     378:	3c500001 	mrrccc	0, 0, r0, r0, cr1	; <UNPREDICTABLE>
     37c:	38000002 	stmdacc	r0, {r1}
     380:	04000004 	streq	r0, [r0], #-4
     384:	5001f300 	andpl	pc, r1, r0, lsl #6
     388:	0000009f 	muleq	r0, pc, r0	; <UNPREDICTABLE>
     38c:	00000000 	andeq	r0, r0, r0
     390:	00025000 	andeq	r5, r2, r0
     394:	00025400 	andeq	r5, r2, r0, lsl #8
     398:	5c000100 	stfpls	f0, [r0], {-0}
	...
     3a4:	0000025c 	andeq	r0, r0, ip, asr r2
     3a8:	000003d4 	ldrdeq	r0, [r0], -r4
     3ac:	00710008 	rsbseq	r0, r1, r8
     3b0:	ff081a31 			; <UNDEFINED> instruction: 0xff081a31
     3b4:	00009f1a 	andeq	r9, r0, sl, lsl pc
     3b8:	00000000 	andeq	r0, r0, r0
     3bc:	02640000 	rsbeq	r0, r4, #0
     3c0:	02980000 	addseq	r0, r8, #0
     3c4:	00080000 	andeq	r0, r8, r0
     3c8:	1a310071 	bne	c40594 <__bss_end__+0xc36204>
     3cc:	9f1aff08 	svcls	0x001aff08
     3d0:	00000298 	muleq	r0, r8, r2
     3d4:	000002cc 	andeq	r0, r0, ip, asr #5
     3d8:	00710008 	rsbseq	r0, r1, r8
     3dc:	ff081a32 			; <UNDEFINED> instruction: 0xff081a32
     3e0:	02cc9f1a 	sbceq	r9, ip, #26, 30	; 0x68
     3e4:	03000000 	movweq	r0, #0
     3e8:	00080000 	andeq	r0, r8, r0
     3ec:	1a340071 	bne	d005b8 <__bss_end__+0xcf6228>
     3f0:	9f1aff08 	svcls	0x001aff08
     3f4:	00000300 	andeq	r0, r0, r0, lsl #6
     3f8:	00000334 	andeq	r0, r0, r4, lsr r3
     3fc:	00710008 	rsbseq	r0, r1, r8
     400:	ff081a38 			; <UNDEFINED> instruction: 0xff081a38
     404:	03349f1a 	teqeq	r4, #26, 30	; 0x68
     408:	036c0000 	cmneq	ip, #0
     40c:	00080000 	andeq	r0, r8, r0
     410:	1a400071 	bne	10005dc <__bss_end__+0xff624c>
     414:	9f1aff08 	svcls	0x001aff08
     418:	0000036c 	andeq	r0, r0, ip, ror #6
     41c:	000003a4 	andeq	r0, r0, r4, lsr #7
     420:	00710009 	rsbseq	r0, r1, r9
     424:	081a2008 	ldmdaeq	sl, {r3, sp}
     428:	a49f1aff 	ldrge	r1, [pc], #2815	; 430 <_start-0x7bd0>
     42c:	d4000003 	strle	r0, [r0], #-3
     430:	09000003 	stmdbeq	r0, {r0, r1}
     434:	08007100 	stmdaeq	r0, {r8, ip, sp, lr}
     438:	ff081a40 			; <UNDEFINED> instruction: 0xff081a40
     43c:	04009f1a 	streq	r9, [r0], #-3866	; 0xf1a
     440:	04380000 	ldrteq	r0, [r8], #-0
     444:	00020000 	andeq	r0, r2, r0
     448:	00009f31 	andeq	r9, r0, r1, lsr pc
     44c:	00000000 	andeq	r0, r0, r0
     450:	02840000 	addeq	r0, r4, #0
     454:	02880000 	addeq	r0, r8, #0
     458:	00010000 	andeq	r0, r1, r0
     45c:	0000005c 	andeq	r0, r0, ip, asr r0
     460:	00000000 	andeq	r0, r0, r0
     464:	00029000 	andeq	r9, r2, r0
     468:	0003d400 	andeq	sp, r3, r0, lsl #8
     46c:	71000800 	tstvc	r0, r0, lsl #16
     470:	081a3200 	ldmdaeq	sl, {r9, ip, sp}
     474:	009f1aff 			; <UNDEFINED> instruction: 0x009f1aff
     478:	00000000 	andeq	r0, r0, r0
     47c:	98000000 	stmdals	r0, {}	; <UNPREDICTABLE>
     480:	cc000002 	stcgt	0, cr0, [r0], {2}
     484:	08000002 	stmdaeq	r0, {r1}
     488:	32007100 	andcc	r7, r0, #0, 2
     48c:	1aff081a 	bne	fffc24fc <__bss_end__+0xfffb816c>
     490:	0002cc9f 	muleq	r2, pc, ip	; <UNPREDICTABLE>
     494:	00030000 	andeq	r0, r3, r0
     498:	71000800 	tstvc	r0, r0, lsl #16
     49c:	081a3400 	ldmdaeq	sl, {sl, ip, sp}
     4a0:	009f1aff 			; <UNDEFINED> instruction: 0x009f1aff
     4a4:	34000003 	strcc	r0, [r0], #-3
     4a8:	08000003 	stmdaeq	r0, {r0, r1}
     4ac:	38007100 	stmdacc	r0, {r8, ip, sp, lr}
     4b0:	1aff081a 	bne	fffc2520 <__bss_end__+0xfffb8190>
     4b4:	0003349f 	muleq	r3, pc, r4	; <UNPREDICTABLE>
     4b8:	00036c00 	andeq	r6, r3, r0, lsl #24
     4bc:	71000800 	tstvc	r0, r0, lsl #16
     4c0:	081a4000 	ldmdaeq	sl, {lr}
     4c4:	6c9f1aff 	vldmiavs	pc, {s2-s256}
     4c8:	a4000003 	strge	r0, [r0], #-3
     4cc:	09000003 	stmdbeq	r0, {r0, r1}
     4d0:	08007100 	stmdaeq	r0, {r8, ip, sp, lr}
     4d4:	ff081a20 			; <UNDEFINED> instruction: 0xff081a20
     4d8:	03a49f1a 			; <UNDEFINED> instruction: 0x03a49f1a
     4dc:	03d40000 	bicseq	r0, r4, #0
     4e0:	00090000 	andeq	r0, r9, r0
     4e4:	40080071 	andmi	r0, r8, r1, ror r0
     4e8:	1aff081a 	bne	fffc2558 <__bss_end__+0xfffb81c8>
     4ec:	0004009f 	muleq	r4, pc, r0	; <UNPREDICTABLE>
     4f0:	00043800 	andeq	r3, r4, r0, lsl #16
     4f4:	31000200 	mrscc	r0, R8_usr
     4f8:	0000009f 	muleq	r0, pc, r0	; <UNPREDICTABLE>
     4fc:	00000000 	andeq	r0, r0, r0
     500:	0002b800 	andeq	fp, r2, r0, lsl #16
     504:	0002bc00 	andeq	fp, r2, r0, lsl #24
     508:	5c000100 	stfpls	f0, [r0], {-0}
	...
     514:	000002c4 	andeq	r0, r0, r4, asr #5
     518:	000003d4 	ldrdeq	r0, [r0], -r4
     51c:	00710008 	rsbseq	r0, r1, r8
     520:	ff081a34 			; <UNDEFINED> instruction: 0xff081a34
     524:	00009f1a 	andeq	r9, r0, sl, lsl pc
     528:	00000000 	andeq	r0, r0, r0
     52c:	02cc0000 	sbceq	r0, ip, #0
     530:	03000000 	movweq	r0, #0
     534:	00080000 	andeq	r0, r8, r0
     538:	1a340071 	bne	d00704 <__bss_end__+0xcf6374>
     53c:	9f1aff08 	svcls	0x001aff08
     540:	00000300 	andeq	r0, r0, r0, lsl #6
     544:	00000334 	andeq	r0, r0, r4, lsr r3
     548:	00710008 	rsbseq	r0, r1, r8
     54c:	ff081a38 			; <UNDEFINED> instruction: 0xff081a38
     550:	03349f1a 	teqeq	r4, #26, 30	; 0x68
     554:	036c0000 	cmneq	ip, #0
     558:	00080000 	andeq	r0, r8, r0
     55c:	1a400071 	bne	1000728 <__bss_end__+0xff6398>
     560:	9f1aff08 	svcls	0x001aff08
     564:	0000036c 	andeq	r0, r0, ip, ror #6
     568:	000003a4 	andeq	r0, r0, r4, lsr #7
     56c:	00710009 	rsbseq	r0, r1, r9
     570:	081a2008 	ldmdaeq	sl, {r3, sp}
     574:	a49f1aff 	ldrge	r1, [pc], #2815	; 57c <_start-0x7a84>
     578:	d4000003 	strle	r0, [r0], #-3
     57c:	09000003 	stmdbeq	r0, {r0, r1}
     580:	08007100 	stmdaeq	r0, {r8, ip, sp, lr}
     584:	ff081a40 			; <UNDEFINED> instruction: 0xff081a40
     588:	04009f1a 	streq	r9, [r0], #-3866	; 0xf1a
     58c:	04380000 	ldrteq	r0, [r8], #-0
     590:	00020000 	andeq	r0, r2, r0
     594:	00009f31 	andeq	r9, r0, r1, lsr pc
     598:	00000000 	andeq	r0, r0, r0
     59c:	02ec0000 	rsceq	r0, ip, #0
     5a0:	02f00000 	rscseq	r0, r0, #0
     5a4:	00010000 	andeq	r0, r1, r0
     5a8:	0000005c 	andeq	r0, r0, ip, asr r0
     5ac:	00000000 	andeq	r0, r0, r0
     5b0:	0002f800 	andeq	pc, r2, r0, lsl #16
     5b4:	0003d400 	andeq	sp, r3, r0, lsl #8
     5b8:	71000800 	tstvc	r0, r0, lsl #16
     5bc:	081a3800 	ldmdaeq	sl, {fp, ip, sp}
     5c0:	009f1aff 			; <UNDEFINED> instruction: 0x009f1aff
	...
     5cc:	34000003 	strcc	r0, [r0], #-3
     5d0:	08000003 	stmdaeq	r0, {r0, r1}
     5d4:	38007100 	stmdacc	r0, {r8, ip, sp, lr}
     5d8:	1aff081a 	bne	fffc2648 <__bss_end__+0xfffb82b8>
     5dc:	0003349f 	muleq	r3, pc, r4	; <UNPREDICTABLE>
     5e0:	00036c00 	andeq	r6, r3, r0, lsl #24
     5e4:	71000800 	tstvc	r0, r0, lsl #16
     5e8:	081a4000 	ldmdaeq	sl, {lr}
     5ec:	6c9f1aff 	vldmiavs	pc, {s2-s256}
     5f0:	a4000003 	strge	r0, [r0], #-3
     5f4:	09000003 	stmdbeq	r0, {r0, r1}
     5f8:	08007100 	stmdaeq	r0, {r8, ip, sp, lr}
     5fc:	ff081a20 			; <UNDEFINED> instruction: 0xff081a20
     600:	03a49f1a 			; <UNDEFINED> instruction: 0x03a49f1a
     604:	03d40000 	bicseq	r0, r4, #0
     608:	00090000 	andeq	r0, r9, r0
     60c:	40080071 	andmi	r0, r8, r1, ror r0
     610:	1aff081a 	bne	fffc2680 <__bss_end__+0xfffb82f0>
     614:	0004009f 	muleq	r4, pc, r0	; <UNPREDICTABLE>
     618:	00043800 	andeq	r3, r4, r0, lsl #16
     61c:	31000200 	mrscc	r0, R8_usr
     620:	0000009f 	muleq	r0, pc, r0	; <UNPREDICTABLE>
     624:	00000000 	andeq	r0, r0, r0
     628:	00032000 	andeq	r2, r3, r0
     62c:	00032400 	andeq	r2, r3, r0, lsl #8
     630:	5c000100 	stfpls	f0, [r0], {-0}
	...
     63c:	0000032c 	andeq	r0, r0, ip, lsr #6
     640:	000003d4 	ldrdeq	r0, [r0], -r4
     644:	00710008 	rsbseq	r0, r1, r8
     648:	ff081a40 			; <UNDEFINED> instruction: 0xff081a40
     64c:	00009f1a 	andeq	r9, r0, sl, lsl pc
     650:	00000000 	andeq	r0, r0, r0
     654:	03340000 	teqeq	r4, #0
     658:	036c0000 	cmneq	ip, #0
     65c:	00080000 	andeq	r0, r8, r0
     660:	1a400071 	bne	100082c <__bss_end__+0xff649c>
     664:	9f1aff08 	svcls	0x001aff08
     668:	0000036c 	andeq	r0, r0, ip, ror #6
     66c:	000003a4 	andeq	r0, r0, r4, lsr #7
     670:	00710009 	rsbseq	r0, r1, r9
     674:	081a2008 	ldmdaeq	sl, {r3, sp}
     678:	a49f1aff 	ldrge	r1, [pc], #2815	; 680 <_start-0x7980>
     67c:	d4000003 	strle	r0, [r0], #-3
     680:	09000003 	stmdbeq	r0, {r0, r1}
     684:	08007100 	stmdaeq	r0, {r8, ip, sp, lr}
     688:	ff081a40 			; <UNDEFINED> instruction: 0xff081a40
     68c:	04009f1a 	streq	r9, [r0], #-3866	; 0xf1a
     690:	04380000 	ldrteq	r0, [r8], #-0
     694:	00020000 	andeq	r0, r2, r0
     698:	00009f31 	andeq	r9, r0, r1, lsr pc
     69c:	00000000 	andeq	r0, r0, r0
     6a0:	03580000 	cmpeq	r8, #0
     6a4:	035c0000 	cmpeq	ip, #0
     6a8:	00010000 	andeq	r0, r1, r0
     6ac:	0000005c 	andeq	r0, r0, ip, asr r0
     6b0:	00000000 	andeq	r0, r0, r0
     6b4:	00036400 	andeq	r6, r3, r0, lsl #8
     6b8:	0003d400 	andeq	sp, r3, r0, lsl #8
     6bc:	71000900 	tstvc	r0, r0, lsl #18
     6c0:	1a200800 	bne	8026c8 <__bss_end__+0x7f8338>
     6c4:	9f1aff08 	svcls	0x001aff08
	...
     6d0:	0000036c 	andeq	r0, r0, ip, ror #6
     6d4:	000003a4 	andeq	r0, r0, r4, lsr #7
     6d8:	00710009 	rsbseq	r0, r1, r9
     6dc:	081a2008 	ldmdaeq	sl, {r3, sp}
     6e0:	a49f1aff 	ldrge	r1, [pc], #2815	; 6e8 <_start-0x7918>
     6e4:	d4000003 	strle	r0, [r0], #-3
     6e8:	09000003 	stmdbeq	r0, {r0, r1}
     6ec:	08007100 	stmdaeq	r0, {r8, ip, sp, lr}
     6f0:	ff081a40 			; <UNDEFINED> instruction: 0xff081a40
     6f4:	04009f1a 	streq	r9, [r0], #-3866	; 0xf1a
     6f8:	04380000 	ldrteq	r0, [r8], #-0
     6fc:	00020000 	andeq	r0, r2, r0
     700:	00009f31 	andeq	r9, r0, r1, lsr pc
     704:	00000000 	andeq	r0, r0, r0
     708:	03900000 	orrseq	r0, r0, #0
     70c:	03940000 	orrseq	r0, r4, #0
     710:	00010000 	andeq	r0, r1, r0
     714:	0000005c 	andeq	r0, r0, ip, asr r0
     718:	00000000 	andeq	r0, r0, r0
     71c:	00039c00 	andeq	r9, r3, r0, lsl #24
     720:	0003d400 	andeq	sp, r3, r0, lsl #8
     724:	71000900 	tstvc	r0, r0, lsl #18
     728:	1a400800 	bne	1002730 <__bss_end__+0xff83a0>
     72c:	9f1aff08 	svcls	0x001aff08
	...
     738:	000003a4 	andeq	r0, r0, r4, lsr #7
     73c:	000003d4 	ldrdeq	r0, [r0], -r4
     740:	00710009 	rsbseq	r0, r1, r9
     744:	081a4008 	ldmdaeq	sl, {r3, lr}
     748:	009f1aff 			; <UNDEFINED> instruction: 0x009f1aff
     74c:	38000004 	stmdacc	r0, {r2}
     750:	02000004 	andeq	r0, r0, #4
     754:	009f3100 	addseq	r3, pc, r0, lsl #2
     758:	00000000 	andeq	r0, r0, r0
     75c:	c0000000 	andgt	r0, r0, r0
     760:	c4000003 	strgt	r0, [r0], #-3
     764:	01000003 	tsteq	r0, r3
     768:	00005c00 	andeq	r5, r0, r0, lsl #24
     76c:	00000000 	andeq	r0, r0, r0
     770:	03cc0000 	biceq	r0, ip, #0
     774:	03d40000 	bicseq	r0, r4, #0
     778:	00090000 	andeq	r0, r9, r0
     77c:	80090071 	andhi	r0, r9, r1, ror r0
     780:	1aff081a 	bne	fffc27f0 <__bss_end__+0xfffb8460>
     784:	0000009f 	muleq	r0, pc, r0	; <UNPREDICTABLE>
     788:	00000000 	andeq	r0, r0, r0
     78c:	00040000 	andeq	r0, r4, r0
     790:	00043800 	andeq	r3, r4, r0, lsl #16
     794:	31000200 	mrscc	r0, R8_usr
     798:	0000009f 	muleq	r0, pc, r0	; <UNPREDICTABLE>
     79c:	00000000 	andeq	r0, r0, r0
     7a0:	0003f400 	andeq	pc, r3, r0, lsl #8
     7a4:	0003f800 	andeq	pc, r3, r0, lsl #16
     7a8:	51000100 	mrspl	r0, (UNDEF: 16)
	...
     7b4:	0000041c 	andeq	r0, r0, ip, lsl r4
     7b8:	00000420 	andeq	r0, r0, r0, lsr #8
     7bc:	00520001 	subseq	r0, r2, r1
     7c0:	00000000 	andeq	r0, r0, r0
     7c4:	80000000 	andhi	r0, r0, r0
     7c8:	7c000004 	stcvc	0, cr0, [r0], {4}
     7cc:	02000005 	andeq	r0, r0, #5
     7d0:	009f4500 	addseq	r4, pc, r0, lsl #10
     7d4:	00000000 	andeq	r0, r0, r0
     7d8:	80000000 	andhi	r0, r0, r0
     7dc:	7c000004 	stcvc	0, cr0, [r0], {4}
     7e0:	02000005 	andeq	r0, r0, #5
     7e4:	009f4400 	addseq	r4, pc, r0, lsl #8
     7e8:	00000000 	andeq	r0, r0, r0
     7ec:	80000000 	andhi	r0, r0, r0
     7f0:	7c000004 	stcvc	0, cr0, [r0], {4}
     7f4:	03000005 	movweq	r0, #5
     7f8:	9ffe0800 	svcls	0x00fe0800
	...
     804:	00000488 	andeq	r0, r0, r8, lsl #9
     808:	000004cc 	andeq	r0, r0, ip, asr #9
     80c:	9f300002 	svcls	0x00300002
     810:	000004cc 	andeq	r0, r0, ip, asr #9
     814:	000004d4 	ldrdeq	r0, [r0], -r4
     818:	9f310002 	svcls	0x00310002
     81c:	000004d4 	ldrdeq	r0, [r0], -r4
     820:	0000057c 	andeq	r0, r0, ip, ror r5
     824:	00560001 	subseq	r0, r6, r1
     828:	00000000 	andeq	r0, r0, r0
     82c:	88000000 	stmdahi	r0, {}	; <UNPREDICTABLE>
     830:	d4000004 	strle	r0, [r0], #-4
     834:	02000004 	andeq	r0, r0, #4
     838:	d49f3100 	ldrle	r3, [pc], #256	; 840 <_start-0x77c0>
     83c:	7c000004 	stcvc	0, cr0, [r0], {4}
     840:	01000005 	tsteq	r0, r5
     844:	00005700 	andeq	r5, r0, r0, lsl #14
     848:	00000000 	andeq	r0, r0, r0
     84c:	04880000 	streq	r0, [r8], #0
     850:	04d40000 	ldrbeq	r0, [r4], #0
     854:	00020000 	andeq	r0, r2, r0
     858:	00009f30 	andeq	r9, r0, r0, lsr pc
     85c:	00000000 	andeq	r0, r0, r0
     860:	04d40000 	ldrbeq	r0, [r4], #0
     864:	057c0000 	ldrbeq	r0, [ip, #-0]!
     868:	00020000 	andeq	r0, r2, r0
     86c:	00009f44 	andeq	r9, r0, r4, asr #30
     870:	00000000 	andeq	r0, r0, r0
     874:	04d40000 	ldrbeq	r0, [r4], #0
     878:	04e80000 	strbteq	r0, [r8], #0
     87c:	00010000 	andeq	r0, r1, r0
     880:	0004e854 	andeq	lr, r4, r4, asr r8
     884:	0004f400 	andeq	pc, r4, r0, lsl #8
     888:	30000200 	andcc	r0, r0, r0, lsl #4
     88c:	0004f49f 	muleq	r4, pc, r4	; <UNPREDICTABLE>
     890:	0004f800 	andeq	pc, r4, r0, lsl #16
     894:	70000600 	andvc	r0, r0, r0, lsl #12
     898:	1aff0800 	bne	fffc28a0 <__bss_end__+0xfffb8510>
     89c:	0004f89f 	muleq	r4, pc, r8	; <UNPREDICTABLE>
     8a0:	00050000 	andeq	r0, r5, r0
     8a4:	75000600 	strvc	r0, [r0, #-1536]	; 0x600
     8a8:	1aff0800 	bne	fffc28b0 <__bss_end__+0xfffb8520>
     8ac:	0005009f 	muleq	r5, pc, r0	; <UNPREDICTABLE>
     8b0:	00050400 	andeq	r0, r5, r0, lsl #8
     8b4:	70000e00 	andvc	r0, r0, r0, lsl #28
     8b8:	1aff0800 	bne	fffc28c0 <__bss_end__+0xfffb8530>
     8bc:	00752438 	rsbseq	r2, r5, r8, lsr r4
     8c0:	211aff08 	tstcs	sl, r8, lsl #30
     8c4:	0005049f 	muleq	r5, pc, r4	; <UNPREDICTABLE>
     8c8:	00051000 	andeq	r1, r5, r0
     8cc:	74000e00 	strvc	r0, [r0], #-3584	; 0xe00
     8d0:	1aff0800 	bne	fffc28d8 <__bss_end__+0xfffb8548>
     8d4:	00752438 	rsbseq	r2, r5, r8, lsr r4
     8d8:	211aff08 	tstcs	sl, r8, lsl #30
     8dc:	00051c9f 	muleq	r5, pc, ip	; <UNPREDICTABLE>
     8e0:	00057c00 	andeq	r7, r5, r0, lsl #24
     8e4:	54000100 	strpl	r0, [r0], #-256	; 0x100
	...
     8f0:	00000598 	muleq	r0, r8, r5
     8f4:	000005a4 	andeq	r0, r0, r4, lsr #11
     8f8:	9f300002 	svcls	0x00300002
     8fc:	000005c0 	andeq	r0, r0, r0, asr #11
     900:	000005f4 	strdeq	r0, [r0], -r4
     904:	00560001 	subseq	r0, r6, r1
     908:	00000000 	andeq	r0, r0, r0
     90c:	98000000 	stmdals	r0, {}	; <UNPREDICTABLE>
     910:	a4000005 	strge	r0, [r0], #-5
     914:	02000005 	andeq	r0, r0, #5
     918:	a49f3000 	ldrge	r3, [pc], #0	; 920 <_start-0x76e0>
     91c:	f4000005 	vst4.8	{d0-d3}, [r0], r5
     920:	01000005 	tsteq	r0, r5
     924:	00005500 	andeq	r5, r0, r0, lsl #10
     928:	00000000 	andeq	r0, r0, r0
     92c:	05980000 	ldreq	r0, [r8]
     930:	05a40000 	streq	r0, [r4, #0]!
     934:	00020000 	andeq	r0, r2, r0
     938:	00009f30 	andeq	r9, r0, r0, lsr pc
     93c:	00000000 	andeq	r0, r0, r0
     940:	002c0000 	eoreq	r0, ip, r0
     944:	00380000 	eorseq	r0, r8, r0
     948:	00010000 	andeq	r0, r1, r0
     94c:	00003850 	andeq	r3, r0, r0, asr r8
     950:	00004800 	andeq	r4, r0, r0, lsl #16
     954:	55000100 	strpl	r0, [r0, #-256]	; 0x100
     958:	00000048 	andeq	r0, r0, r8, asr #32
     95c:	00000058 	andeq	r0, r0, r8, asr r0
     960:	00500001 	subseq	r0, r0, r1
	...
     96c:	0b000000 	bleq	974 <_start-0x768c>
     970:	01000000 	mrseq	r0, (UNDEF: 0)
     974:	000b5000 	andeq	r5, fp, r0
     978:	00140000 	andseq	r0, r4, r0
     97c:	00010000 	andeq	r0, r1, r0
     980:	00000054 	andeq	r0, r0, r4, asr r0
	...
     98c:	00001000 	andeq	r1, r0, r0
     990:	50000100 	andpl	r0, r0, r0, lsl #2
     994:	00000010 	andeq	r0, r0, r0, lsl r0
     998:	00000034 	andeq	r0, r0, r4, lsr r0
     99c:	00540001 	subseq	r0, r4, r1
	...
     9a8:	04000000 	streq	r0, [r0], #-0
     9ac:	01000000 	mrseq	r0, (UNDEF: 0)
     9b0:	00045000 	andeq	r5, r4, r0
     9b4:	000c0000 	andeq	r0, ip, r0
     9b8:	00030000 	andeq	r0, r3, r0
     9bc:	0c9f3070 	ldceq	0, cr3, [pc], {112}	; 0x70
     9c0:	14000000 	strne	r0, [r0], #-0
     9c4:	04000000 	streq	r0, [r0], #-0
     9c8:	5001f300 	andpl	pc, r1, r0, lsl #6
     9cc:	0000009f 	muleq	r0, pc, r0	; <UNPREDICTABLE>
     9d0:	00000000 	andeq	r0, r0, r0
     9d4:	00001400 	andeq	r1, r0, r0, lsl #8
     9d8:	00002000 	andeq	r2, r0, r0
     9dc:	50000100 	andpl	r0, r0, r0, lsl #2
     9e0:	00000020 	andeq	r0, r0, r0, lsr #32
     9e4:	0000002c 	andeq	r0, r0, ip, lsr #32
     9e8:	01700003 	cmneq	r0, r3
     9ec:	00002c9f 	muleq	r0, pc, ip	; <UNPREDICTABLE>
     9f0:	00004000 	andeq	r4, r0, r0
     9f4:	50000100 	andpl	r0, r0, r0, lsl #2
	...
     a00:	00000014 	andeq	r0, r0, r4, lsl r0
     a04:	00000018 	andeq	r0, r0, r8, lsl r0
     a08:	18510001 	ldmdane	r1, {r0}^
     a0c:	40000000 	andmi	r0, r0, r0
     a10:	04000000 	streq	r0, [r0], #-0
     a14:	5101f300 	mrspl	pc, SP_irq	; <UNPREDICTABLE>
     a18:	0000009f 	muleq	r0, pc, r0	; <UNPREDICTABLE>
     a1c:	00000000 	andeq	r0, r0, r0
     a20:	00004000 	andeq	r4, r0, r0
     a24:	00006000 	andeq	r6, r0, r0
     a28:	50000100 	andpl	r0, r0, r0, lsl #2
     a2c:	00000060 	andeq	r0, r0, r0, rrx
     a30:	0000006c 	andeq	r0, r0, ip, rrx
     a34:	01710003 	cmneq	r1, r3
     a38:	00006c9f 	muleq	r0, pc, ip	; <UNPREDICTABLE>
     a3c:	00007400 	andeq	r7, r0, r0, lsl #8
     a40:	51000100 	mrspl	r0, (UNDEF: 16)
     a44:	00000074 	andeq	r0, r0, r4, ror r0
     a48:	00000080 	andeq	r0, r0, r0, lsl #1
     a4c:	01710003 	cmneq	r1, r3
     a50:	0000009f 	muleq	r0, pc, r0	; <UNPREDICTABLE>
     a54:	00000000 	andeq	r0, r0, r0
     a58:	00004000 	andeq	r4, r0, r0
     a5c:	00005000 	andeq	r5, r0, r0
     a60:	51000100 	mrspl	r0, (UNDEF: 16)
     a64:	00000050 	andeq	r0, r0, r0, asr r0
     a68:	00000080 	andeq	r0, r0, r0, lsl #1
     a6c:	01f30004 	mvnseq	r0, r4
     a70:	00009f51 	andeq	r9, r0, r1, asr pc
     a74:	00000000 	andeq	r0, r0, r0
     a78:	00400000 	subeq	r0, r0, r0
     a7c:	00580000 	subseq	r0, r8, r0
     a80:	00010000 	andeq	r0, r1, r0
     a84:	00005852 	andeq	r5, r0, r2, asr r8
     a88:	00006400 	andeq	r6, r0, r0, lsl #8
     a8c:	52000100 	andpl	r0, r0, #0, 2
     a90:	00000064 	andeq	r0, r0, r4, rrx
     a94:	00000068 	andeq	r0, r0, r8, rrx
     a98:	01720003 	cmneq	r2, r3
     a9c:	0000689f 	muleq	r0, pc, r8	; <UNPREDICTABLE>
     aa0:	00008000 	andeq	r8, r0, r0
     aa4:	52000100 	andpl	r0, r0, #0, 2
	...
     ab0:	00000040 	andeq	r0, r0, r0, asr #32
     ab4:	00000054 	andeq	r0, r0, r4, asr r0
     ab8:	54530001 	ldrbpl	r0, [r3], #-1
     abc:	78000000 	stmdavc	r0, {}	; <UNPREDICTABLE>
     ac0:	01000000 	mrseq	r0, (UNDEF: 0)
     ac4:	00005300 	andeq	r5, r0, r0, lsl #6
     ac8:	00000000 	andeq	r0, r0, r0
     acc:	00480000 	subeq	r0, r8, r0
     ad0:	00600000 	rsbeq	r0, r0, r0
     ad4:	00010000 	andeq	r0, r1, r0
     ad8:	0000605c 	andeq	r6, r0, ip, asr r0
     adc:	00008000 	andeq	r8, r0, r0
     ae0:	f3000a00 	vpmax.u8	d0, d0, d0
     ae4:	01f35201 	mvnseq	r5, r1, lsl #4
     ae8:	01231c53 	teqeq	r3, r3, asr ip
     aec:	0000009f 	muleq	r0, pc, r0	; <UNPREDICTABLE>
     af0:	00000000 	andeq	r0, r0, r0
     af4:	00008000 	andeq	r8, r0, r0
     af8:	0000a400 	andeq	sl, r0, r0, lsl #8
     afc:	50000100 	andpl	r0, r0, r0, lsl #2
     b00:	000000a4 	andeq	r0, r0, r4, lsr #1
     b04:	00000118 	andeq	r0, r0, r8, lsl r1
     b08:	02700003 	rsbseq	r0, r0, #3
     b0c:	0001189f 	muleq	r1, pc, r8	; <UNPREDICTABLE>
     b10:	00022800 	andeq	r2, r2, r0, lsl #16
     b14:	f3000400 	vshl.u8	d0, d0, d0
     b18:	009f5001 	addseq	r5, pc, r1
     b1c:	00000000 	andeq	r0, r0, r0
     b20:	80000000 	andhi	r0, r0, r0
     b24:	f0000000 			; <UNDEFINED> instruction: 0xf0000000
     b28:	01000000 	mrseq	r0, (UNDEF: 0)
     b2c:	00f05100 	rscseq	r5, r0, r0, lsl #2
     b30:	01600000 	cmneq	r0, r0
     b34:	00010000 	andeq	r0, r1, r0
     b38:	00016055 	andeq	r6, r1, r5, asr r0
     b3c:	00016800 	andeq	r6, r1, r0, lsl #16
     b40:	51000100 	mrspl	r0, (UNDEF: 16)
     b44:	00000168 	andeq	r0, r0, r8, ror #2
     b48:	00000188 	andeq	r0, r0, r8, lsl #3
     b4c:	88550001 	ldmdahi	r5, {r0}^
     b50:	9c000001 	stcls	0, cr0, [r0], {1}
     b54:	01000001 	tsteq	r0, r1
     b58:	019c5100 	orrseq	r5, ip, r0, lsl #2
     b5c:	01bc0000 			; <UNDEFINED> instruction: 0x01bc0000
     b60:	00010000 	andeq	r0, r1, r0
     b64:	0001bc55 	andeq	fp, r1, r5, asr ip
     b68:	0001bf00 	andeq	fp, r1, r0, lsl #30
     b6c:	51000100 	mrspl	r0, (UNDEF: 16)
     b70:	000001bf 			; <UNDEFINED> instruction: 0x000001bf
     b74:	00000208 	andeq	r0, r0, r8, lsl #4
     b78:	08550001 	ldmdaeq	r5, {r0}^
     b7c:	28000002 	stmdacs	r0, {r1}
     b80:	04000002 	streq	r0, [r0], #-2
     b84:	5101f300 	mrspl	pc, SP_irq	; <UNPREDICTABLE>
     b88:	0000009f 	muleq	r0, pc, r0	; <UNPREDICTABLE>
     b8c:	00000000 	andeq	r0, r0, r0
     b90:	00008000 	andeq	r8, r0, r0
     b94:	00009400 	andeq	r9, r0, r0, lsl #8
     b98:	52000100 	andpl	r0, r0, #0, 2
     b9c:	00000094 	muleq	r0, r4, r0
     ba0:	00000208 	andeq	r0, r0, r8, lsl #4
     ba4:	08540001 	ldmdaeq	r4, {r0}^
     ba8:	28000002 	stmdacs	r0, {r1}
     bac:	04000002 	streq	r0, [r0], #-2
     bb0:	5201f300 	andpl	pc, r1, #0, 6
     bb4:	0000009f 	muleq	r0, pc, r0	; <UNPREDICTABLE>
     bb8:	00000000 	andeq	r0, r0, r0
     bbc:	00008000 	andeq	r8, r0, r0
     bc0:	00010000 	andeq	r0, r1, r0
     bc4:	53000100 	movwpl	r0, #256	; 0x100
     bc8:	00000104 	andeq	r0, r0, r4, lsl #2
     bcc:	00000108 	andeq	r0, r0, r8, lsl #2
     bd0:	60530001 	subsvs	r0, r3, r1
     bd4:	68000001 	stmdavs	r0, {r0}
     bd8:	01000001 	tsteq	r0, r1
     bdc:	01685300 	cmneq	r8, r0, lsl #6
     be0:	01880000 	orreq	r0, r8, r0
     be4:	00040000 	andeq	r0, r4, r0
     be8:	9f5301f3 	svcls	0x005301f3
     bec:	00000188 	andeq	r0, r0, r8, lsl #3
     bf0:	00000190 	muleq	r0, r0, r1
     bf4:	90530001 	subsls	r0, r3, r1
     bf8:	94000001 	strls	r0, [r0], #-1
     bfc:	01000001 	tsteq	r0, r1
     c00:	01945c00 	orrseq	r5, r4, r0, lsl #24
     c04:	019c0000 	orrseq	r0, ip, r0
     c08:	00010000 	andeq	r0, r1, r0
     c0c:	00019c53 	andeq	r9, r1, r3, asr ip
     c10:	0001bc00 	andeq	fp, r1, r0, lsl #24
     c14:	f3000400 	vshl.u8	d0, d0, d0
     c18:	bc9f5301 	ldclt	3, cr5, [pc], {1}
     c1c:	bf000001 	svclt	0x00000001
     c20:	01000001 	tsteq	r0, r1
     c24:	01bf5300 			; <UNDEFINED> instruction: 0x01bf5300
     c28:	01e00000 	mvneq	r0, r0
     c2c:	00040000 	andeq	r0, r4, r0
     c30:	9f5301f3 	svcls	0x005301f3
	...
     c3c:	00000080 	andeq	r0, r0, r0, lsl #1
     c40:	0000009c 	muleq	r0, ip, r0
     c44:	00910002 	addseq	r0, r1, r2
     c48:	0000009c 	muleq	r0, ip, r0
     c4c:	000001bf 			; <UNDEFINED> instruction: 0x000001bf
     c50:	e0520001 	subs	r0, r2, r1
     c54:	eb000001 	bl	c60 <_start-0x73a0>
     c58:	01000001 	tsteq	r0, r1
     c5c:	00005200 	andeq	r5, r0, r0, lsl #4
     c60:	00000000 	andeq	r0, r0, r0
     c64:	009c0000 	addseq	r0, ip, r0
     c68:	010c0000 	mrseq	r0, (UNDEF: 12)
     c6c:	00040000 	andeq	r0, r4, r0
     c70:	9f7fa091 	svcls	0x007fa091
     c74:	0000010c 	andeq	r0, r0, ip, lsl #2
     c78:	00000118 	andeq	r0, r0, r8, lsl r1
     c7c:	18510001 	ldmdane	r1, {r0}^
     c80:	1c000001 	stcne	0, cr0, [r0], {1}
     c84:	01000001 	tsteq	r0, r1
     c88:	011c5300 	tsteq	ip, r0, lsl #6
     c8c:	01200000 	teqeq	r0, r0
     c90:	00010000 	andeq	r0, r1, r0
     c94:	00012051 	andeq	r2, r1, r1, asr r0
     c98:	00016000 	andeq	r6, r1, r0
     c9c:	53000100 	movwpl	r0, #256	; 0x100
     ca0:	00000160 	andeq	r0, r0, r0, ror #2
     ca4:	00000164 	andeq	r0, r0, r4, ror #2
     ca8:	a0910004 	addsge	r0, r1, r4
     cac:	01649f7f 	smceq	18943	; 0x49ff
     cb0:	016c0000 	cmneq	ip, r0
     cb4:	00010000 	andeq	r0, r1, r0
     cb8:	00016c5e 	andeq	r6, r1, lr, asr ip
     cbc:	00018800 	andeq	r8, r1, r0, lsl #16
     cc0:	53000100 	movwpl	r0, #256	; 0x100
     cc4:	00000188 	andeq	r0, r0, r8, lsl #3
     cc8:	00000190 	muleq	r0, r0, r1
     ccc:	a1910004 	orrsge	r0, r1, r4
     cd0:	01909f7f 	orrseq	r9, r0, pc, ror pc
     cd4:	01940000 	orrseq	r0, r4, r0
     cd8:	00010000 	andeq	r0, r1, r0
     cdc:	00019453 	andeq	r9, r1, r3, asr r4
     ce0:	00019800 	andeq	r9, r1, r0, lsl #16
     ce4:	91000400 	tstls	r0, r0, lsl #8
     ce8:	989f7fa0 	ldmls	pc, {r5, r7, r8, r9, sl, fp, ip, sp, lr}	; <UNPREDICTABLE>
     cec:	a0000001 	andge	r0, r0, r1
     cf0:	01000001 	tsteq	r0, r1
     cf4:	01a05e00 	lsleq	r5, r0, #28
     cf8:	01bc0000 			; <UNDEFINED> instruction: 0x01bc0000
     cfc:	00010000 	andeq	r0, r1, r0
     d00:	0001bc53 	andeq	fp, r1, r3, asr ip
     d04:	0001e000 	andeq	lr, r1, r0
     d08:	91000400 	tstls	r0, r0, lsl #8
     d0c:	e09f7fa0 	adds	r7, pc, r0, lsr #31
     d10:	eb000001 	bl	d1c <_start-0x72e4>
     d14:	01000001 	tsteq	r0, r1
     d18:	00005300 	andeq	r5, r0, r0, lsl #6
     d1c:	00000000 	andeq	r0, r0, r0
     d20:	00a00000 	adceq	r0, r0, r0
     d24:	00ec0000 	rsceq	r0, ip, r0
     d28:	00010000 	andeq	r0, r1, r0
     d2c:	0000ec5c 	andeq	lr, r0, ip, asr ip
     d30:	00010000 	andeq	r0, r1, r0
     d34:	53000100 	movwpl	r0, #256	; 0x100
     d38:	00000100 	andeq	r0, r0, r0, lsl #2
     d3c:	00000104 	andeq	r0, r0, r4, lsl #2
     d40:	045c0001 	ldrbeq	r0, [ip], #-1
     d44:	08000001 	stmdaeq	r0, {r0}
     d48:	01000001 	tsteq	r0, r1
     d4c:	01085300 	mrseq	r5, (UNDEF: 56)
     d50:	01180000 	tsteq	r8, r0
     d54:	00010000 	andeq	r0, r1, r0
     d58:	0001185c 	andeq	r1, r1, ip, asr r8
     d5c:	00011c00 	andeq	r1, r1, r0, lsl #24
     d60:	50000100 	andpl	r0, r0, r0, lsl #2
     d64:	0000011c 	andeq	r0, r0, ip, lsl r1
     d68:	0000013c 	andeq	r0, r0, ip, lsr r1
     d6c:	445c0001 	ldrbmi	r0, [ip], #-1
     d70:	58000001 	stmdapl	r0, {r0}
     d74:	01000001 	tsteq	r0, r1
     d78:	01585000 	cmpeq	r8, r0
     d7c:	01600000 	cmneq	r0, r0
     d80:	00010000 	andeq	r0, r1, r0
     d84:	0001605c 	andeq	r6, r1, ip, asr r0
     d88:	00016800 	andeq	r6, r1, r0, lsl #16
     d8c:	53000100 	movwpl	r0, #256	; 0x100
     d90:	00000168 	andeq	r0, r0, r8, ror #2
     d94:	00000178 	andeq	r0, r0, r8, ror r1
     d98:	785c0001 	ldmdavc	ip, {r0}^
     d9c:	80000001 	andhi	r0, r0, r1
     da0:	05000001 	streq	r0, [r0, #-1]
     da4:	34007c00 	strcc	r7, [r0], #-3072	; 0xc00
     da8:	01809f25 	orreq	r9, r0, r5, lsr #30
     dac:	01880000 	orreq	r0, r8, r0
     db0:	00010000 	andeq	r0, r1, r0
     db4:	0001885c 	andeq	r8, r1, ip, asr r8
     db8:	00019000 	andeq	r9, r1, r0
     dbc:	53000100 	movwpl	r0, #256	; 0x100
     dc0:	00000190 	muleq	r0, r0, r1
     dc4:	00000194 	muleq	r0, r4, r1
     dc8:	945c0001 	ldrbls	r0, [ip], #-1
     dcc:	9c000001 	stcls	0, cr0, [r0], {1}
     dd0:	01000001 	tsteq	r0, r1
     dd4:	019c5300 	orrseq	r5, ip, r0, lsl #6
     dd8:	01ac0000 			; <UNDEFINED> instruction: 0x01ac0000
     ddc:	00010000 	andeq	r0, r1, r0
     de0:	0001ac5c 	andeq	sl, r1, ip, asr ip
     de4:	0001b400 	andeq	fp, r1, r0, lsl #8
     de8:	7c000500 	cfstr32vc	mvfx0, [r0], {-0}
     dec:	9f253100 	svcls	0x00253100
     df0:	000001b4 			; <UNDEFINED> instruction: 0x000001b4
     df4:	000001bc 			; <UNDEFINED> instruction: 0x000001bc
     df8:	bc5c0001 	mrrclt	0, 0, r0, ip, cr1
     dfc:	bf000001 	svclt	0x00000001
     e00:	01000001 	tsteq	r0, r1
     e04:	01bf5300 			; <UNDEFINED> instruction: 0x01bf5300
     e08:	01e00000 	mvneq	r0, r0
     e0c:	00040000 	andeq	r0, r4, r0
     e10:	9f5301f3 	svcls	0x005301f3
     e14:	000001e0 	andeq	r0, r0, r0, ror #3
     e18:	000001eb 	andeq	r0, r0, fp, ror #3
     e1c:	005c0001 	subseq	r0, ip, r1
     e20:	00000000 	andeq	r0, r0, r0
     e24:	ec000000 	stc	0, cr0, [r0], {-0}
     e28:	fc000000 	stc2	0, cr0, [r0], {-0}
     e2c:	02000000 	andeq	r0, r0, #0
     e30:	fc9f3000 	ldc2	0, cr3, [pc], {0}
     e34:	04000000 	streq	r0, [r0], #-0
     e38:	02000001 	andeq	r0, r0, #1
     e3c:	049f3100 	ldreq	r3, [pc], #256	; e44 <_start-0x71bc>
     e40:	08000001 	stmdaeq	r0, {r0}
     e44:	02000001 	andeq	r0, r0, #1
     e48:	009f3000 	addseq	r3, pc, r0
     e4c:	00000000 	andeq	r0, r0, r0
     e50:	28000000 	stmdacs	r0, {}	; <UNPREDICTABLE>
     e54:	3b000002 	blcc	e64 <_start-0x719c>
     e58:	01000002 	tsteq	r0, r2
     e5c:	023b5000 	eorseq	r5, fp, #0
     e60:	025c0000 	subseq	r0, ip, #0
     e64:	00040000 	andeq	r0, r4, r0
     e68:	9f5001f3 	svcls	0x005001f3
     e6c:	0000025c 	andeq	r0, r0, ip, asr r2
     e70:	00000290 	muleq	r0, r0, r2
     e74:	00500001 	subseq	r0, r0, r1
     e78:	00000000 	andeq	r0, r0, r0
     e7c:	28000000 	stmdacs	r0, {}	; <UNPREDICTABLE>
     e80:	3b000002 	blcc	e90 <_start-0x7170>
     e84:	01000002 	tsteq	r0, r2
     e88:	023b5100 	eorseq	r5, fp, #0, 2
     e8c:	025c0000 	subseq	r0, ip, #0
     e90:	00040000 	andeq	r0, r4, r0
     e94:	9f5101f3 	svcls	0x005101f3
     e98:	0000025c 	andeq	r0, r0, ip, asr r2
     e9c:	00000290 	muleq	r0, r0, r2
     ea0:	00510001 	subseq	r0, r1, r1
     ea4:	00000000 	andeq	r0, r0, r0
     ea8:	90000000 	andls	r0, r0, r0
     eac:	bc000002 	stclt	0, cr0, [r0], {2}
     eb0:	01000002 	tsteq	r0, r2
     eb4:	02bc5000 	adcseq	r5, ip, #0
     eb8:	050c0000 	streq	r0, [ip, #-0]
     ebc:	00010000 	andeq	r0, r1, r0
     ec0:	00050c5a 	andeq	r0, r5, sl, asr ip
     ec4:	00052400 	andeq	r2, r5, r0, lsl #8
     ec8:	f3000400 	vshl.u8	d0, d0, d0
     ecc:	009f5001 	addseq	r5, pc, r1
     ed0:	00000000 	andeq	r0, r0, r0
     ed4:	90000000 	andls	r0, r0, r0
     ed8:	a4000002 	strge	r0, [r0], #-2
     edc:	01000002 	tsteq	r0, r2
     ee0:	02a45100 	adceq	r5, r4, #0, 2
     ee4:	02bc0000 	adcseq	r0, ip, #0
     ee8:	00030000 	andeq	r0, r3, r0
     eec:	bc9f0171 	ldflts	f0, [pc], {113}	; 0x71
     ef0:	24000002 	strcs	r0, [r0], #-2
     ef4:	04000005 	streq	r0, [r0], #-5
     ef8:	5101f300 	mrspl	pc, SP_irq	; <UNPREDICTABLE>
     efc:	0000009f 	muleq	r0, pc, r0	; <UNPREDICTABLE>
     f00:	00000000 	andeq	r0, r0, r0
     f04:	00029000 	andeq	r9, r2, r0
     f08:	0002c400 	andeq	ip, r2, r0, lsl #8
     f0c:	52000100 	andpl	r0, r0, #0, 2
     f10:	000002c4 	andeq	r0, r0, r4, asr #5
     f14:	000002ec 	andeq	r0, r0, ip, ror #5
     f18:	ec520001 	mrrc	0, 0, r0, r2, cr1
     f1c:	bc000002 	stclt	0, cr0, [r0], {2}
     f20:	01000004 	tsteq	r0, r4
     f24:	04bc5600 	ldrteq	r5, [ip], #1536	; 0x600
     f28:	05240000 	streq	r0, [r4, #-0]!
     f2c:	00010000 	andeq	r0, r1, r0
     f30:	00000052 	andeq	r0, r0, r2, asr r0
     f34:	00000000 	andeq	r0, r0, r0
     f38:	00029000 	andeq	r9, r2, r0
     f3c:	0002ac00 	andeq	sl, r2, r0, lsl #24
     f40:	53000100 	movwpl	r0, #256	; 0x100
	...
     f4c:	000002a0 	andeq	r0, r0, r0, lsr #5
     f50:	000002bc 			; <UNDEFINED> instruction: 0x000002bc
     f54:	bc500001 	mrrclt	0, 0, r0, r0, cr1	; <UNPREDICTABLE>
     f58:	c0000002 	andgt	r0, r0, r2
     f5c:	01000002 	tsteq	r0, r2
     f60:	02c05400 	sbceq	r5, r0, #0, 8
     f64:	02cc0000 	sbceq	r0, ip, #0
     f68:	00030000 	andeq	r0, r3, r0
     f6c:	cc9f0174 	ldfgts	f0, [pc], {116}	; 0x74
     f70:	d8000002 	stmdale	r0, {r1}
     f74:	01000002 	tsteq	r0, r2
     f78:	02d85400 	sbcseq	r5, r8, #0, 8
     f7c:	02e40000 	rsceq	r0, r4, #0
     f80:	00030000 	andeq	r0, r3, r0
     f84:	e49f0174 	ldr	r0, [pc], #372	; f8c <_start-0x7074>
     f88:	c0000002 	andgt	r0, r0, r2
     f8c:	01000004 	tsteq	r0, r4
     f90:	04c05400 	strbeq	r5, [r0], #1024	; 0x400
     f94:	04cc0000 	strbeq	r0, [ip], #0
     f98:	00030000 	andeq	r0, r3, r0
     f9c:	cc9f0174 	ldfgts	f0, [pc], {116}	; 0x74
     fa0:	f8000004 			; <UNDEFINED> instruction: 0xf8000004
     fa4:	01000004 	tsteq	r0, r4
     fa8:	04f85400 	ldrbteq	r5, [r8], #1024	; 0x400
     fac:	05040000 	streq	r0, [r4, #-0]
     fb0:	00010000 	andeq	r0, r1, r0
     fb4:	00050450 	andeq	r0, r5, r0, asr r4
     fb8:	00050c00 	andeq	r0, r5, r0, lsl #24
     fbc:	74000300 	strvc	r0, [r0], #-768	; 0x300
     fc0:	00009f01 	andeq	r9, r0, r1, lsl #30
     fc4:	00000000 	andeq	r0, r0, r0
     fc8:	02a80000 	adceq	r0, r8, #0
     fcc:	050c0000 	streq	r0, [ip, #-0]
     fd0:	00010000 	andeq	r0, r1, r0
     fd4:	00050c58 	andeq	r0, r5, r8, asr ip
     fd8:	00052400 	andeq	r2, r5, r0, lsl #8
     fdc:	f3000a00 	vpmax.u8	d0, d0, d0
     fe0:	01f35101 	mvnseq	r5, r1, lsl #2
     fe4:	1c312250 	lfmne	f2, 4, [r1], #-320	; 0xfffffec0
     fe8:	0000009f 	muleq	r0, pc, r0	; <UNPREDICTABLE>
     fec:	00000000 	andeq	r0, r0, r0
     ff0:	0003f400 	andeq	pc, r3, r0, lsl #8
     ff4:	0003f800 	andeq	pc, r3, r0, lsl #16
     ff8:	50000100 	andpl	r0, r0, r0, lsl #2
     ffc:	00000418 	andeq	r0, r0, r8, lsl r4
    1000:	0000041c 	andeq	r0, r0, ip, lsl r4
    1004:	3c500001 	mrrccc	0, 0, r0, r0, cr1	; <UNPREDICTABLE>
    1008:	40000004 	andmi	r0, r0, r4
    100c:	01000004 	tsteq	r0, r4
    1010:	04605000 	strbteq	r5, [r0], #-0
    1014:	04640000 	strbteq	r0, [r4], #-0
    1018:	00010000 	andeq	r0, r1, r0
    101c:	00046c50 	andeq	r6, r4, r0, asr ip
    1020:	00047000 	andeq	r7, r4, r0
    1024:	50000100 	andpl	r0, r0, r0, lsl #2
    1028:	00000490 	muleq	r0, r0, r4
    102c:	00000494 	muleq	r0, r4, r4
    1030:	b8500001 	ldmdalt	r0, {r0}^
    1034:	e0000004 	and	r0, r0, r4
    1038:	01000004 	tsteq	r0, r4
    103c:	00005000 	andeq	r5, r0, r0
    1040:	00000000 	andeq	r0, r0, r0
    1044:	02ec0000 	rsceq	r0, ip, #0
    1048:	02f40000 	rscseq	r0, r4, #0
    104c:	00020000 	andeq	r0, r2, r0
    1050:	02f49f30 	rscseq	r9, r4, #48, 30	; 0xc0
    1054:	02f80000 	rscseq	r0, r8, #0
    1058:	00010000 	andeq	r0, r1, r0
    105c:	00030457 	andeq	r0, r3, r7, asr r4
    1060:	0004e000 	andeq	lr, r4, r0
    1064:	57000100 	strpl	r0, [r0, -r0, lsl #2]
	...
    1070:	00000004 	andeq	r0, r0, r4
    1074:	00000008 	andeq	r0, r0, r8
    1078:	00730007 	rsbseq	r0, r3, r7
    107c:	2110000a 	tstcs	r0, sl
    1080:	0000089f 	muleq	r0, pc, r8	; <UNPREDICTABLE>
    1084:	00001000 	andeq	r1, r0, r0
    1088:	53000100 	movwpl	r0, #256	; 0x100
	...
    1094:	00000014 	andeq	r0, r0, r4, lsl r0
    1098:	00000018 	andeq	r0, r0, r8, lsl r0
    109c:	00730007 	rsbseq	r0, r3, r7
    10a0:	1aefff0b 	bne	ffc00cd4 <__bss_end__+0xffbf6944>
    10a4:	0000189f 	muleq	r0, pc, r8	; <UNPREDICTABLE>
    10a8:	00002000 	andeq	r2, r0, r0
    10ac:	53000100 	movwpl	r0, #256	; 0x100
	...
    10bc:	0000000c 	andeq	r0, r0, ip
    10c0:	0c500001 	mrrceq	0, 0, r0, r0, cr1	; <UNPREDICTABLE>
    10c4:	20000000 	andcs	r0, r0, r0
    10c8:	01000000 	mrseq	r0, (UNDEF: 0)
    10cc:	00005400 	andeq	r5, r0, r0, lsl #8
    10d0:	00000000 	andeq	r0, r0, r0
    10d4:	00340000 	eorseq	r0, r4, r0
    10d8:	003c0000 	eorseq	r0, ip, r0
    10dc:	00030000 	andeq	r0, r3, r0
    10e0:	3c9f0473 	cfldrscc	mvf0, [pc], {115}	; 0x73
    10e4:	47000000 	strmi	r0, [r0, -r0]
    10e8:	01000000 	mrseq	r0, (UNDEF: 0)
    10ec:	00005300 	andeq	r5, r0, r0, lsl #6
    10f0:	00000000 	andeq	r0, r0, r0
    10f4:	00480000 	subeq	r0, r8, r0
    10f8:	00740000 	rsbseq	r0, r4, r0
    10fc:	00010000 	andeq	r0, r1, r0
    1100:	00007450 	andeq	r7, r0, r0, asr r4
    1104:	00008300 	andeq	r8, r0, r0, lsl #6
    1108:	73000300 	movwvc	r0, #768	; 0x300
    110c:	00009f78 	andeq	r9, r0, r8, ror pc
    1110:	00000000 	andeq	r0, r0, r0
    1114:	8ce80000 	stclhi	0, cr0, [r8]
    1118:	8cec0000 	stclhi	0, cr0, [ip]
    111c:	00020000 	andeq	r0, r2, r0
    1120:	8cec9f30 	stclhi	15, cr9, [ip], #192	; 0xc0
    1124:	8cf00000 	ldclhi	0, cr0, [r0]
    1128:	00010000 	andeq	r0, r1, r0
    112c:	00000050 	andeq	r0, r0, r0, asr r0
    1130:	00000000 	andeq	r0, r0, r0
    1134:	008d0000 	addeq	r0, sp, r0
    1138:	008d0400 	addeq	r0, sp, r0, lsl #8
    113c:	30000200 	andcc	r0, r0, r0, lsl #4
    1140:	008d049f 	umulleq	r0, sp, pc, r4	; <UNPREDICTABLE>
    1144:	008d0800 	addeq	r0, sp, r0, lsl #16
    1148:	53000100 	movwpl	r0, #256	; 0x100
    114c:	00008d0c 	andeq	r8, r0, ip, lsl #26
    1150:	00008d14 	andeq	r8, r0, r4, lsl sp
    1154:	00530001 	subseq	r0, r3, r1
	...
    1160:	04000000 	streq	r0, [r0], #-0
    1164:	01000000 	mrseq	r0, (UNDEF: 0)
    1168:	00045000 	andeq	r5, r4, r0
    116c:	000c0000 	andeq	r0, ip, r0
    1170:	00010000 	andeq	r0, r1, r0
    1174:	00000c53 	andeq	r0, r0, r3, asr ip
    1178:	00001000 	andeq	r1, r0, r0
    117c:	50000100 	andpl	r0, r0, r0, lsl #2
    1180:	00000010 	andeq	r0, r0, r0, lsl r0
    1184:	0000001c 	andeq	r0, r0, ip, lsl r0
    1188:	00530001 	subseq	r0, r3, r1
    118c:	00000000 	andeq	r0, r0, r0
    1190:	3c000000 	stccc	0, cr0, [r0], {-0}
    1194:	47000000 	strmi	r0, [r0, -r0]
    1198:	01000000 	mrseq	r0, (UNDEF: 0)
    119c:	00475000 	subeq	r5, r7, r0
    11a0:	00600000 	rsbeq	r0, r0, r0
    11a4:	00010000 	andeq	r0, r1, r0
    11a8:	00000055 	andeq	r0, r0, r5, asr r0
    11ac:	00000000 	andeq	r0, r0, r0
    11b0:	00005000 	andeq	r5, r0, r0
    11b4:	00005400 	andeq	r5, r0, r0, lsl #8
    11b8:	50000100 	andpl	r0, r0, r0, lsl #2
	...
    11c4:	00000060 	andeq	r0, r0, r0, rrx
    11c8:	0000006c 	andeq	r0, r0, ip, rrx
    11cc:	6c500001 	mrrcvs	0, 0, r0, r0, cr1	; <UNPREDICTABLE>
    11d0:	74000000 	strvc	r0, [r0], #-0
    11d4:	04000000 	streq	r0, [r0], #-0
    11d8:	5001f300 	andpl	pc, r1, r0, lsl #6
    11dc:	0000009f 	muleq	r0, pc, r0	; <UNPREDICTABLE>
    11e0:	00000000 	andeq	r0, r0, r0
    11e4:	00007400 	andeq	r7, r0, r0, lsl #8
    11e8:	00008000 	andeq	r8, r0, r0
    11ec:	50000100 	andpl	r0, r0, r0, lsl #2
    11f0:	00000080 	andeq	r0, r0, r0, lsl #1
    11f4:	00000088 	andeq	r0, r0, r8, lsl #1
    11f8:	01f30004 	mvnseq	r0, r4
    11fc:	00009f50 	andeq	r9, r0, r0, asr pc
	...
    1208:	00900000 	addseq	r0, r0, r0
    120c:	00010000 	andeq	r0, r1, r0
    1210:	00009050 	andeq	r9, r0, r0, asr r0
    1214:	0000d400 	andeq	sp, r0, r0, lsl #8
    1218:	54000100 	strpl	r0, [r0], #-256	; 0x100
	...
    1224:	00000048 	andeq	r0, r0, r8, asr #32
    1228:	0000004c 	andeq	r0, r0, ip, asr #32
    122c:	54550001 	ldrbpl	r0, [r5], #-1
    1230:	58000000 	stmdapl	r0, {}	; <UNPREDICTABLE>
    1234:	01000000 	mrseq	r0, (UNDEF: 0)
    1238:	00605500 	rsbeq	r5, r0, r0, lsl #10
    123c:	00640000 	rsbeq	r0, r4, r0
    1240:	00010000 	andeq	r0, r1, r0
    1244:	00006c55 	andeq	r6, r0, r5, asr ip
    1248:	00007000 	andeq	r7, r0, r0
    124c:	55000100 	strpl	r0, [r0, #-256]	; 0x100
    1250:	00000078 	andeq	r0, r0, r8, ror r0
    1254:	0000007c 	andeq	r0, r0, ip, ror r0
    1258:	84550001 	ldrbhi	r0, [r5], #-1
    125c:	88000000 	stmdahi	r0, {}	; <UNPREDICTABLE>
    1260:	01000000 	mrseq	r0, (UNDEF: 0)
    1264:	008c5500 	addeq	r5, ip, r0, lsl #10
    1268:	00d40000 	sbcseq	r0, r4, r0
    126c:	00010000 	andeq	r0, r1, r0
    1270:	00000055 	andeq	r0, r0, r5, asr r0
    1274:	00000000 	andeq	r0, r0, r0
    1278:	00001c00 	andeq	r1, r0, r0, lsl #24
    127c:	00004400 	andeq	r4, r0, r0, lsl #8
    1280:	53000100 	movwpl	r0, #256	; 0x100
    1284:	00000044 	andeq	r0, r0, r4, asr #32
    1288:	0000004c 	andeq	r0, r0, ip, asr #32
    128c:	0070001c 	rsbseq	r0, r0, ip, lsl r0
    1290:	25f72cf7 	ldrbcs	r2, [r7, #3319]!	; 0xcf7
    1294:	cd0825f4 	cfstr32gt	mvfx2, [r8, #-976]	; 0xfffffc30
    1298:	00cccccc 	sbceq	ip, ip, ip, asr #25
    129c:	1e000000 	cdpne	0, 0, cr0, cr0, cr0, {0}
    12a0:	25f72008 	ldrbcs	r2, [r7, #8]!
    12a4:	332cf725 	msrcc	CPSR_fs, #9699328	; 0x940000
    12a8:	004c9f25 	subeq	r9, ip, r5, lsr #30
    12ac:	00500000 	subseq	r0, r0, r0
    12b0:	00010000 	andeq	r0, r1, r0
    12b4:	00005053 	andeq	r5, r0, r3, asr r0
    12b8:	00005800 	andeq	r5, r0, r0, lsl #16
    12bc:	70001c00 	andvc	r1, r0, r0, lsl #24
    12c0:	f72cf700 			; <UNDEFINED> instruction: 0xf72cf700
    12c4:	0825f425 	stmdaeq	r5!, {r0, r2, r5, sl, ip, sp, lr, pc}
    12c8:	cccccccd 	stclgt	12, cr12, [ip], {205}	; 0xcd
    12cc:	00000000 	andeq	r0, r0, r0
    12d0:	f720081e 			; <UNDEFINED> instruction: 0xf720081e
    12d4:	2cf72525 	cfldr64cs	mvdx2, [r7], #148	; 0x94
    12d8:	589f2533 	ldmpl	pc, {r0, r1, r4, r5, r8, sl, sp}	; <UNPREDICTABLE>
    12dc:	5c000000 	stcpl	0, cr0, [r0], {-0}
    12e0:	01000000 	mrseq	r0, (UNDEF: 0)
    12e4:	005c5300 	subseq	r5, ip, r0, lsl #6
    12e8:	00640000 	rsbeq	r0, r4, r0
    12ec:	001c0000 	andseq	r0, ip, r0
    12f0:	2cf70070 	ldclcs	0, cr0, [r7], #448	; 0x1c0
    12f4:	25f425f7 	ldrbcs	r2, [r4, #1527]!	; 0x5f7
    12f8:	cccccd08 	stclgt	13, cr12, [ip], {8}
    12fc:	000000cc 	andeq	r0, r0, ip, asr #1
    1300:	20081e00 	andcs	r1, r8, r0, lsl #28
    1304:	f72525f7 			; <UNDEFINED> instruction: 0xf72525f7
    1308:	9f25332c 	svcls	0x0025332c
    130c:	00000064 	andeq	r0, r0, r4, rrx
    1310:	00000068 	andeq	r0, r0, r8, rrx
    1314:	68530001 	ldmdavs	r3, {r0}^
    1318:	70000000 	andvc	r0, r0, r0
    131c:	1c000000 	stcne	0, cr0, [r0], {-0}
    1320:	f7007000 			; <UNDEFINED> instruction: 0xf7007000
    1324:	f425f72c 	vld1.8	{d15}, [r5 :128], ip
    1328:	cccd0825 	stclgt	8, cr0, [sp], {37}	; 0x25
    132c:	0000cccc 	andeq	ip, r0, ip, asr #25
    1330:	081e0000 	ldmdaeq	lr, {}	; <UNPREDICTABLE>
    1334:	2525f720 	strcs	pc, [r5, #-1824]!	; 0x720
    1338:	25332cf7 	ldrcs	r2, [r3, #-3319]!	; 0xcf7
    133c:	0000709f 	muleq	r0, pc, r0	; <UNPREDICTABLE>
    1340:	00007400 	andeq	r7, r0, r0, lsl #8
    1344:	53000100 	movwpl	r0, #256	; 0x100
    1348:	00000074 	andeq	r0, r0, r4, ror r0
    134c:	0000007c 	andeq	r0, r0, ip, ror r0
    1350:	0070001c 	rsbseq	r0, r0, ip, lsl r0
    1354:	25f72cf7 	ldrbcs	r2, [r7, #3319]!	; 0xcf7
    1358:	cd0825f4 	cfstr32gt	mvfx2, [r8, #-976]	; 0xfffffc30
    135c:	00cccccc 	sbceq	ip, ip, ip, asr #25
    1360:	1e000000 	cdpne	0, 0, cr0, cr0, cr0, {0}
    1364:	25f72008 	ldrbcs	r2, [r7, #8]!
    1368:	332cf725 	msrcc	CPSR_fs, #9699328	; 0x940000
    136c:	007c9f25 	rsbseq	r9, ip, r5, lsr #30
    1370:	00800000 	addeq	r0, r0, r0
    1374:	00010000 	andeq	r0, r1, r0
    1378:	00008053 	andeq	r8, r0, r3, asr r0
    137c:	00008800 	andeq	r8, r0, r0, lsl #16
    1380:	70001c00 	andvc	r1, r0, r0, lsl #24
    1384:	f72cf700 			; <UNDEFINED> instruction: 0xf72cf700
    1388:	0825f425 	stmdaeq	r5!, {r0, r2, r5, sl, ip, sp, lr, pc}
    138c:	cccccccd 	stclgt	12, cr12, [ip], {205}	; 0xcd
    1390:	00000000 	andeq	r0, r0, r0
    1394:	f720081e 			; <UNDEFINED> instruction: 0xf720081e
    1398:	2cf72525 	cfldr64cs	mvdx2, [r7], #148	; 0x94
    139c:	889f2533 	ldmhi	pc, {r0, r1, r4, r5, r8, sl, sp}	; <UNPREDICTABLE>
    13a0:	8c000000 	stchi	0, cr0, [r0], {-0}
    13a4:	01000000 	mrseq	r0, (UNDEF: 0)
    13a8:	008c5300 	addeq	r5, ip, r0, lsl #6
    13ac:	00900000 	addseq	r0, r0, r0
    13b0:	001c0000 	andseq	r0, ip, r0
    13b4:	2cf70070 	ldclcs	0, cr0, [r7], #448	; 0x1c0
    13b8:	25f425f7 	ldrbcs	r2, [r4, #1527]!	; 0x5f7
    13bc:	cccccd08 	stclgt	13, cr12, [ip], {8}
    13c0:	000000cc 	andeq	r0, r0, ip, asr #1
    13c4:	20081e00 	andcs	r1, r8, r0, lsl #28
    13c8:	f72525f7 			; <UNDEFINED> instruction: 0xf72525f7
    13cc:	9f25332c 	svcls	0x0025332c
    13d0:	00000090 	muleq	r0, r0, r0
    13d4:	00000098 	muleq	r0, r8, r0
    13d8:	0074001c 	rsbseq	r0, r4, ip, lsl r0
    13dc:	25f72cf7 	ldrbcs	r2, [r7, #3319]!	; 0xcf7
    13e0:	cd0825f4 	cfstr32gt	mvfx2, [r8, #-976]	; 0xfffffc30
    13e4:	00cccccc 	sbceq	ip, ip, ip, asr #25
    13e8:	1e000000 	cdpne	0, 0, cr0, cr0, cr0, {0}
    13ec:	25f72008 	ldrbcs	r2, [r7, #8]!
    13f0:	332cf725 	msrcc	CPSR_fs, #9699328	; 0x940000
    13f4:	00989f25 	addseq	r9, r8, r5, lsr #30
    13f8:	009c0000 	addseq	r0, ip, r0
    13fc:	00170000 	andseq	r0, r7, r0
    1400:	2cf70074 	ldclcs	0, cr0, [r7], #464	; 0x1d0
    1404:	007125f7 	ldrshteq	r2, [r1], #-87	; 0xffffffa9
    1408:	25f72cf7 	ldrbcs	r2, [r7, #3319]!	; 0xcf7
    140c:	f720081e 			; <UNDEFINED> instruction: 0xf720081e
    1410:	2cf72525 	cfldr64cs	mvdx2, [r7], #148	; 0x94
    1414:	9c9f2533 	cfldr32ls	mvfx2, [pc], {51}	; 0x33
    1418:	d4000000 	strle	r0, [r0], #-0
    141c:	1c000000 	stcne	0, cr0, [r0], {-0}
    1420:	f7007400 			; <UNDEFINED> instruction: 0xf7007400
    1424:	f425f72c 	vld1.8	{d15}, [r5 :128], ip
    1428:	cccd0825 	stclgt	8, cr0, [sp], {37}	; 0x25
    142c:	0000cccc 	andeq	ip, r0, ip, asr #25
    1430:	081e0000 	ldmdaeq	lr, {}	; <UNPREDICTABLE>
    1434:	2525f720 	strcs	pc, [r5, #-1824]!	; 0x720
    1438:	25332cf7 	ldrcs	r2, [r3, #-3319]!	; 0xcf7
    143c:	0000009f 	muleq	r0, pc, r0	; <UNPREDICTABLE>
    1440:	00000000 	andeq	r0, r0, r0
    1444:	00009400 	andeq	r9, r0, r0, lsl #8
    1448:	0000b800 	andeq	fp, r0, r0, lsl #16
    144c:	50000100 	andpl	r0, r0, r0, lsl #2
    1450:	000000b8 	strheq	r0, [r0], -r8
    1454:	000000c4 	andeq	r0, r0, r4, asr #1
    1458:	71310008 	teqvc	r1, r8
    145c:	00732400 	rsbseq	r2, r3, r0, lsl #8
    1460:	00c49f21 	sbceq	r9, r4, r1, lsr #30
    1464:	00c70000 	sbceq	r0, r7, r0
    1468:	00010000 	andeq	r0, r1, r0
    146c:	00000051 	andeq	r0, r0, r1, asr r0
    1470:	00000000 	andeq	r0, r0, r0
    1474:	0000d400 	andeq	sp, r0, r0, lsl #8
    1478:	0000f800 	andeq	pc, r0, r0, lsl #16
    147c:	50000100 	andpl	r0, r0, r0, lsl #2
    1480:	000000f8 	strdeq	r0, [r0], -r8
    1484:	0000010c 	andeq	r0, r0, ip, lsl #2
    1488:	01f30004 	mvnseq	r0, r4
    148c:	00009f50 	andeq	r9, r0, r0, asr pc
    1490:	00000000 	andeq	r0, r0, r0
    1494:	00e00000 	rsceq	r0, r0, r0
    1498:	00e80000 	rsceq	r0, r8, r0
    149c:	00020000 	andeq	r0, r2, r0
    14a0:	00e89f30 	rsceq	r9, r8, r0, lsr pc
    14a4:	00e80000 	rsceq	r0, r8, r0
    14a8:	00010000 	andeq	r0, r1, r0
    14ac:	0000e852 	andeq	lr, r0, r2, asr r8
    14b0:	0000f000 	andeq	pc, r0, r0
    14b4:	30000200 	andcc	r0, r0, r0, lsl #4
    14b8:	0000f09f 	muleq	r0, pc, r0	; <UNPREDICTABLE>
    14bc:	00010300 	andeq	r0, r1, r0, lsl #6
    14c0:	52000100 	andpl	r0, r0, #0, 2
	...
    14cc:	000000e0 	andeq	r0, r0, r0, ror #1
    14d0:	000000f4 	strdeq	r0, [r0], -r4
    14d4:	9f300002 	svcls	0x00300002
    14d8:	000000f4 	strdeq	r0, [r0], -r4
    14dc:	00000100 	andeq	r0, r0, r0, lsl #2
    14e0:	73310005 	teqvc	r1, #5
    14e4:	009f2400 	addseq	r2, pc, r0, lsl #8
    14e8:	03000001 	movweq	r0, #1
    14ec:	01000001 	tsteq	r0, r1
    14f0:	01035100 	mrseq	r5, (UNDEF: 19)
    14f4:	010c0000 	mrseq	r0, (UNDEF: 12)
    14f8:	00080000 	andeq	r0, r8, r0
    14fc:	5001f331 	andpl	pc, r1, r1, lsr r3	; <UNPREDICTABLE>
    1500:	9f241a4f 	svcls	0x00241a4f
	...
    150c:	0000010c 	andeq	r0, r0, ip, lsl #2
    1510:	00000130 	andeq	r0, r0, r0, lsr r1
    1514:	30500001 	subscc	r0, r0, r1
    1518:	44000001 	strmi	r0, [r0], #-1
    151c:	04000001 	streq	r0, [r0], #-1
    1520:	5001f300 	andpl	pc, r1, r0, lsl #6
    1524:	0000009f 	muleq	r0, pc, r0	; <UNPREDICTABLE>
    1528:	00000000 	andeq	r0, r0, r0
    152c:	00011800 	andeq	r1, r1, r0, lsl #16
    1530:	00012000 	andeq	r2, r1, r0
    1534:	30000200 	andcc	r0, r0, r0, lsl #4
    1538:	0001209f 	muleq	r1, pc, r0	; <UNPREDICTABLE>
    153c:	00012000 	andeq	r2, r1, r0
    1540:	52000100 	andpl	r0, r0, #0, 2
    1544:	00000120 	andeq	r0, r0, r0, lsr #2
    1548:	00000128 	andeq	r0, r0, r8, lsr #2
    154c:	9f300002 	svcls	0x00300002
    1550:	00000128 	andeq	r0, r0, r8, lsr #2
    1554:	0000013b 	andeq	r0, r0, fp, lsr r1
    1558:	00520001 	subseq	r0, r2, r1
    155c:	00000000 	andeq	r0, r0, r0
    1560:	18000000 	stmdane	r0, {}	; <UNPREDICTABLE>
    1564:	2c000001 	stccs	0, cr0, [r0], {1}
    1568:	02000001 	andeq	r0, r0, #1
    156c:	2c9f3000 	ldccs	0, cr3, [pc], {0}
    1570:	38000001 	stmdacc	r0, {r0}
    1574:	05000001 	streq	r0, [r0, #-1]
    1578:	00733100 	rsbseq	r3, r3, r0, lsl #2
    157c:	01389f24 	teqeq	r8, r4, lsr #30
    1580:	013b0000 	teqeq	fp, r0
    1584:	00010000 	andeq	r0, r1, r0
    1588:	00013b51 	andeq	r3, r1, r1, asr fp
    158c:	00014400 	andeq	r4, r1, r0, lsl #8
    1590:	31000800 	tstcc	r0, r0, lsl #16
    1594:	4f5001f3 	svcmi	0x005001f3
    1598:	009f241a 	addseq	r2, pc, sl, lsl r4	; <UNPREDICTABLE>
    159c:	00000000 	andeq	r0, r0, r0
    15a0:	44000000 	strmi	r0, [r0], #-0
    15a4:	d4000001 	strle	r0, [r0], #-1
    15a8:	01000001 	tsteq	r0, r1
    15ac:	01d45000 	bicseq	r5, r4, r0
    15b0:	02100000 	andseq	r0, r0, #0
    15b4:	00010000 	andeq	r0, r1, r0
    15b8:	00000054 	andeq	r0, r0, r4, asr r0
    15bc:	00000000 	andeq	r0, r0, r0
    15c0:	00018c00 	andeq	r8, r1, r0, lsl #24
    15c4:	00019000 	andeq	r9, r1, r0
    15c8:	55000100 	strpl	r0, [r0, #-256]	; 0x100
    15cc:	00000198 	muleq	r0, r8, r1
    15d0:	0000019c 	muleq	r0, ip, r1
    15d4:	a4550001 	ldrbge	r0, [r5], #-1
    15d8:	a8000001 	stmdage	r0, {r0}
    15dc:	01000001 	tsteq	r0, r1
    15e0:	01b05500 	lslseq	r5, r0, #10
    15e4:	01b40000 			; <UNDEFINED> instruction: 0x01b40000
    15e8:	00010000 	andeq	r0, r1, r0
    15ec:	0001bc55 	andeq	fp, r1, r5, asr ip
    15f0:	0001c000 	andeq	ip, r1, r0
    15f4:	55000100 	strpl	r0, [r0, #-256]	; 0x100
    15f8:	000001c8 	andeq	r0, r0, r8, asr #3
    15fc:	000001cc 	andeq	r0, r0, ip, asr #3
    1600:	d0550001 	subsle	r0, r5, r1
    1604:	10000001 	andne	r0, r0, r1
    1608:	01000002 	tsteq	r0, r2
    160c:	00005500 	andeq	r5, r0, r0, lsl #10
    1610:	00000000 	andeq	r0, r0, r0
    1614:	01600000 	cmneq	r0, r0
    1618:	01880000 	orreq	r0, r8, r0
    161c:	00010000 	andeq	r0, r1, r0
    1620:	00018853 	andeq	r8, r1, r3, asr r8
    1624:	00019000 	andeq	r9, r1, r0
    1628:	70001c00 	andvc	r1, r0, r0, lsl #24
    162c:	f72cf700 			; <UNDEFINED> instruction: 0xf72cf700
    1630:	0825f425 	stmdaeq	r5!, {r0, r2, r5, sl, ip, sp, lr, pc}
    1634:	cccccccd 	stclgt	12, cr12, [ip], {205}	; 0xcd
    1638:	00000000 	andeq	r0, r0, r0
    163c:	f720081e 			; <UNDEFINED> instruction: 0xf720081e
    1640:	2cf72525 	cfldr64cs	mvdx2, [r7], #148	; 0x94
    1644:	909f2533 	addsls	r2, pc, r3, lsr r5	; <UNPREDICTABLE>
    1648:	94000001 	strls	r0, [r0], #-1
    164c:	01000001 	tsteq	r0, r1
    1650:	01945300 	orrseq	r5, r4, r0, lsl #6
    1654:	019c0000 	orrseq	r0, ip, r0
    1658:	001c0000 	andseq	r0, ip, r0
    165c:	2cf70070 	ldclcs	0, cr0, [r7], #448	; 0x1c0
    1660:	25f425f7 	ldrbcs	r2, [r4, #1527]!	; 0x5f7
    1664:	cccccd08 	stclgt	13, cr12, [ip], {8}
    1668:	000000cc 	andeq	r0, r0, ip, asr #1
    166c:	20081e00 	andcs	r1, r8, r0, lsl #28
    1670:	f72525f7 			; <UNDEFINED> instruction: 0xf72525f7
    1674:	9f25332c 	svcls	0x0025332c
    1678:	0000019c 	muleq	r0, ip, r1
    167c:	000001a0 	andeq	r0, r0, r0, lsr #3
    1680:	a0530001 	subsge	r0, r3, r1
    1684:	a8000001 	stmdage	r0, {r0}
    1688:	1c000001 	stcne	0, cr0, [r0], {1}
    168c:	f7007000 			; <UNDEFINED> instruction: 0xf7007000
    1690:	f425f72c 	vld1.8	{d15}, [r5 :128], ip
    1694:	cccd0825 	stclgt	8, cr0, [sp], {37}	; 0x25
    1698:	0000cccc 	andeq	ip, r0, ip, asr #25
    169c:	081e0000 	ldmdaeq	lr, {}	; <UNPREDICTABLE>
    16a0:	2525f720 	strcs	pc, [r5, #-1824]!	; 0x720
    16a4:	25332cf7 	ldrcs	r2, [r3, #-3319]!	; 0xcf7
    16a8:	0001a89f 	muleq	r1, pc, r8	; <UNPREDICTABLE>
    16ac:	0001ac00 	andeq	sl, r1, r0, lsl #24
    16b0:	53000100 	movwpl	r0, #256	; 0x100
    16b4:	000001ac 	andeq	r0, r0, ip, lsr #3
    16b8:	000001b4 			; <UNDEFINED> instruction: 0x000001b4
    16bc:	0070001c 	rsbseq	r0, r0, ip, lsl r0
    16c0:	25f72cf7 	ldrbcs	r2, [r7, #3319]!	; 0xcf7
    16c4:	cd0825f4 	cfstr32gt	mvfx2, [r8, #-976]	; 0xfffffc30
    16c8:	00cccccc 	sbceq	ip, ip, ip, asr #25
    16cc:	1e000000 	cdpne	0, 0, cr0, cr0, cr0, {0}
    16d0:	25f72008 	ldrbcs	r2, [r7, #8]!
    16d4:	332cf725 	msrcc	CPSR_fs, #9699328	; 0x940000
    16d8:	01b49f25 			; <UNDEFINED> instruction: 0x01b49f25
    16dc:	01b80000 			; <UNDEFINED> instruction: 0x01b80000
    16e0:	00010000 	andeq	r0, r1, r0
    16e4:	0001b853 	andeq	fp, r1, r3, asr r8
    16e8:	0001c000 	andeq	ip, r1, r0
    16ec:	70001c00 	andvc	r1, r0, r0, lsl #24
    16f0:	f72cf700 			; <UNDEFINED> instruction: 0xf72cf700
    16f4:	0825f425 	stmdaeq	r5!, {r0, r2, r5, sl, ip, sp, lr, pc}
    16f8:	cccccccd 	stclgt	12, cr12, [ip], {205}	; 0xcd
    16fc:	00000000 	andeq	r0, r0, r0
    1700:	f720081e 			; <UNDEFINED> instruction: 0xf720081e
    1704:	2cf72525 	cfldr64cs	mvdx2, [r7], #148	; 0x94
    1708:	c09f2533 	addsgt	r2, pc, r3, lsr r5	; <UNPREDICTABLE>
    170c:	c4000001 	strgt	r0, [r0], #-1
    1710:	01000001 	tsteq	r0, r1
    1714:	01c45300 	biceq	r5, r4, r0, lsl #6
    1718:	01cc0000 	biceq	r0, ip, r0
    171c:	001c0000 	andseq	r0, ip, r0
    1720:	2cf70070 	ldclcs	0, cr0, [r7], #448	; 0x1c0
    1724:	25f425f7 	ldrbcs	r2, [r4, #1527]!	; 0x5f7
    1728:	cccccd08 	stclgt	13, cr12, [ip], {8}
    172c:	000000cc 	andeq	r0, r0, ip, asr #1
    1730:	20081e00 	andcs	r1, r8, r0, lsl #28
    1734:	f72525f7 			; <UNDEFINED> instruction: 0xf72525f7
    1738:	9f25332c 	svcls	0x0025332c
    173c:	000001cc 	andeq	r0, r0, ip, asr #3
    1740:	000001d0 	ldrdeq	r0, [r0], -r0	; <UNPREDICTABLE>
    1744:	d0530001 	subsle	r0, r3, r1
    1748:	d4000001 	strle	r0, [r0], #-1
    174c:	1c000001 	stcne	0, cr0, [r0], {1}
    1750:	f7007000 			; <UNDEFINED> instruction: 0xf7007000
    1754:	f425f72c 	vld1.8	{d15}, [r5 :128], ip
    1758:	cccd0825 	stclgt	8, cr0, [sp], {37}	; 0x25
    175c:	0000cccc 	andeq	ip, r0, ip, asr #25
    1760:	081e0000 	ldmdaeq	lr, {}	; <UNPREDICTABLE>
    1764:	2525f720 	strcs	pc, [r5, #-1824]!	; 0x720
    1768:	25332cf7 	ldrcs	r2, [r3, #-3319]!	; 0xcf7
    176c:	0001d49f 	muleq	r1, pc, r4	; <UNPREDICTABLE>
    1770:	0001dc00 	andeq	sp, r1, r0, lsl #24
    1774:	74001c00 	strvc	r1, [r0], #-3072	; 0xc00
    1778:	f72cf700 			; <UNDEFINED> instruction: 0xf72cf700
    177c:	0825f425 	stmdaeq	r5!, {r0, r2, r5, sl, ip, sp, lr, pc}
    1780:	cccccccd 	stclgt	12, cr12, [ip], {205}	; 0xcd
    1784:	00000000 	andeq	r0, r0, r0
    1788:	f720081e 			; <UNDEFINED> instruction: 0xf720081e
    178c:	2cf72525 	cfldr64cs	mvdx2, [r7], #148	; 0x94
    1790:	dc9f2533 	cfldr32le	mvfx2, [pc], {51}	; 0x33
    1794:	e0000001 	and	r0, r0, r1
    1798:	17000001 	strne	r0, [r0, -r1]
    179c:	f7007400 			; <UNDEFINED> instruction: 0xf7007400
    17a0:	7125f72c 	msrvc	SP_abt, ip
    17a4:	f72cf700 			; <UNDEFINED> instruction: 0xf72cf700
    17a8:	20081e25 	andcs	r1, r8, r5, lsr #28
    17ac:	f72525f7 			; <UNDEFINED> instruction: 0xf72525f7
    17b0:	9f25332c 	svcls	0x0025332c
    17b4:	000001e0 	andeq	r0, r0, r0, ror #3
    17b8:	00000210 	andeq	r0, r0, r0, lsl r2
    17bc:	0074001c 	rsbseq	r0, r4, ip, lsl r0
    17c0:	25f72cf7 	ldrbcs	r2, [r7, #3319]!	; 0xcf7
    17c4:	cd0825f4 	cfstr32gt	mvfx2, [r8, #-976]	; 0xfffffc30
    17c8:	00cccccc 	sbceq	ip, ip, ip, asr #25
    17cc:	1e000000 	cdpne	0, 0, cr0, cr0, cr0, {0}
    17d0:	25f72008 	ldrbcs	r2, [r7, #8]!
    17d4:	332cf725 	msrcc	CPSR_fs, #9699328	; 0x940000
    17d8:	00009f25 	andeq	r9, r0, r5, lsr #30
    17dc:	00000000 	andeq	r0, r0, r0
    17e0:	01d80000 	bicseq	r0, r8, r0
    17e4:	01fc0000 	mvnseq	r0, r0
    17e8:	00010000 	andeq	r0, r1, r0
    17ec:	0001fc50 	andeq	pc, r1, r0, asr ip	; <UNPREDICTABLE>
    17f0:	00020300 	andeq	r0, r2, r0, lsl #6
    17f4:	51000100 	mrspl	r0, (UNDEF: 16)
	...
    1800:	00000210 	andeq	r0, r0, r0, lsl r2
    1804:	0000022c 	andeq	r0, r0, ip, lsr #4
    1808:	2c500001 	mrrccs	0, 0, r0, r0, cr1	; <UNPREDICTABLE>
    180c:	34000002 	strcc	r0, [r0], #-2
    1810:	01000002 	tsteq	r0, r2
    1814:	02345400 	eorseq	r5, r4, #0, 8
    1818:	023c0000 	eorseq	r0, ip, #0
    181c:	00010000 	andeq	r0, r1, r0
    1820:	00023c50 	andeq	r3, r2, r0, asr ip
    1824:	00024400 	andeq	r4, r2, r0, lsl #8
    1828:	54000100 	strpl	r0, [r0], #-256	; 0x100
    182c:	00000244 	andeq	r0, r0, r4, asr #4
    1830:	00000250 	andeq	r0, r0, r0, asr r2
    1834:	01f30004 	mvnseq	r0, r4
    1838:	02509f50 	subseq	r9, r0, #80, 30	; 0x140
    183c:	02540000 	subseq	r0, r4, #0
    1840:	00010000 	andeq	r0, r1, r0
    1844:	00025450 	andeq	r5, r2, r0, asr r4
    1848:	00025c00 	andeq	r5, r2, r0, lsl #24
    184c:	54000100 	strpl	r0, [r0], #-256	; 0x100
	...
    1858:	00000220 	andeq	r0, r0, r0, lsr #4
    185c:	00000230 	andeq	r0, r0, r0, lsr r2
    1860:	9f300002 	svcls	0x00300002
    1864:	00000230 	andeq	r0, r0, r0, lsr r2
    1868:	00000234 	andeq	r0, r0, r4, lsr r2
    186c:	34500001 	ldrbcc	r0, [r0], #-1
    1870:	40000002 	andmi	r0, r0, r2
    1874:	02000002 	andeq	r0, r0, #2
    1878:	409f3000 	addsmi	r3, pc, r0
    187c:	4c000002 	stcmi	0, cr0, [r0], {2}
    1880:	01000002 	tsteq	r0, r2
    1884:	00005000 	andeq	r5, r0, r0
    1888:	00000000 	andeq	r0, r0, r0
    188c:	025c0000 	subseq	r0, ip, #0
    1890:	02730000 	rsbseq	r0, r3, #0
    1894:	00010000 	andeq	r0, r1, r0
    1898:	00027350 	andeq	r7, r2, r0, asr r3
    189c:	00027800 	andeq	r7, r2, r0, lsl #16
    18a0:	f3000400 	vshl.u8	d0, d0, d0
    18a4:	789f5001 	ldmvc	pc, {r0, ip, lr}	; <UNPREDICTABLE>
    18a8:	7b000002 	blvc	18b8 <_start-0x6748>
    18ac:	01000002 	tsteq	r0, r2
    18b0:	027b5000 	rsbseq	r5, fp, #0
    18b4:	02800000 	addeq	r0, r0, #0
    18b8:	00040000 	andeq	r0, r4, r0
    18bc:	9f5001f3 	svcls	0x005001f3
	...
    18c8:	0000025c 	andeq	r0, r0, ip, asr r2
    18cc:	00000273 	andeq	r0, r0, r3, ror r2
    18d0:	73510001 	cmpvc	r1, #1
    18d4:	78000002 	stmdavc	r0, {r1}
    18d8:	04000002 	streq	r0, [r0], #-2
    18dc:	5101f300 	mrspl	pc, SP_irq	; <UNPREDICTABLE>
    18e0:	0002789f 	muleq	r2, pc, r8	; <UNPREDICTABLE>
    18e4:	00027b00 	andeq	r7, r2, r0, lsl #22
    18e8:	51000100 	mrspl	r0, (UNDEF: 16)
    18ec:	0000027b 	andeq	r0, r0, fp, ror r2
    18f0:	00000280 	andeq	r0, r0, r0, lsl #5
    18f4:	01f30004 	mvnseq	r0, r4
    18f8:	00009f51 	andeq	r9, r0, r1, asr pc
    18fc:	00000000 	andeq	r0, r0, r0
    1900:	02800000 	addeq	r0, r0, #0
    1904:	03180000 	tsteq	r8, #0
    1908:	00010000 	andeq	r0, r1, r0
    190c:	00031850 	andeq	r1, r3, r0, asr r8
    1910:	00035800 	andeq	r5, r3, r0, lsl #16
    1914:	54000100 	strpl	r0, [r0], #-256	; 0x100
	...
    1920:	00000280 	andeq	r0, r0, r0, lsl #5
    1924:	0000031b 	andeq	r0, r0, fp, lsl r3
    1928:	1b510001 	blne	1441934 <__bss_end__+0x14375a4>
    192c:	58000003 	stmdapl	r0, {r0, r1}
    1930:	04000003 	streq	r0, [r0], #-3
    1934:	5101f300 	mrspl	pc, SP_irq	; <UNPREDICTABLE>
    1938:	0000009f 	muleq	r0, pc, r0	; <UNPREDICTABLE>
    193c:	00000000 	andeq	r0, r0, r0
    1940:	0002d000 	andeq	sp, r2, r0
    1944:	0002d400 	andeq	sp, r2, r0, lsl #8
    1948:	56000100 	strpl	r0, [r0], -r0, lsl #2
    194c:	000002dc 	ldrdeq	r0, [r0], -ip
    1950:	000002e0 	andeq	r0, r0, r0, ror #5
    1954:	e8560001 	ldmda	r6, {r0}^
    1958:	ec000002 	stc	0, cr0, [r0], {2}
    195c:	01000002 	tsteq	r0, r2
    1960:	02f45600 	rscseq	r5, r4, #0, 12
    1964:	02f80000 	rscseq	r0, r8, #0
    1968:	00010000 	andeq	r0, r1, r0
    196c:	00030056 	andeq	r0, r3, r6, asr r0
    1970:	00030400 	andeq	r0, r3, r0, lsl #8
    1974:	56000100 	strpl	r0, [r0], -r0, lsl #2
    1978:	0000030c 	andeq	r0, r0, ip, lsl #6
    197c:	00000310 	andeq	r0, r0, r0, lsl r3
    1980:	14560001 	ldrbne	r0, [r6], #-1
    1984:	58000003 	stmdapl	r0, {r0, r1}
    1988:	01000003 	tsteq	r0, r3
    198c:	00005600 	andeq	r5, r0, r0, lsl #12
    1990:	00000000 	andeq	r0, r0, r0
    1994:	02a40000 	adceq	r0, r4, #0
    1998:	02cc0000 	sbceq	r0, ip, #0
    199c:	00010000 	andeq	r0, r1, r0
    19a0:	0002cc53 	andeq	ip, r2, r3, asr ip
    19a4:	0002d400 	andeq	sp, r2, r0, lsl #8
    19a8:	70001c00 	andvc	r1, r0, r0, lsl #24
    19ac:	f72cf700 			; <UNDEFINED> instruction: 0xf72cf700
    19b0:	0825f425 	stmdaeq	r5!, {r0, r2, r5, sl, ip, sp, lr, pc}
    19b4:	cccccccd 	stclgt	12, cr12, [ip], {205}	; 0xcd
    19b8:	00000000 	andeq	r0, r0, r0
    19bc:	f720081e 			; <UNDEFINED> instruction: 0xf720081e
    19c0:	2cf72525 	cfldr64cs	mvdx2, [r7], #148	; 0x94
    19c4:	d49f2533 	ldrle	r2, [pc], #1331	; 19cc <_start-0x6634>
    19c8:	d8000002 	stmdale	r0, {r1}
    19cc:	01000002 	tsteq	r0, r2
    19d0:	02d85300 	sbcseq	r5, r8, #0, 6
    19d4:	02e00000 	rsceq	r0, r0, #0
    19d8:	001c0000 	andseq	r0, ip, r0
    19dc:	2cf70070 	ldclcs	0, cr0, [r7], #448	; 0x1c0
    19e0:	25f425f7 	ldrbcs	r2, [r4, #1527]!	; 0x5f7
    19e4:	cccccd08 	stclgt	13, cr12, [ip], {8}
    19e8:	000000cc 	andeq	r0, r0, ip, asr #1
    19ec:	20081e00 	andcs	r1, r8, r0, lsl #28
    19f0:	f72525f7 			; <UNDEFINED> instruction: 0xf72525f7
    19f4:	9f25332c 	svcls	0x0025332c
    19f8:	000002e0 	andeq	r0, r0, r0, ror #5
    19fc:	000002e4 	andeq	r0, r0, r4, ror #5
    1a00:	e4530001 	ldrb	r0, [r3], #-1
    1a04:	ec000002 	stc	0, cr0, [r0], {2}
    1a08:	1c000002 	stcne	0, cr0, [r0], {2}
    1a0c:	f7007000 			; <UNDEFINED> instruction: 0xf7007000
    1a10:	f425f72c 	vld1.8	{d15}, [r5 :128], ip
    1a14:	cccd0825 	stclgt	8, cr0, [sp], {37}	; 0x25
    1a18:	0000cccc 	andeq	ip, r0, ip, asr #25
    1a1c:	081e0000 	ldmdaeq	lr, {}	; <UNPREDICTABLE>
    1a20:	2525f720 	strcs	pc, [r5, #-1824]!	; 0x720
    1a24:	25332cf7 	ldrcs	r2, [r3, #-3319]!	; 0xcf7
    1a28:	0002ec9f 	muleq	r2, pc, ip	; <UNPREDICTABLE>
    1a2c:	0002f000 	andeq	pc, r2, r0
    1a30:	53000100 	movwpl	r0, #256	; 0x100
    1a34:	000002f0 	strdeq	r0, [r0], -r0	; <UNPREDICTABLE>
    1a38:	000002f8 	strdeq	r0, [r0], -r8
    1a3c:	0070001c 	rsbseq	r0, r0, ip, lsl r0
    1a40:	25f72cf7 	ldrbcs	r2, [r7, #3319]!	; 0xcf7
    1a44:	cd0825f4 	cfstr32gt	mvfx2, [r8, #-976]	; 0xfffffc30
    1a48:	00cccccc 	sbceq	ip, ip, ip, asr #25
    1a4c:	1e000000 	cdpne	0, 0, cr0, cr0, cr0, {0}
    1a50:	25f72008 	ldrbcs	r2, [r7, #8]!
    1a54:	332cf725 	msrcc	CPSR_fs, #9699328	; 0x940000
    1a58:	02f89f25 	rscseq	r9, r8, #37, 30	; 0x94
    1a5c:	02fc0000 	rscseq	r0, ip, #0
    1a60:	00010000 	andeq	r0, r1, r0
    1a64:	0002fc53 	andeq	pc, r2, r3, asr ip	; <UNPREDICTABLE>
    1a68:	00030400 	andeq	r0, r3, r0, lsl #8
    1a6c:	70001c00 	andvc	r1, r0, r0, lsl #24
    1a70:	f72cf700 			; <UNDEFINED> instruction: 0xf72cf700
    1a74:	0825f425 	stmdaeq	r5!, {r0, r2, r5, sl, ip, sp, lr, pc}
    1a78:	cccccccd 	stclgt	12, cr12, [ip], {205}	; 0xcd
    1a7c:	00000000 	andeq	r0, r0, r0
    1a80:	f720081e 			; <UNDEFINED> instruction: 0xf720081e
    1a84:	2cf72525 	cfldr64cs	mvdx2, [r7], #148	; 0x94
    1a88:	049f2533 	ldreq	r2, [pc], #1331	; 1a90 <_start-0x6570>
    1a8c:	08000003 	stmdaeq	r0, {r0, r1}
    1a90:	01000003 	tsteq	r0, r3
    1a94:	03085300 	movweq	r5, #33536	; 0x8300
    1a98:	03100000 	tsteq	r0, #0
    1a9c:	001c0000 	andseq	r0, ip, r0
    1aa0:	2cf70070 	ldclcs	0, cr0, [r7], #448	; 0x1c0
    1aa4:	25f425f7 	ldrbcs	r2, [r4, #1527]!	; 0x5f7
    1aa8:	cccccd08 	stclgt	13, cr12, [ip], {8}
    1aac:	000000cc 	andeq	r0, r0, ip, asr #1
    1ab0:	20081e00 	andcs	r1, r8, r0, lsl #28
    1ab4:	f72525f7 			; <UNDEFINED> instruction: 0xf72525f7
    1ab8:	9f25332c 	svcls	0x0025332c
    1abc:	00000310 	andeq	r0, r0, r0, lsl r3
    1ac0:	00000314 	andeq	r0, r0, r4, lsl r3
    1ac4:	14530001 	ldrbne	r0, [r3], #-1
    1ac8:	18000003 	stmdane	r0, {r0, r1}
    1acc:	1c000003 	stcne	0, cr0, [r0], {3}
    1ad0:	f7007000 			; <UNDEFINED> instruction: 0xf7007000
    1ad4:	f425f72c 	vld1.8	{d15}, [r5 :128], ip
    1ad8:	cccd0825 	stclgt	8, cr0, [sp], {37}	; 0x25
    1adc:	0000cccc 	andeq	ip, r0, ip, asr #25
    1ae0:	081e0000 	ldmdaeq	lr, {}	; <UNPREDICTABLE>
    1ae4:	2525f720 	strcs	pc, [r5, #-1824]!	; 0x720
    1ae8:	25332cf7 	ldrcs	r2, [r3, #-3319]!	; 0xcf7
    1aec:	0003189f 	muleq	r3, pc, r8	; <UNPREDICTABLE>
    1af0:	00032000 	andeq	r2, r3, r0
    1af4:	74001c00 	strvc	r1, [r0], #-3072	; 0xc00
    1af8:	f72cf700 			; <UNDEFINED> instruction: 0xf72cf700
    1afc:	0825f425 	stmdaeq	r5!, {r0, r2, r5, sl, ip, sp, lr, pc}
    1b00:	cccccccd 	stclgt	12, cr12, [ip], {205}	; 0xcd
    1b04:	00000000 	andeq	r0, r0, r0
    1b08:	f720081e 			; <UNDEFINED> instruction: 0xf720081e
    1b0c:	2cf72525 	cfldr64cs	mvdx2, [r7], #148	; 0x94
    1b10:	209f2533 	addscs	r2, pc, r3, lsr r5	; <UNPREDICTABLE>
    1b14:	24000003 	strcs	r0, [r0], #-3
    1b18:	17000003 	strne	r0, [r0, -r3]
    1b1c:	f7007400 			; <UNDEFINED> instruction: 0xf7007400
    1b20:	7325f72c 	msrvc	CPSR_sc, #44, 14	; 0xb00000
    1b24:	f72cf700 			; <UNDEFINED> instruction: 0xf72cf700
    1b28:	20081e25 	andcs	r1, r8, r5, lsr #28
    1b2c:	f72525f7 			; <UNDEFINED> instruction: 0xf72525f7
    1b30:	9f25332c 	svcls	0x0025332c
    1b34:	00000324 	andeq	r0, r0, r4, lsr #6
    1b38:	00000358 	andeq	r0, r0, r8, asr r3
    1b3c:	0074001c 	rsbseq	r0, r4, ip, lsl r0
    1b40:	25f72cf7 	ldrbcs	r2, [r7, #3319]!	; 0xcf7
    1b44:	cd0825f4 	cfstr32gt	mvfx2, [r8, #-976]	; 0xfffffc30
    1b48:	00cccccc 	sbceq	ip, ip, ip, asr #25
    1b4c:	1e000000 	cdpne	0, 0, cr0, cr0, cr0, {0}
    1b50:	25f72008 	ldrbcs	r2, [r7, #8]!
    1b54:	332cf725 	msrcc	CPSR_fs, #9699328	; 0x940000
    1b58:	00009f25 	andeq	r9, r0, r5, lsr #30
    1b5c:	00000000 	andeq	r0, r0, r0
    1b60:	031c0000 	tsteq	ip, #0
    1b64:	03400000 	movteq	r0, #0
    1b68:	00010000 	andeq	r0, r1, r0
    1b6c:	00034050 	andeq	r4, r3, r0, asr r0
    1b70:	00034800 	andeq	r4, r3, r0, lsl #16
    1b74:	75000900 	strvc	r0, [r0, #-2304]	; 0x900
    1b78:	24007300 	strcs	r7, [r0], #-768	; 0x300
    1b7c:	9f210071 	svcls	0x00210071
    1b80:	00000348 	andeq	r0, r0, r8, asr #6
    1b84:	0000034b 	andeq	r0, r0, fp, asr #6
    1b88:	00510001 	subseq	r0, r1, r1
    1b8c:	00000000 	andeq	r0, r0, r0
    1b90:	58000000 	stmdapl	r0, {}	; <UNPREDICTABLE>
    1b94:	7c000003 	stcvc	0, cr0, [r0], {3}
    1b98:	01000003 	tsteq	r0, r3
    1b9c:	037c5000 	cmneq	ip, #0
    1ba0:	03900000 	orrseq	r0, r0, #0
    1ba4:	00040000 	andeq	r0, r4, r0
    1ba8:	9f5001f3 	svcls	0x005001f3
	...
    1bb4:	00000364 	andeq	r0, r0, r4, ror #6
    1bb8:	0000036c 	andeq	r0, r0, ip, ror #6
    1bbc:	9f300002 	svcls	0x00300002
    1bc0:	0000036c 	andeq	r0, r0, ip, ror #6
    1bc4:	0000036c 	andeq	r0, r0, ip, ror #6
    1bc8:	6c520001 	mrrcvs	0, 0, r0, r2, cr1
    1bcc:	74000003 	strvc	r0, [r0], #-3
    1bd0:	02000003 	andeq	r0, r0, #3
    1bd4:	749f3000 	ldrvc	r3, [pc], #0	; 1bdc <_start-0x6424>
    1bd8:	87000003 	strhi	r0, [r0, -r3]
    1bdc:	01000003 	tsteq	r0, r3
    1be0:	00005200 	andeq	r5, r0, r0, lsl #4
    1be4:	00000000 	andeq	r0, r0, r0
    1be8:	03640000 	cmneq	r4, #0
    1bec:	03780000 	cmneq	r8, #0
    1bf0:	00020000 	andeq	r0, r2, r0
    1bf4:	03789f30 	cmneq	r8, #48, 30	; 0xc0
    1bf8:	03840000 	orreq	r0, r4, #0
    1bfc:	00050000 	andeq	r0, r5, r0
    1c00:	24007331 	strcs	r7, [r0], #-817	; 0x331
    1c04:	0003849f 	muleq	r3, pc, r4	; <UNPREDICTABLE>
    1c08:	00038700 	andeq	r8, r3, r0, lsl #14
    1c0c:	51000100 	mrspl	r0, (UNDEF: 16)
    1c10:	00000387 	andeq	r0, r0, r7, lsl #7
    1c14:	00000390 	muleq	r0, r0, r3
    1c18:	f3310008 	vhadd.u<illegal width 64>	d0, d1, d8
    1c1c:	1a4f5001 	bne	13d5c28 <__bss_end__+0x13cb898>
    1c20:	00009f24 	andeq	r9, r0, r4, lsr #30
    1c24:	00000000 	andeq	r0, r0, r0
    1c28:	03900000 	orrseq	r0, r0, #0
    1c2c:	039c0000 	orrseq	r0, ip, #0
    1c30:	00010000 	andeq	r0, r1, r0
    1c34:	00039c50 	andeq	r9, r3, r0, asr ip
    1c38:	0003bc00 	andeq	fp, r3, r0, lsl #24
    1c3c:	f3000400 	vshl.u8	d0, d0, d0
    1c40:	009f5001 	addseq	r5, pc, r1
    1c44:	00000000 	andeq	r0, r0, r0
    1c48:	bc000000 	stclt	0, cr0, [r0], {-0}
    1c4c:	cf000003 	svcgt	0x00000003
    1c50:	01000003 	tsteq	r0, r3
    1c54:	03cf5000 	biceq	r5, pc, #0
    1c58:	04080000 	streq	r0, [r8], #-0
    1c5c:	00010000 	andeq	r0, r1, r0
    1c60:	00040854 	andeq	r0, r4, r4, asr r8
    1c64:	00044000 	andeq	r4, r4, r0
    1c68:	f3000400 	vshl.u8	d0, d0, d0
    1c6c:	009f5001 	addseq	r5, pc, r1
    1c70:	00000000 	andeq	r0, r0, r0
    1c74:	28000000 	stmdacs	r0, {}	; <UNPREDICTABLE>
    1c78:	2c000004 	stccs	0, cr0, [r0], {4}
    1c7c:	01000004 	tsteq	r0, r4
    1c80:	042c5000 	strteq	r5, [ip], #-0
    1c84:	04330000 	ldrteq	r0, [r3], #-0
    1c88:	00010000 	andeq	r0, r1, r0
    1c8c:	00000051 	andeq	r0, r0, r1, asr r0
    1c90:	00000000 	andeq	r0, r0, r0
    1c94:	0003e400 	andeq	lr, r3, r0, lsl #8
    1c98:	0003ec00 	andeq	lr, r3, r0, lsl #24
    1c9c:	50000100 	andpl	r0, r0, r0, lsl #2
    1ca0:	000003ec 	andeq	r0, r0, ip, ror #7
    1ca4:	000003f3 	strdeq	r0, [r0], -r3
    1ca8:	00510001 	subseq	r0, r1, r1
    1cac:	00000000 	andeq	r0, r0, r0
    1cb0:	04000000 	streq	r0, [r0], #-0
    1cb4:	10000004 	andne	r0, r0, r4
    1cb8:	01000004 	tsteq	r0, r4
    1cbc:	04105000 	ldreq	r5, [r0], #-0
    1cc0:	04170000 	ldreq	r0, [r7], #-0
    1cc4:	00010000 	andeq	r0, r1, r0
    1cc8:	00000051 	andeq	r0, r0, r1, asr r0
    1ccc:	00000000 	andeq	r0, r0, r0
    1cd0:	00044000 	andeq	r4, r4, r0
    1cd4:	00045300 	andeq	r5, r4, r0, lsl #6
    1cd8:	50000100 	andpl	r0, r0, r0, lsl #2
    1cdc:	00000453 	andeq	r0, r0, r3, asr r4
    1ce0:	0000048c 	andeq	r0, r0, ip, lsl #9
    1ce4:	8c540001 	mrrchi	0, 0, r0, r4, cr1
    1ce8:	c4000004 	strgt	r0, [r0], #-4
    1cec:	04000004 	streq	r0, [r0], #-4
    1cf0:	5001f300 	andpl	pc, r1, r0, lsl #6
    1cf4:	0000009f 	muleq	r0, pc, r0	; <UNPREDICTABLE>
    1cf8:	00000000 	andeq	r0, r0, r0
    1cfc:	0004ac00 	andeq	sl, r4, r0, lsl #24
    1d00:	0004b000 	andeq	fp, r4, r0
    1d04:	50000100 	andpl	r0, r0, r0, lsl #2
    1d08:	000004b0 			; <UNDEFINED> instruction: 0x000004b0
    1d0c:	000004b7 			; <UNDEFINED> instruction: 0x000004b7
    1d10:	00510001 	subseq	r0, r1, r1
    1d14:	00000000 	andeq	r0, r0, r0
    1d18:	68000000 	stmdavs	r0, {}	; <UNPREDICTABLE>
    1d1c:	70000004 	andvc	r0, r0, r4
    1d20:	01000004 	tsteq	r0, r4
    1d24:	04705000 	ldrbteq	r5, [r0], #-0
    1d28:	04770000 	ldrbteq	r0, [r7], #-0
    1d2c:	00010000 	andeq	r0, r1, r0
    1d30:	00000051 	andeq	r0, r0, r1, asr r0
    1d34:	00000000 	andeq	r0, r0, r0
    1d38:	00048800 	andeq	r8, r4, r0, lsl #16
    1d3c:	00049400 	andeq	r9, r4, r0, lsl #8
    1d40:	50000100 	andpl	r0, r0, r0, lsl #2
    1d44:	00000494 	muleq	r0, r4, r4
    1d48:	0000049b 	muleq	r0, fp, r4
    1d4c:	00510001 	subseq	r0, r1, r1
    1d50:	00000000 	andeq	r0, r0, r0
    1d54:	c4000000 	strgt	r0, [r0], #-0
    1d58:	d7000004 	strle	r0, [r0, -r4]
    1d5c:	01000004 	tsteq	r0, r4
    1d60:	04d75000 	ldrbeq	r5, [r7], #0
    1d64:	05180000 	ldreq	r0, [r8, #-0]
    1d68:	00010000 	andeq	r0, r1, r0
    1d6c:	00051854 	andeq	r1, r5, r4, asr r8
    1d70:	00053c00 	andeq	r3, r5, r0, lsl #24
    1d74:	f3000400 	vshl.u8	d0, d0, d0
    1d78:	3c9f5001 	ldccc	0, cr5, [pc], {1}
    1d7c:	40000005 	andmi	r0, r0, r5
    1d80:	01000005 	tsteq	r0, r5
    1d84:	05405000 	strbeq	r5, [r0, #-0]
    1d88:	05480000 	strbeq	r0, [r8, #-0]
    1d8c:	00010000 	andeq	r0, r1, r0
    1d90:	00000054 	andeq	r0, r0, r4, asr r0
    1d94:	00000000 	andeq	r0, r0, r0
    1d98:	0004ec00 	andeq	lr, r4, r0, lsl #24
    1d9c:	0004fb00 	andeq	pc, r4, r0, lsl #22
    1da0:	31000800 	tstcc	r0, r0, lsl #16
    1da4:	70240074 	eorvc	r0, r4, r4, ror r0
    1da8:	009f1a00 	addseq	r1, pc, r0, lsl #20
    1dac:	00000000 	andeq	r0, r0, r0
    1db0:	18000000 	stmdane	r0, {}	; <UNPREDICTABLE>
    1db4:	30000005 	andcc	r0, r0, r5
    1db8:	01000005 	tsteq	r0, r5
    1dbc:	00005400 	andeq	r5, r0, r0, lsl #8
    1dc0:	00000000 	andeq	r0, r0, r0
    1dc4:	05480000 	strbeq	r0, [r8, #-0]
    1dc8:	055b0000 	ldrbeq	r0, [fp, #-0]
    1dcc:	00010000 	andeq	r0, r1, r0
    1dd0:	00055b50 	andeq	r5, r5, r0, asr fp
    1dd4:	00058000 	andeq	r8, r5, r0
    1dd8:	54000100 	strpl	r0, [r0], #-256	; 0x100
    1ddc:	00000580 	andeq	r0, r0, r0, lsl #11
    1de0:	000005a0 	andeq	r0, r0, r0, lsr #11
    1de4:	01f30004 	mvnseq	r0, r4
    1de8:	00009f50 	andeq	r9, r0, r0, asr pc
	...
    1df4:	00180000 	andseq	r0, r8, r0
    1df8:	00010000 	andeq	r0, r1, r0
    1dfc:	00001850 	andeq	r1, r0, r0, asr r8
    1e00:	00015400 	andeq	r5, r1, r0, lsl #8
    1e04:	f3000400 	vshl.u8	d0, d0, d0
    1e08:	009f5001 	addseq	r5, pc, r1
	...
    1e14:	1c000000 	stcne	0, cr0, [r0], {-0}
    1e18:	01000000 	mrseq	r0, (UNDEF: 0)
    1e1c:	001c5100 	andseq	r5, ip, r0, lsl #2
    1e20:	01540000 	cmpeq	r4, r0
    1e24:	00040000 	andeq	r0, r4, r0
    1e28:	9f5101f3 	svcls	0x005101f3
	...
    1e34:	00000010 	andeq	r0, r0, r0, lsl r0
    1e38:	00000134 	andeq	r0, r0, r4, lsr r1
    1e3c:	00550001 	subseq	r0, r5, r1
    1e40:	00000000 	andeq	r0, r0, r0
    1e44:	10000000 	andne	r0, r0, r0
    1e48:	34000000 	strcc	r0, [r0], #-0
    1e4c:	01000000 	mrseq	r0, (UNDEF: 0)
    1e50:	00345500 	eorseq	r5, r4, r0, lsl #10
    1e54:	01340000 	teqeq	r4, r0
    1e58:	00010000 	andeq	r0, r1, r0
    1e5c:	00013458 	andeq	r3, r1, r8, asr r4
    1e60:	00015400 	andeq	r5, r1, r0, lsl #8
    1e64:	55000100 	strpl	r0, [r0, #-256]	; 0x100
	...
    1e70:	00000014 	andeq	r0, r0, r4, lsl r0
    1e74:	00000134 	andeq	r0, r0, r4, lsr r1
    1e78:	00550001 	subseq	r0, r5, r1
    1e7c:	00000000 	andeq	r0, r0, r0
    1e80:	20000000 	andcs	r0, r0, r0
    1e84:	34000000 	strcc	r0, [r0], #-0
    1e88:	01000001 	tsteq	r0, r1
    1e8c:	00005500 	andeq	r5, r0, r0, lsl #10
    1e90:	00000000 	andeq	r0, r0, r0
    1e94:	00240000 	eoreq	r0, r4, r0
    1e98:	00280000 	eoreq	r0, r8, r0
    1e9c:	00010000 	andeq	r0, r1, r0
    1ea0:	00000053 	andeq	r0, r0, r3, asr r0
    1ea4:	00000000 	andeq	r0, r0, r0
    1ea8:	00003400 	andeq	r3, r0, r0, lsl #8
    1eac:	00005400 	andeq	r5, r0, r0, lsl #8
    1eb0:	58000100 	stmdapl	r0, {r8}
    1eb4:	00000054 	andeq	r0, r0, r4, asr r0
    1eb8:	00000134 	andeq	r0, r0, r4, lsr r1
    1ebc:	00750005 	rsbseq	r0, r5, r5
    1ec0:	009f2431 	addseq	r2, pc, r1, lsr r4	; <UNPREDICTABLE>
    1ec4:	00000000 	andeq	r0, r0, r0
    1ec8:	34000000 	strcc	r0, [r0], #-0
    1ecc:	3c000000 	stccc	0, cr0, [r0], {-0}
    1ed0:	05000000 	streq	r0, [r0, #-0]
    1ed4:	31007700 	tstcc	r0, r0, lsl #14
    1ed8:	003c9f1a 	eorseq	r9, ip, sl, lsl pc
    1edc:	003f0000 	eorseq	r0, pc, r0
    1ee0:	00010000 	andeq	r0, r1, r0
    1ee4:	00003f51 	andeq	r3, r0, r1, asr pc
    1ee8:	00015400 	andeq	r5, r1, r0, lsl #8
    1eec:	77000500 	strvc	r0, [r0, -r0, lsl #10]
    1ef0:	9f1a3100 	svcls	0x001a3100
	...
    1efc:	00000040 	andeq	r0, r0, r0, asr #32
    1f00:	00000054 	andeq	r0, r0, r4, asr r0
    1f04:	54580001 	ldrbpl	r0, [r8], #-1
    1f08:	34000000 	strcc	r0, [r0], #-0
    1f0c:	05000001 	streq	r0, [r0, #-1]
    1f10:	31007500 	tstcc	r0, r0, lsl #10
    1f14:	00009f24 	andeq	r9, r0, r4, lsr #30
    1f18:	00000000 	andeq	r0, r0, r0
    1f1c:	00440000 	subeq	r0, r4, r0
    1f20:	00480000 	subeq	r0, r8, r0
    1f24:	00010000 	andeq	r0, r1, r0
    1f28:	00000053 	andeq	r0, r0, r3, asr r0
    1f2c:	00000000 	andeq	r0, r0, r0
    1f30:	00005400 	andeq	r5, r0, r0, lsl #8
    1f34:	00007400 	andeq	r7, r0, r0, lsl #8
    1f38:	58000100 	stmdapl	r0, {r8}
    1f3c:	00000074 	andeq	r0, r0, r4, ror r0
    1f40:	00000134 	andeq	r0, r0, r4, lsr r1
    1f44:	00750008 	rsbseq	r0, r5, r8
    1f48:	00752431 	rsbseq	r2, r5, r1, lsr r4
    1f4c:	00009f22 	andeq	r9, r0, r2, lsr #30
    1f50:	00000000 	andeq	r0, r0, r0
    1f54:	00600000 	rsbeq	r0, r0, r0
    1f58:	00740000 	rsbseq	r0, r4, r0
    1f5c:	00010000 	andeq	r0, r1, r0
    1f60:	00007458 	andeq	r7, r0, r8, asr r4
    1f64:	00013400 	andeq	r3, r1, r0, lsl #8
    1f68:	75000800 	strvc	r0, [r0, #-2048]	; 0x800
    1f6c:	75243100 	strvc	r3, [r4, #-256]!	; 0x100
    1f70:	009f2200 	addseq	r2, pc, r0, lsl #4
    1f74:	00000000 	andeq	r0, r0, r0
    1f78:	64000000 	strvs	r0, [r0], #-0
    1f7c:	68000000 	stmdavs	r0, {}	; <UNPREDICTABLE>
    1f80:	01000000 	mrseq	r0, (UNDEF: 0)
    1f84:	00005300 	andeq	r5, r0, r0, lsl #6
    1f88:	00000000 	andeq	r0, r0, r0
    1f8c:	00740000 	rsbseq	r0, r4, r0
    1f90:	00940000 	addseq	r0, r4, r0
    1f94:	00010000 	andeq	r0, r1, r0
    1f98:	00009458 	andeq	r9, r0, r8, asr r4
    1f9c:	00013400 	andeq	r3, r1, r0, lsl #8
    1fa0:	75000500 	strvc	r0, [r0, #-1280]	; 0x500
    1fa4:	9f243200 	svcls	0x00243200
	...
    1fb0:	00000080 	andeq	r0, r0, r0, lsl #1
    1fb4:	00000094 	muleq	r0, r4, r0
    1fb8:	94580001 	ldrbls	r0, [r8], #-1
    1fbc:	34000000 	strcc	r0, [r0], #-0
    1fc0:	05000001 	streq	r0, [r0, #-1]
    1fc4:	32007500 	andcc	r7, r0, #0, 10
    1fc8:	00009f24 	andeq	r9, r0, r4, lsr #30
    1fcc:	00000000 	andeq	r0, r0, r0
    1fd0:	00840000 	addeq	r0, r4, r0
    1fd4:	00880000 	addeq	r0, r8, r0
    1fd8:	00010000 	andeq	r0, r1, r0
    1fdc:	00000053 	andeq	r0, r0, r3, asr r0
    1fe0:	00000000 	andeq	r0, r0, r0
    1fe4:	00009400 	andeq	r9, r0, r0, lsl #8
    1fe8:	0000b400 	andeq	fp, r0, r0, lsl #8
    1fec:	58000100 	stmdapl	r0, {r8}
    1ff0:	000000b4 	strheq	r0, [r0], -r4
    1ff4:	00000134 	andeq	r0, r0, r4, lsr r1
    1ff8:	00750008 	rsbseq	r0, r5, r8
    1ffc:	00752432 	rsbseq	r2, r5, r2, lsr r4
    2000:	00009f22 	andeq	r9, r0, r2, lsr #30
    2004:	00000000 	andeq	r0, r0, r0
    2008:	00a00000 	adceq	r0, r0, r0
    200c:	00b40000 	adcseq	r0, r4, r0
    2010:	00010000 	andeq	r0, r1, r0
    2014:	0000b458 	andeq	fp, r0, r8, asr r4
    2018:	00013400 	andeq	r3, r1, r0, lsl #8
    201c:	75000800 	strvc	r0, [r0, #-2048]	; 0x800
    2020:	75243200 	strvc	r3, [r4, #-512]!	; 0x200
    2024:	009f2200 	addseq	r2, pc, r0, lsl #4
    2028:	00000000 	andeq	r0, r0, r0
    202c:	a4000000 	strge	r0, [r0], #-0
    2030:	a8000000 	stmdage	r0, {}	; <UNPREDICTABLE>
    2034:	01000000 	mrseq	r0, (UNDEF: 0)
    2038:	00005300 	andeq	r5, r0, r0, lsl #6
    203c:	00000000 	andeq	r0, r0, r0
    2040:	00b40000 	adcseq	r0, r4, r0
    2044:	00d40000 	sbcseq	r0, r4, r0
    2048:	00010000 	andeq	r0, r1, r0
    204c:	0000d458 	andeq	sp, r0, r8, asr r4
    2050:	00013400 	andeq	r3, r1, r0, lsl #8
    2054:	75000a00 	strvc	r0, [r0, #-2560]	; 0xa00
    2058:	75243200 	strvc	r3, [r4, #-512]!	; 0x200
    205c:	22243100 	eorcs	r3, r4, #0, 2
    2060:	0000009f 	muleq	r0, pc, r0	; <UNPREDICTABLE>
    2064:	00000000 	andeq	r0, r0, r0
    2068:	0000c000 	andeq	ip, r0, r0
    206c:	0000d400 	andeq	sp, r0, r0, lsl #8
    2070:	58000100 	stmdapl	r0, {r8}
    2074:	000000d4 	ldrdeq	r0, [r0], -r4
    2078:	00000134 	andeq	r0, r0, r4, lsr r1
    207c:	0075000a 	rsbseq	r0, r5, sl
    2080:	00752432 	rsbseq	r2, r5, r2, lsr r4
    2084:	9f222431 	svcls	0x00222431
	...
    2090:	000000c4 	andeq	r0, r0, r4, asr #1
    2094:	000000c8 	andeq	r0, r0, r8, asr #1
    2098:	00530001 	subseq	r0, r3, r1
    209c:	00000000 	andeq	r0, r0, r0
    20a0:	d4000000 	strle	r0, [r0], #-0
    20a4:	f4000000 	vst4.8	{d0-d3}, [r0], r0
    20a8:	01000000 	mrseq	r0, (UNDEF: 0)
    20ac:	00f45800 	rscseq	r5, r4, r0, lsl #16
    20b0:	01340000 	teqeq	r4, r0
    20b4:	000d0000 	andeq	r0, sp, r0
    20b8:	24320075 	ldrtcs	r0, [r2], #-117	; 0x75
    20bc:	24310075 	ldrtcs	r0, [r1], #-117	; 0x75
    20c0:	22007522 	andcs	r7, r0, #142606336	; 0x8800000
    20c4:	0000009f 	muleq	r0, pc, r0	; <UNPREDICTABLE>
    20c8:	00000000 	andeq	r0, r0, r0
    20cc:	0000e000 	andeq	lr, r0, r0
    20d0:	0000f400 	andeq	pc, r0, r0, lsl #8
    20d4:	58000100 	stmdapl	r0, {r8}
    20d8:	000000f4 	strdeq	r0, [r0], -r4
    20dc:	00000134 	andeq	r0, r0, r4, lsr r1
    20e0:	0075000d 	rsbseq	r0, r5, sp
    20e4:	00752432 	rsbseq	r2, r5, r2, lsr r4
    20e8:	75222431 	strvc	r2, [r2, #-1073]!	; 0x431
    20ec:	009f2200 	addseq	r2, pc, r0, lsl #4
    20f0:	00000000 	andeq	r0, r0, r0
    20f4:	e4000000 	str	r0, [r0], #-0
    20f8:	e8000000 	stmda	r0, {}	; <UNPREDICTABLE>
    20fc:	01000000 	mrseq	r0, (UNDEF: 0)
    2100:	00005300 	andeq	r5, r0, r0, lsl #6
    2104:	00000000 	andeq	r0, r0, r0
    2108:	00f40000 	rscseq	r0, r4, r0
    210c:	01140000 	tsteq	r4, r0
    2110:	00010000 	andeq	r0, r1, r0
    2114:	00011458 	andeq	r1, r1, r8, asr r4
    2118:	00013400 	andeq	r3, r1, r0, lsl #8
    211c:	75000500 	strvc	r0, [r0, #-1280]	; 0x500
    2120:	9f243300 	svcls	0x00243300
	...
    212c:	00000100 	andeq	r0, r0, r0, lsl #2
    2130:	00000114 	andeq	r0, r0, r4, lsl r1
    2134:	14580001 	ldrbne	r0, [r8], #-1
    2138:	34000001 	strcc	r0, [r0], #-1
    213c:	05000001 	streq	r0, [r0, #-1]
    2140:	33007500 	movwcc	r7, #1280	; 0x500
    2144:	00009f24 	andeq	r9, r0, r4, lsr #30
    2148:	00000000 	andeq	r0, r0, r0
    214c:	01040000 	mrseq	r0, (UNDEF: 4)
    2150:	01080000 	mrseq	r0, (UNDEF: 8)
    2154:	00010000 	andeq	r0, r1, r0
    2158:	00000053 	andeq	r0, r0, r3, asr r0
    215c:	00000000 	andeq	r0, r0, r0
    2160:	00011400 	andeq	r1, r1, r0, lsl #8
    2164:	00011c00 	andeq	r1, r1, r0, lsl #24
    2168:	77000600 	strvc	r0, [r0, -r0, lsl #12]
    216c:	1a800800 	bne	fe004174 <__bss_end__+0xfdff9de4>
    2170:	00011c9f 	muleq	r1, pc, ip	; <UNPREDICTABLE>
    2174:	00011f00 	andeq	r1, r1, r0, lsl #30
    2178:	51000100 	mrspl	r0, (UNDEF: 16)
    217c:	0000011f 	andeq	r0, r0, pc, lsl r1
    2180:	00000154 	andeq	r0, r0, r4, asr r1
    2184:	00770006 	rsbseq	r0, r7, r6
    2188:	9f1a8008 	svcls	0x001a8008
	...
    2194:	00000124 	andeq	r0, r0, r4, lsr #2
    2198:	00000128 	andeq	r0, r0, r8, lsr #2
    219c:	00530001 	subseq	r0, r3, r1
    21a0:	00000000 	andeq	r0, r0, r0
    21a4:	44000000 	strmi	r0, [r0], #-0
    21a8:	48000001 	stmdami	r0, {r0}
    21ac:	01000001 	tsteq	r0, r1
    21b0:	00005300 	andeq	r5, r0, r0, lsl #6
    21b4:	00000000 	andeq	r0, r0, r0
    21b8:	01540000 	cmpeq	r4, r0
    21bc:	016b0000 	cmneq	fp, r0
    21c0:	00010000 	andeq	r0, r1, r0
    21c4:	00016b50 	andeq	r6, r1, r0, asr fp
    21c8:	0001d000 	andeq	sp, r1, r0
    21cc:	59000100 	stmdbpl	r0, {r8}
    21d0:	000001d0 	ldrdeq	r0, [r0], -r0	; <UNPREDICTABLE>
    21d4:	0000030c 	andeq	r0, r0, ip, lsl #6
    21d8:	01f30004 	mvnseq	r0, r4
    21dc:	030c9f50 	movweq	r9, #53072	; 0xcf50
    21e0:	03140000 	tsteq	r4, #0
    21e4:	00010000 	andeq	r0, r1, r0
    21e8:	00031459 	andeq	r1, r3, r9, asr r4
    21ec:	00031c00 	andeq	r1, r3, r0, lsl #24
    21f0:	f3000400 	vshl.u8	d0, d0, d0
    21f4:	009f5001 	addseq	r5, pc, r1
    21f8:	00000000 	andeq	r0, r0, r0
    21fc:	54000000 	strpl	r0, [r0], #-0
    2200:	6b000001 	blvs	220c <_start-0x5df4>
    2204:	01000001 	tsteq	r0, r1
    2208:	016b5100 	cmneq	fp, r0, lsl #2
    220c:	031c0000 	tsteq	ip, #0
    2210:	00010000 	andeq	r0, r1, r0
    2214:	00000056 	andeq	r0, r0, r6, asr r0
    2218:	00000000 	andeq	r0, r0, r0
    221c:	0001a800 	andeq	sl, r1, r0, lsl #16
    2220:	00029800 	andeq	r9, r2, r0, lsl #16
    2224:	58000100 	stmdapl	r0, {r8}
	...
    2230:	000001ac 	andeq	r0, r0, ip, lsr #3
    2234:	000002d0 	ldrdeq	r0, [r0], -r0	; <UNPREDICTABLE>
    2238:	00540001 	subseq	r0, r4, r1
    223c:	00000000 	andeq	r0, r0, r0
    2240:	ac000000 	stcge	0, cr0, [r0], {-0}
    2244:	d0000001 	andle	r0, r0, r1
    2248:	05000002 	streq	r0, [r0, #-2]
    224c:	31007400 	tstcc	r0, r0, lsl #8
    2250:	00009f25 	andeq	r9, r0, r5, lsr #30
    2254:	00000000 	andeq	r0, r0, r0
    2258:	01ac0000 			; <UNDEFINED> instruction: 0x01ac0000
    225c:	01d00000 	bicseq	r0, r0, r0
    2260:	00020000 	andeq	r0, r2, r0
    2264:	01d09f30 	bicseq	r9, r0, r0, lsr pc
    2268:	030c0000 	movweq	r0, #49152	; 0xc000
    226c:	00010000 	andeq	r0, r1, r0
    2270:	00031459 	andeq	r1, r3, r9, asr r4
    2274:	00031c00 	andeq	r1, r3, r0, lsl #24
    2278:	59000100 	stmdbpl	r0, {r8}
	...
    2284:	00000168 	andeq	r0, r0, r8, ror #2
    2288:	0000016b 	andeq	r0, r0, fp, ror #2
    228c:	6b510001 	blvs	1442298 <__bss_end__+0x1437f08>
    2290:	1c000001 	stcne	0, cr0, [r0], {1}
    2294:	01000003 	tsteq	r0, r3
    2298:	00005600 	andeq	r5, r0, r0, lsl #12
    229c:	00000000 	andeq	r0, r0, r0
    22a0:	01700000 	cmneq	r0, r0
    22a4:	01ac0000 			; <UNDEFINED> instruction: 0x01ac0000
    22a8:	00010000 	andeq	r0, r1, r0
    22ac:	00030c54 	andeq	r0, r3, r4, asr ip
    22b0:	00031400 	andeq	r1, r3, r0, lsl #8
    22b4:	54000100 	strpl	r0, [r0], #-256	; 0x100
	...
    22c0:	000001a8 	andeq	r0, r0, r8, lsr #3
    22c4:	000001c4 	andeq	r0, r0, r4, asr #3
    22c8:	00580001 	subseq	r0, r8, r1
    22cc:	00000000 	andeq	r0, r0, r0
    22d0:	b0000000 	andlt	r0, r0, r0
    22d4:	cb000001 	blgt	22e0 <_start-0x5d20>
    22d8:	01000001 	tsteq	r0, r1
    22dc:	01cb5200 	biceq	r5, fp, r0, lsl #4
    22e0:	02d00000 	sbcseq	r0, r0, #0
    22e4:	00080000 	andeq	r0, r8, r0
    22e8:	25310074 	ldrcs	r0, [r1, #-116]!	; 0x74
    22ec:	9f220074 	svcls	0x00220074
	...
    22f8:	000001b0 			; <UNDEFINED> instruction: 0x000001b0
    22fc:	000001c4 	andeq	r0, r0, r4, asr #3
    2300:	00580001 	subseq	r0, r8, r1
    2304:	00000000 	andeq	r0, r0, r0
    2308:	b4000000 	strlt	r0, [r0], #-0
    230c:	b8000001 	stmdalt	r0, {r0}
    2310:	01000001 	tsteq	r0, r1
    2314:	00005300 	andeq	r5, r0, r0, lsl #6
    2318:	00000000 	andeq	r0, r0, r0
    231c:	01d00000 	bicseq	r0, r0, r0
    2320:	02d00000 	sbcseq	r0, r0, #0
    2324:	00010000 	andeq	r0, r1, r0
    2328:	00000054 	andeq	r0, r0, r4, asr r0
    232c:	00000000 	andeq	r0, r0, r0
    2330:	0001d000 	andeq	sp, r1, r0
    2334:	0001e400 	andeq	lr, r1, r0, lsl #8
    2338:	58000100 	stmdapl	r0, {r8}
	...
    2344:	000001d4 	ldrdeq	r0, [r0], -r4
    2348:	000001d8 	ldrdeq	r0, [r0], -r8
    234c:	00530001 	subseq	r0, r3, r1
    2350:	00000000 	andeq	r0, r0, r0
    2354:	f4000000 	vst4.8	{d0-d3}, [r0], r0
    2358:	d0000001 	andle	r0, r0, r1
    235c:	01000002 	tsteq	r0, r2
    2360:	00005400 	andeq	r5, r0, r0, lsl #8
    2364:	00000000 	andeq	r0, r0, r0
    2368:	01f40000 	mvnseq	r0, r0
    236c:	02080000 	andeq	r0, r8, #0
    2370:	00010000 	andeq	r0, r1, r0
    2374:	00000058 	andeq	r0, r0, r8, asr r0
    2378:	00000000 	andeq	r0, r0, r0
    237c:	0001f800 	andeq	pc, r1, r0, lsl #16
    2380:	0001fc00 	andeq	pc, r1, r0, lsl #24
    2384:	53000100 	movwpl	r0, #256	; 0x100
	...
    2390:	00000218 	andeq	r0, r0, r8, lsl r2
    2394:	000002d0 	ldrdeq	r0, [r0], -r0	; <UNPREDICTABLE>
    2398:	00540001 	subseq	r0, r4, r1
    239c:	00000000 	andeq	r0, r0, r0
    23a0:	18000000 	stmdane	r0, {}	; <UNPREDICTABLE>
    23a4:	2c000002 	stccs	0, cr0, [r0], {2}
    23a8:	01000002 	tsteq	r0, r2
    23ac:	00005800 	andeq	r5, r0, r0, lsl #16
    23b0:	00000000 	andeq	r0, r0, r0
    23b4:	021c0000 	andseq	r0, ip, #0
    23b8:	02200000 	eoreq	r0, r0, #0
    23bc:	00010000 	andeq	r0, r1, r0
    23c0:	00000053 	andeq	r0, r0, r3, asr r0
    23c4:	00000000 	andeq	r0, r0, r0
    23c8:	00023c00 	andeq	r3, r2, r0, lsl #24
    23cc:	0002d000 	andeq	sp, r2, r0
    23d0:	54000100 	strpl	r0, [r0], #-256	; 0x100
	...
    23dc:	0000023c 	andeq	r0, r0, ip, lsr r2
    23e0:	00000250 	andeq	r0, r0, r0, asr r2
    23e4:	00580001 	subseq	r0, r8, r1
    23e8:	00000000 	andeq	r0, r0, r0
    23ec:	40000000 	andmi	r0, r0, r0
    23f0:	44000002 	strmi	r0, [r0], #-2
    23f4:	01000002 	tsteq	r0, r2
    23f8:	00005300 	andeq	r5, r0, r0, lsl #6
    23fc:	00000000 	andeq	r0, r0, r0
    2400:	02600000 	rsbeq	r0, r0, #0
    2404:	02d00000 	sbcseq	r0, r0, #0
    2408:	00010000 	andeq	r0, r1, r0
    240c:	00000054 	andeq	r0, r0, r4, asr r0
    2410:	00000000 	andeq	r0, r0, r0
    2414:	00026000 	andeq	r6, r2, r0
    2418:	00027400 	andeq	r7, r2, r0, lsl #8
    241c:	58000100 	stmdapl	r0, {r8}
	...
    2428:	00000264 	andeq	r0, r0, r4, ror #4
    242c:	00000268 	andeq	r0, r0, r8, ror #4
    2430:	00530001 	subseq	r0, r3, r1
    2434:	00000000 	andeq	r0, r0, r0
    2438:	84000000 	strhi	r0, [r0], #-0
    243c:	d0000002 	andle	r0, r0, r2
    2440:	01000002 	tsteq	r0, r2
    2444:	00005400 	andeq	r5, r0, r0, lsl #8
    2448:	00000000 	andeq	r0, r0, r0
    244c:	02840000 	addeq	r0, r4, #0
    2450:	02980000 	addseq	r0, r8, #0
    2454:	00010000 	andeq	r0, r1, r0
    2458:	00000058 	andeq	r0, r0, r8, asr r0
    245c:	00000000 	andeq	r0, r0, r0
    2460:	00028800 	andeq	r8, r2, r0, lsl #16
    2464:	00028c00 	andeq	r8, r2, r0, lsl #24
    2468:	53000100 	movwpl	r0, #256	; 0x100
	...
    2474:	000002a8 	andeq	r0, r0, r8, lsr #5
    2478:	000002d0 	ldrdeq	r0, [r0], -r0	; <UNPREDICTABLE>
    247c:	00540001 	subseq	r0, r4, r1
    2480:	00000000 	andeq	r0, r0, r0
    2484:	ac000000 	stcge	0, cr0, [r0], {-0}
    2488:	b0000002 	andlt	r0, r0, r2
    248c:	01000002 	tsteq	r0, r2
    2490:	00005300 	andeq	r5, r0, r0, lsl #6
    2494:	00000000 	andeq	r0, r0, r0
    2498:	02c80000 	sbceq	r0, r8, #0
    249c:	030c0000 	movweq	r0, #49152	; 0xc000
    24a0:	00020000 	andeq	r0, r2, r0
    24a4:	03149f30 	tsteq	r4, #48, 30	; 0xc0
    24a8:	031c0000 	tsteq	ip, #0
    24ac:	00020000 	andeq	r0, r2, r0
    24b0:	00009f30 	andeq	r9, r0, r0, lsr pc
    24b4:	00000000 	andeq	r0, r0, r0
    24b8:	02c80000 	sbceq	r0, r8, #0
    24bc:	030c0000 	movweq	r0, #49152	; 0xc000
    24c0:	00010000 	andeq	r0, r1, r0
    24c4:	00031455 	andeq	r1, r3, r5, asr r4
    24c8:	00031c00 	andeq	r1, r3, r0, lsl #24
    24cc:	55000100 	strpl	r0, [r0, #-256]	; 0x100
	...
    24d8:	000002d0 	ldrdeq	r0, [r0], -r0	; <UNPREDICTABLE>
    24dc:	0000030c 	andeq	r0, r0, ip, lsl #6
    24e0:	14540001 	ldrbne	r0, [r4], #-1
    24e4:	1c000003 	stcne	0, cr0, [r0], {3}
    24e8:	01000003 	tsteq	r0, r3
    24ec:	00005400 	andeq	r5, r0, r0, lsl #8
    24f0:	00000000 	andeq	r0, r0, r0
    24f4:	031c0000 	tsteq	ip, #0
    24f8:	033f0000 	teqeq	pc, #0
    24fc:	00010000 	andeq	r0, r1, r0
    2500:	00033f50 	andeq	r3, r3, r0, asr pc
    2504:	00036000 	andeq	r6, r3, r0
    2508:	58000100 	stmdapl	r0, {r8}
    250c:	00000360 	andeq	r0, r0, r0, ror #6
    2510:	00000370 	andeq	r0, r0, r0, ror r3
    2514:	70500001 	subsvc	r0, r0, r1
    2518:	b0000003 	andlt	r0, r0, r3
    251c:	01000003 	tsteq	r0, r3
    2520:	03b05800 	movseq	r5, #0, 16
    2524:	03c00000 	biceq	r0, r0, #0
    2528:	00040000 	andeq	r0, r4, r0
    252c:	9f5001f3 	svcls	0x005001f3
	...
    2538:	0000031c 	andeq	r0, r0, ip, lsl r3
    253c:	0000033f 	andeq	r0, r0, pc, lsr r3
    2540:	3f510001 	svccc	0x00510001
    2544:	60000003 	andvs	r0, r0, r3
    2548:	01000003 	tsteq	r0, r3
    254c:	03605600 	cmneq	r0, #0, 12
    2550:	03700000 	cmneq	r0, #0
    2554:	00010000 	andeq	r0, r1, r0
    2558:	00037051 	andeq	r7, r3, r1, asr r0
    255c:	0003b000 	andeq	fp, r3, r0
    2560:	56000100 	strpl	r0, [r0], -r0, lsl #2
    2564:	000003b0 			; <UNDEFINED> instruction: 0x000003b0
    2568:	000003c0 	andeq	r0, r0, r0, asr #7
    256c:	01f30004 	mvnseq	r0, r4
    2570:	00009f51 	andeq	r9, r0, r1, asr pc
    2574:	00000000 	andeq	r0, r0, r0
    2578:	031c0000 	tsteq	ip, #0
    257c:	033f0000 	teqeq	pc, #0
    2580:	00010000 	andeq	r0, r1, r0
    2584:	00033f52 	andeq	r3, r3, r2, asr pc
    2588:	00036000 	andeq	r6, r3, r0
    258c:	f3000400 	vshl.u8	d0, d0, d0
    2590:	609f5201 	addsvs	r5, pc, r1, lsl #4
    2594:	70000003 	andvc	r0, r0, r3
    2598:	01000003 	tsteq	r0, r3
    259c:	03705200 	cmneq	r0, #0, 4
    25a0:	03b00000 	movseq	r0, #0
    25a4:	00030000 	andeq	r0, r3, r0
    25a8:	b09f0177 	addslt	r0, pc, r7, ror r1	; <UNPREDICTABLE>
    25ac:	c0000003 	andgt	r0, r0, r3
    25b0:	04000003 	streq	r0, [r0], #-3
    25b4:	5201f300 	andpl	pc, r1, #0, 6
    25b8:	0000009f 	muleq	r0, pc, r0	; <UNPREDICTABLE>
    25bc:	00000000 	andeq	r0, r0, r0
    25c0:	00031c00 	andeq	r1, r3, r0, lsl #24
    25c4:	00033f00 	andeq	r3, r3, r0, lsl #30
    25c8:	53000100 	movwpl	r0, #256	; 0x100
    25cc:	0000033f 	andeq	r0, r0, pc, lsr r3
    25d0:	00000360 	andeq	r0, r0, r0, ror #6
    25d4:	01f30004 	mvnseq	r0, r4
    25d8:	03609f53 	cmneq	r0, #332	; 0x14c
    25dc:	03700000 	cmneq	r0, #0
    25e0:	00010000 	andeq	r0, r1, r0
    25e4:	00037053 	andeq	r7, r3, r3, asr r0
    25e8:	0003c000 	andeq	ip, r3, r0
    25ec:	f3000400 	vshl.u8	d0, d0, d0
    25f0:	009f5301 	addseq	r5, pc, r1, lsl #6
    25f4:	00000000 	andeq	r0, r0, r0
    25f8:	68000000 	stmdavs	r0, {}	; <UNPREDICTABLE>
    25fc:	70000003 	andvc	r0, r0, r3
    2600:	02000003 	andeq	r0, r0, #3
    2604:	709f3000 	addsvc	r3, pc, r0
    2608:	b0000003 	andlt	r0, r0, r3
    260c:	01000003 	tsteq	r0, r3
    2610:	03b05400 	movseq	r5, #0, 8
    2614:	03c00000 	biceq	r0, r0, #0
    2618:	00010000 	andeq	r0, r1, r0
    261c:	00000050 	andeq	r0, r0, r0, asr r0
    2620:	00000000 	andeq	r0, r0, r0
    2624:	00038000 	andeq	r8, r3, r0
    2628:	00039000 	andeq	r9, r3, r0
    262c:	50000100 	andpl	r0, r0, r0, lsl #2
	...
    2638:	000003c0 	andeq	r0, r0, r0, asr #7
    263c:	000003df 	ldrdeq	r0, [r0], -pc	; <UNPREDICTABLE>
    2640:	df500001 	svcle	0x00500001
    2644:	00000003 	andeq	r0, r0, r3
    2648:	01000004 	tsteq	r0, r4
    264c:	04005700 	streq	r5, [r0], #-1792	; 0x700
    2650:	04100000 	ldreq	r0, [r0], #-0
    2654:	00010000 	andeq	r0, r1, r0
    2658:	00041050 	andeq	r1, r4, r0, asr r0
    265c:	00044000 	andeq	r4, r4, r0
    2660:	57000100 	strpl	r0, [r0, -r0, lsl #2]
    2664:	00000440 	andeq	r0, r0, r0, asr #8
    2668:	00000450 	andeq	r0, r0, r0, asr r4
    266c:	01f30004 	mvnseq	r0, r4
    2670:	00009f50 	andeq	r9, r0, r0, asr pc
    2674:	00000000 	andeq	r0, r0, r0
    2678:	03c00000 	biceq	r0, r0, #0
    267c:	03df0000 	bicseq	r0, pc, #0
    2680:	00010000 	andeq	r0, r1, r0
    2684:	0003df51 	andeq	sp, r3, r1, asr pc
    2688:	00040000 	andeq	r0, r4, r0
    268c:	55000100 	strpl	r0, [r0, #-256]	; 0x100
    2690:	00000400 	andeq	r0, r0, r0, lsl #8
    2694:	00000410 	andeq	r0, r0, r0, lsl r4
    2698:	10510001 	subsne	r0, r1, r1
    269c:	40000004 	andmi	r0, r0, r4
    26a0:	01000004 	tsteq	r0, r4
    26a4:	04405500 	strbeq	r5, [r0], #-1280	; 0x500
    26a8:	04500000 	ldrbeq	r0, [r0], #-0
    26ac:	00040000 	andeq	r0, r4, r0
    26b0:	9f5101f3 	svcls	0x005101f3
	...
    26bc:	000003c0 	andeq	r0, r0, r0, asr #7
    26c0:	000003df 	ldrdeq	r0, [r0], -pc	; <UNPREDICTABLE>
    26c4:	df520001 	svcle	0x00520001
    26c8:	00000003 	andeq	r0, r0, r3
    26cc:	04000004 	streq	r0, [r0], #-4
    26d0:	5201f300 	andpl	pc, r1, #0, 6
    26d4:	0004009f 	muleq	r4, pc, r0	; <UNPREDICTABLE>
    26d8:	00041000 	andeq	r1, r4, r0
    26dc:	52000100 	andpl	r0, r0, #0, 2
    26e0:	00000410 	andeq	r0, r0, r0, lsl r4
    26e4:	00000440 	andeq	r0, r0, r0, asr #8
    26e8:	01760003 	cmneq	r6, r3
    26ec:	0004409f 	muleq	r4, pc, r0	; <UNPREDICTABLE>
    26f0:	00045000 	andeq	r5, r4, r0
    26f4:	f3000400 	vshl.u8	d0, d0, d0
    26f8:	009f5201 	addseq	r5, pc, r1, lsl #4
    26fc:	00000000 	andeq	r0, r0, r0
    2700:	c0000000 	andgt	r0, r0, r0
    2704:	df000003 	svcle	0x00000003
    2708:	01000003 	tsteq	r0, r3
    270c:	03df5300 	bicseq	r5, pc, #0, 6
    2710:	04000000 	streq	r0, [r0], #-0
    2714:	00010000 	andeq	r0, r1, r0
    2718:	00040058 	andeq	r0, r4, r8, asr r0
    271c:	00041000 	andeq	r1, r4, r0
    2720:	53000100 	movwpl	r0, #256	; 0x100
    2724:	00000410 	andeq	r0, r0, r0, lsl r4
    2728:	00000440 	andeq	r0, r0, r0, asr #8
    272c:	40580001 	subsmi	r0, r8, r1
    2730:	50000004 	andpl	r0, r0, r4
    2734:	04000004 	streq	r0, [r0], #-4
    2738:	5301f300 	movwpl	pc, #4864	; 0x1300	; <UNPREDICTABLE>
    273c:	0000009f 	muleq	r0, pc, r0	; <UNPREDICTABLE>
    2740:	00000000 	andeq	r0, r0, r0
    2744:	00040800 	andeq	r0, r4, r0, lsl #16
    2748:	00041000 	andeq	r1, r4, r0
    274c:	30000200 	andcc	r0, r0, r0, lsl #4
    2750:	0004109f 	muleq	r4, pc, r0	; <UNPREDICTABLE>
    2754:	00044000 	andeq	r4, r4, r0
    2758:	54000100 	strpl	r0, [r0], #-256	; 0x100
    275c:	00000440 	andeq	r0, r0, r0, asr #8
    2760:	00000450 	andeq	r0, r0, r0, asr r4
    2764:	00500001 	subseq	r0, r0, r1
    2768:	00000000 	andeq	r0, r0, r0
    276c:	50000000 	andpl	r0, r0, r0
    2770:	73000004 	movwvc	r0, #4
    2774:	01000004 	tsteq	r0, r4
    2778:	04735100 	ldrbteq	r5, [r3], #-256	; 0x100
    277c:	05240000 	streq	r0, [r4, #-0]!
    2780:	00040000 	andeq	r0, r4, r0
    2784:	9f5101f3 	svcls	0x005101f3
	...
    2790:	00000450 	andeq	r0, r0, r0, asr r4
    2794:	00000473 	andeq	r0, r0, r3, ror r4
    2798:	73520001 	cmpvc	r2, #1
    279c:	24000004 	strcs	r0, [r0], #-4
    27a0:	04000005 	streq	r0, [r0], #-5
    27a4:	5201f300 	andpl	pc, r1, #0, 6
    27a8:	0000009f 	muleq	r0, pc, r0	; <UNPREDICTABLE>
    27ac:	00000000 	andeq	r0, r0, r0
    27b0:	00045000 	andeq	r5, r4, r0
    27b4:	00047300 	andeq	r7, r4, r0, lsl #6
    27b8:	53000100 	movwpl	r0, #256	; 0x100
    27bc:	00000473 	andeq	r0, r0, r3, ror r4
    27c0:	00000510 	andeq	r0, r0, r0, lsl r5
    27c4:	10550001 	subsne	r0, r5, r1
    27c8:	24000005 	strcs	r0, [r0], #-5
    27cc:	02000005 	andeq	r0, r0, #5
    27d0:	00047000 	andeq	r7, r4, r0
    27d4:	00000000 	andeq	r0, r0, r0
    27d8:	94000000 	strls	r0, [r0], #-0
    27dc:	d3000004 	movwle	r0, #4
    27e0:	01000004 	tsteq	r0, r4
    27e4:	04d35200 	ldrbeq	r5, [r3], #512	; 0x200
    27e8:	04f40000 	ldrbteq	r0, [r4], #0
    27ec:	00060000 	andeq	r0, r6, r0
    27f0:	00770075 	rsbseq	r0, r7, r5, ror r0
    27f4:	04f49f1e 	ldrbteq	r9, [r4], #3870	; 0xf1e
    27f8:	05240000 	streq	r0, [r4, #-0]!
    27fc:	00010000 	andeq	r0, r1, r0
    2800:	00000052 	andeq	r0, r0, r2, asr r0
    2804:	00000000 	andeq	r0, r0, r0
    2808:	00052400 	andeq	r2, r5, r0, lsl #8
    280c:	00052f00 	andeq	r2, r5, r0, lsl #30
    2810:	50000100 	andpl	r0, r0, r0, lsl #2
    2814:	0000052f 	andeq	r0, r0, pc, lsr #10
    2818:	00000560 	andeq	r0, r0, r0, ror #10
    281c:	01f30004 	mvnseq	r0, r4
    2820:	00009f50 	andeq	r9, r0, r0, asr pc
    2824:	00000000 	andeq	r0, r0, r0
    2828:	05300000 	ldreq	r0, [r0, #-0]!
    282c:	053b0000 	ldreq	r0, [fp, #-0]!
    2830:	00010000 	andeq	r0, r1, r0
    2834:	00000050 	andeq	r0, r0, r0, asr r0
    2838:	00000000 	andeq	r0, r0, r0
    283c:	00056000 	andeq	r6, r5, r0
    2840:	00057000 	andeq	r7, r5, r0
    2844:	50000100 	andpl	r0, r0, r0, lsl #2
    2848:	00000570 	andeq	r0, r0, r0, ror r5
    284c:	0000058c 	andeq	r0, r0, ip, lsl #11
    2850:	00550001 	subseq	r0, r5, r1
    2854:	00000000 	andeq	r0, r0, r0
    2858:	60000000 	andvs	r0, r0, r0
    285c:	70000005 	andvc	r0, r0, r5
    2860:	01000005 	tsteq	r0, r5
    2864:	05705100 	ldrbeq	r5, [r0, #-256]!	; 0x100
    2868:	058c0000 	streq	r0, [ip]
    286c:	00010000 	andeq	r0, r1, r0
    2870:	00000054 	andeq	r0, r0, r4, asr r0
    2874:	00000000 	andeq	r0, r0, r0
    2878:	00058c00 	andeq	r8, r5, r0, lsl #24
    287c:	0005a800 	andeq	sl, r5, r0, lsl #16
    2880:	50000100 	andpl	r0, r0, r0, lsl #2
    2884:	000005a8 	andeq	r0, r0, r8, lsr #11
    2888:	00000600 	andeq	r0, r0, r0, lsl #12
    288c:	00550001 	subseq	r0, r5, r1
    2890:	1c000006 	stcne	0, cr0, [r0], {6}
    2894:	04000006 	streq	r0, [r0], #-6
    2898:	5001f300 	andpl	pc, r1, r0, lsl #6
    289c:	0000009f 	muleq	r0, pc, r0	; <UNPREDICTABLE>
    28a0:	00000000 	andeq	r0, r0, r0
    28a4:	0005b800 	andeq	fp, r5, r0, lsl #16
    28a8:	0005c700 	andeq	ip, r5, r0, lsl #14
    28ac:	50000100 	andpl	r0, r0, r0, lsl #2
    28b0:	000005c7 	andeq	r0, r0, r7, asr #11
    28b4:	000005e8 	andeq	r0, r0, r8, ror #11
    28b8:	e8540001 	ldmda	r4, {r0}^
    28bc:	ec000005 	stc	0, cr0, [r0], {5}
    28c0:	01000005 	tsteq	r0, r5
    28c4:	05ec5000 	strbeq	r5, [ip, #0]!
    28c8:	06000000 	streq	r0, [r0], -r0
    28cc:	00010000 	andeq	r0, r1, r0
    28d0:	00060054 	andeq	r0, r6, r4, asr r0
    28d4:	00061c00 	andeq	r1, r6, r0, lsl #24
    28d8:	50000100 	andpl	r0, r0, r0, lsl #2
	...
    28e4:	0000061c 	andeq	r0, r0, ip, lsl r6
    28e8:	0000062f 	andeq	r0, r0, pc, lsr #12
    28ec:	2f500001 	svccs	0x00500001
    28f0:	68000006 	stmdavs	r0, {r1, r2}
    28f4:	04000006 	streq	r0, [r0], #-6
    28f8:	5001f300 	andpl	pc, r1, r0, lsl #6
    28fc:	0000009f 	muleq	r0, pc, r0	; <UNPREDICTABLE>
    2900:	00000000 	andeq	r0, r0, r0
    2904:	00061c00 	andeq	r1, r6, r0, lsl #24
    2908:	00062f00 	andeq	r2, r6, r0, lsl #30
    290c:	51000100 	mrspl	r0, (UNDEF: 16)
    2910:	0000062f 	andeq	r0, r0, pc, lsr #12
    2914:	00000668 	andeq	r0, r0, r8, ror #12
    2918:	01f30004 	mvnseq	r0, r4
    291c:	00009f51 	andeq	r9, r0, r1, asr pc
    2920:	00000000 	andeq	r0, r0, r0
    2924:	061c0000 	ldreq	r0, [ip], -r0
    2928:	062f0000 	strteq	r0, [pc], -r0
    292c:	00010000 	andeq	r0, r1, r0
    2930:	00062f52 	andeq	r2, r6, r2, asr pc
    2934:	00066800 	andeq	r6, r6, r0, lsl #16
    2938:	f3000400 	vshl.u8	d0, d0, d0
    293c:	009f5201 	addseq	r5, pc, r1, lsl #4
    2940:	00000000 	andeq	r0, r0, r0
    2944:	1c000000 	stcne	0, cr0, [r0], {-0}
    2948:	2f000006 	svccs	0x00000006
    294c:	01000006 	tsteq	r0, r6
    2950:	062f5300 	strteq	r5, [pc], -r0, lsl #6
    2954:	06680000 	strbteq	r0, [r8], -r0
    2958:	00040000 	andeq	r0, r4, r0
    295c:	9f5301f3 	svcls	0x005301f3
	...
    2968:	00000630 	andeq	r0, r0, r0, lsr r6
    296c:	0000063b 	andeq	r0, r0, fp, lsr r6
    2970:	54500001 	ldrbpl	r0, [r0], #-1
    2974:	68000006 	stmdavs	r0, {r1, r2}
    2978:	01000006 	tsteq	r0, r6
    297c:	00005000 	andeq	r5, r0, r0
    2980:	00000000 	andeq	r0, r0, r0
    2984:	00fc0000 	rscseq	r0, ip, r0
    2988:	01040000 	mrseq	r0, (UNDEF: 4)
    298c:	00010000 	andeq	r0, r1, r0
    2990:	00010450 	andeq	r0, r1, r0, asr r4
    2994:	00012800 	andeq	r2, r1, r0, lsl #16
    2998:	54000100 	strpl	r0, [r0], #-256	; 0x100
	...
    29a8:	00000004 	andeq	r0, r0, r4
    29ac:	04520001 	ldrbeq	r0, [r2], #-1
    29b0:	20000000 	andcs	r0, r0, r0
    29b4:	04000000 	streq	r0, [r0], #-0
    29b8:	5201f300 	andpl	pc, r1, #0, 6
    29bc:	0000009f 	muleq	r0, pc, r0	; <UNPREDICTABLE>
	...
    29c8:	00000c00 	andeq	r0, r0, r0, lsl #24
    29cc:	50000100 	andpl	r0, r0, r0, lsl #2
    29d0:	0000000c 	andeq	r0, r0, ip
    29d4:	00000014 	andeq	r0, r0, r4, lsl r0
    29d8:	01730003 	cmneq	r3, r3
    29dc:	0000149f 	muleq	r0, pc, r4	; <UNPREDICTABLE>
    29e0:	00002000 	andeq	r2, r0, r0
    29e4:	53000100 	movwpl	r0, #256	; 0x100
	...

Disassembly of section .debug_aranges:

00000000 <.debug_aranges>:
   0:	0000001c 	andeq	r0, r0, ip, lsl r0
   4:	00000002 	andeq	r0, r0, r2
   8:	00040000 	andeq	r0, r4, r0
   c:	00000000 	andeq	r0, r0, r0
  10:	00008010 	andeq	r8, r0, r0, lsl r0
  14:	000005f4 	strdeq	r0, [r0], -r4
	...
  20:	0000001c 	andeq	r0, r0, ip, lsl r0
  24:	0fdf0002 	svceq	0x00df0002
  28:	00040000 	andeq	r0, r4, r0
  2c:	00000000 	andeq	r0, r0, r0
  30:	00008604 	andeq	r8, r0, r4, lsl #12
  34:	00000058 	andeq	r0, r0, r8, asr r0
	...
  40:	0000001c 	andeq	r0, r0, ip, lsl r0
  44:	11740002 	cmnne	r4, r2
  48:	00040000 	andeq	r0, r4, r0
  4c:	00000000 	andeq	r0, r0, r0
  50:	0000865c 	andeq	r8, r0, ip, asr r6
  54:	0000003c 	andeq	r0, r0, ip, lsr r0
	...
  60:	0000001c 	andeq	r0, r0, ip, lsl r0
  64:	128b0002 	addne	r0, fp, #2
  68:	00040000 	andeq	r0, r4, r0
  6c:	00000000 	andeq	r0, r0, r0
  70:	00008698 	muleq	r0, r8, r6
  74:	00000034 	andeq	r0, r0, r4, lsr r0
	...
  80:	0000001c 	andeq	r0, r0, ip, lsl r0
  84:	137d0002 	cmnne	sp, #2
  88:	00040000 	andeq	r0, r4, r0
  8c:	00000000 	andeq	r0, r0, r0
  90:	000086cc 	andeq	r8, r0, ip, asr #13
  94:	00000524 	andeq	r0, r0, r4, lsr #10
	...
  a0:	0000001c 	andeq	r0, r0, ip, lsl r0
  a4:	1a220002 	bne	8800b4 <__bss_end__+0x875d24>
  a8:	00040000 	andeq	r0, r4, r0
  ac:	00000000 	andeq	r0, r0, r0
  b0:	00008bf0 	strdeq	r8, [r0], -r0
  b4:	00000020 	andeq	r0, r0, r0, lsr #32
	...
  c0:	0000001c 	andeq	r0, r0, ip, lsl r0
  c4:	1ade0002 	bne	ff7800d4 <__bss_end__+0xff775d44>
  c8:	00040000 	andeq	r0, r4, r0
  cc:	00000000 	andeq	r0, r0, r0
  d0:	00008c10 	andeq	r8, r0, r0, lsl ip
  d4:	00000028 	andeq	r0, r0, r8, lsr #32
	...
  e0:	0000001c 	andeq	r0, r0, ip, lsl r0
  e4:	1be10002 	blne	ff8400f4 <__bss_end__+0xff835d64>
  e8:	00040000 	andeq	r0, r4, r0
  ec:	00000000 	andeq	r0, r0, r0
  f0:	00008c38 	andeq	r8, r0, r8, lsr ip
  f4:	000000b0 	strheq	r0, [r0], -r0	; <UNPREDICTABLE>
	...
 100:	0000001c 	andeq	r0, r0, ip, lsl r0
 104:	1ec20002 	cdpne	0, 12, cr0, cr2, cr2, {0}
 108:	00040000 	andeq	r0, r4, r0
 10c:	00000000 	andeq	r0, r0, r0
 110:	00008ce8 	andeq	r8, r0, r8, ror #25
 114:	00000074 	andeq	r0, r0, r4, ror r0
	...
 120:	0000001c 	andeq	r0, r0, ip, lsl r0
 124:	20730002 	rsbscs	r0, r3, r2
 128:	00040000 	andeq	r0, r4, r0
 12c:	00000000 	andeq	r0, r0, r0
 130:	00008d5c 	andeq	r8, r0, ip, asr sp
 134:	00000088 	andeq	r0, r0, r8, lsl #1
	...
 140:	0000001c 	andeq	r0, r0, ip, lsl r0
 144:	224f0002 	subcs	r0, pc, #2
 148:	00040000 	andeq	r0, r4, r0
 14c:	00000000 	andeq	r0, r0, r0
 150:	00008de4 	andeq	r8, r0, r4, ror #27
 154:	000005a0 	andeq	r0, r0, r0, lsr #11
	...
 160:	0000001c 	andeq	r0, r0, ip, lsl r0
 164:	2ad50002 	bcs	ff540174 <__bss_end__+0xff535de4>
 168:	00040000 	andeq	r0, r4, r0
 16c:	00000000 	andeq	r0, r0, r0
 170:	00009384 	andeq	r9, r0, r4, lsl #7
 174:	00000668 	andeq	r0, r0, r8, ror #12
	...
 180:	0000001c 	andeq	r0, r0, ip, lsl r0
 184:	3ccb0002 	stclcc	0, cr0, [fp], {2}
 188:	00040000 	andeq	r0, r4, r0
 18c:	00000000 	andeq	r0, r0, r0
 190:	000099ec 	andeq	r9, r0, ip, ror #19
 194:	00000154 	andeq	r0, r0, r4, asr r1
	...
 1a0:	0000001c 	andeq	r0, r0, ip, lsl r0
 1a4:	40ce0002 	sbcmi	r0, lr, r2
 1a8:	00040000 	andeq	r0, r4, r0
 1ac:	00000000 	andeq	r0, r0, r0
 1b0:	00009ba4 	andeq	r9, r0, r4, lsr #23
 1b4:	00000050 	andeq	r0, r0, r0, asr r0
	...
 1c0:	0000001c 	andeq	r0, r0, ip, lsl r0
 1c4:	42950002 	addsmi	r0, r5, #2
 1c8:	00040000 	andeq	r0, r4, r0
 1cc:	00000000 	andeq	r0, r0, r0
 1d0:	00009bf4 	strdeq	r9, [r0], -r4
 1d4:	00000020 	andeq	r0, r0, r0, lsr #32
	...

Disassembly of section .debug_ranges:

00000000 <.debug_ranges>:
   0:	0000025c 	andeq	r0, r0, ip, asr r2
   4:	00000260 	andeq	r0, r0, r0, ror #4
   8:	00000264 	andeq	r0, r0, r4, ror #4
   c:	00000268 	andeq	r0, r0, r8, ror #4
  10:	0000026c 	andeq	r0, r0, ip, ror #4
  14:	00000270 	andeq	r0, r0, r0, ror r2
  18:	00000274 	andeq	r0, r0, r4, ror r2
  1c:	00000278 	andeq	r0, r0, r8, ror r2
	...
  28:	00000268 	andeq	r0, r0, r8, ror #4
  2c:	0000026c 	andeq	r0, r0, ip, ror #4
  30:	00000270 	andeq	r0, r0, r0, ror r2
  34:	00000274 	andeq	r0, r0, r4, ror r2
  38:	00000278 	andeq	r0, r0, r8, ror r2
  3c:	00000280 	andeq	r0, r0, r0, lsl #5
	...
  48:	00000290 	muleq	r0, r0, r2
  4c:	00000294 	muleq	r0, r4, r2
  50:	00000298 	muleq	r0, r8, r2
  54:	0000029c 	muleq	r0, ip, r2
  58:	000002a0 	andeq	r0, r0, r0, lsr #5
  5c:	000002a4 	andeq	r0, r0, r4, lsr #5
  60:	000002a8 	andeq	r0, r0, r8, lsr #5
  64:	000002ac 	andeq	r0, r0, ip, lsr #5
	...
  70:	0000029c 	muleq	r0, ip, r2
  74:	000002a0 	andeq	r0, r0, r0, lsr #5
  78:	000002a4 	andeq	r0, r0, r4, lsr #5
  7c:	000002a8 	andeq	r0, r0, r8, lsr #5
  80:	000002ac 	andeq	r0, r0, ip, lsr #5
  84:	000002b4 			; <UNDEFINED> instruction: 0x000002b4
	...
  90:	000002c4 	andeq	r0, r0, r4, asr #5
  94:	000002c8 	andeq	r0, r0, r8, asr #5
  98:	000002cc 	andeq	r0, r0, ip, asr #5
  9c:	000002d0 	ldrdeq	r0, [r0], -r0	; <UNPREDICTABLE>
  a0:	000002d4 	ldrdeq	r0, [r0], -r4
  a4:	000002d8 	ldrdeq	r0, [r0], -r8
  a8:	000002dc 	ldrdeq	r0, [r0], -ip
  ac:	000002e0 	andeq	r0, r0, r0, ror #5
	...
  b8:	000002d0 	ldrdeq	r0, [r0], -r0	; <UNPREDICTABLE>
  bc:	000002d4 	ldrdeq	r0, [r0], -r4
  c0:	000002d8 	ldrdeq	r0, [r0], -r8
  c4:	000002dc 	ldrdeq	r0, [r0], -ip
  c8:	000002e0 	andeq	r0, r0, r0, ror #5
  cc:	000002e8 	andeq	r0, r0, r8, ror #5
	...
  d8:	000002f8 	strdeq	r0, [r0], -r8
  dc:	000002fc 	strdeq	r0, [r0], -ip
  e0:	00000300 	andeq	r0, r0, r0, lsl #6
  e4:	00000304 	andeq	r0, r0, r4, lsl #6
  e8:	00000308 	andeq	r0, r0, r8, lsl #6
  ec:	0000030c 	andeq	r0, r0, ip, lsl #6
  f0:	00000310 	andeq	r0, r0, r0, lsl r3
  f4:	00000314 	andeq	r0, r0, r4, lsl r3
	...
 100:	00000304 	andeq	r0, r0, r4, lsl #6
 104:	00000308 	andeq	r0, r0, r8, lsl #6
 108:	0000030c 	andeq	r0, r0, ip, lsl #6
 10c:	00000310 	andeq	r0, r0, r0, lsl r3
 110:	00000314 	andeq	r0, r0, r4, lsl r3
 114:	0000031c 	andeq	r0, r0, ip, lsl r3
	...
 120:	0000032c 	andeq	r0, r0, ip, lsr #6
 124:	00000330 	andeq	r0, r0, r0, lsr r3
 128:	00000334 	andeq	r0, r0, r4, lsr r3
 12c:	00000338 	andeq	r0, r0, r8, lsr r3
 130:	0000033c 	andeq	r0, r0, ip, lsr r3
 134:	00000340 	andeq	r0, r0, r0, asr #6
 138:	00000348 	andeq	r0, r0, r8, asr #6
 13c:	0000034c 	andeq	r0, r0, ip, asr #6
	...
 148:	00000338 	andeq	r0, r0, r8, lsr r3
 14c:	0000033c 	andeq	r0, r0, ip, lsr r3
 150:	00000340 	andeq	r0, r0, r0, asr #6
 154:	00000348 	andeq	r0, r0, r8, asr #6
 158:	0000034c 	andeq	r0, r0, ip, asr #6
 15c:	00000354 	andeq	r0, r0, r4, asr r3
	...
 168:	00000364 	andeq	r0, r0, r4, ror #6
 16c:	00000368 	andeq	r0, r0, r8, ror #6
 170:	0000036c 	andeq	r0, r0, ip, ror #6
 174:	00000370 	andeq	r0, r0, r0, ror r3
 178:	00000374 	andeq	r0, r0, r4, ror r3
 17c:	00000378 	andeq	r0, r0, r8, ror r3
 180:	0000037c 	andeq	r0, r0, ip, ror r3
 184:	00000380 	andeq	r0, r0, r0, lsl #7
	...
 190:	00000370 	andeq	r0, r0, r0, ror r3
 194:	00000374 	andeq	r0, r0, r4, ror r3
 198:	00000378 	andeq	r0, r0, r8, ror r3
 19c:	0000037c 	andeq	r0, r0, ip, ror r3
 1a0:	00000380 	andeq	r0, r0, r0, lsl #7
 1a4:	0000038c 	andeq	r0, r0, ip, lsl #7
	...
 1b0:	0000039c 	muleq	r0, ip, r3
 1b4:	000003a0 	andeq	r0, r0, r0, lsr #7
 1b8:	000003a4 	andeq	r0, r0, r4, lsr #7
 1bc:	000003a8 	andeq	r0, r0, r8, lsr #7
 1c0:	000003ac 	andeq	r0, r0, ip, lsr #7
 1c4:	000003b0 			; <UNDEFINED> instruction: 0x000003b0
 1c8:	000003b4 			; <UNDEFINED> instruction: 0x000003b4
 1cc:	000003b8 			; <UNDEFINED> instruction: 0x000003b8
	...
 1d8:	000003a8 	andeq	r0, r0, r8, lsr #7
 1dc:	000003ac 	andeq	r0, r0, ip, lsr #7
 1e0:	000003b0 			; <UNDEFINED> instruction: 0x000003b0
 1e4:	000003b4 			; <UNDEFINED> instruction: 0x000003b4
 1e8:	000003b8 			; <UNDEFINED> instruction: 0x000003b8
 1ec:	000003bc 			; <UNDEFINED> instruction: 0x000003bc
	...
 1f8:	000003d0 	ldrdeq	r0, [r0], -r0	; <UNPREDICTABLE>
 1fc:	000003dc 	ldrdeq	r0, [r0], -ip
 200:	000003e0 	andeq	r0, r0, r0, ror #7
 204:	000003e4 	andeq	r0, r0, r4, ror #7
 208:	000003e8 	andeq	r0, r0, r8, ror #7
 20c:	000003ec 	andeq	r0, r0, ip, ror #7
	...
 218:	000003dc 	ldrdeq	r0, [r0], -ip
 21c:	000003e0 	andeq	r0, r0, r0, ror #7
 220:	000003e4 	andeq	r0, r0, r4, ror #7
 224:	000003e8 	andeq	r0, r0, r8, ror #7
 228:	000003ec 	andeq	r0, r0, ip, ror #7
 22c:	000003f0 	strdeq	r0, [r0], -r0	; <UNPREDICTABLE>
	...
 238:	00000450 	andeq	r0, r0, r0, asr r4
 23c:	00000454 	andeq	r0, r0, r4, asr r4
 240:	00000458 	andeq	r0, r0, r8, asr r4
 244:	00000464 	andeq	r0, r0, r4, ror #8
	...
 250:	0000057c 	andeq	r0, r0, ip, ror r5
 254:	00000588 	andeq	r0, r0, r8, lsl #11
 258:	0000058c 	andeq	r0, r0, ip, lsl #11
 25c:	000005f4 	strdeq	r0, [r0], -r4
	...
 268:	000002b4 			; <UNDEFINED> instruction: 0x000002b4
 26c:	000002b8 			; <UNDEFINED> instruction: 0x000002b8
 270:	000002e8 	andeq	r0, r0, r8, ror #5
 274:	000004e0 	andeq	r0, r0, r0, ror #9
	...
 280:	00008ce8 	andeq	r8, r0, r8, ror #25
 284:	00008d5c 	andeq	r8, r0, ip, asr sp
	...

Disassembly of section .debug_line:

00000000 <.debug_line>:
       0:	000002d4 	ldrdeq	r0, [r0], -r4
       4:	01280002 	teqeq	r8, r2
       8:	01020000 	mrseq	r0, (UNDEF: 2)
       c:	000d0efb 	strdeq	r0, [sp], -fp
      10:	01010101 	tsteq	r1, r1, lsl #2
      14:	01000000 	mrseq	r0, (UNDEF: 0)
      18:	2f010000 	svccs	0x00010000
      1c:	72657355 	rsbvc	r7, r5, #1409286145	; 0x54000001
      20:	72622f73 	rsbvc	r2, r2, #460	; 0x1cc
      24:	6a6e6169 	bvs	1b985d0 <__bss_end__+0x1b8e240>
      28:	442f6e75 	strtmi	r6, [pc], #-3701	; 30 <_start-0x7fd0>
      2c:	746b7365 	strbtvc	r7, [fp], #-869	; 0x365
      30:	732f706f 	teqvc	pc, #111	; 0x6f
      34:	6f6f6863 	svcvs	0x006f6863
      38:	69572f6c 	ldmdbvs	r7, {r2, r3, r5, r6, r8, r9, sl, fp, sp}^
      3c:	7265746e 	rsbvc	r7, r5, #1845493760	; 0x6e000000
      40:	30323931 	eorscc	r3, r2, r1, lsr r9
      44:	3153432f 	cmpcc	r3, pc, lsr #6
      48:	2f453034 	svccs	0x00453034
      4c:	34317363 	ldrtcc	r7, [r1], #-867	; 0x363
      50:	322d6530 	eorcc	r6, sp, #48, 10	; 0xc000000
      54:	6e697730 	mcrvs	7, 3, r7, cr9, cr0, {1}
      58:	62696c2f 	rsbvs	r6, r9, #12032	; 0x2f00
      5c:	2f006970 	svccs	0x00006970
      60:	72657355 	rsbvc	r7, r5, #1409286145	; 0x54000001
      64:	72622f73 	rsbvc	r2, r2, #460	; 0x1cc
      68:	6a6e6169 	bvs	1b98614 <__bss_end__+0x1b8e284>
      6c:	442f6e75 	strtmi	r6, [pc], #-3701	; 74 <_start-0x7f8c>
      70:	746b7365 	strbtvc	r7, [fp], #-869	; 0x365
      74:	732f706f 	teqvc	pc, #111	; 0x6f
      78:	6f6f6863 	svcvs	0x006f6863
      7c:	69572f6c 	ldmdbvs	r7, {r2, r3, r5, r6, r8, r9, sl, fp, sp}^
      80:	7265746e 	rsbvc	r7, r5, #1845493760	; 0x6e000000
      84:	30323931 	eorscc	r3, r2, r1, lsr r9
      88:	3153432f 	cmpcc	r3, pc, lsr #6
      8c:	2f453034 	svccs	0x00453034
      90:	34317363 	ldrtcc	r7, [r1], #-867	; 0x363
      94:	322d6530 	eorcc	r6, sp, #48, 10	; 0xc000000
      98:	6e697730 	mcrvs	7, 3, r7, cr9, cr0, {1}
      9c:	62696c2f 	rsbvs	r6, r9, #12032	; 0x2f00
      a0:	632f6970 	teqvs	pc, #112, 18	; 0x1c0000
      a4:	30343173 	eorscc	r3, r4, r3, ror r1
      a8:	72732d65 	rsbsvc	r2, r3, #6464	; 0x1940
      ac:	752f0063 	strvc	r0, [pc, #-99]!	; 51 <_start-0x7faf>
      b0:	6c2f7273 	sfmvs	f7, 4, [pc], #-460	; fffffeec <__bss_end__+0xffff5b5c>
      b4:	6c61636f 	stclvs	3, cr6, [r1], #-444	; 0xfffffe44
      b8:	6c65432f 	stclvs	3, cr4, [r5], #-188	; 0xffffff44
      bc:	2f72616c 	svccs	0x0072616c
      c0:	2d6d7261 	sfmcs	f7, 2, [sp, #-388]!	; 0xfffffe7c
      c4:	656e6f6e 	strbvs	r6, [lr, #-3950]!	; 0xf6e
      c8:	6261652d 	rsbvs	r6, r1, #188743680	; 0xb400000
      cc:	2e342f69 	cdpcs	15, 3, cr2, cr4, cr9, {3}
      d0:	2d332e38 	ldccs	14, cr2, [r3, #-224]!	; 0xffffff20
      d4:	37317363 	ldrcc	r7, [r1, -r3, ror #6]!
      d8:	6c2f6530 	cfstr32vs	mvfx6, [pc], #-192	; 20 <_start-0x7fe0>
      dc:	672f6269 	strvs	r6, [pc, -r9, ror #4]!
      e0:	612f6363 	teqvs	pc, r3, ror #6
      e4:	6e2d6d72 	mcrvs	13, 1, r6, cr13, cr2, {3}
      e8:	2d656e6f 	stclcs	14, cr6, [r5, #-444]!	; 0xfffffe44
      ec:	69626165 	stmdbvs	r2!, {r0, r2, r5, r6, r8, sp, lr}^
      f0:	382e342f 	stmdacc	lr!, {r0, r1, r2, r3, r5, sl, ip, sp}
      f4:	692f332e 	stmdbvs	pc!, {r1, r2, r3, r5, r8, r9, ip, sp}	; <UNPREDICTABLE>
      f8:	756c636e 	strbvc	r6, [ip, #-878]!	; 0x36e
      fc:	00006564 	andeq	r6, r0, r4, ror #10
     100:	74736574 	ldrbtvc	r6, [r3], #-1396	; 0x574
     104:	6e65672d 	cdpvs	7, 6, cr6, cr5, cr13, {1}
     108:	0000632e 	andeq	r6, r0, lr, lsr #6
     10c:	70720000 	rsbsvc	r0, r2, r0
     110:	00682e69 	rsbeq	r2, r8, r9, ror #28
     114:	67000001 	strvs	r0, [r0, -r1]
     118:	2e6f6970 	mcrcs	9, 3, r6, cr15, cr0, {3}
     11c:	00020068 	andeq	r0, r2, r8, rrx
     120:	64747300 	ldrbtvs	r7, [r4], #-768	; 0x300
     124:	2d746e69 	ldclcs	14, cr6, [r4, #-420]!	; 0xfffffe5c
     128:	2e636367 	cdpcs	3, 6, cr6, cr3, cr7, {3}
     12c:	00030068 	andeq	r0, r3, r8, rrx
     130:	05000000 	streq	r0, [r0, #-0]
     134:	00801002 	addeq	r1, r0, r2
     138:	01380300 	teqeq	r8, r0, lsl #6
     13c:	2f2f2d13 	svccs	0x002f2d13
     140:	0030672f 	eorseq	r6, r0, pc, lsr #14
     144:	45010402 	strmi	r0, [r1, #-1026]	; 0x402
     148:	0f034408 	svceq	0x00034408
     14c:	0402002e 	streq	r0, [r2], #-46	; 0x2e
     150:	062e0601 	strteq	r0, [lr], -r1, lsl #12
     154:	02002f69 	andeq	r2, r0, #420	; 0x1a4
     158:	2e060104 	adfcss	f0, f6, f4
     15c:	2d2f8306 	stccs	3, cr8, [pc, #-24]!	; 14c <_start-0x7eb4>
     160:	01040200 	mrseq	r0, R12_usr
     164:	2d2f8367 	stccs	3, cr8, [pc, #-412]!	; ffffffd0 <__bss_end__+0xffff5c40>
     168:	01040200 	mrseq	r0, R12_usr
     16c:	2d2f8367 	stccs	3, cr8, [pc, #-412]!	; ffffffd8 <__bss_end__+0xffff5c48>
     170:	01040200 	mrseq	r0, R12_usr
     174:	2d2f8367 	stccs	3, cr8, [pc, #-412]!	; ffffffe0 <__bss_end__+0xffff5c50>
     178:	01040200 	mrseq	r0, R12_usr
     17c:	2d2f8367 	stccs	3, cr8, [pc, #-412]!	; ffffffe8 <__bss_end__+0xffff5c58>
     180:	01040200 	mrseq	r0, R12_usr
     184:	2d2f8367 	stccs	3, cr8, [pc, #-412]!	; fffffff0 <__bss_end__+0xffff5c60>
     188:	01040200 	mrseq	r0, R12_usr
     18c:	2d2f8367 	stccs	3, cr8, [pc, #-412]!	; fffffff8 <__bss_end__+0xffff5c68>
     190:	01040200 	mrseq	r0, R12_usr
     194:	2d2f8367 	stccs	3, cr8, [pc, #-412]!	; 0 <_start-0x8000>
     198:	01040200 	mrseq	r0, R12_usr
     19c:	2f2c8567 	svccs	0x002c8567
     1a0:	2f2f2f2f 	svccs	0x002f2f2f
     1a4:	2e920832 	mrccs	8, 4, r0, cr2, cr2, {1}
     1a8:	64684c30 	strbtvs	r4, [r8], #-3120	; 0xc30
     1ac:	4d334832 	ldcmi	8, cr4, [r3, #-200]!	; 0xffffff38
     1b0:	7fa60330 	svcvc	0x00a60330
     1b4:	0402002e 	streq	r0, [r2], #-46	; 0x2e
     1b8:	00ef0301 	rsceq	r0, pc, r1, lsl #6
     1bc:	7f8c03ba 	svcvc	0x008c03ba
     1c0:	2e0b0382 	cdpcs	3, 0, cr0, cr11, cr2, {4}
     1c4:	332e7503 	teqcc	lr, #12582912	; 0xc00000
     1c8:	33293329 	teqcc	r9, #-1543503872	; 0xa4000000
     1cc:	01040200 	mrseq	r0, R12_usr
     1d0:	4a00f103 	bmi	3c5e4 <__bss_end__+0x32254>
     1d4:	827f8a03 	rsbshi	r8, pc, #12288	; 0x3000
     1d8:	032e0b03 	teqeq	lr, #3072	; 0xc00
     1dc:	29332e75 	ldmdbcs	r3!, {r0, r2, r4, r5, r6, r9, sl, fp, sp}
     1e0:	00332933 	eorseq	r2, r3, r3, lsr r9
     1e4:	03010402 	movweq	r0, #5122	; 0x1402
     1e8:	034a00f3 	movteq	r0, #41203	; 0xa0f3
     1ec:	03827f88 	orreq	r7, r2, #136, 30	; 0x220
     1f0:	75032e0b 	strvc	r2, [r3, #-3595]	; 0xe0b
     1f4:	3329332e 	teqcc	r9, #-1207959552	; 0xb8000000
     1f8:	02003329 	andeq	r3, r0, #-1543503872	; 0xa4000000
     1fc:	f5030104 			; <UNDEFINED> instruction: 0xf5030104
     200:	86034a00 	strhi	r4, [r3], -r0, lsl #20
     204:	0b03827f 	bleq	e0c08 <__bss_end__+0xd6878>
     208:	2e75032e 	cdpcs	3, 7, cr0, cr5, cr14, {1}
     20c:	29332933 	ldmdbcs	r3!, {r0, r1, r4, r5, r8, fp, sp}
     210:	04020033 	streq	r0, [r2], #-51	; 0x33
     214:	00f70301 	rscseq	r0, r7, r1, lsl #6
     218:	7f84034a 	svcvc	0x0084034a
     21c:	2e0b0382 	cdpcs	3, 0, cr0, cr11, cr2, {4}
     220:	332e7503 	teqcc	lr, #12582912	; 0xc00000
     224:	33453329 	movtcc	r3, #21289	; 0x5329
     228:	01040200 	mrseq	r0, R12_usr
     22c:	4a00f903 	bmi	3e640 <__bss_end__+0x342b0>
     230:	827f8203 	rsbshi	r8, pc, #805306368	; 0x30000000
     234:	032e0b03 	teqeq	lr, #3072	; 0xc00
     238:	29332e75 	ldmdbcs	r3!, {r0, r2, r4, r5, r6, r9, sl, fp, sp}
     23c:	00332933 	eorseq	r2, r3, r3, lsr r9
     240:	03010402 	movweq	r0, #5122	; 0x1402
     244:	036600fb 	cmneq	r6, #251	; 0xfb
     248:	03827f80 	orreq	r7, r2, #128, 30	; 0x200
     24c:	75032e0b 	strvc	r2, [r3, #-3595]	; 0xe0b
     250:	3329332e 	teqcc	r9, #-1207959552	; 0xb8000000
     254:	02003329 	andeq	r3, r0, #-1543503872	; 0xa4000000
     258:	fd030104 	stc2	1, cr0, [r3, #-16]
     25c:	89032e00 	stmdbhi	r3, {r9, sl, fp, sp}
     260:	7503827f 	strvc	r8, [r3, #-639]	; 0x27f
     264:	33296b2e 	teqcc	r9, #47104	; 0xb800
     268:	02003329 	andeq	r3, r0, #-1543503872	; 0xa4000000
     26c:	ff030104 			; <UNDEFINED> instruction: 0xff030104
     270:	fc032e00 	stc2	14, cr2, [r3], {-0}
     274:	0200827e 	andeq	r8, r0, #-536870905	; 0xe0000007
     278:	86030104 	strhi	r0, [r3], -r4, lsl #2
     27c:	3183ba01 	orrcc	fp, r3, r1, lsl #20
     280:	31663503 	cmncc	r6, r3, lsl #10
     284:	bc034b4b 	stclt	11, cr4, [r3], {75}	; 0x4b
     288:	c6032e7e 			; <UNDEFINED> instruction: 0xc6032e7e
     28c:	ba032e01 	blt	cba98 <__bss_end__+0xc1708>
     290:	c6032e7e 			; <UNDEFINED> instruction: 0xc6032e7e
     294:	4c2f6601 	stcmi	6, cr6, [pc], #-4	; 298 <_start-0x7d68>
     298:	4f824503 	svcmi	0x00824503
     29c:	2d858484 	cfstrscs	mvf8, [r5, #528]	; 0x210
     2a0:	03827703 	orreq	r7, r2, #786432	; 0xc0000
     2a4:	72034a19 	andvc	r4, r3, #102400	; 0x19000
     2a8:	7fb60366 	svcvc	0x00b60366
     2ac:	6468684a 	strbtvs	r6, [r8], #-2122	; 0x84a
     2b0:	03304832 	teqeq	r0, #3276800	; 0x320000
     2b4:	4b2e00c6 	blmi	b805d4 <__bss_end__+0xb76244>
     2b8:	a0a08431 	adcge	r8, r0, r1, lsr r4
     2bc:	36667803 	strbtcc	r7, [r6], -r3, lsl #16
     2c0:	034a1503 	movteq	r1, #42243	; 0xa503
     2c4:	5e036615 	mcrpl	6, 0, r6, cr3, cr5, {0}
     2c8:	322b312e 	eorcc	r3, fp, #-2147483637	; 0x8000000b
     2cc:	834c4f2a 	movthi	r4, #53034	; 0xcf2a
     2d0:	022f6530 	eoreq	r6, pc, #48, 10	; 0xc000000
     2d4:	01010012 	tsteq	r1, r2, lsl r0
     2d8:	00000102 	andeq	r0, r0, r2, lsl #2
     2dc:	00eb0002 	rsceq	r0, fp, r2
     2e0:	01020000 	mrseq	r0, (UNDEF: 2)
     2e4:	000d0efb 	strdeq	r0, [sp], -fp
     2e8:	01010101 	tsteq	r1, r1, lsl #2
     2ec:	01000000 	mrseq	r0, (UNDEF: 0)
     2f0:	6c010000 	stcvs	0, cr0, [r1], {-0}
     2f4:	00636269 	rsbeq	r6, r3, r9, ror #4
     2f8:	7273752f 	rsbsvc	r7, r3, #197132288	; 0xbc00000
     2fc:	636f6c2f 	cmnvs	pc, #12032	; 0x2f00
     300:	432f6c61 	teqmi	pc, #24832	; 0x6100
     304:	616c6c65 	cmnvs	ip, r5, ror #24
     308:	72612f72 	rsbvc	r2, r1, #456	; 0x1c8
     30c:	6f6e2d6d 	svcvs	0x006e2d6d
     310:	652d656e 	strvs	r6, [sp, #-1390]!	; 0x56e
     314:	2f696261 	svccs	0x00696261
     318:	2e382e34 	mrccs	14, 1, r2, cr8, cr4, {1}
     31c:	73632d33 	cmnvc	r3, #3264	; 0xcc0
     320:	65303731 	ldrvs	r3, [r0, #-1841]!	; 0x731
     324:	62696c2f 	rsbvs	r6, r9, #12032	; 0x2f00
     328:	6363672f 	cmnvs	r3, #12320768	; 0xbc0000
     32c:	6d72612f 	ldfvse	f6, [r2, #-188]!	; 0xffffff44
     330:	6e6f6e2d 	cdpvs	14, 6, cr6, cr15, cr13, {1}
     334:	61652d65 	cmnvs	r5, r5, ror #26
     338:	342f6962 	strtcc	r6, [pc], #-2402	; 340 <_start-0x7cc0>
     33c:	332e382e 	teqcc	lr, #3014656	; 0x2e0000
     340:	636e692f 	cmnvs	lr, #770048	; 0xbc000
     344:	6564756c 	strbvs	r7, [r4, #-1388]!	; 0x56c
     348:	73552f00 	cmpvc	r5, #0, 30
     34c:	2f737265 	svccs	0x00737265
     350:	61697262 	cmnvs	r9, r2, ror #4
     354:	6e756a6e 	vsubvs.f32	s13, s10, s29
     358:	7365442f 	cmnvc	r5, #788529152	; 0x2f000000
     35c:	706f746b 	rsbvc	r7, pc, fp, ror #8
     360:	6863732f 	stmdavs	r3!, {r0, r1, r2, r3, r5, r8, r9, ip, sp, lr}^
     364:	2f6c6f6f 	svccs	0x006c6f6f
     368:	746e6957 	strbtvc	r6, [lr], #-2391	; 0x957
     36c:	39317265 	ldmdbcc	r1!, {r0, r2, r5, r6, r9, ip, sp, lr}
     370:	432f3032 	teqmi	pc, #50	; 0x32
     374:	30343153 	eorscc	r3, r4, r3, asr r1
     378:	73632f45 	cmnvc	r3, #276	; 0x114
     37c:	65303431 	ldrvs	r3, [r0, #-1073]!	; 0x431
     380:	7730322d 	ldrvc	r3, [r0, -sp, lsr #4]!
     384:	6c2f6e69 	stcvs	14, cr6, [pc], #-420	; 1e8 <_start-0x7e18>
     388:	69706269 	ldmdbvs	r0!, {r0, r3, r5, r6, r9, sp, lr}^
     38c:	72700000 	rsbsvc	r0, r0, #0
     390:	6b746e69 	blvs	1d1bd3c <__bss_end__+0x1d119ac>
     394:	0100632e 	tsteq	r0, lr, lsr #6
     398:	74730000 	ldrbtvc	r0, [r3], #-0
     39c:	67726164 	ldrbvs	r6, [r2, -r4, ror #2]!
     3a0:	0200682e 	andeq	r6, r0, #3014656	; 0x2e0000
     3a4:	623c0000 	eorsvs	r0, ip, #0
     3a8:	746c6975 	strbtvc	r6, [ip], #-2421	; 0x975
     3ac:	3e6e692d 	cdpcc	9, 6, cr6, cr14, cr13, {1}
     3b0:	00000000 	andeq	r0, r0, r0
     3b4:	2e697072 	mcrcs	0, 3, r7, cr9, cr2, {3}
     3b8:	00030068 	andeq	r0, r3, r8, rrx
     3bc:	2d617600 	stclcs	6, cr7, [r1, #-0]
     3c0:	6e697270 	mcrvs	2, 3, r7, cr9, cr0, {3}
     3c4:	682e6b74 	stmdavs	lr!, {r2, r4, r5, r6, r8, r9, fp, sp, lr}
     3c8:	00000100 	andeq	r0, r0, r0, lsl #2
     3cc:	02050000 	andeq	r0, r5, #0
     3d0:	00008604 	andeq	r8, r0, r4, lsl #12
     3d4:	bf4b6b17 	svclt	0x004b6b17
     3d8:	000e0289 	andeq	r0, lr, r9, lsl #5
     3dc:	008a0101 	addeq	r0, sl, r1, lsl #2
     3e0:	00020000 	andeq	r0, r2, r0
     3e4:	00000072 	andeq	r0, r0, r2, ror r0
     3e8:	0efb0102 	cdpeq	1, 15, cr0, cr11, cr2, {0}
     3ec:	0101000d 	tsteq	r1, sp
     3f0:	00000101 	andeq	r0, r0, r1, lsl #2
     3f4:	00000100 	andeq	r0, r0, r0, lsl #2
     3f8:	62696c01 	rsbvs	r6, r9, #256	; 0x100
     3fc:	552f0063 	strpl	r0, [pc, #-99]!	; 3a1 <_start-0x7c5f>
     400:	73726573 	cmnvc	r2, #482344960	; 0x1cc00000
     404:	6972622f 	ldmdbvs	r2!, {r0, r1, r2, r3, r5, r9, sp, lr}^
     408:	756a6e61 	strbvc	r6, [sl, #-3681]!	; 0xe61
     40c:	65442f6e 	strbvs	r2, [r4, #-3950]	; 0xf6e
     410:	6f746b73 	svcvs	0x00746b73
     414:	63732f70 	cmnvs	r3, #112, 30	; 0x1c0
     418:	6c6f6f68 	stclvs	15, cr6, [pc], #-416	; 280 <_start-0x7d80>
     41c:	6e69572f 	cdpvs	7, 6, cr5, cr9, cr15, {1}
     420:	31726574 	cmncc	r2, r4, ror r5
     424:	2f303239 	svccs	0x00303239
     428:	34315343 	ldrtcc	r5, [r1], #-835	; 0x343
     42c:	632f4530 	teqvs	pc, #48, 10	; 0xc000000
     430:	30343173 	eorscc	r3, r4, r3, ror r1
     434:	30322d65 	eorscc	r2, r2, r5, ror #26
     438:	2f6e6977 	svccs	0x006e6977
     43c:	7062696c 	rsbvc	r6, r2, ip, ror #18
     440:	70000069 	andvc	r0, r0, r9, rrx
     444:	68637475 	stmdavs	r3!, {r0, r2, r4, r5, r6, sl, ip, sp, lr}^
     448:	632e7261 	teqvs	lr, #268435462	; 0x10000006
     44c:	00000100 	andeq	r0, r0, r0, lsl #2
     450:	2e697072 	mcrcs	0, 3, r7, cr9, cr2, {3}
     454:	00020068 	andeq	r0, r2, r8, rrx
     458:	05000000 	streq	r0, [r0, #-0]
     45c:	00865c02 	addeq	r5, r6, r2, lsl #24
     460:	6b4a1400 	blvs	1285468 <__bss_end__+0x127b0d8>
     464:	0213bc13 	andseq	fp, r3, #4864	; 0x1300
     468:	01010008 	tsteq	r1, r8
     46c:	00000096 	muleq	r0, r6, r0
     470:	006f0002 	rsbeq	r0, pc, r2
     474:	01020000 	mrseq	r0, (UNDEF: 2)
     478:	000d0efb 	strdeq	r0, [sp], -fp
     47c:	01010101 	tsteq	r1, r1, lsl #2
     480:	01000000 	mrseq	r0, (UNDEF: 0)
     484:	6c010000 	stcvs	0, cr0, [r1], {-0}
     488:	00636269 	rsbeq	r6, r3, r9, ror #4
     48c:	6573552f 	ldrbvs	r5, [r3, #-1327]!	; 0x52f
     490:	622f7372 	eorvs	r7, pc, #-939524095	; 0xc8000001
     494:	6e616972 	mcrvs	9, 3, r6, cr1, cr2, {3}
     498:	2f6e756a 	svccs	0x006e756a
     49c:	6b736544 	blvs	1cd99b4 <__bss_end__+0x1ccf624>
     4a0:	2f706f74 	svccs	0x00706f74
     4a4:	6f686373 	svcvs	0x00686373
     4a8:	572f6c6f 	strpl	r6, [pc, -pc, ror #24]!
     4ac:	65746e69 	ldrbvs	r6, [r4, #-3689]!	; 0xe69
     4b0:	32393172 	eorscc	r3, r9, #-2147483620	; 0x8000001c
     4b4:	53432f30 	movtpl	r2, #16176	; 0x3f30
     4b8:	45303431 	ldrmi	r3, [r0, #-1073]!	; 0x431
     4bc:	3173632f 	cmncc	r3, pc, lsr #6
     4c0:	2d653034 	stclcs	0, cr3, [r5, #-208]!	; 0xffffff30
     4c4:	69773032 	ldmdbvs	r7!, {r1, r4, r5, ip, sp}^
     4c8:	696c2f6e 	stmdbvs	ip!, {r1, r2, r3, r5, r6, r8, r9, sl, fp, sp}^
     4cc:	00697062 	rsbeq	r7, r9, r2, rrx
     4d0:	74757000 	ldrbtvc	r7, [r5], #-0
     4d4:	00632e6b 	rsbeq	r2, r3, fp, ror #28
     4d8:	72000001 	andvc	r0, r0, #1
     4dc:	682e6970 	stmdavs	lr!, {r4, r5, r6, r8, fp, sp, lr}
     4e0:	00000200 	andeq	r0, r0, r0, lsl #4
     4e4:	02050000 	andeq	r0, r5, #0
     4e8:	00008698 	muleq	r0, r8, r6
     4ec:	002d4c15 	eoreq	r4, sp, r5, lsl ip
     4f0:	2f020402 	svccs	0x00020402
     4f4:	02040200 	andeq	r0, r4, #0, 4
     4f8:	04020049 	streq	r0, [r2], #-73	; 0x49
     4fc:	062e0601 	strteq	r0, [lr], -r1, lsl #12
     500:	0006026b 	andeq	r0, r6, fp, ror #4
     504:	01e20101 	mvneq	r0, r1, lsl #2
     508:	00020000 	andeq	r0, r2, r0
     50c:	000000df 	ldrdeq	r0, [r0], -pc	; <UNPREDICTABLE>
     510:	0efb0102 	cdpeq	1, 15, cr0, cr11, cr2, {0}
     514:	0101000d 	tsteq	r1, sp
     518:	00000101 	andeq	r0, r0, r1, lsl #2
     51c:	00000100 	andeq	r0, r0, r0, lsl #2
     520:	62696c01 	rsbvs	r6, r9, #256	; 0x100
     524:	752f0063 	strvc	r0, [pc, #-99]!	; 4c9 <_start-0x7b37>
     528:	6c2f7273 	sfmvs	f7, 4, [pc], #-460	; 364 <_start-0x7c9c>
     52c:	6c61636f 	stclvs	3, cr6, [r1], #-444	; 0xfffffe44
     530:	6c65432f 	stclvs	3, cr4, [r5], #-188	; 0xffffff44
     534:	2f72616c 	svccs	0x0072616c
     538:	2d6d7261 	sfmcs	f7, 2, [sp, #-388]!	; 0xfffffe7c
     53c:	656e6f6e 	strbvs	r6, [lr, #-3950]!	; 0xf6e
     540:	6261652d 	rsbvs	r6, r1, #188743680	; 0xb400000
     544:	2e342f69 	cdpcs	15, 3, cr2, cr4, cr9, {3}
     548:	2d332e38 	ldccs	14, cr2, [r3, #-224]!	; 0xffffff20
     54c:	37317363 	ldrcc	r7, [r1, -r3, ror #6]!
     550:	6c2f6530 	cfstr32vs	mvfx6, [pc], #-192	; 498 <_start-0x7b68>
     554:	672f6269 	strvs	r6, [pc, -r9, ror #4]!
     558:	612f6363 	teqvs	pc, r3, ror #6
     55c:	6e2d6d72 	mcrvs	13, 1, r6, cr13, cr2, {3}
     560:	2d656e6f 	stclcs	14, cr6, [r5, #-444]!	; 0xfffffe44
     564:	69626165 	stmdbvs	r2!, {r0, r2, r5, r6, r8, sp, lr}^
     568:	382e342f 	stmdacc	lr!, {r0, r1, r2, r3, r5, sl, ip, sp}
     56c:	692f332e 	stmdbvs	pc!, {r1, r2, r3, r5, r8, r9, ip, sp}	; <UNPREDICTABLE>
     570:	756c636e 	strbvc	r6, [ip, #-878]!	; 0x36e
     574:	2f006564 	svccs	0x00006564
     578:	72657355 	rsbvc	r7, r5, #1409286145	; 0x54000001
     57c:	72622f73 	rsbvc	r2, r2, #460	; 0x1cc
     580:	6a6e6169 	bvs	1b98b2c <__bss_end__+0x1b8e79c>
     584:	442f6e75 	strtmi	r6, [pc], #-3701	; 58c <_start-0x7a74>
     588:	746b7365 	strbtvc	r7, [fp], #-869	; 0x365
     58c:	732f706f 	teqvc	pc, #111	; 0x6f
     590:	6f6f6863 	svcvs	0x006f6863
     594:	69572f6c 	ldmdbvs	r7, {r2, r3, r5, r6, r8, r9, sl, fp, sp}^
     598:	7265746e 	rsbvc	r7, r5, #1845493760	; 0x6e000000
     59c:	30323931 	eorscc	r3, r2, r1, lsr r9
     5a0:	3153432f 	cmpcc	r3, pc, lsr #6
     5a4:	2f453034 	svccs	0x00453034
     5a8:	34317363 	ldrtcc	r7, [r1], #-867	; 0x363
     5ac:	322d6530 	eorcc	r6, sp, #48, 10	; 0xc000000
     5b0:	6e697730 	mcrvs	7, 3, r7, cr9, cr0, {1}
     5b4:	62696c2f 	rsbvs	r6, r9, #12032	; 0x2f00
     5b8:	00006970 	andeq	r6, r0, r0, ror r9
     5bc:	702d6176 	eorvc	r6, sp, r6, ror r1
     5c0:	746e6972 	strbtvc	r6, [lr], #-2418	; 0x972
     5c4:	00632e6b 	rsbeq	r2, r3, fp, ror #28
     5c8:	73000001 	movwvc	r0, #1
     5cc:	72616474 	rsbvc	r6, r1, #116, 8	; 0x74000000
     5d0:	00682e67 	rsbeq	r2, r8, r7, ror #28
     5d4:	72000002 	andvc	r0, r0, #2
     5d8:	682e6970 	stmdavs	lr!, {r4, r5, r6, r8, fp, sp, lr}
     5dc:	00000300 	andeq	r0, r0, r0, lsl #6
     5e0:	6975623c 	ldmdbvs	r5!, {r2, r3, r4, r5, r9, sp, lr}^
     5e4:	692d746c 	pushvs	{r2, r3, r5, r6, sl, ip, sp, lr}
     5e8:	00003e6e 	andeq	r3, r0, lr, ror #28
     5ec:	00000000 	andeq	r0, r0, r0
     5f0:	86cc0205 	strbhi	r0, [ip], r5, lsl #4
     5f4:	26030000 	strcs	r0, [r3], -r0
     5f8:	13a50101 			; <UNDEFINED> instruction: 0x13a50101
     5fc:	02002d31 	andeq	r2, r0, #3136	; 0xc40
     600:	002f0204 	eoreq	r0, pc, r4, lsl #4
     604:	2d020402 	cfstrscs	mvf0, [r2, #-8]
     608:	02040200 	andeq	r0, r4, #0, 4
     60c:	0402002f 	streq	r0, [r2], #-47	; 0x2f
     610:	4c4c2d01 	mcrrmi	13, 0, r2, ip, cr1
     614:	2f4b1430 	svccs	0x004b1430
     618:	0402004f 	streq	r0, [r2], #-79	; 0x4f
     61c:	02006702 	andeq	r6, r0, #524288	; 0x80000
     620:	4c650104 	stfmie	f0, [r5], #-16
     624:	2fa0304d 	svccs	0x00a0304d
     628:	26023031 			; <UNDEFINED> instruction: 0x26023031
     62c:	2c2d8416 	cfstrscs	mvf8, [sp], #-88	; 0xffffffa8
     630:	01040200 	mrseq	r0, R12_usr
     634:	04020030 	streq	r0, [r2], #-48	; 0x30
     638:	66063301 	strvs	r3, [r6], -r1, lsl #6
     63c:	01040200 	mrseq	r0, R12_usr
     640:	0402002e 	streq	r0, [r2], #-46	; 0x2e
     644:	21080601 	tstcs	r8, r1, lsl #12
     648:	73032f67 	movwvc	r2, #16231	; 0x3f67
     64c:	2e130382 	cdpcs	3, 1, cr0, cr3, cr2, {4}
     650:	01040200 	mrseq	r0, R12_usr
     654:	02002e06 	andeq	r2, r0, #6, 28	; 0x60
     658:	9f060104 	svcls	0x00060104
     65c:	67034b6a 	strvs	r4, [r3, -sl, ror #22]
     660:	2e21032e 	cdpcs	3, 2, cr0, cr1, cr14, {1}
     664:	01040200 	mrseq	r0, R12_usr
     668:	02002e06 	andeq	r2, r0, #6, 28	; 0x60
     66c:	9f060104 	svcls	0x00060104
     670:	01040200 	mrseq	r0, R12_usr
     674:	f323086a 	vsub.i32	q0, <illegal reg q1.5>, q13
     678:	087fa603 	ldmdaeq	pc!, {r0, r1, r9, sl, sp, pc}^	; <UNPREDICTABLE>
     67c:	02004b3c 	andeq	r4, r0, #60, 22	; 0xf000
     680:	4a060104 	bmi	180a98 <__bss_end__+0x176708>
     684:	4b210806 	blmi	8426a4 <__bss_end__+0x838314>
     688:	d9034b2f 	stmdble	r3, {r0, r1, r2, r3, r5, r8, r9, fp, lr}
     68c:	4c83f200 	sfmmi	f7, 1, [r3], {0}
     690:	2e0e0348 	cdpcs	3, 0, cr0, cr14, cr8, {2}
     694:	2f2e7503 	svccs	0x002e7503
     698:	2f4b842f 	svccs	0x004b842f
     69c:	30314d2d 	eorscc	r4, r1, sp, lsr #26
     6a0:	0200832f 	andeq	r8, r0, #-1140850688	; 0xbc000000
     6a4:	a22c0104 	eorge	r0, ip, #4, 2
     6a8:	01040200 	mrseq	r0, R12_usr
     6ac:	08064a06 	stmdaeq	r6, {r1, r2, r9, fp, lr}
     6b0:	16360222 	ldrtne	r0, [r6], -r2, lsr #4
     6b4:	08d60e03 	ldmeq	r6, {r0, r1, r9, sl, fp}^
     6b8:	31f33021 	mvnscc	r3, r1, lsr #32
     6bc:	30f330f3 	ldrshtcc	r3, [r3], #3
     6c0:	30f3304b 	rscscc	r3, r3, fp, asr #32
     6c4:	2f312308 	svccs	0x00312308
     6c8:	01040200 	mrseq	r0, R12_usr
     6cc:	04020065 	streq	r0, [r2], #-101	; 0x65
     6d0:	004a0602 	subeq	r0, sl, r2, lsl #12
     6d4:	06010402 	streq	r0, [r1], -r2, lsl #8
     6d8:	00664203 	rsbeq	r4, r6, r3, lsl #4
     6dc:	06020402 	streq	r0, [r2], -r2, lsl #8
     6e0:	c2030666 	andgt	r0, r3, #106954752	; 0x6600000
     6e4:	02684a00 	rsbeq	r4, r8, #0, 20
     6e8:	01010012 	tsteq	r1, r2, lsl r0
     6ec:	00000043 	andeq	r0, r0, r3, asr #32
     6f0:	00290002 	eoreq	r0, r9, r2
     6f4:	01020000 	mrseq	r0, (UNDEF: 2)
     6f8:	000d0efb 	strdeq	r0, [sp], -fp
     6fc:	01010101 	tsteq	r1, r1, lsl #2
     700:	01000000 	mrseq	r0, (UNDEF: 0)
     704:	63010000 	movwvs	r0, #4096	; 0x1000
     708:	30343173 	eorscc	r3, r4, r3, ror r1
     70c:	72732d65 	rsbsvc	r2, r3, #6464	; 0x1940
     710:	63000063 	movwvs	r0, #99	; 0x63
     714:	65686361 	strbvs	r6, [r8, #-865]!	; 0x361
     718:	0100632e 	tsteq	r0, lr, lsr #6
     71c:	00000000 	andeq	r0, r0, r0
     720:	8bf00205 	blhi	ffc00f3c <__bss_end__+0xffbf6bac>
     724:	14140000 	ldrne	r0, [r4], #-0
     728:	144e2f30 	strbne	r2, [lr], #-3888	; 0xf30
     72c:	04022f31 	streq	r2, [r2], #-3889	; 0xf31
     730:	93010100 	movwls	r0, #4352	; 0x1100
     734:	02000000 	andeq	r0, r0, #0
     738:	00007d00 	andeq	r7, r0, r0, lsl #26
     73c:	fb010200 	blx	40f46 <__bss_end__+0x36bb6>
     740:	01000d0e 	tsteq	r0, lr, lsl #26
     744:	00010101 	andeq	r0, r1, r1, lsl #2
     748:	00010000 	andeq	r0, r1, r0
     74c:	73630100 	cmnvc	r3, #0, 2
     750:	65303431 	ldrvs	r3, [r0, #-1073]!	; 0x431
     754:	6372732d 	cmnvs	r2, #-1275068416	; 0xb4000000
     758:	73552f00 	cmpvc	r5, #0, 30
     75c:	2f737265 	svccs	0x00737265
     760:	61697262 	cmnvs	r9, r2, ror #4
     764:	6e756a6e 	vsubvs.f32	s13, s10, s29
     768:	7365442f 	cmnvc	r5, #788529152	; 0x2f000000
     76c:	706f746b 	rsbvc	r7, pc, fp, ror #8
     770:	6863732f 	stmdavs	r3!, {r0, r1, r2, r3, r5, r8, r9, ip, sp, lr}^
     774:	2f6c6f6f 	svccs	0x006c6f6f
     778:	746e6957 	strbtvc	r6, [lr], #-2391	; 0x957
     77c:	39317265 	ldmdbcc	r1!, {r0, r2, r5, r6, r9, ip, sp, lr}
     780:	432f3032 	teqmi	pc, #50	; 0x32
     784:	30343153 	eorscc	r3, r4, r3, asr r1
     788:	73632f45 	cmnvc	r3, #276	; 0x114
     78c:	65303431 	ldrvs	r3, [r0, #-1073]!	; 0x431
     790:	7730322d 	ldrvc	r3, [r0, -sp, lsr #4]!
     794:	6c2f6e69 	stcvs	14, cr6, [pc], #-420	; 5f8 <_start-0x7a08>
     798:	69706269 	ldmdbvs	r0!, {r0, r3, r5, r6, r9, sp, lr}^
     79c:	6c630000 	stclvs	0, cr0, [r3], #-0
     7a0:	2d6e6165 	stfcse	f6, [lr, #-404]!	; 0xfffffe6c
     7a4:	6f626572 	svcvs	0x00626572
     7a8:	632e746f 	teqvs	lr, #1862270976	; 0x6f000000
     7ac:	00000100 	andeq	r0, r0, r0, lsl #2
     7b0:	2e697072 	mcrcs	0, 3, r7, cr9, cr2, {3}
     7b4:	00020068 	andeq	r0, r2, r8, rrx
     7b8:	05000000 	streq	r0, [r0, #-0]
     7bc:	008c1002 	addeq	r1, ip, r2
     7c0:	832f1500 	teqhi	pc, #0, 10
     7c4:	0006024b 	andeq	r0, r6, fp, asr #4
     7c8:	01210101 	teqeq	r1, r1, lsl #2
     7cc:	00020000 	andeq	r0, r2, r0
     7d0:	000000f8 	strdeq	r0, [r0], -r8
     7d4:	0efb0102 	cdpeq	1, 15, cr0, cr11, cr2, {0}
     7d8:	0101000d 	tsteq	r1, sp
     7dc:	00000101 	andeq	r0, r0, r1, lsl #2
     7e0:	00000100 	andeq	r0, r0, r0, lsl #2
     7e4:	31736301 	cmncc	r3, r1, lsl #6
     7e8:	2d653034 	stclcs	0, cr3, [r5, #-208]!	; 0xffffff30
     7ec:	00637273 	rsbeq	r7, r3, r3, ror r2
     7f0:	7273752f 	rsbsvc	r7, r3, #197132288	; 0xbc00000
     7f4:	636f6c2f 	cmnvs	pc, #12032	; 0x2f00
     7f8:	432f6c61 	teqmi	pc, #24832	; 0x6100
     7fc:	616c6c65 	cmnvs	ip, r5, ror #24
     800:	72612f72 	rsbvc	r2, r1, #456	; 0x1c8
     804:	6f6e2d6d 	svcvs	0x006e2d6d
     808:	652d656e 	strvs	r6, [sp, #-1390]!	; 0x56e
     80c:	2f696261 	svccs	0x00696261
     810:	2e382e34 	mrccs	14, 1, r2, cr8, cr4, {1}
     814:	73632d33 	cmnvc	r3, #3264	; 0xcc0
     818:	65303731 	ldrvs	r3, [r0, #-1841]!	; 0x731
     81c:	62696c2f 	rsbvs	r6, r9, #12032	; 0x2f00
     820:	6363672f 	cmnvs	r3, #12320768	; 0xbc0000
     824:	6d72612f 	ldfvse	f6, [r2, #-188]!	; 0xffffff44
     828:	6e6f6e2d 	cdpvs	14, 6, cr6, cr15, cr13, {1}
     82c:	61652d65 	cmnvs	r5, r5, ror #26
     830:	342f6962 	strtcc	r6, [pc], #-2402	; 838 <_start-0x77c8>
     834:	332e382e 	teqcc	lr, #3014656	; 0x2e0000
     838:	636e692f 	cmnvs	lr, #770048	; 0xbc000
     83c:	6564756c 	strbvs	r7, [r4, #-1388]!	; 0x56c
     840:	73552f00 	cmpvc	r5, #0, 30
     844:	2f737265 	svccs	0x00737265
     848:	61697262 	cmnvs	r9, r2, ror #4
     84c:	6e756a6e 	vsubvs.f32	s13, s10, s29
     850:	7365442f 	cmnvc	r5, #788529152	; 0x2f000000
     854:	706f746b 	rsbvc	r7, pc, fp, ror #8
     858:	6863732f 	stmdavs	r3!, {r0, r1, r2, r3, r5, r8, r9, ip, sp, lr}^
     85c:	2f6c6f6f 	svccs	0x006c6f6f
     860:	746e6957 	strbtvc	r6, [lr], #-2391	; 0x957
     864:	39317265 	ldmdbcc	r1!, {r0, r2, r5, r6, r9, ip, sp, lr}
     868:	432f3032 	teqmi	pc, #50	; 0x32
     86c:	30343153 	eorscc	r3, r4, r3, asr r1
     870:	73632f45 	cmnvc	r3, #276	; 0x114
     874:	65303431 	ldrvs	r3, [r0, #-1073]!	; 0x431
     878:	7730322d 	ldrvc	r3, [r0, -sp, lsr #4]!
     87c:	6c2f6e69 	stcvs	14, cr6, [pc], #-420	; 6e0 <_start-0x7920>
     880:	69706269 	ldmdbvs	r0!, {r0, r3, r5, r6, r9, sp, lr}^
     884:	73630000 	cmnvc	r3, #0
     888:	74726174 	ldrbtvc	r6, [r2], #-372	; 0x174
     88c:	0100632e 	tsteq	r0, lr, lsr #6
     890:	74730000 	ldrbtvc	r0, [r3], #-0
     894:	746e6964 	strbtvc	r6, [lr], #-2404	; 0x964
     898:	6363672d 	cmnvs	r3, #11796480	; 0xb40000
     89c:	0200682e 	andeq	r6, r0, #3014656	; 0x2e0000
     8a0:	77730000 	ldrbvc	r0, [r3, -r0]!
     8a4:	7261752d 	rsbvc	r7, r1, #188743680	; 0xb400000
     8a8:	00682e74 	rsbeq	r2, r8, r4, ror lr
     8ac:	63000001 	movwvs	r0, #1
     8b0:	72746e6f 	rsbsvc	r6, r4, #1776	; 0x6f0
     8b4:	622d6c6f 	eorvs	r6, sp, #28416	; 0x6f00
     8b8:	6b636f6c 	blvs	18dc670 <__bss_end__+0x18d22e0>
     8bc:	0100682e 	tsteq	r0, lr, lsr #16
     8c0:	70720000 	rsbsvc	r0, r2, r0
     8c4:	00682e69 	rsbeq	r2, r8, r9, ror #28
     8c8:	00000003 	andeq	r0, r0, r3
     8cc:	38020500 	stmdacc	r2, {r8, sl}
     8d0:	1700008c 	strne	r0, [r0, -ip, lsl #1]
     8d4:	3268684b 	rsbcc	r6, r8, #4915200	; 0x4b0000
     8d8:	2f2d2f31 	svccs	0x002d2f31
     8dc:	01040200 	mrseq	r0, R12_usr
     8e0:	4b2f4f49 	blmi	bd460c <__bss_end__+0xbca27c>
     8e4:	67836767 	strvs	r6, [r3, r7, ror #14]
     8e8:	10022f4e 	andne	r2, r2, lr, asr #30
     8ec:	99010100 	stmdbls	r1, {r8}
     8f0:	02000000 	andeq	r0, r0, #0
     8f4:	00007700 	andeq	r7, r0, r0, lsl #14
     8f8:	fb010200 	blx	41102 <__bss_end__+0x36d72>
     8fc:	01000d0e 	tsteq	r0, lr, lsl #26
     900:	00010101 	andeq	r0, r1, r1, lsl #2
     904:	00010000 	andeq	r0, r1, r0
     908:	73630100 	cmnvc	r3, #0, 2
     90c:	65303431 	ldrvs	r3, [r0, #-1073]!	; 0x431
     910:	6372732d 	cmnvs	r2, #-1275068416	; 0xb4000000
     914:	73552f00 	cmpvc	r5, #0, 30
     918:	2f737265 	svccs	0x00737265
     91c:	61697262 	cmnvs	r9, r2, ror #4
     920:	6e756a6e 	vsubvs.f32	s13, s10, s29
     924:	7365442f 	cmnvc	r5, #788529152	; 0x2f000000
     928:	706f746b 	rsbvc	r7, pc, fp, ror #8
     92c:	6863732f 	stmdavs	r3!, {r0, r1, r2, r3, r5, r8, r9, ip, sp, lr}^
     930:	2f6c6f6f 	svccs	0x006c6f6f
     934:	746e6957 	strbtvc	r6, [lr], #-2391	; 0x957
     938:	39317265 	ldmdbcc	r1!, {r0, r2, r5, r6, r9, ip, sp, lr}
     93c:	432f3032 	teqmi	pc, #50	; 0x32
     940:	30343153 	eorscc	r3, r4, r3, asr r1
     944:	73632f45 	cmnvc	r3, #276	; 0x114
     948:	65303431 	ldrvs	r3, [r0, #-1073]!	; 0x431
     94c:	7730322d 	ldrvc	r3, [r0, -sp, lsr #4]!
     950:	6c2f6e69 	stcvs	14, cr6, [pc], #-420	; 7b4 <_start-0x784c>
     954:	69706269 	ldmdbvs	r0!, {r0, r3, r5, r6, r9, sp, lr}^
     958:	65720000 	ldrbvs	r0, [r2, #-0]!
     95c:	746f6f62 	strbtvc	r6, [pc], #-3938	; 964 <_start-0x769c>
     960:	0100632e 	tsteq	r0, lr, lsr #6
     964:	70720000 	rsbsvc	r0, r2, r0
     968:	00682e69 	rsbeq	r2, r8, r9, ror #28
     96c:	00000002 	andeq	r0, r0, r2
     970:	e8020500 	stmda	r2, {r8, sl}
     974:	0300008c 	movweq	r0, #140	; 0x8c
     978:	3114010d 	tstcc	r4, sp, lsl #2
     97c:	2f15852f 	svccs	0x0015852f
     980:	672f4d4b 	strvs	r4, [pc, -fp, asr #26]!
     984:	02675235 	rsbeq	r5, r7, #1342177283	; 0x50000003
     988:	01010010 	tsteq	r1, r0, lsl r0
     98c:	000000a3 	andeq	r0, r0, r3, lsr #1
     990:	00760002 	rsbseq	r0, r6, r2
     994:	01020000 	mrseq	r0, (UNDEF: 2)
     998:	000d0efb 	strdeq	r0, [sp], -fp
     99c:	01010101 	tsteq	r1, r1, lsl #2
     9a0:	01000000 	mrseq	r0, (UNDEF: 0)
     9a4:	63010000 	movwvs	r0, #4096	; 0x1000
     9a8:	30343173 	eorscc	r3, r4, r3, ror r1
     9ac:	72732d65 	rsbsvc	r2, r3, #6464	; 0x1940
     9b0:	552f0063 	strpl	r0, [pc, #-99]!	; 955 <_start-0x76ab>
     9b4:	73726573 	cmnvc	r2, #482344960	; 0x1cc00000
     9b8:	6972622f 	ldmdbvs	r2!, {r0, r1, r2, r3, r5, r9, sp, lr}^
     9bc:	756a6e61 	strbvc	r6, [sl, #-3681]!	; 0xe61
     9c0:	65442f6e 	strbvs	r2, [r4, #-3950]	; 0xf6e
     9c4:	6f746b73 	svcvs	0x00746b73
     9c8:	63732f70 	cmnvs	r3, #112, 30	; 0x1c0
     9cc:	6c6f6f68 	stclvs	15, cr6, [pc], #-416	; 834 <_start-0x77cc>
     9d0:	6e69572f 	cdpvs	7, 6, cr5, cr9, cr15, {1}
     9d4:	31726574 	cmncc	r2, r4, ror r5
     9d8:	2f303239 	svccs	0x00303239
     9dc:	34315343 	ldrtcc	r5, [r1], #-835	; 0x343
     9e0:	632f4530 	teqvs	pc, #48, 10	; 0xc000000
     9e4:	30343173 	eorscc	r3, r4, r3, ror r1
     9e8:	30322d65 	eorscc	r2, r2, r5, ror #26
     9ec:	2f6e6977 	svccs	0x006e6977
     9f0:	7062696c 	rsbvc	r6, r2, ip, ror #18
     9f4:	74000069 	strvc	r0, [r0], #-105	; 0x69
     9f8:	72656d69 	rsbvc	r6, r5, #6720	; 0x1a40
     9fc:	0100632e 	tsteq	r0, lr, lsr #6
     a00:	70720000 	rsbsvc	r0, r2, r0
     a04:	00682e69 	rsbeq	r2, r8, r9, ror #28
     a08:	00000002 	andeq	r0, r0, r2
     a0c:	5c020500 	cfstr32pl	mvfx0, [r2], {-0}
     a10:	1600008d 	strne	r0, [r0], -sp, lsl #1
     a14:	002d2f13 	eoreq	r2, sp, r3, lsl pc
     a18:	06010402 	streq	r0, [r1], -r2, lsl #8
     a1c:	3168062e 	cmncc	r8, lr, lsr #12
     a20:	324d4b2f 	subcc	r4, sp, #48128	; 0xbc00
     a24:	4c4b3031 	mcrrmi	0, 3, r3, fp, cr1
     a28:	2f2f6a2f 	svccs	0x002f6a2f
     a2c:	08022f84 	stmdaeq	r2, {r2, r7, r8, r9, sl, fp, sp}
     a30:	7f010100 	svcvc	0x00010100
     a34:	02000001 	andeq	r0, r0, #1
     a38:	0000ca00 	andeq	ip, r0, r0, lsl #20
     a3c:	fb010200 	blx	41246 <__bss_end__+0x36eb6>
     a40:	01000d0e 	tsteq	r0, lr, lsl #26
     a44:	00010101 	andeq	r0, r1, r1, lsl #2
     a48:	00010000 	andeq	r0, r1, r0
     a4c:	796d0100 	stmdbvc	sp!, {r8}^
     a50:	6372732d 	cmnvs	r2, #-1275068416	; 0xb4000000
     a54:	73552f00 	cmpvc	r5, #0, 30
     a58:	2f737265 	svccs	0x00737265
     a5c:	61697262 	cmnvs	r9, r2, ror #4
     a60:	6e756a6e 	vsubvs.f32	s13, s10, s29
     a64:	7365442f 	cmnvc	r5, #788529152	; 0x2f000000
     a68:	706f746b 	rsbvc	r7, pc, fp, ror #8
     a6c:	6863732f 	stmdavs	r3!, {r0, r1, r2, r3, r5, r8, r9, ip, sp, lr}^
     a70:	2f6c6f6f 	svccs	0x006c6f6f
     a74:	746e6957 	strbtvc	r6, [lr], #-2391	; 0x957
     a78:	39317265 	ldmdbcc	r1!, {r0, r2, r5, r6, r9, ip, sp, lr}
     a7c:	432f3032 	teqmi	pc, #50	; 0x32
     a80:	30343153 	eorscc	r3, r4, r3, asr r1
     a84:	73632f45 	cmnvc	r3, #276	; 0x114
     a88:	65303431 	ldrvs	r3, [r0, #-1073]!	; 0x431
     a8c:	7730322d 	ldrvc	r3, [r0, -sp, lsr #4]!
     a90:	6c2f6e69 	stcvs	14, cr6, [pc], #-420	; 8f4 <_start-0x770c>
     a94:	69706269 	ldmdbvs	r0!, {r0, r3, r5, r6, r9, sp, lr}^
     a98:	3173632f 	cmncc	r3, pc, lsr #6
     a9c:	2d653034 	stclcs	0, cr3, [r5, #-208]!	; 0xffffff30
     aa0:	00637273 	rsbeq	r7, r3, r3, ror r2
     aa4:	6573552f 	ldrbvs	r5, [r3, #-1327]!	; 0x52f
     aa8:	622f7372 	eorvs	r7, pc, #-939524095	; 0xc8000001
     aac:	6e616972 	mcrvs	9, 3, r6, cr1, cr2, {3}
     ab0:	2f6e756a 	svccs	0x006e756a
     ab4:	6b736544 	blvs	1cd9fcc <__bss_end__+0x1ccfc3c>
     ab8:	2f706f74 	svccs	0x00706f74
     abc:	6f686373 	svcvs	0x00686373
     ac0:	572f6c6f 	strpl	r6, [pc, -pc, ror #24]!
     ac4:	65746e69 	ldrbvs	r6, [r4, #-3689]!	; 0xe69
     ac8:	32393172 	eorscc	r3, r9, #-2147483620	; 0x8000001c
     acc:	53432f30 	movtpl	r2, #16176	; 0x3f30
     ad0:	45303431 	ldrmi	r3, [r0, #-1073]!	; 0x431
     ad4:	3173632f 	cmncc	r3, pc, lsr #6
     ad8:	2d653034 	stclcs	0, cr3, [r5, #-208]!	; 0xffffff30
     adc:	69773032 	ldmdbvs	r7!, {r1, r4, r5, ip, sp}^
     ae0:	696c2f6e 	stmdbvs	ip!, {r1, r2, r3, r5, r6, r8, r9, sl, fp, sp}^
     ae4:	00697062 	rsbeq	r7, r9, r2, rrx
     ae8:	69706700 	ldmdbvs	r0!, {r8, r9, sl, sp, lr}^
     aec:	00632e6f 	rsbeq	r2, r3, pc, ror #28
     af0:	67000001 	strvs	r0, [r0, -r1]
     af4:	2e6f6970 	mcrcs	9, 3, r6, cr15, cr0, {3}
     af8:	00020068 	andeq	r0, r2, r8, rrx
     afc:	69707200 	ldmdbvs	r0!, {r9, ip, sp, lr}^
     b00:	0300682e 	movweq	r6, #2094	; 0x82e
     b04:	00000000 	andeq	r0, r0, r0
     b08:	8de40205 	sfmhi	f0, 2, [r4, #20]!
     b0c:	3e030000 	cdpcc	0, 0, cr0, cr3, cr0, {0}
     b10:	69504e01 	ldmdbvs	r0, {r0, r9, sl, fp, lr}^
     b14:	67672108 	strbvs	r2, [r7, -r8, lsl #2]!
     b18:	67676767 	strbvs	r6, [r7, -r7, ror #14]!
     b1c:	22084b32 	andcs	r4, r8, #51200	; 0xc800
     b20:	135131dc 	cmpne	r1, #220, 2	; 0x37
     b24:	be30504e 	cdplt	0, 3, cr5, cr0, cr14, {2}
     b28:	4d135031 	ldcmi	0, cr5, [r3, #-196]	; 0xffffff3c
     b2c:	4cc0304f 	stclmi	0, cr3, [r0], {79}	; 0x4f
     b30:	21086950 	tstcs	r8, r0, asr r9
     b34:	67676767 	strbvs	r6, [r7, -r7, ror #14]!
     b38:	4b326767 	blmi	c9a8dc <__bss_end__+0xc9054c>
     b3c:	4ca42108 	stfmis	f2, [r4], #32
     b40:	69842f50 	stmibvs	r4, {r4, r6, r8, r9, sl, fp, sp}
     b44:	03827503 	orreq	r7, r2, #12582912	; 0xc00000
     b48:	304d2e0c 	subcc	r2, sp, ip, lsl #28
     b4c:	4d4c4b4e 	vstrmi	d20, [ip, #-312]	; 0xfffffec8
     b50:	08696b6a 	stmdaeq	r9!, {r1, r3, r5, r6, r8, r9, fp, sp, lr}^
     b54:	67676721 	strbvs	r6, [r7, -r1, lsr #14]!
     b58:	32676767 	rsbcc	r6, r7, #27000832	; 0x19c0000
     b5c:	c022084b 	eorgt	r0, r2, fp, asr #16
     b60:	4e135130 	mrcmi	1, 0, r5, cr3, cr0, {1}
     b64:	18033050 	stmdane	r3, {r4, r6, ip, sp}
     b68:	4c9f31ba 	ldfmis	f3, [pc], {186}	; 0xba
     b6c:	4e4d522f 	cdpmi	2, 4, cr5, cr13, cr15, {1}
     b70:	4b674b2f 	blmi	19d3834 <__bss_end__+0x19c94a4>
     b74:	4c676768 	stclmi	7, cr6, [r7], #-416	; 0xfffffe60
     b78:	4b2f672f 	blmi	bda83c <__bss_end__+0xbd04ac>
     b7c:	2f4e4c6e 	svccs	0x004e4c6e
     b80:	684b674b 	stmdavs	fp, {r0, r1, r3, r6, r8, r9, sl, sp, lr}^
     b84:	2f4c6767 	svccs	0x004c6767
     b88:	6d4b2f67 	stclvs	15, cr2, [fp, #-412]	; 0xfffffe64
     b8c:	4b2f4e4b 	blmi	bd44c0 <__bss_end__+0xbca130>
     b90:	04020067 	streq	r0, [r2], #-103	; 0x67
     b94:	06660601 	strbteq	r0, [r6], -r1, lsl #12
     b98:	002f9f68 	eoreq	r9, pc, r8, ror #30
     b9c:	06010402 	streq	r0, [r1], -r2, lsl #8
     ba0:	2f68064a 	svccs	0x0068064a
     ba4:	034a7303 	movteq	r7, #41731	; 0xa303
     ba8:	4c4d2e0e 	mcrrmi	14, 0, r2, sp, cr14
     bac:	bc4b2f4e 	mcrrlt	15, 4, r2, fp, cr14
     bb0:	000602bc 			; <UNDEFINED> instruction: 0x000602bc
     bb4:	03490101 	movteq	r0, #37121	; 0x9101
     bb8:	00020000 	andeq	r0, r2, r0
     bbc:	000001bd 			; <UNDEFINED> instruction: 0x000001bd
     bc0:	0efb0102 	cdpeq	1, 15, cr0, cr11, cr2, {0}
     bc4:	0101000d 	tsteq	r1, sp
     bc8:	00000101 	andeq	r0, r0, r1, lsl #2
     bcc:	00000100 	andeq	r0, r0, r0, lsl #2
     bd0:	2d796d01 	ldclcs	13, cr6, [r9, #-4]!
     bd4:	00637273 	rsbeq	r7, r3, r3, ror r2
     bd8:	6573552f 	ldrbvs	r5, [r3, #-1327]!	; 0x52f
     bdc:	622f7372 	eorvs	r7, pc, #-939524095	; 0xc8000001
     be0:	6e616972 	mcrvs	9, 3, r6, cr1, cr2, {3}
     be4:	2f6e756a 	svccs	0x006e756a
     be8:	6b736544 	blvs	1cda100 <__bss_end__+0x1ccfd70>
     bec:	2f706f74 	svccs	0x00706f74
     bf0:	6f686373 	svcvs	0x00686373
     bf4:	572f6c6f 	strpl	r6, [pc, -pc, ror #24]!
     bf8:	65746e69 	ldrbvs	r6, [r4, #-3689]!	; 0xe69
     bfc:	32393172 	eorscc	r3, r9, #-2147483620	; 0x8000001c
     c00:	53432f30 	movtpl	r2, #16176	; 0x3f30
     c04:	45303431 	ldrmi	r3, [r0, #-1073]!	; 0x431
     c08:	3173632f 	cmncc	r3, pc, lsr #6
     c0c:	2d653034 	stclcs	0, cr3, [r5, #-208]!	; 0xffffff30
     c10:	69773032 	ldmdbvs	r7!, {r1, r4, r5, ip, sp}^
     c14:	696c2f6e 	stmdbvs	ip!, {r1, r2, r3, r5, r6, r8, r9, sl, fp, sp}^
     c18:	2f697062 	svccs	0x00697062
     c1c:	34317363 	ldrtcc	r7, [r1], #-867	; 0x363
     c20:	732d6530 	teqvc	sp, #48, 10	; 0xc000000
     c24:	2f006372 	svccs	0x00006372
     c28:	2f727375 	svccs	0x00727375
     c2c:	61636f6c 	cmnvs	r3, ip, ror #30
     c30:	65432f6c 	strbvs	r2, [r3, #-3948]	; 0xf6c
     c34:	72616c6c 	rsbvc	r6, r1, #108, 24	; 0x6c00
     c38:	6d72612f 	ldfvse	f6, [r2, #-188]!	; 0xffffff44
     c3c:	6e6f6e2d 	cdpvs	14, 6, cr6, cr15, cr13, {1}
     c40:	61652d65 	cmnvs	r5, r5, ror #26
     c44:	342f6962 	strtcc	r6, [pc], #-2402	; c4c <_start-0x73b4>
     c48:	332e382e 	teqcc	lr, #3014656	; 0x2e0000
     c4c:	3173632d 	cmncc	r3, sp, lsr #6
     c50:	2f653037 	svccs	0x00653037
     c54:	2f62696c 	svccs	0x0062696c
     c58:	2f636367 	svccs	0x00636367
     c5c:	2d6d7261 	sfmcs	f7, 2, [sp, #-388]!	; 0xfffffe7c
     c60:	656e6f6e 	strbvs	r6, [lr, #-3950]!	; 0xf6e
     c64:	6261652d 	rsbvs	r6, r1, #188743680	; 0xb400000
     c68:	2e342f69 	cdpcs	15, 3, cr2, cr4, cr9, {3}
     c6c:	2f332e38 	svccs	0x00332e38
     c70:	6c636e69 	stclvs	14, cr6, [r3], #-420	; 0xfffffe5c
     c74:	00656475 	rsbeq	r6, r5, r5, ror r4
     c78:	6573552f 	ldrbvs	r5, [r3, #-1327]!	; 0x52f
     c7c:	622f7372 	eorvs	r7, pc, #-939524095	; 0xc8000001
     c80:	6e616972 	mcrvs	9, 3, r6, cr1, cr2, {3}
     c84:	2f6e756a 	svccs	0x006e756a
     c88:	6b736544 	blvs	1cda1a0 <__bss_end__+0x1ccfe10>
     c8c:	2f706f74 	svccs	0x00706f74
     c90:	6f686373 	svcvs	0x00686373
     c94:	572f6c6f 	strpl	r6, [pc, -pc, ror #24]!
     c98:	65746e69 	ldrbvs	r6, [r4, #-3689]!	; 0xe69
     c9c:	32393172 	eorscc	r3, r9, #-2147483620	; 0x8000001c
     ca0:	53432f30 	movtpl	r2, #16176	; 0x3f30
     ca4:	45303431 	ldrmi	r3, [r0, #-1073]!	; 0x431
     ca8:	3173632f 	cmncc	r3, pc, lsr #6
     cac:	2d653034 	stclcs	0, cr3, [r5, #-208]!	; 0xffffff30
     cb0:	69773032 	ldmdbvs	r7!, {r1, r4, r5, ip, sp}^
     cb4:	696c2f6e 	stmdbvs	ip!, {r1, r2, r3, r5, r6, r8, r9, sl, fp, sp}^
     cb8:	00697062 	rsbeq	r7, r9, r2, rrx
     cbc:	6573552f 	ldrbvs	r5, [r3, #-1327]!	; 0x52f
     cc0:	622f7372 	eorvs	r7, pc, #-939524095	; 0xc8000001
     cc4:	6e616972 	mcrvs	9, 3, r6, cr1, cr2, {3}
     cc8:	2f6e756a 	svccs	0x006e756a
     ccc:	6b736544 	blvs	1cda1e4 <__bss_end__+0x1ccfe54>
     cd0:	2f706f74 	svccs	0x00706f74
     cd4:	6f686373 	svcvs	0x00686373
     cd8:	572f6c6f 	strpl	r6, [pc, -pc, ror #24]!
     cdc:	65746e69 	ldrbvs	r6, [r4, #-3689]!	; 0xe69
     ce0:	32393172 	eorscc	r3, r9, #-2147483620	; 0x8000001c
     ce4:	53432f30 	movtpl	r2, #16176	; 0x3f30
     ce8:	45303431 	ldrmi	r3, [r0, #-1073]!	; 0x431
     cec:	3173632f 	cmncc	r3, pc, lsr #6
     cf0:	2d653034 	stclcs	0, cr3, [r5, #-208]!	; 0xffffff30
     cf4:	69773032 	ldmdbvs	r7!, {r1, r4, r5, ip, sp}^
     cf8:	696c2f6e 	stmdbvs	ip!, {r1, r2, r3, r5, r6, r8, r9, sl, fp, sp}^
     cfc:	2f697062 	svccs	0x00697062
     d00:	6362696c 	cmnvs	r2, #108, 18	; 0x1b0000
     d04:	77730000 	ldrbvc	r0, [r3, -r0]!
     d08:	7261752d 	rsbvc	r7, r1, #188743680	; 0xb400000
     d0c:	00632e74 	rsbeq	r2, r3, r4, ror lr
     d10:	63000001 	movwvs	r0, #1
     d14:	656c6379 	strbvs	r6, [ip, #-889]!	; 0x379
     d18:	6974752d 	ldmdbvs	r4!, {r0, r2, r3, r5, r8, sl, ip, sp, lr}^
     d1c:	00682e6c 	rsbeq	r2, r8, ip, ror #28
     d20:	73000002 	movwvc	r0, #2
     d24:	6e696474 	mcrvs	4, 3, r6, cr9, cr4, {3}
     d28:	63672d74 	cmnvs	r7, #116, 26	; 0x1d00
     d2c:	00682e63 	rsbeq	r2, r8, r3, ror #28
     d30:	73000003 	movwvc	r0, #3
     d34:	61752d77 	cmnvs	r5, r7, ror sp
     d38:	682e7472 	stmdavs	lr!, {r1, r4, r5, r6, sl, ip, sp, lr}
     d3c:	00000200 	andeq	r0, r0, r0, lsl #4
     d40:	61647473 	smcvs	18243	; 0x4743
     d44:	682e6772 	stmdavs	lr!, {r1, r4, r5, r6, r8, r9, sl, sp, lr}
     d48:	00000300 	andeq	r0, r0, r0, lsl #6
     d4c:	6f697067 	svcvs	0x00697067
     d50:	0200682e 	andeq	r6, r0, #3014656	; 0x2e0000
     d54:	70720000 	rsbsvc	r0, r2, r0
     d58:	00682e69 	rsbeq	r2, r8, r9, ror #28
     d5c:	76000004 	strvc	r0, [r0], -r4
     d60:	72702d61 	rsbsvc	r2, r0, #6208	; 0x1840
     d64:	6b746e69 	blvs	1d1c710 <__bss_end__+0x1d12380>
     d68:	0500682e 	streq	r6, [r0, #-2094]	; 0x82e
     d6c:	623c0000 	eorsvs	r0, ip, #0
     d70:	746c6975 	strbtvc	r6, [ip], #-2421	; 0x975
     d74:	3e6e692d 	cdpcc	9, 6, cr6, cr14, cr13, {1}
     d78:	00000000 	andeq	r0, r0, r0
     d7c:	02050000 	andeq	r0, r5, #0
     d80:	00009384 	andeq	r9, r0, r4, lsl #7
     d84:	302f4c1a 	eorcc	r4, pc, sl, lsl ip	; <UNPREDICTABLE>
     d88:	0b030204 	bleq	c15a0 <__bss_end__+0xb7210>
     d8c:	6673032e 	ldrbtvs	r0, [r3], -lr, lsr #6
     d90:	04880104 	streq	r0, [r8], #260	; 0x104
     d94:	73033502 	movwvc	r3, #13570	; 0x3502
     d98:	8a010466 	bhi	41f38 <__bss_end__+0x37ba8>
     d9c:	03330204 	teqeq	r3, #4, 4	; 0x40000000
     da0:	01046673 	tsteq	r4, r3, ror r6
     da4:	04820a03 	streq	r0, [r2], #2563	; 0xa03
     da8:	73033102 	movwvc	r3, #12546	; 0x3102
     dac:	03010466 	movweq	r0, #5222	; 0x1466
     db0:	0204820c 	andeq	r8, r4, #12, 4	; 0xc0000000
     db4:	6673032f 	ldrbtvs	r0, [r3], -pc, lsr #6
     db8:	0e030104 	adfeqs	f0, f3, f4
     dbc:	2d020482 	cfstrscs	mvf0, [r2, #-520]	; 0xfffffdf8
     dc0:	04667303 	strbteq	r7, [r6], #-771	; 0x303
     dc4:	82100301 	andshi	r0, r0, #67108864	; 0x4000000
     dc8:	032b0204 	teqeq	fp, #4, 4	; 0x40000000
     dcc:	01046673 	tsteq	r4, r3, ror r6
     dd0:	04821203 	streq	r1, [r2], #515	; 0x203
     dd4:	73032902 	movwvc	r2, #14594	; 0x3902
     dd8:	03010466 	movweq	r0, #5222	; 0x1466
     ddc:	02048214 	andeq	r8, r4, #20, 4	; 0x40000001
     de0:	032e7903 	teqeq	lr, #49152	; 0xc000
     de4:	01046673 	tsteq	r4, r3, ror r6
     de8:	04821603 	streq	r1, [r2], #1539	; 0x603
     dec:	2e770302 	cdpcs	3, 7, cr0, cr7, cr2, {0}
     df0:	04667303 	strbteq	r7, [r6], #-771	; 0x303
     df4:	82180301 	andshi	r0, r8, #67108864	; 0x4000000
     df8:	4b2e1003 	blmi	b84e0c <__bss_end__+0xb7aa7c>
     dfc:	2e70034d 	cdpcs	3, 7, cr0, cr0, cr13, {2}
     e00:	4883844c 	stmmi	r3, {r2, r3, r6, sl, pc}
     e04:	4e2e0d03 	cdpmi	13, 2, cr0, cr14, cr3, {0}
     e08:	02043331 	andeq	r3, r4, #-1006632960	; 0xc4000000
     e0c:	042e4803 	strteq	r4, [lr], #-2051	; 0x803
     e10:	823a0301 	eorshi	r0, sl, #67108864	; 0x4000000
     e14:	0302042f 	movweq	r0, #9263	; 0x242f
     e18:	01046645 	tsteq	r4, r5, asr #12
     e1c:	2f823d03 	svccs	0x00823d03
     e20:	42030204 	andmi	r0, r3, #4, 4	; 0x40000000
     e24:	03010482 	movweq	r0, #5250	; 0x1482
     e28:	2f8200c0 	svccs	0x008200c0
     e2c:	bf030204 	svclt	0x00030204
     e30:	0104827f 	tsteq	r4, pc, ror r2
     e34:	8200c303 	andhi	ip, r0, #201326592	; 0xc000000
     e38:	0302042f 	movweq	r0, #9263	; 0x242f
     e3c:	04827fbc 	streq	r7, [r2], #4028	; 0xfbc
     e40:	00c60301 	sbceq	r0, r6, r1, lsl #6
     e44:	02042f82 	andeq	r2, r4, #520	; 0x208
     e48:	827fb903 	rsbshi	fp, pc, #49152	; 0xc000
     e4c:	c9030104 	stmdbgt	r3, {r2, r8}
     e50:	042f8200 	strteq	r8, [pc], #-512	; e58 <_start-0x71a8>
     e54:	7fb60302 	svcvc	0x00b60302
     e58:	03010482 	movweq	r0, #5250	; 0x1482
     e5c:	2f8200cc 	svccs	0x008200cc
     e60:	b3030204 	movwlt	r0, #12804	; 0x3204
     e64:	0104827f 	tsteq	r4, pc, ror r2
     e68:	8200d003 	andhi	sp, r0, #3
     e6c:	4c824c03 	stcmi	12, cr4, [r2], {3}
     e70:	03488384 	movteq	r8, #33668	; 0x8384
     e74:	034e2e36 	movteq	r2, #60982	; 0xee36
     e78:	29034a54 	stmdbcs	r3, {r2, r4, r6, r9, fp, lr}
     e7c:	bb34324a 	bllt	d0d7ac <__bss_end__+0xd0341c>
     e80:	01040200 	mrseq	r0, R12_usr
     e84:	08064a06 	stmdaeq	r6, {r1, r2, r9, fp, lr}
     e88:	bb4b4e21 	bllt	12d4714 <__bss_end__+0x12ca384>
     e8c:	0402002c 	streq	r0, [r2], #-44	; 0x2c
     e90:	062e0601 	strteq	r0, [lr], -r1, lsl #12
     e94:	a0dc4c6d 	sbcsge	r4, ip, sp, ror #24
     e98:	01040200 	mrseq	r0, R12_usr
     e9c:	08064a06 	stmdaeq	r6, {r1, r2, r9, fp, lr}
     ea0:	02004d21 	andeq	r4, r0, #2112	; 0x840
     ea4:	004b0204 	subeq	r0, fp, r4, lsl #4
     ea8:	81020402 	tsthi	r2, r2, lsl #8
     eac:	01040200 	mrseq	r0, R12_usr
     eb0:	4d062e06 	stcmi	14, cr2, [r6, #-24]	; 0xffffffe8
     eb4:	4bd8dd4c 	blmi	ff6383ec <__bss_end__+0xff62e05c>
     eb8:	2f6a4b4b 	svccs	0x006a4b4b
     ebc:	01040200 	mrseq	r0, R12_usr
     ec0:	00828206 	addeq	r8, r2, r6, lsl #4
     ec4:	9e040402 	cdpls	4, 0, cr0, cr4, cr2, {0}
     ec8:	01040200 	mrseq	r0, R12_usr
     ecc:	2308064a 	movwcs	r0, #34378	; 0x864a
     ed0:	4b2ff588 	blmi	bfe4f8 <__bss_end__+0xbf4168>
     ed4:	6740084b 	strbvs	r0, [r0, -fp, asr #16]
     ed8:	02040200 	andeq	r0, r4, #0, 4
     edc:	0402002f 	streq	r0, [r2], #-47	; 0x2f
     ee0:	02004902 	andeq	r4, r0, #32768	; 0x8000
     ee4:	2e060104 	adfcss	f0, f6, f4
     ee8:	86346806 	ldrthi	r6, [r4], -r6, lsl #16
     eec:	0200a04b 	andeq	sl, r0, #75	; 0x4b
     ef0:	66060104 	strvs	r0, [r6], -r4, lsl #2
     ef4:	68210806 	stmdavs	r1!, {r1, r2, fp}
     ef8:	674b3e08 	strbvs	r3, [fp, -r8, lsl #28]
     efc:	0a02d84b 	beq	b7030 <__bss_end__+0xacca0>
     f00:	01010100 	mrseq	r0, (UNDEF: 17)
     f04:	02000001 	andeq	r0, r0, #1
     f08:	0000ca00 	andeq	ip, r0, r0, lsl #20
     f0c:	fb010200 	blx	41716 <__bss_end__+0x37386>
     f10:	01000d0e 	tsteq	r0, lr, lsl #26
     f14:	00010101 	andeq	r0, r1, r1, lsl #2
     f18:	00010000 	andeq	r0, r1, r0
     f1c:	796d0100 	stmdbvc	sp!, {r8}^
     f20:	6372732d 	cmnvs	r2, #-1275068416	; 0xb4000000
     f24:	73552f00 	cmpvc	r5, #0, 30
     f28:	2f737265 	svccs	0x00737265
     f2c:	61697262 	cmnvs	r9, r2, ror #4
     f30:	6e756a6e 	vsubvs.f32	s13, s10, s29
     f34:	7365442f 	cmnvc	r5, #788529152	; 0x2f000000
     f38:	706f746b 	rsbvc	r7, pc, fp, ror #8
     f3c:	6863732f 	stmdavs	r3!, {r0, r1, r2, r3, r5, r8, r9, ip, sp, lr}^
     f40:	2f6c6f6f 	svccs	0x006c6f6f
     f44:	746e6957 	strbtvc	r6, [lr], #-2391	; 0x957
     f48:	39317265 	ldmdbcc	r1!, {r0, r2, r5, r6, r9, ip, sp, lr}
     f4c:	432f3032 	teqmi	pc, #50	; 0x32
     f50:	30343153 	eorscc	r3, r4, r3, asr r1
     f54:	73632f45 	cmnvc	r3, #276	; 0x114
     f58:	65303431 	ldrvs	r3, [r0, #-1073]!	; 0x431
     f5c:	7730322d 	ldrvc	r3, [r0, -sp, lsr #4]!
     f60:	6c2f6e69 	stcvs	14, cr6, [pc], #-420	; dc4 <_start-0x723c>
     f64:	69706269 	ldmdbvs	r0!, {r0, r3, r5, r6, r9, sp, lr}^
     f68:	3173632f 	cmncc	r3, pc, lsr #6
     f6c:	2d653034 	stclcs	0, cr3, [r5, #-208]!	; 0xffffff30
     f70:	00637273 	rsbeq	r7, r3, r3, ror r2
     f74:	6573552f 	ldrbvs	r5, [r3, #-1327]!	; 0x52f
     f78:	622f7372 	eorvs	r7, pc, #-939524095	; 0xc8000001
     f7c:	6e616972 	mcrvs	9, 3, r6, cr1, cr2, {3}
     f80:	2f6e756a 	svccs	0x006e756a
     f84:	6b736544 	blvs	1cda49c <__bss_end__+0x1cd010c>
     f88:	2f706f74 	svccs	0x00706f74
     f8c:	6f686373 	svcvs	0x00686373
     f90:	572f6c6f 	strpl	r6, [pc, -pc, ror #24]!
     f94:	65746e69 	ldrbvs	r6, [r4, #-3689]!	; 0xe69
     f98:	32393172 	eorscc	r3, r9, #-2147483620	; 0x8000001c
     f9c:	53432f30 	movtpl	r2, #16176	; 0x3f30
     fa0:	45303431 	ldrmi	r3, [r0, #-1073]!	; 0x431
     fa4:	3173632f 	cmncc	r3, pc, lsr #6
     fa8:	2d653034 	stclcs	0, cr3, [r5, #-208]!	; 0xffffff30
     fac:	69773032 	ldmdbvs	r7!, {r1, r4, r5, ip, sp}^
     fb0:	696c2f6e 	stmdbvs	ip!, {r1, r2, r3, r5, r6, r8, r9, sl, fp, sp}^
     fb4:	00697062 	rsbeq	r7, r9, r2, rrx
     fb8:	72617500 	rsbvc	r7, r1, #0, 10
     fbc:	00632e74 	rsbeq	r2, r3, r4, ror lr
     fc0:	67000001 	strvs	r0, [r0, -r1]
     fc4:	2e6f6970 	mcrcs	9, 3, r6, cr15, cr0, {3}
     fc8:	00020068 	andeq	r0, r2, r8, rrx
     fcc:	69707200 	ldmdbvs	r0!, {r9, ip, sp, lr}^
     fd0:	0300682e 	movweq	r6, #2094	; 0x82e
     fd4:	00000000 	andeq	r0, r0, r0
     fd8:	99ec0205 	stmibls	ip!, {r0, r2, r9}^
     fdc:	36030000 	strcc	r0, [r3], -r0
     fe0:	67333001 	ldrvs	r3, [r3, -r1]!
     fe4:	30d8306d 	sbcscc	r3, r8, sp, rrx
     fe8:	67676767 	strbvs	r6, [r7, -r7, ror #14]!
     fec:	2f866867 	svccs	0x00866867
     ff0:	67306a67 	ldrvs	r6, [r0, -r7, ror #20]!
     ff4:	672f6967 	strvs	r6, [pc, -r7, ror #18]!
     ff8:	c1674c6a 	cmngt	r7, sl, ror #24
     ffc:	2f302f2f 	svccs	0x00302f2f
    1000:	02304968 	eorseq	r4, r0, #104, 18	; 0x1a0000
    1004:	01010002 	tsteq	r1, r2
    1008:	00000128 	andeq	r0, r0, r8, lsr #2
    100c:	010d0002 	tsteq	sp, r2
    1010:	01020000 	mrseq	r0, (UNDEF: 2)
    1014:	000d0efb 	strdeq	r0, [sp], -fp
    1018:	01010101 	tsteq	r1, r1, lsl #2
    101c:	01000000 	mrseq	r0, (UNDEF: 0)
    1020:	63010000 	movwvs	r0, #4096	; 0x1000
    1024:	30343173 	eorscc	r3, r4, r3, ror r1
    1028:	72732d65 	rsbsvc	r2, r3, #6464	; 0x1940
    102c:	752f0063 	strvc	r0, [pc, #-99]!	; fd1 <_start-0x702f>
    1030:	6c2f7273 	sfmvs	f7, 4, [pc], #-460	; e6c <_start-0x7194>
    1034:	6c61636f 	stclvs	3, cr6, [r1], #-444	; 0xfffffe44
    1038:	6c65432f 	stclvs	3, cr4, [r5], #-188	; 0xffffff44
    103c:	2f72616c 	svccs	0x0072616c
    1040:	2d6d7261 	sfmcs	f7, 2, [sp, #-388]!	; 0xfffffe7c
    1044:	656e6f6e 	strbvs	r6, [lr, #-3950]!	; 0xf6e
    1048:	6261652d 	rsbvs	r6, r1, #188743680	; 0xb400000
    104c:	2e342f69 	cdpcs	15, 3, cr2, cr4, cr9, {3}
    1050:	2d332e38 	ldccs	14, cr2, [r3, #-224]!	; 0xffffff20
    1054:	37317363 	ldrcc	r7, [r1, -r3, ror #6]!
    1058:	6c2f6530 	cfstr32vs	mvfx6, [pc], #-192	; fa0 <_start-0x7060>
    105c:	672f6269 	strvs	r6, [pc, -r9, ror #4]!
    1060:	612f6363 	teqvs	pc, r3, ror #6
    1064:	6e2d6d72 	mcrvs	13, 1, r6, cr13, cr2, {3}
    1068:	2d656e6f 	stclcs	14, cr6, [r5, #-444]!	; 0xfffffe44
    106c:	69626165 	stmdbvs	r2!, {r0, r2, r5, r6, r8, sp, lr}^
    1070:	382e342f 	stmdacc	lr!, {r0, r1, r2, r3, r5, sl, ip, sp}
    1074:	692f332e 	stmdbvs	pc!, {r1, r2, r3, r5, r8, r9, ip, sp}	; <UNPREDICTABLE>
    1078:	756c636e 	strbvc	r6, [ip, #-878]!	; 0x36e
    107c:	2f006564 	svccs	0x00006564
    1080:	2f727375 	svccs	0x00727375
    1084:	61636f6c 	cmnvs	r3, ip, ror #30
    1088:	65432f6c 	strbvs	r2, [r3, #-3948]	; 0xf6c
    108c:	72616c6c 	rsbvc	r6, r1, #108, 24	; 0x6c00
    1090:	6d72612f 	ldfvse	f6, [r2, #-188]!	; 0xffffff44
    1094:	6e6f6e2d 	cdpvs	14, 6, cr6, cr15, cr13, {1}
    1098:	61652d65 	cmnvs	r5, r5, ror #26
    109c:	342f6962 	strtcc	r6, [pc], #-2402	; 10a4 <_start-0x6f5c>
    10a0:	332e382e 	teqcc	lr, #3014656	; 0x2e0000
    10a4:	3173632d 	cmncc	r3, sp, lsr #6
    10a8:	2f653037 	svccs	0x00653037
    10ac:	2d6d7261 	sfmcs	f7, 2, [sp, #-388]!	; 0xfffffe7c
    10b0:	656e6f6e 	strbvs	r6, [lr, #-3950]!	; 0xf6e
    10b4:	6261652d 	rsbvs	r6, r1, #188743680	; 0xb400000
    10b8:	6e692f69 	cdpvs	15, 6, cr2, cr9, cr9, {3}
    10bc:	64756c63 	ldrbtvs	r6, [r5], #-3171	; 0xc63
    10c0:	63000065 	movwvs	r0, #101	; 0x65
    10c4:	72746e6f 	rsbsvc	r6, r4, #1776	; 0x6f0
    10c8:	622d6c6f 	eorvs	r6, sp, #28416	; 0x6f00
    10cc:	6b636f6c 	blvs	18dce84 <__bss_end__+0x18d2af4>
    10d0:	0100632e 	tsteq	r0, lr, lsr #6
    10d4:	74730000 	ldrbtvc	r0, [r3], #-0
    10d8:	66656464 	strbtvs	r6, [r5], -r4, ror #8
    10dc:	0200682e 	andeq	r6, r0, #3014656	; 0x2e0000
    10e0:	74730000 	ldrbtvc	r0, [r3], #-0
    10e4:	746e6964 	strbtvc	r6, [lr], #-2404	; 0x964
    10e8:	6363672d 	cmnvs	r3, #11796480	; 0xb40000
    10ec:	0200682e 	andeq	r6, r0, #3014656	; 0x2e0000
    10f0:	77730000 	ldrbvc	r0, [r3, -r0]!
    10f4:	7261752d 	rsbvc	r7, r1, #188743680	; 0xb400000
    10f8:	00682e74 	rsbeq	r2, r8, r4, ror lr
    10fc:	63000001 	movwvs	r0, #1
    1100:	72746e6f 	rsbsvc	r6, r4, #1776	; 0x6f0
    1104:	622d6c6f 	eorvs	r6, sp, #28416	; 0x6f00
    1108:	6b636f6c 	blvs	18dcec0 <__bss_end__+0x18d2b30>
    110c:	0100682e 	tsteq	r0, lr, lsr #16
    1110:	74730000 	ldrbtvc	r0, [r3], #-0
    1114:	676e6972 			; <UNDEFINED> instruction: 0x676e6972
    1118:	0300682e 	movweq	r6, #2094	; 0x82e
    111c:	00000000 	andeq	r0, r0, r0
    1120:	9ba40205 	blls	fe90193c <__bss_end__+0xfe8f75ac>
    1124:	30160000 	andscc	r0, r6, r0
    1128:	144c6883 	strbne	r6, [ip], #-2179	; 0x883
    112c:	022f4b9f 	eoreq	r4, pc, #162816	; 0x27c00
    1130:	01010004 	tsteq	r1, r4
    1134:	000000ec 	andeq	r0, r0, ip, ror #1
    1138:	00d00002 	sbcseq	r0, r0, r2
    113c:	01020000 	mrseq	r0, (UNDEF: 2)
    1140:	000d0efb 	strdeq	r0, [sp], -fp
    1144:	01010101 	tsteq	r1, r1, lsl #2
    1148:	01000000 	mrseq	r0, (UNDEF: 0)
    114c:	6c010000 	stcvs	0, cr0, [r1], {-0}
    1150:	00636269 	rsbeq	r6, r3, r9, ror #4
    1154:	7273752f 	rsbsvc	r7, r3, #197132288	; 0xbc00000
    1158:	636f6c2f 	cmnvs	pc, #12032	; 0x2f00
    115c:	432f6c61 	teqmi	pc, #24832	; 0x6100
    1160:	616c6c65 	cmnvs	ip, r5, ror #24
    1164:	72612f72 	rsbvc	r2, r1, #456	; 0x1c8
    1168:	6f6e2d6d 	svcvs	0x006e2d6d
    116c:	652d656e 	strvs	r6, [sp, #-1390]!	; 0x56e
    1170:	2f696261 	svccs	0x00696261
    1174:	2e382e34 	mrccs	14, 1, r2, cr8, cr4, {1}
    1178:	73632d33 	cmnvc	r3, #3264	; 0xcc0
    117c:	65303731 	ldrvs	r3, [r0, #-1841]!	; 0x731
    1180:	62696c2f 	rsbvs	r6, r9, #12032	; 0x2f00
    1184:	6363672f 	cmnvs	r3, #12320768	; 0xbc0000
    1188:	6d72612f 	ldfvse	f6, [r2, #-188]!	; 0xffffff44
    118c:	6e6f6e2d 	cdpvs	14, 6, cr6, cr15, cr13, {1}
    1190:	61652d65 	cmnvs	r5, r5, ror #26
    1194:	342f6962 	strtcc	r6, [pc], #-2402	; 119c <_start-0x6e64>
    1198:	332e382e 	teqcc	lr, #3014656	; 0x2e0000
    119c:	636e692f 	cmnvs	lr, #770048	; 0xbc000
    11a0:	6564756c 	strbvs	r7, [r4, #-1388]!	; 0x56c
    11a4:	73752f00 	cmnvc	r5, #0, 30
    11a8:	6f6c2f72 	svcvs	0x006c2f72
    11ac:	2f6c6163 	svccs	0x006c6163
    11b0:	6c6c6543 	cfstr64vs	mvdx6, [ip], #-268	; 0xfffffef4
    11b4:	612f7261 	teqvs	pc, r1, ror #4
    11b8:	6e2d6d72 	mcrvs	13, 1, r6, cr13, cr2, {3}
    11bc:	2d656e6f 	stclcs	14, cr6, [r5, #-444]!	; 0xfffffe44
    11c0:	69626165 	stmdbvs	r2!, {r0, r2, r5, r6, r8, sp, lr}^
    11c4:	382e342f 	stmdacc	lr!, {r0, r1, r2, r3, r5, sl, ip, sp}
    11c8:	632d332e 	teqvs	sp, #-1207959552	; 0xb8000000
    11cc:	30373173 	eorscc	r3, r7, r3, ror r1
    11d0:	72612f65 	rsbvc	r2, r1, #404	; 0x194
    11d4:	6f6e2d6d 	svcvs	0x006e2d6d
    11d8:	652d656e 	strvs	r6, [sp, #-1390]!	; 0x56e
    11dc:	2f696261 	svccs	0x00696261
    11e0:	6c636e69 	stclvs	14, cr6, [r3], #-420	; 0xfffffe5c
    11e4:	00656475 	rsbeq	r6, r5, r5, ror r4
    11e8:	6d656d00 	stclvs	13, cr6, [r5, #-0]
    11ec:	2e746573 	mrccs	5, 3, r6, cr4, cr3, {3}
    11f0:	00010063 	andeq	r0, r1, r3, rrx
    11f4:	64747300 	ldrbtvs	r7, [r4], #-768	; 0x300
    11f8:	2e666564 	cdpcs	5, 6, cr6, cr6, cr4, {3}
    11fc:	00020068 	andeq	r0, r2, r8, rrx
    1200:	72747300 	rsbsvc	r7, r4, #0, 6
    1204:	2e676e69 	cdpcs	14, 6, cr6, cr7, cr9, {3}
    1208:	00030068 	andeq	r0, r3, r8, rrx
    120c:	05000000 	streq	r0, [r0, #-0]
    1210:	009bf402 	addseq	pc, fp, r2, lsl #8
    1214:	4c131400 	cfldrsmi	mvf1, [r3], {-0}
    1218:	0402002f 	streq	r0, [r2], #-47	; 0x2f
    121c:	024d4901 	subeq	r4, sp, #16384	; 0x4000
    1220:	01010002 	tsteq	r1, r2

Disassembly of section .debug_str:

00000000 <.debug_str>:
   0:	53465047 	movtpl	r5, #24647	; 0x6047
   4:	00324c45 	eorseq	r4, r2, r5, asr #24
   8:	53465047 	movtpl	r5, #24647	; 0x6047
   c:	00344c45 	eorseq	r4, r4, r5, asr #24
  10:	30746962 	rsbscc	r6, r4, r2, ror #18
  14:	74696200 	strbtvc	r6, [r9], #-512	; 0x200
  18:	69620031 	stmdbvs	r2!, {r0, r4, r5}^
  1c:	62003274 	andvs	r3, r0, #116, 4	; 0x40000007
  20:	00337469 	eorseq	r7, r3, r9, ror #8
  24:	74736166 	ldrbtvc	r6, [r3], #-358	; 0x166
  28:	6970675f 	ldmdbvs	r0!, {r0, r1, r2, r3, r4, r6, r8, r9, sl, sp, lr}^
  2c:	72775f6f 	rsbsvc	r5, r7, #444	; 0x1bc
  30:	00657469 	rsbeq	r7, r5, r9, ror #8
  34:	35746962 	ldrbcc	r6, [r4, #-2402]!	; 0x962
  38:	74696200 	strbtvc	r6, [r9], #-512	; 0x200
  3c:	69620036 	stmdbvs	r2!, {r1, r2, r4, r5}^
  40:	6c003774 	stcvs	7, cr3, [r0], {116}	; 0x74
  44:	20676e6f 	rsbcs	r6, r7, pc, ror #28
  48:	676e6f6c 	strbvs	r6, [lr, -ip, ror #30]!
  4c:	736e7520 	cmnvc	lr, #32, 10	; 0x8000000
  50:	656e6769 	strbvs	r6, [lr, #-1897]!	; 0x769
  54:	6e692064 	cdpvs	0, 6, cr2, cr9, cr4, {3}
  58:	61660074 	smcvs	24580	; 0x6004
  5c:	675f7473 			; <UNDEFINED> instruction: 0x675f7473
  60:	5f6f6970 	svcpl	0x006f6970
  64:	5f746573 	svcpl	0x00746573
  68:	73006e6f 	movwvc	r6, #3695	; 0xe6f
  6c:	65767265 	ldrbvs	r7, [r6, #-613]!	; 0x265
  70:	69620072 	stmdbvs	r2!, {r1, r4, r5, r6}^
  74:	6c003474 	cfstrsvs	mvf3, [r0], {116}	; 0x74
  78:	20676e6f 	rsbcs	r6, r7, pc, ror #28
  7c:	676e6f6c 	strbvs	r6, [lr, -ip, ror #30]!
  80:	746e6920 	strbtvc	r6, [lr], #-2336	; 0x920
  84:	79636e00 	stmdbvc	r3!, {r9, sl, fp, sp, lr}^
  88:	00656c63 	rsbeq	r6, r5, r3, ror #24
  8c:	45535047 	ldrbmi	r5, [r3, #-71]	; 0x47
  90:	47003054 	smlsdmi	r0, r4, r0, r3
  94:	54455350 	strbpl	r5, [r5], #-848	; 0x350
  98:	50470031 	subpl	r0, r7, r1, lsr r0
  9c:	3056454c 	subscc	r4, r6, ip, asr #10
  a0:	4c504700 	mrrcmi	7, 0, r4, r0, cr0
  a4:	00315645 	eorseq	r5, r1, r5, asr #12
  a8:	74736574 	ldrbtvc	r6, [r3], #-1396	; 0x574
  ac:	6e65675f 	mcrvs	7, 3, r6, cr5, cr15, {2}
  b0:	746f6e00 	strbtvc	r6, [pc], #-3584	; b8 <_start-0x7f48>
  b4:	6e69616d 	powvsez	f6, f1, #5.0
  b8:	73616600 	cmnvc	r1, #0, 12
  bc:	70675f74 	rsbvc	r5, r7, r4, ror pc
  c0:	735f6f69 	cmpvc	pc, #420	; 0x1a4
  c4:	6f5f7465 	svcvs	0x005f7465
  c8:	47006666 	strmi	r6, [r0, -r6, ror #12]
  cc:	4320554e 	teqmi	r0, #327155712	; 0x13800000
  d0:	382e3420 	stmdacc	lr!, {r5, sl, ip, sp}
  d4:	2d20332e 	stccs	3, cr3, [r0, #-184]!	; 0xffffff48
  d8:	7570636d 	ldrbvc	r6, [r0, #-877]!	; 0x36d
  dc:	6d72613d 	ldfvse	f6, [r2, #-244]!	; 0xffffff0c
  e0:	36373131 			; <UNDEFINED> instruction: 0x36373131
  e4:	2d667a6a 	vstmdbcs	r6!, {s15-s120}
  e8:	6d2d2073 	stcvs	0, cr2, [sp, #-460]!	; 0xfffffe34
  ec:	656e7574 	strbvs	r7, [lr, #-1396]!	; 0x574
  f0:	6d72613d 	ldfvse	f6, [r2, #-244]!	; 0xffffff0c
  f4:	36373131 			; <UNDEFINED> instruction: 0x36373131
  f8:	2d667a6a 	vstmdbcs	r6!, {s15-s120}
  fc:	672d2073 			; <UNDEFINED> instruction: 0x672d2073
 100:	20626467 	rsbcs	r6, r2, r7, ror #8
 104:	20334f2d 	eorscs	r4, r3, sp, lsr #30
 108:	6474732d 	ldrbtvs	r7, [r4], #-813	; 0x32d
 10c:	756e673d 	strbvc	r6, [lr, #-1853]!	; 0x73d
 110:	2d203939 	stccs	9, cr3, [r0, #-228]!	; 0xffffff1c
 114:	65726666 	ldrbvs	r6, [r2, #-1638]!	; 0x666
 118:	61747365 	cmnvs	r4, r5, ror #6
 11c:	6e69646e 	cdpvs	4, 6, cr6, cr9, cr14, {3}
 120:	6c630067 	stclvs	0, cr0, [r3], #-412	; 0xfffffe64
 124:	746e6569 	strbtvc	r6, [lr], #-1385	; 0x569
 128:	6d657400 	cfstrdvs	mvd7, [r5, #-0]
 12c:	70720070 	rsbsvc	r0, r2, r0, ror r0
 130:	65725f69 	ldrbvs	r5, [r2, #-3945]!	; 0xf69
 134:	5f746573 	svcpl	0x00746573
 138:	63747570 	cmnvs	r4, #112, 10	; 0x1c000000
 13c:	46504700 	ldrbmi	r4, [r0], -r0, lsl #14
 140:	304c4553 	subcc	r4, ip, r3, asr r5
 144:	46504700 	ldrbmi	r4, [r0], -r0, lsl #14
 148:	314c4553 	cmpcc	ip, r3, asr r5
 14c:	46504700 	ldrbmi	r4, [r0], -r0, lsl #14
 150:	334c4553 	movtcc	r4, #50515	; 0xc553
 154:	70786500 	rsbsvc	r6, r8, r0, lsl #10
 158:	65746365 	ldrbvs	r6, [r4, #-869]!	; 0x365
 15c:	50470064 	subpl	r0, r7, r4, rrx
 160:	4c455346 	mcrrmi	3, 4, r5, r5, cr6
 164:	75630035 	strbvc	r0, [r3, #-53]!	; 0x35
 168:	765f7272 			; <UNDEFINED> instruction: 0x765f7272
 16c:	65756c61 	ldrbvs	r6, [r5, #-3169]!	; 0xc61
 170:	465f5f00 	ldrbmi	r5, [pc], -r0, lsl #30
 174:	54434e55 	strbpl	r4, [r3], #-3669	; 0xe55
 178:	5f4e4f49 	svcpl	0x004e4f49
 17c:	6873005f 	ldmdavs	r3!, {r0, r1, r2, r3, r4, r6}^
 180:	2074726f 	rsbscs	r7, r4, pc, ror #4
 184:	69736e75 	ldmdbvs	r3!, {r0, r2, r4, r5, r6, r9, sl, fp, sp, lr}^
 188:	64656e67 	strbtvs	r6, [r5], #-3687	; 0xe67
 18c:	746e6920 	strbtvc	r6, [lr], #-2336	; 0x920
 190:	69706700 	ldmdbvs	r0!, {r8, r9, sl, sp, lr}^
 194:	73665f6f 	cmnvc	r6, #444	; 0x1bc
 198:	00306c65 	eorseq	r6, r0, r5, ror #24
 19c:	4c435047 	mcrrmi	0, 4, r5, r3, cr7
 1a0:	67003152 	smlsdvs	r0, r2, r1, r3
 1a4:	5f6f6970 	svcpl	0x006f6970
 1a8:	64616572 	strbtvs	r6, [r1], #-1394	; 0x572
 1ac:	73552f00 	cmpvc	r5, #0, 30
 1b0:	2f737265 	svccs	0x00737265
 1b4:	61697262 	cmnvs	r9, r2, ror #4
 1b8:	6e756a6e 	vsubvs.f32	s13, s10, s29
 1bc:	7365442f 	cmnvc	r5, #788529152	; 0x2f000000
 1c0:	706f746b 	rsbvc	r7, pc, fp, ror #8
 1c4:	6863732f 	stmdavs	r3!, {r0, r1, r2, r3, r5, r8, r9, ip, sp, lr}^
 1c8:	2f6c6f6f 	svccs	0x006c6f6f
 1cc:	69727053 	ldmdbvs	r2!, {r0, r1, r4, r6, ip, sp, lr}^
 1d0:	3931676e 	ldmdbcc	r1!, {r1, r2, r3, r5, r6, r8, r9, sl, sp, lr}
 1d4:	432f3032 	teqmi	pc, #50	; 0x32
 1d8:	30343253 	eorscc	r3, r4, r3, asr r2
 1dc:	632f584c 	teqvs	pc, #76, 16	; 0x4c0000
 1e0:	30343273 	eorscc	r3, r4, r3, ror r2
 1e4:	322d786c 	eorcc	r7, sp, #108, 16	; 0x6c0000
 1e8:	72707330 	rsbsvc	r7, r0, #48, 6	; 0xc0000000
 1ec:	62616c2f 	rsbvs	r6, r1, #12032	; 0x2f00
 1f0:	2d342f73 	ldccs	15, cr2, [r4, #-460]!	; 0xfffffe34
 1f4:	74726175 	ldrbtvc	r6, [r2], #-373	; 0x175
 1f8:	316e382d 	cmncc	lr, sp, lsr #16
 1fc:	7365742f 	cmnvc	r5, #788529152	; 0x2f000000
 200:	65672d74 	strbvs	r2, [r7, #-3444]!	; 0xd74
 204:	6c63006e 	stclvs	0, cr0, [r3], #-440	; 0xfffffe48
 208:	5f6e6165 	svcpl	0x006e6165
 20c:	6f626572 	svcvs	0x00626572
 210:	7200746f 	andvc	r7, r0, #1862270976	; 0x6f000000
 214:	796c7065 	stmdbvc	ip!, {r0, r2, r5, r6, ip, sp, lr}^
 218:	7a697300 	bvc	1a5ce20 <__bss_end__+0x1a52a90>
 21c:	70797465 	rsbsvc	r7, r9, r5, ror #8
 220:	6f5f0065 	svcvs	0x005f0065
 224:	75007475 	strvc	r7, [r0, #-1141]	; 0x475
 228:	6769736e 	strbvs	r7, [r9, -lr, ror #6]!
 22c:	2064656e 	rsbcs	r6, r4, lr, ror #10
 230:	72616863 	rsbvc	r6, r1, #6488064	; 0x630000
 234:	6f687300 	svcvs	0x00687300
 238:	69207472 	stmdbvs	r0!, {r1, r4, r5, r6, sl, ip, sp, lr}
 23c:	4700746e 	strmi	r7, [r0, -lr, ror #8]
 240:	524c4350 	subpl	r4, ip, #80, 6	; 0x40000001
 244:	65640030 	strbvs	r0, [r4, #-48]!	; 0x30
 248:	5f79616c 	svcpl	0x0079616c
 24c:	6300736d 	movwvs	r7, #877	; 0x36d
 250:	656c6379 	strbvs	r6, [ip, #-889]!	; 0x379
 254:	65705f73 	ldrbvs	r5, [r0, #-3955]!	; 0xf73
 258:	65735f72 	ldrbvs	r5, [r3, #-3954]!	; 0xf72
 25c:	70670063 	rsbvc	r0, r7, r3, rrx
 260:	735f6f69 	cmpvc	pc, #420	; 0x1a4
 264:	00307465 	eorseq	r7, r0, r5, ror #8
 268:	73726966 	cmnvc	r2, #1671168	; 0x198000
 26c:	75660074 	strbvc	r0, [r6, #-116]!	; 0x74
 270:	735f6573 	cmpvc	pc, #482344960	; 0x1cc00000
 274:	65706f63 	ldrbvs	r6, [r0, #-3939]!	; 0xf63
 278:	69706700 	ldmdbvs	r0!, {r8, r9, sl, sp, lr}^
 27c:	65735f6f 	ldrbvs	r5, [r3, #-3951]!	; 0xf6f
 280:	6e695f74 	mcrvs	15, 3, r5, cr9, cr4, {3}
 284:	00747570 	rsbseq	r7, r4, r0, ror r5
 288:	7473616c 	ldrbtvc	r6, [r3], #-364	; 0x16c
 28c:	69706700 	ldmdbvs	r0!, {r8, r9, sl, sp, lr}^
 290:	65735f6f 	ldrbvs	r5, [r3, #-3951]!	; 0xf6f
 294:	756f5f74 	strbvc	r5, [pc, #-3956]!	; fffff328 <__bss_end__+0xffff4f98>
 298:	74757074 	ldrbtvc	r7, [r5], #-116	; 0x74
 29c:	616e6500 	cmnvs	lr, r0, lsl #10
 2a0:	5f656c62 	svcpl	0x00656c62
 2a4:	68636163 	stmdavs	r3!, {r0, r1, r5, r6, r8, sp, lr}^
 2a8:	69750065 	ldmdbvs	r5!, {r0, r2, r5, r6}^
 2ac:	5f38746e 	svcpl	0x0038746e
 2b0:	75660074 	strbvc	r0, [r6, #-116]!	; 0x74
 2b4:	6e6f6973 	mcrvs	9, 3, r6, cr15, cr3, {3}
 2b8:	73657400 	cmnvc	r5, #0, 8
 2bc:	65672d74 	strbvs	r2, [r7, #-3444]!	; 0xd74
 2c0:	00632e6e 	rsbeq	r2, r3, lr, ror #28
 2c4:	6f697067 	svcvs	0x00697067
 2c8:	726c635f 	rsbvc	r6, ip, #2080374785	; 0x7c000001
 2cc:	5f5f0030 	svcpl	0x005f0030
 2d0:	63756e67 	cmnvs	r5, #1648	; 0x670
 2d4:	5f61765f 	svcpl	0x0061765f
 2d8:	7473696c 	ldrbtvc	r6, [r3], #-2412	; 0x96c
 2dc:	62696c00 	rsbvs	r6, r9, #0, 24
 2e0:	72702f63 	rsbsvc	r2, r0, #396	; 0x18c
 2e4:	6b746e69 	blvs	1d1bc90 <__bss_end__+0x1d11900>
 2e8:	4700632e 	strmi	r6, [r0, -lr, lsr #6]
 2ec:	4320554e 	teqmi	r0, #327155712	; 0x13800000
 2f0:	382e3420 	stmdacc	lr!, {r5, sl, ip, sp}
 2f4:	2d20332e 	stccs	3, cr3, [r0, #-184]!	; 0xffffff48
 2f8:	7570636d 	ldrbvc	r6, [r0, #-877]!	; 0x36d
 2fc:	6d72613d 	ldfvse	f6, [r2, #-244]!	; 0xffffff0c
 300:	36373131 			; <UNDEFINED> instruction: 0x36373131
 304:	2d667a6a 	vstmdbcs	r6!, {s15-s120}
 308:	6d2d2073 	stcvs	0, cr2, [sp, #-460]!	; 0xfffffe34
 30c:	656e7574 	strbvs	r7, [lr, #-1396]!	; 0x574
 310:	6d72613d 	ldfvse	f6, [r2, #-244]!	; 0xffffff0c
 314:	36373131 			; <UNDEFINED> instruction: 0x36373131
 318:	2d667a6a 	vstmdbcs	r6!, {s15-s120}
 31c:	672d2073 			; <UNDEFINED> instruction: 0x672d2073
 320:	20626467 	rsbcs	r6, r2, r7, ror #8
 324:	20674f2d 	rsbcs	r4, r7, sp, lsr #30
 328:	6474732d 	ldrbtvs	r7, [r4], #-813	; 0x32d
 32c:	756e673d 	strbvc	r6, [lr, #-1853]!	; 0x73d
 330:	2d203939 	stccs	9, cr3, [r0, #-228]!	; 0xffffff1c
 334:	65726666 	ldrbvs	r6, [r2, #-1638]!	; 0x666
 338:	61747365 	cmnvs	r4, r5, ror #6
 33c:	6e69646e 	cdpvs	4, 6, cr6, cr9, cr14, {3}
 340:	61760067 	cmnvs	r6, r7, rrx
 344:	6972705f 	ldmdbvs	r2!, {r0, r1, r2, r3, r4, r6, ip, sp, lr}^
 348:	006b746e 	rsbeq	r7, fp, lr, ror #8
 34c:	61765f5f 	cmnvs	r6, pc, asr pc
 350:	73696c5f 	cmnvc	r9, #24320	; 0x5f00
 354:	552f0074 	strpl	r0, [pc, #-116]!	; 2e8 <_start-0x7d18>
 358:	73726573 	cmnvc	r2, #482344960	; 0x1cc00000
 35c:	6972622f 	ldmdbvs	r2!, {r0, r1, r2, r3, r5, r9, sp, lr}^
 360:	756a6e61 	strbvc	r6, [sl, #-3681]!	; 0xe61
 364:	65442f6e 	strbvs	r2, [r4, #-3950]	; 0xf6e
 368:	6f746b73 	svcvs	0x00746b73
 36c:	63732f70 	cmnvs	r3, #112, 30	; 0x1c0
 370:	6c6f6f68 	stclvs	15, cr6, [pc], #-416	; 1d8 <_start-0x7e28>
 374:	6e69572f 	cdpvs	7, 6, cr5, cr9, cr15, {1}
 378:	31726574 	cmncc	r2, r4, ror r5
 37c:	2f303239 	svccs	0x00303239
 380:	34315343 	ldrtcc	r5, [r1], #-835	; 0x343
 384:	632f4530 	teqvs	pc, #48, 10	; 0xc000000
 388:	30343173 	eorscc	r3, r4, r3, ror r1
 38c:	30322d65 	eorscc	r2, r2, r5, ror #26
 390:	2f6e6977 	svccs	0x006e6977
 394:	7062696c 	rsbvc	r6, r2, ip, ror #18
 398:	72610069 	rsbvc	r0, r1, #105	; 0x69
 39c:	5f007367 	svcpl	0x00007367
 3a0:	0070615f 	rsbseq	r6, r0, pc, asr r1
 3a4:	65746e69 	ldrbvs	r6, [r4, #-3689]!	; 0xe69
 3a8:	6c616e72 	stclvs	14, cr6, [r1], #-456	; 0xfffffe38
 3ac:	7475705f 	ldrbtvc	r7, [r5], #-95	; 0x5f
 3b0:	72616863 	rsbvc	r6, r1, #6488064	; 0x630000
 3b4:	69707200 	ldmdbvs	r0!, {r9, ip, sp, lr}^
 3b8:	7475705f 	ldrbtvc	r7, [r5], #-95	; 0x5f
 3bc:	72616863 	rsbvc	r6, r1, #6488064	; 0x630000
 3c0:	62696c00 	rsbvs	r6, r9, #0, 24
 3c4:	75702f63 	ldrbvc	r2, [r0, #-3939]!	; 0xf63
 3c8:	61686374 	smcvs	34356	; 0x8634
 3cc:	00632e72 	rsbeq	r2, r3, r2, ror lr
 3d0:	5f697072 	svcpl	0x00697072
 3d4:	5f746573 	svcpl	0x00746573
 3d8:	63747570 	cmnvs	r4, #112, 10	; 0x1c000000
 3dc:	62696c00 	rsbvs	r6, r9, #0, 24
 3e0:	75702f63 	ldrbvc	r2, [r0, #-3939]!	; 0xf63
 3e4:	632e6b74 	teqvs	lr, #116, 22	; 0x1d000
 3e8:	746e6900 	strbtvc	r6, [lr], #-2304	; 0x900
 3ec:	616e7265 	cmnvs	lr, r5, ror #4
 3f0:	75705f6c 	ldrbvc	r5, [r0, #-3948]!	; 0xf6c
 3f4:	6e006b74 	vmovvs.16	d0[1], r6
 3f8:	705f6765 	subsvc	r6, pc, r5, ror #14
 3fc:	76657200 	strbtvc	r7, [r5], -r0, lsl #4
 400:	65737265 	ldrbvs	r7, [r3, #-613]!	; 0x265
 404:	64736900 	ldrbtvs	r6, [r3], #-2304	; 0x900
 408:	74696769 	strbtvc	r6, [r9], #-1897	; 0x769
 40c:	74757000 	ldrbtvc	r7, [r5], #-0
 410:	70665f73 	rsbvc	r5, r6, r3, ror pc
 414:	73616200 	cmnvc	r1, #0, 4
 418:	69730065 	ldmdbvs	r3!, {r0, r2, r5, r6}^
 41c:	64656e67 	strbtvs	r6, [r5], #-3687	; 0xe67
 420:	6c00705f 	stcvs	0, cr7, [r0], {95}	; 0x5f
 424:	2f636269 	svccs	0x00636269
 428:	702d6176 	eorvc	r6, sp, r6, ror r1
 42c:	746e6972 	strbtvc	r6, [lr], #-2418	; 0x972
 430:	00632e6b 	rsbeq	r2, r3, fp, ror #28
 434:	5f697072 	svcpl	0x00697072
 438:	5f746573 	svcpl	0x00746573
 43c:	7074756f 	rsbsvc	r7, r4, pc, ror #10
 440:	77007475 	smlsdxvc	r0, r5, r4, r7
 444:	68746469 	ldmdavs	r4!, {r0, r3, r5, r6, sl, sp, lr}^
 448:	74757000 	ldrbtvc	r7, [r5], #-0
 44c:	70665f63 	rsbvc	r5, r6, r3, ror #30
 450:	696d6500 	stmdbvs	sp!, {r8, sl, sp, lr}^
 454:	69640074 	stmdbvs	r4!, {r2, r4, r5, r6}^
 458:	6c626173 	stfvse	f6, [r2], #-460	; 0xfffffe34
 45c:	61635f65 	cmnvs	r3, r5, ror #30
 460:	00656863 	rsbeq	r6, r5, r3, ror #16
 464:	34317363 	ldrtcc	r7, [r1], #-867	; 0x363
 468:	732d6530 	teqvc	sp, #48, 10	; 0xc000000
 46c:	632f6372 	teqvs	pc, #-939524095	; 0xc8000001
 470:	65686361 	strbvs	r6, [r8, #-865]!	; 0x361
 474:	7200632e 	andvc	r6, r0, #-1207959552	; 0xb8000000
 478:	725f6970 	subsvc	r6, pc, #112, 18	; 0x1c0000
 47c:	6f6f6265 	svcvs	0x006f6265
 480:	73630074 	cmnvc	r3, #116	; 0x74
 484:	65303431 	ldrvs	r3, [r0, #-1073]!	; 0x431
 488:	6372732d 	cmnvs	r2, #-1275068416	; 0xb4000000
 48c:	656c632f 	strbvs	r6, [ip, #-815]!	; 0x32f
 490:	722d6e61 	eorvc	r6, sp, #1552	; 0x610
 494:	6f6f6265 	svcvs	0x006f6265
 498:	00632e74 	rsbeq	r2, r3, r4, ror lr
 49c:	65746e69 	ldrbvs	r6, [r4, #-3689]!	; 0xe69
 4a0:	6c616e72 	stclvs	14, cr6, [r1], #-456	; 0xfffffe38
 4a4:	5f77735f 	svcpl	0x0077735f
 4a8:	63747570 	cmnvs	r4, #112, 10	; 0x1c000000
 4ac:	00726168 	rsbseq	r6, r2, r8, ror #2
 4b0:	73625f5f 	cmnvc	r2, #380	; 0x17c
 4b4:	74735f73 	ldrbtvc	r5, [r3], #-3955	; 0xf73
 4b8:	5f747261 	svcpl	0x00747261
 4bc:	7362005f 	cmnvc	r2, #95	; 0x5f
 4c0:	6e655f73 	mcrvs	15, 3, r5, cr5, cr3, {3}
 4c4:	79630064 	stmdbvc	r3!, {r2, r5, r6}^
 4c8:	5f656c63 	svcpl	0x00656c63
 4cc:	5f726570 	svcpl	0x00726570
 4d0:	00746962 	rsbseq	r6, r4, r2, ror #18
 4d4:	736e6f63 	cmnvc	lr, #396	; 0x18c
 4d8:	5f656c6f 	svcpl	0x00656c6f
 4dc:	74726175 	ldrbtvc	r6, [r2], #-373	; 0x175
 4e0:	5f777300 	svcpl	0x00777300
 4e4:	74726175 	ldrbtvc	r6, [r2], #-373	; 0x175
 4e8:	6972705f 	ldmdbvs	r2!, {r0, r1, r2, r3, r4, r6, ip, sp, lr}^
 4ec:	006b746e 	rsbeq	r7, fp, lr, ror #8
 4f0:	43545550 	cmpmi	r4, #80, 10	; 0x14000000
 4f4:	5053455f 	subspl	r4, r3, pc, asr r5
 4f8:	5241555f 	subpl	r5, r1, #398458880	; 0x17c00000
 4fc:	77730054 			; <UNDEFINED> instruction: 0x77730054
 500:	7261755f 	rsbvc	r7, r1, #398458880	; 0x17c00000
 504:	00745f74 	rsbseq	r5, r4, r4, ror pc
 508:	43545550 	cmpmi	r4, #80, 10	; 0x14000000
 50c:	5f57535f 	svcpl	0x0057535f
 510:	54524155 	ldrbpl	r4, [r2], #-341	; 0x155
 514:	75616200 	strbvc	r6, [r1, #-512]!	; 0x200
 518:	55500064 	ldrbpl	r0, [r0, #-100]	; 0x64
 51c:	485f4354 	ldmdami	pc, {r2, r4, r6, r8, r9, lr}^	; <UNPREDICTABLE>
 520:	41555f57 	cmpmi	r5, r7, asr pc
 524:	5f005452 	svcpl	0x00005452
 528:	61747363 	cmnvs	r4, r3, ror #6
 52c:	75007472 	strvc	r7, [r0, #-1138]	; 0x472
 530:	5f747261 	svcpl	0x00747261
 534:	5f766564 	svcpl	0x00766564
 538:	77730074 			; <UNDEFINED> instruction: 0x77730074
 53c:	7261755f 	rsbvc	r7, r1, #398458880	; 0x17c00000
 540:	75705f74 	ldrbvc	r5, [r0, #-3956]!	; 0xf74
 544:	63006374 	movwvs	r6, #884	; 0x374
 548:	72746e6f 	rsbsvc	r6, r4, #1776	; 0x6f0
 54c:	625f6c6f 	subsvs	r6, pc, #28416	; 0x6f00
 550:	745f6b6c 	ldrbvc	r6, [pc], #-2924	; 558 <_start-0x7aa8>
 554:	5f777300 	svcpl	0x00777300
 558:	74726175 	ldrbtvc	r6, [r2], #-373	; 0x175
 55c:	5f626300 	svcpl	0x00626300
 560:	5f746567 	svcpl	0x00746567
 564:	636f6c62 	cmnvs	pc, #25088	; 0x6200
 568:	5f5f006b 	svcpl	0x005f006b
 56c:	5f737362 	svcpl	0x00737362
 570:	5f646e65 	svcpl	0x00646e65
 574:	7363005f 	cmnvc	r3, #95	; 0x5f
 578:	65303431 	ldrvs	r3, [r0, #-1073]!	; 0x431
 57c:	6372732d 	cmnvs	r2, #-1275068416	; 0xb4000000
 580:	7473632f 	ldrbtvc	r6, [r3], #-815	; 0x32f
 584:	2e747261 	cdpcs	2, 7, cr7, cr4, cr1, {3}
 588:	6f630063 	svcvs	0x00630063
 58c:	6c6f736e 	stclvs	3, cr7, [pc], #-440	; 3dc <_start-0x7c24>
 590:	65645f65 	strbvs	r5, [r4, #-3941]!	; 0xf65
 594:	69750076 	ldmdbvs	r5!, {r1, r2, r4, r5, r6}^
 598:	3233746e 	eorscc	r7, r3, #1845493760	; 0x6e000000
 59c:	6d00745f 	cfstrsvs	mvf7, [r0, #-380]	; 0xfffffe84
 5a0:	63696761 	cmnvs	r9, #25427968	; 0x1840000
 5a4:	5f746100 	svcpl	0x00746100
 5a8:	72657375 	rsbvc	r7, r5, #-738197503	; 0xd4000001
 5ac:	76656c5f 			; <UNDEFINED> instruction: 0x76656c5f
 5b0:	50006c65 	andpl	r6, r0, r5, ror #24
 5b4:	41505f4d 	cmpmi	r0, sp, asr #30
 5b8:	4f575353 	svcmi	0x00575353
 5bc:	63004452 	movwvs	r4, #1106	; 0x452
 5c0:	30343173 	eorscc	r3, r4, r3, ror r1
 5c4:	72732d65 	rsbsvc	r2, r3, #6464	; 0x1940
 5c8:	65722f63 	ldrbvs	r2, [r2, #-3939]!	; 0xf63
 5cc:	746f6f62 	strbtvc	r6, [pc], #-3938	; 5d4 <_start-0x7a2c>
 5d0:	5000632e 	andpl	r6, r0, lr, lsr #6
 5d4:	53525f4d 	cmppl	r2, #308	; 0x134
 5d8:	575f4354 			; <UNDEFINED> instruction: 0x575f4354
 5dc:	47464352 	smlsldmi	r4, r6, r2, r3
 5e0:	4c55465f 	mrrcmi	6, 5, r4, r5, cr15
 5e4:	45525f4c 	ldrbmi	r5, [r2, #-3916]	; 0xf4c
 5e8:	00544553 	subseq	r4, r4, r3, asr r5
 5ec:	575f4d50 			; <UNDEFINED> instruction: 0x575f4d50
 5f0:	00474f44 	subeq	r4, r7, r4, asr #30
 5f4:	5f746573 	svcpl	0x00746573
 5f8:	72657375 	rsbvc	r7, r5, #-738197503	; 0xd4000001
 5fc:	76656c5f 			; <UNDEFINED> instruction: 0x76656c5f
 600:	50006c65 	andpl	r6, r0, r5, ror #24
 604:	32335455 	eorscc	r5, r3, #1426063360	; 0x55000000
 608:	5f4d5000 	svcpl	0x004d5000
 60c:	43545352 	cmpmi	r4, #1207959553	; 0x48000001
 610:	73706300 	cmnvc	r0, #0, 6
 614:	69740072 	ldmdbvs	r4!, {r1, r4, r5, r6}^
 618:	5f72656d 	svcpl	0x0072656d
 61c:	5f746567 	svcpl	0x00746567
 620:	63657375 	cmnvs	r5, #-738197503	; 0xd4000001
 624:	7761725f 			; <UNDEFINED> instruction: 0x7761725f
 628:	6c656400 	cfstrdvs	mvd6, [r5], #-0
 62c:	735f7961 	cmpvc	pc, #1589248	; 0x184000
 630:	63006365 	movwvs	r6, #869	; 0x365
 634:	30343173 	eorscc	r3, r4, r3, ror r1
 638:	72732d65 	rsbsvc	r2, r3, #6464	; 0x1940
 63c:	69742f63 	ldmdbvs	r4!, {r0, r1, r5, r6, r8, r9, sl, fp, sp}^
 640:	2e72656d 	cdpcs	5, 7, cr6, cr2, cr13, {3}
 644:	45470063 	strbmi	r0, [r7, #-99]	; 0x63
 648:	00323354 	eorseq	r3, r2, r4, asr r3
 64c:	6b636974 	blvs	18dac24 <__bss_end__+0x18d0894>
 650:	65640073 	strbvs	r0, [r4, #-115]!	; 0x73
 654:	5f79616c 	svcpl	0x0079616c
 658:	6c637963 	stclvs	9, cr7, [r3], #-396	; 0xfffffe74
 65c:	64007365 	strvs	r7, [r0], #-869	; 0x365
 660:	79616c65 	stmdbvc	r1!, {r0, r2, r5, r6, sl, fp, sp, lr}^
 664:	0073755f 	rsbseq	r7, r3, pc, asr r5
 668:	656d6974 	strbvs	r6, [sp, #-2420]!	; 0x974
 66c:	65675f72 	strbvs	r5, [r7, #-3954]!	; 0xf72
 670:	73755f74 	cmnvc	r5, #116, 30	; 0x1d0
 674:	67006365 	strvs	r6, [r0, -r5, ror #6]
 678:	5f6f6970 	svcpl	0x006f6970
 67c:	6e657665 	cdpvs	6, 6, cr7, cr5, cr5, {3}
 680:	65645f74 	strbvs	r5, [r4, #-3956]!	; 0xf74
 684:	74636574 	strbtvc	r6, [r3], #-1396	; 0x574
 688:	70006465 	andvc	r6, r0, r5, ror #8
 68c:	32337475 	eorscc	r7, r3, #1962934272	; 0x75000000
 690:	414e4500 	cmpmi	lr, r0, lsl #10
 694:	5f454c42 	svcpl	0x00454c42
 698:	53515249 	cmppl	r1, #-1879048188	; 0x90000004
 69c:	6900325f 	stmdbvs	r0, {r0, r1, r2, r3, r4, r6, r9, ip, sp}
 6a0:	70675f73 	rsbvc	r5, r7, r3, ror pc
 6a4:	695f6f69 	ldmdbvs	pc, {r0, r3, r5, r6, r8, r9, sl, fp, sp, lr}^	; <UNPREDICTABLE>
 6a8:	4700746e 	strmi	r7, [r0, -lr, ror #8]
 6ac:	5f4f4950 	svcpl	0x004f4950
 6b0:	434e5546 	movtmi	r5, #58694	; 0xe546
 6b4:	504e495f 	subpl	r4, lr, pc, asr r9
 6b8:	6d005455 	cfstrsvs	mvf5, [r0, #-340]	; 0xfffffeac
 6bc:	72732d79 	rsbsvc	r2, r3, #7744	; 0x1e40
 6c0:	70672f63 	rsbvc	r2, r7, r3, ror #30
 6c4:	632e6f69 	teqvs	lr, #420	; 0x1a4
 6c8:	746e6900 	strbtvc	r6, [lr], #-2304	; 0x900
 6cc:	73616d5f 	cmnvc	r1, #6080	; 0x17c0
 6d0:	6572006b 	ldrbvs	r0, [r2, #-107]!	; 0x6b
 6d4:	74735f67 	ldrbtvc	r5, [r3], #-3943	; 0xf67
 6d8:	67007461 	strvs	r7, [r0, -r1, ror #8]
 6dc:	5f6f6970 	svcpl	0x006f6970
 6e0:	00676572 	rsbeq	r6, r7, r2, ror r5
 6e4:	5f766564 	svcpl	0x00766564
 6e8:	72726162 	rsbsvc	r6, r2, #-2147483624	; 0x80000018
 6ec:	00726569 	rsbseq	r6, r2, r9, ror #10
 6f0:	6f697067 	svcvs	0x00697067
 6f4:	746e695f 	strbtvc	r6, [lr], #-2399	; 0x95f
 6f8:	7369725f 	cmnvc	r9, #-268435451	; 0xf0000005
 6fc:	5f676e69 	svcpl	0x00676e69
 700:	65676465 	strbvs	r6, [r7, #-1125]!	; 0x465
 704:	69706700 	ldmdbvs	r0!, {r8, r9, sl, sp, lr}^
 708:	65735f6f 	ldrbvs	r5, [r3, #-3951]!	; 0xf6f
 70c:	75665f74 	strbvc	r5, [r6, #-3956]!	; 0xf74
 710:	6974636e 	ldmdbvs	r4!, {r1, r2, r3, r5, r6, r8, r9, sp, lr}^
 714:	47006e6f 	strmi	r6, [r0, -pc, ror #28]
 718:	4e455250 	mcrmi	2, 2, r5, cr5, cr0, {2}
 71c:	50470030 	subpl	r0, r7, r0, lsr r0
 720:	314e4552 	cmpcc	lr, r2, asr r5
 724:	69706700 	ldmdbvs	r0!, {r8, r9, sl, sp, lr}^
 728:	76655f6f 	strbtvc	r5, [r5], -pc, ror #30
 72c:	5f746e65 	svcpl	0x00746e65
 730:	61656c63 	cmnvs	r5, r3, ror #24
 734:	52490072 	subpl	r0, r9, #114	; 0x72
 738:	45505f51 	ldrbmi	r5, [r0, #-3921]	; 0xf51
 73c:	4e49444e 	cdpmi	4, 4, cr4, cr9, cr14, {2}
 740:	00315f47 	eorseq	r5, r1, r7, asr #30
 744:	5f515249 	svcpl	0x00515249
 748:	444e4550 	strbmi	r4, [lr], #-1360	; 0x550
 74c:	5f474e49 	svcpl	0x00474e49
 750:	69620032 	stmdbvs	r2!, {r1, r4, r5}^
 754:	73616d74 	cmnvc	r1, #116, 26	; 0x1d00
 758:	7566006b 	strbvc	r0, [r6, #-107]!	; 0x6b
 75c:	6700636e 	strvs	r6, [r0, -lr, ror #6]
 760:	5f6f6970 	svcpl	0x006f6970
 764:	67676f74 			; <UNDEFINED> instruction: 0x67676f74
 768:	4700656c 	strmi	r6, [r0, -ip, ror #10]
 76c:	53444550 	movtpl	r4, #17744	; 0x4550
 770:	50470030 	subpl	r0, r7, r0, lsr r0
 774:	31534445 	cmpcc	r3, r5, asr #8
 778:	46504700 	ldrbmi	r4, [r0], -r0, lsl #14
 77c:	00304e45 	eorseq	r4, r0, r5, asr #28
 780:	45465047 	strbmi	r5, [r6, #-71]	; 0x47
 784:	4700314e 	strmi	r3, [r0, -lr, asr #2]
 788:	5f4f4950 	svcpl	0x004f4950
 78c:	434e5546 	movtmi	r5, #58694	; 0xe546
 790:	54554f5f 	ldrbpl	r4, [r5], #-3935	; 0xf5f
 794:	00545550 	subseq	r5, r4, r0, asr r5
 798:	33746567 	cmncc	r4, #432013312	; 0x19c00000
 79c:	70670032 	rsbvc	r0, r7, r2, lsr r0
 7a0:	695f6f69 	ldmdbvs	pc, {r0, r3, r5, r6, r8, r9, sl, fp, sp, lr}^	; <UNPREDICTABLE>
 7a4:	665f746e 	ldrbvs	r7, [pc], -lr, ror #8
 7a8:	696c6c61 	stmdbvs	ip!, {r0, r5, r6, sl, fp, sp, lr}^
 7ac:	655f676e 	ldrbvs	r6, [pc, #-1902]	; 46 <_start-0x7fba>
 7b0:	00656764 	rsbeq	r6, r5, r4, ror #14
 7b4:	6f697067 	svcvs	0x00697067
 7b8:	6e75665f 	mrcvs	6, 3, r6, cr5, cr15, {2}
 7bc:	00745f63 	rsbseq	r5, r4, r3, ror #30
 7c0:	4f495047 	svcmi	0x00495047
 7c4:	4e55465f 	mrcmi	6, 2, r4, cr5, cr15, {2}
 7c8:	4c415f43 	mcrrmi	15, 4, r5, r1, cr3
 7cc:	47003054 	smlsdmi	r0, r4, r0, r3
 7d0:	5f4f4950 	svcpl	0x004f4950
 7d4:	434e5546 	movtmi	r5, #58694	; 0xe546
 7d8:	544c415f 	strbpl	r4, [ip], #-351	; 0x15f
 7dc:	50470031 	subpl	r0, r7, r1, lsr r0
 7e0:	465f4f49 	ldrbmi	r4, [pc], -r9, asr #30
 7e4:	5f434e55 	svcpl	0x00434e55
 7e8:	32544c41 	subscc	r4, r4, #16640	; 0x4100
 7ec:	49504700 	ldmdbmi	r0, {r8, r9, sl, lr}^
 7f0:	55465f4f 	strbpl	r5, [r6, #-3919]	; 0xf4f
 7f4:	415f434e 	cmpmi	pc, lr, asr #6
 7f8:	0033544c 	eorseq	r5, r3, ip, asr #8
 7fc:	4f495047 	svcmi	0x00495047
 800:	4e55465f 	mrcmi	6, 2, r4, cr5, cr15, {2}
 804:	4c415f43 	mcrrmi	15, 4, r5, r1, cr3
 808:	47003454 	smlsdmi	r0, r4, r4, r3
 80c:	5f4f4950 	svcpl	0x004f4950
 810:	434e5546 	movtmi	r5, #58694	; 0xe546
 814:	544c415f 	strbpl	r4, [ip], #-351	; 0x15f
 818:	65720035 	ldrbvs	r0, [r2, #-53]!	; 0x35
 81c:	65735f67 	ldrbvs	r5, [r3, #-3943]!	; 0xf67
 820:	7463656c 	strbtvc	r6, [r3], #-1388	; 0x56c
 824:	63796300 	cmnvs	r9, #0, 6
 828:	7265705f 	rsbvc	r7, r5, #95	; 0x5f
 82c:	7469625f 	strbtvc	r6, [r9], #-607	; 0x25f
 830:	69727700 	ldmdbvs	r2!, {r8, r9, sl, ip, sp, lr}^
 834:	635f6574 	cmpvs	pc, #116, 10	; 0x1d000000
 838:	755f6379 	ldrbvc	r6, [pc, #-889]	; 4c7 <_start-0x7b39>
 83c:	6c69746e 	cfstrdvs	mvd7, [r9], #-440	; 0xfffffe48
 840:	5f777300 	svcpl	0x00777300
 844:	74726175 	ldrbtvc	r6, [r2], #-373	; 0x175
 848:	7465675f 	strbtvc	r6, [r5], #-1887	; 0x75f
 84c:	69745f63 	ldmdbvs	r4!, {r0, r1, r5, r6, r8, r9, sl, fp, ip, lr}^
 850:	756f656d 	strbvc	r6, [pc, #-1389]!	; 2eb <_start-0x7d15>
 854:	77730074 			; <UNDEFINED> instruction: 0x77730074
 858:	7261755f 	rsbvc	r7, r1, #398458880	; 0x17c00000
 85c:	65675f74 	strbvs	r5, [r7, #-3956]!	; 0xf74
 860:	755f7374 	ldrbvc	r7, [pc, #-884]	; 4f4 <_start-0x7b0c>
 864:	6c69746e 	cfstrdvs	mvd7, [r9], #-440	; 0xfffffe48
 868:	5f777300 	svcpl	0x00777300
 86c:	74726175 	ldrbtvc	r6, [r2], #-373	; 0x175
 870:	7465675f 	strbtvc	r6, [r5], #-1887	; 0x75f
 874:	65640063 	strbvs	r0, [r4, #-99]!	; 0x63
 878:	65766972 	ldrbvs	r6, [r6, #-2418]!	; 0x972
 87c:	65640064 	strbvs	r0, [r4, #-100]!	; 0x64
 880:	5f79616c 	svcpl	0x0079616c
 884:	6379636e 	cmnvs	r9, #-1207959551	; 0xb8000001
 888:	0073656c 	rsbseq	r6, r3, ip, ror #10
 88c:	755f7773 	ldrbvc	r7, [pc, #-1907]	; 121 <_start-0x7edf>
 890:	5f747261 	svcpl	0x00747261
 894:	74696e69 	strbtvc	r6, [r9], #-3689	; 0xe69
 898:	6c65685f 	stclvs	8, cr6, [r5], #-380	; 0xfffffe84
 89c:	00726570 	rsbseq	r6, r2, r0, ror r5
 8a0:	656d6974 	strbvs	r6, [sp, #-2420]!	; 0x974
 8a4:	5f74756f 	svcpl	0x0074756f
 8a8:	63657375 	cmnvs	r5, #-738197503	; 0xd4000001
 8ac:	5f777300 	svcpl	0x00777300
 8b0:	74726175 	ldrbtvc	r6, [r2], #-373	; 0x175
 8b4:	7475705f 	ldrbtvc	r7, [r5], #-95	; 0x5f
 8b8:	796d006b 	stmdbvc	sp!, {r0, r1, r3, r5, r6}^
 8bc:	6372732d 	cmnvs	r2, #-1275068416	; 0xb4000000
 8c0:	2d77732f 	ldclcs	3, cr7, [r7, #-188]!	; 0xffffff44
 8c4:	74726175 	ldrbtvc	r6, [r2], #-373	; 0x175
 8c8:	6300632e 	movwvs	r6, #814	; 0x32e
 8cc:	5f726168 	svcpl	0x00726168
 8d0:	73006e69 	movwvc	r6, #3689	; 0xe69
 8d4:	61755f77 	cmnvs	r5, r7, ror pc
 8d8:	675f7472 			; <UNDEFINED> instruction: 0x675f7472
 8dc:	5f737465 	svcpl	0x00737465
 8e0:	656d6974 	strbvs	r6, [sp, #-2420]!	; 0x974
 8e4:	0074756f 	rsbseq	r7, r4, pc, ror #10
 8e8:	7479626e 	ldrbtvc	r6, [r9], #-622	; 0x26e
 8ec:	75007365 	strvc	r7, [r0, #-869]	; 0x365
 8f0:	5f636573 	svcpl	0x00636573
 8f4:	656d6974 	strbvs	r6, [sp, #-2420]!	; 0x974
 8f8:	0074756f 	rsbseq	r7, r4, pc, ror #10
 8fc:	755f7773 	ldrbvc	r7, [pc, #-1907]	; 191 <_start-0x7e6f>
 900:	5f747261 	svcpl	0x00747261
 904:	73746567 	cmnvc	r4, #432013312	; 0x19c00000
 908:	746e755f 	strbtvc	r7, [lr], #-1375	; 0x55f
 90c:	625f6c69 	subsvs	r6, pc, #26880	; 0x6900
 910:	77006b6c 	strvc	r6, [r0, -ip, ror #22]
 914:	5f746961 	svcpl	0x00746961
 918:	69746e75 	ldmdbvs	r4!, {r0, r2, r4, r5, r6, r9, sl, fp, sp, lr}^
 91c:	73755f6c 	cmnvc	r5, #108, 30	; 0x1b0
 920:	41006365 	tstmi	r0, r5, ror #6
 924:	4d5f5855 	ldclmi	8, cr5, [pc, #-340]	; 7d8 <_start-0x7828>
 928:	434d5f55 	movtmi	r5, #57173	; 0xdf55
 92c:	45525f52 	ldrbmi	r5, [r2, #-3922]	; 0xf52
 930:	55410047 	strbpl	r0, [r1, #-71]	; 0x47
 934:	554d5f58 	strbpl	r5, [sp, #-3928]	; 0xf58
 938:	5f4f495f 	svcpl	0x004f495f
 93c:	00474552 	subeq	r4, r7, r2, asr r5
 940:	5f585541 	svcpl	0x00585541
 944:	4d5f554d 	cfldr64mi	mvdx5, [pc, #-308]	; 818 <_start-0x77e8>
 948:	525f5253 	subspl	r5, pc, #805306373	; 0x30000005
 94c:	75004745 	strvc	r4, [r0, #-1861]	; 0x745
 950:	5f747261 	svcpl	0x00747261
 954:	5f6e6163 	svcpl	0x006e6163
 958:	63746567 	cmnvs	r4, #432013312	; 0x19c00000
 95c:	58554100 	ldmdapl	r5, {r8, lr}^
 960:	5f554d5f 	svcpl	0x00554d5f
 964:	4c544e43 	mrrcmi	14, 4, r4, r4, cr3	; <UNPREDICTABLE>
 968:	4745525f 	smlsldmi	r5, r5, pc, r2	; <UNPREDICTABLE>
 96c:	72617500 	rsbvc	r7, r1, #0, 10
 970:	61685f74 	smcvs	34292	; 0x85f4
 974:	61645f73 	smcvs	17907	; 0x45f3
 978:	75006174 	strvc	r6, [r0, #-372]	; 0x174
 97c:	5f747261 	svcpl	0x00747261
 980:	74696e69 	strbtvc	r6, [r9], #-3689	; 0xe69
 984:	58554100 	ldmdapl	r5, {r8, lr}^
 988:	5f554d5f 	svcpl	0x00554d5f
 98c:	5f524549 	svcpl	0x00524549
 990:	00474552 	subeq	r4, r7, r2, asr r5
 994:	5f585541 	svcpl	0x00585541
 998:	495f554d 	ldmdbmi	pc, {r0, r2, r3, r6, r8, sl, ip, lr}^	; <UNPREDICTABLE>
 99c:	525f5249 	subspl	r5, pc, #-1879048188	; 0x90000004
 9a0:	75004745 	strvc	r4, [r0, #-1861]	; 0x745
 9a4:	5f747261 	svcpl	0x00747261
 9a8:	5f6e6163 	svcpl	0x006e6163
 9ac:	63747570 	cmnvs	r4, #112, 10	; 0x1c000000
 9b0:	58554100 	ldmdapl	r5, {r8, lr}^
 9b4:	414e455f 	cmpmi	lr, pc, asr r5
 9b8:	53454c42 	movtpl	r4, #23618	; 0x5c42
 9bc:	58554100 	ldmdapl	r5, {r8, lr}^
 9c0:	5152495f 	cmppl	r2, pc, asr r9
 9c4:	58554100 	ldmdapl	r5, {r8, lr}^
 9c8:	5f554d5f 	svcpl	0x00554d5f
 9cc:	44554142 	ldrbmi	r4, [r5], #-322	; 0x142
 9d0:	4745525f 	smlsldmi	r5, r5, pc, r2	; <UNPREDICTABLE>
 9d4:	58554100 	ldmdapl	r5, {r8, lr}^
 9d8:	5f554d5f 	svcpl	0x00554d5f
 9dc:	54415453 	strbpl	r5, [r1], #-1107	; 0x453
 9e0:	4745525f 	smlsldmi	r5, r5, pc, r2	; <UNPREDICTABLE>
 9e4:	58554100 	ldmdapl	r5, {r8, lr}^
 9e8:	5f554d5f 	svcpl	0x00554d5f
 9ec:	41524353 	cmpmi	r2, r3, asr r3
 9f0:	00484354 	subeq	r4, r8, r4, asr r3
 9f4:	732d796d 	teqvc	sp, #1785856	; 0x1b4000
 9f8:	752f6372 	strvc	r6, [pc, #-882]!	; 68e <_start-0x7972>
 9fc:	2e747261 	cdpcs	2, 7, cr7, cr4, cr1, {3}
 a00:	55410063 	strbpl	r0, [r1, #-99]	; 0x63
 a04:	554d5f58 	strbpl	r5, [sp, #-3928]	; 0xf58
 a08:	52434c5f 	subpl	r4, r3, #24320	; 0x5f00
 a0c:	4745525f 	smlsldmi	r5, r5, pc, r2	; <UNPREDICTABLE>
 a10:	58554100 	ldmdapl	r5, {r8, lr}^
 a14:	5f554d5f 	svcpl	0x00554d5f
 a18:	5f52534c 	svcpl	0x0052534c
 a1c:	00474552 	subeq	r4, r7, r2, asr r5
 a20:	74726175 	ldrbtvc	r6, [r2], #-373	; 0x175
 a24:	7465675f 	strbtvc	r6, [r5], #-1887	; 0x75f
 a28:	73615f63 	cmnvc	r1, #396	; 0x18c
 a2c:	00636e79 	rsbeq	r6, r3, r9, ror lr
 a30:	657a6973 	ldrbvs	r6, [sl, #-2419]!	; 0x973
 a34:	6d00745f 	cfstrsvs	mvf7, [r0, #-380]	; 0xfffffe84
 a38:	65736d65 	ldrbvs	r6, [r3, #-3429]!	; 0xd65
 a3c:	62630074 	rsbvs	r0, r3, #116	; 0x74
 a40:	77656e5f 			; <UNDEFINED> instruction: 0x77656e5f
 a44:	31736300 	cmncc	r3, r0, lsl #6
 a48:	2d653034 	stclcs	0, cr3, [r5, #-208]!	; 0xffffff30
 a4c:	2f637273 	svccs	0x00637273
 a50:	746e6f63 	strbtvc	r6, [lr], #-3939	; 0xf63
 a54:	2d6c6f72 	stclcs	15, cr6, [ip, #-456]!	; 0xfffffe38
 a58:	636f6c62 	cmnvs	pc, #25088	; 0x6200
 a5c:	00632e6b 	rsbeq	r2, r3, fp, ror #28
 a60:	6362696c 	cmnvs	r2, #108, 18	; 0x1b0000
 a64:	6d656d2f 	stclvs	13, cr6, [r5, #-188]!	; 0xffffff44
 a68:	2e746573 	mrccs	5, 3, r6, cr4, cr3, {3}
 a6c:	Address 0x0000000000000a6c is out of bounds.


Disassembly of section .debug_frame:

00000000 <.debug_frame>:
   0:	0000000c 	andeq	r0, r0, ip
   4:	ffffffff 			; <UNDEFINED> instruction: 0xffffffff
   8:	7c020001 	stcvc	0, cr0, [r2], {1}
   c:	000d0c0e 	andeq	r0, sp, lr, lsl #24
  10:	00000014 	andeq	r0, r0, r4, lsl r0
  14:	00000000 	andeq	r0, r0, r0
  18:	00008010 	andeq	r8, r0, r0, lsl r0
  1c:	00000050 	andeq	r0, r0, r0, asr r0
  20:	84080e44 	strhi	r0, [r8], #-3652	; 0xe44
  24:	00018e02 	andeq	r8, r1, r2, lsl #28
  28:	0000001c 	andeq	r0, r0, ip, lsl r0
  2c:	00000000 	andeq	r0, r0, r0
  30:	00008060 	andeq	r8, r0, r0, rrx
  34:	0000019c 	muleq	r0, ip, r1
  38:	84180e42 	ldrhi	r0, [r8], #-3650	; 0xe42
  3c:	86058506 	strhi	r8, [r5], -r6, lsl #10
  40:	88038704 	stmdahi	r3, {r2, r8, r9, sl, pc}
  44:	00018902 	andeq	r8, r1, r2, lsl #18
  48:	00000018 	andeq	r0, r0, r8, lsl r0
  4c:	00000000 	andeq	r0, r0, r0
  50:	000081fc 	strdeq	r8, [r0], -ip
  54:	00000040 	andeq	r0, r0, r0, asr #32
  58:	84100e42 	ldrhi	r0, [r0], #-3650	; 0xe42
  5c:	86038504 	strhi	r8, [r3], -r4, lsl #10
  60:	00018e02 	andeq	r8, r1, r2, lsl #28
  64:	00000018 	andeq	r0, r0, r8, lsl r0
  68:	00000000 	andeq	r0, r0, r0
  6c:	0000823c 	andeq	r8, r0, ip, lsr r2
  70:	0000020c 	andeq	r0, r0, ip, lsl #4
  74:	840c0e42 	strhi	r0, [ip], #-3650	; 0xe42
  78:	86028503 	strhi	r8, [r2], -r3, lsl #10
  7c:	00000001 	andeq	r0, r0, r1
  80:	0000001c 	andeq	r0, r0, ip, lsl r0
  84:	00000000 	andeq	r0, r0, r0
  88:	00008448 	andeq	r8, r0, r8, asr #8
  8c:	000001bc 			; <UNDEFINED> instruction: 0x000001bc
  90:	83180e42 	tsthi	r8, #1056	; 0x420
  94:	85058406 	strhi	r8, [r5, #-1030]	; 0x406
  98:	87038604 	strhi	r8, [r3, -r4, lsl #12]
  9c:	00018e02 	andeq	r8, r1, r2, lsl #28
  a0:	0000000c 	andeq	r0, r0, ip
  a4:	ffffffff 			; <UNDEFINED> instruction: 0xffffffff
  a8:	7c020001 	stcvc	0, cr0, [r2], {1}
  ac:	000d0c0e 	andeq	r0, sp, lr, lsl #24
  b0:	00000024 	andeq	r0, r0, r4, lsr #32
  b4:	000000a0 	andeq	r0, r0, r0, lsr #1
  b8:	00008604 	andeq	r8, r0, r4, lsl #12
  bc:	00000058 	andeq	r0, r0, r8, asr r0
  c0:	80100e42 	andshi	r0, r0, r2, asr #28
  c4:	82038104 	andhi	r8, r3, #4, 2
  c8:	42018302 	andmi	r8, r1, #134217728	; 0x8000000
  cc:	07841c0e 	streq	r1, [r4, lr, lsl #24]
  d0:	058e0685 	streq	r0, [lr, #1669]	; 0x685
  d4:	00280e42 	eoreq	r0, r8, r2, asr #28
  d8:	0000000c 	andeq	r0, r0, ip
  dc:	ffffffff 			; <UNDEFINED> instruction: 0xffffffff
  e0:	7c020001 	stcvc	0, cr0, [r2], {1}
  e4:	000d0c0e 	andeq	r0, sp, lr, lsl #24
  e8:	00000014 	andeq	r0, r0, r4, lsl r0
  ec:	000000d8 	ldrdeq	r0, [r0], -r8
  f0:	0000865c 	andeq	r8, r0, ip, asr r6
  f4:	00000014 	andeq	r0, r0, r4, lsl r0
  f8:	84080e42 	strhi	r0, [r8], #-3650	; 0xe42
  fc:	00018e02 	andeq	r8, r1, r2, lsl #28
 100:	0000000c 	andeq	r0, r0, ip
 104:	000000d8 	ldrdeq	r0, [r0], -r8
 108:	00008670 	andeq	r8, r0, r0, ror r6
 10c:	00000018 	andeq	r0, r0, r8, lsl r0
 110:	0000000c 	andeq	r0, r0, ip
 114:	000000d8 	ldrdeq	r0, [r0], -r8
 118:	00008688 	andeq	r8, r0, r8, lsl #13
 11c:	00000010 	andeq	r0, r0, r0, lsl r0
 120:	0000000c 	andeq	r0, r0, ip
 124:	ffffffff 			; <UNDEFINED> instruction: 0xffffffff
 128:	7c020001 	stcvc	0, cr0, [r2], {1}
 12c:	000d0c0e 	andeq	r0, sp, lr, lsl #24
 130:	00000018 	andeq	r0, r0, r8, lsl r0
 134:	00000120 	andeq	r0, r0, r0, lsr #2
 138:	00008698 	muleq	r0, r8, r6
 13c:	00000034 	andeq	r0, r0, r4, lsr r0
 140:	83100e42 	tsthi	r0, #1056	; 0x420
 144:	85038404 	strhi	r8, [r3, #-1028]	; 0x404
 148:	00018e02 	andeq	r8, r1, r2, lsl #28
 14c:	0000000c 	andeq	r0, r0, ip
 150:	ffffffff 			; <UNDEFINED> instruction: 0xffffffff
 154:	7c020001 	stcvc	0, cr0, [r2], {1}
 158:	000d0c0e 	andeq	r0, sp, lr, lsl #24
 15c:	0000000c 	andeq	r0, r0, ip
 160:	0000014c 	andeq	r0, r0, ip, asr #2
 164:	000086cc 	andeq	r8, r0, ip, asr #13
 168:	00000014 	andeq	r0, r0, r4, lsl r0
 16c:	0000000c 	andeq	r0, r0, ip
 170:	0000014c 	andeq	r0, r0, ip, asr #2
 174:	000086e0 	andeq	r8, r0, r0, ror #13
 178:	0000002c 	andeq	r0, r0, ip, lsr #32
 17c:	0000000c 	andeq	r0, r0, ip
 180:	0000014c 	andeq	r0, r0, ip, asr #2
 184:	0000870c 	andeq	r8, r0, ip, lsl #14
 188:	00000040 	andeq	r0, r0, r0, asr #32
 18c:	00000020 	andeq	r0, r0, r0, lsr #32
 190:	0000014c 	andeq	r0, r0, ip, asr #2
 194:	0000874c 	andeq	r8, r0, ip, asr #14
 198:	000001a8 	andeq	r0, r0, r8, lsr #3
 19c:	84180e42 	ldrhi	r0, [r8], #-3650	; 0xe42
 1a0:	86058506 	strhi	r8, [r5], -r6, lsl #10
 1a4:	88038704 	stmdahi	r3, {r2, r8, r9, sl, pc}
 1a8:	42018e02 	andmi	r8, r1, #2, 28
 1ac:	0000600e 	andeq	r6, r0, lr
 1b0:	00000014 	andeq	r0, r0, r4, lsl r0
 1b4:	0000014c 	andeq	r0, r0, ip, asr #2
 1b8:	000088f4 	strdeq	r8, [r0], -r4
 1bc:	00000068 	andeq	r0, r0, r8, rrx
 1c0:	8e040e42 	cdphi	14, 0, cr0, cr4, cr2, {2}
 1c4:	100e4201 	andne	r4, lr, r1, lsl #4
 1c8:	00000028 	andeq	r0, r0, r8, lsr #32
 1cc:	0000014c 	andeq	r0, r0, ip, asr #2
 1d0:	0000895c 	andeq	r8, r0, ip, asr r9
 1d4:	00000294 	muleq	r0, r4, r2
 1d8:	84240e42 	strthi	r0, [r4], #-3650	; 0xe42
 1dc:	86088509 	strhi	r8, [r8], -r9, lsl #10
 1e0:	88068707 	stmdahi	r6, {r0, r1, r2, r8, r9, sl, pc}
 1e4:	8a048905 	bhi	122600 <__bss_end__+0x118270>
 1e8:	8e028b03 	vmlahi.f64	d8, d2, d3
 1ec:	b00e4201 	andlt	r4, lr, r1, lsl #4
 1f0:	00000001 	andeq	r0, r0, r1
 1f4:	0000000c 	andeq	r0, r0, ip
 1f8:	ffffffff 			; <UNDEFINED> instruction: 0xffffffff
 1fc:	7c020001 	stcvc	0, cr0, [r2], {1}
 200:	000d0c0e 	andeq	r0, sp, lr, lsl #24
 204:	0000000c 	andeq	r0, r0, ip
 208:	000001f4 	strdeq	r0, [r0], -r4
 20c:	00008bf0 	strdeq	r8, [r0], -r0
 210:	00000010 	andeq	r0, r0, r0, lsl r0
 214:	0000000c 	andeq	r0, r0, ip
 218:	000001f4 	strdeq	r0, [r0], -r4
 21c:	00008c00 	andeq	r8, r0, r0, lsl #24
 220:	00000010 	andeq	r0, r0, r0, lsl r0
 224:	0000000c 	andeq	r0, r0, ip
 228:	ffffffff 			; <UNDEFINED> instruction: 0xffffffff
 22c:	7c020001 	stcvc	0, cr0, [r2], {1}
 230:	000d0c0e 	andeq	r0, sp, lr, lsl #24
 234:	00000014 	andeq	r0, r0, r4, lsl r0
 238:	00000224 	andeq	r0, r0, r4, lsr #4
 23c:	00008c10 	andeq	r8, r0, r0, lsl ip
 240:	00000028 	andeq	r0, r0, r8, lsr #32
 244:	83080e42 	movwhi	r0, #36418	; 0x8e42
 248:	00018e02 	andeq	r8, r1, r2, lsl #28
 24c:	0000000c 	andeq	r0, r0, ip
 250:	ffffffff 			; <UNDEFINED> instruction: 0xffffffff
 254:	7c020001 	stcvc	0, cr0, [r2], {1}
 258:	000d0c0e 	andeq	r0, sp, lr, lsl #24
 25c:	00000014 	andeq	r0, r0, r4, lsl r0
 260:	0000024c 	andeq	r0, r0, ip, asr #4
 264:	00008c38 	andeq	r8, r0, r8, lsr ip
 268:	00000020 	andeq	r0, r0, r0, lsr #32
 26c:	84080e42 	strhi	r0, [r8], #-3650	; 0xe42
 270:	00018e02 	andeq	r8, r1, r2, lsl #28
 274:	00000014 	andeq	r0, r0, r4, lsl r0
 278:	0000024c 	andeq	r0, r0, ip, asr #4
 27c:	00008c58 	andeq	r8, r0, r8, asr ip
 280:	00000090 	muleq	r0, r0, r0
 284:	83080e42 	movwhi	r0, #36418	; 0x8e42
 288:	00018e02 	andeq	r8, r1, r2, lsl #28
 28c:	0000000c 	andeq	r0, r0, ip
 290:	ffffffff 			; <UNDEFINED> instruction: 0xffffffff
 294:	7c020001 	stcvc	0, cr0, [r2], {1}
 298:	000d0c0e 	andeq	r0, sp, lr, lsl #24
 29c:	0000000c 	andeq	r0, r0, ip
 2a0:	0000028c 	andeq	r0, r0, ip, lsl #5
 2a4:	00008ce8 	andeq	r8, r0, r8, ror #25
 2a8:	00000018 	andeq	r0, r0, r8, lsl r0
 2ac:	0000000c 	andeq	r0, r0, ip
 2b0:	0000028c 	andeq	r0, r0, ip, lsl #5
 2b4:	00008d00 	andeq	r8, r0, r0, lsl #26
 2b8:	00000014 	andeq	r0, r0, r4, lsl r0
 2bc:	00000014 	andeq	r0, r0, r4, lsl r0
 2c0:	0000028c 	andeq	r0, r0, ip, lsl #5
 2c4:	00008d14 	andeq	r8, r0, r4, lsl sp
 2c8:	00000048 	andeq	r0, r0, r8, asr #32
 2cc:	83080e42 	movwhi	r0, #36418	; 0x8e42
 2d0:	00018e02 	andeq	r8, r1, r2, lsl #28
 2d4:	0000000c 	andeq	r0, r0, ip
 2d8:	ffffffff 			; <UNDEFINED> instruction: 0xffffffff
 2dc:	7c020001 	stcvc	0, cr0, [r2], {1}
 2e0:	000d0c0e 	andeq	r0, sp, lr, lsl #24
 2e4:	0000000c 	andeq	r0, r0, ip
 2e8:	000002d4 	ldrdeq	r0, [r0], -r4
 2ec:	00008d5c 	andeq	r8, r0, ip, asr sp
 2f0:	0000001c 	andeq	r0, r0, ip, lsl r0
 2f4:	00000014 	andeq	r0, r0, r4, lsl r0
 2f8:	000002d4 	ldrdeq	r0, [r0], -r4
 2fc:	00008d78 	andeq	r8, r0, r8, ror sp
 300:	00000014 	andeq	r0, r0, r4, lsl r0
 304:	83080e42 	movwhi	r0, #36418	; 0x8e42
 308:	00018e02 	andeq	r8, r1, r2, lsl #28
 30c:	00000014 	andeq	r0, r0, r4, lsl r0
 310:	000002d4 	ldrdeq	r0, [r0], -r4
 314:	00008d8c 	andeq	r8, r0, ip, lsl #27
 318:	0000000c 	andeq	r0, r0, ip
 31c:	83080e42 	movwhi	r0, #36418	; 0x8e42
 320:	00018e02 	andeq	r8, r1, r2, lsl #28
 324:	00000018 	andeq	r0, r0, r8, lsl r0
 328:	000002d4 	ldrdeq	r0, [r0], -r4
 32c:	00008d98 	muleq	r0, r8, sp
 330:	00000024 	andeq	r0, r0, r4, lsr #32
 334:	83100e42 	tsthi	r0, #1056	; 0x420
 338:	85038404 	strhi	r8, [r3, #-1028]	; 0x404
 33c:	00018e02 	andeq	r8, r1, r2, lsl #28
 340:	00000014 	andeq	r0, r0, r4, lsl r0
 344:	000002d4 	ldrdeq	r0, [r0], -r4
 348:	00008dbc 			; <UNDEFINED> instruction: 0x00008dbc
 34c:	00000014 	andeq	r0, r0, r4, lsl r0
 350:	83080e42 	movwhi	r0, #36418	; 0x8e42
 354:	00018e02 	andeq	r8, r1, r2, lsl #28
 358:	00000014 	andeq	r0, r0, r4, lsl r0
 35c:	000002d4 	ldrdeq	r0, [r0], -r4
 360:	00008dd0 	ldrdeq	r8, [r0], -r0
 364:	00000014 	andeq	r0, r0, r4, lsl r0
 368:	83080e42 	movwhi	r0, #36418	; 0x8e42
 36c:	00018e02 	andeq	r8, r1, r2, lsl #28
 370:	0000000c 	andeq	r0, r0, ip
 374:	ffffffff 			; <UNDEFINED> instruction: 0xffffffff
 378:	7c020001 	stcvc	0, cr0, [r2], {1}
 37c:	000d0c0e 	andeq	r0, sp, lr, lsl #24
 380:	00000018 	andeq	r0, r0, r8, lsl r0
 384:	00000370 	andeq	r0, r0, r0, ror r3
 388:	00008de4 	andeq	r8, r0, r4, ror #27
 38c:	000000d4 	ldrdeq	r0, [r0], -r4
 390:	83100e42 	tsthi	r0, #1056	; 0x420
 394:	85038404 	strhi	r8, [r3, #-1028]	; 0x404
 398:	00018e02 	andeq	r8, r1, r2, lsl #28
 39c:	00000014 	andeq	r0, r0, r4, lsl r0
 3a0:	00000370 	andeq	r0, r0, r0, ror r3
 3a4:	00008eb8 			; <UNDEFINED> instruction: 0x00008eb8
 3a8:	00000038 	andeq	r0, r0, r8, lsr r0
 3ac:	83080e42 	movwhi	r0, #36418	; 0x8e42
 3b0:	00018e02 	andeq	r8, r1, r2, lsl #28
 3b4:	00000014 	andeq	r0, r0, r4, lsl r0
 3b8:	00000370 	andeq	r0, r0, r0, ror r3
 3bc:	00008ef0 	strdeq	r8, [r0], -r0
 3c0:	00000038 	andeq	r0, r0, r8, lsr r0
 3c4:	83080e42 	movwhi	r0, #36418	; 0x8e42
 3c8:	00018e02 	andeq	r8, r1, r2, lsl #28
 3cc:	00000018 	andeq	r0, r0, r8, lsl r0
 3d0:	00000370 	andeq	r0, r0, r0, ror r3
 3d4:	00008f28 	andeq	r8, r0, r8, lsr #30
 3d8:	000000cc 	andeq	r0, r0, ip, asr #1
 3dc:	83100e42 	tsthi	r0, #1056	; 0x420
 3e0:	85038404 	strhi	r8, [r3, #-1028]	; 0x404
 3e4:	00018e02 	andeq	r8, r1, r2, lsl #28
 3e8:	00000014 	andeq	r0, r0, r4, lsl r0
 3ec:	00000370 	andeq	r0, r0, r0, ror r3
 3f0:	00008ff4 	strdeq	r8, [r0], -r4
 3f4:	0000004c 	andeq	r0, r0, ip, asr #32
 3f8:	84080e42 	strhi	r0, [r8], #-3650	; 0xe42
 3fc:	00018e02 	andeq	r8, r1, r2, lsl #28
 400:	00000014 	andeq	r0, r0, r4, lsl r0
 404:	00000370 	andeq	r0, r0, r0, ror r3
 408:	00009040 	andeq	r9, r0, r0, asr #32
 40c:	00000024 	andeq	r0, r0, r4, lsr #32
 410:	83080e42 	movwhi	r0, #36418	; 0x8e42
 414:	00018e02 	andeq	r8, r1, r2, lsl #28
 418:	00000018 	andeq	r0, r0, r8, lsl r0
 41c:	00000370 	andeq	r0, r0, r0, ror r3
 420:	00009064 	andeq	r9, r0, r4, rrx
 424:	000000d8 	ldrdeq	r0, [r0], -r8
 428:	84100e42 	ldrhi	r0, [r0], #-3650	; 0xe42
 42c:	86038504 	strhi	r8, [r3], -r4, lsl #10
 430:	00018e02 	andeq	r8, r1, r2, lsl #28
 434:	00000014 	andeq	r0, r0, r4, lsl r0
 438:	00000370 	andeq	r0, r0, r0, ror r3
 43c:	0000913c 	andeq	r9, r0, ip, lsr r1
 440:	00000038 	andeq	r0, r0, r8, lsr r0
 444:	83080e42 	movwhi	r0, #36418	; 0x8e42
 448:	00018e02 	andeq	r8, r1, r2, lsl #28
 44c:	00000014 	andeq	r0, r0, r4, lsl r0
 450:	00000370 	andeq	r0, r0, r0, ror r3
 454:	00009174 	andeq	r9, r0, r4, ror r1
 458:	0000002c 	andeq	r0, r0, ip, lsr #32
 45c:	83080e42 	movwhi	r0, #36418	; 0x8e42
 460:	00018e02 	andeq	r8, r1, r2, lsl #28
 464:	00000018 	andeq	r0, r0, r8, lsl r0
 468:	00000370 	andeq	r0, r0, r0, ror r3
 46c:	000091a0 	andeq	r9, r0, r0, lsr #3
 470:	00000084 	andeq	r0, r0, r4, lsl #1
 474:	83100e42 	tsthi	r0, #1056	; 0x420
 478:	85038404 	strhi	r8, [r3, #-1028]	; 0x404
 47c:	00018e02 	andeq	r8, r1, r2, lsl #28
 480:	00000018 	andeq	r0, r0, r8, lsl r0
 484:	00000370 	andeq	r0, r0, r0, ror r3
 488:	00009224 	andeq	r9, r0, r4, lsr #4
 48c:	00000084 	andeq	r0, r0, r4, lsl #1
 490:	83100e42 	tsthi	r0, #1056	; 0x420
 494:	85038404 	strhi	r8, [r3, #-1028]	; 0x404
 498:	00018e02 	andeq	r8, r1, r2, lsl #28
 49c:	00000014 	andeq	r0, r0, r4, lsl r0
 4a0:	00000370 	andeq	r0, r0, r0, ror r3
 4a4:	000092a8 	andeq	r9, r0, r8, lsr #5
 4a8:	00000084 	andeq	r0, r0, r4, lsl #1
 4ac:	84080e42 	strhi	r0, [r8], #-3650	; 0xe42
 4b0:	00018e02 	andeq	r8, r1, r2, lsl #28
 4b4:	00000014 	andeq	r0, r0, r4, lsl r0
 4b8:	00000370 	andeq	r0, r0, r0, ror r3
 4bc:	0000932c 	andeq	r9, r0, ip, lsr #6
 4c0:	00000058 	andeq	r0, r0, r8, asr r0
 4c4:	84080e42 	strhi	r0, [r8], #-3650	; 0xe42
 4c8:	00018e02 	andeq	r8, r1, r2, lsl #28
 4cc:	0000000c 	andeq	r0, r0, ip
 4d0:	ffffffff 			; <UNDEFINED> instruction: 0xffffffff
 4d4:	7c020001 	stcvc	0, cr0, [r2], {1}
 4d8:	000d0c0e 	andeq	r0, sp, lr, lsl #24
 4dc:	0000001c 	andeq	r0, r0, ip, lsl r0
 4e0:	000004cc 	andeq	r0, r0, ip, asr #9
 4e4:	00009384 	andeq	r9, r0, r4, lsl #7
 4e8:	00000154 	andeq	r0, r0, r4, asr r1
 4ec:	84180e42 	ldrhi	r0, [r8], #-3650	; 0xe42
 4f0:	86058506 	strhi	r8, [r5], -r6, lsl #10
 4f4:	88038704 	stmdahi	r3, {r2, r8, r9, sl, pc}
 4f8:	00018e02 	andeq	r8, r1, r2, lsl #28
 4fc:	00000020 	andeq	r0, r0, r0, lsr #32
 500:	000004cc 	andeq	r0, r0, ip, asr #9
 504:	000094d8 	ldrdeq	r9, [r0], -r8
 508:	000001c8 	andeq	r0, r0, r8, asr #3
 50c:	83200e42 	teqhi	r0, #1056	; 0x420
 510:	85078408 	strhi	r8, [r7, #-1032]	; 0x408
 514:	87058606 	strhi	r8, [r5, -r6, lsl #12]
 518:	89038804 	stmdbhi	r3, {r2, fp, pc}
 51c:	00018e02 	andeq	r8, r1, r2, lsl #28
 520:	00000024 	andeq	r0, r0, r4, lsr #32
 524:	000004cc 	andeq	r0, r0, ip, asr #9
 528:	000096a0 	andeq	r9, r0, r0, lsr #13
 52c:	000000a4 	andeq	r0, r0, r4, lsr #1
 530:	84200e42 	strthi	r0, [r0], #-3650	; 0xe42
 534:	86078508 	strhi	r8, [r7], -r8, lsl #10
 538:	88058706 	stmdahi	r5, {r1, r2, r8, r9, sl, pc}
 53c:	8a038904 	bhi	e2954 <__bss_end__+0xd85c4>
 540:	42018e02 	andmi	r8, r1, #2, 28
 544:	0000280e 	andeq	r2, r0, lr, lsl #16
 548:	00000020 	andeq	r0, r0, r0, lsr #32
 54c:	000004cc 	andeq	r0, r0, ip, asr #9
 550:	00009744 	andeq	r9, r0, r4, asr #14
 554:	00000090 	muleq	r0, r0, r0
 558:	84180e42 	ldrhi	r0, [r8], #-3650	; 0xe42
 55c:	86058506 	strhi	r8, [r5], -r6, lsl #10
 560:	88038704 	stmdahi	r3, {r2, r8, r9, sl, pc}
 564:	42018e02 	andmi	r8, r1, #2, 28
 568:	0000200e 	andeq	r2, r0, lr
 56c:	00000020 	andeq	r0, r0, r0, lsr #32
 570:	000004cc 	andeq	r0, r0, ip, asr #9
 574:	000097d4 	ldrdeq	r9, [r0], -r4
 578:	000000d4 	ldrdeq	r0, [r0], -r4
 57c:	84180e42 	ldrhi	r0, [r8], #-3650	; 0xe42
 580:	86058506 	strhi	r8, [r5], -r6, lsl #10
 584:	88038704 	stmdahi	r3, {r2, r8, r9, sl, pc}
 588:	42018e02 	andmi	r8, r1, #2, 28
 58c:	0000200e 	andeq	r2, r0, lr
 590:	00000014 	andeq	r0, r0, r4, lsl r0
 594:	000004cc 	andeq	r0, r0, ip, asr #9
 598:	000098a8 	andeq	r9, r0, r8, lsr #17
 59c:	0000003c 	andeq	r0, r0, ip, lsr r0
 5a0:	83080e42 	movwhi	r0, #36418	; 0x8e42
 5a4:	00018e02 	andeq	r8, r1, r2, lsl #28
 5a8:	00000018 	andeq	r0, r0, r8, lsl r0
 5ac:	000004cc 	andeq	r0, r0, ip, asr #9
 5b0:	000098e4 	andeq	r9, r0, r4, ror #17
 5b4:	0000002c 	andeq	r0, r0, ip, lsr #32
 5b8:	83100e42 	tsthi	r0, #1056	; 0x420
 5bc:	85038404 	strhi	r8, [r3, #-1028]	; 0x404
 5c0:	00018e02 	andeq	r8, r1, r2, lsl #28
 5c4:	00000024 	andeq	r0, r0, r4, lsr #32
 5c8:	000004cc 	andeq	r0, r0, ip, asr #9
 5cc:	00009910 	andeq	r9, r0, r0, lsl r9
 5d0:	00000090 	muleq	r0, r0, r0
 5d4:	810c0e42 	tsthi	ip, r2, asr #28
 5d8:	83028203 	movwhi	r8, #8707	; 0x2203
 5dc:	180e4201 	stmdane	lr, {r0, r9, lr}
 5e0:	05850684 	streq	r0, [r5, #1668]	; 0x684
 5e4:	0e42048e 	cdpeq	4, 4, cr0, cr2, cr14, {4}
 5e8:	000003f0 	strdeq	r0, [r0], -r0	; <UNPREDICTABLE>
 5ec:	00000014 	andeq	r0, r0, r4, lsl r0
 5f0:	000004cc 	andeq	r0, r0, ip, asr #9
 5f4:	000099a0 	andeq	r9, r0, r0, lsr #19
 5f8:	0000004c 	andeq	r0, r0, ip, asr #32
 5fc:	8e040e42 	cdphi	14, 0, cr0, cr4, cr2, {2}
 600:	100e4201 	andne	r4, lr, r1, lsl #4
 604:	0000000c 	andeq	r0, r0, ip
 608:	ffffffff 			; <UNDEFINED> instruction: 0xffffffff
 60c:	7c020001 	stcvc	0, cr0, [r2], {1}
 610:	000d0c0e 	andeq	r0, sp, lr, lsl #24
 614:	00000018 	andeq	r0, r0, r8, lsl r0
 618:	00000604 	andeq	r0, r0, r4, lsl #12
 61c:	000099ec 	andeq	r9, r0, ip, ror #19
 620:	0000009c 	muleq	r0, ip, r0
 624:	83100e42 	tsthi	r0, #1056	; 0x420
 628:	85038404 	strhi	r8, [r3, #-1028]	; 0x404
 62c:	00018e02 	andeq	r8, r1, r2, lsl #28
 630:	00000014 	andeq	r0, r0, r4, lsl r0
 634:	00000604 	andeq	r0, r0, r4, lsl #12
 638:	00009a88 	andeq	r9, r0, r8, lsl #21
 63c:	0000001c 	andeq	r0, r0, ip, lsl r0
 640:	83080e42 	movwhi	r0, #36418	; 0x8e42
 644:	00018e02 	andeq	r8, r1, r2, lsl #28
 648:	00000014 	andeq	r0, r0, r4, lsl r0
 64c:	00000604 	andeq	r0, r0, r4, lsl #12
 650:	00009aa4 	andeq	r9, r0, r4, lsr #21
 654:	00000028 	andeq	r0, r0, r8, lsr #32
 658:	83080e42 	movwhi	r0, #36418	; 0x8e42
 65c:	00018e02 	andeq	r8, r1, r2, lsl #28
 660:	00000014 	andeq	r0, r0, r4, lsl r0
 664:	00000604 	andeq	r0, r0, r4, lsl #12
 668:	00009acc 	andeq	r9, r0, ip, asr #21
 66c:	0000001c 	andeq	r0, r0, ip, lsl r0
 670:	83080e42 	movwhi	r0, #36418	; 0x8e42
 674:	00018e02 	andeq	r8, r1, r2, lsl #28
 678:	00000014 	andeq	r0, r0, r4, lsl r0
 67c:	00000604 	andeq	r0, r0, r4, lsl #12
 680:	00009ae8 	andeq	r9, r0, r8, ror #21
 684:	0000002c 	andeq	r0, r0, ip, lsr #32
 688:	84080e42 	strhi	r0, [r8], #-3650	; 0xe42
 68c:	00018e02 	andeq	r8, r1, r2, lsl #28
 690:	00000014 	andeq	r0, r0, r4, lsl r0
 694:	00000604 	andeq	r0, r0, r4, lsl #12
 698:	00009b14 	andeq	r9, r0, r4, lsl fp
 69c:	0000000c 	andeq	r0, r0, ip
 6a0:	83080e42 	movwhi	r0, #36418	; 0x8e42
 6a4:	00018e02 	andeq	r8, r1, r2, lsl #28
 6a8:	00000014 	andeq	r0, r0, r4, lsl r0
 6ac:	00000604 	andeq	r0, r0, r4, lsl #12
 6b0:	00009b20 	andeq	r9, r0, r0, lsr #22
 6b4:	00000020 	andeq	r0, r0, r0, lsr #32
 6b8:	83080e42 	movwhi	r0, #36418	; 0x8e42
 6bc:	00018e02 	andeq	r8, r1, r2, lsl #28
 6c0:	0000000c 	andeq	r0, r0, ip
 6c4:	ffffffff 			; <UNDEFINED> instruction: 0xffffffff
 6c8:	7c020001 	stcvc	0, cr0, [r2], {1}
 6cc:	000d0c0e 	andeq	r0, sp, lr, lsl #24
 6d0:	00000014 	andeq	r0, r0, r4, lsl r0
 6d4:	000006c0 	andeq	r0, r0, r0, asr #13
 6d8:	00009ba4 	andeq	r9, r0, r4, lsr #23
 6dc:	00000028 	andeq	r0, r0, r8, lsr #32
 6e0:	83080e42 	movwhi	r0, #36418	; 0x8e42
 6e4:	00018e02 	andeq	r8, r1, r2, lsl #28
 6e8:	0000000c 	andeq	r0, r0, ip
 6ec:	000006c0 	andeq	r0, r0, r0, asr #13
 6f0:	00009bcc 	andeq	r9, r0, ip, asr #23
 6f4:	00000028 	andeq	r0, r0, r8, lsr #32
 6f8:	0000000c 	andeq	r0, r0, ip
 6fc:	ffffffff 			; <UNDEFINED> instruction: 0xffffffff
 700:	7c020001 	stcvc	0, cr0, [r2], {1}
 704:	000d0c0e 	andeq	r0, sp, lr, lsl #24
 708:	0000000c 	andeq	r0, r0, ip
 70c:	000006f8 	strdeq	r0, [r0], -r8
 710:	00009bf4 	strdeq	r9, [r0], -r4
 714:	00000020 	andeq	r0, r0, r0, lsr #32
