
test-gen.elf:     file format elf32-littlearm


Disassembly of section .text:

00008000 <_start>:
    8000:	e3a0d302 	mov	sp, #134217728	; 0x8000000
    8004:	e3a0b000 	mov	fp, #0
    8008:	eb0003e3 	bl	8f9c <_cstart>
    800c:	eb000411 	bl	9058 <rpi_reboot>

00008010 <scope.constprop.3>:
    8010:	e92d03f0 	push	{r4, r5, r6, r7, r8, r9}
    8014:	e59f2190 	ldr	r2, [pc, #400]	; 81ac <scope.constprop.3+0x19c>
    8018:	e5923034 	ldr	r3, [r2, #52]	; 0x34
    801c:	e3130601 	tst	r3, #1048576	; 0x100000
    8020:	1afffffc 	bne	8018 <scope.constprop.3+0x8>
    8024:	ee1f3f3c 	mrc	15, 0, r3, cr15, cr12, {1}
    8028:	e59f1180 	ldr	r1, [pc, #384]	; 81b0 <scope.constprop.3+0x1a0>
    802c:	ee1f2f3c 	mrc	15, 0, r2, cr15, cr12, {1}
    8030:	e0632002 	rsb	r2, r3, r2
    8034:	e1520001 	cmp	r2, r1
    8038:	9afffffb 	bls	802c <scope.constprop.3+0x1c>
    803c:	e59f1170 	ldr	r1, [pc, #368]	; 81b4 <scope.constprop.3+0x1a4>
    8040:	ee1f2f3c 	mrc	15, 0, r2, cr15, cr12, {1}
    8044:	e0632002 	rsb	r2, r3, r2
    8048:	e1520001 	cmp	r2, r1
    804c:	9afffffb 	bls	8040 <scope.constprop.3+0x30>
    8050:	e59f2154 	ldr	r2, [pc, #340]	; 81ac <scope.constprop.3+0x19c>
    8054:	e59f115c 	ldr	r1, [pc, #348]	; 81b8 <scope.constprop.3+0x1a8>
    8058:	e5924034 	ldr	r4, [r2, #52]	; 0x34
    805c:	e2044601 	and	r4, r4, #1048576	; 0x100000
    8060:	e1a04a24 	lsr	r4, r4, #20
    8064:	e1a04384 	lsl	r4, r4, #7
    8068:	ee1f2f3c 	mrc	15, 0, r2, cr15, cr12, {1}
    806c:	e0632002 	rsb	r2, r3, r2
    8070:	e1520001 	cmp	r2, r1
    8074:	9afffffb 	bls	8068 <scope.constprop.3+0x58>
    8078:	e59f212c 	ldr	r2, [pc, #300]	; 81ac <scope.constprop.3+0x19c>
    807c:	e59f1138 	ldr	r1, [pc, #312]	; 81bc <scope.constprop.3+0x1ac>
    8080:	e592c034 	ldr	ip, [r2, #52]	; 0x34
    8084:	e20cc601 	and	ip, ip, #1048576	; 0x100000
    8088:	e1a0ca2c 	lsr	ip, ip, #20
    808c:	e1a0c30c 	lsl	ip, ip, #6
    8090:	ee1f2f3c 	mrc	15, 0, r2, cr15, cr12, {1}
    8094:	e0632002 	rsb	r2, r3, r2
    8098:	e1520001 	cmp	r2, r1
    809c:	9afffffb 	bls	8090 <scope.constprop.3+0x80>
    80a0:	e59f2104 	ldr	r2, [pc, #260]	; 81ac <scope.constprop.3+0x19c>
    80a4:	e59f0114 	ldr	r0, [pc, #276]	; 81c0 <scope.constprop.3+0x1b0>
    80a8:	e5921034 	ldr	r1, [r2, #52]	; 0x34
    80ac:	e2011601 	and	r1, r1, #1048576	; 0x100000
    80b0:	e1a01a21 	lsr	r1, r1, #20
    80b4:	e1a01281 	lsl	r1, r1, #5
    80b8:	ee1f2f3c 	mrc	15, 0, r2, cr15, cr12, {1}
    80bc:	e0632002 	rsb	r2, r3, r2
    80c0:	e1520000 	cmp	r2, r0
    80c4:	9afffffb 	bls	80b8 <scope.constprop.3+0xa8>
    80c8:	e59f20dc 	ldr	r2, [pc, #220]	; 81ac <scope.constprop.3+0x19c>
    80cc:	e59f00f0 	ldr	r0, [pc, #240]	; 81c4 <scope.constprop.3+0x1b4>
    80d0:	e5925034 	ldr	r5, [r2, #52]	; 0x34
    80d4:	e2055601 	and	r5, r5, #1048576	; 0x100000
    80d8:	e1a05a25 	lsr	r5, r5, #20
    80dc:	e1a05205 	lsl	r5, r5, #4
    80e0:	ee1f2f3c 	mrc	15, 0, r2, cr15, cr12, {1}
    80e4:	e0632002 	rsb	r2, r3, r2
    80e8:	e1520000 	cmp	r2, r0
    80ec:	9afffffb 	bls	80e0 <scope.constprop.3+0xd0>
    80f0:	e59f20b4 	ldr	r2, [pc, #180]	; 81ac <scope.constprop.3+0x19c>
    80f4:	e59f00cc 	ldr	r0, [pc, #204]	; 81c8 <scope.constprop.3+0x1b8>
    80f8:	e5927034 	ldr	r7, [r2, #52]	; 0x34
    80fc:	e2077601 	and	r7, r7, #1048576	; 0x100000
    8100:	e1a07a27 	lsr	r7, r7, #20
    8104:	e1a07187 	lsl	r7, r7, #3
    8108:	ee1f2f3c 	mrc	15, 0, r2, cr15, cr12, {1}
    810c:	e0632002 	rsb	r2, r3, r2
    8110:	e1520000 	cmp	r2, r0
    8114:	9afffffb 	bls	8108 <scope.constprop.3+0xf8>
    8118:	e59f208c 	ldr	r2, [pc, #140]	; 81ac <scope.constprop.3+0x19c>
    811c:	e59f00a8 	ldr	r0, [pc, #168]	; 81cc <scope.constprop.3+0x1bc>
    8120:	e5928034 	ldr	r8, [r2, #52]	; 0x34
    8124:	e2088601 	and	r8, r8, #1048576	; 0x100000
    8128:	e1a08a28 	lsr	r8, r8, #20
    812c:	e1a08108 	lsl	r8, r8, #2
    8130:	ee1f2f3c 	mrc	15, 0, r2, cr15, cr12, {1}
    8134:	e0632002 	rsb	r2, r3, r2
    8138:	e1520000 	cmp	r2, r0
    813c:	9afffffb 	bls	8130 <scope.constprop.3+0x120>
    8140:	e59f2064 	ldr	r2, [pc, #100]	; 81ac <scope.constprop.3+0x19c>
    8144:	e59f6084 	ldr	r6, [pc, #132]	; 81d0 <scope.constprop.3+0x1c0>
    8148:	e5929034 	ldr	r9, [r2, #52]	; 0x34
    814c:	e2099601 	and	r9, r9, #1048576	; 0x100000
    8150:	e1a09a29 	lsr	r9, r9, #20
    8154:	e1a09089 	lsl	r9, r9, #1
    8158:	ee1f2f3c 	mrc	15, 0, r2, cr15, cr12, {1}
    815c:	e0632002 	rsb	r2, r3, r2
    8160:	e1520006 	cmp	r2, r6
    8164:	9afffffb 	bls	8158 <scope.constprop.3+0x148>
    8168:	e59f203c 	ldr	r2, [pc, #60]	; 81ac <scope.constprop.3+0x19c>
    816c:	e184400c 	orr	r4, r4, ip
    8170:	e592c034 	ldr	ip, [r2, #52]	; 0x34
    8174:	e59f6058 	ldr	r6, [pc, #88]	; 81d4 <scope.constprop.3+0x1c4>
    8178:	e20cc601 	and	ip, ip, #1048576	; 0x100000
    817c:	e184ca2c 	orr	ip, r4, ip, lsr #20
    8180:	e18c1001 	orr	r1, ip, r1
    8184:	e1815005 	orr	r5, r1, r5
    8188:	e1857007 	orr	r7, r5, r7
    818c:	e1878008 	orr	r8, r7, r8
    8190:	e1880009 	orr	r0, r8, r9
    8194:	ee1f2f3c 	mrc	15, 0, r2, cr15, cr12, {1}
    8198:	e0632002 	rsb	r2, r3, r2
    819c:	e1520006 	cmp	r2, r6
    81a0:	9afffffb 	bls	8194 <scope.constprop.3+0x184>
    81a4:	e8bd03f0 	pop	{r4, r5, r6, r7, r8, r9}
    81a8:	e12fff1e 	bx	lr
    81ac:	20200000 	eorcs	r0, r0, r0
    81b0:	00000bdd 	ldrdeq	r0, [r0], -sp
    81b4:	00002399 	muleq	r0, r9, r3
    81b8:	00003b55 	andeq	r3, r0, r5, asr fp
    81bc:	00005311 	andeq	r5, r0, r1, lsl r3
    81c0:	00006acd 	andeq	r6, r0, sp, asr #21
    81c4:	00008289 	andeq	r8, r0, r9, lsl #5
    81c8:	00009a45 	andeq	r9, r0, r5, asr #20
    81cc:	0000b201 	andeq	fp, r0, r1, lsl #4
    81d0:	0000c9bd 			; <UNDEFINED> instruction: 0x0000c9bd
    81d4:	0000e179 	andeq	lr, r0, r9, ror r1

000081d8 <test_gen.constprop.2>:
    81d8:	ee1f3f3c 	mrc	15, 0, r3, cr15, cr12, {1}
    81dc:	e59fc1f4 	ldr	ip, [pc, #500]	; 83d8 <test_gen.constprop.2+0x200>
    81e0:	e59c2034 	ldr	r2, [ip, #52]	; 0x34
    81e4:	e59f11ec 	ldr	r1, [pc, #492]	; 83d8 <test_gen.constprop.2+0x200>
    81e8:	e3120602 	tst	r2, #2097152	; 0x200000
    81ec:	0afffffb 	beq	81e0 <test_gen.constprop.2+0x8>
    81f0:	e5912028 	ldr	r2, [r1, #40]	; 0x28
    81f4:	e59fc1e0 	ldr	ip, [pc, #480]	; 83dc <test_gen.constprop.2+0x204>
    81f8:	e3822602 	orr	r2, r2, #2097152	; 0x200000
    81fc:	e5812028 	str	r2, [r1, #40]	; 0x28
    8200:	ee1f2f3c 	mrc	15, 0, r2, cr15, cr12, {1}
    8204:	e0632002 	rsb	r2, r3, r2
    8208:	e152000c 	cmp	r2, ip
    820c:	9afffffb 	bls	8200 <test_gen.constprop.2+0x28>
    8210:	e59f21c0 	ldr	r2, [pc, #448]	; 83d8 <test_gen.constprop.2+0x200>
    8214:	e3100001 	tst	r0, #1
    8218:	1592101c 	ldrne	r1, [r2, #28]
    821c:	05921028 	ldreq	r1, [r2, #40]	; 0x28
    8220:	13811602 	orrne	r1, r1, #2097152	; 0x200000
    8224:	03811602 	orreq	r1, r1, #2097152	; 0x200000
    8228:	1582101c 	strne	r1, [r2, #28]
    822c:	05821028 	streq	r1, [r2, #40]	; 0x28
    8230:	e59f11a8 	ldr	r1, [pc, #424]	; 83e0 <test_gen.constprop.2+0x208>
    8234:	ee1f2f3c 	mrc	15, 0, r2, cr15, cr12, {1}
    8238:	e0632002 	rsb	r2, r3, r2
    823c:	e1520001 	cmp	r2, r1
    8240:	9afffffb 	bls	8234 <test_gen.constprop.2+0x5c>
    8244:	e59f218c 	ldr	r2, [pc, #396]	; 83d8 <test_gen.constprop.2+0x200>
    8248:	e3100002 	tst	r0, #2
    824c:	1592101c 	ldrne	r1, [r2, #28]
    8250:	05921028 	ldreq	r1, [r2, #40]	; 0x28
    8254:	13811602 	orrne	r1, r1, #2097152	; 0x200000
    8258:	03811602 	orreq	r1, r1, #2097152	; 0x200000
    825c:	1582101c 	strne	r1, [r2, #28]
    8260:	05821028 	streq	r1, [r2, #40]	; 0x28
    8264:	e59f1178 	ldr	r1, [pc, #376]	; 83e4 <test_gen.constprop.2+0x20c>
    8268:	ee1f2f3c 	mrc	15, 0, r2, cr15, cr12, {1}
    826c:	e0632002 	rsb	r2, r3, r2
    8270:	e1520001 	cmp	r2, r1
    8274:	9afffffb 	bls	8268 <test_gen.constprop.2+0x90>
    8278:	e59f2158 	ldr	r2, [pc, #344]	; 83d8 <test_gen.constprop.2+0x200>
    827c:	e3100004 	tst	r0, #4
    8280:	1592101c 	ldrne	r1, [r2, #28]
    8284:	05921028 	ldreq	r1, [r2, #40]	; 0x28
    8288:	13811602 	orrne	r1, r1, #2097152	; 0x200000
    828c:	03811602 	orreq	r1, r1, #2097152	; 0x200000
    8290:	1582101c 	strne	r1, [r2, #28]
    8294:	05821028 	streq	r1, [r2, #40]	; 0x28
    8298:	e59f1148 	ldr	r1, [pc, #328]	; 83e8 <test_gen.constprop.2+0x210>
    829c:	ee1f2f3c 	mrc	15, 0, r2, cr15, cr12, {1}
    82a0:	e0632002 	rsb	r2, r3, r2
    82a4:	e1520001 	cmp	r2, r1
    82a8:	9afffffb 	bls	829c <test_gen.constprop.2+0xc4>
    82ac:	e59f2124 	ldr	r2, [pc, #292]	; 83d8 <test_gen.constprop.2+0x200>
    82b0:	e3100008 	tst	r0, #8
    82b4:	1592101c 	ldrne	r1, [r2, #28]
    82b8:	05921028 	ldreq	r1, [r2, #40]	; 0x28
    82bc:	13811602 	orrne	r1, r1, #2097152	; 0x200000
    82c0:	03811602 	orreq	r1, r1, #2097152	; 0x200000
    82c4:	1582101c 	strne	r1, [r2, #28]
    82c8:	05821028 	streq	r1, [r2, #40]	; 0x28
    82cc:	e59f1118 	ldr	r1, [pc, #280]	; 83ec <test_gen.constprop.2+0x214>
    82d0:	ee1f2f3c 	mrc	15, 0, r2, cr15, cr12, {1}
    82d4:	e0632002 	rsb	r2, r3, r2
    82d8:	e1520001 	cmp	r2, r1
    82dc:	9afffffb 	bls	82d0 <test_gen.constprop.2+0xf8>
    82e0:	e59f20f0 	ldr	r2, [pc, #240]	; 83d8 <test_gen.constprop.2+0x200>
    82e4:	e3100010 	tst	r0, #16
    82e8:	1592101c 	ldrne	r1, [r2, #28]
    82ec:	05921028 	ldreq	r1, [r2, #40]	; 0x28
    82f0:	13811602 	orrne	r1, r1, #2097152	; 0x200000
    82f4:	03811602 	orreq	r1, r1, #2097152	; 0x200000
    82f8:	1582101c 	strne	r1, [r2, #28]
    82fc:	05821028 	streq	r1, [r2, #40]	; 0x28
    8300:	e59f10e8 	ldr	r1, [pc, #232]	; 83f0 <test_gen.constprop.2+0x218>
    8304:	ee1f2f3c 	mrc	15, 0, r2, cr15, cr12, {1}
    8308:	e0632002 	rsb	r2, r3, r2
    830c:	e1520001 	cmp	r2, r1
    8310:	9afffffb 	bls	8304 <test_gen.constprop.2+0x12c>
    8314:	e59f20bc 	ldr	r2, [pc, #188]	; 83d8 <test_gen.constprop.2+0x200>
    8318:	e3100020 	tst	r0, #32
    831c:	1592101c 	ldrne	r1, [r2, #28]
    8320:	05921028 	ldreq	r1, [r2, #40]	; 0x28
    8324:	13811602 	orrne	r1, r1, #2097152	; 0x200000
    8328:	03811602 	orreq	r1, r1, #2097152	; 0x200000
    832c:	1582101c 	strne	r1, [r2, #28]
    8330:	05821028 	streq	r1, [r2, #40]	; 0x28
    8334:	e59f10b8 	ldr	r1, [pc, #184]	; 83f4 <test_gen.constprop.2+0x21c>
    8338:	ee1f2f3c 	mrc	15, 0, r2, cr15, cr12, {1}
    833c:	e0632002 	rsb	r2, r3, r2
    8340:	e1520001 	cmp	r2, r1
    8344:	9afffffb 	bls	8338 <test_gen.constprop.2+0x160>
    8348:	e59f2088 	ldr	r2, [pc, #136]	; 83d8 <test_gen.constprop.2+0x200>
    834c:	e3100040 	tst	r0, #64	; 0x40
    8350:	1592101c 	ldrne	r1, [r2, #28]
    8354:	05921028 	ldreq	r1, [r2, #40]	; 0x28
    8358:	13811602 	orrne	r1, r1, #2097152	; 0x200000
    835c:	03811602 	orreq	r1, r1, #2097152	; 0x200000
    8360:	1582101c 	strne	r1, [r2, #28]
    8364:	05821028 	streq	r1, [r2, #40]	; 0x28
    8368:	e59f1088 	ldr	r1, [pc, #136]	; 83f8 <test_gen.constprop.2+0x220>
    836c:	ee1f2f3c 	mrc	15, 0, r2, cr15, cr12, {1}
    8370:	e0632002 	rsb	r2, r3, r2
    8374:	e1520001 	cmp	r2, r1
    8378:	9afffffb 	bls	836c <test_gen.constprop.2+0x194>
    837c:	e59f2054 	ldr	r2, [pc, #84]	; 83d8 <test_gen.constprop.2+0x200>
    8380:	e3100080 	tst	r0, #128	; 0x80
    8384:	1592101c 	ldrne	r1, [r2, #28]
    8388:	05921028 	ldreq	r1, [r2, #40]	; 0x28
    838c:	13811602 	orrne	r1, r1, #2097152	; 0x200000
    8390:	03811602 	orreq	r1, r1, #2097152	; 0x200000
    8394:	1582101c 	strne	r1, [r2, #28]
    8398:	05821028 	streq	r1, [r2, #40]	; 0x28
    839c:	e59f1058 	ldr	r1, [pc, #88]	; 83fc <test_gen.constprop.2+0x224>
    83a0:	ee1f2f3c 	mrc	15, 0, r2, cr15, cr12, {1}
    83a4:	e0632002 	rsb	r2, r3, r2
    83a8:	e1520001 	cmp	r2, r1
    83ac:	9afffffb 	bls	83a0 <test_gen.constprop.2+0x1c8>
    83b0:	e59f2020 	ldr	r2, [pc, #32]	; 83d8 <test_gen.constprop.2+0x200>
    83b4:	e59f1044 	ldr	r1, [pc, #68]	; 8400 <test_gen.constprop.2+0x228>
    83b8:	e592001c 	ldr	r0, [r2, #28]
    83bc:	e3800602 	orr	r0, r0, #2097152	; 0x200000
    83c0:	e582001c 	str	r0, [r2, #28]
    83c4:	ee1f2f3c 	mrc	15, 0, r2, cr15, cr12, {1}
    83c8:	e0632002 	rsb	r2, r3, r2
    83cc:	e1520001 	cmp	r2, r1
    83d0:	9afffffb 	bls	83c4 <test_gen.constprop.2+0x1ec>
    83d4:	e12fff1e 	bx	lr
    83d8:	20200000 	eorcs	r0, r0, r0
    83dc:	000017bb 			; <UNDEFINED> instruction: 0x000017bb
    83e0:	00002f77 	andeq	r2, r0, r7, ror pc
    83e4:	00004733 	andeq	r4, r0, r3, lsr r7
    83e8:	00005eef 	andeq	r5, r0, pc, ror #29
    83ec:	000076ab 	andeq	r7, r0, fp, lsr #13
    83f0:	00008e67 	andeq	r8, r0, r7, ror #28
    83f4:	0000a623 	andeq	sl, r0, r3, lsr #12
    83f8:	0000bddf 	ldrdeq	fp, [r0], -pc	; <UNPREDICTABLE>
    83fc:	0000d59b 	muleq	r0, fp, r5
    8400:	0000ed57 	andeq	lr, r0, r7, asr sp

00008404 <cycles_per_sec>:
    8404:	e3500001 	cmp	r0, #1
    8408:	e92d4010 	push	{r4, lr}
    840c:	8a000006 	bhi	842c <cycles_per_sec+0x28>
    8410:	ee1f4f3c 	mrc	15, 0, r4, cr15, cr12, {1}
    8414:	e3a03ffa 	mov	r3, #1000	; 0x3e8
    8418:	e0000093 	mul	r0, r3, r0
    841c:	eb000337 	bl	9100 <delay_ms>
    8420:	ee1f0f3c 	mrc	15, 0, r0, cr15, cr12, {1}
    8424:	e0640000 	rsb	r0, r4, r0
    8428:	e8bd8010 	pop	{r4, pc}
    842c:	eb000160 	bl	89b4 <rpi_reset_putc>
    8430:	e59f1010 	ldr	r1, [pc, #16]	; 8448 <cycles_per_sec+0x44>
    8434:	e59f2010 	ldr	r2, [pc, #16]	; 844c <cycles_per_sec+0x48>
    8438:	e3a03038 	mov	r3, #56	; 0x38
    843c:	e59f000c 	ldr	r0, [pc, #12]	; 8450 <cycles_per_sec+0x4c>
    8440:	eb000140 	bl	8948 <printk>
    8444:	eb0002c2 	bl	8f54 <clean_reboot>
    8448:	0000a034 	andeq	sl, r0, r4, lsr r0
    844c:	00009ff4 	strdeq	r9, [r0], -r4
    8450:	0000a004 	andeq	sl, r0, r4

00008454 <scope>:
    8454:	e92d03f0 	push	{r4, r5, r6, r7, r8, r9}
    8458:	e59f2190 	ldr	r2, [pc, #400]	; 85f0 <scope+0x19c>
    845c:	e5923034 	ldr	r3, [r2, #52]	; 0x34
    8460:	e3130601 	tst	r3, #1048576	; 0x100000
    8464:	1afffffc 	bne	845c <scope+0x8>
    8468:	ee1f3f3c 	mrc	15, 0, r3, cr15, cr12, {1}
    846c:	e59f1180 	ldr	r1, [pc, #384]	; 85f4 <scope+0x1a0>
    8470:	ee1f2f3c 	mrc	15, 0, r2, cr15, cr12, {1}
    8474:	e0632002 	rsb	r2, r3, r2
    8478:	e1520001 	cmp	r2, r1
    847c:	9afffffb 	bls	8470 <scope+0x1c>
    8480:	e59f1170 	ldr	r1, [pc, #368]	; 85f8 <scope+0x1a4>
    8484:	ee1f2f3c 	mrc	15, 0, r2, cr15, cr12, {1}
    8488:	e0632002 	rsb	r2, r3, r2
    848c:	e1520001 	cmp	r2, r1
    8490:	9afffffb 	bls	8484 <scope+0x30>
    8494:	e59f2154 	ldr	r2, [pc, #340]	; 85f0 <scope+0x19c>
    8498:	e59f115c 	ldr	r1, [pc, #348]	; 85fc <scope+0x1a8>
    849c:	e5924034 	ldr	r4, [r2, #52]	; 0x34
    84a0:	e2044601 	and	r4, r4, #1048576	; 0x100000
    84a4:	e1a04a24 	lsr	r4, r4, #20
    84a8:	e1a04384 	lsl	r4, r4, #7
    84ac:	ee1f2f3c 	mrc	15, 0, r2, cr15, cr12, {1}
    84b0:	e0632002 	rsb	r2, r3, r2
    84b4:	e1520001 	cmp	r2, r1
    84b8:	9afffffb 	bls	84ac <scope+0x58>
    84bc:	e59f212c 	ldr	r2, [pc, #300]	; 85f0 <scope+0x19c>
    84c0:	e59f1138 	ldr	r1, [pc, #312]	; 8600 <scope+0x1ac>
    84c4:	e592c034 	ldr	ip, [r2, #52]	; 0x34
    84c8:	e20cc601 	and	ip, ip, #1048576	; 0x100000
    84cc:	e1a0ca2c 	lsr	ip, ip, #20
    84d0:	e1a0c30c 	lsl	ip, ip, #6
    84d4:	ee1f2f3c 	mrc	15, 0, r2, cr15, cr12, {1}
    84d8:	e0632002 	rsb	r2, r3, r2
    84dc:	e1520001 	cmp	r2, r1
    84e0:	9afffffb 	bls	84d4 <scope+0x80>
    84e4:	e59f2104 	ldr	r2, [pc, #260]	; 85f0 <scope+0x19c>
    84e8:	e59f0114 	ldr	r0, [pc, #276]	; 8604 <scope+0x1b0>
    84ec:	e5921034 	ldr	r1, [r2, #52]	; 0x34
    84f0:	e2011601 	and	r1, r1, #1048576	; 0x100000
    84f4:	e1a01a21 	lsr	r1, r1, #20
    84f8:	e1a01281 	lsl	r1, r1, #5
    84fc:	ee1f2f3c 	mrc	15, 0, r2, cr15, cr12, {1}
    8500:	e0632002 	rsb	r2, r3, r2
    8504:	e1520000 	cmp	r2, r0
    8508:	9afffffb 	bls	84fc <scope+0xa8>
    850c:	e59f20dc 	ldr	r2, [pc, #220]	; 85f0 <scope+0x19c>
    8510:	e59f00f0 	ldr	r0, [pc, #240]	; 8608 <scope+0x1b4>
    8514:	e5925034 	ldr	r5, [r2, #52]	; 0x34
    8518:	e2055601 	and	r5, r5, #1048576	; 0x100000
    851c:	e1a05a25 	lsr	r5, r5, #20
    8520:	e1a05205 	lsl	r5, r5, #4
    8524:	ee1f2f3c 	mrc	15, 0, r2, cr15, cr12, {1}
    8528:	e0632002 	rsb	r2, r3, r2
    852c:	e1520000 	cmp	r2, r0
    8530:	9afffffb 	bls	8524 <scope+0xd0>
    8534:	e59f20b4 	ldr	r2, [pc, #180]	; 85f0 <scope+0x19c>
    8538:	e59f00cc 	ldr	r0, [pc, #204]	; 860c <scope+0x1b8>
    853c:	e5927034 	ldr	r7, [r2, #52]	; 0x34
    8540:	e2077601 	and	r7, r7, #1048576	; 0x100000
    8544:	e1a07a27 	lsr	r7, r7, #20
    8548:	e1a07187 	lsl	r7, r7, #3
    854c:	ee1f2f3c 	mrc	15, 0, r2, cr15, cr12, {1}
    8550:	e0632002 	rsb	r2, r3, r2
    8554:	e1520000 	cmp	r2, r0
    8558:	9afffffb 	bls	854c <scope+0xf8>
    855c:	e59f208c 	ldr	r2, [pc, #140]	; 85f0 <scope+0x19c>
    8560:	e59f00a8 	ldr	r0, [pc, #168]	; 8610 <scope+0x1bc>
    8564:	e5928034 	ldr	r8, [r2, #52]	; 0x34
    8568:	e2088601 	and	r8, r8, #1048576	; 0x100000
    856c:	e1a08a28 	lsr	r8, r8, #20
    8570:	e1a08108 	lsl	r8, r8, #2
    8574:	ee1f2f3c 	mrc	15, 0, r2, cr15, cr12, {1}
    8578:	e0632002 	rsb	r2, r3, r2
    857c:	e1520000 	cmp	r2, r0
    8580:	9afffffb 	bls	8574 <scope+0x120>
    8584:	e59f2064 	ldr	r2, [pc, #100]	; 85f0 <scope+0x19c>
    8588:	e59f6084 	ldr	r6, [pc, #132]	; 8614 <scope+0x1c0>
    858c:	e5929034 	ldr	r9, [r2, #52]	; 0x34
    8590:	e2099601 	and	r9, r9, #1048576	; 0x100000
    8594:	e1a09a29 	lsr	r9, r9, #20
    8598:	e1a09089 	lsl	r9, r9, #1
    859c:	ee1f2f3c 	mrc	15, 0, r2, cr15, cr12, {1}
    85a0:	e0632002 	rsb	r2, r3, r2
    85a4:	e1520006 	cmp	r2, r6
    85a8:	9afffffb 	bls	859c <scope+0x148>
    85ac:	e59f203c 	ldr	r2, [pc, #60]	; 85f0 <scope+0x19c>
    85b0:	e184400c 	orr	r4, r4, ip
    85b4:	e592c034 	ldr	ip, [r2, #52]	; 0x34
    85b8:	e59f6058 	ldr	r6, [pc, #88]	; 8618 <scope+0x1c4>
    85bc:	e20cc601 	and	ip, ip, #1048576	; 0x100000
    85c0:	e184ca2c 	orr	ip, r4, ip, lsr #20
    85c4:	e18c1001 	orr	r1, ip, r1
    85c8:	e1815005 	orr	r5, r1, r5
    85cc:	e1857007 	orr	r7, r5, r7
    85d0:	e1878008 	orr	r8, r7, r8
    85d4:	e1880009 	orr	r0, r8, r9
    85d8:	ee1f2f3c 	mrc	15, 0, r2, cr15, cr12, {1}
    85dc:	e0632002 	rsb	r2, r3, r2
    85e0:	e1520006 	cmp	r2, r6
    85e4:	9afffffb 	bls	85d8 <scope+0x184>
    85e8:	e8bd03f0 	pop	{r4, r5, r6, r7, r8, r9}
    85ec:	e12fff1e 	bx	lr
    85f0:	20200000 	eorcs	r0, r0, r0
    85f4:	00000bdd 	ldrdeq	r0, [r0], -sp
    85f8:	00002399 	muleq	r0, r9, r3
    85fc:	00003b55 	andeq	r3, r0, r5, asr fp
    8600:	00005311 	andeq	r5, r0, r1, lsl r3
    8604:	00006acd 	andeq	r6, r0, sp, asr #21
    8608:	00008289 	andeq	r8, r0, r9, lsl #5
    860c:	00009a45 	andeq	r9, r0, r5, asr #20
    8610:	0000b201 	andeq	fp, r0, r1, lsl #4
    8614:	0000c9bd 			; <UNDEFINED> instruction: 0x0000c9bd
    8618:	0000e179 	andeq	lr, r0, r9, ror r1

0000861c <test_gen>:
    861c:	e52d4004 	push	{r4}		; (str r4, [sp, #-4]!)
    8620:	ee1f3f3c 	mrc	15, 0, r3, cr15, cr12, {1}
    8624:	e59f4200 	ldr	r4, [pc, #512]	; 882c <test_gen+0x210>
    8628:	e5942034 	ldr	r2, [r4, #52]	; 0x34
    862c:	e59fc1f8 	ldr	ip, [pc, #504]	; 882c <test_gen+0x210>
    8630:	e3120602 	tst	r2, #2097152	; 0x200000
    8634:	0afffffb 	beq	8628 <test_gen+0xc>
    8638:	e3a02001 	mov	r2, #1
    863c:	e1a00012 	lsl	r0, r2, r0
    8640:	e59c2028 	ldr	r2, [ip, #40]	; 0x28
    8644:	e59f41e4 	ldr	r4, [pc, #484]	; 8830 <test_gen+0x214>
    8648:	e1802002 	orr	r2, r0, r2
    864c:	e58c2028 	str	r2, [ip, #40]	; 0x28
    8650:	ee1f2f3c 	mrc	15, 0, r2, cr15, cr12, {1}
    8654:	e0632002 	rsb	r2, r3, r2
    8658:	e1520004 	cmp	r2, r4
    865c:	9afffffb 	bls	8650 <test_gen+0x34>
    8660:	e59f21c4 	ldr	r2, [pc, #452]	; 882c <test_gen+0x210>
    8664:	e3110001 	tst	r1, #1
    8668:	1592c01c 	ldrne	ip, [r2, #28]
    866c:	0592c028 	ldreq	ip, [r2, #40]	; 0x28
    8670:	1180c00c 	orrne	ip, r0, ip
    8674:	0180c00c 	orreq	ip, r0, ip
    8678:	1582c01c 	strne	ip, [r2, #28]
    867c:	0582c028 	streq	ip, [r2, #40]	; 0x28
    8680:	e59fc1ac 	ldr	ip, [pc, #428]	; 8834 <test_gen+0x218>
    8684:	ee1f2f3c 	mrc	15, 0, r2, cr15, cr12, {1}
    8688:	e0632002 	rsb	r2, r3, r2
    868c:	e152000c 	cmp	r2, ip
    8690:	9afffffb 	bls	8684 <test_gen+0x68>
    8694:	e59f2190 	ldr	r2, [pc, #400]	; 882c <test_gen+0x210>
    8698:	e3110002 	tst	r1, #2
    869c:	1592c01c 	ldrne	ip, [r2, #28]
    86a0:	0592c028 	ldreq	ip, [r2, #40]	; 0x28
    86a4:	1180c00c 	orrne	ip, r0, ip
    86a8:	0180c00c 	orreq	ip, r0, ip
    86ac:	1582c01c 	strne	ip, [r2, #28]
    86b0:	0582c028 	streq	ip, [r2, #40]	; 0x28
    86b4:	e59fc17c 	ldr	ip, [pc, #380]	; 8838 <test_gen+0x21c>
    86b8:	ee1f2f3c 	mrc	15, 0, r2, cr15, cr12, {1}
    86bc:	e0632002 	rsb	r2, r3, r2
    86c0:	e152000c 	cmp	r2, ip
    86c4:	9afffffb 	bls	86b8 <test_gen+0x9c>
    86c8:	e59f215c 	ldr	r2, [pc, #348]	; 882c <test_gen+0x210>
    86cc:	e3110004 	tst	r1, #4
    86d0:	1592c01c 	ldrne	ip, [r2, #28]
    86d4:	0592c028 	ldreq	ip, [r2, #40]	; 0x28
    86d8:	1180c00c 	orrne	ip, r0, ip
    86dc:	0180c00c 	orreq	ip, r0, ip
    86e0:	1582c01c 	strne	ip, [r2, #28]
    86e4:	0582c028 	streq	ip, [r2, #40]	; 0x28
    86e8:	e59fc14c 	ldr	ip, [pc, #332]	; 883c <test_gen+0x220>
    86ec:	ee1f2f3c 	mrc	15, 0, r2, cr15, cr12, {1}
    86f0:	e0632002 	rsb	r2, r3, r2
    86f4:	e152000c 	cmp	r2, ip
    86f8:	9afffffb 	bls	86ec <test_gen+0xd0>
    86fc:	e59f2128 	ldr	r2, [pc, #296]	; 882c <test_gen+0x210>
    8700:	e3110008 	tst	r1, #8
    8704:	1592c01c 	ldrne	ip, [r2, #28]
    8708:	0592c028 	ldreq	ip, [r2, #40]	; 0x28
    870c:	1180c00c 	orrne	ip, r0, ip
    8710:	0180c00c 	orreq	ip, r0, ip
    8714:	1582c01c 	strne	ip, [r2, #28]
    8718:	0582c028 	streq	ip, [r2, #40]	; 0x28
    871c:	e59fc11c 	ldr	ip, [pc, #284]	; 8840 <test_gen+0x224>
    8720:	ee1f2f3c 	mrc	15, 0, r2, cr15, cr12, {1}
    8724:	e0632002 	rsb	r2, r3, r2
    8728:	e152000c 	cmp	r2, ip
    872c:	9afffffb 	bls	8720 <test_gen+0x104>
    8730:	e59f20f4 	ldr	r2, [pc, #244]	; 882c <test_gen+0x210>
    8734:	e3110010 	tst	r1, #16
    8738:	1592c01c 	ldrne	ip, [r2, #28]
    873c:	0592c028 	ldreq	ip, [r2, #40]	; 0x28
    8740:	1180c00c 	orrne	ip, r0, ip
    8744:	0180c00c 	orreq	ip, r0, ip
    8748:	1582c01c 	strne	ip, [r2, #28]
    874c:	0582c028 	streq	ip, [r2, #40]	; 0x28
    8750:	e59fc0ec 	ldr	ip, [pc, #236]	; 8844 <test_gen+0x228>
    8754:	ee1f2f3c 	mrc	15, 0, r2, cr15, cr12, {1}
    8758:	e0632002 	rsb	r2, r3, r2
    875c:	e152000c 	cmp	r2, ip
    8760:	9afffffb 	bls	8754 <test_gen+0x138>
    8764:	e59f20c0 	ldr	r2, [pc, #192]	; 882c <test_gen+0x210>
    8768:	e3110020 	tst	r1, #32
    876c:	1592c01c 	ldrne	ip, [r2, #28]
    8770:	0592c028 	ldreq	ip, [r2, #40]	; 0x28
    8774:	1180c00c 	orrne	ip, r0, ip
    8778:	0180c00c 	orreq	ip, r0, ip
    877c:	1582c01c 	strne	ip, [r2, #28]
    8780:	0582c028 	streq	ip, [r2, #40]	; 0x28
    8784:	e59fc0bc 	ldr	ip, [pc, #188]	; 8848 <test_gen+0x22c>
    8788:	ee1f2f3c 	mrc	15, 0, r2, cr15, cr12, {1}
    878c:	e0632002 	rsb	r2, r3, r2
    8790:	e152000c 	cmp	r2, ip
    8794:	9afffffb 	bls	8788 <test_gen+0x16c>
    8798:	e59f208c 	ldr	r2, [pc, #140]	; 882c <test_gen+0x210>
    879c:	e3110040 	tst	r1, #64	; 0x40
    87a0:	1592c01c 	ldrne	ip, [r2, #28]
    87a4:	0592c028 	ldreq	ip, [r2, #40]	; 0x28
    87a8:	1180c00c 	orrne	ip, r0, ip
    87ac:	0180c00c 	orreq	ip, r0, ip
    87b0:	1582c01c 	strne	ip, [r2, #28]
    87b4:	0582c028 	streq	ip, [r2, #40]	; 0x28
    87b8:	e59fc08c 	ldr	ip, [pc, #140]	; 884c <test_gen+0x230>
    87bc:	ee1f2f3c 	mrc	15, 0, r2, cr15, cr12, {1}
    87c0:	e0632002 	rsb	r2, r3, r2
    87c4:	e152000c 	cmp	r2, ip
    87c8:	9afffffb 	bls	87bc <test_gen+0x1a0>
    87cc:	e59f2058 	ldr	r2, [pc, #88]	; 882c <test_gen+0x210>
    87d0:	e3110080 	tst	r1, #128	; 0x80
    87d4:	1592101c 	ldrne	r1, [r2, #28]
    87d8:	05921028 	ldreq	r1, [r2, #40]	; 0x28
    87dc:	11801001 	orrne	r1, r0, r1
    87e0:	01801001 	orreq	r1, r0, r1
    87e4:	1582101c 	strne	r1, [r2, #28]
    87e8:	05821028 	streq	r1, [r2, #40]	; 0x28
    87ec:	e59f105c 	ldr	r1, [pc, #92]	; 8850 <test_gen+0x234>
    87f0:	ee1f2f3c 	mrc	15, 0, r2, cr15, cr12, {1}
    87f4:	e0632002 	rsb	r2, r3, r2
    87f8:	e1520001 	cmp	r2, r1
    87fc:	9afffffb 	bls	87f0 <test_gen+0x1d4>
    8800:	e59f2024 	ldr	r2, [pc, #36]	; 882c <test_gen+0x210>
    8804:	e59f1048 	ldr	r1, [pc, #72]	; 8854 <test_gen+0x238>
    8808:	e592c01c 	ldr	ip, [r2, #28]
    880c:	e180000c 	orr	r0, r0, ip
    8810:	e582001c 	str	r0, [r2, #28]
    8814:	ee1f2f3c 	mrc	15, 0, r2, cr15, cr12, {1}
    8818:	e0632002 	rsb	r2, r3, r2
    881c:	e1520001 	cmp	r2, r1
    8820:	9afffffb 	bls	8814 <test_gen+0x1f8>
    8824:	e49d4004 	pop	{r4}		; (ldr r4, [sp], #4)
    8828:	e12fff1e 	bx	lr
    882c:	20200000 	eorcs	r0, r0, r0
    8830:	000017bb 			; <UNDEFINED> instruction: 0x000017bb
    8834:	00002f77 	andeq	r2, r0, r7, ror pc
    8838:	00004733 	andeq	r4, r0, r3, lsr r7
    883c:	00005eef 	andeq	r5, r0, pc, ror #29
    8840:	000076ab 	andeq	r7, r0, fp, lsr #13
    8844:	00008e67 	andeq	r8, r0, r7, ror #28
    8848:	0000a623 	andeq	sl, r0, r3, lsr #12
    884c:	0000bddf 	ldrdeq	fp, [r0], -pc	; <UNPREDICTABLE>
    8850:	0000d59b 	muleq	r0, fp, r5
    8854:	0000ed57 	andeq	lr, r0, r7, asr sp

00008858 <notmain>:
    8858:	e92d41f0 	push	{r4, r5, r6, r7, r8, lr}
    885c:	e3a00015 	mov	r0, #21
    8860:	eb000230 	bl	9128 <gpio_set_output>
    8864:	e3a00014 	mov	r0, #20
    8868:	eb00027f 	bl	926c <gpio_set_input>
    886c:	eb0001b0 	bl	8f34 <enable_cache>
    8870:	e3a03001 	mov	r3, #1
    8874:	ee0f3f1c 	mcr	15, 0, r3, cr15, cr12, {0}
    8878:	e59f40b4 	ldr	r4, [pc, #180]	; 8934 <notmain+0xdc>
    887c:	e59f00b4 	ldr	r0, [pc, #180]	; 8938 <notmain+0xe0>
    8880:	e594301c 	ldr	r3, [r4, #28]
    8884:	e3833602 	orr	r3, r3, #2097152	; 0x200000
    8888:	e584301c 	str	r3, [r4, #28]
    888c:	eb00002d 	bl	8948 <printk>
    8890:	e1a02004 	mov	r2, r4
    8894:	e5923034 	ldr	r3, [r2, #52]	; 0x34
    8898:	e3130601 	tst	r3, #1048576	; 0x100000
    889c:	0afffffc 	beq	8894 <notmain+0x3c>
    88a0:	e3a00001 	mov	r0, #1
    88a4:	eb000215 	bl	9100 <delay_ms>
    88a8:	e59f808c 	ldr	r8, [pc, #140]	; 893c <notmain+0xe4>
    88ac:	e3a04001 	mov	r4, #1
    88b0:	e3a00000 	mov	r0, #0
    88b4:	ebfffe47 	bl	81d8 <test_gen.constprop.2>
    88b8:	e3a00000 	mov	r0, #0
    88bc:	ebfffe45 	bl	81d8 <test_gen.constprop.2>
    88c0:	e2040cff 	and	r0, r4, #65280	; 0xff00
    88c4:	e1a00420 	lsr	r0, r0, #8
    88c8:	ebfffe42 	bl	81d8 <test_gen.constprop.2>
    88cc:	e6ef0074 	uxtb	r0, r4
    88d0:	ebfffe40 	bl	81d8 <test_gen.constprop.2>
    88d4:	ebfffdcd 	bl	8010 <scope.constprop.3>
    88d8:	e1a06000 	mov	r6, r0
    88dc:	ebfffdcb 	bl	8010 <scope.constprop.3>
    88e0:	e1a07000 	mov	r7, r0
    88e4:	ebfffdc9 	bl	8010 <scope.constprop.3>
    88e8:	e1a05000 	mov	r5, r0
    88ec:	ebfffdc7 	bl	8010 <scope.constprop.3>
    88f0:	e1a07807 	lsl	r7, r7, #16
    88f4:	e1876c06 	orr	r6, r7, r6, lsl #24
    88f8:	e1860000 	orr	r0, r6, r0
    88fc:	e1801405 	orr	r1, r0, r5, lsl #8
    8900:	e1540001 	cmp	r4, r1
    8904:	1a000006 	bne	8924 <notmain+0xcc>
    8908:	e2844001 	add	r4, r4, #1
    890c:	e1540008 	cmp	r4, r8
    8910:	1affffe6 	bne	88b0 <notmain+0x58>
    8914:	e59f0024 	ldr	r0, [pc, #36]	; 8940 <notmain+0xe8>
    8918:	e3a01a01 	mov	r1, #4096	; 0x1000
    891c:	eb000009 	bl	8948 <printk>
    8920:	eb00018b 	bl	8f54 <clean_reboot>
    8924:	e1a02004 	mov	r2, r4
    8928:	e59f0014 	ldr	r0, [pc, #20]	; 8944 <notmain+0xec>
    892c:	eb000005 	bl	8948 <printk>
    8930:	eafffffa 	b	8920 <notmain+0xc8>
    8934:	20200000 	eorcs	r0, r0, r0
    8938:	0000a040 	andeq	sl, r0, r0, asr #32
    893c:	00001001 	andeq	r1, r0, r1
    8940:	0000a074 	andeq	sl, r0, r4, ror r0
    8944:	0000a050 	andeq	sl, r0, r0, asr r0

00008948 <printk>:
    8948:	e92d000f 	push	{r0, r1, r2, r3}
    894c:	e92d4030 	push	{r4, r5, lr}
    8950:	e24dd00c 	sub	sp, sp, #12
    8954:	e28d301c 	add	r3, sp, #28
    8958:	e58d3004 	str	r3, [sp, #4]
    895c:	e59f4034 	ldr	r4, [pc, #52]	; 8998 <printk+0x50>
    8960:	e1a00004 	mov	r0, r4
    8964:	e3a01b01 	mov	r1, #1024	; 0x400
    8968:	e59d2018 	ldr	r2, [sp, #24]
    896c:	eb0000cb 	bl	8ca0 <va_printk>
    8970:	e1a05000 	mov	r5, r0
    8974:	e59f3020 	ldr	r3, [pc, #32]	; 899c <printk+0x54>
    8978:	e5933000 	ldr	r3, [r3]
    897c:	e1a00004 	mov	r0, r4
    8980:	e12fff33 	blx	r3
    8984:	e1a00005 	mov	r0, r5
    8988:	e28dd00c 	add	sp, sp, #12
    898c:	e8bd4030 	pop	{r4, r5, lr}
    8990:	e28dd010 	add	sp, sp, #16
    8994:	e12fff1e 	bx	lr
    8998:	0000a2cc 	andeq	sl, r0, ip, asr #5
    899c:	00009f5c 	andeq	r9, r0, ip, asr pc

000089a0 <internal_putchar>:
    89a0:	e92d4010 	push	{r4, lr}
    89a4:	e1a04000 	mov	r4, r0
    89a8:	eb00051f 	bl	9e2c <uart_putc>
    89ac:	e1a00004 	mov	r0, r4
    89b0:	e8bd8010 	pop	{r4, pc}

000089b4 <rpi_reset_putc>:
    89b4:	e59f2008 	ldr	r2, [pc, #8]	; 89c4 <rpi_reset_putc+0x10>
    89b8:	e59f3008 	ldr	r3, [pc, #8]	; 89c8 <rpi_reset_putc+0x14>
    89bc:	e5832000 	str	r2, [r3]
    89c0:	e12fff1e 	bx	lr
    89c4:	000089a0 	andeq	r8, r0, r0, lsr #19
    89c8:	00009f58 	andeq	r9, r0, r8, asr pc

000089cc <rpi_set_putc>:
    89cc:	e59f3004 	ldr	r3, [pc, #4]	; 89d8 <rpi_set_putc+0xc>
    89d0:	e5830000 	str	r0, [r3]
    89d4:	e12fff1e 	bx	lr
    89d8:	00009f58 	andeq	r9, r0, r8, asr pc

000089dc <internal_putk>:
    89dc:	e92d4038 	push	{r3, r4, r5, lr}
    89e0:	e1a04000 	mov	r4, r0
    89e4:	e59f5020 	ldr	r5, [pc, #32]	; 8a0c <internal_putk+0x30>
    89e8:	ea000002 	b	89f8 <internal_putk+0x1c>
    89ec:	e5953000 	ldr	r3, [r5]
    89f0:	e12fff33 	blx	r3
    89f4:	e2844001 	add	r4, r4, #1
    89f8:	e5d40000 	ldrb	r0, [r4]
    89fc:	e3500000 	cmp	r0, #0
    8a00:	1afffff9 	bne	89ec <internal_putk+0x10>
    8a04:	e3a00001 	mov	r0, #1
    8a08:	e8bd8038 	pop	{r3, r4, r5, pc}
    8a0c:	00009f58 	andeq	r9, r0, r8, asr pc

00008a10 <isdigit>:
    8a10:	e2400030 	sub	r0, r0, #48	; 0x30
    8a14:	e3500009 	cmp	r0, #9
    8a18:	83a00000 	movhi	r0, #0
    8a1c:	93a00001 	movls	r0, #1
    8a20:	e12fff1e 	bx	lr

00008a24 <pad>:
    8a24:	e0611000 	rsb	r1, r1, r0
    8a28:	e3a03020 	mov	r3, #32
    8a2c:	ea000002 	b	8a3c <pad+0x18>
    8a30:	e5c03000 	strb	r3, [r0]
    8a34:	e2811001 	add	r1, r1, #1
    8a38:	e2800001 	add	r0, r0, #1
    8a3c:	e1510002 	cmp	r1, r2
    8a40:	bafffffa 	blt	8a30 <pad+0xc>
    8a44:	e3a03000 	mov	r3, #0
    8a48:	e5c03000 	strb	r3, [r0]
    8a4c:	e12fff1e 	bx	lr

00008a50 <reverse>:
    8a50:	e063c002 	rsb	ip, r3, r2
    8a54:	e28cc001 	add	ip, ip, #1
    8a58:	e15c0001 	cmp	ip, r1
    8a5c:	c061100c 	rsbgt	r1, r1, ip
    8a60:	c0833001 	addgt	r3, r3, r1
    8a64:	e2422001 	sub	r2, r2, #1
    8a68:	e1a01000 	mov	r1, r0
    8a6c:	ea000002 	b	8a7c <reverse+0x2c>
    8a70:	e452c001 	ldrb	ip, [r2], #-1
    8a74:	e5c1c000 	strb	ip, [r1]
    8a78:	e2811001 	add	r1, r1, #1
    8a7c:	e1520003 	cmp	r2, r3
    8a80:	2afffffa 	bcs	8a70 <reverse+0x20>
    8a84:	e3a03000 	mov	r3, #0
    8a88:	e5c13000 	strb	r3, [r1]
    8a8c:	e12fff1e 	bx	lr

00008a90 <emit>:
    8a90:	e92d41f0 	push	{r4, r5, r6, r7, r8, lr}
    8a94:	e24dd048 	sub	sp, sp, #72	; 0x48
    8a98:	e1a05001 	mov	r5, r1
    8a9c:	e1a04002 	mov	r4, r2
    8aa0:	e59d2060 	ldr	r2, [sp, #96]	; 0x60
    8aa4:	e1520004 	cmp	r2, r4
    8aa8:	c2442001 	subgt	r2, r4, #1
    8aac:	e1a0c003 	mov	ip, r3
    8ab0:	e2400002 	sub	r0, r0, #2
    8ab4:	e350000e 	cmp	r0, #14
    8ab8:	979ff100 	ldrls	pc, [pc, r0, lsl #2]
    8abc:	ea000042 	b	8bcc <emit+0x13c>
    8ac0:	00008ba4 	andeq	r8, r0, r4, lsr #23
    8ac4:	00008bcc 	andeq	r8, r0, ip, asr #23
    8ac8:	00008bcc 	andeq	r8, r0, ip, asr #23
    8acc:	00008bcc 	andeq	r8, r0, ip, asr #23
    8ad0:	00008bcc 	andeq	r8, r0, ip, asr #23
    8ad4:	00008bcc 	andeq	r8, r0, ip, asr #23
    8ad8:	00008b98 	muleq	r0, r8, fp
    8adc:	00008bcc 	andeq	r8, r0, ip, asr #23
    8ae0:	00008afc 	strdeq	r8, [r0], -ip
    8ae4:	00008bcc 	andeq	r8, r0, ip, asr #23
    8ae8:	00008bcc 	andeq	r8, r0, ip, asr #23
    8aec:	00008bcc 	andeq	r8, r0, ip, asr #23
    8af0:	00008bcc 	andeq	r8, r0, ip, asr #23
    8af4:	00008bcc 	andeq	r8, r0, ip, asr #23
    8af8:	00008b70 	andeq	r8, r0, r0, ror fp
    8afc:	e59d1064 	ldr	r1, [sp, #100]	; 0x64
    8b00:	e2911000 	adds	r1, r1, #0
    8b04:	13a01001 	movne	r1, #1
    8b08:	e0111fa3 	ands	r1, r1, r3, lsr #31
    8b0c:	1263c000 	rsbne	ip, r3, #0
    8b10:	13a08001 	movne	r8, #1
    8b14:	03a08000 	moveq	r8, #0
    8b18:	e28d1008 	add	r1, sp, #8
    8b1c:	e59f70f4 	ldr	r7, [pc, #244]	; 8c18 <emit+0x188>
    8b20:	e59f60f4 	ldr	r6, [pc, #244]	; 8c1c <emit+0x18c>
    8b24:	ea000000 	b	8b2c <emit+0x9c>
    8b28:	e1a01003 	mov	r1, r3
    8b2c:	e2813001 	add	r3, r1, #1
    8b30:	e08e0c97 	umull	r0, lr, r7, ip
    8b34:	e1a0e1ae 	lsr	lr, lr, #3
    8b38:	e1a0000e 	mov	r0, lr
    8b3c:	e08ee10e 	add	lr, lr, lr, lsl #2
    8b40:	e1a0e08e 	lsl	lr, lr, #1
    8b44:	e06ee00c 	rsb	lr, lr, ip
    8b48:	e7d6c00e 	ldrb	ip, [r6, lr]
    8b4c:	e5c1c000 	strb	ip, [r1]
    8b50:	e1a0c000 	mov	ip, r0
    8b54:	e3500000 	cmp	r0, #0
    8b58:	1afffff2 	bne	8b28 <emit+0x98>
    8b5c:	e3580000 	cmp	r8, #0
    8b60:	12813002 	addne	r3, r1, #2
    8b64:	13a0002d 	movne	r0, #45	; 0x2d
    8b68:	15c10001 	strbne	r0, [r1, #1]
    8b6c:	ea00001f 	b	8bf0 <emit+0x160>
    8b70:	e28de008 	add	lr, sp, #8
    8b74:	e59f00a4 	ldr	r0, [pc, #164]	; 8c20 <emit+0x190>
    8b78:	e28e3001 	add	r3, lr, #1
    8b7c:	e20c100f 	and	r1, ip, #15
    8b80:	e7d01001 	ldrb	r1, [r0, r1]
    8b84:	e5ce1000 	strb	r1, [lr]
    8b88:	e1a0e003 	mov	lr, r3
    8b8c:	e1b0c22c 	lsrs	ip, ip, #4
    8b90:	1afffff8 	bne	8b78 <emit+0xe8>
    8b94:	ea000015 	b	8bf0 <emit+0x160>
    8b98:	e5cd3008 	strb	r3, [sp, #8]
    8b9c:	e28d3009 	add	r3, sp, #9
    8ba0:	ea000012 	b	8bf0 <emit+0x160>
    8ba4:	e28de008 	add	lr, sp, #8
    8ba8:	e59f0074 	ldr	r0, [pc, #116]	; 8c24 <emit+0x194>
    8bac:	e28e3001 	add	r3, lr, #1
    8bb0:	e20c1001 	and	r1, ip, #1
    8bb4:	e7d01001 	ldrb	r1, [r0, r1]
    8bb8:	e5ce1000 	strb	r1, [lr]
    8bbc:	e1a0e003 	mov	lr, r3
    8bc0:	e1b0c0ac 	lsrs	ip, ip, #1
    8bc4:	1afffff8 	bne	8bac <emit+0x11c>
    8bc8:	ea000008 	b	8bf0 <emit+0x160>
    8bcc:	ebffff78 	bl	89b4 <rpi_reset_putc>
    8bd0:	e59f3050 	ldr	r3, [pc, #80]	; 8c28 <emit+0x198>
    8bd4:	e58d3000 	str	r3, [sp]
    8bd8:	e59f004c 	ldr	r0, [pc, #76]	; 8c2c <emit+0x19c>
    8bdc:	e59f104c 	ldr	r1, [pc, #76]	; 8c30 <emit+0x1a0>
    8be0:	e59f204c 	ldr	r2, [pc, #76]	; 8c34 <emit+0x1a4>
    8be4:	e3a03075 	mov	r3, #117	; 0x75
    8be8:	ebffff56 	bl	8948 <printk>
    8bec:	eb0000d8 	bl	8f54 <clean_reboot>
    8bf0:	e1a00003 	mov	r0, r3
    8bf4:	e28d1008 	add	r1, sp, #8
    8bf8:	ebffff89 	bl	8a24 <pad>
    8bfc:	e1a02000 	mov	r2, r0
    8c00:	e1a00005 	mov	r0, r5
    8c04:	e1a01004 	mov	r1, r4
    8c08:	e28d3008 	add	r3, sp, #8
    8c0c:	ebffff8f 	bl	8a50 <reverse>
    8c10:	e28dd048 	add	sp, sp, #72	; 0x48
    8c14:	e8bd81f0 	pop	{r4, r5, r6, r7, r8, pc}
    8c18:	cccccccd 	stclgt	12, cr12, [ip], {205}	; 0xcd
    8c1c:	0000a0e0 	andeq	sl, r0, r0, ror #1
    8c20:	0000a0ec 	andeq	sl, r0, ip, ror #1
    8c24:	0000a100 	andeq	sl, r0, r0, lsl #2
    8c28:	0000a0dc 	ldrdeq	sl, [r0], -ip
    8c2c:	0000a0b4 	strheq	sl, [r0], -r4
    8c30:	0000a0c8 	andeq	sl, r0, r8, asr #1
    8c34:	0000a090 	muleq	r0, r0, r0

00008c38 <rpi_set_output>:
    8c38:	e52de004 	push	{lr}		; (str lr, [sp, #-4]!)
    8c3c:	e24dd00c 	sub	sp, sp, #12
    8c40:	e3500000 	cmp	r0, #0
    8c44:	1a000008 	bne	8c6c <rpi_set_output+0x34>
    8c48:	ebffff59 	bl	89b4 <rpi_reset_putc>
    8c4c:	e59f3034 	ldr	r3, [pc, #52]	; 8c88 <rpi_set_output+0x50>
    8c50:	e58d3000 	str	r3, [sp]
    8c54:	e59f0030 	ldr	r0, [pc, #48]	; 8c8c <rpi_set_output+0x54>
    8c58:	e59f1030 	ldr	r1, [pc, #48]	; 8c90 <rpi_set_output+0x58>
    8c5c:	e59f2030 	ldr	r2, [pc, #48]	; 8c94 <rpi_set_output+0x5c>
    8c60:	e3a03020 	mov	r3, #32
    8c64:	ebffff37 	bl	8948 <printk>
    8c68:	eb0000b9 	bl	8f54 <clean_reboot>
    8c6c:	e59f3024 	ldr	r3, [pc, #36]	; 8c98 <rpi_set_output+0x60>
    8c70:	e5830000 	str	r0, [r3]
    8c74:	e3510000 	cmp	r1, #0
    8c78:	159f301c 	ldrne	r3, [pc, #28]	; 8c9c <rpi_set_output+0x64>
    8c7c:	15831000 	strne	r1, [r3]
    8c80:	e28dd00c 	add	sp, sp, #12
    8c84:	e49df004 	pop	{pc}		; (ldr pc, [sp], #4)
    8c88:	0000a104 	andeq	sl, r0, r4, lsl #2
    8c8c:	0000a0b4 	strheq	sl, [r0], -r4
    8c90:	0000a0c8 	andeq	sl, r0, r8, asr #1
    8c94:	0000a098 	muleq	r0, r8, r0
    8c98:	00009f58 	andeq	r9, r0, r8, asr pc
    8c9c:	00009f5c 	andeq	r9, r0, ip, asr pc

00008ca0 <va_printk>:
    8ca0:	e92d4ff0 	push	{r4, r5, r6, r7, r8, r9, sl, fp, lr}
    8ca4:	e24dd08c 	sub	sp, sp, #140	; 0x8c
    8ca8:	e1a0a000 	mov	sl, r0
    8cac:	e1a09003 	mov	r9, r3
    8cb0:	e2411001 	sub	r1, r1, #1
    8cb4:	e0808001 	add	r8, r0, r1
    8cb8:	e3a03000 	mov	r3, #0
    8cbc:	e5c03000 	strb	r3, [r0]
    8cc0:	e1a04000 	mov	r4, r0
    8cc4:	e1a0b003 	mov	fp, r3
    8cc8:	ea000088 	b	8ef0 <va_printk+0x250>
    8ccc:	e3530025 	cmp	r3, #37	; 0x25
    8cd0:	12822001 	addne	r2, r2, #1
    8cd4:	15c43000 	strbne	r3, [r4]
    8cd8:	12844001 	addne	r4, r4, #1
    8cdc:	1a000083 	bne	8ef0 <va_printk+0x250>
    8ce0:	e5d21001 	ldrb	r1, [r2, #1]
    8ce4:	e3510025 	cmp	r1, #37	; 0x25
    8ce8:	05c43000 	strbeq	r3, [r4]
    8cec:	02822002 	addeq	r2, r2, #2
    8cf0:	02844001 	addeq	r4, r4, #1
    8cf4:	0a00007d 	beq	8ef0 <va_printk+0x250>
    8cf8:	e2826001 	add	r6, r2, #1
    8cfc:	e1a0700b 	mov	r7, fp
    8d00:	ea000004 	b	8d18 <va_printk+0x78>
    8d04:	e0877107 	add	r7, r7, r7, lsl #2
    8d08:	e1a07087 	lsl	r7, r7, #1
    8d0c:	e0877005 	add	r7, r7, r5
    8d10:	e2477030 	sub	r7, r7, #48	; 0x30
    8d14:	e2866001 	add	r6, r6, #1
    8d18:	e5d65000 	ldrb	r5, [r6]
    8d1c:	e1a00005 	mov	r0, r5
    8d20:	ebffff3a 	bl	8a10 <isdigit>
    8d24:	e3500000 	cmp	r0, #0
    8d28:	1afffff5 	bne	8d04 <va_printk+0x64>
    8d2c:	e357001f 	cmp	r7, #31
    8d30:	9a000008 	bls	8d58 <va_printk+0xb8>
    8d34:	ebffff1e 	bl	89b4 <rpi_reset_putc>
    8d38:	e59f31dc 	ldr	r3, [pc, #476]	; 8f1c <va_printk+0x27c>
    8d3c:	e58d3000 	str	r3, [sp]
    8d40:	e59f01d8 	ldr	r0, [pc, #472]	; 8f20 <va_printk+0x280>
    8d44:	e59f11d8 	ldr	r1, [pc, #472]	; 8f24 <va_printk+0x284>
    8d48:	e59f21d8 	ldr	r2, [pc, #472]	; 8f28 <va_printk+0x288>
    8d4c:	e3a03092 	mov	r3, #146	; 0x92
    8d50:	ebfffefc 	bl	8948 <printk>
    8d54:	eb00007e 	bl	8f54 <clean_reboot>
    8d58:	e2455062 	sub	r5, r5, #98	; 0x62
    8d5c:	e3550016 	cmp	r5, #22
    8d60:	979ff105 	ldrls	pc, [pc, r5, lsl #2]
    8d64:	ea00004e 	b	8ea4 <va_printk+0x204>
    8d68:	00008e50 	andeq	r8, r0, r0, asr lr
    8d6c:	00008e80 	andeq	r8, r0, r0, lsl #29
    8d70:	00008de0 	andeq	r8, r0, r0, ror #27
    8d74:	00008ea4 	andeq	r8, r0, r4, lsr #29
    8d78:	00008dc4 	andeq	r8, r0, r4, asr #27
    8d7c:	00008ea4 	andeq	r8, r0, r4, lsr #29
    8d80:	00008ea4 	andeq	r8, r0, r4, lsr #29
    8d84:	00008ea4 	andeq	r8, r0, r4, lsr #29
    8d88:	00008ea4 	andeq	r8, r0, r4, lsr #29
    8d8c:	00008ea4 	andeq	r8, r0, r4, lsr #29
    8d90:	00008ea4 	andeq	r8, r0, r4, lsr #29
    8d94:	00008ea4 	andeq	r8, r0, r4, lsr #29
    8d98:	00008ea4 	andeq	r8, r0, r4, lsr #29
    8d9c:	00008ea4 	andeq	r8, r0, r4, lsr #29
    8da0:	00008e2c 	andeq	r8, r0, ip, lsr #28
    8da4:	00008ea4 	andeq	r8, r0, r4, lsr #29
    8da8:	00008ea4 	andeq	r8, r0, r4, lsr #29
    8dac:	00008e74 	andeq	r8, r0, r4, ror lr
    8db0:	00008ea4 	andeq	r8, r0, r4, lsr #29
    8db4:	00008e08 	andeq	r8, r0, r8, lsl #28
    8db8:	00008ea4 	andeq	r8, r0, r4, lsr #29
    8dbc:	00008ea4 	andeq	r8, r0, r4, lsr #29
    8dc0:	00008e2c 	andeq	r8, r0, ip, lsr #28
    8dc4:	ebfffefa 	bl	89b4 <rpi_reset_putc>
    8dc8:	e59f015c 	ldr	r0, [pc, #348]	; 8f2c <va_printk+0x28c>
    8dcc:	e59f1150 	ldr	r1, [pc, #336]	; 8f24 <va_printk+0x284>
    8dd0:	e59f2150 	ldr	r2, [pc, #336]	; 8f28 <va_printk+0x288>
    8dd4:	e3a03098 	mov	r3, #152	; 0x98
    8dd8:	ebfffeda 	bl	8948 <printk>
    8ddc:	eb00005c 	bl	8f54 <clean_reboot>
    8de0:	e5993000 	ldr	r3, [r9]
    8de4:	e2899004 	add	r9, r9, #4
    8de8:	e58d7000 	str	r7, [sp]
    8dec:	e3a02001 	mov	r2, #1
    8df0:	e58d2004 	str	r2, [sp, #4]
    8df4:	e3a0000a 	mov	r0, #10
    8df8:	e28d1008 	add	r1, sp, #8
    8dfc:	e3a02080 	mov	r2, #128	; 0x80
    8e00:	ebffff22 	bl	8a90 <emit>
    8e04:	ea00002f 	b	8ec8 <va_printk+0x228>
    8e08:	e5993000 	ldr	r3, [r9]
    8e0c:	e2899004 	add	r9, r9, #4
    8e10:	e58d7000 	str	r7, [sp]
    8e14:	e58db004 	str	fp, [sp, #4]
    8e18:	e3a0000a 	mov	r0, #10
    8e1c:	e28d1008 	add	r1, sp, #8
    8e20:	e3a02080 	mov	r2, #128	; 0x80
    8e24:	ebffff19 	bl	8a90 <emit>
    8e28:	ea000026 	b	8ec8 <va_printk+0x228>
    8e2c:	e5993000 	ldr	r3, [r9]
    8e30:	e2899004 	add	r9, r9, #4
    8e34:	e58d7000 	str	r7, [sp]
    8e38:	e58db004 	str	fp, [sp, #4]
    8e3c:	e3a00010 	mov	r0, #16
    8e40:	e28d1008 	add	r1, sp, #8
    8e44:	e3a02080 	mov	r2, #128	; 0x80
    8e48:	ebffff10 	bl	8a90 <emit>
    8e4c:	ea00001d 	b	8ec8 <va_printk+0x228>
    8e50:	e5993000 	ldr	r3, [r9]
    8e54:	e2899004 	add	r9, r9, #4
    8e58:	e58d7000 	str	r7, [sp]
    8e5c:	e58db004 	str	fp, [sp, #4]
    8e60:	e3a00002 	mov	r0, #2
    8e64:	e28d1008 	add	r1, sp, #8
    8e68:	e3a02080 	mov	r2, #128	; 0x80
    8e6c:	ebffff07 	bl	8a90 <emit>
    8e70:	ea000014 	b	8ec8 <va_printk+0x228>
    8e74:	e5990000 	ldr	r0, [r9]
    8e78:	e2899004 	add	r9, r9, #4
    8e7c:	ea000011 	b	8ec8 <va_printk+0x228>
    8e80:	e5993000 	ldr	r3, [r9]
    8e84:	e2899004 	add	r9, r9, #4
    8e88:	e58d7000 	str	r7, [sp]
    8e8c:	e58db004 	str	fp, [sp, #4]
    8e90:	e3a00008 	mov	r0, #8
    8e94:	e08d1000 	add	r1, sp, r0
    8e98:	e3a02080 	mov	r2, #128	; 0x80
    8e9c:	ebfffefb 	bl	8a90 <emit>
    8ea0:	ea000008 	b	8ec8 <va_printk+0x228>
    8ea4:	ebfffec2 	bl	89b4 <rpi_reset_putc>
    8ea8:	e5d63000 	ldrb	r3, [r6]
    8eac:	e58d3000 	str	r3, [sp]
    8eb0:	e59f0078 	ldr	r0, [pc, #120]	; 8f30 <va_printk+0x290>
    8eb4:	e59f1068 	ldr	r1, [pc, #104]	; 8f24 <va_printk+0x284>
    8eb8:	e59f2068 	ldr	r2, [pc, #104]	; 8f28 <va_printk+0x288>
    8ebc:	e3a030b9 	mov	r3, #185	; 0xb9
    8ec0:	ebfffea0 	bl	8948 <printk>
    8ec4:	eb000022 	bl	8f54 <clean_reboot>
    8ec8:	e2862001 	add	r2, r6, #1
    8ecc:	ea000002 	b	8edc <va_printk+0x23c>
    8ed0:	e2800001 	add	r0, r0, #1
    8ed4:	e5c43000 	strb	r3, [r4]
    8ed8:	e2844001 	add	r4, r4, #1
    8edc:	e1540008 	cmp	r4, r8
    8ee0:	2a000002 	bcs	8ef0 <va_printk+0x250>
    8ee4:	e5d03000 	ldrb	r3, [r0]
    8ee8:	e3530000 	cmp	r3, #0
    8eec:	1afffff7 	bne	8ed0 <va_printk+0x230>
    8ef0:	e5d23000 	ldrb	r3, [r2]
    8ef4:	e3530000 	cmp	r3, #0
    8ef8:	0a000001 	beq	8f04 <va_printk+0x264>
    8efc:	e1540008 	cmp	r4, r8
    8f00:	3affff71 	bcc	8ccc <va_printk+0x2c>
    8f04:	e2840001 	add	r0, r4, #1
    8f08:	e3a03000 	mov	r3, #0
    8f0c:	e5c43000 	strb	r3, [r4]
    8f10:	e06a0000 	rsb	r0, sl, r0
    8f14:	e28dd08c 	add	sp, sp, #140	; 0x8c
    8f18:	e8bd8ff0 	pop	{r4, r5, r6, r7, r8, r9, sl, fp, pc}
    8f1c:	0000a10c 	andeq	sl, r0, ip, lsl #2
    8f20:	0000a0b4 	strheq	sl, [r0], -r4
    8f24:	0000a0c8 	andeq	sl, r0, r8, asr #1
    8f28:	0000a0a8 	andeq	sl, r0, r8, lsr #1
    8f2c:	0000a118 	andeq	sl, r0, r8, lsl r1
    8f30:	0000a140 	andeq	sl, r0, r0, asr #2

00008f34 <enable_cache>:
    8f34:	ee113f10 	mrc	15, 0, r3, cr1, cr0, {0}
    8f38:	e3833b06 	orr	r3, r3, #6144	; 0x1800
    8f3c:	ee013f10 	mcr	15, 0, r3, cr1, cr0, {0}
    8f40:	e12fff1e 	bx	lr

00008f44 <disable_cache>:
    8f44:	ee113f10 	mrc	15, 0, r3, cr1, cr0, {0}
    8f48:	e3c33b06 	bic	r3, r3, #6144	; 0x1800
    8f4c:	ee013f10 	mcr	15, 0, r3, cr1, cr0, {0}
    8f50:	e12fff1e 	bx	lr

00008f54 <clean_reboot>:
    8f54:	e92d4008 	push	{r3, lr}
    8f58:	e59f3014 	ldr	r3, [pc, #20]	; 8f74 <clean_reboot+0x20>
    8f5c:	e5933000 	ldr	r3, [r3]
    8f60:	e59f0010 	ldr	r0, [pc, #16]	; 8f78 <clean_reboot+0x24>
    8f64:	e12fff33 	blx	r3
    8f68:	e3a00064 	mov	r0, #100	; 0x64
    8f6c:	eb000063 	bl	9100 <delay_ms>
    8f70:	eb000038 	bl	9058 <rpi_reboot>
    8f74:	00009f5c 	andeq	r9, r0, ip, asr pc
    8f78:	0000a178 	andeq	sl, r0, r8, ror r1

00008f7c <internal_sw_putchar>:
    8f7c:	e92d4010 	push	{r4, lr}
    8f80:	e1a04000 	mov	r4, r0
    8f84:	e59f000c 	ldr	r0, [pc, #12]	; 8f98 <internal_sw_putchar+0x1c>
    8f88:	e6ef1074 	uxtb	r1, r4
    8f8c:	eb0001cd 	bl	96c8 <sw_uart_putc>
    8f90:	e1a00004 	mov	r0, r4
    8f94:	e8bd8010 	pop	{r4, pc}
    8f98:	0000a6cc 	andeq	sl, r0, ip, asr #13

00008f9c <_cstart>:
    8f9c:	e92d4008 	push	{r3, lr}
    8fa0:	e59f3068 	ldr	r3, [pc, #104]	; 9010 <_cstart+0x74>
    8fa4:	e59f2068 	ldr	r2, [pc, #104]	; 9014 <_cstart+0x78>
    8fa8:	e3a01000 	mov	r1, #0
    8fac:	ea000001 	b	8fb8 <_cstart+0x1c>
    8fb0:	e5831000 	str	r1, [r3]
    8fb4:	e2833004 	add	r3, r3, #4
    8fb8:	e1530002 	cmp	r3, r2
    8fbc:	3afffffb 	bcc	8fb0 <_cstart+0x14>
    8fc0:	eb0003d2 	bl	9f10 <cb_get_block>
    8fc4:	e3500000 	cmp	r0, #0
    8fc8:	0a00000e 	beq	9008 <_cstart+0x6c>
    8fcc:	e5d02004 	ldrb	r2, [r0, #4]
    8fd0:	e3520002 	cmp	r2, #2
    8fd4:	1a00000b 	bne	9008 <_cstart+0x6c>
    8fd8:	e59f1038 	ldr	r1, [pc, #56]	; 9018 <_cstart+0x7c>
    8fdc:	e59f2038 	ldr	r2, [pc, #56]	; 901c <_cstart+0x80>
    8fe0:	e5821000 	str	r1, [r2]
    8fe4:	e59fc034 	ldr	ip, [pc, #52]	; 9020 <_cstart+0x84>
    8fe8:	e2803008 	add	r3, r0, #8
    8fec:	e8930007 	ldm	r3, {r0, r1, r2}
    8ff0:	e88c0007 	stm	ip, {r0, r1, r2}
    8ff4:	e1a0000c 	mov	r0, ip
    8ff8:	e59f1024 	ldr	r1, [pc, #36]	; 9024 <_cstart+0x88>
    8ffc:	eb000314 	bl	9c54 <sw_uart_printk>
    9000:	e59f0020 	ldr	r0, [pc, #32]	; 9028 <_cstart+0x8c>
    9004:	ebfffe4f 	bl	8948 <printk>
    9008:	ebfffe12 	bl	8858 <notmain>
    900c:	eb000011 	bl	9058 <rpi_reboot>
    9010:	0000a2cc 	andeq	sl, r0, ip, asr #5
    9014:	0000a6d8 	ldrdeq	sl, [r0], -r8
    9018:	00008f7c 	andeq	r8, r0, ip, ror pc
    901c:	00009f58 	andeq	r9, r0, r8, asr pc
    9020:	0000a6cc 	andeq	sl, r0, ip, asr #13
    9024:	0000a184 	andeq	sl, r0, r4, lsl #3
    9028:	0000a1a8 	andeq	sl, r0, r8, lsr #3

0000902c <at_user_level>:
    902c:	e10f0000 	mrs	r0, CPSR
    9030:	e200001f 	and	r0, r0, #31
    9034:	e3500010 	cmp	r0, #16
    9038:	13a00000 	movne	r0, #0
    903c:	03a00001 	moveq	r0, #1
    9040:	e12fff1e 	bx	lr

00009044 <set_user_level>:
    9044:	e10f3000 	mrs	r3, CPSR
    9048:	e3c3301f 	bic	r3, r3, #31
    904c:	e3833010 	orr	r3, r3, #16
    9050:	e129f003 	msr	CPSR_fc, r3
    9054:	e12fff1e 	bx	lr

00009058 <rpi_reboot>:
    9058:	e92d4008 	push	{r3, lr}
    905c:	ebfffff2 	bl	902c <at_user_level>
    9060:	e3500000 	cmp	r0, #0
    9064:	0a000000 	beq	906c <rpi_reboot+0x14>
    9068:	ebfffff5 	bl	9044 <set_user_level>
    906c:	e3a0001e 	mov	r0, #30
    9070:	eb000022 	bl	9100 <delay_ms>
    9074:	e59f0014 	ldr	r0, [pc, #20]	; 9090 <rpi_reboot+0x38>
    9078:	e59f1014 	ldr	r1, [pc, #20]	; 9094 <rpi_reboot+0x3c>
    907c:	eb000388 	bl	9ea4 <PUT32>
    9080:	e59f0010 	ldr	r0, [pc, #16]	; 9098 <rpi_reboot+0x40>
    9084:	e59f1010 	ldr	r1, [pc, #16]	; 909c <rpi_reboot+0x44>
    9088:	eb000385 	bl	9ea4 <PUT32>
    908c:	eafffffe 	b	908c <rpi_reboot+0x34>
    9090:	20100024 	andscs	r0, r0, r4, lsr #32
    9094:	5a000001 	bpl	90a0 <delay_cycles>
    9098:	2010001c 	andscs	r0, r0, ip, lsl r0
    909c:	5a000020 	bpl	9124 <delay_sec+0x10>

000090a0 <delay_cycles>:
    90a0:	ea000001 	b	90ac <delay_cycles+0xc>
    90a4:	e2811000 	add	r1, r1, #0
    90a8:	e1a00003 	mov	r0, r3
    90ac:	e2403001 	sub	r3, r0, #1
    90b0:	e3500000 	cmp	r0, #0
    90b4:	1afffffa 	bne	90a4 <delay_cycles+0x4>
    90b8:	e12fff1e 	bx	lr

000090bc <timer_get_usec_raw>:
    90bc:	e92d4008 	push	{r3, lr}
    90c0:	e59f0004 	ldr	r0, [pc, #4]	; 90cc <timer_get_usec_raw+0x10>
    90c4:	eb000382 	bl	9ed4 <GET32>
    90c8:	e8bd8008 	pop	{r3, pc}
    90cc:	20003004 	andcs	r3, r0, r4

000090d0 <timer_get_usec>:
    90d0:	e92d4008 	push	{r3, lr}
    90d4:	ebfffff8 	bl	90bc <timer_get_usec_raw>
    90d8:	e8bd8008 	pop	{r3, pc}

000090dc <delay_us>:
    90dc:	e92d4038 	push	{r3, r4, r5, lr}
    90e0:	e1a05000 	mov	r5, r0
    90e4:	ebfffff9 	bl	90d0 <timer_get_usec>
    90e8:	e1a04000 	mov	r4, r0
    90ec:	ebfffff7 	bl	90d0 <timer_get_usec>
    90f0:	e0640000 	rsb	r0, r4, r0
    90f4:	e1500005 	cmp	r0, r5
    90f8:	3afffffb 	bcc	90ec <delay_us+0x10>
    90fc:	e8bd8038 	pop	{r3, r4, r5, pc}

00009100 <delay_ms>:
    9100:	e92d4008 	push	{r3, lr}
    9104:	e3a03ffa 	mov	r3, #1000	; 0x3e8
    9108:	e0000093 	mul	r0, r3, r0
    910c:	ebfffff2 	bl	90dc <delay_us>
    9110:	e8bd8008 	pop	{r3, pc}

00009114 <delay_sec>:
    9114:	e92d4008 	push	{r3, lr}
    9118:	e3a03ffa 	mov	r3, #1000	; 0x3e8
    911c:	e0000093 	mul	r0, r3, r0
    9120:	ebfffff6 	bl	9100 <delay_ms>
    9124:	e8bd8008 	pop	{r3, pc}

00009128 <gpio_set_output>:
    9128:	e92d4038 	push	{r3, r4, r5, lr}
    912c:	e1a04000 	mov	r4, r0
    9130:	e350001f 	cmp	r0, #31
    9134:	88bd8038 	pophi	{r3, r4, r5, pc}
    9138:	e59f30b4 	ldr	r3, [pc, #180]	; 91f4 <gpio_set_output+0xcc>
    913c:	e0832093 	umull	r2, r3, r3, r0
    9140:	e1a031a3 	lsr	r3, r3, #3
    9144:	e3530005 	cmp	r3, #5
    9148:	979ff103 	ldrls	pc, [pc, r3, lsl #2]
    914c:	ea000017 	b	91b0 <gpio_set_output+0x88>
    9150:	00009168 	andeq	r9, r0, r8, ror #2
    9154:	00009174 	andeq	r9, r0, r4, ror r1
    9158:	00009180 	andeq	r9, r0, r0, lsl #3
    915c:	0000918c 	andeq	r9, r0, ip, lsl #3
    9160:	00009198 	muleq	r0, r8, r1
    9164:	000091a4 	andeq	r9, r0, r4, lsr #3
    9168:	e59f3088 	ldr	r3, [pc, #136]	; 91f8 <gpio_set_output+0xd0>
    916c:	e5935000 	ldr	r5, [r3]
    9170:	ea00000f 	b	91b4 <gpio_set_output+0x8c>
    9174:	e59f307c 	ldr	r3, [pc, #124]	; 91f8 <gpio_set_output+0xd0>
    9178:	e5935004 	ldr	r5, [r3, #4]
    917c:	ea00000c 	b	91b4 <gpio_set_output+0x8c>
    9180:	e59f3070 	ldr	r3, [pc, #112]	; 91f8 <gpio_set_output+0xd0>
    9184:	e5935008 	ldr	r5, [r3, #8]
    9188:	ea000009 	b	91b4 <gpio_set_output+0x8c>
    918c:	e59f3064 	ldr	r3, [pc, #100]	; 91f8 <gpio_set_output+0xd0>
    9190:	e593500c 	ldr	r5, [r3, #12]
    9194:	ea000006 	b	91b4 <gpio_set_output+0x8c>
    9198:	e59f3058 	ldr	r3, [pc, #88]	; 91f8 <gpio_set_output+0xd0>
    919c:	e5935010 	ldr	r5, [r3, #16]
    91a0:	ea000003 	b	91b4 <gpio_set_output+0x8c>
    91a4:	e59f304c 	ldr	r3, [pc, #76]	; 91f8 <gpio_set_output+0xd0>
    91a8:	e5935014 	ldr	r5, [r3, #20]
    91ac:	ea000000 	b	91b4 <gpio_set_output+0x8c>
    91b0:	e3a05000 	mov	r5, #0
    91b4:	e1a00005 	mov	r0, r5
    91b8:	eb000343 	bl	9ecc <get32>
    91bc:	e59f1030 	ldr	r1, [pc, #48]	; 91f4 <gpio_set_output+0xcc>
    91c0:	e0813491 	umull	r3, r1, r1, r4
    91c4:	e1a011a1 	lsr	r1, r1, #3
    91c8:	e0811101 	add	r1, r1, r1, lsl #2
    91cc:	e1a01081 	lsl	r1, r1, #1
    91d0:	e0611004 	rsb	r1, r1, r4
    91d4:	e0811081 	add	r1, r1, r1, lsl #1
    91d8:	e3a03007 	mov	r3, #7
    91dc:	e1c03113 	bic	r3, r0, r3, lsl r1
    91e0:	e1a00005 	mov	r0, r5
    91e4:	e3a02001 	mov	r2, #1
    91e8:	e1831112 	orr	r1, r3, r2, lsl r1
    91ec:	eb00032a 	bl	9e9c <put32>
    91f0:	e8bd8038 	pop	{r3, r4, r5, pc}
    91f4:	cccccccd 	stclgt	12, cr12, [ip], {205}	; 0xcd
    91f8:	00009f60 	andeq	r9, r0, r0, ror #30

000091fc <gpio_set_on>:
    91fc:	e92d4008 	push	{r3, lr}
    9200:	e350001f 	cmp	r0, #31
    9204:	88bd8008 	pophi	{r3, pc}
    9208:	959f3020 	ldrls	r3, [pc, #32]	; 9230 <gpio_set_on+0x34>
    920c:	95932018 	ldrls	r2, [r3, #24]
    9210:	859f3018 	ldrhi	r3, [pc, #24]	; 9230 <gpio_set_on+0x34>
    9214:	8593201c 	ldrhi	r2, [r3, #28]
    9218:	e200301f 	and	r3, r0, #31
    921c:	e1a00002 	mov	r0, r2
    9220:	e3a01001 	mov	r1, #1
    9224:	e1a01311 	lsl	r1, r1, r3
    9228:	eb00031b 	bl	9e9c <put32>
    922c:	e8bd8008 	pop	{r3, pc}
    9230:	00009f60 	andeq	r9, r0, r0, ror #30

00009234 <gpio_set_off>:
    9234:	e92d4008 	push	{r3, lr}
    9238:	e350001f 	cmp	r0, #31
    923c:	88bd8008 	pophi	{r3, pc}
    9240:	959f3020 	ldrls	r3, [pc, #32]	; 9268 <gpio_set_off+0x34>
    9244:	95932020 	ldrls	r2, [r3, #32]
    9248:	859f3018 	ldrhi	r3, [pc, #24]	; 9268 <gpio_set_off+0x34>
    924c:	85932024 	ldrhi	r2, [r3, #36]	; 0x24
    9250:	e200301f 	and	r3, r0, #31
    9254:	e1a00002 	mov	r0, r2
    9258:	e3a01001 	mov	r1, #1
    925c:	e1a01311 	lsl	r1, r1, r3
    9260:	eb00030d 	bl	9e9c <put32>
    9264:	e8bd8008 	pop	{r3, pc}
    9268:	00009f60 	andeq	r9, r0, r0, ror #30

0000926c <gpio_set_input>:
    926c:	e92d4038 	push	{r3, r4, r5, lr}
    9270:	e1a04000 	mov	r4, r0
    9274:	e350001f 	cmp	r0, #31
    9278:	88bd8038 	pophi	{r3, r4, r5, pc}
    927c:	e59f30ac 	ldr	r3, [pc, #172]	; 9330 <gpio_set_input+0xc4>
    9280:	e0832093 	umull	r2, r3, r3, r0
    9284:	e1a031a3 	lsr	r3, r3, #3
    9288:	e3530005 	cmp	r3, #5
    928c:	979ff103 	ldrls	pc, [pc, r3, lsl #2]
    9290:	ea000017 	b	92f4 <gpio_set_input+0x88>
    9294:	000092ac 	andeq	r9, r0, ip, lsr #5
    9298:	000092b8 			; <UNDEFINED> instruction: 0x000092b8
    929c:	000092c4 	andeq	r9, r0, r4, asr #5
    92a0:	000092d0 	ldrdeq	r9, [r0], -r0
    92a4:	000092dc 	ldrdeq	r9, [r0], -ip
    92a8:	000092e8 	andeq	r9, r0, r8, ror #5
    92ac:	e59f3080 	ldr	r3, [pc, #128]	; 9334 <gpio_set_input+0xc8>
    92b0:	e5935000 	ldr	r5, [r3]
    92b4:	ea00000f 	b	92f8 <gpio_set_input+0x8c>
    92b8:	e59f3074 	ldr	r3, [pc, #116]	; 9334 <gpio_set_input+0xc8>
    92bc:	e5935004 	ldr	r5, [r3, #4]
    92c0:	ea00000c 	b	92f8 <gpio_set_input+0x8c>
    92c4:	e59f3068 	ldr	r3, [pc, #104]	; 9334 <gpio_set_input+0xc8>
    92c8:	e5935008 	ldr	r5, [r3, #8]
    92cc:	ea000009 	b	92f8 <gpio_set_input+0x8c>
    92d0:	e59f305c 	ldr	r3, [pc, #92]	; 9334 <gpio_set_input+0xc8>
    92d4:	e593500c 	ldr	r5, [r3, #12]
    92d8:	ea000006 	b	92f8 <gpio_set_input+0x8c>
    92dc:	e59f3050 	ldr	r3, [pc, #80]	; 9334 <gpio_set_input+0xc8>
    92e0:	e5935010 	ldr	r5, [r3, #16]
    92e4:	ea000003 	b	92f8 <gpio_set_input+0x8c>
    92e8:	e59f3044 	ldr	r3, [pc, #68]	; 9334 <gpio_set_input+0xc8>
    92ec:	e5935014 	ldr	r5, [r3, #20]
    92f0:	ea000000 	b	92f8 <gpio_set_input+0x8c>
    92f4:	e3a05000 	mov	r5, #0
    92f8:	e1a00005 	mov	r0, r5
    92fc:	eb0002f2 	bl	9ecc <get32>
    9300:	e59f1028 	ldr	r1, [pc, #40]	; 9330 <gpio_set_input+0xc4>
    9304:	e0813491 	umull	r3, r1, r1, r4
    9308:	e1a011a1 	lsr	r1, r1, #3
    930c:	e0811101 	add	r1, r1, r1, lsl #2
    9310:	e1a01081 	lsl	r1, r1, #1
    9314:	e0611004 	rsb	r1, r1, r4
    9318:	e0811081 	add	r1, r1, r1, lsl #1
    931c:	e3a03007 	mov	r3, #7
    9320:	e1c01113 	bic	r1, r0, r3, lsl r1
    9324:	e1a00005 	mov	r0, r5
    9328:	eb0002db 	bl	9e9c <put32>
    932c:	e8bd8038 	pop	{r3, r4, r5, pc}
    9330:	cccccccd 	stclgt	12, cr12, [ip], {205}	; 0xcd
    9334:	00009f60 	andeq	r9, r0, r0, ror #30

00009338 <gpio_read>:
    9338:	e92d4010 	push	{r4, lr}
    933c:	e1a04000 	mov	r4, r0
    9340:	e350001f 	cmp	r0, #31
    9344:	8a00000b 	bhi	9378 <gpio_read+0x40>
    9348:	8a000003 	bhi	935c <gpio_read+0x24>
    934c:	e59f302c 	ldr	r3, [pc, #44]	; 9380 <gpio_read+0x48>
    9350:	e5930028 	ldr	r0, [r3, #40]	; 0x28
    9354:	eb0002dc 	bl	9ecc <get32>
    9358:	ea000002 	b	9368 <gpio_read+0x30>
    935c:	e59f301c 	ldr	r3, [pc, #28]	; 9380 <gpio_read+0x48>
    9360:	e593002c 	ldr	r0, [r3, #44]	; 0x2c
    9364:	eb0002d8 	bl	9ecc <get32>
    9368:	e204401f 	and	r4, r4, #31
    936c:	e3a03001 	mov	r3, #1
    9370:	e0000413 	and	r0, r0, r3, lsl r4
    9374:	e8bd8010 	pop	{r4, pc}
    9378:	e3e00000 	mvn	r0, #0
    937c:	e8bd8010 	pop	{r4, pc}
    9380:	00009f60 	andeq	r9, r0, r0, ror #30

00009384 <gpio_write>:
    9384:	e92d4008 	push	{r3, lr}
    9388:	e350001f 	cmp	r0, #31
    938c:	88bd8008 	pophi	{r3, pc}
    9390:	e3510000 	cmp	r1, #0
    9394:	0a000001 	beq	93a0 <gpio_write+0x1c>
    9398:	ebffff97 	bl	91fc <gpio_set_on>
    939c:	e8bd8008 	pop	{r3, pc}
    93a0:	ebffffa3 	bl	9234 <gpio_set_off>
    93a4:	e8bd8008 	pop	{r3, pc}

000093a8 <gpio_set_function>:
    93a8:	e92d4070 	push	{r4, r5, r6, lr}
    93ac:	e1a04000 	mov	r4, r0
    93b0:	e1a05001 	mov	r5, r1
    93b4:	e3510007 	cmp	r1, #7
    93b8:	9350001f 	cmpls	r0, #31
    93bc:	88bd8070 	pophi	{r4, r5, r6, pc}
    93c0:	e59f30b0 	ldr	r3, [pc, #176]	; 9478 <gpio_set_function+0xd0>
    93c4:	e0832093 	umull	r2, r3, r3, r0
    93c8:	e1a031a3 	lsr	r3, r3, #3
    93cc:	e3530005 	cmp	r3, #5
    93d0:	979ff103 	ldrls	pc, [pc, r3, lsl #2]
    93d4:	ea000017 	b	9438 <gpio_set_function+0x90>
    93d8:	000093f0 	strdeq	r9, [r0], -r0
    93dc:	000093fc 	strdeq	r9, [r0], -ip
    93e0:	00009408 	andeq	r9, r0, r8, lsl #8
    93e4:	00009414 	andeq	r9, r0, r4, lsl r4
    93e8:	00009420 	andeq	r9, r0, r0, lsr #8
    93ec:	0000942c 	andeq	r9, r0, ip, lsr #8
    93f0:	e59f3084 	ldr	r3, [pc, #132]	; 947c <gpio_set_function+0xd4>
    93f4:	e5936000 	ldr	r6, [r3]
    93f8:	ea00000f 	b	943c <gpio_set_function+0x94>
    93fc:	e59f3078 	ldr	r3, [pc, #120]	; 947c <gpio_set_function+0xd4>
    9400:	e5936004 	ldr	r6, [r3, #4]
    9404:	ea00000c 	b	943c <gpio_set_function+0x94>
    9408:	e59f306c 	ldr	r3, [pc, #108]	; 947c <gpio_set_function+0xd4>
    940c:	e5936008 	ldr	r6, [r3, #8]
    9410:	ea000009 	b	943c <gpio_set_function+0x94>
    9414:	e59f3060 	ldr	r3, [pc, #96]	; 947c <gpio_set_function+0xd4>
    9418:	e593600c 	ldr	r6, [r3, #12]
    941c:	ea000006 	b	943c <gpio_set_function+0x94>
    9420:	e59f3054 	ldr	r3, [pc, #84]	; 947c <gpio_set_function+0xd4>
    9424:	e5936010 	ldr	r6, [r3, #16]
    9428:	ea000003 	b	943c <gpio_set_function+0x94>
    942c:	e59f3048 	ldr	r3, [pc, #72]	; 947c <gpio_set_function+0xd4>
    9430:	e5936014 	ldr	r6, [r3, #20]
    9434:	ea000000 	b	943c <gpio_set_function+0x94>
    9438:	e3a06000 	mov	r6, #0
    943c:	e1a00006 	mov	r0, r6
    9440:	eb0002a1 	bl	9ecc <get32>
    9444:	e59f302c 	ldr	r3, [pc, #44]	; 9478 <gpio_set_function+0xd0>
    9448:	e0832493 	umull	r2, r3, r3, r4
    944c:	e1a031a3 	lsr	r3, r3, #3
    9450:	e0833103 	add	r3, r3, r3, lsl #2
    9454:	e1a03083 	lsl	r3, r3, #1
    9458:	e0633004 	rsb	r3, r3, r4
    945c:	e0833083 	add	r3, r3, r3, lsl #1
    9460:	e3a01007 	mov	r1, #7
    9464:	e1c01311 	bic	r1, r0, r1, lsl r3
    9468:	e1a00006 	mov	r0, r6
    946c:	e1811315 	orr	r1, r1, r5, lsl r3
    9470:	eb000289 	bl	9e9c <put32>
    9474:	e8bd8070 	pop	{r4, r5, r6, pc}
    9478:	cccccccd 	stclgt	12, cr12, [ip], {205}	; 0xcd
    947c:	00009f60 	andeq	r9, r0, r0, ror #30

00009480 <gpio_toggle>:
    9480:	e92d4008 	push	{r3, lr}
    9484:	e350001f 	cmp	r0, #31
    9488:	88bd8008 	pophi	{r3, pc}
    948c:	959f3020 	ldrls	r3, [pc, #32]	; 94b4 <gpio_toggle+0x34>
    9490:	95932018 	ldrls	r2, [r3, #24]
    9494:	859f3018 	ldrhi	r3, [pc, #24]	; 94b4 <gpio_toggle+0x34>
    9498:	8593201c 	ldrhi	r2, [r3, #28]
    949c:	e200301f 	and	r3, r0, #31
    94a0:	e1a00002 	mov	r0, r2
    94a4:	e3a01001 	mov	r1, #1
    94a8:	e1a01311 	lsl	r1, r1, r3
    94ac:	eb00027a 	bl	9e9c <put32>
    94b0:	e8bd8008 	pop	{r3, pc}
    94b4:	00009f60 	andeq	r9, r0, r0, ror #30

000094b8 <is_gpio_int>:
    94b8:	e92d4008 	push	{r3, lr}
    94bc:	e59f301c 	ldr	r3, [pc, #28]	; 94e0 <is_gpio_int+0x28>
    94c0:	e5930030 	ldr	r0, [r3, #48]	; 0x30
    94c4:	eb000280 	bl	9ecc <get32>
    94c8:	e3500000 	cmp	r0, #0
    94cc:	0a000001 	beq	94d8 <is_gpio_int+0x20>
    94d0:	e3a00001 	mov	r0, #1
    94d4:	e8bd8008 	pop	{r3, pc}
    94d8:	e3a00000 	mov	r0, #0
    94dc:	e8bd8008 	pop	{r3, pc}
    94e0:	00009f60 	andeq	r9, r0, r0, ror #30

000094e4 <gpio_int_rising_edge>:
    94e4:	e92d4038 	push	{r3, r4, r5, lr}
    94e8:	e1a04000 	mov	r4, r0
    94ec:	e350001f 	cmp	r0, #31
    94f0:	88bd8038 	pophi	{r3, r4, r5, pc}
    94f4:	eb000262 	bl	9e84 <dev_barrier>
    94f8:	e354001f 	cmp	r4, #31
    94fc:	8a000007 	bhi	9520 <gpio_int_rising_edge+0x3c>
    9500:	e59f505c 	ldr	r5, [pc, #92]	; 9564 <gpio_int_rising_edge+0x80>
    9504:	e5950034 	ldr	r0, [r5, #52]	; 0x34
    9508:	eb00026f 	bl	9ecc <get32>
    950c:	e3a01001 	mov	r1, #1
    9510:	e1801411 	orr	r1, r0, r1, lsl r4
    9514:	e5950034 	ldr	r0, [r5, #52]	; 0x34
    9518:	eb00025f 	bl	9e9c <put32>
    951c:	ea000007 	b	9540 <gpio_int_rising_edge+0x5c>
    9520:	e59f503c 	ldr	r5, [pc, #60]	; 9564 <gpio_int_rising_edge+0x80>
    9524:	e5950038 	ldr	r0, [r5, #56]	; 0x38
    9528:	eb000267 	bl	9ecc <get32>
    952c:	e204401f 	and	r4, r4, #31
    9530:	e3a01001 	mov	r1, #1
    9534:	e1801411 	orr	r1, r0, r1, lsl r4
    9538:	e5950038 	ldr	r0, [r5, #56]	; 0x38
    953c:	eb000256 	bl	9e9c <put32>
    9540:	eb00024f 	bl	9e84 <dev_barrier>
    9544:	e59f4018 	ldr	r4, [pc, #24]	; 9564 <gpio_int_rising_edge+0x80>
    9548:	e594003c 	ldr	r0, [r4, #60]	; 0x3c
    954c:	eb00025e 	bl	9ecc <get32>
    9550:	e3801802 	orr	r1, r0, #131072	; 0x20000
    9554:	e594003c 	ldr	r0, [r4, #60]	; 0x3c
    9558:	eb00024f 	bl	9e9c <put32>
    955c:	eb000248 	bl	9e84 <dev_barrier>
    9560:	e8bd8038 	pop	{r3, r4, r5, pc}
    9564:	00009f60 	andeq	r9, r0, r0, ror #30

00009568 <gpio_int_falling_edge>:
    9568:	e92d4038 	push	{r3, r4, r5, lr}
    956c:	e1a04000 	mov	r4, r0
    9570:	e350001f 	cmp	r0, #31
    9574:	88bd8038 	pophi	{r3, r4, r5, pc}
    9578:	eb000241 	bl	9e84 <dev_barrier>
    957c:	e354001f 	cmp	r4, #31
    9580:	8a000007 	bhi	95a4 <gpio_int_falling_edge+0x3c>
    9584:	e59f505c 	ldr	r5, [pc, #92]	; 95e8 <gpio_int_falling_edge+0x80>
    9588:	e5950040 	ldr	r0, [r5, #64]	; 0x40
    958c:	eb00024e 	bl	9ecc <get32>
    9590:	e3a01001 	mov	r1, #1
    9594:	e1801411 	orr	r1, r0, r1, lsl r4
    9598:	e5950040 	ldr	r0, [r5, #64]	; 0x40
    959c:	eb00023e 	bl	9e9c <put32>
    95a0:	ea000007 	b	95c4 <gpio_int_falling_edge+0x5c>
    95a4:	e59f503c 	ldr	r5, [pc, #60]	; 95e8 <gpio_int_falling_edge+0x80>
    95a8:	e5950044 	ldr	r0, [r5, #68]	; 0x44
    95ac:	eb000246 	bl	9ecc <get32>
    95b0:	e204401f 	and	r4, r4, #31
    95b4:	e3a01001 	mov	r1, #1
    95b8:	e1801411 	orr	r1, r0, r1, lsl r4
    95bc:	e5950044 	ldr	r0, [r5, #68]	; 0x44
    95c0:	eb000235 	bl	9e9c <put32>
    95c4:	eb00022e 	bl	9e84 <dev_barrier>
    95c8:	e59f4018 	ldr	r4, [pc, #24]	; 95e8 <gpio_int_falling_edge+0x80>
    95cc:	e594003c 	ldr	r0, [r4, #60]	; 0x3c
    95d0:	eb00023d 	bl	9ecc <get32>
    95d4:	e3801601 	orr	r1, r0, #1048576	; 0x100000
    95d8:	e594003c 	ldr	r0, [r4, #60]	; 0x3c
    95dc:	eb00022e 	bl	9e9c <put32>
    95e0:	eb000227 	bl	9e84 <dev_barrier>
    95e4:	e8bd8038 	pop	{r3, r4, r5, pc}
    95e8:	00009f60 	andeq	r9, r0, r0, ror #30

000095ec <gpio_event_detected>:
    95ec:	e92d4010 	push	{r4, lr}
    95f0:	e1a04000 	mov	r4, r0
    95f4:	e350001f 	cmp	r0, #31
    95f8:	8a000019 	bhi	9664 <gpio_event_detected+0x78>
    95fc:	eb000220 	bl	9e84 <dev_barrier>
    9600:	e354001f 	cmp	r4, #31
    9604:	8a000008 	bhi	962c <gpio_event_detected+0x40>
    9608:	e59f305c 	ldr	r3, [pc, #92]	; 966c <gpio_event_detected+0x80>
    960c:	e5930048 	ldr	r0, [r3, #72]	; 0x48
    9610:	eb00022d 	bl	9ecc <get32>
    9614:	e3a03001 	mov	r3, #1
    9618:	e0103413 	ands	r3, r0, r3, lsl r4
    961c:	0a00000d 	beq	9658 <gpio_event_detected+0x6c>
    9620:	eb000217 	bl	9e84 <dev_barrier>
    9624:	e3a00001 	mov	r0, #1
    9628:	e8bd8010 	pop	{r4, pc}
    962c:	e59f3038 	ldr	r3, [pc, #56]	; 966c <gpio_event_detected+0x80>
    9630:	e593004c 	ldr	r0, [r3, #76]	; 0x4c
    9634:	eb000224 	bl	9ecc <get32>
    9638:	e3a03001 	mov	r3, #1
    963c:	e0004413 	and	r4, r0, r3, lsl r4
    9640:	eb00020f 	bl	9e84 <dev_barrier>
    9644:	e3540000 	cmp	r4, #0
    9648:	0a000002 	beq	9658 <gpio_event_detected+0x6c>
    964c:	eb00020c 	bl	9e84 <dev_barrier>
    9650:	e3a00001 	mov	r0, #1
    9654:	e8bd8010 	pop	{r4, pc}
    9658:	eb000209 	bl	9e84 <dev_barrier>
    965c:	e3a00000 	mov	r0, #0
    9660:	e8bd8010 	pop	{r4, pc}
    9664:	e3e00000 	mvn	r0, #0
    9668:	e8bd8010 	pop	{r4, pc}
    966c:	00009f60 	andeq	r9, r0, r0, ror #30

00009670 <gpio_event_clear>:
    9670:	e92d4010 	push	{r4, lr}
    9674:	e1a04000 	mov	r4, r0
    9678:	e350001f 	cmp	r0, #31
    967c:	88bd8010 	pophi	{r4, pc}
    9680:	eb0001ff 	bl	9e84 <dev_barrier>
    9684:	e354001f 	cmp	r4, #31
    9688:	8a000005 	bhi	96a4 <gpio_event_clear+0x34>
    968c:	e59f3030 	ldr	r3, [pc, #48]	; 96c4 <gpio_event_clear+0x54>
    9690:	e5930048 	ldr	r0, [r3, #72]	; 0x48
    9694:	e3a01001 	mov	r1, #1
    9698:	e1a01411 	lsl	r1, r1, r4
    969c:	eb0001fe 	bl	9e9c <put32>
    96a0:	ea000005 	b	96bc <gpio_event_clear+0x4c>
    96a4:	e204401f 	and	r4, r4, #31
    96a8:	e59f3014 	ldr	r3, [pc, #20]	; 96c4 <gpio_event_clear+0x54>
    96ac:	e593004c 	ldr	r0, [r3, #76]	; 0x4c
    96b0:	e3a01001 	mov	r1, #1
    96b4:	e1a01411 	lsl	r1, r1, r4
    96b8:	eb0001f7 	bl	9e9c <put32>
    96bc:	eb0001f0 	bl	9e84 <dev_barrier>
    96c0:	e8bd8010 	pop	{r4, pc}
    96c4:	00009f60 	andeq	r9, r0, r0, ror #30

000096c8 <sw_uart_putc>:
    96c8:	e92d41f0 	push	{r4, r5, r6, r7, r8, lr}
    96cc:	e1a07001 	mov	r7, r1
    96d0:	e5d06000 	ldrb	r6, [r0]
    96d4:	e5905008 	ldr	r5, [r0, #8]
    96d8:	ee1f4f3c 	mrc	15, 0, r4, cr15, cr12, {1}
    96dc:	e1a00006 	mov	r0, r6
    96e0:	e3a01000 	mov	r1, #0
    96e4:	ebffff26 	bl	9384 <gpio_write>
    96e8:	ee1f3f3c 	mrc	15, 0, r3, cr15, cr12, {1}
    96ec:	e0643003 	rsb	r3, r4, r3
    96f0:	e1550003 	cmp	r5, r3
    96f4:	8afffffb 	bhi	96e8 <sw_uart_putc+0x20>
    96f8:	e1a08085 	lsl	r8, r5, #1
    96fc:	e1a00006 	mov	r0, r6
    9700:	e2071001 	and	r1, r7, #1
    9704:	ebffff1e 	bl	9384 <gpio_write>
    9708:	ee1f3f3c 	mrc	15, 0, r3, cr15, cr12, {1}
    970c:	e0643003 	rsb	r3, r4, r3
    9710:	e1580003 	cmp	r8, r3
    9714:	8afffffb 	bhi	9708 <sw_uart_putc+0x40>
    9718:	e0888005 	add	r8, r8, r5
    971c:	e1a00006 	mov	r0, r6
    9720:	e2071002 	and	r1, r7, #2
    9724:	ebffff16 	bl	9384 <gpio_write>
    9728:	ee1f3f3c 	mrc	15, 0, r3, cr15, cr12, {1}
    972c:	e0643003 	rsb	r3, r4, r3
    9730:	e1580003 	cmp	r8, r3
    9734:	8afffffb 	bhi	9728 <sw_uart_putc+0x60>
    9738:	e0888005 	add	r8, r8, r5
    973c:	e1a00006 	mov	r0, r6
    9740:	e2071004 	and	r1, r7, #4
    9744:	ebffff0e 	bl	9384 <gpio_write>
    9748:	ee1f3f3c 	mrc	15, 0, r3, cr15, cr12, {1}
    974c:	e0643003 	rsb	r3, r4, r3
    9750:	e1580003 	cmp	r8, r3
    9754:	8afffffb 	bhi	9748 <sw_uart_putc+0x80>
    9758:	e0888005 	add	r8, r8, r5
    975c:	e1a00006 	mov	r0, r6
    9760:	e2071008 	and	r1, r7, #8
    9764:	ebffff06 	bl	9384 <gpio_write>
    9768:	ee1f3f3c 	mrc	15, 0, r3, cr15, cr12, {1}
    976c:	e0643003 	rsb	r3, r4, r3
    9770:	e1580003 	cmp	r8, r3
    9774:	8afffffb 	bhi	9768 <sw_uart_putc+0xa0>
    9778:	e0888005 	add	r8, r8, r5
    977c:	e1a00006 	mov	r0, r6
    9780:	e2071010 	and	r1, r7, #16
    9784:	ebfffefe 	bl	9384 <gpio_write>
    9788:	ee1f3f3c 	mrc	15, 0, r3, cr15, cr12, {1}
    978c:	e0643003 	rsb	r3, r4, r3
    9790:	e1580003 	cmp	r8, r3
    9794:	8afffffb 	bhi	9788 <sw_uart_putc+0xc0>
    9798:	e0888005 	add	r8, r8, r5
    979c:	e1a00006 	mov	r0, r6
    97a0:	e2071020 	and	r1, r7, #32
    97a4:	ebfffef6 	bl	9384 <gpio_write>
    97a8:	ee1f3f3c 	mrc	15, 0, r3, cr15, cr12, {1}
    97ac:	e0643003 	rsb	r3, r4, r3
    97b0:	e1580003 	cmp	r8, r3
    97b4:	8afffffb 	bhi	97a8 <sw_uart_putc+0xe0>
    97b8:	e0888005 	add	r8, r8, r5
    97bc:	e1a00006 	mov	r0, r6
    97c0:	e2071040 	and	r1, r7, #64	; 0x40
    97c4:	ebfffeee 	bl	9384 <gpio_write>
    97c8:	ee1f3f3c 	mrc	15, 0, r3, cr15, cr12, {1}
    97cc:	e0643003 	rsb	r3, r4, r3
    97d0:	e1580003 	cmp	r8, r3
    97d4:	8afffffb 	bhi	97c8 <sw_uart_putc+0x100>
    97d8:	e0888005 	add	r8, r8, r5
    97dc:	e1a00006 	mov	r0, r6
    97e0:	e2071080 	and	r1, r7, #128	; 0x80
    97e4:	ebfffee6 	bl	9384 <gpio_write>
    97e8:	ee1f3f3c 	mrc	15, 0, r3, cr15, cr12, {1}
    97ec:	e0643003 	rsb	r3, r4, r3
    97f0:	e1580003 	cmp	r8, r3
    97f4:	8afffffb 	bhi	97e8 <sw_uart_putc+0x120>
    97f8:	e0885005 	add	r5, r8, r5
    97fc:	e1a00006 	mov	r0, r6
    9800:	e3a01001 	mov	r1, #1
    9804:	ebfffede 	bl	9384 <gpio_write>
    9808:	ee1f3f3c 	mrc	15, 0, r3, cr15, cr12, {1}
    980c:	e0643003 	rsb	r3, r4, r3
    9810:	e1550003 	cmp	r5, r3
    9814:	8afffffb 	bhi	9808 <sw_uart_putc+0x140>
    9818:	e8bd81f0 	pop	{r4, r5, r6, r7, r8, pc}

0000981c <sw_uart_getc_timeout>:
    981c:	e92d43f8 	push	{r3, r4, r5, r6, r7, r8, r9, lr}
    9820:	e1a09000 	mov	r9, r0
    9824:	e5d07001 	ldrb	r7, [r0, #1]
    9828:	e1a05007 	mov	r5, r7
    982c:	e1a06001 	mov	r6, r1
    9830:	ebfffe21 	bl	90bc <timer_get_usec_raw>
    9834:	e1a04000 	mov	r4, r0
    9838:	e1a00005 	mov	r0, r5
    983c:	ebfffebd 	bl	9338 <gpio_read>
    9840:	e3500000 	cmp	r0, #0
    9844:	0a000005 	beq	9860 <sw_uart_getc_timeout+0x44>
    9848:	ebfffe1b 	bl	90bc <timer_get_usec_raw>
    984c:	e0640000 	rsb	r0, r4, r0
    9850:	e1560000 	cmp	r6, r0
    9854:	2afffff7 	bcs	9838 <sw_uart_getc_timeout+0x1c>
    9858:	e3a03000 	mov	r3, #0
    985c:	ea000000 	b	9864 <sw_uart_getc_timeout+0x48>
    9860:	e3a03001 	mov	r3, #1
    9864:	e3530000 	cmp	r3, #0
    9868:	0a000059 	beq	99d4 <sw_uart_getc_timeout+0x1b8>
    986c:	ee1f8f3c 	mrc	15, 0, r8, cr15, cr12, {1}
    9870:	e5994008 	ldr	r4, [r9, #8]
    9874:	e08420a4 	add	r2, r4, r4, lsr #1
    9878:	ee1f3f3c 	mrc	15, 0, r3, cr15, cr12, {1}
    987c:	e0683003 	rsb	r3, r8, r3
    9880:	e1520003 	cmp	r2, r3
    9884:	8afffffb 	bhi	9878 <sw_uart_getc_timeout+0x5c>
    9888:	e0888004 	add	r8, r8, r4
    988c:	e1a00007 	mov	r0, r7
    9890:	ebfffea8 	bl	9338 <gpio_read>
    9894:	e1a09750 	asr	r9, r0, r7
    9898:	ee1f3f3c 	mrc	15, 0, r3, cr15, cr12, {1}
    989c:	e0683003 	rsb	r3, r8, r3
    98a0:	e1540003 	cmp	r4, r3
    98a4:	8afffffb 	bhi	9898 <sw_uart_getc_timeout+0x7c>
    98a8:	e0888004 	add	r8, r8, r4
    98ac:	e1a00007 	mov	r0, r7
    98b0:	ebfffea0 	bl	9338 <gpio_read>
    98b4:	e1a00750 	asr	r0, r0, r7
    98b8:	e1899080 	orr	r9, r9, r0, lsl #1
    98bc:	ee1f3f3c 	mrc	15, 0, r3, cr15, cr12, {1}
    98c0:	e0683003 	rsb	r3, r8, r3
    98c4:	e1540003 	cmp	r4, r3
    98c8:	8afffffb 	bhi	98bc <sw_uart_getc_timeout+0xa0>
    98cc:	e0888004 	add	r8, r8, r4
    98d0:	e1a00007 	mov	r0, r7
    98d4:	ebfffe97 	bl	9338 <gpio_read>
    98d8:	e1a00750 	asr	r0, r0, r7
    98dc:	e1899100 	orr	r9, r9, r0, lsl #2
    98e0:	ee1f3f3c 	mrc	15, 0, r3, cr15, cr12, {1}
    98e4:	e0683003 	rsb	r3, r8, r3
    98e8:	e1540003 	cmp	r4, r3
    98ec:	8afffffb 	bhi	98e0 <sw_uart_getc_timeout+0xc4>
    98f0:	e0888004 	add	r8, r8, r4
    98f4:	e1a00007 	mov	r0, r7
    98f8:	ebfffe8e 	bl	9338 <gpio_read>
    98fc:	e1a00750 	asr	r0, r0, r7
    9900:	e1899180 	orr	r9, r9, r0, lsl #3
    9904:	ee1f3f3c 	mrc	15, 0, r3, cr15, cr12, {1}
    9908:	e0683003 	rsb	r3, r8, r3
    990c:	e1540003 	cmp	r4, r3
    9910:	8afffffb 	bhi	9904 <sw_uart_getc_timeout+0xe8>
    9914:	e0888004 	add	r8, r8, r4
    9918:	e1a00007 	mov	r0, r7
    991c:	ebfffe85 	bl	9338 <gpio_read>
    9920:	e1a00750 	asr	r0, r0, r7
    9924:	e1899200 	orr	r9, r9, r0, lsl #4
    9928:	ee1f3f3c 	mrc	15, 0, r3, cr15, cr12, {1}
    992c:	e0683003 	rsb	r3, r8, r3
    9930:	e1540003 	cmp	r4, r3
    9934:	8afffffb 	bhi	9928 <sw_uart_getc_timeout+0x10c>
    9938:	e0888004 	add	r8, r8, r4
    993c:	e1a00007 	mov	r0, r7
    9940:	ebfffe7c 	bl	9338 <gpio_read>
    9944:	e1a00750 	asr	r0, r0, r7
    9948:	e1899280 	orr	r9, r9, r0, lsl #5
    994c:	ee1f3f3c 	mrc	15, 0, r3, cr15, cr12, {1}
    9950:	e0683003 	rsb	r3, r8, r3
    9954:	e1540003 	cmp	r4, r3
    9958:	8afffffb 	bhi	994c <sw_uart_getc_timeout+0x130>
    995c:	e0888004 	add	r8, r8, r4
    9960:	e1a00007 	mov	r0, r7
    9964:	ebfffe73 	bl	9338 <gpio_read>
    9968:	e1a00750 	asr	r0, r0, r7
    996c:	e1899300 	orr	r9, r9, r0, lsl #6
    9970:	ee1f3f3c 	mrc	15, 0, r3, cr15, cr12, {1}
    9974:	e0683003 	rsb	r3, r8, r3
    9978:	e1540003 	cmp	r4, r3
    997c:	8afffffb 	bhi	9970 <sw_uart_getc_timeout+0x154>
    9980:	e1a00007 	mov	r0, r7
    9984:	ebfffe6b 	bl	9338 <gpio_read>
    9988:	e1a00750 	asr	r0, r0, r7
    998c:	e1899380 	orr	r9, r9, r0, lsl #7
    9990:	ebfffdc9 	bl	90bc <timer_get_usec_raw>
    9994:	e1a04000 	mov	r4, r0
    9998:	e1a00005 	mov	r0, r5
    999c:	ebfffe65 	bl	9338 <gpio_read>
    99a0:	e3500000 	cmp	r0, #0
    99a4:	0a000005 	beq	99c0 <sw_uart_getc_timeout+0x1a4>
    99a8:	ebfffdc3 	bl	90bc <timer_get_usec_raw>
    99ac:	e0640000 	rsb	r0, r4, r0
    99b0:	e1560000 	cmp	r6, r0
    99b4:	2afffff7 	bcs	9998 <sw_uart_getc_timeout+0x17c>
    99b8:	e3a03000 	mov	r3, #0
    99bc:	ea000000 	b	99c4 <sw_uart_getc_timeout+0x1a8>
    99c0:	e3a03001 	mov	r3, #1
    99c4:	e3530000 	cmp	r3, #0
    99c8:	0a000003 	beq	99dc <sw_uart_getc_timeout+0x1c0>
    99cc:	e1a00009 	mov	r0, r9
    99d0:	e8bd83f8 	pop	{r3, r4, r5, r6, r7, r8, r9, pc}
    99d4:	e3e00000 	mvn	r0, #0
    99d8:	e8bd83f8 	pop	{r3, r4, r5, r6, r7, r8, r9, pc}
    99dc:	e3e00000 	mvn	r0, #0
    99e0:	e8bd83f8 	pop	{r3, r4, r5, r6, r7, r8, r9, pc}

000099e4 <sw_uart_gets_until>:
    99e4:	e92d47f0 	push	{r4, r5, r6, r7, r8, r9, sl, lr}
    99e8:	e24dd008 	sub	sp, sp, #8
    99ec:	e1a08000 	mov	r8, r0
    99f0:	e1a06001 	mov	r6, r1
    99f4:	e1a09003 	mov	r9, r3
    99f8:	e59da028 	ldr	sl, [sp, #40]	; 0x28
    99fc:	e3520000 	cmp	r2, #0
    9a00:	1a000008 	bne	9a28 <sw_uart_gets_until+0x44>
    9a04:	ebfffbea 	bl	89b4 <rpi_reset_putc>
    9a08:	e59f3068 	ldr	r3, [pc, #104]	; 9a78 <sw_uart_gets_until+0x94>
    9a0c:	e58d3000 	str	r3, [sp]
    9a10:	e59f0064 	ldr	r0, [pc, #100]	; 9a7c <sw_uart_gets_until+0x98>
    9a14:	e59f1064 	ldr	r1, [pc, #100]	; 9a80 <sw_uart_gets_until+0x9c>
    9a18:	e59f2064 	ldr	r2, [pc, #100]	; 9a84 <sw_uart_gets_until+0xa0>
    9a1c:	e3a0306d 	mov	r3, #109	; 0x6d
    9a20:	ebfffbc8 	bl	8948 <printk>
    9a24:	ebfffd4a 	bl	8f54 <clean_reboot>
    9a28:	e3a04000 	mov	r4, #0
    9a2c:	e5c14000 	strb	r4, [r1]
    9a30:	e2427001 	sub	r7, r2, #1
    9a34:	ea000007 	b	9a58 <sw_uart_gets_until+0x74>
    9a38:	e1a00008 	mov	r0, r8
    9a3c:	e1a0100a 	mov	r1, sl
    9a40:	ebffff75 	bl	981c <sw_uart_getc_timeout>
    9a44:	e6ef0070 	uxtb	r0, r0
    9a48:	e1500009 	cmp	r0, r9
    9a4c:	0a000004 	beq	9a64 <sw_uart_gets_until+0x80>
    9a50:	e7c60005 	strb	r0, [r6, r5]
    9a54:	e2844001 	add	r4, r4, #1
    9a58:	e1a05004 	mov	r5, r4
    9a5c:	e1540007 	cmp	r4, r7
    9a60:	3afffff4 	bcc	9a38 <sw_uart_gets_until+0x54>
    9a64:	e3a03000 	mov	r3, #0
    9a68:	e7c63005 	strb	r3, [r6, r5]
    9a6c:	e1a00004 	mov	r0, r4
    9a70:	e28dd008 	add	sp, sp, #8
    9a74:	e8bd87f0 	pop	{r4, r5, r6, r7, r8, r9, sl, pc}
    9a78:	0000a240 	andeq	sl, r0, r0, asr #4
    9a7c:	0000a0b4 	strheq	sl, [r0], -r4
    9a80:	0000a22c 	andeq	sl, r0, ip, lsr #4
    9a84:	0000a1b4 			; <UNDEFINED> instruction: 0x0000a1b4

00009a88 <sw_uart_gets_timeout>:
    9a88:	e92d41f0 	push	{r4, r5, r6, r7, r8, lr}
    9a8c:	e24dd008 	sub	sp, sp, #8
    9a90:	e1a07000 	mov	r7, r0
    9a94:	e1a05001 	mov	r5, r1
    9a98:	e1a08003 	mov	r8, r3
    9a9c:	e3520000 	cmp	r2, #0
    9aa0:	1a000008 	bne	9ac8 <sw_uart_gets_timeout+0x40>
    9aa4:	ebfffbc2 	bl	89b4 <rpi_reset_putc>
    9aa8:	e59f3058 	ldr	r3, [pc, #88]	; 9b08 <sw_uart_gets_timeout+0x80>
    9aac:	e58d3000 	str	r3, [sp]
    9ab0:	e59f0054 	ldr	r0, [pc, #84]	; 9b0c <sw_uart_gets_timeout+0x84>
    9ab4:	e59f1054 	ldr	r1, [pc, #84]	; 9b10 <sw_uart_gets_timeout+0x88>
    9ab8:	e59f2054 	ldr	r2, [pc, #84]	; 9b14 <sw_uart_gets_timeout+0x8c>
    9abc:	e3a03083 	mov	r3, #131	; 0x83
    9ac0:	ebfffba0 	bl	8948 <printk>
    9ac4:	ebfffd22 	bl	8f54 <clean_reboot>
    9ac8:	e3a04000 	mov	r4, #0
    9acc:	e5c14000 	strb	r4, [r1]
    9ad0:	e2426001 	sub	r6, r2, #1
    9ad4:	ea000004 	b	9aec <sw_uart_gets_timeout+0x64>
    9ad8:	e1a00007 	mov	r0, r7
    9adc:	e1a01008 	mov	r1, r8
    9ae0:	ebffff4d 	bl	981c <sw_uart_getc_timeout>
    9ae4:	e7c50004 	strb	r0, [r5, r4]
    9ae8:	e2844001 	add	r4, r4, #1
    9aec:	e1540006 	cmp	r4, r6
    9af0:	3afffff8 	bcc	9ad8 <sw_uart_gets_timeout+0x50>
    9af4:	e3a03000 	mov	r3, #0
    9af8:	e7c53004 	strb	r3, [r5, r4]
    9afc:	e1a00004 	mov	r0, r4
    9b00:	e28dd008 	add	sp, sp, #8
    9b04:	e8bd81f0 	pop	{r4, r5, r6, r7, r8, pc}
    9b08:	0000a240 	andeq	sl, r0, r0, asr #4
    9b0c:	0000a0b4 	strheq	sl, [r0], -r4
    9b10:	0000a22c 	andeq	sl, r0, ip, lsr #4
    9b14:	0000a1c8 	andeq	sl, r0, r8, asr #3

00009b18 <sw_uart_init_helper>:
    9b18:	e92d41f0 	push	{r4, r5, r6, r7, r8, lr}
    9b1c:	e24dd008 	sub	sp, sp, #8
    9b20:	e1a04000 	mov	r4, r0
    9b24:	e1a06001 	mov	r6, r1
    9b28:	e1a08002 	mov	r8, r2
    9b2c:	e1a05003 	mov	r5, r3
    9b30:	e59d7020 	ldr	r7, [sp, #32]
    9b34:	e1a00001 	mov	r0, r1
    9b38:	ebfffd7a 	bl	9128 <gpio_set_output>
    9b3c:	e1a00008 	mov	r0, r8
    9b40:	ebfffdc9 	bl	926c <gpio_set_input>
    9b44:	e3a03001 	mov	r3, #1
    9b48:	ee0f3f1c 	mcr	15, 0, r3, cr15, cr12, {0}
    9b4c:	e1a00006 	mov	r0, r6
    9b50:	e3a01001 	mov	r1, #1
    9b54:	ebfffe0a 	bl	9384 <gpio_write>
    9b58:	e0020795 	mul	r2, r5, r7
    9b5c:	e59f3074 	ldr	r3, [pc, #116]	; 9bd8 <sw_uart_init_helper+0xc0>
    9b60:	e0653003 	rsb	r3, r5, r3
    9b64:	e1530002 	cmp	r3, r2
    9b68:	8a000005 	bhi	9b84 <sw_uart_init_helper+0x6c>
    9b6c:	e59f3064 	ldr	r3, [pc, #100]	; 9bd8 <sw_uart_init_helper+0xc0>
    9b70:	e0853003 	add	r3, r5, r3
    9b74:	e1530002 	cmp	r3, r2
    9b78:	2a000003 	bcs	9b8c <sw_uart_init_helper+0x74>
    9b7c:	e3a03000 	mov	r3, #0
    9b80:	ea000002 	b	9b90 <sw_uart_init_helper+0x78>
    9b84:	e3a03000 	mov	r3, #0
    9b88:	ea000000 	b	9b90 <sw_uart_init_helper+0x78>
    9b8c:	e3a03001 	mov	r3, #1
    9b90:	e3530000 	cmp	r3, #0
    9b94:	1a000008 	bne	9bbc <sw_uart_init_helper+0xa4>
    9b98:	ebfffb85 	bl	89b4 <rpi_reset_putc>
    9b9c:	e59f3038 	ldr	r3, [pc, #56]	; 9bdc <sw_uart_init_helper+0xc4>
    9ba0:	e58d3000 	str	r3, [sp]
    9ba4:	e59f0034 	ldr	r0, [pc, #52]	; 9be0 <sw_uart_init_helper+0xc8>
    9ba8:	e59f1034 	ldr	r1, [pc, #52]	; 9be4 <sw_uart_init_helper+0xcc>
    9bac:	e59f2034 	ldr	r2, [pc, #52]	; 9be8 <sw_uart_init_helper+0xd0>
    9bb0:	e3a0309d 	mov	r3, #157	; 0x9d
    9bb4:	ebfffb63 	bl	8948 <printk>
    9bb8:	ebfffce5 	bl	8f54 <clean_reboot>
    9bbc:	e5c46000 	strb	r6, [r4]
    9bc0:	e5c48001 	strb	r8, [r4, #1]
    9bc4:	e5845004 	str	r5, [r4, #4]
    9bc8:	e5847008 	str	r7, [r4, #8]
    9bcc:	e1a00004 	mov	r0, r4
    9bd0:	e28dd008 	add	sp, sp, #8
    9bd4:	e8bd81f0 	pop	{r4, r5, r6, r7, r8, pc}
    9bd8:	29b92700 	ldmibcs	r9!, {r8, r9, sl, sp}
    9bdc:	0000a24c 	andeq	sl, r0, ip, asr #4
    9be0:	0000a0b4 	strheq	sl, [r0], -r4
    9be4:	0000a22c 	andeq	sl, r0, ip, lsr #4
    9be8:	0000a1e0 	andeq	sl, r0, r0, ror #3

00009bec <sw_uart_getc>:
    9bec:	e92d4008 	push	{r3, lr}
    9bf0:	e3e01000 	mvn	r1, #0
    9bf4:	ebffff08 	bl	981c <sw_uart_getc_timeout>
    9bf8:	e3500000 	cmp	r0, #0
    9bfc:	a8bd8008 	popge	{r3, pc}
    9c00:	ebfffb6b 	bl	89b4 <rpi_reset_putc>
    9c04:	e59f0010 	ldr	r0, [pc, #16]	; 9c1c <sw_uart_getc+0x30>
    9c08:	e59f1010 	ldr	r1, [pc, #16]	; 9c20 <sw_uart_getc+0x34>
    9c0c:	e59f2010 	ldr	r2, [pc, #16]	; 9c24 <sw_uart_getc+0x38>
    9c10:	e3a030ac 	mov	r3, #172	; 0xac
    9c14:	ebfffb4b 	bl	8948 <printk>
    9c18:	ebfffccd 	bl	8f54 <clean_reboot>
    9c1c:	0000a280 	andeq	sl, r0, r0, lsl #5
    9c20:	0000a22c 	andeq	sl, r0, ip, lsr #4
    9c24:	0000a1f4 	strdeq	sl, [r0], -r4

00009c28 <sw_uart_putk>:
    9c28:	e92d4038 	push	{r3, r4, r5, lr}
    9c2c:	e1a05000 	mov	r5, r0
    9c30:	e1a04001 	mov	r4, r1
    9c34:	ea000002 	b	9c44 <sw_uart_putk+0x1c>
    9c38:	e1a00005 	mov	r0, r5
    9c3c:	ebfffea1 	bl	96c8 <sw_uart_putc>
    9c40:	e2844001 	add	r4, r4, #1
    9c44:	e5d41000 	ldrb	r1, [r4]
    9c48:	e3510000 	cmp	r1, #0
    9c4c:	1afffff9 	bne	9c38 <sw_uart_putk+0x10>
    9c50:	e8bd8038 	pop	{r3, r4, r5, pc}

00009c54 <sw_uart_printk>:
    9c54:	e92d000e 	push	{r1, r2, r3}
    9c58:	e92d4030 	push	{r4, r5, lr}
    9c5c:	e24ddf76 	sub	sp, sp, #472	; 0x1d8
    9c60:	e1a05000 	mov	r5, r0
    9c64:	e28d3f7a 	add	r3, sp, #488	; 0x1e8
    9c68:	e58d3008 	str	r3, [sp, #8]
    9c6c:	e28d000c 	add	r0, sp, #12
    9c70:	e3a01f73 	mov	r1, #460	; 0x1cc
    9c74:	e59d21e4 	ldr	r2, [sp, #484]	; 0x1e4
    9c78:	ebfffc08 	bl	8ca0 <va_printk>
    9c7c:	e1a04000 	mov	r4, r0
    9c80:	e59f3048 	ldr	r3, [pc, #72]	; 9cd0 <sw_uart_printk+0x7c>
    9c84:	e1500003 	cmp	r0, r3
    9c88:	9a000008 	bls	9cb0 <sw_uart_printk+0x5c>
    9c8c:	ebfffb48 	bl	89b4 <rpi_reset_putc>
    9c90:	e59f303c 	ldr	r3, [pc, #60]	; 9cd4 <sw_uart_printk+0x80>
    9c94:	e58d3000 	str	r3, [sp]
    9c98:	e59f0038 	ldr	r0, [pc, #56]	; 9cd8 <sw_uart_printk+0x84>
    9c9c:	e59f1038 	ldr	r1, [pc, #56]	; 9cdc <sw_uart_printk+0x88>
    9ca0:	e59f2038 	ldr	r2, [pc, #56]	; 9ce0 <sw_uart_printk+0x8c>
    9ca4:	e3a030c0 	mov	r3, #192	; 0xc0
    9ca8:	ebfffb26 	bl	8948 <printk>
    9cac:	ebfffca8 	bl	8f54 <clean_reboot>
    9cb0:	e1a00005 	mov	r0, r5
    9cb4:	e28d100c 	add	r1, sp, #12
    9cb8:	ebffffda 	bl	9c28 <sw_uart_putk>
    9cbc:	e1a00004 	mov	r0, r4
    9cc0:	e28ddf76 	add	sp, sp, #472	; 0x1d8
    9cc4:	e8bd4030 	pop	{r4, r5, lr}
    9cc8:	e28dd00c 	add	sp, sp, #12
    9ccc:	e12fff1e 	bx	lr
    9cd0:	000001ca 	andeq	r0, r0, sl, asr #3
    9cd4:	0000a2b8 			; <UNDEFINED> instruction: 0x0000a2b8
    9cd8:	0000a0b4 	strheq	sl, [r0], -r4
    9cdc:	0000a22c 	andeq	sl, r0, ip, lsr #4
    9ce0:	0000a204 	andeq	sl, r0, r4, lsl #4

00009ce4 <sw_uart_gets_until_blk>:
    9ce4:	e52de004 	push	{lr}		; (str lr, [sp, #-4]!)
    9ce8:	e24dd00c 	sub	sp, sp, #12
    9cec:	e3e0c000 	mvn	ip, #0
    9cf0:	e58dc000 	str	ip, [sp]
    9cf4:	ebffff3a 	bl	99e4 <sw_uart_gets_until>
    9cf8:	e3500000 	cmp	r0, #0
    9cfc:	aa000006 	bge	9d1c <sw_uart_gets_until_blk+0x38>
    9d00:	ebfffb2b 	bl	89b4 <rpi_reset_putc>
    9d04:	e59f0018 	ldr	r0, [pc, #24]	; 9d24 <sw_uart_gets_until_blk+0x40>
    9d08:	e59f1018 	ldr	r1, [pc, #24]	; 9d28 <sw_uart_gets_until_blk+0x44>
    9d0c:	e59f2018 	ldr	r2, [pc, #24]	; 9d2c <sw_uart_gets_until_blk+0x48>
    9d10:	e3a030c8 	mov	r3, #200	; 0xc8
    9d14:	ebfffb0b 	bl	8948 <printk>
    9d18:	ebfffc8d 	bl	8f54 <clean_reboot>
    9d1c:	e28dd00c 	add	sp, sp, #12
    9d20:	e49df004 	pop	{pc}		; (ldr pc, [sp], #4)
    9d24:	0000a280 	andeq	sl, r0, r0, lsl #5
    9d28:	0000a22c 	andeq	sl, r0, ip, lsr #4
    9d2c:	0000a214 	andeq	sl, r0, r4, lsl r2

00009d30 <uart_init>:
    9d30:	e92d4038 	push	{r3, r4, r5, lr}
    9d34:	eb000052 	bl	9e84 <dev_barrier>
    9d38:	e3a0000e 	mov	r0, #14
    9d3c:	e3a01002 	mov	r1, #2
    9d40:	ebfffd98 	bl	93a8 <gpio_set_function>
    9d44:	e3a0000f 	mov	r0, #15
    9d48:	e3a01002 	mov	r1, #2
    9d4c:	ebfffd95 	bl	93a8 <gpio_set_function>
    9d50:	eb00004b 	bl	9e84 <dev_barrier>
    9d54:	e59f4068 	ldr	r4, [pc, #104]	; 9dc4 <uart_init+0x94>
    9d58:	e5945000 	ldr	r5, [r4]
    9d5c:	e1a00005 	mov	r0, r5
    9d60:	eb000059 	bl	9ecc <get32>
    9d64:	e3801001 	orr	r1, r0, #1
    9d68:	e1a00005 	mov	r0, r5
    9d6c:	eb00004a 	bl	9e9c <put32>
    9d70:	eb000043 	bl	9e84 <dev_barrier>
    9d74:	e5940004 	ldr	r0, [r4, #4]
    9d78:	e3a01000 	mov	r1, #0
    9d7c:	eb000046 	bl	9e9c <put32>
    9d80:	e5940008 	ldr	r0, [r4, #8]
    9d84:	e3a01000 	mov	r1, #0
    9d88:	eb000043 	bl	9e9c <put32>
    9d8c:	e594000c 	ldr	r0, [r4, #12]
    9d90:	e3a01006 	mov	r1, #6
    9d94:	eb000040 	bl	9e9c <put32>
    9d98:	e5940010 	ldr	r0, [r4, #16]
    9d9c:	e3a01003 	mov	r1, #3
    9da0:	eb00003d 	bl	9e9c <put32>
    9da4:	e5940014 	ldr	r0, [r4, #20]
    9da8:	e59f1018 	ldr	r1, [pc, #24]	; 9dc8 <uart_init+0x98>
    9dac:	eb00003a 	bl	9e9c <put32>
    9db0:	e5940004 	ldr	r0, [r4, #4]
    9db4:	e3a01003 	mov	r1, #3
    9db8:	eb000037 	bl	9e9c <put32>
    9dbc:	eb000030 	bl	9e84 <dev_barrier>
    9dc0:	e8bd8038 	pop	{r3, r4, r5, pc}
    9dc4:	00009fc0 	andeq	r9, r0, r0, asr #31
    9dc8:	0000010e 	andeq	r0, r0, lr, lsl #2

00009dcc <uart_can_getc>:
    9dcc:	e92d4008 	push	{r3, lr}
    9dd0:	e59f300c 	ldr	r3, [pc, #12]	; 9de4 <uart_can_getc+0x18>
    9dd4:	e5930018 	ldr	r0, [r3, #24]
    9dd8:	eb00003b 	bl	9ecc <get32>
    9ddc:	e2000001 	and	r0, r0, #1
    9de0:	e8bd8008 	pop	{r3, pc}
    9de4:	00009fc0 	andeq	r9, r0, r0, asr #31

00009de8 <uart_getc>:
    9de8:	e92d4008 	push	{r3, lr}
    9dec:	ebfffff6 	bl	9dcc <uart_can_getc>
    9df0:	e3500000 	cmp	r0, #0
    9df4:	0afffffc 	beq	9dec <uart_getc+0x4>
    9df8:	e59f300c 	ldr	r3, [pc, #12]	; 9e0c <uart_getc+0x24>
    9dfc:	e593001c 	ldr	r0, [r3, #28]
    9e00:	eb000031 	bl	9ecc <get32>
    9e04:	e6ef0070 	uxtb	r0, r0
    9e08:	e8bd8008 	pop	{r3, pc}
    9e0c:	00009fc0 	andeq	r9, r0, r0, asr #31

00009e10 <uart_can_putc>:
    9e10:	e92d4008 	push	{r3, lr}
    9e14:	e59f300c 	ldr	r3, [pc, #12]	; 9e28 <uart_can_putc+0x18>
    9e18:	e5930018 	ldr	r0, [r3, #24]
    9e1c:	eb00002a 	bl	9ecc <get32>
    9e20:	e2000020 	and	r0, r0, #32
    9e24:	e8bd8008 	pop	{r3, pc}
    9e28:	00009fc0 	andeq	r9, r0, r0, asr #31

00009e2c <uart_putc>:
    9e2c:	e92d4010 	push	{r4, lr}
    9e30:	e1a04000 	mov	r4, r0
    9e34:	ebfffff5 	bl	9e10 <uart_can_putc>
    9e38:	e3500000 	cmp	r0, #0
    9e3c:	0afffffc 	beq	9e34 <uart_putc+0x8>
    9e40:	e59f300c 	ldr	r3, [pc, #12]	; 9e54 <uart_putc+0x28>
    9e44:	e593001c 	ldr	r0, [r3, #28]
    9e48:	e1a01004 	mov	r1, r4
    9e4c:	eb000012 	bl	9e9c <put32>
    9e50:	e8bd8010 	pop	{r4, pc}
    9e54:	00009fc0 	andeq	r9, r0, r0, asr #31

00009e58 <uart_has_data>:
    9e58:	e92d4008 	push	{r3, lr}
    9e5c:	ebffffda 	bl	9dcc <uart_can_getc>
    9e60:	e8bd8008 	pop	{r3, pc}

00009e64 <uart_getc_async>:
    9e64:	e92d4008 	push	{r3, lr}
    9e68:	ebfffffa 	bl	9e58 <uart_has_data>
    9e6c:	e3500000 	cmp	r0, #0
    9e70:	0a000001 	beq	9e7c <uart_getc_async+0x18>
    9e74:	ebffffdb 	bl	9de8 <uart_getc>
    9e78:	e8bd8008 	pop	{r3, pc}
    9e7c:	e3e00000 	mvn	r0, #0
    9e80:	e8bd8008 	pop	{r3, pc}

00009e84 <dev_barrier>:
    9e84:	ea000002 	b	9e94 <dsb>

00009e88 <dmb>:
    9e88:	e3a00000 	mov	r0, #0
    9e8c:	ee070fba 	mcr	15, 0, r0, cr7, cr10, {5}
    9e90:	e12fff1e 	bx	lr

00009e94 <dsb>:
    9e94:	ee070f9a 	mcr	15, 0, r0, cr7, cr10, {4}
    9e98:	e12fff1e 	bx	lr

00009e9c <put32>:
    9e9c:	e5801000 	str	r1, [r0]
    9ea0:	e12fff1e 	bx	lr

00009ea4 <PUT32>:
    9ea4:	e5801000 	str	r1, [r0]
    9ea8:	e12fff1e 	bx	lr

00009eac <put16>:
    9eac:	e1c010b0 	strh	r1, [r0]
    9eb0:	e12fff1e 	bx	lr

00009eb4 <PUT16>:
    9eb4:	e1c010b0 	strh	r1, [r0]
    9eb8:	e12fff1e 	bx	lr

00009ebc <put8>:
    9ebc:	e5c01000 	strb	r1, [r0]
    9ec0:	e12fff1e 	bx	lr

00009ec4 <PUT8>:
    9ec4:	e5c01000 	strb	r1, [r0]
    9ec8:	e12fff1e 	bx	lr

00009ecc <get32>:
    9ecc:	e5900000 	ldr	r0, [r0]
    9ed0:	e12fff1e 	bx	lr

00009ed4 <GET32>:
    9ed4:	e5900000 	ldr	r0, [r0]
    9ed8:	e12fff1e 	bx	lr

00009edc <GETPC>:
    9edc:	e1a0000e 	mov	r0, lr
    9ee0:	e12fff1e 	bx	lr

00009ee4 <dummy>:
    9ee4:	e12fff1e 	bx	lr

00009ee8 <cb_new>:
    9ee8:	e92d4008 	push	{r3, lr}
    9eec:	e3a00409 	mov	r0, #150994944	; 0x9000000
    9ef0:	e3a01000 	mov	r1, #0
    9ef4:	e3a02004 	mov	r2, #4
    9ef8:	eb00000e 	bl	9f38 <memset>
    9efc:	e3a00409 	mov	r0, #150994944	; 0x9000000
    9f00:	e59f3004 	ldr	r3, [pc, #4]	; 9f0c <cb_new+0x24>
    9f04:	e5803000 	str	r3, [r0]
    9f08:	e8bd8008 	pop	{r3, pc}
    9f0c:	12345678 	eorsne	r5, r4, #120, 12	; 0x7800000

00009f10 <cb_get_block>:
    9f10:	e3a03409 	mov	r3, #150994944	; 0x9000000
    9f14:	e5932000 	ldr	r2, [r3]
    9f18:	e59f3014 	ldr	r3, [pc, #20]	; 9f34 <cb_get_block+0x24>
    9f1c:	e1520003 	cmp	r2, r3
    9f20:	0a000001 	beq	9f2c <cb_get_block+0x1c>
    9f24:	e3a00000 	mov	r0, #0
    9f28:	e12fff1e 	bx	lr
    9f2c:	e3a00409 	mov	r0, #150994944	; 0x9000000
    9f30:	e12fff1e 	bx	lr
    9f34:	12345678 	eorsne	r5, r4, #120, 12	; 0x7800000

00009f38 <memset>:
    9f38:	e0802002 	add	r2, r0, r2
    9f3c:	e1a03000 	mov	r3, r0
    9f40:	ea000001 	b	9f4c <memset+0x14>
    9f44:	e5c31000 	strb	r1, [r3]
    9f48:	e2833001 	add	r3, r3, #1
    9f4c:	e1530002 	cmp	r3, r2
    9f50:	3afffffb 	bcc	9f44 <memset+0xc>
    9f54:	e12fff1e 	bx	lr

Disassembly of section .data:

00009f58 <rpi_putchar>:
    9f58:	000089a0 	andeq	r8, r0, r0, lsr #19

00009f5c <putk>:
    9f5c:	000089dc 	ldrdeq	r8, [r0], -ip

00009f60 <GPFSEL0>:
    9f60:	20200000 	eorcs	r0, r0, r0

00009f64 <GPFSEL1>:
    9f64:	20200004 	eorcs	r0, r0, r4

00009f68 <GPFSEL2>:
    9f68:	20200008 	eorcs	r0, r0, r8

00009f6c <GPFSEL3>:
    9f6c:	2020000c 	eorcs	r0, r0, ip

00009f70 <GPFSEL4>:
    9f70:	20200010 	eorcs	r0, r0, r0, lsl r0

00009f74 <GPFSEL5>:
    9f74:	20200014 	eorcs	r0, r0, r4, lsl r0

00009f78 <GPSET0>:
    9f78:	2020001c 	eorcs	r0, r0, ip, lsl r0

00009f7c <GPSET1>:
    9f7c:	20200020 	eorcs	r0, r0, r0, lsr #32

00009f80 <GPCLR0>:
    9f80:	20200028 	eorcs	r0, r0, r8, lsr #32

00009f84 <GPCLR1>:
    9f84:	2020002c 	eorcs	r0, r0, ip, lsr #32

00009f88 <GPLEV0>:
    9f88:	20200034 	eorcs	r0, r0, r4, lsr r0

00009f8c <GPLEV1>:
    9f8c:	20200038 	eorcs	r0, r0, r8, lsr r0

00009f90 <IRQ_PENDING_2>:
    9f90:	2000b208 	andcs	fp, r0, r8, lsl #4

00009f94 <GPREN0>:
    9f94:	2020004c 	eorcs	r0, r0, ip, asr #32

00009f98 <GPREN1>:
    9f98:	20200050 	eorcs	r0, r0, r0, asr r0

00009f9c <ENABLE_IRQS_2>:
    9f9c:	2000b214 	andcs	fp, r0, r4, lsl r2

00009fa0 <GPFEN0>:
    9fa0:	20200058 	eorcs	r0, r0, r8, asr r0

00009fa4 <GPFEN1>:
    9fa4:	2020005c 	eorcs	r0, r0, ip, asr r0

00009fa8 <GPEDS0>:
    9fa8:	20200040 	eorcs	r0, r0, r0, asr #32

00009fac <GPEDS1>:
    9fac:	20200044 	eorcs	r0, r0, r4, asr #32

00009fb0 <IRQ_PENDING_1>:
    9fb0:	2000b204 	andcs	fp, r0, r4, lsl #4

00009fb4 <gpio_clr0>:
    9fb4:	20200028 	eorcs	r0, r0, r8, lsr #32

00009fb8 <gpio_set0>:
    9fb8:	2020001c 	eorcs	r0, r0, ip, lsl r0

00009fbc <gpio_fsel0>:
    9fbc:	20200000 	eorcs	r0, r0, r0

00009fc0 <AUX_ENABLES>:
    9fc0:	20215004 	eorcs	r5, r1, r4

00009fc4 <AUX_MU_CNTL_REG>:
    9fc4:	20215060 	eorcs	r5, r1, r0, rrx

00009fc8 <AUX_MU_IER_REG>:
    9fc8:	20215044 	eorcs	r5, r1, r4, asr #32

00009fcc <AUX_MU_IIR_REG>:
    9fcc:	20215048 	eorcs	r5, r1, r8, asr #32

00009fd0 <AUX_MU_LCR_REG>:
    9fd0:	2021504c 	eorcs	r5, r1, ip, asr #32

00009fd4 <AUX_MU_BAUD_REG>:
    9fd4:	20215068 	eorcs	r5, r1, r8, rrx

00009fd8 <AUX_MU_LSR_REG>:
    9fd8:	20215054 	eorcs	r5, r1, r4, asr r0

00009fdc <AUX_MU_IO_REG>:
    9fdc:	20215040 	eorcs	r5, r1, r0, asr #32

00009fe0 <AUX_MU_STAT_REG>:
    9fe0:	20215064 	eorcs	r5, r1, r4, rrx

00009fe4 <AUX_MU_SCRATCH>:
    9fe4:	2021505c 	eorcs	r5, r1, ip, asr r0

00009fe8 <AUX_MU_MSR_REG>:
    9fe8:	20215058 	eorcs	r5, r1, r8, asr r0

00009fec <AUX_MU_MCR_REG>:
    9fec:	20215050 	eorcs	r5, r1, r0, asr r0

00009ff0 <AUX_IRQ>:
    9ff0:	20215000 	eorcs	r5, r1, r0

Disassembly of section .rodata:

00009ff4 <__FUNCTION__.4258>:
    9ff4:	6c637963 	stclvs	9, cr7, [r3], #-396	; 0xfffffe74
    9ff8:	705f7365 	subsvc	r7, pc, r5, ror #6
    9ffc:	735f7265 	cmpvc	pc, #1342177286	; 0x50000006
    a000:	00006365 	andeq	r6, r0, r5, ror #6
    a004:	4f525245 	svcmi	0x00525245
    a008:	73253a52 	teqvc	r5, #335872	; 0x52000
    a00c:	3a73253a 	bcc	1cd34fc <__bss_end__+0x1cc8e24>
    a010:	203a6425 	eorscs	r6, sl, r5, lsr #8
    a014:	534c4146 	movtpl	r4, #49478	; 0xc146
    a018:	733c2845 	teqvc	ip, #4521984	; 0x450000
    a01c:	32203c20 	eorcc	r3, r0, #32, 24	; 0x2000
    a020:	203a293e 	eorscs	r2, sl, lr, lsr r9
    a024:	6c6c6977 	stclvs	9, cr6, [ip], #-476	; 0xfffffe24
    a028:	65766f20 	ldrbvs	r6, [r6, #-3872]!	; 0xf20
    a02c:	6f6c6672 	svcvs	0x006c6672
    a030:	00000a77 	andeq	r0, r0, r7, ror sl
    a034:	74736574 	ldrbtvc	r6, [r3], #-1396	; 0x574
    a038:	6e65672d 	cdpvs	7, 6, cr6, cr5, cr13, {1}
    a03c:	0000632e 	andeq	r6, r0, lr, lsr #6
    a040:	61206d41 	teqvs	r0, r1, asr #26
    a044:	72657320 	rsbvc	r7, r5, #32, 6	; 0x80000000
    a048:	0a726576 	beq	1ca3628 <__bss_end__+0x1c98f50>
    a04c:	00000000 	andeq	r0, r0, r0
    a050:	6d73694d 	ldclvs	9, cr6, [r3, #-308]!	; 0xfffffecc
    a054:	68637461 	stmdavs	r3!, {r0, r5, r6, sl, ip, sp, lr}^
    a058:	6f67202c 	svcvs	0x0067202c
    a05c:	64252074 	strtvs	r2, [r5], #-116	; 0x74
    a060:	74756220 	ldrbtvc	r6, [r5], #-544	; 0x220
    a064:	70786520 	rsbsvc	r6, r8, r0, lsr #10
    a068:	65746365 	ldrbvs	r6, [r4, #-869]!	; 0x365
    a06c:	64252064 	strtvs	r2, [r5], #-100	; 0x64
    a070:	0000000a 	andeq	r0, r0, sl
    a074:	65696c63 	strbvs	r6, [r9, #-3171]!	; 0xc63
    a078:	6420746e 	strtvs	r7, [r0], #-1134	; 0x46e
    a07c:	3a656e6f 	bcc	1965a40 <__bss_end__+0x195b368>
    a080:	646e6520 	strbtvs	r6, [lr], #-1312	; 0x520
    a084:	77206465 	strvc	r6, [r0, -r5, ror #8]!
    a088:	20687469 	rsbcs	r7, r8, r9, ror #8
    a08c:	000a6425 	andeq	r6, sl, r5, lsr #8

0000a090 <__FUNCTION__.4265>:
    a090:	74696d65 	strbtvc	r6, [r9], #-3429	; 0xd65
    a094:	00000000 	andeq	r0, r0, r0

0000a098 <__FUNCTION__.4213>:
    a098:	5f697072 	svcpl	0x00697072
    a09c:	5f746573 	svcpl	0x00746573
    a0a0:	7074756f 	rsbsvc	r7, r4, pc, ror #10
    a0a4:	00007475 	andeq	r7, r0, r5, ror r4

0000a0a8 <__FUNCTION__.4287>:
    a0a8:	705f6176 	subsvc	r6, pc, r6, ror r1	; <UNPREDICTABLE>
    a0ac:	746e6972 	strbtvc	r6, [lr], #-2418	; 0x972
    a0b0:	0000006b 	andeq	r0, r0, fp, rrx
    a0b4:	494e4150 	stmdbmi	lr, {r4, r6, r8, lr}^
    a0b8:	73253a43 	teqvc	r5, #274432	; 0x43000
    a0bc:	3a73253a 	bcc	1cd35ac <__bss_end__+0x1cc8ed4>
    a0c0:	253a6425 	ldrcs	r6, [sl, #-1061]!	; 0x425
    a0c4:	00000a73 	andeq	r0, r0, r3, ror sl
    a0c8:	6362696c 	cmnvs	r2, #108, 18	; 0x1b0000
    a0cc:	2d61762f 	stclcs	6, cr7, [r1, #-188]!	; 0xffffff44
    a0d0:	6e697270 	mcrvs	2, 3, r7, cr9, cr0, {3}
    a0d4:	632e6b74 	teqvs	lr, #116, 22	; 0x1d000
    a0d8:	00000000 	andeq	r0, r0, r0
    a0dc:	00000030 	andeq	r0, r0, r0, lsr r0
    a0e0:	33323130 	teqcc	r2, #48, 2
    a0e4:	37363534 			; <UNDEFINED> instruction: 0x37363534
    a0e8:	00003938 	andeq	r3, r0, r8, lsr r9
    a0ec:	33323130 	teqcc	r2, #48, 2
    a0f0:	37363534 			; <UNDEFINED> instruction: 0x37363534
    a0f4:	62613938 	rsbvs	r3, r1, #56, 18	; 0xe0000
    a0f8:	66656463 	strbtvs	r6, [r5], -r3, ror #8
    a0fc:	00000000 	andeq	r0, r0, r0
    a100:	00003130 	andeq	r3, r0, r0, lsr r1
    a104:	63747570 	cmnvs	r4, #112, 10	; 0x1c000000
    a108:	0070665f 	rsbseq	r6, r0, pc, asr r6
    a10c:	74646977 	strbtvc	r6, [r4], #-2423	; 0x977
    a110:	203c2068 	eorscs	r2, ip, r8, rrx
    a114:	00003233 	andeq	r3, r0, r3, lsr r2
    a118:	494e4150 	stmdbmi	lr, {r4, r6, r8, lr}^
    a11c:	73253a43 	teqvc	r5, #274432	; 0x43000
    a120:	3a73253a 	bcc	1cd3610 <__bss_end__+0x1cc8f38>
    a124:	663a6425 	ldrtvs	r6, [sl], -r5, lsr #8
    a128:	74616f6c 	strbtvc	r6, [r1], #-3948	; 0xf6c
    a12c:	746f6e20 	strbtvc	r6, [pc], #-3616	; a134 <__FUNCTION__.4287+0x8c>
    a130:	616e6520 	cmnvs	lr, r0, lsr #10
    a134:	64656c62 	strbtvs	r6, [r5], #-3170	; 0xc62
    a138:	0a212121 	beq	8525c4 <__bss_end__+0x847eec>
    a13c:	00000000 	andeq	r0, r0, r0
    a140:	494e4150 	stmdbmi	lr, {r4, r6, r8, lr}^
    a144:	73253a43 	teqvc	r5, #274432	; 0x43000
    a148:	3a73253a 	bcc	1cd3638 <__bss_end__+0x1cc8f60>
    a14c:	703a6425 	eorsvc	r6, sl, r5, lsr #8
    a150:	746e6972 	strbtvc	r6, [lr], #-2418	; 0x972
    a154:	6e203a6b 	vnmulvs.f32	s6, s0, s23
    a158:	6820746f 	stmdavs	r0!, {r0, r1, r2, r3, r5, r6, sl, ip, sp, lr}
    a15c:	6c646e61 	stclvs	14, cr6, [r4], #-388	; 0xfffffe7c
    a160:	20676e69 	rsbcs	r6, r7, r9, ror #28
    a164:	63657073 	cmnvs	r5, #115	; 0x73
    a168:	65696669 	strbvs	r6, [r9, #-1641]!	; 0x669
    a16c:	25272072 	strcs	r2, [r7, #-114]!	; 0x72
    a170:	0a0a2763 	beq	293f04 <__bss_end__+0x28982c>
    a174:	00000000 	andeq	r0, r0, r0
    a178:	454e4f44 	strbmi	r4, [lr, #-3908]	; 0xf44
    a17c:	0a212121 	beq	852608 <__bss_end__+0x847f30>
    a180:	00000000 	andeq	r0, r0, r0
    a184:	756f6261 	strbvc	r6, [pc, #-609]!	; 9f2b <cb_get_block+0x1b>
    a188:	6f742074 	svcvs	0x00742074
    a18c:	69727020 	ldmdbvs	r2!, {r5, ip, sp, lr}^
    a190:	6f20746e 	svcvs	0x0020746e
    a194:	6572206e 	ldrbvs	r2, [r2, #-110]!	; 0x6e
    a198:	616c7567 	cmnvs	ip, r7, ror #10
    a19c:	72702072 	rsbsvc	r2, r0, #114	; 0x72
    a1a0:	66746e69 	ldrbtvs	r6, [r4], -r9, ror #28
    a1a4:	0000000a 	andeq	r0, r0, sl
    a1a8:	63637573 	cmnvs	r3, #482344960	; 0x1cc00000
    a1ac:	21737365 	cmncs	r3, r5, ror #6
    a1b0:	0000000a 	andeq	r0, r0, sl

0000a1b4 <__FUNCTION__.4314>:
    a1b4:	755f7773 	ldrbvc	r7, [pc, #-1907]	; 9a49 <sw_uart_gets_until+0x65>
    a1b8:	5f747261 	svcpl	0x00747261
    a1bc:	73746567 	cmnvc	r4, #432013312	; 0x19c00000
    a1c0:	746e755f 	strbtvc	r7, [lr], #-1375	; 0x55f
    a1c4:	00006c69 	andeq	r6, r0, r9, ror #24

0000a1c8 <__FUNCTION__.4326>:
    a1c8:	755f7773 	ldrbvc	r7, [pc, #-1907]	; 9a5d <sw_uart_gets_until+0x79>
    a1cc:	5f747261 	svcpl	0x00747261
    a1d0:	73746567 	cmnvc	r4, #432013312	; 0x19c00000
    a1d4:	6d69745f 	cfstrdvs	mvd7, [r9, #-380]!	; 0xfffffe84
    a1d8:	74756f65 	ldrbtvc	r6, [r5], #-3941	; 0xf65
    a1dc:	00000000 	andeq	r0, r0, r0

0000a1e0 <__FUNCTION__.4340>:
    a1e0:	755f7773 	ldrbvc	r7, [pc, #-1907]	; 9a75 <sw_uart_gets_until+0x91>
    a1e4:	5f747261 	svcpl	0x00747261
    a1e8:	74696e69 	strbtvc	r6, [r9], #-3689	; 0xe69
    a1ec:	6c65685f 	stclvs	8, cr6, [r5], #-380	; 0xfffffe84
    a1f0:	00726570 	rsbseq	r6, r2, r0, ror r5

0000a1f4 <__FUNCTION__.4346>:
    a1f4:	755f7773 	ldrbvc	r7, [pc, #-1907]	; 9a89 <sw_uart_gets_timeout+0x1>
    a1f8:	5f747261 	svcpl	0x00747261
    a1fc:	63746567 	cmnvs	r4, #432013312	; 0x19c00000
    a200:	00000000 	andeq	r0, r0, r0

0000a204 <__FUNCTION__.4368>:
    a204:	755f7773 	ldrbvc	r7, [pc, #-1907]	; 9a99 <sw_uart_gets_timeout+0x11>
    a208:	5f747261 	svcpl	0x00747261
    a20c:	6e697270 	mcrvs	2, 3, r7, cr9, cr0, {3}
    a210:	00006b74 	andeq	r6, r0, r4, ror fp

0000a214 <__FUNCTION__.4376>:
    a214:	755f7773 	ldrbvc	r7, [pc, #-1907]	; 9aa9 <sw_uart_gets_timeout+0x21>
    a218:	5f747261 	svcpl	0x00747261
    a21c:	73746567 	cmnvc	r4, #432013312	; 0x19c00000
    a220:	746e755f 	strbtvc	r7, [lr], #-1375	; 0x55f
    a224:	625f6c69 	subsvs	r6, pc, #26880	; 0x6900
    a228:	00006b6c 	andeq	r6, r0, ip, ror #22
    a22c:	732d796d 	teqvc	sp, #1785856	; 0x1b4000
    a230:	732f6372 	teqvc	pc, #-939524095	; 0xc8000001
    a234:	61752d77 	cmnvs	r5, r7, ror sp
    a238:	632e7472 	teqvs	lr, #1912602624	; 0x72000000
    a23c:	00000000 	andeq	r0, r0, r0
    a240:	7479626e 	ldrbtvc	r6, [r9], #-622	; 0x26e
    a244:	303e7365 	eorscc	r7, lr, r5, ror #6
    a248:	00000000 	andeq	r0, r0, r0
    a24c:	7a686d28 	bvc	1a256f4 <__bss_end__+0x1a1b01c>
    a250:	62202d20 	eorvs	r2, r0, #32, 26	; 0x800
    a254:	29647561 	stmdbcs	r4!, {r0, r5, r6, r8, sl, ip, sp, lr}^
    a258:	203d3c20 	eorscs	r3, sp, r0, lsr #24
    a25c:	69726564 	ldmdbvs	r2!, {r2, r5, r6, r8, sl, sp, lr}^
    a260:	20646576 	rsbcs	r6, r4, r6, ror r5
    a264:	64202626 	strtvs	r2, [r0], #-1574	; 0x626
    a268:	76697265 	strbtvc	r7, [r9], -r5, ror #4
    a26c:	3c206465 	cfstrscc	mvf6, [r0], #-404	; 0xfffffe6c
    a270:	6d28203d 	stcvs	0, cr2, [r8, #-244]!	; 0xffffff0c
    a274:	2b207a68 	blcs	828c1c <__bss_end__+0x81e544>
    a278:	75616220 	strbvc	r6, [r1, #-544]!	; 0x220
    a27c:	00002964 	andeq	r2, r0, r4, ror #18
    a280:	494e4150 	stmdbmi	lr, {r4, r6, r8, lr}^
    a284:	73253a43 	teqvc	r5, #274432	; 0x43000
    a288:	3a73253a 	bcc	1cd3778 <__bss_end__+0x1cc90a0>
    a28c:	693a6425 	ldmdbvs	sl!, {r0, r2, r5, sl, sp, lr}
    a290:	736f706d 	cmnvc	pc, #109	; 0x6d
    a294:	6c626973 	stclvs	9, cr6, [r2], #-460	; 0xfffffe34
    a298:	68203a65 	stmdavs	r0!, {r0, r2, r5, r6, r9, fp, ip, sp}
    a29c:	20657661 	rsbcs	r7, r5, r1, ror #12
    a2a0:	69206e61 	stmdbvs	r0!, {r0, r5, r6, r9, sl, fp, sp, lr}
    a2a4:	6e69666e 	cdpvs	6, 6, cr6, cr9, cr14, {3}
    a2a8:	20657469 	rsbcs	r7, r5, r9, ror #8
    a2ac:	656d6974 	strbvs	r6, [sp, #-2420]!	; 0x974
    a2b0:	2174756f 	cmncs	r4, pc, ror #10
    a2b4:	00000a0a 	andeq	r0, r0, sl, lsl #20
    a2b8:	3c207a73 	stccc	10, cr7, [r0], #-460	; 0xfffffe34
    a2bc:	7a697320 	bvc	1a66f44 <__bss_end__+0x1a5c86c>
    a2c0:	20666f65 	rsbcs	r6, r6, r5, ror #30
    a2c4:	2d667562 	cfstr64cs	mvdx7, [r6, #-392]!	; 0xfffffe78
    a2c8:	00000031 	andeq	r0, r0, r1, lsr r0

Disassembly of section .bss:

0000a2cc <__bss_start__>:
	...

0000a6cc <console_uart>:
	...

Disassembly of section .ARM.attributes:

00000000 <.ARM.attributes>:
   0:	00002a41 	andeq	r2, r0, r1, asr #20
   4:	61656100 	cmnvs	r5, r0, lsl #2
   8:	01006962 	tsteq	r0, r2, ror #18
   c:	00000020 	andeq	r0, r0, r0, lsr #32
  10:	4b5a3605 	blmi	168d82c <__bss_end__+0x1683154>
  14:	08070600 	stmdaeq	r7, {r9, sl}
  18:	12010901 	andne	r0, r1, #16384	; 0x4000
  1c:	15011404 	strne	r1, [r1, #-1028]	; 0x404
  20:	18031701 	stmdane	r3, {r0, r8, r9, sl, ip}
  24:	22011a01 	andcs	r1, r1, #4096	; 0x1000
  28:	Address 0x0000000000000028 is out of bounds.


Disassembly of section .comment:

00000000 <.comment>:
   0:	3a434347 	bcc	10d0d24 <__bss_end__+0x10c664c>
   4:	4e472820 	cdpmi	8, 4, cr2, cr7, cr0, {1}
   8:	34202955 	strtcc	r2, [r0], #-2389	; 0x955
   c:	332e382e 	teqcc	lr, #3014656	; 0x2e0000
	...

Disassembly of section .debug_info:

00000000 <.debug_info>:
       0:	00001325 	andeq	r1, r0, r5, lsr #6
       4:	00000004 	andeq	r0, r0, r4
       8:	01040000 	mrseq	r0, (UNDEF: 4)
       c:	000001ca 	andeq	r0, r0, sl, asr #3
      10:	00007d01 	andeq	r7, r0, r1, lsl #26
      14:	00001b00 	andeq	r1, r0, r0, lsl #22
      18:	00801000 	addeq	r1, r0, r0
      1c:	00093800 	andeq	r3, r9, r0, lsl #16
      20:	00000000 	andeq	r0, r0, r0
      24:	05040200 	streq	r0, [r4, #-512]	; 0x200
      28:	00746e69 	rsbseq	r6, r4, r9, ror #28
      2c:	72070403 	andvc	r0, r7, #50331648	; 0x3000000
      30:	03000001 	movweq	r0, #1
      34:	00b70601 	adcseq	r0, r7, r1, lsl #12
      38:	02030000 	andeq	r0, r3, #0
      3c:	00014205 	andeq	r4, r1, r5, lsl #4
      40:	05040300 	streq	r0, [r4, #-768]	; 0x300
      44:	000001aa 	andeq	r0, r0, sl, lsr #3
      48:	a5050803 	strge	r0, [r5, #-2051]	; 0x803
      4c:	04000001 	streq	r0, [r0], #-1
      50:	0000017f 	andeq	r0, r0, pc, ror r1
      54:	005a2e04 	subseq	r2, sl, r4, lsl #28
      58:	01030000 	mrseq	r0, (UNDEF: 3)
      5c:	0000b508 	andeq	fp, r0, r8, lsl #10
      60:	07020300 	streq	r0, [r2, -r0, lsl #6]
      64:	000000e7 	andeq	r0, r0, r7, ror #1
      68:	6d070403 	cfstrsvs	mvf0, [r7, #-12]
      6c:	03000001 	movweq	r0, #1
      70:	01680708 	cmneq	r8, r8, lsl #14
      74:	04030000 	streq	r0, [r3], #-0
      78:	00019c07 	andeq	r9, r1, r7, lsl #24
      7c:	08010300 	stmdaeq	r1, {r8, r9}
      80:	000000be 	strheq	r0, [r0], -lr
      84:	008a0405 	addeq	r0, sl, r5, lsl #8
      88:	7d060000 	stcvc	0, cr0, [r6, #-0]
      8c:	07000000 	streq	r0, [r0, -r0]
      90:	000000a4 	andeq	r0, r0, r4, lsr #1
      94:	a7031f01 	strge	r1, [r3, -r1, lsl #30]
      98:	08000000 	stmdaeq	r0, {}	; <UNPREDICTABLE>
      9c:	006e6970 	rsbeq	r6, lr, r0, ror r9
      a0:	002c1f01 	eoreq	r1, ip, r1, lsl #30
      a4:	07000000 	streq	r0, [r0, -r0]
      a8:	000001b3 			; <UNDEFINED> instruction: 0x000001b3
      ac:	bf032401 	svclt	0x00032401
      b0:	08000000 	stmdaeq	r0, {}	; <UNPREDICTABLE>
      b4:	006e6970 	rsbeq	r6, lr, r0, ror r9
      b8:	002c2401 	eoreq	r2, ip, r1, lsl #8
      bc:	07000000 	streq	r0, [r0, -r0]
      c0:	0000018c 	andeq	r0, r0, ip, lsl #3
      c4:	e0032901 	and	r2, r3, r1, lsl #18
      c8:	08000000 	stmdaeq	r0, {}	; <UNPREDICTABLE>
      cc:	006e6970 	rsbeq	r6, lr, r0, ror r9
      d0:	002c2901 	eoreq	r2, ip, r1, lsl #18
      d4:	76080000 	strvc	r0, [r8], -r0
      d8:	2c290100 	stfcss	f0, [r9], #-0
      dc:	00000000 	andeq	r0, r0, r0
      e0:	00008f09 	andeq	r8, r0, r9, lsl #30
      e4:	2c400100 	stfcse	f0, [r0], {-0}
      e8:	01000000 	mrseq	r0, (UNDEF: 0)
      ec:	000001d2 	ldrdeq	r0, [r0], -r2
      f0:	6e697008 	cdpvs	0, 6, cr7, cr9, cr8, {0}
      f4:	2c400100 	stfcse	f0, [r0], {-0}
      f8:	0a000000 	beq	100 <_start-0x7f00>
      fc:	000002f1 	strdeq	r0, [r0], -r1
     100:	002c4201 	eoreq	r4, ip, r1, lsl #4
     104:	690b0000 	stmdbvs	fp, {}	; <UNPREDICTABLE>
     108:	2c430100 	stfcse	f0, [r3], {-0}
     10c:	0a000000 	beq	114 <_start-0x7eec>
     110:	000004d5 	ldrdeq	r0, [r0], -r5
     114:	002c4701 	eoreq	r4, ip, r1, lsl #14
     118:	2b0c0000 	blcs	300120 <__bss_end__+0x2f5a48>
     11c:	0a000001 	beq	128 <_start-0x7ed8>
     120:	000001c5 	andeq	r0, r0, r5, asr #3
     124:	002c4701 	eoreq	r4, ip, r1, lsl #14
     128:	0c000000 	stceq	0, cr0, [r0], {-0}
     12c:	0000013c 	andeq	r0, r0, ip, lsr r1
     130:	0001c50a 	andeq	ip, r1, sl, lsl #10
     134:	2c480100 	stfcse	f0, [r8], {-0}
     138:	00000000 	andeq	r0, r0, r0
     13c:	00014d0c 	andeq	r4, r1, ip, lsl #26
     140:	01c50a00 	biceq	r0, r5, r0, lsl #20
     144:	4a010000 	bmi	4014c <__bss_end__+0x35a74>
     148:	0000002c 	andeq	r0, r0, ip, lsr #32
     14c:	015e0c00 	cmpeq	lr, r0, lsl #24
     150:	c50a0000 	strgt	r0, [sl, #-0]
     154:	01000001 	tsteq	r0, r1
     158:	00002c4c 	andeq	r2, r0, ip, asr #24
     15c:	6f0c0000 	svcvs	0x000c0000
     160:	0a000001 	beq	16c <_start-0x7e94>
     164:	000001c5 	andeq	r0, r0, r5, asr #3
     168:	002c4e01 	eoreq	r4, ip, r1, lsl #28
     16c:	0c000000 	stceq	0, cr0, [r0], {-0}
     170:	00000180 	andeq	r0, r0, r0, lsl #3
     174:	0001c50a 	andeq	ip, r1, sl, lsl #10
     178:	2c500100 	ldfcse	f0, [r0], {-0}
     17c:	00000000 	andeq	r0, r0, r0
     180:	0001910c 	andeq	r9, r1, ip, lsl #2
     184:	01c50a00 	biceq	r0, r5, r0, lsl #20
     188:	52010000 	andpl	r0, r1, #0
     18c:	0000002c 	andeq	r0, r0, ip, lsr #32
     190:	01a20c00 			; <UNDEFINED> instruction: 0x01a20c00
     194:	c50a0000 	strgt	r0, [sl, #-0]
     198:	01000001 	tsteq	r0, r1
     19c:	00002c54 	andeq	r2, r0, r4, asr ip
     1a0:	b30c0000 	movwlt	r0, #49152	; 0xc000
     1a4:	0a000001 	beq	1b0 <_start-0x7e50>
     1a8:	000001c5 	andeq	r0, r0, r5, asr #3
     1ac:	002c5601 	eoreq	r5, ip, r1, lsl #12
     1b0:	0c000000 	stceq	0, cr0, [r0], {-0}
     1b4:	000001c4 	andeq	r0, r0, r4, asr #3
     1b8:	0001c50a 	andeq	ip, r1, sl, lsl #10
     1bc:	2c580100 	ldfcse	f0, [r8], {-0}
     1c0:	00000000 	andeq	r0, r0, r0
     1c4:	01c50a0d 	biceq	r0, r5, sp, lsl #20
     1c8:	5a010000 	bpl	401d0 <__bss_end__+0x35af8>
     1cc:	0000002c 	andeq	r0, r0, ip, lsr #32
     1d0:	740e0000 	strvc	r0, [lr], #-0
     1d4:	01000000 	mrseq	r0, (UNDEF: 0)
     1d8:	02cb0169 	sbceq	r0, fp, #1073741850	; 0x4000001a
     1dc:	70080000 	andvc	r0, r8, r0
     1e0:	01006e69 	tsteq	r0, r9, ror #28
     1e4:	00002c69 	andeq	r2, r0, r9, ror #24
     1e8:	092c0f00 	stmdbeq	ip!, {r8, r9, sl, fp}
     1ec:	69010000 	stmdbvs	r1, {}	; <UNPREDICTABLE>
     1f0:	0000004f 	andeq	r0, r0, pc, asr #32
     1f4:	00023d0f 	andeq	r3, r2, pc, lsl #26
     1f8:	2c690100 	stfcse	f0, [r9], #-0
     1fc:	0b000000 	bleq	204 <_start-0x7dfc>
     200:	6a010069 	bvs	403ac <__bss_end__+0x35cd4>
     204:	0000002c 	andeq	r0, r0, ip, lsr #32
     208:	0004d50a 	andeq	sp, r4, sl, lsl #10
     20c:	2c6b0100 	stfcse	f0, [fp], #-0
     210:	0c000000 	stceq	0, cr0, [r0], {-0}
     214:	00000224 	andeq	r0, r0, r4, lsr #4
     218:	0001c50a 	andeq	ip, r1, sl, lsl #10
     21c:	2c6b0100 	stfcse	f0, [fp], #-0
     220:	00000000 	andeq	r0, r0, r0
     224:	0002350c 	andeq	r3, r2, ip, lsl #10
     228:	01c50a00 	biceq	r0, r5, r0, lsl #20
     22c:	72010000 	andvc	r0, r1, #0
     230:	0000002c 	andeq	r0, r0, ip, lsr #32
     234:	02460c00 	subeq	r0, r6, #0, 24
     238:	c50a0000 	strgt	r0, [sl, #-0]
     23c:	01000001 	tsteq	r0, r1
     240:	00002c74 	andeq	r2, r0, r4, ror ip
     244:	570c0000 	strpl	r0, [ip, -r0]
     248:	0a000002 	beq	258 <_start-0x7da8>
     24c:	000001c5 	andeq	r0, r0, r5, asr #3
     250:	002c7601 	eoreq	r7, ip, r1, lsl #12
     254:	0c000000 	stceq	0, cr0, [r0], {-0}
     258:	00000268 	andeq	r0, r0, r8, ror #4
     25c:	0001c50a 	andeq	ip, r1, sl, lsl #10
     260:	2c780100 	ldfcse	f0, [r8], #-0
     264:	00000000 	andeq	r0, r0, r0
     268:	0002790c 	andeq	r7, r2, ip, lsl #18
     26c:	01c50a00 	biceq	r0, r5, r0, lsl #20
     270:	7a010000 	bvc	40278 <__bss_end__+0x35ba0>
     274:	0000002c 	andeq	r0, r0, ip, lsr #32
     278:	028a0c00 	addeq	r0, sl, #0, 24
     27c:	c50a0000 	strgt	r0, [sl, #-0]
     280:	01000001 	tsteq	r0, r1
     284:	00002c7c 	andeq	r2, r0, ip, ror ip
     288:	9b0c0000 	blls	300290 <__bss_end__+0x2f5bb8>
     28c:	0a000002 	beq	29c <_start-0x7d64>
     290:	000001c5 	andeq	r0, r0, r5, asr #3
     294:	002c7e01 	eoreq	r7, ip, r1, lsl #28
     298:	0c000000 	stceq	0, cr0, [r0], {-0}
     29c:	000002ac 	andeq	r0, r0, ip, lsr #5
     2a0:	0001c50a 	andeq	ip, r1, sl, lsl #10
     2a4:	2c800100 	stfcss	f0, [r0], {0}
     2a8:	00000000 	andeq	r0, r0, r0
     2ac:	0002bd0c 	andeq	fp, r2, ip, lsl #26
     2b0:	01c50a00 	biceq	r0, r5, r0, lsl #20
     2b4:	82010000 	andhi	r0, r1, #0
     2b8:	0000002c 	andeq	r0, r0, ip, lsr #32
     2bc:	c50a0d00 	strgt	r0, [sl, #-3328]	; 0xd00
     2c0:	01000001 	tsteq	r0, r1
     2c4:	00002c84 	andeq	r2, r0, r4, lsl #25
     2c8:	07000000 	streq	r0, [r0, -r0]
     2cc:	00000110 	andeq	r0, r0, r0, lsl r1
     2d0:	0b018701 	bleq	61edc <__bss_end__+0x57804>
     2d4:	08000003 	stmdaeq	r0, {r0, r1}
     2d8:	01007874 	tsteq	r0, r4, ror r8
     2dc:	00002c87 	andeq	r2, r0, r7, lsl #25
     2e0:	78720800 	ldmdavc	r2!, {fp}^
     2e4:	2c870100 	stfcss	f0, [r7], {0}
     2e8:	08000000 	stmdaeq	r0, {}	; <UNPREDICTABLE>
     2ec:	8701006e 	strhi	r0, [r1, -lr, rrx]
     2f0:	0000002c 	andeq	r0, r0, ip, lsr #32
     2f4:	00022b0a 	andeq	r2, r2, sl, lsl #22
     2f8:	2c8c0100 	stfcss	f0, [ip], {0}
     2fc:	0a000000 	beq	304 <_start-0x7cfc>
     300:	00000137 	andeq	r0, r0, r7, lsr r1
     304:	002c8d01 	eoreq	r8, ip, r1, lsl #26
     308:	10000000 	andne	r0, r0, r0
     30c:	000000e0 	andeq	r0, r0, r0, ror #1
     310:	00008010 	andeq	r8, r0, r0, lsl r0
     314:	000001c8 	andeq	r0, r0, r8, asr #3
     318:	04319c01 	ldrteq	r9, [r1], #-3073	; 0xc01
     31c:	fb110000 	blx	440326 <__bss_end__+0x435c4e>
     320:	00000000 	andeq	r0, r0, r0
     324:	12000000 	andne	r0, r0, #0
     328:	00000106 	andeq	r0, r0, r6, lsl #2
     32c:	00010f13 	andeq	r0, r1, r3, lsl pc
     330:	14530100 	ldrbne	r0, [r3], #-256	; 0x100
     334:	000000f0 	strdeq	r0, [r0], -r0	; <UNPREDICTABLE>
     338:	80241514 	eorhi	r1, r4, r4, lsl r5
     33c:	00040000 	andeq	r0, r4, r0
     340:	034e0000 	movteq	r0, #57344	; 0xe000
     344:	1f130000 	svcne	0x00130000
     348:	01000001 	tsteq	r0, r1
     34c:	2c150053 	ldccs	0, cr0, [r5], {83}	; 0x53
     350:	04000080 	streq	r0, [r0], #-128	; 0x80
     354:	65000000 	strvs	r0, [r0, #-0]
     358:	11000003 	tstne	r0, r3
     35c:	00000130 	andeq	r0, r0, r0, lsr r1
     360:	000000ab 	andeq	r0, r0, fp, lsr #1
     364:	80401500 	subhi	r1, r0, r0, lsl #10
     368:	00040000 	andeq	r0, r4, r0
     36c:	037c0000 	cmneq	ip, #0
     370:	41110000 	tstmi	r1, r0
     374:	be000001 	cdplt	0, 0, cr0, cr0, cr1, {0}
     378:	00000000 	andeq	r0, r0, r0
     37c:	00806815 	addeq	r6, r0, r5, lsl r8
     380:	00000400 	andeq	r0, r0, r0, lsl #8
     384:	00039300 	andeq	r9, r3, r0, lsl #6
     388:	01521100 	cmpeq	r2, r0, lsl #2
     38c:	00d10000 	sbcseq	r0, r1, r0
     390:	15000000 	strne	r0, [r0, #-0]
     394:	00008090 	muleq	r0, r0, r0
     398:	00000004 	andeq	r0, r0, r4
     39c:	000003aa 	andeq	r0, r0, sl, lsr #7
     3a0:	00016311 	andeq	r6, r1, r1, lsl r3
     3a4:	0000e400 	andeq	lr, r0, r0, lsl #8
     3a8:	b8150000 	ldmdalt	r5, {}	; <UNPREDICTABLE>
     3ac:	04000080 	streq	r0, [r0], #-128	; 0x80
     3b0:	c1000000 	mrsgt	r0, (UNDEF: 0)
     3b4:	11000003 	tstne	r0, r3
     3b8:	00000174 	andeq	r0, r0, r4, ror r1
     3bc:	000000f7 	strdeq	r0, [r0], -r7
     3c0:	80e01500 	rschi	r1, r0, r0, lsl #10
     3c4:	00040000 	andeq	r0, r4, r0
     3c8:	03d80000 	bicseq	r0, r8, #0
     3cc:	85110000 	ldrhi	r0, [r1, #-0]
     3d0:	0a000001 	beq	3dc <_start-0x7c24>
     3d4:	00000001 	andeq	r0, r0, r1
     3d8:	00810815 	addeq	r0, r1, r5, lsl r8
     3dc:	00000400 	andeq	r0, r0, r0, lsl #8
     3e0:	0003ef00 	andeq	lr, r3, r0, lsl #30
     3e4:	01961100 	orrseq	r1, r6, r0, lsl #2
     3e8:	011d0000 	tsteq	sp, r0
     3ec:	15000000 	strne	r0, [r0, #-0]
     3f0:	00008130 	andeq	r8, r0, r0, lsr r1
     3f4:	00000004 	andeq	r0, r0, r4
     3f8:	00000406 	andeq	r0, r0, r6, lsl #8
     3fc:	0001a711 	andeq	sl, r1, r1, lsl r7
     400:	00013000 	andeq	r3, r1, r0
     404:	58150000 	ldmdapl	r5, {}	; <UNPREDICTABLE>
     408:	04000081 	streq	r0, [r0], #-129	; 0x81
     40c:	1d000000 	stcne	0, cr0, [r0, #-0]
     410:	11000004 	tstne	r0, r4
     414:	000001b8 			; <UNDEFINED> instruction: 0x000001b8
     418:	00000143 	andeq	r0, r0, r3, asr #2
     41c:	81941600 	orrshi	r1, r4, r0, lsl #12
     420:	00040000 	andeq	r0, r4, r0
     424:	c5110000 	ldrgt	r0, [r1, #-0]
     428:	56000001 	strpl	r0, [r0], -r1
     42c:	00000001 	andeq	r0, r0, r1
     430:	01d21000 	bicseq	r1, r2, r0
     434:	81d80000 	bicshi	r0, r8, r0
     438:	022c0000 	eoreq	r0, ip, #0
     43c:	9c010000 	stcls	0, cr0, [r1], {-0}
     440:	000008d3 	ldrdeq	r0, [r0], -r3
     444:	0001e917 	andeq	lr, r1, r7, lsl r9
     448:	00016900 	andeq	r6, r1, r0, lsl #18
     44c:	01ff1800 	mvnseq	r1, r0, lsl #16
     450:	13010000 	movwne	r0, #4096	; 0x1000
     454:	00000208 	andeq	r0, r0, r8, lsl #4
     458:	f4195301 			; <UNDEFINED> instruction: 0xf4195301
     45c:	bc000001 	stclt	0, cr0, [r0], {1}
     460:	01de1417 	bicseq	r1, lr, r7, lsl r4
     464:	15150000 	ldrne	r0, [r5, #-0]
     468:	000081d8 	ldrdeq	r8, [r0], -r8	; <UNPREDICTABLE>
     46c:	00000004 	andeq	r0, r0, r4
     470:	0000047c 	andeq	r0, r0, ip, ror r4
     474:	00021813 	andeq	r1, r2, r3, lsl r8
     478:	00530100 	subseq	r0, r3, r0, lsl #2
     47c:	0000a71a 	andeq	sl, r0, sl, lsl r7
     480:	0081f000 	addeq	pc, r1, r0
     484:	00000000 	andeq	r0, r0, r0
     488:	96710100 	ldrbtls	r0, [r1], -r0, lsl #2
     48c:	14000004 	strne	r0, [r0], #-4
     490:	000000b3 	strheq	r0, [r0], -r3
     494:	00150015 	andseq	r0, r5, r5, lsl r0
     498:	04000082 	streq	r0, [r0], #-130	; 0x82
     49c:	ad000000 	stcge	0, cr0, [r0, #-0]
     4a0:	11000004 	tstne	r0, r4
     4a4:	00000229 	andeq	r0, r0, r9, lsr #4
     4a8:	0000018a 	andeq	r0, r0, sl, lsl #3
     4ac:	00bf1b00 	adcseq	r1, pc, r0, lsl #22
     4b0:	82100000 	andshi	r0, r0, #0
     4b4:	00200000 	eoreq	r0, r0, r0
     4b8:	73010000 	movwvc	r0, #4096	; 0x1000
     4bc:	00000515 	andeq	r0, r0, r5, lsl r5
     4c0:	0000cb14 	andeq	ip, r0, r4, lsl fp
     4c4:	d6171500 	ldrle	r1, [r7], -r0, lsl #10
     4c8:	9d000000 	stcls	0, cr0, [r0, #-0]
     4cc:	1c000001 	stcne	0, cr0, [r0], {1}
     4d0:	00000018 	andeq	r0, r0, r8, lsl r0
     4d4:	000004fe 	strdeq	r0, [r0], -lr
     4d8:	0000d617 	andeq	sp, r0, r7, lsl r6
     4dc:	0001b700 	andeq	fp, r1, r0, lsl #14
     4e0:	00cb1400 	sbceq	r1, fp, r0, lsl #8
     4e4:	1d150000 	ldcne	0, cr0, [r5, #-0]
     4e8:	0000008f 	andeq	r0, r0, pc, lsl #1
     4ec:	00008210 	andeq	r8, r0, r0, lsl r2
     4f0:	00000018 	andeq	r0, r0, r8, lsl r0
     4f4:	9b142c01 	blls	50b500 <__bss_end__+0x500e28>
     4f8:	15000000 	strne	r0, [r0, #-0]
     4fc:	a71d0000 	ldrge	r0, [sp, -r0]
     500:	1c000000 	stcne	0, cr0, [r0], {-0}
     504:	40000082 	andmi	r0, r0, r2, lsl #1
     508:	01000000 	mrseq	r0, (UNDEF: 0)
     50c:	00b3142e 	adcseq	r1, r3, lr, lsr #8
     510:	00150000 	andseq	r0, r5, r0
     514:	82341500 	eorshi	r1, r4, #0, 10
     518:	00040000 	andeq	r0, r4, r0
     51c:	052c0000 	streq	r0, [ip, #-0]!
     520:	3a110000 	bcc	440528 <__bss_end__+0x435e50>
     524:	52000002 	andpl	r0, r0, #2
     528:	00000002 	andeq	r0, r0, r2
     52c:	0000bf1b 	andeq	fp, r0, fp, lsl pc
     530:	00824400 	addeq	r4, r2, r0, lsl #8
     534:	00002000 	andeq	r2, r0, r0
     538:	94750100 	ldrbtls	r0, [r5], #-256	; 0x100
     53c:	14000005 	strne	r0, [r0], #-5
     540:	000000cb 	andeq	r0, r0, fp, asr #1
     544:	00d61715 	sbcseq	r1, r6, r5, lsl r7
     548:	02650000 	rsbeq	r0, r5, #0
     54c:	601c0000 	andsvs	r0, ip, r0
     550:	7d000000 	stcvc	0, cr0, [r0, #-0]
     554:	17000005 	strne	r0, [r0, -r5]
     558:	000000d6 	ldrdeq	r0, [r0], -r6
     55c:	0000027f 	andeq	r0, r0, pc, ror r2
     560:	0000cb14 	andeq	ip, r0, r4, lsl fp
     564:	8f1d1500 	svchi	0x001d1500
     568:	44000000 	strmi	r0, [r0], #-0
     56c:	60000082 	andvs	r0, r0, r2, lsl #1
     570:	01000000 	mrseq	r0, (UNDEF: 0)
     574:	009b142c 	addseq	r1, fp, ip, lsr #8
     578:	00150000 	andseq	r0, r5, r0
     57c:	00a71d00 	adceq	r1, r7, r0, lsl #26
     580:	82500000 	subshi	r0, r0, #0
     584:	00880000 	addeq	r0, r8, r0
     588:	2e010000 	cdpcs	0, 0, cr0, cr1, cr0, {0}
     58c:	0000b314 	andeq	fp, r0, r4, lsl r3
     590:	00001500 	andeq	r1, r0, r0, lsl #10
     594:	00826815 	addeq	r6, r2, r5, lsl r8
     598:	00000400 	andeq	r0, r0, r0, lsl #8
     59c:	0005ab00 	andeq	sl, r5, r0, lsl #22
     5a0:	024b1100 	subeq	r1, fp, #0, 2
     5a4:	03080000 	movweq	r0, #32768	; 0x8000
     5a8:	1b000000 	blne	5b0 <_start-0x7a50>
     5ac:	000000bf 	strheq	r0, [r0], -pc	; <UNPREDICTABLE>
     5b0:	00008278 	andeq	r8, r0, r8, ror r2
     5b4:	00000020 	andeq	r0, r0, r0, lsr #32
     5b8:	06137701 	ldreq	r7, [r3], -r1, lsl #14
     5bc:	cb140000 	blgt	5005c4 <__bss_end__+0x4f5eec>
     5c0:	15000000 	strne	r0, [r0, #-0]
     5c4:	0000d617 	andeq	sp, r0, r7, lsl r6
     5c8:	00031b00 	andeq	r1, r3, r0, lsl #22
     5cc:	00a81c00 	adceq	r1, r8, r0, lsl #24
     5d0:	05fc0000 	ldrbeq	r0, [ip, #0]!
     5d4:	d6170000 	ldrle	r0, [r7], -r0
     5d8:	35000000 	strcc	r0, [r0, #-0]
     5dc:	14000003 	strne	r0, [r0], #-3
     5e0:	000000cb 	andeq	r0, r0, fp, asr #1
     5e4:	008f1d15 	addeq	r1, pc, r5, lsl sp	; <UNPREDICTABLE>
     5e8:	82780000 	rsbshi	r0, r8, #0
     5ec:	00a80000 	adceq	r0, r8, r0
     5f0:	2c010000 	stccs	0, cr0, [r1], {-0}
     5f4:	00009b14 	andeq	r9, r0, r4, lsl fp
     5f8:	00001500 	andeq	r1, r0, r0, lsl #10
     5fc:	0000a71d 	andeq	sl, r0, sp, lsl r7
     600:	00828400 	addeq	r8, r2, r0, lsl #8
     604:	0000d000 	andeq	sp, r0, r0
     608:	142e0100 	strtne	r0, [lr], #-256	; 0x100
     60c:	000000b3 	strheq	r0, [r0], -r3
     610:	15000015 	strne	r0, [r0, #-21]
     614:	0000829c 	muleq	r0, ip, r2
     618:	00000004 	andeq	r0, r0, r4
     61c:	0000062a 	andeq	r0, r0, sl, lsr #12
     620:	00025c11 	andeq	r5, r2, r1, lsl ip
     624:	0003ac00 	andeq	sl, r3, r0, lsl #24
     628:	bf1b0000 	svclt	0x001b0000
     62c:	ac000000 	stcge	0, cr0, [r0], {-0}
     630:	20000082 	andcs	r0, r0, r2, lsl #1
     634:	01000000 	mrseq	r0, (UNDEF: 0)
     638:	00069279 	andeq	r9, r6, r9, ror r2
     63c:	00cb1400 	sbceq	r1, fp, r0, lsl #8
     640:	17150000 	ldrne	r0, [r5, -r0]
     644:	000000d6 	ldrdeq	r0, [r0], -r6
     648:	000003bf 			; <UNDEFINED> instruction: 0x000003bf
     64c:	0000f01c 	andeq	pc, r0, ip, lsl r0	; <UNPREDICTABLE>
     650:	00067b00 	andeq	r7, r6, r0, lsl #22
     654:	00d61700 	sbcseq	r1, r6, r0, lsl #14
     658:	03d90000 	bicseq	r0, r9, #0
     65c:	cb140000 	blgt	500664 <__bss_end__+0x4f5f8c>
     660:	15000000 	strne	r0, [r0, #-0]
     664:	00008f1d 	andeq	r8, r0, sp, lsl pc
     668:	0082ac00 	addeq	sl, r2, r0, lsl #24
     66c:	0000f000 	andeq	pc, r0, r0
     670:	142c0100 	strtne	r0, [ip], #-256	; 0x100
     674:	0000009b 	muleq	r0, fp, r0
     678:	1d000015 	stcne	0, cr0, [r0, #-84]	; 0xffffffac
     67c:	000000a7 	andeq	r0, r0, r7, lsr #1
     680:	000082b8 			; <UNDEFINED> instruction: 0x000082b8
     684:	00000118 	andeq	r0, r0, r8, lsl r1
     688:	b3142e01 	tstlt	r4, #1, 28
     68c:	15000000 	strne	r0, [r0, #-0]
     690:	d0150000 	andsle	r0, r5, r0
     694:	04000082 	streq	r0, [r0], #-130	; 0x82
     698:	a9000000 	stmdbge	r0, {}	; <UNPREDICTABLE>
     69c:	11000006 	tstne	r0, r6
     6a0:	0000026d 	andeq	r0, r0, sp, ror #4
     6a4:	0000043e 	andeq	r0, r0, lr, lsr r4
     6a8:	00bf1b00 	adcseq	r1, pc, r0, lsl #22
     6ac:	82e00000 	rschi	r0, r0, #0
     6b0:	00200000 	eoreq	r0, r0, r0
     6b4:	7b010000 	blvc	406bc <__bss_end__+0x35fe4>
     6b8:	00000711 	andeq	r0, r0, r1, lsl r7
     6bc:	0000cb14 	andeq	ip, r0, r4, lsl fp
     6c0:	d6171500 	ldrle	r1, [r7], -r0, lsl #10
     6c4:	51000000 	mrspl	r0, (UNDEF: 0)
     6c8:	1c000004 	stcne	0, cr0, [r0], {4}
     6cc:	00000138 	andeq	r0, r0, r8, lsr r1
     6d0:	000006fa 	strdeq	r0, [r0], -sl
     6d4:	0000d617 	andeq	sp, r0, r7, lsl r6
     6d8:	00046b00 	andeq	r6, r4, r0, lsl #22
     6dc:	00cb1400 	sbceq	r1, fp, r0, lsl #8
     6e0:	1d150000 	ldcne	0, cr0, [r5, #-0]
     6e4:	0000008f 	andeq	r0, r0, pc, lsl #1
     6e8:	000082e0 	andeq	r8, r0, r0, ror #5
     6ec:	00000138 	andeq	r0, r0, r8, lsr r1
     6f0:	9b142c01 	blls	50b6fc <__bss_end__+0x501024>
     6f4:	15000000 	strne	r0, [r0, #-0]
     6f8:	a71d0000 	ldrge	r0, [sp, -r0]
     6fc:	ec000000 	stc	0, cr0, [r0], {-0}
     700:	60000082 	andvs	r0, r0, r2, lsl #1
     704:	01000001 	tsteq	r0, r1
     708:	00b3142e 	adcseq	r1, r3, lr, lsr #8
     70c:	00150000 	andseq	r0, r5, r0
     710:	83041500 	movwhi	r1, #17664	; 0x4500
     714:	00040000 	andeq	r0, r4, r0
     718:	07280000 	streq	r0, [r8, -r0]!
     71c:	7e110000 	cdpvc	0, 1, cr0, cr1, cr0, {0}
     720:	be000002 	cdplt	0, 0, cr0, cr0, cr2, {0}
     724:	00000004 	andeq	r0, r0, r4
     728:	0000bf1b 	andeq	fp, r0, fp, lsl pc
     72c:	00831400 	addeq	r1, r3, r0, lsl #8
     730:	00002000 	andeq	r2, r0, r0
     734:	907d0100 	rsbsls	r0, sp, r0, lsl #2
     738:	14000007 	strne	r0, [r0], #-7
     73c:	000000cb 	andeq	r0, r0, fp, asr #1
     740:	00d61715 	sbcseq	r1, r6, r5, lsl r7
     744:	04d10000 	ldrbeq	r0, [r1], #0
     748:	801c0000 	andshi	r0, ip, r0
     74c:	79000001 	stmdbvc	r0, {r0}
     750:	17000007 	strne	r0, [r0, -r7]
     754:	000000d6 	ldrdeq	r0, [r0], -r6
     758:	000004ec 	andeq	r0, r0, ip, ror #9
     75c:	0000cb14 	andeq	ip, r0, r4, lsl fp
     760:	8f1d1500 	svchi	0x001d1500
     764:	14000000 	strne	r0, [r0], #-0
     768:	80000083 	andhi	r0, r0, r3, lsl #1
     76c:	01000001 	tsteq	r0, r1
     770:	009b142c 	addseq	r1, fp, ip, lsr #8
     774:	00150000 	andseq	r0, r5, r0
     778:	00a71d00 	adceq	r1, r7, r0, lsl #26
     77c:	83200000 	teqhi	r0, #0
     780:	01a80000 			; <UNDEFINED> instruction: 0x01a80000
     784:	2e010000 	cdpcs	0, 0, cr0, cr1, cr0, {0}
     788:	0000b314 	andeq	fp, r0, r4, lsl r3
     78c:	00001500 	andeq	r1, r0, r0, lsl #10
     790:	00833815 	addeq	r3, r3, r5, lsl r8
     794:	00000400 	andeq	r0, r0, r0, lsl #8
     798:	0007a700 	andeq	sl, r7, r0, lsl #14
     79c:	028f1100 	addeq	r1, pc, #0, 2
     7a0:	052d0000 	streq	r0, [sp, #-0]!
     7a4:	1b000000 	blne	7ac <_start-0x7854>
     7a8:	000000bf 	strheq	r0, [r0], -pc	; <UNPREDICTABLE>
     7ac:	00008348 	andeq	r8, r0, r8, asr #6
     7b0:	00000020 	andeq	r0, r0, r0, lsr #32
     7b4:	080f7f01 	stmdaeq	pc, {r0, r8, r9, sl, fp, ip, sp, lr}	; <UNPREDICTABLE>
     7b8:	cb140000 	blgt	5007c0 <__bss_end__+0x4f60e8>
     7bc:	15000000 	strne	r0, [r0, #-0]
     7c0:	0000d617 	andeq	sp, r0, r7, lsl r6
     7c4:	00054000 	andeq	r4, r5, r0
     7c8:	01c81c00 	biceq	r1, r8, r0, lsl #24
     7cc:	07f80000 	ldrbeq	r0, [r8, r0]!
     7d0:	d6170000 	ldrle	r0, [r7], -r0
     7d4:	5b000000 	blpl	7dc <_start-0x7824>
     7d8:	14000005 	strne	r0, [r0], #-5
     7dc:	000000cb 	andeq	r0, r0, fp, asr #1
     7e0:	008f1d15 	addeq	r1, pc, r5, lsl sp	; <UNPREDICTABLE>
     7e4:	83480000 	movthi	r0, #32768	; 0x8000
     7e8:	01c80000 	biceq	r0, r8, r0
     7ec:	2c010000 	stccs	0, cr0, [r1], {-0}
     7f0:	00009b14 	andeq	r9, r0, r4, lsl fp
     7f4:	00001500 	andeq	r1, r0, r0, lsl #10
     7f8:	0000a71d 	andeq	sl, r0, sp, lsl r7
     7fc:	00835400 	addeq	r5, r3, r0, lsl #8
     800:	0001f000 	andeq	pc, r1, r0
     804:	142e0100 	strtne	r0, [lr], #-256	; 0x100
     808:	000000b3 	strheq	r0, [r0], -r3
     80c:	15000015 	strne	r0, [r0, #-21]
     810:	0000836c 	andeq	r8, r0, ip, ror #6
     814:	00000004 	andeq	r0, r0, r4
     818:	00000826 	andeq	r0, r0, r6, lsr #16
     81c:	0002a011 	andeq	sl, r2, r1, lsl r0
     820:	00058900 	andeq	r8, r5, r0, lsl #18
     824:	bf1b0000 	svclt	0x001b0000
     828:	7c000000 	stcvc	0, cr0, [r0], {-0}
     82c:	20000083 	andcs	r0, r0, r3, lsl #1
     830:	01000000 	mrseq	r0, (UNDEF: 0)
     834:	00088e81 	andeq	r8, r8, r1, lsl #29
     838:	00cb1400 	sbceq	r1, fp, r0, lsl #8
     83c:	17150000 	ldrne	r0, [r5, -r0]
     840:	000000d6 	ldrdeq	r0, [r0], -r6
     844:	0000059c 	muleq	r0, ip, r5
     848:	0002101c 	andeq	r1, r2, ip, lsl r0
     84c:	00087700 	andeq	r7, r8, r0, lsl #14
     850:	00d61700 	sbcseq	r1, r6, r0, lsl #14
     854:	05b70000 	ldreq	r0, [r7, #0]!
     858:	cb140000 	blgt	500860 <__bss_end__+0x4f6188>
     85c:	15000000 	strne	r0, [r0, #-0]
     860:	00008f1d 	andeq	r8, r0, sp, lsl pc
     864:	00837c00 	addeq	r7, r3, r0, lsl #24
     868:	00021000 	andeq	r1, r2, r0
     86c:	142c0100 	strtne	r0, [ip], #-256	; 0x100
     870:	0000009b 	muleq	r0, fp, r0
     874:	1d000015 	stcne	0, cr0, [r0, #-84]	; 0xffffffac
     878:	000000a7 	andeq	r0, r0, r7, lsr #1
     87c:	00008388 	andeq	r8, r0, r8, lsl #7
     880:	00000238 	andeq	r0, r0, r8, lsr r2
     884:	b3142e01 	tstlt	r4, #1, 28
     888:	15000000 	strne	r0, [r0, #-0]
     88c:	a0150000 	andsge	r0, r5, r0
     890:	04000083 	streq	r0, [r0], #-131	; 0x83
     894:	a5000000 	strge	r0, [r0, #-0]
     898:	11000008 	tstne	r0, r8
     89c:	000002b1 			; <UNDEFINED> instruction: 0x000002b1
     8a0:	000005d2 	ldrdeq	r0, [r0], -r2
     8a4:	008f1a00 	addeq	r1, pc, r0, lsl #20
     8a8:	83b00000 	movshi	r0, #0
     8ac:	02580000 	subseq	r0, r8, #0
     8b0:	83010000 	movwhi	r0, #4096	; 0x1000
     8b4:	000008bf 			; <UNDEFINED> instruction: 0x000008bf
     8b8:	00009b14 	andeq	r9, r0, r4, lsl fp
     8bc:	16001500 	strne	r1, [r0], -r0, lsl #10
     8c0:	000083c4 	andeq	r8, r0, r4, asr #7
     8c4:	00000004 	andeq	r0, r0, r4
     8c8:	0002be11 	andeq	fp, r2, r1, lsl lr
     8cc:	0005e500 	andeq	lr, r5, r0, lsl #10
     8d0:	1e000000 	cdpne	0, 0, cr0, cr0, cr0, {0}
     8d4:	00000159 	andeq	r0, r0, r9, asr r1
     8d8:	002c3701 	eoreq	r3, ip, r1, lsl #14
     8dc:	84040000 	strhi	r0, [r4], #-0
     8e0:	00500000 	subseq	r0, r0, r0
     8e4:	9c010000 	stcls	0, cr0, [r1], {-0}
     8e8:	000009b3 			; <UNDEFINED> instruction: 0x000009b3
     8ec:	0100731f 	tsteq	r0, pc, lsl r3
     8f0:	00002c37 	andeq	r2, r0, r7, lsr ip
     8f4:	0005f800 	andeq	pc, r5, r0, lsl #16
     8f8:	014c2000 	mrseq	r2, (UNDEF: 76)
     8fc:	09c30000 	stmibeq	r3, {}^	; <UNPREDICTABLE>
     900:	03050000 	movweq	r0, #20480	; 0x5000
     904:	00009ff4 	strdeq	r9, [r0], -r4
     908:	00000a0a 	andeq	r0, r0, sl, lsl #20
     90c:	2c390100 	ldfcss	f0, [r9], #-0
     910:	21000000 	mrscs	r0, (UNDEF: 0)
     914:	00000187 	andeq	r0, r0, r7, lsl #3
     918:	002c3b01 	eoreq	r3, ip, r1, lsl #22
     91c:	06320000 	ldrteq	r0, [r2], -r0
     920:	10150000 	andsne	r0, r5, r0
     924:	04000084 	streq	r0, [r0], #-132	; 0x84
     928:	3b000000 	blcc	930 <_start-0x76d0>
     92c:	0a000009 	beq	958 <_start-0x76a8>
     930:	000001c5 	andeq	r0, r0, r5, asr #3
     934:	002c3901 	eoreq	r3, ip, r1, lsl #18
     938:	15000000 	strne	r0, [r0, #-0]
     93c:	00008420 	andeq	r8, r0, r0, lsr #8
     940:	00000004 	andeq	r0, r0, r4
     944:	00000958 	andeq	r0, r0, r8, asr r9
     948:	0001c521 	andeq	ip, r1, r1, lsr #10
     94c:	2c3b0100 	ldfcss	f0, [fp], #-0
     950:	32000000 	andcc	r0, r0, #0
     954:	00000006 	andeq	r0, r0, r6
     958:	00842022 	addeq	r2, r4, r2, lsr #32
     95c:	0012ca00 	andseq	ip, r2, r0, lsl #20
     960:	00097100 	andeq	r7, r9, r0, lsl #2
     964:	50012300 	andpl	r2, r1, r0, lsl #6
     968:	5001f307 	andpl	pc, r1, r7, lsl #6
     96c:	1e03e80a 	cdpne	8, 0, cr14, cr3, cr10, {0}
     970:	84302400 	ldrthi	r2, [r0], #-1024	; 0x400
     974:	12db0000 	sbcsne	r0, fp, #0
     978:	44220000 	strtmi	r0, [r2], #-0
     97c:	e2000084 	and	r0, r0, #132	; 0x84
     980:	a9000012 	stmdbge	r0, {r1, r4}
     984:	23000009 	movwcs	r0, #9
     988:	08025301 	stmdaeq	r2, {r0, r8, r9, ip, lr}
     98c:	52012338 	andpl	r2, r1, #56, 6	; 0xe0000000
     990:	9ff40305 	svcls	0x00f40305
     994:	01230000 	teqeq	r3, r0
     998:	34030551 	strcc	r0, [r3], #-1361	; 0x551
     99c:	230000a0 	movwcs	r0, #160	; 0xa0
     9a0:	03055001 	movweq	r5, #20481	; 0x5001
     9a4:	0000a004 	andeq	sl, r0, r4
     9a8:	84482400 	strbhi	r2, [r8], #-1024	; 0x400
     9ac:	12f80000 	rscsne	r0, r8, #0
     9b0:	25000000 	strcs	r0, [r0, #-0]
     9b4:	0000007d 	andeq	r0, r0, sp, ror r0
     9b8:	000009c3 	andeq	r0, r0, r3, asr #19
     9bc:	00007626 	andeq	r7, r0, r6, lsr #12
     9c0:	06000e00 	streq	r0, [r0], -r0, lsl #28
     9c4:	000009b3 			; <UNDEFINED> instruction: 0x000009b3
     9c8:	0000e010 	andeq	lr, r0, r0, lsl r0
     9cc:	00845400 	addeq	r5, r4, r0, lsl #8
     9d0:	0001c800 	andeq	ip, r1, r0, lsl #16
     9d4:	f29c0100 	vaddw.s16	q0, q6, d0
     9d8:	1700000a 	strne	r0, [r0, -sl]
     9dc:	000000f0 	strdeq	r0, [r0], -r0	; <UNPREDICTABLE>
     9e0:	00000645 	andeq	r0, r0, r5, asr #12
     9e4:	0000fb11 	andeq	pc, r0, r1, lsl fp	; <UNPREDICTABLE>
     9e8:	00066600 	andeq	r6, r6, r0, lsl #12
     9ec:	01061800 	tsteq	r6, r0, lsl #16
     9f0:	13010000 	movwne	r0, #4096	; 0x1000
     9f4:	0000010f 	andeq	r0, r0, pc, lsl #2
     9f8:	68155301 	ldmdavs	r5, {r0, r8, r9, ip, lr}
     9fc:	04000084 	streq	r0, [r0], #-132	; 0x84
     a00:	0f000000 	svceq	0x00000000
     a04:	1300000a 	movwne	r0, #10
     a08:	0000011f 	andeq	r0, r0, pc, lsl r1
     a0c:	15005301 	strne	r5, [r0, #-769]	; 0x301
     a10:	00008470 	andeq	r8, r0, r0, ror r4
     a14:	00000004 	andeq	r0, r0, r4
     a18:	00000a26 	andeq	r0, r0, r6, lsr #20
     a1c:	00013011 	andeq	r3, r1, r1, lsl r0
     a20:	00071d00 	andeq	r1, r7, r0, lsl #26
     a24:	84150000 	ldrhi	r0, [r5], #-0
     a28:	04000084 	streq	r0, [r0], #-132	; 0x84
     a2c:	3d000000 	stccc	0, cr0, [r0, #-0]
     a30:	1100000a 	tstne	r0, sl
     a34:	00000141 	andeq	r0, r0, r1, asr #2
     a38:	00000730 	andeq	r0, r0, r0, lsr r7
     a3c:	84ac1500 	strthi	r1, [ip], #1280	; 0x500
     a40:	00040000 	andeq	r0, r4, r0
     a44:	0a540000 	beq	1500a4c <__bss_end__+0x14f6374>
     a48:	52110000 	andspl	r0, r1, #0
     a4c:	43000001 	movwmi	r0, #1
     a50:	00000007 	andeq	r0, r0, r7
     a54:	0084d415 	addeq	sp, r4, r5, lsl r4
     a58:	00000400 	andeq	r0, r0, r0, lsl #8
     a5c:	000a6b00 	andeq	r6, sl, r0, lsl #22
     a60:	01631100 	cmneq	r3, r0, lsl #2
     a64:	07560000 	ldrbeq	r0, [r6, -r0]
     a68:	15000000 	strne	r0, [r0, #-0]
     a6c:	000084fc 	strdeq	r8, [r0], -ip
     a70:	00000004 	andeq	r0, r0, r4
     a74:	00000a82 	andeq	r0, r0, r2, lsl #21
     a78:	00017411 	andeq	r7, r1, r1, lsl r4
     a7c:	00076900 	andeq	r6, r7, r0, lsl #18
     a80:	24150000 	ldrcs	r0, [r5], #-0
     a84:	04000085 	streq	r0, [r0], #-133	; 0x85
     a88:	99000000 	stmdbls	r0, {}	; <UNPREDICTABLE>
     a8c:	1100000a 	tstne	r0, sl
     a90:	00000185 	andeq	r0, r0, r5, lsl #3
     a94:	0000077c 	andeq	r0, r0, ip, ror r7
     a98:	854c1500 	strbhi	r1, [ip, #-1280]	; 0x500
     a9c:	00040000 	andeq	r0, r4, r0
     aa0:	0ab00000 	beq	fec00aa8 <__bss_end__+0xfebf63d0>
     aa4:	96110000 	ldrls	r0, [r1], -r0
     aa8:	8f000001 	svchi	0x00000001
     aac:	00000007 	andeq	r0, r0, r7
     ab0:	00857415 	addeq	r7, r5, r5, lsl r4
     ab4:	00000400 	andeq	r0, r0, r0, lsl #8
     ab8:	000ac700 	andeq	ip, sl, r0, lsl #14
     abc:	01a71100 			; <UNDEFINED> instruction: 0x01a71100
     ac0:	07a20000 	streq	r0, [r2, r0]!
     ac4:	15000000 	strne	r0, [r0, #-0]
     ac8:	0000859c 	muleq	r0, ip, r5
     acc:	00000004 	andeq	r0, r0, r4
     ad0:	00000ade 	ldrdeq	r0, [r0], -lr
     ad4:	0001b811 	andeq	fp, r1, r1, lsl r8
     ad8:	0007b500 	andeq	fp, r7, r0, lsl #10
     adc:	d8160000 	ldmdale	r6, {}	; <UNPREDICTABLE>
     ae0:	04000085 	streq	r0, [r0], #-133	; 0x85
     ae4:	11000000 	mrsne	r0, (UNDEF: 0)
     ae8:	000001c5 	andeq	r0, r0, r5, asr #3
     aec:	000007c8 	andeq	r0, r0, r8, asr #15
     af0:	d2100000 	andsle	r0, r0, #0
     af4:	1c000001 	stcne	0, cr0, [r0], {1}
     af8:	3c000086 	stccc	0, cr0, [r0], {134}	; 0x86
     afc:	01000002 	tsteq	r0, r2
     b00:	0010209c 	mulseq	r0, ip, r0
     b04:	01de1700 	bicseq	r1, lr, r0, lsl #14
     b08:	07db0000 	ldrbeq	r0, [fp, r0]
     b0c:	e9170000 	ldmdb	r7, {}	; <UNPREDICTABLE>
     b10:	fc000001 	stc2	0, cr0, [r0], {1}
     b14:	17000007 	strne	r0, [r0, -r7]
     b18:	000001f4 	strdeq	r0, [r0], -r4
     b1c:	0000081d 	andeq	r0, r0, sp, lsl r8
     b20:	0001ff18 	andeq	pc, r1, r8, lsl pc	; <UNPREDICTABLE>
     b24:	08130100 	ldmdaeq	r3, {r8}
     b28:	01000002 	tsteq	r0, r2
     b2c:	86201553 			; <UNDEFINED> instruction: 0x86201553
     b30:	00040000 	andeq	r0, r4, r0
     b34:	0b420000 	bleq	1080b3c <__bss_end__+0x1076464>
     b38:	18130000 	ldmdane	r3, {}	; <UNPREDICTABLE>
     b3c:	01000002 	tsteq	r0, r2
     b40:	a71a0053 			; <UNDEFINED> instruction: 0xa71a0053
     b44:	38000000 	stmdacc	r0, {}	; <UNPREDICTABLE>
     b48:	70000086 	andvc	r0, r0, r6, lsl #1
     b4c:	01000002 	tsteq	r0, r2
     b50:	000b5f71 	andeq	r5, fp, r1, ror pc
     b54:	00b31700 	adcseq	r1, r3, r0, lsl #14
     b58:	083e0000 	ldmdaeq	lr!, {}	; <UNPREDICTABLE>
     b5c:	15000000 	strne	r0, [r0, #-0]
     b60:	00008650 	andeq	r8, r0, r0, asr r6
     b64:	00000004 	andeq	r0, r0, r4
     b68:	00000b76 	andeq	r0, r0, r6, ror fp
     b6c:	00022911 	andeq	r2, r2, r1, lsl r9
     b70:	00085f00 	andeq	r5, r8, r0, lsl #30
     b74:	bf1b0000 	svclt	0x001b0000
     b78:	60000000 	andvs	r0, r0, r0
     b7c:	20000086 	andcs	r0, r0, r6, lsl #1
     b80:	01000000 	mrseq	r0, (UNDEF: 0)
     b84:	000bee73 	andeq	lr, fp, r3, ror lr
     b88:	00d61700 	sbcseq	r1, r6, r0, lsl #14
     b8c:	08720000 	ldmdaeq	r2!, {}^	; <UNPREDICTABLE>
     b90:	cb270000 	blgt	9c0b98 <__bss_end__+0x9b64c0>
     b94:	04000000 	streq	r0, [r0], #-0
     b98:	9f5001f3 	svcls	0x005001f3
     b9c:	0002881c 	andeq	r8, r2, ip, lsl r8
     ba0:	000bd300 	andeq	sp, fp, r0, lsl #6
     ba4:	00d61700 	sbcseq	r1, r6, r0, lsl #14
     ba8:	088c0000 	stmeq	ip, {}	; <UNPREDICTABLE>
     bac:	cb270000 	blgt	9c0bb4 <__bss_end__+0x9b64dc>
     bb0:	04000000 	streq	r0, [r0], #-0
     bb4:	9f5001f3 	svcls	0x005001f3
     bb8:	00008f1d 	andeq	r8, r0, sp, lsl pc
     bbc:	00866000 	addeq	r6, r6, r0
     bc0:	00028800 	andeq	r8, r2, r0, lsl #16
     bc4:	272c0100 	strcs	r0, [ip, -r0, lsl #2]!
     bc8:	0000009b 	muleq	r0, fp, r0
     bcc:	5001f304 	andpl	pc, r1, r4, lsl #6
     bd0:	1d00009f 	stcne	0, cr0, [r0, #-636]	; 0xfffffd84
     bd4:	000000a7 	andeq	r0, r0, r7, lsr #1
     bd8:	0000866c 	andeq	r8, r0, ip, ror #12
     bdc:	000002b0 			; <UNDEFINED> instruction: 0x000002b0
     be0:	b3272e01 	teqlt	r7, #1, 28
     be4:	04000000 	streq	r0, [r0], #-0
     be8:	9f5001f3 	svcls	0x005001f3
     bec:	84150000 	ldrhi	r0, [r5], #-0
     bf0:	04000086 	streq	r0, [r0], #-134	; 0x86
     bf4:	05000000 	streq	r0, [r0, #-0]
     bf8:	1100000c 	tstne	r0, ip
     bfc:	0000023a 	andeq	r0, r0, sl, lsr r2
     c00:	00000927 	andeq	r0, r0, r7, lsr #18
     c04:	00bf1b00 	adcseq	r1, pc, r0, lsl #22
     c08:	86940000 	ldrhi	r0, [r4], r0
     c0c:	00200000 	eoreq	r0, r0, r0
     c10:	75010000 	strvc	r0, [r1, #-0]
     c14:	00000c7d 	andeq	r0, r0, sp, ror ip
     c18:	0000d617 	andeq	sp, r0, r7, lsl r6
     c1c:	00093a00 	andeq	r3, r9, r0, lsl #20
     c20:	00cb2700 	sbceq	r2, fp, r0, lsl #14
     c24:	f3040000 	vhadd.u8	d0, d4, d0
     c28:	1c9f5001 	ldcne	0, cr5, [pc], {1}
     c2c:	000002d0 	ldrdeq	r0, [r0], -r0	; <UNPREDICTABLE>
     c30:	00000c62 	andeq	r0, r0, r2, ror #24
     c34:	0000d617 	andeq	sp, r0, r7, lsl r6
     c38:	00095400 	andeq	r5, r9, r0, lsl #8
     c3c:	00cb2700 	sbceq	r2, fp, r0, lsl #14
     c40:	f3040000 	vhadd.u8	d0, d4, d0
     c44:	1d9f5001 	ldcne	0, cr5, [pc, #4]	; c50 <_start-0x73b0>
     c48:	0000008f 	andeq	r0, r0, pc, lsl #1
     c4c:	00008694 	muleq	r0, r4, r6
     c50:	000002d0 	ldrdeq	r0, [r0], -r0	; <UNPREDICTABLE>
     c54:	9b272c01 	blls	9cbc60 <__bss_end__+0x9c1588>
     c58:	04000000 	streq	r0, [r0], #-0
     c5c:	9f5001f3 	svcls	0x005001f3
     c60:	a71d0000 	ldrge	r0, [sp, -r0]
     c64:	a0000000 	andge	r0, r0, r0
     c68:	f8000086 			; <UNDEFINED> instruction: 0xf8000086
     c6c:	01000002 	tsteq	r0, r2
     c70:	00b3272e 	adcseq	r2, r3, lr, lsr #14
     c74:	f3040000 	vhadd.u8	d0, d4, d0
     c78:	009f5001 	addseq	r5, pc, r1
     c7c:	86b81500 	ldrthi	r1, [r8], r0, lsl #10
     c80:	00040000 	andeq	r0, r4, r0
     c84:	0c940000 	ldceq	0, cr0, [r4], {0}
     c88:	4b110000 	blmi	440c90 <__bss_end__+0x4365b8>
     c8c:	dd000002 	stcle	0, cr0, [r0, #-8]
     c90:	00000009 	andeq	r0, r0, r9
     c94:	0000bf1b 	andeq	fp, r0, fp, lsl pc
     c98:	0086c800 	addeq	ip, r6, r0, lsl #16
     c9c:	00002000 	andeq	r2, r0, r0
     ca0:	0c770100 	ldfeqe	f0, [r7], #-0
     ca4:	1700000d 	strne	r0, [r0, -sp]
     ca8:	000000d6 	ldrdeq	r0, [r0], -r6
     cac:	000009f0 	strdeq	r0, [r0], -r0	; <UNPREDICTABLE>
     cb0:	0000cb27 	andeq	ip, r0, r7, lsr #22
     cb4:	01f30400 	mvnseq	r0, r0, lsl #8
     cb8:	181c9f50 	ldmdane	ip, {r4, r6, r8, r9, sl, fp, ip, pc}
     cbc:	f1000003 	cps	#3
     cc0:	1700000c 	strne	r0, [r0, -ip]
     cc4:	000000d6 	ldrdeq	r0, [r0], -r6
     cc8:	00000a0a 	andeq	r0, r0, sl, lsl #20
     ccc:	0000cb27 	andeq	ip, r0, r7, lsr #22
     cd0:	01f30400 	mvnseq	r0, r0, lsl #8
     cd4:	8f1d9f50 	svchi	0x001d9f50
     cd8:	c8000000 	stmdagt	r0, {}	; <UNPREDICTABLE>
     cdc:	18000086 	stmdane	r0, {r1, r2, r7}
     ce0:	01000003 	tsteq	r0, r3
     ce4:	009b272c 	addseq	r2, fp, ip, lsr #14
     ce8:	f3040000 	vhadd.u8	d0, d4, d0
     cec:	009f5001 	addseq	r5, pc, r1
     cf0:	00a71d00 	adceq	r1, r7, r0, lsl #26
     cf4:	86d40000 	ldrbhi	r0, [r4], r0
     cf8:	03400000 	movteq	r0, #0
     cfc:	2e010000 	cdpcs	0, 0, cr0, cr1, cr0, {0}
     d00:	0000b327 	andeq	fp, r0, r7, lsr #6
     d04:	01f30400 	mvnseq	r0, r0, lsl #8
     d08:	00009f50 	andeq	r9, r0, r0, asr pc
     d0c:	0086ec15 	addeq	lr, r6, r5, lsl ip
     d10:	00000400 	andeq	r0, r0, r0, lsl #8
     d14:	000d2300 	andeq	r2, sp, r0, lsl #6
     d18:	025c1100 	subseq	r1, ip, #0, 2
     d1c:	0a810000 	beq	fe040d24 <__bss_end__+0xfe03664c>
     d20:	1b000000 	blne	d28 <_start-0x72d8>
     d24:	000000bf 	strheq	r0, [r0], -pc	; <UNPREDICTABLE>
     d28:	000086fc 	strdeq	r8, [r0], -ip
     d2c:	00000020 	andeq	r0, r0, r0, lsr #32
     d30:	0d9b7901 	ldceq	9, cr7, [fp, #4]
     d34:	d6170000 	ldrle	r0, [r7], -r0
     d38:	94000000 	strls	r0, [r0], #-0
     d3c:	2700000a 	strcs	r0, [r0, -sl]
     d40:	000000cb 	andeq	r0, r0, fp, asr #1
     d44:	5001f304 	andpl	pc, r1, r4, lsl #6
     d48:	03601c9f 	cmneq	r0, #40704	; 0x9f00
     d4c:	0d800000 	stceq	0, cr0, [r0]
     d50:	d6170000 	ldrle	r0, [r7], -r0
     d54:	ae000000 	cdpge	0, 0, cr0, cr0, cr0, {0}
     d58:	2700000a 	strcs	r0, [r0, -sl]
     d5c:	000000cb 	andeq	r0, r0, fp, asr #1
     d60:	5001f304 	andpl	pc, r1, r4, lsl #6
     d64:	008f1d9f 	umulleq	r1, pc, pc, sp	; <UNPREDICTABLE>
     d68:	86fc0000 	ldrbthi	r0, [ip], r0
     d6c:	03600000 	cmneq	r0, #0
     d70:	2c010000 	stccs	0, cr0, [r1], {-0}
     d74:	00009b27 	andeq	r9, r0, r7, lsr #22
     d78:	01f30400 	mvnseq	r0, r0, lsl #8
     d7c:	00009f50 	andeq	r9, r0, r0, asr pc
     d80:	0000a71d 	andeq	sl, r0, sp, lsl r7
     d84:	00870800 	addeq	r0, r7, r0, lsl #16
     d88:	00038800 	andeq	r8, r3, r0, lsl #16
     d8c:	272e0100 	strcs	r0, [lr, -r0, lsl #2]!
     d90:	000000b3 	strheq	r0, [r0], -r3
     d94:	5001f304 	andpl	pc, r1, r4, lsl #6
     d98:	1500009f 	strne	r0, [r0, #-159]	; 0x9f
     d9c:	00008720 	andeq	r8, r0, r0, lsr #14
     da0:	00000004 	andeq	r0, r0, r4
     da4:	00000db2 			; <UNDEFINED> instruction: 0x00000db2
     da8:	00026d11 	andeq	r6, r2, r1, lsl sp
     dac:	000b1300 	andeq	r1, fp, r0, lsl #6
     db0:	bf1b0000 	svclt	0x001b0000
     db4:	30000000 	andcc	r0, r0, r0
     db8:	20000087 	andcs	r0, r0, r7, lsl #1
     dbc:	01000000 	mrseq	r0, (UNDEF: 0)
     dc0:	000e2a7b 	andeq	r2, lr, fp, ror sl
     dc4:	00d61700 	sbcseq	r1, r6, r0, lsl #14
     dc8:	0b260000 	bleq	980dd0 <__bss_end__+0x9766f8>
     dcc:	cb270000 	blgt	9c0dd4 <__bss_end__+0x9b66fc>
     dd0:	04000000 	streq	r0, [r0], #-0
     dd4:	9f5001f3 	svcls	0x005001f3
     dd8:	0003a81c 	andeq	sl, r3, ip, lsl r8
     ddc:	000e0f00 	andeq	r0, lr, r0, lsl #30
     de0:	00d61700 	sbcseq	r1, r6, r0, lsl #14
     de4:	0b400000 	bleq	1000dec <__bss_end__+0xff6714>
     de8:	cb270000 	blgt	9c0df0 <__bss_end__+0x9b6718>
     dec:	04000000 	streq	r0, [r0], #-0
     df0:	9f5001f3 	svcls	0x005001f3
     df4:	00008f1d 	andeq	r8, r0, sp, lsl pc
     df8:	00873000 	addeq	r3, r7, r0
     dfc:	0003a800 	andeq	sl, r3, r0, lsl #16
     e00:	272c0100 	strcs	r0, [ip, -r0, lsl #2]!
     e04:	0000009b 	muleq	r0, fp, r0
     e08:	5001f304 	andpl	pc, r1, r4, lsl #6
     e0c:	1d00009f 	stcne	0, cr0, [r0, #-636]	; 0xfffffd84
     e10:	000000a7 	andeq	r0, r0, r7, lsr #1
     e14:	0000873c 	andeq	r8, r0, ip, lsr r7
     e18:	000003d0 	ldrdeq	r0, [r0], -r0	; <UNPREDICTABLE>
     e1c:	b3272e01 	teqlt	r7, #1, 28
     e20:	04000000 	streq	r0, [r0], #-0
     e24:	9f5001f3 	svcls	0x005001f3
     e28:	54150000 	ldrpl	r0, [r5], #-0
     e2c:	04000087 	streq	r0, [r0], #-135	; 0x87
     e30:	41000000 	mrsmi	r0, (UNDEF: 0)
     e34:	1100000e 	tstne	r0, lr
     e38:	0000027e 	andeq	r0, r0, lr, ror r2
     e3c:	00000b93 	muleq	r0, r3, fp
     e40:	00bf1b00 	adcseq	r1, pc, r0, lsl #22
     e44:	87640000 	strbhi	r0, [r4, -r0]!
     e48:	00200000 	eoreq	r0, r0, r0
     e4c:	7d010000 	stcvc	0, cr0, [r1, #-0]
     e50:	00000eb9 			; <UNDEFINED> instruction: 0x00000eb9
     e54:	0000d617 	andeq	sp, r0, r7, lsl r6
     e58:	000ba600 	andeq	sl, fp, r0, lsl #12
     e5c:	00cb2700 	sbceq	r2, fp, r0, lsl #14
     e60:	f3040000 	vhadd.u8	d0, d4, d0
     e64:	1c9f5001 	ldcne	0, cr5, [pc], {1}
     e68:	000003f0 	strdeq	r0, [r0], -r0	; <UNPREDICTABLE>
     e6c:	00000e9e 	muleq	r0, lr, lr
     e70:	0000d617 	andeq	sp, r0, r7, lsl r6
     e74:	000bc100 	andeq	ip, fp, r0, lsl #2
     e78:	00cb2700 	sbceq	r2, fp, r0, lsl #14
     e7c:	f3040000 	vhadd.u8	d0, d4, d0
     e80:	1d9f5001 	ldcne	0, cr5, [pc, #4]	; e8c <_start-0x7174>
     e84:	0000008f 	andeq	r0, r0, pc, lsl #1
     e88:	00008764 	andeq	r8, r0, r4, ror #14
     e8c:	000003f0 	strdeq	r0, [r0], -r0	; <UNPREDICTABLE>
     e90:	9b272c01 	blls	9cbe9c <__bss_end__+0x9c17c4>
     e94:	04000000 	streq	r0, [r0], #-0
     e98:	9f5001f3 	svcls	0x005001f3
     e9c:	a71d0000 	ldrge	r0, [sp, -r0]
     ea0:	70000000 	andvc	r0, r0, r0
     ea4:	18000087 	stmdane	r0, {r0, r1, r2, r7}
     ea8:	01000004 	tsteq	r0, r4
     eac:	00b3272e 	adcseq	r2, r3, lr, lsr #14
     eb0:	f3040000 	vhadd.u8	d0, d4, d0
     eb4:	009f5001 	addseq	r5, pc, r1
     eb8:	87881500 	strhi	r1, [r8, r0, lsl #10]
     ebc:	00040000 	andeq	r0, r4, r0
     ec0:	0ed00000 	cdpeq	0, 13, cr0, cr0, cr0, {0}
     ec4:	8f110000 	svchi	0x00110000
     ec8:	02000002 	andeq	r0, r0, #2
     ecc:	0000000c 	andeq	r0, r0, ip
     ed0:	0000bf1b 	andeq	fp, r0, fp, lsl pc
     ed4:	00879800 	addeq	r9, r7, r0, lsl #16
     ed8:	00002000 	andeq	r2, r0, r0
     edc:	487f0100 	ldmdami	pc!, {r8}^	; <UNPREDICTABLE>
     ee0:	1700000f 	strne	r0, [r0, -pc]
     ee4:	000000d6 	ldrdeq	r0, [r0], -r6
     ee8:	00000c15 	andeq	r0, r0, r5, lsl ip
     eec:	0000cb27 	andeq	ip, r0, r7, lsr #22
     ef0:	01f30400 	mvnseq	r0, r0, lsl #8
     ef4:	381c9f50 	ldmdacc	ip, {r4, r6, r8, r9, sl, fp, ip, pc}
     ef8:	2d000004 	stccs	0, cr0, [r0, #-16]
     efc:	1700000f 	strne	r0, [r0, -pc]
     f00:	000000d6 	ldrdeq	r0, [r0], -r6
     f04:	00000c30 	andeq	r0, r0, r0, lsr ip
     f08:	0000cb27 	andeq	ip, r0, r7, lsr #22
     f0c:	01f30400 	mvnseq	r0, r0, lsl #8
     f10:	8f1d9f50 	svchi	0x001d9f50
     f14:	98000000 	stmdals	r0, {}	; <UNPREDICTABLE>
     f18:	38000087 	stmdacc	r0, {r0, r1, r2, r7}
     f1c:	01000004 	tsteq	r0, r4
     f20:	009b272c 	addseq	r2, fp, ip, lsr #14
     f24:	f3040000 	vhadd.u8	d0, d4, d0
     f28:	009f5001 	addseq	r5, pc, r1
     f2c:	00a71d00 	adceq	r1, r7, r0, lsl #26
     f30:	87a40000 	strhi	r0, [r4, r0]!
     f34:	04600000 	strbteq	r0, [r0], #-0
     f38:	2e010000 	cdpcs	0, 0, cr0, cr1, cr0, {0}
     f3c:	0000b327 	andeq	fp, r0, r7, lsr #6
     f40:	01f30400 	mvnseq	r0, r0, lsl #8
     f44:	00009f50 	andeq	r9, r0, r0, asr pc
     f48:	0087bc15 	addeq	fp, r7, r5, lsl ip
     f4c:	00000400 	andeq	r0, r0, r0, lsl #8
     f50:	000f5f00 	andeq	r5, pc, r0, lsl #30
     f54:	02a01100 	adceq	r1, r0, #0, 2
     f58:	0c5e0000 	mraeq	r0, lr, acc0
     f5c:	1b000000 	blne	f64 <_start-0x709c>
     f60:	000000bf 	strheq	r0, [r0], -pc	; <UNPREDICTABLE>
     f64:	000087cc 	andeq	r8, r0, ip, asr #15
     f68:	00000020 	andeq	r0, r0, r0, lsr #32
     f6c:	0fd78101 	svceq	0x00d78101
     f70:	d6170000 	ldrle	r0, [r7], -r0
     f74:	71000000 	mrsvc	r0, (UNDEF: 0)
     f78:	2700000c 	strcs	r0, [r0, -ip]
     f7c:	000000cb 	andeq	r0, r0, fp, asr #1
     f80:	5001f304 	andpl	pc, r1, r4, lsl #6
     f84:	04801c9f 	streq	r1, [r0], #3231	; 0xc9f
     f88:	0fbc0000 	svceq	0x00bc0000
     f8c:	d6170000 	ldrle	r0, [r7], -r0
     f90:	8c000000 	stchi	0, cr0, [r0], {-0}
     f94:	2700000c 	strcs	r0, [r0, -ip]
     f98:	000000cb 	andeq	r0, r0, fp, asr #1
     f9c:	5001f304 	andpl	pc, r1, r4, lsl #6
     fa0:	008f1d9f 	umulleq	r1, pc, pc, sp	; <UNPREDICTABLE>
     fa4:	87cc0000 	strbhi	r0, [ip, r0]
     fa8:	04800000 	streq	r0, [r0], #0
     fac:	2c010000 	stccs	0, cr0, [r1], {-0}
     fb0:	00009b27 	andeq	r9, r0, r7, lsr #22
     fb4:	01f30400 	mvnseq	r0, r0, lsl #8
     fb8:	00009f50 	andeq	r9, r0, r0, asr pc
     fbc:	0000a71d 	andeq	sl, r0, sp, lsl r7
     fc0:	0087d800 	addeq	sp, r7, r0, lsl #16
     fc4:	0004a800 	andeq	sl, r4, r0, lsl #16
     fc8:	272e0100 	strcs	r0, [lr, -r0, lsl #2]!
     fcc:	000000b3 	strheq	r0, [r0], -r3
     fd0:	5001f304 	andpl	pc, r1, r4, lsl #6
     fd4:	1500009f 	strne	r0, [r0, #-159]	; 0x9f
     fd8:	000087f0 	strdeq	r8, [r0], -r0
     fdc:	00000004 	andeq	r0, r0, r4
     fe0:	00000fee 	andeq	r0, r0, lr, ror #31
     fe4:	0002b111 	andeq	fp, r2, r1, lsl r1
     fe8:	000ca700 	andeq	sl, ip, r0, lsl #14
     fec:	8f1a0000 	svchi	0x001a0000
     ff0:	00000000 	andeq	r0, r0, r0
     ff4:	c8000088 	stmdagt	r0, {r3, r7}
     ff8:	01000004 	tsteq	r0, r4
     ffc:	00100c83 	andseq	r0, r0, r3, lsl #25
    1000:	009b2700 	addseq	r2, fp, r0, lsl #14
    1004:	f3040000 	vhadd.u8	d0, d4, d0
    1008:	009f5001 	addseq	r5, pc, r1
    100c:	00881416 	addeq	r1, r8, r6, lsl r4
    1010:	00000400 	andeq	r0, r0, r0, lsl #8
    1014:	02be1100 	adcseq	r1, lr, #0, 2
    1018:	0cba0000 	ldceq	0, cr0, [sl]
    101c:	00000000 	andeq	r0, r0, r0
    1020:	00009528 	andeq	r9, r0, r8, lsr #10
    1024:	58a70100 	stmiapl	r7!, {r8}
    1028:	f0000088 			; <UNDEFINED> instruction: 0xf0000088
    102c:	01000000 	mrseq	r0, (UNDEF: 0)
    1030:	0011cf9c 	mulseq	r1, ip, pc	; <UNPREDICTABLE>
    1034:	78722900 	ldmdavc	r2!, {r8, fp, sp}^
    1038:	25a80100 	strcs	r0, [r8, #256]!	; 0x100
    103c:	14000000 	strne	r0, [r0], #-0
    1040:	00787429 	rsbseq	r7, r8, r9, lsr #8
    1044:	0025a901 	eoreq	sl, r5, r1, lsl #18
    1048:	15150000 	ldrne	r0, [r5, #-0]
    104c:	00008870 	andeq	r8, r0, r0, ror r8
    1050:	00000008 	andeq	r0, r0, r8
    1054:	00001064 	andeq	r1, r0, r4, rrx
    1058:	006e6929 	rsbeq	r6, lr, r9, lsr #18
    105c:	002cad01 	eoreq	sl, ip, r1, lsl #26
    1060:	00010000 	andeq	r0, r1, r0
    1064:	0002cb1a 	andeq	ip, r2, sl, lsl fp
    1068:	00887800 	addeq	r7, r8, r0, lsl #16
    106c:	0004e000 	andeq	lr, r4, r0
    1070:	96af0100 	strtls	r0, [pc], r0, lsl #2
    1074:	14000011 	strne	r0, [r0], #-17
    1078:	000002d7 	ldrdeq	r0, [r0], -r7
    107c:	02e11415 	rsceq	r1, r1, #352321536	; 0x15000000
    1080:	19140000 	ldmdbne	r4, {}	; <UNPREDICTABLE>
    1084:	000002eb 	andeq	r0, r0, fp, ror #5
    1088:	e02a1000 	eor	r1, sl, r0
    108c:	11000004 	tstne	r0, r4
    1090:	000002f4 	strdeq	r0, [r0], -r4
    1094:	00000ccd 	andeq	r0, r0, sp, asr #25
    1098:	0002ff11 	andeq	pc, r2, r1, lsl pc	; <UNPREDICTABLE>
    109c:	000d8d00 	andeq	r8, sp, r0, lsl #26
    10a0:	008f1a00 	addeq	r1, pc, r0, lsl #20
    10a4:	88780000 	ldmdahi	r8!, {}^	; <UNPREDICTABLE>
    10a8:	04f80000 	ldrbteq	r0, [r8], #0
    10ac:	88010000 	stmdahi	r1, {}	; <UNPREDICTABLE>
    10b0:	000010bb 	strheq	r1, [r0], -fp
    10b4:	00009b14 	andeq	r9, r0, r4, lsl fp
    10b8:	22001500 	andcs	r1, r0, #0, 10
    10bc:	00008890 	muleq	r0, r0, r8
    10c0:	000012e2 	andeq	r1, r0, r2, ror #5
    10c4:	000010d2 	ldrdeq	r1, [r0], -r2
    10c8:	05500123 	ldrbeq	r0, [r0, #-291]	; 0x123
    10cc:	00a04003 	adceq	r4, r0, r3
    10d0:	a8220000 	stmdage	r2!, {}	; <UNPREDICTABLE>
    10d4:	ca000088 	bgt	12fc <_start-0x6d04>
    10d8:	e5000012 	str	r0, [r0, #-18]
    10dc:	23000010 	movwcs	r0, #16
    10e0:	31015001 	tstcc	r1, r1
    10e4:	88b82200 	ldmhi	r8!, {r9, sp}
    10e8:	04310000 	ldrteq	r0, [r1], #-0
    10ec:	10f80000 	rscsne	r0, r8, r0
    10f0:	01230000 	teqeq	r3, r0
    10f4:	00300150 	eorseq	r0, r0, r0, asr r1
    10f8:	0088c022 	addeq	ip, r8, r2, lsr #32
    10fc:	00043100 	andeq	r3, r4, r0, lsl #2
    1100:	00110b00 	andseq	r0, r1, r0, lsl #22
    1104:	50012300 	andpl	r2, r1, r0, lsl #6
    1108:	22003001 	andcs	r3, r0, #1
    110c:	000088cc 	andeq	r8, r0, ip, asr #17
    1110:	00000431 	andeq	r0, r0, r1, lsr r4
    1114:	00001125 	andeq	r1, r0, r5, lsr #2
    1118:	08500123 	ldmdaeq	r0, {r0, r1, r5, r8}^
    111c:	000a0074 	andeq	r0, sl, r4, ror r0
    1120:	25381aff 	ldrcs	r1, [r8, #-2815]!	; 0xaff
    1124:	88d42200 	ldmhi	r4, {r9, sp}^
    1128:	04310000 	ldrteq	r0, [r1], #-0
    112c:	11390000 	teqne	r9, r0
    1130:	01230000 	teqeq	r3, r0
    1134:	00740250 	rsbseq	r0, r4, r0, asr r2
    1138:	88d82400 	ldmhi	r8, {sl, sp}^
    113c:	030b0000 	movweq	r0, #45056	; 0xb000
    1140:	e0240000 	eor	r0, r4, r0
    1144:	0b000088 	bleq	136c <_start-0x6c94>
    1148:	24000003 	strcs	r0, [r0], #-3
    114c:	000088e8 	andeq	r8, r0, r8, ror #17
    1150:	0000030b 	andeq	r0, r0, fp, lsl #6
    1154:	0088f024 	addeq	pc, r8, r4, lsr #32
    1158:	00030b00 	andeq	r0, r3, r0, lsl #22
    115c:	89202200 	stmdbhi	r0!, {r9, sp}
    1160:	12e20000 	rscne	r0, r2, #0
    1164:	117b0000 	cmnne	fp, r0
    1168:	01230000 	teqeq	r3, r0
    116c:	000a0351 	andeq	r0, sl, r1, asr r3
    1170:	50012310 	andpl	r2, r1, r0, lsl r3
    1174:	a0740305 	rsbsge	r0, r4, r5, lsl #6
    1178:	2b000000 	blcs	1180 <_start-0x6e80>
    117c:	00008930 	andeq	r8, r0, r0, lsr r9
    1180:	000012e2 	andeq	r1, r0, r2, ror #5
    1184:	02520123 	subseq	r0, r2, #-1073741816	; 0xc0000008
    1188:	01230074 	teqeq	r3, r4, ror r0
    118c:	50030550 	andpl	r0, r3, r0, asr r5
    1190:	000000a0 	andeq	r0, r0, r0, lsr #1
    1194:	64220000 	strtvs	r0, [r2], #-0
    1198:	ff000088 			; <UNDEFINED> instruction: 0xff000088
    119c:	a9000012 	stmdbge	r0, {r1, r4}
    11a0:	23000011 	movwcs	r0, #17
    11a4:	45015001 	strmi	r5, [r1, #-1]
    11a8:	886c2200 	stmdahi	ip!, {r9, sp}^
    11ac:	13100000 	tstne	r0, #0
    11b0:	11bc0000 			; <UNDEFINED> instruction: 0x11bc0000
    11b4:	01230000 	teqeq	r3, r0
    11b8:	00440150 	subeq	r0, r4, r0, asr r1
    11bc:	00887024 	addeq	r7, r8, r4, lsr #32
    11c0:	00132100 	andseq	r2, r3, r0, lsl #2
    11c4:	89242400 	stmdbhi	r4!, {sl, sp}
    11c8:	12f80000 	rscsne	r0, r8, #0
    11cc:	2c000000 	stccs	0, cr0, [r0], {-0}
    11d0:	00000010 	andeq	r0, r0, r0, lsl r0
    11d4:	11de0801 	bicsne	r0, lr, r1, lsl #16
    11d8:	00000000 	andeq	r0, r0, r0
    11dc:	04052020 	streq	r2, [r5], #-32
    11e0:	000011e4 	andeq	r1, r0, r4, ror #3
    11e4:	00002c2d 	andeq	r2, r0, sp, lsr #24
    11e8:	00002c00 	andeq	r2, r0, r0, lsl #24
    11ec:	09010000 	stmdbeq	r1, {}	; <UNPREDICTABLE>
    11f0:	000011de 	ldrdeq	r1, [r0], -lr
    11f4:	2020001c 	eorcs	r0, r0, ip, lsl r0
    11f8:	0002212c 	andeq	r2, r2, ip, lsr #2
    11fc:	de0a0100 	adflee	f0, f2, f0
    1200:	28000011 	stmdacs	r0, {r0, r4}
    1204:	2c202000 	stccs	0, cr2, [r0], #-0
    1208:	00000117 	andeq	r0, r0, r7, lsl r1
    120c:	11de0c01 	bicsne	r0, lr, r1, lsl #24
    1210:	00000000 	andeq	r0, r0, r0
    1214:	2f2c2020 	svccs	0x002c2020
    1218:	01000001 	tsteq	r0, r1
    121c:	0011de0d 	andseq	sp, r1, sp, lsl #28
    1220:	20000400 	andcs	r0, r0, r0, lsl #8
    1224:	025a2c20 	subseq	r2, sl, #32, 24	; 0x2000
    1228:	0e010000 	cdpeq	0, 0, cr0, cr1, cr0, {0}
    122c:	000011de 	ldrdeq	r1, [r0], -lr
    1230:	20200008 	eorcs	r0, r0, r8
    1234:	0002622c 	andeq	r6, r2, ip, lsr #4
    1238:	de0f0100 	adflee	f0, f7, f0
    123c:	0c000011 	stceq	0, cr0, [r0], {17}
    1240:	2c202000 	stccs	0, cr2, [r0], #-0
    1244:	0000026a 	andeq	r0, r0, sl, ror #4
    1248:	11de1001 	bicsne	r1, lr, r1
    124c:	00100000 	andseq	r0, r0, r0
    1250:	722c2020 	eorvc	r2, ip, #32
    1254:	01000002 	tsteq	r0, r2
    1258:	0011de11 	andseq	sp, r1, r1, lsl lr
    125c:	20001400 	andcs	r1, r0, r0, lsl #8
    1260:	01092c20 	tsteq	r9, r0, lsr #24
    1264:	13010000 	movwne	r0, #4096	; 0x1000
    1268:	00001270 	andeq	r1, r0, r0, ror r2
    126c:	2020001c 	eorcs	r0, r0, ip, lsl r0
    1270:	0011de06 	andseq	sp, r1, r6, lsl #28
    1274:	00d92c00 	sbcseq	r2, r9, r0, lsl #24
    1278:	14010000 	strne	r0, [r1], #-0
    127c:	000011de 	ldrdeq	r1, [r0], -lr
    1280:	20200020 	eorcs	r0, r0, r0, lsr #32
    1284:	0000e02c 	andeq	lr, r0, ip, lsr #32
    1288:	93160100 	tstls	r6, #0, 2
    128c:	28000012 	stmdacs	r0, {r1, r4}
    1290:	06202000 	strteq	r2, [r0], -r0
    1294:	000011de 	ldrdeq	r1, [r0], -lr
    1298:	0000882c 	andeq	r8, r0, ip, lsr #16
    129c:	de170100 	mufles	f0, f7, f0
    12a0:	2c000011 	stccs	0, cr0, [r0], {17}
    12a4:	2c202000 	stccs	0, cr2, [r0], #-0
    12a8:	00000253 	andeq	r0, r0, r3, asr r2
    12ac:	12b61901 	adcsne	r1, r6, #16384	; 0x4000
    12b0:	00340000 	eorseq	r0, r4, r0
    12b4:	de062020 	cdple	0, 0, cr2, cr6, cr0, {1}
    12b8:	2c000011 	stccs	0, cr0, [r0], {17}
    12bc:	0000009d 	muleq	r0, sp, r0
    12c0:	11de1a01 	bicsne	r1, lr, r1, lsl #20
    12c4:	00380000 	eorseq	r0, r8, r0
    12c8:	c32e2020 	teqgt	lr, #32
    12cc:	02000000 	andeq	r0, r0, #0
    12d0:	0012db50 	andseq	sp, r2, r0, asr fp
    12d4:	002c2f00 	eoreq	r2, ip, r0, lsl #30
    12d8:	30000000 	andcc	r0, r0, r0
    12dc:	00000244 	andeq	r0, r0, r4, asr #4
    12e0:	f1311e02 			; <UNDEFINED> instruction: 0xf1311e02
    12e4:	02000002 	andeq	r0, r0, #2
    12e8:	00002529 	andeq	r2, r0, r9, lsr #10
    12ec:	0012f800 	andseq	pc, r2, r0, lsl #16
    12f0:	00842f00 	addeq	r2, r4, r0, lsl #30
    12f4:	00320000 	eorseq	r0, r2, r0
    12f8:	0000cc30 	andeq	ip, r0, r0, lsr ip
    12fc:	2e660200 	cdpcs	2, 6, cr0, cr6, cr0, {0}
    1300:	0000011f 	andeq	r0, r0, pc, lsl r1
    1304:	13101d03 	tstne	r0, #3, 26	; 0xc0
    1308:	2c2f0000 	stccs	0, cr0, [pc], #-0	; 1310 <_start-0x6cf0>
    130c:	00000000 	andeq	r0, r0, r0
    1310:	0000fa2e 	andeq	pc, r0, lr, lsr #20
    1314:	211c0300 	tstcs	ip, r0, lsl #6
    1318:	2f000013 	svccs	0x00000013
    131c:	0000002c 	andeq	r0, r0, ip, lsr #32
    1320:	02303000 	eorseq	r3, r0, #0
    1324:	8e020000 	cdphi	0, 0, cr0, cr2, cr0, {0}
    1328:	00019100 	andeq	r9, r1, r0, lsl #2
    132c:	79000400 	stmdbvc	r0, {sl}
    1330:	04000002 	streq	r0, [r0], #-2
    1334:	00029701 	andeq	r9, r2, r1, lsl #14
    1338:	02890100 	addeq	r0, r9, #0, 2
    133c:	03020000 	movweq	r0, #8192	; 0x2000
    1340:	89480000 	stmdbhi	r8, {}^	; <UNPREDICTABLE>
    1344:	00580000 	subseq	r0, r8, r0
    1348:	03e90000 	mvneq	r0, #0
    134c:	7a020000 	bvc	81354 <__bss_end__+0x76c7c>
    1350:	02000002 	andeq	r0, r0, #2
    1354:	00003028 	andeq	r3, r0, r8, lsr #32
    1358:	02f80300 	rscseq	r0, r8, #0, 6
    135c:	03040000 	movweq	r0, #16384	; 0x4000
    1360:	00004700 	andeq	r4, r0, r0, lsl #14
    1364:	034b0400 	movteq	r0, #46080	; 0xb400
    1368:	00470000 	subeq	r0, r7, r0
    136c:	00000000 	andeq	r0, r0, r0
    1370:	fa020405 	blx	8238c <__bss_end__+0x77cb4>
    1374:	02000002 	andeq	r0, r0, #2
    1378:	00002562 	andeq	r2, r0, r2, ror #10
    137c:	05040600 	streq	r0, [r4, #-1536]	; 0x600
    1380:	00746e69 	rsbseq	r6, r4, r9, ror #28
    1384:	72070407 	andvc	r0, r7, #117440512	; 0x7000000
    1388:	07000001 	streq	r0, [r0, -r1]
    138c:	00b70601 	adcseq	r0, r7, r1, lsl #12
    1390:	02070000 	andeq	r0, r7, #0
    1394:	00014205 	andeq	r4, r1, r5, lsl #4
    1398:	05040700 	streq	r0, [r4, #-1792]	; 0x700
    139c:	000001aa 	andeq	r0, r0, sl, lsr #3
    13a0:	a5050807 	strge	r0, [r5, #-2055]	; 0x807
    13a4:	07000001 	streq	r0, [r0, -r1]
    13a8:	00b50801 	adcseq	r0, r5, r1, lsl #16
    13ac:	02070000 	andeq	r0, r7, #0
    13b0:	0000e707 	andeq	lr, r0, r7, lsl #14
    13b4:	07040700 	streq	r0, [r4, -r0, lsl #14]
    13b8:	0000016d 	andeq	r0, r0, sp, ror #2
    13bc:	68070807 	stmdavs	r7, {r0, r1, r2, fp}
    13c0:	07000001 	streq	r0, [r0, -r1]
    13c4:	019c0704 	orrseq	r0, ip, r4, lsl #14
    13c8:	04080000 	streq	r0, [r8], #-0
    13cc:	000000a7 	andeq	r0, r0, r7, lsr #1
    13d0:	be080107 	adflte	f0, f0, f7
    13d4:	08000000 	stmdaeq	r0, {}	; <UNPREDICTABLE>
    13d8:	0000b404 	andeq	fp, r0, r4, lsl #8
    13dc:	00a70900 	adceq	r0, r7, r0, lsl #18
    13e0:	f10a0000 	cpsie	,#0
    13e4:	01000002 	tsteq	r0, r2
    13e8:	00005406 	andeq	r5, r0, r6, lsl #8
    13ec:	00894800 	addeq	r4, r9, r0, lsl #16
    13f0:	00005800 	andeq	r5, r0, r0, lsl #16
    13f4:	439c0100 	orrsmi	r0, ip, #0, 2
    13f8:	0b000001 	bleq	1404 <_start-0x6bfc>
    13fc:	00746d66 	rsbseq	r6, r4, r6, ror #26
    1400:	00ae0601 	adceq	r0, lr, r1, lsl #12
    1404:	91020000 	mrsls	r0, (UNDEF: 2)
    1408:	620d0c70 	andvs	r0, sp, #112, 24	; 0x7000
    140c:	01006675 	tsteq	r0, r5, ror r6
    1410:	00014308 	andeq	r4, r1, r8, lsl #6
    1414:	cc030500 	cfstr32gt	mvfx0, [r3], {-0}
    1418:	0e0000a2 	cdpeq	0, 0, cr0, cr0, cr2, {5}
    141c:	00000346 	andeq	r0, r0, r6, asr #6
    1420:	00490901 	subeq	r0, r9, r1, lsl #18
    1424:	91020000 	mrsls	r0, (UNDEF: 2)
    1428:	7a730f5c 	bvc	1cc51a0 <__bss_end__+0x1cbaac8>
    142c:	540c0100 	strpl	r0, [ip], #-256	; 0x100
    1430:	c5000000 	strgt	r0, [r0, #-0]
    1434:	1000000d 	andne	r0, r0, sp
    1438:	00008970 	andeq	r8, r0, r0, ror r9
    143c:	00000174 	andeq	r0, r0, r4, ror r1
    1440:	00000136 	andeq	r0, r0, r6, lsr r1
    1444:	02530111 	subseq	r0, r3, #1073741828	; 0x40000004
    1448:	01114c91 			; <UNDEFINED> instruction: 0x01114c91
    144c:	48910352 	ldmmi	r1, {r1, r4, r6, r8, r9}
    1450:	51011106 	tstpl	r1, r6, lsl #2
    1454:	04000a03 	streq	r0, [r0], #-2563	; 0xa03
    1458:	02500111 	subseq	r0, r0, #1073741828	; 0x40000004
    145c:	12000074 	andne	r0, r0, #116	; 0x74
    1460:	00008984 	andeq	r8, r0, r4, lsl #19
    1464:	02500111 	subseq	r0, r0, #1073741828	; 0x40000004
    1468:	00000074 	andeq	r0, r0, r4, ror r0
    146c:	0000a713 	andeq	sl, r0, r3, lsl r7
    1470:	00015400 	andeq	r5, r1, r0, lsl #8
    1474:	009a1400 	addseq	r1, sl, r0, lsl #8
    1478:	03ff0000 	mvnseq	r0, #0
    147c:	00541500 	subseq	r1, r4, r0, lsl #10
    1480:	01630000 	cmneq	r3, r0
    1484:	ae160000 	cdpge	0, 1, cr0, cr6, cr0, {0}
    1488:	00000000 	andeq	r0, r0, r0
    148c:	00039e17 	andeq	r9, r3, r7, lsl lr
    1490:	6e220400 	cdpvs	4, 2, cr0, cr2, cr0, {0}
    1494:	08000001 	stmdaeq	r0, {r0}
    1498:	00015404 	andeq	r5, r1, r4, lsl #8
    149c:	02ee1800 	rsceq	r1, lr, #0, 16
    14a0:	02050000 	andeq	r0, r5, #0
    14a4:	00000054 	andeq	r0, r0, r4, asr r0
    14a8:	0000a116 	andeq	sl, r0, r6, lsl r1
    14ac:	00541600 	subseq	r1, r4, r0, lsl #12
    14b0:	ae160000 	cdpge	0, 1, cr0, cr6, cr0, {0}
    14b4:	16000000 	strne	r0, [r0], -r0
    14b8:	00000049 	andeq	r0, r0, r9, asr #32
    14bc:	01130000 	tsteq	r3, r0
    14c0:	00040000 	andeq	r0, r4, r0
    14c4:	000003aa 	andeq	r0, r0, sl, lsr #7
    14c8:	02970104 	addseq	r0, r7, #4, 2
    14cc:	6d010000 	stcvs	0, cr0, [r1, #-0]
    14d0:	02000003 	andeq	r0, r0, #3
    14d4:	a0000003 	andge	r0, r0, r3
    14d8:	3c000089 	stccc	0, cr0, [r0], {137}	; 0x89
    14dc:	ef000000 	svc	0x00000000
    14e0:	02000004 	andeq	r0, r0, #4
    14e4:	6e690504 	cdpvs	5, 6, cr0, cr9, cr4, {0}
    14e8:	04030074 	streq	r0, [r3], #-116	; 0x74
    14ec:	00017207 	andeq	r7, r1, r7, lsl #4
    14f0:	06010300 	streq	r0, [r1], -r0, lsl #6
    14f4:	000000b7 	strheq	r0, [r0], -r7
    14f8:	42050203 	andmi	r0, r5, #805306368	; 0x30000000
    14fc:	03000001 	movweq	r0, #1
    1500:	01aa0504 			; <UNDEFINED> instruction: 0x01aa0504
    1504:	08030000 	stmdaeq	r3, {}	; <UNPREDICTABLE>
    1508:	0001a505 	andeq	sl, r1, r5, lsl #10
    150c:	08010300 	stmdaeq	r1, {r8, r9}
    1510:	000000b5 	strheq	r0, [r0], -r5
    1514:	e7070203 	str	r0, [r7, -r3, lsl #4]
    1518:	03000000 	movweq	r0, #0
    151c:	016d0704 	cmneq	sp, r4, lsl #14
    1520:	08030000 	stmdaeq	r3, {}	; <UNPREDICTABLE>
    1524:	00016807 	andeq	r6, r1, r7, lsl #16
    1528:	07040300 	streq	r0, [r4, -r0, lsl #6]
    152c:	0000019c 	muleq	r0, ip, r1
    1530:	be080103 	adflte	f0, f0, f3
    1534:	04000000 	streq	r0, [r0], #-0
    1538:	00000350 	andeq	r0, r0, r0, asr r3
    153c:	00250301 	eoreq	r0, r5, r1, lsl #6
    1540:	89a00000 	stmibhi	r0!, {}	; <UNPREDICTABLE>
    1544:	00140000 	andseq	r0, r4, r0
    1548:	9c010000 	stcls	0, cr0, [r1], {-0}
    154c:	000000b0 	strheq	r0, [r0], -r0	; <UNPREDICTABLE>
    1550:	01006305 	tsteq	r0, r5, lsl #6
    1554:	00002503 	andeq	r2, r0, r3, lsl #10
    1558:	000dee00 	andeq	lr, sp, r0, lsl #28
    155c:	89ac0600 	stmibhi	ip!, {r9, sl}
    1560:	01090000 	mrseq	r0, (UNDEF: 9)
    1564:	01070000 	mrseq	r0, (UNDEF: 7)
    1568:	00740250 	rsbseq	r0, r4, r0, asr r2
    156c:	44080000 	strmi	r0, [r8], #-0
    1570:	01000002 	tsteq	r0, r2
    1574:	0089b408 	addeq	fp, r9, r8, lsl #8
    1578:	00001800 	andeq	r1, r0, r0, lsl #16
    157c:	099c0100 	ldmibeq	ip, {r8}
    1580:	0000037c 	andeq	r0, r0, ip, ror r3
    1584:	89cc0b01 	stmibhi	ip, {r0, r8, r9, fp}^
    1588:	00100000 	andseq	r0, r0, r0
    158c:	9c010000 	stcls	0, cr0, [r1], {-0}
    1590:	000000e3 	andeq	r0, r0, r3, ror #1
    1594:	0070660a 	rsbseq	r6, r0, sl, lsl #12
    1598:	00f20b01 	rscseq	r0, r2, r1, lsl #22
    159c:	50010000 	andpl	r0, r1, r0
    15a0:	00250b00 	eoreq	r0, r5, r0, lsl #22
    15a4:	00f20000 	rscseq	r0, r2, r0
    15a8:	250c0000 	strcs	r0, [ip, #-0]
    15ac:	00000000 	andeq	r0, r0, r0
    15b0:	00e3040d 	rsceq	r0, r3, sp, lsl #8
    15b4:	610e0000 	mrsvs	r0, (UNDEF: 14)
    15b8:	01000003 	tsteq	r0, r3
    15bc:	0000f206 	andeq	pc, r0, r6, lsl #4
    15c0:	58030500 	stmdapl	r3, {r8, sl}
    15c4:	0f00009f 	svceq	0x0000009f
    15c8:	000004e9 	andeq	r0, r0, r9, ror #9
    15cc:	2c0c3c02 	stccs	12, cr3, [ip], {2}
    15d0:	00000000 	andeq	r0, r0, r0
    15d4:	0000ee00 	andeq	lr, r0, r0, lsl #28
    15d8:	92000400 	andls	r0, r0, #0, 8
    15dc:	04000004 	streq	r0, [r0], #-4
    15e0:	00029701 	andeq	r9, r2, r1, lsl #14
    15e4:	03890100 	orreq	r0, r9, #0, 2
    15e8:	03020000 	movweq	r0, #8192	; 0x2000
    15ec:	89dc0000 	ldmibhi	ip, {}^	; <UNPREDICTABLE>
    15f0:	00340000 	eorseq	r0, r4, r0
    15f4:	057d0000 	ldrbeq	r0, [sp, #-0]!
    15f8:	04020000 	streq	r0, [r2], #-0
    15fc:	746e6905 	strbtvc	r6, [lr], #-2309	; 0x905
    1600:	07040300 	streq	r0, [r4, -r0, lsl #6]
    1604:	00000172 	andeq	r0, r0, r2, ror r1
    1608:	b7060103 	strlt	r0, [r6, -r3, lsl #2]
    160c:	03000000 	movweq	r0, #0
    1610:	01420502 	cmpeq	r2, r2, lsl #10
    1614:	04030000 	streq	r0, [r3], #-0
    1618:	0001aa05 	andeq	sl, r1, r5, lsl #20
    161c:	05080300 	streq	r0, [r8, #-768]	; 0x300
    1620:	000001a5 	andeq	r0, r0, r5, lsr #3
    1624:	b5080103 	strlt	r0, [r8, #-259]	; 0x103
    1628:	03000000 	movweq	r0, #0
    162c:	00e70702 	rsceq	r0, r7, r2, lsl #14
    1630:	04030000 	streq	r0, [r3], #-0
    1634:	00016d07 	andeq	r6, r1, r7, lsl #26
    1638:	07080300 	streq	r0, [r8, -r0, lsl #6]
    163c:	00000168 	andeq	r0, r0, r8, ror #2
    1640:	9c070403 	cfstrsls	mvf0, [r7], {3}
    1644:	03000001 	movweq	r0, #1
    1648:	00be0801 	adcseq	r0, lr, r1, lsl #16
    164c:	04040000 	streq	r0, [r4], #-0
    1650:	0000007f 	andeq	r0, r0, pc, ror r0
    1654:	00007205 	andeq	r7, r0, r5, lsl #4
    1658:	03950600 	orrseq	r0, r5, #0, 12
    165c:	04010000 	streq	r0, [r1], #-0
    1660:	00000025 	andeq	r0, r0, r5, lsr #32
    1664:	000089dc 	ldrdeq	r8, [r0], -ip
    1668:	00000034 	andeq	r0, r0, r4, lsr r0
    166c:	00ab9c01 	adceq	r9, fp, r1, lsl #24
    1670:	70070000 	andvc	r0, r7, r0
    1674:	79040100 	stmdbvc	r4, {r8}
    1678:	0c000000 	stceq	0, cr0, [r0], {-0}
    167c:	0000000e 	andeq	r0, r0, lr
    1680:	00002508 	andeq	r2, r0, r8, lsl #10
    1684:	0000ba00 	andeq	fp, r0, r0, lsl #20
    1688:	00250900 	eoreq	r0, r5, r0, lsl #18
    168c:	0a000000 	beq	1694 <_start-0x696c>
    1690:	00000361 	andeq	r0, r0, r1, ror #6
    1694:	00c51d02 	sbceq	r1, r5, r2, lsl #26
    1698:	04040000 	streq	r0, [r4], #-0
    169c:	000000ab 	andeq	r0, r0, fp, lsr #1
    16a0:	00002508 	andeq	r2, r0, r8, lsl #10
    16a4:	0000da00 	andeq	sp, r0, r0, lsl #20
    16a8:	00790900 	rsbseq	r0, r9, r0, lsl #18
    16ac:	0b000000 	bleq	16b4 <_start-0x694c>
    16b0:	0000039e 	muleq	r0, lr, r3
    16b4:	00eb0c01 	rsceq	r0, fp, r1, lsl #24
    16b8:	03050000 	movweq	r0, #20480	; 0x5000
    16bc:	00009f5c 	andeq	r9, r0, ip, asr pc
    16c0:	00cb0404 	sbceq	r0, fp, r4, lsl #8
    16c4:	a1000000 	mrsge	r0, (UNDEF: 0)
    16c8:	04000006 	streq	r0, [r0], #-6
    16cc:	00052b00 	andeq	r2, r5, r0, lsl #22
    16d0:	97010400 	strls	r0, [r1, -r0, lsl #8]
    16d4:	01000002 	tsteq	r0, r2
    16d8:	000003cf 	andeq	r0, r0, pc, asr #7
    16dc:	00000302 	andeq	r0, r0, r2, lsl #6
    16e0:	00008a10 	andeq	r8, r0, r0, lsl sl
    16e4:	00000524 	andeq	r0, r0, r4, lsr #10
    16e8:	00000617 	andeq	r0, r0, r7, lsl r6
    16ec:	69050402 	stmdbvs	r5, {r1, sl}
    16f0:	0300746e 	movweq	r7, #1134	; 0x46e
    16f4:	01720704 	cmneq	r2, r4, lsl #14
    16f8:	01030000 	mrseq	r0, (UNDEF: 3)
    16fc:	0000b706 	andeq	fp, r0, r6, lsl #14
    1700:	05020300 	streq	r0, [r2, #-768]	; 0x300
    1704:	00000142 	andeq	r0, r0, r2, asr #2
    1708:	aa050403 	bge	14271c <__bss_end__+0x138044>
    170c:	03000001 	movweq	r0, #1
    1710:	01a50508 			; <UNDEFINED> instruction: 0x01a50508
    1714:	01030000 	mrseq	r0, (UNDEF: 3)
    1718:	0000b508 	andeq	fp, r0, r8, lsl #10
    171c:	07020300 	streq	r0, [r2, -r0, lsl #6]
    1720:	000000e7 	andeq	r0, r0, r7, ror #1
    1724:	6d070403 	cfstrsvs	mvf0, [r7, #-12]
    1728:	03000001 	movweq	r0, #1
    172c:	01680708 	cmneq	r8, r8, lsl #14
    1730:	04030000 	streq	r0, [r3], #-0
    1734:	00019c07 	andeq	r9, r1, r7, lsl #24
    1738:	05040400 	streq	r0, [r4, #-1024]	; 0x400
    173c:	00007a04 	andeq	r7, r0, r4, lsl #20
    1740:	08010300 	stmdaeq	r1, {r8, r9}
    1744:	000000be 	strheq	r0, [r0], -lr
    1748:	00870405 	addeq	r0, r7, r5, lsl #8
    174c:	7a060000 	bvc	181754 <__bss_end__+0x17707c>
    1750:	07000000 	streq	r0, [r0, -r0]
    1754:	0000027a 	andeq	r0, r0, sl, ror r2
    1758:	00972802 	addseq	r2, r7, r2, lsl #16
    175c:	f8080000 			; <UNDEFINED> instruction: 0xf8080000
    1760:	04000002 	streq	r0, [r0], #-2
    1764:	00ae0004 	adceq	r0, lr, r4
    1768:	4b090000 	blmi	241770 <__bss_end__+0x237098>
    176c:	72000003 	andvc	r0, r0, #3
    1770:	00000000 	andeq	r0, r0, r0
    1774:	02fa0700 	rscseq	r0, sl, #0, 14
    1778:	62020000 	andvs	r0, r2, #0
    177c:	0000008c 	andeq	r0, r0, ip, lsl #1
    1780:	0003b10a 	andeq	fp, r3, sl, lsl #2
    1784:	25270100 	strcs	r0, [r7, #-256]!	; 0x100
    1788:	10000000 	andne	r0, r0, r0
    178c:	1400008a 	strne	r0, [r0], #-138	; 0x8a
    1790:	01000000 	mrseq	r0, (UNDEF: 0)
    1794:	0000e09c 	muleq	r0, ip, r0
    1798:	00630b00 	rsbeq	r0, r3, r0, lsl #22
    179c:	00252701 	eoreq	r2, r5, r1, lsl #14
    17a0:	0e2a0000 	cdpeq	0, 2, cr0, cr10, cr0, {0}
    17a4:	0c000000 	stceq	0, cr0, [r0], {-0}
    17a8:	00646170 	rsbeq	r6, r4, r0, ror r1
    17ac:	00742e01 	rsbseq	r2, r4, r1, lsl #28
    17b0:	8a240000 	bhi	9017b8 <__bss_end__+0x8f70e0>
    17b4:	002c0000 	eoreq	r0, ip, r0
    17b8:	9c010000 	stcls	0, cr0, [r1], {-0}
    17bc:	00000130 	andeq	r0, r0, r0, lsr r1
    17c0:	0100700b 	tsteq	r0, fp
    17c4:	0000742e 	andeq	r7, r0, lr, lsr #8
    17c8:	000e5800 	andeq	r5, lr, r0, lsl #16
    17cc:	03c10d00 	biceq	r0, r1, #0, 26
    17d0:	2e010000 	cdpcs	0, 0, cr0, cr1, cr0, {0}
    17d4:	00000074 	andeq	r0, r0, r4, ror r0
    17d8:	00000e83 	andeq	r0, r0, r3, lsl #29
    17dc:	0003ef0e 	andeq	lr, r3, lr, lsl #30
    17e0:	252e0100 	strcs	r0, [lr, #-256]!	; 0x100
    17e4:	01000000 	mrseq	r0, (UNDEF: 0)
    17e8:	656c0f52 	strbvs	r0, [ip, #-3922]!	; 0xf52
    17ec:	2f01006e 	svccs	0x0001006e
    17f0:	00000025 	andeq	r0, r0, r5, lsr #32
    17f4:	0a005101 	beq	15c00 <__bss_end__+0xb528>
    17f8:	000003a9 	andeq	r0, r0, r9, lsr #7
    17fc:	00743701 	rsbseq	r3, r4, r1, lsl #14
    1800:	8a500000 	bhi	1401808 <__bss_end__+0x13f7130>
    1804:	00400000 	subeq	r0, r0, r0
    1808:	9c010000 	stcls	0, cr0, [r1], {-0}
    180c:	0000019c 	muleq	r0, ip, r1
    1810:	7473640b 	ldrbtvc	r6, [r3], #-1035	; 0x40b
    1814:	74370100 	ldrtvc	r0, [r7], #-256	; 0x100
    1818:	a4000000 	strge	r0, [r0], #-0
    181c:	0b00000e 	bleq	185c <_start-0x67a4>
    1820:	3701006e 	strcc	r0, [r1, -lr, rrx]
    1824:	00000025 	andeq	r0, r0, r5, lsr #32
    1828:	00000edc 	ldrdeq	r0, [r0], -ip
    182c:	0100700b 	tsteq	r0, fp
    1830:	00007437 	andeq	r7, r0, r7, lsr r4
    1834:	000efd00 	andeq	pc, lr, r0, lsl #26
    1838:	04d50d00 	ldrbeq	r0, [r5], #3328	; 0xd00
    183c:	37010000 	strcc	r0, [r1, -r0]
    1840:	00000074 	andeq	r0, r0, r4, ror r0
    1844:	00000f33 	andeq	r0, r0, r3, lsr pc
    1848:	6e656c10 	mcrvs	12, 3, r6, cr5, cr0, {0}
    184c:	25390100 	ldrcs	r0, [r9, #-256]!	; 0x100
    1850:	51000000 	mrspl	r0, (UNDEF: 0)
    1854:	0f00000f 	svceq	0x0000000f
    1858:	3d010073 	stccc	0, cr0, [r1, #-460]	; 0xfffffe34
    185c:	00000074 	andeq	r0, r0, r4, ror r0
    1860:	0a005001 	beq	1586c <__bss_end__+0xb194>
    1864:	000003fd 	strdeq	r0, [r0], -sp
    1868:	00744701 	rsbseq	r4, r4, r1, lsl #14
    186c:	8a900000 	bhi	fe401874 <__bss_end__+0xfe3f719c>
    1870:	01a80000 			; <UNDEFINED> instruction: 0x01a80000
    1874:	9c010000 	stcls	0, cr0, [r1], {-0}
    1878:	000002df 	ldrdeq	r0, [r0], -pc	; <UNPREDICTABLE>
    187c:	0003c10d 	andeq	ip, r3, sp, lsl #2
    1880:	2c470100 	stfcse	f0, [r7], {-0}
    1884:	78000000 	stmdavc	r0, {}	; <UNPREDICTABLE>
    1888:	0b00000f 	bleq	18cc <_start-0x6734>
    188c:	00747364 	rsbseq	r7, r4, r4, ror #6
    1890:	00744701 	rsbseq	r4, r4, r1, lsl #14
    1894:	0fa60000 	svceq	0x00a60000
    1898:	6e0b0000 	cdpvs	0, 0, cr0, cr11, cr0, {0}
    189c:	25470100 	strbcs	r0, [r7, #-256]	; 0x100
    18a0:	14000000 	strne	r0, [r0], #-0
    18a4:	0b000010 	bleq	18ec <_start-0x6714>
    18a8:	006c6176 	rsbeq	r6, ip, r6, ror r1
    18ac:	00254701 	eoreq	r4, r5, r1, lsl #14
    18b0:	10400000 	subne	r0, r0, r0
    18b4:	ef0d0000 	svc	0x000d0000
    18b8:	01000003 	tsteq	r0, r3
    18bc:	00002547 	andeq	r2, r0, r7, asr #10
    18c0:	0010bf00 	andseq	fp, r0, r0, lsl #30
    18c4:	03c60e00 	biceq	r0, r6, #0, 28
    18c8:	47010000 	strmi	r0, [r1, -r0]
    18cc:	00000025 	andeq	r0, r0, r5, lsr #32
    18d0:	0f049102 	svceq	0x00049102
    18d4:	00667562 	rsbeq	r7, r6, r2, ror #10
    18d8:	02df4c01 	sbcseq	r4, pc, #256	; 0x100
    18dc:	91030000 	mrsls	r0, (UNDEF: 3)
    18e0:	70107fa8 	andsvc	r7, r0, r8, lsr #31
    18e4:	744c0100 	strbvc	r0, [ip], #-256	; 0x100
    18e8:	e9000000 	stmdb	r0, {}	; <UNPREDICTABLE>
    18ec:	10000010 	andne	r0, r0, r0, lsl r0
    18f0:	4d010075 	stcmi	0, cr0, [r1, #-468]	; 0xfffffe2c
    18f4:	0000002c 	andeq	r0, r0, ip, lsr #32
    18f8:	000011a5 	andeq	r1, r0, r5, lsr #3
    18fc:	00014c11 	andeq	r4, r1, r1, lsl ip
    1900:	0002ff00 	andeq	pc, r2, r0, lsl #30
    1904:	90030500 	andls	r0, r3, r0, lsl #10
    1908:	120000a0 	andne	r0, r0, #160	; 0xa0
    190c:	00008afc 	strdeq	r8, [r0], -ip
    1910:	00000074 	andeq	r0, r0, r4, ror r0
    1914:	00000261 	andeq	r0, r0, r1, ror #4
    1918:	0003a313 	andeq	sl, r3, r3, lsl r3
    191c:	2c520100 	ldfcse	f0, [r2], {-0}
    1920:	aa000000 	bge	1928 <_start-0x66d8>
    1924:	00000012 	andeq	r0, r0, r2, lsl r0
    1928:	008bd014 	addeq	sp, fp, r4, lsl r0
    192c:	00068000 	andeq	r8, r6, r0
    1930:	8bec1500 	blhi	ffb06d38 <__bss_end__+0xffafc660>
    1934:	06870000 	streq	r0, [r7], r0
    1938:	02a30000 	adceq	r0, r3, #0
    193c:	01160000 	tsteq	r6, r0
    1940:	75080253 	strvc	r0, [r8, #-595]	; 0x253
    1944:	05520116 	ldrbeq	r0, [r2, #-278]	; 0x116
    1948:	00a09003 	adceq	r9, r0, r3
    194c:	51011600 	tstpl	r1, r0, lsl #12
    1950:	a0c80305 	sbcge	r0, r8, r5, lsl #6
    1954:	01160000 	tsteq	r6, r0
    1958:	b4030550 	strlt	r0, [r3], #-1360	; 0x550
    195c:	160000a0 	strne	r0, [r0], -r0, lsr #1
    1960:	05007d02 	streq	r7, [r0, #-3330]	; 0xd02
    1964:	00a0dc03 	adceq	sp, r0, r3, lsl #24
    1968:	f0140000 			; <UNDEFINED> instruction: 0xf0140000
    196c:	9d00008b 	stcls	0, cr0, [r0, #-556]	; 0xfffffdd4
    1970:	15000006 	strne	r0, [r0, #-6]
    1974:	00008bfc 	strdeq	r8, [r0], -ip
    1978:	000000e0 	andeq	r0, r0, r0, ror #1
    197c:	000002c1 	andeq	r0, r0, r1, asr #5
    1980:	03510116 	cmpeq	r1, #-2147483643	; 0x80000005
    1984:	007fa091 			; <UNDEFINED> instruction: 0x007fa091
    1988:	008c1017 	addeq	r1, ip, r7, lsl r0
    198c:	00013000 	andeq	r3, r1, r0
    1990:	53011600 	movwpl	r1, #5632	; 0x1600
    1994:	7fa09103 	svcvc	0x00a09103
    1998:	02510116 	subseq	r0, r1, #-2147483643	; 0x80000005
    199c:	01160074 	tsteq	r6, r4, ror r0
    19a0:	00750250 	rsbseq	r0, r5, r0, asr r2
    19a4:	7a180000 	bvc	6019ac <__bss_end__+0x5f72d4>
    19a8:	ef000000 	svc	0x00000000
    19ac:	19000002 	stmdbne	r0, {r1}
    19b0:	0000006b 	andeq	r0, r0, fp, rrx
    19b4:	7a18003f 	bvc	601ab8 <__bss_end__+0x5f73e0>
    19b8:	ff000000 			; <UNDEFINED> instruction: 0xff000000
    19bc:	19000002 	stmdbne	r0, {r1}
    19c0:	0000006b 	andeq	r0, r0, fp, rrx
    19c4:	ef060004 	svc	0x00060004
    19c8:	1a000002 	bne	19d8 <_start-0x6628>
    19cc:	000003e0 	andeq	r0, r0, r0, ror #7
    19d0:	8c381f01 	ldchi	15, cr1, [r8], #-4
    19d4:	00680000 	rsbeq	r0, r8, r0
    19d8:	9c010000 	stcls	0, cr0, [r1], {-0}
    19dc:	00000392 	muleq	r0, r2, r3
    19e0:	0003f50d 	andeq	pc, r3, sp, lsl #10
    19e4:	a11f0100 	tstge	pc, r0, lsl #2
    19e8:	d6000003 	strle	r0, [r0], -r3
    19ec:	0d000012 	stceq	0, cr0, [r0, #-72]	; 0xffffffb8
    19f0:	000003b9 			; <UNDEFINED> instruction: 0x000003b9
    19f4:	03b61f01 			; <UNDEFINED> instruction: 0x03b61f01
    19f8:	13020000 	movwne	r0, #8192	; 0x2000
    19fc:	4c110000 	ldcmi	0, cr0, [r1], {-0}
    1a00:	cc000001 	stcgt	0, cr0, [r0], {1}
    1a04:	05000003 	streq	r0, [r0, #-3]
    1a08:	00a09803 	adceq	r9, r0, r3, lsl #16
    1a0c:	8c4c1400 	cfstrdhi	mvd1, [ip], {-0}
    1a10:	06800000 	streq	r0, [r0], r0
    1a14:	68150000 	ldmdavs	r5, {}	; <UNPREDICTABLE>
    1a18:	8700008c 	strhi	r0, [r0, -ip, lsl #1]
    1a1c:	88000006 	stmdahi	r0, {r1, r2}
    1a20:	16000003 	strne	r0, [r0], -r3
    1a24:	08025301 	stmdaeq	r2, {r0, r8, r9, ip, lr}
    1a28:	52011620 	andpl	r1, r1, #32, 12	; 0x2000000
    1a2c:	a0980305 	addsge	r0, r8, r5, lsl #6
    1a30:	01160000 	tsteq	r6, r0
    1a34:	c8030551 	stmdagt	r3, {r0, r4, r6, r8, sl}
    1a38:	160000a0 	strne	r0, [r0], -r0, lsr #1
    1a3c:	03055001 	movweq	r5, #20481	; 0x5001
    1a40:	0000a0b4 	strheq	sl, [r0], -r4
    1a44:	007d0216 	rsbseq	r0, sp, r6, lsl r2
    1a48:	a1040305 	tstge	r4, r5, lsl #6
    1a4c:	14000000 	strne	r0, [r0], #-0
    1a50:	00008c6c 	andeq	r8, r0, ip, ror #24
    1a54:	0000069d 	muleq	r0, sp, r6
    1a58:	00251b00 	eoreq	r1, r5, r0, lsl #22
    1a5c:	03a10000 			; <UNDEFINED> instruction: 0x03a10000
    1a60:	251c0000 	ldrcs	r0, [ip, #-0]
    1a64:	00000000 	andeq	r0, r0, r0
    1a68:	03920405 	orrseq	r0, r2, #83886080	; 0x5000000
    1a6c:	251b0000 	ldrcs	r0, [fp, #-0]
    1a70:	b6000000 	strlt	r0, [r0], -r0
    1a74:	1c000003 	stcne	0, cr0, [r0], {3}
    1a78:	00000081 	andeq	r0, r0, r1, lsl #1
    1a7c:	a7040500 	strge	r0, [r4, -r0, lsl #10]
    1a80:	18000003 	stmdane	r0, {r0, r1}
    1a84:	0000007a 	andeq	r0, r0, sl, ror r0
    1a88:	000003cc 	andeq	r0, r0, ip, asr #7
    1a8c:	00006b19 	andeq	r6, r0, r9, lsl fp
    1a90:	06000e00 	streq	r0, [r0], -r0, lsl #28
    1a94:	000003bc 			; <UNDEFINED> instruction: 0x000003bc
    1a98:	0002ee1d 	andeq	lr, r2, sp, lsl lr
    1a9c:	257d0100 	ldrbcs	r0, [sp, #-256]!	; 0x100
    1aa0:	a0000000 	andge	r0, r0, r0
    1aa4:	9400008c 	strls	r0, [r0], #-140	; 0x8c
    1aa8:	01000002 	tsteq	r0, r2
    1aac:	0006459c 	muleq	r6, ip, r5
    1ab0:	75620b00 	strbvc	r0, [r2, #-2816]!	; 0xb00
    1ab4:	7d010066 	stcvc	0, cr0, [r1, #-408]	; 0xfffffe68
    1ab8:	00000074 	andeq	r0, r0, r4, ror r0
    1abc:	0000132e 	andeq	r1, r0, lr, lsr #6
    1ac0:	01006e0b 	tsteq	r0, fp, lsl #28
    1ac4:	0000257d 	andeq	r2, r0, sp, ror r5
    1ac8:	00135a00 	andseq	r5, r3, r0, lsl #20
    1acc:	6d660b00 	vstmdbvs	r6!, {d16-d15}
    1ad0:	7d010074 	stcvc	0, cr0, [r1, #-464]	; 0xfffffe30
    1ad4:	00000081 	andeq	r0, r0, r1, lsl #1
    1ad8:	00001388 	andeq	r1, r0, r8, lsl #7
    1adc:	0003460d 	andeq	r4, r3, sp, lsl #12
    1ae0:	ae7d0100 	rpwgee	f0, f5, f0
    1ae4:	bc000000 	stclt	0, cr0, [r0], {-0}
    1ae8:	10000013 	andne	r0, r0, r3, lsl r0
    1aec:	7e010070 	mcrvc	0, 0, r0, cr1, cr0, {3}
    1af0:	00000074 	andeq	r0, r0, r4, ror r0
    1af4:	000013cf 	andeq	r1, r0, pc, asr #7
    1af8:	01006510 	tsteq	r0, r0, lsl r5
    1afc:	0000747e 	andeq	r7, r0, lr, ror r4
    1b00:	00144d00 	andseq	r4, r4, r0, lsl #26
    1b04:	014c1100 	mrseq	r1, (UNDEF: 92)
    1b08:	06550000 	ldrbeq	r0, [r5], -r0
    1b0c:	03050000 	movweq	r0, #20480	; 0x5000
    1b10:	0000a0a8 	andeq	sl, r0, r8, lsr #1
    1b14:	0005101e 	andeq	r1, r5, lr, lsl r0
    1b18:	00731000 	rsbseq	r1, r3, r0
    1b1c:	00748b01 	rsbseq	r8, r4, r1, lsl #22
    1b20:	14740000 	ldrbtne	r0, [r4], #-0
    1b24:	6e0f0000 	cdpvs	0, 0, cr0, cr15, cr0, {0}
    1b28:	01006d75 	tsteq	r0, r5, ror sp
    1b2c:	00065a8b 	andeq	r5, r6, fp, lsl #21
    1b30:	d8910300 	ldmle	r1, {r8, r9}
    1b34:	03ef137e 	mvneq	r1, #-134217727	; 0xf8000001
    1b38:	8c010000 	stchi	0, cr0, [r1], {-0}
    1b3c:	0000002c 	andeq	r0, r0, ip, lsr #32
    1b40:	000014c9 	andeq	r1, r0, r9, asr #9
    1b44:	008d2415 	addeq	r2, sp, r5, lsl r4
    1b48:	0000b900 	andeq	fp, r0, r0, lsl #18
    1b4c:	00049100 	andeq	r9, r4, r0, lsl #2
    1b50:	50011600 	andpl	r1, r1, r0, lsl #12
    1b54:	00007502 	andeq	r7, r0, r2, lsl #10
    1b58:	008d3814 	addeq	r3, sp, r4, lsl r8
    1b5c:	00068000 	andeq	r8, r6, r0
    1b60:	8d541500 	cfldr64hi	mvdx1, [r4, #-0]
    1b64:	06870000 	streq	r0, [r7], r0
    1b68:	04d30000 	ldrbeq	r0, [r3], #0
    1b6c:	01160000 	tsteq	r6, r0
    1b70:	92080253 	andls	r0, r8, #805306373	; 0x30000005
    1b74:	05520116 	ldrbeq	r0, [r2, #-278]	; 0x116
    1b78:	00a0a803 	adceq	sl, r0, r3, lsl #16
    1b7c:	51011600 	tstpl	r1, r0, lsl #12
    1b80:	a0c80305 	sbcge	r0, r8, r5, lsl #6
    1b84:	01160000 	tsteq	r6, r0
    1b88:	b4030550 	strlt	r0, [r3], #-1360	; 0x550
    1b8c:	160000a0 	strne	r0, [r0], -r0, lsr #1
    1b90:	05007d02 	streq	r7, [r0, #-3330]	; 0xd02
    1b94:	00a10c03 	adceq	r0, r1, r3, lsl #24
    1b98:	58140000 	ldmdapl	r4, {}	; <UNPREDICTABLE>
    1b9c:	9d00008d 	stcls	0, cr0, [r0, #-564]	; 0xfffffdcc
    1ba0:	14000006 	strne	r0, [r0], #-6
    1ba4:	00008dc8 	andeq	r8, r0, r8, asr #27
    1ba8:	00000680 	andeq	r0, r0, r0, lsl #13
    1bac:	008ddc15 	addeq	sp, sp, r5, lsl ip
    1bb0:	00068700 	andeq	r8, r6, r0, lsl #14
    1bb4:	00051400 	andeq	r1, r5, r0, lsl #8
    1bb8:	53011600 	movwpl	r1, #5632	; 0x1600
    1bbc:	16980802 	ldrne	r0, [r8], r2, lsl #16
    1bc0:	03055201 	movweq	r5, #20993	; 0x5201
    1bc4:	0000a0a8 	andeq	sl, r0, r8, lsr #1
    1bc8:	05510116 	ldrbeq	r0, [r1, #-278]	; 0x116
    1bcc:	00a0c803 	adceq	ip, r0, r3, lsl #16
    1bd0:	50011600 	andpl	r1, r1, r0, lsl #12
    1bd4:	a1180305 	tstge	r8, r5, lsl #6
    1bd8:	14000000 	strne	r0, [r0], #-0
    1bdc:	00008de0 	andeq	r8, r0, r0, ror #27
    1be0:	0000069d 	muleq	r0, sp, r6
    1be4:	008e0415 	addeq	r0, lr, r5, lsl r4
    1be8:	00019c00 	andeq	r9, r1, r0, lsl #24
    1bec:	00054a00 	andeq	r4, r5, r0, lsl #20
    1bf0:	52011600 	andpl	r1, r1, #0, 12
    1bf4:	16800802 	strne	r0, [r0], r2, lsl #16
    1bf8:	91035101 	tstls	r3, r1, lsl #2
    1bfc:	01167ed0 			; <UNDEFINED> instruction: 0x01167ed0
    1c00:	163a0150 			; <UNDEFINED> instruction: 0x163a0150
    1c04:	01047d02 	tsteq	r4, r2, lsl #26
    1c08:	7d021631 	stcvc	6, cr1, [r2, #-196]	; 0xffffff3c
    1c0c:	00770200 	rsbseq	r0, r7, r0, lsl #4
    1c10:	8e281500 	cfsh64hi	mvdx1, mvdx8, #0
    1c14:	019c0000 	orrseq	r0, ip, r0
    1c18:	05780000 	ldrbeq	r0, [r8, #-0]!
    1c1c:	01160000 	tsteq	r6, r0
    1c20:	80080252 	andhi	r0, r8, r2, asr r2
    1c24:	03510116 	cmpeq	r1, #-2147483643	; 0x80000005
    1c28:	167ed091 			; <UNDEFINED> instruction: 0x167ed091
    1c2c:	3a015001 	bcc	55c38 <__bss_end__+0x4b560>
    1c30:	047d0216 	ldrbteq	r0, [sp], #-534	; 0x216
    1c34:	16007b02 	strne	r7, [r0], -r2, lsl #22
    1c38:	02007d02 	andeq	r7, r0, #2, 26	; 0x80
    1c3c:	15000077 	strne	r0, [r0, #-119]	; 0x77
    1c40:	00008e4c 	andeq	r8, r0, ip, asr #28
    1c44:	0000019c 	muleq	r0, ip, r1
    1c48:	000005a6 	andeq	r0, r0, r6, lsr #11
    1c4c:	02520116 	subseq	r0, r2, #-2147483643	; 0x80000005
    1c50:	01168008 	tsteq	r6, r8
    1c54:	d0910351 	addsle	r0, r1, r1, asr r3
    1c58:	5001167e 	andpl	r1, r1, lr, ror r6
    1c5c:	02164001 	andseq	r4, r6, #1
    1c60:	7b02047d 	blvc	82e5c <__bss_end__+0x78784>
    1c64:	7d021600 	stcvc	6, cr1, [r2, #-0]
    1c68:	00770200 	rsbseq	r0, r7, r0, lsl #4
    1c6c:	8e701500 	cdphi	5, 7, cr1, cr0, cr0, {0}
    1c70:	019c0000 	orrseq	r0, ip, r0
    1c74:	05d40000 	ldrbeq	r0, [r4]
    1c78:	01160000 	tsteq	r6, r0
    1c7c:	80080252 	andhi	r0, r8, r2, asr r2
    1c80:	03510116 	cmpeq	r1, #-2147483643	; 0x80000005
    1c84:	167ed091 			; <UNDEFINED> instruction: 0x167ed091
    1c88:	32015001 	andcc	r5, r1, #1
    1c8c:	047d0216 	ldrbteq	r0, [sp], #-534	; 0x216
    1c90:	16007b02 	strne	r7, [r0], -r2, lsl #22
    1c94:	02007d02 	andeq	r7, r0, #2, 26	; 0x80
    1c98:	15000077 	strne	r0, [r0, #-119]	; 0x77
    1c9c:	00008ea0 	andeq	r8, r0, r0, lsr #29
    1ca0:	0000019c 	muleq	r0, ip, r1
    1ca4:	00000602 	andeq	r0, r0, r2, lsl #12
    1ca8:	02520116 	subseq	r0, r2, #-2147483643	; 0x80000005
    1cac:	01168008 	tsteq	r6, r8
    1cb0:	d0910351 	addsle	r0, r1, r1, asr r3
    1cb4:	5001167e 	andpl	r1, r1, lr, ror r6
    1cb8:	02163801 	andseq	r3, r6, #65536	; 0x10000
    1cbc:	7b02047d 	blvc	82eb8 <__bss_end__+0x787e0>
    1cc0:	7d021600 	stcvc	6, cr1, [r2, #-0]
    1cc4:	00770200 	rsbseq	r0, r7, r0, lsl #4
    1cc8:	8ea81400 	cdphi	4, 10, cr1, cr8, cr0, {0}
    1ccc:	06800000 	streq	r0, [r0], r0
    1cd0:	c4150000 	ldrgt	r0, [r5], #-0
    1cd4:	8700008e 	strhi	r0, [r0, -lr, lsl #1]
    1cd8:	3a000006 	bcc	1cf8 <_start-0x6308>
    1cdc:	16000006 	strne	r0, [r0], -r6
    1ce0:	08025301 	stmdaeq	r2, {r0, r8, r9, ip, lr}
    1ce4:	520116b9 	andpl	r1, r1, #193986560	; 0xb900000
    1ce8:	a0a80305 	adcge	r0, r8, r5, lsl #6
    1cec:	01160000 	tsteq	r6, r0
    1cf0:	c8030551 	stmdagt	r3, {r0, r4, r6, r8, sl}
    1cf4:	160000a0 	strne	r0, [r0], -r0, lsr #1
    1cf8:	03055001 	movweq	r5, #20481	; 0x5001
    1cfc:	0000a140 	andeq	sl, r0, r0, asr #2
    1d00:	8ec81400 	cdphi	4, 12, cr1, cr8, cr0, {0}
    1d04:	069d0000 	ldreq	r0, [sp], r0
    1d08:	00000000 	andeq	r0, r0, r0
    1d0c:	00007a18 	andeq	r7, r0, r8, lsl sl
    1d10:	00065500 	andeq	r5, r6, r0, lsl #10
    1d14:	006b1900 	rsbeq	r1, fp, r0, lsl #18
    1d18:	00090000 	andeq	r0, r9, r0
    1d1c:	00064506 	andeq	r4, r6, r6, lsl #10
    1d20:	007a1800 	rsbseq	r1, sl, r0, lsl #16
    1d24:	066a0000 	strbteq	r0, [sl], -r0
    1d28:	6b190000 	blvs	641d30 <__bss_end__+0x637658>
    1d2c:	7f000000 	svcvc	0x00000000
    1d30:	03611f00 	cmneq	r1, #0, 30
    1d34:	1d030000 	stcne	0, cr0, [r3, #-0]
    1d38:	000003a1 	andeq	r0, r0, r1, lsr #7
    1d3c:	00039e1f 	andeq	r9, r3, pc, lsl lr
    1d40:	b6220300 	strtlt	r0, [r2], -r0, lsl #6
    1d44:	20000003 	andcs	r0, r0, r3
    1d48:	00000244 	andeq	r0, r0, r4, asr #4
    1d4c:	f1211e03 			; <UNDEFINED> instruction: 0xf1211e03
    1d50:	03000002 	movweq	r0, #2
    1d54:	00002529 	andeq	r2, r0, r9, lsr #10
    1d58:	00069d00 	andeq	r9, r6, r0, lsl #26
    1d5c:	00811c00 	addeq	r1, r1, r0, lsl #24
    1d60:	00220000 	eoreq	r0, r2, r0
    1d64:	0000cc20 	andeq	ip, r0, r0, lsr #24
    1d68:	00660300 	rsbeq	r0, r6, r0, lsl #6
    1d6c:	000000b8 	strheq	r0, [r0], -r8
    1d70:	07070004 	streq	r0, [r7, -r4]
    1d74:	01040000 	mrseq	r0, (UNDEF: 4)
    1d78:	00000297 	muleq	r0, r7, r2
    1d7c:	00041001 	andeq	r1, r4, r1
    1d80:	00030200 	andeq	r0, r3, r0, lsl #4
    1d84:	008f3400 	addeq	r3, pc, r0, lsl #8
    1d88:	00002000 	andeq	r2, r0, r0
    1d8c:	0007fd00 	andeq	pc, r7, r0, lsl #26
    1d90:	05040200 	streq	r0, [r4, #-512]	; 0x200
    1d94:	00746e69 	rsbseq	r6, r4, r9, ror #28
    1d98:	72070403 	andvc	r0, r7, #50331648	; 0x3000000
    1d9c:	03000001 	movweq	r0, #1
    1da0:	00b70601 	adcseq	r0, r7, r1, lsl #12
    1da4:	02030000 	andeq	r0, r3, #0
    1da8:	00014205 	andeq	r4, r1, r5, lsl #4
    1dac:	05040300 	streq	r0, [r4, #-768]	; 0x300
    1db0:	000001aa 	andeq	r0, r0, sl, lsr #3
    1db4:	a5050803 	strge	r0, [r5, #-2051]	; 0x803
    1db8:	03000001 	movweq	r0, #1
    1dbc:	00b50801 	adcseq	r0, r5, r1, lsl #16
    1dc0:	02030000 	andeq	r0, r3, #0
    1dc4:	0000e707 	andeq	lr, r0, r7, lsl #14
    1dc8:	07040300 	streq	r0, [r4, -r0, lsl #6]
    1dcc:	0000016d 	andeq	r0, r0, sp, ror #2
    1dd0:	68070803 	stmdavs	r7, {r0, r1, fp}
    1dd4:	03000001 	movweq	r0, #1
    1dd8:	019c0704 	orrseq	r0, ip, r4, lsl #14
    1ddc:	01030000 	mrseq	r0, (UNDEF: 3)
    1de0:	0000be08 	andeq	fp, r0, r8, lsl #28
    1de4:	02300400 	eorseq	r0, r0, #0, 8
    1de8:	03010000 	movweq	r0, #4096	; 0x1000
    1dec:	00008f34 	andeq	r8, r0, r4, lsr pc
    1df0:	00000010 	andeq	r0, r0, r0, lsl r0
    1df4:	009c9c01 	addseq	r9, ip, r1, lsl #24
    1df8:	72050000 	andvc	r0, r5, #0
    1dfc:	2c040100 	stfcss	f0, [r4], {-0}
    1e00:	f3000000 	vhadd.u8	d0, d0, d0
    1e04:	00000014 	andeq	r0, r0, r4, lsl r0
    1e08:	00040206 	andeq	r0, r4, r6, lsl #4
    1e0c:	440c0100 	strmi	r0, [ip], #-256	; 0x100
    1e10:	1000008f 	andne	r0, r0, pc, lsl #1
    1e14:	01000000 	mrseq	r0, (UNDEF: 0)
    1e18:	0072059c 			; <UNDEFINED> instruction: 0x0072059c
    1e1c:	002c0d01 	eoreq	r0, ip, r1, lsl #26
    1e20:	15170000 	ldrne	r0, [r7, #-0]
    1e24:	00000000 	andeq	r0, r0, r0
    1e28:	000000ff 	strdeq	r0, [r0], -pc	; <UNPREDICTABLE>
    1e2c:	07720004 	ldrbeq	r0, [r2, -r4]!
    1e30:	01040000 	mrseq	r0, (UNDEF: 4)
    1e34:	00000297 	muleq	r0, r7, r2
    1e38:	00042e01 	andeq	r2, r4, r1, lsl #28
    1e3c:	00030200 	andeq	r0, r3, r0, lsl #4
    1e40:	008f5400 	addeq	r5, pc, r0, lsl #8
    1e44:	00002800 	andeq	r2, r0, r0, lsl #16
    1e48:	00084400 	andeq	r4, r8, r0, lsl #8
    1e4c:	05040200 	streq	r0, [r4, #-512]	; 0x200
    1e50:	00746e69 	rsbseq	r6, r4, r9, ror #28
    1e54:	72070403 	andvc	r0, r7, #50331648	; 0x3000000
    1e58:	03000001 	movweq	r0, #1
    1e5c:	00b70601 	adcseq	r0, r7, r1, lsl #12
    1e60:	02030000 	andeq	r0, r3, #0
    1e64:	00014205 	andeq	r4, r1, r5, lsl #4
    1e68:	05040300 	streq	r0, [r4, #-768]	; 0x300
    1e6c:	000001aa 	andeq	r0, r0, sl, lsr #3
    1e70:	a5050803 	strge	r0, [r5, #-2051]	; 0x803
    1e74:	03000001 	movweq	r0, #1
    1e78:	00b50801 	adcseq	r0, r5, r1, lsl #16
    1e7c:	02030000 	andeq	r0, r3, #0
    1e80:	0000e707 	andeq	lr, r0, r7, lsl #14
    1e84:	07040300 	streq	r0, [r4, -r0, lsl #6]
    1e88:	0000016d 	andeq	r0, r0, sp, ror #2
    1e8c:	68070803 	stmdavs	r7, {r0, r1, fp}
    1e90:	03000001 	movweq	r0, #1
    1e94:	019c0704 	orrseq	r0, ip, r4, lsl #14
    1e98:	01030000 	mrseq	r0, (UNDEF: 3)
    1e9c:	0000be08 	andeq	fp, r0, r8, lsl #28
    1ea0:	7f040400 	svcvc	0x00040400
    1ea4:	05000000 	streq	r0, [r0, #-0]
    1ea8:	00000072 	andeq	r0, r0, r2, ror r0
    1eac:	0000cc06 	andeq	ip, r0, r6, lsl #24
    1eb0:	54040100 	strpl	r0, [r4], #-256	; 0x100
    1eb4:	2800008f 	stmdacs	r0, {r0, r1, r2, r3, r7}
    1eb8:	01000000 	mrseq	r0, (UNDEF: 0)
    1ebc:	0000ca9c 	muleq	r0, ip, sl
    1ec0:	8f680700 	svchi	0x00680700
    1ec4:	00ac0000 	adceq	r0, ip, r0
    1ec8:	01080000 	mrseq	r0, (UNDEF: 8)
    1ecc:	78030550 	stmdavc	r3, {r4, r6, r8, sl}
    1ed0:	000000a1 	andeq	r0, r0, r1, lsr #1
    1ed4:	008f7009 	addeq	r7, pc, r9
    1ed8:	0000ea00 	andeq	lr, r0, r0, lsl #20
    1edc:	0000c000 	andeq	ip, r0, r0
    1ee0:	50010800 	andpl	r0, r1, r0, lsl #16
    1ee4:	00640802 	rsbeq	r0, r4, r2, lsl #16
    1ee8:	008f740a 	addeq	r7, pc, sl, lsl #8
    1eec:	0000fb00 	andeq	pc, r0, r0, lsl #22
    1ef0:	250b0000 	strcs	r0, [fp, #-0]
    1ef4:	d9000000 	stmdble	r0, {}	; <UNPREDICTABLE>
    1ef8:	0c000000 	stceq	0, cr0, [r0], {-0}
    1efc:	00000079 	andeq	r0, r0, r9, ror r0
    1f00:	039e0d00 	orrseq	r0, lr, #0, 26
    1f04:	22020000 	andcs	r0, r2, #0
    1f08:	000000e4 	andeq	r0, r0, r4, ror #1
    1f0c:	00ca0404 	sbceq	r0, sl, r4, lsl #8
    1f10:	c30e0000 	movwgt	r0, #57344	; 0xe000
    1f14:	02000000 	andeq	r0, r0, #0
    1f18:	0000fb50 	andeq	pc, r0, r0, asr fp	; <UNPREDICTABLE>
    1f1c:	002c0c00 	eoreq	r0, ip, r0, lsl #24
    1f20:	0f000000 	svceq	0x00000000
    1f24:	00000423 	andeq	r0, r0, r3, lsr #8
    1f28:	dd006302 	stcle	3, cr6, [r0, #-8]
    1f2c:	04000002 	streq	r0, [r0], #-2
    1f30:	00083c00 	andeq	r3, r8, r0, lsl #24
    1f34:	97010400 	strls	r0, [r1, -r0, lsl #8]
    1f38:	01000002 	tsteq	r0, r2
    1f3c:	00000522 	andeq	r0, r0, r2, lsr #10
    1f40:	00000302 	andeq	r0, r0, r2, lsl #6
    1f44:	00008f7c 	andeq	r8, r0, ip, ror pc
    1f48:	000000b0 	strheq	r0, [r0], -r0	; <UNPREDICTABLE>
    1f4c:	000008db 	ldrdeq	r0, [r0], -fp
    1f50:	69050402 	stmdbvs	r5, {r1, sl}
    1f54:	0300746e 	movweq	r7, #1134	; 0x46e
    1f58:	01720704 	cmneq	r2, r4, lsl #14
    1f5c:	01030000 	mrseq	r0, (UNDEF: 3)
    1f60:	0000b706 	andeq	fp, r0, r6, lsl #14
    1f64:	05020300 	streq	r0, [r2, #-768]	; 0x300
    1f68:	00000142 	andeq	r0, r0, r2, asr #2
    1f6c:	aa050403 	bge	142f80 <__bss_end__+0x1388a8>
    1f70:	03000001 	movweq	r0, #1
    1f74:	01a50508 			; <UNDEFINED> instruction: 0x01a50508
    1f78:	7f040000 	svcvc	0x00040000
    1f7c:	02000001 	andeq	r0, r0, #1
    1f80:	00005a2e 	andeq	r5, r0, lr, lsr #20
    1f84:	08010300 	stmdaeq	r1, {r8, r9}
    1f88:	000000b5 	strheq	r0, [r0], -r5
    1f8c:	e7070203 	str	r0, [r7, -r3, lsl #4]
    1f90:	04000000 	streq	r0, [r0], #-0
    1f94:	00000542 	andeq	r0, r0, r2, asr #10
    1f98:	00733402 	rsbseq	r3, r3, r2, lsl #8
    1f9c:	04030000 	streq	r0, [r3], #-0
    1fa0:	00016d07 	andeq	r6, r1, r7, lsl #26
    1fa4:	07080300 	streq	r0, [r8, -r0, lsl #6]
    1fa8:	00000168 	andeq	r0, r0, r8, ror #2
    1fac:	9c070403 	cfstrsls	mvf0, [r7], {3}
    1fb0:	03000001 	movweq	r0, #1
    1fb4:	00be0801 	adcseq	r0, lr, r1, lsl #16
    1fb8:	04050000 	streq	r0, [r5], #-0
    1fbc:	00000095 	muleq	r0, r5, r0
    1fc0:	00008806 	andeq	r8, r0, r6, lsl #16
    1fc4:	030c0700 	movweq	r0, #50944	; 0xc700
    1fc8:	0000d10e 	andeq	sp, r0, lr, lsl #2
    1fcc:	78740800 	ldmdavc	r4!, {fp}^
    1fd0:	4f0f0300 	svcmi	0x000f0300
    1fd4:	00000000 	andeq	r0, r0, r0
    1fd8:	00787208 	rsbseq	r7, r8, r8, lsl #4
    1fdc:	004f0f03 	subeq	r0, pc, r3, lsl #30
    1fe0:	09010000 	stmdbeq	r1, {}	; <UNPREDICTABLE>
    1fe4:	000004c1 	andeq	r0, r0, r1, asr #9
    1fe8:	00681003 	rsbeq	r1, r8, r3
    1fec:	09040000 	stmdbeq	r4, {}	; <UNPREDICTABLE>
    1ff0:	00000472 	andeq	r0, r0, r2, ror r4
    1ff4:	00681103 	rsbeq	r1, r8, r3, lsl #2
    1ff8:	00080000 	andeq	r0, r8, r0
    1ffc:	0004aa04 	andeq	sl, r4, r4, lsl #20
    2000:	9a120300 	bls	482c08 <__bss_end__+0x478530>
    2004:	0a000000 	beq	200c <_start-0x5ff4>
    2008:	f7100401 			; <UNDEFINED> instruction: 0xf7100401
    200c:	0b000000 	bleq	2014 <_start-0x5fec>
    2010:	000004c6 	andeq	r0, r0, r6, asr #9
    2014:	04b40b01 	ldrteq	r0, [r4], #2817	; 0xb01
    2018:	0b020000 	bleq	82020 <__bss_end__+0x77948>
    201c:	0000049c 	muleq	r0, ip, r4
    2020:	db040003 	blle	102034 <__bss_end__+0xf795c>
    2024:	04000004 	streq	r0, [r0], #-4
    2028:	0000dc10 	andeq	sp, r0, r0, lsl ip
    202c:	04140700 	ldreq	r0, [r4], #-1792	; 0x700
    2030:	00012f14 	andeq	r2, r1, r4, lsl pc
    2034:	054b0900 	strbeq	r0, [fp, #-2304]	; 0x900
    2038:	15040000 	strne	r0, [r4, #-0]
    203c:	0000002c 	andeq	r0, r0, ip, lsr #32
    2040:	05360900 	ldreq	r0, [r6, #-2304]!	; 0x900
    2044:	18040000 	stmdane	r4, {}	; <UNPREDICTABLE>
    2048:	000000f7 	strdeq	r0, [r0], -r7
    204c:	05010904 	streq	r0, [r1, #-2308]	; 0x904
    2050:	1b040000 	blne	102058 <__bss_end__+0xf7980>
    2054:	000000d1 	ldrdeq	r0, [r0], -r1
    2058:	f3040008 	vhadd.u8	d0, d4, d8
    205c:	04000004 	streq	r0, [r0], #-4
    2060:	00010220 	andeq	r0, r1, r0, lsr #4
    2064:	04480c00 	strbeq	r0, [r8], #-3072	; 0xc00
    2068:	06010000 	streq	r0, [r1], -r0
    206c:	00000025 	andeq	r0, r0, r5, lsr #32
    2070:	00008f7c 	andeq	r8, r0, ip, ror pc
    2074:	00000020 	andeq	r0, r0, r0, lsr #32
    2078:	017a9c01 	cmneq	sl, r1, lsl #24
    207c:	630d0000 	movwvs	r0, #53248	; 0xd000
    2080:	25060100 	strcs	r0, [r6, #-256]	; 0x100
    2084:	3b000000 	blcc	208c <_start-0x5f74>
    2088:	0e000015 	mcreq	0, 0, r0, cr0, cr5, {0}
    208c:	00008f90 	muleq	r0, r0, pc	; <UNPREDICTABLE>
    2090:	0000027a 	andeq	r0, r0, sl, ror r2
    2094:	0251010f 	subseq	r0, r1, #-1073741821	; 0xc0000003
    2098:	010f0074 	tsteq	pc, r4, ror r0	; <UNPREDICTABLE>
    209c:	cc030550 	cfstr32gt	mvfx0, [r3], {80}	; 0x50
    20a0:	000000a6 	andeq	r0, r0, r6, lsr #1
    20a4:	04d31000 	ldrbeq	r1, [r3], #0
    20a8:	0b010000 	bleq	420b0 <__bss_end__+0x379d8>
    20ac:	00008f9c 	muleq	r0, ip, pc	; <UNPREDICTABLE>
    20b0:	00000090 	muleq	r0, r0, r0
    20b4:	02279c01 	eoreq	r9, r7, #256	; 0x100
    20b8:	5c110000 	ldcpl	0, cr0, [r1], {-0}
    20bc:	01000004 	tsteq	r0, r4
    20c0:	0000250c 	andeq	r2, r0, ip, lsl #10
    20c4:	05161100 	ldreq	r1, [r6, #-256]	; 0x100
    20c8:	0c010000 	stceq	0, cr0, [r1], {-0}
    20cc:	00000025 	andeq	r0, r0, r5, lsr #32
    20d0:	00009512 	andeq	r9, r0, r2, lsl r5
    20d4:	130d0100 	movwne	r0, #53504	; 0xd100
    20d8:	00737362 	rsbseq	r7, r3, r2, ror #6
    20dc:	02270f01 	eoreq	r0, r7, #1, 30
    20e0:	15590000 	ldrbne	r0, [r9, #-0]
    20e4:	6a140000 	bvs	5020ec <__bss_end__+0x4f7a14>
    20e8:	01000004 	tsteq	r0, r4
    20ec:	00022710 	andeq	r2, r2, r0, lsl r7
    20f0:	62631300 	rsbvs	r1, r3, #0, 6
    20f4:	2d170100 	ldfcss	f0, [r7, #-0]
    20f8:	79000002 	stmdbvc	r0, {r1}
    20fc:	15000015 	strne	r0, [r0, #-21]
    2100:	00008fc4 	andeq	r8, r0, r4, asr #31
    2104:	00000296 	muleq	r0, r6, r2
    2108:	00900016 	addseq	r0, r0, r6, lsl r0
    210c:	0002a100 	andeq	sl, r2, r0, lsl #2
    2110:	0001fd00 	andeq	pc, r1, r0, lsl #26
    2114:	51010f00 	tstpl	r1, r0, lsl #30
    2118:	a1840305 	orrge	r0, r4, r5, lsl #6
    211c:	010f0000 	mrseq	r0, CPSR
    2120:	cc030550 	cfstr32gt	mvfx0, [r3], {80}	; 0x50
    2124:	000000a6 	andeq	r0, r0, r6, lsr #1
    2128:	00900816 	addseq	r0, r0, r6, lsl r8
    212c:	0002bc00 	andeq	fp, r2, r0, lsl #24
    2130:	00021400 	andeq	r1, r2, r0, lsl #8
    2134:	50010f00 	andpl	r0, r1, r0, lsl #30
    2138:	a1a80305 			; <UNDEFINED> instruction: 0xa1a80305
    213c:	15000000 	strne	r0, [r0, #-0]
    2140:	0000900c 	andeq	r9, r0, ip
    2144:	000002d2 	ldrdeq	r0, [r0], -r2
    2148:	00901015 	addseq	r1, r0, r5, lsl r0
    214c:	0002d900 	andeq	sp, r2, r0, lsl #18
    2150:	04050000 	streq	r0, [r5], #-0
    2154:	00000025 	andeq	r0, r0, r5, lsr #32
    2158:	012f0405 	teqeq	pc, r5, lsl #8
    215c:	80170000 	andshi	r0, r7, r0
    2160:	01000004 	tsteq	r0, r4
    2164:	0000d105 	andeq	sp, r0, r5, lsl #2
    2168:	cc030500 	cfstr32gt	mvfx0, [r3], {-0}
    216c:	180000a6 	stmdane	r0, {r1, r2, r5, r7}
    2170:	00000025 	andeq	r0, r0, r5, lsr #32
    2174:	00000253 	andeq	r0, r0, r3, asr r2
    2178:	00002519 	andeq	r2, r0, r9, lsl r5
    217c:	61110000 	tstvs	r1, r0
    2180:	05000003 	streq	r0, [r0, #-3]
    2184:	00025e1d 	andeq	r5, r2, sp, lsl lr
    2188:	44040500 	strmi	r0, [r4], #-1280	; 0x500
    218c:	11000002 	tstne	r0, r2
    2190:	0000045c 	andeq	r0, r0, ip, asr r4
    2194:	00250c01 	eoreq	r0, r5, r1, lsl #24
    2198:	16110000 	ldrne	r0, [r1], -r0
    219c:	01000005 	tsteq	r0, r5
    21a0:	0000250c 	andeq	r2, r0, ip, lsl #10
    21a4:	04e61a00 	strbteq	r1, [r6], #2560	; 0xa00
    21a8:	44030000 	strmi	r0, [r3], #-0
    21ac:	00000290 	muleq	r0, r0, r2
    21b0:	00029019 	andeq	r9, r2, r9, lsl r0
    21b4:	005a1900 	subseq	r1, sl, r0, lsl #18
    21b8:	05000000 	streq	r0, [r0, #-0]
    21bc:	0000d104 	andeq	sp, r0, r4, lsl #2
    21c0:	05091b00 	streq	r1, [r9, #-2816]	; 0xb00
    21c4:	2a040000 	bcs	1021cc <__bss_end__+0xf7af4>
    21c8:	0000022d 	andeq	r0, r0, sp, lsr #4
    21cc:	00048d1c 	andeq	r8, r4, ip, lsl sp
    21d0:	25150300 	ldrcs	r0, [r5, #-768]	; 0x300
    21d4:	bc000000 	stclt	0, cr0, [r0], {-0}
    21d8:	19000002 	stmdbne	r0, {r1}
    21dc:	00000290 	muleq	r0, r0, r2
    21e0:	00008f19 	andeq	r8, r0, r9, lsl pc
    21e4:	1c001d00 	stcne	13, cr1, [r0], {-0}
    21e8:	000002f1 	strdeq	r0, [r0], -r1
    21ec:	00252905 	eoreq	r2, r5, r5, lsl #18
    21f0:	02d20000 	sbcseq	r0, r2, #0
    21f4:	8f190000 	svchi	0x00190000
    21f8:	1d000000 	stcne	0, cr0, [r0, #-0]
    21fc:	00951200 	addseq	r1, r5, r0, lsl #4
    2200:	d1050000 	mrsle	r0, (UNDEF: 5)
    2204:	00042312 	andeq	r2, r4, r2, lsl r3
    2208:	00630500 	rsbeq	r0, r3, r0, lsl #10
    220c:	000001ad 	andeq	r0, r0, sp, lsr #3
    2210:	09d30004 	ldmibeq	r3, {r2}^
    2214:	01040000 	mrseq	r0, (UNDEF: 4)
    2218:	00000297 	muleq	r0, r7, r2
    221c:	00056b01 	andeq	r6, r5, r1, lsl #22
    2220:	00030200 	andeq	r0, r3, r0, lsl #4
    2224:	00052800 	andeq	r2, r5, r0, lsl #16
    2228:	00000000 	andeq	r0, r0, r0
    222c:	000a0000 	andeq	r0, sl, r0
    2230:	05040200 	streq	r0, [r4, #-512]	; 0x200
    2234:	00746e69 	rsbseq	r6, r4, r9, ror #28
    2238:	72070403 	andvc	r0, r7, #50331648	; 0x3000000
    223c:	03000001 	movweq	r0, #1
    2240:	00b70601 	adcseq	r0, r7, r1, lsl #12
    2244:	02030000 	andeq	r0, r3, #0
    2248:	00014205 	andeq	r4, r1, r5, lsl #4
    224c:	05040300 	streq	r0, [r4, #-768]	; 0x300
    2250:	000001aa 	andeq	r0, r0, sl, lsr #3
    2254:	a5050803 	strge	r0, [r5, #-2051]	; 0x803
    2258:	03000001 	movweq	r0, #1
    225c:	00b50801 	adcseq	r0, r5, r1, lsl #16
    2260:	02030000 	andeq	r0, r3, #0
    2264:	0000e707 	andeq	lr, r0, r7, lsl #14
    2268:	07040300 	streq	r0, [r4, -r0, lsl #6]
    226c:	0000016d 	andeq	r0, r0, sp, ror #2
    2270:	68070803 	stmdavs	r7, {r0, r1, fp}
    2274:	03000001 	movweq	r0, #1
    2278:	019c0704 	orrseq	r0, ip, r4, lsl #14
    227c:	01030000 	mrseq	r0, (UNDEF: 3)
    2280:	0000be08 	andeq	fp, r0, r8, lsl #28
    2284:	05510400 	ldrbeq	r0, [r1, #-1024]	; 0x400
    2288:	0e010000 	cdpeq	0, 0, cr0, cr1, cr0, {0}
    228c:	00000025 	andeq	r0, r0, r5, lsr #32
    2290:	0000902c 	andeq	r9, r0, ip, lsr #32
    2294:	00000018 	andeq	r0, r0, r8, lsl r0
    2298:	00a29c01 	adceq	r9, r2, r1, lsl #24
    229c:	bd050000 	stclt	0, cr0, [r5, #-0]
    22a0:	01000005 	tsteq	r0, r5
    22a4:	00002c0f 	andeq	r2, r0, pc, lsl #24
    22a8:	00159900 	andseq	r9, r5, r0, lsl #18
    22ac:	a0060000 	andge	r0, r6, r0
    22b0:	01000005 	tsteq	r0, r5
    22b4:	00904417 	addseq	r4, r0, r7, lsl r4
    22b8:	00001400 	andeq	r1, r0, r0, lsl #8
    22bc:	c79c0100 	ldrgt	r0, [ip, r0, lsl #2]
    22c0:	05000000 	streq	r0, [r0, #-0]
    22c4:	000005bd 			; <UNDEFINED> instruction: 0x000005bd
    22c8:	002c1801 	eoreq	r1, ip, r1, lsl #16
    22cc:	15b80000 	ldrne	r0, [r8, #0]!
    22d0:	06000000 	streq	r0, [r0], -r0
    22d4:	00000423 	andeq	r0, r0, r3, lsr #8
    22d8:	90581f01 	subsls	r1, r8, r1, lsl #30
    22dc:	00480000 	subeq	r0, r8, r0
    22e0:	9c010000 	stcls	0, cr0, [r1], {-0}
    22e4:	00000177 	andeq	r0, r0, r7, ror r1
    22e8:	0005b507 	andeq	fp, r5, r7, lsl #10
    22ec:	772a0100 	strvc	r0, [sl, -r0, lsl #2]!
    22f0:	1c000001 	stcne	0, cr0, [r0], {1}
    22f4:	07201000 	streq	r1, [r0, -r0]!
    22f8:	00000598 	muleq	r0, r8, r5
    22fc:	01772b01 	cmneq	r7, r1, lsl #22
    2300:	00240000 	eoreq	r0, r4, r0
    2304:	5f072010 	svcpl	0x00072010
    2308:	01000005 	tsteq	r0, r5
    230c:	0001772c 	andeq	r7, r1, ip, lsr #14
    2310:	00000000 	andeq	r0, r0, r0
    2314:	057f085a 	ldrbeq	r0, [pc, #-2138]!	; 1ac2 <_start-0x653e>
    2318:	2d010000 	stccs	0, cr0, [r1, #-0]
    231c:	00000177 	andeq	r0, r0, r7, ror r1
    2320:	90600920 	rsbls	r0, r0, r0, lsr #18
    2324:	00790000 	rsbseq	r0, r9, r0
    2328:	6c090000 	stcvs	0, cr0, [r9], {-0}
    232c:	a2000090 	andge	r0, r0, #144	; 0x90
    2330:	0a000000 	beq	2338 <_start-0x5cc8>
    2334:	00009074 	andeq	r9, r0, r4, ror r0
    2338:	0000018d 	andeq	r0, r0, sp, lsl #3
    233c:	0000013a 	andeq	r0, r0, sl, lsr r1
    2340:	0150010b 	cmpeq	r0, fp, lsl #2
    2344:	800a004e 	andhi	r0, sl, lr, asr #32
    2348:	9e000090 	mcrls	0, 0, r0, cr0, cr0, {4}
    234c:	5a000001 	bpl	2358 <_start-0x5ca8>
    2350:	0b000001 	bleq	235c <_start-0x5ca4>
    2354:	0c055101 	stfeqs	f5, [r5], {1}
    2358:	5a000001 	bpl	2364 <_start-0x5c9c>
    235c:	0550010b 	ldrbeq	r0, [r0, #-267]	; 0x10b
    2360:	1000240c 	andne	r2, r0, ip, lsl #8
    2364:	8c0c0020 	stchi	0, cr0, [ip], {32}
    2368:	9e000090 	mcrls	0, 0, r0, cr0, cr0, {4}
    236c:	0b000001 	bleq	2378 <_start-0x5c88>
    2370:	0c055101 	stfeqs	f5, [r5], {1}
    2374:	5a000020 	bpl	23fc <_start-0x5c04>
    2378:	0550010b 	ldrbeq	r0, [r0, #-267]	; 0x10b
    237c:	10001c0c 	andne	r1, r0, ip, lsl #24
    2380:	0d000020 	stceq	0, cr0, [r0, #-128]	; 0xffffff80
    2384:	00000025 	andeq	r0, r0, r5, lsr #32
    2388:	00055408 	andeq	r5, r5, r8, lsl #8
    238c:	880d0100 	stmdahi	sp, {r8}
    2390:	10000001 	andne	r0, r0, r1
    2394:	00002c0d 	andeq	r2, r0, sp, lsl #24
    2398:	00c30e00 	sbceq	r0, r3, r0, lsl #28
    239c:	50020000 	andpl	r0, r2, r0
    23a0:	0000019e 	muleq	r0, lr, r1
    23a4:	00002c0f 	andeq	r2, r0, pc, lsl #24
    23a8:	af100000 	svcge	0x00100000
    23ac:	02000005 	andeq	r0, r0, #5
    23b0:	002c0f9c 	mlaeq	ip, ip, pc, r0	; <UNPREDICTABLE>
    23b4:	2c0f0000 	stccs	0, cr0, [pc], {-0}
    23b8:	00000000 	andeq	r0, r0, r0
    23bc:	0001d800 	andeq	sp, r1, r0, lsl #16
    23c0:	c1000400 	tstgt	r0, r0, lsl #8
    23c4:	0400000a 	streq	r0, [r0], #-10
    23c8:	00029701 	andeq	r9, r2, r1, lsl #14
    23cc:	05df0100 	ldrbeq	r0, [pc, #256]	; 24d4 <_start-0x5b2c>
    23d0:	03020000 	movweq	r0, #8192	; 0x2000
    23d4:	90a00000 	adcls	r0, r0, r0
    23d8:	00880000 	addeq	r0, r8, r0
    23dc:	0a9d0000 	beq	fe7423e4 <__bss_end__+0xfe737d0c>
    23e0:	04020000 	streq	r0, [r2], #-0
    23e4:	746e6905 	strbtvc	r6, [lr], #-2309	; 0x905
    23e8:	07040300 	streq	r0, [r4, -r0, lsl #6]
    23ec:	00000172 	andeq	r0, r0, r2, ror r1
    23f0:	b7060103 	strlt	r0, [r6, -r3, lsl #2]
    23f4:	03000000 	movweq	r0, #0
    23f8:	01420502 	cmpeq	r2, r2, lsl #10
    23fc:	04030000 	streq	r0, [r3], #-0
    2400:	0001aa05 	andeq	sl, r1, r5, lsl #20
    2404:	05080300 	streq	r0, [r8, #-768]	; 0x300
    2408:	000001a5 	andeq	r0, r0, r5, lsr #3
    240c:	b5080103 	strlt	r0, [r8, #-259]	; 0x103
    2410:	03000000 	movweq	r0, #0
    2414:	00e70702 	rsceq	r0, r7, r2, lsl #14
    2418:	04030000 	streq	r0, [r3], #-0
    241c:	00016d07 	andeq	r6, r1, r7, lsl #26
    2420:	07080300 	streq	r0, [r8, -r0, lsl #6]
    2424:	00000168 	andeq	r0, r0, r8, ror #2
    2428:	9c070403 	cfstrsls	mvf0, [r7], {3}
    242c:	03000001 	movweq	r0, #1
    2430:	00be0801 	adcseq	r0, lr, r1, lsl #16
    2434:	fe040000 	cdp2	0, 0, cr0, cr4, cr0, {0}
    2438:	01000005 	tsteq	r0, r5
    243c:	0090a005 	addseq	sl, r0, r5
    2440:	00001c00 	andeq	r1, r0, r0, lsl #24
    2444:	9e9c0100 	fmllse	f0, f4, f0
    2448:	05000000 	streq	r0, [r0, #-0]
    244c:	000005f8 	strdeq	r0, [r0], -r8
    2450:	002c0501 	eoreq	r0, ip, r1, lsl #10
    2454:	15e20000 	strbne	r0, [r2, #0]!
    2458:	06000000 	streq	r0, [r0], -r0
    245c:	000005c2 	andeq	r0, r0, r2, asr #11
    2460:	002c0b01 	eoreq	r0, ip, r1, lsl #22
    2464:	90bc0000 	adcsls	r0, ip, r0
    2468:	00140000 	andseq	r0, r4, r0
    246c:	9c010000 	stcls	0, cr0, [r1], {-0}
    2470:	000000cb 	andeq	r0, r0, fp, asr #1
    2474:	0090c807 	addseq	ip, r0, r7, lsl #16
    2478:	0001ca00 	andeq	ip, r1, r0, lsl #20
    247c:	50010800 	andpl	r0, r1, r0, lsl #16
    2480:	30040c05 	andcc	r0, r4, r5, lsl #24
    2484:	00002000 	andeq	r2, r0, r0
    2488:	00061406 	andeq	r1, r6, r6, lsl #8
    248c:	2c100100 	ldfcss	f0, [r0], {-0}
    2490:	d0000000 	andle	r0, r0, r0
    2494:	0c000090 	stceq	0, cr0, [r0], {144}	; 0x90
    2498:	01000000 	mrseq	r0, (UNDEF: 0)
    249c:	0000f99c 	muleq	r0, ip, r9
    24a0:	00750900 	rsbseq	r0, r5, r0, lsl #18
    24a4:	002c1401 	eoreq	r1, ip, r1, lsl #8
    24a8:	50010000 	andpl	r0, r1, r0
    24ac:	0090d80a 	addseq	sp, r0, sl, lsl #16
    24b0:	00009e00 	andeq	r9, r0, r0, lsl #28
    24b4:	0b040000 	bleq	1024bc <__bss_end__+0xf7de4>
    24b8:	01000006 	tsteq	r0, r6
    24bc:	0090dc19 	addseq	sp, r0, r9, lsl ip
    24c0:	00002400 	andeq	r2, r0, r0, lsl #8
    24c4:	579c0100 	ldrpl	r0, [ip, r0, lsl #2]
    24c8:	0b000001 	bleq	24d4 <_start-0x5b2c>
    24cc:	01007375 	tsteq	r0, r5, ror r3
    24d0:	00002c19 	andeq	r2, r0, r9, lsl ip
    24d4:	00161600 	andseq	r1, r6, r0, lsl #12
    24d8:	62720900 	rsbsvs	r0, r2, #0, 18
    24dc:	2c1a0100 	ldfcss	f0, [sl], {-0}
    24e0:	01000000 	mrseq	r0, (UNDEF: 0)
    24e4:	90ec0c54 	rscls	r0, ip, r4, asr ip
    24e8:	00100000 	andseq	r0, r0, r0
    24ec:	014d0000 	mrseq	r0, (UNDEF: 77)
    24f0:	720d0000 	andvc	r0, sp, #0
    24f4:	1c010061 	stcne	0, cr0, [r1], {97}	; 0x61
    24f8:	0000002c 	andeq	r0, r0, ip, lsr #32
    24fc:	00001634 	andeq	r1, r0, r4, lsr r6
    2500:	0090f00a 	addseq	pc, r0, sl
    2504:	0000cb00 	andeq	ip, r0, r0, lsl #22
    2508:	e80a0000 	stmda	sl, {}	; <UNPREDICTABLE>
    250c:	cb000090 	blgt	2754 <_start-0x58ac>
    2510:	00000000 	andeq	r0, r0, r0
    2514:	0000c304 	andeq	ip, r0, r4, lsl #6
    2518:	00220100 	eoreq	r0, r2, r0, lsl #2
    251c:	14000091 	strne	r0, [r0], #-145	; 0x91
    2520:	01000000 	mrseq	r0, (UNDEF: 0)
    2524:	0001909c 	muleq	r1, ip, r0
    2528:	736d0b00 	cmnvc	sp, #0, 22
    252c:	2c220100 	stfcss	f0, [r2], #-0
    2530:	47000000 	strmi	r0, [r0, -r0]
    2534:	07000016 	smladeq	r0, r6, r0, r0
    2538:	00009110 	andeq	r9, r0, r0, lsl r1
    253c:	000000f9 	strdeq	r0, [r0], -r9
    2540:	07500108 	ldrbeq	r0, [r0, -r8, lsl #2]
    2544:	0a5001f3 	beq	1402d18 <__bss_end__+0x13f8640>
    2548:	001e03e8 	andseq	r0, lr, r8, ror #7
    254c:	05d50400 	ldrbeq	r0, [r5, #1024]	; 0x400
    2550:	25010000 	strcs	r0, [r1, #-0]
    2554:	00009114 	andeq	r9, r0, r4, lsl r1
    2558:	00000014 	andeq	r0, r0, r4, lsl r0
    255c:	01ca9c01 	biceq	r9, sl, r1, lsl #24
    2560:	730b0000 	movwvc	r0, #45056	; 0xb000
    2564:	01006365 	tsteq	r0, r5, ror #6
    2568:	00002c25 	andeq	r2, r0, r5, lsr #24
    256c:	00166800 	andseq	r6, r6, r0, lsl #16
    2570:	91240700 	teqls	r4, r0, lsl #14
    2574:	01570000 	cmpeq	r7, r0
    2578:	01080000 	mrseq	r0, (UNDEF: 8)
    257c:	01f30750 	mvnseq	r0, r0, asr r7
    2580:	03e80a50 	mvneq	r0, #80, 20	; 0x50000
    2584:	0e00001e 	mcreq	0, 0, r0, cr0, cr14, {0}
    2588:	000005f2 	strdeq	r0, [r0], -r2
    258c:	002ca802 	eoreq	sl, ip, r2, lsl #16
    2590:	2c0f0000 	stccs	0, cr0, [pc], {-0}
    2594:	00000000 	andeq	r0, r0, r0
    2598:	00088200 	andeq	r8, r8, r0, lsl #4
    259c:	a4000400 	strge	r0, [r0], #-1024	; 0x400
    25a0:	0400000b 	streq	r0, [r0], #-11
    25a4:	00029701 	andeq	r9, r2, r1, lsl #14
    25a8:	06670100 	strbteq	r0, [r7], -r0, lsl #2
    25ac:	03020000 	movweq	r0, #8192	; 0x2000
    25b0:	91280000 	teqls	r8, r0
    25b4:	05a00000 	streq	r0, [r0, #0]!
    25b8:	0b440000 	bleq	11025c0 <__bss_end__+0x10f7ee8>
    25bc:	08020000 	stmdaeq	r2, {}	; <UNPREDICTABLE>
    25c0:	00016807 	andeq	r6, r1, r7, lsl #16
    25c4:	07040200 	streq	r0, [r4, -r0, lsl #4]
    25c8:	00000172 	andeq	r0, r0, r2, ror r1
    25cc:	b7060102 	strlt	r0, [r6, -r2, lsl #2]
    25d0:	02000000 	andeq	r0, r0, #0
    25d4:	01420502 	cmpeq	r2, r2, lsl #10
    25d8:	04020000 	streq	r0, [r2], #-0
    25dc:	0001aa05 	andeq	sl, r1, r5, lsl #20
    25e0:	05080200 	streq	r0, [r8, #-512]	; 0x200
    25e4:	000001a5 	andeq	r0, r0, r5, lsr #3
    25e8:	b5080102 	strlt	r0, [r8, #-258]	; 0x102
    25ec:	02000000 	andeq	r0, r0, #0
    25f0:	00e70702 	rsceq	r0, r7, r2, lsl #14
    25f4:	04020000 	streq	r0, [r2], #-0
    25f8:	00016d07 	andeq	r6, r1, r7, lsl #26
    25fc:	05040300 	streq	r0, [r4, #-768]	; 0x300
    2600:	00746e69 	rsbseq	r6, r4, r9, ror #28
    2604:	9c070402 	cfstrsls	mvf0, [r7], {2}
    2608:	02000001 	andeq	r0, r0, #1
    260c:	00be0801 	adcseq	r0, lr, r1, lsl #16
    2610:	01040000 	mrseq	r0, (UNDEF: 4)
    2614:	00b20c02 	adcseq	r0, r2, r2, lsl #24
    2618:	57050000 	strpl	r0, [r5, -r0]
    261c:	00000006 	andeq	r0, r0, r6
    2620:	00073d05 	andeq	r3, r7, r5, lsl #26
    2624:	76050100 	strvc	r0, [r5], -r0, lsl #2
    2628:	04000007 	streq	r0, [r0], #-7
    262c:	00078505 	andeq	r8, r7, r5, lsl #10
    2630:	94050500 	strls	r0, [r5], #-1280	; 0x500
    2634:	06000007 	streq	r0, [r0], -r7
    2638:	0007a305 	andeq	sl, r7, r5, lsl #6
    263c:	b2050700 	andlt	r0, r5, #0, 14
    2640:	03000007 	movweq	r0, #7
    2644:	0007c105 	andeq	ip, r7, r5, lsl #2
    2648:	06000200 	streq	r0, [r0], -r0, lsl #4
    264c:	0000076a 	andeq	r0, r0, sl, ror #14
    2650:	00791502 	rsbseq	r1, r9, r2, lsl #10
    2654:	1f070000 	svcne	0x00070000
    2658:	01000001 	tsteq	r0, r1
    265c:	0091283f 	addseq	r2, r1, pc, lsr r8
    2660:	0000d400 	andeq	sp, r0, r0, lsl #8
    2664:	339c0100 	orrscc	r0, ip, #0, 2
    2668:	08000001 	stmdaeq	r0, {r0}
    266c:	006e6970 	rsbeq	r6, lr, r0, ror r9
    2670:	002c3f01 	eoreq	r3, ip, r1, lsl #30
    2674:	16890000 	strne	r0, [r9], r0
    2678:	87090000 	strhi	r0, [r9, -r0]
    267c:	01000006 	tsteq	r0, r6
    2680:	00013347 	andeq	r3, r1, r7, asr #6
    2684:	0016a700 	andseq	sl, r6, r0, lsl #14
    2688:	07d00900 	ldrbeq	r0, [r0, r0, lsl #18]
    268c:	49010000 	stmdbmi	r1, {}	; <UNPREDICTABLE>
    2690:	0000002c 	andeq	r0, r0, ip, lsr #32
    2694:	000016fc 	strdeq	r1, [r0], -ip
    2698:	00070809 	andeq	r0, r7, r9, lsl #16
    269c:	2c570100 	ldfcse	f0, [r7], {-0}
    26a0:	c8000000 	stmdagt	r0, {}	; <UNPREDICTABLE>
    26a4:	0a000018 	beq	270c <_start-0x58f4>
    26a8:	000091bc 			; <UNDEFINED> instruction: 0x000091bc
    26ac:	00000841 	andeq	r0, r0, r1, asr #16
    26b0:	00000122 	andeq	r0, r0, r2, lsr #2
    26b4:	0250010b 	subseq	r0, r0, #-1073741822	; 0xc0000002
    26b8:	0c000075 	stceq	0, cr0, [r0], {117}	; 0x75
    26bc:	000091f0 	strdeq	r9, [r0], -r0
    26c0:	00000862 	andeq	r0, r0, r2, ror #16
    26c4:	0250010b 	subseq	r0, r0, #-1073741822	; 0xc0000002
    26c8:	00000075 	andeq	r0, r0, r5, ror r0
    26cc:	0139040d 	teqeq	r9, sp, lsl #8
    26d0:	2c0e0000 	stccs	0, cr0, [lr], {-0}
    26d4:	07000000 	streq	r0, [r0, -r0]
    26d8:	000000a9 	andeq	r0, r0, r9, lsr #1
    26dc:	91fc6001 	mvnsls	r6, r1
    26e0:	00380000 	eorseq	r0, r8, r0
    26e4:	9c010000 	stcls	0, cr0, [r1], {-0}
    26e8:	00000196 	muleq	r0, r6, r1
    26ec:	6e697008 	cdpvs	0, 6, cr7, cr9, cr8, {0}
    26f0:	2c600100 	stfcse	f0, [r0], #-0
    26f4:	f8000000 			; <UNDEFINED> instruction: 0xf8000000
    26f8:	09000018 	stmdbeq	r0, {r3, r4}
    26fc:	00000687 	andeq	r0, r0, r7, lsl #13
    2700:	01336701 	teqeq	r3, r1, lsl #14
    2704:	19190000 	ldmdbne	r9, {}	; <UNPREDICTABLE>
    2708:	08090000 	stmdaeq	r9, {}	; <UNPREDICTABLE>
    270c:	01000007 	tsteq	r0, r7
    2710:	00002c68 	andeq	r2, r0, r8, ror #24
    2714:	00194f00 	andseq	r4, r9, r0, lsl #30
    2718:	922c0c00 	eorls	r0, ip, #0, 24
    271c:	08620000 	stmdaeq	r2!, {}^	; <UNPREDICTABLE>
    2720:	010b0000 	mrseq	r0, (UNDEF: 11)
    2724:	f3310751 	vaba.u<illegal width 64>	q0, <illegal reg q0.5>, <illegal reg q0.5>
    2728:	1a4f5001 	bne	13d6734 <__bss_end__+0x13cc05c>
    272c:	07000024 	streq	r0, [r0, -r4, lsr #32]
    2730:	000001b8 			; <UNDEFINED> instruction: 0x000001b8
    2734:	92347b01 	eorsls	r7, r4, #1024	; 0x400
    2738:	00380000 	eorseq	r0, r8, r0
    273c:	9c010000 	stcls	0, cr0, [r1], {-0}
    2740:	000001ee 	andeq	r0, r0, lr, ror #3
    2744:	6e697008 	cdpvs	0, 6, cr7, cr9, cr8, {0}
    2748:	2c7b0100 	ldfcse	f0, [fp], #-0
    274c:	8f000000 	svchi	0x00000000
    2750:	09000019 	stmdbeq	r0, {r0, r3, r4}
    2754:	00000687 	andeq	r0, r0, r7, lsl #13
    2758:	01338101 	teqeq	r3, r1, lsl #2
    275c:	19b00000 	ldmibne	r0!, {}	; <UNPREDICTABLE>
    2760:	08090000 	stmdaeq	r9, {}	; <UNPREDICTABLE>
    2764:	01000007 	tsteq	r0, r7
    2768:	00002c82 	andeq	r2, r0, r2, lsl #25
    276c:	0019e600 	andseq	lr, r9, r0, lsl #12
    2770:	92640c00 	rsbls	r0, r4, #0, 24
    2774:	08620000 	stmdaeq	r2!, {}^	; <UNPREDICTABLE>
    2778:	010b0000 	mrseq	r0, (UNDEF: 11)
    277c:	f3310751 	vaba.u<illegal width 64>	q0, <illegal reg q0.5>, <illegal reg q0.5>
    2780:	1a4f5001 	bne	13d678c <__bss_end__+0x13cc0b4>
    2784:	07000024 	streq	r0, [r0, -r4, lsr #32]
    2788:	000000fa 	strdeq	r0, [r0], -sl
    278c:	926c9501 	rsbls	r9, ip, #4194304	; 0x400000
    2790:	00cc0000 	sbceq	r0, ip, r0
    2794:	9c010000 	stcls	0, cr0, [r1], {-0}
    2798:	00000264 	andeq	r0, r0, r4, ror #4
    279c:	6e697008 	cdpvs	0, 6, cr7, cr9, cr8, {0}
    27a0:	2c950100 	ldfcss	f0, [r5], {0}
    27a4:	26000000 	strcs	r0, [r0], -r0
    27a8:	0900001a 	stmdbeq	r0, {r1, r3, r4}
    27ac:	00000687 	andeq	r0, r0, r7, lsl #13
    27b0:	01339b01 	teqeq	r3, r1, lsl #22
    27b4:	1a440000 	bne	11027bc <__bss_end__+0x10f80e4>
    27b8:	d0090000 	andle	r0, r9, r0
    27bc:	01000007 	tsteq	r0, r7
    27c0:	00002c9d 	muleq	r0, sp, ip
    27c4:	001a9900 	andseq	r9, sl, r0, lsl #18
    27c8:	07080900 	streq	r0, [r8, -r0, lsl #18]
    27cc:	ab010000 	blge	427d4 <__bss_end__+0x380fc>
    27d0:	0000002c 	andeq	r0, r0, ip, lsr #32
    27d4:	00001c65 	andeq	r1, r0, r5, ror #24
    27d8:	0093000a 	addseq	r0, r3, sl
    27dc:	00084100 	andeq	r4, r8, r0, lsl #2
    27e0:	00025300 	andeq	r5, r2, r0, lsl #6
    27e4:	50010b00 	andpl	r0, r1, r0, lsl #22
    27e8:	00007502 	andeq	r7, r0, r2, lsl #10
    27ec:	00932c0c 	addseq	r2, r3, ip, lsl #24
    27f0:	00086200 	andeq	r6, r8, r0, lsl #4
    27f4:	50010b00 	andpl	r0, r1, r0, lsl #22
    27f8:	00007502 	andeq	r7, r0, r2, lsl #10
    27fc:	069c0f00 	ldreq	r0, [ip], r0, lsl #30
    2800:	b3010000 	movwlt	r0, #4096	; 0x1000
    2804:	00000064 	andeq	r0, r0, r4, rrx
    2808:	00009338 	andeq	r9, r0, r8, lsr r3
    280c:	0000004c 	andeq	r0, r0, ip, asr #32
    2810:	02ac9c01 	adceq	r9, ip, #256	; 0x100
    2814:	70080000 	andvc	r0, r8, r0
    2818:	01006e69 	tsteq	r0, r9, ror #28
    281c:	00002cb3 			; <UNDEFINED> instruction: 0x00002cb3
    2820:	001c8300 	andseq	r8, ip, r0, lsl #6
    2824:	00761000 	rsbseq	r1, r6, r0
    2828:	002cb901 	eoreq	fp, ip, r1, lsl #18
    282c:	1cdb0000 	ldclne	0, cr0, [fp], {0}
    2830:	58110000 	ldmdapl	r1, {}	; <UNPREDICTABLE>
    2834:	41000093 	swpmi	r0, r3, [r0]	; <UNPREDICTABLE>
    2838:	11000008 	tstne	r0, r8
    283c:	00009368 	andeq	r9, r0, r8, ror #6
    2840:	00000841 	andeq	r0, r0, r1, asr #16
    2844:	01910700 	orrseq	r0, r1, r0, lsl #14
    2848:	c5010000 	strgt	r0, [r1, #-0]
    284c:	00009384 	andeq	r9, r0, r4, lsl #7
    2850:	00000024 	andeq	r0, r0, r4, lsr #32
    2854:	02fc9c01 	rscseq	r9, ip, #256	; 0x100
    2858:	70080000 	andvc	r0, r8, r0
    285c:	01006e69 	tsteq	r0, r9, ror #28
    2860:	00002cc5 	andeq	r2, r0, r5, asr #25
    2864:	001d1100 	andseq	r1, sp, r0, lsl #2
    2868:	00760800 	rsbseq	r0, r6, r0, lsl #16
    286c:	002cc501 	eoreq	ip, ip, r1, lsl #10
    2870:	1d4b0000 	stclne	0, cr0, [fp, #-0]
    2874:	9c0a0000 	stcls	0, cr0, [sl], {-0}
    2878:	3e000093 	mcrcc	0, 0, r0, cr0, cr3, {4}
    287c:	f2000001 	vhadd.s8	d0, d0, d1
    2880:	0b000002 	bleq	2890 <_start-0x5770>
    2884:	f3035001 	vhadd.u8	d5, d3, d1
    2888:	11005001 	tstne	r0, r1
    288c:	000093a4 	andeq	r9, r0, r4, lsr #7
    2890:	00000196 	muleq	r0, r6, r1
    2894:	06bb0700 	ldrteq	r0, [fp], r0, lsl #14
    2898:	d1010000 	mrsle	r0, (UNDEF: 1)
    289c:	000093a8 	andeq	r9, r0, r8, lsr #7
    28a0:	000000d8 	ldrdeq	r0, [r0], -r8
    28a4:	03819c01 	orreq	r9, r1, #256	; 0x100
    28a8:	70080000 	andvc	r0, r8, r0
    28ac:	01006e69 	tsteq	r0, r9, ror #28
    28b0:	00002cd1 	ldrdeq	r2, [r0], -r1
    28b4:	001d8500 	andseq	r8, sp, r0, lsl #10
    28b8:	07101200 	ldreq	r1, [r0, -r0, lsl #4]
    28bc:	d1010000 	mrsle	r0, (UNDEF: 1)
    28c0:	000000b2 	strheq	r0, [r0], -r2
    28c4:	00001da3 	andeq	r1, r0, r3, lsr #27
    28c8:	00068709 	andeq	r8, r6, r9, lsl #14
    28cc:	33d90100 	bicscc	r0, r9, #0, 2
    28d0:	c4000001 	strgt	r0, [r0], #-1
    28d4:	0900001d 	stmdbeq	r0, {r0, r2, r3, r4}
    28d8:	000007d0 	ldrdeq	r0, [r0], -r0	; <UNPREDICTABLE>
    28dc:	002cda01 	eoreq	sp, ip, r1, lsl #20
    28e0:	1e190000 	cdpne	0, 1, cr0, cr9, cr0, {0}
    28e4:	08090000 	stmdaeq	r9, {}	; <UNPREDICTABLE>
    28e8:	01000007 	tsteq	r0, r7
    28ec:	00002ce8 	andeq	r2, r0, r8, ror #25
    28f0:	001fe500 	andseq	lr, pc, r0, lsl #10
    28f4:	94440a00 	strbls	r0, [r4], #-2560	; 0xa00
    28f8:	08410000 	stmdaeq	r1, {}^	; <UNPREDICTABLE>
    28fc:	03700000 	cmneq	r0, #0
    2900:	010b0000 	mrseq	r0, (UNDEF: 11)
    2904:	00760250 	rsbseq	r0, r6, r0, asr r2
    2908:	94740c00 	ldrbtls	r0, [r4], #-3072	; 0xc00
    290c:	08620000 	stmdaeq	r2!, {}^	; <UNPREDICTABLE>
    2910:	010b0000 	mrseq	r0, (UNDEF: 11)
    2914:	00760250 	rsbseq	r0, r6, r0, asr r2
    2918:	15070000 	strne	r0, [r7, #-0]
    291c:	01000007 	tsteq	r0, r7
    2920:	009480f1 	ldrsheq	r8, [r4], r1
    2924:	00003800 	andeq	r3, r0, r0, lsl #16
    2928:	d99c0100 	ldmible	ip, {r8}
    292c:	08000003 	stmdaeq	r0, {r0, r1}
    2930:	006e6970 	rsbeq	r6, lr, r0, ror r9
    2934:	002cf101 	eoreq	pc, ip, r1, lsl #2
    2938:	20160000 	andscs	r0, r6, r0
    293c:	87090000 	strhi	r0, [r9, -r0]
    2940:	01000006 	tsteq	r0, r6
    2944:	000133f7 	strdeq	r3, [r1], -r7
    2948:	00203700 	eoreq	r3, r0, r0, lsl #14
    294c:	07080900 	streq	r0, [r8, -r0, lsl #18]
    2950:	f8010000 			; <UNDEFINED> instruction: 0xf8010000
    2954:	0000002c 	andeq	r0, r0, ip, lsr #32
    2958:	0000206d 	andeq	r2, r0, sp, rrx
    295c:	0094b00c 	addseq	fp, r4, ip
    2960:	00086200 	andeq	r6, r8, r0, lsl #4
    2964:	51010b00 	tstpl	r1, r0, lsl #22
    2968:	01f33107 	mvnseq	r3, r7, lsl #2
    296c:	241a4f50 	ldrcs	r4, [sl], #-3920	; 0xf50
    2970:	4b130000 	blmi	4c2978 <__bss_end__+0x4b82a0>
    2974:	01000006 	tsteq	r0, r6
    2978:	0064011f 	rsbeq	r0, r4, pc, lsl r1
    297c:	94b80000 	ldrtls	r0, [r8], #0
    2980:	002c0000 	eoreq	r0, ip, r0
    2984:	9c010000 	stcls	0, cr0, [r1], {-0}
    2988:	0000040d 	andeq	r0, r0, sp, lsl #8
    298c:	00064e14 	andeq	r4, r6, r4, lsl lr
    2990:	011f0100 	tsteq	pc, r0, lsl #2
    2994:	0000002c 	andeq	r0, r0, ip, lsr #32
    2998:	000020ad 	andeq	r2, r0, sp, lsr #1
    299c:	0094c811 	addseq	ip, r4, r1, lsl r8
    29a0:	00084100 	andeq	r4, r8, r0, lsl #2
    29a4:	a6150000 	ldrge	r0, [r5], -r0
    29a8:	01000006 	tsteq	r0, r6
    29ac:	94e4012e 	strbtls	r0, [r4], #302	; 0x12e
    29b0:	00840000 	addeq	r0, r4, r0
    29b4:	9c010000 	stcls	0, cr0, [r1], {-0}
    29b8:	000004d1 	ldrdeq	r0, [r0], -r1
    29bc:	6e697016 	mcrvs	0, 3, r7, cr9, cr6, {0}
    29c0:	012e0100 	teqeq	lr, r0, lsl #2
    29c4:	0000002c 	andeq	r0, r0, ip, lsr #32
    29c8:	000020ce 	andeq	r2, r0, lr, asr #1
    29cc:	00067517 	andeq	r7, r6, r7, lsl r5
    29d0:	01400100 	mrseq	r0, (UNDEF: 80)
    29d4:	0000002c 	andeq	r0, r0, ip, lsr #32
    29d8:	000020fa 	strdeq	r2, [r0], -sl
    29dc:	00950018 	addseq	r0, r5, r8, lsl r0
    29e0:	00001c00 	andeq	r1, r0, r0, lsl #24
    29e4:	00047300 	andeq	r7, r4, r0, lsl #6
    29e8:	07081700 	streq	r1, [r8, -r0, lsl #14]
    29ec:	37010000 	strcc	r0, [r1, -r0]
    29f0:	00002c01 	andeq	r2, r0, r1, lsl #24
    29f4:	00211800 	eoreq	r1, r1, r0, lsl #16
    29f8:	950c1100 	strls	r1, [ip, #-256]	; 0x100
    29fc:	08410000 	stmdaeq	r1, {}^	; <UNPREDICTABLE>
    2a00:	1c110000 	ldcne	0, cr0, [r1], {-0}
    2a04:	62000095 	andvs	r0, r0, #149	; 0x95
    2a08:	00000008 	andeq	r0, r0, r8
    2a0c:	00952018 	addseq	r2, r5, r8, lsl r0
    2a10:	00002000 	andeq	r2, r0, r0
    2a14:	0004a300 	andeq	sl, r4, r0, lsl #6
    2a18:	07081700 	streq	r1, [r8, -r0, lsl #14]
    2a1c:	3b010000 	blcc	42a24 <__bss_end__+0x3834c>
    2a20:	00002c01 	andeq	r2, r0, r1, lsl #24
    2a24:	00213600 	eoreq	r3, r1, r0, lsl #12
    2a28:	952c1100 	strls	r1, [ip, #-256]!	; 0x100
    2a2c:	08410000 	stmdaeq	r1, {}^	; <UNPREDICTABLE>
    2a30:	40110000 	andsmi	r0, r1, r0
    2a34:	62000095 	andvs	r0, r0, #149	; 0x95
    2a38:	00000008 	andeq	r0, r0, r8
    2a3c:	0094f811 	addseq	pc, r4, r1, lsl r8	; <UNPREDICTABLE>
    2a40:	00087e00 	andeq	r7, r8, r0, lsl #28
    2a44:	95441100 	strbls	r1, [r4, #-256]	; 0x100
    2a48:	087e0000 	ldmdaeq	lr!, {}^	; <UNPREDICTABLE>
    2a4c:	50110000 	andspl	r0, r1, r0
    2a50:	41000095 	swpmi	r0, r5, [r0]	; <UNPREDICTABLE>
    2a54:	11000008 	tstne	r0, r8
    2a58:	0000955c 	andeq	r9, r0, ip, asr r5
    2a5c:	00000862 	andeq	r0, r0, r2, ror #16
    2a60:	00956011 	addseq	r6, r5, r1, lsl r0
    2a64:	00087e00 	andeq	r7, r8, r0, lsl #28
    2a68:	54150000 	ldrpl	r0, [r5], #-0
    2a6c:	01000007 	tsteq	r0, r7
    2a70:	9568014b 	strbls	r0, [r8, #-331]!	; 0x14b
    2a74:	00840000 	addeq	r0, r4, r0
    2a78:	9c010000 	stcls	0, cr0, [r1], {-0}
    2a7c:	00000595 	muleq	r0, r5, r5
    2a80:	6e697016 	mcrvs	0, 3, r7, cr9, cr6, {0}
    2a84:	014b0100 	mrseq	r0, (UNDEF: 91)
    2a88:	0000002c 	andeq	r0, r0, ip, lsr #32
    2a8c:	00002154 	andeq	r2, r0, r4, asr r1
    2a90:	00067517 	andeq	r7, r6, r7, lsl r5
    2a94:	015c0100 	cmpeq	ip, r0, lsl #2
    2a98:	0000002c 	andeq	r0, r0, ip, lsr #32
    2a9c:	00002180 	andeq	r2, r0, r0, lsl #3
    2aa0:	00958418 	addseq	r8, r5, r8, lsl r4
    2aa4:	00001c00 	andeq	r1, r0, r0, lsl #24
    2aa8:	00053700 	andeq	r3, r5, r0, lsl #14
    2aac:	07081700 	streq	r1, [r8, -r0, lsl #14]
    2ab0:	53010000 	movwpl	r0, #4096	; 0x1000
    2ab4:	00002c01 	andeq	r2, r0, r1, lsl #24
    2ab8:	00219e00 	eoreq	r9, r1, r0, lsl #28
    2abc:	95901100 	ldrls	r1, [r0, #256]	; 0x100
    2ac0:	08410000 	stmdaeq	r1, {}^	; <UNPREDICTABLE>
    2ac4:	a0110000 	andsge	r0, r1, r0
    2ac8:	62000095 	andvs	r0, r0, #149	; 0x95
    2acc:	00000008 	andeq	r0, r0, r8
    2ad0:	0095a418 	addseq	sl, r5, r8, lsl r4
    2ad4:	00002000 	andeq	r2, r0, r0
    2ad8:	00056700 	andeq	r6, r5, r0, lsl #14
    2adc:	07081700 	streq	r1, [r8, -r0, lsl #14]
    2ae0:	57010000 	strpl	r0, [r1, -r0]
    2ae4:	00002c01 	andeq	r2, r0, r1, lsl #24
    2ae8:	0021bc00 	eoreq	fp, r1, r0, lsl #24
    2aec:	95b01100 	ldrls	r1, [r0, #256]!	; 0x100
    2af0:	08410000 	stmdaeq	r1, {}^	; <UNPREDICTABLE>
    2af4:	c4110000 	ldrgt	r0, [r1], #-0
    2af8:	62000095 	andvs	r0, r0, #149	; 0x95
    2afc:	00000008 	andeq	r0, r0, r8
    2b00:	00957c11 	addseq	r7, r5, r1, lsl ip
    2b04:	00087e00 	andeq	r7, r8, r0, lsl #28
    2b08:	95c81100 	strbls	r1, [r8, #256]	; 0x100
    2b0c:	087e0000 	ldmdaeq	lr!, {}^	; <UNPREDICTABLE>
    2b10:	d4110000 	ldrle	r0, [r1], #-0
    2b14:	41000095 	swpmi	r0, r5, [r0]	; <UNPREDICTABLE>
    2b18:	11000008 	tstne	r0, r8
    2b1c:	000095e0 	andeq	r9, r0, r0, ror #11
    2b20:	00000862 	andeq	r0, r0, r2, ror #16
    2b24:	0095e411 	addseq	lr, r5, r1, lsl r4
    2b28:	00087e00 	andeq	r7, r8, r0, lsl #28
    2b2c:	23130000 	tstcs	r3, #0
    2b30:	01000006 	tsteq	r0, r6
    2b34:	00640166 	rsbeq	r0, r4, r6, ror #2
    2b38:	95ec0000 	strbls	r0, [ip, #0]!
    2b3c:	00840000 	addeq	r0, r4, r0
    2b40:	9c010000 	stcls	0, cr0, [r1], {-0}
    2b44:	0000063b 	andeq	r0, r0, fp, lsr r6
    2b48:	6e697016 	mcrvs	0, 3, r7, cr9, cr6, {0}
    2b4c:	01660100 	cmneq	r6, r0, lsl #2
    2b50:	0000002c 	andeq	r0, r0, ip, lsr #32
    2b54:	000021da 	ldrdeq	r2, [r0], -sl
    2b58:	00960818 	addseq	r0, r6, r8, lsl r8
    2b5c:	00002400 	andeq	r2, r0, r0, lsl #8
    2b60:	0005ef00 	andeq	lr, r5, r0, lsl #30
    2b64:	067e1700 	ldrbteq	r1, [lr], -r0, lsl #14
    2b68:	6d010000 	stcvs	0, cr0, [r1, #-0]
    2b6c:	00002c01 	andeq	r2, r0, r1, lsl #24
    2b70:	00221c00 	eoreq	r1, r2, r0, lsl #24
    2b74:	96141100 	ldrls	r1, [r4], -r0, lsl #2
    2b78:	08410000 	stmdaeq	r1, {}^	; <UNPREDICTABLE>
    2b7c:	24110000 	ldrcs	r0, [r1], #-0
    2b80:	7e000096 	mcrvc	0, 0, r0, cr0, cr6, {4}
    2b84:	00000008 	andeq	r0, r0, r8
    2b88:	00962c18 	addseq	r2, r6, r8, lsl ip
    2b8c:	00002c00 	andeq	r2, r0, r0, lsl #24
    2b90:	00062800 	andeq	r2, r6, r0, lsl #16
    2b94:	067e1700 	ldrbteq	r1, [lr], -r0, lsl #14
    2b98:	70010000 	andvc	r0, r1, r0
    2b9c:	00002c01 	andeq	r2, r0, r1, lsl #24
    2ba0:	00223600 	eoreq	r3, r2, r0, lsl #12
    2ba4:	96381100 	ldrtls	r1, [r8], -r0, lsl #2
    2ba8:	08410000 	stmdaeq	r1, {}^	; <UNPREDICTABLE>
    2bac:	44110000 	ldrmi	r0, [r1], #-0
    2bb0:	7e000096 	mcrvc	0, 0, r0, cr0, cr6, {4}
    2bb4:	11000008 	tstne	r0, r8
    2bb8:	00009650 	andeq	r9, r0, r0, asr r6
    2bbc:	0000087e 	andeq	r0, r0, lr, ror r8
    2bc0:	96001100 	strls	r1, [r0], -r0, lsl #2
    2bc4:	087e0000 	ldmdaeq	lr!, {}^	; <UNPREDICTABLE>
    2bc8:	5c110000 	ldcpl	0, cr0, [r1], {-0}
    2bcc:	7e000096 	mcrvc	0, 0, r0, cr0, cr6, {4}
    2bd0:	00000008 	andeq	r0, r0, r8
    2bd4:	0006db15 	andeq	sp, r6, r5, lsl fp
    2bd8:	01790100 	cmneq	r9, r0, lsl #2
    2bdc:	00009670 	andeq	r9, r0, r0, ror r6
    2be0:	00000058 	andeq	r0, r0, r8, asr r0
    2be4:	06a09c01 	strteq	r9, [r0], r1, lsl #24
    2be8:	70160000 	andsvc	r0, r6, r0
    2bec:	01006e69 	tsteq	r0, r9, ror #28
    2bf0:	002c0179 	eoreq	r0, ip, r9, ror r1
    2bf4:	22490000 	subcs	r0, r9, #0
    2bf8:	84110000 	ldrhi	r0, [r1], #-0
    2bfc:	7e000096 	mcrvc	0, 0, r0, cr0, cr6, {4}
    2c00:	0a000008 	beq	2c28 <_start-0x53d8>
    2c04:	000096a0 	andeq	r9, r0, r0, lsr #13
    2c08:	00000862 	andeq	r0, r0, r2, ror #16
    2c0c:	00000680 	andeq	r0, r0, r0, lsl #13
    2c10:	0451010b 	ldrbeq	r0, [r1], #-267	; 0x10b
    2c14:	24007431 	strcs	r7, [r0], #-1073	; 0x431
    2c18:	96bc0a00 	ldrtls	r0, [ip], r0, lsl #20
    2c1c:	08620000 	stmdaeq	r2!, {}^	; <UNPREDICTABLE>
    2c20:	06960000 	ldreq	r0, [r6], r0
    2c24:	010b0000 	mrseq	r0, (UNDEF: 11)
    2c28:	74310451 	ldrtvc	r0, [r1], #-1105	; 0x451
    2c2c:	11002400 	tstne	r0, r0, lsl #8
    2c30:	000096c0 	andeq	r9, r0, r0, asr #13
    2c34:	0000087e 	andeq	r0, r0, lr, ror r8
    2c38:	00101900 	andseq	r1, r0, r0, lsl #18
    2c3c:	28010000 	stmdacs	r1, {}	; <UNPREDICTABLE>
    2c40:	00000133 	andeq	r0, r0, r3, lsr r1
    2c44:	9fbc0305 	svcls	0x00bc0305
    2c48:	00190000 	andseq	r0, r9, r0
    2c4c:	01000000 	mrseq	r0, (UNDEF: 0)
    2c50:	00013329 	andeq	r3, r1, r9, lsr #6
    2c54:	b8030500 	stmdalt	r3, {r8, sl}
    2c58:	1900009f 	stmdbne	r0, {r0, r1, r2, r3, r4, r7}
    2c5c:	00000221 	andeq	r0, r0, r1, lsr #4
    2c60:	01332a01 	teqeq	r3, r1, lsl #20
    2c64:	03050000 	movweq	r0, #20480	; 0x5000
    2c68:	00009fb4 			; <UNDEFINED> instruction: 0x00009fb4
    2c6c:	00011719 	andeq	r1, r1, r9, lsl r7
    2c70:	332c0100 	teqcc	ip, #0, 2
    2c74:	05000001 	streq	r0, [r0, #-1]
    2c78:	009f6003 	addseq	r6, pc, r3
    2c7c:	012f1900 	teqeq	pc, r0, lsl #18
    2c80:	2d010000 	stccs	0, cr0, [r1, #-0]
    2c84:	00000133 	andeq	r0, r0, r3, lsr r1
    2c88:	9f640305 	svcls	0x00640305
    2c8c:	5a190000 	bpl	642c94 <__bss_end__+0x6385bc>
    2c90:	01000002 	tsteq	r0, r2
    2c94:	0001332e 	andeq	r3, r1, lr, lsr #6
    2c98:	68030500 	stmdavs	r3, {r8, sl}
    2c9c:	1900009f 	stmdbne	r0, {r0, r1, r2, r3, r4, r7}
    2ca0:	00000262 	andeq	r0, r0, r2, ror #4
    2ca4:	01332f01 	teqeq	r3, r1, lsl #30
    2ca8:	03050000 	movweq	r0, #20480	; 0x5000
    2cac:	00009f6c 	andeq	r9, r0, ip, ror #30
    2cb0:	00026a19 	andeq	r6, r2, r9, lsl sl
    2cb4:	33300100 	teqcc	r0, #0, 2
    2cb8:	05000001 	streq	r0, [r0, #-1]
    2cbc:	009f7003 	addseq	r7, pc, r3
    2cc0:	02721900 	rsbseq	r1, r2, #0, 18
    2cc4:	31010000 	mrscc	r0, (UNDEF: 1)
    2cc8:	00000133 	andeq	r0, r0, r3, lsr r1
    2ccc:	9f740305 	svcls	0x00740305
    2cd0:	09190000 	ldmdbeq	r9, {}	; <UNPREDICTABLE>
    2cd4:	01000001 	tsteq	r0, r1
    2cd8:	00013333 	andeq	r3, r1, r3, lsr r3
    2cdc:	78030500 	stmdavc	r3, {r8, sl}
    2ce0:	1900009f 	stmdbne	r0, {r0, r1, r2, r3, r4, r7}
    2ce4:	000000d9 	ldrdeq	r0, [r0], -r9
    2ce8:	01333401 	teqeq	r3, r1, lsl #8
    2cec:	03050000 	movweq	r0, #20480	; 0x5000
    2cf0:	00009f7c 	andeq	r9, r0, ip, ror pc
    2cf4:	0000e019 	andeq	lr, r0, r9, lsl r0
    2cf8:	33360100 	teqcc	r6, #0, 2
    2cfc:	05000001 	streq	r0, [r0, #-1]
    2d00:	009f8003 	addseq	r8, pc, r3
    2d04:	00881900 	addeq	r1, r8, r0, lsl #18
    2d08:	37010000 	strcc	r0, [r1, -r0]
    2d0c:	00000133 	andeq	r0, r0, r3, lsr r1
    2d10:	9f840305 	svcls	0x00840305
    2d14:	53190000 	tstpl	r9, #0
    2d18:	01000002 	tsteq	r0, r2
    2d1c:	00013339 	andeq	r3, r1, r9, lsr r3
    2d20:	88030500 	stmdahi	r3, {r8, sl}
    2d24:	1900009f 	stmdbne	r0, {r0, r1, r2, r3, r4, r7}
    2d28:	0000009d 	muleq	r0, sp, r0
    2d2c:	01333a01 	teqeq	r3, r1, lsl #20
    2d30:	03050000 	movweq	r0, #20480	; 0x5000
    2d34:	00009f8c 	andeq	r9, r0, ip, lsl #31
    2d38:	0006ec1a 	andeq	lr, r6, sl, lsl ip
    2d3c:	010a0100 	mrseq	r0, (UNDEF: 26)
    2d40:	00000133 	andeq	r0, r0, r3, lsr r1
    2d44:	9fb00305 	svcls	0x00b00305
    2d48:	fa1a0000 	blx	682d50 <__bss_end__+0x678678>
    2d4c:	01000006 	tsteq	r0, r6
    2d50:	0133010b 	teqeq	r3, fp, lsl #2
    2d54:	03050000 	movweq	r0, #20480	; 0x5000
    2d58:	00009f90 	muleq	r0, r0, pc	; <UNPREDICTABLE>
    2d5c:	0007211a 	andeq	r2, r7, sl, lsl r1
    2d60:	010d0100 	mrseq	r0, (UNDEF: 29)
    2d64:	00000133 	andeq	r0, r0, r3, lsr r1
    2d68:	9fa80305 	svcls	0x00a80305
    2d6c:	281a0000 	ldmdacs	sl, {}	; <UNPREDICTABLE>
    2d70:	01000007 	tsteq	r0, r7
    2d74:	0133010e 	teqeq	r3, lr, lsl #2
    2d78:	03050000 	movweq	r0, #20480	; 0x5000
    2d7c:	00009fac 	andeq	r9, r0, ip, lsr #31
    2d80:	0006cd1a 	andeq	ip, r6, sl, lsl sp
    2d84:	01100100 	tsteq	r0, r0, lsl #2
    2d88:	00000133 	andeq	r0, r0, r3, lsr r1
    2d8c:	9f940305 	svcls	0x00940305
    2d90:	d41a0000 	ldrle	r0, [sl], #-0
    2d94:	01000006 	tsteq	r0, r6
    2d98:	01330111 	teqeq	r3, r1, lsl r1
    2d9c:	03050000 	movweq	r0, #20480	; 0x5000
    2da0:	00009f98 	muleq	r0, r8, pc	; <UNPREDICTABLE>
    2da4:	00072f1a 	andeq	r2, r7, sl, lsl pc
    2da8:	01130100 	tsteq	r3, r0, lsl #2
    2dac:	00000133 	andeq	r0, r0, r3, lsr r1
    2db0:	9fa00305 	svcls	0x00a00305
    2db4:	361a0000 	ldrcc	r0, [sl], -r0
    2db8:	01000007 	tsteq	r0, r7
    2dbc:	01330114 	teqeq	r3, r4, lsl r1
    2dc0:	03050000 	movweq	r0, #20480	; 0x5000
    2dc4:	00009fa4 	andeq	r9, r0, r4, lsr #31
    2dc8:	00063d1a 	andeq	r3, r6, sl, lsl sp
    2dcc:	01160100 	tsteq	r6, r0, lsl #2
    2dd0:	00000133 	andeq	r0, r0, r3, lsr r1
    2dd4:	9f9c0305 	svcls	0x009c0305
    2dd8:	4e1b0000 	cdpmi	0, 1, cr0, cr11, cr0, {0}
    2ddc:	01000007 	tsteq	r0, r7
    2de0:	00002c20 	andeq	r2, r0, r0, lsr #24
    2de4:	00085600 	andeq	r5, r8, r0, lsl #12
    2de8:	08561c00 	ldmdaeq	r6, {sl, fp, ip}^
    2dec:	0d000000 	stceq	0, cr0, [r0, #-0]
    2df0:	00085c04 	andeq	r5, r8, r4, lsl #24
    2df4:	08611d00 	stmdaeq	r1!, {r8, sl, fp, ip}^
    2df8:	1f1e0000 	svcne	0x001e0000
    2dfc:	00000637 	andeq	r0, r0, r7, lsr r6
    2e00:	08781e01 	ldmdaeq	r8!, {r0, r9, sl, fp, ip}^
    2e04:	781c0000 	ldmdavc	ip, {}	; <UNPREDICTABLE>
    2e08:	1c000008 	stcne	0, cr0, [r0], {8}
    2e0c:	0000002c 	andeq	r0, r0, ip, lsr #32
    2e10:	61040d00 	tstvs	r4, r0, lsl #26
    2e14:	20000008 	andcs	r0, r0, r8
    2e18:	00000690 	muleq	r0, r0, r6
    2e1c:	f2008a03 	vpmax.s8	d8, d0, d3
    2e20:	04000011 	streq	r0, [r0], #-17
    2e24:	000d7e00 	andeq	r7, sp, r0, lsl #28
    2e28:	97010400 	strls	r0, [r1, -r0, lsl #8]
    2e2c:	01000002 	tsteq	r0, r2
    2e30:	00000870 	andeq	r0, r0, r0, ror r8
    2e34:	00000302 	andeq	r0, r0, r2, lsl #6
    2e38:	000096c8 	andeq	r9, r0, r8, asr #13
    2e3c:	00000668 	andeq	r0, r0, r8, ror #12
    2e40:	00000cc7 	andeq	r0, r0, r7, asr #25
    2e44:	69050402 	stmdbvs	r5, {r1, sl}
    2e48:	0300746e 	movweq	r7, #1134	; 0x46e
    2e4c:	01720704 	cmneq	r2, r4, lsl #14
    2e50:	01030000 	mrseq	r0, (UNDEF: 3)
    2e54:	0000b706 	andeq	fp, r0, r6, lsl #14
    2e58:	05020300 	streq	r0, [r2, #-768]	; 0x300
    2e5c:	00000142 	andeq	r0, r0, r2, asr #2
    2e60:	aa050403 	bge	143e74 <__bss_end__+0x13979c>
    2e64:	03000001 	movweq	r0, #1
    2e68:	01a50508 			; <UNDEFINED> instruction: 0x01a50508
    2e6c:	7f040000 	svcvc	0x00040000
    2e70:	03000001 	movweq	r0, #1
    2e74:	00005a2e 	andeq	r5, r0, lr, lsr #20
    2e78:	08010300 	stmdaeq	r1, {r8, r9}
    2e7c:	000000b5 	strheq	r0, [r0], -r5
    2e80:	e7070203 	str	r0, [r7, -r3, lsl #4]
    2e84:	04000000 	streq	r0, [r0], #-0
    2e88:	00000542 	andeq	r0, r0, r2, asr #10
    2e8c:	00733403 	rsbseq	r3, r3, r3, lsl #8
    2e90:	04030000 	streq	r0, [r3], #-0
    2e94:	00016d07 	andeq	r6, r1, r7, lsl #26
    2e98:	07080300 	streq	r0, [r8, -r0, lsl #6]
    2e9c:	00000168 	andeq	r0, r0, r8, ror #2
    2ea0:	9c070403 	cfstrsls	mvf0, [r7], {3}
    2ea4:	05000001 	streq	r0, [r0, #-1]
    2ea8:	90040604 	andls	r0, r4, r4, lsl #12
    2eac:	03000000 	movweq	r0, #0
    2eb0:	00be0801 	adcseq	r0, lr, r1, lsl #16
    2eb4:	04060000 	streq	r0, [r6], #-0
    2eb8:	0000009d 	muleq	r0, sp, r0
    2ebc:	00009007 	andeq	r9, r0, r7
    2ec0:	040c0800 	streq	r0, [ip], #-2048	; 0x800
    2ec4:	0000d90e 	andeq	sp, r0, lr, lsl #18
    2ec8:	78740900 	ldmdavc	r4!, {r8, fp}^
    2ecc:	4f0f0400 	svcmi	0x000f0400
    2ed0:	00000000 	andeq	r0, r0, r0
    2ed4:	00787209 	rsbseq	r7, r8, r9, lsl #4
    2ed8:	004f0f04 	subeq	r0, pc, r4, lsl #30
    2edc:	0a010000 	beq	42ee4 <__bss_end__+0x3880c>
    2ee0:	000004c1 	andeq	r0, r0, r1, asr #9
    2ee4:	00681004 	rsbeq	r1, r8, r4
    2ee8:	0a040000 	beq	102ef0 <__bss_end__+0xf8818>
    2eec:	00000472 	andeq	r0, r0, r2, ror r4
    2ef0:	00681104 	rsbeq	r1, r8, r4, lsl #2
    2ef4:	00080000 	andeq	r0, r8, r0
    2ef8:	0004aa04 	andeq	sl, r4, r4, lsl #20
    2efc:	a2120400 	andsge	r0, r2, #0, 8
    2f00:	04000000 	streq	r0, [r0], #-0
    2f04:	0000027a 	andeq	r0, r0, sl, ror r2
    2f08:	00ef2805 	rsceq	r2, pc, r5, lsl #16
    2f0c:	f80b0000 			; <UNDEFINED> instruction: 0xf80b0000
    2f10:	04000002 	streq	r0, [r0], #-2
    2f14:	01060009 	tsteq	r6, r9
    2f18:	4b0c0000 	blmi	302f20 <__bss_end__+0x2f8848>
    2f1c:	88000003 	stmdahi	r0, {r0, r1}
    2f20:	00000000 	andeq	r0, r0, r0
    2f24:	02fa0400 	rscseq	r0, sl, #0, 8
    2f28:	62050000 	andvs	r0, r5, #0
    2f2c:	000000e4 	andeq	r0, r0, r4, ror #1
    2f30:	0008340d 	andeq	r3, r8, sp, lsl #8
    2f34:	03090200 	movweq	r0, #37376	; 0x9200
    2f38:	0000013f 	andeq	r0, r0, pc, lsr r1
    2f3c:	0004d50e 	andeq	sp, r4, lr, lsl #10
    2f40:	2c090200 	sfmcs	f0, 4, [r9], {-0}
    2f44:	0f000000 	svceq	0x00000000
    2f48:	0902006e 	stmdbeq	r2, {r1, r2, r3, r5, r6}
    2f4c:	0000002c 	andeq	r0, r0, ip, lsr #32
    2f50:	01c51110 	biceq	r1, r5, r0, lsl r1
    2f54:	0c020000 	stceq	0, cr0, [r2], {-0}
    2f58:	0000002c 	andeq	r0, r0, ip, lsr #32
    2f5c:	e70d0000 	str	r0, [sp, -r0]
    2f60:	02000007 	andeq	r0, r0, #7
    2f64:	01760317 	cmneq	r6, r7, lsl r3
    2f68:	700f0000 	andvc	r0, pc, r0
    2f6c:	02006e69 	andeq	r6, r0, #1680	; 0x690
    2f70:	00002c17 	andeq	r2, r0, r7, lsl ip
    2f74:	00760f00 	rsbseq	r0, r6, r0, lsl #30
    2f78:	002c1702 	eoreq	r1, ip, r2, lsl #14
    2f7c:	d50e0000 	strle	r0, [lr, #-0]
    2f80:	02000004 	andeq	r0, r0, #4
    2f84:	00002c17 	andeq	r2, r0, r7, lsl ip
    2f88:	083a0e00 	ldmdaeq	sl!, {r9, sl, fp}
    2f8c:	17020000 	strne	r0, [r2, -r0]
    2f90:	0000002c 	andeq	r0, r0, ip, lsr #32
    2f94:	04e61200 	strbteq	r1, [r6], #512	; 0x200
    2f98:	09010000 	stmdbeq	r1, {}	; <UNPREDICTABLE>
    2f9c:	000096c8 	andeq	r9, r0, r8, asr #13
    2fa0:	00000154 	andeq	r0, r0, r4, asr r1
    2fa4:	07229c01 	streq	r9, [r2, -r1, lsl #24]!
    2fa8:	88130000 	ldmdahi	r3, {}	; <UNPREDICTABLE>
    2fac:	01000004 	tsteq	r0, r4
    2fb0:	00072209 	andeq	r2, r7, r9, lsl #4
    2fb4:	00227500 	eoreq	r7, r2, r0, lsl #10
    2fb8:	00631400 	rsbeq	r1, r3, r0, lsl #8
    2fbc:	005a0901 	subseq	r0, sl, r1, lsl #18
    2fc0:	22960000 	addscs	r0, r6, #0
    2fc4:	74150000 	ldrvc	r0, [r5], #-0
    2fc8:	0b010078 	bleq	431b0 <__bss_end__+0x38ad8>
    2fcc:	00000025 	andeq	r0, r0, r5, lsr #32
    2fd0:	08007606 	stmdaeq	r0, {r1, r2, r9, sl, ip, sp, lr}
    2fd4:	169f1aff 			; <UNDEFINED> instruction: 0x169f1aff
    2fd8:	0c01006e 	stceq	0, cr0, [r1], {110}	; 0x6e
    2fdc:	00000068 	andeq	r0, r0, r8, rrx
    2fe0:	000022b7 			; <UNDEFINED> instruction: 0x000022b7
    2fe4:	01007516 	tsteq	r0, r6, lsl r5
    2fe8:	0000680d 	andeq	r6, r0, sp, lsl #16
    2fec:	0022ca00 	eoreq	ip, r2, r0, lsl #20
    2ff0:	00731500 	rsbseq	r1, r3, r0, lsl #10
    2ff4:	00680e01 	rsbeq	r0, r8, r1, lsl #28
    2ff8:	54010000 	strpl	r0, [r1], #-0
    2ffc:	0096d817 	addseq	sp, r6, r7, lsl r8
    3000:	00000400 	andeq	r0, r0, r0, lsl #8
    3004:	0001f800 	andeq	pc, r1, r0, lsl #16
    3008:	01c51800 	biceq	r1, r5, r0, lsl #16
    300c:	0e010000 	cdpeq	0, 0, cr0, cr1, cr0, {0}
    3010:	0000002c 	andeq	r0, r0, ip, lsr #32
    3014:	19005401 	stmdbne	r0, {r0, sl, ip, lr}
    3018:	0000013f 	andeq	r0, r0, pc, lsr r1
    301c:	000096dc 	ldrdeq	r9, [r0], -ip
    3020:	0000001c 	andeq	r0, r0, ip, lsl r0
    3024:	02751101 	rsbseq	r1, r5, #1073741824	; 0x40000000
    3028:	6a1a0000 	bvs	683030 <__bss_end__+0x678958>
    302c:	f3000001 	vhadd.u8	d0, d0, d1
    3030:	1b000022 	blne	30c0 <_start-0x4f40>
    3034:	0000015f 	andeq	r0, r0, pc, asr r1
    3038:	561c5401 	ldrpl	r5, [ip], -r1, lsl #8
    303c:	00000001 	andeq	r0, r0, r1
    3040:	00014b1b 	andeq	r4, r1, fp, lsl fp
    3044:	19560100 	ldmdbne	r6, {r8}^
    3048:	00000111 	andeq	r0, r0, r1, lsl r1
    304c:	000096e8 	andeq	r9, r0, r8, ror #13
    3050:	00000010 	andeq	r0, r0, r0, lsl r0
    3054:	025f1a02 	subseq	r1, pc, #8192	; 0x2000
    3058:	281a0000 	ldmdacs	sl, {}	; <UNPREDICTABLE>
    305c:	06000001 	streq	r0, [r0], -r1
    3060:	1b000023 	blne	30f4 <_start-0x4f0c>
    3064:	0000011d 	andeq	r0, r0, sp, lsl r1
    3068:	e81d5401 	ldmda	sp, {r0, sl, ip, lr}
    306c:	04000096 	streq	r0, [r0], #-150	; 0x96
    3070:	1e000000 	cdpne	0, 0, cr0, cr0, cr0, {0}
    3074:	00000132 	andeq	r0, r0, r2, lsr r1
    3078:	00002319 	andeq	r2, r0, r9, lsl r3
    307c:	e81f0000 	ldmda	pc, {}	; <UNPREDICTABLE>
    3080:	59000096 	stmdbpl	r0, {r1, r2, r4, r7}
    3084:	20000011 	andcs	r0, r0, r1, lsl r0
    3088:	30015101 	andcc	r5, r1, r1, lsl #2
    308c:	02500120 	subseq	r0, r0, #32, 2
    3090:	00000076 	andeq	r0, r0, r6, ror r0
    3094:	00013f19 	andeq	r3, r1, r9, lsl pc
    3098:	0096fc00 	addseq	pc, r6, r0, lsl #24
    309c:	00001c00 	andeq	r1, r0, r0, lsl #24
    30a0:	f8130100 			; <UNDEFINED> instruction: 0xf8130100
    30a4:	1a000002 	bne	30b4 <_start-0x4f4c>
    30a8:	0000016a 	andeq	r0, r0, sl, ror #2
    30ac:	0000232c 	andeq	r2, r0, ip, lsr #6
    30b0:	00015f1b 	andeq	r5, r1, fp, lsl pc
    30b4:	1a540100 	bne	15034bc <__bss_end__+0x14f8de4>
    30b8:	00000156 	andeq	r0, r0, r6, asr r1
    30bc:	0000234e 	andeq	r2, r0, lr, asr #6
    30c0:	00014b1b 	andeq	r4, r1, fp, lsl fp
    30c4:	19560100 	ldmdbne	r6, {r8}^
    30c8:	00000111 	andeq	r0, r0, r1, lsl r1
    30cc:	00009708 	andeq	r9, r0, r8, lsl #14
    30d0:	00000010 	andeq	r0, r0, r0, lsl r0
    30d4:	02df1a02 	sbcseq	r1, pc, #8192	; 0x2000
    30d8:	281a0000 	ldmdacs	sl, {}	; <UNPREDICTABLE>
    30dc:	7f000001 	svcvc	0x00000001
    30e0:	1b000023 	blne	3174 <_start-0x4e8c>
    30e4:	0000011d 	andeq	r0, r0, sp, lsl r1
    30e8:	081d5401 	ldmdaeq	sp, {r0, sl, ip, lr}
    30ec:	04000097 	streq	r0, [r0], #-151	; 0x97
    30f0:	1e000000 	cdpne	0, 0, cr0, cr0, cr0, {0}
    30f4:	00000132 	andeq	r0, r0, r2, lsr r1
    30f8:	000023a1 	andeq	r2, r0, r1, lsr #7
    30fc:	081f0000 	ldmdaeq	pc, {}	; <UNPREDICTABLE>
    3100:	59000097 	stmdbpl	r0, {r0, r1, r2, r4, r7}
    3104:	20000011 	andcs	r0, r0, r1, lsl r0
    3108:	77045101 	strvc	r5, [r4, -r1, lsl #2]
    310c:	201a3100 	andscs	r3, sl, r0, lsl #2
    3110:	76025001 	strvc	r5, [r2], -r1
    3114:	19000000 	stmdbne	r0, {}	; <UNPREDICTABLE>
    3118:	0000013f 	andeq	r0, r0, pc, lsr r1
    311c:	0000971c 	andeq	r9, r0, ip, lsl r7
    3120:	0000001c 	andeq	r0, r0, ip, lsl r0
    3124:	03801501 	orreq	r1, r0, #4194304	; 0x400000
    3128:	6a1a0000 	bvs	683130 <__bss_end__+0x678a58>
    312c:	b4000001 	strlt	r0, [r0], #-1
    3130:	1b000023 	blne	31c4 <_start-0x4e3c>
    3134:	0000015f 	andeq	r0, r0, pc, asr r1
    3138:	561b5401 	ldrpl	r5, [fp], -r1, lsl #8
    313c:	08000001 	stmdaeq	r0, {r0}
    3140:	1a320077 	bne	c83324 <__bss_end__+0xc78c4c>
    3144:	9f1aff08 	svcls	0x001aff08
    3148:	00014b1b 	andeq	r4, r1, fp, lsl fp
    314c:	19560100 	ldmdbne	r6, {r8}^
    3150:	00000111 	andeq	r0, r0, r1, lsl r1
    3154:	00009728 	andeq	r9, r0, r8, lsr #14
    3158:	00000010 	andeq	r0, r0, r0, lsl r0
    315c:	03671a02 	cmneq	r7, #8192	; 0x2000
    3160:	281a0000 	ldmdacs	sl, {}	; <UNPREDICTABLE>
    3164:	d9000001 	stmdble	r0, {r0}
    3168:	1b000023 	blne	31fc <_start-0x4e04>
    316c:	0000011d 	andeq	r0, r0, sp, lsl r1
    3170:	281d5401 	ldmdacs	sp, {r0, sl, ip, lr}
    3174:	04000097 	streq	r0, [r0], #-151	; 0x97
    3178:	1e000000 	cdpne	0, 0, cr0, cr0, cr0, {0}
    317c:	00000132 	andeq	r0, r0, r2, lsr r1
    3180:	000023fe 	strdeq	r2, [r0], -lr
    3184:	281f0000 	ldmdacs	pc, {}	; <UNPREDICTABLE>
    3188:	59000097 	stmdbpl	r0, {r0, r1, r2, r4, r7}
    318c:	20000011 	andcs	r0, r0, r1, lsl r0
    3190:	77045101 	strvc	r5, [r4, -r1, lsl #2]
    3194:	201a3200 	andscs	r3, sl, r0, lsl #4
    3198:	76025001 	strvc	r5, [r2], -r1
    319c:	19000000 	stmdbne	r0, {}	; <UNPREDICTABLE>
    31a0:	0000013f 	andeq	r0, r0, pc, lsr r1
    31a4:	0000973c 	andeq	r9, r0, ip, lsr r7
    31a8:	0000001c 	andeq	r0, r0, ip, lsl r0
    31ac:	04081701 	streq	r1, [r8], #-1793	; 0x701
    31b0:	6a1a0000 	bvs	6831b8 <__bss_end__+0x678ae0>
    31b4:	11000001 	tstne	r0, r1
    31b8:	1b000024 	blne	3250 <_start-0x4db0>
    31bc:	0000015f 	andeq	r0, r0, pc, asr r1
    31c0:	561b5401 	ldrpl	r5, [fp], -r1, lsl #8
    31c4:	08000001 	stmdaeq	r0, {r0}
    31c8:	1a340077 	bne	d033ac <__bss_end__+0xcf8cd4>
    31cc:	9f1aff08 	svcls	0x001aff08
    31d0:	00014b1b 	andeq	r4, r1, fp, lsl fp
    31d4:	19560100 	ldmdbne	r6, {r8}^
    31d8:	00000111 	andeq	r0, r0, r1, lsl r1
    31dc:	00009748 	andeq	r9, r0, r8, asr #14
    31e0:	00000010 	andeq	r0, r0, r0, lsl r0
    31e4:	03ef1a02 	mvneq	r1, #8192	; 0x2000
    31e8:	281a0000 	ldmdacs	sl, {}	; <UNPREDICTABLE>
    31ec:	33000001 	movwcc	r0, #1
    31f0:	1b000024 	blne	3288 <_start-0x4d78>
    31f4:	0000011d 	andeq	r0, r0, sp, lsl r1
    31f8:	481d5401 	ldmdami	sp, {r0, sl, ip, lr}
    31fc:	04000097 	streq	r0, [r0], #-151	; 0x97
    3200:	1e000000 	cdpne	0, 0, cr0, cr0, cr0, {0}
    3204:	00000132 	andeq	r0, r0, r2, lsr r1
    3208:	00002455 	andeq	r2, r0, r5, asr r4
    320c:	481f0000 	ldmdami	pc, {}	; <UNPREDICTABLE>
    3210:	59000097 	stmdbpl	r0, {r0, r1, r2, r4, r7}
    3214:	20000011 	andcs	r0, r0, r1, lsl r0
    3218:	77045101 	strvc	r5, [r4, -r1, lsl #2]
    321c:	201a3400 	andscs	r3, sl, r0, lsl #8
    3220:	76025001 	strvc	r5, [r2], -r1
    3224:	19000000 	stmdbne	r0, {}	; <UNPREDICTABLE>
    3228:	0000013f 	andeq	r0, r0, pc, lsr r1
    322c:	0000975c 	andeq	r9, r0, ip, asr r7
    3230:	0000001c 	andeq	r0, r0, ip, lsl r0
    3234:	04901901 	ldreq	r1, [r0], #2305	; 0x901
    3238:	6a1a0000 	bvs	683240 <__bss_end__+0x678b68>
    323c:	68000001 	stmdavs	r0, {r0}
    3240:	1b000024 	blne	32d8 <_start-0x4d28>
    3244:	0000015f 	andeq	r0, r0, pc, asr r1
    3248:	561b5401 	ldrpl	r5, [fp], -r1, lsl #8
    324c:	08000001 	stmdaeq	r0, {r0}
    3250:	1a380077 	bne	e03434 <__bss_end__+0xdf8d5c>
    3254:	9f1aff08 	svcls	0x001aff08
    3258:	00014b1b 	andeq	r4, r1, fp, lsl fp
    325c:	19560100 	ldmdbne	r6, {r8}^
    3260:	00000111 	andeq	r0, r0, r1, lsl r1
    3264:	00009768 	andeq	r9, r0, r8, ror #14
    3268:	00000010 	andeq	r0, r0, r0, lsl r0
    326c:	04771a02 	ldrbteq	r1, [r7], #-2562	; 0xa02
    3270:	281a0000 	ldmdacs	sl, {}	; <UNPREDICTABLE>
    3274:	8d000001 	stchi	0, cr0, [r0, #-4]
    3278:	1b000024 	blne	3310 <_start-0x4cf0>
    327c:	0000011d 	andeq	r0, r0, sp, lsl r1
    3280:	681d5401 	ldmdavs	sp, {r0, sl, ip, lr}
    3284:	04000097 	streq	r0, [r0], #-151	; 0x97
    3288:	1e000000 	cdpne	0, 0, cr0, cr0, cr0, {0}
    328c:	00000132 	andeq	r0, r0, r2, lsr r1
    3290:	000024b2 			; <UNDEFINED> instruction: 0x000024b2
    3294:	681f0000 	ldmdavs	pc, {}	; <UNPREDICTABLE>
    3298:	59000097 	stmdbpl	r0, {r0, r1, r2, r4, r7}
    329c:	20000011 	andcs	r0, r0, r1, lsl r0
    32a0:	77045101 	strvc	r5, [r4, -r1, lsl #2]
    32a4:	201a3800 	andscs	r3, sl, r0, lsl #16
    32a8:	76025001 	strvc	r5, [r2], -r1
    32ac:	19000000 	stmdbne	r0, {}	; <UNPREDICTABLE>
    32b0:	0000013f 	andeq	r0, r0, pc, lsr r1
    32b4:	0000977c 	andeq	r9, r0, ip, ror r7
    32b8:	0000001c 	andeq	r0, r0, ip, lsl r0
    32bc:	05181b01 	ldreq	r1, [r8, #-2817]	; 0xb01
    32c0:	6a1a0000 	bvs	6832c8 <__bss_end__+0x678bf0>
    32c4:	c5000001 	strgt	r0, [r0, #-1]
    32c8:	1b000024 	blne	3360 <_start-0x4ca0>
    32cc:	0000015f 	andeq	r0, r0, pc, asr r1
    32d0:	561b5401 	ldrpl	r5, [fp], -r1, lsl #8
    32d4:	08000001 	stmdaeq	r0, {r0}
    32d8:	1a400077 	bne	10034bc <__bss_end__+0xff8de4>
    32dc:	9f1aff08 	svcls	0x001aff08
    32e0:	00014b1b 	andeq	r4, r1, fp, lsl fp
    32e4:	19560100 	ldmdbne	r6, {r8}^
    32e8:	00000111 	andeq	r0, r0, r1, lsl r1
    32ec:	00009788 	andeq	r9, r0, r8, lsl #15
    32f0:	00000010 	andeq	r0, r0, r0, lsl r0
    32f4:	04ff1a02 	ldrbteq	r1, [pc], #2562	; 32fc <_start-0x4d04>
    32f8:	281a0000 	ldmdacs	sl, {}	; <UNPREDICTABLE>
    32fc:	ec000001 	stc	0, cr0, [r0], {1}
    3300:	1b000024 	blne	3398 <_start-0x4c68>
    3304:	0000011d 	andeq	r0, r0, sp, lsl r1
    3308:	881d5401 	ldmdahi	sp, {r0, sl, ip, lr}
    330c:	04000097 	streq	r0, [r0], #-151	; 0x97
    3310:	1e000000 	cdpne	0, 0, cr0, cr0, cr0, {0}
    3314:	00000132 	andeq	r0, r0, r2, lsr r1
    3318:	00002513 	andeq	r2, r0, r3, lsl r5
    331c:	881f0000 	ldmdahi	pc, {}	; <UNPREDICTABLE>
    3320:	59000097 	stmdbpl	r0, {r0, r1, r2, r4, r7}
    3324:	20000011 	andcs	r0, r0, r1, lsl r0
    3328:	77045101 	strvc	r5, [r4, -r1, lsl #2]
    332c:	201a4000 	andscs	r4, sl, r0
    3330:	76025001 	strvc	r5, [r2], -r1
    3334:	19000000 	stmdbne	r0, {}	; <UNPREDICTABLE>
    3338:	0000013f 	andeq	r0, r0, pc, lsr r1
    333c:	0000979c 	muleq	r0, ip, r7
    3340:	0000001c 	andeq	r0, r0, ip, lsl r0
    3344:	05a21d01 	streq	r1, [r2, #3329]!	; 0xd01
    3348:	6a1a0000 	bvs	683350 <__bss_end__+0x678c78>
    334c:	26000001 	strcs	r0, [r0], -r1
    3350:	1b000025 	blne	33ec <_start-0x4c14>
    3354:	0000015f 	andeq	r0, r0, pc, asr r1
    3358:	561b5401 	ldrpl	r5, [fp], -r1, lsl #8
    335c:	09000001 	stmdbeq	r0, {r0}
    3360:	20080077 	andcs	r0, r8, r7, ror r0
    3364:	1aff081a 	bne	fffc53d4 <__bss_end__+0xfffbacfc>
    3368:	014b1b9f 			; <UNDEFINED> instruction: 0x014b1b9f
    336c:	56010000 	strpl	r0, [r1], -r0
    3370:	00011119 	andeq	r1, r1, r9, lsl r1
    3374:	0097a800 	addseq	sl, r7, r0, lsl #16
    3378:	00001000 	andeq	r1, r0, r0
    337c:	881a0200 	ldmdahi	sl, {r9}
    3380:	1a000005 	bne	339c <_start-0x4c64>
    3384:	00000128 	andeq	r0, r0, r8, lsr #2
    3388:	00002550 	andeq	r2, r0, r0, asr r5
    338c:	00011d1b 	andeq	r1, r1, fp, lsl sp
    3390:	1d540100 	ldfnee	f0, [r4, #-0]
    3394:	000097a8 	andeq	r9, r0, r8, lsr #15
    3398:	00000004 	andeq	r0, r0, r4
    339c:	0001321e 	andeq	r3, r1, lr, lsl r2
    33a0:	00257a00 	eoreq	r7, r5, r0, lsl #20
    33a4:	1f000000 	svcne	0x00000000
    33a8:	000097a8 	andeq	r9, r0, r8, lsr #15
    33ac:	00001159 	andeq	r1, r0, r9, asr r1
    33b0:	05510120 	ldrbeq	r0, [r1, #-288]	; 0x120
    33b4:	20080077 	andcs	r0, r8, r7, ror r0
    33b8:	5001201a 	andpl	r2, r1, sl, lsl r0
    33bc:	00007602 	andeq	r7, r0, r2, lsl #12
    33c0:	013f1900 	teqeq	pc, r0, lsl #18
    33c4:	97bc0000 	ldrls	r0, [ip, r0]!
    33c8:	001c0000 	andseq	r0, ip, r0
    33cc:	1f010000 	svcne	0x00010000
    33d0:	0000062c 	andeq	r0, r0, ip, lsr #12
    33d4:	00016a1a 	andeq	r6, r1, sl, lsl sl
    33d8:	00258d00 	eoreq	r8, r5, r0, lsl #26
    33dc:	015f1b00 	cmpeq	pc, r0, lsl #22
    33e0:	54010000 	strpl	r0, [r1], #-0
    33e4:	0001561b 	andeq	r5, r1, fp, lsl r6
    33e8:	00770900 	rsbseq	r0, r7, r0, lsl #18
    33ec:	081a4008 	ldmdaeq	sl, {r3, lr}
    33f0:	1b9f1aff 	blne	fe7c9ff4 <__bss_end__+0xfe7bf91c>
    33f4:	0000014b 	andeq	r0, r0, fp, asr #2
    33f8:	11195601 	tstne	r9, r1, lsl #12
    33fc:	c8000001 	stmdagt	r0, {r0}
    3400:	10000097 	mulne	r0, r7, r0
    3404:	02000000 	andeq	r0, r0, #0
    3408:	0006121a 	andeq	r1, r6, sl, lsl r2
    340c:	01281a00 	teqeq	r8, r0, lsl #20
    3410:	25af0000 	strcs	r0, [pc, #0]!	; 3418 <_start-0x4be8>
    3414:	1d1b0000 	ldcne	0, cr0, [fp, #-0]
    3418:	01000001 	tsteq	r0, r1
    341c:	97c81d54 			; <UNDEFINED> instruction: 0x97c81d54
    3420:	00040000 	andeq	r0, r4, r0
    3424:	321e0000 	andscc	r0, lr, #0
    3428:	d1000001 	tstle	r0, r1
    342c:	00000025 	andeq	r0, r0, r5, lsr #32
    3430:	97c81f00 	strbls	r1, [r8, r0, lsl #30]
    3434:	11590000 	cmpne	r9, r0
    3438:	01200000 	teqeq	r0, r0
    343c:	00770551 	rsbseq	r0, r7, r1, asr r5
    3440:	201a4008 	andscs	r4, sl, r8
    3444:	76025001 	strvc	r5, [r2], -r1
    3448:	19000000 	stmdbne	r0, {}	; <UNPREDICTABLE>
    344c:	0000013f 	andeq	r0, r0, pc, lsr r1
    3450:	000097dc 	ldrdeq	r9, [r0], -ip
    3454:	0000001c 	andeq	r0, r0, ip, lsl r0
    3458:	06ac2101 	strteq	r2, [ip], r1, lsl #2
    345c:	6a1b0000 	bvs	6c3464 <__bss_end__+0x6b8d8c>
    3460:	01000001 	tsteq	r0, r1
    3464:	015f1b58 	cmpeq	pc, r8, asr fp	; <UNPREDICTABLE>
    3468:	54010000 	strpl	r0, [r1], #-0
    346c:	0001561a 	andeq	r5, r1, sl, lsl r6
    3470:	0025e400 	eoreq	lr, r5, r0, lsl #8
    3474:	014b1b00 	cmpeq	fp, r0, lsl #22
    3478:	56010000 	strpl	r0, [r1], -r0
    347c:	00011119 	andeq	r1, r1, r9, lsl r1
    3480:	0097e800 	addseq	lr, r7, r0, lsl #16
    3484:	00001000 	andeq	r1, r0, r0
    3488:	921a0200 	andsls	r0, sl, #0, 4
    348c:	1b000006 	blne	34ac <_start-0x4b54>
    3490:	00000128 	andeq	r0, r0, r8, lsr #2
    3494:	1d1b5801 	ldcne	8, cr5, [fp, #-4]
    3498:	01000001 	tsteq	r0, r1
    349c:	97e81d54 	ubfxls	r1, r4, #26, #9
    34a0:	00040000 	andeq	r0, r4, r0
    34a4:	321e0000 	andscc	r0, lr, #0
    34a8:	17000001 	strne	r0, [r0, -r1]
    34ac:	00000026 	andeq	r0, r0, r6, lsr #32
    34b0:	97e81f00 	strbls	r1, [r8, r0, lsl #30]!
    34b4:	11590000 	cmpne	r9, r0
    34b8:	01200000 	teqeq	r0, r0
    34bc:	00770551 	rsbseq	r0, r7, r1, asr r5
    34c0:	201a8008 	andscs	r8, sl, r8
    34c4:	76025001 	strvc	r5, [r2], -r1
    34c8:	21000000 	mrscs	r0, (UNDEF: 0)
    34cc:	0000013f 	andeq	r0, r0, pc, lsr r1
    34d0:	000097fc 	strdeq	r9, [r0], -ip
    34d4:	0000001c 	andeq	r0, r0, ip, lsl r0
    34d8:	6a1b2301 	bvs	6cc0e4 <__bss_end__+0x6c1a0c>
    34dc:	01000001 	tsteq	r0, r1
    34e0:	015f1b55 	cmpeq	pc, r5, asr fp	; <UNPREDICTABLE>
    34e4:	54010000 	strpl	r0, [r1], #-0
    34e8:	0001561c 	andeq	r5, r1, ip, lsl r6
    34ec:	4b1b0100 	blmi	6c38f4 <__bss_end__+0x6b921c>
    34f0:	01000001 	tsteq	r0, r1
    34f4:	01111956 	tsteq	r1, r6, asr r9
    34f8:	98080000 	stmdals	r8, {}	; <UNPREDICTABLE>
    34fc:	00100000 	andseq	r0, r0, r0
    3500:	1a020000 	bne	83508 <__bss_end__+0x78e30>
    3504:	0000070b 	andeq	r0, r0, fp, lsl #14
    3508:	0001281b 	andeq	r2, r1, fp, lsl r8
    350c:	1b550100 	blne	1543914 <__bss_end__+0x153923c>
    3510:	0000011d 	andeq	r0, r0, sp, lsl r1
    3514:	081d5401 	ldmdaeq	sp, {r0, sl, ip, lr}
    3518:	04000098 	streq	r0, [r0], #-152	; 0x98
    351c:	1e000000 	cdpne	0, 0, cr0, cr0, cr0, {0}
    3520:	00000132 	andeq	r0, r0, r2, lsr r1
    3524:	0000262a 	andeq	r2, r0, sl, lsr #12
    3528:	081f0000 	ldmdaeq	pc, {}	; <UNPREDICTABLE>
    352c:	59000098 	stmdbpl	r0, {r3, r4, r7}
    3530:	20000011 	andcs	r0, r0, r1, lsl r0
    3534:	31015101 	tstcc	r1, r1, lsl #2
    3538:	02500120 	subseq	r0, r0, #32, 2
    353c:	00000076 	andeq	r0, r0, r6, ror r0
    3540:	d9040600 	stmdble	r4, {r9, sl}
    3544:	22000000 	andcs	r0, r0, #0
    3548:	000008c9 	andeq	r0, r0, r9, asr #17
    354c:	00252701 	eoreq	r2, r5, r1, lsl #14
    3550:	62030000 	andvs	r0, r3, #0
    3554:	0f000007 	svceq	0x00000007
    3558:	01007872 	tsteq	r0, r2, ror r8
    355c:	00002527 	andeq	r2, r0, r7, lsr #10
    3560:	00760f00 	rsbseq	r0, r6, r0, lsl #30
    3564:	00252701 	eoreq	r2, r5, r1, lsl #14
    3568:	560e0000 	strpl	r0, [lr], -r0
    356c:	01000008 	tsteq	r0, r8
    3570:	00002c27 	andeq	r2, r0, r7, lsr #24
    3574:	04d51100 	ldrbeq	r1, [r5], #256	; 0x100
    3578:	28010000 	stmdacs	r1, {}	; <UNPREDICTABLE>
    357c:	0000002c 	andeq	r0, r0, ip, lsr #32
    3580:	07f72300 	ldrbeq	r2, [r7, r0, lsl #6]!
    3584:	34010000 	strcc	r0, [r1], #-0
    3588:	00000025 	andeq	r0, r0, r5, lsr #32
    358c:	0000981c 	andeq	r9, r0, ip, lsl r8
    3590:	000001c8 	andeq	r0, r0, r8, asr #3
    3594:	0b1e9c01 	bleq	7aa5a0 <__bss_end__+0x79fec8>
    3598:	88130000 	ldmdahi	r3, {}	; <UNPREDICTABLE>
    359c:	01000004 	tsteq	r0, r4
    35a0:	00072234 	andeq	r2, r7, r4, lsr r2
    35a4:	00263d00 	eoreq	r3, r6, r0, lsl #26
    35a8:	08561300 	ldmdaeq	r6, {r8, r9, ip}^
    35ac:	34010000 	strcc	r0, [r1], #-0
    35b0:	00000025 	andeq	r0, r0, r5, lsr #32
    35b4:	00002682 	andeq	r2, r0, r2, lsl #13
    35b8:	00787215 	rsbseq	r7, r8, r5, lsl r2
    35bc:	00253501 	eoreq	r3, r5, r1, lsl #10
    35c0:	55010000 	strpl	r0, [r1, #-0]
    35c4:	01007316 	tsteq	r0, r6, lsl r3
    35c8:	00002c3c 	andeq	r2, r0, ip, lsr ip
    35cc:	0026a000 	eoreq	sl, r6, r0
    35d0:	00751600 	rsbseq	r1, r5, r0, lsl #12
    35d4:	00683f01 	rsbeq	r3, r8, r1, lsl #30
    35d8:	26b30000 	ldrtcs	r0, [r3], r0
    35dc:	6e160000 	cdpvs	0, 1, cr0, cr6, cr0, {0}
    35e0:	2c400100 	stfcse	f0, [r0], {-0}
    35e4:	c6000000 	strgt	r0, [r0], -r0
    35e8:	16000026 	strne	r0, [r0], -r6, lsr #32
    35ec:	41010063 	tstmi	r1, r3, rrx
    35f0:	0000002c 	andeq	r0, r0, ip, lsr #32
    35f4:	000026dd 	ldrdeq	r2, [r0], -sp
    35f8:	00072819 	andeq	r2, r7, r9, lsl r8
    35fc:	00983000 	addseq	r3, r8, r0
    3600:	00003400 	andeq	r3, r0, r0, lsl #8
    3604:	3c380100 	ldfccs	f0, [r8], #-0
    3608:	1a000008 	bne	3630 <_start-0x49d0>
    360c:	0000074b 	andeq	r0, r0, fp, asr #14
    3610:	00002707 	andeq	r2, r0, r7, lsl #14
    3614:	0007421c 	andeq	r4, r7, ip, lsl r2
    3618:	381b0000 	ldmdacc	fp, {}	; <UNPREDICTABLE>
    361c:	01000007 	tsteq	r0, r7
    3620:	98301d55 	ldmdals	r0!, {r0, r2, r4, r6, r8, sl, fp, ip}
    3624:	00340000 	eorseq	r0, r4, r0
    3628:	561e0000 	ldrpl	r0, [lr], -r0
    362c:	25000007 	strcs	r0, [r0, #-7]
    3630:	24000027 	strcs	r0, [r0], #-39	; 0x27
    3634:	00009834 	andeq	r9, r0, r4, lsr r8
    3638:	0000116f 	andeq	r1, r0, pc, ror #2
    363c:	00984025 	addseq	r4, r8, r5, lsr #32
    3640:	00117a00 	andseq	r7, r1, r0, lsl #20
    3644:	00083100 	andeq	r3, r8, r0, lsl #2
    3648:	50012000 	andpl	r2, r1, r0
    364c:	00007502 	andeq	r7, r0, r2, lsl #10
    3650:	00984c24 	addseq	r4, r8, r4, lsr #24
    3654:	00116f00 	andseq	r6, r1, r0, lsl #30
    3658:	17000000 	strne	r0, [r0, -r0]
    365c:	0000986c 	andeq	r9, r0, ip, ror #16
    3660:	00000004 	andeq	r0, r0, r4
    3664:	00000859 	andeq	r0, r0, r9, asr r8
    3668:	0001c526 	andeq	ip, r1, r6, lsr #10
    366c:	2c3c0100 	ldfcss	f0, [ip], #-0
    3670:	43000000 	movwmi	r0, #0
    3674:	00000027 	andeq	r0, r0, r7, lsr #32
    3678:	00011119 	andeq	r1, r1, r9, lsl r1
    367c:	00987800 	addseq	r7, r8, r0, lsl #16
    3680:	00001000 	andeq	r1, r0, r0
    3684:	92440100 	subls	r0, r4, #0, 2
    3688:	1a000008 	bne	36b0 <_start-0x4950>
    368c:	00000128 	andeq	r0, r0, r8, lsr #2
    3690:	00002756 	andeq	r2, r0, r6, asr r7
    3694:	00011d1a 	andeq	r1, r1, sl, lsl sp
    3698:	00277b00 	eoreq	r7, r7, r0, lsl #22
    369c:	98781d00 	ldmdals	r8!, {r8, sl, fp, ip}^
    36a0:	00040000 	andeq	r0, r4, r0
    36a4:	321e0000 	andscc	r0, lr, #0
    36a8:	8e000001 	cdphi	0, 0, cr0, cr0, cr1, {0}
    36ac:	00000027 	andeq	r0, r0, r7, lsr #32
    36b0:	01111900 	tsteq	r1, r0, lsl #18
    36b4:	98980000 	ldmls	r8, {}	; <UNPREDICTABLE>
    36b8:	00100000 	andseq	r0, r0, r0
    36bc:	48010000 	stmdami	r1, {}	; <UNPREDICTABLE>
    36c0:	000008cb 	andeq	r0, r0, fp, asr #17
    36c4:	0001281a 	andeq	r2, r1, sl, lsl r8
    36c8:	0027a100 	eoreq	sl, r7, r0, lsl #2
    36cc:	011d1a00 	tsteq	sp, r0, lsl #20
    36d0:	27b40000 	ldrcs	r0, [r4, r0]!
    36d4:	981d0000 	ldmdals	sp, {}	; <UNPREDICTABLE>
    36d8:	04000098 	streq	r0, [r0], #-152	; 0x98
    36dc:	1e000000 	cdpne	0, 0, cr0, cr0, cr0, {0}
    36e0:	00000132 	andeq	r0, r0, r2, lsr r1
    36e4:	000027c7 	andeq	r2, r0, r7, asr #15
    36e8:	11190000 	tstne	r9, r0
    36ec:	bc000001 	stclt	0, cr0, [r0], {1}
    36f0:	10000098 	mulne	r0, r8, r0
    36f4:	01000000 	mrseq	r0, (UNDEF: 0)
    36f8:	0009044b 	andeq	r0, r9, fp, asr #8
    36fc:	01281a00 	teqeq	r8, r0, lsl #20
    3700:	27da0000 	ldrbcs	r0, [sl, r0]
    3704:	1d1a0000 	ldcne	0, cr0, [sl, #-0]
    3708:	ed000001 	stc	0, cr0, [r0, #-4]
    370c:	1d000027 	stcne	0, cr0, [r0, #-156]	; 0xffffff64
    3710:	000098bc 			; <UNDEFINED> instruction: 0x000098bc
    3714:	00000004 	andeq	r0, r0, r4
    3718:	0001321e 	andeq	r3, r1, lr, lsl r2
    371c:	00280000 	eoreq	r0, r8, r0
    3720:	19000000 	stmdbne	r0, {}	; <UNPREDICTABLE>
    3724:	00000111 	andeq	r0, r0, r1, lsl r1
    3728:	000098e0 	andeq	r9, r0, r0, ror #17
    372c:	00000010 	andeq	r0, r0, r0, lsl r0
    3730:	093d4e01 	ldmdbeq	sp!, {r0, r9, sl, fp, lr}
    3734:	281a0000 	ldmdacs	sl, {}	; <UNPREDICTABLE>
    3738:	13000001 	movwne	r0, #1
    373c:	1a000028 	bne	37e4 <_start-0x481c>
    3740:	0000011d 	andeq	r0, r0, sp, lsl r1
    3744:	00002826 	andeq	r2, r0, r6, lsr #16
    3748:	0098e01d 	addseq	lr, r8, sp, lsl r0
    374c:	00000400 	andeq	r0, r0, r0, lsl #8
    3750:	01321e00 	teqeq	r2, r0, lsl #28
    3754:	28390000 	ldmdacs	r9!, {}	; <UNPREDICTABLE>
    3758:	00000000 	andeq	r0, r0, r0
    375c:	00011119 	andeq	r1, r1, r9, lsl r1
    3760:	00990400 	addseq	r0, r9, r0, lsl #8
    3764:	00001000 	andeq	r1, r0, r0
    3768:	76510100 	ldrbvc	r0, [r1], -r0, lsl #2
    376c:	1a000009 	bne	3798 <_start-0x4868>
    3770:	00000128 	andeq	r0, r0, r8, lsr #2
    3774:	0000284c 	andeq	r2, r0, ip, asr #16
    3778:	00011d1a 	andeq	r1, r1, sl, lsl sp
    377c:	00285f00 	eoreq	r5, r8, r0, lsl #30
    3780:	99041d00 	stmdbls	r4, {r8, sl, fp, ip}
    3784:	00040000 	andeq	r0, r4, r0
    3788:	321e0000 	andscc	r0, lr, #0
    378c:	72000001 	andvc	r0, r0, #1
    3790:	00000028 	andeq	r0, r0, r8, lsr #32
    3794:	01111900 	tsteq	r1, r0, lsl #18
    3798:	99280000 	stmdbls	r8!, {}	; <UNPREDICTABLE>
    379c:	00100000 	andseq	r0, r0, r0
    37a0:	54010000 	strpl	r0, [r1], #-0
    37a4:	000009af 	andeq	r0, r0, pc, lsr #19
    37a8:	0001281a 	andeq	r2, r1, sl, lsl r8
    37ac:	00288500 	eoreq	r8, r8, r0, lsl #10
    37b0:	011d1a00 	tsteq	sp, r0, lsl #20
    37b4:	28980000 	ldmcs	r8, {}	; <UNPREDICTABLE>
    37b8:	281d0000 	ldmdacs	sp, {}	; <UNPREDICTABLE>
    37bc:	04000099 	streq	r0, [r0], #-153	; 0x99
    37c0:	1e000000 	cdpne	0, 0, cr0, cr0, cr0, {0}
    37c4:	00000132 	andeq	r0, r0, r2, lsr r1
    37c8:	000028ab 	andeq	r2, r0, fp, lsr #17
    37cc:	11190000 	tstne	r9, r0
    37d0:	4c000001 	stcmi	0, cr0, [r0], {1}
    37d4:	10000099 	mulne	r0, r9, r0
    37d8:	01000000 	mrseq	r0, (UNDEF: 0)
    37dc:	0009e857 	andeq	lr, r9, r7, asr r8
    37e0:	01281a00 	teqeq	r8, r0, lsl #20
    37e4:	28be0000 	ldmcs	lr!, {}	; <UNPREDICTABLE>
    37e8:	1d1a0000 	ldcne	0, cr0, [sl, #-0]
    37ec:	d1000001 	tstle	r0, r1
    37f0:	1d000028 	stcne	0, cr0, [r0, #-160]	; 0xffffff60
    37f4:	0000994c 	andeq	r9, r0, ip, asr #18
    37f8:	00000004 	andeq	r0, r0, r4
    37fc:	0001321e 	andeq	r3, r1, lr, lsl r2
    3800:	0028e400 	eoreq	lr, r8, r0, lsl #8
    3804:	19000000 	stmdbne	r0, {}	; <UNPREDICTABLE>
    3808:	00000111 	andeq	r0, r0, r1, lsl r1
    380c:	00009970 	andeq	r9, r0, r0, ror r9
    3810:	00000010 	andeq	r0, r0, r0, lsl r0
    3814:	0a1d5a01 	beq	75a020 <__bss_end__+0x74f948>
    3818:	281a0000 	ldmdacs	sl, {}	; <UNPREDICTABLE>
    381c:	f7000001 			; <UNDEFINED> instruction: 0xf7000001
    3820:	27000028 	strcs	r0, [r0, -r8, lsr #32]
    3824:	0000011d 	andeq	r0, r0, sp, lsl r1
    3828:	0099701d 	addseq	r7, r9, sp, lsl r0
    382c:	00000400 	andeq	r0, r0, r0, lsl #8
    3830:	01321e00 	teqeq	r2, r0, lsl #28
    3834:	290a0000 	stmdbcs	sl, {}	; <UNPREDICTABLE>
    3838:	00000000 	andeq	r0, r0, r0
    383c:	00072819 	andeq	r2, r7, r9, lsl r8
    3840:	00999000 	addseq	r9, r9, r0
    3844:	00003400 	andeq	r3, r0, r0, lsl #8
    3848:	81610100 	cmnhi	r1, r0, lsl #2
    384c:	2700000a 	strcs	r0, [r0, -sl]
    3850:	0000074b 	andeq	r0, r0, fp, asr #14
    3854:	0007421a 	andeq	r4, r7, sl, lsl r2
    3858:	00291d00 	eoreq	r1, r9, r0, lsl #26
    385c:	07381a00 	ldreq	r1, [r8, -r0, lsl #20]!
    3860:	293d0000 	ldmdbcs	sp!, {}	; <UNPREDICTABLE>
    3864:	901d0000 	andsls	r0, sp, r0
    3868:	34000099 	strcc	r0, [r0], #-153	; 0x99
    386c:	1e000000 	cdpne	0, 0, cr0, cr0, cr0, {0}
    3870:	00000756 	andeq	r0, r0, r6, asr r7
    3874:	0000295b 	andeq	r2, r0, fp, asr r9
    3878:	00999424 	addseq	r9, r9, r4, lsr #8
    387c:	00116f00 	andseq	r6, r1, r0, lsl #30
    3880:	99a02500 	stmibls	r0!, {r8, sl, sp}
    3884:	117a0000 	cmnne	sl, r0
    3888:	0a760000 	beq	1d83890 <__bss_end__+0x1d791b8>
    388c:	01200000 	teqeq	r0, r0
    3890:	00750250 	rsbseq	r0, r5, r0, asr r2
    3894:	99ac2400 	stmibls	ip!, {sl, sp}
    3898:	116f0000 	cmnne	pc, r0
    389c:	00000000 	andeq	r0, r0, r0
    38a0:	00989425 	addseq	r9, r8, r5, lsr #8
    38a4:	00117a00 	andseq	r7, r1, r0, lsl #20
    38a8:	000a9500 	andeq	r9, sl, r0, lsl #10
    38ac:	50012000 	andpl	r2, r1, r0
    38b0:	00007502 	andeq	r7, r0, r2, lsl #10
    38b4:	0098b425 	addseq	fp, r8, r5, lsr #8
    38b8:	00117a00 	andseq	r7, r1, r0, lsl #20
    38bc:	000aa900 	andeq	sl, sl, r0, lsl #18
    38c0:	50012000 	andpl	r2, r1, r0
    38c4:	00007502 	andeq	r7, r0, r2, lsl #10
    38c8:	0098d825 	addseq	sp, r8, r5, lsr #16
    38cc:	00117a00 	andseq	r7, r1, r0, lsl #20
    38d0:	000abd00 	andeq	fp, sl, r0, lsl #26
    38d4:	50012000 	andpl	r2, r1, r0
    38d8:	00007502 	andeq	r7, r0, r2, lsl #10
    38dc:	0098fc25 	addseq	pc, r8, r5, lsr #24
    38e0:	00117a00 	andseq	r7, r1, r0, lsl #20
    38e4:	000ad100 	andeq	sp, sl, r0, lsl #2
    38e8:	50012000 	andpl	r2, r1, r0
    38ec:	00007502 	andeq	r7, r0, r2, lsl #10
    38f0:	00992025 	addseq	r2, r9, r5, lsr #32
    38f4:	00117a00 	andseq	r7, r1, r0, lsl #20
    38f8:	000ae500 	andeq	lr, sl, r0, lsl #10
    38fc:	50012000 	andpl	r2, r1, r0
    3900:	00007502 	andeq	r7, r0, r2, lsl #10
    3904:	00994425 	addseq	r4, r9, r5, lsr #8
    3908:	00117a00 	andseq	r7, r1, r0, lsl #20
    390c:	000af900 	andeq	pc, sl, r0, lsl #18
    3910:	50012000 	andpl	r2, r1, r0
    3914:	00007502 	andeq	r7, r0, r2, lsl #10
    3918:	00996825 	addseq	r6, r9, r5, lsr #16
    391c:	00117a00 	andseq	r7, r1, r0, lsl #20
    3920:	000b0d00 	andeq	r0, fp, r0, lsl #26
    3924:	50012000 	andpl	r2, r1, r0
    3928:	00007502 	andeq	r7, r0, r2, lsl #10
    392c:	0099881f 	addseq	r8, r9, pc, lsl r8
    3930:	00117a00 	andseq	r7, r1, r0, lsl #20
    3934:	50012000 	andpl	r2, r1, r0
    3938:	00007502 	andeq	r7, r0, r2, lsl #10
    393c:	080c2300 	stmdaeq	ip, {r8, r9, sp}
    3940:	6c010000 	stcvs	0, cr0, [r1], {-0}
    3944:	00000025 	andeq	r0, r0, r5, lsr #32
    3948:	000099e4 	andeq	r9, r0, r4, ror #19
    394c:	000000a4 	andeq	r0, r0, r4, lsr #1
    3950:	0c0c9c01 	stceq	12, cr9, [ip], {1}
    3954:	75140000 	ldrvc	r0, [r4, #-0]
    3958:	226c0100 	rsbcs	r0, ip, #0, 2
    395c:	79000007 	stmdbvc	r0, {r0, r1, r2}
    3960:	14000029 	strne	r0, [r0], #-41	; 0x29
    3964:	00667562 	rsbeq	r7, r6, r2, ror #10
    3968:	0c0c6c01 	stceq	12, cr6, [ip], {1}
    396c:	29bb0000 	ldmibcs	fp!, {}	; <UNPREDICTABLE>
    3970:	9e130000 	cdpls	0, 1, cr0, cr3, cr0, {0}
    3974:	01000008 	tsteq	r0, r8
    3978:	0000686c 	andeq	r6, r0, ip, ror #16
    397c:	0029fd00 	eoreq	pc, r9, r0, lsl #26
    3980:	6e651400 	cdpvs	4, 6, cr1, cr5, cr0, {0}
    3984:	6c010064 	stcvs	0, cr0, [r1], {100}	; 0x64
    3988:	0000004f 	andeq	r0, r0, pc, asr #32
    398c:	00002a44 	andeq	r2, r0, r4, asr #20
    3990:	0008a528 	andeq	sl, r8, r8, lsr #10
    3994:	686c0100 	stmdavs	ip!, {r8}^
    3998:	02000000 	andeq	r0, r0, #0
    399c:	4c290091 	stcmi	0, cr0, [r9], #-580	; 0xfffffdbc
    39a0:	22000001 	andcs	r0, r0, #1
    39a4:	0500000c 	streq	r0, [r0, #-12]
    39a8:	00a1b403 	adceq	fp, r1, r3, lsl #8
    39ac:	00691600 	rsbeq	r1, r9, r0, lsl #12
    39b0:	00257001 	eoreq	r7, r5, r1
    39b4:	2a7e0000 	bcs	1f839bc <__bss_end__+0x1f792e4>
    39b8:	81260000 	teqhi	r6, r0
    39bc:	01000008 	tsteq	r0, r8
    39c0:	00004f71 	andeq	r4, r0, r1, ror pc
    39c4:	002aa800 	eoreq	sl, sl, r0, lsl #16
    39c8:	9a082400 	bls	20c9d0 <__bss_end__+0x2022f8>
    39cc:	118f0000 	orrne	r0, pc, r0
    39d0:	24250000 	strtcs	r0, [r5], #-0
    39d4:	9600009a 			; <UNDEFINED> instruction: 0x9600009a
    39d8:	ec000011 	stc	0, cr0, [r0], {17}
    39dc:	2000000b 	andcs	r0, r0, fp
    39e0:	08025301 	stmdaeq	r2, {r0, r8, r9, ip, lr}
    39e4:	5201206d 	andpl	r2, r1, #109	; 0x6d
    39e8:	a1b40305 			; <UNDEFINED> instruction: 0xa1b40305
    39ec:	01200000 	teqeq	r0, r0
    39f0:	2c030551 	cfstr32cs	mvfx0, [r3], {81}	; 0x51
    39f4:	200000a2 	andcs	r0, r0, r2, lsr #1
    39f8:	03055001 	movweq	r5, #20481	; 0x5001
    39fc:	0000a0b4 	strheq	sl, [r0], -r4
    3a00:	007d0220 	rsbseq	r0, sp, r0, lsr #4
    3a04:	a2400305 	subge	r0, r0, #335544320	; 0x14000000
    3a08:	24000000 	strcs	r0, [r0], #-0
    3a0c:	00009a28 	andeq	r9, r0, r8, lsr #20
    3a10:	000011ac 	andeq	r1, r0, ip, lsr #3
    3a14:	009a441f 	addseq	r4, sl, pc, lsl r4
    3a18:	00076200 	andeq	r6, r7, r0, lsl #4
    3a1c:	51012000 	mrspl	r2, (UNDEF: 1)
    3a20:	20007a02 	andcs	r7, r0, r2, lsl #20
    3a24:	78025001 	stmdavc	r2, {r0, ip, lr}
    3a28:	06000000 	streq	r0, [r0], -r0
    3a2c:	00004f04 	andeq	r4, r0, r4, lsl #30
    3a30:	00902a00 	addseq	r2, r0, r0, lsl #20
    3a34:	0c220000 	stceq	0, cr0, [r2], #-0
    3a38:	812b0000 	teqhi	fp, r0
    3a3c:	12000000 	andne	r0, r0, #0
    3a40:	0c120700 	ldceq	7, cr0, [r2], {-0}
    3a44:	89230000 	stmdbhi	r3!, {}	; <UNPREDICTABLE>
    3a48:	01000008 	tsteq	r0, r8
    3a4c:	00002580 	andeq	r2, r0, r0, lsl #11
    3a50:	009a8800 	addseq	r8, sl, r0, lsl #16
    3a54:	00009000 	andeq	r9, r0, r0
    3a58:	f89c0100 			; <UNDEFINED> instruction: 0xf89c0100
    3a5c:	1400000c 	strne	r0, [r0], #-12
    3a60:	80010075 	andhi	r0, r1, r5, ror r0
    3a64:	00000722 	andeq	r0, r0, r2, lsr #14
    3a68:	00002abb 			; <UNDEFINED> instruction: 0x00002abb
    3a6c:	66756214 			; <UNDEFINED> instruction: 0x66756214
    3a70:	0c800100 	stfeqs	f0, [r0], {0}
    3a74:	fd00000c 	stc2	0, cr0, [r0, #-48]	; 0xffffffd0
    3a78:	1300002a 	movwne	r0, #42	; 0x2a
    3a7c:	0000089e 	muleq	r0, lr, r8
    3a80:	00688101 	rsbeq	r8, r8, r1, lsl #2
    3a84:	2b3f0000 	blcs	fc3a8c <__bss_end__+0xfb93b4>
    3a88:	a5130000 	ldrge	r0, [r3, #-0]
    3a8c:	01000008 	tsteq	r0, r8
    3a90:	00006881 	andeq	r6, r0, r1, lsl #17
    3a94:	002b8600 	eoreq	r8, fp, r0, lsl #12
    3a98:	014c2900 	cmpeq	ip, r0, lsl #18
    3a9c:	0d080000 	stceq	0, cr0, [r8, #-0]
    3aa0:	03050000 	movweq	r0, #20480	; 0x5000
    3aa4:	0000a1c8 	andeq	sl, r0, r8, asr #3
    3aa8:	01006916 	tsteq	r0, r6, lsl r9
    3aac:	00002586 	andeq	r2, r0, r6, lsl #11
    3ab0:	002bc800 	eoreq	ip, fp, r0, lsl #16
    3ab4:	9aa82400 	bls	fea0cabc <__bss_end__+0xfea023e4>
    3ab8:	118f0000 	orrne	r0, pc, r0
    3abc:	c4250000 	strtgt	r0, [r5], #-0
    3ac0:	9600009a 			; <UNDEFINED> instruction: 0x9600009a
    3ac4:	d8000011 	stmdale	r0, {r0, r4}
    3ac8:	2000000c 	andcs	r0, r0, ip
    3acc:	08025301 	stmdaeq	r2, {r0, r8, r9, ip, lr}
    3ad0:	52012083 	andpl	r2, r1, #131	; 0x83
    3ad4:	a1c80305 	bicge	r0, r8, r5, lsl #6
    3ad8:	01200000 	teqeq	r0, r0
    3adc:	2c030551 	cfstr32cs	mvfx0, [r3], {81}	; 0x51
    3ae0:	200000a2 	andcs	r0, r0, r2, lsr #1
    3ae4:	03055001 	movweq	r5, #20481	; 0x5001
    3ae8:	0000a0b4 	strheq	sl, [r0], -r4
    3aec:	007d0220 	rsbseq	r0, sp, r0, lsr #4
    3af0:	a2400305 	subge	r0, r0, #335544320	; 0x14000000
    3af4:	24000000 	strcs	r0, [r0], #-0
    3af8:	00009ac8 	andeq	r9, r0, r8, asr #21
    3afc:	000011ac 	andeq	r1, r0, ip, lsr #3
    3b00:	009ae41f 	addseq	lr, sl, pc, lsl r4
    3b04:	00076200 	andeq	r6, r7, r0, lsl #4
    3b08:	51012000 	mrspl	r2, (UNDEF: 1)
    3b0c:	20007802 	andcs	r7, r0, r2, lsl #16
    3b10:	77025001 	strvc	r5, [r2, -r1]
    3b14:	2a000000 	bcs	3b1c <_start-0x44e4>
    3b18:	00000090 	muleq	r0, r0, r0
    3b1c:	00000d08 	andeq	r0, r0, r8, lsl #26
    3b20:	0000812b 	andeq	r8, r0, fp, lsr #2
    3b24:	07001400 	streq	r1, [r0, -r0, lsl #8]
    3b28:	00000cf8 	strdeq	r0, [r0], -r8
    3b2c:	00084223 	andeq	r4, r8, r3, lsr #4
    3b30:	d9930100 	ldmible	r3, {r8}
    3b34:	18000000 	stmdane	r0, {}	; <UNPREDICTABLE>
    3b38:	d400009b 	strle	r0, [r0], #-155	; 0x9b
    3b3c:	01000000 	mrseq	r0, (UNDEF: 0)
    3b40:	000e329c 	muleq	lr, ip, r2
    3b44:	78741400 	ldmdavc	r4!, {sl, ip}^
    3b48:	4f930100 	svcmi	0x00930100
    3b4c:	f2000000 	vhadd.s8	d0, d0, d0
    3b50:	1400002b 	strne	r0, [r0], #-43	; 0x2b
    3b54:	01007872 	tsteq	r0, r2, ror r8
    3b58:	00004f93 	muleq	r0, r3, pc	; <UNPREDICTABLE>
    3b5c:	002c1300 	eoreq	r1, ip, r0, lsl #6
    3b60:	04c11300 	strbeq	r1, [r1], #768	; 0x300
    3b64:	93010000 	movwls	r0, #4096	; 0x1000
    3b68:	00000068 	andeq	r0, r0, r8, rrx
    3b6c:	00002c34 	andeq	r2, r0, r4, lsr ip
    3b70:	0007db28 	andeq	sp, r7, r8, lsr #22
    3b74:	68930100 	ldmvs	r3, {r8}
    3b78:	02000000 	andeq	r0, r0, #0
    3b7c:	6d2c0091 	stcvs	0, cr0, [ip, #-580]!	; 0xfffffdbc
    3b80:	01007a68 	tsteq	r0, r8, ror #20
    3b84:	00002c9b 	muleq	r0, fp, ip
    3b88:	b9270000 	stmdblt	r7!, {}	; <UNPREDICTABLE>
    3b8c:	082c2629 	stmdaeq	ip!, {r0, r3, r5, r9, sl, sp}
    3b90:	9c010000 	stcls	0, cr0, [r1], {-0}
    3b94:	0000002c 	andeq	r0, r0, ip, lsr #32
    3b98:	00002c5e 	andeq	r2, r0, lr, asr ip
    3b9c:	00014c29 	andeq	r4, r1, r9, lsr #24
    3ba0:	000e4200 	andeq	r4, lr, r0, lsl #4
    3ba4:	e0030500 	and	r0, r3, r0, lsl #10
    3ba8:	170000a1 	strne	r0, [r0, -r1, lsr #1]
    3bac:	00009b44 	andeq	r9, r0, r4, asr #22
    3bb0:	00000008 	andeq	r0, r0, r8
    3bb4:	00000da5 	andeq	r0, r0, r5, lsr #27
    3bb8:	006e692d 	rsbeq	r6, lr, sp, lsr #18
    3bbc:	002c9701 	eoreq	r9, ip, r1, lsl #14
    3bc0:	00010000 	andeq	r0, r1, r0
    3bc4:	009b3c25 	addseq	r3, fp, r5, lsr #24
    3bc8:	0011b300 	andseq	fp, r1, r0, lsl #6
    3bcc:	000db900 	andeq	fp, sp, r0, lsl #18
    3bd0:	50012000 	andpl	r2, r1, r0
    3bd4:	00007602 	andeq	r7, r0, r2, lsl #12
    3bd8:	009b4425 	addseq	r4, fp, r5, lsr #8
    3bdc:	0011c400 	andseq	ip, r1, r0, lsl #8
    3be0:	000dcd00 	andeq	ip, sp, r0, lsl #26
    3be4:	50012000 	andpl	r2, r1, r0
    3be8:	00007802 	andeq	r7, r0, r2, lsl #16
    3bec:	009b5825 	addseq	r5, fp, r5, lsr #16
    3bf0:	00115900 	andseq	r5, r1, r0, lsl #18
    3bf4:	000de600 	andeq	lr, sp, r0, lsl #12
    3bf8:	51012000 	mrspl	r2, (UNDEF: 1)
    3bfc:	01203101 	teqeq	r0, r1, lsl #2
    3c00:	00760250 	rsbseq	r0, r6, r0, asr r2
    3c04:	9b9c2400 	blls	fe70cc0c <__bss_end__+0xfe702534>
    3c08:	118f0000 	orrne	r0, pc, r0
    3c0c:	b8250000 	stmdalt	r5!, {}	; <UNPREDICTABLE>
    3c10:	9600009b 			; <UNDEFINED> instruction: 0x9600009b
    3c14:	28000011 	stmdacs	r0, {r0, r4}
    3c18:	2000000e 	andcs	r0, r0, lr
    3c1c:	08025301 	stmdaeq	r2, {r0, r8, r9, ip, lr}
    3c20:	5201209d 	andpl	r2, r1, #157	; 0x9d
    3c24:	a1e00305 	mvnge	r0, r5, lsl #6
    3c28:	01200000 	teqeq	r0, r0
    3c2c:	2c030551 	cfstr32cs	mvfx0, [r3], {81}	; 0x51
    3c30:	200000a2 	andcs	r0, r0, r2, lsr #1
    3c34:	03055001 	movweq	r5, #20481	; 0x5001
    3c38:	0000a0b4 	strheq	sl, [r0], -r4
    3c3c:	007d0220 	rsbseq	r0, sp, r0, lsr #4
    3c40:	a24c0305 	subge	r0, ip, #335544320	; 0x14000000
    3c44:	24000000 	strcs	r0, [r0], #-0
    3c48:	00009bbc 			; <UNDEFINED> instruction: 0x00009bbc
    3c4c:	000011ac 	andeq	r1, r0, ip, lsr #3
    3c50:	00902a00 	addseq	r2, r0, r0, lsl #20
    3c54:	0e420000 	cdpeq	0, 4, cr0, cr2, cr0, {0}
    3c58:	812b0000 	teqhi	fp, r0
    3c5c:	13000000 	movwne	r0, #0
    3c60:	0e320700 	cdpeq	7, 3, cr0, cr2, cr0, {0}
    3c64:	1f230000 	svcne	0x00230000
    3c68:	01000008 	tsteq	r0, r8
    3c6c:	000025a9 	andeq	r2, r0, r9, lsr #11
    3c70:	009bec00 	addseq	lr, fp, r0, lsl #24
    3c74:	00003c00 	andeq	r3, r0, r0, lsl #24
    3c78:	ea9c0100 	b	fe704080 <__bss_end__+0xfe6f99a8>
    3c7c:	1300000e 	movwne	r0, #14
    3c80:	00000488 	andeq	r0, r0, r8, lsl #9
    3c84:	0722a901 	streq	sl, [r2, -r1, lsl #18]!
    3c88:	2c8c0000 	stccs	0, cr0, [ip], {0}
    3c8c:	72160000 	andsvc	r0, r6, #0
    3c90:	01007365 	tsteq	r0, r5, ror #6
    3c94:	000025aa 	andeq	r2, r0, sl, lsr #11
    3c98:	002cad00 	eoreq	sl, ip, r0, lsl #26
    3c9c:	014c2900 	cmpeq	ip, r0, lsl #18
    3ca0:	0efa0000 	cdpeq	0, 15, cr0, cr10, cr0, {0}
    3ca4:	03050000 	movweq	r0, #20480	; 0x5000
    3ca8:	0000a1f4 	strdeq	sl, [r0], -r4
    3cac:	009bf825 	addseq	pc, fp, r5, lsr #16
    3cb0:	00076200 	andeq	r6, r7, r0, lsl #4
    3cb4:	000ea800 	andeq	sl, lr, r0, lsl #16
    3cb8:	51012000 	mrspl	r2, (UNDEF: 1)
    3cbc:	20ff0902 	rscscs	r0, pc, r2, lsl #18
    3cc0:	f3035001 	vhadd.u8	d5, d3, d1
    3cc4:	24005001 	strcs	r5, [r0], #-1
    3cc8:	00009c04 	andeq	r9, r0, r4, lsl #24
    3ccc:	0000118f 	andeq	r1, r0, pc, lsl #3
    3cd0:	009c1825 	addseq	r1, ip, r5, lsr #16
    3cd4:	00119600 	andseq	r9, r1, r0, lsl #12
    3cd8:	000ee000 	andeq	lr, lr, r0
    3cdc:	53012000 	movwpl	r2, #4096	; 0x1000
    3ce0:	20ac0802 	adccs	r0, ip, r2, lsl #16
    3ce4:	03055201 	movweq	r5, #20993	; 0x5201
    3ce8:	0000a1f4 	strdeq	sl, [r0], -r4
    3cec:	05510120 	ldrbeq	r0, [r1, #-288]	; 0x120
    3cf0:	00a22c03 	adceq	r2, r2, r3, lsl #24
    3cf4:	50012000 	andpl	r2, r1, r0
    3cf8:	a2800305 	addge	r0, r0, #335544320	; 0x14000000
    3cfc:	24000000 	strcs	r0, [r0], #-0
    3d00:	00009c1c 	andeq	r9, r0, ip, lsl ip
    3d04:	000011ac 	andeq	r1, r0, ip, lsr #3
    3d08:	00902a00 	addseq	r2, r0, r0, lsl #20
    3d0c:	0efa0000 	cdpeq	0, 15, cr0, cr10, cr0, {0}
    3d10:	812b0000 	teqhi	fp, r0
    3d14:	0c000000 	stceq	0, cr0, [r0], {-0}
    3d18:	0eea0700 	cdpeq	7, 14, cr0, cr10, cr0, {0}
    3d1c:	63120000 	tstvs	r2, #0
    3d20:	01000008 	tsteq	r0, r8
    3d24:	009c28b0 			; <UNDEFINED> instruction: 0x009c28b0
    3d28:	00002c00 	andeq	r2, r0, r0, lsl #24
    3d2c:	439c0100 	orrsmi	r0, ip, #0, 2
    3d30:	1300000f 	movwne	r0, #15
    3d34:	00000488 	andeq	r0, r0, r8, lsl #9
    3d38:	0722b001 	streq	fp, [r2, -r1]!
    3d3c:	2cc00000 	stclcs	0, cr0, [r0], {0}
    3d40:	6d140000 	ldcvs	0, cr0, [r4, #-0]
    3d44:	01006773 	tsteq	r0, r3, ror r7
    3d48:	000097b0 			; <UNDEFINED> instruction: 0x000097b0
    3d4c:	002cde00 	eoreq	sp, ip, r0, lsl #28
    3d50:	9c401f00 	mcrrls	15, 0, r1, r0, cr0
    3d54:	01760000 	cmneq	r6, r0
    3d58:	01200000 	teqeq	r0, r0
    3d5c:	00750250 	rsbseq	r0, r5, r0, asr r2
    3d60:	8d230000 	stchi	0, cr0, [r3, #-0]
    3d64:	01000004 	tsteq	r0, r4
    3d68:	000025b9 			; <UNDEFINED> instruction: 0x000025b9
    3d6c:	009c5400 	addseq	r5, ip, r0, lsl #8
    3d70:	00009000 	andeq	r9, r0, r0
    3d74:	419c0100 	orrsmi	r0, ip, r0, lsl #2
    3d78:	13000010 	movwne	r0, #16
    3d7c:	00000488 	andeq	r0, r0, r8, lsl #9
    3d80:	0722b901 	streq	fp, [r2, -r1, lsl #18]!
    3d84:	2cfc0000 	ldclcs	0, cr0, [ip]
    3d88:	662e0000 	strtvs	r0, [lr], -r0
    3d8c:	0100746d 	tsteq	r0, sp, ror #8
    3d90:	000097b9 			; <UNDEFINED> instruction: 0x000097b9
    3d94:	74910200 	ldrvc	r0, [r1], #512	; 0x200
    3d98:	7562152f 	strbvc	r1, [r2, #-1327]!	; 0x52f
    3d9c:	ba010066 	blt	43f3c <__bss_end__+0x39864>
    3da0:	00001041 	andeq	r1, r0, r1, asr #32
    3da4:	7c9c9103 	ldfvcd	f1, [ip], {3}
    3da8:	00034618 	andeq	r4, r3, r8, lsl r6
    3dac:	06bc0100 	ldrteq	r0, [ip], r0, lsl #2
    3db0:	03000001 	movweq	r0, #1
    3db4:	167c9891 			; <UNDEFINED> instruction: 0x167c9891
    3db8:	01007a73 	tsteq	r0, r3, ror sl
    3dbc:	000025be 			; <UNDEFINED> instruction: 0x000025be
    3dc0:	002d2800 	eoreq	r2, sp, r0, lsl #16
    3dc4:	014c2900 	cmpeq	ip, r0, lsl #18
    3dc8:	10620000 	rsbne	r0, r2, r0
    3dcc:	03050000 	movweq	r0, #20480	; 0x5000
    3dd0:	0000a204 	andeq	sl, r0, r4, lsl #4
    3dd4:	009c7c25 	addseq	r7, ip, r5, lsr #24
    3dd8:	0011d500 	andseq	sp, r1, r0, lsl #10
    3ddc:	000fde00 	andeq	sp, pc, r0, lsl #28
    3de0:	53012000 	movwpl	r2, #4096	; 0x1000
    3de4:	20589102 	subscs	r9, r8, r2, lsl #2
    3de8:	91035201 	tstls	r3, r1, lsl #4
    3dec:	01200654 	teqeq	r0, r4, asr r6
    3df0:	cc0a0351 	stcgt	3, cr0, [sl], {81}	; 0x51
    3df4:	50012001 	andpl	r2, r1, r1
    3df8:	7bfc9103 	blvc	fff2820c <__bss_end__+0xfff1db34>
    3dfc:	9c902400 	cfldrsls	mvf2, [r0], {0}
    3e00:	118f0000 	orrne	r0, pc, r0
    3e04:	ac250000 	stcge	0, cr0, [r5], #-0
    3e08:	9600009c 			; <UNDEFINED> instruction: 0x9600009c
    3e0c:	20000011 	andcs	r0, r0, r1, lsl r0
    3e10:	20000010 	andcs	r0, r0, r0, lsl r0
    3e14:	08025301 	stmdaeq	r2, {r0, r8, r9, ip, lr}
    3e18:	520120c0 	andpl	r2, r1, #192	; 0xc0
    3e1c:	a2040305 	andge	r0, r4, #335544320	; 0x14000000
    3e20:	01200000 	teqeq	r0, r0
    3e24:	2c030551 	cfstr32cs	mvfx0, [r3], {81}	; 0x51
    3e28:	200000a2 	andcs	r0, r0, r2, lsr #1
    3e2c:	03055001 	movweq	r5, #20481	; 0x5001
    3e30:	0000a0b4 	strheq	sl, [r0], -r4
    3e34:	007d0220 	rsbseq	r0, sp, r0, lsr #4
    3e38:	a2b80305 	adcsge	r0, r8, #335544320	; 0x14000000
    3e3c:	24000000 	strcs	r0, [r0], #-0
    3e40:	00009cb0 			; <UNDEFINED> instruction: 0x00009cb0
    3e44:	000011ac 	andeq	r1, r0, ip, lsr #3
    3e48:	009cbc1f 	addseq	fp, ip, pc, lsl ip
    3e4c:	000eff00 	andeq	pc, lr, r0, lsl #30
    3e50:	51012000 	mrspl	r2, (UNDEF: 1)
    3e54:	7bfc9103 	blvc	fff28268 <__bss_end__+0xfff1db90>
    3e58:	02500120 	subseq	r0, r0, #32, 2
    3e5c:	00000075 	andeq	r0, r0, r5, ror r0
    3e60:	0000902a 	andeq	r9, r0, sl, lsr #32
    3e64:	00105200 	andseq	r5, r0, r0, lsl #4
    3e68:	00813000 	addeq	r3, r1, r0
    3e6c:	01cb0000 	biceq	r0, fp, r0
    3e70:	00902a00 	addseq	r2, r0, r0, lsl #20
    3e74:	10620000 	rsbne	r0, r2, r0
    3e78:	812b0000 	teqhi	fp, r0
    3e7c:	0e000000 	cdpeq	0, 0, cr0, cr0, cr0, {0}
    3e80:	10520700 	subsne	r0, r2, r0, lsl #14
    3e84:	b2230000 	eorlt	r0, r3, #0
    3e88:	01000008 	tsteq	r0, r8
    3e8c:	000025c5 	andeq	r2, r0, r5, asr #11
    3e90:	009ce400 	addseq	lr, ip, r0, lsl #8
    3e94:	00004c00 	andeq	r4, r0, r0, lsl #24
    3e98:	449c0100 	ldrmi	r0, [ip], #256	; 0x100
    3e9c:	14000011 	strne	r0, [r0], #-17
    3ea0:	c5010075 	strgt	r0, [r1, #-117]	; 0x75
    3ea4:	00000722 	andeq	r0, r0, r2, lsr #14
    3ea8:	00002d67 	andeq	r2, r0, r7, ror #26
    3eac:	66756214 			; <UNDEFINED> instruction: 0x66756214
    3eb0:	0cc50100 	stfeqe	f0, [r5], {0}
    3eb4:	8800000c 	stmdahi	r0, {r2, r3}
    3eb8:	1300002d 	movwne	r0, #45	; 0x2d
    3ebc:	0000089e 	muleq	r0, lr, r8
    3ec0:	0068c501 	rsbeq	ip, r8, r1, lsl #10
    3ec4:	2da90000 	stccs	0, cr0, [r9]
    3ec8:	65140000 	ldrvs	r0, [r4, #-0]
    3ecc:	0100646e 	tsteq	r0, lr, ror #8
    3ed0:	00004fc5 	andeq	r4, r0, r5, asr #31
    3ed4:	002dca00 	eoreq	ip, sp, r0, lsl #20
    3ed8:	65721600 	ldrbvs	r1, [r2, #-1536]!	; 0x600
    3edc:	c6010073 			; <UNDEFINED> instruction: 0xc6010073
    3ee0:	00000025 	andeq	r0, r0, r5, lsr #32
    3ee4:	00002deb 	andeq	r2, r0, fp, ror #27
    3ee8:	00014c29 	andeq	r4, r1, r9, lsr #24
    3eec:	00115400 	andseq	r5, r1, r0, lsl #8
    3ef0:	14030500 	strne	r0, [r3], #-1280	; 0x500
    3ef4:	250000a2 	strcs	r0, [r0, #-162]	; 0xa2
    3ef8:	00009cf8 	strdeq	r9, [r0], -r8
    3efc:	00000b1e 	andeq	r0, r0, lr, lsl fp
    3f00:	00001102 	andeq	r1, r0, r2, lsl #2
    3f04:	03520120 	cmpeq	r2, #32, 2
    3f08:	205201f3 	ldrshcs	r0, [r2], #-19	; 0xffffffed
    3f0c:	f3035101 	vrhadd.u8	d5, d3, d1
    3f10:	01205101 	teqeq	r0, r1, lsl #2
    3f14:	01f30350 	mvnseq	r0, r0, asr r3
    3f18:	7d022050 	stcvc	0, cr2, [r2, #-320]	; 0xfffffec0
    3f1c:	ff090200 			; <UNDEFINED> instruction: 0xff090200
    3f20:	9d042400 	cfstrsls	mvf2, [r4, #-0]
    3f24:	118f0000 	orrne	r0, pc, r0
    3f28:	18250000 	stmdane	r5!, {}	; <UNPREDICTABLE>
    3f2c:	9600009d 			; <UNDEFINED> instruction: 0x9600009d
    3f30:	3a000011 	bcc	3f7c <_start-0x4084>
    3f34:	20000011 	andcs	r0, r0, r1, lsl r0
    3f38:	08025301 	stmdaeq	r2, {r0, r8, r9, ip, lr}
    3f3c:	520120c8 	andpl	r2, r1, #200	; 0xc8
    3f40:	a2140305 	andsge	r0, r4, #335544320	; 0x14000000
    3f44:	01200000 	teqeq	r0, r0
    3f48:	2c030551 	cfstr32cs	mvfx0, [r3], {81}	; 0x51
    3f4c:	200000a2 	andcs	r0, r0, r2, lsr #1
    3f50:	03055001 	movweq	r5, #20481	; 0x5001
    3f54:	0000a280 	andeq	sl, r0, r0, lsl #5
    3f58:	9d1c2400 	cfldrsls	mvf2, [ip, #-0]
    3f5c:	11ac0000 			; <UNDEFINED> instruction: 0x11ac0000
    3f60:	2a000000 	bcs	3f68 <_start-0x4098>
    3f64:	00000090 	muleq	r0, r0, r0
    3f68:	00001154 	andeq	r1, r0, r4, asr r1
    3f6c:	0000812b 	andeq	r8, r0, fp, lsr #2
    3f70:	07001600 	streq	r1, [r0, -r0, lsl #12]
    3f74:	00001144 	andeq	r1, r0, r4, asr #2
    3f78:	00019131 	andeq	r9, r1, r1, lsr r1
    3f7c:	6f210600 	svcvs	0x00210600
    3f80:	32000011 	andcc	r0, r0, #17
    3f84:	0000002c 	andeq	r0, r0, ip, lsr #32
    3f88:	00002c32 	andeq	r2, r0, r2, lsr ip
    3f8c:	c2330000 	eorsgt	r0, r3, #0
    3f90:	07000005 	streq	r0, [r0, -r5]
    3f94:	00002c57 	andeq	r2, r0, r7, asr ip
    3f98:	069c3400 	ldreq	r3, [ip], r0, lsl #8
    3f9c:	24060000 	strcs	r0, [r6], #-0
    3fa0:	00000025 	andeq	r0, r0, r5, lsr #32
    3fa4:	0000118f 	andeq	r1, r0, pc, lsl #3
    3fa8:	00002c32 	andeq	r2, r0, r2, lsr ip
    3fac:	44350000 	ldrtmi	r0, [r5], #-0
    3fb0:	07000002 	streq	r0, [r0, -r2]
    3fb4:	02f1341e 	rscseq	r3, r1, #503316480	; 0x1e000000
    3fb8:	29070000 	stmdbcs	r7, {}	; <UNPREDICTABLE>
    3fbc:	00000025 	andeq	r0, r0, r5, lsr #32
    3fc0:	000011ac 	andeq	r1, r0, ip, lsr #3
    3fc4:	00009732 	andeq	r9, r0, r2, lsr r7
    3fc8:	35002f00 	strcc	r2, [r0, #-3840]	; 0xf00
    3fcc:	000000cc 	andeq	r0, r0, ip, asr #1
    3fd0:	1f316607 	svcne	0x00316607
    3fd4:	06000001 	streq	r0, [r0], -r1
    3fd8:	0011c41d 	andseq	ip, r1, sp, lsl r4
    3fdc:	002c3200 	eoreq	r3, ip, r0, lsl #4
    3fe0:	31000000 	mrscc	r0, (UNDEF: 0)
    3fe4:	000000fa 	strdeq	r0, [r0], -sl
    3fe8:	11d51c06 	bicsne	r1, r5, r6, lsl #24
    3fec:	2c320000 	ldccs	0, cr0, [r2], #-0
    3ff0:	00000000 	andeq	r0, r0, r0
    3ff4:	0002ee36 	andeq	lr, r2, r6, lsr lr
    3ff8:	25020800 	strcs	r0, [r2, #-2048]	; 0x800
    3ffc:	32000000 	andcc	r0, r0, #0
    4000:	0000008a 	andeq	r0, r0, sl, lsl #1
    4004:	00002532 	andeq	r2, r0, r2, lsr r5
    4008:	00973200 	addseq	r3, r7, r0, lsl #4
    400c:	06320000 	ldrteq	r0, [r2], -r0
    4010:	00000001 	andeq	r0, r0, r1
    4014:	0003ff00 	andeq	pc, r3, r0, lsl #30
    4018:	50000400 	andpl	r0, r0, r0, lsl #8
    401c:	04000010 	streq	r0, [r0], #-16
    4020:	00029701 	andeq	r9, r2, r1, lsl #14
    4024:	09aa0100 	stmibeq	sl!, {r8}
    4028:	03020000 	movweq	r0, #8192	; 0x2000
    402c:	9d300000 	ldcls	0, cr0, [r0, #-0]
    4030:	01540000 	cmpeq	r4, r0
    4034:	10140000 	andsne	r0, r4, r0
    4038:	04020000 	streq	r0, [r2], #-0
    403c:	746e6905 	strbtvc	r6, [lr], #-2309	; 0x905
    4040:	07040300 	streq	r0, [r4, -r0, lsl #6]
    4044:	00000172 	andeq	r0, r0, r2, ror r1
    4048:	b7060103 	strlt	r0, [r6, -r3, lsl #2]
    404c:	03000000 	movweq	r0, #0
    4050:	01420502 	cmpeq	r2, r2, lsl #10
    4054:	04030000 	streq	r0, [r3], #-0
    4058:	0001aa05 	andeq	sl, r1, r5, lsl #20
    405c:	05080300 	streq	r0, [r8, #-768]	; 0x300
    4060:	000001a5 	andeq	r0, r0, r5, lsr #3
    4064:	b5080103 	strlt	r0, [r8, #-259]	; 0x103
    4068:	03000000 	movweq	r0, #0
    406c:	00e70702 	rsceq	r0, r7, r2, lsl #14
    4070:	04030000 	streq	r0, [r3], #-0
    4074:	00016d07 	andeq	r6, r1, r7, lsl #26
    4078:	07080300 	streq	r0, [r8, -r0, lsl #6]
    407c:	00000168 	andeq	r0, r0, r8, ror #2
    4080:	9c070403 	cfstrsls	mvf0, [r7], {3}
    4084:	03000001 	movweq	r0, #1
    4088:	00be0801 	adcseq	r0, lr, r1, lsl #16
    408c:	01040000 	mrseq	r0, (UNDEF: 4)
    4090:	00b20c02 	adcseq	r0, r2, r2, lsl #24
    4094:	57050000 	strpl	r0, [r5, -r0]
    4098:	00000006 	andeq	r0, r0, r6
    409c:	00073d05 	andeq	r3, r7, r5, lsl #26
    40a0:	76050100 	strvc	r0, [r5], -r0, lsl #2
    40a4:	04000007 	streq	r0, [r0], #-7
    40a8:	00078505 	andeq	r8, r7, r5, lsl #10
    40ac:	94050500 	strls	r0, [r5], #-1280	; 0x500
    40b0:	06000007 	streq	r0, [r0], -r7
    40b4:	0007a305 	andeq	sl, r7, r5, lsl #6
    40b8:	b2050700 	andlt	r0, r5, #0, 14
    40bc:	03000007 	movweq	r0, #7
    40c0:	0007c105 	andeq	ip, r7, r5, lsl #2
    40c4:	06000200 	streq	r0, [r0], -r0, lsl #4
    40c8:	0000076a 	andeq	r0, r0, sl, ror #14
    40cc:	00791502 	rsbseq	r1, r9, r2, lsl #10
    40d0:	31070000 	mrscc	r0, (UNDEF: 7)
    40d4:	01000009 	tsteq	r0, r9
    40d8:	009d3037 	addseq	r3, sp, r7, lsr r0
    40dc:	00009c00 	andeq	r9, r0, r0, lsl #24
    40e0:	c39c0100 	orrsgt	r0, ip, #0, 2
    40e4:	08000001 	stmdaeq	r0, {r0}
    40e8:	00009d38 	andeq	r9, r0, r8, lsr sp
    40ec:	000003a8 	andeq	r0, r0, r8, lsr #7
    40f0:	009d4409 	addseq	r4, sp, r9, lsl #8
    40f4:	0003af00 	andeq	sl, r3, r0, lsl #30
    40f8:	0000f300 	andeq	pc, r0, r0, lsl #6
    40fc:	51010a00 	tstpl	r1, r0, lsl #20
    4100:	010a3201 	tsteq	sl, r1, lsl #4
    4104:	003e0150 	eorseq	r0, lr, r0, asr r1
    4108:	009d5009 	addseq	r5, sp, r9
    410c:	0003af00 	andeq	sl, r3, r0, lsl #30
    4110:	00010b00 	andeq	r0, r1, r0, lsl #22
    4114:	51010a00 	tstpl	r1, r0, lsl #20
    4118:	010a3201 	tsteq	sl, r1, lsl #4
    411c:	003f0150 	eorseq	r0, pc, r0, asr r1	; <UNPREDICTABLE>
    4120:	009d5408 	addseq	r5, sp, r8, lsl #8
    4124:	0003a800 	andeq	sl, r3, r0, lsl #16
    4128:	9d640900 	stclls	9, cr0, [r4, #-0]
    412c:	03c50000 	biceq	r0, r5, #0
    4130:	01280000 	teqeq	r8, r0
    4134:	010a0000 	mrseq	r0, (UNDEF: 10)
    4138:	00750250 	rsbseq	r0, r5, r0, asr r2
    413c:	9d700900 	ldclls	9, cr0, [r0, #-0]
    4140:	03e60000 	mvneq	r0, #0
    4144:	013c0000 	teqeq	ip, r0
    4148:	010a0000 	mrseq	r0, (UNDEF: 10)
    414c:	00750250 	rsbseq	r0, r5, r0, asr r2
    4150:	9d740800 	ldclls	8, cr0, [r4, #-0]
    4154:	03a80000 			; <UNDEFINED> instruction: 0x03a80000
    4158:	80090000 	andhi	r0, r9, r0
    415c:	e600009d 			; <UNDEFINED> instruction: 0xe600009d
    4160:	58000003 	stmdapl	r0, {r0, r1}
    4164:	0a000001 	beq	4170 <_start-0x3e90>
    4168:	30015101 	andcc	r5, r1, r1, lsl #2
    416c:	9d8c0900 	stcls	9, cr0, [ip]
    4170:	03e60000 	mvneq	r0, #0
    4174:	016b0000 	cmneq	fp, r0
    4178:	010a0000 	mrseq	r0, (UNDEF: 10)
    417c:	00300151 	eorseq	r0, r0, r1, asr r1
    4180:	009d9809 	addseq	r9, sp, r9, lsl #16
    4184:	0003e600 	andeq	lr, r3, r0, lsl #12
    4188:	00017e00 	andeq	r7, r1, r0, lsl #28
    418c:	51010a00 	tstpl	r1, r0, lsl #20
    4190:	09003601 	stmdbeq	r0, {r0, r9, sl, ip, sp}
    4194:	00009da4 	andeq	r9, r0, r4, lsr #27
    4198:	000003e6 	andeq	r0, r0, r6, ror #7
    419c:	00000191 	muleq	r0, r1, r1
    41a0:	0151010a 	cmpeq	r1, sl, lsl #2
    41a4:	b0090033 	andlt	r0, r9, r3, lsr r0
    41a8:	e600009d 			; <UNDEFINED> instruction: 0xe600009d
    41ac:	a6000003 	strge	r0, [r0], -r3
    41b0:	0a000001 	beq	41bc <_start-0x3e44>
    41b4:	0a035101 	beq	d85c0 <__bss_end__+0xcdee8>
    41b8:	0900010e 	stmdbeq	r0, {r1, r2, r3, r8}
    41bc:	00009dbc 			; <UNDEFINED> instruction: 0x00009dbc
    41c0:	000003e6 	andeq	r0, r0, r6, ror #7
    41c4:	000001b9 			; <UNDEFINED> instruction: 0x000001b9
    41c8:	0151010a 	cmpeq	r1, sl, lsl #2
    41cc:	c0080033 	andgt	r0, r8, r3, lsr r0
    41d0:	a800009d 	stmdage	r0, {r0, r2, r3, r4, r7}
    41d4:	00000003 	andeq	r0, r0, r3
    41d8:	0009050b 	andeq	r0, r9, fp, lsl #10
    41dc:	25570100 	ldrbcs	r0, [r7, #-256]	; 0x100
    41e0:	cc000000 	stcgt	0, cr0, [r0], {-0}
    41e4:	1c00009d 	stcne	0, cr0, [r0], {157}	; 0x9d
    41e8:	01000000 	mrseq	r0, (UNDEF: 0)
    41ec:	0001e69c 	muleq	r1, ip, r6
    41f0:	9ddc0800 	ldclls	8, cr0, [ip]
    41f4:	03c50000 	biceq	r0, r5, #0
    41f8:	0b000000 	bleq	4200 <_start-0x3e00>
    41fc:	00000822 	andeq	r0, r0, r2, lsr #16
    4200:	00255d01 	eoreq	r5, r5, r1, lsl #26
    4204:	9de80000 	stclls	0, cr0, [r8]
    4208:	00280000 	eoreq	r0, r8, r0
    420c:	9c010000 	stcls	0, cr0, [r1], {-0}
    4210:	00000212 	andeq	r0, r0, r2, lsl r2
    4214:	009df008 	addseq	pc, sp, r8
    4218:	0001c300 	andeq	ip, r1, r0, lsl #6
    421c:	9e040800 	cdpls	8, 0, cr0, cr4, cr0, {0}
    4220:	03c50000 	biceq	r0, r5, #0
    4224:	0b000000 	bleq	422c <_start-0x3dd4>
    4228:	00000959 	andeq	r0, r0, r9, asr r9
    422c:	00256401 	eoreq	r6, r5, r1, lsl #8
    4230:	9e100000 	cdpls	0, 1, cr0, cr0, cr0, {0}
    4234:	001c0000 	andseq	r0, ip, r0
    4238:	9c010000 	stcls	0, cr0, [r1], {-0}
    423c:	00000235 	andeq	r0, r0, r5, lsr r2
    4240:	009e2008 	addseq	r2, lr, r8
    4244:	0003c500 	andeq	ip, r3, r0, lsl #10
    4248:	e9070000 	stmdb	r7, {}	; <UNPREDICTABLE>
    424c:	01000004 	tsteq	r0, r4
    4250:	009e2c6a 	addseq	r2, lr, sl, ror #24
    4254:	00002c00 	andeq	r2, r0, r0, lsl #24
    4258:	719c0100 	orrsvc	r0, ip, r0, lsl #2
    425c:	0c000002 	stceq	0, cr0, [r0], {2}
    4260:	6a010063 	bvs	443f4 <__bss_end__+0x39d1c>
    4264:	0000002c 	andeq	r0, r0, ip, lsr #32
    4268:	00002e09 	andeq	r2, r0, r9, lsl #28
    426c:	009e3808 	addseq	r3, lr, r8, lsl #16
    4270:	00021200 	andeq	r1, r2, r0, lsl #4
    4274:	9e500d00 	cdpls	13, 5, cr0, cr0, cr0, {0}
    4278:	03e60000 	mvneq	r0, #0
    427c:	010a0000 	mrseq	r0, (UNDEF: 10)
    4280:	00740251 	rsbseq	r0, r4, r1, asr r2
    4284:	230b0000 	movwcs	r0, #45056	; 0xb000
    4288:	01000009 	tsteq	r0, r9
    428c:	00002574 	andeq	r2, r0, r4, ror r5
    4290:	009e5800 	addseq	r5, lr, r0, lsl #16
    4294:	00000c00 	andeq	r0, r0, r0, lsl #24
    4298:	949c0100 	ldrls	r0, [ip], #256	; 0x100
    429c:	08000002 	stmdaeq	r0, {r1}
    42a0:	00009e60 	andeq	r9, r0, r0, ror #28
    42a4:	000001c3 	andeq	r0, r0, r3, asr #3
    42a8:	09d60b00 	ldmibeq	r6, {r8, r9, fp}^
    42ac:	78010000 	stmdavc	r1, {}	; <UNPREDICTABLE>
    42b0:	00000025 	andeq	r0, r0, r5, lsr #32
    42b4:	00009e64 	andeq	r9, r0, r4, ror #28
    42b8:	00000020 	andeq	r0, r0, r0, lsr #32
    42bc:	02c09c01 	sbceq	r9, r0, #256	; 0x100
    42c0:	6c080000 	stcvs	0, cr0, [r8], {-0}
    42c4:	7100009e 	swpvc	r0, lr, [r0]	; <UNPREDICTABLE>
    42c8:	08000002 	stmdaeq	r0, {r1}
    42cc:	00009e78 	andeq	r9, r0, r8, ror lr
    42d0:	000001e6 	andeq	r0, r0, r6, ror #3
    42d4:	09730e00 	ldmdbeq	r3!, {r9, sl, fp}^
    42d8:	16010000 	strne	r0, [r1], -r0
    42dc:	000002d1 	ldrdeq	r0, [r0], -r1
    42e0:	9ff00305 	svcls	0x00f00305
    42e4:	040f0000 	streq	r0, [pc], #-0	; 42ec <_start-0x3d14>
    42e8:	000002d7 	ldrdeq	r0, [r0], -r7
    42ec:	00002c10 	andeq	r2, r0, r0, lsl ip
    42f0:	09670e00 	stmdbeq	r7!, {r9, sl, fp}^
    42f4:	17010000 	strne	r0, [r1, -r0]
    42f8:	000002d1 	ldrdeq	r0, [r0], -r1
    42fc:	9fc00305 	svcls	0x00c00305
    4300:	e80e0000 	stmda	lr, {}	; <UNPREDICTABLE>
    4304:	01000008 	tsteq	r0, r8
    4308:	0002d11a 	andeq	sp, r2, sl, lsl r1
    430c:	dc030500 	cfstr32le	mvfx0, [r3], {-0}
    4310:	0e00009f 	mcreq	0, 0, r0, cr0, cr15, {4}
    4314:	0000093b 	andeq	r0, r0, fp, lsr r9
    4318:	02d11b01 	sbcseq	r1, r1, #1024	; 0x400
    431c:	03050000 	movweq	r0, #20480	; 0x5000
    4320:	00009fc8 	andeq	r9, r0, r8, asr #31
    4324:	00094a0e 	andeq	r4, r9, lr, lsl #20
    4328:	d11c0100 	tstle	ip, r0, lsl #2
    432c:	05000002 	streq	r0, [r0, #-2]
    4330:	009fcc03 	addseq	ip, pc, r3, lsl #24
    4334:	09b80e00 	ldmibeq	r8!, {r9, sl, fp}
    4338:	1d010000 	stcne	0, cr0, [r1, #-0]
    433c:	000002d1 	ldrdeq	r0, [r0], -r1
    4340:	9fd00305 	svcls	0x00d00305
    4344:	d90e0000 	stmdble	lr, {}	; <UNPREDICTABLE>
    4348:	01000008 	tsteq	r0, r8
    434c:	0002d11e 	andeq	sp, r2, lr, lsl r1
    4350:	ec030500 	cfstr32	mvfx0, [r3], {-0}
    4354:	0e00009f 	mcreq	0, 0, r0, cr0, cr15, {4}
    4358:	000009c7 	andeq	r0, r0, r7, asr #19
    435c:	02d11f01 	sbcseq	r1, r1, #1, 30
    4360:	03050000 	movweq	r0, #20480	; 0x5000
    4364:	00009fd8 	ldrdeq	r9, [r0], -r8
    4368:	0008f60e 	andeq	pc, r8, lr, lsl #12
    436c:	d1200100 	teqle	r0, r0, lsl #2
    4370:	05000002 	streq	r0, [r0, #-2]
    4374:	009fe803 	addseq	lr, pc, r3, lsl #16
    4378:	099b0e00 	ldmibeq	fp, {r9, sl, fp}
    437c:	21010000 	mrscs	r0, (UNDEF: 1)
    4380:	000002d1 	ldrdeq	r0, [r0], -r1
    4384:	9fe40305 	svcls	0x00e40305
    4388:	130e0000 	movwne	r0, #57344	; 0xe000
    438c:	01000009 	tsteq	r0, r9
    4390:	0002d122 	andeq	sp, r2, r2, lsr #2
    4394:	c4030500 	strgt	r0, [r3], #-1280	; 0x500
    4398:	0e00009f 	mcreq	0, 0, r0, cr0, cr15, {4}
    439c:	0000098b 	andeq	r0, r0, fp, lsl #19
    43a0:	02d12301 	sbcseq	r2, r1, #67108864	; 0x4000000
    43a4:	03050000 	movweq	r0, #20480	; 0x5000
    43a8:	00009fe0 	andeq	r9, r0, r0, ror #31
    43ac:	00097b0e 	andeq	r7, r9, lr, lsl #22
    43b0:	d1240100 	teqle	r4, r0, lsl #2
    43b4:	05000002 	streq	r0, [r0, #-2]
    43b8:	009fd403 	addseq	sp, pc, r3, lsl #8
    43bc:	06901100 	ldreq	r1, [r0], r0, lsl #2
    43c0:	8a030000 	bhi	c43c8 <__bss_end__+0xb9cf0>
    43c4:	0006bb12 	andeq	fp, r6, r2, lsl fp
    43c8:	c5190200 	ldrgt	r0, [r9, #-512]	; 0x200
    43cc:	13000003 	movwne	r0, #3
    43d0:	0000002c 	andeq	r0, r0, ip, lsr #32
    43d4:	0000b213 	andeq	fp, r0, r3, lsl r2
    43d8:	4e140000 	cdpmi	0, 1, cr0, cr4, cr0, {0}
    43dc:	03000007 	movweq	r0, #7
    43e0:	00002ca9 	andeq	r2, r0, r9, lsr #25
    43e4:	0003da00 	andeq	sp, r3, r0, lsl #20
    43e8:	03da1300 	bicseq	r1, sl, #0, 6
    43ec:	0f000000 	svceq	0x00000000
    43f0:	0003e004 	andeq	lr, r3, r4
    43f4:	03e51500 	mvneq	r1, #0, 10
    43f8:	12160000 	andsne	r0, r6, #0
    43fc:	00000637 	andeq	r0, r0, r7, lsr r6
    4400:	03fc9d03 	mvnseq	r9, #3, 26	; 0xc0
    4404:	fc130000 	ldc2	0, cr0, [r3], {-0}
    4408:	13000003 	movwne	r0, #3
    440c:	0000002c 	andeq	r0, r0, ip, lsr #32
    4410:	e5040f00 	str	r0, [r4, #-3840]	; 0xf00
    4414:	00000003 	andeq	r0, r0, r3
    4418:	000001c3 	andeq	r0, r0, r3, asr #3
    441c:	117e0004 	cmnne	lr, r4
    4420:	01040000 	mrseq	r0, (UNDEF: 4)
    4424:	00000297 	muleq	r0, r7, r2
    4428:	0009fb01 	andeq	pc, r9, r1, lsl #22
    442c:	00030200 	andeq	r0, r3, r0, lsl #4
    4430:	009ee800 	addseq	lr, lr, r0, lsl #16
    4434:	00005000 	andeq	r5, r0, r0
    4438:	00111900 	andseq	r1, r1, r0, lsl #18
    443c:	05040200 	streq	r0, [r4, #-512]	; 0x200
    4440:	00746e69 	rsbseq	r6, r4, r9, ror #28
    4444:	0009e603 	andeq	lr, r9, r3, lsl #12
    4448:	37d40200 	ldrbcc	r0, [r4, r0, lsl #4]
    444c:	04000000 	streq	r0, [r0], #-0
    4450:	01720704 	cmneq	r2, r4, lsl #14
    4454:	01040000 	mrseq	r0, (UNDEF: 4)
    4458:	0000b706 	andeq	fp, r0, r6, lsl #14
    445c:	05020400 	streq	r0, [r2, #-1024]	; 0x400
    4460:	00000142 	andeq	r0, r0, r2, asr #2
    4464:	aa050404 	bge	14547c <__bss_end__+0x13ada4>
    4468:	04000001 	streq	r0, [r0], #-1
    446c:	01a50508 			; <UNDEFINED> instruction: 0x01a50508
    4470:	7f030000 	svcvc	0x00030000
    4474:	03000001 	movweq	r0, #1
    4478:	0000652e 	andeq	r6, r0, lr, lsr #10
    447c:	08010400 	stmdaeq	r1, {sl}
    4480:	000000b5 	strheq	r0, [r0], -r5
    4484:	e7070204 	str	r0, [r7, -r4, lsl #4]
    4488:	03000000 	movweq	r0, #0
    448c:	00000542 	andeq	r0, r0, r2, asr #10
    4490:	007e3403 	rsbseq	r3, lr, r3, lsl #8
    4494:	04040000 	streq	r0, [r4], #-0
    4498:	00016d07 	andeq	r6, r1, r7, lsl #26
    449c:	07080400 	streq	r0, [r8, -r0, lsl #8]
    44a0:	00000168 	andeq	r0, r0, r8, ror #2
    44a4:	9c070404 	cfstrsls	mvf0, [r7], {4}
    44a8:	05000001 	streq	r0, [r0, #-1]
    44ac:	08010404 	stmdaeq	r1, {r2, sl}
    44b0:	000000be 	strheq	r0, [r0], -lr
    44b4:	0e040c06 	cdpeq	12, 0, cr0, cr4, cr6, {0}
    44b8:	000000d3 	ldrdeq	r0, [r0], -r3
    44bc:	00787407 	rsbseq	r7, r8, r7, lsl #8
    44c0:	005a0f04 	subseq	r0, sl, r4, lsl #30
    44c4:	07000000 	streq	r0, [r0, -r0]
    44c8:	04007872 	streq	r7, [r0], #-2162	; 0x872
    44cc:	00005a0f 	andeq	r5, r0, pc, lsl #20
    44d0:	c1080100 	mrsgt	r0, (UNDEF: 24)
    44d4:	04000004 	streq	r0, [r0], #-4
    44d8:	00007310 	andeq	r7, r0, r0, lsl r3
    44dc:	72080400 	andvc	r0, r8, #0, 8
    44e0:	04000004 	streq	r0, [r0], #-4
    44e4:	00007311 	andeq	r7, r0, r1, lsl r3
    44e8:	03000800 	movweq	r0, #2048	; 0x800
    44ec:	000004aa 	andeq	r0, r0, sl, lsr #9
    44f0:	009c1204 	addseq	r1, ip, r4, lsl #4
    44f4:	01090000 	mrseq	r0, (UNDEF: 9)
    44f8:	00f91005 	rscseq	r1, r9, r5
    44fc:	c60a0000 	strgt	r0, [sl], -r0
    4500:	01000004 	tsteq	r0, r4
    4504:	0004b40a 	andeq	fp, r4, sl, lsl #8
    4508:	9c0a0200 	sfmls	f0, 4, [sl], {-0}
    450c:	03000004 	movweq	r0, #4
    4510:	04db0300 	ldrbeq	r0, [fp], #768	; 0x300
    4514:	10050000 	andne	r0, r5, r0
    4518:	000000de 	ldrdeq	r0, [r0], -lr
    451c:	14051406 	strne	r1, [r5], #-1030	; 0x406
    4520:	00000131 	andeq	r0, r0, r1, lsr r1
    4524:	00054b08 	andeq	r4, r5, r8, lsl #22
    4528:	37150500 	ldrcc	r0, [r5, -r0, lsl #10]
    452c:	00000000 	andeq	r0, r0, r0
    4530:	00053608 	andeq	r3, r5, r8, lsl #12
    4534:	f9180500 			; <UNDEFINED> instruction: 0xf9180500
    4538:	04000000 	streq	r0, [r0], #-0
    453c:	00050108 	andeq	r0, r5, r8, lsl #2
    4540:	d31b0500 	tstle	fp, #0, 10
    4544:	08000000 	stmdaeq	r0, {}	; <UNPREDICTABLE>
    4548:	04f30300 	ldrbteq	r0, [r3], #768	; 0x300
    454c:	20050000 	andcs	r0, r5, r0
    4550:	00000104 	andeq	r0, r0, r4, lsl #2
    4554:	0009f40b 	andeq	pc, r9, fp, lsl #8
    4558:	7e050100 	adfvcs	f0, f5, f0
    455c:	e8000001 	stmda	r0, {r0}
    4560:	2800009e 	stmdacs	r0, {r1, r2, r3, r4, r7}
    4564:	01000000 	mrseq	r0, (UNDEF: 0)
    4568:	00017e9c 	muleq	r1, ip, lr
    456c:	00630c00 	rsbeq	r0, r3, r0, lsl #24
    4570:	017e0601 	cmneq	lr, r1, lsl #12
    4574:	00000000 	andeq	r0, r0, r0
    4578:	fc0d0900 	stc2	9, cr0, [sp], {-0}
    457c:	ab00009e 	blge	47fc <_start-0x3804>
    4580:	0e000001 	cdpeq	0, 0, cr0, cr0, cr1, {0}
    4584:	34015201 	strcc	r5, [r1], #-513	; 0x201
    4588:	0151010e 	cmpeq	r1, lr, lsl #2
    458c:	50010e30 	andpl	r0, r1, r0, lsr lr
    4590:	24474203 	strbcs	r4, [r7], #-515	; 0x203
    4594:	040f0000 	streq	r0, [pc], #-0	; 459c <_start-0x3a64>
    4598:	00000131 	andeq	r0, r0, r1, lsr r1
    459c:	0005090b 	andeq	r0, r5, fp, lsl #18
    45a0:	7e0c0100 	adfvce	f0, f4, f0
    45a4:	10000001 	andne	r0, r0, r1
    45a8:	2800009f 	stmdacs	r0, {r0, r1, r2, r3, r4, r7}
    45ac:	01000000 	mrseq	r0, (UNDEF: 0)
    45b0:	0001ab9c 	muleq	r1, ip, fp
    45b4:	00630c00 	rsbeq	r0, r3, r0, lsl #24
    45b8:	017e0d01 	cmneq	lr, r1, lsl #26
    45bc:	00000000 	andeq	r0, r0, r0
    45c0:	10000900 	andne	r0, r0, r0, lsl #18
    45c4:	000009ed 	andeq	r0, r0, sp, ror #19
    45c8:	00931b06 	addseq	r1, r3, r6, lsl #22
    45cc:	93110000 	tstls	r1, #0
    45d0:	11000000 	mrsne	r0, (UNDEF: 0)
    45d4:	00000025 	andeq	r0, r0, r5, lsr #32
    45d8:	00002c11 	andeq	r2, r0, r1, lsl ip
    45dc:	db000000 	blle	45e4 <_start-0x3a1c>
    45e0:	04000000 	streq	r0, [r0], #-0
    45e4:	00126200 	andseq	r6, r2, r0, lsl #4
    45e8:	97010400 	strls	r0, [r1, -r0, lsl #8]
    45ec:	01000002 	tsteq	r0, r2
    45f0:	00000a16 	andeq	r0, r0, r6, lsl sl
    45f4:	00000302 	andeq	r0, r0, r2, lsl #6
    45f8:	00009f38 	andeq	r9, r0, r8, lsr pc
    45fc:	00000020 	andeq	r0, r0, r0, lsr #32
    4600:	00001245 	andeq	r1, r0, r5, asr #4
    4604:	b7060102 	strlt	r0, [r6, -r2, lsl #2]
    4608:	02000000 	andeq	r0, r0, #0
    460c:	00b50801 	adcseq	r0, r5, r1, lsl #16
    4610:	02020000 	andeq	r0, r2, #0
    4614:	00014205 	andeq	r4, r1, r5, lsl #4
    4618:	07020200 	streq	r0, [r2, -r0, lsl #4]
    461c:	000000e7 	andeq	r0, r0, r7, ror #1
    4620:	69050403 	stmdbvs	r5, {r0, r1, sl}
    4624:	0200746e 	andeq	r7, r0, #1845493760	; 0x6e000000
    4628:	01720704 	cmneq	r2, r4, lsl #14
    462c:	08020000 	stmdaeq	r2, {}	; <UNPREDICTABLE>
    4630:	0001a505 	andeq	sl, r1, r5, lsl #10
    4634:	07080200 	streq	r0, [r8, -r0, lsl #4]
    4638:	00000168 	andeq	r0, r0, r8, ror #2
    463c:	aa050402 	bge	14564c <__bss_end__+0x13af74>
    4640:	02000001 	andeq	r0, r0, #1
    4644:	019c0704 	orrseq	r0, ip, r4, lsl #14
    4648:	04040000 	streq	r0, [r4], #-0
    464c:	6d070402 	cfstrsvs	mvf0, [r7, #-8]
    4650:	05000001 	streq	r0, [r0, #-1]
    4654:	00007a04 	andeq	r7, r0, r4, lsl #20
    4658:	08010200 	stmdaeq	r1, {r9}
    465c:	000000be 	strheq	r0, [r0], -lr
    4660:	0009e606 	andeq	lr, r9, r6, lsl #12
    4664:	48d40200 	ldmmi	r4, {r9}^
    4668:	07000000 	streq	r0, [r0, -r0]
    466c:	000009ed 	andeq	r0, r0, sp, ror #19
    4670:	006b1b03 	rsbeq	r1, fp, r3, lsl #22
    4674:	9f380000 	svcls	0x00380000
    4678:	00200000 	eoreq	r0, r0, r0
    467c:	9c010000 	stcls	0, cr0, [r1], {-0}
    4680:	00705f08 	rsbseq	r5, r0, r8, lsl #30
    4684:	006b0301 	rsbeq	r0, fp, r1, lsl #6
    4688:	50010000 	andpl	r0, r1, r0
    468c:	01006308 	tsteq	r0, r8, lsl #6
    4690:	00004103 	andeq	r4, r0, r3, lsl #2
    4694:	09510100 	ldmdbeq	r1, {r8}^
    4698:	0301006e 	movweq	r0, #4206	; 0x106e
    469c:	00000081 	andeq	r0, r0, r1, lsl #1
    46a0:	00002e27 	andeq	r2, r0, r7, lsr #28
    46a4:	0100700a 	tsteq	r0, sl
    46a8:	00007404 	andeq	r7, r0, r4, lsl #8
    46ac:	002e4800 	eoreq	r4, lr, r0, lsl #16
    46b0:	00650b00 	rsbeq	r0, r5, r0, lsl #22
    46b4:	00740401 	rsbseq	r0, r4, r1, lsl #8
    46b8:	52010000 	andpl	r0, r1, #0
	...

Disassembly of section .debug_abbrev:

00000000 <.debug_abbrev>:
       0:	25011101 	strcs	r1, [r1, #-257]	; 0x101
       4:	030b130e 	movweq	r1, #45838	; 0xb30e
       8:	110e1b0e 	tstne	lr, lr, lsl #22
       c:	10061201 	andne	r1, r6, r1, lsl #4
      10:	02000017 	andeq	r0, r0, #23
      14:	0b0b0024 	bleq	2c00ac <__bss_end__+0x2b59d4>
      18:	08030b3e 	stmdaeq	r3, {r1, r2, r3, r4, r5, r8, r9, fp}
      1c:	24030000 	strcs	r0, [r3], #-0
      20:	3e0b0b00 	vmlacc.f64	d0, d11, d0
      24:	000e030b 	andeq	r0, lr, fp, lsl #6
      28:	00160400 	andseq	r0, r6, r0, lsl #8
      2c:	0b3a0e03 	bleq	e83840 <__bss_end__+0xe79168>
      30:	13490b3b 	movtne	r0, #39739	; 0x9b3b
      34:	0f050000 	svceq	0x00050000
      38:	490b0b00 	stmdbmi	fp, {r8, r9, fp}
      3c:	06000013 			; <UNDEFINED> instruction: 0x06000013
      40:	13490026 	movtne	r0, #36902	; 0x9026
      44:	2e070000 	cdpcs	0, 0, cr0, cr7, cr0, {0}
      48:	3a0e0301 	bcc	380c54 <__bss_end__+0x37657c>
      4c:	270b3b0b 	strcs	r3, [fp, -fp, lsl #22]
      50:	010b2019 	tsteq	fp, r9, lsl r0
      54:	08000013 	stmdaeq	r0, {r0, r1, r4}
      58:	08030005 	stmdaeq	r3, {r0, r2}
      5c:	0b3b0b3a 	bleq	ec2d4c <__bss_end__+0xeb8674>
      60:	00001349 	andeq	r1, r0, r9, asr #6
      64:	3f012e09 	svccc	0x00012e09
      68:	3a0e0319 	bcc	380cd4 <__bss_end__+0x3765fc>
      6c:	270b3b0b 	strcs	r3, [fp, -fp, lsl #22]
      70:	20134919 	andscs	r4, r3, r9, lsl r9
      74:	0013010b 	andseq	r0, r3, fp, lsl #2
      78:	00340a00 	eorseq	r0, r4, r0, lsl #20
      7c:	0b3a0e03 	bleq	e83890 <__bss_end__+0xe791b8>
      80:	13490b3b 	movtne	r0, #39739	; 0x9b3b
      84:	340b0000 	strcc	r0, [fp], #-0
      88:	3a080300 	bcc	200c90 <__bss_end__+0x1f65b8>
      8c:	490b3b0b 	stmdbmi	fp, {r0, r1, r3, r8, r9, fp, ip, sp}
      90:	0c000013 	stceq	0, cr0, [r0], {19}
      94:	1301010b 	movwne	r0, #4363	; 0x110b
      98:	0b0d0000 	bleq	3400a0 <__bss_end__+0x3359c8>
      9c:	0e000001 	cdpeq	0, 0, cr0, cr0, cr1, {0}
      a0:	193f012e 	ldmdbne	pc!, {r1, r2, r3, r5, r8}	; <UNPREDICTABLE>
      a4:	0b3a0e03 	bleq	e838b8 <__bss_end__+0xe791e0>
      a8:	19270b3b 	stmdbne	r7!, {r0, r1, r3, r4, r5, r8, r9, fp}
      ac:	13010b20 	movwne	r0, #6944	; 0x1b20
      b0:	050f0000 	streq	r0, [pc, #-0]	; b8 <_start-0x7f48>
      b4:	3a0e0300 	bcc	380cbc <__bss_end__+0x3765e4>
      b8:	490b3b0b 	stmdbmi	fp, {r0, r1, r3, r8, r9, fp, ip, sp}
      bc:	10000013 	andne	r0, r0, r3, lsl r0
      c0:	1331012e 	teqne	r1, #-2147483637	; 0x8000000b
      c4:	06120111 			; <UNDEFINED> instruction: 0x06120111
      c8:	42971840 	addsmi	r1, r7, #64, 16	; 0x400000
      cc:	00130119 	andseq	r0, r3, r9, lsl r1
      d0:	00341100 	eorseq	r1, r4, r0, lsl #2
      d4:	17021331 	smladxne	r2, r1, r3, r1
      d8:	34120000 	ldrcc	r0, [r2], #-0
      dc:	00133100 	andseq	r3, r3, r0, lsl #2
      e0:	00341300 	eorseq	r1, r4, r0, lsl #6
      e4:	18021331 	stmdane	r2, {r0, r4, r5, r8, r9, ip}
      e8:	05140000 	ldreq	r0, [r4, #-0]
      ec:	1c133100 	ldfnes	f3, [r3], {-0}
      f0:	1500000b 	strne	r0, [r0, #-11]
      f4:	0111010b 	tsteq	r1, fp, lsl #2
      f8:	13010612 	movwne	r0, #5650	; 0x1612
      fc:	0b160000 	bleq	580104 <__bss_end__+0x575a2c>
     100:	12011101 	andne	r1, r1, #1073741824	; 0x40000000
     104:	17000006 	strne	r0, [r0, -r6]
     108:	13310005 	teqne	r1, #5
     10c:	00001702 	andeq	r1, r0, r2, lsl #14
     110:	31003418 	tstcc	r0, r8, lsl r4
     114:	000b1c13 	andeq	r1, fp, r3, lsl ip
     118:	00051900 	andeq	r1, r5, r0, lsl #18
     11c:	051c1331 	ldreq	r1, [ip, #-817]	; 0x331
     120:	1d1a0000 	ldcne	0, cr0, [sl, #-0]
     124:	52133101 	andspl	r3, r3, #1073741824	; 0x40000000
     128:	58175501 	ldmdapl	r7, {r0, r8, sl, ip, lr}
     12c:	010b590b 	tsteq	fp, fp, lsl #18
     130:	1b000013 	blne	184 <_start-0x7e7c>
     134:	1331011d 	teqne	r1, #1073741831	; 0x40000007
     138:	06120111 			; <UNDEFINED> instruction: 0x06120111
     13c:	0b590b58 	bleq	1642ea4 <__bss_end__+0x16387cc>
     140:	00001301 	andeq	r1, r0, r1, lsl #6
     144:	55010b1c 	strpl	r0, [r1, #-2844]	; 0xb1c
     148:	00130117 	andseq	r0, r3, r7, lsl r1
     14c:	011d1d00 	tsteq	sp, r0, lsl #26
     150:	01521331 	cmpeq	r2, r1, lsr r3
     154:	0b581755 	bleq	1605eb0 <__bss_end__+0x15fb7d8>
     158:	00000b59 	andeq	r0, r0, r9, asr fp
     15c:	3f012e1e 	svccc	0x00012e1e
     160:	3a0e0319 	bcc	380dcc <__bss_end__+0x3766f4>
     164:	270b3b0b 	strcs	r3, [fp, -fp, lsl #22]
     168:	11134919 	tstne	r3, r9, lsl r9
     16c:	40061201 	andmi	r1, r6, r1, lsl #4
     170:	19429718 	stmdbne	r2, {r3, r4, r8, r9, sl, ip, pc}^
     174:	00001301 	andeq	r1, r0, r1, lsl #6
     178:	0300051f 	movweq	r0, #1311	; 0x51f
     17c:	3b0b3a08 	blcc	2ce9a4 <__bss_end__+0x2c42cc>
     180:	0213490b 	andseq	r4, r3, #180224	; 0x2c000
     184:	20000017 	andcs	r0, r0, r7, lsl r0
     188:	0e030034 	mcreq	0, 0, r0, cr3, cr4, {1}
     18c:	19341349 	ldmdbne	r4!, {r0, r3, r6, r8, r9, ip}
     190:	00001802 	andeq	r1, r0, r2, lsl #16
     194:	03003421 	movweq	r3, #1057	; 0x421
     198:	3b0b3a0e 	blcc	2ce9d8 <__bss_end__+0x2c4300>
     19c:	0213490b 	andseq	r4, r3, #180224	; 0x2c000
     1a0:	22000017 	andcs	r0, r0, #23
     1a4:	01018289 	smlabbeq	r1, r9, r2, r8
     1a8:	13310111 	teqne	r1, #1073741828	; 0x40000004
     1ac:	00001301 	andeq	r1, r0, r1, lsl #6
     1b0:	01828a23 	orreq	r8, r2, r3, lsr #20
     1b4:	91180200 	tstls	r8, r0, lsl #4
     1b8:	00001842 	andeq	r1, r0, r2, asr #16
     1bc:	01828924 	orreq	r8, r2, r4, lsr #18
     1c0:	31011100 	mrscc	r1, (UNDEF: 17)
     1c4:	25000013 	strcs	r0, [r0, #-19]
     1c8:	13490101 	movtne	r0, #37121	; 0x9101
     1cc:	00001301 	andeq	r1, r0, r1, lsl #6
     1d0:	49002126 	stmdbmi	r0, {r1, r2, r5, r8, sp}
     1d4:	000b2f13 	andeq	r2, fp, r3, lsl pc
     1d8:	00052700 	andeq	r2, r5, r0, lsl #14
     1dc:	18021331 	stmdane	r2, {r0, r4, r5, r8, r9, ip}
     1e0:	2e280000 	cdpcs	0, 2, cr0, cr8, cr0, {0}
     1e4:	03193f01 	tsteq	r9, #1, 30
     1e8:	3b0b3a0e 	blcc	2cea28 <__bss_end__+0x2c4350>
     1ec:	1119270b 	tstne	r9, fp, lsl #14
     1f0:	40061201 	andmi	r1, r6, r1, lsl #4
     1f4:	19429718 	stmdbne	r2, {r3, r4, r8, r9, sl, ip, pc}^
     1f8:	00001301 	andeq	r1, r0, r1, lsl #6
     1fc:	03003429 	movweq	r3, #1065	; 0x429
     200:	3b0b3a08 	blcc	2cea28 <__bss_end__+0x2c4350>
     204:	1c13490b 	ldcne	9, cr4, [r3], {11}
     208:	2a00000b 	bcs	23c <_start-0x7dc4>
     20c:	1755010b 	ldrbne	r0, [r5, -fp, lsl #2]
     210:	892b0000 	stmdbhi	fp!, {}	; <UNPREDICTABLE>
     214:	11010182 	smlabbne	r1, r2, r1, r0
     218:	00133101 	andseq	r3, r3, r1, lsl #2
     21c:	00342c00 	eorseq	r2, r4, r0, lsl #24
     220:	0b3a0e03 	bleq	e83a34 <__bss_end__+0xe7935c>
     224:	13490b3b 	movtne	r0, #39739	; 0x9b3b
     228:	0000061c 	andeq	r0, r0, ip, lsl r6
     22c:	4900352d 	stmdbmi	r0, {r0, r2, r3, r5, r8, sl, ip, sp}
     230:	2e000013 	mcrcs	0, 0, r0, cr0, cr3, {0}
     234:	193f012e 	ldmdbne	pc!, {r1, r2, r3, r5, r8}	; <UNPREDICTABLE>
     238:	0b3a0e03 	bleq	e83a4c <__bss_end__+0xe79374>
     23c:	19270b3b 	stmdbne	r7!, {r0, r1, r3, r4, r5, r8, r9, fp}
     240:	1301193c 	movwne	r1, #6460	; 0x193c
     244:	052f0000 	streq	r0, [pc, #-0]!	; 24c <_start-0x7db4>
     248:	00134900 	andseq	r4, r3, r0, lsl #18
     24c:	002e3000 	eoreq	r3, lr, r0
     250:	0e03193f 	mcreq	9, 0, r1, cr3, cr15, {1}
     254:	0b3b0b3a 	bleq	ec2f44 <__bss_end__+0xeb886c>
     258:	193c1927 	ldmdbne	ip!, {r0, r1, r2, r5, r8, fp, ip}
     25c:	2e310000 	cdpcs	0, 3, cr0, cr1, cr0, {0}
     260:	03193f01 	tsteq	r9, #1, 30
     264:	3b0b3a0e 	blcc	2ceaa4 <__bss_end__+0x2c43cc>
     268:	4919270b 	ldmdbmi	r9, {r0, r1, r3, r8, r9, sl, sp}
     26c:	01193c13 	tsteq	r9, r3, lsl ip
     270:	32000013 	andcc	r0, r0, #19
     274:	00000018 	andeq	r0, r0, r8, lsl r0
     278:	01110100 	tsteq	r1, r0, lsl #2
     27c:	0b130e25 	bleq	4c3b18 <__bss_end__+0x4b9440>
     280:	0e1b0e03 	cdpeq	14, 1, cr0, cr11, cr3, {0}
     284:	06120111 			; <UNDEFINED> instruction: 0x06120111
     288:	00001710 	andeq	r1, r0, r0, lsl r7
     28c:	03001602 	movweq	r1, #1538	; 0x602
     290:	3b0b3a0e 	blcc	2cead0 <__bss_end__+0x2c43f8>
     294:	0013490b 	andseq	r4, r3, fp, lsl #18
     298:	01130300 	tsteq	r3, r0, lsl #6
     29c:	0b0b0e03 	bleq	2c3ab0 <__bss_end__+0x2b93d8>
     2a0:	0b3b0b3a 	bleq	ec2f90 <__bss_end__+0xeb88b8>
     2a4:	00001301 	andeq	r1, r0, r1, lsl #6
     2a8:	03000d04 	movweq	r0, #3332	; 0xd04
     2ac:	3813490e 	ldmdacc	r3, {r1, r2, r3, r8, fp, lr}
     2b0:	0019340b 	andseq	r3, r9, fp, lsl #8
     2b4:	000f0500 	andeq	r0, pc, r0, lsl #10
     2b8:	00000b0b 	andeq	r0, r0, fp, lsl #22
     2bc:	0b002406 	bleq	92dc <gpio_set_input+0x70>
     2c0:	030b3e0b 	movweq	r3, #48651	; 0xbe0b
     2c4:	07000008 	streq	r0, [r0, -r8]
     2c8:	0b0b0024 	bleq	2c0360 <__bss_end__+0x2b5c88>
     2cc:	0e030b3e 	vmoveq.16	d3[0], r0
     2d0:	0f080000 	svceq	0x00080000
     2d4:	490b0b00 	stmdbmi	fp, {r8, r9, fp}
     2d8:	09000013 	stmdbeq	r0, {r0, r1, r4}
     2dc:	13490026 	movtne	r0, #36902	; 0x9026
     2e0:	2e0a0000 	cdpcs	0, 0, cr0, cr10, cr0, {0}
     2e4:	03193f01 	tsteq	r9, #1, 30
     2e8:	3b0b3a0e 	blcc	2ceb28 <__bss_end__+0x2c4450>
     2ec:	4919270b 	ldmdbmi	r9, {r0, r1, r3, r8, r9, sl, sp}
     2f0:	12011113 	andne	r1, r1, #-1073741820	; 0xc0000004
     2f4:	97184006 	ldrls	r4, [r8, -r6]
     2f8:	13011942 	movwne	r1, #6466	; 0x1942
     2fc:	050b0000 	streq	r0, [fp, #-0]
     300:	3a080300 	bcc	200f08 <__bss_end__+0x1f6830>
     304:	490b3b0b 	stmdbmi	fp, {r0, r1, r3, r8, r9, fp, ip, sp}
     308:	00180213 	andseq	r0, r8, r3, lsl r2
     30c:	00180c00 	andseq	r0, r8, r0, lsl #24
     310:	340d0000 	strcc	r0, [sp], #-0
     314:	3a080300 	bcc	200f1c <__bss_end__+0x1f6844>
     318:	490b3b0b 	stmdbmi	fp, {r0, r1, r3, r8, r9, fp, ip, sp}
     31c:	00180213 	andseq	r0, r8, r3, lsl r2
     320:	00340e00 	eorseq	r0, r4, r0, lsl #28
     324:	0b3a0e03 	bleq	e83b38 <__bss_end__+0xe79460>
     328:	13490b3b 	movtne	r0, #39739	; 0x9b3b
     32c:	00001802 	andeq	r1, r0, r2, lsl #16
     330:	0300340f 	movweq	r3, #1039	; 0x40f
     334:	3b0b3a08 	blcc	2ceb5c <__bss_end__+0x2c4484>
     338:	0213490b 	andseq	r4, r3, #180224	; 0x2c000
     33c:	10000017 	andne	r0, r0, r7, lsl r0
     340:	01018289 	smlabbeq	r1, r9, r2, r8
     344:	13310111 	teqne	r1, #1073741828	; 0x40000004
     348:	00001301 	andeq	r1, r0, r1, lsl #6
     34c:	01828a11 	orreq	r8, r2, r1, lsl sl
     350:	91180200 	tstls	r8, r0, lsl #4
     354:	00001842 	andeq	r1, r0, r2, asr #16
     358:	01828912 	orreq	r8, r2, r2, lsl r9
     35c:	00011101 	andeq	r1, r1, r1, lsl #2
     360:	01011300 	mrseq	r1, SP_irq
     364:	13011349 	movwne	r1, #4937	; 0x1349
     368:	21140000 	tstcs	r4, r0
     36c:	2f134900 	svccs	0x00134900
     370:	15000005 	strne	r0, [r0, #-5]
     374:	19270115 	stmdbne	r7!, {r0, r2, r4, r8}
     378:	13011349 	movwne	r1, #4937	; 0x1349
     37c:	05160000 	ldreq	r0, [r6, #-0]
     380:	00134900 	andseq	r4, r3, r0, lsl #18
     384:	00341700 	eorseq	r1, r4, r0, lsl #14
     388:	0b3a0e03 	bleq	e83b9c <__bss_end__+0xe794c4>
     38c:	13490b3b 	movtne	r0, #39739	; 0x9b3b
     390:	193c193f 	ldmdbne	ip!, {r0, r1, r2, r3, r4, r5, r8, fp, ip}
     394:	2e180000 	cdpcs	0, 1, cr0, cr8, cr0, {0}
     398:	03193f01 	tsteq	r9, #1, 30
     39c:	3b0b3a0e 	blcc	2cebdc <__bss_end__+0x2c4504>
     3a0:	4919270b 	ldmdbmi	r9, {r0, r1, r3, r8, r9, sl, sp}
     3a4:	00193c13 	andseq	r3, r9, r3, lsl ip
     3a8:	11010000 	mrsne	r0, (UNDEF: 1)
     3ac:	130e2501 	movwne	r2, #58625	; 0xe501
     3b0:	1b0e030b 	blne	380fe4 <__bss_end__+0x37690c>
     3b4:	1201110e 	andne	r1, r1, #-2147483645	; 0x80000003
     3b8:	00171006 	andseq	r1, r7, r6
     3bc:	00240200 	eoreq	r0, r4, r0, lsl #4
     3c0:	0b3e0b0b 	bleq	f82ff4 <__bss_end__+0xf7891c>
     3c4:	00000803 	andeq	r0, r0, r3, lsl #16
     3c8:	0b002403 	bleq	93dc <gpio_set_function+0x34>
     3cc:	030b3e0b 	movweq	r3, #48651	; 0xbe0b
     3d0:	0400000e 	streq	r0, [r0], #-14
     3d4:	0e03012e 	adfeqsp	f0, f3, #0.5
     3d8:	0b3b0b3a 	bleq	ec30c8 <__bss_end__+0xeb89f0>
     3dc:	13491927 	movtne	r1, #39207	; 0x9927
     3e0:	06120111 			; <UNDEFINED> instruction: 0x06120111
     3e4:	42971840 	addsmi	r1, r7, #64, 16	; 0x400000
     3e8:	00130119 	andseq	r0, r3, r9, lsl r1
     3ec:	00050500 	andeq	r0, r5, r0, lsl #10
     3f0:	0b3a0803 	bleq	e82404 <__bss_end__+0xe77d2c>
     3f4:	13490b3b 	movtne	r0, #39739	; 0x9b3b
     3f8:	00001702 	andeq	r1, r0, r2, lsl #14
     3fc:	01828906 	orreq	r8, r2, r6, lsl #18
     400:	31011101 	tstcc	r1, r1, lsl #2
     404:	07000013 	smladeq	r0, r3, r0, r0
     408:	0001828a 	andeq	r8, r1, sl, lsl #5
     40c:	42911802 	addsmi	r1, r1, #131072	; 0x20000
     410:	08000018 	stmdaeq	r0, {r3, r4}
     414:	193f002e 	ldmdbne	pc!, {r1, r2, r3, r5}	; <UNPREDICTABLE>
     418:	0b3a0e03 	bleq	e83c2c <__bss_end__+0xe79554>
     41c:	19270b3b 	stmdbne	r7!, {r0, r1, r3, r4, r5, r8, r9, fp}
     420:	06120111 			; <UNDEFINED> instruction: 0x06120111
     424:	42971840 	addsmi	r1, r7, #64, 16	; 0x400000
     428:	09000019 	stmdbeq	r0, {r0, r3, r4}
     42c:	193f012e 	ldmdbne	pc!, {r1, r2, r3, r5, r8}	; <UNPREDICTABLE>
     430:	0b3a0e03 	bleq	e83c44 <__bss_end__+0xe7956c>
     434:	19270b3b 	stmdbne	r7!, {r0, r1, r3, r4, r5, r8, r9, fp}
     438:	06120111 			; <UNDEFINED> instruction: 0x06120111
     43c:	42971840 	addsmi	r1, r7, #64, 16	; 0x400000
     440:	00130119 	andseq	r0, r3, r9, lsl r1
     444:	00050a00 	andeq	r0, r5, r0, lsl #20
     448:	0b3a0803 	bleq	e8245c <__bss_end__+0xe77d84>
     44c:	13490b3b 	movtne	r0, #39739	; 0x9b3b
     450:	00001802 	andeq	r1, r0, r2, lsl #16
     454:	2701150b 	strcs	r1, [r1, -fp, lsl #10]
     458:	01134919 	tsteq	r3, r9, lsl r9
     45c:	0c000013 	stceq	0, cr0, [r0], {19}
     460:	13490005 	movtne	r0, #36869	; 0x9005
     464:	0f0d0000 	svceq	0x000d0000
     468:	490b0b00 	stmdbmi	fp, {r8, r9, fp}
     46c:	0e000013 	mcreq	0, 0, r0, cr0, cr3, {0}
     470:	0e030034 	mcreq	0, 0, r0, cr3, cr4, {1}
     474:	0b3b0b3a 	bleq	ec3164 <__bss_end__+0xeb8a8c>
     478:	193f1349 	ldmdbne	pc!, {r0, r3, r6, r8, r9, ip}	; <UNPREDICTABLE>
     47c:	00001802 	andeq	r1, r0, r2, lsl #16
     480:	3f012e0f 	svccc	0x00012e0f
     484:	3a0e0319 	bcc	3810f0 <__bss_end__+0x376a18>
     488:	270b3b0b 	strcs	r3, [fp, -fp, lsl #22]
     48c:	00193c19 	andseq	r3, r9, r9, lsl ip
     490:	11010000 	mrsne	r0, (UNDEF: 1)
     494:	130e2501 	movwne	r2, #58625	; 0xe501
     498:	1b0e030b 	blne	3810cc <__bss_end__+0x3769f4>
     49c:	1201110e 	andne	r1, r1, #-2147483645	; 0x80000003
     4a0:	00171006 	andseq	r1, r7, r6
     4a4:	00240200 	eoreq	r0, r4, r0, lsl #4
     4a8:	0b3e0b0b 	bleq	f830dc <__bss_end__+0xf78a04>
     4ac:	00000803 	andeq	r0, r0, r3, lsl #16
     4b0:	0b002403 	bleq	94c4 <is_gpio_int+0xc>
     4b4:	030b3e0b 	movweq	r3, #48651	; 0xbe0b
     4b8:	0400000e 	streq	r0, [r0], #-14
     4bc:	0b0b000f 	bleq	2c0500 <__bss_end__+0x2b5e28>
     4c0:	00001349 	andeq	r1, r0, r9, asr #6
     4c4:	49002605 	stmdbmi	r0, {r0, r2, r9, sl, sp}
     4c8:	06000013 			; <UNDEFINED> instruction: 0x06000013
     4cc:	193f012e 	ldmdbne	pc!, {r1, r2, r3, r5, r8}	; <UNPREDICTABLE>
     4d0:	0b3a0e03 	bleq	e83ce4 <__bss_end__+0xe7960c>
     4d4:	19270b3b 	stmdbne	r7!, {r0, r1, r3, r4, r5, r8, r9, fp}
     4d8:	01111349 	tsteq	r1, r9, asr #6
     4dc:	18400612 	stmdane	r0, {r1, r4, r9, sl}^
     4e0:	01194296 			; <UNDEFINED> instruction: 0x01194296
     4e4:	07000013 	smladeq	r0, r3, r0, r0
     4e8:	08030005 	stmdaeq	r3, {r0, r2}
     4ec:	0b3b0b3a 	bleq	ec31dc <__bss_end__+0xeb8b04>
     4f0:	17021349 	strne	r1, [r2, -r9, asr #6]
     4f4:	15080000 	strne	r0, [r8, #-0]
     4f8:	49192701 	ldmdbmi	r9, {r0, r8, r9, sl, sp}
     4fc:	00130113 	andseq	r0, r3, r3, lsl r1
     500:	00050900 	andeq	r0, r5, r0, lsl #18
     504:	00001349 	andeq	r1, r0, r9, asr #6
     508:	0300340a 	movweq	r3, #1034	; 0x40a
     50c:	3b0b3a0e 	blcc	2ced4c <__bss_end__+0x2c4674>
     510:	3f13490b 	svccc	0x0013490b
     514:	00193c19 	andseq	r3, r9, r9, lsl ip
     518:	00340b00 	eorseq	r0, r4, r0, lsl #22
     51c:	0b3a0e03 	bleq	e83d30 <__bss_end__+0xe79658>
     520:	13490b3b 	movtne	r0, #39739	; 0x9b3b
     524:	1802193f 	stmdane	r2, {r0, r1, r2, r3, r4, r5, r8, fp, ip}
     528:	01000000 	mrseq	r0, (UNDEF: 0)
     52c:	0e250111 	mcreq	1, 1, r0, cr5, cr1, {0}
     530:	0e030b13 	vmoveq.32	d3[0], r0
     534:	01110e1b 	tsteq	r1, fp, lsl lr
     538:	17100612 			; <UNDEFINED> instruction: 0x17100612
     53c:	24020000 	strcs	r0, [r2], #-0
     540:	3e0b0b00 	vmlacc.f64	d0, d11, d0
     544:	0008030b 	andeq	r0, r8, fp, lsl #6
     548:	00240300 	eoreq	r0, r4, r0, lsl #6
     54c:	0b3e0b0b 	bleq	f83180 <__bss_end__+0xf78aa8>
     550:	00000e03 	andeq	r0, r0, r3, lsl #28
     554:	0b000f04 	bleq	416c <_start-0x3e94>
     558:	0500000b 	streq	r0, [r0, #-11]
     55c:	0b0b000f 	bleq	2c05a0 <__bss_end__+0x2b5ec8>
     560:	00001349 	andeq	r1, r0, r9, asr #6
     564:	49002606 	stmdbmi	r0, {r1, r2, r9, sl, sp}
     568:	07000013 	smladeq	r0, r3, r0, r0
     56c:	0e030016 	mcreq	0, 0, r0, cr3, cr6, {0}
     570:	0b3b0b3a 	bleq	ec3260 <__bss_end__+0xeb8b88>
     574:	00001349 	andeq	r1, r0, r9, asr #6
     578:	03011308 	movweq	r1, #4872	; 0x1308
     57c:	3a0b0b0e 	bcc	2c31bc <__bss_end__+0x2b8ae4>
     580:	010b3b0b 	tsteq	fp, fp, lsl #22
     584:	09000013 	stmdbeq	r0, {r0, r1, r4}
     588:	0e03000d 	cdpeq	0, 0, cr0, cr3, cr13, {0}
     58c:	0b381349 	bleq	e052b8 <__bss_end__+0xdfabe0>
     590:	00001934 	andeq	r1, r0, r4, lsr r9
     594:	03012e0a 	movweq	r2, #7690	; 0x1e0a
     598:	3b0b3a0e 	blcc	2cedd8 <__bss_end__+0x2c4700>
     59c:	4919270b 	ldmdbmi	r9, {r0, r1, r3, r8, r9, sl, sp}
     5a0:	12011113 	andne	r1, r1, #-1073741820	; 0xc0000004
     5a4:	97184006 	ldrls	r4, [r8, -r6]
     5a8:	13011942 	movwne	r1, #6466	; 0x1942
     5ac:	050b0000 	streq	r0, [fp, #-0]
     5b0:	3a080300 	bcc	2011b8 <__bss_end__+0x1f6ae0>
     5b4:	490b3b0b 	stmdbmi	fp, {r0, r1, r3, r8, r9, fp, ip, sp}
     5b8:	00170213 	andseq	r0, r7, r3, lsl r2
     5bc:	012e0c00 	teqeq	lr, r0, lsl #24
     5c0:	0b3a0803 	bleq	e825d4 <__bss_end__+0xe77efc>
     5c4:	19270b3b 	stmdbne	r7!, {r0, r1, r3, r4, r5, r8, r9, fp}
     5c8:	01111349 	tsteq	r1, r9, asr #6
     5cc:	18400612 	stmdane	r0, {r1, r4, r9, sl}^
     5d0:	01194297 			; <UNDEFINED> instruction: 0x01194297
     5d4:	0d000013 	stceq	0, cr0, [r0, #-76]	; 0xffffffb4
     5d8:	0e030005 	cdpeq	0, 0, cr0, cr3, cr5, {0}
     5dc:	0b3b0b3a 	bleq	ec32cc <__bss_end__+0xeb8bf4>
     5e0:	17021349 	strne	r1, [r2, -r9, asr #6]
     5e4:	050e0000 	streq	r0, [lr, #-0]
     5e8:	3a0e0300 	bcc	3811f0 <__bss_end__+0x376b18>
     5ec:	490b3b0b 	stmdbmi	fp, {r0, r1, r3, r8, r9, fp, ip, sp}
     5f0:	00180213 	andseq	r0, r8, r3, lsl r2
     5f4:	00340f00 	eorseq	r0, r4, r0, lsl #30
     5f8:	0b3a0803 	bleq	e8260c <__bss_end__+0xe77f34>
     5fc:	13490b3b 	movtne	r0, #39739	; 0x9b3b
     600:	00001802 	andeq	r1, r0, r2, lsl #16
     604:	03003410 	movweq	r3, #1040	; 0x410
     608:	3b0b3a08 	blcc	2cee30 <__bss_end__+0x2c4758>
     60c:	0213490b 	andseq	r4, r3, #180224	; 0x2c000
     610:	11000017 	tstne	r0, r7, lsl r0
     614:	0e030034 	mcreq	0, 0, r0, cr3, cr4, {1}
     618:	19341349 	ldmdbne	r4!, {r0, r3, r6, r8, r9, ip}
     61c:	00001802 	andeq	r1, r0, r2, lsl #16
     620:	11010b12 	tstne	r1, r2, lsl fp
     624:	01061201 	tsteq	r6, r1, lsl #4
     628:	13000013 	movwne	r0, #19
     62c:	0e030034 	mcreq	0, 0, r0, cr3, cr4, {1}
     630:	0b3b0b3a 	bleq	ec3320 <__bss_end__+0xeb8c48>
     634:	17021349 	strne	r1, [r2, -r9, asr #6]
     638:	89140000 	ldmdbhi	r4, {}	; <UNPREDICTABLE>
     63c:	11000182 	smlabbne	r0, r2, r1, r0
     640:	00133101 	andseq	r3, r3, r1, lsl #2
     644:	82891500 	addhi	r1, r9, #0, 10
     648:	01110101 	tsteq	r1, r1, lsl #2
     64c:	13011331 	movwne	r1, #4913	; 0x1331
     650:	8a160000 	bhi	580658 <__bss_end__+0x575f80>
     654:	02000182 	andeq	r0, r0, #-2147483616	; 0x80000020
     658:	18429118 	stmdane	r2, {r3, r4, r8, ip, pc}^
     65c:	89170000 	ldmdbhi	r7, {}	; <UNPREDICTABLE>
     660:	11010182 	smlabbne	r1, r2, r1, r0
     664:	00133101 	andseq	r3, r3, r1, lsl #2
     668:	01011800 	tsteq	r1, r0, lsl #16
     66c:	13011349 	movwne	r1, #4937	; 0x1349
     670:	21190000 	tstcs	r9, r0
     674:	2f134900 	svccs	0x00134900
     678:	1a00000b 	bne	6ac <_start-0x7954>
     67c:	193f012e 	ldmdbne	pc!, {r1, r2, r3, r5, r8}	; <UNPREDICTABLE>
     680:	0b3a0e03 	bleq	e83e94 <__bss_end__+0xe797bc>
     684:	19270b3b 	stmdbne	r7!, {r0, r1, r3, r4, r5, r8, r9, fp}
     688:	06120111 			; <UNDEFINED> instruction: 0x06120111
     68c:	42971840 	addsmi	r1, r7, #64, 16	; 0x400000
     690:	00130119 	andseq	r0, r3, r9, lsl r1
     694:	01151b00 	tsteq	r5, r0, lsl #22
     698:	13491927 	movtne	r1, #39207	; 0x9927
     69c:	00001301 	andeq	r1, r0, r1, lsl #6
     6a0:	4900051c 	stmdbmi	r0, {r2, r3, r4, r8, sl}
     6a4:	1d000013 	stcne	0, cr0, [r0, #-76]	; 0xffffffb4
     6a8:	193f012e 	ldmdbne	pc!, {r1, r2, r3, r5, r8}	; <UNPREDICTABLE>
     6ac:	0b3a0e03 	bleq	e83ec0 <__bss_end__+0xe797e8>
     6b0:	19270b3b 	stmdbne	r7!, {r0, r1, r3, r4, r5, r8, r9, fp}
     6b4:	01111349 	tsteq	r1, r9, asr #6
     6b8:	18400612 	stmdane	r0, {r1, r4, r9, sl}^
     6bc:	01194297 			; <UNDEFINED> instruction: 0x01194297
     6c0:	1e000013 	mcrne	0, 0, r0, cr0, cr3, {0}
     6c4:	1755010b 	ldrbne	r0, [r5, -fp, lsl #2]
     6c8:	341f0000 	ldrcc	r0, [pc], #-0	; 6d0 <_start-0x7930>
     6cc:	3a0e0300 	bcc	3812d4 <__bss_end__+0x376bfc>
     6d0:	490b3b0b 	stmdbmi	fp, {r0, r1, r3, r8, r9, fp, ip, sp}
     6d4:	3c193f13 	ldccc	15, cr3, [r9], {19}
     6d8:	20000019 	andcs	r0, r0, r9, lsl r0
     6dc:	193f002e 	ldmdbne	pc!, {r1, r2, r3, r5}	; <UNPREDICTABLE>
     6e0:	0b3a0e03 	bleq	e83ef4 <__bss_end__+0xe7981c>
     6e4:	19270b3b 	stmdbne	r7!, {r0, r1, r3, r4, r5, r8, r9, fp}
     6e8:	0000193c 	andeq	r1, r0, ip, lsr r9
     6ec:	3f012e21 	svccc	0x00012e21
     6f0:	3a0e0319 	bcc	38135c <__bss_end__+0x376c84>
     6f4:	270b3b0b 	strcs	r3, [fp, -fp, lsl #22]
     6f8:	3c134919 	ldccc	9, cr4, [r3], {25}
     6fc:	00130119 	andseq	r0, r3, r9, lsl r1
     700:	00182200 	andseq	r2, r8, r0, lsl #4
     704:	01000000 	mrseq	r0, (UNDEF: 0)
     708:	0e250111 	mcreq	1, 1, r0, cr5, cr1, {0}
     70c:	0e030b13 	vmoveq.32	d3[0], r0
     710:	01110e1b 	tsteq	r1, fp, lsl lr
     714:	17100612 			; <UNDEFINED> instruction: 0x17100612
     718:	24020000 	strcs	r0, [r2], #-0
     71c:	3e0b0b00 	vmlacc.f64	d0, d11, d0
     720:	0008030b 	andeq	r0, r8, fp, lsl #6
     724:	00240300 	eoreq	r0, r4, r0, lsl #6
     728:	0b3e0b0b 	bleq	f8335c <__bss_end__+0xf78c84>
     72c:	00000e03 	andeq	r0, r0, r3, lsl #28
     730:	3f012e04 	svccc	0x00012e04
     734:	3a0e0319 	bcc	3813a0 <__bss_end__+0x376cc8>
     738:	270b3b0b 	strcs	r3, [fp, -fp, lsl #22]
     73c:	12011119 	andne	r1, r1, #1073741830	; 0x40000006
     740:	97184006 	ldrls	r4, [r8, -r6]
     744:	13011942 	movwne	r1, #6466	; 0x1942
     748:	34050000 	strcc	r0, [r5], #-0
     74c:	3a080300 	bcc	201354 <__bss_end__+0x1f6c7c>
     750:	490b3b0b 	stmdbmi	fp, {r0, r1, r3, r8, r9, fp, ip, sp}
     754:	00170213 	andseq	r0, r7, r3, lsl r2
     758:	012e0600 	teqeq	lr, r0, lsl #12
     75c:	0e03193f 	mcreq	9, 0, r1, cr3, cr15, {1}
     760:	0b3b0b3a 	bleq	ec3450 <__bss_end__+0xeb8d78>
     764:	01111927 	tsteq	r1, r7, lsr #18
     768:	18400612 	stmdane	r0, {r1, r4, r9, sl}^
     76c:	00194297 	mulseq	r9, r7, r2
     770:	11010000 	mrsne	r0, (UNDEF: 1)
     774:	130e2501 	movwne	r2, #58625	; 0xe501
     778:	1b0e030b 	blne	3813ac <__bss_end__+0x376cd4>
     77c:	1201110e 	andne	r1, r1, #-2147483645	; 0x80000003
     780:	00171006 	andseq	r1, r7, r6
     784:	00240200 	eoreq	r0, r4, r0, lsl #4
     788:	0b3e0b0b 	bleq	f833bc <__bss_end__+0xf78ce4>
     78c:	00000803 	andeq	r0, r0, r3, lsl #16
     790:	0b002403 	bleq	97a4 <sw_uart_putc+0xdc>
     794:	030b3e0b 	movweq	r3, #48651	; 0xbe0b
     798:	0400000e 	streq	r0, [r0], #-14
     79c:	0b0b000f 	bleq	2c07e0 <__bss_end__+0x2b6108>
     7a0:	00001349 	andeq	r1, r0, r9, asr #6
     7a4:	49002605 	stmdbmi	r0, {r0, r2, r9, sl, sp}
     7a8:	06000013 			; <UNDEFINED> instruction: 0x06000013
     7ac:	193f012e 	ldmdbne	pc!, {r1, r2, r3, r5, r8}	; <UNPREDICTABLE>
     7b0:	0b3a0e03 	bleq	e83fc4 <__bss_end__+0xe798ec>
     7b4:	19270b3b 	stmdbne	r7!, {r0, r1, r3, r4, r5, r8, r9, fp}
     7b8:	06120111 			; <UNDEFINED> instruction: 0x06120111
     7bc:	42971840 	addsmi	r1, r7, #64, 16	; 0x400000
     7c0:	00130119 	andseq	r0, r3, r9, lsl r1
     7c4:	82890700 	addhi	r0, r9, #0, 14
     7c8:	01110101 	tsteq	r1, r1, lsl #2
     7cc:	00001301 	andeq	r1, r0, r1, lsl #6
     7d0:	01828a08 	orreq	r8, r2, r8, lsl #20
     7d4:	91180200 	tstls	r8, r0, lsl #4
     7d8:	00001842 	andeq	r1, r0, r2, asr #16
     7dc:	01828909 	orreq	r8, r2, r9, lsl #18
     7e0:	31011101 	tstcc	r1, r1, lsl #2
     7e4:	00130113 	andseq	r0, r3, r3, lsl r1
     7e8:	82890a00 	addhi	r0, r9, #0, 20
     7ec:	01110001 	tsteq	r1, r1
     7f0:	00001331 	andeq	r1, r0, r1, lsr r3
     7f4:	2701150b 	strcs	r1, [r1, -fp, lsl #10]
     7f8:	01134919 	tsteq	r3, r9, lsl r9
     7fc:	0c000013 	stceq	0, cr0, [r0], {19}
     800:	13490005 	movtne	r0, #36869	; 0x9005
     804:	340d0000 	strcc	r0, [sp], #-0
     808:	3a0e0300 	bcc	381410 <__bss_end__+0x376d38>
     80c:	490b3b0b 	stmdbmi	fp, {r0, r1, r3, r8, r9, fp, ip, sp}
     810:	3c193f13 	ldccc	15, cr3, [r9], {19}
     814:	0e000019 	mcreq	0, 0, r0, cr0, cr9, {0}
     818:	193f012e 	ldmdbne	pc!, {r1, r2, r3, r5, r8}	; <UNPREDICTABLE>
     81c:	0b3a0e03 	bleq	e84030 <__bss_end__+0xe79958>
     820:	19270b3b 	stmdbne	r7!, {r0, r1, r3, r4, r5, r8, r9, fp}
     824:	1301193c 	movwne	r1, #6460	; 0x193c
     828:	2e0f0000 	cdpcs	0, 0, cr0, cr15, cr0, {0}
     82c:	03193f00 	tsteq	r9, #0, 30
     830:	3b0b3a0e 	blcc	2cf070 <__bss_end__+0x2c4998>
     834:	3c19270b 	ldccc	7, cr2, [r9], {11}
     838:	00000019 	andeq	r0, r0, r9, lsl r0
     83c:	25011101 	strcs	r1, [r1, #-257]	; 0x101
     840:	030b130e 	movweq	r1, #45838	; 0xb30e
     844:	110e1b0e 	tstne	lr, lr, lsl #22
     848:	10061201 	andne	r1, r6, r1, lsl #4
     84c:	02000017 	andeq	r0, r0, #23
     850:	0b0b0024 	bleq	2c08e8 <__bss_end__+0x2b6210>
     854:	08030b3e 	stmdaeq	r3, {r1, r2, r3, r4, r5, r8, r9, fp}
     858:	24030000 	strcs	r0, [r3], #-0
     85c:	3e0b0b00 	vmlacc.f64	d0, d11, d0
     860:	000e030b 	andeq	r0, lr, fp, lsl #6
     864:	00160400 	andseq	r0, r6, r0, lsl #8
     868:	0b3a0e03 	bleq	e8407c <__bss_end__+0xe799a4>
     86c:	13490b3b 	movtne	r0, #39739	; 0x9b3b
     870:	0f050000 	svceq	0x00050000
     874:	490b0b00 	stmdbmi	fp, {r8, r9, fp}
     878:	06000013 			; <UNDEFINED> instruction: 0x06000013
     87c:	13490026 	movtne	r0, #36902	; 0x9026
     880:	13070000 	movwne	r0, #28672	; 0x7000
     884:	3a0b0b01 	bcc	2c3490 <__bss_end__+0x2b8db8>
     888:	010b3b0b 	tsteq	fp, fp, lsl #22
     88c:	08000013 	stmdaeq	r0, {r0, r1, r4}
     890:	0803000d 	stmdaeq	r3, {r0, r2, r3}
     894:	0b3b0b3a 	bleq	ec3584 <__bss_end__+0xeb8eac>
     898:	0b381349 	bleq	e055c4 <__bss_end__+0xdfaeec>
     89c:	0d090000 	stceq	0, cr0, [r9, #-0]
     8a0:	3a0e0300 	bcc	3814a8 <__bss_end__+0x376dd0>
     8a4:	490b3b0b 	stmdbmi	fp, {r0, r1, r3, r8, r9, fp, ip, sp}
     8a8:	000b3813 	andeq	r3, fp, r3, lsl r8
     8ac:	01040a00 	tsteq	r4, r0, lsl #20
     8b0:	0b3a0b0b 	bleq	e834e4 <__bss_end__+0xe78e0c>
     8b4:	13010b3b 	movwne	r0, #6971	; 0x1b3b
     8b8:	280b0000 	stmdacs	fp, {}	; <UNPREDICTABLE>
     8bc:	1c0e0300 	stcne	3, cr0, [lr], {-0}
     8c0:	0c00000d 	stceq	0, cr0, [r0], {13}
     8c4:	0e03012e 	adfeqsp	f0, f3, #0.5
     8c8:	0b3b0b3a 	bleq	ec35b8 <__bss_end__+0xeb8ee0>
     8cc:	13491927 	movtne	r1, #39207	; 0x9927
     8d0:	06120111 			; <UNDEFINED> instruction: 0x06120111
     8d4:	42971840 	addsmi	r1, r7, #64, 16	; 0x400000
     8d8:	00130119 	andseq	r0, r3, r9, lsl r1
     8dc:	00050d00 	andeq	r0, r5, r0, lsl #26
     8e0:	0b3a0803 	bleq	e828f4 <__bss_end__+0xe7821c>
     8e4:	13490b3b 	movtne	r0, #39739	; 0x9b3b
     8e8:	00001702 	andeq	r1, r0, r2, lsl #14
     8ec:	0182890e 	orreq	r8, r2, lr, lsl #18
     8f0:	31011101 	tstcc	r1, r1, lsl #2
     8f4:	0f000013 	svceq	0x00000013
     8f8:	0001828a 	andeq	r8, r1, sl, lsl #5
     8fc:	42911802 	addsmi	r1, r1, #131072	; 0x20000
     900:	10000018 	andne	r0, r0, r8, lsl r0
     904:	193f012e 	ldmdbne	pc!, {r1, r2, r3, r5, r8}	; <UNPREDICTABLE>
     908:	0b3a0e03 	bleq	e8411c <__bss_end__+0xe79a44>
     90c:	01110b3b 	tsteq	r1, fp, lsr fp
     910:	18400612 	stmdane	r0, {r1, r4, r9, sl}^
     914:	01194297 			; <UNDEFINED> instruction: 0x01194297
     918:	11000013 	tstne	r0, r3, lsl r0
     91c:	0e030034 	mcreq	0, 0, r0, cr3, cr4, {1}
     920:	0b3b0b3a 	bleq	ec3610 <__bss_end__+0xeb8f38>
     924:	193f1349 	ldmdbne	pc!, {r0, r3, r6, r8, r9, ip}	; <UNPREDICTABLE>
     928:	0000193c 	andeq	r1, r0, ip, lsr r9
     92c:	3f002e12 	svccc	0x00002e12
     930:	3a0e0319 	bcc	38159c <__bss_end__+0x376ec4>
     934:	270b3b0b 	strcs	r3, [fp, -fp, lsl #22]
     938:	00193c19 	andseq	r3, r9, r9, lsl ip
     93c:	00341300 	eorseq	r1, r4, r0, lsl #6
     940:	0b3a0803 	bleq	e82954 <__bss_end__+0xe7827c>
     944:	13490b3b 	movtne	r0, #39739	; 0x9b3b
     948:	00001702 	andeq	r1, r0, r2, lsl #14
     94c:	03003414 	movweq	r3, #1044	; 0x414
     950:	3b0b3a0e 	blcc	2cf190 <__bss_end__+0x2c4ab8>
     954:	0013490b 	andseq	r4, r3, fp, lsl #18
     958:	82891500 	addhi	r1, r9, #0, 10
     95c:	01110001 	tsteq	r1, r1
     960:	00001331 	andeq	r1, r0, r1, lsr r3
     964:	01828916 	orreq	r8, r2, r6, lsl r9
     968:	31011101 	tstcc	r1, r1, lsl #2
     96c:	00130113 	andseq	r0, r3, r3, lsl r1
     970:	00341700 	eorseq	r1, r4, r0, lsl #14
     974:	0b3a0e03 	bleq	e84188 <__bss_end__+0xe79ab0>
     978:	13490b3b 	movtne	r0, #39739	; 0x9b3b
     97c:	00001802 	andeq	r1, r0, r2, lsl #16
     980:	27011518 	smladcs	r1, r8, r5, r1
     984:	01134919 	tsteq	r3, r9, lsl r9
     988:	19000013 	stmdbne	r0, {r0, r1, r4}
     98c:	13490005 	movtne	r0, #36869	; 0x9005
     990:	2e1a0000 	cdpcs	0, 1, cr0, cr10, cr0, {0}
     994:	03193f01 	tsteq	r9, #1, 30
     998:	3b0b3a0e 	blcc	2cf1d8 <__bss_end__+0x2c4b00>
     99c:	3c19270b 	ldccc	7, cr2, [r9], {11}
     9a0:	00130119 	andseq	r0, r3, r9, lsl r1
     9a4:	002e1b00 	eoreq	r1, lr, r0, lsl #22
     9a8:	0e03193f 	mcreq	9, 0, r1, cr3, cr15, {1}
     9ac:	0b3b0b3a 	bleq	ec369c <__bss_end__+0xeb8fc4>
     9b0:	13491927 	movtne	r1, #39207	; 0x9927
     9b4:	0000193c 	andeq	r1, r0, ip, lsr r9
     9b8:	3f012e1c 	svccc	0x00012e1c
     9bc:	3a0e0319 	bcc	381628 <__bss_end__+0x376f50>
     9c0:	270b3b0b 	strcs	r3, [fp, -fp, lsl #22]
     9c4:	3c134919 	ldccc	9, cr4, [r3], {25}
     9c8:	00130119 	andseq	r0, r3, r9, lsl r1
     9cc:	00181d00 	andseq	r1, r8, r0, lsl #26
     9d0:	01000000 	mrseq	r0, (UNDEF: 0)
     9d4:	0e250111 	mcreq	1, 1, r0, cr5, cr1, {0}
     9d8:	0e030b13 	vmoveq.32	d3[0], r0
     9dc:	17550e1b 	smmlane	r5, fp, lr, r0
     9e0:	17100111 			; <UNDEFINED> instruction: 0x17100111
     9e4:	24020000 	strcs	r0, [r2], #-0
     9e8:	3e0b0b00 	vmlacc.f64	d0, d11, d0
     9ec:	0008030b 	andeq	r0, r8, fp, lsl #6
     9f0:	00240300 	eoreq	r0, r4, r0, lsl #6
     9f4:	0b3e0b0b 	bleq	f83628 <__bss_end__+0xf78f50>
     9f8:	00000e03 	andeq	r0, r0, r3, lsl #28
     9fc:	3f012e04 	svccc	0x00012e04
     a00:	3a0e0319 	bcc	38166c <__bss_end__+0x376f94>
     a04:	270b3b0b 	strcs	r3, [fp, -fp, lsl #22]
     a08:	11134919 	tstne	r3, r9, lsl r9
     a0c:	40061201 	andmi	r1, r6, r1, lsl #4
     a10:	19429718 	stmdbne	r2, {r3, r4, r8, r9, sl, ip, pc}^
     a14:	00001301 	andeq	r1, r0, r1, lsl #6
     a18:	03003405 	movweq	r3, #1029	; 0x405
     a1c:	3b0b3a0e 	blcc	2cf25c <__bss_end__+0x2c4b84>
     a20:	0213490b 	andseq	r4, r3, #180224	; 0x2c000
     a24:	06000017 			; <UNDEFINED> instruction: 0x06000017
     a28:	193f012e 	ldmdbne	pc!, {r1, r2, r3, r5, r8}	; <UNPREDICTABLE>
     a2c:	0b3a0e03 	bleq	e84240 <__bss_end__+0xe79b68>
     a30:	19270b3b 	stmdbne	r7!, {r0, r1, r3, r4, r5, r8, r9, fp}
     a34:	06120111 			; <UNDEFINED> instruction: 0x06120111
     a38:	42971840 	addsmi	r1, r7, #64, 16	; 0x400000
     a3c:	00130119 	andseq	r0, r3, r9, lsl r1
     a40:	00340700 	eorseq	r0, r4, r0, lsl #14
     a44:	0b3a0e03 	bleq	e84258 <__bss_end__+0xe79b80>
     a48:	13490b3b 	movtne	r0, #39739	; 0x9b3b
     a4c:	0000061c 	andeq	r0, r0, ip, lsl r6
     a50:	03003408 	movweq	r3, #1032	; 0x408
     a54:	3b0b3a0e 	blcc	2cf294 <__bss_end__+0x2c4bbc>
     a58:	1c13490b 	ldcne	9, cr4, [r3], {11}
     a5c:	0900000b 	stmdbeq	r0, {r0, r1, r3}
     a60:	00018289 	andeq	r8, r1, r9, lsl #5
     a64:	13310111 	teqne	r1, #1073741828	; 0x40000004
     a68:	890a0000 	stmdbhi	sl, {}	; <UNPREDICTABLE>
     a6c:	11010182 	smlabbne	r1, r2, r1, r0
     a70:	01133101 	tsteq	r3, r1, lsl #2
     a74:	0b000013 	bleq	ac8 <_start-0x7538>
     a78:	0001828a 	andeq	r8, r1, sl, lsl #5
     a7c:	42911802 	addsmi	r1, r1, #131072	; 0x20000
     a80:	0c000018 	stceq	0, cr0, [r0], {24}
     a84:	01018289 	smlabbeq	r1, r9, r2, r8
     a88:	13310111 	teqne	r1, #1073741828	; 0x40000004
     a8c:	260d0000 	strcs	r0, [sp], -r0
     a90:	00134900 	andseq	r4, r3, r0, lsl #18
     a94:	012e0e00 	teqeq	lr, r0, lsl #28
     a98:	0e03193f 	mcreq	9, 0, r1, cr3, cr15, {1}
     a9c:	0b3b0b3a 	bleq	ec378c <__bss_end__+0xeb90b4>
     aa0:	193c1927 	ldmdbne	ip!, {r0, r1, r2, r5, r8, fp, ip}
     aa4:	00001301 	andeq	r1, r0, r1, lsl #6
     aa8:	4900050f 	stmdbmi	r0, {r0, r1, r2, r3, r8, sl}
     aac:	10000013 	andne	r0, r0, r3, lsl r0
     ab0:	193f012e 	ldmdbne	pc!, {r1, r2, r3, r5, r8}	; <UNPREDICTABLE>
     ab4:	0b3a0e03 	bleq	e842c8 <__bss_end__+0xe79bf0>
     ab8:	19270b3b 	stmdbne	r7!, {r0, r1, r3, r4, r5, r8, r9, fp}
     abc:	0000193c 	andeq	r1, r0, ip, lsr r9
     ac0:	01110100 	tsteq	r1, r0, lsl #2
     ac4:	0b130e25 	bleq	4c4360 <__bss_end__+0x4b9c88>
     ac8:	0e1b0e03 	cdpeq	14, 1, cr0, cr11, cr3, {0}
     acc:	06120111 			; <UNDEFINED> instruction: 0x06120111
     ad0:	00001710 	andeq	r1, r0, r0, lsl r7
     ad4:	0b002402 	bleq	9ae4 <sw_uart_gets_timeout+0x5c>
     ad8:	030b3e0b 	movweq	r3, #48651	; 0xbe0b
     adc:	03000008 	movweq	r0, #8
     ae0:	0b0b0024 	bleq	2c0b78 <__bss_end__+0x2b64a0>
     ae4:	0e030b3e 	vmoveq.16	d3[0], r0
     ae8:	2e040000 	cdpcs	0, 0, cr0, cr4, cr0, {0}
     aec:	03193f01 	tsteq	r9, #1, 30
     af0:	3b0b3a0e 	blcc	2cf330 <__bss_end__+0x2c4c58>
     af4:	1119270b 	tstne	r9, fp, lsl #14
     af8:	40061201 	andmi	r1, r6, r1, lsl #4
     afc:	19429718 	stmdbne	r2, {r3, r4, r8, r9, sl, ip, pc}^
     b00:	00001301 	andeq	r1, r0, r1, lsl #6
     b04:	03000505 	movweq	r0, #1285	; 0x505
     b08:	3b0b3a0e 	blcc	2cf348 <__bss_end__+0x2c4c70>
     b0c:	0213490b 	andseq	r4, r3, #180224	; 0x2c000
     b10:	06000017 			; <UNDEFINED> instruction: 0x06000017
     b14:	193f012e 	ldmdbne	pc!, {r1, r2, r3, r5, r8}	; <UNPREDICTABLE>
     b18:	0b3a0e03 	bleq	e8432c <__bss_end__+0xe79c54>
     b1c:	19270b3b 	stmdbne	r7!, {r0, r1, r3, r4, r5, r8, r9, fp}
     b20:	01111349 	tsteq	r1, r9, asr #6
     b24:	18400612 	stmdane	r0, {r1, r4, r9, sl}^
     b28:	01194297 			; <UNDEFINED> instruction: 0x01194297
     b2c:	07000013 	smladeq	r0, r3, r0, r0
     b30:	01018289 	smlabbeq	r1, r9, r2, r8
     b34:	13310111 	teqne	r1, #1073741828	; 0x40000004
     b38:	8a080000 	bhi	200b40 <__bss_end__+0x1f6468>
     b3c:	02000182 	andeq	r0, r0, #-2147483616	; 0x80000020
     b40:	18429118 	stmdane	r2, {r3, r4, r8, ip, pc}^
     b44:	34090000 	strcc	r0, [r9], #-0
     b48:	3a080300 	bcc	201750 <__bss_end__+0x1f7078>
     b4c:	490b3b0b 	stmdbmi	fp, {r0, r1, r3, r8, r9, fp, ip, sp}
     b50:	00180213 	andseq	r0, r8, r3, lsl r2
     b54:	82890a00 	addhi	r0, r9, #0, 20
     b58:	01110001 	tsteq	r1, r1
     b5c:	00001331 	andeq	r1, r0, r1, lsr r3
     b60:	0300050b 	movweq	r0, #1291	; 0x50b
     b64:	3b0b3a08 	blcc	2cf38c <__bss_end__+0x2c4cb4>
     b68:	0213490b 	andseq	r4, r3, #180224	; 0x2c000
     b6c:	0c000017 	stceq	0, cr0, [r0], {23}
     b70:	0111010b 	tsteq	r1, fp, lsl #2
     b74:	13010612 	movwne	r0, #5650	; 0x1612
     b78:	340d0000 	strcc	r0, [sp], #-0
     b7c:	3a080300 	bcc	201784 <__bss_end__+0x1f70ac>
     b80:	490b3b0b 	stmdbmi	fp, {r0, r1, r3, r8, r9, fp, ip, sp}
     b84:	00170213 	andseq	r0, r7, r3, lsl r2
     b88:	012e0e00 	teqeq	lr, r0, lsl #28
     b8c:	0e03193f 	mcreq	9, 0, r1, cr3, cr15, {1}
     b90:	0b3b0b3a 	bleq	ec3880 <__bss_end__+0xeb91a8>
     b94:	13491927 	movtne	r1, #39207	; 0x9927
     b98:	0000193c 	andeq	r1, r0, ip, lsr r9
     b9c:	4900050f 	stmdbmi	r0, {r0, r1, r2, r3, r8, sl}
     ba0:	00000013 	andeq	r0, r0, r3, lsl r0
     ba4:	25011101 	strcs	r1, [r1, #-257]	; 0x101
     ba8:	030b130e 	movweq	r1, #45838	; 0xb30e
     bac:	110e1b0e 	tstne	lr, lr, lsl #22
     bb0:	10061201 	andne	r1, r6, r1, lsl #4
     bb4:	02000017 	andeq	r0, r0, #23
     bb8:	0b0b0024 	bleq	2c0c50 <__bss_end__+0x2b6578>
     bbc:	0e030b3e 	vmoveq.16	d3[0], r0
     bc0:	24030000 	strcs	r0, [r3], #-0
     bc4:	3e0b0b00 	vmlacc.f64	d0, d11, d0
     bc8:	0008030b 	andeq	r0, r8, fp, lsl #6
     bcc:	01040400 	tsteq	r4, r0, lsl #8
     bd0:	0b3a0b0b 	bleq	e83804 <__bss_end__+0xe7912c>
     bd4:	13010b3b 	movwne	r0, #6971	; 0x1b3b
     bd8:	28050000 	stmdacs	r5, {}	; <UNPREDICTABLE>
     bdc:	1c0e0300 	stcne	3, cr0, [lr], {-0}
     be0:	0600000d 	streq	r0, [r0], -sp
     be4:	0e030016 	mcreq	0, 0, r0, cr3, cr6, {0}
     be8:	0b3b0b3a 	bleq	ec38d8 <__bss_end__+0xeb9200>
     bec:	00001349 	andeq	r1, r0, r9, asr #6
     bf0:	3f012e07 	svccc	0x00012e07
     bf4:	3a0e0319 	bcc	381860 <__bss_end__+0x377188>
     bf8:	270b3b0b 	strcs	r3, [fp, -fp, lsl #22]
     bfc:	12011119 	andne	r1, r1, #1073741830	; 0x40000006
     c00:	97184006 	ldrls	r4, [r8, -r6]
     c04:	13011942 	movwne	r1, #6466	; 0x1942
     c08:	05080000 	streq	r0, [r8, #-0]
     c0c:	3a080300 	bcc	201814 <__bss_end__+0x1f713c>
     c10:	490b3b0b 	stmdbmi	fp, {r0, r1, r3, r8, r9, fp, ip, sp}
     c14:	00170213 	andseq	r0, r7, r3, lsl r2
     c18:	00340900 	eorseq	r0, r4, r0, lsl #18
     c1c:	0b3a0e03 	bleq	e84430 <__bss_end__+0xe79d58>
     c20:	13490b3b 	movtne	r0, #39739	; 0x9b3b
     c24:	00001702 	andeq	r1, r0, r2, lsl #14
     c28:	0182890a 	orreq	r8, r2, sl, lsl #18
     c2c:	31011101 	tstcc	r1, r1, lsl #2
     c30:	00130113 	andseq	r0, r3, r3, lsl r1
     c34:	828a0b00 	addhi	r0, sl, #0, 22
     c38:	18020001 	stmdane	r2, {r0}
     c3c:	00184291 	mulseq	r8, r1, r2
     c40:	82890c00 	addhi	r0, r9, #0, 24
     c44:	01110101 	tsteq	r1, r1, lsl #2
     c48:	00001331 	andeq	r1, r0, r1, lsr r3
     c4c:	0b000f0d 	bleq	4888 <_start-0x3778>
     c50:	0013490b 	andseq	r4, r3, fp, lsl #18
     c54:	00350e00 	eorseq	r0, r5, r0, lsl #28
     c58:	00001349 	andeq	r1, r0, r9, asr #6
     c5c:	3f012e0f 	svccc	0x00012e0f
     c60:	3a0e0319 	bcc	3818cc <__bss_end__+0x3771f4>
     c64:	270b3b0b 	strcs	r3, [fp, -fp, lsl #22]
     c68:	11134919 	tstne	r3, r9, lsl r9
     c6c:	40061201 	andmi	r1, r6, r1, lsl #4
     c70:	19429718 	stmdbne	r2, {r3, r4, r8, r9, sl, ip, pc}^
     c74:	00001301 	andeq	r1, r0, r1, lsl #6
     c78:	03003410 	movweq	r3, #1040	; 0x410
     c7c:	3b0b3a08 	blcc	2cf4a4 <__bss_end__+0x2c4dcc>
     c80:	0213490b 	andseq	r4, r3, #180224	; 0x2c000
     c84:	11000017 	tstne	r0, r7, lsl r0
     c88:	00018289 	andeq	r8, r1, r9, lsl #5
     c8c:	13310111 	teqne	r1, #1073741828	; 0x40000004
     c90:	05120000 	ldreq	r0, [r2, #-0]
     c94:	3a0e0300 	bcc	38189c <__bss_end__+0x3771c4>
     c98:	490b3b0b 	stmdbmi	fp, {r0, r1, r3, r8, r9, fp, ip, sp}
     c9c:	00170213 	andseq	r0, r7, r3, lsl r2
     ca0:	012e1300 	teqeq	lr, r0, lsl #6
     ca4:	0e03193f 	mcreq	9, 0, r1, cr3, cr15, {1}
     ca8:	053b0b3a 	ldreq	r0, [fp, #-2874]!	; 0xb3a
     cac:	13491927 	movtne	r1, #39207	; 0x9927
     cb0:	06120111 			; <UNDEFINED> instruction: 0x06120111
     cb4:	42971840 	addsmi	r1, r7, #64, 16	; 0x400000
     cb8:	00130119 	andseq	r0, r3, r9, lsl r1
     cbc:	00051400 	andeq	r1, r5, r0, lsl #8
     cc0:	0b3a0e03 	bleq	e844d4 <__bss_end__+0xe79dfc>
     cc4:	1349053b 	movtne	r0, #38203	; 0x953b
     cc8:	00001702 	andeq	r1, r0, r2, lsl #14
     ccc:	3f012e15 	svccc	0x00012e15
     cd0:	3a0e0319 	bcc	38193c <__bss_end__+0x377264>
     cd4:	27053b0b 	strcs	r3, [r5, -fp, lsl #22]
     cd8:	12011119 	andne	r1, r1, #1073741830	; 0x40000006
     cdc:	97184006 	ldrls	r4, [r8, -r6]
     ce0:	13011942 	movwne	r1, #6466	; 0x1942
     ce4:	05160000 	ldreq	r0, [r6, #-0]
     ce8:	3a080300 	bcc	2018f0 <__bss_end__+0x1f7218>
     cec:	49053b0b 	stmdbmi	r5, {r0, r1, r3, r8, r9, fp, ip, sp}
     cf0:	00170213 	andseq	r0, r7, r3, lsl r2
     cf4:	00341700 	eorseq	r1, r4, r0, lsl #14
     cf8:	0b3a0e03 	bleq	e8450c <__bss_end__+0xe79e34>
     cfc:	1349053b 	movtne	r0, #38203	; 0x953b
     d00:	00001702 	andeq	r1, r0, r2, lsl #14
     d04:	11010b18 	tstne	r1, r8, lsl fp
     d08:	01061201 	tsteq	r6, r1, lsl #4
     d0c:	19000013 	stmdbne	r0, {r0, r1, r4}
     d10:	0e030034 	mcreq	0, 0, r0, cr3, cr4, {1}
     d14:	0b3b0b3a 	bleq	ec3a04 <__bss_end__+0xeb932c>
     d18:	193f1349 	ldmdbne	pc!, {r0, r3, r6, r8, r9, ip}	; <UNPREDICTABLE>
     d1c:	00001802 	andeq	r1, r0, r2, lsl #16
     d20:	0300341a 	movweq	r3, #1050	; 0x41a
     d24:	3b0b3a0e 	blcc	2cf564 <__bss_end__+0x2c4e8c>
     d28:	3f134905 	svccc	0x00134905
     d2c:	00180219 	andseq	r0, r8, r9, lsl r2
     d30:	012e1b00 	teqeq	lr, r0, lsl #22
     d34:	0e03193f 	mcreq	9, 0, r1, cr3, cr15, {1}
     d38:	0b3b0b3a 	bleq	ec3a28 <__bss_end__+0xeb9350>
     d3c:	13491927 	movtne	r1, #39207	; 0x9927
     d40:	1301193c 	movwne	r1, #6460	; 0x193c
     d44:	051c0000 	ldreq	r0, [ip, #-0]
     d48:	00134900 	andseq	r4, r3, r0, lsl #18
     d4c:	00261d00 	eoreq	r1, r6, r0, lsl #26
     d50:	00001349 	andeq	r1, r0, r9, asr #6
     d54:	0000351e 	andeq	r3, r0, lr, lsl r5
     d58:	012e1f00 	teqeq	lr, r0, lsl #30
     d5c:	0e03193f 	mcreq	9, 0, r1, cr3, cr15, {1}
     d60:	0b3b0b3a 	bleq	ec3a50 <__bss_end__+0xeb9378>
     d64:	193c1927 	ldmdbne	ip!, {r0, r1, r2, r5, r8, fp, ip}
     d68:	00001301 	andeq	r1, r0, r1, lsl #6
     d6c:	3f002e20 	svccc	0x00002e20
     d70:	3a0e0319 	bcc	3819dc <__bss_end__+0x377304>
     d74:	270b3b0b 	strcs	r3, [fp, -fp, lsl #22]
     d78:	00193c19 	andseq	r3, r9, r9, lsl ip
     d7c:	11010000 	mrsne	r0, (UNDEF: 1)
     d80:	130e2501 	movwne	r2, #58625	; 0xe501
     d84:	1b0e030b 	blne	3819b8 <__bss_end__+0x3772e0>
     d88:	1201110e 	andne	r1, r1, #-2147483645	; 0x80000003
     d8c:	00171006 	andseq	r1, r7, r6
     d90:	00240200 	eoreq	r0, r4, r0, lsl #4
     d94:	0b3e0b0b 	bleq	f839c8 <__bss_end__+0xf792f0>
     d98:	00000803 	andeq	r0, r0, r3, lsl #16
     d9c:	0b002403 	bleq	9db0 <uart_init+0x80>
     da0:	030b3e0b 	movweq	r3, #48651	; 0xbe0b
     da4:	0400000e 	streq	r0, [r0], #-14
     da8:	0e030016 	mcreq	0, 0, r0, cr3, cr6, {0}
     dac:	0b3b0b3a 	bleq	ec3a9c <__bss_end__+0xeb93c4>
     db0:	00001349 	andeq	r1, r0, r9, asr #6
     db4:	0b000f05 	bleq	49d0 <_start-0x3630>
     db8:	0600000b 	streq	r0, [r0], -fp
     dbc:	0b0b000f 	bleq	2c0e00 <__bss_end__+0x2b6728>
     dc0:	00001349 	andeq	r1, r0, r9, asr #6
     dc4:	49002607 	stmdbmi	r0, {r0, r1, r2, r9, sl, sp}
     dc8:	08000013 	stmdaeq	r0, {r0, r1, r4}
     dcc:	0b0b0113 	bleq	2c1220 <__bss_end__+0x2b6b48>
     dd0:	0b3b0b3a 	bleq	ec3ac0 <__bss_end__+0xeb93e8>
     dd4:	00001301 	andeq	r1, r0, r1, lsl #6
     dd8:	03000d09 	movweq	r0, #3337	; 0xd09
     ddc:	3b0b3a08 	blcc	2cf604 <__bss_end__+0x2c4f2c>
     de0:	3813490b 	ldmdacc	r3, {r0, r1, r3, r8, fp, lr}
     de4:	0a00000b 	beq	e18 <_start-0x71e8>
     de8:	0e03000d 	cdpeq	0, 0, cr0, cr3, cr13, {0}
     dec:	0b3b0b3a 	bleq	ec3adc <__bss_end__+0xeb9404>
     df0:	0b381349 	bleq	e05b1c <__bss_end__+0xdfb444>
     df4:	130b0000 	movwne	r0, #45056	; 0xb000
     df8:	0b0e0301 	bleq	381a04 <__bss_end__+0x37732c>
     dfc:	3b0b3a0b 	blcc	2cf630 <__bss_end__+0x2c4f58>
     e00:	0013010b 	andseq	r0, r3, fp, lsl #2
     e04:	000d0c00 	andeq	r0, sp, r0, lsl #24
     e08:	13490e03 	movtne	r0, #40451	; 0x9e03
     e0c:	19340b38 	ldmdbne	r4!, {r3, r4, r5, r8, r9, fp}
     e10:	2e0d0000 	cdpcs	0, 0, cr0, cr13, cr0, {0}
     e14:	3a0e0301 	bcc	381a20 <__bss_end__+0x377348>
     e18:	270b3b0b 	strcs	r3, [fp, -fp, lsl #22]
     e1c:	010b2019 	tsteq	fp, r9, lsl r0
     e20:	0e000013 	mcreq	0, 0, r0, cr0, cr3, {0}
     e24:	0e030005 	cdpeq	0, 0, cr0, cr3, cr5, {0}
     e28:	0b3b0b3a 	bleq	ec3b18 <__bss_end__+0xeb9440>
     e2c:	00001349 	andeq	r1, r0, r9, asr #6
     e30:	0300050f 	movweq	r0, #1295	; 0x50f
     e34:	3b0b3a08 	blcc	2cf65c <__bss_end__+0x2c4f84>
     e38:	0013490b 	andseq	r4, r3, fp, lsl #18
     e3c:	010b1000 	mrseq	r1, (UNDEF: 11)
     e40:	34110000 	ldrcc	r0, [r1], #-0
     e44:	3a0e0300 	bcc	381a4c <__bss_end__+0x377374>
     e48:	490b3b0b 	stmdbmi	fp, {r0, r1, r3, r8, r9, fp, ip, sp}
     e4c:	12000013 	andne	r0, r0, #19
     e50:	193f012e 	ldmdbne	pc!, {r1, r2, r3, r5, r8}	; <UNPREDICTABLE>
     e54:	0b3a0e03 	bleq	e84668 <__bss_end__+0xe79f90>
     e58:	19270b3b 	stmdbne	r7!, {r0, r1, r3, r4, r5, r8, r9, fp}
     e5c:	06120111 			; <UNDEFINED> instruction: 0x06120111
     e60:	42971840 	addsmi	r1, r7, #64, 16	; 0x400000
     e64:	00130119 	andseq	r0, r3, r9, lsl r1
     e68:	00051300 	andeq	r1, r5, r0, lsl #6
     e6c:	0b3a0e03 	bleq	e84680 <__bss_end__+0xe79fa8>
     e70:	13490b3b 	movtne	r0, #39739	; 0x9b3b
     e74:	00001702 	andeq	r1, r0, r2, lsl #14
     e78:	03000514 	movweq	r0, #1300	; 0x514
     e7c:	3b0b3a08 	blcc	2cf6a4 <__bss_end__+0x2c4fcc>
     e80:	0213490b 	andseq	r4, r3, #180224	; 0x2c000
     e84:	15000017 	strne	r0, [r0, #-23]
     e88:	08030034 	stmdaeq	r3, {r2, r4, r5}
     e8c:	0b3b0b3a 	bleq	ec3b7c <__bss_end__+0xeb94a4>
     e90:	18021349 	stmdane	r2, {r0, r3, r6, r8, r9, ip}
     e94:	34160000 	ldrcc	r0, [r6], #-0
     e98:	3a080300 	bcc	201aa0 <__bss_end__+0x1f73c8>
     e9c:	490b3b0b 	stmdbmi	fp, {r0, r1, r3, r8, r9, fp, ip, sp}
     ea0:	00170213 	andseq	r0, r7, r3, lsl r2
     ea4:	010b1700 	tsteq	fp, r0, lsl #14
     ea8:	06120111 			; <UNDEFINED> instruction: 0x06120111
     eac:	00001301 	andeq	r1, r0, r1, lsl #6
     eb0:	03003418 	movweq	r3, #1048	; 0x418
     eb4:	3b0b3a0e 	blcc	2cf6f4 <__bss_end__+0x2c501c>
     eb8:	0213490b 	andseq	r4, r3, #180224	; 0x2c000
     ebc:	19000018 	stmdbne	r0, {r3, r4}
     ec0:	1331011d 	teqne	r1, #1073741831	; 0x40000007
     ec4:	06120111 			; <UNDEFINED> instruction: 0x06120111
     ec8:	0b590b58 	bleq	1643c30 <__bss_end__+0x1639558>
     ecc:	00001301 	andeq	r1, r0, r1, lsl #6
     ed0:	3100051a 	tstcc	r0, sl, lsl r5
     ed4:	00170213 	andseq	r0, r7, r3, lsl r2
     ed8:	00051b00 	andeq	r1, r5, r0, lsl #22
     edc:	18021331 	stmdane	r2, {r0, r4, r5, r8, r9, ip}
     ee0:	051c0000 	ldreq	r0, [ip, #-0]
     ee4:	1c133100 	ldfnes	f3, [r3], {-0}
     ee8:	1d00000b 	stcne	0, cr0, [r0, #-44]	; 0xffffffd4
     eec:	0111010b 	tsteq	r1, fp, lsl #2
     ef0:	00000612 	andeq	r0, r0, r2, lsl r6
     ef4:	3100341e 	tstcc	r0, lr, lsl r4
     ef8:	00170213 	andseq	r0, r7, r3, lsl r2
     efc:	82891f00 	addhi	r1, r9, #0, 30
     f00:	01110101 	tsteq	r1, r1, lsl #2
     f04:	00001331 	andeq	r1, r0, r1, lsr r3
     f08:	01828a20 	orreq	r8, r2, r0, lsr #20
     f0c:	91180200 	tstls	r8, r0, lsl #4
     f10:	00001842 	andeq	r1, r0, r2, asr #16
     f14:	31011d21 	tstcc	r1, r1, lsr #26
     f18:	12011113 	andne	r1, r1, #-1073741820	; 0xc0000004
     f1c:	590b5806 	stmdbpl	fp, {r1, r2, fp, ip, lr}
     f20:	2200000b 	andcs	r0, r0, #11
     f24:	0e03012e 	adfeqsp	f0, f3, #0.5
     f28:	0b3b0b3a 	bleq	ec3c18 <__bss_end__+0xeb9540>
     f2c:	13491927 	movtne	r1, #39207	; 0x9927
     f30:	13010b20 	movwne	r0, #6944	; 0x1b20
     f34:	2e230000 	cdpcs	0, 2, cr0, cr3, cr0, {0}
     f38:	03193f01 	tsteq	r9, #1, 30
     f3c:	3b0b3a0e 	blcc	2cf77c <__bss_end__+0x2c50a4>
     f40:	4919270b 	ldmdbmi	r9, {r0, r1, r3, r8, r9, sl, sp}
     f44:	12011113 	andne	r1, r1, #-1073741820	; 0xc0000004
     f48:	97184006 	ldrls	r4, [r8, -r6]
     f4c:	13011942 	movwne	r1, #6466	; 0x1942
     f50:	89240000 	stmdbhi	r4!, {}	; <UNPREDICTABLE>
     f54:	11000182 	smlabbne	r0, r2, r1, r0
     f58:	00133101 	andseq	r3, r3, r1, lsl #2
     f5c:	82892500 	addhi	r2, r9, #0, 10
     f60:	01110101 	tsteq	r1, r1, lsl #2
     f64:	13011331 	movwne	r1, #4913	; 0x1331
     f68:	34260000 	strtcc	r0, [r6], #-0
     f6c:	3a0e0300 	bcc	381b74 <__bss_end__+0x37749c>
     f70:	490b3b0b 	stmdbmi	fp, {r0, r1, r3, r8, r9, fp, ip, sp}
     f74:	00170213 	andseq	r0, r7, r3, lsl r2
     f78:	00052700 	andeq	r2, r5, r0, lsl #14
     f7c:	00001331 	andeq	r1, r0, r1, lsr r3
     f80:	03000528 	movweq	r0, #1320	; 0x528
     f84:	3b0b3a0e 	blcc	2cf7c4 <__bss_end__+0x2c50ec>
     f88:	0213490b 	andseq	r4, r3, #180224	; 0x2c000
     f8c:	29000018 	stmdbcs	r0, {r3, r4}
     f90:	0e030034 	mcreq	0, 0, r0, cr3, cr4, {1}
     f94:	19341349 	ldmdbne	r4!, {r0, r3, r6, r8, r9, ip}
     f98:	00001802 	andeq	r1, r0, r2, lsl #16
     f9c:	4901012a 	stmdbmi	r1, {r1, r3, r5, r8}
     fa0:	00130113 	andseq	r0, r3, r3, lsl r1
     fa4:	00212b00 	eoreq	r2, r1, r0, lsl #22
     fa8:	0b2f1349 	bleq	bc5cd4 <__bss_end__+0xbbb5fc>
     fac:	342c0000 	strtcc	r0, [ip], #-0
     fb0:	3a080300 	bcc	201bb8 <__bss_end__+0x1f74e0>
     fb4:	490b3b0b 	stmdbmi	fp, {r0, r1, r3, r8, r9, fp, ip, sp}
     fb8:	00061c13 	andeq	r1, r6, r3, lsl ip
     fbc:	00342d00 	eorseq	r2, r4, r0, lsl #26
     fc0:	0b3a0803 	bleq	e82fd4 <__bss_end__+0xe788fc>
     fc4:	13490b3b 	movtne	r0, #39739	; 0x9b3b
     fc8:	00000b1c 	andeq	r0, r0, ip, lsl fp
     fcc:	0300052e 	movweq	r0, #1326	; 0x52e
     fd0:	3b0b3a08 	blcc	2cf7f8 <__bss_end__+0x2c5120>
     fd4:	0213490b 	andseq	r4, r3, #180224	; 0x2c000
     fd8:	2f000018 	svccs	0x00000018
     fdc:	00000018 	andeq	r0, r0, r8, lsl r0
     fe0:	49002130 	stmdbmi	r0, {r4, r5, r8, sp}
     fe4:	00052f13 	andeq	r2, r5, r3, lsl pc
     fe8:	012e3100 	teqeq	lr, r0, lsl #2
     fec:	0e03193f 	mcreq	9, 0, r1, cr3, cr15, {1}
     ff0:	0b3b0b3a 	bleq	ec3ce0 <__bss_end__+0xeb9608>
     ff4:	193c1927 	ldmdbne	ip!, {r0, r1, r2, r5, r8, fp, ip}
     ff8:	00001301 	andeq	r1, r0, r1, lsl #6
     ffc:	49000532 	stmdbmi	r0, {r1, r4, r5, r8, sl}
    1000:	33000013 	movwcc	r0, #19
    1004:	193f002e 	ldmdbne	pc!, {r1, r2, r3, r5}	; <UNPREDICTABLE>
    1008:	0b3a0e03 	bleq	e8481c <__bss_end__+0xe7a144>
    100c:	19270b3b 	stmdbne	r7!, {r0, r1, r3, r4, r5, r8, r9, fp}
    1010:	193c1349 	ldmdbne	ip!, {r0, r3, r6, r8, r9, ip}
    1014:	2e340000 	cdpcs	0, 3, cr0, cr4, cr0, {0}
    1018:	03193f01 	tsteq	r9, #1, 30
    101c:	3b0b3a0e 	blcc	2cf85c <__bss_end__+0x2c5184>
    1020:	4919270b 	ldmdbmi	r9, {r0, r1, r3, r8, r9, sl, sp}
    1024:	01193c13 	tsteq	r9, r3, lsl ip
    1028:	35000013 	strcc	r0, [r0, #-19]
    102c:	193f002e 	ldmdbne	pc!, {r1, r2, r3, r5}	; <UNPREDICTABLE>
    1030:	0b3a0e03 	bleq	e84844 <__bss_end__+0xe7a16c>
    1034:	19270b3b 	stmdbne	r7!, {r0, r1, r3, r4, r5, r8, r9, fp}
    1038:	0000193c 	andeq	r1, r0, ip, lsr r9
    103c:	3f012e36 	svccc	0x00012e36
    1040:	3a0e0319 	bcc	381cac <__bss_end__+0x3775d4>
    1044:	270b3b0b 	strcs	r3, [fp, -fp, lsl #22]
    1048:	3c134919 	ldccc	9, cr4, [r3], {25}
    104c:	00000019 	andeq	r0, r0, r9, lsl r0
    1050:	25011101 	strcs	r1, [r1, #-257]	; 0x101
    1054:	030b130e 	movweq	r1, #45838	; 0xb30e
    1058:	110e1b0e 	tstne	lr, lr, lsl #22
    105c:	10061201 	andne	r1, r6, r1, lsl #4
    1060:	02000017 	andeq	r0, r0, #23
    1064:	0b0b0024 	bleq	2c10fc <__bss_end__+0x2b6a24>
    1068:	08030b3e 	stmdaeq	r3, {r1, r2, r3, r4, r5, r8, r9, fp}
    106c:	24030000 	strcs	r0, [r3], #-0
    1070:	3e0b0b00 	vmlacc.f64	d0, d11, d0
    1074:	000e030b 	andeq	r0, lr, fp, lsl #6
    1078:	01040400 	tsteq	r4, r0, lsl #8
    107c:	0b3a0b0b 	bleq	e83cb0 <__bss_end__+0xe795d8>
    1080:	13010b3b 	movwne	r0, #6971	; 0x1b3b
    1084:	28050000 	stmdacs	r5, {}	; <UNPREDICTABLE>
    1088:	1c0e0300 	stcne	3, cr0, [lr], {-0}
    108c:	0600000d 	streq	r0, [r0], -sp
    1090:	0e030016 	mcreq	0, 0, r0, cr3, cr6, {0}
    1094:	0b3b0b3a 	bleq	ec3d84 <__bss_end__+0xeb96ac>
    1098:	00001349 	andeq	r1, r0, r9, asr #6
    109c:	3f012e07 	svccc	0x00012e07
    10a0:	3a0e0319 	bcc	381d0c <__bss_end__+0x377634>
    10a4:	270b3b0b 	strcs	r3, [fp, -fp, lsl #22]
    10a8:	12011119 	andne	r1, r1, #1073741830	; 0x40000006
    10ac:	97184006 	ldrls	r4, [r8, -r6]
    10b0:	13011942 	movwne	r1, #6466	; 0x1942
    10b4:	89080000 	stmdbhi	r8, {}	; <UNPREDICTABLE>
    10b8:	11000182 	smlabbne	r0, r2, r1, r0
    10bc:	00133101 	andseq	r3, r3, r1, lsl #2
    10c0:	82890900 	addhi	r0, r9, #0, 18
    10c4:	01110101 	tsteq	r1, r1, lsl #2
    10c8:	13011331 	movwne	r1, #4913	; 0x1331
    10cc:	8a0a0000 	bhi	2810d4 <__bss_end__+0x2769fc>
    10d0:	02000182 	andeq	r0, r0, #-2147483616	; 0x80000020
    10d4:	18429118 	stmdane	r2, {r3, r4, r8, ip, pc}^
    10d8:	2e0b0000 	cdpcs	0, 0, cr0, cr11, cr0, {0}
    10dc:	03193f01 	tsteq	r9, #1, 30
    10e0:	3b0b3a0e 	blcc	2cf920 <__bss_end__+0x2c5248>
    10e4:	4919270b 	ldmdbmi	r9, {r0, r1, r3, r8, r9, sl, sp}
    10e8:	12011113 	andne	r1, r1, #-1073741820	; 0xc0000004
    10ec:	97184006 	ldrls	r4, [r8, -r6]
    10f0:	13011942 	movwne	r1, #6466	; 0x1942
    10f4:	050c0000 	streq	r0, [ip, #-0]
    10f8:	3a080300 	bcc	201d00 <__bss_end__+0x1f7628>
    10fc:	490b3b0b 	stmdbmi	fp, {r0, r1, r3, r8, r9, fp, ip, sp}
    1100:	00170213 	andseq	r0, r7, r3, lsl r2
    1104:	82890d00 	addhi	r0, r9, #0, 26
    1108:	01110101 	tsteq	r1, r1, lsl #2
    110c:	00001331 	andeq	r1, r0, r1, lsr r3
    1110:	0300340e 	movweq	r3, #1038	; 0x40e
    1114:	3b0b3a0e 	blcc	2cf954 <__bss_end__+0x2c527c>
    1118:	3f13490b 	svccc	0x0013490b
    111c:	00180219 	andseq	r0, r8, r9, lsl r2
    1120:	000f0f00 	andeq	r0, pc, r0, lsl #30
    1124:	13490b0b 	movtne	r0, #39691	; 0x9b0b
    1128:	35100000 	ldrcc	r0, [r0, #-0]
    112c:	00134900 	andseq	r4, r3, r0, lsl #18
    1130:	002e1100 	eoreq	r1, lr, r0, lsl #2
    1134:	0e03193f 	mcreq	9, 0, r1, cr3, cr15, {1}
    1138:	0b3b0b3a 	bleq	ec3e28 <__bss_end__+0xeb9750>
    113c:	193c1927 	ldmdbne	ip!, {r0, r1, r2, r5, r8, fp, ip}
    1140:	2e120000 	cdpcs	0, 1, cr0, cr2, cr0, {0}
    1144:	03193f01 	tsteq	r9, #1, 30
    1148:	3b0b3a0e 	blcc	2cf988 <__bss_end__+0x2c52b0>
    114c:	3c19270b 	ldccc	7, cr2, [r9], {11}
    1150:	00130119 	andseq	r0, r3, r9, lsl r1
    1154:	00051300 	andeq	r1, r5, r0, lsl #6
    1158:	00001349 	andeq	r1, r0, r9, asr #6
    115c:	3f012e14 	svccc	0x00012e14
    1160:	3a0e0319 	bcc	381dcc <__bss_end__+0x3776f4>
    1164:	270b3b0b 	strcs	r3, [fp, -fp, lsl #22]
    1168:	3c134919 	ldccc	9, cr4, [r3], {25}
    116c:	00130119 	andseq	r0, r3, r9, lsl r1
    1170:	00261500 	eoreq	r1, r6, r0, lsl #10
    1174:	00001349 	andeq	r1, r0, r9, asr #6
    1178:	00003516 	andeq	r3, r0, r6, lsl r5
    117c:	11010000 	mrsne	r0, (UNDEF: 1)
    1180:	130e2501 	movwne	r2, #58625	; 0xe501
    1184:	1b0e030b 	blne	381db8 <__bss_end__+0x3776e0>
    1188:	1201110e 	andne	r1, r1, #-2147483645	; 0x80000003
    118c:	00171006 	andseq	r1, r7, r6
    1190:	00240200 	eoreq	r0, r4, r0, lsl #4
    1194:	0b3e0b0b 	bleq	f83dc8 <__bss_end__+0xf796f0>
    1198:	00000803 	andeq	r0, r0, r3, lsl #16
    119c:	03001603 	movweq	r1, #1539	; 0x603
    11a0:	3b0b3a0e 	blcc	2cf9e0 <__bss_end__+0x2c5308>
    11a4:	0013490b 	andseq	r4, r3, fp, lsl #18
    11a8:	00240400 	eoreq	r0, r4, r0, lsl #8
    11ac:	0b3e0b0b 	bleq	f83de0 <__bss_end__+0xf79708>
    11b0:	00000e03 	andeq	r0, r0, r3, lsl #28
    11b4:	0b000f05 	bleq	4dd0 <_start-0x3230>
    11b8:	0600000b 	streq	r0, [r0], -fp
    11bc:	0b0b0113 	bleq	2c1610 <__bss_end__+0x2b6f38>
    11c0:	0b3b0b3a 	bleq	ec3eb0 <__bss_end__+0xeb97d8>
    11c4:	00001301 	andeq	r1, r0, r1, lsl #6
    11c8:	03000d07 	movweq	r0, #3335	; 0xd07
    11cc:	3b0b3a08 	blcc	2cf9f4 <__bss_end__+0x2c531c>
    11d0:	3813490b 	ldmdacc	r3, {r0, r1, r3, r8, fp, lr}
    11d4:	0800000b 	stmdaeq	r0, {r0, r1, r3}
    11d8:	0e03000d 	cdpeq	0, 0, cr0, cr3, cr13, {0}
    11dc:	0b3b0b3a 	bleq	ec3ecc <__bss_end__+0xeb97f4>
    11e0:	0b381349 	bleq	e05f0c <__bss_end__+0xdfb834>
    11e4:	04090000 	streq	r0, [r9], #-0
    11e8:	3a0b0b01 	bcc	2c3df4 <__bss_end__+0x2b971c>
    11ec:	010b3b0b 	tsteq	fp, fp, lsl #22
    11f0:	0a000013 	beq	1244 <_start-0x6dbc>
    11f4:	0e030028 	cdpeq	0, 0, cr0, cr3, cr8, {1}
    11f8:	00000d1c 	andeq	r0, r0, ip, lsl sp
    11fc:	3f012e0b 	svccc	0x00012e0b
    1200:	3a0e0319 	bcc	381e6c <__bss_end__+0x377794>
    1204:	270b3b0b 	strcs	r3, [fp, -fp, lsl #22]
    1208:	11134919 	tstne	r3, r9, lsl r9
    120c:	40061201 	andmi	r1, r6, r1, lsl #4
    1210:	19429718 	stmdbne	r2, {r3, r4, r8, r9, sl, ip, pc}^
    1214:	00001301 	andeq	r1, r0, r1, lsl #6
    1218:	0300340c 	movweq	r3, #1036	; 0x40c
    121c:	3b0b3a08 	blcc	2cfa44 <__bss_end__+0x2c536c>
    1220:	1c13490b 	ldcne	9, cr4, [r3], {11}
    1224:	0d000006 	stceq	0, cr0, [r0, #-24]	; 0xffffffe8
    1228:	01018289 	smlabbeq	r1, r9, r2, r8
    122c:	13310111 	teqne	r1, #1073741828	; 0x40000004
    1230:	8a0e0000 	bhi	381238 <__bss_end__+0x376b60>
    1234:	02000182 	andeq	r0, r0, #-2147483616	; 0x80000020
    1238:	18429118 	stmdane	r2, {r3, r4, r8, ip, pc}^
    123c:	0f0f0000 	svceq	0x000f0000
    1240:	490b0b00 	stmdbmi	fp, {r8, r9, fp}
    1244:	10000013 	andne	r0, r0, r3, lsl r0
    1248:	193f012e 	ldmdbne	pc!, {r1, r2, r3, r5, r8}	; <UNPREDICTABLE>
    124c:	0b3a0e03 	bleq	e84a60 <__bss_end__+0xe7a388>
    1250:	19270b3b 	stmdbne	r7!, {r0, r1, r3, r4, r5, r8, r9, fp}
    1254:	193c1349 	ldmdbne	ip!, {r0, r3, r6, r8, r9, ip}
    1258:	05110000 	ldreq	r0, [r1, #-0]
    125c:	00134900 	andseq	r4, r3, r0, lsl #18
    1260:	11010000 	mrsne	r0, (UNDEF: 1)
    1264:	130e2501 	movwne	r2, #58625	; 0xe501
    1268:	1b0e030b 	blne	381e9c <__bss_end__+0x3777c4>
    126c:	1201110e 	andne	r1, r1, #-2147483645	; 0x80000003
    1270:	00171006 	andseq	r1, r7, r6
    1274:	00240200 	eoreq	r0, r4, r0, lsl #4
    1278:	0b3e0b0b 	bleq	f83eac <__bss_end__+0xf797d4>
    127c:	00000e03 	andeq	r0, r0, r3, lsl #28
    1280:	0b002403 	bleq	a294 <__FUNCTION__.4376+0x80>
    1284:	030b3e0b 	movweq	r3, #48651	; 0xbe0b
    1288:	04000008 	streq	r0, [r0], #-8
    128c:	0b0b000f 	bleq	2c12d0 <__bss_end__+0x2b6bf8>
    1290:	0f050000 	svceq	0x00050000
    1294:	490b0b00 	stmdbmi	fp, {r8, r9, fp}
    1298:	06000013 			; <UNDEFINED> instruction: 0x06000013
    129c:	0e030016 	mcreq	0, 0, r0, cr3, cr6, {0}
    12a0:	0b3b0b3a 	bleq	ec3f90 <__bss_end__+0xeb98b8>
    12a4:	00001349 	andeq	r1, r0, r9, asr #6
    12a8:	3f012e07 	svccc	0x00012e07
    12ac:	3a0e0319 	bcc	381f18 <__bss_end__+0x377840>
    12b0:	270b3b0b 	strcs	r3, [fp, -fp, lsl #22]
    12b4:	11134919 	tstne	r3, r9, lsl r9
    12b8:	40061201 	andmi	r1, r6, r1, lsl #4
    12bc:	19429718 	stmdbne	r2, {r3, r4, r8, r9, sl, ip, pc}^
    12c0:	05080000 	streq	r0, [r8, #-0]
    12c4:	3a080300 	bcc	201ecc <__bss_end__+0x1f77f4>
    12c8:	490b3b0b 	stmdbmi	fp, {r0, r1, r3, r8, r9, fp, ip, sp}
    12cc:	00180213 	andseq	r0, r8, r3, lsl r2
    12d0:	00050900 	andeq	r0, r5, r0, lsl #18
    12d4:	0b3a0803 	bleq	e832e8 <__bss_end__+0xe78c10>
    12d8:	13490b3b 	movtne	r0, #39739	; 0x9b3b
    12dc:	00001702 	andeq	r1, r0, r2, lsl #14
    12e0:	0300340a 	movweq	r3, #1034	; 0x40a
    12e4:	3b0b3a08 	blcc	2cfb0c <__bss_end__+0x2c5434>
    12e8:	0213490b 	andseq	r4, r3, #180224	; 0x2c000
    12ec:	0b000017 	bleq	1350 <_start-0x6cb0>
    12f0:	08030034 	stmdaeq	r3, {r2, r4, r5}
    12f4:	0b3b0b3a 	bleq	ec3fe4 <__bss_end__+0xeb990c>
    12f8:	18021349 	stmdane	r2, {r0, r3, r6, r8, r9, ip}
    12fc:	Address 0x00000000000012fc is out of bounds.


Disassembly of section .debug_loc:

00000000 <.debug_loc>:
       0:	00000058 	andeq	r0, r0, r8, asr r0
       4:	00000080 	andeq	r0, r0, r0, lsl #1
       8:	80540001 	subshi	r0, r4, r1
       c:	a8000000 	stmdage	r0, {}	; <UNPREDICTABLE>
      10:	06000000 	streq	r0, [r0], -r0
      14:	7c007400 	cfstrsvc	mvf7, [r0], {-0}
      18:	a89f2100 	ldmge	pc, {r8, sp}	; <UNPREDICTABLE>
      1c:	d0000000 	andle	r0, r0, r0
      20:	09000000 	stmdbeq	r0, {}	; <UNPREDICTABLE>
      24:	7c007400 	cfstrsvc	mvf7, [r0], {-0}
      28:	00712100 	rsbseq	r2, r1, r0, lsl #2
      2c:	00d09f21 	sbcseq	r9, r0, r1, lsr #30
      30:	00f80000 	rscseq	r0, r8, r0
      34:	000c0000 	andeq	r0, ip, r0
      38:	007c0074 	rsbseq	r0, ip, r4, ror r0
      3c:	21007121 	tstcs	r0, r1, lsr #2
      40:	9f210075 	svcls	0x00210075
      44:	000000f8 	strdeq	r0, [r0], -r8
      48:	00000120 	andeq	r0, r0, r0, lsr #2
      4c:	0074000f 	rsbseq	r0, r4, pc
      50:	7121007c 	teqvc	r1, ip, ror r0
      54:	00752100 	rsbseq	r2, r5, r0, lsl #2
      58:	21007721 	tstcs	r0, r1, lsr #14
      5c:	0001209f 	muleq	r1, pc, r0	; <UNPREDICTABLE>
      60:	00014800 	andeq	r4, r1, r0, lsl #16
      64:	74001200 	strvc	r1, [r0], #-512	; 0x200
      68:	21007c00 	tstcs	r0, r0, lsl #24
      6c:	75210071 	strvc	r0, [r1, #-113]!	; 0x71
      70:	00772100 	rsbseq	r2, r7, r0, lsl #2
      74:	21007821 	tstcs	r0, r1, lsr #16
      78:	0001489f 	muleq	r1, pc, r8	; <UNPREDICTABLE>
      7c:	00016000 	andeq	r6, r1, r0
      80:	74001500 	strvc	r1, [r0], #-1280	; 0x500
      84:	21007c00 	tstcs	r0, r0, lsl #24
      88:	75210071 	strvc	r0, [r1, #-113]!	; 0x71
      8c:	00772100 	rsbseq	r2, r7, r0, lsl #2
      90:	21007821 	tstcs	r0, r1, lsr #16
      94:	9f210079 	svcls	0x00210079
      98:	00000184 	andeq	r0, r0, r4, lsl #3
      9c:	000001c8 	andeq	r0, r0, r8, asr #3
      a0:	00500001 	subseq	r0, r0, r1
      a4:	00000000 	andeq	r0, r0, r0
      a8:	20000000 	andcs	r0, r0, r0
      ac:	24000000 	strcs	r0, [r0], #-0
      b0:	01000000 	mrseq	r0, (UNDEF: 0)
      b4:	00005200 	andeq	r5, r0, r0, lsl #4
      b8:	00000000 	andeq	r0, r0, r0
      bc:	00340000 	eorseq	r0, r4, r0
      c0:	00380000 	eorseq	r0, r8, r0
      c4:	00010000 	andeq	r0, r1, r0
      c8:	00000052 	andeq	r0, r0, r2, asr r0
      cc:	00000000 	andeq	r0, r0, r0
      d0:	00005c00 	andeq	r5, r0, r0, lsl #24
      d4:	00006000 	andeq	r6, r0, r0
      d8:	52000100 	andpl	r0, r0, #0, 2
	...
      e4:	00000084 	andeq	r0, r0, r4, lsl #1
      e8:	00000088 	andeq	r0, r0, r8, lsl #1
      ec:	00520001 	subseq	r0, r2, r1
      f0:	00000000 	andeq	r0, r0, r0
      f4:	ac000000 	stcge	0, cr0, [r0], {-0}
      f8:	b0000000 	andlt	r0, r0, r0
      fc:	01000000 	mrseq	r0, (UNDEF: 0)
     100:	00005200 	andeq	r5, r0, r0, lsl #4
     104:	00000000 	andeq	r0, r0, r0
     108:	00d40000 	sbcseq	r0, r4, r0
     10c:	00d80000 	sbcseq	r0, r8, r0
     110:	00010000 	andeq	r0, r1, r0
     114:	00000052 	andeq	r0, r0, r2, asr r0
     118:	00000000 	andeq	r0, r0, r0
     11c:	0000fc00 	andeq	pc, r0, r0, lsl #24
     120:	00010000 	andeq	r0, r1, r0
     124:	52000100 	andpl	r0, r0, #0, 2
	...
     130:	00000124 	andeq	r0, r0, r4, lsr #2
     134:	00000128 	andeq	r0, r0, r8, lsr #2
     138:	00520001 	subseq	r0, r2, r1
     13c:	00000000 	andeq	r0, r0, r0
     140:	4c000000 	stcmi	0, cr0, [r0], {-0}
     144:	50000001 	andpl	r0, r0, r1
     148:	01000001 	tsteq	r0, r1
     14c:	00005200 	andeq	r5, r0, r0, lsl #4
     150:	00000000 	andeq	r0, r0, r0
     154:	01880000 	orreq	r0, r8, r0
     158:	018c0000 	orreq	r0, ip, r0
     15c:	00010000 	andeq	r0, r1, r0
     160:	00000052 	andeq	r0, r0, r2, asr r0
     164:	00000000 	andeq	r0, r0, r0
     168:	0001c800 	andeq	ip, r1, r0, lsl #16
     16c:	0003ac00 	andeq	sl, r3, r0, lsl #24
     170:	50000100 	andpl	r0, r0, r0, lsl #2
     174:	000003ac 	andeq	r0, r0, ip, lsr #7
     178:	000003f4 	strdeq	r0, [r0], -r4
     17c:	01f30004 	mvnseq	r0, r4
     180:	00009f50 	andeq	r9, r0, r0, asr pc
     184:	00000000 	andeq	r0, r0, r0
     188:	01f40000 	mvnseq	r0, r0
     18c:	01f80000 	mvnseq	r0, r0
     190:	00010000 	andeq	r0, r1, r0
     194:	00000052 	andeq	r0, r0, r2, asr r0
     198:	00000000 	andeq	r0, r0, r0
     19c:	00020000 	andeq	r0, r2, r0
     1a0:	0003ac00 	andeq	sl, r3, r0, lsl #24
     1a4:	70000800 	andvc	r0, r0, r0, lsl #16
     1a8:	081a3100 	ldmdaeq	sl, {r8, ip, sp}
     1ac:	009f1aff 			; <UNDEFINED> instruction: 0x009f1aff
     1b0:	00000000 	andeq	r0, r0, r0
     1b4:	08000000 	stmdaeq	r0, {}	; <UNPREDICTABLE>
     1b8:	3c000002 	stccc	0, cr0, [r0], {2}
     1bc:	08000002 	stmdaeq	r0, {r1}
     1c0:	31007000 	mrscc	r7, (UNDEF: 0)
     1c4:	1aff081a 	bne	fffc2234 <__bss_end__+0xfffb7b5c>
     1c8:	00023c9f 	muleq	r2, pc, ip	; <UNPREDICTABLE>
     1cc:	00027000 	andeq	r7, r2, r0
     1d0:	70000800 	andvc	r0, r0, r0, lsl #16
     1d4:	081a3200 	ldmdaeq	sl, {r9, ip, sp}
     1d8:	709f1aff 			; <UNDEFINED> instruction: 0x709f1aff
     1dc:	a4000002 	strge	r0, [r0], #-2
     1e0:	08000002 	stmdaeq	r0, {r1}
     1e4:	34007000 	strcc	r7, [r0], #-0
     1e8:	1aff081a 	bne	fffc2258 <__bss_end__+0xfffb7b80>
     1ec:	0002a49f 	muleq	r2, pc, r4	; <UNPREDICTABLE>
     1f0:	0002d800 	andeq	sp, r2, r0, lsl #16
     1f4:	70000800 	andvc	r0, r0, r0, lsl #16
     1f8:	081a3800 	ldmdaeq	sl, {fp, ip, sp}
     1fc:	d89f1aff 	ldmle	pc, {r0, r1, r2, r3, r4, r5, r6, r7, r9, fp, ip}	; <UNPREDICTABLE>
     200:	0c000002 	stceq	0, cr0, [r0], {2}
     204:	08000003 	stmdaeq	r0, {r0, r1}
     208:	40007000 	andmi	r7, r0, r0
     20c:	1aff081a 	bne	fffc227c <__bss_end__+0xfffb7ba4>
     210:	00030c9f 	muleq	r3, pc, ip	; <UNPREDICTABLE>
     214:	00034000 	andeq	r4, r3, r0
     218:	70000900 	andvc	r0, r0, r0, lsl #18
     21c:	1a200800 	bne	802224 <__bss_end__+0x7f7b4c>
     220:	9f1aff08 	svcls	0x001aff08
     224:	00000340 	andeq	r0, r0, r0, asr #6
     228:	00000374 	andeq	r0, r0, r4, ror r3
     22c:	00700009 	rsbseq	r0, r0, r9
     230:	081a4008 	ldmdaeq	sl, {r3, lr}
     234:	749f1aff 	ldrvc	r1, [pc], #2815	; 23c <_start-0x7dc4>
     238:	ac000003 	stcge	0, cr0, [r0], {3}
     23c:	09000003 	stmdbeq	r0, {r0, r1}
     240:	09007000 	stmdbeq	r0, {ip, sp, lr}
     244:	ff081a80 			; <UNDEFINED> instruction: 0xff081a80
     248:	00009f1a 	andeq	r9, r0, sl, lsl pc
     24c:	00000000 	andeq	r0, r0, r0
     250:	02280000 	eoreq	r0, r8, #0
     254:	022c0000 	eoreq	r0, ip, #0
     258:	00010000 	andeq	r0, r1, r0
     25c:	00000052 	andeq	r0, r0, r2, asr r0
     260:	00000000 	andeq	r0, r0, r0
     264:	00023400 	andeq	r3, r2, r0, lsl #8
     268:	0003ac00 	andeq	sl, r3, r0, lsl #24
     26c:	70000800 	andvc	r0, r0, r0, lsl #16
     270:	081a3200 	ldmdaeq	sl, {r9, ip, sp}
     274:	009f1aff 			; <UNDEFINED> instruction: 0x009f1aff
     278:	00000000 	andeq	r0, r0, r0
     27c:	3c000000 	stccc	0, cr0, [r0], {-0}
     280:	70000002 	andvc	r0, r0, r2
     284:	08000002 	stmdaeq	r0, {r1}
     288:	32007000 	andcc	r7, r0, #0
     28c:	1aff081a 	bne	fffc22fc <__bss_end__+0xfffb7c24>
     290:	0002709f 	muleq	r2, pc, r0	; <UNPREDICTABLE>
     294:	0002a400 	andeq	sl, r2, r0, lsl #8
     298:	70000800 	andvc	r0, r0, r0, lsl #16
     29c:	081a3400 	ldmdaeq	sl, {sl, ip, sp}
     2a0:	a49f1aff 	ldrge	r1, [pc], #2815	; 2a8 <_start-0x7d58>
     2a4:	d8000002 	stmdale	r0, {r1}
     2a8:	08000002 	stmdaeq	r0, {r1}
     2ac:	38007000 	stmdacc	r0, {ip, sp, lr}
     2b0:	1aff081a 	bne	fffc2320 <__bss_end__+0xfffb7c48>
     2b4:	0002d89f 	muleq	r2, pc, r8	; <UNPREDICTABLE>
     2b8:	00030c00 	andeq	r0, r3, r0, lsl #24
     2bc:	70000800 	andvc	r0, r0, r0, lsl #16
     2c0:	081a4000 	ldmdaeq	sl, {lr}
     2c4:	0c9f1aff 	vldmiaeq	pc, {s2-s256}
     2c8:	40000003 	andmi	r0, r0, r3
     2cc:	09000003 	stmdbeq	r0, {r0, r1}
     2d0:	08007000 	stmdaeq	r0, {ip, sp, lr}
     2d4:	ff081a20 			; <UNDEFINED> instruction: 0xff081a20
     2d8:	03409f1a 	movteq	r9, #3866	; 0xf1a
     2dc:	03740000 	cmneq	r4, #0
     2e0:	00090000 	andeq	r0, r9, r0
     2e4:	40080070 	andmi	r0, r8, r0, ror r0
     2e8:	1aff081a 	bne	fffc2358 <__bss_end__+0xfffb7c80>
     2ec:	0003749f 	muleq	r3, pc, r4	; <UNPREDICTABLE>
     2f0:	0003ac00 	andeq	sl, r3, r0, lsl #24
     2f4:	70000900 	andvc	r0, r0, r0, lsl #18
     2f8:	1a800900 	bne	fe002700 <__bss_end__+0xfdff8028>
     2fc:	9f1aff08 	svcls	0x001aff08
	...
     308:	0000025c 	andeq	r0, r0, ip, asr r2
     30c:	00000260 	andeq	r0, r0, r0, ror #4
     310:	00520001 	subseq	r0, r2, r1
     314:	00000000 	andeq	r0, r0, r0
     318:	68000000 	stmdavs	r0, {}	; <UNPREDICTABLE>
     31c:	ac000002 	stcge	0, cr0, [r0], {2}
     320:	08000003 	stmdaeq	r0, {r0, r1}
     324:	34007000 	strcc	r7, [r0], #-0
     328:	1aff081a 	bne	fffc2398 <__bss_end__+0xfffb7cc0>
     32c:	0000009f 	muleq	r0, pc, r0	; <UNPREDICTABLE>
     330:	00000000 	andeq	r0, r0, r0
     334:	00027000 	andeq	r7, r2, r0
     338:	0002a400 	andeq	sl, r2, r0, lsl #8
     33c:	70000800 	andvc	r0, r0, r0, lsl #16
     340:	081a3400 	ldmdaeq	sl, {sl, ip, sp}
     344:	a49f1aff 	ldrge	r1, [pc], #2815	; 34c <_start-0x7cb4>
     348:	d8000002 	stmdale	r0, {r1}
     34c:	08000002 	stmdaeq	r0, {r1}
     350:	38007000 	stmdacc	r0, {ip, sp, lr}
     354:	1aff081a 	bne	fffc23c4 <__bss_end__+0xfffb7cec>
     358:	0002d89f 	muleq	r2, pc, r8	; <UNPREDICTABLE>
     35c:	00030c00 	andeq	r0, r3, r0, lsl #24
     360:	70000800 	andvc	r0, r0, r0, lsl #16
     364:	081a4000 	ldmdaeq	sl, {lr}
     368:	0c9f1aff 	vldmiaeq	pc, {s2-s256}
     36c:	40000003 	andmi	r0, r0, r3
     370:	09000003 	stmdbeq	r0, {r0, r1}
     374:	08007000 	stmdaeq	r0, {ip, sp, lr}
     378:	ff081a20 			; <UNDEFINED> instruction: 0xff081a20
     37c:	03409f1a 	movteq	r9, #3866	; 0xf1a
     380:	03740000 	cmneq	r4, #0
     384:	00090000 	andeq	r0, r9, r0
     388:	40080070 	andmi	r0, r8, r0, ror r0
     38c:	1aff081a 	bne	fffc23fc <__bss_end__+0xfffb7d24>
     390:	0003749f 	muleq	r3, pc, r4	; <UNPREDICTABLE>
     394:	0003ac00 	andeq	sl, r3, r0, lsl #24
     398:	70000900 	andvc	r0, r0, r0, lsl #18
     39c:	1a800900 	bne	fe0027a4 <__bss_end__+0xfdff80cc>
     3a0:	9f1aff08 	svcls	0x001aff08
	...
     3ac:	00000290 	muleq	r0, r0, r2
     3b0:	00000294 	muleq	r0, r4, r2
     3b4:	00520001 	subseq	r0, r2, r1
     3b8:	00000000 	andeq	r0, r0, r0
     3bc:	9c000000 	stcls	0, cr0, [r0], {-0}
     3c0:	ac000002 	stcge	0, cr0, [r0], {2}
     3c4:	08000003 	stmdaeq	r0, {r0, r1}
     3c8:	38007000 	stmdacc	r0, {ip, sp, lr}
     3cc:	1aff081a 	bne	fffc243c <__bss_end__+0xfffb7d64>
     3d0:	0000009f 	muleq	r0, pc, r0	; <UNPREDICTABLE>
     3d4:	00000000 	andeq	r0, r0, r0
     3d8:	0002a400 	andeq	sl, r2, r0, lsl #8
     3dc:	0002d800 	andeq	sp, r2, r0, lsl #16
     3e0:	70000800 	andvc	r0, r0, r0, lsl #16
     3e4:	081a3800 	ldmdaeq	sl, {fp, ip, sp}
     3e8:	d89f1aff 	ldmle	pc, {r0, r1, r2, r3, r4, r5, r6, r7, r9, fp, ip}	; <UNPREDICTABLE>
     3ec:	0c000002 	stceq	0, cr0, [r0], {2}
     3f0:	08000003 	stmdaeq	r0, {r0, r1}
     3f4:	40007000 	andmi	r7, r0, r0
     3f8:	1aff081a 	bne	fffc2468 <__bss_end__+0xfffb7d90>
     3fc:	00030c9f 	muleq	r3, pc, ip	; <UNPREDICTABLE>
     400:	00034000 	andeq	r4, r3, r0
     404:	70000900 	andvc	r0, r0, r0, lsl #18
     408:	1a200800 	bne	802410 <__bss_end__+0x7f7d38>
     40c:	9f1aff08 	svcls	0x001aff08
     410:	00000340 	andeq	r0, r0, r0, asr #6
     414:	00000374 	andeq	r0, r0, r4, ror r3
     418:	00700009 	rsbseq	r0, r0, r9
     41c:	081a4008 	ldmdaeq	sl, {r3, lr}
     420:	749f1aff 	ldrvc	r1, [pc], #2815	; 428 <_start-0x7bd8>
     424:	ac000003 	stcge	0, cr0, [r0], {3}
     428:	09000003 	stmdbeq	r0, {r0, r1}
     42c:	09007000 	stmdbeq	r0, {ip, sp, lr}
     430:	ff081a80 			; <UNDEFINED> instruction: 0xff081a80
     434:	00009f1a 	andeq	r9, r0, sl, lsl pc
     438:	00000000 	andeq	r0, r0, r0
     43c:	02c40000 	sbceq	r0, r4, #0
     440:	02c80000 	sbceq	r0, r8, #0
     444:	00010000 	andeq	r0, r1, r0
     448:	00000052 	andeq	r0, r0, r2, asr r0
     44c:	00000000 	andeq	r0, r0, r0
     450:	0002d000 	andeq	sp, r2, r0
     454:	0003ac00 	andeq	sl, r3, r0, lsl #24
     458:	70000800 	andvc	r0, r0, r0, lsl #16
     45c:	081a4000 	ldmdaeq	sl, {lr}
     460:	009f1aff 			; <UNDEFINED> instruction: 0x009f1aff
     464:	00000000 	andeq	r0, r0, r0
     468:	d8000000 	stmdale	r0, {}	; <UNPREDICTABLE>
     46c:	0c000002 	stceq	0, cr0, [r0], {2}
     470:	08000003 	stmdaeq	r0, {r0, r1}
     474:	40007000 	andmi	r7, r0, r0
     478:	1aff081a 	bne	fffc24e8 <__bss_end__+0xfffb7e10>
     47c:	00030c9f 	muleq	r3, pc, ip	; <UNPREDICTABLE>
     480:	00034000 	andeq	r4, r3, r0
     484:	70000900 	andvc	r0, r0, r0, lsl #18
     488:	1a200800 	bne	802490 <__bss_end__+0x7f7db8>
     48c:	9f1aff08 	svcls	0x001aff08
     490:	00000340 	andeq	r0, r0, r0, asr #6
     494:	00000374 	andeq	r0, r0, r4, ror r3
     498:	00700009 	rsbseq	r0, r0, r9
     49c:	081a4008 	ldmdaeq	sl, {r3, lr}
     4a0:	749f1aff 	ldrvc	r1, [pc], #2815	; 4a8 <_start-0x7b58>
     4a4:	ac000003 	stcge	0, cr0, [r0], {3}
     4a8:	09000003 	stmdbeq	r0, {r0, r1}
     4ac:	09007000 	stmdbeq	r0, {ip, sp, lr}
     4b0:	ff081a80 			; <UNDEFINED> instruction: 0xff081a80
     4b4:	00009f1a 	andeq	r9, r0, sl, lsl pc
     4b8:	00000000 	andeq	r0, r0, r0
     4bc:	02f80000 	rscseq	r0, r8, #0
     4c0:	02fc0000 	rscseq	r0, ip, #0
     4c4:	00010000 	andeq	r0, r1, r0
     4c8:	00000052 	andeq	r0, r0, r2, asr r0
     4cc:	00000000 	andeq	r0, r0, r0
     4d0:	00030400 	andeq	r0, r3, r0, lsl #8
     4d4:	0003ac00 	andeq	sl, r3, r0, lsl #24
     4d8:	70000900 	andvc	r0, r0, r0, lsl #18
     4dc:	1a200800 	bne	8024e4 <__bss_end__+0x7f7e0c>
     4e0:	9f1aff08 	svcls	0x001aff08
	...
     4ec:	0000030c 	andeq	r0, r0, ip, lsl #6
     4f0:	00000340 	andeq	r0, r0, r0, asr #6
     4f4:	00700009 	rsbseq	r0, r0, r9
     4f8:	081a2008 	ldmdaeq	sl, {r3, sp}
     4fc:	409f1aff 			; <UNDEFINED> instruction: 0x409f1aff
     500:	74000003 	strvc	r0, [r0], #-3
     504:	09000003 	stmdbeq	r0, {r0, r1}
     508:	08007000 	stmdaeq	r0, {ip, sp, lr}
     50c:	ff081a40 			; <UNDEFINED> instruction: 0xff081a40
     510:	03749f1a 	cmneq	r4, #26, 30	; 0x68
     514:	03ac0000 			; <UNDEFINED> instruction: 0x03ac0000
     518:	00090000 	andeq	r0, r9, r0
     51c:	80090070 	andhi	r0, r9, r0, ror r0
     520:	1aff081a 	bne	fffc2590 <__bss_end__+0xfffb7eb8>
     524:	0000009f 	muleq	r0, pc, r0	; <UNPREDICTABLE>
     528:	00000000 	andeq	r0, r0, r0
     52c:	00032c00 	andeq	r2, r3, r0, lsl #24
     530:	00033000 	andeq	r3, r3, r0
     534:	52000100 	andpl	r0, r0, #0, 2
	...
     540:	00000338 	andeq	r0, r0, r8, lsr r3
     544:	000003ac 	andeq	r0, r0, ip, lsr #7
     548:	00700009 	rsbseq	r0, r0, r9
     54c:	081a4008 	ldmdaeq	sl, {r3, lr}
     550:	009f1aff 			; <UNDEFINED> instruction: 0x009f1aff
     554:	00000000 	andeq	r0, r0, r0
     558:	40000000 	andmi	r0, r0, r0
     55c:	74000003 	strvc	r0, [r0], #-3
     560:	09000003 	stmdbeq	r0, {r0, r1}
     564:	08007000 	stmdaeq	r0, {ip, sp, lr}
     568:	ff081a40 			; <UNDEFINED> instruction: 0xff081a40
     56c:	03749f1a 	cmneq	r4, #26, 30	; 0x68
     570:	03ac0000 			; <UNDEFINED> instruction: 0x03ac0000
     574:	00090000 	andeq	r0, r9, r0
     578:	80090070 	andhi	r0, r9, r0, ror r0
     57c:	1aff081a 	bne	fffc25ec <__bss_end__+0xfffb7f14>
     580:	0000009f 	muleq	r0, pc, r0	; <UNPREDICTABLE>
     584:	00000000 	andeq	r0, r0, r0
     588:	00036000 	andeq	r6, r3, r0
     58c:	00036400 	andeq	r6, r3, r0, lsl #8
     590:	52000100 	andpl	r0, r0, #0, 2
	...
     59c:	0000036c 	andeq	r0, r0, ip, ror #6
     5a0:	000003ac 	andeq	r0, r0, ip, lsr #7
     5a4:	00700009 	rsbseq	r0, r0, r9
     5a8:	081a8009 	ldmdaeq	sl, {r0, r3, pc}
     5ac:	009f1aff 			; <UNDEFINED> instruction: 0x009f1aff
     5b0:	00000000 	andeq	r0, r0, r0
     5b4:	74000000 	strvc	r0, [r0], #-0
     5b8:	ac000003 	stcge	0, cr0, [r0], {3}
     5bc:	09000003 	stmdbeq	r0, {r0, r1}
     5c0:	09007000 	stmdbeq	r0, {ip, sp, lr}
     5c4:	ff081a80 			; <UNDEFINED> instruction: 0xff081a80
     5c8:	00009f1a 	andeq	r9, r0, sl, lsl pc
     5cc:	00000000 	andeq	r0, r0, r0
     5d0:	03940000 	orrseq	r0, r4, #0
     5d4:	03980000 	orrseq	r0, r8, #0
     5d8:	00010000 	andeq	r0, r1, r0
     5dc:	00000052 	andeq	r0, r0, r2, asr r0
     5e0:	00000000 	andeq	r0, r0, r0
     5e4:	0003b800 	andeq	fp, r3, r0, lsl #16
     5e8:	0003bc00 	andeq	fp, r3, r0, lsl #24
     5ec:	52000100 	andpl	r0, r0, #0, 2
	...
     5f8:	000003f4 	strdeq	r0, [r0], -r4
     5fc:	0000040c 	andeq	r0, r0, ip, lsl #8
     600:	0c500001 	mrrceq	0, 0, r0, r0, cr1	; <UNPREDICTABLE>
     604:	1c000004 	stcne	0, cr0, [r0], {4}
     608:	04000004 	streq	r0, [r0], #-4
     60c:	5001f300 	andpl	pc, r1, r0, lsl #6
     610:	00041c9f 	muleq	r4, pc, ip	; <UNPREDICTABLE>
     614:	00041f00 	andeq	r1, r4, r0, lsl #30
     618:	50000100 	andpl	r0, r0, r0, lsl #2
     61c:	0000041f 	andeq	r0, r0, pc, lsl r4
     620:	00000444 	andeq	r0, r0, r4, asr #8
     624:	01f30004 	mvnseq	r0, r4
     628:	00009f50 	andeq	r9, r0, r0, asr pc
     62c:	00000000 	andeq	r0, r0, r0
     630:	04140000 	ldreq	r0, [r4], #-0
     634:	04180000 	ldreq	r0, [r8], #-0
     638:	00010000 	andeq	r0, r1, r0
     63c:	00000050 	andeq	r0, r0, r0, asr r0
     640:	00000000 	andeq	r0, r0, r0
     644:	00044400 	andeq	r4, r4, r0, lsl #8
     648:	0004dc00 	andeq	sp, r4, r0, lsl #24
     64c:	50000100 	andpl	r0, r0, r0, lsl #2
     650:	000004dc 	ldrdeq	r0, [r0], -ip
     654:	0000060c 	andeq	r0, r0, ip, lsl #12
     658:	01f30004 	mvnseq	r0, r4
     65c:	00009f50 	andeq	r9, r0, r0, asr pc
     660:	00000000 	andeq	r0, r0, r0
     664:	04440000 	strbeq	r0, [r4], #-0
     668:	049c0000 	ldreq	r0, [ip], #0
     66c:	00020000 	andeq	r0, r2, r0
     670:	049c9f30 	ldreq	r9, [ip], #3888	; 0xf30
     674:	04c40000 	strbeq	r0, [r4], #0
     678:	00010000 	andeq	r0, r1, r0
     67c:	0004c454 	andeq	ip, r4, r4, asr r4
     680:	0004ec00 	andeq	lr, r4, r0, lsl #24
     684:	74000600 	strvc	r0, [r0], #-1536	; 0x600
     688:	21007c00 	tstcs	r0, r0, lsl #24
     68c:	0004ec9f 	muleq	r4, pc, ip	; <UNPREDICTABLE>
     690:	00051400 	andeq	r1, r5, r0, lsl #8
     694:	74000900 	strvc	r0, [r0], #-2304	; 0x900
     698:	21007c00 	tstcs	r0, r0, lsl #24
     69c:	9f210071 	svcls	0x00210071
     6a0:	00000514 	andeq	r0, r0, r4, lsl r5
     6a4:	0000053c 	andeq	r0, r0, ip, lsr r5
     6a8:	0074000c 	rsbseq	r0, r4, ip
     6ac:	7121007c 	teqvc	r1, ip, ror r0
     6b0:	00752100 	rsbseq	r2, r5, r0, lsl #2
     6b4:	053c9f21 	ldreq	r9, [ip, #-3873]!	; 0xf21
     6b8:	05640000 	strbeq	r0, [r4, #-0]!
     6bc:	000f0000 	andeq	r0, pc, r0
     6c0:	007c0074 	rsbseq	r0, ip, r4, ror r0
     6c4:	21007121 	tstcs	r0, r1, lsr #2
     6c8:	77210075 			; <UNDEFINED> instruction: 0x77210075
     6cc:	649f2100 	ldrvs	r2, [pc], #256	; 6d4 <_start-0x792c>
     6d0:	8c000005 	stchi	0, cr0, [r0], {5}
     6d4:	12000005 	andne	r0, r0, #5
     6d8:	7c007400 	cfstrsvc	mvf7, [r0], {-0}
     6dc:	00712100 	rsbseq	r2, r1, r0, lsl #2
     6e0:	21007521 	tstcs	r0, r1, lsr #10
     6e4:	78210077 	stmdavc	r1!, {r0, r1, r2, r4, r5, r6}
     6e8:	8c9f2100 	ldfhis	f2, [pc], {0}
     6ec:	a4000005 	strge	r0, [r0], #-5
     6f0:	15000005 	strne	r0, [r0, #-5]
     6f4:	7c007400 	cfstrsvc	mvf7, [r0], {-0}
     6f8:	00712100 	rsbseq	r2, r1, r0, lsl #2
     6fc:	21007521 	tstcs	r0, r1, lsr #10
     700:	78210077 	stmdavc	r1!, {r0, r1, r2, r4, r5, r6}
     704:	00792100 	rsbseq	r2, r9, r0, lsl #2
     708:	05c89f21 	strbeq	r9, [r8, #3873]	; 0xf21
     70c:	060c0000 	streq	r0, [ip], -r0
     710:	00010000 	andeq	r0, r1, r0
     714:	00000050 	andeq	r0, r0, r0, asr r0
     718:	00000000 	andeq	r0, r0, r0
     71c:	00046400 	andeq	r6, r4, r0, lsl #8
     720:	00046800 	andeq	r6, r4, r0, lsl #16
     724:	52000100 	andpl	r0, r0, #0, 2
	...
     730:	00000478 	andeq	r0, r0, r8, ror r4
     734:	0000047c 	andeq	r0, r0, ip, ror r4
     738:	00520001 	subseq	r0, r2, r1
     73c:	00000000 	andeq	r0, r0, r0
     740:	a0000000 	andge	r0, r0, r0
     744:	a4000004 	strge	r0, [r0], #-4
     748:	01000004 	tsteq	r0, r4
     74c:	00005200 	andeq	r5, r0, r0, lsl #4
     750:	00000000 	andeq	r0, r0, r0
     754:	04c80000 	strbeq	r0, [r8], #0
     758:	04cc0000 	strbeq	r0, [ip], #0
     75c:	00010000 	andeq	r0, r1, r0
     760:	00000052 	andeq	r0, r0, r2, asr r0
     764:	00000000 	andeq	r0, r0, r0
     768:	0004f000 	andeq	pc, r4, r0
     76c:	0004f400 	andeq	pc, r4, r0, lsl #8
     770:	52000100 	andpl	r0, r0, #0, 2
	...
     77c:	00000518 	andeq	r0, r0, r8, lsl r5
     780:	0000051c 	andeq	r0, r0, ip, lsl r5
     784:	00520001 	subseq	r0, r2, r1
     788:	00000000 	andeq	r0, r0, r0
     78c:	40000000 	andmi	r0, r0, r0
     790:	44000005 	strmi	r0, [r0], #-5
     794:	01000005 	tsteq	r0, r5
     798:	00005200 	andeq	r5, r0, r0, lsl #4
     79c:	00000000 	andeq	r0, r0, r0
     7a0:	05680000 	strbeq	r0, [r8, #-0]!
     7a4:	056c0000 	strbeq	r0, [ip, #-0]!
     7a8:	00010000 	andeq	r0, r1, r0
     7ac:	00000052 	andeq	r0, r0, r2, asr r0
     7b0:	00000000 	andeq	r0, r0, r0
     7b4:	00059000 	andeq	r9, r5, r0
     7b8:	00059400 	andeq	r9, r5, r0, lsl #8
     7bc:	52000100 	andpl	r0, r0, #0, 2
	...
     7c8:	000005cc 	andeq	r0, r0, ip, asr #11
     7cc:	000005d0 	ldrdeq	r0, [r0], -r0	; <UNPREDICTABLE>
     7d0:	00520001 	subseq	r0, r2, r1
     7d4:	00000000 	andeq	r0, r0, r0
     7d8:	0c000000 	stceq	0, cr0, [r0], {-0}
     7dc:	30000006 	andcc	r0, r0, r6
     7e0:	01000006 	tsteq	r0, r6
     7e4:	06305000 	ldrteq	r5, [r0], -r0
     7e8:	08480000 	stmdaeq	r8, {}^	; <UNPREDICTABLE>
     7ec:	00040000 	andeq	r0, r4, r0
     7f0:	9f5001f3 	svcls	0x005001f3
	...
     7fc:	0000060c 	andeq	r0, r0, ip, lsl #12
     800:	000007c8 	andeq	r0, r0, r8, asr #15
     804:	c8510001 	ldmdagt	r1, {r0}^
     808:	48000007 	stmdami	r0, {r0, r1, r2}
     80c:	04000008 	streq	r0, [r0], #-8
     810:	5101f300 	mrspl	pc, SP_irq	; <UNPREDICTABLE>
     814:	0000009f 	muleq	r0, pc, r0	; <UNPREDICTABLE>
     818:	00000000 	andeq	r0, r0, r0
     81c:	00060c00 	andeq	r0, r6, r0, lsl #24
     820:	00061800 	andeq	r1, r6, r0, lsl #16
     824:	52000100 	andpl	r0, r0, #0, 2
     828:	00000618 	andeq	r0, r0, r8, lsl r6
     82c:	00000848 	andeq	r0, r0, r8, asr #16
     830:	01f30004 	mvnseq	r0, r4
     834:	00009f52 	andeq	r9, r0, r2, asr pc
     838:	00000000 	andeq	r0, r0, r0
     83c:	06280000 	strteq	r0, [r8], -r0
     840:	06300000 	ldrteq	r0, [r0], -r0
     844:	00010000 	andeq	r0, r1, r0
     848:	00063050 	andeq	r3, r6, r0, asr r0
     84c:	00084800 	andeq	r4, r8, r0, lsl #16
     850:	f3000400 	vshl.u8	d0, d0, d0
     854:	009f5001 	addseq	r5, pc, r1
     858:	00000000 	andeq	r0, r0, r0
     85c:	44000000 	strmi	r0, [r0], #-0
     860:	48000006 	stmdami	r0, {r1, r2}
     864:	01000006 	tsteq	r0, r6
     868:	00005200 	andeq	r5, r0, r0, lsl #4
     86c:	00000000 	andeq	r0, r0, r0
     870:	06500000 	ldrbeq	r0, [r0], -r0
     874:	07c80000 	strbeq	r0, [r8, r0]
     878:	00080000 	andeq	r0, r8, r0
     87c:	1a310071 	bne	c40a48 <__bss_end__+0xc36370>
     880:	9f1aff08 	svcls	0x001aff08
	...
     88c:	00000658 	andeq	r0, r0, r8, asr r6
     890:	0000068c 	andeq	r0, r0, ip, lsl #13
     894:	00710008 	rsbseq	r0, r1, r8
     898:	ff081a31 			; <UNDEFINED> instruction: 0xff081a31
     89c:	068c9f1a 	pkhbteq	r9, ip, sl, lsl #30
     8a0:	06c00000 	strbeq	r0, [r0], r0
     8a4:	00080000 	andeq	r0, r8, r0
     8a8:	1a320071 	bne	c80a74 <__bss_end__+0xc7639c>
     8ac:	9f1aff08 	svcls	0x001aff08
     8b0:	000006c0 	andeq	r0, r0, r0, asr #13
     8b4:	000006f4 	strdeq	r0, [r0], -r4
     8b8:	00710008 	rsbseq	r0, r1, r8
     8bc:	ff081a34 			; <UNDEFINED> instruction: 0xff081a34
     8c0:	06f49f1a 	usateq	r9, #20, sl, lsl #30
     8c4:	07280000 	streq	r0, [r8, -r0]!
     8c8:	00080000 	andeq	r0, r8, r0
     8cc:	1a380071 	bne	e00a98 <__bss_end__+0xdf63c0>
     8d0:	9f1aff08 	svcls	0x001aff08
     8d4:	00000728 	andeq	r0, r0, r8, lsr #14
     8d8:	0000075c 	andeq	r0, r0, ip, asr r7
     8dc:	00710008 	rsbseq	r0, r1, r8
     8e0:	ff081a40 			; <UNDEFINED> instruction: 0xff081a40
     8e4:	075c9f1a 	smmlaeq	ip, sl, pc, r9	; <UNPREDICTABLE>
     8e8:	07900000 	ldreq	r0, [r0, r0]
     8ec:	00090000 	andeq	r0, r9, r0
     8f0:	20080071 	andcs	r0, r8, r1, ror r0
     8f4:	1aff081a 	bne	fffc2964 <__bss_end__+0xfffb828c>
     8f8:	0007909f 	muleq	r7, pc, r0	; <UNPREDICTABLE>
     8fc:	0007c400 	andeq	ip, r7, r0, lsl #8
     900:	71000900 	tstvc	r0, r0, lsl #18
     904:	1a400800 	bne	100290c <__bss_end__+0xff8234>
     908:	9f1aff08 	svcls	0x001aff08
     90c:	000007c4 	andeq	r0, r0, r4, asr #15
     910:	000007c8 	andeq	r0, r0, r8, asr #15
     914:	00710009 	rsbseq	r0, r1, r9
     918:	081a8009 	ldmdaeq	sl, {r0, r3, pc}
     91c:	009f1aff 			; <UNDEFINED> instruction: 0x009f1aff
     920:	00000000 	andeq	r0, r0, r0
     924:	78000000 	stmdavc	r0, {}	; <UNPREDICTABLE>
     928:	7c000006 	stcvc	0, cr0, [r0], {6}
     92c:	01000006 	tsteq	r0, r6
     930:	00005200 	andeq	r5, r0, r0, lsl #4
     934:	00000000 	andeq	r0, r0, r0
     938:	06840000 	streq	r0, [r4], r0
     93c:	07c80000 	strbeq	r0, [r8, r0]
     940:	00080000 	andeq	r0, r8, r0
     944:	1a320071 	bne	c80b10 <__bss_end__+0xc76438>
     948:	9f1aff08 	svcls	0x001aff08
	...
     954:	0000068c 	andeq	r0, r0, ip, lsl #13
     958:	000006c0 	andeq	r0, r0, r0, asr #13
     95c:	00710008 	rsbseq	r0, r1, r8
     960:	ff081a32 			; <UNDEFINED> instruction: 0xff081a32
     964:	06c09f1a 			; <UNDEFINED> instruction: 0x06c09f1a
     968:	06f40000 	ldrbteq	r0, [r4], r0
     96c:	00080000 	andeq	r0, r8, r0
     970:	1a340071 	bne	d00b3c <__bss_end__+0xcf6464>
     974:	9f1aff08 	svcls	0x001aff08
     978:	000006f4 	strdeq	r0, [r0], -r4
     97c:	00000728 	andeq	r0, r0, r8, lsr #14
     980:	00710008 	rsbseq	r0, r1, r8
     984:	ff081a38 			; <UNDEFINED> instruction: 0xff081a38
     988:	07289f1a 			; <UNDEFINED> instruction: 0x07289f1a
     98c:	075c0000 	ldrbeq	r0, [ip, -r0]
     990:	00080000 	andeq	r0, r8, r0
     994:	1a400071 	bne	1000b60 <__bss_end__+0xff6488>
     998:	9f1aff08 	svcls	0x001aff08
     99c:	0000075c 	andeq	r0, r0, ip, asr r7
     9a0:	00000790 	muleq	r0, r0, r7
     9a4:	00710009 	rsbseq	r0, r1, r9
     9a8:	081a2008 	ldmdaeq	sl, {r3, sp}
     9ac:	909f1aff 			; <UNDEFINED> instruction: 0x909f1aff
     9b0:	c4000007 	strgt	r0, [r0], #-7
     9b4:	09000007 	stmdbeq	r0, {r0, r1, r2}
     9b8:	08007100 	stmdaeq	r0, {r8, ip, sp, lr}
     9bc:	ff081a40 			; <UNDEFINED> instruction: 0xff081a40
     9c0:	07c49f1a 	bfieq	r9, sl, (invalid: 30:4)
     9c4:	07c80000 	strbeq	r0, [r8, r0]
     9c8:	00090000 	andeq	r0, r9, r0
     9cc:	80090071 	andhi	r0, r9, r1, ror r0
     9d0:	1aff081a 	bne	fffc2a40 <__bss_end__+0xfffb8368>
     9d4:	0000009f 	muleq	r0, pc, r0	; <UNPREDICTABLE>
     9d8:	00000000 	andeq	r0, r0, r0
     9dc:	0006ac00 	andeq	sl, r6, r0, lsl #24
     9e0:	0006b000 	andeq	fp, r6, r0
     9e4:	52000100 	andpl	r0, r0, #0, 2
	...
     9f0:	000006b8 			; <UNDEFINED> instruction: 0x000006b8
     9f4:	000007c8 	andeq	r0, r0, r8, asr #15
     9f8:	00710008 	rsbseq	r0, r1, r8
     9fc:	ff081a34 			; <UNDEFINED> instruction: 0xff081a34
     a00:	00009f1a 	andeq	r9, r0, sl, lsl pc
     a04:	00000000 	andeq	r0, r0, r0
     a08:	06c00000 	strbeq	r0, [r0], r0
     a0c:	06f40000 	ldrbteq	r0, [r4], r0
     a10:	00080000 	andeq	r0, r8, r0
     a14:	1a340071 	bne	d00be0 <__bss_end__+0xcf6508>
     a18:	9f1aff08 	svcls	0x001aff08
     a1c:	000006f4 	strdeq	r0, [r0], -r4
     a20:	00000728 	andeq	r0, r0, r8, lsr #14
     a24:	00710008 	rsbseq	r0, r1, r8
     a28:	ff081a38 			; <UNDEFINED> instruction: 0xff081a38
     a2c:	07289f1a 			; <UNDEFINED> instruction: 0x07289f1a
     a30:	075c0000 	ldrbeq	r0, [ip, -r0]
     a34:	00080000 	andeq	r0, r8, r0
     a38:	1a400071 	bne	1000c04 <__bss_end__+0xff652c>
     a3c:	9f1aff08 	svcls	0x001aff08
     a40:	0000075c 	andeq	r0, r0, ip, asr r7
     a44:	00000790 	muleq	r0, r0, r7
     a48:	00710009 	rsbseq	r0, r1, r9
     a4c:	081a2008 	ldmdaeq	sl, {r3, sp}
     a50:	909f1aff 			; <UNDEFINED> instruction: 0x909f1aff
     a54:	c4000007 	strgt	r0, [r0], #-7
     a58:	09000007 	stmdbeq	r0, {r0, r1, r2}
     a5c:	08007100 	stmdaeq	r0, {r8, ip, sp, lr}
     a60:	ff081a40 			; <UNDEFINED> instruction: 0xff081a40
     a64:	07c49f1a 	bfieq	r9, sl, (invalid: 30:4)
     a68:	07c80000 	strbeq	r0, [r8, r0]
     a6c:	00090000 	andeq	r0, r9, r0
     a70:	80090071 	andhi	r0, r9, r1, ror r0
     a74:	1aff081a 	bne	fffc2ae4 <__bss_end__+0xfffb840c>
     a78:	0000009f 	muleq	r0, pc, r0	; <UNPREDICTABLE>
     a7c:	00000000 	andeq	r0, r0, r0
     a80:	0006e000 	andeq	lr, r6, r0
     a84:	0006e400 	andeq	lr, r6, r0, lsl #8
     a88:	52000100 	andpl	r0, r0, #0, 2
	...
     a94:	000006ec 	andeq	r0, r0, ip, ror #13
     a98:	000007c8 	andeq	r0, r0, r8, asr #15
     a9c:	00710008 	rsbseq	r0, r1, r8
     aa0:	ff081a38 			; <UNDEFINED> instruction: 0xff081a38
     aa4:	00009f1a 	andeq	r9, r0, sl, lsl pc
     aa8:	00000000 	andeq	r0, r0, r0
     aac:	06f40000 	ldrbteq	r0, [r4], r0
     ab0:	07280000 	streq	r0, [r8, -r0]!
     ab4:	00080000 	andeq	r0, r8, r0
     ab8:	1a380071 	bne	e00c84 <__bss_end__+0xdf65ac>
     abc:	9f1aff08 	svcls	0x001aff08
     ac0:	00000728 	andeq	r0, r0, r8, lsr #14
     ac4:	0000075c 	andeq	r0, r0, ip, asr r7
     ac8:	00710008 	rsbseq	r0, r1, r8
     acc:	ff081a40 			; <UNDEFINED> instruction: 0xff081a40
     ad0:	075c9f1a 	smmlaeq	ip, sl, pc, r9	; <UNPREDICTABLE>
     ad4:	07900000 	ldreq	r0, [r0, r0]
     ad8:	00090000 	andeq	r0, r9, r0
     adc:	20080071 	andcs	r0, r8, r1, ror r0
     ae0:	1aff081a 	bne	fffc2b50 <__bss_end__+0xfffb8478>
     ae4:	0007909f 	muleq	r7, pc, r0	; <UNPREDICTABLE>
     ae8:	0007c400 	andeq	ip, r7, r0, lsl #8
     aec:	71000900 	tstvc	r0, r0, lsl #18
     af0:	1a400800 	bne	1002af8 <__bss_end__+0xff8420>
     af4:	9f1aff08 	svcls	0x001aff08
     af8:	000007c4 	andeq	r0, r0, r4, asr #15
     afc:	000007c8 	andeq	r0, r0, r8, asr #15
     b00:	00710009 	rsbseq	r0, r1, r9
     b04:	081a8009 	ldmdaeq	sl, {r0, r3, pc}
     b08:	009f1aff 			; <UNDEFINED> instruction: 0x009f1aff
     b0c:	00000000 	andeq	r0, r0, r0
     b10:	14000000 	strne	r0, [r0], #-0
     b14:	18000007 	stmdane	r0, {r0, r1, r2}
     b18:	01000007 	tsteq	r0, r7
     b1c:	00005200 	andeq	r5, r0, r0, lsl #4
     b20:	00000000 	andeq	r0, r0, r0
     b24:	07200000 	streq	r0, [r0, -r0]!
     b28:	07c80000 	strbeq	r0, [r8, r0]
     b2c:	00080000 	andeq	r0, r8, r0
     b30:	1a400071 	bne	1000cfc <__bss_end__+0xff6624>
     b34:	9f1aff08 	svcls	0x001aff08
	...
     b40:	00000728 	andeq	r0, r0, r8, lsr #14
     b44:	0000075c 	andeq	r0, r0, ip, asr r7
     b48:	00710008 	rsbseq	r0, r1, r8
     b4c:	ff081a40 			; <UNDEFINED> instruction: 0xff081a40
     b50:	075c9f1a 	smmlaeq	ip, sl, pc, r9	; <UNPREDICTABLE>
     b54:	07900000 	ldreq	r0, [r0, r0]
     b58:	00090000 	andeq	r0, r9, r0
     b5c:	20080071 	andcs	r0, r8, r1, ror r0
     b60:	1aff081a 	bne	fffc2bd0 <__bss_end__+0xfffb84f8>
     b64:	0007909f 	muleq	r7, pc, r0	; <UNPREDICTABLE>
     b68:	0007c400 	andeq	ip, r7, r0, lsl #8
     b6c:	71000900 	tstvc	r0, r0, lsl #18
     b70:	1a400800 	bne	1002b78 <__bss_end__+0xff84a0>
     b74:	9f1aff08 	svcls	0x001aff08
     b78:	000007c4 	andeq	r0, r0, r4, asr #15
     b7c:	000007c8 	andeq	r0, r0, r8, asr #15
     b80:	00710009 	rsbseq	r0, r1, r9
     b84:	081a8009 	ldmdaeq	sl, {r0, r3, pc}
     b88:	009f1aff 			; <UNDEFINED> instruction: 0x009f1aff
     b8c:	00000000 	andeq	r0, r0, r0
     b90:	48000000 	stmdami	r0, {}	; <UNPREDICTABLE>
     b94:	4c000007 	stcmi	0, cr0, [r0], {7}
     b98:	01000007 	tsteq	r0, r7
     b9c:	00005200 	andeq	r5, r0, r0, lsl #4
     ba0:	00000000 	andeq	r0, r0, r0
     ba4:	07540000 	ldrbeq	r0, [r4, -r0]
     ba8:	07c80000 	strbeq	r0, [r8, r0]
     bac:	00090000 	andeq	r0, r9, r0
     bb0:	20080071 	andcs	r0, r8, r1, ror r0
     bb4:	1aff081a 	bne	fffc2c24 <__bss_end__+0xfffb854c>
     bb8:	0000009f 	muleq	r0, pc, r0	; <UNPREDICTABLE>
     bbc:	00000000 	andeq	r0, r0, r0
     bc0:	00075c00 	andeq	r5, r7, r0, lsl #24
     bc4:	00079000 	andeq	r9, r7, r0
     bc8:	71000900 	tstvc	r0, r0, lsl #18
     bcc:	1a200800 	bne	802bd4 <__bss_end__+0x7f84fc>
     bd0:	9f1aff08 	svcls	0x001aff08
     bd4:	00000790 	muleq	r0, r0, r7
     bd8:	000007c4 	andeq	r0, r0, r4, asr #15
     bdc:	00710009 	rsbseq	r0, r1, r9
     be0:	081a4008 	ldmdaeq	sl, {r3, lr}
     be4:	c49f1aff 	ldrgt	r1, [pc], #2815	; bec <_start-0x7414>
     be8:	c8000007 	stmdagt	r0, {r0, r1, r2}
     bec:	09000007 	stmdbeq	r0, {r0, r1, r2}
     bf0:	09007100 	stmdbeq	r0, {r8, ip, sp, lr}
     bf4:	ff081a80 			; <UNDEFINED> instruction: 0xff081a80
     bf8:	00009f1a 	andeq	r9, r0, sl, lsl pc
     bfc:	00000000 	andeq	r0, r0, r0
     c00:	077c0000 	ldrbeq	r0, [ip, -r0]!
     c04:	07800000 	streq	r0, [r0, r0]
     c08:	00010000 	andeq	r0, r1, r0
     c0c:	00000052 	andeq	r0, r0, r2, asr r0
     c10:	00000000 	andeq	r0, r0, r0
     c14:	00078800 	andeq	r8, r7, r0, lsl #16
     c18:	0007c800 	andeq	ip, r7, r0, lsl #16
     c1c:	71000900 	tstvc	r0, r0, lsl #18
     c20:	1a400800 	bne	1002c28 <__bss_end__+0xff8550>
     c24:	9f1aff08 	svcls	0x001aff08
	...
     c30:	00000790 	muleq	r0, r0, r7
     c34:	000007c4 	andeq	r0, r0, r4, asr #15
     c38:	00710009 	rsbseq	r0, r1, r9
     c3c:	081a4008 	ldmdaeq	sl, {r3, lr}
     c40:	c49f1aff 	ldrgt	r1, [pc], #2815	; c48 <_start-0x73b8>
     c44:	c8000007 	stmdagt	r0, {r0, r1, r2}
     c48:	09000007 	stmdbeq	r0, {r0, r1, r2}
     c4c:	09007100 	stmdbeq	r0, {r8, ip, sp, lr}
     c50:	ff081a80 			; <UNDEFINED> instruction: 0xff081a80
     c54:	00009f1a 	andeq	r9, r0, sl, lsl pc
     c58:	00000000 	andeq	r0, r0, r0
     c5c:	07b00000 	ldreq	r0, [r0, r0]!
     c60:	07b40000 	ldreq	r0, [r4, r0]!
     c64:	00010000 	andeq	r0, r1, r0
     c68:	00000052 	andeq	r0, r0, r2, asr r0
     c6c:	00000000 	andeq	r0, r0, r0
     c70:	0007bc00 	andeq	fp, r7, r0, lsl #24
     c74:	0007c800 	andeq	ip, r7, r0, lsl #16
     c78:	71000900 	tstvc	r0, r0, lsl #18
     c7c:	1a800900 	bne	fe003084 <__bss_end__+0xfdff89ac>
     c80:	9f1aff08 	svcls	0x001aff08
	...
     c8c:	000007c4 	andeq	r0, r0, r4, asr #15
     c90:	000007c8 	andeq	r0, r0, r8, asr #15
     c94:	00710009 	rsbseq	r0, r1, r9
     c98:	081a8009 	ldmdaeq	sl, {r0, r3, pc}
     c9c:	009f1aff 			; <UNDEFINED> instruction: 0x009f1aff
     ca0:	00000000 	andeq	r0, r0, r0
     ca4:	e4000000 	str	r0, [r0], #-0
     ca8:	e8000007 	stmda	r0, {r0, r1, r2}
     cac:	01000007 	tsteq	r0, r7
     cb0:	00005200 	andeq	r5, r0, r0, lsl #4
     cb4:	00000000 	andeq	r0, r0, r0
     cb8:	08080000 	stmdaeq	r8, {}	; <UNPREDICTABLE>
     cbc:	080c0000 	stmdaeq	ip, {}	; <UNPREDICTABLE>
     cc0:	00010000 	andeq	r0, r1, r0
     cc4:	00000052 	andeq	r0, r0, r2, asr r0
     cc8:	00000000 	andeq	r0, r0, r0
     ccc:	00089800 	andeq	r9, r8, r0, lsl #16
     cd0:	0008cc00 	andeq	ip, r8, r0, lsl #24
     cd4:	30000200 	andcc	r0, r0, r0, lsl #4
     cd8:	0008cc9f 	muleq	r8, pc, ip	; <UNPREDICTABLE>
     cdc:	0008cf00 	andeq	ip, r8, r0, lsl #30
     ce0:	70000500 	andvc	r0, r0, r0, lsl #10
     ce4:	9f244800 	svcls	0x00244800
     ce8:	000008cf 	andeq	r0, r0, pc, asr #17
     cec:	000008d4 	ldrdeq	r0, [r0], -r4
     cf0:	00760005 	rsbseq	r0, r6, r5
     cf4:	d49f2448 	ldrle	r2, [pc], #1096	; cfc <_start-0x7304>
     cf8:	d7000008 	strle	r0, [r0, -r8]
     cfc:	0a000008 	beq	d24 <_start-0x72dc>
     d00:	48007600 	stmdami	r0, {r9, sl, ip, sp, lr}
     d04:	40007024 	andmi	r7, r0, r4, lsr #32
     d08:	d79f2124 	ldrle	r2, [pc, r4, lsr #2]
     d0c:	dc000008 	stcle	0, cr0, [r0], {8}
     d10:	0a000008 	beq	d38 <_start-0x72c8>
     d14:	48007600 	stmdami	r0, {r9, sl, ip, sp, lr}
     d18:	40007724 	andmi	r7, r0, r4, lsr #14
     d1c:	dc9f2124 	ldfles	f2, [pc], {36}	; 0x24
     d20:	df000008 	svcle	0x00000008
     d24:	0f000008 	svceq	0x00000008
     d28:	48007600 	stmdami	r0, {r9, sl, ip, sp, lr}
     d2c:	40007724 	andmi	r7, r0, r4, lsr #14
     d30:	00702124 	rsbseq	r2, r0, r4, lsr #2
     d34:	9f212438 	svcls	0x00212438
     d38:	000008df 	ldrdeq	r0, [r0], -pc	; <UNPREDICTABLE>
     d3c:	000008e4 	andeq	r0, r0, r4, ror #17
     d40:	0076000f 	rsbseq	r0, r6, pc
     d44:	00772448 	rsbseq	r2, r7, r8, asr #8
     d48:	75212440 	strvc	r2, [r1, #-1088]!	; 0x440
     d4c:	21243800 	teqcs	r4, r0, lsl #16
     d50:	0008e89f 	muleq	r8, pc, r8	; <UNPREDICTABLE>
     d54:	0008f000 	andeq	pc, r8, r0
     d58:	75000800 	strvc	r0, [r0, #-2048]	; 0x800
     d5c:	76243800 	strtvc	r3, [r4], -r0, lsl #16
     d60:	f09f2100 			; <UNDEFINED> instruction: 0xf09f2100
     d64:	fc000008 	stc2	0, cr0, [r0], {8}
     d68:	01000008 	tsteq	r0, r8
     d6c:	08fc5100 	ldmeq	ip!, {r8, ip, lr}^
     d70:	09100000 	ldmdbeq	r0, {}	; <UNPREDICTABLE>
     d74:	00020000 	andeq	r0, r2, r0
     d78:	09149f30 	ldmdbeq	r4, {r4, r5, r8, r9, sl, fp, ip, pc}
     d7c:	091f0000 	ldmdbeq	pc, {}	; <UNPREDICTABLE>
     d80:	00010000 	andeq	r0, r1, r0
     d84:	00000051 	andeq	r0, r0, r1, asr r0
     d88:	00000000 	andeq	r0, r0, r0
     d8c:	00089800 	andeq	r9, r8, r0, lsl #16
     d90:	0008a000 	andeq	sl, r8, r0
     d94:	31000200 	mrscc	r0, R8_usr
     d98:	0008a09f 	muleq	r8, pc, r0	; <UNPREDICTABLE>
     d9c:	00090400 	andeq	r0, r9, r0, lsl #8
     da0:	54000100 	strpl	r0, [r0], #-256	; 0x100
     da4:	00000904 	andeq	r0, r0, r4, lsl #18
     da8:	00000910 	andeq	r0, r0, r0, lsl r9
     dac:	000a0004 	andeq	r0, sl, r4
     db0:	09149f10 	ldmdbeq	r4, {r4, r8, r9, sl, fp, ip, pc}
     db4:	09380000 	ldmdbeq	r8!, {}	; <UNPREDICTABLE>
     db8:	00010000 	andeq	r0, r1, r0
     dbc:	00000054 	andeq	r0, r0, r4, asr r0
     dc0:	00000000 	andeq	r0, r0, r0
     dc4:	00002c00 	andeq	r2, r0, r0, lsl #24
     dc8:	00003800 	andeq	r3, r0, r0, lsl #16
     dcc:	50000100 	andpl	r0, r0, r0, lsl #2
     dd0:	00000038 	andeq	r0, r0, r8, lsr r0
     dd4:	00000048 	andeq	r0, r0, r8, asr #32
     dd8:	48550001 	ldmdami	r5, {r0}^
     ddc:	58000000 	stmdapl	r0, {}	; <UNPREDICTABLE>
     de0:	01000000 	mrseq	r0, (UNDEF: 0)
     de4:	00005000 	andeq	r5, r0, r0
	...
     df0:	000b0000 	andeq	r0, fp, r0
     df4:	00010000 	andeq	r0, r1, r0
     df8:	00000b50 	andeq	r0, r0, r0, asr fp
     dfc:	00001400 	andeq	r1, r0, r0, lsl #8
     e00:	54000100 	strpl	r0, [r0], #-256	; 0x100
	...
     e10:	00000010 	andeq	r0, r0, r0, lsl r0
     e14:	10500001 	subsne	r0, r0, r1
     e18:	34000000 	strcc	r0, [r0], #-0
     e1c:	01000000 	mrseq	r0, (UNDEF: 0)
     e20:	00005400 	andeq	r5, r0, r0, lsl #8
	...
     e2c:	00040000 	andeq	r0, r4, r0
     e30:	00010000 	andeq	r0, r1, r0
     e34:	00000450 	andeq	r0, r0, r0, asr r4
     e38:	00000c00 	andeq	r0, r0, r0, lsl #24
     e3c:	70000300 	andvc	r0, r0, r0, lsl #6
     e40:	000c9f30 	andeq	r9, ip, r0, lsr pc
     e44:	00140000 	andseq	r0, r4, r0
     e48:	00040000 	andeq	r0, r4, r0
     e4c:	9f5001f3 	svcls	0x005001f3
	...
     e58:	00000014 	andeq	r0, r0, r4, lsl r0
     e5c:	00000020 	andeq	r0, r0, r0, lsr #32
     e60:	20500001 	subscs	r0, r0, r1
     e64:	2c000000 	stccs	0, cr0, [r0], {-0}
     e68:	03000000 	movweq	r0, #0
     e6c:	9f017000 	svcls	0x00017000
     e70:	0000002c 	andeq	r0, r0, ip, lsr #32
     e74:	00000040 	andeq	r0, r0, r0, asr #32
     e78:	00500001 	subseq	r0, r0, r1
     e7c:	00000000 	andeq	r0, r0, r0
     e80:	14000000 	strne	r0, [r0], #-0
     e84:	18000000 	stmdane	r0, {}	; <UNPREDICTABLE>
     e88:	01000000 	mrseq	r0, (UNDEF: 0)
     e8c:	00185100 	andseq	r5, r8, r0, lsl #2
     e90:	00400000 	subeq	r0, r0, r0
     e94:	00040000 	andeq	r0, r4, r0
     e98:	9f5101f3 	svcls	0x005101f3
	...
     ea4:	00000040 	andeq	r0, r0, r0, asr #32
     ea8:	00000060 	andeq	r0, r0, r0, rrx
     eac:	60500001 	subsvs	r0, r0, r1
     eb0:	6c000000 	stcvs	0, cr0, [r0], {-0}
     eb4:	03000000 	movweq	r0, #0
     eb8:	9f017100 	svcls	0x00017100
     ebc:	0000006c 	andeq	r0, r0, ip, rrx
     ec0:	00000074 	andeq	r0, r0, r4, ror r0
     ec4:	74510001 	ldrbvc	r0, [r1], #-1
     ec8:	80000000 	andhi	r0, r0, r0
     ecc:	03000000 	movweq	r0, #0
     ed0:	9f017100 	svcls	0x00017100
	...
     edc:	00000040 	andeq	r0, r0, r0, asr #32
     ee0:	00000050 	andeq	r0, r0, r0, asr r0
     ee4:	50510001 	subspl	r0, r1, r1
     ee8:	80000000 	andhi	r0, r0, r0
     eec:	04000000 	streq	r0, [r0], #-0
     ef0:	5101f300 	mrspl	pc, SP_irq	; <UNPREDICTABLE>
     ef4:	0000009f 	muleq	r0, pc, r0	; <UNPREDICTABLE>
     ef8:	00000000 	andeq	r0, r0, r0
     efc:	00004000 	andeq	r4, r0, r0
     f00:	00005800 	andeq	r5, r0, r0, lsl #16
     f04:	52000100 	andpl	r0, r0, #0, 2
     f08:	00000058 	andeq	r0, r0, r8, asr r0
     f0c:	00000064 	andeq	r0, r0, r4, rrx
     f10:	64520001 	ldrbvs	r0, [r2], #-1
     f14:	68000000 	stmdavs	r0, {}	; <UNPREDICTABLE>
     f18:	03000000 	movweq	r0, #0
     f1c:	9f017200 	svcls	0x00017200
     f20:	00000068 	andeq	r0, r0, r8, rrx
     f24:	00000080 	andeq	r0, r0, r0, lsl #1
     f28:	00520001 	subseq	r0, r2, r1
     f2c:	00000000 	andeq	r0, r0, r0
     f30:	40000000 	andmi	r0, r0, r0
     f34:	54000000 	strpl	r0, [r0], #-0
     f38:	01000000 	mrseq	r0, (UNDEF: 0)
     f3c:	00545300 	subseq	r5, r4, r0, lsl #6
     f40:	00780000 	rsbseq	r0, r8, r0
     f44:	00010000 	andeq	r0, r1, r0
     f48:	00000053 	andeq	r0, r0, r3, asr r0
     f4c:	00000000 	andeq	r0, r0, r0
     f50:	00004800 	andeq	r4, r0, r0, lsl #16
     f54:	00006000 	andeq	r6, r0, r0
     f58:	5c000100 	stfpls	f0, [r0], {-0}
     f5c:	00000060 	andeq	r0, r0, r0, rrx
     f60:	00000080 	andeq	r0, r0, r0, lsl #1
     f64:	01f3000a 	mvnseq	r0, sl
     f68:	5301f352 	movwpl	pc, #4946	; 0x1352	; <UNPREDICTABLE>
     f6c:	9f01231c 	svcls	0x0001231c
	...
     f78:	00000080 	andeq	r0, r0, r0, lsl #1
     f7c:	000000a4 	andeq	r0, r0, r4, lsr #1
     f80:	a4500001 	ldrbge	r0, [r0], #-1
     f84:	18000000 	stmdane	r0, {}	; <UNPREDICTABLE>
     f88:	03000001 	movweq	r0, #1
     f8c:	9f027000 	svcls	0x00027000
     f90:	00000118 	andeq	r0, r0, r8, lsl r1
     f94:	00000228 	andeq	r0, r0, r8, lsr #4
     f98:	01f30004 	mvnseq	r0, r4
     f9c:	00009f50 	andeq	r9, r0, r0, asr pc
     fa0:	00000000 	andeq	r0, r0, r0
     fa4:	00800000 	addeq	r0, r0, r0
     fa8:	00f00000 	rscseq	r0, r0, r0
     fac:	00010000 	andeq	r0, r1, r0
     fb0:	0000f051 	andeq	pc, r0, r1, asr r0	; <UNPREDICTABLE>
     fb4:	00016000 	andeq	r6, r1, r0
     fb8:	55000100 	strpl	r0, [r0, #-256]	; 0x100
     fbc:	00000160 	andeq	r0, r0, r0, ror #2
     fc0:	00000168 	andeq	r0, r0, r8, ror #2
     fc4:	68510001 	ldmdavs	r1, {r0}^
     fc8:	88000001 	stmdahi	r0, {r0}
     fcc:	01000001 	tsteq	r0, r1
     fd0:	01885500 	orreq	r5, r8, r0, lsl #10
     fd4:	019c0000 	orrseq	r0, ip, r0
     fd8:	00010000 	andeq	r0, r1, r0
     fdc:	00019c51 	andeq	r9, r1, r1, asr ip
     fe0:	0001bc00 	andeq	fp, r1, r0, lsl #24
     fe4:	55000100 	strpl	r0, [r0, #-256]	; 0x100
     fe8:	000001bc 			; <UNDEFINED> instruction: 0x000001bc
     fec:	000001bf 			; <UNDEFINED> instruction: 0x000001bf
     ff0:	bf510001 	svclt	0x00510001
     ff4:	08000001 	stmdaeq	r0, {r0}
     ff8:	01000002 	tsteq	r0, r2
     ffc:	02085500 	andeq	r5, r8, #0, 10
    1000:	02280000 	eoreq	r0, r8, #0
    1004:	00040000 	andeq	r0, r4, r0
    1008:	9f5101f3 	svcls	0x005101f3
	...
    1014:	00000080 	andeq	r0, r0, r0, lsl #1
    1018:	00000094 	muleq	r0, r4, r0
    101c:	94520001 	ldrbls	r0, [r2], #-1
    1020:	08000000 	stmdaeq	r0, {}	; <UNPREDICTABLE>
    1024:	01000002 	tsteq	r0, r2
    1028:	02085400 	andeq	r5, r8, #0, 8
    102c:	02280000 	eoreq	r0, r8, #0
    1030:	00040000 	andeq	r0, r4, r0
    1034:	9f5201f3 	svcls	0x005201f3
	...
    1040:	00000080 	andeq	r0, r0, r0, lsl #1
    1044:	00000100 	andeq	r0, r0, r0, lsl #2
    1048:	04530001 	ldrbeq	r0, [r3], #-1
    104c:	08000001 	stmdaeq	r0, {r0}
    1050:	01000001 	tsteq	r0, r1
    1054:	01605300 	cmneq	r0, r0, lsl #6
    1058:	01680000 	cmneq	r8, r0
    105c:	00010000 	andeq	r0, r1, r0
    1060:	00016853 	andeq	r6, r1, r3, asr r8
    1064:	00018800 	andeq	r8, r1, r0, lsl #16
    1068:	f3000400 	vshl.u8	d0, d0, d0
    106c:	889f5301 	ldmhi	pc, {r0, r8, r9, ip, lr}	; <UNPREDICTABLE>
    1070:	90000001 	andls	r0, r0, r1
    1074:	01000001 	tsteq	r0, r1
    1078:	01905300 	orrseq	r5, r0, r0, lsl #6
    107c:	01940000 	orrseq	r0, r4, r0
    1080:	00010000 	andeq	r0, r1, r0
    1084:	0001945c 	andeq	r9, r1, ip, asr r4
    1088:	00019c00 	andeq	r9, r1, r0, lsl #24
    108c:	53000100 	movwpl	r0, #256	; 0x100
    1090:	0000019c 	muleq	r0, ip, r1
    1094:	000001bc 			; <UNDEFINED> instruction: 0x000001bc
    1098:	01f30004 	mvnseq	r0, r4
    109c:	01bc9f53 			; <UNDEFINED> instruction: 0x01bc9f53
    10a0:	01bf0000 			; <UNDEFINED> instruction: 0x01bf0000
    10a4:	00010000 	andeq	r0, r1, r0
    10a8:	0001bf53 	andeq	fp, r1, r3, asr pc
    10ac:	0001e000 	andeq	lr, r1, r0
    10b0:	f3000400 	vshl.u8	d0, d0, d0
    10b4:	009f5301 	addseq	r5, pc, r1, lsl #6
    10b8:	00000000 	andeq	r0, r0, r0
    10bc:	80000000 	andhi	r0, r0, r0
    10c0:	9c000000 	stcls	0, cr0, [r0], {-0}
    10c4:	02000000 	andeq	r0, r0, #0
    10c8:	9c009100 	stflsd	f1, [r0], {-0}
    10cc:	bf000000 	svclt	0x00000000
    10d0:	01000001 	tsteq	r0, r1
    10d4:	01e05200 	mvneq	r5, r0, lsl #4
    10d8:	01eb0000 	mvneq	r0, r0
    10dc:	00010000 	andeq	r0, r1, r0
    10e0:	00000052 	andeq	r0, r0, r2, asr r0
    10e4:	00000000 	andeq	r0, r0, r0
    10e8:	00009c00 	andeq	r9, r0, r0, lsl #24
    10ec:	00010c00 	andeq	r0, r1, r0, lsl #24
    10f0:	91000400 	tstls	r0, r0, lsl #8
    10f4:	0c9f7fa0 	ldceq	15, cr7, [pc], {160}	; 0xa0
    10f8:	18000001 	stmdane	r0, {r0}
    10fc:	01000001 	tsteq	r0, r1
    1100:	01185100 	tsteq	r8, r0, lsl #2
    1104:	011c0000 	tsteq	ip, r0
    1108:	00010000 	andeq	r0, r1, r0
    110c:	00011c53 	andeq	r1, r1, r3, asr ip
    1110:	00012000 	andeq	r2, r1, r0
    1114:	51000100 	mrspl	r0, (UNDEF: 16)
    1118:	00000120 	andeq	r0, r0, r0, lsr #2
    111c:	00000160 	andeq	r0, r0, r0, ror #2
    1120:	60530001 	subsvs	r0, r3, r1
    1124:	64000001 	strvs	r0, [r0], #-1
    1128:	04000001 	streq	r0, [r0], #-1
    112c:	7fa09100 	svcvc	0x00a09100
    1130:	0001649f 	muleq	r1, pc, r4	; <UNPREDICTABLE>
    1134:	00016c00 	andeq	r6, r1, r0, lsl #24
    1138:	5e000100 	adfpls	f0, f0, f0
    113c:	0000016c 	andeq	r0, r0, ip, ror #2
    1140:	00000188 	andeq	r0, r0, r8, lsl #3
    1144:	88530001 	ldmdahi	r3, {r0}^
    1148:	90000001 	andls	r0, r0, r1
    114c:	04000001 	streq	r0, [r0], #-1
    1150:	7fa19100 	svcvc	0x00a19100
    1154:	0001909f 	muleq	r1, pc, r0	; <UNPREDICTABLE>
    1158:	00019400 	andeq	r9, r1, r0, lsl #8
    115c:	53000100 	movwpl	r0, #256	; 0x100
    1160:	00000194 	muleq	r0, r4, r1
    1164:	00000198 	muleq	r0, r8, r1
    1168:	a0910004 	addsge	r0, r1, r4
    116c:	01989f7f 	orrseq	r9, r8, pc, ror pc
    1170:	01a00000 	moveq	r0, r0
    1174:	00010000 	andeq	r0, r1, r0
    1178:	0001a05e 	andeq	sl, r1, lr, asr r0
    117c:	0001bc00 	andeq	fp, r1, r0, lsl #24
    1180:	53000100 	movwpl	r0, #256	; 0x100
    1184:	000001bc 			; <UNDEFINED> instruction: 0x000001bc
    1188:	000001e0 	andeq	r0, r0, r0, ror #3
    118c:	a0910004 	addsge	r0, r1, r4
    1190:	01e09f7f 	mvneq	r9, pc, ror pc
    1194:	01eb0000 	mvneq	r0, r0
    1198:	00010000 	andeq	r0, r1, r0
    119c:	00000053 	andeq	r0, r0, r3, asr r0
    11a0:	00000000 	andeq	r0, r0, r0
    11a4:	0000a000 	andeq	sl, r0, r0
    11a8:	0000ec00 	andeq	lr, r0, r0, lsl #24
    11ac:	5c000100 	stfpls	f0, [r0], {-0}
    11b0:	000000ec 	andeq	r0, r0, ip, ror #1
    11b4:	00000100 	andeq	r0, r0, r0, lsl #2
    11b8:	00530001 	subseq	r0, r3, r1
    11bc:	04000001 	streq	r0, [r0], #-1
    11c0:	01000001 	tsteq	r0, r1
    11c4:	01045c00 	tsteq	r4, r0, lsl #24
    11c8:	01080000 	mrseq	r0, (UNDEF: 8)
    11cc:	00010000 	andeq	r0, r1, r0
    11d0:	00010853 	andeq	r0, r1, r3, asr r8
    11d4:	00011800 	andeq	r1, r1, r0, lsl #16
    11d8:	5c000100 	stfpls	f0, [r0], {-0}
    11dc:	00000118 	andeq	r0, r0, r8, lsl r1
    11e0:	0000011c 	andeq	r0, r0, ip, lsl r1
    11e4:	1c500001 	mrrcne	0, 0, r0, r0, cr1	; <UNPREDICTABLE>
    11e8:	3c000001 	stccc	0, cr0, [r0], {1}
    11ec:	01000001 	tsteq	r0, r1
    11f0:	01445c00 	cmpeq	r4, r0, lsl #24
    11f4:	01580000 	cmpeq	r8, r0
    11f8:	00010000 	andeq	r0, r1, r0
    11fc:	00015850 	andeq	r5, r1, r0, asr r8
    1200:	00016000 	andeq	r6, r1, r0
    1204:	5c000100 	stfpls	f0, [r0], {-0}
    1208:	00000160 	andeq	r0, r0, r0, ror #2
    120c:	00000168 	andeq	r0, r0, r8, ror #2
    1210:	68530001 	ldmdavs	r3, {r0}^
    1214:	78000001 	stmdavc	r0, {r0}
    1218:	01000001 	tsteq	r0, r1
    121c:	01785c00 	cmneq	r8, r0, lsl #24
    1220:	01800000 	orreq	r0, r0, r0
    1224:	00050000 	andeq	r0, r5, r0
    1228:	2534007c 	ldrcs	r0, [r4, #-124]!	; 0x7c
    122c:	0001809f 	muleq	r1, pc, r0	; <UNPREDICTABLE>
    1230:	00018800 	andeq	r8, r1, r0, lsl #16
    1234:	5c000100 	stfpls	f0, [r0], {-0}
    1238:	00000188 	andeq	r0, r0, r8, lsl #3
    123c:	00000190 	muleq	r0, r0, r1
    1240:	90530001 	subsls	r0, r3, r1
    1244:	94000001 	strls	r0, [r0], #-1
    1248:	01000001 	tsteq	r0, r1
    124c:	01945c00 	orrseq	r5, r4, r0, lsl #24
    1250:	019c0000 	orrseq	r0, ip, r0
    1254:	00010000 	andeq	r0, r1, r0
    1258:	00019c53 	andeq	r9, r1, r3, asr ip
    125c:	0001ac00 	andeq	sl, r1, r0, lsl #24
    1260:	5c000100 	stfpls	f0, [r0], {-0}
    1264:	000001ac 	andeq	r0, r0, ip, lsr #3
    1268:	000001b4 			; <UNDEFINED> instruction: 0x000001b4
    126c:	007c0005 	rsbseq	r0, ip, r5
    1270:	b49f2531 	ldrlt	r2, [pc], #1329	; 1278 <_start-0x6d88>
    1274:	bc000001 	stclt	0, cr0, [r0], {1}
    1278:	01000001 	tsteq	r0, r1
    127c:	01bc5c00 			; <UNDEFINED> instruction: 0x01bc5c00
    1280:	01bf0000 			; <UNDEFINED> instruction: 0x01bf0000
    1284:	00010000 	andeq	r0, r1, r0
    1288:	0001bf53 	andeq	fp, r1, r3, asr pc
    128c:	0001e000 	andeq	lr, r1, r0
    1290:	f3000400 	vshl.u8	d0, d0, d0
    1294:	e09f5301 	adds	r5, pc, r1, lsl #6
    1298:	eb000001 	bl	12a4 <_start-0x6d5c>
    129c:	01000001 	tsteq	r0, r1
    12a0:	00005c00 	andeq	r5, r0, r0, lsl #24
    12a4:	00000000 	andeq	r0, r0, r0
    12a8:	00ec0000 	rsceq	r0, ip, r0
    12ac:	00fc0000 	rscseq	r0, ip, r0
    12b0:	00020000 	andeq	r0, r2, r0
    12b4:	00fc9f30 	rscseq	r9, ip, r0, lsr pc
    12b8:	01040000 	mrseq	r0, (UNDEF: 4)
    12bc:	00020000 	andeq	r0, r2, r0
    12c0:	01049f31 	tsteq	r4, r1, lsr pc
    12c4:	01080000 	mrseq	r0, (UNDEF: 8)
    12c8:	00020000 	andeq	r0, r2, r0
    12cc:	00009f30 	andeq	r9, r0, r0, lsr pc
    12d0:	00000000 	andeq	r0, r0, r0
    12d4:	02280000 	eoreq	r0, r8, #0
    12d8:	023b0000 	eorseq	r0, fp, #0
    12dc:	00010000 	andeq	r0, r1, r0
    12e0:	00023b50 	andeq	r3, r2, r0, asr fp
    12e4:	00025c00 	andeq	r5, r2, r0, lsl #24
    12e8:	f3000400 	vshl.u8	d0, d0, d0
    12ec:	5c9f5001 	ldcpl	0, cr5, [pc], {1}
    12f0:	90000002 	andls	r0, r0, r2
    12f4:	01000002 	tsteq	r0, r2
    12f8:	00005000 	andeq	r5, r0, r0
    12fc:	00000000 	andeq	r0, r0, r0
    1300:	02280000 	eoreq	r0, r8, #0
    1304:	023b0000 	eorseq	r0, fp, #0
    1308:	00010000 	andeq	r0, r1, r0
    130c:	00023b51 	andeq	r3, r2, r1, asr fp
    1310:	00025c00 	andeq	r5, r2, r0, lsl #24
    1314:	f3000400 	vshl.u8	d0, d0, d0
    1318:	5c9f5101 	ldfpls	f5, [pc], {1}
    131c:	90000002 	andls	r0, r0, r2
    1320:	01000002 	tsteq	r0, r2
    1324:	00005100 	andeq	r5, r0, r0, lsl #2
    1328:	00000000 	andeq	r0, r0, r0
    132c:	02900000 	addseq	r0, r0, #0
    1330:	02bc0000 	adcseq	r0, ip, #0
    1334:	00010000 	andeq	r0, r1, r0
    1338:	0002bc50 	andeq	fp, r2, r0, asr ip
    133c:	00050c00 	andeq	r0, r5, r0, lsl #24
    1340:	5a000100 	bpl	1748 <_start-0x68b8>
    1344:	0000050c 	andeq	r0, r0, ip, lsl #10
    1348:	00000524 	andeq	r0, r0, r4, lsr #10
    134c:	01f30004 	mvnseq	r0, r4
    1350:	00009f50 	andeq	r9, r0, r0, asr pc
    1354:	00000000 	andeq	r0, r0, r0
    1358:	02900000 	addseq	r0, r0, #0
    135c:	02a40000 	adceq	r0, r4, #0
    1360:	00010000 	andeq	r0, r1, r0
    1364:	0002a451 	andeq	sl, r2, r1, asr r4
    1368:	0002bc00 	andeq	fp, r2, r0, lsl #24
    136c:	71000300 	mrsvc	r0, LR_irq
    1370:	02bc9f01 	adcseq	r9, ip, #1, 30
    1374:	05240000 	streq	r0, [r4, #-0]!
    1378:	00040000 	andeq	r0, r4, r0
    137c:	9f5101f3 	svcls	0x005101f3
	...
    1388:	00000290 	muleq	r0, r0, r2
    138c:	000002c4 	andeq	r0, r0, r4, asr #5
    1390:	c4520001 	ldrbgt	r0, [r2], #-1
    1394:	ec000002 	stc	0, cr0, [r0], {2}
    1398:	01000002 	tsteq	r0, r2
    139c:	02ec5200 	rsceq	r5, ip, #0, 4
    13a0:	04bc0000 	ldrteq	r0, [ip], #0
    13a4:	00010000 	andeq	r0, r1, r0
    13a8:	0004bc56 	andeq	fp, r4, r6, asr ip
    13ac:	00052400 	andeq	r2, r5, r0, lsl #8
    13b0:	52000100 	andpl	r0, r0, #0, 2
	...
    13bc:	00000290 	muleq	r0, r0, r2
    13c0:	000002ac 	andeq	r0, r0, ip, lsr #5
    13c4:	00530001 	subseq	r0, r3, r1
    13c8:	00000000 	andeq	r0, r0, r0
    13cc:	a0000000 	andge	r0, r0, r0
    13d0:	bc000002 	stclt	0, cr0, [r0], {2}
    13d4:	01000002 	tsteq	r0, r2
    13d8:	02bc5000 	adcseq	r5, ip, #0
    13dc:	02c00000 	sbceq	r0, r0, #0
    13e0:	00010000 	andeq	r0, r1, r0
    13e4:	0002c054 	andeq	ip, r2, r4, asr r0
    13e8:	0002cc00 	andeq	ip, r2, r0, lsl #24
    13ec:	74000300 	strvc	r0, [r0], #-768	; 0x300
    13f0:	02cc9f01 	sbceq	r9, ip, #1, 30
    13f4:	02d80000 	sbcseq	r0, r8, #0
    13f8:	00010000 	andeq	r0, r1, r0
    13fc:	0002d854 	andeq	sp, r2, r4, asr r8
    1400:	0002e400 	andeq	lr, r2, r0, lsl #8
    1404:	74000300 	strvc	r0, [r0], #-768	; 0x300
    1408:	02e49f01 	rsceq	r9, r4, #1, 30
    140c:	04c00000 	strbeq	r0, [r0], #0
    1410:	00010000 	andeq	r0, r1, r0
    1414:	0004c054 	andeq	ip, r4, r4, asr r0
    1418:	0004cc00 	andeq	ip, r4, r0, lsl #24
    141c:	74000300 	strvc	r0, [r0], #-768	; 0x300
    1420:	04cc9f01 	strbeq	r9, [ip], #3841	; 0xf01
    1424:	04f80000 	ldrbteq	r0, [r8], #0
    1428:	00010000 	andeq	r0, r1, r0
    142c:	0004f854 	andeq	pc, r4, r4, asr r8	; <UNPREDICTABLE>
    1430:	00050400 	andeq	r0, r5, r0, lsl #8
    1434:	50000100 	andpl	r0, r0, r0, lsl #2
    1438:	00000504 	andeq	r0, r0, r4, lsl #10
    143c:	0000050c 	andeq	r0, r0, ip, lsl #10
    1440:	01740003 	cmneq	r4, r3
    1444:	0000009f 	muleq	r0, pc, r0	; <UNPREDICTABLE>
    1448:	00000000 	andeq	r0, r0, r0
    144c:	0002a800 	andeq	sl, r2, r0, lsl #16
    1450:	00050c00 	andeq	r0, r5, r0, lsl #24
    1454:	58000100 	stmdapl	r0, {r8}
    1458:	0000050c 	andeq	r0, r0, ip, lsl #10
    145c:	00000524 	andeq	r0, r0, r4, lsr #10
    1460:	01f3000a 	mvnseq	r0, sl
    1464:	5001f351 	andpl	pc, r1, r1, asr r3	; <UNPREDICTABLE>
    1468:	9f1c3122 	svcls	0x001c3122
	...
    1474:	000003f4 	strdeq	r0, [r0], -r4
    1478:	000003f8 	strdeq	r0, [r0], -r8
    147c:	18500001 	ldmdane	r0, {r0}^
    1480:	1c000004 	stcne	0, cr0, [r0], {4}
    1484:	01000004 	tsteq	r0, r4
    1488:	043c5000 	ldrteq	r5, [ip], #-0
    148c:	04400000 	strbeq	r0, [r0], #-0
    1490:	00010000 	andeq	r0, r1, r0
    1494:	00046050 	andeq	r6, r4, r0, asr r0
    1498:	00046400 	andeq	r6, r4, r0, lsl #8
    149c:	50000100 	andpl	r0, r0, r0, lsl #2
    14a0:	0000046c 	andeq	r0, r0, ip, ror #8
    14a4:	00000470 	andeq	r0, r0, r0, ror r4
    14a8:	90500001 	subsls	r0, r0, r1
    14ac:	94000004 	strls	r0, [r0], #-4
    14b0:	01000004 	tsteq	r0, r4
    14b4:	04b85000 	ldrteq	r5, [r8], #0
    14b8:	04e00000 	strbteq	r0, [r0], #0
    14bc:	00010000 	andeq	r0, r1, r0
    14c0:	00000050 	andeq	r0, r0, r0, asr r0
    14c4:	00000000 	andeq	r0, r0, r0
    14c8:	0002ec00 	andeq	lr, r2, r0, lsl #24
    14cc:	0002f400 	andeq	pc, r2, r0, lsl #8
    14d0:	30000200 	andcc	r0, r0, r0, lsl #4
    14d4:	0002f49f 	muleq	r2, pc, r4	; <UNPREDICTABLE>
    14d8:	0002f800 	andeq	pc, r2, r0, lsl #16
    14dc:	57000100 	strpl	r0, [r0, -r0, lsl #2]
    14e0:	00000304 	andeq	r0, r0, r4, lsl #6
    14e4:	000004e0 	andeq	r0, r0, r0, ror #9
    14e8:	00570001 	subseq	r0, r7, r1
    14ec:	00000000 	andeq	r0, r0, r0
    14f0:	04000000 	streq	r0, [r0], #-0
    14f4:	08000000 	stmdaeq	r0, {}	; <UNPREDICTABLE>
    14f8:	07000000 	streq	r0, [r0, -r0]
    14fc:	0a007300 	beq	1e104 <__bss_end__+0x13a2c>
    1500:	9f211000 	svcls	0x00211000
    1504:	00000008 	andeq	r0, r0, r8
    1508:	00000010 	andeq	r0, r0, r0, lsl r0
    150c:	00530001 	subseq	r0, r3, r1
    1510:	00000000 	andeq	r0, r0, r0
    1514:	14000000 	strne	r0, [r0], #-0
    1518:	18000000 	stmdane	r0, {}	; <UNPREDICTABLE>
    151c:	07000000 	streq	r0, [r0, -r0]
    1520:	0b007300 	bleq	1e128 <__bss_end__+0x13a50>
    1524:	9f1aefff 	svcls	0x001aefff
    1528:	00000018 	andeq	r0, r0, r8, lsl r0
    152c:	00000020 	andeq	r0, r0, r0, lsr #32
    1530:	00530001 	subseq	r0, r3, r1
	...
    153c:	0c000000 	stceq	0, cr0, [r0], {-0}
    1540:	01000000 	mrseq	r0, (UNDEF: 0)
    1544:	000c5000 	andeq	r5, ip, r0
    1548:	00200000 	eoreq	r0, r0, r0
    154c:	00010000 	andeq	r0, r1, r0
    1550:	00000054 	andeq	r0, r0, r4, asr r0
    1554:	00000000 	andeq	r0, r0, r0
    1558:	00003400 	andeq	r3, r0, r0, lsl #8
    155c:	00003c00 	andeq	r3, r0, r0, lsl #24
    1560:	73000300 	movwvc	r0, #768	; 0x300
    1564:	003c9f04 	eorseq	r9, ip, r4, lsl #30
    1568:	00470000 	subeq	r0, r7, r0
    156c:	00010000 	andeq	r0, r1, r0
    1570:	00000053 	andeq	r0, r0, r3, asr r0
    1574:	00000000 	andeq	r0, r0, r0
    1578:	00004800 	andeq	r4, r0, r0, lsl #16
    157c:	00007400 	andeq	r7, r0, r0, lsl #8
    1580:	50000100 	andpl	r0, r0, r0, lsl #2
    1584:	00000074 	andeq	r0, r0, r4, ror r0
    1588:	00000083 	andeq	r0, r0, r3, lsl #1
    158c:	78730003 	ldmdavc	r3!, {r0, r1}^
    1590:	0000009f 	muleq	r0, pc, r0	; <UNPREDICTABLE>
    1594:	00000000 	andeq	r0, r0, r0
    1598:	00902c00 	addseq	r2, r0, r0, lsl #24
    159c:	00903000 	addseq	r3, r0, r0
    15a0:	30000200 	andcc	r0, r0, r0, lsl #4
    15a4:	0090309f 	umullseq	r3, r0, pc, r0	; <UNPREDICTABLE>
    15a8:	00903400 	addseq	r3, r0, r0, lsl #8
    15ac:	50000100 	andpl	r0, r0, r0, lsl #2
	...
    15b8:	00009044 	andeq	r9, r0, r4, asr #32
    15bc:	00009048 	andeq	r9, r0, r8, asr #32
    15c0:	9f300002 	svcls	0x00300002
    15c4:	00009048 	andeq	r9, r0, r8, asr #32
    15c8:	0000904c 	andeq	r9, r0, ip, asr #32
    15cc:	50530001 	subspl	r0, r3, r1
    15d0:	58000090 	stmdapl	r0, {r4, r7}
    15d4:	01000090 	swpeq	r0, r0, [r0]	; <UNPREDICTABLE>
    15d8:	00005300 	andeq	r5, r0, r0, lsl #6
	...
    15e4:	00040000 	andeq	r0, r4, r0
    15e8:	00010000 	andeq	r0, r1, r0
    15ec:	00000450 	andeq	r0, r0, r0, asr r4
    15f0:	00000c00 	andeq	r0, r0, r0, lsl #24
    15f4:	53000100 	movwpl	r0, #256	; 0x100
    15f8:	0000000c 	andeq	r0, r0, ip
    15fc:	00000010 	andeq	r0, r0, r0, lsl r0
    1600:	10500001 	subsne	r0, r0, r1
    1604:	1c000000 	stcne	0, cr0, [r0], {-0}
    1608:	01000000 	mrseq	r0, (UNDEF: 0)
    160c:	00005300 	andeq	r5, r0, r0, lsl #6
    1610:	00000000 	andeq	r0, r0, r0
    1614:	003c0000 	eorseq	r0, ip, r0
    1618:	00470000 	subeq	r0, r7, r0
    161c:	00010000 	andeq	r0, r1, r0
    1620:	00004750 	andeq	r4, r0, r0, asr r7
    1624:	00006000 	andeq	r6, r0, r0
    1628:	55000100 	strpl	r0, [r0, #-256]	; 0x100
	...
    1634:	00000050 	andeq	r0, r0, r0, asr r0
    1638:	00000054 	andeq	r0, r0, r4, asr r0
    163c:	00500001 	subseq	r0, r0, r1
    1640:	00000000 	andeq	r0, r0, r0
    1644:	60000000 	andvs	r0, r0, r0
    1648:	6c000000 	stcvs	0, cr0, [r0], {-0}
    164c:	01000000 	mrseq	r0, (UNDEF: 0)
    1650:	006c5000 	rsbeq	r5, ip, r0
    1654:	00740000 	rsbseq	r0, r4, r0
    1658:	00040000 	andeq	r0, r4, r0
    165c:	9f5001f3 	svcls	0x005001f3
	...
    1668:	00000074 	andeq	r0, r0, r4, ror r0
    166c:	00000080 	andeq	r0, r0, r0, lsl #1
    1670:	80500001 	subshi	r0, r0, r1
    1674:	88000000 	stmdahi	r0, {}	; <UNPREDICTABLE>
    1678:	04000000 	streq	r0, [r0], #-0
    167c:	5001f300 	andpl	pc, r1, r0, lsl #6
    1680:	0000009f 	muleq	r0, pc, r0	; <UNPREDICTABLE>
	...
    168c:	00009000 	andeq	r9, r0, r0
    1690:	50000100 	andpl	r0, r0, r0, lsl #2
    1694:	00000090 	muleq	r0, r0, r0
    1698:	000000d4 	ldrdeq	r0, [r0], -r4
    169c:	00540001 	subseq	r0, r4, r1
    16a0:	00000000 	andeq	r0, r0, r0
    16a4:	48000000 	stmdami	r0, {}	; <UNPREDICTABLE>
    16a8:	4c000000 	stcmi	0, cr0, [r0], {-0}
    16ac:	01000000 	mrseq	r0, (UNDEF: 0)
    16b0:	00545500 	subseq	r5, r4, r0, lsl #10
    16b4:	00580000 	subseq	r0, r8, r0
    16b8:	00010000 	andeq	r0, r1, r0
    16bc:	00006055 	andeq	r6, r0, r5, asr r0
    16c0:	00006400 	andeq	r6, r0, r0, lsl #8
    16c4:	55000100 	strpl	r0, [r0, #-256]	; 0x100
    16c8:	0000006c 	andeq	r0, r0, ip, rrx
    16cc:	00000070 	andeq	r0, r0, r0, ror r0
    16d0:	78550001 	ldmdavc	r5, {r0}^
    16d4:	7c000000 	stcvc	0, cr0, [r0], {-0}
    16d8:	01000000 	mrseq	r0, (UNDEF: 0)
    16dc:	00845500 	addeq	r5, r4, r0, lsl #10
    16e0:	00880000 	addeq	r0, r8, r0
    16e4:	00010000 	andeq	r0, r1, r0
    16e8:	00008c55 	andeq	r8, r0, r5, asr ip
    16ec:	0000d400 	andeq	sp, r0, r0, lsl #8
    16f0:	55000100 	strpl	r0, [r0, #-256]	; 0x100
	...
    16fc:	0000001c 	andeq	r0, r0, ip, lsl r0
    1700:	00000044 	andeq	r0, r0, r4, asr #32
    1704:	44530001 	ldrbmi	r0, [r3], #-1
    1708:	4c000000 	stcmi	0, cr0, [r0], {-0}
    170c:	1c000000 	stcne	0, cr0, [r0], {-0}
    1710:	f7007000 			; <UNDEFINED> instruction: 0xf7007000
    1714:	f425f72c 	vld1.8	{d15}, [r5 :128], ip
    1718:	cccd0825 	stclgt	8, cr0, [sp], {37}	; 0x25
    171c:	0000cccc 	andeq	ip, r0, ip, asr #25
    1720:	081e0000 	ldmdaeq	lr, {}	; <UNPREDICTABLE>
    1724:	2525f720 	strcs	pc, [r5, #-1824]!	; 0x720
    1728:	25332cf7 	ldrcs	r2, [r3, #-3319]!	; 0xcf7
    172c:	00004c9f 	muleq	r0, pc, ip	; <UNPREDICTABLE>
    1730:	00005000 	andeq	r5, r0, r0
    1734:	53000100 	movwpl	r0, #256	; 0x100
    1738:	00000050 	andeq	r0, r0, r0, asr r0
    173c:	00000058 	andeq	r0, r0, r8, asr r0
    1740:	0070001c 	rsbseq	r0, r0, ip, lsl r0
    1744:	25f72cf7 	ldrbcs	r2, [r7, #3319]!	; 0xcf7
    1748:	cd0825f4 	cfstr32gt	mvfx2, [r8, #-976]	; 0xfffffc30
    174c:	00cccccc 	sbceq	ip, ip, ip, asr #25
    1750:	1e000000 	cdpne	0, 0, cr0, cr0, cr0, {0}
    1754:	25f72008 	ldrbcs	r2, [r7, #8]!
    1758:	332cf725 	msrcc	CPSR_fs, #9699328	; 0x940000
    175c:	00589f25 	subseq	r9, r8, r5, lsr #30
    1760:	005c0000 	subseq	r0, ip, r0
    1764:	00010000 	andeq	r0, r1, r0
    1768:	00005c53 	andeq	r5, r0, r3, asr ip
    176c:	00006400 	andeq	r6, r0, r0, lsl #8
    1770:	70001c00 	andvc	r1, r0, r0, lsl #24
    1774:	f72cf700 			; <UNDEFINED> instruction: 0xf72cf700
    1778:	0825f425 	stmdaeq	r5!, {r0, r2, r5, sl, ip, sp, lr, pc}
    177c:	cccccccd 	stclgt	12, cr12, [ip], {205}	; 0xcd
    1780:	00000000 	andeq	r0, r0, r0
    1784:	f720081e 			; <UNDEFINED> instruction: 0xf720081e
    1788:	2cf72525 	cfldr64cs	mvdx2, [r7], #148	; 0x94
    178c:	649f2533 	ldrvs	r2, [pc], #1331	; 1794 <_start-0x686c>
    1790:	68000000 	stmdavs	r0, {}	; <UNPREDICTABLE>
    1794:	01000000 	mrseq	r0, (UNDEF: 0)
    1798:	00685300 	rsbeq	r5, r8, r0, lsl #6
    179c:	00700000 	rsbseq	r0, r0, r0
    17a0:	001c0000 	andseq	r0, ip, r0
    17a4:	2cf70070 	ldclcs	0, cr0, [r7], #448	; 0x1c0
    17a8:	25f425f7 	ldrbcs	r2, [r4, #1527]!	; 0x5f7
    17ac:	cccccd08 	stclgt	13, cr12, [ip], {8}
    17b0:	000000cc 	andeq	r0, r0, ip, asr #1
    17b4:	20081e00 	andcs	r1, r8, r0, lsl #28
    17b8:	f72525f7 			; <UNDEFINED> instruction: 0xf72525f7
    17bc:	9f25332c 	svcls	0x0025332c
    17c0:	00000070 	andeq	r0, r0, r0, ror r0
    17c4:	00000074 	andeq	r0, r0, r4, ror r0
    17c8:	74530001 	ldrbvc	r0, [r3], #-1
    17cc:	7c000000 	stcvc	0, cr0, [r0], {-0}
    17d0:	1c000000 	stcne	0, cr0, [r0], {-0}
    17d4:	f7007000 			; <UNDEFINED> instruction: 0xf7007000
    17d8:	f425f72c 	vld1.8	{d15}, [r5 :128], ip
    17dc:	cccd0825 	stclgt	8, cr0, [sp], {37}	; 0x25
    17e0:	0000cccc 	andeq	ip, r0, ip, asr #25
    17e4:	081e0000 	ldmdaeq	lr, {}	; <UNPREDICTABLE>
    17e8:	2525f720 	strcs	pc, [r5, #-1824]!	; 0x720
    17ec:	25332cf7 	ldrcs	r2, [r3, #-3319]!	; 0xcf7
    17f0:	00007c9f 	muleq	r0, pc, ip	; <UNPREDICTABLE>
    17f4:	00008000 	andeq	r8, r0, r0
    17f8:	53000100 	movwpl	r0, #256	; 0x100
    17fc:	00000080 	andeq	r0, r0, r0, lsl #1
    1800:	00000088 	andeq	r0, r0, r8, lsl #1
    1804:	0070001c 	rsbseq	r0, r0, ip, lsl r0
    1808:	25f72cf7 	ldrbcs	r2, [r7, #3319]!	; 0xcf7
    180c:	cd0825f4 	cfstr32gt	mvfx2, [r8, #-976]	; 0xfffffc30
    1810:	00cccccc 	sbceq	ip, ip, ip, asr #25
    1814:	1e000000 	cdpne	0, 0, cr0, cr0, cr0, {0}
    1818:	25f72008 	ldrbcs	r2, [r7, #8]!
    181c:	332cf725 	msrcc	CPSR_fs, #9699328	; 0x940000
    1820:	00889f25 	addeq	r9, r8, r5, lsr #30
    1824:	008c0000 	addeq	r0, ip, r0
    1828:	00010000 	andeq	r0, r1, r0
    182c:	00008c53 	andeq	r8, r0, r3, asr ip
    1830:	00009000 	andeq	r9, r0, r0
    1834:	70001c00 	andvc	r1, r0, r0, lsl #24
    1838:	f72cf700 			; <UNDEFINED> instruction: 0xf72cf700
    183c:	0825f425 	stmdaeq	r5!, {r0, r2, r5, sl, ip, sp, lr, pc}
    1840:	cccccccd 	stclgt	12, cr12, [ip], {205}	; 0xcd
    1844:	00000000 	andeq	r0, r0, r0
    1848:	f720081e 			; <UNDEFINED> instruction: 0xf720081e
    184c:	2cf72525 	cfldr64cs	mvdx2, [r7], #148	; 0x94
    1850:	909f2533 	addsls	r2, pc, r3, lsr r5	; <UNPREDICTABLE>
    1854:	98000000 	stmdals	r0, {}	; <UNPREDICTABLE>
    1858:	1c000000 	stcne	0, cr0, [r0], {-0}
    185c:	f7007400 			; <UNDEFINED> instruction: 0xf7007400
    1860:	f425f72c 	vld1.8	{d15}, [r5 :128], ip
    1864:	cccd0825 	stclgt	8, cr0, [sp], {37}	; 0x25
    1868:	0000cccc 	andeq	ip, r0, ip, asr #25
    186c:	081e0000 	ldmdaeq	lr, {}	; <UNPREDICTABLE>
    1870:	2525f720 	strcs	pc, [r5, #-1824]!	; 0x720
    1874:	25332cf7 	ldrcs	r2, [r3, #-3319]!	; 0xcf7
    1878:	0000989f 	muleq	r0, pc, r8	; <UNPREDICTABLE>
    187c:	00009c00 	andeq	r9, r0, r0, lsl #24
    1880:	74001700 	strvc	r1, [r0], #-1792	; 0x700
    1884:	f72cf700 			; <UNDEFINED> instruction: 0xf72cf700
    1888:	f7007125 			; <UNDEFINED> instruction: 0xf7007125
    188c:	1e25f72c 	cdpne	7, 2, cr15, cr5, cr12, {1}
    1890:	25f72008 	ldrbcs	r2, [r7, #8]!
    1894:	332cf725 	msrcc	CPSR_fs, #9699328	; 0x940000
    1898:	009c9f25 	addseq	r9, ip, r5, lsr #30
    189c:	00d40000 	sbcseq	r0, r4, r0
    18a0:	001c0000 	andseq	r0, ip, r0
    18a4:	2cf70074 	ldclcs	0, cr0, [r7], #464	; 0x1d0
    18a8:	25f425f7 	ldrbcs	r2, [r4, #1527]!	; 0x5f7
    18ac:	cccccd08 	stclgt	13, cr12, [ip], {8}
    18b0:	000000cc 	andeq	r0, r0, ip, asr #1
    18b4:	20081e00 	andcs	r1, r8, r0, lsl #28
    18b8:	f72525f7 			; <UNDEFINED> instruction: 0xf72525f7
    18bc:	9f25332c 	svcls	0x0025332c
	...
    18c8:	00000094 	muleq	r0, r4, r0
    18cc:	000000b8 	strheq	r0, [r0], -r8
    18d0:	b8500001 	ldmdalt	r0, {r0}^
    18d4:	c4000000 	strgt	r0, [r0], #-0
    18d8:	08000000 	stmdaeq	r0, {}	; <UNPREDICTABLE>
    18dc:	00713100 	rsbseq	r3, r1, r0, lsl #2
    18e0:	21007324 	tstcs	r0, r4, lsr #6
    18e4:	0000c49f 	muleq	r0, pc, r4	; <UNPREDICTABLE>
    18e8:	0000c700 	andeq	ip, r0, r0, lsl #14
    18ec:	51000100 	mrspl	r0, (UNDEF: 16)
	...
    18f8:	000000d4 	ldrdeq	r0, [r0], -r4
    18fc:	000000f8 	strdeq	r0, [r0], -r8
    1900:	f8500001 			; <UNDEFINED> instruction: 0xf8500001
    1904:	0c000000 	stceq	0, cr0, [r0], {-0}
    1908:	04000001 	streq	r0, [r0], #-1
    190c:	5001f300 	andpl	pc, r1, r0, lsl #6
    1910:	0000009f 	muleq	r0, pc, r0	; <UNPREDICTABLE>
    1914:	00000000 	andeq	r0, r0, r0
    1918:	0000e000 	andeq	lr, r0, r0
    191c:	0000e800 	andeq	lr, r0, r0, lsl #16
    1920:	30000200 	andcc	r0, r0, r0, lsl #4
    1924:	0000e89f 	muleq	r0, pc, r8	; <UNPREDICTABLE>
    1928:	0000e800 	andeq	lr, r0, r0, lsl #16
    192c:	52000100 	andpl	r0, r0, #0, 2
    1930:	000000e8 	andeq	r0, r0, r8, ror #1
    1934:	000000f0 	strdeq	r0, [r0], -r0	; <UNPREDICTABLE>
    1938:	9f300002 	svcls	0x00300002
    193c:	000000f0 	strdeq	r0, [r0], -r0	; <UNPREDICTABLE>
    1940:	00000103 	andeq	r0, r0, r3, lsl #2
    1944:	00520001 	subseq	r0, r2, r1
    1948:	00000000 	andeq	r0, r0, r0
    194c:	e0000000 	and	r0, r0, r0
    1950:	f4000000 	vst4.8	{d0-d3}, [r0], r0
    1954:	02000000 	andeq	r0, r0, #0
    1958:	f49f3000 			; <UNDEFINED> instruction: 0xf49f3000
    195c:	00000000 	andeq	r0, r0, r0
    1960:	05000001 	streq	r0, [r0, #-1]
    1964:	00733100 	rsbseq	r3, r3, r0, lsl #2
    1968:	01009f24 	tsteq	r0, r4, lsr #30
    196c:	01030000 	mrseq	r0, (UNDEF: 3)
    1970:	00010000 	andeq	r0, r1, r0
    1974:	00010351 	andeq	r0, r1, r1, asr r3
    1978:	00010c00 	andeq	r0, r1, r0, lsl #24
    197c:	31000800 	tstcc	r0, r0, lsl #16
    1980:	4f5001f3 	svcmi	0x005001f3
    1984:	009f241a 	addseq	r2, pc, sl, lsl r4	; <UNPREDICTABLE>
    1988:	00000000 	andeq	r0, r0, r0
    198c:	0c000000 	stceq	0, cr0, [r0], {-0}
    1990:	30000001 	andcc	r0, r0, r1
    1994:	01000001 	tsteq	r0, r1
    1998:	01305000 	teqeq	r0, r0
    199c:	01440000 	mrseq	r0, (UNDEF: 68)
    19a0:	00040000 	andeq	r0, r4, r0
    19a4:	9f5001f3 	svcls	0x005001f3
	...
    19b0:	00000118 	andeq	r0, r0, r8, lsl r1
    19b4:	00000120 	andeq	r0, r0, r0, lsr #2
    19b8:	9f300002 	svcls	0x00300002
    19bc:	00000120 	andeq	r0, r0, r0, lsr #2
    19c0:	00000120 	andeq	r0, r0, r0, lsr #2
    19c4:	20520001 	subscs	r0, r2, r1
    19c8:	28000001 	stmdacs	r0, {r0}
    19cc:	02000001 	andeq	r0, r0, #1
    19d0:	289f3000 	ldmcs	pc, {ip, sp}	; <UNPREDICTABLE>
    19d4:	3b000001 	blcc	19e0 <_start-0x6620>
    19d8:	01000001 	tsteq	r0, r1
    19dc:	00005200 	andeq	r5, r0, r0, lsl #4
    19e0:	00000000 	andeq	r0, r0, r0
    19e4:	01180000 	tsteq	r8, r0
    19e8:	012c0000 	teqeq	ip, r0
    19ec:	00020000 	andeq	r0, r2, r0
    19f0:	012c9f30 	teqeq	ip, r0, lsr pc
    19f4:	01380000 	teqeq	r8, r0
    19f8:	00050000 	andeq	r0, r5, r0
    19fc:	24007331 	strcs	r7, [r0], #-817	; 0x331
    1a00:	0001389f 	muleq	r1, pc, r8	; <UNPREDICTABLE>
    1a04:	00013b00 	andeq	r3, r1, r0, lsl #22
    1a08:	51000100 	mrspl	r0, (UNDEF: 16)
    1a0c:	0000013b 	andeq	r0, r0, fp, lsr r1
    1a10:	00000144 	andeq	r0, r0, r4, asr #2
    1a14:	f3310008 	vhadd.u<illegal width 64>	d0, d1, d8
    1a18:	1a4f5001 	bne	13d5a24 <__bss_end__+0x13cb34c>
    1a1c:	00009f24 	andeq	r9, r0, r4, lsr #30
    1a20:	00000000 	andeq	r0, r0, r0
    1a24:	01440000 	mrseq	r0, (UNDEF: 68)
    1a28:	01d40000 	bicseq	r0, r4, r0
    1a2c:	00010000 	andeq	r0, r1, r0
    1a30:	0001d450 	andeq	sp, r1, r0, asr r4
    1a34:	00021000 	andeq	r1, r2, r0
    1a38:	54000100 	strpl	r0, [r0], #-256	; 0x100
	...
    1a44:	0000018c 	andeq	r0, r0, ip, lsl #3
    1a48:	00000190 	muleq	r0, r0, r1
    1a4c:	98550001 	ldmdals	r5, {r0}^
    1a50:	9c000001 	stcls	0, cr0, [r0], {1}
    1a54:	01000001 	tsteq	r0, r1
    1a58:	01a45500 			; <UNDEFINED> instruction: 0x01a45500
    1a5c:	01a80000 			; <UNDEFINED> instruction: 0x01a80000
    1a60:	00010000 	andeq	r0, r1, r0
    1a64:	0001b055 	andeq	fp, r1, r5, asr r0
    1a68:	0001b400 	andeq	fp, r1, r0, lsl #8
    1a6c:	55000100 	strpl	r0, [r0, #-256]	; 0x100
    1a70:	000001bc 			; <UNDEFINED> instruction: 0x000001bc
    1a74:	000001c0 	andeq	r0, r0, r0, asr #3
    1a78:	c8550001 	ldmdagt	r5, {r0}^
    1a7c:	cc000001 	stcgt	0, cr0, [r0], {1}
    1a80:	01000001 	tsteq	r0, r1
    1a84:	01d05500 	bicseq	r5, r0, r0, lsl #10
    1a88:	02100000 	andseq	r0, r0, #0
    1a8c:	00010000 	andeq	r0, r1, r0
    1a90:	00000055 	andeq	r0, r0, r5, asr r0
    1a94:	00000000 	andeq	r0, r0, r0
    1a98:	00016000 	andeq	r6, r1, r0
    1a9c:	00018800 	andeq	r8, r1, r0, lsl #16
    1aa0:	53000100 	movwpl	r0, #256	; 0x100
    1aa4:	00000188 	andeq	r0, r0, r8, lsl #3
    1aa8:	00000190 	muleq	r0, r0, r1
    1aac:	0070001c 	rsbseq	r0, r0, ip, lsl r0
    1ab0:	25f72cf7 	ldrbcs	r2, [r7, #3319]!	; 0xcf7
    1ab4:	cd0825f4 	cfstr32gt	mvfx2, [r8, #-976]	; 0xfffffc30
    1ab8:	00cccccc 	sbceq	ip, ip, ip, asr #25
    1abc:	1e000000 	cdpne	0, 0, cr0, cr0, cr0, {0}
    1ac0:	25f72008 	ldrbcs	r2, [r7, #8]!
    1ac4:	332cf725 	msrcc	CPSR_fs, #9699328	; 0x940000
    1ac8:	01909f25 	orrseq	r9, r0, r5, lsr #30
    1acc:	01940000 	orrseq	r0, r4, r0
    1ad0:	00010000 	andeq	r0, r1, r0
    1ad4:	00019453 	andeq	r9, r1, r3, asr r4
    1ad8:	00019c00 	andeq	r9, r1, r0, lsl #24
    1adc:	70001c00 	andvc	r1, r0, r0, lsl #24
    1ae0:	f72cf700 			; <UNDEFINED> instruction: 0xf72cf700
    1ae4:	0825f425 	stmdaeq	r5!, {r0, r2, r5, sl, ip, sp, lr, pc}
    1ae8:	cccccccd 	stclgt	12, cr12, [ip], {205}	; 0xcd
    1aec:	00000000 	andeq	r0, r0, r0
    1af0:	f720081e 			; <UNDEFINED> instruction: 0xf720081e
    1af4:	2cf72525 	cfldr64cs	mvdx2, [r7], #148	; 0x94
    1af8:	9c9f2533 	cfldr32ls	mvfx2, [pc], {51}	; 0x33
    1afc:	a0000001 	andge	r0, r0, r1
    1b00:	01000001 	tsteq	r0, r1
    1b04:	01a05300 	lsleq	r5, r0, #6
    1b08:	01a80000 			; <UNDEFINED> instruction: 0x01a80000
    1b0c:	001c0000 	andseq	r0, ip, r0
    1b10:	2cf70070 	ldclcs	0, cr0, [r7], #448	; 0x1c0
    1b14:	25f425f7 	ldrbcs	r2, [r4, #1527]!	; 0x5f7
    1b18:	cccccd08 	stclgt	13, cr12, [ip], {8}
    1b1c:	000000cc 	andeq	r0, r0, ip, asr #1
    1b20:	20081e00 	andcs	r1, r8, r0, lsl #28
    1b24:	f72525f7 			; <UNDEFINED> instruction: 0xf72525f7
    1b28:	9f25332c 	svcls	0x0025332c
    1b2c:	000001a8 	andeq	r0, r0, r8, lsr #3
    1b30:	000001ac 	andeq	r0, r0, ip, lsr #3
    1b34:	ac530001 	mrrcge	0, 0, r0, r3, cr1
    1b38:	b4000001 	strlt	r0, [r0], #-1
    1b3c:	1c000001 	stcne	0, cr0, [r0], {1}
    1b40:	f7007000 			; <UNDEFINED> instruction: 0xf7007000
    1b44:	f425f72c 	vld1.8	{d15}, [r5 :128], ip
    1b48:	cccd0825 	stclgt	8, cr0, [sp], {37}	; 0x25
    1b4c:	0000cccc 	andeq	ip, r0, ip, asr #25
    1b50:	081e0000 	ldmdaeq	lr, {}	; <UNPREDICTABLE>
    1b54:	2525f720 	strcs	pc, [r5, #-1824]!	; 0x720
    1b58:	25332cf7 	ldrcs	r2, [r3, #-3319]!	; 0xcf7
    1b5c:	0001b49f 	muleq	r1, pc, r4	; <UNPREDICTABLE>
    1b60:	0001b800 	andeq	fp, r1, r0, lsl #16
    1b64:	53000100 	movwpl	r0, #256	; 0x100
    1b68:	000001b8 			; <UNDEFINED> instruction: 0x000001b8
    1b6c:	000001c0 	andeq	r0, r0, r0, asr #3
    1b70:	0070001c 	rsbseq	r0, r0, ip, lsl r0
    1b74:	25f72cf7 	ldrbcs	r2, [r7, #3319]!	; 0xcf7
    1b78:	cd0825f4 	cfstr32gt	mvfx2, [r8, #-976]	; 0xfffffc30
    1b7c:	00cccccc 	sbceq	ip, ip, ip, asr #25
    1b80:	1e000000 	cdpne	0, 0, cr0, cr0, cr0, {0}
    1b84:	25f72008 	ldrbcs	r2, [r7, #8]!
    1b88:	332cf725 	msrcc	CPSR_fs, #9699328	; 0x940000
    1b8c:	01c09f25 	biceq	r9, r0, r5, lsr #30
    1b90:	01c40000 	biceq	r0, r4, r0
    1b94:	00010000 	andeq	r0, r1, r0
    1b98:	0001c453 	andeq	ip, r1, r3, asr r4
    1b9c:	0001cc00 	andeq	ip, r1, r0, lsl #24
    1ba0:	70001c00 	andvc	r1, r0, r0, lsl #24
    1ba4:	f72cf700 			; <UNDEFINED> instruction: 0xf72cf700
    1ba8:	0825f425 	stmdaeq	r5!, {r0, r2, r5, sl, ip, sp, lr, pc}
    1bac:	cccccccd 	stclgt	12, cr12, [ip], {205}	; 0xcd
    1bb0:	00000000 	andeq	r0, r0, r0
    1bb4:	f720081e 			; <UNDEFINED> instruction: 0xf720081e
    1bb8:	2cf72525 	cfldr64cs	mvdx2, [r7], #148	; 0x94
    1bbc:	cc9f2533 	cfldr32gt	mvfx2, [pc], {51}	; 0x33
    1bc0:	d0000001 	andle	r0, r0, r1
    1bc4:	01000001 	tsteq	r0, r1
    1bc8:	01d05300 	bicseq	r5, r0, r0, lsl #6
    1bcc:	01d40000 	bicseq	r0, r4, r0
    1bd0:	001c0000 	andseq	r0, ip, r0
    1bd4:	2cf70070 	ldclcs	0, cr0, [r7], #448	; 0x1c0
    1bd8:	25f425f7 	ldrbcs	r2, [r4, #1527]!	; 0x5f7
    1bdc:	cccccd08 	stclgt	13, cr12, [ip], {8}
    1be0:	000000cc 	andeq	r0, r0, ip, asr #1
    1be4:	20081e00 	andcs	r1, r8, r0, lsl #28
    1be8:	f72525f7 			; <UNDEFINED> instruction: 0xf72525f7
    1bec:	9f25332c 	svcls	0x0025332c
    1bf0:	000001d4 	ldrdeq	r0, [r0], -r4
    1bf4:	000001dc 	ldrdeq	r0, [r0], -ip
    1bf8:	0074001c 	rsbseq	r0, r4, ip, lsl r0
    1bfc:	25f72cf7 	ldrbcs	r2, [r7, #3319]!	; 0xcf7
    1c00:	cd0825f4 	cfstr32gt	mvfx2, [r8, #-976]	; 0xfffffc30
    1c04:	00cccccc 	sbceq	ip, ip, ip, asr #25
    1c08:	1e000000 	cdpne	0, 0, cr0, cr0, cr0, {0}
    1c0c:	25f72008 	ldrbcs	r2, [r7, #8]!
    1c10:	332cf725 	msrcc	CPSR_fs, #9699328	; 0x940000
    1c14:	01dc9f25 	bicseq	r9, ip, r5, lsr #30
    1c18:	01e00000 	mvneq	r0, r0
    1c1c:	00170000 	andseq	r0, r7, r0
    1c20:	2cf70074 	ldclcs	0, cr0, [r7], #464	; 0x1d0
    1c24:	007125f7 	ldrshteq	r2, [r1], #-87	; 0xffffffa9
    1c28:	25f72cf7 	ldrbcs	r2, [r7, #3319]!	; 0xcf7
    1c2c:	f720081e 			; <UNDEFINED> instruction: 0xf720081e
    1c30:	2cf72525 	cfldr64cs	mvdx2, [r7], #148	; 0x94
    1c34:	e09f2533 	adds	r2, pc, r3, lsr r5	; <UNPREDICTABLE>
    1c38:	10000001 	andne	r0, r0, r1
    1c3c:	1c000002 	stcne	0, cr0, [r0], {2}
    1c40:	f7007400 			; <UNDEFINED> instruction: 0xf7007400
    1c44:	f425f72c 	vld1.8	{d15}, [r5 :128], ip
    1c48:	cccd0825 	stclgt	8, cr0, [sp], {37}	; 0x25
    1c4c:	0000cccc 	andeq	ip, r0, ip, asr #25
    1c50:	081e0000 	ldmdaeq	lr, {}	; <UNPREDICTABLE>
    1c54:	2525f720 	strcs	pc, [r5, #-1824]!	; 0x720
    1c58:	25332cf7 	ldrcs	r2, [r3, #-3319]!	; 0xcf7
    1c5c:	0000009f 	muleq	r0, pc, r0	; <UNPREDICTABLE>
    1c60:	00000000 	andeq	r0, r0, r0
    1c64:	0001d800 	andeq	sp, r1, r0, lsl #16
    1c68:	0001fc00 	andeq	pc, r1, r0, lsl #24
    1c6c:	50000100 	andpl	r0, r0, r0, lsl #2
    1c70:	000001fc 	strdeq	r0, [r0], -ip
    1c74:	00000203 	andeq	r0, r0, r3, lsl #4
    1c78:	00510001 	subseq	r0, r1, r1
    1c7c:	00000000 	andeq	r0, r0, r0
    1c80:	10000000 	andne	r0, r0, r0
    1c84:	2c000002 	stccs	0, cr0, [r0], {2}
    1c88:	01000002 	tsteq	r0, r2
    1c8c:	022c5000 	eoreq	r5, ip, #0
    1c90:	02340000 	eorseq	r0, r4, #0
    1c94:	00010000 	andeq	r0, r1, r0
    1c98:	00023454 	andeq	r3, r2, r4, asr r4
    1c9c:	00023c00 	andeq	r3, r2, r0, lsl #24
    1ca0:	50000100 	andpl	r0, r0, r0, lsl #2
    1ca4:	0000023c 	andeq	r0, r0, ip, lsr r2
    1ca8:	00000244 	andeq	r0, r0, r4, asr #4
    1cac:	44540001 	ldrbmi	r0, [r4], #-1
    1cb0:	50000002 	andpl	r0, r0, r2
    1cb4:	04000002 	streq	r0, [r0], #-2
    1cb8:	5001f300 	andpl	pc, r1, r0, lsl #6
    1cbc:	0002509f 	muleq	r2, pc, r0	; <UNPREDICTABLE>
    1cc0:	00025400 	andeq	r5, r2, r0, lsl #8
    1cc4:	50000100 	andpl	r0, r0, r0, lsl #2
    1cc8:	00000254 	andeq	r0, r0, r4, asr r2
    1ccc:	0000025c 	andeq	r0, r0, ip, asr r2
    1cd0:	00540001 	subseq	r0, r4, r1
    1cd4:	00000000 	andeq	r0, r0, r0
    1cd8:	20000000 	andcs	r0, r0, r0
    1cdc:	30000002 	andcc	r0, r0, r2
    1ce0:	02000002 	andeq	r0, r0, #2
    1ce4:	309f3000 	addscc	r3, pc, r0
    1ce8:	34000002 	strcc	r0, [r0], #-2
    1cec:	01000002 	tsteq	r0, r2
    1cf0:	02345000 	eorseq	r5, r4, #0
    1cf4:	02400000 	subeq	r0, r0, #0
    1cf8:	00020000 	andeq	r0, r2, r0
    1cfc:	02409f30 	subeq	r9, r0, #48, 30	; 0xc0
    1d00:	024c0000 	subeq	r0, ip, #0
    1d04:	00010000 	andeq	r0, r1, r0
    1d08:	00000050 	andeq	r0, r0, r0, asr r0
    1d0c:	00000000 	andeq	r0, r0, r0
    1d10:	00025c00 	andeq	r5, r2, r0, lsl #24
    1d14:	00027300 	andeq	r7, r2, r0, lsl #6
    1d18:	50000100 	andpl	r0, r0, r0, lsl #2
    1d1c:	00000273 	andeq	r0, r0, r3, ror r2
    1d20:	00000278 	andeq	r0, r0, r8, ror r2
    1d24:	01f30004 	mvnseq	r0, r4
    1d28:	02789f50 	rsbseq	r9, r8, #80, 30	; 0x140
    1d2c:	027b0000 	rsbseq	r0, fp, #0
    1d30:	00010000 	andeq	r0, r1, r0
    1d34:	00027b50 	andeq	r7, r2, r0, asr fp
    1d38:	00028000 	andeq	r8, r2, r0
    1d3c:	f3000400 	vshl.u8	d0, d0, d0
    1d40:	009f5001 	addseq	r5, pc, r1
    1d44:	00000000 	andeq	r0, r0, r0
    1d48:	5c000000 	stcpl	0, cr0, [r0], {-0}
    1d4c:	73000002 	movwvc	r0, #2
    1d50:	01000002 	tsteq	r0, r2
    1d54:	02735100 	rsbseq	r5, r3, #0, 2
    1d58:	02780000 	rsbseq	r0, r8, #0
    1d5c:	00040000 	andeq	r0, r4, r0
    1d60:	9f5101f3 	svcls	0x005101f3
    1d64:	00000278 	andeq	r0, r0, r8, ror r2
    1d68:	0000027b 	andeq	r0, r0, fp, ror r2
    1d6c:	7b510001 	blvc	1441d78 <__bss_end__+0x14376a0>
    1d70:	80000002 	andhi	r0, r0, r2
    1d74:	04000002 	streq	r0, [r0], #-2
    1d78:	5101f300 	mrspl	pc, SP_irq	; <UNPREDICTABLE>
    1d7c:	0000009f 	muleq	r0, pc, r0	; <UNPREDICTABLE>
    1d80:	00000000 	andeq	r0, r0, r0
    1d84:	00028000 	andeq	r8, r2, r0
    1d88:	00031800 	andeq	r1, r3, r0, lsl #16
    1d8c:	50000100 	andpl	r0, r0, r0, lsl #2
    1d90:	00000318 	andeq	r0, r0, r8, lsl r3
    1d94:	00000358 	andeq	r0, r0, r8, asr r3
    1d98:	00540001 	subseq	r0, r4, r1
    1d9c:	00000000 	andeq	r0, r0, r0
    1da0:	80000000 	andhi	r0, r0, r0
    1da4:	1b000002 	blne	1db4 <_start-0x624c>
    1da8:	01000003 	tsteq	r0, r3
    1dac:	031b5100 	tsteq	fp, #0, 2
    1db0:	03580000 	cmpeq	r8, #0
    1db4:	00040000 	andeq	r0, r4, r0
    1db8:	9f5101f3 	svcls	0x005101f3
	...
    1dc4:	000002d0 	ldrdeq	r0, [r0], -r0	; <UNPREDICTABLE>
    1dc8:	000002d4 	ldrdeq	r0, [r0], -r4
    1dcc:	dc560001 	mrrcle	0, 0, r0, r6, cr1
    1dd0:	e0000002 	and	r0, r0, r2
    1dd4:	01000002 	tsteq	r0, r2
    1dd8:	02e85600 	rsceq	r5, r8, #0, 12
    1ddc:	02ec0000 	rsceq	r0, ip, #0
    1de0:	00010000 	andeq	r0, r1, r0
    1de4:	0002f456 	andeq	pc, r2, r6, asr r4	; <UNPREDICTABLE>
    1de8:	0002f800 	andeq	pc, r2, r0, lsl #16
    1dec:	56000100 	strpl	r0, [r0], -r0, lsl #2
    1df0:	00000300 	andeq	r0, r0, r0, lsl #6
    1df4:	00000304 	andeq	r0, r0, r4, lsl #6
    1df8:	0c560001 	mrrceq	0, 0, r0, r6, cr1
    1dfc:	10000003 	andne	r0, r0, r3
    1e00:	01000003 	tsteq	r0, r3
    1e04:	03145600 	tsteq	r4, #0, 12
    1e08:	03580000 	cmpeq	r8, #0
    1e0c:	00010000 	andeq	r0, r1, r0
    1e10:	00000056 	andeq	r0, r0, r6, asr r0
    1e14:	00000000 	andeq	r0, r0, r0
    1e18:	0002a400 	andeq	sl, r2, r0, lsl #8
    1e1c:	0002cc00 	andeq	ip, r2, r0, lsl #24
    1e20:	53000100 	movwpl	r0, #256	; 0x100
    1e24:	000002cc 	andeq	r0, r0, ip, asr #5
    1e28:	000002d4 	ldrdeq	r0, [r0], -r4
    1e2c:	0070001c 	rsbseq	r0, r0, ip, lsl r0
    1e30:	25f72cf7 	ldrbcs	r2, [r7, #3319]!	; 0xcf7
    1e34:	cd0825f4 	cfstr32gt	mvfx2, [r8, #-976]	; 0xfffffc30
    1e38:	00cccccc 	sbceq	ip, ip, ip, asr #25
    1e3c:	1e000000 	cdpne	0, 0, cr0, cr0, cr0, {0}
    1e40:	25f72008 	ldrbcs	r2, [r7, #8]!
    1e44:	332cf725 	msrcc	CPSR_fs, #9699328	; 0x940000
    1e48:	02d49f25 	sbcseq	r9, r4, #37, 30	; 0x94
    1e4c:	02d80000 	sbcseq	r0, r8, #0
    1e50:	00010000 	andeq	r0, r1, r0
    1e54:	0002d853 	andeq	sp, r2, r3, asr r8
    1e58:	0002e000 	andeq	lr, r2, r0
    1e5c:	70001c00 	andvc	r1, r0, r0, lsl #24
    1e60:	f72cf700 			; <UNDEFINED> instruction: 0xf72cf700
    1e64:	0825f425 	stmdaeq	r5!, {r0, r2, r5, sl, ip, sp, lr, pc}
    1e68:	cccccccd 	stclgt	12, cr12, [ip], {205}	; 0xcd
    1e6c:	00000000 	andeq	r0, r0, r0
    1e70:	f720081e 			; <UNDEFINED> instruction: 0xf720081e
    1e74:	2cf72525 	cfldr64cs	mvdx2, [r7], #148	; 0x94
    1e78:	e09f2533 	adds	r2, pc, r3, lsr r5	; <UNPREDICTABLE>
    1e7c:	e4000002 	str	r0, [r0], #-2
    1e80:	01000002 	tsteq	r0, r2
    1e84:	02e45300 	rsceq	r5, r4, #0, 6
    1e88:	02ec0000 	rsceq	r0, ip, #0
    1e8c:	001c0000 	andseq	r0, ip, r0
    1e90:	2cf70070 	ldclcs	0, cr0, [r7], #448	; 0x1c0
    1e94:	25f425f7 	ldrbcs	r2, [r4, #1527]!	; 0x5f7
    1e98:	cccccd08 	stclgt	13, cr12, [ip], {8}
    1e9c:	000000cc 	andeq	r0, r0, ip, asr #1
    1ea0:	20081e00 	andcs	r1, r8, r0, lsl #28
    1ea4:	f72525f7 			; <UNDEFINED> instruction: 0xf72525f7
    1ea8:	9f25332c 	svcls	0x0025332c
    1eac:	000002ec 	andeq	r0, r0, ip, ror #5
    1eb0:	000002f0 	strdeq	r0, [r0], -r0	; <UNPREDICTABLE>
    1eb4:	f0530001 			; <UNDEFINED> instruction: 0xf0530001
    1eb8:	f8000002 			; <UNDEFINED> instruction: 0xf8000002
    1ebc:	1c000002 	stcne	0, cr0, [r0], {2}
    1ec0:	f7007000 			; <UNDEFINED> instruction: 0xf7007000
    1ec4:	f425f72c 	vld1.8	{d15}, [r5 :128], ip
    1ec8:	cccd0825 	stclgt	8, cr0, [sp], {37}	; 0x25
    1ecc:	0000cccc 	andeq	ip, r0, ip, asr #25
    1ed0:	081e0000 	ldmdaeq	lr, {}	; <UNPREDICTABLE>
    1ed4:	2525f720 	strcs	pc, [r5, #-1824]!	; 0x720
    1ed8:	25332cf7 	ldrcs	r2, [r3, #-3319]!	; 0xcf7
    1edc:	0002f89f 	muleq	r2, pc, r8	; <UNPREDICTABLE>
    1ee0:	0002fc00 	andeq	pc, r2, r0, lsl #24
    1ee4:	53000100 	movwpl	r0, #256	; 0x100
    1ee8:	000002fc 	strdeq	r0, [r0], -ip
    1eec:	00000304 	andeq	r0, r0, r4, lsl #6
    1ef0:	0070001c 	rsbseq	r0, r0, ip, lsl r0
    1ef4:	25f72cf7 	ldrbcs	r2, [r7, #3319]!	; 0xcf7
    1ef8:	cd0825f4 	cfstr32gt	mvfx2, [r8, #-976]	; 0xfffffc30
    1efc:	00cccccc 	sbceq	ip, ip, ip, asr #25
    1f00:	1e000000 	cdpne	0, 0, cr0, cr0, cr0, {0}
    1f04:	25f72008 	ldrbcs	r2, [r7, #8]!
    1f08:	332cf725 	msrcc	CPSR_fs, #9699328	; 0x940000
    1f0c:	03049f25 	movweq	r9, #20261	; 0x4f25
    1f10:	03080000 	movweq	r0, #32768	; 0x8000
    1f14:	00010000 	andeq	r0, r1, r0
    1f18:	00030853 	andeq	r0, r3, r3, asr r8
    1f1c:	00031000 	andeq	r1, r3, r0
    1f20:	70001c00 	andvc	r1, r0, r0, lsl #24
    1f24:	f72cf700 			; <UNDEFINED> instruction: 0xf72cf700
    1f28:	0825f425 	stmdaeq	r5!, {r0, r2, r5, sl, ip, sp, lr, pc}
    1f2c:	cccccccd 	stclgt	12, cr12, [ip], {205}	; 0xcd
    1f30:	00000000 	andeq	r0, r0, r0
    1f34:	f720081e 			; <UNDEFINED> instruction: 0xf720081e
    1f38:	2cf72525 	cfldr64cs	mvdx2, [r7], #148	; 0x94
    1f3c:	109f2533 	addsne	r2, pc, r3, lsr r5	; <UNPREDICTABLE>
    1f40:	14000003 	strne	r0, [r0], #-3
    1f44:	01000003 	tsteq	r0, r3
    1f48:	03145300 	tsteq	r4, #0, 6
    1f4c:	03180000 	tsteq	r8, #0
    1f50:	001c0000 	andseq	r0, ip, r0
    1f54:	2cf70070 	ldclcs	0, cr0, [r7], #448	; 0x1c0
    1f58:	25f425f7 	ldrbcs	r2, [r4, #1527]!	; 0x5f7
    1f5c:	cccccd08 	stclgt	13, cr12, [ip], {8}
    1f60:	000000cc 	andeq	r0, r0, ip, asr #1
    1f64:	20081e00 	andcs	r1, r8, r0, lsl #28
    1f68:	f72525f7 			; <UNDEFINED> instruction: 0xf72525f7
    1f6c:	9f25332c 	svcls	0x0025332c
    1f70:	00000318 	andeq	r0, r0, r8, lsl r3
    1f74:	00000320 	andeq	r0, r0, r0, lsr #6
    1f78:	0074001c 	rsbseq	r0, r4, ip, lsl r0
    1f7c:	25f72cf7 	ldrbcs	r2, [r7, #3319]!	; 0xcf7
    1f80:	cd0825f4 	cfstr32gt	mvfx2, [r8, #-976]	; 0xfffffc30
    1f84:	00cccccc 	sbceq	ip, ip, ip, asr #25
    1f88:	1e000000 	cdpne	0, 0, cr0, cr0, cr0, {0}
    1f8c:	25f72008 	ldrbcs	r2, [r7, #8]!
    1f90:	332cf725 	msrcc	CPSR_fs, #9699328	; 0x940000
    1f94:	03209f25 	teqeq	r0, #37, 30	; 0x94
    1f98:	03240000 	teqeq	r4, #0
    1f9c:	00170000 	andseq	r0, r7, r0
    1fa0:	2cf70074 	ldclcs	0, cr0, [r7], #464	; 0x1d0
    1fa4:	007325f7 	ldrshteq	r2, [r3], #-87	; 0xffffffa9
    1fa8:	25f72cf7 	ldrbcs	r2, [r7, #3319]!	; 0xcf7
    1fac:	f720081e 			; <UNDEFINED> instruction: 0xf720081e
    1fb0:	2cf72525 	cfldr64cs	mvdx2, [r7], #148	; 0x94
    1fb4:	249f2533 	ldrcs	r2, [pc], #1331	; 1fbc <_start-0x6044>
    1fb8:	58000003 	stmdapl	r0, {r0, r1}
    1fbc:	1c000003 	stcne	0, cr0, [r0], {3}
    1fc0:	f7007400 			; <UNDEFINED> instruction: 0xf7007400
    1fc4:	f425f72c 	vld1.8	{d15}, [r5 :128], ip
    1fc8:	cccd0825 	stclgt	8, cr0, [sp], {37}	; 0x25
    1fcc:	0000cccc 	andeq	ip, r0, ip, asr #25
    1fd0:	081e0000 	ldmdaeq	lr, {}	; <UNPREDICTABLE>
    1fd4:	2525f720 	strcs	pc, [r5, #-1824]!	; 0x720
    1fd8:	25332cf7 	ldrcs	r2, [r3, #-3319]!	; 0xcf7
    1fdc:	0000009f 	muleq	r0, pc, r0	; <UNPREDICTABLE>
    1fe0:	00000000 	andeq	r0, r0, r0
    1fe4:	00031c00 	andeq	r1, r3, r0, lsl #24
    1fe8:	00034000 	andeq	r4, r3, r0
    1fec:	50000100 	andpl	r0, r0, r0, lsl #2
    1ff0:	00000340 	andeq	r0, r0, r0, asr #6
    1ff4:	00000348 	andeq	r0, r0, r8, asr #6
    1ff8:	00750009 	rsbseq	r0, r5, r9
    1ffc:	71240073 	teqvc	r4, r3, ror r0
    2000:	489f2100 	ldmmi	pc, {r8, sp}	; <UNPREDICTABLE>
    2004:	4b000003 	blmi	2018 <_start-0x5fe8>
    2008:	01000003 	tsteq	r0, r3
    200c:	00005100 	andeq	r5, r0, r0, lsl #2
    2010:	00000000 	andeq	r0, r0, r0
    2014:	03580000 	cmpeq	r8, #0
    2018:	037c0000 	cmneq	ip, #0
    201c:	00010000 	andeq	r0, r1, r0
    2020:	00037c50 	andeq	r7, r3, r0, asr ip
    2024:	00039000 	andeq	r9, r3, r0
    2028:	f3000400 	vshl.u8	d0, d0, d0
    202c:	009f5001 	addseq	r5, pc, r1
    2030:	00000000 	andeq	r0, r0, r0
    2034:	64000000 	strvs	r0, [r0], #-0
    2038:	6c000003 	stcvs	0, cr0, [r0], {3}
    203c:	02000003 	andeq	r0, r0, #3
    2040:	6c9f3000 	ldcvs	0, cr3, [pc], {0}
    2044:	6c000003 	stcvs	0, cr0, [r0], {3}
    2048:	01000003 	tsteq	r0, r3
    204c:	036c5200 	cmneq	ip, #0, 4
    2050:	03740000 	cmneq	r4, #0
    2054:	00020000 	andeq	r0, r2, r0
    2058:	03749f30 	cmneq	r4, #48, 30	; 0xc0
    205c:	03870000 	orreq	r0, r7, #0
    2060:	00010000 	andeq	r0, r1, r0
    2064:	00000052 	andeq	r0, r0, r2, asr r0
    2068:	00000000 	andeq	r0, r0, r0
    206c:	00036400 	andeq	r6, r3, r0, lsl #8
    2070:	00037800 	andeq	r7, r3, r0, lsl #16
    2074:	30000200 	andcc	r0, r0, r0, lsl #4
    2078:	0003789f 	muleq	r3, pc, r8	; <UNPREDICTABLE>
    207c:	00038400 	andeq	r8, r3, r0, lsl #8
    2080:	31000500 	tstcc	r0, r0, lsl #10
    2084:	9f240073 	svcls	0x00240073
    2088:	00000384 	andeq	r0, r0, r4, lsl #7
    208c:	00000387 	andeq	r0, r0, r7, lsl #7
    2090:	87510001 	ldrbhi	r0, [r1, -r1]
    2094:	90000003 	andls	r0, r0, r3
    2098:	08000003 	stmdaeq	r0, {r0, r1}
    209c:	01f33100 	mvnseq	r3, r0, lsl #2
    20a0:	241a4f50 	ldrcs	r4, [sl], #-3920	; 0xf50
    20a4:	0000009f 	muleq	r0, pc, r0	; <UNPREDICTABLE>
    20a8:	00000000 	andeq	r0, r0, r0
    20ac:	00039000 	andeq	r9, r3, r0
    20b0:	00039c00 	andeq	r9, r3, r0, lsl #24
    20b4:	50000100 	andpl	r0, r0, r0, lsl #2
    20b8:	0000039c 	muleq	r0, ip, r3
    20bc:	000003bc 			; <UNDEFINED> instruction: 0x000003bc
    20c0:	01f30004 	mvnseq	r0, r4
    20c4:	00009f50 	andeq	r9, r0, r0, asr pc
    20c8:	00000000 	andeq	r0, r0, r0
    20cc:	03bc0000 			; <UNDEFINED> instruction: 0x03bc0000
    20d0:	03cf0000 	biceq	r0, pc, #0
    20d4:	00010000 	andeq	r0, r1, r0
    20d8:	0003cf50 	andeq	ip, r3, r0, asr pc
    20dc:	00040800 	andeq	r0, r4, r0, lsl #16
    20e0:	54000100 	strpl	r0, [r0], #-256	; 0x100
    20e4:	00000408 	andeq	r0, r0, r8, lsl #8
    20e8:	00000440 	andeq	r0, r0, r0, asr #8
    20ec:	01f30004 	mvnseq	r0, r4
    20f0:	00009f50 	andeq	r9, r0, r0, asr pc
    20f4:	00000000 	andeq	r0, r0, r0
    20f8:	04280000 	strteq	r0, [r8], #-0
    20fc:	042c0000 	strteq	r0, [ip], #-0
    2100:	00010000 	andeq	r0, r1, r0
    2104:	00042c50 	andeq	r2, r4, r0, asr ip
    2108:	00043300 	andeq	r3, r4, r0, lsl #6
    210c:	51000100 	mrspl	r0, (UNDEF: 16)
	...
    2118:	000003e4 	andeq	r0, r0, r4, ror #7
    211c:	000003ec 	andeq	r0, r0, ip, ror #7
    2120:	ec500001 	mrrc	0, 0, r0, r0, cr1	; <UNPREDICTABLE>
    2124:	f3000003 	vhadd.u8	d0, d0, d3
    2128:	01000003 	tsteq	r0, r3
    212c:	00005100 	andeq	r5, r0, r0, lsl #2
    2130:	00000000 	andeq	r0, r0, r0
    2134:	04040000 	streq	r0, [r4], #-0
    2138:	04100000 	ldreq	r0, [r0], #-0
    213c:	00010000 	andeq	r0, r1, r0
    2140:	00041050 	andeq	r1, r4, r0, asr r0
    2144:	00041700 	andeq	r1, r4, r0, lsl #14
    2148:	51000100 	mrspl	r0, (UNDEF: 16)
	...
    2154:	00000440 	andeq	r0, r0, r0, asr #8
    2158:	00000453 	andeq	r0, r0, r3, asr r4
    215c:	53500001 	cmppl	r0, #1
    2160:	8c000004 	stchi	0, cr0, [r0], {4}
    2164:	01000004 	tsteq	r0, r4
    2168:	048c5400 	streq	r5, [ip], #1024	; 0x400
    216c:	04c40000 	strbeq	r0, [r4], #0
    2170:	00040000 	andeq	r0, r4, r0
    2174:	9f5001f3 	svcls	0x005001f3
	...
    2180:	000004ac 	andeq	r0, r0, ip, lsr #9
    2184:	000004b0 			; <UNDEFINED> instruction: 0x000004b0
    2188:	b0500001 	subslt	r0, r0, r1
    218c:	b7000004 	strlt	r0, [r0, -r4]
    2190:	01000004 	tsteq	r0, r4
    2194:	00005100 	andeq	r5, r0, r0, lsl #2
    2198:	00000000 	andeq	r0, r0, r0
    219c:	04680000 	strbteq	r0, [r8], #-0
    21a0:	04700000 	ldrbteq	r0, [r0], #-0
    21a4:	00010000 	andeq	r0, r1, r0
    21a8:	00047050 	andeq	r7, r4, r0, asr r0
    21ac:	00047700 	andeq	r7, r4, r0, lsl #14
    21b0:	51000100 	mrspl	r0, (UNDEF: 16)
	...
    21bc:	00000488 	andeq	r0, r0, r8, lsl #9
    21c0:	00000494 	muleq	r0, r4, r4
    21c4:	94500001 	ldrbls	r0, [r0], #-1
    21c8:	9b000004 	blls	21e0 <_start-0x5e20>
    21cc:	01000004 	tsteq	r0, r4
    21d0:	00005100 	andeq	r5, r0, r0, lsl #2
    21d4:	00000000 	andeq	r0, r0, r0
    21d8:	04c40000 	strbeq	r0, [r4], #0
    21dc:	04d70000 	ldrbeq	r0, [r7], #0
    21e0:	00010000 	andeq	r0, r1, r0
    21e4:	0004d750 	andeq	sp, r4, r0, asr r7
    21e8:	00051800 	andeq	r1, r5, r0, lsl #16
    21ec:	54000100 	strpl	r0, [r0], #-256	; 0x100
    21f0:	00000518 	andeq	r0, r0, r8, lsl r5
    21f4:	0000053c 	andeq	r0, r0, ip, lsr r5
    21f8:	01f30004 	mvnseq	r0, r4
    21fc:	053c9f50 	ldreq	r9, [ip, #-3920]!	; 0xf50
    2200:	05400000 	strbeq	r0, [r0, #-0]
    2204:	00010000 	andeq	r0, r1, r0
    2208:	00054050 	andeq	r4, r5, r0, asr r0
    220c:	00054800 	andeq	r4, r5, r0, lsl #16
    2210:	54000100 	strpl	r0, [r0], #-256	; 0x100
	...
    221c:	000004ec 	andeq	r0, r0, ip, ror #9
    2220:	000004fb 	strdeq	r0, [r0], -fp
    2224:	74310008 	ldrtvc	r0, [r1], #-8
    2228:	00702400 	rsbseq	r2, r0, r0, lsl #8
    222c:	00009f1a 	andeq	r9, r0, sl, lsl pc
    2230:	00000000 	andeq	r0, r0, r0
    2234:	05180000 	ldreq	r0, [r8, #-0]
    2238:	05300000 	ldreq	r0, [r0, #-0]!
    223c:	00010000 	andeq	r0, r1, r0
    2240:	00000054 	andeq	r0, r0, r4, asr r0
    2244:	00000000 	andeq	r0, r0, r0
    2248:	00054800 	andeq	r4, r5, r0, lsl #16
    224c:	00055b00 	andeq	r5, r5, r0, lsl #22
    2250:	50000100 	andpl	r0, r0, r0, lsl #2
    2254:	0000055b 	andeq	r0, r0, fp, asr r5
    2258:	00000580 	andeq	r0, r0, r0, lsl #11
    225c:	80540001 	subshi	r0, r4, r1
    2260:	a0000005 	andge	r0, r0, r5
    2264:	04000005 	streq	r0, [r0], #-5
    2268:	5001f300 	andpl	pc, r1, r0, lsl #6
    226c:	0000009f 	muleq	r0, pc, r0	; <UNPREDICTABLE>
	...
    2278:	00001800 	andeq	r1, r0, r0, lsl #16
    227c:	50000100 	andpl	r0, r0, r0, lsl #2
    2280:	00000018 	andeq	r0, r0, r8, lsl r0
    2284:	00000154 	andeq	r0, r0, r4, asr r1
    2288:	01f30004 	mvnseq	r0, r4
    228c:	00009f50 	andeq	r9, r0, r0, asr pc
	...
    2298:	001c0000 	andseq	r0, ip, r0
    229c:	00010000 	andeq	r0, r1, r0
    22a0:	00001c51 	andeq	r1, r0, r1, asr ip
    22a4:	00015400 	andeq	r5, r1, r0, lsl #8
    22a8:	f3000400 	vshl.u8	d0, d0, d0
    22ac:	009f5101 	addseq	r5, pc, r1, lsl #2
    22b0:	00000000 	andeq	r0, r0, r0
    22b4:	10000000 	andne	r0, r0, r0
    22b8:	34000000 	strcc	r0, [r0], #-0
    22bc:	01000001 	tsteq	r0, r1
    22c0:	00005500 	andeq	r5, r0, r0, lsl #10
    22c4:	00000000 	andeq	r0, r0, r0
    22c8:	00100000 	andseq	r0, r0, r0
    22cc:	00340000 	eorseq	r0, r4, r0
    22d0:	00010000 	andeq	r0, r1, r0
    22d4:	00003455 	andeq	r3, r0, r5, asr r4
    22d8:	00013400 	andeq	r3, r1, r0, lsl #8
    22dc:	58000100 	stmdapl	r0, {r8}
    22e0:	00000134 	andeq	r0, r0, r4, lsr r1
    22e4:	00000154 	andeq	r0, r0, r4, asr r1
    22e8:	00550001 	subseq	r0, r5, r1
    22ec:	00000000 	andeq	r0, r0, r0
    22f0:	14000000 	strne	r0, [r0], #-0
    22f4:	34000000 	strcc	r0, [r0], #-0
    22f8:	01000001 	tsteq	r0, r1
    22fc:	00005500 	andeq	r5, r0, r0, lsl #10
    2300:	00000000 	andeq	r0, r0, r0
    2304:	00200000 	eoreq	r0, r0, r0
    2308:	01340000 	teqeq	r4, r0
    230c:	00010000 	andeq	r0, r1, r0
    2310:	00000055 	andeq	r0, r0, r5, asr r0
    2314:	00000000 	andeq	r0, r0, r0
    2318:	00002400 	andeq	r2, r0, r0, lsl #8
    231c:	00002800 	andeq	r2, r0, r0, lsl #16
    2320:	53000100 	movwpl	r0, #256	; 0x100
	...
    232c:	00000034 	andeq	r0, r0, r4, lsr r0
    2330:	00000054 	andeq	r0, r0, r4, asr r0
    2334:	54580001 	ldrbpl	r0, [r8], #-1
    2338:	34000000 	strcc	r0, [r0], #-0
    233c:	05000001 	streq	r0, [r0, #-1]
    2340:	31007500 	tstcc	r0, r0, lsl #10
    2344:	00009f24 	andeq	r9, r0, r4, lsr #30
    2348:	00000000 	andeq	r0, r0, r0
    234c:	00340000 	eorseq	r0, r4, r0
    2350:	003c0000 	eorseq	r0, ip, r0
    2354:	00050000 	andeq	r0, r5, r0
    2358:	1a310077 	bne	c4253c <__bss_end__+0xc37e64>
    235c:	00003c9f 	muleq	r0, pc, ip	; <UNPREDICTABLE>
    2360:	00003f00 	andeq	r3, r0, r0, lsl #30
    2364:	51000100 	mrspl	r0, (UNDEF: 16)
    2368:	0000003f 	andeq	r0, r0, pc, lsr r0
    236c:	00000154 	andeq	r0, r0, r4, asr r1
    2370:	00770005 	rsbseq	r0, r7, r5
    2374:	009f1a31 	addseq	r1, pc, r1, lsr sl	; <UNPREDICTABLE>
    2378:	00000000 	andeq	r0, r0, r0
    237c:	40000000 	andmi	r0, r0, r0
    2380:	54000000 	strpl	r0, [r0], #-0
    2384:	01000000 	mrseq	r0, (UNDEF: 0)
    2388:	00545800 	subseq	r5, r4, r0, lsl #16
    238c:	01340000 	teqeq	r4, r0
    2390:	00050000 	andeq	r0, r5, r0
    2394:	24310075 	ldrtcs	r0, [r1], #-117	; 0x75
    2398:	0000009f 	muleq	r0, pc, r0	; <UNPREDICTABLE>
    239c:	00000000 	andeq	r0, r0, r0
    23a0:	00004400 	andeq	r4, r0, r0, lsl #8
    23a4:	00004800 	andeq	r4, r0, r0, lsl #16
    23a8:	53000100 	movwpl	r0, #256	; 0x100
	...
    23b4:	00000054 	andeq	r0, r0, r4, asr r0
    23b8:	00000074 	andeq	r0, r0, r4, ror r0
    23bc:	74580001 	ldrbvc	r0, [r8], #-1
    23c0:	34000000 	strcc	r0, [r0], #-0
    23c4:	08000001 	stmdaeq	r0, {r0}
    23c8:	31007500 	tstcc	r0, r0, lsl #10
    23cc:	22007524 	andcs	r7, r0, #36, 10	; 0x9000000
    23d0:	0000009f 	muleq	r0, pc, r0	; <UNPREDICTABLE>
    23d4:	00000000 	andeq	r0, r0, r0
    23d8:	00006000 	andeq	r6, r0, r0
    23dc:	00007400 	andeq	r7, r0, r0, lsl #8
    23e0:	58000100 	stmdapl	r0, {r8}
    23e4:	00000074 	andeq	r0, r0, r4, ror r0
    23e8:	00000134 	andeq	r0, r0, r4, lsr r1
    23ec:	00750008 	rsbseq	r0, r5, r8
    23f0:	00752431 	rsbseq	r2, r5, r1, lsr r4
    23f4:	00009f22 	andeq	r9, r0, r2, lsr #30
    23f8:	00000000 	andeq	r0, r0, r0
    23fc:	00640000 	rsbeq	r0, r4, r0
    2400:	00680000 	rsbeq	r0, r8, r0
    2404:	00010000 	andeq	r0, r1, r0
    2408:	00000053 	andeq	r0, r0, r3, asr r0
    240c:	00000000 	andeq	r0, r0, r0
    2410:	00007400 	andeq	r7, r0, r0, lsl #8
    2414:	00009400 	andeq	r9, r0, r0, lsl #8
    2418:	58000100 	stmdapl	r0, {r8}
    241c:	00000094 	muleq	r0, r4, r0
    2420:	00000134 	andeq	r0, r0, r4, lsr r1
    2424:	00750005 	rsbseq	r0, r5, r5
    2428:	009f2432 	addseq	r2, pc, r2, lsr r4	; <UNPREDICTABLE>
    242c:	00000000 	andeq	r0, r0, r0
    2430:	80000000 	andhi	r0, r0, r0
    2434:	94000000 	strls	r0, [r0], #-0
    2438:	01000000 	mrseq	r0, (UNDEF: 0)
    243c:	00945800 	addseq	r5, r4, r0, lsl #16
    2440:	01340000 	teqeq	r4, r0
    2444:	00050000 	andeq	r0, r5, r0
    2448:	24320075 	ldrtcs	r0, [r2], #-117	; 0x75
    244c:	0000009f 	muleq	r0, pc, r0	; <UNPREDICTABLE>
    2450:	00000000 	andeq	r0, r0, r0
    2454:	00008400 	andeq	r8, r0, r0, lsl #8
    2458:	00008800 	andeq	r8, r0, r0, lsl #16
    245c:	53000100 	movwpl	r0, #256	; 0x100
	...
    2468:	00000094 	muleq	r0, r4, r0
    246c:	000000b4 	strheq	r0, [r0], -r4
    2470:	b4580001 	ldrblt	r0, [r8], #-1
    2474:	34000000 	strcc	r0, [r0], #-0
    2478:	08000001 	stmdaeq	r0, {r0}
    247c:	32007500 	andcc	r7, r0, #0, 10
    2480:	22007524 	andcs	r7, r0, #36, 10	; 0x9000000
    2484:	0000009f 	muleq	r0, pc, r0	; <UNPREDICTABLE>
    2488:	00000000 	andeq	r0, r0, r0
    248c:	0000a000 	andeq	sl, r0, r0
    2490:	0000b400 	andeq	fp, r0, r0, lsl #8
    2494:	58000100 	stmdapl	r0, {r8}
    2498:	000000b4 	strheq	r0, [r0], -r4
    249c:	00000134 	andeq	r0, r0, r4, lsr r1
    24a0:	00750008 	rsbseq	r0, r5, r8
    24a4:	00752432 	rsbseq	r2, r5, r2, lsr r4
    24a8:	00009f22 	andeq	r9, r0, r2, lsr #30
    24ac:	00000000 	andeq	r0, r0, r0
    24b0:	00a40000 	adceq	r0, r4, r0
    24b4:	00a80000 	adceq	r0, r8, r0
    24b8:	00010000 	andeq	r0, r1, r0
    24bc:	00000053 	andeq	r0, r0, r3, asr r0
    24c0:	00000000 	andeq	r0, r0, r0
    24c4:	0000b400 	andeq	fp, r0, r0, lsl #8
    24c8:	0000d400 	andeq	sp, r0, r0, lsl #8
    24cc:	58000100 	stmdapl	r0, {r8}
    24d0:	000000d4 	ldrdeq	r0, [r0], -r4
    24d4:	00000134 	andeq	r0, r0, r4, lsr r1
    24d8:	0075000a 	rsbseq	r0, r5, sl
    24dc:	00752432 	rsbseq	r2, r5, r2, lsr r4
    24e0:	9f222431 	svcls	0x00222431
	...
    24ec:	000000c0 	andeq	r0, r0, r0, asr #1
    24f0:	000000d4 	ldrdeq	r0, [r0], -r4
    24f4:	d4580001 	ldrble	r0, [r8], #-1
    24f8:	34000000 	strcc	r0, [r0], #-0
    24fc:	0a000001 	beq	2508 <_start-0x5af8>
    2500:	32007500 	andcc	r7, r0, #0, 10
    2504:	31007524 	tstcc	r0, r4, lsr #10
    2508:	009f2224 	addseq	r2, pc, r4, lsr #4
    250c:	00000000 	andeq	r0, r0, r0
    2510:	c4000000 	strgt	r0, [r0], #-0
    2514:	c8000000 	stmdagt	r0, {}	; <UNPREDICTABLE>
    2518:	01000000 	mrseq	r0, (UNDEF: 0)
    251c:	00005300 	andeq	r5, r0, r0, lsl #6
    2520:	00000000 	andeq	r0, r0, r0
    2524:	00d40000 	sbcseq	r0, r4, r0
    2528:	00f40000 	rscseq	r0, r4, r0
    252c:	00010000 	andeq	r0, r1, r0
    2530:	0000f458 	andeq	pc, r0, r8, asr r4	; <UNPREDICTABLE>
    2534:	00013400 	andeq	r3, r1, r0, lsl #8
    2538:	75000d00 	strvc	r0, [r0, #-3328]	; 0xd00
    253c:	75243200 	strvc	r3, [r4, #-512]!	; 0x200
    2540:	22243100 	eorcs	r3, r4, #0, 2
    2544:	9f220075 	svcls	0x00220075
	...
    2550:	000000e0 	andeq	r0, r0, r0, ror #1
    2554:	000000f4 	strdeq	r0, [r0], -r4
    2558:	f4580001 			; <UNDEFINED> instruction: 0xf4580001
    255c:	34000000 	strcc	r0, [r0], #-0
    2560:	0d000001 	stceq	0, cr0, [r0, #-4]
    2564:	32007500 	andcc	r7, r0, #0, 10
    2568:	31007524 	tstcc	r0, r4, lsr #10
    256c:	00752224 	rsbseq	r2, r5, r4, lsr #4
    2570:	00009f22 	andeq	r9, r0, r2, lsr #30
    2574:	00000000 	andeq	r0, r0, r0
    2578:	00e40000 	rsceq	r0, r4, r0
    257c:	00e80000 	rsceq	r0, r8, r0
    2580:	00010000 	andeq	r0, r1, r0
    2584:	00000053 	andeq	r0, r0, r3, asr r0
    2588:	00000000 	andeq	r0, r0, r0
    258c:	0000f400 	andeq	pc, r0, r0, lsl #8
    2590:	00011400 	andeq	r1, r1, r0, lsl #8
    2594:	58000100 	stmdapl	r0, {r8}
    2598:	00000114 	andeq	r0, r0, r4, lsl r1
    259c:	00000134 	andeq	r0, r0, r4, lsr r1
    25a0:	00750005 	rsbseq	r0, r5, r5
    25a4:	009f2433 	addseq	r2, pc, r3, lsr r4	; <UNPREDICTABLE>
	...
    25b0:	14000001 	strne	r0, [r0], #-1
    25b4:	01000001 	tsteq	r0, r1
    25b8:	01145800 	tsteq	r4, r0, lsl #16
    25bc:	01340000 	teqeq	r4, r0
    25c0:	00050000 	andeq	r0, r5, r0
    25c4:	24330075 	ldrtcs	r0, [r3], #-117	; 0x75
    25c8:	0000009f 	muleq	r0, pc, r0	; <UNPREDICTABLE>
    25cc:	00000000 	andeq	r0, r0, r0
    25d0:	00010400 	andeq	r0, r1, r0, lsl #8
    25d4:	00010800 	andeq	r0, r1, r0, lsl #16
    25d8:	53000100 	movwpl	r0, #256	; 0x100
	...
    25e4:	00000114 	andeq	r0, r0, r4, lsl r1
    25e8:	0000011c 	andeq	r0, r0, ip, lsl r1
    25ec:	00770006 	rsbseq	r0, r7, r6
    25f0:	9f1a8008 	svcls	0x001a8008
    25f4:	0000011c 	andeq	r0, r0, ip, lsl r1
    25f8:	0000011f 	andeq	r0, r0, pc, lsl r1
    25fc:	1f510001 	svcne	0x00510001
    2600:	54000001 	strpl	r0, [r0], #-1
    2604:	06000001 	streq	r0, [r0], -r1
    2608:	08007700 	stmdaeq	r0, {r8, r9, sl, ip, sp, lr}
    260c:	009f1a80 	addseq	r1, pc, r0, lsl #21
    2610:	00000000 	andeq	r0, r0, r0
    2614:	24000000 	strcs	r0, [r0], #-0
    2618:	28000001 	stmdacs	r0, {r0}
    261c:	01000001 	tsteq	r0, r1
    2620:	00005300 	andeq	r5, r0, r0, lsl #6
    2624:	00000000 	andeq	r0, r0, r0
    2628:	01440000 	mrseq	r0, (UNDEF: 68)
    262c:	01480000 	mrseq	r0, (UNDEF: 72)
    2630:	00010000 	andeq	r0, r1, r0
    2634:	00000053 	andeq	r0, r0, r3, asr r0
    2638:	00000000 	andeq	r0, r0, r0
    263c:	00015400 	andeq	r5, r1, r0, lsl #8
    2640:	00016b00 	andeq	r6, r1, r0, lsl #22
    2644:	50000100 	andpl	r0, r0, r0, lsl #2
    2648:	0000016b 	andeq	r0, r0, fp, ror #2
    264c:	000001d0 	ldrdeq	r0, [r0], -r0	; <UNPREDICTABLE>
    2650:	d0590001 	subsle	r0, r9, r1
    2654:	0c000001 	stceq	0, cr0, [r0], {1}
    2658:	04000003 	streq	r0, [r0], #-3
    265c:	5001f300 	andpl	pc, r1, r0, lsl #6
    2660:	00030c9f 	muleq	r3, pc, ip	; <UNPREDICTABLE>
    2664:	00031400 	andeq	r1, r3, r0, lsl #8
    2668:	59000100 	stmdbpl	r0, {r8}
    266c:	00000314 	andeq	r0, r0, r4, lsl r3
    2670:	0000031c 	andeq	r0, r0, ip, lsl r3
    2674:	01f30004 	mvnseq	r0, r4
    2678:	00009f50 	andeq	r9, r0, r0, asr pc
    267c:	00000000 	andeq	r0, r0, r0
    2680:	01540000 	cmpeq	r4, r0
    2684:	016b0000 	cmneq	fp, r0
    2688:	00010000 	andeq	r0, r1, r0
    268c:	00016b51 	andeq	r6, r1, r1, asr fp
    2690:	00031c00 	andeq	r1, r3, r0, lsl #24
    2694:	56000100 	strpl	r0, [r0], -r0, lsl #2
	...
    26a0:	000001a8 	andeq	r0, r0, r8, lsr #3
    26a4:	00000298 	muleq	r0, r8, r2
    26a8:	00580001 	subseq	r0, r8, r1
    26ac:	00000000 	andeq	r0, r0, r0
    26b0:	ac000000 	stcge	0, cr0, [r0], {-0}
    26b4:	d0000001 	andle	r0, r0, r1
    26b8:	01000002 	tsteq	r0, r2
    26bc:	00005400 	andeq	r5, r0, r0, lsl #8
    26c0:	00000000 	andeq	r0, r0, r0
    26c4:	01ac0000 			; <UNDEFINED> instruction: 0x01ac0000
    26c8:	02d00000 	sbcseq	r0, r0, #0
    26cc:	00050000 	andeq	r0, r5, r0
    26d0:	25310074 	ldrcs	r0, [r1, #-116]!	; 0x74
    26d4:	0000009f 	muleq	r0, pc, r0	; <UNPREDICTABLE>
    26d8:	00000000 	andeq	r0, r0, r0
    26dc:	0001ac00 	andeq	sl, r1, r0, lsl #24
    26e0:	0001d000 	andeq	sp, r1, r0
    26e4:	30000200 	andcc	r0, r0, r0, lsl #4
    26e8:	0001d09f 	muleq	r1, pc, r0	; <UNPREDICTABLE>
    26ec:	00030c00 	andeq	r0, r3, r0, lsl #24
    26f0:	59000100 	stmdbpl	r0, {r8}
    26f4:	00000314 	andeq	r0, r0, r4, lsl r3
    26f8:	0000031c 	andeq	r0, r0, ip, lsl r3
    26fc:	00590001 	subseq	r0, r9, r1
    2700:	00000000 	andeq	r0, r0, r0
    2704:	68000000 	stmdavs	r0, {}	; <UNPREDICTABLE>
    2708:	6b000001 	blvs	2714 <_start-0x58ec>
    270c:	01000001 	tsteq	r0, r1
    2710:	016b5100 	cmneq	fp, r0, lsl #2
    2714:	031c0000 	tsteq	ip, #0
    2718:	00010000 	andeq	r0, r1, r0
    271c:	00000056 	andeq	r0, r0, r6, asr r0
    2720:	00000000 	andeq	r0, r0, r0
    2724:	00017000 	andeq	r7, r1, r0
    2728:	0001ac00 	andeq	sl, r1, r0, lsl #24
    272c:	54000100 	strpl	r0, [r0], #-256	; 0x100
    2730:	0000030c 	andeq	r0, r0, ip, lsl #6
    2734:	00000314 	andeq	r0, r0, r4, lsl r3
    2738:	00540001 	subseq	r0, r4, r1
    273c:	00000000 	andeq	r0, r0, r0
    2740:	a8000000 	stmdage	r0, {}	; <UNPREDICTABLE>
    2744:	c4000001 	strgt	r0, [r0], #-1
    2748:	01000001 	tsteq	r0, r1
    274c:	00005800 	andeq	r5, r0, r0, lsl #16
    2750:	00000000 	andeq	r0, r0, r0
    2754:	01b00000 	movseq	r0, r0
    2758:	01cb0000 	biceq	r0, fp, r0
    275c:	00010000 	andeq	r0, r1, r0
    2760:	0001cb52 	andeq	ip, r1, r2, asr fp
    2764:	0002d000 	andeq	sp, r2, r0
    2768:	74000800 	strvc	r0, [r0], #-2048	; 0x800
    276c:	74253100 	strtvc	r3, [r5], #-256	; 0x100
    2770:	009f2200 	addseq	r2, pc, r0, lsl #4
    2774:	00000000 	andeq	r0, r0, r0
    2778:	b0000000 	andlt	r0, r0, r0
    277c:	c4000001 	strgt	r0, [r0], #-1
    2780:	01000001 	tsteq	r0, r1
    2784:	00005800 	andeq	r5, r0, r0, lsl #16
    2788:	00000000 	andeq	r0, r0, r0
    278c:	01b40000 			; <UNDEFINED> instruction: 0x01b40000
    2790:	01b80000 			; <UNDEFINED> instruction: 0x01b80000
    2794:	00010000 	andeq	r0, r1, r0
    2798:	00000053 	andeq	r0, r0, r3, asr r0
    279c:	00000000 	andeq	r0, r0, r0
    27a0:	0001d000 	andeq	sp, r1, r0
    27a4:	0002d000 	andeq	sp, r2, r0
    27a8:	54000100 	strpl	r0, [r0], #-256	; 0x100
	...
    27b4:	000001d0 	ldrdeq	r0, [r0], -r0	; <UNPREDICTABLE>
    27b8:	000001e4 	andeq	r0, r0, r4, ror #3
    27bc:	00580001 	subseq	r0, r8, r1
    27c0:	00000000 	andeq	r0, r0, r0
    27c4:	d4000000 	strle	r0, [r0], #-0
    27c8:	d8000001 	stmdale	r0, {r0}
    27cc:	01000001 	tsteq	r0, r1
    27d0:	00005300 	andeq	r5, r0, r0, lsl #6
    27d4:	00000000 	andeq	r0, r0, r0
    27d8:	01f40000 	mvnseq	r0, r0
    27dc:	02d00000 	sbcseq	r0, r0, #0
    27e0:	00010000 	andeq	r0, r1, r0
    27e4:	00000054 	andeq	r0, r0, r4, asr r0
    27e8:	00000000 	andeq	r0, r0, r0
    27ec:	0001f400 	andeq	pc, r1, r0, lsl #8
    27f0:	00020800 	andeq	r0, r2, r0, lsl #16
    27f4:	58000100 	stmdapl	r0, {r8}
	...
    2800:	000001f8 	strdeq	r0, [r0], -r8
    2804:	000001fc 	strdeq	r0, [r0], -ip
    2808:	00530001 	subseq	r0, r3, r1
    280c:	00000000 	andeq	r0, r0, r0
    2810:	18000000 	stmdane	r0, {}	; <UNPREDICTABLE>
    2814:	d0000002 	andle	r0, r0, r2
    2818:	01000002 	tsteq	r0, r2
    281c:	00005400 	andeq	r5, r0, r0, lsl #8
    2820:	00000000 	andeq	r0, r0, r0
    2824:	02180000 	andseq	r0, r8, #0
    2828:	022c0000 	eoreq	r0, ip, #0
    282c:	00010000 	andeq	r0, r1, r0
    2830:	00000058 	andeq	r0, r0, r8, asr r0
    2834:	00000000 	andeq	r0, r0, r0
    2838:	00021c00 	andeq	r1, r2, r0, lsl #24
    283c:	00022000 	andeq	r2, r2, r0
    2840:	53000100 	movwpl	r0, #256	; 0x100
	...
    284c:	0000023c 	andeq	r0, r0, ip, lsr r2
    2850:	000002d0 	ldrdeq	r0, [r0], -r0	; <UNPREDICTABLE>
    2854:	00540001 	subseq	r0, r4, r1
    2858:	00000000 	andeq	r0, r0, r0
    285c:	3c000000 	stccc	0, cr0, [r0], {-0}
    2860:	50000002 	andpl	r0, r0, r2
    2864:	01000002 	tsteq	r0, r2
    2868:	00005800 	andeq	r5, r0, r0, lsl #16
    286c:	00000000 	andeq	r0, r0, r0
    2870:	02400000 	subeq	r0, r0, #0
    2874:	02440000 	subeq	r0, r4, #0
    2878:	00010000 	andeq	r0, r1, r0
    287c:	00000053 	andeq	r0, r0, r3, asr r0
    2880:	00000000 	andeq	r0, r0, r0
    2884:	00026000 	andeq	r6, r2, r0
    2888:	0002d000 	andeq	sp, r2, r0
    288c:	54000100 	strpl	r0, [r0], #-256	; 0x100
	...
    2898:	00000260 	andeq	r0, r0, r0, ror #4
    289c:	00000274 	andeq	r0, r0, r4, ror r2
    28a0:	00580001 	subseq	r0, r8, r1
    28a4:	00000000 	andeq	r0, r0, r0
    28a8:	64000000 	strvs	r0, [r0], #-0
    28ac:	68000002 	stmdavs	r0, {r1}
    28b0:	01000002 	tsteq	r0, r2
    28b4:	00005300 	andeq	r5, r0, r0, lsl #6
    28b8:	00000000 	andeq	r0, r0, r0
    28bc:	02840000 	addeq	r0, r4, #0
    28c0:	02d00000 	sbcseq	r0, r0, #0
    28c4:	00010000 	andeq	r0, r1, r0
    28c8:	00000054 	andeq	r0, r0, r4, asr r0
    28cc:	00000000 	andeq	r0, r0, r0
    28d0:	00028400 	andeq	r8, r2, r0, lsl #8
    28d4:	00029800 	andeq	r9, r2, r0, lsl #16
    28d8:	58000100 	stmdapl	r0, {r8}
	...
    28e4:	00000288 	andeq	r0, r0, r8, lsl #5
    28e8:	0000028c 	andeq	r0, r0, ip, lsl #5
    28ec:	00530001 	subseq	r0, r3, r1
    28f0:	00000000 	andeq	r0, r0, r0
    28f4:	a8000000 	stmdage	r0, {}	; <UNPREDICTABLE>
    28f8:	d0000002 	andle	r0, r0, r2
    28fc:	01000002 	tsteq	r0, r2
    2900:	00005400 	andeq	r5, r0, r0, lsl #8
    2904:	00000000 	andeq	r0, r0, r0
    2908:	02ac0000 	adceq	r0, ip, #0
    290c:	02b00000 	adcseq	r0, r0, #0
    2910:	00010000 	andeq	r0, r1, r0
    2914:	00000053 	andeq	r0, r0, r3, asr r0
    2918:	00000000 	andeq	r0, r0, r0
    291c:	0002c800 	andeq	ip, r2, r0, lsl #16
    2920:	00030c00 	andeq	r0, r3, r0, lsl #24
    2924:	30000200 	andcc	r0, r0, r0, lsl #4
    2928:	0003149f 	muleq	r3, pc, r4	; <UNPREDICTABLE>
    292c:	00031c00 	andeq	r1, r3, r0, lsl #24
    2930:	30000200 	andcc	r0, r0, r0, lsl #4
    2934:	0000009f 	muleq	r0, pc, r0	; <UNPREDICTABLE>
    2938:	00000000 	andeq	r0, r0, r0
    293c:	0002c800 	andeq	ip, r2, r0, lsl #16
    2940:	00030c00 	andeq	r0, r3, r0, lsl #24
    2944:	55000100 	strpl	r0, [r0, #-256]	; 0x100
    2948:	00000314 	andeq	r0, r0, r4, lsl r3
    294c:	0000031c 	andeq	r0, r0, ip, lsl r3
    2950:	00550001 	subseq	r0, r5, r1
    2954:	00000000 	andeq	r0, r0, r0
    2958:	d0000000 	andle	r0, r0, r0
    295c:	0c000002 	stceq	0, cr0, [r0], {2}
    2960:	01000003 	tsteq	r0, r3
    2964:	03145400 	tsteq	r4, #0, 8
    2968:	031c0000 	tsteq	ip, #0
    296c:	00010000 	andeq	r0, r1, r0
    2970:	00000054 	andeq	r0, r0, r4, asr r0
    2974:	00000000 	andeq	r0, r0, r0
    2978:	00031c00 	andeq	r1, r3, r0, lsl #24
    297c:	00033f00 	andeq	r3, r3, r0, lsl #30
    2980:	50000100 	andpl	r0, r0, r0, lsl #2
    2984:	0000033f 	andeq	r0, r0, pc, lsr r3
    2988:	00000360 	andeq	r0, r0, r0, ror #6
    298c:	60580001 	subsvs	r0, r8, r1
    2990:	70000003 	andvc	r0, r0, r3
    2994:	01000003 	tsteq	r0, r3
    2998:	03705000 	cmneq	r0, #0
    299c:	03b00000 	movseq	r0, #0
    29a0:	00010000 	andeq	r0, r1, r0
    29a4:	0003b058 	andeq	fp, r3, r8, asr r0
    29a8:	0003c000 	andeq	ip, r3, r0
    29ac:	f3000400 	vshl.u8	d0, d0, d0
    29b0:	009f5001 	addseq	r5, pc, r1
    29b4:	00000000 	andeq	r0, r0, r0
    29b8:	1c000000 	stcne	0, cr0, [r0], {-0}
    29bc:	3f000003 	svccc	0x00000003
    29c0:	01000003 	tsteq	r0, r3
    29c4:	033f5100 	teqeq	pc, #0, 2
    29c8:	03600000 	cmneq	r0, #0
    29cc:	00010000 	andeq	r0, r1, r0
    29d0:	00036056 	andeq	r6, r3, r6, asr r0
    29d4:	00037000 	andeq	r7, r3, r0
    29d8:	51000100 	mrspl	r0, (UNDEF: 16)
    29dc:	00000370 	andeq	r0, r0, r0, ror r3
    29e0:	000003b0 			; <UNDEFINED> instruction: 0x000003b0
    29e4:	b0560001 	subslt	r0, r6, r1
    29e8:	c0000003 	andgt	r0, r0, r3
    29ec:	04000003 	streq	r0, [r0], #-3
    29f0:	5101f300 	mrspl	pc, SP_irq	; <UNPREDICTABLE>
    29f4:	0000009f 	muleq	r0, pc, r0	; <UNPREDICTABLE>
    29f8:	00000000 	andeq	r0, r0, r0
    29fc:	00031c00 	andeq	r1, r3, r0, lsl #24
    2a00:	00033f00 	andeq	r3, r3, r0, lsl #30
    2a04:	52000100 	andpl	r0, r0, #0, 2
    2a08:	0000033f 	andeq	r0, r0, pc, lsr r3
    2a0c:	00000360 	andeq	r0, r0, r0, ror #6
    2a10:	01f30004 	mvnseq	r0, r4
    2a14:	03609f52 	cmneq	r0, #328	; 0x148
    2a18:	03700000 	cmneq	r0, #0
    2a1c:	00010000 	andeq	r0, r1, r0
    2a20:	00037052 	andeq	r7, r3, r2, asr r0
    2a24:	0003b000 	andeq	fp, r3, r0
    2a28:	77000300 	strvc	r0, [r0, -r0, lsl #6]
    2a2c:	03b09f01 	movseq	r9, #1, 30
    2a30:	03c00000 	biceq	r0, r0, #0
    2a34:	00040000 	andeq	r0, r4, r0
    2a38:	9f5201f3 	svcls	0x005201f3
	...
    2a44:	0000031c 	andeq	r0, r0, ip, lsl r3
    2a48:	0000033f 	andeq	r0, r0, pc, lsr r3
    2a4c:	3f530001 	svccc	0x00530001
    2a50:	60000003 	andvs	r0, r0, r3
    2a54:	04000003 	streq	r0, [r0], #-3
    2a58:	5301f300 	movwpl	pc, #4864	; 0x1300	; <UNPREDICTABLE>
    2a5c:	0003609f 	muleq	r3, pc, r0	; <UNPREDICTABLE>
    2a60:	00037000 	andeq	r7, r3, r0
    2a64:	53000100 	movwpl	r0, #256	; 0x100
    2a68:	00000370 	andeq	r0, r0, r0, ror r3
    2a6c:	000003c0 	andeq	r0, r0, r0, asr #7
    2a70:	01f30004 	mvnseq	r0, r4
    2a74:	00009f53 	andeq	r9, r0, r3, asr pc
    2a78:	00000000 	andeq	r0, r0, r0
    2a7c:	03680000 	cmneq	r8, #0
    2a80:	03700000 	cmneq	r0, #0
    2a84:	00020000 	andeq	r0, r2, r0
    2a88:	03709f30 	cmneq	r0, #48, 30	; 0xc0
    2a8c:	03b00000 	movseq	r0, #0
    2a90:	00010000 	andeq	r0, r1, r0
    2a94:	0003b054 	andeq	fp, r3, r4, asr r0
    2a98:	0003c000 	andeq	ip, r3, r0
    2a9c:	50000100 	andpl	r0, r0, r0, lsl #2
	...
    2aa8:	00000380 	andeq	r0, r0, r0, lsl #7
    2aac:	00000390 	muleq	r0, r0, r3
    2ab0:	00500001 	subseq	r0, r0, r1
    2ab4:	00000000 	andeq	r0, r0, r0
    2ab8:	c0000000 	andgt	r0, r0, r0
    2abc:	df000003 	svcle	0x00000003
    2ac0:	01000003 	tsteq	r0, r3
    2ac4:	03df5000 	bicseq	r5, pc, #0
    2ac8:	04000000 	streq	r0, [r0], #-0
    2acc:	00010000 	andeq	r0, r1, r0
    2ad0:	00040057 	andeq	r0, r4, r7, asr r0
    2ad4:	00041000 	andeq	r1, r4, r0
    2ad8:	50000100 	andpl	r0, r0, r0, lsl #2
    2adc:	00000410 	andeq	r0, r0, r0, lsl r4
    2ae0:	00000440 	andeq	r0, r0, r0, asr #8
    2ae4:	40570001 	subsmi	r0, r7, r1
    2ae8:	50000004 	andpl	r0, r0, r4
    2aec:	04000004 	streq	r0, [r0], #-4
    2af0:	5001f300 	andpl	pc, r1, r0, lsl #6
    2af4:	0000009f 	muleq	r0, pc, r0	; <UNPREDICTABLE>
    2af8:	00000000 	andeq	r0, r0, r0
    2afc:	0003c000 	andeq	ip, r3, r0
    2b00:	0003df00 	andeq	sp, r3, r0, lsl #30
    2b04:	51000100 	mrspl	r0, (UNDEF: 16)
    2b08:	000003df 	ldrdeq	r0, [r0], -pc	; <UNPREDICTABLE>
    2b0c:	00000400 	andeq	r0, r0, r0, lsl #8
    2b10:	00550001 	subseq	r0, r5, r1
    2b14:	10000004 	andne	r0, r0, r4
    2b18:	01000004 	tsteq	r0, r4
    2b1c:	04105100 	ldreq	r5, [r0], #-256	; 0x100
    2b20:	04400000 	strbeq	r0, [r0], #-0
    2b24:	00010000 	andeq	r0, r1, r0
    2b28:	00044055 	andeq	r4, r4, r5, asr r0
    2b2c:	00045000 	andeq	r5, r4, r0
    2b30:	f3000400 	vshl.u8	d0, d0, d0
    2b34:	009f5101 	addseq	r5, pc, r1, lsl #2
    2b38:	00000000 	andeq	r0, r0, r0
    2b3c:	c0000000 	andgt	r0, r0, r0
    2b40:	df000003 	svcle	0x00000003
    2b44:	01000003 	tsteq	r0, r3
    2b48:	03df5200 	bicseq	r5, pc, #0, 4
    2b4c:	04000000 	streq	r0, [r0], #-0
    2b50:	00040000 	andeq	r0, r4, r0
    2b54:	9f5201f3 	svcls	0x005201f3
    2b58:	00000400 	andeq	r0, r0, r0, lsl #8
    2b5c:	00000410 	andeq	r0, r0, r0, lsl r4
    2b60:	10520001 	subsne	r0, r2, r1
    2b64:	40000004 	andmi	r0, r0, r4
    2b68:	03000004 	movweq	r0, #4
    2b6c:	9f017600 	svcls	0x00017600
    2b70:	00000440 	andeq	r0, r0, r0, asr #8
    2b74:	00000450 	andeq	r0, r0, r0, asr r4
    2b78:	01f30004 	mvnseq	r0, r4
    2b7c:	00009f52 	andeq	r9, r0, r2, asr pc
    2b80:	00000000 	andeq	r0, r0, r0
    2b84:	03c00000 	biceq	r0, r0, #0
    2b88:	03df0000 	bicseq	r0, pc, #0
    2b8c:	00010000 	andeq	r0, r1, r0
    2b90:	0003df53 	andeq	sp, r3, r3, asr pc
    2b94:	00040000 	andeq	r0, r4, r0
    2b98:	58000100 	stmdapl	r0, {r8}
    2b9c:	00000400 	andeq	r0, r0, r0, lsl #8
    2ba0:	00000410 	andeq	r0, r0, r0, lsl r4
    2ba4:	10530001 	subsne	r0, r3, r1
    2ba8:	40000004 	andmi	r0, r0, r4
    2bac:	01000004 	tsteq	r0, r4
    2bb0:	04405800 	strbeq	r5, [r0], #-2048	; 0x800
    2bb4:	04500000 	ldrbeq	r0, [r0], #-0
    2bb8:	00040000 	andeq	r0, r4, r0
    2bbc:	9f5301f3 	svcls	0x005301f3
	...
    2bc8:	00000408 	andeq	r0, r0, r8, lsl #8
    2bcc:	00000410 	andeq	r0, r0, r0, lsl r4
    2bd0:	9f300002 	svcls	0x00300002
    2bd4:	00000410 	andeq	r0, r0, r0, lsl r4
    2bd8:	00000440 	andeq	r0, r0, r0, asr #8
    2bdc:	40540001 	subsmi	r0, r4, r1
    2be0:	50000004 	andpl	r0, r0, r4
    2be4:	01000004 	tsteq	r0, r4
    2be8:	00005000 	andeq	r5, r0, r0
    2bec:	00000000 	andeq	r0, r0, r0
    2bf0:	04500000 	ldrbeq	r0, [r0], #-0
    2bf4:	04730000 	ldrbteq	r0, [r3], #-0
    2bf8:	00010000 	andeq	r0, r1, r0
    2bfc:	00047351 	andeq	r7, r4, r1, asr r3
    2c00:	00052400 	andeq	r2, r5, r0, lsl #8
    2c04:	f3000400 	vshl.u8	d0, d0, d0
    2c08:	009f5101 	addseq	r5, pc, r1, lsl #2
    2c0c:	00000000 	andeq	r0, r0, r0
    2c10:	50000000 	andpl	r0, r0, r0
    2c14:	73000004 	movwvc	r0, #4
    2c18:	01000004 	tsteq	r0, r4
    2c1c:	04735200 	ldrbteq	r5, [r3], #-512	; 0x200
    2c20:	05240000 	streq	r0, [r4, #-0]!
    2c24:	00040000 	andeq	r0, r4, r0
    2c28:	9f5201f3 	svcls	0x005201f3
	...
    2c34:	00000450 	andeq	r0, r0, r0, asr r4
    2c38:	00000473 	andeq	r0, r0, r3, ror r4
    2c3c:	73530001 	cmpvc	r3, #1
    2c40:	10000004 	andne	r0, r0, r4
    2c44:	01000005 	tsteq	r0, r5
    2c48:	05105500 	ldreq	r5, [r0, #-1280]	; 0x500
    2c4c:	05240000 	streq	r0, [r4, #-0]!
    2c50:	00020000 	andeq	r0, r2, r0
    2c54:	00000470 	andeq	r0, r0, r0, ror r4
    2c58:	00000000 	andeq	r0, r0, r0
    2c5c:	04940000 	ldreq	r0, [r4], #0
    2c60:	04d30000 	ldrbeq	r0, [r3], #0
    2c64:	00010000 	andeq	r0, r1, r0
    2c68:	0004d352 	andeq	sp, r4, r2, asr r3
    2c6c:	0004f400 	andeq	pc, r4, r0, lsl #8
    2c70:	75000600 	strvc	r0, [r0, #-1536]	; 0x600
    2c74:	1e007700 	cdpne	7, 0, cr7, cr0, cr0, {0}
    2c78:	0004f49f 	muleq	r4, pc, r4	; <UNPREDICTABLE>
    2c7c:	00052400 	andeq	r2, r5, r0, lsl #8
    2c80:	52000100 	andpl	r0, r0, #0, 2
	...
    2c8c:	00000524 	andeq	r0, r0, r4, lsr #10
    2c90:	0000052f 	andeq	r0, r0, pc, lsr #10
    2c94:	2f500001 	svccs	0x00500001
    2c98:	60000005 	andvs	r0, r0, r5
    2c9c:	04000005 	streq	r0, [r0], #-5
    2ca0:	5001f300 	andpl	pc, r1, r0, lsl #6
    2ca4:	0000009f 	muleq	r0, pc, r0	; <UNPREDICTABLE>
    2ca8:	00000000 	andeq	r0, r0, r0
    2cac:	00053000 	andeq	r3, r5, r0
    2cb0:	00053b00 	andeq	r3, r5, r0, lsl #22
    2cb4:	50000100 	andpl	r0, r0, r0, lsl #2
	...
    2cc0:	00000560 	andeq	r0, r0, r0, ror #10
    2cc4:	00000570 	andeq	r0, r0, r0, ror r5
    2cc8:	70500001 	subsvc	r0, r0, r1
    2ccc:	8c000005 	stchi	0, cr0, [r0], {5}
    2cd0:	01000005 	tsteq	r0, r5
    2cd4:	00005500 	andeq	r5, r0, r0, lsl #10
    2cd8:	00000000 	andeq	r0, r0, r0
    2cdc:	05600000 	strbeq	r0, [r0, #-0]!
    2ce0:	05700000 	ldrbeq	r0, [r0, #-0]!
    2ce4:	00010000 	andeq	r0, r1, r0
    2ce8:	00057051 	andeq	r7, r5, r1, asr r0
    2cec:	00058c00 	andeq	r8, r5, r0, lsl #24
    2cf0:	54000100 	strpl	r0, [r0], #-256	; 0x100
	...
    2cfc:	0000058c 	andeq	r0, r0, ip, lsl #11
    2d00:	000005a8 	andeq	r0, r0, r8, lsr #11
    2d04:	a8500001 	ldmdage	r0, {r0}^
    2d08:	00000005 	andeq	r0, r0, r5
    2d0c:	01000006 	tsteq	r0, r6
    2d10:	06005500 	streq	r5, [r0], -r0, lsl #10
    2d14:	061c0000 	ldreq	r0, [ip], -r0
    2d18:	00040000 	andeq	r0, r4, r0
    2d1c:	9f5001f3 	svcls	0x005001f3
	...
    2d28:	000005b8 			; <UNDEFINED> instruction: 0x000005b8
    2d2c:	000005c7 	andeq	r0, r0, r7, asr #11
    2d30:	c7500001 	ldrbgt	r0, [r0, -r1]
    2d34:	e8000005 	stmda	r0, {r0, r2}
    2d38:	01000005 	tsteq	r0, r5
    2d3c:	05e85400 	strbeq	r5, [r8, #1024]!	; 0x400
    2d40:	05ec0000 	strbeq	r0, [ip, #0]!
    2d44:	00010000 	andeq	r0, r1, r0
    2d48:	0005ec50 	andeq	lr, r5, r0, asr ip
    2d4c:	00060000 	andeq	r0, r6, r0
    2d50:	54000100 	strpl	r0, [r0], #-256	; 0x100
    2d54:	00000600 	andeq	r0, r0, r0, lsl #12
    2d58:	0000061c 	andeq	r0, r0, ip, lsl r6
    2d5c:	00500001 	subseq	r0, r0, r1
    2d60:	00000000 	andeq	r0, r0, r0
    2d64:	1c000000 	stcne	0, cr0, [r0], {-0}
    2d68:	2f000006 	svccs	0x00000006
    2d6c:	01000006 	tsteq	r0, r6
    2d70:	062f5000 	strteq	r5, [pc], -r0
    2d74:	06680000 	strbteq	r0, [r8], -r0
    2d78:	00040000 	andeq	r0, r4, r0
    2d7c:	9f5001f3 	svcls	0x005001f3
	...
    2d88:	0000061c 	andeq	r0, r0, ip, lsl r6
    2d8c:	0000062f 	andeq	r0, r0, pc, lsr #12
    2d90:	2f510001 	svccs	0x00510001
    2d94:	68000006 	stmdavs	r0, {r1, r2}
    2d98:	04000006 	streq	r0, [r0], #-6
    2d9c:	5101f300 	mrspl	pc, SP_irq	; <UNPREDICTABLE>
    2da0:	0000009f 	muleq	r0, pc, r0	; <UNPREDICTABLE>
    2da4:	00000000 	andeq	r0, r0, r0
    2da8:	00061c00 	andeq	r1, r6, r0, lsl #24
    2dac:	00062f00 	andeq	r2, r6, r0, lsl #30
    2db0:	52000100 	andpl	r0, r0, #0, 2
    2db4:	0000062f 	andeq	r0, r0, pc, lsr #12
    2db8:	00000668 	andeq	r0, r0, r8, ror #12
    2dbc:	01f30004 	mvnseq	r0, r4
    2dc0:	00009f52 	andeq	r9, r0, r2, asr pc
    2dc4:	00000000 	andeq	r0, r0, r0
    2dc8:	061c0000 	ldreq	r0, [ip], -r0
    2dcc:	062f0000 	strteq	r0, [pc], -r0
    2dd0:	00010000 	andeq	r0, r1, r0
    2dd4:	00062f53 	andeq	r2, r6, r3, asr pc
    2dd8:	00066800 	andeq	r6, r6, r0, lsl #16
    2ddc:	f3000400 	vshl.u8	d0, d0, d0
    2de0:	009f5301 	addseq	r5, pc, r1, lsl #6
    2de4:	00000000 	andeq	r0, r0, r0
    2de8:	30000000 	andcc	r0, r0, r0
    2dec:	3b000006 	blcc	2e0c <_start-0x51f4>
    2df0:	01000006 	tsteq	r0, r6
    2df4:	06545000 	ldrbeq	r5, [r4], -r0
    2df8:	06680000 	strbteq	r0, [r8], -r0
    2dfc:	00010000 	andeq	r0, r1, r0
    2e00:	00000050 	andeq	r0, r0, r0, asr r0
    2e04:	00000000 	andeq	r0, r0, r0
    2e08:	0000fc00 	andeq	pc, r0, r0, lsl #24
    2e0c:	00010400 	andeq	r0, r1, r0, lsl #8
    2e10:	50000100 	andpl	r0, r0, r0, lsl #2
    2e14:	00000104 	andeq	r0, r0, r4, lsl #2
    2e18:	00000128 	andeq	r0, r0, r8, lsr #2
    2e1c:	00540001 	subseq	r0, r4, r1
	...
    2e28:	04000000 	streq	r0, [r0], #-0
    2e2c:	01000000 	mrseq	r0, (UNDEF: 0)
    2e30:	00045200 	andeq	r5, r4, r0, lsl #4
    2e34:	00200000 	eoreq	r0, r0, r0
    2e38:	00040000 	andeq	r0, r4, r0
    2e3c:	9f5201f3 	svcls	0x005201f3
	...
    2e4c:	0000000c 	andeq	r0, r0, ip
    2e50:	0c500001 	mrrceq	0, 0, r0, r0, cr1	; <UNPREDICTABLE>
    2e54:	14000000 	strne	r0, [r0], #-0
    2e58:	03000000 	movweq	r0, #0
    2e5c:	9f017300 	svcls	0x00017300
    2e60:	00000014 	andeq	r0, r0, r4, lsl r0
    2e64:	00000020 	andeq	r0, r0, r0, lsr #32
    2e68:	00530001 	subseq	r0, r3, r1
    2e6c:	00000000 	andeq	r0, r0, r0
    2e70:	Address 0x0000000000002e70 is out of bounds.


Disassembly of section .debug_aranges:

00000000 <.debug_aranges>:
   0:	0000001c 	andeq	r0, r0, ip, lsl r0
   4:	00000002 	andeq	r0, r0, r2
   8:	00040000 	andeq	r0, r4, r0
   c:	00000000 	andeq	r0, r0, r0
  10:	00008010 	andeq	r8, r0, r0, lsl r0
  14:	00000938 	andeq	r0, r0, r8, lsr r9
	...
  20:	0000001c 	andeq	r0, r0, ip, lsl r0
  24:	13290002 	teqne	r9, #2
  28:	00040000 	andeq	r0, r4, r0
  2c:	00000000 	andeq	r0, r0, r0
  30:	00008948 	andeq	r8, r0, r8, asr #18
  34:	00000058 	andeq	r0, r0, r8, asr r0
	...
  40:	0000001c 	andeq	r0, r0, ip, lsl r0
  44:	14be0002 	ldrtne	r0, [lr], #2
  48:	00040000 	andeq	r0, r4, r0
  4c:	00000000 	andeq	r0, r0, r0
  50:	000089a0 	andeq	r8, r0, r0, lsr #19
  54:	0000003c 	andeq	r0, r0, ip, lsr r0
	...
  60:	0000001c 	andeq	r0, r0, ip, lsl r0
  64:	15d50002 	ldrbne	r0, [r5, #2]
  68:	00040000 	andeq	r0, r4, r0
  6c:	00000000 	andeq	r0, r0, r0
  70:	000089dc 	ldrdeq	r8, [r0], -ip
  74:	00000034 	andeq	r0, r0, r4, lsr r0
	...
  80:	0000001c 	andeq	r0, r0, ip, lsl r0
  84:	16c70002 	strbne	r0, [r7], r2
  88:	00040000 	andeq	r0, r4, r0
  8c:	00000000 	andeq	r0, r0, r0
  90:	00008a10 	andeq	r8, r0, r0, lsl sl
  94:	00000524 	andeq	r0, r0, r4, lsr #10
	...
  a0:	0000001c 	andeq	r0, r0, ip, lsl r0
  a4:	1d6c0002 	stclne	0, cr0, [ip, #-8]!
  a8:	00040000 	andeq	r0, r4, r0
  ac:	00000000 	andeq	r0, r0, r0
  b0:	00008f34 	andeq	r8, r0, r4, lsr pc
  b4:	00000020 	andeq	r0, r0, r0, lsr #32
	...
  c0:	0000001c 	andeq	r0, r0, ip, lsl r0
  c4:	1e280002 	cdpne	0, 2, cr0, cr8, cr2, {0}
  c8:	00040000 	andeq	r0, r4, r0
  cc:	00000000 	andeq	r0, r0, r0
  d0:	00008f54 	andeq	r8, r0, r4, asr pc
  d4:	00000028 	andeq	r0, r0, r8, lsr #32
	...
  e0:	0000001c 	andeq	r0, r0, ip, lsl r0
  e4:	1f2b0002 	svcne	0x002b0002
  e8:	00040000 	andeq	r0, r4, r0
  ec:	00000000 	andeq	r0, r0, r0
  f0:	00008f7c 	andeq	r8, r0, ip, ror pc
  f4:	000000b0 	strheq	r0, [r0], -r0	; <UNPREDICTABLE>
	...
 100:	0000001c 	andeq	r0, r0, ip, lsl r0
 104:	220c0002 	andcs	r0, ip, #2
 108:	00040000 	andeq	r0, r4, r0
 10c:	00000000 	andeq	r0, r0, r0
 110:	0000902c 	andeq	r9, r0, ip, lsr #32
 114:	00000074 	andeq	r0, r0, r4, ror r0
	...
 120:	0000001c 	andeq	r0, r0, ip, lsl r0
 124:	23bd0002 			; <UNDEFINED> instruction: 0x23bd0002
 128:	00040000 	andeq	r0, r4, r0
 12c:	00000000 	andeq	r0, r0, r0
 130:	000090a0 	andeq	r9, r0, r0, lsr #1
 134:	00000088 	andeq	r0, r0, r8, lsl #1
	...
 140:	0000001c 	andeq	r0, r0, ip, lsl r0
 144:	25990002 	ldrcs	r0, [r9, #2]
 148:	00040000 	andeq	r0, r4, r0
 14c:	00000000 	andeq	r0, r0, r0
 150:	00009128 	andeq	r9, r0, r8, lsr #2
 154:	000005a0 	andeq	r0, r0, r0, lsr #11
	...
 160:	0000001c 	andeq	r0, r0, ip, lsl r0
 164:	2e1f0002 	cdpcs	0, 1, cr0, cr15, cr2, {0}
 168:	00040000 	andeq	r0, r4, r0
 16c:	00000000 	andeq	r0, r0, r0
 170:	000096c8 	andeq	r9, r0, r8, asr #13
 174:	00000668 	andeq	r0, r0, r8, ror #12
	...
 180:	0000001c 	andeq	r0, r0, ip, lsl r0
 184:	40150002 	andsmi	r0, r5, r2
 188:	00040000 	andeq	r0, r4, r0
 18c:	00000000 	andeq	r0, r0, r0
 190:	00009d30 	andeq	r9, r0, r0, lsr sp
 194:	00000154 	andeq	r0, r0, r4, asr r1
	...
 1a0:	0000001c 	andeq	r0, r0, ip, lsl r0
 1a4:	44180002 	ldrmi	r0, [r8], #-2
 1a8:	00040000 	andeq	r0, r4, r0
 1ac:	00000000 	andeq	r0, r0, r0
 1b0:	00009ee8 	andeq	r9, r0, r8, ror #29
 1b4:	00000050 	andeq	r0, r0, r0, asr r0
	...
 1c0:	0000001c 	andeq	r0, r0, ip, lsl r0
 1c4:	45df0002 	ldrbmi	r0, [pc, #2]	; 1ce <_start-0x7e32>
 1c8:	00040000 	andeq	r0, r4, r0
 1cc:	00000000 	andeq	r0, r0, r0
 1d0:	00009f38 	andeq	r9, r0, r8, lsr pc
 1d4:	00000020 	andeq	r0, r0, r0, lsr #32
	...

Disassembly of section .debug_ranges:

00000000 <.debug_ranges>:
   0:	000001e0 	andeq	r0, r0, r0, ror #3
   4:	000001e4 	andeq	r0, r0, r4, ror #3
   8:	000001e8 	andeq	r0, r0, r8, ror #3
   c:	000001f0 	strdeq	r0, [r0], -r0	; <UNPREDICTABLE>
	...
  18:	00000200 	andeq	r0, r0, r0, lsl #4
  1c:	00000204 	andeq	r0, r0, r4, lsl #4
  20:	00000208 	andeq	r0, r0, r8, lsl #4
  24:	0000020c 	andeq	r0, r0, ip, lsl #4
  28:	00000210 	andeq	r0, r0, r0, lsl r2
  2c:	00000214 	andeq	r0, r0, r4, lsl r2
  30:	00000218 	andeq	r0, r0, r8, lsl r2
  34:	0000021c 	andeq	r0, r0, ip, lsl r2
	...
  40:	0000020c 	andeq	r0, r0, ip, lsl #4
  44:	00000210 	andeq	r0, r0, r0, lsl r2
  48:	00000214 	andeq	r0, r0, r4, lsl r2
  4c:	00000218 	andeq	r0, r0, r8, lsl r2
  50:	0000021c 	andeq	r0, r0, ip, lsl r2
  54:	00000220 	andeq	r0, r0, r0, lsr #4
	...
  60:	00000234 	andeq	r0, r0, r4, lsr r2
  64:	00000238 	andeq	r0, r0, r8, lsr r2
  68:	0000023c 	andeq	r0, r0, ip, lsr r2
  6c:	00000240 	andeq	r0, r0, r0, asr #4
  70:	00000244 	andeq	r0, r0, r4, asr #4
  74:	00000248 	andeq	r0, r0, r8, asr #4
  78:	0000024c 	andeq	r0, r0, ip, asr #4
  7c:	00000250 	andeq	r0, r0, r0, asr r2
	...
  88:	00000240 	andeq	r0, r0, r0, asr #4
  8c:	00000244 	andeq	r0, r0, r4, asr #4
  90:	00000248 	andeq	r0, r0, r8, asr #4
  94:	0000024c 	andeq	r0, r0, ip, asr #4
  98:	00000250 	andeq	r0, r0, r0, asr r2
  9c:	00000254 	andeq	r0, r0, r4, asr r2
	...
  a8:	00000268 	andeq	r0, r0, r8, ror #4
  ac:	0000026c 	andeq	r0, r0, ip, ror #4
  b0:	00000270 	andeq	r0, r0, r0, ror r2
  b4:	00000274 	andeq	r0, r0, r4, ror r2
  b8:	00000278 	andeq	r0, r0, r8, ror r2
  bc:	0000027c 	andeq	r0, r0, ip, ror r2
  c0:	00000280 	andeq	r0, r0, r0, lsl #5
  c4:	00000284 	andeq	r0, r0, r4, lsl #5
	...
  d0:	00000274 	andeq	r0, r0, r4, ror r2
  d4:	00000278 	andeq	r0, r0, r8, ror r2
  d8:	0000027c 	andeq	r0, r0, ip, ror r2
  dc:	00000280 	andeq	r0, r0, r0, lsl #5
  e0:	00000284 	andeq	r0, r0, r4, lsl #5
  e4:	00000288 	andeq	r0, r0, r8, lsl #5
	...
  f0:	0000029c 	muleq	r0, ip, r2
  f4:	000002a0 	andeq	r0, r0, r0, lsr #5
  f8:	000002a4 	andeq	r0, r0, r4, lsr #5
  fc:	000002a8 	andeq	r0, r0, r8, lsr #5
 100:	000002ac 	andeq	r0, r0, ip, lsr #5
 104:	000002b0 			; <UNDEFINED> instruction: 0x000002b0
 108:	000002b4 			; <UNDEFINED> instruction: 0x000002b4
 10c:	000002b8 			; <UNDEFINED> instruction: 0x000002b8
	...
 118:	000002a8 	andeq	r0, r0, r8, lsr #5
 11c:	000002ac 	andeq	r0, r0, ip, lsr #5
 120:	000002b0 			; <UNDEFINED> instruction: 0x000002b0
 124:	000002b4 			; <UNDEFINED> instruction: 0x000002b4
 128:	000002b8 			; <UNDEFINED> instruction: 0x000002b8
 12c:	000002bc 			; <UNDEFINED> instruction: 0x000002bc
	...
 138:	000002d0 	ldrdeq	r0, [r0], -r0	; <UNPREDICTABLE>
 13c:	000002d4 	ldrdeq	r0, [r0], -r4
 140:	000002d8 	ldrdeq	r0, [r0], -r8
 144:	000002dc 	ldrdeq	r0, [r0], -ip
 148:	000002e0 	andeq	r0, r0, r0, ror #5
 14c:	000002e4 	andeq	r0, r0, r4, ror #5
 150:	000002e8 	andeq	r0, r0, r8, ror #5
 154:	000002ec 	andeq	r0, r0, ip, ror #5
	...
 160:	000002dc 	ldrdeq	r0, [r0], -ip
 164:	000002e0 	andeq	r0, r0, r0, ror #5
 168:	000002e4 	andeq	r0, r0, r4, ror #5
 16c:	000002e8 	andeq	r0, r0, r8, ror #5
 170:	000002ec 	andeq	r0, r0, ip, ror #5
 174:	000002f0 	strdeq	r0, [r0], -r0	; <UNPREDICTABLE>
	...
 180:	00000304 	andeq	r0, r0, r4, lsl #6
 184:	00000308 	andeq	r0, r0, r8, lsl #6
 188:	0000030c 	andeq	r0, r0, ip, lsl #6
 18c:	00000310 	andeq	r0, r0, r0, lsl r3
 190:	00000314 	andeq	r0, r0, r4, lsl r3
 194:	00000318 	andeq	r0, r0, r8, lsl r3
 198:	0000031c 	andeq	r0, r0, ip, lsl r3
 19c:	00000320 	andeq	r0, r0, r0, lsr #6
	...
 1a8:	00000310 	andeq	r0, r0, r0, lsl r3
 1ac:	00000314 	andeq	r0, r0, r4, lsl r3
 1b0:	00000318 	andeq	r0, r0, r8, lsl r3
 1b4:	0000031c 	andeq	r0, r0, ip, lsl r3
 1b8:	00000320 	andeq	r0, r0, r0, lsr #6
 1bc:	00000324 	andeq	r0, r0, r4, lsr #6
	...
 1c8:	00000338 	andeq	r0, r0, r8, lsr r3
 1cc:	0000033c 	andeq	r0, r0, ip, lsr r3
 1d0:	00000340 	andeq	r0, r0, r0, asr #6
 1d4:	00000344 	andeq	r0, r0, r4, asr #6
 1d8:	00000348 	andeq	r0, r0, r8, asr #6
 1dc:	0000034c 	andeq	r0, r0, ip, asr #6
 1e0:	00000350 	andeq	r0, r0, r0, asr r3
 1e4:	00000354 	andeq	r0, r0, r4, asr r3
	...
 1f0:	00000344 	andeq	r0, r0, r4, asr #6
 1f4:	00000348 	andeq	r0, r0, r8, asr #6
 1f8:	0000034c 	andeq	r0, r0, ip, asr #6
 1fc:	00000350 	andeq	r0, r0, r0, asr r3
 200:	00000354 	andeq	r0, r0, r4, asr r3
 204:	00000358 	andeq	r0, r0, r8, asr r3
	...
 210:	0000036c 	andeq	r0, r0, ip, ror #6
 214:	00000370 	andeq	r0, r0, r0, ror r3
 218:	00000374 	andeq	r0, r0, r4, ror r3
 21c:	00000378 	andeq	r0, r0, r8, ror r3
 220:	0000037c 	andeq	r0, r0, ip, ror r3
 224:	00000380 	andeq	r0, r0, r0, lsl #7
 228:	00000384 	andeq	r0, r0, r4, lsl #7
 22c:	00000388 	andeq	r0, r0, r8, lsl #7
	...
 238:	00000378 	andeq	r0, r0, r8, ror r3
 23c:	0000037c 	andeq	r0, r0, ip, ror r3
 240:	00000380 	andeq	r0, r0, r0, lsl #7
 244:	00000384 	andeq	r0, r0, r4, lsl #7
 248:	00000388 	andeq	r0, r0, r8, lsl #7
 24c:	0000038c 	andeq	r0, r0, ip, lsl #7
	...
 258:	000003a0 	andeq	r0, r0, r0, lsr #7
 25c:	000003a4 	andeq	r0, r0, r4, lsr #7
 260:	000003a8 	andeq	r0, r0, r8, lsr #7
 264:	000003b4 			; <UNDEFINED> instruction: 0x000003b4
	...
 270:	00000628 	andeq	r0, r0, r8, lsr #12
 274:	00000634 	andeq	r0, r0, r4, lsr r6
 278:	00000638 	andeq	r0, r0, r8, lsr r6
 27c:	00000640 	andeq	r0, r0, r0, asr #12
	...
 288:	00000650 	andeq	r0, r0, r0, asr r6
 28c:	00000654 	andeq	r0, r0, r4, asr r6
 290:	00000658 	andeq	r0, r0, r8, asr r6
 294:	0000065c 	andeq	r0, r0, ip, asr r6
 298:	00000660 	andeq	r0, r0, r0, ror #12
 29c:	00000664 	andeq	r0, r0, r4, ror #12
 2a0:	00000668 	andeq	r0, r0, r8, ror #12
 2a4:	0000066c 	andeq	r0, r0, ip, ror #12
	...
 2b0:	0000065c 	andeq	r0, r0, ip, asr r6
 2b4:	00000660 	andeq	r0, r0, r0, ror #12
 2b8:	00000664 	andeq	r0, r0, r4, ror #12
 2bc:	00000668 	andeq	r0, r0, r8, ror #12
 2c0:	0000066c 	andeq	r0, r0, ip, ror #12
 2c4:	00000670 	andeq	r0, r0, r0, ror r6
	...
 2d0:	00000684 	andeq	r0, r0, r4, lsl #13
 2d4:	00000688 	andeq	r0, r0, r8, lsl #13
 2d8:	0000068c 	andeq	r0, r0, ip, lsl #13
 2dc:	00000690 	muleq	r0, r0, r6
 2e0:	00000694 	muleq	r0, r4, r6
 2e4:	00000698 	muleq	r0, r8, r6
 2e8:	0000069c 	muleq	r0, ip, r6
 2ec:	000006a0 	andeq	r0, r0, r0, lsr #13
	...
 2f8:	00000690 	muleq	r0, r0, r6
 2fc:	00000694 	muleq	r0, r4, r6
 300:	00000698 	muleq	r0, r8, r6
 304:	0000069c 	muleq	r0, ip, r6
 308:	000006a0 	andeq	r0, r0, r0, lsr #13
 30c:	000006a4 	andeq	r0, r0, r4, lsr #13
	...
 318:	000006b8 			; <UNDEFINED> instruction: 0x000006b8
 31c:	000006bc 			; <UNDEFINED> instruction: 0x000006bc
 320:	000006c0 	andeq	r0, r0, r0, asr #13
 324:	000006c4 	andeq	r0, r0, r4, asr #13
 328:	000006c8 	andeq	r0, r0, r8, asr #13
 32c:	000006cc 	andeq	r0, r0, ip, asr #13
 330:	000006d0 	ldrdeq	r0, [r0], -r0	; <UNPREDICTABLE>
 334:	000006d4 	ldrdeq	r0, [r0], -r4
	...
 340:	000006c4 	andeq	r0, r0, r4, asr #13
 344:	000006c8 	andeq	r0, r0, r8, asr #13
 348:	000006cc 	andeq	r0, r0, ip, asr #13
 34c:	000006d0 	ldrdeq	r0, [r0], -r0	; <UNPREDICTABLE>
 350:	000006d4 	ldrdeq	r0, [r0], -r4
 354:	000006d8 	ldrdeq	r0, [r0], -r8
	...
 360:	000006ec 	andeq	r0, r0, ip, ror #13
 364:	000006f0 	strdeq	r0, [r0], -r0	; <UNPREDICTABLE>
 368:	000006f4 	strdeq	r0, [r0], -r4
 36c:	000006f8 	strdeq	r0, [r0], -r8
 370:	000006fc 	strdeq	r0, [r0], -ip
 374:	00000700 	andeq	r0, r0, r0, lsl #14
 378:	00000704 	andeq	r0, r0, r4, lsl #14
 37c:	00000708 	andeq	r0, r0, r8, lsl #14
	...
 388:	000006f8 	strdeq	r0, [r0], -r8
 38c:	000006fc 	strdeq	r0, [r0], -ip
 390:	00000700 	andeq	r0, r0, r0, lsl #14
 394:	00000704 	andeq	r0, r0, r4, lsl #14
 398:	00000708 	andeq	r0, r0, r8, lsl #14
 39c:	0000070c 	andeq	r0, r0, ip, lsl #14
	...
 3a8:	00000720 	andeq	r0, r0, r0, lsr #14
 3ac:	00000724 	andeq	r0, r0, r4, lsr #14
 3b0:	00000728 	andeq	r0, r0, r8, lsr #14
 3b4:	0000072c 	andeq	r0, r0, ip, lsr #14
 3b8:	00000730 	andeq	r0, r0, r0, lsr r7
 3bc:	00000734 	andeq	r0, r0, r4, lsr r7
 3c0:	00000738 	andeq	r0, r0, r8, lsr r7
 3c4:	0000073c 	andeq	r0, r0, ip, lsr r7
	...
 3d0:	0000072c 	andeq	r0, r0, ip, lsr #14
 3d4:	00000730 	andeq	r0, r0, r0, lsr r7
 3d8:	00000734 	andeq	r0, r0, r4, lsr r7
 3dc:	00000738 	andeq	r0, r0, r8, lsr r7
 3e0:	0000073c 	andeq	r0, r0, ip, lsr r7
 3e4:	00000740 	andeq	r0, r0, r0, asr #14
	...
 3f0:	00000754 	andeq	r0, r0, r4, asr r7
 3f4:	00000758 	andeq	r0, r0, r8, asr r7
 3f8:	0000075c 	andeq	r0, r0, ip, asr r7
 3fc:	00000760 	andeq	r0, r0, r0, ror #14
 400:	00000764 	andeq	r0, r0, r4, ror #14
 404:	00000768 	andeq	r0, r0, r8, ror #14
 408:	0000076c 	andeq	r0, r0, ip, ror #14
 40c:	00000770 	andeq	r0, r0, r0, ror r7
	...
 418:	00000760 	andeq	r0, r0, r0, ror #14
 41c:	00000764 	andeq	r0, r0, r4, ror #14
 420:	00000768 	andeq	r0, r0, r8, ror #14
 424:	0000076c 	andeq	r0, r0, ip, ror #14
 428:	00000770 	andeq	r0, r0, r0, ror r7
 42c:	00000774 	andeq	r0, r0, r4, ror r7
	...
 438:	00000788 	andeq	r0, r0, r8, lsl #15
 43c:	0000078c 	andeq	r0, r0, ip, lsl #15
 440:	00000790 	muleq	r0, r0, r7
 444:	00000794 	muleq	r0, r4, r7
 448:	00000798 	muleq	r0, r8, r7
 44c:	0000079c 	muleq	r0, ip, r7
 450:	000007a0 	andeq	r0, r0, r0, lsr #15
 454:	000007a4 	andeq	r0, r0, r4, lsr #15
	...
 460:	00000794 	muleq	r0, r4, r7
 464:	00000798 	muleq	r0, r8, r7
 468:	0000079c 	muleq	r0, ip, r7
 46c:	000007a0 	andeq	r0, r0, r0, lsr #15
 470:	000007a4 	andeq	r0, r0, r4, lsr #15
 474:	000007a8 	andeq	r0, r0, r8, lsr #15
	...
 480:	000007bc 			; <UNDEFINED> instruction: 0x000007bc
 484:	000007c0 	andeq	r0, r0, r0, asr #15
 488:	000007c4 	andeq	r0, r0, r4, asr #15
 48c:	000007c8 	andeq	r0, r0, r8, asr #15
 490:	000007cc 	andeq	r0, r0, ip, asr #15
 494:	000007d0 	ldrdeq	r0, [r0], -r0	; <UNPREDICTABLE>
 498:	000007d4 	ldrdeq	r0, [r0], -r4
 49c:	000007d8 	ldrdeq	r0, [r0], -r8
	...
 4a8:	000007c8 	andeq	r0, r0, r8, asr #15
 4ac:	000007cc 	andeq	r0, r0, ip, asr #15
 4b0:	000007d0 	ldrdeq	r0, [r0], -r0	; <UNPREDICTABLE>
 4b4:	000007d4 	ldrdeq	r0, [r0], -r4
 4b8:	000007d8 	ldrdeq	r0, [r0], -r8
 4bc:	000007dc 	ldrdeq	r0, [r0], -ip
	...
 4c8:	000007f0 	strdeq	r0, [r0], -r0	; <UNPREDICTABLE>
 4cc:	000007f4 	strdeq	r0, [r0], -r4
 4d0:	000007f8 	strdeq	r0, [r0], -r8
 4d4:	00000804 	andeq	r0, r0, r4, lsl #16
	...
 4e0:	00000868 	andeq	r0, r0, r8, ror #16
 4e4:	00000910 	andeq	r0, r0, r0, lsl r9
 4e8:	00000914 	andeq	r0, r0, r4, lsl r9
 4ec:	00000938 	andeq	r0, r0, r8, lsr r9
	...
 4f8:	00000868 	andeq	r0, r0, r8, ror #16
 4fc:	0000086c 	andeq	r0, r0, ip, ror #16
 500:	00000870 	andeq	r0, r0, r0, ror r8
 504:	0000087c 	andeq	r0, r0, ip, ror r8
	...
 510:	000002b4 			; <UNDEFINED> instruction: 0x000002b4
 514:	000002b8 			; <UNDEFINED> instruction: 0x000002b8
 518:	000002e8 	andeq	r0, r0, r8, ror #5
 51c:	000004e0 	andeq	r0, r0, r0, ror #9
	...
 528:	0000902c 	andeq	r9, r0, ip, lsr #32
 52c:	000090a0 	andeq	r9, r0, r0, lsr #1
	...

Disassembly of section .debug_line:

00000000 <.debug_line>:
       0:	000003e5 	andeq	r0, r0, r5, ror #7
       4:	01280002 	teqeq	r8, r2
       8:	01020000 	mrseq	r0, (UNDEF: 2)
       c:	000d0efb 	strdeq	r0, [sp], -fp
      10:	01010101 	tsteq	r1, r1, lsl #2
      14:	01000000 	mrseq	r0, (UNDEF: 0)
      18:	2f010000 	svccs	0x00010000
      1c:	72657355 	rsbvc	r7, r5, #1409286145	; 0x54000001
      20:	72622f73 	rsbvc	r2, r2, #460	; 0x1cc
      24:	6a6e6169 	bvs	1b985d0 <__bss_end__+0x1b8def8>
      28:	442f6e75 	strtmi	r6, [pc], #-3701	; 30 <_start-0x7fd0>
      2c:	746b7365 	strbtvc	r7, [fp], #-869	; 0x365
      30:	732f706f 	teqvc	pc, #111	; 0x6f
      34:	6f6f6863 	svcvs	0x006f6863
      38:	69572f6c 	ldmdbvs	r7, {r2, r3, r5, r6, r8, r9, sl, fp, sp}^
      3c:	7265746e 	rsbvc	r7, r5, #1845493760	; 0x6e000000
      40:	30323931 	eorscc	r3, r2, r1, lsr r9
      44:	3153432f 	cmpcc	r3, pc, lsr #6
      48:	2f453034 	svccs	0x00453034
      4c:	34317363 	ldrtcc	r7, [r1], #-867	; 0x363
      50:	322d6530 	eorcc	r6, sp, #48, 10	; 0xc000000
      54:	6e697730 	mcrvs	7, 3, r7, cr9, cr0, {1}
      58:	62696c2f 	rsbvs	r6, r9, #12032	; 0x2f00
      5c:	2f006970 	svccs	0x00006970
      60:	72657355 	rsbvc	r7, r5, #1409286145	; 0x54000001
      64:	72622f73 	rsbvc	r2, r2, #460	; 0x1cc
      68:	6a6e6169 	bvs	1b98614 <__bss_end__+0x1b8df3c>
      6c:	442f6e75 	strtmi	r6, [pc], #-3701	; 74 <_start-0x7f8c>
      70:	746b7365 	strbtvc	r7, [fp], #-869	; 0x365
      74:	732f706f 	teqvc	pc, #111	; 0x6f
      78:	6f6f6863 	svcvs	0x006f6863
      7c:	69572f6c 	ldmdbvs	r7, {r2, r3, r5, r6, r8, r9, sl, fp, sp}^
      80:	7265746e 	rsbvc	r7, r5, #1845493760	; 0x6e000000
      84:	30323931 	eorscc	r3, r2, r1, lsr r9
      88:	3153432f 	cmpcc	r3, pc, lsr #6
      8c:	2f453034 	svccs	0x00453034
      90:	34317363 	ldrtcc	r7, [r1], #-867	; 0x363
      94:	322d6530 	eorcc	r6, sp, #48, 10	; 0xc000000
      98:	6e697730 	mcrvs	7, 3, r7, cr9, cr0, {1}
      9c:	62696c2f 	rsbvs	r6, r9, #12032	; 0x2f00
      a0:	632f6970 	teqvs	pc, #112, 18	; 0x1c0000
      a4:	30343173 	eorscc	r3, r4, r3, ror r1
      a8:	72732d65 	rsbsvc	r2, r3, #6464	; 0x1940
      ac:	752f0063 	strvc	r0, [pc, #-99]!	; 51 <_start-0x7faf>
      b0:	6c2f7273 	sfmvs	f7, 4, [pc], #-460	; fffffeec <__bss_end__+0xffff5814>
      b4:	6c61636f 	stclvs	3, cr6, [r1], #-444	; 0xfffffe44
      b8:	6c65432f 	stclvs	3, cr4, [r5], #-188	; 0xffffff44
      bc:	2f72616c 	svccs	0x0072616c
      c0:	2d6d7261 	sfmcs	f7, 2, [sp, #-388]!	; 0xfffffe7c
      c4:	656e6f6e 	strbvs	r6, [lr, #-3950]!	; 0xf6e
      c8:	6261652d 	rsbvs	r6, r1, #188743680	; 0xb400000
      cc:	2e342f69 	cdpcs	15, 3, cr2, cr4, cr9, {3}
      d0:	2d332e38 	ldccs	14, cr2, [r3, #-224]!	; 0xffffff20
      d4:	37317363 	ldrcc	r7, [r1, -r3, ror #6]!
      d8:	6c2f6530 	cfstr32vs	mvfx6, [pc], #-192	; 20 <_start-0x7fe0>
      dc:	672f6269 	strvs	r6, [pc, -r9, ror #4]!
      e0:	612f6363 	teqvs	pc, r3, ror #6
      e4:	6e2d6d72 	mcrvs	13, 1, r6, cr13, cr2, {3}
      e8:	2d656e6f 	stclcs	14, cr6, [r5, #-444]!	; 0xfffffe44
      ec:	69626165 	stmdbvs	r2!, {r0, r2, r5, r6, r8, sp, lr}^
      f0:	382e342f 	stmdacc	lr!, {r0, r1, r2, r3, r5, sl, ip, sp}
      f4:	692f332e 	stmdbvs	pc!, {r1, r2, r3, r5, r8, r9, ip, sp}	; <UNPREDICTABLE>
      f8:	756c636e 	strbvc	r6, [ip, #-878]!	; 0x36e
      fc:	00006564 	andeq	r6, r0, r4, ror #10
     100:	74736574 	ldrbtvc	r6, [r3], #-1396	; 0x574
     104:	6e65672d 	cdpvs	7, 6, cr6, cr5, cr13, {1}
     108:	0000632e 	andeq	r6, r0, lr, lsr #6
     10c:	70720000 	rsbsvc	r0, r2, r0
     110:	00682e69 	rsbeq	r2, r8, r9, ror #28
     114:	67000001 	strvs	r0, [r0, -r1]
     118:	2e6f6970 	mcrcs	9, 3, r6, cr15, cr0, {3}
     11c:	00020068 	andeq	r0, r2, r8, rrx
     120:	64747300 	ldrbtvs	r7, [r4], #-768	; 0x300
     124:	2d746e69 	ldclcs	14, cr6, [r4, #-420]!	; 0xfffffe5c
     128:	2e636367 	cdpcs	3, 6, cr6, cr3, cr7, {3}
     12c:	00030068 	andeq	r0, r3, r8, rrx
     130:	05000000 	streq	r0, [r0, #-0]
     134:	00801002 	addeq	r1, r0, r2
     138:	013f0300 	teqeq	pc, r0, lsl #6
     13c:	a02f8532 	eorge	r8, pc, r2, lsr r5	; <UNPREDICTABLE>
     140:	832d2f9f 	teqhi	sp, #636	; 0x27c
     144:	832d2f83 	teqhi	sp, #524	; 0x20c
     148:	832d2f83 	teqhi	sp, #524	; 0x20c
     14c:	832d2f83 	teqhi	sp, #524	; 0x20c
     150:	832d2f83 	teqhi	sp, #524	; 0x20c
     154:	832d2f83 	teqhi	sp, #524	; 0x20c
     158:	832d2f83 	teqhi	sp, #524	; 0x20c
     15c:	2e740383 	cdpcs	3, 7, cr0, cr4, cr3, {4}
     160:	2f2e0c03 	svccs	0x002e0c03
     164:	2e76032d 	cdpcs	3, 7, cr0, cr6, cr13, {1}
     168:	30303030 	eorscc	r3, r0, r0, lsr r0
     16c:	0c032f30 	stceq	15, cr2, [r3], {48}	; 0x30
     170:	14930882 	ldrne	r0, [r3], #2178	; 0x882
     174:	7fb80330 	svcvc	0x00b80330
     178:	00cd039e 	smulleq	r0, sp, lr, r3
     17c:	7fb3032e 	svcvc	0x00b3032e
     180:	00cd032e 	sbceq	r0, sp, lr, lsr #6
     184:	7fae034a 	svcvc	0x00ae034a
     188:	2e0b0382 	cdpcs	3, 0, cr0, cr11, cr2, {4}
     18c:	332e7503 	teqcc	lr, #12582912	; 0xc00000
     190:	33293329 	teqcc	r9, #-1543503872	; 0xa4000000
     194:	2e00cf03 	cdpcs	15, 0, cr12, cr0, cr3, {0}
     198:	9e7fac03 	cdpls	12, 7, cr10, cr15, cr3, {0}
     19c:	032e0b03 	teqeq	lr, #3072	; 0xc00
     1a0:	29332e75 	ldmdbcs	r3!, {r0, r2, r4, r5, r6, r9, sl, fp, sp}
     1a4:	03332933 	teqeq	r3, #835584	; 0xcc000
     1a8:	032e00d1 	teqeq	lr, #209	; 0xd1
     1ac:	039e7faa 	orrseq	r7, lr, #680	; 0x2a8
     1b0:	75032e0b 	strvc	r2, [r3, #-3595]	; 0xe0b
     1b4:	3329332e 	teqcc	r9, #-1207959552	; 0xb8000000
     1b8:	d3033329 	movwle	r3, #13097	; 0x3329
     1bc:	a8032e00 	stmdage	r3, {r9, sl, fp, sp}
     1c0:	0b039e7f 	bleq	e7bc4 <__bss_end__+0xdd4ec>
     1c4:	2e75032e 	cdpcs	3, 7, cr0, cr5, cr14, {1}
     1c8:	29332933 	ldmdbcs	r3!, {r0, r1, r4, r5, r8, fp, sp}
     1cc:	00d50333 	sbcseq	r0, r5, r3, lsr r3
     1d0:	7fa6032e 	svcvc	0x00a6032e
     1d4:	2e0b039e 	mcrcs	3, 0, r0, cr11, cr14, {4}
     1d8:	332e7503 	teqcc	lr, #12582912	; 0xc00000
     1dc:	33293329 	teqcc	r9, #-1543503872	; 0xa4000000
     1e0:	2e00d703 	cdpcs	7, 0, cr13, cr0, cr3, {0}
     1e4:	9e7fa403 	cdpls	4, 7, cr10, cr15, cr3, {0}
     1e8:	032e0b03 	teqeq	lr, #3072	; 0xc00
     1ec:	29332e75 	ldmdbcs	r3!, {r0, r2, r4, r5, r6, r9, sl, fp, sp}
     1f0:	03332933 	teqeq	r3, #835584	; 0xcc000
     1f4:	032e00d9 	teqeq	lr, #217	; 0xd9
     1f8:	039e7fa2 	orrseq	r7, lr, #648	; 0x288
     1fc:	75032e0b 	strvc	r2, [r3, #-3595]	; 0xe0b
     200:	3329332e 	teqcc	r9, #-1207959552	; 0xb8000000
     204:	db033329 	blle	cceb0 <__bss_end__+0xc27d8>
     208:	a0032e00 	andge	r2, r3, r0, lsl #28
     20c:	0b039e7f 	bleq	e7c10 <__bss_end__+0xdd538>
     210:	2e75032e 	cdpcs	3, 7, cr0, cr5, cr14, {1}
     214:	29332933 	ldmdbcs	r3!, {r0, r1, r4, r5, r8, fp, sp}
     218:	00dd0333 	sbcseq	r0, sp, r3, lsr r3
     21c:	7f9e032e 	svcvc	0x009e032e
     220:	00e4039e 	smlaleq	r0, r4, lr, r3
     224:	7f9c032e 	svcvc	0x009c032e
     228:	00e4032e 	rsceq	r0, r4, lr, lsr #6
     22c:	b2038366 	andlt	r8, r3, #-1744830463	; 0x98000001
     230:	1374087f 	cmnne	r4, #8323072	; 0x7f0000
     234:	2f2f2f2d 	svccs	0x002f2f2d
     238:	02003067 	andeq	r3, r0, #103	; 0x67
     23c:	08450104 	stmdaeq	r5, {r2, r8}^
     240:	02003244 	andeq	r3, r0, #68, 4	; 0x40000004
     244:	2e060104 	adfcss	f0, f6, f4
     248:	002f6906 	eoreq	r6, pc, r6, lsl #18
     24c:	06010402 	streq	r0, [r1], -r2, lsl #8
     250:	0084062e 	addeq	r0, r4, lr, lsr #12
     254:	06010402 	streq	r0, [r1], -r2, lsl #8
     258:	2f83062e 	svccs	0x0083062e
     25c:	0402002d 	streq	r0, [r2], #-45	; 0x2d
     260:	2f838301 	svccs	0x00838301
     264:	0402002d 	streq	r0, [r2], #-45	; 0x2d
     268:	2f838301 	svccs	0x00838301
     26c:	0402002d 	streq	r0, [r2], #-45	; 0x2d
     270:	2f838301 	svccs	0x00838301
     274:	0402002d 	streq	r0, [r2], #-45	; 0x2d
     278:	2f838301 	svccs	0x00838301
     27c:	0402002d 	streq	r0, [r2], #-45	; 0x2d
     280:	2f838301 	svccs	0x00838301
     284:	0402002d 	streq	r0, [r2], #-45	; 0x2d
     288:	2f838301 	svccs	0x00838301
     28c:	0402002d 	streq	r0, [r2], #-45	; 0x2d
     290:	03838301 	orreq	r8, r3, #67108864	; 0x4000000
     294:	0c032e74 	stceq	14, cr2, [r3], {116}	; 0x74
     298:	032d2f2e 	teqeq	sp, #46, 30	; 0xb8
     29c:	30302e76 	eorscc	r2, r0, r6, ror lr
     2a0:	00303030 	eorseq	r3, r0, r0, lsr r0
     2a4:	2f010402 	svccs	0x00010402
     2a8:	08820c03 	stmeq	r2, {r0, r1, sl, fp}
     2ac:	00303093 	mlaseq	r0, r3, r0, r3
     2b0:	06010402 	streq	r0, [r1], -r2, lsl #8
     2b4:	b803062e 	stmdalt	r3, {r1, r2, r3, r5, r9, sl}
     2b8:	cd03827f 	sfmgt	f0, 1, [r3, #-508]	; 0xfffffe04
     2bc:	b3036600 	movwlt	r6, #13824	; 0x3600
     2c0:	02002e7f 	andeq	r2, r0, #2032	; 0x7f0
     2c4:	cd030104 	stfgts	f0, [r3, #-16]
     2c8:	ae034a00 	vmlage.f32	s8, s6, s0
     2cc:	0b03827f 	bleq	e0cd0 <__bss_end__+0xd65f8>
     2d0:	2e75032e 	cdpcs	3, 7, cr0, cr5, cr14, {1}
     2d4:	29332933 	ldmdbcs	r3!, {r0, r1, r4, r5, r8, fp, sp}
     2d8:	00cf0333 	sbceq	r0, pc, r3, lsr r3	; <UNPREDICTABLE>
     2dc:	0402002e 	streq	r0, [r2], #-46	; 0x2e
     2e0:	062e0601 	strteq	r0, [lr], -r1, lsl #12
     2e4:	827fac03 	rsbshi	sl, pc, #768	; 0x300
     2e8:	032e0b03 	teqeq	lr, #3072	; 0xc00
     2ec:	29332e75 	ldmdbcs	r3!, {r0, r2, r4, r5, r6, r9, sl, fp, sp}
     2f0:	03332933 	teqeq	r3, #835584	; 0xcc000
     2f4:	002e00d1 	ldrdeq	r0, [lr], -r1	; <UNPREDICTABLE>
     2f8:	06010402 	streq	r0, [r1], -r2, lsl #8
     2fc:	aa03062e 	bge	c1bbc <__bss_end__+0xb74e4>
     300:	0b03827f 	bleq	e0d04 <__bss_end__+0xd662c>
     304:	2e75032e 	cdpcs	3, 7, cr0, cr5, cr14, {1}
     308:	29332933 	ldmdbcs	r3!, {r0, r1, r4, r5, r8, fp, sp}
     30c:	00d30333 	sbcseq	r0, r3, r3, lsr r3
     310:	0402002e 	streq	r0, [r2], #-46	; 0x2e
     314:	062e0601 	strteq	r0, [lr], -r1, lsl #12
     318:	827fa803 	rsbshi	sl, pc, #196608	; 0x30000
     31c:	032e0b03 	teqeq	lr, #3072	; 0xc00
     320:	29332e75 	ldmdbcs	r3!, {r0, r2, r4, r5, r6, r9, sl, fp, sp}
     324:	03332933 	teqeq	r3, #835584	; 0xcc000
     328:	002e00d5 	ldrdeq	r0, [lr], -r5	; <UNPREDICTABLE>
     32c:	06010402 	streq	r0, [r1], -r2, lsl #8
     330:	a603062e 	strge	r0, [r3], -lr, lsr #12
     334:	0b03827f 	bleq	e0d38 <__bss_end__+0xd6660>
     338:	2e75032e 	cdpcs	3, 7, cr0, cr5, cr14, {1}
     33c:	29332933 	ldmdbcs	r3!, {r0, r1, r4, r5, r8, fp, sp}
     340:	00d70333 	sbcseq	r0, r7, r3, lsr r3
     344:	0402002e 	streq	r0, [r2], #-46	; 0x2e
     348:	062e0601 	strteq	r0, [lr], -r1, lsl #12
     34c:	827fa403 	rsbshi	sl, pc, #50331648	; 0x3000000
     350:	032e0b03 	teqeq	lr, #3072	; 0xc00
     354:	29332e75 	ldmdbcs	r3!, {r0, r2, r4, r5, r6, r9, sl, fp, sp}
     358:	03332933 	teqeq	r3, #835584	; 0xcc000
     35c:	002e00d9 	ldrdeq	r0, [lr], -r9	; <UNPREDICTABLE>
     360:	06010402 	streq	r0, [r1], -r2, lsl #8
     364:	a203062e 	andge	r0, r3, #48234496	; 0x2e00000
     368:	0b03827f 	bleq	e0d6c <__bss_end__+0xd6694>
     36c:	2e75032e 	cdpcs	3, 7, cr0, cr5, cr14, {1}
     370:	29332933 	ldmdbcs	r3!, {r0, r1, r4, r5, r8, fp, sp}
     374:	00db0333 	sbcseq	r0, fp, r3, lsr r3
     378:	0402002e 	streq	r0, [r2], #-46	; 0x2e
     37c:	062e0601 	strteq	r0, [lr], -r1, lsl #12
     380:	827fa003 	rsbshi	sl, pc, #3
     384:	032e0b03 	teqeq	lr, #3072	; 0xc00
     388:	29332e75 	ldmdbcs	r3!, {r0, r2, r4, r5, r6, r9, sl, fp, sp}
     38c:	03332933 	teqeq	r3, #835584	; 0xcc000
     390:	002e00dd 	ldrdeq	r0, [lr], -sp	; <UNPREDICTABLE>
     394:	06010402 	streq	r0, [r1], -r2, lsl #8
     398:	9e03062e 	cfmadd32ls	mvax1, mvfx0, mvfx3, mvfx14
     39c:	e403827f 	str	r8, [r3], #-639	; 0x27f
     3a0:	9c032e00 	stcls	14, cr2, [r3], {-0}
     3a4:	02002e7f 	andeq	r2, r0, #2032	; 0x7f0
     3a8:	e4030104 	str	r0, [r3], #-260	; 0x104
     3ac:	03836600 	orreq	r6, r3, #0, 12
     3b0:	31900822 	orrscc	r0, r0, r2, lsr #16
     3b4:	032f4b4b 	teqeq	pc, #76800	; 0x12c00
     3b8:	034a7ef3 	movteq	r7, #44787	; 0xaef3
     3bc:	032e00e9 	teqeq	lr, #233	; 0xe9
     3c0:	032e7f97 	teqeq	lr, #604	; 0x25c
     3c4:	2f6600e9 	svccs	0x006600e9
     3c8:	302d4d83 	eorcc	r4, sp, r3, lsl #27
     3cc:	4c684c4c 	stclmi	12, cr4, [r8], #-304	; 0xfffffed0
     3d0:	2c4b4b4b 	mcrrcs	11, 4, r4, fp, cr11
     3d4:	4f302f4b 	svcmi	0x00302f4b
     3d8:	032e6d03 	teqeq	lr, #3, 26	; 0xc0
     3dc:	10034a16 	andne	r4, r3, r6, lsl sl
     3e0:	2e690366 	cdpcs	3, 6, cr0, cr9, cr6, {3}
     3e4:	01001202 	tsteq	r0, r2, lsl #4
     3e8:	00010201 	andeq	r0, r1, r1, lsl #4
     3ec:	eb000200 	bl	bf4 <_start-0x740c>
     3f0:	02000000 	andeq	r0, r0, #0
     3f4:	0d0efb01 	vstreq	d15, [lr, #-4]
     3f8:	01010100 	mrseq	r0, (UNDEF: 17)
     3fc:	00000001 	andeq	r0, r0, r1
     400:	01000001 	tsteq	r0, r1
     404:	6362696c 	cmnvs	r2, #108, 18	; 0x1b0000
     408:	73752f00 	cmnvc	r5, #0, 30
     40c:	6f6c2f72 	svcvs	0x006c2f72
     410:	2f6c6163 	svccs	0x006c6163
     414:	6c6c6543 	cfstr64vs	mvdx6, [ip], #-268	; 0xfffffef4
     418:	612f7261 	teqvs	pc, r1, ror #4
     41c:	6e2d6d72 	mcrvs	13, 1, r6, cr13, cr2, {3}
     420:	2d656e6f 	stclcs	14, cr6, [r5, #-444]!	; 0xfffffe44
     424:	69626165 	stmdbvs	r2!, {r0, r2, r5, r6, r8, sp, lr}^
     428:	382e342f 	stmdacc	lr!, {r0, r1, r2, r3, r5, sl, ip, sp}
     42c:	632d332e 	teqvs	sp, #-1207959552	; 0xb8000000
     430:	30373173 	eorscc	r3, r7, r3, ror r1
     434:	696c2f65 	stmdbvs	ip!, {r0, r2, r5, r6, r8, r9, sl, fp, sp}^
     438:	63672f62 	cmnvs	r7, #392	; 0x188
     43c:	72612f63 	rsbvc	r2, r1, #396	; 0x18c
     440:	6f6e2d6d 	svcvs	0x006e2d6d
     444:	652d656e 	strvs	r6, [sp, #-1390]!	; 0x56e
     448:	2f696261 	svccs	0x00696261
     44c:	2e382e34 	mrccs	14, 1, r2, cr8, cr4, {1}
     450:	6e692f33 	mcrvs	15, 3, r2, cr9, cr3, {1}
     454:	64756c63 	ldrbtvs	r6, [r5], #-3171	; 0xc63
     458:	552f0065 	strpl	r0, [pc, #-101]!	; 3fb <_start-0x7c05>
     45c:	73726573 	cmnvc	r2, #482344960	; 0x1cc00000
     460:	6972622f 	ldmdbvs	r2!, {r0, r1, r2, r3, r5, r9, sp, lr}^
     464:	756a6e61 	strbvc	r6, [sl, #-3681]!	; 0xe61
     468:	65442f6e 	strbvs	r2, [r4, #-3950]	; 0xf6e
     46c:	6f746b73 	svcvs	0x00746b73
     470:	63732f70 	cmnvs	r3, #112, 30	; 0x1c0
     474:	6c6f6f68 	stclvs	15, cr6, [pc], #-416	; 2dc <_start-0x7d24>
     478:	6e69572f 	cdpvs	7, 6, cr5, cr9, cr15, {1}
     47c:	31726574 	cmncc	r2, r4, ror r5
     480:	2f303239 	svccs	0x00303239
     484:	34315343 	ldrtcc	r5, [r1], #-835	; 0x343
     488:	632f4530 	teqvs	pc, #48, 10	; 0xc000000
     48c:	30343173 	eorscc	r3, r4, r3, ror r1
     490:	30322d65 	eorscc	r2, r2, r5, ror #26
     494:	2f6e6977 	svccs	0x006e6977
     498:	7062696c 	rsbvc	r6, r2, ip, ror #18
     49c:	70000069 	andvc	r0, r0, r9, rrx
     4a0:	746e6972 	strbtvc	r6, [lr], #-2418	; 0x972
     4a4:	00632e6b 	rsbeq	r2, r3, fp, ror #28
     4a8:	73000001 	movwvc	r0, #1
     4ac:	72616474 	rsbvc	r6, r1, #116, 8	; 0x74000000
     4b0:	00682e67 	rsbeq	r2, r8, r7, ror #28
     4b4:	3c000002 	stccc	0, cr0, [r0], {2}
     4b8:	6c697562 	cfstr64vs	mvdx7, [r9], #-392	; 0xfffffe78
     4bc:	6e692d74 	mcrvs	13, 3, r2, cr9, cr4, {3}
     4c0:	0000003e 	andeq	r0, r0, lr, lsr r0
     4c4:	69707200 	ldmdbvs	r0!, {r9, ip, sp, lr}^
     4c8:	0300682e 	movweq	r6, #2094	; 0x82e
     4cc:	61760000 	cmnvs	r6, r0
     4d0:	6972702d 	ldmdbvs	r2!, {r0, r2, r3, r5, ip, sp, lr}^
     4d4:	2e6b746e 	cdpcs	4, 6, cr7, cr11, cr14, {3}
     4d8:	00010068 	andeq	r0, r1, r8, rrx
     4dc:	05000000 	streq	r0, [r0, #-0]
     4e0:	00894802 	addeq	r4, r9, r2, lsl #16
     4e4:	4b6b1700 	blmi	1ac60ec <__bss_end__+0x1abba14>
     4e8:	0e0289bf 	mcreq	9, 0, r8, cr2, cr15, {5}
     4ec:	8a010100 	bhi	408f4 <__bss_end__+0x3621c>
     4f0:	02000000 	andeq	r0, r0, #0
     4f4:	00007200 	andeq	r7, r0, r0, lsl #4
     4f8:	fb010200 	blx	40d02 <__bss_end__+0x3662a>
     4fc:	01000d0e 	tsteq	r0, lr, lsl #26
     500:	00010101 	andeq	r0, r1, r1, lsl #2
     504:	00010000 	andeq	r0, r1, r0
     508:	696c0100 	stmdbvs	ip!, {r8}^
     50c:	2f006362 	svccs	0x00006362
     510:	72657355 	rsbvc	r7, r5, #1409286145	; 0x54000001
     514:	72622f73 	rsbvc	r2, r2, #460	; 0x1cc
     518:	6a6e6169 	bvs	1b98ac4 <__bss_end__+0x1b8e3ec>
     51c:	442f6e75 	strtmi	r6, [pc], #-3701	; 524 <_start-0x7adc>
     520:	746b7365 	strbtvc	r7, [fp], #-869	; 0x365
     524:	732f706f 	teqvc	pc, #111	; 0x6f
     528:	6f6f6863 	svcvs	0x006f6863
     52c:	69572f6c 	ldmdbvs	r7, {r2, r3, r5, r6, r8, r9, sl, fp, sp}^
     530:	7265746e 	rsbvc	r7, r5, #1845493760	; 0x6e000000
     534:	30323931 	eorscc	r3, r2, r1, lsr r9
     538:	3153432f 	cmpcc	r3, pc, lsr #6
     53c:	2f453034 	svccs	0x00453034
     540:	34317363 	ldrtcc	r7, [r1], #-867	; 0x363
     544:	322d6530 	eorcc	r6, sp, #48, 10	; 0xc000000
     548:	6e697730 	mcrvs	7, 3, r7, cr9, cr0, {1}
     54c:	62696c2f 	rsbvs	r6, r9, #12032	; 0x2f00
     550:	00006970 	andeq	r6, r0, r0, ror r9
     554:	63747570 	cmnvs	r4, #112, 10	; 0x1c000000
     558:	2e726168 	rpwcssz	f6, f2, #0.0
     55c:	00010063 	andeq	r0, r1, r3, rrx
     560:	69707200 	ldmdbvs	r0!, {r9, ip, sp, lr}^
     564:	0200682e 	andeq	r6, r0, #3014656	; 0x2e0000
     568:	00000000 	andeq	r0, r0, r0
     56c:	89a00205 	stmibhi	r0!, {r0, r2, r9}
     570:	4a140000 	bmi	500578 <__bss_end__+0x4f5ea0>
     574:	13bc136b 			; <UNDEFINED> instruction: 0x13bc136b
     578:	01000802 	tsteq	r0, r2, lsl #16
     57c:	00009601 	andeq	r9, r0, r1, lsl #12
     580:	6f000200 	svcvs	0x00000200
     584:	02000000 	andeq	r0, r0, #0
     588:	0d0efb01 	vstreq	d15, [lr, #-4]
     58c:	01010100 	mrseq	r0, (UNDEF: 17)
     590:	00000001 	andeq	r0, r0, r1
     594:	01000001 	tsteq	r0, r1
     598:	6362696c 	cmnvs	r2, #108, 18	; 0x1b0000
     59c:	73552f00 	cmpvc	r5, #0, 30
     5a0:	2f737265 	svccs	0x00737265
     5a4:	61697262 	cmnvs	r9, r2, ror #4
     5a8:	6e756a6e 	vsubvs.f32	s13, s10, s29
     5ac:	7365442f 	cmnvc	r5, #788529152	; 0x2f000000
     5b0:	706f746b 	rsbvc	r7, pc, fp, ror #8
     5b4:	6863732f 	stmdavs	r3!, {r0, r1, r2, r3, r5, r8, r9, ip, sp, lr}^
     5b8:	2f6c6f6f 	svccs	0x006c6f6f
     5bc:	746e6957 	strbtvc	r6, [lr], #-2391	; 0x957
     5c0:	39317265 	ldmdbcc	r1!, {r0, r2, r5, r6, r9, ip, sp, lr}
     5c4:	432f3032 	teqmi	pc, #50	; 0x32
     5c8:	30343153 	eorscc	r3, r4, r3, asr r1
     5cc:	73632f45 	cmnvc	r3, #276	; 0x114
     5d0:	65303431 	ldrvs	r3, [r0, #-1073]!	; 0x431
     5d4:	7730322d 	ldrvc	r3, [r0, -sp, lsr #4]!
     5d8:	6c2f6e69 	stcvs	14, cr6, [pc], #-420	; 43c <_start-0x7bc4>
     5dc:	69706269 	ldmdbvs	r0!, {r0, r3, r5, r6, r9, sp, lr}^
     5e0:	75700000 	ldrbvc	r0, [r0, #-0]!
     5e4:	632e6b74 	teqvs	lr, #116, 22	; 0x1d000
     5e8:	00000100 	andeq	r0, r0, r0, lsl #2
     5ec:	2e697072 	mcrcs	0, 3, r7, cr9, cr2, {3}
     5f0:	00020068 	andeq	r0, r2, r8, rrx
     5f4:	05000000 	streq	r0, [r0, #-0]
     5f8:	0089dc02 	addeq	sp, r9, r2, lsl #24
     5fc:	2d4c1500 	cfstr64cs	mvdx1, [ip, #-0]
     600:	02040200 	andeq	r0, r4, #0, 4
     604:	0402002f 	streq	r0, [r2], #-47	; 0x2f
     608:	02004902 	andeq	r4, r0, #32768	; 0x8000
     60c:	2e060104 	adfcss	f0, f6, f4
     610:	06026b06 	streq	r6, [r2], -r6, lsl #22
     614:	e2010100 	and	r0, r1, #0, 2
     618:	02000001 	andeq	r0, r0, #1
     61c:	0000df00 	andeq	sp, r0, r0, lsl #30
     620:	fb010200 	blx	40e2a <__bss_end__+0x36752>
     624:	01000d0e 	tsteq	r0, lr, lsl #26
     628:	00010101 	andeq	r0, r1, r1, lsl #2
     62c:	00010000 	andeq	r0, r1, r0
     630:	696c0100 	stmdbvs	ip!, {r8}^
     634:	2f006362 	svccs	0x00006362
     638:	2f727375 	svccs	0x00727375
     63c:	61636f6c 	cmnvs	r3, ip, ror #30
     640:	65432f6c 	strbvs	r2, [r3, #-3948]	; 0xf6c
     644:	72616c6c 	rsbvc	r6, r1, #108, 24	; 0x6c00
     648:	6d72612f 	ldfvse	f6, [r2, #-188]!	; 0xffffff44
     64c:	6e6f6e2d 	cdpvs	14, 6, cr6, cr15, cr13, {1}
     650:	61652d65 	cmnvs	r5, r5, ror #26
     654:	342f6962 	strtcc	r6, [pc], #-2402	; 65c <_start-0x79a4>
     658:	332e382e 	teqcc	lr, #3014656	; 0x2e0000
     65c:	3173632d 	cmncc	r3, sp, lsr #6
     660:	2f653037 	svccs	0x00653037
     664:	2f62696c 	svccs	0x0062696c
     668:	2f636367 	svccs	0x00636367
     66c:	2d6d7261 	sfmcs	f7, 2, [sp, #-388]!	; 0xfffffe7c
     670:	656e6f6e 	strbvs	r6, [lr, #-3950]!	; 0xf6e
     674:	6261652d 	rsbvs	r6, r1, #188743680	; 0xb400000
     678:	2e342f69 	cdpcs	15, 3, cr2, cr4, cr9, {3}
     67c:	2f332e38 	svccs	0x00332e38
     680:	6c636e69 	stclvs	14, cr6, [r3], #-420	; 0xfffffe5c
     684:	00656475 	rsbeq	r6, r5, r5, ror r4
     688:	6573552f 	ldrbvs	r5, [r3, #-1327]!	; 0x52f
     68c:	622f7372 	eorvs	r7, pc, #-939524095	; 0xc8000001
     690:	6e616972 	mcrvs	9, 3, r6, cr1, cr2, {3}
     694:	2f6e756a 	svccs	0x006e756a
     698:	6b736544 	blvs	1cd9bb0 <__bss_end__+0x1ccf4d8>
     69c:	2f706f74 	svccs	0x00706f74
     6a0:	6f686373 	svcvs	0x00686373
     6a4:	572f6c6f 	strpl	r6, [pc, -pc, ror #24]!
     6a8:	65746e69 	ldrbvs	r6, [r4, #-3689]!	; 0xe69
     6ac:	32393172 	eorscc	r3, r9, #-2147483620	; 0x8000001c
     6b0:	53432f30 	movtpl	r2, #16176	; 0x3f30
     6b4:	45303431 	ldrmi	r3, [r0, #-1073]!	; 0x431
     6b8:	3173632f 	cmncc	r3, pc, lsr #6
     6bc:	2d653034 	stclcs	0, cr3, [r5, #-208]!	; 0xffffff30
     6c0:	69773032 	ldmdbvs	r7!, {r1, r4, r5, ip, sp}^
     6c4:	696c2f6e 	stmdbvs	ip!, {r1, r2, r3, r5, r6, r8, r9, sl, fp, sp}^
     6c8:	00697062 	rsbeq	r7, r9, r2, rrx
     6cc:	2d617600 	stclcs	6, cr7, [r1, #-0]
     6d0:	6e697270 	mcrvs	2, 3, r7, cr9, cr0, {3}
     6d4:	632e6b74 	teqvs	lr, #116, 22	; 0x1d000
     6d8:	00000100 	andeq	r0, r0, r0, lsl #2
     6dc:	61647473 	smcvs	18243	; 0x4743
     6e0:	682e6772 	stmdavs	lr!, {r1, r4, r5, r6, r8, r9, sl, sp, lr}
     6e4:	00000200 	andeq	r0, r0, r0, lsl #4
     6e8:	2e697072 	mcrcs	0, 3, r7, cr9, cr2, {3}
     6ec:	00030068 	andeq	r0, r3, r8, rrx
     6f0:	75623c00 	strbvc	r3, [r2, #-3072]!	; 0xc00
     6f4:	2d746c69 	ldclcs	12, cr6, [r4, #-420]!	; 0xfffffe5c
     6f8:	003e6e69 	eorseq	r6, lr, r9, ror #28
     6fc:	00000000 	andeq	r0, r0, r0
     700:	10020500 	andne	r0, r2, r0, lsl #10
     704:	0300008a 	movweq	r0, #138	; 0x8a
     708:	a5010126 	strge	r0, [r1, #-294]	; 0x126
     70c:	002d3113 	eoreq	r3, sp, r3, lsl r1
     710:	2f020402 	svccs	0x00020402
     714:	02040200 	andeq	r0, r4, #0, 4
     718:	0402002d 	streq	r0, [r2], #-45	; 0x2d
     71c:	02002f02 	andeq	r2, r0, #2, 30
     720:	4c2d0104 	stfmis	f0, [sp], #-16
     724:	4b14304c 	blmi	50c85c <__bss_end__+0x502184>
     728:	02004f2f 	andeq	r4, r0, #47, 30	; 0xbc
     72c:	00670204 	rsbeq	r0, r7, r4, lsl #4
     730:	65010402 	strvs	r0, [r1, #-1026]	; 0x402
     734:	a0304d4c 	eorsge	r4, r0, ip, asr #26
     738:	0230312f 	eorseq	r3, r0, #-1073741813	; 0xc000000b
     73c:	2d841626 	stccs	6, cr1, [r4, #152]	; 0x98
     740:	0402002c 	streq	r0, [r2], #-44	; 0x2c
     744:	02003001 	andeq	r3, r0, #1
     748:	06330104 	ldrteq	r0, [r3], -r4, lsl #2
     74c:	04020066 	streq	r0, [r2], #-102	; 0x66
     750:	02002e01 	andeq	r2, r0, #1, 28
     754:	08060104 	stmdaeq	r6, {r2, r8}
     758:	032f6721 	teqeq	pc, #8650752	; 0x840000
     75c:	13038273 	movwne	r8, #12915	; 0x3273
     760:	0402002e 	streq	r0, [r2], #-46	; 0x2e
     764:	002e0601 	eoreq	r0, lr, r1, lsl #12
     768:	06010402 	streq	r0, [r1], -r2, lsl #8
     76c:	034b6a9f 	movteq	r6, #47775	; 0xba9f
     770:	21032e67 	tstcs	r3, r7, ror #28
     774:	0402002e 	streq	r0, [r2], #-46	; 0x2e
     778:	002e0601 	eoreq	r0, lr, r1, lsl #12
     77c:	06010402 	streq	r0, [r1], -r2, lsl #8
     780:	0402009f 	streq	r0, [r2], #-159	; 0x9f
     784:	23086a01 	movwcs	r6, #35329	; 0x8a01
     788:	7fa603f3 	svcvc	0x00a603f3
     78c:	004b3c08 	subeq	r3, fp, r8, lsl #24
     790:	06010402 	streq	r0, [r1], -r2, lsl #8
     794:	2108064a 	tstcs	r8, sl, asr #12
     798:	034b2f4b 	movteq	r2, #48971	; 0xbf4b
     79c:	83f200d9 	mvnshi	r0, #217	; 0xd9
     7a0:	0e03484c 	cdpeq	8, 0, cr4, cr3, cr12, {2}
     7a4:	2e75032e 	cdpcs	3, 7, cr0, cr5, cr14, {1}
     7a8:	4b842f2f 	blmi	fe10c46c <__bss_end__+0xfe101d94>
     7ac:	314d2d2f 	cmpcc	sp, pc, lsr #26
     7b0:	00832f30 	addeq	r2, r3, r0, lsr pc
     7b4:	2c010402 	cfstrscs	mvf0, [r1], {2}
     7b8:	040200a2 	streq	r0, [r2], #-162	; 0xa2
     7bc:	064a0601 	strbeq	r0, [sl], -r1, lsl #12
     7c0:	36022208 	strcc	r2, [r2], -r8, lsl #4
     7c4:	d60e0316 			; <UNDEFINED> instruction: 0xd60e0316
     7c8:	f3302108 	vrhadd.u<illegal width 64>	d2, d0, d8
     7cc:	f330f331 	vcge.u<illegal width 64>	d15, d0, d17
     7d0:	f3304b30 			; <UNDEFINED> instruction: 0xf3304b30
     7d4:	31230830 	teqcc	r3, r0, lsr r8
     7d8:	0402002f 	streq	r0, [r2], #-47	; 0x2f
     7dc:	02006501 	andeq	r6, r0, #4194304	; 0x400000
     7e0:	4a060204 	bmi	180ff8 <__bss_end__+0x176920>
     7e4:	01040200 	mrseq	r0, R12_usr
     7e8:	66420306 	strbvs	r0, [r2], -r6, lsl #6
     7ec:	02040200 	andeq	r0, r4, #0, 4
     7f0:	03066606 	movweq	r6, #26118	; 0x6606
     7f4:	684a00c2 	stmdavs	sl, {r1, r6, r7}^
     7f8:	01001202 	tsteq	r0, r2, lsl #4
     7fc:	00004301 	andeq	r4, r0, r1, lsl #6
     800:	29000200 	stmdbcs	r0, {r9}
     804:	02000000 	andeq	r0, r0, #0
     808:	0d0efb01 	vstreq	d15, [lr, #-4]
     80c:	01010100 	mrseq	r0, (UNDEF: 17)
     810:	00000001 	andeq	r0, r0, r1
     814:	01000001 	tsteq	r0, r1
     818:	34317363 	ldrtcc	r7, [r1], #-867	; 0x363
     81c:	732d6530 	teqvc	sp, #48, 10	; 0xc000000
     820:	00006372 	andeq	r6, r0, r2, ror r3
     824:	68636163 	stmdavs	r3!, {r0, r1, r5, r6, r8, sp, lr}^
     828:	00632e65 	rsbeq	r2, r3, r5, ror #28
     82c:	00000001 	andeq	r0, r0, r1
     830:	34020500 	strcc	r0, [r2], #-1280	; 0x500
     834:	1400008f 	strne	r0, [r0], #-143	; 0x8f
     838:	4e2f3014 	miaTTmi	acc0, r4, r3
     83c:	022f3114 	eoreq	r3, pc, #20, 2
     840:	01010004 	tsteq	r1, r4
     844:	00000093 	muleq	r0, r3, r0
     848:	007d0002 	rsbseq	r0, sp, r2
     84c:	01020000 	mrseq	r0, (UNDEF: 2)
     850:	000d0efb 	strdeq	r0, [sp], -fp
     854:	01010101 	tsteq	r1, r1, lsl #2
     858:	01000000 	mrseq	r0, (UNDEF: 0)
     85c:	63010000 	movwvs	r0, #4096	; 0x1000
     860:	30343173 	eorscc	r3, r4, r3, ror r1
     864:	72732d65 	rsbsvc	r2, r3, #6464	; 0x1940
     868:	552f0063 	strpl	r0, [pc, #-99]!	; 80d <_start-0x77f3>
     86c:	73726573 	cmnvc	r2, #482344960	; 0x1cc00000
     870:	6972622f 	ldmdbvs	r2!, {r0, r1, r2, r3, r5, r9, sp, lr}^
     874:	756a6e61 	strbvc	r6, [sl, #-3681]!	; 0xe61
     878:	65442f6e 	strbvs	r2, [r4, #-3950]	; 0xf6e
     87c:	6f746b73 	svcvs	0x00746b73
     880:	63732f70 	cmnvs	r3, #112, 30	; 0x1c0
     884:	6c6f6f68 	stclvs	15, cr6, [pc], #-416	; 6ec <_start-0x7914>
     888:	6e69572f 	cdpvs	7, 6, cr5, cr9, cr15, {1}
     88c:	31726574 	cmncc	r2, r4, ror r5
     890:	2f303239 	svccs	0x00303239
     894:	34315343 	ldrtcc	r5, [r1], #-835	; 0x343
     898:	632f4530 	teqvs	pc, #48, 10	; 0xc000000
     89c:	30343173 	eorscc	r3, r4, r3, ror r1
     8a0:	30322d65 	eorscc	r2, r2, r5, ror #26
     8a4:	2f6e6977 	svccs	0x006e6977
     8a8:	7062696c 	rsbvc	r6, r2, ip, ror #18
     8ac:	63000069 	movwvs	r0, #105	; 0x69
     8b0:	6e61656c 	cdpvs	5, 6, cr6, cr1, cr12, {3}
     8b4:	6265722d 	rsbvs	r7, r5, #-805306366	; 0xd0000002
     8b8:	2e746f6f 	cdpcs	15, 7, cr6, cr4, cr15, {3}
     8bc:	00010063 	andeq	r0, r1, r3, rrx
     8c0:	69707200 	ldmdbvs	r0!, {r9, ip, sp, lr}^
     8c4:	0200682e 	andeq	r6, r0, #3014656	; 0x2e0000
     8c8:	00000000 	andeq	r0, r0, r0
     8cc:	8f540205 	svchi	0x00540205
     8d0:	2f150000 	svccs	0x00150000
     8d4:	06024b83 	streq	r4, [r2], -r3, lsl #23
     8d8:	21010100 	mrscs	r0, (UNDEF: 17)
     8dc:	02000001 	andeq	r0, r0, #1
     8e0:	0000f800 	andeq	pc, r0, r0, lsl #16
     8e4:	fb010200 	blx	410ee <__bss_end__+0x36a16>
     8e8:	01000d0e 	tsteq	r0, lr, lsl #26
     8ec:	00010101 	andeq	r0, r1, r1, lsl #2
     8f0:	00010000 	andeq	r0, r1, r0
     8f4:	73630100 	cmnvc	r3, #0, 2
     8f8:	65303431 	ldrvs	r3, [r0, #-1073]!	; 0x431
     8fc:	6372732d 	cmnvs	r2, #-1275068416	; 0xb4000000
     900:	73752f00 	cmnvc	r5, #0, 30
     904:	6f6c2f72 	svcvs	0x006c2f72
     908:	2f6c6163 	svccs	0x006c6163
     90c:	6c6c6543 	cfstr64vs	mvdx6, [ip], #-268	; 0xfffffef4
     910:	612f7261 	teqvs	pc, r1, ror #4
     914:	6e2d6d72 	mcrvs	13, 1, r6, cr13, cr2, {3}
     918:	2d656e6f 	stclcs	14, cr6, [r5, #-444]!	; 0xfffffe44
     91c:	69626165 	stmdbvs	r2!, {r0, r2, r5, r6, r8, sp, lr}^
     920:	382e342f 	stmdacc	lr!, {r0, r1, r2, r3, r5, sl, ip, sp}
     924:	632d332e 	teqvs	sp, #-1207959552	; 0xb8000000
     928:	30373173 	eorscc	r3, r7, r3, ror r1
     92c:	696c2f65 	stmdbvs	ip!, {r0, r2, r5, r6, r8, r9, sl, fp, sp}^
     930:	63672f62 	cmnvs	r7, #392	; 0x188
     934:	72612f63 	rsbvc	r2, r1, #396	; 0x18c
     938:	6f6e2d6d 	svcvs	0x006e2d6d
     93c:	652d656e 	strvs	r6, [sp, #-1390]!	; 0x56e
     940:	2f696261 	svccs	0x00696261
     944:	2e382e34 	mrccs	14, 1, r2, cr8, cr4, {1}
     948:	6e692f33 	mcrvs	15, 3, r2, cr9, cr3, {1}
     94c:	64756c63 	ldrbtvs	r6, [r5], #-3171	; 0xc63
     950:	552f0065 	strpl	r0, [pc, #-101]!	; 8f3 <_start-0x770d>
     954:	73726573 	cmnvc	r2, #482344960	; 0x1cc00000
     958:	6972622f 	ldmdbvs	r2!, {r0, r1, r2, r3, r5, r9, sp, lr}^
     95c:	756a6e61 	strbvc	r6, [sl, #-3681]!	; 0xe61
     960:	65442f6e 	strbvs	r2, [r4, #-3950]	; 0xf6e
     964:	6f746b73 	svcvs	0x00746b73
     968:	63732f70 	cmnvs	r3, #112, 30	; 0x1c0
     96c:	6c6f6f68 	stclvs	15, cr6, [pc], #-416	; 7d4 <_start-0x782c>
     970:	6e69572f 	cdpvs	7, 6, cr5, cr9, cr15, {1}
     974:	31726574 	cmncc	r2, r4, ror r5
     978:	2f303239 	svccs	0x00303239
     97c:	34315343 	ldrtcc	r5, [r1], #-835	; 0x343
     980:	632f4530 	teqvs	pc, #48, 10	; 0xc000000
     984:	30343173 	eorscc	r3, r4, r3, ror r1
     988:	30322d65 	eorscc	r2, r2, r5, ror #26
     98c:	2f6e6977 	svccs	0x006e6977
     990:	7062696c 	rsbvc	r6, r2, ip, ror #18
     994:	63000069 	movwvs	r0, #105	; 0x69
     998:	72617473 	rsbvc	r7, r1, #1929379840	; 0x73000000
     99c:	00632e74 	rsbeq	r2, r3, r4, ror lr
     9a0:	73000001 	movwvc	r0, #1
     9a4:	6e696474 	mcrvs	4, 3, r6, cr9, cr4, {3}
     9a8:	63672d74 	cmnvs	r7, #116, 26	; 0x1d00
     9ac:	00682e63 	rsbeq	r2, r8, r3, ror #28
     9b0:	73000002 	movwvc	r0, #2
     9b4:	61752d77 	cmnvs	r5, r7, ror sp
     9b8:	682e7472 	stmdavs	lr!, {r1, r4, r5, r6, sl, ip, sp, lr}
     9bc:	00000100 	andeq	r0, r0, r0, lsl #2
     9c0:	746e6f63 	strbtvc	r6, [lr], #-3939	; 0xf63
     9c4:	2d6c6f72 	stclcs	15, cr6, [ip, #-456]!	; 0xfffffe38
     9c8:	636f6c62 	cmnvs	pc, #25088	; 0x6200
     9cc:	00682e6b 	rsbeq	r2, r8, fp, ror #28
     9d0:	72000001 	andvc	r0, r0, #1
     9d4:	682e6970 	stmdavs	lr!, {r4, r5, r6, r8, fp, sp, lr}
     9d8:	00000300 	andeq	r0, r0, r0, lsl #6
     9dc:	02050000 	andeq	r0, r5, #0
     9e0:	00008f7c 	andeq	r8, r0, ip, ror pc
     9e4:	68684b17 	stmdavs	r8!, {r0, r1, r2, r4, r8, r9, fp, lr}^
     9e8:	2d2f3132 	stfcss	f3, [pc, #-200]!	; 928 <_start-0x76d8>
     9ec:	0402002f 	streq	r0, [r2], #-47	; 0x2f
     9f0:	2f4f4901 	svccs	0x004f4901
     9f4:	8367674b 	cmnhi	r7, #19660800	; 0x12c0000
     9f8:	022f4e67 	eoreq	r4, pc, #1648	; 0x670
     9fc:	01010010 	tsteq	r1, r0, lsl r0
     a00:	00000099 	muleq	r0, r9, r0
     a04:	00770002 	rsbseq	r0, r7, r2
     a08:	01020000 	mrseq	r0, (UNDEF: 2)
     a0c:	000d0efb 	strdeq	r0, [sp], -fp
     a10:	01010101 	tsteq	r1, r1, lsl #2
     a14:	01000000 	mrseq	r0, (UNDEF: 0)
     a18:	63010000 	movwvs	r0, #4096	; 0x1000
     a1c:	30343173 	eorscc	r3, r4, r3, ror r1
     a20:	72732d65 	rsbsvc	r2, r3, #6464	; 0x1940
     a24:	552f0063 	strpl	r0, [pc, #-99]!	; 9c9 <_start-0x7637>
     a28:	73726573 	cmnvc	r2, #482344960	; 0x1cc00000
     a2c:	6972622f 	ldmdbvs	r2!, {r0, r1, r2, r3, r5, r9, sp, lr}^
     a30:	756a6e61 	strbvc	r6, [sl, #-3681]!	; 0xe61
     a34:	65442f6e 	strbvs	r2, [r4, #-3950]	; 0xf6e
     a38:	6f746b73 	svcvs	0x00746b73
     a3c:	63732f70 	cmnvs	r3, #112, 30	; 0x1c0
     a40:	6c6f6f68 	stclvs	15, cr6, [pc], #-416	; 8a8 <_start-0x7758>
     a44:	6e69572f 	cdpvs	7, 6, cr5, cr9, cr15, {1}
     a48:	31726574 	cmncc	r2, r4, ror r5
     a4c:	2f303239 	svccs	0x00303239
     a50:	34315343 	ldrtcc	r5, [r1], #-835	; 0x343
     a54:	632f4530 	teqvs	pc, #48, 10	; 0xc000000
     a58:	30343173 	eorscc	r3, r4, r3, ror r1
     a5c:	30322d65 	eorscc	r2, r2, r5, ror #26
     a60:	2f6e6977 	svccs	0x006e6977
     a64:	7062696c 	rsbvc	r6, r2, ip, ror #18
     a68:	72000069 	andvc	r0, r0, #105	; 0x69
     a6c:	6f6f6265 	svcvs	0x006f6265
     a70:	00632e74 	rsbeq	r2, r3, r4, ror lr
     a74:	72000001 	andvc	r0, r0, #1
     a78:	682e6970 	stmdavs	lr!, {r4, r5, r6, r8, fp, sp, lr}
     a7c:	00000200 	andeq	r0, r0, r0, lsl #4
     a80:	02050000 	andeq	r0, r5, #0
     a84:	0000902c 	andeq	r9, r0, ip, lsr #32
     a88:	14010d03 	strne	r0, [r1], #-3331	; 0xd03
     a8c:	15852f31 	strne	r2, [r5, #3889]	; 0xf31
     a90:	2f4d4b2f 	svccs	0x004d4b2f
     a94:	67523567 	ldrbvs	r3, [r2, -r7, ror #10]
     a98:	01001002 	tsteq	r0, r2
     a9c:	0000a301 	andeq	sl, r0, r1, lsl #6
     aa0:	76000200 	strvc	r0, [r0], -r0, lsl #4
     aa4:	02000000 	andeq	r0, r0, #0
     aa8:	0d0efb01 	vstreq	d15, [lr, #-4]
     aac:	01010100 	mrseq	r0, (UNDEF: 17)
     ab0:	00000001 	andeq	r0, r0, r1
     ab4:	01000001 	tsteq	r0, r1
     ab8:	34317363 	ldrtcc	r7, [r1], #-867	; 0x363
     abc:	732d6530 	teqvc	sp, #48, 10	; 0xc000000
     ac0:	2f006372 	svccs	0x00006372
     ac4:	72657355 	rsbvc	r7, r5, #1409286145	; 0x54000001
     ac8:	72622f73 	rsbvc	r2, r2, #460	; 0x1cc
     acc:	6a6e6169 	bvs	1b99078 <__bss_end__+0x1b8e9a0>
     ad0:	442f6e75 	strtmi	r6, [pc], #-3701	; ad8 <_start-0x7528>
     ad4:	746b7365 	strbtvc	r7, [fp], #-869	; 0x365
     ad8:	732f706f 	teqvc	pc, #111	; 0x6f
     adc:	6f6f6863 	svcvs	0x006f6863
     ae0:	69572f6c 	ldmdbvs	r7, {r2, r3, r5, r6, r8, r9, sl, fp, sp}^
     ae4:	7265746e 	rsbvc	r7, r5, #1845493760	; 0x6e000000
     ae8:	30323931 	eorscc	r3, r2, r1, lsr r9
     aec:	3153432f 	cmpcc	r3, pc, lsr #6
     af0:	2f453034 	svccs	0x00453034
     af4:	34317363 	ldrtcc	r7, [r1], #-867	; 0x363
     af8:	322d6530 	eorcc	r6, sp, #48, 10	; 0xc000000
     afc:	6e697730 	mcrvs	7, 3, r7, cr9, cr0, {1}
     b00:	62696c2f 	rsbvs	r6, r9, #12032	; 0x2f00
     b04:	00006970 	andeq	r6, r0, r0, ror r9
     b08:	656d6974 	strbvs	r6, [sp, #-2420]!	; 0x974
     b0c:	00632e72 	rsbeq	r2, r3, r2, ror lr
     b10:	72000001 	andvc	r0, r0, #1
     b14:	682e6970 	stmdavs	lr!, {r4, r5, r6, r8, fp, sp, lr}
     b18:	00000200 	andeq	r0, r0, r0, lsl #4
     b1c:	02050000 	andeq	r0, r5, #0
     b20:	000090a0 	andeq	r9, r0, r0, lsr #1
     b24:	2d2f1316 	stccs	3, cr1, [pc, #-88]!	; ad4 <_start-0x752c>
     b28:	01040200 	mrseq	r0, R12_usr
     b2c:	68062e06 	stmdavs	r6, {r1, r2, r9, sl, fp, sp}
     b30:	4d4b2f31 	stclmi	15, cr2, [fp, #-196]	; 0xffffff3c
     b34:	4b303132 	blmi	c0d004 <__bss_end__+0xc0292c>
     b38:	2f6a2f4c 	svccs	0x006a2f4c
     b3c:	022f842f 	eoreq	r8, pc, #788529152	; 0x2f000000
     b40:	01010008 	tsteq	r1, r8
     b44:	0000017f 	andeq	r0, r0, pc, ror r1
     b48:	00ca0002 	sbceq	r0, sl, r2
     b4c:	01020000 	mrseq	r0, (UNDEF: 2)
     b50:	000d0efb 	strdeq	r0, [sp], -fp
     b54:	01010101 	tsteq	r1, r1, lsl #2
     b58:	01000000 	mrseq	r0, (UNDEF: 0)
     b5c:	6d010000 	stcvs	0, cr0, [r1, #-0]
     b60:	72732d79 	rsbsvc	r2, r3, #7744	; 0x1e40
     b64:	552f0063 	strpl	r0, [pc, #-99]!	; b09 <_start-0x74f7>
     b68:	73726573 	cmnvc	r2, #482344960	; 0x1cc00000
     b6c:	6972622f 	ldmdbvs	r2!, {r0, r1, r2, r3, r5, r9, sp, lr}^
     b70:	756a6e61 	strbvc	r6, [sl, #-3681]!	; 0xe61
     b74:	65442f6e 	strbvs	r2, [r4, #-3950]	; 0xf6e
     b78:	6f746b73 	svcvs	0x00746b73
     b7c:	63732f70 	cmnvs	r3, #112, 30	; 0x1c0
     b80:	6c6f6f68 	stclvs	15, cr6, [pc], #-416	; 9e8 <_start-0x7618>
     b84:	6e69572f 	cdpvs	7, 6, cr5, cr9, cr15, {1}
     b88:	31726574 	cmncc	r2, r4, ror r5
     b8c:	2f303239 	svccs	0x00303239
     b90:	34315343 	ldrtcc	r5, [r1], #-835	; 0x343
     b94:	632f4530 	teqvs	pc, #48, 10	; 0xc000000
     b98:	30343173 	eorscc	r3, r4, r3, ror r1
     b9c:	30322d65 	eorscc	r2, r2, r5, ror #26
     ba0:	2f6e6977 	svccs	0x006e6977
     ba4:	7062696c 	rsbvc	r6, r2, ip, ror #18
     ba8:	73632f69 	cmnvc	r3, #420	; 0x1a4
     bac:	65303431 	ldrvs	r3, [r0, #-1073]!	; 0x431
     bb0:	6372732d 	cmnvs	r2, #-1275068416	; 0xb4000000
     bb4:	73552f00 	cmpvc	r5, #0, 30
     bb8:	2f737265 	svccs	0x00737265
     bbc:	61697262 	cmnvs	r9, r2, ror #4
     bc0:	6e756a6e 	vsubvs.f32	s13, s10, s29
     bc4:	7365442f 	cmnvc	r5, #788529152	; 0x2f000000
     bc8:	706f746b 	rsbvc	r7, pc, fp, ror #8
     bcc:	6863732f 	stmdavs	r3!, {r0, r1, r2, r3, r5, r8, r9, ip, sp, lr}^
     bd0:	2f6c6f6f 	svccs	0x006c6f6f
     bd4:	746e6957 	strbtvc	r6, [lr], #-2391	; 0x957
     bd8:	39317265 	ldmdbcc	r1!, {r0, r2, r5, r6, r9, ip, sp, lr}
     bdc:	432f3032 	teqmi	pc, #50	; 0x32
     be0:	30343153 	eorscc	r3, r4, r3, asr r1
     be4:	73632f45 	cmnvc	r3, #276	; 0x114
     be8:	65303431 	ldrvs	r3, [r0, #-1073]!	; 0x431
     bec:	7730322d 	ldrvc	r3, [r0, -sp, lsr #4]!
     bf0:	6c2f6e69 	stcvs	14, cr6, [pc], #-420	; a54 <_start-0x75ac>
     bf4:	69706269 	ldmdbvs	r0!, {r0, r3, r5, r6, r9, sp, lr}^
     bf8:	70670000 	rsbvc	r0, r7, r0
     bfc:	632e6f69 	teqvs	lr, #420	; 0x1a4
     c00:	00000100 	andeq	r0, r0, r0, lsl #2
     c04:	6f697067 	svcvs	0x00697067
     c08:	0200682e 	andeq	r6, r0, #3014656	; 0x2e0000
     c0c:	70720000 	rsbsvc	r0, r2, r0
     c10:	00682e69 	rsbeq	r2, r8, r9, ror #28
     c14:	00000003 	andeq	r0, r0, r3
     c18:	28020500 	stmdacs	r2, {r8, sl}
     c1c:	03000091 	movweq	r0, #145	; 0x91
     c20:	504e013e 	subpl	r0, lr, lr, lsr r1
     c24:	67210869 	strvs	r0, [r1, -r9, ror #16]!
     c28:	67676767 	strbvs	r6, [r7, -r7, ror #14]!
     c2c:	084b3267 	stmdaeq	fp, {r0, r1, r2, r5, r6, r9, ip, sp}^
     c30:	5131dc22 	teqpl	r1, r2, lsr #24
     c34:	30504e13 	subscc	r4, r0, r3, lsl lr
     c38:	135031be 	cmpne	r0, #-2147483601	; 0x8000002f
     c3c:	c0304f4d 	eorsgt	r4, r0, sp, asr #30
     c40:	0869504c 	stmdaeq	r9!, {r2, r3, r6, ip, lr}^
     c44:	67676721 	strbvs	r6, [r7, -r1, lsr #14]!
     c48:	32676767 	rsbcc	r6, r7, #27000832	; 0x19c0000
     c4c:	a421084b 	strtge	r0, [r1], #-2123	; 0x84b
     c50:	842f504c 	strthi	r5, [pc], #-76	; c58 <_start-0x73a8>
     c54:	82750369 	rsbshi	r0, r5, #-1543503871	; 0xa4000001
     c58:	4d2e0c03 	stcmi	12, cr0, [lr, #-12]!
     c5c:	4c4b4e30 	mcrrmi	14, 3, r4, fp, cr0
     c60:	696b6a4d 	stmdbvs	fp!, {r0, r2, r3, r6, r9, fp, sp, lr}^
     c64:	67672108 	strbvs	r2, [r7, -r8, lsl #2]!
     c68:	67676767 	strbvs	r6, [r7, -r7, ror #14]!
     c6c:	22084b32 	andcs	r4, r8, #51200	; 0xc800
     c70:	135130c0 	cmpne	r1, #192	; 0xc0
     c74:	0330504e 	teqeq	r0, #78	; 0x4e
     c78:	9f31ba18 	svcls	0x0031ba18
     c7c:	4d522f4c 	ldclmi	15, cr2, [r2, #-304]	; 0xfffffed0
     c80:	674b2f4e 	strbvs	r2, [fp, -lr, asr #30]
     c84:	6767684b 	strbvs	r6, [r7, -fp, asr #16]!
     c88:	2f672f4c 	svccs	0x00672f4c
     c8c:	4e4c6e4b 	cdpmi	14, 4, cr6, cr12, cr11, {2}
     c90:	4b674b2f 	blmi	19d3954 <__bss_end__+0x19c927c>
     c94:	4c676768 	stclmi	7, cr6, [r7], #-416	; 0xfffffe60
     c98:	4b2f672f 	blmi	bda95c <__bss_end__+0xbd0284>
     c9c:	2f4e4b6d 	svccs	0x004e4b6d
     ca0:	0200674b 	andeq	r6, r0, #19660800	; 0x12c0000
     ca4:	66060104 	strvs	r0, [r6], -r4, lsl #2
     ca8:	2f9f6806 	svccs	0x009f6806
     cac:	01040200 	mrseq	r0, R12_usr
     cb0:	68064a06 	stmdavs	r6, {r1, r2, r9, fp, lr}
     cb4:	4a73032f 	bmi	1cc1978 <__bss_end__+0x1cb72a0>
     cb8:	4d2e0e03 	stcmi	14, cr0, [lr, #-12]!
     cbc:	4b2f4e4c 	blmi	bd45f4 <__bss_end__+0xbc9f1c>
     cc0:	0602bcbc 			; <UNDEFINED> instruction: 0x0602bcbc
     cc4:	49010100 	stmdbmi	r1, {r8}
     cc8:	02000003 	andeq	r0, r0, #3
     ccc:	0001bd00 	andeq	fp, r1, r0, lsl #26
     cd0:	fb010200 	blx	414da <__bss_end__+0x36e02>
     cd4:	01000d0e 	tsteq	r0, lr, lsl #26
     cd8:	00010101 	andeq	r0, r1, r1, lsl #2
     cdc:	00010000 	andeq	r0, r1, r0
     ce0:	796d0100 	stmdbvc	sp!, {r8}^
     ce4:	6372732d 	cmnvs	r2, #-1275068416	; 0xb4000000
     ce8:	73552f00 	cmpvc	r5, #0, 30
     cec:	2f737265 	svccs	0x00737265
     cf0:	61697262 	cmnvs	r9, r2, ror #4
     cf4:	6e756a6e 	vsubvs.f32	s13, s10, s29
     cf8:	7365442f 	cmnvc	r5, #788529152	; 0x2f000000
     cfc:	706f746b 	rsbvc	r7, pc, fp, ror #8
     d00:	6863732f 	stmdavs	r3!, {r0, r1, r2, r3, r5, r8, r9, ip, sp, lr}^
     d04:	2f6c6f6f 	svccs	0x006c6f6f
     d08:	746e6957 	strbtvc	r6, [lr], #-2391	; 0x957
     d0c:	39317265 	ldmdbcc	r1!, {r0, r2, r5, r6, r9, ip, sp, lr}
     d10:	432f3032 	teqmi	pc, #50	; 0x32
     d14:	30343153 	eorscc	r3, r4, r3, asr r1
     d18:	73632f45 	cmnvc	r3, #276	; 0x114
     d1c:	65303431 	ldrvs	r3, [r0, #-1073]!	; 0x431
     d20:	7730322d 	ldrvc	r3, [r0, -sp, lsr #4]!
     d24:	6c2f6e69 	stcvs	14, cr6, [pc], #-420	; b88 <_start-0x7478>
     d28:	69706269 	ldmdbvs	r0!, {r0, r3, r5, r6, r9, sp, lr}^
     d2c:	3173632f 	cmncc	r3, pc, lsr #6
     d30:	2d653034 	stclcs	0, cr3, [r5, #-208]!	; 0xffffff30
     d34:	00637273 	rsbeq	r7, r3, r3, ror r2
     d38:	7273752f 	rsbsvc	r7, r3, #197132288	; 0xbc00000
     d3c:	636f6c2f 	cmnvs	pc, #12032	; 0x2f00
     d40:	432f6c61 	teqmi	pc, #24832	; 0x6100
     d44:	616c6c65 	cmnvs	ip, r5, ror #24
     d48:	72612f72 	rsbvc	r2, r1, #456	; 0x1c8
     d4c:	6f6e2d6d 	svcvs	0x006e2d6d
     d50:	652d656e 	strvs	r6, [sp, #-1390]!	; 0x56e
     d54:	2f696261 	svccs	0x00696261
     d58:	2e382e34 	mrccs	14, 1, r2, cr8, cr4, {1}
     d5c:	73632d33 	cmnvc	r3, #3264	; 0xcc0
     d60:	65303731 	ldrvs	r3, [r0, #-1841]!	; 0x731
     d64:	62696c2f 	rsbvs	r6, r9, #12032	; 0x2f00
     d68:	6363672f 	cmnvs	r3, #12320768	; 0xbc0000
     d6c:	6d72612f 	ldfvse	f6, [r2, #-188]!	; 0xffffff44
     d70:	6e6f6e2d 	cdpvs	14, 6, cr6, cr15, cr13, {1}
     d74:	61652d65 	cmnvs	r5, r5, ror #26
     d78:	342f6962 	strtcc	r6, [pc], #-2402	; d80 <_start-0x7280>
     d7c:	332e382e 	teqcc	lr, #3014656	; 0x2e0000
     d80:	636e692f 	cmnvs	lr, #770048	; 0xbc000
     d84:	6564756c 	strbvs	r7, [r4, #-1388]!	; 0x56c
     d88:	73552f00 	cmpvc	r5, #0, 30
     d8c:	2f737265 	svccs	0x00737265
     d90:	61697262 	cmnvs	r9, r2, ror #4
     d94:	6e756a6e 	vsubvs.f32	s13, s10, s29
     d98:	7365442f 	cmnvc	r5, #788529152	; 0x2f000000
     d9c:	706f746b 	rsbvc	r7, pc, fp, ror #8
     da0:	6863732f 	stmdavs	r3!, {r0, r1, r2, r3, r5, r8, r9, ip, sp, lr}^
     da4:	2f6c6f6f 	svccs	0x006c6f6f
     da8:	746e6957 	strbtvc	r6, [lr], #-2391	; 0x957
     dac:	39317265 	ldmdbcc	r1!, {r0, r2, r5, r6, r9, ip, sp, lr}
     db0:	432f3032 	teqmi	pc, #50	; 0x32
     db4:	30343153 	eorscc	r3, r4, r3, asr r1
     db8:	73632f45 	cmnvc	r3, #276	; 0x114
     dbc:	65303431 	ldrvs	r3, [r0, #-1073]!	; 0x431
     dc0:	7730322d 	ldrvc	r3, [r0, -sp, lsr #4]!
     dc4:	6c2f6e69 	stcvs	14, cr6, [pc], #-420	; c28 <_start-0x73d8>
     dc8:	69706269 	ldmdbvs	r0!, {r0, r3, r5, r6, r9, sp, lr}^
     dcc:	73552f00 	cmpvc	r5, #0, 30
     dd0:	2f737265 	svccs	0x00737265
     dd4:	61697262 	cmnvs	r9, r2, ror #4
     dd8:	6e756a6e 	vsubvs.f32	s13, s10, s29
     ddc:	7365442f 	cmnvc	r5, #788529152	; 0x2f000000
     de0:	706f746b 	rsbvc	r7, pc, fp, ror #8
     de4:	6863732f 	stmdavs	r3!, {r0, r1, r2, r3, r5, r8, r9, ip, sp, lr}^
     de8:	2f6c6f6f 	svccs	0x006c6f6f
     dec:	746e6957 	strbtvc	r6, [lr], #-2391	; 0x957
     df0:	39317265 	ldmdbcc	r1!, {r0, r2, r5, r6, r9, ip, sp, lr}
     df4:	432f3032 	teqmi	pc, #50	; 0x32
     df8:	30343153 	eorscc	r3, r4, r3, asr r1
     dfc:	73632f45 	cmnvc	r3, #276	; 0x114
     e00:	65303431 	ldrvs	r3, [r0, #-1073]!	; 0x431
     e04:	7730322d 	ldrvc	r3, [r0, -sp, lsr #4]!
     e08:	6c2f6e69 	stcvs	14, cr6, [pc], #-420	; c6c <_start-0x7394>
     e0c:	69706269 	ldmdbvs	r0!, {r0, r3, r5, r6, r9, sp, lr}^
     e10:	62696c2f 	rsbvs	r6, r9, #12032	; 0x2f00
     e14:	73000063 	movwvc	r0, #99	; 0x63
     e18:	61752d77 	cmnvs	r5, r7, ror sp
     e1c:	632e7472 	teqvs	lr, #1912602624	; 0x72000000
     e20:	00000100 	andeq	r0, r0, r0, lsl #2
     e24:	6c637963 	stclvs	9, cr7, [r3], #-396	; 0xfffffe74
     e28:	74752d65 	ldrbtvc	r2, [r5], #-3429	; 0xd65
     e2c:	682e6c69 	stmdavs	lr!, {r0, r3, r5, r6, sl, fp, sp, lr}
     e30:	00000200 	andeq	r0, r0, r0, lsl #4
     e34:	69647473 	stmdbvs	r4!, {r0, r1, r4, r5, r6, sl, ip, sp, lr}^
     e38:	672d746e 	strvs	r7, [sp, -lr, ror #8]!
     e3c:	682e6363 	stmdavs	lr!, {r0, r1, r5, r6, r8, r9, sp, lr}
     e40:	00000300 	andeq	r0, r0, r0, lsl #6
     e44:	752d7773 	strvc	r7, [sp, #-1907]!	; 0x773
     e48:	2e747261 	cdpcs	2, 7, cr7, cr4, cr1, {3}
     e4c:	00020068 	andeq	r0, r2, r8, rrx
     e50:	64747300 	ldrbtvs	r7, [r4], #-768	; 0x300
     e54:	2e677261 	cdpcs	2, 6, cr7, cr7, cr1, {3}
     e58:	00030068 	andeq	r0, r3, r8, rrx
     e5c:	69706700 	ldmdbvs	r0!, {r8, r9, sl, sp, lr}^
     e60:	00682e6f 	rsbeq	r2, r8, pc, ror #28
     e64:	72000002 	andvc	r0, r0, #2
     e68:	682e6970 	stmdavs	lr!, {r4, r5, r6, r8, fp, sp, lr}
     e6c:	00000400 	andeq	r0, r0, r0, lsl #8
     e70:	702d6176 	eorvc	r6, sp, r6, ror r1
     e74:	746e6972 	strbtvc	r6, [lr], #-2418	; 0x972
     e78:	00682e6b 	rsbeq	r2, r8, fp, ror #28
     e7c:	3c000005 	stccc	0, cr0, [r0], {5}
     e80:	6c697562 	cfstr64vs	mvdx7, [r9], #-392	; 0xfffffe78
     e84:	6e692d74 	mcrvs	13, 3, r2, cr9, cr4, {3}
     e88:	0000003e 	andeq	r0, r0, lr, lsr r0
     e8c:	05000000 	streq	r0, [r0, #-0]
     e90:	0096c802 	addseq	ip, r6, r2, lsl #16
     e94:	2f4c1a00 	svccs	0x004c1a00
     e98:	03020430 	movweq	r0, #9264	; 0x2430
     e9c:	73032e0b 	movwvc	r2, #15883	; 0x3e0b
     ea0:	88010466 	stmdahi	r1, {r1, r2, r5, r6, sl}
     ea4:	03350204 	teqeq	r5, #4, 4	; 0x40000000
     ea8:	01046673 	tsteq	r4, r3, ror r6
     eac:	3302048a 	movwcc	r0, #9354	; 0x248a
     eb0:	04667303 	strbteq	r7, [r6], #-771	; 0x303
     eb4:	820a0301 	andhi	r0, sl, #67108864	; 0x4000000
     eb8:	03310204 	teqeq	r1, #4, 4	; 0x40000000
     ebc:	01046673 	tsteq	r4, r3, ror r6
     ec0:	04820c03 	streq	r0, [r2], #3075	; 0xc03
     ec4:	73032f02 	movwvc	r2, #16130	; 0x3f02
     ec8:	03010466 	movweq	r0, #5222	; 0x1466
     ecc:	0204820e 	andeq	r8, r4, #-536870912	; 0xe0000000
     ed0:	6673032d 	ldrbtvs	r0, [r3], -sp, lsr #6
     ed4:	10030104 	andne	r0, r3, r4, lsl #2
     ed8:	2b020482 	blcs	820e8 <__bss_end__+0x77a10>
     edc:	04667303 	strbteq	r7, [r6], #-771	; 0x303
     ee0:	82120301 	andshi	r0, r2, #67108864	; 0x4000000
     ee4:	03290204 	teqeq	r9, #4, 4	; 0x40000000
     ee8:	01046673 	tsteq	r4, r3, ror r6
     eec:	04821403 	streq	r1, [r2], #1027	; 0x403
     ef0:	2e790302 	cdpcs	3, 7, cr0, cr9, cr2, {0}
     ef4:	04667303 	strbteq	r7, [r6], #-771	; 0x303
     ef8:	82160301 	andshi	r0, r6, #67108864	; 0x4000000
     efc:	77030204 	strvc	r0, [r3, -r4, lsl #4]
     f00:	6673032e 	ldrbtvs	r0, [r3], -lr, lsr #6
     f04:	18030104 	stmdane	r3, {r2, r8}
     f08:	2e100382 	cdpcs	3, 1, cr0, cr0, cr2, {4}
     f0c:	70034d4b 	andvc	r4, r3, fp, asr #26
     f10:	83844c2e 	orrhi	r4, r4, #11776	; 0x2e00
     f14:	2e0d0348 	cdpcs	3, 0, cr0, cr13, cr8, {2}
     f18:	0433314e 	ldrteq	r3, [r3], #-334	; 0x14e
     f1c:	2e480302 	cdpcs	3, 4, cr0, cr8, cr2, {0}
     f20:	3a030104 	bcc	c1338 <__bss_end__+0xb6c60>
     f24:	02042f82 	andeq	r2, r4, #520	; 0x208
     f28:	04664503 	strbteq	r4, [r6], #-1283	; 0x503
     f2c:	823d0301 	eorshi	r0, sp, #67108864	; 0x4000000
     f30:	0302042f 	movweq	r0, #9263	; 0x242f
     f34:	01048242 	tsteq	r4, r2, asr #4
     f38:	8200c003 	andhi	ip, r0, #3
     f3c:	0302042f 	movweq	r0, #9263	; 0x242f
     f40:	04827fbf 	streq	r7, [r2], #4031	; 0xfbf
     f44:	00c30301 	sbceq	r0, r3, r1, lsl #6
     f48:	02042f82 	andeq	r2, r4, #520	; 0x208
     f4c:	827fbc03 	rsbshi	fp, pc, #768	; 0x300
     f50:	c6030104 	strgt	r0, [r3], -r4, lsl #2
     f54:	042f8200 	strteq	r8, [pc], #-512	; f5c <_start-0x70a4>
     f58:	7fb90302 	svcvc	0x00b90302
     f5c:	03010482 	movweq	r0, #5250	; 0x1482
     f60:	2f8200c9 	svccs	0x008200c9
     f64:	b6030204 	strlt	r0, [r3], -r4, lsl #4
     f68:	0104827f 	tsteq	r4, pc, ror r2
     f6c:	8200cc03 	andhi	ip, r0, #768	; 0x300
     f70:	0302042f 	movweq	r0, #9263	; 0x242f
     f74:	04827fb3 	streq	r7, [r2], #4019	; 0xfb3
     f78:	00d00301 	sbcseq	r0, r0, r1, lsl #6
     f7c:	824c0382 	subhi	r0, ip, #134217730	; 0x8000002
     f80:	4883844c 	stmmi	r3, {r2, r3, r6, sl, pc}
     f84:	4e2e3603 	cfmadda32mi	mvax0, mvax3, mvfx14, mvfx3
     f88:	034a5403 	movteq	r5, #41987	; 0xa403
     f8c:	34324a29 	ldrtcc	r4, [r2], #-2601	; 0xa29
     f90:	040200bb 	streq	r0, [r2], #-187	; 0xbb
     f94:	064a0601 	strbeq	r0, [sl], -r1, lsl #12
     f98:	4b4e2108 	blmi	13893c0 <__bss_end__+0x137ece8>
     f9c:	02002cbb 	andeq	r2, r0, #47872	; 0xbb00
     fa0:	2e060104 	adfcss	f0, f6, f4
     fa4:	dc4c6d06 	mcrrle	13, 0, r6, ip, cr6
     fa8:	040200a0 	streq	r0, [r2], #-160	; 0xa0
     fac:	064a0601 	strbeq	r0, [sl], -r1, lsl #12
     fb0:	004d2108 	subeq	r2, sp, r8, lsl #2
     fb4:	4b020402 	blmi	81fc4 <__bss_end__+0x778ec>
     fb8:	02040200 	andeq	r0, r4, #0, 4
     fbc:	04020081 	streq	r0, [r2], #-129	; 0x81
     fc0:	062e0601 	strteq	r0, [lr], -r1, lsl #12
     fc4:	d8dd4c4d 	ldmle	sp, {r0, r2, r3, r6, sl, fp, lr}^
     fc8:	6a4b4b4b 	bvs	12d3cfc <__bss_end__+0x12c9624>
     fcc:	0402002f 	streq	r0, [r2], #-47	; 0x2f
     fd0:	82820601 	addhi	r0, r2, #1048576	; 0x100000
     fd4:	04040200 	streq	r0, [r4], #-512	; 0x200
     fd8:	0402009e 	streq	r0, [r2], #-158	; 0x9e
     fdc:	08064a01 	stmdaeq	r6, {r0, r9, fp, lr}
     fe0:	2ff58823 	svccs	0x00f58823
     fe4:	40084b4b 	andmi	r4, r8, fp, asr #22
     fe8:	04020067 	streq	r0, [r2], #-103	; 0x67
     fec:	02002f02 	andeq	r2, r0, #2, 30
     ff0:	00490204 	subeq	r0, r9, r4, lsl #4
     ff4:	06010402 	streq	r0, [r1], -r2, lsl #8
     ff8:	3468062e 	strbtcc	r0, [r8], #-1582	; 0x62e
     ffc:	00a04b86 	adceq	r4, r0, r6, lsl #23
    1000:	06010402 	streq	r0, [r1], -r2, lsl #8
    1004:	21080666 	tstcs	r8, r6, ror #12
    1008:	4b3e0868 	blmi	f831b0 <__bss_end__+0xf78ad8>
    100c:	02d84b67 	sbcseq	r4, r8, #105472	; 0x19c00
    1010:	0101000a 	tsteq	r1, sl
    1014:	00000101 	andeq	r0, r0, r1, lsl #2
    1018:	00ca0002 	sbceq	r0, sl, r2
    101c:	01020000 	mrseq	r0, (UNDEF: 2)
    1020:	000d0efb 	strdeq	r0, [sp], -fp
    1024:	01010101 	tsteq	r1, r1, lsl #2
    1028:	01000000 	mrseq	r0, (UNDEF: 0)
    102c:	6d010000 	stcvs	0, cr0, [r1, #-0]
    1030:	72732d79 	rsbsvc	r2, r3, #7744	; 0x1e40
    1034:	552f0063 	strpl	r0, [pc, #-99]!	; fd9 <_start-0x7027>
    1038:	73726573 	cmnvc	r2, #482344960	; 0x1cc00000
    103c:	6972622f 	ldmdbvs	r2!, {r0, r1, r2, r3, r5, r9, sp, lr}^
    1040:	756a6e61 	strbvc	r6, [sl, #-3681]!	; 0xe61
    1044:	65442f6e 	strbvs	r2, [r4, #-3950]	; 0xf6e
    1048:	6f746b73 	svcvs	0x00746b73
    104c:	63732f70 	cmnvs	r3, #112, 30	; 0x1c0
    1050:	6c6f6f68 	stclvs	15, cr6, [pc], #-416	; eb8 <_start-0x7148>
    1054:	6e69572f 	cdpvs	7, 6, cr5, cr9, cr15, {1}
    1058:	31726574 	cmncc	r2, r4, ror r5
    105c:	2f303239 	svccs	0x00303239
    1060:	34315343 	ldrtcc	r5, [r1], #-835	; 0x343
    1064:	632f4530 	teqvs	pc, #48, 10	; 0xc000000
    1068:	30343173 	eorscc	r3, r4, r3, ror r1
    106c:	30322d65 	eorscc	r2, r2, r5, ror #26
    1070:	2f6e6977 	svccs	0x006e6977
    1074:	7062696c 	rsbvc	r6, r2, ip, ror #18
    1078:	73632f69 	cmnvc	r3, #420	; 0x1a4
    107c:	65303431 	ldrvs	r3, [r0, #-1073]!	; 0x431
    1080:	6372732d 	cmnvs	r2, #-1275068416	; 0xb4000000
    1084:	73552f00 	cmpvc	r5, #0, 30
    1088:	2f737265 	svccs	0x00737265
    108c:	61697262 	cmnvs	r9, r2, ror #4
    1090:	6e756a6e 	vsubvs.f32	s13, s10, s29
    1094:	7365442f 	cmnvc	r5, #788529152	; 0x2f000000
    1098:	706f746b 	rsbvc	r7, pc, fp, ror #8
    109c:	6863732f 	stmdavs	r3!, {r0, r1, r2, r3, r5, r8, r9, ip, sp, lr}^
    10a0:	2f6c6f6f 	svccs	0x006c6f6f
    10a4:	746e6957 	strbtvc	r6, [lr], #-2391	; 0x957
    10a8:	39317265 	ldmdbcc	r1!, {r0, r2, r5, r6, r9, ip, sp, lr}
    10ac:	432f3032 	teqmi	pc, #50	; 0x32
    10b0:	30343153 	eorscc	r3, r4, r3, asr r1
    10b4:	73632f45 	cmnvc	r3, #276	; 0x114
    10b8:	65303431 	ldrvs	r3, [r0, #-1073]!	; 0x431
    10bc:	7730322d 	ldrvc	r3, [r0, -sp, lsr #4]!
    10c0:	6c2f6e69 	stcvs	14, cr6, [pc], #-420	; f24 <_start-0x70dc>
    10c4:	69706269 	ldmdbvs	r0!, {r0, r3, r5, r6, r9, sp, lr}^
    10c8:	61750000 	cmnvs	r5, r0
    10cc:	632e7472 	teqvs	lr, #1912602624	; 0x72000000
    10d0:	00000100 	andeq	r0, r0, r0, lsl #2
    10d4:	6f697067 	svcvs	0x00697067
    10d8:	0200682e 	andeq	r6, r0, #3014656	; 0x2e0000
    10dc:	70720000 	rsbsvc	r0, r2, r0
    10e0:	00682e69 	rsbeq	r2, r8, r9, ror #28
    10e4:	00000003 	andeq	r0, r0, r3
    10e8:	30020500 	andcc	r0, r2, r0, lsl #10
    10ec:	0300009d 	movweq	r0, #157	; 0x9d
    10f0:	33300136 	teqcc	r0, #-2147483635	; 0x8000000d
    10f4:	d8306d67 	ldmdale	r0!, {r0, r1, r2, r5, r6, r8, sl, fp, sp, lr}
    10f8:	67676730 			; <UNDEFINED> instruction: 0x67676730
    10fc:	86686767 	strbthi	r6, [r8], -r7, ror #14
    1100:	306a672f 	rsbcc	r6, sl, pc, lsr #14
    1104:	2f696767 	svccs	0x00696767
    1108:	674c6a67 	strbvs	r6, [ip, -r7, ror #20]
    110c:	302f2fc1 	eorcc	r2, pc, r1, asr #31
    1110:	3049682f 	subcc	r6, r9, pc, lsr #16
    1114:	01000202 	tsteq	r0, r2, lsl #4
    1118:	00012801 	andeq	r2, r1, r1, lsl #16
    111c:	0d000200 	sfmeq	f0, 4, [r0, #-0]
    1120:	02000001 	andeq	r0, r0, #1
    1124:	0d0efb01 	vstreq	d15, [lr, #-4]
    1128:	01010100 	mrseq	r0, (UNDEF: 17)
    112c:	00000001 	andeq	r0, r0, r1
    1130:	01000001 	tsteq	r0, r1
    1134:	34317363 	ldrtcc	r7, [r1], #-867	; 0x363
    1138:	732d6530 	teqvc	sp, #48, 10	; 0xc000000
    113c:	2f006372 	svccs	0x00006372
    1140:	2f727375 	svccs	0x00727375
    1144:	61636f6c 	cmnvs	r3, ip, ror #30
    1148:	65432f6c 	strbvs	r2, [r3, #-3948]	; 0xf6c
    114c:	72616c6c 	rsbvc	r6, r1, #108, 24	; 0x6c00
    1150:	6d72612f 	ldfvse	f6, [r2, #-188]!	; 0xffffff44
    1154:	6e6f6e2d 	cdpvs	14, 6, cr6, cr15, cr13, {1}
    1158:	61652d65 	cmnvs	r5, r5, ror #26
    115c:	342f6962 	strtcc	r6, [pc], #-2402	; 1164 <_start-0x6e9c>
    1160:	332e382e 	teqcc	lr, #3014656	; 0x2e0000
    1164:	3173632d 	cmncc	r3, sp, lsr #6
    1168:	2f653037 	svccs	0x00653037
    116c:	2f62696c 	svccs	0x0062696c
    1170:	2f636367 	svccs	0x00636367
    1174:	2d6d7261 	sfmcs	f7, 2, [sp, #-388]!	; 0xfffffe7c
    1178:	656e6f6e 	strbvs	r6, [lr, #-3950]!	; 0xf6e
    117c:	6261652d 	rsbvs	r6, r1, #188743680	; 0xb400000
    1180:	2e342f69 	cdpcs	15, 3, cr2, cr4, cr9, {3}
    1184:	2f332e38 	svccs	0x00332e38
    1188:	6c636e69 	stclvs	14, cr6, [r3], #-420	; 0xfffffe5c
    118c:	00656475 	rsbeq	r6, r5, r5, ror r4
    1190:	7273752f 	rsbsvc	r7, r3, #197132288	; 0xbc00000
    1194:	636f6c2f 	cmnvs	pc, #12032	; 0x2f00
    1198:	432f6c61 	teqmi	pc, #24832	; 0x6100
    119c:	616c6c65 	cmnvs	ip, r5, ror #24
    11a0:	72612f72 	rsbvc	r2, r1, #456	; 0x1c8
    11a4:	6f6e2d6d 	svcvs	0x006e2d6d
    11a8:	652d656e 	strvs	r6, [sp, #-1390]!	; 0x56e
    11ac:	2f696261 	svccs	0x00696261
    11b0:	2e382e34 	mrccs	14, 1, r2, cr8, cr4, {1}
    11b4:	73632d33 	cmnvc	r3, #3264	; 0xcc0
    11b8:	65303731 	ldrvs	r3, [r0, #-1841]!	; 0x731
    11bc:	6d72612f 	ldfvse	f6, [r2, #-188]!	; 0xffffff44
    11c0:	6e6f6e2d 	cdpvs	14, 6, cr6, cr15, cr13, {1}
    11c4:	61652d65 	cmnvs	r5, r5, ror #26
    11c8:	692f6962 	stmdbvs	pc!, {r1, r5, r6, r8, fp, sp, lr}	; <UNPREDICTABLE>
    11cc:	756c636e 	strbvc	r6, [ip, #-878]!	; 0x36e
    11d0:	00006564 	andeq	r6, r0, r4, ror #10
    11d4:	746e6f63 	strbtvc	r6, [lr], #-3939	; 0xf63
    11d8:	2d6c6f72 	stclcs	15, cr6, [ip, #-456]!	; 0xfffffe38
    11dc:	636f6c62 	cmnvs	pc, #25088	; 0x6200
    11e0:	00632e6b 	rsbeq	r2, r3, fp, ror #28
    11e4:	73000001 	movwvc	r0, #1
    11e8:	65646474 	strbvs	r6, [r4, #-1140]!	; 0x474
    11ec:	00682e66 	rsbeq	r2, r8, r6, ror #28
    11f0:	73000002 	movwvc	r0, #2
    11f4:	6e696474 	mcrvs	4, 3, r6, cr9, cr4, {3}
    11f8:	63672d74 	cmnvs	r7, #116, 26	; 0x1d00
    11fc:	00682e63 	rsbeq	r2, r8, r3, ror #28
    1200:	73000002 	movwvc	r0, #2
    1204:	61752d77 	cmnvs	r5, r7, ror sp
    1208:	682e7472 	stmdavs	lr!, {r1, r4, r5, r6, sl, ip, sp, lr}
    120c:	00000100 	andeq	r0, r0, r0, lsl #2
    1210:	746e6f63 	strbtvc	r6, [lr], #-3939	; 0xf63
    1214:	2d6c6f72 	stclcs	15, cr6, [ip, #-456]!	; 0xfffffe38
    1218:	636f6c62 	cmnvs	pc, #25088	; 0x6200
    121c:	00682e6b 	rsbeq	r2, r8, fp, ror #28
    1220:	73000001 	movwvc	r0, #1
    1224:	6e697274 	mcrvs	2, 3, r7, cr9, cr4, {3}
    1228:	00682e67 	rsbeq	r2, r8, r7, ror #28
    122c:	00000003 	andeq	r0, r0, r3
    1230:	e8020500 	stmda	r2, {r8, sl}
    1234:	1600009e 			; <UNDEFINED> instruction: 0x1600009e
    1238:	4c688330 	stclmi	3, cr8, [r8], #-192	; 0xffffff40
    123c:	2f4b9f14 	svccs	0x004b9f14
    1240:	01000402 	tsteq	r0, r2, lsl #8
    1244:	0000ec01 	andeq	lr, r0, r1, lsl #24
    1248:	d0000200 	andle	r0, r0, r0, lsl #4
    124c:	02000000 	andeq	r0, r0, #0
    1250:	0d0efb01 	vstreq	d15, [lr, #-4]
    1254:	01010100 	mrseq	r0, (UNDEF: 17)
    1258:	00000001 	andeq	r0, r0, r1
    125c:	01000001 	tsteq	r0, r1
    1260:	6362696c 	cmnvs	r2, #108, 18	; 0x1b0000
    1264:	73752f00 	cmnvc	r5, #0, 30
    1268:	6f6c2f72 	svcvs	0x006c2f72
    126c:	2f6c6163 	svccs	0x006c6163
    1270:	6c6c6543 	cfstr64vs	mvdx6, [ip], #-268	; 0xfffffef4
    1274:	612f7261 	teqvs	pc, r1, ror #4
    1278:	6e2d6d72 	mcrvs	13, 1, r6, cr13, cr2, {3}
    127c:	2d656e6f 	stclcs	14, cr6, [r5, #-444]!	; 0xfffffe44
    1280:	69626165 	stmdbvs	r2!, {r0, r2, r5, r6, r8, sp, lr}^
    1284:	382e342f 	stmdacc	lr!, {r0, r1, r2, r3, r5, sl, ip, sp}
    1288:	632d332e 	teqvs	sp, #-1207959552	; 0xb8000000
    128c:	30373173 	eorscc	r3, r7, r3, ror r1
    1290:	696c2f65 	stmdbvs	ip!, {r0, r2, r5, r6, r8, r9, sl, fp, sp}^
    1294:	63672f62 	cmnvs	r7, #392	; 0x188
    1298:	72612f63 	rsbvc	r2, r1, #396	; 0x18c
    129c:	6f6e2d6d 	svcvs	0x006e2d6d
    12a0:	652d656e 	strvs	r6, [sp, #-1390]!	; 0x56e
    12a4:	2f696261 	svccs	0x00696261
    12a8:	2e382e34 	mrccs	14, 1, r2, cr8, cr4, {1}
    12ac:	6e692f33 	mcrvs	15, 3, r2, cr9, cr3, {1}
    12b0:	64756c63 	ldrbtvs	r6, [r5], #-3171	; 0xc63
    12b4:	752f0065 	strvc	r0, [pc, #-101]!	; 1257 <_start-0x6da9>
    12b8:	6c2f7273 	sfmvs	f7, 4, [pc], #-460	; 10f4 <_start-0x6f0c>
    12bc:	6c61636f 	stclvs	3, cr6, [r1], #-444	; 0xfffffe44
    12c0:	6c65432f 	stclvs	3, cr4, [r5], #-188	; 0xffffff44
    12c4:	2f72616c 	svccs	0x0072616c
    12c8:	2d6d7261 	sfmcs	f7, 2, [sp, #-388]!	; 0xfffffe7c
    12cc:	656e6f6e 	strbvs	r6, [lr, #-3950]!	; 0xf6e
    12d0:	6261652d 	rsbvs	r6, r1, #188743680	; 0xb400000
    12d4:	2e342f69 	cdpcs	15, 3, cr2, cr4, cr9, {3}
    12d8:	2d332e38 	ldccs	14, cr2, [r3, #-224]!	; 0xffffff20
    12dc:	37317363 	ldrcc	r7, [r1, -r3, ror #6]!
    12e0:	612f6530 	teqvs	pc, r0, lsr r5	; <UNPREDICTABLE>
    12e4:	6e2d6d72 	mcrvs	13, 1, r6, cr13, cr2, {3}
    12e8:	2d656e6f 	stclcs	14, cr6, [r5, #-444]!	; 0xfffffe44
    12ec:	69626165 	stmdbvs	r2!, {r0, r2, r5, r6, r8, sp, lr}^
    12f0:	636e692f 	cmnvs	lr, #770048	; 0xbc000
    12f4:	6564756c 	strbvs	r7, [r4, #-1388]!	; 0x56c
    12f8:	656d0000 	strbvs	r0, [sp, #-0]!
    12fc:	7465736d 	strbtvc	r7, [r5], #-877	; 0x36d
    1300:	0100632e 	tsteq	r0, lr, lsr #6
    1304:	74730000 	ldrbtvc	r0, [r3], #-0
    1308:	66656464 	strbtvs	r6, [r5], -r4, ror #8
    130c:	0200682e 	andeq	r6, r0, #3014656	; 0x2e0000
    1310:	74730000 	ldrbtvc	r0, [r3], #-0
    1314:	676e6972 			; <UNDEFINED> instruction: 0x676e6972
    1318:	0300682e 	movweq	r6, #2094	; 0x82e
    131c:	00000000 	andeq	r0, r0, r0
    1320:	9f380205 	svcls	0x00380205
    1324:	13140000 	tstne	r4, #0
    1328:	02002f4c 	andeq	r2, r0, #76, 30	; 0x130
    132c:	4d490104 	stfmie	f0, [r9, #-16]
    1330:	01000202 	tsteq	r0, r2, lsl #4
    1334:	Address 0x0000000000001334 is out of bounds.


Disassembly of section .debug_str:

00000000 <.debug_str>:
   0:	6f697067 	svcvs	0x00697067
   4:	7465735f 	strbtvc	r7, [r5], #-863	; 0x35f
   8:	69660030 	stmdbvs	r6!, {r4, r5}^
   c:	00747372 	rsbseq	r7, r4, r2, ror r3
  10:	6f697067 	svcvs	0x00697067
  14:	6573665f 	ldrbvs	r6, [r3, #-1631]!	; 0x65f
  18:	2f00306c 	svccs	0x0000306c
  1c:	72657355 	rsbvc	r7, r5, #1409286145	; 0x54000001
  20:	72622f73 	rsbvc	r2, r2, #460	; 0x1cc
  24:	6a6e6169 	bvs	1b985d0 <__bss_end__+0x1b8def8>
  28:	442f6e75 	strtmi	r6, [pc], #-3701	; 30 <_start-0x7fd0>
  2c:	746b7365 	strbtvc	r7, [fp], #-869	; 0x365
  30:	732f706f 	teqvc	pc, #111	; 0x6f
  34:	6f6f6863 	svcvs	0x006f6863
  38:	70532f6c 	subsvc	r2, r3, ip, ror #30
  3c:	676e6972 			; <UNDEFINED> instruction: 0x676e6972
  40:	30323931 	eorscc	r3, r2, r1, lsr r9
  44:	3253432f 	subscc	r4, r3, #-1140850688	; 0xbc000000
  48:	584c3034 	stmdapl	ip, {r2, r4, r5, ip, sp}^
  4c:	3273632f 	rsbscc	r6, r3, #-1140850688	; 0xbc000000
  50:	786c3034 	stmdavc	ip!, {r2, r4, r5, ip, sp}^
  54:	7330322d 	teqvc	r0, #-805306366	; 0xd0000002
  58:	6c2f7270 	sfmvs	f7, 4, [pc], #-448	; fffffea0 <__bss_end__+0xffff57c8>
  5c:	2f736261 	svccs	0x00736261
  60:	61752d34 	cmnvs	r5, r4, lsr sp
  64:	382d7472 	stmdacc	sp!, {r1, r4, r5, r6, sl, ip, sp, lr}
  68:	742f316e 	strtvc	r3, [pc], #-366	; 70 <_start-0x7f90>
  6c:	2d747365 	ldclcs	3, cr7, [r4, #-404]!	; 0xfffffe6c
  70:	006e6567 	rsbeq	r6, lr, r7, ror #10
  74:	74736574 	ldrbtvc	r6, [r3], #-1396	; 0x574
  78:	6e65675f 	mcrvs	7, 3, r6, cr5, cr15, {2}
  7c:	73657400 	cmnvc	r5, #0, 8
  80:	65672d74 	strbvs	r2, [r7, #-3444]!	; 0xd74
  84:	00632e6e 	rsbeq	r2, r3, lr, ror #28
  88:	4c435047 	mcrrmi	0, 4, r5, r3, cr7
  8c:	73003152 	movwvc	r3, #338	; 0x152
  90:	65706f63 	ldrbvs	r6, [r0, #-3939]!	; 0xf63
  94:	746f6e00 	strbtvc	r6, [pc], #-3584	; 9c <_start-0x7f64>
  98:	6e69616d 	powvsez	f6, f1, #5.0
  9c:	4c504700 	mrrcmi	7, 0, r4, r0, cr0
  a0:	00315645 	eorseq	r5, r1, r5, asr #12
  a4:	74736166 	ldrbtvc	r6, [r3], #-358	; 0x166
  a8:	6970675f 	ldmdbvs	r0!, {r0, r1, r2, r3, r4, r6, r8, r9, sl, sp, lr}^
  ac:	65735f6f 	ldrbvs	r5, [r3, #-3951]!	; 0xf6f
  b0:	6e6f5f74 	mcrvs	15, 3, r5, cr15, cr4, {3}
  b4:	736e7500 	cmnvc	lr, #0, 10
  b8:	656e6769 	strbvs	r6, [lr, #-1897]!	; 0x769
  bc:	68632064 	stmdavs	r3!, {r2, r5, r6, sp}^
  c0:	64007261 	strvs	r7, [r0], #-609	; 0x261
  c4:	79616c65 	stmdbvc	r1!, {r0, r2, r5, r6, sl, fp, sp, lr}^
  c8:	00736d5f 	rsbseq	r6, r3, pc, asr sp
  cc:	61656c63 	cmnvs	r5, r3, ror #24
  d0:	65725f6e 	ldrbvs	r5, [r2, #-3950]!	; 0xf6e
  d4:	746f6f62 	strbtvc	r6, [pc], #-3938	; dc <_start-0x7f24>
  d8:	53504700 	cmppl	r0, #0, 14
  dc:	00315445 	eorseq	r5, r1, r5, asr #8
  e0:	4c435047 	mcrrmi	0, 4, r5, r3, cr7
  e4:	73003052 	movwvc	r3, #82	; 0x52
  e8:	74726f68 	ldrbtvc	r6, [r2], #-3944	; 0xf68
  ec:	736e7520 	cmnvc	lr, #32, 10	; 0x8000000
  f0:	656e6769 	strbvs	r6, [lr, #-1897]!	; 0x769
  f4:	6e692064 	cdpvs	0, 6, cr2, cr9, cr4, {3}
  f8:	70670074 	rsbvc	r0, r7, r4, ror r0
  fc:	735f6f69 	cmpvc	pc, #420	; 0x1a4
 100:	695f7465 	ldmdbvs	pc, {r0, r2, r5, r6, sl, ip, sp, lr}^	; <UNPREDICTABLE>
 104:	7475706e 	ldrbtvc	r7, [r5], #-110	; 0x6e
 108:	53504700 	cmppl	r0, #0, 14
 10c:	00305445 	eorseq	r5, r0, r5, asr #8
 110:	76726573 			; <UNDEFINED> instruction: 0x76726573
 114:	47007265 	strmi	r7, [r0, -r5, ror #4]
 118:	45534650 	ldrbmi	r4, [r3, #-1616]	; 0x650
 11c:	6700304c 	strvs	r3, [r0, -ip, asr #32]
 120:	5f6f6970 	svcpl	0x006f6970
 124:	5f746573 	svcpl	0x00746573
 128:	7074756f 	rsbsvc	r7, r4, pc, ror #10
 12c:	47007475 	smlsdxmi	r0, r5, r4, r7
 130:	45534650 	ldrbmi	r4, [r3, #-1616]	; 0x650
 134:	6300314c 	movwvs	r3, #332	; 0x14c
 138:	5f727275 	svcpl	0x00727275
 13c:	756c6176 	strbvc	r6, [ip, #-374]!	; 0x176
 140:	68730065 	ldmdavs	r3!, {r0, r2, r5, r6}^
 144:	2074726f 	rsbscs	r7, r4, pc, ror #4
 148:	00746e69 	rsbseq	r6, r4, r9, ror #28
 14c:	55465f5f 	strbpl	r5, [r6, #-3935]	; 0xf5f
 150:	4954434e 	ldmdbmi	r4, {r1, r2, r3, r6, r8, r9, lr}^
 154:	5f5f4e4f 	svcpl	0x005f4e4f
 158:	63796300 	cmnvs	r9, #0, 6
 15c:	5f73656c 	svcpl	0x0073656c
 160:	5f726570 	svcpl	0x00726570
 164:	00636573 	rsbeq	r6, r3, r3, ror r5
 168:	676e6f6c 	strbvs	r6, [lr, -ip, ror #30]!
 16c:	6e6f6c20 	cdpvs	12, 6, cr6, cr15, cr0, {1}
 170:	6e752067 	cdpvs	0, 7, cr2, cr5, cr7, {3}
 174:	6e676973 	mcrvs	9, 3, r6, cr7, cr3, {3}
 178:	69206465 	stmdbvs	r0!, {r0, r2, r5, r6, sl, sp, lr}
 17c:	7500746e 	strvc	r7, [r0, #-1134]	; 0x46e
 180:	38746e69 	ldmdacc	r4!, {r0, r3, r5, r6, r9, sl, fp, sp, lr}^
 184:	6c00745f 	cfstrsvs	mvf7, [r0], {95}	; 0x5f
 188:	00747361 	rsbseq	r7, r4, r1, ror #6
 18c:	74736166 	ldrbtvc	r6, [r3], #-358	; 0x166
 190:	6970675f 	ldmdbvs	r0!, {r0, r1, r2, r3, r4, r6, r8, r9, sl, sp, lr}^
 194:	72775f6f 	rsbsvc	r5, r7, #444	; 0x1bc
 198:	00657469 	rsbeq	r7, r5, r9, ror #8
 19c:	657a6973 	ldrbvs	r6, [sl, #-2419]!	; 0x973
 1a0:	65707974 	ldrbvs	r7, [r0, #-2420]!	; 0x974
 1a4:	6e6f6c00 	cdpvs	12, 6, cr6, cr15, cr0, {0}
 1a8:	6f6c2067 	svcvs	0x006c2067
 1ac:	6920676e 	stmdbvs	r0!, {r1, r2, r3, r5, r6, r8, r9, sl, sp, lr}
 1b0:	6600746e 	strvs	r7, [r0], -lr, ror #8
 1b4:	5f747361 	svcpl	0x00747361
 1b8:	6f697067 	svcvs	0x00697067
 1bc:	7465735f 	strbtvc	r7, [r5], #-863	; 0x35f
 1c0:	66666f5f 	uqsaxvs	r6, r6, pc	; <UNPREDICTABLE>
 1c4:	756f5f00 	strbvc	r5, [pc, #-3840]!	; fffff2cc <__bss_end__+0xffff4bf4>
 1c8:	4e470074 	mcrmi	0, 2, r0, cr7, cr4, {3}
 1cc:	20432055 	subcs	r2, r3, r5, asr r0
 1d0:	2e382e34 	mrccs	14, 1, r2, cr8, cr4, {1}
 1d4:	6d2d2033 	stcvs	0, cr2, [sp, #-204]!	; 0xffffff34
 1d8:	3d757063 	ldclcc	0, cr7, [r5, #-396]!	; 0xfffffe74
 1dc:	316d7261 	cmncc	sp, r1, ror #4
 1e0:	6a363731 	bvs	d8deac <__bss_end__+0xd837d4>
 1e4:	732d667a 	teqvc	sp, #127926272	; 0x7a00000
 1e8:	746d2d20 	strbtvc	r2, [sp], #-3360	; 0xd20
 1ec:	3d656e75 	stclcc	14, cr6, [r5, #-468]!	; 0xfffffe2c
 1f0:	316d7261 	cmncc	sp, r1, ror #4
 1f4:	6a363731 	bvs	d8dec0 <__bss_end__+0xd837e8>
 1f8:	732d667a 	teqvc	sp, #127926272	; 0x7a00000
 1fc:	67672d20 	strbvs	r2, [r7, -r0, lsr #26]!
 200:	2d206264 	sfmcs	f6, 4, [r0, #-400]!	; 0xfffffe70
 204:	2d20334f 	stccs	3, cr3, [r0, #-316]!	; 0xfffffec4
 208:	3d647473 	cfstrdcc	mvd7, [r4, #-460]!	; 0xfffffe34
 20c:	39756e67 	ldmdbcc	r5!, {r0, r1, r2, r5, r6, r9, sl, fp, sp, lr}^
 210:	662d2039 			; <UNDEFINED> instruction: 0x662d2039
 214:	65657266 	strbvs	r7, [r5, #-614]!	; 0x266
 218:	6e617473 	mcrvs	4, 3, r7, cr1, cr3, {3}
 21c:	676e6964 	strbvs	r6, [lr, -r4, ror #18]!
 220:	69706700 	ldmdbvs	r0!, {r8, r9, sl, sp, lr}^
 224:	6c635f6f 	stclvs	15, cr5, [r3], #-444	; 0xfffffe44
 228:	74003072 	strvc	r3, [r0], #-114	; 0x72
 22c:	00706d65 	rsbseq	r6, r0, r5, ror #26
 230:	62616e65 	rsbvs	r6, r1, #1616	; 0x650
 234:	635f656c 	cmpvs	pc, #108, 10	; 0x1b000000
 238:	65686361 	strbvs	r6, [r8, #-865]!	; 0x361
 23c:	79636e00 	stmdbvc	r3!, {r9, sl, fp, sp, lr}^
 240:	00656c63 	rsbeq	r6, r5, r3, ror #24
 244:	5f697072 	svcpl	0x00697072
 248:	65736572 	ldrbvs	r6, [r3, #-1394]!	; 0x572
 24c:	75705f74 	ldrbvc	r5, [r0, #-3956]!	; 0xf74
 250:	47006374 	smlsdxmi	r0, r4, r3, r6
 254:	56454c50 			; <UNDEFINED> instruction: 0x56454c50
 258:	50470030 	subpl	r0, r7, r0, lsr r0
 25c:	4c455346 	mcrrmi	3, 4, r5, r5, cr6
 260:	50470032 	subpl	r0, r7, r2, lsr r0
 264:	4c455346 	mcrrmi	3, 4, r5, r5, cr6
 268:	50470033 	subpl	r0, r7, r3, lsr r0
 26c:	4c455346 	mcrrmi	3, 4, r5, r5, cr6
 270:	50470034 	subpl	r0, r7, r4, lsr r0
 274:	4c455346 	mcrrmi	3, 4, r5, r5, cr6
 278:	5f5f0035 	svcpl	0x005f0035
 27c:	63756e67 	cmnvs	r5, #1648	; 0x670
 280:	5f61765f 	svcpl	0x0061765f
 284:	7473696c 	ldrbtvc	r6, [r3], #-2412	; 0x96c
 288:	62696c00 	rsbvs	r6, r9, #0, 24
 28c:	72702f63 	rsbsvc	r2, r0, #396	; 0x18c
 290:	6b746e69 	blvs	1d1bc3c <__bss_end__+0x1d11564>
 294:	4700632e 	strmi	r6, [r0, -lr, lsr #6]
 298:	4320554e 	teqmi	r0, #327155712	; 0x13800000
 29c:	382e3420 	stmdacc	lr!, {r5, sl, ip, sp}
 2a0:	2d20332e 	stccs	3, cr3, [r0, #-184]!	; 0xffffff48
 2a4:	7570636d 	ldrbvc	r6, [r0, #-877]!	; 0x36d
 2a8:	6d72613d 	ldfvse	f6, [r2, #-244]!	; 0xffffff0c
 2ac:	36373131 			; <UNDEFINED> instruction: 0x36373131
 2b0:	2d667a6a 	vstmdbcs	r6!, {s15-s120}
 2b4:	6d2d2073 	stcvs	0, cr2, [sp, #-460]!	; 0xfffffe34
 2b8:	656e7574 	strbvs	r7, [lr, #-1396]!	; 0x574
 2bc:	6d72613d 	ldfvse	f6, [r2, #-244]!	; 0xffffff0c
 2c0:	36373131 			; <UNDEFINED> instruction: 0x36373131
 2c4:	2d667a6a 	vstmdbcs	r6!, {s15-s120}
 2c8:	672d2073 			; <UNDEFINED> instruction: 0x672d2073
 2cc:	20626467 	rsbcs	r6, r2, r7, ror #8
 2d0:	20674f2d 	rsbcs	r4, r7, sp, lsr #30
 2d4:	6474732d 	ldrbtvs	r7, [r4], #-813	; 0x32d
 2d8:	756e673d 	strbvc	r6, [lr, #-1853]!	; 0x73d
 2dc:	2d203939 	stccs	9, cr3, [r0, #-228]!	; 0xffffff1c
 2e0:	65726666 	ldrbvs	r6, [r2, #-1638]!	; 0x666
 2e4:	61747365 	cmnvs	r4, r5, ror #6
 2e8:	6e69646e 	cdpvs	4, 6, cr6, cr9, cr14, {3}
 2ec:	61760067 	cmnvs	r6, r7, rrx
 2f0:	6972705f 	ldmdbvs	r2!, {r0, r1, r2, r3, r4, r6, ip, sp, lr}^
 2f4:	006b746e 	rsbeq	r7, fp, lr, ror #8
 2f8:	61765f5f 	cmnvs	r6, pc, asr pc
 2fc:	73696c5f 	cmnvc	r9, #24320	; 0x5f00
 300:	552f0074 	strpl	r0, [pc, #-116]!	; 294 <_start-0x7d6c>
 304:	73726573 	cmnvc	r2, #482344960	; 0x1cc00000
 308:	6972622f 	ldmdbvs	r2!, {r0, r1, r2, r3, r5, r9, sp, lr}^
 30c:	756a6e61 	strbvc	r6, [sl, #-3681]!	; 0xe61
 310:	65442f6e 	strbvs	r2, [r4, #-3950]	; 0xf6e
 314:	6f746b73 	svcvs	0x00746b73
 318:	63732f70 	cmnvs	r3, #112, 30	; 0x1c0
 31c:	6c6f6f68 	stclvs	15, cr6, [pc], #-416	; 184 <_start-0x7e7c>
 320:	6e69572f 	cdpvs	7, 6, cr5, cr9, cr15, {1}
 324:	31726574 	cmncc	r2, r4, ror r5
 328:	2f303239 	svccs	0x00303239
 32c:	34315343 	ldrtcc	r5, [r1], #-835	; 0x343
 330:	632f4530 	teqvs	pc, #48, 10	; 0xc000000
 334:	30343173 	eorscc	r3, r4, r3, ror r1
 338:	30322d65 	eorscc	r2, r2, r5, ror #26
 33c:	2f6e6977 	svccs	0x006e6977
 340:	7062696c 	rsbvc	r6, r2, ip, ror #18
 344:	72610069 	rsbvc	r0, r1, #105	; 0x69
 348:	5f007367 	svcpl	0x00007367
 34c:	0070615f 	rsbseq	r6, r0, pc, asr r1
 350:	65746e69 	ldrbvs	r6, [r4, #-3689]!	; 0xe69
 354:	6c616e72 	stclvs	14, cr6, [r1], #-456	; 0xfffffe38
 358:	7475705f 	ldrbtvc	r7, [r5], #-95	; 0x5f
 35c:	72616863 	rsbvc	r6, r1, #6488064	; 0x630000
 360:	69707200 	ldmdbvs	r0!, {r9, ip, sp, lr}^
 364:	7475705f 	ldrbtvc	r7, [r5], #-95	; 0x5f
 368:	72616863 	rsbvc	r6, r1, #6488064	; 0x630000
 36c:	62696c00 	rsbvs	r6, r9, #0, 24
 370:	75702f63 	ldrbvc	r2, [r0, #-3939]!	; 0xf63
 374:	61686374 	smcvs	34356	; 0x8634
 378:	00632e72 	rsbeq	r2, r3, r2, ror lr
 37c:	5f697072 	svcpl	0x00697072
 380:	5f746573 	svcpl	0x00746573
 384:	63747570 	cmnvs	r4, #112, 10	; 0x1c000000
 388:	62696c00 	rsbvs	r6, r9, #0, 24
 38c:	75702f63 	ldrbvc	r2, [r0, #-3939]!	; 0xf63
 390:	632e6b74 	teqvs	lr, #116, 22	; 0x1d000
 394:	746e6900 	strbtvc	r6, [lr], #-2304	; 0x900
 398:	616e7265 	cmnvs	lr, r5, ror #4
 39c:	75705f6c 	ldrbvc	r5, [r0, #-3948]!	; 0xf6c
 3a0:	6e006b74 	vmovvs.16	d0[1], r6
 3a4:	705f6765 	subsvc	r6, pc, r5, ror #14
 3a8:	76657200 	strbtvc	r7, [r5], -r0, lsl #4
 3ac:	65737265 	ldrbvs	r7, [r3, #-613]!	; 0x265
 3b0:	64736900 	ldrbtvs	r6, [r3], #-2304	; 0x900
 3b4:	74696769 	strbtvc	r6, [r9], #-1897	; 0x769
 3b8:	74757000 	ldrbtvc	r7, [r5], #-0
 3bc:	70665f73 	rsbvc	r5, r6, r3, ror pc
 3c0:	73616200 	cmnvc	r1, #0, 4
 3c4:	69730065 	ldmdbvs	r3!, {r0, r2, r5, r6}^
 3c8:	64656e67 	strbtvs	r6, [r5], #-3687	; 0xe67
 3cc:	6c00705f 	stcvs	0, cr7, [r0], {95}	; 0x5f
 3d0:	2f636269 	svccs	0x00636269
 3d4:	702d6176 	eorvc	r6, sp, r6, ror r1
 3d8:	746e6972 	strbtvc	r6, [lr], #-2418	; 0x972
 3dc:	00632e6b 	rsbeq	r2, r3, fp, ror #28
 3e0:	5f697072 	svcpl	0x00697072
 3e4:	5f746573 	svcpl	0x00746573
 3e8:	7074756f 	rsbsvc	r7, r4, pc, ror #10
 3ec:	77007475 	smlsdxvc	r0, r5, r4, r7
 3f0:	68746469 	ldmdavs	r4!, {r0, r3, r5, r6, sl, sp, lr}^
 3f4:	74757000 	ldrbtvc	r7, [r5], #-0
 3f8:	70665f63 	rsbvc	r5, r6, r3, ror #30
 3fc:	696d6500 	stmdbvs	sp!, {r8, sl, sp, lr}^
 400:	69640074 	stmdbvs	r4!, {r2, r4, r5, r6}^
 404:	6c626173 	stfvse	f6, [r2], #-460	; 0xfffffe34
 408:	61635f65 	cmnvs	r3, r5, ror #30
 40c:	00656863 	rsbeq	r6, r5, r3, ror #16
 410:	34317363 	ldrtcc	r7, [r1], #-867	; 0x363
 414:	732d6530 	teqvc	sp, #48, 10	; 0xc000000
 418:	632f6372 	teqvs	pc, #-939524095	; 0xc8000001
 41c:	65686361 	strbvs	r6, [r8, #-865]!	; 0x361
 420:	7200632e 	andvc	r6, r0, #-1207959552	; 0xb8000000
 424:	725f6970 	subsvc	r6, pc, #112, 18	; 0x1c0000
 428:	6f6f6265 	svcvs	0x006f6265
 42c:	73630074 	cmnvc	r3, #116	; 0x74
 430:	65303431 	ldrvs	r3, [r0, #-1073]!	; 0x431
 434:	6372732d 	cmnvs	r2, #-1275068416	; 0xb4000000
 438:	656c632f 	strbvs	r6, [ip, #-815]!	; 0x32f
 43c:	722d6e61 	eorvc	r6, sp, #1552	; 0x610
 440:	6f6f6265 	svcvs	0x006f6265
 444:	00632e74 	rsbeq	r2, r3, r4, ror lr
 448:	65746e69 	ldrbvs	r6, [r4, #-3689]!	; 0xe69
 44c:	6c616e72 	stclvs	14, cr6, [r1], #-456	; 0xfffffe38
 450:	5f77735f 	svcpl	0x0077735f
 454:	63747570 	cmnvs	r4, #112, 10	; 0x1c000000
 458:	00726168 	rsbseq	r6, r2, r8, ror #2
 45c:	73625f5f 	cmnvc	r2, #380	; 0x17c
 460:	74735f73 	ldrbtvc	r5, [r3], #-3955	; 0xf73
 464:	5f747261 	svcpl	0x00747261
 468:	7362005f 	cmnvc	r2, #95	; 0x5f
 46c:	6e655f73 	mcrvs	15, 3, r5, cr5, cr3, {3}
 470:	79630064 	stmdbvc	r3!, {r2, r5, r6}^
 474:	5f656c63 	svcpl	0x00656c63
 478:	5f726570 	svcpl	0x00726570
 47c:	00746962 	rsbseq	r6, r4, r2, ror #18
 480:	736e6f63 	cmnvc	lr, #396	; 0x18c
 484:	5f656c6f 	svcpl	0x00656c6f
 488:	74726175 	ldrbtvc	r6, [r2], #-373	; 0x175
 48c:	5f777300 	svcpl	0x00777300
 490:	74726175 	ldrbtvc	r6, [r2], #-373	; 0x175
 494:	6972705f 	ldmdbvs	r2!, {r0, r1, r2, r3, r4, r6, ip, sp, lr}^
 498:	006b746e 	rsbeq	r7, fp, lr, ror #8
 49c:	43545550 	cmpmi	r4, #80, 10	; 0x14000000
 4a0:	5053455f 	subspl	r4, r3, pc, asr r5
 4a4:	5241555f 	subpl	r5, r1, #398458880	; 0x17c00000
 4a8:	77730054 			; <UNDEFINED> instruction: 0x77730054
 4ac:	7261755f 	rsbvc	r7, r1, #398458880	; 0x17c00000
 4b0:	00745f74 	rsbseq	r5, r4, r4, ror pc
 4b4:	43545550 	cmpmi	r4, #80, 10	; 0x14000000
 4b8:	5f57535f 	svcpl	0x0057535f
 4bc:	54524155 	ldrbpl	r4, [r2], #-341	; 0x155
 4c0:	75616200 	strbvc	r6, [r1, #-512]!	; 0x200
 4c4:	55500064 	ldrbpl	r0, [r0, #-100]	; 0x64
 4c8:	485f4354 	ldmdami	pc, {r2, r4, r6, r8, r9, lr}^	; <UNPREDICTABLE>
 4cc:	41555f57 	cmpmi	r5, r7, asr pc
 4d0:	5f005452 	svcpl	0x00005452
 4d4:	61747363 	cmnvs	r4, r3, ror #6
 4d8:	75007472 	strvc	r7, [r0, #-1138]	; 0x472
 4dc:	5f747261 	svcpl	0x00747261
 4e0:	5f766564 	svcpl	0x00766564
 4e4:	77730074 			; <UNDEFINED> instruction: 0x77730074
 4e8:	7261755f 	rsbvc	r7, r1, #398458880	; 0x17c00000
 4ec:	75705f74 	ldrbvc	r5, [r0, #-3956]!	; 0xf74
 4f0:	63006374 	movwvs	r6, #884	; 0x374
 4f4:	72746e6f 	rsbsvc	r6, r4, #1776	; 0x6f0
 4f8:	625f6c6f 	subsvs	r6, pc, #28416	; 0x6f00
 4fc:	745f6b6c 	ldrbvc	r6, [pc], #-2924	; 504 <_start-0x7afc>
 500:	5f777300 	svcpl	0x00777300
 504:	74726175 	ldrbtvc	r6, [r2], #-373	; 0x175
 508:	5f626300 	svcpl	0x00626300
 50c:	5f746567 	svcpl	0x00746567
 510:	636f6c62 	cmnvs	pc, #25088	; 0x6200
 514:	5f5f006b 	svcpl	0x005f006b
 518:	5f737362 	svcpl	0x00737362
 51c:	5f646e65 	svcpl	0x00646e65
 520:	7363005f 	cmnvc	r3, #95	; 0x5f
 524:	65303431 	ldrvs	r3, [r0, #-1073]!	; 0x431
 528:	6372732d 	cmnvs	r2, #-1275068416	; 0xb4000000
 52c:	7473632f 	ldrbtvc	r6, [r3], #-815	; 0x32f
 530:	2e747261 	cdpcs	2, 7, cr7, cr4, cr1, {3}
 534:	6f630063 	svcvs	0x00630063
 538:	6c6f736e 	stclvs	3, cr7, [pc], #-440	; 388 <_start-0x7c78>
 53c:	65645f65 	strbvs	r5, [r4, #-3941]!	; 0xf65
 540:	69750076 	ldmdbvs	r5!, {r1, r2, r4, r5, r6}^
 544:	3233746e 	eorscc	r7, r3, #1845493760	; 0x6e000000
 548:	6d00745f 	cfstrsvs	mvf7, [r0, #-380]	; 0xfffffe84
 54c:	63696761 	cmnvs	r9, #25427968	; 0x1840000
 550:	5f746100 	svcpl	0x00746100
 554:	72657375 	rsbvc	r7, r5, #-738197503	; 0xd4000001
 558:	76656c5f 			; <UNDEFINED> instruction: 0x76656c5f
 55c:	50006c65 	andpl	r6, r0, r5, ror #24
 560:	41505f4d 	cmpmi	r0, sp, asr #30
 564:	4f575353 	svcmi	0x00575353
 568:	63004452 	movwvs	r4, #1106	; 0x452
 56c:	30343173 	eorscc	r3, r4, r3, ror r1
 570:	72732d65 	rsbsvc	r2, r3, #6464	; 0x1940
 574:	65722f63 	ldrbvs	r2, [r2, #-3939]!	; 0xf63
 578:	746f6f62 	strbtvc	r6, [pc], #-3938	; 580 <_start-0x7a80>
 57c:	5000632e 	andpl	r6, r0, lr, lsr #6
 580:	53525f4d 	cmppl	r2, #308	; 0x134
 584:	575f4354 			; <UNDEFINED> instruction: 0x575f4354
 588:	47464352 	smlsldmi	r4, r6, r2, r3
 58c:	4c55465f 	mrrcmi	6, 5, r4, r5, cr15
 590:	45525f4c 	ldrbmi	r5, [r2, #-3916]	; 0xf4c
 594:	00544553 	subseq	r4, r4, r3, asr r5
 598:	575f4d50 			; <UNDEFINED> instruction: 0x575f4d50
 59c:	00474f44 	subeq	r4, r7, r4, asr #30
 5a0:	5f746573 	svcpl	0x00746573
 5a4:	72657375 	rsbvc	r7, r5, #-738197503	; 0xd4000001
 5a8:	76656c5f 			; <UNDEFINED> instruction: 0x76656c5f
 5ac:	50006c65 	andpl	r6, r0, r5, ror #24
 5b0:	32335455 	eorscc	r5, r3, #1426063360	; 0x55000000
 5b4:	5f4d5000 	svcpl	0x004d5000
 5b8:	43545352 	cmpmi	r4, #1207959553	; 0x48000001
 5bc:	73706300 	cmnvc	r0, #0, 6
 5c0:	69740072 	ldmdbvs	r4!, {r1, r4, r5, r6}^
 5c4:	5f72656d 	svcpl	0x0072656d
 5c8:	5f746567 	svcpl	0x00746567
 5cc:	63657375 	cmnvs	r5, #-738197503	; 0xd4000001
 5d0:	7761725f 			; <UNDEFINED> instruction: 0x7761725f
 5d4:	6c656400 	cfstrdvs	mvd6, [r5], #-0
 5d8:	735f7961 	cmpvc	pc, #1589248	; 0x184000
 5dc:	63006365 	movwvs	r6, #869	; 0x365
 5e0:	30343173 	eorscc	r3, r4, r3, ror r1
 5e4:	72732d65 	rsbsvc	r2, r3, #6464	; 0x1940
 5e8:	69742f63 	ldmdbvs	r4!, {r0, r1, r5, r6, r8, r9, sl, fp, sp}^
 5ec:	2e72656d 	cdpcs	5, 7, cr6, cr2, cr13, {3}
 5f0:	45470063 	strbmi	r0, [r7, #-99]	; 0x63
 5f4:	00323354 	eorseq	r3, r2, r4, asr r3
 5f8:	6b636974 	blvs	18dabd0 <__bss_end__+0x18d04f8>
 5fc:	65640073 	strbvs	r0, [r4, #-115]!	; 0x73
 600:	5f79616c 	svcpl	0x0079616c
 604:	6c637963 	stclvs	9, cr7, [r3], #-396	; 0xfffffe74
 608:	64007365 	strvs	r7, [r0], #-869	; 0x365
 60c:	79616c65 	stmdbvc	r1!, {r0, r2, r5, r6, sl, fp, sp, lr}^
 610:	0073755f 	rsbseq	r7, r3, pc, asr r5
 614:	656d6974 	strbvs	r6, [sp, #-2420]!	; 0x974
 618:	65675f72 	strbvs	r5, [r7, #-3954]!	; 0xf72
 61c:	73755f74 	cmnvc	r5, #116, 30	; 0x1d0
 620:	67006365 	strvs	r6, [r0, -r5, ror #6]
 624:	5f6f6970 	svcpl	0x006f6970
 628:	6e657665 	cdpvs	6, 6, cr7, cr5, cr5, {3}
 62c:	65645f74 	strbvs	r5, [r4, #-3956]!	; 0xf74
 630:	74636574 	strbtvc	r6, [r3], #-1396	; 0x574
 634:	70006465 	andvc	r6, r0, r5, ror #8
 638:	32337475 	eorscc	r7, r3, #1962934272	; 0x75000000
 63c:	414e4500 	cmpmi	lr, r0, lsl #10
 640:	5f454c42 	svcpl	0x00454c42
 644:	53515249 	cmppl	r1, #-1879048188	; 0x90000004
 648:	6900325f 	stmdbvs	r0, {r0, r1, r2, r3, r4, r6, r9, ip, sp}
 64c:	70675f73 	rsbvc	r5, r7, r3, ror pc
 650:	695f6f69 	ldmdbvs	pc, {r0, r3, r5, r6, r8, r9, sl, fp, sp, lr}^	; <UNPREDICTABLE>
 654:	4700746e 	strmi	r7, [r0, -lr, ror #8]
 658:	5f4f4950 	svcpl	0x004f4950
 65c:	434e5546 	movtmi	r5, #58694	; 0xe546
 660:	504e495f 	subpl	r4, lr, pc, asr r9
 664:	6d005455 	cfstrsvs	mvf5, [r0, #-340]	; 0xfffffeac
 668:	72732d79 	rsbsvc	r2, r3, #7744	; 0x1e40
 66c:	70672f63 	rsbvc	r2, r7, r3, ror #30
 670:	632e6f69 	teqvs	lr, #420	; 0x1a4
 674:	746e6900 	strbtvc	r6, [lr], #-2304	; 0x900
 678:	73616d5f 	cmnvc	r1, #6080	; 0x17c0
 67c:	6572006b 	ldrbvs	r0, [r2, #-107]!	; 0x6b
 680:	74735f67 	ldrbtvc	r5, [r3], #-3943	; 0xf67
 684:	67007461 	strvs	r7, [r0, -r1, ror #8]
 688:	5f6f6970 	svcpl	0x006f6970
 68c:	00676572 	rsbeq	r6, r7, r2, ror r5
 690:	5f766564 	svcpl	0x00766564
 694:	72726162 	rsbsvc	r6, r2, #-2147483624	; 0x80000018
 698:	00726569 	rsbseq	r6, r2, r9, ror #10
 69c:	6f697067 	svcvs	0x00697067
 6a0:	6165725f 	cmnvs	r5, pc, asr r2
 6a4:	70670064 	rsbvc	r0, r7, r4, rrx
 6a8:	695f6f69 	ldmdbvs	pc, {r0, r3, r5, r6, r8, r9, sl, fp, sp, lr}^	; <UNPREDICTABLE>
 6ac:	725f746e 	subsvc	r7, pc, #1845493760	; 0x6e000000
 6b0:	6e697369 	cdpvs	3, 6, cr7, cr9, cr9, {3}
 6b4:	64655f67 	strbtvs	r5, [r5], #-3943	; 0xf67
 6b8:	67006567 	strvs	r6, [r0, -r7, ror #10]
 6bc:	5f6f6970 	svcpl	0x006f6970
 6c0:	5f746573 	svcpl	0x00746573
 6c4:	636e7566 	cmnvs	lr, #427819008	; 0x19800000
 6c8:	6e6f6974 	mcrvs	9, 3, r6, cr15, cr4, {3}
 6cc:	52504700 	subspl	r4, r0, #0, 14
 6d0:	00304e45 	eorseq	r4, r0, r5, asr #28
 6d4:	45525047 	ldrbmi	r5, [r2, #-71]	; 0x47
 6d8:	6700314e 	strvs	r3, [r0, -lr, asr #2]
 6dc:	5f6f6970 	svcpl	0x006f6970
 6e0:	6e657665 	cdpvs	6, 6, cr7, cr5, cr5, {3}
 6e4:	6c635f74 	stclvs	15, cr5, [r3], #-464	; 0xfffffe30
 6e8:	00726165 	rsbseq	r6, r2, r5, ror #2
 6ec:	5f515249 	svcpl	0x00515249
 6f0:	444e4550 	strbmi	r4, [lr], #-1360	; 0x550
 6f4:	5f474e49 	svcpl	0x00474e49
 6f8:	52490031 	subpl	r0, r9, #49	; 0x31
 6fc:	45505f51 	ldrbmi	r5, [r0, #-3921]	; 0xf51
 700:	4e49444e 	cdpmi	4, 4, cr4, cr9, cr14, {2}
 704:	00325f47 	eorseq	r5, r2, r7, asr #30
 708:	6d746962 	ldclvs	9, cr6, [r4, #-392]!	; 0xfffffe78
 70c:	006b7361 	rsbeq	r7, fp, r1, ror #6
 710:	636e7566 	cmnvs	lr, #427819008	; 0x19800000
 714:	69706700 	ldmdbvs	r0!, {r8, r9, sl, sp, lr}^
 718:	6f745f6f 	svcvs	0x00745f6f
 71c:	656c6767 	strbvs	r6, [ip, #-1895]!	; 0x767
 720:	45504700 	ldrbmi	r4, [r0, #-1792]	; 0x700
 724:	00305344 	eorseq	r5, r0, r4, asr #6
 728:	44455047 	strbmi	r5, [r5], #-71	; 0x47
 72c:	47003153 	smlsdmi	r0, r3, r1, r3
 730:	4e454650 	mcrmi	6, 2, r4, cr5, cr0, {2}
 734:	50470030 	subpl	r0, r7, r0, lsr r0
 738:	314e4546 	cmpcc	lr, r6, asr #10
 73c:	49504700 	ldmdbmi	r0, {r8, r9, sl, lr}^
 740:	55465f4f 	strbpl	r5, [r6, #-3919]	; 0xf4f
 744:	4f5f434e 	svcmi	0x005f434e
 748:	55505455 	ldrbpl	r5, [r0, #-1109]	; 0x455
 74c:	65670054 	strbvs	r0, [r7, #-84]!	; 0x54
 750:	00323374 	eorseq	r3, r2, r4, ror r3
 754:	6f697067 	svcvs	0x00697067
 758:	746e695f 	strbtvc	r6, [lr], #-2399	; 0x95f
 75c:	6c61665f 	stclvs	6, cr6, [r1], #-380	; 0xfffffe84
 760:	676e696c 	strbvs	r6, [lr, -ip, ror #18]!
 764:	6764655f 			; <UNDEFINED> instruction: 0x6764655f
 768:	70670065 	rsbvc	r0, r7, r5, rrx
 76c:	665f6f69 	ldrbvs	r6, [pc], -r9, ror #30
 770:	5f636e75 	svcpl	0x00636e75
 774:	50470074 	subpl	r0, r7, r4, ror r0
 778:	465f4f49 	ldrbmi	r4, [pc], -r9, asr #30
 77c:	5f434e55 	svcpl	0x00434e55
 780:	30544c41 	subscc	r4, r4, r1, asr #24
 784:	49504700 	ldmdbmi	r0, {r8, r9, sl, lr}^
 788:	55465f4f 	strbpl	r5, [r6, #-3919]	; 0xf4f
 78c:	415f434e 	cmpmi	pc, lr, asr #6
 790:	0031544c 	eorseq	r5, r1, ip, asr #8
 794:	4f495047 	svcmi	0x00495047
 798:	4e55465f 	mrcmi	6, 2, r4, cr5, cr15, {2}
 79c:	4c415f43 	mcrrmi	15, 4, r5, r1, cr3
 7a0:	47003254 	smlsdmi	r0, r4, r2, r3
 7a4:	5f4f4950 	svcpl	0x004f4950
 7a8:	434e5546 	movtmi	r5, #58694	; 0xe546
 7ac:	544c415f 	strbpl	r4, [ip], #-351	; 0x15f
 7b0:	50470033 	subpl	r0, r7, r3, lsr r0
 7b4:	465f4f49 	ldrbmi	r4, [pc], -r9, asr #30
 7b8:	5f434e55 	svcpl	0x00434e55
 7bc:	34544c41 	ldrbcc	r4, [r4], #-3137	; 0xc41
 7c0:	49504700 	ldmdbmi	r0, {r8, r9, sl, lr}^
 7c4:	55465f4f 	strbpl	r5, [r6, #-3919]	; 0xf4f
 7c8:	415f434e 	cmpmi	pc, lr, asr #6
 7cc:	0035544c 	eorseq	r5, r5, ip, asr #8
 7d0:	5f676572 	svcpl	0x00676572
 7d4:	656c6573 	strbvs	r6, [ip, #-1395]!	; 0x573
 7d8:	63007463 	movwvs	r7, #1123	; 0x463
 7dc:	705f6379 	subsvc	r6, pc, r9, ror r3	; <UNPREDICTABLE>
 7e0:	625f7265 	subsvs	r7, pc, #1342177286	; 0x50000006
 7e4:	77007469 	strvc	r7, [r0, -r9, ror #8]
 7e8:	65746972 	ldrbvs	r6, [r4, #-2418]!	; 0x972
 7ec:	6379635f 	cmnvs	r9, #2080374785	; 0x7c000001
 7f0:	746e755f 	strbtvc	r7, [lr], #-1375	; 0x55f
 7f4:	73006c69 	movwvc	r6, #3177	; 0xc69
 7f8:	61755f77 	cmnvs	r5, r7, ror pc
 7fc:	675f7472 			; <UNDEFINED> instruction: 0x675f7472
 800:	5f637465 	svcpl	0x00637465
 804:	656d6974 	strbvs	r6, [sp, #-2420]!	; 0x974
 808:	0074756f 	rsbseq	r7, r4, pc, ror #10
 80c:	755f7773 	ldrbvc	r7, [pc, #-1907]	; a1 <_start-0x7f5f>
 810:	5f747261 	svcpl	0x00747261
 814:	73746567 	cmnvc	r4, #432013312	; 0x19c00000
 818:	746e755f 	strbtvc	r7, [lr], #-1375	; 0x55f
 81c:	73006c69 	movwvc	r6, #3177	; 0xc69
 820:	61755f77 	cmnvs	r5, r7, ror pc
 824:	675f7472 			; <UNDEFINED> instruction: 0x675f7472
 828:	00637465 	rsbeq	r7, r3, r5, ror #8
 82c:	69726564 	ldmdbvs	r2!, {r2, r5, r6, r8, sl, sp, lr}^
 830:	00646576 	rsbeq	r6, r4, r6, ror r5
 834:	616c6564 	cmnvs	ip, r4, ror #10
 838:	636e5f79 	cmnvs	lr, #484	; 0x1e4
 83c:	656c6379 	strbvs	r6, [ip, #-889]!	; 0x379
 840:	77730073 			; <UNDEFINED> instruction: 0x77730073
 844:	7261755f 	rsbvc	r7, r1, #398458880	; 0x17c00000
 848:	6e695f74 	mcrvs	15, 3, r5, cr9, cr4, {3}
 84c:	685f7469 	ldmdavs	pc, {r0, r3, r5, r6, sl, ip, sp, lr}^	; <UNPREDICTABLE>
 850:	65706c65 	ldrbvs	r6, [r0, #-3173]!	; 0xc65
 854:	69740072 	ldmdbvs	r4!, {r1, r4, r5, r6}^
 858:	756f656d 	strbvc	r6, [pc, #-1389]!	; 2f3 <_start-0x7d0d>
 85c:	73755f74 	cmnvc	r5, #116, 30	; 0x1d0
 860:	73006365 	movwvc	r6, #869	; 0x365
 864:	61755f77 	cmnvs	r5, r7, ror pc
 868:	705f7472 	subsvc	r7, pc, r2, ror r4	; <UNPREDICTABLE>
 86c:	006b7475 	rsbeq	r7, fp, r5, ror r4
 870:	732d796d 	teqvc	sp, #1785856	; 0x1b4000
 874:	732f6372 	teqvc	pc, #-939524095	; 0xc8000001
 878:	61752d77 	cmnvs	r5, r7, ror sp
 87c:	632e7472 	teqvs	lr, #1912602624	; 0x72000000
 880:	61686300 	cmnvs	r8, r0, lsl #6
 884:	6e695f72 	mcrvs	15, 3, r5, cr9, cr2, {3}
 888:	5f777300 	svcpl	0x00777300
 88c:	74726175 	ldrbtvc	r6, [r2], #-373	; 0x175
 890:	7465675f 	strbtvc	r6, [r5], #-1887	; 0x75f
 894:	69745f73 	ldmdbvs	r4!, {r0, r1, r4, r5, r6, r8, r9, sl, fp, ip, lr}^
 898:	756f656d 	strbvc	r6, [pc, #-1389]!	; 333 <_start-0x7ccd>
 89c:	626e0074 	rsbvs	r0, lr, #116	; 0x74
 8a0:	73657479 	cmnvc	r5, #2030043136	; 0x79000000
 8a4:	65737500 	ldrbvs	r7, [r3, #-1280]!	; 0x500
 8a8:	69745f63 	ldmdbvs	r4!, {r0, r1, r5, r6, r8, r9, sl, fp, ip, lr}^
 8ac:	756f656d 	strbvc	r6, [pc, #-1389]!	; 347 <_start-0x7cb9>
 8b0:	77730074 			; <UNDEFINED> instruction: 0x77730074
 8b4:	7261755f 	rsbvc	r7, r1, #398458880	; 0x17c00000
 8b8:	65675f74 	strbvs	r5, [r7, #-3956]!	; 0xf74
 8bc:	755f7374 	ldrbvc	r7, [pc, #-884]	; 550 <_start-0x7ab0>
 8c0:	6c69746e 	cfstrdvs	mvd7, [r9], #-440	; 0xfffffe48
 8c4:	6b6c625f 	blvs	1b19248 <__bss_end__+0x1b0eb70>
 8c8:	69617700 	stmdbvs	r1!, {r8, r9, sl, ip, sp, lr}^
 8cc:	6e755f74 	mrcvs	15, 3, r5, cr5, cr4, {3}
 8d0:	5f6c6974 	svcpl	0x006c6974
 8d4:	63657375 	cmnvs	r5, #-738197503	; 0xd4000001
 8d8:	58554100 	ldmdapl	r5, {r8, lr}^
 8dc:	5f554d5f 	svcpl	0x00554d5f
 8e0:	5f52434d 	svcpl	0x0052434d
 8e4:	00474552 	subeq	r4, r7, r2, asr r5
 8e8:	5f585541 	svcpl	0x00585541
 8ec:	495f554d 	ldmdbmi	pc, {r0, r2, r3, r6, r8, sl, ip, lr}^	; <UNPREDICTABLE>
 8f0:	45525f4f 	ldrbmi	r5, [r2, #-3919]	; 0xf4f
 8f4:	55410047 	strbpl	r0, [r1, #-71]	; 0x47
 8f8:	554d5f58 	strbpl	r5, [sp, #-3928]	; 0xf58
 8fc:	52534d5f 	subspl	r4, r3, #6080	; 0x17c0
 900:	4745525f 	smlsldmi	r5, r5, pc, r2	; <UNPREDICTABLE>
 904:	72617500 	rsbvc	r7, r1, #0, 10
 908:	61635f74 	smcvs	13812	; 0x35f4
 90c:	65675f6e 	strbvs	r5, [r7, #-3950]!	; 0xf6e
 910:	41006374 	tstmi	r0, r4, ror r3
 914:	4d5f5855 	ldclmi	8, cr5, [pc, #-340]	; 7c8 <_start-0x7838>
 918:	4e435f55 	mcrmi	15, 2, r5, cr3, cr5, {2}
 91c:	525f4c54 	subspl	r4, pc, #84, 24	; 0x5400
 920:	75004745 	strvc	r4, [r0, #-1861]	; 0x745
 924:	5f747261 	svcpl	0x00747261
 928:	5f736168 	svcpl	0x00736168
 92c:	61746164 	cmnvs	r4, r4, ror #2
 930:	72617500 	rsbvc	r7, r1, #0, 10
 934:	6e695f74 	mcrvs	15, 3, r5, cr9, cr4, {3}
 938:	41007469 	tstmi	r0, r9, ror #8
 93c:	4d5f5855 	ldclmi	8, cr5, [pc, #-340]	; 7f0 <_start-0x7810>
 940:	45495f55 	strbmi	r5, [r9, #-3925]	; 0xf55
 944:	45525f52 	ldrbmi	r5, [r2, #-3922]	; 0xf52
 948:	55410047 	strbpl	r0, [r1, #-71]	; 0x47
 94c:	554d5f58 	strbpl	r5, [sp, #-3928]	; 0xf58
 950:	5249495f 	subpl	r4, r9, #1556480	; 0x17c000
 954:	4745525f 	smlsldmi	r5, r5, pc, r2	; <UNPREDICTABLE>
 958:	72617500 	rsbvc	r7, r1, #0, 10
 95c:	61635f74 	smcvs	13812	; 0x35f4
 960:	75705f6e 	ldrbvc	r5, [r0, #-3950]!	; 0xf6e
 964:	41006374 	tstmi	r0, r4, ror r3
 968:	455f5855 	ldrbmi	r5, [pc, #-2133]	; 11b <_start-0x7ee5>
 96c:	4c42414e 	stfmie	f4, [r2], {78}	; 0x4e
 970:	41005345 	tstmi	r0, r5, asr #6
 974:	495f5855 	ldmdbmi	pc, {r0, r2, r4, r6, fp, ip, lr}^	; <UNPREDICTABLE>
 978:	41005152 	tstmi	r0, r2, asr r1
 97c:	4d5f5855 	ldclmi	8, cr5, [pc, #-340]	; 830 <_start-0x77d0>
 980:	41425f55 	cmpmi	r2, r5, asr pc
 984:	525f4455 	subspl	r4, pc, #1426063360	; 0x55000000
 988:	41004745 	tstmi	r0, r5, asr #14
 98c:	4d5f5855 	ldclmi	8, cr5, [pc, #-340]	; 840 <_start-0x77c0>
 990:	54535f55 	ldrbpl	r5, [r3], #-3925	; 0xf55
 994:	525f5441 	subspl	r5, pc, #1090519040	; 0x41000000
 998:	41004745 	tstmi	r0, r5, asr #14
 99c:	4d5f5855 	ldclmi	8, cr5, [pc, #-340]	; 850 <_start-0x77b0>
 9a0:	43535f55 	cmpmi	r3, #340	; 0x154
 9a4:	43544152 	cmpmi	r4, #-2147483628	; 0x80000014
 9a8:	796d0048 	stmdbvc	sp!, {r3, r6}^
 9ac:	6372732d 	cmnvs	r2, #-1275068416	; 0xb4000000
 9b0:	7261752f 	rsbvc	r7, r1, #197132288	; 0xbc00000
 9b4:	00632e74 	rsbeq	r2, r3, r4, ror lr
 9b8:	5f585541 	svcpl	0x00585541
 9bc:	4c5f554d 	cfldr64mi	mvdx5, [pc], {77}	; 0x4d
 9c0:	525f5243 	subspl	r5, pc, #805306372	; 0x30000004
 9c4:	41004745 	tstmi	r0, r5, asr #14
 9c8:	4d5f5855 	ldclmi	8, cr5, [pc, #-340]	; 87c <_start-0x7784>
 9cc:	534c5f55 	movtpl	r5, #53077	; 0xcf55
 9d0:	45525f52 	ldrbmi	r5, [r2, #-3922]	; 0xf52
 9d4:	61750047 	cmnvs	r5, r7, asr #32
 9d8:	675f7472 			; <UNDEFINED> instruction: 0x675f7472
 9dc:	5f637465 	svcpl	0x00637465
 9e0:	6e797361 	cdpvs	3, 7, cr7, cr9, cr1, {3}
 9e4:	69730063 	ldmdbvs	r3!, {r0, r1, r5, r6}^
 9e8:	745f657a 	ldrbvc	r6, [pc], #-1402	; 9f0 <_start-0x7610>
 9ec:	6d656d00 	stclvs	13, cr6, [r5, #-0]
 9f0:	00746573 	rsbseq	r6, r4, r3, ror r5
 9f4:	6e5f6263 	cdpvs	2, 5, cr6, cr15, cr3, {3}
 9f8:	63007765 	movwvs	r7, #1893	; 0x765
 9fc:	30343173 	eorscc	r3, r4, r3, ror r1
 a00:	72732d65 	rsbsvc	r2, r3, #6464	; 0x1940
 a04:	6f632f63 	svcvs	0x00632f63
 a08:	6f72746e 	svcvs	0x0072746e
 a0c:	6c622d6c 	stclvs	13, cr2, [r2], #-432	; 0xfffffe50
 a10:	2e6b636f 	cdpcs	3, 6, cr6, cr11, cr15, {3}
 a14:	696c0063 	stmdbvs	ip!, {r0, r1, r5, r6}^
 a18:	6d2f6362 	stcvs	3, cr6, [pc, #-392]!	; 898 <_start-0x7768>
 a1c:	65736d65 	ldrbvs	r6, [r3, #-3429]!	; 0xd65
 a20:	00632e74 	rsbeq	r2, r3, r4, ror lr

Disassembly of section .debug_frame:

00000000 <.debug_frame>:
   0:	0000000c 	andeq	r0, r0, ip
   4:	ffffffff 			; <UNDEFINED> instruction: 0xffffffff
   8:	7c020001 	stcvc	0, cr0, [r2], {1}
   c:	000d0c0e 	andeq	r0, sp, lr, lsl #24
  10:	0000001c 	andeq	r0, r0, ip, lsl r0
  14:	00000000 	andeq	r0, r0, r0
  18:	00008010 	andeq	r8, r0, r0, lsl r0
  1c:	000001c8 	andeq	r0, r0, r8, asr #3
  20:	84180e42 	ldrhi	r0, [r8], #-3650	; 0xe42
  24:	86058506 	strhi	r8, [r5], -r6, lsl #10
  28:	88038704 	stmdahi	r3, {r2, r8, r9, sl, pc}
  2c:	00018902 	andeq	r8, r1, r2, lsl #18
  30:	0000000c 	andeq	r0, r0, ip
  34:	00000000 	andeq	r0, r0, r0
  38:	000081d8 	ldrdeq	r8, [r0], -r8	; <UNPREDICTABLE>
  3c:	0000022c 	andeq	r0, r0, ip, lsr #4
  40:	00000014 	andeq	r0, r0, r4, lsl r0
  44:	00000000 	andeq	r0, r0, r0
  48:	00008404 	andeq	r8, r0, r4, lsl #8
  4c:	00000050 	andeq	r0, r0, r0, asr r0
  50:	84080e44 	strhi	r0, [r8], #-3652	; 0xe44
  54:	00018e02 	andeq	r8, r1, r2, lsl #28
  58:	0000001c 	andeq	r0, r0, ip, lsl r0
  5c:	00000000 	andeq	r0, r0, r0
  60:	00008454 	andeq	r8, r0, r4, asr r4
  64:	000001c8 	andeq	r0, r0, r8, asr #3
  68:	84180e42 	ldrhi	r0, [r8], #-3650	; 0xe42
  6c:	86058506 	strhi	r8, [r5], -r6, lsl #10
  70:	88038704 	stmdahi	r3, {r2, r8, r9, sl, pc}
  74:	00018902 	andeq	r8, r1, r2, lsl #18
  78:	00000014 	andeq	r0, r0, r4, lsl r0
  7c:	00000000 	andeq	r0, r0, r0
  80:	0000861c 	andeq	r8, r0, ip, lsl r6
  84:	0000023c 	andeq	r0, r0, ip, lsr r2
  88:	84040e42 	strhi	r0, [r4], #-3650	; 0xe42
  8c:	00000001 	andeq	r0, r0, r1
  90:	0000001c 	andeq	r0, r0, ip, lsl r0
  94:	00000000 	andeq	r0, r0, r0
  98:	00008858 	andeq	r8, r0, r8, asr r8
  9c:	000000f0 	strdeq	r0, [r0], -r0	; <UNPREDICTABLE>
  a0:	84180e42 	ldrhi	r0, [r8], #-3650	; 0xe42
  a4:	86058506 	strhi	r8, [r5], -r6, lsl #10
  a8:	88038704 	stmdahi	r3, {r2, r8, r9, sl, pc}
  ac:	00018e02 	andeq	r8, r1, r2, lsl #28
  b0:	0000000c 	andeq	r0, r0, ip
  b4:	ffffffff 			; <UNDEFINED> instruction: 0xffffffff
  b8:	7c020001 	stcvc	0, cr0, [r2], {1}
  bc:	000d0c0e 	andeq	r0, sp, lr, lsl #24
  c0:	00000024 	andeq	r0, r0, r4, lsr #32
  c4:	000000b0 	strheq	r0, [r0], -r0	; <UNPREDICTABLE>
  c8:	00008948 	andeq	r8, r0, r8, asr #18
  cc:	00000058 	andeq	r0, r0, r8, asr r0
  d0:	80100e42 	andshi	r0, r0, r2, asr #28
  d4:	82038104 	andhi	r8, r3, #4, 2
  d8:	42018302 	andmi	r8, r1, #134217728	; 0x8000000
  dc:	07841c0e 	streq	r1, [r4, lr, lsl #24]
  e0:	058e0685 	streq	r0, [lr, #1669]	; 0x685
  e4:	00280e42 	eoreq	r0, r8, r2, asr #28
  e8:	0000000c 	andeq	r0, r0, ip
  ec:	ffffffff 			; <UNDEFINED> instruction: 0xffffffff
  f0:	7c020001 	stcvc	0, cr0, [r2], {1}
  f4:	000d0c0e 	andeq	r0, sp, lr, lsl #24
  f8:	00000014 	andeq	r0, r0, r4, lsl r0
  fc:	000000e8 	andeq	r0, r0, r8, ror #1
 100:	000089a0 	andeq	r8, r0, r0, lsr #19
 104:	00000014 	andeq	r0, r0, r4, lsl r0
 108:	84080e42 	strhi	r0, [r8], #-3650	; 0xe42
 10c:	00018e02 	andeq	r8, r1, r2, lsl #28
 110:	0000000c 	andeq	r0, r0, ip
 114:	000000e8 	andeq	r0, r0, r8, ror #1
 118:	000089b4 			; <UNDEFINED> instruction: 0x000089b4
 11c:	00000018 	andeq	r0, r0, r8, lsl r0
 120:	0000000c 	andeq	r0, r0, ip
 124:	000000e8 	andeq	r0, r0, r8, ror #1
 128:	000089cc 	andeq	r8, r0, ip, asr #19
 12c:	00000010 	andeq	r0, r0, r0, lsl r0
 130:	0000000c 	andeq	r0, r0, ip
 134:	ffffffff 			; <UNDEFINED> instruction: 0xffffffff
 138:	7c020001 	stcvc	0, cr0, [r2], {1}
 13c:	000d0c0e 	andeq	r0, sp, lr, lsl #24
 140:	00000018 	andeq	r0, r0, r8, lsl r0
 144:	00000130 	andeq	r0, r0, r0, lsr r1
 148:	000089dc 	ldrdeq	r8, [r0], -ip
 14c:	00000034 	andeq	r0, r0, r4, lsr r0
 150:	83100e42 	tsthi	r0, #1056	; 0x420
 154:	85038404 	strhi	r8, [r3, #-1028]	; 0x404
 158:	00018e02 	andeq	r8, r1, r2, lsl #28
 15c:	0000000c 	andeq	r0, r0, ip
 160:	ffffffff 			; <UNDEFINED> instruction: 0xffffffff
 164:	7c020001 	stcvc	0, cr0, [r2], {1}
 168:	000d0c0e 	andeq	r0, sp, lr, lsl #24
 16c:	0000000c 	andeq	r0, r0, ip
 170:	0000015c 	andeq	r0, r0, ip, asr r1
 174:	00008a10 	andeq	r8, r0, r0, lsl sl
 178:	00000014 	andeq	r0, r0, r4, lsl r0
 17c:	0000000c 	andeq	r0, r0, ip
 180:	0000015c 	andeq	r0, r0, ip, asr r1
 184:	00008a24 	andeq	r8, r0, r4, lsr #20
 188:	0000002c 	andeq	r0, r0, ip, lsr #32
 18c:	0000000c 	andeq	r0, r0, ip
 190:	0000015c 	andeq	r0, r0, ip, asr r1
 194:	00008a50 	andeq	r8, r0, r0, asr sl
 198:	00000040 	andeq	r0, r0, r0, asr #32
 19c:	00000020 	andeq	r0, r0, r0, lsr #32
 1a0:	0000015c 	andeq	r0, r0, ip, asr r1
 1a4:	00008a90 	muleq	r0, r0, sl
 1a8:	000001a8 	andeq	r0, r0, r8, lsr #3
 1ac:	84180e42 	ldrhi	r0, [r8], #-3650	; 0xe42
 1b0:	86058506 	strhi	r8, [r5], -r6, lsl #10
 1b4:	88038704 	stmdahi	r3, {r2, r8, r9, sl, pc}
 1b8:	42018e02 	andmi	r8, r1, #2, 28
 1bc:	0000600e 	andeq	r6, r0, lr
 1c0:	00000014 	andeq	r0, r0, r4, lsl r0
 1c4:	0000015c 	andeq	r0, r0, ip, asr r1
 1c8:	00008c38 	andeq	r8, r0, r8, lsr ip
 1cc:	00000068 	andeq	r0, r0, r8, rrx
 1d0:	8e040e42 	cdphi	14, 0, cr0, cr4, cr2, {2}
 1d4:	100e4201 	andne	r4, lr, r1, lsl #4
 1d8:	00000028 	andeq	r0, r0, r8, lsr #32
 1dc:	0000015c 	andeq	r0, r0, ip, asr r1
 1e0:	00008ca0 	andeq	r8, r0, r0, lsr #25
 1e4:	00000294 	muleq	r0, r4, r2
 1e8:	84240e42 	strthi	r0, [r4], #-3650	; 0xe42
 1ec:	86088509 	strhi	r8, [r8], -r9, lsl #10
 1f0:	88068707 	stmdahi	r6, {r0, r1, r2, r8, r9, sl, pc}
 1f4:	8a048905 	bhi	122610 <__bss_end__+0x117f38>
 1f8:	8e028b03 	vmlahi.f64	d8, d2, d3
 1fc:	b00e4201 	andlt	r4, lr, r1, lsl #4
 200:	00000001 	andeq	r0, r0, r1
 204:	0000000c 	andeq	r0, r0, ip
 208:	ffffffff 			; <UNDEFINED> instruction: 0xffffffff
 20c:	7c020001 	stcvc	0, cr0, [r2], {1}
 210:	000d0c0e 	andeq	r0, sp, lr, lsl #24
 214:	0000000c 	andeq	r0, r0, ip
 218:	00000204 	andeq	r0, r0, r4, lsl #4
 21c:	00008f34 	andeq	r8, r0, r4, lsr pc
 220:	00000010 	andeq	r0, r0, r0, lsl r0
 224:	0000000c 	andeq	r0, r0, ip
 228:	00000204 	andeq	r0, r0, r4, lsl #4
 22c:	00008f44 	andeq	r8, r0, r4, asr #30
 230:	00000010 	andeq	r0, r0, r0, lsl r0
 234:	0000000c 	andeq	r0, r0, ip
 238:	ffffffff 			; <UNDEFINED> instruction: 0xffffffff
 23c:	7c020001 	stcvc	0, cr0, [r2], {1}
 240:	000d0c0e 	andeq	r0, sp, lr, lsl #24
 244:	00000014 	andeq	r0, r0, r4, lsl r0
 248:	00000234 	andeq	r0, r0, r4, lsr r2
 24c:	00008f54 	andeq	r8, r0, r4, asr pc
 250:	00000028 	andeq	r0, r0, r8, lsr #32
 254:	83080e42 	movwhi	r0, #36418	; 0x8e42
 258:	00018e02 	andeq	r8, r1, r2, lsl #28
 25c:	0000000c 	andeq	r0, r0, ip
 260:	ffffffff 			; <UNDEFINED> instruction: 0xffffffff
 264:	7c020001 	stcvc	0, cr0, [r2], {1}
 268:	000d0c0e 	andeq	r0, sp, lr, lsl #24
 26c:	00000014 	andeq	r0, r0, r4, lsl r0
 270:	0000025c 	andeq	r0, r0, ip, asr r2
 274:	00008f7c 	andeq	r8, r0, ip, ror pc
 278:	00000020 	andeq	r0, r0, r0, lsr #32
 27c:	84080e42 	strhi	r0, [r8], #-3650	; 0xe42
 280:	00018e02 	andeq	r8, r1, r2, lsl #28
 284:	00000014 	andeq	r0, r0, r4, lsl r0
 288:	0000025c 	andeq	r0, r0, ip, asr r2
 28c:	00008f9c 	muleq	r0, ip, pc	; <UNPREDICTABLE>
 290:	00000090 	muleq	r0, r0, r0
 294:	83080e42 	movwhi	r0, #36418	; 0x8e42
 298:	00018e02 	andeq	r8, r1, r2, lsl #28
 29c:	0000000c 	andeq	r0, r0, ip
 2a0:	ffffffff 			; <UNDEFINED> instruction: 0xffffffff
 2a4:	7c020001 	stcvc	0, cr0, [r2], {1}
 2a8:	000d0c0e 	andeq	r0, sp, lr, lsl #24
 2ac:	0000000c 	andeq	r0, r0, ip
 2b0:	0000029c 	muleq	r0, ip, r2
 2b4:	0000902c 	andeq	r9, r0, ip, lsr #32
 2b8:	00000018 	andeq	r0, r0, r8, lsl r0
 2bc:	0000000c 	andeq	r0, r0, ip
 2c0:	0000029c 	muleq	r0, ip, r2
 2c4:	00009044 	andeq	r9, r0, r4, asr #32
 2c8:	00000014 	andeq	r0, r0, r4, lsl r0
 2cc:	00000014 	andeq	r0, r0, r4, lsl r0
 2d0:	0000029c 	muleq	r0, ip, r2
 2d4:	00009058 	andeq	r9, r0, r8, asr r0
 2d8:	00000048 	andeq	r0, r0, r8, asr #32
 2dc:	83080e42 	movwhi	r0, #36418	; 0x8e42
 2e0:	00018e02 	andeq	r8, r1, r2, lsl #28
 2e4:	0000000c 	andeq	r0, r0, ip
 2e8:	ffffffff 			; <UNDEFINED> instruction: 0xffffffff
 2ec:	7c020001 	stcvc	0, cr0, [r2], {1}
 2f0:	000d0c0e 	andeq	r0, sp, lr, lsl #24
 2f4:	0000000c 	andeq	r0, r0, ip
 2f8:	000002e4 	andeq	r0, r0, r4, ror #5
 2fc:	000090a0 	andeq	r9, r0, r0, lsr #1
 300:	0000001c 	andeq	r0, r0, ip, lsl r0
 304:	00000014 	andeq	r0, r0, r4, lsl r0
 308:	000002e4 	andeq	r0, r0, r4, ror #5
 30c:	000090bc 	strheq	r9, [r0], -ip
 310:	00000014 	andeq	r0, r0, r4, lsl r0
 314:	83080e42 	movwhi	r0, #36418	; 0x8e42
 318:	00018e02 	andeq	r8, r1, r2, lsl #28
 31c:	00000014 	andeq	r0, r0, r4, lsl r0
 320:	000002e4 	andeq	r0, r0, r4, ror #5
 324:	000090d0 	ldrdeq	r9, [r0], -r0
 328:	0000000c 	andeq	r0, r0, ip
 32c:	83080e42 	movwhi	r0, #36418	; 0x8e42
 330:	00018e02 	andeq	r8, r1, r2, lsl #28
 334:	00000018 	andeq	r0, r0, r8, lsl r0
 338:	000002e4 	andeq	r0, r0, r4, ror #5
 33c:	000090dc 	ldrdeq	r9, [r0], -ip
 340:	00000024 	andeq	r0, r0, r4, lsr #32
 344:	83100e42 	tsthi	r0, #1056	; 0x420
 348:	85038404 	strhi	r8, [r3, #-1028]	; 0x404
 34c:	00018e02 	andeq	r8, r1, r2, lsl #28
 350:	00000014 	andeq	r0, r0, r4, lsl r0
 354:	000002e4 	andeq	r0, r0, r4, ror #5
 358:	00009100 	andeq	r9, r0, r0, lsl #2
 35c:	00000014 	andeq	r0, r0, r4, lsl r0
 360:	83080e42 	movwhi	r0, #36418	; 0x8e42
 364:	00018e02 	andeq	r8, r1, r2, lsl #28
 368:	00000014 	andeq	r0, r0, r4, lsl r0
 36c:	000002e4 	andeq	r0, r0, r4, ror #5
 370:	00009114 	andeq	r9, r0, r4, lsl r1
 374:	00000014 	andeq	r0, r0, r4, lsl r0
 378:	83080e42 	movwhi	r0, #36418	; 0x8e42
 37c:	00018e02 	andeq	r8, r1, r2, lsl #28
 380:	0000000c 	andeq	r0, r0, ip
 384:	ffffffff 			; <UNDEFINED> instruction: 0xffffffff
 388:	7c020001 	stcvc	0, cr0, [r2], {1}
 38c:	000d0c0e 	andeq	r0, sp, lr, lsl #24
 390:	00000018 	andeq	r0, r0, r8, lsl r0
 394:	00000380 	andeq	r0, r0, r0, lsl #7
 398:	00009128 	andeq	r9, r0, r8, lsr #2
 39c:	000000d4 	ldrdeq	r0, [r0], -r4
 3a0:	83100e42 	tsthi	r0, #1056	; 0x420
 3a4:	85038404 	strhi	r8, [r3, #-1028]	; 0x404
 3a8:	00018e02 	andeq	r8, r1, r2, lsl #28
 3ac:	00000014 	andeq	r0, r0, r4, lsl r0
 3b0:	00000380 	andeq	r0, r0, r0, lsl #7
 3b4:	000091fc 	strdeq	r9, [r0], -ip
 3b8:	00000038 	andeq	r0, r0, r8, lsr r0
 3bc:	83080e42 	movwhi	r0, #36418	; 0x8e42
 3c0:	00018e02 	andeq	r8, r1, r2, lsl #28
 3c4:	00000014 	andeq	r0, r0, r4, lsl r0
 3c8:	00000380 	andeq	r0, r0, r0, lsl #7
 3cc:	00009234 	andeq	r9, r0, r4, lsr r2
 3d0:	00000038 	andeq	r0, r0, r8, lsr r0
 3d4:	83080e42 	movwhi	r0, #36418	; 0x8e42
 3d8:	00018e02 	andeq	r8, r1, r2, lsl #28
 3dc:	00000018 	andeq	r0, r0, r8, lsl r0
 3e0:	00000380 	andeq	r0, r0, r0, lsl #7
 3e4:	0000926c 	andeq	r9, r0, ip, ror #4
 3e8:	000000cc 	andeq	r0, r0, ip, asr #1
 3ec:	83100e42 	tsthi	r0, #1056	; 0x420
 3f0:	85038404 	strhi	r8, [r3, #-1028]	; 0x404
 3f4:	00018e02 	andeq	r8, r1, r2, lsl #28
 3f8:	00000014 	andeq	r0, r0, r4, lsl r0
 3fc:	00000380 	andeq	r0, r0, r0, lsl #7
 400:	00009338 	andeq	r9, r0, r8, lsr r3
 404:	0000004c 	andeq	r0, r0, ip, asr #32
 408:	84080e42 	strhi	r0, [r8], #-3650	; 0xe42
 40c:	00018e02 	andeq	r8, r1, r2, lsl #28
 410:	00000014 	andeq	r0, r0, r4, lsl r0
 414:	00000380 	andeq	r0, r0, r0, lsl #7
 418:	00009384 	andeq	r9, r0, r4, lsl #7
 41c:	00000024 	andeq	r0, r0, r4, lsr #32
 420:	83080e42 	movwhi	r0, #36418	; 0x8e42
 424:	00018e02 	andeq	r8, r1, r2, lsl #28
 428:	00000018 	andeq	r0, r0, r8, lsl r0
 42c:	00000380 	andeq	r0, r0, r0, lsl #7
 430:	000093a8 	andeq	r9, r0, r8, lsr #7
 434:	000000d8 	ldrdeq	r0, [r0], -r8
 438:	84100e42 	ldrhi	r0, [r0], #-3650	; 0xe42
 43c:	86038504 	strhi	r8, [r3], -r4, lsl #10
 440:	00018e02 	andeq	r8, r1, r2, lsl #28
 444:	00000014 	andeq	r0, r0, r4, lsl r0
 448:	00000380 	andeq	r0, r0, r0, lsl #7
 44c:	00009480 	andeq	r9, r0, r0, lsl #9
 450:	00000038 	andeq	r0, r0, r8, lsr r0
 454:	83080e42 	movwhi	r0, #36418	; 0x8e42
 458:	00018e02 	andeq	r8, r1, r2, lsl #28
 45c:	00000014 	andeq	r0, r0, r4, lsl r0
 460:	00000380 	andeq	r0, r0, r0, lsl #7
 464:	000094b8 			; <UNDEFINED> instruction: 0x000094b8
 468:	0000002c 	andeq	r0, r0, ip, lsr #32
 46c:	83080e42 	movwhi	r0, #36418	; 0x8e42
 470:	00018e02 	andeq	r8, r1, r2, lsl #28
 474:	00000018 	andeq	r0, r0, r8, lsl r0
 478:	00000380 	andeq	r0, r0, r0, lsl #7
 47c:	000094e4 	andeq	r9, r0, r4, ror #9
 480:	00000084 	andeq	r0, r0, r4, lsl #1
 484:	83100e42 	tsthi	r0, #1056	; 0x420
 488:	85038404 	strhi	r8, [r3, #-1028]	; 0x404
 48c:	00018e02 	andeq	r8, r1, r2, lsl #28
 490:	00000018 	andeq	r0, r0, r8, lsl r0
 494:	00000380 	andeq	r0, r0, r0, lsl #7
 498:	00009568 	andeq	r9, r0, r8, ror #10
 49c:	00000084 	andeq	r0, r0, r4, lsl #1
 4a0:	83100e42 	tsthi	r0, #1056	; 0x420
 4a4:	85038404 	strhi	r8, [r3, #-1028]	; 0x404
 4a8:	00018e02 	andeq	r8, r1, r2, lsl #28
 4ac:	00000014 	andeq	r0, r0, r4, lsl r0
 4b0:	00000380 	andeq	r0, r0, r0, lsl #7
 4b4:	000095ec 	andeq	r9, r0, ip, ror #11
 4b8:	00000084 	andeq	r0, r0, r4, lsl #1
 4bc:	84080e42 	strhi	r0, [r8], #-3650	; 0xe42
 4c0:	00018e02 	andeq	r8, r1, r2, lsl #28
 4c4:	00000014 	andeq	r0, r0, r4, lsl r0
 4c8:	00000380 	andeq	r0, r0, r0, lsl #7
 4cc:	00009670 	andeq	r9, r0, r0, ror r6
 4d0:	00000058 	andeq	r0, r0, r8, asr r0
 4d4:	84080e42 	strhi	r0, [r8], #-3650	; 0xe42
 4d8:	00018e02 	andeq	r8, r1, r2, lsl #28
 4dc:	0000000c 	andeq	r0, r0, ip
 4e0:	ffffffff 			; <UNDEFINED> instruction: 0xffffffff
 4e4:	7c020001 	stcvc	0, cr0, [r2], {1}
 4e8:	000d0c0e 	andeq	r0, sp, lr, lsl #24
 4ec:	0000001c 	andeq	r0, r0, ip, lsl r0
 4f0:	000004dc 	ldrdeq	r0, [r0], -ip
 4f4:	000096c8 	andeq	r9, r0, r8, asr #13
 4f8:	00000154 	andeq	r0, r0, r4, asr r1
 4fc:	84180e42 	ldrhi	r0, [r8], #-3650	; 0xe42
 500:	86058506 	strhi	r8, [r5], -r6, lsl #10
 504:	88038704 	stmdahi	r3, {r2, r8, r9, sl, pc}
 508:	00018e02 	andeq	r8, r1, r2, lsl #28
 50c:	00000020 	andeq	r0, r0, r0, lsr #32
 510:	000004dc 	ldrdeq	r0, [r0], -ip
 514:	0000981c 	andeq	r9, r0, ip, lsl r8
 518:	000001c8 	andeq	r0, r0, r8, asr #3
 51c:	83200e42 	teqhi	r0, #1056	; 0x420
 520:	85078408 	strhi	r8, [r7, #-1032]	; 0x408
 524:	87058606 	strhi	r8, [r5, -r6, lsl #12]
 528:	89038804 	stmdbhi	r3, {r2, fp, pc}
 52c:	00018e02 	andeq	r8, r1, r2, lsl #28
 530:	00000024 	andeq	r0, r0, r4, lsr #32
 534:	000004dc 	ldrdeq	r0, [r0], -ip
 538:	000099e4 	andeq	r9, r0, r4, ror #19
 53c:	000000a4 	andeq	r0, r0, r4, lsr #1
 540:	84200e42 	strthi	r0, [r0], #-3650	; 0xe42
 544:	86078508 	strhi	r8, [r7], -r8, lsl #10
 548:	88058706 	stmdahi	r5, {r1, r2, r8, r9, sl, pc}
 54c:	8a038904 	bhi	e2964 <__bss_end__+0xd828c>
 550:	42018e02 	andmi	r8, r1, #2, 28
 554:	0000280e 	andeq	r2, r0, lr, lsl #16
 558:	00000020 	andeq	r0, r0, r0, lsr #32
 55c:	000004dc 	ldrdeq	r0, [r0], -ip
 560:	00009a88 	andeq	r9, r0, r8, lsl #21
 564:	00000090 	muleq	r0, r0, r0
 568:	84180e42 	ldrhi	r0, [r8], #-3650	; 0xe42
 56c:	86058506 	strhi	r8, [r5], -r6, lsl #10
 570:	88038704 	stmdahi	r3, {r2, r8, r9, sl, pc}
 574:	42018e02 	andmi	r8, r1, #2, 28
 578:	0000200e 	andeq	r2, r0, lr
 57c:	00000020 	andeq	r0, r0, r0, lsr #32
 580:	000004dc 	ldrdeq	r0, [r0], -ip
 584:	00009b18 	andeq	r9, r0, r8, lsl fp
 588:	000000d4 	ldrdeq	r0, [r0], -r4
 58c:	84180e42 	ldrhi	r0, [r8], #-3650	; 0xe42
 590:	86058506 	strhi	r8, [r5], -r6, lsl #10
 594:	88038704 	stmdahi	r3, {r2, r8, r9, sl, pc}
 598:	42018e02 	andmi	r8, r1, #2, 28
 59c:	0000200e 	andeq	r2, r0, lr
 5a0:	00000014 	andeq	r0, r0, r4, lsl r0
 5a4:	000004dc 	ldrdeq	r0, [r0], -ip
 5a8:	00009bec 	andeq	r9, r0, ip, ror #23
 5ac:	0000003c 	andeq	r0, r0, ip, lsr r0
 5b0:	83080e42 	movwhi	r0, #36418	; 0x8e42
 5b4:	00018e02 	andeq	r8, r1, r2, lsl #28
 5b8:	00000018 	andeq	r0, r0, r8, lsl r0
 5bc:	000004dc 	ldrdeq	r0, [r0], -ip
 5c0:	00009c28 	andeq	r9, r0, r8, lsr #24
 5c4:	0000002c 	andeq	r0, r0, ip, lsr #32
 5c8:	83100e42 	tsthi	r0, #1056	; 0x420
 5cc:	85038404 	strhi	r8, [r3, #-1028]	; 0x404
 5d0:	00018e02 	andeq	r8, r1, r2, lsl #28
 5d4:	00000024 	andeq	r0, r0, r4, lsr #32
 5d8:	000004dc 	ldrdeq	r0, [r0], -ip
 5dc:	00009c54 	andeq	r9, r0, r4, asr ip
 5e0:	00000090 	muleq	r0, r0, r0
 5e4:	810c0e42 	tsthi	ip, r2, asr #28
 5e8:	83028203 	movwhi	r8, #8707	; 0x2203
 5ec:	180e4201 	stmdane	lr, {r0, r9, lr}
 5f0:	05850684 	streq	r0, [r5, #1668]	; 0x684
 5f4:	0e42048e 	cdpeq	4, 4, cr0, cr2, cr14, {4}
 5f8:	000003f0 	strdeq	r0, [r0], -r0	; <UNPREDICTABLE>
 5fc:	00000014 	andeq	r0, r0, r4, lsl r0
 600:	000004dc 	ldrdeq	r0, [r0], -ip
 604:	00009ce4 	andeq	r9, r0, r4, ror #25
 608:	0000004c 	andeq	r0, r0, ip, asr #32
 60c:	8e040e42 	cdphi	14, 0, cr0, cr4, cr2, {2}
 610:	100e4201 	andne	r4, lr, r1, lsl #4
 614:	0000000c 	andeq	r0, r0, ip
 618:	ffffffff 			; <UNDEFINED> instruction: 0xffffffff
 61c:	7c020001 	stcvc	0, cr0, [r2], {1}
 620:	000d0c0e 	andeq	r0, sp, lr, lsl #24
 624:	00000018 	andeq	r0, r0, r8, lsl r0
 628:	00000614 	andeq	r0, r0, r4, lsl r6
 62c:	00009d30 	andeq	r9, r0, r0, lsr sp
 630:	0000009c 	muleq	r0, ip, r0
 634:	83100e42 	tsthi	r0, #1056	; 0x420
 638:	85038404 	strhi	r8, [r3, #-1028]	; 0x404
 63c:	00018e02 	andeq	r8, r1, r2, lsl #28
 640:	00000014 	andeq	r0, r0, r4, lsl r0
 644:	00000614 	andeq	r0, r0, r4, lsl r6
 648:	00009dcc 	andeq	r9, r0, ip, asr #27
 64c:	0000001c 	andeq	r0, r0, ip, lsl r0
 650:	83080e42 	movwhi	r0, #36418	; 0x8e42
 654:	00018e02 	andeq	r8, r1, r2, lsl #28
 658:	00000014 	andeq	r0, r0, r4, lsl r0
 65c:	00000614 	andeq	r0, r0, r4, lsl r6
 660:	00009de8 	andeq	r9, r0, r8, ror #27
 664:	00000028 	andeq	r0, r0, r8, lsr #32
 668:	83080e42 	movwhi	r0, #36418	; 0x8e42
 66c:	00018e02 	andeq	r8, r1, r2, lsl #28
 670:	00000014 	andeq	r0, r0, r4, lsl r0
 674:	00000614 	andeq	r0, r0, r4, lsl r6
 678:	00009e10 	andeq	r9, r0, r0, lsl lr
 67c:	0000001c 	andeq	r0, r0, ip, lsl r0
 680:	83080e42 	movwhi	r0, #36418	; 0x8e42
 684:	00018e02 	andeq	r8, r1, r2, lsl #28
 688:	00000014 	andeq	r0, r0, r4, lsl r0
 68c:	00000614 	andeq	r0, r0, r4, lsl r6
 690:	00009e2c 	andeq	r9, r0, ip, lsr #28
 694:	0000002c 	andeq	r0, r0, ip, lsr #32
 698:	84080e42 	strhi	r0, [r8], #-3650	; 0xe42
 69c:	00018e02 	andeq	r8, r1, r2, lsl #28
 6a0:	00000014 	andeq	r0, r0, r4, lsl r0
 6a4:	00000614 	andeq	r0, r0, r4, lsl r6
 6a8:	00009e58 	andeq	r9, r0, r8, asr lr
 6ac:	0000000c 	andeq	r0, r0, ip
 6b0:	83080e42 	movwhi	r0, #36418	; 0x8e42
 6b4:	00018e02 	andeq	r8, r1, r2, lsl #28
 6b8:	00000014 	andeq	r0, r0, r4, lsl r0
 6bc:	00000614 	andeq	r0, r0, r4, lsl r6
 6c0:	00009e64 	andeq	r9, r0, r4, ror #28
 6c4:	00000020 	andeq	r0, r0, r0, lsr #32
 6c8:	83080e42 	movwhi	r0, #36418	; 0x8e42
 6cc:	00018e02 	andeq	r8, r1, r2, lsl #28
 6d0:	0000000c 	andeq	r0, r0, ip
 6d4:	ffffffff 			; <UNDEFINED> instruction: 0xffffffff
 6d8:	7c020001 	stcvc	0, cr0, [r2], {1}
 6dc:	000d0c0e 	andeq	r0, sp, lr, lsl #24
 6e0:	00000014 	andeq	r0, r0, r4, lsl r0
 6e4:	000006d0 	ldrdeq	r0, [r0], -r0	; <UNPREDICTABLE>
 6e8:	00009ee8 	andeq	r9, r0, r8, ror #29
 6ec:	00000028 	andeq	r0, r0, r8, lsr #32
 6f0:	83080e42 	movwhi	r0, #36418	; 0x8e42
 6f4:	00018e02 	andeq	r8, r1, r2, lsl #28
 6f8:	0000000c 	andeq	r0, r0, ip
 6fc:	000006d0 	ldrdeq	r0, [r0], -r0	; <UNPREDICTABLE>
 700:	00009f10 	andeq	r9, r0, r0, lsl pc
 704:	00000028 	andeq	r0, r0, r8, lsr #32
 708:	0000000c 	andeq	r0, r0, ip
 70c:	ffffffff 			; <UNDEFINED> instruction: 0xffffffff
 710:	7c020001 	stcvc	0, cr0, [r2], {1}
 714:	000d0c0e 	andeq	r0, sp, lr, lsl #24
 718:	0000000c 	andeq	r0, r0, ip
 71c:	00000708 	andeq	r0, r0, r8, lsl #14
 720:	00009f38 	andeq	r9, r0, r8, lsr pc
 724:	00000020 	andeq	r0, r0, r0, lsr #32
