
test-gen.elf:     file format elf32-littlearm


Disassembly of section .text:

00008000 <_start>:
    8000:	e3a0d302 	mov	sp, #134217728	; 0x8000000
    8004:	e3a0b000 	mov	fp, #0
    8008:	eb000341 	bl	8d14 <_cstart>
    800c:	eb00036f 	bl	8dd0 <rpi_reboot>

00008010 <scope.constprop.3>:
    8010:	e92d03f0 	push	{r4, r5, r6, r7, r8, r9}
    8014:	e59f2168 	ldr	r2, [pc, #360]	; 8184 <scope.constprop.3+0x174>
    8018:	e5923034 	ldr	r3, [r2, #52]	; 0x34
    801c:	e3130601 	tst	r3, #1048576	; 0x100000
    8020:	1afffffc 	bne	8018 <scope.constprop.3+0x8>
    8024:	ee1f3f3c 	mrc	15, 0, r3, cr15, cr12, {1}
    8028:	e59f1158 	ldr	r1, [pc, #344]	; 8188 <scope.constprop.3+0x178>
    802c:	ee1f2f3c 	mrc	15, 0, r2, cr15, cr12, {1}
    8030:	e0632002 	rsb	r2, r3, r2
    8034:	e1520001 	cmp	r2, r1
    8038:	9afffffb 	bls	802c <scope.constprop.3+0x1c>
    803c:	e59f2140 	ldr	r2, [pc, #320]	; 8184 <scope.constprop.3+0x174>
    8040:	e59f1144 	ldr	r1, [pc, #324]	; 818c <scope.constprop.3+0x17c>
    8044:	e5924034 	ldr	r4, [r2, #52]	; 0x34
    8048:	e2044601 	and	r4, r4, #1048576	; 0x100000
    804c:	e1a04a24 	lsr	r4, r4, #20
    8050:	ee1f2f3c 	mrc	15, 0, r2, cr15, cr12, {1}
    8054:	e0632002 	rsb	r2, r3, r2
    8058:	e1520001 	cmp	r2, r1
    805c:	9afffffb 	bls	8050 <scope.constprop.3+0x40>
    8060:	e59f211c 	ldr	r2, [pc, #284]	; 8184 <scope.constprop.3+0x174>
    8064:	e59f1124 	ldr	r1, [pc, #292]	; 8190 <scope.constprop.3+0x180>
    8068:	e5925034 	ldr	r5, [r2, #52]	; 0x34
    806c:	e2055601 	and	r5, r5, #1048576	; 0x100000
    8070:	e1a05a25 	lsr	r5, r5, #20
    8074:	ee1f2f3c 	mrc	15, 0, r2, cr15, cr12, {1}
    8078:	e0632002 	rsb	r2, r3, r2
    807c:	e1520001 	cmp	r2, r1
    8080:	9afffffb 	bls	8074 <scope.constprop.3+0x64>
    8084:	e59f20f8 	ldr	r2, [pc, #248]	; 8184 <scope.constprop.3+0x174>
    8088:	e59f1104 	ldr	r1, [pc, #260]	; 8194 <scope.constprop.3+0x184>
    808c:	e5926034 	ldr	r6, [r2, #52]	; 0x34
    8090:	e2066601 	and	r6, r6, #1048576	; 0x100000
    8094:	e1a06a26 	lsr	r6, r6, #20
    8098:	ee1f2f3c 	mrc	15, 0, r2, cr15, cr12, {1}
    809c:	e0632002 	rsb	r2, r3, r2
    80a0:	e1520001 	cmp	r2, r1
    80a4:	9afffffb 	bls	8098 <scope.constprop.3+0x88>
    80a8:	e59f20d4 	ldr	r2, [pc, #212]	; 8184 <scope.constprop.3+0x174>
    80ac:	e59f10e4 	ldr	r1, [pc, #228]	; 8198 <scope.constprop.3+0x188>
    80b0:	e592c034 	ldr	ip, [r2, #52]	; 0x34
    80b4:	e20cc601 	and	ip, ip, #1048576	; 0x100000
    80b8:	e1a0ca2c 	lsr	ip, ip, #20
    80bc:	ee1f2f3c 	mrc	15, 0, r2, cr15, cr12, {1}
    80c0:	e0632002 	rsb	r2, r3, r2
    80c4:	e1520001 	cmp	r2, r1
    80c8:	9afffffb 	bls	80bc <scope.constprop.3+0xac>
    80cc:	e59f20b0 	ldr	r2, [pc, #176]	; 8184 <scope.constprop.3+0x174>
    80d0:	e59f00c4 	ldr	r0, [pc, #196]	; 819c <scope.constprop.3+0x18c>
    80d4:	e5921034 	ldr	r1, [r2, #52]	; 0x34
    80d8:	e2011601 	and	r1, r1, #1048576	; 0x100000
    80dc:	e1a01a21 	lsr	r1, r1, #20
    80e0:	ee1f2f3c 	mrc	15, 0, r2, cr15, cr12, {1}
    80e4:	e0632002 	rsb	r2, r3, r2
    80e8:	e1520000 	cmp	r2, r0
    80ec:	9afffffb 	bls	80e0 <scope.constprop.3+0xd0>
    80f0:	e59f208c 	ldr	r2, [pc, #140]	; 8184 <scope.constprop.3+0x174>
    80f4:	e59f00a4 	ldr	r0, [pc, #164]	; 81a0 <scope.constprop.3+0x190>
    80f8:	e5927034 	ldr	r7, [r2, #52]	; 0x34
    80fc:	e2077601 	and	r7, r7, #1048576	; 0x100000
    8100:	e1a07a27 	lsr	r7, r7, #20
    8104:	ee1f2f3c 	mrc	15, 0, r2, cr15, cr12, {1}
    8108:	e0632002 	rsb	r2, r3, r2
    810c:	e1520000 	cmp	r2, r0
    8110:	9afffffb 	bls	8104 <scope.constprop.3+0xf4>
    8114:	e59f2068 	ldr	r2, [pc, #104]	; 8184 <scope.constprop.3+0x174>
    8118:	e59f0084 	ldr	r0, [pc, #132]	; 81a4 <scope.constprop.3+0x194>
    811c:	e5929034 	ldr	r9, [r2, #52]	; 0x34
    8120:	e2099601 	and	r9, r9, #1048576	; 0x100000
    8124:	e1a09a29 	lsr	r9, r9, #20
    8128:	ee1f2f3c 	mrc	15, 0, r2, cr15, cr12, {1}
    812c:	e0632002 	rsb	r2, r3, r2
    8130:	e1520000 	cmp	r2, r0
    8134:	9afffffb 	bls	8128 <scope.constprop.3+0x118>
    8138:	e59f2044 	ldr	r2, [pc, #68]	; 8184 <scope.constprop.3+0x174>
    813c:	e59f8064 	ldr	r8, [pc, #100]	; 81a8 <scope.constprop.3+0x198>
    8140:	e5920034 	ldr	r0, [r2, #52]	; 0x34
    8144:	e2000601 	and	r0, r0, #1048576	; 0x100000
    8148:	e1a00a20 	lsr	r0, r0, #20
    814c:	ee1f2f3c 	mrc	15, 0, r2, cr15, cr12, {1}
    8150:	e0632002 	rsb	r2, r3, r2
    8154:	e1520008 	cmp	r2, r8
    8158:	9afffffb 	bls	814c <scope.constprop.3+0x13c>
    815c:	e1a06106 	lsl	r6, r6, #2
    8160:	e1865085 	orr	r5, r6, r5, lsl #1
    8164:	e1854004 	orr	r4, r5, r4
    8168:	e184c18c 	orr	ip, r4, ip, lsl #3
    816c:	e18c1201 	orr	r1, ip, r1, lsl #4
    8170:	e1817287 	orr	r7, r1, r7, lsl #5
    8174:	e1879309 	orr	r9, r7, r9, lsl #6
    8178:	e1890380 	orr	r0, r9, r0, lsl #7
    817c:	e8bd03f0 	pop	{r4, r5, r6, r7, r8, r9}
    8180:	e12fff1e 	bx	lr
    8184:	20200000 	eorcs	r0, r0, r0
    8188:	00002399 	muleq	r0, r9, r3
    818c:	00002f77 	andeq	r2, r0, r7, ror pc
    8190:	00004733 	andeq	r4, r0, r3, lsr r7
    8194:	00005eef 	andeq	r5, r0, pc, ror #29
    8198:	000076ab 	andeq	r7, r0, fp, lsr #13
    819c:	00008e67 	andeq	r8, r0, r7, ror #28
    81a0:	0000a623 	andeq	sl, r0, r3, lsr #12
    81a4:	0000bddf 	ldrdeq	fp, [r0], -pc	; <UNPREDICTABLE>
    81a8:	0000d59b 	muleq	r0, fp, r5

000081ac <cycles_per_sec>:
    81ac:	e3500001 	cmp	r0, #1
    81b0:	e92d4010 	push	{r4, lr}
    81b4:	8a000006 	bhi	81d4 <cycles_per_sec+0x28>
    81b8:	ee1f4f3c 	mrc	15, 0, r4, cr15, cr12, {1}
    81bc:	e3a03ffa 	mov	r3, #1000	; 0x3e8
    81c0:	e0000093 	mul	r0, r3, r0
    81c4:	eb00032b 	bl	8e78 <delay_ms>
    81c8:	ee1f0f3c 	mrc	15, 0, r0, cr15, cr12, {1}
    81cc:	e0640000 	rsb	r0, r4, r0
    81d0:	e8bd8010 	pop	{r4, pc}
    81d4:	eb000154 	bl	872c <rpi_reset_putc>
    81d8:	e59f1010 	ldr	r1, [pc, #16]	; 81f0 <cycles_per_sec+0x44>
    81dc:	e59f2010 	ldr	r2, [pc, #16]	; 81f4 <cycles_per_sec+0x48>
    81e0:	e3a03038 	mov	r3, #56	; 0x38
    81e4:	e59f000c 	ldr	r0, [pc, #12]	; 81f8 <cycles_per_sec+0x4c>
    81e8:	eb000134 	bl	86c0 <printk>
    81ec:	eb0002b6 	bl	8ccc <clean_reboot>
    81f0:	00009dac 	andeq	r9, r0, ip, lsr #27
    81f4:	00009d6c 	andeq	r9, r0, ip, ror #26
    81f8:	00009d7c 	andeq	r9, r0, ip, ror sp

000081fc <scope>:
    81fc:	e92d03f0 	push	{r4, r5, r6, r7, r8, r9}
    8200:	e59f2168 	ldr	r2, [pc, #360]	; 8370 <scope+0x174>
    8204:	e5923034 	ldr	r3, [r2, #52]	; 0x34
    8208:	e3130601 	tst	r3, #1048576	; 0x100000
    820c:	1afffffc 	bne	8204 <scope+0x8>
    8210:	ee1f3f3c 	mrc	15, 0, r3, cr15, cr12, {1}
    8214:	e59f1158 	ldr	r1, [pc, #344]	; 8374 <scope+0x178>
    8218:	ee1f2f3c 	mrc	15, 0, r2, cr15, cr12, {1}
    821c:	e0632002 	rsb	r2, r3, r2
    8220:	e1520001 	cmp	r2, r1
    8224:	9afffffb 	bls	8218 <scope+0x1c>
    8228:	e59f2140 	ldr	r2, [pc, #320]	; 8370 <scope+0x174>
    822c:	e59f1144 	ldr	r1, [pc, #324]	; 8378 <scope+0x17c>
    8230:	e5924034 	ldr	r4, [r2, #52]	; 0x34
    8234:	e2044601 	and	r4, r4, #1048576	; 0x100000
    8238:	e1a04a24 	lsr	r4, r4, #20
    823c:	ee1f2f3c 	mrc	15, 0, r2, cr15, cr12, {1}
    8240:	e0632002 	rsb	r2, r3, r2
    8244:	e1520001 	cmp	r2, r1
    8248:	9afffffb 	bls	823c <scope+0x40>
    824c:	e59f211c 	ldr	r2, [pc, #284]	; 8370 <scope+0x174>
    8250:	e59f1124 	ldr	r1, [pc, #292]	; 837c <scope+0x180>
    8254:	e5925034 	ldr	r5, [r2, #52]	; 0x34
    8258:	e2055601 	and	r5, r5, #1048576	; 0x100000
    825c:	e1a05a25 	lsr	r5, r5, #20
    8260:	ee1f2f3c 	mrc	15, 0, r2, cr15, cr12, {1}
    8264:	e0632002 	rsb	r2, r3, r2
    8268:	e1520001 	cmp	r2, r1
    826c:	9afffffb 	bls	8260 <scope+0x64>
    8270:	e59f20f8 	ldr	r2, [pc, #248]	; 8370 <scope+0x174>
    8274:	e59f1104 	ldr	r1, [pc, #260]	; 8380 <scope+0x184>
    8278:	e5926034 	ldr	r6, [r2, #52]	; 0x34
    827c:	e2066601 	and	r6, r6, #1048576	; 0x100000
    8280:	e1a06a26 	lsr	r6, r6, #20
    8284:	ee1f2f3c 	mrc	15, 0, r2, cr15, cr12, {1}
    8288:	e0632002 	rsb	r2, r3, r2
    828c:	e1520001 	cmp	r2, r1
    8290:	9afffffb 	bls	8284 <scope+0x88>
    8294:	e59f20d4 	ldr	r2, [pc, #212]	; 8370 <scope+0x174>
    8298:	e59f10e4 	ldr	r1, [pc, #228]	; 8384 <scope+0x188>
    829c:	e592c034 	ldr	ip, [r2, #52]	; 0x34
    82a0:	e20cc601 	and	ip, ip, #1048576	; 0x100000
    82a4:	e1a0ca2c 	lsr	ip, ip, #20
    82a8:	ee1f2f3c 	mrc	15, 0, r2, cr15, cr12, {1}
    82ac:	e0632002 	rsb	r2, r3, r2
    82b0:	e1520001 	cmp	r2, r1
    82b4:	9afffffb 	bls	82a8 <scope+0xac>
    82b8:	e59f20b0 	ldr	r2, [pc, #176]	; 8370 <scope+0x174>
    82bc:	e59f00c4 	ldr	r0, [pc, #196]	; 8388 <scope+0x18c>
    82c0:	e5921034 	ldr	r1, [r2, #52]	; 0x34
    82c4:	e2011601 	and	r1, r1, #1048576	; 0x100000
    82c8:	e1a01a21 	lsr	r1, r1, #20
    82cc:	ee1f2f3c 	mrc	15, 0, r2, cr15, cr12, {1}
    82d0:	e0632002 	rsb	r2, r3, r2
    82d4:	e1520000 	cmp	r2, r0
    82d8:	9afffffb 	bls	82cc <scope+0xd0>
    82dc:	e59f208c 	ldr	r2, [pc, #140]	; 8370 <scope+0x174>
    82e0:	e59f00a4 	ldr	r0, [pc, #164]	; 838c <scope+0x190>
    82e4:	e5927034 	ldr	r7, [r2, #52]	; 0x34
    82e8:	e2077601 	and	r7, r7, #1048576	; 0x100000
    82ec:	e1a07a27 	lsr	r7, r7, #20
    82f0:	ee1f2f3c 	mrc	15, 0, r2, cr15, cr12, {1}
    82f4:	e0632002 	rsb	r2, r3, r2
    82f8:	e1520000 	cmp	r2, r0
    82fc:	9afffffb 	bls	82f0 <scope+0xf4>
    8300:	e59f2068 	ldr	r2, [pc, #104]	; 8370 <scope+0x174>
    8304:	e59f0084 	ldr	r0, [pc, #132]	; 8390 <scope+0x194>
    8308:	e5929034 	ldr	r9, [r2, #52]	; 0x34
    830c:	e2099601 	and	r9, r9, #1048576	; 0x100000
    8310:	e1a09a29 	lsr	r9, r9, #20
    8314:	ee1f2f3c 	mrc	15, 0, r2, cr15, cr12, {1}
    8318:	e0632002 	rsb	r2, r3, r2
    831c:	e1520000 	cmp	r2, r0
    8320:	9afffffb 	bls	8314 <scope+0x118>
    8324:	e59f2044 	ldr	r2, [pc, #68]	; 8370 <scope+0x174>
    8328:	e59f8064 	ldr	r8, [pc, #100]	; 8394 <scope+0x198>
    832c:	e5920034 	ldr	r0, [r2, #52]	; 0x34
    8330:	e2000601 	and	r0, r0, #1048576	; 0x100000
    8334:	e1a00a20 	lsr	r0, r0, #20
    8338:	ee1f2f3c 	mrc	15, 0, r2, cr15, cr12, {1}
    833c:	e0632002 	rsb	r2, r3, r2
    8340:	e1520008 	cmp	r2, r8
    8344:	9afffffb 	bls	8338 <scope+0x13c>
    8348:	e1a06106 	lsl	r6, r6, #2
    834c:	e1865085 	orr	r5, r6, r5, lsl #1
    8350:	e1854004 	orr	r4, r5, r4
    8354:	e184c18c 	orr	ip, r4, ip, lsl #3
    8358:	e18c1201 	orr	r1, ip, r1, lsl #4
    835c:	e1817287 	orr	r7, r1, r7, lsl #5
    8360:	e1879309 	orr	r9, r7, r9, lsl #6
    8364:	e1890380 	orr	r0, r9, r0, lsl #7
    8368:	e8bd03f0 	pop	{r4, r5, r6, r7, r8, r9}
    836c:	e12fff1e 	bx	lr
    8370:	20200000 	eorcs	r0, r0, r0
    8374:	00002399 	muleq	r0, r9, r3
    8378:	00002f77 	andeq	r2, r0, r7, ror pc
    837c:	00004733 	andeq	r4, r0, r3, lsr r7
    8380:	00005eef 	andeq	r5, r0, pc, ror #29
    8384:	000076ab 	andeq	r7, r0, fp, lsr #13
    8388:	00008e67 	andeq	r8, r0, r7, ror #28
    838c:	0000a623 	andeq	sl, r0, r3, lsr #12
    8390:	0000bddf 	ldrdeq	fp, [r0], -pc	; <UNPREDICTABLE>
    8394:	0000d59b 	muleq	r0, fp, r5

00008398 <test_gen>:
    8398:	e92d0070 	push	{r4, r5, r6}
    839c:	ee1f3f3c 	mrc	15, 0, r3, cr15, cr12, {1}
    83a0:	e3a0c001 	mov	ip, #1
    83a4:	e1a0001c 	lsl	r0, ip, r0
    83a8:	e59fc1f0 	ldr	ip, [pc, #496]	; 85a0 <test_gen+0x208>
    83ac:	e59c4028 	ldr	r4, [ip, #40]	; 0x28
    83b0:	e1804004 	orr	r4, r0, r4
    83b4:	e58c4028 	str	r4, [ip, #40]	; 0x28
    83b8:	ee1fcf3c 	mrc	15, 0, ip, cr15, cr12, {1}
    83bc:	e063c00c 	rsb	ip, r3, ip
    83c0:	e15c0002 	cmp	ip, r2
    83c4:	3afffffb 	bcc	83b8 <test_gen+0x20>
    83c8:	e59fc1d0 	ldr	ip, [pc, #464]	; 85a0 <test_gen+0x208>
    83cc:	e3110001 	tst	r1, #1
    83d0:	159c401c 	ldrne	r4, [ip, #28]
    83d4:	059c4028 	ldreq	r4, [ip, #40]	; 0x28
    83d8:	11804004 	orrne	r4, r0, r4
    83dc:	01804004 	orreq	r4, r0, r4
    83e0:	158c401c 	strne	r4, [ip, #28]
    83e4:	058c4028 	streq	r4, [ip, #40]	; 0x28
    83e8:	e1a05082 	lsl	r5, r2, #1
    83ec:	ee1fcf3c 	mrc	15, 0, ip, cr15, cr12, {1}
    83f0:	e063c00c 	rsb	ip, r3, ip
    83f4:	e15c0005 	cmp	ip, r5
    83f8:	3afffffb 	bcc	83ec <test_gen+0x54>
    83fc:	e59fc19c 	ldr	ip, [pc, #412]	; 85a0 <test_gen+0x208>
    8400:	e3110002 	tst	r1, #2
    8404:	159c401c 	ldrne	r4, [ip, #28]
    8408:	059c4028 	ldreq	r4, [ip, #40]	; 0x28
    840c:	11804004 	orrne	r4, r0, r4
    8410:	01804004 	orreq	r4, r0, r4
    8414:	158c401c 	strne	r4, [ip, #28]
    8418:	058c4028 	streq	r4, [ip, #40]	; 0x28
    841c:	e0854002 	add	r4, r5, r2
    8420:	ee1fcf3c 	mrc	15, 0, ip, cr15, cr12, {1}
    8424:	e063c00c 	rsb	ip, r3, ip
    8428:	e15c0004 	cmp	ip, r4
    842c:	3afffffb 	bcc	8420 <test_gen+0x88>
    8430:	e59fc168 	ldr	ip, [pc, #360]	; 85a0 <test_gen+0x208>
    8434:	e3110004 	tst	r1, #4
    8438:	159c401c 	ldrne	r4, [ip, #28]
    843c:	059c4028 	ldreq	r4, [ip, #40]	; 0x28
    8440:	11804004 	orrne	r4, r0, r4
    8444:	01804004 	orreq	r4, r0, r4
    8448:	158c401c 	strne	r4, [ip, #28]
    844c:	058c4028 	streq	r4, [ip, #40]	; 0x28
    8450:	e1a04102 	lsl	r4, r2, #2
    8454:	ee1fcf3c 	mrc	15, 0, ip, cr15, cr12, {1}
    8458:	e063c00c 	rsb	ip, r3, ip
    845c:	e15c0004 	cmp	ip, r4
    8460:	3afffffb 	bcc	8454 <test_gen+0xbc>
    8464:	e59fc134 	ldr	ip, [pc, #308]	; 85a0 <test_gen+0x208>
    8468:	e3110008 	tst	r1, #8
    846c:	159c601c 	ldrne	r6, [ip, #28]
    8470:	059c6028 	ldreq	r6, [ip, #40]	; 0x28
    8474:	11806006 	orrne	r6, r0, r6
    8478:	01806006 	orreq	r6, r0, r6
    847c:	158c601c 	strne	r6, [ip, #28]
    8480:	058c6028 	streq	r6, [ip, #40]	; 0x28
    8484:	e0846002 	add	r6, r4, r2
    8488:	ee1fcf3c 	mrc	15, 0, ip, cr15, cr12, {1}
    848c:	e063c00c 	rsb	ip, r3, ip
    8490:	e15c0006 	cmp	ip, r6
    8494:	3afffffb 	bcc	8488 <test_gen+0xf0>
    8498:	e59fc100 	ldr	ip, [pc, #256]	; 85a0 <test_gen+0x208>
    849c:	e3110010 	tst	r1, #16
    84a0:	159c601c 	ldrne	r6, [ip, #28]
    84a4:	059c6028 	ldreq	r6, [ip, #40]	; 0x28
    84a8:	11806006 	orrne	r6, r0, r6
    84ac:	01806006 	orreq	r6, r0, r6
    84b0:	e0855002 	add	r5, r5, r2
    84b4:	158c601c 	strne	r6, [ip, #28]
    84b8:	058c6028 	streq	r6, [ip, #40]	; 0x28
    84bc:	e1a05085 	lsl	r5, r5, #1
    84c0:	ee1fcf3c 	mrc	15, 0, ip, cr15, cr12, {1}
    84c4:	e063c00c 	rsb	ip, r3, ip
    84c8:	e15c0005 	cmp	ip, r5
    84cc:	3afffffb 	bcc	84c0 <test_gen+0x128>
    84d0:	e59fc0c8 	ldr	ip, [pc, #200]	; 85a0 <test_gen+0x208>
    84d4:	e3110020 	tst	r1, #32
    84d8:	159c501c 	ldrne	r5, [ip, #28]
    84dc:	059c5028 	ldreq	r5, [ip, #40]	; 0x28
    84e0:	11805005 	orrne	r5, r0, r5
    84e4:	01805005 	orreq	r5, r0, r5
    84e8:	158c501c 	strne	r5, [ip, #28]
    84ec:	058c5028 	streq	r5, [ip, #40]	; 0x28
    84f0:	e1a05182 	lsl	r5, r2, #3
    84f4:	e0626005 	rsb	r6, r2, r5
    84f8:	ee1fcf3c 	mrc	15, 0, ip, cr15, cr12, {1}
    84fc:	e063c00c 	rsb	ip, r3, ip
    8500:	e15c0006 	cmp	ip, r6
    8504:	3afffffb 	bcc	84f8 <test_gen+0x160>
    8508:	e59fc090 	ldr	ip, [pc, #144]	; 85a0 <test_gen+0x208>
    850c:	e3110040 	tst	r1, #64	; 0x40
    8510:	159c601c 	ldrne	r6, [ip, #28]
    8514:	059c6028 	ldreq	r6, [ip, #40]	; 0x28
    8518:	11806006 	orrne	r6, r0, r6
    851c:	01806006 	orreq	r6, r0, r6
    8520:	158c601c 	strne	r6, [ip, #28]
    8524:	058c6028 	streq	r6, [ip, #40]	; 0x28
    8528:	ee1fcf3c 	mrc	15, 0, ip, cr15, cr12, {1}
    852c:	e063c00c 	rsb	ip, r3, ip
    8530:	e15c0005 	cmp	ip, r5
    8534:	3afffffb 	bcc	8528 <test_gen+0x190>
    8538:	e3110080 	tst	r1, #128	; 0x80
    853c:	e59f105c 	ldr	r1, [pc, #92]	; 85a0 <test_gen+0x208>
    8540:	e0855002 	add	r5, r5, r2
    8544:	1591c01c 	ldrne	ip, [r1, #28]
    8548:	0591c028 	ldreq	ip, [r1, #40]	; 0x28
    854c:	1180c00c 	orrne	ip, r0, ip
    8550:	0180c00c 	orreq	ip, r0, ip
    8554:	1581c01c 	strne	ip, [r1, #28]
    8558:	0581c028 	streq	ip, [r1, #40]	; 0x28
    855c:	ee1f1f3c 	mrc	15, 0, r1, cr15, cr12, {1}
    8560:	e0631001 	rsb	r1, r3, r1
    8564:	e1510005 	cmp	r1, r5
    8568:	3afffffb 	bcc	855c <test_gen+0x1c4>
    856c:	e59f102c 	ldr	r1, [pc, #44]	; 85a0 <test_gen+0x208>
    8570:	e0844002 	add	r4, r4, r2
    8574:	e591c01c 	ldr	ip, [r1, #28]
    8578:	e1a04084 	lsl	r4, r4, #1
    857c:	e180000c 	orr	r0, r0, ip
    8580:	e581001c 	str	r0, [r1, #28]
    8584:	ee1f2f3c 	mrc	15, 0, r2, cr15, cr12, {1}
    8588:	e0632002 	rsb	r2, r3, r2
    858c:	e1520004 	cmp	r2, r4
    8590:	3afffffb 	bcc	8584 <test_gen+0x1ec>
    8594:	ee1f3f3c 	mrc	15, 0, r3, cr15, cr12, {1}
    8598:	e8bd0070 	pop	{r4, r5, r6}
    859c:	e12fff1e 	bx	lr
    85a0:	20200000 	eorcs	r0, r0, r0

000085a4 <notmain>:
    85a4:	e92d4070 	push	{r4, r5, r6, lr}
    85a8:	e3a00015 	mov	r0, #21
    85ac:	eb00023b 	bl	8ea0 <gpio_set_output>
    85b0:	e3a00014 	mov	r0, #20
    85b4:	eb00028a 	bl	8fe4 <gpio_set_input>
    85b8:	eb0001bb 	bl	8cac <enable_cache>
    85bc:	e59f30e4 	ldr	r3, [pc, #228]	; 86a8 <notmain+0x104>
    85c0:	e59f00e4 	ldr	r0, [pc, #228]	; 86ac <notmain+0x108>
    85c4:	e593201c 	ldr	r2, [r3, #28]
    85c8:	e3822602 	orr	r2, r2, #2097152	; 0x200000
    85cc:	e583201c 	str	r2, [r3, #28]
    85d0:	eb000228 	bl	8e78 <delay_ms>
    85d4:	e3a03001 	mov	r3, #1
    85d8:	ee0f3f1c 	mcr	15, 0, r3, cr15, cr12, {0}
    85dc:	e3a00014 	mov	r0, #20
    85e0:	eb0002b2 	bl	90b0 <gpio_read>
    85e4:	e2504000 	subs	r4, r0, #0
    85e8:	1a000017 	bne	864c <notmain+0xa8>
    85ec:	e59f00bc 	ldr	r0, [pc, #188]	; 86b0 <notmain+0x10c>
    85f0:	eb000032 	bl	86c0 <printk>
    85f4:	e1a01004 	mov	r1, r4
    85f8:	e3a00015 	mov	r0, #21
    85fc:	e59f20b0 	ldr	r2, [pc, #176]	; 86b4 <notmain+0x110>
    8600:	ebffff64 	bl	8398 <test_gen>
    8604:	e3a04001 	mov	r4, #1
    8608:	ebfffe80 	bl	8010 <scope.constprop.3>
    860c:	e1500004 	cmp	r0, r4
    8610:	1afffffc 	bne	8608 <notmain+0x64>
    8614:	e3a00001 	mov	r0, #1
    8618:	e0845000 	add	r5, r4, r0
    861c:	eb000215 	bl	8e78 <delay_ms>
    8620:	e6ef1075 	uxtb	r1, r5
    8624:	e3a00015 	mov	r0, #21
    8628:	e59f2084 	ldr	r2, [pc, #132]	; 86b4 <notmain+0x110>
    862c:	ebffff59 	bl	8398 <test_gen>
    8630:	e35500fd 	cmp	r5, #253	; 0xfd
    8634:	e2844002 	add	r4, r4, #2
    8638:	9afffff2 	bls	8608 <notmain+0x64>
    863c:	e1a01005 	mov	r1, r5
    8640:	e59f0070 	ldr	r0, [pc, #112]	; 86b8 <notmain+0x114>
    8644:	eb00001d 	bl	86c0 <printk>
    8648:	ea000015 	b	86a4 <notmain+0x100>
    864c:	e59f0068 	ldr	r0, [pc, #104]	; 86bc <notmain+0x118>
    8650:	e3a06000 	mov	r6, #0
    8654:	eb000019 	bl	86c0 <printk>
    8658:	e1a05006 	mov	r5, r6
    865c:	e3a040fe 	mov	r4, #254	; 0xfe
    8660:	ea000001 	b	866c <notmain+0xc8>
    8664:	e2544001 	subs	r4, r4, #1
    8668:	0a00000a 	beq	8698 <notmain+0xf4>
    866c:	ebfffe67 	bl	8010 <scope.constprop.3>
    8670:	e1500005 	cmp	r0, r5
    8674:	1afffffa 	bne	8664 <notmain+0xc0>
    8678:	e2856001 	add	r6, r5, #1
    867c:	e6ef1076 	uxtb	r1, r6
    8680:	e3a00015 	mov	r0, #21
    8684:	e59f2028 	ldr	r2, [pc, #40]	; 86b4 <notmain+0x110>
    8688:	ebffff42 	bl	8398 <test_gen>
    868c:	e2544001 	subs	r4, r4, #1
    8690:	e2855002 	add	r5, r5, #2
    8694:	1afffff4 	bne	866c <notmain+0xc8>
    8698:	e1a01006 	mov	r1, r6
    869c:	e59f0014 	ldr	r0, [pc, #20]	; 86b8 <notmain+0x114>
    86a0:	eb000006 	bl	86c0 <printk>
    86a4:	eb000188 	bl	8ccc <clean_reboot>
    86a8:	20200000 	eorcs	r0, r0, r0
    86ac:	00001b58 	andeq	r1, r0, r8, asr fp
    86b0:	00009db8 			; <UNDEFINED> instruction: 0x00009db8
    86b4:	000017bc 			; <UNDEFINED> instruction: 0x000017bc
    86b8:	00009dd0 	ldrdeq	r9, [r0], -r0
    86bc:	00009dec 	andeq	r9, r0, ip, ror #27

000086c0 <printk>:
    86c0:	e92d000f 	push	{r0, r1, r2, r3}
    86c4:	e92d4030 	push	{r4, r5, lr}
    86c8:	e24dd00c 	sub	sp, sp, #12
    86cc:	e28d301c 	add	r3, sp, #28
    86d0:	e58d3004 	str	r3, [sp, #4]
    86d4:	e59f4034 	ldr	r4, [pc, #52]	; 8710 <printk+0x50>
    86d8:	e1a00004 	mov	r0, r4
    86dc:	e3a01b01 	mov	r1, #1024	; 0x400
    86e0:	e59d2018 	ldr	r2, [sp, #24]
    86e4:	eb0000cb 	bl	8a18 <va_printk>
    86e8:	e1a05000 	mov	r5, r0
    86ec:	e59f3020 	ldr	r3, [pc, #32]	; 8714 <printk+0x54>
    86f0:	e5933000 	ldr	r3, [r3]
    86f4:	e1a00004 	mov	r0, r4
    86f8:	e12fff33 	blx	r3
    86fc:	e1a00005 	mov	r0, r5
    8700:	e28dd00c 	add	sp, sp, #12
    8704:	e8bd4030 	pop	{r4, r5, lr}
    8708:	e28dd010 	add	sp, sp, #16
    870c:	e12fff1e 	bx	lr
    8710:	0000a038 	andeq	sl, r0, r8, lsr r0
    8714:	00009cd4 	ldrdeq	r9, [r0], -r4

00008718 <internal_putchar>:
    8718:	e92d4010 	push	{r4, lr}
    871c:	e1a04000 	mov	r4, r0
    8720:	eb00051f 	bl	9ba4 <uart_putc>
    8724:	e1a00004 	mov	r0, r4
    8728:	e8bd8010 	pop	{r4, pc}

0000872c <rpi_reset_putc>:
    872c:	e59f2008 	ldr	r2, [pc, #8]	; 873c <rpi_reset_putc+0x10>
    8730:	e59f3008 	ldr	r3, [pc, #8]	; 8740 <rpi_reset_putc+0x14>
    8734:	e5832000 	str	r2, [r3]
    8738:	e12fff1e 	bx	lr
    873c:	00008718 	andeq	r8, r0, r8, lsl r7
    8740:	00009cd0 	ldrdeq	r9, [r0], -r0

00008744 <rpi_set_putc>:
    8744:	e59f3004 	ldr	r3, [pc, #4]	; 8750 <rpi_set_putc+0xc>
    8748:	e5830000 	str	r0, [r3]
    874c:	e12fff1e 	bx	lr
    8750:	00009cd0 	ldrdeq	r9, [r0], -r0

00008754 <internal_putk>:
    8754:	e92d4038 	push	{r3, r4, r5, lr}
    8758:	e1a04000 	mov	r4, r0
    875c:	e59f5020 	ldr	r5, [pc, #32]	; 8784 <internal_putk+0x30>
    8760:	ea000002 	b	8770 <internal_putk+0x1c>
    8764:	e5953000 	ldr	r3, [r5]
    8768:	e12fff33 	blx	r3
    876c:	e2844001 	add	r4, r4, #1
    8770:	e5d40000 	ldrb	r0, [r4]
    8774:	e3500000 	cmp	r0, #0
    8778:	1afffff9 	bne	8764 <internal_putk+0x10>
    877c:	e3a00001 	mov	r0, #1
    8780:	e8bd8038 	pop	{r3, r4, r5, pc}
    8784:	00009cd0 	ldrdeq	r9, [r0], -r0

00008788 <isdigit>:
    8788:	e2400030 	sub	r0, r0, #48	; 0x30
    878c:	e3500009 	cmp	r0, #9
    8790:	83a00000 	movhi	r0, #0
    8794:	93a00001 	movls	r0, #1
    8798:	e12fff1e 	bx	lr

0000879c <pad>:
    879c:	e0611000 	rsb	r1, r1, r0
    87a0:	e3a03020 	mov	r3, #32
    87a4:	ea000002 	b	87b4 <pad+0x18>
    87a8:	e5c03000 	strb	r3, [r0]
    87ac:	e2811001 	add	r1, r1, #1
    87b0:	e2800001 	add	r0, r0, #1
    87b4:	e1510002 	cmp	r1, r2
    87b8:	bafffffa 	blt	87a8 <pad+0xc>
    87bc:	e3a03000 	mov	r3, #0
    87c0:	e5c03000 	strb	r3, [r0]
    87c4:	e12fff1e 	bx	lr

000087c8 <reverse>:
    87c8:	e063c002 	rsb	ip, r3, r2
    87cc:	e28cc001 	add	ip, ip, #1
    87d0:	e15c0001 	cmp	ip, r1
    87d4:	c061100c 	rsbgt	r1, r1, ip
    87d8:	c0833001 	addgt	r3, r3, r1
    87dc:	e2422001 	sub	r2, r2, #1
    87e0:	e1a01000 	mov	r1, r0
    87e4:	ea000002 	b	87f4 <reverse+0x2c>
    87e8:	e452c001 	ldrb	ip, [r2], #-1
    87ec:	e5c1c000 	strb	ip, [r1]
    87f0:	e2811001 	add	r1, r1, #1
    87f4:	e1520003 	cmp	r2, r3
    87f8:	2afffffa 	bcs	87e8 <reverse+0x20>
    87fc:	e3a03000 	mov	r3, #0
    8800:	e5c13000 	strb	r3, [r1]
    8804:	e12fff1e 	bx	lr

00008808 <emit>:
    8808:	e92d41f0 	push	{r4, r5, r6, r7, r8, lr}
    880c:	e24dd048 	sub	sp, sp, #72	; 0x48
    8810:	e1a05001 	mov	r5, r1
    8814:	e1a04002 	mov	r4, r2
    8818:	e59d2060 	ldr	r2, [sp, #96]	; 0x60
    881c:	e1520004 	cmp	r2, r4
    8820:	c2442001 	subgt	r2, r4, #1
    8824:	e1a0c003 	mov	ip, r3
    8828:	e2400002 	sub	r0, r0, #2
    882c:	e350000e 	cmp	r0, #14
    8830:	979ff100 	ldrls	pc, [pc, r0, lsl #2]
    8834:	ea000042 	b	8944 <emit+0x13c>
    8838:	0000891c 	andeq	r8, r0, ip, lsl r9
    883c:	00008944 	andeq	r8, r0, r4, asr #18
    8840:	00008944 	andeq	r8, r0, r4, asr #18
    8844:	00008944 	andeq	r8, r0, r4, asr #18
    8848:	00008944 	andeq	r8, r0, r4, asr #18
    884c:	00008944 	andeq	r8, r0, r4, asr #18
    8850:	00008910 	andeq	r8, r0, r0, lsl r9
    8854:	00008944 	andeq	r8, r0, r4, asr #18
    8858:	00008874 	andeq	r8, r0, r4, ror r8
    885c:	00008944 	andeq	r8, r0, r4, asr #18
    8860:	00008944 	andeq	r8, r0, r4, asr #18
    8864:	00008944 	andeq	r8, r0, r4, asr #18
    8868:	00008944 	andeq	r8, r0, r4, asr #18
    886c:	00008944 	andeq	r8, r0, r4, asr #18
    8870:	000088e8 	andeq	r8, r0, r8, ror #17
    8874:	e59d1064 	ldr	r1, [sp, #100]	; 0x64
    8878:	e2911000 	adds	r1, r1, #0
    887c:	13a01001 	movne	r1, #1
    8880:	e0111fa3 	ands	r1, r1, r3, lsr #31
    8884:	1263c000 	rsbne	ip, r3, #0
    8888:	13a08001 	movne	r8, #1
    888c:	03a08000 	moveq	r8, #0
    8890:	e28d1008 	add	r1, sp, #8
    8894:	e59f70f4 	ldr	r7, [pc, #244]	; 8990 <emit+0x188>
    8898:	e59f60f4 	ldr	r6, [pc, #244]	; 8994 <emit+0x18c>
    889c:	ea000000 	b	88a4 <emit+0x9c>
    88a0:	e1a01003 	mov	r1, r3
    88a4:	e2813001 	add	r3, r1, #1
    88a8:	e08e0c97 	umull	r0, lr, r7, ip
    88ac:	e1a0e1ae 	lsr	lr, lr, #3
    88b0:	e1a0000e 	mov	r0, lr
    88b4:	e08ee10e 	add	lr, lr, lr, lsl #2
    88b8:	e1a0e08e 	lsl	lr, lr, #1
    88bc:	e06ee00c 	rsb	lr, lr, ip
    88c0:	e7d6c00e 	ldrb	ip, [r6, lr]
    88c4:	e5c1c000 	strb	ip, [r1]
    88c8:	e1a0c000 	mov	ip, r0
    88cc:	e3500000 	cmp	r0, #0
    88d0:	1afffff2 	bne	88a0 <emit+0x98>
    88d4:	e3580000 	cmp	r8, #0
    88d8:	12813002 	addne	r3, r1, #2
    88dc:	13a0002d 	movne	r0, #45	; 0x2d
    88e0:	15c10001 	strbne	r0, [r1, #1]
    88e4:	ea00001f 	b	8968 <emit+0x160>
    88e8:	e28de008 	add	lr, sp, #8
    88ec:	e59f00a4 	ldr	r0, [pc, #164]	; 8998 <emit+0x190>
    88f0:	e28e3001 	add	r3, lr, #1
    88f4:	e20c100f 	and	r1, ip, #15
    88f8:	e7d01001 	ldrb	r1, [r0, r1]
    88fc:	e5ce1000 	strb	r1, [lr]
    8900:	e1a0e003 	mov	lr, r3
    8904:	e1b0c22c 	lsrs	ip, ip, #4
    8908:	1afffff8 	bne	88f0 <emit+0xe8>
    890c:	ea000015 	b	8968 <emit+0x160>
    8910:	e5cd3008 	strb	r3, [sp, #8]
    8914:	e28d3009 	add	r3, sp, #9
    8918:	ea000012 	b	8968 <emit+0x160>
    891c:	e28de008 	add	lr, sp, #8
    8920:	e59f0074 	ldr	r0, [pc, #116]	; 899c <emit+0x194>
    8924:	e28e3001 	add	r3, lr, #1
    8928:	e20c1001 	and	r1, ip, #1
    892c:	e7d01001 	ldrb	r1, [r0, r1]
    8930:	e5ce1000 	strb	r1, [lr]
    8934:	e1a0e003 	mov	lr, r3
    8938:	e1b0c0ac 	lsrs	ip, ip, #1
    893c:	1afffff8 	bne	8924 <emit+0x11c>
    8940:	ea000008 	b	8968 <emit+0x160>
    8944:	ebffff78 	bl	872c <rpi_reset_putc>
    8948:	e59f3050 	ldr	r3, [pc, #80]	; 89a0 <emit+0x198>
    894c:	e58d3000 	str	r3, [sp]
    8950:	e59f004c 	ldr	r0, [pc, #76]	; 89a4 <emit+0x19c>
    8954:	e59f104c 	ldr	r1, [pc, #76]	; 89a8 <emit+0x1a0>
    8958:	e59f204c 	ldr	r2, [pc, #76]	; 89ac <emit+0x1a4>
    895c:	e3a03075 	mov	r3, #117	; 0x75
    8960:	ebffff56 	bl	86c0 <printk>
    8964:	eb0000d8 	bl	8ccc <clean_reboot>
    8968:	e1a00003 	mov	r0, r3
    896c:	e28d1008 	add	r1, sp, #8
    8970:	ebffff89 	bl	879c <pad>
    8974:	e1a02000 	mov	r2, r0
    8978:	e1a00005 	mov	r0, r5
    897c:	e1a01004 	mov	r1, r4
    8980:	e28d3008 	add	r3, sp, #8
    8984:	ebffff8f 	bl	87c8 <reverse>
    8988:	e28dd048 	add	sp, sp, #72	; 0x48
    898c:	e8bd81f0 	pop	{r4, r5, r6, r7, r8, pc}
    8990:	cccccccd 	stclgt	12, cr12, [ip], {205}	; 0xcd
    8994:	00009e4c 	andeq	r9, r0, ip, asr #28
    8998:	00009e58 	andeq	r9, r0, r8, asr lr
    899c:	00009e6c 	andeq	r9, r0, ip, ror #28
    89a0:	00009e48 	andeq	r9, r0, r8, asr #28
    89a4:	00009e20 	andeq	r9, r0, r0, lsr #28
    89a8:	00009e34 	andeq	r9, r0, r4, lsr lr
    89ac:	00009dfc 	strdeq	r9, [r0], -ip

000089b0 <rpi_set_output>:
    89b0:	e52de004 	push	{lr}		; (str lr, [sp, #-4]!)
    89b4:	e24dd00c 	sub	sp, sp, #12
    89b8:	e3500000 	cmp	r0, #0
    89bc:	1a000008 	bne	89e4 <rpi_set_output+0x34>
    89c0:	ebffff59 	bl	872c <rpi_reset_putc>
    89c4:	e59f3034 	ldr	r3, [pc, #52]	; 8a00 <rpi_set_output+0x50>
    89c8:	e58d3000 	str	r3, [sp]
    89cc:	e59f0030 	ldr	r0, [pc, #48]	; 8a04 <rpi_set_output+0x54>
    89d0:	e59f1030 	ldr	r1, [pc, #48]	; 8a08 <rpi_set_output+0x58>
    89d4:	e59f2030 	ldr	r2, [pc, #48]	; 8a0c <rpi_set_output+0x5c>
    89d8:	e3a03020 	mov	r3, #32
    89dc:	ebffff37 	bl	86c0 <printk>
    89e0:	eb0000b9 	bl	8ccc <clean_reboot>
    89e4:	e59f3024 	ldr	r3, [pc, #36]	; 8a10 <rpi_set_output+0x60>
    89e8:	e5830000 	str	r0, [r3]
    89ec:	e3510000 	cmp	r1, #0
    89f0:	159f301c 	ldrne	r3, [pc, #28]	; 8a14 <rpi_set_output+0x64>
    89f4:	15831000 	strne	r1, [r3]
    89f8:	e28dd00c 	add	sp, sp, #12
    89fc:	e49df004 	pop	{pc}		; (ldr pc, [sp], #4)
    8a00:	00009e70 	andeq	r9, r0, r0, ror lr
    8a04:	00009e20 	andeq	r9, r0, r0, lsr #28
    8a08:	00009e34 	andeq	r9, r0, r4, lsr lr
    8a0c:	00009e04 	andeq	r9, r0, r4, lsl #28
    8a10:	00009cd0 	ldrdeq	r9, [r0], -r0
    8a14:	00009cd4 	ldrdeq	r9, [r0], -r4

00008a18 <va_printk>:
    8a18:	e92d4ff0 	push	{r4, r5, r6, r7, r8, r9, sl, fp, lr}
    8a1c:	e24dd08c 	sub	sp, sp, #140	; 0x8c
    8a20:	e1a0a000 	mov	sl, r0
    8a24:	e1a09003 	mov	r9, r3
    8a28:	e2411001 	sub	r1, r1, #1
    8a2c:	e0808001 	add	r8, r0, r1
    8a30:	e3a03000 	mov	r3, #0
    8a34:	e5c03000 	strb	r3, [r0]
    8a38:	e1a04000 	mov	r4, r0
    8a3c:	e1a0b003 	mov	fp, r3
    8a40:	ea000088 	b	8c68 <va_printk+0x250>
    8a44:	e3530025 	cmp	r3, #37	; 0x25
    8a48:	12822001 	addne	r2, r2, #1
    8a4c:	15c43000 	strbne	r3, [r4]
    8a50:	12844001 	addne	r4, r4, #1
    8a54:	1a000083 	bne	8c68 <va_printk+0x250>
    8a58:	e5d21001 	ldrb	r1, [r2, #1]
    8a5c:	e3510025 	cmp	r1, #37	; 0x25
    8a60:	05c43000 	strbeq	r3, [r4]
    8a64:	02822002 	addeq	r2, r2, #2
    8a68:	02844001 	addeq	r4, r4, #1
    8a6c:	0a00007d 	beq	8c68 <va_printk+0x250>
    8a70:	e2826001 	add	r6, r2, #1
    8a74:	e1a0700b 	mov	r7, fp
    8a78:	ea000004 	b	8a90 <va_printk+0x78>
    8a7c:	e0877107 	add	r7, r7, r7, lsl #2
    8a80:	e1a07087 	lsl	r7, r7, #1
    8a84:	e0877005 	add	r7, r7, r5
    8a88:	e2477030 	sub	r7, r7, #48	; 0x30
    8a8c:	e2866001 	add	r6, r6, #1
    8a90:	e5d65000 	ldrb	r5, [r6]
    8a94:	e1a00005 	mov	r0, r5
    8a98:	ebffff3a 	bl	8788 <isdigit>
    8a9c:	e3500000 	cmp	r0, #0
    8aa0:	1afffff5 	bne	8a7c <va_printk+0x64>
    8aa4:	e357001f 	cmp	r7, #31
    8aa8:	9a000008 	bls	8ad0 <va_printk+0xb8>
    8aac:	ebffff1e 	bl	872c <rpi_reset_putc>
    8ab0:	e59f31dc 	ldr	r3, [pc, #476]	; 8c94 <va_printk+0x27c>
    8ab4:	e58d3000 	str	r3, [sp]
    8ab8:	e59f01d8 	ldr	r0, [pc, #472]	; 8c98 <va_printk+0x280>
    8abc:	e59f11d8 	ldr	r1, [pc, #472]	; 8c9c <va_printk+0x284>
    8ac0:	e59f21d8 	ldr	r2, [pc, #472]	; 8ca0 <va_printk+0x288>
    8ac4:	e3a03092 	mov	r3, #146	; 0x92
    8ac8:	ebfffefc 	bl	86c0 <printk>
    8acc:	eb00007e 	bl	8ccc <clean_reboot>
    8ad0:	e2455062 	sub	r5, r5, #98	; 0x62
    8ad4:	e3550016 	cmp	r5, #22
    8ad8:	979ff105 	ldrls	pc, [pc, r5, lsl #2]
    8adc:	ea00004e 	b	8c1c <va_printk+0x204>
    8ae0:	00008bc8 	andeq	r8, r0, r8, asr #23
    8ae4:	00008bf8 	strdeq	r8, [r0], -r8	; <UNPREDICTABLE>
    8ae8:	00008b58 	andeq	r8, r0, r8, asr fp
    8aec:	00008c1c 	andeq	r8, r0, ip, lsl ip
    8af0:	00008b3c 	andeq	r8, r0, ip, lsr fp
    8af4:	00008c1c 	andeq	r8, r0, ip, lsl ip
    8af8:	00008c1c 	andeq	r8, r0, ip, lsl ip
    8afc:	00008c1c 	andeq	r8, r0, ip, lsl ip
    8b00:	00008c1c 	andeq	r8, r0, ip, lsl ip
    8b04:	00008c1c 	andeq	r8, r0, ip, lsl ip
    8b08:	00008c1c 	andeq	r8, r0, ip, lsl ip
    8b0c:	00008c1c 	andeq	r8, r0, ip, lsl ip
    8b10:	00008c1c 	andeq	r8, r0, ip, lsl ip
    8b14:	00008c1c 	andeq	r8, r0, ip, lsl ip
    8b18:	00008ba4 	andeq	r8, r0, r4, lsr #23
    8b1c:	00008c1c 	andeq	r8, r0, ip, lsl ip
    8b20:	00008c1c 	andeq	r8, r0, ip, lsl ip
    8b24:	00008bec 	andeq	r8, r0, ip, ror #23
    8b28:	00008c1c 	andeq	r8, r0, ip, lsl ip
    8b2c:	00008b80 	andeq	r8, r0, r0, lsl #23
    8b30:	00008c1c 	andeq	r8, r0, ip, lsl ip
    8b34:	00008c1c 	andeq	r8, r0, ip, lsl ip
    8b38:	00008ba4 	andeq	r8, r0, r4, lsr #23
    8b3c:	ebfffefa 	bl	872c <rpi_reset_putc>
    8b40:	e59f015c 	ldr	r0, [pc, #348]	; 8ca4 <va_printk+0x28c>
    8b44:	e59f1150 	ldr	r1, [pc, #336]	; 8c9c <va_printk+0x284>
    8b48:	e59f2150 	ldr	r2, [pc, #336]	; 8ca0 <va_printk+0x288>
    8b4c:	e3a03098 	mov	r3, #152	; 0x98
    8b50:	ebfffeda 	bl	86c0 <printk>
    8b54:	eb00005c 	bl	8ccc <clean_reboot>
    8b58:	e5993000 	ldr	r3, [r9]
    8b5c:	e2899004 	add	r9, r9, #4
    8b60:	e58d7000 	str	r7, [sp]
    8b64:	e3a02001 	mov	r2, #1
    8b68:	e58d2004 	str	r2, [sp, #4]
    8b6c:	e3a0000a 	mov	r0, #10
    8b70:	e28d1008 	add	r1, sp, #8
    8b74:	e3a02080 	mov	r2, #128	; 0x80
    8b78:	ebffff22 	bl	8808 <emit>
    8b7c:	ea00002f 	b	8c40 <va_printk+0x228>
    8b80:	e5993000 	ldr	r3, [r9]
    8b84:	e2899004 	add	r9, r9, #4
    8b88:	e58d7000 	str	r7, [sp]
    8b8c:	e58db004 	str	fp, [sp, #4]
    8b90:	e3a0000a 	mov	r0, #10
    8b94:	e28d1008 	add	r1, sp, #8
    8b98:	e3a02080 	mov	r2, #128	; 0x80
    8b9c:	ebffff19 	bl	8808 <emit>
    8ba0:	ea000026 	b	8c40 <va_printk+0x228>
    8ba4:	e5993000 	ldr	r3, [r9]
    8ba8:	e2899004 	add	r9, r9, #4
    8bac:	e58d7000 	str	r7, [sp]
    8bb0:	e58db004 	str	fp, [sp, #4]
    8bb4:	e3a00010 	mov	r0, #16
    8bb8:	e28d1008 	add	r1, sp, #8
    8bbc:	e3a02080 	mov	r2, #128	; 0x80
    8bc0:	ebffff10 	bl	8808 <emit>
    8bc4:	ea00001d 	b	8c40 <va_printk+0x228>
    8bc8:	e5993000 	ldr	r3, [r9]
    8bcc:	e2899004 	add	r9, r9, #4
    8bd0:	e58d7000 	str	r7, [sp]
    8bd4:	e58db004 	str	fp, [sp, #4]
    8bd8:	e3a00002 	mov	r0, #2
    8bdc:	e28d1008 	add	r1, sp, #8
    8be0:	e3a02080 	mov	r2, #128	; 0x80
    8be4:	ebffff07 	bl	8808 <emit>
    8be8:	ea000014 	b	8c40 <va_printk+0x228>
    8bec:	e5990000 	ldr	r0, [r9]
    8bf0:	e2899004 	add	r9, r9, #4
    8bf4:	ea000011 	b	8c40 <va_printk+0x228>
    8bf8:	e5993000 	ldr	r3, [r9]
    8bfc:	e2899004 	add	r9, r9, #4
    8c00:	e58d7000 	str	r7, [sp]
    8c04:	e58db004 	str	fp, [sp, #4]
    8c08:	e3a00008 	mov	r0, #8
    8c0c:	e08d1000 	add	r1, sp, r0
    8c10:	e3a02080 	mov	r2, #128	; 0x80
    8c14:	ebfffefb 	bl	8808 <emit>
    8c18:	ea000008 	b	8c40 <va_printk+0x228>
    8c1c:	ebfffec2 	bl	872c <rpi_reset_putc>
    8c20:	e5d63000 	ldrb	r3, [r6]
    8c24:	e58d3000 	str	r3, [sp]
    8c28:	e59f0078 	ldr	r0, [pc, #120]	; 8ca8 <va_printk+0x290>
    8c2c:	e59f1068 	ldr	r1, [pc, #104]	; 8c9c <va_printk+0x284>
    8c30:	e59f2068 	ldr	r2, [pc, #104]	; 8ca0 <va_printk+0x288>
    8c34:	e3a030b9 	mov	r3, #185	; 0xb9
    8c38:	ebfffea0 	bl	86c0 <printk>
    8c3c:	eb000022 	bl	8ccc <clean_reboot>
    8c40:	e2862001 	add	r2, r6, #1
    8c44:	ea000002 	b	8c54 <va_printk+0x23c>
    8c48:	e2800001 	add	r0, r0, #1
    8c4c:	e5c43000 	strb	r3, [r4]
    8c50:	e2844001 	add	r4, r4, #1
    8c54:	e1540008 	cmp	r4, r8
    8c58:	2a000002 	bcs	8c68 <va_printk+0x250>
    8c5c:	e5d03000 	ldrb	r3, [r0]
    8c60:	e3530000 	cmp	r3, #0
    8c64:	1afffff7 	bne	8c48 <va_printk+0x230>
    8c68:	e5d23000 	ldrb	r3, [r2]
    8c6c:	e3530000 	cmp	r3, #0
    8c70:	0a000001 	beq	8c7c <va_printk+0x264>
    8c74:	e1540008 	cmp	r4, r8
    8c78:	3affff71 	bcc	8a44 <va_printk+0x2c>
    8c7c:	e2840001 	add	r0, r4, #1
    8c80:	e3a03000 	mov	r3, #0
    8c84:	e5c43000 	strb	r3, [r4]
    8c88:	e06a0000 	rsb	r0, sl, r0
    8c8c:	e28dd08c 	add	sp, sp, #140	; 0x8c
    8c90:	e8bd8ff0 	pop	{r4, r5, r6, r7, r8, r9, sl, fp, pc}
    8c94:	00009e78 	andeq	r9, r0, r8, ror lr
    8c98:	00009e20 	andeq	r9, r0, r0, lsr #28
    8c9c:	00009e34 	andeq	r9, r0, r4, lsr lr
    8ca0:	00009e14 	andeq	r9, r0, r4, lsl lr
    8ca4:	00009e84 	andeq	r9, r0, r4, lsl #29
    8ca8:	00009eac 	andeq	r9, r0, ip, lsr #29

00008cac <enable_cache>:
    8cac:	ee113f10 	mrc	15, 0, r3, cr1, cr0, {0}
    8cb0:	e3833b06 	orr	r3, r3, #6144	; 0x1800
    8cb4:	ee013f10 	mcr	15, 0, r3, cr1, cr0, {0}
    8cb8:	e12fff1e 	bx	lr

00008cbc <disable_cache>:
    8cbc:	ee113f10 	mrc	15, 0, r3, cr1, cr0, {0}
    8cc0:	e3c33b06 	bic	r3, r3, #6144	; 0x1800
    8cc4:	ee013f10 	mcr	15, 0, r3, cr1, cr0, {0}
    8cc8:	e12fff1e 	bx	lr

00008ccc <clean_reboot>:
    8ccc:	e92d4008 	push	{r3, lr}
    8cd0:	e59f3014 	ldr	r3, [pc, #20]	; 8cec <clean_reboot+0x20>
    8cd4:	e5933000 	ldr	r3, [r3]
    8cd8:	e59f0010 	ldr	r0, [pc, #16]	; 8cf0 <clean_reboot+0x24>
    8cdc:	e12fff33 	blx	r3
    8ce0:	e3a00064 	mov	r0, #100	; 0x64
    8ce4:	eb000063 	bl	8e78 <delay_ms>
    8ce8:	eb000038 	bl	8dd0 <rpi_reboot>
    8cec:	00009cd4 	ldrdeq	r9, [r0], -r4
    8cf0:	00009ee4 	andeq	r9, r0, r4, ror #29

00008cf4 <internal_sw_putchar>:
    8cf4:	e92d4010 	push	{r4, lr}
    8cf8:	e1a04000 	mov	r4, r0
    8cfc:	e59f000c 	ldr	r0, [pc, #12]	; 8d10 <internal_sw_putchar+0x1c>
    8d00:	e6ef1074 	uxtb	r1, r4
    8d04:	eb0001cd 	bl	9440 <sw_uart_putc>
    8d08:	e1a00004 	mov	r0, r4
    8d0c:	e8bd8010 	pop	{r4, pc}
    8d10:	0000a438 	andeq	sl, r0, r8, lsr r4

00008d14 <_cstart>:
    8d14:	e92d4008 	push	{r3, lr}
    8d18:	e59f3068 	ldr	r3, [pc, #104]	; 8d88 <_cstart+0x74>
    8d1c:	e59f2068 	ldr	r2, [pc, #104]	; 8d8c <_cstart+0x78>
    8d20:	e3a01000 	mov	r1, #0
    8d24:	ea000001 	b	8d30 <_cstart+0x1c>
    8d28:	e5831000 	str	r1, [r3]
    8d2c:	e2833004 	add	r3, r3, #4
    8d30:	e1530002 	cmp	r3, r2
    8d34:	3afffffb 	bcc	8d28 <_cstart+0x14>
    8d38:	eb0003d2 	bl	9c88 <cb_get_block>
    8d3c:	e3500000 	cmp	r0, #0
    8d40:	0a00000e 	beq	8d80 <_cstart+0x6c>
    8d44:	e5d02004 	ldrb	r2, [r0, #4]
    8d48:	e3520002 	cmp	r2, #2
    8d4c:	1a00000b 	bne	8d80 <_cstart+0x6c>
    8d50:	e59f1038 	ldr	r1, [pc, #56]	; 8d90 <_cstart+0x7c>
    8d54:	e59f2038 	ldr	r2, [pc, #56]	; 8d94 <_cstart+0x80>
    8d58:	e5821000 	str	r1, [r2]
    8d5c:	e59fc034 	ldr	ip, [pc, #52]	; 8d98 <_cstart+0x84>
    8d60:	e2803008 	add	r3, r0, #8
    8d64:	e8930007 	ldm	r3, {r0, r1, r2}
    8d68:	e88c0007 	stm	ip, {r0, r1, r2}
    8d6c:	e1a0000c 	mov	r0, ip
    8d70:	e59f1024 	ldr	r1, [pc, #36]	; 8d9c <_cstart+0x88>
    8d74:	eb000314 	bl	99cc <sw_uart_printk>
    8d78:	e59f0020 	ldr	r0, [pc, #32]	; 8da0 <_cstart+0x8c>
    8d7c:	ebfffe4f 	bl	86c0 <printk>
    8d80:	ebfffe07 	bl	85a4 <notmain>
    8d84:	eb000011 	bl	8dd0 <rpi_reboot>
    8d88:	0000a038 	andeq	sl, r0, r8, lsr r0
    8d8c:	0000a448 	andeq	sl, r0, r8, asr #8
    8d90:	00008cf4 	strdeq	r8, [r0], -r4
    8d94:	00009cd0 	ldrdeq	r9, [r0], -r0
    8d98:	0000a438 	andeq	sl, r0, r8, lsr r4
    8d9c:	00009ef0 	strdeq	r9, [r0], -r0
    8da0:	00009f14 	andeq	r9, r0, r4, lsl pc

00008da4 <at_user_level>:
    8da4:	e10f0000 	mrs	r0, CPSR
    8da8:	e200001f 	and	r0, r0, #31
    8dac:	e3500010 	cmp	r0, #16
    8db0:	13a00000 	movne	r0, #0
    8db4:	03a00001 	moveq	r0, #1
    8db8:	e12fff1e 	bx	lr

00008dbc <set_user_level>:
    8dbc:	e10f3000 	mrs	r3, CPSR
    8dc0:	e3c3301f 	bic	r3, r3, #31
    8dc4:	e3833010 	orr	r3, r3, #16
    8dc8:	e129f003 	msr	CPSR_fc, r3
    8dcc:	e12fff1e 	bx	lr

00008dd0 <rpi_reboot>:
    8dd0:	e92d4008 	push	{r3, lr}
    8dd4:	ebfffff2 	bl	8da4 <at_user_level>
    8dd8:	e3500000 	cmp	r0, #0
    8ddc:	0a000000 	beq	8de4 <rpi_reboot+0x14>
    8de0:	ebfffff5 	bl	8dbc <set_user_level>
    8de4:	e3a0001e 	mov	r0, #30
    8de8:	eb000022 	bl	8e78 <delay_ms>
    8dec:	e59f0014 	ldr	r0, [pc, #20]	; 8e08 <rpi_reboot+0x38>
    8df0:	e59f1014 	ldr	r1, [pc, #20]	; 8e0c <rpi_reboot+0x3c>
    8df4:	eb000388 	bl	9c1c <PUT32>
    8df8:	e59f0010 	ldr	r0, [pc, #16]	; 8e10 <rpi_reboot+0x40>
    8dfc:	e59f1010 	ldr	r1, [pc, #16]	; 8e14 <rpi_reboot+0x44>
    8e00:	eb000385 	bl	9c1c <PUT32>
    8e04:	eafffffe 	b	8e04 <rpi_reboot+0x34>
    8e08:	20100024 	andscs	r0, r0, r4, lsr #32
    8e0c:	5a000001 	bpl	8e18 <delay_cycles>
    8e10:	2010001c 	andscs	r0, r0, ip, lsl r0
    8e14:	5a000020 	bpl	8e9c <delay_sec+0x10>

00008e18 <delay_cycles>:
    8e18:	ea000001 	b	8e24 <delay_cycles+0xc>
    8e1c:	e2811000 	add	r1, r1, #0
    8e20:	e1a00003 	mov	r0, r3
    8e24:	e2403001 	sub	r3, r0, #1
    8e28:	e3500000 	cmp	r0, #0
    8e2c:	1afffffa 	bne	8e1c <delay_cycles+0x4>
    8e30:	e12fff1e 	bx	lr

00008e34 <timer_get_usec_raw>:
    8e34:	e92d4008 	push	{r3, lr}
    8e38:	e59f0004 	ldr	r0, [pc, #4]	; 8e44 <timer_get_usec_raw+0x10>
    8e3c:	eb000382 	bl	9c4c <GET32>
    8e40:	e8bd8008 	pop	{r3, pc}
    8e44:	20003004 	andcs	r3, r0, r4

00008e48 <timer_get_usec>:
    8e48:	e92d4008 	push	{r3, lr}
    8e4c:	ebfffff8 	bl	8e34 <timer_get_usec_raw>
    8e50:	e8bd8008 	pop	{r3, pc}

00008e54 <delay_us>:
    8e54:	e92d4038 	push	{r3, r4, r5, lr}
    8e58:	e1a05000 	mov	r5, r0
    8e5c:	ebfffff9 	bl	8e48 <timer_get_usec>
    8e60:	e1a04000 	mov	r4, r0
    8e64:	ebfffff7 	bl	8e48 <timer_get_usec>
    8e68:	e0640000 	rsb	r0, r4, r0
    8e6c:	e1500005 	cmp	r0, r5
    8e70:	3afffffb 	bcc	8e64 <delay_us+0x10>
    8e74:	e8bd8038 	pop	{r3, r4, r5, pc}

00008e78 <delay_ms>:
    8e78:	e92d4008 	push	{r3, lr}
    8e7c:	e3a03ffa 	mov	r3, #1000	; 0x3e8
    8e80:	e0000093 	mul	r0, r3, r0
    8e84:	ebfffff2 	bl	8e54 <delay_us>
    8e88:	e8bd8008 	pop	{r3, pc}

00008e8c <delay_sec>:
    8e8c:	e92d4008 	push	{r3, lr}
    8e90:	e3a03ffa 	mov	r3, #1000	; 0x3e8
    8e94:	e0000093 	mul	r0, r3, r0
    8e98:	ebfffff6 	bl	8e78 <delay_ms>
    8e9c:	e8bd8008 	pop	{r3, pc}

00008ea0 <gpio_set_output>:
    8ea0:	e92d4038 	push	{r3, r4, r5, lr}
    8ea4:	e1a04000 	mov	r4, r0
    8ea8:	e350001f 	cmp	r0, #31
    8eac:	88bd8038 	pophi	{r3, r4, r5, pc}
    8eb0:	e59f30b4 	ldr	r3, [pc, #180]	; 8f6c <gpio_set_output+0xcc>
    8eb4:	e0832093 	umull	r2, r3, r3, r0
    8eb8:	e1a031a3 	lsr	r3, r3, #3
    8ebc:	e3530005 	cmp	r3, #5
    8ec0:	979ff103 	ldrls	pc, [pc, r3, lsl #2]
    8ec4:	ea000017 	b	8f28 <gpio_set_output+0x88>
    8ec8:	00008ee0 	andeq	r8, r0, r0, ror #29
    8ecc:	00008eec 	andeq	r8, r0, ip, ror #29
    8ed0:	00008ef8 	strdeq	r8, [r0], -r8	; <UNPREDICTABLE>
    8ed4:	00008f04 	andeq	r8, r0, r4, lsl #30
    8ed8:	00008f10 	andeq	r8, r0, r0, lsl pc
    8edc:	00008f1c 	andeq	r8, r0, ip, lsl pc
    8ee0:	e59f3088 	ldr	r3, [pc, #136]	; 8f70 <gpio_set_output+0xd0>
    8ee4:	e5935000 	ldr	r5, [r3]
    8ee8:	ea00000f 	b	8f2c <gpio_set_output+0x8c>
    8eec:	e59f307c 	ldr	r3, [pc, #124]	; 8f70 <gpio_set_output+0xd0>
    8ef0:	e5935004 	ldr	r5, [r3, #4]
    8ef4:	ea00000c 	b	8f2c <gpio_set_output+0x8c>
    8ef8:	e59f3070 	ldr	r3, [pc, #112]	; 8f70 <gpio_set_output+0xd0>
    8efc:	e5935008 	ldr	r5, [r3, #8]
    8f00:	ea000009 	b	8f2c <gpio_set_output+0x8c>
    8f04:	e59f3064 	ldr	r3, [pc, #100]	; 8f70 <gpio_set_output+0xd0>
    8f08:	e593500c 	ldr	r5, [r3, #12]
    8f0c:	ea000006 	b	8f2c <gpio_set_output+0x8c>
    8f10:	e59f3058 	ldr	r3, [pc, #88]	; 8f70 <gpio_set_output+0xd0>
    8f14:	e5935010 	ldr	r5, [r3, #16]
    8f18:	ea000003 	b	8f2c <gpio_set_output+0x8c>
    8f1c:	e59f304c 	ldr	r3, [pc, #76]	; 8f70 <gpio_set_output+0xd0>
    8f20:	e5935014 	ldr	r5, [r3, #20]
    8f24:	ea000000 	b	8f2c <gpio_set_output+0x8c>
    8f28:	e3a05000 	mov	r5, #0
    8f2c:	e1a00005 	mov	r0, r5
    8f30:	eb000343 	bl	9c44 <get32>
    8f34:	e59f1030 	ldr	r1, [pc, #48]	; 8f6c <gpio_set_output+0xcc>
    8f38:	e0813491 	umull	r3, r1, r1, r4
    8f3c:	e1a011a1 	lsr	r1, r1, #3
    8f40:	e0811101 	add	r1, r1, r1, lsl #2
    8f44:	e1a01081 	lsl	r1, r1, #1
    8f48:	e0611004 	rsb	r1, r1, r4
    8f4c:	e0811081 	add	r1, r1, r1, lsl #1
    8f50:	e3a03007 	mov	r3, #7
    8f54:	e1c03113 	bic	r3, r0, r3, lsl r1
    8f58:	e1a00005 	mov	r0, r5
    8f5c:	e3a02001 	mov	r2, #1
    8f60:	e1831112 	orr	r1, r3, r2, lsl r1
    8f64:	eb00032a 	bl	9c14 <put32>
    8f68:	e8bd8038 	pop	{r3, r4, r5, pc}
    8f6c:	cccccccd 	stclgt	12, cr12, [ip], {205}	; 0xcd
    8f70:	00009cd8 	ldrdeq	r9, [r0], -r8

00008f74 <gpio_set_on>:
    8f74:	e92d4008 	push	{r3, lr}
    8f78:	e350001f 	cmp	r0, #31
    8f7c:	88bd8008 	pophi	{r3, pc}
    8f80:	959f3020 	ldrls	r3, [pc, #32]	; 8fa8 <gpio_set_on+0x34>
    8f84:	95932018 	ldrls	r2, [r3, #24]
    8f88:	859f3018 	ldrhi	r3, [pc, #24]	; 8fa8 <gpio_set_on+0x34>
    8f8c:	8593201c 	ldrhi	r2, [r3, #28]
    8f90:	e200301f 	and	r3, r0, #31
    8f94:	e1a00002 	mov	r0, r2
    8f98:	e3a01001 	mov	r1, #1
    8f9c:	e1a01311 	lsl	r1, r1, r3
    8fa0:	eb00031b 	bl	9c14 <put32>
    8fa4:	e8bd8008 	pop	{r3, pc}
    8fa8:	00009cd8 	ldrdeq	r9, [r0], -r8

00008fac <gpio_set_off>:
    8fac:	e92d4008 	push	{r3, lr}
    8fb0:	e350001f 	cmp	r0, #31
    8fb4:	88bd8008 	pophi	{r3, pc}
    8fb8:	959f3020 	ldrls	r3, [pc, #32]	; 8fe0 <gpio_set_off+0x34>
    8fbc:	95932020 	ldrls	r2, [r3, #32]
    8fc0:	859f3018 	ldrhi	r3, [pc, #24]	; 8fe0 <gpio_set_off+0x34>
    8fc4:	85932024 	ldrhi	r2, [r3, #36]	; 0x24
    8fc8:	e200301f 	and	r3, r0, #31
    8fcc:	e1a00002 	mov	r0, r2
    8fd0:	e3a01001 	mov	r1, #1
    8fd4:	e1a01311 	lsl	r1, r1, r3
    8fd8:	eb00030d 	bl	9c14 <put32>
    8fdc:	e8bd8008 	pop	{r3, pc}
    8fe0:	00009cd8 	ldrdeq	r9, [r0], -r8

00008fe4 <gpio_set_input>:
    8fe4:	e92d4038 	push	{r3, r4, r5, lr}
    8fe8:	e1a04000 	mov	r4, r0
    8fec:	e350001f 	cmp	r0, #31
    8ff0:	88bd8038 	pophi	{r3, r4, r5, pc}
    8ff4:	e59f30ac 	ldr	r3, [pc, #172]	; 90a8 <gpio_set_input+0xc4>
    8ff8:	e0832093 	umull	r2, r3, r3, r0
    8ffc:	e1a031a3 	lsr	r3, r3, #3
    9000:	e3530005 	cmp	r3, #5
    9004:	979ff103 	ldrls	pc, [pc, r3, lsl #2]
    9008:	ea000017 	b	906c <gpio_set_input+0x88>
    900c:	00009024 	andeq	r9, r0, r4, lsr #32
    9010:	00009030 	andeq	r9, r0, r0, lsr r0
    9014:	0000903c 	andeq	r9, r0, ip, lsr r0
    9018:	00009048 	andeq	r9, r0, r8, asr #32
    901c:	00009054 	andeq	r9, r0, r4, asr r0
    9020:	00009060 	andeq	r9, r0, r0, rrx
    9024:	e59f3080 	ldr	r3, [pc, #128]	; 90ac <gpio_set_input+0xc8>
    9028:	e5935000 	ldr	r5, [r3]
    902c:	ea00000f 	b	9070 <gpio_set_input+0x8c>
    9030:	e59f3074 	ldr	r3, [pc, #116]	; 90ac <gpio_set_input+0xc8>
    9034:	e5935004 	ldr	r5, [r3, #4]
    9038:	ea00000c 	b	9070 <gpio_set_input+0x8c>
    903c:	e59f3068 	ldr	r3, [pc, #104]	; 90ac <gpio_set_input+0xc8>
    9040:	e5935008 	ldr	r5, [r3, #8]
    9044:	ea000009 	b	9070 <gpio_set_input+0x8c>
    9048:	e59f305c 	ldr	r3, [pc, #92]	; 90ac <gpio_set_input+0xc8>
    904c:	e593500c 	ldr	r5, [r3, #12]
    9050:	ea000006 	b	9070 <gpio_set_input+0x8c>
    9054:	e59f3050 	ldr	r3, [pc, #80]	; 90ac <gpio_set_input+0xc8>
    9058:	e5935010 	ldr	r5, [r3, #16]
    905c:	ea000003 	b	9070 <gpio_set_input+0x8c>
    9060:	e59f3044 	ldr	r3, [pc, #68]	; 90ac <gpio_set_input+0xc8>
    9064:	e5935014 	ldr	r5, [r3, #20]
    9068:	ea000000 	b	9070 <gpio_set_input+0x8c>
    906c:	e3a05000 	mov	r5, #0
    9070:	e1a00005 	mov	r0, r5
    9074:	eb0002f2 	bl	9c44 <get32>
    9078:	e59f1028 	ldr	r1, [pc, #40]	; 90a8 <gpio_set_input+0xc4>
    907c:	e0813491 	umull	r3, r1, r1, r4
    9080:	e1a011a1 	lsr	r1, r1, #3
    9084:	e0811101 	add	r1, r1, r1, lsl #2
    9088:	e1a01081 	lsl	r1, r1, #1
    908c:	e0611004 	rsb	r1, r1, r4
    9090:	e0811081 	add	r1, r1, r1, lsl #1
    9094:	e3a03007 	mov	r3, #7
    9098:	e1c01113 	bic	r1, r0, r3, lsl r1
    909c:	e1a00005 	mov	r0, r5
    90a0:	eb0002db 	bl	9c14 <put32>
    90a4:	e8bd8038 	pop	{r3, r4, r5, pc}
    90a8:	cccccccd 	stclgt	12, cr12, [ip], {205}	; 0xcd
    90ac:	00009cd8 	ldrdeq	r9, [r0], -r8

000090b0 <gpio_read>:
    90b0:	e92d4010 	push	{r4, lr}
    90b4:	e1a04000 	mov	r4, r0
    90b8:	e350001f 	cmp	r0, #31
    90bc:	8a00000b 	bhi	90f0 <gpio_read+0x40>
    90c0:	8a000003 	bhi	90d4 <gpio_read+0x24>
    90c4:	e59f302c 	ldr	r3, [pc, #44]	; 90f8 <gpio_read+0x48>
    90c8:	e5930028 	ldr	r0, [r3, #40]	; 0x28
    90cc:	eb0002dc 	bl	9c44 <get32>
    90d0:	ea000002 	b	90e0 <gpio_read+0x30>
    90d4:	e59f301c 	ldr	r3, [pc, #28]	; 90f8 <gpio_read+0x48>
    90d8:	e593002c 	ldr	r0, [r3, #44]	; 0x2c
    90dc:	eb0002d8 	bl	9c44 <get32>
    90e0:	e204401f 	and	r4, r4, #31
    90e4:	e3a03001 	mov	r3, #1
    90e8:	e0000413 	and	r0, r0, r3, lsl r4
    90ec:	e8bd8010 	pop	{r4, pc}
    90f0:	e3e00000 	mvn	r0, #0
    90f4:	e8bd8010 	pop	{r4, pc}
    90f8:	00009cd8 	ldrdeq	r9, [r0], -r8

000090fc <gpio_write>:
    90fc:	e92d4008 	push	{r3, lr}
    9100:	e350001f 	cmp	r0, #31
    9104:	88bd8008 	pophi	{r3, pc}
    9108:	e3510000 	cmp	r1, #0
    910c:	0a000001 	beq	9118 <gpio_write+0x1c>
    9110:	ebffff97 	bl	8f74 <gpio_set_on>
    9114:	e8bd8008 	pop	{r3, pc}
    9118:	ebffffa3 	bl	8fac <gpio_set_off>
    911c:	e8bd8008 	pop	{r3, pc}

00009120 <gpio_set_function>:
    9120:	e92d4070 	push	{r4, r5, r6, lr}
    9124:	e1a04000 	mov	r4, r0
    9128:	e1a05001 	mov	r5, r1
    912c:	e3510007 	cmp	r1, #7
    9130:	9350001f 	cmpls	r0, #31
    9134:	88bd8070 	pophi	{r4, r5, r6, pc}
    9138:	e59f30b0 	ldr	r3, [pc, #176]	; 91f0 <gpio_set_function+0xd0>
    913c:	e0832093 	umull	r2, r3, r3, r0
    9140:	e1a031a3 	lsr	r3, r3, #3
    9144:	e3530005 	cmp	r3, #5
    9148:	979ff103 	ldrls	pc, [pc, r3, lsl #2]
    914c:	ea000017 	b	91b0 <gpio_set_function+0x90>
    9150:	00009168 	andeq	r9, r0, r8, ror #2
    9154:	00009174 	andeq	r9, r0, r4, ror r1
    9158:	00009180 	andeq	r9, r0, r0, lsl #3
    915c:	0000918c 	andeq	r9, r0, ip, lsl #3
    9160:	00009198 	muleq	r0, r8, r1
    9164:	000091a4 	andeq	r9, r0, r4, lsr #3
    9168:	e59f3084 	ldr	r3, [pc, #132]	; 91f4 <gpio_set_function+0xd4>
    916c:	e5936000 	ldr	r6, [r3]
    9170:	ea00000f 	b	91b4 <gpio_set_function+0x94>
    9174:	e59f3078 	ldr	r3, [pc, #120]	; 91f4 <gpio_set_function+0xd4>
    9178:	e5936004 	ldr	r6, [r3, #4]
    917c:	ea00000c 	b	91b4 <gpio_set_function+0x94>
    9180:	e59f306c 	ldr	r3, [pc, #108]	; 91f4 <gpio_set_function+0xd4>
    9184:	e5936008 	ldr	r6, [r3, #8]
    9188:	ea000009 	b	91b4 <gpio_set_function+0x94>
    918c:	e59f3060 	ldr	r3, [pc, #96]	; 91f4 <gpio_set_function+0xd4>
    9190:	e593600c 	ldr	r6, [r3, #12]
    9194:	ea000006 	b	91b4 <gpio_set_function+0x94>
    9198:	e59f3054 	ldr	r3, [pc, #84]	; 91f4 <gpio_set_function+0xd4>
    919c:	e5936010 	ldr	r6, [r3, #16]
    91a0:	ea000003 	b	91b4 <gpio_set_function+0x94>
    91a4:	e59f3048 	ldr	r3, [pc, #72]	; 91f4 <gpio_set_function+0xd4>
    91a8:	e5936014 	ldr	r6, [r3, #20]
    91ac:	ea000000 	b	91b4 <gpio_set_function+0x94>
    91b0:	e3a06000 	mov	r6, #0
    91b4:	e1a00006 	mov	r0, r6
    91b8:	eb0002a1 	bl	9c44 <get32>
    91bc:	e59f302c 	ldr	r3, [pc, #44]	; 91f0 <gpio_set_function+0xd0>
    91c0:	e0832493 	umull	r2, r3, r3, r4
    91c4:	e1a031a3 	lsr	r3, r3, #3
    91c8:	e0833103 	add	r3, r3, r3, lsl #2
    91cc:	e1a03083 	lsl	r3, r3, #1
    91d0:	e0633004 	rsb	r3, r3, r4
    91d4:	e0833083 	add	r3, r3, r3, lsl #1
    91d8:	e3a01007 	mov	r1, #7
    91dc:	e1c01311 	bic	r1, r0, r1, lsl r3
    91e0:	e1a00006 	mov	r0, r6
    91e4:	e1811315 	orr	r1, r1, r5, lsl r3
    91e8:	eb000289 	bl	9c14 <put32>
    91ec:	e8bd8070 	pop	{r4, r5, r6, pc}
    91f0:	cccccccd 	stclgt	12, cr12, [ip], {205}	; 0xcd
    91f4:	00009cd8 	ldrdeq	r9, [r0], -r8

000091f8 <gpio_toggle>:
    91f8:	e92d4008 	push	{r3, lr}
    91fc:	e350001f 	cmp	r0, #31
    9200:	88bd8008 	pophi	{r3, pc}
    9204:	959f3020 	ldrls	r3, [pc, #32]	; 922c <gpio_toggle+0x34>
    9208:	95932018 	ldrls	r2, [r3, #24]
    920c:	859f3018 	ldrhi	r3, [pc, #24]	; 922c <gpio_toggle+0x34>
    9210:	8593201c 	ldrhi	r2, [r3, #28]
    9214:	e200301f 	and	r3, r0, #31
    9218:	e1a00002 	mov	r0, r2
    921c:	e3a01001 	mov	r1, #1
    9220:	e1a01311 	lsl	r1, r1, r3
    9224:	eb00027a 	bl	9c14 <put32>
    9228:	e8bd8008 	pop	{r3, pc}
    922c:	00009cd8 	ldrdeq	r9, [r0], -r8

00009230 <is_gpio_int>:
    9230:	e92d4008 	push	{r3, lr}
    9234:	e59f301c 	ldr	r3, [pc, #28]	; 9258 <is_gpio_int+0x28>
    9238:	e5930030 	ldr	r0, [r3, #48]	; 0x30
    923c:	eb000280 	bl	9c44 <get32>
    9240:	e3500000 	cmp	r0, #0
    9244:	0a000001 	beq	9250 <is_gpio_int+0x20>
    9248:	e3a00001 	mov	r0, #1
    924c:	e8bd8008 	pop	{r3, pc}
    9250:	e3a00000 	mov	r0, #0
    9254:	e8bd8008 	pop	{r3, pc}
    9258:	00009cd8 	ldrdeq	r9, [r0], -r8

0000925c <gpio_int_rising_edge>:
    925c:	e92d4038 	push	{r3, r4, r5, lr}
    9260:	e1a04000 	mov	r4, r0
    9264:	e350001f 	cmp	r0, #31
    9268:	88bd8038 	pophi	{r3, r4, r5, pc}
    926c:	eb000262 	bl	9bfc <dev_barrier>
    9270:	e354001f 	cmp	r4, #31
    9274:	8a000007 	bhi	9298 <gpio_int_rising_edge+0x3c>
    9278:	e59f505c 	ldr	r5, [pc, #92]	; 92dc <gpio_int_rising_edge+0x80>
    927c:	e5950034 	ldr	r0, [r5, #52]	; 0x34
    9280:	eb00026f 	bl	9c44 <get32>
    9284:	e3a01001 	mov	r1, #1
    9288:	e1801411 	orr	r1, r0, r1, lsl r4
    928c:	e5950034 	ldr	r0, [r5, #52]	; 0x34
    9290:	eb00025f 	bl	9c14 <put32>
    9294:	ea000007 	b	92b8 <gpio_int_rising_edge+0x5c>
    9298:	e59f503c 	ldr	r5, [pc, #60]	; 92dc <gpio_int_rising_edge+0x80>
    929c:	e5950038 	ldr	r0, [r5, #56]	; 0x38
    92a0:	eb000267 	bl	9c44 <get32>
    92a4:	e204401f 	and	r4, r4, #31
    92a8:	e3a01001 	mov	r1, #1
    92ac:	e1801411 	orr	r1, r0, r1, lsl r4
    92b0:	e5950038 	ldr	r0, [r5, #56]	; 0x38
    92b4:	eb000256 	bl	9c14 <put32>
    92b8:	eb00024f 	bl	9bfc <dev_barrier>
    92bc:	e59f4018 	ldr	r4, [pc, #24]	; 92dc <gpio_int_rising_edge+0x80>
    92c0:	e594003c 	ldr	r0, [r4, #60]	; 0x3c
    92c4:	eb00025e 	bl	9c44 <get32>
    92c8:	e3801802 	orr	r1, r0, #131072	; 0x20000
    92cc:	e594003c 	ldr	r0, [r4, #60]	; 0x3c
    92d0:	eb00024f 	bl	9c14 <put32>
    92d4:	eb000248 	bl	9bfc <dev_barrier>
    92d8:	e8bd8038 	pop	{r3, r4, r5, pc}
    92dc:	00009cd8 	ldrdeq	r9, [r0], -r8

000092e0 <gpio_int_falling_edge>:
    92e0:	e92d4038 	push	{r3, r4, r5, lr}
    92e4:	e1a04000 	mov	r4, r0
    92e8:	e350001f 	cmp	r0, #31
    92ec:	88bd8038 	pophi	{r3, r4, r5, pc}
    92f0:	eb000241 	bl	9bfc <dev_barrier>
    92f4:	e354001f 	cmp	r4, #31
    92f8:	8a000007 	bhi	931c <gpio_int_falling_edge+0x3c>
    92fc:	e59f505c 	ldr	r5, [pc, #92]	; 9360 <gpio_int_falling_edge+0x80>
    9300:	e5950040 	ldr	r0, [r5, #64]	; 0x40
    9304:	eb00024e 	bl	9c44 <get32>
    9308:	e3a01001 	mov	r1, #1
    930c:	e1801411 	orr	r1, r0, r1, lsl r4
    9310:	e5950040 	ldr	r0, [r5, #64]	; 0x40
    9314:	eb00023e 	bl	9c14 <put32>
    9318:	ea000007 	b	933c <gpio_int_falling_edge+0x5c>
    931c:	e59f503c 	ldr	r5, [pc, #60]	; 9360 <gpio_int_falling_edge+0x80>
    9320:	e5950044 	ldr	r0, [r5, #68]	; 0x44
    9324:	eb000246 	bl	9c44 <get32>
    9328:	e204401f 	and	r4, r4, #31
    932c:	e3a01001 	mov	r1, #1
    9330:	e1801411 	orr	r1, r0, r1, lsl r4
    9334:	e5950044 	ldr	r0, [r5, #68]	; 0x44
    9338:	eb000235 	bl	9c14 <put32>
    933c:	eb00022e 	bl	9bfc <dev_barrier>
    9340:	e59f4018 	ldr	r4, [pc, #24]	; 9360 <gpio_int_falling_edge+0x80>
    9344:	e594003c 	ldr	r0, [r4, #60]	; 0x3c
    9348:	eb00023d 	bl	9c44 <get32>
    934c:	e3801601 	orr	r1, r0, #1048576	; 0x100000
    9350:	e594003c 	ldr	r0, [r4, #60]	; 0x3c
    9354:	eb00022e 	bl	9c14 <put32>
    9358:	eb000227 	bl	9bfc <dev_barrier>
    935c:	e8bd8038 	pop	{r3, r4, r5, pc}
    9360:	00009cd8 	ldrdeq	r9, [r0], -r8

00009364 <gpio_event_detected>:
    9364:	e92d4010 	push	{r4, lr}
    9368:	e1a04000 	mov	r4, r0
    936c:	e350001f 	cmp	r0, #31
    9370:	8a000019 	bhi	93dc <gpio_event_detected+0x78>
    9374:	eb000220 	bl	9bfc <dev_barrier>
    9378:	e354001f 	cmp	r4, #31
    937c:	8a000008 	bhi	93a4 <gpio_event_detected+0x40>
    9380:	e59f305c 	ldr	r3, [pc, #92]	; 93e4 <gpio_event_detected+0x80>
    9384:	e5930048 	ldr	r0, [r3, #72]	; 0x48
    9388:	eb00022d 	bl	9c44 <get32>
    938c:	e3a03001 	mov	r3, #1
    9390:	e0103413 	ands	r3, r0, r3, lsl r4
    9394:	0a00000d 	beq	93d0 <gpio_event_detected+0x6c>
    9398:	eb000217 	bl	9bfc <dev_barrier>
    939c:	e3a00001 	mov	r0, #1
    93a0:	e8bd8010 	pop	{r4, pc}
    93a4:	e59f3038 	ldr	r3, [pc, #56]	; 93e4 <gpio_event_detected+0x80>
    93a8:	e593004c 	ldr	r0, [r3, #76]	; 0x4c
    93ac:	eb000224 	bl	9c44 <get32>
    93b0:	e3a03001 	mov	r3, #1
    93b4:	e0004413 	and	r4, r0, r3, lsl r4
    93b8:	eb00020f 	bl	9bfc <dev_barrier>
    93bc:	e3540000 	cmp	r4, #0
    93c0:	0a000002 	beq	93d0 <gpio_event_detected+0x6c>
    93c4:	eb00020c 	bl	9bfc <dev_barrier>
    93c8:	e3a00001 	mov	r0, #1
    93cc:	e8bd8010 	pop	{r4, pc}
    93d0:	eb000209 	bl	9bfc <dev_barrier>
    93d4:	e3a00000 	mov	r0, #0
    93d8:	e8bd8010 	pop	{r4, pc}
    93dc:	e3e00000 	mvn	r0, #0
    93e0:	e8bd8010 	pop	{r4, pc}
    93e4:	00009cd8 	ldrdeq	r9, [r0], -r8

000093e8 <gpio_event_clear>:
    93e8:	e92d4010 	push	{r4, lr}
    93ec:	e1a04000 	mov	r4, r0
    93f0:	e350001f 	cmp	r0, #31
    93f4:	88bd8010 	pophi	{r4, pc}
    93f8:	eb0001ff 	bl	9bfc <dev_barrier>
    93fc:	e354001f 	cmp	r4, #31
    9400:	8a000005 	bhi	941c <gpio_event_clear+0x34>
    9404:	e59f3030 	ldr	r3, [pc, #48]	; 943c <gpio_event_clear+0x54>
    9408:	e5930048 	ldr	r0, [r3, #72]	; 0x48
    940c:	e3a01001 	mov	r1, #1
    9410:	e1a01411 	lsl	r1, r1, r4
    9414:	eb0001fe 	bl	9c14 <put32>
    9418:	ea000005 	b	9434 <gpio_event_clear+0x4c>
    941c:	e204401f 	and	r4, r4, #31
    9420:	e59f3014 	ldr	r3, [pc, #20]	; 943c <gpio_event_clear+0x54>
    9424:	e593004c 	ldr	r0, [r3, #76]	; 0x4c
    9428:	e3a01001 	mov	r1, #1
    942c:	e1a01411 	lsl	r1, r1, r4
    9430:	eb0001f7 	bl	9c14 <put32>
    9434:	eb0001f0 	bl	9bfc <dev_barrier>
    9438:	e8bd8010 	pop	{r4, pc}
    943c:	00009cd8 	ldrdeq	r9, [r0], -r8

00009440 <sw_uart_putc>:
    9440:	e92d41f0 	push	{r4, r5, r6, r7, r8, lr}
    9444:	e1a07001 	mov	r7, r1
    9448:	e5d06000 	ldrb	r6, [r0]
    944c:	e5905008 	ldr	r5, [r0, #8]
    9450:	ee1f4f3c 	mrc	15, 0, r4, cr15, cr12, {1}
    9454:	e1a00006 	mov	r0, r6
    9458:	e3a01000 	mov	r1, #0
    945c:	ebffff26 	bl	90fc <gpio_write>
    9460:	ee1f3f3c 	mrc	15, 0, r3, cr15, cr12, {1}
    9464:	e0643003 	rsb	r3, r4, r3
    9468:	e1550003 	cmp	r5, r3
    946c:	8afffffb 	bhi	9460 <sw_uart_putc+0x20>
    9470:	e1a08085 	lsl	r8, r5, #1
    9474:	e1a00006 	mov	r0, r6
    9478:	e2071001 	and	r1, r7, #1
    947c:	ebffff1e 	bl	90fc <gpio_write>
    9480:	ee1f3f3c 	mrc	15, 0, r3, cr15, cr12, {1}
    9484:	e0643003 	rsb	r3, r4, r3
    9488:	e1580003 	cmp	r8, r3
    948c:	8afffffb 	bhi	9480 <sw_uart_putc+0x40>
    9490:	e0888005 	add	r8, r8, r5
    9494:	e1a00006 	mov	r0, r6
    9498:	e2071002 	and	r1, r7, #2
    949c:	ebffff16 	bl	90fc <gpio_write>
    94a0:	ee1f3f3c 	mrc	15, 0, r3, cr15, cr12, {1}
    94a4:	e0643003 	rsb	r3, r4, r3
    94a8:	e1580003 	cmp	r8, r3
    94ac:	8afffffb 	bhi	94a0 <sw_uart_putc+0x60>
    94b0:	e0888005 	add	r8, r8, r5
    94b4:	e1a00006 	mov	r0, r6
    94b8:	e2071004 	and	r1, r7, #4
    94bc:	ebffff0e 	bl	90fc <gpio_write>
    94c0:	ee1f3f3c 	mrc	15, 0, r3, cr15, cr12, {1}
    94c4:	e0643003 	rsb	r3, r4, r3
    94c8:	e1580003 	cmp	r8, r3
    94cc:	8afffffb 	bhi	94c0 <sw_uart_putc+0x80>
    94d0:	e0888005 	add	r8, r8, r5
    94d4:	e1a00006 	mov	r0, r6
    94d8:	e2071008 	and	r1, r7, #8
    94dc:	ebffff06 	bl	90fc <gpio_write>
    94e0:	ee1f3f3c 	mrc	15, 0, r3, cr15, cr12, {1}
    94e4:	e0643003 	rsb	r3, r4, r3
    94e8:	e1580003 	cmp	r8, r3
    94ec:	8afffffb 	bhi	94e0 <sw_uart_putc+0xa0>
    94f0:	e0888005 	add	r8, r8, r5
    94f4:	e1a00006 	mov	r0, r6
    94f8:	e2071010 	and	r1, r7, #16
    94fc:	ebfffefe 	bl	90fc <gpio_write>
    9500:	ee1f3f3c 	mrc	15, 0, r3, cr15, cr12, {1}
    9504:	e0643003 	rsb	r3, r4, r3
    9508:	e1580003 	cmp	r8, r3
    950c:	8afffffb 	bhi	9500 <sw_uart_putc+0xc0>
    9510:	e0888005 	add	r8, r8, r5
    9514:	e1a00006 	mov	r0, r6
    9518:	e2071020 	and	r1, r7, #32
    951c:	ebfffef6 	bl	90fc <gpio_write>
    9520:	ee1f3f3c 	mrc	15, 0, r3, cr15, cr12, {1}
    9524:	e0643003 	rsb	r3, r4, r3
    9528:	e1580003 	cmp	r8, r3
    952c:	8afffffb 	bhi	9520 <sw_uart_putc+0xe0>
    9530:	e0888005 	add	r8, r8, r5
    9534:	e1a00006 	mov	r0, r6
    9538:	e2071040 	and	r1, r7, #64	; 0x40
    953c:	ebfffeee 	bl	90fc <gpio_write>
    9540:	ee1f3f3c 	mrc	15, 0, r3, cr15, cr12, {1}
    9544:	e0643003 	rsb	r3, r4, r3
    9548:	e1580003 	cmp	r8, r3
    954c:	8afffffb 	bhi	9540 <sw_uart_putc+0x100>
    9550:	e0888005 	add	r8, r8, r5
    9554:	e1a00006 	mov	r0, r6
    9558:	e2071080 	and	r1, r7, #128	; 0x80
    955c:	ebfffee6 	bl	90fc <gpio_write>
    9560:	ee1f3f3c 	mrc	15, 0, r3, cr15, cr12, {1}
    9564:	e0643003 	rsb	r3, r4, r3
    9568:	e1580003 	cmp	r8, r3
    956c:	8afffffb 	bhi	9560 <sw_uart_putc+0x120>
    9570:	e0885005 	add	r5, r8, r5
    9574:	e1a00006 	mov	r0, r6
    9578:	e3a01001 	mov	r1, #1
    957c:	ebfffede 	bl	90fc <gpio_write>
    9580:	ee1f3f3c 	mrc	15, 0, r3, cr15, cr12, {1}
    9584:	e0643003 	rsb	r3, r4, r3
    9588:	e1550003 	cmp	r5, r3
    958c:	8afffffb 	bhi	9580 <sw_uart_putc+0x140>
    9590:	e8bd81f0 	pop	{r4, r5, r6, r7, r8, pc}

00009594 <sw_uart_getc_timeout>:
    9594:	e92d43f8 	push	{r3, r4, r5, r6, r7, r8, r9, lr}
    9598:	e1a09000 	mov	r9, r0
    959c:	e5d07001 	ldrb	r7, [r0, #1]
    95a0:	e1a05007 	mov	r5, r7
    95a4:	e1a06001 	mov	r6, r1
    95a8:	ebfffe21 	bl	8e34 <timer_get_usec_raw>
    95ac:	e1a04000 	mov	r4, r0
    95b0:	e1a00005 	mov	r0, r5
    95b4:	ebfffebd 	bl	90b0 <gpio_read>
    95b8:	e3500000 	cmp	r0, #0
    95bc:	0a000005 	beq	95d8 <sw_uart_getc_timeout+0x44>
    95c0:	ebfffe1b 	bl	8e34 <timer_get_usec_raw>
    95c4:	e0640000 	rsb	r0, r4, r0
    95c8:	e1560000 	cmp	r6, r0
    95cc:	2afffff7 	bcs	95b0 <sw_uart_getc_timeout+0x1c>
    95d0:	e3a03000 	mov	r3, #0
    95d4:	ea000000 	b	95dc <sw_uart_getc_timeout+0x48>
    95d8:	e3a03001 	mov	r3, #1
    95dc:	e3530000 	cmp	r3, #0
    95e0:	0a000059 	beq	974c <sw_uart_getc_timeout+0x1b8>
    95e4:	ee1f8f3c 	mrc	15, 0, r8, cr15, cr12, {1}
    95e8:	e5994008 	ldr	r4, [r9, #8]
    95ec:	e08420a4 	add	r2, r4, r4, lsr #1
    95f0:	ee1f3f3c 	mrc	15, 0, r3, cr15, cr12, {1}
    95f4:	e0683003 	rsb	r3, r8, r3
    95f8:	e1520003 	cmp	r2, r3
    95fc:	8afffffb 	bhi	95f0 <sw_uart_getc_timeout+0x5c>
    9600:	e0888004 	add	r8, r8, r4
    9604:	e1a00007 	mov	r0, r7
    9608:	ebfffea8 	bl	90b0 <gpio_read>
    960c:	e1a09750 	asr	r9, r0, r7
    9610:	ee1f3f3c 	mrc	15, 0, r3, cr15, cr12, {1}
    9614:	e0683003 	rsb	r3, r8, r3
    9618:	e1540003 	cmp	r4, r3
    961c:	8afffffb 	bhi	9610 <sw_uart_getc_timeout+0x7c>
    9620:	e0888004 	add	r8, r8, r4
    9624:	e1a00007 	mov	r0, r7
    9628:	ebfffea0 	bl	90b0 <gpio_read>
    962c:	e1a00750 	asr	r0, r0, r7
    9630:	e1899080 	orr	r9, r9, r0, lsl #1
    9634:	ee1f3f3c 	mrc	15, 0, r3, cr15, cr12, {1}
    9638:	e0683003 	rsb	r3, r8, r3
    963c:	e1540003 	cmp	r4, r3
    9640:	8afffffb 	bhi	9634 <sw_uart_getc_timeout+0xa0>
    9644:	e0888004 	add	r8, r8, r4
    9648:	e1a00007 	mov	r0, r7
    964c:	ebfffe97 	bl	90b0 <gpio_read>
    9650:	e1a00750 	asr	r0, r0, r7
    9654:	e1899100 	orr	r9, r9, r0, lsl #2
    9658:	ee1f3f3c 	mrc	15, 0, r3, cr15, cr12, {1}
    965c:	e0683003 	rsb	r3, r8, r3
    9660:	e1540003 	cmp	r4, r3
    9664:	8afffffb 	bhi	9658 <sw_uart_getc_timeout+0xc4>
    9668:	e0888004 	add	r8, r8, r4
    966c:	e1a00007 	mov	r0, r7
    9670:	ebfffe8e 	bl	90b0 <gpio_read>
    9674:	e1a00750 	asr	r0, r0, r7
    9678:	e1899180 	orr	r9, r9, r0, lsl #3
    967c:	ee1f3f3c 	mrc	15, 0, r3, cr15, cr12, {1}
    9680:	e0683003 	rsb	r3, r8, r3
    9684:	e1540003 	cmp	r4, r3
    9688:	8afffffb 	bhi	967c <sw_uart_getc_timeout+0xe8>
    968c:	e0888004 	add	r8, r8, r4
    9690:	e1a00007 	mov	r0, r7
    9694:	ebfffe85 	bl	90b0 <gpio_read>
    9698:	e1a00750 	asr	r0, r0, r7
    969c:	e1899200 	orr	r9, r9, r0, lsl #4
    96a0:	ee1f3f3c 	mrc	15, 0, r3, cr15, cr12, {1}
    96a4:	e0683003 	rsb	r3, r8, r3
    96a8:	e1540003 	cmp	r4, r3
    96ac:	8afffffb 	bhi	96a0 <sw_uart_getc_timeout+0x10c>
    96b0:	e0888004 	add	r8, r8, r4
    96b4:	e1a00007 	mov	r0, r7
    96b8:	ebfffe7c 	bl	90b0 <gpio_read>
    96bc:	e1a00750 	asr	r0, r0, r7
    96c0:	e1899280 	orr	r9, r9, r0, lsl #5
    96c4:	ee1f3f3c 	mrc	15, 0, r3, cr15, cr12, {1}
    96c8:	e0683003 	rsb	r3, r8, r3
    96cc:	e1540003 	cmp	r4, r3
    96d0:	8afffffb 	bhi	96c4 <sw_uart_getc_timeout+0x130>
    96d4:	e0888004 	add	r8, r8, r4
    96d8:	e1a00007 	mov	r0, r7
    96dc:	ebfffe73 	bl	90b0 <gpio_read>
    96e0:	e1a00750 	asr	r0, r0, r7
    96e4:	e1899300 	orr	r9, r9, r0, lsl #6
    96e8:	ee1f3f3c 	mrc	15, 0, r3, cr15, cr12, {1}
    96ec:	e0683003 	rsb	r3, r8, r3
    96f0:	e1540003 	cmp	r4, r3
    96f4:	8afffffb 	bhi	96e8 <sw_uart_getc_timeout+0x154>
    96f8:	e1a00007 	mov	r0, r7
    96fc:	ebfffe6b 	bl	90b0 <gpio_read>
    9700:	e1a00750 	asr	r0, r0, r7
    9704:	e1899380 	orr	r9, r9, r0, lsl #7
    9708:	ebfffdc9 	bl	8e34 <timer_get_usec_raw>
    970c:	e1a04000 	mov	r4, r0
    9710:	e1a00005 	mov	r0, r5
    9714:	ebfffe65 	bl	90b0 <gpio_read>
    9718:	e3500000 	cmp	r0, #0
    971c:	0a000005 	beq	9738 <sw_uart_getc_timeout+0x1a4>
    9720:	ebfffdc3 	bl	8e34 <timer_get_usec_raw>
    9724:	e0640000 	rsb	r0, r4, r0
    9728:	e1560000 	cmp	r6, r0
    972c:	2afffff7 	bcs	9710 <sw_uart_getc_timeout+0x17c>
    9730:	e3a03000 	mov	r3, #0
    9734:	ea000000 	b	973c <sw_uart_getc_timeout+0x1a8>
    9738:	e3a03001 	mov	r3, #1
    973c:	e3530000 	cmp	r3, #0
    9740:	0a000003 	beq	9754 <sw_uart_getc_timeout+0x1c0>
    9744:	e1a00009 	mov	r0, r9
    9748:	e8bd83f8 	pop	{r3, r4, r5, r6, r7, r8, r9, pc}
    974c:	e3e00000 	mvn	r0, #0
    9750:	e8bd83f8 	pop	{r3, r4, r5, r6, r7, r8, r9, pc}
    9754:	e3e00000 	mvn	r0, #0
    9758:	e8bd83f8 	pop	{r3, r4, r5, r6, r7, r8, r9, pc}

0000975c <sw_uart_gets_until>:
    975c:	e92d47f0 	push	{r4, r5, r6, r7, r8, r9, sl, lr}
    9760:	e24dd008 	sub	sp, sp, #8
    9764:	e1a08000 	mov	r8, r0
    9768:	e1a06001 	mov	r6, r1
    976c:	e1a09003 	mov	r9, r3
    9770:	e59da028 	ldr	sl, [sp, #40]	; 0x28
    9774:	e3520000 	cmp	r2, #0
    9778:	1a000008 	bne	97a0 <sw_uart_gets_until+0x44>
    977c:	ebfffbea 	bl	872c <rpi_reset_putc>
    9780:	e59f3068 	ldr	r3, [pc, #104]	; 97f0 <sw_uart_gets_until+0x94>
    9784:	e58d3000 	str	r3, [sp]
    9788:	e59f0064 	ldr	r0, [pc, #100]	; 97f4 <sw_uart_gets_until+0x98>
    978c:	e59f1064 	ldr	r1, [pc, #100]	; 97f8 <sw_uart_gets_until+0x9c>
    9790:	e59f2064 	ldr	r2, [pc, #100]	; 97fc <sw_uart_gets_until+0xa0>
    9794:	e3a0306d 	mov	r3, #109	; 0x6d
    9798:	ebfffbc8 	bl	86c0 <printk>
    979c:	ebfffd4a 	bl	8ccc <clean_reboot>
    97a0:	e3a04000 	mov	r4, #0
    97a4:	e5c14000 	strb	r4, [r1]
    97a8:	e2427001 	sub	r7, r2, #1
    97ac:	ea000007 	b	97d0 <sw_uart_gets_until+0x74>
    97b0:	e1a00008 	mov	r0, r8
    97b4:	e1a0100a 	mov	r1, sl
    97b8:	ebffff75 	bl	9594 <sw_uart_getc_timeout>
    97bc:	e6ef0070 	uxtb	r0, r0
    97c0:	e1500009 	cmp	r0, r9
    97c4:	0a000004 	beq	97dc <sw_uart_gets_until+0x80>
    97c8:	e7c60005 	strb	r0, [r6, r5]
    97cc:	e2844001 	add	r4, r4, #1
    97d0:	e1a05004 	mov	r5, r4
    97d4:	e1540007 	cmp	r4, r7
    97d8:	3afffff4 	bcc	97b0 <sw_uart_gets_until+0x54>
    97dc:	e3a03000 	mov	r3, #0
    97e0:	e7c63005 	strb	r3, [r6, r5]
    97e4:	e1a00004 	mov	r0, r4
    97e8:	e28dd008 	add	sp, sp, #8
    97ec:	e8bd87f0 	pop	{r4, r5, r6, r7, r8, r9, sl, pc}
    97f0:	00009fac 	andeq	r9, r0, ip, lsr #31
    97f4:	00009e20 	andeq	r9, r0, r0, lsr #28
    97f8:	00009f98 	muleq	r0, r8, pc	; <UNPREDICTABLE>
    97fc:	00009f20 	andeq	r9, r0, r0, lsr #30

00009800 <sw_uart_gets_timeout>:
    9800:	e92d41f0 	push	{r4, r5, r6, r7, r8, lr}
    9804:	e24dd008 	sub	sp, sp, #8
    9808:	e1a07000 	mov	r7, r0
    980c:	e1a05001 	mov	r5, r1
    9810:	e1a08003 	mov	r8, r3
    9814:	e3520000 	cmp	r2, #0
    9818:	1a000008 	bne	9840 <sw_uart_gets_timeout+0x40>
    981c:	ebfffbc2 	bl	872c <rpi_reset_putc>
    9820:	e59f3058 	ldr	r3, [pc, #88]	; 9880 <sw_uart_gets_timeout+0x80>
    9824:	e58d3000 	str	r3, [sp]
    9828:	e59f0054 	ldr	r0, [pc, #84]	; 9884 <sw_uart_gets_timeout+0x84>
    982c:	e59f1054 	ldr	r1, [pc, #84]	; 9888 <sw_uart_gets_timeout+0x88>
    9830:	e59f2054 	ldr	r2, [pc, #84]	; 988c <sw_uart_gets_timeout+0x8c>
    9834:	e3a03083 	mov	r3, #131	; 0x83
    9838:	ebfffba0 	bl	86c0 <printk>
    983c:	ebfffd22 	bl	8ccc <clean_reboot>
    9840:	e3a04000 	mov	r4, #0
    9844:	e5c14000 	strb	r4, [r1]
    9848:	e2426001 	sub	r6, r2, #1
    984c:	ea000004 	b	9864 <sw_uart_gets_timeout+0x64>
    9850:	e1a00007 	mov	r0, r7
    9854:	e1a01008 	mov	r1, r8
    9858:	ebffff4d 	bl	9594 <sw_uart_getc_timeout>
    985c:	e7c50004 	strb	r0, [r5, r4]
    9860:	e2844001 	add	r4, r4, #1
    9864:	e1540006 	cmp	r4, r6
    9868:	3afffff8 	bcc	9850 <sw_uart_gets_timeout+0x50>
    986c:	e3a03000 	mov	r3, #0
    9870:	e7c53004 	strb	r3, [r5, r4]
    9874:	e1a00004 	mov	r0, r4
    9878:	e28dd008 	add	sp, sp, #8
    987c:	e8bd81f0 	pop	{r4, r5, r6, r7, r8, pc}
    9880:	00009fac 	andeq	r9, r0, ip, lsr #31
    9884:	00009e20 	andeq	r9, r0, r0, lsr #28
    9888:	00009f98 	muleq	r0, r8, pc	; <UNPREDICTABLE>
    988c:	00009f34 	andeq	r9, r0, r4, lsr pc

00009890 <sw_uart_init_helper>:
    9890:	e92d41f0 	push	{r4, r5, r6, r7, r8, lr}
    9894:	e24dd008 	sub	sp, sp, #8
    9898:	e1a04000 	mov	r4, r0
    989c:	e1a06001 	mov	r6, r1
    98a0:	e1a08002 	mov	r8, r2
    98a4:	e1a05003 	mov	r5, r3
    98a8:	e59d7020 	ldr	r7, [sp, #32]
    98ac:	e1a00001 	mov	r0, r1
    98b0:	ebfffd7a 	bl	8ea0 <gpio_set_output>
    98b4:	e1a00008 	mov	r0, r8
    98b8:	ebfffdc9 	bl	8fe4 <gpio_set_input>
    98bc:	e3a03001 	mov	r3, #1
    98c0:	ee0f3f1c 	mcr	15, 0, r3, cr15, cr12, {0}
    98c4:	e1a00006 	mov	r0, r6
    98c8:	e3a01001 	mov	r1, #1
    98cc:	ebfffe0a 	bl	90fc <gpio_write>
    98d0:	e0020795 	mul	r2, r5, r7
    98d4:	e59f3074 	ldr	r3, [pc, #116]	; 9950 <sw_uart_init_helper+0xc0>
    98d8:	e0653003 	rsb	r3, r5, r3
    98dc:	e1530002 	cmp	r3, r2
    98e0:	8a000005 	bhi	98fc <sw_uart_init_helper+0x6c>
    98e4:	e59f3064 	ldr	r3, [pc, #100]	; 9950 <sw_uart_init_helper+0xc0>
    98e8:	e0853003 	add	r3, r5, r3
    98ec:	e1530002 	cmp	r3, r2
    98f0:	2a000003 	bcs	9904 <sw_uart_init_helper+0x74>
    98f4:	e3a03000 	mov	r3, #0
    98f8:	ea000002 	b	9908 <sw_uart_init_helper+0x78>
    98fc:	e3a03000 	mov	r3, #0
    9900:	ea000000 	b	9908 <sw_uart_init_helper+0x78>
    9904:	e3a03001 	mov	r3, #1
    9908:	e3530000 	cmp	r3, #0
    990c:	1a000008 	bne	9934 <sw_uart_init_helper+0xa4>
    9910:	ebfffb85 	bl	872c <rpi_reset_putc>
    9914:	e59f3038 	ldr	r3, [pc, #56]	; 9954 <sw_uart_init_helper+0xc4>
    9918:	e58d3000 	str	r3, [sp]
    991c:	e59f0034 	ldr	r0, [pc, #52]	; 9958 <sw_uart_init_helper+0xc8>
    9920:	e59f1034 	ldr	r1, [pc, #52]	; 995c <sw_uart_init_helper+0xcc>
    9924:	e59f2034 	ldr	r2, [pc, #52]	; 9960 <sw_uart_init_helper+0xd0>
    9928:	e3a0309d 	mov	r3, #157	; 0x9d
    992c:	ebfffb63 	bl	86c0 <printk>
    9930:	ebfffce5 	bl	8ccc <clean_reboot>
    9934:	e5c46000 	strb	r6, [r4]
    9938:	e5c48001 	strb	r8, [r4, #1]
    993c:	e5845004 	str	r5, [r4, #4]
    9940:	e5847008 	str	r7, [r4, #8]
    9944:	e1a00004 	mov	r0, r4
    9948:	e28dd008 	add	sp, sp, #8
    994c:	e8bd81f0 	pop	{r4, r5, r6, r7, r8, pc}
    9950:	29b92700 	ldmibcs	r9!, {r8, r9, sl, sp}
    9954:	00009fb8 			; <UNDEFINED> instruction: 0x00009fb8
    9958:	00009e20 	andeq	r9, r0, r0, lsr #28
    995c:	00009f98 	muleq	r0, r8, pc	; <UNPREDICTABLE>
    9960:	00009f4c 	andeq	r9, r0, ip, asr #30

00009964 <sw_uart_getc>:
    9964:	e92d4008 	push	{r3, lr}
    9968:	e3e01000 	mvn	r1, #0
    996c:	ebffff08 	bl	9594 <sw_uart_getc_timeout>
    9970:	e3500000 	cmp	r0, #0
    9974:	a8bd8008 	popge	{r3, pc}
    9978:	ebfffb6b 	bl	872c <rpi_reset_putc>
    997c:	e59f0010 	ldr	r0, [pc, #16]	; 9994 <sw_uart_getc+0x30>
    9980:	e59f1010 	ldr	r1, [pc, #16]	; 9998 <sw_uart_getc+0x34>
    9984:	e59f2010 	ldr	r2, [pc, #16]	; 999c <sw_uart_getc+0x38>
    9988:	e3a030ac 	mov	r3, #172	; 0xac
    998c:	ebfffb4b 	bl	86c0 <printk>
    9990:	ebfffccd 	bl	8ccc <clean_reboot>
    9994:	00009fec 	andeq	r9, r0, ip, ror #31
    9998:	00009f98 	muleq	r0, r8, pc	; <UNPREDICTABLE>
    999c:	00009f60 	andeq	r9, r0, r0, ror #30

000099a0 <sw_uart_putk>:
    99a0:	e92d4038 	push	{r3, r4, r5, lr}
    99a4:	e1a05000 	mov	r5, r0
    99a8:	e1a04001 	mov	r4, r1
    99ac:	ea000002 	b	99bc <sw_uart_putk+0x1c>
    99b0:	e1a00005 	mov	r0, r5
    99b4:	ebfffea1 	bl	9440 <sw_uart_putc>
    99b8:	e2844001 	add	r4, r4, #1
    99bc:	e5d41000 	ldrb	r1, [r4]
    99c0:	e3510000 	cmp	r1, #0
    99c4:	1afffff9 	bne	99b0 <sw_uart_putk+0x10>
    99c8:	e8bd8038 	pop	{r3, r4, r5, pc}

000099cc <sw_uart_printk>:
    99cc:	e92d000e 	push	{r1, r2, r3}
    99d0:	e92d4030 	push	{r4, r5, lr}
    99d4:	e24ddf76 	sub	sp, sp, #472	; 0x1d8
    99d8:	e1a05000 	mov	r5, r0
    99dc:	e28d3f7a 	add	r3, sp, #488	; 0x1e8
    99e0:	e58d3008 	str	r3, [sp, #8]
    99e4:	e28d000c 	add	r0, sp, #12
    99e8:	e3a01f73 	mov	r1, #460	; 0x1cc
    99ec:	e59d21e4 	ldr	r2, [sp, #484]	; 0x1e4
    99f0:	ebfffc08 	bl	8a18 <va_printk>
    99f4:	e1a04000 	mov	r4, r0
    99f8:	e59f3048 	ldr	r3, [pc, #72]	; 9a48 <sw_uart_printk+0x7c>
    99fc:	e1500003 	cmp	r0, r3
    9a00:	9a000008 	bls	9a28 <sw_uart_printk+0x5c>
    9a04:	ebfffb48 	bl	872c <rpi_reset_putc>
    9a08:	e59f303c 	ldr	r3, [pc, #60]	; 9a4c <sw_uart_printk+0x80>
    9a0c:	e58d3000 	str	r3, [sp]
    9a10:	e59f0038 	ldr	r0, [pc, #56]	; 9a50 <sw_uart_printk+0x84>
    9a14:	e59f1038 	ldr	r1, [pc, #56]	; 9a54 <sw_uart_printk+0x88>
    9a18:	e59f2038 	ldr	r2, [pc, #56]	; 9a58 <sw_uart_printk+0x8c>
    9a1c:	e3a030c0 	mov	r3, #192	; 0xc0
    9a20:	ebfffb26 	bl	86c0 <printk>
    9a24:	ebfffca8 	bl	8ccc <clean_reboot>
    9a28:	e1a00005 	mov	r0, r5
    9a2c:	e28d100c 	add	r1, sp, #12
    9a30:	ebffffda 	bl	99a0 <sw_uart_putk>
    9a34:	e1a00004 	mov	r0, r4
    9a38:	e28ddf76 	add	sp, sp, #472	; 0x1d8
    9a3c:	e8bd4030 	pop	{r4, r5, lr}
    9a40:	e28dd00c 	add	sp, sp, #12
    9a44:	e12fff1e 	bx	lr
    9a48:	000001ca 	andeq	r0, r0, sl, asr #3
    9a4c:	0000a024 	andeq	sl, r0, r4, lsr #32
    9a50:	00009e20 	andeq	r9, r0, r0, lsr #28
    9a54:	00009f98 	muleq	r0, r8, pc	; <UNPREDICTABLE>
    9a58:	00009f70 	andeq	r9, r0, r0, ror pc

00009a5c <sw_uart_gets_until_blk>:
    9a5c:	e52de004 	push	{lr}		; (str lr, [sp, #-4]!)
    9a60:	e24dd00c 	sub	sp, sp, #12
    9a64:	e3e0c000 	mvn	ip, #0
    9a68:	e58dc000 	str	ip, [sp]
    9a6c:	ebffff3a 	bl	975c <sw_uart_gets_until>
    9a70:	e3500000 	cmp	r0, #0
    9a74:	aa000006 	bge	9a94 <sw_uart_gets_until_blk+0x38>
    9a78:	ebfffb2b 	bl	872c <rpi_reset_putc>
    9a7c:	e59f0018 	ldr	r0, [pc, #24]	; 9a9c <sw_uart_gets_until_blk+0x40>
    9a80:	e59f1018 	ldr	r1, [pc, #24]	; 9aa0 <sw_uart_gets_until_blk+0x44>
    9a84:	e59f2018 	ldr	r2, [pc, #24]	; 9aa4 <sw_uart_gets_until_blk+0x48>
    9a88:	e3a030c8 	mov	r3, #200	; 0xc8
    9a8c:	ebfffb0b 	bl	86c0 <printk>
    9a90:	ebfffc8d 	bl	8ccc <clean_reboot>
    9a94:	e28dd00c 	add	sp, sp, #12
    9a98:	e49df004 	pop	{pc}		; (ldr pc, [sp], #4)
    9a9c:	00009fec 	andeq	r9, r0, ip, ror #31
    9aa0:	00009f98 	muleq	r0, r8, pc	; <UNPREDICTABLE>
    9aa4:	00009f80 	andeq	r9, r0, r0, lsl #31

00009aa8 <uart_init>:
    9aa8:	e92d4038 	push	{r3, r4, r5, lr}
    9aac:	eb000052 	bl	9bfc <dev_barrier>
    9ab0:	e3a0000e 	mov	r0, #14
    9ab4:	e3a01002 	mov	r1, #2
    9ab8:	ebfffd98 	bl	9120 <gpio_set_function>
    9abc:	e3a0000f 	mov	r0, #15
    9ac0:	e3a01002 	mov	r1, #2
    9ac4:	ebfffd95 	bl	9120 <gpio_set_function>
    9ac8:	eb00004b 	bl	9bfc <dev_barrier>
    9acc:	e59f4068 	ldr	r4, [pc, #104]	; 9b3c <uart_init+0x94>
    9ad0:	e5945000 	ldr	r5, [r4]
    9ad4:	e1a00005 	mov	r0, r5
    9ad8:	eb000059 	bl	9c44 <get32>
    9adc:	e3801001 	orr	r1, r0, #1
    9ae0:	e1a00005 	mov	r0, r5
    9ae4:	eb00004a 	bl	9c14 <put32>
    9ae8:	eb000043 	bl	9bfc <dev_barrier>
    9aec:	e5940004 	ldr	r0, [r4, #4]
    9af0:	e3a01000 	mov	r1, #0
    9af4:	eb000046 	bl	9c14 <put32>
    9af8:	e5940008 	ldr	r0, [r4, #8]
    9afc:	e3a01000 	mov	r1, #0
    9b00:	eb000043 	bl	9c14 <put32>
    9b04:	e594000c 	ldr	r0, [r4, #12]
    9b08:	e3a01006 	mov	r1, #6
    9b0c:	eb000040 	bl	9c14 <put32>
    9b10:	e5940010 	ldr	r0, [r4, #16]
    9b14:	e3a01003 	mov	r1, #3
    9b18:	eb00003d 	bl	9c14 <put32>
    9b1c:	e5940014 	ldr	r0, [r4, #20]
    9b20:	e59f1018 	ldr	r1, [pc, #24]	; 9b40 <uart_init+0x98>
    9b24:	eb00003a 	bl	9c14 <put32>
    9b28:	e5940004 	ldr	r0, [r4, #4]
    9b2c:	e3a01003 	mov	r1, #3
    9b30:	eb000037 	bl	9c14 <put32>
    9b34:	eb000030 	bl	9bfc <dev_barrier>
    9b38:	e8bd8038 	pop	{r3, r4, r5, pc}
    9b3c:	00009d38 	andeq	r9, r0, r8, lsr sp
    9b40:	0000010e 	andeq	r0, r0, lr, lsl #2

00009b44 <uart_can_getc>:
    9b44:	e92d4008 	push	{r3, lr}
    9b48:	e59f300c 	ldr	r3, [pc, #12]	; 9b5c <uart_can_getc+0x18>
    9b4c:	e5930018 	ldr	r0, [r3, #24]
    9b50:	eb00003b 	bl	9c44 <get32>
    9b54:	e2000001 	and	r0, r0, #1
    9b58:	e8bd8008 	pop	{r3, pc}
    9b5c:	00009d38 	andeq	r9, r0, r8, lsr sp

00009b60 <uart_getc>:
    9b60:	e92d4008 	push	{r3, lr}
    9b64:	ebfffff6 	bl	9b44 <uart_can_getc>
    9b68:	e3500000 	cmp	r0, #0
    9b6c:	0afffffc 	beq	9b64 <uart_getc+0x4>
    9b70:	e59f300c 	ldr	r3, [pc, #12]	; 9b84 <uart_getc+0x24>
    9b74:	e593001c 	ldr	r0, [r3, #28]
    9b78:	eb000031 	bl	9c44 <get32>
    9b7c:	e6ef0070 	uxtb	r0, r0
    9b80:	e8bd8008 	pop	{r3, pc}
    9b84:	00009d38 	andeq	r9, r0, r8, lsr sp

00009b88 <uart_can_putc>:
    9b88:	e92d4008 	push	{r3, lr}
    9b8c:	e59f300c 	ldr	r3, [pc, #12]	; 9ba0 <uart_can_putc+0x18>
    9b90:	e5930018 	ldr	r0, [r3, #24]
    9b94:	eb00002a 	bl	9c44 <get32>
    9b98:	e2000020 	and	r0, r0, #32
    9b9c:	e8bd8008 	pop	{r3, pc}
    9ba0:	00009d38 	andeq	r9, r0, r8, lsr sp

00009ba4 <uart_putc>:
    9ba4:	e92d4010 	push	{r4, lr}
    9ba8:	e1a04000 	mov	r4, r0
    9bac:	ebfffff5 	bl	9b88 <uart_can_putc>
    9bb0:	e3500000 	cmp	r0, #0
    9bb4:	0afffffc 	beq	9bac <uart_putc+0x8>
    9bb8:	e59f300c 	ldr	r3, [pc, #12]	; 9bcc <uart_putc+0x28>
    9bbc:	e593001c 	ldr	r0, [r3, #28]
    9bc0:	e1a01004 	mov	r1, r4
    9bc4:	eb000012 	bl	9c14 <put32>
    9bc8:	e8bd8010 	pop	{r4, pc}
    9bcc:	00009d38 	andeq	r9, r0, r8, lsr sp

00009bd0 <uart_has_data>:
    9bd0:	e92d4008 	push	{r3, lr}
    9bd4:	ebffffda 	bl	9b44 <uart_can_getc>
    9bd8:	e8bd8008 	pop	{r3, pc}

00009bdc <uart_getc_async>:
    9bdc:	e92d4008 	push	{r3, lr}
    9be0:	ebfffffa 	bl	9bd0 <uart_has_data>
    9be4:	e3500000 	cmp	r0, #0
    9be8:	0a000001 	beq	9bf4 <uart_getc_async+0x18>
    9bec:	ebffffdb 	bl	9b60 <uart_getc>
    9bf0:	e8bd8008 	pop	{r3, pc}
    9bf4:	e3e00000 	mvn	r0, #0
    9bf8:	e8bd8008 	pop	{r3, pc}

00009bfc <dev_barrier>:
    9bfc:	ea000002 	b	9c0c <dsb>

00009c00 <dmb>:
    9c00:	e3a00000 	mov	r0, #0
    9c04:	ee070fba 	mcr	15, 0, r0, cr7, cr10, {5}
    9c08:	e12fff1e 	bx	lr

00009c0c <dsb>:
    9c0c:	ee070f9a 	mcr	15, 0, r0, cr7, cr10, {4}
    9c10:	e12fff1e 	bx	lr

00009c14 <put32>:
    9c14:	e5801000 	str	r1, [r0]
    9c18:	e12fff1e 	bx	lr

00009c1c <PUT32>:
    9c1c:	e5801000 	str	r1, [r0]
    9c20:	e12fff1e 	bx	lr

00009c24 <put16>:
    9c24:	e1c010b0 	strh	r1, [r0]
    9c28:	e12fff1e 	bx	lr

00009c2c <PUT16>:
    9c2c:	e1c010b0 	strh	r1, [r0]
    9c30:	e12fff1e 	bx	lr

00009c34 <put8>:
    9c34:	e5c01000 	strb	r1, [r0]
    9c38:	e12fff1e 	bx	lr

00009c3c <PUT8>:
    9c3c:	e5c01000 	strb	r1, [r0]
    9c40:	e12fff1e 	bx	lr

00009c44 <get32>:
    9c44:	e5900000 	ldr	r0, [r0]
    9c48:	e12fff1e 	bx	lr

00009c4c <GET32>:
    9c4c:	e5900000 	ldr	r0, [r0]
    9c50:	e12fff1e 	bx	lr

00009c54 <GETPC>:
    9c54:	e1a0000e 	mov	r0, lr
    9c58:	e12fff1e 	bx	lr

00009c5c <dummy>:
    9c5c:	e12fff1e 	bx	lr

00009c60 <cb_new>:
    9c60:	e92d4008 	push	{r3, lr}
    9c64:	e3a00409 	mov	r0, #150994944	; 0x9000000
    9c68:	e3a01000 	mov	r1, #0
    9c6c:	e3a02004 	mov	r2, #4
    9c70:	eb00000e 	bl	9cb0 <memset>
    9c74:	e3a00409 	mov	r0, #150994944	; 0x9000000
    9c78:	e59f3004 	ldr	r3, [pc, #4]	; 9c84 <cb_new+0x24>
    9c7c:	e5803000 	str	r3, [r0]
    9c80:	e8bd8008 	pop	{r3, pc}
    9c84:	12345678 	eorsne	r5, r4, #120, 12	; 0x7800000

00009c88 <cb_get_block>:
    9c88:	e3a03409 	mov	r3, #150994944	; 0x9000000
    9c8c:	e5932000 	ldr	r2, [r3]
    9c90:	e59f3014 	ldr	r3, [pc, #20]	; 9cac <cb_get_block+0x24>
    9c94:	e1520003 	cmp	r2, r3
    9c98:	0a000001 	beq	9ca4 <cb_get_block+0x1c>
    9c9c:	e3a00000 	mov	r0, #0
    9ca0:	e12fff1e 	bx	lr
    9ca4:	e3a00409 	mov	r0, #150994944	; 0x9000000
    9ca8:	e12fff1e 	bx	lr
    9cac:	12345678 	eorsne	r5, r4, #120, 12	; 0x7800000

00009cb0 <memset>:
    9cb0:	e0802002 	add	r2, r0, r2
    9cb4:	e1a03000 	mov	r3, r0
    9cb8:	ea000001 	b	9cc4 <memset+0x14>
    9cbc:	e5c31000 	strb	r1, [r3]
    9cc0:	e2833001 	add	r3, r3, #1
    9cc4:	e1530002 	cmp	r3, r2
    9cc8:	3afffffb 	bcc	9cbc <memset+0xc>
    9ccc:	e12fff1e 	bx	lr

Disassembly of section .data:

00009cd0 <rpi_putchar>:
    9cd0:	00008718 	andeq	r8, r0, r8, lsl r7

00009cd4 <putk>:
    9cd4:	00008754 	andeq	r8, r0, r4, asr r7

00009cd8 <GPFSEL0>:
    9cd8:	20200000 	eorcs	r0, r0, r0

00009cdc <GPFSEL1>:
    9cdc:	20200004 	eorcs	r0, r0, r4

00009ce0 <GPFSEL2>:
    9ce0:	20200008 	eorcs	r0, r0, r8

00009ce4 <GPFSEL3>:
    9ce4:	2020000c 	eorcs	r0, r0, ip

00009ce8 <GPFSEL4>:
    9ce8:	20200010 	eorcs	r0, r0, r0, lsl r0

00009cec <GPFSEL5>:
    9cec:	20200014 	eorcs	r0, r0, r4, lsl r0

00009cf0 <GPSET0>:
    9cf0:	2020001c 	eorcs	r0, r0, ip, lsl r0

00009cf4 <GPSET1>:
    9cf4:	20200020 	eorcs	r0, r0, r0, lsr #32

00009cf8 <GPCLR0>:
    9cf8:	20200028 	eorcs	r0, r0, r8, lsr #32

00009cfc <GPCLR1>:
    9cfc:	2020002c 	eorcs	r0, r0, ip, lsr #32

00009d00 <GPLEV0>:
    9d00:	20200034 	eorcs	r0, r0, r4, lsr r0

00009d04 <GPLEV1>:
    9d04:	20200038 	eorcs	r0, r0, r8, lsr r0

00009d08 <IRQ_PENDING_2>:
    9d08:	2000b208 	andcs	fp, r0, r8, lsl #4

00009d0c <GPREN0>:
    9d0c:	2020004c 	eorcs	r0, r0, ip, asr #32

00009d10 <GPREN1>:
    9d10:	20200050 	eorcs	r0, r0, r0, asr r0

00009d14 <ENABLE_IRQS_2>:
    9d14:	2000b214 	andcs	fp, r0, r4, lsl r2

00009d18 <GPFEN0>:
    9d18:	20200058 	eorcs	r0, r0, r8, asr r0

00009d1c <GPFEN1>:
    9d1c:	2020005c 	eorcs	r0, r0, ip, asr r0

00009d20 <GPEDS0>:
    9d20:	20200040 	eorcs	r0, r0, r0, asr #32

00009d24 <GPEDS1>:
    9d24:	20200044 	eorcs	r0, r0, r4, asr #32

00009d28 <IRQ_PENDING_1>:
    9d28:	2000b204 	andcs	fp, r0, r4, lsl #4

00009d2c <gpio_clr0>:
    9d2c:	20200028 	eorcs	r0, r0, r8, lsr #32

00009d30 <gpio_set0>:
    9d30:	2020001c 	eorcs	r0, r0, ip, lsl r0

00009d34 <gpio_fsel0>:
    9d34:	20200000 	eorcs	r0, r0, r0

00009d38 <AUX_ENABLES>:
    9d38:	20215004 	eorcs	r5, r1, r4

00009d3c <AUX_MU_CNTL_REG>:
    9d3c:	20215060 	eorcs	r5, r1, r0, rrx

00009d40 <AUX_MU_IER_REG>:
    9d40:	20215044 	eorcs	r5, r1, r4, asr #32

00009d44 <AUX_MU_IIR_REG>:
    9d44:	20215048 	eorcs	r5, r1, r8, asr #32

00009d48 <AUX_MU_LCR_REG>:
    9d48:	2021504c 	eorcs	r5, r1, ip, asr #32

00009d4c <AUX_MU_BAUD_REG>:
    9d4c:	20215068 	eorcs	r5, r1, r8, rrx

00009d50 <AUX_MU_LSR_REG>:
    9d50:	20215054 	eorcs	r5, r1, r4, asr r0

00009d54 <AUX_MU_IO_REG>:
    9d54:	20215040 	eorcs	r5, r1, r0, asr #32

00009d58 <AUX_MU_STAT_REG>:
    9d58:	20215064 	eorcs	r5, r1, r4, rrx

00009d5c <AUX_MU_SCRATCH>:
    9d5c:	2021505c 	eorcs	r5, r1, ip, asr r0

00009d60 <AUX_MU_MSR_REG>:
    9d60:	20215058 	eorcs	r5, r1, r8, asr r0

00009d64 <AUX_MU_MCR_REG>:
    9d64:	20215050 	eorcs	r5, r1, r0, asr r0

00009d68 <AUX_IRQ>:
    9d68:	20215000 	eorcs	r5, r1, r0

Disassembly of section .rodata:

00009d6c <__FUNCTION__.4258>:
    9d6c:	6c637963 	stclvs	9, cr7, [r3], #-396	; 0xfffffe74
    9d70:	705f7365 	subsvc	r7, pc, r5, ror #6
    9d74:	735f7265 	cmpvc	pc, #1342177286	; 0x50000006
    9d78:	00006365 	andeq	r6, r0, r5, ror #6
    9d7c:	4f525245 	svcmi	0x00525245
    9d80:	73253a52 	teqvc	r5, #335872	; 0x52000
    9d84:	3a73253a 	bcc	1cd3274 <__bss_end__+0x1cc8e2c>
    9d88:	203a6425 	eorscs	r6, sl, r5, lsr #8
    9d8c:	534c4146 	movtpl	r4, #49478	; 0xc146
    9d90:	733c2845 	teqvc	ip, #4521984	; 0x450000
    9d94:	32203c20 	eorcc	r3, r0, #32, 24	; 0x2000
    9d98:	203a293e 	eorscs	r2, sl, lr, lsr r9
    9d9c:	6c6c6977 	stclvs	9, cr6, [ip], #-476	; 0xfffffe24
    9da0:	65766f20 	ldrbvs	r6, [r6, #-3872]!	; 0xf20
    9da4:	6f6c6672 	svcvs	0x006c6672
    9da8:	00000a77 	andeq	r0, r0, r7, ror sl
    9dac:	74736574 	ldrbtvc	r6, [r3], #-1396	; 0x574
    9db0:	6e65672d 	cdpvs	7, 6, cr6, cr5, cr13, {1}
    9db4:	0000632e 	andeq	r6, r0, lr, lsr #6
    9db8:	61206d61 	teqvs	r0, r1, ror #26
    9dbc:	72657320 	rsbvc	r7, r5, #32, 6	; 0x80000000
    9dc0:	2c726576 	cfldr64cs	mvdx6, [r2], #-472	; 0xfffffe28
    9dc4:	6e657320 	cdpvs	3, 6, cr7, cr5, cr0, {1}
    9dc8:	676e6964 	strbvs	r6, [lr, -r4, ror #18]!
    9dcc:	000a3020 	andeq	r3, sl, r0, lsr #32
    9dd0:	65696c63 	strbvs	r6, [r9, #-3171]!	; 0xc63
    9dd4:	6420746e 	strtvs	r7, [r0], #-1134	; 0x46e
    9dd8:	3a656e6f 	bcc	196579c <__bss_end__+0x195b354>
    9ddc:	646e6520 	strbtvs	r6, [lr], #-1312	; 0x520
    9de0:	77206465 	strvc	r6, [r0, -r5, ror #8]!
    9de4:	20687469 	rsbcs	r7, r8, r9, ror #8
    9de8:	000a6425 	andeq	r6, sl, r5, lsr #8
    9dec:	61206d61 	teqvs	r0, r1, ror #26
    9df0:	696c6320 	stmdbvs	ip!, {r5, r8, r9, sp, lr}^
    9df4:	0a746e65 	beq	1d25790 <__bss_end__+0x1d1b348>
    9df8:	00000000 	andeq	r0, r0, r0

00009dfc <__FUNCTION__.4265>:
    9dfc:	74696d65 	strbtvc	r6, [r9], #-3429	; 0xd65
    9e00:	00000000 	andeq	r0, r0, r0

00009e04 <__FUNCTION__.4213>:
    9e04:	5f697072 	svcpl	0x00697072
    9e08:	5f746573 	svcpl	0x00746573
    9e0c:	7074756f 	rsbsvc	r7, r4, pc, ror #10
    9e10:	00007475 	andeq	r7, r0, r5, ror r4

00009e14 <__FUNCTION__.4287>:
    9e14:	705f6176 	subsvc	r6, pc, r6, ror r1	; <UNPREDICTABLE>
    9e18:	746e6972 	strbtvc	r6, [lr], #-2418	; 0x972
    9e1c:	0000006b 	andeq	r0, r0, fp, rrx
    9e20:	494e4150 	stmdbmi	lr, {r4, r6, r8, lr}^
    9e24:	73253a43 	teqvc	r5, #274432	; 0x43000
    9e28:	3a73253a 	bcc	1cd3318 <__bss_end__+0x1cc8ed0>
    9e2c:	253a6425 	ldrcs	r6, [sl, #-1061]!	; 0x425
    9e30:	00000a73 	andeq	r0, r0, r3, ror sl
    9e34:	6362696c 	cmnvs	r2, #108, 18	; 0x1b0000
    9e38:	2d61762f 	stclcs	6, cr7, [r1, #-188]!	; 0xffffff44
    9e3c:	6e697270 	mcrvs	2, 3, r7, cr9, cr0, {3}
    9e40:	632e6b74 	teqvs	lr, #116, 22	; 0x1d000
    9e44:	00000000 	andeq	r0, r0, r0
    9e48:	00000030 	andeq	r0, r0, r0, lsr r0
    9e4c:	33323130 	teqcc	r2, #48, 2
    9e50:	37363534 			; <UNDEFINED> instruction: 0x37363534
    9e54:	00003938 	andeq	r3, r0, r8, lsr r9
    9e58:	33323130 	teqcc	r2, #48, 2
    9e5c:	37363534 			; <UNDEFINED> instruction: 0x37363534
    9e60:	62613938 	rsbvs	r3, r1, #56, 18	; 0xe0000
    9e64:	66656463 	strbtvs	r6, [r5], -r3, ror #8
    9e68:	00000000 	andeq	r0, r0, r0
    9e6c:	00003130 	andeq	r3, r0, r0, lsr r1
    9e70:	63747570 	cmnvs	r4, #112, 10	; 0x1c000000
    9e74:	0070665f 	rsbseq	r6, r0, pc, asr r6
    9e78:	74646977 	strbtvc	r6, [r4], #-2423	; 0x977
    9e7c:	203c2068 	eorscs	r2, ip, r8, rrx
    9e80:	00003233 	andeq	r3, r0, r3, lsr r2
    9e84:	494e4150 	stmdbmi	lr, {r4, r6, r8, lr}^
    9e88:	73253a43 	teqvc	r5, #274432	; 0x43000
    9e8c:	3a73253a 	bcc	1cd337c <__bss_end__+0x1cc8f34>
    9e90:	663a6425 	ldrtvs	r6, [sl], -r5, lsr #8
    9e94:	74616f6c 	strbtvc	r6, [r1], #-3948	; 0xf6c
    9e98:	746f6e20 	strbtvc	r6, [pc], #-3616	; 9ea0 <__FUNCTION__.4287+0x8c>
    9e9c:	616e6520 	cmnvs	lr, r0, lsr #10
    9ea0:	64656c62 	strbtvs	r6, [r5], #-3170	; 0xc62
    9ea4:	0a212121 	beq	852330 <__bss_end__+0x847ee8>
    9ea8:	00000000 	andeq	r0, r0, r0
    9eac:	494e4150 	stmdbmi	lr, {r4, r6, r8, lr}^
    9eb0:	73253a43 	teqvc	r5, #274432	; 0x43000
    9eb4:	3a73253a 	bcc	1cd33a4 <__bss_end__+0x1cc8f5c>
    9eb8:	703a6425 	eorsvc	r6, sl, r5, lsr #8
    9ebc:	746e6972 	strbtvc	r6, [lr], #-2418	; 0x972
    9ec0:	6e203a6b 	vnmulvs.f32	s6, s0, s23
    9ec4:	6820746f 	stmdavs	r0!, {r0, r1, r2, r3, r5, r6, sl, ip, sp, lr}
    9ec8:	6c646e61 	stclvs	14, cr6, [r4], #-388	; 0xfffffe7c
    9ecc:	20676e69 	rsbcs	r6, r7, r9, ror #28
    9ed0:	63657073 	cmnvs	r5, #115	; 0x73
    9ed4:	65696669 	strbvs	r6, [r9, #-1641]!	; 0x669
    9ed8:	25272072 	strcs	r2, [r7, #-114]!	; 0x72
    9edc:	0a0a2763 	beq	293c70 <__bss_end__+0x289828>
    9ee0:	00000000 	andeq	r0, r0, r0
    9ee4:	454e4f44 	strbmi	r4, [lr, #-3908]	; 0xf44
    9ee8:	0a212121 	beq	852374 <__bss_end__+0x847f2c>
    9eec:	00000000 	andeq	r0, r0, r0
    9ef0:	756f6261 	strbvc	r6, [pc, #-609]!	; 9c97 <cb_get_block+0xf>
    9ef4:	6f742074 	svcvs	0x00742074
    9ef8:	69727020 	ldmdbvs	r2!, {r5, ip, sp, lr}^
    9efc:	6f20746e 	svcvs	0x0020746e
    9f00:	6572206e 	ldrbvs	r2, [r2, #-110]!	; 0x6e
    9f04:	616c7567 	cmnvs	ip, r7, ror #10
    9f08:	72702072 	rsbsvc	r2, r0, #114	; 0x72
    9f0c:	66746e69 	ldrbtvs	r6, [r4], -r9, ror #28
    9f10:	0000000a 	andeq	r0, r0, sl
    9f14:	63637573 	cmnvs	r3, #482344960	; 0x1cc00000
    9f18:	21737365 	cmncs	r3, r5, ror #6
    9f1c:	0000000a 	andeq	r0, r0, sl

00009f20 <__FUNCTION__.4314>:
    9f20:	755f7773 	ldrbvc	r7, [pc, #-1907]	; 97b5 <sw_uart_gets_until+0x59>
    9f24:	5f747261 	svcpl	0x00747261
    9f28:	73746567 	cmnvc	r4, #432013312	; 0x19c00000
    9f2c:	746e755f 	strbtvc	r7, [lr], #-1375	; 0x55f
    9f30:	00006c69 	andeq	r6, r0, r9, ror #24

00009f34 <__FUNCTION__.4326>:
    9f34:	755f7773 	ldrbvc	r7, [pc, #-1907]	; 97c9 <sw_uart_gets_until+0x6d>
    9f38:	5f747261 	svcpl	0x00747261
    9f3c:	73746567 	cmnvc	r4, #432013312	; 0x19c00000
    9f40:	6d69745f 	cfstrdvs	mvd7, [r9, #-380]!	; 0xfffffe84
    9f44:	74756f65 	ldrbtvc	r6, [r5], #-3941	; 0xf65
    9f48:	00000000 	andeq	r0, r0, r0

00009f4c <__FUNCTION__.4340>:
    9f4c:	755f7773 	ldrbvc	r7, [pc, #-1907]	; 97e1 <sw_uart_gets_until+0x85>
    9f50:	5f747261 	svcpl	0x00747261
    9f54:	74696e69 	strbtvc	r6, [r9], #-3689	; 0xe69
    9f58:	6c65685f 	stclvs	8, cr6, [r5], #-380	; 0xfffffe84
    9f5c:	00726570 	rsbseq	r6, r2, r0, ror r5

00009f60 <__FUNCTION__.4346>:
    9f60:	755f7773 	ldrbvc	r7, [pc, #-1907]	; 97f5 <sw_uart_gets_until+0x99>
    9f64:	5f747261 	svcpl	0x00747261
    9f68:	63746567 	cmnvs	r4, #432013312	; 0x19c00000
    9f6c:	00000000 	andeq	r0, r0, r0

00009f70 <__FUNCTION__.4368>:
    9f70:	755f7773 	ldrbvc	r7, [pc, #-1907]	; 9805 <sw_uart_gets_timeout+0x5>
    9f74:	5f747261 	svcpl	0x00747261
    9f78:	6e697270 	mcrvs	2, 3, r7, cr9, cr0, {3}
    9f7c:	00006b74 	andeq	r6, r0, r4, ror fp

00009f80 <__FUNCTION__.4376>:
    9f80:	755f7773 	ldrbvc	r7, [pc, #-1907]	; 9815 <sw_uart_gets_timeout+0x15>
    9f84:	5f747261 	svcpl	0x00747261
    9f88:	73746567 	cmnvc	r4, #432013312	; 0x19c00000
    9f8c:	746e755f 	strbtvc	r7, [lr], #-1375	; 0x55f
    9f90:	625f6c69 	subsvs	r6, pc, #26880	; 0x6900
    9f94:	00006b6c 	andeq	r6, r0, ip, ror #22
    9f98:	732d796d 	teqvc	sp, #1785856	; 0x1b4000
    9f9c:	732f6372 	teqvc	pc, #-939524095	; 0xc8000001
    9fa0:	61752d77 	cmnvs	r5, r7, ror sp
    9fa4:	632e7472 	teqvs	lr, #1912602624	; 0x72000000
    9fa8:	00000000 	andeq	r0, r0, r0
    9fac:	7479626e 	ldrbtvc	r6, [r9], #-622	; 0x26e
    9fb0:	303e7365 	eorscc	r7, lr, r5, ror #6
    9fb4:	00000000 	andeq	r0, r0, r0
    9fb8:	7a686d28 	bvc	1a25460 <__bss_end__+0x1a1b018>
    9fbc:	62202d20 	eorvs	r2, r0, #32, 26	; 0x800
    9fc0:	29647561 	stmdbcs	r4!, {r0, r5, r6, r8, sl, ip, sp, lr}^
    9fc4:	203d3c20 	eorscs	r3, sp, r0, lsr #24
    9fc8:	69726564 	ldmdbvs	r2!, {r2, r5, r6, r8, sl, sp, lr}^
    9fcc:	20646576 	rsbcs	r6, r4, r6, ror r5
    9fd0:	64202626 	strtvs	r2, [r0], #-1574	; 0x626
    9fd4:	76697265 	strbtvc	r7, [r9], -r5, ror #4
    9fd8:	3c206465 	cfstrscc	mvf6, [r0], #-404	; 0xfffffe6c
    9fdc:	6d28203d 	stcvs	0, cr2, [r8, #-244]!	; 0xffffff0c
    9fe0:	2b207a68 	blcs	828988 <__bss_end__+0x81e540>
    9fe4:	75616220 	strbvc	r6, [r1, #-544]!	; 0x220
    9fe8:	00002964 	andeq	r2, r0, r4, ror #18
    9fec:	494e4150 	stmdbmi	lr, {r4, r6, r8, lr}^
    9ff0:	73253a43 	teqvc	r5, #274432	; 0x43000
    9ff4:	3a73253a 	bcc	1cd34e4 <__bss_end__+0x1cc909c>
    9ff8:	693a6425 	ldmdbvs	sl!, {r0, r2, r5, sl, sp, lr}
    9ffc:	736f706d 	cmnvc	pc, #109	; 0x6d
    a000:	6c626973 	stclvs	9, cr6, [r2], #-460	; 0xfffffe34
    a004:	68203a65 	stmdavs	r0!, {r0, r2, r5, r6, r9, fp, ip, sp}
    a008:	20657661 	rsbcs	r7, r5, r1, ror #12
    a00c:	69206e61 	stmdbvs	r0!, {r0, r5, r6, r9, sl, fp, sp, lr}
    a010:	6e69666e 	cdpvs	6, 6, cr6, cr9, cr14, {3}
    a014:	20657469 	rsbcs	r7, r5, r9, ror #8
    a018:	656d6974 	strbvs	r6, [sp, #-2420]!	; 0x974
    a01c:	2174756f 	cmncs	r4, pc, ror #10
    a020:	00000a0a 	andeq	r0, r0, sl, lsl #20
    a024:	3c207a73 	stccc	10, cr7, [r0], #-460	; 0xfffffe34
    a028:	7a697320 	bvc	1a66cb0 <__bss_end__+0x1a5c868>
    a02c:	20666f65 	rsbcs	r6, r6, r5, ror #30
    a030:	2d667562 	cfstr64cs	mvdx7, [r6, #-392]!	; 0xfffffe78
    a034:	00000031 	andeq	r0, r0, r1, lsr r0

Disassembly of section .bss:

0000a038 <__bss_start__>:
	...

0000a438 <console_uart>:
	...

Disassembly of section .ARM.attributes:

00000000 <.ARM.attributes>:
   0:	00002a41 	andeq	r2, r0, r1, asr #20
   4:	61656100 	cmnvs	r5, r0, lsl #2
   8:	01006962 	tsteq	r0, r2, ror #18
   c:	00000020 	andeq	r0, r0, r0, lsr #32
  10:	4b5a3605 	blmi	168d82c <__bss_end__+0x16833e4>
  14:	08070600 	stmdaeq	r7, {r9, sl}
  18:	12010901 	andne	r0, r1, #16384	; 0x4000
  1c:	15011404 	strne	r1, [r1, #-1028]	; 0x404
  20:	18031701 	stmdane	r3, {r0, r8, r9, sl, ip}
  24:	22011a01 	andcs	r1, r1, #4096	; 0x1000
  28:	Address 0x0000000000000028 is out of bounds.


Disassembly of section .comment:

00000000 <.comment>:
   0:	3a434347 	bcc	10d0d24 <__bss_end__+0x10c68dc>
   4:	4e472820 	cdpmi	8, 4, cr2, cr7, cr0, {1}
   8:	34202955 	strtcc	r2, [r0], #-2389	; 0x955
   c:	332e382e 	teqcc	lr, #3014656	; 0x2e0000
	...

Disassembly of section .debug_info:

00000000 <.debug_info>:
       0:	00001022 	andeq	r1, r0, r2, lsr #32
       4:	00000004 	andeq	r0, r0, r4
       8:	01040000 	mrseq	r0, (UNDEF: 4)
       c:	000000d1 	ldrdeq	r0, [r0], -r1
      10:	0002ad01 	andeq	sl, r2, r1, lsl #26
      14:	0001b300 	andeq	fp, r1, r0, lsl #6
      18:	00801000 	addeq	r1, r0, r0
      1c:	0006b000 	andeq	fp, r6, r0
      20:	00000000 	andeq	r0, r0, r0
      24:	05040200 	streq	r0, [r4, #-512]	; 0x200
      28:	00746e69 	rsbseq	r6, r4, r9, ror #28
      2c:	53070403 	movwpl	r0, #29699	; 0x7403
      30:	03000000 	movweq	r0, #0
      34:	022f0601 	eoreq	r0, pc, #1048576	; 0x100000
      38:	02030000 	andeq	r0, r3, #0
      3c:	00023b05 	andeq	r3, r2, r5, lsl #22
      40:	05040300 	streq	r0, [r4, #-768]	; 0x300
      44:	00000082 	andeq	r0, r0, r2, lsl #1
      48:	7d050803 	stcvc	8, cr0, [r5, #-12]
      4c:	04000000 	streq	r0, [r0], #-0
      50:	000002a5 	andeq	r0, r0, r5, lsr #5
      54:	005a2e04 	subseq	r2, sl, r4, lsl #28
      58:	01030000 	mrseq	r0, (UNDEF: 3)
      5c:	00022d08 	andeq	r2, r2, r8, lsl #26
      60:	07020300 	streq	r0, [r2, -r0, lsl #6]
      64:	00000184 	andeq	r0, r0, r4, lsl #3
      68:	4e070403 	cdpmi	4, 0, cr0, cr7, cr3, {0}
      6c:	03000000 	movweq	r0, #0
      70:	00490708 	subeq	r0, r9, r8, lsl #14
      74:	04030000 	streq	r0, [r3], #-0
      78:	00021f07 	andeq	r1, r2, r7, lsl #30
      7c:	08010300 	stmdaeq	r1, {r8, r9}
      80:	00000236 	andeq	r0, r0, r6, lsr r2
      84:	008a0405 	addeq	r0, sl, r5, lsl #8
      88:	7d060000 	stcvc	0, cr0, [r6, #-0]
      8c:	07000000 	streq	r0, [r0, -r0]
      90:	00000060 	andeq	r0, r0, r0, rrx
      94:	a7031f01 	strge	r1, [r3, -r1, lsl #30]
      98:	08000000 	stmdaeq	r0, {}	; <UNPREDICTABLE>
      9c:	006e6970 	rsbeq	r6, lr, r0, ror r9
      a0:	002c1f01 	eoreq	r1, ip, r1, lsl #30
      a4:	07000000 	streq	r0, [r0, -r0]
      a8:	000000bf 	strheq	r0, [r0], -pc	; <UNPREDICTABLE>
      ac:	bf032401 	svclt	0x00032401
      b0:	08000000 	stmdaeq	r0, {}	; <UNPREDICTABLE>
      b4:	006e6970 	rsbeq	r6, lr, r0, ror r9
      b8:	002c2401 	eoreq	r2, ip, r1, lsl #8
      bc:	07000000 	streq	r0, [r0, -r0]
      c0:	0000002a 	andeq	r0, r0, sl, lsr #32
      c4:	e0032901 	and	r2, r3, r1, lsl #18
      c8:	08000000 	stmdaeq	r0, {}	; <UNPREDICTABLE>
      cc:	006e6970 	rsbeq	r6, lr, r0, ror r9
      d0:	002c2901 	eoreq	r2, ip, r1, lsl #18
      d4:	76080000 	strvc	r0, [r8], -r0
      d8:	2c290100 	stfcss	f0, [r9], #-0
      dc:	00000000 	andeq	r0, r0, r0
      e0:	00000009 	andeq	r0, r0, r9
      e4:	2c400100 	stfcse	f0, [r0], {-0}
      e8:	01000000 	mrseq	r0, (UNDEF: 0)
      ec:	00000219 	andeq	r0, r0, r9, lsl r2
      f0:	6e697008 	cdpvs	0, 6, cr7, cr9, cr8, {0}
      f4:	2c400100 	stfcse	f0, [r0], {-0}
      f8:	0a000000 	beq	100 <_start-0x7f00>
      fc:	00000339 	andeq	r0, r0, r9, lsr r3
     100:	00254301 	eoreq	r4, r5, r1, lsl #6
     104:	440a0000 	strmi	r0, [sl], #-0
     108:	01000000 	mrseq	r0, (UNDEF: 0)
     10c:	00002544 	andeq	r2, r0, r4, asr #10
     110:	003f0a00 	eorseq	r0, pc, r0, lsl #20
     114:	45010000 	strmi	r0, [r1, #-0]
     118:	00000025 	andeq	r0, r0, r5, lsr #32
     11c:	00003a0a 	andeq	r3, r0, sl, lsl #20
     120:	25460100 	strbcs	r0, [r6, #-256]	; 0x100
     124:	0a000000 	beq	12c <_start-0x7ed4>
     128:	00000078 	andeq	r0, r0, r8, ror r0
     12c:	00254701 	eoreq	r4, r5, r1, lsl #14
     130:	250a0000 	strcs	r0, [sl, #-0]
     134:	01000000 	mrseq	r0, (UNDEF: 0)
     138:	00002548 	andeq	r2, r0, r8, asr #10
     13c:	00200a00 	eoreq	r0, r0, r0, lsl #20
     140:	49010000 	stmdbmi	r1, {}	; <UNPREDICTABLE>
     144:	00000025 	andeq	r0, r0, r5, lsr #32
     148:	00001b0a 	andeq	r1, r0, sl, lsl #22
     14c:	254a0100 	strbcs	r0, [sl, #-256]	; 0x100
     150:	0a000000 	beq	158 <_start-0x7ea8>
     154:	00000016 	andeq	r0, r0, r6, lsl r0
     158:	00254b01 	eoreq	r4, r5, r1, lsl #22
     15c:	690b0000 	stmdbvs	fp, {}	; <UNPREDICTABLE>
     160:	2c4d0100 	stfcse	f0, [sp], {-0}
     164:	0a000000 	beq	16c <_start-0x7e94>
     168:	0000051d 	andeq	r0, r0, sp, lsl r5
     16c:	002c5201 	eoreq	r5, ip, r1, lsl #4
     170:	830c0000 	movwhi	r0, #49152	; 0xc000
     174:	0a000001 	beq	180 <_start-0x7e80>
     178:	00000228 	andeq	r0, r0, r8, lsr #4
     17c:	002c5201 	eoreq	r5, ip, r1, lsl #4
     180:	0c000000 	stceq	0, cr0, [r0], {-0}
     184:	00000194 	muleq	r0, r4, r1
     188:	0002280a 	andeq	r2, r2, sl, lsl #16
     18c:	2c530100 	ldfcse	f0, [r3], {-0}
     190:	00000000 	andeq	r0, r0, r0
     194:	0001a50c 	andeq	sl, r1, ip, lsl #10
     198:	02280a00 	eoreq	r0, r8, #0, 20
     19c:	55010000 	strpl	r0, [r1, #-0]
     1a0:	0000002c 	andeq	r0, r0, ip, lsr #32
     1a4:	01b60c00 			; <UNDEFINED> instruction: 0x01b60c00
     1a8:	280a0000 	stmdacs	sl, {}	; <UNPREDICTABLE>
     1ac:	01000002 	tsteq	r0, r2
     1b0:	00002c57 	andeq	r2, r0, r7, asr ip
     1b4:	c70c0000 	strgt	r0, [ip, -r0]
     1b8:	0a000001 	beq	1c4 <_start-0x7e3c>
     1bc:	00000228 	andeq	r0, r0, r8, lsr #4
     1c0:	002c5901 	eoreq	r5, ip, r1, lsl #18
     1c4:	0c000000 	stceq	0, cr0, [r0], {-0}
     1c8:	000001d8 	ldrdeq	r0, [r0], -r8
     1cc:	0002280a 	andeq	r2, r2, sl, lsl #16
     1d0:	2c5b0100 	ldfcse	f0, [fp], {-0}
     1d4:	00000000 	andeq	r0, r0, r0
     1d8:	0001e90c 	andeq	lr, r1, ip, lsl #18
     1dc:	02280a00 	eoreq	r0, r8, #0, 20
     1e0:	5d010000 	stcpl	0, cr0, [r1, #-0]
     1e4:	0000002c 	andeq	r0, r0, ip, lsr #32
     1e8:	01fa0c00 	mvnseq	r0, r0, lsl #24
     1ec:	280a0000 	stmdacs	sl, {}	; <UNPREDICTABLE>
     1f0:	01000002 	tsteq	r0, r2
     1f4:	00002c5f 	andeq	r2, r0, pc, asr ip
     1f8:	0b0c0000 	bleq	300200 <__bss_end__+0x2f5db8>
     1fc:	0a000002 	beq	20c <_start-0x7df4>
     200:	00000228 	andeq	r0, r0, r8, lsr #4
     204:	002c6101 	eoreq	r6, ip, r1, lsl #2
     208:	0d000000 	stceq	0, cr0, [r0, #-0]
     20c:	0002280a 	andeq	r2, r2, sl, lsl #16
     210:	2c630100 	stfcse	f0, [r3], #-0
     214:	00000000 	andeq	r0, r0, r0
     218:	00710700 	rsbseq	r0, r1, r0, lsl #14
     21c:	9f010000 	svcls	0x00010000
     220:	00026401 	andeq	r6, r2, r1, lsl #8
     224:	78740800 	ldmdavc	r4!, {fp}^
     228:	2c9f0100 	ldfcss	f0, [pc], {0}
     22c:	08000000 	stmdaeq	r0, {}	; <UNPREDICTABLE>
     230:	01007872 	tsteq	r0, r2, ror r8
     234:	00002c9f 	muleq	r0, pc, ip	; <UNPREDICTABLE>
     238:	006e0800 	rsbeq	r0, lr, r0, lsl #16
     23c:	002c9f01 	eoreq	r9, ip, r1, lsl #30
     240:	6c0a0000 	stcvs	0, cr0, [sl], {-0}
     244:	01000001 	tsteq	r0, r1
     248:	00002ca2 	andeq	r2, r0, r2, lsr #25
     24c:	015b0a00 	cmpeq	fp, r0, lsl #20
     250:	a3010000 	movwge	r0, #4096	; 0x1000
     254:	0000002c 	andeq	r0, r0, ip, lsr #32
     258:	00012f0a 	andeq	r2, r1, sl, lsl #30
     25c:	2ca40100 	stfcss	f0, [r4]
     260:	00000000 	andeq	r0, r0, r0
     264:	00012807 	andeq	r2, r1, r7, lsl #16
     268:	01b50100 			; <UNDEFINED> instruction: 0x01b50100
     26c:	000002af 	andeq	r0, r0, pc, lsr #5
     270:	00787408 	rsbseq	r7, r8, r8, lsl #8
     274:	002cb501 	eoreq	fp, ip, r1, lsl #10
     278:	72080000 	andvc	r0, r8, #0
     27c:	b5010078 	strlt	r0, [r1, #-120]	; 0x78
     280:	0000002c 	andeq	r0, r0, ip, lsr #32
     284:	01006e08 	tsteq	r0, r8, lsl #28
     288:	00002cb5 			; <UNDEFINED> instruction: 0x00002cb5
     28c:	02190a00 	andseq	r0, r9, #0, 20
     290:	b9010000 	stmdblt	r1, {}	; <UNPREDICTABLE>
     294:	0000002c 	andeq	r0, r0, ip, lsr #32
     298:	00015b0a 	andeq	r5, r1, sl, lsl #22
     29c:	2cba0100 	ldfcss	f0, [sl]
     2a0:	0d000000 	stceq	0, cr0, [r0, #-0]
     2a4:	0100690b 	tsteq	r0, fp, lsl #18
     2a8:	00002cbb 			; <UNDEFINED> instruction: 0x00002cbb
     2ac:	0e000000 	cdpeq	0, 0, cr0, cr0, cr0, {0}
     2b0:	000000e0 	andeq	r0, r0, r0, ror #1
     2b4:	00008010 	andeq	r8, r0, r0, lsl r0
     2b8:	0000019c 	muleq	r0, ip, r1
     2bc:	04069c01 	streq	r9, [r6], #-3073	; 0xc01
     2c0:	fb0f0000 	blx	3c02ca <__bss_end__+0x3b5e82>
     2c4:	00000000 	andeq	r0, r0, r0
     2c8:	0f000000 	svceq	0x00000000
     2cc:	00000106 	andeq	r0, r0, r6, lsl #2
     2d0:	00000038 	andeq	r0, r0, r8, lsr r0
     2d4:	0001110f 	andeq	r1, r1, pc, lsl #2
     2d8:	00004b00 	andeq	r4, r0, r0, lsl #22
     2dc:	011c0f00 	tsteq	ip, r0, lsl #30
     2e0:	005e0000 	subseq	r0, lr, r0
     2e4:	270f0000 	strcs	r0, [pc, -r0]
     2e8:	71000001 	tstvc	r0, r1
     2ec:	0f000000 	svceq	0x00000000
     2f0:	00000132 	andeq	r0, r0, r2, lsr r1
     2f4:	00000084 	andeq	r0, r0, r4, lsl #1
     2f8:	00013d0f 	andeq	r3, r1, pc, lsl #26
     2fc:	00009700 	andeq	r9, r0, r0, lsl #14
     300:	01480f00 	cmpeq	r8, r0, lsl #30
     304:	00aa0000 	adceq	r0, sl, r0
     308:	530f0000 	movwpl	r0, #61440	; 0xf000
     30c:	bd000001 	stclt	0, cr0, [r0, #-4]
     310:	10000000 	andne	r0, r0, r0
     314:	0000015e 	andeq	r0, r0, lr, asr r1
     318:	00016711 	andeq	r6, r1, r1, lsl r7
     31c:	12530100 	subsne	r0, r3, #0, 2
     320:	000000f0 	strdeq	r0, [r0], -r0	; <UNPREDICTABLE>
     324:	80241314 	eorhi	r1, r4, r4, lsl r3
     328:	00040000 	andeq	r0, r4, r0
     32c:	033a0000 	teqeq	sl, #0
     330:	77110000 	ldrvc	r0, [r1, -r0]
     334:	01000001 	tsteq	r0, r1
     338:	2c130053 	ldccs	0, cr0, [r3], {83}	; 0x53
     33c:	04000080 	streq	r0, [r0], #-128	; 0x80
     340:	51000000 	mrspl	r0, (UNDEF: 0)
     344:	0f000003 	svceq	0x00000003
     348:	00000188 	andeq	r0, r0, r8, lsl #3
     34c:	000000d0 	ldrdeq	r0, [r0], -r0	; <UNPREDICTABLE>
     350:	80501300 	subshi	r1, r0, r0, lsl #6
     354:	00040000 	andeq	r0, r4, r0
     358:	03680000 	cmneq	r8, #0
     35c:	990f0000 	stmdbls	pc, {}	; <UNPREDICTABLE>
     360:	e3000001 	movw	r0, #1
     364:	00000000 	andeq	r0, r0, r0
     368:	00807413 	addeq	r7, r0, r3, lsl r4
     36c:	00000400 	andeq	r0, r0, r0, lsl #8
     370:	00037f00 	andeq	r7, r3, r0, lsl #30
     374:	01aa0f00 			; <UNDEFINED> instruction: 0x01aa0f00
     378:	00f60000 	rscseq	r0, r6, r0
     37c:	13000000 	movwne	r0, #0
     380:	00008098 	muleq	r0, r8, r0
     384:	00000004 	andeq	r0, r0, r4
     388:	00000396 	muleq	r0, r6, r3
     38c:	0001bb0f 	andeq	fp, r1, pc, lsl #22
     390:	00010900 	andeq	r0, r1, r0, lsl #18
     394:	bc130000 	ldclt	0, cr0, [r3], {-0}
     398:	04000080 	streq	r0, [r0], #-128	; 0x80
     39c:	ad000000 	stcge	0, cr0, [r0, #-0]
     3a0:	0f000003 	svceq	0x00000003
     3a4:	000001cc 	andeq	r0, r0, ip, asr #3
     3a8:	0000011c 	andeq	r0, r0, ip, lsl r1
     3ac:	80e01300 	rschi	r1, r0, r0, lsl #6
     3b0:	00040000 	andeq	r0, r4, r0
     3b4:	03c40000 	biceq	r0, r4, #0
     3b8:	dd0f0000 	stcle	0, cr0, [pc, #-0]	; 3c0 <_start-0x7c40>
     3bc:	2f000001 	svccs	0x00000001
     3c0:	00000001 	andeq	r0, r0, r1
     3c4:	00810413 	addeq	r0, r1, r3, lsl r4
     3c8:	00000400 	andeq	r0, r0, r0, lsl #8
     3cc:	0003db00 	andeq	sp, r3, r0, lsl #22
     3d0:	01ee0f00 	mvneq	r0, r0, lsl #30
     3d4:	01420000 	mrseq	r0, (UNDEF: 66)
     3d8:	13000000 	movwne	r0, #0
     3dc:	00008128 	andeq	r8, r0, r8, lsr #2
     3e0:	00000004 	andeq	r0, r0, r4
     3e4:	000003f2 	strdeq	r0, [r0], -r2
     3e8:	0001ff0f 	andeq	pc, r1, pc, lsl #30
     3ec:	00015500 	andeq	r5, r1, r0, lsl #10
     3f0:	4c140000 	ldcmi	0, cr0, [r4], {-0}
     3f4:	04000081 	streq	r0, [r0], #-129	; 0x81
     3f8:	0f000000 	svceq	0x00000000
     3fc:	0000020c 	andeq	r0, r0, ip, lsl #4
     400:	00000168 	andeq	r0, r0, r8, ror #2
     404:	55150000 	ldrpl	r0, [r5, #-0]
     408:	01000002 	tsteq	r0, r2
     40c:	00002c37 	andeq	r2, r0, r7, lsr ip
     410:	0081ac00 	addeq	sl, r1, r0, lsl #24
     414:	00005000 	andeq	r5, r0, r0
     418:	e69c0100 	ldr	r0, [ip], r0, lsl #2
     41c:	16000004 	strne	r0, [r0], -r4
     420:	37010073 	smlsdxcc	r1, r3, r0, r0
     424:	0000002c 	andeq	r0, r0, ip, lsr #32
     428:	0000017b 	andeq	r0, r0, fp, ror r1
     42c:	00017717 	andeq	r7, r1, r7, lsl r7
     430:	0004f600 	andeq	pc, r4, r0, lsl #12
     434:	6c030500 	cfstr32vs	mvfx0, [r3], {-0}
     438:	0a00009d 	beq	6b4 <_start-0x794c>
     43c:	0000026e 	andeq	r0, r0, lr, ror #4
     440:	002c3901 	eoreq	r3, ip, r1, lsl #18
     444:	83180000 	tsthi	r8, #0
     448:	01000002 	tsteq	r0, r2
     44c:	00002c3b 	andeq	r2, r0, fp, lsr ip
     450:	0001b500 	andeq	fp, r1, r0, lsl #10
     454:	81b81300 			; <UNDEFINED> instruction: 0x81b81300
     458:	00040000 	andeq	r0, r4, r0
     45c:	046e0000 	strbteq	r0, [lr], #-0
     460:	280a0000 	stmdacs	sl, {}	; <UNPREDICTABLE>
     464:	01000002 	tsteq	r0, r2
     468:	00002c39 	andeq	r2, r0, r9, lsr ip
     46c:	c8130000 	ldmdagt	r3, {}	; <UNPREDICTABLE>
     470:	04000081 	streq	r0, [r0], #-129	; 0x81
     474:	8b000000 	blhi	47c <_start-0x7b84>
     478:	18000004 	stmdane	r0, {r2}
     47c:	00000228 	andeq	r0, r0, r8, lsr #4
     480:	002c3b01 	eoreq	r3, ip, r1, lsl #22
     484:	01b50000 			; <UNDEFINED> instruction: 0x01b50000
     488:	19000000 	stmdbne	r0, {}	; <UNPREDICTABLE>
     48c:	000081c8 	andeq	r8, r0, r8, asr #3
     490:	00000fb6 			; <UNDEFINED> instruction: 0x00000fb6
     494:	000004a4 	andeq	r0, r0, r4, lsr #9
     498:	0750011a 	smmlaeq	r0, sl, r1, r0
     49c:	0a5001f3 	beq	1400c70 <__bss_end__+0x13f6828>
     4a0:	001e03e8 	andseq	r0, lr, r8, ror #7
     4a4:	0081d81b 	addeq	sp, r1, fp, lsl r8
     4a8:	000fc700 	andeq	ip, pc, r0, lsl #14
     4ac:	81ec1900 	mvnhi	r1, r0, lsl #18
     4b0:	0fce0000 	svceq	0x00ce0000
     4b4:	04dc0000 	ldrbeq	r0, [ip], #0
     4b8:	011a0000 	tsteq	sl, r0
     4bc:	38080253 	stmdacc	r8, {r0, r1, r4, r6, r9}
     4c0:	0552011a 	ldrbeq	r0, [r2, #-282]	; 0x11a
     4c4:	009d6c03 	addseq	r6, sp, r3, lsl #24
     4c8:	51011a00 	tstpl	r1, r0, lsl #20
     4cc:	9dac0305 	stcls	3, cr0, [ip, #20]!
     4d0:	011a0000 	tsteq	sl, r0
     4d4:	7c030550 	cfstr32vc	mvfx0, [r3], {80}	; 0x50
     4d8:	0000009d 	muleq	r0, sp, r0
     4dc:	0081f01b 	addeq	pc, r1, fp, lsl r0	; <UNPREDICTABLE>
     4e0:	000fe400 	andeq	lr, pc, r0, lsl #8
     4e4:	7d1c0000 	ldcvc	0, cr0, [ip, #-0]
     4e8:	f6000000 			; <UNDEFINED> instruction: 0xf6000000
     4ec:	1d000004 	stcne	0, cr0, [r0, #-16]
     4f0:	00000076 	andeq	r0, r0, r6, ror r0
     4f4:	e606000e 	str	r0, [r6], -lr
     4f8:	0e000004 	cdpeq	0, 0, cr0, cr0, cr4, {0}
     4fc:	000000e0 	andeq	r0, r0, r0, ror #1
     500:	000081fc 	strdeq	r8, [r0], -ip
     504:	0000019c 	muleq	r0, ip, r1
     508:	06569c01 	ldrbeq	r9, [r6], -r1, lsl #24
     50c:	f01e0000 			; <UNDEFINED> instruction: 0xf01e0000
     510:	c8000000 	stmdagt	r0, {}	; <UNPREDICTABLE>
     514:	0f000001 	svceq	0x00000001
     518:	000000fb 	strdeq	r0, [r0], -fp
     51c:	000001e9 	andeq	r0, r0, r9, ror #3
     520:	0001060f 	andeq	r0, r1, pc, lsl #12
     524:	00022d00 	andeq	r2, r2, r0, lsl #26
     528:	01110f00 	tsteq	r1, r0, lsl #30
     52c:	024c0000 	subeq	r0, ip, #0
     530:	1c0f0000 	stcne	0, cr0, [pc], {-0}
     534:	6b000001 	blvs	540 <_start-0x7ac0>
     538:	0f000002 	svceq	0x00000002
     53c:	00000127 	andeq	r0, r0, r7, lsr #2
     540:	0000028a 	andeq	r0, r0, sl, lsl #5
     544:	0001320f 	andeq	r3, r1, pc, lsl #4
     548:	0002a900 	andeq	sl, r2, r0, lsl #18
     54c:	013d0f00 	teqeq	sp, r0, lsl #30
     550:	02c80000 	sbceq	r0, r8, #0
     554:	480f0000 	stmdami	pc, {}	; <UNPREDICTABLE>
     558:	e7000001 	str	r0, [r0, -r1]
     55c:	0f000002 	svceq	0x00000002
     560:	00000153 	andeq	r0, r0, r3, asr r1
     564:	00000306 	andeq	r0, r0, r6, lsl #6
     568:	00015e1f 	andeq	r5, r1, pc, lsl lr
     56c:	67110100 	ldrvs	r0, [r1, -r0, lsl #2]
     570:	01000001 	tsteq	r0, r1
     574:	82101353 	andshi	r1, r0, #1275068417	; 0x4c000001
     578:	00040000 	andeq	r0, r4, r0
     57c:	058a0000 	streq	r0, [sl]
     580:	77110000 	ldrvc	r0, [r1, -r0]
     584:	01000001 	tsteq	r0, r1
     588:	18130053 	ldmdane	r3, {r0, r1, r4, r6}
     58c:	04000082 	streq	r0, [r0], #-130	; 0x82
     590:	a1000000 	mrsge	r0, (UNDEF: 0)
     594:	0f000005 	svceq	0x00000005
     598:	00000188 	andeq	r0, r0, r8, lsl #3
     59c:	00000325 	andeq	r0, r0, r5, lsr #6
     5a0:	823c1300 	eorshi	r1, ip, #0, 6
     5a4:	00040000 	andeq	r0, r4, r0
     5a8:	05b80000 	ldreq	r0, [r8, #0]!
     5ac:	990f0000 	stmdbls	pc, {}	; <UNPREDICTABLE>
     5b0:	38000001 	stmdacc	r0, {r0}
     5b4:	00000003 	andeq	r0, r0, r3
     5b8:	00826013 	addeq	r6, r2, r3, lsl r0
     5bc:	00000400 	andeq	r0, r0, r0, lsl #8
     5c0:	0005cf00 	andeq	ip, r5, r0, lsl #30
     5c4:	01aa0f00 			; <UNDEFINED> instruction: 0x01aa0f00
     5c8:	034b0000 	movteq	r0, #45056	; 0xb000
     5cc:	13000000 	movwne	r0, #0
     5d0:	00008284 	andeq	r8, r0, r4, lsl #5
     5d4:	00000004 	andeq	r0, r0, r4
     5d8:	000005e6 	andeq	r0, r0, r6, ror #11
     5dc:	0001bb0f 	andeq	fp, r1, pc, lsl #22
     5e0:	00035e00 	andeq	r5, r3, r0, lsl #28
     5e4:	a8130000 	ldmdage	r3, {}	; <UNPREDICTABLE>
     5e8:	04000082 	streq	r0, [r0], #-130	; 0x82
     5ec:	fd000000 	stc2	0, cr0, [r0, #-0]
     5f0:	0f000005 	svceq	0x00000005
     5f4:	000001cc 	andeq	r0, r0, ip, asr #3
     5f8:	00000371 	andeq	r0, r0, r1, ror r3
     5fc:	82cc1300 	sbchi	r1, ip, #0, 6
     600:	00040000 	andeq	r0, r4, r0
     604:	06140000 	ldreq	r0, [r4], -r0
     608:	dd0f0000 	stcle	0, cr0, [pc, #-0]	; 610 <_start-0x79f0>
     60c:	84000001 	strhi	r0, [r0], #-1
     610:	00000003 	andeq	r0, r0, r3
     614:	0082f013 	addeq	pc, r2, r3, lsl r0	; <UNPREDICTABLE>
     618:	00000400 	andeq	r0, r0, r0, lsl #8
     61c:	00062b00 	andeq	r2, r6, r0, lsl #22
     620:	01ee0f00 	mvneq	r0, r0, lsl #30
     624:	03970000 	orrseq	r0, r7, #0
     628:	13000000 	movwne	r0, #0
     62c:	00008314 	andeq	r8, r0, r4, lsl r3
     630:	00000004 	andeq	r0, r0, r4
     634:	00000642 	andeq	r0, r0, r2, asr #12
     638:	0001ff0f 	andeq	pc, r1, pc, lsl #30
     63c:	0003aa00 	andeq	sl, r3, r0, lsl #20
     640:	38140000 	ldmdacc	r4, {}	; <UNPREDICTABLE>
     644:	04000083 	streq	r0, [r0], #-131	; 0x83
     648:	0f000000 	svceq	0x00000000
     64c:	0000020c 	andeq	r0, r0, ip, lsl #4
     650:	000003bd 			; <UNDEFINED> instruction: 0x000003bd
     654:	ae200000 	cdpge	0, 2, cr0, cr0, cr0, {0}
     658:	01000000 	mrseq	r0, (UNDEF: 0)
     65c:	00839870 	addeq	r9, r3, r0, ror r8
     660:	00020c00 	andeq	r0, r2, r0, lsl #24
     664:	659c0100 	ldrvs	r0, [ip, #256]	; 0x100
     668:	1600000c 	strne	r0, [r0], -ip
     66c:	006e6970 	rsbeq	r6, lr, r0, ror r9
     670:	002c7001 	eoreq	r7, ip, r1
     674:	03d00000 	bicseq	r0, r0, #0
     678:	6a210000 	bvs	840680 <__bss_end__+0x836238>
     67c:	01000009 	tsteq	r0, r9
     680:	00004f70 	andeq	r4, r0, r0, ror pc
     684:	0003f100 	andeq	pc, r3, r0, lsl #2
     688:	008b2100 	addeq	r2, fp, r0, lsl #2
     68c:	70010000 	andvc	r0, r1, r0
     690:	0000002c 	andeq	r0, r0, ip, lsr #32
     694:	00000412 	andeq	r0, r0, r2, lsl r4
     698:	01006922 	tsteq	r0, r2, lsr #18
     69c:	00002c71 	andeq	r2, r0, r1, ror ip
     6a0:	1d180100 	ldfnes	f0, [r8, #-0]
     6a4:	01000005 	tsteq	r0, r5
     6a8:	00002c72 	andeq	r2, r0, r2, ror ip
     6ac:	00043300 	andeq	r3, r4, r0, lsl #6
     6b0:	6e650b00 	vmulvs.f64	d16, d5, d0
     6b4:	9a010064 	bls	4084c <__bss_end__+0x36404>
     6b8:	0000002c 	andeq	r0, r0, ip, lsr #32
     6bc:	00839c13 	addeq	r9, r3, r3, lsl ip
     6c0:	00000400 	andeq	r0, r0, r0, lsl #8
     6c4:	0006d900 	andeq	sp, r6, r0, lsl #18
     6c8:	02281800 	eoreq	r1, r8, #0, 16
     6cc:	72010000 	andvc	r0, r1, #0
     6d0:	0000002c 	andeq	r0, r0, ip, lsr #32
     6d4:	00000433 	andeq	r0, r0, r3, lsr r4
     6d8:	00bf2300 	adcseq	r2, pc, r0, lsl #6
     6dc:	83a00000 	movhi	r0, #0
     6e0:	00180000 	andseq	r0, r8, r0
     6e4:	86010000 	strhi	r0, [r1], -r0
     6e8:	00000715 	andeq	r0, r0, r5, lsl r7
     6ec:	0000d612 	andeq	sp, r0, r2, lsl r6
     6f0:	cb1e0000 	blgt	7806f8 <__bss_end__+0x7762b0>
     6f4:	46000000 	strmi	r0, [r0], -r0
     6f8:	24000004 	strcs	r0, [r0], #-4
     6fc:	000000a7 	andeq	r0, r0, r7, lsr #1
     700:	000083a0 	andeq	r8, r0, r0, lsr #7
     704:	00000018 	andeq	r0, r0, r8, lsl r0
     708:	b31e2e01 	tstlt	lr, #1, 28
     70c:	46000000 	strmi	r0, [r0], -r0
     710:	00000004 	andeq	r0, r0, r4
     714:	83b81300 			; <UNDEFINED> instruction: 0x83b81300
     718:	00040000 	andeq	r0, r4, r0
     71c:	07320000 	ldreq	r0, [r2, -r0]!
     720:	28180000 	ldmdacs	r8, {}	; <UNPREDICTABLE>
     724:	01000002 	tsteq	r0, r2
     728:	00002c87 	andeq	r2, r0, r7, lsl #25
     72c:	00046700 	andeq	r6, r4, r0, lsl #14
     730:	bf230000 	svclt	0x00230000
     734:	c8000000 	stmdagt	r0, {}	; <UNPREDICTABLE>
     738:	24000083 	strcs	r0, [r0], #-131	; 0x83
     73c:	01000000 	mrseq	r0, (UNDEF: 0)
     740:	0007aa88 	andeq	sl, r7, r8, lsl #21
     744:	00d61e00 	sbcseq	r1, r6, r0, lsl #28
     748:	047a0000 	ldrbteq	r0, [sl], #-0
     74c:	cb250000 	blgt	940754 <__bss_end__+0x93630c>
     750:	04000000 	streq	r0, [r0], #-0
     754:	9f5001f3 	svcls	0x005001f3
     758:	00000026 	andeq	r0, r0, r6, lsr #32
     75c:	00078f00 	andeq	r8, r7, r0, lsl #30
     760:	00d61e00 	sbcseq	r1, r6, r0, lsl #28
     764:	04940000 	ldreq	r0, [r4], #0
     768:	cb250000 	blgt	940770 <__bss_end__+0x936328>
     76c:	04000000 	streq	r0, [r0], #-0
     770:	9f5001f3 	svcls	0x005001f3
     774:	00008f27 	andeq	r8, r0, r7, lsr #30
     778:	0083c800 	addeq	ip, r3, r0, lsl #16
     77c:	00000000 	andeq	r0, r0, r0
     780:	252c0100 	strcs	r0, [ip, #-256]!	; 0x100
     784:	0000009b 	muleq	r0, fp, r0
     788:	5001f304 	andpl	pc, r1, r4, lsl #6
     78c:	2700009f 			; <UNDEFINED> instruction: 0x2700009f
     790:	000000a7 	andeq	r0, r0, r7, lsr #1
     794:	000083d4 	ldrdeq	r8, [r0], -r4
     798:	00000028 	andeq	r0, r0, r8, lsr #32
     79c:	b3252e01 	teqlt	r5, #1, 28
     7a0:	04000000 	streq	r0, [r0], #-0
     7a4:	9f5001f3 	svcls	0x005001f3
     7a8:	ec130000 	ldc	0, cr0, [r3], {-0}
     7ac:	04000083 	streq	r0, [r0], #-131	; 0x83
     7b0:	c7000000 	strgt	r0, [r0, -r0]
     7b4:	18000007 	stmdane	r0, {r0, r1, r2}
     7b8:	00000228 	andeq	r0, r0, r8, lsr #4
     7bc:	002c8901 	eoreq	r8, ip, r1, lsl #18
     7c0:	05280000 	streq	r0, [r8, #-0]!
     7c4:	23000000 	movwcs	r0, #0
     7c8:	000000bf 	strheq	r0, [r0], -pc	; <UNPREDICTABLE>
     7cc:	000083fc 	strdeq	r8, [r0], -ip
     7d0:	00000024 	andeq	r0, r0, r4, lsr #32
     7d4:	083f8a01 	ldmdaeq	pc!, {r0, r9, fp, pc}	; <UNPREDICTABLE>
     7d8:	d61e0000 	ldrle	r0, [lr], -r0
     7dc:	3b000000 	blcc	7e4 <_start-0x781c>
     7e0:	25000005 	strcs	r0, [r0, #-5]
     7e4:	000000cb 	andeq	r0, r0, fp, asr #1
     7e8:	5001f304 	andpl	pc, r1, r4, lsl #6
     7ec:	0048269f 	umaaleq	r2, r8, pc, r6	; <UNPREDICTABLE>
     7f0:	08240000 	stmdaeq	r4!, {}	; <UNPREDICTABLE>
     7f4:	d61e0000 	ldrle	r0, [lr], -r0
     7f8:	55000000 	strpl	r0, [r0, #-0]
     7fc:	25000005 	strcs	r0, [r0, #-5]
     800:	000000cb 	andeq	r0, r0, fp, asr #1
     804:	5001f304 	andpl	pc, r1, r4, lsl #6
     808:	008f279f 	umulleq	r2, pc, pc, r7	; <UNPREDICTABLE>
     80c:	83fc0000 	mvnshi	r0, #0
     810:	00480000 	subeq	r0, r8, r0
     814:	2c010000 	stccs	0, cr0, [r1], {-0}
     818:	00009b25 	andeq	r9, r0, r5, lsr #22
     81c:	01f30400 	mvnseq	r0, r0, lsl #8
     820:	00009f50 	andeq	r9, r0, r0, asr pc
     824:	0000a727 	andeq	sl, r0, r7, lsr #14
     828:	00840800 	addeq	r0, r4, r0, lsl #16
     82c:	00007000 	andeq	r7, r0, r0
     830:	252e0100 	strcs	r0, [lr, #-256]!	; 0x100
     834:	000000b3 	strheq	r0, [r0], -r3
     838:	5001f304 	andpl	pc, r1, r4, lsl #6
     83c:	1300009f 	movwne	r0, #159	; 0x9f
     840:	00008420 	andeq	r8, r0, r0, lsr #8
     844:	00000004 	andeq	r0, r0, r4
     848:	0000085c 	andeq	r0, r0, ip, asr r8
     84c:	00022818 	andeq	r2, r2, r8, lsl r8
     850:	2c8b0100 	stfcss	f0, [fp], {0}
     854:	d7000000 	strle	r0, [r0, -r0]
     858:	00000005 	andeq	r0, r0, r5
     85c:	0000bf23 	andeq	fp, r0, r3, lsr #30
     860:	00843000 	addeq	r3, r4, r0
     864:	00002400 	andeq	r2, r0, r0, lsl #8
     868:	d48c0100 	strle	r0, [ip], #256	; 0x100
     86c:	1e000008 	cdpne	0, 0, cr0, cr0, cr8, {0}
     870:	000000d6 	ldrdeq	r0, [r0], -r6
     874:	000005ea 	andeq	r0, r0, sl, ror #11
     878:	0000cb25 	andeq	ip, r0, r5, lsr #22
     87c:	01f30400 	mvnseq	r0, r0, lsl #8
     880:	90269f50 	eorls	r9, r6, r0, asr pc
     884:	b9000000 	stmdblt	r0, {}	; <UNPREDICTABLE>
     888:	1e000008 	cdpne	0, 0, cr0, cr0, cr8, {0}
     88c:	000000d6 	ldrdeq	r0, [r0], -r6
     890:	00000604 	andeq	r0, r0, r4, lsl #12
     894:	0000cb25 	andeq	ip, r0, r5, lsr #22
     898:	01f30400 	mvnseq	r0, r0, lsl #8
     89c:	8f279f50 	svchi	0x00279f50
     8a0:	30000000 	andcc	r0, r0, r0
     8a4:	90000084 	andls	r0, r0, r4, lsl #1
     8a8:	01000000 	mrseq	r0, (UNDEF: 0)
     8ac:	009b252c 	addseq	r2, fp, ip, lsr #10
     8b0:	f3040000 	vhadd.u8	d0, d4, d0
     8b4:	009f5001 	addseq	r5, pc, r1
     8b8:	00a72700 	adceq	r2, r7, r0, lsl #14
     8bc:	843c0000 	ldrthi	r0, [ip], #-0
     8c0:	00b80000 	adcseq	r0, r8, r0
     8c4:	2e010000 	cdpcs	0, 0, cr0, cr1, cr0, {0}
     8c8:	0000b325 	andeq	fp, r0, r5, lsr #6
     8cc:	01f30400 	mvnseq	r0, r0, lsl #8
     8d0:	00009f50 	andeq	r9, r0, r0, asr pc
     8d4:	00845413 	addeq	r5, r4, r3, lsl r4
     8d8:	00000400 	andeq	r0, r0, r0, lsl #8
     8dc:	0008f100 	andeq	pc, r8, r0, lsl #2
     8e0:	02281800 	eoreq	r1, r8, #0, 16
     8e4:	8d010000 	stchi	0, cr0, [r1, #-0]
     8e8:	0000002c 	andeq	r0, r0, ip, lsr #32
     8ec:	00000674 	andeq	r0, r0, r4, ror r6
     8f0:	00bf2300 	adcseq	r2, pc, r0, lsl #6
     8f4:	84640000 	strbthi	r0, [r4], #-0
     8f8:	00240000 	eoreq	r0, r4, r0
     8fc:	8e010000 	cdphi	0, 0, cr0, cr1, cr0, {0}
     900:	00000969 	andeq	r0, r0, r9, ror #18
     904:	0000d61e 	andeq	sp, r0, lr, lsl r6
     908:	00068700 	andeq	r8, r6, r0, lsl #14
     90c:	00cb2500 	sbceq	r2, fp, r0, lsl #10
     910:	f3040000 	vhadd.u8	d0, d4, d0
     914:	269f5001 	ldrcs	r5, [pc], r1
     918:	000000d8 	ldrdeq	r0, [r0], -r8
     91c:	0000094e 	andeq	r0, r0, lr, asr #18
     920:	0000d61e 	andeq	sp, r0, lr, lsl r6
     924:	0006a100 	andeq	sl, r6, r0, lsl #2
     928:	00cb2500 	sbceq	r2, fp, r0, lsl #10
     92c:	f3040000 	vhadd.u8	d0, d4, d0
     930:	279f5001 	ldrcs	r5, [pc, r1]
     934:	0000008f 	andeq	r0, r0, pc, lsl #1
     938:	00008464 	andeq	r8, r0, r4, ror #8
     93c:	000000d8 	ldrdeq	r0, [r0], -r8
     940:	9b252c01 	blls	94b94c <__bss_end__+0x941504>
     944:	04000000 	streq	r0, [r0], #-0
     948:	9f5001f3 	svcls	0x005001f3
     94c:	a7270000 	strge	r0, [r7, -r0]!
     950:	70000000 	andvc	r0, r0, r0
     954:	00000084 	andeq	r0, r0, r4, lsl #1
     958:	01000001 	tsteq	r0, r1
     95c:	00b3252e 	adcseq	r2, r3, lr, lsr #10
     960:	f3040000 	vhadd.u8	d0, d4, d0
     964:	009f5001 	addseq	r5, pc, r1
     968:	84881300 	strhi	r1, [r8], #768	; 0x300
     96c:	00040000 	andeq	r0, r4, r0
     970:	09860000 	stmibeq	r6, {}	; <UNPREDICTABLE>
     974:	28180000 	ldmdacs	r8, {}	; <UNPREDICTABLE>
     978:	01000002 	tsteq	r0, r2
     97c:	00002c8f 	andeq	r2, r0, pc, lsl #25
     980:	0006ff00 	andeq	pc, r6, r0, lsl #30
     984:	bf230000 	svclt	0x00230000
     988:	98000000 	stmdals	r0, {}	; <UNPREDICTABLE>
     98c:	28000084 	stmdacs	r0, {r2, r7}
     990:	01000000 	mrseq	r0, (UNDEF: 0)
     994:	0009fe90 	muleq	r9, r0, lr
     998:	00d61e00 	sbcseq	r1, r6, r0, lsl #28
     99c:	07120000 	ldreq	r0, [r2, -r0]
     9a0:	cb250000 	blgt	9409a8 <__bss_end__+0x936560>
     9a4:	04000000 	streq	r0, [r0], #-0
     9a8:	9f5001f3 	svcls	0x005001f3
     9ac:	00012026 	andeq	r2, r1, r6, lsr #32
     9b0:	0009e300 	andeq	lr, r9, r0, lsl #6
     9b4:	00d61e00 	sbcseq	r1, r6, r0, lsl #28
     9b8:	072c0000 	streq	r0, [ip, -r0]!
     9bc:	cb250000 	blgt	9409c4 <__bss_end__+0x93657c>
     9c0:	04000000 	streq	r0, [r0], #-0
     9c4:	9f5001f3 	svcls	0x005001f3
     9c8:	00008f27 	andeq	r8, r0, r7, lsr #30
     9cc:	00849800 	addeq	r9, r4, r0, lsl #16
     9d0:	00012000 	andeq	r2, r1, r0
     9d4:	252c0100 	strcs	r0, [ip, #-256]!	; 0x100
     9d8:	0000009b 	muleq	r0, fp, r0
     9dc:	5001f304 	andpl	pc, r1, r4, lsl #6
     9e0:	2700009f 			; <UNDEFINED> instruction: 0x2700009f
     9e4:	000000a7 	andeq	r0, r0, r7, lsr #1
     9e8:	000084a4 	andeq	r8, r0, r4, lsr #9
     9ec:	00000148 	andeq	r0, r0, r8, asr #2
     9f0:	b3252e01 	teqlt	r5, #1, 28
     9f4:	04000000 	streq	r0, [r0], #-0
     9f8:	9f5001f3 	svcls	0x005001f3
     9fc:	c0130000 	andsgt	r0, r3, r0
     a00:	04000084 	streq	r0, [r0], #-132	; 0x84
     a04:	1b000000 	blne	a0c <_start-0x75f4>
     a08:	1800000a 	stmdane	r0, {r1, r3}
     a0c:	00000228 	andeq	r0, r0, r8, lsr #4
     a10:	002c9101 	eoreq	r9, ip, r1, lsl #2
     a14:	07780000 	ldrbeq	r0, [r8, -r0]!
     a18:	23000000 	movwcs	r0, #0
     a1c:	000000bf 	strheq	r0, [r0], -pc	; <UNPREDICTABLE>
     a20:	000084d0 	ldrdeq	r8, [r0], -r0
     a24:	00000028 	andeq	r0, r0, r8, lsr #32
     a28:	0a939201 	beq	fe4e5234 <__bss_end__+0xfe4dadec>
     a2c:	d61e0000 	ldrle	r0, [lr], -r0
     a30:	8b000000 	blhi	a38 <_start-0x75c8>
     a34:	25000007 	strcs	r0, [r0, #-7]
     a38:	000000cb 	andeq	r0, r0, fp, asr #1
     a3c:	5001f304 	andpl	pc, r1, r4, lsl #6
     a40:	0168269f 			; <UNDEFINED> instruction: 0x0168269f
     a44:	0a780000 	beq	1e00a4c <__bss_end__+0x1df6604>
     a48:	d61e0000 	ldrle	r0, [lr], -r0
     a4c:	a6000000 	strge	r0, [r0], -r0
     a50:	25000007 	strcs	r0, [r0, #-7]
     a54:	000000cb 	andeq	r0, r0, fp, asr #1
     a58:	5001f304 	andpl	pc, r1, r4, lsl #6
     a5c:	008f279f 	umulleq	r2, pc, pc, r7	; <UNPREDICTABLE>
     a60:	84d00000 	ldrbhi	r0, [r0], #0
     a64:	01680000 	cmneq	r8, r0
     a68:	2c010000 	stccs	0, cr0, [r1], {-0}
     a6c:	00009b25 	andeq	r9, r0, r5, lsr #22
     a70:	01f30400 	mvnseq	r0, r0, lsl #8
     a74:	00009f50 	andeq	r9, r0, r0, asr pc
     a78:	0000a727 	andeq	sl, r0, r7, lsr #14
     a7c:	0084dc00 	addeq	sp, r4, r0, lsl #24
     a80:	00019000 	andeq	r9, r1, r0
     a84:	252e0100 	strcs	r0, [lr, #-256]!	; 0x100
     a88:	000000b3 	strheq	r0, [r0], -r3
     a8c:	5001f304 	andpl	pc, r1, r4, lsl #6
     a90:	1300009f 	movwne	r0, #159	; 0x9f
     a94:	000084f8 	strdeq	r8, [r0], -r8	; <UNPREDICTABLE>
     a98:	00000004 	andeq	r0, r0, r4
     a9c:	00000ab0 			; <UNDEFINED> instruction: 0x00000ab0
     aa0:	00022818 	andeq	r2, r2, r8, lsl r8
     aa4:	2c930100 	ldfcss	f0, [r3], {0}
     aa8:	e0000000 	and	r0, r0, r0
     aac:	00000007 	andeq	r0, r0, r7
     ab0:	0000bf23 	andeq	fp, r0, r3, lsr #30
     ab4:	00850800 	addeq	r0, r5, r0, lsl #16
     ab8:	00002000 	andeq	r2, r0, r0
     abc:	28940100 	ldmcs	r4, {r8}
     ac0:	1e00000b 	cdpne	0, 0, cr0, cr0, cr11, {0}
     ac4:	000000d6 	ldrdeq	r0, [r0], -r6
     ac8:	000007f3 	strdeq	r0, [r0], -r3
     acc:	0000cb25 	andeq	ip, r0, r5, lsr #22
     ad0:	01f30400 	mvnseq	r0, r0, lsl #8
     ad4:	b0269f50 	eorlt	r9, r6, r0, asr pc
     ad8:	0d000001 	stceq	0, cr0, [r0, #-4]
     adc:	1e00000b 	cdpne	0, 0, cr0, cr0, cr11, {0}
     ae0:	000000d6 	ldrdeq	r0, [r0], -r6
     ae4:	0000080e 	andeq	r0, r0, lr, lsl #16
     ae8:	0000cb25 	andeq	ip, r0, r5, lsr #22
     aec:	01f30400 	mvnseq	r0, r0, lsl #8
     af0:	8f279f50 	svchi	0x00279f50
     af4:	08000000 	stmdaeq	r0, {}	; <UNPREDICTABLE>
     af8:	b0000085 	andlt	r0, r0, r5, lsl #1
     afc:	01000001 	tsteq	r0, r1
     b00:	009b252c 	addseq	r2, fp, ip, lsr #10
     b04:	f3040000 	vhadd.u8	d0, d4, d0
     b08:	009f5001 	addseq	r5, pc, r1
     b0c:	00a72700 	adceq	r2, r7, r0, lsl #14
     b10:	85140000 	ldrhi	r0, [r4, #-0]
     b14:	01d80000 	bicseq	r0, r8, r0
     b18:	2e010000 	cdpcs	0, 0, cr0, cr1, cr0, {0}
     b1c:	0000b325 	andeq	fp, r0, r5, lsr #6
     b20:	01f30400 	mvnseq	r0, r0, lsl #8
     b24:	00009f50 	andeq	r9, r0, r0, asr pc
     b28:	00852813 	addeq	r2, r5, r3, lsl r8
     b2c:	00000400 	andeq	r0, r0, r0, lsl #8
     b30:	000b4500 	andeq	r4, fp, r0, lsl #10
     b34:	02281800 	eoreq	r1, r8, #0, 16
     b38:	95010000 	strls	r0, [r1, #-0]
     b3c:	0000002c 	andeq	r0, r0, ip, lsr #32
     b40:	00000835 	andeq	r0, r0, r5, lsr r8
     b44:	00bf2300 	adcseq	r2, pc, r0, lsl #6
     b48:	85380000 	ldrhi	r0, [r8, #-0]!
     b4c:	00240000 	eoreq	r0, r4, r0
     b50:	96010000 	strls	r0, [r1], -r0
     b54:	00000bbd 			; <UNDEFINED> instruction: 0x00000bbd
     b58:	0000d61e 	andeq	sp, r0, lr, lsl r6
     b5c:	00084800 	andeq	r4, r8, r0, lsl #16
     b60:	00cb2500 	sbceq	r2, fp, r0, lsl #10
     b64:	f3040000 	vhadd.u8	d0, d4, d0
     b68:	269f5001 	ldrcs	r5, [pc], r1
     b6c:	000001f8 	strdeq	r0, [r0], -r8
     b70:	00000ba2 	andeq	r0, r0, r2, lsr #23
     b74:	0000d61e 	andeq	sp, r0, lr, lsl r6
     b78:	00086300 	andeq	r6, r8, r0, lsl #6
     b7c:	00cb2500 	sbceq	r2, fp, r0, lsl #10
     b80:	f3040000 	vhadd.u8	d0, d4, d0
     b84:	279f5001 	ldrcs	r5, [pc, r1]
     b88:	0000008f 	andeq	r0, r0, pc, lsl #1
     b8c:	0000853c 	andeq	r8, r0, ip, lsr r5
     b90:	000001f8 	strdeq	r0, [r0], -r8
     b94:	9b252c01 	blls	94bba0 <__bss_end__+0x941758>
     b98:	04000000 	streq	r0, [r0], #-0
     b9c:	9f5001f3 	svcls	0x005001f3
     ba0:	a7270000 	strge	r0, [r7, -r0]!
     ba4:	48000000 	stmdami	r0, {}	; <UNPREDICTABLE>
     ba8:	18000085 	stmdane	r0, {r0, r2, r7}
     bac:	01000002 	tsteq	r0, r2
     bb0:	00b3252e 	adcseq	r2, r3, lr, lsr #10
     bb4:	f3040000 	vhadd.u8	d0, d4, d0
     bb8:	009f5001 	addseq	r5, pc, r1
     bbc:	855c1300 	ldrbhi	r1, [ip, #-768]	; 0x300
     bc0:	00040000 	andeq	r0, r4, r0
     bc4:	0bda0000 	bleq	ff680bcc <__bss_end__+0xff676784>
     bc8:	28180000 	ldmdacs	r8, {}	; <UNPREDICTABLE>
     bcc:	01000002 	tsteq	r0, r2
     bd0:	00002c97 	muleq	r0, r7, ip
     bd4:	00087700 	andeq	r7, r8, r0, lsl #14
     bd8:	bf230000 	svclt	0x00230000
     bdc:	6c000000 	stcvs	0, cr0, [r0], {-0}
     be0:	18000085 	stmdane	r0, {r0, r2, r7}
     be4:	01000000 	mrseq	r0, (UNDEF: 0)
     be8:	000c3298 	muleq	ip, r8, r2
     bec:	00d61200 	sbcseq	r1, r6, r0, lsl #4
     bf0:	25010000 	strcs	r0, [r1, #-0]
     bf4:	000000cb 	andeq	r0, r0, fp, asr #1
     bf8:	5001f304 	andpl	pc, r1, r4, lsl #6
     bfc:	856c149f 	strbhi	r1, [ip, #-1183]!	; 0x49f
     c00:	00180000 	andseq	r0, r8, r0
     c04:	d6120000 	ldrle	r0, [r2], -r0
     c08:	01000000 	mrseq	r0, (UNDEF: 0)
     c0c:	0000cb25 	andeq	ip, r0, r5, lsr #22
     c10:	01f30400 	mvnseq	r0, r0, lsl #8
     c14:	8f249f50 	svchi	0x00249f50
     c18:	6c000000 	stcvs	0, cr0, [r0], {-0}
     c1c:	18000085 	stmdane	r0, {r0, r2, r7}
     c20:	01000000 	mrseq	r0, (UNDEF: 0)
     c24:	009b252c 	addseq	r2, fp, ip, lsr #10
     c28:	f3040000 	vhadd.u8	d0, d4, d0
     c2c:	009f5001 	addseq	r5, pc, r1
     c30:	84130000 	ldrhi	r0, [r3], #-0
     c34:	04000085 	streq	r0, [r0], #-133	; 0x85
     c38:	4f000000 	svcmi	0x00000000
     c3c:	1800000c 	stmdane	r0, {r2, r3}
     c40:	00000228 	andeq	r0, r0, r8, lsr #4
     c44:	002c9901 	eoreq	r9, ip, r1, lsl #18
     c48:	088a0000 	stmeq	sl, {}	; <UNPREDICTABLE>
     c4c:	14000000 	strne	r0, [r0], #-0
     c50:	00008594 	muleq	r0, r4, r5
     c54:	00000004 	andeq	r0, r0, r4
     c58:	0002280a 	andeq	r2, r2, sl, lsl #16
     c5c:	2c9a0100 	ldfcss	f0, [sl], {0}
     c60:	00000000 	andeq	r0, r0, r0
     c64:	00b72000 	adcseq	r2, r7, r0
     c68:	c6010000 	strgt	r0, [r1], -r0
     c6c:	000085a4 	andeq	r8, r0, r4, lsr #11
     c70:	0000011c 	andeq	r0, r0, ip, lsl r1
     c74:	0ebb9c01 	cdpeq	12, 11, cr9, cr11, cr1, {0}
     c78:	72220000 	eorvc	r0, r2, #0
     c7c:	c7010078 	smlsdxgt	r1, r8, r0, r0
     c80:	00000025 	andeq	r0, r0, r5, lsr #32
     c84:	78742214 	ldmdavc	r4!, {r2, r4, r9, sp}^
     c88:	25c80100 	strbcs	r0, [r8, #256]	; 0x100
     c8c:	15000000 	strne	r0, [r0, #-0]
     c90:	00008f28 	andeq	r8, r0, r8, lsr #30
     c94:	0085bc00 	addeq	fp, r5, r0, lsl #24
     c98:	00023800 	andeq	r3, r2, r0, lsl #16
     c9c:	aacc0100 	bge	ff3010a4 <__bss_end__+0xff2f6c5c>
     ca0:	1200000c 	andne	r0, r0, #12
     ca4:	0000009b 	muleq	r0, fp, r0
     ca8:	d4130015 	ldrle	r0, [r3], #-21
     cac:	08000085 	stmdaeq	r0, {r0, r2, r7}
     cb0:	c3000000 	movwgt	r0, #0
     cb4:	2200000c 	andcs	r0, r0, #12
     cb8:	01006e69 	tsteq	r0, r9, ror #28
     cbc:	00002cce 	andeq	r2, r0, lr, asr #25
     cc0:	23000100 	movwcs	r0, #256	; 0x100
     cc4:	00000219 	andeq	r0, r0, r9, lsl r2
     cc8:	000085ec 	andeq	r8, r0, ip, ror #11
     ccc:	00000060 	andeq	r0, r0, r0, rrx
     cd0:	0da3d101 	stfeqd	f5, [r3, #4]!
     cd4:	251e0000 	ldrcs	r0, [lr, #-0]
     cd8:	9d000002 	stcls	0, cr0, [r0, #-8]
     cdc:	1e000008 	cdpne	0, 0, cr0, cr0, cr8, {0}
     ce0:	0000022f 	andeq	r0, r0, pc, lsr #4
     ce4:	000008b1 			; <UNDEFINED> instruction: 0x000008b1
     ce8:	0002391e 	andeq	r3, r2, lr, lsl r9
     cec:	0008c500 	andeq	ip, r8, r0, lsl #10
     cf0:	85ec1400 	strbhi	r1, [ip, #1024]!	; 0x400
     cf4:	00600000 	rsbeq	r0, r0, r0
     cf8:	420f0000 	andmi	r0, pc, #0
     cfc:	da000002 	ble	d0c <_start-0x72f4>
     d00:	0f000008 	svceq	0x00000008
     d04:	0000024d 	andeq	r0, r0, sp, asr #4
     d08:	00000905 	andeq	r0, r0, r5, lsl #18
     d0c:	0002580f 	andeq	r5, r2, pc, lsl #16
     d10:	00092400 	andeq	r2, r9, r0, lsl #8
     d14:	85f41900 	ldrbhi	r1, [r4, #2304]!	; 0x900
     d18:	0fce0000 	svceq	0x00ce0000
     d1c:	0d2c0000 	stceq	0, cr0, [ip, #-0]
     d20:	011a0000 	tsteq	sl, r0
     d24:	b8030550 	stmdalt	r3, {r4, r6, r8, sl}
     d28:	0000009d 	muleq	r0, sp, r0
     d2c:	00860419 	addeq	r0, r6, r9, lsl r4
     d30:	00065600 	andeq	r5, r6, r0, lsl #12
     d34:	000d4c00 	andeq	r4, sp, r0, lsl #24
     d38:	52011a00 	andpl	r1, r1, #0, 20
     d3c:	17bc0a03 	ldrne	r0, [ip, r3, lsl #20]!
     d40:	0251011a 	subseq	r0, r1, #-2147483642	; 0x80000006
     d44:	011a0074 	tsteq	sl, r4, ror r0
     d48:	00450150 	subeq	r0, r5, r0, asr r1
     d4c:	00860c1b 	addeq	r0, r6, fp, lsl ip
     d50:	0002af00 	andeq	sl, r2, r0, lsl #30
     d54:	86201900 	strthi	r1, [r0], -r0, lsl #18
     d58:	0fb60000 	svceq	0x00b60000
     d5c:	0d680000 	stcleq	0, cr0, [r8, #-0]
     d60:	011a0000 	tsteq	sl, r0
     d64:	00310150 	eorseq	r0, r1, r0, asr r1
     d68:	00863019 	addeq	r3, r6, r9, lsl r0
     d6c:	00065600 	andeq	r5, r6, r0, lsl #12
     d70:	000d8800 	andeq	r8, sp, r0, lsl #16
     d74:	52011a00 	andpl	r1, r1, #0, 20
     d78:	17bc0a03 	ldrne	r0, [ip, r3, lsl #20]!
     d7c:	0251011a 	subseq	r0, r1, #-2147483642	; 0x80000006
     d80:	011a0075 	tsteq	sl, r5, ror r0
     d84:	00450150 	subeq	r0, r5, r0, asr r1
     d88:	00864829 	addeq	r4, r6, r9, lsr #16
     d8c:	000fce00 	andeq	ip, pc, r0, lsl #28
     d90:	51011a00 	tstpl	r1, r0, lsl #20
     d94:	1a007502 	bne	1e1a4 <__bss_end__+0x13d5c>
     d98:	03055001 	movweq	r5, #20481	; 0x5001
     d9c:	00009dd0 	ldrdeq	r9, [r0], -r0
     da0:	23000000 	movwcs	r0, #0
     da4:	00000264 	andeq	r0, r0, r4, ror #4
     da8:	0000864c 	andeq	r8, r0, ip, asr #12
     dac:	00000058 	andeq	r0, r0, r8, asr r0
     db0:	0e5ad301 	cdpeq	3, 5, cr13, cr10, cr1, {0}
     db4:	701e0000 	andsvc	r0, lr, r0
     db8:	43000002 	movwmi	r0, #2
     dbc:	1e000009 	cdpne	0, 0, cr0, cr0, cr9, {0}
     dc0:	0000027a 	andeq	r0, r0, sl, ror r2
     dc4:	00000957 	andeq	r0, r0, r7, asr r9
     dc8:	0002841e 	andeq	r8, r2, lr, lsl r4
     dcc:	00096b00 	andeq	r6, r9, r0, lsl #22
     dd0:	864c1400 	strbhi	r1, [ip], -r0, lsl #8
     dd4:	00580000 	subseq	r0, r8, r0
     dd8:	8d0f0000 	stchi	0, cr0, [pc, #-0]	; de0 <_start-0x7220>
     ddc:	80000002 	andhi	r0, r0, r2
     de0:	0f000009 	svceq	0x00000009
     de4:	00000298 	muleq	r0, r8, r2
     de8:	0000099f 	muleq	r0, pc, r9	; <UNPREDICTABLE>
     dec:	00866413 	addeq	r6, r6, r3, lsl r4
     df0:	00003400 	andeq	r3, r0, r0, lsl #8
     df4:	000e2800 	andeq	r2, lr, r0, lsl #16
     df8:	02a40f00 	adceq	r0, r4, #0, 30
     dfc:	09be0000 	ldmibeq	lr!, {}	; <UNPREDICTABLE>
     e00:	701b0000 	andsvc	r0, fp, r0
     e04:	af000086 	svcge	0x00000086
     e08:	29000002 	stmdbcs	r0, {r1}
     e0c:	0000868c 	andeq	r8, r0, ip, lsl #13
     e10:	00000656 	andeq	r0, r0, r6, asr r6
     e14:	0352011a 	cmpeq	r2, #-2147483642	; 0x80000006
     e18:	1a17bc0a 	bne	5efe48 <__bss_end__+0x5e5a00>
     e1c:	76025101 	strvc	r5, [r2], -r1, lsl #2
     e20:	50011a00 	andpl	r1, r1, r0, lsl #20
     e24:	00004501 	andeq	r4, r0, r1, lsl #10
     e28:	00865819 	addeq	r5, r6, r9, lsl r8
     e2c:	000fce00 	andeq	ip, pc, r0, lsl #28
     e30:	000e3f00 	andeq	r3, lr, r0, lsl #30
     e34:	50011a00 	andpl	r1, r1, r0, lsl #20
     e38:	9dec0305 	stclls	3, cr0, [ip, #20]!
     e3c:	29000000 	stmdbcs	r0, {}	; <UNPREDICTABLE>
     e40:	000086a4 	andeq	r8, r0, r4, lsr #13
     e44:	00000fce 	andeq	r0, r0, lr, asr #31
     e48:	0251011a 	subseq	r0, r1, #-2147483642	; 0x80000006
     e4c:	011a0076 	tsteq	sl, r6, ror r0
     e50:	d0030550 	andle	r0, r3, r0, asr r5
     e54:	0000009d 	muleq	r0, sp, r0
     e58:	b0190000 	andslt	r0, r9, r0
     e5c:	eb000085 	bl	1078 <_start-0x6f88>
     e60:	6d00000f 	stcvs	0, cr0, [r0, #-60]	; 0xffffffc4
     e64:	1a00000e 	bne	ea4 <_start-0x715c>
     e68:	45015001 	strmi	r5, [r1, #-1]
     e6c:	85b81900 	ldrhi	r1, [r8, #2304]!	; 0x900
     e70:	0ffc0000 	svceq	0x00fc0000
     e74:	0e800000 	cdpeq	0, 8, cr0, cr0, cr0, {0}
     e78:	011a0000 	tsteq	sl, r0
     e7c:	00440150 	subeq	r0, r4, r0, asr r1
     e80:	0085bc1b 	addeq	fp, r5, fp, lsl ip
     e84:	00100d00 	andseq	r0, r0, r0, lsl #26
     e88:	85d41900 	ldrbhi	r1, [r4, #2304]	; 0x900
     e8c:	0fb60000 	svceq	0x00b60000
     e90:	0e9e0000 	cdpeq	0, 9, cr0, cr14, cr0, {0}
     e94:	011a0000 	tsteq	sl, r0
     e98:	580a0350 	stmdapl	sl, {r4, r6, r8, r9}
     e9c:	e419001b 	ldr	r0, [r9], #-27
     ea0:	14000085 	strne	r0, [r0], #-133	; 0x85
     ea4:	b1000010 	tstlt	r0, r0, lsl r0
     ea8:	1a00000e 	bne	ee8 <_start-0x7118>
     eac:	44015001 	strmi	r5, [r1], #-1
     eb0:	86a81b00 	strthi	r1, [r8], r0, lsl #22
     eb4:	0fe40000 	svceq	0x00e40000
     eb8:	2a000000 	bcs	ec0 <_start-0x7140>
     ebc:	00000197 	muleq	r0, r7, r1
     ec0:	0eca0801 	cdpeq	8, 12, cr0, cr10, cr1, {0}
     ec4:	00000000 	andeq	r0, r0, r0
     ec8:	04052020 	streq	r2, [r5], #-32
     ecc:	00000ed0 	ldrdeq	r0, [r0], -r0	; <UNPREDICTABLE>
     ed0:	00002c2b 	andeq	r2, r0, fp, lsr #24
     ed4:	02642a00 	rsbeq	r2, r4, #0, 20
     ed8:	09010000 	stmdbeq	r1, {}	; <UNPREDICTABLE>
     edc:	00000eca 	andeq	r0, r0, sl, asr #29
     ee0:	2020001c 	eorcs	r0, r0, ip, lsl r0
     ee4:	0002b82a 	andeq	fp, r2, sl, lsr #16
     ee8:	ca0a0100 	bgt	2812f0 <__bss_end__+0x276ea8>
     eec:	2800000e 	stmdacs	r0, {r1, r2, r3}
     ef0:	2a202000 	bcs	808ef8 <__bss_end__+0x7feab0>
     ef4:	00000143 	andeq	r0, r0, r3, asr #2
     ef8:	0eca0c01 	cdpeq	12, 12, cr0, cr10, cr1, {0}
     efc:	00000000 	andeq	r0, r0, r0
     f00:	4b2a2020 	blmi	a88f88 <__bss_end__+0xa7eb40>
     f04:	01000001 	tsteq	r0, r1
     f08:	000eca0d 	andeq	ip, lr, sp, lsl #20
     f0c:	20000400 	andcs	r0, r0, r0, lsl #8
     f10:	00062a20 	andeq	r2, r6, r0, lsr #20
     f14:	0e010000 	cdpeq	0, 0, cr0, cr1, cr0, {0}
     f18:	00000eca 	andeq	r0, r0, sl, asr #29
     f1c:	20200008 	eorcs	r0, r0, r8
     f20:	0001532a 	andeq	r5, r1, sl, lsr #6
     f24:	ca0f0100 	bgt	3c132c <__bss_end__+0x3b6ee4>
     f28:	0c00000e 	stceq	0, cr0, [r0], {14}
     f2c:	2a202000 	bcs	808f34 <__bss_end__+0x7feaec>
     f30:	0000000e 	andeq	r0, r0, lr
     f34:	0eca1001 	cdpeq	0, 12, cr1, cr10, cr1, {0}
     f38:	00100000 	andseq	r0, r0, r0
     f3c:	642a2020 	strtvs	r2, [sl], #-32
     f40:	01000001 	tsteq	r0, r1
     f44:	000eca11 	andeq	ip, lr, r1, lsl sl
     f48:	20001400 	andcs	r1, r0, r0, lsl #8
     f4c:	00922a20 	addseq	r2, r2, r0, lsr #20
     f50:	13010000 	movwne	r0, #4096	; 0x1000
     f54:	00000f5c 	andeq	r0, r0, ip, asr pc
     f58:	2020001c 	eorcs	r0, r0, ip, lsl r0
     f5c:	000eca06 	andeq	ip, lr, r6, lsl #20
     f60:	00992a00 	addseq	r2, r9, r0, lsl #20
     f64:	14010000 	strne	r0, [r1], #-0
     f68:	00000eca 	andeq	r0, r0, sl, asr #29
     f6c:	20200020 	eorcs	r0, r0, r0, lsr #32
     f70:	0002452a 	andeq	r4, r2, sl, lsr #10
     f74:	7f160100 	svcvc	0x00160100
     f78:	2800000f 	stmdacs	r0, {r0, r1, r2, r3}
     f7c:	06202000 	strteq	r2, [r0], -r0
     f80:	00000eca 	andeq	r0, r0, sl, asr #29
     f84:	0001a22a 	andeq	sl, r1, sl, lsr #4
     f88:	ca170100 	bgt	5c1390 <__bss_end__+0x5b6f48>
     f8c:	2c00000e 	stccs	0, cr0, [r0], {14}
     f90:	2a202000 	bcs	808f98 <__bss_end__+0x7feb50>
     f94:	000000a0 	andeq	r0, r0, r0, lsr #1
     f98:	0fa21901 	svceq	0x00a21901
     f9c:	00340000 	eorseq	r0, r4, r0
     fa0:	ca062020 	bgt	189028 <__bss_end__+0x17ebe0>
     fa4:	2a00000e 	bcs	fe4 <_start-0x701c>
     fa8:	000000a7 	andeq	r0, r0, r7, lsr #1
     fac:	0eca1a01 	vdiveq.f32	s3, s20, s2
     fb0:	00380000 	eorseq	r0, r8, r0
     fb4:	4c2c2020 	stcmi	0, cr2, [ip], #-128	; 0xffffff80
     fb8:	02000002 	andeq	r0, r0, #2
     fbc:	000fc750 	andeq	ip, pc, r0, asr r7	; <UNPREDICTABLE>
     fc0:	002c2d00 	eoreq	r2, ip, r0, lsl #26
     fc4:	2e000000 	cdpcs	0, 0, cr0, cr0, cr0, {0}
     fc8:	00000134 	andeq	r0, r0, r4, lsr r1
     fcc:	392f1e02 	stmdbcc	pc!, {r1, r9, sl, fp, ip}	; <UNPREDICTABLE>
     fd0:	02000003 	andeq	r0, r0, #3
     fd4:	00002529 	andeq	r2, r0, r9, lsr #10
     fd8:	000fe400 	andeq	lr, pc, r0, lsl #8
     fdc:	00842d00 	addeq	r2, r4, r0, lsl #26
     fe0:	00300000 	eorseq	r0, r0, r0
     fe4:	00020c2e 	andeq	r0, r2, lr, lsr #24
     fe8:	2c660200 	sfmcs	f0, 2, [r6], #-0
     fec:	00000288 	andeq	r0, r0, r8, lsl #5
     ff0:	0ffc1d03 	svceq	0x00fc1d03
     ff4:	2c2d0000 	stccs	0, cr0, [sp], #-0
     ff8:	00000000 	andeq	r0, r0, r0
     ffc:	0002742c 	andeq	r7, r2, ip, lsr #8
    1000:	0d1c0300 	ldceq	3, cr0, [ip, #-0]
    1004:	2d000010 	stccs	0, cr0, [r0, #-64]	; 0xffffffc0
    1008:	0000002c 	andeq	r0, r0, ip, lsr #32
    100c:	02982e00 	addseq	r2, r8, #0, 28
    1010:	8e020000 	cdphi	0, 0, cr0, cr2, cr0, {0}
    1014:	0001a931 	andeq	sl, r1, r1, lsr r9
    1018:	25240300 	strcs	r0, [r4, #-768]!	; 0x300
    101c:	2d000000 	stccs	0, cr0, [r0, #-0]
    1020:	0000002c 	andeq	r0, r0, ip, lsr #32
    1024:	01910000 	orrseq	r0, r1, r0
    1028:	00040000 	andeq	r0, r4, r0
    102c:	0000027a 	andeq	r0, r0, sl, ror r2
    1030:	02df0104 	sbcseq	r0, pc, #4, 2
    1034:	d1010000 	mrsle	r0, (UNDEF: 1)
    1038:	4a000002 	bmi	1048 <_start-0x6fb8>
    103c:	c0000003 	andgt	r0, r0, r3
    1040:	58000086 	stmdapl	r0, {r1, r2, r7}
    1044:	e7000000 	str	r0, [r0, -r0]
    1048:	02000002 	andeq	r0, r0, #2
    104c:	000002c2 	andeq	r0, r0, r2, asr #5
    1050:	00302802 	eorseq	r2, r0, r2, lsl #16
    1054:	40030000 	andmi	r0, r3, r0
    1058:	04000003 	streq	r0, [r0], #-3
    105c:	00470003 	subeq	r0, r7, r3
    1060:	93040000 	movwls	r0, #16384	; 0x4000
    1064:	47000003 	strmi	r0, [r0, -r3]
    1068:	00000000 	andeq	r0, r0, r0
    106c:	02040500 	andeq	r0, r4, #0, 10
    1070:	00000342 	andeq	r0, r0, r2, asr #6
    1074:	00256202 	eoreq	r6, r5, r2, lsl #4
    1078:	04060000 	streq	r0, [r6], #-0
    107c:	746e6905 	strbtvc	r6, [lr], #-2309	; 0x905
    1080:	07040700 	streq	r0, [r4, -r0, lsl #14]
    1084:	00000053 	andeq	r0, r0, r3, asr r0
    1088:	2f060107 	svccs	0x00060107
    108c:	07000002 	streq	r0, [r0, -r2]
    1090:	023b0502 	eorseq	r0, fp, #8388608	; 0x800000
    1094:	04070000 	streq	r0, [r7], #-0
    1098:	00008205 	andeq	r8, r0, r5, lsl #4
    109c:	05080700 	streq	r0, [r8, #-1792]	; 0x700
    10a0:	0000007d 	andeq	r0, r0, sp, ror r0
    10a4:	2d080107 	stfcss	f0, [r8, #-28]	; 0xffffffe4
    10a8:	07000002 	streq	r0, [r0, -r2]
    10ac:	01840702 	orreq	r0, r4, r2, lsl #14
    10b0:	04070000 	streq	r0, [r7], #-0
    10b4:	00004e07 	andeq	r4, r0, r7, lsl #28
    10b8:	07080700 	streq	r0, [r8, -r0, lsl #14]
    10bc:	00000049 	andeq	r0, r0, r9, asr #32
    10c0:	1f070407 	svcne	0x00070407
    10c4:	08000002 	stmdaeq	r0, {r1}
    10c8:	0000a704 	andeq	sl, r0, r4, lsl #14
    10cc:	08010700 	stmdaeq	r1, {r8, r9, sl}
    10d0:	00000236 	andeq	r0, r0, r6, lsr r2
    10d4:	00b40408 	adcseq	r0, r4, r8, lsl #8
    10d8:	a7090000 	strge	r0, [r9, -r0]
    10dc:	0a000000 	beq	10e4 <_start-0x6f1c>
    10e0:	00000339 	andeq	r0, r0, r9, lsr r3
    10e4:	00540601 	subseq	r0, r4, r1, lsl #12
    10e8:	86c00000 	strbhi	r0, [r0], r0
    10ec:	00580000 	subseq	r0, r8, r0
    10f0:	9c010000 	stcls	0, cr0, [r1], {-0}
    10f4:	00000143 	andeq	r0, r0, r3, asr #2
    10f8:	746d660b 	strbtvc	r6, [sp], #-1547	; 0x60b
    10fc:	ae060100 	adfges	f0, f6, f0
    1100:	02000000 	andeq	r0, r0, #0
    1104:	0d0c7091 	stceq	0, cr7, [ip, #-580]	; 0xfffffdbc
    1108:	00667562 	rsbeq	r7, r6, r2, ror #10
    110c:	01430801 	cmpeq	r3, r1, lsl #16
    1110:	03050000 	movweq	r0, #20480	; 0x5000
    1114:	0000a038 	andeq	sl, r0, r8, lsr r0
    1118:	00038e0e 	andeq	r8, r3, lr, lsl #28
    111c:	49090100 	stmdbmi	r9, {r8}
    1120:	02000000 	andeq	r0, r0, #0
    1124:	730f5c91 	movwvc	r5, #64657	; 0xfc91
    1128:	0c01007a 	stceq	0, cr0, [r1], {122}	; 0x7a
    112c:	00000054 	andeq	r0, r0, r4, asr r0
    1130:	000009d2 	ldrdeq	r0, [r0], -r2
    1134:	0086e810 	addeq	lr, r6, r0, lsl r8
    1138:	00017400 	andeq	r7, r1, r0, lsl #8
    113c:	00013600 	andeq	r3, r1, r0, lsl #12
    1140:	53011100 	movwpl	r1, #4352	; 0x1100
    1144:	114c9102 	cmpne	ip, r2, lsl #2
    1148:	91035201 	tstls	r3, r1, lsl #4
    114c:	01110648 	tsteq	r1, r8, asr #12
    1150:	000a0351 	andeq	r0, sl, r1, asr r3
    1154:	50011104 	andpl	r1, r1, r4, lsl #2
    1158:	00007402 	andeq	r7, r0, r2, lsl #8
    115c:	0086fc12 	addeq	pc, r6, r2, lsl ip	; <UNPREDICTABLE>
    1160:	50011100 	andpl	r1, r1, r0, lsl #2
    1164:	00007402 	andeq	r7, r0, r2, lsl #8
    1168:	00a71300 	adceq	r1, r7, r0, lsl #6
    116c:	01540000 	cmpeq	r4, r0
    1170:	9a140000 	bls	501178 <__bss_end__+0x4f6d30>
    1174:	ff000000 			; <UNDEFINED> instruction: 0xff000000
    1178:	54150003 	ldrpl	r0, [r5], #-3
    117c:	63000000 	movwvs	r0, #0
    1180:	16000001 	strne	r0, [r0], -r1
    1184:	000000ae 	andeq	r0, r0, lr, lsr #1
    1188:	03e61700 	mvneq	r1, #0, 14
    118c:	22040000 	andcs	r0, r4, #0
    1190:	0000016e 	andeq	r0, r0, lr, ror #2
    1194:	01540408 	cmpeq	r4, r8, lsl #8
    1198:	36180000 	ldrcc	r0, [r8], -r0
    119c:	05000003 	streq	r0, [r0, #-3]
    11a0:	00005402 	andeq	r5, r0, r2, lsl #8
    11a4:	00a11600 	adceq	r1, r1, r0, lsl #12
    11a8:	54160000 	ldrpl	r0, [r6], #-0
    11ac:	16000000 	strne	r0, [r0], -r0
    11b0:	000000ae 	andeq	r0, r0, lr, lsr #1
    11b4:	00004916 	andeq	r4, r0, r6, lsl r9
    11b8:	13000000 	movwne	r0, #0
    11bc:	04000001 	streq	r0, [r0], #-1
    11c0:	0003ab00 	andeq	sl, r3, r0, lsl #22
    11c4:	df010400 	svcle	0x00010400
    11c8:	01000002 	tsteq	r0, r2
    11cc:	000003b5 			; <UNDEFINED> instruction: 0x000003b5
    11d0:	0000034a 	andeq	r0, r0, sl, asr #6
    11d4:	00008718 	andeq	r8, r0, r8, lsl r7
    11d8:	0000003c 	andeq	r0, r0, ip, lsr r0
    11dc:	000003ed 	andeq	r0, r0, sp, ror #7
    11e0:	69050402 	stmdbvs	r5, {r1, sl}
    11e4:	0300746e 	movweq	r7, #1134	; 0x46e
    11e8:	00530704 	subseq	r0, r3, r4, lsl #14
    11ec:	01030000 	mrseq	r0, (UNDEF: 3)
    11f0:	00022f06 	andeq	r2, r2, r6, lsl #30
    11f4:	05020300 	streq	r0, [r2, #-768]	; 0x300
    11f8:	0000023b 	andeq	r0, r0, fp, lsr r2
    11fc:	82050403 	andhi	r0, r5, #50331648	; 0x3000000
    1200:	03000000 	movweq	r0, #0
    1204:	007d0508 	rsbseq	r0, sp, r8, lsl #10
    1208:	01030000 	mrseq	r0, (UNDEF: 3)
    120c:	00022d08 	andeq	r2, r2, r8, lsl #26
    1210:	07020300 	streq	r0, [r2, -r0, lsl #6]
    1214:	00000184 	andeq	r0, r0, r4, lsl #3
    1218:	4e070403 	cdpmi	4, 0, cr0, cr7, cr3, {0}
    121c:	03000000 	movweq	r0, #0
    1220:	00490708 	subeq	r0, r9, r8, lsl #14
    1224:	04030000 	streq	r0, [r3], #-0
    1228:	00021f07 	andeq	r1, r2, r7, lsl #30
    122c:	08010300 	stmdaeq	r1, {r8, r9}
    1230:	00000236 	andeq	r0, r0, r6, lsr r2
    1234:	00039804 	andeq	r9, r3, r4, lsl #16
    1238:	25030100 	strcs	r0, [r3, #-256]	; 0x100
    123c:	18000000 	stmdane	r0, {}	; <UNPREDICTABLE>
    1240:	14000087 	strne	r0, [r0], #-135	; 0x87
    1244:	01000000 	mrseq	r0, (UNDEF: 0)
    1248:	0000b09c 	muleq	r0, ip, r0
    124c:	00630500 	rsbeq	r0, r3, r0, lsl #10
    1250:	00250301 	eoreq	r0, r5, r1, lsl #6
    1254:	09fb0000 	ldmibeq	fp!, {}^	; <UNPREDICTABLE>
    1258:	24060000 	strcs	r0, [r6], #-0
    125c:	09000087 	stmdbeq	r0, {r0, r1, r2, r7}
    1260:	07000001 	streq	r0, [r0, -r1]
    1264:	74025001 	strvc	r5, [r2], #-1
    1268:	08000000 	stmdaeq	r0, {}	; <UNPREDICTABLE>
    126c:	00000134 	andeq	r0, r0, r4, lsr r1
    1270:	872c0801 	strhi	r0, [ip, -r1, lsl #16]!
    1274:	00180000 	andseq	r0, r8, r0
    1278:	9c010000 	stcls	0, cr0, [r1], {-0}
    127c:	0003c409 	andeq	ip, r3, r9, lsl #8
    1280:	440b0100 	strmi	r0, [fp], #-256	; 0x100
    1284:	10000087 	andne	r0, r0, r7, lsl #1
    1288:	01000000 	mrseq	r0, (UNDEF: 0)
    128c:	0000e39c 	muleq	r0, ip, r3
    1290:	70660a00 	rsbvc	r0, r6, r0, lsl #20
    1294:	f20b0100 	vrhadd.s8	d0, d11, d0
    1298:	01000000 	mrseq	r0, (UNDEF: 0)
    129c:	250b0050 	strcs	r0, [fp, #-80]	; 0x50
    12a0:	f2000000 	vhadd.s8	d0, d0, d0
    12a4:	0c000000 	stceq	0, cr0, [r0], {-0}
    12a8:	00000025 	andeq	r0, r0, r5, lsr #32
    12ac:	e3040d00 	movw	r0, #19712	; 0x4d00
    12b0:	0e000000 	cdpeq	0, 0, cr0, cr0, cr0, {0}
    12b4:	000003a9 	andeq	r0, r0, r9, lsr #7
    12b8:	00f20601 	rscseq	r0, r2, r1, lsl #12
    12bc:	03050000 	movweq	r0, #20480	; 0x5000
    12c0:	00009cd0 	ldrdeq	r9, [r0], -r0
    12c4:	0005310f 	andeq	r3, r5, pc, lsl #2
    12c8:	0c3c0200 	lfmeq	f0, 4, [ip], #-0
    12cc:	0000002c 	andeq	r0, r0, ip, lsr #32
    12d0:	00ee0000 	rsceq	r0, lr, r0
    12d4:	00040000 	andeq	r0, r4, r0
    12d8:	00000493 	muleq	r0, r3, r4
    12dc:	02df0104 	sbcseq	r0, pc, #4, 2
    12e0:	d1010000 	mrsle	r0, (UNDEF: 1)
    12e4:	4a000003 	bmi	12f8 <_start-0x6d08>
    12e8:	54000003 	strpl	r0, [r0], #-3
    12ec:	34000087 	strcc	r0, [r0], #-135	; 0x87
    12f0:	7b000000 	blvc	12f8 <_start-0x6d08>
    12f4:	02000004 	andeq	r0, r0, #4
    12f8:	6e690504 	cdpvs	5, 6, cr0, cr9, cr4, {0}
    12fc:	04030074 	streq	r0, [r3], #-116	; 0x74
    1300:	00005307 	andeq	r5, r0, r7, lsl #6
    1304:	06010300 	streq	r0, [r1], -r0, lsl #6
    1308:	0000022f 	andeq	r0, r0, pc, lsr #4
    130c:	3b050203 	blcc	141b20 <__bss_end__+0x1376d8>
    1310:	03000002 	movweq	r0, #2
    1314:	00820504 	addeq	r0, r2, r4, lsl #10
    1318:	08030000 	stmdaeq	r3, {}	; <UNPREDICTABLE>
    131c:	00007d05 	andeq	r7, r0, r5, lsl #26
    1320:	08010300 	stmdaeq	r1, {r8, r9}
    1324:	0000022d 	andeq	r0, r0, sp, lsr #4
    1328:	84070203 	strhi	r0, [r7], #-515	; 0x203
    132c:	03000001 	movweq	r0, #1
    1330:	004e0704 	subeq	r0, lr, r4, lsl #14
    1334:	08030000 	stmdaeq	r3, {}	; <UNPREDICTABLE>
    1338:	00004907 	andeq	r4, r0, r7, lsl #18
    133c:	07040300 	streq	r0, [r4, -r0, lsl #6]
    1340:	0000021f 	andeq	r0, r0, pc, lsl r2
    1344:	36080103 	strcc	r0, [r8], -r3, lsl #2
    1348:	04000002 	streq	r0, [r0], #-2
    134c:	00007f04 	andeq	r7, r0, r4, lsl #30
    1350:	00720500 	rsbseq	r0, r2, r0, lsl #10
    1354:	dd060000 	stcle	0, cr0, [r6, #-0]
    1358:	01000003 	tsteq	r0, r3
    135c:	00002504 	andeq	r2, r0, r4, lsl #10
    1360:	00875400 	addeq	r5, r7, r0, lsl #8
    1364:	00003400 	andeq	r3, r0, r0, lsl #8
    1368:	ab9c0100 	blge	fe701770 <__bss_end__+0xfe6f7328>
    136c:	07000000 	streq	r0, [r0, -r0]
    1370:	04010070 	streq	r0, [r1], #-112	; 0x70
    1374:	00000079 	andeq	r0, r0, r9, ror r0
    1378:	00000a19 	andeq	r0, r0, r9, lsl sl
    137c:	00250800 	eoreq	r0, r5, r0, lsl #16
    1380:	00ba0000 	adcseq	r0, sl, r0
    1384:	25090000 	strcs	r0, [r9, #-0]
    1388:	00000000 	andeq	r0, r0, r0
    138c:	0003a90a 	andeq	sl, r3, sl, lsl #18
    1390:	c51d0200 	ldrgt	r0, [sp, #-512]	; 0x200
    1394:	04000000 	streq	r0, [r0], #-0
    1398:	0000ab04 	andeq	sl, r0, r4, lsl #22
    139c:	00250800 	eoreq	r0, r5, r0, lsl #16
    13a0:	00da0000 	sbcseq	r0, sl, r0
    13a4:	79090000 	stmdbvc	r9, {}	; <UNPREDICTABLE>
    13a8:	00000000 	andeq	r0, r0, r0
    13ac:	0003e60b 	andeq	lr, r3, fp, lsl #12
    13b0:	eb0c0100 	bl	3017b8 <__bss_end__+0x2f7370>
    13b4:	05000000 	streq	r0, [r0, #-0]
    13b8:	009cd403 	addseq	sp, ip, r3, lsl #8
    13bc:	cb040400 	blgt	1023c4 <__bss_end__+0xf7f7c>
    13c0:	00000000 	andeq	r0, r0, r0
    13c4:	000006a1 	andeq	r0, r0, r1, lsr #13
    13c8:	052c0004 	streq	r0, [ip, #-4]!
    13cc:	01040000 	mrseq	r0, (UNDEF: 4)
    13d0:	000002df 	ldrdeq	r0, [r0], -pc	; <UNPREDICTABLE>
    13d4:	00041701 	andeq	r1, r4, r1, lsl #14
    13d8:	00034a00 	andeq	r4, r3, r0, lsl #20
    13dc:	00878800 	addeq	r8, r7, r0, lsl #16
    13e0:	00052400 	andeq	r2, r5, r0, lsl #8
    13e4:	00051500 	andeq	r1, r5, r0, lsl #10
    13e8:	05040200 	streq	r0, [r4, #-512]	; 0x200
    13ec:	00746e69 	rsbseq	r6, r4, r9, ror #28
    13f0:	53070403 	movwpl	r0, #29699	; 0x7403
    13f4:	03000000 	movweq	r0, #0
    13f8:	022f0601 	eoreq	r0, pc, #1048576	; 0x100000
    13fc:	02030000 	andeq	r0, r3, #0
    1400:	00023b05 	andeq	r3, r2, r5, lsl #22
    1404:	05040300 	streq	r0, [r4, #-768]	; 0x300
    1408:	00000082 	andeq	r0, r0, r2, lsl #1
    140c:	7d050803 	stcvc	8, cr0, [r5, #-12]
    1410:	03000000 	movweq	r0, #0
    1414:	022d0801 	eoreq	r0, sp, #65536	; 0x10000
    1418:	02030000 	andeq	r0, r3, #0
    141c:	00018407 	andeq	r8, r1, r7, lsl #8
    1420:	07040300 	streq	r0, [r4, -r0, lsl #6]
    1424:	0000004e 	andeq	r0, r0, lr, asr #32
    1428:	49070803 	stmdbmi	r7, {r0, r1, fp}
    142c:	03000000 	movweq	r0, #0
    1430:	021f0704 	andseq	r0, pc, #4, 14	; 0x100000
    1434:	04040000 	streq	r0, [r4], #-0
    1438:	007a0405 	rsbseq	r0, sl, r5, lsl #8
    143c:	01030000 	mrseq	r0, (UNDEF: 3)
    1440:	00023608 	andeq	r3, r2, r8, lsl #12
    1444:	87040500 	strhi	r0, [r4, -r0, lsl #10]
    1448:	06000000 	streq	r0, [r0], -r0
    144c:	0000007a 	andeq	r0, r0, sl, ror r0
    1450:	0002c207 	andeq	ip, r2, r7, lsl #4
    1454:	97280200 	strls	r0, [r8, -r0, lsl #4]!
    1458:	08000000 	stmdaeq	r0, {}	; <UNPREDICTABLE>
    145c:	00000340 	andeq	r0, r0, r0, asr #6
    1460:	ae000404 	cdpge	4, 0, cr0, cr0, cr4, {0}
    1464:	09000000 	stmdbeq	r0, {}	; <UNPREDICTABLE>
    1468:	00000393 	muleq	r0, r3, r3
    146c:	00000072 	andeq	r0, r0, r2, ror r0
    1470:	42070000 	andmi	r0, r7, #0
    1474:	02000003 	andeq	r0, r0, #3
    1478:	00008c62 	andeq	r8, r0, r2, ror #24
    147c:	03f90a00 	mvnseq	r0, #0, 20
    1480:	27010000 	strcs	r0, [r1, -r0]
    1484:	00000025 	andeq	r0, r0, r5, lsr #32
    1488:	00008788 	andeq	r8, r0, r8, lsl #15
    148c:	00000014 	andeq	r0, r0, r4, lsl r0
    1490:	00e09c01 	rsceq	r9, r0, r1, lsl #24
    1494:	630b0000 	movwvs	r0, #45056	; 0xb000
    1498:	25270100 	strcs	r0, [r7, #-256]!	; 0x100
    149c:	37000000 	strcc	r0, [r0, -r0]
    14a0:	0000000a 	andeq	r0, r0, sl
    14a4:	6461700c 	strbtvs	r7, [r1], #-12
    14a8:	742e0100 	strtvc	r0, [lr], #-256	; 0x100
    14ac:	9c000000 	stcls	0, cr0, [r0], {-0}
    14b0:	2c000087 	stccs	0, cr0, [r0], {135}	; 0x87
    14b4:	01000000 	mrseq	r0, (UNDEF: 0)
    14b8:	0001309c 	muleq	r1, ip, r0
    14bc:	00700b00 	rsbseq	r0, r0, r0, lsl #22
    14c0:	00742e01 	rsbseq	r2, r4, r1, lsl #28
    14c4:	0a650000 	beq	19414cc <__bss_end__+0x1937084>
    14c8:	090d0000 	stmdbeq	sp, {}	; <UNPREDICTABLE>
    14cc:	01000004 	tsteq	r0, r4
    14d0:	0000742e 	andeq	r7, r0, lr, lsr #8
    14d4:	000a9000 	andeq	r9, sl, r0
    14d8:	04370e00 	ldrteq	r0, [r7], #-3584	; 0xe00
    14dc:	2e010000 	cdpcs	0, 0, cr0, cr1, cr0, {0}
    14e0:	00000025 	andeq	r0, r0, r5, lsr #32
    14e4:	6c0f5201 	sfmvs	f5, 4, [pc], {1}
    14e8:	01006e65 	tsteq	r0, r5, ror #28
    14ec:	0000252f 	andeq	r2, r0, pc, lsr #10
    14f0:	00510100 	subseq	r0, r1, r0, lsl #2
    14f4:	0003f10a 	andeq	pc, r3, sl, lsl #2
    14f8:	74370100 	ldrtvc	r0, [r7], #-256	; 0x100
    14fc:	c8000000 	stmdagt	r0, {}	; <UNPREDICTABLE>
    1500:	40000087 	andmi	r0, r0, r7, lsl #1
    1504:	01000000 	mrseq	r0, (UNDEF: 0)
    1508:	00019c9c 	muleq	r1, ip, ip
    150c:	73640b00 	cmnvc	r4, #0, 22
    1510:	37010074 	smlsdxcc	r1, r4, r0, r0
    1514:	00000074 	andeq	r0, r0, r4, ror r0
    1518:	00000ab1 			; <UNDEFINED> instruction: 0x00000ab1
    151c:	01006e0b 	tsteq	r0, fp, lsl #28
    1520:	00002537 	andeq	r2, r0, r7, lsr r5
    1524:	000ae900 	andeq	lr, sl, r0, lsl #18
    1528:	00700b00 	rsbseq	r0, r0, r0, lsl #22
    152c:	00743701 	rsbseq	r3, r4, r1, lsl #14
    1530:	0b0a0000 	bleq	281538 <__bss_end__+0x2770f0>
    1534:	1d0d0000 	stcne	0, cr0, [sp, #-0]
    1538:	01000005 	tsteq	r0, r5
    153c:	00007437 	andeq	r7, r0, r7, lsr r4
    1540:	000b4000 	andeq	r4, fp, r0
    1544:	656c1000 	strbvs	r1, [ip, #-0]!
    1548:	3901006e 	stmdbcc	r1, {r1, r2, r3, r5, r6}
    154c:	00000025 	andeq	r0, r0, r5, lsr #32
    1550:	00000b5e 	andeq	r0, r0, lr, asr fp
    1554:	0100730f 	tsteq	r0, pc, lsl #6
    1558:	0000743d 	andeq	r7, r0, sp, lsr r4
    155c:	00500100 	subseq	r0, r0, r0, lsl #2
    1560:	0004450a 	andeq	r4, r4, sl, lsl #10
    1564:	74470100 	strbvc	r0, [r7], #-256	; 0x100
    1568:	08000000 	stmdaeq	r0, {}	; <UNPREDICTABLE>
    156c:	a8000088 	stmdage	r0, {r3, r7}
    1570:	01000001 	tsteq	r0, r1
    1574:	0002df9c 	muleq	r2, ip, pc	; <UNPREDICTABLE>
    1578:	04090d00 	streq	r0, [r9], #-3328	; 0xd00
    157c:	47010000 	strmi	r0, [r1, -r0]
    1580:	0000002c 	andeq	r0, r0, ip, lsr #32
    1584:	00000b85 	andeq	r0, r0, r5, lsl #23
    1588:	7473640b 	ldrbtvc	r6, [r3], #-1035	; 0x40b
    158c:	74470100 	strbvc	r0, [r7], #-256	; 0x100
    1590:	b3000000 	movwlt	r0, #0
    1594:	0b00000b 	bleq	15c8 <_start-0x6a38>
    1598:	4701006e 	strmi	r0, [r1, -lr, rrx]
    159c:	00000025 	andeq	r0, r0, r5, lsr #32
    15a0:	00000c21 	andeq	r0, r0, r1, lsr #24
    15a4:	6c61760b 	stclvs	6, cr7, [r1], #-44	; 0xffffffd4
    15a8:	25470100 	strbcs	r0, [r7, #-256]	; 0x100
    15ac:	4d000000 	stcmi	0, cr0, [r0, #-0]
    15b0:	0d00000c 	stceq	0, cr0, [r0, #-48]	; 0xffffffd0
    15b4:	00000437 	andeq	r0, r0, r7, lsr r4
    15b8:	00254701 	eoreq	r4, r5, r1, lsl #14
    15bc:	0ccc0000 	stcleq	0, cr0, [ip], {0}
    15c0:	0e0e0000 	cdpeq	0, 0, cr0, cr14, cr0, {0}
    15c4:	01000004 	tsteq	r0, r4
    15c8:	00002547 	andeq	r2, r0, r7, asr #10
    15cc:	04910200 	ldreq	r0, [r1], #512	; 0x200
    15d0:	6675620f 	ldrbtvs	r6, [r5], -pc, lsl #4
    15d4:	df4c0100 	svcle	0x004c0100
    15d8:	03000002 	movweq	r0, #2
    15dc:	107fa891 			; <UNDEFINED> instruction: 0x107fa891
    15e0:	4c010070 	stcmi	0, cr0, [r1], {112}	; 0x70
    15e4:	00000074 	andeq	r0, r0, r4, ror r0
    15e8:	00000cf6 	strdeq	r0, [r0], -r6
    15ec:	01007510 	tsteq	r0, r0, lsl r5
    15f0:	00002c4d 	andeq	r2, r0, sp, asr #24
    15f4:	000db200 	andeq	fp, sp, r0, lsl #4
    15f8:	01771100 	cmneq	r7, r0, lsl #2
    15fc:	02ff0000 	rscseq	r0, pc, #0
    1600:	03050000 	movweq	r0, #20480	; 0x5000
    1604:	00009dfc 	strdeq	r9, [r0], -ip
    1608:	00887412 	addeq	r7, r8, r2, lsl r4
    160c:	00007400 	andeq	r7, r0, r0, lsl #8
    1610:	00026100 	andeq	r6, r2, r0, lsl #2
    1614:	03eb1300 	mvneq	r1, #0, 6
    1618:	52010000 	andpl	r0, r1, #0
    161c:	0000002c 	andeq	r0, r0, ip, lsr #32
    1620:	00000eb7 			; <UNDEFINED> instruction: 0x00000eb7
    1624:	89481400 	stmdbhi	r8, {sl, ip}^
    1628:	06800000 	streq	r0, [r0], r0
    162c:	64150000 	ldrvs	r0, [r5], #-0
    1630:	87000089 	strhi	r0, [r0, -r9, lsl #1]
    1634:	a3000006 	movwge	r0, #6
    1638:	16000002 	strne	r0, [r0], -r2
    163c:	08025301 	stmdaeq	r2, {r0, r8, r9, ip, lr}
    1640:	52011675 	andpl	r1, r1, #122683392	; 0x7500000
    1644:	9dfc0305 	ldclls	3, cr0, [ip, #20]!
    1648:	01160000 	tsteq	r6, r0
    164c:	34030551 	strcc	r0, [r3], #-1361	; 0x551
    1650:	1600009e 			; <UNDEFINED> instruction: 0x1600009e
    1654:	03055001 	movweq	r5, #20481	; 0x5001
    1658:	00009e20 	andeq	r9, r0, r0, lsr #28
    165c:	007d0216 	rsbseq	r0, sp, r6, lsl r2
    1660:	9e480305 	cdpls	3, 4, cr0, cr8, cr5, {0}
    1664:	14000000 	strne	r0, [r0], #-0
    1668:	00008968 	andeq	r8, r0, r8, ror #18
    166c:	0000069d 	muleq	r0, sp, r6
    1670:	00897415 	addeq	r7, r9, r5, lsl r4
    1674:	0000e000 	andeq	lr, r0, r0
    1678:	0002c100 	andeq	ip, r2, r0, lsl #2
    167c:	51011600 	tstpl	r1, r0, lsl #12
    1680:	7fa09103 	svcvc	0x00a09103
    1684:	89881700 	stmibhi	r8, {r8, r9, sl, ip}
    1688:	01300000 	teqeq	r0, r0
    168c:	01160000 	tsteq	r6, r0
    1690:	a0910353 	addsge	r0, r1, r3, asr r3
    1694:	5101167f 	tstpl	r1, pc, ror r6
    1698:	16007402 	strne	r7, [r0], -r2, lsl #8
    169c:	75025001 	strvc	r5, [r2, #-1]
    16a0:	18000000 	stmdane	r0, {}	; <UNPREDICTABLE>
    16a4:	0000007a 	andeq	r0, r0, sl, ror r0
    16a8:	000002ef 	andeq	r0, r0, pc, ror #5
    16ac:	00006b19 	andeq	r6, r0, r9, lsl fp
    16b0:	18003f00 	stmdane	r0, {r8, r9, sl, fp, ip, sp}
    16b4:	0000007a 	andeq	r0, r0, sl, ror r0
    16b8:	000002ff 	strdeq	r0, [r0], -pc	; <UNPREDICTABLE>
    16bc:	00006b19 	andeq	r6, r0, r9, lsl fp
    16c0:	06000400 	streq	r0, [r0], -r0, lsl #8
    16c4:	000002ef 	andeq	r0, r0, pc, ror #5
    16c8:	0004281a 	andeq	r2, r4, sl, lsl r8
    16cc:	b01f0100 	andslt	r0, pc, r0, lsl #2
    16d0:	68000089 	stmdavs	r0, {r0, r3, r7}
    16d4:	01000000 	mrseq	r0, (UNDEF: 0)
    16d8:	0003929c 	muleq	r3, ip, r2
    16dc:	043d0d00 	ldrteq	r0, [sp], #-3328	; 0xd00
    16e0:	1f010000 	svcne	0x00010000
    16e4:	000003a1 	andeq	r0, r0, r1, lsr #7
    16e8:	00000ee3 	andeq	r0, r0, r3, ror #29
    16ec:	0004010d 	andeq	r0, r4, sp, lsl #2
    16f0:	b61f0100 	ldrlt	r0, [pc], -r0, lsl #2
    16f4:	0f000003 	svceq	0x00000003
    16f8:	1100000f 	tstne	r0, pc
    16fc:	00000177 	andeq	r0, r0, r7, ror r1
    1700:	000003cc 	andeq	r0, r0, ip, asr #7
    1704:	9e040305 	cdpls	3, 0, cr0, cr4, cr5, {0}
    1708:	c4140000 	ldrgt	r0, [r4], #-0
    170c:	80000089 	andhi	r0, r0, r9, lsl #1
    1710:	15000006 	strne	r0, [r0, #-6]
    1714:	000089e0 	andeq	r8, r0, r0, ror #19
    1718:	00000687 	andeq	r0, r0, r7, lsl #13
    171c:	00000388 	andeq	r0, r0, r8, lsl #7
    1720:	02530116 	subseq	r0, r3, #-2147483643	; 0x80000005
    1724:	01162008 	tsteq	r6, r8
    1728:	04030552 	streq	r0, [r3], #-1362	; 0x552
    172c:	1600009e 			; <UNDEFINED> instruction: 0x1600009e
    1730:	03055101 	movweq	r5, #20737	; 0x5101
    1734:	00009e34 	andeq	r9, r0, r4, lsr lr
    1738:	05500116 	ldrbeq	r0, [r0, #-278]	; 0x116
    173c:	009e2003 	addseq	r2, lr, r3
    1740:	7d021600 	stcvc	6, cr1, [r2, #-0]
    1744:	70030500 	andvc	r0, r3, r0, lsl #10
    1748:	0000009e 	muleq	r0, lr, r0
    174c:	0089e414 	addeq	lr, r9, r4, lsl r4
    1750:	00069d00 	andeq	r9, r6, r0, lsl #26
    1754:	251b0000 	ldrcs	r0, [fp, #-0]
    1758:	a1000000 	mrsge	r0, (UNDEF: 0)
    175c:	1c000003 	stcne	0, cr0, [r0], {3}
    1760:	00000025 	andeq	r0, r0, r5, lsr #32
    1764:	92040500 	andls	r0, r4, #0, 10
    1768:	1b000003 	blne	177c <_start-0x6884>
    176c:	00000025 	andeq	r0, r0, r5, lsr #32
    1770:	000003b6 			; <UNDEFINED> instruction: 0x000003b6
    1774:	0000811c 	andeq	r8, r0, ip, lsl r1
    1778:	04050000 	streq	r0, [r5], #-0
    177c:	000003a7 	andeq	r0, r0, r7, lsr #7
    1780:	00007a18 	andeq	r7, r0, r8, lsl sl
    1784:	0003cc00 	andeq	ip, r3, r0, lsl #24
    1788:	006b1900 	rsbeq	r1, fp, r0, lsl #18
    178c:	000e0000 	andeq	r0, lr, r0
    1790:	0003bc06 	andeq	fp, r3, r6, lsl #24
    1794:	03361d00 	teqeq	r6, #0, 26
    1798:	7d010000 	stcvc	0, cr0, [r1, #-0]
    179c:	00000025 	andeq	r0, r0, r5, lsr #32
    17a0:	00008a18 	andeq	r8, r0, r8, lsl sl
    17a4:	00000294 	muleq	r0, r4, r2
    17a8:	06459c01 	strbeq	r9, [r5], -r1, lsl #24
    17ac:	620b0000 	andvs	r0, fp, #0
    17b0:	01006675 	tsteq	r0, r5, ror r6
    17b4:	0000747d 	andeq	r7, r0, sp, ror r4
    17b8:	000f3b00 	andeq	r3, pc, r0, lsl #22
    17bc:	006e0b00 	rsbeq	r0, lr, r0, lsl #22
    17c0:	00257d01 	eoreq	r7, r5, r1, lsl #26
    17c4:	0f670000 	svceq	0x00670000
    17c8:	660b0000 	strvs	r0, [fp], -r0
    17cc:	0100746d 	tsteq	r0, sp, ror #8
    17d0:	0000817d 	andeq	r8, r0, sp, ror r1
    17d4:	000f9500 	andeq	r9, pc, r0, lsl #10
    17d8:	038e0d00 	orreq	r0, lr, #0, 26
    17dc:	7d010000 	stcvc	0, cr0, [r1, #-0]
    17e0:	000000ae 	andeq	r0, r0, lr, lsr #1
    17e4:	00000fc9 	andeq	r0, r0, r9, asr #31
    17e8:	01007010 	tsteq	r0, r0, lsl r0
    17ec:	0000747e 	andeq	r7, r0, lr, ror r4
    17f0:	000fdc00 	andeq	sp, pc, r0, lsl #24
    17f4:	00651000 	rsbeq	r1, r5, r0
    17f8:	00747e01 	rsbseq	r7, r4, r1, lsl #28
    17fc:	105a0000 	subsne	r0, sl, r0
    1800:	77110000 	ldrvc	r0, [r1, -r0]
    1804:	55000001 	strpl	r0, [r0, #-1]
    1808:	05000006 	streq	r0, [r0, #-6]
    180c:	009e1403 	addseq	r1, lr, r3, lsl #8
    1810:	02501e00 	subseq	r1, r0, #0, 28
    1814:	73100000 	tstvc	r0, #0
    1818:	748b0100 	strvc	r0, [fp], #256	; 0x100
    181c:	81000000 	mrshi	r0, (UNDEF: 0)
    1820:	0f000010 	svceq	0x00000010
    1824:	006d756e 	rsbeq	r7, sp, lr, ror #10
    1828:	065a8b01 	ldrbeq	r8, [sl], -r1, lsl #22
    182c:	91030000 	mrsls	r0, (UNDEF: 3)
    1830:	37137ed8 			; <UNDEFINED> instruction: 0x37137ed8
    1834:	01000004 	tsteq	r0, r4
    1838:	00002c8c 	andeq	r2, r0, ip, lsl #25
    183c:	0010d600 	andseq	sp, r0, r0, lsl #12
    1840:	8a9c1500 	bhi	fe706c48 <__bss_end__+0xfe6fc800>
    1844:	00b90000 	adcseq	r0, r9, r0
    1848:	04910000 	ldreq	r0, [r1], #0
    184c:	01160000 	tsteq	r6, r0
    1850:	00750250 	rsbseq	r0, r5, r0, asr r2
    1854:	8ab01400 	bhi	fec0685c <__bss_end__+0xfebfc414>
    1858:	06800000 	streq	r0, [r0], r0
    185c:	cc150000 	ldcgt	0, cr0, [r5], {-0}
    1860:	8700008a 	strhi	r0, [r0, -sl, lsl #1]
    1864:	d3000006 	movwle	r0, #6
    1868:	16000004 	strne	r0, [r0], -r4
    186c:	08025301 	stmdaeq	r2, {r0, r8, r9, ip, lr}
    1870:	52011692 	andpl	r1, r1, #153092096	; 0x9200000
    1874:	9e140305 	cdpls	3, 1, cr0, cr4, cr5, {0}
    1878:	01160000 	tsteq	r6, r0
    187c:	34030551 	strcc	r0, [r3], #-1361	; 0x551
    1880:	1600009e 			; <UNDEFINED> instruction: 0x1600009e
    1884:	03055001 	movweq	r5, #20481	; 0x5001
    1888:	00009e20 	andeq	r9, r0, r0, lsr #28
    188c:	007d0216 	rsbseq	r0, sp, r6, lsl r2
    1890:	9e780305 	cdpls	3, 7, cr0, cr8, cr5, {0}
    1894:	14000000 	strne	r0, [r0], #-0
    1898:	00008ad0 	ldrdeq	r8, [r0], -r0
    189c:	0000069d 	muleq	r0, sp, r6
    18a0:	008b4014 	addeq	r4, fp, r4, lsl r0
    18a4:	00068000 	andeq	r8, r6, r0
    18a8:	8b541500 	blhi	1506cb0 <__bss_end__+0x14fc868>
    18ac:	06870000 	streq	r0, [r7], r0
    18b0:	05140000 	ldreq	r0, [r4, #-0]
    18b4:	01160000 	tsteq	r6, r0
    18b8:	98080253 	stmdals	r8, {r0, r1, r4, r6, r9}
    18bc:	05520116 	ldrbeq	r0, [r2, #-278]	; 0x116
    18c0:	009e1403 	addseq	r1, lr, r3, lsl #8
    18c4:	51011600 	tstpl	r1, r0, lsl #12
    18c8:	9e340305 	cdpls	3, 3, cr0, cr4, cr5, {0}
    18cc:	01160000 	tsteq	r6, r0
    18d0:	84030550 	strhi	r0, [r3], #-1360	; 0x550
    18d4:	0000009e 	muleq	r0, lr, r0
    18d8:	008b5814 	addeq	r5, fp, r4, lsl r8
    18dc:	00069d00 	andeq	r9, r6, r0, lsl #26
    18e0:	8b7c1500 	blhi	1f06ce8 <__bss_end__+0x1efc8a0>
    18e4:	019c0000 	orrseq	r0, ip, r0
    18e8:	054a0000 	strbeq	r0, [sl, #-0]
    18ec:	01160000 	tsteq	r6, r0
    18f0:	80080252 	andhi	r0, r8, r2, asr r2
    18f4:	03510116 	cmpeq	r1, #-2147483643	; 0x80000005
    18f8:	167ed091 			; <UNDEFINED> instruction: 0x167ed091
    18fc:	3a015001 	bcc	55908 <__bss_end__+0x4b4c0>
    1900:	047d0216 	ldrbteq	r0, [sp], #-534	; 0x216
    1904:	02163101 	andseq	r3, r6, #1073741824	; 0x40000000
    1908:	7702007d 	smlsdxvc	r2, sp, r0, r0
    190c:	a0150000 	andsge	r0, r5, r0
    1910:	9c00008b 	stcls	0, cr0, [r0], {139}	; 0x8b
    1914:	78000001 	stmdavc	r0, {r0}
    1918:	16000005 	strne	r0, [r0], -r5
    191c:	08025201 	stmdaeq	r2, {r0, r9, ip, lr}
    1920:	51011680 	smlabbpl	r1, r0, r6, r1
    1924:	7ed09103 	atnvcs	f1, f3
    1928:	01500116 	cmpeq	r0, r6, lsl r1
    192c:	7d02163a 	stcvc	6, cr1, [r2, #-232]	; 0xffffff18
    1930:	007b0204 	rsbseq	r0, fp, r4, lsl #4
    1934:	007d0216 	rsbseq	r0, sp, r6, lsl r2
    1938:	00007702 	andeq	r7, r0, r2, lsl #14
    193c:	008bc415 	addeq	ip, fp, r5, lsl r4
    1940:	00019c00 	andeq	r9, r1, r0, lsl #24
    1944:	0005a600 	andeq	sl, r5, r0, lsl #12
    1948:	52011600 	andpl	r1, r1, #0, 12
    194c:	16800802 	strne	r0, [r0], r2, lsl #16
    1950:	91035101 	tstls	r3, r1, lsl #2
    1954:	01167ed0 			; <UNDEFINED> instruction: 0x01167ed0
    1958:	16400150 			; <UNDEFINED> instruction: 0x16400150
    195c:	02047d02 	andeq	r7, r4, #2, 26	; 0x80
    1960:	0216007b 	andseq	r0, r6, #123	; 0x7b
    1964:	7702007d 	smlsdxvc	r2, sp, r0, r0
    1968:	e8150000 	ldmda	r5, {}	; <UNPREDICTABLE>
    196c:	9c00008b 	stcls	0, cr0, [r0], {139}	; 0x8b
    1970:	d4000001 	strle	r0, [r0], #-1
    1974:	16000005 	strne	r0, [r0], -r5
    1978:	08025201 	stmdaeq	r2, {r0, r9, ip, lr}
    197c:	51011680 	smlabbpl	r1, r0, r6, r1
    1980:	7ed09103 	atnvcs	f1, f3
    1984:	01500116 	cmpeq	r0, r6, lsl r1
    1988:	7d021632 	stcvc	6, cr1, [r2, #-200]	; 0xffffff38
    198c:	007b0204 	rsbseq	r0, fp, r4, lsl #4
    1990:	007d0216 	rsbseq	r0, sp, r6, lsl r2
    1994:	00007702 	andeq	r7, r0, r2, lsl #14
    1998:	008c1815 	addeq	r1, ip, r5, lsl r8
    199c:	00019c00 	andeq	r9, r1, r0, lsl #24
    19a0:	00060200 	andeq	r0, r6, r0, lsl #4
    19a4:	52011600 	andpl	r1, r1, #0, 12
    19a8:	16800802 	strne	r0, [r0], r2, lsl #16
    19ac:	91035101 	tstls	r3, r1, lsl #2
    19b0:	01167ed0 			; <UNDEFINED> instruction: 0x01167ed0
    19b4:	16380150 			; <UNDEFINED> instruction: 0x16380150
    19b8:	02047d02 	andeq	r7, r4, #2, 26	; 0x80
    19bc:	0216007b 	andseq	r0, r6, #123	; 0x7b
    19c0:	7702007d 	smlsdxvc	r2, sp, r0, r0
    19c4:	20140000 	andscs	r0, r4, r0
    19c8:	8000008c 	andhi	r0, r0, ip, lsl #1
    19cc:	15000006 	strne	r0, [r0, #-6]
    19d0:	00008c3c 	andeq	r8, r0, ip, lsr ip
    19d4:	00000687 	andeq	r0, r0, r7, lsl #13
    19d8:	0000063a 	andeq	r0, r0, sl, lsr r6
    19dc:	02530116 	subseq	r0, r3, #-2147483643	; 0x80000005
    19e0:	0116b908 	tsteq	r6, r8, lsl #18
    19e4:	14030552 	strne	r0, [r3], #-1362	; 0x552
    19e8:	1600009e 			; <UNDEFINED> instruction: 0x1600009e
    19ec:	03055101 	movweq	r5, #20737	; 0x5101
    19f0:	00009e34 	andeq	r9, r0, r4, lsr lr
    19f4:	05500116 	ldrbeq	r0, [r0, #-278]	; 0x116
    19f8:	009eac03 	addseq	sl, lr, r3, lsl #24
    19fc:	40140000 	andsmi	r0, r4, r0
    1a00:	9d00008c 	stcls	0, cr0, [r0, #-560]	; 0xfffffdd0
    1a04:	00000006 	andeq	r0, r0, r6
    1a08:	007a1800 	rsbseq	r1, sl, r0, lsl #16
    1a0c:	06550000 	ldrbeq	r0, [r5], -r0
    1a10:	6b190000 	blvs	641a18 <__bss_end__+0x6375d0>
    1a14:	09000000 	stmdbeq	r0, {}	; <UNPREDICTABLE>
    1a18:	06450600 	strbeq	r0, [r5], -r0, lsl #12
    1a1c:	7a180000 	bvc	601a24 <__bss_end__+0x5f75dc>
    1a20:	6a000000 	bvs	1a28 <_start-0x65d8>
    1a24:	19000006 	stmdbne	r0, {r1, r2}
    1a28:	0000006b 	andeq	r0, r0, fp, rrx
    1a2c:	a91f007f 	ldmdbge	pc, {r0, r1, r2, r3, r4, r5, r6}	; <UNPREDICTABLE>
    1a30:	03000003 	movweq	r0, #3
    1a34:	0003a11d 	andeq	sl, r3, sp, lsl r1
    1a38:	03e61f00 	mvneq	r1, #0, 30
    1a3c:	22030000 	andcs	r0, r3, #0
    1a40:	000003b6 			; <UNDEFINED> instruction: 0x000003b6
    1a44:	00013420 	andeq	r3, r1, r0, lsr #8
    1a48:	211e0300 	tstcs	lr, r0, lsl #6
    1a4c:	00000339 	andeq	r0, r0, r9, lsr r3
    1a50:	00252903 	eoreq	r2, r5, r3, lsl #18
    1a54:	069d0000 	ldreq	r0, [sp], r0
    1a58:	811c0000 	tsthi	ip, r0
    1a5c:	22000000 	andcs	r0, r0, #0
    1a60:	020c2000 	andeq	r2, ip, #0
    1a64:	66030000 	strvs	r0, [r3], -r0
    1a68:	0000b800 	andeq	fp, r0, r0, lsl #16
    1a6c:	08000400 	stmdaeq	r0, {sl}
    1a70:	04000007 	streq	r0, [r0], #-7
    1a74:	0002df01 	andeq	sp, r2, r1, lsl #30
    1a78:	04580100 	ldrbeq	r0, [r8], #-256	; 0x100
    1a7c:	034a0000 	movteq	r0, #40960	; 0xa000
    1a80:	8cac0000 	stchi	0, cr0, [ip]
    1a84:	00200000 	eoreq	r0, r0, r0
    1a88:	06fb0000 	ldrbteq	r0, [fp], r0
    1a8c:	04020000 	streq	r0, [r2], #-0
    1a90:	746e6905 	strbtvc	r6, [lr], #-2309	; 0x905
    1a94:	07040300 	streq	r0, [r4, -r0, lsl #6]
    1a98:	00000053 	andeq	r0, r0, r3, asr r0
    1a9c:	2f060103 	svccs	0x00060103
    1aa0:	03000002 	movweq	r0, #2
    1aa4:	023b0502 	eorseq	r0, fp, #8388608	; 0x800000
    1aa8:	04030000 	streq	r0, [r3], #-0
    1aac:	00008205 	andeq	r8, r0, r5, lsl #4
    1ab0:	05080300 	streq	r0, [r8, #-768]	; 0x300
    1ab4:	0000007d 	andeq	r0, r0, sp, ror r0
    1ab8:	2d080103 	stfcss	f0, [r8, #-12]
    1abc:	03000002 	movweq	r0, #2
    1ac0:	01840702 	orreq	r0, r4, r2, lsl #14
    1ac4:	04030000 	streq	r0, [r3], #-0
    1ac8:	00004e07 	andeq	r4, r0, r7, lsl #28
    1acc:	07080300 	streq	r0, [r8, -r0, lsl #6]
    1ad0:	00000049 	andeq	r0, r0, r9, asr #32
    1ad4:	1f070403 	svcne	0x00070403
    1ad8:	03000002 	movweq	r0, #2
    1adc:	02360801 	eorseq	r0, r6, #65536	; 0x10000
    1ae0:	98040000 	stmdals	r4, {}	; <UNPREDICTABLE>
    1ae4:	01000002 	tsteq	r0, r2
    1ae8:	008cac03 	addeq	sl, ip, r3, lsl #24
    1aec:	00001000 	andeq	r1, r0, r0
    1af0:	9c9c0100 	ldflss	f0, [ip], {0}
    1af4:	05000000 	streq	r0, [r0, #-0]
    1af8:	04010072 	streq	r0, [r1], #-114	; 0x72
    1afc:	0000002c 	andeq	r0, r0, ip, lsr #32
    1b00:	00001100 	andeq	r1, r0, r0, lsl #2
    1b04:	044a0600 	strbeq	r0, [sl], #-1536	; 0x600
    1b08:	0c010000 	stceq	0, cr0, [r1], {-0}
    1b0c:	00008cbc 			; <UNDEFINED> instruction: 0x00008cbc
    1b10:	00000010 	andeq	r0, r0, r0, lsl r0
    1b14:	72059c01 	andvc	r9, r5, #256	; 0x100
    1b18:	2c0d0100 	stfcss	f0, [sp], {-0}
    1b1c:	24000000 	strcs	r0, [r0], #-0
    1b20:	00000011 	andeq	r0, r0, r1, lsl r0
    1b24:	0000ff00 	andeq	pc, r0, r0, lsl #30
    1b28:	73000400 	movwvc	r0, #1024	; 0x400
    1b2c:	04000007 	streq	r0, [r0], #-7
    1b30:	0002df01 	andeq	sp, r2, r1, lsl #30
    1b34:	04760100 	ldrbteq	r0, [r6], #-256	; 0x100
    1b38:	034a0000 	movteq	r0, #40960	; 0xa000
    1b3c:	8ccc0000 	stclhi	0, cr0, [ip], {0}
    1b40:	00280000 	eoreq	r0, r8, r0
    1b44:	07420000 	strbeq	r0, [r2, -r0]
    1b48:	04020000 	streq	r0, [r2], #-0
    1b4c:	746e6905 	strbtvc	r6, [lr], #-2309	; 0x905
    1b50:	07040300 	streq	r0, [r4, -r0, lsl #6]
    1b54:	00000053 	andeq	r0, r0, r3, asr r0
    1b58:	2f060103 	svccs	0x00060103
    1b5c:	03000002 	movweq	r0, #2
    1b60:	023b0502 	eorseq	r0, fp, #8388608	; 0x800000
    1b64:	04030000 	streq	r0, [r3], #-0
    1b68:	00008205 	andeq	r8, r0, r5, lsl #4
    1b6c:	05080300 	streq	r0, [r8, #-768]	; 0x300
    1b70:	0000007d 	andeq	r0, r0, sp, ror r0
    1b74:	2d080103 	stfcss	f0, [r8, #-12]
    1b78:	03000002 	movweq	r0, #2
    1b7c:	01840702 	orreq	r0, r4, r2, lsl #14
    1b80:	04030000 	streq	r0, [r3], #-0
    1b84:	00004e07 	andeq	r4, r0, r7, lsl #28
    1b88:	07080300 	streq	r0, [r8, -r0, lsl #6]
    1b8c:	00000049 	andeq	r0, r0, r9, asr #32
    1b90:	1f070403 	svcne	0x00070403
    1b94:	03000002 	movweq	r0, #2
    1b98:	02360801 	eorseq	r0, r6, #65536	; 0x10000
    1b9c:	04040000 	streq	r0, [r4], #-0
    1ba0:	0000007f 	andeq	r0, r0, pc, ror r0
    1ba4:	00007205 	andeq	r7, r0, r5, lsl #4
    1ba8:	020c0600 	andeq	r0, ip, #0, 12
    1bac:	04010000 	streq	r0, [r1], #-0
    1bb0:	00008ccc 	andeq	r8, r0, ip, asr #25
    1bb4:	00000028 	andeq	r0, r0, r8, lsr #32
    1bb8:	00ca9c01 	sbceq	r9, sl, r1, lsl #24
    1bbc:	e0070000 	and	r0, r7, r0
    1bc0:	ac00008c 	stcge	0, cr0, [r0], {140}	; 0x8c
    1bc4:	08000000 	stmdaeq	r0, {}	; <UNPREDICTABLE>
    1bc8:	03055001 	movweq	r5, #20481	; 0x5001
    1bcc:	00009ee4 	andeq	r9, r0, r4, ror #29
    1bd0:	8ce80900 	stclhi	9, cr0, [r8]
    1bd4:	00ea0000 	rsceq	r0, sl, r0
    1bd8:	00c00000 	sbceq	r0, r0, r0
    1bdc:	01080000 	mrseq	r0, (UNDEF: 8)
    1be0:	64080250 	strvs	r0, [r8], #-592	; 0x250
    1be4:	8cec0a00 	vstmiahi	ip!, {s1-s0}
    1be8:	00fb0000 	rscseq	r0, fp, r0
    1bec:	0b000000 	bleq	1bf4 <_start-0x640c>
    1bf0:	00000025 	andeq	r0, r0, r5, lsr #32
    1bf4:	000000d9 	ldrdeq	r0, [r0], -r9
    1bf8:	0000790c 	andeq	r7, r0, ip, lsl #18
    1bfc:	e60d0000 	str	r0, [sp], -r0
    1c00:	02000003 	andeq	r0, r0, #3
    1c04:	0000e422 	andeq	lr, r0, r2, lsr #8
    1c08:	ca040400 	bgt	102c10 <__bss_end__+0xf87c8>
    1c0c:	0e000000 	cdpeq	0, 0, cr0, cr0, cr0, {0}
    1c10:	0000024c 	andeq	r0, r0, ip, asr #4
    1c14:	00fb5002 	rscseq	r5, fp, r2
    1c18:	2c0c0000 	stccs	0, cr0, [ip], {-0}
    1c1c:	00000000 	andeq	r0, r0, r0
    1c20:	00046b0f 	andeq	r6, r4, pc, lsl #22
    1c24:	00630200 	rsbeq	r0, r3, r0, lsl #4
    1c28:	000002dd 	ldrdeq	r0, [r0], -sp
    1c2c:	083d0004 	ldmdaeq	sp!, {r2}
    1c30:	01040000 	mrseq	r0, (UNDEF: 4)
    1c34:	000002df 	ldrdeq	r0, [r0], -pc	; <UNPREDICTABLE>
    1c38:	00056a01 	andeq	r6, r5, r1, lsl #20
    1c3c:	00034a00 	andeq	r4, r3, r0, lsl #20
    1c40:	008cf400 	addeq	pc, ip, r0, lsl #8
    1c44:	0000b000 	andeq	fp, r0, r0
    1c48:	0007d900 	andeq	sp, r7, r0, lsl #18
    1c4c:	05040200 	streq	r0, [r4, #-512]	; 0x200
    1c50:	00746e69 	rsbseq	r6, r4, r9, ror #28
    1c54:	53070403 	movwpl	r0, #29699	; 0x7403
    1c58:	03000000 	movweq	r0, #0
    1c5c:	022f0601 	eoreq	r0, pc, #1048576	; 0x100000
    1c60:	02030000 	andeq	r0, r3, #0
    1c64:	00023b05 	andeq	r3, r2, r5, lsl #22
    1c68:	05040300 	streq	r0, [r4, #-768]	; 0x300
    1c6c:	00000082 	andeq	r0, r0, r2, lsl #1
    1c70:	7d050803 	stcvc	8, cr0, [r5, #-12]
    1c74:	04000000 	streq	r0, [r0], #-0
    1c78:	000002a5 	andeq	r0, r0, r5, lsr #5
    1c7c:	005a2e02 	subseq	r2, sl, r2, lsl #28
    1c80:	01030000 	mrseq	r0, (UNDEF: 3)
    1c84:	00022d08 	andeq	r2, r2, r8, lsl #26
    1c88:	07020300 	streq	r0, [r2, -r0, lsl #6]
    1c8c:	00000184 	andeq	r0, r0, r4, lsl #3
    1c90:	00058a04 	andeq	r8, r5, r4, lsl #20
    1c94:	73340200 	teqvc	r4, #0, 4
    1c98:	03000000 	movweq	r0, #0
    1c9c:	004e0704 	subeq	r0, lr, r4, lsl #14
    1ca0:	08030000 	stmdaeq	r3, {}	; <UNPREDICTABLE>
    1ca4:	00004907 	andeq	r4, r0, r7, lsl #18
    1ca8:	07040300 	streq	r0, [r4, -r0, lsl #6]
    1cac:	0000021f 	andeq	r0, r0, pc, lsl r2
    1cb0:	36080103 	strcc	r0, [r8], -r3, lsl #2
    1cb4:	05000002 	streq	r0, [r0, #-2]
    1cb8:	00009504 	andeq	r9, r0, r4, lsl #10
    1cbc:	00880600 	addeq	r0, r8, r0, lsl #12
    1cc0:	0c070000 	stceq	0, cr0, [r7], {-0}
    1cc4:	00d10e03 	sbcseq	r0, r1, r3, lsl #28
    1cc8:	74080000 	strvc	r0, [r8], #-0
    1ccc:	0f030078 	svceq	0x00030078
    1cd0:	0000004f 	andeq	r0, r0, pc, asr #32
    1cd4:	78720800 	ldmdavc	r2!, {fp}^
    1cd8:	4f0f0300 	svcmi	0x000f0300
    1cdc:	01000000 	mrseq	r0, (UNDEF: 0)
    1ce0:	00050909 	andeq	r0, r5, r9, lsl #18
    1ce4:	68100300 	ldmdavs	r0, {r8, r9}
    1ce8:	04000000 	streq	r0, [r0], #-0
    1cec:	0004ba09 	andeq	fp, r4, r9, lsl #20
    1cf0:	68110300 	ldmdavs	r1, {r8, r9}
    1cf4:	08000000 	stmdaeq	r0, {}	; <UNPREDICTABLE>
    1cf8:	04f20400 	ldrbteq	r0, [r2], #1024	; 0x400
    1cfc:	12030000 	andne	r0, r3, #0
    1d00:	0000009a 	muleq	r0, sl, r0
    1d04:	1004010a 	andne	r0, r4, sl, lsl #2
    1d08:	000000f7 	strdeq	r0, [r0], -r7
    1d0c:	00050e0b 	andeq	r0, r5, fp, lsl #28
    1d10:	fc0b0100 	stc2	1, cr0, [fp], {-0}
    1d14:	02000004 	andeq	r0, r0, #4
    1d18:	0004e40b 	andeq	lr, r4, fp, lsl #8
    1d1c:	04000300 	streq	r0, [r0], #-768	; 0x300
    1d20:	00000523 	andeq	r0, r0, r3, lsr #10
    1d24:	00dc1004 	sbcseq	r1, ip, r4
    1d28:	14070000 	strne	r0, [r7], #-0
    1d2c:	012f1404 	teqeq	pc, r4, lsl #8
    1d30:	93090000 	movwls	r0, #36864	; 0x9000
    1d34:	04000005 	streq	r0, [r0], #-5
    1d38:	00002c15 	andeq	r2, r0, r5, lsl ip
    1d3c:	7e090000 	cdpvc	0, 0, cr0, cr9, cr0, {0}
    1d40:	04000005 	streq	r0, [r0], #-5
    1d44:	0000f718 	andeq	pc, r0, r8, lsl r7	; <UNPREDICTABLE>
    1d48:	49090400 	stmdbmi	r9, {sl}
    1d4c:	04000005 	streq	r0, [r0], #-5
    1d50:	0000d11b 	andeq	sp, r0, fp, lsl r1
    1d54:	04000800 	streq	r0, [r0], #-2048	; 0x800
    1d58:	0000053b 	andeq	r0, r0, fp, lsr r5
    1d5c:	01022004 	tsteq	r2, r4
    1d60:	900c0000 	andls	r0, ip, r0
    1d64:	01000004 	tsteq	r0, r4
    1d68:	00002506 	andeq	r2, r0, r6, lsl #10
    1d6c:	008cf400 	addeq	pc, ip, r0, lsl #8
    1d70:	00002000 	andeq	r2, r0, r0
    1d74:	7a9c0100 	bvc	fe70217c <__bss_end__+0xfe6f7d34>
    1d78:	0d000001 	stceq	0, cr0, [r0, #-4]
    1d7c:	06010063 	streq	r0, [r1], -r3, rrx
    1d80:	00000025 	andeq	r0, r0, r5, lsr #32
    1d84:	00001148 	andeq	r1, r0, r8, asr #2
    1d88:	008d080e 	addeq	r0, sp, lr, lsl #16
    1d8c:	00027a00 	andeq	r7, r2, r0, lsl #20
    1d90:	51010f00 	tstpl	r1, r0, lsl #30
    1d94:	0f007402 	svceq	0x00007402
    1d98:	03055001 	movweq	r5, #20481	; 0x5001
    1d9c:	0000a438 	andeq	sl, r0, r8, lsr r4
    1da0:	1b100000 	blne	401da8 <__bss_end__+0x3f7960>
    1da4:	01000005 	tsteq	r0, r5
    1da8:	008d140b 	addeq	r1, sp, fp, lsl #8
    1dac:	00009000 	andeq	r9, r0, r0
    1db0:	279c0100 	ldrcs	r0, [ip, r0, lsl #2]
    1db4:	11000002 	tstne	r0, r2
    1db8:	000004a4 	andeq	r0, r0, r4, lsr #9
    1dbc:	00250c01 	eoreq	r0, r5, r1, lsl #24
    1dc0:	5e110000 	cdppl	0, 1, cr0, cr1, cr0, {0}
    1dc4:	01000005 	tsteq	r0, r5
    1dc8:	0000250c 	andeq	r2, r0, ip, lsl #10
    1dcc:	00b71200 	adcseq	r1, r7, r0, lsl #4
    1dd0:	0d010000 	stceq	0, cr0, [r1, #-0]
    1dd4:	73736213 	cmnvc	r3, #805306369	; 0x30000001
    1dd8:	270f0100 	strcs	r0, [pc, -r0, lsl #2]
    1ddc:	66000002 	strvs	r0, [r0], -r2
    1de0:	14000011 	strne	r0, [r0], #-17
    1de4:	000004b2 			; <UNDEFINED> instruction: 0x000004b2
    1de8:	02271001 	eoreq	r1, r7, #1
    1dec:	63130000 	tstvs	r3, #0
    1df0:	17010062 	strne	r0, [r1, -r2, rrx]
    1df4:	0000022d 	andeq	r0, r0, sp, lsr #4
    1df8:	00001186 	andeq	r1, r0, r6, lsl #3
    1dfc:	008d3c15 	addeq	r3, sp, r5, lsl ip
    1e00:	00029600 	andeq	r9, r2, r0, lsl #12
    1e04:	8d781600 	ldclhi	6, cr1, [r8, #-0]
    1e08:	02a10000 	adceq	r0, r1, #0
    1e0c:	01fd0000 	mvnseq	r0, r0
    1e10:	010f0000 	mrseq	r0, CPSR
    1e14:	f0030551 			; <UNDEFINED> instruction: 0xf0030551
    1e18:	0f00009e 	svceq	0x0000009e
    1e1c:	03055001 	movweq	r5, #20481	; 0x5001
    1e20:	0000a438 	andeq	sl, r0, r8, lsr r4
    1e24:	8d801600 	stchi	6, cr1, [r0]
    1e28:	02bc0000 	adcseq	r0, ip, #0
    1e2c:	02140000 	andseq	r0, r4, #0
    1e30:	010f0000 	mrseq	r0, CPSR
    1e34:	14030550 	strne	r0, [r3], #-1360	; 0x550
    1e38:	0000009f 	muleq	r0, pc, r0	; <UNPREDICTABLE>
    1e3c:	008d8415 	addeq	r8, sp, r5, lsl r4
    1e40:	0002d200 	andeq	sp, r2, r0, lsl #4
    1e44:	8d881500 	cfstr32hi	mvfx1, [r8]
    1e48:	02d90000 	sbcseq	r0, r9, #0
    1e4c:	05000000 	streq	r0, [r0, #-0]
    1e50:	00002504 	andeq	r2, r0, r4, lsl #10
    1e54:	2f040500 	svccs	0x00040500
    1e58:	17000001 	strne	r0, [r0, -r1]
    1e5c:	000004c8 	andeq	r0, r0, r8, asr #9
    1e60:	00d10501 	sbcseq	r0, r1, r1, lsl #10
    1e64:	03050000 	movweq	r0, #20480	; 0x5000
    1e68:	0000a438 	andeq	sl, r0, r8, lsr r4
    1e6c:	00002518 	andeq	r2, r0, r8, lsl r5
    1e70:	00025300 	andeq	r5, r2, r0, lsl #6
    1e74:	00251900 	eoreq	r1, r5, r0, lsl #18
    1e78:	11000000 	mrsne	r0, (UNDEF: 0)
    1e7c:	000003a9 	andeq	r0, r0, r9, lsr #7
    1e80:	025e1d05 	subseq	r1, lr, #320	; 0x140
    1e84:	04050000 	streq	r0, [r5], #-0
    1e88:	00000244 	andeq	r0, r0, r4, asr #4
    1e8c:	0004a411 	andeq	sl, r4, r1, lsl r4
    1e90:	250c0100 	strcs	r0, [ip, #-256]	; 0x100
    1e94:	11000000 	mrsne	r0, (UNDEF: 0)
    1e98:	0000055e 	andeq	r0, r0, lr, asr r5
    1e9c:	00250c01 	eoreq	r0, r5, r1, lsl #24
    1ea0:	2e1a0000 	cdpcs	0, 1, cr0, cr10, cr0, {0}
    1ea4:	03000005 	movweq	r0, #5
    1ea8:	00029044 	andeq	r9, r2, r4, asr #32
    1eac:	02901900 	addseq	r1, r0, #0, 18
    1eb0:	5a190000 	bpl	641eb8 <__bss_end__+0x637a70>
    1eb4:	00000000 	andeq	r0, r0, r0
    1eb8:	00d10405 	sbcseq	r0, r1, r5, lsl #8
    1ebc:	511b0000 	tstpl	fp, r0
    1ec0:	04000005 	streq	r0, [r0], #-5
    1ec4:	00022d2a 	andeq	r2, r2, sl, lsr #26
    1ec8:	04d51c00 	ldrbeq	r1, [r5], #3072	; 0xc00
    1ecc:	15030000 	strne	r0, [r3, #-0]
    1ed0:	00000025 	andeq	r0, r0, r5, lsr #32
    1ed4:	000002bc 			; <UNDEFINED> instruction: 0x000002bc
    1ed8:	00029019 	andeq	r9, r2, r9, lsl r0
    1edc:	008f1900 	addeq	r1, pc, r0, lsl #18
    1ee0:	001d0000 	andseq	r0, sp, r0
    1ee4:	0003391c 	andeq	r3, r3, ip, lsl r9
    1ee8:	25290500 	strcs	r0, [r9, #-1280]!	; 0x500
    1eec:	d2000000 	andle	r0, r0, #0
    1ef0:	19000002 	stmdbne	r0, {r1}
    1ef4:	0000008f 	andeq	r0, r0, pc, lsl #1
    1ef8:	b712001d 			; <UNDEFINED> instruction: 0xb712001d
    1efc:	05000000 	streq	r0, [r0, #-0]
    1f00:	046b12d1 	strbteq	r1, [fp], #-721	; 0x2d1
    1f04:	63050000 	movwvs	r0, #20480	; 0x5000
    1f08:	0001ad00 	andeq	sl, r1, r0, lsl #26
    1f0c:	d4000400 	strle	r0, [r0], #-1024	; 0x400
    1f10:	04000009 	streq	r0, [r0], #-9
    1f14:	0002df01 	andeq	sp, r2, r1, lsl #30
    1f18:	05b30100 	ldreq	r0, [r3, #256]!	; 0x100
    1f1c:	034a0000 	movteq	r0, #40960	; 0xa000
    1f20:	02680000 	rsbeq	r0, r8, #0
    1f24:	00000000 	andeq	r0, r0, r0
    1f28:	08fe0000 	ldmeq	lr!, {}^	; <UNPREDICTABLE>
    1f2c:	04020000 	streq	r0, [r2], #-0
    1f30:	746e6905 	strbtvc	r6, [lr], #-2309	; 0x905
    1f34:	07040300 	streq	r0, [r4, -r0, lsl #6]
    1f38:	00000053 	andeq	r0, r0, r3, asr r0
    1f3c:	2f060103 	svccs	0x00060103
    1f40:	03000002 	movweq	r0, #2
    1f44:	023b0502 	eorseq	r0, fp, #8388608	; 0x800000
    1f48:	04030000 	streq	r0, [r3], #-0
    1f4c:	00008205 	andeq	r8, r0, r5, lsl #4
    1f50:	05080300 	streq	r0, [r8, #-768]	; 0x300
    1f54:	0000007d 	andeq	r0, r0, sp, ror r0
    1f58:	2d080103 	stfcss	f0, [r8, #-12]
    1f5c:	03000002 	movweq	r0, #2
    1f60:	01840702 	orreq	r0, r4, r2, lsl #14
    1f64:	04030000 	streq	r0, [r3], #-0
    1f68:	00004e07 	andeq	r4, r0, r7, lsl #28
    1f6c:	07080300 	streq	r0, [r8, -r0, lsl #6]
    1f70:	00000049 	andeq	r0, r0, r9, asr #32
    1f74:	1f070403 	svcne	0x00070403
    1f78:	03000002 	movweq	r0, #2
    1f7c:	02360801 	eorseq	r0, r6, #65536	; 0x10000
    1f80:	99040000 	stmdbls	r4, {}	; <UNPREDICTABLE>
    1f84:	01000005 	tsteq	r0, r5
    1f88:	0000250e 	andeq	r2, r0, lr, lsl #10
    1f8c:	008da400 	addeq	sl, sp, r0, lsl #8
    1f90:	00001800 	andeq	r1, r0, r0, lsl #16
    1f94:	a29c0100 	addsge	r0, ip, #0, 2
    1f98:	05000000 	streq	r0, [r0, #-0]
    1f9c:	00000605 	andeq	r0, r0, r5, lsl #12
    1fa0:	002c0f01 	eoreq	r0, ip, r1, lsl #30
    1fa4:	11a60000 			; <UNDEFINED> instruction: 0x11a60000
    1fa8:	06000000 	streq	r0, [r0], -r0
    1fac:	000005e8 	andeq	r0, r0, r8, ror #11
    1fb0:	8dbc1701 	ldchi	7, cr1, [ip, #4]!
    1fb4:	00140000 	andseq	r0, r4, r0
    1fb8:	9c010000 	stcls	0, cr0, [r1], {-0}
    1fbc:	000000c7 	andeq	r0, r0, r7, asr #1
    1fc0:	00060505 	andeq	r0, r6, r5, lsl #10
    1fc4:	2c180100 	ldfcss	f0, [r8], {-0}
    1fc8:	c5000000 	strgt	r0, [r0, #-0]
    1fcc:	00000011 	andeq	r0, r0, r1, lsl r0
    1fd0:	00046b06 	andeq	r6, r4, r6, lsl #22
    1fd4:	d01f0100 	andsle	r0, pc, r0, lsl #2
    1fd8:	4800008d 	stmdami	r0, {r0, r2, r3, r7}
    1fdc:	01000000 	mrseq	r0, (UNDEF: 0)
    1fe0:	0001779c 	muleq	r1, ip, r7
    1fe4:	05fd0700 	ldrbeq	r0, [sp, #1792]!	; 0x700
    1fe8:	2a010000 	bcs	41ff0 <__bss_end__+0x37ba8>
    1fec:	00000177 	andeq	r0, r0, r7, ror r1
    1ff0:	2010001c 	andscs	r0, r0, ip, lsl r0
    1ff4:	0005e007 	andeq	lr, r5, r7
    1ff8:	772b0100 	strvc	r0, [fp, -r0, lsl #2]!
    1ffc:	24000001 	strcs	r0, [r0], #-1
    2000:	07201000 	streq	r1, [r0, -r0]!
    2004:	000005a7 	andeq	r0, r0, r7, lsr #11
    2008:	01772c01 	cmneq	r7, r1, lsl #24
    200c:	00000000 	andeq	r0, r0, r0
    2010:	c7085a00 	strgt	r5, [r8, -r0, lsl #20]
    2014:	01000005 	tsteq	r0, r5
    2018:	0001772d 	andeq	r7, r1, sp, lsr #14
    201c:	d8092000 	stmdale	r9, {sp}
    2020:	7900008d 	stmdbvc	r0, {r0, r2, r3, r7}
    2024:	09000000 	stmdbeq	r0, {}	; <UNPREDICTABLE>
    2028:	00008de4 	andeq	r8, r0, r4, ror #27
    202c:	000000a2 	andeq	r0, r0, r2, lsr #1
    2030:	008dec0a 	addeq	lr, sp, sl, lsl #24
    2034:	00018d00 	andeq	r8, r1, r0, lsl #26
    2038:	00013a00 	andeq	r3, r1, r0, lsl #20
    203c:	50010b00 	andpl	r0, r1, r0, lsl #22
    2040:	0a004e01 	beq	1584c <__bss_end__+0xb404>
    2044:	00008df8 	strdeq	r8, [r0], -r8	; <UNPREDICTABLE>
    2048:	0000019e 	muleq	r0, lr, r1
    204c:	0000015a 	andeq	r0, r0, sl, asr r1
    2050:	0551010b 	ldrbeq	r0, [r1, #-267]	; 0x10b
    2054:	0000010c 	andeq	r0, r0, ip, lsl #2
    2058:	50010b5a 	andpl	r0, r1, sl, asr fp
    205c:	00240c05 	eoreq	r0, r4, r5, lsl #24
    2060:	0c002010 	stceq	0, cr2, [r0], {16}
    2064:	00008e04 	andeq	r8, r0, r4, lsl #28
    2068:	0000019e 	muleq	r0, lr, r1
    206c:	0551010b 	ldrbeq	r0, [r1, #-267]	; 0x10b
    2070:	0000200c 	andeq	r2, r0, ip
    2074:	50010b5a 	andpl	r0, r1, sl, asr fp
    2078:	001c0c05 	andseq	r0, ip, r5, lsl #24
    207c:	00002010 	andeq	r2, r0, r0, lsl r0
    2080:	0000250d 	andeq	r2, r0, sp, lsl #10
    2084:	059c0800 	ldreq	r0, [ip, #2048]	; 0x800
    2088:	0d010000 	stceq	0, cr0, [r1, #-0]
    208c:	00000188 	andeq	r0, r0, r8, lsl #3
    2090:	002c0d10 	eoreq	r0, ip, r0, lsl sp
    2094:	4c0e0000 	stcmi	0, cr0, [lr], {-0}
    2098:	02000002 	andeq	r0, r0, #2
    209c:	00019e50 	andeq	r9, r1, r0, asr lr
    20a0:	002c0f00 	eoreq	r0, ip, r0, lsl #30
    20a4:	10000000 	andne	r0, r0, r0
    20a8:	000005f7 	strdeq	r0, [r0], -r7
    20ac:	2c0f9c02 	stccs	12, cr9, [pc], {2}
    20b0:	0f000000 	svceq	0x00000000
    20b4:	0000002c 	andeq	r0, r0, ip, lsr #32
    20b8:	01d80000 	bicseq	r0, r8, r0
    20bc:	00040000 	andeq	r0, r4, r0
    20c0:	00000ac2 	andeq	r0, r0, r2, asr #21
    20c4:	02df0104 	sbcseq	r0, pc, #4, 2
    20c8:	27010000 	strcs	r0, [r1, -r0]
    20cc:	4a000006 	bmi	20ec <_start-0x5f14>
    20d0:	18000003 	stmdane	r0, {r0, r1}
    20d4:	8800008e 	stmdahi	r0, {r1, r2, r3, r7}
    20d8:	9b000000 	blls	20e0 <_start-0x5f20>
    20dc:	02000009 	andeq	r0, r0, #9
    20e0:	6e690504 	cdpvs	5, 6, cr0, cr9, cr4, {0}
    20e4:	04030074 	streq	r0, [r3], #-116	; 0x74
    20e8:	00005307 	andeq	r5, r0, r7, lsl #6
    20ec:	06010300 	streq	r0, [r1], -r0, lsl #6
    20f0:	0000022f 	andeq	r0, r0, pc, lsr #4
    20f4:	3b050203 	blcc	142908 <__bss_end__+0x1384c0>
    20f8:	03000002 	movweq	r0, #2
    20fc:	00820504 	addeq	r0, r2, r4, lsl #10
    2100:	08030000 	stmdaeq	r3, {}	; <UNPREDICTABLE>
    2104:	00007d05 	andeq	r7, r0, r5, lsl #26
    2108:	08010300 	stmdaeq	r1, {r8, r9}
    210c:	0000022d 	andeq	r0, r0, sp, lsr #4
    2110:	84070203 	strhi	r0, [r7], #-515	; 0x203
    2114:	03000001 	movweq	r0, #1
    2118:	004e0704 	subeq	r0, lr, r4, lsl #14
    211c:	08030000 	stmdaeq	r3, {}	; <UNPREDICTABLE>
    2120:	00004907 	andeq	r4, r0, r7, lsl #18
    2124:	07040300 	streq	r0, [r4, -r0, lsl #6]
    2128:	0000021f 	andeq	r0, r0, pc, lsl r2
    212c:	36080103 	strcc	r0, [r8], -r3, lsl #2
    2130:	04000002 	streq	r0, [r0], #-2
    2134:	00000646 	andeq	r0, r0, r6, asr #12
    2138:	8e180501 	cfmul32hi	mvfx0, mvfx8, mvfx1
    213c:	001c0000 	andseq	r0, ip, r0
    2140:	9c010000 	stcls	0, cr0, [r1], {-0}
    2144:	0000009e 	muleq	r0, lr, r0
    2148:	00064005 	andeq	r4, r6, r5
    214c:	2c050100 	stfcss	f0, [r5], {-0}
    2150:	ef000000 	svc	0x00000000
    2154:	00000011 	andeq	r0, r0, r1, lsl r0
    2158:	00060a06 	andeq	r0, r6, r6, lsl #20
    215c:	2c0b0100 	stfcss	f0, [fp], {-0}
    2160:	34000000 	strcc	r0, [r0], #-0
    2164:	1400008e 	strne	r0, [r0], #-142	; 0x8e
    2168:	01000000 	mrseq	r0, (UNDEF: 0)
    216c:	0000cb9c 	muleq	r0, ip, fp
    2170:	8e400700 	cdphi	7, 4, cr0, cr0, cr0, {0}
    2174:	01ca0000 	biceq	r0, sl, r0
    2178:	01080000 	mrseq	r0, (UNDEF: 8)
    217c:	040c0550 	streq	r0, [ip], #-1360	; 0x550
    2180:	00200030 	eoreq	r0, r0, r0, lsr r0
    2184:	065c0600 	ldrbeq	r0, [ip], -r0, lsl #12
    2188:	10010000 	andne	r0, r1, r0
    218c:	0000002c 	andeq	r0, r0, ip, lsr #32
    2190:	00008e48 	andeq	r8, r0, r8, asr #28
    2194:	0000000c 	andeq	r0, r0, ip
    2198:	00f99c01 	rscseq	r9, r9, r1, lsl #24
    219c:	75090000 	strvc	r0, [r9, #-0]
    21a0:	2c140100 	ldfcss	f0, [r4], {-0}
    21a4:	01000000 	mrseq	r0, (UNDEF: 0)
    21a8:	8e500a50 	mrchi	10, 2, r0, cr0, cr0, {2}
    21ac:	009e0000 	addseq	r0, lr, r0
    21b0:	04000000 	streq	r0, [r0], #-0
    21b4:	00000653 	andeq	r0, r0, r3, asr r6
    21b8:	8e541901 	cdphi	9, 5, cr1, cr4, cr1, {0}
    21bc:	00240000 	eoreq	r0, r4, r0
    21c0:	9c010000 	stcls	0, cr0, [r1], {-0}
    21c4:	00000157 	andeq	r0, r0, r7, asr r1
    21c8:	0073750b 	rsbseq	r7, r3, fp, lsl #10
    21cc:	002c1901 	eoreq	r1, ip, r1, lsl #18
    21d0:	12230000 	eorne	r0, r3, #0
    21d4:	72090000 	andvc	r0, r9, #0
    21d8:	1a010062 	bne	42368 <__bss_end__+0x37f20>
    21dc:	0000002c 	andeq	r0, r0, ip, lsr #32
    21e0:	640c5401 	strvs	r5, [ip], #-1025	; 0x401
    21e4:	1000008e 	andne	r0, r0, lr, lsl #1
    21e8:	4d000000 	stcmi	0, cr0, [r0, #-0]
    21ec:	0d000001 	stceq	0, cr0, [r0, #-4]
    21f0:	01006172 	tsteq	r0, r2, ror r1
    21f4:	00002c1c 	andeq	r2, r0, ip, lsl ip
    21f8:	00124100 	andseq	r4, r2, r0, lsl #2
    21fc:	8e680a00 	vmulhi.f32	s1, s16, s0
    2200:	00cb0000 	sbceq	r0, fp, r0
    2204:	0a000000 	beq	220c <_start-0x5df4>
    2208:	00008e60 	andeq	r8, r0, r0, ror #28
    220c:	000000cb 	andeq	r0, r0, fp, asr #1
    2210:	024c0400 	subeq	r0, ip, #0, 8
    2214:	22010000 	andcs	r0, r1, #0
    2218:	00008e78 	andeq	r8, r0, r8, ror lr
    221c:	00000014 	andeq	r0, r0, r4, lsl r0
    2220:	01909c01 	orrseq	r9, r0, r1, lsl #24
    2224:	6d0b0000 	stcvs	0, cr0, [fp, #-0]
    2228:	22010073 	andcs	r0, r1, #115	; 0x73
    222c:	0000002c 	andeq	r0, r0, ip, lsr #32
    2230:	00001254 	andeq	r1, r0, r4, asr r2
    2234:	008e8807 	addeq	r8, lr, r7, lsl #16
    2238:	0000f900 	andeq	pc, r0, r0, lsl #18
    223c:	50010800 	andpl	r0, r1, r0, lsl #16
    2240:	5001f307 	andpl	pc, r1, r7, lsl #6
    2244:	1e03e80a 	cdpne	8, 0, cr14, cr3, cr10, {0}
    2248:	1d040000 	stcne	0, cr0, [r4, #-0]
    224c:	01000006 	tsteq	r0, r6
    2250:	008e8c25 	addeq	r8, lr, r5, lsr #24
    2254:	00001400 	andeq	r1, r0, r0, lsl #8
    2258:	ca9c0100 	bgt	fe702660 <__bss_end__+0xfe6f8218>
    225c:	0b000001 	bleq	2268 <_start-0x5d98>
    2260:	00636573 	rsbeq	r6, r3, r3, ror r5
    2264:	002c2501 	eoreq	r2, ip, r1, lsl #10
    2268:	12750000 	rsbsne	r0, r5, #0
    226c:	9c070000 	stcls	0, cr0, [r7], {-0}
    2270:	5700008e 	strpl	r0, [r0, -lr, lsl #1]
    2274:	08000001 	stmdaeq	r0, {r0}
    2278:	f3075001 	vhadd.u8	d5, d7, d1
    227c:	e80a5001 	stmda	sl, {r0, ip, lr}
    2280:	00001e03 	andeq	r1, r0, r3, lsl #28
    2284:	00063a0e 	andeq	r3, r6, lr, lsl #20
    2288:	2ca80200 	sfmcs	f0, 4, [r8]
    228c:	0f000000 	svceq	0x00000000
    2290:	0000002c 	andeq	r0, r0, ip, lsr #32
    2294:	08820000 	stmeq	r2, {}	; <UNPREDICTABLE>
    2298:	00040000 	andeq	r0, r4, r0
    229c:	00000ba5 	andeq	r0, r0, r5, lsr #23
    22a0:	02df0104 	sbcseq	r0, pc, #4, 2
    22a4:	af010000 	svcge	0x00010000
    22a8:	4a000006 	bmi	22c8 <_start-0x5d38>
    22ac:	a0000003 	andge	r0, r0, r3
    22b0:	a000008e 	andge	r0, r0, lr, lsl #1
    22b4:	42000005 	andmi	r0, r0, #5
    22b8:	0200000a 	andeq	r0, r0, #10
    22bc:	00490708 	subeq	r0, r9, r8, lsl #14
    22c0:	04020000 	streq	r0, [r2], #-0
    22c4:	00005307 	andeq	r5, r0, r7, lsl #6
    22c8:	06010200 	streq	r0, [r1], -r0, lsl #4
    22cc:	0000022f 	andeq	r0, r0, pc, lsr #4
    22d0:	3b050202 	blcc	142ae0 <__bss_end__+0x138698>
    22d4:	02000002 	andeq	r0, r0, #2
    22d8:	00820504 	addeq	r0, r2, r4, lsl #10
    22dc:	08020000 	stmdaeq	r2, {}	; <UNPREDICTABLE>
    22e0:	00007d05 	andeq	r7, r0, r5, lsl #26
    22e4:	08010200 	stmdaeq	r1, {r9}
    22e8:	0000022d 	andeq	r0, r0, sp, lsr #4
    22ec:	84070202 	strhi	r0, [r7], #-514	; 0x202
    22f0:	02000001 	andeq	r0, r0, #1
    22f4:	004e0704 	subeq	r0, lr, r4, lsl #14
    22f8:	04030000 	streq	r0, [r3], #-0
    22fc:	746e6905 	strbtvc	r6, [lr], #-2309	; 0x905
    2300:	07040200 	streq	r0, [r4, -r0, lsl #4]
    2304:	0000021f 	andeq	r0, r0, pc, lsl r2
    2308:	36080102 	strcc	r0, [r8], -r2, lsl #2
    230c:	04000002 	streq	r0, [r0], #-2
    2310:	b20c0201 	andlt	r0, ip, #268435456	; 0x10000000
    2314:	05000000 	streq	r0, [r0, #-0]
    2318:	0000069f 	muleq	r0, pc, r6	; <UNPREDICTABLE>
    231c:	077b0500 	ldrbeq	r0, [fp, -r0, lsl #10]!
    2320:	05010000 	streq	r0, [r1, #-0]
    2324:	000007b4 			; <UNDEFINED> instruction: 0x000007b4
    2328:	07c30504 	strbeq	r0, [r3, r4, lsl #10]
    232c:	05050000 	streq	r0, [r5, #-0]
    2330:	000007d2 	ldrdeq	r0, [r0], -r2
    2334:	07e10506 	strbeq	r0, [r1, r6, lsl #10]!
    2338:	05070000 	streq	r0, [r7, #-0]
    233c:	000007f0 	strdeq	r0, [r0], -r0	; <UNPREDICTABLE>
    2340:	07ff0503 	ldrbeq	r0, [pc, r3, lsl #10]!
    2344:	00020000 	andeq	r0, r2, r0
    2348:	0007a806 	andeq	sl, r7, r6, lsl #16
    234c:	79150200 	ldmdbvc	r5, {r9}
    2350:	07000000 	streq	r0, [r0, -r0]
    2354:	00000288 	andeq	r0, r0, r8, lsl #5
    2358:	8ea03f01 	cdphi	15, 10, cr3, cr0, cr1, {0}
    235c:	00d40000 	sbcseq	r0, r4, r0
    2360:	9c010000 	stcls	0, cr0, [r1], {-0}
    2364:	00000133 	andeq	r0, r0, r3, lsr r1
    2368:	6e697008 	cdpvs	0, 6, cr7, cr9, cr8, {0}
    236c:	2c3f0100 	ldfcss	f0, [pc], #-0	; 2374 <_start-0x5c8c>
    2370:	96000000 	strls	r0, [r0], -r0
    2374:	09000012 	stmdbeq	r0, {r1, r4}
    2378:	000006cf 	andeq	r0, r0, pc, asr #13
    237c:	01334701 	teqeq	r3, r1, lsl #14
    2380:	12b40000 	adcsne	r0, r4, #0
    2384:	0e090000 	cdpeq	0, 0, cr0, cr9, cr0, {0}
    2388:	01000008 	tsteq	r0, r8
    238c:	00002c49 	andeq	r2, r0, r9, asr #24
    2390:	00130900 	andseq	r0, r3, r0, lsl #18
    2394:	07460900 	strbeq	r0, [r6, -r0, lsl #18]
    2398:	57010000 	strpl	r0, [r1, -r0]
    239c:	0000002c 	andeq	r0, r0, ip, lsr #32
    23a0:	000014d5 	ldrdeq	r1, [r0], -r5
    23a4:	008f340a 	addeq	r3, pc, sl, lsl #8
    23a8:	00084100 	andeq	r4, r8, r0, lsl #2
    23ac:	00012200 	andeq	r2, r1, r0, lsl #4
    23b0:	50010b00 	andpl	r0, r1, r0, lsl #22
    23b4:	00007502 	andeq	r7, r0, r2, lsl #10
    23b8:	008f680c 	addeq	r6, pc, ip, lsl #16
    23bc:	00086200 	andeq	r6, r8, r0, lsl #4
    23c0:	50010b00 	andpl	r0, r1, r0, lsl #22
    23c4:	00007502 	andeq	r7, r0, r2, lsl #10
    23c8:	39040d00 	stmdbcc	r4, {r8, sl, fp}
    23cc:	0e000001 	cdpeq	0, 0, cr0, cr0, cr1, {0}
    23d0:	0000002c 	andeq	r0, r0, ip, lsr #32
    23d4:	00006507 	andeq	r6, r0, r7, lsl #10
    23d8:	74600100 	strbtvc	r0, [r0], #-256	; 0x100
    23dc:	3800008f 	stmdacc	r0, {r0, r1, r2, r3, r7}
    23e0:	01000000 	mrseq	r0, (UNDEF: 0)
    23e4:	0001969c 	muleq	r1, ip, r6
    23e8:	69700800 	ldmdbvs	r0!, {fp}^
    23ec:	6001006e 	andvs	r0, r1, lr, rrx
    23f0:	0000002c 	andeq	r0, r0, ip, lsr #32
    23f4:	00001505 	andeq	r1, r0, r5, lsl #10
    23f8:	0006cf09 	andeq	ip, r6, r9, lsl #30
    23fc:	33670100 	cmncc	r7, #0, 2
    2400:	26000001 	strcs	r0, [r0], -r1
    2404:	09000015 	stmdbeq	r0, {r0, r2, r4}
    2408:	00000746 	andeq	r0, r0, r6, asr #14
    240c:	002c6801 	eoreq	r6, ip, r1, lsl #16
    2410:	155c0000 	ldrbne	r0, [ip, #-0]
    2414:	a40c0000 	strge	r0, [ip], #-0
    2418:	6200008f 	andvs	r0, r0, #143	; 0x8f
    241c:	0b000008 	bleq	2444 <_start-0x5bbc>
    2420:	31075101 	tstcc	r7, r1, lsl #2
    2424:	4f5001f3 	svcmi	0x005001f3
    2428:	0000241a 	andeq	r2, r0, sl, lsl r4
    242c:	0000c407 	andeq	ip, r0, r7, lsl #8
    2430:	ac7b0100 	ldfgee	f0, [fp], #-0
    2434:	3800008f 	stmdacc	r0, {r0, r1, r2, r3, r7}
    2438:	01000000 	mrseq	r0, (UNDEF: 0)
    243c:	0001ee9c 	muleq	r1, ip, lr
    2440:	69700800 	ldmdbvs	r0!, {fp}^
    2444:	7b01006e 	blvc	42604 <__bss_end__+0x381bc>
    2448:	0000002c 	andeq	r0, r0, ip, lsr #32
    244c:	0000159c 	muleq	r0, ip, r5
    2450:	0006cf09 	andeq	ip, r6, r9, lsl #30
    2454:	33810100 	orrcc	r0, r1, #0, 2
    2458:	bd000001 	stclt	0, cr0, [r0, #-4]
    245c:	09000015 	stmdbeq	r0, {r0, r2, r4}
    2460:	00000746 	andeq	r0, r0, r6, asr #14
    2464:	002c8201 	eoreq	r8, ip, r1, lsl #4
    2468:	15f30000 	ldrbne	r0, [r3, #0]!
    246c:	dc0c0000 	stcle	0, cr0, [ip], {-0}
    2470:	6200008f 	andvs	r0, r0, #143	; 0x8f
    2474:	0b000008 	bleq	249c <_start-0x5b64>
    2478:	31075101 	tstcc	r7, r1, lsl #2
    247c:	4f5001f3 	svcmi	0x005001f3
    2480:	0000241a 	andeq	r2, r0, sl, lsl r4
    2484:	00027407 	andeq	r7, r2, r7, lsl #8
    2488:	e4950100 	ldr	r0, [r5], #256	; 0x100
    248c:	cc00008f 	stcgt	0, cr0, [r0], {143}	; 0x8f
    2490:	01000000 	mrseq	r0, (UNDEF: 0)
    2494:	0002649c 	muleq	r2, ip, r4
    2498:	69700800 	ldmdbvs	r0!, {fp}^
    249c:	9501006e 	strls	r0, [r1, #-110]	; 0x6e
    24a0:	0000002c 	andeq	r0, r0, ip, lsr #32
    24a4:	00001633 	andeq	r1, r0, r3, lsr r6
    24a8:	0006cf09 	andeq	ip, r6, r9, lsl #30
    24ac:	339b0100 	orrscc	r0, fp, #0, 2
    24b0:	51000001 	tstpl	r0, r1
    24b4:	09000016 	stmdbeq	r0, {r1, r2, r4}
    24b8:	0000080e 	andeq	r0, r0, lr, lsl #16
    24bc:	002c9d01 	eoreq	r9, ip, r1, lsl #26
    24c0:	16a60000 	strtne	r0, [r6], r0
    24c4:	46090000 	strmi	r0, [r9], -r0
    24c8:	01000007 	tsteq	r0, r7
    24cc:	00002cab 	andeq	r2, r0, fp, lsr #25
    24d0:	00187200 	andseq	r7, r8, r0, lsl #4
    24d4:	90780a00 	rsbsls	r0, r8, r0, lsl #20
    24d8:	08410000 	stmdaeq	r1, {}^	; <UNPREDICTABLE>
    24dc:	02530000 	subseq	r0, r3, #0
    24e0:	010b0000 	mrseq	r0, (UNDEF: 11)
    24e4:	00750250 	rsbseq	r0, r5, r0, asr r2
    24e8:	90a40c00 	adcls	r0, r4, r0, lsl #24
    24ec:	08620000 	stmdaeq	r2!, {}^	; <UNPREDICTABLE>
    24f0:	010b0000 	mrseq	r0, (UNDEF: 11)
    24f4:	00750250 	rsbseq	r0, r5, r0, asr r2
    24f8:	a90f0000 	stmdbge	pc, {}	; <UNPREDICTABLE>
    24fc:	01000001 	tsteq	r0, r1
    2500:	000064b3 			; <UNDEFINED> instruction: 0x000064b3
    2504:	0090b000 	addseq	fp, r0, r0
    2508:	00004c00 	andeq	r4, r0, r0, lsl #24
    250c:	ac9c0100 	ldfges	f0, [ip], {0}
    2510:	08000002 	stmdaeq	r0, {r1}
    2514:	006e6970 	rsbeq	r6, lr, r0, ror r9
    2518:	002cb301 	eoreq	fp, ip, r1, lsl #6
    251c:	18900000 	ldmne	r0, {}	; <UNPREDICTABLE>
    2520:	76100000 	ldrvc	r0, [r0], -r0
    2524:	2cb90100 	ldfcss	f0, [r9]
    2528:	e8000000 	stmda	r0, {}	; <UNPREDICTABLE>
    252c:	11000018 	tstne	r0, r8, lsl r0
    2530:	000090d0 	ldrdeq	r9, [r0], -r0
    2534:	00000841 	andeq	r0, r0, r1, asr #16
    2538:	0090e011 	addseq	lr, r0, r1, lsl r0
    253c:	00084100 	andeq	r4, r8, r0, lsl #2
    2540:	2f070000 	svccs	0x00070000
    2544:	01000000 	mrseq	r0, (UNDEF: 0)
    2548:	0090fcc5 	addseq	pc, r0, r5, asr #25
    254c:	00002400 	andeq	r2, r0, r0, lsl #8
    2550:	fc9c0100 	ldc2	1, cr0, [ip], {0}
    2554:	08000002 	stmdaeq	r0, {r1}
    2558:	006e6970 	rsbeq	r6, lr, r0, ror r9
    255c:	002cc501 	eoreq	ip, ip, r1, lsl #10
    2560:	191e0000 	ldmdbne	lr, {}	; <UNPREDICTABLE>
    2564:	76080000 	strvc	r0, [r8], -r0
    2568:	2cc50100 	stfcse	f0, [r5], {0}
    256c:	58000000 	stmdapl	r0, {}	; <UNPREDICTABLE>
    2570:	0a000019 	beq	25dc <_start-0x5a24>
    2574:	00009114 	andeq	r9, r0, r4, lsl r1
    2578:	0000013e 	andeq	r0, r0, lr, lsr r1
    257c:	000002f2 	strdeq	r0, [r0], -r2
    2580:	0350010b 	cmpeq	r0, #-1073741822	; 0xc0000002
    2584:	005001f3 	ldrsheq	r0, [r0], #-19	; 0xffffffed
    2588:	00911c11 	addseq	r1, r1, r1, lsl ip
    258c:	00019600 	andeq	r9, r1, r0, lsl #12
    2590:	f9070000 			; <UNDEFINED> instruction: 0xf9070000
    2594:	01000006 	tsteq	r0, r6
    2598:	009120d1 	ldrsbeq	r2, [r1], r1
    259c:	0000d800 	andeq	sp, r0, r0, lsl #16
    25a0:	819c0100 	orrshi	r0, ip, r0, lsl #2
    25a4:	08000003 	stmdaeq	r0, {r0, r1}
    25a8:	006e6970 	rsbeq	r6, lr, r0, ror r9
    25ac:	002cd101 	eoreq	sp, ip, r1, lsl #2
    25b0:	19920000 	ldmibne	r2, {}	; <UNPREDICTABLE>
    25b4:	4e120000 	cdpmi	0, 1, cr0, cr2, cr0, {0}
    25b8:	01000007 	tsteq	r0, r7
    25bc:	0000b2d1 	ldrdeq	fp, [r0], -r1
    25c0:	0019b000 	andseq	fp, r9, r0
    25c4:	06cf0900 	strbeq	r0, [pc], r0, lsl #18
    25c8:	d9010000 	stmdble	r1, {}	; <UNPREDICTABLE>
    25cc:	00000133 	andeq	r0, r0, r3, lsr r1
    25d0:	000019d1 	ldrdeq	r1, [r0], -r1	; <UNPREDICTABLE>
    25d4:	00080e09 	andeq	r0, r8, r9, lsl #28
    25d8:	2cda0100 	ldfcse	f0, [sl], {0}
    25dc:	26000000 	strcs	r0, [r0], -r0
    25e0:	0900001a 	stmdbeq	r0, {r1, r3, r4}
    25e4:	00000746 	andeq	r0, r0, r6, asr #14
    25e8:	002ce801 	eoreq	lr, ip, r1, lsl #16
    25ec:	1bf20000 	blne	ffc825f4 <__bss_end__+0xffc781ac>
    25f0:	bc0a0000 	stclt	0, cr0, [sl], {-0}
    25f4:	41000091 	swpmi	r0, r1, [r0]	; <UNPREDICTABLE>
    25f8:	70000008 	andvc	r0, r0, r8
    25fc:	0b000003 	bleq	2610 <_start-0x59f0>
    2600:	76025001 	strvc	r5, [r2], -r1
    2604:	ec0c0000 	stc	0, cr0, [ip], {-0}
    2608:	62000091 	andvs	r0, r0, #145	; 0x91
    260c:	0b000008 	bleq	2634 <_start-0x59cc>
    2610:	76025001 	strvc	r5, [r2], -r1
    2614:	07000000 	streq	r0, [r0, -r0]
    2618:	00000753 	andeq	r0, r0, r3, asr r7
    261c:	91f8f101 	mvnsls	pc, r1, lsl #2
    2620:	00380000 	eorseq	r0, r8, r0
    2624:	9c010000 	stcls	0, cr0, [r1], {-0}
    2628:	000003d9 	ldrdeq	r0, [r0], -r9
    262c:	6e697008 	cdpvs	0, 6, cr7, cr9, cr8, {0}
    2630:	2cf10100 	ldfcse	f0, [r1]
    2634:	23000000 	movwcs	r0, #0
    2638:	0900001c 	stmdbeq	r0, {r2, r3, r4}
    263c:	000006cf 	andeq	r0, r0, pc, asr #13
    2640:	0133f701 	teqeq	r3, r1, lsl #14
    2644:	1c440000 	marne	acc0, r0, r4
    2648:	46090000 	strmi	r0, [r9], -r0
    264c:	01000007 	tsteq	r0, r7
    2650:	00002cf8 	strdeq	r2, [r0], -r8
    2654:	001c7a00 	andseq	r7, ip, r0, lsl #20
    2658:	92280c00 	eorls	r0, r8, #0, 24
    265c:	08620000 	stmdaeq	r2!, {}^	; <UNPREDICTABLE>
    2660:	010b0000 	mrseq	r0, (UNDEF: 11)
    2664:	f3310751 	vaba.u<illegal width 64>	q0, <illegal reg q0.5>, <illegal reg q0.5>
    2668:	1a4f5001 	bne	13d6674 <__bss_end__+0x13cc22c>
    266c:	13000024 	movwne	r0, #36	; 0x24
    2670:	00000693 	muleq	r0, r3, r6
    2674:	64011f01 	strvs	r1, [r1], #-3841	; 0xf01
    2678:	30000000 	andcc	r0, r0, r0
    267c:	2c000092 	stccs	0, cr0, [r0], {146}	; 0x92
    2680:	01000000 	mrseq	r0, (UNDEF: 0)
    2684:	00040d9c 	muleq	r4, ip, sp
    2688:	06961400 	ldreq	r1, [r6], r0, lsl #8
    268c:	1f010000 	svcne	0x00010000
    2690:	00002c01 	andeq	r2, r0, r1, lsl #24
    2694:	001cba00 	andseq	fp, ip, r0, lsl #20
    2698:	92401100 	subls	r1, r0, #0, 2
    269c:	08410000 	stmdaeq	r1, {}^	; <UNPREDICTABLE>
    26a0:	15000000 	strne	r0, [r0, #-0]
    26a4:	000006e4 	andeq	r0, r0, r4, ror #13
    26a8:	5c012e01 	stcpl	14, cr2, [r1], {1}
    26ac:	84000092 	strhi	r0, [r0], #-146	; 0x92
    26b0:	01000000 	mrseq	r0, (UNDEF: 0)
    26b4:	0004d19c 	muleq	r4, ip, r1
    26b8:	69701600 	ldmdbvs	r0!, {r9, sl, ip}^
    26bc:	2e01006e 	cdpcs	0, 0, cr0, cr1, cr14, {3}
    26c0:	00002c01 	andeq	r2, r0, r1, lsl #24
    26c4:	001cdb00 	andseq	sp, ip, r0, lsl #22
    26c8:	06bd1700 	ldrteq	r1, [sp], r0, lsl #14
    26cc:	40010000 	andmi	r0, r1, r0
    26d0:	00002c01 	andeq	r2, r0, r1, lsl #24
    26d4:	001d0700 	andseq	r0, sp, r0, lsl #14
    26d8:	92781800 	rsbsls	r1, r8, #0, 16
    26dc:	001c0000 	andseq	r0, ip, r0
    26e0:	04730000 	ldrbteq	r0, [r3], #-0
    26e4:	46170000 	ldrmi	r0, [r7], -r0
    26e8:	01000007 	tsteq	r0, r7
    26ec:	002c0137 	eoreq	r0, ip, r7, lsr r1
    26f0:	1d250000 	stcne	0, cr0, [r5, #-0]
    26f4:	84110000 	ldrhi	r0, [r1], #-0
    26f8:	41000092 	swpmi	r0, r2, [r0]	; <UNPREDICTABLE>
    26fc:	11000008 	tstne	r0, r8
    2700:	00009294 	muleq	r0, r4, r2
    2704:	00000862 	andeq	r0, r0, r2, ror #16
    2708:	92981800 	addsls	r1, r8, #0, 16
    270c:	00200000 	eoreq	r0, r0, r0
    2710:	04a30000 	strteq	r0, [r3], #0
    2714:	46170000 	ldrmi	r0, [r7], -r0
    2718:	01000007 	tsteq	r0, r7
    271c:	002c013b 	eoreq	r0, ip, fp, lsr r1
    2720:	1d430000 	stclne	0, cr0, [r3, #-0]
    2724:	a4110000 	ldrge	r0, [r1], #-0
    2728:	41000092 	swpmi	r0, r2, [r0]	; <UNPREDICTABLE>
    272c:	11000008 	tstne	r0, r8
    2730:	000092b8 			; <UNDEFINED> instruction: 0x000092b8
    2734:	00000862 	andeq	r0, r0, r2, ror #16
    2738:	92701100 	rsbsls	r1, r0, #0, 2
    273c:	087e0000 	ldmdaeq	lr!, {}^	; <UNPREDICTABLE>
    2740:	bc110000 	ldclt	0, cr0, [r1], {-0}
    2744:	7e000092 	mcrvc	0, 0, r0, cr0, cr2, {4}
    2748:	11000008 	tstne	r0, r8
    274c:	000092c8 	andeq	r9, r0, r8, asr #5
    2750:	00000841 	andeq	r0, r0, r1, asr #16
    2754:	0092d411 	addseq	sp, r2, r1, lsl r4
    2758:	00086200 	andeq	r6, r8, r0, lsl #4
    275c:	92d81100 	sbcsls	r1, r8, #0, 2
    2760:	087e0000 	ldmdaeq	lr!, {}^	; <UNPREDICTABLE>
    2764:	15000000 	strne	r0, [r0, #-0]
    2768:	00000792 	muleq	r0, r2, r7
    276c:	e0014b01 	and	r4, r1, r1, lsl #22
    2770:	84000092 	strhi	r0, [r0], #-146	; 0x92
    2774:	01000000 	mrseq	r0, (UNDEF: 0)
    2778:	0005959c 	muleq	r5, ip, r5
    277c:	69701600 	ldmdbvs	r0!, {r9, sl, ip}^
    2780:	4b01006e 	blmi	42940 <__bss_end__+0x384f8>
    2784:	00002c01 	andeq	r2, r0, r1, lsl #24
    2788:	001d6100 	andseq	r6, sp, r0, lsl #2
    278c:	06bd1700 	ldrteq	r1, [sp], r0, lsl #14
    2790:	5c010000 	stcpl	0, cr0, [r1], {-0}
    2794:	00002c01 	andeq	r2, r0, r1, lsl #24
    2798:	001d8d00 	andseq	r8, sp, r0, lsl #26
    279c:	92fc1800 	rscsls	r1, ip, #0, 16
    27a0:	001c0000 	andseq	r0, ip, r0
    27a4:	05370000 	ldreq	r0, [r7, #-0]!
    27a8:	46170000 	ldrmi	r0, [r7], -r0
    27ac:	01000007 	tsteq	r0, r7
    27b0:	002c0153 	eoreq	r0, ip, r3, asr r1
    27b4:	1dab0000 	stcne	0, cr0, [fp]
    27b8:	08110000 	ldmdaeq	r1, {}	; <UNPREDICTABLE>
    27bc:	41000093 	swpmi	r0, r3, [r0]	; <UNPREDICTABLE>
    27c0:	11000008 	tstne	r0, r8
    27c4:	00009318 	andeq	r9, r0, r8, lsl r3
    27c8:	00000862 	andeq	r0, r0, r2, ror #16
    27cc:	931c1800 	tstls	ip, #0, 16
    27d0:	00200000 	eoreq	r0, r0, r0
    27d4:	05670000 	strbeq	r0, [r7, #-0]!
    27d8:	46170000 	ldrmi	r0, [r7], -r0
    27dc:	01000007 	tsteq	r0, r7
    27e0:	002c0157 	eoreq	r0, ip, r7, asr r1
    27e4:	1dc90000 	stclne	0, cr0, [r9]
    27e8:	28110000 	ldmdacs	r1, {}	; <UNPREDICTABLE>
    27ec:	41000093 	swpmi	r0, r3, [r0]	; <UNPREDICTABLE>
    27f0:	11000008 	tstne	r0, r8
    27f4:	0000933c 	andeq	r9, r0, ip, lsr r3
    27f8:	00000862 	andeq	r0, r0, r2, ror #16
    27fc:	92f41100 	rscsls	r1, r4, #0, 2
    2800:	087e0000 	ldmdaeq	lr!, {}^	; <UNPREDICTABLE>
    2804:	40110000 	andsmi	r0, r1, r0
    2808:	7e000093 	mcrvc	0, 0, r0, cr0, cr3, {4}
    280c:	11000008 	tstne	r0, r8
    2810:	0000934c 	andeq	r9, r0, ip, asr #6
    2814:	00000841 	andeq	r0, r0, r1, asr #16
    2818:	00935811 	addseq	r5, r3, r1, lsl r8
    281c:	00086200 	andeq	r6, r8, r0, lsl #4
    2820:	935c1100 	cmpls	ip, #0, 2
    2824:	087e0000 	ldmdaeq	lr!, {}^	; <UNPREDICTABLE>
    2828:	13000000 	movwne	r0, #0
    282c:	0000066b 	andeq	r0, r0, fp, ror #12
    2830:	64016601 	strvs	r6, [r1], #-1537	; 0x601
    2834:	64000000 	strvs	r0, [r0], #-0
    2838:	84000093 	strhi	r0, [r0], #-147	; 0x93
    283c:	01000000 	mrseq	r0, (UNDEF: 0)
    2840:	00063b9c 	muleq	r6, ip, fp
    2844:	69701600 	ldmdbvs	r0!, {r9, sl, ip}^
    2848:	6601006e 	strvs	r0, [r1], -lr, rrx
    284c:	00002c01 	andeq	r2, r0, r1, lsl #24
    2850:	001de700 	andseq	lr, sp, r0, lsl #14
    2854:	93801800 	orrls	r1, r0, #0, 16
    2858:	00240000 	eoreq	r0, r4, r0
    285c:	05ef0000 	strbeq	r0, [pc, #0]!	; 2864 <_start-0x579c>
    2860:	c6170000 	ldrgt	r0, [r7], -r0
    2864:	01000006 	tsteq	r0, r6
    2868:	002c016d 	eoreq	r0, ip, sp, ror #2
    286c:	1e290000 	cdpne	0, 2, cr0, cr9, cr0, {0}
    2870:	8c110000 	ldchi	0, cr0, [r1], {-0}
    2874:	41000093 	swpmi	r0, r3, [r0]	; <UNPREDICTABLE>
    2878:	11000008 	tstne	r0, r8
    287c:	0000939c 	muleq	r0, ip, r3
    2880:	0000087e 	andeq	r0, r0, lr, ror r8
    2884:	93a41800 			; <UNDEFINED> instruction: 0x93a41800
    2888:	002c0000 	eoreq	r0, ip, r0
    288c:	06280000 	strteq	r0, [r8], -r0
    2890:	c6170000 	ldrgt	r0, [r7], -r0
    2894:	01000006 	tsteq	r0, r6
    2898:	002c0170 	eoreq	r0, ip, r0, ror r1
    289c:	1e430000 	cdpne	0, 4, cr0, cr3, cr0, {0}
    28a0:	b0110000 	andslt	r0, r1, r0
    28a4:	41000093 	swpmi	r0, r3, [r0]	; <UNPREDICTABLE>
    28a8:	11000008 	tstne	r0, r8
    28ac:	000093bc 			; <UNDEFINED> instruction: 0x000093bc
    28b0:	0000087e 	andeq	r0, r0, lr, ror r8
    28b4:	0093c811 	addseq	ip, r3, r1, lsl r8
    28b8:	00087e00 	andeq	r7, r8, r0, lsl #28
    28bc:	78110000 	ldmdavc	r1, {}	; <UNPREDICTABLE>
    28c0:	7e000093 	mcrvc	0, 0, r0, cr0, cr3, {4}
    28c4:	11000008 	tstne	r0, r8
    28c8:	000093d4 	ldrdeq	r9, [r0], -r4
    28cc:	0000087e 	andeq	r0, r0, lr, ror r8
    28d0:	07191500 	ldreq	r1, [r9, -r0, lsl #10]
    28d4:	79010000 	stmdbvc	r1, {}	; <UNPREDICTABLE>
    28d8:	0093e801 	addseq	lr, r3, r1, lsl #16
    28dc:	00005800 	andeq	r5, r0, r0, lsl #16
    28e0:	a09c0100 	addsge	r0, ip, r0, lsl #2
    28e4:	16000006 	strne	r0, [r0], -r6
    28e8:	006e6970 	rsbeq	r6, lr, r0, ror r9
    28ec:	2c017901 	stccs	9, cr7, [r1], {1}
    28f0:	56000000 	strpl	r0, [r0], -r0
    28f4:	1100001e 	tstne	r0, lr, lsl r0
    28f8:	000093fc 	strdeq	r9, [r0], -ip
    28fc:	0000087e 	andeq	r0, r0, lr, ror r8
    2900:	0094180a 	addseq	r1, r4, sl, lsl #16
    2904:	00086200 	andeq	r6, r8, r0, lsl #4
    2908:	00068000 	andeq	r8, r6, r0
    290c:	51010b00 	tstpl	r1, r0, lsl #22
    2910:	00743104 	rsbseq	r3, r4, r4, lsl #2
    2914:	340a0024 	strcc	r0, [sl], #-36	; 0x24
    2918:	62000094 	andvs	r0, r0, #148	; 0x94
    291c:	96000008 	strls	r0, [r0], -r8
    2920:	0b000006 	bleq	2940 <_start-0x56c0>
    2924:	31045101 	tstcc	r4, r1, lsl #2
    2928:	00240074 	eoreq	r0, r4, r4, ror r0
    292c:	00943811 	addseq	r3, r4, r1, lsl r8
    2930:	00087e00 	andeq	r7, r8, r0, lsl #28
    2934:	97190000 	ldrls	r0, [r9, -r0]
    2938:	01000001 	tsteq	r0, r1
    293c:	00013328 	andeq	r3, r1, r8, lsr #6
    2940:	34030500 	strcc	r0, [r3], #-1280	; 0x500
    2944:	1900009d 	stmdbne	r0, {r0, r2, r3, r4, r7}
    2948:	00000264 	andeq	r0, r0, r4, ror #4
    294c:	01332901 	teqeq	r3, r1, lsl #18
    2950:	03050000 	movweq	r0, #20480	; 0x5000
    2954:	00009d30 	andeq	r9, r0, r0, lsr sp
    2958:	0002b819 	andeq	fp, r2, r9, lsl r8
    295c:	332a0100 	teqcc	sl, #0, 2
    2960:	05000001 	streq	r0, [r0, #-1]
    2964:	009d2c03 	addseq	r2, sp, r3, lsl #24
    2968:	01431900 	cmpeq	r3, r0, lsl #18
    296c:	2c010000 	stccs	0, cr0, [r1], {-0}
    2970:	00000133 	andeq	r0, r0, r3, lsr r1
    2974:	9cd80305 	ldclls	3, cr0, [r8], {5}
    2978:	4b190000 	blmi	642980 <__bss_end__+0x638538>
    297c:	01000001 	tsteq	r0, r1
    2980:	0001332d 	andeq	r3, r1, sp, lsr #6
    2984:	dc030500 	cfstr32le	mvfx0, [r3], {-0}
    2988:	1900009c 	stmdbne	r0, {r2, r3, r4, r7}
    298c:	00000006 	andeq	r0, r0, r6
    2990:	01332e01 	teqeq	r3, r1, lsl #28
    2994:	03050000 	movweq	r0, #20480	; 0x5000
    2998:	00009ce0 	andeq	r9, r0, r0, ror #25
    299c:	00015319 	andeq	r5, r1, r9, lsl r3
    29a0:	332f0100 	teqcc	pc, #0, 2
    29a4:	05000001 	streq	r0, [r0, #-1]
    29a8:	009ce403 	addseq	lr, ip, r3, lsl #8
    29ac:	000e1900 	andeq	r1, lr, r0, lsl #18
    29b0:	30010000 	andcc	r0, r1, r0
    29b4:	00000133 	andeq	r0, r0, r3, lsr r1
    29b8:	9ce80305 	stclls	3, cr0, [r8], #20
    29bc:	64190000 	ldrvs	r0, [r9], #-0
    29c0:	01000001 	tsteq	r0, r1
    29c4:	00013331 	andeq	r3, r1, r1, lsr r3
    29c8:	ec030500 	cfstr32	mvfx0, [r3], {-0}
    29cc:	1900009c 	stmdbne	r0, {r2, r3, r4, r7}
    29d0:	00000092 	muleq	r0, r2, r0
    29d4:	01333301 	teqeq	r3, r1, lsl #6
    29d8:	03050000 	movweq	r0, #20480	; 0x5000
    29dc:	00009cf0 	strdeq	r9, [r0], -r0
    29e0:	00009919 	andeq	r9, r0, r9, lsl r9
    29e4:	33340100 	teqcc	r4, #0, 2
    29e8:	05000001 	streq	r0, [r0, #-1]
    29ec:	009cf403 	addseq	pc, ip, r3, lsl #8
    29f0:	02451900 	subeq	r1, r5, #0, 18
    29f4:	36010000 	strcc	r0, [r1], -r0
    29f8:	00000133 	andeq	r0, r0, r3, lsr r1
    29fc:	9cf80305 	ldclls	3, cr0, [r8], #20
    2a00:	a2190000 	andsge	r0, r9, #0
    2a04:	01000001 	tsteq	r0, r1
    2a08:	00013337 	andeq	r3, r1, r7, lsr r3
    2a0c:	fc030500 	stc2	5, cr0, [r3], {-0}
    2a10:	1900009c 	stmdbne	r0, {r2, r3, r4, r7}
    2a14:	000000a0 	andeq	r0, r0, r0, lsr #1
    2a18:	01333901 	teqeq	r3, r1, lsl #18
    2a1c:	03050000 	movweq	r0, #20480	; 0x5000
    2a20:	00009d00 	andeq	r9, r0, r0, lsl #26
    2a24:	0000a719 	andeq	sl, r0, r9, lsl r7
    2a28:	333a0100 	teqcc	sl, #0, 2
    2a2c:	05000001 	streq	r0, [r0, #-1]
    2a30:	009d0403 	addseq	r0, sp, r3, lsl #8
    2a34:	072a1a00 	streq	r1, [sl, -r0, lsl #20]!
    2a38:	0a010000 	beq	42a40 <__bss_end__+0x385f8>
    2a3c:	00013301 	andeq	r3, r1, r1, lsl #6
    2a40:	28030500 	stmdacs	r3, {r8, sl}
    2a44:	1a00009d 	bne	2cc0 <_start-0x5340>
    2a48:	00000738 	andeq	r0, r0, r8, lsr r7
    2a4c:	33010b01 	movwcc	r0, #6913	; 0x1b01
    2a50:	05000001 	streq	r0, [r0, #-1]
    2a54:	009d0803 	addseq	r0, sp, r3, lsl #16
    2a58:	075f1a00 	ldrbeq	r1, [pc, -r0, lsl #20]
    2a5c:	0d010000 	stceq	0, cr0, [r1, #-0]
    2a60:	00013301 	andeq	r3, r1, r1, lsl #6
    2a64:	20030500 	andcs	r0, r3, r0, lsl #10
    2a68:	1a00009d 	bne	2ce4 <_start-0x531c>
    2a6c:	00000766 	andeq	r0, r0, r6, ror #14
    2a70:	33010e01 	movwcc	r0, #7681	; 0x1e01
    2a74:	05000001 	streq	r0, [r0, #-1]
    2a78:	009d2403 	addseq	r2, sp, r3, lsl #8
    2a7c:	070b1a00 	streq	r1, [fp, -r0, lsl #20]
    2a80:	10010000 	andne	r0, r1, r0
    2a84:	00013301 	andeq	r3, r1, r1, lsl #6
    2a88:	0c030500 	cfstr32eq	mvfx0, [r3], {-0}
    2a8c:	1a00009d 	bne	2d08 <_start-0x52f8>
    2a90:	00000712 	andeq	r0, r0, r2, lsl r7
    2a94:	33011101 	movwcc	r1, #4353	; 0x1101
    2a98:	05000001 	streq	r0, [r0, #-1]
    2a9c:	009d1003 	addseq	r1, sp, r3
    2aa0:	076d1a00 	strbeq	r1, [sp, -r0, lsl #20]!
    2aa4:	13010000 	movwne	r0, #4096	; 0x1000
    2aa8:	00013301 	andeq	r3, r1, r1, lsl #6
    2aac:	18030500 	stmdane	r3, {r8, sl}
    2ab0:	1a00009d 	bne	2d2c <_start-0x52d4>
    2ab4:	00000774 	andeq	r0, r0, r4, ror r7
    2ab8:	33011401 	movwcc	r1, #5121	; 0x1401
    2abc:	05000001 	streq	r0, [r0, #-1]
    2ac0:	009d1c03 	addseq	r1, sp, r3, lsl #24
    2ac4:	06851a00 	streq	r1, [r5], r0, lsl #20
    2ac8:	16010000 	strne	r0, [r1], -r0
    2acc:	00013301 	andeq	r3, r1, r1, lsl #6
    2ad0:	14030500 	strne	r0, [r3], #-1280	; 0x500
    2ad4:	1b00009d 	blne	2d50 <_start-0x52b0>
    2ad8:	0000078c 	andeq	r0, r0, ip, lsl #15
    2adc:	002c2001 	eoreq	r2, ip, r1
    2ae0:	08560000 	ldmdaeq	r6, {}^	; <UNPREDICTABLE>
    2ae4:	561c0000 	ldrpl	r0, [ip], -r0
    2ae8:	00000008 	andeq	r0, r0, r8
    2aec:	085c040d 	ldmdaeq	ip, {r0, r2, r3, sl}^
    2af0:	611d0000 	tstvs	sp, r0
    2af4:	1e000008 	cdpne	0, 0, cr0, cr0, cr8, {0}
    2af8:	00067f1f 	andeq	r7, r6, pc, lsl pc
    2afc:	781e0100 	ldmdavc	lr, {r8}
    2b00:	1c000008 	stcne	0, cr0, [r0], {8}
    2b04:	00000878 	andeq	r0, r0, r8, ror r8
    2b08:	00002c1c 	andeq	r2, r0, ip, lsl ip
    2b0c:	040d0000 	streq	r0, [sp], #-0
    2b10:	00000861 	andeq	r0, r0, r1, ror #16
    2b14:	0006d820 	andeq	sp, r6, r0, lsr #16
    2b18:	008a0300 	addeq	r0, sl, r0, lsl #6
    2b1c:	000011f2 	strdeq	r1, [r0], -r2
    2b20:	0d7f0004 	ldcleq	0, cr0, [pc, #-16]!	; 2b18 <_start-0x54e8>
    2b24:	01040000 	mrseq	r0, (UNDEF: 4)
    2b28:	000002df 	ldrdeq	r0, [r0], -pc	; <UNPREDICTABLE>
    2b2c:	0008ae01 	andeq	sl, r8, r1, lsl #28
    2b30:	00034a00 	andeq	r4, r3, r0, lsl #20
    2b34:	00944000 	addseq	r4, r4, r0
    2b38:	00066800 	andeq	r6, r6, r0, lsl #16
    2b3c:	000bc500 	andeq	ip, fp, r0, lsl #10
    2b40:	05040200 	streq	r0, [r4, #-512]	; 0x200
    2b44:	00746e69 	rsbseq	r6, r4, r9, ror #28
    2b48:	53070403 	movwpl	r0, #29699	; 0x7403
    2b4c:	03000000 	movweq	r0, #0
    2b50:	022f0601 	eoreq	r0, pc, #1048576	; 0x100000
    2b54:	02030000 	andeq	r0, r3, #0
    2b58:	00023b05 	andeq	r3, r2, r5, lsl #22
    2b5c:	05040300 	streq	r0, [r4, #-768]	; 0x300
    2b60:	00000082 	andeq	r0, r0, r2, lsl #1
    2b64:	7d050803 	stcvc	8, cr0, [r5, #-12]
    2b68:	04000000 	streq	r0, [r0], #-0
    2b6c:	000002a5 	andeq	r0, r0, r5, lsr #5
    2b70:	005a2e03 	subseq	r2, sl, r3, lsl #28
    2b74:	01030000 	mrseq	r0, (UNDEF: 3)
    2b78:	00022d08 	andeq	r2, r2, r8, lsl #26
    2b7c:	07020300 	streq	r0, [r2, -r0, lsl #6]
    2b80:	00000184 	andeq	r0, r0, r4, lsl #3
    2b84:	00058a04 	andeq	r8, r5, r4, lsl #20
    2b88:	73340300 	teqvc	r4, #0, 6
    2b8c:	03000000 	movweq	r0, #0
    2b90:	004e0704 	subeq	r0, lr, r4, lsl #14
    2b94:	08030000 	stmdaeq	r3, {}	; <UNPREDICTABLE>
    2b98:	00004907 	andeq	r4, r0, r7, lsl #18
    2b9c:	07040300 	streq	r0, [r4, -r0, lsl #6]
    2ba0:	0000021f 	andeq	r0, r0, pc, lsl r2
    2ba4:	04060405 	streq	r0, [r6], #-1029	; 0x405
    2ba8:	00000090 	muleq	r0, r0, r0
    2bac:	36080103 	strcc	r0, [r8], -r3, lsl #2
    2bb0:	06000002 	streq	r0, [r0], -r2
    2bb4:	00009d04 	andeq	r9, r0, r4, lsl #26
    2bb8:	00900700 	addseq	r0, r0, r0, lsl #14
    2bbc:	0c080000 	stceq	0, cr0, [r8], {-0}
    2bc0:	00d90e04 	sbcseq	r0, r9, r4, lsl #28
    2bc4:	74090000 	strvc	r0, [r9], #-0
    2bc8:	0f040078 	svceq	0x00040078
    2bcc:	0000004f 	andeq	r0, r0, pc, asr #32
    2bd0:	78720900 	ldmdavc	r2!, {r8, fp}^
    2bd4:	4f0f0400 	svcmi	0x000f0400
    2bd8:	01000000 	mrseq	r0, (UNDEF: 0)
    2bdc:	0005090a 	andeq	r0, r5, sl, lsl #18
    2be0:	68100400 	ldmdavs	r0, {sl}
    2be4:	04000000 	streq	r0, [r0], #-0
    2be8:	0004ba0a 	andeq	fp, r4, sl, lsl #20
    2bec:	68110400 	ldmdavs	r1, {sl}
    2bf0:	08000000 	stmdaeq	r0, {}	; <UNPREDICTABLE>
    2bf4:	04f20400 	ldrbteq	r0, [r2], #1024	; 0x400
    2bf8:	12040000 	andne	r0, r4, #0
    2bfc:	000000a2 	andeq	r0, r0, r2, lsr #1
    2c00:	0002c204 	andeq	ip, r2, r4, lsl #4
    2c04:	ef280500 	svc	0x00280500
    2c08:	0b000000 	bleq	2c10 <_start-0x53f0>
    2c0c:	00000340 	andeq	r0, r0, r0, asr #6
    2c10:	06000904 	streq	r0, [r0], -r4, lsl #18
    2c14:	0c000001 	stceq	0, cr0, [r0], {1}
    2c18:	00000393 	muleq	r0, r3, r3
    2c1c:	00000088 	andeq	r0, r0, r8, lsl #1
    2c20:	42040000 	andmi	r0, r4, #0
    2c24:	05000003 	streq	r0, [r0, #-3]
    2c28:	0000e462 	andeq	lr, r0, r2, ror #8
    2c2c:	08720d00 	ldmdaeq	r2!, {r8, sl, fp}^
    2c30:	09020000 	stmdbeq	r2, {}	; <UNPREDICTABLE>
    2c34:	00013f03 	andeq	r3, r1, r3, lsl #30
    2c38:	051d0e00 	ldreq	r0, [sp, #-3584]	; 0xe00
    2c3c:	09020000 	stmdbeq	r2, {}	; <UNPREDICTABLE>
    2c40:	0000002c 	andeq	r0, r0, ip, lsr #32
    2c44:	02006e0f 	andeq	r6, r0, #15, 28	; 0xf0
    2c48:	00002c09 	andeq	r2, r0, r9, lsl #24
    2c4c:	28111000 	ldmdacs	r1, {ip}
    2c50:	02000002 	andeq	r0, r0, #2
    2c54:	00002c0c 	andeq	r2, r0, ip, lsl #24
    2c58:	0d000000 	stceq	0, cr0, [r0, #-0]
    2c5c:	00000825 	andeq	r0, r0, r5, lsr #16
    2c60:	76031702 	strvc	r1, [r3], -r2, lsl #14
    2c64:	0f000001 	svceq	0x00000001
    2c68:	006e6970 	rsbeq	r6, lr, r0, ror r9
    2c6c:	002c1702 	eoreq	r1, ip, r2, lsl #14
    2c70:	760f0000 	strvc	r0, [pc], -r0
    2c74:	2c170200 	lfmcs	f0, 4, [r7], {-0}
    2c78:	0e000000 	cdpeq	0, 0, cr0, cr0, cr0, {0}
    2c7c:	0000051d 	andeq	r0, r0, sp, lsl r5
    2c80:	002c1702 	eoreq	r1, ip, r2, lsl #14
    2c84:	780e0000 	stmdavc	lr, {}	; <UNPREDICTABLE>
    2c88:	02000008 	andeq	r0, r0, #8
    2c8c:	00002c17 	andeq	r2, r0, r7, lsl ip
    2c90:	2e120000 	cdpcs	0, 1, cr0, cr2, cr0, {0}
    2c94:	01000005 	tsteq	r0, r5
    2c98:	00944009 	addseq	r4, r4, r9
    2c9c:	00015400 	andeq	r5, r1, r0, lsl #8
    2ca0:	229c0100 	addscs	r0, ip, #0, 2
    2ca4:	13000007 	movwne	r0, #7
    2ca8:	000004d0 	ldrdeq	r0, [r0], -r0	; <UNPREDICTABLE>
    2cac:	07220901 	streq	r0, [r2, -r1, lsl #18]!
    2cb0:	1e820000 	cdpne	0, 8, cr0, cr2, cr0, {0}
    2cb4:	63140000 	tstvs	r4, #0
    2cb8:	5a090100 	bpl	2430c0 <__bss_end__+0x238c78>
    2cbc:	a3000000 	movwge	r0, #0
    2cc0:	1500001e 	strne	r0, [r0, #-30]
    2cc4:	01007874 	tsteq	r0, r4, ror r8
    2cc8:	0000250b 	andeq	r2, r0, fp, lsl #10
    2ccc:	00760600 	rsbseq	r0, r6, r0, lsl #12
    2cd0:	9f1aff08 	svcls	0x001aff08
    2cd4:	01006e16 	tsteq	r0, r6, lsl lr
    2cd8:	0000680c 	andeq	r6, r0, ip, lsl #16
    2cdc:	001ec400 	andseq	ip, lr, r0, lsl #8
    2ce0:	00751600 	rsbseq	r1, r5, r0, lsl #12
    2ce4:	00680d01 	rsbeq	r0, r8, r1, lsl #26
    2ce8:	1ed70000 	cdpne	0, 13, cr0, cr7, cr0, {0}
    2cec:	73150000 	tstvc	r5, #0
    2cf0:	680e0100 	stmdavs	lr, {r8}
    2cf4:	01000000 	mrseq	r0, (UNDEF: 0)
    2cf8:	94501754 	ldrbls	r1, [r0], #-1876	; 0x754
    2cfc:	00040000 	andeq	r0, r4, r0
    2d00:	01f80000 	mvnseq	r0, r0
    2d04:	28180000 	ldmdacs	r8, {}	; <UNPREDICTABLE>
    2d08:	01000002 	tsteq	r0, r2
    2d0c:	00002c0e 	andeq	r2, r0, lr, lsl #24
    2d10:	00540100 	subseq	r0, r4, r0, lsl #2
    2d14:	00013f19 	andeq	r3, r1, r9, lsl pc
    2d18:	00945400 	addseq	r5, r4, r0, lsl #8
    2d1c:	00001c00 	andeq	r1, r0, r0, lsl #24
    2d20:	75110100 	ldrvc	r0, [r1, #-256]	; 0x100
    2d24:	1a000002 	bne	2d34 <_start-0x52cc>
    2d28:	0000016a 	andeq	r0, r0, sl, ror #2
    2d2c:	00001f00 	andeq	r1, r0, r0, lsl #30
    2d30:	00015f1b 	andeq	r5, r1, fp, lsl pc
    2d34:	1c540100 	ldfnee	f0, [r4], {-0}
    2d38:	00000156 	andeq	r0, r0, r6, asr r1
    2d3c:	014b1b00 	cmpeq	fp, r0, lsl #22
    2d40:	56010000 	strpl	r0, [r1], -r0
    2d44:	00011119 	andeq	r1, r1, r9, lsl r1
    2d48:	00946000 	addseq	r6, r4, r0
    2d4c:	00001000 	andeq	r1, r0, r0
    2d50:	5f1a0200 	svcpl	0x001a0200
    2d54:	1a000002 	bne	2d64 <_start-0x529c>
    2d58:	00000128 	andeq	r0, r0, r8, lsr #2
    2d5c:	00001f13 	andeq	r1, r0, r3, lsl pc
    2d60:	00011d1b 	andeq	r1, r1, fp, lsl sp
    2d64:	1d540100 	ldfnee	f0, [r4, #-0]
    2d68:	00009460 	andeq	r9, r0, r0, ror #8
    2d6c:	00000004 	andeq	r0, r0, r4
    2d70:	0001321e 	andeq	r3, r1, lr, lsl r2
    2d74:	001f2600 	andseq	r2, pc, r0, lsl #12
    2d78:	1f000000 	svcne	0x00000000
    2d7c:	00009460 	andeq	r9, r0, r0, ror #8
    2d80:	00001159 	andeq	r1, r0, r9, asr r1
    2d84:	01510120 	cmpeq	r1, r0, lsr #2
    2d88:	50012030 	andpl	r2, r1, r0, lsr r0
    2d8c:	00007602 	andeq	r7, r0, r2, lsl #12
    2d90:	013f1900 	teqeq	pc, r0, lsl #18
    2d94:	94740000 	ldrbtls	r0, [r4], #-0
    2d98:	001c0000 	andseq	r0, ip, r0
    2d9c:	13010000 	movwne	r0, #4096	; 0x1000
    2da0:	000002f8 	strdeq	r0, [r0], -r8
    2da4:	00016a1a 	andeq	r6, r1, sl, lsl sl
    2da8:	001f3900 	andseq	r3, pc, r0, lsl #18
    2dac:	015f1b00 	cmpeq	pc, r0, lsl #22
    2db0:	54010000 	strpl	r0, [r1], #-0
    2db4:	0001561a 	andeq	r5, r1, sl, lsl r6
    2db8:	001f5b00 	andseq	r5, pc, r0, lsl #22
    2dbc:	014b1b00 	cmpeq	fp, r0, lsl #22
    2dc0:	56010000 	strpl	r0, [r1], -r0
    2dc4:	00011119 	andeq	r1, r1, r9, lsl r1
    2dc8:	00948000 	addseq	r8, r4, r0
    2dcc:	00001000 	andeq	r1, r0, r0
    2dd0:	df1a0200 	svcle	0x001a0200
    2dd4:	1a000002 	bne	2de4 <_start-0x521c>
    2dd8:	00000128 	andeq	r0, r0, r8, lsr #2
    2ddc:	00001f8c 	andeq	r1, r0, ip, lsl #31
    2de0:	00011d1b 	andeq	r1, r1, fp, lsl sp
    2de4:	1d540100 	ldfnee	f0, [r4, #-0]
    2de8:	00009480 	andeq	r9, r0, r0, lsl #9
    2dec:	00000004 	andeq	r0, r0, r4
    2df0:	0001321e 	andeq	r3, r1, lr, lsl r2
    2df4:	001fae00 	andseq	sl, pc, r0, lsl #28
    2df8:	1f000000 	svcne	0x00000000
    2dfc:	00009480 	andeq	r9, r0, r0, lsl #9
    2e00:	00001159 	andeq	r1, r0, r9, asr r1
    2e04:	04510120 	ldrbeq	r0, [r1], #-288	; 0x120
    2e08:	1a310077 	bne	c42fec <__bss_end__+0xc38ba4>
    2e0c:	02500120 	subseq	r0, r0, #32, 2
    2e10:	00000076 	andeq	r0, r0, r6, ror r0
    2e14:	00013f19 	andeq	r3, r1, r9, lsl pc
    2e18:	00949400 	addseq	r9, r4, r0, lsl #8
    2e1c:	00001c00 	andeq	r1, r0, r0, lsl #24
    2e20:	80150100 	andshi	r0, r5, r0, lsl #2
    2e24:	1a000003 	bne	2e38 <_start-0x51c8>
    2e28:	0000016a 	andeq	r0, r0, sl, ror #2
    2e2c:	00001fc1 	andeq	r1, r0, r1, asr #31
    2e30:	00015f1b 	andeq	r5, r1, fp, lsl pc
    2e34:	1b540100 	blne	150323c <__bss_end__+0x14f8df4>
    2e38:	00000156 	andeq	r0, r0, r6, asr r1
    2e3c:	32007708 	andcc	r7, r0, #8, 14	; 0x200000
    2e40:	1aff081a 	bne	fffc4eb0 <__bss_end__+0xfffbaa68>
    2e44:	014b1b9f 			; <UNDEFINED> instruction: 0x014b1b9f
    2e48:	56010000 	strpl	r0, [r1], -r0
    2e4c:	00011119 	andeq	r1, r1, r9, lsl r1
    2e50:	0094a000 	addseq	sl, r4, r0
    2e54:	00001000 	andeq	r1, r0, r0
    2e58:	671a0200 	ldrvs	r0, [sl, -r0, lsl #4]
    2e5c:	1a000003 	bne	2e70 <_start-0x5190>
    2e60:	00000128 	andeq	r0, r0, r8, lsr #2
    2e64:	00001fe6 	andeq	r1, r0, r6, ror #31
    2e68:	00011d1b 	andeq	r1, r1, fp, lsl sp
    2e6c:	1d540100 	ldfnee	f0, [r4, #-0]
    2e70:	000094a0 	andeq	r9, r0, r0, lsr #9
    2e74:	00000004 	andeq	r0, r0, r4
    2e78:	0001321e 	andeq	r3, r1, lr, lsl r2
    2e7c:	00200b00 	eoreq	r0, r0, r0, lsl #22
    2e80:	1f000000 	svcne	0x00000000
    2e84:	000094a0 	andeq	r9, r0, r0, lsr #9
    2e88:	00001159 	andeq	r1, r0, r9, asr r1
    2e8c:	04510120 	ldrbeq	r0, [r1], #-288	; 0x120
    2e90:	1a320077 	bne	c83074 <__bss_end__+0xc78c2c>
    2e94:	02500120 	subseq	r0, r0, #32, 2
    2e98:	00000076 	andeq	r0, r0, r6, ror r0
    2e9c:	00013f19 	andeq	r3, r1, r9, lsl pc
    2ea0:	0094b400 	addseq	fp, r4, r0, lsl #8
    2ea4:	00001c00 	andeq	r1, r0, r0, lsl #24
    2ea8:	08170100 	ldmdaeq	r7, {r8}
    2eac:	1a000004 	bne	2ec4 <_start-0x513c>
    2eb0:	0000016a 	andeq	r0, r0, sl, ror #2
    2eb4:	0000201e 	andeq	r2, r0, lr, lsl r0
    2eb8:	00015f1b 	andeq	r5, r1, fp, lsl pc
    2ebc:	1b540100 	blne	15032c4 <__bss_end__+0x14f8e7c>
    2ec0:	00000156 	andeq	r0, r0, r6, asr r1
    2ec4:	34007708 	strcc	r7, [r0], #-1800	; 0x708
    2ec8:	1aff081a 	bne	fffc4f38 <__bss_end__+0xfffbaaf0>
    2ecc:	014b1b9f 			; <UNDEFINED> instruction: 0x014b1b9f
    2ed0:	56010000 	strpl	r0, [r1], -r0
    2ed4:	00011119 	andeq	r1, r1, r9, lsl r1
    2ed8:	0094c000 	addseq	ip, r4, r0
    2edc:	00001000 	andeq	r1, r0, r0
    2ee0:	ef1a0200 	svc	0x001a0200
    2ee4:	1a000003 	bne	2ef8 <_start-0x5108>
    2ee8:	00000128 	andeq	r0, r0, r8, lsr #2
    2eec:	00002040 	andeq	r2, r0, r0, asr #32
    2ef0:	00011d1b 	andeq	r1, r1, fp, lsl sp
    2ef4:	1d540100 	ldfnee	f0, [r4, #-0]
    2ef8:	000094c0 	andeq	r9, r0, r0, asr #9
    2efc:	00000004 	andeq	r0, r0, r4
    2f00:	0001321e 	andeq	r3, r1, lr, lsl r2
    2f04:	00206200 	eoreq	r6, r0, r0, lsl #4
    2f08:	1f000000 	svcne	0x00000000
    2f0c:	000094c0 	andeq	r9, r0, r0, asr #9
    2f10:	00001159 	andeq	r1, r0, r9, asr r1
    2f14:	04510120 	ldrbeq	r0, [r1], #-288	; 0x120
    2f18:	1a340077 	bne	d030fc <__bss_end__+0xcf8cb4>
    2f1c:	02500120 	subseq	r0, r0, #32, 2
    2f20:	00000076 	andeq	r0, r0, r6, ror r0
    2f24:	00013f19 	andeq	r3, r1, r9, lsl pc
    2f28:	0094d400 	addseq	sp, r4, r0, lsl #8
    2f2c:	00001c00 	andeq	r1, r0, r0, lsl #24
    2f30:	90190100 	andsls	r0, r9, r0, lsl #2
    2f34:	1a000004 	bne	2f4c <_start-0x50b4>
    2f38:	0000016a 	andeq	r0, r0, sl, ror #2
    2f3c:	00002075 	andeq	r2, r0, r5, ror r0
    2f40:	00015f1b 	andeq	r5, r1, fp, lsl pc
    2f44:	1b540100 	blne	150334c <__bss_end__+0x14f8f04>
    2f48:	00000156 	andeq	r0, r0, r6, asr r1
    2f4c:	38007708 	stmdacc	r0, {r3, r8, r9, sl, ip, sp, lr}
    2f50:	1aff081a 	bne	fffc4fc0 <__bss_end__+0xfffbab78>
    2f54:	014b1b9f 			; <UNDEFINED> instruction: 0x014b1b9f
    2f58:	56010000 	strpl	r0, [r1], -r0
    2f5c:	00011119 	andeq	r1, r1, r9, lsl r1
    2f60:	0094e000 	addseq	lr, r4, r0
    2f64:	00001000 	andeq	r1, r0, r0
    2f68:	771a0200 	ldrvc	r0, [sl, -r0, lsl #4]
    2f6c:	1a000004 	bne	2f84 <_start-0x507c>
    2f70:	00000128 	andeq	r0, r0, r8, lsr #2
    2f74:	0000209a 	muleq	r0, sl, r0
    2f78:	00011d1b 	andeq	r1, r1, fp, lsl sp
    2f7c:	1d540100 	ldfnee	f0, [r4, #-0]
    2f80:	000094e0 	andeq	r9, r0, r0, ror #9
    2f84:	00000004 	andeq	r0, r0, r4
    2f88:	0001321e 	andeq	r3, r1, lr, lsl r2
    2f8c:	0020bf00 	eoreq	fp, r0, r0, lsl #30
    2f90:	1f000000 	svcne	0x00000000
    2f94:	000094e0 	andeq	r9, r0, r0, ror #9
    2f98:	00001159 	andeq	r1, r0, r9, asr r1
    2f9c:	04510120 	ldrbeq	r0, [r1], #-288	; 0x120
    2fa0:	1a380077 	bne	e03184 <__bss_end__+0xdf8d3c>
    2fa4:	02500120 	subseq	r0, r0, #32, 2
    2fa8:	00000076 	andeq	r0, r0, r6, ror r0
    2fac:	00013f19 	andeq	r3, r1, r9, lsl pc
    2fb0:	0094f400 	addseq	pc, r4, r0, lsl #8
    2fb4:	00001c00 	andeq	r1, r0, r0, lsl #24
    2fb8:	181b0100 	ldmdane	fp, {r8}
    2fbc:	1a000005 	bne	2fd8 <_start-0x5028>
    2fc0:	0000016a 	andeq	r0, r0, sl, ror #2
    2fc4:	000020d2 	ldrdeq	r2, [r0], -r2	; <UNPREDICTABLE>
    2fc8:	00015f1b 	andeq	r5, r1, fp, lsl pc
    2fcc:	1b540100 	blne	15033d4 <__bss_end__+0x14f8f8c>
    2fd0:	00000156 	andeq	r0, r0, r6, asr r1
    2fd4:	40007708 	andmi	r7, r0, r8, lsl #14
    2fd8:	1aff081a 	bne	fffc5048 <__bss_end__+0xfffbac00>
    2fdc:	014b1b9f 			; <UNDEFINED> instruction: 0x014b1b9f
    2fe0:	56010000 	strpl	r0, [r1], -r0
    2fe4:	00011119 	andeq	r1, r1, r9, lsl r1
    2fe8:	00950000 	addseq	r0, r5, r0
    2fec:	00001000 	andeq	r1, r0, r0
    2ff0:	ff1a0200 			; <UNDEFINED> instruction: 0xff1a0200
    2ff4:	1a000004 	bne	300c <_start-0x4ff4>
    2ff8:	00000128 	andeq	r0, r0, r8, lsr #2
    2ffc:	000020f9 	strdeq	r2, [r0], -r9
    3000:	00011d1b 	andeq	r1, r1, fp, lsl sp
    3004:	1d540100 	ldfnee	f0, [r4, #-0]
    3008:	00009500 	andeq	r9, r0, r0, lsl #10
    300c:	00000004 	andeq	r0, r0, r4
    3010:	0001321e 	andeq	r3, r1, lr, lsl r2
    3014:	00212000 	eoreq	r2, r1, r0
    3018:	1f000000 	svcne	0x00000000
    301c:	00009500 	andeq	r9, r0, r0, lsl #10
    3020:	00001159 	andeq	r1, r0, r9, asr r1
    3024:	04510120 	ldrbeq	r0, [r1], #-288	; 0x120
    3028:	1a400077 	bne	100320c <__bss_end__+0xff8dc4>
    302c:	02500120 	subseq	r0, r0, #32, 2
    3030:	00000076 	andeq	r0, r0, r6, ror r0
    3034:	00013f19 	andeq	r3, r1, r9, lsl pc
    3038:	00951400 	addseq	r1, r5, r0, lsl #8
    303c:	00001c00 	andeq	r1, r0, r0, lsl #24
    3040:	a21d0100 	andsge	r0, sp, #0, 2
    3044:	1a000005 	bne	3060 <_start-0x4fa0>
    3048:	0000016a 	andeq	r0, r0, sl, ror #2
    304c:	00002133 	andeq	r2, r0, r3, lsr r1
    3050:	00015f1b 	andeq	r5, r1, fp, lsl pc
    3054:	1b540100 	blne	150345c <__bss_end__+0x14f9014>
    3058:	00000156 	andeq	r0, r0, r6, asr r1
    305c:	08007709 	stmdaeq	r0, {r0, r3, r8, r9, sl, ip, sp, lr}
    3060:	ff081a20 			; <UNDEFINED> instruction: 0xff081a20
    3064:	4b1b9f1a 	blmi	6eacd4 <__bss_end__+0x6e088c>
    3068:	01000001 	tsteq	r0, r1
    306c:	01111956 	tsteq	r1, r6, asr r9
    3070:	95200000 	strls	r0, [r0, #-0]!
    3074:	00100000 	andseq	r0, r0, r0
    3078:	1a020000 	bne	83080 <__bss_end__+0x78c38>
    307c:	00000588 	andeq	r0, r0, r8, lsl #11
    3080:	0001281a 	andeq	r2, r1, sl, lsl r8
    3084:	00215d00 	eoreq	r5, r1, r0, lsl #26
    3088:	011d1b00 	tsteq	sp, r0, lsl #22
    308c:	54010000 	strpl	r0, [r1], #-0
    3090:	0095201d 	addseq	r2, r5, sp, lsl r0
    3094:	00000400 	andeq	r0, r0, r0, lsl #8
    3098:	01321e00 	teqeq	r2, r0, lsl #28
    309c:	21870000 	orrcs	r0, r7, r0
    30a0:	00000000 	andeq	r0, r0, r0
    30a4:	0095201f 	addseq	r2, r5, pc, lsl r0
    30a8:	00115900 	andseq	r5, r1, r0, lsl #18
    30ac:	51012000 	mrspl	r2, (UNDEF: 1)
    30b0:	08007705 	stmdaeq	r0, {r0, r2, r8, r9, sl, ip, sp, lr}
    30b4:	01201a20 	teqeq	r0, r0, lsr #20
    30b8:	00760250 	rsbseq	r0, r6, r0, asr r2
    30bc:	3f190000 	svccc	0x00190000
    30c0:	34000001 	strcc	r0, [r0], #-1
    30c4:	1c000095 	stcne	0, cr0, [r0], {149}	; 0x95
    30c8:	01000000 	mrseq	r0, (UNDEF: 0)
    30cc:	00062c1f 	andeq	r2, r6, pc, lsl ip
    30d0:	016a1a00 	cmneq	sl, r0, lsl #20
    30d4:	219a0000 	orrscs	r0, sl, r0
    30d8:	5f1b0000 	svcpl	0x001b0000
    30dc:	01000001 	tsteq	r0, r1
    30e0:	01561b54 	cmpeq	r6, r4, asr fp
    30e4:	77090000 	strvc	r0, [r9, -r0]
    30e8:	1a400800 	bne	10050f0 <__bss_end__+0xffaca8>
    30ec:	9f1aff08 	svcls	0x001aff08
    30f0:	00014b1b 	andeq	r4, r1, fp, lsl fp
    30f4:	19560100 	ldmdbne	r6, {r8}^
    30f8:	00000111 	andeq	r0, r0, r1, lsl r1
    30fc:	00009540 	andeq	r9, r0, r0, asr #10
    3100:	00000010 	andeq	r0, r0, r0, lsl r0
    3104:	06121a02 	ldreq	r1, [r2], -r2, lsl #20
    3108:	281a0000 	ldmdacs	sl, {}	; <UNPREDICTABLE>
    310c:	bc000001 	stclt	0, cr0, [r0], {1}
    3110:	1b000021 	blne	319c <_start-0x4e64>
    3114:	0000011d 	andeq	r0, r0, sp, lsl r1
    3118:	401d5401 	andsmi	r5, sp, r1, lsl #8
    311c:	04000095 	streq	r0, [r0], #-149	; 0x95
    3120:	1e000000 	cdpne	0, 0, cr0, cr0, cr0, {0}
    3124:	00000132 	andeq	r0, r0, r2, lsr r1
    3128:	000021de 	ldrdeq	r2, [r0], -lr
    312c:	401f0000 	andsmi	r0, pc, r0
    3130:	59000095 	stmdbpl	r0, {r0, r2, r4, r7}
    3134:	20000011 	andcs	r0, r0, r1, lsl r0
    3138:	77055101 	strvc	r5, [r5, -r1, lsl #2]
    313c:	1a400800 	bne	1005144 <__bss_end__+0xffacfc>
    3140:	02500120 	subseq	r0, r0, #32, 2
    3144:	00000076 	andeq	r0, r0, r6, ror r0
    3148:	00013f19 	andeq	r3, r1, r9, lsl pc
    314c:	00955400 	addseq	r5, r5, r0, lsl #8
    3150:	00001c00 	andeq	r1, r0, r0, lsl #24
    3154:	ac210100 	stfges	f0, [r1], #-0
    3158:	1b000006 	blne	3178 <_start-0x4e88>
    315c:	0000016a 	andeq	r0, r0, sl, ror #2
    3160:	5f1b5801 	svcpl	0x001b5801
    3164:	01000001 	tsteq	r0, r1
    3168:	01561a54 	cmpeq	r6, r4, asr sl
    316c:	21f10000 	mvnscs	r0, r0
    3170:	4b1b0000 	blmi	6c3178 <__bss_end__+0x6b8d30>
    3174:	01000001 	tsteq	r0, r1
    3178:	01111956 	tsteq	r1, r6, asr r9
    317c:	95600000 	strbls	r0, [r0, #-0]!
    3180:	00100000 	andseq	r0, r0, r0
    3184:	1a020000 	bne	8318c <__bss_end__+0x78d44>
    3188:	00000692 	muleq	r0, r2, r6
    318c:	0001281b 	andeq	r2, r1, fp, lsl r8
    3190:	1b580100 	blne	1603598 <__bss_end__+0x15f9150>
    3194:	0000011d 	andeq	r0, r0, sp, lsl r1
    3198:	601d5401 	andsvs	r5, sp, r1, lsl #8
    319c:	04000095 	streq	r0, [r0], #-149	; 0x95
    31a0:	1e000000 	cdpne	0, 0, cr0, cr0, cr0, {0}
    31a4:	00000132 	andeq	r0, r0, r2, lsr r1
    31a8:	00002224 	andeq	r2, r0, r4, lsr #4
    31ac:	601f0000 	andsvs	r0, pc, r0
    31b0:	59000095 	stmdbpl	r0, {r0, r2, r4, r7}
    31b4:	20000011 	andcs	r0, r0, r1, lsl r0
    31b8:	77055101 	strvc	r5, [r5, -r1, lsl #2]
    31bc:	1a800800 	bne	fe0051c4 <__bss_end__+0xfdffad7c>
    31c0:	02500120 	subseq	r0, r0, #32, 2
    31c4:	00000076 	andeq	r0, r0, r6, ror r0
    31c8:	00013f21 	andeq	r3, r1, r1, lsr #30
    31cc:	00957400 	addseq	r7, r5, r0, lsl #8
    31d0:	00001c00 	andeq	r1, r0, r0, lsl #24
    31d4:	1b230100 	blne	8c35dc <__bss_end__+0x8b9194>
    31d8:	0000016a 	andeq	r0, r0, sl, ror #2
    31dc:	5f1b5501 	svcpl	0x001b5501
    31e0:	01000001 	tsteq	r0, r1
    31e4:	01561c54 	cmpeq	r6, r4, asr ip
    31e8:	1b010000 	blne	431f0 <__bss_end__+0x38da8>
    31ec:	0000014b 	andeq	r0, r0, fp, asr #2
    31f0:	11195601 	tstne	r9, r1, lsl #12
    31f4:	80000001 	andhi	r0, r0, r1
    31f8:	10000095 	mulne	r0, r5, r0
    31fc:	02000000 	andeq	r0, r0, #0
    3200:	00070b1a 	andeq	r0, r7, sl, lsl fp
    3204:	01281b00 	teqeq	r8, r0, lsl #22
    3208:	55010000 	strpl	r0, [r1, #-0]
    320c:	00011d1b 	andeq	r1, r1, fp, lsl sp
    3210:	1d540100 	ldfnee	f0, [r4, #-0]
    3214:	00009580 	andeq	r9, r0, r0, lsl #11
    3218:	00000004 	andeq	r0, r0, r4
    321c:	0001321e 	andeq	r3, r1, lr, lsl r2
    3220:	00223700 	eoreq	r3, r2, r0, lsl #14
    3224:	1f000000 	svcne	0x00000000
    3228:	00009580 	andeq	r9, r0, r0, lsl #11
    322c:	00001159 	andeq	r1, r0, r9, asr r1
    3230:	01510120 	cmpeq	r1, r0, lsr #2
    3234:	50012031 	andpl	r2, r1, r1, lsr r0
    3238:	00007602 	andeq	r7, r0, r2, lsl #12
    323c:	04060000 	streq	r0, [r6], #-0
    3240:	000000d9 	ldrdeq	r0, [r0], -r9
    3244:	00090722 	andeq	r0, r9, r2, lsr #14
    3248:	25270100 	strcs	r0, [r7, #-256]!	; 0x100
    324c:	03000000 	movweq	r0, #0
    3250:	00000762 	andeq	r0, r0, r2, ror #14
    3254:	0078720f 	rsbseq	r7, r8, pc, lsl #4
    3258:	00252701 	eoreq	r2, r5, r1, lsl #14
    325c:	760f0000 	strvc	r0, [pc], -r0
    3260:	25270100 	strcs	r0, [r7, #-256]!	; 0x100
    3264:	0e000000 	cdpeq	0, 0, cr0, cr0, cr0, {0}
    3268:	00000894 	muleq	r0, r4, r8
    326c:	002c2701 	eoreq	r2, ip, r1, lsl #14
    3270:	1d110000 	ldcne	0, cr0, [r1, #-0]
    3274:	01000005 	tsteq	r0, r5
    3278:	00002c28 	andeq	r2, r0, r8, lsr #24
    327c:	35230000 	strcc	r0, [r3, #-0]!
    3280:	01000008 	tsteq	r0, r8
    3284:	00002534 	andeq	r2, r0, r4, lsr r5
    3288:	00959400 	addseq	r9, r5, r0, lsl #8
    328c:	0001c800 	andeq	ip, r1, r0, lsl #16
    3290:	1e9c0100 	fmlnee	f0, f4, f0
    3294:	1300000b 	movwne	r0, #11
    3298:	000004d0 	ldrdeq	r0, [r0], -r0	; <UNPREDICTABLE>
    329c:	07223401 	streq	r3, [r2, -r1, lsl #8]!
    32a0:	224a0000 	subcs	r0, sl, #0
    32a4:	94130000 	ldrls	r0, [r3], #-0
    32a8:	01000008 	tsteq	r0, r8
    32ac:	00002534 	andeq	r2, r0, r4, lsr r5
    32b0:	00228f00 	eoreq	r8, r2, r0, lsl #30
    32b4:	78721500 	ldmdavc	r2!, {r8, sl, ip}^
    32b8:	25350100 	ldrcs	r0, [r5, #-256]!	; 0x100
    32bc:	01000000 	mrseq	r0, (UNDEF: 0)
    32c0:	00731655 	rsbseq	r1, r3, r5, asr r6
    32c4:	002c3c01 	eoreq	r3, ip, r1, lsl #24
    32c8:	22ad0000 	adccs	r0, sp, #0
    32cc:	75160000 	ldrvc	r0, [r6, #-0]
    32d0:	683f0100 	ldmdavs	pc!, {r8}	; <UNPREDICTABLE>
    32d4:	c0000000 	andgt	r0, r0, r0
    32d8:	16000022 	strne	r0, [r0], -r2, lsr #32
    32dc:	4001006e 	andmi	r0, r1, lr, rrx
    32e0:	0000002c 	andeq	r0, r0, ip, lsr #32
    32e4:	000022d3 	ldrdeq	r2, [r0], -r3
    32e8:	01006316 	tsteq	r0, r6, lsl r3
    32ec:	00002c41 	andeq	r2, r0, r1, asr #24
    32f0:	0022ea00 	eoreq	lr, r2, r0, lsl #20
    32f4:	07281900 	streq	r1, [r8, -r0, lsl #18]!
    32f8:	95a80000 	strls	r0, [r8, #0]!
    32fc:	00340000 	eorseq	r0, r4, r0
    3300:	38010000 	stmdacc	r1, {}	; <UNPREDICTABLE>
    3304:	0000083c 	andeq	r0, r0, ip, lsr r8
    3308:	00074b1a 	andeq	r4, r7, sl, lsl fp
    330c:	00231400 	eoreq	r1, r3, r0, lsl #8
    3310:	07421c00 	strbeq	r1, [r2, -r0, lsl #24]
    3314:	1b000000 	blne	331c <_start-0x4ce4>
    3318:	00000738 	andeq	r0, r0, r8, lsr r7
    331c:	a81d5501 	ldmdage	sp, {r0, r8, sl, ip, lr}
    3320:	34000095 	strcc	r0, [r0], #-149	; 0x95
    3324:	1e000000 	cdpne	0, 0, cr0, cr0, cr0, {0}
    3328:	00000756 	andeq	r0, r0, r6, asr r7
    332c:	00002332 	andeq	r2, r0, r2, lsr r3
    3330:	0095ac24 	addseq	sl, r5, r4, lsr #24
    3334:	00116f00 	andseq	r6, r1, r0, lsl #30
    3338:	95b82500 	ldrls	r2, [r8, #1280]!	; 0x500
    333c:	117a0000 	cmnne	sl, r0
    3340:	08310000 	ldmdaeq	r1!, {}	; <UNPREDICTABLE>
    3344:	01200000 	teqeq	r0, r0
    3348:	00750250 	rsbseq	r0, r5, r0, asr r2
    334c:	95c42400 	strbls	r2, [r4, #1024]	; 0x400
    3350:	116f0000 	cmnne	pc, r0
    3354:	00000000 	andeq	r0, r0, r0
    3358:	0095e417 	addseq	lr, r5, r7, lsl r4
    335c:	00000400 	andeq	r0, r0, r0, lsl #8
    3360:	00085900 	andeq	r5, r8, r0, lsl #18
    3364:	02282600 	eoreq	r2, r8, #0, 12
    3368:	3c010000 	stccc	0, cr0, [r1], {-0}
    336c:	0000002c 	andeq	r0, r0, ip, lsr #32
    3370:	00002350 	andeq	r2, r0, r0, asr r3
    3374:	01111900 	tsteq	r1, r0, lsl #18
    3378:	95f00000 	ldrbls	r0, [r0, #0]!
    337c:	00100000 	andseq	r0, r0, r0
    3380:	44010000 	strmi	r0, [r1], #-0
    3384:	00000892 	muleq	r0, r2, r8
    3388:	0001281a 	andeq	r2, r1, sl, lsl r8
    338c:	00236300 	eoreq	r6, r3, r0, lsl #6
    3390:	011d1a00 	tsteq	sp, r0, lsl #20
    3394:	23880000 	orrcs	r0, r8, #0
    3398:	f01d0000 			; <UNDEFINED> instruction: 0xf01d0000
    339c:	04000095 	streq	r0, [r0], #-149	; 0x95
    33a0:	1e000000 	cdpne	0, 0, cr0, cr0, cr0, {0}
    33a4:	00000132 	andeq	r0, r0, r2, lsr r1
    33a8:	0000239b 	muleq	r0, fp, r3
    33ac:	11190000 	tstne	r9, r0
    33b0:	10000001 	andne	r0, r0, r1
    33b4:	10000096 	mulne	r0, r6, r0
    33b8:	01000000 	mrseq	r0, (UNDEF: 0)
    33bc:	0008cb48 	andeq	ip, r8, r8, asr #22
    33c0:	01281a00 	teqeq	r8, r0, lsl #20
    33c4:	23ae0000 			; <UNDEFINED> instruction: 0x23ae0000
    33c8:	1d1a0000 	ldcne	0, cr0, [sl, #-0]
    33cc:	c1000001 	tstgt	r0, r1
    33d0:	1d000023 	stcne	0, cr0, [r0, #-140]	; 0xffffff74
    33d4:	00009610 	andeq	r9, r0, r0, lsl r6
    33d8:	00000004 	andeq	r0, r0, r4
    33dc:	0001321e 	andeq	r3, r1, lr, lsl r2
    33e0:	0023d400 	eoreq	sp, r3, r0, lsl #8
    33e4:	19000000 	stmdbne	r0, {}	; <UNPREDICTABLE>
    33e8:	00000111 	andeq	r0, r0, r1, lsl r1
    33ec:	00009634 	andeq	r9, r0, r4, lsr r6
    33f0:	00000010 	andeq	r0, r0, r0, lsl r0
    33f4:	09044b01 	stmdbeq	r4, {r0, r8, r9, fp, lr}
    33f8:	281a0000 	ldmdacs	sl, {}	; <UNPREDICTABLE>
    33fc:	e7000001 	str	r0, [r0, -r1]
    3400:	1a000023 	bne	3494 <_start-0x4b6c>
    3404:	0000011d 	andeq	r0, r0, sp, lsl r1
    3408:	000023fa 	strdeq	r2, [r0], -sl
    340c:	0096341d 	addseq	r3, r6, sp, lsl r4
    3410:	00000400 	andeq	r0, r0, r0, lsl #8
    3414:	01321e00 	teqeq	r2, r0, lsl #28
    3418:	240d0000 	strcs	r0, [sp], #-0
    341c:	00000000 	andeq	r0, r0, r0
    3420:	00011119 	andeq	r1, r1, r9, lsl r1
    3424:	00965800 	addseq	r5, r6, r0, lsl #16
    3428:	00001000 	andeq	r1, r0, r0
    342c:	3d4e0100 	stfcce	f0, [lr, #-0]
    3430:	1a000009 	bne	345c <_start-0x4ba4>
    3434:	00000128 	andeq	r0, r0, r8, lsr #2
    3438:	00002420 	andeq	r2, r0, r0, lsr #8
    343c:	00011d1a 	andeq	r1, r1, sl, lsl sp
    3440:	00243300 	eoreq	r3, r4, r0, lsl #6
    3444:	96581d00 	ldrbls	r1, [r8], -r0, lsl #26
    3448:	00040000 	andeq	r0, r4, r0
    344c:	321e0000 	andscc	r0, lr, #0
    3450:	46000001 	strmi	r0, [r0], -r1
    3454:	00000024 	andeq	r0, r0, r4, lsr #32
    3458:	01111900 	tsteq	r1, r0, lsl #18
    345c:	967c0000 	ldrbtls	r0, [ip], -r0
    3460:	00100000 	andseq	r0, r0, r0
    3464:	51010000 	mrspl	r0, (UNDEF: 1)
    3468:	00000976 	andeq	r0, r0, r6, ror r9
    346c:	0001281a 	andeq	r2, r1, sl, lsl r8
    3470:	00245900 	eoreq	r5, r4, r0, lsl #18
    3474:	011d1a00 	tsteq	sp, r0, lsl #20
    3478:	246c0000 	strbtcs	r0, [ip], #-0
    347c:	7c1d0000 	ldcvc	0, cr0, [sp], {-0}
    3480:	04000096 	streq	r0, [r0], #-150	; 0x96
    3484:	1e000000 	cdpne	0, 0, cr0, cr0, cr0, {0}
    3488:	00000132 	andeq	r0, r0, r2, lsr r1
    348c:	0000247f 	andeq	r2, r0, pc, ror r4
    3490:	11190000 	tstne	r9, r0
    3494:	a0000001 	andge	r0, r0, r1
    3498:	10000096 	mulne	r0, r6, r0
    349c:	01000000 	mrseq	r0, (UNDEF: 0)
    34a0:	0009af54 	andeq	sl, r9, r4, asr pc
    34a4:	01281a00 	teqeq	r8, r0, lsl #20
    34a8:	24920000 	ldrcs	r0, [r2], #0
    34ac:	1d1a0000 	ldcne	0, cr0, [sl, #-0]
    34b0:	a5000001 	strge	r0, [r0, #-1]
    34b4:	1d000024 	stcne	0, cr0, [r0, #-144]	; 0xffffff70
    34b8:	000096a0 	andeq	r9, r0, r0, lsr #13
    34bc:	00000004 	andeq	r0, r0, r4
    34c0:	0001321e 	andeq	r3, r1, lr, lsl r2
    34c4:	0024b800 	eoreq	fp, r4, r0, lsl #16
    34c8:	19000000 	stmdbne	r0, {}	; <UNPREDICTABLE>
    34cc:	00000111 	andeq	r0, r0, r1, lsl r1
    34d0:	000096c4 	andeq	r9, r0, r4, asr #13
    34d4:	00000010 	andeq	r0, r0, r0, lsl r0
    34d8:	09e85701 	stmibeq	r8!, {r0, r8, r9, sl, ip, lr}^
    34dc:	281a0000 	ldmdacs	sl, {}	; <UNPREDICTABLE>
    34e0:	cb000001 	blgt	34ec <_start-0x4b14>
    34e4:	1a000024 	bne	357c <_start-0x4a84>
    34e8:	0000011d 	andeq	r0, r0, sp, lsl r1
    34ec:	000024de 	ldrdeq	r2, [r0], -lr
    34f0:	0096c41d 	addseq	ip, r6, sp, lsl r4
    34f4:	00000400 	andeq	r0, r0, r0, lsl #8
    34f8:	01321e00 	teqeq	r2, r0, lsl #28
    34fc:	24f10000 	ldrbtcs	r0, [r1], #0
    3500:	00000000 	andeq	r0, r0, r0
    3504:	00011119 	andeq	r1, r1, r9, lsl r1
    3508:	0096e800 	addseq	lr, r6, r0, lsl #16
    350c:	00001000 	andeq	r1, r0, r0
    3510:	1d5a0100 	ldfnee	f0, [sl, #-0]
    3514:	1a00000a 	bne	3544 <_start-0x4abc>
    3518:	00000128 	andeq	r0, r0, r8, lsr #2
    351c:	00002504 	andeq	r2, r0, r4, lsl #10
    3520:	00011d27 	andeq	r1, r1, r7, lsr #26
    3524:	96e81d00 	strbtls	r1, [r8], r0, lsl #26
    3528:	00040000 	andeq	r0, r4, r0
    352c:	321e0000 	andscc	r0, lr, #0
    3530:	17000001 	strne	r0, [r0, -r1]
    3534:	00000025 	andeq	r0, r0, r5, lsr #32
    3538:	07281900 	streq	r1, [r8, -r0, lsl #18]!
    353c:	97080000 	strls	r0, [r8, -r0]
    3540:	00340000 	eorseq	r0, r4, r0
    3544:	61010000 	mrsvs	r0, (UNDEF: 1)
    3548:	00000a81 	andeq	r0, r0, r1, lsl #21
    354c:	00074b27 	andeq	r4, r7, r7, lsr #22
    3550:	07421a00 	strbeq	r1, [r2, -r0, lsl #20]
    3554:	252a0000 	strcs	r0, [sl, #-0]!
    3558:	381a0000 	ldmdacc	sl, {}	; <UNPREDICTABLE>
    355c:	4a000007 	bmi	3580 <_start-0x4a80>
    3560:	1d000025 	stcne	0, cr0, [r0, #-148]	; 0xffffff6c
    3564:	00009708 	andeq	r9, r0, r8, lsl #14
    3568:	00000034 	andeq	r0, r0, r4, lsr r0
    356c:	0007561e 	andeq	r5, r7, lr, lsl r6
    3570:	00256800 	eoreq	r6, r5, r0, lsl #16
    3574:	970c2400 	strls	r2, [ip, -r0, lsl #8]
    3578:	116f0000 	cmnne	pc, r0
    357c:	18250000 	stmdane	r5!, {}	; <UNPREDICTABLE>
    3580:	7a000097 	bvc	37e4 <_start-0x481c>
    3584:	76000011 			; <UNDEFINED> instruction: 0x76000011
    3588:	2000000a 	andcs	r0, r0, sl
    358c:	75025001 	strvc	r5, [r2, #-1]
    3590:	24240000 	strtcs	r0, [r4], #-0
    3594:	6f000097 	svcvs	0x00000097
    3598:	00000011 	andeq	r0, r0, r1, lsl r0
    359c:	960c2500 	strls	r2, [ip], -r0, lsl #10
    35a0:	117a0000 	cmnne	sl, r0
    35a4:	0a950000 	beq	fe5435ac <__bss_end__+0xfe539164>
    35a8:	01200000 	teqeq	r0, r0
    35ac:	00750250 	rsbseq	r0, r5, r0, asr r2
    35b0:	962c2500 	strtls	r2, [ip], -r0, lsl #10
    35b4:	117a0000 	cmnne	sl, r0
    35b8:	0aa90000 	beq	fea435c0 <__bss_end__+0xfea39178>
    35bc:	01200000 	teqeq	r0, r0
    35c0:	00750250 	rsbseq	r0, r5, r0, asr r2
    35c4:	96502500 	ldrbls	r2, [r0], -r0, lsl #10
    35c8:	117a0000 	cmnne	sl, r0
    35cc:	0abd0000 	beq	fef435d4 <__bss_end__+0xfef3918c>
    35d0:	01200000 	teqeq	r0, r0
    35d4:	00750250 	rsbseq	r0, r5, r0, asr r2
    35d8:	96742500 	ldrbtls	r2, [r4], -r0, lsl #10
    35dc:	117a0000 	cmnne	sl, r0
    35e0:	0ad10000 	beq	ff4435e8 <__bss_end__+0xff4391a0>
    35e4:	01200000 	teqeq	r0, r0
    35e8:	00750250 	rsbseq	r0, r5, r0, asr r2
    35ec:	96982500 	ldrls	r2, [r8], r0, lsl #10
    35f0:	117a0000 	cmnne	sl, r0
    35f4:	0ae50000 	beq	ff9435fc <__bss_end__+0xff9391b4>
    35f8:	01200000 	teqeq	r0, r0
    35fc:	00750250 	rsbseq	r0, r5, r0, asr r2
    3600:	96bc2500 	ldrtls	r2, [ip], r0, lsl #10
    3604:	117a0000 	cmnne	sl, r0
    3608:	0af90000 	beq	ffe43610 <__bss_end__+0xffe391c8>
    360c:	01200000 	teqeq	r0, r0
    3610:	00750250 	rsbseq	r0, r5, r0, asr r2
    3614:	96e02500 	strbtls	r2, [r0], r0, lsl #10
    3618:	117a0000 	cmnne	sl, r0
    361c:	0b0d0000 	bleq	343624 <__bss_end__+0x3391dc>
    3620:	01200000 	teqeq	r0, r0
    3624:	00750250 	rsbseq	r0, r5, r0, asr r2
    3628:	97001f00 	strls	r1, [r0, -r0, lsl #30]
    362c:	117a0000 	cmnne	sl, r0
    3630:	01200000 	teqeq	r0, r0
    3634:	00750250 	rsbseq	r0, r5, r0, asr r2
    3638:	4a230000 	bmi	8c3640 <__bss_end__+0x8b91f8>
    363c:	01000008 	tsteq	r0, r8
    3640:	0000256c 	andeq	r2, r0, ip, ror #10
    3644:	00975c00 	addseq	r5, r7, r0, lsl #24
    3648:	0000a400 	andeq	sl, r0, r0, lsl #8
    364c:	0c9c0100 	ldfeqs	f0, [ip], {0}
    3650:	1400000c 	strne	r0, [r0], #-12
    3654:	6c010075 	stcvs	0, cr0, [r1], {117}	; 0x75
    3658:	00000722 	andeq	r0, r0, r2, lsr #14
    365c:	00002586 	andeq	r2, r0, r6, lsl #11
    3660:	66756214 			; <UNDEFINED> instruction: 0x66756214
    3664:	0c6c0100 	stfeqe	f0, [ip], #-0
    3668:	c800000c 	stmdagt	r0, {r2, r3}
    366c:	13000025 	movwne	r0, #37	; 0x25
    3670:	000008dc 	ldrdeq	r0, [r0], -ip
    3674:	00686c01 	rsbeq	r6, r8, r1, lsl #24
    3678:	260a0000 	strcs	r0, [sl], -r0
    367c:	65140000 	ldrvs	r0, [r4, #-0]
    3680:	0100646e 	tsteq	r0, lr, ror #8
    3684:	00004f6c 	andeq	r4, r0, ip, ror #30
    3688:	00265100 	eoreq	r5, r6, r0, lsl #2
    368c:	08e32800 	stmiaeq	r3!, {fp, sp}^
    3690:	6c010000 	stcvs	0, cr0, [r1], {-0}
    3694:	00000068 	andeq	r0, r0, r8, rrx
    3698:	29009102 	stmdbcs	r0, {r1, r8, ip, pc}
    369c:	00000177 	andeq	r0, r0, r7, ror r1
    36a0:	00000c22 	andeq	r0, r0, r2, lsr #24
    36a4:	9f200305 	svcls	0x00200305
    36a8:	69160000 	ldmdbvs	r6, {}	; <UNPREDICTABLE>
    36ac:	25700100 	ldrbcs	r0, [r0, #-256]!	; 0x100
    36b0:	8b000000 	blhi	36b8 <_start-0x4948>
    36b4:	26000026 	strcs	r0, [r0], -r6, lsr #32
    36b8:	000008bf 			; <UNDEFINED> instruction: 0x000008bf
    36bc:	004f7101 	subeq	r7, pc, r1, lsl #2
    36c0:	26b50000 	ldrtcs	r0, [r5], r0
    36c4:	80240000 	eorhi	r0, r4, r0
    36c8:	8f000097 	svchi	0x00000097
    36cc:	25000011 	strcs	r0, [r0, #-17]
    36d0:	0000979c 	muleq	r0, ip, r7
    36d4:	00001196 	muleq	r0, r6, r1
    36d8:	00000bec 	andeq	r0, r0, ip, ror #23
    36dc:	02530120 	subseq	r0, r3, #32, 2
    36e0:	01206d08 	teqeq	r0, r8, lsl #26
    36e4:	20030552 	andcs	r0, r3, r2, asr r5
    36e8:	2000009f 	mulcs	r0, pc, r0	; <UNPREDICTABLE>
    36ec:	03055101 	movweq	r5, #20737	; 0x5101
    36f0:	00009f98 	muleq	r0, r8, pc	; <UNPREDICTABLE>
    36f4:	05500120 	ldrbeq	r0, [r0, #-288]	; 0x120
    36f8:	009e2003 	addseq	r2, lr, r3
    36fc:	7d022000 	stcvc	0, cr2, [r2, #-0]
    3700:	ac030500 	cfstr32ge	mvfx0, [r3], {-0}
    3704:	0000009f 	muleq	r0, pc, r0	; <UNPREDICTABLE>
    3708:	0097a024 	addseq	sl, r7, r4, lsr #32
    370c:	0011ac00 	andseq	sl, r1, r0, lsl #24
    3710:	97bc1f00 	ldrls	r1, [ip, r0, lsl #30]!
    3714:	07620000 	strbeq	r0, [r2, -r0]!
    3718:	01200000 	teqeq	r0, r0
    371c:	007a0251 	rsbseq	r0, sl, r1, asr r2
    3720:	02500120 	subseq	r0, r0, #32, 2
    3724:	00000078 	andeq	r0, r0, r8, ror r0
    3728:	004f0406 	subeq	r0, pc, r6, lsl #8
    372c:	902a0000 	eorls	r0, sl, r0
    3730:	22000000 	andcs	r0, r0, #0
    3734:	2b00000c 	blcs	376c <_start-0x4894>
    3738:	00000081 	andeq	r0, r0, r1, lsl #1
    373c:	12070012 	andne	r0, r7, #18
    3740:	2300000c 	movwcs	r0, #12
    3744:	000008c7 	andeq	r0, r0, r7, asr #17
    3748:	00258001 	eoreq	r8, r5, r1
    374c:	98000000 	stmdals	r0, {}	; <UNPREDICTABLE>
    3750:	00900000 	addseq	r0, r0, r0
    3754:	9c010000 	stcls	0, cr0, [r1], {-0}
    3758:	00000cf8 	strdeq	r0, [r0], -r8
    375c:	01007514 	tsteq	r0, r4, lsl r5
    3760:	00072280 	andeq	r2, r7, r0, lsl #5
    3764:	0026c800 	eoreq	ip, r6, r0, lsl #16
    3768:	75621400 	strbvc	r1, [r2, #-1024]!	; 0x400
    376c:	80010066 	andhi	r0, r1, r6, rrx
    3770:	00000c0c 	andeq	r0, r0, ip, lsl #24
    3774:	0000270a 	andeq	r2, r0, sl, lsl #14
    3778:	0008dc13 	andeq	sp, r8, r3, lsl ip
    377c:	68810100 	stmvs	r1, {r8}
    3780:	4c000000 	stcmi	0, cr0, [r0], {-0}
    3784:	13000027 	movwne	r0, #39	; 0x27
    3788:	000008e3 	andeq	r0, r0, r3, ror #17
    378c:	00688101 	rsbeq	r8, r8, r1, lsl #2
    3790:	27930000 	ldrcs	r0, [r3, r0]
    3794:	77290000 	strvc	r0, [r9, -r0]!
    3798:	08000001 	stmdaeq	r0, {r0}
    379c:	0500000d 	streq	r0, [r0, #-13]
    37a0:	009f3403 	addseq	r3, pc, r3, lsl #8
    37a4:	00691600 	rsbeq	r1, r9, r0, lsl #12
    37a8:	00258601 	eoreq	r8, r5, r1, lsl #12
    37ac:	27d50000 	ldrbcs	r0, [r5, r0]
    37b0:	20240000 	eorcs	r0, r4, r0
    37b4:	8f000098 	svchi	0x00000098
    37b8:	25000011 	strcs	r0, [r0, #-17]
    37bc:	0000983c 	andeq	r9, r0, ip, lsr r8
    37c0:	00001196 	muleq	r0, r6, r1
    37c4:	00000cd8 	ldrdeq	r0, [r0], -r8
    37c8:	02530120 	subseq	r0, r3, #32, 2
    37cc:	01208308 	teqeq	r0, r8, lsl #6
    37d0:	34030552 	strcc	r0, [r3], #-1362	; 0x552
    37d4:	2000009f 	mulcs	r0, pc, r0	; <UNPREDICTABLE>
    37d8:	03055101 	movweq	r5, #20737	; 0x5101
    37dc:	00009f98 	muleq	r0, r8, pc	; <UNPREDICTABLE>
    37e0:	05500120 	ldrbeq	r0, [r0, #-288]	; 0x120
    37e4:	009e2003 	addseq	r2, lr, r3
    37e8:	7d022000 	stcvc	0, cr2, [r2, #-0]
    37ec:	ac030500 	cfstr32ge	mvfx0, [r3], {-0}
    37f0:	0000009f 	muleq	r0, pc, r0	; <UNPREDICTABLE>
    37f4:	00984024 	addseq	r4, r8, r4, lsr #32
    37f8:	0011ac00 	andseq	sl, r1, r0, lsl #24
    37fc:	985c1f00 	ldmdals	ip, {r8, r9, sl, fp, ip}^
    3800:	07620000 	strbeq	r0, [r2, -r0]!
    3804:	01200000 	teqeq	r0, r0
    3808:	00780251 	rsbseq	r0, r8, r1, asr r2
    380c:	02500120 	subseq	r0, r0, #32, 2
    3810:	00000077 	andeq	r0, r0, r7, ror r0
    3814:	0000902a 	andeq	r9, r0, sl, lsr #32
    3818:	000d0800 	andeq	r0, sp, r0, lsl #16
    381c:	00812b00 	addeq	r2, r1, r0, lsl #22
    3820:	00140000 	andseq	r0, r4, r0
    3824:	000cf807 	andeq	pc, ip, r7, lsl #16
    3828:	08802300 	stmeq	r0, {r8, r9, sp}
    382c:	93010000 	movwls	r0, #4096	; 0x1000
    3830:	000000d9 	ldrdeq	r0, [r0], -r9
    3834:	00009890 	muleq	r0, r0, r8
    3838:	000000d4 	ldrdeq	r0, [r0], -r4
    383c:	0e329c01 	cdpeq	12, 3, cr9, cr2, cr1, {0}
    3840:	74140000 	ldrvc	r0, [r4], #-0
    3844:	93010078 	movwls	r0, #4216	; 0x1078
    3848:	0000004f 	andeq	r0, r0, pc, asr #32
    384c:	000027ff 	strdeq	r2, [r0], -pc	; <UNPREDICTABLE>
    3850:	00787214 	rsbseq	r7, r8, r4, lsl r2
    3854:	004f9301 	subeq	r9, pc, r1, lsl #6
    3858:	28200000 	stmdacs	r0!, {}	; <UNPREDICTABLE>
    385c:	09130000 	ldmdbeq	r3, {}	; <UNPREDICTABLE>
    3860:	01000005 	tsteq	r0, r5
    3864:	00006893 	muleq	r0, r3, r8
    3868:	00284100 	eoreq	r4, r8, r0, lsl #2
    386c:	08192800 	ldmdaeq	r9, {fp, sp}
    3870:	93010000 	movwls	r0, #4096	; 0x1000
    3874:	00000068 	andeq	r0, r0, r8, rrx
    3878:	2c009102 	stfcsd	f1, [r0], {2}
    387c:	007a686d 	rsbseq	r6, sl, sp, ror #16
    3880:	002c9b01 	eoreq	r9, ip, r1, lsl #22
    3884:	27000000 	strcs	r0, [r0, -r0]
    3888:	6a2629b9 	bvs	98df74 <__bss_end__+0x983b2c>
    388c:	01000008 	tsteq	r0, r8
    3890:	00002c9c 	muleq	r0, ip, ip
    3894:	00286b00 	eoreq	r6, r8, r0, lsl #22
    3898:	01772900 	cmneq	r7, r0, lsl #18
    389c:	0e420000 	cdpeq	0, 4, cr0, cr2, cr0, {0}
    38a0:	03050000 	movweq	r0, #20480	; 0x5000
    38a4:	00009f4c 	andeq	r9, r0, ip, asr #30
    38a8:	0098bc17 	addseq	fp, r8, r7, lsl ip
    38ac:	00000800 	andeq	r0, r0, r0, lsl #16
    38b0:	000da500 	andeq	sl, sp, r0, lsl #10
    38b4:	6e692d00 	cdpvs	13, 6, cr2, cr9, cr0, {0}
    38b8:	2c970100 	ldfcss	f0, [r7], {0}
    38bc:	01000000 	mrseq	r0, (UNDEF: 0)
    38c0:	98b42500 	ldmls	r4!, {r8, sl, sp}
    38c4:	11b30000 			; <UNDEFINED> instruction: 0x11b30000
    38c8:	0db90000 	ldceq	0, cr0, [r9]
    38cc:	01200000 	teqeq	r0, r0
    38d0:	00760250 	rsbseq	r0, r6, r0, asr r2
    38d4:	98bc2500 	ldmls	ip!, {r8, sl, sp}
    38d8:	11c40000 	bicne	r0, r4, r0
    38dc:	0dcd0000 	stcleq	0, cr0, [sp]
    38e0:	01200000 	teqeq	r0, r0
    38e4:	00780250 	rsbseq	r0, r8, r0, asr r2
    38e8:	98d02500 	ldmls	r0, {r8, sl, sp}^
    38ec:	11590000 	cmpne	r9, r0
    38f0:	0de60000 	stcleq	0, cr0, [r6]
    38f4:	01200000 	teqeq	r0, r0
    38f8:	20310151 	eorscs	r0, r1, r1, asr r1
    38fc:	76025001 	strvc	r5, [r2], -r1
    3900:	14240000 	strtne	r0, [r4], #-0
    3904:	8f000099 	svchi	0x00000099
    3908:	25000011 	strcs	r0, [r0, #-17]
    390c:	00009930 	andeq	r9, r0, r0, lsr r9
    3910:	00001196 	muleq	r0, r6, r1
    3914:	00000e28 	andeq	r0, r0, r8, lsr #28
    3918:	02530120 	subseq	r0, r3, #32, 2
    391c:	01209d08 	teqeq	r0, r8, lsl #26
    3920:	4c030552 	cfstr32mi	mvfx0, [r3], {82}	; 0x52
    3924:	2000009f 	mulcs	r0, pc, r0	; <UNPREDICTABLE>
    3928:	03055101 	movweq	r5, #20737	; 0x5101
    392c:	00009f98 	muleq	r0, r8, pc	; <UNPREDICTABLE>
    3930:	05500120 	ldrbeq	r0, [r0, #-288]	; 0x120
    3934:	009e2003 	addseq	r2, lr, r3
    3938:	7d022000 	stcvc	0, cr2, [r2, #-0]
    393c:	b8030500 	stmdalt	r3, {r8, sl}
    3940:	0000009f 	muleq	r0, pc, r0	; <UNPREDICTABLE>
    3944:	00993424 	addseq	r3, r9, r4, lsr #8
    3948:	0011ac00 	andseq	sl, r1, r0, lsl #24
    394c:	902a0000 	eorls	r0, sl, r0
    3950:	42000000 	andmi	r0, r0, #0
    3954:	2b00000e 	blcs	3994 <_start-0x466c>
    3958:	00000081 	andeq	r0, r0, r1, lsl #1
    395c:	32070013 	andcc	r0, r7, #19
    3960:	2300000e 	movwcs	r0, #14
    3964:	0000085d 	andeq	r0, r0, sp, asr r8
    3968:	0025a901 	eoreq	sl, r5, r1, lsl #18
    396c:	99640000 	stmdbls	r4!, {}^	; <UNPREDICTABLE>
    3970:	003c0000 	eorseq	r0, ip, r0
    3974:	9c010000 	stcls	0, cr0, [r1], {-0}
    3978:	00000eea 	andeq	r0, r0, sl, ror #29
    397c:	0004d013 	andeq	sp, r4, r3, lsl r0
    3980:	22a90100 	adccs	r0, r9, #0, 2
    3984:	99000007 	stmdbls	r0, {r0, r1, r2}
    3988:	16000028 	strne	r0, [r0], -r8, lsr #32
    398c:	00736572 	rsbseq	r6, r3, r2, ror r5
    3990:	0025aa01 	eoreq	sl, r5, r1, lsl #20
    3994:	28ba0000 	ldmcs	sl!, {}	; <UNPREDICTABLE>
    3998:	77290000 	strvc	r0, [r9, -r0]!
    399c:	fa000001 	blx	39a8 <_start-0x4658>
    39a0:	0500000e 	streq	r0, [r0, #-14]
    39a4:	009f6003 	addseq	r6, pc, r3
    39a8:	99702500 	ldmdbls	r0!, {r8, sl, sp}^
    39ac:	07620000 	strbeq	r0, [r2, -r0]!
    39b0:	0ea80000 	cdpeq	0, 10, cr0, cr8, cr0, {0}
    39b4:	01200000 	teqeq	r0, r0
    39b8:	ff090251 			; <UNDEFINED> instruction: 0xff090251
    39bc:	03500120 	cmpeq	r0, #32, 2
    39c0:	005001f3 	ldrsheq	r0, [r0], #-19	; 0xffffffed
    39c4:	00997c24 	addseq	r7, r9, r4, lsr #24
    39c8:	00118f00 	andseq	r8, r1, r0, lsl #30
    39cc:	99902500 	ldmibls	r0, {r8, sl, sp}
    39d0:	11960000 	orrsne	r0, r6, r0
    39d4:	0ee00000 	cdpeq	0, 14, cr0, cr0, cr0, {0}
    39d8:	01200000 	teqeq	r0, r0
    39dc:	ac080253 	sfmge	f0, 4, [r8], {83}	; 0x53
    39e0:	05520120 	ldrbeq	r0, [r2, #-288]	; 0x120
    39e4:	009f6003 	addseq	r6, pc, r3
    39e8:	51012000 	mrspl	r2, (UNDEF: 1)
    39ec:	9f980305 	svcls	0x00980305
    39f0:	01200000 	teqeq	r0, r0
    39f4:	ec030550 	cfstr32	mvfx0, [r3], {80}	; 0x50
    39f8:	0000009f 	muleq	r0, pc, r0	; <UNPREDICTABLE>
    39fc:	00999424 	addseq	r9, r9, r4, lsr #8
    3a00:	0011ac00 	andseq	sl, r1, r0, lsl #24
    3a04:	902a0000 	eorls	r0, sl, r0
    3a08:	fa000000 	blx	3a10 <_start-0x45f0>
    3a0c:	2b00000e 	blcs	3a4c <_start-0x45b4>
    3a10:	00000081 	andeq	r0, r0, r1, lsl #1
    3a14:	ea07000c 	b	1c3a4c <__bss_end__+0x1b9604>
    3a18:	1200000e 	andne	r0, r0, #14
    3a1c:	000008a1 	andeq	r0, r0, r1, lsr #17
    3a20:	99a0b001 	stmibls	r0!, {r0, ip, sp, pc}
    3a24:	002c0000 	eoreq	r0, ip, r0
    3a28:	9c010000 	stcls	0, cr0, [r1], {-0}
    3a2c:	00000f43 	andeq	r0, r0, r3, asr #30
    3a30:	0004d013 	andeq	sp, r4, r3, lsl r0
    3a34:	22b00100 	adcscs	r0, r0, #0, 2
    3a38:	cd000007 	stcgt	0, cr0, [r0, #-28]	; 0xffffffe4
    3a3c:	14000028 	strne	r0, [r0], #-40	; 0x28
    3a40:	0067736d 	rsbeq	r7, r7, sp, ror #6
    3a44:	0097b001 	addseq	fp, r7, r1
    3a48:	28eb0000 	stmiacs	fp!, {}^	; <UNPREDICTABLE>
    3a4c:	b81f0000 	ldmdalt	pc, {}	; <UNPREDICTABLE>
    3a50:	76000099 			; <UNDEFINED> instruction: 0x76000099
    3a54:	20000001 	andcs	r0, r0, r1
    3a58:	75025001 	strvc	r5, [r2, #-1]
    3a5c:	23000000 	movwcs	r0, #0
    3a60:	000004d5 	ldrdeq	r0, [r0], -r5
    3a64:	0025b901 	eoreq	fp, r5, r1, lsl #18
    3a68:	99cc0000 	stmibls	ip, {}^	; <UNPREDICTABLE>
    3a6c:	00900000 	addseq	r0, r0, r0
    3a70:	9c010000 	stcls	0, cr0, [r1], {-0}
    3a74:	00001041 	andeq	r1, r0, r1, asr #32
    3a78:	0004d013 	andeq	sp, r4, r3, lsl r0
    3a7c:	22b90100 	adcscs	r0, r9, #0, 2
    3a80:	09000007 	stmdbeq	r0, {r0, r1, r2}
    3a84:	2e000029 	cdpcs	0, 0, cr0, cr0, cr9, {1}
    3a88:	00746d66 	rsbseq	r6, r4, r6, ror #26
    3a8c:	0097b901 	addseq	fp, r7, r1, lsl #18
    3a90:	91020000 	mrsls	r0, (UNDEF: 2)
    3a94:	62152f74 	andsvs	r2, r5, #116, 30	; 0x1d0
    3a98:	01006675 	tsteq	r0, r5, ror r6
    3a9c:	001041ba 			; <UNDEFINED> instruction: 0x001041ba
    3aa0:	9c910300 	ldcls	3, cr0, [r1], {0}
    3aa4:	038e187c 	orreq	r1, lr, #124, 16	; 0x7c0000
    3aa8:	bc010000 	stclt	0, cr0, [r1], {-0}
    3aac:	00000106 	andeq	r0, r0, r6, lsl #2
    3ab0:	7c989103 	ldfvcd	f1, [r8], {3}
    3ab4:	007a7316 	rsbseq	r7, sl, r6, lsl r3
    3ab8:	0025be01 	eoreq	fp, r5, r1, lsl #28
    3abc:	29350000 	ldmdbcs	r5!, {}	; <UNPREDICTABLE>
    3ac0:	77290000 	strvc	r0, [r9, -r0]!
    3ac4:	62000001 	andvs	r0, r0, #1
    3ac8:	05000010 	streq	r0, [r0, #-16]
    3acc:	009f7003 	addseq	r7, pc, r3
    3ad0:	99f42500 	ldmibls	r4!, {r8, sl, sp}^
    3ad4:	11d50000 	bicsne	r0, r5, r0
    3ad8:	0fde0000 	svceq	0x00de0000
    3adc:	01200000 	teqeq	r0, r0
    3ae0:	58910253 	ldmpl	r1, {r0, r1, r4, r6, r9}
    3ae4:	03520120 	cmpeq	r2, #32, 2
    3ae8:	20065491 	mulcs	r6, r1, r4
    3aec:	0a035101 	beq	d7ef8 <__bss_end__+0xcdab0>
    3af0:	012001cc 	smlawteq	r0, ip, r1, r0
    3af4:	fc910350 	ldc2	3, cr0, [r1], {80}	; 0x50
    3af8:	0824007b 	stmdaeq	r4!, {r0, r1, r3, r4, r5, r6}
    3afc:	8f00009a 	svchi	0x0000009a
    3b00:	25000011 	strcs	r0, [r0, #-17]
    3b04:	00009a24 	andeq	r9, r0, r4, lsr #20
    3b08:	00001196 	muleq	r0, r6, r1
    3b0c:	00001020 	andeq	r1, r0, r0, lsr #32
    3b10:	02530120 	subseq	r0, r3, #32, 2
    3b14:	0120c008 	teqeq	r0, r8
    3b18:	70030552 	andvc	r0, r3, r2, asr r5
    3b1c:	2000009f 	mulcs	r0, pc, r0	; <UNPREDICTABLE>
    3b20:	03055101 	movweq	r5, #20737	; 0x5101
    3b24:	00009f98 	muleq	r0, r8, pc	; <UNPREDICTABLE>
    3b28:	05500120 	ldrbeq	r0, [r0, #-288]	; 0x120
    3b2c:	009e2003 	addseq	r2, lr, r3
    3b30:	7d022000 	stcvc	0, cr2, [r2, #-0]
    3b34:	24030500 	strcs	r0, [r3], #-1280	; 0x500
    3b38:	000000a0 	andeq	r0, r0, r0, lsr #1
    3b3c:	009a2824 	addseq	r2, sl, r4, lsr #16
    3b40:	0011ac00 	andseq	sl, r1, r0, lsl #24
    3b44:	9a341f00 	bls	d0b74c <__bss_end__+0xd01304>
    3b48:	0eff0000 	cdpeq	0, 15, cr0, cr15, cr0, {0}
    3b4c:	01200000 	teqeq	r0, r0
    3b50:	fc910351 	ldc2	3, cr0, [r1], {81}	; 0x51
    3b54:	5001207b 	andpl	r2, r1, fp, ror r0
    3b58:	00007502 	andeq	r7, r0, r2, lsl #10
    3b5c:	00902a00 	addseq	r2, r0, r0, lsl #20
    3b60:	10520000 	subsne	r0, r2, r0
    3b64:	81300000 	teqhi	r0, r0
    3b68:	cb000000 	blgt	3b70 <_start-0x4490>
    3b6c:	902a0001 	eorls	r0, sl, r1
    3b70:	62000000 	andvs	r0, r0, #0
    3b74:	2b000010 	blcs	3bbc <_start-0x4444>
    3b78:	00000081 	andeq	r0, r0, r1, lsl #1
    3b7c:	5207000e 	andpl	r0, r7, #14
    3b80:	23000010 	movwcs	r0, #16
    3b84:	000008f0 	strdeq	r0, [r0], -r0	; <UNPREDICTABLE>
    3b88:	0025c501 	eoreq	ip, r5, r1, lsl #10
    3b8c:	9a5c0000 	bls	1703b94 <__bss_end__+0x16f974c>
    3b90:	004c0000 	subeq	r0, ip, r0
    3b94:	9c010000 	stcls	0, cr0, [r1], {-0}
    3b98:	00001144 	andeq	r1, r0, r4, asr #2
    3b9c:	01007514 	tsteq	r0, r4, lsl r5
    3ba0:	000722c5 	andeq	r2, r7, r5, asr #5
    3ba4:	00297400 	eoreq	r7, r9, r0, lsl #8
    3ba8:	75621400 	strbvc	r1, [r2, #-1024]!	; 0x400
    3bac:	c5010066 	strgt	r0, [r1, #-102]	; 0x66
    3bb0:	00000c0c 	andeq	r0, r0, ip, lsl #24
    3bb4:	00002995 	muleq	r0, r5, r9
    3bb8:	0008dc13 	andeq	sp, r8, r3, lsl ip
    3bbc:	68c50100 	stmiavs	r5, {r8}^
    3bc0:	b6000000 	strlt	r0, [r0], -r0
    3bc4:	14000029 	strne	r0, [r0], #-41	; 0x29
    3bc8:	00646e65 	rsbeq	r6, r4, r5, ror #28
    3bcc:	004fc501 	subeq	ip, pc, r1, lsl #10
    3bd0:	29d70000 	ldmibcs	r7, {}^	; <UNPREDICTABLE>
    3bd4:	72160000 	andsvc	r0, r6, #0
    3bd8:	01007365 	tsteq	r0, r5, ror #6
    3bdc:	000025c6 	andeq	r2, r0, r6, asr #11
    3be0:	0029f800 	eoreq	pc, r9, r0, lsl #16
    3be4:	01772900 	cmneq	r7, r0, lsl #18
    3be8:	11540000 	cmpne	r4, r0
    3bec:	03050000 	movweq	r0, #20480	; 0x5000
    3bf0:	00009f80 	andeq	r9, r0, r0, lsl #31
    3bf4:	009a7025 	addseq	r7, sl, r5, lsr #32
    3bf8:	000b1e00 	andeq	r1, fp, r0, lsl #28
    3bfc:	00110200 	andseq	r0, r1, r0, lsl #4
    3c00:	52012000 	andpl	r2, r1, #0
    3c04:	5201f303 	andpl	pc, r1, #201326592	; 0xc000000
    3c08:	03510120 	cmpeq	r1, #32, 2
    3c0c:	205101f3 	ldrshcs	r0, [r1], #-19	; 0xffffffed
    3c10:	f3035001 	vhadd.u8	d5, d3, d1
    3c14:	02205001 	eoreq	r5, r0, #1
    3c18:	0902007d 	stmdbeq	r2, {r0, r2, r3, r4, r5, r6}
    3c1c:	7c2400ff 	stcvc	0, cr0, [r4], #-1020	; 0xfffffc04
    3c20:	8f00009a 	svchi	0x0000009a
    3c24:	25000011 	strcs	r0, [r0, #-17]
    3c28:	00009a90 	muleq	r0, r0, sl
    3c2c:	00001196 	muleq	r0, r6, r1
    3c30:	0000113a 	andeq	r1, r0, sl, lsr r1
    3c34:	02530120 	subseq	r0, r3, #32, 2
    3c38:	0120c808 	teqeq	r0, r8, lsl #16
    3c3c:	80030552 	andhi	r0, r3, r2, asr r5
    3c40:	2000009f 	mulcs	r0, pc, r0	; <UNPREDICTABLE>
    3c44:	03055101 	movweq	r5, #20737	; 0x5101
    3c48:	00009f98 	muleq	r0, r8, pc	; <UNPREDICTABLE>
    3c4c:	05500120 	ldrbeq	r0, [r0, #-288]	; 0x120
    3c50:	009fec03 	addseq	lr, pc, r3, lsl #24
    3c54:	94240000 	strtls	r0, [r4], #-0
    3c58:	ac00009a 	stcge	0, cr0, [r0], {154}	; 0x9a
    3c5c:	00000011 	andeq	r0, r0, r1, lsl r0
    3c60:	0000902a 	andeq	r9, r0, sl, lsr #32
    3c64:	00115400 	andseq	r5, r1, r0, lsl #8
    3c68:	00812b00 	addeq	r2, r1, r0, lsl #22
    3c6c:	00160000 	andseq	r0, r6, r0
    3c70:	00114407 	andseq	r4, r1, r7, lsl #8
    3c74:	002f3100 	eoreq	r3, pc, r0, lsl #2
    3c78:	21060000 	mrscs	r0, (UNDEF: 6)
    3c7c:	0000116f 	andeq	r1, r0, pc, ror #2
    3c80:	00002c32 	andeq	r2, r0, r2, lsr ip
    3c84:	002c3200 	eoreq	r3, ip, r0, lsl #4
    3c88:	33000000 	movwcc	r0, #0
    3c8c:	0000060a 	andeq	r0, r0, sl, lsl #12
    3c90:	002c5707 	eoreq	r5, ip, r7, lsl #14
    3c94:	a9340000 	ldmdbge	r4!, {}	; <UNPREDICTABLE>
    3c98:	06000001 	streq	r0, [r0], -r1
    3c9c:	00002524 	andeq	r2, r0, r4, lsr #10
    3ca0:	00118f00 	andseq	r8, r1, r0, lsl #30
    3ca4:	002c3200 	eoreq	r3, ip, r0, lsl #4
    3ca8:	35000000 	strcc	r0, [r0, #-0]
    3cac:	00000134 	andeq	r0, r0, r4, lsr r1
    3cb0:	39341e07 	ldmdbcc	r4!, {r0, r1, r2, r9, sl, fp, ip}
    3cb4:	07000003 	streq	r0, [r0, -r3]
    3cb8:	00002529 	andeq	r2, r0, r9, lsr #10
    3cbc:	0011ac00 	andseq	sl, r1, r0, lsl #24
    3cc0:	00973200 	addseq	r3, r7, r0, lsl #4
    3cc4:	002f0000 	eoreq	r0, pc, r0
    3cc8:	00020c35 	andeq	r0, r2, r5, lsr ip
    3ccc:	31660700 	cmncc	r6, r0, lsl #14
    3cd0:	00000288 	andeq	r0, r0, r8, lsl #5
    3cd4:	11c41d06 	bicne	r1, r4, r6, lsl #26
    3cd8:	2c320000 	ldccs	0, cr0, [r2], #-0
    3cdc:	00000000 	andeq	r0, r0, r0
    3ce0:	00027431 	andeq	r7, r2, r1, lsr r4
    3ce4:	d51c0600 	ldrle	r0, [ip, #-1536]	; 0x600
    3ce8:	32000011 	andcc	r0, r0, #17
    3cec:	0000002c 	andeq	r0, r0, ip, lsr #32
    3cf0:	03363600 	teqeq	r6, #0, 12
    3cf4:	02080000 	andeq	r0, r8, #0
    3cf8:	00000025 	andeq	r0, r0, r5, lsr #32
    3cfc:	00008a32 	andeq	r8, r0, r2, lsr sl
    3d00:	00253200 	eoreq	r3, r5, r0, lsl #4
    3d04:	97320000 	ldrls	r0, [r2, -r0]!
    3d08:	32000000 	andcc	r0, r0, #0
    3d0c:	00000106 	andeq	r0, r0, r6, lsl #2
    3d10:	03ff0000 	mvnseq	r0, #0
    3d14:	00040000 	andeq	r0, r4, r0
    3d18:	00001051 	andeq	r1, r0, r1, asr r0
    3d1c:	02df0104 	sbcseq	r0, pc, #4, 2
    3d20:	e8010000 	stmda	r1, {}	; <UNPREDICTABLE>
    3d24:	4a000009 	bmi	3d50 <_start-0x42b0>
    3d28:	a8000003 	stmdage	r0, {r0, r1}
    3d2c:	5400009a 	strpl	r0, [r0], #-154	; 0x9a
    3d30:	12000001 	andne	r0, r0, #1
    3d34:	0200000f 	andeq	r0, r0, #15
    3d38:	6e690504 	cdpvs	5, 6, cr0, cr9, cr4, {0}
    3d3c:	04030074 	streq	r0, [r3], #-116	; 0x74
    3d40:	00005307 	andeq	r5, r0, r7, lsl #6
    3d44:	06010300 	streq	r0, [r1], -r0, lsl #6
    3d48:	0000022f 	andeq	r0, r0, pc, lsr #4
    3d4c:	3b050203 	blcc	144560 <__bss_end__+0x13a118>
    3d50:	03000002 	movweq	r0, #2
    3d54:	00820504 	addeq	r0, r2, r4, lsl #10
    3d58:	08030000 	stmdaeq	r3, {}	; <UNPREDICTABLE>
    3d5c:	00007d05 	andeq	r7, r0, r5, lsl #26
    3d60:	08010300 	stmdaeq	r1, {r8, r9}
    3d64:	0000022d 	andeq	r0, r0, sp, lsr #4
    3d68:	84070203 	strhi	r0, [r7], #-515	; 0x203
    3d6c:	03000001 	movweq	r0, #1
    3d70:	004e0704 	subeq	r0, lr, r4, lsl #14
    3d74:	08030000 	stmdaeq	r3, {}	; <UNPREDICTABLE>
    3d78:	00004907 	andeq	r4, r0, r7, lsl #18
    3d7c:	07040300 	streq	r0, [r4, -r0, lsl #6]
    3d80:	0000021f 	andeq	r0, r0, pc, lsl r2
    3d84:	36080103 	strcc	r0, [r8], -r3, lsl #2
    3d88:	04000002 	streq	r0, [r0], #-2
    3d8c:	b20c0201 	andlt	r0, ip, #268435456	; 0x10000000
    3d90:	05000000 	streq	r0, [r0, #-0]
    3d94:	0000069f 	muleq	r0, pc, r6	; <UNPREDICTABLE>
    3d98:	077b0500 	ldrbeq	r0, [fp, -r0, lsl #10]!
    3d9c:	05010000 	streq	r0, [r1, #-0]
    3da0:	000007b4 			; <UNDEFINED> instruction: 0x000007b4
    3da4:	07c30504 	strbeq	r0, [r3, r4, lsl #10]
    3da8:	05050000 	streq	r0, [r5, #-0]
    3dac:	000007d2 	ldrdeq	r0, [r0], -r2
    3db0:	07e10506 	strbeq	r0, [r1, r6, lsl #10]!
    3db4:	05070000 	streq	r0, [r7, #-0]
    3db8:	000007f0 	strdeq	r0, [r0], -r0	; <UNPREDICTABLE>
    3dbc:	07ff0503 	ldrbeq	r0, [pc, r3, lsl #10]!
    3dc0:	00020000 	andeq	r0, r2, r0
    3dc4:	0007a806 	andeq	sl, r7, r6, lsl #16
    3dc8:	79150200 	ldmdbvc	r5, {r9}
    3dcc:	07000000 	streq	r0, [r0, -r0]
    3dd0:	0000096f 	andeq	r0, r0, pc, ror #18
    3dd4:	9aa83701 	bls	fea119e0 <__bss_end__+0xfea07598>
    3dd8:	009c0000 	addseq	r0, ip, r0
    3ddc:	9c010000 	stcls	0, cr0, [r1], {-0}
    3de0:	000001c3 	andeq	r0, r0, r3, asr #3
    3de4:	009ab008 	addseq	fp, sl, r8
    3de8:	0003a800 	andeq	sl, r3, r0, lsl #16
    3dec:	9abc0900 	bls	fef061f4 <__bss_end__+0xfeefbdac>
    3df0:	03af0000 			; <UNDEFINED> instruction: 0x03af0000
    3df4:	00f30000 	rscseq	r0, r3, r0
    3df8:	010a0000 	mrseq	r0, (UNDEF: 10)
    3dfc:	0a320151 	beq	c84348 <__bss_end__+0xc79f00>
    3e00:	3e015001 	cdpcc	0, 0, cr5, cr1, cr1, {0}
    3e04:	9ac80900 	bls	ff20620c <__bss_end__+0xff1fbdc4>
    3e08:	03af0000 			; <UNDEFINED> instruction: 0x03af0000
    3e0c:	010b0000 	mrseq	r0, (UNDEF: 11)
    3e10:	010a0000 	mrseq	r0, (UNDEF: 10)
    3e14:	0a320151 	beq	c84360 <__bss_end__+0xc79f18>
    3e18:	3f015001 	svccc	0x00015001
    3e1c:	9acc0800 	bls	ff305e24 <__bss_end__+0xff2fb9dc>
    3e20:	03a80000 			; <UNDEFINED> instruction: 0x03a80000
    3e24:	dc090000 	stcle	0, cr0, [r9], {-0}
    3e28:	c500009a 	strgt	r0, [r0, #-154]	; 0x9a
    3e2c:	28000003 	stmdacs	r0, {r0, r1}
    3e30:	0a000001 	beq	3e3c <_start-0x41c4>
    3e34:	75025001 	strvc	r5, [r2, #-1]
    3e38:	e8090000 	stmda	r9, {}	; <UNPREDICTABLE>
    3e3c:	e600009a 			; <UNDEFINED> instruction: 0xe600009a
    3e40:	3c000003 	stccc	0, cr0, [r0], {3}
    3e44:	0a000001 	beq	3e50 <_start-0x41b0>
    3e48:	75025001 	strvc	r5, [r2, #-1]
    3e4c:	ec080000 	stc	0, cr0, [r8], {-0}
    3e50:	a800009a 	stmdage	r0, {r1, r3, r4, r7}
    3e54:	09000003 	stmdbeq	r0, {r0, r1}
    3e58:	00009af8 	strdeq	r9, [r0], -r8
    3e5c:	000003e6 	andeq	r0, r0, r6, ror #7
    3e60:	00000158 	andeq	r0, r0, r8, asr r1
    3e64:	0151010a 	cmpeq	r1, sl, lsl #2
    3e68:	04090030 	streq	r0, [r9], #-48	; 0x30
    3e6c:	e600009b 			; <UNDEFINED> instruction: 0xe600009b
    3e70:	6b000003 	blvs	3e84 <_start-0x417c>
    3e74:	0a000001 	beq	3e80 <_start-0x4180>
    3e78:	30015101 	andcc	r5, r1, r1, lsl #2
    3e7c:	9b100900 	blls	406284 <__bss_end__+0x3fbe3c>
    3e80:	03e60000 	mvneq	r0, #0
    3e84:	017e0000 	cmneq	lr, r0
    3e88:	010a0000 	mrseq	r0, (UNDEF: 10)
    3e8c:	00360151 	eorseq	r0, r6, r1, asr r1
    3e90:	009b1c09 	addseq	r1, fp, r9, lsl #24
    3e94:	0003e600 	andeq	lr, r3, r0, lsl #12
    3e98:	00019100 	andeq	r9, r1, r0, lsl #2
    3e9c:	51010a00 	tstpl	r1, r0, lsl #20
    3ea0:	09003301 	stmdbeq	r0, {r0, r8, r9, ip, sp}
    3ea4:	00009b28 	andeq	r9, r0, r8, lsr #22
    3ea8:	000003e6 	andeq	r0, r0, r6, ror #7
    3eac:	000001a6 	andeq	r0, r0, r6, lsr #3
    3eb0:	0351010a 	cmpeq	r1, #-2147483646	; 0x80000002
    3eb4:	00010e0a 	andeq	r0, r1, sl, lsl #28
    3eb8:	009b3409 	addseq	r3, fp, r9, lsl #8
    3ebc:	0003e600 	andeq	lr, r3, r0, lsl #12
    3ec0:	0001b900 	andeq	fp, r1, r0, lsl #18
    3ec4:	51010a00 	tstpl	r1, r0, lsl #20
    3ec8:	08003301 	stmdaeq	r0, {r0, r8, r9, ip, sp}
    3ecc:	00009b38 	andeq	r9, r0, r8, lsr fp
    3ed0:	000003a8 	andeq	r0, r0, r8, lsr #7
    3ed4:	09430b00 	stmdbeq	r3, {r8, r9, fp}^
    3ed8:	57010000 	strpl	r0, [r1, -r0]
    3edc:	00000025 	andeq	r0, r0, r5, lsr #32
    3ee0:	00009b44 	andeq	r9, r0, r4, asr #22
    3ee4:	0000001c 	andeq	r0, r0, ip, lsl r0
    3ee8:	01e69c01 	mvneq	r9, r1, lsl #24
    3eec:	54080000 	strpl	r0, [r8], #-0
    3ef0:	c500009b 	strgt	r0, [r0, #-155]	; 0x9b
    3ef4:	00000003 	andeq	r0, r0, r3
    3ef8:	0008600b 	andeq	r6, r8, fp
    3efc:	255d0100 	ldrbcs	r0, [sp, #-256]	; 0x100
    3f00:	60000000 	andvs	r0, r0, r0
    3f04:	2800009b 	stmdacs	r0, {r0, r1, r3, r4, r7}
    3f08:	01000000 	mrseq	r0, (UNDEF: 0)
    3f0c:	0002129c 	muleq	r2, ip, r2
    3f10:	9b680800 	blls	1a05f18 <__bss_end__+0x19fbad0>
    3f14:	01c30000 	biceq	r0, r3, r0
    3f18:	7c080000 	stcvc	0, cr0, [r8], {-0}
    3f1c:	c500009b 	strgt	r0, [r0, #-155]	; 0x9b
    3f20:	00000003 	andeq	r0, r0, r3
    3f24:	0009970b 	andeq	r9, r9, fp, lsl #14
    3f28:	25640100 	strbcs	r0, [r4, #-256]!	; 0x100
    3f2c:	88000000 	stmdahi	r0, {}	; <UNPREDICTABLE>
    3f30:	1c00009b 	stcne	0, cr0, [r0], {155}	; 0x9b
    3f34:	01000000 	mrseq	r0, (UNDEF: 0)
    3f38:	0002359c 	muleq	r2, ip, r5
    3f3c:	9b980800 	blls	fe605f44 <__bss_end__+0xfe5fbafc>
    3f40:	03c50000 	biceq	r0, r5, #0
    3f44:	07000000 	streq	r0, [r0, -r0]
    3f48:	00000531 	andeq	r0, r0, r1, lsr r5
    3f4c:	9ba46a01 	blls	fe91e758 <__bss_end__+0xfe914310>
    3f50:	002c0000 	eoreq	r0, ip, r0
    3f54:	9c010000 	stcls	0, cr0, [r1], {-0}
    3f58:	00000271 	andeq	r0, r0, r1, ror r2
    3f5c:	0100630c 	tsteq	r0, ip, lsl #6
    3f60:	00002c6a 	andeq	r2, r0, sl, ror #24
    3f64:	002a1600 	eoreq	r1, sl, r0, lsl #12
    3f68:	9bb00800 	blls	fec05f70 <__bss_end__+0xfebfbb28>
    3f6c:	02120000 	andseq	r0, r2, #0
    3f70:	c80d0000 	stmdagt	sp, {}	; <UNPREDICTABLE>
    3f74:	e600009b 			; <UNDEFINED> instruction: 0xe600009b
    3f78:	0a000003 	beq	3f8c <_start-0x4074>
    3f7c:	74025101 	strvc	r5, [r2], #-257	; 0x101
    3f80:	0b000000 	bleq	3f88 <_start-0x4078>
    3f84:	00000961 	andeq	r0, r0, r1, ror #18
    3f88:	00257401 	eoreq	r7, r5, r1, lsl #8
    3f8c:	9bd00000 	blls	ff403f94 <__bss_end__+0xff3f9b4c>
    3f90:	000c0000 	andeq	r0, ip, r0
    3f94:	9c010000 	stcls	0, cr0, [r1], {-0}
    3f98:	00000294 	muleq	r0, r4, r2
    3f9c:	009bd808 	addseq	sp, fp, r8, lsl #16
    3fa0:	0001c300 	andeq	ip, r1, r0, lsl #6
    3fa4:	140b0000 	strne	r0, [fp], #-0
    3fa8:	0100000a 	tsteq	r0, sl
    3fac:	00002578 	andeq	r2, r0, r8, ror r5
    3fb0:	009bdc00 	addseq	sp, fp, r0, lsl #24
    3fb4:	00002000 	andeq	r2, r0, r0
    3fb8:	c09c0100 	addsgt	r0, ip, r0, lsl #2
    3fbc:	08000002 	stmdaeq	r0, {r1}
    3fc0:	00009be4 	andeq	r9, r0, r4, ror #23
    3fc4:	00000271 	andeq	r0, r0, r1, ror r2
    3fc8:	009bf008 	addseq	pc, fp, r8
    3fcc:	0001e600 	andeq	lr, r1, r0, lsl #12
    3fd0:	b10e0000 	mrslt	r0, (UNDEF: 14)
    3fd4:	01000009 	tsteq	r0, r9
    3fd8:	0002d116 	andeq	sp, r2, r6, lsl r1
    3fdc:	68030500 	stmdavs	r3, {r8, sl}
    3fe0:	0f00009d 	svceq	0x0000009d
    3fe4:	0002d704 	andeq	sp, r2, r4, lsl #14
    3fe8:	002c1000 	eoreq	r1, ip, r0
    3fec:	a50e0000 	strge	r0, [lr, #-0]
    3ff0:	01000009 	tsteq	r0, r9
    3ff4:	0002d117 	andeq	sp, r2, r7, lsl r1
    3ff8:	38030500 	stmdacc	r3, {r8, sl}
    3ffc:	0e00009d 	mcreq	0, 0, r0, cr0, cr13, {4}
    4000:	00000926 	andeq	r0, r0, r6, lsr #18
    4004:	02d11a01 	sbcseq	r1, r1, #4096	; 0x1000
    4008:	03050000 	movweq	r0, #20480	; 0x5000
    400c:	00009d54 	andeq	r9, r0, r4, asr sp
    4010:	0009790e 	andeq	r7, r9, lr, lsl #18
    4014:	d11b0100 	tstle	fp, r0, lsl #2
    4018:	05000002 	streq	r0, [r0, #-2]
    401c:	009d4003 	addseq	r4, sp, r3
    4020:	09880e00 	stmibeq	r8, {r9, sl, fp}
    4024:	1c010000 	stcne	0, cr0, [r1], {-0}
    4028:	000002d1 	ldrdeq	r0, [r0], -r1
    402c:	9d440305 	stclls	3, cr0, [r4, #-20]	; 0xffffffec
    4030:	f60e0000 			; <UNDEFINED> instruction: 0xf60e0000
    4034:	01000009 	tsteq	r0, r9
    4038:	0002d11d 	andeq	sp, r2, sp, lsl r1
    403c:	48030500 	stmdami	r3, {r8, sl}
    4040:	0e00009d 	mcreq	0, 0, r0, cr0, cr13, {4}
    4044:	00000917 	andeq	r0, r0, r7, lsl r9
    4048:	02d11e01 	sbcseq	r1, r1, #1, 28
    404c:	03050000 	movweq	r0, #20480	; 0x5000
    4050:	00009d64 	andeq	r9, r0, r4, ror #26
    4054:	000a050e 	andeq	r0, sl, lr, lsl #10
    4058:	d11f0100 	tstle	pc, r0, lsl #2
    405c:	05000002 	streq	r0, [r0, #-2]
    4060:	009d5003 	addseq	r5, sp, r3
    4064:	09340e00 	ldmdbeq	r4!, {r9, sl, fp}
    4068:	20010000 	andcs	r0, r1, r0
    406c:	000002d1 	ldrdeq	r0, [r0], -r1
    4070:	9d600305 	stclls	3, cr0, [r0, #-20]!	; 0xffffffec
    4074:	d90e0000 	stmdble	lr, {}	; <UNPREDICTABLE>
    4078:	01000009 	tsteq	r0, r9
    407c:	0002d121 	andeq	sp, r2, r1, lsr #2
    4080:	5c030500 	cfstr32pl	mvfx0, [r3], {-0}
    4084:	0e00009d 	mcreq	0, 0, r0, cr0, cr13, {4}
    4088:	00000951 	andeq	r0, r0, r1, asr r9
    408c:	02d12201 	sbcseq	r2, r1, #268435456	; 0x10000000
    4090:	03050000 	movweq	r0, #20480	; 0x5000
    4094:	00009d3c 	andeq	r9, r0, ip, lsr sp
    4098:	0009c90e 	andeq	ip, r9, lr, lsl #18
    409c:	d1230100 	teqle	r3, r0, lsl #2
    40a0:	05000002 	streq	r0, [r0, #-2]
    40a4:	009d5803 	addseq	r5, sp, r3, lsl #16
    40a8:	09b90e00 	ldmibeq	r9!, {r9, sl, fp}
    40ac:	24010000 	strcs	r0, [r1], #-0
    40b0:	000002d1 	ldrdeq	r0, [r0], -r1
    40b4:	9d4c0305 	stclls	3, cr0, [ip, #-20]	; 0xffffffec
    40b8:	d8110000 	ldmdale	r1, {}	; <UNPREDICTABLE>
    40bc:	03000006 	movweq	r0, #6
    40c0:	06f9128a 	ldrbteq	r1, [r9], sl, lsl #5
    40c4:	19020000 	stmdbne	r2, {}	; <UNPREDICTABLE>
    40c8:	000003c5 	andeq	r0, r0, r5, asr #7
    40cc:	00002c13 	andeq	r2, r0, r3, lsl ip
    40d0:	00b21300 	adcseq	r1, r2, r0, lsl #6
    40d4:	14000000 	strne	r0, [r0], #-0
    40d8:	0000078c 	andeq	r0, r0, ip, lsl #15
    40dc:	002ca903 	eoreq	sl, ip, r3, lsl #18
    40e0:	03da0000 	bicseq	r0, sl, #0
    40e4:	da130000 	ble	4c40ec <__bss_end__+0x4b9ca4>
    40e8:	00000003 	andeq	r0, r0, r3
    40ec:	03e0040f 	mvneq	r0, #251658240	; 0xf000000
    40f0:	e5150000 	ldr	r0, [r5, #-0]
    40f4:	16000003 	strne	r0, [r0], -r3
    40f8:	00067f12 	andeq	r7, r6, r2, lsl pc
    40fc:	fc9d0300 	ldc2	3, cr0, [sp], {0}
    4100:	13000003 	movwne	r0, #3
    4104:	000003fc 	strdeq	r0, [r0], -ip
    4108:	00002c13 	andeq	r2, r0, r3, lsl ip
    410c:	040f0000 	streq	r0, [pc], #-0	; 4114 <_start-0x3eec>
    4110:	000003e5 	andeq	r0, r0, r5, ror #7
    4114:	0001c300 	andeq	ip, r1, r0, lsl #6
    4118:	7f000400 	svcvc	0x00000400
    411c:	04000011 	streq	r0, [r0], #-17
    4120:	0002df01 	andeq	sp, r2, r1, lsl #30
    4124:	0a390100 	beq	e4452c <__bss_end__+0xe3a0e4>
    4128:	034a0000 	movteq	r0, #40960	; 0xa000
    412c:	9c600000 	stclls	0, cr0, [r0], #-0
    4130:	00500000 	subseq	r0, r0, r0
    4134:	10170000 	andsne	r0, r7, r0
    4138:	04020000 	streq	r0, [r2], #-0
    413c:	746e6905 	strbtvc	r6, [lr], #-2309	; 0x905
    4140:	0a240300 	beq	904d48 <__bss_end__+0x8fa900>
    4144:	d4020000 	strle	r0, [r2], #-0
    4148:	00000037 	andeq	r0, r0, r7, lsr r0
    414c:	53070404 	movwpl	r0, #29700	; 0x7404
    4150:	04000000 	streq	r0, [r0], #-0
    4154:	022f0601 	eoreq	r0, pc, #1048576	; 0x100000
    4158:	02040000 	andeq	r0, r4, #0
    415c:	00023b05 	andeq	r3, r2, r5, lsl #22
    4160:	05040400 	streq	r0, [r4, #-1024]	; 0x400
    4164:	00000082 	andeq	r0, r0, r2, lsl #1
    4168:	7d050804 	stcvc	8, cr0, [r5, #-16]
    416c:	03000000 	movweq	r0, #0
    4170:	000002a5 	andeq	r0, r0, r5, lsr #5
    4174:	00652e03 	rsbeq	r2, r5, r3, lsl #28
    4178:	01040000 	mrseq	r0, (UNDEF: 4)
    417c:	00022d08 	andeq	r2, r2, r8, lsl #26
    4180:	07020400 	streq	r0, [r2, -r0, lsl #8]
    4184:	00000184 	andeq	r0, r0, r4, lsl #3
    4188:	00058a03 	andeq	r8, r5, r3, lsl #20
    418c:	7e340300 	cdpvc	3, 3, cr0, cr4, cr0, {0}
    4190:	04000000 	streq	r0, [r0], #-0
    4194:	004e0704 	subeq	r0, lr, r4, lsl #14
    4198:	08040000 	stmdaeq	r4, {}	; <UNPREDICTABLE>
    419c:	00004907 	andeq	r4, r0, r7, lsl #18
    41a0:	07040400 	streq	r0, [r4, -r0, lsl #8]
    41a4:	0000021f 	andeq	r0, r0, pc, lsl r2
    41a8:	01040405 	tsteq	r4, r5, lsl #8
    41ac:	00023608 	andeq	r3, r2, r8, lsl #12
    41b0:	040c0600 	streq	r0, [ip], #-1536	; 0x600
    41b4:	0000d30e 	andeq	sp, r0, lr, lsl #6
    41b8:	78740700 	ldmdavc	r4!, {r8, r9, sl}^
    41bc:	5a0f0400 	bpl	3c51c4 <__bss_end__+0x3bad7c>
    41c0:	00000000 	andeq	r0, r0, r0
    41c4:	00787207 	rsbseq	r7, r8, r7, lsl #4
    41c8:	005a0f04 	subseq	r0, sl, r4, lsl #30
    41cc:	08010000 	stmdaeq	r1, {}	; <UNPREDICTABLE>
    41d0:	00000509 	andeq	r0, r0, r9, lsl #10
    41d4:	00731004 	rsbseq	r1, r3, r4
    41d8:	08040000 	stmdaeq	r4, {}	; <UNPREDICTABLE>
    41dc:	000004ba 			; <UNDEFINED> instruction: 0x000004ba
    41e0:	00731104 	rsbseq	r1, r3, r4, lsl #2
    41e4:	00080000 	andeq	r0, r8, r0
    41e8:	0004f203 	andeq	pc, r4, r3, lsl #4
    41ec:	9c120400 	cfldrsls	mvf0, [r2], {-0}
    41f0:	09000000 	stmdbeq	r0, {}	; <UNPREDICTABLE>
    41f4:	f9100501 			; <UNDEFINED> instruction: 0xf9100501
    41f8:	0a000000 	beq	4200 <_start-0x3e00>
    41fc:	0000050e 	andeq	r0, r0, lr, lsl #10
    4200:	04fc0a01 	ldrbteq	r0, [ip], #2561	; 0xa01
    4204:	0a020000 	beq	8420c <__bss_end__+0x79dc4>
    4208:	000004e4 	andeq	r0, r0, r4, ror #9
    420c:	23030003 	movwcs	r0, #12291	; 0x3003
    4210:	05000005 	streq	r0, [r0, #-5]
    4214:	0000de10 	andeq	sp, r0, r0, lsl lr
    4218:	05140600 	ldreq	r0, [r4, #-1536]	; 0x600
    421c:	00013114 	andeq	r3, r1, r4, lsl r1
    4220:	05930800 	ldreq	r0, [r3, #2048]	; 0x800
    4224:	15050000 	strne	r0, [r5, #-0]
    4228:	00000037 	andeq	r0, r0, r7, lsr r0
    422c:	057e0800 	ldrbeq	r0, [lr, #-2048]!	; 0x800
    4230:	18050000 	stmdane	r5, {}	; <UNPREDICTABLE>
    4234:	000000f9 	strdeq	r0, [r0], -r9
    4238:	05490804 	strbeq	r0, [r9, #-2052]	; 0x804
    423c:	1b050000 	blne	144244 <__bss_end__+0x139dfc>
    4240:	000000d3 	ldrdeq	r0, [r0], -r3
    4244:	3b030008 	blcc	c426c <__bss_end__+0xb9e24>
    4248:	05000005 	streq	r0, [r0, #-5]
    424c:	00010420 	andeq	r0, r1, r0, lsr #8
    4250:	0a320b00 	beq	c86e58 <__bss_end__+0xc7ca10>
    4254:	05010000 	streq	r0, [r1, #-0]
    4258:	0000017e 	andeq	r0, r0, lr, ror r1
    425c:	00009c60 	andeq	r9, r0, r0, ror #24
    4260:	00000028 	andeq	r0, r0, r8, lsr #32
    4264:	017e9c01 	cmneq	lr, r1, lsl #24
    4268:	630c0000 	movwvs	r0, #49152	; 0xc000
    426c:	7e060100 	adfvcs	f0, f6, f0
    4270:	00000001 	andeq	r0, r0, r1
    4274:	0d090000 	stceq	0, cr0, [r9, #-0]
    4278:	00009c74 	andeq	r9, r0, r4, ror ip
    427c:	000001ab 	andeq	r0, r0, fp, lsr #3
    4280:	0152010e 	cmpeq	r2, lr, lsl #2
    4284:	51010e34 	tstpl	r1, r4, lsr lr
    4288:	010e3001 	tsteq	lr, r1
    428c:	47420350 	smlsldmi	r0, r2, r0, r3
    4290:	0f000024 	svceq	0x00000024
    4294:	00013104 	andeq	r3, r1, r4, lsl #2
    4298:	05510b00 	ldrbeq	r0, [r1, #-2816]	; 0xb00
    429c:	0c010000 	stceq	0, cr0, [r1], {-0}
    42a0:	0000017e 	andeq	r0, r0, lr, ror r1
    42a4:	00009c88 	andeq	r9, r0, r8, lsl #25
    42a8:	00000028 	andeq	r0, r0, r8, lsr #32
    42ac:	01ab9c01 			; <UNDEFINED> instruction: 0x01ab9c01
    42b0:	630c0000 	movwvs	r0, #49152	; 0xc000
    42b4:	7e0d0100 	adfvce	f0, f5, f0
    42b8:	00000001 	andeq	r0, r0, r1
    42bc:	00090000 	andeq	r0, r9, r0
    42c0:	000a2b10 	andeq	r2, sl, r0, lsl fp
    42c4:	931b0600 	tstls	fp, #0, 12
    42c8:	11000000 	mrsne	r0, (UNDEF: 0)
    42cc:	00000093 	muleq	r0, r3, r0
    42d0:	00002511 	andeq	r2, r0, r1, lsl r5
    42d4:	002c1100 	eoreq	r1, ip, r0, lsl #2
    42d8:	00000000 	andeq	r0, r0, r0
    42dc:	000000db 	ldrdeq	r0, [r0], -fp
    42e0:	12630004 	rsbne	r0, r3, #4
    42e4:	01040000 	mrseq	r0, (UNDEF: 4)
    42e8:	000002df 	ldrdeq	r0, [r0], -pc	; <UNPREDICTABLE>
    42ec:	000a5401 	andeq	r5, sl, r1, lsl #8
    42f0:	00034a00 	andeq	r4, r3, r0, lsl #20
    42f4:	009cb000 	addseq	fp, ip, r0
    42f8:	00002000 	andeq	r2, r0, r0
    42fc:	00114300 	andseq	r4, r1, r0, lsl #6
    4300:	06010200 	streq	r0, [r1], -r0, lsl #4
    4304:	0000022f 	andeq	r0, r0, pc, lsr #4
    4308:	2d080102 	stfcss	f0, [r8, #-8]
    430c:	02000002 	andeq	r0, r0, #2
    4310:	023b0502 	eorseq	r0, fp, #8388608	; 0x800000
    4314:	02020000 	andeq	r0, r2, #0
    4318:	00018407 	andeq	r8, r1, r7, lsl #8
    431c:	05040300 	streq	r0, [r4, #-768]	; 0x300
    4320:	00746e69 	rsbseq	r6, r4, r9, ror #28
    4324:	53070402 	movwpl	r0, #29698	; 0x7402
    4328:	02000000 	andeq	r0, r0, #0
    432c:	007d0508 	rsbseq	r0, sp, r8, lsl #10
    4330:	08020000 	stmdaeq	r2, {}	; <UNPREDICTABLE>
    4334:	00004907 	andeq	r4, r0, r7, lsl #18
    4338:	05040200 	streq	r0, [r4, #-512]	; 0x200
    433c:	00000082 	andeq	r0, r0, r2, lsl #1
    4340:	1f070402 	svcne	0x00070402
    4344:	04000002 	streq	r0, [r0], #-2
    4348:	07040204 	streq	r0, [r4, -r4, lsl #4]
    434c:	0000004e 	andeq	r0, r0, lr, asr #32
    4350:	007a0405 	rsbseq	r0, sl, r5, lsl #8
    4354:	01020000 	mrseq	r0, (UNDEF: 2)
    4358:	00023608 	andeq	r3, r2, r8, lsl #12
    435c:	0a240600 	beq	905b64 <__bss_end__+0x8fb71c>
    4360:	d4020000 	strle	r0, [r2], #-0
    4364:	00000048 	andeq	r0, r0, r8, asr #32
    4368:	000a2b07 	andeq	r2, sl, r7, lsl #22
    436c:	6b1b0300 	blvs	6c4f74 <__bss_end__+0x6bab2c>
    4370:	b0000000 	andlt	r0, r0, r0
    4374:	2000009c 	mulcs	r0, ip, r0
    4378:	01000000 	mrseq	r0, (UNDEF: 0)
    437c:	705f089c 			; <UNDEFINED> instruction: 0x705f089c
    4380:	6b030100 	blvs	c4788 <__bss_end__+0xba340>
    4384:	01000000 	mrseq	r0, (UNDEF: 0)
    4388:	00630850 	rsbeq	r0, r3, r0, asr r8
    438c:	00410301 	subeq	r0, r1, r1, lsl #6
    4390:	51010000 	mrspl	r0, (UNDEF: 1)
    4394:	01006e09 	tsteq	r0, r9, lsl #28
    4398:	00008103 	andeq	r8, r0, r3, lsl #2
    439c:	002a3400 	eoreq	r3, sl, r0, lsl #8
    43a0:	00700a00 	rsbseq	r0, r0, r0, lsl #20
    43a4:	00740401 	rsbseq	r0, r4, r1, lsl #8
    43a8:	2a550000 	bcs	15443b0 <__bss_end__+0x1539f68>
    43ac:	650b0000 	strvs	r0, [fp, #-0]
    43b0:	74040100 	strvc	r0, [r4], #-256	; 0x100
    43b4:	01000000 	mrseq	r0, (UNDEF: 0)
    43b8:	Address 0x00000000000043b8 is out of bounds.


Disassembly of section .debug_abbrev:

00000000 <.debug_abbrev>:
       0:	25011101 	strcs	r1, [r1, #-257]	; 0x101
       4:	030b130e 	movweq	r1, #45838	; 0xb30e
       8:	110e1b0e 	tstne	lr, lr, lsl #22
       c:	10061201 	andne	r1, r6, r1, lsl #4
      10:	02000017 	andeq	r0, r0, #23
      14:	0b0b0024 	bleq	2c00ac <__bss_end__+0x2b5c64>
      18:	08030b3e 	stmdaeq	r3, {r1, r2, r3, r4, r5, r8, r9, fp}
      1c:	24030000 	strcs	r0, [r3], #-0
      20:	3e0b0b00 	vmlacc.f64	d0, d11, d0
      24:	000e030b 	andeq	r0, lr, fp, lsl #6
      28:	00160400 	andseq	r0, r6, r0, lsl #8
      2c:	0b3a0e03 	bleq	e83840 <__bss_end__+0xe793f8>
      30:	13490b3b 	movtne	r0, #39739	; 0x9b3b
      34:	0f050000 	svceq	0x00050000
      38:	490b0b00 	stmdbmi	fp, {r8, r9, fp}
      3c:	06000013 			; <UNDEFINED> instruction: 0x06000013
      40:	13490026 	movtne	r0, #36902	; 0x9026
      44:	2e070000 	cdpcs	0, 0, cr0, cr7, cr0, {0}
      48:	3a0e0301 	bcc	380c54 <__bss_end__+0x37680c>
      4c:	270b3b0b 	strcs	r3, [fp, -fp, lsl #22]
      50:	010b2019 	tsteq	fp, r9, lsl r0
      54:	08000013 	stmdaeq	r0, {r0, r1, r4}
      58:	08030005 	stmdaeq	r3, {r0, r2}
      5c:	0b3b0b3a 	bleq	ec2d4c <__bss_end__+0xeb8904>
      60:	00001349 	andeq	r1, r0, r9, asr #6
      64:	3f012e09 	svccc	0x00012e09
      68:	3a0e0319 	bcc	380cd4 <__bss_end__+0x37688c>
      6c:	270b3b0b 	strcs	r3, [fp, -fp, lsl #22]
      70:	20134919 	andscs	r4, r3, r9, lsl r9
      74:	0013010b 	andseq	r0, r3, fp, lsl #2
      78:	00340a00 	eorseq	r0, r4, r0, lsl #20
      7c:	0b3a0e03 	bleq	e83890 <__bss_end__+0xe79448>
      80:	13490b3b 	movtne	r0, #39739	; 0x9b3b
      84:	340b0000 	strcc	r0, [fp], #-0
      88:	3a080300 	bcc	200c90 <__bss_end__+0x1f6848>
      8c:	490b3b0b 	stmdbmi	fp, {r0, r1, r3, r8, r9, fp, ip, sp}
      90:	0c000013 	stceq	0, cr0, [r0], {19}
      94:	1301010b 	movwne	r0, #4363	; 0x110b
      98:	0b0d0000 	bleq	3400a0 <__bss_end__+0x335c58>
      9c:	0e000001 	cdpeq	0, 0, cr0, cr0, cr1, {0}
      a0:	1331012e 	teqne	r1, #-2147483637	; 0x8000000b
      a4:	06120111 			; <UNDEFINED> instruction: 0x06120111
      a8:	42971840 	addsmi	r1, r7, #64, 16	; 0x400000
      ac:	00130119 	andseq	r0, r3, r9, lsl r1
      b0:	00340f00 	eorseq	r0, r4, r0, lsl #30
      b4:	17021331 	smladxne	r2, r1, r3, r1
      b8:	34100000 	ldrcc	r0, [r0], #-0
      bc:	00133100 	andseq	r3, r3, r0, lsl #2
      c0:	00341100 	eorseq	r1, r4, r0, lsl #2
      c4:	18021331 	stmdane	r2, {r0, r4, r5, r8, r9, ip}
      c8:	05120000 	ldreq	r0, [r2, #-0]
      cc:	1c133100 	ldfnes	f3, [r3], {-0}
      d0:	1300000b 	movwne	r0, #11
      d4:	0111010b 	tsteq	r1, fp, lsl #2
      d8:	13010612 	movwne	r0, #5650	; 0x1612
      dc:	0b140000 	bleq	5000e4 <__bss_end__+0x4f5c9c>
      e0:	12011101 	andne	r1, r1, #1073741824	; 0x40000000
      e4:	15000006 	strne	r0, [r0, #-6]
      e8:	193f012e 	ldmdbne	pc!, {r1, r2, r3, r5, r8}	; <UNPREDICTABLE>
      ec:	0b3a0e03 	bleq	e83900 <__bss_end__+0xe794b8>
      f0:	19270b3b 	stmdbne	r7!, {r0, r1, r3, r4, r5, r8, r9, fp}
      f4:	01111349 	tsteq	r1, r9, asr #6
      f8:	18400612 	stmdane	r0, {r1, r4, r9, sl}^
      fc:	01194297 			; <UNDEFINED> instruction: 0x01194297
     100:	16000013 			; <UNDEFINED> instruction: 0x16000013
     104:	08030005 	stmdaeq	r3, {r0, r2}
     108:	0b3b0b3a 	bleq	ec2df8 <__bss_end__+0xeb89b0>
     10c:	17021349 	strne	r1, [r2, -r9, asr #6]
     110:	34170000 	ldrcc	r0, [r7], #-0
     114:	490e0300 	stmdbmi	lr, {r8, r9}
     118:	02193413 	andseq	r3, r9, #318767104	; 0x13000000
     11c:	18000018 	stmdane	r0, {r3, r4}
     120:	0e030034 	mcreq	0, 0, r0, cr3, cr4, {1}
     124:	0b3b0b3a 	bleq	ec2e14 <__bss_end__+0xeb89cc>
     128:	17021349 	strne	r1, [r2, -r9, asr #6]
     12c:	89190000 	ldmdbhi	r9, {}	; <UNPREDICTABLE>
     130:	11010182 	smlabbne	r1, r2, r1, r0
     134:	01133101 	tsteq	r3, r1, lsl #2
     138:	1a000013 	bne	18c <_start-0x7e74>
     13c:	0001828a 	andeq	r8, r1, sl, lsl #5
     140:	42911802 	addsmi	r1, r1, #131072	; 0x20000
     144:	1b000018 	blne	1ac <_start-0x7e54>
     148:	00018289 	andeq	r8, r1, r9, lsl #5
     14c:	13310111 	teqne	r1, #1073741828	; 0x40000004
     150:	011c0000 	tsteq	ip, r0
     154:	01134901 	tsteq	r3, r1, lsl #18
     158:	1d000013 	stcne	0, cr0, [r0, #-76]	; 0xffffffb4
     15c:	13490021 	movtne	r0, #36897	; 0x9021
     160:	00000b2f 	andeq	r0, r0, pc, lsr #22
     164:	3100051e 	tstcc	r0, lr, lsl r5
     168:	00170213 	andseq	r0, r7, r3, lsl r2
     16c:	00341f00 	eorseq	r1, r4, r0, lsl #30
     170:	0b1c1331 	bleq	704e3c <__bss_end__+0x6fa9f4>
     174:	2e200000 	cdpcs	0, 2, cr0, cr0, cr0, {0}
     178:	03193f01 	tsteq	r9, #1, 30
     17c:	3b0b3a0e 	blcc	2ce9bc <__bss_end__+0x2c4574>
     180:	1119270b 	tstne	r9, fp, lsl #14
     184:	40061201 	andmi	r1, r6, r1, lsl #4
     188:	19429718 	stmdbne	r2, {r3, r4, r8, r9, sl, ip, pc}^
     18c:	00001301 	andeq	r1, r0, r1, lsl #6
     190:	03000521 	movweq	r0, #1313	; 0x521
     194:	3b0b3a0e 	blcc	2ce9d4 <__bss_end__+0x2c458c>
     198:	0213490b 	andseq	r4, r3, #180224	; 0x2c000
     19c:	22000017 	andcs	r0, r0, #23
     1a0:	08030034 	stmdaeq	r3, {r2, r4, r5}
     1a4:	0b3b0b3a 	bleq	ec2e94 <__bss_end__+0xeb8a4c>
     1a8:	0b1c1349 	bleq	704ed4 <__bss_end__+0x6faa8c>
     1ac:	1d230000 	stcne	0, cr0, [r3, #-0]
     1b0:	11133101 	tstne	r3, r1, lsl #2
     1b4:	58061201 	stmdapl	r6, {r0, r9, ip}
     1b8:	010b590b 	tsteq	fp, fp, lsl #18
     1bc:	24000013 	strcs	r0, [r0], #-19
     1c0:	1331011d 	teqne	r1, #1073741831	; 0x40000007
     1c4:	06120111 			; <UNDEFINED> instruction: 0x06120111
     1c8:	0b590b58 	bleq	1642f30 <__bss_end__+0x1638ae8>
     1cc:	05250000 	streq	r0, [r5, #-0]!
     1d0:	02133100 	andseq	r3, r3, #0, 2
     1d4:	26000018 			; <UNDEFINED> instruction: 0x26000018
     1d8:	1755010b 	ldrbne	r0, [r5, -fp, lsl #2]
     1dc:	00001301 	andeq	r1, r0, r1, lsl #6
     1e0:	31011d27 	tstcc	r1, r7, lsr #26
     1e4:	55015213 	strpl	r5, [r1, #-531]	; 0x213
     1e8:	590b5817 	stmdbpl	fp, {r0, r1, r2, r4, fp, ip, lr}
     1ec:	2800000b 	stmdacs	r0, {r0, r1, r3}
     1f0:	1331011d 	teqne	r1, #1073741831	; 0x40000007
     1f4:	17550152 			; <UNDEFINED> instruction: 0x17550152
     1f8:	0b590b58 	bleq	1642f60 <__bss_end__+0x1638b18>
     1fc:	00001301 	andeq	r1, r0, r1, lsl #6
     200:	01828929 	orreq	r8, r2, r9, lsr #18
     204:	31011101 	tstcc	r1, r1, lsl #2
     208:	2a000013 	bcs	25c <_start-0x7da4>
     20c:	0e030034 	mcreq	0, 0, r0, cr3, cr4, {1}
     210:	0b3b0b3a 	bleq	ec2f00 <__bss_end__+0xeb8ab8>
     214:	061c1349 	ldreq	r1, [ip], -r9, asr #6
     218:	352b0000 	strcc	r0, [fp, #-0]!
     21c:	00134900 	andseq	r4, r3, r0, lsl #18
     220:	012e2c00 	teqeq	lr, r0, lsl #24
     224:	0e03193f 	mcreq	9, 0, r1, cr3, cr15, {1}
     228:	0b3b0b3a 	bleq	ec2f18 <__bss_end__+0xeb8ad0>
     22c:	193c1927 	ldmdbne	ip!, {r0, r1, r2, r5, r8, fp, ip}
     230:	00001301 	andeq	r1, r0, r1, lsl #6
     234:	4900052d 	stmdbmi	r0, {r0, r2, r3, r5, r8, sl}
     238:	2e000013 	mcrcs	0, 0, r0, cr0, cr3, {0}
     23c:	193f002e 	ldmdbne	pc!, {r1, r2, r3, r5}	; <UNPREDICTABLE>
     240:	0b3a0e03 	bleq	e83a54 <__bss_end__+0xe7960c>
     244:	19270b3b 	stmdbne	r7!, {r0, r1, r3, r4, r5, r8, r9, fp}
     248:	0000193c 	andeq	r1, r0, ip, lsr r9
     24c:	3f012e2f 	svccc	0x00012e2f
     250:	3a0e0319 	bcc	380ebc <__bss_end__+0x376a74>
     254:	270b3b0b 	strcs	r3, [fp, -fp, lsl #22]
     258:	3c134919 	ldccc	9, cr4, [r3], {25}
     25c:	00130119 	andseq	r0, r3, r9, lsl r1
     260:	00183000 	andseq	r3, r8, r0
     264:	2e310000 	cdpcs	0, 3, cr0, cr1, cr0, {0}
     268:	03193f01 	tsteq	r9, #1, 30
     26c:	3b0b3a0e 	blcc	2ceaac <__bss_end__+0x2c4664>
     270:	4919270b 	ldmdbmi	r9, {r0, r1, r3, r8, r9, sl, sp}
     274:	00193c13 	andseq	r3, r9, r3, lsl ip
     278:	11010000 	mrsne	r0, (UNDEF: 1)
     27c:	130e2501 	movwne	r2, #58625	; 0xe501
     280:	1b0e030b 	blne	380eb4 <__bss_end__+0x376a6c>
     284:	1201110e 	andne	r1, r1, #-2147483645	; 0x80000003
     288:	00171006 	andseq	r1, r7, r6
     28c:	00160200 	andseq	r0, r6, r0, lsl #4
     290:	0b3a0e03 	bleq	e83aa4 <__bss_end__+0xe7965c>
     294:	13490b3b 	movtne	r0, #39739	; 0x9b3b
     298:	13030000 	movwne	r0, #12288	; 0x3000
     29c:	0b0e0301 	bleq	380ea8 <__bss_end__+0x376a60>
     2a0:	3b0b3a0b 	blcc	2cead4 <__bss_end__+0x2c468c>
     2a4:	0013010b 	andseq	r0, r3, fp, lsl #2
     2a8:	000d0400 	andeq	r0, sp, r0, lsl #8
     2ac:	13490e03 	movtne	r0, #40451	; 0x9e03
     2b0:	19340b38 	ldmdbne	r4!, {r3, r4, r5, r8, r9, fp}
     2b4:	0f050000 	svceq	0x00050000
     2b8:	000b0b00 	andeq	r0, fp, r0, lsl #22
     2bc:	00240600 	eoreq	r0, r4, r0, lsl #12
     2c0:	0b3e0b0b 	bleq	f82ef4 <__bss_end__+0xf78aac>
     2c4:	00000803 	andeq	r0, r0, r3, lsl #16
     2c8:	0b002407 	bleq	92ec <gpio_int_falling_edge+0xc>
     2cc:	030b3e0b 	movweq	r3, #48651	; 0xbe0b
     2d0:	0800000e 	stmdaeq	r0, {r1, r2, r3}
     2d4:	0b0b000f 	bleq	2c0318 <__bss_end__+0x2b5ed0>
     2d8:	00001349 	andeq	r1, r0, r9, asr #6
     2dc:	49002609 	stmdbmi	r0, {r0, r3, r9, sl, sp}
     2e0:	0a000013 	beq	334 <_start-0x7ccc>
     2e4:	193f012e 	ldmdbne	pc!, {r1, r2, r3, r5, r8}	; <UNPREDICTABLE>
     2e8:	0b3a0e03 	bleq	e83afc <__bss_end__+0xe796b4>
     2ec:	19270b3b 	stmdbne	r7!, {r0, r1, r3, r4, r5, r8, r9, fp}
     2f0:	01111349 	tsteq	r1, r9, asr #6
     2f4:	18400612 	stmdane	r0, {r1, r4, r9, sl}^
     2f8:	01194297 			; <UNDEFINED> instruction: 0x01194297
     2fc:	0b000013 	bleq	350 <_start-0x7cb0>
     300:	08030005 	stmdaeq	r3, {r0, r2}
     304:	0b3b0b3a 	bleq	ec2ff4 <__bss_end__+0xeb8bac>
     308:	18021349 	stmdane	r2, {r0, r3, r6, r8, r9, ip}
     30c:	180c0000 	stmdane	ip, {}	; <UNPREDICTABLE>
     310:	0d000000 	stceq	0, cr0, [r0, #-0]
     314:	08030034 	stmdaeq	r3, {r2, r4, r5}
     318:	0b3b0b3a 	bleq	ec3008 <__bss_end__+0xeb8bc0>
     31c:	18021349 	stmdane	r2, {r0, r3, r6, r8, r9, ip}
     320:	340e0000 	strcc	r0, [lr], #-0
     324:	3a0e0300 	bcc	380f2c <__bss_end__+0x376ae4>
     328:	490b3b0b 	stmdbmi	fp, {r0, r1, r3, r8, r9, fp, ip, sp}
     32c:	00180213 	andseq	r0, r8, r3, lsl r2
     330:	00340f00 	eorseq	r0, r4, r0, lsl #30
     334:	0b3a0803 	bleq	e82348 <__bss_end__+0xe77f00>
     338:	13490b3b 	movtne	r0, #39739	; 0x9b3b
     33c:	00001702 	andeq	r1, r0, r2, lsl #14
     340:	01828910 	orreq	r8, r2, r0, lsl r9
     344:	31011101 	tstcc	r1, r1, lsl #2
     348:	00130113 	andseq	r0, r3, r3, lsl r1
     34c:	828a1100 	addhi	r1, sl, #0, 2
     350:	18020001 	stmdane	r2, {r0}
     354:	00184291 	mulseq	r8, r1, r2
     358:	82891200 	addhi	r1, r9, #0, 4
     35c:	01110101 	tsteq	r1, r1, lsl #2
     360:	01130000 	tsteq	r3, r0
     364:	01134901 	tsteq	r3, r1, lsl #18
     368:	14000013 	strne	r0, [r0], #-19
     36c:	13490021 	movtne	r0, #36897	; 0x9021
     370:	0000052f 	andeq	r0, r0, pc, lsr #10
     374:	27011515 	smladcs	r1, r5, r5, r1
     378:	01134919 	tsteq	r3, r9, lsl r9
     37c:	16000013 			; <UNDEFINED> instruction: 0x16000013
     380:	13490005 	movtne	r0, #36869	; 0x9005
     384:	34170000 	ldrcc	r0, [r7], #-0
     388:	3a0e0300 	bcc	380f90 <__bss_end__+0x376b48>
     38c:	490b3b0b 	stmdbmi	fp, {r0, r1, r3, r8, r9, fp, ip, sp}
     390:	3c193f13 	ldccc	15, cr3, [r9], {19}
     394:	18000019 	stmdane	r0, {r0, r3, r4}
     398:	193f012e 	ldmdbne	pc!, {r1, r2, r3, r5, r8}	; <UNPREDICTABLE>
     39c:	0b3a0e03 	bleq	e83bb0 <__bss_end__+0xe79768>
     3a0:	19270b3b 	stmdbne	r7!, {r0, r1, r3, r4, r5, r8, r9, fp}
     3a4:	193c1349 	ldmdbne	ip!, {r0, r3, r6, r8, r9, ip}
     3a8:	01000000 	mrseq	r0, (UNDEF: 0)
     3ac:	0e250111 	mcreq	1, 1, r0, cr5, cr1, {0}
     3b0:	0e030b13 	vmoveq.32	d3[0], r0
     3b4:	01110e1b 	tsteq	r1, fp, lsl lr
     3b8:	17100612 			; <UNDEFINED> instruction: 0x17100612
     3bc:	24020000 	strcs	r0, [r2], #-0
     3c0:	3e0b0b00 	vmlacc.f64	d0, d11, d0
     3c4:	0008030b 	andeq	r0, r8, fp, lsl #6
     3c8:	00240300 	eoreq	r0, r4, r0, lsl #6
     3cc:	0b3e0b0b 	bleq	f83000 <__bss_end__+0xf78bb8>
     3d0:	00000e03 	andeq	r0, r0, r3, lsl #28
     3d4:	03012e04 	movweq	r2, #7684	; 0x1e04
     3d8:	3b0b3a0e 	blcc	2cec18 <__bss_end__+0x2c47d0>
     3dc:	4919270b 	ldmdbmi	r9, {r0, r1, r3, r8, r9, sl, sp}
     3e0:	12011113 	andne	r1, r1, #-1073741820	; 0xc0000004
     3e4:	97184006 	ldrls	r4, [r8, -r6]
     3e8:	13011942 	movwne	r1, #6466	; 0x1942
     3ec:	05050000 	streq	r0, [r5, #-0]
     3f0:	3a080300 	bcc	200ff8 <__bss_end__+0x1f6bb0>
     3f4:	490b3b0b 	stmdbmi	fp, {r0, r1, r3, r8, r9, fp, ip, sp}
     3f8:	00170213 	andseq	r0, r7, r3, lsl r2
     3fc:	82890600 	addhi	r0, r9, #0, 12
     400:	01110101 	tsteq	r1, r1, lsl #2
     404:	00001331 	andeq	r1, r0, r1, lsr r3
     408:	01828a07 	orreq	r8, r2, r7, lsl #20
     40c:	91180200 	tstls	r8, r0, lsl #4
     410:	00001842 	andeq	r1, r0, r2, asr #16
     414:	3f002e08 	svccc	0x00002e08
     418:	3a0e0319 	bcc	381084 <__bss_end__+0x376c3c>
     41c:	270b3b0b 	strcs	r3, [fp, -fp, lsl #22]
     420:	12011119 	andne	r1, r1, #1073741830	; 0x40000006
     424:	97184006 	ldrls	r4, [r8, -r6]
     428:	00001942 	andeq	r1, r0, r2, asr #18
     42c:	3f012e09 	svccc	0x00012e09
     430:	3a0e0319 	bcc	38109c <__bss_end__+0x376c54>
     434:	270b3b0b 	strcs	r3, [fp, -fp, lsl #22]
     438:	12011119 	andne	r1, r1, #1073741830	; 0x40000006
     43c:	97184006 	ldrls	r4, [r8, -r6]
     440:	13011942 	movwne	r1, #6466	; 0x1942
     444:	050a0000 	streq	r0, [sl, #-0]
     448:	3a080300 	bcc	201050 <__bss_end__+0x1f6c08>
     44c:	490b3b0b 	stmdbmi	fp, {r0, r1, r3, r8, r9, fp, ip, sp}
     450:	00180213 	andseq	r0, r8, r3, lsl r2
     454:	01150b00 	tsteq	r5, r0, lsl #22
     458:	13491927 	movtne	r1, #39207	; 0x9927
     45c:	00001301 	andeq	r1, r0, r1, lsl #6
     460:	4900050c 	stmdbmi	r0, {r2, r3, r8, sl}
     464:	0d000013 	stceq	0, cr0, [r0, #-76]	; 0xffffffb4
     468:	0b0b000f 	bleq	2c04ac <__bss_end__+0x2b6064>
     46c:	00001349 	andeq	r1, r0, r9, asr #6
     470:	0300340e 	movweq	r3, #1038	; 0x40e
     474:	3b0b3a0e 	blcc	2cecb4 <__bss_end__+0x2c486c>
     478:	3f13490b 	svccc	0x0013490b
     47c:	00180219 	andseq	r0, r8, r9, lsl r2
     480:	012e0f00 	teqeq	lr, r0, lsl #30
     484:	0e03193f 	mcreq	9, 0, r1, cr3, cr15, {1}
     488:	0b3b0b3a 	bleq	ec3178 <__bss_end__+0xeb8d30>
     48c:	193c1927 	ldmdbne	ip!, {r0, r1, r2, r5, r8, fp, ip}
     490:	01000000 	mrseq	r0, (UNDEF: 0)
     494:	0e250111 	mcreq	1, 1, r0, cr5, cr1, {0}
     498:	0e030b13 	vmoveq.32	d3[0], r0
     49c:	01110e1b 	tsteq	r1, fp, lsl lr
     4a0:	17100612 			; <UNDEFINED> instruction: 0x17100612
     4a4:	24020000 	strcs	r0, [r2], #-0
     4a8:	3e0b0b00 	vmlacc.f64	d0, d11, d0
     4ac:	0008030b 	andeq	r0, r8, fp, lsl #6
     4b0:	00240300 	eoreq	r0, r4, r0, lsl #6
     4b4:	0b3e0b0b 	bleq	f830e8 <__bss_end__+0xf78ca0>
     4b8:	00000e03 	andeq	r0, r0, r3, lsl #28
     4bc:	0b000f04 	bleq	40d4 <_start-0x3f2c>
     4c0:	0013490b 	andseq	r4, r3, fp, lsl #18
     4c4:	00260500 	eoreq	r0, r6, r0, lsl #10
     4c8:	00001349 	andeq	r1, r0, r9, asr #6
     4cc:	3f012e06 	svccc	0x00012e06
     4d0:	3a0e0319 	bcc	38113c <__bss_end__+0x376cf4>
     4d4:	270b3b0b 	strcs	r3, [fp, -fp, lsl #22]
     4d8:	11134919 	tstne	r3, r9, lsl r9
     4dc:	40061201 	andmi	r1, r6, r1, lsl #4
     4e0:	19429618 	stmdbne	r2, {r3, r4, r9, sl, ip, pc}^
     4e4:	00001301 	andeq	r1, r0, r1, lsl #6
     4e8:	03000507 	movweq	r0, #1287	; 0x507
     4ec:	3b0b3a08 	blcc	2ced14 <__bss_end__+0x2c48cc>
     4f0:	0213490b 	andseq	r4, r3, #180224	; 0x2c000
     4f4:	08000017 	stmdaeq	r0, {r0, r1, r2, r4}
     4f8:	19270115 	stmdbne	r7!, {r0, r2, r4, r8}
     4fc:	13011349 	movwne	r1, #4937	; 0x1349
     500:	05090000 	streq	r0, [r9, #-0]
     504:	00134900 	andseq	r4, r3, r0, lsl #18
     508:	00340a00 	eorseq	r0, r4, r0, lsl #20
     50c:	0b3a0e03 	bleq	e83d20 <__bss_end__+0xe798d8>
     510:	13490b3b 	movtne	r0, #39739	; 0x9b3b
     514:	193c193f 	ldmdbne	ip!, {r0, r1, r2, r3, r4, r5, r8, fp, ip}
     518:	340b0000 	strcc	r0, [fp], #-0
     51c:	3a0e0300 	bcc	381124 <__bss_end__+0x376cdc>
     520:	490b3b0b 	stmdbmi	fp, {r0, r1, r3, r8, r9, fp, ip, sp}
     524:	02193f13 	andseq	r3, r9, #19, 30	; 0x4c
     528:	00000018 	andeq	r0, r0, r8, lsl r0
     52c:	25011101 	strcs	r1, [r1, #-257]	; 0x101
     530:	030b130e 	movweq	r1, #45838	; 0xb30e
     534:	110e1b0e 	tstne	lr, lr, lsl #22
     538:	10061201 	andne	r1, r6, r1, lsl #4
     53c:	02000017 	andeq	r0, r0, #23
     540:	0b0b0024 	bleq	2c05d8 <__bss_end__+0x2b6190>
     544:	08030b3e 	stmdaeq	r3, {r1, r2, r3, r4, r5, r8, r9, fp}
     548:	24030000 	strcs	r0, [r3], #-0
     54c:	3e0b0b00 	vmlacc.f64	d0, d11, d0
     550:	000e030b 	andeq	r0, lr, fp, lsl #6
     554:	000f0400 	andeq	r0, pc, r0, lsl #8
     558:	00000b0b 	andeq	r0, r0, fp, lsl #22
     55c:	0b000f05 	bleq	4178 <_start-0x3e88>
     560:	0013490b 	andseq	r4, r3, fp, lsl #18
     564:	00260600 	eoreq	r0, r6, r0, lsl #12
     568:	00001349 	andeq	r1, r0, r9, asr #6
     56c:	03001607 	movweq	r1, #1543	; 0x607
     570:	3b0b3a0e 	blcc	2cedb0 <__bss_end__+0x2c4968>
     574:	0013490b 	andseq	r4, r3, fp, lsl #18
     578:	01130800 	tsteq	r3, r0, lsl #16
     57c:	0b0b0e03 	bleq	2c3d90 <__bss_end__+0x2b9948>
     580:	0b3b0b3a 	bleq	ec3270 <__bss_end__+0xeb8e28>
     584:	00001301 	andeq	r1, r0, r1, lsl #6
     588:	03000d09 	movweq	r0, #3337	; 0xd09
     58c:	3813490e 	ldmdacc	r3, {r1, r2, r3, r8, fp, lr}
     590:	0019340b 	andseq	r3, r9, fp, lsl #8
     594:	012e0a00 	teqeq	lr, r0, lsl #20
     598:	0b3a0e03 	bleq	e83dac <__bss_end__+0xe79964>
     59c:	19270b3b 	stmdbne	r7!, {r0, r1, r3, r4, r5, r8, r9, fp}
     5a0:	01111349 	tsteq	r1, r9, asr #6
     5a4:	18400612 	stmdane	r0, {r1, r4, r9, sl}^
     5a8:	01194297 			; <UNDEFINED> instruction: 0x01194297
     5ac:	0b000013 	bleq	600 <_start-0x7a00>
     5b0:	08030005 	stmdaeq	r3, {r0, r2}
     5b4:	0b3b0b3a 	bleq	ec32a4 <__bss_end__+0xeb8e5c>
     5b8:	17021349 	strne	r1, [r2, -r9, asr #6]
     5bc:	2e0c0000 	cdpcs	0, 0, cr0, cr12, cr0, {0}
     5c0:	3a080301 	bcc	2011cc <__bss_end__+0x1f6d84>
     5c4:	270b3b0b 	strcs	r3, [fp, -fp, lsl #22]
     5c8:	11134919 	tstne	r3, r9, lsl r9
     5cc:	40061201 	andmi	r1, r6, r1, lsl #4
     5d0:	19429718 	stmdbne	r2, {r3, r4, r8, r9, sl, ip, pc}^
     5d4:	00001301 	andeq	r1, r0, r1, lsl #6
     5d8:	0300050d 	movweq	r0, #1293	; 0x50d
     5dc:	3b0b3a0e 	blcc	2cee1c <__bss_end__+0x2c49d4>
     5e0:	0213490b 	andseq	r4, r3, #180224	; 0x2c000
     5e4:	0e000017 	mcreq	0, 0, r0, cr0, cr7, {0}
     5e8:	0e030005 	cdpeq	0, 0, cr0, cr3, cr5, {0}
     5ec:	0b3b0b3a 	bleq	ec32dc <__bss_end__+0xeb8e94>
     5f0:	18021349 	stmdane	r2, {r0, r3, r6, r8, r9, ip}
     5f4:	340f0000 	strcc	r0, [pc], #-0	; 5fc <_start-0x7a04>
     5f8:	3a080300 	bcc	201200 <__bss_end__+0x1f6db8>
     5fc:	490b3b0b 	stmdbmi	fp, {r0, r1, r3, r8, r9, fp, ip, sp}
     600:	00180213 	andseq	r0, r8, r3, lsl r2
     604:	00341000 	eorseq	r1, r4, r0
     608:	0b3a0803 	bleq	e8261c <__bss_end__+0xe781d4>
     60c:	13490b3b 	movtne	r0, #39739	; 0x9b3b
     610:	00001702 	andeq	r1, r0, r2, lsl #14
     614:	03003411 	movweq	r3, #1041	; 0x411
     618:	3413490e 	ldrcc	r4, [r3], #-2318	; 0x90e
     61c:	00180219 	andseq	r0, r8, r9, lsl r2
     620:	010b1200 	mrseq	r1, R11_fiq
     624:	06120111 			; <UNDEFINED> instruction: 0x06120111
     628:	00001301 	andeq	r1, r0, r1, lsl #6
     62c:	03003413 	movweq	r3, #1043	; 0x413
     630:	3b0b3a0e 	blcc	2cee70 <__bss_end__+0x2c4a28>
     634:	0213490b 	andseq	r4, r3, #180224	; 0x2c000
     638:	14000017 	strne	r0, [r0], #-23
     63c:	00018289 	andeq	r8, r1, r9, lsl #5
     640:	13310111 	teqne	r1, #1073741828	; 0x40000004
     644:	89150000 	ldmdbhi	r5, {}	; <UNPREDICTABLE>
     648:	11010182 	smlabbne	r1, r2, r1, r0
     64c:	01133101 	tsteq	r3, r1, lsl #2
     650:	16000013 			; <UNDEFINED> instruction: 0x16000013
     654:	0001828a 	andeq	r8, r1, sl, lsl #5
     658:	42911802 	addsmi	r1, r1, #131072	; 0x20000
     65c:	17000018 	smladne	r0, r8, r0, r0
     660:	01018289 	smlabbeq	r1, r9, r2, r8
     664:	13310111 	teqne	r1, #1073741828	; 0x40000004
     668:	01180000 	tsteq	r8, r0
     66c:	01134901 	tsteq	r3, r1, lsl #18
     670:	19000013 	stmdbne	r0, {r0, r1, r4}
     674:	13490021 	movtne	r0, #36897	; 0x9021
     678:	00000b2f 	andeq	r0, r0, pc, lsr #22
     67c:	3f012e1a 	svccc	0x00012e1a
     680:	3a0e0319 	bcc	3812ec <__bss_end__+0x376ea4>
     684:	270b3b0b 	strcs	r3, [fp, -fp, lsl #22]
     688:	12011119 	andne	r1, r1, #1073741830	; 0x40000006
     68c:	97184006 	ldrls	r4, [r8, -r6]
     690:	13011942 	movwne	r1, #6466	; 0x1942
     694:	151b0000 	ldrne	r0, [fp, #-0]
     698:	49192701 	ldmdbmi	r9, {r0, r8, r9, sl, sp}
     69c:	00130113 	andseq	r0, r3, r3, lsl r1
     6a0:	00051c00 	andeq	r1, r5, r0, lsl #24
     6a4:	00001349 	andeq	r1, r0, r9, asr #6
     6a8:	3f012e1d 	svccc	0x00012e1d
     6ac:	3a0e0319 	bcc	381318 <__bss_end__+0x376ed0>
     6b0:	270b3b0b 	strcs	r3, [fp, -fp, lsl #22]
     6b4:	11134919 	tstne	r3, r9, lsl r9
     6b8:	40061201 	andmi	r1, r6, r1, lsl #4
     6bc:	19429718 	stmdbne	r2, {r3, r4, r8, r9, sl, ip, pc}^
     6c0:	00001301 	andeq	r1, r0, r1, lsl #6
     6c4:	55010b1e 	strpl	r0, [r1, #-2846]	; 0xb1e
     6c8:	1f000017 	svcne	0x00000017
     6cc:	0e030034 	mcreq	0, 0, r0, cr3, cr4, {1}
     6d0:	0b3b0b3a 	bleq	ec33c0 <__bss_end__+0xeb8f78>
     6d4:	193f1349 	ldmdbne	pc!, {r0, r3, r6, r8, r9, ip}	; <UNPREDICTABLE>
     6d8:	0000193c 	andeq	r1, r0, ip, lsr r9
     6dc:	3f002e20 	svccc	0x00002e20
     6e0:	3a0e0319 	bcc	38134c <__bss_end__+0x376f04>
     6e4:	270b3b0b 	strcs	r3, [fp, -fp, lsl #22]
     6e8:	00193c19 	andseq	r3, r9, r9, lsl ip
     6ec:	012e2100 	teqeq	lr, r0, lsl #2
     6f0:	0e03193f 	mcreq	9, 0, r1, cr3, cr15, {1}
     6f4:	0b3b0b3a 	bleq	ec33e4 <__bss_end__+0xeb8f9c>
     6f8:	13491927 	movtne	r1, #39207	; 0x9927
     6fc:	1301193c 	movwne	r1, #6460	; 0x193c
     700:	18220000 	stmdane	r2!, {}	; <UNPREDICTABLE>
     704:	00000000 	andeq	r0, r0, r0
     708:	25011101 	strcs	r1, [r1, #-257]	; 0x101
     70c:	030b130e 	movweq	r1, #45838	; 0xb30e
     710:	110e1b0e 	tstne	lr, lr, lsl #22
     714:	10061201 	andne	r1, r6, r1, lsl #4
     718:	02000017 	andeq	r0, r0, #23
     71c:	0b0b0024 	bleq	2c07b4 <__bss_end__+0x2b636c>
     720:	08030b3e 	stmdaeq	r3, {r1, r2, r3, r4, r5, r8, r9, fp}
     724:	24030000 	strcs	r0, [r3], #-0
     728:	3e0b0b00 	vmlacc.f64	d0, d11, d0
     72c:	000e030b 	andeq	r0, lr, fp, lsl #6
     730:	012e0400 	teqeq	lr, r0, lsl #8
     734:	0e03193f 	mcreq	9, 0, r1, cr3, cr15, {1}
     738:	0b3b0b3a 	bleq	ec3428 <__bss_end__+0xeb8fe0>
     73c:	01111927 	tsteq	r1, r7, lsr #18
     740:	18400612 	stmdane	r0, {r1, r4, r9, sl}^
     744:	01194297 			; <UNDEFINED> instruction: 0x01194297
     748:	05000013 	streq	r0, [r0, #-19]
     74c:	08030034 	stmdaeq	r3, {r2, r4, r5}
     750:	0b3b0b3a 	bleq	ec3440 <__bss_end__+0xeb8ff8>
     754:	17021349 	strne	r1, [r2, -r9, asr #6]
     758:	2e060000 	cdpcs	0, 0, cr0, cr6, cr0, {0}
     75c:	03193f01 	tsteq	r9, #1, 30
     760:	3b0b3a0e 	blcc	2cefa0 <__bss_end__+0x2c4b58>
     764:	1119270b 	tstne	r9, fp, lsl #14
     768:	40061201 	andmi	r1, r6, r1, lsl #4
     76c:	19429718 	stmdbne	r2, {r3, r4, r8, r9, sl, ip, pc}^
     770:	01000000 	mrseq	r0, (UNDEF: 0)
     774:	0e250111 	mcreq	1, 1, r0, cr5, cr1, {0}
     778:	0e030b13 	vmoveq.32	d3[0], r0
     77c:	01110e1b 	tsteq	r1, fp, lsl lr
     780:	17100612 			; <UNDEFINED> instruction: 0x17100612
     784:	24020000 	strcs	r0, [r2], #-0
     788:	3e0b0b00 	vmlacc.f64	d0, d11, d0
     78c:	0008030b 	andeq	r0, r8, fp, lsl #6
     790:	00240300 	eoreq	r0, r4, r0, lsl #6
     794:	0b3e0b0b 	bleq	f833c8 <__bss_end__+0xf78f80>
     798:	00000e03 	andeq	r0, r0, r3, lsl #28
     79c:	0b000f04 	bleq	43b4 <_start-0x3c4c>
     7a0:	0013490b 	andseq	r4, r3, fp, lsl #18
     7a4:	00260500 	eoreq	r0, r6, r0, lsl #10
     7a8:	00001349 	andeq	r1, r0, r9, asr #6
     7ac:	3f012e06 	svccc	0x00012e06
     7b0:	3a0e0319 	bcc	38141c <__bss_end__+0x376fd4>
     7b4:	270b3b0b 	strcs	r3, [fp, -fp, lsl #22]
     7b8:	12011119 	andne	r1, r1, #1073741830	; 0x40000006
     7bc:	97184006 	ldrls	r4, [r8, -r6]
     7c0:	13011942 	movwne	r1, #6466	; 0x1942
     7c4:	89070000 	stmdbhi	r7, {}	; <UNPREDICTABLE>
     7c8:	11010182 	smlabbne	r1, r2, r1, r0
     7cc:	00130101 	andseq	r0, r3, r1, lsl #2
     7d0:	828a0800 	addhi	r0, sl, #0, 16
     7d4:	18020001 	stmdane	r2, {r0}
     7d8:	00184291 	mulseq	r8, r1, r2
     7dc:	82890900 	addhi	r0, r9, #0, 18
     7e0:	01110101 	tsteq	r1, r1, lsl #2
     7e4:	13011331 	movwne	r1, #4913	; 0x1331
     7e8:	890a0000 	stmdbhi	sl, {}	; <UNPREDICTABLE>
     7ec:	11000182 	smlabbne	r0, r2, r1, r0
     7f0:	00133101 	andseq	r3, r3, r1, lsl #2
     7f4:	01150b00 	tsteq	r5, r0, lsl #22
     7f8:	13491927 	movtne	r1, #39207	; 0x9927
     7fc:	00001301 	andeq	r1, r0, r1, lsl #6
     800:	4900050c 	stmdbmi	r0, {r2, r3, r8, sl}
     804:	0d000013 	stceq	0, cr0, [r0, #-76]	; 0xffffffb4
     808:	0e030034 	mcreq	0, 0, r0, cr3, cr4, {1}
     80c:	0b3b0b3a 	bleq	ec34fc <__bss_end__+0xeb90b4>
     810:	193f1349 	ldmdbne	pc!, {r0, r3, r6, r8, r9, ip}	; <UNPREDICTABLE>
     814:	0000193c 	andeq	r1, r0, ip, lsr r9
     818:	3f012e0e 	svccc	0x00012e0e
     81c:	3a0e0319 	bcc	381488 <__bss_end__+0x377040>
     820:	270b3b0b 	strcs	r3, [fp, -fp, lsl #22]
     824:	01193c19 	tsteq	r9, r9, lsl ip
     828:	0f000013 	svceq	0x00000013
     82c:	193f002e 	ldmdbne	pc!, {r1, r2, r3, r5}	; <UNPREDICTABLE>
     830:	0b3a0e03 	bleq	e84044 <__bss_end__+0xe79bfc>
     834:	19270b3b 	stmdbne	r7!, {r0, r1, r3, r4, r5, r8, r9, fp}
     838:	0000193c 	andeq	r1, r0, ip, lsr r9
     83c:	01110100 	tsteq	r1, r0, lsl #2
     840:	0b130e25 	bleq	4c40dc <__bss_end__+0x4b9c94>
     844:	0e1b0e03 	cdpeq	14, 1, cr0, cr11, cr3, {0}
     848:	06120111 			; <UNDEFINED> instruction: 0x06120111
     84c:	00001710 	andeq	r1, r0, r0, lsl r7
     850:	0b002402 	bleq	9860 <sw_uart_gets_timeout+0x60>
     854:	030b3e0b 	movweq	r3, #48651	; 0xbe0b
     858:	03000008 	movweq	r0, #8
     85c:	0b0b0024 	bleq	2c08f4 <__bss_end__+0x2b64ac>
     860:	0e030b3e 	vmoveq.16	d3[0], r0
     864:	16040000 	strne	r0, [r4], -r0
     868:	3a0e0300 	bcc	381470 <__bss_end__+0x377028>
     86c:	490b3b0b 	stmdbmi	fp, {r0, r1, r3, r8, r9, fp, ip, sp}
     870:	05000013 	streq	r0, [r0, #-19]
     874:	0b0b000f 	bleq	2c08b8 <__bss_end__+0x2b6470>
     878:	00001349 	andeq	r1, r0, r9, asr #6
     87c:	49002606 	stmdbmi	r0, {r1, r2, r9, sl, sp}
     880:	07000013 	smladeq	r0, r3, r0, r0
     884:	0b0b0113 	bleq	2c0cd8 <__bss_end__+0x2b6890>
     888:	0b3b0b3a 	bleq	ec3578 <__bss_end__+0xeb9130>
     88c:	00001301 	andeq	r1, r0, r1, lsl #6
     890:	03000d08 	movweq	r0, #3336	; 0xd08
     894:	3b0b3a08 	blcc	2cf0bc <__bss_end__+0x2c4c74>
     898:	3813490b 	ldmdacc	r3, {r0, r1, r3, r8, fp, lr}
     89c:	0900000b 	stmdbeq	r0, {r0, r1, r3}
     8a0:	0e03000d 	cdpeq	0, 0, cr0, cr3, cr13, {0}
     8a4:	0b3b0b3a 	bleq	ec3594 <__bss_end__+0xeb914c>
     8a8:	0b381349 	bleq	e055d4 <__bss_end__+0xdfb18c>
     8ac:	040a0000 	streq	r0, [sl], #-0
     8b0:	3a0b0b01 	bcc	2c34bc <__bss_end__+0x2b9074>
     8b4:	010b3b0b 	tsteq	fp, fp, lsl #22
     8b8:	0b000013 	bleq	90c <_start-0x76f4>
     8bc:	0e030028 	cdpeq	0, 0, cr0, cr3, cr8, {1}
     8c0:	00000d1c 	andeq	r0, r0, ip, lsl sp
     8c4:	03012e0c 	movweq	r2, #7692	; 0x1e0c
     8c8:	3b0b3a0e 	blcc	2cf108 <__bss_end__+0x2c4cc0>
     8cc:	4919270b 	ldmdbmi	r9, {r0, r1, r3, r8, r9, sl, sp}
     8d0:	12011113 	andne	r1, r1, #-1073741820	; 0xc0000004
     8d4:	97184006 	ldrls	r4, [r8, -r6]
     8d8:	13011942 	movwne	r1, #6466	; 0x1942
     8dc:	050d0000 	streq	r0, [sp, #-0]
     8e0:	3a080300 	bcc	2014e8 <__bss_end__+0x1f70a0>
     8e4:	490b3b0b 	stmdbmi	fp, {r0, r1, r3, r8, r9, fp, ip, sp}
     8e8:	00170213 	andseq	r0, r7, r3, lsl r2
     8ec:	82890e00 	addhi	r0, r9, #0, 28
     8f0:	01110101 	tsteq	r1, r1, lsl #2
     8f4:	00001331 	andeq	r1, r0, r1, lsr r3
     8f8:	01828a0f 	orreq	r8, r2, pc, lsl #20
     8fc:	91180200 	tstls	r8, r0, lsl #4
     900:	00001842 	andeq	r1, r0, r2, asr #16
     904:	3f012e10 	svccc	0x00012e10
     908:	3a0e0319 	bcc	381574 <__bss_end__+0x37712c>
     90c:	110b3b0b 	tstne	fp, fp, lsl #22
     910:	40061201 	andmi	r1, r6, r1, lsl #4
     914:	19429718 	stmdbne	r2, {r3, r4, r8, r9, sl, ip, pc}^
     918:	00001301 	andeq	r1, r0, r1, lsl #6
     91c:	03003411 	movweq	r3, #1041	; 0x411
     920:	3b0b3a0e 	blcc	2cf160 <__bss_end__+0x2c4d18>
     924:	3f13490b 	svccc	0x0013490b
     928:	00193c19 	andseq	r3, r9, r9, lsl ip
     92c:	002e1200 	eoreq	r1, lr, r0, lsl #4
     930:	0e03193f 	mcreq	9, 0, r1, cr3, cr15, {1}
     934:	0b3b0b3a 	bleq	ec3624 <__bss_end__+0xeb91dc>
     938:	193c1927 	ldmdbne	ip!, {r0, r1, r2, r5, r8, fp, ip}
     93c:	34130000 	ldrcc	r0, [r3], #-0
     940:	3a080300 	bcc	201548 <__bss_end__+0x1f7100>
     944:	490b3b0b 	stmdbmi	fp, {r0, r1, r3, r8, r9, fp, ip, sp}
     948:	00170213 	andseq	r0, r7, r3, lsl r2
     94c:	00341400 	eorseq	r1, r4, r0, lsl #8
     950:	0b3a0e03 	bleq	e84164 <__bss_end__+0xe79d1c>
     954:	13490b3b 	movtne	r0, #39739	; 0x9b3b
     958:	89150000 	ldmdbhi	r5, {}	; <UNPREDICTABLE>
     95c:	11000182 	smlabbne	r0, r2, r1, r0
     960:	00133101 	andseq	r3, r3, r1, lsl #2
     964:	82891600 	addhi	r1, r9, #0, 12
     968:	01110101 	tsteq	r1, r1, lsl #2
     96c:	13011331 	movwne	r1, #4913	; 0x1331
     970:	34170000 	ldrcc	r0, [r7], #-0
     974:	3a0e0300 	bcc	38157c <__bss_end__+0x377134>
     978:	490b3b0b 	stmdbmi	fp, {r0, r1, r3, r8, r9, fp, ip, sp}
     97c:	00180213 	andseq	r0, r8, r3, lsl r2
     980:	01151800 	tsteq	r5, r0, lsl #16
     984:	13491927 	movtne	r1, #39207	; 0x9927
     988:	00001301 	andeq	r1, r0, r1, lsl #6
     98c:	49000519 	stmdbmi	r0, {r0, r3, r4, r8, sl}
     990:	1a000013 	bne	9e4 <_start-0x761c>
     994:	193f012e 	ldmdbne	pc!, {r1, r2, r3, r5, r8}	; <UNPREDICTABLE>
     998:	0b3a0e03 	bleq	e841ac <__bss_end__+0xe79d64>
     99c:	19270b3b 	stmdbne	r7!, {r0, r1, r3, r4, r5, r8, r9, fp}
     9a0:	1301193c 	movwne	r1, #6460	; 0x193c
     9a4:	2e1b0000 	cdpcs	0, 1, cr0, cr11, cr0, {0}
     9a8:	03193f00 	tsteq	r9, #0, 30
     9ac:	3b0b3a0e 	blcc	2cf1ec <__bss_end__+0x2c4da4>
     9b0:	4919270b 	ldmdbmi	r9, {r0, r1, r3, r8, r9, sl, sp}
     9b4:	00193c13 	andseq	r3, r9, r3, lsl ip
     9b8:	012e1c00 	teqeq	lr, r0, lsl #24
     9bc:	0e03193f 	mcreq	9, 0, r1, cr3, cr15, {1}
     9c0:	0b3b0b3a 	bleq	ec36b0 <__bss_end__+0xeb9268>
     9c4:	13491927 	movtne	r1, #39207	; 0x9927
     9c8:	1301193c 	movwne	r1, #6460	; 0x193c
     9cc:	181d0000 	ldmdane	sp, {}	; <UNPREDICTABLE>
     9d0:	00000000 	andeq	r0, r0, r0
     9d4:	25011101 	strcs	r1, [r1, #-257]	; 0x101
     9d8:	030b130e 	movweq	r1, #45838	; 0xb30e
     9dc:	550e1b0e 	strpl	r1, [lr, #-2830]	; 0xb0e
     9e0:	10011117 	andne	r1, r1, r7, lsl r1
     9e4:	02000017 	andeq	r0, r0, #23
     9e8:	0b0b0024 	bleq	2c0a80 <__bss_end__+0x2b6638>
     9ec:	08030b3e 	stmdaeq	r3, {r1, r2, r3, r4, r5, r8, r9, fp}
     9f0:	24030000 	strcs	r0, [r3], #-0
     9f4:	3e0b0b00 	vmlacc.f64	d0, d11, d0
     9f8:	000e030b 	andeq	r0, lr, fp, lsl #6
     9fc:	012e0400 	teqeq	lr, r0, lsl #8
     a00:	0e03193f 	mcreq	9, 0, r1, cr3, cr15, {1}
     a04:	0b3b0b3a 	bleq	ec36f4 <__bss_end__+0xeb92ac>
     a08:	13491927 	movtne	r1, #39207	; 0x9927
     a0c:	06120111 			; <UNDEFINED> instruction: 0x06120111
     a10:	42971840 	addsmi	r1, r7, #64, 16	; 0x400000
     a14:	00130119 	andseq	r0, r3, r9, lsl r1
     a18:	00340500 	eorseq	r0, r4, r0, lsl #10
     a1c:	0b3a0e03 	bleq	e84230 <__bss_end__+0xe79de8>
     a20:	13490b3b 	movtne	r0, #39739	; 0x9b3b
     a24:	00001702 	andeq	r1, r0, r2, lsl #14
     a28:	3f012e06 	svccc	0x00012e06
     a2c:	3a0e0319 	bcc	381698 <__bss_end__+0x377250>
     a30:	270b3b0b 	strcs	r3, [fp, -fp, lsl #22]
     a34:	12011119 	andne	r1, r1, #1073741830	; 0x40000006
     a38:	97184006 	ldrls	r4, [r8, -r6]
     a3c:	13011942 	movwne	r1, #6466	; 0x1942
     a40:	34070000 	strcc	r0, [r7], #-0
     a44:	3a0e0300 	bcc	38164c <__bss_end__+0x377204>
     a48:	490b3b0b 	stmdbmi	fp, {r0, r1, r3, r8, r9, fp, ip, sp}
     a4c:	00061c13 	andeq	r1, r6, r3, lsl ip
     a50:	00340800 	eorseq	r0, r4, r0, lsl #16
     a54:	0b3a0e03 	bleq	e84268 <__bss_end__+0xe79e20>
     a58:	13490b3b 	movtne	r0, #39739	; 0x9b3b
     a5c:	00000b1c 	andeq	r0, r0, ip, lsl fp
     a60:	01828909 	orreq	r8, r2, r9, lsl #18
     a64:	31011100 	mrscc	r1, (UNDEF: 17)
     a68:	0a000013 	beq	abc <_start-0x7544>
     a6c:	01018289 	smlabbeq	r1, r9, r2, r8
     a70:	13310111 	teqne	r1, #1073741828	; 0x40000004
     a74:	00001301 	andeq	r1, r0, r1, lsl #6
     a78:	01828a0b 	orreq	r8, r2, fp, lsl #20
     a7c:	91180200 	tstls	r8, r0, lsl #4
     a80:	00001842 	andeq	r1, r0, r2, asr #16
     a84:	0182890c 	orreq	r8, r2, ip, lsl #18
     a88:	31011101 	tstcc	r1, r1, lsl #2
     a8c:	0d000013 	stceq	0, cr0, [r0, #-76]	; 0xffffffb4
     a90:	13490026 	movtne	r0, #36902	; 0x9026
     a94:	2e0e0000 	cdpcs	0, 0, cr0, cr14, cr0, {0}
     a98:	03193f01 	tsteq	r9, #1, 30
     a9c:	3b0b3a0e 	blcc	2cf2dc <__bss_end__+0x2c4e94>
     aa0:	3c19270b 	ldccc	7, cr2, [r9], {11}
     aa4:	00130119 	andseq	r0, r3, r9, lsl r1
     aa8:	00050f00 	andeq	r0, r5, r0, lsl #30
     aac:	00001349 	andeq	r1, r0, r9, asr #6
     ab0:	3f012e10 	svccc	0x00012e10
     ab4:	3a0e0319 	bcc	381720 <__bss_end__+0x3772d8>
     ab8:	270b3b0b 	strcs	r3, [fp, -fp, lsl #22]
     abc:	00193c19 	andseq	r3, r9, r9, lsl ip
     ac0:	11010000 	mrsne	r0, (UNDEF: 1)
     ac4:	130e2501 	movwne	r2, #58625	; 0xe501
     ac8:	1b0e030b 	blne	3816fc <__bss_end__+0x3772b4>
     acc:	1201110e 	andne	r1, r1, #-2147483645	; 0x80000003
     ad0:	00171006 	andseq	r1, r7, r6
     ad4:	00240200 	eoreq	r0, r4, r0, lsl #4
     ad8:	0b3e0b0b 	bleq	f8370c <__bss_end__+0xf792c4>
     adc:	00000803 	andeq	r0, r0, r3, lsl #16
     ae0:	0b002403 	bleq	9af4 <uart_init+0x4c>
     ae4:	030b3e0b 	movweq	r3, #48651	; 0xbe0b
     ae8:	0400000e 	streq	r0, [r0], #-14
     aec:	193f012e 	ldmdbne	pc!, {r1, r2, r3, r5, r8}	; <UNPREDICTABLE>
     af0:	0b3a0e03 	bleq	e84304 <__bss_end__+0xe79ebc>
     af4:	19270b3b 	stmdbne	r7!, {r0, r1, r3, r4, r5, r8, r9, fp}
     af8:	06120111 			; <UNDEFINED> instruction: 0x06120111
     afc:	42971840 	addsmi	r1, r7, #64, 16	; 0x400000
     b00:	00130119 	andseq	r0, r3, r9, lsl r1
     b04:	00050500 	andeq	r0, r5, r0, lsl #10
     b08:	0b3a0e03 	bleq	e8431c <__bss_end__+0xe79ed4>
     b0c:	13490b3b 	movtne	r0, #39739	; 0x9b3b
     b10:	00001702 	andeq	r1, r0, r2, lsl #14
     b14:	3f012e06 	svccc	0x00012e06
     b18:	3a0e0319 	bcc	381784 <__bss_end__+0x37733c>
     b1c:	270b3b0b 	strcs	r3, [fp, -fp, lsl #22]
     b20:	11134919 	tstne	r3, r9, lsl r9
     b24:	40061201 	andmi	r1, r6, r1, lsl #4
     b28:	19429718 	stmdbne	r2, {r3, r4, r8, r9, sl, ip, pc}^
     b2c:	00001301 	andeq	r1, r0, r1, lsl #6
     b30:	01828907 	orreq	r8, r2, r7, lsl #18
     b34:	31011101 	tstcc	r1, r1, lsl #2
     b38:	08000013 	stmdaeq	r0, {r0, r1, r4}
     b3c:	0001828a 	andeq	r8, r1, sl, lsl #5
     b40:	42911802 	addsmi	r1, r1, #131072	; 0x20000
     b44:	09000018 	stmdbeq	r0, {r3, r4}
     b48:	08030034 	stmdaeq	r3, {r2, r4, r5}
     b4c:	0b3b0b3a 	bleq	ec383c <__bss_end__+0xeb93f4>
     b50:	18021349 	stmdane	r2, {r0, r3, r6, r8, r9, ip}
     b54:	890a0000 	stmdbhi	sl, {}	; <UNPREDICTABLE>
     b58:	11000182 	smlabbne	r0, r2, r1, r0
     b5c:	00133101 	andseq	r3, r3, r1, lsl #2
     b60:	00050b00 	andeq	r0, r5, r0, lsl #22
     b64:	0b3a0803 	bleq	e82b78 <__bss_end__+0xe78730>
     b68:	13490b3b 	movtne	r0, #39739	; 0x9b3b
     b6c:	00001702 	andeq	r1, r0, r2, lsl #14
     b70:	11010b0c 	tstne	r1, ip, lsl #22
     b74:	01061201 	tsteq	r6, r1, lsl #4
     b78:	0d000013 	stceq	0, cr0, [r0, #-76]	; 0xffffffb4
     b7c:	08030034 	stmdaeq	r3, {r2, r4, r5}
     b80:	0b3b0b3a 	bleq	ec3870 <__bss_end__+0xeb9428>
     b84:	17021349 	strne	r1, [r2, -r9, asr #6]
     b88:	2e0e0000 	cdpcs	0, 0, cr0, cr14, cr0, {0}
     b8c:	03193f01 	tsteq	r9, #1, 30
     b90:	3b0b3a0e 	blcc	2cf3d0 <__bss_end__+0x2c4f88>
     b94:	4919270b 	ldmdbmi	r9, {r0, r1, r3, r8, r9, sl, sp}
     b98:	00193c13 	andseq	r3, r9, r3, lsl ip
     b9c:	00050f00 	andeq	r0, r5, r0, lsl #30
     ba0:	00001349 	andeq	r1, r0, r9, asr #6
     ba4:	01110100 	tsteq	r1, r0, lsl #2
     ba8:	0b130e25 	bleq	4c4444 <__bss_end__+0x4b9ffc>
     bac:	0e1b0e03 	cdpeq	14, 1, cr0, cr11, cr3, {0}
     bb0:	06120111 			; <UNDEFINED> instruction: 0x06120111
     bb4:	00001710 	andeq	r1, r0, r0, lsl r7
     bb8:	0b002402 	bleq	9bc8 <uart_putc+0x24>
     bbc:	030b3e0b 	movweq	r3, #48651	; 0xbe0b
     bc0:	0300000e 	movweq	r0, #14
     bc4:	0b0b0024 	bleq	2c0c5c <__bss_end__+0x2b6814>
     bc8:	08030b3e 	stmdaeq	r3, {r1, r2, r3, r4, r5, r8, r9, fp}
     bcc:	04040000 	streq	r0, [r4], #-0
     bd0:	3a0b0b01 	bcc	2c37dc <__bss_end__+0x2b9394>
     bd4:	010b3b0b 	tsteq	fp, fp, lsl #22
     bd8:	05000013 	streq	r0, [r0, #-19]
     bdc:	0e030028 	cdpeq	0, 0, cr0, cr3, cr8, {1}
     be0:	00000d1c 	andeq	r0, r0, ip, lsl sp
     be4:	03001606 	movweq	r1, #1542	; 0x606
     be8:	3b0b3a0e 	blcc	2cf428 <__bss_end__+0x2c4fe0>
     bec:	0013490b 	andseq	r4, r3, fp, lsl #18
     bf0:	012e0700 	teqeq	lr, r0, lsl #14
     bf4:	0e03193f 	mcreq	9, 0, r1, cr3, cr15, {1}
     bf8:	0b3b0b3a 	bleq	ec38e8 <__bss_end__+0xeb94a0>
     bfc:	01111927 	tsteq	r1, r7, lsr #18
     c00:	18400612 	stmdane	r0, {r1, r4, r9, sl}^
     c04:	01194297 			; <UNDEFINED> instruction: 0x01194297
     c08:	08000013 	stmdaeq	r0, {r0, r1, r4}
     c0c:	08030005 	stmdaeq	r3, {r0, r2}
     c10:	0b3b0b3a 	bleq	ec3900 <__bss_end__+0xeb94b8>
     c14:	17021349 	strne	r1, [r2, -r9, asr #6]
     c18:	34090000 	strcc	r0, [r9], #-0
     c1c:	3a0e0300 	bcc	381824 <__bss_end__+0x3773dc>
     c20:	490b3b0b 	stmdbmi	fp, {r0, r1, r3, r8, r9, fp, ip, sp}
     c24:	00170213 	andseq	r0, r7, r3, lsl r2
     c28:	82890a00 	addhi	r0, r9, #0, 20
     c2c:	01110101 	tsteq	r1, r1, lsl #2
     c30:	13011331 	movwne	r1, #4913	; 0x1331
     c34:	8a0b0000 	bhi	2c0c3c <__bss_end__+0x2b67f4>
     c38:	02000182 	andeq	r0, r0, #-2147483616	; 0x80000020
     c3c:	18429118 	stmdane	r2, {r3, r4, r8, ip, pc}^
     c40:	890c0000 	stmdbhi	ip, {}	; <UNPREDICTABLE>
     c44:	11010182 	smlabbne	r1, r2, r1, r0
     c48:	00133101 	andseq	r3, r3, r1, lsl #2
     c4c:	000f0d00 	andeq	r0, pc, r0, lsl #26
     c50:	13490b0b 	movtne	r0, #39691	; 0x9b0b
     c54:	350e0000 	strcc	r0, [lr, #-0]
     c58:	00134900 	andseq	r4, r3, r0, lsl #18
     c5c:	012e0f00 	teqeq	lr, r0, lsl #30
     c60:	0e03193f 	mcreq	9, 0, r1, cr3, cr15, {1}
     c64:	0b3b0b3a 	bleq	ec3954 <__bss_end__+0xeb950c>
     c68:	13491927 	movtne	r1, #39207	; 0x9927
     c6c:	06120111 			; <UNDEFINED> instruction: 0x06120111
     c70:	42971840 	addsmi	r1, r7, #64, 16	; 0x400000
     c74:	00130119 	andseq	r0, r3, r9, lsl r1
     c78:	00341000 	eorseq	r1, r4, r0
     c7c:	0b3a0803 	bleq	e82c90 <__bss_end__+0xe78848>
     c80:	13490b3b 	movtne	r0, #39739	; 0x9b3b
     c84:	00001702 	andeq	r1, r0, r2, lsl #14
     c88:	01828911 	orreq	r8, r2, r1, lsl r9
     c8c:	31011100 	mrscc	r1, (UNDEF: 17)
     c90:	12000013 	andne	r0, r0, #19
     c94:	0e030005 	cdpeq	0, 0, cr0, cr3, cr5, {0}
     c98:	0b3b0b3a 	bleq	ec3988 <__bss_end__+0xeb9540>
     c9c:	17021349 	strne	r1, [r2, -r9, asr #6]
     ca0:	2e130000 	cdpcs	0, 1, cr0, cr3, cr0, {0}
     ca4:	03193f01 	tsteq	r9, #1, 30
     ca8:	3b0b3a0e 	blcc	2cf4e8 <__bss_end__+0x2c50a0>
     cac:	49192705 	ldmdbmi	r9, {r0, r2, r8, r9, sl, sp}
     cb0:	12011113 	andne	r1, r1, #-1073741820	; 0xc0000004
     cb4:	97184006 	ldrls	r4, [r8, -r6]
     cb8:	13011942 	movwne	r1, #6466	; 0x1942
     cbc:	05140000 	ldreq	r0, [r4, #-0]
     cc0:	3a0e0300 	bcc	3818c8 <__bss_end__+0x377480>
     cc4:	49053b0b 	stmdbmi	r5, {r0, r1, r3, r8, r9, fp, ip, sp}
     cc8:	00170213 	andseq	r0, r7, r3, lsl r2
     ccc:	012e1500 	teqeq	lr, r0, lsl #10
     cd0:	0e03193f 	mcreq	9, 0, r1, cr3, cr15, {1}
     cd4:	053b0b3a 	ldreq	r0, [fp, #-2874]!	; 0xb3a
     cd8:	01111927 	tsteq	r1, r7, lsr #18
     cdc:	18400612 	stmdane	r0, {r1, r4, r9, sl}^
     ce0:	01194297 			; <UNDEFINED> instruction: 0x01194297
     ce4:	16000013 			; <UNDEFINED> instruction: 0x16000013
     ce8:	08030005 	stmdaeq	r3, {r0, r2}
     cec:	053b0b3a 	ldreq	r0, [fp, #-2874]!	; 0xb3a
     cf0:	17021349 	strne	r1, [r2, -r9, asr #6]
     cf4:	34170000 	ldrcc	r0, [r7], #-0
     cf8:	3a0e0300 	bcc	381900 <__bss_end__+0x3774b8>
     cfc:	49053b0b 	stmdbmi	r5, {r0, r1, r3, r8, r9, fp, ip, sp}
     d00:	00170213 	andseq	r0, r7, r3, lsl r2
     d04:	010b1800 	tsteq	fp, r0, lsl #16
     d08:	06120111 			; <UNDEFINED> instruction: 0x06120111
     d0c:	00001301 	andeq	r1, r0, r1, lsl #6
     d10:	03003419 	movweq	r3, #1049	; 0x419
     d14:	3b0b3a0e 	blcc	2cf554 <__bss_end__+0x2c510c>
     d18:	3f13490b 	svccc	0x0013490b
     d1c:	00180219 	andseq	r0, r8, r9, lsl r2
     d20:	00341a00 	eorseq	r1, r4, r0, lsl #20
     d24:	0b3a0e03 	bleq	e84538 <__bss_end__+0xe7a0f0>
     d28:	1349053b 	movtne	r0, #38203	; 0x953b
     d2c:	1802193f 	stmdane	r2, {r0, r1, r2, r3, r4, r5, r8, fp, ip}
     d30:	2e1b0000 	cdpcs	0, 1, cr0, cr11, cr0, {0}
     d34:	03193f01 	tsteq	r9, #1, 30
     d38:	3b0b3a0e 	blcc	2cf578 <__bss_end__+0x2c5130>
     d3c:	4919270b 	ldmdbmi	r9, {r0, r1, r3, r8, r9, sl, sp}
     d40:	01193c13 	tsteq	r9, r3, lsl ip
     d44:	1c000013 	stcne	0, cr0, [r0], {19}
     d48:	13490005 	movtne	r0, #36869	; 0x9005
     d4c:	261d0000 	ldrcs	r0, [sp], -r0
     d50:	00134900 	andseq	r4, r3, r0, lsl #18
     d54:	00351e00 	eorseq	r1, r5, r0, lsl #28
     d58:	2e1f0000 	cdpcs	0, 1, cr0, cr15, cr0, {0}
     d5c:	03193f01 	tsteq	r9, #1, 30
     d60:	3b0b3a0e 	blcc	2cf5a0 <__bss_end__+0x2c5158>
     d64:	3c19270b 	ldccc	7, cr2, [r9], {11}
     d68:	00130119 	andseq	r0, r3, r9, lsl r1
     d6c:	002e2000 	eoreq	r2, lr, r0
     d70:	0e03193f 	mcreq	9, 0, r1, cr3, cr15, {1}
     d74:	0b3b0b3a 	bleq	ec3a64 <__bss_end__+0xeb961c>
     d78:	193c1927 	ldmdbne	ip!, {r0, r1, r2, r5, r8, fp, ip}
     d7c:	01000000 	mrseq	r0, (UNDEF: 0)
     d80:	0e250111 	mcreq	1, 1, r0, cr5, cr1, {0}
     d84:	0e030b13 	vmoveq.32	d3[0], r0
     d88:	01110e1b 	tsteq	r1, fp, lsl lr
     d8c:	17100612 			; <UNDEFINED> instruction: 0x17100612
     d90:	24020000 	strcs	r0, [r2], #-0
     d94:	3e0b0b00 	vmlacc.f64	d0, d11, d0
     d98:	0008030b 	andeq	r0, r8, fp, lsl #6
     d9c:	00240300 	eoreq	r0, r4, r0, lsl #6
     da0:	0b3e0b0b 	bleq	f839d4 <__bss_end__+0xf7958c>
     da4:	00000e03 	andeq	r0, r0, r3, lsl #28
     da8:	03001604 	movweq	r1, #1540	; 0x604
     dac:	3b0b3a0e 	blcc	2cf5ec <__bss_end__+0x2c51a4>
     db0:	0013490b 	andseq	r4, r3, fp, lsl #18
     db4:	000f0500 	andeq	r0, pc, r0, lsl #10
     db8:	00000b0b 	andeq	r0, r0, fp, lsl #22
     dbc:	0b000f06 	bleq	49dc <_start-0x3624>
     dc0:	0013490b 	andseq	r4, r3, fp, lsl #18
     dc4:	00260700 	eoreq	r0, r6, r0, lsl #14
     dc8:	00001349 	andeq	r1, r0, r9, asr #6
     dcc:	0b011308 	bleq	459f4 <__bss_end__+0x3b5ac>
     dd0:	3b0b3a0b 	blcc	2cf604 <__bss_end__+0x2c51bc>
     dd4:	0013010b 	andseq	r0, r3, fp, lsl #2
     dd8:	000d0900 	andeq	r0, sp, r0, lsl #18
     ddc:	0b3a0803 	bleq	e82df0 <__bss_end__+0xe789a8>
     de0:	13490b3b 	movtne	r0, #39739	; 0x9b3b
     de4:	00000b38 	andeq	r0, r0, r8, lsr fp
     de8:	03000d0a 	movweq	r0, #3338	; 0xd0a
     dec:	3b0b3a0e 	blcc	2cf62c <__bss_end__+0x2c51e4>
     df0:	3813490b 	ldmdacc	r3, {r0, r1, r3, r8, fp, lr}
     df4:	0b00000b 	bleq	e28 <_start-0x71d8>
     df8:	0e030113 	mcreq	1, 0, r0, cr3, cr3, {0}
     dfc:	0b3a0b0b 	bleq	e83a30 <__bss_end__+0xe795e8>
     e00:	13010b3b 	movwne	r0, #6971	; 0x1b3b
     e04:	0d0c0000 	stceq	0, cr0, [ip, #-0]
     e08:	490e0300 	stmdbmi	lr, {r8, r9}
     e0c:	340b3813 	strcc	r3, [fp], #-2067	; 0x813
     e10:	0d000019 	stceq	0, cr0, [r0, #-100]	; 0xffffff9c
     e14:	0e03012e 	adfeqsp	f0, f3, #0.5
     e18:	0b3b0b3a 	bleq	ec3b08 <__bss_end__+0xeb96c0>
     e1c:	0b201927 	bleq	8072c0 <__bss_end__+0x7fce78>
     e20:	00001301 	andeq	r1, r0, r1, lsl #6
     e24:	0300050e 	movweq	r0, #1294	; 0x50e
     e28:	3b0b3a0e 	blcc	2cf668 <__bss_end__+0x2c5220>
     e2c:	0013490b 	andseq	r4, r3, fp, lsl #18
     e30:	00050f00 	andeq	r0, r5, r0, lsl #30
     e34:	0b3a0803 	bleq	e82e48 <__bss_end__+0xe78a00>
     e38:	13490b3b 	movtne	r0, #39739	; 0x9b3b
     e3c:	0b100000 	bleq	400e44 <__bss_end__+0x3f69fc>
     e40:	11000001 	tstne	r0, r1
     e44:	0e030034 	mcreq	0, 0, r0, cr3, cr4, {1}
     e48:	0b3b0b3a 	bleq	ec3b38 <__bss_end__+0xeb96f0>
     e4c:	00001349 	andeq	r1, r0, r9, asr #6
     e50:	3f012e12 	svccc	0x00012e12
     e54:	3a0e0319 	bcc	381ac0 <__bss_end__+0x377678>
     e58:	270b3b0b 	strcs	r3, [fp, -fp, lsl #22]
     e5c:	12011119 	andne	r1, r1, #1073741830	; 0x40000006
     e60:	97184006 	ldrls	r4, [r8, -r6]
     e64:	13011942 	movwne	r1, #6466	; 0x1942
     e68:	05130000 	ldreq	r0, [r3, #-0]
     e6c:	3a0e0300 	bcc	381a74 <__bss_end__+0x37762c>
     e70:	490b3b0b 	stmdbmi	fp, {r0, r1, r3, r8, r9, fp, ip, sp}
     e74:	00170213 	andseq	r0, r7, r3, lsl r2
     e78:	00051400 	andeq	r1, r5, r0, lsl #8
     e7c:	0b3a0803 	bleq	e82e90 <__bss_end__+0xe78a48>
     e80:	13490b3b 	movtne	r0, #39739	; 0x9b3b
     e84:	00001702 	andeq	r1, r0, r2, lsl #14
     e88:	03003415 	movweq	r3, #1045	; 0x415
     e8c:	3b0b3a08 	blcc	2cf6b4 <__bss_end__+0x2c526c>
     e90:	0213490b 	andseq	r4, r3, #180224	; 0x2c000
     e94:	16000018 			; <UNDEFINED> instruction: 0x16000018
     e98:	08030034 	stmdaeq	r3, {r2, r4, r5}
     e9c:	0b3b0b3a 	bleq	ec3b8c <__bss_end__+0xeb9744>
     ea0:	17021349 	strne	r1, [r2, -r9, asr #6]
     ea4:	0b170000 	bleq	5c0eac <__bss_end__+0x5b6a64>
     ea8:	12011101 	andne	r1, r1, #1073741824	; 0x40000000
     eac:	00130106 	andseq	r0, r3, r6, lsl #2
     eb0:	00341800 	eorseq	r1, r4, r0, lsl #16
     eb4:	0b3a0e03 	bleq	e846c8 <__bss_end__+0xe7a280>
     eb8:	13490b3b 	movtne	r0, #39739	; 0x9b3b
     ebc:	00001802 	andeq	r1, r0, r2, lsl #16
     ec0:	31011d19 	tstcc	r1, r9, lsl sp
     ec4:	12011113 	andne	r1, r1, #-1073741820	; 0xc0000004
     ec8:	590b5806 	stmdbpl	fp, {r1, r2, fp, ip, lr}
     ecc:	0013010b 	andseq	r0, r3, fp, lsl #2
     ed0:	00051a00 	andeq	r1, r5, r0, lsl #20
     ed4:	17021331 	smladxne	r2, r1, r3, r1
     ed8:	051b0000 	ldreq	r0, [fp, #-0]
     edc:	02133100 	andseq	r3, r3, #0, 2
     ee0:	1c000018 	stcne	0, cr0, [r0], {24}
     ee4:	13310005 	teqne	r1, #5
     ee8:	00000b1c 	andeq	r0, r0, ip, lsl fp
     eec:	11010b1d 	tstne	r1, sp, lsl fp
     ef0:	00061201 	andeq	r1, r6, r1, lsl #4
     ef4:	00341e00 	eorseq	r1, r4, r0, lsl #28
     ef8:	17021331 	smladxne	r2, r1, r3, r1
     efc:	891f0000 	ldmdbhi	pc, {}	; <UNPREDICTABLE>
     f00:	11010182 	smlabbne	r1, r2, r1, r0
     f04:	00133101 	andseq	r3, r3, r1, lsl #2
     f08:	828a2000 	addhi	r2, sl, #0
     f0c:	18020001 	stmdane	r2, {r0}
     f10:	00184291 	mulseq	r8, r1, r2
     f14:	011d2100 	tsteq	sp, r0, lsl #2
     f18:	01111331 	tsteq	r1, r1, lsr r3
     f1c:	0b580612 	bleq	160276c <__bss_end__+0x15f8324>
     f20:	00000b59 	andeq	r0, r0, r9, asr fp
     f24:	03012e22 	movweq	r2, #7714	; 0x1e22
     f28:	3b0b3a0e 	blcc	2cf768 <__bss_end__+0x2c5320>
     f2c:	4919270b 	ldmdbmi	r9, {r0, r1, r3, r8, r9, sl, sp}
     f30:	010b2013 	tsteq	fp, r3, lsl r0
     f34:	23000013 	movwcs	r0, #19
     f38:	193f012e 	ldmdbne	pc!, {r1, r2, r3, r5, r8}	; <UNPREDICTABLE>
     f3c:	0b3a0e03 	bleq	e84750 <__bss_end__+0xe7a308>
     f40:	19270b3b 	stmdbne	r7!, {r0, r1, r3, r4, r5, r8, r9, fp}
     f44:	01111349 	tsteq	r1, r9, asr #6
     f48:	18400612 	stmdane	r0, {r1, r4, r9, sl}^
     f4c:	01194297 			; <UNDEFINED> instruction: 0x01194297
     f50:	24000013 	strcs	r0, [r0], #-19
     f54:	00018289 	andeq	r8, r1, r9, lsl #5
     f58:	13310111 	teqne	r1, #1073741828	; 0x40000004
     f5c:	89250000 	stmdbhi	r5!, {}	; <UNPREDICTABLE>
     f60:	11010182 	smlabbne	r1, r2, r1, r0
     f64:	01133101 	tsteq	r3, r1, lsl #2
     f68:	26000013 			; <UNDEFINED> instruction: 0x26000013
     f6c:	0e030034 	mcreq	0, 0, r0, cr3, cr4, {1}
     f70:	0b3b0b3a 	bleq	ec3c60 <__bss_end__+0xeb9818>
     f74:	17021349 	strne	r1, [r2, -r9, asr #6]
     f78:	05270000 	streq	r0, [r7, #-0]!
     f7c:	00133100 	andseq	r3, r3, r0, lsl #2
     f80:	00052800 	andeq	r2, r5, r0, lsl #16
     f84:	0b3a0e03 	bleq	e84798 <__bss_end__+0xe7a350>
     f88:	13490b3b 	movtne	r0, #39739	; 0x9b3b
     f8c:	00001802 	andeq	r1, r0, r2, lsl #16
     f90:	03003429 	movweq	r3, #1065	; 0x429
     f94:	3413490e 	ldrcc	r4, [r3], #-2318	; 0x90e
     f98:	00180219 	andseq	r0, r8, r9, lsl r2
     f9c:	01012a00 	tsteq	r1, r0, lsl #20
     fa0:	13011349 	movwne	r1, #4937	; 0x1349
     fa4:	212b0000 	teqcs	fp, r0
     fa8:	2f134900 	svccs	0x00134900
     fac:	2c00000b 	stccs	0, cr0, [r0], {11}
     fb0:	08030034 	stmdaeq	r3, {r2, r4, r5}
     fb4:	0b3b0b3a 	bleq	ec3ca4 <__bss_end__+0xeb985c>
     fb8:	061c1349 	ldreq	r1, [ip], -r9, asr #6
     fbc:	342d0000 	strtcc	r0, [sp], #-0
     fc0:	3a080300 	bcc	201bc8 <__bss_end__+0x1f7780>
     fc4:	490b3b0b 	stmdbmi	fp, {r0, r1, r3, r8, r9, fp, ip, sp}
     fc8:	000b1c13 	andeq	r1, fp, r3, lsl ip
     fcc:	00052e00 	andeq	r2, r5, r0, lsl #28
     fd0:	0b3a0803 	bleq	e82fe4 <__bss_end__+0xe78b9c>
     fd4:	13490b3b 	movtne	r0, #39739	; 0x9b3b
     fd8:	00001802 	andeq	r1, r0, r2, lsl #16
     fdc:	0000182f 	andeq	r1, r0, pc, lsr #16
     fe0:	00213000 	eoreq	r3, r1, r0
     fe4:	052f1349 	streq	r1, [pc, #-841]!	; ca3 <_start-0x735d>
     fe8:	2e310000 	cdpcs	0, 3, cr0, cr1, cr0, {0}
     fec:	03193f01 	tsteq	r9, #1, 30
     ff0:	3b0b3a0e 	blcc	2cf830 <__bss_end__+0x2c53e8>
     ff4:	3c19270b 	ldccc	7, cr2, [r9], {11}
     ff8:	00130119 	andseq	r0, r3, r9, lsl r1
     ffc:	00053200 	andeq	r3, r5, r0, lsl #4
    1000:	00001349 	andeq	r1, r0, r9, asr #6
    1004:	3f002e33 	svccc	0x00002e33
    1008:	3a0e0319 	bcc	381c74 <__bss_end__+0x37782c>
    100c:	270b3b0b 	strcs	r3, [fp, -fp, lsl #22]
    1010:	3c134919 	ldccc	9, cr4, [r3], {25}
    1014:	34000019 	strcc	r0, [r0], #-25
    1018:	193f012e 	ldmdbne	pc!, {r1, r2, r3, r5, r8}	; <UNPREDICTABLE>
    101c:	0b3a0e03 	bleq	e84830 <__bss_end__+0xe7a3e8>
    1020:	19270b3b 	stmdbne	r7!, {r0, r1, r3, r4, r5, r8, r9, fp}
    1024:	193c1349 	ldmdbne	ip!, {r0, r3, r6, r8, r9, ip}
    1028:	00001301 	andeq	r1, r0, r1, lsl #6
    102c:	3f002e35 	svccc	0x00002e35
    1030:	3a0e0319 	bcc	381c9c <__bss_end__+0x377854>
    1034:	270b3b0b 	strcs	r3, [fp, -fp, lsl #22]
    1038:	00193c19 	andseq	r3, r9, r9, lsl ip
    103c:	012e3600 	teqeq	lr, r0, lsl #12
    1040:	0e03193f 	mcreq	9, 0, r1, cr3, cr15, {1}
    1044:	0b3b0b3a 	bleq	ec3d34 <__bss_end__+0xeb98ec>
    1048:	13491927 	movtne	r1, #39207	; 0x9927
    104c:	0000193c 	andeq	r1, r0, ip, lsr r9
    1050:	01110100 	tsteq	r1, r0, lsl #2
    1054:	0b130e25 	bleq	4c48f0 <__bss_end__+0x4ba4a8>
    1058:	0e1b0e03 	cdpeq	14, 1, cr0, cr11, cr3, {0}
    105c:	06120111 			; <UNDEFINED> instruction: 0x06120111
    1060:	00001710 	andeq	r1, r0, r0, lsl r7
    1064:	0b002402 	bleq	a074 <__bss_start__+0x3c>
    1068:	030b3e0b 	movweq	r3, #48651	; 0xbe0b
    106c:	03000008 	movweq	r0, #8
    1070:	0b0b0024 	bleq	2c1108 <__bss_end__+0x2b6cc0>
    1074:	0e030b3e 	vmoveq.16	d3[0], r0
    1078:	04040000 	streq	r0, [r4], #-0
    107c:	3a0b0b01 	bcc	2c3c88 <__bss_end__+0x2b9840>
    1080:	010b3b0b 	tsteq	fp, fp, lsl #22
    1084:	05000013 	streq	r0, [r0, #-19]
    1088:	0e030028 	cdpeq	0, 0, cr0, cr3, cr8, {1}
    108c:	00000d1c 	andeq	r0, r0, ip, lsl sp
    1090:	03001606 	movweq	r1, #1542	; 0x606
    1094:	3b0b3a0e 	blcc	2cf8d4 <__bss_end__+0x2c548c>
    1098:	0013490b 	andseq	r4, r3, fp, lsl #18
    109c:	012e0700 	teqeq	lr, r0, lsl #14
    10a0:	0e03193f 	mcreq	9, 0, r1, cr3, cr15, {1}
    10a4:	0b3b0b3a 	bleq	ec3d94 <__bss_end__+0xeb994c>
    10a8:	01111927 	tsteq	r1, r7, lsr #18
    10ac:	18400612 	stmdane	r0, {r1, r4, r9, sl}^
    10b0:	01194297 			; <UNDEFINED> instruction: 0x01194297
    10b4:	08000013 	stmdaeq	r0, {r0, r1, r4}
    10b8:	00018289 	andeq	r8, r1, r9, lsl #5
    10bc:	13310111 	teqne	r1, #1073741828	; 0x40000004
    10c0:	89090000 	stmdbhi	r9, {}	; <UNPREDICTABLE>
    10c4:	11010182 	smlabbne	r1, r2, r1, r0
    10c8:	01133101 	tsteq	r3, r1, lsl #2
    10cc:	0a000013 	beq	1120 <_start-0x6ee0>
    10d0:	0001828a 	andeq	r8, r1, sl, lsl #5
    10d4:	42911802 	addsmi	r1, r1, #131072	; 0x20000
    10d8:	0b000018 	bleq	1140 <_start-0x6ec0>
    10dc:	193f012e 	ldmdbne	pc!, {r1, r2, r3, r5, r8}	; <UNPREDICTABLE>
    10e0:	0b3a0e03 	bleq	e848f4 <__bss_end__+0xe7a4ac>
    10e4:	19270b3b 	stmdbne	r7!, {r0, r1, r3, r4, r5, r8, r9, fp}
    10e8:	01111349 	tsteq	r1, r9, asr #6
    10ec:	18400612 	stmdane	r0, {r1, r4, r9, sl}^
    10f0:	01194297 			; <UNDEFINED> instruction: 0x01194297
    10f4:	0c000013 	stceq	0, cr0, [r0], {19}
    10f8:	08030005 	stmdaeq	r3, {r0, r2}
    10fc:	0b3b0b3a 	bleq	ec3dec <__bss_end__+0xeb99a4>
    1100:	17021349 	strne	r1, [r2, -r9, asr #6]
    1104:	890d0000 	stmdbhi	sp, {}	; <UNPREDICTABLE>
    1108:	11010182 	smlabbne	r1, r2, r1, r0
    110c:	00133101 	andseq	r3, r3, r1, lsl #2
    1110:	00340e00 	eorseq	r0, r4, r0, lsl #28
    1114:	0b3a0e03 	bleq	e84928 <__bss_end__+0xe7a4e0>
    1118:	13490b3b 	movtne	r0, #39739	; 0x9b3b
    111c:	1802193f 	stmdane	r2, {r0, r1, r2, r3, r4, r5, r8, fp, ip}
    1120:	0f0f0000 	svceq	0x000f0000
    1124:	490b0b00 	stmdbmi	fp, {r8, r9, fp}
    1128:	10000013 	andne	r0, r0, r3, lsl r0
    112c:	13490035 	movtne	r0, #36917	; 0x9035
    1130:	2e110000 	cdpcs	0, 1, cr0, cr1, cr0, {0}
    1134:	03193f00 	tsteq	r9, #0, 30
    1138:	3b0b3a0e 	blcc	2cf978 <__bss_end__+0x2c5530>
    113c:	3c19270b 	ldccc	7, cr2, [r9], {11}
    1140:	12000019 	andne	r0, r0, #25
    1144:	193f012e 	ldmdbne	pc!, {r1, r2, r3, r5, r8}	; <UNPREDICTABLE>
    1148:	0b3a0e03 	bleq	e8495c <__bss_end__+0xe7a514>
    114c:	19270b3b 	stmdbne	r7!, {r0, r1, r3, r4, r5, r8, r9, fp}
    1150:	1301193c 	movwne	r1, #6460	; 0x193c
    1154:	05130000 	ldreq	r0, [r3, #-0]
    1158:	00134900 	andseq	r4, r3, r0, lsl #18
    115c:	012e1400 	teqeq	lr, r0, lsl #8
    1160:	0e03193f 	mcreq	9, 0, r1, cr3, cr15, {1}
    1164:	0b3b0b3a 	bleq	ec3e54 <__bss_end__+0xeb9a0c>
    1168:	13491927 	movtne	r1, #39207	; 0x9927
    116c:	1301193c 	movwne	r1, #6460	; 0x193c
    1170:	26150000 	ldrcs	r0, [r5], -r0
    1174:	00134900 	andseq	r4, r3, r0, lsl #18
    1178:	00351600 	eorseq	r1, r5, r0, lsl #12
    117c:	01000000 	mrseq	r0, (UNDEF: 0)
    1180:	0e250111 	mcreq	1, 1, r0, cr5, cr1, {0}
    1184:	0e030b13 	vmoveq.32	d3[0], r0
    1188:	01110e1b 	tsteq	r1, fp, lsl lr
    118c:	17100612 			; <UNDEFINED> instruction: 0x17100612
    1190:	24020000 	strcs	r0, [r2], #-0
    1194:	3e0b0b00 	vmlacc.f64	d0, d11, d0
    1198:	0008030b 	andeq	r0, r8, fp, lsl #6
    119c:	00160300 	andseq	r0, r6, r0, lsl #6
    11a0:	0b3a0e03 	bleq	e849b4 <__bss_end__+0xe7a56c>
    11a4:	13490b3b 	movtne	r0, #39739	; 0x9b3b
    11a8:	24040000 	strcs	r0, [r4], #-0
    11ac:	3e0b0b00 	vmlacc.f64	d0, d11, d0
    11b0:	000e030b 	andeq	r0, lr, fp, lsl #6
    11b4:	000f0500 	andeq	r0, pc, r0, lsl #10
    11b8:	00000b0b 	andeq	r0, r0, fp, lsl #22
    11bc:	0b011306 	bleq	45ddc <__bss_end__+0x3b994>
    11c0:	3b0b3a0b 	blcc	2cf9f4 <__bss_end__+0x2c55ac>
    11c4:	0013010b 	andseq	r0, r3, fp, lsl #2
    11c8:	000d0700 	andeq	r0, sp, r0, lsl #14
    11cc:	0b3a0803 	bleq	e831e0 <__bss_end__+0xe78d98>
    11d0:	13490b3b 	movtne	r0, #39739	; 0x9b3b
    11d4:	00000b38 	andeq	r0, r0, r8, lsr fp
    11d8:	03000d08 	movweq	r0, #3336	; 0xd08
    11dc:	3b0b3a0e 	blcc	2cfa1c <__bss_end__+0x2c55d4>
    11e0:	3813490b 	ldmdacc	r3, {r0, r1, r3, r8, fp, lr}
    11e4:	0900000b 	stmdbeq	r0, {r0, r1, r3}
    11e8:	0b0b0104 	bleq	2c1600 <__bss_end__+0x2b71b8>
    11ec:	0b3b0b3a 	bleq	ec3edc <__bss_end__+0xeb9a94>
    11f0:	00001301 	andeq	r1, r0, r1, lsl #6
    11f4:	0300280a 	movweq	r2, #2058	; 0x80a
    11f8:	000d1c0e 	andeq	r1, sp, lr, lsl #24
    11fc:	012e0b00 	teqeq	lr, r0, lsl #22
    1200:	0e03193f 	mcreq	9, 0, r1, cr3, cr15, {1}
    1204:	0b3b0b3a 	bleq	ec3ef4 <__bss_end__+0xeb9aac>
    1208:	13491927 	movtne	r1, #39207	; 0x9927
    120c:	06120111 			; <UNDEFINED> instruction: 0x06120111
    1210:	42971840 	addsmi	r1, r7, #64, 16	; 0x400000
    1214:	00130119 	andseq	r0, r3, r9, lsl r1
    1218:	00340c00 	eorseq	r0, r4, r0, lsl #24
    121c:	0b3a0803 	bleq	e83230 <__bss_end__+0xe78de8>
    1220:	13490b3b 	movtne	r0, #39739	; 0x9b3b
    1224:	0000061c 	andeq	r0, r0, ip, lsl r6
    1228:	0182890d 	orreq	r8, r2, sp, lsl #18
    122c:	31011101 	tstcc	r1, r1, lsl #2
    1230:	0e000013 	mcreq	0, 0, r0, cr0, cr3, {0}
    1234:	0001828a 	andeq	r8, r1, sl, lsl #5
    1238:	42911802 	addsmi	r1, r1, #131072	; 0x20000
    123c:	0f000018 	svceq	0x00000018
    1240:	0b0b000f 	bleq	2c1284 <__bss_end__+0x2b6e3c>
    1244:	00001349 	andeq	r1, r0, r9, asr #6
    1248:	3f012e10 	svccc	0x00012e10
    124c:	3a0e0319 	bcc	381eb8 <__bss_end__+0x377a70>
    1250:	270b3b0b 	strcs	r3, [fp, -fp, lsl #22]
    1254:	3c134919 	ldccc	9, cr4, [r3], {25}
    1258:	11000019 	tstne	r0, r9, lsl r0
    125c:	13490005 	movtne	r0, #36869	; 0x9005
    1260:	01000000 	mrseq	r0, (UNDEF: 0)
    1264:	0e250111 	mcreq	1, 1, r0, cr5, cr1, {0}
    1268:	0e030b13 	vmoveq.32	d3[0], r0
    126c:	01110e1b 	tsteq	r1, fp, lsl lr
    1270:	17100612 			; <UNDEFINED> instruction: 0x17100612
    1274:	24020000 	strcs	r0, [r2], #-0
    1278:	3e0b0b00 	vmlacc.f64	d0, d11, d0
    127c:	000e030b 	andeq	r0, lr, fp, lsl #6
    1280:	00240300 	eoreq	r0, r4, r0, lsl #6
    1284:	0b3e0b0b 	bleq	f83eb8 <__bss_end__+0xf79a70>
    1288:	00000803 	andeq	r0, r0, r3, lsl #16
    128c:	0b000f04 	bleq	4ea4 <_start-0x315c>
    1290:	0500000b 	streq	r0, [r0, #-11]
    1294:	0b0b000f 	bleq	2c12d8 <__bss_end__+0x2b6e90>
    1298:	00001349 	andeq	r1, r0, r9, asr #6
    129c:	03001606 	movweq	r1, #1542	; 0x606
    12a0:	3b0b3a0e 	blcc	2cfae0 <__bss_end__+0x2c5698>
    12a4:	0013490b 	andseq	r4, r3, fp, lsl #18
    12a8:	012e0700 	teqeq	lr, r0, lsl #14
    12ac:	0e03193f 	mcreq	9, 0, r1, cr3, cr15, {1}
    12b0:	0b3b0b3a 	bleq	ec3fa0 <__bss_end__+0xeb9b58>
    12b4:	13491927 	movtne	r1, #39207	; 0x9927
    12b8:	06120111 			; <UNDEFINED> instruction: 0x06120111
    12bc:	42971840 	addsmi	r1, r7, #64, 16	; 0x400000
    12c0:	08000019 	stmdaeq	r0, {r0, r3, r4}
    12c4:	08030005 	stmdaeq	r3, {r0, r2}
    12c8:	0b3b0b3a 	bleq	ec3fb8 <__bss_end__+0xeb9b70>
    12cc:	18021349 	stmdane	r2, {r0, r3, r6, r8, r9, ip}
    12d0:	05090000 	streq	r0, [r9, #-0]
    12d4:	3a080300 	bcc	201edc <__bss_end__+0x1f7a94>
    12d8:	490b3b0b 	stmdbmi	fp, {r0, r1, r3, r8, r9, fp, ip, sp}
    12dc:	00170213 	andseq	r0, r7, r3, lsl r2
    12e0:	00340a00 	eorseq	r0, r4, r0, lsl #20
    12e4:	0b3a0803 	bleq	e832f8 <__bss_end__+0xe78eb0>
    12e8:	13490b3b 	movtne	r0, #39739	; 0x9b3b
    12ec:	00001702 	andeq	r1, r0, r2, lsl #14
    12f0:	0300340b 	movweq	r3, #1035	; 0x40b
    12f4:	3b0b3a08 	blcc	2cfb1c <__bss_end__+0x2c56d4>
    12f8:	0213490b 	andseq	r4, r3, #180224	; 0x2c000
    12fc:	00000018 	andeq	r0, r0, r8, lsl r0

Disassembly of section .debug_loc:

00000000 <.debug_loc>:
       0:	0000014c 	andeq	r0, r0, ip, asr #2
       4:	00000150 	andeq	r0, r0, r0, asr r1
       8:	00750026 	rsbseq	r0, r5, r6, lsr #32
       c:	00762431 	rsbseq	r2, r6, r1, lsr r4
      10:	7c212432 	cfstrsvc	mvf2, [r1], #-200	; 0xffffff38
      14:	21243300 	teqcs	r4, r0, lsl #6
      18:	24340071 	ldrtcs	r0, [r4], #-113	; 0x71
      1c:	35007721 	strcc	r7, [r0, #-1825]	; 0x721
      20:	00792124 	rsbseq	r2, r9, r4, lsr #2
      24:	70212436 	eorvc	r2, r1, r6, lsr r4
      28:	21243700 	teqcs	r4, r0, lsl #14
      2c:	9f210074 	svcls	0x00210074
	...
      38:	00000040 	andeq	r0, r0, r0, asr #32
      3c:	00000158 	andeq	r0, r0, r8, asr r1
      40:	00540001 	subseq	r0, r4, r1
      44:	00000000 	andeq	r0, r0, r0
      48:	64000000 	strvs	r0, [r0], #-0
      4c:	54000000 	strpl	r0, [r0], #-0
      50:	01000001 	tsteq	r0, r1
      54:	00005500 	andeq	r5, r0, r0, lsl #10
      58:	00000000 	andeq	r0, r0, r0
      5c:	00880000 	addeq	r0, r8, r0
      60:	01500000 	cmpeq	r0, r0
      64:	00010000 	andeq	r0, r1, r0
      68:	00000056 	andeq	r0, r0, r6, asr r0
      6c:	00000000 	andeq	r0, r0, r0
      70:	0000ac00 	andeq	sl, r0, r0, lsl #24
      74:	00015c00 	andeq	r5, r1, r0, lsl #24
      78:	5c000100 	stfpls	f0, [r0], {-0}
	...
      84:	000000d0 	ldrdeq	r0, [r0], -r0	; <UNPREDICTABLE>
      88:	00000160 	andeq	r0, r0, r0, ror #2
      8c:	00510001 	subseq	r0, r1, r1
      90:	00000000 	andeq	r0, r0, r0
      94:	f4000000 	vst4.8	{d0-d3}, [r0], r0
      98:	64000000 	strvs	r0, [r0], #-0
      9c:	01000001 	tsteq	r0, r1
      a0:	00005700 	andeq	r5, r0, r0, lsl #14
      a4:	00000000 	andeq	r0, r0, r0
      a8:	01180000 	tsteq	r8, r0
      ac:	01680000 	cmneq	r8, r0
      b0:	00010000 	andeq	r0, r1, r0
      b4:	00000059 	andeq	r0, r0, r9, asr r0
      b8:	00000000 	andeq	r0, r0, r0
      bc:	00013c00 	andeq	r3, r1, r0, lsl #24
      c0:	00016c00 	andeq	r6, r1, r0, lsl #24
      c4:	50000100 	andpl	r0, r0, r0, lsl #2
	...
      d0:	00000020 	andeq	r0, r0, r0, lsr #32
      d4:	00000024 	andeq	r0, r0, r4, lsr #32
      d8:	00520001 	subseq	r0, r2, r1
      dc:	00000000 	andeq	r0, r0, r0
      e0:	44000000 	strmi	r0, [r0], #-0
      e4:	48000000 	stmdami	r0, {}	; <UNPREDICTABLE>
      e8:	01000000 	mrseq	r0, (UNDEF: 0)
      ec:	00005200 	andeq	r5, r0, r0, lsl #4
      f0:	00000000 	andeq	r0, r0, r0
      f4:	00680000 	rsbeq	r0, r8, r0
      f8:	006c0000 	rsbeq	r0, ip, r0
      fc:	00010000 	andeq	r0, r1, r0
     100:	00000052 	andeq	r0, r0, r2, asr r0
     104:	00000000 	andeq	r0, r0, r0
     108:	00008c00 	andeq	r8, r0, r0, lsl #24
     10c:	00009000 	andeq	r9, r0, r0
     110:	52000100 	andpl	r0, r0, #0, 2
	...
     11c:	000000b0 	strheq	r0, [r0], -r0	; <UNPREDICTABLE>
     120:	000000b4 	strheq	r0, [r0], -r4
     124:	00520001 	subseq	r0, r2, r1
     128:	00000000 	andeq	r0, r0, r0
     12c:	d4000000 	strle	r0, [r0], #-0
     130:	d8000000 	stmdale	r0, {}	; <UNPREDICTABLE>
     134:	01000000 	mrseq	r0, (UNDEF: 0)
     138:	00005200 	andeq	r5, r0, r0, lsl #4
     13c:	00000000 	andeq	r0, r0, r0
     140:	00f80000 	rscseq	r0, r8, r0
     144:	00fc0000 	rscseq	r0, ip, r0
     148:	00010000 	andeq	r0, r1, r0
     14c:	00000052 	andeq	r0, r0, r2, asr r0
     150:	00000000 	andeq	r0, r0, r0
     154:	00011c00 	andeq	r1, r1, r0, lsl #24
     158:	00012000 	andeq	r2, r1, r0
     15c:	52000100 	andpl	r0, r0, #0, 2
	...
     168:	00000140 	andeq	r0, r0, r0, asr #2
     16c:	00000144 	andeq	r0, r0, r4, asr #2
     170:	00520001 	subseq	r0, r2, r1
     174:	00000000 	andeq	r0, r0, r0
     178:	9c000000 	stcls	0, cr0, [r0], {-0}
     17c:	b4000001 	strlt	r0, [r0], #-1
     180:	01000001 	tsteq	r0, r1
     184:	01b45000 			; <UNDEFINED> instruction: 0x01b45000
     188:	01c40000 	biceq	r0, r4, r0
     18c:	00040000 	andeq	r0, r4, r0
     190:	9f5001f3 	svcls	0x005001f3
     194:	000001c4 	andeq	r0, r0, r4, asr #3
     198:	000001c7 	andeq	r0, r0, r7, asr #3
     19c:	c7500001 	ldrbgt	r0, [r0, -r1]
     1a0:	ec000001 	stc	0, cr0, [r0], {1}
     1a4:	04000001 	streq	r0, [r0], #-1
     1a8:	5001f300 	andpl	pc, r1, r0, lsl #6
     1ac:	0000009f 	muleq	r0, pc, r0	; <UNPREDICTABLE>
     1b0:	00000000 	andeq	r0, r0, r0
     1b4:	0001bc00 	andeq	fp, r1, r0, lsl #24
     1b8:	0001c000 	andeq	ip, r1, r0
     1bc:	50000100 	andpl	r0, r0, r0, lsl #2
	...
     1c8:	000001ec 	andeq	r0, r0, ip, ror #3
     1cc:	000002b0 			; <UNDEFINED> instruction: 0x000002b0
     1d0:	b0500001 	subslt	r0, r0, r1
     1d4:	88000002 	stmdahi	r0, {r1}
     1d8:	04000003 	streq	r0, [r0], #-3
     1dc:	5001f300 	andpl	pc, r1, r0, lsl #6
     1e0:	0000009f 	muleq	r0, pc, r0	; <UNPREDICTABLE>
     1e4:	00000000 	andeq	r0, r0, r0
     1e8:	0001ec00 	andeq	lr, r1, r0, lsl #24
     1ec:	00033800 	andeq	r3, r3, r0, lsl #16
     1f0:	30000200 	andcc	r0, r0, r0, lsl #4
     1f4:	0003389f 	muleq	r3, pc, r8	; <UNPREDICTABLE>
     1f8:	00033c00 	andeq	r3, r3, r0, lsl #24
     1fc:	75002600 	strvc	r2, [r0, #-1536]	; 0x600
     200:	76243100 	strtvc	r3, [r4], -r0, lsl #2
     204:	21243200 	teqcs	r4, r0, lsl #4
     208:	2433007c 	ldrtcs	r0, [r3], #-124	; 0x7c
     20c:	34007121 	strcc	r7, [r0], #-289	; 0x121
     210:	00772124 	rsbseq	r2, r7, r4, lsr #2
     214:	79212435 	stmdbvc	r1!, {r0, r2, r4, r5, sl, sp}
     218:	21243600 	teqcs	r4, r0, lsl #12
     21c:	24370070 	ldrtcs	r0, [r7], #-112	; 0x70
     220:	21007421 	tstcs	r0, r1, lsr #8
     224:	0000009f 	muleq	r0, pc, r0	; <UNPREDICTABLE>
     228:	00000000 	andeq	r0, r0, r0
     22c:	0001ec00 	andeq	lr, r1, r0, lsl #24
     230:	00022c00 	andeq	r2, r2, r0, lsl #24
     234:	30000200 	andcc	r0, r0, r0, lsl #4
     238:	00022c9f 	muleq	r2, pc, ip	; <UNPREDICTABLE>
     23c:	00034400 	andeq	r4, r3, r0, lsl #8
     240:	54000100 	strpl	r0, [r0], #-256	; 0x100
	...
     24c:	000001ec 	andeq	r0, r0, ip, ror #3
     250:	00000250 	andeq	r0, r0, r0, asr r2
     254:	9f300002 	svcls	0x00300002
     258:	00000250 	andeq	r0, r0, r0, asr r2
     25c:	00000340 	andeq	r0, r0, r0, asr #6
     260:	00550001 	subseq	r0, r5, r1
     264:	00000000 	andeq	r0, r0, r0
     268:	ec000000 	stc	0, cr0, [r0], {-0}
     26c:	74000001 	strvc	r0, [r0], #-1
     270:	02000002 	andeq	r0, r0, #2
     274:	749f3000 	ldrvc	r3, [pc], #0	; 27c <_start-0x7d84>
     278:	3c000002 	stccc	0, cr0, [r0], {2}
     27c:	01000003 	tsteq	r0, r3
     280:	00005600 	andeq	r5, r0, r0, lsl #12
     284:	00000000 	andeq	r0, r0, r0
     288:	01ec0000 	mvneq	r0, r0
     28c:	02980000 	addseq	r0, r8, #0
     290:	00020000 	andeq	r0, r2, r0
     294:	02989f30 	addseq	r9, r8, #48, 30	; 0xc0
     298:	03480000 	movteq	r0, #32768	; 0x8000
     29c:	00010000 	andeq	r0, r1, r0
     2a0:	0000005c 	andeq	r0, r0, ip, asr r0
     2a4:	00000000 	andeq	r0, r0, r0
     2a8:	0001ec00 	andeq	lr, r1, r0, lsl #24
     2ac:	0002bc00 	andeq	fp, r2, r0, lsl #24
     2b0:	30000200 	andcc	r0, r0, r0, lsl #4
     2b4:	0002bc9f 	muleq	r2, pc, ip	; <UNPREDICTABLE>
     2b8:	00034c00 	andeq	r4, r3, r0, lsl #24
     2bc:	51000100 	mrspl	r0, (UNDEF: 16)
	...
     2c8:	000001ec 	andeq	r0, r0, ip, ror #3
     2cc:	000002e0 	andeq	r0, r0, r0, ror #5
     2d0:	9f300002 	svcls	0x00300002
     2d4:	000002e0 	andeq	r0, r0, r0, ror #5
     2d8:	00000350 	andeq	r0, r0, r0, asr r3
     2dc:	00570001 	subseq	r0, r7, r1
     2e0:	00000000 	andeq	r0, r0, r0
     2e4:	ec000000 	stc	0, cr0, [r0], {-0}
     2e8:	04000001 	streq	r0, [r0], #-1
     2ec:	02000003 	andeq	r0, r0, #3
     2f0:	049f3000 	ldreq	r3, [pc], #0	; 2f8 <_start-0x7d08>
     2f4:	54000003 	strpl	r0, [r0], #-3
     2f8:	01000003 	tsteq	r0, r3
     2fc:	00005900 	andeq	r5, r0, r0, lsl #18
     300:	00000000 	andeq	r0, r0, r0
     304:	01ec0000 	mvneq	r0, r0
     308:	03280000 	teqeq	r8, #0
     30c:	00020000 	andeq	r0, r2, r0
     310:	03289f30 	teqeq	r8, #48, 30	; 0xc0
     314:	03580000 	cmpeq	r8, #0
     318:	00010000 	andeq	r0, r1, r0
     31c:	00000050 	andeq	r0, r0, r0, asr r0
     320:	00000000 	andeq	r0, r0, r0
     324:	00020c00 	andeq	r0, r2, r0, lsl #24
     328:	00021000 	andeq	r1, r2, r0
     32c:	52000100 	andpl	r0, r0, #0, 2
	...
     338:	00000230 	andeq	r0, r0, r0, lsr r2
     33c:	00000234 	andeq	r0, r0, r4, lsr r2
     340:	00520001 	subseq	r0, r2, r1
     344:	00000000 	andeq	r0, r0, r0
     348:	54000000 	strpl	r0, [r0], #-0
     34c:	58000002 	stmdapl	r0, {r1}
     350:	01000002 	tsteq	r0, r2
     354:	00005200 	andeq	r5, r0, r0, lsl #4
     358:	00000000 	andeq	r0, r0, r0
     35c:	02780000 	rsbseq	r0, r8, #0
     360:	027c0000 	rsbseq	r0, ip, #0
     364:	00010000 	andeq	r0, r1, r0
     368:	00000052 	andeq	r0, r0, r2, asr r0
     36c:	00000000 	andeq	r0, r0, r0
     370:	00029c00 	andeq	r9, r2, r0, lsl #24
     374:	0002a000 	andeq	sl, r2, r0
     378:	52000100 	andpl	r0, r0, #0, 2
	...
     384:	000002c0 	andeq	r0, r0, r0, asr #5
     388:	000002c4 	andeq	r0, r0, r4, asr #5
     38c:	00520001 	subseq	r0, r2, r1
     390:	00000000 	andeq	r0, r0, r0
     394:	e4000000 	str	r0, [r0], #-0
     398:	e8000002 	stmda	r0, {r1}
     39c:	01000002 	tsteq	r0, r2
     3a0:	00005200 	andeq	r5, r0, r0, lsl #4
     3a4:	00000000 	andeq	r0, r0, r0
     3a8:	03080000 	movweq	r0, #32768	; 0x8000
     3ac:	030c0000 	movweq	r0, #49152	; 0xc000
     3b0:	00010000 	andeq	r0, r1, r0
     3b4:	00000052 	andeq	r0, r0, r2, asr r0
     3b8:	00000000 	andeq	r0, r0, r0
     3bc:	00032c00 	andeq	r2, r3, r0, lsl #24
     3c0:	00033000 	andeq	r3, r3, r0
     3c4:	52000100 	andpl	r0, r0, #0, 2
	...
     3d0:	00000388 	andeq	r0, r0, r8, lsl #7
     3d4:	00000398 	muleq	r0, r8, r3
     3d8:	98500001 	ldmdals	r0, {r0}^
     3dc:	94000003 	strls	r0, [r0], #-3
     3e0:	04000005 	streq	r0, [r0], #-5
     3e4:	5001f300 	andpl	pc, r1, r0, lsl #6
     3e8:	0000009f 	muleq	r0, pc, r0	; <UNPREDICTABLE>
     3ec:	00000000 	andeq	r0, r0, r0
     3f0:	00038800 	andeq	r8, r3, r0, lsl #16
     3f4:	00053000 	andeq	r3, r5, r0
     3f8:	51000100 	mrspl	r0, (UNDEF: 16)
     3fc:	00000530 	andeq	r0, r0, r0, lsr r5
     400:	00000594 	muleq	r0, r4, r5
     404:	01f30004 	mvnseq	r0, r4
     408:	00009f51 	andeq	r9, r0, r1, asr pc
     40c:	00000000 	andeq	r0, r0, r0
     410:	03880000 	orreq	r0, r8, #0
     414:	05740000 	ldrbeq	r0, [r4, #-0]!
     418:	00010000 	andeq	r0, r1, r0
     41c:	00057452 	andeq	r7, r5, r2, asr r4
     420:	00059400 	andeq	r9, r5, r0, lsl #8
     424:	f3000400 	vshl.u8	d0, d0, d0
     428:	009f5201 	addseq	r5, pc, r1, lsl #4
     42c:	00000000 	andeq	r0, r0, r0
     430:	90000000 	andls	r0, r0, r0
     434:	88000003 	stmdahi	r0, {r0, r1}
     438:	01000005 	tsteq	r0, r5
     43c:	00005300 	andeq	r5, r0, r0, lsl #6
     440:	00000000 	andeq	r0, r0, r0
     444:	03900000 	orrseq	r0, r0, #0
     448:	03980000 	orrseq	r0, r8, #0
     44c:	00010000 	andeq	r0, r1, r0
     450:	00039850 	andeq	r9, r3, r0, asr r8
     454:	00059400 	andeq	r9, r5, r0, lsl #8
     458:	f3000400 	vshl.u8	d0, d0, d0
     45c:	009f5001 	addseq	r5, pc, r1
     460:	00000000 	andeq	r0, r0, r0
     464:	ac000000 	stcge	0, cr0, [r0], {-0}
     468:	b0000003 	andlt	r0, r0, r3
     46c:	01000003 	tsteq	r0, r3
     470:	00005c00 	andeq	r5, r0, r0, lsl #24
     474:	00000000 	andeq	r0, r0, r0
     478:	03b80000 			; <UNDEFINED> instruction: 0x03b80000
     47c:	05300000 	ldreq	r0, [r0, #-0]!
     480:	00080000 	andeq	r0, r8, r0
     484:	1a310071 	bne	c40650 <__bss_end__+0xc36208>
     488:	9f1aff08 	svcls	0x001aff08
	...
     494:	000003c0 	andeq	r0, r0, r0, asr #7
     498:	000003f4 	strdeq	r0, [r0], -r4
     49c:	00710008 	rsbseq	r0, r1, r8
     4a0:	ff081a31 			; <UNDEFINED> instruction: 0xff081a31
     4a4:	03f49f1a 	mvnseq	r9, #26, 30	; 0x68
     4a8:	04280000 	strteq	r0, [r8], #-0
     4ac:	00080000 	andeq	r0, r8, r0
     4b0:	1a320071 	bne	c8067c <__bss_end__+0xc76234>
     4b4:	9f1aff08 	svcls	0x001aff08
     4b8:	00000428 	andeq	r0, r0, r8, lsr #8
     4bc:	0000045c 	andeq	r0, r0, ip, asr r4
     4c0:	00710008 	rsbseq	r0, r1, r8
     4c4:	ff081a34 			; <UNDEFINED> instruction: 0xff081a34
     4c8:	045c9f1a 	ldrbeq	r9, [ip], #-3866	; 0xf1a
     4cc:	04900000 	ldreq	r0, [r0], #0
     4d0:	00080000 	andeq	r0, r8, r0
     4d4:	1a380071 	bne	e006a0 <__bss_end__+0xdf6258>
     4d8:	9f1aff08 	svcls	0x001aff08
     4dc:	00000490 	muleq	r0, r0, r4
     4e0:	000004c8 	andeq	r0, r0, r8, asr #9
     4e4:	00710008 	rsbseq	r0, r1, r8
     4e8:	ff081a40 			; <UNDEFINED> instruction: 0xff081a40
     4ec:	04c89f1a 	strbeq	r9, [r8], #3866	; 0xf1a
     4f0:	05000000 	streq	r0, [r0, #-0]
     4f4:	00090000 	andeq	r0, r9, r0
     4f8:	20080071 	andcs	r0, r8, r1, ror r0
     4fc:	1aff081a 	bne	fffc256c <__bss_end__+0xfffb8124>
     500:	0005009f 	muleq	r5, pc, r0	; <UNPREDICTABLE>
     504:	00053000 	andeq	r3, r5, r0
     508:	71000900 	tstvc	r0, r0, lsl #18
     50c:	1a400800 	bne	1002514 <__bss_end__+0xff80cc>
     510:	9f1aff08 	svcls	0x001aff08
     514:	0000055c 	andeq	r0, r0, ip, asr r5
     518:	00000594 	muleq	r0, r4, r5
     51c:	9f310002 	svcls	0x00310002
	...
     528:	000003e0 	andeq	r0, r0, r0, ror #7
     52c:	000003e4 	andeq	r0, r0, r4, ror #7
     530:	005c0001 	subseq	r0, ip, r1
     534:	00000000 	andeq	r0, r0, r0
     538:	ec000000 	stc	0, cr0, [r0], {-0}
     53c:	30000003 	andcc	r0, r0, r3
     540:	08000005 	stmdaeq	r0, {r0, r2}
     544:	32007100 	andcc	r7, r0, #0, 2
     548:	1aff081a 	bne	fffc25b8 <__bss_end__+0xfffb8170>
     54c:	0000009f 	muleq	r0, pc, r0	; <UNPREDICTABLE>
     550:	00000000 	andeq	r0, r0, r0
     554:	0003f400 	andeq	pc, r3, r0, lsl #8
     558:	00042800 	andeq	r2, r4, r0, lsl #16
     55c:	71000800 	tstvc	r0, r0, lsl #16
     560:	081a3200 	ldmdaeq	sl, {r9, ip, sp}
     564:	289f1aff 	ldmcs	pc, {r0, r1, r2, r3, r4, r5, r6, r7, r9, fp, ip}	; <UNPREDICTABLE>
     568:	5c000004 	stcpl	0, cr0, [r0], {4}
     56c:	08000004 	stmdaeq	r0, {r2}
     570:	34007100 	strcc	r7, [r0], #-256	; 0x100
     574:	1aff081a 	bne	fffc25e4 <__bss_end__+0xfffb819c>
     578:	00045c9f 	muleq	r4, pc, ip	; <UNPREDICTABLE>
     57c:	00049000 	andeq	r9, r4, r0
     580:	71000800 	tstvc	r0, r0, lsl #16
     584:	081a3800 	ldmdaeq	sl, {fp, ip, sp}
     588:	909f1aff 			; <UNDEFINED> instruction: 0x909f1aff
     58c:	c8000004 	stmdagt	r0, {r2}
     590:	08000004 	stmdaeq	r0, {r2}
     594:	40007100 	andmi	r7, r0, r0, lsl #2
     598:	1aff081a 	bne	fffc2608 <__bss_end__+0xfffb81c0>
     59c:	0004c89f 	muleq	r4, pc, r8	; <UNPREDICTABLE>
     5a0:	00050000 	andeq	r0, r5, r0
     5a4:	71000900 	tstvc	r0, r0, lsl #18
     5a8:	1a200800 	bne	8025b0 <__bss_end__+0x7f8168>
     5ac:	9f1aff08 	svcls	0x001aff08
     5b0:	00000500 	andeq	r0, r0, r0, lsl #10
     5b4:	00000530 	andeq	r0, r0, r0, lsr r5
     5b8:	00710009 	rsbseq	r0, r1, r9
     5bc:	081a4008 	ldmdaeq	sl, {r3, lr}
     5c0:	5c9f1aff 	vldmiapl	pc, {s2-s256}
     5c4:	94000005 	strls	r0, [r0], #-5
     5c8:	02000005 	andeq	r0, r0, #5
     5cc:	009f3100 	addseq	r3, pc, r0, lsl #2
     5d0:	00000000 	andeq	r0, r0, r0
     5d4:	14000000 	strne	r0, [r0], #-0
     5d8:	18000004 	stmdane	r0, {r2}
     5dc:	01000004 	tsteq	r0, r4
     5e0:	00005c00 	andeq	r5, r0, r0, lsl #24
     5e4:	00000000 	andeq	r0, r0, r0
     5e8:	04200000 	strteq	r0, [r0], #-0
     5ec:	05300000 	ldreq	r0, [r0, #-0]!
     5f0:	00080000 	andeq	r0, r8, r0
     5f4:	1a340071 	bne	d007c0 <__bss_end__+0xcf6378>
     5f8:	9f1aff08 	svcls	0x001aff08
	...
     604:	00000428 	andeq	r0, r0, r8, lsr #8
     608:	0000045c 	andeq	r0, r0, ip, asr r4
     60c:	00710008 	rsbseq	r0, r1, r8
     610:	ff081a34 			; <UNDEFINED> instruction: 0xff081a34
     614:	045c9f1a 	ldrbeq	r9, [ip], #-3866	; 0xf1a
     618:	04900000 	ldreq	r0, [r0], #0
     61c:	00080000 	andeq	r0, r8, r0
     620:	1a380071 	bne	e007ec <__bss_end__+0xdf63a4>
     624:	9f1aff08 	svcls	0x001aff08
     628:	00000490 	muleq	r0, r0, r4
     62c:	000004c8 	andeq	r0, r0, r8, asr #9
     630:	00710008 	rsbseq	r0, r1, r8
     634:	ff081a40 			; <UNDEFINED> instruction: 0xff081a40
     638:	04c89f1a 	strbeq	r9, [r8], #3866	; 0xf1a
     63c:	05000000 	streq	r0, [r0, #-0]
     640:	00090000 	andeq	r0, r9, r0
     644:	20080071 	andcs	r0, r8, r1, ror r0
     648:	1aff081a 	bne	fffc26b8 <__bss_end__+0xfffb8270>
     64c:	0005009f 	muleq	r5, pc, r0	; <UNPREDICTABLE>
     650:	00053000 	andeq	r3, r5, r0
     654:	71000900 	tstvc	r0, r0, lsl #18
     658:	1a400800 	bne	1002660 <__bss_end__+0xff8218>
     65c:	9f1aff08 	svcls	0x001aff08
     660:	0000055c 	andeq	r0, r0, ip, asr r5
     664:	00000594 	muleq	r0, r4, r5
     668:	9f310002 	svcls	0x00310002
	...
     674:	00000448 	andeq	r0, r0, r8, asr #8
     678:	0000044c 	andeq	r0, r0, ip, asr #8
     67c:	005c0001 	subseq	r0, ip, r1
     680:	00000000 	andeq	r0, r0, r0
     684:	54000000 	strpl	r0, [r0], #-0
     688:	30000004 	andcc	r0, r0, r4
     68c:	08000005 	stmdaeq	r0, {r0, r2}
     690:	38007100 	stmdacc	r0, {r8, ip, sp, lr}
     694:	1aff081a 	bne	fffc2704 <__bss_end__+0xfffb82bc>
     698:	0000009f 	muleq	r0, pc, r0	; <UNPREDICTABLE>
     69c:	00000000 	andeq	r0, r0, r0
     6a0:	00045c00 	andeq	r5, r4, r0, lsl #24
     6a4:	00049000 	andeq	r9, r4, r0
     6a8:	71000800 	tstvc	r0, r0, lsl #16
     6ac:	081a3800 	ldmdaeq	sl, {fp, ip, sp}
     6b0:	909f1aff 			; <UNDEFINED> instruction: 0x909f1aff
     6b4:	c8000004 	stmdagt	r0, {r2}
     6b8:	08000004 	stmdaeq	r0, {r2}
     6bc:	40007100 	andmi	r7, r0, r0, lsl #2
     6c0:	1aff081a 	bne	fffc2730 <__bss_end__+0xfffb82e8>
     6c4:	0004c89f 	muleq	r4, pc, r8	; <UNPREDICTABLE>
     6c8:	00050000 	andeq	r0, r5, r0
     6cc:	71000900 	tstvc	r0, r0, lsl #18
     6d0:	1a200800 	bne	8026d8 <__bss_end__+0x7f8290>
     6d4:	9f1aff08 	svcls	0x001aff08
     6d8:	00000500 	andeq	r0, r0, r0, lsl #10
     6dc:	00000530 	andeq	r0, r0, r0, lsr r5
     6e0:	00710009 	rsbseq	r0, r1, r9
     6e4:	081a4008 	ldmdaeq	sl, {r3, lr}
     6e8:	5c9f1aff 	vldmiapl	pc, {s2-s256}
     6ec:	94000005 	strls	r0, [r0], #-5
     6f0:	02000005 	andeq	r0, r0, #5
     6f4:	009f3100 	addseq	r3, pc, r0, lsl #2
     6f8:	00000000 	andeq	r0, r0, r0
     6fc:	7c000000 	stcvc	0, cr0, [r0], {-0}
     700:	80000004 	andhi	r0, r0, r4
     704:	01000004 	tsteq	r0, r4
     708:	00005c00 	andeq	r5, r0, r0, lsl #24
     70c:	00000000 	andeq	r0, r0, r0
     710:	04880000 	streq	r0, [r8], #0
     714:	05300000 	ldreq	r0, [r0, #-0]!
     718:	00080000 	andeq	r0, r8, r0
     71c:	1a400071 	bne	10008e8 <__bss_end__+0xff64a0>
     720:	9f1aff08 	svcls	0x001aff08
	...
     72c:	00000490 	muleq	r0, r0, r4
     730:	000004c8 	andeq	r0, r0, r8, asr #9
     734:	00710008 	rsbseq	r0, r1, r8
     738:	ff081a40 			; <UNDEFINED> instruction: 0xff081a40
     73c:	04c89f1a 	strbeq	r9, [r8], #3866	; 0xf1a
     740:	05000000 	streq	r0, [r0, #-0]
     744:	00090000 	andeq	r0, r9, r0
     748:	20080071 	andcs	r0, r8, r1, ror r0
     74c:	1aff081a 	bne	fffc27bc <__bss_end__+0xfffb8374>
     750:	0005009f 	muleq	r5, pc, r0	; <UNPREDICTABLE>
     754:	00053000 	andeq	r3, r5, r0
     758:	71000900 	tstvc	r0, r0, lsl #18
     75c:	1a400800 	bne	1002764 <__bss_end__+0xff831c>
     760:	9f1aff08 	svcls	0x001aff08
     764:	0000055c 	andeq	r0, r0, ip, asr r5
     768:	00000594 	muleq	r0, r4, r5
     76c:	9f310002 	svcls	0x00310002
	...
     778:	000004b4 			; <UNDEFINED> instruction: 0x000004b4
     77c:	000004b8 			; <UNDEFINED> instruction: 0x000004b8
     780:	005c0001 	subseq	r0, ip, r1
     784:	00000000 	andeq	r0, r0, r0
     788:	c0000000 	andgt	r0, r0, r0
     78c:	30000004 	andcc	r0, r0, r4
     790:	09000005 	stmdbeq	r0, {r0, r2}
     794:	08007100 	stmdaeq	r0, {r8, ip, sp, lr}
     798:	ff081a20 			; <UNDEFINED> instruction: 0xff081a20
     79c:	00009f1a 	andeq	r9, r0, sl, lsl pc
     7a0:	00000000 	andeq	r0, r0, r0
     7a4:	04c80000 	strbeq	r0, [r8], #0
     7a8:	05000000 	streq	r0, [r0, #-0]
     7ac:	00090000 	andeq	r0, r9, r0
     7b0:	20080071 	andcs	r0, r8, r1, ror r0
     7b4:	1aff081a 	bne	fffc2824 <__bss_end__+0xfffb83dc>
     7b8:	0005009f 	muleq	r5, pc, r0	; <UNPREDICTABLE>
     7bc:	00053000 	andeq	r3, r5, r0
     7c0:	71000900 	tstvc	r0, r0, lsl #18
     7c4:	1a400800 	bne	10027cc <__bss_end__+0xff8384>
     7c8:	9f1aff08 	svcls	0x001aff08
     7cc:	0000055c 	andeq	r0, r0, ip, asr r5
     7d0:	00000594 	muleq	r0, r4, r5
     7d4:	9f310002 	svcls	0x00310002
	...
     7e0:	000004ec 	andeq	r0, r0, ip, ror #9
     7e4:	000004f0 	strdeq	r0, [r0], -r0	; <UNPREDICTABLE>
     7e8:	005c0001 	subseq	r0, ip, r1
     7ec:	00000000 	andeq	r0, r0, r0
     7f0:	f8000000 			; <UNDEFINED> instruction: 0xf8000000
     7f4:	30000004 	andcc	r0, r0, r4
     7f8:	09000005 	stmdbeq	r0, {r0, r2}
     7fc:	08007100 	stmdaeq	r0, {r8, ip, sp, lr}
     800:	ff081a40 			; <UNDEFINED> instruction: 0xff081a40
     804:	00009f1a 	andeq	r9, r0, sl, lsl pc
     808:	00000000 	andeq	r0, r0, r0
     80c:	05000000 	streq	r0, [r0, #-0]
     810:	05300000 	ldreq	r0, [r0, #-0]!
     814:	00090000 	andeq	r0, r9, r0
     818:	40080071 	andmi	r0, r8, r1, ror r0
     81c:	1aff081a 	bne	fffc288c <__bss_end__+0xfffb8444>
     820:	00055c9f 	muleq	r5, pc, ip	; <UNPREDICTABLE>
     824:	00059400 	andeq	r9, r5, r0, lsl #8
     828:	31000200 	mrscc	r0, R8_usr
     82c:	0000009f 	muleq	r0, pc, r0	; <UNPREDICTABLE>
     830:	00000000 	andeq	r0, r0, r0
     834:	00051c00 	andeq	r1, r5, r0, lsl #24
     838:	00052000 	andeq	r2, r5, r0
     83c:	5c000100 	stfpls	f0, [r0], {-0}
	...
     848:	00000528 	andeq	r0, r0, r8, lsr #10
     84c:	00000530 	andeq	r0, r0, r0, lsr r5
     850:	00710009 	rsbseq	r0, r1, r9
     854:	081a8009 	ldmdaeq	sl, {r0, r3, pc}
     858:	009f1aff 			; <UNDEFINED> instruction: 0x009f1aff
     85c:	00000000 	andeq	r0, r0, r0
     860:	5c000000 	stcpl	0, cr0, [r0], {-0}
     864:	94000005 	strls	r0, [r0], #-5
     868:	02000005 	andeq	r0, r0, #5
     86c:	009f3100 	addseq	r3, pc, r0, lsl #2
     870:	00000000 	andeq	r0, r0, r0
     874:	50000000 	andpl	r0, r0, r0
     878:	54000005 	strpl	r0, [r0], #-5
     87c:	01000005 	tsteq	r0, r5
     880:	00005100 	andeq	r5, r0, r0, lsl #2
     884:	00000000 	andeq	r0, r0, r0
     888:	05780000 	ldrbeq	r0, [r8, #-0]!
     88c:	057c0000 	ldrbeq	r0, [ip, #-0]!
     890:	00010000 	andeq	r0, r1, r0
     894:	00000052 	andeq	r0, r0, r2, asr r0
     898:	00000000 	andeq	r0, r0, r0
     89c:	0005dc00 	andeq	sp, r5, r0, lsl #24
     8a0:	00063c00 	andeq	r3, r6, r0, lsl #24
     8a4:	45000200 	strmi	r0, [r0, #-512]	; 0x200
     8a8:	0000009f 	muleq	r0, pc, r0	; <UNPREDICTABLE>
     8ac:	00000000 	andeq	r0, r0, r0
     8b0:	0005dc00 	andeq	sp, r5, r0, lsl #24
     8b4:	00063c00 	andeq	r3, r6, r0, lsl #24
     8b8:	44000200 	strmi	r0, [r0], #-512	; 0x200
     8bc:	0000009f 	muleq	r0, pc, r0	; <UNPREDICTABLE>
     8c0:	00000000 	andeq	r0, r0, r0
     8c4:	0005dc00 	andeq	sp, r5, r0, lsl #24
     8c8:	00063c00 	andeq	r3, r6, r0, lsl #24
     8cc:	08000300 	stmdaeq	r0, {r8, r9}
     8d0:	00009ffe 	strdeq	r9, [r0], -lr
     8d4:	00000000 	andeq	r0, r0, r0
     8d8:	05e40000 	strbeq	r0, [r4, #0]!
     8dc:	05f40000 	ldrbeq	r0, [r4, #0]!
     8e0:	00020000 	andeq	r0, r2, r0
     8e4:	05f49f30 	ldrbeq	r9, [r4, #3888]!	; 0xf30
     8e8:	060c0000 	streq	r0, [ip], -r0
     8ec:	00020000 	andeq	r0, r2, r0
     8f0:	060c9f31 			; <UNDEFINED> instruction: 0x060c9f31
     8f4:	063c0000 	ldrteq	r0, [ip], -r0
     8f8:	00010000 	andeq	r0, r1, r0
     8fc:	00000055 	andeq	r0, r0, r5, asr r0
     900:	00000000 	andeq	r0, r0, r0
     904:	0005e400 	andeq	lr, r5, r0, lsl #8
     908:	0005f800 	andeq	pc, r5, r0, lsl #16
     90c:	31000200 	mrscc	r0, R8_usr
     910:	0005f89f 	muleq	r5, pc, r8	; <UNPREDICTABLE>
     914:	00063c00 	andeq	r3, r6, r0, lsl #24
     918:	54000100 	strpl	r0, [r0], #-256	; 0x100
	...
     924:	000005e4 	andeq	r0, r0, r4, ror #11
     928:	000005f8 	strdeq	r0, [r0], -r8
     92c:	9f300002 	svcls	0x00300002
     930:	000005fc 	strdeq	r0, [r0], -ip
     934:	00000608 	andeq	r0, r0, r8, lsl #12
     938:	00500001 	subseq	r0, r0, r1
     93c:	00000000 	andeq	r0, r0, r0
     940:	3c000000 	stccc	0, cr0, [r0], {-0}
     944:	94000006 	strls	r0, [r0], #-6
     948:	02000006 	andeq	r0, r0, #6
     94c:	009f4500 	addseq	r4, pc, r0, lsl #10
     950:	00000000 	andeq	r0, r0, r0
     954:	3c000000 	stccc	0, cr0, [r0], {-0}
     958:	94000006 	strls	r0, [r0], #-6
     95c:	02000006 	andeq	r0, r0, #6
     960:	009f4400 	addseq	r4, pc, r0, lsl #8
     964:	00000000 	andeq	r0, r0, r0
     968:	3c000000 	stccc	0, cr0, [r0], {-0}
     96c:	94000006 	strls	r0, [r0], #-6
     970:	03000006 	movweq	r0, #6
     974:	9ffe0800 	svcls	0x00fe0800
	...
     980:	00000648 	andeq	r0, r0, r8, asr #12
     984:	00000654 	andeq	r0, r0, r4, asr r6
     988:	9f300002 	svcls	0x00300002
     98c:	0000066c 	andeq	r0, r0, ip, ror #12
     990:	00000684 	andeq	r0, r0, r4, lsl #13
     994:	00560001 	subseq	r0, r6, r1
     998:	00000000 	andeq	r0, r0, r0
     99c:	48000000 	stmdami	r0, {}	; <UNPREDICTABLE>
     9a0:	54000006 	strpl	r0, [r0], #-6
     9a4:	02000006 	andeq	r0, r0, #6
     9a8:	549f3000 	ldrpl	r3, [pc], #0	; 9b0 <_start-0x7650>
     9ac:	94000006 	strls	r0, [r0], #-6
     9b0:	01000006 	tsteq	r0, r6
     9b4:	00005500 	andeq	r5, r0, r0, lsl #10
     9b8:	00000000 	andeq	r0, r0, r0
     9bc:	06480000 	strbeq	r0, [r8], -r0
     9c0:	06540000 	ldrbeq	r0, [r4], -r0
     9c4:	00020000 	andeq	r0, r2, r0
     9c8:	00009f30 	andeq	r9, r0, r0, lsr pc
     9cc:	00000000 	andeq	r0, r0, r0
     9d0:	002c0000 	eoreq	r0, ip, r0
     9d4:	00380000 	eorseq	r0, r8, r0
     9d8:	00010000 	andeq	r0, r1, r0
     9dc:	00003850 	andeq	r3, r0, r0, asr r8
     9e0:	00004800 	andeq	r4, r0, r0, lsl #16
     9e4:	55000100 	strpl	r0, [r0, #-256]	; 0x100
     9e8:	00000048 	andeq	r0, r0, r8, asr #32
     9ec:	00000058 	andeq	r0, r0, r8, asr r0
     9f0:	00500001 	subseq	r0, r0, r1
	...
     9fc:	0b000000 	bleq	a04 <_start-0x75fc>
     a00:	01000000 	mrseq	r0, (UNDEF: 0)
     a04:	000b5000 	andeq	r5, fp, r0
     a08:	00140000 	andseq	r0, r4, r0
     a0c:	00010000 	andeq	r0, r1, r0
     a10:	00000054 	andeq	r0, r0, r4, asr r0
	...
     a1c:	00001000 	andeq	r1, r0, r0
     a20:	50000100 	andpl	r0, r0, r0, lsl #2
     a24:	00000010 	andeq	r0, r0, r0, lsl r0
     a28:	00000034 	andeq	r0, r0, r4, lsr r0
     a2c:	00540001 	subseq	r0, r4, r1
	...
     a38:	04000000 	streq	r0, [r0], #-0
     a3c:	01000000 	mrseq	r0, (UNDEF: 0)
     a40:	00045000 	andeq	r5, r4, r0
     a44:	000c0000 	andeq	r0, ip, r0
     a48:	00030000 	andeq	r0, r3, r0
     a4c:	0c9f3070 	ldceq	0, cr3, [pc], {112}	; 0x70
     a50:	14000000 	strne	r0, [r0], #-0
     a54:	04000000 	streq	r0, [r0], #-0
     a58:	5001f300 	andpl	pc, r1, r0, lsl #6
     a5c:	0000009f 	muleq	r0, pc, r0	; <UNPREDICTABLE>
     a60:	00000000 	andeq	r0, r0, r0
     a64:	00001400 	andeq	r1, r0, r0, lsl #8
     a68:	00002000 	andeq	r2, r0, r0
     a6c:	50000100 	andpl	r0, r0, r0, lsl #2
     a70:	00000020 	andeq	r0, r0, r0, lsr #32
     a74:	0000002c 	andeq	r0, r0, ip, lsr #32
     a78:	01700003 	cmneq	r0, r3
     a7c:	00002c9f 	muleq	r0, pc, ip	; <UNPREDICTABLE>
     a80:	00004000 	andeq	r4, r0, r0
     a84:	50000100 	andpl	r0, r0, r0, lsl #2
	...
     a90:	00000014 	andeq	r0, r0, r4, lsl r0
     a94:	00000018 	andeq	r0, r0, r8, lsl r0
     a98:	18510001 	ldmdane	r1, {r0}^
     a9c:	40000000 	andmi	r0, r0, r0
     aa0:	04000000 	streq	r0, [r0], #-0
     aa4:	5101f300 	mrspl	pc, SP_irq	; <UNPREDICTABLE>
     aa8:	0000009f 	muleq	r0, pc, r0	; <UNPREDICTABLE>
     aac:	00000000 	andeq	r0, r0, r0
     ab0:	00004000 	andeq	r4, r0, r0
     ab4:	00006000 	andeq	r6, r0, r0
     ab8:	50000100 	andpl	r0, r0, r0, lsl #2
     abc:	00000060 	andeq	r0, r0, r0, rrx
     ac0:	0000006c 	andeq	r0, r0, ip, rrx
     ac4:	01710003 	cmneq	r1, r3
     ac8:	00006c9f 	muleq	r0, pc, ip	; <UNPREDICTABLE>
     acc:	00007400 	andeq	r7, r0, r0, lsl #8
     ad0:	51000100 	mrspl	r0, (UNDEF: 16)
     ad4:	00000074 	andeq	r0, r0, r4, ror r0
     ad8:	00000080 	andeq	r0, r0, r0, lsl #1
     adc:	01710003 	cmneq	r1, r3
     ae0:	0000009f 	muleq	r0, pc, r0	; <UNPREDICTABLE>
     ae4:	00000000 	andeq	r0, r0, r0
     ae8:	00004000 	andeq	r4, r0, r0
     aec:	00005000 	andeq	r5, r0, r0
     af0:	51000100 	mrspl	r0, (UNDEF: 16)
     af4:	00000050 	andeq	r0, r0, r0, asr r0
     af8:	00000080 	andeq	r0, r0, r0, lsl #1
     afc:	01f30004 	mvnseq	r0, r4
     b00:	00009f51 	andeq	r9, r0, r1, asr pc
     b04:	00000000 	andeq	r0, r0, r0
     b08:	00400000 	subeq	r0, r0, r0
     b0c:	00580000 	subseq	r0, r8, r0
     b10:	00010000 	andeq	r0, r1, r0
     b14:	00005852 	andeq	r5, r0, r2, asr r8
     b18:	00006400 	andeq	r6, r0, r0, lsl #8
     b1c:	52000100 	andpl	r0, r0, #0, 2
     b20:	00000064 	andeq	r0, r0, r4, rrx
     b24:	00000068 	andeq	r0, r0, r8, rrx
     b28:	01720003 	cmneq	r2, r3
     b2c:	0000689f 	muleq	r0, pc, r8	; <UNPREDICTABLE>
     b30:	00008000 	andeq	r8, r0, r0
     b34:	52000100 	andpl	r0, r0, #0, 2
	...
     b40:	00000040 	andeq	r0, r0, r0, asr #32
     b44:	00000054 	andeq	r0, r0, r4, asr r0
     b48:	54530001 	ldrbpl	r0, [r3], #-1
     b4c:	78000000 	stmdavc	r0, {}	; <UNPREDICTABLE>
     b50:	01000000 	mrseq	r0, (UNDEF: 0)
     b54:	00005300 	andeq	r5, r0, r0, lsl #6
     b58:	00000000 	andeq	r0, r0, r0
     b5c:	00480000 	subeq	r0, r8, r0
     b60:	00600000 	rsbeq	r0, r0, r0
     b64:	00010000 	andeq	r0, r1, r0
     b68:	0000605c 	andeq	r6, r0, ip, asr r0
     b6c:	00008000 	andeq	r8, r0, r0
     b70:	f3000a00 	vpmax.u8	d0, d0, d0
     b74:	01f35201 	mvnseq	r5, r1, lsl #4
     b78:	01231c53 	teqeq	r3, r3, asr ip
     b7c:	0000009f 	muleq	r0, pc, r0	; <UNPREDICTABLE>
     b80:	00000000 	andeq	r0, r0, r0
     b84:	00008000 	andeq	r8, r0, r0
     b88:	0000a400 	andeq	sl, r0, r0, lsl #8
     b8c:	50000100 	andpl	r0, r0, r0, lsl #2
     b90:	000000a4 	andeq	r0, r0, r4, lsr #1
     b94:	00000118 	andeq	r0, r0, r8, lsl r1
     b98:	02700003 	rsbseq	r0, r0, #3
     b9c:	0001189f 	muleq	r1, pc, r8	; <UNPREDICTABLE>
     ba0:	00022800 	andeq	r2, r2, r0, lsl #16
     ba4:	f3000400 	vshl.u8	d0, d0, d0
     ba8:	009f5001 	addseq	r5, pc, r1
     bac:	00000000 	andeq	r0, r0, r0
     bb0:	80000000 	andhi	r0, r0, r0
     bb4:	f0000000 			; <UNDEFINED> instruction: 0xf0000000
     bb8:	01000000 	mrseq	r0, (UNDEF: 0)
     bbc:	00f05100 	rscseq	r5, r0, r0, lsl #2
     bc0:	01600000 	cmneq	r0, r0
     bc4:	00010000 	andeq	r0, r1, r0
     bc8:	00016055 	andeq	r6, r1, r5, asr r0
     bcc:	00016800 	andeq	r6, r1, r0, lsl #16
     bd0:	51000100 	mrspl	r0, (UNDEF: 16)
     bd4:	00000168 	andeq	r0, r0, r8, ror #2
     bd8:	00000188 	andeq	r0, r0, r8, lsl #3
     bdc:	88550001 	ldmdahi	r5, {r0}^
     be0:	9c000001 	stcls	0, cr0, [r0], {1}
     be4:	01000001 	tsteq	r0, r1
     be8:	019c5100 	orrseq	r5, ip, r0, lsl #2
     bec:	01bc0000 			; <UNDEFINED> instruction: 0x01bc0000
     bf0:	00010000 	andeq	r0, r1, r0
     bf4:	0001bc55 	andeq	fp, r1, r5, asr ip
     bf8:	0001bf00 	andeq	fp, r1, r0, lsl #30
     bfc:	51000100 	mrspl	r0, (UNDEF: 16)
     c00:	000001bf 			; <UNDEFINED> instruction: 0x000001bf
     c04:	00000208 	andeq	r0, r0, r8, lsl #4
     c08:	08550001 	ldmdaeq	r5, {r0}^
     c0c:	28000002 	stmdacs	r0, {r1}
     c10:	04000002 	streq	r0, [r0], #-2
     c14:	5101f300 	mrspl	pc, SP_irq	; <UNPREDICTABLE>
     c18:	0000009f 	muleq	r0, pc, r0	; <UNPREDICTABLE>
     c1c:	00000000 	andeq	r0, r0, r0
     c20:	00008000 	andeq	r8, r0, r0
     c24:	00009400 	andeq	r9, r0, r0, lsl #8
     c28:	52000100 	andpl	r0, r0, #0, 2
     c2c:	00000094 	muleq	r0, r4, r0
     c30:	00000208 	andeq	r0, r0, r8, lsl #4
     c34:	08540001 	ldmdaeq	r4, {r0}^
     c38:	28000002 	stmdacs	r0, {r1}
     c3c:	04000002 	streq	r0, [r0], #-2
     c40:	5201f300 	andpl	pc, r1, #0, 6
     c44:	0000009f 	muleq	r0, pc, r0	; <UNPREDICTABLE>
     c48:	00000000 	andeq	r0, r0, r0
     c4c:	00008000 	andeq	r8, r0, r0
     c50:	00010000 	andeq	r0, r1, r0
     c54:	53000100 	movwpl	r0, #256	; 0x100
     c58:	00000104 	andeq	r0, r0, r4, lsl #2
     c5c:	00000108 	andeq	r0, r0, r8, lsl #2
     c60:	60530001 	subsvs	r0, r3, r1
     c64:	68000001 	stmdavs	r0, {r0}
     c68:	01000001 	tsteq	r0, r1
     c6c:	01685300 	cmneq	r8, r0, lsl #6
     c70:	01880000 	orreq	r0, r8, r0
     c74:	00040000 	andeq	r0, r4, r0
     c78:	9f5301f3 	svcls	0x005301f3
     c7c:	00000188 	andeq	r0, r0, r8, lsl #3
     c80:	00000190 	muleq	r0, r0, r1
     c84:	90530001 	subsls	r0, r3, r1
     c88:	94000001 	strls	r0, [r0], #-1
     c8c:	01000001 	tsteq	r0, r1
     c90:	01945c00 	orrseq	r5, r4, r0, lsl #24
     c94:	019c0000 	orrseq	r0, ip, r0
     c98:	00010000 	andeq	r0, r1, r0
     c9c:	00019c53 	andeq	r9, r1, r3, asr ip
     ca0:	0001bc00 	andeq	fp, r1, r0, lsl #24
     ca4:	f3000400 	vshl.u8	d0, d0, d0
     ca8:	bc9f5301 	ldclt	3, cr5, [pc], {1}
     cac:	bf000001 	svclt	0x00000001
     cb0:	01000001 	tsteq	r0, r1
     cb4:	01bf5300 			; <UNDEFINED> instruction: 0x01bf5300
     cb8:	01e00000 	mvneq	r0, r0
     cbc:	00040000 	andeq	r0, r4, r0
     cc0:	9f5301f3 	svcls	0x005301f3
	...
     ccc:	00000080 	andeq	r0, r0, r0, lsl #1
     cd0:	0000009c 	muleq	r0, ip, r0
     cd4:	00910002 	addseq	r0, r1, r2
     cd8:	0000009c 	muleq	r0, ip, r0
     cdc:	000001bf 			; <UNDEFINED> instruction: 0x000001bf
     ce0:	e0520001 	subs	r0, r2, r1
     ce4:	eb000001 	bl	cf0 <_start-0x7310>
     ce8:	01000001 	tsteq	r0, r1
     cec:	00005200 	andeq	r5, r0, r0, lsl #4
     cf0:	00000000 	andeq	r0, r0, r0
     cf4:	009c0000 	addseq	r0, ip, r0
     cf8:	010c0000 	mrseq	r0, (UNDEF: 12)
     cfc:	00040000 	andeq	r0, r4, r0
     d00:	9f7fa091 	svcls	0x007fa091
     d04:	0000010c 	andeq	r0, r0, ip, lsl #2
     d08:	00000118 	andeq	r0, r0, r8, lsl r1
     d0c:	18510001 	ldmdane	r1, {r0}^
     d10:	1c000001 	stcne	0, cr0, [r0], {1}
     d14:	01000001 	tsteq	r0, r1
     d18:	011c5300 	tsteq	ip, r0, lsl #6
     d1c:	01200000 	teqeq	r0, r0
     d20:	00010000 	andeq	r0, r1, r0
     d24:	00012051 	andeq	r2, r1, r1, asr r0
     d28:	00016000 	andeq	r6, r1, r0
     d2c:	53000100 	movwpl	r0, #256	; 0x100
     d30:	00000160 	andeq	r0, r0, r0, ror #2
     d34:	00000164 	andeq	r0, r0, r4, ror #2
     d38:	a0910004 	addsge	r0, r1, r4
     d3c:	01649f7f 	smceq	18943	; 0x49ff
     d40:	016c0000 	cmneq	ip, r0
     d44:	00010000 	andeq	r0, r1, r0
     d48:	00016c5e 	andeq	r6, r1, lr, asr ip
     d4c:	00018800 	andeq	r8, r1, r0, lsl #16
     d50:	53000100 	movwpl	r0, #256	; 0x100
     d54:	00000188 	andeq	r0, r0, r8, lsl #3
     d58:	00000190 	muleq	r0, r0, r1
     d5c:	a1910004 	orrsge	r0, r1, r4
     d60:	01909f7f 	orrseq	r9, r0, pc, ror pc
     d64:	01940000 	orrseq	r0, r4, r0
     d68:	00010000 	andeq	r0, r1, r0
     d6c:	00019453 	andeq	r9, r1, r3, asr r4
     d70:	00019800 	andeq	r9, r1, r0, lsl #16
     d74:	91000400 	tstls	r0, r0, lsl #8
     d78:	989f7fa0 	ldmls	pc, {r5, r7, r8, r9, sl, fp, ip, sp, lr}	; <UNPREDICTABLE>
     d7c:	a0000001 	andge	r0, r0, r1
     d80:	01000001 	tsteq	r0, r1
     d84:	01a05e00 	lsleq	r5, r0, #28
     d88:	01bc0000 			; <UNDEFINED> instruction: 0x01bc0000
     d8c:	00010000 	andeq	r0, r1, r0
     d90:	0001bc53 	andeq	fp, r1, r3, asr ip
     d94:	0001e000 	andeq	lr, r1, r0
     d98:	91000400 	tstls	r0, r0, lsl #8
     d9c:	e09f7fa0 	adds	r7, pc, r0, lsr #31
     da0:	eb000001 	bl	dac <_start-0x7254>
     da4:	01000001 	tsteq	r0, r1
     da8:	00005300 	andeq	r5, r0, r0, lsl #6
     dac:	00000000 	andeq	r0, r0, r0
     db0:	00a00000 	adceq	r0, r0, r0
     db4:	00ec0000 	rsceq	r0, ip, r0
     db8:	00010000 	andeq	r0, r1, r0
     dbc:	0000ec5c 	andeq	lr, r0, ip, asr ip
     dc0:	00010000 	andeq	r0, r1, r0
     dc4:	53000100 	movwpl	r0, #256	; 0x100
     dc8:	00000100 	andeq	r0, r0, r0, lsl #2
     dcc:	00000104 	andeq	r0, r0, r4, lsl #2
     dd0:	045c0001 	ldrbeq	r0, [ip], #-1
     dd4:	08000001 	stmdaeq	r0, {r0}
     dd8:	01000001 	tsteq	r0, r1
     ddc:	01085300 	mrseq	r5, (UNDEF: 56)
     de0:	01180000 	tsteq	r8, r0
     de4:	00010000 	andeq	r0, r1, r0
     de8:	0001185c 	andeq	r1, r1, ip, asr r8
     dec:	00011c00 	andeq	r1, r1, r0, lsl #24
     df0:	50000100 	andpl	r0, r0, r0, lsl #2
     df4:	0000011c 	andeq	r0, r0, ip, lsl r1
     df8:	0000013c 	andeq	r0, r0, ip, lsr r1
     dfc:	445c0001 	ldrbmi	r0, [ip], #-1
     e00:	58000001 	stmdapl	r0, {r0}
     e04:	01000001 	tsteq	r0, r1
     e08:	01585000 	cmpeq	r8, r0
     e0c:	01600000 	cmneq	r0, r0
     e10:	00010000 	andeq	r0, r1, r0
     e14:	0001605c 	andeq	r6, r1, ip, asr r0
     e18:	00016800 	andeq	r6, r1, r0, lsl #16
     e1c:	53000100 	movwpl	r0, #256	; 0x100
     e20:	00000168 	andeq	r0, r0, r8, ror #2
     e24:	00000178 	andeq	r0, r0, r8, ror r1
     e28:	785c0001 	ldmdavc	ip, {r0}^
     e2c:	80000001 	andhi	r0, r0, r1
     e30:	05000001 	streq	r0, [r0, #-1]
     e34:	34007c00 	strcc	r7, [r0], #-3072	; 0xc00
     e38:	01809f25 	orreq	r9, r0, r5, lsr #30
     e3c:	01880000 	orreq	r0, r8, r0
     e40:	00010000 	andeq	r0, r1, r0
     e44:	0001885c 	andeq	r8, r1, ip, asr r8
     e48:	00019000 	andeq	r9, r1, r0
     e4c:	53000100 	movwpl	r0, #256	; 0x100
     e50:	00000190 	muleq	r0, r0, r1
     e54:	00000194 	muleq	r0, r4, r1
     e58:	945c0001 	ldrbls	r0, [ip], #-1
     e5c:	9c000001 	stcls	0, cr0, [r0], {1}
     e60:	01000001 	tsteq	r0, r1
     e64:	019c5300 	orrseq	r5, ip, r0, lsl #6
     e68:	01ac0000 			; <UNDEFINED> instruction: 0x01ac0000
     e6c:	00010000 	andeq	r0, r1, r0
     e70:	0001ac5c 	andeq	sl, r1, ip, asr ip
     e74:	0001b400 	andeq	fp, r1, r0, lsl #8
     e78:	7c000500 	cfstr32vc	mvfx0, [r0], {-0}
     e7c:	9f253100 	svcls	0x00253100
     e80:	000001b4 			; <UNDEFINED> instruction: 0x000001b4
     e84:	000001bc 			; <UNDEFINED> instruction: 0x000001bc
     e88:	bc5c0001 	mrrclt	0, 0, r0, ip, cr1
     e8c:	bf000001 	svclt	0x00000001
     e90:	01000001 	tsteq	r0, r1
     e94:	01bf5300 			; <UNDEFINED> instruction: 0x01bf5300
     e98:	01e00000 	mvneq	r0, r0
     e9c:	00040000 	andeq	r0, r4, r0
     ea0:	9f5301f3 	svcls	0x005301f3
     ea4:	000001e0 	andeq	r0, r0, r0, ror #3
     ea8:	000001eb 	andeq	r0, r0, fp, ror #3
     eac:	005c0001 	subseq	r0, ip, r1
     eb0:	00000000 	andeq	r0, r0, r0
     eb4:	ec000000 	stc	0, cr0, [r0], {-0}
     eb8:	fc000000 	stc2	0, cr0, [r0], {-0}
     ebc:	02000000 	andeq	r0, r0, #0
     ec0:	fc9f3000 	ldc2	0, cr3, [pc], {0}
     ec4:	04000000 	streq	r0, [r0], #-0
     ec8:	02000001 	andeq	r0, r0, #1
     ecc:	049f3100 	ldreq	r3, [pc], #256	; ed4 <_start-0x712c>
     ed0:	08000001 	stmdaeq	r0, {r0}
     ed4:	02000001 	andeq	r0, r0, #1
     ed8:	009f3000 	addseq	r3, pc, r0
     edc:	00000000 	andeq	r0, r0, r0
     ee0:	28000000 	stmdacs	r0, {}	; <UNPREDICTABLE>
     ee4:	3b000002 	blcc	ef4 <_start-0x710c>
     ee8:	01000002 	tsteq	r0, r2
     eec:	023b5000 	eorseq	r5, fp, #0
     ef0:	025c0000 	subseq	r0, ip, #0
     ef4:	00040000 	andeq	r0, r4, r0
     ef8:	9f5001f3 	svcls	0x005001f3
     efc:	0000025c 	andeq	r0, r0, ip, asr r2
     f00:	00000290 	muleq	r0, r0, r2
     f04:	00500001 	subseq	r0, r0, r1
     f08:	00000000 	andeq	r0, r0, r0
     f0c:	28000000 	stmdacs	r0, {}	; <UNPREDICTABLE>
     f10:	3b000002 	blcc	f20 <_start-0x70e0>
     f14:	01000002 	tsteq	r0, r2
     f18:	023b5100 	eorseq	r5, fp, #0, 2
     f1c:	025c0000 	subseq	r0, ip, #0
     f20:	00040000 	andeq	r0, r4, r0
     f24:	9f5101f3 	svcls	0x005101f3
     f28:	0000025c 	andeq	r0, r0, ip, asr r2
     f2c:	00000290 	muleq	r0, r0, r2
     f30:	00510001 	subseq	r0, r1, r1
     f34:	00000000 	andeq	r0, r0, r0
     f38:	90000000 	andls	r0, r0, r0
     f3c:	bc000002 	stclt	0, cr0, [r0], {2}
     f40:	01000002 	tsteq	r0, r2
     f44:	02bc5000 	adcseq	r5, ip, #0
     f48:	050c0000 	streq	r0, [ip, #-0]
     f4c:	00010000 	andeq	r0, r1, r0
     f50:	00050c5a 	andeq	r0, r5, sl, asr ip
     f54:	00052400 	andeq	r2, r5, r0, lsl #8
     f58:	f3000400 	vshl.u8	d0, d0, d0
     f5c:	009f5001 	addseq	r5, pc, r1
     f60:	00000000 	andeq	r0, r0, r0
     f64:	90000000 	andls	r0, r0, r0
     f68:	a4000002 	strge	r0, [r0], #-2
     f6c:	01000002 	tsteq	r0, r2
     f70:	02a45100 	adceq	r5, r4, #0, 2
     f74:	02bc0000 	adcseq	r0, ip, #0
     f78:	00030000 	andeq	r0, r3, r0
     f7c:	bc9f0171 	ldflts	f0, [pc], {113}	; 0x71
     f80:	24000002 	strcs	r0, [r0], #-2
     f84:	04000005 	streq	r0, [r0], #-5
     f88:	5101f300 	mrspl	pc, SP_irq	; <UNPREDICTABLE>
     f8c:	0000009f 	muleq	r0, pc, r0	; <UNPREDICTABLE>
     f90:	00000000 	andeq	r0, r0, r0
     f94:	00029000 	andeq	r9, r2, r0
     f98:	0002c400 	andeq	ip, r2, r0, lsl #8
     f9c:	52000100 	andpl	r0, r0, #0, 2
     fa0:	000002c4 	andeq	r0, r0, r4, asr #5
     fa4:	000002ec 	andeq	r0, r0, ip, ror #5
     fa8:	ec520001 	mrrc	0, 0, r0, r2, cr1
     fac:	bc000002 	stclt	0, cr0, [r0], {2}
     fb0:	01000004 	tsteq	r0, r4
     fb4:	04bc5600 	ldrteq	r5, [ip], #1536	; 0x600
     fb8:	05240000 	streq	r0, [r4, #-0]!
     fbc:	00010000 	andeq	r0, r1, r0
     fc0:	00000052 	andeq	r0, r0, r2, asr r0
     fc4:	00000000 	andeq	r0, r0, r0
     fc8:	00029000 	andeq	r9, r2, r0
     fcc:	0002ac00 	andeq	sl, r2, r0, lsl #24
     fd0:	53000100 	movwpl	r0, #256	; 0x100
	...
     fdc:	000002a0 	andeq	r0, r0, r0, lsr #5
     fe0:	000002bc 			; <UNDEFINED> instruction: 0x000002bc
     fe4:	bc500001 	mrrclt	0, 0, r0, r0, cr1	; <UNPREDICTABLE>
     fe8:	c0000002 	andgt	r0, r0, r2
     fec:	01000002 	tsteq	r0, r2
     ff0:	02c05400 	sbceq	r5, r0, #0, 8
     ff4:	02cc0000 	sbceq	r0, ip, #0
     ff8:	00030000 	andeq	r0, r3, r0
     ffc:	cc9f0174 	ldfgts	f0, [pc], {116}	; 0x74
    1000:	d8000002 	stmdale	r0, {r1}
    1004:	01000002 	tsteq	r0, r2
    1008:	02d85400 	sbcseq	r5, r8, #0, 8
    100c:	02e40000 	rsceq	r0, r4, #0
    1010:	00030000 	andeq	r0, r3, r0
    1014:	e49f0174 	ldr	r0, [pc], #372	; 101c <_start-0x6fe4>
    1018:	c0000002 	andgt	r0, r0, r2
    101c:	01000004 	tsteq	r0, r4
    1020:	04c05400 	strbeq	r5, [r0], #1024	; 0x400
    1024:	04cc0000 	strbeq	r0, [ip], #0
    1028:	00030000 	andeq	r0, r3, r0
    102c:	cc9f0174 	ldfgts	f0, [pc], {116}	; 0x74
    1030:	f8000004 			; <UNDEFINED> instruction: 0xf8000004
    1034:	01000004 	tsteq	r0, r4
    1038:	04f85400 	ldrbteq	r5, [r8], #1024	; 0x400
    103c:	05040000 	streq	r0, [r4, #-0]
    1040:	00010000 	andeq	r0, r1, r0
    1044:	00050450 	andeq	r0, r5, r0, asr r4
    1048:	00050c00 	andeq	r0, r5, r0, lsl #24
    104c:	74000300 	strvc	r0, [r0], #-768	; 0x300
    1050:	00009f01 	andeq	r9, r0, r1, lsl #30
    1054:	00000000 	andeq	r0, r0, r0
    1058:	02a80000 	adceq	r0, r8, #0
    105c:	050c0000 	streq	r0, [ip, #-0]
    1060:	00010000 	andeq	r0, r1, r0
    1064:	00050c58 	andeq	r0, r5, r8, asr ip
    1068:	00052400 	andeq	r2, r5, r0, lsl #8
    106c:	f3000a00 	vpmax.u8	d0, d0, d0
    1070:	01f35101 	mvnseq	r5, r1, lsl #2
    1074:	1c312250 	lfmne	f2, 4, [r1], #-320	; 0xfffffec0
    1078:	0000009f 	muleq	r0, pc, r0	; <UNPREDICTABLE>
    107c:	00000000 	andeq	r0, r0, r0
    1080:	0003f400 	andeq	pc, r3, r0, lsl #8
    1084:	0003f800 	andeq	pc, r3, r0, lsl #16
    1088:	50000100 	andpl	r0, r0, r0, lsl #2
    108c:	00000418 	andeq	r0, r0, r8, lsl r4
    1090:	0000041c 	andeq	r0, r0, ip, lsl r4
    1094:	3c500001 	mrrccc	0, 0, r0, r0, cr1	; <UNPREDICTABLE>
    1098:	40000004 	andmi	r0, r0, r4
    109c:	01000004 	tsteq	r0, r4
    10a0:	04605000 	strbteq	r5, [r0], #-0
    10a4:	04640000 	strbteq	r0, [r4], #-0
    10a8:	00010000 	andeq	r0, r1, r0
    10ac:	00046c50 	andeq	r6, r4, r0, asr ip
    10b0:	00047000 	andeq	r7, r4, r0
    10b4:	50000100 	andpl	r0, r0, r0, lsl #2
    10b8:	00000490 	muleq	r0, r0, r4
    10bc:	00000494 	muleq	r0, r4, r4
    10c0:	b8500001 	ldmdalt	r0, {r0}^
    10c4:	e0000004 	and	r0, r0, r4
    10c8:	01000004 	tsteq	r0, r4
    10cc:	00005000 	andeq	r5, r0, r0
    10d0:	00000000 	andeq	r0, r0, r0
    10d4:	02ec0000 	rsceq	r0, ip, #0
    10d8:	02f40000 	rscseq	r0, r4, #0
    10dc:	00020000 	andeq	r0, r2, r0
    10e0:	02f49f30 	rscseq	r9, r4, #48, 30	; 0xc0
    10e4:	02f80000 	rscseq	r0, r8, #0
    10e8:	00010000 	andeq	r0, r1, r0
    10ec:	00030457 	andeq	r0, r3, r7, asr r4
    10f0:	0004e000 	andeq	lr, r4, r0
    10f4:	57000100 	strpl	r0, [r0, -r0, lsl #2]
	...
    1100:	00000004 	andeq	r0, r0, r4
    1104:	00000008 	andeq	r0, r0, r8
    1108:	00730007 	rsbseq	r0, r3, r7
    110c:	2110000a 	tstcs	r0, sl
    1110:	0000089f 	muleq	r0, pc, r8	; <UNPREDICTABLE>
    1114:	00001000 	andeq	r1, r0, r0
    1118:	53000100 	movwpl	r0, #256	; 0x100
	...
    1124:	00000014 	andeq	r0, r0, r4, lsl r0
    1128:	00000018 	andeq	r0, r0, r8, lsl r0
    112c:	00730007 	rsbseq	r0, r3, r7
    1130:	1aefff0b 	bne	ffc00d64 <__bss_end__+0xffbf691c>
    1134:	0000189f 	muleq	r0, pc, r8	; <UNPREDICTABLE>
    1138:	00002000 	andeq	r2, r0, r0
    113c:	53000100 	movwpl	r0, #256	; 0x100
	...
    114c:	0000000c 	andeq	r0, r0, ip
    1150:	0c500001 	mrrceq	0, 0, r0, r0, cr1	; <UNPREDICTABLE>
    1154:	20000000 	andcs	r0, r0, r0
    1158:	01000000 	mrseq	r0, (UNDEF: 0)
    115c:	00005400 	andeq	r5, r0, r0, lsl #8
    1160:	00000000 	andeq	r0, r0, r0
    1164:	00340000 	eorseq	r0, r4, r0
    1168:	003c0000 	eorseq	r0, ip, r0
    116c:	00030000 	andeq	r0, r3, r0
    1170:	3c9f0473 	cfldrscc	mvf0, [pc], {115}	; 0x73
    1174:	47000000 	strmi	r0, [r0, -r0]
    1178:	01000000 	mrseq	r0, (UNDEF: 0)
    117c:	00005300 	andeq	r5, r0, r0, lsl #6
    1180:	00000000 	andeq	r0, r0, r0
    1184:	00480000 	subeq	r0, r8, r0
    1188:	00740000 	rsbseq	r0, r4, r0
    118c:	00010000 	andeq	r0, r1, r0
    1190:	00007450 	andeq	r7, r0, r0, asr r4
    1194:	00008300 	andeq	r8, r0, r0, lsl #6
    1198:	73000300 	movwvc	r0, #768	; 0x300
    119c:	00009f78 	andeq	r9, r0, r8, ror pc
    11a0:	00000000 	andeq	r0, r0, r0
    11a4:	8da40000 	stchi	0, cr0, [r4]
    11a8:	8da80000 	stchi	0, cr0, [r8]
    11ac:	00020000 	andeq	r0, r2, r0
    11b0:	8da89f30 	stchi	15, cr9, [r8, #192]!	; 0xc0
    11b4:	8dac0000 	stchi	0, cr0, [ip]
    11b8:	00010000 	andeq	r0, r1, r0
    11bc:	00000050 	andeq	r0, r0, r0, asr r0
    11c0:	00000000 	andeq	r0, r0, r0
    11c4:	008dbc00 	addeq	fp, sp, r0, lsl #24
    11c8:	008dc000 	addeq	ip, sp, r0
    11cc:	30000200 	andcc	r0, r0, r0, lsl #4
    11d0:	008dc09f 	umulleq	ip, sp, pc, r0	; <UNPREDICTABLE>
    11d4:	008dc400 	addeq	ip, sp, r0, lsl #8
    11d8:	53000100 	movwpl	r0, #256	; 0x100
    11dc:	00008dc8 	andeq	r8, r0, r8, asr #27
    11e0:	00008dd0 	ldrdeq	r8, [r0], -r0
    11e4:	00530001 	subseq	r0, r3, r1
	...
    11f0:	04000000 	streq	r0, [r0], #-0
    11f4:	01000000 	mrseq	r0, (UNDEF: 0)
    11f8:	00045000 	andeq	r5, r4, r0
    11fc:	000c0000 	andeq	r0, ip, r0
    1200:	00010000 	andeq	r0, r1, r0
    1204:	00000c53 	andeq	r0, r0, r3, asr ip
    1208:	00001000 	andeq	r1, r0, r0
    120c:	50000100 	andpl	r0, r0, r0, lsl #2
    1210:	00000010 	andeq	r0, r0, r0, lsl r0
    1214:	0000001c 	andeq	r0, r0, ip, lsl r0
    1218:	00530001 	subseq	r0, r3, r1
    121c:	00000000 	andeq	r0, r0, r0
    1220:	3c000000 	stccc	0, cr0, [r0], {-0}
    1224:	47000000 	strmi	r0, [r0, -r0]
    1228:	01000000 	mrseq	r0, (UNDEF: 0)
    122c:	00475000 	subeq	r5, r7, r0
    1230:	00600000 	rsbeq	r0, r0, r0
    1234:	00010000 	andeq	r0, r1, r0
    1238:	00000055 	andeq	r0, r0, r5, asr r0
    123c:	00000000 	andeq	r0, r0, r0
    1240:	00005000 	andeq	r5, r0, r0
    1244:	00005400 	andeq	r5, r0, r0, lsl #8
    1248:	50000100 	andpl	r0, r0, r0, lsl #2
	...
    1254:	00000060 	andeq	r0, r0, r0, rrx
    1258:	0000006c 	andeq	r0, r0, ip, rrx
    125c:	6c500001 	mrrcvs	0, 0, r0, r0, cr1	; <UNPREDICTABLE>
    1260:	74000000 	strvc	r0, [r0], #-0
    1264:	04000000 	streq	r0, [r0], #-0
    1268:	5001f300 	andpl	pc, r1, r0, lsl #6
    126c:	0000009f 	muleq	r0, pc, r0	; <UNPREDICTABLE>
    1270:	00000000 	andeq	r0, r0, r0
    1274:	00007400 	andeq	r7, r0, r0, lsl #8
    1278:	00008000 	andeq	r8, r0, r0
    127c:	50000100 	andpl	r0, r0, r0, lsl #2
    1280:	00000080 	andeq	r0, r0, r0, lsl #1
    1284:	00000088 	andeq	r0, r0, r8, lsl #1
    1288:	01f30004 	mvnseq	r0, r4
    128c:	00009f50 	andeq	r9, r0, r0, asr pc
	...
    1298:	00900000 	addseq	r0, r0, r0
    129c:	00010000 	andeq	r0, r1, r0
    12a0:	00009050 	andeq	r9, r0, r0, asr r0
    12a4:	0000d400 	andeq	sp, r0, r0, lsl #8
    12a8:	54000100 	strpl	r0, [r0], #-256	; 0x100
	...
    12b4:	00000048 	andeq	r0, r0, r8, asr #32
    12b8:	0000004c 	andeq	r0, r0, ip, asr #32
    12bc:	54550001 	ldrbpl	r0, [r5], #-1
    12c0:	58000000 	stmdapl	r0, {}	; <UNPREDICTABLE>
    12c4:	01000000 	mrseq	r0, (UNDEF: 0)
    12c8:	00605500 	rsbeq	r5, r0, r0, lsl #10
    12cc:	00640000 	rsbeq	r0, r4, r0
    12d0:	00010000 	andeq	r0, r1, r0
    12d4:	00006c55 	andeq	r6, r0, r5, asr ip
    12d8:	00007000 	andeq	r7, r0, r0
    12dc:	55000100 	strpl	r0, [r0, #-256]	; 0x100
    12e0:	00000078 	andeq	r0, r0, r8, ror r0
    12e4:	0000007c 	andeq	r0, r0, ip, ror r0
    12e8:	84550001 	ldrbhi	r0, [r5], #-1
    12ec:	88000000 	stmdahi	r0, {}	; <UNPREDICTABLE>
    12f0:	01000000 	mrseq	r0, (UNDEF: 0)
    12f4:	008c5500 	addeq	r5, ip, r0, lsl #10
    12f8:	00d40000 	sbcseq	r0, r4, r0
    12fc:	00010000 	andeq	r0, r1, r0
    1300:	00000055 	andeq	r0, r0, r5, asr r0
    1304:	00000000 	andeq	r0, r0, r0
    1308:	00001c00 	andeq	r1, r0, r0, lsl #24
    130c:	00004400 	andeq	r4, r0, r0, lsl #8
    1310:	53000100 	movwpl	r0, #256	; 0x100
    1314:	00000044 	andeq	r0, r0, r4, asr #32
    1318:	0000004c 	andeq	r0, r0, ip, asr #32
    131c:	0070001c 	rsbseq	r0, r0, ip, lsl r0
    1320:	25f72cf7 	ldrbcs	r2, [r7, #3319]!	; 0xcf7
    1324:	cd0825f4 	cfstr32gt	mvfx2, [r8, #-976]	; 0xfffffc30
    1328:	00cccccc 	sbceq	ip, ip, ip, asr #25
    132c:	1e000000 	cdpne	0, 0, cr0, cr0, cr0, {0}
    1330:	25f72008 	ldrbcs	r2, [r7, #8]!
    1334:	332cf725 	msrcc	CPSR_fs, #9699328	; 0x940000
    1338:	004c9f25 	subeq	r9, ip, r5, lsr #30
    133c:	00500000 	subseq	r0, r0, r0
    1340:	00010000 	andeq	r0, r1, r0
    1344:	00005053 	andeq	r5, r0, r3, asr r0
    1348:	00005800 	andeq	r5, r0, r0, lsl #16
    134c:	70001c00 	andvc	r1, r0, r0, lsl #24
    1350:	f72cf700 			; <UNDEFINED> instruction: 0xf72cf700
    1354:	0825f425 	stmdaeq	r5!, {r0, r2, r5, sl, ip, sp, lr, pc}
    1358:	cccccccd 	stclgt	12, cr12, [ip], {205}	; 0xcd
    135c:	00000000 	andeq	r0, r0, r0
    1360:	f720081e 			; <UNDEFINED> instruction: 0xf720081e
    1364:	2cf72525 	cfldr64cs	mvdx2, [r7], #148	; 0x94
    1368:	589f2533 	ldmpl	pc, {r0, r1, r4, r5, r8, sl, sp}	; <UNPREDICTABLE>
    136c:	5c000000 	stcpl	0, cr0, [r0], {-0}
    1370:	01000000 	mrseq	r0, (UNDEF: 0)
    1374:	005c5300 	subseq	r5, ip, r0, lsl #6
    1378:	00640000 	rsbeq	r0, r4, r0
    137c:	001c0000 	andseq	r0, ip, r0
    1380:	2cf70070 	ldclcs	0, cr0, [r7], #448	; 0x1c0
    1384:	25f425f7 	ldrbcs	r2, [r4, #1527]!	; 0x5f7
    1388:	cccccd08 	stclgt	13, cr12, [ip], {8}
    138c:	000000cc 	andeq	r0, r0, ip, asr #1
    1390:	20081e00 	andcs	r1, r8, r0, lsl #28
    1394:	f72525f7 			; <UNDEFINED> instruction: 0xf72525f7
    1398:	9f25332c 	svcls	0x0025332c
    139c:	00000064 	andeq	r0, r0, r4, rrx
    13a0:	00000068 	andeq	r0, r0, r8, rrx
    13a4:	68530001 	ldmdavs	r3, {r0}^
    13a8:	70000000 	andvc	r0, r0, r0
    13ac:	1c000000 	stcne	0, cr0, [r0], {-0}
    13b0:	f7007000 			; <UNDEFINED> instruction: 0xf7007000
    13b4:	f425f72c 	vld1.8	{d15}, [r5 :128], ip
    13b8:	cccd0825 	stclgt	8, cr0, [sp], {37}	; 0x25
    13bc:	0000cccc 	andeq	ip, r0, ip, asr #25
    13c0:	081e0000 	ldmdaeq	lr, {}	; <UNPREDICTABLE>
    13c4:	2525f720 	strcs	pc, [r5, #-1824]!	; 0x720
    13c8:	25332cf7 	ldrcs	r2, [r3, #-3319]!	; 0xcf7
    13cc:	0000709f 	muleq	r0, pc, r0	; <UNPREDICTABLE>
    13d0:	00007400 	andeq	r7, r0, r0, lsl #8
    13d4:	53000100 	movwpl	r0, #256	; 0x100
    13d8:	00000074 	andeq	r0, r0, r4, ror r0
    13dc:	0000007c 	andeq	r0, r0, ip, ror r0
    13e0:	0070001c 	rsbseq	r0, r0, ip, lsl r0
    13e4:	25f72cf7 	ldrbcs	r2, [r7, #3319]!	; 0xcf7
    13e8:	cd0825f4 	cfstr32gt	mvfx2, [r8, #-976]	; 0xfffffc30
    13ec:	00cccccc 	sbceq	ip, ip, ip, asr #25
    13f0:	1e000000 	cdpne	0, 0, cr0, cr0, cr0, {0}
    13f4:	25f72008 	ldrbcs	r2, [r7, #8]!
    13f8:	332cf725 	msrcc	CPSR_fs, #9699328	; 0x940000
    13fc:	007c9f25 	rsbseq	r9, ip, r5, lsr #30
    1400:	00800000 	addeq	r0, r0, r0
    1404:	00010000 	andeq	r0, r1, r0
    1408:	00008053 	andeq	r8, r0, r3, asr r0
    140c:	00008800 	andeq	r8, r0, r0, lsl #16
    1410:	70001c00 	andvc	r1, r0, r0, lsl #24
    1414:	f72cf700 			; <UNDEFINED> instruction: 0xf72cf700
    1418:	0825f425 	stmdaeq	r5!, {r0, r2, r5, sl, ip, sp, lr, pc}
    141c:	cccccccd 	stclgt	12, cr12, [ip], {205}	; 0xcd
    1420:	00000000 	andeq	r0, r0, r0
    1424:	f720081e 			; <UNDEFINED> instruction: 0xf720081e
    1428:	2cf72525 	cfldr64cs	mvdx2, [r7], #148	; 0x94
    142c:	889f2533 	ldmhi	pc, {r0, r1, r4, r5, r8, sl, sp}	; <UNPREDICTABLE>
    1430:	8c000000 	stchi	0, cr0, [r0], {-0}
    1434:	01000000 	mrseq	r0, (UNDEF: 0)
    1438:	008c5300 	addeq	r5, ip, r0, lsl #6
    143c:	00900000 	addseq	r0, r0, r0
    1440:	001c0000 	andseq	r0, ip, r0
    1444:	2cf70070 	ldclcs	0, cr0, [r7], #448	; 0x1c0
    1448:	25f425f7 	ldrbcs	r2, [r4, #1527]!	; 0x5f7
    144c:	cccccd08 	stclgt	13, cr12, [ip], {8}
    1450:	000000cc 	andeq	r0, r0, ip, asr #1
    1454:	20081e00 	andcs	r1, r8, r0, lsl #28
    1458:	f72525f7 			; <UNDEFINED> instruction: 0xf72525f7
    145c:	9f25332c 	svcls	0x0025332c
    1460:	00000090 	muleq	r0, r0, r0
    1464:	00000098 	muleq	r0, r8, r0
    1468:	0074001c 	rsbseq	r0, r4, ip, lsl r0
    146c:	25f72cf7 	ldrbcs	r2, [r7, #3319]!	; 0xcf7
    1470:	cd0825f4 	cfstr32gt	mvfx2, [r8, #-976]	; 0xfffffc30
    1474:	00cccccc 	sbceq	ip, ip, ip, asr #25
    1478:	1e000000 	cdpne	0, 0, cr0, cr0, cr0, {0}
    147c:	25f72008 	ldrbcs	r2, [r7, #8]!
    1480:	332cf725 	msrcc	CPSR_fs, #9699328	; 0x940000
    1484:	00989f25 	addseq	r9, r8, r5, lsr #30
    1488:	009c0000 	addseq	r0, ip, r0
    148c:	00170000 	andseq	r0, r7, r0
    1490:	2cf70074 	ldclcs	0, cr0, [r7], #464	; 0x1d0
    1494:	007125f7 	ldrshteq	r2, [r1], #-87	; 0xffffffa9
    1498:	25f72cf7 	ldrbcs	r2, [r7, #3319]!	; 0xcf7
    149c:	f720081e 			; <UNDEFINED> instruction: 0xf720081e
    14a0:	2cf72525 	cfldr64cs	mvdx2, [r7], #148	; 0x94
    14a4:	9c9f2533 	cfldr32ls	mvfx2, [pc], {51}	; 0x33
    14a8:	d4000000 	strle	r0, [r0], #-0
    14ac:	1c000000 	stcne	0, cr0, [r0], {-0}
    14b0:	f7007400 			; <UNDEFINED> instruction: 0xf7007400
    14b4:	f425f72c 	vld1.8	{d15}, [r5 :128], ip
    14b8:	cccd0825 	stclgt	8, cr0, [sp], {37}	; 0x25
    14bc:	0000cccc 	andeq	ip, r0, ip, asr #25
    14c0:	081e0000 	ldmdaeq	lr, {}	; <UNPREDICTABLE>
    14c4:	2525f720 	strcs	pc, [r5, #-1824]!	; 0x720
    14c8:	25332cf7 	ldrcs	r2, [r3, #-3319]!	; 0xcf7
    14cc:	0000009f 	muleq	r0, pc, r0	; <UNPREDICTABLE>
    14d0:	00000000 	andeq	r0, r0, r0
    14d4:	00009400 	andeq	r9, r0, r0, lsl #8
    14d8:	0000b800 	andeq	fp, r0, r0, lsl #16
    14dc:	50000100 	andpl	r0, r0, r0, lsl #2
    14e0:	000000b8 	strheq	r0, [r0], -r8
    14e4:	000000c4 	andeq	r0, r0, r4, asr #1
    14e8:	71310008 	teqvc	r1, r8
    14ec:	00732400 	rsbseq	r2, r3, r0, lsl #8
    14f0:	00c49f21 	sbceq	r9, r4, r1, lsr #30
    14f4:	00c70000 	sbceq	r0, r7, r0
    14f8:	00010000 	andeq	r0, r1, r0
    14fc:	00000051 	andeq	r0, r0, r1, asr r0
    1500:	00000000 	andeq	r0, r0, r0
    1504:	0000d400 	andeq	sp, r0, r0, lsl #8
    1508:	0000f800 	andeq	pc, r0, r0, lsl #16
    150c:	50000100 	andpl	r0, r0, r0, lsl #2
    1510:	000000f8 	strdeq	r0, [r0], -r8
    1514:	0000010c 	andeq	r0, r0, ip, lsl #2
    1518:	01f30004 	mvnseq	r0, r4
    151c:	00009f50 	andeq	r9, r0, r0, asr pc
    1520:	00000000 	andeq	r0, r0, r0
    1524:	00e00000 	rsceq	r0, r0, r0
    1528:	00e80000 	rsceq	r0, r8, r0
    152c:	00020000 	andeq	r0, r2, r0
    1530:	00e89f30 	rsceq	r9, r8, r0, lsr pc
    1534:	00e80000 	rsceq	r0, r8, r0
    1538:	00010000 	andeq	r0, r1, r0
    153c:	0000e852 	andeq	lr, r0, r2, asr r8
    1540:	0000f000 	andeq	pc, r0, r0
    1544:	30000200 	andcc	r0, r0, r0, lsl #4
    1548:	0000f09f 	muleq	r0, pc, r0	; <UNPREDICTABLE>
    154c:	00010300 	andeq	r0, r1, r0, lsl #6
    1550:	52000100 	andpl	r0, r0, #0, 2
	...
    155c:	000000e0 	andeq	r0, r0, r0, ror #1
    1560:	000000f4 	strdeq	r0, [r0], -r4
    1564:	9f300002 	svcls	0x00300002
    1568:	000000f4 	strdeq	r0, [r0], -r4
    156c:	00000100 	andeq	r0, r0, r0, lsl #2
    1570:	73310005 	teqvc	r1, #5
    1574:	009f2400 	addseq	r2, pc, r0, lsl #8
    1578:	03000001 	movweq	r0, #1
    157c:	01000001 	tsteq	r0, r1
    1580:	01035100 	mrseq	r5, (UNDEF: 19)
    1584:	010c0000 	mrseq	r0, (UNDEF: 12)
    1588:	00080000 	andeq	r0, r8, r0
    158c:	5001f331 	andpl	pc, r1, r1, lsr r3	; <UNPREDICTABLE>
    1590:	9f241a4f 	svcls	0x00241a4f
	...
    159c:	0000010c 	andeq	r0, r0, ip, lsl #2
    15a0:	00000130 	andeq	r0, r0, r0, lsr r1
    15a4:	30500001 	subscc	r0, r0, r1
    15a8:	44000001 	strmi	r0, [r0], #-1
    15ac:	04000001 	streq	r0, [r0], #-1
    15b0:	5001f300 	andpl	pc, r1, r0, lsl #6
    15b4:	0000009f 	muleq	r0, pc, r0	; <UNPREDICTABLE>
    15b8:	00000000 	andeq	r0, r0, r0
    15bc:	00011800 	andeq	r1, r1, r0, lsl #16
    15c0:	00012000 	andeq	r2, r1, r0
    15c4:	30000200 	andcc	r0, r0, r0, lsl #4
    15c8:	0001209f 	muleq	r1, pc, r0	; <UNPREDICTABLE>
    15cc:	00012000 	andeq	r2, r1, r0
    15d0:	52000100 	andpl	r0, r0, #0, 2
    15d4:	00000120 	andeq	r0, r0, r0, lsr #2
    15d8:	00000128 	andeq	r0, r0, r8, lsr #2
    15dc:	9f300002 	svcls	0x00300002
    15e0:	00000128 	andeq	r0, r0, r8, lsr #2
    15e4:	0000013b 	andeq	r0, r0, fp, lsr r1
    15e8:	00520001 	subseq	r0, r2, r1
    15ec:	00000000 	andeq	r0, r0, r0
    15f0:	18000000 	stmdane	r0, {}	; <UNPREDICTABLE>
    15f4:	2c000001 	stccs	0, cr0, [r0], {1}
    15f8:	02000001 	andeq	r0, r0, #1
    15fc:	2c9f3000 	ldccs	0, cr3, [pc], {0}
    1600:	38000001 	stmdacc	r0, {r0}
    1604:	05000001 	streq	r0, [r0, #-1]
    1608:	00733100 	rsbseq	r3, r3, r0, lsl #2
    160c:	01389f24 	teqeq	r8, r4, lsr #30
    1610:	013b0000 	teqeq	fp, r0
    1614:	00010000 	andeq	r0, r1, r0
    1618:	00013b51 	andeq	r3, r1, r1, asr fp
    161c:	00014400 	andeq	r4, r1, r0, lsl #8
    1620:	31000800 	tstcc	r0, r0, lsl #16
    1624:	4f5001f3 	svcmi	0x005001f3
    1628:	009f241a 	addseq	r2, pc, sl, lsl r4	; <UNPREDICTABLE>
    162c:	00000000 	andeq	r0, r0, r0
    1630:	44000000 	strmi	r0, [r0], #-0
    1634:	d4000001 	strle	r0, [r0], #-1
    1638:	01000001 	tsteq	r0, r1
    163c:	01d45000 	bicseq	r5, r4, r0
    1640:	02100000 	andseq	r0, r0, #0
    1644:	00010000 	andeq	r0, r1, r0
    1648:	00000054 	andeq	r0, r0, r4, asr r0
    164c:	00000000 	andeq	r0, r0, r0
    1650:	00018c00 	andeq	r8, r1, r0, lsl #24
    1654:	00019000 	andeq	r9, r1, r0
    1658:	55000100 	strpl	r0, [r0, #-256]	; 0x100
    165c:	00000198 	muleq	r0, r8, r1
    1660:	0000019c 	muleq	r0, ip, r1
    1664:	a4550001 	ldrbge	r0, [r5], #-1
    1668:	a8000001 	stmdage	r0, {r0}
    166c:	01000001 	tsteq	r0, r1
    1670:	01b05500 	lslseq	r5, r0, #10
    1674:	01b40000 			; <UNDEFINED> instruction: 0x01b40000
    1678:	00010000 	andeq	r0, r1, r0
    167c:	0001bc55 	andeq	fp, r1, r5, asr ip
    1680:	0001c000 	andeq	ip, r1, r0
    1684:	55000100 	strpl	r0, [r0, #-256]	; 0x100
    1688:	000001c8 	andeq	r0, r0, r8, asr #3
    168c:	000001cc 	andeq	r0, r0, ip, asr #3
    1690:	d0550001 	subsle	r0, r5, r1
    1694:	10000001 	andne	r0, r0, r1
    1698:	01000002 	tsteq	r0, r2
    169c:	00005500 	andeq	r5, r0, r0, lsl #10
    16a0:	00000000 	andeq	r0, r0, r0
    16a4:	01600000 	cmneq	r0, r0
    16a8:	01880000 	orreq	r0, r8, r0
    16ac:	00010000 	andeq	r0, r1, r0
    16b0:	00018853 	andeq	r8, r1, r3, asr r8
    16b4:	00019000 	andeq	r9, r1, r0
    16b8:	70001c00 	andvc	r1, r0, r0, lsl #24
    16bc:	f72cf700 			; <UNDEFINED> instruction: 0xf72cf700
    16c0:	0825f425 	stmdaeq	r5!, {r0, r2, r5, sl, ip, sp, lr, pc}
    16c4:	cccccccd 	stclgt	12, cr12, [ip], {205}	; 0xcd
    16c8:	00000000 	andeq	r0, r0, r0
    16cc:	f720081e 			; <UNDEFINED> instruction: 0xf720081e
    16d0:	2cf72525 	cfldr64cs	mvdx2, [r7], #148	; 0x94
    16d4:	909f2533 	addsls	r2, pc, r3, lsr r5	; <UNPREDICTABLE>
    16d8:	94000001 	strls	r0, [r0], #-1
    16dc:	01000001 	tsteq	r0, r1
    16e0:	01945300 	orrseq	r5, r4, r0, lsl #6
    16e4:	019c0000 	orrseq	r0, ip, r0
    16e8:	001c0000 	andseq	r0, ip, r0
    16ec:	2cf70070 	ldclcs	0, cr0, [r7], #448	; 0x1c0
    16f0:	25f425f7 	ldrbcs	r2, [r4, #1527]!	; 0x5f7
    16f4:	cccccd08 	stclgt	13, cr12, [ip], {8}
    16f8:	000000cc 	andeq	r0, r0, ip, asr #1
    16fc:	20081e00 	andcs	r1, r8, r0, lsl #28
    1700:	f72525f7 			; <UNDEFINED> instruction: 0xf72525f7
    1704:	9f25332c 	svcls	0x0025332c
    1708:	0000019c 	muleq	r0, ip, r1
    170c:	000001a0 	andeq	r0, r0, r0, lsr #3
    1710:	a0530001 	subsge	r0, r3, r1
    1714:	a8000001 	stmdage	r0, {r0}
    1718:	1c000001 	stcne	0, cr0, [r0], {1}
    171c:	f7007000 			; <UNDEFINED> instruction: 0xf7007000
    1720:	f425f72c 	vld1.8	{d15}, [r5 :128], ip
    1724:	cccd0825 	stclgt	8, cr0, [sp], {37}	; 0x25
    1728:	0000cccc 	andeq	ip, r0, ip, asr #25
    172c:	081e0000 	ldmdaeq	lr, {}	; <UNPREDICTABLE>
    1730:	2525f720 	strcs	pc, [r5, #-1824]!	; 0x720
    1734:	25332cf7 	ldrcs	r2, [r3, #-3319]!	; 0xcf7
    1738:	0001a89f 	muleq	r1, pc, r8	; <UNPREDICTABLE>
    173c:	0001ac00 	andeq	sl, r1, r0, lsl #24
    1740:	53000100 	movwpl	r0, #256	; 0x100
    1744:	000001ac 	andeq	r0, r0, ip, lsr #3
    1748:	000001b4 			; <UNDEFINED> instruction: 0x000001b4
    174c:	0070001c 	rsbseq	r0, r0, ip, lsl r0
    1750:	25f72cf7 	ldrbcs	r2, [r7, #3319]!	; 0xcf7
    1754:	cd0825f4 	cfstr32gt	mvfx2, [r8, #-976]	; 0xfffffc30
    1758:	00cccccc 	sbceq	ip, ip, ip, asr #25
    175c:	1e000000 	cdpne	0, 0, cr0, cr0, cr0, {0}
    1760:	25f72008 	ldrbcs	r2, [r7, #8]!
    1764:	332cf725 	msrcc	CPSR_fs, #9699328	; 0x940000
    1768:	01b49f25 			; <UNDEFINED> instruction: 0x01b49f25
    176c:	01b80000 			; <UNDEFINED> instruction: 0x01b80000
    1770:	00010000 	andeq	r0, r1, r0
    1774:	0001b853 	andeq	fp, r1, r3, asr r8
    1778:	0001c000 	andeq	ip, r1, r0
    177c:	70001c00 	andvc	r1, r0, r0, lsl #24
    1780:	f72cf700 			; <UNDEFINED> instruction: 0xf72cf700
    1784:	0825f425 	stmdaeq	r5!, {r0, r2, r5, sl, ip, sp, lr, pc}
    1788:	cccccccd 	stclgt	12, cr12, [ip], {205}	; 0xcd
    178c:	00000000 	andeq	r0, r0, r0
    1790:	f720081e 			; <UNDEFINED> instruction: 0xf720081e
    1794:	2cf72525 	cfldr64cs	mvdx2, [r7], #148	; 0x94
    1798:	c09f2533 	addsgt	r2, pc, r3, lsr r5	; <UNPREDICTABLE>
    179c:	c4000001 	strgt	r0, [r0], #-1
    17a0:	01000001 	tsteq	r0, r1
    17a4:	01c45300 	biceq	r5, r4, r0, lsl #6
    17a8:	01cc0000 	biceq	r0, ip, r0
    17ac:	001c0000 	andseq	r0, ip, r0
    17b0:	2cf70070 	ldclcs	0, cr0, [r7], #448	; 0x1c0
    17b4:	25f425f7 	ldrbcs	r2, [r4, #1527]!	; 0x5f7
    17b8:	cccccd08 	stclgt	13, cr12, [ip], {8}
    17bc:	000000cc 	andeq	r0, r0, ip, asr #1
    17c0:	20081e00 	andcs	r1, r8, r0, lsl #28
    17c4:	f72525f7 			; <UNDEFINED> instruction: 0xf72525f7
    17c8:	9f25332c 	svcls	0x0025332c
    17cc:	000001cc 	andeq	r0, r0, ip, asr #3
    17d0:	000001d0 	ldrdeq	r0, [r0], -r0	; <UNPREDICTABLE>
    17d4:	d0530001 	subsle	r0, r3, r1
    17d8:	d4000001 	strle	r0, [r0], #-1
    17dc:	1c000001 	stcne	0, cr0, [r0], {1}
    17e0:	f7007000 			; <UNDEFINED> instruction: 0xf7007000
    17e4:	f425f72c 	vld1.8	{d15}, [r5 :128], ip
    17e8:	cccd0825 	stclgt	8, cr0, [sp], {37}	; 0x25
    17ec:	0000cccc 	andeq	ip, r0, ip, asr #25
    17f0:	081e0000 	ldmdaeq	lr, {}	; <UNPREDICTABLE>
    17f4:	2525f720 	strcs	pc, [r5, #-1824]!	; 0x720
    17f8:	25332cf7 	ldrcs	r2, [r3, #-3319]!	; 0xcf7
    17fc:	0001d49f 	muleq	r1, pc, r4	; <UNPREDICTABLE>
    1800:	0001dc00 	andeq	sp, r1, r0, lsl #24
    1804:	74001c00 	strvc	r1, [r0], #-3072	; 0xc00
    1808:	f72cf700 			; <UNDEFINED> instruction: 0xf72cf700
    180c:	0825f425 	stmdaeq	r5!, {r0, r2, r5, sl, ip, sp, lr, pc}
    1810:	cccccccd 	stclgt	12, cr12, [ip], {205}	; 0xcd
    1814:	00000000 	andeq	r0, r0, r0
    1818:	f720081e 			; <UNDEFINED> instruction: 0xf720081e
    181c:	2cf72525 	cfldr64cs	mvdx2, [r7], #148	; 0x94
    1820:	dc9f2533 	cfldr32le	mvfx2, [pc], {51}	; 0x33
    1824:	e0000001 	and	r0, r0, r1
    1828:	17000001 	strne	r0, [r0, -r1]
    182c:	f7007400 			; <UNDEFINED> instruction: 0xf7007400
    1830:	7125f72c 	msrvc	SP_abt, ip
    1834:	f72cf700 			; <UNDEFINED> instruction: 0xf72cf700
    1838:	20081e25 	andcs	r1, r8, r5, lsr #28
    183c:	f72525f7 			; <UNDEFINED> instruction: 0xf72525f7
    1840:	9f25332c 	svcls	0x0025332c
    1844:	000001e0 	andeq	r0, r0, r0, ror #3
    1848:	00000210 	andeq	r0, r0, r0, lsl r2
    184c:	0074001c 	rsbseq	r0, r4, ip, lsl r0
    1850:	25f72cf7 	ldrbcs	r2, [r7, #3319]!	; 0xcf7
    1854:	cd0825f4 	cfstr32gt	mvfx2, [r8, #-976]	; 0xfffffc30
    1858:	00cccccc 	sbceq	ip, ip, ip, asr #25
    185c:	1e000000 	cdpne	0, 0, cr0, cr0, cr0, {0}
    1860:	25f72008 	ldrbcs	r2, [r7, #8]!
    1864:	332cf725 	msrcc	CPSR_fs, #9699328	; 0x940000
    1868:	00009f25 	andeq	r9, r0, r5, lsr #30
    186c:	00000000 	andeq	r0, r0, r0
    1870:	01d80000 	bicseq	r0, r8, r0
    1874:	01fc0000 	mvnseq	r0, r0
    1878:	00010000 	andeq	r0, r1, r0
    187c:	0001fc50 	andeq	pc, r1, r0, asr ip	; <UNPREDICTABLE>
    1880:	00020300 	andeq	r0, r2, r0, lsl #6
    1884:	51000100 	mrspl	r0, (UNDEF: 16)
	...
    1890:	00000210 	andeq	r0, r0, r0, lsl r2
    1894:	0000022c 	andeq	r0, r0, ip, lsr #4
    1898:	2c500001 	mrrccs	0, 0, r0, r0, cr1	; <UNPREDICTABLE>
    189c:	34000002 	strcc	r0, [r0], #-2
    18a0:	01000002 	tsteq	r0, r2
    18a4:	02345400 	eorseq	r5, r4, #0, 8
    18a8:	023c0000 	eorseq	r0, ip, #0
    18ac:	00010000 	andeq	r0, r1, r0
    18b0:	00023c50 	andeq	r3, r2, r0, asr ip
    18b4:	00024400 	andeq	r4, r2, r0, lsl #8
    18b8:	54000100 	strpl	r0, [r0], #-256	; 0x100
    18bc:	00000244 	andeq	r0, r0, r4, asr #4
    18c0:	00000250 	andeq	r0, r0, r0, asr r2
    18c4:	01f30004 	mvnseq	r0, r4
    18c8:	02509f50 	subseq	r9, r0, #80, 30	; 0x140
    18cc:	02540000 	subseq	r0, r4, #0
    18d0:	00010000 	andeq	r0, r1, r0
    18d4:	00025450 	andeq	r5, r2, r0, asr r4
    18d8:	00025c00 	andeq	r5, r2, r0, lsl #24
    18dc:	54000100 	strpl	r0, [r0], #-256	; 0x100
	...
    18e8:	00000220 	andeq	r0, r0, r0, lsr #4
    18ec:	00000230 	andeq	r0, r0, r0, lsr r2
    18f0:	9f300002 	svcls	0x00300002
    18f4:	00000230 	andeq	r0, r0, r0, lsr r2
    18f8:	00000234 	andeq	r0, r0, r4, lsr r2
    18fc:	34500001 	ldrbcc	r0, [r0], #-1
    1900:	40000002 	andmi	r0, r0, r2
    1904:	02000002 	andeq	r0, r0, #2
    1908:	409f3000 	addsmi	r3, pc, r0
    190c:	4c000002 	stcmi	0, cr0, [r0], {2}
    1910:	01000002 	tsteq	r0, r2
    1914:	00005000 	andeq	r5, r0, r0
    1918:	00000000 	andeq	r0, r0, r0
    191c:	025c0000 	subseq	r0, ip, #0
    1920:	02730000 	rsbseq	r0, r3, #0
    1924:	00010000 	andeq	r0, r1, r0
    1928:	00027350 	andeq	r7, r2, r0, asr r3
    192c:	00027800 	andeq	r7, r2, r0, lsl #16
    1930:	f3000400 	vshl.u8	d0, d0, d0
    1934:	789f5001 	ldmvc	pc, {r0, ip, lr}	; <UNPREDICTABLE>
    1938:	7b000002 	blvc	1948 <_start-0x66b8>
    193c:	01000002 	tsteq	r0, r2
    1940:	027b5000 	rsbseq	r5, fp, #0
    1944:	02800000 	addeq	r0, r0, #0
    1948:	00040000 	andeq	r0, r4, r0
    194c:	9f5001f3 	svcls	0x005001f3
	...
    1958:	0000025c 	andeq	r0, r0, ip, asr r2
    195c:	00000273 	andeq	r0, r0, r3, ror r2
    1960:	73510001 	cmpvc	r1, #1
    1964:	78000002 	stmdavc	r0, {r1}
    1968:	04000002 	streq	r0, [r0], #-2
    196c:	5101f300 	mrspl	pc, SP_irq	; <UNPREDICTABLE>
    1970:	0002789f 	muleq	r2, pc, r8	; <UNPREDICTABLE>
    1974:	00027b00 	andeq	r7, r2, r0, lsl #22
    1978:	51000100 	mrspl	r0, (UNDEF: 16)
    197c:	0000027b 	andeq	r0, r0, fp, ror r2
    1980:	00000280 	andeq	r0, r0, r0, lsl #5
    1984:	01f30004 	mvnseq	r0, r4
    1988:	00009f51 	andeq	r9, r0, r1, asr pc
    198c:	00000000 	andeq	r0, r0, r0
    1990:	02800000 	addeq	r0, r0, #0
    1994:	03180000 	tsteq	r8, #0
    1998:	00010000 	andeq	r0, r1, r0
    199c:	00031850 	andeq	r1, r3, r0, asr r8
    19a0:	00035800 	andeq	r5, r3, r0, lsl #16
    19a4:	54000100 	strpl	r0, [r0], #-256	; 0x100
	...
    19b0:	00000280 	andeq	r0, r0, r0, lsl #5
    19b4:	0000031b 	andeq	r0, r0, fp, lsl r3
    19b8:	1b510001 	blne	14419c4 <__bss_end__+0x143757c>
    19bc:	58000003 	stmdapl	r0, {r0, r1}
    19c0:	04000003 	streq	r0, [r0], #-3
    19c4:	5101f300 	mrspl	pc, SP_irq	; <UNPREDICTABLE>
    19c8:	0000009f 	muleq	r0, pc, r0	; <UNPREDICTABLE>
    19cc:	00000000 	andeq	r0, r0, r0
    19d0:	0002d000 	andeq	sp, r2, r0
    19d4:	0002d400 	andeq	sp, r2, r0, lsl #8
    19d8:	56000100 	strpl	r0, [r0], -r0, lsl #2
    19dc:	000002dc 	ldrdeq	r0, [r0], -ip
    19e0:	000002e0 	andeq	r0, r0, r0, ror #5
    19e4:	e8560001 	ldmda	r6, {r0}^
    19e8:	ec000002 	stc	0, cr0, [r0], {2}
    19ec:	01000002 	tsteq	r0, r2
    19f0:	02f45600 	rscseq	r5, r4, #0, 12
    19f4:	02f80000 	rscseq	r0, r8, #0
    19f8:	00010000 	andeq	r0, r1, r0
    19fc:	00030056 	andeq	r0, r3, r6, asr r0
    1a00:	00030400 	andeq	r0, r3, r0, lsl #8
    1a04:	56000100 	strpl	r0, [r0], -r0, lsl #2
    1a08:	0000030c 	andeq	r0, r0, ip, lsl #6
    1a0c:	00000310 	andeq	r0, r0, r0, lsl r3
    1a10:	14560001 	ldrbne	r0, [r6], #-1
    1a14:	58000003 	stmdapl	r0, {r0, r1}
    1a18:	01000003 	tsteq	r0, r3
    1a1c:	00005600 	andeq	r5, r0, r0, lsl #12
    1a20:	00000000 	andeq	r0, r0, r0
    1a24:	02a40000 	adceq	r0, r4, #0
    1a28:	02cc0000 	sbceq	r0, ip, #0
    1a2c:	00010000 	andeq	r0, r1, r0
    1a30:	0002cc53 	andeq	ip, r2, r3, asr ip
    1a34:	0002d400 	andeq	sp, r2, r0, lsl #8
    1a38:	70001c00 	andvc	r1, r0, r0, lsl #24
    1a3c:	f72cf700 			; <UNDEFINED> instruction: 0xf72cf700
    1a40:	0825f425 	stmdaeq	r5!, {r0, r2, r5, sl, ip, sp, lr, pc}
    1a44:	cccccccd 	stclgt	12, cr12, [ip], {205}	; 0xcd
    1a48:	00000000 	andeq	r0, r0, r0
    1a4c:	f720081e 			; <UNDEFINED> instruction: 0xf720081e
    1a50:	2cf72525 	cfldr64cs	mvdx2, [r7], #148	; 0x94
    1a54:	d49f2533 	ldrle	r2, [pc], #1331	; 1a5c <_start-0x65a4>
    1a58:	d8000002 	stmdale	r0, {r1}
    1a5c:	01000002 	tsteq	r0, r2
    1a60:	02d85300 	sbcseq	r5, r8, #0, 6
    1a64:	02e00000 	rsceq	r0, r0, #0
    1a68:	001c0000 	andseq	r0, ip, r0
    1a6c:	2cf70070 	ldclcs	0, cr0, [r7], #448	; 0x1c0
    1a70:	25f425f7 	ldrbcs	r2, [r4, #1527]!	; 0x5f7
    1a74:	cccccd08 	stclgt	13, cr12, [ip], {8}
    1a78:	000000cc 	andeq	r0, r0, ip, asr #1
    1a7c:	20081e00 	andcs	r1, r8, r0, lsl #28
    1a80:	f72525f7 			; <UNDEFINED> instruction: 0xf72525f7
    1a84:	9f25332c 	svcls	0x0025332c
    1a88:	000002e0 	andeq	r0, r0, r0, ror #5
    1a8c:	000002e4 	andeq	r0, r0, r4, ror #5
    1a90:	e4530001 	ldrb	r0, [r3], #-1
    1a94:	ec000002 	stc	0, cr0, [r0], {2}
    1a98:	1c000002 	stcne	0, cr0, [r0], {2}
    1a9c:	f7007000 			; <UNDEFINED> instruction: 0xf7007000
    1aa0:	f425f72c 	vld1.8	{d15}, [r5 :128], ip
    1aa4:	cccd0825 	stclgt	8, cr0, [sp], {37}	; 0x25
    1aa8:	0000cccc 	andeq	ip, r0, ip, asr #25
    1aac:	081e0000 	ldmdaeq	lr, {}	; <UNPREDICTABLE>
    1ab0:	2525f720 	strcs	pc, [r5, #-1824]!	; 0x720
    1ab4:	25332cf7 	ldrcs	r2, [r3, #-3319]!	; 0xcf7
    1ab8:	0002ec9f 	muleq	r2, pc, ip	; <UNPREDICTABLE>
    1abc:	0002f000 	andeq	pc, r2, r0
    1ac0:	53000100 	movwpl	r0, #256	; 0x100
    1ac4:	000002f0 	strdeq	r0, [r0], -r0	; <UNPREDICTABLE>
    1ac8:	000002f8 	strdeq	r0, [r0], -r8
    1acc:	0070001c 	rsbseq	r0, r0, ip, lsl r0
    1ad0:	25f72cf7 	ldrbcs	r2, [r7, #3319]!	; 0xcf7
    1ad4:	cd0825f4 	cfstr32gt	mvfx2, [r8, #-976]	; 0xfffffc30
    1ad8:	00cccccc 	sbceq	ip, ip, ip, asr #25
    1adc:	1e000000 	cdpne	0, 0, cr0, cr0, cr0, {0}
    1ae0:	25f72008 	ldrbcs	r2, [r7, #8]!
    1ae4:	332cf725 	msrcc	CPSR_fs, #9699328	; 0x940000
    1ae8:	02f89f25 	rscseq	r9, r8, #37, 30	; 0x94
    1aec:	02fc0000 	rscseq	r0, ip, #0
    1af0:	00010000 	andeq	r0, r1, r0
    1af4:	0002fc53 	andeq	pc, r2, r3, asr ip	; <UNPREDICTABLE>
    1af8:	00030400 	andeq	r0, r3, r0, lsl #8
    1afc:	70001c00 	andvc	r1, r0, r0, lsl #24
    1b00:	f72cf700 			; <UNDEFINED> instruction: 0xf72cf700
    1b04:	0825f425 	stmdaeq	r5!, {r0, r2, r5, sl, ip, sp, lr, pc}
    1b08:	cccccccd 	stclgt	12, cr12, [ip], {205}	; 0xcd
    1b0c:	00000000 	andeq	r0, r0, r0
    1b10:	f720081e 			; <UNDEFINED> instruction: 0xf720081e
    1b14:	2cf72525 	cfldr64cs	mvdx2, [r7], #148	; 0x94
    1b18:	049f2533 	ldreq	r2, [pc], #1331	; 1b20 <_start-0x64e0>
    1b1c:	08000003 	stmdaeq	r0, {r0, r1}
    1b20:	01000003 	tsteq	r0, r3
    1b24:	03085300 	movweq	r5, #33536	; 0x8300
    1b28:	03100000 	tsteq	r0, #0
    1b2c:	001c0000 	andseq	r0, ip, r0
    1b30:	2cf70070 	ldclcs	0, cr0, [r7], #448	; 0x1c0
    1b34:	25f425f7 	ldrbcs	r2, [r4, #1527]!	; 0x5f7
    1b38:	cccccd08 	stclgt	13, cr12, [ip], {8}
    1b3c:	000000cc 	andeq	r0, r0, ip, asr #1
    1b40:	20081e00 	andcs	r1, r8, r0, lsl #28
    1b44:	f72525f7 			; <UNDEFINED> instruction: 0xf72525f7
    1b48:	9f25332c 	svcls	0x0025332c
    1b4c:	00000310 	andeq	r0, r0, r0, lsl r3
    1b50:	00000314 	andeq	r0, r0, r4, lsl r3
    1b54:	14530001 	ldrbne	r0, [r3], #-1
    1b58:	18000003 	stmdane	r0, {r0, r1}
    1b5c:	1c000003 	stcne	0, cr0, [r0], {3}
    1b60:	f7007000 			; <UNDEFINED> instruction: 0xf7007000
    1b64:	f425f72c 	vld1.8	{d15}, [r5 :128], ip
    1b68:	cccd0825 	stclgt	8, cr0, [sp], {37}	; 0x25
    1b6c:	0000cccc 	andeq	ip, r0, ip, asr #25
    1b70:	081e0000 	ldmdaeq	lr, {}	; <UNPREDICTABLE>
    1b74:	2525f720 	strcs	pc, [r5, #-1824]!	; 0x720
    1b78:	25332cf7 	ldrcs	r2, [r3, #-3319]!	; 0xcf7
    1b7c:	0003189f 	muleq	r3, pc, r8	; <UNPREDICTABLE>
    1b80:	00032000 	andeq	r2, r3, r0
    1b84:	74001c00 	strvc	r1, [r0], #-3072	; 0xc00
    1b88:	f72cf700 			; <UNDEFINED> instruction: 0xf72cf700
    1b8c:	0825f425 	stmdaeq	r5!, {r0, r2, r5, sl, ip, sp, lr, pc}
    1b90:	cccccccd 	stclgt	12, cr12, [ip], {205}	; 0xcd
    1b94:	00000000 	andeq	r0, r0, r0
    1b98:	f720081e 			; <UNDEFINED> instruction: 0xf720081e
    1b9c:	2cf72525 	cfldr64cs	mvdx2, [r7], #148	; 0x94
    1ba0:	209f2533 	addscs	r2, pc, r3, lsr r5	; <UNPREDICTABLE>
    1ba4:	24000003 	strcs	r0, [r0], #-3
    1ba8:	17000003 	strne	r0, [r0, -r3]
    1bac:	f7007400 			; <UNDEFINED> instruction: 0xf7007400
    1bb0:	7325f72c 	msrvc	CPSR_sc, #44, 14	; 0xb00000
    1bb4:	f72cf700 			; <UNDEFINED> instruction: 0xf72cf700
    1bb8:	20081e25 	andcs	r1, r8, r5, lsr #28
    1bbc:	f72525f7 			; <UNDEFINED> instruction: 0xf72525f7
    1bc0:	9f25332c 	svcls	0x0025332c
    1bc4:	00000324 	andeq	r0, r0, r4, lsr #6
    1bc8:	00000358 	andeq	r0, r0, r8, asr r3
    1bcc:	0074001c 	rsbseq	r0, r4, ip, lsl r0
    1bd0:	25f72cf7 	ldrbcs	r2, [r7, #3319]!	; 0xcf7
    1bd4:	cd0825f4 	cfstr32gt	mvfx2, [r8, #-976]	; 0xfffffc30
    1bd8:	00cccccc 	sbceq	ip, ip, ip, asr #25
    1bdc:	1e000000 	cdpne	0, 0, cr0, cr0, cr0, {0}
    1be0:	25f72008 	ldrbcs	r2, [r7, #8]!
    1be4:	332cf725 	msrcc	CPSR_fs, #9699328	; 0x940000
    1be8:	00009f25 	andeq	r9, r0, r5, lsr #30
    1bec:	00000000 	andeq	r0, r0, r0
    1bf0:	031c0000 	tsteq	ip, #0
    1bf4:	03400000 	movteq	r0, #0
    1bf8:	00010000 	andeq	r0, r1, r0
    1bfc:	00034050 	andeq	r4, r3, r0, asr r0
    1c00:	00034800 	andeq	r4, r3, r0, lsl #16
    1c04:	75000900 	strvc	r0, [r0, #-2304]	; 0x900
    1c08:	24007300 	strcs	r7, [r0], #-768	; 0x300
    1c0c:	9f210071 	svcls	0x00210071
    1c10:	00000348 	andeq	r0, r0, r8, asr #6
    1c14:	0000034b 	andeq	r0, r0, fp, asr #6
    1c18:	00510001 	subseq	r0, r1, r1
    1c1c:	00000000 	andeq	r0, r0, r0
    1c20:	58000000 	stmdapl	r0, {}	; <UNPREDICTABLE>
    1c24:	7c000003 	stcvc	0, cr0, [r0], {3}
    1c28:	01000003 	tsteq	r0, r3
    1c2c:	037c5000 	cmneq	ip, #0
    1c30:	03900000 	orrseq	r0, r0, #0
    1c34:	00040000 	andeq	r0, r4, r0
    1c38:	9f5001f3 	svcls	0x005001f3
	...
    1c44:	00000364 	andeq	r0, r0, r4, ror #6
    1c48:	0000036c 	andeq	r0, r0, ip, ror #6
    1c4c:	9f300002 	svcls	0x00300002
    1c50:	0000036c 	andeq	r0, r0, ip, ror #6
    1c54:	0000036c 	andeq	r0, r0, ip, ror #6
    1c58:	6c520001 	mrrcvs	0, 0, r0, r2, cr1
    1c5c:	74000003 	strvc	r0, [r0], #-3
    1c60:	02000003 	andeq	r0, r0, #3
    1c64:	749f3000 	ldrvc	r3, [pc], #0	; 1c6c <_start-0x6394>
    1c68:	87000003 	strhi	r0, [r0, -r3]
    1c6c:	01000003 	tsteq	r0, r3
    1c70:	00005200 	andeq	r5, r0, r0, lsl #4
    1c74:	00000000 	andeq	r0, r0, r0
    1c78:	03640000 	cmneq	r4, #0
    1c7c:	03780000 	cmneq	r8, #0
    1c80:	00020000 	andeq	r0, r2, r0
    1c84:	03789f30 	cmneq	r8, #48, 30	; 0xc0
    1c88:	03840000 	orreq	r0, r4, #0
    1c8c:	00050000 	andeq	r0, r5, r0
    1c90:	24007331 	strcs	r7, [r0], #-817	; 0x331
    1c94:	0003849f 	muleq	r3, pc, r4	; <UNPREDICTABLE>
    1c98:	00038700 	andeq	r8, r3, r0, lsl #14
    1c9c:	51000100 	mrspl	r0, (UNDEF: 16)
    1ca0:	00000387 	andeq	r0, r0, r7, lsl #7
    1ca4:	00000390 	muleq	r0, r0, r3
    1ca8:	f3310008 	vhadd.u<illegal width 64>	d0, d1, d8
    1cac:	1a4f5001 	bne	13d5cb8 <__bss_end__+0x13cb870>
    1cb0:	00009f24 	andeq	r9, r0, r4, lsr #30
    1cb4:	00000000 	andeq	r0, r0, r0
    1cb8:	03900000 	orrseq	r0, r0, #0
    1cbc:	039c0000 	orrseq	r0, ip, #0
    1cc0:	00010000 	andeq	r0, r1, r0
    1cc4:	00039c50 	andeq	r9, r3, r0, asr ip
    1cc8:	0003bc00 	andeq	fp, r3, r0, lsl #24
    1ccc:	f3000400 	vshl.u8	d0, d0, d0
    1cd0:	009f5001 	addseq	r5, pc, r1
    1cd4:	00000000 	andeq	r0, r0, r0
    1cd8:	bc000000 	stclt	0, cr0, [r0], {-0}
    1cdc:	cf000003 	svcgt	0x00000003
    1ce0:	01000003 	tsteq	r0, r3
    1ce4:	03cf5000 	biceq	r5, pc, #0
    1ce8:	04080000 	streq	r0, [r8], #-0
    1cec:	00010000 	andeq	r0, r1, r0
    1cf0:	00040854 	andeq	r0, r4, r4, asr r8
    1cf4:	00044000 	andeq	r4, r4, r0
    1cf8:	f3000400 	vshl.u8	d0, d0, d0
    1cfc:	009f5001 	addseq	r5, pc, r1
    1d00:	00000000 	andeq	r0, r0, r0
    1d04:	28000000 	stmdacs	r0, {}	; <UNPREDICTABLE>
    1d08:	2c000004 	stccs	0, cr0, [r0], {4}
    1d0c:	01000004 	tsteq	r0, r4
    1d10:	042c5000 	strteq	r5, [ip], #-0
    1d14:	04330000 	ldrteq	r0, [r3], #-0
    1d18:	00010000 	andeq	r0, r1, r0
    1d1c:	00000051 	andeq	r0, r0, r1, asr r0
    1d20:	00000000 	andeq	r0, r0, r0
    1d24:	0003e400 	andeq	lr, r3, r0, lsl #8
    1d28:	0003ec00 	andeq	lr, r3, r0, lsl #24
    1d2c:	50000100 	andpl	r0, r0, r0, lsl #2
    1d30:	000003ec 	andeq	r0, r0, ip, ror #7
    1d34:	000003f3 	strdeq	r0, [r0], -r3
    1d38:	00510001 	subseq	r0, r1, r1
    1d3c:	00000000 	andeq	r0, r0, r0
    1d40:	04000000 	streq	r0, [r0], #-0
    1d44:	10000004 	andne	r0, r0, r4
    1d48:	01000004 	tsteq	r0, r4
    1d4c:	04105000 	ldreq	r5, [r0], #-0
    1d50:	04170000 	ldreq	r0, [r7], #-0
    1d54:	00010000 	andeq	r0, r1, r0
    1d58:	00000051 	andeq	r0, r0, r1, asr r0
    1d5c:	00000000 	andeq	r0, r0, r0
    1d60:	00044000 	andeq	r4, r4, r0
    1d64:	00045300 	andeq	r5, r4, r0, lsl #6
    1d68:	50000100 	andpl	r0, r0, r0, lsl #2
    1d6c:	00000453 	andeq	r0, r0, r3, asr r4
    1d70:	0000048c 	andeq	r0, r0, ip, lsl #9
    1d74:	8c540001 	mrrchi	0, 0, r0, r4, cr1
    1d78:	c4000004 	strgt	r0, [r0], #-4
    1d7c:	04000004 	streq	r0, [r0], #-4
    1d80:	5001f300 	andpl	pc, r1, r0, lsl #6
    1d84:	0000009f 	muleq	r0, pc, r0	; <UNPREDICTABLE>
    1d88:	00000000 	andeq	r0, r0, r0
    1d8c:	0004ac00 	andeq	sl, r4, r0, lsl #24
    1d90:	0004b000 	andeq	fp, r4, r0
    1d94:	50000100 	andpl	r0, r0, r0, lsl #2
    1d98:	000004b0 			; <UNDEFINED> instruction: 0x000004b0
    1d9c:	000004b7 			; <UNDEFINED> instruction: 0x000004b7
    1da0:	00510001 	subseq	r0, r1, r1
    1da4:	00000000 	andeq	r0, r0, r0
    1da8:	68000000 	stmdavs	r0, {}	; <UNPREDICTABLE>
    1dac:	70000004 	andvc	r0, r0, r4
    1db0:	01000004 	tsteq	r0, r4
    1db4:	04705000 	ldrbteq	r5, [r0], #-0
    1db8:	04770000 	ldrbteq	r0, [r7], #-0
    1dbc:	00010000 	andeq	r0, r1, r0
    1dc0:	00000051 	andeq	r0, r0, r1, asr r0
    1dc4:	00000000 	andeq	r0, r0, r0
    1dc8:	00048800 	andeq	r8, r4, r0, lsl #16
    1dcc:	00049400 	andeq	r9, r4, r0, lsl #8
    1dd0:	50000100 	andpl	r0, r0, r0, lsl #2
    1dd4:	00000494 	muleq	r0, r4, r4
    1dd8:	0000049b 	muleq	r0, fp, r4
    1ddc:	00510001 	subseq	r0, r1, r1
    1de0:	00000000 	andeq	r0, r0, r0
    1de4:	c4000000 	strgt	r0, [r0], #-0
    1de8:	d7000004 	strle	r0, [r0, -r4]
    1dec:	01000004 	tsteq	r0, r4
    1df0:	04d75000 	ldrbeq	r5, [r7], #0
    1df4:	05180000 	ldreq	r0, [r8, #-0]
    1df8:	00010000 	andeq	r0, r1, r0
    1dfc:	00051854 	andeq	r1, r5, r4, asr r8
    1e00:	00053c00 	andeq	r3, r5, r0, lsl #24
    1e04:	f3000400 	vshl.u8	d0, d0, d0
    1e08:	3c9f5001 	ldccc	0, cr5, [pc], {1}
    1e0c:	40000005 	andmi	r0, r0, r5
    1e10:	01000005 	tsteq	r0, r5
    1e14:	05405000 	strbeq	r5, [r0, #-0]
    1e18:	05480000 	strbeq	r0, [r8, #-0]
    1e1c:	00010000 	andeq	r0, r1, r0
    1e20:	00000054 	andeq	r0, r0, r4, asr r0
    1e24:	00000000 	andeq	r0, r0, r0
    1e28:	0004ec00 	andeq	lr, r4, r0, lsl #24
    1e2c:	0004fb00 	andeq	pc, r4, r0, lsl #22
    1e30:	31000800 	tstcc	r0, r0, lsl #16
    1e34:	70240074 	eorvc	r0, r4, r4, ror r0
    1e38:	009f1a00 	addseq	r1, pc, r0, lsl #20
    1e3c:	00000000 	andeq	r0, r0, r0
    1e40:	18000000 	stmdane	r0, {}	; <UNPREDICTABLE>
    1e44:	30000005 	andcc	r0, r0, r5
    1e48:	01000005 	tsteq	r0, r5
    1e4c:	00005400 	andeq	r5, r0, r0, lsl #8
    1e50:	00000000 	andeq	r0, r0, r0
    1e54:	05480000 	strbeq	r0, [r8, #-0]
    1e58:	055b0000 	ldrbeq	r0, [fp, #-0]
    1e5c:	00010000 	andeq	r0, r1, r0
    1e60:	00055b50 	andeq	r5, r5, r0, asr fp
    1e64:	00058000 	andeq	r8, r5, r0
    1e68:	54000100 	strpl	r0, [r0], #-256	; 0x100
    1e6c:	00000580 	andeq	r0, r0, r0, lsl #11
    1e70:	000005a0 	andeq	r0, r0, r0, lsr #11
    1e74:	01f30004 	mvnseq	r0, r4
    1e78:	00009f50 	andeq	r9, r0, r0, asr pc
	...
    1e84:	00180000 	andseq	r0, r8, r0
    1e88:	00010000 	andeq	r0, r1, r0
    1e8c:	00001850 	andeq	r1, r0, r0, asr r8
    1e90:	00015400 	andeq	r5, r1, r0, lsl #8
    1e94:	f3000400 	vshl.u8	d0, d0, d0
    1e98:	009f5001 	addseq	r5, pc, r1
	...
    1ea4:	1c000000 	stcne	0, cr0, [r0], {-0}
    1ea8:	01000000 	mrseq	r0, (UNDEF: 0)
    1eac:	001c5100 	andseq	r5, ip, r0, lsl #2
    1eb0:	01540000 	cmpeq	r4, r0
    1eb4:	00040000 	andeq	r0, r4, r0
    1eb8:	9f5101f3 	svcls	0x005101f3
	...
    1ec4:	00000010 	andeq	r0, r0, r0, lsl r0
    1ec8:	00000134 	andeq	r0, r0, r4, lsr r1
    1ecc:	00550001 	subseq	r0, r5, r1
    1ed0:	00000000 	andeq	r0, r0, r0
    1ed4:	10000000 	andne	r0, r0, r0
    1ed8:	34000000 	strcc	r0, [r0], #-0
    1edc:	01000000 	mrseq	r0, (UNDEF: 0)
    1ee0:	00345500 	eorseq	r5, r4, r0, lsl #10
    1ee4:	01340000 	teqeq	r4, r0
    1ee8:	00010000 	andeq	r0, r1, r0
    1eec:	00013458 	andeq	r3, r1, r8, asr r4
    1ef0:	00015400 	andeq	r5, r1, r0, lsl #8
    1ef4:	55000100 	strpl	r0, [r0, #-256]	; 0x100
	...
    1f00:	00000014 	andeq	r0, r0, r4, lsl r0
    1f04:	00000134 	andeq	r0, r0, r4, lsr r1
    1f08:	00550001 	subseq	r0, r5, r1
    1f0c:	00000000 	andeq	r0, r0, r0
    1f10:	20000000 	andcs	r0, r0, r0
    1f14:	34000000 	strcc	r0, [r0], #-0
    1f18:	01000001 	tsteq	r0, r1
    1f1c:	00005500 	andeq	r5, r0, r0, lsl #10
    1f20:	00000000 	andeq	r0, r0, r0
    1f24:	00240000 	eoreq	r0, r4, r0
    1f28:	00280000 	eoreq	r0, r8, r0
    1f2c:	00010000 	andeq	r0, r1, r0
    1f30:	00000053 	andeq	r0, r0, r3, asr r0
    1f34:	00000000 	andeq	r0, r0, r0
    1f38:	00003400 	andeq	r3, r0, r0, lsl #8
    1f3c:	00005400 	andeq	r5, r0, r0, lsl #8
    1f40:	58000100 	stmdapl	r0, {r8}
    1f44:	00000054 	andeq	r0, r0, r4, asr r0
    1f48:	00000134 	andeq	r0, r0, r4, lsr r1
    1f4c:	00750005 	rsbseq	r0, r5, r5
    1f50:	009f2431 	addseq	r2, pc, r1, lsr r4	; <UNPREDICTABLE>
    1f54:	00000000 	andeq	r0, r0, r0
    1f58:	34000000 	strcc	r0, [r0], #-0
    1f5c:	3c000000 	stccc	0, cr0, [r0], {-0}
    1f60:	05000000 	streq	r0, [r0, #-0]
    1f64:	31007700 	tstcc	r0, r0, lsl #14
    1f68:	003c9f1a 	eorseq	r9, ip, sl, lsl pc
    1f6c:	003f0000 	eorseq	r0, pc, r0
    1f70:	00010000 	andeq	r0, r1, r0
    1f74:	00003f51 	andeq	r3, r0, r1, asr pc
    1f78:	00015400 	andeq	r5, r1, r0, lsl #8
    1f7c:	77000500 	strvc	r0, [r0, -r0, lsl #10]
    1f80:	9f1a3100 	svcls	0x001a3100
	...
    1f8c:	00000040 	andeq	r0, r0, r0, asr #32
    1f90:	00000054 	andeq	r0, r0, r4, asr r0
    1f94:	54580001 	ldrbpl	r0, [r8], #-1
    1f98:	34000000 	strcc	r0, [r0], #-0
    1f9c:	05000001 	streq	r0, [r0, #-1]
    1fa0:	31007500 	tstcc	r0, r0, lsl #10
    1fa4:	00009f24 	andeq	r9, r0, r4, lsr #30
    1fa8:	00000000 	andeq	r0, r0, r0
    1fac:	00440000 	subeq	r0, r4, r0
    1fb0:	00480000 	subeq	r0, r8, r0
    1fb4:	00010000 	andeq	r0, r1, r0
    1fb8:	00000053 	andeq	r0, r0, r3, asr r0
    1fbc:	00000000 	andeq	r0, r0, r0
    1fc0:	00005400 	andeq	r5, r0, r0, lsl #8
    1fc4:	00007400 	andeq	r7, r0, r0, lsl #8
    1fc8:	58000100 	stmdapl	r0, {r8}
    1fcc:	00000074 	andeq	r0, r0, r4, ror r0
    1fd0:	00000134 	andeq	r0, r0, r4, lsr r1
    1fd4:	00750008 	rsbseq	r0, r5, r8
    1fd8:	00752431 	rsbseq	r2, r5, r1, lsr r4
    1fdc:	00009f22 	andeq	r9, r0, r2, lsr #30
    1fe0:	00000000 	andeq	r0, r0, r0
    1fe4:	00600000 	rsbeq	r0, r0, r0
    1fe8:	00740000 	rsbseq	r0, r4, r0
    1fec:	00010000 	andeq	r0, r1, r0
    1ff0:	00007458 	andeq	r7, r0, r8, asr r4
    1ff4:	00013400 	andeq	r3, r1, r0, lsl #8
    1ff8:	75000800 	strvc	r0, [r0, #-2048]	; 0x800
    1ffc:	75243100 	strvc	r3, [r4, #-256]!	; 0x100
    2000:	009f2200 	addseq	r2, pc, r0, lsl #4
    2004:	00000000 	andeq	r0, r0, r0
    2008:	64000000 	strvs	r0, [r0], #-0
    200c:	68000000 	stmdavs	r0, {}	; <UNPREDICTABLE>
    2010:	01000000 	mrseq	r0, (UNDEF: 0)
    2014:	00005300 	andeq	r5, r0, r0, lsl #6
    2018:	00000000 	andeq	r0, r0, r0
    201c:	00740000 	rsbseq	r0, r4, r0
    2020:	00940000 	addseq	r0, r4, r0
    2024:	00010000 	andeq	r0, r1, r0
    2028:	00009458 	andeq	r9, r0, r8, asr r4
    202c:	00013400 	andeq	r3, r1, r0, lsl #8
    2030:	75000500 	strvc	r0, [r0, #-1280]	; 0x500
    2034:	9f243200 	svcls	0x00243200
	...
    2040:	00000080 	andeq	r0, r0, r0, lsl #1
    2044:	00000094 	muleq	r0, r4, r0
    2048:	94580001 	ldrbls	r0, [r8], #-1
    204c:	34000000 	strcc	r0, [r0], #-0
    2050:	05000001 	streq	r0, [r0, #-1]
    2054:	32007500 	andcc	r7, r0, #0, 10
    2058:	00009f24 	andeq	r9, r0, r4, lsr #30
    205c:	00000000 	andeq	r0, r0, r0
    2060:	00840000 	addeq	r0, r4, r0
    2064:	00880000 	addeq	r0, r8, r0
    2068:	00010000 	andeq	r0, r1, r0
    206c:	00000053 	andeq	r0, r0, r3, asr r0
    2070:	00000000 	andeq	r0, r0, r0
    2074:	00009400 	andeq	r9, r0, r0, lsl #8
    2078:	0000b400 	andeq	fp, r0, r0, lsl #8
    207c:	58000100 	stmdapl	r0, {r8}
    2080:	000000b4 	strheq	r0, [r0], -r4
    2084:	00000134 	andeq	r0, r0, r4, lsr r1
    2088:	00750008 	rsbseq	r0, r5, r8
    208c:	00752432 	rsbseq	r2, r5, r2, lsr r4
    2090:	00009f22 	andeq	r9, r0, r2, lsr #30
    2094:	00000000 	andeq	r0, r0, r0
    2098:	00a00000 	adceq	r0, r0, r0
    209c:	00b40000 	adcseq	r0, r4, r0
    20a0:	00010000 	andeq	r0, r1, r0
    20a4:	0000b458 	andeq	fp, r0, r8, asr r4
    20a8:	00013400 	andeq	r3, r1, r0, lsl #8
    20ac:	75000800 	strvc	r0, [r0, #-2048]	; 0x800
    20b0:	75243200 	strvc	r3, [r4, #-512]!	; 0x200
    20b4:	009f2200 	addseq	r2, pc, r0, lsl #4
    20b8:	00000000 	andeq	r0, r0, r0
    20bc:	a4000000 	strge	r0, [r0], #-0
    20c0:	a8000000 	stmdage	r0, {}	; <UNPREDICTABLE>
    20c4:	01000000 	mrseq	r0, (UNDEF: 0)
    20c8:	00005300 	andeq	r5, r0, r0, lsl #6
    20cc:	00000000 	andeq	r0, r0, r0
    20d0:	00b40000 	adcseq	r0, r4, r0
    20d4:	00d40000 	sbcseq	r0, r4, r0
    20d8:	00010000 	andeq	r0, r1, r0
    20dc:	0000d458 	andeq	sp, r0, r8, asr r4
    20e0:	00013400 	andeq	r3, r1, r0, lsl #8
    20e4:	75000a00 	strvc	r0, [r0, #-2560]	; 0xa00
    20e8:	75243200 	strvc	r3, [r4, #-512]!	; 0x200
    20ec:	22243100 	eorcs	r3, r4, #0, 2
    20f0:	0000009f 	muleq	r0, pc, r0	; <UNPREDICTABLE>
    20f4:	00000000 	andeq	r0, r0, r0
    20f8:	0000c000 	andeq	ip, r0, r0
    20fc:	0000d400 	andeq	sp, r0, r0, lsl #8
    2100:	58000100 	stmdapl	r0, {r8}
    2104:	000000d4 	ldrdeq	r0, [r0], -r4
    2108:	00000134 	andeq	r0, r0, r4, lsr r1
    210c:	0075000a 	rsbseq	r0, r5, sl
    2110:	00752432 	rsbseq	r2, r5, r2, lsr r4
    2114:	9f222431 	svcls	0x00222431
	...
    2120:	000000c4 	andeq	r0, r0, r4, asr #1
    2124:	000000c8 	andeq	r0, r0, r8, asr #1
    2128:	00530001 	subseq	r0, r3, r1
    212c:	00000000 	andeq	r0, r0, r0
    2130:	d4000000 	strle	r0, [r0], #-0
    2134:	f4000000 	vst4.8	{d0-d3}, [r0], r0
    2138:	01000000 	mrseq	r0, (UNDEF: 0)
    213c:	00f45800 	rscseq	r5, r4, r0, lsl #16
    2140:	01340000 	teqeq	r4, r0
    2144:	000d0000 	andeq	r0, sp, r0
    2148:	24320075 	ldrtcs	r0, [r2], #-117	; 0x75
    214c:	24310075 	ldrtcs	r0, [r1], #-117	; 0x75
    2150:	22007522 	andcs	r7, r0, #142606336	; 0x8800000
    2154:	0000009f 	muleq	r0, pc, r0	; <UNPREDICTABLE>
    2158:	00000000 	andeq	r0, r0, r0
    215c:	0000e000 	andeq	lr, r0, r0
    2160:	0000f400 	andeq	pc, r0, r0, lsl #8
    2164:	58000100 	stmdapl	r0, {r8}
    2168:	000000f4 	strdeq	r0, [r0], -r4
    216c:	00000134 	andeq	r0, r0, r4, lsr r1
    2170:	0075000d 	rsbseq	r0, r5, sp
    2174:	00752432 	rsbseq	r2, r5, r2, lsr r4
    2178:	75222431 	strvc	r2, [r2, #-1073]!	; 0x431
    217c:	009f2200 	addseq	r2, pc, r0, lsl #4
    2180:	00000000 	andeq	r0, r0, r0
    2184:	e4000000 	str	r0, [r0], #-0
    2188:	e8000000 	stmda	r0, {}	; <UNPREDICTABLE>
    218c:	01000000 	mrseq	r0, (UNDEF: 0)
    2190:	00005300 	andeq	r5, r0, r0, lsl #6
    2194:	00000000 	andeq	r0, r0, r0
    2198:	00f40000 	rscseq	r0, r4, r0
    219c:	01140000 	tsteq	r4, r0
    21a0:	00010000 	andeq	r0, r1, r0
    21a4:	00011458 	andeq	r1, r1, r8, asr r4
    21a8:	00013400 	andeq	r3, r1, r0, lsl #8
    21ac:	75000500 	strvc	r0, [r0, #-1280]	; 0x500
    21b0:	9f243300 	svcls	0x00243300
	...
    21bc:	00000100 	andeq	r0, r0, r0, lsl #2
    21c0:	00000114 	andeq	r0, r0, r4, lsl r1
    21c4:	14580001 	ldrbne	r0, [r8], #-1
    21c8:	34000001 	strcc	r0, [r0], #-1
    21cc:	05000001 	streq	r0, [r0, #-1]
    21d0:	33007500 	movwcc	r7, #1280	; 0x500
    21d4:	00009f24 	andeq	r9, r0, r4, lsr #30
    21d8:	00000000 	andeq	r0, r0, r0
    21dc:	01040000 	mrseq	r0, (UNDEF: 4)
    21e0:	01080000 	mrseq	r0, (UNDEF: 8)
    21e4:	00010000 	andeq	r0, r1, r0
    21e8:	00000053 	andeq	r0, r0, r3, asr r0
    21ec:	00000000 	andeq	r0, r0, r0
    21f0:	00011400 	andeq	r1, r1, r0, lsl #8
    21f4:	00011c00 	andeq	r1, r1, r0, lsl #24
    21f8:	77000600 	strvc	r0, [r0, -r0, lsl #12]
    21fc:	1a800800 	bne	fe004204 <__bss_end__+0xfdff9dbc>
    2200:	00011c9f 	muleq	r1, pc, ip	; <UNPREDICTABLE>
    2204:	00011f00 	andeq	r1, r1, r0, lsl #30
    2208:	51000100 	mrspl	r0, (UNDEF: 16)
    220c:	0000011f 	andeq	r0, r0, pc, lsl r1
    2210:	00000154 	andeq	r0, r0, r4, asr r1
    2214:	00770006 	rsbseq	r0, r7, r6
    2218:	9f1a8008 	svcls	0x001a8008
	...
    2224:	00000124 	andeq	r0, r0, r4, lsr #2
    2228:	00000128 	andeq	r0, r0, r8, lsr #2
    222c:	00530001 	subseq	r0, r3, r1
    2230:	00000000 	andeq	r0, r0, r0
    2234:	44000000 	strmi	r0, [r0], #-0
    2238:	48000001 	stmdami	r0, {r0}
    223c:	01000001 	tsteq	r0, r1
    2240:	00005300 	andeq	r5, r0, r0, lsl #6
    2244:	00000000 	andeq	r0, r0, r0
    2248:	01540000 	cmpeq	r4, r0
    224c:	016b0000 	cmneq	fp, r0
    2250:	00010000 	andeq	r0, r1, r0
    2254:	00016b50 	andeq	r6, r1, r0, asr fp
    2258:	0001d000 	andeq	sp, r1, r0
    225c:	59000100 	stmdbpl	r0, {r8}
    2260:	000001d0 	ldrdeq	r0, [r0], -r0	; <UNPREDICTABLE>
    2264:	0000030c 	andeq	r0, r0, ip, lsl #6
    2268:	01f30004 	mvnseq	r0, r4
    226c:	030c9f50 	movweq	r9, #53072	; 0xcf50
    2270:	03140000 	tsteq	r4, #0
    2274:	00010000 	andeq	r0, r1, r0
    2278:	00031459 	andeq	r1, r3, r9, asr r4
    227c:	00031c00 	andeq	r1, r3, r0, lsl #24
    2280:	f3000400 	vshl.u8	d0, d0, d0
    2284:	009f5001 	addseq	r5, pc, r1
    2288:	00000000 	andeq	r0, r0, r0
    228c:	54000000 	strpl	r0, [r0], #-0
    2290:	6b000001 	blvs	229c <_start-0x5d64>
    2294:	01000001 	tsteq	r0, r1
    2298:	016b5100 	cmneq	fp, r0, lsl #2
    229c:	031c0000 	tsteq	ip, #0
    22a0:	00010000 	andeq	r0, r1, r0
    22a4:	00000056 	andeq	r0, r0, r6, asr r0
    22a8:	00000000 	andeq	r0, r0, r0
    22ac:	0001a800 	andeq	sl, r1, r0, lsl #16
    22b0:	00029800 	andeq	r9, r2, r0, lsl #16
    22b4:	58000100 	stmdapl	r0, {r8}
	...
    22c0:	000001ac 	andeq	r0, r0, ip, lsr #3
    22c4:	000002d0 	ldrdeq	r0, [r0], -r0	; <UNPREDICTABLE>
    22c8:	00540001 	subseq	r0, r4, r1
    22cc:	00000000 	andeq	r0, r0, r0
    22d0:	ac000000 	stcge	0, cr0, [r0], {-0}
    22d4:	d0000001 	andle	r0, r0, r1
    22d8:	05000002 	streq	r0, [r0, #-2]
    22dc:	31007400 	tstcc	r0, r0, lsl #8
    22e0:	00009f25 	andeq	r9, r0, r5, lsr #30
    22e4:	00000000 	andeq	r0, r0, r0
    22e8:	01ac0000 			; <UNDEFINED> instruction: 0x01ac0000
    22ec:	01d00000 	bicseq	r0, r0, r0
    22f0:	00020000 	andeq	r0, r2, r0
    22f4:	01d09f30 	bicseq	r9, r0, r0, lsr pc
    22f8:	030c0000 	movweq	r0, #49152	; 0xc000
    22fc:	00010000 	andeq	r0, r1, r0
    2300:	00031459 	andeq	r1, r3, r9, asr r4
    2304:	00031c00 	andeq	r1, r3, r0, lsl #24
    2308:	59000100 	stmdbpl	r0, {r8}
	...
    2314:	00000168 	andeq	r0, r0, r8, ror #2
    2318:	0000016b 	andeq	r0, r0, fp, ror #2
    231c:	6b510001 	blvs	1442328 <__bss_end__+0x1437ee0>
    2320:	1c000001 	stcne	0, cr0, [r0], {1}
    2324:	01000003 	tsteq	r0, r3
    2328:	00005600 	andeq	r5, r0, r0, lsl #12
    232c:	00000000 	andeq	r0, r0, r0
    2330:	01700000 	cmneq	r0, r0
    2334:	01ac0000 			; <UNDEFINED> instruction: 0x01ac0000
    2338:	00010000 	andeq	r0, r1, r0
    233c:	00030c54 	andeq	r0, r3, r4, asr ip
    2340:	00031400 	andeq	r1, r3, r0, lsl #8
    2344:	54000100 	strpl	r0, [r0], #-256	; 0x100
	...
    2350:	000001a8 	andeq	r0, r0, r8, lsr #3
    2354:	000001c4 	andeq	r0, r0, r4, asr #3
    2358:	00580001 	subseq	r0, r8, r1
    235c:	00000000 	andeq	r0, r0, r0
    2360:	b0000000 	andlt	r0, r0, r0
    2364:	cb000001 	blgt	2370 <_start-0x5c90>
    2368:	01000001 	tsteq	r0, r1
    236c:	01cb5200 	biceq	r5, fp, r0, lsl #4
    2370:	02d00000 	sbcseq	r0, r0, #0
    2374:	00080000 	andeq	r0, r8, r0
    2378:	25310074 	ldrcs	r0, [r1, #-116]!	; 0x74
    237c:	9f220074 	svcls	0x00220074
	...
    2388:	000001b0 			; <UNDEFINED> instruction: 0x000001b0
    238c:	000001c4 	andeq	r0, r0, r4, asr #3
    2390:	00580001 	subseq	r0, r8, r1
    2394:	00000000 	andeq	r0, r0, r0
    2398:	b4000000 	strlt	r0, [r0], #-0
    239c:	b8000001 	stmdalt	r0, {r0}
    23a0:	01000001 	tsteq	r0, r1
    23a4:	00005300 	andeq	r5, r0, r0, lsl #6
    23a8:	00000000 	andeq	r0, r0, r0
    23ac:	01d00000 	bicseq	r0, r0, r0
    23b0:	02d00000 	sbcseq	r0, r0, #0
    23b4:	00010000 	andeq	r0, r1, r0
    23b8:	00000054 	andeq	r0, r0, r4, asr r0
    23bc:	00000000 	andeq	r0, r0, r0
    23c0:	0001d000 	andeq	sp, r1, r0
    23c4:	0001e400 	andeq	lr, r1, r0, lsl #8
    23c8:	58000100 	stmdapl	r0, {r8}
	...
    23d4:	000001d4 	ldrdeq	r0, [r0], -r4
    23d8:	000001d8 	ldrdeq	r0, [r0], -r8
    23dc:	00530001 	subseq	r0, r3, r1
    23e0:	00000000 	andeq	r0, r0, r0
    23e4:	f4000000 	vst4.8	{d0-d3}, [r0], r0
    23e8:	d0000001 	andle	r0, r0, r1
    23ec:	01000002 	tsteq	r0, r2
    23f0:	00005400 	andeq	r5, r0, r0, lsl #8
    23f4:	00000000 	andeq	r0, r0, r0
    23f8:	01f40000 	mvnseq	r0, r0
    23fc:	02080000 	andeq	r0, r8, #0
    2400:	00010000 	andeq	r0, r1, r0
    2404:	00000058 	andeq	r0, r0, r8, asr r0
    2408:	00000000 	andeq	r0, r0, r0
    240c:	0001f800 	andeq	pc, r1, r0, lsl #16
    2410:	0001fc00 	andeq	pc, r1, r0, lsl #24
    2414:	53000100 	movwpl	r0, #256	; 0x100
	...
    2420:	00000218 	andeq	r0, r0, r8, lsl r2
    2424:	000002d0 	ldrdeq	r0, [r0], -r0	; <UNPREDICTABLE>
    2428:	00540001 	subseq	r0, r4, r1
    242c:	00000000 	andeq	r0, r0, r0
    2430:	18000000 	stmdane	r0, {}	; <UNPREDICTABLE>
    2434:	2c000002 	stccs	0, cr0, [r0], {2}
    2438:	01000002 	tsteq	r0, r2
    243c:	00005800 	andeq	r5, r0, r0, lsl #16
    2440:	00000000 	andeq	r0, r0, r0
    2444:	021c0000 	andseq	r0, ip, #0
    2448:	02200000 	eoreq	r0, r0, #0
    244c:	00010000 	andeq	r0, r1, r0
    2450:	00000053 	andeq	r0, r0, r3, asr r0
    2454:	00000000 	andeq	r0, r0, r0
    2458:	00023c00 	andeq	r3, r2, r0, lsl #24
    245c:	0002d000 	andeq	sp, r2, r0
    2460:	54000100 	strpl	r0, [r0], #-256	; 0x100
	...
    246c:	0000023c 	andeq	r0, r0, ip, lsr r2
    2470:	00000250 	andeq	r0, r0, r0, asr r2
    2474:	00580001 	subseq	r0, r8, r1
    2478:	00000000 	andeq	r0, r0, r0
    247c:	40000000 	andmi	r0, r0, r0
    2480:	44000002 	strmi	r0, [r0], #-2
    2484:	01000002 	tsteq	r0, r2
    2488:	00005300 	andeq	r5, r0, r0, lsl #6
    248c:	00000000 	andeq	r0, r0, r0
    2490:	02600000 	rsbeq	r0, r0, #0
    2494:	02d00000 	sbcseq	r0, r0, #0
    2498:	00010000 	andeq	r0, r1, r0
    249c:	00000054 	andeq	r0, r0, r4, asr r0
    24a0:	00000000 	andeq	r0, r0, r0
    24a4:	00026000 	andeq	r6, r2, r0
    24a8:	00027400 	andeq	r7, r2, r0, lsl #8
    24ac:	58000100 	stmdapl	r0, {r8}
	...
    24b8:	00000264 	andeq	r0, r0, r4, ror #4
    24bc:	00000268 	andeq	r0, r0, r8, ror #4
    24c0:	00530001 	subseq	r0, r3, r1
    24c4:	00000000 	andeq	r0, r0, r0
    24c8:	84000000 	strhi	r0, [r0], #-0
    24cc:	d0000002 	andle	r0, r0, r2
    24d0:	01000002 	tsteq	r0, r2
    24d4:	00005400 	andeq	r5, r0, r0, lsl #8
    24d8:	00000000 	andeq	r0, r0, r0
    24dc:	02840000 	addeq	r0, r4, #0
    24e0:	02980000 	addseq	r0, r8, #0
    24e4:	00010000 	andeq	r0, r1, r0
    24e8:	00000058 	andeq	r0, r0, r8, asr r0
    24ec:	00000000 	andeq	r0, r0, r0
    24f0:	00028800 	andeq	r8, r2, r0, lsl #16
    24f4:	00028c00 	andeq	r8, r2, r0, lsl #24
    24f8:	53000100 	movwpl	r0, #256	; 0x100
	...
    2504:	000002a8 	andeq	r0, r0, r8, lsr #5
    2508:	000002d0 	ldrdeq	r0, [r0], -r0	; <UNPREDICTABLE>
    250c:	00540001 	subseq	r0, r4, r1
    2510:	00000000 	andeq	r0, r0, r0
    2514:	ac000000 	stcge	0, cr0, [r0], {-0}
    2518:	b0000002 	andlt	r0, r0, r2
    251c:	01000002 	tsteq	r0, r2
    2520:	00005300 	andeq	r5, r0, r0, lsl #6
    2524:	00000000 	andeq	r0, r0, r0
    2528:	02c80000 	sbceq	r0, r8, #0
    252c:	030c0000 	movweq	r0, #49152	; 0xc000
    2530:	00020000 	andeq	r0, r2, r0
    2534:	03149f30 	tsteq	r4, #48, 30	; 0xc0
    2538:	031c0000 	tsteq	ip, #0
    253c:	00020000 	andeq	r0, r2, r0
    2540:	00009f30 	andeq	r9, r0, r0, lsr pc
    2544:	00000000 	andeq	r0, r0, r0
    2548:	02c80000 	sbceq	r0, r8, #0
    254c:	030c0000 	movweq	r0, #49152	; 0xc000
    2550:	00010000 	andeq	r0, r1, r0
    2554:	00031455 	andeq	r1, r3, r5, asr r4
    2558:	00031c00 	andeq	r1, r3, r0, lsl #24
    255c:	55000100 	strpl	r0, [r0, #-256]	; 0x100
	...
    2568:	000002d0 	ldrdeq	r0, [r0], -r0	; <UNPREDICTABLE>
    256c:	0000030c 	andeq	r0, r0, ip, lsl #6
    2570:	14540001 	ldrbne	r0, [r4], #-1
    2574:	1c000003 	stcne	0, cr0, [r0], {3}
    2578:	01000003 	tsteq	r0, r3
    257c:	00005400 	andeq	r5, r0, r0, lsl #8
    2580:	00000000 	andeq	r0, r0, r0
    2584:	031c0000 	tsteq	ip, #0
    2588:	033f0000 	teqeq	pc, #0
    258c:	00010000 	andeq	r0, r1, r0
    2590:	00033f50 	andeq	r3, r3, r0, asr pc
    2594:	00036000 	andeq	r6, r3, r0
    2598:	58000100 	stmdapl	r0, {r8}
    259c:	00000360 	andeq	r0, r0, r0, ror #6
    25a0:	00000370 	andeq	r0, r0, r0, ror r3
    25a4:	70500001 	subsvc	r0, r0, r1
    25a8:	b0000003 	andlt	r0, r0, r3
    25ac:	01000003 	tsteq	r0, r3
    25b0:	03b05800 	movseq	r5, #0, 16
    25b4:	03c00000 	biceq	r0, r0, #0
    25b8:	00040000 	andeq	r0, r4, r0
    25bc:	9f5001f3 	svcls	0x005001f3
	...
    25c8:	0000031c 	andeq	r0, r0, ip, lsl r3
    25cc:	0000033f 	andeq	r0, r0, pc, lsr r3
    25d0:	3f510001 	svccc	0x00510001
    25d4:	60000003 	andvs	r0, r0, r3
    25d8:	01000003 	tsteq	r0, r3
    25dc:	03605600 	cmneq	r0, #0, 12
    25e0:	03700000 	cmneq	r0, #0
    25e4:	00010000 	andeq	r0, r1, r0
    25e8:	00037051 	andeq	r7, r3, r1, asr r0
    25ec:	0003b000 	andeq	fp, r3, r0
    25f0:	56000100 	strpl	r0, [r0], -r0, lsl #2
    25f4:	000003b0 			; <UNDEFINED> instruction: 0x000003b0
    25f8:	000003c0 	andeq	r0, r0, r0, asr #7
    25fc:	01f30004 	mvnseq	r0, r4
    2600:	00009f51 	andeq	r9, r0, r1, asr pc
    2604:	00000000 	andeq	r0, r0, r0
    2608:	031c0000 	tsteq	ip, #0
    260c:	033f0000 	teqeq	pc, #0
    2610:	00010000 	andeq	r0, r1, r0
    2614:	00033f52 	andeq	r3, r3, r2, asr pc
    2618:	00036000 	andeq	r6, r3, r0
    261c:	f3000400 	vshl.u8	d0, d0, d0
    2620:	609f5201 	addsvs	r5, pc, r1, lsl #4
    2624:	70000003 	andvc	r0, r0, r3
    2628:	01000003 	tsteq	r0, r3
    262c:	03705200 	cmneq	r0, #0, 4
    2630:	03b00000 	movseq	r0, #0
    2634:	00030000 	andeq	r0, r3, r0
    2638:	b09f0177 	addslt	r0, pc, r7, ror r1	; <UNPREDICTABLE>
    263c:	c0000003 	andgt	r0, r0, r3
    2640:	04000003 	streq	r0, [r0], #-3
    2644:	5201f300 	andpl	pc, r1, #0, 6
    2648:	0000009f 	muleq	r0, pc, r0	; <UNPREDICTABLE>
    264c:	00000000 	andeq	r0, r0, r0
    2650:	00031c00 	andeq	r1, r3, r0, lsl #24
    2654:	00033f00 	andeq	r3, r3, r0, lsl #30
    2658:	53000100 	movwpl	r0, #256	; 0x100
    265c:	0000033f 	andeq	r0, r0, pc, lsr r3
    2660:	00000360 	andeq	r0, r0, r0, ror #6
    2664:	01f30004 	mvnseq	r0, r4
    2668:	03609f53 	cmneq	r0, #332	; 0x14c
    266c:	03700000 	cmneq	r0, #0
    2670:	00010000 	andeq	r0, r1, r0
    2674:	00037053 	andeq	r7, r3, r3, asr r0
    2678:	0003c000 	andeq	ip, r3, r0
    267c:	f3000400 	vshl.u8	d0, d0, d0
    2680:	009f5301 	addseq	r5, pc, r1, lsl #6
    2684:	00000000 	andeq	r0, r0, r0
    2688:	68000000 	stmdavs	r0, {}	; <UNPREDICTABLE>
    268c:	70000003 	andvc	r0, r0, r3
    2690:	02000003 	andeq	r0, r0, #3
    2694:	709f3000 	addsvc	r3, pc, r0
    2698:	b0000003 	andlt	r0, r0, r3
    269c:	01000003 	tsteq	r0, r3
    26a0:	03b05400 	movseq	r5, #0, 8
    26a4:	03c00000 	biceq	r0, r0, #0
    26a8:	00010000 	andeq	r0, r1, r0
    26ac:	00000050 	andeq	r0, r0, r0, asr r0
    26b0:	00000000 	andeq	r0, r0, r0
    26b4:	00038000 	andeq	r8, r3, r0
    26b8:	00039000 	andeq	r9, r3, r0
    26bc:	50000100 	andpl	r0, r0, r0, lsl #2
	...
    26c8:	000003c0 	andeq	r0, r0, r0, asr #7
    26cc:	000003df 	ldrdeq	r0, [r0], -pc	; <UNPREDICTABLE>
    26d0:	df500001 	svcle	0x00500001
    26d4:	00000003 	andeq	r0, r0, r3
    26d8:	01000004 	tsteq	r0, r4
    26dc:	04005700 	streq	r5, [r0], #-1792	; 0x700
    26e0:	04100000 	ldreq	r0, [r0], #-0
    26e4:	00010000 	andeq	r0, r1, r0
    26e8:	00041050 	andeq	r1, r4, r0, asr r0
    26ec:	00044000 	andeq	r4, r4, r0
    26f0:	57000100 	strpl	r0, [r0, -r0, lsl #2]
    26f4:	00000440 	andeq	r0, r0, r0, asr #8
    26f8:	00000450 	andeq	r0, r0, r0, asr r4
    26fc:	01f30004 	mvnseq	r0, r4
    2700:	00009f50 	andeq	r9, r0, r0, asr pc
    2704:	00000000 	andeq	r0, r0, r0
    2708:	03c00000 	biceq	r0, r0, #0
    270c:	03df0000 	bicseq	r0, pc, #0
    2710:	00010000 	andeq	r0, r1, r0
    2714:	0003df51 	andeq	sp, r3, r1, asr pc
    2718:	00040000 	andeq	r0, r4, r0
    271c:	55000100 	strpl	r0, [r0, #-256]	; 0x100
    2720:	00000400 	andeq	r0, r0, r0, lsl #8
    2724:	00000410 	andeq	r0, r0, r0, lsl r4
    2728:	10510001 	subsne	r0, r1, r1
    272c:	40000004 	andmi	r0, r0, r4
    2730:	01000004 	tsteq	r0, r4
    2734:	04405500 	strbeq	r5, [r0], #-1280	; 0x500
    2738:	04500000 	ldrbeq	r0, [r0], #-0
    273c:	00040000 	andeq	r0, r4, r0
    2740:	9f5101f3 	svcls	0x005101f3
	...
    274c:	000003c0 	andeq	r0, r0, r0, asr #7
    2750:	000003df 	ldrdeq	r0, [r0], -pc	; <UNPREDICTABLE>
    2754:	df520001 	svcle	0x00520001
    2758:	00000003 	andeq	r0, r0, r3
    275c:	04000004 	streq	r0, [r0], #-4
    2760:	5201f300 	andpl	pc, r1, #0, 6
    2764:	0004009f 	muleq	r4, pc, r0	; <UNPREDICTABLE>
    2768:	00041000 	andeq	r1, r4, r0
    276c:	52000100 	andpl	r0, r0, #0, 2
    2770:	00000410 	andeq	r0, r0, r0, lsl r4
    2774:	00000440 	andeq	r0, r0, r0, asr #8
    2778:	01760003 	cmneq	r6, r3
    277c:	0004409f 	muleq	r4, pc, r0	; <UNPREDICTABLE>
    2780:	00045000 	andeq	r5, r4, r0
    2784:	f3000400 	vshl.u8	d0, d0, d0
    2788:	009f5201 	addseq	r5, pc, r1, lsl #4
    278c:	00000000 	andeq	r0, r0, r0
    2790:	c0000000 	andgt	r0, r0, r0
    2794:	df000003 	svcle	0x00000003
    2798:	01000003 	tsteq	r0, r3
    279c:	03df5300 	bicseq	r5, pc, #0, 6
    27a0:	04000000 	streq	r0, [r0], #-0
    27a4:	00010000 	andeq	r0, r1, r0
    27a8:	00040058 	andeq	r0, r4, r8, asr r0
    27ac:	00041000 	andeq	r1, r4, r0
    27b0:	53000100 	movwpl	r0, #256	; 0x100
    27b4:	00000410 	andeq	r0, r0, r0, lsl r4
    27b8:	00000440 	andeq	r0, r0, r0, asr #8
    27bc:	40580001 	subsmi	r0, r8, r1
    27c0:	50000004 	andpl	r0, r0, r4
    27c4:	04000004 	streq	r0, [r0], #-4
    27c8:	5301f300 	movwpl	pc, #4864	; 0x1300	; <UNPREDICTABLE>
    27cc:	0000009f 	muleq	r0, pc, r0	; <UNPREDICTABLE>
    27d0:	00000000 	andeq	r0, r0, r0
    27d4:	00040800 	andeq	r0, r4, r0, lsl #16
    27d8:	00041000 	andeq	r1, r4, r0
    27dc:	30000200 	andcc	r0, r0, r0, lsl #4
    27e0:	0004109f 	muleq	r4, pc, r0	; <UNPREDICTABLE>
    27e4:	00044000 	andeq	r4, r4, r0
    27e8:	54000100 	strpl	r0, [r0], #-256	; 0x100
    27ec:	00000440 	andeq	r0, r0, r0, asr #8
    27f0:	00000450 	andeq	r0, r0, r0, asr r4
    27f4:	00500001 	subseq	r0, r0, r1
    27f8:	00000000 	andeq	r0, r0, r0
    27fc:	50000000 	andpl	r0, r0, r0
    2800:	73000004 	movwvc	r0, #4
    2804:	01000004 	tsteq	r0, r4
    2808:	04735100 	ldrbteq	r5, [r3], #-256	; 0x100
    280c:	05240000 	streq	r0, [r4, #-0]!
    2810:	00040000 	andeq	r0, r4, r0
    2814:	9f5101f3 	svcls	0x005101f3
	...
    2820:	00000450 	andeq	r0, r0, r0, asr r4
    2824:	00000473 	andeq	r0, r0, r3, ror r4
    2828:	73520001 	cmpvc	r2, #1
    282c:	24000004 	strcs	r0, [r0], #-4
    2830:	04000005 	streq	r0, [r0], #-5
    2834:	5201f300 	andpl	pc, r1, #0, 6
    2838:	0000009f 	muleq	r0, pc, r0	; <UNPREDICTABLE>
    283c:	00000000 	andeq	r0, r0, r0
    2840:	00045000 	andeq	r5, r4, r0
    2844:	00047300 	andeq	r7, r4, r0, lsl #6
    2848:	53000100 	movwpl	r0, #256	; 0x100
    284c:	00000473 	andeq	r0, r0, r3, ror r4
    2850:	00000510 	andeq	r0, r0, r0, lsl r5
    2854:	10550001 	subsne	r0, r5, r1
    2858:	24000005 	strcs	r0, [r0], #-5
    285c:	02000005 	andeq	r0, r0, #5
    2860:	00047000 	andeq	r7, r4, r0
    2864:	00000000 	andeq	r0, r0, r0
    2868:	94000000 	strls	r0, [r0], #-0
    286c:	d3000004 	movwle	r0, #4
    2870:	01000004 	tsteq	r0, r4
    2874:	04d35200 	ldrbeq	r5, [r3], #512	; 0x200
    2878:	04f40000 	ldrbteq	r0, [r4], #0
    287c:	00060000 	andeq	r0, r6, r0
    2880:	00770075 	rsbseq	r0, r7, r5, ror r0
    2884:	04f49f1e 	ldrbteq	r9, [r4], #3870	; 0xf1e
    2888:	05240000 	streq	r0, [r4, #-0]!
    288c:	00010000 	andeq	r0, r1, r0
    2890:	00000052 	andeq	r0, r0, r2, asr r0
    2894:	00000000 	andeq	r0, r0, r0
    2898:	00052400 	andeq	r2, r5, r0, lsl #8
    289c:	00052f00 	andeq	r2, r5, r0, lsl #30
    28a0:	50000100 	andpl	r0, r0, r0, lsl #2
    28a4:	0000052f 	andeq	r0, r0, pc, lsr #10
    28a8:	00000560 	andeq	r0, r0, r0, ror #10
    28ac:	01f30004 	mvnseq	r0, r4
    28b0:	00009f50 	andeq	r9, r0, r0, asr pc
    28b4:	00000000 	andeq	r0, r0, r0
    28b8:	05300000 	ldreq	r0, [r0, #-0]!
    28bc:	053b0000 	ldreq	r0, [fp, #-0]!
    28c0:	00010000 	andeq	r0, r1, r0
    28c4:	00000050 	andeq	r0, r0, r0, asr r0
    28c8:	00000000 	andeq	r0, r0, r0
    28cc:	00056000 	andeq	r6, r5, r0
    28d0:	00057000 	andeq	r7, r5, r0
    28d4:	50000100 	andpl	r0, r0, r0, lsl #2
    28d8:	00000570 	andeq	r0, r0, r0, ror r5
    28dc:	0000058c 	andeq	r0, r0, ip, lsl #11
    28e0:	00550001 	subseq	r0, r5, r1
    28e4:	00000000 	andeq	r0, r0, r0
    28e8:	60000000 	andvs	r0, r0, r0
    28ec:	70000005 	andvc	r0, r0, r5
    28f0:	01000005 	tsteq	r0, r5
    28f4:	05705100 	ldrbeq	r5, [r0, #-256]!	; 0x100
    28f8:	058c0000 	streq	r0, [ip]
    28fc:	00010000 	andeq	r0, r1, r0
    2900:	00000054 	andeq	r0, r0, r4, asr r0
    2904:	00000000 	andeq	r0, r0, r0
    2908:	00058c00 	andeq	r8, r5, r0, lsl #24
    290c:	0005a800 	andeq	sl, r5, r0, lsl #16
    2910:	50000100 	andpl	r0, r0, r0, lsl #2
    2914:	000005a8 	andeq	r0, r0, r8, lsr #11
    2918:	00000600 	andeq	r0, r0, r0, lsl #12
    291c:	00550001 	subseq	r0, r5, r1
    2920:	1c000006 	stcne	0, cr0, [r0], {6}
    2924:	04000006 	streq	r0, [r0], #-6
    2928:	5001f300 	andpl	pc, r1, r0, lsl #6
    292c:	0000009f 	muleq	r0, pc, r0	; <UNPREDICTABLE>
    2930:	00000000 	andeq	r0, r0, r0
    2934:	0005b800 	andeq	fp, r5, r0, lsl #16
    2938:	0005c700 	andeq	ip, r5, r0, lsl #14
    293c:	50000100 	andpl	r0, r0, r0, lsl #2
    2940:	000005c7 	andeq	r0, r0, r7, asr #11
    2944:	000005e8 	andeq	r0, r0, r8, ror #11
    2948:	e8540001 	ldmda	r4, {r0}^
    294c:	ec000005 	stc	0, cr0, [r0], {5}
    2950:	01000005 	tsteq	r0, r5
    2954:	05ec5000 	strbeq	r5, [ip, #0]!
    2958:	06000000 	streq	r0, [r0], -r0
    295c:	00010000 	andeq	r0, r1, r0
    2960:	00060054 	andeq	r0, r6, r4, asr r0
    2964:	00061c00 	andeq	r1, r6, r0, lsl #24
    2968:	50000100 	andpl	r0, r0, r0, lsl #2
	...
    2974:	0000061c 	andeq	r0, r0, ip, lsl r6
    2978:	0000062f 	andeq	r0, r0, pc, lsr #12
    297c:	2f500001 	svccs	0x00500001
    2980:	68000006 	stmdavs	r0, {r1, r2}
    2984:	04000006 	streq	r0, [r0], #-6
    2988:	5001f300 	andpl	pc, r1, r0, lsl #6
    298c:	0000009f 	muleq	r0, pc, r0	; <UNPREDICTABLE>
    2990:	00000000 	andeq	r0, r0, r0
    2994:	00061c00 	andeq	r1, r6, r0, lsl #24
    2998:	00062f00 	andeq	r2, r6, r0, lsl #30
    299c:	51000100 	mrspl	r0, (UNDEF: 16)
    29a0:	0000062f 	andeq	r0, r0, pc, lsr #12
    29a4:	00000668 	andeq	r0, r0, r8, ror #12
    29a8:	01f30004 	mvnseq	r0, r4
    29ac:	00009f51 	andeq	r9, r0, r1, asr pc
    29b0:	00000000 	andeq	r0, r0, r0
    29b4:	061c0000 	ldreq	r0, [ip], -r0
    29b8:	062f0000 	strteq	r0, [pc], -r0
    29bc:	00010000 	andeq	r0, r1, r0
    29c0:	00062f52 	andeq	r2, r6, r2, asr pc
    29c4:	00066800 	andeq	r6, r6, r0, lsl #16
    29c8:	f3000400 	vshl.u8	d0, d0, d0
    29cc:	009f5201 	addseq	r5, pc, r1, lsl #4
    29d0:	00000000 	andeq	r0, r0, r0
    29d4:	1c000000 	stcne	0, cr0, [r0], {-0}
    29d8:	2f000006 	svccs	0x00000006
    29dc:	01000006 	tsteq	r0, r6
    29e0:	062f5300 	strteq	r5, [pc], -r0, lsl #6
    29e4:	06680000 	strbteq	r0, [r8], -r0
    29e8:	00040000 	andeq	r0, r4, r0
    29ec:	9f5301f3 	svcls	0x005301f3
	...
    29f8:	00000630 	andeq	r0, r0, r0, lsr r6
    29fc:	0000063b 	andeq	r0, r0, fp, lsr r6
    2a00:	54500001 	ldrbpl	r0, [r0], #-1
    2a04:	68000006 	stmdavs	r0, {r1, r2}
    2a08:	01000006 	tsteq	r0, r6
    2a0c:	00005000 	andeq	r5, r0, r0
    2a10:	00000000 	andeq	r0, r0, r0
    2a14:	00fc0000 	rscseq	r0, ip, r0
    2a18:	01040000 	mrseq	r0, (UNDEF: 4)
    2a1c:	00010000 	andeq	r0, r1, r0
    2a20:	00010450 	andeq	r0, r1, r0, asr r4
    2a24:	00012800 	andeq	r2, r1, r0, lsl #16
    2a28:	54000100 	strpl	r0, [r0], #-256	; 0x100
	...
    2a38:	00000004 	andeq	r0, r0, r4
    2a3c:	04520001 	ldrbeq	r0, [r2], #-1
    2a40:	20000000 	andcs	r0, r0, r0
    2a44:	04000000 	streq	r0, [r0], #-0
    2a48:	5201f300 	andpl	pc, r1, #0, 6
    2a4c:	0000009f 	muleq	r0, pc, r0	; <UNPREDICTABLE>
	...
    2a58:	00000c00 	andeq	r0, r0, r0, lsl #24
    2a5c:	50000100 	andpl	r0, r0, r0, lsl #2
    2a60:	0000000c 	andeq	r0, r0, ip
    2a64:	00000014 	andeq	r0, r0, r4, lsl r0
    2a68:	01730003 	cmneq	r3, r3
    2a6c:	0000149f 	muleq	r0, pc, r4	; <UNPREDICTABLE>
    2a70:	00002000 	andeq	r2, r0, r0
    2a74:	53000100 	movwpl	r0, #256	; 0x100
	...

Disassembly of section .debug_aranges:

00000000 <.debug_aranges>:
   0:	0000001c 	andeq	r0, r0, ip, lsl r0
   4:	00000002 	andeq	r0, r0, r2
   8:	00040000 	andeq	r0, r4, r0
   c:	00000000 	andeq	r0, r0, r0
  10:	00008010 	andeq	r8, r0, r0, lsl r0
  14:	000006b0 			; <UNDEFINED> instruction: 0x000006b0
	...
  20:	0000001c 	andeq	r0, r0, ip, lsl r0
  24:	10260002 	eorne	r0, r6, r2
  28:	00040000 	andeq	r0, r4, r0
  2c:	00000000 	andeq	r0, r0, r0
  30:	000086c0 	andeq	r8, r0, r0, asr #13
  34:	00000058 	andeq	r0, r0, r8, asr r0
	...
  40:	0000001c 	andeq	r0, r0, ip, lsl r0
  44:	11bb0002 			; <UNDEFINED> instruction: 0x11bb0002
  48:	00040000 	andeq	r0, r4, r0
  4c:	00000000 	andeq	r0, r0, r0
  50:	00008718 	andeq	r8, r0, r8, lsl r7
  54:	0000003c 	andeq	r0, r0, ip, lsr r0
	...
  60:	0000001c 	andeq	r0, r0, ip, lsl r0
  64:	12d20002 	sbcsne	r0, r2, #2
  68:	00040000 	andeq	r0, r4, r0
  6c:	00000000 	andeq	r0, r0, r0
  70:	00008754 	andeq	r8, r0, r4, asr r7
  74:	00000034 	andeq	r0, r0, r4, lsr r0
	...
  80:	0000001c 	andeq	r0, r0, ip, lsl r0
  84:	13c40002 	bicne	r0, r4, #2
  88:	00040000 	andeq	r0, r4, r0
  8c:	00000000 	andeq	r0, r0, r0
  90:	00008788 	andeq	r8, r0, r8, lsl #15
  94:	00000524 	andeq	r0, r0, r4, lsr #10
	...
  a0:	0000001c 	andeq	r0, r0, ip, lsl r0
  a4:	1a690002 	bne	1a400b4 <__bss_end__+0x1a35c6c>
  a8:	00040000 	andeq	r0, r4, r0
  ac:	00000000 	andeq	r0, r0, r0
  b0:	00008cac 	andeq	r8, r0, ip, lsr #25
  b4:	00000020 	andeq	r0, r0, r0, lsr #32
	...
  c0:	0000001c 	andeq	r0, r0, ip, lsl r0
  c4:	1b250002 	blne	9400d4 <__bss_end__+0x935c8c>
  c8:	00040000 	andeq	r0, r4, r0
  cc:	00000000 	andeq	r0, r0, r0
  d0:	00008ccc 	andeq	r8, r0, ip, asr #25
  d4:	00000028 	andeq	r0, r0, r8, lsr #32
	...
  e0:	0000001c 	andeq	r0, r0, ip, lsl r0
  e4:	1c280002 	stcne	0, cr0, [r8], #-8
  e8:	00040000 	andeq	r0, r4, r0
  ec:	00000000 	andeq	r0, r0, r0
  f0:	00008cf4 	strdeq	r8, [r0], -r4
  f4:	000000b0 	strheq	r0, [r0], -r0	; <UNPREDICTABLE>
	...
 100:	0000001c 	andeq	r0, r0, ip, lsl r0
 104:	1f090002 	svcne	0x00090002
 108:	00040000 	andeq	r0, r4, r0
 10c:	00000000 	andeq	r0, r0, r0
 110:	00008da4 	andeq	r8, r0, r4, lsr #27
 114:	00000074 	andeq	r0, r0, r4, ror r0
	...
 120:	0000001c 	andeq	r0, r0, ip, lsl r0
 124:	20ba0002 	adcscs	r0, sl, r2
 128:	00040000 	andeq	r0, r4, r0
 12c:	00000000 	andeq	r0, r0, r0
 130:	00008e18 	andeq	r8, r0, r8, lsl lr
 134:	00000088 	andeq	r0, r0, r8, lsl #1
	...
 140:	0000001c 	andeq	r0, r0, ip, lsl r0
 144:	22960002 	addscs	r0, r6, #2
 148:	00040000 	andeq	r0, r4, r0
 14c:	00000000 	andeq	r0, r0, r0
 150:	00008ea0 	andeq	r8, r0, r0, lsr #29
 154:	000005a0 	andeq	r0, r0, r0, lsr #11
	...
 160:	0000001c 	andeq	r0, r0, ip, lsl r0
 164:	2b1c0002 	blcs	700174 <__bss_end__+0x6f5d2c>
 168:	00040000 	andeq	r0, r4, r0
 16c:	00000000 	andeq	r0, r0, r0
 170:	00009440 	andeq	r9, r0, r0, asr #8
 174:	00000668 	andeq	r0, r0, r8, ror #12
	...
 180:	0000001c 	andeq	r0, r0, ip, lsl r0
 184:	3d120002 	ldccc	0, cr0, [r2, #-8]
 188:	00040000 	andeq	r0, r4, r0
 18c:	00000000 	andeq	r0, r0, r0
 190:	00009aa8 	andeq	r9, r0, r8, lsr #21
 194:	00000154 	andeq	r0, r0, r4, asr r1
	...
 1a0:	0000001c 	andeq	r0, r0, ip, lsl r0
 1a4:	41150002 	tstmi	r5, r2
 1a8:	00040000 	andeq	r0, r4, r0
 1ac:	00000000 	andeq	r0, r0, r0
 1b0:	00009c60 	andeq	r9, r0, r0, ror #24
 1b4:	00000050 	andeq	r0, r0, r0, asr r0
	...
 1c0:	0000001c 	andeq	r0, r0, ip, lsl r0
 1c4:	42dc0002 	sbcsmi	r0, ip, #2
 1c8:	00040000 	andeq	r0, r4, r0
 1cc:	00000000 	andeq	r0, r0, r0
 1d0:	00009cb0 			; <UNDEFINED> instruction: 0x00009cb0
 1d4:	00000020 	andeq	r0, r0, r0, lsr #32
	...

Disassembly of section .debug_ranges:

00000000 <.debug_ranges>:
   0:	000003b8 			; <UNDEFINED> instruction: 0x000003b8
   4:	000003bc 			; <UNDEFINED> instruction: 0x000003bc
   8:	000003c0 	andeq	r0, r0, r0, asr #7
   c:	000003c4 	andeq	r0, r0, r4, asr #7
  10:	000003c8 	andeq	r0, r0, r8, asr #7
  14:	000003cc 	andeq	r0, r0, ip, asr #7
  18:	000003d0 	ldrdeq	r0, [r0], -r0	; <UNPREDICTABLE>
  1c:	000003d4 	ldrdeq	r0, [r0], -r4
	...
  28:	000003c4 	andeq	r0, r0, r4, asr #7
  2c:	000003c8 	andeq	r0, r0, r8, asr #7
  30:	000003cc 	andeq	r0, r0, ip, asr #7
  34:	000003d0 	ldrdeq	r0, [r0], -r0	; <UNPREDICTABLE>
  38:	000003d4 	ldrdeq	r0, [r0], -r4
  3c:	000003dc 	ldrdeq	r0, [r0], -ip
	...
  48:	000003ec 	andeq	r0, r0, ip, ror #7
  4c:	000003f0 	strdeq	r0, [r0], -r0	; <UNPREDICTABLE>
  50:	000003f4 	strdeq	r0, [r0], -r4
  54:	000003f8 	strdeq	r0, [r0], -r8
  58:	000003fc 	strdeq	r0, [r0], -ip
  5c:	00000400 	andeq	r0, r0, r0, lsl #8
  60:	00000404 	andeq	r0, r0, r4, lsl #8
  64:	00000408 	andeq	r0, r0, r8, lsl #8
	...
  70:	000003f8 	strdeq	r0, [r0], -r8
  74:	000003fc 	strdeq	r0, [r0], -ip
  78:	00000400 	andeq	r0, r0, r0, lsl #8
  7c:	00000404 	andeq	r0, r0, r4, lsl #8
  80:	00000408 	andeq	r0, r0, r8, lsl #8
  84:	00000410 	andeq	r0, r0, r0, lsl r4
	...
  90:	00000420 	andeq	r0, r0, r0, lsr #8
  94:	00000424 	andeq	r0, r0, r4, lsr #8
  98:	00000428 	andeq	r0, r0, r8, lsr #8
  9c:	0000042c 	andeq	r0, r0, ip, lsr #8
  a0:	00000430 	andeq	r0, r0, r0, lsr r4
  a4:	00000434 	andeq	r0, r0, r4, lsr r4
  a8:	00000438 	andeq	r0, r0, r8, lsr r4
  ac:	0000043c 	andeq	r0, r0, ip, lsr r4
	...
  b8:	0000042c 	andeq	r0, r0, ip, lsr #8
  bc:	00000430 	andeq	r0, r0, r0, lsr r4
  c0:	00000434 	andeq	r0, r0, r4, lsr r4
  c4:	00000438 	andeq	r0, r0, r8, lsr r4
  c8:	0000043c 	andeq	r0, r0, ip, lsr r4
  cc:	00000444 	andeq	r0, r0, r4, asr #8
	...
  d8:	00000454 	andeq	r0, r0, r4, asr r4
  dc:	00000458 	andeq	r0, r0, r8, asr r4
  e0:	0000045c 	andeq	r0, r0, ip, asr r4
  e4:	00000460 	andeq	r0, r0, r0, ror #8
  e8:	00000464 	andeq	r0, r0, r4, ror #8
  ec:	00000468 	andeq	r0, r0, r8, ror #8
  f0:	0000046c 	andeq	r0, r0, ip, ror #8
  f4:	00000470 	andeq	r0, r0, r0, ror r4
	...
 100:	00000460 	andeq	r0, r0, r0, ror #8
 104:	00000464 	andeq	r0, r0, r4, ror #8
 108:	00000468 	andeq	r0, r0, r8, ror #8
 10c:	0000046c 	andeq	r0, r0, ip, ror #8
 110:	00000470 	andeq	r0, r0, r0, ror r4
 114:	00000478 	andeq	r0, r0, r8, ror r4
	...
 120:	00000488 	andeq	r0, r0, r8, lsl #9
 124:	0000048c 	andeq	r0, r0, ip, lsl #9
 128:	00000490 	muleq	r0, r0, r4
 12c:	00000494 	muleq	r0, r4, r4
 130:	00000498 	muleq	r0, r8, r4
 134:	0000049c 	muleq	r0, ip, r4
 138:	000004a4 	andeq	r0, r0, r4, lsr #9
 13c:	000004a8 	andeq	r0, r0, r8, lsr #9
	...
 148:	00000494 	muleq	r0, r4, r4
 14c:	00000498 	muleq	r0, r8, r4
 150:	0000049c 	muleq	r0, ip, r4
 154:	000004a4 	andeq	r0, r0, r4, lsr #9
 158:	000004a8 	andeq	r0, r0, r8, lsr #9
 15c:	000004b0 			; <UNDEFINED> instruction: 0x000004b0
	...
 168:	000004c0 	andeq	r0, r0, r0, asr #9
 16c:	000004c4 	andeq	r0, r0, r4, asr #9
 170:	000004c8 	andeq	r0, r0, r8, asr #9
 174:	000004cc 	andeq	r0, r0, ip, asr #9
 178:	000004d0 	ldrdeq	r0, [r0], -r0	; <UNPREDICTABLE>
 17c:	000004d4 	ldrdeq	r0, [r0], -r4
 180:	000004d8 	ldrdeq	r0, [r0], -r8
 184:	000004dc 	ldrdeq	r0, [r0], -ip
	...
 190:	000004cc 	andeq	r0, r0, ip, asr #9
 194:	000004d0 	ldrdeq	r0, [r0], -r0	; <UNPREDICTABLE>
 198:	000004d4 	ldrdeq	r0, [r0], -r4
 19c:	000004d8 	ldrdeq	r0, [r0], -r8
 1a0:	000004dc 	ldrdeq	r0, [r0], -ip
 1a4:	000004e8 	andeq	r0, r0, r8, ror #9
	...
 1b0:	000004f8 	strdeq	r0, [r0], -r8
 1b4:	000004fc 	strdeq	r0, [r0], -ip
 1b8:	00000500 	andeq	r0, r0, r0, lsl #10
 1bc:	00000504 	andeq	r0, r0, r4, lsl #10
 1c0:	00000508 	andeq	r0, r0, r8, lsl #10
 1c4:	0000050c 	andeq	r0, r0, ip, lsl #10
 1c8:	00000510 	andeq	r0, r0, r0, lsl r5
 1cc:	00000514 	andeq	r0, r0, r4, lsl r5
	...
 1d8:	00000504 	andeq	r0, r0, r4, lsl #10
 1dc:	00000508 	andeq	r0, r0, r8, lsl #10
 1e0:	0000050c 	andeq	r0, r0, ip, lsl #10
 1e4:	00000510 	andeq	r0, r0, r0, lsl r5
 1e8:	00000514 	andeq	r0, r0, r4, lsl r5
 1ec:	00000518 	andeq	r0, r0, r8, lsl r5
	...
 1f8:	0000052c 	andeq	r0, r0, ip, lsr #10
 1fc:	00000538 	andeq	r0, r0, r8, lsr r5
 200:	0000053c 	andeq	r0, r0, ip, lsr r5
 204:	00000540 	andeq	r0, r0, r0, asr #10
 208:	00000544 	andeq	r0, r0, r4, asr #10
 20c:	00000548 	andeq	r0, r0, r8, asr #10
	...
 218:	00000538 	andeq	r0, r0, r8, lsr r5
 21c:	0000053c 	andeq	r0, r0, ip, lsr r5
 220:	00000540 	andeq	r0, r0, r0, asr #10
 224:	00000544 	andeq	r0, r0, r4, asr #10
 228:	00000548 	andeq	r0, r0, r8, asr #10
 22c:	0000054c 	andeq	r0, r0, ip, asr #10
	...
 238:	000005ac 	andeq	r0, r0, ip, lsr #11
 23c:	000005b0 			; <UNDEFINED> instruction: 0x000005b0
 240:	000005b4 			; <UNDEFINED> instruction: 0x000005b4
 244:	000005c0 	andeq	r0, r0, r0, asr #11
	...
 250:	000002b4 			; <UNDEFINED> instruction: 0x000002b4
 254:	000002b8 			; <UNDEFINED> instruction: 0x000002b8
 258:	000002e8 	andeq	r0, r0, r8, ror #5
 25c:	000004e0 	andeq	r0, r0, r0, ror #9
	...
 268:	00008da4 	andeq	r8, r0, r4, lsr #27
 26c:	00008e18 	andeq	r8, r0, r8, lsl lr
	...

Disassembly of section .debug_line:

00000000 <.debug_line>:
       0:	000002e3 	andeq	r0, r0, r3, ror #5
       4:	01280002 	teqeq	r8, r2
       8:	01020000 	mrseq	r0, (UNDEF: 2)
       c:	000d0efb 	strdeq	r0, [sp], -fp
      10:	01010101 	tsteq	r1, r1, lsl #2
      14:	01000000 	mrseq	r0, (UNDEF: 0)
      18:	2f010000 	svccs	0x00010000
      1c:	72657355 	rsbvc	r7, r5, #1409286145	; 0x54000001
      20:	72622f73 	rsbvc	r2, r2, #460	; 0x1cc
      24:	6a6e6169 	bvs	1b985d0 <__bss_end__+0x1b8e188>
      28:	442f6e75 	strtmi	r6, [pc], #-3701	; 30 <_start-0x7fd0>
      2c:	746b7365 	strbtvc	r7, [fp], #-869	; 0x365
      30:	732f706f 	teqvc	pc, #111	; 0x6f
      34:	6f6f6863 	svcvs	0x006f6863
      38:	69572f6c 	ldmdbvs	r7, {r2, r3, r5, r6, r8, r9, sl, fp, sp}^
      3c:	7265746e 	rsbvc	r7, r5, #1845493760	; 0x6e000000
      40:	30323931 	eorscc	r3, r2, r1, lsr r9
      44:	3153432f 	cmpcc	r3, pc, lsr #6
      48:	2f453034 	svccs	0x00453034
      4c:	34317363 	ldrtcc	r7, [r1], #-867	; 0x363
      50:	322d6530 	eorcc	r6, sp, #48, 10	; 0xc000000
      54:	6e697730 	mcrvs	7, 3, r7, cr9, cr0, {1}
      58:	62696c2f 	rsbvs	r6, r9, #12032	; 0x2f00
      5c:	2f006970 	svccs	0x00006970
      60:	72657355 	rsbvc	r7, r5, #1409286145	; 0x54000001
      64:	72622f73 	rsbvc	r2, r2, #460	; 0x1cc
      68:	6a6e6169 	bvs	1b98614 <__bss_end__+0x1b8e1cc>
      6c:	442f6e75 	strtmi	r6, [pc], #-3701	; 74 <_start-0x7f8c>
      70:	746b7365 	strbtvc	r7, [fp], #-869	; 0x365
      74:	732f706f 	teqvc	pc, #111	; 0x6f
      78:	6f6f6863 	svcvs	0x006f6863
      7c:	69572f6c 	ldmdbvs	r7, {r2, r3, r5, r6, r8, r9, sl, fp, sp}^
      80:	7265746e 	rsbvc	r7, r5, #1845493760	; 0x6e000000
      84:	30323931 	eorscc	r3, r2, r1, lsr r9
      88:	3153432f 	cmpcc	r3, pc, lsr #6
      8c:	2f453034 	svccs	0x00453034
      90:	34317363 	ldrtcc	r7, [r1], #-867	; 0x363
      94:	322d6530 	eorcc	r6, sp, #48, 10	; 0xc000000
      98:	6e697730 	mcrvs	7, 3, r7, cr9, cr0, {1}
      9c:	62696c2f 	rsbvs	r6, r9, #12032	; 0x2f00
      a0:	632f6970 	teqvs	pc, #112, 18	; 0x1c0000
      a4:	30343173 	eorscc	r3, r4, r3, ror r1
      a8:	72732d65 	rsbsvc	r2, r3, #6464	; 0x1940
      ac:	752f0063 	strvc	r0, [pc, #-99]!	; 51 <_start-0x7faf>
      b0:	6c2f7273 	sfmvs	f7, 4, [pc], #-460	; fffffeec <__bss_end__+0xffff5aa4>
      b4:	6c61636f 	stclvs	3, cr6, [r1], #-444	; 0xfffffe44
      b8:	6c65432f 	stclvs	3, cr4, [r5], #-188	; 0xffffff44
      bc:	2f72616c 	svccs	0x0072616c
      c0:	2d6d7261 	sfmcs	f7, 2, [sp, #-388]!	; 0xfffffe7c
      c4:	656e6f6e 	strbvs	r6, [lr, #-3950]!	; 0xf6e
      c8:	6261652d 	rsbvs	r6, r1, #188743680	; 0xb400000
      cc:	2e342f69 	cdpcs	15, 3, cr2, cr4, cr9, {3}
      d0:	2d332e38 	ldccs	14, cr2, [r3, #-224]!	; 0xffffff20
      d4:	37317363 	ldrcc	r7, [r1, -r3, ror #6]!
      d8:	6c2f6530 	cfstr32vs	mvfx6, [pc], #-192	; 20 <_start-0x7fe0>
      dc:	672f6269 	strvs	r6, [pc, -r9, ror #4]!
      e0:	612f6363 	teqvs	pc, r3, ror #6
      e4:	6e2d6d72 	mcrvs	13, 1, r6, cr13, cr2, {3}
      e8:	2d656e6f 	stclcs	14, cr6, [r5, #-444]!	; 0xfffffe44
      ec:	69626165 	stmdbvs	r2!, {r0, r2, r5, r6, r8, sp, lr}^
      f0:	382e342f 	stmdacc	lr!, {r0, r1, r2, r3, r5, sl, ip, sp}
      f4:	692f332e 	stmdbvs	pc!, {r1, r2, r3, r5, r8, r9, ip, sp}	; <UNPREDICTABLE>
      f8:	756c636e 	strbvc	r6, [ip, #-878]!	; 0x36e
      fc:	00006564 	andeq	r6, r0, r4, ror #10
     100:	74736574 	ldrbtvc	r6, [r3], #-1396	; 0x574
     104:	6e65672d 	cdpvs	7, 6, cr6, cr5, cr13, {1}
     108:	0000632e 	andeq	r6, r0, lr, lsr #6
     10c:	70720000 	rsbsvc	r0, r2, r0
     110:	00682e69 	rsbeq	r2, r8, r9, ror #28
     114:	67000001 	strvs	r0, [r0, -r1]
     118:	2e6f6970 	mcrcs	9, 3, r6, cr15, cr0, {3}
     11c:	00020068 	andeq	r0, r2, r8, rrx
     120:	64747300 	ldrbtvs	r7, [r4], #-768	; 0x300
     124:	2d746e69 	ldclcs	14, cr6, [r4, #-420]!	; 0xfffffe5c
     128:	2e636367 	cdpcs	3, 6, cr6, cr3, cr7, {3}
     12c:	00030068 	andeq	r0, r3, r8, rrx
     130:	05000000 	streq	r0, [r0, #-0]
     134:	00801002 	addeq	r1, r0, r2
     138:	013f0300 	teqeq	pc, r0, lsl #6
     13c:	852e0f03 	strhi	r0, [lr, #-3843]!	; 0xf03
     140:	2d2f9f2f 	stccs	15, cr9, [pc, #-188]!	; 8c <_start-0x7f74>
     144:	2d2f8367 	stccs	3, cr8, [pc, #-412]!	; ffffffb0 <__bss_end__+0xffff5b68>
     148:	2d2f8367 	stccs	3, cr8, [pc, #-412]!	; ffffffb4 <__bss_end__+0xffff5b6c>
     14c:	2d2f8367 	stccs	3, cr8, [pc, #-412]!	; ffffffb8 <__bss_end__+0xffff5b70>
     150:	2d2f8367 	stccs	3, cr8, [pc, #-412]!	; ffffffbc <__bss_end__+0xffff5b74>
     154:	2d2f8367 	stccs	3, cr8, [pc, #-412]!	; ffffffc0 <__bss_end__+0xffff5b78>
     158:	2d2f8367 	stccs	3, cr8, [pc, #-412]!	; ffffffc4 <__bss_end__+0xffff5b7c>
     15c:	2d2f8367 	stccs	3, cr8, [pc, #-412]!	; ffffffc8 <__bss_end__+0xffff5b80>
     160:	2f2c8567 	svccs	0x002c8567
     164:	2f2f2f2f 	svccs	0x002f2f2f
     168:	084a0332 	stmdaeq	sl, {r1, r4, r5, r8, r9}^
     16c:	2f2d1390 	svccs	0x002d1390
     170:	30672f2f 	rsbcc	r2, r7, pc, lsr #30
     174:	01040200 	mrseq	r0, R12_usr
     178:	03440845 	movteq	r0, #18501	; 0x4845
     17c:	02002e0f 	andeq	r2, r0, #15, 28	; 0xf0
     180:	2e060104 	adfcss	f0, f6, f4
     184:	002f6906 	eoreq	r6, pc, r6, lsl #18
     188:	06010402 	streq	r0, [r1], -r2, lsl #8
     18c:	2f83062e 	svccs	0x0083062e
     190:	0402002d 	streq	r0, [r2], #-45	; 0x2d
     194:	2f836701 	svccs	0x00836701
     198:	0402002d 	streq	r0, [r2], #-45	; 0x2d
     19c:	2f836701 	svccs	0x00836701
     1a0:	0402002d 	streq	r0, [r2], #-45	; 0x2d
     1a4:	2f836701 	svccs	0x00836701
     1a8:	0402002d 	streq	r0, [r2], #-45	; 0x2d
     1ac:	2f836701 	svccs	0x00836701
     1b0:	0402002d 	streq	r0, [r2], #-45	; 0x2d
     1b4:	2f836701 	svccs	0x00836701
     1b8:	0402002d 	streq	r0, [r2], #-45	; 0x2d
     1bc:	2f836701 	svccs	0x00836701
     1c0:	0402002d 	streq	r0, [r2], #-45	; 0x2d
     1c4:	2f836701 	svccs	0x00836701
     1c8:	0402002d 	streq	r0, [r2], #-45	; 0x2d
     1cc:	2c856701 	stccs	7, cr6, [r5], {1}
     1d0:	2f2f2f2f 	svccs	0x002f2f2f
     1d4:	9308322f 	movwls	r3, #33327	; 0x822f
     1d8:	7fb30330 	svcvc	0x00b30330
     1dc:	0402002e 	streq	r0, [r2], #-46	; 0x2e
     1e0:	00e20301 	rsceq	r0, r2, r1, lsl #6
     1e4:	7f9903ba 	svcvc	0x009903ba
     1e8:	2e0b0382 	cdpcs	3, 0, cr0, cr11, cr2, {4}
     1ec:	332e7503 	teqcc	lr, #12582912	; 0xc00000
     1f0:	33293329 	teqcc	r9, #-1543503872	; 0xa4000000
     1f4:	01040200 	mrseq	r0, R12_usr
     1f8:	4a00e403 	bmi	3920c <__bss_end__+0x2edc4>
     1fc:	827f9703 	rsbshi	r9, pc, #786432	; 0xc0000
     200:	032e0b03 	teqeq	lr, #3072	; 0xc00
     204:	29332e75 	ldmdbcs	r3!, {r0, r2, r4, r5, r6, r9, sl, fp, sp}
     208:	00332933 	eorseq	r2, r3, r3, lsr r9
     20c:	03010402 	movweq	r0, #5122	; 0x1402
     210:	034a00e6 	movteq	r0, #41190	; 0xa0e6
     214:	03827f95 	orreq	r7, r2, #596	; 0x254
     218:	75032e0b 	strvc	r2, [r3, #-3595]	; 0xe0b
     21c:	3329332e 	teqcc	r9, #-1207959552	; 0xb8000000
     220:	02003329 	andeq	r3, r0, #-1543503872	; 0xa4000000
     224:	e8030104 	stmda	r3, {r2, r8}
     228:	93034a00 	movwls	r4, #14848	; 0x3a00
     22c:	0b03827f 	bleq	e0c30 <__bss_end__+0xd67e8>
     230:	2e75032e 	cdpcs	3, 7, cr0, cr5, cr14, {1}
     234:	29332933 	ldmdbcs	r3!, {r0, r1, r4, r5, r8, fp, sp}
     238:	04020033 	streq	r0, [r2], #-51	; 0x33
     23c:	00ea0301 	rsceq	r0, sl, r1, lsl #6
     240:	7f91034a 	svcvc	0x0091034a
     244:	2e0b0382 	cdpcs	3, 0, cr0, cr11, cr2, {4}
     248:	332e7503 	teqcc	lr, #12582912	; 0xc00000
     24c:	33453329 	movtcc	r3, #21289	; 0x5329
     250:	01040200 	mrseq	r0, R12_usr
     254:	4a00ec03 	bmi	3b268 <__bss_end__+0x30e20>
     258:	827f8f03 	rsbshi	r8, pc, #3, 30
     25c:	032e0b03 	teqeq	lr, #3072	; 0xc00
     260:	29332e75 	ldmdbcs	r3!, {r0, r2, r4, r5, r6, r9, sl, fp, sp}
     264:	00332933 	eorseq	r2, r3, r3, lsr r9
     268:	03010402 	movweq	r0, #5122	; 0x1402
     26c:	036600ee 	cmneq	r6, #238	; 0xee
     270:	03827f8d 	orreq	r7, r2, #564	; 0x234
     274:	75032e0b 	strvc	r2, [r3, #-3595]	; 0xe0b
     278:	3329332e 	teqcc	r9, #-1207959552	; 0xb8000000
     27c:	02003329 	andeq	r3, r0, #-1543503872	; 0xa4000000
     280:	f0030104 			; <UNDEFINED> instruction: 0xf0030104
     284:	96032e00 	strls	r2, [r3], -r0, lsl #28
     288:	7503827f 	strvc	r8, [r3, #-639]	; 0x27f
     28c:	33296b2e 	teqcc	r9, #47104	; 0xb800
     290:	02003329 	andeq	r3, r0, #-1543503872	; 0xa4000000
     294:	f2030104 	vrhadd.s8	d0, d3, d4
     298:	89032e00 	stmdbhi	r3, {r9, sl, fp, sp}
     29c:	0200827f 	andeq	r8, r0, #-268435449	; 0xf0000007
     2a0:	f9030104 			; <UNDEFINED> instruction: 0xf9030104
     2a4:	3183ba00 	orrcc	fp, r3, r0, lsl #20
     2a8:	31662903 	cmncc	r6, r3, lsl #18
     2ac:	d5034b4b 	strle	r4, [r3, #-2891]	; 0xb4b
     2b0:	ad032e7e 	stcge	14, cr2, [r3, #-504]	; 0xfffffe08
     2b4:	d3032e01 	movwle	r2, #15873	; 0x3e01
     2b8:	ad032e7e 	stcge	14, cr2, [r3, #-504]	; 0xfffffe08
     2bc:	4c2f6601 	stcmi	6, cr6, [pc], #-4	; 2c0 <_start-0x7d40>
     2c0:	4e825103 	rmfmis	f5, f2, f3
     2c4:	2b6b3480 	blcs	1acd4cc <__bss_end__+0x1ac3084>
     2c8:	78032f31 	stmdavc	r3, {r0, r4, r5, r8, r9, sl, fp, sp}
     2cc:	03293382 	teqeq	r9, #134217730	; 0x8000002
     2d0:	31862e0b 	orrcc	r2, r6, fp, lsl #28
     2d4:	4f2a322b 	svcmi	0x002a322b
     2d8:	7d30674c 	ldcvc	7, cr6, [r0, #-304]!	; 0xfffffed0
     2dc:	03362a32 	teqeq	r6, #204800	; 0x32000
     2e0:	0e026615 	mcreq	6, 0, r6, cr2, cr5, {0}
     2e4:	02010100 	andeq	r0, r1, #0, 2
     2e8:	02000001 	andeq	r0, r0, #1
     2ec:	0000eb00 	andeq	lr, r0, r0, lsl #22
     2f0:	fb010200 	blx	40afa <__bss_end__+0x366b2>
     2f4:	01000d0e 	tsteq	r0, lr, lsl #26
     2f8:	00010101 	andeq	r0, r1, r1, lsl #2
     2fc:	00010000 	andeq	r0, r1, r0
     300:	696c0100 	stmdbvs	ip!, {r8}^
     304:	2f006362 	svccs	0x00006362
     308:	2f727375 	svccs	0x00727375
     30c:	61636f6c 	cmnvs	r3, ip, ror #30
     310:	65432f6c 	strbvs	r2, [r3, #-3948]	; 0xf6c
     314:	72616c6c 	rsbvc	r6, r1, #108, 24	; 0x6c00
     318:	6d72612f 	ldfvse	f6, [r2, #-188]!	; 0xffffff44
     31c:	6e6f6e2d 	cdpvs	14, 6, cr6, cr15, cr13, {1}
     320:	61652d65 	cmnvs	r5, r5, ror #26
     324:	342f6962 	strtcc	r6, [pc], #-2402	; 32c <_start-0x7cd4>
     328:	332e382e 	teqcc	lr, #3014656	; 0x2e0000
     32c:	3173632d 	cmncc	r3, sp, lsr #6
     330:	2f653037 	svccs	0x00653037
     334:	2f62696c 	svccs	0x0062696c
     338:	2f636367 	svccs	0x00636367
     33c:	2d6d7261 	sfmcs	f7, 2, [sp, #-388]!	; 0xfffffe7c
     340:	656e6f6e 	strbvs	r6, [lr, #-3950]!	; 0xf6e
     344:	6261652d 	rsbvs	r6, r1, #188743680	; 0xb400000
     348:	2e342f69 	cdpcs	15, 3, cr2, cr4, cr9, {3}
     34c:	2f332e38 	svccs	0x00332e38
     350:	6c636e69 	stclvs	14, cr6, [r3], #-420	; 0xfffffe5c
     354:	00656475 	rsbeq	r6, r5, r5, ror r4
     358:	6573552f 	ldrbvs	r5, [r3, #-1327]!	; 0x52f
     35c:	622f7372 	eorvs	r7, pc, #-939524095	; 0xc8000001
     360:	6e616972 	mcrvs	9, 3, r6, cr1, cr2, {3}
     364:	2f6e756a 	svccs	0x006e756a
     368:	6b736544 	blvs	1cd9880 <__bss_end__+0x1ccf438>
     36c:	2f706f74 	svccs	0x00706f74
     370:	6f686373 	svcvs	0x00686373
     374:	572f6c6f 	strpl	r6, [pc, -pc, ror #24]!
     378:	65746e69 	ldrbvs	r6, [r4, #-3689]!	; 0xe69
     37c:	32393172 	eorscc	r3, r9, #-2147483620	; 0x8000001c
     380:	53432f30 	movtpl	r2, #16176	; 0x3f30
     384:	45303431 	ldrmi	r3, [r0, #-1073]!	; 0x431
     388:	3173632f 	cmncc	r3, pc, lsr #6
     38c:	2d653034 	stclcs	0, cr3, [r5, #-208]!	; 0xffffff30
     390:	69773032 	ldmdbvs	r7!, {r1, r4, r5, ip, sp}^
     394:	696c2f6e 	stmdbvs	ip!, {r1, r2, r3, r5, r6, r8, r9, sl, fp, sp}^
     398:	00697062 	rsbeq	r7, r9, r2, rrx
     39c:	69727000 	ldmdbvs	r2!, {ip, sp, lr}^
     3a0:	2e6b746e 	cdpcs	4, 6, cr7, cr11, cr14, {3}
     3a4:	00010063 	andeq	r0, r1, r3, rrx
     3a8:	64747300 	ldrbtvs	r7, [r4], #-768	; 0x300
     3ac:	2e677261 	cdpcs	2, 6, cr7, cr7, cr1, {3}
     3b0:	00020068 	andeq	r0, r2, r8, rrx
     3b4:	75623c00 	strbvc	r3, [r2, #-3072]!	; 0xc00
     3b8:	2d746c69 	ldclcs	12, cr6, [r4, #-420]!	; 0xfffffe5c
     3bc:	003e6e69 	eorseq	r6, lr, r9, ror #28
     3c0:	72000000 	andvc	r0, r0, #0
     3c4:	682e6970 	stmdavs	lr!, {r4, r5, r6, r8, fp, sp, lr}
     3c8:	00000300 	andeq	r0, r0, r0, lsl #6
     3cc:	702d6176 	eorvc	r6, sp, r6, ror r1
     3d0:	746e6972 	strbtvc	r6, [lr], #-2418	; 0x972
     3d4:	00682e6b 	rsbeq	r2, r8, fp, ror #28
     3d8:	00000001 	andeq	r0, r0, r1
     3dc:	c0020500 	andgt	r0, r2, r0, lsl #10
     3e0:	17000086 	strne	r0, [r0, -r6, lsl #1]
     3e4:	89bf4b6b 	ldmibhi	pc!, {r0, r1, r3, r5, r6, r8, r9, fp, lr}	; <UNPREDICTABLE>
     3e8:	01000e02 	tsteq	r0, r2, lsl #28
     3ec:	00008a01 	andeq	r8, r0, r1, lsl #20
     3f0:	72000200 	andvc	r0, r0, #0, 4
     3f4:	02000000 	andeq	r0, r0, #0
     3f8:	0d0efb01 	vstreq	d15, [lr, #-4]
     3fc:	01010100 	mrseq	r0, (UNDEF: 17)
     400:	00000001 	andeq	r0, r0, r1
     404:	01000001 	tsteq	r0, r1
     408:	6362696c 	cmnvs	r2, #108, 18	; 0x1b0000
     40c:	73552f00 	cmpvc	r5, #0, 30
     410:	2f737265 	svccs	0x00737265
     414:	61697262 	cmnvs	r9, r2, ror #4
     418:	6e756a6e 	vsubvs.f32	s13, s10, s29
     41c:	7365442f 	cmnvc	r5, #788529152	; 0x2f000000
     420:	706f746b 	rsbvc	r7, pc, fp, ror #8
     424:	6863732f 	stmdavs	r3!, {r0, r1, r2, r3, r5, r8, r9, ip, sp, lr}^
     428:	2f6c6f6f 	svccs	0x006c6f6f
     42c:	746e6957 	strbtvc	r6, [lr], #-2391	; 0x957
     430:	39317265 	ldmdbcc	r1!, {r0, r2, r5, r6, r9, ip, sp, lr}
     434:	432f3032 	teqmi	pc, #50	; 0x32
     438:	30343153 	eorscc	r3, r4, r3, asr r1
     43c:	73632f45 	cmnvc	r3, #276	; 0x114
     440:	65303431 	ldrvs	r3, [r0, #-1073]!	; 0x431
     444:	7730322d 	ldrvc	r3, [r0, -sp, lsr #4]!
     448:	6c2f6e69 	stcvs	14, cr6, [pc], #-420	; 2ac <_start-0x7d54>
     44c:	69706269 	ldmdbvs	r0!, {r0, r3, r5, r6, r9, sp, lr}^
     450:	75700000 	ldrbvc	r0, [r0, #-0]!
     454:	61686374 	smcvs	34356	; 0x8634
     458:	00632e72 	rsbeq	r2, r3, r2, ror lr
     45c:	72000001 	andvc	r0, r0, #1
     460:	682e6970 	stmdavs	lr!, {r4, r5, r6, r8, fp, sp, lr}
     464:	00000200 	andeq	r0, r0, r0, lsl #4
     468:	02050000 	andeq	r0, r5, #0
     46c:	00008718 	andeq	r8, r0, r8, lsl r7
     470:	136b4a14 	cmnne	fp, #20, 20	; 0x14000
     474:	080213bc 	stmdaeq	r2, {r2, r3, r4, r5, r7, r8, r9, ip}
     478:	96010100 	strls	r0, [r1], -r0, lsl #2
     47c:	02000000 	andeq	r0, r0, #0
     480:	00006f00 	andeq	r6, r0, r0, lsl #30
     484:	fb010200 	blx	40c8e <__bss_end__+0x36846>
     488:	01000d0e 	tsteq	r0, lr, lsl #26
     48c:	00010101 	andeq	r0, r1, r1, lsl #2
     490:	00010000 	andeq	r0, r1, r0
     494:	696c0100 	stmdbvs	ip!, {r8}^
     498:	2f006362 	svccs	0x00006362
     49c:	72657355 	rsbvc	r7, r5, #1409286145	; 0x54000001
     4a0:	72622f73 	rsbvc	r2, r2, #460	; 0x1cc
     4a4:	6a6e6169 	bvs	1b98a50 <__bss_end__+0x1b8e608>
     4a8:	442f6e75 	strtmi	r6, [pc], #-3701	; 4b0 <_start-0x7b50>
     4ac:	746b7365 	strbtvc	r7, [fp], #-869	; 0x365
     4b0:	732f706f 	teqvc	pc, #111	; 0x6f
     4b4:	6f6f6863 	svcvs	0x006f6863
     4b8:	69572f6c 	ldmdbvs	r7, {r2, r3, r5, r6, r8, r9, sl, fp, sp}^
     4bc:	7265746e 	rsbvc	r7, r5, #1845493760	; 0x6e000000
     4c0:	30323931 	eorscc	r3, r2, r1, lsr r9
     4c4:	3153432f 	cmpcc	r3, pc, lsr #6
     4c8:	2f453034 	svccs	0x00453034
     4cc:	34317363 	ldrtcc	r7, [r1], #-867	; 0x363
     4d0:	322d6530 	eorcc	r6, sp, #48, 10	; 0xc000000
     4d4:	6e697730 	mcrvs	7, 3, r7, cr9, cr0, {1}
     4d8:	62696c2f 	rsbvs	r6, r9, #12032	; 0x2f00
     4dc:	00006970 	andeq	r6, r0, r0, ror r9
     4e0:	6b747570 	blvs	1d1daa8 <__bss_end__+0x1d13660>
     4e4:	0100632e 	tsteq	r0, lr, lsr #6
     4e8:	70720000 	rsbsvc	r0, r2, r0
     4ec:	00682e69 	rsbeq	r2, r8, r9, ror #28
     4f0:	00000002 	andeq	r0, r0, r2
     4f4:	54020500 	strpl	r0, [r2], #-1280	; 0x500
     4f8:	15000087 	strne	r0, [r0, #-135]	; 0x87
     4fc:	02002d4c 	andeq	r2, r0, #76, 26	; 0x1300
     500:	002f0204 	eoreq	r0, pc, r4, lsl #4
     504:	49020402 	stmdbmi	r2, {r1, sl}
     508:	01040200 	mrseq	r0, R12_usr
     50c:	6b062e06 	blvs	18bd2c <__bss_end__+0x1818e4>
     510:	01000602 	tsteq	r0, r2, lsl #12
     514:	0001e201 	andeq	lr, r1, r1, lsl #4
     518:	df000200 	svcle	0x00000200
     51c:	02000000 	andeq	r0, r0, #0
     520:	0d0efb01 	vstreq	d15, [lr, #-4]
     524:	01010100 	mrseq	r0, (UNDEF: 17)
     528:	00000001 	andeq	r0, r0, r1
     52c:	01000001 	tsteq	r0, r1
     530:	6362696c 	cmnvs	r2, #108, 18	; 0x1b0000
     534:	73752f00 	cmnvc	r5, #0, 30
     538:	6f6c2f72 	svcvs	0x006c2f72
     53c:	2f6c6163 	svccs	0x006c6163
     540:	6c6c6543 	cfstr64vs	mvdx6, [ip], #-268	; 0xfffffef4
     544:	612f7261 	teqvs	pc, r1, ror #4
     548:	6e2d6d72 	mcrvs	13, 1, r6, cr13, cr2, {3}
     54c:	2d656e6f 	stclcs	14, cr6, [r5, #-444]!	; 0xfffffe44
     550:	69626165 	stmdbvs	r2!, {r0, r2, r5, r6, r8, sp, lr}^
     554:	382e342f 	stmdacc	lr!, {r0, r1, r2, r3, r5, sl, ip, sp}
     558:	632d332e 	teqvs	sp, #-1207959552	; 0xb8000000
     55c:	30373173 	eorscc	r3, r7, r3, ror r1
     560:	696c2f65 	stmdbvs	ip!, {r0, r2, r5, r6, r8, r9, sl, fp, sp}^
     564:	63672f62 	cmnvs	r7, #392	; 0x188
     568:	72612f63 	rsbvc	r2, r1, #396	; 0x18c
     56c:	6f6e2d6d 	svcvs	0x006e2d6d
     570:	652d656e 	strvs	r6, [sp, #-1390]!	; 0x56e
     574:	2f696261 	svccs	0x00696261
     578:	2e382e34 	mrccs	14, 1, r2, cr8, cr4, {1}
     57c:	6e692f33 	mcrvs	15, 3, r2, cr9, cr3, {1}
     580:	64756c63 	ldrbtvs	r6, [r5], #-3171	; 0xc63
     584:	552f0065 	strpl	r0, [pc, #-101]!	; 527 <_start-0x7ad9>
     588:	73726573 	cmnvc	r2, #482344960	; 0x1cc00000
     58c:	6972622f 	ldmdbvs	r2!, {r0, r1, r2, r3, r5, r9, sp, lr}^
     590:	756a6e61 	strbvc	r6, [sl, #-3681]!	; 0xe61
     594:	65442f6e 	strbvs	r2, [r4, #-3950]	; 0xf6e
     598:	6f746b73 	svcvs	0x00746b73
     59c:	63732f70 	cmnvs	r3, #112, 30	; 0x1c0
     5a0:	6c6f6f68 	stclvs	15, cr6, [pc], #-416	; 408 <_start-0x7bf8>
     5a4:	6e69572f 	cdpvs	7, 6, cr5, cr9, cr15, {1}
     5a8:	31726574 	cmncc	r2, r4, ror r5
     5ac:	2f303239 	svccs	0x00303239
     5b0:	34315343 	ldrtcc	r5, [r1], #-835	; 0x343
     5b4:	632f4530 	teqvs	pc, #48, 10	; 0xc000000
     5b8:	30343173 	eorscc	r3, r4, r3, ror r1
     5bc:	30322d65 	eorscc	r2, r2, r5, ror #26
     5c0:	2f6e6977 	svccs	0x006e6977
     5c4:	7062696c 	rsbvc	r6, r2, ip, ror #18
     5c8:	76000069 	strvc	r0, [r0], -r9, rrx
     5cc:	72702d61 	rsbsvc	r2, r0, #6208	; 0x1840
     5d0:	6b746e69 	blvs	1d1bf7c <__bss_end__+0x1d11b34>
     5d4:	0100632e 	tsteq	r0, lr, lsr #6
     5d8:	74730000 	ldrbtvc	r0, [r3], #-0
     5dc:	67726164 	ldrbvs	r6, [r2, -r4, ror #2]!
     5e0:	0200682e 	andeq	r6, r0, #3014656	; 0x2e0000
     5e4:	70720000 	rsbsvc	r0, r2, r0
     5e8:	00682e69 	rsbeq	r2, r8, r9, ror #28
     5ec:	3c000003 	stccc	0, cr0, [r0], {3}
     5f0:	6c697562 	cfstr64vs	mvdx7, [r9], #-392	; 0xfffffe78
     5f4:	6e692d74 	mcrvs	13, 3, r2, cr9, cr4, {3}
     5f8:	0000003e 	andeq	r0, r0, lr, lsr r0
     5fc:	05000000 	streq	r0, [r0, #-0]
     600:	00878802 	addeq	r8, r7, r2, lsl #16
     604:	01260300 	teqeq	r6, r0, lsl #6
     608:	3113a501 	tstcc	r3, r1, lsl #10
     60c:	0402002d 	streq	r0, [r2], #-45	; 0x2d
     610:	02002f02 	andeq	r2, r0, #2, 30
     614:	002d0204 	eoreq	r0, sp, r4, lsl #4
     618:	2f020402 	svccs	0x00020402
     61c:	01040200 	mrseq	r0, R12_usr
     620:	304c4c2d 	subcc	r4, ip, sp, lsr #24
     624:	4f2f4b14 	svcmi	0x002f4b14
     628:	02040200 	andeq	r0, r4, #0, 4
     62c:	04020067 	streq	r0, [r2], #-103	; 0x67
     630:	4d4c6501 	cfstr64mi	mvdx6, [ip, #-4]
     634:	312fa030 	teqcc	pc, r0, lsr r0	; <UNPREDICTABLE>
     638:	16260230 			; <UNDEFINED> instruction: 0x16260230
     63c:	002c2d84 	eoreq	r2, ip, r4, lsl #27
     640:	30010402 	andcc	r0, r1, r2, lsl #8
     644:	01040200 	mrseq	r0, R12_usr
     648:	00660633 	rsbeq	r0, r6, r3, lsr r6
     64c:	2e010402 	cdpcs	4, 0, cr0, cr1, cr2, {0}
     650:	01040200 	mrseq	r0, R12_usr
     654:	67210806 	strvs	r0, [r1, -r6, lsl #16]!
     658:	8273032f 	rsbshi	r0, r3, #-1140850688	; 0xbc000000
     65c:	002e1303 	eoreq	r1, lr, r3, lsl #6
     660:	06010402 	streq	r0, [r1], -r2, lsl #8
     664:	0402002e 	streq	r0, [r2], #-46	; 0x2e
     668:	6a9f0601 	bvs	fe7c1e74 <__bss_end__+0xfe7b7a2c>
     66c:	2e67034b 	cdpcs	3, 6, cr0, cr7, cr11, {2}
     670:	002e2103 	eoreq	r2, lr, r3, lsl #2
     674:	06010402 	streq	r0, [r1], -r2, lsl #8
     678:	0402002e 	streq	r0, [r2], #-46	; 0x2e
     67c:	009f0601 	addseq	r0, pc, r1, lsl #12
     680:	6a010402 	bvs	41690 <__bss_end__+0x37248>
     684:	03f32308 	mvnseq	r2, #8, 6	; 0x20000000
     688:	3c087fa6 	stccc	15, cr7, [r8], {166}	; 0xa6
     68c:	0402004b 	streq	r0, [r2], #-75	; 0x4b
     690:	064a0601 	strbeq	r0, [sl], -r1, lsl #12
     694:	2f4b2108 	svccs	0x004b2108
     698:	00d9034b 	sbcseq	r0, r9, fp, asr #6
     69c:	484c83f2 	stmdami	ip, {r1, r4, r5, r6, r7, r8, r9, pc}^
     6a0:	032e0e03 	teqeq	lr, #3, 28	; 0x30
     6a4:	2f2f2e75 	svccs	0x002f2e75
     6a8:	2d2f4b84 	vstmdbcs	pc!, {d4-d5}
     6ac:	2f30314d 	svccs	0x0030314d
     6b0:	04020083 	streq	r0, [r2], #-131	; 0x83
     6b4:	00a22c01 	adceq	r2, r2, r1, lsl #24
     6b8:	06010402 	streq	r0, [r1], -r2, lsl #8
     6bc:	2208064a 	andcs	r0, r8, #77594624	; 0x4a00000
     6c0:	03163602 	tsteq	r6, #2097152	; 0x200000
     6c4:	2108d60e 	tstcs	r8, lr, lsl #12
     6c8:	f331f330 	vcge.u<illegal width 64>	d15, d1, d16
     6cc:	4b30f330 	blmi	c3d394 <__bss_end__+0xc32f4c>
     6d0:	0830f330 	ldmdaeq	r0!, {r4, r5, r8, r9, ip, sp, lr, pc}
     6d4:	002f3123 	eoreq	r3, pc, r3, lsr #2
     6d8:	65010402 	strvs	r0, [r1, #-1026]	; 0x402
     6dc:	02040200 	andeq	r0, r4, #0, 4
     6e0:	02004a06 	andeq	r4, r0, #24576	; 0x6000
     6e4:	03060104 	movweq	r0, #24836	; 0x6104
     6e8:	02006642 	andeq	r6, r0, #69206016	; 0x4200000
     6ec:	66060204 	strvs	r0, [r6], -r4, lsl #4
     6f0:	00c20306 	sbceq	r0, r2, r6, lsl #6
     6f4:	1202684a 	andne	r6, r2, #4849664	; 0x4a0000
     6f8:	43010100 	movwmi	r0, #4352	; 0x1100
     6fc:	02000000 	andeq	r0, r0, #0
     700:	00002900 	andeq	r2, r0, r0, lsl #18
     704:	fb010200 	blx	40f0e <__bss_end__+0x36ac6>
     708:	01000d0e 	tsteq	r0, lr, lsl #26
     70c:	00010101 	andeq	r0, r1, r1, lsl #2
     710:	00010000 	andeq	r0, r1, r0
     714:	73630100 	cmnvc	r3, #0, 2
     718:	65303431 	ldrvs	r3, [r0, #-1073]!	; 0x431
     71c:	6372732d 	cmnvs	r2, #-1275068416	; 0xb4000000
     720:	61630000 	cmnvs	r3, r0
     724:	2e656863 	cdpcs	8, 6, cr6, cr5, cr3, {3}
     728:	00010063 	andeq	r0, r1, r3, rrx
     72c:	05000000 	streq	r0, [r0, #-0]
     730:	008cac02 	addeq	sl, ip, r2, lsl #24
     734:	30141400 	andscc	r1, r4, r0, lsl #8
     738:	31144e2f 	tstcc	r4, pc, lsr #28
     73c:	0004022f 	andeq	r0, r4, pc, lsr #4
     740:	00930101 	addseq	r0, r3, r1, lsl #2
     744:	00020000 	andeq	r0, r2, r0
     748:	0000007d 	andeq	r0, r0, sp, ror r0
     74c:	0efb0102 	cdpeq	1, 15, cr0, cr11, cr2, {0}
     750:	0101000d 	tsteq	r1, sp
     754:	00000101 	andeq	r0, r0, r1, lsl #2
     758:	00000100 	andeq	r0, r0, r0, lsl #2
     75c:	31736301 	cmncc	r3, r1, lsl #6
     760:	2d653034 	stclcs	0, cr3, [r5, #-208]!	; 0xffffff30
     764:	00637273 	rsbeq	r7, r3, r3, ror r2
     768:	6573552f 	ldrbvs	r5, [r3, #-1327]!	; 0x52f
     76c:	622f7372 	eorvs	r7, pc, #-939524095	; 0xc8000001
     770:	6e616972 	mcrvs	9, 3, r6, cr1, cr2, {3}
     774:	2f6e756a 	svccs	0x006e756a
     778:	6b736544 	blvs	1cd9c90 <__bss_end__+0x1ccf848>
     77c:	2f706f74 	svccs	0x00706f74
     780:	6f686373 	svcvs	0x00686373
     784:	572f6c6f 	strpl	r6, [pc, -pc, ror #24]!
     788:	65746e69 	ldrbvs	r6, [r4, #-3689]!	; 0xe69
     78c:	32393172 	eorscc	r3, r9, #-2147483620	; 0x8000001c
     790:	53432f30 	movtpl	r2, #16176	; 0x3f30
     794:	45303431 	ldrmi	r3, [r0, #-1073]!	; 0x431
     798:	3173632f 	cmncc	r3, pc, lsr #6
     79c:	2d653034 	stclcs	0, cr3, [r5, #-208]!	; 0xffffff30
     7a0:	69773032 	ldmdbvs	r7!, {r1, r4, r5, ip, sp}^
     7a4:	696c2f6e 	stmdbvs	ip!, {r1, r2, r3, r5, r6, r8, r9, sl, fp, sp}^
     7a8:	00697062 	rsbeq	r7, r9, r2, rrx
     7ac:	656c6300 	strbvs	r6, [ip, #-768]!	; 0x300
     7b0:	722d6e61 	eorvc	r6, sp, #1552	; 0x610
     7b4:	6f6f6265 	svcvs	0x006f6265
     7b8:	00632e74 	rsbeq	r2, r3, r4, ror lr
     7bc:	72000001 	andvc	r0, r0, #1
     7c0:	682e6970 	stmdavs	lr!, {r4, r5, r6, r8, fp, sp, lr}
     7c4:	00000200 	andeq	r0, r0, r0, lsl #4
     7c8:	02050000 	andeq	r0, r5, #0
     7cc:	00008ccc 	andeq	r8, r0, ip, asr #25
     7d0:	4b832f15 	blmi	fe0cc42c <__bss_end__+0xfe0c1fe4>
     7d4:	01000602 	tsteq	r0, r2, lsl #12
     7d8:	00012101 	andeq	r2, r1, r1, lsl #2
     7dc:	f8000200 			; <UNDEFINED> instruction: 0xf8000200
     7e0:	02000000 	andeq	r0, r0, #0
     7e4:	0d0efb01 	vstreq	d15, [lr, #-4]
     7e8:	01010100 	mrseq	r0, (UNDEF: 17)
     7ec:	00000001 	andeq	r0, r0, r1
     7f0:	01000001 	tsteq	r0, r1
     7f4:	34317363 	ldrtcc	r7, [r1], #-867	; 0x363
     7f8:	732d6530 	teqvc	sp, #48, 10	; 0xc000000
     7fc:	2f006372 	svccs	0x00006372
     800:	2f727375 	svccs	0x00727375
     804:	61636f6c 	cmnvs	r3, ip, ror #30
     808:	65432f6c 	strbvs	r2, [r3, #-3948]	; 0xf6c
     80c:	72616c6c 	rsbvc	r6, r1, #108, 24	; 0x6c00
     810:	6d72612f 	ldfvse	f6, [r2, #-188]!	; 0xffffff44
     814:	6e6f6e2d 	cdpvs	14, 6, cr6, cr15, cr13, {1}
     818:	61652d65 	cmnvs	r5, r5, ror #26
     81c:	342f6962 	strtcc	r6, [pc], #-2402	; 824 <_start-0x77dc>
     820:	332e382e 	teqcc	lr, #3014656	; 0x2e0000
     824:	3173632d 	cmncc	r3, sp, lsr #6
     828:	2f653037 	svccs	0x00653037
     82c:	2f62696c 	svccs	0x0062696c
     830:	2f636367 	svccs	0x00636367
     834:	2d6d7261 	sfmcs	f7, 2, [sp, #-388]!	; 0xfffffe7c
     838:	656e6f6e 	strbvs	r6, [lr, #-3950]!	; 0xf6e
     83c:	6261652d 	rsbvs	r6, r1, #188743680	; 0xb400000
     840:	2e342f69 	cdpcs	15, 3, cr2, cr4, cr9, {3}
     844:	2f332e38 	svccs	0x00332e38
     848:	6c636e69 	stclvs	14, cr6, [r3], #-420	; 0xfffffe5c
     84c:	00656475 	rsbeq	r6, r5, r5, ror r4
     850:	6573552f 	ldrbvs	r5, [r3, #-1327]!	; 0x52f
     854:	622f7372 	eorvs	r7, pc, #-939524095	; 0xc8000001
     858:	6e616972 	mcrvs	9, 3, r6, cr1, cr2, {3}
     85c:	2f6e756a 	svccs	0x006e756a
     860:	6b736544 	blvs	1cd9d78 <__bss_end__+0x1ccf930>
     864:	2f706f74 	svccs	0x00706f74
     868:	6f686373 	svcvs	0x00686373
     86c:	572f6c6f 	strpl	r6, [pc, -pc, ror #24]!
     870:	65746e69 	ldrbvs	r6, [r4, #-3689]!	; 0xe69
     874:	32393172 	eorscc	r3, r9, #-2147483620	; 0x8000001c
     878:	53432f30 	movtpl	r2, #16176	; 0x3f30
     87c:	45303431 	ldrmi	r3, [r0, #-1073]!	; 0x431
     880:	3173632f 	cmncc	r3, pc, lsr #6
     884:	2d653034 	stclcs	0, cr3, [r5, #-208]!	; 0xffffff30
     888:	69773032 	ldmdbvs	r7!, {r1, r4, r5, ip, sp}^
     88c:	696c2f6e 	stmdbvs	ip!, {r1, r2, r3, r5, r6, r8, r9, sl, fp, sp}^
     890:	00697062 	rsbeq	r7, r9, r2, rrx
     894:	74736300 	ldrbtvc	r6, [r3], #-768	; 0x300
     898:	2e747261 	cdpcs	2, 7, cr7, cr4, cr1, {3}
     89c:	00010063 	andeq	r0, r1, r3, rrx
     8a0:	64747300 	ldrbtvs	r7, [r4], #-768	; 0x300
     8a4:	2d746e69 	ldclcs	14, cr6, [r4, #-420]!	; 0xfffffe5c
     8a8:	2e636367 	cdpcs	3, 6, cr6, cr3, cr7, {3}
     8ac:	00020068 	andeq	r0, r2, r8, rrx
     8b0:	2d777300 	ldclcs	3, cr7, [r7, #-0]
     8b4:	74726175 	ldrbtvc	r6, [r2], #-373	; 0x175
     8b8:	0100682e 	tsteq	r0, lr, lsr #16
     8bc:	6f630000 	svcvs	0x00630000
     8c0:	6f72746e 	svcvs	0x0072746e
     8c4:	6c622d6c 	stclvs	13, cr2, [r2], #-432	; 0xfffffe50
     8c8:	2e6b636f 	cdpcs	3, 6, cr6, cr11, cr15, {3}
     8cc:	00010068 	andeq	r0, r1, r8, rrx
     8d0:	69707200 	ldmdbvs	r0!, {r9, ip, sp, lr}^
     8d4:	0300682e 	movweq	r6, #2094	; 0x82e
     8d8:	00000000 	andeq	r0, r0, r0
     8dc:	8cf40205 	lfmhi	f0, 2, [r4], #20
     8e0:	4b170000 	blmi	5c08e8 <__bss_end__+0x5b64a0>
     8e4:	31326868 	teqcc	r2, r8, ror #16
     8e8:	002f2d2f 	eoreq	r2, pc, pc, lsr #26
     8ec:	49010402 	stmdbmi	r1, {r1, sl}
     8f0:	674b2f4f 	strbvs	r2, [fp, -pc, asr #30]
     8f4:	4e678367 	cdpmi	3, 6, cr8, cr7, cr7, {3}
     8f8:	0010022f 	andseq	r0, r0, pc, lsr #4
     8fc:	00990101 	addseq	r0, r9, r1, lsl #2
     900:	00020000 	andeq	r0, r2, r0
     904:	00000077 	andeq	r0, r0, r7, ror r0
     908:	0efb0102 	cdpeq	1, 15, cr0, cr11, cr2, {0}
     90c:	0101000d 	tsteq	r1, sp
     910:	00000101 	andeq	r0, r0, r1, lsl #2
     914:	00000100 	andeq	r0, r0, r0, lsl #2
     918:	31736301 	cmncc	r3, r1, lsl #6
     91c:	2d653034 	stclcs	0, cr3, [r5, #-208]!	; 0xffffff30
     920:	00637273 	rsbeq	r7, r3, r3, ror r2
     924:	6573552f 	ldrbvs	r5, [r3, #-1327]!	; 0x52f
     928:	622f7372 	eorvs	r7, pc, #-939524095	; 0xc8000001
     92c:	6e616972 	mcrvs	9, 3, r6, cr1, cr2, {3}
     930:	2f6e756a 	svccs	0x006e756a
     934:	6b736544 	blvs	1cd9e4c <__bss_end__+0x1ccfa04>
     938:	2f706f74 	svccs	0x00706f74
     93c:	6f686373 	svcvs	0x00686373
     940:	572f6c6f 	strpl	r6, [pc, -pc, ror #24]!
     944:	65746e69 	ldrbvs	r6, [r4, #-3689]!	; 0xe69
     948:	32393172 	eorscc	r3, r9, #-2147483620	; 0x8000001c
     94c:	53432f30 	movtpl	r2, #16176	; 0x3f30
     950:	45303431 	ldrmi	r3, [r0, #-1073]!	; 0x431
     954:	3173632f 	cmncc	r3, pc, lsr #6
     958:	2d653034 	stclcs	0, cr3, [r5, #-208]!	; 0xffffff30
     95c:	69773032 	ldmdbvs	r7!, {r1, r4, r5, ip, sp}^
     960:	696c2f6e 	stmdbvs	ip!, {r1, r2, r3, r5, r6, r8, r9, sl, fp, sp}^
     964:	00697062 	rsbeq	r7, r9, r2, rrx
     968:	62657200 	rsbvs	r7, r5, #0, 4
     96c:	2e746f6f 	cdpcs	15, 7, cr6, cr4, cr15, {3}
     970:	00010063 	andeq	r0, r1, r3, rrx
     974:	69707200 	ldmdbvs	r0!, {r9, ip, sp, lr}^
     978:	0200682e 	andeq	r6, r0, #3014656	; 0x2e0000
     97c:	00000000 	andeq	r0, r0, r0
     980:	8da40205 	sfmhi	f0, 4, [r4, #20]!
     984:	0d030000 	stceq	0, cr0, [r3, #-0]
     988:	2f311401 	svccs	0x00311401
     98c:	4b2f1585 	blmi	bc5fa8 <__bss_end__+0xbbbb60>
     990:	35672f4d 	strbcc	r2, [r7, #-3917]!	; 0xf4d
     994:	10026752 	andne	r6, r2, r2, asr r7
     998:	a3010100 	movwge	r0, #4352	; 0x1100
     99c:	02000000 	andeq	r0, r0, #0
     9a0:	00007600 	andeq	r7, r0, r0, lsl #12
     9a4:	fb010200 	blx	411ae <__bss_end__+0x36d66>
     9a8:	01000d0e 	tsteq	r0, lr, lsl #26
     9ac:	00010101 	andeq	r0, r1, r1, lsl #2
     9b0:	00010000 	andeq	r0, r1, r0
     9b4:	73630100 	cmnvc	r3, #0, 2
     9b8:	65303431 	ldrvs	r3, [r0, #-1073]!	; 0x431
     9bc:	6372732d 	cmnvs	r2, #-1275068416	; 0xb4000000
     9c0:	73552f00 	cmpvc	r5, #0, 30
     9c4:	2f737265 	svccs	0x00737265
     9c8:	61697262 	cmnvs	r9, r2, ror #4
     9cc:	6e756a6e 	vsubvs.f32	s13, s10, s29
     9d0:	7365442f 	cmnvc	r5, #788529152	; 0x2f000000
     9d4:	706f746b 	rsbvc	r7, pc, fp, ror #8
     9d8:	6863732f 	stmdavs	r3!, {r0, r1, r2, r3, r5, r8, r9, ip, sp, lr}^
     9dc:	2f6c6f6f 	svccs	0x006c6f6f
     9e0:	746e6957 	strbtvc	r6, [lr], #-2391	; 0x957
     9e4:	39317265 	ldmdbcc	r1!, {r0, r2, r5, r6, r9, ip, sp, lr}
     9e8:	432f3032 	teqmi	pc, #50	; 0x32
     9ec:	30343153 	eorscc	r3, r4, r3, asr r1
     9f0:	73632f45 	cmnvc	r3, #276	; 0x114
     9f4:	65303431 	ldrvs	r3, [r0, #-1073]!	; 0x431
     9f8:	7730322d 	ldrvc	r3, [r0, -sp, lsr #4]!
     9fc:	6c2f6e69 	stcvs	14, cr6, [pc], #-420	; 860 <_start-0x77a0>
     a00:	69706269 	ldmdbvs	r0!, {r0, r3, r5, r6, r9, sp, lr}^
     a04:	69740000 	ldmdbvs	r4!, {}^	; <UNPREDICTABLE>
     a08:	2e72656d 	cdpcs	5, 7, cr6, cr2, cr13, {3}
     a0c:	00010063 	andeq	r0, r1, r3, rrx
     a10:	69707200 	ldmdbvs	r0!, {r9, ip, sp, lr}^
     a14:	0200682e 	andeq	r6, r0, #3014656	; 0x2e0000
     a18:	00000000 	andeq	r0, r0, r0
     a1c:	8e180205 	cdphi	2, 1, cr0, cr8, cr5, {0}
     a20:	13160000 	tstne	r6, #0
     a24:	02002d2f 	andeq	r2, r0, #3008	; 0xbc0
     a28:	2e060104 	adfcss	f0, f6, f4
     a2c:	2f316806 	svccs	0x00316806
     a30:	31324d4b 	teqcc	r2, fp, asr #26
     a34:	2f4c4b30 	svccs	0x004c4b30
     a38:	842f2f6a 	strthi	r2, [pc], #-3946	; a40 <_start-0x75c0>
     a3c:	0008022f 	andeq	r0, r8, pc, lsr #4
     a40:	017f0101 	cmneq	pc, r1, lsl #2
     a44:	00020000 	andeq	r0, r2, r0
     a48:	000000ca 	andeq	r0, r0, sl, asr #1
     a4c:	0efb0102 	cdpeq	1, 15, cr0, cr11, cr2, {0}
     a50:	0101000d 	tsteq	r1, sp
     a54:	00000101 	andeq	r0, r0, r1, lsl #2
     a58:	00000100 	andeq	r0, r0, r0, lsl #2
     a5c:	2d796d01 	ldclcs	13, cr6, [r9, #-4]!
     a60:	00637273 	rsbeq	r7, r3, r3, ror r2
     a64:	6573552f 	ldrbvs	r5, [r3, #-1327]!	; 0x52f
     a68:	622f7372 	eorvs	r7, pc, #-939524095	; 0xc8000001
     a6c:	6e616972 	mcrvs	9, 3, r6, cr1, cr2, {3}
     a70:	2f6e756a 	svccs	0x006e756a
     a74:	6b736544 	blvs	1cd9f8c <__bss_end__+0x1ccfb44>
     a78:	2f706f74 	svccs	0x00706f74
     a7c:	6f686373 	svcvs	0x00686373
     a80:	572f6c6f 	strpl	r6, [pc, -pc, ror #24]!
     a84:	65746e69 	ldrbvs	r6, [r4, #-3689]!	; 0xe69
     a88:	32393172 	eorscc	r3, r9, #-2147483620	; 0x8000001c
     a8c:	53432f30 	movtpl	r2, #16176	; 0x3f30
     a90:	45303431 	ldrmi	r3, [r0, #-1073]!	; 0x431
     a94:	3173632f 	cmncc	r3, pc, lsr #6
     a98:	2d653034 	stclcs	0, cr3, [r5, #-208]!	; 0xffffff30
     a9c:	69773032 	ldmdbvs	r7!, {r1, r4, r5, ip, sp}^
     aa0:	696c2f6e 	stmdbvs	ip!, {r1, r2, r3, r5, r6, r8, r9, sl, fp, sp}^
     aa4:	2f697062 	svccs	0x00697062
     aa8:	34317363 	ldrtcc	r7, [r1], #-867	; 0x363
     aac:	732d6530 	teqvc	sp, #48, 10	; 0xc000000
     ab0:	2f006372 	svccs	0x00006372
     ab4:	72657355 	rsbvc	r7, r5, #1409286145	; 0x54000001
     ab8:	72622f73 	rsbvc	r2, r2, #460	; 0x1cc
     abc:	6a6e6169 	bvs	1b99068 <__bss_end__+0x1b8ec20>
     ac0:	442f6e75 	strtmi	r6, [pc], #-3701	; ac8 <_start-0x7538>
     ac4:	746b7365 	strbtvc	r7, [fp], #-869	; 0x365
     ac8:	732f706f 	teqvc	pc, #111	; 0x6f
     acc:	6f6f6863 	svcvs	0x006f6863
     ad0:	69572f6c 	ldmdbvs	r7, {r2, r3, r5, r6, r8, r9, sl, fp, sp}^
     ad4:	7265746e 	rsbvc	r7, r5, #1845493760	; 0x6e000000
     ad8:	30323931 	eorscc	r3, r2, r1, lsr r9
     adc:	3153432f 	cmpcc	r3, pc, lsr #6
     ae0:	2f453034 	svccs	0x00453034
     ae4:	34317363 	ldrtcc	r7, [r1], #-867	; 0x363
     ae8:	322d6530 	eorcc	r6, sp, #48, 10	; 0xc000000
     aec:	6e697730 	mcrvs	7, 3, r7, cr9, cr0, {1}
     af0:	62696c2f 	rsbvs	r6, r9, #12032	; 0x2f00
     af4:	00006970 	andeq	r6, r0, r0, ror r9
     af8:	6f697067 	svcvs	0x00697067
     afc:	0100632e 	tsteq	r0, lr, lsr #6
     b00:	70670000 	rsbvc	r0, r7, r0
     b04:	682e6f69 	stmdavs	lr!, {r0, r3, r5, r6, r8, r9, sl, fp, sp, lr}
     b08:	00000200 	andeq	r0, r0, r0, lsl #4
     b0c:	2e697072 	mcrcs	0, 3, r7, cr9, cr2, {3}
     b10:	00030068 	andeq	r0, r3, r8, rrx
     b14:	05000000 	streq	r0, [r0, #-0]
     b18:	008ea002 	addeq	sl, lr, r2
     b1c:	013e0300 	teqeq	lr, r0, lsl #6
     b20:	0869504e 	stmdaeq	r9!, {r1, r2, r3, r6, ip, lr}^
     b24:	67676721 	strbvs	r6, [r7, -r1, lsr #14]!
     b28:	32676767 	rsbcc	r6, r7, #27000832	; 0x19c0000
     b2c:	dc22084b 	stcle	8, cr0, [r2], #-300	; 0xfffffed4
     b30:	4e135131 	mrcmi	1, 0, r5, cr3, cr1, {1}
     b34:	31be3050 			; <UNDEFINED> instruction: 0x31be3050
     b38:	4f4d1350 	svcmi	0x004d1350
     b3c:	504cc030 	subpl	ip, ip, r0, lsr r0
     b40:	67210869 	strvs	r0, [r1, -r9, ror #16]!
     b44:	67676767 	strbvs	r6, [r7, -r7, ror #14]!
     b48:	084b3267 	stmdaeq	fp, {r0, r1, r2, r5, r6, r9, ip, sp}^
     b4c:	504ca421 	subpl	sl, ip, r1, lsr #8
     b50:	0369842f 	cmneq	r9, #788529152	; 0x2f000000
     b54:	0c038275 	sfmeq	f0, 1, [r3], {117}	; 0x75
     b58:	4e304d2e 	cdpmi	13, 3, cr4, cr0, cr14, {1}
     b5c:	6a4d4c4b 	bvs	1353c90 <__bss_end__+0x1349848>
     b60:	2108696b 	tstcs	r8, fp, ror #18
     b64:	67676767 	strbvs	r6, [r7, -r7, ror #14]!
     b68:	4b326767 	blmi	c9a90c <__bss_end__+0xc904c4>
     b6c:	30c02208 	sbccc	r2, r0, r8, lsl #4
     b70:	504e1351 	subpl	r1, lr, r1, asr r3
     b74:	ba180330 	blt	60183c <__bss_end__+0x5f73f4>
     b78:	2f4c9f31 	svccs	0x004c9f31
     b7c:	2f4e4d52 	svccs	0x004e4d52
     b80:	684b674b 	stmdavs	fp, {r0, r1, r3, r6, r8, r9, sl, sp, lr}^
     b84:	2f4c6767 	svccs	0x004c6767
     b88:	6e4b2f67 	cdpvs	15, 4, cr2, cr11, cr7, {3}
     b8c:	4b2f4e4c 	blmi	bd44c4 <__bss_end__+0xbca07c>
     b90:	67684b67 	strbvs	r4, [r8, -r7, ror #22]!
     b94:	672f4c67 	strvs	r4, [pc, -r7, ror #24]!
     b98:	4b6d4b2f 	blmi	1b5385c <__bss_end__+0x1b49414>
     b9c:	674b2f4e 	strbvs	r2, [fp, -lr, asr #30]
     ba0:	01040200 	mrseq	r0, R12_usr
     ba4:	68066606 	stmdavs	r6, {r1, r2, r9, sl, sp, lr}
     ba8:	02002f9f 	andeq	r2, r0, #636	; 0x27c
     bac:	4a060104 	bmi	180fc4 <__bss_end__+0x176b7c>
     bb0:	032f6806 	teqeq	pc, #393216	; 0x60000
     bb4:	0e034a73 	mcreq	10, 0, r4, cr3, cr3, {3}
     bb8:	4e4c4d2e 	cdpmi	13, 4, cr4, cr12, cr14, {1}
     bbc:	bcbc4b2f 	fldmiaxlt	ip!, {d4-d26}	;@ Deprecated
     bc0:	01000602 	tsteq	r0, r2, lsl #12
     bc4:	00034901 	andeq	r4, r3, r1, lsl #18
     bc8:	bd000200 	sfmlt	f0, 4, [r0, #-0]
     bcc:	02000001 	andeq	r0, r0, #1
     bd0:	0d0efb01 	vstreq	d15, [lr, #-4]
     bd4:	01010100 	mrseq	r0, (UNDEF: 17)
     bd8:	00000001 	andeq	r0, r0, r1
     bdc:	01000001 	tsteq	r0, r1
     be0:	732d796d 	teqvc	sp, #1785856	; 0x1b4000
     be4:	2f006372 	svccs	0x00006372
     be8:	72657355 	rsbvc	r7, r5, #1409286145	; 0x54000001
     bec:	72622f73 	rsbvc	r2, r2, #460	; 0x1cc
     bf0:	6a6e6169 	bvs	1b9919c <__bss_end__+0x1b8ed54>
     bf4:	442f6e75 	strtmi	r6, [pc], #-3701	; bfc <_start-0x7404>
     bf8:	746b7365 	strbtvc	r7, [fp], #-869	; 0x365
     bfc:	732f706f 	teqvc	pc, #111	; 0x6f
     c00:	6f6f6863 	svcvs	0x006f6863
     c04:	69572f6c 	ldmdbvs	r7, {r2, r3, r5, r6, r8, r9, sl, fp, sp}^
     c08:	7265746e 	rsbvc	r7, r5, #1845493760	; 0x6e000000
     c0c:	30323931 	eorscc	r3, r2, r1, lsr r9
     c10:	3153432f 	cmpcc	r3, pc, lsr #6
     c14:	2f453034 	svccs	0x00453034
     c18:	34317363 	ldrtcc	r7, [r1], #-867	; 0x363
     c1c:	322d6530 	eorcc	r6, sp, #48, 10	; 0xc000000
     c20:	6e697730 	mcrvs	7, 3, r7, cr9, cr0, {1}
     c24:	62696c2f 	rsbvs	r6, r9, #12032	; 0x2f00
     c28:	632f6970 	teqvs	pc, #112, 18	; 0x1c0000
     c2c:	30343173 	eorscc	r3, r4, r3, ror r1
     c30:	72732d65 	rsbsvc	r2, r3, #6464	; 0x1940
     c34:	752f0063 	strvc	r0, [pc, #-99]!	; bd9 <_start-0x7427>
     c38:	6c2f7273 	sfmvs	f7, 4, [pc], #-460	; a74 <_start-0x758c>
     c3c:	6c61636f 	stclvs	3, cr6, [r1], #-444	; 0xfffffe44
     c40:	6c65432f 	stclvs	3, cr4, [r5], #-188	; 0xffffff44
     c44:	2f72616c 	svccs	0x0072616c
     c48:	2d6d7261 	sfmcs	f7, 2, [sp, #-388]!	; 0xfffffe7c
     c4c:	656e6f6e 	strbvs	r6, [lr, #-3950]!	; 0xf6e
     c50:	6261652d 	rsbvs	r6, r1, #188743680	; 0xb400000
     c54:	2e342f69 	cdpcs	15, 3, cr2, cr4, cr9, {3}
     c58:	2d332e38 	ldccs	14, cr2, [r3, #-224]!	; 0xffffff20
     c5c:	37317363 	ldrcc	r7, [r1, -r3, ror #6]!
     c60:	6c2f6530 	cfstr32vs	mvfx6, [pc], #-192	; ba8 <_start-0x7458>
     c64:	672f6269 	strvs	r6, [pc, -r9, ror #4]!
     c68:	612f6363 	teqvs	pc, r3, ror #6
     c6c:	6e2d6d72 	mcrvs	13, 1, r6, cr13, cr2, {3}
     c70:	2d656e6f 	stclcs	14, cr6, [r5, #-444]!	; 0xfffffe44
     c74:	69626165 	stmdbvs	r2!, {r0, r2, r5, r6, r8, sp, lr}^
     c78:	382e342f 	stmdacc	lr!, {r0, r1, r2, r3, r5, sl, ip, sp}
     c7c:	692f332e 	stmdbvs	pc!, {r1, r2, r3, r5, r8, r9, ip, sp}	; <UNPREDICTABLE>
     c80:	756c636e 	strbvc	r6, [ip, #-878]!	; 0x36e
     c84:	2f006564 	svccs	0x00006564
     c88:	72657355 	rsbvc	r7, r5, #1409286145	; 0x54000001
     c8c:	72622f73 	rsbvc	r2, r2, #460	; 0x1cc
     c90:	6a6e6169 	bvs	1b9923c <__bss_end__+0x1b8edf4>
     c94:	442f6e75 	strtmi	r6, [pc], #-3701	; c9c <_start-0x7364>
     c98:	746b7365 	strbtvc	r7, [fp], #-869	; 0x365
     c9c:	732f706f 	teqvc	pc, #111	; 0x6f
     ca0:	6f6f6863 	svcvs	0x006f6863
     ca4:	69572f6c 	ldmdbvs	r7, {r2, r3, r5, r6, r8, r9, sl, fp, sp}^
     ca8:	7265746e 	rsbvc	r7, r5, #1845493760	; 0x6e000000
     cac:	30323931 	eorscc	r3, r2, r1, lsr r9
     cb0:	3153432f 	cmpcc	r3, pc, lsr #6
     cb4:	2f453034 	svccs	0x00453034
     cb8:	34317363 	ldrtcc	r7, [r1], #-867	; 0x363
     cbc:	322d6530 	eorcc	r6, sp, #48, 10	; 0xc000000
     cc0:	6e697730 	mcrvs	7, 3, r7, cr9, cr0, {1}
     cc4:	62696c2f 	rsbvs	r6, r9, #12032	; 0x2f00
     cc8:	2f006970 	svccs	0x00006970
     ccc:	72657355 	rsbvc	r7, r5, #1409286145	; 0x54000001
     cd0:	72622f73 	rsbvc	r2, r2, #460	; 0x1cc
     cd4:	6a6e6169 	bvs	1b99280 <__bss_end__+0x1b8ee38>
     cd8:	442f6e75 	strtmi	r6, [pc], #-3701	; ce0 <_start-0x7320>
     cdc:	746b7365 	strbtvc	r7, [fp], #-869	; 0x365
     ce0:	732f706f 	teqvc	pc, #111	; 0x6f
     ce4:	6f6f6863 	svcvs	0x006f6863
     ce8:	69572f6c 	ldmdbvs	r7, {r2, r3, r5, r6, r8, r9, sl, fp, sp}^
     cec:	7265746e 	rsbvc	r7, r5, #1845493760	; 0x6e000000
     cf0:	30323931 	eorscc	r3, r2, r1, lsr r9
     cf4:	3153432f 	cmpcc	r3, pc, lsr #6
     cf8:	2f453034 	svccs	0x00453034
     cfc:	34317363 	ldrtcc	r7, [r1], #-867	; 0x363
     d00:	322d6530 	eorcc	r6, sp, #48, 10	; 0xc000000
     d04:	6e697730 	mcrvs	7, 3, r7, cr9, cr0, {1}
     d08:	62696c2f 	rsbvs	r6, r9, #12032	; 0x2f00
     d0c:	6c2f6970 	stcvs	9, cr6, [pc], #-448	; b54 <_start-0x74ac>
     d10:	00636269 	rsbeq	r6, r3, r9, ror #4
     d14:	2d777300 	ldclcs	3, cr7, [r7, #-0]
     d18:	74726175 	ldrbtvc	r6, [r2], #-373	; 0x175
     d1c:	0100632e 	tsteq	r0, lr, lsr #6
     d20:	79630000 	stmdbvc	r3!, {}^	; <UNPREDICTABLE>
     d24:	2d656c63 	stclcs	12, cr6, [r5, #-396]!	; 0xfffffe74
     d28:	6c697475 	cfstrdvs	mvd7, [r9], #-468	; 0xfffffe2c
     d2c:	0200682e 	andeq	r6, r0, #3014656	; 0x2e0000
     d30:	74730000 	ldrbtvc	r0, [r3], #-0
     d34:	746e6964 	strbtvc	r6, [lr], #-2404	; 0x964
     d38:	6363672d 	cmnvs	r3, #11796480	; 0xb40000
     d3c:	0300682e 	movweq	r6, #2094	; 0x82e
     d40:	77730000 	ldrbvc	r0, [r3, -r0]!
     d44:	7261752d 	rsbvc	r7, r1, #188743680	; 0xb400000
     d48:	00682e74 	rsbeq	r2, r8, r4, ror lr
     d4c:	73000002 	movwvc	r0, #2
     d50:	72616474 	rsbvc	r6, r1, #116, 8	; 0x74000000
     d54:	00682e67 	rsbeq	r2, r8, r7, ror #28
     d58:	67000003 	strvs	r0, [r0, -r3]
     d5c:	2e6f6970 	mcrcs	9, 3, r6, cr15, cr0, {3}
     d60:	00020068 	andeq	r0, r2, r8, rrx
     d64:	69707200 	ldmdbvs	r0!, {r9, ip, sp, lr}^
     d68:	0400682e 	streq	r6, [r0], #-2094	; 0x82e
     d6c:	61760000 	cmnvs	r6, r0
     d70:	6972702d 	ldmdbvs	r2!, {r0, r2, r3, r5, ip, sp, lr}^
     d74:	2e6b746e 	cdpcs	4, 6, cr7, cr11, cr14, {3}
     d78:	00050068 	andeq	r0, r5, r8, rrx
     d7c:	75623c00 	strbvc	r3, [r2, #-3072]!	; 0xc00
     d80:	2d746c69 	ldclcs	12, cr6, [r4, #-420]!	; 0xfffffe5c
     d84:	003e6e69 	eorseq	r6, lr, r9, ror #28
     d88:	00000000 	andeq	r0, r0, r0
     d8c:	40020500 	andmi	r0, r2, r0, lsl #10
     d90:	1a000094 	bne	fe8 <_start-0x7018>
     d94:	04302f4c 	ldrteq	r2, [r0], #-3916	; 0xf4c
     d98:	2e0b0302 	cdpcs	3, 0, cr0, cr11, cr2, {0}
     d9c:	04667303 	strbteq	r7, [r6], #-771	; 0x303
     da0:	02048801 	andeq	r8, r4, #65536	; 0x10000
     da4:	66730335 			; <UNDEFINED> instruction: 0x66730335
     da8:	048a0104 	streq	r0, [sl], #260	; 0x104
     dac:	73033302 	movwvc	r3, #13058	; 0x3302
     db0:	03010466 	movweq	r0, #5222	; 0x1466
     db4:	0204820a 	andeq	r8, r4, #-1610612736	; 0xa0000000
     db8:	66730331 			; <UNDEFINED> instruction: 0x66730331
     dbc:	0c030104 	stfeqs	f0, [r3], {4}
     dc0:	2f020482 	svccs	0x00020482
     dc4:	04667303 	strbteq	r7, [r6], #-771	; 0x303
     dc8:	820e0301 	andhi	r0, lr, #67108864	; 0x4000000
     dcc:	032d0204 	teqeq	sp, #4, 4	; 0x40000000
     dd0:	01046673 	tsteq	r4, r3, ror r6
     dd4:	04821003 	streq	r1, [r2], #3
     dd8:	73032b02 	movwvc	r2, #15106	; 0x3b02
     ddc:	03010466 	movweq	r0, #5222	; 0x1466
     de0:	02048212 	andeq	r8, r4, #536870913	; 0x20000001
     de4:	66730329 	ldrbtvs	r0, [r3], -r9, lsr #6
     de8:	14030104 	strne	r0, [r3], #-260	; 0x104
     dec:	03020482 	movweq	r0, #9346	; 0x2482
     df0:	73032e79 	movwvc	r2, #15993	; 0x3e79
     df4:	03010466 	movweq	r0, #5222	; 0x1466
     df8:	02048216 	andeq	r8, r4, #1610612737	; 0x60000001
     dfc:	032e7703 	teqeq	lr, #786432	; 0xc0000
     e00:	01046673 	tsteq	r4, r3, ror r6
     e04:	03821803 	orreq	r1, r2, #196608	; 0x30000
     e08:	4d4b2e10 	stclmi	14, cr2, [fp, #-64]	; 0xffffffc0
     e0c:	4c2e7003 	stcmi	0, cr7, [lr], #-12
     e10:	03488384 	movteq	r8, #33668	; 0x8384
     e14:	314e2e0d 	cmpcc	lr, sp, lsl #28
     e18:	03020433 	movweq	r0, #9267	; 0x2433
     e1c:	01042e48 	tsteq	r4, r8, asr #28
     e20:	2f823a03 	svccs	0x00823a03
     e24:	45030204 	strmi	r0, [r3, #-516]	; 0x204
     e28:	03010466 	movweq	r0, #5222	; 0x1466
     e2c:	042f823d 	strteq	r8, [pc], #-573	; e34 <_start-0x71cc>
     e30:	82420302 	subhi	r0, r2, #134217728	; 0x8000000
     e34:	c0030104 	andgt	r0, r3, r4, lsl #2
     e38:	042f8200 	strteq	r8, [pc], #-512	; e40 <_start-0x71c0>
     e3c:	7fbf0302 	svcvc	0x00bf0302
     e40:	03010482 	movweq	r0, #5250	; 0x1482
     e44:	2f8200c3 	svccs	0x008200c3
     e48:	bc030204 	sfmlt	f0, 4, [r3], {4}
     e4c:	0104827f 	tsteq	r4, pc, ror r2
     e50:	8200c603 	andhi	ip, r0, #3145728	; 0x300000
     e54:	0302042f 	movweq	r0, #9263	; 0x242f
     e58:	04827fb9 	streq	r7, [r2], #4025	; 0xfb9
     e5c:	00c90301 	sbceq	r0, r9, r1, lsl #6
     e60:	02042f82 	andeq	r2, r4, #520	; 0x208
     e64:	827fb603 	rsbshi	fp, pc, #3145728	; 0x300000
     e68:	cc030104 	stfgts	f0, [r3], {4}
     e6c:	042f8200 	strteq	r8, [pc], #-512	; e74 <_start-0x718c>
     e70:	7fb30302 	svcvc	0x00b30302
     e74:	03010482 	movweq	r0, #5250	; 0x1482
     e78:	038200d0 	orreq	r0, r2, #208	; 0xd0
     e7c:	844c824c 	strbhi	r8, [ip], #-588	; 0x24c
     e80:	36034883 	strcc	r4, [r3], -r3, lsl #17
     e84:	54034e2e 	strpl	r4, [r3], #-3630	; 0xe2e
     e88:	4a29034a 	bmi	a41bb8 <__bss_end__+0xa37770>
     e8c:	00bb3432 	adcseq	r3, fp, r2, lsr r4
     e90:	06010402 	streq	r0, [r1], -r2, lsl #8
     e94:	2108064a 	tstcs	r8, sl, asr #12
     e98:	2cbb4b4e 	vldmiacs	fp!, {d4-<overflow reg d42>}
     e9c:	01040200 	mrseq	r0, R12_usr
     ea0:	6d062e06 	stcvs	14, cr2, [r6, #-24]	; 0xffffffe8
     ea4:	00a0dc4c 	adceq	sp, r0, ip, asr #24
     ea8:	06010402 	streq	r0, [r1], -r2, lsl #8
     eac:	2108064a 	tstcs	r8, sl, asr #12
     eb0:	0402004d 	streq	r0, [r2], #-77	; 0x4d
     eb4:	02004b02 	andeq	r4, r0, #2048	; 0x800
     eb8:	00810204 	addeq	r0, r1, r4, lsl #4
     ebc:	06010402 	streq	r0, [r1], -r2, lsl #8
     ec0:	4c4d062e 	mcrrmi	6, 2, r0, sp, cr14
     ec4:	4b4bd8dd 	blmi	12f7240 <__bss_end__+0x12ecdf8>
     ec8:	002f6a4b 	eoreq	r6, pc, fp, asr #20
     ecc:	06010402 	streq	r0, [r1], -r2, lsl #8
     ed0:	02008282 	andeq	r8, r0, #536870920	; 0x20000008
     ed4:	009e0404 	addseq	r0, lr, r4, lsl #8
     ed8:	4a010402 	bmi	41ee8 <__bss_end__+0x37aa0>
     edc:	88230806 	stmdahi	r3!, {r1, r2, fp}
     ee0:	4b4b2ff5 	blmi	12ccebc <__bss_end__+0x12c2a74>
     ee4:	00674008 	rsbeq	r4, r7, r8
     ee8:	2f020402 	svccs	0x00020402
     eec:	02040200 	andeq	r0, r4, #0, 4
     ef0:	04020049 	streq	r0, [r2], #-73	; 0x49
     ef4:	062e0601 	strteq	r0, [lr], -r1, lsl #12
     ef8:	4b863468 	blmi	fe18e0a0 <__bss_end__+0xfe183c58>
     efc:	040200a0 	streq	r0, [r2], #-160	; 0xa0
     f00:	06660601 	strbteq	r0, [r6], -r1, lsl #12
     f04:	08682108 	stmdaeq	r8!, {r3, r8, sp}^
     f08:	4b674b3e 	blmi	19d3c08 <__bss_end__+0x19c97c0>
     f0c:	000a02d8 	ldrdeq	r0, [sl], -r8
     f10:	01010101 	tsteq	r1, r1, lsl #2
     f14:	00020000 	andeq	r0, r2, r0
     f18:	000000ca 	andeq	r0, r0, sl, asr #1
     f1c:	0efb0102 	cdpeq	1, 15, cr0, cr11, cr2, {0}
     f20:	0101000d 	tsteq	r1, sp
     f24:	00000101 	andeq	r0, r0, r1, lsl #2
     f28:	00000100 	andeq	r0, r0, r0, lsl #2
     f2c:	2d796d01 	ldclcs	13, cr6, [r9, #-4]!
     f30:	00637273 	rsbeq	r7, r3, r3, ror r2
     f34:	6573552f 	ldrbvs	r5, [r3, #-1327]!	; 0x52f
     f38:	622f7372 	eorvs	r7, pc, #-939524095	; 0xc8000001
     f3c:	6e616972 	mcrvs	9, 3, r6, cr1, cr2, {3}
     f40:	2f6e756a 	svccs	0x006e756a
     f44:	6b736544 	blvs	1cda45c <__bss_end__+0x1cd0014>
     f48:	2f706f74 	svccs	0x00706f74
     f4c:	6f686373 	svcvs	0x00686373
     f50:	572f6c6f 	strpl	r6, [pc, -pc, ror #24]!
     f54:	65746e69 	ldrbvs	r6, [r4, #-3689]!	; 0xe69
     f58:	32393172 	eorscc	r3, r9, #-2147483620	; 0x8000001c
     f5c:	53432f30 	movtpl	r2, #16176	; 0x3f30
     f60:	45303431 	ldrmi	r3, [r0, #-1073]!	; 0x431
     f64:	3173632f 	cmncc	r3, pc, lsr #6
     f68:	2d653034 	stclcs	0, cr3, [r5, #-208]!	; 0xffffff30
     f6c:	69773032 	ldmdbvs	r7!, {r1, r4, r5, ip, sp}^
     f70:	696c2f6e 	stmdbvs	ip!, {r1, r2, r3, r5, r6, r8, r9, sl, fp, sp}^
     f74:	2f697062 	svccs	0x00697062
     f78:	34317363 	ldrtcc	r7, [r1], #-867	; 0x363
     f7c:	732d6530 	teqvc	sp, #48, 10	; 0xc000000
     f80:	2f006372 	svccs	0x00006372
     f84:	72657355 	rsbvc	r7, r5, #1409286145	; 0x54000001
     f88:	72622f73 	rsbvc	r2, r2, #460	; 0x1cc
     f8c:	6a6e6169 	bvs	1b99538 <__bss_end__+0x1b8f0f0>
     f90:	442f6e75 	strtmi	r6, [pc], #-3701	; f98 <_start-0x7068>
     f94:	746b7365 	strbtvc	r7, [fp], #-869	; 0x365
     f98:	732f706f 	teqvc	pc, #111	; 0x6f
     f9c:	6f6f6863 	svcvs	0x006f6863
     fa0:	69572f6c 	ldmdbvs	r7, {r2, r3, r5, r6, r8, r9, sl, fp, sp}^
     fa4:	7265746e 	rsbvc	r7, r5, #1845493760	; 0x6e000000
     fa8:	30323931 	eorscc	r3, r2, r1, lsr r9
     fac:	3153432f 	cmpcc	r3, pc, lsr #6
     fb0:	2f453034 	svccs	0x00453034
     fb4:	34317363 	ldrtcc	r7, [r1], #-867	; 0x363
     fb8:	322d6530 	eorcc	r6, sp, #48, 10	; 0xc000000
     fbc:	6e697730 	mcrvs	7, 3, r7, cr9, cr0, {1}
     fc0:	62696c2f 	rsbvs	r6, r9, #12032	; 0x2f00
     fc4:	00006970 	andeq	r6, r0, r0, ror r9
     fc8:	74726175 	ldrbtvc	r6, [r2], #-373	; 0x175
     fcc:	0100632e 	tsteq	r0, lr, lsr #6
     fd0:	70670000 	rsbvc	r0, r7, r0
     fd4:	682e6f69 	stmdavs	lr!, {r0, r3, r5, r6, r8, r9, sl, fp, sp, lr}
     fd8:	00000200 	andeq	r0, r0, r0, lsl #4
     fdc:	2e697072 	mcrcs	0, 3, r7, cr9, cr2, {3}
     fe0:	00030068 	andeq	r0, r3, r8, rrx
     fe4:	05000000 	streq	r0, [r0, #-0]
     fe8:	009aa802 	addseq	sl, sl, r2, lsl #16
     fec:	01360300 	teqeq	r6, r0, lsl #6
     ff0:	6d673330 	stclvs	3, cr3, [r7, #-192]!	; 0xffffff40
     ff4:	6730d830 			; <UNDEFINED> instruction: 0x6730d830
     ff8:	67676767 	strbvs	r6, [r7, -r7, ror #14]!
     ffc:	672f8668 	strvs	r8, [pc, -r8, ror #12]!
    1000:	6767306a 	strbvs	r3, [r7, -sl, rrx]!
    1004:	6a672f69 	bvs	19ccdb0 <__bss_end__+0x19c2968>
    1008:	2fc1674c 	svccs	0x00c1674c
    100c:	682f302f 	stmdavs	pc!, {r0, r1, r2, r3, r5, ip, sp}	; <UNPREDICTABLE>
    1010:	02023049 	andeq	r3, r2, #73	; 0x49
    1014:	28010100 	stmdacs	r1, {r8}
    1018:	02000001 	andeq	r0, r0, #1
    101c:	00010d00 	andeq	r0, r1, r0, lsl #26
    1020:	fb010200 	blx	4182a <__bss_end__+0x373e2>
    1024:	01000d0e 	tsteq	r0, lr, lsl #26
    1028:	00010101 	andeq	r0, r1, r1, lsl #2
    102c:	00010000 	andeq	r0, r1, r0
    1030:	73630100 	cmnvc	r3, #0, 2
    1034:	65303431 	ldrvs	r3, [r0, #-1073]!	; 0x431
    1038:	6372732d 	cmnvs	r2, #-1275068416	; 0xb4000000
    103c:	73752f00 	cmnvc	r5, #0, 30
    1040:	6f6c2f72 	svcvs	0x006c2f72
    1044:	2f6c6163 	svccs	0x006c6163
    1048:	6c6c6543 	cfstr64vs	mvdx6, [ip], #-268	; 0xfffffef4
    104c:	612f7261 	teqvs	pc, r1, ror #4
    1050:	6e2d6d72 	mcrvs	13, 1, r6, cr13, cr2, {3}
    1054:	2d656e6f 	stclcs	14, cr6, [r5, #-444]!	; 0xfffffe44
    1058:	69626165 	stmdbvs	r2!, {r0, r2, r5, r6, r8, sp, lr}^
    105c:	382e342f 	stmdacc	lr!, {r0, r1, r2, r3, r5, sl, ip, sp}
    1060:	632d332e 	teqvs	sp, #-1207959552	; 0xb8000000
    1064:	30373173 	eorscc	r3, r7, r3, ror r1
    1068:	696c2f65 	stmdbvs	ip!, {r0, r2, r5, r6, r8, r9, sl, fp, sp}^
    106c:	63672f62 	cmnvs	r7, #392	; 0x188
    1070:	72612f63 	rsbvc	r2, r1, #396	; 0x18c
    1074:	6f6e2d6d 	svcvs	0x006e2d6d
    1078:	652d656e 	strvs	r6, [sp, #-1390]!	; 0x56e
    107c:	2f696261 	svccs	0x00696261
    1080:	2e382e34 	mrccs	14, 1, r2, cr8, cr4, {1}
    1084:	6e692f33 	mcrvs	15, 3, r2, cr9, cr3, {1}
    1088:	64756c63 	ldrbtvs	r6, [r5], #-3171	; 0xc63
    108c:	752f0065 	strvc	r0, [pc, #-101]!	; 102f <_start-0x6fd1>
    1090:	6c2f7273 	sfmvs	f7, 4, [pc], #-460	; ecc <_start-0x7134>
    1094:	6c61636f 	stclvs	3, cr6, [r1], #-444	; 0xfffffe44
    1098:	6c65432f 	stclvs	3, cr4, [r5], #-188	; 0xffffff44
    109c:	2f72616c 	svccs	0x0072616c
    10a0:	2d6d7261 	sfmcs	f7, 2, [sp, #-388]!	; 0xfffffe7c
    10a4:	656e6f6e 	strbvs	r6, [lr, #-3950]!	; 0xf6e
    10a8:	6261652d 	rsbvs	r6, r1, #188743680	; 0xb400000
    10ac:	2e342f69 	cdpcs	15, 3, cr2, cr4, cr9, {3}
    10b0:	2d332e38 	ldccs	14, cr2, [r3, #-224]!	; 0xffffff20
    10b4:	37317363 	ldrcc	r7, [r1, -r3, ror #6]!
    10b8:	612f6530 	teqvs	pc, r0, lsr r5	; <UNPREDICTABLE>
    10bc:	6e2d6d72 	mcrvs	13, 1, r6, cr13, cr2, {3}
    10c0:	2d656e6f 	stclcs	14, cr6, [r5, #-444]!	; 0xfffffe44
    10c4:	69626165 	stmdbvs	r2!, {r0, r2, r5, r6, r8, sp, lr}^
    10c8:	636e692f 	cmnvs	lr, #770048	; 0xbc000
    10cc:	6564756c 	strbvs	r7, [r4, #-1388]!	; 0x56c
    10d0:	6f630000 	svcvs	0x00630000
    10d4:	6f72746e 	svcvs	0x0072746e
    10d8:	6c622d6c 	stclvs	13, cr2, [r2], #-432	; 0xfffffe50
    10dc:	2e6b636f 	cdpcs	3, 6, cr6, cr11, cr15, {3}
    10e0:	00010063 	andeq	r0, r1, r3, rrx
    10e4:	64747300 	ldrbtvs	r7, [r4], #-768	; 0x300
    10e8:	2e666564 	cdpcs	5, 6, cr6, cr6, cr4, {3}
    10ec:	00020068 	andeq	r0, r2, r8, rrx
    10f0:	64747300 	ldrbtvs	r7, [r4], #-768	; 0x300
    10f4:	2d746e69 	ldclcs	14, cr6, [r4, #-420]!	; 0xfffffe5c
    10f8:	2e636367 	cdpcs	3, 6, cr6, cr3, cr7, {3}
    10fc:	00020068 	andeq	r0, r2, r8, rrx
    1100:	2d777300 	ldclcs	3, cr7, [r7, #-0]
    1104:	74726175 	ldrbtvc	r6, [r2], #-373	; 0x175
    1108:	0100682e 	tsteq	r0, lr, lsr #16
    110c:	6f630000 	svcvs	0x00630000
    1110:	6f72746e 	svcvs	0x0072746e
    1114:	6c622d6c 	stclvs	13, cr2, [r2], #-432	; 0xfffffe50
    1118:	2e6b636f 	cdpcs	3, 6, cr6, cr11, cr15, {3}
    111c:	00010068 	andeq	r0, r1, r8, rrx
    1120:	72747300 	rsbsvc	r7, r4, #0, 6
    1124:	2e676e69 	cdpcs	14, 6, cr6, cr7, cr9, {3}
    1128:	00030068 	andeq	r0, r3, r8, rrx
    112c:	05000000 	streq	r0, [r0, #-0]
    1130:	009c6002 	addseq	r6, ip, r2
    1134:	83301600 	teqhi	r0, #0, 12
    1138:	9f144c68 	svcls	0x00144c68
    113c:	04022f4b 	streq	r2, [r2], #-3915	; 0xf4b
    1140:	ec010100 	stfs	f0, [r1], {-0}
    1144:	02000000 	andeq	r0, r0, #0
    1148:	0000d000 	andeq	sp, r0, r0
    114c:	fb010200 	blx	41956 <__bss_end__+0x3750e>
    1150:	01000d0e 	tsteq	r0, lr, lsl #26
    1154:	00010101 	andeq	r0, r1, r1, lsl #2
    1158:	00010000 	andeq	r0, r1, r0
    115c:	696c0100 	stmdbvs	ip!, {r8}^
    1160:	2f006362 	svccs	0x00006362
    1164:	2f727375 	svccs	0x00727375
    1168:	61636f6c 	cmnvs	r3, ip, ror #30
    116c:	65432f6c 	strbvs	r2, [r3, #-3948]	; 0xf6c
    1170:	72616c6c 	rsbvc	r6, r1, #108, 24	; 0x6c00
    1174:	6d72612f 	ldfvse	f6, [r2, #-188]!	; 0xffffff44
    1178:	6e6f6e2d 	cdpvs	14, 6, cr6, cr15, cr13, {1}
    117c:	61652d65 	cmnvs	r5, r5, ror #26
    1180:	342f6962 	strtcc	r6, [pc], #-2402	; 1188 <_start-0x6e78>
    1184:	332e382e 	teqcc	lr, #3014656	; 0x2e0000
    1188:	3173632d 	cmncc	r3, sp, lsr #6
    118c:	2f653037 	svccs	0x00653037
    1190:	2f62696c 	svccs	0x0062696c
    1194:	2f636367 	svccs	0x00636367
    1198:	2d6d7261 	sfmcs	f7, 2, [sp, #-388]!	; 0xfffffe7c
    119c:	656e6f6e 	strbvs	r6, [lr, #-3950]!	; 0xf6e
    11a0:	6261652d 	rsbvs	r6, r1, #188743680	; 0xb400000
    11a4:	2e342f69 	cdpcs	15, 3, cr2, cr4, cr9, {3}
    11a8:	2f332e38 	svccs	0x00332e38
    11ac:	6c636e69 	stclvs	14, cr6, [r3], #-420	; 0xfffffe5c
    11b0:	00656475 	rsbeq	r6, r5, r5, ror r4
    11b4:	7273752f 	rsbsvc	r7, r3, #197132288	; 0xbc00000
    11b8:	636f6c2f 	cmnvs	pc, #12032	; 0x2f00
    11bc:	432f6c61 	teqmi	pc, #24832	; 0x6100
    11c0:	616c6c65 	cmnvs	ip, r5, ror #24
    11c4:	72612f72 	rsbvc	r2, r1, #456	; 0x1c8
    11c8:	6f6e2d6d 	svcvs	0x006e2d6d
    11cc:	652d656e 	strvs	r6, [sp, #-1390]!	; 0x56e
    11d0:	2f696261 	svccs	0x00696261
    11d4:	2e382e34 	mrccs	14, 1, r2, cr8, cr4, {1}
    11d8:	73632d33 	cmnvc	r3, #3264	; 0xcc0
    11dc:	65303731 	ldrvs	r3, [r0, #-1841]!	; 0x731
    11e0:	6d72612f 	ldfvse	f6, [r2, #-188]!	; 0xffffff44
    11e4:	6e6f6e2d 	cdpvs	14, 6, cr6, cr15, cr13, {1}
    11e8:	61652d65 	cmnvs	r5, r5, ror #26
    11ec:	692f6962 	stmdbvs	pc!, {r1, r5, r6, r8, fp, sp, lr}	; <UNPREDICTABLE>
    11f0:	756c636e 	strbvc	r6, [ip, #-878]!	; 0x36e
    11f4:	00006564 	andeq	r6, r0, r4, ror #10
    11f8:	736d656d 	cmnvc	sp, #457179136	; 0x1b400000
    11fc:	632e7465 	teqvs	lr, #1694498816	; 0x65000000
    1200:	00000100 	andeq	r0, r0, r0, lsl #2
    1204:	64647473 	strbtvs	r7, [r4], #-1139	; 0x473
    1208:	682e6665 	stmdavs	lr!, {r0, r2, r5, r6, r9, sl, sp, lr}
    120c:	00000200 	andeq	r0, r0, r0, lsl #4
    1210:	69727473 	ldmdbvs	r2!, {r0, r1, r4, r5, r6, sl, ip, sp, lr}^
    1214:	682e676e 	stmdavs	lr!, {r1, r2, r3, r5, r6, r8, r9, sl, sp, lr}
    1218:	00000300 	andeq	r0, r0, r0, lsl #6
    121c:	02050000 	andeq	r0, r5, #0
    1220:	00009cb0 			; <UNDEFINED> instruction: 0x00009cb0
    1224:	2f4c1314 	svccs	0x004c1314
    1228:	01040200 	mrseq	r0, R12_usr
    122c:	02024d49 	andeq	r4, r2, #4672	; 0x1240
    1230:	Address 0x0000000000001230 is out of bounds.


Disassembly of section .debug_str:

00000000 <.debug_str>:
   0:	706f6373 	rsbvc	r6, pc, r3, ror r3	; <UNPREDICTABLE>
   4:	50470065 	subpl	r0, r7, r5, rrx
   8:	4c455346 	mcrrmi	3, 4, r5, r5, cr6
   c:	50470032 	subpl	r0, r7, r2, lsr r0
  10:	4c455346 	mcrrmi	3, 4, r5, r5, cr6
  14:	69620034 	stmdbvs	r2!, {r2, r4, r5}^
  18:	62003074 	andvs	r3, r0, #116	; 0x74
  1c:	00317469 	eorseq	r7, r1, r9, ror #8
  20:	32746962 	rsbscc	r6, r4, #1605632	; 0x188000
  24:	74696200 	strbtvc	r6, [r9], #-512	; 0x200
  28:	61660033 	cmnvs	r6, r3, lsr r0
  2c:	675f7473 			; <UNDEFINED> instruction: 0x675f7473
  30:	5f6f6970 	svcpl	0x006f6970
  34:	74697277 	strbtvc	r7, [r9], #-631	; 0x277
  38:	69620065 	stmdbvs	r2!, {r0, r2, r5, r6}^
  3c:	62003574 	andvs	r3, r0, #116, 10	; 0x1d000000
  40:	00367469 	eorseq	r7, r6, r9, ror #8
  44:	37746962 	ldrbcc	r6, [r4, -r2, ror #18]!
  48:	6e6f6c00 	cdpvs	12, 6, cr6, cr15, cr0, {0}
  4c:	6f6c2067 	svcvs	0x006c2067
  50:	7520676e 	strvc	r6, [r0, #-1902]!	; 0x76e
  54:	6769736e 	strbvs	r7, [r9, -lr, ror #6]!
  58:	2064656e 	rsbcs	r6, r4, lr, ror #10
  5c:	00746e69 	rsbseq	r6, r4, r9, ror #28
  60:	74736166 	ldrbtvc	r6, [r3], #-358	; 0x166
  64:	6970675f 	ldmdbvs	r0!, {r0, r1, r2, r3, r4, r6, r8, r9, sl, sp, lr}^
  68:	65735f6f 	ldrbvs	r5, [r3, #-3951]!	; 0xf6f
  6c:	6e6f5f74 	mcrvs	15, 3, r5, cr15, cr4, {3}
  70:	72657300 	rsbvc	r7, r5, #0, 6
  74:	00726576 	rsbseq	r6, r2, r6, ror r5
  78:	34746962 	ldrbtcc	r6, [r4], #-2402	; 0x962
  7c:	6e6f6c00 	cdpvs	12, 6, cr6, cr15, cr0, {0}
  80:	6f6c2067 	svcvs	0x006c2067
  84:	6920676e 	stmdbvs	r0!, {r1, r2, r3, r5, r6, r8, r9, sl, sp, lr}
  88:	6e00746e 	cdpvs	4, 0, cr7, cr0, cr14, {3}
  8c:	6c637963 	stclvs	9, cr7, [r3], #-396	; 0xfffffe74
  90:	50470065 	subpl	r0, r7, r5, rrx
  94:	30544553 	subscc	r4, r4, r3, asr r5
  98:	53504700 	cmppl	r0, #0, 14
  9c:	00315445 	eorseq	r5, r1, r5, asr #8
  a0:	454c5047 	strbmi	r5, [ip, #-71]	; 0x47
  a4:	47003056 	smlsdmi	r0, r6, r0, r3
  a8:	56454c50 			; <UNDEFINED> instruction: 0x56454c50
  ac:	65740031 	ldrbvs	r0, [r4, #-49]!	; 0x31
  b0:	675f7473 			; <UNDEFINED> instruction: 0x675f7473
  b4:	6e006e65 	cdpvs	14, 0, cr6, cr0, cr5, {3}
  b8:	616d746f 	cmnvs	sp, pc, ror #8
  bc:	66006e69 	strvs	r6, [r0], -r9, ror #28
  c0:	5f747361 	svcpl	0x00747361
  c4:	6f697067 	svcvs	0x00697067
  c8:	7465735f 	strbtvc	r7, [r5], #-863	; 0x35f
  cc:	66666f5f 	uqsaxvs	r6, r6, pc	; <UNPREDICTABLE>
  d0:	554e4700 	strbpl	r4, [lr, #-1792]	; 0x700
  d4:	34204320 	strtcc	r4, [r0], #-800	; 0x320
  d8:	332e382e 	teqcc	lr, #3014656	; 0x2e0000
  dc:	636d2d20 	cmnvs	sp, #32, 26	; 0x800
  e0:	613d7570 	teqvs	sp, r0, ror r5
  e4:	31316d72 	teqcc	r1, r2, ror sp
  e8:	7a6a3637 	bvc	1a8d9cc <__bss_end__+0x1a83584>
  ec:	20732d66 	rsbscs	r2, r3, r6, ror #26
  f0:	75746d2d 	ldrbvc	r6, [r4, #-3373]!	; 0xd2d
  f4:	613d656e 	teqvs	sp, lr, ror #10
  f8:	31316d72 	teqcc	r1, r2, ror sp
  fc:	7a6a3637 	bvc	1a8d9e0 <__bss_end__+0x1a83598>
 100:	20732d66 	rsbscs	r2, r3, r6, ror #26
 104:	6467672d 	strbtvs	r6, [r7], #-1837	; 0x72d
 108:	4f2d2062 	svcmi	0x002d2062
 10c:	732d2033 	teqvc	sp, #51	; 0x33
 110:	673d6474 			; <UNDEFINED> instruction: 0x673d6474
 114:	3939756e 	ldmdbcc	r9!, {r1, r2, r3, r5, r6, r8, sl, ip, sp, lr}
 118:	66662d20 	strbtvs	r2, [r6], -r0, lsr #26
 11c:	73656572 	cmnvc	r5, #478150656	; 0x1c800000
 120:	646e6174 	strbtvs	r6, [lr], #-372	; 0x174
 124:	00676e69 	rsbeq	r6, r7, r9, ror #28
 128:	65696c63 	strbvs	r6, [r9, #-3171]!	; 0xc63
 12c:	7400746e 	strvc	r7, [r0], #-1134	; 0x46e
 130:	00706d65 	rsbseq	r6, r0, r5, ror #26
 134:	5f697072 	svcpl	0x00697072
 138:	65736572 	ldrbvs	r6, [r3, #-1394]!	; 0x572
 13c:	75705f74 	ldrbvc	r5, [r0, #-3956]!	; 0xf74
 140:	47006374 	smlsdxmi	r0, r4, r3, r6
 144:	45534650 	ldrbmi	r4, [r3, #-1616]	; 0x650
 148:	4700304c 	strmi	r3, [r0, -ip, asr #32]
 14c:	45534650 	ldrbmi	r4, [r3, #-1616]	; 0x650
 150:	4700314c 	strmi	r3, [r0, -ip, asr #2]
 154:	45534650 	ldrbmi	r4, [r3, #-1616]	; 0x650
 158:	6500334c 	strvs	r3, [r0, #-844]	; 0x34c
 15c:	63657078 	cmnvs	r5, #120	; 0x78
 160:	00646574 	rsbeq	r6, r4, r4, ror r5
 164:	53465047 	movtpl	r5, #24647	; 0x6047
 168:	00354c45 	eorseq	r4, r5, r5, asr #24
 16c:	72727563 	rsbsvc	r7, r2, #415236096	; 0x18c00000
 170:	6c61765f 	stclvs	6, cr7, [r1], #-380	; 0xfffffe84
 174:	5f006575 	svcpl	0x00006575
 178:	4e55465f 	mrcmi	6, 2, r4, cr5, cr15, {2}
 17c:	4f495443 	svcmi	0x00495443
 180:	005f5f4e 	subseq	r5, pc, lr, asr #30
 184:	726f6873 	rsbvc	r6, pc, #7536640	; 0x730000
 188:	6e752074 	mrcvs	0, 3, r2, cr5, cr4, {3}
 18c:	6e676973 	mcrvs	9, 3, r6, cr7, cr3, {3}
 190:	69206465 	stmdbvs	r0!, {r0, r2, r5, r6, sl, sp, lr}
 194:	6700746e 	strvs	r7, [r0, -lr, ror #8]
 198:	5f6f6970 	svcpl	0x006f6970
 19c:	6c657366 	stclvs	3, cr7, [r5], #-408	; 0xfffffe68
 1a0:	50470030 	subpl	r0, r7, r0, lsr r0
 1a4:	31524c43 	cmpcc	r2, r3, asr #24
 1a8:	69706700 	ldmdbvs	r0!, {r8, r9, sl, sp, lr}^
 1ac:	65725f6f 	ldrbvs	r5, [r2, #-3951]!	; 0xf6f
 1b0:	2f006461 	svccs	0x00006461
 1b4:	72657355 	rsbvc	r7, r5, #1409286145	; 0x54000001
 1b8:	72622f73 	rsbvc	r2, r2, #460	; 0x1cc
 1bc:	6a6e6169 	bvs	1b98768 <__bss_end__+0x1b8e320>
 1c0:	442f6e75 	strtmi	r6, [pc], #-3701	; 1c8 <_start-0x7e38>
 1c4:	746b7365 	strbtvc	r7, [fp], #-869	; 0x365
 1c8:	732f706f 	teqvc	pc, #111	; 0x6f
 1cc:	6f6f6863 	svcvs	0x006f6863
 1d0:	70532f6c 	subsvc	r2, r3, ip, ror #30
 1d4:	676e6972 			; <UNDEFINED> instruction: 0x676e6972
 1d8:	30323931 	eorscc	r3, r2, r1, lsr r9
 1dc:	3253432f 	subscc	r4, r3, #-1140850688	; 0xbc000000
 1e0:	584c3034 	stmdapl	ip, {r2, r4, r5, ip, sp}^
 1e4:	3273632f 	rsbscc	r6, r3, #-1140850688	; 0xbc000000
 1e8:	786c3034 	stmdavc	ip!, {r2, r4, r5, ip, sp}^
 1ec:	7330322d 	teqvc	r0, #-805306366	; 0xd0000002
 1f0:	6c2f7270 	sfmvs	f7, 4, [pc], #-448	; 38 <_start-0x7fc8>
 1f4:	2f736261 	svccs	0x00736261
 1f8:	61752d34 	cmnvs	r5, r4, lsr sp
 1fc:	382d7472 	stmdacc	sp!, {r1, r4, r5, r6, sl, ip, sp, lr}
 200:	742f316e 	strtvc	r3, [pc], #-366	; 208 <_start-0x7df8>
 204:	2d747365 	ldclcs	3, cr7, [r4, #-404]!	; 0xfffffe6c
 208:	006e6567 	rsbeq	r6, lr, r7, ror #10
 20c:	61656c63 	cmnvs	r5, r3, ror #24
 210:	65725f6e 	ldrbvs	r5, [r2, #-3950]!	; 0xf6e
 214:	746f6f62 	strbtvc	r6, [pc], #-3938	; 21c <_start-0x7de4>
 218:	70657200 	rsbvc	r7, r5, r0, lsl #4
 21c:	7300796c 	movwvc	r7, #2412	; 0x96c
 220:	74657a69 	strbtvc	r7, [r5], #-2665	; 0xa69
 224:	00657079 	rsbeq	r7, r5, r9, ror r0
 228:	74756f5f 	ldrbtvc	r6, [r5], #-3935	; 0xf5f
 22c:	736e7500 	cmnvc	lr, #0, 10
 230:	656e6769 	strbvs	r6, [lr, #-1897]!	; 0x769
 234:	68632064 	stmdavs	r3!, {r2, r5, r6, sp}^
 238:	73007261 	movwvc	r7, #609	; 0x261
 23c:	74726f68 	ldrbtvc	r6, [r2], #-3944	; 0xf68
 240:	746e6920 	strbtvc	r6, [lr], #-2336	; 0x920
 244:	43504700 	cmpmi	r0, #0, 14
 248:	0030524c 	eorseq	r5, r0, ip, asr #4
 24c:	616c6564 	cmnvs	ip, r4, ror #10
 250:	736d5f79 	cmnvc	sp, #484	; 0x1e4
 254:	63796300 	cmnvs	r9, #0, 6
 258:	5f73656c 	svcpl	0x0073656c
 25c:	5f726570 	svcpl	0x00726570
 260:	00636573 	rsbeq	r6, r3, r3, ror r5
 264:	6f697067 	svcvs	0x00697067
 268:	7465735f 	strbtvc	r7, [r5], #-863	; 0x35f
 26c:	69660030 	stmdbvs	r6!, {r4, r5}^
 270:	00747372 	rsbseq	r7, r4, r2, ror r3
 274:	6f697067 	svcvs	0x00697067
 278:	7465735f 	strbtvc	r7, [r5], #-863	; 0x35f
 27c:	706e695f 	rsbvc	r6, lr, pc, asr r9
 280:	6c007475 	cfstrsvs	mvf7, [r0], {117}	; 0x75
 284:	00747361 	rsbseq	r7, r4, r1, ror #6
 288:	6f697067 	svcvs	0x00697067
 28c:	7465735f 	strbtvc	r7, [r5], #-863	; 0x35f
 290:	74756f5f 	ldrbtvc	r6, [r5], #-3935	; 0xf5f
 294:	00747570 	rsbseq	r7, r4, r0, ror r5
 298:	62616e65 	rsbvs	r6, r1, #1616	; 0x650
 29c:	635f656c 	cmpvs	pc, #108, 10	; 0x1b000000
 2a0:	65686361 	strbvs	r6, [r8, #-865]!	; 0x361
 2a4:	6e697500 	cdpvs	5, 6, cr7, cr9, cr0, {0}
 2a8:	745f3874 	ldrbvc	r3, [pc], #-2164	; 2b0 <_start-0x7d50>
 2ac:	73657400 	cmnvc	r5, #0, 8
 2b0:	65672d74 	strbvs	r2, [r7, #-3444]!	; 0xd74
 2b4:	00632e6e 	rsbeq	r2, r3, lr, ror #28
 2b8:	6f697067 	svcvs	0x00697067
 2bc:	726c635f 	rsbvc	r6, ip, #2080374785	; 0x7c000001
 2c0:	5f5f0030 	svcpl	0x005f0030
 2c4:	63756e67 	cmnvs	r5, #1648	; 0x670
 2c8:	5f61765f 	svcpl	0x0061765f
 2cc:	7473696c 	ldrbtvc	r6, [r3], #-2412	; 0x96c
 2d0:	62696c00 	rsbvs	r6, r9, #0, 24
 2d4:	72702f63 	rsbsvc	r2, r0, #396	; 0x18c
 2d8:	6b746e69 	blvs	1d1bc84 <__bss_end__+0x1d1183c>
 2dc:	4700632e 	strmi	r6, [r0, -lr, lsr #6]
 2e0:	4320554e 	teqmi	r0, #327155712	; 0x13800000
 2e4:	382e3420 	stmdacc	lr!, {r5, sl, ip, sp}
 2e8:	2d20332e 	stccs	3, cr3, [r0, #-184]!	; 0xffffff48
 2ec:	7570636d 	ldrbvc	r6, [r0, #-877]!	; 0x36d
 2f0:	6d72613d 	ldfvse	f6, [r2, #-244]!	; 0xffffff0c
 2f4:	36373131 			; <UNDEFINED> instruction: 0x36373131
 2f8:	2d667a6a 	vstmdbcs	r6!, {s15-s120}
 2fc:	6d2d2073 	stcvs	0, cr2, [sp, #-460]!	; 0xfffffe34
 300:	656e7574 	strbvs	r7, [lr, #-1396]!	; 0x574
 304:	6d72613d 	ldfvse	f6, [r2, #-244]!	; 0xffffff0c
 308:	36373131 			; <UNDEFINED> instruction: 0x36373131
 30c:	2d667a6a 	vstmdbcs	r6!, {s15-s120}
 310:	672d2073 			; <UNDEFINED> instruction: 0x672d2073
 314:	20626467 	rsbcs	r6, r2, r7, ror #8
 318:	20674f2d 	rsbcs	r4, r7, sp, lsr #30
 31c:	6474732d 	ldrbtvs	r7, [r4], #-813	; 0x32d
 320:	756e673d 	strbvc	r6, [lr, #-1853]!	; 0x73d
 324:	2d203939 	stccs	9, cr3, [r0, #-228]!	; 0xffffff1c
 328:	65726666 	ldrbvs	r6, [r2, #-1638]!	; 0x666
 32c:	61747365 	cmnvs	r4, r5, ror #6
 330:	6e69646e 	cdpvs	4, 6, cr6, cr9, cr14, {3}
 334:	61760067 	cmnvs	r6, r7, rrx
 338:	6972705f 	ldmdbvs	r2!, {r0, r1, r2, r3, r4, r6, ip, sp, lr}^
 33c:	006b746e 	rsbeq	r7, fp, lr, ror #8
 340:	61765f5f 	cmnvs	r6, pc, asr pc
 344:	73696c5f 	cmnvc	r9, #24320	; 0x5f00
 348:	552f0074 	strpl	r0, [pc, #-116]!	; 2dc <_start-0x7d24>
 34c:	73726573 	cmnvc	r2, #482344960	; 0x1cc00000
 350:	6972622f 	ldmdbvs	r2!, {r0, r1, r2, r3, r5, r9, sp, lr}^
 354:	756a6e61 	strbvc	r6, [sl, #-3681]!	; 0xe61
 358:	65442f6e 	strbvs	r2, [r4, #-3950]	; 0xf6e
 35c:	6f746b73 	svcvs	0x00746b73
 360:	63732f70 	cmnvs	r3, #112, 30	; 0x1c0
 364:	6c6f6f68 	stclvs	15, cr6, [pc], #-416	; 1cc <_start-0x7e34>
 368:	6e69572f 	cdpvs	7, 6, cr5, cr9, cr15, {1}
 36c:	31726574 	cmncc	r2, r4, ror r5
 370:	2f303239 	svccs	0x00303239
 374:	34315343 	ldrtcc	r5, [r1], #-835	; 0x343
 378:	632f4530 	teqvs	pc, #48, 10	; 0xc000000
 37c:	30343173 	eorscc	r3, r4, r3, ror r1
 380:	30322d65 	eorscc	r2, r2, r5, ror #26
 384:	2f6e6977 	svccs	0x006e6977
 388:	7062696c 	rsbvc	r6, r2, ip, ror #18
 38c:	72610069 	rsbvc	r0, r1, #105	; 0x69
 390:	5f007367 	svcpl	0x00007367
 394:	0070615f 	rsbseq	r6, r0, pc, asr r1
 398:	65746e69 	ldrbvs	r6, [r4, #-3689]!	; 0xe69
 39c:	6c616e72 	stclvs	14, cr6, [r1], #-456	; 0xfffffe38
 3a0:	7475705f 	ldrbtvc	r7, [r5], #-95	; 0x5f
 3a4:	72616863 	rsbvc	r6, r1, #6488064	; 0x630000
 3a8:	69707200 	ldmdbvs	r0!, {r9, ip, sp, lr}^
 3ac:	7475705f 	ldrbtvc	r7, [r5], #-95	; 0x5f
 3b0:	72616863 	rsbvc	r6, r1, #6488064	; 0x630000
 3b4:	62696c00 	rsbvs	r6, r9, #0, 24
 3b8:	75702f63 	ldrbvc	r2, [r0, #-3939]!	; 0xf63
 3bc:	61686374 	smcvs	34356	; 0x8634
 3c0:	00632e72 	rsbeq	r2, r3, r2, ror lr
 3c4:	5f697072 	svcpl	0x00697072
 3c8:	5f746573 	svcpl	0x00746573
 3cc:	63747570 	cmnvs	r4, #112, 10	; 0x1c000000
 3d0:	62696c00 	rsbvs	r6, r9, #0, 24
 3d4:	75702f63 	ldrbvc	r2, [r0, #-3939]!	; 0xf63
 3d8:	632e6b74 	teqvs	lr, #116, 22	; 0x1d000
 3dc:	746e6900 	strbtvc	r6, [lr], #-2304	; 0x900
 3e0:	616e7265 	cmnvs	lr, r5, ror #4
 3e4:	75705f6c 	ldrbvc	r5, [r0, #-3948]!	; 0xf6c
 3e8:	6e006b74 	vmovvs.16	d0[1], r6
 3ec:	705f6765 	subsvc	r6, pc, r5, ror #14
 3f0:	76657200 	strbtvc	r7, [r5], -r0, lsl #4
 3f4:	65737265 	ldrbvs	r7, [r3, #-613]!	; 0x265
 3f8:	64736900 	ldrbtvs	r6, [r3], #-2304	; 0x900
 3fc:	74696769 	strbtvc	r6, [r9], #-1897	; 0x769
 400:	74757000 	ldrbtvc	r7, [r5], #-0
 404:	70665f73 	rsbvc	r5, r6, r3, ror pc
 408:	73616200 	cmnvc	r1, #0, 4
 40c:	69730065 	ldmdbvs	r3!, {r0, r2, r5, r6}^
 410:	64656e67 	strbtvs	r6, [r5], #-3687	; 0xe67
 414:	6c00705f 	stcvs	0, cr7, [r0], {95}	; 0x5f
 418:	2f636269 	svccs	0x00636269
 41c:	702d6176 	eorvc	r6, sp, r6, ror r1
 420:	746e6972 	strbtvc	r6, [lr], #-2418	; 0x972
 424:	00632e6b 	rsbeq	r2, r3, fp, ror #28
 428:	5f697072 	svcpl	0x00697072
 42c:	5f746573 	svcpl	0x00746573
 430:	7074756f 	rsbsvc	r7, r4, pc, ror #10
 434:	77007475 	smlsdxvc	r0, r5, r4, r7
 438:	68746469 	ldmdavs	r4!, {r0, r3, r5, r6, sl, sp, lr}^
 43c:	74757000 	ldrbtvc	r7, [r5], #-0
 440:	70665f63 	rsbvc	r5, r6, r3, ror #30
 444:	696d6500 	stmdbvs	sp!, {r8, sl, sp, lr}^
 448:	69640074 	stmdbvs	r4!, {r2, r4, r5, r6}^
 44c:	6c626173 	stfvse	f6, [r2], #-460	; 0xfffffe34
 450:	61635f65 	cmnvs	r3, r5, ror #30
 454:	00656863 	rsbeq	r6, r5, r3, ror #16
 458:	34317363 	ldrtcc	r7, [r1], #-867	; 0x363
 45c:	732d6530 	teqvc	sp, #48, 10	; 0xc000000
 460:	632f6372 	teqvs	pc, #-939524095	; 0xc8000001
 464:	65686361 	strbvs	r6, [r8, #-865]!	; 0x361
 468:	7200632e 	andvc	r6, r0, #-1207959552	; 0xb8000000
 46c:	725f6970 	subsvc	r6, pc, #112, 18	; 0x1c0000
 470:	6f6f6265 	svcvs	0x006f6265
 474:	73630074 	cmnvc	r3, #116	; 0x74
 478:	65303431 	ldrvs	r3, [r0, #-1073]!	; 0x431
 47c:	6372732d 	cmnvs	r2, #-1275068416	; 0xb4000000
 480:	656c632f 	strbvs	r6, [ip, #-815]!	; 0x32f
 484:	722d6e61 	eorvc	r6, sp, #1552	; 0x610
 488:	6f6f6265 	svcvs	0x006f6265
 48c:	00632e74 	rsbeq	r2, r3, r4, ror lr
 490:	65746e69 	ldrbvs	r6, [r4, #-3689]!	; 0xe69
 494:	6c616e72 	stclvs	14, cr6, [r1], #-456	; 0xfffffe38
 498:	5f77735f 	svcpl	0x0077735f
 49c:	63747570 	cmnvs	r4, #112, 10	; 0x1c000000
 4a0:	00726168 	rsbseq	r6, r2, r8, ror #2
 4a4:	73625f5f 	cmnvc	r2, #380	; 0x17c
 4a8:	74735f73 	ldrbtvc	r5, [r3], #-3955	; 0xf73
 4ac:	5f747261 	svcpl	0x00747261
 4b0:	7362005f 	cmnvc	r2, #95	; 0x5f
 4b4:	6e655f73 	mcrvs	15, 3, r5, cr5, cr3, {3}
 4b8:	79630064 	stmdbvc	r3!, {r2, r5, r6}^
 4bc:	5f656c63 	svcpl	0x00656c63
 4c0:	5f726570 	svcpl	0x00726570
 4c4:	00746962 	rsbseq	r6, r4, r2, ror #18
 4c8:	736e6f63 	cmnvc	lr, #396	; 0x18c
 4cc:	5f656c6f 	svcpl	0x00656c6f
 4d0:	74726175 	ldrbtvc	r6, [r2], #-373	; 0x175
 4d4:	5f777300 	svcpl	0x00777300
 4d8:	74726175 	ldrbtvc	r6, [r2], #-373	; 0x175
 4dc:	6972705f 	ldmdbvs	r2!, {r0, r1, r2, r3, r4, r6, ip, sp, lr}^
 4e0:	006b746e 	rsbeq	r7, fp, lr, ror #8
 4e4:	43545550 	cmpmi	r4, #80, 10	; 0x14000000
 4e8:	5053455f 	subspl	r4, r3, pc, asr r5
 4ec:	5241555f 	subpl	r5, r1, #398458880	; 0x17c00000
 4f0:	77730054 			; <UNDEFINED> instruction: 0x77730054
 4f4:	7261755f 	rsbvc	r7, r1, #398458880	; 0x17c00000
 4f8:	00745f74 	rsbseq	r5, r4, r4, ror pc
 4fc:	43545550 	cmpmi	r4, #80, 10	; 0x14000000
 500:	5f57535f 	svcpl	0x0057535f
 504:	54524155 	ldrbpl	r4, [r2], #-341	; 0x155
 508:	75616200 	strbvc	r6, [r1, #-512]!	; 0x200
 50c:	55500064 	ldrbpl	r0, [r0, #-100]	; 0x64
 510:	485f4354 	ldmdami	pc, {r2, r4, r6, r8, r9, lr}^	; <UNPREDICTABLE>
 514:	41555f57 	cmpmi	r5, r7, asr pc
 518:	5f005452 	svcpl	0x00005452
 51c:	61747363 	cmnvs	r4, r3, ror #6
 520:	75007472 	strvc	r7, [r0, #-1138]	; 0x472
 524:	5f747261 	svcpl	0x00747261
 528:	5f766564 	svcpl	0x00766564
 52c:	77730074 			; <UNDEFINED> instruction: 0x77730074
 530:	7261755f 	rsbvc	r7, r1, #398458880	; 0x17c00000
 534:	75705f74 	ldrbvc	r5, [r0, #-3956]!	; 0xf74
 538:	63006374 	movwvs	r6, #884	; 0x374
 53c:	72746e6f 	rsbsvc	r6, r4, #1776	; 0x6f0
 540:	625f6c6f 	subsvs	r6, pc, #28416	; 0x6f00
 544:	745f6b6c 	ldrbvc	r6, [pc], #-2924	; 54c <_start-0x7ab4>
 548:	5f777300 	svcpl	0x00777300
 54c:	74726175 	ldrbtvc	r6, [r2], #-373	; 0x175
 550:	5f626300 	svcpl	0x00626300
 554:	5f746567 	svcpl	0x00746567
 558:	636f6c62 	cmnvs	pc, #25088	; 0x6200
 55c:	5f5f006b 	svcpl	0x005f006b
 560:	5f737362 	svcpl	0x00737362
 564:	5f646e65 	svcpl	0x00646e65
 568:	7363005f 	cmnvc	r3, #95	; 0x5f
 56c:	65303431 	ldrvs	r3, [r0, #-1073]!	; 0x431
 570:	6372732d 	cmnvs	r2, #-1275068416	; 0xb4000000
 574:	7473632f 	ldrbtvc	r6, [r3], #-815	; 0x32f
 578:	2e747261 	cdpcs	2, 7, cr7, cr4, cr1, {3}
 57c:	6f630063 	svcvs	0x00630063
 580:	6c6f736e 	stclvs	3, cr7, [pc], #-440	; 3d0 <_start-0x7c30>
 584:	65645f65 	strbvs	r5, [r4, #-3941]!	; 0xf65
 588:	69750076 	ldmdbvs	r5!, {r1, r2, r4, r5, r6}^
 58c:	3233746e 	eorscc	r7, r3, #1845493760	; 0x6e000000
 590:	6d00745f 	cfstrsvs	mvf7, [r0, #-380]	; 0xfffffe84
 594:	63696761 	cmnvs	r9, #25427968	; 0x1840000
 598:	5f746100 	svcpl	0x00746100
 59c:	72657375 	rsbvc	r7, r5, #-738197503	; 0xd4000001
 5a0:	76656c5f 			; <UNDEFINED> instruction: 0x76656c5f
 5a4:	50006c65 	andpl	r6, r0, r5, ror #24
 5a8:	41505f4d 	cmpmi	r0, sp, asr #30
 5ac:	4f575353 	svcmi	0x00575353
 5b0:	63004452 	movwvs	r4, #1106	; 0x452
 5b4:	30343173 	eorscc	r3, r4, r3, ror r1
 5b8:	72732d65 	rsbsvc	r2, r3, #6464	; 0x1940
 5bc:	65722f63 	ldrbvs	r2, [r2, #-3939]!	; 0xf63
 5c0:	746f6f62 	strbtvc	r6, [pc], #-3938	; 5c8 <_start-0x7a38>
 5c4:	5000632e 	andpl	r6, r0, lr, lsr #6
 5c8:	53525f4d 	cmppl	r2, #308	; 0x134
 5cc:	575f4354 			; <UNDEFINED> instruction: 0x575f4354
 5d0:	47464352 	smlsldmi	r4, r6, r2, r3
 5d4:	4c55465f 	mrrcmi	6, 5, r4, r5, cr15
 5d8:	45525f4c 	ldrbmi	r5, [r2, #-3916]	; 0xf4c
 5dc:	00544553 	subseq	r4, r4, r3, asr r5
 5e0:	575f4d50 			; <UNDEFINED> instruction: 0x575f4d50
 5e4:	00474f44 	subeq	r4, r7, r4, asr #30
 5e8:	5f746573 	svcpl	0x00746573
 5ec:	72657375 	rsbvc	r7, r5, #-738197503	; 0xd4000001
 5f0:	76656c5f 			; <UNDEFINED> instruction: 0x76656c5f
 5f4:	50006c65 	andpl	r6, r0, r5, ror #24
 5f8:	32335455 	eorscc	r5, r3, #1426063360	; 0x55000000
 5fc:	5f4d5000 	svcpl	0x004d5000
 600:	43545352 	cmpmi	r4, #1207959553	; 0x48000001
 604:	73706300 	cmnvc	r0, #0, 6
 608:	69740072 	ldmdbvs	r4!, {r1, r4, r5, r6}^
 60c:	5f72656d 	svcpl	0x0072656d
 610:	5f746567 	svcpl	0x00746567
 614:	63657375 	cmnvs	r5, #-738197503	; 0xd4000001
 618:	7761725f 			; <UNDEFINED> instruction: 0x7761725f
 61c:	6c656400 	cfstrdvs	mvd6, [r5], #-0
 620:	735f7961 	cmpvc	pc, #1589248	; 0x184000
 624:	63006365 	movwvs	r6, #869	; 0x365
 628:	30343173 	eorscc	r3, r4, r3, ror r1
 62c:	72732d65 	rsbsvc	r2, r3, #6464	; 0x1940
 630:	69742f63 	ldmdbvs	r4!, {r0, r1, r5, r6, r8, r9, sl, fp, sp}^
 634:	2e72656d 	cdpcs	5, 7, cr6, cr2, cr13, {3}
 638:	45470063 	strbmi	r0, [r7, #-99]	; 0x63
 63c:	00323354 	eorseq	r3, r2, r4, asr r3
 640:	6b636974 	blvs	18dac18 <__bss_end__+0x18d07d0>
 644:	65640073 	strbvs	r0, [r4, #-115]!	; 0x73
 648:	5f79616c 	svcpl	0x0079616c
 64c:	6c637963 	stclvs	9, cr7, [r3], #-396	; 0xfffffe74
 650:	64007365 	strvs	r7, [r0], #-869	; 0x365
 654:	79616c65 	stmdbvc	r1!, {r0, r2, r5, r6, sl, fp, sp, lr}^
 658:	0073755f 	rsbseq	r7, r3, pc, asr r5
 65c:	656d6974 	strbvs	r6, [sp, #-2420]!	; 0x974
 660:	65675f72 	strbvs	r5, [r7, #-3954]!	; 0xf72
 664:	73755f74 	cmnvc	r5, #116, 30	; 0x1d0
 668:	67006365 	strvs	r6, [r0, -r5, ror #6]
 66c:	5f6f6970 	svcpl	0x006f6970
 670:	6e657665 	cdpvs	6, 6, cr7, cr5, cr5, {3}
 674:	65645f74 	strbvs	r5, [r4, #-3956]!	; 0xf74
 678:	74636574 	strbtvc	r6, [r3], #-1396	; 0x574
 67c:	70006465 	andvc	r6, r0, r5, ror #8
 680:	32337475 	eorscc	r7, r3, #1962934272	; 0x75000000
 684:	414e4500 	cmpmi	lr, r0, lsl #10
 688:	5f454c42 	svcpl	0x00454c42
 68c:	53515249 	cmppl	r1, #-1879048188	; 0x90000004
 690:	6900325f 	stmdbvs	r0, {r0, r1, r2, r3, r4, r6, r9, ip, sp}
 694:	70675f73 	rsbvc	r5, r7, r3, ror pc
 698:	695f6f69 	ldmdbvs	pc, {r0, r3, r5, r6, r8, r9, sl, fp, sp, lr}^	; <UNPREDICTABLE>
 69c:	4700746e 	strmi	r7, [r0, -lr, ror #8]
 6a0:	5f4f4950 	svcpl	0x004f4950
 6a4:	434e5546 	movtmi	r5, #58694	; 0xe546
 6a8:	504e495f 	subpl	r4, lr, pc, asr r9
 6ac:	6d005455 	cfstrsvs	mvf5, [r0, #-340]	; 0xfffffeac
 6b0:	72732d79 	rsbsvc	r2, r3, #7744	; 0x1e40
 6b4:	70672f63 	rsbvc	r2, r7, r3, ror #30
 6b8:	632e6f69 	teqvs	lr, #420	; 0x1a4
 6bc:	746e6900 	strbtvc	r6, [lr], #-2304	; 0x900
 6c0:	73616d5f 	cmnvc	r1, #6080	; 0x17c0
 6c4:	6572006b 	ldrbvs	r0, [r2, #-107]!	; 0x6b
 6c8:	74735f67 	ldrbtvc	r5, [r3], #-3943	; 0xf67
 6cc:	67007461 	strvs	r7, [r0, -r1, ror #8]
 6d0:	5f6f6970 	svcpl	0x006f6970
 6d4:	00676572 	rsbeq	r6, r7, r2, ror r5
 6d8:	5f766564 	svcpl	0x00766564
 6dc:	72726162 	rsbsvc	r6, r2, #-2147483624	; 0x80000018
 6e0:	00726569 	rsbseq	r6, r2, r9, ror #10
 6e4:	6f697067 	svcvs	0x00697067
 6e8:	746e695f 	strbtvc	r6, [lr], #-2399	; 0x95f
 6ec:	7369725f 	cmnvc	r9, #-268435451	; 0xf0000005
 6f0:	5f676e69 	svcpl	0x00676e69
 6f4:	65676465 	strbvs	r6, [r7, #-1125]!	; 0x465
 6f8:	69706700 	ldmdbvs	r0!, {r8, r9, sl, sp, lr}^
 6fc:	65735f6f 	ldrbvs	r5, [r3, #-3951]!	; 0xf6f
 700:	75665f74 	strbvc	r5, [r6, #-3956]!	; 0xf74
 704:	6974636e 	ldmdbvs	r4!, {r1, r2, r3, r5, r6, r8, r9, sp, lr}^
 708:	47006e6f 	strmi	r6, [r0, -pc, ror #28]
 70c:	4e455250 	mcrmi	2, 2, r5, cr5, cr0, {2}
 710:	50470030 	subpl	r0, r7, r0, lsr r0
 714:	314e4552 	cmpcc	lr, r2, asr r5
 718:	69706700 	ldmdbvs	r0!, {r8, r9, sl, sp, lr}^
 71c:	76655f6f 	strbtvc	r5, [r5], -pc, ror #30
 720:	5f746e65 	svcpl	0x00746e65
 724:	61656c63 	cmnvs	r5, r3, ror #24
 728:	52490072 	subpl	r0, r9, #114	; 0x72
 72c:	45505f51 	ldrbmi	r5, [r0, #-3921]	; 0xf51
 730:	4e49444e 	cdpmi	4, 4, cr4, cr9, cr14, {2}
 734:	00315f47 	eorseq	r5, r1, r7, asr #30
 738:	5f515249 	svcpl	0x00515249
 73c:	444e4550 	strbmi	r4, [lr], #-1360	; 0x550
 740:	5f474e49 	svcpl	0x00474e49
 744:	69620032 	stmdbvs	r2!, {r1, r4, r5}^
 748:	73616d74 	cmnvc	r1, #116, 26	; 0x1d00
 74c:	7566006b 	strbvc	r0, [r6, #-107]!	; 0x6b
 750:	6700636e 	strvs	r6, [r0, -lr, ror #6]
 754:	5f6f6970 	svcpl	0x006f6970
 758:	67676f74 			; <UNDEFINED> instruction: 0x67676f74
 75c:	4700656c 	strmi	r6, [r0, -ip, ror #10]
 760:	53444550 	movtpl	r4, #17744	; 0x4550
 764:	50470030 	subpl	r0, r7, r0, lsr r0
 768:	31534445 	cmpcc	r3, r5, asr #8
 76c:	46504700 	ldrbmi	r4, [r0], -r0, lsl #14
 770:	00304e45 	eorseq	r4, r0, r5, asr #28
 774:	45465047 	strbmi	r5, [r6, #-71]	; 0x47
 778:	4700314e 	strmi	r3, [r0, -lr, asr #2]
 77c:	5f4f4950 	svcpl	0x004f4950
 780:	434e5546 	movtmi	r5, #58694	; 0xe546
 784:	54554f5f 	ldrbpl	r4, [r5], #-3935	; 0xf5f
 788:	00545550 	subseq	r5, r4, r0, asr r5
 78c:	33746567 	cmncc	r4, #432013312	; 0x19c00000
 790:	70670032 	rsbvc	r0, r7, r2, lsr r0
 794:	695f6f69 	ldmdbvs	pc, {r0, r3, r5, r6, r8, r9, sl, fp, sp, lr}^	; <UNPREDICTABLE>
 798:	665f746e 	ldrbvs	r7, [pc], -lr, ror #8
 79c:	696c6c61 	stmdbvs	ip!, {r0, r5, r6, sl, fp, sp, lr}^
 7a0:	655f676e 	ldrbvs	r6, [pc, #-1902]	; 3a <_start-0x7fc6>
 7a4:	00656764 	rsbeq	r6, r5, r4, ror #14
 7a8:	6f697067 	svcvs	0x00697067
 7ac:	6e75665f 	mrcvs	6, 3, r6, cr5, cr15, {2}
 7b0:	00745f63 	rsbseq	r5, r4, r3, ror #30
 7b4:	4f495047 	svcmi	0x00495047
 7b8:	4e55465f 	mrcmi	6, 2, r4, cr5, cr15, {2}
 7bc:	4c415f43 	mcrrmi	15, 4, r5, r1, cr3
 7c0:	47003054 	smlsdmi	r0, r4, r0, r3
 7c4:	5f4f4950 	svcpl	0x004f4950
 7c8:	434e5546 	movtmi	r5, #58694	; 0xe546
 7cc:	544c415f 	strbpl	r4, [ip], #-351	; 0x15f
 7d0:	50470031 	subpl	r0, r7, r1, lsr r0
 7d4:	465f4f49 	ldrbmi	r4, [pc], -r9, asr #30
 7d8:	5f434e55 	svcpl	0x00434e55
 7dc:	32544c41 	subscc	r4, r4, #16640	; 0x4100
 7e0:	49504700 	ldmdbmi	r0, {r8, r9, sl, lr}^
 7e4:	55465f4f 	strbpl	r5, [r6, #-3919]	; 0xf4f
 7e8:	415f434e 	cmpmi	pc, lr, asr #6
 7ec:	0033544c 	eorseq	r5, r3, ip, asr #8
 7f0:	4f495047 	svcmi	0x00495047
 7f4:	4e55465f 	mrcmi	6, 2, r4, cr5, cr15, {2}
 7f8:	4c415f43 	mcrrmi	15, 4, r5, r1, cr3
 7fc:	47003454 	smlsdmi	r0, r4, r4, r3
 800:	5f4f4950 	svcpl	0x004f4950
 804:	434e5546 	movtmi	r5, #58694	; 0xe546
 808:	544c415f 	strbpl	r4, [ip], #-351	; 0x15f
 80c:	65720035 	ldrbvs	r0, [r2, #-53]!	; 0x35
 810:	65735f67 	ldrbvs	r5, [r3, #-3943]!	; 0xf67
 814:	7463656c 	strbtvc	r6, [r3], #-1388	; 0x56c
 818:	63796300 	cmnvs	r9, #0, 6
 81c:	7265705f 	rsbvc	r7, r5, #95	; 0x5f
 820:	7469625f 	strbtvc	r6, [r9], #-607	; 0x25f
 824:	69727700 	ldmdbvs	r2!, {r8, r9, sl, ip, sp, lr}^
 828:	635f6574 	cmpvs	pc, #116, 10	; 0x1d000000
 82c:	755f6379 	ldrbvc	r6, [pc, #-889]	; 4bb <_start-0x7b45>
 830:	6c69746e 	cfstrdvs	mvd7, [r9], #-440	; 0xfffffe48
 834:	5f777300 	svcpl	0x00777300
 838:	74726175 	ldrbtvc	r6, [r2], #-373	; 0x175
 83c:	7465675f 	strbtvc	r6, [r5], #-1887	; 0x75f
 840:	69745f63 	ldmdbvs	r4!, {r0, r1, r5, r6, r8, r9, sl, fp, ip, lr}^
 844:	756f656d 	strbvc	r6, [pc, #-1389]!	; 2df <_start-0x7d21>
 848:	77730074 			; <UNDEFINED> instruction: 0x77730074
 84c:	7261755f 	rsbvc	r7, r1, #398458880	; 0x17c00000
 850:	65675f74 	strbvs	r5, [r7, #-3956]!	; 0xf74
 854:	755f7374 	ldrbvc	r7, [pc, #-884]	; 4e8 <_start-0x7b18>
 858:	6c69746e 	cfstrdvs	mvd7, [r9], #-440	; 0xfffffe48
 85c:	5f777300 	svcpl	0x00777300
 860:	74726175 	ldrbtvc	r6, [r2], #-373	; 0x175
 864:	7465675f 	strbtvc	r6, [r5], #-1887	; 0x75f
 868:	65640063 	strbvs	r0, [r4, #-99]!	; 0x63
 86c:	65766972 	ldrbvs	r6, [r6, #-2418]!	; 0x972
 870:	65640064 	strbvs	r0, [r4, #-100]!	; 0x64
 874:	5f79616c 	svcpl	0x0079616c
 878:	6379636e 	cmnvs	r9, #-1207959551	; 0xb8000001
 87c:	0073656c 	rsbseq	r6, r3, ip, ror #10
 880:	755f7773 	ldrbvc	r7, [pc, #-1907]	; 115 <_start-0x7eeb>
 884:	5f747261 	svcpl	0x00747261
 888:	74696e69 	strbtvc	r6, [r9], #-3689	; 0xe69
 88c:	6c65685f 	stclvs	8, cr6, [r5], #-380	; 0xfffffe84
 890:	00726570 	rsbseq	r6, r2, r0, ror r5
 894:	656d6974 	strbvs	r6, [sp, #-2420]!	; 0x974
 898:	5f74756f 	svcpl	0x0074756f
 89c:	63657375 	cmnvs	r5, #-738197503	; 0xd4000001
 8a0:	5f777300 	svcpl	0x00777300
 8a4:	74726175 	ldrbtvc	r6, [r2], #-373	; 0x175
 8a8:	7475705f 	ldrbtvc	r7, [r5], #-95	; 0x5f
 8ac:	796d006b 	stmdbvc	sp!, {r0, r1, r3, r5, r6}^
 8b0:	6372732d 	cmnvs	r2, #-1275068416	; 0xb4000000
 8b4:	2d77732f 	ldclcs	3, cr7, [r7, #-188]!	; 0xffffff44
 8b8:	74726175 	ldrbtvc	r6, [r2], #-373	; 0x175
 8bc:	6300632e 	movwvs	r6, #814	; 0x32e
 8c0:	5f726168 	svcpl	0x00726168
 8c4:	73006e69 	movwvc	r6, #3689	; 0xe69
 8c8:	61755f77 	cmnvs	r5, r7, ror pc
 8cc:	675f7472 			; <UNDEFINED> instruction: 0x675f7472
 8d0:	5f737465 	svcpl	0x00737465
 8d4:	656d6974 	strbvs	r6, [sp, #-2420]!	; 0x974
 8d8:	0074756f 	rsbseq	r7, r4, pc, ror #10
 8dc:	7479626e 	ldrbtvc	r6, [r9], #-622	; 0x26e
 8e0:	75007365 	strvc	r7, [r0, #-869]	; 0x365
 8e4:	5f636573 	svcpl	0x00636573
 8e8:	656d6974 	strbvs	r6, [sp, #-2420]!	; 0x974
 8ec:	0074756f 	rsbseq	r7, r4, pc, ror #10
 8f0:	755f7773 	ldrbvc	r7, [pc, #-1907]	; 185 <_start-0x7e7b>
 8f4:	5f747261 	svcpl	0x00747261
 8f8:	73746567 	cmnvc	r4, #432013312	; 0x19c00000
 8fc:	746e755f 	strbtvc	r7, [lr], #-1375	; 0x55f
 900:	625f6c69 	subsvs	r6, pc, #26880	; 0x6900
 904:	77006b6c 	strvc	r6, [r0, -ip, ror #22]
 908:	5f746961 	svcpl	0x00746961
 90c:	69746e75 	ldmdbvs	r4!, {r0, r2, r4, r5, r6, r9, sl, fp, sp, lr}^
 910:	73755f6c 	cmnvc	r5, #108, 30	; 0x1b0
 914:	41006365 	tstmi	r0, r5, ror #6
 918:	4d5f5855 	ldclmi	8, cr5, [pc, #-340]	; 7cc <_start-0x7834>
 91c:	434d5f55 	movtmi	r5, #57173	; 0xdf55
 920:	45525f52 	ldrbmi	r5, [r2, #-3922]	; 0xf52
 924:	55410047 	strbpl	r0, [r1, #-71]	; 0x47
 928:	554d5f58 	strbpl	r5, [sp, #-3928]	; 0xf58
 92c:	5f4f495f 	svcpl	0x004f495f
 930:	00474552 	subeq	r4, r7, r2, asr r5
 934:	5f585541 	svcpl	0x00585541
 938:	4d5f554d 	cfldr64mi	mvdx5, [pc, #-308]	; 80c <_start-0x77f4>
 93c:	525f5253 	subspl	r5, pc, #805306373	; 0x30000005
 940:	75004745 	strvc	r4, [r0, #-1861]	; 0x745
 944:	5f747261 	svcpl	0x00747261
 948:	5f6e6163 	svcpl	0x006e6163
 94c:	63746567 	cmnvs	r4, #432013312	; 0x19c00000
 950:	58554100 	ldmdapl	r5, {r8, lr}^
 954:	5f554d5f 	svcpl	0x00554d5f
 958:	4c544e43 	mrrcmi	14, 4, r4, r4, cr3	; <UNPREDICTABLE>
 95c:	4745525f 	smlsldmi	r5, r5, pc, r2	; <UNPREDICTABLE>
 960:	72617500 	rsbvc	r7, r1, #0, 10
 964:	61685f74 	smcvs	34292	; 0x85f4
 968:	61645f73 	smcvs	17907	; 0x45f3
 96c:	75006174 	strvc	r6, [r0, #-372]	; 0x174
 970:	5f747261 	svcpl	0x00747261
 974:	74696e69 	strbtvc	r6, [r9], #-3689	; 0xe69
 978:	58554100 	ldmdapl	r5, {r8, lr}^
 97c:	5f554d5f 	svcpl	0x00554d5f
 980:	5f524549 	svcpl	0x00524549
 984:	00474552 	subeq	r4, r7, r2, asr r5
 988:	5f585541 	svcpl	0x00585541
 98c:	495f554d 	ldmdbmi	pc, {r0, r2, r3, r6, r8, sl, ip, lr}^	; <UNPREDICTABLE>
 990:	525f5249 	subspl	r5, pc, #-1879048188	; 0x90000004
 994:	75004745 	strvc	r4, [r0, #-1861]	; 0x745
 998:	5f747261 	svcpl	0x00747261
 99c:	5f6e6163 	svcpl	0x006e6163
 9a0:	63747570 	cmnvs	r4, #112, 10	; 0x1c000000
 9a4:	58554100 	ldmdapl	r5, {r8, lr}^
 9a8:	414e455f 	cmpmi	lr, pc, asr r5
 9ac:	53454c42 	movtpl	r4, #23618	; 0x5c42
 9b0:	58554100 	ldmdapl	r5, {r8, lr}^
 9b4:	5152495f 	cmppl	r2, pc, asr r9
 9b8:	58554100 	ldmdapl	r5, {r8, lr}^
 9bc:	5f554d5f 	svcpl	0x00554d5f
 9c0:	44554142 	ldrbmi	r4, [r5], #-322	; 0x142
 9c4:	4745525f 	smlsldmi	r5, r5, pc, r2	; <UNPREDICTABLE>
 9c8:	58554100 	ldmdapl	r5, {r8, lr}^
 9cc:	5f554d5f 	svcpl	0x00554d5f
 9d0:	54415453 	strbpl	r5, [r1], #-1107	; 0x453
 9d4:	4745525f 	smlsldmi	r5, r5, pc, r2	; <UNPREDICTABLE>
 9d8:	58554100 	ldmdapl	r5, {r8, lr}^
 9dc:	5f554d5f 	svcpl	0x00554d5f
 9e0:	41524353 	cmpmi	r2, r3, asr r3
 9e4:	00484354 	subeq	r4, r8, r4, asr r3
 9e8:	732d796d 	teqvc	sp, #1785856	; 0x1b4000
 9ec:	752f6372 	strvc	r6, [pc, #-882]!	; 682 <_start-0x797e>
 9f0:	2e747261 	cdpcs	2, 7, cr7, cr4, cr1, {3}
 9f4:	55410063 	strbpl	r0, [r1, #-99]	; 0x63
 9f8:	554d5f58 	strbpl	r5, [sp, #-3928]	; 0xf58
 9fc:	52434c5f 	subpl	r4, r3, #24320	; 0x5f00
 a00:	4745525f 	smlsldmi	r5, r5, pc, r2	; <UNPREDICTABLE>
 a04:	58554100 	ldmdapl	r5, {r8, lr}^
 a08:	5f554d5f 	svcpl	0x00554d5f
 a0c:	5f52534c 	svcpl	0x0052534c
 a10:	00474552 	subeq	r4, r7, r2, asr r5
 a14:	74726175 	ldrbtvc	r6, [r2], #-373	; 0x175
 a18:	7465675f 	strbtvc	r6, [r5], #-1887	; 0x75f
 a1c:	73615f63 	cmnvc	r1, #396	; 0x18c
 a20:	00636e79 	rsbeq	r6, r3, r9, ror lr
 a24:	657a6973 	ldrbvs	r6, [sl, #-2419]!	; 0x973
 a28:	6d00745f 	cfstrsvs	mvf7, [r0, #-380]	; 0xfffffe84
 a2c:	65736d65 	ldrbvs	r6, [r3, #-3429]!	; 0xd65
 a30:	62630074 	rsbvs	r0, r3, #116	; 0x74
 a34:	77656e5f 			; <UNDEFINED> instruction: 0x77656e5f
 a38:	31736300 	cmncc	r3, r0, lsl #6
 a3c:	2d653034 	stclcs	0, cr3, [r5, #-208]!	; 0xffffff30
 a40:	2f637273 	svccs	0x00637273
 a44:	746e6f63 	strbtvc	r6, [lr], #-3939	; 0xf63
 a48:	2d6c6f72 	stclcs	15, cr6, [ip, #-456]!	; 0xfffffe38
 a4c:	636f6c62 	cmnvs	pc, #25088	; 0x6200
 a50:	00632e6b 	rsbeq	r2, r3, fp, ror #28
 a54:	6362696c 	cmnvs	r2, #108, 18	; 0x1b0000
 a58:	6d656d2f 	stclvs	13, cr6, [r5, #-188]!	; 0xffffff44
 a5c:	2e746573 	mrccs	5, 3, r6, cr4, cr3, {3}
 a60:	Address 0x0000000000000a60 is out of bounds.


Disassembly of section .debug_frame:

00000000 <.debug_frame>:
   0:	0000000c 	andeq	r0, r0, ip
   4:	ffffffff 			; <UNDEFINED> instruction: 0xffffffff
   8:	7c020001 	stcvc	0, cr0, [r2], {1}
   c:	000d0c0e 	andeq	r0, sp, lr, lsl #24
  10:	0000001c 	andeq	r0, r0, ip, lsl r0
  14:	00000000 	andeq	r0, r0, r0
  18:	00008010 	andeq	r8, r0, r0, lsl r0
  1c:	0000019c 	muleq	r0, ip, r1
  20:	84180e42 	ldrhi	r0, [r8], #-3650	; 0xe42
  24:	86058506 	strhi	r8, [r5], -r6, lsl #10
  28:	88038704 	stmdahi	r3, {r2, r8, r9, sl, pc}
  2c:	00018902 	andeq	r8, r1, r2, lsl #18
  30:	00000014 	andeq	r0, r0, r4, lsl r0
  34:	00000000 	andeq	r0, r0, r0
  38:	000081ac 	andeq	r8, r0, ip, lsr #3
  3c:	00000050 	andeq	r0, r0, r0, asr r0
  40:	84080e44 	strhi	r0, [r8], #-3652	; 0xe44
  44:	00018e02 	andeq	r8, r1, r2, lsl #28
  48:	0000001c 	andeq	r0, r0, ip, lsl r0
  4c:	00000000 	andeq	r0, r0, r0
  50:	000081fc 	strdeq	r8, [r0], -ip
  54:	0000019c 	muleq	r0, ip, r1
  58:	84180e42 	ldrhi	r0, [r8], #-3650	; 0xe42
  5c:	86058506 	strhi	r8, [r5], -r6, lsl #10
  60:	88038704 	stmdahi	r3, {r2, r8, r9, sl, pc}
  64:	00018902 	andeq	r8, r1, r2, lsl #18
  68:	00000018 	andeq	r0, r0, r8, lsl r0
  6c:	00000000 	andeq	r0, r0, r0
  70:	00008398 	muleq	r0, r8, r3
  74:	0000020c 	andeq	r0, r0, ip, lsl #4
  78:	840c0e42 	strhi	r0, [ip], #-3650	; 0xe42
  7c:	86028503 	strhi	r8, [r2], -r3, lsl #10
  80:	00000001 	andeq	r0, r0, r1
  84:	00000018 	andeq	r0, r0, r8, lsl r0
  88:	00000000 	andeq	r0, r0, r0
  8c:	000085a4 	andeq	r8, r0, r4, lsr #11
  90:	0000011c 	andeq	r0, r0, ip, lsl r1
  94:	84100e42 	ldrhi	r0, [r0], #-3650	; 0xe42
  98:	86038504 	strhi	r8, [r3], -r4, lsl #10
  9c:	00018e02 	andeq	r8, r1, r2, lsl #28
  a0:	0000000c 	andeq	r0, r0, ip
  a4:	ffffffff 			; <UNDEFINED> instruction: 0xffffffff
  a8:	7c020001 	stcvc	0, cr0, [r2], {1}
  ac:	000d0c0e 	andeq	r0, sp, lr, lsl #24
  b0:	00000024 	andeq	r0, r0, r4, lsr #32
  b4:	000000a0 	andeq	r0, r0, r0, lsr #1
  b8:	000086c0 	andeq	r8, r0, r0, asr #13
  bc:	00000058 	andeq	r0, r0, r8, asr r0
  c0:	80100e42 	andshi	r0, r0, r2, asr #28
  c4:	82038104 	andhi	r8, r3, #4, 2
  c8:	42018302 	andmi	r8, r1, #134217728	; 0x8000000
  cc:	07841c0e 	streq	r1, [r4, lr, lsl #24]
  d0:	058e0685 	streq	r0, [lr, #1669]	; 0x685
  d4:	00280e42 	eoreq	r0, r8, r2, asr #28
  d8:	0000000c 	andeq	r0, r0, ip
  dc:	ffffffff 			; <UNDEFINED> instruction: 0xffffffff
  e0:	7c020001 	stcvc	0, cr0, [r2], {1}
  e4:	000d0c0e 	andeq	r0, sp, lr, lsl #24
  e8:	00000014 	andeq	r0, r0, r4, lsl r0
  ec:	000000d8 	ldrdeq	r0, [r0], -r8
  f0:	00008718 	andeq	r8, r0, r8, lsl r7
  f4:	00000014 	andeq	r0, r0, r4, lsl r0
  f8:	84080e42 	strhi	r0, [r8], #-3650	; 0xe42
  fc:	00018e02 	andeq	r8, r1, r2, lsl #28
 100:	0000000c 	andeq	r0, r0, ip
 104:	000000d8 	ldrdeq	r0, [r0], -r8
 108:	0000872c 	andeq	r8, r0, ip, lsr #14
 10c:	00000018 	andeq	r0, r0, r8, lsl r0
 110:	0000000c 	andeq	r0, r0, ip
 114:	000000d8 	ldrdeq	r0, [r0], -r8
 118:	00008744 	andeq	r8, r0, r4, asr #14
 11c:	00000010 	andeq	r0, r0, r0, lsl r0
 120:	0000000c 	andeq	r0, r0, ip
 124:	ffffffff 			; <UNDEFINED> instruction: 0xffffffff
 128:	7c020001 	stcvc	0, cr0, [r2], {1}
 12c:	000d0c0e 	andeq	r0, sp, lr, lsl #24
 130:	00000018 	andeq	r0, r0, r8, lsl r0
 134:	00000120 	andeq	r0, r0, r0, lsr #2
 138:	00008754 	andeq	r8, r0, r4, asr r7
 13c:	00000034 	andeq	r0, r0, r4, lsr r0
 140:	83100e42 	tsthi	r0, #1056	; 0x420
 144:	85038404 	strhi	r8, [r3, #-1028]	; 0x404
 148:	00018e02 	andeq	r8, r1, r2, lsl #28
 14c:	0000000c 	andeq	r0, r0, ip
 150:	ffffffff 			; <UNDEFINED> instruction: 0xffffffff
 154:	7c020001 	stcvc	0, cr0, [r2], {1}
 158:	000d0c0e 	andeq	r0, sp, lr, lsl #24
 15c:	0000000c 	andeq	r0, r0, ip
 160:	0000014c 	andeq	r0, r0, ip, asr #2
 164:	00008788 	andeq	r8, r0, r8, lsl #15
 168:	00000014 	andeq	r0, r0, r4, lsl r0
 16c:	0000000c 	andeq	r0, r0, ip
 170:	0000014c 	andeq	r0, r0, ip, asr #2
 174:	0000879c 	muleq	r0, ip, r7
 178:	0000002c 	andeq	r0, r0, ip, lsr #32
 17c:	0000000c 	andeq	r0, r0, ip
 180:	0000014c 	andeq	r0, r0, ip, asr #2
 184:	000087c8 	andeq	r8, r0, r8, asr #15
 188:	00000040 	andeq	r0, r0, r0, asr #32
 18c:	00000020 	andeq	r0, r0, r0, lsr #32
 190:	0000014c 	andeq	r0, r0, ip, asr #2
 194:	00008808 	andeq	r8, r0, r8, lsl #16
 198:	000001a8 	andeq	r0, r0, r8, lsr #3
 19c:	84180e42 	ldrhi	r0, [r8], #-3650	; 0xe42
 1a0:	86058506 	strhi	r8, [r5], -r6, lsl #10
 1a4:	88038704 	stmdahi	r3, {r2, r8, r9, sl, pc}
 1a8:	42018e02 	andmi	r8, r1, #2, 28
 1ac:	0000600e 	andeq	r6, r0, lr
 1b0:	00000014 	andeq	r0, r0, r4, lsl r0
 1b4:	0000014c 	andeq	r0, r0, ip, asr #2
 1b8:	000089b0 			; <UNDEFINED> instruction: 0x000089b0
 1bc:	00000068 	andeq	r0, r0, r8, rrx
 1c0:	8e040e42 	cdphi	14, 0, cr0, cr4, cr2, {2}
 1c4:	100e4201 	andne	r4, lr, r1, lsl #4
 1c8:	00000028 	andeq	r0, r0, r8, lsr #32
 1cc:	0000014c 	andeq	r0, r0, ip, asr #2
 1d0:	00008a18 	andeq	r8, r0, r8, lsl sl
 1d4:	00000294 	muleq	r0, r4, r2
 1d8:	84240e42 	strthi	r0, [r4], #-3650	; 0xe42
 1dc:	86088509 	strhi	r8, [r8], -r9, lsl #10
 1e0:	88068707 	stmdahi	r6, {r0, r1, r2, r8, r9, sl, pc}
 1e4:	8a048905 	bhi	122600 <__bss_end__+0x1181b8>
 1e8:	8e028b03 	vmlahi.f64	d8, d2, d3
 1ec:	b00e4201 	andlt	r4, lr, r1, lsl #4
 1f0:	00000001 	andeq	r0, r0, r1
 1f4:	0000000c 	andeq	r0, r0, ip
 1f8:	ffffffff 			; <UNDEFINED> instruction: 0xffffffff
 1fc:	7c020001 	stcvc	0, cr0, [r2], {1}
 200:	000d0c0e 	andeq	r0, sp, lr, lsl #24
 204:	0000000c 	andeq	r0, r0, ip
 208:	000001f4 	strdeq	r0, [r0], -r4
 20c:	00008cac 	andeq	r8, r0, ip, lsr #25
 210:	00000010 	andeq	r0, r0, r0, lsl r0
 214:	0000000c 	andeq	r0, r0, ip
 218:	000001f4 	strdeq	r0, [r0], -r4
 21c:	00008cbc 			; <UNDEFINED> instruction: 0x00008cbc
 220:	00000010 	andeq	r0, r0, r0, lsl r0
 224:	0000000c 	andeq	r0, r0, ip
 228:	ffffffff 			; <UNDEFINED> instruction: 0xffffffff
 22c:	7c020001 	stcvc	0, cr0, [r2], {1}
 230:	000d0c0e 	andeq	r0, sp, lr, lsl #24
 234:	00000014 	andeq	r0, r0, r4, lsl r0
 238:	00000224 	andeq	r0, r0, r4, lsr #4
 23c:	00008ccc 	andeq	r8, r0, ip, asr #25
 240:	00000028 	andeq	r0, r0, r8, lsr #32
 244:	83080e42 	movwhi	r0, #36418	; 0x8e42
 248:	00018e02 	andeq	r8, r1, r2, lsl #28
 24c:	0000000c 	andeq	r0, r0, ip
 250:	ffffffff 			; <UNDEFINED> instruction: 0xffffffff
 254:	7c020001 	stcvc	0, cr0, [r2], {1}
 258:	000d0c0e 	andeq	r0, sp, lr, lsl #24
 25c:	00000014 	andeq	r0, r0, r4, lsl r0
 260:	0000024c 	andeq	r0, r0, ip, asr #4
 264:	00008cf4 	strdeq	r8, [r0], -r4
 268:	00000020 	andeq	r0, r0, r0, lsr #32
 26c:	84080e42 	strhi	r0, [r8], #-3650	; 0xe42
 270:	00018e02 	andeq	r8, r1, r2, lsl #28
 274:	00000014 	andeq	r0, r0, r4, lsl r0
 278:	0000024c 	andeq	r0, r0, ip, asr #4
 27c:	00008d14 	andeq	r8, r0, r4, lsl sp
 280:	00000090 	muleq	r0, r0, r0
 284:	83080e42 	movwhi	r0, #36418	; 0x8e42
 288:	00018e02 	andeq	r8, r1, r2, lsl #28
 28c:	0000000c 	andeq	r0, r0, ip
 290:	ffffffff 			; <UNDEFINED> instruction: 0xffffffff
 294:	7c020001 	stcvc	0, cr0, [r2], {1}
 298:	000d0c0e 	andeq	r0, sp, lr, lsl #24
 29c:	0000000c 	andeq	r0, r0, ip
 2a0:	0000028c 	andeq	r0, r0, ip, lsl #5
 2a4:	00008da4 	andeq	r8, r0, r4, lsr #27
 2a8:	00000018 	andeq	r0, r0, r8, lsl r0
 2ac:	0000000c 	andeq	r0, r0, ip
 2b0:	0000028c 	andeq	r0, r0, ip, lsl #5
 2b4:	00008dbc 			; <UNDEFINED> instruction: 0x00008dbc
 2b8:	00000014 	andeq	r0, r0, r4, lsl r0
 2bc:	00000014 	andeq	r0, r0, r4, lsl r0
 2c0:	0000028c 	andeq	r0, r0, ip, lsl #5
 2c4:	00008dd0 	ldrdeq	r8, [r0], -r0
 2c8:	00000048 	andeq	r0, r0, r8, asr #32
 2cc:	83080e42 	movwhi	r0, #36418	; 0x8e42
 2d0:	00018e02 	andeq	r8, r1, r2, lsl #28
 2d4:	0000000c 	andeq	r0, r0, ip
 2d8:	ffffffff 			; <UNDEFINED> instruction: 0xffffffff
 2dc:	7c020001 	stcvc	0, cr0, [r2], {1}
 2e0:	000d0c0e 	andeq	r0, sp, lr, lsl #24
 2e4:	0000000c 	andeq	r0, r0, ip
 2e8:	000002d4 	ldrdeq	r0, [r0], -r4
 2ec:	00008e18 	andeq	r8, r0, r8, lsl lr
 2f0:	0000001c 	andeq	r0, r0, ip, lsl r0
 2f4:	00000014 	andeq	r0, r0, r4, lsl r0
 2f8:	000002d4 	ldrdeq	r0, [r0], -r4
 2fc:	00008e34 	andeq	r8, r0, r4, lsr lr
 300:	00000014 	andeq	r0, r0, r4, lsl r0
 304:	83080e42 	movwhi	r0, #36418	; 0x8e42
 308:	00018e02 	andeq	r8, r1, r2, lsl #28
 30c:	00000014 	andeq	r0, r0, r4, lsl r0
 310:	000002d4 	ldrdeq	r0, [r0], -r4
 314:	00008e48 	andeq	r8, r0, r8, asr #28
 318:	0000000c 	andeq	r0, r0, ip
 31c:	83080e42 	movwhi	r0, #36418	; 0x8e42
 320:	00018e02 	andeq	r8, r1, r2, lsl #28
 324:	00000018 	andeq	r0, r0, r8, lsl r0
 328:	000002d4 	ldrdeq	r0, [r0], -r4
 32c:	00008e54 	andeq	r8, r0, r4, asr lr
 330:	00000024 	andeq	r0, r0, r4, lsr #32
 334:	83100e42 	tsthi	r0, #1056	; 0x420
 338:	85038404 	strhi	r8, [r3, #-1028]	; 0x404
 33c:	00018e02 	andeq	r8, r1, r2, lsl #28
 340:	00000014 	andeq	r0, r0, r4, lsl r0
 344:	000002d4 	ldrdeq	r0, [r0], -r4
 348:	00008e78 	andeq	r8, r0, r8, ror lr
 34c:	00000014 	andeq	r0, r0, r4, lsl r0
 350:	83080e42 	movwhi	r0, #36418	; 0x8e42
 354:	00018e02 	andeq	r8, r1, r2, lsl #28
 358:	00000014 	andeq	r0, r0, r4, lsl r0
 35c:	000002d4 	ldrdeq	r0, [r0], -r4
 360:	00008e8c 	andeq	r8, r0, ip, lsl #29
 364:	00000014 	andeq	r0, r0, r4, lsl r0
 368:	83080e42 	movwhi	r0, #36418	; 0x8e42
 36c:	00018e02 	andeq	r8, r1, r2, lsl #28
 370:	0000000c 	andeq	r0, r0, ip
 374:	ffffffff 			; <UNDEFINED> instruction: 0xffffffff
 378:	7c020001 	stcvc	0, cr0, [r2], {1}
 37c:	000d0c0e 	andeq	r0, sp, lr, lsl #24
 380:	00000018 	andeq	r0, r0, r8, lsl r0
 384:	00000370 	andeq	r0, r0, r0, ror r3
 388:	00008ea0 	andeq	r8, r0, r0, lsr #29
 38c:	000000d4 	ldrdeq	r0, [r0], -r4
 390:	83100e42 	tsthi	r0, #1056	; 0x420
 394:	85038404 	strhi	r8, [r3, #-1028]	; 0x404
 398:	00018e02 	andeq	r8, r1, r2, lsl #28
 39c:	00000014 	andeq	r0, r0, r4, lsl r0
 3a0:	00000370 	andeq	r0, r0, r0, ror r3
 3a4:	00008f74 	andeq	r8, r0, r4, ror pc
 3a8:	00000038 	andeq	r0, r0, r8, lsr r0
 3ac:	83080e42 	movwhi	r0, #36418	; 0x8e42
 3b0:	00018e02 	andeq	r8, r1, r2, lsl #28
 3b4:	00000014 	andeq	r0, r0, r4, lsl r0
 3b8:	00000370 	andeq	r0, r0, r0, ror r3
 3bc:	00008fac 	andeq	r8, r0, ip, lsr #31
 3c0:	00000038 	andeq	r0, r0, r8, lsr r0
 3c4:	83080e42 	movwhi	r0, #36418	; 0x8e42
 3c8:	00018e02 	andeq	r8, r1, r2, lsl #28
 3cc:	00000018 	andeq	r0, r0, r8, lsl r0
 3d0:	00000370 	andeq	r0, r0, r0, ror r3
 3d4:	00008fe4 	andeq	r8, r0, r4, ror #31
 3d8:	000000cc 	andeq	r0, r0, ip, asr #1
 3dc:	83100e42 	tsthi	r0, #1056	; 0x420
 3e0:	85038404 	strhi	r8, [r3, #-1028]	; 0x404
 3e4:	00018e02 	andeq	r8, r1, r2, lsl #28
 3e8:	00000014 	andeq	r0, r0, r4, lsl r0
 3ec:	00000370 	andeq	r0, r0, r0, ror r3
 3f0:	000090b0 	strheq	r9, [r0], -r0
 3f4:	0000004c 	andeq	r0, r0, ip, asr #32
 3f8:	84080e42 	strhi	r0, [r8], #-3650	; 0xe42
 3fc:	00018e02 	andeq	r8, r1, r2, lsl #28
 400:	00000014 	andeq	r0, r0, r4, lsl r0
 404:	00000370 	andeq	r0, r0, r0, ror r3
 408:	000090fc 	strdeq	r9, [r0], -ip
 40c:	00000024 	andeq	r0, r0, r4, lsr #32
 410:	83080e42 	movwhi	r0, #36418	; 0x8e42
 414:	00018e02 	andeq	r8, r1, r2, lsl #28
 418:	00000018 	andeq	r0, r0, r8, lsl r0
 41c:	00000370 	andeq	r0, r0, r0, ror r3
 420:	00009120 	andeq	r9, r0, r0, lsr #2
 424:	000000d8 	ldrdeq	r0, [r0], -r8
 428:	84100e42 	ldrhi	r0, [r0], #-3650	; 0xe42
 42c:	86038504 	strhi	r8, [r3], -r4, lsl #10
 430:	00018e02 	andeq	r8, r1, r2, lsl #28
 434:	00000014 	andeq	r0, r0, r4, lsl r0
 438:	00000370 	andeq	r0, r0, r0, ror r3
 43c:	000091f8 	strdeq	r9, [r0], -r8
 440:	00000038 	andeq	r0, r0, r8, lsr r0
 444:	83080e42 	movwhi	r0, #36418	; 0x8e42
 448:	00018e02 	andeq	r8, r1, r2, lsl #28
 44c:	00000014 	andeq	r0, r0, r4, lsl r0
 450:	00000370 	andeq	r0, r0, r0, ror r3
 454:	00009230 	andeq	r9, r0, r0, lsr r2
 458:	0000002c 	andeq	r0, r0, ip, lsr #32
 45c:	83080e42 	movwhi	r0, #36418	; 0x8e42
 460:	00018e02 	andeq	r8, r1, r2, lsl #28
 464:	00000018 	andeq	r0, r0, r8, lsl r0
 468:	00000370 	andeq	r0, r0, r0, ror r3
 46c:	0000925c 	andeq	r9, r0, ip, asr r2
 470:	00000084 	andeq	r0, r0, r4, lsl #1
 474:	83100e42 	tsthi	r0, #1056	; 0x420
 478:	85038404 	strhi	r8, [r3, #-1028]	; 0x404
 47c:	00018e02 	andeq	r8, r1, r2, lsl #28
 480:	00000018 	andeq	r0, r0, r8, lsl r0
 484:	00000370 	andeq	r0, r0, r0, ror r3
 488:	000092e0 	andeq	r9, r0, r0, ror #5
 48c:	00000084 	andeq	r0, r0, r4, lsl #1
 490:	83100e42 	tsthi	r0, #1056	; 0x420
 494:	85038404 	strhi	r8, [r3, #-1028]	; 0x404
 498:	00018e02 	andeq	r8, r1, r2, lsl #28
 49c:	00000014 	andeq	r0, r0, r4, lsl r0
 4a0:	00000370 	andeq	r0, r0, r0, ror r3
 4a4:	00009364 	andeq	r9, r0, r4, ror #6
 4a8:	00000084 	andeq	r0, r0, r4, lsl #1
 4ac:	84080e42 	strhi	r0, [r8], #-3650	; 0xe42
 4b0:	00018e02 	andeq	r8, r1, r2, lsl #28
 4b4:	00000014 	andeq	r0, r0, r4, lsl r0
 4b8:	00000370 	andeq	r0, r0, r0, ror r3
 4bc:	000093e8 	andeq	r9, r0, r8, ror #7
 4c0:	00000058 	andeq	r0, r0, r8, asr r0
 4c4:	84080e42 	strhi	r0, [r8], #-3650	; 0xe42
 4c8:	00018e02 	andeq	r8, r1, r2, lsl #28
 4cc:	0000000c 	andeq	r0, r0, ip
 4d0:	ffffffff 			; <UNDEFINED> instruction: 0xffffffff
 4d4:	7c020001 	stcvc	0, cr0, [r2], {1}
 4d8:	000d0c0e 	andeq	r0, sp, lr, lsl #24
 4dc:	0000001c 	andeq	r0, r0, ip, lsl r0
 4e0:	000004cc 	andeq	r0, r0, ip, asr #9
 4e4:	00009440 	andeq	r9, r0, r0, asr #8
 4e8:	00000154 	andeq	r0, r0, r4, asr r1
 4ec:	84180e42 	ldrhi	r0, [r8], #-3650	; 0xe42
 4f0:	86058506 	strhi	r8, [r5], -r6, lsl #10
 4f4:	88038704 	stmdahi	r3, {r2, r8, r9, sl, pc}
 4f8:	00018e02 	andeq	r8, r1, r2, lsl #28
 4fc:	00000020 	andeq	r0, r0, r0, lsr #32
 500:	000004cc 	andeq	r0, r0, ip, asr #9
 504:	00009594 	muleq	r0, r4, r5
 508:	000001c8 	andeq	r0, r0, r8, asr #3
 50c:	83200e42 	teqhi	r0, #1056	; 0x420
 510:	85078408 	strhi	r8, [r7, #-1032]	; 0x408
 514:	87058606 	strhi	r8, [r5, -r6, lsl #12]
 518:	89038804 	stmdbhi	r3, {r2, fp, pc}
 51c:	00018e02 	andeq	r8, r1, r2, lsl #28
 520:	00000024 	andeq	r0, r0, r4, lsr #32
 524:	000004cc 	andeq	r0, r0, ip, asr #9
 528:	0000975c 	andeq	r9, r0, ip, asr r7
 52c:	000000a4 	andeq	r0, r0, r4, lsr #1
 530:	84200e42 	strthi	r0, [r0], #-3650	; 0xe42
 534:	86078508 	strhi	r8, [r7], -r8, lsl #10
 538:	88058706 	stmdahi	r5, {r1, r2, r8, r9, sl, pc}
 53c:	8a038904 	bhi	e2954 <__bss_end__+0xd850c>
 540:	42018e02 	andmi	r8, r1, #2, 28
 544:	0000280e 	andeq	r2, r0, lr, lsl #16
 548:	00000020 	andeq	r0, r0, r0, lsr #32
 54c:	000004cc 	andeq	r0, r0, ip, asr #9
 550:	00009800 	andeq	r9, r0, r0, lsl #16
 554:	00000090 	muleq	r0, r0, r0
 558:	84180e42 	ldrhi	r0, [r8], #-3650	; 0xe42
 55c:	86058506 	strhi	r8, [r5], -r6, lsl #10
 560:	88038704 	stmdahi	r3, {r2, r8, r9, sl, pc}
 564:	42018e02 	andmi	r8, r1, #2, 28
 568:	0000200e 	andeq	r2, r0, lr
 56c:	00000020 	andeq	r0, r0, r0, lsr #32
 570:	000004cc 	andeq	r0, r0, ip, asr #9
 574:	00009890 	muleq	r0, r0, r8
 578:	000000d4 	ldrdeq	r0, [r0], -r4
 57c:	84180e42 	ldrhi	r0, [r8], #-3650	; 0xe42
 580:	86058506 	strhi	r8, [r5], -r6, lsl #10
 584:	88038704 	stmdahi	r3, {r2, r8, r9, sl, pc}
 588:	42018e02 	andmi	r8, r1, #2, 28
 58c:	0000200e 	andeq	r2, r0, lr
 590:	00000014 	andeq	r0, r0, r4, lsl r0
 594:	000004cc 	andeq	r0, r0, ip, asr #9
 598:	00009964 	andeq	r9, r0, r4, ror #18
 59c:	0000003c 	andeq	r0, r0, ip, lsr r0
 5a0:	83080e42 	movwhi	r0, #36418	; 0x8e42
 5a4:	00018e02 	andeq	r8, r1, r2, lsl #28
 5a8:	00000018 	andeq	r0, r0, r8, lsl r0
 5ac:	000004cc 	andeq	r0, r0, ip, asr #9
 5b0:	000099a0 	andeq	r9, r0, r0, lsr #19
 5b4:	0000002c 	andeq	r0, r0, ip, lsr #32
 5b8:	83100e42 	tsthi	r0, #1056	; 0x420
 5bc:	85038404 	strhi	r8, [r3, #-1028]	; 0x404
 5c0:	00018e02 	andeq	r8, r1, r2, lsl #28
 5c4:	00000024 	andeq	r0, r0, r4, lsr #32
 5c8:	000004cc 	andeq	r0, r0, ip, asr #9
 5cc:	000099cc 	andeq	r9, r0, ip, asr #19
 5d0:	00000090 	muleq	r0, r0, r0
 5d4:	810c0e42 	tsthi	ip, r2, asr #28
 5d8:	83028203 	movwhi	r8, #8707	; 0x2203
 5dc:	180e4201 	stmdane	lr, {r0, r9, lr}
 5e0:	05850684 	streq	r0, [r5, #1668]	; 0x684
 5e4:	0e42048e 	cdpeq	4, 4, cr0, cr2, cr14, {4}
 5e8:	000003f0 	strdeq	r0, [r0], -r0	; <UNPREDICTABLE>
 5ec:	00000014 	andeq	r0, r0, r4, lsl r0
 5f0:	000004cc 	andeq	r0, r0, ip, asr #9
 5f4:	00009a5c 	andeq	r9, r0, ip, asr sl
 5f8:	0000004c 	andeq	r0, r0, ip, asr #32
 5fc:	8e040e42 	cdphi	14, 0, cr0, cr4, cr2, {2}
 600:	100e4201 	andne	r4, lr, r1, lsl #4
 604:	0000000c 	andeq	r0, r0, ip
 608:	ffffffff 			; <UNDEFINED> instruction: 0xffffffff
 60c:	7c020001 	stcvc	0, cr0, [r2], {1}
 610:	000d0c0e 	andeq	r0, sp, lr, lsl #24
 614:	00000018 	andeq	r0, r0, r8, lsl r0
 618:	00000604 	andeq	r0, r0, r4, lsl #12
 61c:	00009aa8 	andeq	r9, r0, r8, lsr #21
 620:	0000009c 	muleq	r0, ip, r0
 624:	83100e42 	tsthi	r0, #1056	; 0x420
 628:	85038404 	strhi	r8, [r3, #-1028]	; 0x404
 62c:	00018e02 	andeq	r8, r1, r2, lsl #28
 630:	00000014 	andeq	r0, r0, r4, lsl r0
 634:	00000604 	andeq	r0, r0, r4, lsl #12
 638:	00009b44 	andeq	r9, r0, r4, asr #22
 63c:	0000001c 	andeq	r0, r0, ip, lsl r0
 640:	83080e42 	movwhi	r0, #36418	; 0x8e42
 644:	00018e02 	andeq	r8, r1, r2, lsl #28
 648:	00000014 	andeq	r0, r0, r4, lsl r0
 64c:	00000604 	andeq	r0, r0, r4, lsl #12
 650:	00009b60 	andeq	r9, r0, r0, ror #22
 654:	00000028 	andeq	r0, r0, r8, lsr #32
 658:	83080e42 	movwhi	r0, #36418	; 0x8e42
 65c:	00018e02 	andeq	r8, r1, r2, lsl #28
 660:	00000014 	andeq	r0, r0, r4, lsl r0
 664:	00000604 	andeq	r0, r0, r4, lsl #12
 668:	00009b88 	andeq	r9, r0, r8, lsl #23
 66c:	0000001c 	andeq	r0, r0, ip, lsl r0
 670:	83080e42 	movwhi	r0, #36418	; 0x8e42
 674:	00018e02 	andeq	r8, r1, r2, lsl #28
 678:	00000014 	andeq	r0, r0, r4, lsl r0
 67c:	00000604 	andeq	r0, r0, r4, lsl #12
 680:	00009ba4 	andeq	r9, r0, r4, lsr #23
 684:	0000002c 	andeq	r0, r0, ip, lsr #32
 688:	84080e42 	strhi	r0, [r8], #-3650	; 0xe42
 68c:	00018e02 	andeq	r8, r1, r2, lsl #28
 690:	00000014 	andeq	r0, r0, r4, lsl r0
 694:	00000604 	andeq	r0, r0, r4, lsl #12
 698:	00009bd0 	ldrdeq	r9, [r0], -r0
 69c:	0000000c 	andeq	r0, r0, ip
 6a0:	83080e42 	movwhi	r0, #36418	; 0x8e42
 6a4:	00018e02 	andeq	r8, r1, r2, lsl #28
 6a8:	00000014 	andeq	r0, r0, r4, lsl r0
 6ac:	00000604 	andeq	r0, r0, r4, lsl #12
 6b0:	00009bdc 	ldrdeq	r9, [r0], -ip
 6b4:	00000020 	andeq	r0, r0, r0, lsr #32
 6b8:	83080e42 	movwhi	r0, #36418	; 0x8e42
 6bc:	00018e02 	andeq	r8, r1, r2, lsl #28
 6c0:	0000000c 	andeq	r0, r0, ip
 6c4:	ffffffff 			; <UNDEFINED> instruction: 0xffffffff
 6c8:	7c020001 	stcvc	0, cr0, [r2], {1}
 6cc:	000d0c0e 	andeq	r0, sp, lr, lsl #24
 6d0:	00000014 	andeq	r0, r0, r4, lsl r0
 6d4:	000006c0 	andeq	r0, r0, r0, asr #13
 6d8:	00009c60 	andeq	r9, r0, r0, ror #24
 6dc:	00000028 	andeq	r0, r0, r8, lsr #32
 6e0:	83080e42 	movwhi	r0, #36418	; 0x8e42
 6e4:	00018e02 	andeq	r8, r1, r2, lsl #28
 6e8:	0000000c 	andeq	r0, r0, ip
 6ec:	000006c0 	andeq	r0, r0, r0, asr #13
 6f0:	00009c88 	andeq	r9, r0, r8, lsl #25
 6f4:	00000028 	andeq	r0, r0, r8, lsr #32
 6f8:	0000000c 	andeq	r0, r0, ip
 6fc:	ffffffff 			; <UNDEFINED> instruction: 0xffffffff
 700:	7c020001 	stcvc	0, cr0, [r2], {1}
 704:	000d0c0e 	andeq	r0, sp, lr, lsl #24
 708:	0000000c 	andeq	r0, r0, ip
 70c:	000006f8 	strdeq	r0, [r0], -r8
 710:	00009cb0 			; <UNDEFINED> instruction: 0x00009cb0
 714:	00000020 	andeq	r0, r0, r0, lsr #32
