
test-gen.elf:     file format elf32-littlearm


Disassembly of section .text:

00008000 <_start>:
    8000:	e3a0d302 	mov	sp, #134217728	; 0x8000000
    8004:	e3a0b000 	mov	fp, #0
    8008:	eb000220 	bl	8890 <_cstart>
    800c:	eb00024e 	bl	894c <rpi_reboot>

00008010 <test_gen>:
    8010:	e92d0070 	push	{r4, r5, r6}
    8014:	ee1f3f3c 	mrc	15, 0, r3, cr15, cr12, {1}
    8018:	e3a0c001 	mov	ip, #1
    801c:	e1a0001c 	lsl	r0, ip, r0
    8020:	e59fc1f8 	ldr	ip, [pc, #504]	; 8220 <test_gen+0x210>
    8024:	e59c4028 	ldr	r4, [ip, #40]	; 0x28
    8028:	e1804004 	orr	r4, r0, r4
    802c:	e58c4028 	str	r4, [ip, #40]	; 0x28
    8030:	ee1fcf3c 	mrc	15, 0, ip, cr15, cr12, {1}
    8034:	e063c00c 	rsb	ip, r3, ip
    8038:	e15c0002 	cmp	ip, r2
    803c:	3afffffb 	bcc	8030 <test_gen+0x20>
    8040:	e59fc1d8 	ldr	ip, [pc, #472]	; 8220 <test_gen+0x210>
    8044:	e3110001 	tst	r1, #1
    8048:	159c401c 	ldrne	r4, [ip, #28]
    804c:	059c4028 	ldreq	r4, [ip, #40]	; 0x28
    8050:	11804004 	orrne	r4, r0, r4
    8054:	01804004 	orreq	r4, r0, r4
    8058:	158c401c 	strne	r4, [ip, #28]
    805c:	058c4028 	streq	r4, [ip, #40]	; 0x28
    8060:	e1a05082 	lsl	r5, r2, #1
    8064:	ee1fcf3c 	mrc	15, 0, ip, cr15, cr12, {1}
    8068:	e063c00c 	rsb	ip, r3, ip
    806c:	e15c0005 	cmp	ip, r5
    8070:	3afffffb 	bcc	8064 <test_gen+0x54>
    8074:	e59fc1a4 	ldr	ip, [pc, #420]	; 8220 <test_gen+0x210>
    8078:	e3110002 	tst	r1, #2
    807c:	159c401c 	ldrne	r4, [ip, #28]
    8080:	059c4028 	ldreq	r4, [ip, #40]	; 0x28
    8084:	11804004 	orrne	r4, r0, r4
    8088:	01804004 	orreq	r4, r0, r4
    808c:	158c401c 	strne	r4, [ip, #28]
    8090:	058c4028 	streq	r4, [ip, #40]	; 0x28
    8094:	e0854002 	add	r4, r5, r2
    8098:	ee1fcf3c 	mrc	15, 0, ip, cr15, cr12, {1}
    809c:	e063c00c 	rsb	ip, r3, ip
    80a0:	e15c0004 	cmp	ip, r4
    80a4:	3afffffb 	bcc	8098 <test_gen+0x88>
    80a8:	e59fc170 	ldr	ip, [pc, #368]	; 8220 <test_gen+0x210>
    80ac:	e3110004 	tst	r1, #4
    80b0:	159c401c 	ldrne	r4, [ip, #28]
    80b4:	059c4028 	ldreq	r4, [ip, #40]	; 0x28
    80b8:	11804004 	orrne	r4, r0, r4
    80bc:	01804004 	orreq	r4, r0, r4
    80c0:	158c401c 	strne	r4, [ip, #28]
    80c4:	058c4028 	streq	r4, [ip, #40]	; 0x28
    80c8:	e1a04102 	lsl	r4, r2, #2
    80cc:	ee1fcf3c 	mrc	15, 0, ip, cr15, cr12, {1}
    80d0:	e063c00c 	rsb	ip, r3, ip
    80d4:	e15c0004 	cmp	ip, r4
    80d8:	3afffffb 	bcc	80cc <test_gen+0xbc>
    80dc:	e59fc13c 	ldr	ip, [pc, #316]	; 8220 <test_gen+0x210>
    80e0:	e3110008 	tst	r1, #8
    80e4:	159c601c 	ldrne	r6, [ip, #28]
    80e8:	059c6028 	ldreq	r6, [ip, #40]	; 0x28
    80ec:	11806006 	orrne	r6, r0, r6
    80f0:	01806006 	orreq	r6, r0, r6
    80f4:	158c601c 	strne	r6, [ip, #28]
    80f8:	058c6028 	streq	r6, [ip, #40]	; 0x28
    80fc:	e0846002 	add	r6, r4, r2
    8100:	ee1fcf3c 	mrc	15, 0, ip, cr15, cr12, {1}
    8104:	e063c00c 	rsb	ip, r3, ip
    8108:	e15c0006 	cmp	ip, r6
    810c:	3afffffb 	bcc	8100 <test_gen+0xf0>
    8110:	e59fc108 	ldr	ip, [pc, #264]	; 8220 <test_gen+0x210>
    8114:	e3110010 	tst	r1, #16
    8118:	159c601c 	ldrne	r6, [ip, #28]
    811c:	059c6028 	ldreq	r6, [ip, #40]	; 0x28
    8120:	11806006 	orrne	r6, r0, r6
    8124:	01806006 	orreq	r6, r0, r6
    8128:	e0855002 	add	r5, r5, r2
    812c:	158c601c 	strne	r6, [ip, #28]
    8130:	058c6028 	streq	r6, [ip, #40]	; 0x28
    8134:	e1a05085 	lsl	r5, r5, #1
    8138:	ee1fcf3c 	mrc	15, 0, ip, cr15, cr12, {1}
    813c:	e063c00c 	rsb	ip, r3, ip
    8140:	e15c0005 	cmp	ip, r5
    8144:	3afffffb 	bcc	8138 <test_gen+0x128>
    8148:	e59fc0d0 	ldr	ip, [pc, #208]	; 8220 <test_gen+0x210>
    814c:	e3110020 	tst	r1, #32
    8150:	159c501c 	ldrne	r5, [ip, #28]
    8154:	059c5028 	ldreq	r5, [ip, #40]	; 0x28
    8158:	11805005 	orrne	r5, r0, r5
    815c:	01805005 	orreq	r5, r0, r5
    8160:	158c501c 	strne	r5, [ip, #28]
    8164:	058c5028 	streq	r5, [ip, #40]	; 0x28
    8168:	e1a05182 	lsl	r5, r2, #3
    816c:	e0626005 	rsb	r6, r2, r5
    8170:	ee1fcf3c 	mrc	15, 0, ip, cr15, cr12, {1}
    8174:	e063c00c 	rsb	ip, r3, ip
    8178:	e15c0006 	cmp	ip, r6
    817c:	3afffffb 	bcc	8170 <test_gen+0x160>
    8180:	e59fc098 	ldr	ip, [pc, #152]	; 8220 <test_gen+0x210>
    8184:	e3110040 	tst	r1, #64	; 0x40
    8188:	159c601c 	ldrne	r6, [ip, #28]
    818c:	059c6028 	ldreq	r6, [ip, #40]	; 0x28
    8190:	11806006 	orrne	r6, r0, r6
    8194:	01806006 	orreq	r6, r0, r6
    8198:	158c601c 	strne	r6, [ip, #28]
    819c:	058c6028 	streq	r6, [ip, #40]	; 0x28
    81a0:	ee1fcf3c 	mrc	15, 0, ip, cr15, cr12, {1}
    81a4:	e063c00c 	rsb	ip, r3, ip
    81a8:	e15c0005 	cmp	ip, r5
    81ac:	3afffffb 	bcc	81a0 <test_gen+0x190>
    81b0:	e3110080 	tst	r1, #128	; 0x80
    81b4:	e59f1064 	ldr	r1, [pc, #100]	; 8220 <test_gen+0x210>
    81b8:	e0855002 	add	r5, r5, r2
    81bc:	1591c01c 	ldrne	ip, [r1, #28]
    81c0:	0591c028 	ldreq	ip, [r1, #40]	; 0x28
    81c4:	1180c00c 	orrne	ip, r0, ip
    81c8:	0180c00c 	orreq	ip, r0, ip
    81cc:	1581c01c 	strne	ip, [r1, #28]
    81d0:	0581c028 	streq	ip, [r1, #40]	; 0x28
    81d4:	ee1f1f3c 	mrc	15, 0, r1, cr15, cr12, {1}
    81d8:	e0631001 	rsb	r1, r3, r1
    81dc:	e1510005 	cmp	r1, r5
    81e0:	3afffffb 	bcc	81d4 <test_gen+0x1c4>
    81e4:	e59fc034 	ldr	ip, [pc, #52]	; 8220 <test_gen+0x210>
    81e8:	e0842002 	add	r2, r4, r2
    81ec:	e59c501c 	ldr	r5, [ip, #28]
    81f0:	e1a01082 	lsl	r1, r2, #1
    81f4:	e1800005 	orr	r0, r0, r5
    81f8:	e58c001c 	str	r0, [ip, #28]
    81fc:	ee1f2f3c 	mrc	15, 0, r2, cr15, cr12, {1}
    8200:	e0632002 	rsb	r2, r3, r2
    8204:	e1520001 	cmp	r2, r1
    8208:	3afffffb 	bcc	81fc <test_gen+0x1ec>
    820c:	ee1f2f3c 	mrc	15, 0, r2, cr15, cr12, {1}
    8210:	e59f000c 	ldr	r0, [pc, #12]	; 8224 <test_gen+0x214>
    8214:	e0632002 	rsb	r2, r3, r2
    8218:	e8bd0070 	pop	{r4, r5, r6}
    821c:	ea000015 	b	8278 <printk>
    8220:	20200000 	eorcs	r0, r0, r0
    8224:	00009924 	andeq	r9, r0, r4, lsr #18

00008228 <notmain>:
    8228:	e92d4008 	push	{r3, lr}
    822c:	eb00017d 	bl	8828 <enable_cache>
    8230:	e3a00015 	mov	r0, #21
    8234:	eb0001f8 	bl	8a1c <gpio_set_output>
    8238:	e59f302c 	ldr	r3, [pc, #44]	; 826c <notmain+0x44>
    823c:	e59f002c 	ldr	r0, [pc, #44]	; 8270 <notmain+0x48>
    8240:	e593201c 	ldr	r2, [r3, #28]
    8244:	e3822602 	orr	r2, r2, #2097152	; 0x200000
    8248:	e583201c 	str	r2, [r3, #28]
    824c:	eb0001e8 	bl	89f4 <delay_ms>
    8250:	e3a03001 	mov	r3, #1
    8254:	ee0f3f1c 	mcr	15, 0, r3, cr15, cr12, {0}
    8258:	e3a00015 	mov	r0, #21
    825c:	e3a01069 	mov	r1, #105	; 0x69
    8260:	e59f200c 	ldr	r2, [pc, #12]	; 8274 <notmain+0x4c>
    8264:	ebffff69 	bl	8010 <test_gen>
    8268:	eb000176 	bl	8848 <clean_reboot>
    826c:	20200000 	eorcs	r0, r0, r0
    8270:	00001b58 	andeq	r1, r0, r8, asr fp
    8274:	000017bc 			; <UNDEFINED> instruction: 0x000017bc

00008278 <printk>:
    8278:	e92d000f 	push	{r0, r1, r2, r3}
    827c:	e92d4030 	push	{r4, r5, lr}
    8280:	e24dd00c 	sub	sp, sp, #12
    8284:	e28d301c 	add	r3, sp, #28
    8288:	e58d3004 	str	r3, [sp, #4]
    828c:	e59f4034 	ldr	r4, [pc, #52]	; 82c8 <printk+0x50>
    8290:	e1a00004 	mov	r0, r4
    8294:	e3a01b01 	mov	r1, #1024	; 0x400
    8298:	e59d2018 	ldr	r2, [sp, #24]
    829c:	eb0000bc 	bl	8594 <va_printk>
    82a0:	e1a05000 	mov	r5, r0
    82a4:	e59f3020 	ldr	r3, [pc, #32]	; 82cc <printk+0x54>
    82a8:	e5933000 	ldr	r3, [r3]
    82ac:	e1a00004 	mov	r0, r4
    82b0:	e12fff33 	blx	r3
    82b4:	e1a00005 	mov	r0, r5
    82b8:	e28dd00c 	add	sp, sp, #12
    82bc:	e8bd4030 	pop	{r4, r5, lr}
    82c0:	e28dd010 	add	sp, sp, #16
    82c4:	e12fff1e 	bx	lr
    82c8:	00009b80 	andeq	r9, r0, r0, lsl #23
    82cc:	00009888 	andeq	r9, r0, r8, lsl #17

000082d0 <internal_putk>:
    82d0:	e92d4038 	push	{r3, r4, r5, lr}
    82d4:	e1a04000 	mov	r4, r0
    82d8:	e59f5020 	ldr	r5, [pc, #32]	; 8300 <internal_putk+0x30>
    82dc:	ea000002 	b	82ec <internal_putk+0x1c>
    82e0:	e5953000 	ldr	r3, [r5]
    82e4:	e12fff33 	blx	r3
    82e8:	e2844001 	add	r4, r4, #1
    82ec:	e5d40000 	ldrb	r0, [r4]
    82f0:	e3500000 	cmp	r0, #0
    82f4:	1afffff9 	bne	82e0 <internal_putk+0x10>
    82f8:	e3a00001 	mov	r0, #1
    82fc:	e8bd8038 	pop	{r3, r4, r5, pc}
    8300:	000098ec 	andeq	r9, r0, ip, ror #17

00008304 <isdigit>:
    8304:	e2400030 	sub	r0, r0, #48	; 0x30
    8308:	e3500009 	cmp	r0, #9
    830c:	83a00000 	movhi	r0, #0
    8310:	93a00001 	movls	r0, #1
    8314:	e12fff1e 	bx	lr

00008318 <pad>:
    8318:	e0611000 	rsb	r1, r1, r0
    831c:	e3a03020 	mov	r3, #32
    8320:	ea000002 	b	8330 <pad+0x18>
    8324:	e5c03000 	strb	r3, [r0]
    8328:	e2811001 	add	r1, r1, #1
    832c:	e2800001 	add	r0, r0, #1
    8330:	e1510002 	cmp	r1, r2
    8334:	bafffffa 	blt	8324 <pad+0xc>
    8338:	e3a03000 	mov	r3, #0
    833c:	e5c03000 	strb	r3, [r0]
    8340:	e12fff1e 	bx	lr

00008344 <reverse>:
    8344:	e063c002 	rsb	ip, r3, r2
    8348:	e28cc001 	add	ip, ip, #1
    834c:	e15c0001 	cmp	ip, r1
    8350:	c061100c 	rsbgt	r1, r1, ip
    8354:	c0833001 	addgt	r3, r3, r1
    8358:	e2422001 	sub	r2, r2, #1
    835c:	e1a01000 	mov	r1, r0
    8360:	ea000002 	b	8370 <reverse+0x2c>
    8364:	e452c001 	ldrb	ip, [r2], #-1
    8368:	e5c1c000 	strb	ip, [r1]
    836c:	e2811001 	add	r1, r1, #1
    8370:	e1520003 	cmp	r2, r3
    8374:	2afffffa 	bcs	8364 <reverse+0x20>
    8378:	e3a03000 	mov	r3, #0
    837c:	e5c13000 	strb	r3, [r1]
    8380:	e12fff1e 	bx	lr

00008384 <emit>:
    8384:	e92d41f0 	push	{r4, r5, r6, r7, r8, lr}
    8388:	e24dd048 	sub	sp, sp, #72	; 0x48
    838c:	e1a05001 	mov	r5, r1
    8390:	e1a04002 	mov	r4, r2
    8394:	e59d2060 	ldr	r2, [sp, #96]	; 0x60
    8398:	e1520004 	cmp	r2, r4
    839c:	c2442001 	subgt	r2, r4, #1
    83a0:	e1a0c003 	mov	ip, r3
    83a4:	e2400002 	sub	r0, r0, #2
    83a8:	e350000e 	cmp	r0, #14
    83ac:	979ff100 	ldrls	pc, [pc, r0, lsl #2]
    83b0:	ea000042 	b	84c0 <emit+0x13c>
    83b4:	00008498 	muleq	r0, r8, r4
    83b8:	000084c0 	andeq	r8, r0, r0, asr #9
    83bc:	000084c0 	andeq	r8, r0, r0, asr #9
    83c0:	000084c0 	andeq	r8, r0, r0, asr #9
    83c4:	000084c0 	andeq	r8, r0, r0, asr #9
    83c8:	000084c0 	andeq	r8, r0, r0, asr #9
    83cc:	0000848c 	andeq	r8, r0, ip, lsl #9
    83d0:	000084c0 	andeq	r8, r0, r0, asr #9
    83d4:	000083f0 	strdeq	r8, [r0], -r0
    83d8:	000084c0 	andeq	r8, r0, r0, asr #9
    83dc:	000084c0 	andeq	r8, r0, r0, asr #9
    83e0:	000084c0 	andeq	r8, r0, r0, asr #9
    83e4:	000084c0 	andeq	r8, r0, r0, asr #9
    83e8:	000084c0 	andeq	r8, r0, r0, asr #9
    83ec:	00008464 	andeq	r8, r0, r4, ror #8
    83f0:	e59d1064 	ldr	r1, [sp, #100]	; 0x64
    83f4:	e2911000 	adds	r1, r1, #0
    83f8:	13a01001 	movne	r1, #1
    83fc:	e0111fa3 	ands	r1, r1, r3, lsr #31
    8400:	1263c000 	rsbne	ip, r3, #0
    8404:	13a08001 	movne	r8, #1
    8408:	03a08000 	moveq	r8, #0
    840c:	e28d1008 	add	r1, sp, #8
    8410:	e59f70f4 	ldr	r7, [pc, #244]	; 850c <emit+0x188>
    8414:	e59f60f4 	ldr	r6, [pc, #244]	; 8510 <emit+0x18c>
    8418:	ea000000 	b	8420 <emit+0x9c>
    841c:	e1a01003 	mov	r1, r3
    8420:	e2813001 	add	r3, r1, #1
    8424:	e08e0c97 	umull	r0, lr, r7, ip
    8428:	e1a0e1ae 	lsr	lr, lr, #3
    842c:	e1a0000e 	mov	r0, lr
    8430:	e08ee10e 	add	lr, lr, lr, lsl #2
    8434:	e1a0e08e 	lsl	lr, lr, #1
    8438:	e06ee00c 	rsb	lr, lr, ip
    843c:	e7d6c00e 	ldrb	ip, [r6, lr]
    8440:	e5c1c000 	strb	ip, [r1]
    8444:	e1a0c000 	mov	ip, r0
    8448:	e3500000 	cmp	r0, #0
    844c:	1afffff2 	bne	841c <emit+0x98>
    8450:	e3580000 	cmp	r8, #0
    8454:	12813002 	addne	r3, r1, #2
    8458:	13a0002d 	movne	r0, #45	; 0x2d
    845c:	15c10001 	strbne	r0, [r1, #1]
    8460:	ea00001f 	b	84e4 <emit+0x160>
    8464:	e28de008 	add	lr, sp, #8
    8468:	e59f00a4 	ldr	r0, [pc, #164]	; 8514 <emit+0x190>
    846c:	e28e3001 	add	r3, lr, #1
    8470:	e20c100f 	and	r1, ip, #15
    8474:	e7d01001 	ldrb	r1, [r0, r1]
    8478:	e5ce1000 	strb	r1, [lr]
    847c:	e1a0e003 	mov	lr, r3
    8480:	e1b0c22c 	lsrs	ip, ip, #4
    8484:	1afffff8 	bne	846c <emit+0xe8>
    8488:	ea000015 	b	84e4 <emit+0x160>
    848c:	e5cd3008 	strb	r3, [sp, #8]
    8490:	e28d3009 	add	r3, sp, #9
    8494:	ea000012 	b	84e4 <emit+0x160>
    8498:	e28de008 	add	lr, sp, #8
    849c:	e59f0074 	ldr	r0, [pc, #116]	; 8518 <emit+0x194>
    84a0:	e28e3001 	add	r3, lr, #1
    84a4:	e20c1001 	and	r1, ip, #1
    84a8:	e7d01001 	ldrb	r1, [r0, r1]
    84ac:	e5ce1000 	strb	r1, [lr]
    84b0:	e1a0e003 	mov	lr, r3
    84b4:	e1b0c0ac 	lsrs	ip, ip, #1
    84b8:	1afffff8 	bne	84a0 <emit+0x11c>
    84bc:	ea000008 	b	84e4 <emit+0x160>
    84c0:	eb000475 	bl	969c <rpi_reset_putc>
    84c4:	e59f3050 	ldr	r3, [pc, #80]	; 851c <emit+0x198>
    84c8:	e58d3000 	str	r3, [sp]
    84cc:	e59f004c 	ldr	r0, [pc, #76]	; 8520 <emit+0x19c>
    84d0:	e59f104c 	ldr	r1, [pc, #76]	; 8524 <emit+0x1a0>
    84d4:	e59f204c 	ldr	r2, [pc, #76]	; 8528 <emit+0x1a4>
    84d8:	e3a03075 	mov	r3, #117	; 0x75
    84dc:	ebffff65 	bl	8278 <printk>
    84e0:	eb0000d8 	bl	8848 <clean_reboot>
    84e4:	e1a00003 	mov	r0, r3
    84e8:	e28d1008 	add	r1, sp, #8
    84ec:	ebffff89 	bl	8318 <pad>
    84f0:	e1a02000 	mov	r2, r0
    84f4:	e1a00005 	mov	r0, r5
    84f8:	e1a01004 	mov	r1, r4
    84fc:	e28d3008 	add	r3, sp, #8
    8500:	ebffff8f 	bl	8344 <reverse>
    8504:	e28dd048 	add	sp, sp, #72	; 0x48
    8508:	e8bd81f0 	pop	{r4, r5, r6, r7, r8, pc}
    850c:	cccccccd 	stclgt	12, cr12, [ip], {205}	; 0xcd
    8510:	00009994 	muleq	r0, r4, r9
    8514:	000099a0 	andeq	r9, r0, r0, lsr #19
    8518:	000099b4 			; <UNDEFINED> instruction: 0x000099b4
    851c:	00009990 	muleq	r0, r0, r9
    8520:	00009968 	andeq	r9, r0, r8, ror #18
    8524:	0000997c 	andeq	r9, r0, ip, ror r9
    8528:	00009944 	andeq	r9, r0, r4, asr #18

0000852c <rpi_set_output>:
    852c:	e52de004 	push	{lr}		; (str lr, [sp, #-4]!)
    8530:	e24dd00c 	sub	sp, sp, #12
    8534:	e3500000 	cmp	r0, #0
    8538:	1a000008 	bne	8560 <rpi_set_output+0x34>
    853c:	eb000456 	bl	969c <rpi_reset_putc>
    8540:	e59f3034 	ldr	r3, [pc, #52]	; 857c <rpi_set_output+0x50>
    8544:	e58d3000 	str	r3, [sp]
    8548:	e59f0030 	ldr	r0, [pc, #48]	; 8580 <rpi_set_output+0x54>
    854c:	e59f1030 	ldr	r1, [pc, #48]	; 8584 <rpi_set_output+0x58>
    8550:	e59f2030 	ldr	r2, [pc, #48]	; 8588 <rpi_set_output+0x5c>
    8554:	e3a03020 	mov	r3, #32
    8558:	ebffff46 	bl	8278 <printk>
    855c:	eb0000b9 	bl	8848 <clean_reboot>
    8560:	e59f3024 	ldr	r3, [pc, #36]	; 858c <rpi_set_output+0x60>
    8564:	e5830000 	str	r0, [r3]
    8568:	e3510000 	cmp	r1, #0
    856c:	159f301c 	ldrne	r3, [pc, #28]	; 8590 <rpi_set_output+0x64>
    8570:	15831000 	strne	r1, [r3]
    8574:	e28dd00c 	add	sp, sp, #12
    8578:	e49df004 	pop	{pc}		; (ldr pc, [sp], #4)
    857c:	000099b8 			; <UNDEFINED> instruction: 0x000099b8
    8580:	00009968 	andeq	r9, r0, r8, ror #18
    8584:	0000997c 	andeq	r9, r0, ip, ror r9
    8588:	0000994c 	andeq	r9, r0, ip, asr #18
    858c:	000098ec 	andeq	r9, r0, ip, ror #17
    8590:	00009888 	andeq	r9, r0, r8, lsl #17

00008594 <va_printk>:
    8594:	e92d4ff0 	push	{r4, r5, r6, r7, r8, r9, sl, fp, lr}
    8598:	e24dd08c 	sub	sp, sp, #140	; 0x8c
    859c:	e1a0a000 	mov	sl, r0
    85a0:	e1a09003 	mov	r9, r3
    85a4:	e2411001 	sub	r1, r1, #1
    85a8:	e0808001 	add	r8, r0, r1
    85ac:	e3a03000 	mov	r3, #0
    85b0:	e5c03000 	strb	r3, [r0]
    85b4:	e1a04000 	mov	r4, r0
    85b8:	e1a0b003 	mov	fp, r3
    85bc:	ea000088 	b	87e4 <va_printk+0x250>
    85c0:	e3530025 	cmp	r3, #37	; 0x25
    85c4:	12822001 	addne	r2, r2, #1
    85c8:	15c43000 	strbne	r3, [r4]
    85cc:	12844001 	addne	r4, r4, #1
    85d0:	1a000083 	bne	87e4 <va_printk+0x250>
    85d4:	e5d21001 	ldrb	r1, [r2, #1]
    85d8:	e3510025 	cmp	r1, #37	; 0x25
    85dc:	05c43000 	strbeq	r3, [r4]
    85e0:	02822002 	addeq	r2, r2, #2
    85e4:	02844001 	addeq	r4, r4, #1
    85e8:	0a00007d 	beq	87e4 <va_printk+0x250>
    85ec:	e2826001 	add	r6, r2, #1
    85f0:	e1a0700b 	mov	r7, fp
    85f4:	ea000004 	b	860c <va_printk+0x78>
    85f8:	e0877107 	add	r7, r7, r7, lsl #2
    85fc:	e1a07087 	lsl	r7, r7, #1
    8600:	e0877005 	add	r7, r7, r5
    8604:	e2477030 	sub	r7, r7, #48	; 0x30
    8608:	e2866001 	add	r6, r6, #1
    860c:	e5d65000 	ldrb	r5, [r6]
    8610:	e1a00005 	mov	r0, r5
    8614:	ebffff3a 	bl	8304 <isdigit>
    8618:	e3500000 	cmp	r0, #0
    861c:	1afffff5 	bne	85f8 <va_printk+0x64>
    8620:	e357001f 	cmp	r7, #31
    8624:	9a000008 	bls	864c <va_printk+0xb8>
    8628:	eb00041b 	bl	969c <rpi_reset_putc>
    862c:	e59f31dc 	ldr	r3, [pc, #476]	; 8810 <va_printk+0x27c>
    8630:	e58d3000 	str	r3, [sp]
    8634:	e59f01d8 	ldr	r0, [pc, #472]	; 8814 <va_printk+0x280>
    8638:	e59f11d8 	ldr	r1, [pc, #472]	; 8818 <va_printk+0x284>
    863c:	e59f21d8 	ldr	r2, [pc, #472]	; 881c <va_printk+0x288>
    8640:	e3a03092 	mov	r3, #146	; 0x92
    8644:	ebffff0b 	bl	8278 <printk>
    8648:	eb00007e 	bl	8848 <clean_reboot>
    864c:	e2455062 	sub	r5, r5, #98	; 0x62
    8650:	e3550016 	cmp	r5, #22
    8654:	979ff105 	ldrls	pc, [pc, r5, lsl #2]
    8658:	ea00004e 	b	8798 <va_printk+0x204>
    865c:	00008744 	andeq	r8, r0, r4, asr #14
    8660:	00008774 	andeq	r8, r0, r4, ror r7
    8664:	000086d4 	ldrdeq	r8, [r0], -r4
    8668:	00008798 	muleq	r0, r8, r7
    866c:	000086b8 			; <UNDEFINED> instruction: 0x000086b8
    8670:	00008798 	muleq	r0, r8, r7
    8674:	00008798 	muleq	r0, r8, r7
    8678:	00008798 	muleq	r0, r8, r7
    867c:	00008798 	muleq	r0, r8, r7
    8680:	00008798 	muleq	r0, r8, r7
    8684:	00008798 	muleq	r0, r8, r7
    8688:	00008798 	muleq	r0, r8, r7
    868c:	00008798 	muleq	r0, r8, r7
    8690:	00008798 	muleq	r0, r8, r7
    8694:	00008720 	andeq	r8, r0, r0, lsr #14
    8698:	00008798 	muleq	r0, r8, r7
    869c:	00008798 	muleq	r0, r8, r7
    86a0:	00008768 	andeq	r8, r0, r8, ror #14
    86a4:	00008798 	muleq	r0, r8, r7
    86a8:	000086fc 	strdeq	r8, [r0], -ip
    86ac:	00008798 	muleq	r0, r8, r7
    86b0:	00008798 	muleq	r0, r8, r7
    86b4:	00008720 	andeq	r8, r0, r0, lsr #14
    86b8:	eb0003f7 	bl	969c <rpi_reset_putc>
    86bc:	e59f015c 	ldr	r0, [pc, #348]	; 8820 <va_printk+0x28c>
    86c0:	e59f1150 	ldr	r1, [pc, #336]	; 8818 <va_printk+0x284>
    86c4:	e59f2150 	ldr	r2, [pc, #336]	; 881c <va_printk+0x288>
    86c8:	e3a03098 	mov	r3, #152	; 0x98
    86cc:	ebfffee9 	bl	8278 <printk>
    86d0:	eb00005c 	bl	8848 <clean_reboot>
    86d4:	e5993000 	ldr	r3, [r9]
    86d8:	e2899004 	add	r9, r9, #4
    86dc:	e58d7000 	str	r7, [sp]
    86e0:	e3a02001 	mov	r2, #1
    86e4:	e58d2004 	str	r2, [sp, #4]
    86e8:	e3a0000a 	mov	r0, #10
    86ec:	e28d1008 	add	r1, sp, #8
    86f0:	e3a02080 	mov	r2, #128	; 0x80
    86f4:	ebffff22 	bl	8384 <emit>
    86f8:	ea00002f 	b	87bc <va_printk+0x228>
    86fc:	e5993000 	ldr	r3, [r9]
    8700:	e2899004 	add	r9, r9, #4
    8704:	e58d7000 	str	r7, [sp]
    8708:	e58db004 	str	fp, [sp, #4]
    870c:	e3a0000a 	mov	r0, #10
    8710:	e28d1008 	add	r1, sp, #8
    8714:	e3a02080 	mov	r2, #128	; 0x80
    8718:	ebffff19 	bl	8384 <emit>
    871c:	ea000026 	b	87bc <va_printk+0x228>
    8720:	e5993000 	ldr	r3, [r9]
    8724:	e2899004 	add	r9, r9, #4
    8728:	e58d7000 	str	r7, [sp]
    872c:	e58db004 	str	fp, [sp, #4]
    8730:	e3a00010 	mov	r0, #16
    8734:	e28d1008 	add	r1, sp, #8
    8738:	e3a02080 	mov	r2, #128	; 0x80
    873c:	ebffff10 	bl	8384 <emit>
    8740:	ea00001d 	b	87bc <va_printk+0x228>
    8744:	e5993000 	ldr	r3, [r9]
    8748:	e2899004 	add	r9, r9, #4
    874c:	e58d7000 	str	r7, [sp]
    8750:	e58db004 	str	fp, [sp, #4]
    8754:	e3a00002 	mov	r0, #2
    8758:	e28d1008 	add	r1, sp, #8
    875c:	e3a02080 	mov	r2, #128	; 0x80
    8760:	ebffff07 	bl	8384 <emit>
    8764:	ea000014 	b	87bc <va_printk+0x228>
    8768:	e5990000 	ldr	r0, [r9]
    876c:	e2899004 	add	r9, r9, #4
    8770:	ea000011 	b	87bc <va_printk+0x228>
    8774:	e5993000 	ldr	r3, [r9]
    8778:	e2899004 	add	r9, r9, #4
    877c:	e58d7000 	str	r7, [sp]
    8780:	e58db004 	str	fp, [sp, #4]
    8784:	e3a00008 	mov	r0, #8
    8788:	e08d1000 	add	r1, sp, r0
    878c:	e3a02080 	mov	r2, #128	; 0x80
    8790:	ebfffefb 	bl	8384 <emit>
    8794:	ea000008 	b	87bc <va_printk+0x228>
    8798:	eb0003bf 	bl	969c <rpi_reset_putc>
    879c:	e5d63000 	ldrb	r3, [r6]
    87a0:	e58d3000 	str	r3, [sp]
    87a4:	e59f0078 	ldr	r0, [pc, #120]	; 8824 <va_printk+0x290>
    87a8:	e59f1068 	ldr	r1, [pc, #104]	; 8818 <va_printk+0x284>
    87ac:	e59f2068 	ldr	r2, [pc, #104]	; 881c <va_printk+0x288>
    87b0:	e3a030b9 	mov	r3, #185	; 0xb9
    87b4:	ebfffeaf 	bl	8278 <printk>
    87b8:	eb000022 	bl	8848 <clean_reboot>
    87bc:	e2862001 	add	r2, r6, #1
    87c0:	ea000002 	b	87d0 <va_printk+0x23c>
    87c4:	e2800001 	add	r0, r0, #1
    87c8:	e5c43000 	strb	r3, [r4]
    87cc:	e2844001 	add	r4, r4, #1
    87d0:	e1540008 	cmp	r4, r8
    87d4:	2a000002 	bcs	87e4 <va_printk+0x250>
    87d8:	e5d03000 	ldrb	r3, [r0]
    87dc:	e3530000 	cmp	r3, #0
    87e0:	1afffff7 	bne	87c4 <va_printk+0x230>
    87e4:	e5d23000 	ldrb	r3, [r2]
    87e8:	e3530000 	cmp	r3, #0
    87ec:	0a000001 	beq	87f8 <va_printk+0x264>
    87f0:	e1540008 	cmp	r4, r8
    87f4:	3affff71 	bcc	85c0 <va_printk+0x2c>
    87f8:	e2840001 	add	r0, r4, #1
    87fc:	e3a03000 	mov	r3, #0
    8800:	e5c43000 	strb	r3, [r4]
    8804:	e06a0000 	rsb	r0, sl, r0
    8808:	e28dd08c 	add	sp, sp, #140	; 0x8c
    880c:	e8bd8ff0 	pop	{r4, r5, r6, r7, r8, r9, sl, fp, pc}
    8810:	000099c0 	andeq	r9, r0, r0, asr #19
    8814:	00009968 	andeq	r9, r0, r8, ror #18
    8818:	0000997c 	andeq	r9, r0, ip, ror r9
    881c:	0000995c 	andeq	r9, r0, ip, asr r9
    8820:	000099cc 	andeq	r9, r0, ip, asr #19
    8824:	000099f4 	strdeq	r9, [r0], -r4

00008828 <enable_cache>:
    8828:	ee113f10 	mrc	15, 0, r3, cr1, cr0, {0}
    882c:	e3833b06 	orr	r3, r3, #6144	; 0x1800
    8830:	ee013f10 	mcr	15, 0, r3, cr1, cr0, {0}
    8834:	e12fff1e 	bx	lr

00008838 <disable_cache>:
    8838:	ee113f10 	mrc	15, 0, r3, cr1, cr0, {0}
    883c:	e3c33b06 	bic	r3, r3, #6144	; 0x1800
    8840:	ee013f10 	mcr	15, 0, r3, cr1, cr0, {0}
    8844:	e12fff1e 	bx	lr

00008848 <clean_reboot>:
    8848:	e92d4008 	push	{r3, lr}
    884c:	e59f3014 	ldr	r3, [pc, #20]	; 8868 <clean_reboot+0x20>
    8850:	e5933000 	ldr	r3, [r3]
    8854:	e59f0010 	ldr	r0, [pc, #16]	; 886c <clean_reboot+0x24>
    8858:	e12fff33 	blx	r3
    885c:	e3a00064 	mov	r0, #100	; 0x64
    8860:	eb000063 	bl	89f4 <delay_ms>
    8864:	eb000038 	bl	894c <rpi_reboot>
    8868:	00009888 	andeq	r9, r0, r8, lsl #17
    886c:	00009a2c 	andeq	r9, r0, ip, lsr #20

00008870 <internal_sw_putchar>:
    8870:	e92d4010 	push	{r4, lr}
    8874:	e1a04000 	mov	r4, r0
    8878:	e59f000c 	ldr	r0, [pc, #12]	; 888c <internal_sw_putchar+0x1c>
    887c:	e6ef1074 	uxtb	r1, r4
    8880:	eb0001cd 	bl	8fbc <sw_uart_putc>
    8884:	e1a00004 	mov	r0, r4
    8888:	e8bd8010 	pop	{r4, pc}
    888c:	00009f80 	andeq	r9, r0, r0, lsl #31

00008890 <_cstart>:
    8890:	e92d4008 	push	{r3, lr}
    8894:	e59f3068 	ldr	r3, [pc, #104]	; 8904 <_cstart+0x74>
    8898:	e59f2068 	ldr	r2, [pc, #104]	; 8908 <_cstart+0x78>
    889c:	e3a01000 	mov	r1, #0
    88a0:	ea000001 	b	88ac <_cstart+0x1c>
    88a4:	e5831000 	str	r1, [r3]
    88a8:	e2833004 	add	r3, r3, #4
    88ac:	e1530002 	cmp	r3, r2
    88b0:	3afffffb 	bcc	88a4 <_cstart+0x14>
    88b4:	eb00038c 	bl	96ec <cb_get_block>
    88b8:	e3500000 	cmp	r0, #0
    88bc:	0a00000e 	beq	88fc <_cstart+0x6c>
    88c0:	e5d02004 	ldrb	r2, [r0, #4]
    88c4:	e3520002 	cmp	r2, #2
    88c8:	1a00000b 	bne	88fc <_cstart+0x6c>
    88cc:	e59f1038 	ldr	r1, [pc, #56]	; 890c <_cstart+0x7c>
    88d0:	e59f2038 	ldr	r2, [pc, #56]	; 8910 <_cstart+0x80>
    88d4:	e5821000 	str	r1, [r2]
    88d8:	e59fc034 	ldr	ip, [pc, #52]	; 8914 <_cstart+0x84>
    88dc:	e2803008 	add	r3, r0, #8
    88e0:	e8930007 	ldm	r3, {r0, r1, r2}
    88e4:	e88c0007 	stm	ip, {r0, r1, r2}
    88e8:	e1a0000c 	mov	r0, ip
    88ec:	e59f1024 	ldr	r1, [pc, #36]	; 8918 <_cstart+0x88>
    88f0:	eb000314 	bl	9548 <sw_uart_printk>
    88f4:	e59f0020 	ldr	r0, [pc, #32]	; 891c <_cstart+0x8c>
    88f8:	ebfffe5e 	bl	8278 <printk>
    88fc:	ebfffe49 	bl	8228 <notmain>
    8900:	eb000011 	bl	894c <rpi_reboot>
    8904:	00009b80 	andeq	r9, r0, r0, lsl #23
    8908:	00009f90 	muleq	r0, r0, pc	; <UNPREDICTABLE>
    890c:	00008870 	andeq	r8, r0, r0, ror r8
    8910:	000098ec 	andeq	r9, r0, ip, ror #17
    8914:	00009f80 	andeq	r9, r0, r0, lsl #31
    8918:	00009a38 	andeq	r9, r0, r8, lsr sl
    891c:	00009a5c 	andeq	r9, r0, ip, asr sl

00008920 <at_user_level>:
    8920:	e10f0000 	mrs	r0, CPSR
    8924:	e200001f 	and	r0, r0, #31
    8928:	e3500010 	cmp	r0, #16
    892c:	13a00000 	movne	r0, #0
    8930:	03a00001 	moveq	r0, #1
    8934:	e12fff1e 	bx	lr

00008938 <set_user_level>:
    8938:	e10f3000 	mrs	r3, CPSR
    893c:	e3c3301f 	bic	r3, r3, #31
    8940:	e3833010 	orr	r3, r3, #16
    8944:	e129f003 	msr	CPSR_fc, r3
    8948:	e12fff1e 	bx	lr

0000894c <rpi_reboot>:
    894c:	e92d4008 	push	{r3, lr}
    8950:	ebfffff2 	bl	8920 <at_user_level>
    8954:	e3500000 	cmp	r0, #0
    8958:	0a000000 	beq	8960 <rpi_reboot+0x14>
    895c:	ebfffff5 	bl	8938 <set_user_level>
    8960:	e3a0001e 	mov	r0, #30
    8964:	eb000022 	bl	89f4 <delay_ms>
    8968:	e59f0014 	ldr	r0, [pc, #20]	; 8984 <rpi_reboot+0x38>
    896c:	e59f1014 	ldr	r1, [pc, #20]	; 8988 <rpi_reboot+0x3c>
    8970:	eb000333 	bl	9644 <PUT32>
    8974:	e59f0010 	ldr	r0, [pc, #16]	; 898c <rpi_reboot+0x40>
    8978:	e59f1010 	ldr	r1, [pc, #16]	; 8990 <rpi_reboot+0x44>
    897c:	eb000330 	bl	9644 <PUT32>
    8980:	eafffffe 	b	8980 <rpi_reboot+0x34>
    8984:	20100024 	andscs	r0, r0, r4, lsr #32
    8988:	5a000001 	bpl	8994 <delay_cycles>
    898c:	2010001c 	andscs	r0, r0, ip, lsl r0
    8990:	5a000020 	bpl	8a18 <delay_sec+0x10>

00008994 <delay_cycles>:
    8994:	ea000001 	b	89a0 <delay_cycles+0xc>
    8998:	e2811000 	add	r1, r1, #0
    899c:	e1a00003 	mov	r0, r3
    89a0:	e2403001 	sub	r3, r0, #1
    89a4:	e3500000 	cmp	r0, #0
    89a8:	1afffffa 	bne	8998 <delay_cycles+0x4>
    89ac:	e12fff1e 	bx	lr

000089b0 <timer_get_usec_raw>:
    89b0:	e92d4008 	push	{r3, lr}
    89b4:	e59f0004 	ldr	r0, [pc, #4]	; 89c0 <timer_get_usec_raw+0x10>
    89b8:	eb00032d 	bl	9674 <GET32>
    89bc:	e8bd8008 	pop	{r3, pc}
    89c0:	20003004 	andcs	r3, r0, r4

000089c4 <timer_get_usec>:
    89c4:	e92d4008 	push	{r3, lr}
    89c8:	ebfffff8 	bl	89b0 <timer_get_usec_raw>
    89cc:	e8bd8008 	pop	{r3, pc}

000089d0 <delay_us>:
    89d0:	e92d4038 	push	{r3, r4, r5, lr}
    89d4:	e1a05000 	mov	r5, r0
    89d8:	ebfffff9 	bl	89c4 <timer_get_usec>
    89dc:	e1a04000 	mov	r4, r0
    89e0:	ebfffff7 	bl	89c4 <timer_get_usec>
    89e4:	e0640000 	rsb	r0, r4, r0
    89e8:	e1500005 	cmp	r0, r5
    89ec:	3afffffb 	bcc	89e0 <delay_us+0x10>
    89f0:	e8bd8038 	pop	{r3, r4, r5, pc}

000089f4 <delay_ms>:
    89f4:	e92d4008 	push	{r3, lr}
    89f8:	e3a03ffa 	mov	r3, #1000	; 0x3e8
    89fc:	e0000093 	mul	r0, r3, r0
    8a00:	ebfffff2 	bl	89d0 <delay_us>
    8a04:	e8bd8008 	pop	{r3, pc}

00008a08 <delay_sec>:
    8a08:	e92d4008 	push	{r3, lr}
    8a0c:	e3a03ffa 	mov	r3, #1000	; 0x3e8
    8a10:	e0000093 	mul	r0, r3, r0
    8a14:	ebfffff6 	bl	89f4 <delay_ms>
    8a18:	e8bd8008 	pop	{r3, pc}

00008a1c <gpio_set_output>:
    8a1c:	e92d4038 	push	{r3, r4, r5, lr}
    8a20:	e1a04000 	mov	r4, r0
    8a24:	e350001f 	cmp	r0, #31
    8a28:	88bd8038 	pophi	{r3, r4, r5, pc}
    8a2c:	e59f30b4 	ldr	r3, [pc, #180]	; 8ae8 <gpio_set_output+0xcc>
    8a30:	e0832093 	umull	r2, r3, r3, r0
    8a34:	e1a031a3 	lsr	r3, r3, #3
    8a38:	e3530005 	cmp	r3, #5
    8a3c:	979ff103 	ldrls	pc, [pc, r3, lsl #2]
    8a40:	ea000017 	b	8aa4 <gpio_set_output+0x88>
    8a44:	00008a5c 	andeq	r8, r0, ip, asr sl
    8a48:	00008a68 	andeq	r8, r0, r8, ror #20
    8a4c:	00008a74 	andeq	r8, r0, r4, ror sl
    8a50:	00008a80 	andeq	r8, r0, r0, lsl #21
    8a54:	00008a8c 	andeq	r8, r0, ip, lsl #21
    8a58:	00008a98 	muleq	r0, r8, sl
    8a5c:	e59f3088 	ldr	r3, [pc, #136]	; 8aec <gpio_set_output+0xd0>
    8a60:	e5935000 	ldr	r5, [r3]
    8a64:	ea00000f 	b	8aa8 <gpio_set_output+0x8c>
    8a68:	e59f307c 	ldr	r3, [pc, #124]	; 8aec <gpio_set_output+0xd0>
    8a6c:	e5935004 	ldr	r5, [r3, #4]
    8a70:	ea00000c 	b	8aa8 <gpio_set_output+0x8c>
    8a74:	e59f3070 	ldr	r3, [pc, #112]	; 8aec <gpio_set_output+0xd0>
    8a78:	e5935008 	ldr	r5, [r3, #8]
    8a7c:	ea000009 	b	8aa8 <gpio_set_output+0x8c>
    8a80:	e59f3064 	ldr	r3, [pc, #100]	; 8aec <gpio_set_output+0xd0>
    8a84:	e593500c 	ldr	r5, [r3, #12]
    8a88:	ea000006 	b	8aa8 <gpio_set_output+0x8c>
    8a8c:	e59f3058 	ldr	r3, [pc, #88]	; 8aec <gpio_set_output+0xd0>
    8a90:	e5935010 	ldr	r5, [r3, #16]
    8a94:	ea000003 	b	8aa8 <gpio_set_output+0x8c>
    8a98:	e59f304c 	ldr	r3, [pc, #76]	; 8aec <gpio_set_output+0xd0>
    8a9c:	e5935014 	ldr	r5, [r3, #20]
    8aa0:	ea000000 	b	8aa8 <gpio_set_output+0x8c>
    8aa4:	e3a05000 	mov	r5, #0
    8aa8:	e1a00005 	mov	r0, r5
    8aac:	eb0002ee 	bl	966c <get32>
    8ab0:	e59f1030 	ldr	r1, [pc, #48]	; 8ae8 <gpio_set_output+0xcc>
    8ab4:	e0813491 	umull	r3, r1, r1, r4
    8ab8:	e1a011a1 	lsr	r1, r1, #3
    8abc:	e0811101 	add	r1, r1, r1, lsl #2
    8ac0:	e1a01081 	lsl	r1, r1, #1
    8ac4:	e0611004 	rsb	r1, r1, r4
    8ac8:	e0811081 	add	r1, r1, r1, lsl #1
    8acc:	e3a03007 	mov	r3, #7
    8ad0:	e1c03113 	bic	r3, r0, r3, lsl r1
    8ad4:	e1a00005 	mov	r0, r5
    8ad8:	e3a02001 	mov	r2, #1
    8adc:	e1831112 	orr	r1, r3, r2, lsl r1
    8ae0:	eb0002d5 	bl	963c <put32>
    8ae4:	e8bd8038 	pop	{r3, r4, r5, pc}
    8ae8:	cccccccd 	stclgt	12, cr12, [ip], {205}	; 0xcd
    8aec:	0000988c 	andeq	r9, r0, ip, lsl #17

00008af0 <gpio_set_on>:
    8af0:	e92d4008 	push	{r3, lr}
    8af4:	e350001f 	cmp	r0, #31
    8af8:	88bd8008 	pophi	{r3, pc}
    8afc:	959f3020 	ldrls	r3, [pc, #32]	; 8b24 <gpio_set_on+0x34>
    8b00:	95932018 	ldrls	r2, [r3, #24]
    8b04:	859f3018 	ldrhi	r3, [pc, #24]	; 8b24 <gpio_set_on+0x34>
    8b08:	8593201c 	ldrhi	r2, [r3, #28]
    8b0c:	e200301f 	and	r3, r0, #31
    8b10:	e1a00002 	mov	r0, r2
    8b14:	e3a01001 	mov	r1, #1
    8b18:	e1a01311 	lsl	r1, r1, r3
    8b1c:	eb0002c6 	bl	963c <put32>
    8b20:	e8bd8008 	pop	{r3, pc}
    8b24:	0000988c 	andeq	r9, r0, ip, lsl #17

00008b28 <gpio_set_off>:
    8b28:	e92d4008 	push	{r3, lr}
    8b2c:	e350001f 	cmp	r0, #31
    8b30:	88bd8008 	pophi	{r3, pc}
    8b34:	959f3020 	ldrls	r3, [pc, #32]	; 8b5c <gpio_set_off+0x34>
    8b38:	95932020 	ldrls	r2, [r3, #32]
    8b3c:	859f3018 	ldrhi	r3, [pc, #24]	; 8b5c <gpio_set_off+0x34>
    8b40:	85932024 	ldrhi	r2, [r3, #36]	; 0x24
    8b44:	e200301f 	and	r3, r0, #31
    8b48:	e1a00002 	mov	r0, r2
    8b4c:	e3a01001 	mov	r1, #1
    8b50:	e1a01311 	lsl	r1, r1, r3
    8b54:	eb0002b8 	bl	963c <put32>
    8b58:	e8bd8008 	pop	{r3, pc}
    8b5c:	0000988c 	andeq	r9, r0, ip, lsl #17

00008b60 <gpio_set_input>:
    8b60:	e92d4038 	push	{r3, r4, r5, lr}
    8b64:	e1a04000 	mov	r4, r0
    8b68:	e350001f 	cmp	r0, #31
    8b6c:	88bd8038 	pophi	{r3, r4, r5, pc}
    8b70:	e59f30ac 	ldr	r3, [pc, #172]	; 8c24 <gpio_set_input+0xc4>
    8b74:	e0832093 	umull	r2, r3, r3, r0
    8b78:	e1a031a3 	lsr	r3, r3, #3
    8b7c:	e3530005 	cmp	r3, #5
    8b80:	979ff103 	ldrls	pc, [pc, r3, lsl #2]
    8b84:	ea000017 	b	8be8 <gpio_set_input+0x88>
    8b88:	00008ba0 	andeq	r8, r0, r0, lsr #23
    8b8c:	00008bac 	andeq	r8, r0, ip, lsr #23
    8b90:	00008bb8 			; <UNDEFINED> instruction: 0x00008bb8
    8b94:	00008bc4 	andeq	r8, r0, r4, asr #23
    8b98:	00008bd0 	ldrdeq	r8, [r0], -r0
    8b9c:	00008bdc 	ldrdeq	r8, [r0], -ip
    8ba0:	e59f3080 	ldr	r3, [pc, #128]	; 8c28 <gpio_set_input+0xc8>
    8ba4:	e5935000 	ldr	r5, [r3]
    8ba8:	ea00000f 	b	8bec <gpio_set_input+0x8c>
    8bac:	e59f3074 	ldr	r3, [pc, #116]	; 8c28 <gpio_set_input+0xc8>
    8bb0:	e5935004 	ldr	r5, [r3, #4]
    8bb4:	ea00000c 	b	8bec <gpio_set_input+0x8c>
    8bb8:	e59f3068 	ldr	r3, [pc, #104]	; 8c28 <gpio_set_input+0xc8>
    8bbc:	e5935008 	ldr	r5, [r3, #8]
    8bc0:	ea000009 	b	8bec <gpio_set_input+0x8c>
    8bc4:	e59f305c 	ldr	r3, [pc, #92]	; 8c28 <gpio_set_input+0xc8>
    8bc8:	e593500c 	ldr	r5, [r3, #12]
    8bcc:	ea000006 	b	8bec <gpio_set_input+0x8c>
    8bd0:	e59f3050 	ldr	r3, [pc, #80]	; 8c28 <gpio_set_input+0xc8>
    8bd4:	e5935010 	ldr	r5, [r3, #16]
    8bd8:	ea000003 	b	8bec <gpio_set_input+0x8c>
    8bdc:	e59f3044 	ldr	r3, [pc, #68]	; 8c28 <gpio_set_input+0xc8>
    8be0:	e5935014 	ldr	r5, [r3, #20]
    8be4:	ea000000 	b	8bec <gpio_set_input+0x8c>
    8be8:	e3a05000 	mov	r5, #0
    8bec:	e1a00005 	mov	r0, r5
    8bf0:	eb00029d 	bl	966c <get32>
    8bf4:	e59f1028 	ldr	r1, [pc, #40]	; 8c24 <gpio_set_input+0xc4>
    8bf8:	e0813491 	umull	r3, r1, r1, r4
    8bfc:	e1a011a1 	lsr	r1, r1, #3
    8c00:	e0811101 	add	r1, r1, r1, lsl #2
    8c04:	e1a01081 	lsl	r1, r1, #1
    8c08:	e0611004 	rsb	r1, r1, r4
    8c0c:	e0811081 	add	r1, r1, r1, lsl #1
    8c10:	e3a03007 	mov	r3, #7
    8c14:	e1c01113 	bic	r1, r0, r3, lsl r1
    8c18:	e1a00005 	mov	r0, r5
    8c1c:	eb000286 	bl	963c <put32>
    8c20:	e8bd8038 	pop	{r3, r4, r5, pc}
    8c24:	cccccccd 	stclgt	12, cr12, [ip], {205}	; 0xcd
    8c28:	0000988c 	andeq	r9, r0, ip, lsl #17

00008c2c <gpio_read>:
    8c2c:	e92d4010 	push	{r4, lr}
    8c30:	e1a04000 	mov	r4, r0
    8c34:	e350001f 	cmp	r0, #31
    8c38:	8a00000b 	bhi	8c6c <gpio_read+0x40>
    8c3c:	8a000003 	bhi	8c50 <gpio_read+0x24>
    8c40:	e59f302c 	ldr	r3, [pc, #44]	; 8c74 <gpio_read+0x48>
    8c44:	e5930028 	ldr	r0, [r3, #40]	; 0x28
    8c48:	eb000287 	bl	966c <get32>
    8c4c:	ea000002 	b	8c5c <gpio_read+0x30>
    8c50:	e59f301c 	ldr	r3, [pc, #28]	; 8c74 <gpio_read+0x48>
    8c54:	e593002c 	ldr	r0, [r3, #44]	; 0x2c
    8c58:	eb000283 	bl	966c <get32>
    8c5c:	e204401f 	and	r4, r4, #31
    8c60:	e3a03001 	mov	r3, #1
    8c64:	e0000413 	and	r0, r0, r3, lsl r4
    8c68:	e8bd8010 	pop	{r4, pc}
    8c6c:	e3e00000 	mvn	r0, #0
    8c70:	e8bd8010 	pop	{r4, pc}
    8c74:	0000988c 	andeq	r9, r0, ip, lsl #17

00008c78 <gpio_write>:
    8c78:	e92d4008 	push	{r3, lr}
    8c7c:	e350001f 	cmp	r0, #31
    8c80:	88bd8008 	pophi	{r3, pc}
    8c84:	e3510000 	cmp	r1, #0
    8c88:	0a000001 	beq	8c94 <gpio_write+0x1c>
    8c8c:	ebffff97 	bl	8af0 <gpio_set_on>
    8c90:	e8bd8008 	pop	{r3, pc}
    8c94:	ebffffa3 	bl	8b28 <gpio_set_off>
    8c98:	e8bd8008 	pop	{r3, pc}

00008c9c <gpio_set_function>:
    8c9c:	e92d4070 	push	{r4, r5, r6, lr}
    8ca0:	e1a04000 	mov	r4, r0
    8ca4:	e1a05001 	mov	r5, r1
    8ca8:	e3510007 	cmp	r1, #7
    8cac:	9350001f 	cmpls	r0, #31
    8cb0:	88bd8070 	pophi	{r4, r5, r6, pc}
    8cb4:	e59f30b0 	ldr	r3, [pc, #176]	; 8d6c <gpio_set_function+0xd0>
    8cb8:	e0832093 	umull	r2, r3, r3, r0
    8cbc:	e1a031a3 	lsr	r3, r3, #3
    8cc0:	e3530005 	cmp	r3, #5
    8cc4:	979ff103 	ldrls	pc, [pc, r3, lsl #2]
    8cc8:	ea000017 	b	8d2c <gpio_set_function+0x90>
    8ccc:	00008ce4 	andeq	r8, r0, r4, ror #25
    8cd0:	00008cf0 	strdeq	r8, [r0], -r0
    8cd4:	00008cfc 	strdeq	r8, [r0], -ip
    8cd8:	00008d08 	andeq	r8, r0, r8, lsl #26
    8cdc:	00008d14 	andeq	r8, r0, r4, lsl sp
    8ce0:	00008d20 	andeq	r8, r0, r0, lsr #26
    8ce4:	e59f3084 	ldr	r3, [pc, #132]	; 8d70 <gpio_set_function+0xd4>
    8ce8:	e5936000 	ldr	r6, [r3]
    8cec:	ea00000f 	b	8d30 <gpio_set_function+0x94>
    8cf0:	e59f3078 	ldr	r3, [pc, #120]	; 8d70 <gpio_set_function+0xd4>
    8cf4:	e5936004 	ldr	r6, [r3, #4]
    8cf8:	ea00000c 	b	8d30 <gpio_set_function+0x94>
    8cfc:	e59f306c 	ldr	r3, [pc, #108]	; 8d70 <gpio_set_function+0xd4>
    8d00:	e5936008 	ldr	r6, [r3, #8]
    8d04:	ea000009 	b	8d30 <gpio_set_function+0x94>
    8d08:	e59f3060 	ldr	r3, [pc, #96]	; 8d70 <gpio_set_function+0xd4>
    8d0c:	e593600c 	ldr	r6, [r3, #12]
    8d10:	ea000006 	b	8d30 <gpio_set_function+0x94>
    8d14:	e59f3054 	ldr	r3, [pc, #84]	; 8d70 <gpio_set_function+0xd4>
    8d18:	e5936010 	ldr	r6, [r3, #16]
    8d1c:	ea000003 	b	8d30 <gpio_set_function+0x94>
    8d20:	e59f3048 	ldr	r3, [pc, #72]	; 8d70 <gpio_set_function+0xd4>
    8d24:	e5936014 	ldr	r6, [r3, #20]
    8d28:	ea000000 	b	8d30 <gpio_set_function+0x94>
    8d2c:	e3a06000 	mov	r6, #0
    8d30:	e1a00006 	mov	r0, r6
    8d34:	eb00024c 	bl	966c <get32>
    8d38:	e59f302c 	ldr	r3, [pc, #44]	; 8d6c <gpio_set_function+0xd0>
    8d3c:	e0832493 	umull	r2, r3, r3, r4
    8d40:	e1a031a3 	lsr	r3, r3, #3
    8d44:	e0833103 	add	r3, r3, r3, lsl #2
    8d48:	e1a03083 	lsl	r3, r3, #1
    8d4c:	e0633004 	rsb	r3, r3, r4
    8d50:	e0833083 	add	r3, r3, r3, lsl #1
    8d54:	e3a01007 	mov	r1, #7
    8d58:	e1c01311 	bic	r1, r0, r1, lsl r3
    8d5c:	e1a00006 	mov	r0, r6
    8d60:	e1811315 	orr	r1, r1, r5, lsl r3
    8d64:	eb000234 	bl	963c <put32>
    8d68:	e8bd8070 	pop	{r4, r5, r6, pc}
    8d6c:	cccccccd 	stclgt	12, cr12, [ip], {205}	; 0xcd
    8d70:	0000988c 	andeq	r9, r0, ip, lsl #17

00008d74 <gpio_toggle>:
    8d74:	e92d4008 	push	{r3, lr}
    8d78:	e350001f 	cmp	r0, #31
    8d7c:	88bd8008 	pophi	{r3, pc}
    8d80:	959f3020 	ldrls	r3, [pc, #32]	; 8da8 <gpio_toggle+0x34>
    8d84:	95932018 	ldrls	r2, [r3, #24]
    8d88:	859f3018 	ldrhi	r3, [pc, #24]	; 8da8 <gpio_toggle+0x34>
    8d8c:	8593201c 	ldrhi	r2, [r3, #28]
    8d90:	e200301f 	and	r3, r0, #31
    8d94:	e1a00002 	mov	r0, r2
    8d98:	e3a01001 	mov	r1, #1
    8d9c:	e1a01311 	lsl	r1, r1, r3
    8da0:	eb000225 	bl	963c <put32>
    8da4:	e8bd8008 	pop	{r3, pc}
    8da8:	0000988c 	andeq	r9, r0, ip, lsl #17

00008dac <is_gpio_int>:
    8dac:	e92d4008 	push	{r3, lr}
    8db0:	e59f301c 	ldr	r3, [pc, #28]	; 8dd4 <is_gpio_int+0x28>
    8db4:	e5930030 	ldr	r0, [r3, #48]	; 0x30
    8db8:	eb00022b 	bl	966c <get32>
    8dbc:	e3500000 	cmp	r0, #0
    8dc0:	0a000001 	beq	8dcc <is_gpio_int+0x20>
    8dc4:	e3a00001 	mov	r0, #1
    8dc8:	e8bd8008 	pop	{r3, pc}
    8dcc:	e3a00000 	mov	r0, #0
    8dd0:	e8bd8008 	pop	{r3, pc}
    8dd4:	0000988c 	andeq	r9, r0, ip, lsl #17

00008dd8 <gpio_int_rising_edge>:
    8dd8:	e92d4038 	push	{r3, r4, r5, lr}
    8ddc:	e1a04000 	mov	r4, r0
    8de0:	e350001f 	cmp	r0, #31
    8de4:	88bd8038 	pophi	{r3, r4, r5, pc}
    8de8:	eb00020d 	bl	9624 <dev_barrier>
    8dec:	e354001f 	cmp	r4, #31
    8df0:	8a000007 	bhi	8e14 <gpio_int_rising_edge+0x3c>
    8df4:	e59f505c 	ldr	r5, [pc, #92]	; 8e58 <gpio_int_rising_edge+0x80>
    8df8:	e5950034 	ldr	r0, [r5, #52]	; 0x34
    8dfc:	eb00021a 	bl	966c <get32>
    8e00:	e3a01001 	mov	r1, #1
    8e04:	e1801411 	orr	r1, r0, r1, lsl r4
    8e08:	e5950034 	ldr	r0, [r5, #52]	; 0x34
    8e0c:	eb00020a 	bl	963c <put32>
    8e10:	ea000007 	b	8e34 <gpio_int_rising_edge+0x5c>
    8e14:	e59f503c 	ldr	r5, [pc, #60]	; 8e58 <gpio_int_rising_edge+0x80>
    8e18:	e5950038 	ldr	r0, [r5, #56]	; 0x38
    8e1c:	eb000212 	bl	966c <get32>
    8e20:	e204401f 	and	r4, r4, #31
    8e24:	e3a01001 	mov	r1, #1
    8e28:	e1801411 	orr	r1, r0, r1, lsl r4
    8e2c:	e5950038 	ldr	r0, [r5, #56]	; 0x38
    8e30:	eb000201 	bl	963c <put32>
    8e34:	eb0001fa 	bl	9624 <dev_barrier>
    8e38:	e59f4018 	ldr	r4, [pc, #24]	; 8e58 <gpio_int_rising_edge+0x80>
    8e3c:	e594003c 	ldr	r0, [r4, #60]	; 0x3c
    8e40:	eb000209 	bl	966c <get32>
    8e44:	e3801802 	orr	r1, r0, #131072	; 0x20000
    8e48:	e594003c 	ldr	r0, [r4, #60]	; 0x3c
    8e4c:	eb0001fa 	bl	963c <put32>
    8e50:	eb0001f3 	bl	9624 <dev_barrier>
    8e54:	e8bd8038 	pop	{r3, r4, r5, pc}
    8e58:	0000988c 	andeq	r9, r0, ip, lsl #17

00008e5c <gpio_int_falling_edge>:
    8e5c:	e92d4038 	push	{r3, r4, r5, lr}
    8e60:	e1a04000 	mov	r4, r0
    8e64:	e350001f 	cmp	r0, #31
    8e68:	88bd8038 	pophi	{r3, r4, r5, pc}
    8e6c:	eb0001ec 	bl	9624 <dev_barrier>
    8e70:	e354001f 	cmp	r4, #31
    8e74:	8a000007 	bhi	8e98 <gpio_int_falling_edge+0x3c>
    8e78:	e59f505c 	ldr	r5, [pc, #92]	; 8edc <gpio_int_falling_edge+0x80>
    8e7c:	e5950040 	ldr	r0, [r5, #64]	; 0x40
    8e80:	eb0001f9 	bl	966c <get32>
    8e84:	e3a01001 	mov	r1, #1
    8e88:	e1801411 	orr	r1, r0, r1, lsl r4
    8e8c:	e5950040 	ldr	r0, [r5, #64]	; 0x40
    8e90:	eb0001e9 	bl	963c <put32>
    8e94:	ea000007 	b	8eb8 <gpio_int_falling_edge+0x5c>
    8e98:	e59f503c 	ldr	r5, [pc, #60]	; 8edc <gpio_int_falling_edge+0x80>
    8e9c:	e5950044 	ldr	r0, [r5, #68]	; 0x44
    8ea0:	eb0001f1 	bl	966c <get32>
    8ea4:	e204401f 	and	r4, r4, #31
    8ea8:	e3a01001 	mov	r1, #1
    8eac:	e1801411 	orr	r1, r0, r1, lsl r4
    8eb0:	e5950044 	ldr	r0, [r5, #68]	; 0x44
    8eb4:	eb0001e0 	bl	963c <put32>
    8eb8:	eb0001d9 	bl	9624 <dev_barrier>
    8ebc:	e59f4018 	ldr	r4, [pc, #24]	; 8edc <gpio_int_falling_edge+0x80>
    8ec0:	e594003c 	ldr	r0, [r4, #60]	; 0x3c
    8ec4:	eb0001e8 	bl	966c <get32>
    8ec8:	e3801601 	orr	r1, r0, #1048576	; 0x100000
    8ecc:	e594003c 	ldr	r0, [r4, #60]	; 0x3c
    8ed0:	eb0001d9 	bl	963c <put32>
    8ed4:	eb0001d2 	bl	9624 <dev_barrier>
    8ed8:	e8bd8038 	pop	{r3, r4, r5, pc}
    8edc:	0000988c 	andeq	r9, r0, ip, lsl #17

00008ee0 <gpio_event_detected>:
    8ee0:	e92d4010 	push	{r4, lr}
    8ee4:	e1a04000 	mov	r4, r0
    8ee8:	e350001f 	cmp	r0, #31
    8eec:	8a000019 	bhi	8f58 <gpio_event_detected+0x78>
    8ef0:	eb0001cb 	bl	9624 <dev_barrier>
    8ef4:	e354001f 	cmp	r4, #31
    8ef8:	8a000008 	bhi	8f20 <gpio_event_detected+0x40>
    8efc:	e59f305c 	ldr	r3, [pc, #92]	; 8f60 <gpio_event_detected+0x80>
    8f00:	e5930048 	ldr	r0, [r3, #72]	; 0x48
    8f04:	eb0001d8 	bl	966c <get32>
    8f08:	e3a03001 	mov	r3, #1
    8f0c:	e0103413 	ands	r3, r0, r3, lsl r4
    8f10:	0a00000d 	beq	8f4c <gpio_event_detected+0x6c>
    8f14:	eb0001c2 	bl	9624 <dev_barrier>
    8f18:	e3a00001 	mov	r0, #1
    8f1c:	e8bd8010 	pop	{r4, pc}
    8f20:	e59f3038 	ldr	r3, [pc, #56]	; 8f60 <gpio_event_detected+0x80>
    8f24:	e593004c 	ldr	r0, [r3, #76]	; 0x4c
    8f28:	eb0001cf 	bl	966c <get32>
    8f2c:	e3a03001 	mov	r3, #1
    8f30:	e0004413 	and	r4, r0, r3, lsl r4
    8f34:	eb0001ba 	bl	9624 <dev_barrier>
    8f38:	e3540000 	cmp	r4, #0
    8f3c:	0a000002 	beq	8f4c <gpio_event_detected+0x6c>
    8f40:	eb0001b7 	bl	9624 <dev_barrier>
    8f44:	e3a00001 	mov	r0, #1
    8f48:	e8bd8010 	pop	{r4, pc}
    8f4c:	eb0001b4 	bl	9624 <dev_barrier>
    8f50:	e3a00000 	mov	r0, #0
    8f54:	e8bd8010 	pop	{r4, pc}
    8f58:	e3e00000 	mvn	r0, #0
    8f5c:	e8bd8010 	pop	{r4, pc}
    8f60:	0000988c 	andeq	r9, r0, ip, lsl #17

00008f64 <gpio_event_clear>:
    8f64:	e92d4010 	push	{r4, lr}
    8f68:	e1a04000 	mov	r4, r0
    8f6c:	e350001f 	cmp	r0, #31
    8f70:	88bd8010 	pophi	{r4, pc}
    8f74:	eb0001aa 	bl	9624 <dev_barrier>
    8f78:	e354001f 	cmp	r4, #31
    8f7c:	8a000005 	bhi	8f98 <gpio_event_clear+0x34>
    8f80:	e59f3030 	ldr	r3, [pc, #48]	; 8fb8 <gpio_event_clear+0x54>
    8f84:	e5930048 	ldr	r0, [r3, #72]	; 0x48
    8f88:	e3a01001 	mov	r1, #1
    8f8c:	e1a01411 	lsl	r1, r1, r4
    8f90:	eb0001a9 	bl	963c <put32>
    8f94:	ea000005 	b	8fb0 <gpio_event_clear+0x4c>
    8f98:	e204401f 	and	r4, r4, #31
    8f9c:	e59f3014 	ldr	r3, [pc, #20]	; 8fb8 <gpio_event_clear+0x54>
    8fa0:	e593004c 	ldr	r0, [r3, #76]	; 0x4c
    8fa4:	e3a01001 	mov	r1, #1
    8fa8:	e1a01411 	lsl	r1, r1, r4
    8fac:	eb0001a2 	bl	963c <put32>
    8fb0:	eb00019b 	bl	9624 <dev_barrier>
    8fb4:	e8bd8010 	pop	{r4, pc}
    8fb8:	0000988c 	andeq	r9, r0, ip, lsl #17

00008fbc <sw_uart_putc>:
    8fbc:	e92d41f0 	push	{r4, r5, r6, r7, r8, lr}
    8fc0:	e1a07001 	mov	r7, r1
    8fc4:	e5d06000 	ldrb	r6, [r0]
    8fc8:	e5905008 	ldr	r5, [r0, #8]
    8fcc:	ee1f4f3c 	mrc	15, 0, r4, cr15, cr12, {1}
    8fd0:	e1a00006 	mov	r0, r6
    8fd4:	e3a01000 	mov	r1, #0
    8fd8:	ebffff26 	bl	8c78 <gpio_write>
    8fdc:	ee1f3f3c 	mrc	15, 0, r3, cr15, cr12, {1}
    8fe0:	e0643003 	rsb	r3, r4, r3
    8fe4:	e1550003 	cmp	r5, r3
    8fe8:	8afffffb 	bhi	8fdc <sw_uart_putc+0x20>
    8fec:	e1a08085 	lsl	r8, r5, #1
    8ff0:	e1a00006 	mov	r0, r6
    8ff4:	e2071001 	and	r1, r7, #1
    8ff8:	ebffff1e 	bl	8c78 <gpio_write>
    8ffc:	ee1f3f3c 	mrc	15, 0, r3, cr15, cr12, {1}
    9000:	e0643003 	rsb	r3, r4, r3
    9004:	e1580003 	cmp	r8, r3
    9008:	8afffffb 	bhi	8ffc <sw_uart_putc+0x40>
    900c:	e0888005 	add	r8, r8, r5
    9010:	e1a00006 	mov	r0, r6
    9014:	e2071002 	and	r1, r7, #2
    9018:	ebffff16 	bl	8c78 <gpio_write>
    901c:	ee1f3f3c 	mrc	15, 0, r3, cr15, cr12, {1}
    9020:	e0643003 	rsb	r3, r4, r3
    9024:	e1580003 	cmp	r8, r3
    9028:	8afffffb 	bhi	901c <sw_uart_putc+0x60>
    902c:	e0888005 	add	r8, r8, r5
    9030:	e1a00006 	mov	r0, r6
    9034:	e2071004 	and	r1, r7, #4
    9038:	ebffff0e 	bl	8c78 <gpio_write>
    903c:	ee1f3f3c 	mrc	15, 0, r3, cr15, cr12, {1}
    9040:	e0643003 	rsb	r3, r4, r3
    9044:	e1580003 	cmp	r8, r3
    9048:	8afffffb 	bhi	903c <sw_uart_putc+0x80>
    904c:	e0888005 	add	r8, r8, r5
    9050:	e1a00006 	mov	r0, r6
    9054:	e2071008 	and	r1, r7, #8
    9058:	ebffff06 	bl	8c78 <gpio_write>
    905c:	ee1f3f3c 	mrc	15, 0, r3, cr15, cr12, {1}
    9060:	e0643003 	rsb	r3, r4, r3
    9064:	e1580003 	cmp	r8, r3
    9068:	8afffffb 	bhi	905c <sw_uart_putc+0xa0>
    906c:	e0888005 	add	r8, r8, r5
    9070:	e1a00006 	mov	r0, r6
    9074:	e2071010 	and	r1, r7, #16
    9078:	ebfffefe 	bl	8c78 <gpio_write>
    907c:	ee1f3f3c 	mrc	15, 0, r3, cr15, cr12, {1}
    9080:	e0643003 	rsb	r3, r4, r3
    9084:	e1580003 	cmp	r8, r3
    9088:	8afffffb 	bhi	907c <sw_uart_putc+0xc0>
    908c:	e0888005 	add	r8, r8, r5
    9090:	e1a00006 	mov	r0, r6
    9094:	e2071020 	and	r1, r7, #32
    9098:	ebfffef6 	bl	8c78 <gpio_write>
    909c:	ee1f3f3c 	mrc	15, 0, r3, cr15, cr12, {1}
    90a0:	e0643003 	rsb	r3, r4, r3
    90a4:	e1580003 	cmp	r8, r3
    90a8:	8afffffb 	bhi	909c <sw_uart_putc+0xe0>
    90ac:	e0888005 	add	r8, r8, r5
    90b0:	e1a00006 	mov	r0, r6
    90b4:	e2071040 	and	r1, r7, #64	; 0x40
    90b8:	ebfffeee 	bl	8c78 <gpio_write>
    90bc:	ee1f3f3c 	mrc	15, 0, r3, cr15, cr12, {1}
    90c0:	e0643003 	rsb	r3, r4, r3
    90c4:	e1580003 	cmp	r8, r3
    90c8:	8afffffb 	bhi	90bc <sw_uart_putc+0x100>
    90cc:	e0888005 	add	r8, r8, r5
    90d0:	e1a00006 	mov	r0, r6
    90d4:	e2071080 	and	r1, r7, #128	; 0x80
    90d8:	ebfffee6 	bl	8c78 <gpio_write>
    90dc:	ee1f3f3c 	mrc	15, 0, r3, cr15, cr12, {1}
    90e0:	e0643003 	rsb	r3, r4, r3
    90e4:	e1580003 	cmp	r8, r3
    90e8:	8afffffb 	bhi	90dc <sw_uart_putc+0x120>
    90ec:	e0885005 	add	r5, r8, r5
    90f0:	e1a00006 	mov	r0, r6
    90f4:	e3a01001 	mov	r1, #1
    90f8:	ebfffede 	bl	8c78 <gpio_write>
    90fc:	ee1f3f3c 	mrc	15, 0, r3, cr15, cr12, {1}
    9100:	e0643003 	rsb	r3, r4, r3
    9104:	e1550003 	cmp	r5, r3
    9108:	8afffffb 	bhi	90fc <sw_uart_putc+0x140>
    910c:	e8bd81f0 	pop	{r4, r5, r6, r7, r8, pc}

00009110 <sw_uart_getc_timeout>:
    9110:	e92d43f8 	push	{r3, r4, r5, r6, r7, r8, r9, lr}
    9114:	e1a09000 	mov	r9, r0
    9118:	e5d07001 	ldrb	r7, [r0, #1]
    911c:	e1a05007 	mov	r5, r7
    9120:	e1a06001 	mov	r6, r1
    9124:	ebfffe21 	bl	89b0 <timer_get_usec_raw>
    9128:	e1a04000 	mov	r4, r0
    912c:	e1a00005 	mov	r0, r5
    9130:	ebfffebd 	bl	8c2c <gpio_read>
    9134:	e3500000 	cmp	r0, #0
    9138:	0a000005 	beq	9154 <sw_uart_getc_timeout+0x44>
    913c:	ebfffe1b 	bl	89b0 <timer_get_usec_raw>
    9140:	e0640000 	rsb	r0, r4, r0
    9144:	e1560000 	cmp	r6, r0
    9148:	2afffff7 	bcs	912c <sw_uart_getc_timeout+0x1c>
    914c:	e3a03000 	mov	r3, #0
    9150:	ea000000 	b	9158 <sw_uart_getc_timeout+0x48>
    9154:	e3a03001 	mov	r3, #1
    9158:	e3530000 	cmp	r3, #0
    915c:	0a000059 	beq	92c8 <sw_uart_getc_timeout+0x1b8>
    9160:	ee1f8f3c 	mrc	15, 0, r8, cr15, cr12, {1}
    9164:	e5994008 	ldr	r4, [r9, #8]
    9168:	e08420a4 	add	r2, r4, r4, lsr #1
    916c:	ee1f3f3c 	mrc	15, 0, r3, cr15, cr12, {1}
    9170:	e0683003 	rsb	r3, r8, r3
    9174:	e1520003 	cmp	r2, r3
    9178:	8afffffb 	bhi	916c <sw_uart_getc_timeout+0x5c>
    917c:	e0888004 	add	r8, r8, r4
    9180:	e1a00007 	mov	r0, r7
    9184:	ebfffea8 	bl	8c2c <gpio_read>
    9188:	e1a09750 	asr	r9, r0, r7
    918c:	ee1f3f3c 	mrc	15, 0, r3, cr15, cr12, {1}
    9190:	e0683003 	rsb	r3, r8, r3
    9194:	e1540003 	cmp	r4, r3
    9198:	8afffffb 	bhi	918c <sw_uart_getc_timeout+0x7c>
    919c:	e0888004 	add	r8, r8, r4
    91a0:	e1a00007 	mov	r0, r7
    91a4:	ebfffea0 	bl	8c2c <gpio_read>
    91a8:	e1a00750 	asr	r0, r0, r7
    91ac:	e1899080 	orr	r9, r9, r0, lsl #1
    91b0:	ee1f3f3c 	mrc	15, 0, r3, cr15, cr12, {1}
    91b4:	e0683003 	rsb	r3, r8, r3
    91b8:	e1540003 	cmp	r4, r3
    91bc:	8afffffb 	bhi	91b0 <sw_uart_getc_timeout+0xa0>
    91c0:	e0888004 	add	r8, r8, r4
    91c4:	e1a00007 	mov	r0, r7
    91c8:	ebfffe97 	bl	8c2c <gpio_read>
    91cc:	e1a00750 	asr	r0, r0, r7
    91d0:	e1899100 	orr	r9, r9, r0, lsl #2
    91d4:	ee1f3f3c 	mrc	15, 0, r3, cr15, cr12, {1}
    91d8:	e0683003 	rsb	r3, r8, r3
    91dc:	e1540003 	cmp	r4, r3
    91e0:	8afffffb 	bhi	91d4 <sw_uart_getc_timeout+0xc4>
    91e4:	e0888004 	add	r8, r8, r4
    91e8:	e1a00007 	mov	r0, r7
    91ec:	ebfffe8e 	bl	8c2c <gpio_read>
    91f0:	e1a00750 	asr	r0, r0, r7
    91f4:	e1899180 	orr	r9, r9, r0, lsl #3
    91f8:	ee1f3f3c 	mrc	15, 0, r3, cr15, cr12, {1}
    91fc:	e0683003 	rsb	r3, r8, r3
    9200:	e1540003 	cmp	r4, r3
    9204:	8afffffb 	bhi	91f8 <sw_uart_getc_timeout+0xe8>
    9208:	e0888004 	add	r8, r8, r4
    920c:	e1a00007 	mov	r0, r7
    9210:	ebfffe85 	bl	8c2c <gpio_read>
    9214:	e1a00750 	asr	r0, r0, r7
    9218:	e1899200 	orr	r9, r9, r0, lsl #4
    921c:	ee1f3f3c 	mrc	15, 0, r3, cr15, cr12, {1}
    9220:	e0683003 	rsb	r3, r8, r3
    9224:	e1540003 	cmp	r4, r3
    9228:	8afffffb 	bhi	921c <sw_uart_getc_timeout+0x10c>
    922c:	e0888004 	add	r8, r8, r4
    9230:	e1a00007 	mov	r0, r7
    9234:	ebfffe7c 	bl	8c2c <gpio_read>
    9238:	e1a00750 	asr	r0, r0, r7
    923c:	e1899280 	orr	r9, r9, r0, lsl #5
    9240:	ee1f3f3c 	mrc	15, 0, r3, cr15, cr12, {1}
    9244:	e0683003 	rsb	r3, r8, r3
    9248:	e1540003 	cmp	r4, r3
    924c:	8afffffb 	bhi	9240 <sw_uart_getc_timeout+0x130>
    9250:	e0888004 	add	r8, r8, r4
    9254:	e1a00007 	mov	r0, r7
    9258:	ebfffe73 	bl	8c2c <gpio_read>
    925c:	e1a00750 	asr	r0, r0, r7
    9260:	e1899300 	orr	r9, r9, r0, lsl #6
    9264:	ee1f3f3c 	mrc	15, 0, r3, cr15, cr12, {1}
    9268:	e0683003 	rsb	r3, r8, r3
    926c:	e1540003 	cmp	r4, r3
    9270:	8afffffb 	bhi	9264 <sw_uart_getc_timeout+0x154>
    9274:	e1a00007 	mov	r0, r7
    9278:	ebfffe6b 	bl	8c2c <gpio_read>
    927c:	e1a00750 	asr	r0, r0, r7
    9280:	e1899380 	orr	r9, r9, r0, lsl #7
    9284:	ebfffdc9 	bl	89b0 <timer_get_usec_raw>
    9288:	e1a04000 	mov	r4, r0
    928c:	e1a00005 	mov	r0, r5
    9290:	ebfffe65 	bl	8c2c <gpio_read>
    9294:	e3500000 	cmp	r0, #0
    9298:	0a000005 	beq	92b4 <sw_uart_getc_timeout+0x1a4>
    929c:	ebfffdc3 	bl	89b0 <timer_get_usec_raw>
    92a0:	e0640000 	rsb	r0, r4, r0
    92a4:	e1560000 	cmp	r6, r0
    92a8:	2afffff7 	bcs	928c <sw_uart_getc_timeout+0x17c>
    92ac:	e3a03000 	mov	r3, #0
    92b0:	ea000000 	b	92b8 <sw_uart_getc_timeout+0x1a8>
    92b4:	e3a03001 	mov	r3, #1
    92b8:	e3530000 	cmp	r3, #0
    92bc:	0a000003 	beq	92d0 <sw_uart_getc_timeout+0x1c0>
    92c0:	e1a00009 	mov	r0, r9
    92c4:	e8bd83f8 	pop	{r3, r4, r5, r6, r7, r8, r9, pc}
    92c8:	e3e00000 	mvn	r0, #0
    92cc:	e8bd83f8 	pop	{r3, r4, r5, r6, r7, r8, r9, pc}
    92d0:	e3e00000 	mvn	r0, #0
    92d4:	e8bd83f8 	pop	{r3, r4, r5, r6, r7, r8, r9, pc}

000092d8 <sw_uart_gets_until>:
    92d8:	e92d47f0 	push	{r4, r5, r6, r7, r8, r9, sl, lr}
    92dc:	e24dd008 	sub	sp, sp, #8
    92e0:	e1a08000 	mov	r8, r0
    92e4:	e1a06001 	mov	r6, r1
    92e8:	e1a09003 	mov	r9, r3
    92ec:	e59da028 	ldr	sl, [sp, #40]	; 0x28
    92f0:	e3520000 	cmp	r2, #0
    92f4:	1a000008 	bne	931c <sw_uart_gets_until+0x44>
    92f8:	eb0000e7 	bl	969c <rpi_reset_putc>
    92fc:	e59f3068 	ldr	r3, [pc, #104]	; 936c <sw_uart_gets_until+0x94>
    9300:	e58d3000 	str	r3, [sp]
    9304:	e59f0064 	ldr	r0, [pc, #100]	; 9370 <sw_uart_gets_until+0x98>
    9308:	e59f1064 	ldr	r1, [pc, #100]	; 9374 <sw_uart_gets_until+0x9c>
    930c:	e59f2064 	ldr	r2, [pc, #100]	; 9378 <sw_uart_gets_until+0xa0>
    9310:	e3a0306d 	mov	r3, #109	; 0x6d
    9314:	ebfffbd7 	bl	8278 <printk>
    9318:	ebfffd4a 	bl	8848 <clean_reboot>
    931c:	e3a04000 	mov	r4, #0
    9320:	e5c14000 	strb	r4, [r1]
    9324:	e2427001 	sub	r7, r2, #1
    9328:	ea000007 	b	934c <sw_uart_gets_until+0x74>
    932c:	e1a00008 	mov	r0, r8
    9330:	e1a0100a 	mov	r1, sl
    9334:	ebffff75 	bl	9110 <sw_uart_getc_timeout>
    9338:	e6ef0070 	uxtb	r0, r0
    933c:	e1500009 	cmp	r0, r9
    9340:	0a000004 	beq	9358 <sw_uart_gets_until+0x80>
    9344:	e7c60005 	strb	r0, [r6, r5]
    9348:	e2844001 	add	r4, r4, #1
    934c:	e1a05004 	mov	r5, r4
    9350:	e1540007 	cmp	r4, r7
    9354:	3afffff4 	bcc	932c <sw_uart_gets_until+0x54>
    9358:	e3a03000 	mov	r3, #0
    935c:	e7c63005 	strb	r3, [r6, r5]
    9360:	e1a00004 	mov	r0, r4
    9364:	e28dd008 	add	sp, sp, #8
    9368:	e8bd87f0 	pop	{r4, r5, r6, r7, r8, r9, sl, pc}
    936c:	00009af4 	strdeq	r9, [r0], -r4
    9370:	00009968 	andeq	r9, r0, r8, ror #18
    9374:	00009ae0 	andeq	r9, r0, r0, ror #21
    9378:	00009a68 	andeq	r9, r0, r8, ror #20

0000937c <sw_uart_gets_timeout>:
    937c:	e92d41f0 	push	{r4, r5, r6, r7, r8, lr}
    9380:	e24dd008 	sub	sp, sp, #8
    9384:	e1a07000 	mov	r7, r0
    9388:	e1a05001 	mov	r5, r1
    938c:	e1a08003 	mov	r8, r3
    9390:	e3520000 	cmp	r2, #0
    9394:	1a000008 	bne	93bc <sw_uart_gets_timeout+0x40>
    9398:	eb0000bf 	bl	969c <rpi_reset_putc>
    939c:	e59f3058 	ldr	r3, [pc, #88]	; 93fc <sw_uart_gets_timeout+0x80>
    93a0:	e58d3000 	str	r3, [sp]
    93a4:	e59f0054 	ldr	r0, [pc, #84]	; 9400 <sw_uart_gets_timeout+0x84>
    93a8:	e59f1054 	ldr	r1, [pc, #84]	; 9404 <sw_uart_gets_timeout+0x88>
    93ac:	e59f2054 	ldr	r2, [pc, #84]	; 9408 <sw_uart_gets_timeout+0x8c>
    93b0:	e3a03083 	mov	r3, #131	; 0x83
    93b4:	ebfffbaf 	bl	8278 <printk>
    93b8:	ebfffd22 	bl	8848 <clean_reboot>
    93bc:	e3a04000 	mov	r4, #0
    93c0:	e5c14000 	strb	r4, [r1]
    93c4:	e2426001 	sub	r6, r2, #1
    93c8:	ea000004 	b	93e0 <sw_uart_gets_timeout+0x64>
    93cc:	e1a00007 	mov	r0, r7
    93d0:	e1a01008 	mov	r1, r8
    93d4:	ebffff4d 	bl	9110 <sw_uart_getc_timeout>
    93d8:	e7c50004 	strb	r0, [r5, r4]
    93dc:	e2844001 	add	r4, r4, #1
    93e0:	e1540006 	cmp	r4, r6
    93e4:	3afffff8 	bcc	93cc <sw_uart_gets_timeout+0x50>
    93e8:	e3a03000 	mov	r3, #0
    93ec:	e7c53004 	strb	r3, [r5, r4]
    93f0:	e1a00004 	mov	r0, r4
    93f4:	e28dd008 	add	sp, sp, #8
    93f8:	e8bd81f0 	pop	{r4, r5, r6, r7, r8, pc}
    93fc:	00009af4 	strdeq	r9, [r0], -r4
    9400:	00009968 	andeq	r9, r0, r8, ror #18
    9404:	00009ae0 	andeq	r9, r0, r0, ror #21
    9408:	00009a7c 	andeq	r9, r0, ip, ror sl

0000940c <sw_uart_init_helper>:
    940c:	e92d41f0 	push	{r4, r5, r6, r7, r8, lr}
    9410:	e24dd008 	sub	sp, sp, #8
    9414:	e1a04000 	mov	r4, r0
    9418:	e1a06001 	mov	r6, r1
    941c:	e1a08002 	mov	r8, r2
    9420:	e1a05003 	mov	r5, r3
    9424:	e59d7020 	ldr	r7, [sp, #32]
    9428:	e1a00001 	mov	r0, r1
    942c:	ebfffd7a 	bl	8a1c <gpio_set_output>
    9430:	e1a00008 	mov	r0, r8
    9434:	ebfffdc9 	bl	8b60 <gpio_set_input>
    9438:	e3a03001 	mov	r3, #1
    943c:	ee0f3f1c 	mcr	15, 0, r3, cr15, cr12, {0}
    9440:	e1a00006 	mov	r0, r6
    9444:	e3a01001 	mov	r1, #1
    9448:	ebfffe0a 	bl	8c78 <gpio_write>
    944c:	e0020795 	mul	r2, r5, r7
    9450:	e59f3074 	ldr	r3, [pc, #116]	; 94cc <sw_uart_init_helper+0xc0>
    9454:	e0653003 	rsb	r3, r5, r3
    9458:	e1530002 	cmp	r3, r2
    945c:	8a000005 	bhi	9478 <sw_uart_init_helper+0x6c>
    9460:	e59f3064 	ldr	r3, [pc, #100]	; 94cc <sw_uart_init_helper+0xc0>
    9464:	e0853003 	add	r3, r5, r3
    9468:	e1530002 	cmp	r3, r2
    946c:	2a000003 	bcs	9480 <sw_uart_init_helper+0x74>
    9470:	e3a03000 	mov	r3, #0
    9474:	ea000002 	b	9484 <sw_uart_init_helper+0x78>
    9478:	e3a03000 	mov	r3, #0
    947c:	ea000000 	b	9484 <sw_uart_init_helper+0x78>
    9480:	e3a03001 	mov	r3, #1
    9484:	e3530000 	cmp	r3, #0
    9488:	1a000008 	bne	94b0 <sw_uart_init_helper+0xa4>
    948c:	eb000082 	bl	969c <rpi_reset_putc>
    9490:	e59f3038 	ldr	r3, [pc, #56]	; 94d0 <sw_uart_init_helper+0xc4>
    9494:	e58d3000 	str	r3, [sp]
    9498:	e59f0034 	ldr	r0, [pc, #52]	; 94d4 <sw_uart_init_helper+0xc8>
    949c:	e59f1034 	ldr	r1, [pc, #52]	; 94d8 <sw_uart_init_helper+0xcc>
    94a0:	e59f2034 	ldr	r2, [pc, #52]	; 94dc <sw_uart_init_helper+0xd0>
    94a4:	e3a0309d 	mov	r3, #157	; 0x9d
    94a8:	ebfffb72 	bl	8278 <printk>
    94ac:	ebfffce5 	bl	8848 <clean_reboot>
    94b0:	e5c46000 	strb	r6, [r4]
    94b4:	e5c48001 	strb	r8, [r4, #1]
    94b8:	e5845004 	str	r5, [r4, #4]
    94bc:	e5847008 	str	r7, [r4, #8]
    94c0:	e1a00004 	mov	r0, r4
    94c4:	e28dd008 	add	sp, sp, #8
    94c8:	e8bd81f0 	pop	{r4, r5, r6, r7, r8, pc}
    94cc:	29b92700 	ldmibcs	r9!, {r8, r9, sl, sp}
    94d0:	00009b00 	andeq	r9, r0, r0, lsl #22
    94d4:	00009968 	andeq	r9, r0, r8, ror #18
    94d8:	00009ae0 	andeq	r9, r0, r0, ror #21
    94dc:	00009a94 	muleq	r0, r4, sl

000094e0 <sw_uart_getc>:
    94e0:	e92d4008 	push	{r3, lr}
    94e4:	e3e01000 	mvn	r1, #0
    94e8:	ebffff08 	bl	9110 <sw_uart_getc_timeout>
    94ec:	e3500000 	cmp	r0, #0
    94f0:	a8bd8008 	popge	{r3, pc}
    94f4:	eb000068 	bl	969c <rpi_reset_putc>
    94f8:	e59f0010 	ldr	r0, [pc, #16]	; 9510 <sw_uart_getc+0x30>
    94fc:	e59f1010 	ldr	r1, [pc, #16]	; 9514 <sw_uart_getc+0x34>
    9500:	e59f2010 	ldr	r2, [pc, #16]	; 9518 <sw_uart_getc+0x38>
    9504:	e3a030ac 	mov	r3, #172	; 0xac
    9508:	ebfffb5a 	bl	8278 <printk>
    950c:	ebfffccd 	bl	8848 <clean_reboot>
    9510:	00009b34 	andeq	r9, r0, r4, lsr fp
    9514:	00009ae0 	andeq	r9, r0, r0, ror #21
    9518:	00009aa8 	andeq	r9, r0, r8, lsr #21

0000951c <sw_uart_putk>:
    951c:	e92d4038 	push	{r3, r4, r5, lr}
    9520:	e1a05000 	mov	r5, r0
    9524:	e1a04001 	mov	r4, r1
    9528:	ea000002 	b	9538 <sw_uart_putk+0x1c>
    952c:	e1a00005 	mov	r0, r5
    9530:	ebfffea1 	bl	8fbc <sw_uart_putc>
    9534:	e2844001 	add	r4, r4, #1
    9538:	e5d41000 	ldrb	r1, [r4]
    953c:	e3510000 	cmp	r1, #0
    9540:	1afffff9 	bne	952c <sw_uart_putk+0x10>
    9544:	e8bd8038 	pop	{r3, r4, r5, pc}

00009548 <sw_uart_printk>:
    9548:	e92d000e 	push	{r1, r2, r3}
    954c:	e92d4030 	push	{r4, r5, lr}
    9550:	e24ddf76 	sub	sp, sp, #472	; 0x1d8
    9554:	e1a05000 	mov	r5, r0
    9558:	e28d3f7a 	add	r3, sp, #488	; 0x1e8
    955c:	e58d3008 	str	r3, [sp, #8]
    9560:	e28d000c 	add	r0, sp, #12
    9564:	e3a01f73 	mov	r1, #460	; 0x1cc
    9568:	e59d21e4 	ldr	r2, [sp, #484]	; 0x1e4
    956c:	ebfffc08 	bl	8594 <va_printk>
    9570:	e1a04000 	mov	r4, r0
    9574:	e59f3048 	ldr	r3, [pc, #72]	; 95c4 <sw_uart_printk+0x7c>
    9578:	e1500003 	cmp	r0, r3
    957c:	9a000008 	bls	95a4 <sw_uart_printk+0x5c>
    9580:	eb000045 	bl	969c <rpi_reset_putc>
    9584:	e59f303c 	ldr	r3, [pc, #60]	; 95c8 <sw_uart_printk+0x80>
    9588:	e58d3000 	str	r3, [sp]
    958c:	e59f0038 	ldr	r0, [pc, #56]	; 95cc <sw_uart_printk+0x84>
    9590:	e59f1038 	ldr	r1, [pc, #56]	; 95d0 <sw_uart_printk+0x88>
    9594:	e59f2038 	ldr	r2, [pc, #56]	; 95d4 <sw_uart_printk+0x8c>
    9598:	e3a030c0 	mov	r3, #192	; 0xc0
    959c:	ebfffb35 	bl	8278 <printk>
    95a0:	ebfffca8 	bl	8848 <clean_reboot>
    95a4:	e1a00005 	mov	r0, r5
    95a8:	e28d100c 	add	r1, sp, #12
    95ac:	ebffffda 	bl	951c <sw_uart_putk>
    95b0:	e1a00004 	mov	r0, r4
    95b4:	e28ddf76 	add	sp, sp, #472	; 0x1d8
    95b8:	e8bd4030 	pop	{r4, r5, lr}
    95bc:	e28dd00c 	add	sp, sp, #12
    95c0:	e12fff1e 	bx	lr
    95c4:	000001ca 	andeq	r0, r0, sl, asr #3
    95c8:	00009b6c 	andeq	r9, r0, ip, ror #22
    95cc:	00009968 	andeq	r9, r0, r8, ror #18
    95d0:	00009ae0 	andeq	r9, r0, r0, ror #21
    95d4:	00009ab8 			; <UNDEFINED> instruction: 0x00009ab8

000095d8 <sw_uart_gets_until_blk>:
    95d8:	e52de004 	push	{lr}		; (str lr, [sp, #-4]!)
    95dc:	e24dd00c 	sub	sp, sp, #12
    95e0:	e3e0c000 	mvn	ip, #0
    95e4:	e58dc000 	str	ip, [sp]
    95e8:	ebffff3a 	bl	92d8 <sw_uart_gets_until>
    95ec:	e3500000 	cmp	r0, #0
    95f0:	aa000006 	bge	9610 <sw_uart_gets_until_blk+0x38>
    95f4:	eb000028 	bl	969c <rpi_reset_putc>
    95f8:	e59f0018 	ldr	r0, [pc, #24]	; 9618 <sw_uart_gets_until_blk+0x40>
    95fc:	e59f1018 	ldr	r1, [pc, #24]	; 961c <sw_uart_gets_until_blk+0x44>
    9600:	e59f2018 	ldr	r2, [pc, #24]	; 9620 <sw_uart_gets_until_blk+0x48>
    9604:	e3a030c8 	mov	r3, #200	; 0xc8
    9608:	ebfffb1a 	bl	8278 <printk>
    960c:	ebfffc8d 	bl	8848 <clean_reboot>
    9610:	e28dd00c 	add	sp, sp, #12
    9614:	e49df004 	pop	{pc}		; (ldr pc, [sp], #4)
    9618:	00009b34 	andeq	r9, r0, r4, lsr fp
    961c:	00009ae0 	andeq	r9, r0, r0, ror #21
    9620:	00009ac8 	andeq	r9, r0, r8, asr #21

00009624 <dev_barrier>:
    9624:	ea000002 	b	9634 <dsb>

00009628 <dmb>:
    9628:	e3a00000 	mov	r0, #0
    962c:	ee070fba 	mcr	15, 0, r0, cr7, cr10, {5}
    9630:	e12fff1e 	bx	lr

00009634 <dsb>:
    9634:	ee070f9a 	mcr	15, 0, r0, cr7, cr10, {4}
    9638:	e12fff1e 	bx	lr

0000963c <put32>:
    963c:	e5801000 	str	r1, [r0]
    9640:	e12fff1e 	bx	lr

00009644 <PUT32>:
    9644:	e5801000 	str	r1, [r0]
    9648:	e12fff1e 	bx	lr

0000964c <put16>:
    964c:	e1c010b0 	strh	r1, [r0]
    9650:	e12fff1e 	bx	lr

00009654 <PUT16>:
    9654:	e1c010b0 	strh	r1, [r0]
    9658:	e12fff1e 	bx	lr

0000965c <put8>:
    965c:	e5c01000 	strb	r1, [r0]
    9660:	e12fff1e 	bx	lr

00009664 <PUT8>:
    9664:	e5c01000 	strb	r1, [r0]
    9668:	e12fff1e 	bx	lr

0000966c <get32>:
    966c:	e5900000 	ldr	r0, [r0]
    9670:	e12fff1e 	bx	lr

00009674 <GET32>:
    9674:	e5900000 	ldr	r0, [r0]
    9678:	e12fff1e 	bx	lr

0000967c <GETPC>:
    967c:	e1a0000e 	mov	r0, lr
    9680:	e12fff1e 	bx	lr

00009684 <dummy>:
    9684:	e12fff1e 	bx	lr

00009688 <internal_putchar>:
    9688:	e92d4010 	push	{r4, lr}
    968c:	e1a04000 	mov	r4, r0
    9690:	eb00005e 	bl	9810 <uart_putc>
    9694:	e1a00004 	mov	r0, r4
    9698:	e8bd8010 	pop	{r4, pc}

0000969c <rpi_reset_putc>:
    969c:	e59f2008 	ldr	r2, [pc, #8]	; 96ac <rpi_reset_putc+0x10>
    96a0:	e59f3008 	ldr	r3, [pc, #8]	; 96b0 <rpi_reset_putc+0x14>
    96a4:	e5832000 	str	r2, [r3]
    96a8:	e12fff1e 	bx	lr
    96ac:	00009688 	andeq	r9, r0, r8, lsl #13
    96b0:	000098ec 	andeq	r9, r0, ip, ror #17

000096b4 <rpi_set_putc>:
    96b4:	e59f3004 	ldr	r3, [pc, #4]	; 96c0 <rpi_set_putc+0xc>
    96b8:	e5830000 	str	r0, [r3]
    96bc:	e12fff1e 	bx	lr
    96c0:	000098ec 	andeq	r9, r0, ip, ror #17

000096c4 <cb_new>:
    96c4:	e92d4008 	push	{r3, lr}
    96c8:	e3a00409 	mov	r0, #150994944	; 0x9000000
    96cc:	e3a01000 	mov	r1, #0
    96d0:	e3a02004 	mov	r2, #4
    96d4:	eb000063 	bl	9868 <memset>
    96d8:	e3a00409 	mov	r0, #150994944	; 0x9000000
    96dc:	e59f3004 	ldr	r3, [pc, #4]	; 96e8 <cb_new+0x24>
    96e0:	e5803000 	str	r3, [r0]
    96e4:	e8bd8008 	pop	{r3, pc}
    96e8:	12345678 	eorsne	r5, r4, #120, 12	; 0x7800000

000096ec <cb_get_block>:
    96ec:	e3a03409 	mov	r3, #150994944	; 0x9000000
    96f0:	e5932000 	ldr	r2, [r3]
    96f4:	e59f3014 	ldr	r3, [pc, #20]	; 9710 <cb_get_block+0x24>
    96f8:	e1520003 	cmp	r2, r3
    96fc:	0a000001 	beq	9708 <cb_get_block+0x1c>
    9700:	e3a00000 	mov	r0, #0
    9704:	e12fff1e 	bx	lr
    9708:	e3a00409 	mov	r0, #150994944	; 0x9000000
    970c:	e12fff1e 	bx	lr
    9710:	12345678 	eorsne	r5, r4, #120, 12	; 0x7800000

00009714 <uart_init>:
    9714:	e92d4038 	push	{r3, r4, r5, lr}
    9718:	ebffffc1 	bl	9624 <dev_barrier>
    971c:	e3a0000e 	mov	r0, #14
    9720:	e3a01002 	mov	r1, #2
    9724:	ebfffd5c 	bl	8c9c <gpio_set_function>
    9728:	e3a0000f 	mov	r0, #15
    972c:	e3a01002 	mov	r1, #2
    9730:	ebfffd59 	bl	8c9c <gpio_set_function>
    9734:	ebffffba 	bl	9624 <dev_barrier>
    9738:	e59f4068 	ldr	r4, [pc, #104]	; 97a8 <uart_init+0x94>
    973c:	e5945000 	ldr	r5, [r4]
    9740:	e1a00005 	mov	r0, r5
    9744:	ebffffc8 	bl	966c <get32>
    9748:	e3801001 	orr	r1, r0, #1
    974c:	e1a00005 	mov	r0, r5
    9750:	ebffffb9 	bl	963c <put32>
    9754:	ebffffb2 	bl	9624 <dev_barrier>
    9758:	e5940004 	ldr	r0, [r4, #4]
    975c:	e3a01000 	mov	r1, #0
    9760:	ebffffb5 	bl	963c <put32>
    9764:	e5940008 	ldr	r0, [r4, #8]
    9768:	e3a01000 	mov	r1, #0
    976c:	ebffffb2 	bl	963c <put32>
    9770:	e594000c 	ldr	r0, [r4, #12]
    9774:	e3a01006 	mov	r1, #6
    9778:	ebffffaf 	bl	963c <put32>
    977c:	e5940010 	ldr	r0, [r4, #16]
    9780:	e3a01003 	mov	r1, #3
    9784:	ebffffac 	bl	963c <put32>
    9788:	e5940014 	ldr	r0, [r4, #20]
    978c:	e59f1018 	ldr	r1, [pc, #24]	; 97ac <uart_init+0x98>
    9790:	ebffffa9 	bl	963c <put32>
    9794:	e5940004 	ldr	r0, [r4, #4]
    9798:	e3a01003 	mov	r1, #3
    979c:	ebffffa6 	bl	963c <put32>
    97a0:	ebffff9f 	bl	9624 <dev_barrier>
    97a4:	e8bd8038 	pop	{r3, r4, r5, pc}
    97a8:	000098f0 	strdeq	r9, [r0], -r0
    97ac:	0000010e 	andeq	r0, r0, lr, lsl #2

000097b0 <uart_can_getc>:
    97b0:	e92d4008 	push	{r3, lr}
    97b4:	e59f300c 	ldr	r3, [pc, #12]	; 97c8 <uart_can_getc+0x18>
    97b8:	e5930018 	ldr	r0, [r3, #24]
    97bc:	ebffffaa 	bl	966c <get32>
    97c0:	e2000001 	and	r0, r0, #1
    97c4:	e8bd8008 	pop	{r3, pc}
    97c8:	000098f0 	strdeq	r9, [r0], -r0

000097cc <uart_getc>:
    97cc:	e92d4008 	push	{r3, lr}
    97d0:	ebfffff6 	bl	97b0 <uart_can_getc>
    97d4:	e3500000 	cmp	r0, #0
    97d8:	0afffffc 	beq	97d0 <uart_getc+0x4>
    97dc:	e59f300c 	ldr	r3, [pc, #12]	; 97f0 <uart_getc+0x24>
    97e0:	e593001c 	ldr	r0, [r3, #28]
    97e4:	ebffffa0 	bl	966c <get32>
    97e8:	e6ef0070 	uxtb	r0, r0
    97ec:	e8bd8008 	pop	{r3, pc}
    97f0:	000098f0 	strdeq	r9, [r0], -r0

000097f4 <uart_can_putc>:
    97f4:	e92d4008 	push	{r3, lr}
    97f8:	e59f300c 	ldr	r3, [pc, #12]	; 980c <uart_can_putc+0x18>
    97fc:	e5930018 	ldr	r0, [r3, #24]
    9800:	ebffff99 	bl	966c <get32>
    9804:	e2000020 	and	r0, r0, #32
    9808:	e8bd8008 	pop	{r3, pc}
    980c:	000098f0 	strdeq	r9, [r0], -r0

00009810 <uart_putc>:
    9810:	e92d4010 	push	{r4, lr}
    9814:	e1a04000 	mov	r4, r0
    9818:	ebfffff5 	bl	97f4 <uart_can_putc>
    981c:	e3500000 	cmp	r0, #0
    9820:	0afffffc 	beq	9818 <uart_putc+0x8>
    9824:	e59f300c 	ldr	r3, [pc, #12]	; 9838 <uart_putc+0x28>
    9828:	e593001c 	ldr	r0, [r3, #28]
    982c:	e1a01004 	mov	r1, r4
    9830:	ebffff81 	bl	963c <put32>
    9834:	e8bd8010 	pop	{r4, pc}
    9838:	000098f0 	strdeq	r9, [r0], -r0

0000983c <uart_has_data>:
    983c:	e92d4008 	push	{r3, lr}
    9840:	ebffffda 	bl	97b0 <uart_can_getc>
    9844:	e8bd8008 	pop	{r3, pc}

00009848 <uart_getc_async>:
    9848:	e92d4008 	push	{r3, lr}
    984c:	ebfffffa 	bl	983c <uart_has_data>
    9850:	e3500000 	cmp	r0, #0
    9854:	0a000001 	beq	9860 <uart_getc_async+0x18>
    9858:	ebffffdb 	bl	97cc <uart_getc>
    985c:	e8bd8008 	pop	{r3, pc}
    9860:	e3e00000 	mvn	r0, #0
    9864:	e8bd8008 	pop	{r3, pc}

00009868 <memset>:
    9868:	e0802002 	add	r2, r0, r2
    986c:	e1a03000 	mov	r3, r0
    9870:	ea000001 	b	987c <memset+0x14>
    9874:	e5c31000 	strb	r1, [r3]
    9878:	e2833001 	add	r3, r3, #1
    987c:	e1530002 	cmp	r3, r2
    9880:	3afffffb 	bcc	9874 <memset+0xc>
    9884:	e12fff1e 	bx	lr

Disassembly of section .data:

00009888 <putk>:
    9888:	000082d0 	ldrdeq	r8, [r0], -r0

0000988c <GPFSEL0>:
    988c:	20200000 	eorcs	r0, r0, r0

00009890 <GPFSEL1>:
    9890:	20200004 	eorcs	r0, r0, r4

00009894 <GPFSEL2>:
    9894:	20200008 	eorcs	r0, r0, r8

00009898 <GPFSEL3>:
    9898:	2020000c 	eorcs	r0, r0, ip

0000989c <GPFSEL4>:
    989c:	20200010 	eorcs	r0, r0, r0, lsl r0

000098a0 <GPFSEL5>:
    98a0:	20200014 	eorcs	r0, r0, r4, lsl r0

000098a4 <GPSET0>:
    98a4:	2020001c 	eorcs	r0, r0, ip, lsl r0

000098a8 <GPSET1>:
    98a8:	20200020 	eorcs	r0, r0, r0, lsr #32

000098ac <GPCLR0>:
    98ac:	20200028 	eorcs	r0, r0, r8, lsr #32

000098b0 <GPCLR1>:
    98b0:	2020002c 	eorcs	r0, r0, ip, lsr #32

000098b4 <GPLEV0>:
    98b4:	20200034 	eorcs	r0, r0, r4, lsr r0

000098b8 <GPLEV1>:
    98b8:	20200038 	eorcs	r0, r0, r8, lsr r0

000098bc <IRQ_PENDING_2>:
    98bc:	2000b208 	andcs	fp, r0, r8, lsl #4

000098c0 <GPREN0>:
    98c0:	2020004c 	eorcs	r0, r0, ip, asr #32

000098c4 <GPREN1>:
    98c4:	20200050 	eorcs	r0, r0, r0, asr r0

000098c8 <ENABLE_IRQS_2>:
    98c8:	2000b214 	andcs	fp, r0, r4, lsl r2

000098cc <GPFEN0>:
    98cc:	20200058 	eorcs	r0, r0, r8, asr r0

000098d0 <GPFEN1>:
    98d0:	2020005c 	eorcs	r0, r0, ip, asr r0

000098d4 <GPEDS0>:
    98d4:	20200040 	eorcs	r0, r0, r0, asr #32

000098d8 <GPEDS1>:
    98d8:	20200044 	eorcs	r0, r0, r4, asr #32

000098dc <IRQ_PENDING_1>:
    98dc:	2000b204 	andcs	fp, r0, r4, lsl #4

000098e0 <gpio_clr0>:
    98e0:	20200028 	eorcs	r0, r0, r8, lsr #32

000098e4 <gpio_set0>:
    98e4:	2020001c 	eorcs	r0, r0, ip, lsl r0

000098e8 <gpio_fsel0>:
    98e8:	20200000 	eorcs	r0, r0, r0

000098ec <rpi_putchar>:
    98ec:	00009688 	andeq	r9, r0, r8, lsl #13

000098f0 <AUX_ENABLES>:
    98f0:	20215004 	eorcs	r5, r1, r4

000098f4 <AUX_MU_CNTL_REG>:
    98f4:	20215060 	eorcs	r5, r1, r0, rrx

000098f8 <AUX_MU_IER_REG>:
    98f8:	20215044 	eorcs	r5, r1, r4, asr #32

000098fc <AUX_MU_IIR_REG>:
    98fc:	20215048 	eorcs	r5, r1, r8, asr #32

00009900 <AUX_MU_LCR_REG>:
    9900:	2021504c 	eorcs	r5, r1, ip, asr #32

00009904 <AUX_MU_BAUD_REG>:
    9904:	20215068 	eorcs	r5, r1, r8, rrx

00009908 <AUX_MU_LSR_REG>:
    9908:	20215054 	eorcs	r5, r1, r4, asr r0

0000990c <AUX_MU_IO_REG>:
    990c:	20215040 	eorcs	r5, r1, r0, asr #32

00009910 <AUX_MU_STAT_REG>:
    9910:	20215064 	eorcs	r5, r1, r4, rrx

00009914 <AUX_MU_SCRATCH>:
    9914:	2021505c 	eorcs	r5, r1, ip, asr r0

00009918 <AUX_MU_MSR_REG>:
    9918:	20215058 	eorcs	r5, r1, r8, asr r0

0000991c <AUX_MU_MCR_REG>:
    991c:	20215050 	eorcs	r5, r1, r0, asr r0

00009920 <AUX_IRQ>:
    9920:	20215000 	eorcs	r5, r1, r0

Disassembly of section .rodata:

00009924 <__FUNCTION__.4265-0x20>:
    9924:	65707865 	ldrbvs	r7, [r0, #-2149]!	; 0x865
    9928:	64657463 	strbtvs	r7, [r5], #-1123	; 0x463
    992c:	20642520 	rsbcs	r2, r4, r0, lsr #10
    9930:	6c637963 	stclvs	9, cr7, [r3], #-396	; 0xfffffe74
    9934:	202c7365 	eorcs	r7, ip, r5, ror #6
    9938:	65766168 	ldrbvs	r6, [r6, #-360]!	; 0x168
    993c:	0a642520 	beq	1912dc4 <__bss_end__+0x1908e34>
    9940:	00000000 	andeq	r0, r0, r0

00009944 <__FUNCTION__.4265>:
    9944:	74696d65 	strbtvc	r6, [r9], #-3429	; 0xd65
    9948:	00000000 	andeq	r0, r0, r0

0000994c <__FUNCTION__.4213>:
    994c:	5f697072 	svcpl	0x00697072
    9950:	5f746573 	svcpl	0x00746573
    9954:	7074756f 	rsbsvc	r7, r4, pc, ror #10
    9958:	00007475 	andeq	r7, r0, r5, ror r4

0000995c <__FUNCTION__.4287>:
    995c:	705f6176 	subsvc	r6, pc, r6, ror r1	; <UNPREDICTABLE>
    9960:	746e6972 	strbtvc	r6, [lr], #-2418	; 0x972
    9964:	0000006b 	andeq	r0, r0, fp, rrx
    9968:	494e4150 	stmdbmi	lr, {r4, r6, r8, lr}^
    996c:	73253a43 	teqvc	r5, #274432	; 0x43000
    9970:	3a73253a 	bcc	1cd2e60 <__bss_end__+0x1cc8ed0>
    9974:	253a6425 	ldrcs	r6, [sl, #-1061]!	; 0x425
    9978:	00000a73 	andeq	r0, r0, r3, ror sl
    997c:	6362696c 	cmnvs	r2, #108, 18	; 0x1b0000
    9980:	2d61762f 	stclcs	6, cr7, [r1, #-188]!	; 0xffffff44
    9984:	6e697270 	mcrvs	2, 3, r7, cr9, cr0, {3}
    9988:	632e6b74 	teqvs	lr, #116, 22	; 0x1d000
    998c:	00000000 	andeq	r0, r0, r0
    9990:	00000030 	andeq	r0, r0, r0, lsr r0
    9994:	33323130 	teqcc	r2, #48, 2
    9998:	37363534 			; <UNDEFINED> instruction: 0x37363534
    999c:	00003938 	andeq	r3, r0, r8, lsr r9
    99a0:	33323130 	teqcc	r2, #48, 2
    99a4:	37363534 			; <UNDEFINED> instruction: 0x37363534
    99a8:	62613938 	rsbvs	r3, r1, #56, 18	; 0xe0000
    99ac:	66656463 	strbtvs	r6, [r5], -r3, ror #8
    99b0:	00000000 	andeq	r0, r0, r0
    99b4:	00003130 	andeq	r3, r0, r0, lsr r1
    99b8:	63747570 	cmnvs	r4, #112, 10	; 0x1c000000
    99bc:	0070665f 	rsbseq	r6, r0, pc, asr r6
    99c0:	74646977 	strbtvc	r6, [r4], #-2423	; 0x977
    99c4:	203c2068 	eorscs	r2, ip, r8, rrx
    99c8:	00003233 	andeq	r3, r0, r3, lsr r2
    99cc:	494e4150 	stmdbmi	lr, {r4, r6, r8, lr}^
    99d0:	73253a43 	teqvc	r5, #274432	; 0x43000
    99d4:	3a73253a 	bcc	1cd2ec4 <__bss_end__+0x1cc8f34>
    99d8:	663a6425 	ldrtvs	r6, [sl], -r5, lsr #8
    99dc:	74616f6c 	strbtvc	r6, [r1], #-3948	; 0xf6c
    99e0:	746f6e20 	strbtvc	r6, [pc], #-3616	; 99e8 <__FUNCTION__.4287+0x8c>
    99e4:	616e6520 	cmnvs	lr, r0, lsr #10
    99e8:	64656c62 	strbtvs	r6, [r5], #-3170	; 0xc62
    99ec:	0a212121 	beq	851e78 <__bss_end__+0x847ee8>
    99f0:	00000000 	andeq	r0, r0, r0
    99f4:	494e4150 	stmdbmi	lr, {r4, r6, r8, lr}^
    99f8:	73253a43 	teqvc	r5, #274432	; 0x43000
    99fc:	3a73253a 	bcc	1cd2eec <__bss_end__+0x1cc8f5c>
    9a00:	703a6425 	eorsvc	r6, sl, r5, lsr #8
    9a04:	746e6972 	strbtvc	r6, [lr], #-2418	; 0x972
    9a08:	6e203a6b 	vnmulvs.f32	s6, s0, s23
    9a0c:	6820746f 	stmdavs	r0!, {r0, r1, r2, r3, r5, r6, sl, ip, sp, lr}
    9a10:	6c646e61 	stclvs	14, cr6, [r4], #-388	; 0xfffffe7c
    9a14:	20676e69 	rsbcs	r6, r7, r9, ror #28
    9a18:	63657073 	cmnvs	r5, #115	; 0x73
    9a1c:	65696669 	strbvs	r6, [r9, #-1641]!	; 0x669
    9a20:	25272072 	strcs	r2, [r7, #-114]!	; 0x72
    9a24:	0a0a2763 	beq	2937b8 <__bss_end__+0x289828>
    9a28:	00000000 	andeq	r0, r0, r0
    9a2c:	454e4f44 	strbmi	r4, [lr, #-3908]	; 0xf44
    9a30:	0a212121 	beq	851ebc <__bss_end__+0x847f2c>
    9a34:	00000000 	andeq	r0, r0, r0
    9a38:	756f6261 	strbvc	r6, [pc, #-609]!	; 97df <uart_getc+0x13>
    9a3c:	6f742074 	svcvs	0x00742074
    9a40:	69727020 	ldmdbvs	r2!, {r5, ip, sp, lr}^
    9a44:	6f20746e 	svcvs	0x0020746e
    9a48:	6572206e 	ldrbvs	r2, [r2, #-110]!	; 0x6e
    9a4c:	616c7567 	cmnvs	ip, r7, ror #10
    9a50:	72702072 	rsbsvc	r2, r0, #114	; 0x72
    9a54:	66746e69 	ldrbtvs	r6, [r4], -r9, ror #28
    9a58:	0000000a 	andeq	r0, r0, sl
    9a5c:	63637573 	cmnvs	r3, #482344960	; 0x1cc00000
    9a60:	21737365 	cmncs	r3, r5, ror #6
    9a64:	0000000a 	andeq	r0, r0, sl

00009a68 <__FUNCTION__.4314>:
    9a68:	755f7773 	ldrbvc	r7, [pc, #-1907]	; 92fd <sw_uart_gets_until+0x25>
    9a6c:	5f747261 	svcpl	0x00747261
    9a70:	73746567 	cmnvc	r4, #432013312	; 0x19c00000
    9a74:	746e755f 	strbtvc	r7, [lr], #-1375	; 0x55f
    9a78:	00006c69 	andeq	r6, r0, r9, ror #24

00009a7c <__FUNCTION__.4326>:
    9a7c:	755f7773 	ldrbvc	r7, [pc, #-1907]	; 9311 <sw_uart_gets_until+0x39>
    9a80:	5f747261 	svcpl	0x00747261
    9a84:	73746567 	cmnvc	r4, #432013312	; 0x19c00000
    9a88:	6d69745f 	cfstrdvs	mvd7, [r9, #-380]!	; 0xfffffe84
    9a8c:	74756f65 	ldrbtvc	r6, [r5], #-3941	; 0xf65
    9a90:	00000000 	andeq	r0, r0, r0

00009a94 <__FUNCTION__.4340>:
    9a94:	755f7773 	ldrbvc	r7, [pc, #-1907]	; 9329 <sw_uart_gets_until+0x51>
    9a98:	5f747261 	svcpl	0x00747261
    9a9c:	74696e69 	strbtvc	r6, [r9], #-3689	; 0xe69
    9aa0:	6c65685f 	stclvs	8, cr6, [r5], #-380	; 0xfffffe84
    9aa4:	00726570 	rsbseq	r6, r2, r0, ror r5

00009aa8 <__FUNCTION__.4346>:
    9aa8:	755f7773 	ldrbvc	r7, [pc, #-1907]	; 933d <sw_uart_gets_until+0x65>
    9aac:	5f747261 	svcpl	0x00747261
    9ab0:	63746567 	cmnvs	r4, #432013312	; 0x19c00000
    9ab4:	00000000 	andeq	r0, r0, r0

00009ab8 <__FUNCTION__.4368>:
    9ab8:	755f7773 	ldrbvc	r7, [pc, #-1907]	; 934d <sw_uart_gets_until+0x75>
    9abc:	5f747261 	svcpl	0x00747261
    9ac0:	6e697270 	mcrvs	2, 3, r7, cr9, cr0, {3}
    9ac4:	00006b74 	andeq	r6, r0, r4, ror fp

00009ac8 <__FUNCTION__.4376>:
    9ac8:	755f7773 	ldrbvc	r7, [pc, #-1907]	; 935d <sw_uart_gets_until+0x85>
    9acc:	5f747261 	svcpl	0x00747261
    9ad0:	73746567 	cmnvc	r4, #432013312	; 0x19c00000
    9ad4:	746e755f 	strbtvc	r7, [lr], #-1375	; 0x55f
    9ad8:	625f6c69 	subsvs	r6, pc, #26880	; 0x6900
    9adc:	00006b6c 	andeq	r6, r0, ip, ror #22
    9ae0:	732d796d 	teqvc	sp, #1785856	; 0x1b4000
    9ae4:	732f6372 	teqvc	pc, #-939524095	; 0xc8000001
    9ae8:	61752d77 	cmnvs	r5, r7, ror sp
    9aec:	632e7472 	teqvs	lr, #1912602624	; 0x72000000
    9af0:	00000000 	andeq	r0, r0, r0
    9af4:	7479626e 	ldrbtvc	r6, [r9], #-622	; 0x26e
    9af8:	303e7365 	eorscc	r7, lr, r5, ror #6
    9afc:	00000000 	andeq	r0, r0, r0
    9b00:	7a686d28 	bvc	1a24fa8 <__bss_end__+0x1a1b018>
    9b04:	62202d20 	eorvs	r2, r0, #32, 26	; 0x800
    9b08:	29647561 	stmdbcs	r4!, {r0, r5, r6, r8, sl, ip, sp, lr}^
    9b0c:	203d3c20 	eorscs	r3, sp, r0, lsr #24
    9b10:	69726564 	ldmdbvs	r2!, {r2, r5, r6, r8, sl, sp, lr}^
    9b14:	20646576 	rsbcs	r6, r4, r6, ror r5
    9b18:	64202626 	strtvs	r2, [r0], #-1574	; 0x626
    9b1c:	76697265 	strbtvc	r7, [r9], -r5, ror #4
    9b20:	3c206465 	cfstrscc	mvf6, [r0], #-404	; 0xfffffe6c
    9b24:	6d28203d 	stcvs	0, cr2, [r8, #-244]!	; 0xffffff0c
    9b28:	2b207a68 	blcs	8284d0 <__bss_end__+0x81e540>
    9b2c:	75616220 	strbvc	r6, [r1, #-544]!	; 0x220
    9b30:	00002964 	andeq	r2, r0, r4, ror #18
    9b34:	494e4150 	stmdbmi	lr, {r4, r6, r8, lr}^
    9b38:	73253a43 	teqvc	r5, #274432	; 0x43000
    9b3c:	3a73253a 	bcc	1cd302c <__bss_end__+0x1cc909c>
    9b40:	693a6425 	ldmdbvs	sl!, {r0, r2, r5, sl, sp, lr}
    9b44:	736f706d 	cmnvc	pc, #109	; 0x6d
    9b48:	6c626973 	stclvs	9, cr6, [r2], #-460	; 0xfffffe34
    9b4c:	68203a65 	stmdavs	r0!, {r0, r2, r5, r6, r9, fp, ip, sp}
    9b50:	20657661 	rsbcs	r7, r5, r1, ror #12
    9b54:	69206e61 	stmdbvs	r0!, {r0, r5, r6, r9, sl, fp, sp, lr}
    9b58:	6e69666e 	cdpvs	6, 6, cr6, cr9, cr14, {3}
    9b5c:	20657469 	rsbcs	r7, r5, r9, ror #8
    9b60:	656d6974 	strbvs	r6, [sp, #-2420]!	; 0x974
    9b64:	2174756f 	cmncs	r4, pc, ror #10
    9b68:	00000a0a 	andeq	r0, r0, sl, lsl #20
    9b6c:	3c207a73 	stccc	10, cr7, [r0], #-460	; 0xfffffe34
    9b70:	7a697320 	bvc	1a667f8 <__bss_end__+0x1a5c868>
    9b74:	20666f65 	rsbcs	r6, r6, r5, ror #30
    9b78:	2d667562 	cfstr64cs	mvdx7, [r6, #-392]!	; 0xfffffe78
    9b7c:	00000031 	andeq	r0, r0, r1, lsr r0

Disassembly of section .bss:

00009b80 <__bss_start__>:
	...

00009f80 <console_uart>:
	...

Disassembly of section .ARM.attributes:

00000000 <.ARM.attributes>:
   0:	00002a41 	andeq	r2, r0, r1, asr #20
   4:	61656100 	cmnvs	r5, r0, lsl #2
   8:	01006962 	tsteq	r0, r2, ror #18
   c:	00000020 	andeq	r0, r0, r0, lsr #32
  10:	4b5a3605 	blmi	168d82c <__bss_end__+0x168389c>
  14:	08070600 	stmdaeq	r7, {r9, sl}
  18:	12010901 	andne	r0, r1, #16384	; 0x4000
  1c:	15011404 	strne	r1, [r1, #-1028]	; 0x404
  20:	18031701 	stmdane	r3, {r0, r8, r9, sl, ip}
  24:	22011a01 	andcs	r1, r1, #4096	; 0x1000
  28:	Address 0x0000000000000028 is out of bounds.


Disassembly of section .comment:

00000000 <.comment>:
   0:	3a434347 	bcc	10d0d24 <__bss_end__+0x10c6d94>
   4:	4e472820 	cdpmi	8, 4, cr2, cr7, cr0, {1}
   8:	34202955 	strtcc	r2, [r0], #-2389	; 0x955
   c:	332e382e 	teqcc	lr, #3014656	; 0x2e0000
	...

Disassembly of section .debug_info:

00000000 <.debug_info>:
       0:	00000905 	andeq	r0, r0, r5, lsl #18
       4:	00000004 	andeq	r0, r0, r4
       8:	01040000 	mrseq	r0, (UNDEF: 4)
       c:	00000174 	andeq	r0, r0, r4, ror r1
      10:	00008101 	andeq	r8, r0, r1, lsl #2
      14:	00001f00 	andeq	r1, r0, r0, lsl #30
      18:	00801000 	addeq	r1, r0, r0
      1c:	00026800 	andeq	r6, r2, r0, lsl #16
      20:	00000000 	andeq	r0, r0, r0
      24:	05040200 	streq	r0, [r4, #-512]	; 0x200
      28:	00746e69 	rsbseq	r6, r4, r9, ror #28
      2c:	21070403 	tstcs	r7, r3, lsl #8
      30:	03000001 	movweq	r0, #1
      34:	00b50601 	adcseq	r0, r5, r1, lsl #12
      38:	02030000 	andeq	r0, r3, #0
      3c:	0001cb05 	andeq	ip, r1, r5, lsl #22
      40:	05040300 	streq	r0, [r4, #-768]	; 0x300
      44:	00000154 	andeq	r0, r0, r4, asr r1
      48:	4f050803 	svcmi	0x00050803
      4c:	04000001 	streq	r0, [r0], #-1
      50:	0000012e 	andeq	r0, r0, lr, lsr #2
      54:	005a2e04 	subseq	r2, sl, r4, lsl #28
      58:	01030000 	mrseq	r0, (UNDEF: 3)
      5c:	0000b308 	andeq	fp, r0, r8, lsl #6
      60:	07020300 	streq	r0, [r2, -r0, lsl #6]
      64:	000000de 	ldrdeq	r0, [r0], -lr
      68:	1c070403 	cfstrsne	mvf0, [r7], {3}
      6c:	03000001 	movweq	r0, #1
      70:	01170708 	tsteq	r7, r8, lsl #14
      74:	04030000 	streq	r0, [r3], #-0
      78:	00014607 	andeq	r4, r1, r7, lsl #12
      7c:	08010300 	stmdaeq	r1, {r8, r9}
      80:	000000bc 	strheq	r0, [r0], -ip
      84:	008a0405 	addeq	r0, sl, r5, lsl #8
      88:	7d060000 	stcvc	0, cr0, [r6, #-0]
      8c:	07000000 	streq	r0, [r0, -r0]
      90:	000000a2 	andeq	r0, r0, r2, lsr #1
      94:	a7031f01 	strge	r1, [r3, -r1, lsl #30]
      98:	08000000 	stmdaeq	r0, {}	; <UNPREDICTABLE>
      9c:	006e6970 	rsbeq	r6, lr, r0, ror r9
      a0:	002c1f01 	eoreq	r1, ip, r1, lsl #30
      a4:	07000000 	streq	r0, [r0, -r0]
      a8:	0000015d 	andeq	r0, r0, sp, asr r1
      ac:	bf032401 	svclt	0x00032401
      b0:	08000000 	stmdaeq	r0, {}	; <UNPREDICTABLE>
      b4:	006e6970 	rsbeq	r6, lr, r0, ror r9
      b8:	002c2401 	eoreq	r2, ip, r1, lsl #8
      bc:	07000000 	streq	r0, [r0, -r0]
      c0:	00000136 	andeq	r0, r0, r6, lsr r1
      c4:	e0032901 	and	r2, r3, r1, lsl #18
      c8:	08000000 	stmdaeq	r0, {}	; <UNPREDICTABLE>
      cc:	006e6970 	rsbeq	r6, lr, r0, ror r9
      d0:	002c2901 	eoreq	r2, ip, r1, lsl #18
      d4:	76080000 	strvc	r0, [r8], -r0
      d8:	2c290100 	stfcss	f0, [r9], #-0
      dc:	00000000 	andeq	r0, r0, r0
      e0:	00007809 	andeq	r7, r0, r9, lsl #16
      e4:	10310100 	eorsne	r0, r1, r0, lsl #2
      e8:	18000080 	stmdane	r0, {r7}
      ec:	01000002 	tsteq	r0, r2
      f0:	0007119c 	muleq	r7, ip, r1
      f4:	69700a00 	ldmdbvs	r0!, {r9, fp}^
      f8:	3101006e 	tstcc	r1, lr, rrx
      fc:	0000002c 	andeq	r0, r0, ip, lsr #32
     100:	00000000 	andeq	r0, r0, r0
     104:	0009250b 	andeq	r2, r9, fp, lsl #10
     108:	4f310100 	svcmi	0x00310100
     10c:	21000000 	mrscs	r0, (UNDEF: 0)
     110:	0b000000 	bleq	118 <_start-0x7ee8>
     114:	000001e2 	andeq	r0, r0, r2, ror #3
     118:	002c3101 	eoreq	r3, ip, r1, lsl #2
     11c:	00420000 	subeq	r0, r2, r0
     120:	690c0000 	stmdbvs	ip, {}	; <UNPREDICTABLE>
     124:	2c320100 	ldfcss	f0, [r2], #-0
     128:	01000000 	mrseq	r0, (UNDEF: 0)
     12c:	0004620d 	andeq	r6, r4, sp, lsl #4
     130:	2c330100 	ldfcss	f0, [r3], #-0
     134:	63000000 	movwvs	r0, #0
     138:	0e000000 	cdpeq	0, 0, cr0, cr0, cr0, {0}
     13c:	00646e65 	rsbeq	r6, r4, r5, ror #28
     140:	002c5b01 	eoreq	r5, ip, r1, lsl #22
     144:	140f0000 	strne	r0, [pc], #-0	; 14c <_start-0x7eb4>
     148:	04000080 	streq	r0, [r0], #-128	; 0x80
     14c:	63000000 	movwvs	r0, #0
     150:	0d000001 	stceq	0, cr0, [r0, #-4]
     154:	0000016f 	andeq	r0, r0, pc, ror #2
     158:	002c3301 	eoreq	r3, ip, r1, lsl #6
     15c:	00630000 	rsbeq	r0, r3, r0
     160:	10000000 	andne	r0, r0, r0
     164:	000000bf 	strheq	r0, [r0], -pc	; <UNPREDICTABLE>
     168:	00008018 	andeq	r8, r0, r8, lsl r0
     16c:	00000018 	andeq	r0, r0, r8, lsl r0
     170:	019f4701 	orrseq	r4, pc, r1, lsl #14
     174:	d6110000 	ldrle	r0, [r1], -r0
     178:	00000000 	andeq	r0, r0, r0
     17c:	0000cb12 	andeq	ip, r0, r2, lsl fp
     180:	00007600 	andeq	r7, r0, r0, lsl #12
     184:	00a71300 	adceq	r1, r7, r0, lsl #6
     188:	80180000 	andshi	r0, r8, r0
     18c:	00180000 	andseq	r0, r8, r0
     190:	2e010000 	cdpcs	0, 0, cr0, cr1, cr0, {0}
     194:	0000b312 	andeq	fp, r0, r2, lsl r3
     198:	00007600 	andeq	r7, r0, r0, lsl #12
     19c:	0f000000 	svceq	0x00000000
     1a0:	00008030 	andeq	r8, r0, r0, lsr r0
     1a4:	00000004 	andeq	r0, r0, r4
     1a8:	000001bc 			; <UNDEFINED> instruction: 0x000001bc
     1ac:	00016f0d 	andeq	r6, r1, sp, lsl #30
     1b0:	2c480100 	stfcse	f0, [r8], {-0}
     1b4:	97000000 	strls	r0, [r0, -r0]
     1b8:	00000000 	andeq	r0, r0, r0
     1bc:	0000bf10 	andeq	fp, r0, r0, lsl pc
     1c0:	00804000 	addeq	r4, r0, r0
     1c4:	00002400 	andeq	r2, r0, r0, lsl #8
     1c8:	34490100 	strbcc	r0, [r9], #-256	; 0x100
     1cc:	12000002 	andne	r0, r0, #2
     1d0:	000000d6 	ldrdeq	r0, [r0], -r6
     1d4:	000000aa 	andeq	r0, r0, sl, lsr #1
     1d8:	0000cb14 	andeq	ip, r0, r4, lsl fp
     1dc:	01f30400 	mvnseq	r0, r0, lsl #8
     1e0:	00159f50 	andseq	r9, r5, r0, asr pc
     1e4:	19000000 	stmdbne	r0, {}	; <UNPREDICTABLE>
     1e8:	12000002 	andne	r0, r0, #2
     1ec:	000000d6 	ldrdeq	r0, [r0], -r6
     1f0:	000000c4 	andeq	r0, r0, r4, asr #1
     1f4:	0000cb14 	andeq	ip, r0, r4, lsl fp
     1f8:	01f30400 	mvnseq	r0, r0, lsl #8
     1fc:	8f169f50 	svchi	0x00169f50
     200:	40000000 	andmi	r0, r0, r0
     204:	00000080 	andeq	r0, r0, r0, lsl #1
     208:	01000000 	mrseq	r0, (UNDEF: 0)
     20c:	009b142c 	addseq	r1, fp, ip, lsr #8
     210:	f3040000 	vhadd.u8	d0, d4, d0
     214:	009f5001 	addseq	r5, pc, r1
     218:	00a71600 	adceq	r1, r7, r0, lsl #12
     21c:	804c0000 	subhi	r0, ip, r0
     220:	00280000 	eoreq	r0, r8, r0
     224:	2e010000 	cdpcs	0, 0, cr0, cr1, cr0, {0}
     228:	0000b314 	andeq	fp, r0, r4, lsl r3
     22c:	01f30400 	mvnseq	r0, r0, lsl #8
     230:	00009f50 	andeq	r9, r0, r0, asr pc
     234:	0080640f 	addeq	r6, r0, pc, lsl #8
     238:	00000400 	andeq	r0, r0, r0, lsl #8
     23c:	00025100 	andeq	r5, r2, r0, lsl #2
     240:	016f0d00 	cmneq	pc, r0, lsl #26
     244:	4a010000 	bmi	4024c <__bss_end__+0x362bc>
     248:	0000002c 	andeq	r0, r0, ip, lsr #32
     24c:	00000158 	andeq	r0, r0, r8, asr r1
     250:	00bf1000 	adcseq	r1, pc, r0
     254:	80740000 	rsbshi	r0, r4, r0
     258:	00240000 	eoreq	r0, r4, r0
     25c:	4b010000 	blmi	40264 <__bss_end__+0x362d4>
     260:	000002c9 	andeq	r0, r0, r9, asr #5
     264:	0000d612 	andeq	sp, r0, r2, lsl r6
     268:	00016b00 	andeq	r6, r1, r0, lsl #22
     26c:	00cb1400 	sbceq	r1, fp, r0, lsl #8
     270:	f3040000 	vhadd.u8	d0, d4, d0
     274:	159f5001 	ldrne	r5, [pc, #1]	; 27d <_start-0x7d83>
     278:	00000048 	andeq	r0, r0, r8, asr #32
     27c:	000002ae 	andeq	r0, r0, lr, lsr #5
     280:	0000d612 	andeq	sp, r0, r2, lsl r6
     284:	00018500 	andeq	r8, r1, r0, lsl #10
     288:	00cb1400 	sbceq	r1, fp, r0, lsl #8
     28c:	f3040000 	vhadd.u8	d0, d4, d0
     290:	169f5001 	ldrne	r5, [pc], r1
     294:	0000008f 	andeq	r0, r0, pc, lsl #1
     298:	00008074 	andeq	r8, r0, r4, ror r0
     29c:	00000048 	andeq	r0, r0, r8, asr #32
     2a0:	9b142c01 	blls	50b2ac <__bss_end__+0x50131c>
     2a4:	04000000 	streq	r0, [r0], #-0
     2a8:	9f5001f3 	svcls	0x005001f3
     2ac:	a7160000 	ldrge	r0, [r6, -r0]
     2b0:	80000000 	andhi	r0, r0, r0
     2b4:	70000080 	andvc	r0, r0, r0, lsl #1
     2b8:	01000000 	mrseq	r0, (UNDEF: 0)
     2bc:	00b3142e 	adcseq	r1, r3, lr, lsr #8
     2c0:	f3040000 	vhadd.u8	d0, d4, d0
     2c4:	009f5001 	addseq	r5, pc, r1
     2c8:	80980f00 	addshi	r0, r8, r0, lsl #30
     2cc:	00040000 	andeq	r0, r4, r0
     2d0:	02e60000 	rsceq	r0, r6, #0
     2d4:	6f0d0000 	svcvs	0x000d0000
     2d8:	01000001 	tsteq	r0, r1
     2dc:	00002c4c 	andeq	r2, r0, ip, asr #24
     2e0:	00020700 	andeq	r0, r2, r0, lsl #14
     2e4:	bf100000 	svclt	0x00100000
     2e8:	a8000000 	stmdage	r0, {}	; <UNPREDICTABLE>
     2ec:	24000080 	strcs	r0, [r0], #-128	; 0x80
     2f0:	01000000 	mrseq	r0, (UNDEF: 0)
     2f4:	00035e4d 	andeq	r5, r3, sp, asr #28
     2f8:	00d61200 	sbcseq	r1, r6, r0, lsl #4
     2fc:	021a0000 	andseq	r0, sl, #0
     300:	cb140000 	blgt	500308 <__bss_end__+0x4f6378>
     304:	04000000 	streq	r0, [r0], #-0
     308:	9f5001f3 	svcls	0x005001f3
     30c:	00009015 	andeq	r9, r0, r5, lsl r0
     310:	00034300 	andeq	r4, r3, r0, lsl #6
     314:	00d61200 	sbcseq	r1, r6, r0, lsl #4
     318:	02340000 	eorseq	r0, r4, #0
     31c:	cb140000 	blgt	500324 <__bss_end__+0x4f6394>
     320:	04000000 	streq	r0, [r0], #-0
     324:	9f5001f3 	svcls	0x005001f3
     328:	00008f16 	andeq	r8, r0, r6, lsl pc
     32c:	0080a800 	addeq	sl, r0, r0, lsl #16
     330:	00009000 	andeq	r9, r0, r0
     334:	142c0100 	strtne	r0, [ip], #-256	; 0x100
     338:	0000009b 	muleq	r0, fp, r0
     33c:	5001f304 	andpl	pc, r1, r4, lsl #6
     340:	1600009f 			; <UNDEFINED> instruction: 0x1600009f
     344:	000000a7 	andeq	r0, r0, r7, lsr #1
     348:	000080b4 	strheq	r8, [r0], -r4
     34c:	000000b8 	strheq	r0, [r0], -r8
     350:	b3142e01 	tstlt	r4, #1, 28
     354:	04000000 	streq	r0, [r0], #-0
     358:	9f5001f3 	svcls	0x005001f3
     35c:	cc0f0000 	stcgt	0, cr0, [pc], {-0}
     360:	04000080 	streq	r0, [r0], #-128	; 0x80
     364:	7b000000 	blvc	36c <_start-0x7c94>
     368:	0d000003 	stceq	0, cr0, [r0, #-12]
     36c:	0000016f 	andeq	r0, r0, pc, ror #2
     370:	002c4e01 	eoreq	r4, ip, r1, lsl #28
     374:	02a40000 	adceq	r0, r4, #0
     378:	10000000 	andne	r0, r0, r0
     37c:	000000bf 	strheq	r0, [r0], -pc	; <UNPREDICTABLE>
     380:	000080dc 	ldrdeq	r8, [r0], -ip
     384:	00000024 	andeq	r0, r0, r4, lsr #32
     388:	03f34f01 	mvnseq	r4, #1, 30
     38c:	d6120000 	ldrle	r0, [r2], -r0
     390:	b7000000 	strlt	r0, [r0, -r0]
     394:	14000002 	strne	r0, [r0], #-2
     398:	000000cb 	andeq	r0, r0, fp, asr #1
     39c:	5001f304 	andpl	pc, r1, r4, lsl #6
     3a0:	00d8159f 	smullseq	r1, r8, pc, r5	; <UNPREDICTABLE>
     3a4:	03d80000 	bicseq	r0, r8, #0
     3a8:	d6120000 	ldrle	r0, [r2], -r0
     3ac:	d1000000 	mrsle	r0, (UNDEF: 0)
     3b0:	14000002 	strne	r0, [r0], #-2
     3b4:	000000cb 	andeq	r0, r0, fp, asr #1
     3b8:	5001f304 	andpl	pc, r1, r4, lsl #6
     3bc:	008f169f 	umulleq	r1, pc, pc, r6	; <UNPREDICTABLE>
     3c0:	80dc0000 	sbcshi	r0, ip, r0
     3c4:	00d80000 	sbcseq	r0, r8, r0
     3c8:	2c010000 	stccs	0, cr0, [r1], {-0}
     3cc:	00009b14 	andeq	r9, r0, r4, lsl fp
     3d0:	01f30400 	mvnseq	r0, r0, lsl #8
     3d4:	00009f50 	andeq	r9, r0, r0, asr pc
     3d8:	0000a716 	andeq	sl, r0, r6, lsl r7
     3dc:	0080e800 	addeq	lr, r0, r0, lsl #16
     3e0:	00010000 	andeq	r0, r1, r0
     3e4:	142e0100 	strtne	r0, [lr], #-256	; 0x100
     3e8:	000000b3 	strheq	r0, [r0], -r3
     3ec:	5001f304 	andpl	pc, r1, r4, lsl #6
     3f0:	0f00009f 	svceq	0x0000009f
     3f4:	00008100 	andeq	r8, r0, r0, lsl #2
     3f8:	00000004 	andeq	r0, r0, r4
     3fc:	00000410 	andeq	r0, r0, r0, lsl r4
     400:	00016f0d 	andeq	r6, r1, sp, lsl #30
     404:	2c500100 	ldfcse	f0, [r0], {-0}
     408:	2f000000 	svccs	0x00000000
     40c:	00000003 	andeq	r0, r0, r3
     410:	0000bf10 	andeq	fp, r0, r0, lsl pc
     414:	00811000 	addeq	r1, r1, r0
     418:	00002800 	andeq	r2, r0, r0, lsl #16
     41c:	88510100 	ldmdahi	r1, {r8}^
     420:	12000004 	andne	r0, r0, #4
     424:	000000d6 	ldrdeq	r0, [r0], -r6
     428:	00000342 	andeq	r0, r0, r2, asr #6
     42c:	0000cb14 	andeq	ip, r0, r4, lsl fp
     430:	01f30400 	mvnseq	r0, r0, lsl #8
     434:	20159f50 	andscs	r9, r5, r0, asr pc
     438:	6d000001 	stcvs	0, cr0, [r0, #-4]
     43c:	12000004 	andne	r0, r0, #4
     440:	000000d6 	ldrdeq	r0, [r0], -r6
     444:	0000035c 	andeq	r0, r0, ip, asr r3
     448:	0000cb14 	andeq	ip, r0, r4, lsl fp
     44c:	01f30400 	mvnseq	r0, r0, lsl #8
     450:	8f169f50 	svchi	0x00169f50
     454:	10000000 	andne	r0, r0, r0
     458:	20000081 	andcs	r0, r0, r1, lsl #1
     45c:	01000001 	tsteq	r0, r1
     460:	009b142c 	addseq	r1, fp, ip, lsr #8
     464:	f3040000 	vhadd.u8	d0, d4, d0
     468:	009f5001 	addseq	r5, pc, r1
     46c:	00a71600 	adceq	r1, r7, r0, lsl #12
     470:	811c0000 	tsthi	ip, r0
     474:	01480000 	mrseq	r0, (UNDEF: 72)
     478:	2e010000 	cdpcs	0, 0, cr0, cr1, cr0, {0}
     47c:	0000b314 	andeq	fp, r0, r4, lsl r3
     480:	01f30400 	mvnseq	r0, r0, lsl #8
     484:	00009f50 	andeq	r9, r0, r0, asr pc
     488:	0081380f 	addeq	r3, r1, pc, lsl #16
     48c:	00000400 	andeq	r0, r0, r0, lsl #8
     490:	0004a500 	andeq	sl, r4, r0, lsl #10
     494:	016f0d00 	cmneq	pc, r0, lsl #26
     498:	52010000 	andpl	r0, r1, #0
     49c:	0000002c 	andeq	r0, r0, ip, lsr #32
     4a0:	000003a8 	andeq	r0, r0, r8, lsr #7
     4a4:	00bf1000 	adcseq	r1, pc, r0
     4a8:	81480000 	mrshi	r0, (UNDEF: 72)
     4ac:	00280000 	eoreq	r0, r8, r0
     4b0:	53010000 	movwpl	r0, #4096	; 0x1000
     4b4:	0000051d 	andeq	r0, r0, sp, lsl r5
     4b8:	0000d612 	andeq	sp, r0, r2, lsl r6
     4bc:	0003bb00 	andeq	fp, r3, r0, lsl #22
     4c0:	00cb1400 	sbceq	r1, fp, r0, lsl #8
     4c4:	f3040000 	vhadd.u8	d0, d4, d0
     4c8:	159f5001 	ldrne	r5, [pc, #1]	; 4d1 <_start-0x7b2f>
     4cc:	00000168 	andeq	r0, r0, r8, ror #2
     4d0:	00000502 	andeq	r0, r0, r2, lsl #10
     4d4:	0000d612 	andeq	sp, r0, r2, lsl r6
     4d8:	0003d600 	andeq	sp, r3, r0, lsl #12
     4dc:	00cb1400 	sbceq	r1, fp, r0, lsl #8
     4e0:	f3040000 	vhadd.u8	d0, d4, d0
     4e4:	169f5001 	ldrne	r5, [pc], r1
     4e8:	0000008f 	andeq	r0, r0, pc, lsl #1
     4ec:	00008148 	andeq	r8, r0, r8, asr #2
     4f0:	00000168 	andeq	r0, r0, r8, ror #2
     4f4:	9b142c01 	blls	50b500 <__bss_end__+0x501570>
     4f8:	04000000 	streq	r0, [r0], #-0
     4fc:	9f5001f3 	svcls	0x005001f3
     500:	a7160000 	ldrge	r0, [r6, -r0]
     504:	54000000 	strpl	r0, [r0], #-0
     508:	90000081 	andls	r0, r0, r1, lsl #1
     50c:	01000001 	tsteq	r0, r1
     510:	00b3142e 	adcseq	r1, r3, lr, lsr #8
     514:	f3040000 	vhadd.u8	d0, d4, d0
     518:	009f5001 	addseq	r5, pc, r1
     51c:	81700f00 	cmnhi	r0, r0, lsl #30
     520:	00040000 	andeq	r0, r4, r0
     524:	053a0000 	ldreq	r0, [sl, #-0]!
     528:	6f0d0000 	svcvs	0x000d0000
     52c:	01000001 	tsteq	r0, r1
     530:	00002c54 	andeq	r2, r0, r4, asr ip
     534:	00041000 	andeq	r1, r4, r0
     538:	bf100000 	svclt	0x00100000
     53c:	80000000 	andhi	r0, r0, r0
     540:	20000081 	andcs	r0, r0, r1, lsl #1
     544:	01000000 	mrseq	r0, (UNDEF: 0)
     548:	0005b255 	andeq	fp, r5, r5, asr r2
     54c:	00d61200 	sbcseq	r1, r6, r0, lsl #4
     550:	04230000 	strteq	r0, [r3], #-0
     554:	cb140000 	blgt	50055c <__bss_end__+0x4f65cc>
     558:	04000000 	streq	r0, [r0], #-0
     55c:	9f5001f3 	svcls	0x005001f3
     560:	0001b015 	andeq	fp, r1, r5, lsl r0
     564:	00059700 	andeq	r9, r5, r0, lsl #14
     568:	00d61200 	sbcseq	r1, r6, r0, lsl #4
     56c:	043e0000 	ldrteq	r0, [lr], #-0
     570:	cb140000 	blgt	500578 <__bss_end__+0x4f65e8>
     574:	04000000 	streq	r0, [r0], #-0
     578:	9f5001f3 	svcls	0x005001f3
     57c:	00008f16 	andeq	r8, r0, r6, lsl pc
     580:	00818000 	addeq	r8, r1, r0
     584:	0001b000 	andeq	fp, r1, r0
     588:	142c0100 	strtne	r0, [ip], #-256	; 0x100
     58c:	0000009b 	muleq	r0, fp, r0
     590:	5001f304 	andpl	pc, r1, r4, lsl #6
     594:	1600009f 			; <UNDEFINED> instruction: 0x1600009f
     598:	000000a7 	andeq	r0, r0, r7, lsr #1
     59c:	0000818c 	andeq	r8, r0, ip, lsl #3
     5a0:	000001d8 	ldrdeq	r0, [r0], -r8
     5a4:	b3142e01 	tstlt	r4, #1, 28
     5a8:	04000000 	streq	r0, [r0], #-0
     5ac:	9f5001f3 	svcls	0x005001f3
     5b0:	a00f0000 	andge	r0, pc, r0
     5b4:	04000081 	streq	r0, [r0], #-129	; 0x81
     5b8:	cf000000 	svcgt	0x00000000
     5bc:	0d000005 	stceq	0, cr0, [r0, #-20]	; 0xffffffec
     5c0:	0000016f 	andeq	r0, r0, pc, ror #2
     5c4:	002c5601 	eoreq	r5, ip, r1, lsl #12
     5c8:	04650000 	strbteq	r0, [r5], #-0
     5cc:	10000000 	andne	r0, r0, r0
     5d0:	000000bf 	strheq	r0, [r0], -pc	; <UNPREDICTABLE>
     5d4:	000081b0 			; <UNDEFINED> instruction: 0x000081b0
     5d8:	00000024 	andeq	r0, r0, r4, lsr #32
     5dc:	06475701 	strbeq	r5, [r7], -r1, lsl #14
     5e0:	d6120000 	ldrle	r0, [r2], -r0
     5e4:	78000000 	stmdavc	r0, {}	; <UNPREDICTABLE>
     5e8:	14000004 	strne	r0, [r0], #-4
     5ec:	000000cb 	andeq	r0, r0, fp, asr #1
     5f0:	5001f304 	andpl	pc, r1, r4, lsl #6
     5f4:	01f8159f 			; <UNDEFINED> instruction: 0x01f8159f
     5f8:	062c0000 	strteq	r0, [ip], -r0
     5fc:	d6120000 	ldrle	r0, [r2], -r0
     600:	93000000 	movwls	r0, #0
     604:	14000004 	strne	r0, [r0], #-4
     608:	000000cb 	andeq	r0, r0, fp, asr #1
     60c:	5001f304 	andpl	pc, r1, r4, lsl #6
     610:	008f169f 	umulleq	r1, pc, pc, r6	; <UNPREDICTABLE>
     614:	81b40000 			; <UNDEFINED> instruction: 0x81b40000
     618:	01f80000 	mvnseq	r0, r0
     61c:	2c010000 	stccs	0, cr0, [r1], {-0}
     620:	00009b14 	andeq	r9, r0, r4, lsl fp
     624:	01f30400 	mvnseq	r0, r0, lsl #8
     628:	00009f50 	andeq	r9, r0, r0, asr pc
     62c:	0000a716 	andeq	sl, r0, r6, lsl r7
     630:	0081c000 	addeq	ip, r1, r0
     634:	00021800 	andeq	r1, r2, r0, lsl #16
     638:	142e0100 	strtne	r0, [lr], #-256	; 0x100
     63c:	000000b3 	strheq	r0, [r0], -r3
     640:	5001f304 	andpl	pc, r1, r4, lsl #6
     644:	0f00009f 	svceq	0x0000009f
     648:	000081d4 	ldrdeq	r8, [r0], -r4
     64c:	00000004 	andeq	r0, r0, r4
     650:	00000664 	andeq	r0, r0, r4, ror #12
     654:	00016f0d 	andeq	r6, r1, sp, lsl #30
     658:	2c580100 	ldfcse	f0, [r8], {-0}
     65c:	a7000000 	strge	r0, [r0, -r0]
     660:	00000004 	andeq	r0, r0, r4
     664:	0000bf10 	andeq	fp, r0, r0, lsl pc
     668:	0081e400 	addeq	lr, r1, r0, lsl #8
     66c:	00001800 	andeq	r1, r0, r0, lsl #16
     670:	bc590100 	ldflte	f0, [r9], {-0}
     674:	11000006 	tstne	r0, r6
     678:	000000d6 	ldrdeq	r0, [r0], -r6
     67c:	00cb1401 	sbceq	r1, fp, r1, lsl #8
     680:	f3040000 	vhadd.u8	d0, d4, d0
     684:	179f5001 	ldrne	r5, [pc, r1]
     688:	000081e4 	andeq	r8, r0, r4, ror #3
     68c:	00000018 	andeq	r0, r0, r8, lsl r0
     690:	0000d611 	andeq	sp, r0, r1, lsl r6
     694:	cb140100 	blgt	500a9c <__bss_end__+0x4f6b0c>
     698:	04000000 	streq	r0, [r0], #-0
     69c:	9f5001f3 	svcls	0x005001f3
     6a0:	00008f13 	andeq	r8, r0, r3, lsl pc
     6a4:	0081e400 	addeq	lr, r1, r0, lsl #8
     6a8:	00001800 	andeq	r1, r0, r0, lsl #16
     6ac:	142c0100 	strtne	r0, [ip], #-256	; 0x100
     6b0:	0000009b 	muleq	r0, fp, r0
     6b4:	5001f304 	andpl	pc, r1, r4, lsl #6
     6b8:	0000009f 	muleq	r0, pc, r0	; <UNPREDICTABLE>
     6bc:	0081fc0f 	addeq	pc, r1, pc, lsl #24
     6c0:	00000400 	andeq	r0, r0, r0, lsl #8
     6c4:	0006d900 	andeq	sp, r6, r0, lsl #18
     6c8:	016f0d00 	cmneq	pc, r0, lsl #26
     6cc:	5a010000 	bpl	406d4 <__bss_end__+0x36744>
     6d0:	0000002c 	andeq	r0, r0, ip, lsr #32
     6d4:	000004ba 			; <UNDEFINED> instruction: 0x000004ba
     6d8:	820c0f00 	andhi	r0, ip, #0, 30
     6dc:	00040000 	andeq	r0, r4, r0
     6e0:	06f20000 	ldrbteq	r0, [r2], r0
     6e4:	6f180000 	svcvs	0x00180000
     6e8:	01000001 	tsteq	r0, r1
     6ec:	00002c5b 	andeq	r2, r0, fp, asr ip
     6f0:	20190000 	andscs	r0, r9, r0
     6f4:	c2000082 	andgt	r0, r0, #130	; 0x82
     6f8:	1a000008 	bne	720 <_start-0x78e0>
     6fc:	f3075101 	vrhadd.u8	d5, d7, d1
     700:	1e355201 	cdpne	2, 3, cr5, cr5, cr1, {0}
     704:	011a2431 	tsteq	sl, r1, lsr r4
     708:	24030550 	strcs	r0, [r3], #-1360	; 0x550
     70c:	00000099 	muleq	r0, r9, r0
     710:	00930900 	addseq	r0, r3, r0, lsl #18
     714:	61010000 	mrsvs	r0, (UNDEF: 1)
     718:	00008228 	andeq	r8, r0, r8, lsr #4
     71c:	00000050 	andeq	r0, r0, r0, asr r0
     720:	07cc9c01 	strbeq	r9, [ip, r1, lsl #24]
     724:	700c0000 	andvc	r0, ip, r0
     728:	01006e69 	tsteq	r0, r9, ror #28
     72c:	00002562 	andeq	r2, r0, r2, ror #10
     730:	251b1500 	ldrcs	r1, [fp, #-1280]	; 0x500
     734:	01000009 	tsteq	r0, r9
     738:	00002c6b 	andeq	r2, r0, fp, ror #24
     73c:	8f1c6900 	svchi	0x001c6900
     740:	38000000 	stmdacc	r0, {}	; <UNPREDICTABLE>
     744:	38000082 	stmdacc	r0, {r1, r7}
     748:	01000002 	tsteq	r0, r2
     74c:	00075865 	andeq	r5, r7, r5, ror #16
     750:	009b1100 	addseq	r1, fp, r0, lsl #2
     754:	00150000 	andseq	r0, r5, r0
     758:	0082500f 	addeq	r5, r2, pc
     75c:	00000800 	andeq	r0, r0, r0, lsl #16
     760:	00077100 	andeq	r7, r7, r0, lsl #2
     764:	6e690c00 	cdpvs	12, 6, cr0, cr9, cr0, {0}
     768:	2c690100 	stfcse	f0, [r9], #-0
     76c:	01000000 	mrseq	r0, (UNDEF: 0)
     770:	82301d00 	eorshi	r1, r0, #0, 26
     774:	08d80000 	ldmeq	r8, {}^	; <UNPREDICTABLE>
     778:	381e0000 	ldmdacc	lr, {}	; <UNPREDICTABLE>
     77c:	df000082 	svcle	0x00000082
     780:	8d000008 	stchi	0, cr0, [r0, #-32]	; 0xffffffe0
     784:	1a000007 	bne	7a8 <_start-0x7858>
     788:	45015001 	strmi	r5, [r1, #-1]
     78c:	82501e00 	subshi	r1, r0, #0, 28
     790:	08f00000 	ldmeq	r0!, {}^	; <UNPREDICTABLE>
     794:	07a20000 	streq	r0, [r2, r0]!
     798:	011a0000 	tsteq	sl, r0
     79c:	580a0350 	stmdapl	sl, {r4, r6, r8, r9}
     7a0:	681e001b 	ldmdavs	lr, {r0, r1, r3, r4}
     7a4:	e0000082 	and	r0, r0, r2, lsl #1
     7a8:	c2000000 	andgt	r0, r0, #0
     7ac:	1a000007 	bne	7d0 <_start-0x7830>
     7b0:	0a035201 	beq	d4fbc <__bss_end__+0xcb02c>
     7b4:	011a17bc 			; <UNDEFINED> instruction: 0x011a17bc
     7b8:	69080251 	stmdbvs	r8, {r0, r4, r6, r9}
     7bc:	0150011a 	cmpeq	r0, sl, lsl r1
     7c0:	6c1d0045 	ldcvs	0, cr0, [sp], {69}	; 0x45
     7c4:	01000082 	smlabbeq	r0, r2, r0, r0
     7c8:	00000009 	andeq	r0, r0, r9
     7cc:	0000141f 	andeq	r1, r0, pc, lsl r4
     7d0:	db080100 	blle	200bd8 <__bss_end__+0x1f6c48>
     7d4:	00000007 	andeq	r0, r0, r7
     7d8:	05202000 	streq	r2, [r0, #-0]!
     7dc:	0007e104 	andeq	lr, r7, r4, lsl #2
     7e0:	002c2000 	eoreq	r2, ip, r0
     7e4:	0a1f0000 	beq	7c07ec <__bss_end__+0x7b685c>
     7e8:	01000000 	mrseq	r0, (UNDEF: 0)
     7ec:	0007db09 	andeq	sp, r7, r9, lsl #22
     7f0:	20001c00 	andcs	r1, r0, r0, lsl #24
     7f4:	00001f20 	andeq	r1, r0, r0, lsr #30
     7f8:	0a010000 	beq	40800 <__bss_end__+0x36870>
     7fc:	000007db 	ldrdeq	r0, [r0], -fp
     800:	20200028 	eorcs	r0, r0, r8, lsr #32
     804:	0001e91f 	andeq	lr, r1, pc, lsl r9
     808:	db0c0100 	blle	300c10 <__bss_end__+0x2f6c80>
     80c:	00000007 	andeq	r0, r0, r7
     810:	1f202000 	svcne	0x00202000
     814:	0000010f 	andeq	r0, r0, pc, lsl #2
     818:	07db0d01 	ldrbeq	r0, [fp, r1, lsl #26]
     81c:	00040000 	andeq	r0, r4, r0
     820:	f81f2020 			; <UNDEFINED> instruction: 0xf81f2020
     824:	01000001 	tsteq	r0, r1
     828:	0007db0e 	andeq	sp, r7, lr, lsl #22
     82c:	20000800 	andcs	r0, r0, r0, lsl #16
     830:	02001f20 	andeq	r1, r0, #32, 30	; 0x80
     834:	0f010000 	svceq	0x00010000
     838:	000007db 	ldrdeq	r0, [r0], -fp
     83c:	2020000c 	eorcs	r0, r0, ip
     840:	0002081f 	andeq	r0, r2, pc, lsl r8
     844:	db100100 	blle	400c4c <__bss_end__+0x3f6cbc>
     848:	10000007 	andne	r0, r0, r7
     84c:	1f202000 	svcne	0x00202000
     850:	00000210 	andeq	r0, r0, r0, lsl r2
     854:	07db1101 	ldrbeq	r1, [fp, r1, lsl #2]
     858:	00140000 	andseq	r0, r4, r0
     85c:	f11f2020 			; <UNDEFINED> instruction: 0xf11f2020
     860:	01000000 	mrseq	r0, (UNDEF: 0)
     864:	00086d13 	andeq	r6, r8, r3, lsl sp
     868:	20001c00 	andcs	r1, r0, r0, lsl #24
     86c:	07db0620 	ldrbeq	r0, [fp, r0, lsr #12]
     870:	f81f0000 			; <UNDEFINED> instruction: 0xf81f0000
     874:	01000000 	mrseq	r0, (UNDEF: 0)
     878:	0007db14 	andeq	sp, r7, r4, lsl fp
     87c:	20002000 	andcs	r2, r0, r0
     880:	00d71f20 	sbcseq	r1, r7, r0, lsr #30
     884:	16010000 	strne	r0, [r1], -r0
     888:	00000890 	muleq	r0, r0, r8
     88c:	20200028 	eorcs	r0, r0, r8, lsr #32
     890:	0007db06 	andeq	sp, r7, r6, lsl #22
     894:	008c1f00 	addeq	r1, ip, r0, lsl #30
     898:	17010000 	strne	r0, [r1, -r0]
     89c:	000007db 	ldrdeq	r0, [r0], -fp
     8a0:	2020002c 	eorcs	r0, r0, ip, lsr #32
     8a4:	0001f11f 	andeq	pc, r1, pc, lsl r1	; <UNPREDICTABLE>
     8a8:	db190100 	blle	640cb0 <__bss_end__+0x636d20>
     8ac:	34000007 	strcc	r0, [r0], #-7
     8b0:	1f202000 	svcne	0x00202000
     8b4:	0000009b 	muleq	r0, fp, r0
     8b8:	07db1a01 	ldrbeq	r1, [fp, r1, lsl #20]
     8bc:	00380000 	eorseq	r0, r8, r0
     8c0:	8f212020 	svchi	0x00212020
     8c4:	03000002 	movweq	r0, #2
     8c8:	00002529 	andeq	r2, r0, r9, lsr #10
     8cc:	0008d800 	andeq	sp, r8, r0, lsl #16
     8d0:	00842200 	addeq	r2, r4, r0, lsl #4
     8d4:	00230000 	eoreq	r0, r3, r0
     8d8:	0001d524 	andeq	sp, r1, r4, lsr #10
     8dc:	258e0300 	strcs	r0, [lr, #768]	; 0x300
     8e0:	000000ff 	strdeq	r0, [r0], -pc	; <UNPREDICTABLE>
     8e4:	08f01d02 	ldmeq	r0!, {r1, r8, sl, fp, ip}^
     8e8:	2c220000 	stccs	0, cr0, [r2], #-0
     8ec:	00000000 	andeq	r0, r0, r0
     8f0:	0000c125 	andeq	ip, r0, r5, lsr #2
     8f4:	01500300 	cmpeq	r0, r0, lsl #6
     8f8:	22000009 	andcs	r0, r0, #9
     8fc:	0000002c 	andeq	r0, r0, ip, lsr #32
     900:	00ca2400 	sbceq	r2, sl, r0, lsl #8
     904:	66030000 	strvs	r0, [r3], -r0
     908:	00019100 	andeq	r9, r1, r0, lsl #2
     90c:	e9000400 	stmdb	r0, {sl}
     910:	04000001 	streq	r0, [r0], #-1
     914:	00023501 	andeq	r3, r2, r1, lsl #10
     918:	02270100 	eoreq	r0, r7, #0, 2
     91c:	02a00000 	adceq	r0, r0, #0
     920:	82780000 	rsbshi	r0, r8, #0
     924:	00580000 	subseq	r0, r8, r0
     928:	02150000 	andseq	r0, r5, #0
     92c:	18020000 	stmdane	r2, {}	; <UNPREDICTABLE>
     930:	02000002 	andeq	r0, r0, #2
     934:	00003028 	andeq	r3, r0, r8, lsr #32
     938:	02960300 	addseq	r0, r6, #0, 6
     93c:	03040000 	movweq	r0, #16384	; 0x4000
     940:	00004700 	andeq	r4, r0, r0, lsl #14
     944:	02e90400 	rsceq	r0, r9, #0, 8
     948:	00470000 	subeq	r0, r7, r0
     94c:	00000000 	andeq	r0, r0, r0
     950:	98020405 	stmdals	r2, {r0, r2, sl}
     954:	02000002 	andeq	r0, r0, #2
     958:	00002562 	andeq	r2, r0, r2, ror #10
     95c:	05040600 	streq	r0, [r4, #-1536]	; 0x600
     960:	00746e69 	rsbseq	r6, r4, r9, ror #28
     964:	21070407 	tstcs	r7, r7, lsl #8
     968:	07000001 	streq	r0, [r0, -r1]
     96c:	00b50601 	adcseq	r0, r5, r1, lsl #12
     970:	02070000 	andeq	r0, r7, #0
     974:	0001cb05 	andeq	ip, r1, r5, lsl #22
     978:	05040700 	streq	r0, [r4, #-1792]	; 0x700
     97c:	00000154 	andeq	r0, r0, r4, asr r1
     980:	4f050807 	svcmi	0x00050807
     984:	07000001 	streq	r0, [r0, -r1]
     988:	00b30801 	adcseq	r0, r3, r1, lsl #16
     98c:	02070000 	andeq	r0, r7, #0
     990:	0000de07 	andeq	sp, r0, r7, lsl #28
     994:	07040700 	streq	r0, [r4, -r0, lsl #14]
     998:	0000011c 	andeq	r0, r0, ip, lsl r1
     99c:	17070807 	strne	r0, [r7, -r7, lsl #16]
     9a0:	07000001 	streq	r0, [r0, -r1]
     9a4:	01460704 	cmpeq	r6, r4, lsl #14
     9a8:	04080000 	streq	r0, [r8], #-0
     9ac:	000000a7 	andeq	r0, r0, r7, lsr #1
     9b0:	bc080107 	stflts	f0, [r8], {7}
     9b4:	08000000 	stmdaeq	r0, {}	; <UNPREDICTABLE>
     9b8:	0000b404 	andeq	fp, r0, r4, lsl #8
     9bc:	00a70900 	adceq	r0, r7, r0, lsl #18
     9c0:	8f0a0000 	svchi	0x000a0000
     9c4:	01000002 	tsteq	r0, r2
     9c8:	00005406 	andeq	r5, r0, r6, lsl #8
     9cc:	00827800 	addeq	r7, r2, r0, lsl #16
     9d0:	00005800 	andeq	r5, r0, r0, lsl #16
     9d4:	439c0100 	orrsmi	r0, ip, #0, 2
     9d8:	0b000001 	bleq	9e4 <_start-0x761c>
     9dc:	00746d66 	rsbseq	r6, r4, r6, ror #26
     9e0:	00ae0601 	adceq	r0, lr, r1, lsl #12
     9e4:	91020000 	mrsls	r0, (UNDEF: 2)
     9e8:	620d0c70 	andvs	r0, sp, #112, 24	; 0x7000
     9ec:	01006675 	tsteq	r0, r5, ror r6
     9f0:	00014308 	andeq	r4, r1, r8, lsl #6
     9f4:	80030500 	andhi	r0, r3, r0, lsl #10
     9f8:	0e00009b 	mcreq	0, 0, r0, cr0, cr11, {4}
     9fc:	000002e4 	andeq	r0, r0, r4, ror #5
     a00:	00490901 	subeq	r0, r9, r1, lsl #18
     a04:	91020000 	mrsls	r0, (UNDEF: 2)
     a08:	7a730f5c 	bvc	1cc4780 <__bss_end__+0x1cba7f0>
     a0c:	540c0100 	strpl	r0, [ip], #-256	; 0x100
     a10:	cd000000 	stcgt	0, cr0, [r0, #-0]
     a14:	10000004 	andne	r0, r0, r4
     a18:	000082a0 	andeq	r8, r0, r0, lsr #5
     a1c:	00000174 	andeq	r0, r0, r4, ror r1
     a20:	00000136 	andeq	r0, r0, r6, lsr r1
     a24:	02530111 	subseq	r0, r3, #1073741828	; 0x40000004
     a28:	01114c91 			; <UNDEFINED> instruction: 0x01114c91
     a2c:	48910352 	ldmmi	r1, {r1, r4, r6, r8, r9}
     a30:	51011106 	tstpl	r1, r6, lsl #2
     a34:	04000a03 	streq	r0, [r0], #-2563	; 0xa03
     a38:	02500111 	subseq	r0, r0, #1073741828	; 0x40000004
     a3c:	12000074 	andne	r0, r0, #116	; 0x74
     a40:	000082b4 			; <UNDEFINED> instruction: 0x000082b4
     a44:	02500111 	subseq	r0, r0, #1073741828	; 0x40000004
     a48:	00000074 	andeq	r0, r0, r4, ror r0
     a4c:	0000a713 	andeq	sl, r0, r3, lsl r7
     a50:	00015400 	andeq	r5, r1, r0, lsl #8
     a54:	009a1400 	addseq	r1, sl, r0, lsl #8
     a58:	03ff0000 	mvnseq	r0, #0
     a5c:	00541500 	subseq	r1, r4, r0, lsl #10
     a60:	01630000 	cmneq	r3, r0
     a64:	ae160000 	cdpge	0, 1, cr0, cr6, cr0, {0}
     a68:	00000000 	andeq	r0, r0, r0
     a6c:	00030317 	andeq	r0, r3, r7, lsl r3
     a70:	6e220400 	cdpvs	4, 2, cr0, cr2, cr0, {0}
     a74:	08000001 	stmdaeq	r0, {r0}
     a78:	00015404 	andeq	r5, r1, r4, lsl #8
     a7c:	028c1800 	addeq	r1, ip, #0, 16
     a80:	02050000 	andeq	r0, r5, #0
     a84:	00000054 	andeq	r0, r0, r4, asr r0
     a88:	0000a116 	andeq	sl, r0, r6, lsl r1
     a8c:	00541600 	subseq	r1, r4, r0, lsl #12
     a90:	ae160000 	cdpge	0, 1, cr0, cr6, cr0, {0}
     a94:	16000000 	strne	r0, [r0], -r0
     a98:	00000049 	andeq	r0, r0, r9, asr #32
     a9c:	00ee0000 	rsceq	r0, lr, r0
     aa0:	00040000 	andeq	r0, r4, r0
     aa4:	0000031a 	andeq	r0, r0, sl, lsl r3
     aa8:	02350104 	eorseq	r0, r5, #4, 2
     aac:	ee010000 	cdp	0, 0, cr0, cr1, cr0, {0}
     ab0:	a0000002 	andge	r0, r0, r2
     ab4:	d0000002 	andle	r0, r0, r2
     ab8:	34000082 	strcc	r0, [r0], #-130	; 0x82
     abc:	1b000000 	blne	ac4 <_start-0x753c>
     ac0:	02000003 	andeq	r0, r0, #3
     ac4:	6e690504 	cdpvs	5, 6, cr0, cr9, cr4, {0}
     ac8:	04030074 	streq	r0, [r3], #-116	; 0x74
     acc:	00012107 	andeq	r2, r1, r7, lsl #2
     ad0:	06010300 	streq	r0, [r1], -r0, lsl #6
     ad4:	000000b5 	strheq	r0, [r0], -r5
     ad8:	cb050203 	blgt	1412ec <__bss_end__+0x13735c>
     adc:	03000001 	movweq	r0, #1
     ae0:	01540504 	cmpeq	r4, r4, lsl #10
     ae4:	08030000 	stmdaeq	r3, {}	; <UNPREDICTABLE>
     ae8:	00014f05 	andeq	r4, r1, r5, lsl #30
     aec:	08010300 	stmdaeq	r1, {r8, r9}
     af0:	000000b3 	strheq	r0, [r0], -r3
     af4:	de070203 	cdple	2, 0, cr0, cr7, cr3, {0}
     af8:	03000000 	movweq	r0, #0
     afc:	011c0704 	tsteq	ip, r4, lsl #14
     b00:	08030000 	stmdaeq	r3, {}	; <UNPREDICTABLE>
     b04:	00011707 	andeq	r1, r1, r7, lsl #14
     b08:	07040300 	streq	r0, [r4, -r0, lsl #6]
     b0c:	00000146 	andeq	r0, r0, r6, asr #2
     b10:	bc080103 	stflts	f0, [r8], {3}
     b14:	04000000 	streq	r0, [r0], #-0
     b18:	00007f04 	andeq	r7, r0, r4, lsl #30
     b1c:	00720500 	rsbseq	r0, r2, r0, lsl #10
     b20:	fa060000 	blx	180b28 <__bss_end__+0x176b98>
     b24:	01000002 	tsteq	r0, r2
     b28:	00002504 	andeq	r2, r0, r4, lsl #10
     b2c:	0082d000 	addeq	sp, r2, r0
     b30:	00003400 	andeq	r3, r0, r0, lsl #8
     b34:	ab9c0100 	blge	fe700f3c <__bss_end__+0xfe6f6fac>
     b38:	07000000 	streq	r0, [r0, -r0]
     b3c:	04010070 	streq	r0, [r1], #-112	; 0x70
     b40:	00000079 	andeq	r0, r0, r9, ror r0
     b44:	000004f6 	strdeq	r0, [r0], -r6
     b48:	00250800 	eoreq	r0, r5, r0, lsl #16
     b4c:	00ba0000 	adcseq	r0, sl, r0
     b50:	25090000 	strcs	r0, [r9, #-0]
     b54:	00000000 	andeq	r0, r0, r0
     b58:	0003080a 	andeq	r0, r3, sl, lsl #16
     b5c:	c51d0200 	ldrgt	r0, [sp, #-512]	; 0x200
     b60:	04000000 	streq	r0, [r0], #-0
     b64:	0000ab04 	andeq	sl, r0, r4, lsl #22
     b68:	00250800 	eoreq	r0, r5, r0, lsl #16
     b6c:	00da0000 	sbcseq	r0, sl, r0
     b70:	79090000 	stmdbvc	r9, {}	; <UNPREDICTABLE>
     b74:	00000000 	andeq	r0, r0, r0
     b78:	0003030b 	andeq	r0, r3, fp, lsl #6
     b7c:	eb0c0100 	bl	300f84 <__bss_end__+0x2f6ff4>
     b80:	05000000 	streq	r0, [r0, #-0]
     b84:	00988803 	addseq	r8, r8, r3, lsl #16
     b88:	cb040400 	blgt	101b90 <__bss_end__+0xf7c00>
     b8c:	00000000 	andeq	r0, r0, r0
     b90:	000006a1 	andeq	r0, r0, r1, lsr #13
     b94:	03b30004 			; <UNDEFINED> instruction: 0x03b30004
     b98:	01040000 	mrseq	r0, (UNDEF: 4)
     b9c:	00000235 	andeq	r0, r0, r5, lsr r2
     ba0:	00034d01 	andeq	r4, r3, r1, lsl #26
     ba4:	0002a000 	andeq	sl, r2, r0
     ba8:	00830400 	addeq	r0, r3, r0, lsl #8
     bac:	00052400 	andeq	r2, r5, r0, lsl #8
     bb0:	0003b500 	andeq	fp, r3, r0, lsl #10
     bb4:	05040200 	streq	r0, [r4, #-512]	; 0x200
     bb8:	00746e69 	rsbseq	r6, r4, r9, ror #28
     bbc:	21070403 	tstcs	r7, r3, lsl #8
     bc0:	03000001 	movweq	r0, #1
     bc4:	00b50601 	adcseq	r0, r5, r1, lsl #12
     bc8:	02030000 	andeq	r0, r3, #0
     bcc:	0001cb05 	andeq	ip, r1, r5, lsl #22
     bd0:	05040300 	streq	r0, [r4, #-768]	; 0x300
     bd4:	00000154 	andeq	r0, r0, r4, asr r1
     bd8:	4f050803 	svcmi	0x00050803
     bdc:	03000001 	movweq	r0, #1
     be0:	00b30801 	adcseq	r0, r3, r1, lsl #16
     be4:	02030000 	andeq	r0, r3, #0
     be8:	0000de07 	andeq	sp, r0, r7, lsl #28
     bec:	07040300 	streq	r0, [r4, -r0, lsl #6]
     bf0:	0000011c 	andeq	r0, r0, ip, lsl r1
     bf4:	17070803 	strne	r0, [r7, -r3, lsl #16]
     bf8:	03000001 	movweq	r0, #1
     bfc:	01460704 	cmpeq	r6, r4, lsl #14
     c00:	04040000 	streq	r0, [r4], #-0
     c04:	007a0405 	rsbseq	r0, sl, r5, lsl #8
     c08:	01030000 	mrseq	r0, (UNDEF: 3)
     c0c:	0000bc08 	andeq	fp, r0, r8, lsl #24
     c10:	87040500 	strhi	r0, [r4, -r0, lsl #10]
     c14:	06000000 	streq	r0, [r0], -r0
     c18:	0000007a 	andeq	r0, r0, sl, ror r0
     c1c:	00021807 	andeq	r1, r2, r7, lsl #16
     c20:	97280200 	strls	r0, [r8, -r0, lsl #4]!
     c24:	08000000 	stmdaeq	r0, {}	; <UNPREDICTABLE>
     c28:	00000296 	muleq	r0, r6, r2
     c2c:	ae000404 	cdpge	4, 0, cr0, cr0, cr4, {0}
     c30:	09000000 	stmdbeq	r0, {}	; <UNPREDICTABLE>
     c34:	000002e9 	andeq	r0, r0, r9, ror #5
     c38:	00000072 	andeq	r0, r0, r2, ror r0
     c3c:	98070000 	stmdals	r7, {}	; <UNPREDICTABLE>
     c40:	02000002 	andeq	r0, r0, #2
     c44:	00008c62 	andeq	r8, r0, r2, ror #24
     c48:	03220a00 	teqeq	r2, #0, 20
     c4c:	27010000 	strcs	r0, [r1, -r0]
     c50:	00000025 	andeq	r0, r0, r5, lsr #32
     c54:	00008304 	andeq	r8, r0, r4, lsl #6
     c58:	00000014 	andeq	r0, r0, r4, lsl r0
     c5c:	00e09c01 	rsceq	r9, r0, r1, lsl #24
     c60:	630b0000 	movwvs	r0, #45056	; 0xb000
     c64:	25270100 	strcs	r0, [r7, #-256]!	; 0x100
     c68:	14000000 	strne	r0, [r0], #-0
     c6c:	00000005 	andeq	r0, r0, r5
     c70:	6461700c 	strbtvs	r7, [r1], #-12
     c74:	742e0100 	strtvc	r0, [lr], #-256	; 0x100
     c78:	18000000 	stmdane	r0, {}	; <UNPREDICTABLE>
     c7c:	2c000083 	stccs	0, cr0, [r0], {131}	; 0x83
     c80:	01000000 	mrseq	r0, (UNDEF: 0)
     c84:	0001309c 	muleq	r1, ip, r0
     c88:	00700b00 	rsbseq	r0, r0, r0, lsl #22
     c8c:	00742e01 	rsbseq	r2, r4, r1, lsl #28
     c90:	05420000 	strbeq	r0, [r2, #-0]
     c94:	3f0d0000 	svccc	0x000d0000
     c98:	01000003 	tsteq	r0, r3
     c9c:	0000742e 	andeq	r7, r0, lr, lsr #8
     ca0:	00056d00 	andeq	r6, r5, r0, lsl #26
     ca4:	036d0e00 	cmneq	sp, #0, 28
     ca8:	2e010000 	cdpcs	0, 0, cr0, cr1, cr0, {0}
     cac:	00000025 	andeq	r0, r0, r5, lsr #32
     cb0:	6c0f5201 	sfmvs	f5, 4, [pc], {1}
     cb4:	01006e65 	tsteq	r0, r5, ror #28
     cb8:	0000252f 	andeq	r2, r0, pc, lsr #10
     cbc:	00510100 	subseq	r0, r1, r0, lsl #2
     cc0:	00031a0a 	andeq	r1, r3, sl, lsl #20
     cc4:	74370100 	ldrtvc	r0, [r7], #-256	; 0x100
     cc8:	44000000 	strmi	r0, [r0], #-0
     ccc:	40000083 	andmi	r0, r0, r3, lsl #1
     cd0:	01000000 	mrseq	r0, (UNDEF: 0)
     cd4:	00019c9c 	muleq	r1, ip, ip
     cd8:	73640b00 	cmnvc	r4, #0, 22
     cdc:	37010074 	smlsdxcc	r1, r4, r0, r0
     ce0:	00000074 	andeq	r0, r0, r4, ror r0
     ce4:	0000058e 	andeq	r0, r0, lr, lsl #11
     ce8:	01006e0b 	tsteq	r0, fp, lsl #28
     cec:	00002537 	andeq	r2, r0, r7, lsr r5
     cf0:	0005c600 	andeq	ip, r5, r0, lsl #12
     cf4:	00700b00 	rsbseq	r0, r0, r0, lsl #22
     cf8:	00743701 	rsbseq	r3, r4, r1, lsl #14
     cfc:	05e70000 	strbeq	r0, [r7, #0]!
     d00:	620d0000 	andvs	r0, sp, #0
     d04:	01000004 	tsteq	r0, r4
     d08:	00007437 	andeq	r7, r0, r7, lsr r4
     d0c:	00061d00 	andeq	r1, r6, r0, lsl #26
     d10:	656c1000 	strbvs	r1, [ip, #-0]!
     d14:	3901006e 	stmdbcc	r1, {r1, r2, r3, r5, r6}
     d18:	00000025 	andeq	r0, r0, r5, lsr #32
     d1c:	0000063b 	andeq	r0, r0, fp, lsr r6
     d20:	0100730f 	tsteq	r0, pc, lsl #6
     d24:	0000743d 	andeq	r7, r0, sp, lsr r4
     d28:	00500100 	subseq	r0, r0, r0, lsl #2
     d2c:	00038a0a 	andeq	r8, r3, sl, lsl #20
     d30:	74470100 	strbvc	r0, [r7], #-256	; 0x100
     d34:	84000000 	strhi	r0, [r0], #-0
     d38:	a8000083 	stmdage	r0, {r0, r1, r7}
     d3c:	01000001 	tsteq	r0, r1
     d40:	0002df9c 	muleq	r2, ip, pc	; <UNPREDICTABLE>
     d44:	033f0d00 	teqeq	pc, #0, 26
     d48:	47010000 	strmi	r0, [r1, -r0]
     d4c:	0000002c 	andeq	r0, r0, ip, lsr #32
     d50:	00000662 	andeq	r0, r0, r2, ror #12
     d54:	7473640b 	ldrbtvc	r6, [r3], #-1035	; 0x40b
     d58:	74470100 	strbvc	r0, [r7], #-256	; 0x100
     d5c:	90000000 	andls	r0, r0, r0
     d60:	0b000006 	bleq	d80 <_start-0x7280>
     d64:	4701006e 	strmi	r0, [r1, -lr, rrx]
     d68:	00000025 	andeq	r0, r0, r5, lsr #32
     d6c:	000006fe 	strdeq	r0, [r0], -lr
     d70:	6c61760b 	stclvs	6, cr7, [r1], #-44	; 0xffffffd4
     d74:	25470100 	strbcs	r0, [r7, #-256]	; 0x100
     d78:	2a000000 	bcs	d80 <_start-0x7280>
     d7c:	0d000007 	stceq	0, cr0, [r0, #-28]	; 0xffffffe4
     d80:	0000036d 	andeq	r0, r0, sp, ror #6
     d84:	00254701 	eoreq	r4, r5, r1, lsl #14
     d88:	07a90000 	streq	r0, [r9, r0]!
     d8c:	440e0000 	strmi	r0, [lr], #-0
     d90:	01000003 	tsteq	r0, r3
     d94:	00002547 	andeq	r2, r0, r7, asr #10
     d98:	04910200 	ldreq	r0, [r1], #512	; 0x200
     d9c:	6675620f 	ldrbtvs	r6, [r5], -pc, lsl #4
     da0:	df4c0100 	svcle	0x004c0100
     da4:	03000002 	movweq	r0, #2
     da8:	107fa891 			; <UNDEFINED> instruction: 0x107fa891
     dac:	4c010070 	stcmi	0, cr0, [r1], {112}	; 0x70
     db0:	00000074 	andeq	r0, r0, r4, ror r0
     db4:	000007d3 	ldrdeq	r0, [r0], -r3
     db8:	01007510 	tsteq	r0, r0, lsl r5
     dbc:	00002c4d 	andeq	r2, r0, sp, asr #24
     dc0:	00088f00 	andeq	r8, r8, r0, lsl #30
     dc4:	032a1100 	teqeq	sl, #0, 2
     dc8:	02ff0000 	rscseq	r0, pc, #0
     dcc:	03050000 	movweq	r0, #20480	; 0x5000
     dd0:	00009944 	andeq	r9, r0, r4, asr #18
     dd4:	0083f012 	addeq	pc, r3, r2, lsl r0	; <UNPREDICTABLE>
     dd8:	00007400 	andeq	r7, r0, r0, lsl #8
     ddc:	00026100 	andeq	r6, r2, r0, lsl #2
     de0:	03141300 	tsteq	r4, #0, 6
     de4:	52010000 	andpl	r0, r1, #0
     de8:	0000002c 	andeq	r0, r0, ip, lsr #32
     dec:	00000994 	muleq	r0, r4, r9
     df0:	84c41400 	strbhi	r1, [r4], #1024	; 0x400
     df4:	06800000 	streq	r0, [r0], r0
     df8:	e0150000 	ands	r0, r5, r0
     dfc:	87000084 	strhi	r0, [r0, -r4, lsl #1]
     e00:	a3000006 	movwge	r0, #6
     e04:	16000002 	strne	r0, [r0], -r2
     e08:	08025301 	stmdaeq	r2, {r0, r8, r9, ip, lr}
     e0c:	52011675 	andpl	r1, r1, #122683392	; 0x7500000
     e10:	99440305 	stmdbls	r4, {r0, r2, r8, r9}^
     e14:	01160000 	tsteq	r6, r0
     e18:	7c030551 	cfstr32vc	mvfx0, [r3], {81}	; 0x51
     e1c:	16000099 			; <UNDEFINED> instruction: 0x16000099
     e20:	03055001 	movweq	r5, #20481	; 0x5001
     e24:	00009968 	andeq	r9, r0, r8, ror #18
     e28:	007d0216 	rsbseq	r0, sp, r6, lsl r2
     e2c:	99900305 	ldmibls	r0, {r0, r2, r8, r9}
     e30:	14000000 	strne	r0, [r0], #-0
     e34:	000084e4 	andeq	r8, r0, r4, ror #9
     e38:	0000069d 	muleq	r0, sp, r6
     e3c:	0084f015 	addeq	pc, r4, r5, lsl r0	; <UNPREDICTABLE>
     e40:	0000e000 	andeq	lr, r0, r0
     e44:	0002c100 	andeq	ip, r2, r0, lsl #2
     e48:	51011600 	tstpl	r1, r0, lsl #12
     e4c:	7fa09103 	svcvc	0x00a09103
     e50:	85041700 	strhi	r1, [r4, #-1792]	; 0x700
     e54:	01300000 	teqeq	r0, r0
     e58:	01160000 	tsteq	r6, r0
     e5c:	a0910353 	addsge	r0, r1, r3, asr r3
     e60:	5101167f 	tstpl	r1, pc, ror r6
     e64:	16007402 	strne	r7, [r0], -r2, lsl #8
     e68:	75025001 	strvc	r5, [r2, #-1]
     e6c:	18000000 	stmdane	r0, {}	; <UNPREDICTABLE>
     e70:	0000007a 	andeq	r0, r0, sl, ror r0
     e74:	000002ef 	andeq	r0, r0, pc, ror #5
     e78:	00006b19 	andeq	r6, r0, r9, lsl fp
     e7c:	18003f00 	stmdane	r0, {r8, r9, sl, fp, ip, sp}
     e80:	0000007a 	andeq	r0, r0, sl, ror r0
     e84:	000002ff 	strdeq	r0, [r0], -pc	; <UNPREDICTABLE>
     e88:	00006b19 	andeq	r6, r0, r9, lsl fp
     e8c:	06000400 	streq	r0, [r0], -r0, lsl #8
     e90:	000002ef 	andeq	r0, r0, pc, ror #5
     e94:	00035e1a 	andeq	r5, r3, sl, lsl lr
     e98:	2c1f0100 	ldfcss	f0, [pc], {-0}
     e9c:	68000085 	stmdavs	r0, {r0, r2, r7}
     ea0:	01000000 	mrseq	r0, (UNDEF: 0)
     ea4:	0003929c 	muleq	r3, ip, r2
     ea8:	03730d00 	cmneq	r3, #0, 26
     eac:	1f010000 	svcne	0x00010000
     eb0:	000003a1 	andeq	r0, r0, r1, lsr #7
     eb4:	000009c0 	andeq	r0, r0, r0, asr #19
     eb8:	0003370d 	andeq	r3, r3, sp, lsl #14
     ebc:	b61f0100 	ldrlt	r0, [pc], -r0, lsl #2
     ec0:	ec000003 	stc	0, cr0, [r0], {3}
     ec4:	11000009 	tstne	r0, r9
     ec8:	0000032a 	andeq	r0, r0, sl, lsr #6
     ecc:	000003cc 	andeq	r0, r0, ip, asr #7
     ed0:	994c0305 	stmdbls	ip, {r0, r2, r8, r9}^
     ed4:	40140000 	andsmi	r0, r4, r0
     ed8:	80000085 	andhi	r0, r0, r5, lsl #1
     edc:	15000006 	strne	r0, [r0, #-6]
     ee0:	0000855c 	andeq	r8, r0, ip, asr r5
     ee4:	00000687 	andeq	r0, r0, r7, lsl #13
     ee8:	00000388 	andeq	r0, r0, r8, lsl #7
     eec:	02530116 	subseq	r0, r3, #-2147483643	; 0x80000005
     ef0:	01162008 	tsteq	r6, r8
     ef4:	4c030552 	cfstr32mi	mvfx0, [r3], {82}	; 0x52
     ef8:	16000099 			; <UNDEFINED> instruction: 0x16000099
     efc:	03055101 	movweq	r5, #20737	; 0x5101
     f00:	0000997c 	andeq	r9, r0, ip, ror r9
     f04:	05500116 	ldrbeq	r0, [r0, #-278]	; 0x116
     f08:	00996803 	addseq	r6, r9, r3, lsl #16
     f0c:	7d021600 	stcvc	6, cr1, [r2, #-0]
     f10:	b8030500 	stmdalt	r3, {r8, sl}
     f14:	00000099 	muleq	r0, r9, r0
     f18:	00856014 	addeq	r6, r5, r4, lsl r0
     f1c:	00069d00 	andeq	r9, r6, r0, lsl #26
     f20:	251b0000 	ldrcs	r0, [fp, #-0]
     f24:	a1000000 	mrsge	r0, (UNDEF: 0)
     f28:	1c000003 	stcne	0, cr0, [r0], {3}
     f2c:	00000025 	andeq	r0, r0, r5, lsr #32
     f30:	92040500 	andls	r0, r4, #0, 10
     f34:	1b000003 	blne	f48 <_start-0x70b8>
     f38:	00000025 	andeq	r0, r0, r5, lsr #32
     f3c:	000003b6 			; <UNDEFINED> instruction: 0x000003b6
     f40:	0000811c 	andeq	r8, r0, ip, lsl r1
     f44:	04050000 	streq	r0, [r5], #-0
     f48:	000003a7 	andeq	r0, r0, r7, lsr #7
     f4c:	00007a18 	andeq	r7, r0, r8, lsl sl
     f50:	0003cc00 	andeq	ip, r3, r0, lsl #24
     f54:	006b1900 	rsbeq	r1, fp, r0, lsl #18
     f58:	000e0000 	andeq	r0, lr, r0
     f5c:	0003bc06 	andeq	fp, r3, r6, lsl #24
     f60:	028c1d00 	addeq	r1, ip, #0, 26
     f64:	7d010000 	stcvc	0, cr0, [r1, #-0]
     f68:	00000025 	andeq	r0, r0, r5, lsr #32
     f6c:	00008594 	muleq	r0, r4, r5
     f70:	00000294 	muleq	r0, r4, r2
     f74:	06459c01 	strbeq	r9, [r5], -r1, lsl #24
     f78:	620b0000 	andvs	r0, fp, #0
     f7c:	01006675 	tsteq	r0, r5, ror r6
     f80:	0000747d 	andeq	r7, r0, sp, ror r4
     f84:	000a1800 	andeq	r1, sl, r0, lsl #16
     f88:	006e0b00 	rsbeq	r0, lr, r0, lsl #22
     f8c:	00257d01 	eoreq	r7, r5, r1, lsl #26
     f90:	0a440000 	beq	1100f98 <__bss_end__+0x10f7008>
     f94:	660b0000 	strvs	r0, [fp], -r0
     f98:	0100746d 	tsteq	r0, sp, ror #8
     f9c:	0000817d 	andeq	r8, r0, sp, ror r1
     fa0:	000a7200 	andeq	r7, sl, r0, lsl #4
     fa4:	02e40d00 	rsceq	r0, r4, #0, 26
     fa8:	7d010000 	stcvc	0, cr0, [r1, #-0]
     fac:	000000ae 	andeq	r0, r0, lr, lsr #1
     fb0:	00000aa6 	andeq	r0, r0, r6, lsr #21
     fb4:	01007010 	tsteq	r0, r0, lsl r0
     fb8:	0000747e 	andeq	r7, r0, lr, ror r4
     fbc:	000ab900 	andeq	fp, sl, r0, lsl #18
     fc0:	00651000 	rsbeq	r1, r5, r0
     fc4:	00747e01 	rsbseq	r7, r4, r1, lsl #28
     fc8:	0b370000 	bleq	dc0fd0 <__bss_end__+0xdb7040>
     fcc:	2a110000 	bcs	440fd4 <__bss_end__+0x437044>
     fd0:	55000003 	strpl	r0, [r0, #-3]
     fd4:	05000006 	streq	r0, [r0, #-6]
     fd8:	00995c03 	addseq	r5, r9, r3, lsl #24
     fdc:	02501e00 	subseq	r1, r0, #0, 28
     fe0:	73100000 	tstvc	r0, #0
     fe4:	748b0100 	strvc	r0, [fp], #256	; 0x100
     fe8:	5e000000 	cdppl	0, 0, cr0, cr0, cr0, {0}
     fec:	0f00000b 	svceq	0x0000000b
     ff0:	006d756e 	rsbeq	r7, sp, lr, ror #10
     ff4:	065a8b01 	ldrbeq	r8, [sl], -r1, lsl #22
     ff8:	91030000 	mrsls	r0, (UNDEF: 3)
     ffc:	6d137ed8 	ldcvs	14, cr7, [r3, #-864]	; 0xfffffca0
    1000:	01000003 	tsteq	r0, r3
    1004:	00002c8c 	andeq	r2, r0, ip, lsl #25
    1008:	000bb300 	andeq	fp, fp, r0, lsl #6
    100c:	86181500 	ldrhi	r1, [r8], -r0, lsl #10
    1010:	00b90000 	adcseq	r0, r9, r0
    1014:	04910000 	ldreq	r0, [r1], #0
    1018:	01160000 	tsteq	r6, r0
    101c:	00750250 	rsbseq	r0, r5, r0, asr r2
    1020:	862c1400 	strthi	r1, [ip], -r0, lsl #8
    1024:	06800000 	streq	r0, [r0], r0
    1028:	48150000 	ldmdami	r5, {}	; <UNPREDICTABLE>
    102c:	87000086 	strhi	r0, [r0, -r6, lsl #1]
    1030:	d3000006 	movwle	r0, #6
    1034:	16000004 	strne	r0, [r0], -r4
    1038:	08025301 	stmdaeq	r2, {r0, r8, r9, ip, lr}
    103c:	52011692 	andpl	r1, r1, #153092096	; 0x9200000
    1040:	995c0305 	ldmdbls	ip, {r0, r2, r8, r9}^
    1044:	01160000 	tsteq	r6, r0
    1048:	7c030551 	cfstr32vc	mvfx0, [r3], {81}	; 0x51
    104c:	16000099 			; <UNDEFINED> instruction: 0x16000099
    1050:	03055001 	movweq	r5, #20481	; 0x5001
    1054:	00009968 	andeq	r9, r0, r8, ror #18
    1058:	007d0216 	rsbseq	r0, sp, r6, lsl r2
    105c:	99c00305 	stmibls	r0, {r0, r2, r8, r9}^
    1060:	14000000 	strne	r0, [r0], #-0
    1064:	0000864c 	andeq	r8, r0, ip, asr #12
    1068:	0000069d 	muleq	r0, sp, r6
    106c:	0086bc14 	addeq	fp, r6, r4, lsl ip
    1070:	00068000 	andeq	r8, r6, r0
    1074:	86d01500 	ldrbhi	r1, [r0], r0, lsl #10
    1078:	06870000 	streq	r0, [r7], r0
    107c:	05140000 	ldreq	r0, [r4, #-0]
    1080:	01160000 	tsteq	r6, r0
    1084:	98080253 	stmdals	r8, {r0, r1, r4, r6, r9}
    1088:	05520116 	ldrbeq	r0, [r2, #-278]	; 0x116
    108c:	00995c03 	addseq	r5, r9, r3, lsl #24
    1090:	51011600 	tstpl	r1, r0, lsl #12
    1094:	997c0305 	ldmdbls	ip!, {r0, r2, r8, r9}^
    1098:	01160000 	tsteq	r6, r0
    109c:	cc030550 	cfstr32gt	mvfx0, [r3], {80}	; 0x50
    10a0:	00000099 	muleq	r0, r9, r0
    10a4:	0086d414 	addeq	sp, r6, r4, lsl r4
    10a8:	00069d00 	andeq	r9, r6, r0, lsl #26
    10ac:	86f81500 	ldrbthi	r1, [r8], r0, lsl #10
    10b0:	019c0000 	orrseq	r0, ip, r0
    10b4:	054a0000 	strbeq	r0, [sl, #-0]
    10b8:	01160000 	tsteq	r6, r0
    10bc:	80080252 	andhi	r0, r8, r2, asr r2
    10c0:	03510116 	cmpeq	r1, #-2147483643	; 0x80000005
    10c4:	167ed091 			; <UNDEFINED> instruction: 0x167ed091
    10c8:	3a015001 	bcc	550d4 <__bss_end__+0x4b144>
    10cc:	047d0216 	ldrbteq	r0, [sp], #-534	; 0x216
    10d0:	02163101 	andseq	r3, r6, #1073741824	; 0x40000000
    10d4:	7702007d 	smlsdxvc	r2, sp, r0, r0
    10d8:	1c150000 	ldcne	0, cr0, [r5], {-0}
    10dc:	9c000087 	stcls	0, cr0, [r0], {135}	; 0x87
    10e0:	78000001 	stmdavc	r0, {r0}
    10e4:	16000005 	strne	r0, [r0], -r5
    10e8:	08025201 	stmdaeq	r2, {r0, r9, ip, lr}
    10ec:	51011680 	smlabbpl	r1, r0, r6, r1
    10f0:	7ed09103 	atnvcs	f1, f3
    10f4:	01500116 	cmpeq	r0, r6, lsl r1
    10f8:	7d02163a 	stcvc	6, cr1, [r2, #-232]	; 0xffffff18
    10fc:	007b0204 	rsbseq	r0, fp, r4, lsl #4
    1100:	007d0216 	rsbseq	r0, sp, r6, lsl r2
    1104:	00007702 	andeq	r7, r0, r2, lsl #14
    1108:	00874015 	addeq	r4, r7, r5, lsl r0
    110c:	00019c00 	andeq	r9, r1, r0, lsl #24
    1110:	0005a600 	andeq	sl, r5, r0, lsl #12
    1114:	52011600 	andpl	r1, r1, #0, 12
    1118:	16800802 	strne	r0, [r0], r2, lsl #16
    111c:	91035101 	tstls	r3, r1, lsl #2
    1120:	01167ed0 			; <UNDEFINED> instruction: 0x01167ed0
    1124:	16400150 			; <UNDEFINED> instruction: 0x16400150
    1128:	02047d02 	andeq	r7, r4, #2, 26	; 0x80
    112c:	0216007b 	andseq	r0, r6, #123	; 0x7b
    1130:	7702007d 	smlsdxvc	r2, sp, r0, r0
    1134:	64150000 	ldrvs	r0, [r5], #-0
    1138:	9c000087 	stcls	0, cr0, [r0], {135}	; 0x87
    113c:	d4000001 	strle	r0, [r0], #-1
    1140:	16000005 	strne	r0, [r0], -r5
    1144:	08025201 	stmdaeq	r2, {r0, r9, ip, lr}
    1148:	51011680 	smlabbpl	r1, r0, r6, r1
    114c:	7ed09103 	atnvcs	f1, f3
    1150:	01500116 	cmpeq	r0, r6, lsl r1
    1154:	7d021632 	stcvc	6, cr1, [r2, #-200]	; 0xffffff38
    1158:	007b0204 	rsbseq	r0, fp, r4, lsl #4
    115c:	007d0216 	rsbseq	r0, sp, r6, lsl r2
    1160:	00007702 	andeq	r7, r0, r2, lsl #14
    1164:	00879415 	addeq	r9, r7, r5, lsl r4
    1168:	00019c00 	andeq	r9, r1, r0, lsl #24
    116c:	00060200 	andeq	r0, r6, r0, lsl #4
    1170:	52011600 	andpl	r1, r1, #0, 12
    1174:	16800802 	strne	r0, [r0], r2, lsl #16
    1178:	91035101 	tstls	r3, r1, lsl #2
    117c:	01167ed0 			; <UNDEFINED> instruction: 0x01167ed0
    1180:	16380150 			; <UNDEFINED> instruction: 0x16380150
    1184:	02047d02 	andeq	r7, r4, #2, 26	; 0x80
    1188:	0216007b 	andseq	r0, r6, #123	; 0x7b
    118c:	7702007d 	smlsdxvc	r2, sp, r0, r0
    1190:	9c140000 	ldcls	0, cr0, [r4], {-0}
    1194:	80000087 	andhi	r0, r0, r7, lsl #1
    1198:	15000006 	strne	r0, [r0, #-6]
    119c:	000087b8 			; <UNDEFINED> instruction: 0x000087b8
    11a0:	00000687 	andeq	r0, r0, r7, lsl #13
    11a4:	0000063a 	andeq	r0, r0, sl, lsr r6
    11a8:	02530116 	subseq	r0, r3, #-2147483643	; 0x80000005
    11ac:	0116b908 	tsteq	r6, r8, lsl #18
    11b0:	5c030552 	cfstr32pl	mvfx0, [r3], {82}	; 0x52
    11b4:	16000099 			; <UNDEFINED> instruction: 0x16000099
    11b8:	03055101 	movweq	r5, #20737	; 0x5101
    11bc:	0000997c 	andeq	r9, r0, ip, ror r9
    11c0:	05500116 	ldrbeq	r0, [r0, #-278]	; 0x116
    11c4:	0099f403 	addseq	pc, r9, r3, lsl #8
    11c8:	bc140000 	ldclt	0, cr0, [r4], {-0}
    11cc:	9d000087 	stcls	0, cr0, [r0, #-540]	; 0xfffffde4
    11d0:	00000006 	andeq	r0, r0, r6
    11d4:	007a1800 	rsbseq	r1, sl, r0, lsl #16
    11d8:	06550000 	ldrbeq	r0, [r5], -r0
    11dc:	6b190000 	blvs	6411e4 <__bss_end__+0x637254>
    11e0:	09000000 	stmdbeq	r0, {}	; <UNPREDICTABLE>
    11e4:	06450600 	strbeq	r0, [r5], -r0, lsl #12
    11e8:	7a180000 	bvc	6011f0 <__bss_end__+0x5f7260>
    11ec:	6a000000 	bvs	11f4 <_start-0x6e0c>
    11f0:	19000006 	stmdbne	r0, {r1, r2}
    11f4:	0000006b 	andeq	r0, r0, fp, rrx
    11f8:	081f007f 	ldmdaeq	pc, {r0, r1, r2, r3, r4, r5, r6}	; <UNPREDICTABLE>
    11fc:	03000003 	movweq	r0, #3
    1200:	0003a11d 	andeq	sl, r3, sp, lsl r1
    1204:	03031f00 	movweq	r1, #16128	; 0x3f00
    1208:	22030000 	andcs	r0, r3, #0
    120c:	000003b6 			; <UNDEFINED> instruction: 0x000003b6
    1210:	00037b20 	andeq	r7, r3, r0, lsr #22
    1214:	211e0300 	tstcs	lr, r0, lsl #6
    1218:	0000028f 	andeq	r0, r0, pc, lsl #5
    121c:	00252903 	eoreq	r2, r5, r3, lsl #18
    1220:	069d0000 	ldreq	r0, [sp], r0
    1224:	811c0000 	tsthi	ip, r0
    1228:	22000000 	andcs	r0, r0, #0
    122c:	00ca2000 	sbceq	r2, sl, r0
    1230:	66030000 	strvs	r0, [r3], -r0
    1234:	0000b800 	andeq	fp, r0, r0, lsl #16
    1238:	8f000400 	svchi	0x00000400
    123c:	04000005 	streq	r0, [r0], #-5
    1240:	00023501 	andeq	r3, r2, r1, lsl #10
    1244:	039d0100 	orrseq	r0, sp, #0, 2
    1248:	02a00000 	adceq	r0, r0, #0
    124c:	88280000 	stmdahi	r8!, {}	; <UNPREDICTABLE>
    1250:	00200000 	eoreq	r0, r0, r0
    1254:	059b0000 	ldreq	r0, [fp]
    1258:	04020000 	streq	r0, [r2], #-0
    125c:	746e6905 	strbtvc	r6, [lr], #-2309	; 0x905
    1260:	07040300 	streq	r0, [r4, -r0, lsl #6]
    1264:	00000121 	andeq	r0, r0, r1, lsr #2
    1268:	b5060103 	strlt	r0, [r6, #-259]	; 0x103
    126c:	03000000 	movweq	r0, #0
    1270:	01cb0502 	biceq	r0, fp, r2, lsl #10
    1274:	04030000 	streq	r0, [r3], #-0
    1278:	00015405 	andeq	r5, r1, r5, lsl #8
    127c:	05080300 	streq	r0, [r8, #-768]	; 0x300
    1280:	0000014f 	andeq	r0, r0, pc, asr #2
    1284:	b3080103 	movwlt	r0, #33027	; 0x8103
    1288:	03000000 	movweq	r0, #0
    128c:	00de0702 	sbcseq	r0, lr, r2, lsl #14
    1290:	04030000 	streq	r0, [r3], #-0
    1294:	00011c07 	andeq	r1, r1, r7, lsl #24
    1298:	07080300 	streq	r0, [r8, -r0, lsl #6]
    129c:	00000117 	andeq	r0, r0, r7, lsl r1
    12a0:	46070403 	strmi	r0, [r7], -r3, lsl #8
    12a4:	03000001 	movweq	r0, #1
    12a8:	00bc0801 	adcseq	r0, ip, r1, lsl #16
    12ac:	d5040000 	strle	r0, [r4, #-0]
    12b0:	01000001 	tsteq	r0, r1
    12b4:	00882803 	addeq	r2, r8, r3, lsl #16
    12b8:	00001000 	andeq	r1, r0, r0
    12bc:	9c9c0100 	ldflss	f0, [ip], {0}
    12c0:	05000000 	streq	r0, [r0, #-0]
    12c4:	04010072 	streq	r0, [r1], #-114	; 0x72
    12c8:	0000002c 	andeq	r0, r0, ip, lsr #32
    12cc:	00000bdd 	ldrdeq	r0, [r0], -sp
    12d0:	038f0600 	orreq	r0, pc, #0, 12
    12d4:	0c010000 	stceq	0, cr0, [r1], {-0}
    12d8:	00008838 	andeq	r8, r0, r8, lsr r8
    12dc:	00000010 	andeq	r0, r0, r0, lsl r0
    12e0:	72059c01 	andvc	r9, r5, #256	; 0x100
    12e4:	2c0d0100 	stfcss	f0, [sp], {-0}
    12e8:	01000000 	mrseq	r0, (UNDEF: 0)
    12ec:	0000000c 	andeq	r0, r0, ip
    12f0:	0000ff00 	andeq	pc, r0, r0, lsl #30
    12f4:	fa000400 	blx	22fc <_start-0x5d04>
    12f8:	04000005 	streq	r0, [r0], #-5
    12fc:	00023501 	andeq	r3, r2, r1, lsl #10
    1300:	03bb0100 			; <UNDEFINED> instruction: 0x03bb0100
    1304:	02a00000 	adceq	r0, r0, #0
    1308:	88480000 	stmdahi	r8, {}^	; <UNPREDICTABLE>
    130c:	00280000 	eoreq	r0, r8, r0
    1310:	05e20000 	strbeq	r0, [r2, #0]!
    1314:	04020000 	streq	r0, [r2], #-0
    1318:	746e6905 	strbtvc	r6, [lr], #-2309	; 0x905
    131c:	07040300 	streq	r0, [r4, -r0, lsl #6]
    1320:	00000121 	andeq	r0, r0, r1, lsr #2
    1324:	b5060103 	strlt	r0, [r6, #-259]	; 0x103
    1328:	03000000 	movweq	r0, #0
    132c:	01cb0502 	biceq	r0, fp, r2, lsl #10
    1330:	04030000 	streq	r0, [r3], #-0
    1334:	00015405 	andeq	r5, r1, r5, lsl #8
    1338:	05080300 	streq	r0, [r8, #-768]	; 0x300
    133c:	0000014f 	andeq	r0, r0, pc, asr #2
    1340:	b3080103 	movwlt	r0, #33027	; 0x8103
    1344:	03000000 	movweq	r0, #0
    1348:	00de0702 	sbcseq	r0, lr, r2, lsl #14
    134c:	04030000 	streq	r0, [r3], #-0
    1350:	00011c07 	andeq	r1, r1, r7, lsl #24
    1354:	07080300 	streq	r0, [r8, -r0, lsl #6]
    1358:	00000117 	andeq	r0, r0, r7, lsl r1
    135c:	46070403 	strmi	r0, [r7], -r3, lsl #8
    1360:	03000001 	movweq	r0, #1
    1364:	00bc0801 	adcseq	r0, ip, r1, lsl #16
    1368:	04040000 	streq	r0, [r4], #-0
    136c:	0000007f 	andeq	r0, r0, pc, ror r0
    1370:	00007205 	andeq	r7, r0, r5, lsl #4
    1374:	00ca0600 	sbceq	r0, sl, r0, lsl #12
    1378:	04010000 	streq	r0, [r1], #-0
    137c:	00008848 	andeq	r8, r0, r8, asr #16
    1380:	00000028 	andeq	r0, r0, r8, lsr #32
    1384:	00ca9c01 	sbceq	r9, sl, r1, lsl #24
    1388:	5c070000 	stcpl	0, cr0, [r7], {-0}
    138c:	ac000088 	stcge	0, cr0, [r0], {136}	; 0x88
    1390:	08000000 	stmdaeq	r0, {}	; <UNPREDICTABLE>
    1394:	03055001 	movweq	r5, #20481	; 0x5001
    1398:	00009a2c 	andeq	r9, r0, ip, lsr #20
    139c:	88640900 	stmdahi	r4!, {r8, fp}^
    13a0:	00ea0000 	rsceq	r0, sl, r0
    13a4:	00c00000 	sbceq	r0, r0, r0
    13a8:	01080000 	mrseq	r0, (UNDEF: 8)
    13ac:	64080250 	strvs	r0, [r8], #-592	; 0x250
    13b0:	88680a00 	stmdahi	r8!, {r9, fp}^
    13b4:	00fb0000 	rscseq	r0, fp, r0
    13b8:	0b000000 	bleq	13c0 <_start-0x6c40>
    13bc:	00000025 	andeq	r0, r0, r5, lsr #32
    13c0:	000000d9 	ldrdeq	r0, [r0], -r9
    13c4:	0000790c 	andeq	r7, r0, ip, lsl #18
    13c8:	030d0000 	movweq	r0, #53248	; 0xd000
    13cc:	02000003 	andeq	r0, r0, #3
    13d0:	0000e422 	andeq	lr, r0, r2, lsr #8
    13d4:	ca040400 	bgt	1023dc <__bss_end__+0xf844c>
    13d8:	0e000000 	cdpeq	0, 0, cr0, cr0, cr0, {0}
    13dc:	000000c1 	andeq	r0, r0, r1, asr #1
    13e0:	00fb5002 	rscseq	r5, fp, r2
    13e4:	2c0c0000 	stccs	0, cr0, [ip], {-0}
    13e8:	00000000 	andeq	r0, r0, r0
    13ec:	0003b00f 	andeq	fp, r3, pc
    13f0:	00630200 	rsbeq	r0, r3, r0, lsl #4
    13f4:	000002dd 	ldrdeq	r0, [r0], -sp
    13f8:	06c40004 	strbeq	r0, [r4], r4
    13fc:	01040000 	mrseq	r0, (UNDEF: 4)
    1400:	00000235 	andeq	r0, r0, r5, lsr r2
    1404:	0004af01 	andeq	sl, r4, r1, lsl #30
    1408:	0002a000 	andeq	sl, r2, r0
    140c:	00887000 	addeq	r7, r8, r0
    1410:	0000b000 	andeq	fp, r0, r0
    1414:	00067900 	andeq	r7, r6, r0, lsl #18
    1418:	05040200 	streq	r0, [r4, #-512]	; 0x200
    141c:	00746e69 	rsbseq	r6, r4, r9, ror #28
    1420:	21070403 	tstcs	r7, r3, lsl #8
    1424:	03000001 	movweq	r0, #1
    1428:	00b50601 	adcseq	r0, r5, r1, lsl #12
    142c:	02030000 	andeq	r0, r3, #0
    1430:	0001cb05 	andeq	ip, r1, r5, lsl #22
    1434:	05040300 	streq	r0, [r4, #-768]	; 0x300
    1438:	00000154 	andeq	r0, r0, r4, asr r1
    143c:	4f050803 	svcmi	0x00050803
    1440:	04000001 	streq	r0, [r0], #-1
    1444:	0000012e 	andeq	r0, r0, lr, lsr #2
    1448:	005a2e02 	subseq	r2, sl, r2, lsl #28
    144c:	01030000 	mrseq	r0, (UNDEF: 3)
    1450:	0000b308 	andeq	fp, r0, r8, lsl #6
    1454:	07020300 	streq	r0, [r2, -r0, lsl #6]
    1458:	000000de 	ldrdeq	r0, [r0], -lr
    145c:	0004cf04 	andeq	ip, r4, r4, lsl #30
    1460:	73340200 	teqvc	r4, #0, 4
    1464:	03000000 	movweq	r0, #0
    1468:	011c0704 	tsteq	ip, r4, lsl #14
    146c:	08030000 	stmdaeq	r3, {}	; <UNPREDICTABLE>
    1470:	00011707 	andeq	r1, r1, r7, lsl #14
    1474:	07040300 	streq	r0, [r4, -r0, lsl #6]
    1478:	00000146 	andeq	r0, r0, r6, asr #2
    147c:	bc080103 	stflts	f0, [r8], {3}
    1480:	05000000 	streq	r0, [r0, #-0]
    1484:	00009504 	andeq	r9, r0, r4, lsl #10
    1488:	00880600 	addeq	r0, r8, r0, lsl #12
    148c:	0c070000 	stceq	0, cr0, [r7], {-0}
    1490:	00d10e03 	sbcseq	r0, r1, r3, lsl #28
    1494:	74080000 	strvc	r0, [r8], #-0
    1498:	0f030078 	svceq	0x00030078
    149c:	0000004f 	andeq	r0, r0, pc, asr #32
    14a0:	78720800 	ldmdavc	r2!, {fp}^
    14a4:	4f0f0300 	svcmi	0x000f0300
    14a8:	01000000 	mrseq	r0, (UNDEF: 0)
    14ac:	00044e09 	andeq	r4, r4, r9, lsl #28
    14b0:	68100300 	ldmdavs	r0, {r8, r9}
    14b4:	04000000 	streq	r0, [r0], #-0
    14b8:	0003ff09 	andeq	pc, r3, r9, lsl #30
    14bc:	68110300 	ldmdavs	r1, {r8, r9}
    14c0:	08000000 	stmdaeq	r0, {}	; <UNPREDICTABLE>
    14c4:	04370400 	ldrteq	r0, [r7], #-1024	; 0x400
    14c8:	12030000 	andne	r0, r3, #0
    14cc:	0000009a 	muleq	r0, sl, r0
    14d0:	1004010a 	andne	r0, r4, sl, lsl #2
    14d4:	000000f7 	strdeq	r0, [r0], -r7
    14d8:	0004530b 	andeq	r5, r4, fp, lsl #6
    14dc:	410b0100 	mrsmi	r0, (UNDEF: 27)
    14e0:	02000004 	andeq	r0, r0, #4
    14e4:	0004290b 	andeq	r2, r4, fp, lsl #18
    14e8:	04000300 	streq	r0, [r0], #-768	; 0x300
    14ec:	00000468 	andeq	r0, r0, r8, ror #8
    14f0:	00dc1004 	sbcseq	r1, ip, r4
    14f4:	14070000 	strne	r0, [r7], #-0
    14f8:	012f1404 	teqeq	pc, r4, lsl #8
    14fc:	d8090000 	stmdale	r9, {}	; <UNPREDICTABLE>
    1500:	04000004 	streq	r0, [r0], #-4
    1504:	00002c15 	andeq	r2, r0, r5, lsl ip
    1508:	c3090000 	movwgt	r0, #36864	; 0x9000
    150c:	04000004 	streq	r0, [r0], #-4
    1510:	0000f718 	andeq	pc, r0, r8, lsl r7	; <UNPREDICTABLE>
    1514:	8e090400 	cfcpyshi	mvf0, mvf9
    1518:	04000004 	streq	r0, [r0], #-4
    151c:	0000d11b 	andeq	sp, r0, fp, lsl r1
    1520:	04000800 	streq	r0, [r0], #-2048	; 0x800
    1524:	00000480 	andeq	r0, r0, r0, lsl #9
    1528:	01022004 	tsteq	r2, r4
    152c:	d50c0000 	strle	r0, [ip, #-0]
    1530:	01000003 	tsteq	r0, r3
    1534:	00002506 	andeq	r2, r0, r6, lsl #10
    1538:	00887000 	addeq	r7, r8, r0
    153c:	00002000 	andeq	r2, r0, r0
    1540:	7a9c0100 	bvc	fe701948 <__bss_end__+0xfe6f79b8>
    1544:	0d000001 	stceq	0, cr0, [r0, #-4]
    1548:	06010063 	streq	r0, [r1], -r3, rrx
    154c:	00000025 	andeq	r0, r0, r5, lsr #32
    1550:	00000c25 	andeq	r0, r0, r5, lsr #24
    1554:	0088840e 	addeq	r8, r8, lr, lsl #8
    1558:	00027a00 	andeq	r7, r2, r0, lsl #20
    155c:	51010f00 	tstpl	r1, r0, lsl #30
    1560:	0f007402 	svceq	0x00007402
    1564:	03055001 	movweq	r5, #20481	; 0x5001
    1568:	00009f80 	andeq	r9, r0, r0, lsl #31
    156c:	60100000 	andsvs	r0, r0, r0
    1570:	01000004 	tsteq	r0, r4
    1574:	0088900b 	addeq	r9, r8, fp
    1578:	00009000 	andeq	r9, r0, r0
    157c:	279c0100 	ldrcs	r0, [ip, r0, lsl #2]
    1580:	11000002 	tstne	r0, r2
    1584:	000003e9 	andeq	r0, r0, r9, ror #7
    1588:	00250c01 	eoreq	r0, r5, r1, lsl #24
    158c:	a3110000 	tstge	r1, #0
    1590:	01000004 	tsteq	r0, r4
    1594:	0000250c 	andeq	r2, r0, ip, lsl #10
    1598:	00931200 	addseq	r1, r3, r0, lsl #4
    159c:	0d010000 	stceq	0, cr0, [r1, #-0]
    15a0:	73736213 	cmnvc	r3, #805306369	; 0x30000001
    15a4:	270f0100 	strcs	r0, [pc, -r0, lsl #2]
    15a8:	43000002 	movwmi	r0, #2
    15ac:	1400000c 	strne	r0, [r0], #-12
    15b0:	000003f7 	strdeq	r0, [r0], -r7
    15b4:	02271001 	eoreq	r1, r7, #1
    15b8:	63130000 	tstvs	r3, #0
    15bc:	17010062 	strne	r0, [r1, -r2, rrx]
    15c0:	0000022d 	andeq	r0, r0, sp, lsr #4
    15c4:	00000c63 	andeq	r0, r0, r3, ror #24
    15c8:	0088b815 	addeq	fp, r8, r5, lsl r8
    15cc:	00029600 	andeq	r9, r2, r0, lsl #12
    15d0:	88f41600 	ldmhi	r4!, {r9, sl, ip}^
    15d4:	02a10000 	adceq	r0, r1, #0
    15d8:	01fd0000 	mvnseq	r0, r0
    15dc:	010f0000 	mrseq	r0, CPSR
    15e0:	38030551 	stmdacc	r3, {r0, r4, r6, r8, sl}
    15e4:	0f00009a 	svceq	0x0000009a
    15e8:	03055001 	movweq	r5, #20481	; 0x5001
    15ec:	00009f80 	andeq	r9, r0, r0, lsl #31
    15f0:	88fc1600 	ldmhi	ip!, {r9, sl, ip}^
    15f4:	02bc0000 	adcseq	r0, ip, #0
    15f8:	02140000 	andseq	r0, r4, #0
    15fc:	010f0000 	mrseq	r0, CPSR
    1600:	5c030550 	cfstr32pl	mvfx0, [r3], {80}	; 0x50
    1604:	0000009a 	muleq	r0, sl, r0
    1608:	00890015 	addeq	r0, r9, r5, lsl r0
    160c:	0002d200 	andeq	sp, r2, r0, lsl #4
    1610:	89041500 	stmdbhi	r4, {r8, sl, ip}
    1614:	02d90000 	sbcseq	r0, r9, #0
    1618:	05000000 	streq	r0, [r0, #-0]
    161c:	00002504 	andeq	r2, r0, r4, lsl #10
    1620:	2f040500 	svccs	0x00040500
    1624:	17000001 	strne	r0, [r0, -r1]
    1628:	0000040d 	andeq	r0, r0, sp, lsl #8
    162c:	00d10501 	sbcseq	r0, r1, r1, lsl #10
    1630:	03050000 	movweq	r0, #20480	; 0x5000
    1634:	00009f80 	andeq	r9, r0, r0, lsl #31
    1638:	00002518 	andeq	r2, r0, r8, lsl r5
    163c:	00025300 	andeq	r5, r2, r0, lsl #6
    1640:	00251900 	eoreq	r1, r5, r0, lsl #18
    1644:	11000000 	mrsne	r0, (UNDEF: 0)
    1648:	00000308 	andeq	r0, r0, r8, lsl #6
    164c:	025e1d05 	subseq	r1, lr, #320	; 0x140
    1650:	04050000 	streq	r0, [r5], #-0
    1654:	00000244 	andeq	r0, r0, r4, asr #4
    1658:	0003e911 	andeq	lr, r3, r1, lsl r9
    165c:	250c0100 	strcs	r0, [ip, #-256]	; 0x100
    1660:	11000000 	mrsne	r0, (UNDEF: 0)
    1664:	000004a3 	andeq	r0, r0, r3, lsr #9
    1668:	00250c01 	eoreq	r0, r5, r1, lsl #24
    166c:	731a0000 	tstvc	sl, #0
    1670:	03000004 	movweq	r0, #4
    1674:	00029044 	andeq	r9, r2, r4, asr #32
    1678:	02901900 	addseq	r1, r0, #0, 18
    167c:	5a190000 	bpl	641684 <__bss_end__+0x6376f4>
    1680:	00000000 	andeq	r0, r0, r0
    1684:	00d10405 	sbcseq	r0, r1, r5, lsl #8
    1688:	961b0000 	ldrls	r0, [fp], -r0
    168c:	04000004 	streq	r0, [r0], #-4
    1690:	00022d2a 	andeq	r2, r2, sl, lsr #26
    1694:	041a1c00 	ldreq	r1, [sl], #-3072	; 0xc00
    1698:	15030000 	strne	r0, [r3, #-0]
    169c:	00000025 	andeq	r0, r0, r5, lsr #32
    16a0:	000002bc 			; <UNDEFINED> instruction: 0x000002bc
    16a4:	00029019 	andeq	r9, r2, r9, lsl r0
    16a8:	008f1900 	addeq	r1, pc, r0, lsl #18
    16ac:	001d0000 	andseq	r0, sp, r0
    16b0:	00028f1c 	andeq	r8, r2, ip, lsl pc
    16b4:	25290500 	strcs	r0, [r9, #-1280]!	; 0x500
    16b8:	d2000000 	andle	r0, r0, #0
    16bc:	19000002 	stmdbne	r0, {r1}
    16c0:	0000008f 	andeq	r0, r0, pc, lsl #1
    16c4:	9312001d 	tstls	r2, #29
    16c8:	05000000 	streq	r0, [r0, #-0]
    16cc:	03b012d1 	movseq	r1, #268435469	; 0x1000000d
    16d0:	63050000 	movwvs	r0, #20480	; 0x5000
    16d4:	0001ad00 	andeq	sl, r1, r0, lsl #26
    16d8:	5b000400 	blpl	26e0 <_start-0x5920>
    16dc:	04000008 	streq	r0, [r0], #-8
    16e0:	00023501 	andeq	r3, r2, r1, lsl #10
    16e4:	04f80100 	ldrbteq	r0, [r8], #256	; 0x100
    16e8:	02a00000 	adceq	r0, r0, #0
    16ec:	02680000 	rsbeq	r0, r8, #0
    16f0:	00000000 	andeq	r0, r0, r0
    16f4:	079e0000 	ldreq	r0, [lr, r0]
    16f8:	04020000 	streq	r0, [r2], #-0
    16fc:	746e6905 	strbtvc	r6, [lr], #-2309	; 0x905
    1700:	07040300 	streq	r0, [r4, -r0, lsl #6]
    1704:	00000121 	andeq	r0, r0, r1, lsr #2
    1708:	b5060103 	strlt	r0, [r6, #-259]	; 0x103
    170c:	03000000 	movweq	r0, #0
    1710:	01cb0502 	biceq	r0, fp, r2, lsl #10
    1714:	04030000 	streq	r0, [r3], #-0
    1718:	00015405 	andeq	r5, r1, r5, lsl #8
    171c:	05080300 	streq	r0, [r8, #-768]	; 0x300
    1720:	0000014f 	andeq	r0, r0, pc, asr #2
    1724:	b3080103 	movwlt	r0, #33027	; 0x8103
    1728:	03000000 	movweq	r0, #0
    172c:	00de0702 	sbcseq	r0, lr, r2, lsl #14
    1730:	04030000 	streq	r0, [r3], #-0
    1734:	00011c07 	andeq	r1, r1, r7, lsl #24
    1738:	07080300 	streq	r0, [r8, -r0, lsl #6]
    173c:	00000117 	andeq	r0, r0, r7, lsl r1
    1740:	46070403 	strmi	r0, [r7], -r3, lsl #8
    1744:	03000001 	movweq	r0, #1
    1748:	00bc0801 	adcseq	r0, ip, r1, lsl #16
    174c:	de040000 	cdple	0, 0, cr0, cr4, cr0, {0}
    1750:	01000004 	tsteq	r0, r4
    1754:	0000250e 	andeq	r2, r0, lr, lsl #10
    1758:	00892000 	addeq	r2, r9, r0
    175c:	00001800 	andeq	r1, r0, r0, lsl #16
    1760:	a29c0100 	addsge	r0, ip, #0, 2
    1764:	05000000 	streq	r0, [r0, #-0]
    1768:	0000054a 	andeq	r0, r0, sl, asr #10
    176c:	002c0f01 	eoreq	r0, ip, r1, lsl #30
    1770:	0c830000 	stceq	0, cr0, [r3], {0}
    1774:	06000000 	streq	r0, [r0], -r0
    1778:	0000052d 	andeq	r0, r0, sp, lsr #10
    177c:	89381701 	ldmdbhi	r8!, {r0, r8, r9, sl, ip}
    1780:	00140000 	andseq	r0, r4, r0
    1784:	9c010000 	stcls	0, cr0, [r1], {-0}
    1788:	000000c7 	andeq	r0, r0, r7, asr #1
    178c:	00054a05 	andeq	r4, r5, r5, lsl #20
    1790:	2c180100 	ldfcss	f0, [r8], {-0}
    1794:	a2000000 	andge	r0, r0, #0
    1798:	0000000c 	andeq	r0, r0, ip
    179c:	0003b006 	andeq	fp, r3, r6
    17a0:	4c1f0100 	ldfmis	f0, [pc], {-0}
    17a4:	48000089 	stmdami	r0, {r0, r3, r7}
    17a8:	01000000 	mrseq	r0, (UNDEF: 0)
    17ac:	0001779c 	muleq	r1, ip, r7
    17b0:	05420700 	strbeq	r0, [r2, #-1792]	; 0x700
    17b4:	2a010000 	bcs	417bc <__bss_end__+0x3782c>
    17b8:	00000177 	andeq	r0, r0, r7, ror r1
    17bc:	2010001c 	andscs	r0, r0, ip, lsl r0
    17c0:	00052507 	andeq	r2, r5, r7, lsl #10
    17c4:	772b0100 	strvc	r0, [fp, -r0, lsl #2]!
    17c8:	24000001 	strcs	r0, [r0], #-1
    17cc:	07201000 	streq	r1, [r0, -r0]!
    17d0:	000004ec 	andeq	r0, r0, ip, ror #9
    17d4:	01772c01 	cmneq	r7, r1, lsl #24
    17d8:	00000000 	andeq	r0, r0, r0
    17dc:	0c085a00 	stceq	10, cr5, [r8], {-0}
    17e0:	01000005 	tsteq	r0, r5
    17e4:	0001772d 	andeq	r7, r1, sp, lsr #14
    17e8:	54092000 	strpl	r2, [r9], #-0
    17ec:	79000089 	stmdbvc	r0, {r0, r3, r7}
    17f0:	09000000 	stmdbeq	r0, {}	; <UNPREDICTABLE>
    17f4:	00008960 	andeq	r8, r0, r0, ror #18
    17f8:	000000a2 	andeq	r0, r0, r2, lsr #1
    17fc:	0089680a 	addeq	r6, r9, sl, lsl #16
    1800:	00018d00 	andeq	r8, r1, r0, lsl #26
    1804:	00013a00 	andeq	r3, r1, r0, lsl #20
    1808:	50010b00 	andpl	r0, r1, r0, lsl #22
    180c:	0a004e01 	beq	15018 <__bss_end__+0xb088>
    1810:	00008974 	andeq	r8, r0, r4, ror r9
    1814:	0000019e 	muleq	r0, lr, r1
    1818:	0000015a 	andeq	r0, r0, sl, asr r1
    181c:	0551010b 	ldrbeq	r0, [r1, #-267]	; 0x10b
    1820:	0000010c 	andeq	r0, r0, ip, lsl #2
    1824:	50010b5a 	andpl	r0, r1, sl, asr fp
    1828:	00240c05 	eoreq	r0, r4, r5, lsl #24
    182c:	0c002010 	stceq	0, cr2, [r0], {16}
    1830:	00008980 	andeq	r8, r0, r0, lsl #19
    1834:	0000019e 	muleq	r0, lr, r1
    1838:	0551010b 	ldrbeq	r0, [r1, #-267]	; 0x10b
    183c:	0000200c 	andeq	r2, r0, ip
    1840:	50010b5a 	andpl	r0, r1, sl, asr fp
    1844:	001c0c05 	andseq	r0, ip, r5, lsl #24
    1848:	00002010 	andeq	r2, r0, r0, lsl r0
    184c:	0000250d 	andeq	r2, r0, sp, lsl #10
    1850:	04e10800 	strbteq	r0, [r1], #2048	; 0x800
    1854:	0d010000 	stceq	0, cr0, [r1, #-0]
    1858:	00000188 	andeq	r0, r0, r8, lsl #3
    185c:	002c0d10 	eoreq	r0, ip, r0, lsl sp
    1860:	c10e0000 	mrsgt	r0, (UNDEF: 14)
    1864:	02000000 	andeq	r0, r0, #0
    1868:	00019e50 	andeq	r9, r1, r0, asr lr
    186c:	002c0f00 	eoreq	r0, ip, r0, lsl #30
    1870:	10000000 	andne	r0, r0, r0
    1874:	0000053c 	andeq	r0, r0, ip, lsr r5
    1878:	2c0f9c02 	stccs	12, cr9, [pc], {2}
    187c:	0f000000 	svceq	0x00000000
    1880:	0000002c 	andeq	r0, r0, ip, lsr #32
    1884:	01d80000 	bicseq	r0, r8, r0
    1888:	00040000 	andeq	r0, r4, r0
    188c:	00000949 	andeq	r0, r0, r9, asr #18
    1890:	02350104 	eorseq	r0, r5, #4, 2
    1894:	6c010000 	stcvs	0, cr0, [r1], {-0}
    1898:	a0000005 	andge	r0, r0, r5
    189c:	94000002 	strls	r0, [r0], #-2
    18a0:	88000089 	stmdahi	r0, {r0, r3, r7}
    18a4:	3b000000 	blcc	18ac <_start-0x6754>
    18a8:	02000008 	andeq	r0, r0, #8
    18ac:	6e690504 	cdpvs	5, 6, cr0, cr9, cr4, {0}
    18b0:	04030074 	streq	r0, [r3], #-116	; 0x74
    18b4:	00012107 	andeq	r2, r1, r7, lsl #2
    18b8:	06010300 	streq	r0, [r1], -r0, lsl #6
    18bc:	000000b5 	strheq	r0, [r0], -r5
    18c0:	cb050203 	blgt	1420d4 <__bss_end__+0x138144>
    18c4:	03000001 	movweq	r0, #1
    18c8:	01540504 	cmpeq	r4, r4, lsl #10
    18cc:	08030000 	stmdaeq	r3, {}	; <UNPREDICTABLE>
    18d0:	00014f05 	andeq	r4, r1, r5, lsl #30
    18d4:	08010300 	stmdaeq	r1, {r8, r9}
    18d8:	000000b3 	strheq	r0, [r0], -r3
    18dc:	de070203 	cdple	2, 0, cr0, cr7, cr3, {0}
    18e0:	03000000 	movweq	r0, #0
    18e4:	011c0704 	tsteq	ip, r4, lsl #14
    18e8:	08030000 	stmdaeq	r3, {}	; <UNPREDICTABLE>
    18ec:	00011707 	andeq	r1, r1, r7, lsl #14
    18f0:	07040300 	streq	r0, [r4, -r0, lsl #6]
    18f4:	00000146 	andeq	r0, r0, r6, asr #2
    18f8:	bc080103 	stflts	f0, [r8], {3}
    18fc:	04000000 	streq	r0, [r0], #-0
    1900:	0000058b 	andeq	r0, r0, fp, lsl #11
    1904:	89940501 	ldmibhi	r4, {r0, r8, sl}
    1908:	001c0000 	andseq	r0, ip, r0
    190c:	9c010000 	stcls	0, cr0, [r1], {-0}
    1910:	0000009e 	muleq	r0, lr, r0
    1914:	00058505 	andeq	r8, r5, r5, lsl #10
    1918:	2c050100 	stfcss	f0, [r5], {-0}
    191c:	cc000000 	stcgt	0, cr0, [r0], {-0}
    1920:	0000000c 	andeq	r0, r0, ip
    1924:	00054f06 	andeq	r4, r5, r6, lsl #30
    1928:	2c0b0100 	stfcss	f0, [fp], {-0}
    192c:	b0000000 	andlt	r0, r0, r0
    1930:	14000089 	strne	r0, [r0], #-137	; 0x89
    1934:	01000000 	mrseq	r0, (UNDEF: 0)
    1938:	0000cb9c 	muleq	r0, ip, fp
    193c:	89bc0700 	ldmibhi	ip!, {r8, r9, sl}
    1940:	01ca0000 	biceq	r0, sl, r0
    1944:	01080000 	mrseq	r0, (UNDEF: 8)
    1948:	040c0550 	streq	r0, [ip], #-1360	; 0x550
    194c:	00200030 	eoreq	r0, r0, r0, lsr r0
    1950:	05a10600 	streq	r0, [r1, #1536]!	; 0x600
    1954:	10010000 	andne	r0, r1, r0
    1958:	0000002c 	andeq	r0, r0, ip, lsr #32
    195c:	000089c4 	andeq	r8, r0, r4, asr #19
    1960:	0000000c 	andeq	r0, r0, ip
    1964:	00f99c01 	rscseq	r9, r9, r1, lsl #24
    1968:	75090000 	strvc	r0, [r9, #-0]
    196c:	2c140100 	ldfcss	f0, [r4], {-0}
    1970:	01000000 	mrseq	r0, (UNDEF: 0)
    1974:	89cc0a50 	stmibhi	ip, {r4, r6, r9, fp}^
    1978:	009e0000 	addseq	r0, lr, r0
    197c:	04000000 	streq	r0, [r0], #-0
    1980:	00000598 	muleq	r0, r8, r5
    1984:	89d01901 	ldmibhi	r0, {r0, r8, fp, ip}^
    1988:	00240000 	eoreq	r0, r4, r0
    198c:	9c010000 	stcls	0, cr0, [r1], {-0}
    1990:	00000157 	andeq	r0, r0, r7, asr r1
    1994:	0073750b 	rsbseq	r7, r3, fp, lsl #10
    1998:	002c1901 	eoreq	r1, ip, r1, lsl #18
    199c:	0d000000 	stceq	0, cr0, [r0, #-0]
    19a0:	72090000 	andvc	r0, r9, #0
    19a4:	1a010062 	bne	41b34 <__bss_end__+0x37ba4>
    19a8:	0000002c 	andeq	r0, r0, ip, lsr #32
    19ac:	e00c5401 	and	r5, ip, r1, lsl #8
    19b0:	10000089 	andne	r0, r0, r9, lsl #1
    19b4:	4d000000 	stcmi	0, cr0, [r0, #-0]
    19b8:	0d000001 	stceq	0, cr0, [r0, #-4]
    19bc:	01006172 	tsteq	r0, r2, ror r1
    19c0:	00002c1c 	andeq	r2, r0, ip, lsl ip
    19c4:	000d1e00 	andeq	r1, sp, r0, lsl #28
    19c8:	89e40a00 	stmibhi	r4!, {r9, fp}^
    19cc:	00cb0000 	sbceq	r0, fp, r0
    19d0:	0a000000 	beq	19d8 <_start-0x6628>
    19d4:	000089dc 	ldrdeq	r8, [r0], -ip
    19d8:	000000cb 	andeq	r0, r0, fp, asr #1
    19dc:	00c10400 	sbceq	r0, r1, r0, lsl #8
    19e0:	22010000 	andcs	r0, r1, #0
    19e4:	000089f4 	strdeq	r8, [r0], -r4
    19e8:	00000014 	andeq	r0, r0, r4, lsl r0
    19ec:	01909c01 	orrseq	r9, r0, r1, lsl #24
    19f0:	6d0b0000 	stcvs	0, cr0, [fp, #-0]
    19f4:	22010073 	andcs	r0, r1, #115	; 0x73
    19f8:	0000002c 	andeq	r0, r0, ip, lsr #32
    19fc:	00000d31 	andeq	r0, r0, r1, lsr sp
    1a00:	008a0407 	addeq	r0, sl, r7, lsl #8
    1a04:	0000f900 	andeq	pc, r0, r0, lsl #18
    1a08:	50010800 	andpl	r0, r1, r0, lsl #16
    1a0c:	5001f307 	andpl	pc, r1, r7, lsl #6
    1a10:	1e03e80a 	cdpne	8, 0, cr14, cr3, cr10, {0}
    1a14:	62040000 	andvs	r0, r4, #0
    1a18:	01000005 	tsteq	r0, r5
    1a1c:	008a0825 	addeq	r0, sl, r5, lsr #16
    1a20:	00001400 	andeq	r1, r0, r0, lsl #8
    1a24:	ca9c0100 	bgt	fe701e2c <__bss_end__+0xfe6f7e9c>
    1a28:	0b000001 	bleq	1a34 <_start-0x65cc>
    1a2c:	00636573 	rsbeq	r6, r3, r3, ror r5
    1a30:	002c2501 	eoreq	r2, ip, r1, lsl #10
    1a34:	0d520000 	ldcleq	0, cr0, [r2, #-0]
    1a38:	18070000 	stmdane	r7, {}	; <UNPREDICTABLE>
    1a3c:	5700008a 	strpl	r0, [r0, -sl, lsl #1]
    1a40:	08000001 	stmdaeq	r0, {r0}
    1a44:	f3075001 	vhadd.u8	d5, d7, d1
    1a48:	e80a5001 	stmda	sl, {r0, ip, lr}
    1a4c:	00001e03 	andeq	r1, r0, r3, lsl #28
    1a50:	00057f0e 	andeq	r7, r5, lr, lsl #30
    1a54:	2ca80200 	sfmcs	f0, 4, [r8]
    1a58:	0f000000 	svceq	0x00000000
    1a5c:	0000002c 	andeq	r0, r0, ip, lsr #32
    1a60:	08820000 	stmeq	r2, {}	; <UNPREDICTABLE>
    1a64:	00040000 	andeq	r0, r4, r0
    1a68:	00000a2c 	andeq	r0, r0, ip, lsr #20
    1a6c:	02350104 	eorseq	r0, r5, #4, 2
    1a70:	f4010000 	vst4.8	{d0-d3}, [r1], r0
    1a74:	a0000005 	andge	r0, r0, r5
    1a78:	1c000002 	stcne	0, cr0, [r0], {2}
    1a7c:	a000008a 	andge	r0, r0, sl, lsl #1
    1a80:	e2000005 	and	r0, r0, #5
    1a84:	02000008 	andeq	r0, r0, #8
    1a88:	01170708 	tsteq	r7, r8, lsl #14
    1a8c:	04020000 	streq	r0, [r2], #-0
    1a90:	00012107 	andeq	r2, r1, r7, lsl #2
    1a94:	06010200 	streq	r0, [r1], -r0, lsl #4
    1a98:	000000b5 	strheq	r0, [r0], -r5
    1a9c:	cb050202 	blgt	1422ac <__bss_end__+0x13831c>
    1aa0:	02000001 	andeq	r0, r0, #1
    1aa4:	01540504 	cmpeq	r4, r4, lsl #10
    1aa8:	08020000 	stmdaeq	r2, {}	; <UNPREDICTABLE>
    1aac:	00014f05 	andeq	r4, r1, r5, lsl #30
    1ab0:	08010200 	stmdaeq	r1, {r9}
    1ab4:	000000b3 	strheq	r0, [r0], -r3
    1ab8:	de070202 	cdple	2, 0, cr0, cr7, cr2, {0}
    1abc:	02000000 	andeq	r0, r0, #0
    1ac0:	011c0704 	tsteq	ip, r4, lsl #14
    1ac4:	04030000 	streq	r0, [r3], #-0
    1ac8:	746e6905 	strbtvc	r6, [lr], #-2309	; 0x905
    1acc:	07040200 	streq	r0, [r4, -r0, lsl #4]
    1ad0:	00000146 	andeq	r0, r0, r6, asr #2
    1ad4:	bc080102 	stflts	f0, [r8], {2}
    1ad8:	04000000 	streq	r0, [r0], #-0
    1adc:	b20c0201 	andlt	r0, ip, #268435456	; 0x10000000
    1ae0:	05000000 	streq	r0, [r0, #-0]
    1ae4:	000005e4 	andeq	r0, r0, r4, ror #11
    1ae8:	06d90500 	ldrbeq	r0, [r9], r0, lsl #10
    1aec:	05010000 	streq	r0, [r1, #-0]
    1af0:	00000712 	andeq	r0, r0, r2, lsl r7
    1af4:	07210504 	streq	r0, [r1, -r4, lsl #10]!
    1af8:	05050000 	streq	r0, [r5, #-0]
    1afc:	00000730 	andeq	r0, r0, r0, lsr r7
    1b00:	073f0506 	ldreq	r0, [pc, -r6, lsl #10]!
    1b04:	05070000 	streq	r0, [r7, #-0]
    1b08:	0000074e 	andeq	r0, r0, lr, asr #14
    1b0c:	075d0503 	ldrbeq	r0, [sp, -r3, lsl #10]
    1b10:	00020000 	andeq	r0, r2, r0
    1b14:	00070606 	andeq	r0, r7, r6, lsl #12
    1b18:	79150200 	ldmdbvc	r5, {r9}
    1b1c:	07000000 	streq	r0, [r0, -r0]
    1b20:	000000ff 	strdeq	r0, [r0], -pc	; <UNPREDICTABLE>
    1b24:	8a1c3f01 	bhi	711730 <__bss_end__+0x7077a0>
    1b28:	00d40000 	sbcseq	r0, r4, r0
    1b2c:	9c010000 	stcls	0, cr0, [r1], {-0}
    1b30:	00000133 	andeq	r0, r0, r3, lsr r1
    1b34:	6e697008 	cdpvs	0, 6, cr7, cr9, cr8, {0}
    1b38:	2c3f0100 	ldfcss	f0, [pc], #-0	; 1b40 <_start-0x64c0>
    1b3c:	73000000 	movwvc	r0, #0
    1b40:	0900000d 	stmdbeq	r0, {r0, r2, r3}
    1b44:	00000614 	andeq	r0, r0, r4, lsl r6
    1b48:	01334701 	teqeq	r3, r1, lsl #14
    1b4c:	0d910000 	ldceq	0, cr0, [r1]
    1b50:	6c090000 	stcvs	0, cr0, [r9], {-0}
    1b54:	01000007 	tsteq	r0, r7
    1b58:	00002c49 	andeq	r2, r0, r9, asr #24
    1b5c:	000de600 	andeq	lr, sp, r0, lsl #12
    1b60:	06950900 	ldreq	r0, [r5], r0, lsl #18
    1b64:	57010000 	strpl	r0, [r1, -r0]
    1b68:	0000002c 	andeq	r0, r0, ip, lsr #32
    1b6c:	00000fb2 			; <UNDEFINED> instruction: 0x00000fb2
    1b70:	008ab00a 	addeq	fp, sl, sl
    1b74:	00084100 	andeq	r4, r8, r0, lsl #2
    1b78:	00012200 	andeq	r2, r1, r0, lsl #4
    1b7c:	50010b00 	andpl	r0, r1, r0, lsl #22
    1b80:	00007502 	andeq	r7, r0, r2, lsl #10
    1b84:	008ae40c 	addeq	lr, sl, ip, lsl #8
    1b88:	00086200 	andeq	r6, r8, r0, lsl #4
    1b8c:	50010b00 	andpl	r0, r1, r0, lsl #22
    1b90:	00007502 	andeq	r7, r0, r2, lsl #10
    1b94:	39040d00 	stmdbcc	r4, {r8, sl, fp}
    1b98:	0e000001 	cdpeq	0, 0, cr0, cr0, cr1, {0}
    1b9c:	0000002c 	andeq	r0, r0, ip, lsr #32
    1ba0:	0000a707 	andeq	sl, r0, r7, lsl #14
    1ba4:	f0600100 			; <UNDEFINED> instruction: 0xf0600100
    1ba8:	3800008a 	stmdacc	r0, {r1, r3, r7}
    1bac:	01000000 	mrseq	r0, (UNDEF: 0)
    1bb0:	0001969c 	muleq	r1, ip, r6
    1bb4:	69700800 	ldmdbvs	r0!, {fp}^
    1bb8:	6001006e 	andvs	r0, r1, lr, rrx
    1bbc:	0000002c 	andeq	r0, r0, ip, lsr #32
    1bc0:	00000fe2 	andeq	r0, r0, r2, ror #31
    1bc4:	00061409 	andeq	r1, r6, r9, lsl #8
    1bc8:	33670100 	cmncc	r7, #0, 2
    1bcc:	03000001 	movweq	r0, #1
    1bd0:	09000010 	stmdbeq	r0, {r4}
    1bd4:	00000695 	muleq	r0, r5, r6
    1bd8:	002c6801 	eoreq	r6, ip, r1, lsl #16
    1bdc:	10390000 	eorsne	r0, r9, r0
    1be0:	200c0000 	andcs	r0, ip, r0
    1be4:	6200008b 	andvs	r0, r0, #139	; 0x8b
    1be8:	0b000008 	bleq	1c10 <_start-0x63f0>
    1bec:	31075101 	tstcc	r7, r1, lsl #2
    1bf0:	4f5001f3 	svcmi	0x005001f3
    1bf4:	0000241a 	andeq	r2, r0, sl, lsl r4
    1bf8:	00016207 	andeq	r6, r1, r7, lsl #4
    1bfc:	287b0100 	ldmdacs	fp!, {r8}^
    1c00:	3800008b 	stmdacc	r0, {r0, r1, r3, r7}
    1c04:	01000000 	mrseq	r0, (UNDEF: 0)
    1c08:	0001ee9c 	muleq	r1, ip, lr
    1c0c:	69700800 	ldmdbvs	r0!, {fp}^
    1c10:	7b01006e 	blvc	41dd0 <__bss_end__+0x37e40>
    1c14:	0000002c 	andeq	r0, r0, ip, lsr #32
    1c18:	00001079 	andeq	r1, r0, r9, ror r0
    1c1c:	00061409 	andeq	r1, r6, r9, lsl #8
    1c20:	33810100 	orrcc	r0, r1, #0, 2
    1c24:	9a000001 	bls	1c30 <_start-0x63d0>
    1c28:	09000010 	stmdbeq	r0, {r4}
    1c2c:	00000695 	muleq	r0, r5, r6
    1c30:	002c8201 	eoreq	r8, ip, r1, lsl #4
    1c34:	10d00000 	sbcsne	r0, r0, r0
    1c38:	580c0000 	stmdapl	ip, {}	; <UNPREDICTABLE>
    1c3c:	6200008b 	andvs	r0, r0, #139	; 0x8b
    1c40:	0b000008 	bleq	1c68 <_start-0x6398>
    1c44:	31075101 	tstcc	r7, r1, lsl #2
    1c48:	4f5001f3 	svcmi	0x005001f3
    1c4c:	0000241a 	andeq	r2, r0, sl, lsl r4
    1c50:	0006a207 	andeq	sl, r6, r7, lsl #4
    1c54:	60950100 	addsvs	r0, r5, r0, lsl #2
    1c58:	cc00008b 	stcgt	0, cr0, [r0], {139}	; 0x8b
    1c5c:	01000000 	mrseq	r0, (UNDEF: 0)
    1c60:	0002649c 	muleq	r2, ip, r4
    1c64:	69700800 	ldmdbvs	r0!, {fp}^
    1c68:	9501006e 	strls	r0, [r1, #-110]	; 0x6e
    1c6c:	0000002c 	andeq	r0, r0, ip, lsr #32
    1c70:	00001110 	andeq	r1, r0, r0, lsl r1
    1c74:	00061409 	andeq	r1, r6, r9, lsl #8
    1c78:	339b0100 	orrscc	r0, fp, #0, 2
    1c7c:	2e000001 	cdpcs	0, 0, cr0, cr0, cr1, {0}
    1c80:	09000011 	stmdbeq	r0, {r0, r4}
    1c84:	0000076c 	andeq	r0, r0, ip, ror #14
    1c88:	002c9d01 	eoreq	r9, ip, r1, lsl #26
    1c8c:	11830000 	orrne	r0, r3, r0
    1c90:	95090000 	strls	r0, [r9, #-0]
    1c94:	01000006 	tsteq	r0, r6
    1c98:	00002cab 	andeq	r2, r0, fp, lsr #25
    1c9c:	00134f00 	andseq	r4, r3, r0, lsl #30
    1ca0:	8bf40a00 	blhi	ffd044a8 <__bss_end__+0xffcfa518>
    1ca4:	08410000 	stmdaeq	r1, {}^	; <UNPREDICTABLE>
    1ca8:	02530000 	subseq	r0, r3, #0
    1cac:	010b0000 	mrseq	r0, (UNDEF: 11)
    1cb0:	00750250 	rsbseq	r0, r5, r0, asr r2
    1cb4:	8c200c00 	stchi	12, cr0, [r0], #-0
    1cb8:	08620000 	stmdaeq	r2!, {}^	; <UNPREDICTABLE>
    1cbc:	010b0000 	mrseq	r0, (UNDEF: 11)
    1cc0:	00750250 	rsbseq	r0, r5, r0, asr r2
    1cc4:	290f0000 	stmdbcs	pc, {}	; <UNPREDICTABLE>
    1cc8:	01000006 	tsteq	r0, r6
    1ccc:	000064b3 			; <UNDEFINED> instruction: 0x000064b3
    1cd0:	008c2c00 	addeq	r2, ip, r0, lsl #24
    1cd4:	00004c00 	andeq	r4, r0, r0, lsl #24
    1cd8:	ac9c0100 	ldfges	f0, [ip], {0}
    1cdc:	08000002 	stmdaeq	r0, {r1}
    1ce0:	006e6970 	rsbeq	r6, lr, r0, ror r9
    1ce4:	002cb301 	eoreq	fp, ip, r1, lsl #6
    1ce8:	136d0000 	cmnne	sp, #0
    1cec:	76100000 	ldrvc	r0, [r0], -r0
    1cf0:	2cb90100 	ldfcss	f0, [r9]
    1cf4:	c5000000 	strgt	r0, [r0, #-0]
    1cf8:	11000013 	tstne	r0, r3, lsl r0
    1cfc:	00008c4c 	andeq	r8, r0, ip, asr #24
    1d00:	00000841 	andeq	r0, r0, r1, asr #16
    1d04:	008c5c11 	addeq	r5, ip, r1, lsl ip
    1d08:	00084100 	andeq	r4, r8, r0, lsl #2
    1d0c:	3b070000 	blcc	1c1d14 <__bss_end__+0x1b7d84>
    1d10:	01000001 	tsteq	r0, r1
    1d14:	008c78c5 	addeq	r7, ip, r5, asr #17
    1d18:	00002400 	andeq	r2, r0, r0, lsl #8
    1d1c:	fc9c0100 	ldc2	1, cr0, [ip], {0}
    1d20:	08000002 	stmdaeq	r0, {r1}
    1d24:	006e6970 	rsbeq	r6, lr, r0, ror r9
    1d28:	002cc501 	eoreq	ip, ip, r1, lsl #10
    1d2c:	13fb0000 	mvnsne	r0, #0
    1d30:	76080000 	strvc	r0, [r8], -r0
    1d34:	2cc50100 	stfcse	f0, [r5], {0}
    1d38:	35000000 	strcc	r0, [r0, #-0]
    1d3c:	0a000014 	beq	1d94 <_start-0x626c>
    1d40:	00008c90 	muleq	r0, r0, ip
    1d44:	0000013e 	andeq	r0, r0, lr, lsr r1
    1d48:	000002f2 	strdeq	r0, [r0], -r2
    1d4c:	0350010b 	cmpeq	r0, #-1073741822	; 0xc0000002
    1d50:	005001f3 	ldrsheq	r0, [r0], #-19	; 0xffffffed
    1d54:	008c9811 	addeq	r9, ip, r1, lsl r8
    1d58:	00019600 	andeq	r9, r1, r0, lsl #12
    1d5c:	48070000 	stmdami	r7, {}	; <UNPREDICTABLE>
    1d60:	01000006 	tsteq	r0, r6
    1d64:	008c9cd1 	ldrdeq	r9, [ip], r1
    1d68:	0000d800 	andeq	sp, r0, r0, lsl #16
    1d6c:	819c0100 	orrshi	r0, ip, r0, lsl #2
    1d70:	08000003 	stmdaeq	r0, {r0, r1}
    1d74:	006e6970 	rsbeq	r6, lr, r0, ror r9
    1d78:	002cd101 	eoreq	sp, ip, r1, lsl #2
    1d7c:	146f0000 	strbtne	r0, [pc], #-0	; 1d84 <_start-0x627c>
    1d80:	9d120000 	ldcls	0, cr0, [r2, #-0]
    1d84:	01000006 	tsteq	r0, r6
    1d88:	0000b2d1 	ldrdeq	fp, [r0], -r1
    1d8c:	00148d00 	andseq	r8, r4, r0, lsl #26
    1d90:	06140900 	ldreq	r0, [r4], -r0, lsl #18
    1d94:	d9010000 	stmdble	r1, {}	; <UNPREDICTABLE>
    1d98:	00000133 	andeq	r0, r0, r3, lsr r1
    1d9c:	000014ae 	andeq	r1, r0, lr, lsr #9
    1da0:	00076c09 	andeq	r6, r7, r9, lsl #24
    1da4:	2cda0100 	ldfcse	f0, [sl], {0}
    1da8:	03000000 	movweq	r0, #0
    1dac:	09000015 	stmdbeq	r0, {r0, r2, r4}
    1db0:	00000695 	muleq	r0, r5, r6
    1db4:	002ce801 	eoreq	lr, ip, r1, lsl #16
    1db8:	16cf0000 	strbne	r0, [pc], r0
    1dbc:	380a0000 	stmdacc	sl, {}	; <UNPREDICTABLE>
    1dc0:	4100008d 	smlabbmi	r0, sp, r0, r0
    1dc4:	70000008 	andvc	r0, r0, r8
    1dc8:	0b000003 	bleq	1ddc <_start-0x6224>
    1dcc:	76025001 	strvc	r5, [r2], -r1
    1dd0:	680c0000 	stmdavs	ip, {}	; <UNPREDICTABLE>
    1dd4:	6200008d 	andvs	r0, r0, #141	; 0x8d
    1dd8:	0b000008 	bleq	1e00 <_start-0x6200>
    1ddc:	76025001 	strvc	r5, [r2], -r1
    1de0:	07000000 	streq	r0, [r0, -r0]
    1de4:	000006b1 			; <UNDEFINED> instruction: 0x000006b1
    1de8:	8d74f101 	ldfhip	f7, [r4, #-4]!
    1dec:	00380000 	eorseq	r0, r8, r0
    1df0:	9c010000 	stcls	0, cr0, [r1], {-0}
    1df4:	000003d9 	ldrdeq	r0, [r0], -r9
    1df8:	6e697008 	cdpvs	0, 6, cr7, cr9, cr8, {0}
    1dfc:	2cf10100 	ldfcse	f0, [r1]
    1e00:	00000000 	andeq	r0, r0, r0
    1e04:	09000017 	stmdbeq	r0, {r0, r1, r2, r4}
    1e08:	00000614 	andeq	r0, r0, r4, lsl r6
    1e0c:	0133f701 	teqeq	r3, r1, lsl #14
    1e10:	17210000 	strne	r0, [r1, -r0]!
    1e14:	95090000 	strls	r0, [r9, #-0]
    1e18:	01000006 	tsteq	r0, r6
    1e1c:	00002cf8 	strdeq	r2, [r0], -r8
    1e20:	00175700 	andseq	r5, r7, r0, lsl #14
    1e24:	8da40c00 	stchi	12, cr0, [r4]
    1e28:	08620000 	stmdaeq	r2!, {}^	; <UNPREDICTABLE>
    1e2c:	010b0000 	mrseq	r0, (UNDEF: 11)
    1e30:	f3310751 	vaba.u<illegal width 64>	q0, <illegal reg q0.5>, <illegal reg q0.5>
    1e34:	1a4f5001 	bne	13d5e40 <__bss_end__+0x13cbeb0>
    1e38:	13000024 	movwne	r0, #36	; 0x24
    1e3c:	000005d8 	ldrdeq	r0, [r0], -r8
    1e40:	64011f01 	strvs	r1, [r1], #-3841	; 0xf01
    1e44:	ac000000 	stcge	0, cr0, [r0], {-0}
    1e48:	2c00008d 	stccs	0, cr0, [r0], {141}	; 0x8d
    1e4c:	01000000 	mrseq	r0, (UNDEF: 0)
    1e50:	00040d9c 	muleq	r4, ip, sp
    1e54:	05db1400 	ldrbeq	r1, [fp, #1024]	; 0x400
    1e58:	1f010000 	svcne	0x00010000
    1e5c:	00002c01 	andeq	r2, r0, r1, lsl #24
    1e60:	00179700 	andseq	r9, r7, r0, lsl #14
    1e64:	8dbc1100 	ldfhis	f1, [ip]
    1e68:	08410000 	stmdaeq	r1, {}^	; <UNPREDICTABLE>
    1e6c:	15000000 	strne	r0, [r0, #-0]
    1e70:	00000633 	andeq	r0, r0, r3, lsr r6
    1e74:	d8012e01 	stmdale	r1, {r0, r9, sl, fp, sp}
    1e78:	8400008d 	strhi	r0, [r0], #-141	; 0x8d
    1e7c:	01000000 	mrseq	r0, (UNDEF: 0)
    1e80:	0004d19c 	muleq	r4, ip, r1
    1e84:	69701600 	ldmdbvs	r0!, {r9, sl, ip}^
    1e88:	2e01006e 	cdpcs	0, 0, cr0, cr1, cr14, {3}
    1e8c:	00002c01 	andeq	r2, r0, r1, lsl #24
    1e90:	0017b800 	andseq	fp, r7, r0, lsl #16
    1e94:	06021700 	streq	r1, [r2], -r0, lsl #14
    1e98:	40010000 	andmi	r0, r1, r0
    1e9c:	00002c01 	andeq	r2, r0, r1, lsl #24
    1ea0:	0017e400 	andseq	lr, r7, r0, lsl #8
    1ea4:	8df41800 	ldclhi	8, cr1, [r4]
    1ea8:	001c0000 	andseq	r0, ip, r0
    1eac:	04730000 	ldrbteq	r0, [r3], #-0
    1eb0:	95170000 	ldrls	r0, [r7, #-0]
    1eb4:	01000006 	tsteq	r0, r6
    1eb8:	002c0137 	eoreq	r0, ip, r7, lsr r1
    1ebc:	18020000 	stmdane	r2, {}	; <UNPREDICTABLE>
    1ec0:	00110000 	andseq	r0, r1, r0
    1ec4:	4100008e 	smlabbmi	r0, lr, r0, r0
    1ec8:	11000008 	tstne	r0, r8
    1ecc:	00008e10 	andeq	r8, r0, r0, lsl lr
    1ed0:	00000862 	andeq	r0, r0, r2, ror #16
    1ed4:	8e141800 	cdphi	8, 1, cr1, cr4, cr0, {0}
    1ed8:	00200000 	eoreq	r0, r0, r0
    1edc:	04a30000 	strteq	r0, [r3], #0
    1ee0:	95170000 	ldrls	r0, [r7, #-0]
    1ee4:	01000006 	tsteq	r0, r6
    1ee8:	002c013b 	eoreq	r0, ip, fp, lsr r1
    1eec:	18200000 	stmdane	r0!, {}	; <UNPREDICTABLE>
    1ef0:	20110000 	andscs	r0, r1, r0
    1ef4:	4100008e 	smlabbmi	r0, lr, r0, r0
    1ef8:	11000008 	tstne	r0, r8
    1efc:	00008e34 	andeq	r8, r0, r4, lsr lr
    1f00:	00000862 	andeq	r0, r0, r2, ror #16
    1f04:	8dec1100 	stfhie	f1, [ip]
    1f08:	087e0000 	ldmdaeq	lr!, {}^	; <UNPREDICTABLE>
    1f0c:	38110000 	ldmdacc	r1, {}	; <UNPREDICTABLE>
    1f10:	7e00008e 	cdpvc	0, 0, cr0, cr0, cr14, {4}
    1f14:	11000008 	tstne	r0, r8
    1f18:	00008e44 	andeq	r8, r0, r4, asr #28
    1f1c:	00000841 	andeq	r0, r0, r1, asr #16
    1f20:	008e5011 	addeq	r5, lr, r1, lsl r0
    1f24:	00086200 	andeq	r6, r8, r0, lsl #4
    1f28:	8e541100 	rdfhis	f1, f4, f0
    1f2c:	087e0000 	ldmdaeq	lr!, {}^	; <UNPREDICTABLE>
    1f30:	15000000 	strne	r0, [r0, #-0]
    1f34:	000006f0 	strdeq	r0, [r0], -r0	; <UNPREDICTABLE>
    1f38:	5c014b01 	stcpl	11, cr4, [r1], {1}
    1f3c:	8400008e 	strhi	r0, [r0], #-142	; 0x8e
    1f40:	01000000 	mrseq	r0, (UNDEF: 0)
    1f44:	0005959c 	muleq	r5, ip, r5
    1f48:	69701600 	ldmdbvs	r0!, {r9, sl, ip}^
    1f4c:	4b01006e 	blmi	4210c <__bss_end__+0x3817c>
    1f50:	00002c01 	andeq	r2, r0, r1, lsl #24
    1f54:	00183e00 	andseq	r3, r8, r0, lsl #28
    1f58:	06021700 	streq	r1, [r2], -r0, lsl #14
    1f5c:	5c010000 	stcpl	0, cr0, [r1], {-0}
    1f60:	00002c01 	andeq	r2, r0, r1, lsl #24
    1f64:	00186a00 	andseq	r6, r8, r0, lsl #20
    1f68:	8e781800 	cdphi	8, 7, cr1, cr8, cr0, {0}
    1f6c:	001c0000 	andseq	r0, ip, r0
    1f70:	05370000 	ldreq	r0, [r7, #-0]!
    1f74:	95170000 	ldrls	r0, [r7, #-0]
    1f78:	01000006 	tsteq	r0, r6
    1f7c:	002c0153 	eoreq	r0, ip, r3, asr r1
    1f80:	18880000 	stmne	r8, {}	; <UNPREDICTABLE>
    1f84:	84110000 	ldrhi	r0, [r1], #-0
    1f88:	4100008e 	smlabbmi	r0, lr, r0, r0
    1f8c:	11000008 	tstne	r0, r8
    1f90:	00008e94 	muleq	r0, r4, lr
    1f94:	00000862 	andeq	r0, r0, r2, ror #16
    1f98:	8e981800 	cdphi	8, 9, cr1, cr8, cr0, {0}
    1f9c:	00200000 	eoreq	r0, r0, r0
    1fa0:	05670000 	strbeq	r0, [r7, #-0]!
    1fa4:	95170000 	ldrls	r0, [r7, #-0]
    1fa8:	01000006 	tsteq	r0, r6
    1fac:	002c0157 	eoreq	r0, ip, r7, asr r1
    1fb0:	18a60000 	stmiane	r6!, {}	; <UNPREDICTABLE>
    1fb4:	a4110000 	ldrge	r0, [r1], #-0
    1fb8:	4100008e 	smlabbmi	r0, lr, r0, r0
    1fbc:	11000008 	tstne	r0, r8
    1fc0:	00008eb8 			; <UNDEFINED> instruction: 0x00008eb8
    1fc4:	00000862 	andeq	r0, r0, r2, ror #16
    1fc8:	8e701100 	rpwhis	f1, f0, f0
    1fcc:	087e0000 	ldmdaeq	lr!, {}^	; <UNPREDICTABLE>
    1fd0:	bc110000 	ldclt	0, cr0, [r1], {-0}
    1fd4:	7e00008e 	cdpvc	0, 0, cr0, cr0, cr14, {4}
    1fd8:	11000008 	tstne	r0, r8
    1fdc:	00008ec8 	andeq	r8, r0, r8, asr #29
    1fe0:	00000841 	andeq	r0, r0, r1, asr #16
    1fe4:	008ed411 	addeq	sp, lr, r1, lsl r4
    1fe8:	00086200 	andeq	r6, r8, r0, lsl #4
    1fec:	8ed81100 	cdphi	1, 13, cr1, cr8, cr0, {0}
    1ff0:	087e0000 	ldmdaeq	lr!, {}^	; <UNPREDICTABLE>
    1ff4:	13000000 	movwne	r0, #0
    1ff8:	000005b0 			; <UNDEFINED> instruction: 0x000005b0
    1ffc:	64016601 	strvs	r6, [r1], #-1537	; 0x601
    2000:	e0000000 	and	r0, r0, r0
    2004:	8400008e 	strhi	r0, [r0], #-142	; 0x8e
    2008:	01000000 	mrseq	r0, (UNDEF: 0)
    200c:	00063b9c 	muleq	r6, ip, fp
    2010:	69701600 	ldmdbvs	r0!, {r9, sl, ip}^
    2014:	6601006e 	strvs	r0, [r1], -lr, rrx
    2018:	00002c01 	andeq	r2, r0, r1, lsl #24
    201c:	0018c400 	andseq	ip, r8, r0, lsl #8
    2020:	8efc1800 	cdphi	8, 15, cr1, cr12, cr0, {0}
    2024:	00240000 	eoreq	r0, r4, r0
    2028:	05ef0000 	strbeq	r0, [pc, #0]!	; 2030 <_start-0x5fd0>
    202c:	0b170000 	bleq	5c2034 <__bss_end__+0x5b80a4>
    2030:	01000006 	tsteq	r0, r6
    2034:	002c016d 	eoreq	r0, ip, sp, ror #2
    2038:	19060000 	stmdbne	r6, {}	; <UNPREDICTABLE>
    203c:	08110000 	ldmdaeq	r1, {}	; <UNPREDICTABLE>
    2040:	4100008f 	smlabbmi	r0, pc, r0, r0	; <UNPREDICTABLE>
    2044:	11000008 	tstne	r0, r8
    2048:	00008f18 	andeq	r8, r0, r8, lsl pc
    204c:	0000087e 	andeq	r0, r0, lr, ror r8
    2050:	8f201800 	svchi	0x00201800
    2054:	002c0000 	eoreq	r0, ip, r0
    2058:	06280000 	strteq	r0, [r8], -r0
    205c:	0b170000 	bleq	5c2064 <__bss_end__+0x5b80d4>
    2060:	01000006 	tsteq	r0, r6
    2064:	002c0170 	eoreq	r0, ip, r0, ror r1
    2068:	19200000 	stmdbne	r0!, {}	; <UNPREDICTABLE>
    206c:	2c110000 	ldccs	0, cr0, [r1], {-0}
    2070:	4100008f 	smlabbmi	r0, pc, r0, r0	; <UNPREDICTABLE>
    2074:	11000008 	tstne	r0, r8
    2078:	00008f38 	andeq	r8, r0, r8, lsr pc
    207c:	0000087e 	andeq	r0, r0, lr, ror r8
    2080:	008f4411 	addeq	r4, pc, r1, lsl r4	; <UNPREDICTABLE>
    2084:	00087e00 	andeq	r7, r8, r0, lsl #28
    2088:	f4110000 			; <UNDEFINED> instruction: 0xf4110000
    208c:	7e00008e 	cdpvc	0, 0, cr0, cr0, cr14, {4}
    2090:	11000008 	tstne	r0, r8
    2094:	00008f50 	andeq	r8, r0, r0, asr pc
    2098:	0000087e 	andeq	r0, r0, lr, ror r8
    209c:	06681500 	strbteq	r1, [r8], -r0, lsl #10
    20a0:	79010000 	stmdbvc	r1, {}	; <UNPREDICTABLE>
    20a4:	008f6401 	addeq	r6, pc, r1, lsl #8
    20a8:	00005800 	andeq	r5, r0, r0, lsl #16
    20ac:	a09c0100 	addsge	r0, ip, r0, lsl #2
    20b0:	16000006 	strne	r0, [r0], -r6
    20b4:	006e6970 	rsbeq	r6, lr, r0, ror r9
    20b8:	2c017901 	stccs	9, cr7, [r1], {1}
    20bc:	33000000 	movwcc	r0, #0
    20c0:	11000019 	tstne	r0, r9, lsl r0
    20c4:	00008f78 	andeq	r8, r0, r8, ror pc
    20c8:	0000087e 	andeq	r0, r0, lr, ror r8
    20cc:	008f940a 	addeq	r9, pc, sl, lsl #8
    20d0:	00086200 	andeq	r6, r8, r0, lsl #4
    20d4:	00068000 	andeq	r8, r6, r0
    20d8:	51010b00 	tstpl	r1, r0, lsl #22
    20dc:	00743104 	rsbseq	r3, r4, r4, lsl #2
    20e0:	b00a0024 	andlt	r0, sl, r4, lsr #32
    20e4:	6200008f 	andvs	r0, r0, #143	; 0x8f
    20e8:	96000008 	strls	r0, [r0], -r8
    20ec:	0b000006 	bleq	210c <_start-0x5ef4>
    20f0:	31045101 	tstcc	r4, r1, lsl #2
    20f4:	00240074 	eoreq	r0, r4, r4, ror r0
    20f8:	008fb411 	addeq	fp, pc, r1, lsl r4	; <UNPREDICTABLE>
    20fc:	00087e00 	andeq	r7, r8, r0, lsl #28
    2100:	14190000 	ldrne	r0, [r9], #-0
    2104:	01000000 	mrseq	r0, (UNDEF: 0)
    2108:	00013328 	andeq	r3, r1, r8, lsr #6
    210c:	e8030500 	stmda	r3, {r8, sl}
    2110:	19000098 	stmdbne	r0, {r3, r4, r7}
    2114:	0000000a 	andeq	r0, r0, sl
    2118:	01332901 	teqeq	r3, r1, lsl #18
    211c:	03050000 	movweq	r0, #20480	; 0x5000
    2120:	000098e4 	andeq	r9, r0, r4, ror #17
    2124:	00000019 	andeq	r0, r0, r9, lsl r0
    2128:	332a0100 	teqcc	sl, #0, 2
    212c:	05000001 	streq	r0, [r0, #-1]
    2130:	0098e003 	addseq	lr, r8, r3
    2134:	01e91900 	mvneq	r1, r0, lsl #18
    2138:	2c010000 	stccs	0, cr0, [r1], {-0}
    213c:	00000133 	andeq	r0, r0, r3, lsr r1
    2140:	988c0305 	stmls	ip, {r0, r2, r8, r9}
    2144:	0f190000 	svceq	0x00190000
    2148:	01000001 	tsteq	r0, r1
    214c:	0001332d 	andeq	r3, r1, sp, lsr #6
    2150:	90030500 	andls	r0, r3, r0, lsl #10
    2154:	19000098 	stmdbne	r0, {r3, r4, r7}
    2158:	000001f8 	strdeq	r0, [r0], -r8
    215c:	01332e01 	teqeq	r3, r1, lsl #28
    2160:	03050000 	movweq	r0, #20480	; 0x5000
    2164:	00009894 	muleq	r0, r4, r8
    2168:	00020019 	andeq	r0, r2, r9, lsl r0
    216c:	332f0100 	teqcc	pc, #0, 2
    2170:	05000001 	streq	r0, [r0, #-1]
    2174:	00989803 	addseq	r9, r8, r3, lsl #16
    2178:	02081900 	andeq	r1, r8, #0, 18
    217c:	30010000 	andcc	r0, r1, r0
    2180:	00000133 	andeq	r0, r0, r3, lsr r1
    2184:	989c0305 	ldmls	ip, {r0, r2, r8, r9}
    2188:	10190000 	andsne	r0, r9, r0
    218c:	01000002 	tsteq	r0, r2
    2190:	00013331 	andeq	r3, r1, r1, lsr r3
    2194:	a0030500 	andge	r0, r3, r0, lsl #10
    2198:	19000098 	stmdbne	r0, {r3, r4, r7}
    219c:	000000f1 	strdeq	r0, [r0], -r1
    21a0:	01333301 	teqeq	r3, r1, lsl #6
    21a4:	03050000 	movweq	r0, #20480	; 0x5000
    21a8:	000098a4 	andeq	r9, r0, r4, lsr #17
    21ac:	0000f819 	andeq	pc, r0, r9, lsl r8	; <UNPREDICTABLE>
    21b0:	33340100 	teqcc	r4, #0, 2
    21b4:	05000001 	streq	r0, [r0, #-1]
    21b8:	0098a803 	addseq	sl, r8, r3, lsl #16
    21bc:	00d71900 	sbcseq	r1, r7, r0, lsl #18
    21c0:	36010000 	strcc	r0, [r1], -r0
    21c4:	00000133 	andeq	r0, r0, r3, lsr r1
    21c8:	98ac0305 	stmials	ip!, {r0, r2, r8, r9}
    21cc:	8c190000 	ldchi	0, cr0, [r9], {-0}
    21d0:	01000000 	mrseq	r0, (UNDEF: 0)
    21d4:	00013337 	andeq	r3, r1, r7, lsr r3
    21d8:	b0030500 	andlt	r0, r3, r0, lsl #10
    21dc:	19000098 	stmdbne	r0, {r3, r4, r7}
    21e0:	000001f1 	strdeq	r0, [r0], -r1
    21e4:	01333901 	teqeq	r3, r1, lsl #18
    21e8:	03050000 	movweq	r0, #20480	; 0x5000
    21ec:	000098b4 			; <UNDEFINED> instruction: 0x000098b4
    21f0:	00009b19 	andeq	r9, r0, r9, lsl fp
    21f4:	333a0100 	teqcc	sl, #0, 2
    21f8:	05000001 	streq	r0, [r0, #-1]
    21fc:	0098b803 	addseq	fp, r8, r3, lsl #16
    2200:	06791a00 	ldrbteq	r1, [r9], -r0, lsl #20
    2204:	0a010000 	beq	4220c <__bss_end__+0x3827c>
    2208:	00013301 	andeq	r3, r1, r1, lsl #6
    220c:	dc030500 	cfstr32le	mvfx0, [r3], {-0}
    2210:	1a000098 	bne	2478 <_start-0x5b88>
    2214:	00000687 	andeq	r0, r0, r7, lsl #13
    2218:	33010b01 	movwcc	r0, #6913	; 0x1b01
    221c:	05000001 	streq	r0, [r0, #-1]
    2220:	0098bc03 	addseq	fp, r8, r3, lsl #24
    2224:	06bd1a00 	ldrteq	r1, [sp], r0, lsl #20
    2228:	0d010000 	stceq	0, cr0, [r1, #-0]
    222c:	00013301 	andeq	r3, r1, r1, lsl #6
    2230:	d4030500 	strle	r0, [r3], #-1280	; 0x500
    2234:	1a000098 	bne	249c <_start-0x5b64>
    2238:	000006c4 	andeq	r0, r0, r4, asr #13
    223c:	33010e01 	movwcc	r0, #7681	; 0x1e01
    2240:	05000001 	streq	r0, [r0, #-1]
    2244:	0098d803 	addseq	sp, r8, r3, lsl #16
    2248:	065a1a00 	ldrbeq	r1, [sl], -r0, lsl #20
    224c:	10010000 	andne	r0, r1, r0
    2250:	00013301 	andeq	r3, r1, r1, lsl #6
    2254:	c0030500 	andgt	r0, r3, r0, lsl #10
    2258:	1a000098 	bne	24c0 <_start-0x5b40>
    225c:	00000661 	andeq	r0, r0, r1, ror #12
    2260:	33011101 	movwcc	r1, #4353	; 0x1101
    2264:	05000001 	streq	r0, [r0, #-1]
    2268:	0098c403 	addseq	ip, r8, r3, lsl #8
    226c:	06cb1a00 	strbeq	r1, [fp], r0, lsl #20
    2270:	13010000 	movwne	r0, #4096	; 0x1000
    2274:	00013301 	andeq	r3, r1, r1, lsl #6
    2278:	cc030500 	cfstr32gt	mvfx0, [r3], {-0}
    227c:	1a000098 	bne	24e4 <_start-0x5b1c>
    2280:	000006d2 	ldrdeq	r0, [r0], -r2
    2284:	33011401 	movwcc	r1, #5121	; 0x1401
    2288:	05000001 	streq	r0, [r0, #-1]
    228c:	0098d003 	addseq	sp, r8, r3
    2290:	05ca1a00 	strbeq	r1, [sl, #2560]	; 0xa00
    2294:	16010000 	strne	r0, [r1], -r0
    2298:	00013301 	andeq	r3, r1, r1, lsl #6
    229c:	c8030500 	stmdagt	r3, {r8, sl}
    22a0:	1b000098 	blne	2508 <_start-0x5af8>
    22a4:	000006ea 	andeq	r0, r0, sl, ror #13
    22a8:	002c2001 	eoreq	r2, ip, r1
    22ac:	08560000 	ldmdaeq	r6, {}^	; <UNPREDICTABLE>
    22b0:	561c0000 	ldrpl	r0, [ip], -r0
    22b4:	00000008 	andeq	r0, r0, r8
    22b8:	085c040d 	ldmdaeq	ip, {r0, r2, r3, sl}^
    22bc:	611d0000 	tstvs	sp, r0
    22c0:	1e000008 	cdpne	0, 0, cr0, cr0, cr8, {0}
    22c4:	0005c41f 	andeq	ip, r5, pc, lsl r4
    22c8:	781e0100 	ldmdavc	lr, {r8}
    22cc:	1c000008 	stcne	0, cr0, [r0], {8}
    22d0:	00000878 	andeq	r0, r0, r8, ror r8
    22d4:	00002c1c 	andeq	r2, r0, ip, lsl ip
    22d8:	040d0000 	streq	r0, [sp], #-0
    22dc:	00000861 	andeq	r0, r0, r1, ror #16
    22e0:	00061d20 	andeq	r1, r6, r0, lsr #26
    22e4:	008a0300 	addeq	r0, sl, r0, lsl #6
    22e8:	000011f2 	strdeq	r1, [r0], -r2
    22ec:	0c060004 	stceq	0, cr0, [r6], {4}
    22f0:	01040000 	mrseq	r0, (UNDEF: 4)
    22f4:	00000235 	andeq	r0, r0, r5, lsr r2
    22f8:	00080c01 	andeq	r0, r8, r1, lsl #24
    22fc:	0002a000 	andeq	sl, r2, r0
    2300:	008fbc00 	addeq	fp, pc, r0, lsl #24
    2304:	00066800 	andeq	r6, r6, r0, lsl #16
    2308:	000a6500 	andeq	r6, sl, r0, lsl #10
    230c:	05040200 	streq	r0, [r4, #-512]	; 0x200
    2310:	00746e69 	rsbseq	r6, r4, r9, ror #28
    2314:	21070403 	tstcs	r7, r3, lsl #8
    2318:	03000001 	movweq	r0, #1
    231c:	00b50601 	adcseq	r0, r5, r1, lsl #12
    2320:	02030000 	andeq	r0, r3, #0
    2324:	0001cb05 	andeq	ip, r1, r5, lsl #22
    2328:	05040300 	streq	r0, [r4, #-768]	; 0x300
    232c:	00000154 	andeq	r0, r0, r4, asr r1
    2330:	4f050803 	svcmi	0x00050803
    2334:	04000001 	streq	r0, [r0], #-1
    2338:	0000012e 	andeq	r0, r0, lr, lsr #2
    233c:	005a2e03 	subseq	r2, sl, r3, lsl #28
    2340:	01030000 	mrseq	r0, (UNDEF: 3)
    2344:	0000b308 	andeq	fp, r0, r8, lsl #6
    2348:	07020300 	streq	r0, [r2, -r0, lsl #6]
    234c:	000000de 	ldrdeq	r0, [r0], -lr
    2350:	0004cf04 	andeq	ip, r4, r4, lsl #30
    2354:	73340300 	teqvc	r4, #0, 6
    2358:	03000000 	movweq	r0, #0
    235c:	011c0704 	tsteq	ip, r4, lsl #14
    2360:	08030000 	stmdaeq	r3, {}	; <UNPREDICTABLE>
    2364:	00011707 	andeq	r1, r1, r7, lsl #14
    2368:	07040300 	streq	r0, [r4, -r0, lsl #6]
    236c:	00000146 	andeq	r0, r0, r6, asr #2
    2370:	04060405 	streq	r0, [r6], #-1029	; 0x405
    2374:	00000090 	muleq	r0, r0, r0
    2378:	bc080103 	stflts	f0, [r8], {3}
    237c:	06000000 	streq	r0, [r0], -r0
    2380:	00009d04 	andeq	r9, r0, r4, lsl #26
    2384:	00900700 	addseq	r0, r0, r0, lsl #14
    2388:	0c080000 	stceq	0, cr0, [r8], {-0}
    238c:	00d90e04 	sbcseq	r0, r9, r4, lsl #28
    2390:	74090000 	strvc	r0, [r9], #-0
    2394:	0f040078 	svceq	0x00040078
    2398:	0000004f 	andeq	r0, r0, pc, asr #32
    239c:	78720900 	ldmdavc	r2!, {r8, fp}^
    23a0:	4f0f0400 	svcmi	0x000f0400
    23a4:	01000000 	mrseq	r0, (UNDEF: 0)
    23a8:	00044e0a 	andeq	r4, r4, sl, lsl #28
    23ac:	68100400 	ldmdavs	r0, {sl}
    23b0:	04000000 	streq	r0, [r0], #-0
    23b4:	0003ff0a 	andeq	pc, r3, sl, lsl #30
    23b8:	68110400 	ldmdavs	r1, {sl}
    23bc:	08000000 	stmdaeq	r0, {}	; <UNPREDICTABLE>
    23c0:	04370400 	ldrteq	r0, [r7], #-1024	; 0x400
    23c4:	12040000 	andne	r0, r4, #0
    23c8:	000000a2 	andeq	r0, r0, r2, lsr #1
    23cc:	00021804 	andeq	r1, r2, r4, lsl #16
    23d0:	ef280500 	svc	0x00280500
    23d4:	0b000000 	bleq	23dc <_start-0x5c24>
    23d8:	00000296 	muleq	r0, r6, r2
    23dc:	06000904 	streq	r0, [r0], -r4, lsl #18
    23e0:	0c000001 	stceq	0, cr0, [r0], {1}
    23e4:	000002e9 	andeq	r0, r0, r9, ror #5
    23e8:	00000088 	andeq	r0, r0, r8, lsl #1
    23ec:	98040000 	stmdals	r4, {}	; <UNPREDICTABLE>
    23f0:	05000002 	streq	r0, [r0, #-2]
    23f4:	0000e462 	andeq	lr, r0, r2, ror #8
    23f8:	07d00d00 	ldrbeq	r0, [r0, r0, lsl #26]
    23fc:	09020000 	stmdbeq	r2, {}	; <UNPREDICTABLE>
    2400:	00013f03 	andeq	r3, r1, r3, lsl #30
    2404:	04620e00 	strbteq	r0, [r2], #-3584	; 0xe00
    2408:	09020000 	stmdbeq	r2, {}	; <UNPREDICTABLE>
    240c:	0000002c 	andeq	r0, r0, ip, lsr #32
    2410:	02006e0f 	andeq	r6, r0, #15, 28	; 0xf0
    2414:	00002c09 	andeq	r2, r0, r9, lsl #24
    2418:	6f111000 	svcvs	0x00111000
    241c:	02000001 	andeq	r0, r0, #1
    2420:	00002c0c 	andeq	r2, r0, ip, lsl #24
    2424:	0d000000 	stceq	0, cr0, [r0, #-0]
    2428:	00000783 	andeq	r0, r0, r3, lsl #15
    242c:	76031702 	strvc	r1, [r3], -r2, lsl #14
    2430:	0f000001 	svceq	0x00000001
    2434:	006e6970 	rsbeq	r6, lr, r0, ror r9
    2438:	002c1702 	eoreq	r1, ip, r2, lsl #14
    243c:	760f0000 	strvc	r0, [pc], -r0
    2440:	2c170200 	lfmcs	f0, 4, [r7], {-0}
    2444:	0e000000 	cdpeq	0, 0, cr0, cr0, cr0, {0}
    2448:	00000462 	andeq	r0, r0, r2, ror #8
    244c:	002c1702 	eoreq	r1, ip, r2, lsl #14
    2450:	d60e0000 	strle	r0, [lr], -r0
    2454:	02000007 	andeq	r0, r0, #7
    2458:	00002c17 	andeq	r2, r0, r7, lsl ip
    245c:	73120000 	tstvc	r2, #0
    2460:	01000004 	tsteq	r0, r4
    2464:	008fbc09 	addeq	fp, pc, r9, lsl #24
    2468:	00015400 	andeq	r5, r1, r0, lsl #8
    246c:	229c0100 	addscs	r0, ip, #0, 2
    2470:	13000007 	movwne	r0, #7
    2474:	00000415 	andeq	r0, r0, r5, lsl r4
    2478:	07220901 	streq	r0, [r2, -r1, lsl #18]!
    247c:	195f0000 	ldmdbne	pc, {}^	; <UNPREDICTABLE>
    2480:	63140000 	tstvs	r4, #0
    2484:	5a090100 	bpl	24288c <__bss_end__+0x2388fc>
    2488:	80000000 	andhi	r0, r0, r0
    248c:	15000019 	strne	r0, [r0, #-25]
    2490:	01007874 	tsteq	r0, r4, ror r8
    2494:	0000250b 	andeq	r2, r0, fp, lsl #10
    2498:	00760600 	rsbseq	r0, r6, r0, lsl #12
    249c:	9f1aff08 	svcls	0x001aff08
    24a0:	01006e16 	tsteq	r0, r6, lsl lr
    24a4:	0000680c 	andeq	r6, r0, ip, lsl #16
    24a8:	0019a100 	andseq	sl, r9, r0, lsl #2
    24ac:	00751600 	rsbseq	r1, r5, r0, lsl #12
    24b0:	00680d01 	rsbeq	r0, r8, r1, lsl #26
    24b4:	19b40000 	ldmibne	r4!, {}	; <UNPREDICTABLE>
    24b8:	73150000 	tstvc	r5, #0
    24bc:	680e0100 	stmdavs	lr, {r8}
    24c0:	01000000 	mrseq	r0, (UNDEF: 0)
    24c4:	8fcc1754 	svchi	0x00cc1754
    24c8:	00040000 	andeq	r0, r4, r0
    24cc:	01f80000 	mvnseq	r0, r0
    24d0:	6f180000 	svcvs	0x00180000
    24d4:	01000001 	tsteq	r0, r1
    24d8:	00002c0e 	andeq	r2, r0, lr, lsl #24
    24dc:	00540100 	subseq	r0, r4, r0, lsl #2
    24e0:	00013f19 	andeq	r3, r1, r9, lsl pc
    24e4:	008fd000 	addeq	sp, pc, r0
    24e8:	00001c00 	andeq	r1, r0, r0, lsl #24
    24ec:	75110100 	ldrvc	r0, [r1, #-256]	; 0x100
    24f0:	1a000002 	bne	2500 <_start-0x5b00>
    24f4:	0000016a 	andeq	r0, r0, sl, ror #2
    24f8:	000019dd 	ldrdeq	r1, [r0], -sp
    24fc:	00015f1b 	andeq	r5, r1, fp, lsl pc
    2500:	1c540100 	ldfnee	f0, [r4], {-0}
    2504:	00000156 	andeq	r0, r0, r6, asr r1
    2508:	014b1b00 	cmpeq	fp, r0, lsl #22
    250c:	56010000 	strpl	r0, [r1], -r0
    2510:	00011119 	andeq	r1, r1, r9, lsl r1
    2514:	008fdc00 	addeq	sp, pc, r0, lsl #24
    2518:	00001000 	andeq	r1, r0, r0
    251c:	5f1a0200 	svcpl	0x001a0200
    2520:	1a000002 	bne	2530 <_start-0x5ad0>
    2524:	00000128 	andeq	r0, r0, r8, lsr #2
    2528:	000019f0 	strdeq	r1, [r0], -r0
    252c:	00011d1b 	andeq	r1, r1, fp, lsl sp
    2530:	1d540100 	ldfnee	f0, [r4, #-0]
    2534:	00008fdc 	ldrdeq	r8, [r0], -ip
    2538:	00000004 	andeq	r0, r0, r4
    253c:	0001321e 	andeq	r3, r1, lr, lsl r2
    2540:	001a0300 	andseq	r0, sl, r0, lsl #6
    2544:	1f000000 	svcne	0x00000000
    2548:	00008fdc 	ldrdeq	r8, [r0], -ip
    254c:	00001159 	andeq	r1, r0, r9, asr r1
    2550:	01510120 	cmpeq	r1, r0, lsr #2
    2554:	50012030 	andpl	r2, r1, r0, lsr r0
    2558:	00007602 	andeq	r7, r0, r2, lsl #12
    255c:	013f1900 	teqeq	pc, r0, lsl #18
    2560:	8ff00000 	svchi	0x00f00000	; IMB
    2564:	001c0000 	andseq	r0, ip, r0
    2568:	13010000 	movwne	r0, #4096	; 0x1000
    256c:	000002f8 	strdeq	r0, [r0], -r8
    2570:	00016a1a 	andeq	r6, r1, sl, lsl sl
    2574:	001a1600 	andseq	r1, sl, r0, lsl #12
    2578:	015f1b00 	cmpeq	pc, r0, lsl #22
    257c:	54010000 	strpl	r0, [r1], #-0
    2580:	0001561a 	andeq	r5, r1, sl, lsl r6
    2584:	001a3800 	andseq	r3, sl, r0, lsl #16
    2588:	014b1b00 	cmpeq	fp, r0, lsl #22
    258c:	56010000 	strpl	r0, [r1], -r0
    2590:	00011119 	andeq	r1, r1, r9, lsl r1
    2594:	008ffc00 	addeq	pc, pc, r0, lsl #24
    2598:	00001000 	andeq	r1, r0, r0
    259c:	df1a0200 	svcle	0x001a0200
    25a0:	1a000002 	bne	25b0 <_start-0x5a50>
    25a4:	00000128 	andeq	r0, r0, r8, lsr #2
    25a8:	00001a69 	andeq	r1, r0, r9, ror #20
    25ac:	00011d1b 	andeq	r1, r1, fp, lsl sp
    25b0:	1d540100 	ldfnee	f0, [r4, #-0]
    25b4:	00008ffc 	strdeq	r8, [r0], -ip
    25b8:	00000004 	andeq	r0, r0, r4
    25bc:	0001321e 	andeq	r3, r1, lr, lsl r2
    25c0:	001a8b00 	andseq	r8, sl, r0, lsl #22
    25c4:	1f000000 	svcne	0x00000000
    25c8:	00008ffc 	strdeq	r8, [r0], -ip
    25cc:	00001159 	andeq	r1, r0, r9, asr r1
    25d0:	04510120 	ldrbeq	r0, [r1], #-288	; 0x120
    25d4:	1a310077 	bne	c427b8 <__bss_end__+0xc38828>
    25d8:	02500120 	subseq	r0, r0, #32, 2
    25dc:	00000076 	andeq	r0, r0, r6, ror r0
    25e0:	00013f19 	andeq	r3, r1, r9, lsl pc
    25e4:	00901000 	addseq	r1, r0, r0
    25e8:	00001c00 	andeq	r1, r0, r0, lsl #24
    25ec:	80150100 	andshi	r0, r5, r0, lsl #2
    25f0:	1a000003 	bne	2604 <_start-0x59fc>
    25f4:	0000016a 	andeq	r0, r0, sl, ror #2
    25f8:	00001a9e 	muleq	r0, lr, sl
    25fc:	00015f1b 	andeq	r5, r1, fp, lsl pc
    2600:	1b540100 	blne	1502a08 <__bss_end__+0x14f8a78>
    2604:	00000156 	andeq	r0, r0, r6, asr r1
    2608:	32007708 	andcc	r7, r0, #8, 14	; 0x200000
    260c:	1aff081a 	bne	fffc467c <__bss_end__+0xfffba6ec>
    2610:	014b1b9f 			; <UNDEFINED> instruction: 0x014b1b9f
    2614:	56010000 	strpl	r0, [r1], -r0
    2618:	00011119 	andeq	r1, r1, r9, lsl r1
    261c:	00901c00 	addseq	r1, r0, r0, lsl #24
    2620:	00001000 	andeq	r1, r0, r0
    2624:	671a0200 	ldrvs	r0, [sl, -r0, lsl #4]
    2628:	1a000003 	bne	263c <_start-0x59c4>
    262c:	00000128 	andeq	r0, r0, r8, lsr #2
    2630:	00001ac3 	andeq	r1, r0, r3, asr #21
    2634:	00011d1b 	andeq	r1, r1, fp, lsl sp
    2638:	1d540100 	ldfnee	f0, [r4, #-0]
    263c:	0000901c 	andeq	r9, r0, ip, lsl r0
    2640:	00000004 	andeq	r0, r0, r4
    2644:	0001321e 	andeq	r3, r1, lr, lsl r2
    2648:	001ae800 	andseq	lr, sl, r0, lsl #16
    264c:	1f000000 	svcne	0x00000000
    2650:	0000901c 	andeq	r9, r0, ip, lsl r0
    2654:	00001159 	andeq	r1, r0, r9, asr r1
    2658:	04510120 	ldrbeq	r0, [r1], #-288	; 0x120
    265c:	1a320077 	bne	c82840 <__bss_end__+0xc788b0>
    2660:	02500120 	subseq	r0, r0, #32, 2
    2664:	00000076 	andeq	r0, r0, r6, ror r0
    2668:	00013f19 	andeq	r3, r1, r9, lsl pc
    266c:	00903000 	addseq	r3, r0, r0
    2670:	00001c00 	andeq	r1, r0, r0, lsl #24
    2674:	08170100 	ldmdaeq	r7, {r8}
    2678:	1a000004 	bne	2690 <_start-0x5970>
    267c:	0000016a 	andeq	r0, r0, sl, ror #2
    2680:	00001afb 	strdeq	r1, [r0], -fp
    2684:	00015f1b 	andeq	r5, r1, fp, lsl pc
    2688:	1b540100 	blne	1502a90 <__bss_end__+0x14f8b00>
    268c:	00000156 	andeq	r0, r0, r6, asr r1
    2690:	34007708 	strcc	r7, [r0], #-1800	; 0x708
    2694:	1aff081a 	bne	fffc4704 <__bss_end__+0xfffba774>
    2698:	014b1b9f 			; <UNDEFINED> instruction: 0x014b1b9f
    269c:	56010000 	strpl	r0, [r1], -r0
    26a0:	00011119 	andeq	r1, r1, r9, lsl r1
    26a4:	00903c00 	addseq	r3, r0, r0, lsl #24
    26a8:	00001000 	andeq	r1, r0, r0
    26ac:	ef1a0200 	svc	0x001a0200
    26b0:	1a000003 	bne	26c4 <_start-0x593c>
    26b4:	00000128 	andeq	r0, r0, r8, lsr #2
    26b8:	00001b1d 	andeq	r1, r0, sp, lsl fp
    26bc:	00011d1b 	andeq	r1, r1, fp, lsl sp
    26c0:	1d540100 	ldfnee	f0, [r4, #-0]
    26c4:	0000903c 	andeq	r9, r0, ip, lsr r0
    26c8:	00000004 	andeq	r0, r0, r4
    26cc:	0001321e 	andeq	r3, r1, lr, lsl r2
    26d0:	001b3f00 	andseq	r3, fp, r0, lsl #30
    26d4:	1f000000 	svcne	0x00000000
    26d8:	0000903c 	andeq	r9, r0, ip, lsr r0
    26dc:	00001159 	andeq	r1, r0, r9, asr r1
    26e0:	04510120 	ldrbeq	r0, [r1], #-288	; 0x120
    26e4:	1a340077 	bne	d028c8 <__bss_end__+0xcf8938>
    26e8:	02500120 	subseq	r0, r0, #32, 2
    26ec:	00000076 	andeq	r0, r0, r6, ror r0
    26f0:	00013f19 	andeq	r3, r1, r9, lsl pc
    26f4:	00905000 	addseq	r5, r0, r0
    26f8:	00001c00 	andeq	r1, r0, r0, lsl #24
    26fc:	90190100 	andsls	r0, r9, r0, lsl #2
    2700:	1a000004 	bne	2718 <_start-0x58e8>
    2704:	0000016a 	andeq	r0, r0, sl, ror #2
    2708:	00001b52 	andeq	r1, r0, r2, asr fp
    270c:	00015f1b 	andeq	r5, r1, fp, lsl pc
    2710:	1b540100 	blne	1502b18 <__bss_end__+0x14f8b88>
    2714:	00000156 	andeq	r0, r0, r6, asr r1
    2718:	38007708 	stmdacc	r0, {r3, r8, r9, sl, ip, sp, lr}
    271c:	1aff081a 	bne	fffc478c <__bss_end__+0xfffba7fc>
    2720:	014b1b9f 			; <UNDEFINED> instruction: 0x014b1b9f
    2724:	56010000 	strpl	r0, [r1], -r0
    2728:	00011119 	andeq	r1, r1, r9, lsl r1
    272c:	00905c00 	addseq	r5, r0, r0, lsl #24
    2730:	00001000 	andeq	r1, r0, r0
    2734:	771a0200 	ldrvc	r0, [sl, -r0, lsl #4]
    2738:	1a000004 	bne	2750 <_start-0x58b0>
    273c:	00000128 	andeq	r0, r0, r8, lsr #2
    2740:	00001b77 	andeq	r1, r0, r7, ror fp
    2744:	00011d1b 	andeq	r1, r1, fp, lsl sp
    2748:	1d540100 	ldfnee	f0, [r4, #-0]
    274c:	0000905c 	andeq	r9, r0, ip, asr r0
    2750:	00000004 	andeq	r0, r0, r4
    2754:	0001321e 	andeq	r3, r1, lr, lsl r2
    2758:	001b9c00 	andseq	r9, fp, r0, lsl #24
    275c:	1f000000 	svcne	0x00000000
    2760:	0000905c 	andeq	r9, r0, ip, asr r0
    2764:	00001159 	andeq	r1, r0, r9, asr r1
    2768:	04510120 	ldrbeq	r0, [r1], #-288	; 0x120
    276c:	1a380077 	bne	e02950 <__bss_end__+0xdf89c0>
    2770:	02500120 	subseq	r0, r0, #32, 2
    2774:	00000076 	andeq	r0, r0, r6, ror r0
    2778:	00013f19 	andeq	r3, r1, r9, lsl pc
    277c:	00907000 	addseq	r7, r0, r0
    2780:	00001c00 	andeq	r1, r0, r0, lsl #24
    2784:	181b0100 	ldmdane	fp, {r8}
    2788:	1a000005 	bne	27a4 <_start-0x585c>
    278c:	0000016a 	andeq	r0, r0, sl, ror #2
    2790:	00001baf 	andeq	r1, r0, pc, lsr #23
    2794:	00015f1b 	andeq	r5, r1, fp, lsl pc
    2798:	1b540100 	blne	1502ba0 <__bss_end__+0x14f8c10>
    279c:	00000156 	andeq	r0, r0, r6, asr r1
    27a0:	40007708 	andmi	r7, r0, r8, lsl #14
    27a4:	1aff081a 	bne	fffc4814 <__bss_end__+0xfffba884>
    27a8:	014b1b9f 			; <UNDEFINED> instruction: 0x014b1b9f
    27ac:	56010000 	strpl	r0, [r1], -r0
    27b0:	00011119 	andeq	r1, r1, r9, lsl r1
    27b4:	00907c00 	addseq	r7, r0, r0, lsl #24
    27b8:	00001000 	andeq	r1, r0, r0
    27bc:	ff1a0200 			; <UNDEFINED> instruction: 0xff1a0200
    27c0:	1a000004 	bne	27d8 <_start-0x5828>
    27c4:	00000128 	andeq	r0, r0, r8, lsr #2
    27c8:	00001bd6 	ldrdeq	r1, [r0], -r6
    27cc:	00011d1b 	andeq	r1, r1, fp, lsl sp
    27d0:	1d540100 	ldfnee	f0, [r4, #-0]
    27d4:	0000907c 	andeq	r9, r0, ip, ror r0
    27d8:	00000004 	andeq	r0, r0, r4
    27dc:	0001321e 	andeq	r3, r1, lr, lsl r2
    27e0:	001bfd00 	andseq	pc, fp, r0, lsl #26
    27e4:	1f000000 	svcne	0x00000000
    27e8:	0000907c 	andeq	r9, r0, ip, ror r0
    27ec:	00001159 	andeq	r1, r0, r9, asr r1
    27f0:	04510120 	ldrbeq	r0, [r1], #-288	; 0x120
    27f4:	1a400077 	bne	10029d8 <__bss_end__+0xff8a48>
    27f8:	02500120 	subseq	r0, r0, #32, 2
    27fc:	00000076 	andeq	r0, r0, r6, ror r0
    2800:	00013f19 	andeq	r3, r1, r9, lsl pc
    2804:	00909000 	addseq	r9, r0, r0
    2808:	00001c00 	andeq	r1, r0, r0, lsl #24
    280c:	a21d0100 	andsge	r0, sp, #0, 2
    2810:	1a000005 	bne	282c <_start-0x57d4>
    2814:	0000016a 	andeq	r0, r0, sl, ror #2
    2818:	00001c10 	andeq	r1, r0, r0, lsl ip
    281c:	00015f1b 	andeq	r5, r1, fp, lsl pc
    2820:	1b540100 	blne	1502c28 <__bss_end__+0x14f8c98>
    2824:	00000156 	andeq	r0, r0, r6, asr r1
    2828:	08007709 	stmdaeq	r0, {r0, r3, r8, r9, sl, ip, sp, lr}
    282c:	ff081a20 			; <UNDEFINED> instruction: 0xff081a20
    2830:	4b1b9f1a 	blmi	6ea4a0 <__bss_end__+0x6e0510>
    2834:	01000001 	tsteq	r0, r1
    2838:	01111956 	tsteq	r1, r6, asr r9
    283c:	909c0000 	addsls	r0, ip, r0
    2840:	00100000 	andseq	r0, r0, r0
    2844:	1a020000 	bne	8284c <__bss_end__+0x788bc>
    2848:	00000588 	andeq	r0, r0, r8, lsl #11
    284c:	0001281a 	andeq	r2, r1, sl, lsl r8
    2850:	001c3a00 	andseq	r3, ip, r0, lsl #20
    2854:	011d1b00 	tsteq	sp, r0, lsl #22
    2858:	54010000 	strpl	r0, [r1], #-0
    285c:	00909c1d 	addseq	r9, r0, sp, lsl ip
    2860:	00000400 	andeq	r0, r0, r0, lsl #8
    2864:	01321e00 	teqeq	r2, r0, lsl #28
    2868:	1c640000 	stclne	0, cr0, [r4], #-0
    286c:	00000000 	andeq	r0, r0, r0
    2870:	00909c1f 	addseq	r9, r0, pc, lsl ip
    2874:	00115900 	andseq	r5, r1, r0, lsl #18
    2878:	51012000 	mrspl	r2, (UNDEF: 1)
    287c:	08007705 	stmdaeq	r0, {r0, r2, r8, r9, sl, ip, sp, lr}
    2880:	01201a20 	teqeq	r0, r0, lsr #20
    2884:	00760250 	rsbseq	r0, r6, r0, asr r2
    2888:	3f190000 	svccc	0x00190000
    288c:	b0000001 	andlt	r0, r0, r1
    2890:	1c000090 	stcne	0, cr0, [r0], {144}	; 0x90
    2894:	01000000 	mrseq	r0, (UNDEF: 0)
    2898:	00062c1f 	andeq	r2, r6, pc, lsl ip
    289c:	016a1a00 	cmneq	sl, r0, lsl #20
    28a0:	1c770000 	ldclne	0, cr0, [r7], #-0
    28a4:	5f1b0000 	svcpl	0x001b0000
    28a8:	01000001 	tsteq	r0, r1
    28ac:	01561b54 	cmpeq	r6, r4, asr fp
    28b0:	77090000 	strvc	r0, [r9, -r0]
    28b4:	1a400800 	bne	10048bc <__bss_end__+0xffa92c>
    28b8:	9f1aff08 	svcls	0x001aff08
    28bc:	00014b1b 	andeq	r4, r1, fp, lsl fp
    28c0:	19560100 	ldmdbne	r6, {r8}^
    28c4:	00000111 	andeq	r0, r0, r1, lsl r1
    28c8:	000090bc 	strheq	r9, [r0], -ip
    28cc:	00000010 	andeq	r0, r0, r0, lsl r0
    28d0:	06121a02 	ldreq	r1, [r2], -r2, lsl #20
    28d4:	281a0000 	ldmdacs	sl, {}	; <UNPREDICTABLE>
    28d8:	99000001 	stmdbls	r0, {r0}
    28dc:	1b00001c 	blne	2954 <_start-0x56ac>
    28e0:	0000011d 	andeq	r0, r0, sp, lsl r1
    28e4:	bc1d5401 	cfldrslt	mvf5, [sp], {1}
    28e8:	04000090 	streq	r0, [r0], #-144	; 0x90
    28ec:	1e000000 	cdpne	0, 0, cr0, cr0, cr0, {0}
    28f0:	00000132 	andeq	r0, r0, r2, lsr r1
    28f4:	00001cbb 			; <UNDEFINED> instruction: 0x00001cbb
    28f8:	bc1f0000 	ldclt	0, cr0, [pc], {-0}
    28fc:	59000090 	stmdbpl	r0, {r4, r7}
    2900:	20000011 	andcs	r0, r0, r1, lsl r0
    2904:	77055101 	strvc	r5, [r5, -r1, lsl #2]
    2908:	1a400800 	bne	1004910 <__bss_end__+0xffa980>
    290c:	02500120 	subseq	r0, r0, #32, 2
    2910:	00000076 	andeq	r0, r0, r6, ror r0
    2914:	00013f19 	andeq	r3, r1, r9, lsl pc
    2918:	0090d000 	addseq	sp, r0, r0
    291c:	00001c00 	andeq	r1, r0, r0, lsl #24
    2920:	ac210100 	stfges	f0, [r1], #-0
    2924:	1b000006 	blne	2944 <_start-0x56bc>
    2928:	0000016a 	andeq	r0, r0, sl, ror #2
    292c:	5f1b5801 	svcpl	0x001b5801
    2930:	01000001 	tsteq	r0, r1
    2934:	01561a54 	cmpeq	r6, r4, asr sl
    2938:	1cce0000 	stclne	0, cr0, [lr], {0}
    293c:	4b1b0000 	blmi	6c2944 <__bss_end__+0x6b89b4>
    2940:	01000001 	tsteq	r0, r1
    2944:	01111956 	tsteq	r1, r6, asr r9
    2948:	90dc0000 	sbcsls	r0, ip, r0
    294c:	00100000 	andseq	r0, r0, r0
    2950:	1a020000 	bne	82958 <__bss_end__+0x789c8>
    2954:	00000692 	muleq	r0, r2, r6
    2958:	0001281b 	andeq	r2, r1, fp, lsl r8
    295c:	1b580100 	blne	1602d64 <__bss_end__+0x15f8dd4>
    2960:	0000011d 	andeq	r0, r0, sp, lsl r1
    2964:	dc1d5401 	cfldrsle	mvf5, [sp], {1}
    2968:	04000090 	streq	r0, [r0], #-144	; 0x90
    296c:	1e000000 	cdpne	0, 0, cr0, cr0, cr0, {0}
    2970:	00000132 	andeq	r0, r0, r2, lsr r1
    2974:	00001d01 	andeq	r1, r0, r1, lsl #26
    2978:	dc1f0000 	ldcle	0, cr0, [pc], {-0}
    297c:	59000090 	stmdbpl	r0, {r4, r7}
    2980:	20000011 	andcs	r0, r0, r1, lsl r0
    2984:	77055101 	strvc	r5, [r5, -r1, lsl #2]
    2988:	1a800800 	bne	fe004990 <__bss_end__+0xfdffaa00>
    298c:	02500120 	subseq	r0, r0, #32, 2
    2990:	00000076 	andeq	r0, r0, r6, ror r0
    2994:	00013f21 	andeq	r3, r1, r1, lsr #30
    2998:	0090f000 	addseq	pc, r0, r0
    299c:	00001c00 	andeq	r1, r0, r0, lsl #24
    29a0:	1b230100 	blne	8c2da8 <__bss_end__+0x8b8e18>
    29a4:	0000016a 	andeq	r0, r0, sl, ror #2
    29a8:	5f1b5501 	svcpl	0x001b5501
    29ac:	01000001 	tsteq	r0, r1
    29b0:	01561c54 	cmpeq	r6, r4, asr ip
    29b4:	1b010000 	blne	429bc <__bss_end__+0x38a2c>
    29b8:	0000014b 	andeq	r0, r0, fp, asr #2
    29bc:	11195601 	tstne	r9, r1, lsl #12
    29c0:	fc000001 	stc2	0, cr0, [r0], {1}
    29c4:	10000090 	mulne	r0, r0, r0
    29c8:	02000000 	andeq	r0, r0, #0
    29cc:	00070b1a 	andeq	r0, r7, sl, lsl fp
    29d0:	01281b00 	teqeq	r8, r0, lsl #22
    29d4:	55010000 	strpl	r0, [r1, #-0]
    29d8:	00011d1b 	andeq	r1, r1, fp, lsl sp
    29dc:	1d540100 	ldfnee	f0, [r4, #-0]
    29e0:	000090fc 	strdeq	r9, [r0], -ip
    29e4:	00000004 	andeq	r0, r0, r4
    29e8:	0001321e 	andeq	r3, r1, lr, lsl r2
    29ec:	001d1400 	andseq	r1, sp, r0, lsl #8
    29f0:	1f000000 	svcne	0x00000000
    29f4:	000090fc 	strdeq	r9, [r0], -ip
    29f8:	00001159 	andeq	r1, r0, r9, asr r1
    29fc:	01510120 	cmpeq	r1, r0, lsr #2
    2a00:	50012031 	andpl	r2, r1, r1, lsr r0
    2a04:	00007602 	andeq	r7, r0, r2, lsl #12
    2a08:	04060000 	streq	r0, [r6], #-0
    2a0c:	000000d9 	ldrdeq	r0, [r0], -r9
    2a10:	00086522 	andeq	r6, r8, r2, lsr #10
    2a14:	25270100 	strcs	r0, [r7, #-256]!	; 0x100
    2a18:	03000000 	movweq	r0, #0
    2a1c:	00000762 	andeq	r0, r0, r2, ror #14
    2a20:	0078720f 	rsbseq	r7, r8, pc, lsl #4
    2a24:	00252701 	eoreq	r2, r5, r1, lsl #14
    2a28:	760f0000 	strvc	r0, [pc], -r0
    2a2c:	25270100 	strcs	r0, [r7, #-256]!	; 0x100
    2a30:	0e000000 	cdpeq	0, 0, cr0, cr0, cr0, {0}
    2a34:	000007f2 	strdeq	r0, [r0], -r2
    2a38:	002c2701 	eoreq	r2, ip, r1, lsl #14
    2a3c:	62110000 	andsvs	r0, r1, #0
    2a40:	01000004 	tsteq	r0, r4
    2a44:	00002c28 	andeq	r2, r0, r8, lsr #24
    2a48:	93230000 	teqls	r3, #0
    2a4c:	01000007 	tsteq	r0, r7
    2a50:	00002534 	andeq	r2, r0, r4, lsr r5
    2a54:	00911000 	addseq	r1, r1, r0
    2a58:	0001c800 	andeq	ip, r1, r0, lsl #16
    2a5c:	1e9c0100 	fmlnee	f0, f4, f0
    2a60:	1300000b 	movwne	r0, #11
    2a64:	00000415 	andeq	r0, r0, r5, lsl r4
    2a68:	07223401 	streq	r3, [r2, -r1, lsl #8]!
    2a6c:	1d270000 	stcne	0, cr0, [r7, #-0]
    2a70:	f2130000 	vhadd.s16	d0, d3, d0
    2a74:	01000007 	tsteq	r0, r7
    2a78:	00002534 	andeq	r2, r0, r4, lsr r5
    2a7c:	001d6c00 	andseq	r6, sp, r0, lsl #24
    2a80:	78721500 	ldmdavc	r2!, {r8, sl, ip}^
    2a84:	25350100 	ldrcs	r0, [r5, #-256]!	; 0x100
    2a88:	01000000 	mrseq	r0, (UNDEF: 0)
    2a8c:	00731655 	rsbseq	r1, r3, r5, asr r6
    2a90:	002c3c01 	eoreq	r3, ip, r1, lsl #24
    2a94:	1d8a0000 	stcne	0, cr0, [sl]
    2a98:	75160000 	ldrvc	r0, [r6, #-0]
    2a9c:	683f0100 	ldmdavs	pc!, {r8}	; <UNPREDICTABLE>
    2aa0:	9d000000 	stcls	0, cr0, [r0, #-0]
    2aa4:	1600001d 			; <UNDEFINED> instruction: 0x1600001d
    2aa8:	4001006e 	andmi	r0, r1, lr, rrx
    2aac:	0000002c 	andeq	r0, r0, ip, lsr #32
    2ab0:	00001db0 			; <UNDEFINED> instruction: 0x00001db0
    2ab4:	01006316 	tsteq	r0, r6, lsl r3
    2ab8:	00002c41 	andeq	r2, r0, r1, asr #24
    2abc:	001dc700 	andseq	ip, sp, r0, lsl #14
    2ac0:	07281900 	streq	r1, [r8, -r0, lsl #18]!
    2ac4:	91240000 	teqls	r4, r0
    2ac8:	00340000 	eorseq	r0, r4, r0
    2acc:	38010000 	stmdacc	r1, {}	; <UNPREDICTABLE>
    2ad0:	0000083c 	andeq	r0, r0, ip, lsr r8
    2ad4:	00074b1a 	andeq	r4, r7, sl, lsl fp
    2ad8:	001df100 	andseq	pc, sp, r0, lsl #2
    2adc:	07421c00 	strbeq	r1, [r2, -r0, lsl #24]
    2ae0:	1b000000 	blne	2ae8 <_start-0x5518>
    2ae4:	00000738 	andeq	r0, r0, r8, lsr r7
    2ae8:	241d5501 	ldrcs	r5, [sp], #-1281	; 0x501
    2aec:	34000091 	strcc	r0, [r0], #-145	; 0x91
    2af0:	1e000000 	cdpne	0, 0, cr0, cr0, cr0, {0}
    2af4:	00000756 	andeq	r0, r0, r6, asr r7
    2af8:	00001e0f 	andeq	r1, r0, pc, lsl #28
    2afc:	00912824 	addseq	r2, r1, r4, lsr #16
    2b00:	00116f00 	andseq	r6, r1, r0, lsl #30
    2b04:	91342500 	teqls	r4, r0, lsl #10
    2b08:	117a0000 	cmnne	sl, r0
    2b0c:	08310000 	ldmdaeq	r1!, {}	; <UNPREDICTABLE>
    2b10:	01200000 	teqeq	r0, r0
    2b14:	00750250 	rsbseq	r0, r5, r0, asr r2
    2b18:	91402400 	cmpls	r0, r0, lsl #8
    2b1c:	116f0000 	cmnne	pc, r0
    2b20:	00000000 	andeq	r0, r0, r0
    2b24:	00916017 	addseq	r6, r1, r7, lsl r0
    2b28:	00000400 	andeq	r0, r0, r0, lsl #8
    2b2c:	00085900 	andeq	r5, r8, r0, lsl #18
    2b30:	016f2600 	cmneq	pc, r0, lsl #12
    2b34:	3c010000 	stccc	0, cr0, [r1], {-0}
    2b38:	0000002c 	andeq	r0, r0, ip, lsr #32
    2b3c:	00001e2d 	andeq	r1, r0, sp, lsr #28
    2b40:	01111900 	tsteq	r1, r0, lsl #18
    2b44:	916c0000 	cmnls	ip, r0
    2b48:	00100000 	andseq	r0, r0, r0
    2b4c:	44010000 	strmi	r0, [r1], #-0
    2b50:	00000892 	muleq	r0, r2, r8
    2b54:	0001281a 	andeq	r2, r1, sl, lsl r8
    2b58:	001e4000 	andseq	r4, lr, r0
    2b5c:	011d1a00 	tsteq	sp, r0, lsl #20
    2b60:	1e650000 	cdpne	0, 6, cr0, cr5, cr0, {0}
    2b64:	6c1d0000 	ldcvs	0, cr0, [sp], {-0}
    2b68:	04000091 	streq	r0, [r0], #-145	; 0x91
    2b6c:	1e000000 	cdpne	0, 0, cr0, cr0, cr0, {0}
    2b70:	00000132 	andeq	r0, r0, r2, lsr r1
    2b74:	00001e78 	andeq	r1, r0, r8, ror lr
    2b78:	11190000 	tstne	r9, r0
    2b7c:	8c000001 	stchi	0, cr0, [r0], {1}
    2b80:	10000091 	mulne	r0, r1, r0
    2b84:	01000000 	mrseq	r0, (UNDEF: 0)
    2b88:	0008cb48 	andeq	ip, r8, r8, asr #22
    2b8c:	01281a00 	teqeq	r8, r0, lsl #20
    2b90:	1e8b0000 	cdpne	0, 8, cr0, cr11, cr0, {0}
    2b94:	1d1a0000 	ldcne	0, cr0, [sl, #-0]
    2b98:	9e000001 	cdpls	0, 0, cr0, cr0, cr1, {0}
    2b9c:	1d00001e 	stcne	0, cr0, [r0, #-120]	; 0xffffff88
    2ba0:	0000918c 	andeq	r9, r0, ip, lsl #3
    2ba4:	00000004 	andeq	r0, r0, r4
    2ba8:	0001321e 	andeq	r3, r1, lr, lsl r2
    2bac:	001eb100 	andseq	fp, lr, r0, lsl #2
    2bb0:	19000000 	stmdbne	r0, {}	; <UNPREDICTABLE>
    2bb4:	00000111 	andeq	r0, r0, r1, lsl r1
    2bb8:	000091b0 			; <UNDEFINED> instruction: 0x000091b0
    2bbc:	00000010 	andeq	r0, r0, r0, lsl r0
    2bc0:	09044b01 	stmdbeq	r4, {r0, r8, r9, fp, lr}
    2bc4:	281a0000 	ldmdacs	sl, {}	; <UNPREDICTABLE>
    2bc8:	c4000001 	strgt	r0, [r0], #-1
    2bcc:	1a00001e 	bne	2c4c <_start-0x53b4>
    2bd0:	0000011d 	andeq	r0, r0, sp, lsl r1
    2bd4:	00001ed7 	ldrdeq	r1, [r0], -r7
    2bd8:	0091b01d 	addseq	fp, r1, sp, lsl r0
    2bdc:	00000400 	andeq	r0, r0, r0, lsl #8
    2be0:	01321e00 	teqeq	r2, r0, lsl #28
    2be4:	1eea0000 	cdpne	0, 14, cr0, cr10, cr0, {0}
    2be8:	00000000 	andeq	r0, r0, r0
    2bec:	00011119 	andeq	r1, r1, r9, lsl r1
    2bf0:	0091d400 	addseq	sp, r1, r0, lsl #8
    2bf4:	00001000 	andeq	r1, r0, r0
    2bf8:	3d4e0100 	stfcce	f0, [lr, #-0]
    2bfc:	1a000009 	bne	2c28 <_start-0x53d8>
    2c00:	00000128 	andeq	r0, r0, r8, lsr #2
    2c04:	00001efd 	strdeq	r1, [r0], -sp
    2c08:	00011d1a 	andeq	r1, r1, sl, lsl sp
    2c0c:	001f1000 	andseq	r1, pc, r0
    2c10:	91d41d00 	bicsls	r1, r4, r0, lsl #26
    2c14:	00040000 	andeq	r0, r4, r0
    2c18:	321e0000 	andscc	r0, lr, #0
    2c1c:	23000001 	movwcs	r0, #1
    2c20:	0000001f 	andeq	r0, r0, pc, lsl r0
    2c24:	01111900 	tsteq	r1, r0, lsl #18
    2c28:	91f80000 	mvnsls	r0, r0
    2c2c:	00100000 	andseq	r0, r0, r0
    2c30:	51010000 	mrspl	r0, (UNDEF: 1)
    2c34:	00000976 	andeq	r0, r0, r6, ror r9
    2c38:	0001281a 	andeq	r2, r1, sl, lsl r8
    2c3c:	001f3600 	andseq	r3, pc, r0, lsl #12
    2c40:	011d1a00 	tsteq	sp, r0, lsl #20
    2c44:	1f490000 	svcne	0x00490000
    2c48:	f81d0000 			; <UNDEFINED> instruction: 0xf81d0000
    2c4c:	04000091 	streq	r0, [r0], #-145	; 0x91
    2c50:	1e000000 	cdpne	0, 0, cr0, cr0, cr0, {0}
    2c54:	00000132 	andeq	r0, r0, r2, lsr r1
    2c58:	00001f5c 	andeq	r1, r0, ip, asr pc
    2c5c:	11190000 	tstne	r9, r0
    2c60:	1c000001 	stcne	0, cr0, [r0], {1}
    2c64:	10000092 	mulne	r0, r2, r0
    2c68:	01000000 	mrseq	r0, (UNDEF: 0)
    2c6c:	0009af54 	andeq	sl, r9, r4, asr pc
    2c70:	01281a00 	teqeq	r8, r0, lsl #20
    2c74:	1f6f0000 	svcne	0x006f0000
    2c78:	1d1a0000 	ldcne	0, cr0, [sl, #-0]
    2c7c:	82000001 	andhi	r0, r0, #1
    2c80:	1d00001f 	stcne	0, cr0, [r0, #-124]	; 0xffffff84
    2c84:	0000921c 	andeq	r9, r0, ip, lsl r2
    2c88:	00000004 	andeq	r0, r0, r4
    2c8c:	0001321e 	andeq	r3, r1, lr, lsl r2
    2c90:	001f9500 	andseq	r9, pc, r0, lsl #10
    2c94:	19000000 	stmdbne	r0, {}	; <UNPREDICTABLE>
    2c98:	00000111 	andeq	r0, r0, r1, lsl r1
    2c9c:	00009240 	andeq	r9, r0, r0, asr #4
    2ca0:	00000010 	andeq	r0, r0, r0, lsl r0
    2ca4:	09e85701 	stmibeq	r8!, {r0, r8, r9, sl, ip, lr}^
    2ca8:	281a0000 	ldmdacs	sl, {}	; <UNPREDICTABLE>
    2cac:	a8000001 	stmdage	r0, {r0}
    2cb0:	1a00001f 	bne	2d34 <_start-0x52cc>
    2cb4:	0000011d 	andeq	r0, r0, sp, lsl r1
    2cb8:	00001fbb 			; <UNDEFINED> instruction: 0x00001fbb
    2cbc:	0092401d 	addseq	r4, r2, sp, lsl r0
    2cc0:	00000400 	andeq	r0, r0, r0, lsl #8
    2cc4:	01321e00 	teqeq	r2, r0, lsl #28
    2cc8:	1fce0000 	svcne	0x00ce0000
    2ccc:	00000000 	andeq	r0, r0, r0
    2cd0:	00011119 	andeq	r1, r1, r9, lsl r1
    2cd4:	00926400 	addseq	r6, r2, r0, lsl #8
    2cd8:	00001000 	andeq	r1, r0, r0
    2cdc:	1d5a0100 	ldfnee	f0, [sl, #-0]
    2ce0:	1a00000a 	bne	2d10 <_start-0x52f0>
    2ce4:	00000128 	andeq	r0, r0, r8, lsr #2
    2ce8:	00001fe1 	andeq	r1, r0, r1, ror #31
    2cec:	00011d27 	andeq	r1, r1, r7, lsr #26
    2cf0:	92641d00 	rsbls	r1, r4, #0, 26
    2cf4:	00040000 	andeq	r0, r4, r0
    2cf8:	321e0000 	andscc	r0, lr, #0
    2cfc:	f4000001 	vst4.8	{d0-d3}, [r0], r1
    2d00:	0000001f 	andeq	r0, r0, pc, lsl r0
    2d04:	07281900 	streq	r1, [r8, -r0, lsl #18]!
    2d08:	92840000 	addls	r0, r4, #0
    2d0c:	00340000 	eorseq	r0, r4, r0
    2d10:	61010000 	mrsvs	r0, (UNDEF: 1)
    2d14:	00000a81 	andeq	r0, r0, r1, lsl #21
    2d18:	00074b27 	andeq	r4, r7, r7, lsr #22
    2d1c:	07421a00 	strbeq	r1, [r2, -r0, lsl #20]
    2d20:	20070000 	andcs	r0, r7, r0
    2d24:	381a0000 	ldmdacc	sl, {}	; <UNPREDICTABLE>
    2d28:	27000007 	strcs	r0, [r0, -r7]
    2d2c:	1d000020 	stcne	0, cr0, [r0, #-128]	; 0xffffff80
    2d30:	00009284 	andeq	r9, r0, r4, lsl #5
    2d34:	00000034 	andeq	r0, r0, r4, lsr r0
    2d38:	0007561e 	andeq	r5, r7, lr, lsl r6
    2d3c:	00204500 	eoreq	r4, r0, r0, lsl #10
    2d40:	92882400 	addls	r2, r8, #0, 8
    2d44:	116f0000 	cmnne	pc, r0
    2d48:	94250000 	strtls	r0, [r5], #-0
    2d4c:	7a000092 	bvc	2f9c <_start-0x5064>
    2d50:	76000011 			; <UNDEFINED> instruction: 0x76000011
    2d54:	2000000a 	andcs	r0, r0, sl
    2d58:	75025001 	strvc	r5, [r2, #-1]
    2d5c:	a0240000 	eorge	r0, r4, r0
    2d60:	6f000092 	svcvs	0x00000092
    2d64:	00000011 	andeq	r0, r0, r1, lsl r0
    2d68:	91882500 	orrls	r2, r8, r0, lsl #10
    2d6c:	117a0000 	cmnne	sl, r0
    2d70:	0a950000 	beq	fe542d78 <__bss_end__+0xfe538de8>
    2d74:	01200000 	teqeq	r0, r0
    2d78:	00750250 	rsbseq	r0, r5, r0, asr r2
    2d7c:	91a82500 			; <UNDEFINED> instruction: 0x91a82500
    2d80:	117a0000 	cmnne	sl, r0
    2d84:	0aa90000 	beq	fea42d8c <__bss_end__+0xfea38dfc>
    2d88:	01200000 	teqeq	r0, r0
    2d8c:	00750250 	rsbseq	r0, r5, r0, asr r2
    2d90:	91cc2500 	bicls	r2, ip, r0, lsl #10
    2d94:	117a0000 	cmnne	sl, r0
    2d98:	0abd0000 	beq	fef42da0 <__bss_end__+0xfef38e10>
    2d9c:	01200000 	teqeq	r0, r0
    2da0:	00750250 	rsbseq	r0, r5, r0, asr r2
    2da4:	91f02500 	mvnsls	r2, r0, lsl #10
    2da8:	117a0000 	cmnne	sl, r0
    2dac:	0ad10000 	beq	ff442db4 <__bss_end__+0xff438e24>
    2db0:	01200000 	teqeq	r0, r0
    2db4:	00750250 	rsbseq	r0, r5, r0, asr r2
    2db8:	92142500 	andsls	r2, r4, #0, 10
    2dbc:	117a0000 	cmnne	sl, r0
    2dc0:	0ae50000 	beq	ff942dc8 <__bss_end__+0xff938e38>
    2dc4:	01200000 	teqeq	r0, r0
    2dc8:	00750250 	rsbseq	r0, r5, r0, asr r2
    2dcc:	92382500 	eorsls	r2, r8, #0, 10
    2dd0:	117a0000 	cmnne	sl, r0
    2dd4:	0af90000 	beq	ffe42ddc <__bss_end__+0xffe38e4c>
    2dd8:	01200000 	teqeq	r0, r0
    2ddc:	00750250 	rsbseq	r0, r5, r0, asr r2
    2de0:	925c2500 	subsls	r2, ip, #0, 10
    2de4:	117a0000 	cmnne	sl, r0
    2de8:	0b0d0000 	bleq	342df0 <__bss_end__+0x338e60>
    2dec:	01200000 	teqeq	r0, r0
    2df0:	00750250 	rsbseq	r0, r5, r0, asr r2
    2df4:	927c1f00 	rsbsls	r1, ip, #0, 30
    2df8:	117a0000 	cmnne	sl, r0
    2dfc:	01200000 	teqeq	r0, r0
    2e00:	00750250 	rsbseq	r0, r5, r0, asr r2
    2e04:	a8230000 	stmdage	r3!, {}	; <UNPREDICTABLE>
    2e08:	01000007 	tsteq	r0, r7
    2e0c:	0000256c 	andeq	r2, r0, ip, ror #10
    2e10:	0092d800 	addseq	sp, r2, r0, lsl #16
    2e14:	0000a400 	andeq	sl, r0, r0, lsl #8
    2e18:	0c9c0100 	ldfeqs	f0, [ip], {0}
    2e1c:	1400000c 	strne	r0, [r0], #-12
    2e20:	6c010075 	stcvs	0, cr0, [r1], {117}	; 0x75
    2e24:	00000722 	andeq	r0, r0, r2, lsr #14
    2e28:	00002063 	andeq	r2, r0, r3, rrx
    2e2c:	66756214 			; <UNDEFINED> instruction: 0x66756214
    2e30:	0c6c0100 	stfeqe	f0, [ip], #-0
    2e34:	a500000c 	strge	r0, [r0, #-12]
    2e38:	13000020 	movwne	r0, #32
    2e3c:	0000083a 	andeq	r0, r0, sl, lsr r8
    2e40:	00686c01 	rsbeq	r6, r8, r1, lsl #24
    2e44:	20e70000 	rsccs	r0, r7, r0
    2e48:	65140000 	ldrvs	r0, [r4, #-0]
    2e4c:	0100646e 	tsteq	r0, lr, ror #8
    2e50:	00004f6c 	andeq	r4, r0, ip, ror #30
    2e54:	00212e00 	eoreq	r2, r1, r0, lsl #28
    2e58:	08412800 	stmdaeq	r1, {fp, sp}^
    2e5c:	6c010000 	stcvs	0, cr0, [r1], {-0}
    2e60:	00000068 	andeq	r0, r0, r8, rrx
    2e64:	29009102 	stmdbcs	r0, {r1, r8, ip, pc}
    2e68:	0000032a 	andeq	r0, r0, sl, lsr #6
    2e6c:	00000c22 	andeq	r0, r0, r2, lsr #24
    2e70:	9a680305 	bls	1a03a8c <__bss_end__+0x19f9afc>
    2e74:	69160000 	ldmdbvs	r6, {}	; <UNPREDICTABLE>
    2e78:	25700100 	ldrbcs	r0, [r0, #-256]!	; 0x100
    2e7c:	68000000 	stmdavs	r0, {}	; <UNPREDICTABLE>
    2e80:	26000021 	strcs	r0, [r0], -r1, lsr #32
    2e84:	0000081d 	andeq	r0, r0, sp, lsl r8
    2e88:	004f7101 	subeq	r7, pc, r1, lsl #2
    2e8c:	21920000 	orrscs	r0, r2, r0
    2e90:	fc240000 	stc2	0, cr0, [r4], #-0
    2e94:	8f000092 	svchi	0x00000092
    2e98:	25000011 	strcs	r0, [r0, #-17]
    2e9c:	00009318 	andeq	r9, r0, r8, lsl r3
    2ea0:	00001196 	muleq	r0, r6, r1
    2ea4:	00000bec 	andeq	r0, r0, ip, ror #23
    2ea8:	02530120 	subseq	r0, r3, #32, 2
    2eac:	01206d08 	teqeq	r0, r8, lsl #26
    2eb0:	68030552 	stmdavs	r3, {r1, r4, r6, r8, sl}
    2eb4:	2000009a 	mulcs	r0, sl, r0
    2eb8:	03055101 	movweq	r5, #20737	; 0x5101
    2ebc:	00009ae0 	andeq	r9, r0, r0, ror #21
    2ec0:	05500120 	ldrbeq	r0, [r0, #-288]	; 0x120
    2ec4:	00996803 	addseq	r6, r9, r3, lsl #16
    2ec8:	7d022000 	stcvc	0, cr2, [r2, #-0]
    2ecc:	f4030500 	vst3.8	{d0,d2,d4}, [r3], r0
    2ed0:	0000009a 	muleq	r0, sl, r0
    2ed4:	00931c24 	addseq	r1, r3, r4, lsr #24
    2ed8:	0011ac00 	andseq	sl, r1, r0, lsl #24
    2edc:	93381f00 	teqls	r8, #0, 30
    2ee0:	07620000 	strbeq	r0, [r2, -r0]!
    2ee4:	01200000 	teqeq	r0, r0
    2ee8:	007a0251 	rsbseq	r0, sl, r1, asr r2
    2eec:	02500120 	subseq	r0, r0, #32, 2
    2ef0:	00000078 	andeq	r0, r0, r8, ror r0
    2ef4:	004f0406 	subeq	r0, pc, r6, lsl #8
    2ef8:	902a0000 	eorls	r0, sl, r0
    2efc:	22000000 	andcs	r0, r0, #0
    2f00:	2b00000c 	blcs	2f38 <_start-0x50c8>
    2f04:	00000081 	andeq	r0, r0, r1, lsl #1
    2f08:	12070012 	andne	r0, r7, #18
    2f0c:	2300000c 	movwcs	r0, #12
    2f10:	00000825 	andeq	r0, r0, r5, lsr #16
    2f14:	00258001 	eoreq	r8, r5, r1
    2f18:	937c0000 	cmnls	ip, #0
    2f1c:	00900000 	addseq	r0, r0, r0
    2f20:	9c010000 	stcls	0, cr0, [r1], {-0}
    2f24:	00000cf8 	strdeq	r0, [r0], -r8
    2f28:	01007514 	tsteq	r0, r4, lsl r5
    2f2c:	00072280 	andeq	r2, r7, r0, lsl #5
    2f30:	0021a500 	eoreq	sl, r1, r0, lsl #10
    2f34:	75621400 	strbvc	r1, [r2, #-1024]!	; 0x400
    2f38:	80010066 	andhi	r0, r1, r6, rrx
    2f3c:	00000c0c 	andeq	r0, r0, ip, lsl #24
    2f40:	000021e7 	andeq	r2, r0, r7, ror #3
    2f44:	00083a13 	andeq	r3, r8, r3, lsl sl
    2f48:	68810100 	stmvs	r1, {r8}
    2f4c:	29000000 	stmdbcs	r0, {}	; <UNPREDICTABLE>
    2f50:	13000022 	movwne	r0, #34	; 0x22
    2f54:	00000841 	andeq	r0, r0, r1, asr #16
    2f58:	00688101 	rsbeq	r8, r8, r1, lsl #2
    2f5c:	22700000 	rsbscs	r0, r0, #0
    2f60:	2a290000 	bcs	a42f68 <__bss_end__+0xa38fd8>
    2f64:	08000003 	stmdaeq	r0, {r0, r1}
    2f68:	0500000d 	streq	r0, [r0, #-13]
    2f6c:	009a7c03 	addseq	r7, sl, r3, lsl #24
    2f70:	00691600 	rsbeq	r1, r9, r0, lsl #12
    2f74:	00258601 	eoreq	r8, r5, r1, lsl #12
    2f78:	22b20000 	adcscs	r0, r2, #0
    2f7c:	9c240000 	stcls	0, cr0, [r4], #-0
    2f80:	8f000093 	svchi	0x00000093
    2f84:	25000011 	strcs	r0, [r0, #-17]
    2f88:	000093b8 			; <UNDEFINED> instruction: 0x000093b8
    2f8c:	00001196 	muleq	r0, r6, r1
    2f90:	00000cd8 	ldrdeq	r0, [r0], -r8
    2f94:	02530120 	subseq	r0, r3, #32, 2
    2f98:	01208308 	teqeq	r0, r8, lsl #6
    2f9c:	7c030552 	cfstr32vc	mvfx0, [r3], {82}	; 0x52
    2fa0:	2000009a 	mulcs	r0, sl, r0
    2fa4:	03055101 	movweq	r5, #20737	; 0x5101
    2fa8:	00009ae0 	andeq	r9, r0, r0, ror #21
    2fac:	05500120 	ldrbeq	r0, [r0, #-288]	; 0x120
    2fb0:	00996803 	addseq	r6, r9, r3, lsl #16
    2fb4:	7d022000 	stcvc	0, cr2, [r2, #-0]
    2fb8:	f4030500 	vst3.8	{d0,d2,d4}, [r3], r0
    2fbc:	0000009a 	muleq	r0, sl, r0
    2fc0:	0093bc24 	addseq	fp, r3, r4, lsr #24
    2fc4:	0011ac00 	andseq	sl, r1, r0, lsl #24
    2fc8:	93d81f00 	bicsls	r1, r8, #0, 30
    2fcc:	07620000 	strbeq	r0, [r2, -r0]!
    2fd0:	01200000 	teqeq	r0, r0
    2fd4:	00780251 	rsbseq	r0, r8, r1, asr r2
    2fd8:	02500120 	subseq	r0, r0, #32, 2
    2fdc:	00000077 	andeq	r0, r0, r7, ror r0
    2fe0:	0000902a 	andeq	r9, r0, sl, lsr #32
    2fe4:	000d0800 	andeq	r0, sp, r0, lsl #16
    2fe8:	00812b00 	addeq	r2, r1, r0, lsl #22
    2fec:	00140000 	andseq	r0, r4, r0
    2ff0:	000cf807 	andeq	pc, ip, r7, lsl #16
    2ff4:	07de2300 	ldrbeq	r2, [lr, r0, lsl #6]
    2ff8:	93010000 	movwls	r0, #4096	; 0x1000
    2ffc:	000000d9 	ldrdeq	r0, [r0], -r9
    3000:	0000940c 	andeq	r9, r0, ip, lsl #8
    3004:	000000d4 	ldrdeq	r0, [r0], -r4
    3008:	0e329c01 	cdpeq	12, 3, cr9, cr2, cr1, {0}
    300c:	74140000 	ldrvc	r0, [r4], #-0
    3010:	93010078 	movwls	r0, #4216	; 0x1078
    3014:	0000004f 	andeq	r0, r0, pc, asr #32
    3018:	000022dc 	ldrdeq	r2, [r0], -ip
    301c:	00787214 	rsbseq	r7, r8, r4, lsl r2
    3020:	004f9301 	subeq	r9, pc, r1, lsl #6
    3024:	22fd0000 	rscscs	r0, sp, #0
    3028:	4e130000 	cdpmi	0, 1, cr0, cr3, cr0, {0}
    302c:	01000004 	tsteq	r0, r4
    3030:	00006893 	muleq	r0, r3, r8
    3034:	00231e00 	eoreq	r1, r3, r0, lsl #28
    3038:	07772800 	ldrbeq	r2, [r7, -r0, lsl #16]!
    303c:	93010000 	movwls	r0, #4096	; 0x1000
    3040:	00000068 	andeq	r0, r0, r8, rrx
    3044:	2c009102 	stfcsd	f1, [r0], {2}
    3048:	007a686d 	rsbseq	r6, sl, sp, ror #16
    304c:	002c9b01 	eoreq	r9, ip, r1, lsl #22
    3050:	27000000 	strcs	r0, [r0, -r0]
    3054:	c82629b9 	stmdagt	r6!, {r0, r3, r4, r5, r7, r8, fp, sp}
    3058:	01000007 	tsteq	r0, r7
    305c:	00002c9c 	muleq	r0, ip, ip
    3060:	00234800 	eoreq	r4, r3, r0, lsl #16
    3064:	032a2900 	teqeq	sl, #0, 18
    3068:	0e420000 	cdpeq	0, 4, cr0, cr2, cr0, {0}
    306c:	03050000 	movweq	r0, #20480	; 0x5000
    3070:	00009a94 	muleq	r0, r4, sl
    3074:	00943817 	addseq	r3, r4, r7, lsl r8
    3078:	00000800 	andeq	r0, r0, r0, lsl #16
    307c:	000da500 	andeq	sl, sp, r0, lsl #10
    3080:	6e692d00 	cdpvs	13, 6, cr2, cr9, cr0, {0}
    3084:	2c970100 	ldfcss	f0, [r7], {0}
    3088:	01000000 	mrseq	r0, (UNDEF: 0)
    308c:	94302500 	ldrtls	r2, [r0], #-1280	; 0x500
    3090:	11b30000 			; <UNDEFINED> instruction: 0x11b30000
    3094:	0db90000 	ldceq	0, cr0, [r9]
    3098:	01200000 	teqeq	r0, r0
    309c:	00760250 	rsbseq	r0, r6, r0, asr r2
    30a0:	94382500 	ldrtls	r2, [r8], #-1280	; 0x500
    30a4:	11c40000 	bicne	r0, r4, r0
    30a8:	0dcd0000 	stcleq	0, cr0, [sp]
    30ac:	01200000 	teqeq	r0, r0
    30b0:	00780250 	rsbseq	r0, r8, r0, asr r2
    30b4:	944c2500 	strbls	r2, [ip], #-1280	; 0x500
    30b8:	11590000 	cmpne	r9, r0
    30bc:	0de60000 	stcleq	0, cr0, [r6]
    30c0:	01200000 	teqeq	r0, r0
    30c4:	20310151 	eorscs	r0, r1, r1, asr r1
    30c8:	76025001 	strvc	r5, [r2], -r1
    30cc:	90240000 	eorls	r0, r4, r0
    30d0:	8f000094 	svchi	0x00000094
    30d4:	25000011 	strcs	r0, [r0, #-17]
    30d8:	000094ac 	andeq	r9, r0, ip, lsr #9
    30dc:	00001196 	muleq	r0, r6, r1
    30e0:	00000e28 	andeq	r0, r0, r8, lsr #28
    30e4:	02530120 	subseq	r0, r3, #32, 2
    30e8:	01209d08 	teqeq	r0, r8, lsl #26
    30ec:	94030552 	strls	r0, [r3], #-1362	; 0x552
    30f0:	2000009a 	mulcs	r0, sl, r0
    30f4:	03055101 	movweq	r5, #20737	; 0x5101
    30f8:	00009ae0 	andeq	r9, r0, r0, ror #21
    30fc:	05500120 	ldrbeq	r0, [r0, #-288]	; 0x120
    3100:	00996803 	addseq	r6, r9, r3, lsl #16
    3104:	7d022000 	stcvc	0, cr2, [r2, #-0]
    3108:	00030500 	andeq	r0, r3, r0, lsl #10
    310c:	0000009b 	muleq	r0, fp, r0
    3110:	0094b024 	addseq	fp, r4, r4, lsr #32
    3114:	0011ac00 	andseq	sl, r1, r0, lsl #24
    3118:	902a0000 	eorls	r0, sl, r0
    311c:	42000000 	andmi	r0, r0, #0
    3120:	2b00000e 	blcs	3160 <_start-0x4ea0>
    3124:	00000081 	andeq	r0, r0, r1, lsl #1
    3128:	32070013 	andcc	r0, r7, #19
    312c:	2300000e 	movwcs	r0, #14
    3130:	000007bb 			; <UNDEFINED> instruction: 0x000007bb
    3134:	0025a901 	eoreq	sl, r5, r1, lsl #18
    3138:	94e00000 	strbtls	r0, [r0], #0
    313c:	003c0000 	eorseq	r0, ip, r0
    3140:	9c010000 	stcls	0, cr0, [r1], {-0}
    3144:	00000eea 	andeq	r0, r0, sl, ror #29
    3148:	00041513 	andeq	r1, r4, r3, lsl r5
    314c:	22a90100 	adccs	r0, r9, #0, 2
    3150:	76000007 	strvc	r0, [r0], -r7
    3154:	16000023 	strne	r0, [r0], -r3, lsr #32
    3158:	00736572 	rsbseq	r6, r3, r2, ror r5
    315c:	0025aa01 	eoreq	sl, r5, r1, lsl #20
    3160:	23970000 	orrscs	r0, r7, #0
    3164:	2a290000 	bcs	a4316c <__bss_end__+0xa391dc>
    3168:	fa000003 	blx	317c <_start-0x4e84>
    316c:	0500000e 	streq	r0, [r0, #-14]
    3170:	009aa803 	addseq	sl, sl, r3, lsl #16
    3174:	94ec2500 	strbtls	r2, [ip], #1280	; 0x500
    3178:	07620000 	strbeq	r0, [r2, -r0]!
    317c:	0ea80000 	cdpeq	0, 10, cr0, cr8, cr0, {0}
    3180:	01200000 	teqeq	r0, r0
    3184:	ff090251 			; <UNDEFINED> instruction: 0xff090251
    3188:	03500120 	cmpeq	r0, #32, 2
    318c:	005001f3 	ldrsheq	r0, [r0], #-19	; 0xffffffed
    3190:	0094f824 	addseq	pc, r4, r4, lsr #16
    3194:	00118f00 	andseq	r8, r1, r0, lsl #30
    3198:	950c2500 	strls	r2, [ip, #-1280]	; 0x500
    319c:	11960000 	orrsne	r0, r6, r0
    31a0:	0ee00000 	cdpeq	0, 14, cr0, cr0, cr0, {0}
    31a4:	01200000 	teqeq	r0, r0
    31a8:	ac080253 	sfmge	f0, 4, [r8], {83}	; 0x53
    31ac:	05520120 	ldrbeq	r0, [r2, #-288]	; 0x120
    31b0:	009aa803 	addseq	sl, sl, r3, lsl #16
    31b4:	51012000 	mrspl	r2, (UNDEF: 1)
    31b8:	9ae00305 	bls	ff803dd4 <__bss_end__+0xff7f9e44>
    31bc:	01200000 	teqeq	r0, r0
    31c0:	34030550 	strcc	r0, [r3], #-1360	; 0x550
    31c4:	0000009b 	muleq	r0, fp, r0
    31c8:	00951024 	addseq	r1, r5, r4, lsr #32
    31cc:	0011ac00 	andseq	sl, r1, r0, lsl #24
    31d0:	902a0000 	eorls	r0, sl, r0
    31d4:	fa000000 	blx	31dc <_start-0x4e24>
    31d8:	2b00000e 	blcs	3218 <_start-0x4de8>
    31dc:	00000081 	andeq	r0, r0, r1, lsl #1
    31e0:	ea07000c 	b	1c3218 <__bss_end__+0x1b9288>
    31e4:	1200000e 	andne	r0, r0, #14
    31e8:	000007ff 	strdeq	r0, [r0], -pc	; <UNPREDICTABLE>
    31ec:	951cb001 	ldrls	fp, [ip, #-1]
    31f0:	002c0000 	eoreq	r0, ip, r0
    31f4:	9c010000 	stcls	0, cr0, [r1], {-0}
    31f8:	00000f43 	andeq	r0, r0, r3, asr #30
    31fc:	00041513 	andeq	r1, r4, r3, lsl r5
    3200:	22b00100 	adcscs	r0, r0, #0, 2
    3204:	aa000007 	bge	3228 <_start-0x4dd8>
    3208:	14000023 	strne	r0, [r0], #-35	; 0x23
    320c:	0067736d 	rsbeq	r7, r7, sp, ror #6
    3210:	0097b001 	addseq	fp, r7, r1
    3214:	23c80000 	biccs	r0, r8, #0
    3218:	341f0000 	ldrcc	r0, [pc], #-0	; 3220 <_start-0x4de0>
    321c:	76000095 			; <UNDEFINED> instruction: 0x76000095
    3220:	20000001 	andcs	r0, r0, r1
    3224:	75025001 	strvc	r5, [r2, #-1]
    3228:	23000000 	movwcs	r0, #0
    322c:	0000041a 	andeq	r0, r0, sl, lsl r4
    3230:	0025b901 	eoreq	fp, r5, r1, lsl #18
    3234:	95480000 	strbls	r0, [r8, #-0]
    3238:	00900000 	addseq	r0, r0, r0
    323c:	9c010000 	stcls	0, cr0, [r1], {-0}
    3240:	00001041 	andeq	r1, r0, r1, asr #32
    3244:	00041513 	andeq	r1, r4, r3, lsl r5
    3248:	22b90100 	adcscs	r0, r9, #0, 2
    324c:	e6000007 	str	r0, [r0], -r7
    3250:	2e000023 	cdpcs	0, 0, cr0, cr0, cr3, {1}
    3254:	00746d66 	rsbseq	r6, r4, r6, ror #26
    3258:	0097b901 	addseq	fp, r7, r1, lsl #18
    325c:	91020000 	mrsls	r0, (UNDEF: 2)
    3260:	62152f74 	andsvs	r2, r5, #116, 30	; 0x1d0
    3264:	01006675 	tsteq	r0, r5, ror r6
    3268:	001041ba 			; <UNDEFINED> instruction: 0x001041ba
    326c:	9c910300 	ldcls	3, cr0, [r1], {0}
    3270:	02e4187c 	rsceq	r1, r4, #124, 16	; 0x7c0000
    3274:	bc010000 	stclt	0, cr0, [r1], {-0}
    3278:	00000106 	andeq	r0, r0, r6, lsl #2
    327c:	7c989103 	ldfvcd	f1, [r8], {3}
    3280:	007a7316 	rsbseq	r7, sl, r6, lsl r3
    3284:	0025be01 	eoreq	fp, r5, r1, lsl #28
    3288:	24120000 	ldrcs	r0, [r2], #-0
    328c:	2a290000 	bcs	a43294 <__bss_end__+0xa39304>
    3290:	62000003 	andvs	r0, r0, #3
    3294:	05000010 	streq	r0, [r0, #-16]
    3298:	009ab803 	addseq	fp, sl, r3, lsl #16
    329c:	95702500 	ldrbls	r2, [r0, #-1280]!	; 0x500
    32a0:	11d50000 	bicsne	r0, r5, r0
    32a4:	0fde0000 	svceq	0x00de0000
    32a8:	01200000 	teqeq	r0, r0
    32ac:	58910253 	ldmpl	r1, {r0, r1, r4, r6, r9}
    32b0:	03520120 	cmpeq	r2, #32, 2
    32b4:	20065491 	mulcs	r6, r1, r4
    32b8:	0a035101 	beq	d76c4 <__bss_end__+0xcd734>
    32bc:	012001cc 	smlawteq	r0, ip, r1, r0
    32c0:	fc910350 	ldc2	3, cr0, [r1], {80}	; 0x50
    32c4:	8424007b 	strthi	r0, [r4], #-123	; 0x7b
    32c8:	8f000095 	svchi	0x00000095
    32cc:	25000011 	strcs	r0, [r0, #-17]
    32d0:	000095a0 	andeq	r9, r0, r0, lsr #11
    32d4:	00001196 	muleq	r0, r6, r1
    32d8:	00001020 	andeq	r1, r0, r0, lsr #32
    32dc:	02530120 	subseq	r0, r3, #32, 2
    32e0:	0120c008 	teqeq	r0, r8
    32e4:	b8030552 	stmdalt	r3, {r1, r4, r6, r8, sl}
    32e8:	2000009a 	mulcs	r0, sl, r0
    32ec:	03055101 	movweq	r5, #20737	; 0x5101
    32f0:	00009ae0 	andeq	r9, r0, r0, ror #21
    32f4:	05500120 	ldrbeq	r0, [r0, #-288]	; 0x120
    32f8:	00996803 	addseq	r6, r9, r3, lsl #16
    32fc:	7d022000 	stcvc	0, cr2, [r2, #-0]
    3300:	6c030500 	cfstr32vs	mvfx0, [r3], {-0}
    3304:	0000009b 	muleq	r0, fp, r0
    3308:	0095a424 	addseq	sl, r5, r4, lsr #8
    330c:	0011ac00 	andseq	sl, r1, r0, lsl #24
    3310:	95b01f00 	ldrls	r1, [r0, #3840]!	; 0xf00
    3314:	0eff0000 	cdpeq	0, 15, cr0, cr15, cr0, {0}
    3318:	01200000 	teqeq	r0, r0
    331c:	fc910351 	ldc2	3, cr0, [r1], {81}	; 0x51
    3320:	5001207b 	andpl	r2, r1, fp, ror r0
    3324:	00007502 	andeq	r7, r0, r2, lsl #10
    3328:	00902a00 	addseq	r2, r0, r0, lsl #20
    332c:	10520000 	subsne	r0, r2, r0
    3330:	81300000 	teqhi	r0, r0
    3334:	cb000000 	blgt	333c <_start-0x4cc4>
    3338:	902a0001 	eorls	r0, sl, r1
    333c:	62000000 	andvs	r0, r0, #0
    3340:	2b000010 	blcs	3388 <_start-0x4c78>
    3344:	00000081 	andeq	r0, r0, r1, lsl #1
    3348:	5207000e 	andpl	r0, r7, #14
    334c:	23000010 	movwcs	r0, #16
    3350:	0000084e 	andeq	r0, r0, lr, asr #16
    3354:	0025c501 	eoreq	ip, r5, r1, lsl #10
    3358:	95d80000 	ldrbls	r0, [r8]
    335c:	004c0000 	subeq	r0, ip, r0
    3360:	9c010000 	stcls	0, cr0, [r1], {-0}
    3364:	00001144 	andeq	r1, r0, r4, asr #2
    3368:	01007514 	tsteq	r0, r4, lsl r5
    336c:	000722c5 	andeq	r2, r7, r5, asr #5
    3370:	00245100 	eoreq	r5, r4, r0, lsl #2
    3374:	75621400 	strbvc	r1, [r2, #-1024]!	; 0x400
    3378:	c5010066 	strgt	r0, [r1, #-102]	; 0x66
    337c:	00000c0c 	andeq	r0, r0, ip, lsl #24
    3380:	00002472 	andeq	r2, r0, r2, ror r4
    3384:	00083a13 	andeq	r3, r8, r3, lsl sl
    3388:	68c50100 	stmiavs	r5, {r8}^
    338c:	93000000 	movwls	r0, #0
    3390:	14000024 	strne	r0, [r0], #-36	; 0x24
    3394:	00646e65 	rsbeq	r6, r4, r5, ror #28
    3398:	004fc501 	subeq	ip, pc, r1, lsl #10
    339c:	24b40000 	ldrtcs	r0, [r4], #0
    33a0:	72160000 	andsvc	r0, r6, #0
    33a4:	01007365 	tsteq	r0, r5, ror #6
    33a8:	000025c6 	andeq	r2, r0, r6, asr #11
    33ac:	0024d500 	eoreq	sp, r4, r0, lsl #10
    33b0:	032a2900 	teqeq	sl, #0, 18
    33b4:	11540000 	cmpne	r4, r0
    33b8:	03050000 	movweq	r0, #20480	; 0x5000
    33bc:	00009ac8 	andeq	r9, r0, r8, asr #21
    33c0:	0095ec25 	addseq	lr, r5, r5, lsr #24
    33c4:	000b1e00 	andeq	r1, fp, r0, lsl #28
    33c8:	00110200 	andseq	r0, r1, r0, lsl #4
    33cc:	52012000 	andpl	r2, r1, #0
    33d0:	5201f303 	andpl	pc, r1, #201326592	; 0xc000000
    33d4:	03510120 	cmpeq	r1, #32, 2
    33d8:	205101f3 	ldrshcs	r0, [r1], #-19	; 0xffffffed
    33dc:	f3035001 	vhadd.u8	d5, d3, d1
    33e0:	02205001 	eoreq	r5, r0, #1
    33e4:	0902007d 	stmdbeq	r2, {r0, r2, r3, r4, r5, r6}
    33e8:	f82400ff 			; <UNDEFINED> instruction: 0xf82400ff
    33ec:	8f000095 	svchi	0x00000095
    33f0:	25000011 	strcs	r0, [r0, #-17]
    33f4:	0000960c 	andeq	r9, r0, ip, lsl #12
    33f8:	00001196 	muleq	r0, r6, r1
    33fc:	0000113a 	andeq	r1, r0, sl, lsr r1
    3400:	02530120 	subseq	r0, r3, #32, 2
    3404:	0120c808 	teqeq	r0, r8, lsl #16
    3408:	c8030552 	stmdagt	r3, {r1, r4, r6, r8, sl}
    340c:	2000009a 	mulcs	r0, sl, r0
    3410:	03055101 	movweq	r5, #20737	; 0x5101
    3414:	00009ae0 	andeq	r9, r0, r0, ror #21
    3418:	05500120 	ldrbeq	r0, [r0, #-288]	; 0x120
    341c:	009b3403 	addseq	r3, fp, r3, lsl #8
    3420:	10240000 	eorne	r0, r4, r0
    3424:	ac000096 	stcge	0, cr0, [r0], {150}	; 0x96
    3428:	00000011 	andeq	r0, r0, r1, lsl r0
    342c:	0000902a 	andeq	r9, r0, sl, lsr #32
    3430:	00115400 	andseq	r5, r1, r0, lsl #8
    3434:	00812b00 	addeq	r2, r1, r0, lsl #22
    3438:	00160000 	andseq	r0, r6, r0
    343c:	00114407 	andseq	r4, r1, r7, lsl #8
    3440:	013b3100 	teqeq	fp, r0, lsl #2
    3444:	21060000 	mrscs	r0, (UNDEF: 6)
    3448:	0000116f 	andeq	r1, r0, pc, ror #2
    344c:	00002c32 	andeq	r2, r0, r2, lsr ip
    3450:	002c3200 	eoreq	r3, ip, r0, lsl #4
    3454:	33000000 	movwcc	r0, #0
    3458:	0000054f 	andeq	r0, r0, pc, asr #10
    345c:	002c5707 	eoreq	r5, ip, r7, lsl #14
    3460:	29340000 	ldmdbcs	r4!, {}	; <UNPREDICTABLE>
    3464:	06000006 	streq	r0, [r0], -r6
    3468:	00002524 	andeq	r2, r0, r4, lsr #10
    346c:	00118f00 	andseq	r8, r1, r0, lsl #30
    3470:	002c3200 	eoreq	r3, ip, r0, lsl #4
    3474:	35000000 	strcc	r0, [r0, #-0]
    3478:	0000037b 	andeq	r0, r0, fp, ror r3
    347c:	8f341e07 	svchi	0x00341e07
    3480:	07000002 	streq	r0, [r0, -r2]
    3484:	00002529 	andeq	r2, r0, r9, lsr #10
    3488:	0011ac00 	andseq	sl, r1, r0, lsl #24
    348c:	00973200 	addseq	r3, r7, r0, lsl #4
    3490:	002f0000 	eoreq	r0, pc, r0
    3494:	0000ca35 	andeq	ip, r0, r5, lsr sl
    3498:	31660700 	cmncc	r6, r0, lsl #14
    349c:	000000ff 	strdeq	r0, [r0], -pc	; <UNPREDICTABLE>
    34a0:	11c41d06 	bicne	r1, r4, r6, lsl #26
    34a4:	2c320000 	ldccs	0, cr0, [r2], #-0
    34a8:	00000000 	andeq	r0, r0, r0
    34ac:	0006a231 	andeq	sl, r6, r1, lsr r2
    34b0:	d51c0600 	ldrle	r0, [ip, #-1536]	; 0x600
    34b4:	32000011 	andcc	r0, r0, #17
    34b8:	0000002c 	andeq	r0, r0, ip, lsr #32
    34bc:	028c3600 	addeq	r3, ip, #0, 12
    34c0:	02080000 	andeq	r0, r8, #0
    34c4:	00000025 	andeq	r0, r0, r5, lsr #32
    34c8:	00008a32 	andeq	r8, r0, r2, lsr sl
    34cc:	00253200 	eoreq	r3, r5, r0, lsl #4
    34d0:	97320000 	ldrls	r0, [r2, -r0]!
    34d4:	32000000 	andcc	r0, r0, #0
    34d8:	00000106 	andeq	r0, r0, r6, lsl #2
    34dc:	01130000 	tsteq	r3, r0
    34e0:	00040000 	andeq	r0, r4, r0
    34e4:	00000ed8 	ldrdeq	r0, [r0], -r8
    34e8:	02350104 	eorseq	r0, r5, #4, 2
    34ec:	86010000 	strhi	r0, [r1], -r0
    34f0:	a0000008 	andge	r0, r0, r8
    34f4:	88000002 	stmdahi	r0, {r1}
    34f8:	3c000096 	stccc	0, cr0, [r0], {150}	; 0x96
    34fc:	b2000000 	andlt	r0, r0, #0
    3500:	0200000d 	andeq	r0, r0, #13
    3504:	6e690504 	cdpvs	5, 6, cr0, cr9, cr4, {0}
    3508:	04030074 	streq	r0, [r3], #-116	; 0x74
    350c:	00012107 	andeq	r2, r1, r7, lsl #2
    3510:	06010300 	streq	r0, [r1], -r0, lsl #6
    3514:	000000b5 	strheq	r0, [r0], -r5
    3518:	cb050203 	blgt	143d2c <__bss_end__+0x139d9c>
    351c:	03000001 	movweq	r0, #1
    3520:	01540504 	cmpeq	r4, r4, lsl #10
    3524:	08030000 	stmdaeq	r3, {}	; <UNPREDICTABLE>
    3528:	00014f05 	andeq	r4, r1, r5, lsl #30
    352c:	08010300 	stmdaeq	r1, {r8, r9}
    3530:	000000b3 	strheq	r0, [r0], -r3
    3534:	de070203 	cdple	2, 0, cr0, cr7, cr3, {0}
    3538:	03000000 	movweq	r0, #0
    353c:	011c0704 	tsteq	ip, r4, lsl #14
    3540:	08030000 	stmdaeq	r3, {}	; <UNPREDICTABLE>
    3544:	00011707 	andeq	r1, r1, r7, lsl #14
    3548:	07040300 	streq	r0, [r4, -r0, lsl #6]
    354c:	00000146 	andeq	r0, r0, r6, asr #2
    3550:	bc080103 	stflts	f0, [r8], {3}
    3554:	04000000 	streq	r0, [r0], #-0
    3558:	00000875 	andeq	r0, r0, r5, ror r8
    355c:	00250301 	eoreq	r0, r5, r1, lsl #6
    3560:	96880000 	strls	r0, [r8], r0
    3564:	00140000 	andseq	r0, r4, r0
    3568:	9c010000 	stcls	0, cr0, [r1], {-0}
    356c:	000000b0 	strheq	r0, [r0], -r0	; <UNPREDICTABLE>
    3570:	01006305 	tsteq	r0, r5, lsl #6
    3574:	00002503 	andeq	r2, r0, r3, lsl #10
    3578:	0024f300 	eoreq	pc, r4, r0, lsl #6
    357c:	96940600 	ldrls	r0, [r4], r0, lsl #12
    3580:	01090000 	mrseq	r0, (UNDEF: 9)
    3584:	01070000 	mrseq	r0, (UNDEF: 7)
    3588:	00740250 	rsbseq	r0, r4, r0, asr r2
    358c:	7b080000 	blvc	203594 <__bss_end__+0x1f9604>
    3590:	01000003 	tsteq	r0, r3
    3594:	00969c08 	addseq	r9, r6, r8, lsl #24
    3598:	00001800 	andeq	r1, r0, r0, lsl #16
    359c:	099c0100 	ldmibeq	ip, {r8}
    35a0:	00000895 	muleq	r0, r5, r8
    35a4:	96b40b01 	ldrtls	r0, [r4], r1, lsl #22
    35a8:	00100000 	andseq	r0, r0, r0
    35ac:	9c010000 	stcls	0, cr0, [r1], {-0}
    35b0:	000000e3 	andeq	r0, r0, r3, ror #1
    35b4:	0070660a 	rsbseq	r6, r0, sl, lsl #12
    35b8:	00f20b01 	rscseq	r0, r2, r1, lsl #22
    35bc:	50010000 	andpl	r0, r1, r0
    35c0:	00250b00 	eoreq	r0, r5, r0, lsl #22
    35c4:	00f20000 	rscseq	r0, r2, r0
    35c8:	250c0000 	strcs	r0, [ip, #-0]
    35cc:	00000000 	andeq	r0, r0, r0
    35d0:	00e3040d 	rsceq	r0, r3, sp, lsl #8
    35d4:	080e0000 	stmdaeq	lr, {}	; <UNPREDICTABLE>
    35d8:	01000003 	tsteq	r0, r3
    35dc:	0000f206 	andeq	pc, r0, r6, lsl #4
    35e0:	ec030500 	cfstr32	mvfx0, [r3], {-0}
    35e4:	0f000098 	svceq	0x00000098
    35e8:	00000476 	andeq	r0, r0, r6, ror r4
    35ec:	2c0c3c02 	stccs	12, cr3, [ip], {2}
    35f0:	00000000 	andeq	r0, r0, r0
    35f4:	0001c300 	andeq	ip, r1, r0, lsl #6
    35f8:	c0000400 	andgt	r0, r0, r0, lsl #8
    35fc:	0400000f 	streq	r0, [r0], #-15
    3600:	00023501 	andeq	r3, r2, r1, lsl #10
    3604:	08b70100 	ldmeq	r7!, {r8}
    3608:	02a00000 	adceq	r0, r0, #0
    360c:	96c40000 	strbls	r0, [r4], r0
    3610:	00500000 	subseq	r0, r0, r0
    3614:	0e400000 	cdpeq	0, 4, cr0, cr0, cr0, {0}
    3618:	04020000 	streq	r0, [r2], #-0
    361c:	746e6905 	strbtvc	r6, [lr], #-2309	; 0x905
    3620:	08a20300 	stmiaeq	r2!, {r8, r9}
    3624:	d4020000 	strle	r0, [r2], #-0
    3628:	00000037 	andeq	r0, r0, r7, lsr r0
    362c:	21070404 	tstcs	r7, r4, lsl #8
    3630:	04000001 	streq	r0, [r0], #-1
    3634:	00b50601 	adcseq	r0, r5, r1, lsl #12
    3638:	02040000 	andeq	r0, r4, #0
    363c:	0001cb05 	andeq	ip, r1, r5, lsl #22
    3640:	05040400 	streq	r0, [r4, #-1024]	; 0x400
    3644:	00000154 	andeq	r0, r0, r4, asr r1
    3648:	4f050804 	svcmi	0x00050804
    364c:	03000001 	movweq	r0, #1
    3650:	0000012e 	andeq	r0, r0, lr, lsr #2
    3654:	00652e03 	rsbeq	r2, r5, r3, lsl #28
    3658:	01040000 	mrseq	r0, (UNDEF: 4)
    365c:	0000b308 	andeq	fp, r0, r8, lsl #6
    3660:	07020400 	streq	r0, [r2, -r0, lsl #8]
    3664:	000000de 	ldrdeq	r0, [r0], -lr
    3668:	0004cf03 	andeq	ip, r4, r3, lsl #30
    366c:	7e340300 	cdpvc	3, 3, cr0, cr4, cr0, {0}
    3670:	04000000 	streq	r0, [r0], #-0
    3674:	011c0704 	tsteq	ip, r4, lsl #14
    3678:	08040000 	stmdaeq	r4, {}	; <UNPREDICTABLE>
    367c:	00011707 	andeq	r1, r1, r7, lsl #14
    3680:	07040400 	streq	r0, [r4, -r0, lsl #8]
    3684:	00000146 	andeq	r0, r0, r6, asr #2
    3688:	01040405 	tsteq	r4, r5, lsl #8
    368c:	0000bc08 	andeq	fp, r0, r8, lsl #24
    3690:	040c0600 	streq	r0, [ip], #-1536	; 0x600
    3694:	0000d30e 	andeq	sp, r0, lr, lsl #6
    3698:	78740700 	ldmdavc	r4!, {r8, r9, sl}^
    369c:	5a0f0400 	bpl	3c46a4 <__bss_end__+0x3ba714>
    36a0:	00000000 	andeq	r0, r0, r0
    36a4:	00787207 	rsbseq	r7, r8, r7, lsl #4
    36a8:	005a0f04 	subseq	r0, sl, r4, lsl #30
    36ac:	08010000 	stmdaeq	r1, {}	; <UNPREDICTABLE>
    36b0:	0000044e 	andeq	r0, r0, lr, asr #8
    36b4:	00731004 	rsbseq	r1, r3, r4
    36b8:	08040000 	stmdaeq	r4, {}	; <UNPREDICTABLE>
    36bc:	000003ff 	strdeq	r0, [r0], -pc	; <UNPREDICTABLE>
    36c0:	00731104 	rsbseq	r1, r3, r4, lsl #2
    36c4:	00080000 	andeq	r0, r8, r0
    36c8:	00043703 	andeq	r3, r4, r3, lsl #14
    36cc:	9c120400 	cfldrsls	mvf0, [r2], {-0}
    36d0:	09000000 	stmdbeq	r0, {}	; <UNPREDICTABLE>
    36d4:	f9100501 			; <UNDEFINED> instruction: 0xf9100501
    36d8:	0a000000 	beq	36e0 <_start-0x4920>
    36dc:	00000453 	andeq	r0, r0, r3, asr r4
    36e0:	04410a01 	strbeq	r0, [r1], #-2561	; 0xa01
    36e4:	0a020000 	beq	836ec <__bss_end__+0x7975c>
    36e8:	00000429 	andeq	r0, r0, r9, lsr #8
    36ec:	68030003 	stmdavs	r3, {r0, r1}
    36f0:	05000004 	streq	r0, [r0, #-4]
    36f4:	0000de10 	andeq	sp, r0, r0, lsl lr
    36f8:	05140600 	ldreq	r0, [r4, #-1536]	; 0x600
    36fc:	00013114 	andeq	r3, r1, r4, lsl r1
    3700:	04d80800 	ldrbeq	r0, [r8], #2048	; 0x800
    3704:	15050000 	strne	r0, [r5, #-0]
    3708:	00000037 	andeq	r0, r0, r7, lsr r0
    370c:	04c30800 	strbeq	r0, [r3], #2048	; 0x800
    3710:	18050000 	stmdane	r5, {}	; <UNPREDICTABLE>
    3714:	000000f9 	strdeq	r0, [r0], -r9
    3718:	048e0804 	streq	r0, [lr], #2052	; 0x804
    371c:	1b050000 	blne	143724 <__bss_end__+0x139794>
    3720:	000000d3 	ldrdeq	r0, [r0], -r3
    3724:	80030008 	andhi	r0, r3, r8
    3728:	05000004 	streq	r0, [r0, #-4]
    372c:	00010420 	andeq	r0, r1, r0, lsr #8
    3730:	08b00b00 	ldmeq	r0!, {r8, r9, fp}
    3734:	05010000 	streq	r0, [r1, #-0]
    3738:	0000017e 	andeq	r0, r0, lr, ror r1
    373c:	000096c4 	andeq	r9, r0, r4, asr #13
    3740:	00000028 	andeq	r0, r0, r8, lsr #32
    3744:	017e9c01 	cmneq	lr, r1, lsl #24
    3748:	630c0000 	movwvs	r0, #49152	; 0xc000
    374c:	7e060100 	adfvcs	f0, f6, f0
    3750:	00000001 	andeq	r0, r0, r1
    3754:	0d090000 	stceq	0, cr0, [r9, #-0]
    3758:	000096d8 	ldrdeq	r9, [r0], -r8
    375c:	000001ab 	andeq	r0, r0, fp, lsr #3
    3760:	0152010e 	cmpeq	r2, lr, lsl #2
    3764:	51010e34 	tstpl	r1, r4, lsr lr
    3768:	010e3001 	tsteq	lr, r1
    376c:	47420350 	smlsldmi	r0, r2, r0, r3
    3770:	0f000024 	svceq	0x00000024
    3774:	00013104 	andeq	r3, r1, r4, lsl #2
    3778:	04960b00 	ldreq	r0, [r6], #2816	; 0xb00
    377c:	0c010000 	stceq	0, cr0, [r1], {-0}
    3780:	0000017e 	andeq	r0, r0, lr, ror r1
    3784:	000096ec 	andeq	r9, r0, ip, ror #13
    3788:	00000028 	andeq	r0, r0, r8, lsr #32
    378c:	01ab9c01 			; <UNDEFINED> instruction: 0x01ab9c01
    3790:	630c0000 	movwvs	r0, #49152	; 0xc000
    3794:	7e0d0100 	adfvce	f0, f5, f0
    3798:	00000001 	andeq	r0, r0, r1
    379c:	00090000 	andeq	r0, r9, r0
    37a0:	0008a910 	andeq	sl, r8, r0, lsl r9
    37a4:	931b0600 	tstls	fp, #0, 12
    37a8:	11000000 	mrsne	r0, (UNDEF: 0)
    37ac:	00000093 	muleq	r0, r3, r0
    37b0:	00002511 	andeq	r2, r0, r1, lsl r5
    37b4:	002c1100 	eoreq	r1, ip, r0, lsl #2
    37b8:	00000000 	andeq	r0, r0, r0
    37bc:	000003ff 	strdeq	r0, [r0], -pc	; <UNPREDICTABLE>
    37c0:	10a40004 	adcne	r0, r4, r4
    37c4:	01040000 	mrseq	r0, (UNDEF: 4)
    37c8:	00000235 	andeq	r0, r0, r5, lsr r2
    37cc:	0009a301 	andeq	sl, r9, r1, lsl #6
    37d0:	0002a000 	andeq	sl, r2, r0
    37d4:	00971400 	addseq	r1, r7, r0, lsl #8
    37d8:	00015400 	andeq	r5, r1, r0, lsl #8
    37dc:	000f6c00 	andeq	r6, pc, r0, lsl #24
    37e0:	05040200 	streq	r0, [r4, #-512]	; 0x200
    37e4:	00746e69 	rsbseq	r6, r4, r9, ror #28
    37e8:	21070403 	tstcs	r7, r3, lsl #8
    37ec:	03000001 	movweq	r0, #1
    37f0:	00b50601 	adcseq	r0, r5, r1, lsl #12
    37f4:	02030000 	andeq	r0, r3, #0
    37f8:	0001cb05 	andeq	ip, r1, r5, lsl #22
    37fc:	05040300 	streq	r0, [r4, #-768]	; 0x300
    3800:	00000154 	andeq	r0, r0, r4, asr r1
    3804:	4f050803 	svcmi	0x00050803
    3808:	03000001 	movweq	r0, #1
    380c:	00b30801 	adcseq	r0, r3, r1, lsl #16
    3810:	02030000 	andeq	r0, r3, #0
    3814:	0000de07 	andeq	sp, r0, r7, lsl #28
    3818:	07040300 	streq	r0, [r4, -r0, lsl #6]
    381c:	0000011c 	andeq	r0, r0, ip, lsl r1
    3820:	17070803 	strne	r0, [r7, -r3, lsl #16]
    3824:	03000001 	movweq	r0, #1
    3828:	01460704 	cmpeq	r6, r4, lsl #14
    382c:	01030000 	mrseq	r0, (UNDEF: 3)
    3830:	0000bc08 	andeq	fp, r0, r8, lsl #24
    3834:	02010400 	andeq	r0, r1, #0, 8
    3838:	0000b20c 	andeq	fp, r0, ip, lsl #4
    383c:	05e40500 	strbeq	r0, [r4, #1280]!	; 0x500
    3840:	05000000 	streq	r0, [r0, #-0]
    3844:	000006d9 	ldrdeq	r0, [r0], -r9
    3848:	07120501 	ldreq	r0, [r2, -r1, lsl #10]
    384c:	05040000 	streq	r0, [r4, #-0]
    3850:	00000721 	andeq	r0, r0, r1, lsr #14
    3854:	07300505 	ldreq	r0, [r0, -r5, lsl #10]!
    3858:	05060000 	streq	r0, [r6, #-0]
    385c:	0000073f 	andeq	r0, r0, pc, lsr r7
    3860:	074e0507 	strbeq	r0, [lr, -r7, lsl #10]
    3864:	05030000 	streq	r0, [r3, #-0]
    3868:	0000075d 	andeq	r0, r0, sp, asr r7
    386c:	06060002 	streq	r0, [r6], -r2
    3870:	02000007 	andeq	r0, r0, #7
    3874:	00007915 	andeq	r7, r0, r5, lsl r9
    3878:	092a0700 	stmdbeq	sl!, {r8, r9, sl}
    387c:	37010000 	strcc	r0, [r1, -r0]
    3880:	00009714 	andeq	r9, r0, r4, lsl r7
    3884:	0000009c 	muleq	r0, ip, r0
    3888:	01c39c01 	biceq	r9, r3, r1, lsl #24
    388c:	1c080000 	stcne	0, cr0, [r8], {-0}
    3890:	a8000097 	stmdage	r0, {r0, r1, r2, r4, r7}
    3894:	09000003 	stmdbeq	r0, {r0, r1}
    3898:	00009728 	andeq	r9, r0, r8, lsr #14
    389c:	000003af 	andeq	r0, r0, pc, lsr #7
    38a0:	000000f3 	strdeq	r0, [r0], -r3
    38a4:	0151010a 	cmpeq	r1, sl, lsl #2
    38a8:	50010a32 	andpl	r0, r1, r2, lsr sl
    38ac:	09003e01 	stmdbeq	r0, {r0, r9, sl, fp, ip, sp}
    38b0:	00009734 	andeq	r9, r0, r4, lsr r7
    38b4:	000003af 	andeq	r0, r0, pc, lsr #7
    38b8:	0000010b 	andeq	r0, r0, fp, lsl #2
    38bc:	0151010a 	cmpeq	r1, sl, lsl #2
    38c0:	50010a32 	andpl	r0, r1, r2, lsr sl
    38c4:	08003f01 	stmdaeq	r0, {r0, r8, r9, sl, fp, ip, sp}
    38c8:	00009738 	andeq	r9, r0, r8, lsr r7
    38cc:	000003a8 	andeq	r0, r0, r8, lsr #7
    38d0:	00974809 	addseq	r4, r7, r9, lsl #16
    38d4:	0003c500 	andeq	ip, r3, r0, lsl #10
    38d8:	00012800 	andeq	r2, r1, r0, lsl #16
    38dc:	50010a00 	andpl	r0, r1, r0, lsl #20
    38e0:	00007502 	andeq	r7, r0, r2, lsl #10
    38e4:	00975409 	addseq	r5, r7, r9, lsl #8
    38e8:	0003e600 	andeq	lr, r3, r0, lsl #12
    38ec:	00013c00 	andeq	r3, r1, r0, lsl #24
    38f0:	50010a00 	andpl	r0, r1, r0, lsl #20
    38f4:	00007502 	andeq	r7, r0, r2, lsl #10
    38f8:	00975808 	addseq	r5, r7, r8, lsl #16
    38fc:	0003a800 	andeq	sl, r3, r0, lsl #16
    3900:	97640900 	strbls	r0, [r4, -r0, lsl #18]!
    3904:	03e60000 	mvneq	r0, #0
    3908:	01580000 	cmpeq	r8, r0
    390c:	010a0000 	mrseq	r0, (UNDEF: 10)
    3910:	00300151 	eorseq	r0, r0, r1, asr r1
    3914:	00977009 	addseq	r7, r7, r9
    3918:	0003e600 	andeq	lr, r3, r0, lsl #12
    391c:	00016b00 	andeq	r6, r1, r0, lsl #22
    3920:	51010a00 	tstpl	r1, r0, lsl #20
    3924:	09003001 	stmdbeq	r0, {r0, ip, sp}
    3928:	0000977c 	andeq	r9, r0, ip, ror r7
    392c:	000003e6 	andeq	r0, r0, r6, ror #7
    3930:	0000017e 	andeq	r0, r0, lr, ror r1
    3934:	0151010a 	cmpeq	r1, sl, lsl #2
    3938:	88090036 	stmdahi	r9, {r1, r2, r4, r5}
    393c:	e6000097 			; <UNDEFINED> instruction: 0xe6000097
    3940:	91000003 	tstls	r0, r3
    3944:	0a000001 	beq	3950 <_start-0x46b0>
    3948:	33015101 	movwcc	r5, #4353	; 0x1101
    394c:	97940900 	ldrls	r0, [r4, r0, lsl #18]
    3950:	03e60000 	mvneq	r0, #0
    3954:	01a60000 			; <UNDEFINED> instruction: 0x01a60000
    3958:	010a0000 	mrseq	r0, (UNDEF: 10)
    395c:	0e0a0351 	mcreq	3, 0, r0, cr10, cr1, {2}
    3960:	a0090001 	andge	r0, r9, r1
    3964:	e6000097 			; <UNDEFINED> instruction: 0xe6000097
    3968:	b9000003 	stmdblt	r0, {r0, r1}
    396c:	0a000001 	beq	3978 <_start-0x4688>
    3970:	33015101 	movwcc	r5, #4353	; 0x1101
    3974:	97a40800 	strls	r0, [r4, r0, lsl #16]!
    3978:	03a80000 			; <UNDEFINED> instruction: 0x03a80000
    397c:	0b000000 	bleq	3984 <_start-0x467c>
    3980:	000008fe 	strdeq	r0, [r0], -lr
    3984:	00255701 	eoreq	r5, r5, r1, lsl #14
    3988:	97b00000 	ldrls	r0, [r0, r0]!
    398c:	001c0000 	andseq	r0, ip, r0
    3990:	9c010000 	stcls	0, cr0, [r1], {-0}
    3994:	000001e6 	andeq	r0, r0, r6, ror #3
    3998:	0097c008 	addseq	ip, r7, r8
    399c:	0003c500 	andeq	ip, r3, r0, lsl #10
    39a0:	be0b0000 	cdplt	0, 0, cr0, cr11, cr0, {0}
    39a4:	01000007 	tsteq	r0, r7
    39a8:	0000255d 	andeq	r2, r0, sp, asr r5
    39ac:	0097cc00 	addseq	ip, r7, r0, lsl #24
    39b0:	00002800 	andeq	r2, r0, r0, lsl #16
    39b4:	129c0100 	addsne	r0, ip, #0, 2
    39b8:	08000002 	stmdaeq	r0, {r1}
    39bc:	000097d4 	ldrdeq	r9, [r0], -r4
    39c0:	000001c3 	andeq	r0, r0, r3, asr #3
    39c4:	0097e808 	addseq	lr, r7, r8, lsl #16
    39c8:	0003c500 	andeq	ip, r3, r0, lsl #10
    39cc:	520b0000 	andpl	r0, fp, #0
    39d0:	01000009 	tsteq	r0, r9
    39d4:	00002564 	andeq	r2, r0, r4, ror #10
    39d8:	0097f400 	addseq	pc, r7, r0, lsl #8
    39dc:	00001c00 	andeq	r1, r0, r0, lsl #24
    39e0:	359c0100 	ldrcc	r0, [ip, #256]	; 0x100
    39e4:	08000002 	stmdaeq	r0, {r1}
    39e8:	00009804 	andeq	r9, r0, r4, lsl #16
    39ec:	000003c5 	andeq	r0, r0, r5, asr #7
    39f0:	04760700 	ldrbteq	r0, [r6], #-1792	; 0x700
    39f4:	6a010000 	bvs	439fc <__bss_end__+0x39a6c>
    39f8:	00009810 	andeq	r9, r0, r0, lsl r8
    39fc:	0000002c 	andeq	r0, r0, ip, lsr #32
    3a00:	02719c01 	rsbseq	r9, r1, #256	; 0x100
    3a04:	630c0000 	movwvs	r0, #49152	; 0xc000
    3a08:	2c6a0100 	stfcse	f0, [sl], #-0
    3a0c:	11000000 	mrsne	r0, (UNDEF: 0)
    3a10:	08000025 	stmdaeq	r0, {r0, r2, r5}
    3a14:	0000981c 	andeq	r9, r0, ip, lsl r8
    3a18:	00000212 	andeq	r0, r0, r2, lsl r2
    3a1c:	0098340d 	addseq	r3, r8, sp, lsl #8
    3a20:	0003e600 	andeq	lr, r3, r0, lsl #12
    3a24:	51010a00 	tstpl	r1, r0, lsl #20
    3a28:	00007402 	andeq	r7, r0, r2, lsl #8
    3a2c:	091c0b00 	ldmdbeq	ip, {r8, r9, fp}
    3a30:	74010000 	strvc	r0, [r1], #-0
    3a34:	00000025 	andeq	r0, r0, r5, lsr #32
    3a38:	0000983c 	andeq	r9, r0, ip, lsr r8
    3a3c:	0000000c 	andeq	r0, r0, ip
    3a40:	02949c01 	addseq	r9, r4, #256	; 0x100
    3a44:	44080000 	strmi	r0, [r8], #-0
    3a48:	c3000098 	movwgt	r0, #152	; 0x98
    3a4c:	00000001 	andeq	r0, r0, r1
    3a50:	0009cf0b 	andeq	ip, r9, fp, lsl #30
    3a54:	25780100 	ldrbcs	r0, [r8, #-256]!	; 0x100
    3a58:	48000000 	stmdami	r0, {}	; <UNPREDICTABLE>
    3a5c:	20000098 	mulcs	r0, r8, r0
    3a60:	01000000 	mrseq	r0, (UNDEF: 0)
    3a64:	0002c09c 	muleq	r2, ip, r0
    3a68:	98500800 	ldmdals	r0, {fp}^
    3a6c:	02710000 	rsbseq	r0, r1, #0
    3a70:	5c080000 	stcpl	0, cr0, [r8], {-0}
    3a74:	e6000098 			; <UNDEFINED> instruction: 0xe6000098
    3a78:	00000001 	andeq	r0, r0, r1
    3a7c:	00096c0e 	andeq	r6, r9, lr, lsl #24
    3a80:	d1160100 	tstle	r6, r0, lsl #2
    3a84:	05000002 	streq	r0, [r0, #-2]
    3a88:	00992003 	addseq	r2, r9, r3
    3a8c:	d7040f00 	strle	r0, [r4, -r0, lsl #30]
    3a90:	10000002 	andne	r0, r0, r2
    3a94:	0000002c 	andeq	r0, r0, ip, lsr #32
    3a98:	0009600e 	andeq	r6, r9, lr
    3a9c:	d1170100 	tstle	r7, r0, lsl #2
    3aa0:	05000002 	streq	r0, [r0, #-2]
    3aa4:	0098f003 	addseq	pc, r8, r3
    3aa8:	08e10e00 	stmiaeq	r1!, {r9, sl, fp}^
    3aac:	1a010000 	bne	43ab4 <__bss_end__+0x39b24>
    3ab0:	000002d1 	ldrdeq	r0, [r0], -r1
    3ab4:	990c0305 	stmdbls	ip, {r0, r2, r8, r9}
    3ab8:	340e0000 	strcc	r0, [lr], #-0
    3abc:	01000009 	tsteq	r0, r9
    3ac0:	0002d11b 	andeq	sp, r2, fp, lsl r1
    3ac4:	f8030500 			; <UNDEFINED> instruction: 0xf8030500
    3ac8:	0e000098 	mcreq	0, 0, r0, cr0, cr8, {4}
    3acc:	00000943 	andeq	r0, r0, r3, asr #18
    3ad0:	02d11c01 	sbcseq	r1, r1, #256	; 0x100
    3ad4:	03050000 	movweq	r0, #20480	; 0x5000
    3ad8:	000098fc 	strdeq	r9, [r0], -ip
    3adc:	0009b10e 	andeq	fp, r9, lr, lsl #2
    3ae0:	d11d0100 	tstle	sp, r0, lsl #2
    3ae4:	05000002 	streq	r0, [r0, #-2]
    3ae8:	00990003 	addseq	r0, r9, r3
    3aec:	08d20e00 	ldmeq	r2, {r9, sl, fp}^
    3af0:	1e010000 	cdpne	0, 0, cr0, cr1, cr0, {0}
    3af4:	000002d1 	ldrdeq	r0, [r0], -r1
    3af8:	991c0305 	ldmdbls	ip, {r0, r2, r8, r9}
    3afc:	c00e0000 	andgt	r0, lr, r0
    3b00:	01000009 	tsteq	r0, r9
    3b04:	0002d11f 	andeq	sp, r2, pc, lsl r1
    3b08:	08030500 	stmdaeq	r3, {r8, sl}
    3b0c:	0e000099 	mcreq	0, 0, r0, cr0, cr9, {4}
    3b10:	000008ef 	andeq	r0, r0, pc, ror #17
    3b14:	02d12001 	sbcseq	r2, r1, #1
    3b18:	03050000 	movweq	r0, #20480	; 0x5000
    3b1c:	00009918 	andeq	r9, r0, r8, lsl r9
    3b20:	0009940e 	andeq	r9, r9, lr, lsl #8
    3b24:	d1210100 	teqle	r1, r0, lsl #2
    3b28:	05000002 	streq	r0, [r0, #-2]
    3b2c:	00991403 	addseq	r1, r9, r3, lsl #8
    3b30:	090c0e00 	stmdbeq	ip, {r9, sl, fp}
    3b34:	22010000 	andcs	r0, r1, #0
    3b38:	000002d1 	ldrdeq	r0, [r0], -r1
    3b3c:	98f40305 	ldmls	r4!, {r0, r2, r8, r9}^
    3b40:	840e0000 	strhi	r0, [lr], #-0
    3b44:	01000009 	tsteq	r0, r9
    3b48:	0002d123 	andeq	sp, r2, r3, lsr #2
    3b4c:	10030500 	andne	r0, r3, r0, lsl #10
    3b50:	0e000099 	mcreq	0, 0, r0, cr0, cr9, {4}
    3b54:	00000974 	andeq	r0, r0, r4, ror r9
    3b58:	02d12401 	sbcseq	r2, r1, #16777216	; 0x1000000
    3b5c:	03050000 	movweq	r0, #20480	; 0x5000
    3b60:	00009904 	andeq	r9, r0, r4, lsl #18
    3b64:	00061d11 	andeq	r1, r6, r1, lsl sp
    3b68:	128a0300 	addne	r0, sl, #0, 6
    3b6c:	00000648 	andeq	r0, r0, r8, asr #12
    3b70:	03c51902 	biceq	r1, r5, #32768	; 0x8000
    3b74:	2c130000 	ldccs	0, cr0, [r3], {-0}
    3b78:	13000000 	movwne	r0, #0
    3b7c:	000000b2 	strheq	r0, [r0], -r2
    3b80:	06ea1400 	strbteq	r1, [sl], r0, lsl #8
    3b84:	a9030000 	stmdbge	r3, {}	; <UNPREDICTABLE>
    3b88:	0000002c 	andeq	r0, r0, ip, lsr #32
    3b8c:	000003da 	ldrdeq	r0, [r0], -sl
    3b90:	0003da13 	andeq	sp, r3, r3, lsl sl
    3b94:	040f0000 	streq	r0, [pc], #-0	; 3b9c <_start-0x4464>
    3b98:	000003e0 	andeq	r0, r0, r0, ror #7
    3b9c:	0003e515 	andeq	lr, r3, r5, lsl r5
    3ba0:	c4121600 	ldrgt	r1, [r2], #-1536	; 0x600
    3ba4:	03000005 	movweq	r0, #5
    3ba8:	0003fc9d 	muleq	r3, sp, ip
    3bac:	03fc1300 	mvnseq	r1, #0, 6
    3bb0:	2c130000 	ldccs	0, cr0, [r3], {-0}
    3bb4:	00000000 	andeq	r0, r0, r0
    3bb8:	03e5040f 	mvneq	r0, #251658240	; 0xf000000
    3bbc:	db000000 	blle	3bc4 <_start-0x443c>
    3bc0:	04000000 	streq	r0, [r0], #-0
    3bc4:	0011d200 	andseq	sp, r1, r0, lsl #4
    3bc8:	35010400 	strcc	r0, [r1, #-1024]	; 0x400
    3bcc:	01000002 	tsteq	r0, r2
    3bd0:	000009df 	ldrdeq	r0, [r0], -pc	; <UNPREDICTABLE>
    3bd4:	000002a0 	andeq	r0, r0, r0, lsr #5
    3bd8:	00009868 	andeq	r9, r0, r8, ror #16
    3bdc:	00000020 	andeq	r0, r0, r0, lsr #32
    3be0:	00001071 	andeq	r1, r0, r1, ror r0
    3be4:	b5060102 	strlt	r0, [r6, #-258]	; 0x102
    3be8:	02000000 	andeq	r0, r0, #0
    3bec:	00b30801 	adcseq	r0, r3, r1, lsl #16
    3bf0:	02020000 	andeq	r0, r2, #0
    3bf4:	0001cb05 	andeq	ip, r1, r5, lsl #22
    3bf8:	07020200 	streq	r0, [r2, -r0, lsl #4]
    3bfc:	000000de 	ldrdeq	r0, [r0], -lr
    3c00:	69050403 	stmdbvs	r5, {r0, r1, sl}
    3c04:	0200746e 	andeq	r7, r0, #1845493760	; 0x6e000000
    3c08:	01210704 	teqeq	r1, r4, lsl #14
    3c0c:	08020000 	stmdaeq	r2, {}	; <UNPREDICTABLE>
    3c10:	00014f05 	andeq	r4, r1, r5, lsl #30
    3c14:	07080200 	streq	r0, [r8, -r0, lsl #4]
    3c18:	00000117 	andeq	r0, r0, r7, lsl r1
    3c1c:	54050402 	strpl	r0, [r5], #-1026	; 0x402
    3c20:	02000001 	andeq	r0, r0, #1
    3c24:	01460704 	cmpeq	r6, r4, lsl #14
    3c28:	04040000 	streq	r0, [r4], #-0
    3c2c:	1c070402 	cfstrsne	mvf0, [r7], {2}
    3c30:	05000001 	streq	r0, [r0, #-1]
    3c34:	00007a04 	andeq	r7, r0, r4, lsl #20
    3c38:	08010200 	stmdaeq	r1, {r9}
    3c3c:	000000bc 	strheq	r0, [r0], -ip
    3c40:	0008a206 	andeq	sl, r8, r6, lsl #4
    3c44:	48d40200 	ldmmi	r4, {r9}^
    3c48:	07000000 	streq	r0, [r0, -r0]
    3c4c:	000008a9 	andeq	r0, r0, r9, lsr #17
    3c50:	006b1b03 	rsbeq	r1, fp, r3, lsl #22
    3c54:	98680000 	stmdals	r8!, {}^	; <UNPREDICTABLE>
    3c58:	00200000 	eoreq	r0, r0, r0
    3c5c:	9c010000 	stcls	0, cr0, [r1], {-0}
    3c60:	00705f08 	rsbseq	r5, r0, r8, lsl #30
    3c64:	006b0301 	rsbeq	r0, fp, r1, lsl #6
    3c68:	50010000 	andpl	r0, r1, r0
    3c6c:	01006308 	tsteq	r0, r8, lsl #6
    3c70:	00004103 	andeq	r4, r0, r3, lsl #2
    3c74:	09510100 	ldmdbeq	r1, {r8}^
    3c78:	0301006e 	movweq	r0, #4206	; 0x106e
    3c7c:	00000081 	andeq	r0, r0, r1, lsl #1
    3c80:	0000252f 	andeq	r2, r0, pc, lsr #10
    3c84:	0100700a 	tsteq	r0, sl
    3c88:	00007404 	andeq	r7, r0, r4, lsl #8
    3c8c:	00255000 	eoreq	r5, r5, r0
    3c90:	00650b00 	rsbeq	r0, r5, r0, lsl #22
    3c94:	00740401 	rsbseq	r0, r4, r1, lsl #8
    3c98:	52010000 	andpl	r0, r1, #0
	...

Disassembly of section .debug_abbrev:

00000000 <.debug_abbrev>:
       0:	25011101 	strcs	r1, [r1, #-257]	; 0x101
       4:	030b130e 	movweq	r1, #45838	; 0xb30e
       8:	110e1b0e 	tstne	lr, lr, lsl #22
       c:	10061201 	andne	r1, r6, r1, lsl #4
      10:	02000017 	andeq	r0, r0, #23
      14:	0b0b0024 	bleq	2c00ac <__bss_end__+0x2b611c>
      18:	08030b3e 	stmdaeq	r3, {r1, r2, r3, r4, r5, r8, r9, fp}
      1c:	24030000 	strcs	r0, [r3], #-0
      20:	3e0b0b00 	vmlacc.f64	d0, d11, d0
      24:	000e030b 	andeq	r0, lr, fp, lsl #6
      28:	00160400 	andseq	r0, r6, r0, lsl #8
      2c:	0b3a0e03 	bleq	e83840 <__bss_end__+0xe798b0>
      30:	13490b3b 	movtne	r0, #39739	; 0x9b3b
      34:	0f050000 	svceq	0x00050000
      38:	490b0b00 	stmdbmi	fp, {r8, r9, fp}
      3c:	06000013 			; <UNDEFINED> instruction: 0x06000013
      40:	13490026 	movtne	r0, #36902	; 0x9026
      44:	2e070000 	cdpcs	0, 0, cr0, cr7, cr0, {0}
      48:	3a0e0301 	bcc	380c54 <__bss_end__+0x376cc4>
      4c:	270b3b0b 	strcs	r3, [fp, -fp, lsl #22]
      50:	010b2019 	tsteq	fp, r9, lsl r0
      54:	08000013 	stmdaeq	r0, {r0, r1, r4}
      58:	08030005 	stmdaeq	r3, {r0, r2}
      5c:	0b3b0b3a 	bleq	ec2d4c <__bss_end__+0xeb8dbc>
      60:	00001349 	andeq	r1, r0, r9, asr #6
      64:	3f012e09 	svccc	0x00012e09
      68:	3a0e0319 	bcc	380cd4 <__bss_end__+0x376d44>
      6c:	270b3b0b 	strcs	r3, [fp, -fp, lsl #22]
      70:	12011119 	andne	r1, r1, #1073741830	; 0x40000006
      74:	97184006 	ldrls	r4, [r8, -r6]
      78:	13011942 	movwne	r1, #6466	; 0x1942
      7c:	050a0000 	streq	r0, [sl, #-0]
      80:	3a080300 	bcc	200c88 <__bss_end__+0x1f6cf8>
      84:	490b3b0b 	stmdbmi	fp, {r0, r1, r3, r8, r9, fp, ip, sp}
      88:	00170213 	andseq	r0, r7, r3, lsl r2
      8c:	00050b00 	andeq	r0, r5, r0, lsl #22
      90:	0b3a0e03 	bleq	e838a4 <__bss_end__+0xe79914>
      94:	13490b3b 	movtne	r0, #39739	; 0x9b3b
      98:	00001702 	andeq	r1, r0, r2, lsl #14
      9c:	0300340c 	movweq	r3, #1036	; 0x40c
      a0:	3b0b3a08 	blcc	2ce8c8 <__bss_end__+0x2c4938>
      a4:	1c13490b 	ldcne	9, cr4, [r3], {11}
      a8:	0d00000b 	stceq	0, cr0, [r0, #-44]	; 0xffffffd4
      ac:	0e030034 	mcreq	0, 0, r0, cr3, cr4, {1}
      b0:	0b3b0b3a 	bleq	ec2da0 <__bss_end__+0xeb8e10>
      b4:	17021349 	strne	r1, [r2, -r9, asr #6]
      b8:	340e0000 	strcc	r0, [lr], #-0
      bc:	3a080300 	bcc	200cc4 <__bss_end__+0x1f6d34>
      c0:	490b3b0b 	stmdbmi	fp, {r0, r1, r3, r8, r9, fp, ip, sp}
      c4:	0f000013 	svceq	0x00000013
      c8:	0111010b 	tsteq	r1, fp, lsl #2
      cc:	13010612 	movwne	r0, #5650	; 0x1612
      d0:	1d100000 	ldcne	0, cr0, [r0, #-0]
      d4:	11133101 	tstne	r3, r1, lsl #2
      d8:	58061201 	stmdapl	r6, {r0, r9, ip}
      dc:	010b590b 	tsteq	fp, fp, lsl #18
      e0:	11000013 	tstne	r0, r3, lsl r0
      e4:	13310005 	teqne	r1, #5
      e8:	00000b1c 	andeq	r0, r0, ip, lsl fp
      ec:	31000512 	tstcc	r0, r2, lsl r5
      f0:	00170213 	andseq	r0, r7, r3, lsl r2
      f4:	011d1300 	tsteq	sp, r0, lsl #6
      f8:	01111331 	tsteq	r1, r1, lsr r3
      fc:	0b580612 	bleq	160194c <__bss_end__+0x15f79bc>
     100:	00000b59 	andeq	r0, r0, r9, asr fp
     104:	31000514 	tstcc	r0, r4, lsl r5
     108:	00180213 	andseq	r0, r8, r3, lsl r2
     10c:	010b1500 	tsteq	fp, r0, lsl #10
     110:	13011755 	movwne	r1, #5973	; 0x1755
     114:	1d160000 	ldcne	0, cr0, [r6, #-0]
     118:	52133101 	andspl	r3, r3, #1073741824	; 0x40000000
     11c:	58175501 	ldmdapl	r7, {r0, r8, sl, ip, lr}
     120:	000b590b 	andeq	r5, fp, fp, lsl #18
     124:	010b1700 	tsteq	fp, r0, lsl #14
     128:	06120111 			; <UNDEFINED> instruction: 0x06120111
     12c:	34180000 	ldrcc	r0, [r8], #-0
     130:	3a0e0300 	bcc	380d38 <__bss_end__+0x376da8>
     134:	490b3b0b 	stmdbmi	fp, {r0, r1, r3, r8, r9, fp, ip, sp}
     138:	19000013 	stmdbne	r0, {r0, r1, r4}
     13c:	01018289 	smlabbeq	r1, r9, r2, r8
     140:	42950111 	addsmi	r0, r5, #1073741828	; 0x40000004
     144:	00133119 	andseq	r3, r3, r9, lsl r1
     148:	828a1a00 	addhi	r1, sl, #0, 20
     14c:	18020001 	stmdane	r2, {r0}
     150:	00184291 	mulseq	r8, r1, r2
     154:	00341b00 	eorseq	r1, r4, r0, lsl #22
     158:	0b3a0e03 	bleq	e8396c <__bss_end__+0xe799dc>
     15c:	13490b3b 	movtne	r0, #39739	; 0x9b3b
     160:	00000b1c 	andeq	r0, r0, ip, lsl fp
     164:	31011d1c 	tstcc	r1, ip, lsl sp
     168:	55015213 	strpl	r5, [r1, #-531]	; 0x213
     16c:	590b5817 	stmdbpl	fp, {r0, r1, r2, r4, fp, ip, lr}
     170:	0013010b 	andseq	r0, r3, fp, lsl #2
     174:	82891d00 	addhi	r1, r9, #0, 26
     178:	01110001 	tsteq	r1, r1
     17c:	00001331 	andeq	r1, r0, r1, lsr r3
     180:	0182891e 	orreq	r8, r2, lr, lsl r9
     184:	31011101 	tstcc	r1, r1, lsl #2
     188:	00130113 	andseq	r0, r3, r3, lsl r1
     18c:	00341f00 	eorseq	r1, r4, r0, lsl #30
     190:	0b3a0e03 	bleq	e839a4 <__bss_end__+0xe79a14>
     194:	13490b3b 	movtne	r0, #39739	; 0x9b3b
     198:	0000061c 	andeq	r0, r0, ip, lsl r6
     19c:	49003520 	stmdbmi	r0, {r5, r8, sl, ip, sp}
     1a0:	21000013 	tstcs	r0, r3, lsl r0
     1a4:	193f012e 	ldmdbne	pc!, {r1, r2, r3, r5, r8}	; <UNPREDICTABLE>
     1a8:	0b3a0e03 	bleq	e839bc <__bss_end__+0xe79a2c>
     1ac:	19270b3b 	stmdbne	r7!, {r0, r1, r3, r4, r5, r8, r9, fp}
     1b0:	193c1349 	ldmdbne	ip!, {r0, r3, r6, r8, r9, ip}
     1b4:	00001301 	andeq	r1, r0, r1, lsl #6
     1b8:	49000522 	stmdbmi	r0, {r1, r5, r8, sl}
     1bc:	23000013 	movwcs	r0, #19
     1c0:	00000018 	andeq	r0, r0, r8, lsl r0
     1c4:	3f002e24 	svccc	0x00002e24
     1c8:	3a0e0319 	bcc	380e34 <__bss_end__+0x376ea4>
     1cc:	270b3b0b 	strcs	r3, [fp, -fp, lsl #22]
     1d0:	00193c19 	andseq	r3, r9, r9, lsl ip
     1d4:	012e2500 	teqeq	lr, r0, lsl #10
     1d8:	0e03193f 	mcreq	9, 0, r1, cr3, cr15, {1}
     1dc:	0b3b0b3a 	bleq	ec2ecc <__bss_end__+0xeb8f3c>
     1e0:	193c1927 	ldmdbne	ip!, {r0, r1, r2, r5, r8, fp, ip}
     1e4:	00001301 	andeq	r1, r0, r1, lsl #6
     1e8:	01110100 	tsteq	r1, r0, lsl #2
     1ec:	0b130e25 	bleq	4c3a88 <__bss_end__+0x4b9af8>
     1f0:	0e1b0e03 	cdpeq	14, 1, cr0, cr11, cr3, {0}
     1f4:	06120111 			; <UNDEFINED> instruction: 0x06120111
     1f8:	00001710 	andeq	r1, r0, r0, lsl r7
     1fc:	03001602 	movweq	r1, #1538	; 0x602
     200:	3b0b3a0e 	blcc	2cea40 <__bss_end__+0x2c4ab0>
     204:	0013490b 	andseq	r4, r3, fp, lsl #18
     208:	01130300 	tsteq	r3, r0, lsl #6
     20c:	0b0b0e03 	bleq	2c3a20 <__bss_end__+0x2b9a90>
     210:	0b3b0b3a 	bleq	ec2f00 <__bss_end__+0xeb8f70>
     214:	00001301 	andeq	r1, r0, r1, lsl #6
     218:	03000d04 	movweq	r0, #3332	; 0xd04
     21c:	3813490e 	ldmdacc	r3, {r1, r2, r3, r8, fp, lr}
     220:	0019340b 	andseq	r3, r9, fp, lsl #8
     224:	000f0500 	andeq	r0, pc, r0, lsl #10
     228:	00000b0b 	andeq	r0, r0, fp, lsl #22
     22c:	0b002406 	bleq	924c <sw_uart_getc_timeout+0x13c>
     230:	030b3e0b 	movweq	r3, #48651	; 0xbe0b
     234:	07000008 	streq	r0, [r0, -r8]
     238:	0b0b0024 	bleq	2c02d0 <__bss_end__+0x2b6340>
     23c:	0e030b3e 	vmoveq.16	d3[0], r0
     240:	0f080000 	svceq	0x00080000
     244:	490b0b00 	stmdbmi	fp, {r8, r9, fp}
     248:	09000013 	stmdbeq	r0, {r0, r1, r4}
     24c:	13490026 	movtne	r0, #36902	; 0x9026
     250:	2e0a0000 	cdpcs	0, 0, cr0, cr10, cr0, {0}
     254:	03193f01 	tsteq	r9, #1, 30
     258:	3b0b3a0e 	blcc	2cea98 <__bss_end__+0x2c4b08>
     25c:	4919270b 	ldmdbmi	r9, {r0, r1, r3, r8, r9, sl, sp}
     260:	12011113 	andne	r1, r1, #-1073741820	; 0xc0000004
     264:	97184006 	ldrls	r4, [r8, -r6]
     268:	13011942 	movwne	r1, #6466	; 0x1942
     26c:	050b0000 	streq	r0, [fp, #-0]
     270:	3a080300 	bcc	200e78 <__bss_end__+0x1f6ee8>
     274:	490b3b0b 	stmdbmi	fp, {r0, r1, r3, r8, r9, fp, ip, sp}
     278:	00180213 	andseq	r0, r8, r3, lsl r2
     27c:	00180c00 	andseq	r0, r8, r0, lsl #24
     280:	340d0000 	strcc	r0, [sp], #-0
     284:	3a080300 	bcc	200e8c <__bss_end__+0x1f6efc>
     288:	490b3b0b 	stmdbmi	fp, {r0, r1, r3, r8, r9, fp, ip, sp}
     28c:	00180213 	andseq	r0, r8, r3, lsl r2
     290:	00340e00 	eorseq	r0, r4, r0, lsl #28
     294:	0b3a0e03 	bleq	e83aa8 <__bss_end__+0xe79b18>
     298:	13490b3b 	movtne	r0, #39739	; 0x9b3b
     29c:	00001802 	andeq	r1, r0, r2, lsl #16
     2a0:	0300340f 	movweq	r3, #1039	; 0x40f
     2a4:	3b0b3a08 	blcc	2ceacc <__bss_end__+0x2c4b3c>
     2a8:	0213490b 	andseq	r4, r3, #180224	; 0x2c000
     2ac:	10000017 	andne	r0, r0, r7, lsl r0
     2b0:	01018289 	smlabbeq	r1, r9, r2, r8
     2b4:	13310111 	teqne	r1, #1073741828	; 0x40000004
     2b8:	00001301 	andeq	r1, r0, r1, lsl #6
     2bc:	01828a11 	orreq	r8, r2, r1, lsl sl
     2c0:	91180200 	tstls	r8, r0, lsl #4
     2c4:	00001842 	andeq	r1, r0, r2, asr #16
     2c8:	01828912 	orreq	r8, r2, r2, lsl r9
     2cc:	00011101 	andeq	r1, r1, r1, lsl #2
     2d0:	01011300 	mrseq	r1, SP_irq
     2d4:	13011349 	movwne	r1, #4937	; 0x1349
     2d8:	21140000 	tstcs	r4, r0
     2dc:	2f134900 	svccs	0x00134900
     2e0:	15000005 	strne	r0, [r0, #-5]
     2e4:	19270115 	stmdbne	r7!, {r0, r2, r4, r8}
     2e8:	13011349 	movwne	r1, #4937	; 0x1349
     2ec:	05160000 	ldreq	r0, [r6, #-0]
     2f0:	00134900 	andseq	r4, r3, r0, lsl #18
     2f4:	00341700 	eorseq	r1, r4, r0, lsl #14
     2f8:	0b3a0e03 	bleq	e83b0c <__bss_end__+0xe79b7c>
     2fc:	13490b3b 	movtne	r0, #39739	; 0x9b3b
     300:	193c193f 	ldmdbne	ip!, {r0, r1, r2, r3, r4, r5, r8, fp, ip}
     304:	2e180000 	cdpcs	0, 1, cr0, cr8, cr0, {0}
     308:	03193f01 	tsteq	r9, #1, 30
     30c:	3b0b3a0e 	blcc	2ceb4c <__bss_end__+0x2c4bbc>
     310:	4919270b 	ldmdbmi	r9, {r0, r1, r3, r8, r9, sl, sp}
     314:	00193c13 	andseq	r3, r9, r3, lsl ip
     318:	11010000 	mrsne	r0, (UNDEF: 1)
     31c:	130e2501 	movwne	r2, #58625	; 0xe501
     320:	1b0e030b 	blne	380f54 <__bss_end__+0x376fc4>
     324:	1201110e 	andne	r1, r1, #-2147483645	; 0x80000003
     328:	00171006 	andseq	r1, r7, r6
     32c:	00240200 	eoreq	r0, r4, r0, lsl #4
     330:	0b3e0b0b 	bleq	f82f64 <__bss_end__+0xf78fd4>
     334:	00000803 	andeq	r0, r0, r3, lsl #16
     338:	0b002403 	bleq	934c <sw_uart_gets_until+0x74>
     33c:	030b3e0b 	movweq	r3, #48651	; 0xbe0b
     340:	0400000e 	streq	r0, [r0], #-14
     344:	0b0b000f 	bleq	2c0388 <__bss_end__+0x2b63f8>
     348:	00001349 	andeq	r1, r0, r9, asr #6
     34c:	49002605 	stmdbmi	r0, {r0, r2, r9, sl, sp}
     350:	06000013 			; <UNDEFINED> instruction: 0x06000013
     354:	193f012e 	ldmdbne	pc!, {r1, r2, r3, r5, r8}	; <UNPREDICTABLE>
     358:	0b3a0e03 	bleq	e83b6c <__bss_end__+0xe79bdc>
     35c:	19270b3b 	stmdbne	r7!, {r0, r1, r3, r4, r5, r8, r9, fp}
     360:	01111349 	tsteq	r1, r9, asr #6
     364:	18400612 	stmdane	r0, {r1, r4, r9, sl}^
     368:	01194296 			; <UNDEFINED> instruction: 0x01194296
     36c:	07000013 	smladeq	r0, r3, r0, r0
     370:	08030005 	stmdaeq	r3, {r0, r2}
     374:	0b3b0b3a 	bleq	ec3064 <__bss_end__+0xeb90d4>
     378:	17021349 	strne	r1, [r2, -r9, asr #6]
     37c:	15080000 	strne	r0, [r8, #-0]
     380:	49192701 	ldmdbmi	r9, {r0, r8, r9, sl, sp}
     384:	00130113 	andseq	r0, r3, r3, lsl r1
     388:	00050900 	andeq	r0, r5, r0, lsl #18
     38c:	00001349 	andeq	r1, r0, r9, asr #6
     390:	0300340a 	movweq	r3, #1034	; 0x40a
     394:	3b0b3a0e 	blcc	2cebd4 <__bss_end__+0x2c4c44>
     398:	3f13490b 	svccc	0x0013490b
     39c:	00193c19 	andseq	r3, r9, r9, lsl ip
     3a0:	00340b00 	eorseq	r0, r4, r0, lsl #22
     3a4:	0b3a0e03 	bleq	e83bb8 <__bss_end__+0xe79c28>
     3a8:	13490b3b 	movtne	r0, #39739	; 0x9b3b
     3ac:	1802193f 	stmdane	r2, {r0, r1, r2, r3, r4, r5, r8, fp, ip}
     3b0:	01000000 	mrseq	r0, (UNDEF: 0)
     3b4:	0e250111 	mcreq	1, 1, r0, cr5, cr1, {0}
     3b8:	0e030b13 	vmoveq.32	d3[0], r0
     3bc:	01110e1b 	tsteq	r1, fp, lsl lr
     3c0:	17100612 			; <UNDEFINED> instruction: 0x17100612
     3c4:	24020000 	strcs	r0, [r2], #-0
     3c8:	3e0b0b00 	vmlacc.f64	d0, d11, d0
     3cc:	0008030b 	andeq	r0, r8, fp, lsl #6
     3d0:	00240300 	eoreq	r0, r4, r0, lsl #6
     3d4:	0b3e0b0b 	bleq	f83008 <__bss_end__+0xf79078>
     3d8:	00000e03 	andeq	r0, r0, r3, lsl #28
     3dc:	0b000f04 	bleq	3ff4 <_start-0x400c>
     3e0:	0500000b 	streq	r0, [r0, #-11]
     3e4:	0b0b000f 	bleq	2c0428 <__bss_end__+0x2b6498>
     3e8:	00001349 	andeq	r1, r0, r9, asr #6
     3ec:	49002606 	stmdbmi	r0, {r1, r2, r9, sl, sp}
     3f0:	07000013 	smladeq	r0, r3, r0, r0
     3f4:	0e030016 	mcreq	0, 0, r0, cr3, cr6, {0}
     3f8:	0b3b0b3a 	bleq	ec30e8 <__bss_end__+0xeb9158>
     3fc:	00001349 	andeq	r1, r0, r9, asr #6
     400:	03011308 	movweq	r1, #4872	; 0x1308
     404:	3a0b0b0e 	bcc	2c3044 <__bss_end__+0x2b90b4>
     408:	010b3b0b 	tsteq	fp, fp, lsl #22
     40c:	09000013 	stmdbeq	r0, {r0, r1, r4}
     410:	0e03000d 	cdpeq	0, 0, cr0, cr3, cr13, {0}
     414:	0b381349 	bleq	e05140 <__bss_end__+0xdfb1b0>
     418:	00001934 	andeq	r1, r0, r4, lsr r9
     41c:	03012e0a 	movweq	r2, #7690	; 0x1e0a
     420:	3b0b3a0e 	blcc	2cec60 <__bss_end__+0x2c4cd0>
     424:	4919270b 	ldmdbmi	r9, {r0, r1, r3, r8, r9, sl, sp}
     428:	12011113 	andne	r1, r1, #-1073741820	; 0xc0000004
     42c:	97184006 	ldrls	r4, [r8, -r6]
     430:	13011942 	movwne	r1, #6466	; 0x1942
     434:	050b0000 	streq	r0, [fp, #-0]
     438:	3a080300 	bcc	201040 <__bss_end__+0x1f70b0>
     43c:	490b3b0b 	stmdbmi	fp, {r0, r1, r3, r8, r9, fp, ip, sp}
     440:	00170213 	andseq	r0, r7, r3, lsl r2
     444:	012e0c00 	teqeq	lr, r0, lsl #24
     448:	0b3a0803 	bleq	e8245c <__bss_end__+0xe784cc>
     44c:	19270b3b 	stmdbne	r7!, {r0, r1, r3, r4, r5, r8, r9, fp}
     450:	01111349 	tsteq	r1, r9, asr #6
     454:	18400612 	stmdane	r0, {r1, r4, r9, sl}^
     458:	01194297 			; <UNDEFINED> instruction: 0x01194297
     45c:	0d000013 	stceq	0, cr0, [r0, #-76]	; 0xffffffb4
     460:	0e030005 	cdpeq	0, 0, cr0, cr3, cr5, {0}
     464:	0b3b0b3a 	bleq	ec3154 <__bss_end__+0xeb91c4>
     468:	17021349 	strne	r1, [r2, -r9, asr #6]
     46c:	050e0000 	streq	r0, [lr, #-0]
     470:	3a0e0300 	bcc	381078 <__bss_end__+0x3770e8>
     474:	490b3b0b 	stmdbmi	fp, {r0, r1, r3, r8, r9, fp, ip, sp}
     478:	00180213 	andseq	r0, r8, r3, lsl r2
     47c:	00340f00 	eorseq	r0, r4, r0, lsl #30
     480:	0b3a0803 	bleq	e82494 <__bss_end__+0xe78504>
     484:	13490b3b 	movtne	r0, #39739	; 0x9b3b
     488:	00001802 	andeq	r1, r0, r2, lsl #16
     48c:	03003410 	movweq	r3, #1040	; 0x410
     490:	3b0b3a08 	blcc	2cecb8 <__bss_end__+0x2c4d28>
     494:	0213490b 	andseq	r4, r3, #180224	; 0x2c000
     498:	11000017 	tstne	r0, r7, lsl r0
     49c:	0e030034 	mcreq	0, 0, r0, cr3, cr4, {1}
     4a0:	19341349 	ldmdbne	r4!, {r0, r3, r6, r8, r9, ip}
     4a4:	00001802 	andeq	r1, r0, r2, lsl #16
     4a8:	11010b12 	tstne	r1, r2, lsl fp
     4ac:	01061201 	tsteq	r6, r1, lsl #4
     4b0:	13000013 	movwne	r0, #19
     4b4:	0e030034 	mcreq	0, 0, r0, cr3, cr4, {1}
     4b8:	0b3b0b3a 	bleq	ec31a8 <__bss_end__+0xeb9218>
     4bc:	17021349 	strne	r1, [r2, -r9, asr #6]
     4c0:	89140000 	ldmdbhi	r4, {}	; <UNPREDICTABLE>
     4c4:	11000182 	smlabbne	r0, r2, r1, r0
     4c8:	00133101 	andseq	r3, r3, r1, lsl #2
     4cc:	82891500 	addhi	r1, r9, #0, 10
     4d0:	01110101 	tsteq	r1, r1, lsl #2
     4d4:	13011331 	movwne	r1, #4913	; 0x1331
     4d8:	8a160000 	bhi	5804e0 <__bss_end__+0x576550>
     4dc:	02000182 	andeq	r0, r0, #-2147483616	; 0x80000020
     4e0:	18429118 	stmdane	r2, {r3, r4, r8, ip, pc}^
     4e4:	89170000 	ldmdbhi	r7, {}	; <UNPREDICTABLE>
     4e8:	11010182 	smlabbne	r1, r2, r1, r0
     4ec:	00133101 	andseq	r3, r3, r1, lsl #2
     4f0:	01011800 	tsteq	r1, r0, lsl #16
     4f4:	13011349 	movwne	r1, #4937	; 0x1349
     4f8:	21190000 	tstcs	r9, r0
     4fc:	2f134900 	svccs	0x00134900
     500:	1a00000b 	bne	534 <_start-0x7acc>
     504:	193f012e 	ldmdbne	pc!, {r1, r2, r3, r5, r8}	; <UNPREDICTABLE>
     508:	0b3a0e03 	bleq	e83d1c <__bss_end__+0xe79d8c>
     50c:	19270b3b 	stmdbne	r7!, {r0, r1, r3, r4, r5, r8, r9, fp}
     510:	06120111 			; <UNDEFINED> instruction: 0x06120111
     514:	42971840 	addsmi	r1, r7, #64, 16	; 0x400000
     518:	00130119 	andseq	r0, r3, r9, lsl r1
     51c:	01151b00 	tsteq	r5, r0, lsl #22
     520:	13491927 	movtne	r1, #39207	; 0x9927
     524:	00001301 	andeq	r1, r0, r1, lsl #6
     528:	4900051c 	stmdbmi	r0, {r2, r3, r4, r8, sl}
     52c:	1d000013 	stcne	0, cr0, [r0, #-76]	; 0xffffffb4
     530:	193f012e 	ldmdbne	pc!, {r1, r2, r3, r5, r8}	; <UNPREDICTABLE>
     534:	0b3a0e03 	bleq	e83d48 <__bss_end__+0xe79db8>
     538:	19270b3b 	stmdbne	r7!, {r0, r1, r3, r4, r5, r8, r9, fp}
     53c:	01111349 	tsteq	r1, r9, asr #6
     540:	18400612 	stmdane	r0, {r1, r4, r9, sl}^
     544:	01194297 			; <UNDEFINED> instruction: 0x01194297
     548:	1e000013 	mcrne	0, 0, r0, cr0, cr3, {0}
     54c:	1755010b 	ldrbne	r0, [r5, -fp, lsl #2]
     550:	341f0000 	ldrcc	r0, [pc], #-0	; 558 <_start-0x7aa8>
     554:	3a0e0300 	bcc	38115c <__bss_end__+0x3771cc>
     558:	490b3b0b 	stmdbmi	fp, {r0, r1, r3, r8, r9, fp, ip, sp}
     55c:	3c193f13 	ldccc	15, cr3, [r9], {19}
     560:	20000019 	andcs	r0, r0, r9, lsl r0
     564:	193f002e 	ldmdbne	pc!, {r1, r2, r3, r5}	; <UNPREDICTABLE>
     568:	0b3a0e03 	bleq	e83d7c <__bss_end__+0xe79dec>
     56c:	19270b3b 	stmdbne	r7!, {r0, r1, r3, r4, r5, r8, r9, fp}
     570:	0000193c 	andeq	r1, r0, ip, lsr r9
     574:	3f012e21 	svccc	0x00012e21
     578:	3a0e0319 	bcc	3811e4 <__bss_end__+0x377254>
     57c:	270b3b0b 	strcs	r3, [fp, -fp, lsl #22]
     580:	3c134919 	ldccc	9, cr4, [r3], {25}
     584:	00130119 	andseq	r0, r3, r9, lsl r1
     588:	00182200 	andseq	r2, r8, r0, lsl #4
     58c:	01000000 	mrseq	r0, (UNDEF: 0)
     590:	0e250111 	mcreq	1, 1, r0, cr5, cr1, {0}
     594:	0e030b13 	vmoveq.32	d3[0], r0
     598:	01110e1b 	tsteq	r1, fp, lsl lr
     59c:	17100612 			; <UNDEFINED> instruction: 0x17100612
     5a0:	24020000 	strcs	r0, [r2], #-0
     5a4:	3e0b0b00 	vmlacc.f64	d0, d11, d0
     5a8:	0008030b 	andeq	r0, r8, fp, lsl #6
     5ac:	00240300 	eoreq	r0, r4, r0, lsl #6
     5b0:	0b3e0b0b 	bleq	f831e4 <__bss_end__+0xf79254>
     5b4:	00000e03 	andeq	r0, r0, r3, lsl #28
     5b8:	3f012e04 	svccc	0x00012e04
     5bc:	3a0e0319 	bcc	381228 <__bss_end__+0x377298>
     5c0:	270b3b0b 	strcs	r3, [fp, -fp, lsl #22]
     5c4:	12011119 	andne	r1, r1, #1073741830	; 0x40000006
     5c8:	97184006 	ldrls	r4, [r8, -r6]
     5cc:	13011942 	movwne	r1, #6466	; 0x1942
     5d0:	34050000 	strcc	r0, [r5], #-0
     5d4:	3a080300 	bcc	2011dc <__bss_end__+0x1f724c>
     5d8:	490b3b0b 	stmdbmi	fp, {r0, r1, r3, r8, r9, fp, ip, sp}
     5dc:	00170213 	andseq	r0, r7, r3, lsl r2
     5e0:	012e0600 	teqeq	lr, r0, lsl #12
     5e4:	0e03193f 	mcreq	9, 0, r1, cr3, cr15, {1}
     5e8:	0b3b0b3a 	bleq	ec32d8 <__bss_end__+0xeb9348>
     5ec:	01111927 	tsteq	r1, r7, lsr #18
     5f0:	18400612 	stmdane	r0, {r1, r4, r9, sl}^
     5f4:	00194297 	mulseq	r9, r7, r2
     5f8:	11010000 	mrsne	r0, (UNDEF: 1)
     5fc:	130e2501 	movwne	r2, #58625	; 0xe501
     600:	1b0e030b 	blne	381234 <__bss_end__+0x3772a4>
     604:	1201110e 	andne	r1, r1, #-2147483645	; 0x80000003
     608:	00171006 	andseq	r1, r7, r6
     60c:	00240200 	eoreq	r0, r4, r0, lsl #4
     610:	0b3e0b0b 	bleq	f83244 <__bss_end__+0xf792b4>
     614:	00000803 	andeq	r0, r0, r3, lsl #16
     618:	0b002403 	bleq	962c <dmb+0x4>
     61c:	030b3e0b 	movweq	r3, #48651	; 0xbe0b
     620:	0400000e 	streq	r0, [r0], #-14
     624:	0b0b000f 	bleq	2c0668 <__bss_end__+0x2b66d8>
     628:	00001349 	andeq	r1, r0, r9, asr #6
     62c:	49002605 	stmdbmi	r0, {r0, r2, r9, sl, sp}
     630:	06000013 			; <UNDEFINED> instruction: 0x06000013
     634:	193f012e 	ldmdbne	pc!, {r1, r2, r3, r5, r8}	; <UNPREDICTABLE>
     638:	0b3a0e03 	bleq	e83e4c <__bss_end__+0xe79ebc>
     63c:	19270b3b 	stmdbne	r7!, {r0, r1, r3, r4, r5, r8, r9, fp}
     640:	06120111 			; <UNDEFINED> instruction: 0x06120111
     644:	42971840 	addsmi	r1, r7, #64, 16	; 0x400000
     648:	00130119 	andseq	r0, r3, r9, lsl r1
     64c:	82890700 	addhi	r0, r9, #0, 14
     650:	01110101 	tsteq	r1, r1, lsl #2
     654:	00001301 	andeq	r1, r0, r1, lsl #6
     658:	01828a08 	orreq	r8, r2, r8, lsl #20
     65c:	91180200 	tstls	r8, r0, lsl #4
     660:	00001842 	andeq	r1, r0, r2, asr #16
     664:	01828909 	orreq	r8, r2, r9, lsl #18
     668:	31011101 	tstcc	r1, r1, lsl #2
     66c:	00130113 	andseq	r0, r3, r3, lsl r1
     670:	82890a00 	addhi	r0, r9, #0, 20
     674:	01110001 	tsteq	r1, r1
     678:	00001331 	andeq	r1, r0, r1, lsr r3
     67c:	2701150b 	strcs	r1, [r1, -fp, lsl #10]
     680:	01134919 	tsteq	r3, r9, lsl r9
     684:	0c000013 	stceq	0, cr0, [r0], {19}
     688:	13490005 	movtne	r0, #36869	; 0x9005
     68c:	340d0000 	strcc	r0, [sp], #-0
     690:	3a0e0300 	bcc	381298 <__bss_end__+0x377308>
     694:	490b3b0b 	stmdbmi	fp, {r0, r1, r3, r8, r9, fp, ip, sp}
     698:	3c193f13 	ldccc	15, cr3, [r9], {19}
     69c:	0e000019 	mcreq	0, 0, r0, cr0, cr9, {0}
     6a0:	193f012e 	ldmdbne	pc!, {r1, r2, r3, r5, r8}	; <UNPREDICTABLE>
     6a4:	0b3a0e03 	bleq	e83eb8 <__bss_end__+0xe79f28>
     6a8:	19270b3b 	stmdbne	r7!, {r0, r1, r3, r4, r5, r8, r9, fp}
     6ac:	1301193c 	movwne	r1, #6460	; 0x193c
     6b0:	2e0f0000 	cdpcs	0, 0, cr0, cr15, cr0, {0}
     6b4:	03193f00 	tsteq	r9, #0, 30
     6b8:	3b0b3a0e 	blcc	2ceef8 <__bss_end__+0x2c4f68>
     6bc:	3c19270b 	ldccc	7, cr2, [r9], {11}
     6c0:	00000019 	andeq	r0, r0, r9, lsl r0
     6c4:	25011101 	strcs	r1, [r1, #-257]	; 0x101
     6c8:	030b130e 	movweq	r1, #45838	; 0xb30e
     6cc:	110e1b0e 	tstne	lr, lr, lsl #22
     6d0:	10061201 	andne	r1, r6, r1, lsl #4
     6d4:	02000017 	andeq	r0, r0, #23
     6d8:	0b0b0024 	bleq	2c0770 <__bss_end__+0x2b67e0>
     6dc:	08030b3e 	stmdaeq	r3, {r1, r2, r3, r4, r5, r8, r9, fp}
     6e0:	24030000 	strcs	r0, [r3], #-0
     6e4:	3e0b0b00 	vmlacc.f64	d0, d11, d0
     6e8:	000e030b 	andeq	r0, lr, fp, lsl #6
     6ec:	00160400 	andseq	r0, r6, r0, lsl #8
     6f0:	0b3a0e03 	bleq	e83f04 <__bss_end__+0xe79f74>
     6f4:	13490b3b 	movtne	r0, #39739	; 0x9b3b
     6f8:	0f050000 	svceq	0x00050000
     6fc:	490b0b00 	stmdbmi	fp, {r8, r9, fp}
     700:	06000013 			; <UNDEFINED> instruction: 0x06000013
     704:	13490026 	movtne	r0, #36902	; 0x9026
     708:	13070000 	movwne	r0, #28672	; 0x7000
     70c:	3a0b0b01 	bcc	2c3318 <__bss_end__+0x2b9388>
     710:	010b3b0b 	tsteq	fp, fp, lsl #22
     714:	08000013 	stmdaeq	r0, {r0, r1, r4}
     718:	0803000d 	stmdaeq	r3, {r0, r2, r3}
     71c:	0b3b0b3a 	bleq	ec340c <__bss_end__+0xeb947c>
     720:	0b381349 	bleq	e0544c <__bss_end__+0xdfb4bc>
     724:	0d090000 	stceq	0, cr0, [r9, #-0]
     728:	3a0e0300 	bcc	381330 <__bss_end__+0x3773a0>
     72c:	490b3b0b 	stmdbmi	fp, {r0, r1, r3, r8, r9, fp, ip, sp}
     730:	000b3813 	andeq	r3, fp, r3, lsl r8
     734:	01040a00 	tsteq	r4, r0, lsl #20
     738:	0b3a0b0b 	bleq	e8336c <__bss_end__+0xe793dc>
     73c:	13010b3b 	movwne	r0, #6971	; 0x1b3b
     740:	280b0000 	stmdacs	fp, {}	; <UNPREDICTABLE>
     744:	1c0e0300 	stcne	3, cr0, [lr], {-0}
     748:	0c00000d 	stceq	0, cr0, [r0], {13}
     74c:	0e03012e 	adfeqsp	f0, f3, #0.5
     750:	0b3b0b3a 	bleq	ec3440 <__bss_end__+0xeb94b0>
     754:	13491927 	movtne	r1, #39207	; 0x9927
     758:	06120111 			; <UNDEFINED> instruction: 0x06120111
     75c:	42971840 	addsmi	r1, r7, #64, 16	; 0x400000
     760:	00130119 	andseq	r0, r3, r9, lsl r1
     764:	00050d00 	andeq	r0, r5, r0, lsl #26
     768:	0b3a0803 	bleq	e8277c <__bss_end__+0xe787ec>
     76c:	13490b3b 	movtne	r0, #39739	; 0x9b3b
     770:	00001702 	andeq	r1, r0, r2, lsl #14
     774:	0182890e 	orreq	r8, r2, lr, lsl #18
     778:	31011101 	tstcc	r1, r1, lsl #2
     77c:	0f000013 	svceq	0x00000013
     780:	0001828a 	andeq	r8, r1, sl, lsl #5
     784:	42911802 	addsmi	r1, r1, #131072	; 0x20000
     788:	10000018 	andne	r0, r0, r8, lsl r0
     78c:	193f012e 	ldmdbne	pc!, {r1, r2, r3, r5, r8}	; <UNPREDICTABLE>
     790:	0b3a0e03 	bleq	e83fa4 <__bss_end__+0xe7a014>
     794:	01110b3b 	tsteq	r1, fp, lsr fp
     798:	18400612 	stmdane	r0, {r1, r4, r9, sl}^
     79c:	01194297 			; <UNDEFINED> instruction: 0x01194297
     7a0:	11000013 	tstne	r0, r3, lsl r0
     7a4:	0e030034 	mcreq	0, 0, r0, cr3, cr4, {1}
     7a8:	0b3b0b3a 	bleq	ec3498 <__bss_end__+0xeb9508>
     7ac:	193f1349 	ldmdbne	pc!, {r0, r3, r6, r8, r9, ip}	; <UNPREDICTABLE>
     7b0:	0000193c 	andeq	r1, r0, ip, lsr r9
     7b4:	3f002e12 	svccc	0x00002e12
     7b8:	3a0e0319 	bcc	381424 <__bss_end__+0x377494>
     7bc:	270b3b0b 	strcs	r3, [fp, -fp, lsl #22]
     7c0:	00193c19 	andseq	r3, r9, r9, lsl ip
     7c4:	00341300 	eorseq	r1, r4, r0, lsl #6
     7c8:	0b3a0803 	bleq	e827dc <__bss_end__+0xe7884c>
     7cc:	13490b3b 	movtne	r0, #39739	; 0x9b3b
     7d0:	00001702 	andeq	r1, r0, r2, lsl #14
     7d4:	03003414 	movweq	r3, #1044	; 0x414
     7d8:	3b0b3a0e 	blcc	2cf018 <__bss_end__+0x2c5088>
     7dc:	0013490b 	andseq	r4, r3, fp, lsl #18
     7e0:	82891500 	addhi	r1, r9, #0, 10
     7e4:	01110001 	tsteq	r1, r1
     7e8:	00001331 	andeq	r1, r0, r1, lsr r3
     7ec:	01828916 	orreq	r8, r2, r6, lsl r9
     7f0:	31011101 	tstcc	r1, r1, lsl #2
     7f4:	00130113 	andseq	r0, r3, r3, lsl r1
     7f8:	00341700 	eorseq	r1, r4, r0, lsl #14
     7fc:	0b3a0e03 	bleq	e84010 <__bss_end__+0xe7a080>
     800:	13490b3b 	movtne	r0, #39739	; 0x9b3b
     804:	00001802 	andeq	r1, r0, r2, lsl #16
     808:	27011518 	smladcs	r1, r8, r5, r1
     80c:	01134919 	tsteq	r3, r9, lsl r9
     810:	19000013 	stmdbne	r0, {r0, r1, r4}
     814:	13490005 	movtne	r0, #36869	; 0x9005
     818:	2e1a0000 	cdpcs	0, 1, cr0, cr10, cr0, {0}
     81c:	03193f01 	tsteq	r9, #1, 30
     820:	3b0b3a0e 	blcc	2cf060 <__bss_end__+0x2c50d0>
     824:	3c19270b 	ldccc	7, cr2, [r9], {11}
     828:	00130119 	andseq	r0, r3, r9, lsl r1
     82c:	002e1b00 	eoreq	r1, lr, r0, lsl #22
     830:	0e03193f 	mcreq	9, 0, r1, cr3, cr15, {1}
     834:	0b3b0b3a 	bleq	ec3524 <__bss_end__+0xeb9594>
     838:	13491927 	movtne	r1, #39207	; 0x9927
     83c:	0000193c 	andeq	r1, r0, ip, lsr r9
     840:	3f012e1c 	svccc	0x00012e1c
     844:	3a0e0319 	bcc	3814b0 <__bss_end__+0x377520>
     848:	270b3b0b 	strcs	r3, [fp, -fp, lsl #22]
     84c:	3c134919 	ldccc	9, cr4, [r3], {25}
     850:	00130119 	andseq	r0, r3, r9, lsl r1
     854:	00181d00 	andseq	r1, r8, r0, lsl #26
     858:	01000000 	mrseq	r0, (UNDEF: 0)
     85c:	0e250111 	mcreq	1, 1, r0, cr5, cr1, {0}
     860:	0e030b13 	vmoveq.32	d3[0], r0
     864:	17550e1b 	smmlane	r5, fp, lr, r0
     868:	17100111 			; <UNDEFINED> instruction: 0x17100111
     86c:	24020000 	strcs	r0, [r2], #-0
     870:	3e0b0b00 	vmlacc.f64	d0, d11, d0
     874:	0008030b 	andeq	r0, r8, fp, lsl #6
     878:	00240300 	eoreq	r0, r4, r0, lsl #6
     87c:	0b3e0b0b 	bleq	f834b0 <__bss_end__+0xf79520>
     880:	00000e03 	andeq	r0, r0, r3, lsl #28
     884:	3f012e04 	svccc	0x00012e04
     888:	3a0e0319 	bcc	3814f4 <__bss_end__+0x377564>
     88c:	270b3b0b 	strcs	r3, [fp, -fp, lsl #22]
     890:	11134919 	tstne	r3, r9, lsl r9
     894:	40061201 	andmi	r1, r6, r1, lsl #4
     898:	19429718 	stmdbne	r2, {r3, r4, r8, r9, sl, ip, pc}^
     89c:	00001301 	andeq	r1, r0, r1, lsl #6
     8a0:	03003405 	movweq	r3, #1029	; 0x405
     8a4:	3b0b3a0e 	blcc	2cf0e4 <__bss_end__+0x2c5154>
     8a8:	0213490b 	andseq	r4, r3, #180224	; 0x2c000
     8ac:	06000017 			; <UNDEFINED> instruction: 0x06000017
     8b0:	193f012e 	ldmdbne	pc!, {r1, r2, r3, r5, r8}	; <UNPREDICTABLE>
     8b4:	0b3a0e03 	bleq	e840c8 <__bss_end__+0xe7a138>
     8b8:	19270b3b 	stmdbne	r7!, {r0, r1, r3, r4, r5, r8, r9, fp}
     8bc:	06120111 			; <UNDEFINED> instruction: 0x06120111
     8c0:	42971840 	addsmi	r1, r7, #64, 16	; 0x400000
     8c4:	00130119 	andseq	r0, r3, r9, lsl r1
     8c8:	00340700 	eorseq	r0, r4, r0, lsl #14
     8cc:	0b3a0e03 	bleq	e840e0 <__bss_end__+0xe7a150>
     8d0:	13490b3b 	movtne	r0, #39739	; 0x9b3b
     8d4:	0000061c 	andeq	r0, r0, ip, lsl r6
     8d8:	03003408 	movweq	r3, #1032	; 0x408
     8dc:	3b0b3a0e 	blcc	2cf11c <__bss_end__+0x2c518c>
     8e0:	1c13490b 	ldcne	9, cr4, [r3], {11}
     8e4:	0900000b 	stmdbeq	r0, {r0, r1, r3}
     8e8:	00018289 	andeq	r8, r1, r9, lsl #5
     8ec:	13310111 	teqne	r1, #1073741828	; 0x40000004
     8f0:	890a0000 	stmdbhi	sl, {}	; <UNPREDICTABLE>
     8f4:	11010182 	smlabbne	r1, r2, r1, r0
     8f8:	01133101 	tsteq	r3, r1, lsl #2
     8fc:	0b000013 	bleq	950 <_start-0x76b0>
     900:	0001828a 	andeq	r8, r1, sl, lsl #5
     904:	42911802 	addsmi	r1, r1, #131072	; 0x20000
     908:	0c000018 	stceq	0, cr0, [r0], {24}
     90c:	01018289 	smlabbeq	r1, r9, r2, r8
     910:	13310111 	teqne	r1, #1073741828	; 0x40000004
     914:	260d0000 	strcs	r0, [sp], -r0
     918:	00134900 	andseq	r4, r3, r0, lsl #18
     91c:	012e0e00 	teqeq	lr, r0, lsl #28
     920:	0e03193f 	mcreq	9, 0, r1, cr3, cr15, {1}
     924:	0b3b0b3a 	bleq	ec3614 <__bss_end__+0xeb9684>
     928:	193c1927 	ldmdbne	ip!, {r0, r1, r2, r5, r8, fp, ip}
     92c:	00001301 	andeq	r1, r0, r1, lsl #6
     930:	4900050f 	stmdbmi	r0, {r0, r1, r2, r3, r8, sl}
     934:	10000013 	andne	r0, r0, r3, lsl r0
     938:	193f012e 	ldmdbne	pc!, {r1, r2, r3, r5, r8}	; <UNPREDICTABLE>
     93c:	0b3a0e03 	bleq	e84150 <__bss_end__+0xe7a1c0>
     940:	19270b3b 	stmdbne	r7!, {r0, r1, r3, r4, r5, r8, r9, fp}
     944:	0000193c 	andeq	r1, r0, ip, lsr r9
     948:	01110100 	tsteq	r1, r0, lsl #2
     94c:	0b130e25 	bleq	4c41e8 <__bss_end__+0x4ba258>
     950:	0e1b0e03 	cdpeq	14, 1, cr0, cr11, cr3, {0}
     954:	06120111 			; <UNDEFINED> instruction: 0x06120111
     958:	00001710 	andeq	r1, r0, r0, lsl r7
     95c:	0b002402 	bleq	996c <__FUNCTION__.4287+0x10>
     960:	030b3e0b 	movweq	r3, #48651	; 0xbe0b
     964:	03000008 	movweq	r0, #8
     968:	0b0b0024 	bleq	2c0a00 <__bss_end__+0x2b6a70>
     96c:	0e030b3e 	vmoveq.16	d3[0], r0
     970:	2e040000 	cdpcs	0, 0, cr0, cr4, cr0, {0}
     974:	03193f01 	tsteq	r9, #1, 30
     978:	3b0b3a0e 	blcc	2cf1b8 <__bss_end__+0x2c5228>
     97c:	1119270b 	tstne	r9, fp, lsl #14
     980:	40061201 	andmi	r1, r6, r1, lsl #4
     984:	19429718 	stmdbne	r2, {r3, r4, r8, r9, sl, ip, pc}^
     988:	00001301 	andeq	r1, r0, r1, lsl #6
     98c:	03000505 	movweq	r0, #1285	; 0x505
     990:	3b0b3a0e 	blcc	2cf1d0 <__bss_end__+0x2c5240>
     994:	0213490b 	andseq	r4, r3, #180224	; 0x2c000
     998:	06000017 			; <UNDEFINED> instruction: 0x06000017
     99c:	193f012e 	ldmdbne	pc!, {r1, r2, r3, r5, r8}	; <UNPREDICTABLE>
     9a0:	0b3a0e03 	bleq	e841b4 <__bss_end__+0xe7a224>
     9a4:	19270b3b 	stmdbne	r7!, {r0, r1, r3, r4, r5, r8, r9, fp}
     9a8:	01111349 	tsteq	r1, r9, asr #6
     9ac:	18400612 	stmdane	r0, {r1, r4, r9, sl}^
     9b0:	01194297 			; <UNDEFINED> instruction: 0x01194297
     9b4:	07000013 	smladeq	r0, r3, r0, r0
     9b8:	01018289 	smlabbeq	r1, r9, r2, r8
     9bc:	13310111 	teqne	r1, #1073741828	; 0x40000004
     9c0:	8a080000 	bhi	2009c8 <__bss_end__+0x1f6a38>
     9c4:	02000182 	andeq	r0, r0, #-2147483616	; 0x80000020
     9c8:	18429118 	stmdane	r2, {r3, r4, r8, ip, pc}^
     9cc:	34090000 	strcc	r0, [r9], #-0
     9d0:	3a080300 	bcc	2015d8 <__bss_end__+0x1f7648>
     9d4:	490b3b0b 	stmdbmi	fp, {r0, r1, r3, r8, r9, fp, ip, sp}
     9d8:	00180213 	andseq	r0, r8, r3, lsl r2
     9dc:	82890a00 	addhi	r0, r9, #0, 20
     9e0:	01110001 	tsteq	r1, r1
     9e4:	00001331 	andeq	r1, r0, r1, lsr r3
     9e8:	0300050b 	movweq	r0, #1291	; 0x50b
     9ec:	3b0b3a08 	blcc	2cf214 <__bss_end__+0x2c5284>
     9f0:	0213490b 	andseq	r4, r3, #180224	; 0x2c000
     9f4:	0c000017 	stceq	0, cr0, [r0], {23}
     9f8:	0111010b 	tsteq	r1, fp, lsl #2
     9fc:	13010612 	movwne	r0, #5650	; 0x1612
     a00:	340d0000 	strcc	r0, [sp], #-0
     a04:	3a080300 	bcc	20160c <__bss_end__+0x1f767c>
     a08:	490b3b0b 	stmdbmi	fp, {r0, r1, r3, r8, r9, fp, ip, sp}
     a0c:	00170213 	andseq	r0, r7, r3, lsl r2
     a10:	012e0e00 	teqeq	lr, r0, lsl #28
     a14:	0e03193f 	mcreq	9, 0, r1, cr3, cr15, {1}
     a18:	0b3b0b3a 	bleq	ec3708 <__bss_end__+0xeb9778>
     a1c:	13491927 	movtne	r1, #39207	; 0x9927
     a20:	0000193c 	andeq	r1, r0, ip, lsr r9
     a24:	4900050f 	stmdbmi	r0, {r0, r1, r2, r3, r8, sl}
     a28:	00000013 	andeq	r0, r0, r3, lsl r0
     a2c:	25011101 	strcs	r1, [r1, #-257]	; 0x101
     a30:	030b130e 	movweq	r1, #45838	; 0xb30e
     a34:	110e1b0e 	tstne	lr, lr, lsl #22
     a38:	10061201 	andne	r1, r6, r1, lsl #4
     a3c:	02000017 	andeq	r0, r0, #23
     a40:	0b0b0024 	bleq	2c0ad8 <__bss_end__+0x2b6b48>
     a44:	0e030b3e 	vmoveq.16	d3[0], r0
     a48:	24030000 	strcs	r0, [r3], #-0
     a4c:	3e0b0b00 	vmlacc.f64	d0, d11, d0
     a50:	0008030b 	andeq	r0, r8, fp, lsl #6
     a54:	01040400 	tsteq	r4, r0, lsl #8
     a58:	0b3a0b0b 	bleq	e8368c <__bss_end__+0xe796fc>
     a5c:	13010b3b 	movwne	r0, #6971	; 0x1b3b
     a60:	28050000 	stmdacs	r5, {}	; <UNPREDICTABLE>
     a64:	1c0e0300 	stcne	3, cr0, [lr], {-0}
     a68:	0600000d 	streq	r0, [r0], -sp
     a6c:	0e030016 	mcreq	0, 0, r0, cr3, cr6, {0}
     a70:	0b3b0b3a 	bleq	ec3760 <__bss_end__+0xeb97d0>
     a74:	00001349 	andeq	r1, r0, r9, asr #6
     a78:	3f012e07 	svccc	0x00012e07
     a7c:	3a0e0319 	bcc	3816e8 <__bss_end__+0x377758>
     a80:	270b3b0b 	strcs	r3, [fp, -fp, lsl #22]
     a84:	12011119 	andne	r1, r1, #1073741830	; 0x40000006
     a88:	97184006 	ldrls	r4, [r8, -r6]
     a8c:	13011942 	movwne	r1, #6466	; 0x1942
     a90:	05080000 	streq	r0, [r8, #-0]
     a94:	3a080300 	bcc	20169c <__bss_end__+0x1f770c>
     a98:	490b3b0b 	stmdbmi	fp, {r0, r1, r3, r8, r9, fp, ip, sp}
     a9c:	00170213 	andseq	r0, r7, r3, lsl r2
     aa0:	00340900 	eorseq	r0, r4, r0, lsl #18
     aa4:	0b3a0e03 	bleq	e842b8 <__bss_end__+0xe7a328>
     aa8:	13490b3b 	movtne	r0, #39739	; 0x9b3b
     aac:	00001702 	andeq	r1, r0, r2, lsl #14
     ab0:	0182890a 	orreq	r8, r2, sl, lsl #18
     ab4:	31011101 	tstcc	r1, r1, lsl #2
     ab8:	00130113 	andseq	r0, r3, r3, lsl r1
     abc:	828a0b00 	addhi	r0, sl, #0, 22
     ac0:	18020001 	stmdane	r2, {r0}
     ac4:	00184291 	mulseq	r8, r1, r2
     ac8:	82890c00 	addhi	r0, r9, #0, 24
     acc:	01110101 	tsteq	r1, r1, lsl #2
     ad0:	00001331 	andeq	r1, r0, r1, lsr r3
     ad4:	0b000f0d 	bleq	4710 <_start-0x38f0>
     ad8:	0013490b 	andseq	r4, r3, fp, lsl #18
     adc:	00350e00 	eorseq	r0, r5, r0, lsl #28
     ae0:	00001349 	andeq	r1, r0, r9, asr #6
     ae4:	3f012e0f 	svccc	0x00012e0f
     ae8:	3a0e0319 	bcc	381754 <__bss_end__+0x3777c4>
     aec:	270b3b0b 	strcs	r3, [fp, -fp, lsl #22]
     af0:	11134919 	tstne	r3, r9, lsl r9
     af4:	40061201 	andmi	r1, r6, r1, lsl #4
     af8:	19429718 	stmdbne	r2, {r3, r4, r8, r9, sl, ip, pc}^
     afc:	00001301 	andeq	r1, r0, r1, lsl #6
     b00:	03003410 	movweq	r3, #1040	; 0x410
     b04:	3b0b3a08 	blcc	2cf32c <__bss_end__+0x2c539c>
     b08:	0213490b 	andseq	r4, r3, #180224	; 0x2c000
     b0c:	11000017 	tstne	r0, r7, lsl r0
     b10:	00018289 	andeq	r8, r1, r9, lsl #5
     b14:	13310111 	teqne	r1, #1073741828	; 0x40000004
     b18:	05120000 	ldreq	r0, [r2, #-0]
     b1c:	3a0e0300 	bcc	381724 <__bss_end__+0x377794>
     b20:	490b3b0b 	stmdbmi	fp, {r0, r1, r3, r8, r9, fp, ip, sp}
     b24:	00170213 	andseq	r0, r7, r3, lsl r2
     b28:	012e1300 	teqeq	lr, r0, lsl #6
     b2c:	0e03193f 	mcreq	9, 0, r1, cr3, cr15, {1}
     b30:	053b0b3a 	ldreq	r0, [fp, #-2874]!	; 0xb3a
     b34:	13491927 	movtne	r1, #39207	; 0x9927
     b38:	06120111 			; <UNDEFINED> instruction: 0x06120111
     b3c:	42971840 	addsmi	r1, r7, #64, 16	; 0x400000
     b40:	00130119 	andseq	r0, r3, r9, lsl r1
     b44:	00051400 	andeq	r1, r5, r0, lsl #8
     b48:	0b3a0e03 	bleq	e8435c <__bss_end__+0xe7a3cc>
     b4c:	1349053b 	movtne	r0, #38203	; 0x953b
     b50:	00001702 	andeq	r1, r0, r2, lsl #14
     b54:	3f012e15 	svccc	0x00012e15
     b58:	3a0e0319 	bcc	3817c4 <__bss_end__+0x377834>
     b5c:	27053b0b 	strcs	r3, [r5, -fp, lsl #22]
     b60:	12011119 	andne	r1, r1, #1073741830	; 0x40000006
     b64:	97184006 	ldrls	r4, [r8, -r6]
     b68:	13011942 	movwne	r1, #6466	; 0x1942
     b6c:	05160000 	ldreq	r0, [r6, #-0]
     b70:	3a080300 	bcc	201778 <__bss_end__+0x1f77e8>
     b74:	49053b0b 	stmdbmi	r5, {r0, r1, r3, r8, r9, fp, ip, sp}
     b78:	00170213 	andseq	r0, r7, r3, lsl r2
     b7c:	00341700 	eorseq	r1, r4, r0, lsl #14
     b80:	0b3a0e03 	bleq	e84394 <__bss_end__+0xe7a404>
     b84:	1349053b 	movtne	r0, #38203	; 0x953b
     b88:	00001702 	andeq	r1, r0, r2, lsl #14
     b8c:	11010b18 	tstne	r1, r8, lsl fp
     b90:	01061201 	tsteq	r6, r1, lsl #4
     b94:	19000013 	stmdbne	r0, {r0, r1, r4}
     b98:	0e030034 	mcreq	0, 0, r0, cr3, cr4, {1}
     b9c:	0b3b0b3a 	bleq	ec388c <__bss_end__+0xeb98fc>
     ba0:	193f1349 	ldmdbne	pc!, {r0, r3, r6, r8, r9, ip}	; <UNPREDICTABLE>
     ba4:	00001802 	andeq	r1, r0, r2, lsl #16
     ba8:	0300341a 	movweq	r3, #1050	; 0x41a
     bac:	3b0b3a0e 	blcc	2cf3ec <__bss_end__+0x2c545c>
     bb0:	3f134905 	svccc	0x00134905
     bb4:	00180219 	andseq	r0, r8, r9, lsl r2
     bb8:	012e1b00 	teqeq	lr, r0, lsl #22
     bbc:	0e03193f 	mcreq	9, 0, r1, cr3, cr15, {1}
     bc0:	0b3b0b3a 	bleq	ec38b0 <__bss_end__+0xeb9920>
     bc4:	13491927 	movtne	r1, #39207	; 0x9927
     bc8:	1301193c 	movwne	r1, #6460	; 0x193c
     bcc:	051c0000 	ldreq	r0, [ip, #-0]
     bd0:	00134900 	andseq	r4, r3, r0, lsl #18
     bd4:	00261d00 	eoreq	r1, r6, r0, lsl #26
     bd8:	00001349 	andeq	r1, r0, r9, asr #6
     bdc:	0000351e 	andeq	r3, r0, lr, lsl r5
     be0:	012e1f00 	teqeq	lr, r0, lsl #30
     be4:	0e03193f 	mcreq	9, 0, r1, cr3, cr15, {1}
     be8:	0b3b0b3a 	bleq	ec38d8 <__bss_end__+0xeb9948>
     bec:	193c1927 	ldmdbne	ip!, {r0, r1, r2, r5, r8, fp, ip}
     bf0:	00001301 	andeq	r1, r0, r1, lsl #6
     bf4:	3f002e20 	svccc	0x00002e20
     bf8:	3a0e0319 	bcc	381864 <__bss_end__+0x3778d4>
     bfc:	270b3b0b 	strcs	r3, [fp, -fp, lsl #22]
     c00:	00193c19 	andseq	r3, r9, r9, lsl ip
     c04:	11010000 	mrsne	r0, (UNDEF: 1)
     c08:	130e2501 	movwne	r2, #58625	; 0xe501
     c0c:	1b0e030b 	blne	381840 <__bss_end__+0x3778b0>
     c10:	1201110e 	andne	r1, r1, #-2147483645	; 0x80000003
     c14:	00171006 	andseq	r1, r7, r6
     c18:	00240200 	eoreq	r0, r4, r0, lsl #4
     c1c:	0b3e0b0b 	bleq	f83850 <__bss_end__+0xf798c0>
     c20:	00000803 	andeq	r0, r0, r3, lsl #16
     c24:	0b002403 	bleq	9c38 <__bss_start__+0xb8>
     c28:	030b3e0b 	movweq	r3, #48651	; 0xbe0b
     c2c:	0400000e 	streq	r0, [r0], #-14
     c30:	0e030016 	mcreq	0, 0, r0, cr3, cr6, {0}
     c34:	0b3b0b3a 	bleq	ec3924 <__bss_end__+0xeb9994>
     c38:	00001349 	andeq	r1, r0, r9, asr #6
     c3c:	0b000f05 	bleq	4858 <_start-0x37a8>
     c40:	0600000b 	streq	r0, [r0], -fp
     c44:	0b0b000f 	bleq	2c0c88 <__bss_end__+0x2b6cf8>
     c48:	00001349 	andeq	r1, r0, r9, asr #6
     c4c:	49002607 	stmdbmi	r0, {r0, r1, r2, r9, sl, sp}
     c50:	08000013 	stmdaeq	r0, {r0, r1, r4}
     c54:	0b0b0113 	bleq	2c10a8 <__bss_end__+0x2b7118>
     c58:	0b3b0b3a 	bleq	ec3948 <__bss_end__+0xeb99b8>
     c5c:	00001301 	andeq	r1, r0, r1, lsl #6
     c60:	03000d09 	movweq	r0, #3337	; 0xd09
     c64:	3b0b3a08 	blcc	2cf48c <__bss_end__+0x2c54fc>
     c68:	3813490b 	ldmdacc	r3, {r0, r1, r3, r8, fp, lr}
     c6c:	0a00000b 	beq	ca0 <_start-0x7360>
     c70:	0e03000d 	cdpeq	0, 0, cr0, cr3, cr13, {0}
     c74:	0b3b0b3a 	bleq	ec3964 <__bss_end__+0xeb99d4>
     c78:	0b381349 	bleq	e059a4 <__bss_end__+0xdfba14>
     c7c:	130b0000 	movwne	r0, #45056	; 0xb000
     c80:	0b0e0301 	bleq	38188c <__bss_end__+0x3778fc>
     c84:	3b0b3a0b 	blcc	2cf4b8 <__bss_end__+0x2c5528>
     c88:	0013010b 	andseq	r0, r3, fp, lsl #2
     c8c:	000d0c00 	andeq	r0, sp, r0, lsl #24
     c90:	13490e03 	movtne	r0, #40451	; 0x9e03
     c94:	19340b38 	ldmdbne	r4!, {r3, r4, r5, r8, r9, fp}
     c98:	2e0d0000 	cdpcs	0, 0, cr0, cr13, cr0, {0}
     c9c:	3a0e0301 	bcc	3818a8 <__bss_end__+0x377918>
     ca0:	270b3b0b 	strcs	r3, [fp, -fp, lsl #22]
     ca4:	010b2019 	tsteq	fp, r9, lsl r0
     ca8:	0e000013 	mcreq	0, 0, r0, cr0, cr3, {0}
     cac:	0e030005 	cdpeq	0, 0, cr0, cr3, cr5, {0}
     cb0:	0b3b0b3a 	bleq	ec39a0 <__bss_end__+0xeb9a10>
     cb4:	00001349 	andeq	r1, r0, r9, asr #6
     cb8:	0300050f 	movweq	r0, #1295	; 0x50f
     cbc:	3b0b3a08 	blcc	2cf4e4 <__bss_end__+0x2c5554>
     cc0:	0013490b 	andseq	r4, r3, fp, lsl #18
     cc4:	010b1000 	mrseq	r1, (UNDEF: 11)
     cc8:	34110000 	ldrcc	r0, [r1], #-0
     ccc:	3a0e0300 	bcc	3818d4 <__bss_end__+0x377944>
     cd0:	490b3b0b 	stmdbmi	fp, {r0, r1, r3, r8, r9, fp, ip, sp}
     cd4:	12000013 	andne	r0, r0, #19
     cd8:	193f012e 	ldmdbne	pc!, {r1, r2, r3, r5, r8}	; <UNPREDICTABLE>
     cdc:	0b3a0e03 	bleq	e844f0 <__bss_end__+0xe7a560>
     ce0:	19270b3b 	stmdbne	r7!, {r0, r1, r3, r4, r5, r8, r9, fp}
     ce4:	06120111 			; <UNDEFINED> instruction: 0x06120111
     ce8:	42971840 	addsmi	r1, r7, #64, 16	; 0x400000
     cec:	00130119 	andseq	r0, r3, r9, lsl r1
     cf0:	00051300 	andeq	r1, r5, r0, lsl #6
     cf4:	0b3a0e03 	bleq	e84508 <__bss_end__+0xe7a578>
     cf8:	13490b3b 	movtne	r0, #39739	; 0x9b3b
     cfc:	00001702 	andeq	r1, r0, r2, lsl #14
     d00:	03000514 	movweq	r0, #1300	; 0x514
     d04:	3b0b3a08 	blcc	2cf52c <__bss_end__+0x2c559c>
     d08:	0213490b 	andseq	r4, r3, #180224	; 0x2c000
     d0c:	15000017 	strne	r0, [r0, #-23]
     d10:	08030034 	stmdaeq	r3, {r2, r4, r5}
     d14:	0b3b0b3a 	bleq	ec3a04 <__bss_end__+0xeb9a74>
     d18:	18021349 	stmdane	r2, {r0, r3, r6, r8, r9, ip}
     d1c:	34160000 	ldrcc	r0, [r6], #-0
     d20:	3a080300 	bcc	201928 <__bss_end__+0x1f7998>
     d24:	490b3b0b 	stmdbmi	fp, {r0, r1, r3, r8, r9, fp, ip, sp}
     d28:	00170213 	andseq	r0, r7, r3, lsl r2
     d2c:	010b1700 	tsteq	fp, r0, lsl #14
     d30:	06120111 			; <UNDEFINED> instruction: 0x06120111
     d34:	00001301 	andeq	r1, r0, r1, lsl #6
     d38:	03003418 	movweq	r3, #1048	; 0x418
     d3c:	3b0b3a0e 	blcc	2cf57c <__bss_end__+0x2c55ec>
     d40:	0213490b 	andseq	r4, r3, #180224	; 0x2c000
     d44:	19000018 	stmdbne	r0, {r3, r4}
     d48:	1331011d 	teqne	r1, #1073741831	; 0x40000007
     d4c:	06120111 			; <UNDEFINED> instruction: 0x06120111
     d50:	0b590b58 	bleq	1643ab8 <__bss_end__+0x1639b28>
     d54:	00001301 	andeq	r1, r0, r1, lsl #6
     d58:	3100051a 	tstcc	r0, sl, lsl r5
     d5c:	00170213 	andseq	r0, r7, r3, lsl r2
     d60:	00051b00 	andeq	r1, r5, r0, lsl #22
     d64:	18021331 	stmdane	r2, {r0, r4, r5, r8, r9, ip}
     d68:	051c0000 	ldreq	r0, [ip, #-0]
     d6c:	1c133100 	ldfnes	f3, [r3], {-0}
     d70:	1d00000b 	stcne	0, cr0, [r0, #-44]	; 0xffffffd4
     d74:	0111010b 	tsteq	r1, fp, lsl #2
     d78:	00000612 	andeq	r0, r0, r2, lsl r6
     d7c:	3100341e 	tstcc	r0, lr, lsl r4
     d80:	00170213 	andseq	r0, r7, r3, lsl r2
     d84:	82891f00 	addhi	r1, r9, #0, 30
     d88:	01110101 	tsteq	r1, r1, lsl #2
     d8c:	00001331 	andeq	r1, r0, r1, lsr r3
     d90:	01828a20 	orreq	r8, r2, r0, lsr #20
     d94:	91180200 	tstls	r8, r0, lsl #4
     d98:	00001842 	andeq	r1, r0, r2, asr #16
     d9c:	31011d21 	tstcc	r1, r1, lsr #26
     da0:	12011113 	andne	r1, r1, #-1073741820	; 0xc0000004
     da4:	590b5806 	stmdbpl	fp, {r1, r2, fp, ip, lr}
     da8:	2200000b 	andcs	r0, r0, #11
     dac:	0e03012e 	adfeqsp	f0, f3, #0.5
     db0:	0b3b0b3a 	bleq	ec3aa0 <__bss_end__+0xeb9b10>
     db4:	13491927 	movtne	r1, #39207	; 0x9927
     db8:	13010b20 	movwne	r0, #6944	; 0x1b20
     dbc:	2e230000 	cdpcs	0, 2, cr0, cr3, cr0, {0}
     dc0:	03193f01 	tsteq	r9, #1, 30
     dc4:	3b0b3a0e 	blcc	2cf604 <__bss_end__+0x2c5674>
     dc8:	4919270b 	ldmdbmi	r9, {r0, r1, r3, r8, r9, sl, sp}
     dcc:	12011113 	andne	r1, r1, #-1073741820	; 0xc0000004
     dd0:	97184006 	ldrls	r4, [r8, -r6]
     dd4:	13011942 	movwne	r1, #6466	; 0x1942
     dd8:	89240000 	stmdbhi	r4!, {}	; <UNPREDICTABLE>
     ddc:	11000182 	smlabbne	r0, r2, r1, r0
     de0:	00133101 	andseq	r3, r3, r1, lsl #2
     de4:	82892500 	addhi	r2, r9, #0, 10
     de8:	01110101 	tsteq	r1, r1, lsl #2
     dec:	13011331 	movwne	r1, #4913	; 0x1331
     df0:	34260000 	strtcc	r0, [r6], #-0
     df4:	3a0e0300 	bcc	3819fc <__bss_end__+0x377a6c>
     df8:	490b3b0b 	stmdbmi	fp, {r0, r1, r3, r8, r9, fp, ip, sp}
     dfc:	00170213 	andseq	r0, r7, r3, lsl r2
     e00:	00052700 	andeq	r2, r5, r0, lsl #14
     e04:	00001331 	andeq	r1, r0, r1, lsr r3
     e08:	03000528 	movweq	r0, #1320	; 0x528
     e0c:	3b0b3a0e 	blcc	2cf64c <__bss_end__+0x2c56bc>
     e10:	0213490b 	andseq	r4, r3, #180224	; 0x2c000
     e14:	29000018 	stmdbcs	r0, {r3, r4}
     e18:	0e030034 	mcreq	0, 0, r0, cr3, cr4, {1}
     e1c:	19341349 	ldmdbne	r4!, {r0, r3, r6, r8, r9, ip}
     e20:	00001802 	andeq	r1, r0, r2, lsl #16
     e24:	4901012a 	stmdbmi	r1, {r1, r3, r5, r8}
     e28:	00130113 	andseq	r0, r3, r3, lsl r1
     e2c:	00212b00 	eoreq	r2, r1, r0, lsl #22
     e30:	0b2f1349 	bleq	bc5b5c <__bss_end__+0xbbbbcc>
     e34:	342c0000 	strtcc	r0, [ip], #-0
     e38:	3a080300 	bcc	201a40 <__bss_end__+0x1f7ab0>
     e3c:	490b3b0b 	stmdbmi	fp, {r0, r1, r3, r8, r9, fp, ip, sp}
     e40:	00061c13 	andeq	r1, r6, r3, lsl ip
     e44:	00342d00 	eorseq	r2, r4, r0, lsl #26
     e48:	0b3a0803 	bleq	e82e5c <__bss_end__+0xe78ecc>
     e4c:	13490b3b 	movtne	r0, #39739	; 0x9b3b
     e50:	00000b1c 	andeq	r0, r0, ip, lsl fp
     e54:	0300052e 	movweq	r0, #1326	; 0x52e
     e58:	3b0b3a08 	blcc	2cf680 <__bss_end__+0x2c56f0>
     e5c:	0213490b 	andseq	r4, r3, #180224	; 0x2c000
     e60:	2f000018 	svccs	0x00000018
     e64:	00000018 	andeq	r0, r0, r8, lsl r0
     e68:	49002130 	stmdbmi	r0, {r4, r5, r8, sp}
     e6c:	00052f13 	andeq	r2, r5, r3, lsl pc
     e70:	012e3100 	teqeq	lr, r0, lsl #2
     e74:	0e03193f 	mcreq	9, 0, r1, cr3, cr15, {1}
     e78:	0b3b0b3a 	bleq	ec3b68 <__bss_end__+0xeb9bd8>
     e7c:	193c1927 	ldmdbne	ip!, {r0, r1, r2, r5, r8, fp, ip}
     e80:	00001301 	andeq	r1, r0, r1, lsl #6
     e84:	49000532 	stmdbmi	r0, {r1, r4, r5, r8, sl}
     e88:	33000013 	movwcc	r0, #19
     e8c:	193f002e 	ldmdbne	pc!, {r1, r2, r3, r5}	; <UNPREDICTABLE>
     e90:	0b3a0e03 	bleq	e846a4 <__bss_end__+0xe7a714>
     e94:	19270b3b 	stmdbne	r7!, {r0, r1, r3, r4, r5, r8, r9, fp}
     e98:	193c1349 	ldmdbne	ip!, {r0, r3, r6, r8, r9, ip}
     e9c:	2e340000 	cdpcs	0, 3, cr0, cr4, cr0, {0}
     ea0:	03193f01 	tsteq	r9, #1, 30
     ea4:	3b0b3a0e 	blcc	2cf6e4 <__bss_end__+0x2c5754>
     ea8:	4919270b 	ldmdbmi	r9, {r0, r1, r3, r8, r9, sl, sp}
     eac:	01193c13 	tsteq	r9, r3, lsl ip
     eb0:	35000013 	strcc	r0, [r0, #-19]
     eb4:	193f002e 	ldmdbne	pc!, {r1, r2, r3, r5}	; <UNPREDICTABLE>
     eb8:	0b3a0e03 	bleq	e846cc <__bss_end__+0xe7a73c>
     ebc:	19270b3b 	stmdbne	r7!, {r0, r1, r3, r4, r5, r8, r9, fp}
     ec0:	0000193c 	andeq	r1, r0, ip, lsr r9
     ec4:	3f012e36 	svccc	0x00012e36
     ec8:	3a0e0319 	bcc	381b34 <__bss_end__+0x377ba4>
     ecc:	270b3b0b 	strcs	r3, [fp, -fp, lsl #22]
     ed0:	3c134919 	ldccc	9, cr4, [r3], {25}
     ed4:	00000019 	andeq	r0, r0, r9, lsl r0
     ed8:	25011101 	strcs	r1, [r1, #-257]	; 0x101
     edc:	030b130e 	movweq	r1, #45838	; 0xb30e
     ee0:	110e1b0e 	tstne	lr, lr, lsl #22
     ee4:	10061201 	andne	r1, r6, r1, lsl #4
     ee8:	02000017 	andeq	r0, r0, #23
     eec:	0b0b0024 	bleq	2c0f84 <__bss_end__+0x2b6ff4>
     ef0:	08030b3e 	stmdaeq	r3, {r1, r2, r3, r4, r5, r8, r9, fp}
     ef4:	24030000 	strcs	r0, [r3], #-0
     ef8:	3e0b0b00 	vmlacc.f64	d0, d11, d0
     efc:	000e030b 	andeq	r0, lr, fp, lsl #6
     f00:	012e0400 	teqeq	lr, r0, lsl #8
     f04:	0b3a0e03 	bleq	e84718 <__bss_end__+0xe7a788>
     f08:	19270b3b 	stmdbne	r7!, {r0, r1, r3, r4, r5, r8, r9, fp}
     f0c:	01111349 	tsteq	r1, r9, asr #6
     f10:	18400612 	stmdane	r0, {r1, r4, r9, sl}^
     f14:	01194297 			; <UNDEFINED> instruction: 0x01194297
     f18:	05000013 	streq	r0, [r0, #-19]
     f1c:	08030005 	stmdaeq	r3, {r0, r2}
     f20:	0b3b0b3a 	bleq	ec3c10 <__bss_end__+0xeb9c80>
     f24:	17021349 	strne	r1, [r2, -r9, asr #6]
     f28:	89060000 	stmdbhi	r6, {}	; <UNPREDICTABLE>
     f2c:	11010182 	smlabbne	r1, r2, r1, r0
     f30:	00133101 	andseq	r3, r3, r1, lsl #2
     f34:	828a0700 	addhi	r0, sl, #0, 14
     f38:	18020001 	stmdane	r2, {r0}
     f3c:	00184291 	mulseq	r8, r1, r2
     f40:	002e0800 	eoreq	r0, lr, r0, lsl #16
     f44:	0e03193f 	mcreq	9, 0, r1, cr3, cr15, {1}
     f48:	0b3b0b3a 	bleq	ec3c38 <__bss_end__+0xeb9ca8>
     f4c:	01111927 	tsteq	r1, r7, lsr #18
     f50:	18400612 	stmdane	r0, {r1, r4, r9, sl}^
     f54:	00194297 	mulseq	r9, r7, r2
     f58:	012e0900 	teqeq	lr, r0, lsl #18
     f5c:	0e03193f 	mcreq	9, 0, r1, cr3, cr15, {1}
     f60:	0b3b0b3a 	bleq	ec3c50 <__bss_end__+0xeb9cc0>
     f64:	01111927 	tsteq	r1, r7, lsr #18
     f68:	18400612 	stmdane	r0, {r1, r4, r9, sl}^
     f6c:	01194297 			; <UNDEFINED> instruction: 0x01194297
     f70:	0a000013 	beq	fc4 <_start-0x703c>
     f74:	08030005 	stmdaeq	r3, {r0, r2}
     f78:	0b3b0b3a 	bleq	ec3c68 <__bss_end__+0xeb9cd8>
     f7c:	18021349 	stmdane	r2, {r0, r3, r6, r8, r9, ip}
     f80:	150b0000 	strne	r0, [fp, #-0]
     f84:	49192701 	ldmdbmi	r9, {r0, r8, r9, sl, sp}
     f88:	00130113 	andseq	r0, r3, r3, lsl r1
     f8c:	00050c00 	andeq	r0, r5, r0, lsl #24
     f90:	00001349 	andeq	r1, r0, r9, asr #6
     f94:	0b000f0d 	bleq	4bd0 <_start-0x3430>
     f98:	0013490b 	andseq	r4, r3, fp, lsl #18
     f9c:	00340e00 	eorseq	r0, r4, r0, lsl #28
     fa0:	0b3a0e03 	bleq	e847b4 <__bss_end__+0xe7a824>
     fa4:	13490b3b 	movtne	r0, #39739	; 0x9b3b
     fa8:	1802193f 	stmdane	r2, {r0, r1, r2, r3, r4, r5, r8, fp, ip}
     fac:	2e0f0000 	cdpcs	0, 0, cr0, cr15, cr0, {0}
     fb0:	03193f01 	tsteq	r9, #1, 30
     fb4:	3b0b3a0e 	blcc	2cf7f4 <__bss_end__+0x2c5864>
     fb8:	3c19270b 	ldccc	7, cr2, [r9], {11}
     fbc:	00000019 	andeq	r0, r0, r9, lsl r0
     fc0:	25011101 	strcs	r1, [r1, #-257]	; 0x101
     fc4:	030b130e 	movweq	r1, #45838	; 0xb30e
     fc8:	110e1b0e 	tstne	lr, lr, lsl #22
     fcc:	10061201 	andne	r1, r6, r1, lsl #4
     fd0:	02000017 	andeq	r0, r0, #23
     fd4:	0b0b0024 	bleq	2c106c <__bss_end__+0x2b70dc>
     fd8:	08030b3e 	stmdaeq	r3, {r1, r2, r3, r4, r5, r8, r9, fp}
     fdc:	16030000 	strne	r0, [r3], -r0
     fe0:	3a0e0300 	bcc	381be8 <__bss_end__+0x377c58>
     fe4:	490b3b0b 	stmdbmi	fp, {r0, r1, r3, r8, r9, fp, ip, sp}
     fe8:	04000013 	streq	r0, [r0], #-19
     fec:	0b0b0024 	bleq	2c1084 <__bss_end__+0x2b70f4>
     ff0:	0e030b3e 	vmoveq.16	d3[0], r0
     ff4:	0f050000 	svceq	0x00050000
     ff8:	000b0b00 	andeq	r0, fp, r0, lsl #22
     ffc:	01130600 	tsteq	r3, r0, lsl #12
    1000:	0b3a0b0b 	bleq	e83c34 <__bss_end__+0xe79ca4>
    1004:	13010b3b 	movwne	r0, #6971	; 0x1b3b
    1008:	0d070000 	stceq	0, cr0, [r7, #-0]
    100c:	3a080300 	bcc	201c14 <__bss_end__+0x1f7c84>
    1010:	490b3b0b 	stmdbmi	fp, {r0, r1, r3, r8, r9, fp, ip, sp}
    1014:	000b3813 	andeq	r3, fp, r3, lsl r8
    1018:	000d0800 	andeq	r0, sp, r0, lsl #16
    101c:	0b3a0e03 	bleq	e84830 <__bss_end__+0xe7a8a0>
    1020:	13490b3b 	movtne	r0, #39739	; 0x9b3b
    1024:	00000b38 	andeq	r0, r0, r8, lsr fp
    1028:	0b010409 	bleq	42054 <__bss_end__+0x380c4>
    102c:	3b0b3a0b 	blcc	2cf860 <__bss_end__+0x2c58d0>
    1030:	0013010b 	andseq	r0, r3, fp, lsl #2
    1034:	00280a00 	eoreq	r0, r8, r0, lsl #20
    1038:	0d1c0e03 	ldceq	14, cr0, [ip, #-12]
    103c:	2e0b0000 	cdpcs	0, 0, cr0, cr11, cr0, {0}
    1040:	03193f01 	tsteq	r9, #1, 30
    1044:	3b0b3a0e 	blcc	2cf884 <__bss_end__+0x2c58f4>
    1048:	4919270b 	ldmdbmi	r9, {r0, r1, r3, r8, r9, sl, sp}
    104c:	12011113 	andne	r1, r1, #-1073741820	; 0xc0000004
    1050:	97184006 	ldrls	r4, [r8, -r6]
    1054:	13011942 	movwne	r1, #6466	; 0x1942
    1058:	340c0000 	strcc	r0, [ip], #-0
    105c:	3a080300 	bcc	201c64 <__bss_end__+0x1f7cd4>
    1060:	490b3b0b 	stmdbmi	fp, {r0, r1, r3, r8, r9, fp, ip, sp}
    1064:	00061c13 	andeq	r1, r6, r3, lsl ip
    1068:	82890d00 	addhi	r0, r9, #0, 26
    106c:	01110101 	tsteq	r1, r1, lsl #2
    1070:	00001331 	andeq	r1, r0, r1, lsr r3
    1074:	01828a0e 	orreq	r8, r2, lr, lsl #20
    1078:	91180200 	tstls	r8, r0, lsl #4
    107c:	00001842 	andeq	r1, r0, r2, asr #16
    1080:	0b000f0f 	bleq	4cc4 <_start-0x333c>
    1084:	0013490b 	andseq	r4, r3, fp, lsl #18
    1088:	012e1000 	teqeq	lr, r0
    108c:	0e03193f 	mcreq	9, 0, r1, cr3, cr15, {1}
    1090:	0b3b0b3a 	bleq	ec3d80 <__bss_end__+0xeb9df0>
    1094:	13491927 	movtne	r1, #39207	; 0x9927
    1098:	0000193c 	andeq	r1, r0, ip, lsr r9
    109c:	49000511 	stmdbmi	r0, {r0, r4, r8, sl}
    10a0:	00000013 	andeq	r0, r0, r3, lsl r0
    10a4:	25011101 	strcs	r1, [r1, #-257]	; 0x101
    10a8:	030b130e 	movweq	r1, #45838	; 0xb30e
    10ac:	110e1b0e 	tstne	lr, lr, lsl #22
    10b0:	10061201 	andne	r1, r6, r1, lsl #4
    10b4:	02000017 	andeq	r0, r0, #23
    10b8:	0b0b0024 	bleq	2c1150 <__bss_end__+0x2b71c0>
    10bc:	08030b3e 	stmdaeq	r3, {r1, r2, r3, r4, r5, r8, r9, fp}
    10c0:	24030000 	strcs	r0, [r3], #-0
    10c4:	3e0b0b00 	vmlacc.f64	d0, d11, d0
    10c8:	000e030b 	andeq	r0, lr, fp, lsl #6
    10cc:	01040400 	tsteq	r4, r0, lsl #8
    10d0:	0b3a0b0b 	bleq	e83d04 <__bss_end__+0xe79d74>
    10d4:	13010b3b 	movwne	r0, #6971	; 0x1b3b
    10d8:	28050000 	stmdacs	r5, {}	; <UNPREDICTABLE>
    10dc:	1c0e0300 	stcne	3, cr0, [lr], {-0}
    10e0:	0600000d 	streq	r0, [r0], -sp
    10e4:	0e030016 	mcreq	0, 0, r0, cr3, cr6, {0}
    10e8:	0b3b0b3a 	bleq	ec3dd8 <__bss_end__+0xeb9e48>
    10ec:	00001349 	andeq	r1, r0, r9, asr #6
    10f0:	3f012e07 	svccc	0x00012e07
    10f4:	3a0e0319 	bcc	381d60 <__bss_end__+0x377dd0>
    10f8:	270b3b0b 	strcs	r3, [fp, -fp, lsl #22]
    10fc:	12011119 	andne	r1, r1, #1073741830	; 0x40000006
    1100:	97184006 	ldrls	r4, [r8, -r6]
    1104:	13011942 	movwne	r1, #6466	; 0x1942
    1108:	89080000 	stmdbhi	r8, {}	; <UNPREDICTABLE>
    110c:	11000182 	smlabbne	r0, r2, r1, r0
    1110:	00133101 	andseq	r3, r3, r1, lsl #2
    1114:	82890900 	addhi	r0, r9, #0, 18
    1118:	01110101 	tsteq	r1, r1, lsl #2
    111c:	13011331 	movwne	r1, #4913	; 0x1331
    1120:	8a0a0000 	bhi	281128 <__bss_end__+0x277198>
    1124:	02000182 	andeq	r0, r0, #-2147483616	; 0x80000020
    1128:	18429118 	stmdane	r2, {r3, r4, r8, ip, pc}^
    112c:	2e0b0000 	cdpcs	0, 0, cr0, cr11, cr0, {0}
    1130:	03193f01 	tsteq	r9, #1, 30
    1134:	3b0b3a0e 	blcc	2cf974 <__bss_end__+0x2c59e4>
    1138:	4919270b 	ldmdbmi	r9, {r0, r1, r3, r8, r9, sl, sp}
    113c:	12011113 	andne	r1, r1, #-1073741820	; 0xc0000004
    1140:	97184006 	ldrls	r4, [r8, -r6]
    1144:	13011942 	movwne	r1, #6466	; 0x1942
    1148:	050c0000 	streq	r0, [ip, #-0]
    114c:	3a080300 	bcc	201d54 <__bss_end__+0x1f7dc4>
    1150:	490b3b0b 	stmdbmi	fp, {r0, r1, r3, r8, r9, fp, ip, sp}
    1154:	00170213 	andseq	r0, r7, r3, lsl r2
    1158:	82890d00 	addhi	r0, r9, #0, 26
    115c:	01110101 	tsteq	r1, r1, lsl #2
    1160:	00001331 	andeq	r1, r0, r1, lsr r3
    1164:	0300340e 	movweq	r3, #1038	; 0x40e
    1168:	3b0b3a0e 	blcc	2cf9a8 <__bss_end__+0x2c5a18>
    116c:	3f13490b 	svccc	0x0013490b
    1170:	00180219 	andseq	r0, r8, r9, lsl r2
    1174:	000f0f00 	andeq	r0, pc, r0, lsl #30
    1178:	13490b0b 	movtne	r0, #39691	; 0x9b0b
    117c:	35100000 	ldrcc	r0, [r0, #-0]
    1180:	00134900 	andseq	r4, r3, r0, lsl #18
    1184:	002e1100 	eoreq	r1, lr, r0, lsl #2
    1188:	0e03193f 	mcreq	9, 0, r1, cr3, cr15, {1}
    118c:	0b3b0b3a 	bleq	ec3e7c <__bss_end__+0xeb9eec>
    1190:	193c1927 	ldmdbne	ip!, {r0, r1, r2, r5, r8, fp, ip}
    1194:	2e120000 	cdpcs	0, 1, cr0, cr2, cr0, {0}
    1198:	03193f01 	tsteq	r9, #1, 30
    119c:	3b0b3a0e 	blcc	2cf9dc <__bss_end__+0x2c5a4c>
    11a0:	3c19270b 	ldccc	7, cr2, [r9], {11}
    11a4:	00130119 	andseq	r0, r3, r9, lsl r1
    11a8:	00051300 	andeq	r1, r5, r0, lsl #6
    11ac:	00001349 	andeq	r1, r0, r9, asr #6
    11b0:	3f012e14 	svccc	0x00012e14
    11b4:	3a0e0319 	bcc	381e20 <__bss_end__+0x377e90>
    11b8:	270b3b0b 	strcs	r3, [fp, -fp, lsl #22]
    11bc:	3c134919 	ldccc	9, cr4, [r3], {25}
    11c0:	00130119 	andseq	r0, r3, r9, lsl r1
    11c4:	00261500 	eoreq	r1, r6, r0, lsl #10
    11c8:	00001349 	andeq	r1, r0, r9, asr #6
    11cc:	00003516 	andeq	r3, r0, r6, lsl r5
    11d0:	11010000 	mrsne	r0, (UNDEF: 1)
    11d4:	130e2501 	movwne	r2, #58625	; 0xe501
    11d8:	1b0e030b 	blne	381e0c <__bss_end__+0x377e7c>
    11dc:	1201110e 	andne	r1, r1, #-2147483645	; 0x80000003
    11e0:	00171006 	andseq	r1, r7, r6
    11e4:	00240200 	eoreq	r0, r4, r0, lsl #4
    11e8:	0b3e0b0b 	bleq	f83e1c <__bss_end__+0xf79e8c>
    11ec:	00000e03 	andeq	r0, r0, r3, lsl #28
    11f0:	0b002403 	bleq	a204 <__bss_end__+0x274>
    11f4:	030b3e0b 	movweq	r3, #48651	; 0xbe0b
    11f8:	04000008 	streq	r0, [r0], #-8
    11fc:	0b0b000f 	bleq	2c1240 <__bss_end__+0x2b72b0>
    1200:	0f050000 	svceq	0x00050000
    1204:	490b0b00 	stmdbmi	fp, {r8, r9, fp}
    1208:	06000013 			; <UNDEFINED> instruction: 0x06000013
    120c:	0e030016 	mcreq	0, 0, r0, cr3, cr6, {0}
    1210:	0b3b0b3a 	bleq	ec3f00 <__bss_end__+0xeb9f70>
    1214:	00001349 	andeq	r1, r0, r9, asr #6
    1218:	3f012e07 	svccc	0x00012e07
    121c:	3a0e0319 	bcc	381e88 <__bss_end__+0x377ef8>
    1220:	270b3b0b 	strcs	r3, [fp, -fp, lsl #22]
    1224:	11134919 	tstne	r3, r9, lsl r9
    1228:	40061201 	andmi	r1, r6, r1, lsl #4
    122c:	19429718 	stmdbne	r2, {r3, r4, r8, r9, sl, ip, pc}^
    1230:	05080000 	streq	r0, [r8, #-0]
    1234:	3a080300 	bcc	201e3c <__bss_end__+0x1f7eac>
    1238:	490b3b0b 	stmdbmi	fp, {r0, r1, r3, r8, r9, fp, ip, sp}
    123c:	00180213 	andseq	r0, r8, r3, lsl r2
    1240:	00050900 	andeq	r0, r5, r0, lsl #18
    1244:	0b3a0803 	bleq	e83258 <__bss_end__+0xe792c8>
    1248:	13490b3b 	movtne	r0, #39739	; 0x9b3b
    124c:	00001702 	andeq	r1, r0, r2, lsl #14
    1250:	0300340a 	movweq	r3, #1034	; 0x40a
    1254:	3b0b3a08 	blcc	2cfa7c <__bss_end__+0x2c5aec>
    1258:	0213490b 	andseq	r4, r3, #180224	; 0x2c000
    125c:	0b000017 	bleq	12c0 <_start-0x6d40>
    1260:	08030034 	stmdaeq	r3, {r2, r4, r5}
    1264:	0b3b0b3a 	bleq	ec3f54 <__bss_end__+0xeb9fc4>
    1268:	18021349 	stmdane	r2, {r0, r3, r6, r8, r9, ip}
    126c:	Address 0x000000000000126c is out of bounds.


Disassembly of section .debug_loc:

00000000 <.debug_loc>:
       0:	00000000 	andeq	r0, r0, r0
       4:	00000010 	andeq	r0, r0, r0, lsl r0
       8:	10500001 	subsne	r0, r0, r1
       c:	18000000 	stmdane	r0, {}	; <UNPREDICTABLE>
      10:	04000002 	streq	r0, [r0], #-2
      14:	5001f300 	andpl	pc, r1, r0, lsl #6
      18:	0000009f 	muleq	r0, pc, r0	; <UNPREDICTABLE>
	...
      24:	0001a800 	andeq	sl, r1, r0, lsl #16
      28:	51000100 	mrspl	r0, (UNDEF: 16)
      2c:	000001a8 	andeq	r0, r0, r8, lsr #3
      30:	00000218 	andeq	r0, r0, r8, lsl r2
      34:	01f30004 	mvnseq	r0, r4
      38:	00009f51 	andeq	r9, r0, r1, asr pc
	...
      44:	01dc0000 	bicseq	r0, ip, r0
      48:	00010000 	andeq	r0, r1, r0
      4c:	0001dc52 	andeq	sp, r1, r2, asr ip
      50:	00021800 	andeq	r1, r2, r0, lsl #16
      54:	f3000400 	vshl.u8	d0, d0, d0
      58:	009f5201 	addseq	r5, pc, r1, lsl #4
      5c:	00000000 	andeq	r0, r0, r0
      60:	08000000 	stmdaeq	r0, {}	; <UNPREDICTABLE>
      64:	0f000000 	svceq	0x00000000
      68:	01000002 	tsteq	r0, r2
      6c:	00005300 	andeq	r5, r0, r0, lsl #6
      70:	00000000 	andeq	r0, r0, r0
      74:	00080000 	andeq	r0, r8, r0
      78:	00100000 	andseq	r0, r0, r0
      7c:	00010000 	andeq	r0, r1, r0
      80:	00001050 	andeq	r1, r0, r0, asr r0
      84:	00021800 	andeq	r1, r2, r0, lsl #16
      88:	f3000400 	vshl.u8	d0, d0, d0
      8c:	009f5001 	addseq	r5, pc, r1
      90:	00000000 	andeq	r0, r0, r0
      94:	24000000 	strcs	r0, [r0], #-0
      98:	28000000 	stmdacs	r0, {}	; <UNPREDICTABLE>
      9c:	01000000 	mrseq	r0, (UNDEF: 0)
      a0:	00005c00 	andeq	r5, r0, r0, lsl #24
      a4:	00000000 	andeq	r0, r0, r0
      a8:	00300000 	eorseq	r0, r0, r0
      ac:	01a80000 			; <UNDEFINED> instruction: 0x01a80000
      b0:	00080000 	andeq	r0, r8, r0
      b4:	1a310071 	bne	c40280 <__bss_end__+0xc362f0>
      b8:	9f1aff08 	svcls	0x001aff08
	...
      c4:	00000038 	andeq	r0, r0, r8, lsr r0
      c8:	0000006c 	andeq	r0, r0, ip, rrx
      cc:	00710008 	rsbseq	r0, r1, r8
      d0:	ff081a31 			; <UNDEFINED> instruction: 0xff081a31
      d4:	006c9f1a 	rsbeq	r9, ip, sl, lsl pc
      d8:	00a00000 	adceq	r0, r0, r0
      dc:	00080000 	andeq	r0, r8, r0
      e0:	1a320071 	bne	c802ac <__bss_end__+0xc7631c>
      e4:	9f1aff08 	svcls	0x001aff08
      e8:	000000a0 	andeq	r0, r0, r0, lsr #1
      ec:	000000d4 	ldrdeq	r0, [r0], -r4
      f0:	00710008 	rsbseq	r0, r1, r8
      f4:	ff081a34 			; <UNDEFINED> instruction: 0xff081a34
      f8:	00d49f1a 	sbcseq	r9, r4, sl, lsl pc
      fc:	01080000 	mrseq	r0, (UNDEF: 8)
     100:	00080000 	andeq	r0, r8, r0
     104:	1a380071 	bne	e002d0 <__bss_end__+0xdf6340>
     108:	9f1aff08 	svcls	0x001aff08
     10c:	00000108 	andeq	r0, r0, r8, lsl #2
     110:	00000140 	andeq	r0, r0, r0, asr #2
     114:	00710008 	rsbseq	r0, r1, r8
     118:	ff081a40 			; <UNDEFINED> instruction: 0xff081a40
     11c:	01409f1a 	cmpeq	r0, sl, lsl pc
     120:	01780000 	cmneq	r8, r0
     124:	00090000 	andeq	r0, r9, r0
     128:	20080071 	andcs	r0, r8, r1, ror r0
     12c:	1aff081a 	bne	fffc219c <__bss_end__+0xfffb820c>
     130:	0001789f 	muleq	r1, pc, r8	; <UNPREDICTABLE>
     134:	0001a800 	andeq	sl, r1, r0, lsl #16
     138:	71000900 	tstvc	r0, r0, lsl #18
     13c:	1a400800 	bne	1002144 <__bss_end__+0xff81b4>
     140:	9f1aff08 	svcls	0x001aff08
     144:	000001d4 	ldrdeq	r0, [r0], -r4
     148:	00000218 	andeq	r0, r0, r8, lsl r2
     14c:	9f310002 	svcls	0x00310002
	...
     158:	00000058 	andeq	r0, r0, r8, asr r0
     15c:	0000005c 	andeq	r0, r0, ip, asr r0
     160:	005c0001 	subseq	r0, ip, r1
     164:	00000000 	andeq	r0, r0, r0
     168:	64000000 	strvs	r0, [r0], #-0
     16c:	a8000000 	stmdage	r0, {}	; <UNPREDICTABLE>
     170:	08000001 	stmdaeq	r0, {r0}
     174:	32007100 	andcc	r7, r0, #0, 2
     178:	1aff081a 	bne	fffc21e8 <__bss_end__+0xfffb8258>
     17c:	0000009f 	muleq	r0, pc, r0	; <UNPREDICTABLE>
     180:	00000000 	andeq	r0, r0, r0
     184:	00006c00 	andeq	r6, r0, r0, lsl #24
     188:	0000a000 	andeq	sl, r0, r0
     18c:	71000800 	tstvc	r0, r0, lsl #16
     190:	081a3200 	ldmdaeq	sl, {r9, ip, sp}
     194:	a09f1aff 			; <UNDEFINED> instruction: 0xa09f1aff
     198:	d4000000 	strle	r0, [r0], #-0
     19c:	08000000 	stmdaeq	r0, {}	; <UNPREDICTABLE>
     1a0:	34007100 	strcc	r7, [r0], #-256	; 0x100
     1a4:	1aff081a 	bne	fffc2214 <__bss_end__+0xfffb8284>
     1a8:	0000d49f 	muleq	r0, pc, r4	; <UNPREDICTABLE>
     1ac:	00010800 	andeq	r0, r1, r0, lsl #16
     1b0:	71000800 	tstvc	r0, r0, lsl #16
     1b4:	081a3800 	ldmdaeq	sl, {fp, ip, sp}
     1b8:	089f1aff 	ldmeq	pc, {r0, r1, r2, r3, r4, r5, r6, r7, r9, fp, ip}	; <UNPREDICTABLE>
     1bc:	40000001 	andmi	r0, r0, r1
     1c0:	08000001 	stmdaeq	r0, {r0}
     1c4:	40007100 	andmi	r7, r0, r0, lsl #2
     1c8:	1aff081a 	bne	fffc2238 <__bss_end__+0xfffb82a8>
     1cc:	0001409f 	muleq	r1, pc, r0	; <UNPREDICTABLE>
     1d0:	00017800 	andeq	r7, r1, r0, lsl #16
     1d4:	71000900 	tstvc	r0, r0, lsl #18
     1d8:	1a200800 	bne	8021e0 <__bss_end__+0x7f8250>
     1dc:	9f1aff08 	svcls	0x001aff08
     1e0:	00000178 	andeq	r0, r0, r8, ror r1
     1e4:	000001a8 	andeq	r0, r0, r8, lsr #3
     1e8:	00710009 	rsbseq	r0, r1, r9
     1ec:	081a4008 	ldmdaeq	sl, {r3, lr}
     1f0:	d49f1aff 	ldrle	r1, [pc], #2815	; 1f8 <_start-0x7e08>
     1f4:	18000001 	stmdane	r0, {r0}
     1f8:	02000002 	andeq	r0, r0, #2
     1fc:	009f3100 	addseq	r3, pc, r0, lsl #2
     200:	00000000 	andeq	r0, r0, r0
     204:	8c000000 	stchi	0, cr0, [r0], {-0}
     208:	90000000 	andls	r0, r0, r0
     20c:	01000000 	mrseq	r0, (UNDEF: 0)
     210:	00005c00 	andeq	r5, r0, r0, lsl #24
     214:	00000000 	andeq	r0, r0, r0
     218:	00980000 	addseq	r0, r8, r0
     21c:	01a80000 			; <UNDEFINED> instruction: 0x01a80000
     220:	00080000 	andeq	r0, r8, r0
     224:	1a340071 	bne	d003f0 <__bss_end__+0xcf6460>
     228:	9f1aff08 	svcls	0x001aff08
	...
     234:	000000a0 	andeq	r0, r0, r0, lsr #1
     238:	000000d4 	ldrdeq	r0, [r0], -r4
     23c:	00710008 	rsbseq	r0, r1, r8
     240:	ff081a34 			; <UNDEFINED> instruction: 0xff081a34
     244:	00d49f1a 	sbcseq	r9, r4, sl, lsl pc
     248:	01080000 	mrseq	r0, (UNDEF: 8)
     24c:	00080000 	andeq	r0, r8, r0
     250:	1a380071 	bne	e0041c <__bss_end__+0xdf648c>
     254:	9f1aff08 	svcls	0x001aff08
     258:	00000108 	andeq	r0, r0, r8, lsl #2
     25c:	00000140 	andeq	r0, r0, r0, asr #2
     260:	00710008 	rsbseq	r0, r1, r8
     264:	ff081a40 			; <UNDEFINED> instruction: 0xff081a40
     268:	01409f1a 	cmpeq	r0, sl, lsl pc
     26c:	01780000 	cmneq	r8, r0
     270:	00090000 	andeq	r0, r9, r0
     274:	20080071 	andcs	r0, r8, r1, ror r0
     278:	1aff081a 	bne	fffc22e8 <__bss_end__+0xfffb8358>
     27c:	0001789f 	muleq	r1, pc, r8	; <UNPREDICTABLE>
     280:	0001a800 	andeq	sl, r1, r0, lsl #16
     284:	71000900 	tstvc	r0, r0, lsl #18
     288:	1a400800 	bne	1002290 <__bss_end__+0xff8300>
     28c:	9f1aff08 	svcls	0x001aff08
     290:	000001d4 	ldrdeq	r0, [r0], -r4
     294:	00000218 	andeq	r0, r0, r8, lsl r2
     298:	9f310002 	svcls	0x00310002
	...
     2a4:	000000c0 	andeq	r0, r0, r0, asr #1
     2a8:	000000c4 	andeq	r0, r0, r4, asr #1
     2ac:	005c0001 	subseq	r0, ip, r1
     2b0:	00000000 	andeq	r0, r0, r0
     2b4:	cc000000 	stcgt	0, cr0, [r0], {-0}
     2b8:	a8000000 	stmdage	r0, {}	; <UNPREDICTABLE>
     2bc:	08000001 	stmdaeq	r0, {r0}
     2c0:	38007100 	stmdacc	r0, {r8, ip, sp, lr}
     2c4:	1aff081a 	bne	fffc2334 <__bss_end__+0xfffb83a4>
     2c8:	0000009f 	muleq	r0, pc, r0	; <UNPREDICTABLE>
     2cc:	00000000 	andeq	r0, r0, r0
     2d0:	0000d400 	andeq	sp, r0, r0, lsl #8
     2d4:	00010800 	andeq	r0, r1, r0, lsl #16
     2d8:	71000800 	tstvc	r0, r0, lsl #16
     2dc:	081a3800 	ldmdaeq	sl, {fp, ip, sp}
     2e0:	089f1aff 	ldmeq	pc, {r0, r1, r2, r3, r4, r5, r6, r7, r9, fp, ip}	; <UNPREDICTABLE>
     2e4:	40000001 	andmi	r0, r0, r1
     2e8:	08000001 	stmdaeq	r0, {r0}
     2ec:	40007100 	andmi	r7, r0, r0, lsl #2
     2f0:	1aff081a 	bne	fffc2360 <__bss_end__+0xfffb83d0>
     2f4:	0001409f 	muleq	r1, pc, r0	; <UNPREDICTABLE>
     2f8:	00017800 	andeq	r7, r1, r0, lsl #16
     2fc:	71000900 	tstvc	r0, r0, lsl #18
     300:	1a200800 	bne	802308 <__bss_end__+0x7f8378>
     304:	9f1aff08 	svcls	0x001aff08
     308:	00000178 	andeq	r0, r0, r8, ror r1
     30c:	000001a8 	andeq	r0, r0, r8, lsr #3
     310:	00710009 	rsbseq	r0, r1, r9
     314:	081a4008 	ldmdaeq	sl, {r3, lr}
     318:	d49f1aff 	ldrle	r1, [pc], #2815	; 320 <_start-0x7ce0>
     31c:	18000001 	stmdane	r0, {r0}
     320:	02000002 	andeq	r0, r0, #2
     324:	009f3100 	addseq	r3, pc, r0, lsl #2
     328:	00000000 	andeq	r0, r0, r0
     32c:	f4000000 	vst4.8	{d0-d3}, [r0], r0
     330:	f8000000 			; <UNDEFINED> instruction: 0xf8000000
     334:	01000000 	mrseq	r0, (UNDEF: 0)
     338:	00005c00 	andeq	r5, r0, r0, lsl #24
     33c:	00000000 	andeq	r0, r0, r0
     340:	01000000 	mrseq	r0, (UNDEF: 0)
     344:	01a80000 			; <UNDEFINED> instruction: 0x01a80000
     348:	00080000 	andeq	r0, r8, r0
     34c:	1a400071 	bne	1000518 <__bss_end__+0xff6588>
     350:	9f1aff08 	svcls	0x001aff08
	...
     35c:	00000108 	andeq	r0, r0, r8, lsl #2
     360:	00000140 	andeq	r0, r0, r0, asr #2
     364:	00710008 	rsbseq	r0, r1, r8
     368:	ff081a40 			; <UNDEFINED> instruction: 0xff081a40
     36c:	01409f1a 	cmpeq	r0, sl, lsl pc
     370:	01780000 	cmneq	r8, r0
     374:	00090000 	andeq	r0, r9, r0
     378:	20080071 	andcs	r0, r8, r1, ror r0
     37c:	1aff081a 	bne	fffc23ec <__bss_end__+0xfffb845c>
     380:	0001789f 	muleq	r1, pc, r8	; <UNPREDICTABLE>
     384:	0001a800 	andeq	sl, r1, r0, lsl #16
     388:	71000900 	tstvc	r0, r0, lsl #18
     38c:	1a400800 	bne	1002394 <__bss_end__+0xff8404>
     390:	9f1aff08 	svcls	0x001aff08
     394:	000001d4 	ldrdeq	r0, [r0], -r4
     398:	00000218 	andeq	r0, r0, r8, lsl r2
     39c:	9f310002 	svcls	0x00310002
	...
     3a8:	0000012c 	andeq	r0, r0, ip, lsr #2
     3ac:	00000130 	andeq	r0, r0, r0, lsr r1
     3b0:	005c0001 	subseq	r0, ip, r1
     3b4:	00000000 	andeq	r0, r0, r0
     3b8:	38000000 	stmdacc	r0, {}	; <UNPREDICTABLE>
     3bc:	a8000001 	stmdage	r0, {r0}
     3c0:	09000001 	stmdbeq	r0, {r0}
     3c4:	08007100 	stmdaeq	r0, {r8, ip, sp, lr}
     3c8:	ff081a20 			; <UNDEFINED> instruction: 0xff081a20
     3cc:	00009f1a 	andeq	r9, r0, sl, lsl pc
     3d0:	00000000 	andeq	r0, r0, r0
     3d4:	01400000 	mrseq	r0, (UNDEF: 64)
     3d8:	01780000 	cmneq	r8, r0
     3dc:	00090000 	andeq	r0, r9, r0
     3e0:	20080071 	andcs	r0, r8, r1, ror r0
     3e4:	1aff081a 	bne	fffc2454 <__bss_end__+0xfffb84c4>
     3e8:	0001789f 	muleq	r1, pc, r8	; <UNPREDICTABLE>
     3ec:	0001a800 	andeq	sl, r1, r0, lsl #16
     3f0:	71000900 	tstvc	r0, r0, lsl #18
     3f4:	1a400800 	bne	10023fc <__bss_end__+0xff846c>
     3f8:	9f1aff08 	svcls	0x001aff08
     3fc:	000001d4 	ldrdeq	r0, [r0], -r4
     400:	00000218 	andeq	r0, r0, r8, lsl r2
     404:	9f310002 	svcls	0x00310002
	...
     410:	00000164 	andeq	r0, r0, r4, ror #2
     414:	00000168 	andeq	r0, r0, r8, ror #2
     418:	005c0001 	subseq	r0, ip, r1
     41c:	00000000 	andeq	r0, r0, r0
     420:	70000000 	andvc	r0, r0, r0
     424:	a8000001 	stmdage	r0, {r0}
     428:	09000001 	stmdbeq	r0, {r0}
     42c:	08007100 	stmdaeq	r0, {r8, ip, sp, lr}
     430:	ff081a40 			; <UNDEFINED> instruction: 0xff081a40
     434:	00009f1a 	andeq	r9, r0, sl, lsl pc
     438:	00000000 	andeq	r0, r0, r0
     43c:	01780000 	cmneq	r8, r0
     440:	01a80000 			; <UNDEFINED> instruction: 0x01a80000
     444:	00090000 	andeq	r0, r9, r0
     448:	40080071 	andmi	r0, r8, r1, ror r0
     44c:	1aff081a 	bne	fffc24bc <__bss_end__+0xfffb852c>
     450:	0001d49f 	muleq	r1, pc, r4	; <UNPREDICTABLE>
     454:	00021800 	andeq	r1, r2, r0, lsl #16
     458:	31000200 	mrscc	r0, R8_usr
     45c:	0000009f 	muleq	r0, pc, r0	; <UNPREDICTABLE>
     460:	00000000 	andeq	r0, r0, r0
     464:	00019400 	andeq	r9, r1, r0, lsl #8
     468:	00019800 	andeq	r9, r1, r0, lsl #16
     46c:	5c000100 	stfpls	f0, [r0], {-0}
	...
     478:	000001a0 	andeq	r0, r0, r0, lsr #3
     47c:	000001a8 	andeq	r0, r0, r8, lsr #3
     480:	00710009 	rsbseq	r0, r1, r9
     484:	081a8009 	ldmdaeq	sl, {r0, r3, pc}
     488:	009f1aff 			; <UNDEFINED> instruction: 0x009f1aff
     48c:	00000000 	andeq	r0, r0, r0
     490:	d4000000 	strle	r0, [r0], #-0
     494:	18000001 	stmdane	r0, {r0}
     498:	02000002 	andeq	r0, r0, #2
     49c:	009f3100 	addseq	r3, pc, r0, lsl #2
     4a0:	00000000 	andeq	r0, r0, r0
     4a4:	c8000000 	stmdagt	r0, {}	; <UNPREDICTABLE>
     4a8:	cc000001 	stcgt	0, cr0, [r0], {1}
     4ac:	01000001 	tsteq	r0, r1
     4b0:	00005100 	andeq	r5, r0, r0, lsl #2
     4b4:	00000000 	andeq	r0, r0, r0
     4b8:	01f00000 	mvnseq	r0, r0
     4bc:	01f40000 	mvnseq	r0, r0
     4c0:	00010000 	andeq	r0, r1, r0
     4c4:	00000052 	andeq	r0, r0, r2, asr r0
     4c8:	00000000 	andeq	r0, r0, r0
     4cc:	00002c00 	andeq	r2, r0, r0, lsl #24
     4d0:	00003800 	andeq	r3, r0, r0, lsl #16
     4d4:	50000100 	andpl	r0, r0, r0, lsl #2
     4d8:	00000038 	andeq	r0, r0, r8, lsr r0
     4dc:	00000048 	andeq	r0, r0, r8, asr #32
     4e0:	48550001 	ldmdami	r5, {r0}^
     4e4:	58000000 	stmdapl	r0, {}	; <UNPREDICTABLE>
     4e8:	01000000 	mrseq	r0, (UNDEF: 0)
     4ec:	00005000 	andeq	r5, r0, r0
	...
     4f8:	00100000 	andseq	r0, r0, r0
     4fc:	00010000 	andeq	r0, r1, r0
     500:	00001050 	andeq	r1, r0, r0, asr r0
     504:	00003400 	andeq	r3, r0, r0, lsl #8
     508:	54000100 	strpl	r0, [r0], #-256	; 0x100
	...
     518:	00000004 	andeq	r0, r0, r4
     51c:	04500001 	ldrbeq	r0, [r0], #-1
     520:	0c000000 	stceq	0, cr0, [r0], {-0}
     524:	03000000 	movweq	r0, #0
     528:	9f307000 	svcls	0x00307000
     52c:	0000000c 	andeq	r0, r0, ip
     530:	00000014 	andeq	r0, r0, r4, lsl r0
     534:	01f30004 	mvnseq	r0, r4
     538:	00009f50 	andeq	r9, r0, r0, asr pc
     53c:	00000000 	andeq	r0, r0, r0
     540:	00140000 	andseq	r0, r4, r0
     544:	00200000 	eoreq	r0, r0, r0
     548:	00010000 	andeq	r0, r1, r0
     54c:	00002050 	andeq	r2, r0, r0, asr r0
     550:	00002c00 	andeq	r2, r0, r0, lsl #24
     554:	70000300 	andvc	r0, r0, r0, lsl #6
     558:	002c9f01 	eoreq	r9, ip, r1, lsl #30
     55c:	00400000 	subeq	r0, r0, r0
     560:	00010000 	andeq	r0, r1, r0
     564:	00000050 	andeq	r0, r0, r0, asr r0
     568:	00000000 	andeq	r0, r0, r0
     56c:	00001400 	andeq	r1, r0, r0, lsl #8
     570:	00001800 	andeq	r1, r0, r0, lsl #16
     574:	51000100 	mrspl	r0, (UNDEF: 16)
     578:	00000018 	andeq	r0, r0, r8, lsl r0
     57c:	00000040 	andeq	r0, r0, r0, asr #32
     580:	01f30004 	mvnseq	r0, r4
     584:	00009f51 	andeq	r9, r0, r1, asr pc
     588:	00000000 	andeq	r0, r0, r0
     58c:	00400000 	subeq	r0, r0, r0
     590:	00600000 	rsbeq	r0, r0, r0
     594:	00010000 	andeq	r0, r1, r0
     598:	00006050 	andeq	r6, r0, r0, asr r0
     59c:	00006c00 	andeq	r6, r0, r0, lsl #24
     5a0:	71000300 	mrsvc	r0, LR_irq
     5a4:	006c9f01 	rsbeq	r9, ip, r1, lsl #30
     5a8:	00740000 	rsbseq	r0, r4, r0
     5ac:	00010000 	andeq	r0, r1, r0
     5b0:	00007451 	andeq	r7, r0, r1, asr r4
     5b4:	00008000 	andeq	r8, r0, r0
     5b8:	71000300 	mrsvc	r0, LR_irq
     5bc:	00009f01 	andeq	r9, r0, r1, lsl #30
     5c0:	00000000 	andeq	r0, r0, r0
     5c4:	00400000 	subeq	r0, r0, r0
     5c8:	00500000 	subseq	r0, r0, r0
     5cc:	00010000 	andeq	r0, r1, r0
     5d0:	00005051 	andeq	r5, r0, r1, asr r0
     5d4:	00008000 	andeq	r8, r0, r0
     5d8:	f3000400 	vshl.u8	d0, d0, d0
     5dc:	009f5101 	addseq	r5, pc, r1, lsl #2
     5e0:	00000000 	andeq	r0, r0, r0
     5e4:	40000000 	andmi	r0, r0, r0
     5e8:	58000000 	stmdapl	r0, {}	; <UNPREDICTABLE>
     5ec:	01000000 	mrseq	r0, (UNDEF: 0)
     5f0:	00585200 	subseq	r5, r8, r0, lsl #4
     5f4:	00640000 	rsbeq	r0, r4, r0
     5f8:	00010000 	andeq	r0, r1, r0
     5fc:	00006452 	andeq	r6, r0, r2, asr r4
     600:	00006800 	andeq	r6, r0, r0, lsl #16
     604:	72000300 	andvc	r0, r0, #0, 6
     608:	00689f01 	rsbeq	r9, r8, r1, lsl #30
     60c:	00800000 	addeq	r0, r0, r0
     610:	00010000 	andeq	r0, r1, r0
     614:	00000052 	andeq	r0, r0, r2, asr r0
     618:	00000000 	andeq	r0, r0, r0
     61c:	00004000 	andeq	r4, r0, r0
     620:	00005400 	andeq	r5, r0, r0, lsl #8
     624:	53000100 	movwpl	r0, #256	; 0x100
     628:	00000054 	andeq	r0, r0, r4, asr r0
     62c:	00000078 	andeq	r0, r0, r8, ror r0
     630:	00530001 	subseq	r0, r3, r1
     634:	00000000 	andeq	r0, r0, r0
     638:	48000000 	stmdami	r0, {}	; <UNPREDICTABLE>
     63c:	60000000 	andvs	r0, r0, r0
     640:	01000000 	mrseq	r0, (UNDEF: 0)
     644:	00605c00 	rsbeq	r5, r0, r0, lsl #24
     648:	00800000 	addeq	r0, r0, r0
     64c:	000a0000 	andeq	r0, sl, r0
     650:	f35201f3 	vbsl	q8, q9, <illegal reg q9.5>
     654:	231c5301 	tstcs	ip, #67108864	; 0x4000000
     658:	00009f01 	andeq	r9, r0, r1, lsl #30
     65c:	00000000 	andeq	r0, r0, r0
     660:	00800000 	addeq	r0, r0, r0
     664:	00a40000 	adceq	r0, r4, r0
     668:	00010000 	andeq	r0, r1, r0
     66c:	0000a450 	andeq	sl, r0, r0, asr r4
     670:	00011800 	andeq	r1, r1, r0, lsl #16
     674:	70000300 	andvc	r0, r0, r0, lsl #6
     678:	01189f02 	tsteq	r8, r2, lsl #30
     67c:	02280000 	eoreq	r0, r8, #0
     680:	00040000 	andeq	r0, r4, r0
     684:	9f5001f3 	svcls	0x005001f3
	...
     690:	00000080 	andeq	r0, r0, r0, lsl #1
     694:	000000f0 	strdeq	r0, [r0], -r0	; <UNPREDICTABLE>
     698:	f0510001 			; <UNDEFINED> instruction: 0xf0510001
     69c:	60000000 	andvs	r0, r0, r0
     6a0:	01000001 	tsteq	r0, r1
     6a4:	01605500 	cmneq	r0, r0, lsl #10
     6a8:	01680000 	cmneq	r8, r0
     6ac:	00010000 	andeq	r0, r1, r0
     6b0:	00016851 	andeq	r6, r1, r1, asr r8
     6b4:	00018800 	andeq	r8, r1, r0, lsl #16
     6b8:	55000100 	strpl	r0, [r0, #-256]	; 0x100
     6bc:	00000188 	andeq	r0, r0, r8, lsl #3
     6c0:	0000019c 	muleq	r0, ip, r1
     6c4:	9c510001 	mrrcls	0, 0, r0, r1, cr1
     6c8:	bc000001 	stclt	0, cr0, [r0], {1}
     6cc:	01000001 	tsteq	r0, r1
     6d0:	01bc5500 			; <UNDEFINED> instruction: 0x01bc5500
     6d4:	01bf0000 			; <UNDEFINED> instruction: 0x01bf0000
     6d8:	00010000 	andeq	r0, r1, r0
     6dc:	0001bf51 	andeq	fp, r1, r1, asr pc
     6e0:	00020800 	andeq	r0, r2, r0, lsl #16
     6e4:	55000100 	strpl	r0, [r0, #-256]	; 0x100
     6e8:	00000208 	andeq	r0, r0, r8, lsl #4
     6ec:	00000228 	andeq	r0, r0, r8, lsr #4
     6f0:	01f30004 	mvnseq	r0, r4
     6f4:	00009f51 	andeq	r9, r0, r1, asr pc
     6f8:	00000000 	andeq	r0, r0, r0
     6fc:	00800000 	addeq	r0, r0, r0
     700:	00940000 	addseq	r0, r4, r0
     704:	00010000 	andeq	r0, r1, r0
     708:	00009452 	andeq	r9, r0, r2, asr r4
     70c:	00020800 	andeq	r0, r2, r0, lsl #16
     710:	54000100 	strpl	r0, [r0], #-256	; 0x100
     714:	00000208 	andeq	r0, r0, r8, lsl #4
     718:	00000228 	andeq	r0, r0, r8, lsr #4
     71c:	01f30004 	mvnseq	r0, r4
     720:	00009f52 	andeq	r9, r0, r2, asr pc
     724:	00000000 	andeq	r0, r0, r0
     728:	00800000 	addeq	r0, r0, r0
     72c:	01000000 	mrseq	r0, (UNDEF: 0)
     730:	00010000 	andeq	r0, r1, r0
     734:	00010453 	andeq	r0, r1, r3, asr r4
     738:	00010800 	andeq	r0, r1, r0, lsl #16
     73c:	53000100 	movwpl	r0, #256	; 0x100
     740:	00000160 	andeq	r0, r0, r0, ror #2
     744:	00000168 	andeq	r0, r0, r8, ror #2
     748:	68530001 	ldmdavs	r3, {r0}^
     74c:	88000001 	stmdahi	r0, {r0}
     750:	04000001 	streq	r0, [r0], #-1
     754:	5301f300 	movwpl	pc, #4864	; 0x1300	; <UNPREDICTABLE>
     758:	0001889f 	muleq	r1, pc, r8	; <UNPREDICTABLE>
     75c:	00019000 	andeq	r9, r1, r0
     760:	53000100 	movwpl	r0, #256	; 0x100
     764:	00000190 	muleq	r0, r0, r1
     768:	00000194 	muleq	r0, r4, r1
     76c:	945c0001 	ldrbls	r0, [ip], #-1
     770:	9c000001 	stcls	0, cr0, [r0], {1}
     774:	01000001 	tsteq	r0, r1
     778:	019c5300 	orrseq	r5, ip, r0, lsl #6
     77c:	01bc0000 			; <UNDEFINED> instruction: 0x01bc0000
     780:	00040000 	andeq	r0, r4, r0
     784:	9f5301f3 	svcls	0x005301f3
     788:	000001bc 			; <UNDEFINED> instruction: 0x000001bc
     78c:	000001bf 			; <UNDEFINED> instruction: 0x000001bf
     790:	bf530001 	svclt	0x00530001
     794:	e0000001 	and	r0, r0, r1
     798:	04000001 	streq	r0, [r0], #-1
     79c:	5301f300 	movwpl	pc, #4864	; 0x1300	; <UNPREDICTABLE>
     7a0:	0000009f 	muleq	r0, pc, r0	; <UNPREDICTABLE>
     7a4:	00000000 	andeq	r0, r0, r0
     7a8:	00008000 	andeq	r8, r0, r0
     7ac:	00009c00 	andeq	r9, r0, r0, lsl #24
     7b0:	91000200 	mrsls	r0, R8_usr
     7b4:	00009c00 	andeq	r9, r0, r0, lsl #24
     7b8:	0001bf00 	andeq	fp, r1, r0, lsl #30
     7bc:	52000100 	andpl	r0, r0, #0, 2
     7c0:	000001e0 	andeq	r0, r0, r0, ror #3
     7c4:	000001eb 	andeq	r0, r0, fp, ror #3
     7c8:	00520001 	subseq	r0, r2, r1
     7cc:	00000000 	andeq	r0, r0, r0
     7d0:	9c000000 	stcls	0, cr0, [r0], {-0}
     7d4:	0c000000 	stceq	0, cr0, [r0], {-0}
     7d8:	04000001 	streq	r0, [r0], #-1
     7dc:	7fa09100 	svcvc	0x00a09100
     7e0:	00010c9f 	muleq	r1, pc, ip	; <UNPREDICTABLE>
     7e4:	00011800 	andeq	r1, r1, r0, lsl #16
     7e8:	51000100 	mrspl	r0, (UNDEF: 16)
     7ec:	00000118 	andeq	r0, r0, r8, lsl r1
     7f0:	0000011c 	andeq	r0, r0, ip, lsl r1
     7f4:	1c530001 	mrrcne	0, 0, r0, r3, cr1
     7f8:	20000001 	andcs	r0, r0, r1
     7fc:	01000001 	tsteq	r0, r1
     800:	01205100 	teqeq	r0, r0, lsl #2
     804:	01600000 	cmneq	r0, r0
     808:	00010000 	andeq	r0, r1, r0
     80c:	00016053 	andeq	r6, r1, r3, asr r0
     810:	00016400 	andeq	r6, r1, r0, lsl #8
     814:	91000400 	tstls	r0, r0, lsl #8
     818:	649f7fa0 	ldrvs	r7, [pc], #4000	; 820 <_start-0x77e0>
     81c:	6c000001 	stcvs	0, cr0, [r0], {1}
     820:	01000001 	tsteq	r0, r1
     824:	016c5e00 	cmneq	ip, r0, lsl #28
     828:	01880000 	orreq	r0, r8, r0
     82c:	00010000 	andeq	r0, r1, r0
     830:	00018853 	andeq	r8, r1, r3, asr r8
     834:	00019000 	andeq	r9, r1, r0
     838:	91000400 	tstls	r0, r0, lsl #8
     83c:	909f7fa1 	addsls	r7, pc, r1, lsr #31
     840:	94000001 	strls	r0, [r0], #-1
     844:	01000001 	tsteq	r0, r1
     848:	01945300 	orrseq	r5, r4, r0, lsl #6
     84c:	01980000 	orrseq	r0, r8, r0
     850:	00040000 	andeq	r0, r4, r0
     854:	9f7fa091 	svcls	0x007fa091
     858:	00000198 	muleq	r0, r8, r1
     85c:	000001a0 	andeq	r0, r0, r0, lsr #3
     860:	a05e0001 	subsge	r0, lr, r1
     864:	bc000001 	stclt	0, cr0, [r0], {1}
     868:	01000001 	tsteq	r0, r1
     86c:	01bc5300 			; <UNDEFINED> instruction: 0x01bc5300
     870:	01e00000 	mvneq	r0, r0
     874:	00040000 	andeq	r0, r4, r0
     878:	9f7fa091 	svcls	0x007fa091
     87c:	000001e0 	andeq	r0, r0, r0, ror #3
     880:	000001eb 	andeq	r0, r0, fp, ror #3
     884:	00530001 	subseq	r0, r3, r1
     888:	00000000 	andeq	r0, r0, r0
     88c:	a0000000 	andge	r0, r0, r0
     890:	ec000000 	stc	0, cr0, [r0], {-0}
     894:	01000000 	mrseq	r0, (UNDEF: 0)
     898:	00ec5c00 	rsceq	r5, ip, r0, lsl #24
     89c:	01000000 	mrseq	r0, (UNDEF: 0)
     8a0:	00010000 	andeq	r0, r1, r0
     8a4:	00010053 	andeq	r0, r1, r3, asr r0
     8a8:	00010400 	andeq	r0, r1, r0, lsl #8
     8ac:	5c000100 	stfpls	f0, [r0], {-0}
     8b0:	00000104 	andeq	r0, r0, r4, lsl #2
     8b4:	00000108 	andeq	r0, r0, r8, lsl #2
     8b8:	08530001 	ldmdaeq	r3, {r0}^
     8bc:	18000001 	stmdane	r0, {r0}
     8c0:	01000001 	tsteq	r0, r1
     8c4:	01185c00 	tsteq	r8, r0, lsl #24
     8c8:	011c0000 	tsteq	ip, r0
     8cc:	00010000 	andeq	r0, r1, r0
     8d0:	00011c50 	andeq	r1, r1, r0, asr ip
     8d4:	00013c00 	andeq	r3, r1, r0, lsl #24
     8d8:	5c000100 	stfpls	f0, [r0], {-0}
     8dc:	00000144 	andeq	r0, r0, r4, asr #2
     8e0:	00000158 	andeq	r0, r0, r8, asr r1
     8e4:	58500001 	ldmdapl	r0, {r0}^
     8e8:	60000001 	andvs	r0, r0, r1
     8ec:	01000001 	tsteq	r0, r1
     8f0:	01605c00 	cmneq	r0, r0, lsl #24
     8f4:	01680000 	cmneq	r8, r0
     8f8:	00010000 	andeq	r0, r1, r0
     8fc:	00016853 	andeq	r6, r1, r3, asr r8
     900:	00017800 	andeq	r7, r1, r0, lsl #16
     904:	5c000100 	stfpls	f0, [r0], {-0}
     908:	00000178 	andeq	r0, r0, r8, ror r1
     90c:	00000180 	andeq	r0, r0, r0, lsl #3
     910:	007c0005 	rsbseq	r0, ip, r5
     914:	809f2534 	addshi	r2, pc, r4, lsr r5	; <UNPREDICTABLE>
     918:	88000001 	stmdahi	r0, {r0}
     91c:	01000001 	tsteq	r0, r1
     920:	01885c00 	orreq	r5, r8, r0, lsl #24
     924:	01900000 	orrseq	r0, r0, r0
     928:	00010000 	andeq	r0, r1, r0
     92c:	00019053 	andeq	r9, r1, r3, asr r0
     930:	00019400 	andeq	r9, r1, r0, lsl #8
     934:	5c000100 	stfpls	f0, [r0], {-0}
     938:	00000194 	muleq	r0, r4, r1
     93c:	0000019c 	muleq	r0, ip, r1
     940:	9c530001 	mrrcls	0, 0, r0, r3, cr1
     944:	ac000001 	stcge	0, cr0, [r0], {1}
     948:	01000001 	tsteq	r0, r1
     94c:	01ac5c00 			; <UNDEFINED> instruction: 0x01ac5c00
     950:	01b40000 			; <UNDEFINED> instruction: 0x01b40000
     954:	00050000 	andeq	r0, r5, r0
     958:	2531007c 	ldrcs	r0, [r1, #-124]!	; 0x7c
     95c:	0001b49f 	muleq	r1, pc, r4	; <UNPREDICTABLE>
     960:	0001bc00 	andeq	fp, r1, r0, lsl #24
     964:	5c000100 	stfpls	f0, [r0], {-0}
     968:	000001bc 			; <UNDEFINED> instruction: 0x000001bc
     96c:	000001bf 			; <UNDEFINED> instruction: 0x000001bf
     970:	bf530001 	svclt	0x00530001
     974:	e0000001 	and	r0, r0, r1
     978:	04000001 	streq	r0, [r0], #-1
     97c:	5301f300 	movwpl	pc, #4864	; 0x1300	; <UNPREDICTABLE>
     980:	0001e09f 	muleq	r1, pc, r0	; <UNPREDICTABLE>
     984:	0001eb00 	andeq	lr, r1, r0, lsl #22
     988:	5c000100 	stfpls	f0, [r0], {-0}
	...
     994:	000000ec 	andeq	r0, r0, ip, ror #1
     998:	000000fc 	strdeq	r0, [r0], -ip
     99c:	9f300002 	svcls	0x00300002
     9a0:	000000fc 	strdeq	r0, [r0], -ip
     9a4:	00000104 	andeq	r0, r0, r4, lsl #2
     9a8:	9f310002 	svcls	0x00310002
     9ac:	00000104 	andeq	r0, r0, r4, lsl #2
     9b0:	00000108 	andeq	r0, r0, r8, lsl #2
     9b4:	9f300002 	svcls	0x00300002
	...
     9c0:	00000228 	andeq	r0, r0, r8, lsr #4
     9c4:	0000023b 	andeq	r0, r0, fp, lsr r2
     9c8:	3b500001 	blcc	14009d4 <__bss_end__+0x13f6a44>
     9cc:	5c000002 	stcpl	0, cr0, [r0], {2}
     9d0:	04000002 	streq	r0, [r0], #-2
     9d4:	5001f300 	andpl	pc, r1, r0, lsl #6
     9d8:	00025c9f 	muleq	r2, pc, ip	; <UNPREDICTABLE>
     9dc:	00029000 	andeq	r9, r2, r0
     9e0:	50000100 	andpl	r0, r0, r0, lsl #2
	...
     9ec:	00000228 	andeq	r0, r0, r8, lsr #4
     9f0:	0000023b 	andeq	r0, r0, fp, lsr r2
     9f4:	3b510001 	blcc	1440a00 <__bss_end__+0x1436a70>
     9f8:	5c000002 	stcpl	0, cr0, [r0], {2}
     9fc:	04000002 	streq	r0, [r0], #-2
     a00:	5101f300 	mrspl	pc, SP_irq	; <UNPREDICTABLE>
     a04:	00025c9f 	muleq	r2, pc, ip	; <UNPREDICTABLE>
     a08:	00029000 	andeq	r9, r2, r0
     a0c:	51000100 	mrspl	r0, (UNDEF: 16)
	...
     a18:	00000290 	muleq	r0, r0, r2
     a1c:	000002bc 			; <UNDEFINED> instruction: 0x000002bc
     a20:	bc500001 	mrrclt	0, 0, r0, r0, cr1	; <UNPREDICTABLE>
     a24:	0c000002 	stceq	0, cr0, [r0], {2}
     a28:	01000005 	tsteq	r0, r5
     a2c:	050c5a00 	streq	r5, [ip, #-2560]	; 0xa00
     a30:	05240000 	streq	r0, [r4, #-0]!
     a34:	00040000 	andeq	r0, r4, r0
     a38:	9f5001f3 	svcls	0x005001f3
	...
     a44:	00000290 	muleq	r0, r0, r2
     a48:	000002a4 	andeq	r0, r0, r4, lsr #5
     a4c:	a4510001 	ldrbge	r0, [r1], #-1
     a50:	bc000002 	stclt	0, cr0, [r0], {2}
     a54:	03000002 	movweq	r0, #2
     a58:	9f017100 	svcls	0x00017100
     a5c:	000002bc 			; <UNDEFINED> instruction: 0x000002bc
     a60:	00000524 	andeq	r0, r0, r4, lsr #10
     a64:	01f30004 	mvnseq	r0, r4
     a68:	00009f51 	andeq	r9, r0, r1, asr pc
     a6c:	00000000 	andeq	r0, r0, r0
     a70:	02900000 	addseq	r0, r0, #0
     a74:	02c40000 	sbceq	r0, r4, #0
     a78:	00010000 	andeq	r0, r1, r0
     a7c:	0002c452 	andeq	ip, r2, r2, asr r4
     a80:	0002ec00 	andeq	lr, r2, r0, lsl #24
     a84:	52000100 	andpl	r0, r0, #0, 2
     a88:	000002ec 	andeq	r0, r0, ip, ror #5
     a8c:	000004bc 			; <UNDEFINED> instruction: 0x000004bc
     a90:	bc560001 	mrrclt	0, 0, r0, r6, cr1
     a94:	24000004 	strcs	r0, [r0], #-4
     a98:	01000005 	tsteq	r0, r5
     a9c:	00005200 	andeq	r5, r0, r0, lsl #4
     aa0:	00000000 	andeq	r0, r0, r0
     aa4:	02900000 	addseq	r0, r0, #0
     aa8:	02ac0000 	adceq	r0, ip, #0
     aac:	00010000 	andeq	r0, r1, r0
     ab0:	00000053 	andeq	r0, r0, r3, asr r0
     ab4:	00000000 	andeq	r0, r0, r0
     ab8:	0002a000 	andeq	sl, r2, r0
     abc:	0002bc00 	andeq	fp, r2, r0, lsl #24
     ac0:	50000100 	andpl	r0, r0, r0, lsl #2
     ac4:	000002bc 			; <UNDEFINED> instruction: 0x000002bc
     ac8:	000002c0 	andeq	r0, r0, r0, asr #5
     acc:	c0540001 	subsgt	r0, r4, r1
     ad0:	cc000002 	stcgt	0, cr0, [r0], {2}
     ad4:	03000002 	movweq	r0, #2
     ad8:	9f017400 	svcls	0x00017400
     adc:	000002cc 	andeq	r0, r0, ip, asr #5
     ae0:	000002d8 	ldrdeq	r0, [r0], -r8
     ae4:	d8540001 	ldmdale	r4, {r0}^
     ae8:	e4000002 	str	r0, [r0], #-2
     aec:	03000002 	movweq	r0, #2
     af0:	9f017400 	svcls	0x00017400
     af4:	000002e4 	andeq	r0, r0, r4, ror #5
     af8:	000004c0 	andeq	r0, r0, r0, asr #9
     afc:	c0540001 	subsgt	r0, r4, r1
     b00:	cc000004 	stcgt	0, cr0, [r0], {4}
     b04:	03000004 	movweq	r0, #4
     b08:	9f017400 	svcls	0x00017400
     b0c:	000004cc 	andeq	r0, r0, ip, asr #9
     b10:	000004f8 	strdeq	r0, [r0], -r8
     b14:	f8540001 			; <UNDEFINED> instruction: 0xf8540001
     b18:	04000004 	streq	r0, [r0], #-4
     b1c:	01000005 	tsteq	r0, r5
     b20:	05045000 	streq	r5, [r4, #-0]
     b24:	050c0000 	streq	r0, [ip, #-0]
     b28:	00030000 	andeq	r0, r3, r0
     b2c:	009f0174 	addseq	r0, pc, r4, ror r1	; <UNPREDICTABLE>
     b30:	00000000 	andeq	r0, r0, r0
     b34:	a8000000 	stmdage	r0, {}	; <UNPREDICTABLE>
     b38:	0c000002 	stceq	0, cr0, [r0], {2}
     b3c:	01000005 	tsteq	r0, r5
     b40:	050c5800 	streq	r5, [ip, #-2048]	; 0x800
     b44:	05240000 	streq	r0, [r4, #-0]!
     b48:	000a0000 	andeq	r0, sl, r0
     b4c:	f35101f3 	vbsl	q8, <illegal reg q8.5>, <illegal reg q9.5>
     b50:	31225001 	teqcc	r2, r1
     b54:	00009f1c 	andeq	r9, r0, ip, lsl pc
     b58:	00000000 	andeq	r0, r0, r0
     b5c:	03f40000 	mvnseq	r0, #0
     b60:	03f80000 	mvnseq	r0, #0
     b64:	00010000 	andeq	r0, r1, r0
     b68:	00041850 	andeq	r1, r4, r0, asr r8
     b6c:	00041c00 	andeq	r1, r4, r0, lsl #24
     b70:	50000100 	andpl	r0, r0, r0, lsl #2
     b74:	0000043c 	andeq	r0, r0, ip, lsr r4
     b78:	00000440 	andeq	r0, r0, r0, asr #8
     b7c:	60500001 	subsvs	r0, r0, r1
     b80:	64000004 	strvs	r0, [r0], #-4
     b84:	01000004 	tsteq	r0, r4
     b88:	046c5000 	strbteq	r5, [ip], #-0
     b8c:	04700000 	ldrbteq	r0, [r0], #-0
     b90:	00010000 	andeq	r0, r1, r0
     b94:	00049050 	andeq	r9, r4, r0, asr r0
     b98:	00049400 	andeq	r9, r4, r0, lsl #8
     b9c:	50000100 	andpl	r0, r0, r0, lsl #2
     ba0:	000004b8 			; <UNDEFINED> instruction: 0x000004b8
     ba4:	000004e0 	andeq	r0, r0, r0, ror #9
     ba8:	00500001 	subseq	r0, r0, r1
     bac:	00000000 	andeq	r0, r0, r0
     bb0:	ec000000 	stc	0, cr0, [r0], {-0}
     bb4:	f4000002 	vst4.8	{d0-d3}, [r0], r2
     bb8:	02000002 	andeq	r0, r0, #2
     bbc:	f49f3000 			; <UNDEFINED> instruction: 0xf49f3000
     bc0:	f8000002 			; <UNDEFINED> instruction: 0xf8000002
     bc4:	01000002 	tsteq	r0, r2
     bc8:	03045700 	movweq	r5, #18176	; 0x4700
     bcc:	04e00000 	strbteq	r0, [r0], #0
     bd0:	00010000 	andeq	r0, r1, r0
     bd4:	00000057 	andeq	r0, r0, r7, asr r0
     bd8:	00000000 	andeq	r0, r0, r0
     bdc:	00000400 	andeq	r0, r0, r0, lsl #8
     be0:	00000800 	andeq	r0, r0, r0, lsl #16
     be4:	73000700 	movwvc	r0, #1792	; 0x700
     be8:	10000a00 	andne	r0, r0, r0, lsl #20
     bec:	00089f21 	andeq	r9, r8, r1, lsr #30
     bf0:	00100000 	andseq	r0, r0, r0
     bf4:	00010000 	andeq	r0, r1, r0
     bf8:	00000053 	andeq	r0, r0, r3, asr r0
     bfc:	00000000 	andeq	r0, r0, r0
     c00:	00001400 	andeq	r1, r0, r0, lsl #8
     c04:	00001800 	andeq	r1, r0, r0, lsl #16
     c08:	73000700 	movwvc	r0, #1792	; 0x700
     c0c:	efff0b00 	svc	0x00ff0b00
     c10:	00189f1a 	andseq	r9, r8, sl, lsl pc
     c14:	00200000 	eoreq	r0, r0, r0
     c18:	00010000 	andeq	r0, r1, r0
     c1c:	00000053 	andeq	r0, r0, r3, asr r0
	...
     c28:	00000c00 	andeq	r0, r0, r0, lsl #24
     c2c:	50000100 	andpl	r0, r0, r0, lsl #2
     c30:	0000000c 	andeq	r0, r0, ip
     c34:	00000020 	andeq	r0, r0, r0, lsr #32
     c38:	00540001 	subseq	r0, r4, r1
     c3c:	00000000 	andeq	r0, r0, r0
     c40:	34000000 	strcc	r0, [r0], #-0
     c44:	3c000000 	stccc	0, cr0, [r0], {-0}
     c48:	03000000 	movweq	r0, #0
     c4c:	9f047300 	svcls	0x00047300
     c50:	0000003c 	andeq	r0, r0, ip, lsr r0
     c54:	00000047 	andeq	r0, r0, r7, asr #32
     c58:	00530001 	subseq	r0, r3, r1
     c5c:	00000000 	andeq	r0, r0, r0
     c60:	48000000 	stmdami	r0, {}	; <UNPREDICTABLE>
     c64:	74000000 	strvc	r0, [r0], #-0
     c68:	01000000 	mrseq	r0, (UNDEF: 0)
     c6c:	00745000 	rsbseq	r5, r4, r0
     c70:	00830000 	addeq	r0, r3, r0
     c74:	00030000 	andeq	r0, r3, r0
     c78:	009f7873 	addseq	r7, pc, r3, ror r8	; <UNPREDICTABLE>
     c7c:	00000000 	andeq	r0, r0, r0
     c80:	20000000 	andcs	r0, r0, r0
     c84:	24000089 	strcs	r0, [r0], #-137	; 0x89
     c88:	02000089 	andeq	r0, r0, #137	; 0x89
     c8c:	249f3000 	ldrcs	r3, [pc], #0	; c94 <_start-0x736c>
     c90:	28000089 	stmdacs	r0, {r0, r3, r7}
     c94:	01000089 	smlabbeq	r0, r9, r0, r0
     c98:	00005000 	andeq	r5, r0, r0
     c9c:	00000000 	andeq	r0, r0, r0
     ca0:	89380000 	ldmdbhi	r8!, {}	; <UNPREDICTABLE>
     ca4:	893c0000 	ldmdbhi	ip!, {}	; <UNPREDICTABLE>
     ca8:	00020000 	andeq	r0, r2, r0
     cac:	893c9f30 	ldmdbhi	ip!, {r4, r5, r8, r9, sl, fp, ip, pc}
     cb0:	89400000 	stmdbhi	r0, {}^	; <UNPREDICTABLE>
     cb4:	00010000 	andeq	r0, r1, r0
     cb8:	00894453 	addeq	r4, r9, r3, asr r4
     cbc:	00894c00 	addeq	r4, r9, r0, lsl #24
     cc0:	53000100 	movwpl	r0, #256	; 0x100
	...
     cd0:	00000004 	andeq	r0, r0, r4
     cd4:	04500001 	ldrbeq	r0, [r0], #-1
     cd8:	0c000000 	stceq	0, cr0, [r0], {-0}
     cdc:	01000000 	mrseq	r0, (UNDEF: 0)
     ce0:	000c5300 	andeq	r5, ip, r0, lsl #6
     ce4:	00100000 	andseq	r0, r0, r0
     ce8:	00010000 	andeq	r0, r1, r0
     cec:	00001050 	andeq	r1, r0, r0, asr r0
     cf0:	00001c00 	andeq	r1, r0, r0, lsl #24
     cf4:	53000100 	movwpl	r0, #256	; 0x100
	...
     d00:	0000003c 	andeq	r0, r0, ip, lsr r0
     d04:	00000047 	andeq	r0, r0, r7, asr #32
     d08:	47500001 	ldrbmi	r0, [r0, -r1]
     d0c:	60000000 	andvs	r0, r0, r0
     d10:	01000000 	mrseq	r0, (UNDEF: 0)
     d14:	00005500 	andeq	r5, r0, r0, lsl #10
     d18:	00000000 	andeq	r0, r0, r0
     d1c:	00500000 	subseq	r0, r0, r0
     d20:	00540000 	subseq	r0, r4, r0
     d24:	00010000 	andeq	r0, r1, r0
     d28:	00000050 	andeq	r0, r0, r0, asr r0
     d2c:	00000000 	andeq	r0, r0, r0
     d30:	00006000 	andeq	r6, r0, r0
     d34:	00006c00 	andeq	r6, r0, r0, lsl #24
     d38:	50000100 	andpl	r0, r0, r0, lsl #2
     d3c:	0000006c 	andeq	r0, r0, ip, rrx
     d40:	00000074 	andeq	r0, r0, r4, ror r0
     d44:	01f30004 	mvnseq	r0, r4
     d48:	00009f50 	andeq	r9, r0, r0, asr pc
     d4c:	00000000 	andeq	r0, r0, r0
     d50:	00740000 	rsbseq	r0, r4, r0
     d54:	00800000 	addeq	r0, r0, r0
     d58:	00010000 	andeq	r0, r1, r0
     d5c:	00008050 	andeq	r8, r0, r0, asr r0
     d60:	00008800 	andeq	r8, r0, r0, lsl #16
     d64:	f3000400 	vshl.u8	d0, d0, d0
     d68:	009f5001 	addseq	r5, pc, r1
	...
     d74:	90000000 	andls	r0, r0, r0
     d78:	01000000 	mrseq	r0, (UNDEF: 0)
     d7c:	00905000 	addseq	r5, r0, r0
     d80:	00d40000 	sbcseq	r0, r4, r0
     d84:	00010000 	andeq	r0, r1, r0
     d88:	00000054 	andeq	r0, r0, r4, asr r0
     d8c:	00000000 	andeq	r0, r0, r0
     d90:	00004800 	andeq	r4, r0, r0, lsl #16
     d94:	00004c00 	andeq	r4, r0, r0, lsl #24
     d98:	55000100 	strpl	r0, [r0, #-256]	; 0x100
     d9c:	00000054 	andeq	r0, r0, r4, asr r0
     da0:	00000058 	andeq	r0, r0, r8, asr r0
     da4:	60550001 	subsvs	r0, r5, r1
     da8:	64000000 	strvs	r0, [r0], #-0
     dac:	01000000 	mrseq	r0, (UNDEF: 0)
     db0:	006c5500 	rsbeq	r5, ip, r0, lsl #10
     db4:	00700000 	rsbseq	r0, r0, r0
     db8:	00010000 	andeq	r0, r1, r0
     dbc:	00007855 	andeq	r7, r0, r5, asr r8
     dc0:	00007c00 	andeq	r7, r0, r0, lsl #24
     dc4:	55000100 	strpl	r0, [r0, #-256]	; 0x100
     dc8:	00000084 	andeq	r0, r0, r4, lsl #1
     dcc:	00000088 	andeq	r0, r0, r8, lsl #1
     dd0:	8c550001 	mrrchi	0, 0, r0, r5, cr1
     dd4:	d4000000 	strle	r0, [r0], #-0
     dd8:	01000000 	mrseq	r0, (UNDEF: 0)
     ddc:	00005500 	andeq	r5, r0, r0, lsl #10
     de0:	00000000 	andeq	r0, r0, r0
     de4:	001c0000 	andseq	r0, ip, r0
     de8:	00440000 	subeq	r0, r4, r0
     dec:	00010000 	andeq	r0, r1, r0
     df0:	00004453 	andeq	r4, r0, r3, asr r4
     df4:	00004c00 	andeq	r4, r0, r0, lsl #24
     df8:	70001c00 	andvc	r1, r0, r0, lsl #24
     dfc:	f72cf700 			; <UNDEFINED> instruction: 0xf72cf700
     e00:	0825f425 	stmdaeq	r5!, {r0, r2, r5, sl, ip, sp, lr, pc}
     e04:	cccccccd 	stclgt	12, cr12, [ip], {205}	; 0xcd
     e08:	00000000 	andeq	r0, r0, r0
     e0c:	f720081e 			; <UNDEFINED> instruction: 0xf720081e
     e10:	2cf72525 	cfldr64cs	mvdx2, [r7], #148	; 0x94
     e14:	4c9f2533 	cfldr32mi	mvfx2, [pc], {51}	; 0x33
     e18:	50000000 	andpl	r0, r0, r0
     e1c:	01000000 	mrseq	r0, (UNDEF: 0)
     e20:	00505300 	subseq	r5, r0, r0, lsl #6
     e24:	00580000 	subseq	r0, r8, r0
     e28:	001c0000 	andseq	r0, ip, r0
     e2c:	2cf70070 	ldclcs	0, cr0, [r7], #448	; 0x1c0
     e30:	25f425f7 	ldrbcs	r2, [r4, #1527]!	; 0x5f7
     e34:	cccccd08 	stclgt	13, cr12, [ip], {8}
     e38:	000000cc 	andeq	r0, r0, ip, asr #1
     e3c:	20081e00 	andcs	r1, r8, r0, lsl #28
     e40:	f72525f7 			; <UNDEFINED> instruction: 0xf72525f7
     e44:	9f25332c 	svcls	0x0025332c
     e48:	00000058 	andeq	r0, r0, r8, asr r0
     e4c:	0000005c 	andeq	r0, r0, ip, asr r0
     e50:	5c530001 	mrrcpl	0, 0, r0, r3, cr1
     e54:	64000000 	strvs	r0, [r0], #-0
     e58:	1c000000 	stcne	0, cr0, [r0], {-0}
     e5c:	f7007000 			; <UNDEFINED> instruction: 0xf7007000
     e60:	f425f72c 	vld1.8	{d15}, [r5 :128], ip
     e64:	cccd0825 	stclgt	8, cr0, [sp], {37}	; 0x25
     e68:	0000cccc 	andeq	ip, r0, ip, asr #25
     e6c:	081e0000 	ldmdaeq	lr, {}	; <UNPREDICTABLE>
     e70:	2525f720 	strcs	pc, [r5, #-1824]!	; 0x720
     e74:	25332cf7 	ldrcs	r2, [r3, #-3319]!	; 0xcf7
     e78:	0000649f 	muleq	r0, pc, r4	; <UNPREDICTABLE>
     e7c:	00006800 	andeq	r6, r0, r0, lsl #16
     e80:	53000100 	movwpl	r0, #256	; 0x100
     e84:	00000068 	andeq	r0, r0, r8, rrx
     e88:	00000070 	andeq	r0, r0, r0, ror r0
     e8c:	0070001c 	rsbseq	r0, r0, ip, lsl r0
     e90:	25f72cf7 	ldrbcs	r2, [r7, #3319]!	; 0xcf7
     e94:	cd0825f4 	cfstr32gt	mvfx2, [r8, #-976]	; 0xfffffc30
     e98:	00cccccc 	sbceq	ip, ip, ip, asr #25
     e9c:	1e000000 	cdpne	0, 0, cr0, cr0, cr0, {0}
     ea0:	25f72008 	ldrbcs	r2, [r7, #8]!
     ea4:	332cf725 	msrcc	CPSR_fs, #9699328	; 0x940000
     ea8:	00709f25 	rsbseq	r9, r0, r5, lsr #30
     eac:	00740000 	rsbseq	r0, r4, r0
     eb0:	00010000 	andeq	r0, r1, r0
     eb4:	00007453 	andeq	r7, r0, r3, asr r4
     eb8:	00007c00 	andeq	r7, r0, r0, lsl #24
     ebc:	70001c00 	andvc	r1, r0, r0, lsl #24
     ec0:	f72cf700 			; <UNDEFINED> instruction: 0xf72cf700
     ec4:	0825f425 	stmdaeq	r5!, {r0, r2, r5, sl, ip, sp, lr, pc}
     ec8:	cccccccd 	stclgt	12, cr12, [ip], {205}	; 0xcd
     ecc:	00000000 	andeq	r0, r0, r0
     ed0:	f720081e 			; <UNDEFINED> instruction: 0xf720081e
     ed4:	2cf72525 	cfldr64cs	mvdx2, [r7], #148	; 0x94
     ed8:	7c9f2533 	cfldr32vc	mvfx2, [pc], {51}	; 0x33
     edc:	80000000 	andhi	r0, r0, r0
     ee0:	01000000 	mrseq	r0, (UNDEF: 0)
     ee4:	00805300 	addeq	r5, r0, r0, lsl #6
     ee8:	00880000 	addeq	r0, r8, r0
     eec:	001c0000 	andseq	r0, ip, r0
     ef0:	2cf70070 	ldclcs	0, cr0, [r7], #448	; 0x1c0
     ef4:	25f425f7 	ldrbcs	r2, [r4, #1527]!	; 0x5f7
     ef8:	cccccd08 	stclgt	13, cr12, [ip], {8}
     efc:	000000cc 	andeq	r0, r0, ip, asr #1
     f00:	20081e00 	andcs	r1, r8, r0, lsl #28
     f04:	f72525f7 			; <UNDEFINED> instruction: 0xf72525f7
     f08:	9f25332c 	svcls	0x0025332c
     f0c:	00000088 	andeq	r0, r0, r8, lsl #1
     f10:	0000008c 	andeq	r0, r0, ip, lsl #1
     f14:	8c530001 	mrrchi	0, 0, r0, r3, cr1
     f18:	90000000 	andls	r0, r0, r0
     f1c:	1c000000 	stcne	0, cr0, [r0], {-0}
     f20:	f7007000 			; <UNDEFINED> instruction: 0xf7007000
     f24:	f425f72c 	vld1.8	{d15}, [r5 :128], ip
     f28:	cccd0825 	stclgt	8, cr0, [sp], {37}	; 0x25
     f2c:	0000cccc 	andeq	ip, r0, ip, asr #25
     f30:	081e0000 	ldmdaeq	lr, {}	; <UNPREDICTABLE>
     f34:	2525f720 	strcs	pc, [r5, #-1824]!	; 0x720
     f38:	25332cf7 	ldrcs	r2, [r3, #-3319]!	; 0xcf7
     f3c:	0000909f 	muleq	r0, pc, r0	; <UNPREDICTABLE>
     f40:	00009800 	andeq	r9, r0, r0, lsl #16
     f44:	74001c00 	strvc	r1, [r0], #-3072	; 0xc00
     f48:	f72cf700 			; <UNDEFINED> instruction: 0xf72cf700
     f4c:	0825f425 	stmdaeq	r5!, {r0, r2, r5, sl, ip, sp, lr, pc}
     f50:	cccccccd 	stclgt	12, cr12, [ip], {205}	; 0xcd
     f54:	00000000 	andeq	r0, r0, r0
     f58:	f720081e 			; <UNDEFINED> instruction: 0xf720081e
     f5c:	2cf72525 	cfldr64cs	mvdx2, [r7], #148	; 0x94
     f60:	989f2533 	ldmls	pc, {r0, r1, r4, r5, r8, sl, sp}	; <UNPREDICTABLE>
     f64:	9c000000 	stcls	0, cr0, [r0], {-0}
     f68:	17000000 	strne	r0, [r0, -r0]
     f6c:	f7007400 			; <UNDEFINED> instruction: 0xf7007400
     f70:	7125f72c 	msrvc	SP_abt, ip
     f74:	f72cf700 			; <UNDEFINED> instruction: 0xf72cf700
     f78:	20081e25 	andcs	r1, r8, r5, lsr #28
     f7c:	f72525f7 			; <UNDEFINED> instruction: 0xf72525f7
     f80:	9f25332c 	svcls	0x0025332c
     f84:	0000009c 	muleq	r0, ip, r0
     f88:	000000d4 	ldrdeq	r0, [r0], -r4
     f8c:	0074001c 	rsbseq	r0, r4, ip, lsl r0
     f90:	25f72cf7 	ldrbcs	r2, [r7, #3319]!	; 0xcf7
     f94:	cd0825f4 	cfstr32gt	mvfx2, [r8, #-976]	; 0xfffffc30
     f98:	00cccccc 	sbceq	ip, ip, ip, asr #25
     f9c:	1e000000 	cdpne	0, 0, cr0, cr0, cr0, {0}
     fa0:	25f72008 	ldrbcs	r2, [r7, #8]!
     fa4:	332cf725 	msrcc	CPSR_fs, #9699328	; 0x940000
     fa8:	00009f25 	andeq	r9, r0, r5, lsr #30
     fac:	00000000 	andeq	r0, r0, r0
     fb0:	00940000 	addseq	r0, r4, r0
     fb4:	00b80000 	adcseq	r0, r8, r0
     fb8:	00010000 	andeq	r0, r1, r0
     fbc:	0000b850 	andeq	fp, r0, r0, asr r8
     fc0:	0000c400 	andeq	ip, r0, r0, lsl #8
     fc4:	31000800 	tstcc	r0, r0, lsl #16
     fc8:	73240071 	teqvc	r4, #113	; 0x71
     fcc:	c49f2100 	ldrgt	r2, [pc], #256	; fd4 <_start-0x702c>
     fd0:	c7000000 	strgt	r0, [r0, -r0]
     fd4:	01000000 	mrseq	r0, (UNDEF: 0)
     fd8:	00005100 	andeq	r5, r0, r0, lsl #2
     fdc:	00000000 	andeq	r0, r0, r0
     fe0:	00d40000 	sbcseq	r0, r4, r0
     fe4:	00f80000 	rscseq	r0, r8, r0
     fe8:	00010000 	andeq	r0, r1, r0
     fec:	0000f850 	andeq	pc, r0, r0, asr r8	; <UNPREDICTABLE>
     ff0:	00010c00 	andeq	r0, r1, r0, lsl #24
     ff4:	f3000400 	vshl.u8	d0, d0, d0
     ff8:	009f5001 	addseq	r5, pc, r1
     ffc:	00000000 	andeq	r0, r0, r0
    1000:	e0000000 	and	r0, r0, r0
    1004:	e8000000 	stmda	r0, {}	; <UNPREDICTABLE>
    1008:	02000000 	andeq	r0, r0, #0
    100c:	e89f3000 	ldm	pc, {ip, sp}	; <UNPREDICTABLE>
    1010:	e8000000 	stmda	r0, {}	; <UNPREDICTABLE>
    1014:	01000000 	mrseq	r0, (UNDEF: 0)
    1018:	00e85200 	rsceq	r5, r8, r0, lsl #4
    101c:	00f00000 	rscseq	r0, r0, r0
    1020:	00020000 	andeq	r0, r2, r0
    1024:	00f09f30 	rscseq	r9, r0, r0, lsr pc
    1028:	01030000 	mrseq	r0, (UNDEF: 3)
    102c:	00010000 	andeq	r0, r1, r0
    1030:	00000052 	andeq	r0, r0, r2, asr r0
    1034:	00000000 	andeq	r0, r0, r0
    1038:	0000e000 	andeq	lr, r0, r0
    103c:	0000f400 	andeq	pc, r0, r0, lsl #8
    1040:	30000200 	andcc	r0, r0, r0, lsl #4
    1044:	0000f49f 	muleq	r0, pc, r4	; <UNPREDICTABLE>
    1048:	00010000 	andeq	r0, r1, r0
    104c:	31000500 	tstcc	r0, r0, lsl #10
    1050:	9f240073 	svcls	0x00240073
    1054:	00000100 	andeq	r0, r0, r0, lsl #2
    1058:	00000103 	andeq	r0, r0, r3, lsl #2
    105c:	03510001 	cmpeq	r1, #1
    1060:	0c000001 	stceq	0, cr0, [r0], {1}
    1064:	08000001 	stmdaeq	r0, {r0}
    1068:	01f33100 	mvnseq	r3, r0, lsl #2
    106c:	241a4f50 	ldrcs	r4, [sl], #-3920	; 0xf50
    1070:	0000009f 	muleq	r0, pc, r0	; <UNPREDICTABLE>
    1074:	00000000 	andeq	r0, r0, r0
    1078:	00010c00 	andeq	r0, r1, r0, lsl #24
    107c:	00013000 	andeq	r3, r1, r0
    1080:	50000100 	andpl	r0, r0, r0, lsl #2
    1084:	00000130 	andeq	r0, r0, r0, lsr r1
    1088:	00000144 	andeq	r0, r0, r4, asr #2
    108c:	01f30004 	mvnseq	r0, r4
    1090:	00009f50 	andeq	r9, r0, r0, asr pc
    1094:	00000000 	andeq	r0, r0, r0
    1098:	01180000 	tsteq	r8, r0
    109c:	01200000 	teqeq	r0, r0
    10a0:	00020000 	andeq	r0, r2, r0
    10a4:	01209f30 	teqeq	r0, r0, lsr pc
    10a8:	01200000 	teqeq	r0, r0
    10ac:	00010000 	andeq	r0, r1, r0
    10b0:	00012052 	andeq	r2, r1, r2, asr r0
    10b4:	00012800 	andeq	r2, r1, r0, lsl #16
    10b8:	30000200 	andcc	r0, r0, r0, lsl #4
    10bc:	0001289f 	muleq	r1, pc, r8	; <UNPREDICTABLE>
    10c0:	00013b00 	andeq	r3, r1, r0, lsl #22
    10c4:	52000100 	andpl	r0, r0, #0, 2
	...
    10d0:	00000118 	andeq	r0, r0, r8, lsl r1
    10d4:	0000012c 	andeq	r0, r0, ip, lsr #2
    10d8:	9f300002 	svcls	0x00300002
    10dc:	0000012c 	andeq	r0, r0, ip, lsr #2
    10e0:	00000138 	andeq	r0, r0, r8, lsr r1
    10e4:	73310005 	teqvc	r1, #5
    10e8:	389f2400 	ldmcc	pc, {sl, sp}	; <UNPREDICTABLE>
    10ec:	3b000001 	blcc	10f8 <_start-0x6f08>
    10f0:	01000001 	tsteq	r0, r1
    10f4:	013b5100 	teqeq	fp, r0, lsl #2
    10f8:	01440000 	mrseq	r0, (UNDEF: 68)
    10fc:	00080000 	andeq	r0, r8, r0
    1100:	5001f331 	andpl	pc, r1, r1, lsr r3	; <UNPREDICTABLE>
    1104:	9f241a4f 	svcls	0x00241a4f
	...
    1110:	00000144 	andeq	r0, r0, r4, asr #2
    1114:	000001d4 	ldrdeq	r0, [r0], -r4
    1118:	d4500001 	ldrble	r0, [r0], #-1
    111c:	10000001 	andne	r0, r0, r1
    1120:	01000002 	tsteq	r0, r2
    1124:	00005400 	andeq	r5, r0, r0, lsl #8
    1128:	00000000 	andeq	r0, r0, r0
    112c:	018c0000 	orreq	r0, ip, r0
    1130:	01900000 	orrseq	r0, r0, r0
    1134:	00010000 	andeq	r0, r1, r0
    1138:	00019855 	andeq	r9, r1, r5, asr r8
    113c:	00019c00 	andeq	r9, r1, r0, lsl #24
    1140:	55000100 	strpl	r0, [r0, #-256]	; 0x100
    1144:	000001a4 	andeq	r0, r0, r4, lsr #3
    1148:	000001a8 	andeq	r0, r0, r8, lsr #3
    114c:	b0550001 	subslt	r0, r5, r1
    1150:	b4000001 	strlt	r0, [r0], #-1
    1154:	01000001 	tsteq	r0, r1
    1158:	01bc5500 			; <UNDEFINED> instruction: 0x01bc5500
    115c:	01c00000 	biceq	r0, r0, r0
    1160:	00010000 	andeq	r0, r1, r0
    1164:	0001c855 	andeq	ip, r1, r5, asr r8
    1168:	0001cc00 	andeq	ip, r1, r0, lsl #24
    116c:	55000100 	strpl	r0, [r0, #-256]	; 0x100
    1170:	000001d0 	ldrdeq	r0, [r0], -r0	; <UNPREDICTABLE>
    1174:	00000210 	andeq	r0, r0, r0, lsl r2
    1178:	00550001 	subseq	r0, r5, r1
    117c:	00000000 	andeq	r0, r0, r0
    1180:	60000000 	andvs	r0, r0, r0
    1184:	88000001 	stmdahi	r0, {r0}
    1188:	01000001 	tsteq	r0, r1
    118c:	01885300 	orreq	r5, r8, r0, lsl #6
    1190:	01900000 	orrseq	r0, r0, r0
    1194:	001c0000 	andseq	r0, ip, r0
    1198:	2cf70070 	ldclcs	0, cr0, [r7], #448	; 0x1c0
    119c:	25f425f7 	ldrbcs	r2, [r4, #1527]!	; 0x5f7
    11a0:	cccccd08 	stclgt	13, cr12, [ip], {8}
    11a4:	000000cc 	andeq	r0, r0, ip, asr #1
    11a8:	20081e00 	andcs	r1, r8, r0, lsl #28
    11ac:	f72525f7 			; <UNDEFINED> instruction: 0xf72525f7
    11b0:	9f25332c 	svcls	0x0025332c
    11b4:	00000190 	muleq	r0, r0, r1
    11b8:	00000194 	muleq	r0, r4, r1
    11bc:	94530001 	ldrbls	r0, [r3], #-1
    11c0:	9c000001 	stcls	0, cr0, [r0], {1}
    11c4:	1c000001 	stcne	0, cr0, [r0], {1}
    11c8:	f7007000 			; <UNDEFINED> instruction: 0xf7007000
    11cc:	f425f72c 	vld1.8	{d15}, [r5 :128], ip
    11d0:	cccd0825 	stclgt	8, cr0, [sp], {37}	; 0x25
    11d4:	0000cccc 	andeq	ip, r0, ip, asr #25
    11d8:	081e0000 	ldmdaeq	lr, {}	; <UNPREDICTABLE>
    11dc:	2525f720 	strcs	pc, [r5, #-1824]!	; 0x720
    11e0:	25332cf7 	ldrcs	r2, [r3, #-3319]!	; 0xcf7
    11e4:	00019c9f 	muleq	r1, pc, ip	; <UNPREDICTABLE>
    11e8:	0001a000 	andeq	sl, r1, r0
    11ec:	53000100 	movwpl	r0, #256	; 0x100
    11f0:	000001a0 	andeq	r0, r0, r0, lsr #3
    11f4:	000001a8 	andeq	r0, r0, r8, lsr #3
    11f8:	0070001c 	rsbseq	r0, r0, ip, lsl r0
    11fc:	25f72cf7 	ldrbcs	r2, [r7, #3319]!	; 0xcf7
    1200:	cd0825f4 	cfstr32gt	mvfx2, [r8, #-976]	; 0xfffffc30
    1204:	00cccccc 	sbceq	ip, ip, ip, asr #25
    1208:	1e000000 	cdpne	0, 0, cr0, cr0, cr0, {0}
    120c:	25f72008 	ldrbcs	r2, [r7, #8]!
    1210:	332cf725 	msrcc	CPSR_fs, #9699328	; 0x940000
    1214:	01a89f25 			; <UNDEFINED> instruction: 0x01a89f25
    1218:	01ac0000 			; <UNDEFINED> instruction: 0x01ac0000
    121c:	00010000 	andeq	r0, r1, r0
    1220:	0001ac53 	andeq	sl, r1, r3, asr ip
    1224:	0001b400 	andeq	fp, r1, r0, lsl #8
    1228:	70001c00 	andvc	r1, r0, r0, lsl #24
    122c:	f72cf700 			; <UNDEFINED> instruction: 0xf72cf700
    1230:	0825f425 	stmdaeq	r5!, {r0, r2, r5, sl, ip, sp, lr, pc}
    1234:	cccccccd 	stclgt	12, cr12, [ip], {205}	; 0xcd
    1238:	00000000 	andeq	r0, r0, r0
    123c:	f720081e 			; <UNDEFINED> instruction: 0xf720081e
    1240:	2cf72525 	cfldr64cs	mvdx2, [r7], #148	; 0x94
    1244:	b49f2533 	ldrlt	r2, [pc], #1331	; 124c <_start-0x6db4>
    1248:	b8000001 	stmdalt	r0, {r0}
    124c:	01000001 	tsteq	r0, r1
    1250:	01b85300 			; <UNDEFINED> instruction: 0x01b85300
    1254:	01c00000 	biceq	r0, r0, r0
    1258:	001c0000 	andseq	r0, ip, r0
    125c:	2cf70070 	ldclcs	0, cr0, [r7], #448	; 0x1c0
    1260:	25f425f7 	ldrbcs	r2, [r4, #1527]!	; 0x5f7
    1264:	cccccd08 	stclgt	13, cr12, [ip], {8}
    1268:	000000cc 	andeq	r0, r0, ip, asr #1
    126c:	20081e00 	andcs	r1, r8, r0, lsl #28
    1270:	f72525f7 			; <UNDEFINED> instruction: 0xf72525f7
    1274:	9f25332c 	svcls	0x0025332c
    1278:	000001c0 	andeq	r0, r0, r0, asr #3
    127c:	000001c4 	andeq	r0, r0, r4, asr #3
    1280:	c4530001 	ldrbgt	r0, [r3], #-1
    1284:	cc000001 	stcgt	0, cr0, [r0], {1}
    1288:	1c000001 	stcne	0, cr0, [r0], {1}
    128c:	f7007000 			; <UNDEFINED> instruction: 0xf7007000
    1290:	f425f72c 	vld1.8	{d15}, [r5 :128], ip
    1294:	cccd0825 	stclgt	8, cr0, [sp], {37}	; 0x25
    1298:	0000cccc 	andeq	ip, r0, ip, asr #25
    129c:	081e0000 	ldmdaeq	lr, {}	; <UNPREDICTABLE>
    12a0:	2525f720 	strcs	pc, [r5, #-1824]!	; 0x720
    12a4:	25332cf7 	ldrcs	r2, [r3, #-3319]!	; 0xcf7
    12a8:	0001cc9f 	muleq	r1, pc, ip	; <UNPREDICTABLE>
    12ac:	0001d000 	andeq	sp, r1, r0
    12b0:	53000100 	movwpl	r0, #256	; 0x100
    12b4:	000001d0 	ldrdeq	r0, [r0], -r0	; <UNPREDICTABLE>
    12b8:	000001d4 	ldrdeq	r0, [r0], -r4
    12bc:	0070001c 	rsbseq	r0, r0, ip, lsl r0
    12c0:	25f72cf7 	ldrbcs	r2, [r7, #3319]!	; 0xcf7
    12c4:	cd0825f4 	cfstr32gt	mvfx2, [r8, #-976]	; 0xfffffc30
    12c8:	00cccccc 	sbceq	ip, ip, ip, asr #25
    12cc:	1e000000 	cdpne	0, 0, cr0, cr0, cr0, {0}
    12d0:	25f72008 	ldrbcs	r2, [r7, #8]!
    12d4:	332cf725 	msrcc	CPSR_fs, #9699328	; 0x940000
    12d8:	01d49f25 	bicseq	r9, r4, r5, lsr #30
    12dc:	01dc0000 	bicseq	r0, ip, r0
    12e0:	001c0000 	andseq	r0, ip, r0
    12e4:	2cf70074 	ldclcs	0, cr0, [r7], #464	; 0x1d0
    12e8:	25f425f7 	ldrbcs	r2, [r4, #1527]!	; 0x5f7
    12ec:	cccccd08 	stclgt	13, cr12, [ip], {8}
    12f0:	000000cc 	andeq	r0, r0, ip, asr #1
    12f4:	20081e00 	andcs	r1, r8, r0, lsl #28
    12f8:	f72525f7 			; <UNDEFINED> instruction: 0xf72525f7
    12fc:	9f25332c 	svcls	0x0025332c
    1300:	000001dc 	ldrdeq	r0, [r0], -ip
    1304:	000001e0 	andeq	r0, r0, r0, ror #3
    1308:	00740017 	rsbseq	r0, r4, r7, lsl r0
    130c:	25f72cf7 	ldrbcs	r2, [r7, #3319]!	; 0xcf7
    1310:	2cf70071 	ldclcs	0, cr0, [r7], #452	; 0x1c4
    1314:	081e25f7 	ldmdaeq	lr, {r0, r1, r2, r4, r5, r6, r7, r8, sl, sp}
    1318:	2525f720 	strcs	pc, [r5, #-1824]!	; 0x720
    131c:	25332cf7 	ldrcs	r2, [r3, #-3319]!	; 0xcf7
    1320:	0001e09f 	muleq	r1, pc, r0	; <UNPREDICTABLE>
    1324:	00021000 	andeq	r1, r2, r0
    1328:	74001c00 	strvc	r1, [r0], #-3072	; 0xc00
    132c:	f72cf700 			; <UNDEFINED> instruction: 0xf72cf700
    1330:	0825f425 	stmdaeq	r5!, {r0, r2, r5, sl, ip, sp, lr, pc}
    1334:	cccccccd 	stclgt	12, cr12, [ip], {205}	; 0xcd
    1338:	00000000 	andeq	r0, r0, r0
    133c:	f720081e 			; <UNDEFINED> instruction: 0xf720081e
    1340:	2cf72525 	cfldr64cs	mvdx2, [r7], #148	; 0x94
    1344:	009f2533 	addseq	r2, pc, r3, lsr r5	; <UNPREDICTABLE>
    1348:	00000000 	andeq	r0, r0, r0
    134c:	d8000000 	stmdale	r0, {}	; <UNPREDICTABLE>
    1350:	fc000001 	stc2	0, cr0, [r0], {1}
    1354:	01000001 	tsteq	r0, r1
    1358:	01fc5000 	mvnseq	r5, r0
    135c:	02030000 	andeq	r0, r3, #0
    1360:	00010000 	andeq	r0, r1, r0
    1364:	00000051 	andeq	r0, r0, r1, asr r0
    1368:	00000000 	andeq	r0, r0, r0
    136c:	00021000 	andeq	r1, r2, r0
    1370:	00022c00 	andeq	r2, r2, r0, lsl #24
    1374:	50000100 	andpl	r0, r0, r0, lsl #2
    1378:	0000022c 	andeq	r0, r0, ip, lsr #4
    137c:	00000234 	andeq	r0, r0, r4, lsr r2
    1380:	34540001 	ldrbcc	r0, [r4], #-1
    1384:	3c000002 	stccc	0, cr0, [r0], {2}
    1388:	01000002 	tsteq	r0, r2
    138c:	023c5000 	eorseq	r5, ip, #0
    1390:	02440000 	subeq	r0, r4, #0
    1394:	00010000 	andeq	r0, r1, r0
    1398:	00024454 	andeq	r4, r2, r4, asr r4
    139c:	00025000 	andeq	r5, r2, r0
    13a0:	f3000400 	vshl.u8	d0, d0, d0
    13a4:	509f5001 	addspl	r5, pc, r1
    13a8:	54000002 	strpl	r0, [r0], #-2
    13ac:	01000002 	tsteq	r0, r2
    13b0:	02545000 	subseq	r5, r4, #0
    13b4:	025c0000 	subseq	r0, ip, #0
    13b8:	00010000 	andeq	r0, r1, r0
    13bc:	00000054 	andeq	r0, r0, r4, asr r0
    13c0:	00000000 	andeq	r0, r0, r0
    13c4:	00022000 	andeq	r2, r2, r0
    13c8:	00023000 	andeq	r3, r2, r0
    13cc:	30000200 	andcc	r0, r0, r0, lsl #4
    13d0:	0002309f 	muleq	r2, pc, r0	; <UNPREDICTABLE>
    13d4:	00023400 	andeq	r3, r2, r0, lsl #8
    13d8:	50000100 	andpl	r0, r0, r0, lsl #2
    13dc:	00000234 	andeq	r0, r0, r4, lsr r2
    13e0:	00000240 	andeq	r0, r0, r0, asr #4
    13e4:	9f300002 	svcls	0x00300002
    13e8:	00000240 	andeq	r0, r0, r0, asr #4
    13ec:	0000024c 	andeq	r0, r0, ip, asr #4
    13f0:	00500001 	subseq	r0, r0, r1
    13f4:	00000000 	andeq	r0, r0, r0
    13f8:	5c000000 	stcpl	0, cr0, [r0], {-0}
    13fc:	73000002 	movwvc	r0, #2
    1400:	01000002 	tsteq	r0, r2
    1404:	02735000 	rsbseq	r5, r3, #0
    1408:	02780000 	rsbseq	r0, r8, #0
    140c:	00040000 	andeq	r0, r4, r0
    1410:	9f5001f3 	svcls	0x005001f3
    1414:	00000278 	andeq	r0, r0, r8, ror r2
    1418:	0000027b 	andeq	r0, r0, fp, ror r2
    141c:	7b500001 	blvc	1401428 <__bss_end__+0x13f7498>
    1420:	80000002 	andhi	r0, r0, r2
    1424:	04000002 	streq	r0, [r0], #-2
    1428:	5001f300 	andpl	pc, r1, r0, lsl #6
    142c:	0000009f 	muleq	r0, pc, r0	; <UNPREDICTABLE>
    1430:	00000000 	andeq	r0, r0, r0
    1434:	00025c00 	andeq	r5, r2, r0, lsl #24
    1438:	00027300 	andeq	r7, r2, r0, lsl #6
    143c:	51000100 	mrspl	r0, (UNDEF: 16)
    1440:	00000273 	andeq	r0, r0, r3, ror r2
    1444:	00000278 	andeq	r0, r0, r8, ror r2
    1448:	01f30004 	mvnseq	r0, r4
    144c:	02789f51 	rsbseq	r9, r8, #324	; 0x144
    1450:	027b0000 	rsbseq	r0, fp, #0
    1454:	00010000 	andeq	r0, r1, r0
    1458:	00027b51 	andeq	r7, r2, r1, asr fp
    145c:	00028000 	andeq	r8, r2, r0
    1460:	f3000400 	vshl.u8	d0, d0, d0
    1464:	009f5101 	addseq	r5, pc, r1, lsl #2
    1468:	00000000 	andeq	r0, r0, r0
    146c:	80000000 	andhi	r0, r0, r0
    1470:	18000002 	stmdane	r0, {r1}
    1474:	01000003 	tsteq	r0, r3
    1478:	03185000 	tsteq	r8, #0
    147c:	03580000 	cmpeq	r8, #0
    1480:	00010000 	andeq	r0, r1, r0
    1484:	00000054 	andeq	r0, r0, r4, asr r0
    1488:	00000000 	andeq	r0, r0, r0
    148c:	00028000 	andeq	r8, r2, r0
    1490:	00031b00 	andeq	r1, r3, r0, lsl #22
    1494:	51000100 	mrspl	r0, (UNDEF: 16)
    1498:	0000031b 	andeq	r0, r0, fp, lsl r3
    149c:	00000358 	andeq	r0, r0, r8, asr r3
    14a0:	01f30004 	mvnseq	r0, r4
    14a4:	00009f51 	andeq	r9, r0, r1, asr pc
    14a8:	00000000 	andeq	r0, r0, r0
    14ac:	02d00000 	sbcseq	r0, r0, #0
    14b0:	02d40000 	sbcseq	r0, r4, #0
    14b4:	00010000 	andeq	r0, r1, r0
    14b8:	0002dc56 	andeq	sp, r2, r6, asr ip
    14bc:	0002e000 	andeq	lr, r2, r0
    14c0:	56000100 	strpl	r0, [r0], -r0, lsl #2
    14c4:	000002e8 	andeq	r0, r0, r8, ror #5
    14c8:	000002ec 	andeq	r0, r0, ip, ror #5
    14cc:	f4560001 			; <UNDEFINED> instruction: 0xf4560001
    14d0:	f8000002 			; <UNDEFINED> instruction: 0xf8000002
    14d4:	01000002 	tsteq	r0, r2
    14d8:	03005600 	movweq	r5, #1536	; 0x600
    14dc:	03040000 	movweq	r0, #16384	; 0x4000
    14e0:	00010000 	andeq	r0, r1, r0
    14e4:	00030c56 	andeq	r0, r3, r6, asr ip
    14e8:	00031000 	andeq	r1, r3, r0
    14ec:	56000100 	strpl	r0, [r0], -r0, lsl #2
    14f0:	00000314 	andeq	r0, r0, r4, lsl r3
    14f4:	00000358 	andeq	r0, r0, r8, asr r3
    14f8:	00560001 	subseq	r0, r6, r1
    14fc:	00000000 	andeq	r0, r0, r0
    1500:	a4000000 	strge	r0, [r0], #-0
    1504:	cc000002 	stcgt	0, cr0, [r0], {2}
    1508:	01000002 	tsteq	r0, r2
    150c:	02cc5300 	sbceq	r5, ip, #0, 6
    1510:	02d40000 	sbcseq	r0, r4, #0
    1514:	001c0000 	andseq	r0, ip, r0
    1518:	2cf70070 	ldclcs	0, cr0, [r7], #448	; 0x1c0
    151c:	25f425f7 	ldrbcs	r2, [r4, #1527]!	; 0x5f7
    1520:	cccccd08 	stclgt	13, cr12, [ip], {8}
    1524:	000000cc 	andeq	r0, r0, ip, asr #1
    1528:	20081e00 	andcs	r1, r8, r0, lsl #28
    152c:	f72525f7 			; <UNDEFINED> instruction: 0xf72525f7
    1530:	9f25332c 	svcls	0x0025332c
    1534:	000002d4 	ldrdeq	r0, [r0], -r4
    1538:	000002d8 	ldrdeq	r0, [r0], -r8
    153c:	d8530001 	ldmdale	r3, {r0}^
    1540:	e0000002 	and	r0, r0, r2
    1544:	1c000002 	stcne	0, cr0, [r0], {2}
    1548:	f7007000 			; <UNDEFINED> instruction: 0xf7007000
    154c:	f425f72c 	vld1.8	{d15}, [r5 :128], ip
    1550:	cccd0825 	stclgt	8, cr0, [sp], {37}	; 0x25
    1554:	0000cccc 	andeq	ip, r0, ip, asr #25
    1558:	081e0000 	ldmdaeq	lr, {}	; <UNPREDICTABLE>
    155c:	2525f720 	strcs	pc, [r5, #-1824]!	; 0x720
    1560:	25332cf7 	ldrcs	r2, [r3, #-3319]!	; 0xcf7
    1564:	0002e09f 	muleq	r2, pc, r0	; <UNPREDICTABLE>
    1568:	0002e400 	andeq	lr, r2, r0, lsl #8
    156c:	53000100 	movwpl	r0, #256	; 0x100
    1570:	000002e4 	andeq	r0, r0, r4, ror #5
    1574:	000002ec 	andeq	r0, r0, ip, ror #5
    1578:	0070001c 	rsbseq	r0, r0, ip, lsl r0
    157c:	25f72cf7 	ldrbcs	r2, [r7, #3319]!	; 0xcf7
    1580:	cd0825f4 	cfstr32gt	mvfx2, [r8, #-976]	; 0xfffffc30
    1584:	00cccccc 	sbceq	ip, ip, ip, asr #25
    1588:	1e000000 	cdpne	0, 0, cr0, cr0, cr0, {0}
    158c:	25f72008 	ldrbcs	r2, [r7, #8]!
    1590:	332cf725 	msrcc	CPSR_fs, #9699328	; 0x940000
    1594:	02ec9f25 	rsceq	r9, ip, #37, 30	; 0x94
    1598:	02f00000 	rscseq	r0, r0, #0
    159c:	00010000 	andeq	r0, r1, r0
    15a0:	0002f053 	andeq	pc, r2, r3, asr r0	; <UNPREDICTABLE>
    15a4:	0002f800 	andeq	pc, r2, r0, lsl #16
    15a8:	70001c00 	andvc	r1, r0, r0, lsl #24
    15ac:	f72cf700 			; <UNDEFINED> instruction: 0xf72cf700
    15b0:	0825f425 	stmdaeq	r5!, {r0, r2, r5, sl, ip, sp, lr, pc}
    15b4:	cccccccd 	stclgt	12, cr12, [ip], {205}	; 0xcd
    15b8:	00000000 	andeq	r0, r0, r0
    15bc:	f720081e 			; <UNDEFINED> instruction: 0xf720081e
    15c0:	2cf72525 	cfldr64cs	mvdx2, [r7], #148	; 0x94
    15c4:	f89f2533 			; <UNDEFINED> instruction: 0xf89f2533
    15c8:	fc000002 	stc2	0, cr0, [r0], {2}
    15cc:	01000002 	tsteq	r0, r2
    15d0:	02fc5300 	rscseq	r5, ip, #0, 6
    15d4:	03040000 	movweq	r0, #16384	; 0x4000
    15d8:	001c0000 	andseq	r0, ip, r0
    15dc:	2cf70070 	ldclcs	0, cr0, [r7], #448	; 0x1c0
    15e0:	25f425f7 	ldrbcs	r2, [r4, #1527]!	; 0x5f7
    15e4:	cccccd08 	stclgt	13, cr12, [ip], {8}
    15e8:	000000cc 	andeq	r0, r0, ip, asr #1
    15ec:	20081e00 	andcs	r1, r8, r0, lsl #28
    15f0:	f72525f7 			; <UNDEFINED> instruction: 0xf72525f7
    15f4:	9f25332c 	svcls	0x0025332c
    15f8:	00000304 	andeq	r0, r0, r4, lsl #6
    15fc:	00000308 	andeq	r0, r0, r8, lsl #6
    1600:	08530001 	ldmdaeq	r3, {r0}^
    1604:	10000003 	andne	r0, r0, r3
    1608:	1c000003 	stcne	0, cr0, [r0], {3}
    160c:	f7007000 			; <UNDEFINED> instruction: 0xf7007000
    1610:	f425f72c 	vld1.8	{d15}, [r5 :128], ip
    1614:	cccd0825 	stclgt	8, cr0, [sp], {37}	; 0x25
    1618:	0000cccc 	andeq	ip, r0, ip, asr #25
    161c:	081e0000 	ldmdaeq	lr, {}	; <UNPREDICTABLE>
    1620:	2525f720 	strcs	pc, [r5, #-1824]!	; 0x720
    1624:	25332cf7 	ldrcs	r2, [r3, #-3319]!	; 0xcf7
    1628:	0003109f 	muleq	r3, pc, r0	; <UNPREDICTABLE>
    162c:	00031400 	andeq	r1, r3, r0, lsl #8
    1630:	53000100 	movwpl	r0, #256	; 0x100
    1634:	00000314 	andeq	r0, r0, r4, lsl r3
    1638:	00000318 	andeq	r0, r0, r8, lsl r3
    163c:	0070001c 	rsbseq	r0, r0, ip, lsl r0
    1640:	25f72cf7 	ldrbcs	r2, [r7, #3319]!	; 0xcf7
    1644:	cd0825f4 	cfstr32gt	mvfx2, [r8, #-976]	; 0xfffffc30
    1648:	00cccccc 	sbceq	ip, ip, ip, asr #25
    164c:	1e000000 	cdpne	0, 0, cr0, cr0, cr0, {0}
    1650:	25f72008 	ldrbcs	r2, [r7, #8]!
    1654:	332cf725 	msrcc	CPSR_fs, #9699328	; 0x940000
    1658:	03189f25 	tsteq	r8, #37, 30	; 0x94
    165c:	03200000 	teqeq	r0, #0
    1660:	001c0000 	andseq	r0, ip, r0
    1664:	2cf70074 	ldclcs	0, cr0, [r7], #464	; 0x1d0
    1668:	25f425f7 	ldrbcs	r2, [r4, #1527]!	; 0x5f7
    166c:	cccccd08 	stclgt	13, cr12, [ip], {8}
    1670:	000000cc 	andeq	r0, r0, ip, asr #1
    1674:	20081e00 	andcs	r1, r8, r0, lsl #28
    1678:	f72525f7 			; <UNDEFINED> instruction: 0xf72525f7
    167c:	9f25332c 	svcls	0x0025332c
    1680:	00000320 	andeq	r0, r0, r0, lsr #6
    1684:	00000324 	andeq	r0, r0, r4, lsr #6
    1688:	00740017 	rsbseq	r0, r4, r7, lsl r0
    168c:	25f72cf7 	ldrbcs	r2, [r7, #3319]!	; 0xcf7
    1690:	2cf70073 	ldclcs	0, cr0, [r7], #460	; 0x1cc
    1694:	081e25f7 	ldmdaeq	lr, {r0, r1, r2, r4, r5, r6, r7, r8, sl, sp}
    1698:	2525f720 	strcs	pc, [r5, #-1824]!	; 0x720
    169c:	25332cf7 	ldrcs	r2, [r3, #-3319]!	; 0xcf7
    16a0:	0003249f 	muleq	r3, pc, r4	; <UNPREDICTABLE>
    16a4:	00035800 	andeq	r5, r3, r0, lsl #16
    16a8:	74001c00 	strvc	r1, [r0], #-3072	; 0xc00
    16ac:	f72cf700 			; <UNDEFINED> instruction: 0xf72cf700
    16b0:	0825f425 	stmdaeq	r5!, {r0, r2, r5, sl, ip, sp, lr, pc}
    16b4:	cccccccd 	stclgt	12, cr12, [ip], {205}	; 0xcd
    16b8:	00000000 	andeq	r0, r0, r0
    16bc:	f720081e 			; <UNDEFINED> instruction: 0xf720081e
    16c0:	2cf72525 	cfldr64cs	mvdx2, [r7], #148	; 0x94
    16c4:	009f2533 	addseq	r2, pc, r3, lsr r5	; <UNPREDICTABLE>
    16c8:	00000000 	andeq	r0, r0, r0
    16cc:	1c000000 	stcne	0, cr0, [r0], {-0}
    16d0:	40000003 	andmi	r0, r0, r3
    16d4:	01000003 	tsteq	r0, r3
    16d8:	03405000 	movteq	r5, #0
    16dc:	03480000 	movteq	r0, #32768	; 0x8000
    16e0:	00090000 	andeq	r0, r9, r0
    16e4:	00730075 	rsbseq	r0, r3, r5, ror r0
    16e8:	21007124 	tstcs	r0, r4, lsr #2
    16ec:	0003489f 	muleq	r3, pc, r8	; <UNPREDICTABLE>
    16f0:	00034b00 	andeq	r4, r3, r0, lsl #22
    16f4:	51000100 	mrspl	r0, (UNDEF: 16)
	...
    1700:	00000358 	andeq	r0, r0, r8, asr r3
    1704:	0000037c 	andeq	r0, r0, ip, ror r3
    1708:	7c500001 	mrrcvc	0, 0, r0, r0, cr1	; <UNPREDICTABLE>
    170c:	90000003 	andls	r0, r0, r3
    1710:	04000003 	streq	r0, [r0], #-3
    1714:	5001f300 	andpl	pc, r1, r0, lsl #6
    1718:	0000009f 	muleq	r0, pc, r0	; <UNPREDICTABLE>
    171c:	00000000 	andeq	r0, r0, r0
    1720:	00036400 	andeq	r6, r3, r0, lsl #8
    1724:	00036c00 	andeq	r6, r3, r0, lsl #24
    1728:	30000200 	andcc	r0, r0, r0, lsl #4
    172c:	00036c9f 	muleq	r3, pc, ip	; <UNPREDICTABLE>
    1730:	00036c00 	andeq	r6, r3, r0, lsl #24
    1734:	52000100 	andpl	r0, r0, #0, 2
    1738:	0000036c 	andeq	r0, r0, ip, ror #6
    173c:	00000374 	andeq	r0, r0, r4, ror r3
    1740:	9f300002 	svcls	0x00300002
    1744:	00000374 	andeq	r0, r0, r4, ror r3
    1748:	00000387 	andeq	r0, r0, r7, lsl #7
    174c:	00520001 	subseq	r0, r2, r1
    1750:	00000000 	andeq	r0, r0, r0
    1754:	64000000 	strvs	r0, [r0], #-0
    1758:	78000003 	stmdavc	r0, {r0, r1}
    175c:	02000003 	andeq	r0, r0, #3
    1760:	789f3000 	ldmvc	pc, {ip, sp}	; <UNPREDICTABLE>
    1764:	84000003 	strhi	r0, [r0], #-3
    1768:	05000003 	streq	r0, [r0, #-3]
    176c:	00733100 	rsbseq	r3, r3, r0, lsl #2
    1770:	03849f24 	orreq	r9, r4, #36, 30	; 0x90
    1774:	03870000 	orreq	r0, r7, #0
    1778:	00010000 	andeq	r0, r1, r0
    177c:	00038751 	andeq	r8, r3, r1, asr r7
    1780:	00039000 	andeq	r9, r3, r0
    1784:	31000800 	tstcc	r0, r0, lsl #16
    1788:	4f5001f3 	svcmi	0x005001f3
    178c:	009f241a 	addseq	r2, pc, sl, lsl r4	; <UNPREDICTABLE>
    1790:	00000000 	andeq	r0, r0, r0
    1794:	90000000 	andls	r0, r0, r0
    1798:	9c000003 	stcls	0, cr0, [r0], {3}
    179c:	01000003 	tsteq	r0, r3
    17a0:	039c5000 	orrseq	r5, ip, #0
    17a4:	03bc0000 			; <UNDEFINED> instruction: 0x03bc0000
    17a8:	00040000 	andeq	r0, r4, r0
    17ac:	9f5001f3 	svcls	0x005001f3
	...
    17b8:	000003bc 			; <UNDEFINED> instruction: 0x000003bc
    17bc:	000003cf 	andeq	r0, r0, pc, asr #7
    17c0:	cf500001 	svcgt	0x00500001
    17c4:	08000003 	stmdaeq	r0, {r0, r1}
    17c8:	01000004 	tsteq	r0, r4
    17cc:	04085400 	streq	r5, [r8], #-1024	; 0x400
    17d0:	04400000 	strbeq	r0, [r0], #-0
    17d4:	00040000 	andeq	r0, r4, r0
    17d8:	9f5001f3 	svcls	0x005001f3
	...
    17e4:	00000428 	andeq	r0, r0, r8, lsr #8
    17e8:	0000042c 	andeq	r0, r0, ip, lsr #8
    17ec:	2c500001 	mrrccs	0, 0, r0, r0, cr1	; <UNPREDICTABLE>
    17f0:	33000004 	movwcc	r0, #4
    17f4:	01000004 	tsteq	r0, r4
    17f8:	00005100 	andeq	r5, r0, r0, lsl #2
    17fc:	00000000 	andeq	r0, r0, r0
    1800:	03e40000 	mvneq	r0, #0
    1804:	03ec0000 	mvneq	r0, #0
    1808:	00010000 	andeq	r0, r1, r0
    180c:	0003ec50 	andeq	lr, r3, r0, asr ip
    1810:	0003f300 	andeq	pc, r3, r0, lsl #6
    1814:	51000100 	mrspl	r0, (UNDEF: 16)
	...
    1820:	00000404 	andeq	r0, r0, r4, lsl #8
    1824:	00000410 	andeq	r0, r0, r0, lsl r4
    1828:	10500001 	subsne	r0, r0, r1
    182c:	17000004 	strne	r0, [r0, -r4]
    1830:	01000004 	tsteq	r0, r4
    1834:	00005100 	andeq	r5, r0, r0, lsl #2
    1838:	00000000 	andeq	r0, r0, r0
    183c:	04400000 	strbeq	r0, [r0], #-0
    1840:	04530000 	ldrbeq	r0, [r3], #-0
    1844:	00010000 	andeq	r0, r1, r0
    1848:	00045350 	andeq	r5, r4, r0, asr r3
    184c:	00048c00 	andeq	r8, r4, r0, lsl #24
    1850:	54000100 	strpl	r0, [r0], #-256	; 0x100
    1854:	0000048c 	andeq	r0, r0, ip, lsl #9
    1858:	000004c4 	andeq	r0, r0, r4, asr #9
    185c:	01f30004 	mvnseq	r0, r4
    1860:	00009f50 	andeq	r9, r0, r0, asr pc
    1864:	00000000 	andeq	r0, r0, r0
    1868:	04ac0000 	strteq	r0, [ip], #0
    186c:	04b00000 	ldrteq	r0, [r0], #0
    1870:	00010000 	andeq	r0, r1, r0
    1874:	0004b050 	andeq	fp, r4, r0, asr r0
    1878:	0004b700 	andeq	fp, r4, r0, lsl #14
    187c:	51000100 	mrspl	r0, (UNDEF: 16)
	...
    1888:	00000468 	andeq	r0, r0, r8, ror #8
    188c:	00000470 	andeq	r0, r0, r0, ror r4
    1890:	70500001 	subsvc	r0, r0, r1
    1894:	77000004 	strvc	r0, [r0, -r4]
    1898:	01000004 	tsteq	r0, r4
    189c:	00005100 	andeq	r5, r0, r0, lsl #2
    18a0:	00000000 	andeq	r0, r0, r0
    18a4:	04880000 	streq	r0, [r8], #0
    18a8:	04940000 	ldreq	r0, [r4], #0
    18ac:	00010000 	andeq	r0, r1, r0
    18b0:	00049450 	andeq	r9, r4, r0, asr r4
    18b4:	00049b00 	andeq	r9, r4, r0, lsl #22
    18b8:	51000100 	mrspl	r0, (UNDEF: 16)
	...
    18c4:	000004c4 	andeq	r0, r0, r4, asr #9
    18c8:	000004d7 	ldrdeq	r0, [r0], -r7
    18cc:	d7500001 	ldrble	r0, [r0, -r1]
    18d0:	18000004 	stmdane	r0, {r2}
    18d4:	01000005 	tsteq	r0, r5
    18d8:	05185400 	ldreq	r5, [r8, #-1024]	; 0x400
    18dc:	053c0000 	ldreq	r0, [ip, #-0]!
    18e0:	00040000 	andeq	r0, r4, r0
    18e4:	9f5001f3 	svcls	0x005001f3
    18e8:	0000053c 	andeq	r0, r0, ip, lsr r5
    18ec:	00000540 	andeq	r0, r0, r0, asr #10
    18f0:	40500001 	subsmi	r0, r0, r1
    18f4:	48000005 	stmdami	r0, {r0, r2}
    18f8:	01000005 	tsteq	r0, r5
    18fc:	00005400 	andeq	r5, r0, r0, lsl #8
    1900:	00000000 	andeq	r0, r0, r0
    1904:	04ec0000 	strbteq	r0, [ip], #0
    1908:	04fb0000 	ldrbteq	r0, [fp], #0
    190c:	00080000 	andeq	r0, r8, r0
    1910:	24007431 	strcs	r7, [r0], #-1073	; 0x431
    1914:	9f1a0070 	svcls	0x001a0070
	...
    1920:	00000518 	andeq	r0, r0, r8, lsl r5
    1924:	00000530 	andeq	r0, r0, r0, lsr r5
    1928:	00540001 	subseq	r0, r4, r1
    192c:	00000000 	andeq	r0, r0, r0
    1930:	48000000 	stmdami	r0, {}	; <UNPREDICTABLE>
    1934:	5b000005 	blpl	1950 <_start-0x66b0>
    1938:	01000005 	tsteq	r0, r5
    193c:	055b5000 	ldrbeq	r5, [fp, #-0]
    1940:	05800000 	streq	r0, [r0]
    1944:	00010000 	andeq	r0, r1, r0
    1948:	00058054 	andeq	r8, r5, r4, asr r0
    194c:	0005a000 	andeq	sl, r5, r0
    1950:	f3000400 	vshl.u8	d0, d0, d0
    1954:	009f5001 	addseq	r5, pc, r1
	...
    1960:	18000000 	stmdane	r0, {}	; <UNPREDICTABLE>
    1964:	01000000 	mrseq	r0, (UNDEF: 0)
    1968:	00185000 	andseq	r5, r8, r0
    196c:	01540000 	cmpeq	r4, r0
    1970:	00040000 	andeq	r0, r4, r0
    1974:	9f5001f3 	svcls	0x005001f3
	...
    1984:	0000001c 	andeq	r0, r0, ip, lsl r0
    1988:	1c510001 	mrrcne	0, 0, r0, r1, cr1
    198c:	54000000 	strpl	r0, [r0], #-0
    1990:	04000001 	streq	r0, [r0], #-1
    1994:	5101f300 	mrspl	pc, SP_irq	; <UNPREDICTABLE>
    1998:	0000009f 	muleq	r0, pc, r0	; <UNPREDICTABLE>
    199c:	00000000 	andeq	r0, r0, r0
    19a0:	00001000 	andeq	r1, r0, r0
    19a4:	00013400 	andeq	r3, r1, r0, lsl #8
    19a8:	55000100 	strpl	r0, [r0, #-256]	; 0x100
	...
    19b4:	00000010 	andeq	r0, r0, r0, lsl r0
    19b8:	00000034 	andeq	r0, r0, r4, lsr r0
    19bc:	34550001 	ldrbcc	r0, [r5], #-1
    19c0:	34000000 	strcc	r0, [r0], #-0
    19c4:	01000001 	tsteq	r0, r1
    19c8:	01345800 	teqeq	r4, r0, lsl #16
    19cc:	01540000 	cmpeq	r4, r0
    19d0:	00010000 	andeq	r0, r1, r0
    19d4:	00000055 	andeq	r0, r0, r5, asr r0
    19d8:	00000000 	andeq	r0, r0, r0
    19dc:	00001400 	andeq	r1, r0, r0, lsl #8
    19e0:	00013400 	andeq	r3, r1, r0, lsl #8
    19e4:	55000100 	strpl	r0, [r0, #-256]	; 0x100
	...
    19f0:	00000020 	andeq	r0, r0, r0, lsr #32
    19f4:	00000134 	andeq	r0, r0, r4, lsr r1
    19f8:	00550001 	subseq	r0, r5, r1
    19fc:	00000000 	andeq	r0, r0, r0
    1a00:	24000000 	strcs	r0, [r0], #-0
    1a04:	28000000 	stmdacs	r0, {}	; <UNPREDICTABLE>
    1a08:	01000000 	mrseq	r0, (UNDEF: 0)
    1a0c:	00005300 	andeq	r5, r0, r0, lsl #6
    1a10:	00000000 	andeq	r0, r0, r0
    1a14:	00340000 	eorseq	r0, r4, r0
    1a18:	00540000 	subseq	r0, r4, r0
    1a1c:	00010000 	andeq	r0, r1, r0
    1a20:	00005458 	andeq	r5, r0, r8, asr r4
    1a24:	00013400 	andeq	r3, r1, r0, lsl #8
    1a28:	75000500 	strvc	r0, [r0, #-1280]	; 0x500
    1a2c:	9f243100 	svcls	0x00243100
	...
    1a38:	00000034 	andeq	r0, r0, r4, lsr r0
    1a3c:	0000003c 	andeq	r0, r0, ip, lsr r0
    1a40:	00770005 	rsbseq	r0, r7, r5
    1a44:	3c9f1a31 	vldmiacc	pc, {s2-s50}
    1a48:	3f000000 	svccc	0x00000000
    1a4c:	01000000 	mrseq	r0, (UNDEF: 0)
    1a50:	003f5100 	eorseq	r5, pc, r0, lsl #2
    1a54:	01540000 	cmpeq	r4, r0
    1a58:	00050000 	andeq	r0, r5, r0
    1a5c:	1a310077 	bne	c41c40 <__bss_end__+0xc37cb0>
    1a60:	0000009f 	muleq	r0, pc, r0	; <UNPREDICTABLE>
    1a64:	00000000 	andeq	r0, r0, r0
    1a68:	00004000 	andeq	r4, r0, r0
    1a6c:	00005400 	andeq	r5, r0, r0, lsl #8
    1a70:	58000100 	stmdapl	r0, {r8}
    1a74:	00000054 	andeq	r0, r0, r4, asr r0
    1a78:	00000134 	andeq	r0, r0, r4, lsr r1
    1a7c:	00750005 	rsbseq	r0, r5, r5
    1a80:	009f2431 	addseq	r2, pc, r1, lsr r4	; <UNPREDICTABLE>
    1a84:	00000000 	andeq	r0, r0, r0
    1a88:	44000000 	strmi	r0, [r0], #-0
    1a8c:	48000000 	stmdami	r0, {}	; <UNPREDICTABLE>
    1a90:	01000000 	mrseq	r0, (UNDEF: 0)
    1a94:	00005300 	andeq	r5, r0, r0, lsl #6
    1a98:	00000000 	andeq	r0, r0, r0
    1a9c:	00540000 	subseq	r0, r4, r0
    1aa0:	00740000 	rsbseq	r0, r4, r0
    1aa4:	00010000 	andeq	r0, r1, r0
    1aa8:	00007458 	andeq	r7, r0, r8, asr r4
    1aac:	00013400 	andeq	r3, r1, r0, lsl #8
    1ab0:	75000800 	strvc	r0, [r0, #-2048]	; 0x800
    1ab4:	75243100 	strvc	r3, [r4, #-256]!	; 0x100
    1ab8:	009f2200 	addseq	r2, pc, r0, lsl #4
    1abc:	00000000 	andeq	r0, r0, r0
    1ac0:	60000000 	andvs	r0, r0, r0
    1ac4:	74000000 	strvc	r0, [r0], #-0
    1ac8:	01000000 	mrseq	r0, (UNDEF: 0)
    1acc:	00745800 	rsbseq	r5, r4, r0, lsl #16
    1ad0:	01340000 	teqeq	r4, r0
    1ad4:	00080000 	andeq	r0, r8, r0
    1ad8:	24310075 	ldrtcs	r0, [r1], #-117	; 0x75
    1adc:	9f220075 	svcls	0x00220075
	...
    1ae8:	00000064 	andeq	r0, r0, r4, rrx
    1aec:	00000068 	andeq	r0, r0, r8, rrx
    1af0:	00530001 	subseq	r0, r3, r1
    1af4:	00000000 	andeq	r0, r0, r0
    1af8:	74000000 	strvc	r0, [r0], #-0
    1afc:	94000000 	strls	r0, [r0], #-0
    1b00:	01000000 	mrseq	r0, (UNDEF: 0)
    1b04:	00945800 	addseq	r5, r4, r0, lsl #16
    1b08:	01340000 	teqeq	r4, r0
    1b0c:	00050000 	andeq	r0, r5, r0
    1b10:	24320075 	ldrtcs	r0, [r2], #-117	; 0x75
    1b14:	0000009f 	muleq	r0, pc, r0	; <UNPREDICTABLE>
    1b18:	00000000 	andeq	r0, r0, r0
    1b1c:	00008000 	andeq	r8, r0, r0
    1b20:	00009400 	andeq	r9, r0, r0, lsl #8
    1b24:	58000100 	stmdapl	r0, {r8}
    1b28:	00000094 	muleq	r0, r4, r0
    1b2c:	00000134 	andeq	r0, r0, r4, lsr r1
    1b30:	00750005 	rsbseq	r0, r5, r5
    1b34:	009f2432 	addseq	r2, pc, r2, lsr r4	; <UNPREDICTABLE>
    1b38:	00000000 	andeq	r0, r0, r0
    1b3c:	84000000 	strhi	r0, [r0], #-0
    1b40:	88000000 	stmdahi	r0, {}	; <UNPREDICTABLE>
    1b44:	01000000 	mrseq	r0, (UNDEF: 0)
    1b48:	00005300 	andeq	r5, r0, r0, lsl #6
    1b4c:	00000000 	andeq	r0, r0, r0
    1b50:	00940000 	addseq	r0, r4, r0
    1b54:	00b40000 	adcseq	r0, r4, r0
    1b58:	00010000 	andeq	r0, r1, r0
    1b5c:	0000b458 	andeq	fp, r0, r8, asr r4
    1b60:	00013400 	andeq	r3, r1, r0, lsl #8
    1b64:	75000800 	strvc	r0, [r0, #-2048]	; 0x800
    1b68:	75243200 	strvc	r3, [r4, #-512]!	; 0x200
    1b6c:	009f2200 	addseq	r2, pc, r0, lsl #4
    1b70:	00000000 	andeq	r0, r0, r0
    1b74:	a0000000 	andge	r0, r0, r0
    1b78:	b4000000 	strlt	r0, [r0], #-0
    1b7c:	01000000 	mrseq	r0, (UNDEF: 0)
    1b80:	00b45800 	adcseq	r5, r4, r0, lsl #16
    1b84:	01340000 	teqeq	r4, r0
    1b88:	00080000 	andeq	r0, r8, r0
    1b8c:	24320075 	ldrtcs	r0, [r2], #-117	; 0x75
    1b90:	9f220075 	svcls	0x00220075
	...
    1b9c:	000000a4 	andeq	r0, r0, r4, lsr #1
    1ba0:	000000a8 	andeq	r0, r0, r8, lsr #1
    1ba4:	00530001 	subseq	r0, r3, r1
    1ba8:	00000000 	andeq	r0, r0, r0
    1bac:	b4000000 	strlt	r0, [r0], #-0
    1bb0:	d4000000 	strle	r0, [r0], #-0
    1bb4:	01000000 	mrseq	r0, (UNDEF: 0)
    1bb8:	00d45800 	sbcseq	r5, r4, r0, lsl #16
    1bbc:	01340000 	teqeq	r4, r0
    1bc0:	000a0000 	andeq	r0, sl, r0
    1bc4:	24320075 	ldrtcs	r0, [r2], #-117	; 0x75
    1bc8:	24310075 	ldrtcs	r0, [r1], #-117	; 0x75
    1bcc:	00009f22 	andeq	r9, r0, r2, lsr #30
    1bd0:	00000000 	andeq	r0, r0, r0
    1bd4:	00c00000 	sbceq	r0, r0, r0
    1bd8:	00d40000 	sbcseq	r0, r4, r0
    1bdc:	00010000 	andeq	r0, r1, r0
    1be0:	0000d458 	andeq	sp, r0, r8, asr r4
    1be4:	00013400 	andeq	r3, r1, r0, lsl #8
    1be8:	75000a00 	strvc	r0, [r0, #-2560]	; 0xa00
    1bec:	75243200 	strvc	r3, [r4, #-512]!	; 0x200
    1bf0:	22243100 	eorcs	r3, r4, #0, 2
    1bf4:	0000009f 	muleq	r0, pc, r0	; <UNPREDICTABLE>
    1bf8:	00000000 	andeq	r0, r0, r0
    1bfc:	0000c400 	andeq	ip, r0, r0, lsl #8
    1c00:	0000c800 	andeq	ip, r0, r0, lsl #16
    1c04:	53000100 	movwpl	r0, #256	; 0x100
	...
    1c10:	000000d4 	ldrdeq	r0, [r0], -r4
    1c14:	000000f4 	strdeq	r0, [r0], -r4
    1c18:	f4580001 			; <UNDEFINED> instruction: 0xf4580001
    1c1c:	34000000 	strcc	r0, [r0], #-0
    1c20:	0d000001 	stceq	0, cr0, [r0, #-4]
    1c24:	32007500 	andcc	r7, r0, #0, 10
    1c28:	31007524 	tstcc	r0, r4, lsr #10
    1c2c:	00752224 	rsbseq	r2, r5, r4, lsr #4
    1c30:	00009f22 	andeq	r9, r0, r2, lsr #30
    1c34:	00000000 	andeq	r0, r0, r0
    1c38:	00e00000 	rsceq	r0, r0, r0
    1c3c:	00f40000 	rscseq	r0, r4, r0
    1c40:	00010000 	andeq	r0, r1, r0
    1c44:	0000f458 	andeq	pc, r0, r8, asr r4	; <UNPREDICTABLE>
    1c48:	00013400 	andeq	r3, r1, r0, lsl #8
    1c4c:	75000d00 	strvc	r0, [r0, #-3328]	; 0xd00
    1c50:	75243200 	strvc	r3, [r4, #-512]!	; 0x200
    1c54:	22243100 	eorcs	r3, r4, #0, 2
    1c58:	9f220075 	svcls	0x00220075
	...
    1c64:	000000e4 	andeq	r0, r0, r4, ror #1
    1c68:	000000e8 	andeq	r0, r0, r8, ror #1
    1c6c:	00530001 	subseq	r0, r3, r1
    1c70:	00000000 	andeq	r0, r0, r0
    1c74:	f4000000 	vst4.8	{d0-d3}, [r0], r0
    1c78:	14000000 	strne	r0, [r0], #-0
    1c7c:	01000001 	tsteq	r0, r1
    1c80:	01145800 	tsteq	r4, r0, lsl #16
    1c84:	01340000 	teqeq	r4, r0
    1c88:	00050000 	andeq	r0, r5, r0
    1c8c:	24330075 	ldrtcs	r0, [r3], #-117	; 0x75
    1c90:	0000009f 	muleq	r0, pc, r0	; <UNPREDICTABLE>
    1c94:	00000000 	andeq	r0, r0, r0
    1c98:	00010000 	andeq	r0, r1, r0
    1c9c:	00011400 	andeq	r1, r1, r0, lsl #8
    1ca0:	58000100 	stmdapl	r0, {r8}
    1ca4:	00000114 	andeq	r0, r0, r4, lsl r1
    1ca8:	00000134 	andeq	r0, r0, r4, lsr r1
    1cac:	00750005 	rsbseq	r0, r5, r5
    1cb0:	009f2433 	addseq	r2, pc, r3, lsr r4	; <UNPREDICTABLE>
    1cb4:	00000000 	andeq	r0, r0, r0
    1cb8:	04000000 	streq	r0, [r0], #-0
    1cbc:	08000001 	stmdaeq	r0, {r0}
    1cc0:	01000001 	tsteq	r0, r1
    1cc4:	00005300 	andeq	r5, r0, r0, lsl #6
    1cc8:	00000000 	andeq	r0, r0, r0
    1ccc:	01140000 	tsteq	r4, r0
    1cd0:	011c0000 	tsteq	ip, r0
    1cd4:	00060000 	andeq	r0, r6, r0
    1cd8:	80080077 	andhi	r0, r8, r7, ror r0
    1cdc:	011c9f1a 	tsteq	ip, sl, lsl pc
    1ce0:	011f0000 	tsteq	pc, r0
    1ce4:	00010000 	andeq	r0, r1, r0
    1ce8:	00011f51 	andeq	r1, r1, r1, asr pc
    1cec:	00015400 	andeq	r5, r1, r0, lsl #8
    1cf0:	77000600 	strvc	r0, [r0, -r0, lsl #12]
    1cf4:	1a800800 	bne	fe003cfc <__bss_end__+0xfdff9d6c>
    1cf8:	0000009f 	muleq	r0, pc, r0	; <UNPREDICTABLE>
    1cfc:	00000000 	andeq	r0, r0, r0
    1d00:	00012400 	andeq	r2, r1, r0, lsl #8
    1d04:	00012800 	andeq	r2, r1, r0, lsl #16
    1d08:	53000100 	movwpl	r0, #256	; 0x100
	...
    1d14:	00000144 	andeq	r0, r0, r4, asr #2
    1d18:	00000148 	andeq	r0, r0, r8, asr #2
    1d1c:	00530001 	subseq	r0, r3, r1
    1d20:	00000000 	andeq	r0, r0, r0
    1d24:	54000000 	strpl	r0, [r0], #-0
    1d28:	6b000001 	blvs	1d34 <_start-0x62cc>
    1d2c:	01000001 	tsteq	r0, r1
    1d30:	016b5000 	cmneq	fp, r0
    1d34:	01d00000 	bicseq	r0, r0, r0
    1d38:	00010000 	andeq	r0, r1, r0
    1d3c:	0001d059 	andeq	sp, r1, r9, asr r0
    1d40:	00030c00 	andeq	r0, r3, r0, lsl #24
    1d44:	f3000400 	vshl.u8	d0, d0, d0
    1d48:	0c9f5001 	ldceq	0, cr5, [pc], {1}
    1d4c:	14000003 	strne	r0, [r0], #-3
    1d50:	01000003 	tsteq	r0, r3
    1d54:	03145900 	tsteq	r4, #0, 18
    1d58:	031c0000 	tsteq	ip, #0
    1d5c:	00040000 	andeq	r0, r4, r0
    1d60:	9f5001f3 	svcls	0x005001f3
	...
    1d6c:	00000154 	andeq	r0, r0, r4, asr r1
    1d70:	0000016b 	andeq	r0, r0, fp, ror #2
    1d74:	6b510001 	blvs	1441d80 <__bss_end__+0x1437df0>
    1d78:	1c000001 	stcne	0, cr0, [r0], {1}
    1d7c:	01000003 	tsteq	r0, r3
    1d80:	00005600 	andeq	r5, r0, r0, lsl #12
    1d84:	00000000 	andeq	r0, r0, r0
    1d88:	01a80000 			; <UNDEFINED> instruction: 0x01a80000
    1d8c:	02980000 	addseq	r0, r8, #0
    1d90:	00010000 	andeq	r0, r1, r0
    1d94:	00000058 	andeq	r0, r0, r8, asr r0
    1d98:	00000000 	andeq	r0, r0, r0
    1d9c:	0001ac00 	andeq	sl, r1, r0, lsl #24
    1da0:	0002d000 	andeq	sp, r2, r0
    1da4:	54000100 	strpl	r0, [r0], #-256	; 0x100
	...
    1db0:	000001ac 	andeq	r0, r0, ip, lsr #3
    1db4:	000002d0 	ldrdeq	r0, [r0], -r0	; <UNPREDICTABLE>
    1db8:	00740005 	rsbseq	r0, r4, r5
    1dbc:	009f2531 	addseq	r2, pc, r1, lsr r5	; <UNPREDICTABLE>
    1dc0:	00000000 	andeq	r0, r0, r0
    1dc4:	ac000000 	stcge	0, cr0, [r0], {-0}
    1dc8:	d0000001 	andle	r0, r0, r1
    1dcc:	02000001 	andeq	r0, r0, #1
    1dd0:	d09f3000 	addsle	r3, pc, r0
    1dd4:	0c000001 	stceq	0, cr0, [r0], {1}
    1dd8:	01000003 	tsteq	r0, r3
    1ddc:	03145900 	tsteq	r4, #0, 18
    1de0:	031c0000 	tsteq	ip, #0
    1de4:	00010000 	andeq	r0, r1, r0
    1de8:	00000059 	andeq	r0, r0, r9, asr r0
    1dec:	00000000 	andeq	r0, r0, r0
    1df0:	00016800 	andeq	r6, r1, r0, lsl #16
    1df4:	00016b00 	andeq	r6, r1, r0, lsl #22
    1df8:	51000100 	mrspl	r0, (UNDEF: 16)
    1dfc:	0000016b 	andeq	r0, r0, fp, ror #2
    1e00:	0000031c 	andeq	r0, r0, ip, lsl r3
    1e04:	00560001 	subseq	r0, r6, r1
    1e08:	00000000 	andeq	r0, r0, r0
    1e0c:	70000000 	andvc	r0, r0, r0
    1e10:	ac000001 	stcge	0, cr0, [r0], {1}
    1e14:	01000001 	tsteq	r0, r1
    1e18:	030c5400 	movweq	r5, #50176	; 0xc400
    1e1c:	03140000 	tsteq	r4, #0
    1e20:	00010000 	andeq	r0, r1, r0
    1e24:	00000054 	andeq	r0, r0, r4, asr r0
    1e28:	00000000 	andeq	r0, r0, r0
    1e2c:	0001a800 	andeq	sl, r1, r0, lsl #16
    1e30:	0001c400 	andeq	ip, r1, r0, lsl #8
    1e34:	58000100 	stmdapl	r0, {r8}
	...
    1e40:	000001b0 			; <UNDEFINED> instruction: 0x000001b0
    1e44:	000001cb 	andeq	r0, r0, fp, asr #3
    1e48:	cb520001 	blgt	1481e54 <__bss_end__+0x1477ec4>
    1e4c:	d0000001 	andle	r0, r0, r1
    1e50:	08000002 	stmdaeq	r0, {r1}
    1e54:	31007400 	tstcc	r0, r0, lsl #8
    1e58:	22007425 	andcs	r7, r0, #620756992	; 0x25000000
    1e5c:	0000009f 	muleq	r0, pc, r0	; <UNPREDICTABLE>
    1e60:	00000000 	andeq	r0, r0, r0
    1e64:	0001b000 	andeq	fp, r1, r0
    1e68:	0001c400 	andeq	ip, r1, r0, lsl #8
    1e6c:	58000100 	stmdapl	r0, {r8}
	...
    1e78:	000001b4 			; <UNDEFINED> instruction: 0x000001b4
    1e7c:	000001b8 			; <UNDEFINED> instruction: 0x000001b8
    1e80:	00530001 	subseq	r0, r3, r1
    1e84:	00000000 	andeq	r0, r0, r0
    1e88:	d0000000 	andle	r0, r0, r0
    1e8c:	d0000001 	andle	r0, r0, r1
    1e90:	01000002 	tsteq	r0, r2
    1e94:	00005400 	andeq	r5, r0, r0, lsl #8
    1e98:	00000000 	andeq	r0, r0, r0
    1e9c:	01d00000 	bicseq	r0, r0, r0
    1ea0:	01e40000 	mvneq	r0, r0
    1ea4:	00010000 	andeq	r0, r1, r0
    1ea8:	00000058 	andeq	r0, r0, r8, asr r0
    1eac:	00000000 	andeq	r0, r0, r0
    1eb0:	0001d400 	andeq	sp, r1, r0, lsl #8
    1eb4:	0001d800 	andeq	sp, r1, r0, lsl #16
    1eb8:	53000100 	movwpl	r0, #256	; 0x100
	...
    1ec4:	000001f4 	strdeq	r0, [r0], -r4
    1ec8:	000002d0 	ldrdeq	r0, [r0], -r0	; <UNPREDICTABLE>
    1ecc:	00540001 	subseq	r0, r4, r1
    1ed0:	00000000 	andeq	r0, r0, r0
    1ed4:	f4000000 	vst4.8	{d0-d3}, [r0], r0
    1ed8:	08000001 	stmdaeq	r0, {r0}
    1edc:	01000002 	tsteq	r0, r2
    1ee0:	00005800 	andeq	r5, r0, r0, lsl #16
    1ee4:	00000000 	andeq	r0, r0, r0
    1ee8:	01f80000 	mvnseq	r0, r0
    1eec:	01fc0000 	mvnseq	r0, r0
    1ef0:	00010000 	andeq	r0, r1, r0
    1ef4:	00000053 	andeq	r0, r0, r3, asr r0
    1ef8:	00000000 	andeq	r0, r0, r0
    1efc:	00021800 	andeq	r1, r2, r0, lsl #16
    1f00:	0002d000 	andeq	sp, r2, r0
    1f04:	54000100 	strpl	r0, [r0], #-256	; 0x100
	...
    1f10:	00000218 	andeq	r0, r0, r8, lsl r2
    1f14:	0000022c 	andeq	r0, r0, ip, lsr #4
    1f18:	00580001 	subseq	r0, r8, r1
    1f1c:	00000000 	andeq	r0, r0, r0
    1f20:	1c000000 	stcne	0, cr0, [r0], {-0}
    1f24:	20000002 	andcs	r0, r0, r2
    1f28:	01000002 	tsteq	r0, r2
    1f2c:	00005300 	andeq	r5, r0, r0, lsl #6
    1f30:	00000000 	andeq	r0, r0, r0
    1f34:	023c0000 	eorseq	r0, ip, #0
    1f38:	02d00000 	sbcseq	r0, r0, #0
    1f3c:	00010000 	andeq	r0, r1, r0
    1f40:	00000054 	andeq	r0, r0, r4, asr r0
    1f44:	00000000 	andeq	r0, r0, r0
    1f48:	00023c00 	andeq	r3, r2, r0, lsl #24
    1f4c:	00025000 	andeq	r5, r2, r0
    1f50:	58000100 	stmdapl	r0, {r8}
	...
    1f5c:	00000240 	andeq	r0, r0, r0, asr #4
    1f60:	00000244 	andeq	r0, r0, r4, asr #4
    1f64:	00530001 	subseq	r0, r3, r1
    1f68:	00000000 	andeq	r0, r0, r0
    1f6c:	60000000 	andvs	r0, r0, r0
    1f70:	d0000002 	andle	r0, r0, r2
    1f74:	01000002 	tsteq	r0, r2
    1f78:	00005400 	andeq	r5, r0, r0, lsl #8
    1f7c:	00000000 	andeq	r0, r0, r0
    1f80:	02600000 	rsbeq	r0, r0, #0
    1f84:	02740000 	rsbseq	r0, r4, #0
    1f88:	00010000 	andeq	r0, r1, r0
    1f8c:	00000058 	andeq	r0, r0, r8, asr r0
    1f90:	00000000 	andeq	r0, r0, r0
    1f94:	00026400 	andeq	r6, r2, r0, lsl #8
    1f98:	00026800 	andeq	r6, r2, r0, lsl #16
    1f9c:	53000100 	movwpl	r0, #256	; 0x100
	...
    1fa8:	00000284 	andeq	r0, r0, r4, lsl #5
    1fac:	000002d0 	ldrdeq	r0, [r0], -r0	; <UNPREDICTABLE>
    1fb0:	00540001 	subseq	r0, r4, r1
    1fb4:	00000000 	andeq	r0, r0, r0
    1fb8:	84000000 	strhi	r0, [r0], #-0
    1fbc:	98000002 	stmdals	r0, {r1}
    1fc0:	01000002 	tsteq	r0, r2
    1fc4:	00005800 	andeq	r5, r0, r0, lsl #16
    1fc8:	00000000 	andeq	r0, r0, r0
    1fcc:	02880000 	addeq	r0, r8, #0
    1fd0:	028c0000 	addeq	r0, ip, #0
    1fd4:	00010000 	andeq	r0, r1, r0
    1fd8:	00000053 	andeq	r0, r0, r3, asr r0
    1fdc:	00000000 	andeq	r0, r0, r0
    1fe0:	0002a800 	andeq	sl, r2, r0, lsl #16
    1fe4:	0002d000 	andeq	sp, r2, r0
    1fe8:	54000100 	strpl	r0, [r0], #-256	; 0x100
	...
    1ff4:	000002ac 	andeq	r0, r0, ip, lsr #5
    1ff8:	000002b0 			; <UNDEFINED> instruction: 0x000002b0
    1ffc:	00530001 	subseq	r0, r3, r1
    2000:	00000000 	andeq	r0, r0, r0
    2004:	c8000000 	stmdagt	r0, {}	; <UNPREDICTABLE>
    2008:	0c000002 	stceq	0, cr0, [r0], {2}
    200c:	02000003 	andeq	r0, r0, #3
    2010:	149f3000 	ldrne	r3, [pc], #0	; 2018 <_start-0x5fe8>
    2014:	1c000003 	stcne	0, cr0, [r0], {3}
    2018:	02000003 	andeq	r0, r0, #3
    201c:	009f3000 	addseq	r3, pc, r0
    2020:	00000000 	andeq	r0, r0, r0
    2024:	c8000000 	stmdagt	r0, {}	; <UNPREDICTABLE>
    2028:	0c000002 	stceq	0, cr0, [r0], {2}
    202c:	01000003 	tsteq	r0, r3
    2030:	03145500 	tsteq	r4, #0, 10
    2034:	031c0000 	tsteq	ip, #0
    2038:	00010000 	andeq	r0, r1, r0
    203c:	00000055 	andeq	r0, r0, r5, asr r0
    2040:	00000000 	andeq	r0, r0, r0
    2044:	0002d000 	andeq	sp, r2, r0
    2048:	00030c00 	andeq	r0, r3, r0, lsl #24
    204c:	54000100 	strpl	r0, [r0], #-256	; 0x100
    2050:	00000314 	andeq	r0, r0, r4, lsl r3
    2054:	0000031c 	andeq	r0, r0, ip, lsl r3
    2058:	00540001 	subseq	r0, r4, r1
    205c:	00000000 	andeq	r0, r0, r0
    2060:	1c000000 	stcne	0, cr0, [r0], {-0}
    2064:	3f000003 	svccc	0x00000003
    2068:	01000003 	tsteq	r0, r3
    206c:	033f5000 	teqeq	pc, #0
    2070:	03600000 	cmneq	r0, #0
    2074:	00010000 	andeq	r0, r1, r0
    2078:	00036058 	andeq	r6, r3, r8, asr r0
    207c:	00037000 	andeq	r7, r3, r0
    2080:	50000100 	andpl	r0, r0, r0, lsl #2
    2084:	00000370 	andeq	r0, r0, r0, ror r3
    2088:	000003b0 			; <UNDEFINED> instruction: 0x000003b0
    208c:	b0580001 	subslt	r0, r8, r1
    2090:	c0000003 	andgt	r0, r0, r3
    2094:	04000003 	streq	r0, [r0], #-3
    2098:	5001f300 	andpl	pc, r1, r0, lsl #6
    209c:	0000009f 	muleq	r0, pc, r0	; <UNPREDICTABLE>
    20a0:	00000000 	andeq	r0, r0, r0
    20a4:	00031c00 	andeq	r1, r3, r0, lsl #24
    20a8:	00033f00 	andeq	r3, r3, r0, lsl #30
    20ac:	51000100 	mrspl	r0, (UNDEF: 16)
    20b0:	0000033f 	andeq	r0, r0, pc, lsr r3
    20b4:	00000360 	andeq	r0, r0, r0, ror #6
    20b8:	60560001 	subsvs	r0, r6, r1
    20bc:	70000003 	andvc	r0, r0, r3
    20c0:	01000003 	tsteq	r0, r3
    20c4:	03705100 	cmneq	r0, #0, 2
    20c8:	03b00000 	movseq	r0, #0
    20cc:	00010000 	andeq	r0, r1, r0
    20d0:	0003b056 	andeq	fp, r3, r6, asr r0
    20d4:	0003c000 	andeq	ip, r3, r0
    20d8:	f3000400 	vshl.u8	d0, d0, d0
    20dc:	009f5101 	addseq	r5, pc, r1, lsl #2
    20e0:	00000000 	andeq	r0, r0, r0
    20e4:	1c000000 	stcne	0, cr0, [r0], {-0}
    20e8:	3f000003 	svccc	0x00000003
    20ec:	01000003 	tsteq	r0, r3
    20f0:	033f5200 	teqeq	pc, #0, 4
    20f4:	03600000 	cmneq	r0, #0
    20f8:	00040000 	andeq	r0, r4, r0
    20fc:	9f5201f3 	svcls	0x005201f3
    2100:	00000360 	andeq	r0, r0, r0, ror #6
    2104:	00000370 	andeq	r0, r0, r0, ror r3
    2108:	70520001 	subsvc	r0, r2, r1
    210c:	b0000003 	andlt	r0, r0, r3
    2110:	03000003 	movweq	r0, #3
    2114:	9f017700 	svcls	0x00017700
    2118:	000003b0 			; <UNDEFINED> instruction: 0x000003b0
    211c:	000003c0 	andeq	r0, r0, r0, asr #7
    2120:	01f30004 	mvnseq	r0, r4
    2124:	00009f52 	andeq	r9, r0, r2, asr pc
    2128:	00000000 	andeq	r0, r0, r0
    212c:	031c0000 	tsteq	ip, #0
    2130:	033f0000 	teqeq	pc, #0
    2134:	00010000 	andeq	r0, r1, r0
    2138:	00033f53 	andeq	r3, r3, r3, asr pc
    213c:	00036000 	andeq	r6, r3, r0
    2140:	f3000400 	vshl.u8	d0, d0, d0
    2144:	609f5301 	addsvs	r5, pc, r1, lsl #6
    2148:	70000003 	andvc	r0, r0, r3
    214c:	01000003 	tsteq	r0, r3
    2150:	03705300 	cmneq	r0, #0, 6
    2154:	03c00000 	biceq	r0, r0, #0
    2158:	00040000 	andeq	r0, r4, r0
    215c:	9f5301f3 	svcls	0x005301f3
	...
    2168:	00000368 	andeq	r0, r0, r8, ror #6
    216c:	00000370 	andeq	r0, r0, r0, ror r3
    2170:	9f300002 	svcls	0x00300002
    2174:	00000370 	andeq	r0, r0, r0, ror r3
    2178:	000003b0 			; <UNDEFINED> instruction: 0x000003b0
    217c:	b0540001 	subslt	r0, r4, r1
    2180:	c0000003 	andgt	r0, r0, r3
    2184:	01000003 	tsteq	r0, r3
    2188:	00005000 	andeq	r5, r0, r0
    218c:	00000000 	andeq	r0, r0, r0
    2190:	03800000 	orreq	r0, r0, #0
    2194:	03900000 	orrseq	r0, r0, #0
    2198:	00010000 	andeq	r0, r1, r0
    219c:	00000050 	andeq	r0, r0, r0, asr r0
    21a0:	00000000 	andeq	r0, r0, r0
    21a4:	0003c000 	andeq	ip, r3, r0
    21a8:	0003df00 	andeq	sp, r3, r0, lsl #30
    21ac:	50000100 	andpl	r0, r0, r0, lsl #2
    21b0:	000003df 	ldrdeq	r0, [r0], -pc	; <UNPREDICTABLE>
    21b4:	00000400 	andeq	r0, r0, r0, lsl #8
    21b8:	00570001 	subseq	r0, r7, r1
    21bc:	10000004 	andne	r0, r0, r4
    21c0:	01000004 	tsteq	r0, r4
    21c4:	04105000 	ldreq	r5, [r0], #-0
    21c8:	04400000 	strbeq	r0, [r0], #-0
    21cc:	00010000 	andeq	r0, r1, r0
    21d0:	00044057 	andeq	r4, r4, r7, asr r0
    21d4:	00045000 	andeq	r5, r4, r0
    21d8:	f3000400 	vshl.u8	d0, d0, d0
    21dc:	009f5001 	addseq	r5, pc, r1
    21e0:	00000000 	andeq	r0, r0, r0
    21e4:	c0000000 	andgt	r0, r0, r0
    21e8:	df000003 	svcle	0x00000003
    21ec:	01000003 	tsteq	r0, r3
    21f0:	03df5100 	bicseq	r5, pc, #0, 2
    21f4:	04000000 	streq	r0, [r0], #-0
    21f8:	00010000 	andeq	r0, r1, r0
    21fc:	00040055 	andeq	r0, r4, r5, asr r0
    2200:	00041000 	andeq	r1, r4, r0
    2204:	51000100 	mrspl	r0, (UNDEF: 16)
    2208:	00000410 	andeq	r0, r0, r0, lsl r4
    220c:	00000440 	andeq	r0, r0, r0, asr #8
    2210:	40550001 	subsmi	r0, r5, r1
    2214:	50000004 	andpl	r0, r0, r4
    2218:	04000004 	streq	r0, [r0], #-4
    221c:	5101f300 	mrspl	pc, SP_irq	; <UNPREDICTABLE>
    2220:	0000009f 	muleq	r0, pc, r0	; <UNPREDICTABLE>
    2224:	00000000 	andeq	r0, r0, r0
    2228:	0003c000 	andeq	ip, r3, r0
    222c:	0003df00 	andeq	sp, r3, r0, lsl #30
    2230:	52000100 	andpl	r0, r0, #0, 2
    2234:	000003df 	ldrdeq	r0, [r0], -pc	; <UNPREDICTABLE>
    2238:	00000400 	andeq	r0, r0, r0, lsl #8
    223c:	01f30004 	mvnseq	r0, r4
    2240:	04009f52 	streq	r9, [r0], #-3922	; 0xf52
    2244:	04100000 	ldreq	r0, [r0], #-0
    2248:	00010000 	andeq	r0, r1, r0
    224c:	00041052 	andeq	r1, r4, r2, asr r0
    2250:	00044000 	andeq	r4, r4, r0
    2254:	76000300 	strvc	r0, [r0], -r0, lsl #6
    2258:	04409f01 	strbeq	r9, [r0], #-3841	; 0xf01
    225c:	04500000 	ldrbeq	r0, [r0], #-0
    2260:	00040000 	andeq	r0, r4, r0
    2264:	9f5201f3 	svcls	0x005201f3
	...
    2270:	000003c0 	andeq	r0, r0, r0, asr #7
    2274:	000003df 	ldrdeq	r0, [r0], -pc	; <UNPREDICTABLE>
    2278:	df530001 	svcle	0x00530001
    227c:	00000003 	andeq	r0, r0, r3
    2280:	01000004 	tsteq	r0, r4
    2284:	04005800 	streq	r5, [r0], #-2048	; 0x800
    2288:	04100000 	ldreq	r0, [r0], #-0
    228c:	00010000 	andeq	r0, r1, r0
    2290:	00041053 	andeq	r1, r4, r3, asr r0
    2294:	00044000 	andeq	r4, r4, r0
    2298:	58000100 	stmdapl	r0, {r8}
    229c:	00000440 	andeq	r0, r0, r0, asr #8
    22a0:	00000450 	andeq	r0, r0, r0, asr r4
    22a4:	01f30004 	mvnseq	r0, r4
    22a8:	00009f53 	andeq	r9, r0, r3, asr pc
    22ac:	00000000 	andeq	r0, r0, r0
    22b0:	04080000 	streq	r0, [r8], #-0
    22b4:	04100000 	ldreq	r0, [r0], #-0
    22b8:	00020000 	andeq	r0, r2, r0
    22bc:	04109f30 	ldreq	r9, [r0], #-3888	; 0xf30
    22c0:	04400000 	strbeq	r0, [r0], #-0
    22c4:	00010000 	andeq	r0, r1, r0
    22c8:	00044054 	andeq	r4, r4, r4, asr r0
    22cc:	00045000 	andeq	r5, r4, r0
    22d0:	50000100 	andpl	r0, r0, r0, lsl #2
	...
    22dc:	00000450 	andeq	r0, r0, r0, asr r4
    22e0:	00000473 	andeq	r0, r0, r3, ror r4
    22e4:	73510001 	cmpvc	r1, #1
    22e8:	24000004 	strcs	r0, [r0], #-4
    22ec:	04000005 	streq	r0, [r0], #-5
    22f0:	5101f300 	mrspl	pc, SP_irq	; <UNPREDICTABLE>
    22f4:	0000009f 	muleq	r0, pc, r0	; <UNPREDICTABLE>
    22f8:	00000000 	andeq	r0, r0, r0
    22fc:	00045000 	andeq	r5, r4, r0
    2300:	00047300 	andeq	r7, r4, r0, lsl #6
    2304:	52000100 	andpl	r0, r0, #0, 2
    2308:	00000473 	andeq	r0, r0, r3, ror r4
    230c:	00000524 	andeq	r0, r0, r4, lsr #10
    2310:	01f30004 	mvnseq	r0, r4
    2314:	00009f52 	andeq	r9, r0, r2, asr pc
    2318:	00000000 	andeq	r0, r0, r0
    231c:	04500000 	ldrbeq	r0, [r0], #-0
    2320:	04730000 	ldrbteq	r0, [r3], #-0
    2324:	00010000 	andeq	r0, r1, r0
    2328:	00047353 	andeq	r7, r4, r3, asr r3
    232c:	00051000 	andeq	r1, r5, r0
    2330:	55000100 	strpl	r0, [r0, #-256]	; 0x100
    2334:	00000510 	andeq	r0, r0, r0, lsl r5
    2338:	00000524 	andeq	r0, r0, r4, lsr #10
    233c:	04700002 	ldrbteq	r0, [r0], #-2
	...
    2348:	00000494 	muleq	r0, r4, r4
    234c:	000004d3 	ldrdeq	r0, [r0], -r3
    2350:	d3520001 	cmple	r2, #1
    2354:	f4000004 	vst4.8	{d0-d3}, [r0], r4
    2358:	06000004 	streq	r0, [r0], -r4
    235c:	77007500 	strvc	r7, [r0, -r0, lsl #10]
    2360:	f49f1e00 			; <UNDEFINED> instruction: 0xf49f1e00
    2364:	24000004 	strcs	r0, [r0], #-4
    2368:	01000005 	tsteq	r0, r5
    236c:	00005200 	andeq	r5, r0, r0, lsl #4
    2370:	00000000 	andeq	r0, r0, r0
    2374:	05240000 	streq	r0, [r4, #-0]!
    2378:	052f0000 	streq	r0, [pc, #-0]!	; 2380 <_start-0x5c80>
    237c:	00010000 	andeq	r0, r1, r0
    2380:	00052f50 	andeq	r2, r5, r0, asr pc
    2384:	00056000 	andeq	r6, r5, r0
    2388:	f3000400 	vshl.u8	d0, d0, d0
    238c:	009f5001 	addseq	r5, pc, r1
    2390:	00000000 	andeq	r0, r0, r0
    2394:	30000000 	andcc	r0, r0, r0
    2398:	3b000005 	blcc	23b4 <_start-0x5c4c>
    239c:	01000005 	tsteq	r0, r5
    23a0:	00005000 	andeq	r5, r0, r0
    23a4:	00000000 	andeq	r0, r0, r0
    23a8:	05600000 	strbeq	r0, [r0, #-0]!
    23ac:	05700000 	ldrbeq	r0, [r0, #-0]!
    23b0:	00010000 	andeq	r0, r1, r0
    23b4:	00057050 	andeq	r7, r5, r0, asr r0
    23b8:	00058c00 	andeq	r8, r5, r0, lsl #24
    23bc:	55000100 	strpl	r0, [r0, #-256]	; 0x100
	...
    23c8:	00000560 	andeq	r0, r0, r0, ror #10
    23cc:	00000570 	andeq	r0, r0, r0, ror r5
    23d0:	70510001 	subsvc	r0, r1, r1
    23d4:	8c000005 	stchi	0, cr0, [r0], {5}
    23d8:	01000005 	tsteq	r0, r5
    23dc:	00005400 	andeq	r5, r0, r0, lsl #8
    23e0:	00000000 	andeq	r0, r0, r0
    23e4:	058c0000 	streq	r0, [ip]
    23e8:	05a80000 	streq	r0, [r8, #0]!
    23ec:	00010000 	andeq	r0, r1, r0
    23f0:	0005a850 	andeq	sl, r5, r0, asr r8
    23f4:	00060000 	andeq	r0, r6, r0
    23f8:	55000100 	strpl	r0, [r0, #-256]	; 0x100
    23fc:	00000600 	andeq	r0, r0, r0, lsl #12
    2400:	0000061c 	andeq	r0, r0, ip, lsl r6
    2404:	01f30004 	mvnseq	r0, r4
    2408:	00009f50 	andeq	r9, r0, r0, asr pc
    240c:	00000000 	andeq	r0, r0, r0
    2410:	05b80000 	ldreq	r0, [r8, #0]!
    2414:	05c70000 	strbeq	r0, [r7]
    2418:	00010000 	andeq	r0, r1, r0
    241c:	0005c750 	andeq	ip, r5, r0, asr r7
    2420:	0005e800 	andeq	lr, r5, r0, lsl #16
    2424:	54000100 	strpl	r0, [r0], #-256	; 0x100
    2428:	000005e8 	andeq	r0, r0, r8, ror #11
    242c:	000005ec 	andeq	r0, r0, ip, ror #11
    2430:	ec500001 	mrrc	0, 0, r0, r0, cr1	; <UNPREDICTABLE>
    2434:	00000005 	andeq	r0, r0, r5
    2438:	01000006 	tsteq	r0, r6
    243c:	06005400 	streq	r5, [r0], -r0, lsl #8
    2440:	061c0000 	ldreq	r0, [ip], -r0
    2444:	00010000 	andeq	r0, r1, r0
    2448:	00000050 	andeq	r0, r0, r0, asr r0
    244c:	00000000 	andeq	r0, r0, r0
    2450:	00061c00 	andeq	r1, r6, r0, lsl #24
    2454:	00062f00 	andeq	r2, r6, r0, lsl #30
    2458:	50000100 	andpl	r0, r0, r0, lsl #2
    245c:	0000062f 	andeq	r0, r0, pc, lsr #12
    2460:	00000668 	andeq	r0, r0, r8, ror #12
    2464:	01f30004 	mvnseq	r0, r4
    2468:	00009f50 	andeq	r9, r0, r0, asr pc
    246c:	00000000 	andeq	r0, r0, r0
    2470:	061c0000 	ldreq	r0, [ip], -r0
    2474:	062f0000 	strteq	r0, [pc], -r0
    2478:	00010000 	andeq	r0, r1, r0
    247c:	00062f51 	andeq	r2, r6, r1, asr pc
    2480:	00066800 	andeq	r6, r6, r0, lsl #16
    2484:	f3000400 	vshl.u8	d0, d0, d0
    2488:	009f5101 	addseq	r5, pc, r1, lsl #2
    248c:	00000000 	andeq	r0, r0, r0
    2490:	1c000000 	stcne	0, cr0, [r0], {-0}
    2494:	2f000006 	svccs	0x00000006
    2498:	01000006 	tsteq	r0, r6
    249c:	062f5200 	strteq	r5, [pc], -r0, lsl #4
    24a0:	06680000 	strbteq	r0, [r8], -r0
    24a4:	00040000 	andeq	r0, r4, r0
    24a8:	9f5201f3 	svcls	0x005201f3
	...
    24b4:	0000061c 	andeq	r0, r0, ip, lsl r6
    24b8:	0000062f 	andeq	r0, r0, pc, lsr #12
    24bc:	2f530001 	svccs	0x00530001
    24c0:	68000006 	stmdavs	r0, {r1, r2}
    24c4:	04000006 	streq	r0, [r0], #-6
    24c8:	5301f300 	movwpl	pc, #4864	; 0x1300	; <UNPREDICTABLE>
    24cc:	0000009f 	muleq	r0, pc, r0	; <UNPREDICTABLE>
    24d0:	00000000 	andeq	r0, r0, r0
    24d4:	00063000 	andeq	r3, r6, r0
    24d8:	00063b00 	andeq	r3, r6, r0, lsl #22
    24dc:	50000100 	andpl	r0, r0, r0, lsl #2
    24e0:	00000654 	andeq	r0, r0, r4, asr r6
    24e4:	00000668 	andeq	r0, r0, r8, ror #12
    24e8:	00500001 	subseq	r0, r0, r1
	...
    24f4:	0b000000 	bleq	24fc <_start-0x5b04>
    24f8:	01000000 	mrseq	r0, (UNDEF: 0)
    24fc:	000b5000 	andeq	r5, fp, r0
    2500:	00140000 	andseq	r0, r4, r0
    2504:	00010000 	andeq	r0, r1, r0
    2508:	00000054 	andeq	r0, r0, r4, asr r0
    250c:	00000000 	andeq	r0, r0, r0
    2510:	0000fc00 	andeq	pc, r0, r0, lsl #24
    2514:	00010400 	andeq	r0, r1, r0, lsl #8
    2518:	50000100 	andpl	r0, r0, r0, lsl #2
    251c:	00000104 	andeq	r0, r0, r4, lsl #2
    2520:	00000128 	andeq	r0, r0, r8, lsr #2
    2524:	00540001 	subseq	r0, r4, r1
	...
    2530:	04000000 	streq	r0, [r0], #-0
    2534:	01000000 	mrseq	r0, (UNDEF: 0)
    2538:	00045200 	andeq	r5, r4, r0, lsl #4
    253c:	00200000 	eoreq	r0, r0, r0
    2540:	00040000 	andeq	r0, r4, r0
    2544:	9f5201f3 	svcls	0x005201f3
	...
    2554:	0000000c 	andeq	r0, r0, ip
    2558:	0c500001 	mrrceq	0, 0, r0, r0, cr1	; <UNPREDICTABLE>
    255c:	14000000 	strne	r0, [r0], #-0
    2560:	03000000 	movweq	r0, #0
    2564:	9f017300 	svcls	0x00017300
    2568:	00000014 	andeq	r0, r0, r4, lsl r0
    256c:	00000020 	andeq	r0, r0, r0, lsr #32
    2570:	00530001 	subseq	r0, r3, r1
    2574:	00000000 	andeq	r0, r0, r0
    2578:	Address 0x0000000000002578 is out of bounds.


Disassembly of section .debug_aranges:

00000000 <.debug_aranges>:
   0:	0000001c 	andeq	r0, r0, ip, lsl r0
   4:	00000002 	andeq	r0, r0, r2
   8:	00040000 	andeq	r0, r4, r0
   c:	00000000 	andeq	r0, r0, r0
  10:	00008010 	andeq	r8, r0, r0, lsl r0
  14:	00000268 	andeq	r0, r0, r8, ror #4
	...
  20:	0000001c 	andeq	r0, r0, ip, lsl r0
  24:	09090002 	stmdbeq	r9, {r1}
  28:	00040000 	andeq	r0, r4, r0
  2c:	00000000 	andeq	r0, r0, r0
  30:	00008278 	andeq	r8, r0, r8, ror r2
  34:	00000058 	andeq	r0, r0, r8, asr r0
	...
  40:	0000001c 	andeq	r0, r0, ip, lsl r0
  44:	0a9e0002 	beq	fe780054 <__bss_end__+0xfe7760c4>
  48:	00040000 	andeq	r0, r4, r0
  4c:	00000000 	andeq	r0, r0, r0
  50:	000082d0 	ldrdeq	r8, [r0], -r0
  54:	00000034 	andeq	r0, r0, r4, lsr r0
	...
  60:	0000001c 	andeq	r0, r0, ip, lsl r0
  64:	0b900002 	bleq	fe400074 <__bss_end__+0xfe3f60e4>
  68:	00040000 	andeq	r0, r4, r0
  6c:	00000000 	andeq	r0, r0, r0
  70:	00008304 	andeq	r8, r0, r4, lsl #6
  74:	00000524 	andeq	r0, r0, r4, lsr #10
	...
  80:	0000001c 	andeq	r0, r0, ip, lsl r0
  84:	12350002 	eorsne	r0, r5, #2
  88:	00040000 	andeq	r0, r4, r0
  8c:	00000000 	andeq	r0, r0, r0
  90:	00008828 	andeq	r8, r0, r8, lsr #16
  94:	00000020 	andeq	r0, r0, r0, lsr #32
	...
  a0:	0000001c 	andeq	r0, r0, ip, lsl r0
  a4:	12f10002 	rscsne	r0, r1, #2
  a8:	00040000 	andeq	r0, r4, r0
  ac:	00000000 	andeq	r0, r0, r0
  b0:	00008848 	andeq	r8, r0, r8, asr #16
  b4:	00000028 	andeq	r0, r0, r8, lsr #32
	...
  c0:	0000001c 	andeq	r0, r0, ip, lsl r0
  c4:	13f40002 	mvnsne	r0, #2
  c8:	00040000 	andeq	r0, r4, r0
  cc:	00000000 	andeq	r0, r0, r0
  d0:	00008870 	andeq	r8, r0, r0, ror r8
  d4:	000000b0 	strheq	r0, [r0], -r0	; <UNPREDICTABLE>
	...
  e0:	0000001c 	andeq	r0, r0, ip, lsl r0
  e4:	16d50002 	ldrbne	r0, [r5], r2
  e8:	00040000 	andeq	r0, r4, r0
  ec:	00000000 	andeq	r0, r0, r0
  f0:	00008920 	andeq	r8, r0, r0, lsr #18
  f4:	00000074 	andeq	r0, r0, r4, ror r0
	...
 100:	0000001c 	andeq	r0, r0, ip, lsl r0
 104:	18860002 	stmne	r6, {r1}
 108:	00040000 	andeq	r0, r4, r0
 10c:	00000000 	andeq	r0, r0, r0
 110:	00008994 	muleq	r0, r4, r9
 114:	00000088 	andeq	r0, r0, r8, lsl #1
	...
 120:	0000001c 	andeq	r0, r0, ip, lsl r0
 124:	1a620002 	bne	1880134 <__bss_end__+0x18761a4>
 128:	00040000 	andeq	r0, r4, r0
 12c:	00000000 	andeq	r0, r0, r0
 130:	00008a1c 	andeq	r8, r0, ip, lsl sl
 134:	000005a0 	andeq	r0, r0, r0, lsr #11
	...
 140:	0000001c 	andeq	r0, r0, ip, lsl r0
 144:	22e80002 	rsccs	r0, r8, #2
 148:	00040000 	andeq	r0, r4, r0
 14c:	00000000 	andeq	r0, r0, r0
 150:	00008fbc 			; <UNDEFINED> instruction: 0x00008fbc
 154:	00000668 	andeq	r0, r0, r8, ror #12
	...
 160:	0000001c 	andeq	r0, r0, ip, lsl r0
 164:	34de0002 	ldrbcc	r0, [lr], #2
 168:	00040000 	andeq	r0, r4, r0
 16c:	00000000 	andeq	r0, r0, r0
 170:	00009688 	andeq	r9, r0, r8, lsl #13
 174:	0000003c 	andeq	r0, r0, ip, lsr r0
	...
 180:	0000001c 	andeq	r0, r0, ip, lsl r0
 184:	35f50002 	ldrbcc	r0, [r5, #2]!
 188:	00040000 	andeq	r0, r4, r0
 18c:	00000000 	andeq	r0, r0, r0
 190:	000096c4 	andeq	r9, r0, r4, asr #13
 194:	00000050 	andeq	r0, r0, r0, asr r0
	...
 1a0:	0000001c 	andeq	r0, r0, ip, lsl r0
 1a4:	37bc0002 	ldrcc	r0, [ip, r2]!
 1a8:	00040000 	andeq	r0, r4, r0
 1ac:	00000000 	andeq	r0, r0, r0
 1b0:	00009714 	andeq	r9, r0, r4, lsl r7
 1b4:	00000154 	andeq	r0, r0, r4, asr r1
	...
 1c0:	0000001c 	andeq	r0, r0, ip, lsl r0
 1c4:	3bbf0002 	blcc	fefc01d4 <__bss_end__+0xfefb6244>
 1c8:	00040000 	andeq	r0, r4, r0
 1cc:	00000000 	andeq	r0, r0, r0
 1d0:	00009868 	andeq	r9, r0, r8, ror #16
 1d4:	00000020 	andeq	r0, r0, r0, lsr #32
	...

Disassembly of section .debug_ranges:

00000000 <.debug_ranges>:
   0:	00000030 	andeq	r0, r0, r0, lsr r0
   4:	00000034 	andeq	r0, r0, r4, lsr r0
   8:	00000038 	andeq	r0, r0, r8, lsr r0
   c:	0000003c 	andeq	r0, r0, ip, lsr r0
  10:	00000040 	andeq	r0, r0, r0, asr #32
  14:	00000044 	andeq	r0, r0, r4, asr #32
  18:	00000048 	andeq	r0, r0, r8, asr #32
  1c:	0000004c 	andeq	r0, r0, ip, asr #32
	...
  28:	0000003c 	andeq	r0, r0, ip, lsr r0
  2c:	00000040 	andeq	r0, r0, r0, asr #32
  30:	00000044 	andeq	r0, r0, r4, asr #32
  34:	00000048 	andeq	r0, r0, r8, asr #32
  38:	0000004c 	andeq	r0, r0, ip, asr #32
  3c:	00000054 	andeq	r0, r0, r4, asr r0
	...
  48:	00000064 	andeq	r0, r0, r4, rrx
  4c:	00000068 	andeq	r0, r0, r8, rrx
  50:	0000006c 	andeq	r0, r0, ip, rrx
  54:	00000070 	andeq	r0, r0, r0, ror r0
  58:	00000074 	andeq	r0, r0, r4, ror r0
  5c:	00000078 	andeq	r0, r0, r8, ror r0
  60:	0000007c 	andeq	r0, r0, ip, ror r0
  64:	00000080 	andeq	r0, r0, r0, lsl #1
	...
  70:	00000070 	andeq	r0, r0, r0, ror r0
  74:	00000074 	andeq	r0, r0, r4, ror r0
  78:	00000078 	andeq	r0, r0, r8, ror r0
  7c:	0000007c 	andeq	r0, r0, ip, ror r0
  80:	00000080 	andeq	r0, r0, r0, lsl #1
  84:	00000088 	andeq	r0, r0, r8, lsl #1
	...
  90:	00000098 	muleq	r0, r8, r0
  94:	0000009c 	muleq	r0, ip, r0
  98:	000000a0 	andeq	r0, r0, r0, lsr #1
  9c:	000000a4 	andeq	r0, r0, r4, lsr #1
  a0:	000000a8 	andeq	r0, r0, r8, lsr #1
  a4:	000000ac 	andeq	r0, r0, ip, lsr #1
  a8:	000000b0 	strheq	r0, [r0], -r0	; <UNPREDICTABLE>
  ac:	000000b4 	strheq	r0, [r0], -r4
	...
  b8:	000000a4 	andeq	r0, r0, r4, lsr #1
  bc:	000000a8 	andeq	r0, r0, r8, lsr #1
  c0:	000000ac 	andeq	r0, r0, ip, lsr #1
  c4:	000000b0 	strheq	r0, [r0], -r0	; <UNPREDICTABLE>
  c8:	000000b4 	strheq	r0, [r0], -r4
  cc:	000000bc 	strheq	r0, [r0], -ip
	...
  d8:	000000cc 	andeq	r0, r0, ip, asr #1
  dc:	000000d0 	ldrdeq	r0, [r0], -r0	; <UNPREDICTABLE>
  e0:	000000d4 	ldrdeq	r0, [r0], -r4
  e4:	000000d8 	ldrdeq	r0, [r0], -r8
  e8:	000000dc 	ldrdeq	r0, [r0], -ip
  ec:	000000e0 	andeq	r0, r0, r0, ror #1
  f0:	000000e4 	andeq	r0, r0, r4, ror #1
  f4:	000000e8 	andeq	r0, r0, r8, ror #1
	...
 100:	000000d8 	ldrdeq	r0, [r0], -r8
 104:	000000dc 	ldrdeq	r0, [r0], -ip
 108:	000000e0 	andeq	r0, r0, r0, ror #1
 10c:	000000e4 	andeq	r0, r0, r4, ror #1
 110:	000000e8 	andeq	r0, r0, r8, ror #1
 114:	000000f0 	strdeq	r0, [r0], -r0	; <UNPREDICTABLE>
	...
 120:	00000100 	andeq	r0, r0, r0, lsl #2
 124:	00000104 	andeq	r0, r0, r4, lsl #2
 128:	00000108 	andeq	r0, r0, r8, lsl #2
 12c:	0000010c 	andeq	r0, r0, ip, lsl #2
 130:	00000110 	andeq	r0, r0, r0, lsl r1
 134:	00000114 	andeq	r0, r0, r4, lsl r1
 138:	0000011c 	andeq	r0, r0, ip, lsl r1
 13c:	00000120 	andeq	r0, r0, r0, lsr #2
	...
 148:	0000010c 	andeq	r0, r0, ip, lsl #2
 14c:	00000110 	andeq	r0, r0, r0, lsl r1
 150:	00000114 	andeq	r0, r0, r4, lsl r1
 154:	0000011c 	andeq	r0, r0, ip, lsl r1
 158:	00000120 	andeq	r0, r0, r0, lsr #2
 15c:	00000128 	andeq	r0, r0, r8, lsr #2
	...
 168:	00000138 	andeq	r0, r0, r8, lsr r1
 16c:	0000013c 	andeq	r0, r0, ip, lsr r1
 170:	00000140 	andeq	r0, r0, r0, asr #2
 174:	00000144 	andeq	r0, r0, r4, asr #2
 178:	00000148 	andeq	r0, r0, r8, asr #2
 17c:	0000014c 	andeq	r0, r0, ip, asr #2
 180:	00000150 	andeq	r0, r0, r0, asr r1
 184:	00000154 	andeq	r0, r0, r4, asr r1
	...
 190:	00000144 	andeq	r0, r0, r4, asr #2
 194:	00000148 	andeq	r0, r0, r8, asr #2
 198:	0000014c 	andeq	r0, r0, ip, asr #2
 19c:	00000150 	andeq	r0, r0, r0, asr r1
 1a0:	00000154 	andeq	r0, r0, r4, asr r1
 1a4:	00000160 	andeq	r0, r0, r0, ror #2
	...
 1b0:	00000170 	andeq	r0, r0, r0, ror r1
 1b4:	00000174 	andeq	r0, r0, r4, ror r1
 1b8:	00000178 	andeq	r0, r0, r8, ror r1
 1bc:	0000017c 	andeq	r0, r0, ip, ror r1
 1c0:	00000180 	andeq	r0, r0, r0, lsl #3
 1c4:	00000184 	andeq	r0, r0, r4, lsl #3
 1c8:	00000188 	andeq	r0, r0, r8, lsl #3
 1cc:	0000018c 	andeq	r0, r0, ip, lsl #3
	...
 1d8:	0000017c 	andeq	r0, r0, ip, ror r1
 1dc:	00000180 	andeq	r0, r0, r0, lsl #3
 1e0:	00000184 	andeq	r0, r0, r4, lsl #3
 1e4:	00000188 	andeq	r0, r0, r8, lsl #3
 1e8:	0000018c 	andeq	r0, r0, ip, lsl #3
 1ec:	00000190 	muleq	r0, r0, r1
	...
 1f8:	000001a4 	andeq	r0, r0, r4, lsr #3
 1fc:	000001b0 			; <UNDEFINED> instruction: 0x000001b0
 200:	000001b4 			; <UNDEFINED> instruction: 0x000001b4
 204:	000001b8 			; <UNDEFINED> instruction: 0x000001b8
 208:	000001bc 			; <UNDEFINED> instruction: 0x000001bc
 20c:	000001c0 	andeq	r0, r0, r0, asr #3
	...
 218:	000001b0 			; <UNDEFINED> instruction: 0x000001b0
 21c:	000001b4 			; <UNDEFINED> instruction: 0x000001b4
 220:	000001b8 			; <UNDEFINED> instruction: 0x000001b8
 224:	000001bc 			; <UNDEFINED> instruction: 0x000001bc
 228:	000001c0 	andeq	r0, r0, r0, asr #3
 22c:	000001c4 	andeq	r0, r0, r4, asr #3
	...
 238:	00000228 	andeq	r0, r0, r8, lsr #4
 23c:	0000022c 	andeq	r0, r0, ip, lsr #4
 240:	00000230 	andeq	r0, r0, r0, lsr r2
 244:	0000023c 	andeq	r0, r0, ip, lsr r2
	...
 250:	000002b4 			; <UNDEFINED> instruction: 0x000002b4
 254:	000002b8 			; <UNDEFINED> instruction: 0x000002b8
 258:	000002e8 	andeq	r0, r0, r8, ror #5
 25c:	000004e0 	andeq	r0, r0, r0, ror #9
	...
 268:	00008920 	andeq	r8, r0, r0, lsr #18
 26c:	00008994 	muleq	r0, r4, r9
	...

Disassembly of section .debug_line:

00000000 <.debug_line>:
       0:	00000211 	andeq	r0, r0, r1, lsl r2
       4:	01280002 	teqeq	r8, r2
       8:	01020000 	mrseq	r0, (UNDEF: 2)
       c:	000d0efb 	strdeq	r0, [sp], -fp
      10:	01010101 	tsteq	r1, r1, lsl #2
      14:	01000000 	mrseq	r0, (UNDEF: 0)
      18:	2f010000 	svccs	0x00010000
      1c:	72657355 	rsbvc	r7, r5, #1409286145	; 0x54000001
      20:	72622f73 	rsbvc	r2, r2, #460	; 0x1cc
      24:	6a6e6169 	bvs	1b985d0 <__bss_end__+0x1b8e640>
      28:	442f6e75 	strtmi	r6, [pc], #-3701	; 30 <_start-0x7fd0>
      2c:	746b7365 	strbtvc	r7, [fp], #-869	; 0x365
      30:	732f706f 	teqvc	pc, #111	; 0x6f
      34:	6f6f6863 	svcvs	0x006f6863
      38:	69572f6c 	ldmdbvs	r7, {r2, r3, r5, r6, r8, r9, sl, fp, sp}^
      3c:	7265746e 	rsbvc	r7, r5, #1845493760	; 0x6e000000
      40:	30323931 	eorscc	r3, r2, r1, lsr r9
      44:	3153432f 	cmpcc	r3, pc, lsr #6
      48:	2f453034 	svccs	0x00453034
      4c:	34317363 	ldrtcc	r7, [r1], #-867	; 0x363
      50:	322d6530 	eorcc	r6, sp, #48, 10	; 0xc000000
      54:	6e697730 	mcrvs	7, 3, r7, cr9, cr0, {1}
      58:	62696c2f 	rsbvs	r6, r9, #12032	; 0x2f00
      5c:	632f6970 	teqvs	pc, #112, 18	; 0x1c0000
      60:	30343173 	eorscc	r3, r4, r3, ror r1
      64:	72732d65 	rsbsvc	r2, r3, #6464	; 0x1940
      68:	552f0063 	strpl	r0, [pc, #-99]!	; d <_start-0x7ff3>
      6c:	73726573 	cmnvc	r2, #482344960	; 0x1cc00000
      70:	6972622f 	ldmdbvs	r2!, {r0, r1, r2, r3, r5, r9, sp, lr}^
      74:	756a6e61 	strbvc	r6, [sl, #-3681]!	; 0xe61
      78:	65442f6e 	strbvs	r2, [r4, #-3950]	; 0xf6e
      7c:	6f746b73 	svcvs	0x00746b73
      80:	63732f70 	cmnvs	r3, #112, 30	; 0x1c0
      84:	6c6f6f68 	stclvs	15, cr6, [pc], #-416	; fffffeec <__bss_end__+0xffff5f5c>
      88:	6e69572f 	cdpvs	7, 6, cr5, cr9, cr15, {1}
      8c:	31726574 	cmncc	r2, r4, ror r5
      90:	2f303239 	svccs	0x00303239
      94:	34315343 	ldrtcc	r5, [r1], #-835	; 0x343
      98:	632f4530 	teqvs	pc, #48, 10	; 0xc000000
      9c:	30343173 	eorscc	r3, r4, r3, ror r1
      a0:	30322d65 	eorscc	r2, r2, r5, ror #26
      a4:	2f6e6977 	svccs	0x006e6977
      a8:	7062696c 	rsbvc	r6, r2, ip, ror #18
      ac:	752f0069 	strvc	r0, [pc, #-105]!	; 4b <_start-0x7fb5>
      b0:	6c2f7273 	sfmvs	f7, 4, [pc], #-460	; fffffeec <__bss_end__+0xffff5f5c>
      b4:	6c61636f 	stclvs	3, cr6, [r1], #-444	; 0xfffffe44
      b8:	6c65432f 	stclvs	3, cr4, [r5], #-188	; 0xffffff44
      bc:	2f72616c 	svccs	0x0072616c
      c0:	2d6d7261 	sfmcs	f7, 2, [sp, #-388]!	; 0xfffffe7c
      c4:	656e6f6e 	strbvs	r6, [lr, #-3950]!	; 0xf6e
      c8:	6261652d 	rsbvs	r6, r1, #188743680	; 0xb400000
      cc:	2e342f69 	cdpcs	15, 3, cr2, cr4, cr9, {3}
      d0:	2d332e38 	ldccs	14, cr2, [r3, #-224]!	; 0xffffff20
      d4:	37317363 	ldrcc	r7, [r1, -r3, ror #6]!
      d8:	6c2f6530 	cfstr32vs	mvfx6, [pc], #-192	; 20 <_start-0x7fe0>
      dc:	672f6269 	strvs	r6, [pc, -r9, ror #4]!
      e0:	612f6363 	teqvs	pc, r3, ror #6
      e4:	6e2d6d72 	mcrvs	13, 1, r6, cr13, cr2, {3}
      e8:	2d656e6f 	stclcs	14, cr6, [r5, #-444]!	; 0xfffffe44
      ec:	69626165 	stmdbvs	r2!, {r0, r2, r5, r6, r8, sp, lr}^
      f0:	382e342f 	stmdacc	lr!, {r0, r1, r2, r3, r5, sl, ip, sp}
      f4:	692f332e 	stmdbvs	pc!, {r1, r2, r3, r5, r8, r9, ip, sp}	; <UNPREDICTABLE>
      f8:	756c636e 	strbvc	r6, [ip, #-878]!	; 0x36e
      fc:	00006564 	andeq	r6, r0, r4, ror #10
     100:	74736574 	ldrbtvc	r6, [r3], #-1396	; 0x574
     104:	6e65672d 	cdpvs	7, 6, cr6, cr5, cr13, {1}
     108:	0000632e 	andeq	r6, r0, lr, lsr #6
     10c:	70670000 	rsbvc	r0, r7, r0
     110:	682e6f69 	stmdavs	lr!, {r0, r3, r5, r6, r8, r9, sl, fp, sp, lr}
     114:	00000100 	andeq	r0, r0, r0, lsl #2
     118:	2e697072 	mcrcs	0, 3, r7, cr9, cr2, {3}
     11c:	00020068 	andeq	r0, r2, r8, rrx
     120:	64747300 	ldrbtvs	r7, [r4], #-768	; 0x300
     124:	2d746e69 	ldclcs	14, cr6, [r4, #-420]!	; 0xfffffe5c
     128:	2e636367 	cdpcs	3, 6, cr6, cr3, cr7, {3}
     12c:	00030068 	andeq	r0, r3, r8, rrx
     130:	05000000 	streq	r0, [r0, #-0]
     134:	00801002 	addeq	r1, r0, r2
     138:	01300300 	teqeq	r0, r0, lsl #6
     13c:	2e720330 	mrccs	3, 3, r0, cr2, cr0, {1}
     140:	01040200 	mrseq	r0, R12_usr
     144:	03ba2303 			; <UNDEFINED> instruction: 0x03ba2303
     148:	0b038258 	bleq	e0ab0 <__bss_end__+0xd6b20>
     14c:	2e75032e 	cdpcs	3, 7, cr0, cr5, cr14, {1}
     150:	29332933 	ldmdbcs	r3!, {r0, r1, r4, r5, r8, fp, sp}
     154:	04020033 	streq	r0, [r2], #-51	; 0x33
     158:	4a250301 	bmi	940d64 <__bss_end__+0x936dd4>
     15c:	03825603 	orreq	r5, r2, #3145728	; 0x300000
     160:	75032e0b 	strvc	r2, [r3, #-3595]	; 0xe0b
     164:	3329332e 	teqcc	r9, #-1207959552	; 0xb8000000
     168:	02003329 	andeq	r3, r0, #-1543503872	; 0xa4000000
     16c:	27030104 	strcs	r0, [r3, -r4, lsl #2]
     170:	8254034a 	subshi	r0, r4, #671088641	; 0x28000001
     174:	032e0b03 	teqeq	lr, #3072	; 0xc00
     178:	29332e75 	ldmdbcs	r3!, {r0, r2, r4, r5, r6, r9, sl, fp, sp}
     17c:	00332933 	eorseq	r2, r3, r3, lsr r9
     180:	03010402 	movweq	r0, #5122	; 0x1402
     184:	52034a29 	andpl	r4, r3, #167936	; 0x29000
     188:	2e0b0382 	cdpcs	3, 0, cr0, cr11, cr2, {4}
     18c:	332e7503 	teqcc	lr, #12582912	; 0xc00000
     190:	33293329 	teqcc	r9, #-1543503872	; 0xa4000000
     194:	01040200 	mrseq	r0, R12_usr
     198:	034a2b03 	movteq	r2, #43779	; 0xab03
     19c:	0b038250 	bleq	e0ae4 <__bss_end__+0xd6b54>
     1a0:	2e75032e 	cdpcs	3, 7, cr0, cr5, cr14, {1}
     1a4:	45332933 	ldrmi	r2, [r3, #-2355]!	; 0x933
     1a8:	04020033 	streq	r0, [r2], #-51	; 0x33
     1ac:	4a2d0301 	bmi	b40db8 <__bss_end__+0xb36e28>
     1b0:	03824e03 	orreq	r4, r2, #3, 28	; 0x30
     1b4:	75032e0b 	strvc	r2, [r3, #-3595]	; 0xe0b
     1b8:	3329332e 	teqcc	r9, #-1207959552	; 0xb8000000
     1bc:	02003329 	andeq	r3, r0, #-1543503872	; 0xa4000000
     1c0:	2f030104 	svccs	0x00030104
     1c4:	824c0366 	subhi	r0, ip, #-1744830463	; 0x98000001
     1c8:	032e0b03 	teqeq	lr, #3072	; 0xc00
     1cc:	29332e75 	ldmdbcs	r3!, {r0, r2, r4, r5, r6, r9, sl, fp, sp}
     1d0:	00332933 	eorseq	r2, r3, r3, lsr r9
     1d4:	03010402 	movweq	r0, #5122	; 0x1402
     1d8:	55032e31 	strpl	r2, [r3, #-3633]	; 0xe31
     1dc:	2e750382 	cdpcs	3, 7, cr0, cr5, cr2, {4}
     1e0:	2933296b 	ldmdbcs	r3!, {r0, r1, r3, r5, r6, r8, fp, sp}
     1e4:	04020033 	streq	r0, [r2], #-51	; 0x33
     1e8:	2e330301 	cdpcs	3, 3, cr0, cr3, cr1, {0}
     1ec:	00824803 	addeq	r4, r2, r3, lsl #16
     1f0:	03010402 	movweq	r0, #5122	; 0x1402
     1f4:	3183ba3a 	orrcc	fp, r3, sl, lsr sl
     1f8:	30692d4b 	rsbcc	r2, r9, fp, asr #26
     1fc:	7fbc032f 	svcvc	0x00bc032f
     200:	00c7034a 	sbceq	r0, r7, sl, asr #6
     204:	7fb9032e 	svcvc	0x00b9032e
     208:	00c7032e 	sbceq	r0, r7, lr, lsr #6
     20c:	844f3066 	strbhi	r3, [pc], #-102	; 214 <_start-0x7dec>
     210:	01000802 	tsteq	r0, r2, lsl #16
     214:	00010201 	andeq	r0, r1, r1, lsl #4
     218:	eb000200 	bl	a20 <_start-0x75e0>
     21c:	02000000 	andeq	r0, r0, #0
     220:	0d0efb01 	vstreq	d15, [lr, #-4]
     224:	01010100 	mrseq	r0, (UNDEF: 17)
     228:	00000001 	andeq	r0, r0, r1
     22c:	01000001 	tsteq	r0, r1
     230:	6362696c 	cmnvs	r2, #108, 18	; 0x1b0000
     234:	73752f00 	cmnvc	r5, #0, 30
     238:	6f6c2f72 	svcvs	0x006c2f72
     23c:	2f6c6163 	svccs	0x006c6163
     240:	6c6c6543 	cfstr64vs	mvdx6, [ip], #-268	; 0xfffffef4
     244:	612f7261 	teqvs	pc, r1, ror #4
     248:	6e2d6d72 	mcrvs	13, 1, r6, cr13, cr2, {3}
     24c:	2d656e6f 	stclcs	14, cr6, [r5, #-444]!	; 0xfffffe44
     250:	69626165 	stmdbvs	r2!, {r0, r2, r5, r6, r8, sp, lr}^
     254:	382e342f 	stmdacc	lr!, {r0, r1, r2, r3, r5, sl, ip, sp}
     258:	632d332e 	teqvs	sp, #-1207959552	; 0xb8000000
     25c:	30373173 	eorscc	r3, r7, r3, ror r1
     260:	696c2f65 	stmdbvs	ip!, {r0, r2, r5, r6, r8, r9, sl, fp, sp}^
     264:	63672f62 	cmnvs	r7, #392	; 0x188
     268:	72612f63 	rsbvc	r2, r1, #396	; 0x18c
     26c:	6f6e2d6d 	svcvs	0x006e2d6d
     270:	652d656e 	strvs	r6, [sp, #-1390]!	; 0x56e
     274:	2f696261 	svccs	0x00696261
     278:	2e382e34 	mrccs	14, 1, r2, cr8, cr4, {1}
     27c:	6e692f33 	mcrvs	15, 3, r2, cr9, cr3, {1}
     280:	64756c63 	ldrbtvs	r6, [r5], #-3171	; 0xc63
     284:	552f0065 	strpl	r0, [pc, #-101]!	; 227 <_start-0x7dd9>
     288:	73726573 	cmnvc	r2, #482344960	; 0x1cc00000
     28c:	6972622f 	ldmdbvs	r2!, {r0, r1, r2, r3, r5, r9, sp, lr}^
     290:	756a6e61 	strbvc	r6, [sl, #-3681]!	; 0xe61
     294:	65442f6e 	strbvs	r2, [r4, #-3950]	; 0xf6e
     298:	6f746b73 	svcvs	0x00746b73
     29c:	63732f70 	cmnvs	r3, #112, 30	; 0x1c0
     2a0:	6c6f6f68 	stclvs	15, cr6, [pc], #-416	; 108 <_start-0x7ef8>
     2a4:	6e69572f 	cdpvs	7, 6, cr5, cr9, cr15, {1}
     2a8:	31726574 	cmncc	r2, r4, ror r5
     2ac:	2f303239 	svccs	0x00303239
     2b0:	34315343 	ldrtcc	r5, [r1], #-835	; 0x343
     2b4:	632f4530 	teqvs	pc, #48, 10	; 0xc000000
     2b8:	30343173 	eorscc	r3, r4, r3, ror r1
     2bc:	30322d65 	eorscc	r2, r2, r5, ror #26
     2c0:	2f6e6977 	svccs	0x006e6977
     2c4:	7062696c 	rsbvc	r6, r2, ip, ror #18
     2c8:	70000069 	andvc	r0, r0, r9, rrx
     2cc:	746e6972 	strbtvc	r6, [lr], #-2418	; 0x972
     2d0:	00632e6b 	rsbeq	r2, r3, fp, ror #28
     2d4:	73000001 	movwvc	r0, #1
     2d8:	72616474 	rsbvc	r6, r1, #116, 8	; 0x74000000
     2dc:	00682e67 	rsbeq	r2, r8, r7, ror #28
     2e0:	3c000002 	stccc	0, cr0, [r0], {2}
     2e4:	6c697562 	cfstr64vs	mvdx7, [r9], #-392	; 0xfffffe78
     2e8:	6e692d74 	mcrvs	13, 3, r2, cr9, cr4, {3}
     2ec:	0000003e 	andeq	r0, r0, lr, lsr r0
     2f0:	69707200 	ldmdbvs	r0!, {r9, ip, sp, lr}^
     2f4:	0300682e 	movweq	r6, #2094	; 0x82e
     2f8:	61760000 	cmnvs	r6, r0
     2fc:	6972702d 	ldmdbvs	r2!, {r0, r2, r3, r5, ip, sp, lr}^
     300:	2e6b746e 	cdpcs	4, 6, cr7, cr11, cr14, {3}
     304:	00010068 	andeq	r0, r1, r8, rrx
     308:	05000000 	streq	r0, [r0, #-0]
     30c:	00827802 	addeq	r7, r2, r2, lsl #16
     310:	4b6b1700 	blmi	1ac5f18 <__bss_end__+0x1abbf88>
     314:	0e0289bf 	mcreq	9, 0, r8, cr2, cr15, {5}
     318:	96010100 	strls	r0, [r1], -r0, lsl #2
     31c:	02000000 	andeq	r0, r0, #0
     320:	00006f00 	andeq	r6, r0, r0, lsl #30
     324:	fb010200 	blx	40b2e <__bss_end__+0x36b9e>
     328:	01000d0e 	tsteq	r0, lr, lsl #26
     32c:	00010101 	andeq	r0, r1, r1, lsl #2
     330:	00010000 	andeq	r0, r1, r0
     334:	696c0100 	stmdbvs	ip!, {r8}^
     338:	2f006362 	svccs	0x00006362
     33c:	72657355 	rsbvc	r7, r5, #1409286145	; 0x54000001
     340:	72622f73 	rsbvc	r2, r2, #460	; 0x1cc
     344:	6a6e6169 	bvs	1b988f0 <__bss_end__+0x1b8e960>
     348:	442f6e75 	strtmi	r6, [pc], #-3701	; 350 <_start-0x7cb0>
     34c:	746b7365 	strbtvc	r7, [fp], #-869	; 0x365
     350:	732f706f 	teqvc	pc, #111	; 0x6f
     354:	6f6f6863 	svcvs	0x006f6863
     358:	69572f6c 	ldmdbvs	r7, {r2, r3, r5, r6, r8, r9, sl, fp, sp}^
     35c:	7265746e 	rsbvc	r7, r5, #1845493760	; 0x6e000000
     360:	30323931 	eorscc	r3, r2, r1, lsr r9
     364:	3153432f 	cmpcc	r3, pc, lsr #6
     368:	2f453034 	svccs	0x00453034
     36c:	34317363 	ldrtcc	r7, [r1], #-867	; 0x363
     370:	322d6530 	eorcc	r6, sp, #48, 10	; 0xc000000
     374:	6e697730 	mcrvs	7, 3, r7, cr9, cr0, {1}
     378:	62696c2f 	rsbvs	r6, r9, #12032	; 0x2f00
     37c:	00006970 	andeq	r6, r0, r0, ror r9
     380:	6b747570 	blvs	1d1d948 <__bss_end__+0x1d139b8>
     384:	0100632e 	tsteq	r0, lr, lsr #6
     388:	70720000 	rsbsvc	r0, r2, r0
     38c:	00682e69 	rsbeq	r2, r8, r9, ror #28
     390:	00000002 	andeq	r0, r0, r2
     394:	d0020500 	andle	r0, r2, r0, lsl #10
     398:	15000082 	strne	r0, [r0, #-130]	; 0x82
     39c:	02002d4c 	andeq	r2, r0, #76, 26	; 0x1300
     3a0:	002f0204 	eoreq	r0, pc, r4, lsl #4
     3a4:	49020402 	stmdbmi	r2, {r1, sl}
     3a8:	01040200 	mrseq	r0, R12_usr
     3ac:	6b062e06 	blvs	18bbcc <__bss_end__+0x181c3c>
     3b0:	01000602 	tsteq	r0, r2, lsl #12
     3b4:	0001e201 	andeq	lr, r1, r1, lsl #4
     3b8:	df000200 	svcle	0x00000200
     3bc:	02000000 	andeq	r0, r0, #0
     3c0:	0d0efb01 	vstreq	d15, [lr, #-4]
     3c4:	01010100 	mrseq	r0, (UNDEF: 17)
     3c8:	00000001 	andeq	r0, r0, r1
     3cc:	01000001 	tsteq	r0, r1
     3d0:	6362696c 	cmnvs	r2, #108, 18	; 0x1b0000
     3d4:	73752f00 	cmnvc	r5, #0, 30
     3d8:	6f6c2f72 	svcvs	0x006c2f72
     3dc:	2f6c6163 	svccs	0x006c6163
     3e0:	6c6c6543 	cfstr64vs	mvdx6, [ip], #-268	; 0xfffffef4
     3e4:	612f7261 	teqvs	pc, r1, ror #4
     3e8:	6e2d6d72 	mcrvs	13, 1, r6, cr13, cr2, {3}
     3ec:	2d656e6f 	stclcs	14, cr6, [r5, #-444]!	; 0xfffffe44
     3f0:	69626165 	stmdbvs	r2!, {r0, r2, r5, r6, r8, sp, lr}^
     3f4:	382e342f 	stmdacc	lr!, {r0, r1, r2, r3, r5, sl, ip, sp}
     3f8:	632d332e 	teqvs	sp, #-1207959552	; 0xb8000000
     3fc:	30373173 	eorscc	r3, r7, r3, ror r1
     400:	696c2f65 	stmdbvs	ip!, {r0, r2, r5, r6, r8, r9, sl, fp, sp}^
     404:	63672f62 	cmnvs	r7, #392	; 0x188
     408:	72612f63 	rsbvc	r2, r1, #396	; 0x18c
     40c:	6f6e2d6d 	svcvs	0x006e2d6d
     410:	652d656e 	strvs	r6, [sp, #-1390]!	; 0x56e
     414:	2f696261 	svccs	0x00696261
     418:	2e382e34 	mrccs	14, 1, r2, cr8, cr4, {1}
     41c:	6e692f33 	mcrvs	15, 3, r2, cr9, cr3, {1}
     420:	64756c63 	ldrbtvs	r6, [r5], #-3171	; 0xc63
     424:	552f0065 	strpl	r0, [pc, #-101]!	; 3c7 <_start-0x7c39>
     428:	73726573 	cmnvc	r2, #482344960	; 0x1cc00000
     42c:	6972622f 	ldmdbvs	r2!, {r0, r1, r2, r3, r5, r9, sp, lr}^
     430:	756a6e61 	strbvc	r6, [sl, #-3681]!	; 0xe61
     434:	65442f6e 	strbvs	r2, [r4, #-3950]	; 0xf6e
     438:	6f746b73 	svcvs	0x00746b73
     43c:	63732f70 	cmnvs	r3, #112, 30	; 0x1c0
     440:	6c6f6f68 	stclvs	15, cr6, [pc], #-416	; 2a8 <_start-0x7d58>
     444:	6e69572f 	cdpvs	7, 6, cr5, cr9, cr15, {1}
     448:	31726574 	cmncc	r2, r4, ror r5
     44c:	2f303239 	svccs	0x00303239
     450:	34315343 	ldrtcc	r5, [r1], #-835	; 0x343
     454:	632f4530 	teqvs	pc, #48, 10	; 0xc000000
     458:	30343173 	eorscc	r3, r4, r3, ror r1
     45c:	30322d65 	eorscc	r2, r2, r5, ror #26
     460:	2f6e6977 	svccs	0x006e6977
     464:	7062696c 	rsbvc	r6, r2, ip, ror #18
     468:	76000069 	strvc	r0, [r0], -r9, rrx
     46c:	72702d61 	rsbsvc	r2, r0, #6208	; 0x1840
     470:	6b746e69 	blvs	1d1be1c <__bss_end__+0x1d11e8c>
     474:	0100632e 	tsteq	r0, lr, lsr #6
     478:	74730000 	ldrbtvc	r0, [r3], #-0
     47c:	67726164 	ldrbvs	r6, [r2, -r4, ror #2]!
     480:	0200682e 	andeq	r6, r0, #3014656	; 0x2e0000
     484:	70720000 	rsbsvc	r0, r2, r0
     488:	00682e69 	rsbeq	r2, r8, r9, ror #28
     48c:	3c000003 	stccc	0, cr0, [r0], {3}
     490:	6c697562 	cfstr64vs	mvdx7, [r9], #-392	; 0xfffffe78
     494:	6e692d74 	mcrvs	13, 3, r2, cr9, cr4, {3}
     498:	0000003e 	andeq	r0, r0, lr, lsr r0
     49c:	05000000 	streq	r0, [r0, #-0]
     4a0:	00830402 	addeq	r0, r3, r2, lsl #8
     4a4:	01260300 	teqeq	r6, r0, lsl #6
     4a8:	3113a501 	tstcc	r3, r1, lsl #10
     4ac:	0402002d 	streq	r0, [r2], #-45	; 0x2d
     4b0:	02002f02 	andeq	r2, r0, #2, 30
     4b4:	002d0204 	eoreq	r0, sp, r4, lsl #4
     4b8:	2f020402 	svccs	0x00020402
     4bc:	01040200 	mrseq	r0, R12_usr
     4c0:	304c4c2d 	subcc	r4, ip, sp, lsr #24
     4c4:	4f2f4b14 	svcmi	0x002f4b14
     4c8:	02040200 	andeq	r0, r4, #0, 4
     4cc:	04020067 	streq	r0, [r2], #-103	; 0x67
     4d0:	4d4c6501 	cfstr64mi	mvdx6, [ip, #-4]
     4d4:	312fa030 	teqcc	pc, r0, lsr r0	; <UNPREDICTABLE>
     4d8:	16260230 			; <UNDEFINED> instruction: 0x16260230
     4dc:	002c2d84 	eoreq	r2, ip, r4, lsl #27
     4e0:	30010402 	andcc	r0, r1, r2, lsl #8
     4e4:	01040200 	mrseq	r0, R12_usr
     4e8:	00660633 	rsbeq	r0, r6, r3, lsr r6
     4ec:	2e010402 	cdpcs	4, 0, cr0, cr1, cr2, {0}
     4f0:	01040200 	mrseq	r0, R12_usr
     4f4:	67210806 	strvs	r0, [r1, -r6, lsl #16]!
     4f8:	8273032f 	rsbshi	r0, r3, #-1140850688	; 0xbc000000
     4fc:	002e1303 	eoreq	r1, lr, r3, lsl #6
     500:	06010402 	streq	r0, [r1], -r2, lsl #8
     504:	0402002e 	streq	r0, [r2], #-46	; 0x2e
     508:	6a9f0601 	bvs	fe7c1d14 <__bss_end__+0xfe7b7d84>
     50c:	2e67034b 	cdpcs	3, 6, cr0, cr7, cr11, {2}
     510:	002e2103 	eoreq	r2, lr, r3, lsl #2
     514:	06010402 	streq	r0, [r1], -r2, lsl #8
     518:	0402002e 	streq	r0, [r2], #-46	; 0x2e
     51c:	009f0601 	addseq	r0, pc, r1, lsl #12
     520:	6a010402 	bvs	41530 <__bss_end__+0x375a0>
     524:	03f32308 	mvnseq	r2, #8, 6	; 0x20000000
     528:	3c087fa6 	stccc	15, cr7, [r8], {166}	; 0xa6
     52c:	0402004b 	streq	r0, [r2], #-75	; 0x4b
     530:	064a0601 	strbeq	r0, [sl], -r1, lsl #12
     534:	2f4b2108 	svccs	0x004b2108
     538:	00d9034b 	sbcseq	r0, r9, fp, asr #6
     53c:	484c83f2 	stmdami	ip, {r1, r4, r5, r6, r7, r8, r9, pc}^
     540:	032e0e03 	teqeq	lr, #3, 28	; 0x30
     544:	2f2f2e75 	svccs	0x002f2e75
     548:	2d2f4b84 	vstmdbcs	pc!, {d4-d5}
     54c:	2f30314d 	svccs	0x0030314d
     550:	04020083 	streq	r0, [r2], #-131	; 0x83
     554:	00a22c01 	adceq	r2, r2, r1, lsl #24
     558:	06010402 	streq	r0, [r1], -r2, lsl #8
     55c:	2208064a 	andcs	r0, r8, #77594624	; 0x4a00000
     560:	03163602 	tsteq	r6, #2097152	; 0x200000
     564:	2108d60e 	tstcs	r8, lr, lsl #12
     568:	f331f330 	vcge.u<illegal width 64>	d15, d1, d16
     56c:	4b30f330 	blmi	c3d234 <__bss_end__+0xc332a4>
     570:	0830f330 	ldmdaeq	r0!, {r4, r5, r8, r9, ip, sp, lr, pc}
     574:	002f3123 	eoreq	r3, pc, r3, lsr #2
     578:	65010402 	strvs	r0, [r1, #-1026]	; 0x402
     57c:	02040200 	andeq	r0, r4, #0, 4
     580:	02004a06 	andeq	r4, r0, #24576	; 0x6000
     584:	03060104 	movweq	r0, #24836	; 0x6104
     588:	02006642 	andeq	r6, r0, #69206016	; 0x4200000
     58c:	66060204 	strvs	r0, [r6], -r4, lsl #4
     590:	00c20306 	sbceq	r0, r2, r6, lsl #6
     594:	1202684a 	andne	r6, r2, #4849664	; 0x4a0000
     598:	43010100 	movwmi	r0, #4352	; 0x1100
     59c:	02000000 	andeq	r0, r0, #0
     5a0:	00002900 	andeq	r2, r0, r0, lsl #18
     5a4:	fb010200 	blx	40dae <__bss_end__+0x36e1e>
     5a8:	01000d0e 	tsteq	r0, lr, lsl #26
     5ac:	00010101 	andeq	r0, r1, r1, lsl #2
     5b0:	00010000 	andeq	r0, r1, r0
     5b4:	73630100 	cmnvc	r3, #0, 2
     5b8:	65303431 	ldrvs	r3, [r0, #-1073]!	; 0x431
     5bc:	6372732d 	cmnvs	r2, #-1275068416	; 0xb4000000
     5c0:	61630000 	cmnvs	r3, r0
     5c4:	2e656863 	cdpcs	8, 6, cr6, cr5, cr3, {3}
     5c8:	00010063 	andeq	r0, r1, r3, rrx
     5cc:	05000000 	streq	r0, [r0, #-0]
     5d0:	00882802 	addeq	r2, r8, r2, lsl #16
     5d4:	30141400 	andscc	r1, r4, r0, lsl #8
     5d8:	31144e2f 	tstcc	r4, pc, lsr #28
     5dc:	0004022f 	andeq	r0, r4, pc, lsr #4
     5e0:	00930101 	addseq	r0, r3, r1, lsl #2
     5e4:	00020000 	andeq	r0, r2, r0
     5e8:	0000007d 	andeq	r0, r0, sp, ror r0
     5ec:	0efb0102 	cdpeq	1, 15, cr0, cr11, cr2, {0}
     5f0:	0101000d 	tsteq	r1, sp
     5f4:	00000101 	andeq	r0, r0, r1, lsl #2
     5f8:	00000100 	andeq	r0, r0, r0, lsl #2
     5fc:	31736301 	cmncc	r3, r1, lsl #6
     600:	2d653034 	stclcs	0, cr3, [r5, #-208]!	; 0xffffff30
     604:	00637273 	rsbeq	r7, r3, r3, ror r2
     608:	6573552f 	ldrbvs	r5, [r3, #-1327]!	; 0x52f
     60c:	622f7372 	eorvs	r7, pc, #-939524095	; 0xc8000001
     610:	6e616972 	mcrvs	9, 3, r6, cr1, cr2, {3}
     614:	2f6e756a 	svccs	0x006e756a
     618:	6b736544 	blvs	1cd9b30 <__bss_end__+0x1ccfba0>
     61c:	2f706f74 	svccs	0x00706f74
     620:	6f686373 	svcvs	0x00686373
     624:	572f6c6f 	strpl	r6, [pc, -pc, ror #24]!
     628:	65746e69 	ldrbvs	r6, [r4, #-3689]!	; 0xe69
     62c:	32393172 	eorscc	r3, r9, #-2147483620	; 0x8000001c
     630:	53432f30 	movtpl	r2, #16176	; 0x3f30
     634:	45303431 	ldrmi	r3, [r0, #-1073]!	; 0x431
     638:	3173632f 	cmncc	r3, pc, lsr #6
     63c:	2d653034 	stclcs	0, cr3, [r5, #-208]!	; 0xffffff30
     640:	69773032 	ldmdbvs	r7!, {r1, r4, r5, ip, sp}^
     644:	696c2f6e 	stmdbvs	ip!, {r1, r2, r3, r5, r6, r8, r9, sl, fp, sp}^
     648:	00697062 	rsbeq	r7, r9, r2, rrx
     64c:	656c6300 	strbvs	r6, [ip, #-768]!	; 0x300
     650:	722d6e61 	eorvc	r6, sp, #1552	; 0x610
     654:	6f6f6265 	svcvs	0x006f6265
     658:	00632e74 	rsbeq	r2, r3, r4, ror lr
     65c:	72000001 	andvc	r0, r0, #1
     660:	682e6970 	stmdavs	lr!, {r4, r5, r6, r8, fp, sp, lr}
     664:	00000200 	andeq	r0, r0, r0, lsl #4
     668:	02050000 	andeq	r0, r5, #0
     66c:	00008848 	andeq	r8, r0, r8, asr #16
     670:	4b832f15 	blmi	fe0cc2cc <__bss_end__+0xfe0c233c>
     674:	01000602 	tsteq	r0, r2, lsl #12
     678:	00012101 	andeq	r2, r1, r1, lsl #2
     67c:	f8000200 			; <UNDEFINED> instruction: 0xf8000200
     680:	02000000 	andeq	r0, r0, #0
     684:	0d0efb01 	vstreq	d15, [lr, #-4]
     688:	01010100 	mrseq	r0, (UNDEF: 17)
     68c:	00000001 	andeq	r0, r0, r1
     690:	01000001 	tsteq	r0, r1
     694:	34317363 	ldrtcc	r7, [r1], #-867	; 0x363
     698:	732d6530 	teqvc	sp, #48, 10	; 0xc000000
     69c:	2f006372 	svccs	0x00006372
     6a0:	2f727375 	svccs	0x00727375
     6a4:	61636f6c 	cmnvs	r3, ip, ror #30
     6a8:	65432f6c 	strbvs	r2, [r3, #-3948]	; 0xf6c
     6ac:	72616c6c 	rsbvc	r6, r1, #108, 24	; 0x6c00
     6b0:	6d72612f 	ldfvse	f6, [r2, #-188]!	; 0xffffff44
     6b4:	6e6f6e2d 	cdpvs	14, 6, cr6, cr15, cr13, {1}
     6b8:	61652d65 	cmnvs	r5, r5, ror #26
     6bc:	342f6962 	strtcc	r6, [pc], #-2402	; 6c4 <_start-0x793c>
     6c0:	332e382e 	teqcc	lr, #3014656	; 0x2e0000
     6c4:	3173632d 	cmncc	r3, sp, lsr #6
     6c8:	2f653037 	svccs	0x00653037
     6cc:	2f62696c 	svccs	0x0062696c
     6d0:	2f636367 	svccs	0x00636367
     6d4:	2d6d7261 	sfmcs	f7, 2, [sp, #-388]!	; 0xfffffe7c
     6d8:	656e6f6e 	strbvs	r6, [lr, #-3950]!	; 0xf6e
     6dc:	6261652d 	rsbvs	r6, r1, #188743680	; 0xb400000
     6e0:	2e342f69 	cdpcs	15, 3, cr2, cr4, cr9, {3}
     6e4:	2f332e38 	svccs	0x00332e38
     6e8:	6c636e69 	stclvs	14, cr6, [r3], #-420	; 0xfffffe5c
     6ec:	00656475 	rsbeq	r6, r5, r5, ror r4
     6f0:	6573552f 	ldrbvs	r5, [r3, #-1327]!	; 0x52f
     6f4:	622f7372 	eorvs	r7, pc, #-939524095	; 0xc8000001
     6f8:	6e616972 	mcrvs	9, 3, r6, cr1, cr2, {3}
     6fc:	2f6e756a 	svccs	0x006e756a
     700:	6b736544 	blvs	1cd9c18 <__bss_end__+0x1ccfc88>
     704:	2f706f74 	svccs	0x00706f74
     708:	6f686373 	svcvs	0x00686373
     70c:	572f6c6f 	strpl	r6, [pc, -pc, ror #24]!
     710:	65746e69 	ldrbvs	r6, [r4, #-3689]!	; 0xe69
     714:	32393172 	eorscc	r3, r9, #-2147483620	; 0x8000001c
     718:	53432f30 	movtpl	r2, #16176	; 0x3f30
     71c:	45303431 	ldrmi	r3, [r0, #-1073]!	; 0x431
     720:	3173632f 	cmncc	r3, pc, lsr #6
     724:	2d653034 	stclcs	0, cr3, [r5, #-208]!	; 0xffffff30
     728:	69773032 	ldmdbvs	r7!, {r1, r4, r5, ip, sp}^
     72c:	696c2f6e 	stmdbvs	ip!, {r1, r2, r3, r5, r6, r8, r9, sl, fp, sp}^
     730:	00697062 	rsbeq	r7, r9, r2, rrx
     734:	74736300 	ldrbtvc	r6, [r3], #-768	; 0x300
     738:	2e747261 	cdpcs	2, 7, cr7, cr4, cr1, {3}
     73c:	00010063 	andeq	r0, r1, r3, rrx
     740:	64747300 	ldrbtvs	r7, [r4], #-768	; 0x300
     744:	2d746e69 	ldclcs	14, cr6, [r4, #-420]!	; 0xfffffe5c
     748:	2e636367 	cdpcs	3, 6, cr6, cr3, cr7, {3}
     74c:	00020068 	andeq	r0, r2, r8, rrx
     750:	2d777300 	ldclcs	3, cr7, [r7, #-0]
     754:	74726175 	ldrbtvc	r6, [r2], #-373	; 0x175
     758:	0100682e 	tsteq	r0, lr, lsr #16
     75c:	6f630000 	svcvs	0x00630000
     760:	6f72746e 	svcvs	0x0072746e
     764:	6c622d6c 	stclvs	13, cr2, [r2], #-432	; 0xfffffe50
     768:	2e6b636f 	cdpcs	3, 6, cr6, cr11, cr15, {3}
     76c:	00010068 	andeq	r0, r1, r8, rrx
     770:	69707200 	ldmdbvs	r0!, {r9, ip, sp, lr}^
     774:	0300682e 	movweq	r6, #2094	; 0x82e
     778:	00000000 	andeq	r0, r0, r0
     77c:	88700205 	ldmdahi	r0!, {r0, r2, r9}^
     780:	4b170000 	blmi	5c0788 <__bss_end__+0x5b67f8>
     784:	31326868 	teqcc	r2, r8, ror #16
     788:	002f2d2f 	eoreq	r2, pc, pc, lsr #26
     78c:	49010402 	stmdbmi	r1, {r1, sl}
     790:	674b2f4f 	strbvs	r2, [fp, -pc, asr #30]
     794:	4e678367 	cdpmi	3, 6, cr8, cr7, cr7, {3}
     798:	0010022f 	andseq	r0, r0, pc, lsr #4
     79c:	00990101 	addseq	r0, r9, r1, lsl #2
     7a0:	00020000 	andeq	r0, r2, r0
     7a4:	00000077 	andeq	r0, r0, r7, ror r0
     7a8:	0efb0102 	cdpeq	1, 15, cr0, cr11, cr2, {0}
     7ac:	0101000d 	tsteq	r1, sp
     7b0:	00000101 	andeq	r0, r0, r1, lsl #2
     7b4:	00000100 	andeq	r0, r0, r0, lsl #2
     7b8:	31736301 	cmncc	r3, r1, lsl #6
     7bc:	2d653034 	stclcs	0, cr3, [r5, #-208]!	; 0xffffff30
     7c0:	00637273 	rsbeq	r7, r3, r3, ror r2
     7c4:	6573552f 	ldrbvs	r5, [r3, #-1327]!	; 0x52f
     7c8:	622f7372 	eorvs	r7, pc, #-939524095	; 0xc8000001
     7cc:	6e616972 	mcrvs	9, 3, r6, cr1, cr2, {3}
     7d0:	2f6e756a 	svccs	0x006e756a
     7d4:	6b736544 	blvs	1cd9cec <__bss_end__+0x1ccfd5c>
     7d8:	2f706f74 	svccs	0x00706f74
     7dc:	6f686373 	svcvs	0x00686373
     7e0:	572f6c6f 	strpl	r6, [pc, -pc, ror #24]!
     7e4:	65746e69 	ldrbvs	r6, [r4, #-3689]!	; 0xe69
     7e8:	32393172 	eorscc	r3, r9, #-2147483620	; 0x8000001c
     7ec:	53432f30 	movtpl	r2, #16176	; 0x3f30
     7f0:	45303431 	ldrmi	r3, [r0, #-1073]!	; 0x431
     7f4:	3173632f 	cmncc	r3, pc, lsr #6
     7f8:	2d653034 	stclcs	0, cr3, [r5, #-208]!	; 0xffffff30
     7fc:	69773032 	ldmdbvs	r7!, {r1, r4, r5, ip, sp}^
     800:	696c2f6e 	stmdbvs	ip!, {r1, r2, r3, r5, r6, r8, r9, sl, fp, sp}^
     804:	00697062 	rsbeq	r7, r9, r2, rrx
     808:	62657200 	rsbvs	r7, r5, #0, 4
     80c:	2e746f6f 	cdpcs	15, 7, cr6, cr4, cr15, {3}
     810:	00010063 	andeq	r0, r1, r3, rrx
     814:	69707200 	ldmdbvs	r0!, {r9, ip, sp, lr}^
     818:	0200682e 	andeq	r6, r0, #3014656	; 0x2e0000
     81c:	00000000 	andeq	r0, r0, r0
     820:	89200205 	stmdbhi	r0!, {r0, r2, r9}
     824:	0d030000 	stceq	0, cr0, [r3, #-0]
     828:	2f311401 	svccs	0x00311401
     82c:	4b2f1585 	blmi	bc5e48 <__bss_end__+0xbbbeb8>
     830:	35672f4d 	strbcc	r2, [r7, #-3917]!	; 0xf4d
     834:	10026752 	andne	r6, r2, r2, asr r7
     838:	a3010100 	movwge	r0, #4352	; 0x1100
     83c:	02000000 	andeq	r0, r0, #0
     840:	00007600 	andeq	r7, r0, r0, lsl #12
     844:	fb010200 	blx	4104e <__bss_end__+0x370be>
     848:	01000d0e 	tsteq	r0, lr, lsl #26
     84c:	00010101 	andeq	r0, r1, r1, lsl #2
     850:	00010000 	andeq	r0, r1, r0
     854:	73630100 	cmnvc	r3, #0, 2
     858:	65303431 	ldrvs	r3, [r0, #-1073]!	; 0x431
     85c:	6372732d 	cmnvs	r2, #-1275068416	; 0xb4000000
     860:	73552f00 	cmpvc	r5, #0, 30
     864:	2f737265 	svccs	0x00737265
     868:	61697262 	cmnvs	r9, r2, ror #4
     86c:	6e756a6e 	vsubvs.f32	s13, s10, s29
     870:	7365442f 	cmnvc	r5, #788529152	; 0x2f000000
     874:	706f746b 	rsbvc	r7, pc, fp, ror #8
     878:	6863732f 	stmdavs	r3!, {r0, r1, r2, r3, r5, r8, r9, ip, sp, lr}^
     87c:	2f6c6f6f 	svccs	0x006c6f6f
     880:	746e6957 	strbtvc	r6, [lr], #-2391	; 0x957
     884:	39317265 	ldmdbcc	r1!, {r0, r2, r5, r6, r9, ip, sp, lr}
     888:	432f3032 	teqmi	pc, #50	; 0x32
     88c:	30343153 	eorscc	r3, r4, r3, asr r1
     890:	73632f45 	cmnvc	r3, #276	; 0x114
     894:	65303431 	ldrvs	r3, [r0, #-1073]!	; 0x431
     898:	7730322d 	ldrvc	r3, [r0, -sp, lsr #4]!
     89c:	6c2f6e69 	stcvs	14, cr6, [pc], #-420	; 700 <_start-0x7900>
     8a0:	69706269 	ldmdbvs	r0!, {r0, r3, r5, r6, r9, sp, lr}^
     8a4:	69740000 	ldmdbvs	r4!, {}^	; <UNPREDICTABLE>
     8a8:	2e72656d 	cdpcs	5, 7, cr6, cr2, cr13, {3}
     8ac:	00010063 	andeq	r0, r1, r3, rrx
     8b0:	69707200 	ldmdbvs	r0!, {r9, ip, sp, lr}^
     8b4:	0200682e 	andeq	r6, r0, #3014656	; 0x2e0000
     8b8:	00000000 	andeq	r0, r0, r0
     8bc:	89940205 	ldmibhi	r4, {r0, r2, r9}
     8c0:	13160000 	tstne	r6, #0
     8c4:	02002d2f 	andeq	r2, r0, #3008	; 0xbc0
     8c8:	2e060104 	adfcss	f0, f6, f4
     8cc:	2f316806 	svccs	0x00316806
     8d0:	31324d4b 	teqcc	r2, fp, asr #26
     8d4:	2f4c4b30 	svccs	0x004c4b30
     8d8:	842f2f6a 	strthi	r2, [pc], #-3946	; 8e0 <_start-0x7720>
     8dc:	0008022f 	andeq	r0, r8, pc, lsr #4
     8e0:	017f0101 	cmneq	pc, r1, lsl #2
     8e4:	00020000 	andeq	r0, r2, r0
     8e8:	000000ca 	andeq	r0, r0, sl, asr #1
     8ec:	0efb0102 	cdpeq	1, 15, cr0, cr11, cr2, {0}
     8f0:	0101000d 	tsteq	r1, sp
     8f4:	00000101 	andeq	r0, r0, r1, lsl #2
     8f8:	00000100 	andeq	r0, r0, r0, lsl #2
     8fc:	2d796d01 	ldclcs	13, cr6, [r9, #-4]!
     900:	00637273 	rsbeq	r7, r3, r3, ror r2
     904:	6573552f 	ldrbvs	r5, [r3, #-1327]!	; 0x52f
     908:	622f7372 	eorvs	r7, pc, #-939524095	; 0xc8000001
     90c:	6e616972 	mcrvs	9, 3, r6, cr1, cr2, {3}
     910:	2f6e756a 	svccs	0x006e756a
     914:	6b736544 	blvs	1cd9e2c <__bss_end__+0x1ccfe9c>
     918:	2f706f74 	svccs	0x00706f74
     91c:	6f686373 	svcvs	0x00686373
     920:	572f6c6f 	strpl	r6, [pc, -pc, ror #24]!
     924:	65746e69 	ldrbvs	r6, [r4, #-3689]!	; 0xe69
     928:	32393172 	eorscc	r3, r9, #-2147483620	; 0x8000001c
     92c:	53432f30 	movtpl	r2, #16176	; 0x3f30
     930:	45303431 	ldrmi	r3, [r0, #-1073]!	; 0x431
     934:	3173632f 	cmncc	r3, pc, lsr #6
     938:	2d653034 	stclcs	0, cr3, [r5, #-208]!	; 0xffffff30
     93c:	69773032 	ldmdbvs	r7!, {r1, r4, r5, ip, sp}^
     940:	696c2f6e 	stmdbvs	ip!, {r1, r2, r3, r5, r6, r8, r9, sl, fp, sp}^
     944:	2f697062 	svccs	0x00697062
     948:	34317363 	ldrtcc	r7, [r1], #-867	; 0x363
     94c:	732d6530 	teqvc	sp, #48, 10	; 0xc000000
     950:	2f006372 	svccs	0x00006372
     954:	72657355 	rsbvc	r7, r5, #1409286145	; 0x54000001
     958:	72622f73 	rsbvc	r2, r2, #460	; 0x1cc
     95c:	6a6e6169 	bvs	1b98f08 <__bss_end__+0x1b8ef78>
     960:	442f6e75 	strtmi	r6, [pc], #-3701	; 968 <_start-0x7698>
     964:	746b7365 	strbtvc	r7, [fp], #-869	; 0x365
     968:	732f706f 	teqvc	pc, #111	; 0x6f
     96c:	6f6f6863 	svcvs	0x006f6863
     970:	69572f6c 	ldmdbvs	r7, {r2, r3, r5, r6, r8, r9, sl, fp, sp}^
     974:	7265746e 	rsbvc	r7, r5, #1845493760	; 0x6e000000
     978:	30323931 	eorscc	r3, r2, r1, lsr r9
     97c:	3153432f 	cmpcc	r3, pc, lsr #6
     980:	2f453034 	svccs	0x00453034
     984:	34317363 	ldrtcc	r7, [r1], #-867	; 0x363
     988:	322d6530 	eorcc	r6, sp, #48, 10	; 0xc000000
     98c:	6e697730 	mcrvs	7, 3, r7, cr9, cr0, {1}
     990:	62696c2f 	rsbvs	r6, r9, #12032	; 0x2f00
     994:	00006970 	andeq	r6, r0, r0, ror r9
     998:	6f697067 	svcvs	0x00697067
     99c:	0100632e 	tsteq	r0, lr, lsr #6
     9a0:	70670000 	rsbvc	r0, r7, r0
     9a4:	682e6f69 	stmdavs	lr!, {r0, r3, r5, r6, r8, r9, sl, fp, sp, lr}
     9a8:	00000200 	andeq	r0, r0, r0, lsl #4
     9ac:	2e697072 	mcrcs	0, 3, r7, cr9, cr2, {3}
     9b0:	00030068 	andeq	r0, r3, r8, rrx
     9b4:	05000000 	streq	r0, [r0, #-0]
     9b8:	008a1c02 	addeq	r1, sl, r2, lsl #24
     9bc:	013e0300 	teqeq	lr, r0, lsl #6
     9c0:	0869504e 	stmdaeq	r9!, {r1, r2, r3, r6, ip, lr}^
     9c4:	67676721 	strbvs	r6, [r7, -r1, lsr #14]!
     9c8:	32676767 	rsbcc	r6, r7, #27000832	; 0x19c0000
     9cc:	dc22084b 	stcle	8, cr0, [r2], #-300	; 0xfffffed4
     9d0:	4e135131 	mrcmi	1, 0, r5, cr3, cr1, {1}
     9d4:	31be3050 			; <UNDEFINED> instruction: 0x31be3050
     9d8:	4f4d1350 	svcmi	0x004d1350
     9dc:	504cc030 	subpl	ip, ip, r0, lsr r0
     9e0:	67210869 	strvs	r0, [r1, -r9, ror #16]!
     9e4:	67676767 	strbvs	r6, [r7, -r7, ror #14]!
     9e8:	084b3267 	stmdaeq	fp, {r0, r1, r2, r5, r6, r9, ip, sp}^
     9ec:	504ca421 	subpl	sl, ip, r1, lsr #8
     9f0:	0369842f 	cmneq	r9, #788529152	; 0x2f000000
     9f4:	0c038275 	sfmeq	f0, 1, [r3], {117}	; 0x75
     9f8:	4e304d2e 	cdpmi	13, 3, cr4, cr0, cr14, {1}
     9fc:	6a4d4c4b 	bvs	1353b30 <__bss_end__+0x1349ba0>
     a00:	2108696b 	tstcs	r8, fp, ror #18
     a04:	67676767 	strbvs	r6, [r7, -r7, ror #14]!
     a08:	4b326767 	blmi	c9a7ac <__bss_end__+0xc9081c>
     a0c:	30c02208 	sbccc	r2, r0, r8, lsl #4
     a10:	504e1351 	subpl	r1, lr, r1, asr r3
     a14:	ba180330 	blt	6016dc <__bss_end__+0x5f774c>
     a18:	2f4c9f31 	svccs	0x004c9f31
     a1c:	2f4e4d52 	svccs	0x004e4d52
     a20:	684b674b 	stmdavs	fp, {r0, r1, r3, r6, r8, r9, sl, sp, lr}^
     a24:	2f4c6767 	svccs	0x004c6767
     a28:	6e4b2f67 	cdpvs	15, 4, cr2, cr11, cr7, {3}
     a2c:	4b2f4e4c 	blmi	bd4364 <__bss_end__+0xbca3d4>
     a30:	67684b67 	strbvs	r4, [r8, -r7, ror #22]!
     a34:	672f4c67 	strvs	r4, [pc, -r7, ror #24]!
     a38:	4b6d4b2f 	blmi	1b536fc <__bss_end__+0x1b4976c>
     a3c:	674b2f4e 	strbvs	r2, [fp, -lr, asr #30]
     a40:	01040200 	mrseq	r0, R12_usr
     a44:	68066606 	stmdavs	r6, {r1, r2, r9, sl, sp, lr}
     a48:	02002f9f 	andeq	r2, r0, #636	; 0x27c
     a4c:	4a060104 	bmi	180e64 <__bss_end__+0x176ed4>
     a50:	032f6806 	teqeq	pc, #393216	; 0x60000
     a54:	0e034a73 	mcreq	10, 0, r4, cr3, cr3, {3}
     a58:	4e4c4d2e 	cdpmi	13, 4, cr4, cr12, cr14, {1}
     a5c:	bcbc4b2f 	fldmiaxlt	ip!, {d4-d26}	;@ Deprecated
     a60:	01000602 	tsteq	r0, r2, lsl #12
     a64:	00034901 	andeq	r4, r3, r1, lsl #18
     a68:	bd000200 	sfmlt	f0, 4, [r0, #-0]
     a6c:	02000001 	andeq	r0, r0, #1
     a70:	0d0efb01 	vstreq	d15, [lr, #-4]
     a74:	01010100 	mrseq	r0, (UNDEF: 17)
     a78:	00000001 	andeq	r0, r0, r1
     a7c:	01000001 	tsteq	r0, r1
     a80:	732d796d 	teqvc	sp, #1785856	; 0x1b4000
     a84:	2f006372 	svccs	0x00006372
     a88:	72657355 	rsbvc	r7, r5, #1409286145	; 0x54000001
     a8c:	72622f73 	rsbvc	r2, r2, #460	; 0x1cc
     a90:	6a6e6169 	bvs	1b9903c <__bss_end__+0x1b8f0ac>
     a94:	442f6e75 	strtmi	r6, [pc], #-3701	; a9c <_start-0x7564>
     a98:	746b7365 	strbtvc	r7, [fp], #-869	; 0x365
     a9c:	732f706f 	teqvc	pc, #111	; 0x6f
     aa0:	6f6f6863 	svcvs	0x006f6863
     aa4:	69572f6c 	ldmdbvs	r7, {r2, r3, r5, r6, r8, r9, sl, fp, sp}^
     aa8:	7265746e 	rsbvc	r7, r5, #1845493760	; 0x6e000000
     aac:	30323931 	eorscc	r3, r2, r1, lsr r9
     ab0:	3153432f 	cmpcc	r3, pc, lsr #6
     ab4:	2f453034 	svccs	0x00453034
     ab8:	34317363 	ldrtcc	r7, [r1], #-867	; 0x363
     abc:	322d6530 	eorcc	r6, sp, #48, 10	; 0xc000000
     ac0:	6e697730 	mcrvs	7, 3, r7, cr9, cr0, {1}
     ac4:	62696c2f 	rsbvs	r6, r9, #12032	; 0x2f00
     ac8:	632f6970 	teqvs	pc, #112, 18	; 0x1c0000
     acc:	30343173 	eorscc	r3, r4, r3, ror r1
     ad0:	72732d65 	rsbsvc	r2, r3, #6464	; 0x1940
     ad4:	752f0063 	strvc	r0, [pc, #-99]!	; a79 <_start-0x7587>
     ad8:	6c2f7273 	sfmvs	f7, 4, [pc], #-460	; 914 <_start-0x76ec>
     adc:	6c61636f 	stclvs	3, cr6, [r1], #-444	; 0xfffffe44
     ae0:	6c65432f 	stclvs	3, cr4, [r5], #-188	; 0xffffff44
     ae4:	2f72616c 	svccs	0x0072616c
     ae8:	2d6d7261 	sfmcs	f7, 2, [sp, #-388]!	; 0xfffffe7c
     aec:	656e6f6e 	strbvs	r6, [lr, #-3950]!	; 0xf6e
     af0:	6261652d 	rsbvs	r6, r1, #188743680	; 0xb400000
     af4:	2e342f69 	cdpcs	15, 3, cr2, cr4, cr9, {3}
     af8:	2d332e38 	ldccs	14, cr2, [r3, #-224]!	; 0xffffff20
     afc:	37317363 	ldrcc	r7, [r1, -r3, ror #6]!
     b00:	6c2f6530 	cfstr32vs	mvfx6, [pc], #-192	; a48 <_start-0x75b8>
     b04:	672f6269 	strvs	r6, [pc, -r9, ror #4]!
     b08:	612f6363 	teqvs	pc, r3, ror #6
     b0c:	6e2d6d72 	mcrvs	13, 1, r6, cr13, cr2, {3}
     b10:	2d656e6f 	stclcs	14, cr6, [r5, #-444]!	; 0xfffffe44
     b14:	69626165 	stmdbvs	r2!, {r0, r2, r5, r6, r8, sp, lr}^
     b18:	382e342f 	stmdacc	lr!, {r0, r1, r2, r3, r5, sl, ip, sp}
     b1c:	692f332e 	stmdbvs	pc!, {r1, r2, r3, r5, r8, r9, ip, sp}	; <UNPREDICTABLE>
     b20:	756c636e 	strbvc	r6, [ip, #-878]!	; 0x36e
     b24:	2f006564 	svccs	0x00006564
     b28:	72657355 	rsbvc	r7, r5, #1409286145	; 0x54000001
     b2c:	72622f73 	rsbvc	r2, r2, #460	; 0x1cc
     b30:	6a6e6169 	bvs	1b990dc <__bss_end__+0x1b8f14c>
     b34:	442f6e75 	strtmi	r6, [pc], #-3701	; b3c <_start-0x74c4>
     b38:	746b7365 	strbtvc	r7, [fp], #-869	; 0x365
     b3c:	732f706f 	teqvc	pc, #111	; 0x6f
     b40:	6f6f6863 	svcvs	0x006f6863
     b44:	69572f6c 	ldmdbvs	r7, {r2, r3, r5, r6, r8, r9, sl, fp, sp}^
     b48:	7265746e 	rsbvc	r7, r5, #1845493760	; 0x6e000000
     b4c:	30323931 	eorscc	r3, r2, r1, lsr r9
     b50:	3153432f 	cmpcc	r3, pc, lsr #6
     b54:	2f453034 	svccs	0x00453034
     b58:	34317363 	ldrtcc	r7, [r1], #-867	; 0x363
     b5c:	322d6530 	eorcc	r6, sp, #48, 10	; 0xc000000
     b60:	6e697730 	mcrvs	7, 3, r7, cr9, cr0, {1}
     b64:	62696c2f 	rsbvs	r6, r9, #12032	; 0x2f00
     b68:	2f006970 	svccs	0x00006970
     b6c:	72657355 	rsbvc	r7, r5, #1409286145	; 0x54000001
     b70:	72622f73 	rsbvc	r2, r2, #460	; 0x1cc
     b74:	6a6e6169 	bvs	1b99120 <__bss_end__+0x1b8f190>
     b78:	442f6e75 	strtmi	r6, [pc], #-3701	; b80 <_start-0x7480>
     b7c:	746b7365 	strbtvc	r7, [fp], #-869	; 0x365
     b80:	732f706f 	teqvc	pc, #111	; 0x6f
     b84:	6f6f6863 	svcvs	0x006f6863
     b88:	69572f6c 	ldmdbvs	r7, {r2, r3, r5, r6, r8, r9, sl, fp, sp}^
     b8c:	7265746e 	rsbvc	r7, r5, #1845493760	; 0x6e000000
     b90:	30323931 	eorscc	r3, r2, r1, lsr r9
     b94:	3153432f 	cmpcc	r3, pc, lsr #6
     b98:	2f453034 	svccs	0x00453034
     b9c:	34317363 	ldrtcc	r7, [r1], #-867	; 0x363
     ba0:	322d6530 	eorcc	r6, sp, #48, 10	; 0xc000000
     ba4:	6e697730 	mcrvs	7, 3, r7, cr9, cr0, {1}
     ba8:	62696c2f 	rsbvs	r6, r9, #12032	; 0x2f00
     bac:	6c2f6970 	stcvs	9, cr6, [pc], #-448	; 9f4 <_start-0x760c>
     bb0:	00636269 	rsbeq	r6, r3, r9, ror #4
     bb4:	2d777300 	ldclcs	3, cr7, [r7, #-0]
     bb8:	74726175 	ldrbtvc	r6, [r2], #-373	; 0x175
     bbc:	0100632e 	tsteq	r0, lr, lsr #6
     bc0:	79630000 	stmdbvc	r3!, {}^	; <UNPREDICTABLE>
     bc4:	2d656c63 	stclcs	12, cr6, [r5, #-396]!	; 0xfffffe74
     bc8:	6c697475 	cfstrdvs	mvd7, [r9], #-468	; 0xfffffe2c
     bcc:	0200682e 	andeq	r6, r0, #3014656	; 0x2e0000
     bd0:	74730000 	ldrbtvc	r0, [r3], #-0
     bd4:	746e6964 	strbtvc	r6, [lr], #-2404	; 0x964
     bd8:	6363672d 	cmnvs	r3, #11796480	; 0xb40000
     bdc:	0300682e 	movweq	r6, #2094	; 0x82e
     be0:	77730000 	ldrbvc	r0, [r3, -r0]!
     be4:	7261752d 	rsbvc	r7, r1, #188743680	; 0xb400000
     be8:	00682e74 	rsbeq	r2, r8, r4, ror lr
     bec:	73000002 	movwvc	r0, #2
     bf0:	72616474 	rsbvc	r6, r1, #116, 8	; 0x74000000
     bf4:	00682e67 	rsbeq	r2, r8, r7, ror #28
     bf8:	67000003 	strvs	r0, [r0, -r3]
     bfc:	2e6f6970 	mcrcs	9, 3, r6, cr15, cr0, {3}
     c00:	00020068 	andeq	r0, r2, r8, rrx
     c04:	69707200 	ldmdbvs	r0!, {r9, ip, sp, lr}^
     c08:	0400682e 	streq	r6, [r0], #-2094	; 0x82e
     c0c:	61760000 	cmnvs	r6, r0
     c10:	6972702d 	ldmdbvs	r2!, {r0, r2, r3, r5, ip, sp, lr}^
     c14:	2e6b746e 	cdpcs	4, 6, cr7, cr11, cr14, {3}
     c18:	00050068 	andeq	r0, r5, r8, rrx
     c1c:	75623c00 	strbvc	r3, [r2, #-3072]!	; 0xc00
     c20:	2d746c69 	ldclcs	12, cr6, [r4, #-420]!	; 0xfffffe5c
     c24:	003e6e69 	eorseq	r6, lr, r9, ror #28
     c28:	00000000 	andeq	r0, r0, r0
     c2c:	bc020500 	cfstr32lt	mvfx0, [r2], {-0}
     c30:	1a00008f 	bne	e74 <_start-0x718c>
     c34:	04302f4c 	ldrteq	r2, [r0], #-3916	; 0xf4c
     c38:	2e0b0302 	cdpcs	3, 0, cr0, cr11, cr2, {0}
     c3c:	04667303 	strbteq	r7, [r6], #-771	; 0x303
     c40:	02048801 	andeq	r8, r4, #65536	; 0x10000
     c44:	66730335 			; <UNDEFINED> instruction: 0x66730335
     c48:	048a0104 	streq	r0, [sl], #260	; 0x104
     c4c:	73033302 	movwvc	r3, #13058	; 0x3302
     c50:	03010466 	movweq	r0, #5222	; 0x1466
     c54:	0204820a 	andeq	r8, r4, #-1610612736	; 0xa0000000
     c58:	66730331 			; <UNDEFINED> instruction: 0x66730331
     c5c:	0c030104 	stfeqs	f0, [r3], {4}
     c60:	2f020482 	svccs	0x00020482
     c64:	04667303 	strbteq	r7, [r6], #-771	; 0x303
     c68:	820e0301 	andhi	r0, lr, #67108864	; 0x4000000
     c6c:	032d0204 	teqeq	sp, #4, 4	; 0x40000000
     c70:	01046673 	tsteq	r4, r3, ror r6
     c74:	04821003 	streq	r1, [r2], #3
     c78:	73032b02 	movwvc	r2, #15106	; 0x3b02
     c7c:	03010466 	movweq	r0, #5222	; 0x1466
     c80:	02048212 	andeq	r8, r4, #536870913	; 0x20000001
     c84:	66730329 	ldrbtvs	r0, [r3], -r9, lsr #6
     c88:	14030104 	strne	r0, [r3], #-260	; 0x104
     c8c:	03020482 	movweq	r0, #9346	; 0x2482
     c90:	73032e79 	movwvc	r2, #15993	; 0x3e79
     c94:	03010466 	movweq	r0, #5222	; 0x1466
     c98:	02048216 	andeq	r8, r4, #1610612737	; 0x60000001
     c9c:	032e7703 	teqeq	lr, #786432	; 0xc0000
     ca0:	01046673 	tsteq	r4, r3, ror r6
     ca4:	03821803 	orreq	r1, r2, #196608	; 0x30000
     ca8:	4d4b2e10 	stclmi	14, cr2, [fp, #-64]	; 0xffffffc0
     cac:	4c2e7003 	stcmi	0, cr7, [lr], #-12
     cb0:	03488384 	movteq	r8, #33668	; 0x8384
     cb4:	314e2e0d 	cmpcc	lr, sp, lsl #28
     cb8:	03020433 	movweq	r0, #9267	; 0x2433
     cbc:	01042e48 	tsteq	r4, r8, asr #28
     cc0:	2f823a03 	svccs	0x00823a03
     cc4:	45030204 	strmi	r0, [r3, #-516]	; 0x204
     cc8:	03010466 	movweq	r0, #5222	; 0x1466
     ccc:	042f823d 	strteq	r8, [pc], #-573	; cd4 <_start-0x732c>
     cd0:	82420302 	subhi	r0, r2, #134217728	; 0x8000000
     cd4:	c0030104 	andgt	r0, r3, r4, lsl #2
     cd8:	042f8200 	strteq	r8, [pc], #-512	; ce0 <_start-0x7320>
     cdc:	7fbf0302 	svcvc	0x00bf0302
     ce0:	03010482 	movweq	r0, #5250	; 0x1482
     ce4:	2f8200c3 	svccs	0x008200c3
     ce8:	bc030204 	sfmlt	f0, 4, [r3], {4}
     cec:	0104827f 	tsteq	r4, pc, ror r2
     cf0:	8200c603 	andhi	ip, r0, #3145728	; 0x300000
     cf4:	0302042f 	movweq	r0, #9263	; 0x242f
     cf8:	04827fb9 	streq	r7, [r2], #4025	; 0xfb9
     cfc:	00c90301 	sbceq	r0, r9, r1, lsl #6
     d00:	02042f82 	andeq	r2, r4, #520	; 0x208
     d04:	827fb603 	rsbshi	fp, pc, #3145728	; 0x300000
     d08:	cc030104 	stfgts	f0, [r3], {4}
     d0c:	042f8200 	strteq	r8, [pc], #-512	; d14 <_start-0x72ec>
     d10:	7fb30302 	svcvc	0x00b30302
     d14:	03010482 	movweq	r0, #5250	; 0x1482
     d18:	038200d0 	orreq	r0, r2, #208	; 0xd0
     d1c:	844c824c 	strbhi	r8, [ip], #-588	; 0x24c
     d20:	36034883 	strcc	r4, [r3], -r3, lsl #17
     d24:	54034e2e 	strpl	r4, [r3], #-3630	; 0xe2e
     d28:	4a29034a 	bmi	a41a58 <__bss_end__+0xa37ac8>
     d2c:	00bb3432 	adcseq	r3, fp, r2, lsr r4
     d30:	06010402 	streq	r0, [r1], -r2, lsl #8
     d34:	2108064a 	tstcs	r8, sl, asr #12
     d38:	2cbb4b4e 	vldmiacs	fp!, {d4-<overflow reg d42>}
     d3c:	01040200 	mrseq	r0, R12_usr
     d40:	6d062e06 	stcvs	14, cr2, [r6, #-24]	; 0xffffffe8
     d44:	00a0dc4c 	adceq	sp, r0, ip, asr #24
     d48:	06010402 	streq	r0, [r1], -r2, lsl #8
     d4c:	2108064a 	tstcs	r8, sl, asr #12
     d50:	0402004d 	streq	r0, [r2], #-77	; 0x4d
     d54:	02004b02 	andeq	r4, r0, #2048	; 0x800
     d58:	00810204 	addeq	r0, r1, r4, lsl #4
     d5c:	06010402 	streq	r0, [r1], -r2, lsl #8
     d60:	4c4d062e 	mcrrmi	6, 2, r0, sp, cr14
     d64:	4b4bd8dd 	blmi	12f70e0 <__bss_end__+0x12ed150>
     d68:	002f6a4b 	eoreq	r6, pc, fp, asr #20
     d6c:	06010402 	streq	r0, [r1], -r2, lsl #8
     d70:	02008282 	andeq	r8, r0, #536870920	; 0x20000008
     d74:	009e0404 	addseq	r0, lr, r4, lsl #8
     d78:	4a010402 	bmi	41d88 <__bss_end__+0x37df8>
     d7c:	88230806 	stmdahi	r3!, {r1, r2, fp}
     d80:	4b4b2ff5 	blmi	12ccd5c <__bss_end__+0x12c2dcc>
     d84:	00674008 	rsbeq	r4, r7, r8
     d88:	2f020402 	svccs	0x00020402
     d8c:	02040200 	andeq	r0, r4, #0, 4
     d90:	04020049 	streq	r0, [r2], #-73	; 0x49
     d94:	062e0601 	strteq	r0, [lr], -r1, lsl #12
     d98:	4b863468 	blmi	fe18df40 <__bss_end__+0xfe183fb0>
     d9c:	040200a0 	streq	r0, [r2], #-160	; 0xa0
     da0:	06660601 	strbteq	r0, [r6], -r1, lsl #12
     da4:	08682108 	stmdaeq	r8!, {r3, r8, sp}^
     da8:	4b674b3e 	blmi	19d3aa8 <__bss_end__+0x19c9b18>
     dac:	000a02d8 	ldrdeq	r0, [sl], -r8
     db0:	008a0101 	addeq	r0, sl, r1, lsl #2
     db4:	00020000 	andeq	r0, r2, r0
     db8:	00000072 	andeq	r0, r0, r2, ror r0
     dbc:	0efb0102 	cdpeq	1, 15, cr0, cr11, cr2, {0}
     dc0:	0101000d 	tsteq	r1, sp
     dc4:	00000101 	andeq	r0, r0, r1, lsl #2
     dc8:	00000100 	andeq	r0, r0, r0, lsl #2
     dcc:	62696c01 	rsbvs	r6, r9, #256	; 0x100
     dd0:	552f0063 	strpl	r0, [pc, #-99]!	; d75 <_start-0x728b>
     dd4:	73726573 	cmnvc	r2, #482344960	; 0x1cc00000
     dd8:	6972622f 	ldmdbvs	r2!, {r0, r1, r2, r3, r5, r9, sp, lr}^
     ddc:	756a6e61 	strbvc	r6, [sl, #-3681]!	; 0xe61
     de0:	65442f6e 	strbvs	r2, [r4, #-3950]	; 0xf6e
     de4:	6f746b73 	svcvs	0x00746b73
     de8:	63732f70 	cmnvs	r3, #112, 30	; 0x1c0
     dec:	6c6f6f68 	stclvs	15, cr6, [pc], #-416	; c54 <_start-0x73ac>
     df0:	6e69572f 	cdpvs	7, 6, cr5, cr9, cr15, {1}
     df4:	31726574 	cmncc	r2, r4, ror r5
     df8:	2f303239 	svccs	0x00303239
     dfc:	34315343 	ldrtcc	r5, [r1], #-835	; 0x343
     e00:	632f4530 	teqvs	pc, #48, 10	; 0xc000000
     e04:	30343173 	eorscc	r3, r4, r3, ror r1
     e08:	30322d65 	eorscc	r2, r2, r5, ror #26
     e0c:	2f6e6977 	svccs	0x006e6977
     e10:	7062696c 	rsbvc	r6, r2, ip, ror #18
     e14:	70000069 	andvc	r0, r0, r9, rrx
     e18:	68637475 	stmdavs	r3!, {r0, r2, r4, r5, r6, sl, ip, sp, lr}^
     e1c:	632e7261 	teqvs	lr, #268435462	; 0x10000006
     e20:	00000100 	andeq	r0, r0, r0, lsl #2
     e24:	2e697072 	mcrcs	0, 3, r7, cr9, cr2, {3}
     e28:	00020068 	andeq	r0, r2, r8, rrx
     e2c:	05000000 	streq	r0, [r0, #-0]
     e30:	00968802 	addseq	r8, r6, r2, lsl #16
     e34:	6b4a1400 	blvs	1285e3c <__bss_end__+0x127beac>
     e38:	0213bc13 	andseq	fp, r3, #4864	; 0x1300
     e3c:	01010008 	tsteq	r1, r8
     e40:	00000128 	andeq	r0, r0, r8, lsr #2
     e44:	010d0002 	tsteq	sp, r2
     e48:	01020000 	mrseq	r0, (UNDEF: 2)
     e4c:	000d0efb 	strdeq	r0, [sp], -fp
     e50:	01010101 	tsteq	r1, r1, lsl #2
     e54:	01000000 	mrseq	r0, (UNDEF: 0)
     e58:	63010000 	movwvs	r0, #4096	; 0x1000
     e5c:	30343173 	eorscc	r3, r4, r3, ror r1
     e60:	72732d65 	rsbsvc	r2, r3, #6464	; 0x1940
     e64:	752f0063 	strvc	r0, [pc, #-99]!	; e09 <_start-0x71f7>
     e68:	6c2f7273 	sfmvs	f7, 4, [pc], #-460	; ca4 <_start-0x735c>
     e6c:	6c61636f 	stclvs	3, cr6, [r1], #-444	; 0xfffffe44
     e70:	6c65432f 	stclvs	3, cr4, [r5], #-188	; 0xffffff44
     e74:	2f72616c 	svccs	0x0072616c
     e78:	2d6d7261 	sfmcs	f7, 2, [sp, #-388]!	; 0xfffffe7c
     e7c:	656e6f6e 	strbvs	r6, [lr, #-3950]!	; 0xf6e
     e80:	6261652d 	rsbvs	r6, r1, #188743680	; 0xb400000
     e84:	2e342f69 	cdpcs	15, 3, cr2, cr4, cr9, {3}
     e88:	2d332e38 	ldccs	14, cr2, [r3, #-224]!	; 0xffffff20
     e8c:	37317363 	ldrcc	r7, [r1, -r3, ror #6]!
     e90:	6c2f6530 	cfstr32vs	mvfx6, [pc], #-192	; dd8 <_start-0x7228>
     e94:	672f6269 	strvs	r6, [pc, -r9, ror #4]!
     e98:	612f6363 	teqvs	pc, r3, ror #6
     e9c:	6e2d6d72 	mcrvs	13, 1, r6, cr13, cr2, {3}
     ea0:	2d656e6f 	stclcs	14, cr6, [r5, #-444]!	; 0xfffffe44
     ea4:	69626165 	stmdbvs	r2!, {r0, r2, r5, r6, r8, sp, lr}^
     ea8:	382e342f 	stmdacc	lr!, {r0, r1, r2, r3, r5, sl, ip, sp}
     eac:	692f332e 	stmdbvs	pc!, {r1, r2, r3, r5, r8, r9, ip, sp}	; <UNPREDICTABLE>
     eb0:	756c636e 	strbvc	r6, [ip, #-878]!	; 0x36e
     eb4:	2f006564 	svccs	0x00006564
     eb8:	2f727375 	svccs	0x00727375
     ebc:	61636f6c 	cmnvs	r3, ip, ror #30
     ec0:	65432f6c 	strbvs	r2, [r3, #-3948]	; 0xf6c
     ec4:	72616c6c 	rsbvc	r6, r1, #108, 24	; 0x6c00
     ec8:	6d72612f 	ldfvse	f6, [r2, #-188]!	; 0xffffff44
     ecc:	6e6f6e2d 	cdpvs	14, 6, cr6, cr15, cr13, {1}
     ed0:	61652d65 	cmnvs	r5, r5, ror #26
     ed4:	342f6962 	strtcc	r6, [pc], #-2402	; edc <_start-0x7124>
     ed8:	332e382e 	teqcc	lr, #3014656	; 0x2e0000
     edc:	3173632d 	cmncc	r3, sp, lsr #6
     ee0:	2f653037 	svccs	0x00653037
     ee4:	2d6d7261 	sfmcs	f7, 2, [sp, #-388]!	; 0xfffffe7c
     ee8:	656e6f6e 	strbvs	r6, [lr, #-3950]!	; 0xf6e
     eec:	6261652d 	rsbvs	r6, r1, #188743680	; 0xb400000
     ef0:	6e692f69 	cdpvs	15, 6, cr2, cr9, cr9, {3}
     ef4:	64756c63 	ldrbtvs	r6, [r5], #-3171	; 0xc63
     ef8:	63000065 	movwvs	r0, #101	; 0x65
     efc:	72746e6f 	rsbsvc	r6, r4, #1776	; 0x6f0
     f00:	622d6c6f 	eorvs	r6, sp, #28416	; 0x6f00
     f04:	6b636f6c 	blvs	18dccbc <__bss_end__+0x18d2d2c>
     f08:	0100632e 	tsteq	r0, lr, lsr #6
     f0c:	74730000 	ldrbtvc	r0, [r3], #-0
     f10:	66656464 	strbtvs	r6, [r5], -r4, ror #8
     f14:	0200682e 	andeq	r6, r0, #3014656	; 0x2e0000
     f18:	74730000 	ldrbtvc	r0, [r3], #-0
     f1c:	746e6964 	strbtvc	r6, [lr], #-2404	; 0x964
     f20:	6363672d 	cmnvs	r3, #11796480	; 0xb40000
     f24:	0200682e 	andeq	r6, r0, #3014656	; 0x2e0000
     f28:	77730000 	ldrbvc	r0, [r3, -r0]!
     f2c:	7261752d 	rsbvc	r7, r1, #188743680	; 0xb400000
     f30:	00682e74 	rsbeq	r2, r8, r4, ror lr
     f34:	63000001 	movwvs	r0, #1
     f38:	72746e6f 	rsbsvc	r6, r4, #1776	; 0x6f0
     f3c:	622d6c6f 	eorvs	r6, sp, #28416	; 0x6f00
     f40:	6b636f6c 	blvs	18dccf8 <__bss_end__+0x18d2d68>
     f44:	0100682e 	tsteq	r0, lr, lsr #16
     f48:	74730000 	ldrbtvc	r0, [r3], #-0
     f4c:	676e6972 			; <UNDEFINED> instruction: 0x676e6972
     f50:	0300682e 	movweq	r6, #2094	; 0x82e
     f54:	00000000 	andeq	r0, r0, r0
     f58:	96c40205 	strbls	r0, [r4], r5, lsl #4
     f5c:	30160000 	andscc	r0, r6, r0
     f60:	144c6883 	strbne	r6, [ip], #-2179	; 0x883
     f64:	022f4b9f 	eoreq	r4, pc, #162816	; 0x27c00
     f68:	01010004 	tsteq	r1, r4
     f6c:	00000101 	andeq	r0, r0, r1, lsl #2
     f70:	00ca0002 	sbceq	r0, sl, r2
     f74:	01020000 	mrseq	r0, (UNDEF: 2)
     f78:	000d0efb 	strdeq	r0, [sp], -fp
     f7c:	01010101 	tsteq	r1, r1, lsl #2
     f80:	01000000 	mrseq	r0, (UNDEF: 0)
     f84:	6d010000 	stcvs	0, cr0, [r1, #-0]
     f88:	72732d79 	rsbsvc	r2, r3, #7744	; 0x1e40
     f8c:	552f0063 	strpl	r0, [pc, #-99]!	; f31 <_start-0x70cf>
     f90:	73726573 	cmnvc	r2, #482344960	; 0x1cc00000
     f94:	6972622f 	ldmdbvs	r2!, {r0, r1, r2, r3, r5, r9, sp, lr}^
     f98:	756a6e61 	strbvc	r6, [sl, #-3681]!	; 0xe61
     f9c:	65442f6e 	strbvs	r2, [r4, #-3950]	; 0xf6e
     fa0:	6f746b73 	svcvs	0x00746b73
     fa4:	63732f70 	cmnvs	r3, #112, 30	; 0x1c0
     fa8:	6c6f6f68 	stclvs	15, cr6, [pc], #-416	; e10 <_start-0x71f0>
     fac:	6e69572f 	cdpvs	7, 6, cr5, cr9, cr15, {1}
     fb0:	31726574 	cmncc	r2, r4, ror r5
     fb4:	2f303239 	svccs	0x00303239
     fb8:	34315343 	ldrtcc	r5, [r1], #-835	; 0x343
     fbc:	632f4530 	teqvs	pc, #48, 10	; 0xc000000
     fc0:	30343173 	eorscc	r3, r4, r3, ror r1
     fc4:	30322d65 	eorscc	r2, r2, r5, ror #26
     fc8:	2f6e6977 	svccs	0x006e6977
     fcc:	7062696c 	rsbvc	r6, r2, ip, ror #18
     fd0:	73632f69 	cmnvc	r3, #420	; 0x1a4
     fd4:	65303431 	ldrvs	r3, [r0, #-1073]!	; 0x431
     fd8:	6372732d 	cmnvs	r2, #-1275068416	; 0xb4000000
     fdc:	73552f00 	cmpvc	r5, #0, 30
     fe0:	2f737265 	svccs	0x00737265
     fe4:	61697262 	cmnvs	r9, r2, ror #4
     fe8:	6e756a6e 	vsubvs.f32	s13, s10, s29
     fec:	7365442f 	cmnvc	r5, #788529152	; 0x2f000000
     ff0:	706f746b 	rsbvc	r7, pc, fp, ror #8
     ff4:	6863732f 	stmdavs	r3!, {r0, r1, r2, r3, r5, r8, r9, ip, sp, lr}^
     ff8:	2f6c6f6f 	svccs	0x006c6f6f
     ffc:	746e6957 	strbtvc	r6, [lr], #-2391	; 0x957
    1000:	39317265 	ldmdbcc	r1!, {r0, r2, r5, r6, r9, ip, sp, lr}
    1004:	432f3032 	teqmi	pc, #50	; 0x32
    1008:	30343153 	eorscc	r3, r4, r3, asr r1
    100c:	73632f45 	cmnvc	r3, #276	; 0x114
    1010:	65303431 	ldrvs	r3, [r0, #-1073]!	; 0x431
    1014:	7730322d 	ldrvc	r3, [r0, -sp, lsr #4]!
    1018:	6c2f6e69 	stcvs	14, cr6, [pc], #-420	; e7c <_start-0x7184>
    101c:	69706269 	ldmdbvs	r0!, {r0, r3, r5, r6, r9, sp, lr}^
    1020:	61750000 	cmnvs	r5, r0
    1024:	632e7472 	teqvs	lr, #1912602624	; 0x72000000
    1028:	00000100 	andeq	r0, r0, r0, lsl #2
    102c:	6f697067 	svcvs	0x00697067
    1030:	0200682e 	andeq	r6, r0, #3014656	; 0x2e0000
    1034:	70720000 	rsbsvc	r0, r2, r0
    1038:	00682e69 	rsbeq	r2, r8, r9, ror #28
    103c:	00000003 	andeq	r0, r0, r3
    1040:	14020500 	strne	r0, [r2], #-1280	; 0x500
    1044:	03000097 	movweq	r0, #151	; 0x97
    1048:	33300136 	teqcc	r0, #-2147483635	; 0x8000000d
    104c:	d8306d67 	ldmdale	r0!, {r0, r1, r2, r5, r6, r8, sl, fp, sp, lr}
    1050:	67676730 			; <UNDEFINED> instruction: 0x67676730
    1054:	86686767 	strbthi	r6, [r8], -r7, ror #14
    1058:	306a672f 	rsbcc	r6, sl, pc, lsr #14
    105c:	2f696767 	svccs	0x00696767
    1060:	674c6a67 	strbvs	r6, [ip, -r7, ror #20]
    1064:	302f2fc1 	eorcc	r2, pc, r1, asr #31
    1068:	3049682f 	subcc	r6, r9, pc, lsr #16
    106c:	01000202 	tsteq	r0, r2, lsl #4
    1070:	0000ec01 	andeq	lr, r0, r1, lsl #24
    1074:	d0000200 	andle	r0, r0, r0, lsl #4
    1078:	02000000 	andeq	r0, r0, #0
    107c:	0d0efb01 	vstreq	d15, [lr, #-4]
    1080:	01010100 	mrseq	r0, (UNDEF: 17)
    1084:	00000001 	andeq	r0, r0, r1
    1088:	01000001 	tsteq	r0, r1
    108c:	6362696c 	cmnvs	r2, #108, 18	; 0x1b0000
    1090:	73752f00 	cmnvc	r5, #0, 30
    1094:	6f6c2f72 	svcvs	0x006c2f72
    1098:	2f6c6163 	svccs	0x006c6163
    109c:	6c6c6543 	cfstr64vs	mvdx6, [ip], #-268	; 0xfffffef4
    10a0:	612f7261 	teqvs	pc, r1, ror #4
    10a4:	6e2d6d72 	mcrvs	13, 1, r6, cr13, cr2, {3}
    10a8:	2d656e6f 	stclcs	14, cr6, [r5, #-444]!	; 0xfffffe44
    10ac:	69626165 	stmdbvs	r2!, {r0, r2, r5, r6, r8, sp, lr}^
    10b0:	382e342f 	stmdacc	lr!, {r0, r1, r2, r3, r5, sl, ip, sp}
    10b4:	632d332e 	teqvs	sp, #-1207959552	; 0xb8000000
    10b8:	30373173 	eorscc	r3, r7, r3, ror r1
    10bc:	696c2f65 	stmdbvs	ip!, {r0, r2, r5, r6, r8, r9, sl, fp, sp}^
    10c0:	63672f62 	cmnvs	r7, #392	; 0x188
    10c4:	72612f63 	rsbvc	r2, r1, #396	; 0x18c
    10c8:	6f6e2d6d 	svcvs	0x006e2d6d
    10cc:	652d656e 	strvs	r6, [sp, #-1390]!	; 0x56e
    10d0:	2f696261 	svccs	0x00696261
    10d4:	2e382e34 	mrccs	14, 1, r2, cr8, cr4, {1}
    10d8:	6e692f33 	mcrvs	15, 3, r2, cr9, cr3, {1}
    10dc:	64756c63 	ldrbtvs	r6, [r5], #-3171	; 0xc63
    10e0:	752f0065 	strvc	r0, [pc, #-101]!	; 1083 <_start-0x6f7d>
    10e4:	6c2f7273 	sfmvs	f7, 4, [pc], #-460	; f20 <_start-0x70e0>
    10e8:	6c61636f 	stclvs	3, cr6, [r1], #-444	; 0xfffffe44
    10ec:	6c65432f 	stclvs	3, cr4, [r5], #-188	; 0xffffff44
    10f0:	2f72616c 	svccs	0x0072616c
    10f4:	2d6d7261 	sfmcs	f7, 2, [sp, #-388]!	; 0xfffffe7c
    10f8:	656e6f6e 	strbvs	r6, [lr, #-3950]!	; 0xf6e
    10fc:	6261652d 	rsbvs	r6, r1, #188743680	; 0xb400000
    1100:	2e342f69 	cdpcs	15, 3, cr2, cr4, cr9, {3}
    1104:	2d332e38 	ldccs	14, cr2, [r3, #-224]!	; 0xffffff20
    1108:	37317363 	ldrcc	r7, [r1, -r3, ror #6]!
    110c:	612f6530 	teqvs	pc, r0, lsr r5	; <UNPREDICTABLE>
    1110:	6e2d6d72 	mcrvs	13, 1, r6, cr13, cr2, {3}
    1114:	2d656e6f 	stclcs	14, cr6, [r5, #-444]!	; 0xfffffe44
    1118:	69626165 	stmdbvs	r2!, {r0, r2, r5, r6, r8, sp, lr}^
    111c:	636e692f 	cmnvs	lr, #770048	; 0xbc000
    1120:	6564756c 	strbvs	r7, [r4, #-1388]!	; 0x56c
    1124:	656d0000 	strbvs	r0, [sp, #-0]!
    1128:	7465736d 	strbtvc	r7, [r5], #-877	; 0x36d
    112c:	0100632e 	tsteq	r0, lr, lsr #6
    1130:	74730000 	ldrbtvc	r0, [r3], #-0
    1134:	66656464 	strbtvs	r6, [r5], -r4, ror #8
    1138:	0200682e 	andeq	r6, r0, #3014656	; 0x2e0000
    113c:	74730000 	ldrbtvc	r0, [r3], #-0
    1140:	676e6972 			; <UNDEFINED> instruction: 0x676e6972
    1144:	0300682e 	movweq	r6, #2094	; 0x82e
    1148:	00000000 	andeq	r0, r0, r0
    114c:	98680205 	stmdals	r8!, {r0, r2, r9}^
    1150:	13140000 	tstne	r4, #0
    1154:	02002f4c 	andeq	r2, r0, #76, 30	; 0x130
    1158:	4d490104 	stfmie	f0, [r9, #-16]
    115c:	01000202 	tsteq	r0, r2, lsl #4
    1160:	Address 0x0000000000001160 is out of bounds.


Disassembly of section .debug_str:

00000000 <.debug_str>:
   0:	6f697067 	svcvs	0x00697067
   4:	726c635f 	rsbvc	r6, ip, #2080374785	; 0x7c000001
   8:	70670030 	rsbvc	r0, r7, r0, lsr r0
   c:	735f6f69 	cmpvc	pc, #420	; 0x1a4
  10:	00307465 	eorseq	r7, r0, r5, ror #8
  14:	6f697067 	svcvs	0x00697067
  18:	6573665f 	ldrbvs	r6, [r3, #-1631]!	; 0x65f
  1c:	2f00306c 	svccs	0x0000306c
  20:	72657355 	rsbvc	r7, r5, #1409286145	; 0x54000001
  24:	72622f73 	rsbvc	r2, r2, #460	; 0x1cc
  28:	6a6e6169 	bvs	1b985d4 <__bss_end__+0x1b8e644>
  2c:	442f6e75 	strtmi	r6, [pc], #-3701	; 34 <_start-0x7fcc>
  30:	746b7365 	strbtvc	r7, [fp], #-869	; 0x365
  34:	732f706f 	teqvc	pc, #111	; 0x6f
  38:	6f6f6863 	svcvs	0x006f6863
  3c:	70532f6c 	subsvc	r2, r3, ip, ror #30
  40:	676e6972 			; <UNDEFINED> instruction: 0x676e6972
  44:	30323931 	eorscc	r3, r2, r1, lsr r9
  48:	3253432f 	subscc	r4, r3, #-1140850688	; 0xbc000000
  4c:	584c3034 	stmdapl	ip, {r2, r4, r5, ip, sp}^
  50:	3273632f 	rsbscc	r6, r3, #-1140850688	; 0xbc000000
  54:	786c3034 	stmdavc	ip!, {r2, r4, r5, ip, sp}^
  58:	7330322d 	teqvc	r0, #-805306366	; 0xd0000002
  5c:	6c2f7270 	sfmvs	f7, 4, [pc], #-448	; fffffea4 <__bss_end__+0xffff5f14>
  60:	2f736261 	svccs	0x00736261
  64:	61752d34 	cmnvs	r5, r4, lsr sp
  68:	382d7472 	stmdacc	sp!, {r1, r4, r5, r6, sl, ip, sp, lr}
  6c:	742f316e 	strtvc	r3, [pc], #-366	; 74 <_start-0x7f8c>
  70:	2d747365 	ldclcs	3, cr7, [r4, #-404]!	; 0xfffffe6c
  74:	006e6567 	rsbeq	r6, lr, r7, ror #10
  78:	74736574 	ldrbtvc	r6, [r3], #-1396	; 0x574
  7c:	6e65675f 	mcrvs	7, 3, r6, cr5, cr15, {2}
  80:	73657400 	cmnvc	r5, #0, 8
  84:	65672d74 	strbvs	r2, [r7, #-3444]!	; 0xd74
  88:	00632e6e 	rsbeq	r2, r3, lr, ror #28
  8c:	4c435047 	mcrrmi	0, 4, r5, r3, cr7
  90:	6e003152 	mcrvs	1, 0, r3, cr0, cr2, {2}
  94:	616d746f 	cmnvs	sp, pc, ror #8
  98:	47006e69 	strmi	r6, [r0, -r9, ror #28]
  9c:	56454c50 			; <UNDEFINED> instruction: 0x56454c50
  a0:	61660031 	cmnvs	r6, r1, lsr r0
  a4:	675f7473 			; <UNDEFINED> instruction: 0x675f7473
  a8:	5f6f6970 	svcpl	0x006f6970
  ac:	5f746573 	svcpl	0x00746573
  b0:	75006e6f 	strvc	r6, [r0, #-3695]	; 0xe6f
  b4:	6769736e 	strbvs	r7, [r9, -lr, ror #6]!
  b8:	2064656e 	rsbcs	r6, r4, lr, ror #10
  bc:	72616863 	rsbvc	r6, r1, #6488064	; 0x630000
  c0:	6c656400 	cfstrdvs	mvd6, [r5], #-0
  c4:	6d5f7961 	ldclvs	9, cr7, [pc, #-388]	; ffffff48 <__bss_end__+0xffff5fb8>
  c8:	6c630073 	stclvs	0, cr0, [r3], #-460	; 0xfffffe34
  cc:	5f6e6165 	svcpl	0x006e6165
  d0:	6f626572 	svcvs	0x00626572
  d4:	4700746f 	strmi	r7, [r0, -pc, ror #8]
  d8:	524c4350 	subpl	r4, ip, #80, 6	; 0x40000001
  dc:	68730030 	ldmdavs	r3!, {r4, r5}^
  e0:	2074726f 	rsbscs	r7, r4, pc, ror #4
  e4:	69736e75 	ldmdbvs	r3!, {r0, r2, r4, r5, r6, r9, sl, fp, sp, lr}^
  e8:	64656e67 	strbtvs	r6, [r5], #-3687	; 0xe67
  ec:	746e6920 	strbtvc	r6, [lr], #-2336	; 0x920
  f0:	53504700 	cmppl	r0, #0, 14
  f4:	00305445 	eorseq	r5, r0, r5, asr #8
  f8:	45535047 	ldrbmi	r5, [r3, #-71]	; 0x47
  fc:	67003154 	smlsdvs	r0, r4, r1, r3
 100:	5f6f6970 	svcpl	0x006f6970
 104:	5f746573 	svcpl	0x00746573
 108:	7074756f 	rsbsvc	r7, r4, pc, ror #10
 10c:	47007475 	smlsdxmi	r0, r5, r4, r7
 110:	45534650 	ldrbmi	r4, [r3, #-1616]	; 0x650
 114:	6c00314c 	stfvss	f3, [r0], {76}	; 0x4c
 118:	20676e6f 	rsbcs	r6, r7, pc, ror #28
 11c:	676e6f6c 	strbvs	r6, [lr, -ip, ror #30]!
 120:	736e7520 	cmnvc	lr, #32, 10	; 0x8000000
 124:	656e6769 	strbvs	r6, [lr, #-1897]!	; 0x769
 128:	6e692064 	cdpvs	0, 6, cr2, cr9, cr4, {3}
 12c:	69750074 	ldmdbvs	r5!, {r2, r4, r5, r6}^
 130:	5f38746e 	svcpl	0x0038746e
 134:	61660074 	smcvs	24580	; 0x6004
 138:	675f7473 			; <UNDEFINED> instruction: 0x675f7473
 13c:	5f6f6970 	svcpl	0x006f6970
 140:	74697277 	strbtvc	r7, [r9], #-631	; 0x277
 144:	69730065 	ldmdbvs	r3!, {r0, r2, r5, r6}^
 148:	7974657a 	ldmdbvc	r4!, {r1, r3, r4, r5, r6, r8, sl, sp, lr}^
 14c:	6c006570 	cfstr32vs	mvfx6, [r0], {112}	; 0x70
 150:	20676e6f 	rsbcs	r6, r7, pc, ror #28
 154:	676e6f6c 	strbvs	r6, [lr, -ip, ror #30]!
 158:	746e6920 	strbtvc	r6, [lr], #-2336	; 0x920
 15c:	73616600 	cmnvc	r1, #0, 12
 160:	70675f74 	rsbvc	r5, r7, r4, ror pc
 164:	735f6f69 	cmpvc	pc, #420	; 0x1a4
 168:	6f5f7465 	svcvs	0x005f7465
 16c:	5f006666 	svcpl	0x00006666
 170:	0074756f 	rsbseq	r7, r4, pc, ror #10
 174:	20554e47 	subscs	r4, r5, r7, asr #28
 178:	2e342043 	cdpcs	0, 3, cr2, cr4, cr3, {2}
 17c:	20332e38 	eorscs	r2, r3, r8, lsr lr
 180:	70636d2d 	rsbvc	r6, r3, sp, lsr #26
 184:	72613d75 	rsbvc	r3, r1, #7488	; 0x1d40
 188:	3731316d 	ldrcc	r3, [r1, -sp, ror #2]!
 18c:	667a6a36 			; <UNDEFINED> instruction: 0x667a6a36
 190:	2d20732d 	stccs	3, cr7, [r0, #-180]!	; 0xffffff4c
 194:	6e75746d 	cdpvs	4, 7, cr7, cr5, cr13, {3}
 198:	72613d65 	rsbvc	r3, r1, #6464	; 0x1940
 19c:	3731316d 	ldrcc	r3, [r1, -sp, ror #2]!
 1a0:	667a6a36 			; <UNDEFINED> instruction: 0x667a6a36
 1a4:	2d20732d 	stccs	3, cr7, [r0, #-180]!	; 0xffffff4c
 1a8:	62646767 	rsbvs	r6, r4, #27000832	; 0x19c0000
 1ac:	334f2d20 	movtcc	r2, #64800	; 0xfd20
 1b0:	74732d20 	ldrbtvc	r2, [r3], #-3360	; 0xd20
 1b4:	6e673d64 	cdpvs	13, 6, cr3, cr7, cr4, {3}
 1b8:	20393975 	eorscs	r3, r9, r5, ror r9
 1bc:	7266662d 	rsbvc	r6, r6, #47185920	; 0x2d00000
 1c0:	74736565 	ldrbtvc	r6, [r3], #-1381	; 0x565
 1c4:	69646e61 	stmdbvs	r4!, {r0, r5, r6, r9, sl, fp, sp, lr}^
 1c8:	7300676e 	movwvc	r6, #1902	; 0x76e
 1cc:	74726f68 	ldrbtvc	r6, [r2], #-3944	; 0xf68
 1d0:	746e6920 	strbtvc	r6, [lr], #-2336	; 0x920
 1d4:	616e6500 	cmnvs	lr, r0, lsl #10
 1d8:	5f656c62 	svcpl	0x00656c62
 1dc:	68636163 	stmdavs	r3!, {r0, r1, r5, r6, r8, sp, lr}^
 1e0:	636e0065 	cmnvs	lr, #101	; 0x65
 1e4:	656c6379 	strbvs	r6, [ip, #-889]!	; 0x379
 1e8:	46504700 	ldrbmi	r4, [r0], -r0, lsl #14
 1ec:	304c4553 	subcc	r4, ip, r3, asr r5
 1f0:	4c504700 	mrrcmi	7, 0, r4, r0, cr0
 1f4:	00305645 	eorseq	r5, r0, r5, asr #12
 1f8:	53465047 	movtpl	r5, #24647	; 0x6047
 1fc:	00324c45 	eorseq	r4, r2, r5, asr #24
 200:	53465047 	movtpl	r5, #24647	; 0x6047
 204:	00334c45 	eorseq	r4, r3, r5, asr #24
 208:	53465047 	movtpl	r5, #24647	; 0x6047
 20c:	00344c45 	eorseq	r4, r4, r5, asr #24
 210:	53465047 	movtpl	r5, #24647	; 0x6047
 214:	00354c45 	eorseq	r4, r5, r5, asr #24
 218:	6e675f5f 	mcrvs	15, 3, r5, cr7, cr15, {2}
 21c:	765f6375 			; <UNDEFINED> instruction: 0x765f6375
 220:	696c5f61 	stmdbvs	ip!, {r0, r5, r6, r8, r9, sl, fp, ip, lr}^
 224:	6c007473 	cfstrsvs	mvf7, [r0], {115}	; 0x73
 228:	2f636269 	svccs	0x00636269
 22c:	6e697270 	mcrvs	2, 3, r7, cr9, cr0, {3}
 230:	632e6b74 	teqvs	lr, #116, 22	; 0x1d000
 234:	554e4700 	strbpl	r4, [lr, #-1792]	; 0x700
 238:	34204320 	strtcc	r4, [r0], #-800	; 0x320
 23c:	332e382e 	teqcc	lr, #3014656	; 0x2e0000
 240:	636d2d20 	cmnvs	sp, #32, 26	; 0x800
 244:	613d7570 	teqvs	sp, r0, ror r5
 248:	31316d72 	teqcc	r1, r2, ror sp
 24c:	7a6a3637 	bvc	1a8db30 <__bss_end__+0x1a83ba0>
 250:	20732d66 	rsbscs	r2, r3, r6, ror #26
 254:	75746d2d 	ldrbvc	r6, [r4, #-3373]!	; 0xd2d
 258:	613d656e 	teqvs	sp, lr, ror #10
 25c:	31316d72 	teqcc	r1, r2, ror sp
 260:	7a6a3637 	bvc	1a8db44 <__bss_end__+0x1a83bb4>
 264:	20732d66 	rsbscs	r2, r3, r6, ror #26
 268:	6467672d 	strbtvs	r6, [r7], #-1837	; 0x72d
 26c:	4f2d2062 	svcmi	0x002d2062
 270:	732d2067 	teqvc	sp, #103	; 0x67
 274:	673d6474 			; <UNDEFINED> instruction: 0x673d6474
 278:	3939756e 	ldmdbcc	r9!, {r1, r2, r3, r5, r6, r8, sl, ip, sp, lr}
 27c:	66662d20 	strbtvs	r2, [r6], -r0, lsr #26
 280:	73656572 	cmnvc	r5, #478150656	; 0x1c800000
 284:	646e6174 	strbtvs	r6, [lr], #-372	; 0x174
 288:	00676e69 	rsbeq	r6, r7, r9, ror #28
 28c:	705f6176 	subsvc	r6, pc, r6, ror r1	; <UNPREDICTABLE>
 290:	746e6972 	strbtvc	r6, [lr], #-2418	; 0x972
 294:	5f5f006b 	svcpl	0x005f006b
 298:	6c5f6176 	ldfvse	f6, [pc], {118}	; 0x76
 29c:	00747369 	rsbseq	r7, r4, r9, ror #6
 2a0:	6573552f 	ldrbvs	r5, [r3, #-1327]!	; 0x52f
 2a4:	622f7372 	eorvs	r7, pc, #-939524095	; 0xc8000001
 2a8:	6e616972 	mcrvs	9, 3, r6, cr1, cr2, {3}
 2ac:	2f6e756a 	svccs	0x006e756a
 2b0:	6b736544 	blvs	1cd97c8 <__bss_end__+0x1ccf838>
 2b4:	2f706f74 	svccs	0x00706f74
 2b8:	6f686373 	svcvs	0x00686373
 2bc:	572f6c6f 	strpl	r6, [pc, -pc, ror #24]!
 2c0:	65746e69 	ldrbvs	r6, [r4, #-3689]!	; 0xe69
 2c4:	32393172 	eorscc	r3, r9, #-2147483620	; 0x8000001c
 2c8:	53432f30 	movtpl	r2, #16176	; 0x3f30
 2cc:	45303431 	ldrmi	r3, [r0, #-1073]!	; 0x431
 2d0:	3173632f 	cmncc	r3, pc, lsr #6
 2d4:	2d653034 	stclcs	0, cr3, [r5, #-208]!	; 0xffffff30
 2d8:	69773032 	ldmdbvs	r7!, {r1, r4, r5, ip, sp}^
 2dc:	696c2f6e 	stmdbvs	ip!, {r1, r2, r3, r5, r6, r8, r9, sl, fp, sp}^
 2e0:	00697062 	rsbeq	r7, r9, r2, rrx
 2e4:	73677261 	cmnvc	r7, #268435462	; 0x10000006
 2e8:	615f5f00 	cmpvs	pc, r0, lsl #30
 2ec:	696c0070 	stmdbvs	ip!, {r4, r5, r6}^
 2f0:	702f6362 	eorvc	r6, pc, r2, ror #6
 2f4:	2e6b7475 	mcrcs	4, 3, r7, cr11, cr5, {3}
 2f8:	6e690063 	cdpvs	0, 6, cr0, cr9, cr3, {3}
 2fc:	6e726574 	mrcvs	5, 3, r6, cr2, cr4, {3}
 300:	705f6c61 	subsvc	r6, pc, r1, ror #24
 304:	006b7475 	rsbeq	r7, fp, r5, ror r4
 308:	5f697072 	svcpl	0x00697072
 30c:	63747570 	cmnvs	r4, #112, 10	; 0x1c000000
 310:	00726168 	rsbseq	r6, r2, r8, ror #2
 314:	5f67656e 	svcpl	0x0067656e
 318:	65720070 	ldrbvs	r0, [r2, #-112]!	; 0x70
 31c:	73726576 	cmnvc	r2, #494927872	; 0x1d800000
 320:	73690065 	cmnvc	r9, #101	; 0x65
 324:	69676964 	stmdbvs	r7!, {r2, r5, r6, r8, fp, sp, lr}^
 328:	5f5f0074 	svcpl	0x005f0074
 32c:	434e5546 	movtmi	r5, #58694	; 0xe546
 330:	4e4f4954 	mcrmi	9, 2, r4, cr15, cr4, {2}
 334:	70005f5f 	andvc	r5, r0, pc, asr pc
 338:	5f737475 	svcpl	0x00737475
 33c:	62007066 	andvs	r7, r0, #102	; 0x66
 340:	00657361 	rsbeq	r7, r5, r1, ror #6
 344:	6e676973 	mcrvs	9, 3, r6, cr7, cr3, {3}
 348:	705f6465 	subsvc	r6, pc, r5, ror #8
 34c:	62696c00 	rsbvs	r6, r9, #0, 24
 350:	61762f63 	cmnvs	r6, r3, ror #30
 354:	6972702d 	ldmdbvs	r2!, {r0, r2, r3, r5, ip, sp, lr}^
 358:	2e6b746e 	cdpcs	4, 6, cr7, cr11, cr14, {3}
 35c:	70720063 	rsbsvc	r0, r2, r3, rrx
 360:	65735f69 	ldrbvs	r5, [r3, #-3945]!	; 0xf69
 364:	756f5f74 	strbvc	r5, [pc, #-3956]!	; fffff3f8 <__bss_end__+0xffff5468>
 368:	74757074 	ldrbtvc	r7, [r5], #-116	; 0x74
 36c:	64697700 	strbtvs	r7, [r9], #-1792	; 0x700
 370:	70006874 	andvc	r6, r0, r4, ror r8
 374:	5f637475 	svcpl	0x00637475
 378:	72007066 	andvc	r7, r0, #102	; 0x66
 37c:	725f6970 	subsvc	r6, pc, #112, 18	; 0x1c0000
 380:	74657365 	strbtvc	r7, [r5], #-869	; 0x365
 384:	7475705f 	ldrbtvc	r7, [r5], #-95	; 0x5f
 388:	6d650063 	stclvs	0, cr0, [r5, #-396]!	; 0xfffffe74
 38c:	64007469 	strvs	r7, [r0], #-1129	; 0x469
 390:	62617369 	rsbvs	r7, r1, #-1543503871	; 0xa4000001
 394:	635f656c 	cmpvs	pc, #108, 10	; 0x1b000000
 398:	65686361 	strbvs	r6, [r8, #-865]!	; 0x361
 39c:	31736300 	cmncc	r3, r0, lsl #6
 3a0:	2d653034 	stclcs	0, cr3, [r5, #-208]!	; 0xffffff30
 3a4:	2f637273 	svccs	0x00637273
 3a8:	68636163 	stmdavs	r3!, {r0, r1, r5, r6, r8, sp, lr}^
 3ac:	00632e65 	rsbeq	r2, r3, r5, ror #28
 3b0:	5f697072 	svcpl	0x00697072
 3b4:	6f626572 	svcvs	0x00626572
 3b8:	6300746f 	movwvs	r7, #1135	; 0x46f
 3bc:	30343173 	eorscc	r3, r4, r3, ror r1
 3c0:	72732d65 	rsbsvc	r2, r3, #6464	; 0x1940
 3c4:	6c632f63 	stclvs	15, cr2, [r3], #-396	; 0xfffffe74
 3c8:	2d6e6165 	stfcse	f6, [lr, #-404]!	; 0xfffffe6c
 3cc:	6f626572 	svcvs	0x00626572
 3d0:	632e746f 	teqvs	lr, #1862270976	; 0x6f000000
 3d4:	746e6900 	strbtvc	r6, [lr], #-2304	; 0x900
 3d8:	616e7265 	cmnvs	lr, r5, ror #4
 3dc:	77735f6c 	ldrbvc	r5, [r3, -ip, ror #30]!
 3e0:	7475705f 	ldrbtvc	r7, [r5], #-95	; 0x5f
 3e4:	72616863 	rsbvc	r6, r1, #6488064	; 0x630000
 3e8:	625f5f00 	subsvs	r5, pc, #0, 30
 3ec:	735f7373 	cmpvc	pc, #-872415231	; 0xcc000001
 3f0:	74726174 	ldrbtvc	r6, [r2], #-372	; 0x174
 3f4:	62005f5f 	andvs	r5, r0, #380	; 0x17c
 3f8:	655f7373 	ldrbvs	r7, [pc, #-883]	; 8d <_start-0x7f73>
 3fc:	6300646e 	movwvs	r6, #1134	; 0x46e
 400:	656c6379 	strbvs	r6, [ip, #-889]!	; 0x379
 404:	7265705f 	rsbvc	r7, r5, #95	; 0x5f
 408:	7469625f 	strbtvc	r6, [r9], #-607	; 0x25f
 40c:	6e6f6300 	cdpvs	3, 6, cr6, cr15, cr0, {0}
 410:	656c6f73 	strbvs	r6, [ip, #-3955]!	; 0xf73
 414:	7261755f 	rsbvc	r7, r1, #398458880	; 0x17c00000
 418:	77730074 			; <UNDEFINED> instruction: 0x77730074
 41c:	7261755f 	rsbvc	r7, r1, #398458880	; 0x17c00000
 420:	72705f74 	rsbsvc	r5, r0, #116, 30	; 0x1d0
 424:	6b746e69 	blvs	1d1bdd0 <__bss_end__+0x1d11e40>
 428:	54555000 	ldrbpl	r5, [r5], #-0
 42c:	53455f43 	movtpl	r5, #24387	; 0x5f43
 430:	41555f50 	cmpmi	r5, r0, asr pc
 434:	73005452 	movwvc	r5, #1106	; 0x452
 438:	61755f77 	cmnvs	r5, r7, ror pc
 43c:	745f7472 	ldrbvc	r7, [pc], #-1138	; 444 <_start-0x7bbc>
 440:	54555000 	ldrbpl	r5, [r5], #-0
 444:	57535f43 	ldrbpl	r5, [r3, -r3, asr #30]
 448:	5241555f 	subpl	r5, r1, #398458880	; 0x17c00000
 44c:	61620054 	qdsubvs	r0, r4, r2
 450:	50006475 	andpl	r6, r0, r5, ror r4
 454:	5f435455 	svcpl	0x00435455
 458:	555f5748 	ldrbpl	r5, [pc, #-1864]	; fffffd18 <__bss_end__+0xffff5d88>
 45c:	00545241 	subseq	r5, r4, r1, asr #4
 460:	7473635f 	ldrbtvc	r6, [r3], #-863	; 0x35f
 464:	00747261 	rsbseq	r7, r4, r1, ror #4
 468:	74726175 	ldrbtvc	r6, [r2], #-373	; 0x175
 46c:	7665645f 			; <UNDEFINED> instruction: 0x7665645f
 470:	7300745f 	movwvc	r7, #1119	; 0x45f
 474:	61755f77 	cmnvs	r5, r7, ror pc
 478:	705f7472 	subsvc	r7, pc, r2, ror r4	; <UNPREDICTABLE>
 47c:	00637475 	rsbeq	r7, r3, r5, ror r4
 480:	746e6f63 	strbtvc	r6, [lr], #-3939	; 0xf63
 484:	5f6c6f72 	svcpl	0x006c6f72
 488:	5f6b6c62 	svcpl	0x006b6c62
 48c:	77730074 			; <UNDEFINED> instruction: 0x77730074
 490:	7261755f 	rsbvc	r7, r1, #398458880	; 0x17c00000
 494:	62630074 	rsbvs	r0, r3, #116	; 0x74
 498:	7465675f 	strbtvc	r6, [r5], #-1887	; 0x75f
 49c:	6f6c625f 	svcvs	0x006c625f
 4a0:	5f006b63 	svcpl	0x00006b63
 4a4:	7373625f 	cmnvc	r3, #-268435451	; 0xf0000005
 4a8:	646e655f 	strbtvs	r6, [lr], #-1375	; 0x55f
 4ac:	63005f5f 	movwvs	r5, #3935	; 0xf5f
 4b0:	30343173 	eorscc	r3, r4, r3, ror r1
 4b4:	72732d65 	rsbsvc	r2, r3, #6464	; 0x1940
 4b8:	73632f63 	cmnvc	r3, #396	; 0x18c
 4bc:	74726174 	ldrbtvc	r6, [r2], #-372	; 0x174
 4c0:	6300632e 	movwvs	r6, #814	; 0x32e
 4c4:	6f736e6f 	svcvs	0x00736e6f
 4c8:	645f656c 	ldrbvs	r6, [pc], #-1388	; 4d0 <_start-0x7b30>
 4cc:	75007665 	strvc	r7, [r0, #-1637]	; 0x665
 4d0:	33746e69 	cmncc	r4, #1680	; 0x690
 4d4:	00745f32 	rsbseq	r5, r4, r2, lsr pc
 4d8:	6967616d 	stmdbvs	r7!, {r0, r2, r3, r5, r6, r8, sp, lr}^
 4dc:	74610063 	strbtvc	r0, [r1], #-99	; 0x63
 4e0:	6573755f 	ldrbvs	r7, [r3, #-1375]!	; 0x55f
 4e4:	656c5f72 	strbvs	r5, [ip, #-3954]!	; 0xf72
 4e8:	006c6576 	rsbeq	r6, ip, r6, ror r5
 4ec:	505f4d50 	subspl	r4, pc, r0, asr sp	; <UNPREDICTABLE>
 4f0:	57535341 	ldrbpl	r5, [r3, -r1, asr #6]
 4f4:	0044524f 	subeq	r5, r4, pc, asr #4
 4f8:	34317363 	ldrtcc	r7, [r1], #-867	; 0x363
 4fc:	732d6530 	teqvc	sp, #48, 10	; 0xc000000
 500:	722f6372 	eorvc	r6, pc, #-939524095	; 0xc8000001
 504:	6f6f6265 	svcvs	0x006f6265
 508:	00632e74 	rsbeq	r2, r3, r4, ror lr
 50c:	525f4d50 	subspl	r4, pc, #80, 26	; 0x1400
 510:	5f435453 	svcpl	0x00435453
 514:	46435257 			; <UNDEFINED> instruction: 0x46435257
 518:	55465f47 	strbpl	r5, [r6, #-3911]	; 0xf47
 51c:	525f4c4c 	subspl	r4, pc, #76, 24	; 0x4c00
 520:	54455345 	strbpl	r5, [r5], #-837	; 0x345
 524:	5f4d5000 	svcpl	0x004d5000
 528:	474f4457 	smlsldmi	r4, pc, r7, r4	; <UNPREDICTABLE>
 52c:	74657300 	strbtvc	r7, [r5], #-768	; 0x300
 530:	6573755f 	ldrbvs	r7, [r3, #-1375]!	; 0x55f
 534:	656c5f72 	strbvs	r5, [ip, #-3954]!	; 0xf72
 538:	006c6576 	rsbeq	r6, ip, r6, ror r5
 53c:	33545550 	cmpcc	r4, #80, 10	; 0x14000000
 540:	4d500032 	ldclmi	0, cr0, [r0, #-200]	; 0xffffff38
 544:	5453525f 	ldrbpl	r5, [r3], #-607	; 0x25f
 548:	70630043 	rsbvc	r0, r3, r3, asr #32
 54c:	74007273 	strvc	r7, [r0], #-627	; 0x273
 550:	72656d69 	rsbvc	r6, r5, #6720	; 0x1a40
 554:	7465675f 	strbtvc	r6, [r5], #-1887	; 0x75f
 558:	6573755f 	ldrbvs	r7, [r3, #-1375]!	; 0x55f
 55c:	61725f63 	cmnvs	r2, r3, ror #30
 560:	65640077 	strbvs	r0, [r4, #-119]!	; 0x77
 564:	5f79616c 	svcpl	0x0079616c
 568:	00636573 	rsbeq	r6, r3, r3, ror r5
 56c:	34317363 	ldrtcc	r7, [r1], #-867	; 0x363
 570:	732d6530 	teqvc	sp, #48, 10	; 0xc000000
 574:	742f6372 	strtvc	r6, [pc], #-882	; 57c <_start-0x7a84>
 578:	72656d69 	rsbvc	r6, r5, #6720	; 0x1a40
 57c:	4700632e 	strmi	r6, [r0, -lr, lsr #6]
 580:	32335445 	eorscc	r5, r3, #1157627904	; 0x45000000
 584:	63697400 	cmnvs	r9, #0, 8
 588:	6400736b 	strvs	r7, [r0], #-875	; 0x36b
 58c:	79616c65 	stmdbvc	r1!, {r0, r2, r5, r6, sl, fp, sp, lr}^
 590:	6379635f 	cmnvs	r9, #2080374785	; 0x7c000001
 594:	0073656c 	rsbseq	r6, r3, ip, ror #10
 598:	616c6564 	cmnvs	ip, r4, ror #10
 59c:	73755f79 	cmnvc	r5, #484	; 0x1e4
 5a0:	6d697400 	cfstrdvs	mvd7, [r9, #-0]
 5a4:	675f7265 	ldrbvs	r7, [pc, -r5, ror #4]
 5a8:	755f7465 	ldrbvc	r7, [pc, #-1125]	; 14b <_start-0x7eb5>
 5ac:	00636573 	rsbeq	r6, r3, r3, ror r5
 5b0:	6f697067 	svcvs	0x00697067
 5b4:	6576655f 	ldrbvs	r6, [r6, #-1375]!	; 0x55f
 5b8:	645f746e 	ldrbvs	r7, [pc], #-1134	; 5c0 <_start-0x7a40>
 5bc:	63657465 	cmnvs	r5, #1694498816	; 0x65000000
 5c0:	00646574 	rsbeq	r6, r4, r4, ror r5
 5c4:	33747570 	cmncc	r4, #112, 10	; 0x1c000000
 5c8:	4e450032 	mcrmi	0, 2, r0, cr5, cr2, {1}
 5cc:	454c4241 	strbmi	r4, [ip, #-577]	; 0x241
 5d0:	5152495f 	cmppl	r2, pc, asr r9
 5d4:	00325f53 	eorseq	r5, r2, r3, asr pc
 5d8:	675f7369 	ldrbvs	r7, [pc, -r9, ror #6]
 5dc:	5f6f6970 	svcpl	0x006f6970
 5e0:	00746e69 	rsbseq	r6, r4, r9, ror #28
 5e4:	4f495047 	svcmi	0x00495047
 5e8:	4e55465f 	mrcmi	6, 2, r4, cr5, cr15, {2}
 5ec:	4e495f43 	cdpmi	15, 4, cr5, cr9, cr3, {2}
 5f0:	00545550 	subseq	r5, r4, r0, asr r5
 5f4:	732d796d 	teqvc	sp, #1785856	; 0x1b4000
 5f8:	672f6372 			; <UNDEFINED> instruction: 0x672f6372
 5fc:	2e6f6970 	mcrcs	9, 3, r6, cr15, cr0, {3}
 600:	6e690063 	cdpvs	0, 6, cr0, cr9, cr3, {3}
 604:	616d5f74 	smcvs	54772	; 0xd5f4
 608:	72006b73 	andvc	r6, r0, #117760	; 0x1cc00
 60c:	735f6765 	cmpvc	pc, #26476544	; 0x1940000
 610:	00746174 	rsbseq	r6, r4, r4, ror r1
 614:	6f697067 	svcvs	0x00697067
 618:	6765725f 			; <UNDEFINED> instruction: 0x6765725f
 61c:	76656400 	strbtvc	r6, [r5], -r0, lsl #8
 620:	7261625f 	rsbvc	r6, r1, #-268435451	; 0xf0000005
 624:	72656972 	rsbvc	r6, r5, #1867776	; 0x1c8000
 628:	69706700 	ldmdbvs	r0!, {r8, r9, sl, sp, lr}^
 62c:	65725f6f 	ldrbvs	r5, [r2, #-3951]!	; 0xf6f
 630:	67006461 	strvs	r6, [r0, -r1, ror #8]
 634:	5f6f6970 	svcpl	0x006f6970
 638:	5f746e69 	svcpl	0x00746e69
 63c:	69736972 	ldmdbvs	r3!, {r1, r4, r5, r6, r8, fp, sp, lr}^
 640:	655f676e 	ldrbvs	r6, [pc, #-1902]	; fffffeda <__bss_end__+0xffff5f4a>
 644:	00656764 	rsbeq	r6, r5, r4, ror #14
 648:	6f697067 	svcvs	0x00697067
 64c:	7465735f 	strbtvc	r7, [r5], #-863	; 0x35f
 650:	6e75665f 	mrcvs	6, 3, r6, cr5, cr15, {2}
 654:	6f697463 	svcvs	0x00697463
 658:	5047006e 	subpl	r0, r7, lr, rrx
 65c:	304e4552 	subcc	r4, lr, r2, asr r5
 660:	52504700 	subspl	r4, r0, #0, 14
 664:	00314e45 	eorseq	r4, r1, r5, asr #28
 668:	6f697067 	svcvs	0x00697067
 66c:	6576655f 	ldrbvs	r6, [r6, #-1375]!	; 0x55f
 670:	635f746e 	cmpvs	pc, #1845493760	; 0x6e000000
 674:	7261656c 	rsbvc	r6, r1, #108, 10	; 0x1b000000
 678:	51524900 	cmppl	r2, r0, lsl #18
 67c:	4e45505f 	mcrmi	0, 2, r5, cr5, cr15, {2}
 680:	474e4944 	strbmi	r4, [lr, -r4, asr #18]
 684:	4900315f 	stmdbmi	r0, {r0, r1, r2, r3, r4, r6, r8, ip, sp}
 688:	505f5152 	subspl	r5, pc, r2, asr r1	; <UNPREDICTABLE>
 68c:	49444e45 	stmdbmi	r4, {r0, r2, r6, r9, sl, fp, lr}^
 690:	325f474e 	subscc	r4, pc, #20447232	; 0x1380000
 694:	74696200 	strbtvc	r6, [r9], #-512	; 0x200
 698:	6b73616d 	blvs	1cd8c54 <__bss_end__+0x1ccecc4>
 69c:	6e756600 	cdpvs	6, 7, cr6, cr5, cr0, {0}
 6a0:	70670063 	rsbvc	r0, r7, r3, rrx
 6a4:	735f6f69 	cmpvc	pc, #420	; 0x1a4
 6a8:	695f7465 	ldmdbvs	pc, {r0, r2, r5, r6, sl, ip, sp, lr}^	; <UNPREDICTABLE>
 6ac:	7475706e 	ldrbtvc	r7, [r5], #-110	; 0x6e
 6b0:	69706700 	ldmdbvs	r0!, {r8, r9, sl, sp, lr}^
 6b4:	6f745f6f 	svcvs	0x00745f6f
 6b8:	656c6767 	strbvs	r6, [ip, #-1895]!	; 0x767
 6bc:	45504700 	ldrbmi	r4, [r0, #-1792]	; 0x700
 6c0:	00305344 	eorseq	r5, r0, r4, asr #6
 6c4:	44455047 	strbmi	r5, [r5], #-71	; 0x47
 6c8:	47003153 	smlsdmi	r0, r3, r1, r3
 6cc:	4e454650 	mcrmi	6, 2, r4, cr5, cr0, {2}
 6d0:	50470030 	subpl	r0, r7, r0, lsr r0
 6d4:	314e4546 	cmpcc	lr, r6, asr #10
 6d8:	49504700 	ldmdbmi	r0, {r8, r9, sl, lr}^
 6dc:	55465f4f 	strbpl	r5, [r6, #-3919]	; 0xf4f
 6e0:	4f5f434e 	svcmi	0x005f434e
 6e4:	55505455 	ldrbpl	r5, [r0, #-1109]	; 0x455
 6e8:	65670054 	strbvs	r0, [r7, #-84]!	; 0x54
 6ec:	00323374 	eorseq	r3, r2, r4, ror r3
 6f0:	6f697067 	svcvs	0x00697067
 6f4:	746e695f 	strbtvc	r6, [lr], #-2399	; 0x95f
 6f8:	6c61665f 	stclvs	6, cr6, [r1], #-380	; 0xfffffe84
 6fc:	676e696c 	strbvs	r6, [lr, -ip, ror #18]!
 700:	6764655f 			; <UNDEFINED> instruction: 0x6764655f
 704:	70670065 	rsbvc	r0, r7, r5, rrx
 708:	665f6f69 	ldrbvs	r6, [pc], -r9, ror #30
 70c:	5f636e75 	svcpl	0x00636e75
 710:	50470074 	subpl	r0, r7, r4, ror r0
 714:	465f4f49 	ldrbmi	r4, [pc], -r9, asr #30
 718:	5f434e55 	svcpl	0x00434e55
 71c:	30544c41 	subscc	r4, r4, r1, asr #24
 720:	49504700 	ldmdbmi	r0, {r8, r9, sl, lr}^
 724:	55465f4f 	strbpl	r5, [r6, #-3919]	; 0xf4f
 728:	415f434e 	cmpmi	pc, lr, asr #6
 72c:	0031544c 	eorseq	r5, r1, ip, asr #8
 730:	4f495047 	svcmi	0x00495047
 734:	4e55465f 	mrcmi	6, 2, r4, cr5, cr15, {2}
 738:	4c415f43 	mcrrmi	15, 4, r5, r1, cr3
 73c:	47003254 	smlsdmi	r0, r4, r2, r3
 740:	5f4f4950 	svcpl	0x004f4950
 744:	434e5546 	movtmi	r5, #58694	; 0xe546
 748:	544c415f 	strbpl	r4, [ip], #-351	; 0x15f
 74c:	50470033 	subpl	r0, r7, r3, lsr r0
 750:	465f4f49 	ldrbmi	r4, [pc], -r9, asr #30
 754:	5f434e55 	svcpl	0x00434e55
 758:	34544c41 	ldrbcc	r4, [r4], #-3137	; 0xc41
 75c:	49504700 	ldmdbmi	r0, {r8, r9, sl, lr}^
 760:	55465f4f 	strbpl	r5, [r6, #-3919]	; 0xf4f
 764:	415f434e 	cmpmi	pc, lr, asr #6
 768:	0035544c 	eorseq	r5, r5, ip, asr #8
 76c:	5f676572 	svcpl	0x00676572
 770:	656c6573 	strbvs	r6, [ip, #-1395]!	; 0x573
 774:	63007463 	movwvs	r7, #1123	; 0x463
 778:	705f6379 	subsvc	r6, pc, r9, ror r3	; <UNPREDICTABLE>
 77c:	625f7265 	subsvs	r7, pc, #1342177286	; 0x50000006
 780:	77007469 	strvc	r7, [r0, -r9, ror #8]
 784:	65746972 	ldrbvs	r6, [r4, #-2418]!	; 0x972
 788:	6379635f 	cmnvs	r9, #2080374785	; 0x7c000001
 78c:	746e755f 	strbtvc	r7, [lr], #-1375	; 0x55f
 790:	73006c69 	movwvc	r6, #3177	; 0xc69
 794:	61755f77 	cmnvs	r5, r7, ror pc
 798:	675f7472 			; <UNDEFINED> instruction: 0x675f7472
 79c:	5f637465 	svcpl	0x00637465
 7a0:	656d6974 	strbvs	r6, [sp, #-2420]!	; 0x974
 7a4:	0074756f 	rsbseq	r7, r4, pc, ror #10
 7a8:	755f7773 	ldrbvc	r7, [pc, #-1907]	; 3d <_start-0x7fc3>
 7ac:	5f747261 	svcpl	0x00747261
 7b0:	73746567 	cmnvc	r4, #432013312	; 0x19c00000
 7b4:	746e755f 	strbtvc	r7, [lr], #-1375	; 0x55f
 7b8:	73006c69 	movwvc	r6, #3177	; 0xc69
 7bc:	61755f77 	cmnvs	r5, r7, ror pc
 7c0:	675f7472 			; <UNDEFINED> instruction: 0x675f7472
 7c4:	00637465 	rsbeq	r7, r3, r5, ror #8
 7c8:	69726564 	ldmdbvs	r2!, {r2, r5, r6, r8, sl, sp, lr}^
 7cc:	00646576 	rsbeq	r6, r4, r6, ror r5
 7d0:	616c6564 	cmnvs	ip, r4, ror #10
 7d4:	636e5f79 	cmnvs	lr, #484	; 0x1e4
 7d8:	656c6379 	strbvs	r6, [ip, #-889]!	; 0x379
 7dc:	77730073 			; <UNDEFINED> instruction: 0x77730073
 7e0:	7261755f 	rsbvc	r7, r1, #398458880	; 0x17c00000
 7e4:	6e695f74 	mcrvs	15, 3, r5, cr9, cr4, {3}
 7e8:	685f7469 	ldmdavs	pc, {r0, r3, r5, r6, sl, ip, sp, lr}^	; <UNPREDICTABLE>
 7ec:	65706c65 	ldrbvs	r6, [r0, #-3173]!	; 0xc65
 7f0:	69740072 	ldmdbvs	r4!, {r1, r4, r5, r6}^
 7f4:	756f656d 	strbvc	r6, [pc, #-1389]!	; 28f <_start-0x7d71>
 7f8:	73755f74 	cmnvc	r5, #116, 30	; 0x1d0
 7fc:	73006365 	movwvc	r6, #869	; 0x365
 800:	61755f77 	cmnvs	r5, r7, ror pc
 804:	705f7472 	subsvc	r7, pc, r2, ror r4	; <UNPREDICTABLE>
 808:	006b7475 	rsbeq	r7, fp, r5, ror r4
 80c:	732d796d 	teqvc	sp, #1785856	; 0x1b4000
 810:	732f6372 	teqvc	pc, #-939524095	; 0xc8000001
 814:	61752d77 	cmnvs	r5, r7, ror sp
 818:	632e7472 	teqvs	lr, #1912602624	; 0x72000000
 81c:	61686300 	cmnvs	r8, r0, lsl #6
 820:	6e695f72 	mcrvs	15, 3, r5, cr9, cr2, {3}
 824:	5f777300 	svcpl	0x00777300
 828:	74726175 	ldrbtvc	r6, [r2], #-373	; 0x175
 82c:	7465675f 	strbtvc	r6, [r5], #-1887	; 0x75f
 830:	69745f73 	ldmdbvs	r4!, {r0, r1, r4, r5, r6, r8, r9, sl, fp, ip, lr}^
 834:	756f656d 	strbvc	r6, [pc, #-1389]!	; 2cf <_start-0x7d31>
 838:	626e0074 	rsbvs	r0, lr, #116	; 0x74
 83c:	73657479 	cmnvc	r5, #2030043136	; 0x79000000
 840:	65737500 	ldrbvs	r7, [r3, #-1280]!	; 0x500
 844:	69745f63 	ldmdbvs	r4!, {r0, r1, r5, r6, r8, r9, sl, fp, ip, lr}^
 848:	756f656d 	strbvc	r6, [pc, #-1389]!	; 2e3 <_start-0x7d1d>
 84c:	77730074 			; <UNDEFINED> instruction: 0x77730074
 850:	7261755f 	rsbvc	r7, r1, #398458880	; 0x17c00000
 854:	65675f74 	strbvs	r5, [r7, #-3956]!	; 0xf74
 858:	755f7374 	ldrbvc	r7, [pc, #-884]	; 4ec <_start-0x7b14>
 85c:	6c69746e 	cfstrdvs	mvd7, [r9], #-440	; 0xfffffe48
 860:	6b6c625f 	blvs	1b191e4 <__bss_end__+0x1b0f254>
 864:	69617700 	stmdbvs	r1!, {r8, r9, sl, ip, sp, lr}^
 868:	6e755f74 	mrcvs	15, 3, r5, cr5, cr4, {3}
 86c:	5f6c6974 	svcpl	0x006c6974
 870:	63657375 	cmnvs	r5, #-738197503	; 0xd4000001
 874:	746e6900 	strbtvc	r6, [lr], #-2304	; 0x900
 878:	616e7265 	cmnvs	lr, r5, ror #4
 87c:	75705f6c 	ldrbvc	r5, [r0, #-3948]!	; 0xf6c
 880:	61686374 	smcvs	34356	; 0x8634
 884:	696c0072 	stmdbvs	ip!, {r1, r4, r5, r6}^
 888:	702f6362 	eorvc	r6, pc, r2, ror #6
 88c:	68637475 	stmdavs	r3!, {r0, r2, r4, r5, r6, sl, ip, sp, lr}^
 890:	632e7261 	teqvs	lr, #268435462	; 0x10000006
 894:	69707200 	ldmdbvs	r0!, {r9, ip, sp, lr}^
 898:	7465735f 	strbtvc	r7, [r5], #-863	; 0x35f
 89c:	7475705f 	ldrbtvc	r7, [r5], #-95	; 0x5f
 8a0:	69730063 	ldmdbvs	r3!, {r0, r1, r5, r6}^
 8a4:	745f657a 	ldrbvc	r6, [pc], #-1402	; 8ac <_start-0x7754>
 8a8:	6d656d00 	stclvs	13, cr6, [r5, #-0]
 8ac:	00746573 	rsbseq	r6, r4, r3, ror r5
 8b0:	6e5f6263 	cdpvs	2, 5, cr6, cr15, cr3, {3}
 8b4:	63007765 	movwvs	r7, #1893	; 0x765
 8b8:	30343173 	eorscc	r3, r4, r3, ror r1
 8bc:	72732d65 	rsbsvc	r2, r3, #6464	; 0x1940
 8c0:	6f632f63 	svcvs	0x00632f63
 8c4:	6f72746e 	svcvs	0x0072746e
 8c8:	6c622d6c 	stclvs	13, cr2, [r2], #-432	; 0xfffffe50
 8cc:	2e6b636f 	cdpcs	3, 6, cr6, cr11, cr15, {3}
 8d0:	55410063 	strbpl	r0, [r1, #-99]	; 0x63
 8d4:	554d5f58 	strbpl	r5, [sp, #-3928]	; 0xf58
 8d8:	52434d5f 	subpl	r4, r3, #6080	; 0x17c0
 8dc:	4745525f 	smlsldmi	r5, r5, pc, r2	; <UNPREDICTABLE>
 8e0:	58554100 	ldmdapl	r5, {r8, lr}^
 8e4:	5f554d5f 	svcpl	0x00554d5f
 8e8:	525f4f49 	subspl	r4, pc, #292	; 0x124
 8ec:	41004745 	tstmi	r0, r5, asr #14
 8f0:	4d5f5855 	ldclmi	8, cr5, [pc, #-340]	; 7a4 <_start-0x785c>
 8f4:	534d5f55 	movtpl	r5, #57173	; 0xdf55
 8f8:	45525f52 	ldrbmi	r5, [r2, #-3922]	; 0xf52
 8fc:	61750047 	cmnvs	r5, r7, asr #32
 900:	635f7472 	cmpvs	pc, #1912602624	; 0x72000000
 904:	675f6e61 	ldrbvs	r6, [pc, -r1, ror #28]
 908:	00637465 	rsbeq	r7, r3, r5, ror #8
 90c:	5f585541 	svcpl	0x00585541
 910:	435f554d 	cmpmi	pc, #322961408	; 0x13400000
 914:	5f4c544e 	svcpl	0x004c544e
 918:	00474552 	subeq	r4, r7, r2, asr r5
 91c:	74726175 	ldrbtvc	r6, [r2], #-373	; 0x175
 920:	7361685f 	cmnvc	r1, #6225920	; 0x5f0000
 924:	7461645f 	strbtvc	r6, [r1], #-1119	; 0x45f
 928:	61750061 	cmnvs	r5, r1, rrx
 92c:	695f7472 	ldmdbvs	pc, {r1, r4, r5, r6, sl, ip, sp, lr}^	; <UNPREDICTABLE>
 930:	0074696e 	rsbseq	r6, r4, lr, ror #18
 934:	5f585541 	svcpl	0x00585541
 938:	495f554d 	ldmdbmi	pc, {r0, r2, r3, r6, r8, sl, ip, lr}^	; <UNPREDICTABLE>
 93c:	525f5245 	subspl	r5, pc, #1342177284	; 0x50000004
 940:	41004745 	tstmi	r0, r5, asr #14
 944:	4d5f5855 	ldclmi	8, cr5, [pc, #-340]	; 7f8 <_start-0x7808>
 948:	49495f55 	stmdbmi	r9, {r0, r2, r4, r6, r8, r9, sl, fp, ip, lr}^
 94c:	45525f52 	ldrbmi	r5, [r2, #-3922]	; 0xf52
 950:	61750047 	cmnvs	r5, r7, asr #32
 954:	635f7472 	cmpvs	pc, #1912602624	; 0x72000000
 958:	705f6e61 	subsvc	r6, pc, r1, ror #28
 95c:	00637475 	rsbeq	r7, r3, r5, ror r4
 960:	5f585541 	svcpl	0x00585541
 964:	42414e45 	submi	r4, r1, #1104	; 0x450
 968:	0053454c 	subseq	r4, r3, ip, asr #10
 96c:	5f585541 	svcpl	0x00585541
 970:	00515249 	subseq	r5, r1, r9, asr #4
 974:	5f585541 	svcpl	0x00585541
 978:	425f554d 	subsmi	r5, pc, #322961408	; 0x13400000
 97c:	5f445541 	svcpl	0x00445541
 980:	00474552 	subeq	r4, r7, r2, asr r5
 984:	5f585541 	svcpl	0x00585541
 988:	535f554d 	cmppl	pc, #322961408	; 0x13400000
 98c:	5f544154 	svcpl	0x00544154
 990:	00474552 	subeq	r4, r7, r2, asr r5
 994:	5f585541 	svcpl	0x00585541
 998:	535f554d 	cmppl	pc, #322961408	; 0x13400000
 99c:	54415243 	strbpl	r5, [r1], #-579	; 0x243
 9a0:	6d004843 	stcvs	8, cr4, [r0, #-268]	; 0xfffffef4
 9a4:	72732d79 	rsbsvc	r2, r3, #7744	; 0x1e40
 9a8:	61752f63 	cmnvs	r5, r3, ror #30
 9ac:	632e7472 	teqvs	lr, #1912602624	; 0x72000000
 9b0:	58554100 	ldmdapl	r5, {r8, lr}^
 9b4:	5f554d5f 	svcpl	0x00554d5f
 9b8:	5f52434c 	svcpl	0x0052434c
 9bc:	00474552 	subeq	r4, r7, r2, asr r5
 9c0:	5f585541 	svcpl	0x00585541
 9c4:	4c5f554d 	cfldr64mi	mvdx5, [pc], {77}	; 0x4d
 9c8:	525f5253 	subspl	r5, pc, #805306373	; 0x30000005
 9cc:	75004745 	strvc	r4, [r0, #-1861]	; 0x745
 9d0:	5f747261 	svcpl	0x00747261
 9d4:	63746567 	cmnvs	r4, #432013312	; 0x19c00000
 9d8:	7973615f 	ldmdbvc	r3!, {r0, r1, r2, r3, r4, r6, r8, sp, lr}^
 9dc:	6c00636e 	stcvs	3, cr6, [r0], {110}	; 0x6e
 9e0:	2f636269 	svccs	0x00636269
 9e4:	736d656d 	cmnvc	sp, #457179136	; 0x1b400000
 9e8:	632e7465 	teqvs	lr, #1694498816	; 0x65000000
	...

Disassembly of section .debug_frame:

00000000 <.debug_frame>:
   0:	0000000c 	andeq	r0, r0, ip
   4:	ffffffff 			; <UNDEFINED> instruction: 0xffffffff
   8:	7c020001 	stcvc	0, cr0, [r2], {1}
   c:	000d0c0e 	andeq	r0, sp, lr, lsl #24
  10:	00000018 	andeq	r0, r0, r8, lsl r0
  14:	00000000 	andeq	r0, r0, r0
  18:	00008010 	andeq	r8, r0, r0, lsl r0
  1c:	00000218 	andeq	r0, r0, r8, lsl r2
  20:	840c0e42 	strhi	r0, [ip], #-3650	; 0xe42
  24:	86028503 	strhi	r8, [r2], -r3, lsl #10
  28:	00000001 	andeq	r0, r0, r1
  2c:	00000014 	andeq	r0, r0, r4, lsl r0
  30:	00000000 	andeq	r0, r0, r0
  34:	00008228 	andeq	r8, r0, r8, lsr #4
  38:	00000050 	andeq	r0, r0, r0, asr r0
  3c:	83080e42 	movwhi	r0, #36418	; 0x8e42
  40:	00018e02 	andeq	r8, r1, r2, lsl #28
  44:	0000000c 	andeq	r0, r0, ip
  48:	ffffffff 			; <UNDEFINED> instruction: 0xffffffff
  4c:	7c020001 	stcvc	0, cr0, [r2], {1}
  50:	000d0c0e 	andeq	r0, sp, lr, lsl #24
  54:	00000024 	andeq	r0, r0, r4, lsr #32
  58:	00000044 	andeq	r0, r0, r4, asr #32
  5c:	00008278 	andeq	r8, r0, r8, ror r2
  60:	00000058 	andeq	r0, r0, r8, asr r0
  64:	80100e42 	andshi	r0, r0, r2, asr #28
  68:	82038104 	andhi	r8, r3, #4, 2
  6c:	42018302 	andmi	r8, r1, #134217728	; 0x8000000
  70:	07841c0e 	streq	r1, [r4, lr, lsl #24]
  74:	058e0685 	streq	r0, [lr, #1669]	; 0x685
  78:	00280e42 	eoreq	r0, r8, r2, asr #28
  7c:	0000000c 	andeq	r0, r0, ip
  80:	ffffffff 			; <UNDEFINED> instruction: 0xffffffff
  84:	7c020001 	stcvc	0, cr0, [r2], {1}
  88:	000d0c0e 	andeq	r0, sp, lr, lsl #24
  8c:	00000018 	andeq	r0, r0, r8, lsl r0
  90:	0000007c 	andeq	r0, r0, ip, ror r0
  94:	000082d0 	ldrdeq	r8, [r0], -r0
  98:	00000034 	andeq	r0, r0, r4, lsr r0
  9c:	83100e42 	tsthi	r0, #1056	; 0x420
  a0:	85038404 	strhi	r8, [r3, #-1028]	; 0x404
  a4:	00018e02 	andeq	r8, r1, r2, lsl #28
  a8:	0000000c 	andeq	r0, r0, ip
  ac:	ffffffff 			; <UNDEFINED> instruction: 0xffffffff
  b0:	7c020001 	stcvc	0, cr0, [r2], {1}
  b4:	000d0c0e 	andeq	r0, sp, lr, lsl #24
  b8:	0000000c 	andeq	r0, r0, ip
  bc:	000000a8 	andeq	r0, r0, r8, lsr #1
  c0:	00008304 	andeq	r8, r0, r4, lsl #6
  c4:	00000014 	andeq	r0, r0, r4, lsl r0
  c8:	0000000c 	andeq	r0, r0, ip
  cc:	000000a8 	andeq	r0, r0, r8, lsr #1
  d0:	00008318 	andeq	r8, r0, r8, lsl r3
  d4:	0000002c 	andeq	r0, r0, ip, lsr #32
  d8:	0000000c 	andeq	r0, r0, ip
  dc:	000000a8 	andeq	r0, r0, r8, lsr #1
  e0:	00008344 	andeq	r8, r0, r4, asr #6
  e4:	00000040 	andeq	r0, r0, r0, asr #32
  e8:	00000020 	andeq	r0, r0, r0, lsr #32
  ec:	000000a8 	andeq	r0, r0, r8, lsr #1
  f0:	00008384 	andeq	r8, r0, r4, lsl #7
  f4:	000001a8 	andeq	r0, r0, r8, lsr #3
  f8:	84180e42 	ldrhi	r0, [r8], #-3650	; 0xe42
  fc:	86058506 	strhi	r8, [r5], -r6, lsl #10
 100:	88038704 	stmdahi	r3, {r2, r8, r9, sl, pc}
 104:	42018e02 	andmi	r8, r1, #2, 28
 108:	0000600e 	andeq	r6, r0, lr
 10c:	00000014 	andeq	r0, r0, r4, lsl r0
 110:	000000a8 	andeq	r0, r0, r8, lsr #1
 114:	0000852c 	andeq	r8, r0, ip, lsr #10
 118:	00000068 	andeq	r0, r0, r8, rrx
 11c:	8e040e42 	cdphi	14, 0, cr0, cr4, cr2, {2}
 120:	100e4201 	andne	r4, lr, r1, lsl #4
 124:	00000028 	andeq	r0, r0, r8, lsr #32
 128:	000000a8 	andeq	r0, r0, r8, lsr #1
 12c:	00008594 	muleq	r0, r4, r5
 130:	00000294 	muleq	r0, r4, r2
 134:	84240e42 	strthi	r0, [r4], #-3650	; 0xe42
 138:	86088509 	strhi	r8, [r8], -r9, lsl #10
 13c:	88068707 	stmdahi	r6, {r0, r1, r2, r8, r9, sl, pc}
 140:	8a048905 	bhi	12255c <__bss_end__+0x1185cc>
 144:	8e028b03 	vmlahi.f64	d8, d2, d3
 148:	b00e4201 	andlt	r4, lr, r1, lsl #4
 14c:	00000001 	andeq	r0, r0, r1
 150:	0000000c 	andeq	r0, r0, ip
 154:	ffffffff 			; <UNDEFINED> instruction: 0xffffffff
 158:	7c020001 	stcvc	0, cr0, [r2], {1}
 15c:	000d0c0e 	andeq	r0, sp, lr, lsl #24
 160:	0000000c 	andeq	r0, r0, ip
 164:	00000150 	andeq	r0, r0, r0, asr r1
 168:	00008828 	andeq	r8, r0, r8, lsr #16
 16c:	00000010 	andeq	r0, r0, r0, lsl r0
 170:	0000000c 	andeq	r0, r0, ip
 174:	00000150 	andeq	r0, r0, r0, asr r1
 178:	00008838 	andeq	r8, r0, r8, lsr r8
 17c:	00000010 	andeq	r0, r0, r0, lsl r0
 180:	0000000c 	andeq	r0, r0, ip
 184:	ffffffff 			; <UNDEFINED> instruction: 0xffffffff
 188:	7c020001 	stcvc	0, cr0, [r2], {1}
 18c:	000d0c0e 	andeq	r0, sp, lr, lsl #24
 190:	00000014 	andeq	r0, r0, r4, lsl r0
 194:	00000180 	andeq	r0, r0, r0, lsl #3
 198:	00008848 	andeq	r8, r0, r8, asr #16
 19c:	00000028 	andeq	r0, r0, r8, lsr #32
 1a0:	83080e42 	movwhi	r0, #36418	; 0x8e42
 1a4:	00018e02 	andeq	r8, r1, r2, lsl #28
 1a8:	0000000c 	andeq	r0, r0, ip
 1ac:	ffffffff 			; <UNDEFINED> instruction: 0xffffffff
 1b0:	7c020001 	stcvc	0, cr0, [r2], {1}
 1b4:	000d0c0e 	andeq	r0, sp, lr, lsl #24
 1b8:	00000014 	andeq	r0, r0, r4, lsl r0
 1bc:	000001a8 	andeq	r0, r0, r8, lsr #3
 1c0:	00008870 	andeq	r8, r0, r0, ror r8
 1c4:	00000020 	andeq	r0, r0, r0, lsr #32
 1c8:	84080e42 	strhi	r0, [r8], #-3650	; 0xe42
 1cc:	00018e02 	andeq	r8, r1, r2, lsl #28
 1d0:	00000014 	andeq	r0, r0, r4, lsl r0
 1d4:	000001a8 	andeq	r0, r0, r8, lsr #3
 1d8:	00008890 	muleq	r0, r0, r8
 1dc:	00000090 	muleq	r0, r0, r0
 1e0:	83080e42 	movwhi	r0, #36418	; 0x8e42
 1e4:	00018e02 	andeq	r8, r1, r2, lsl #28
 1e8:	0000000c 	andeq	r0, r0, ip
 1ec:	ffffffff 			; <UNDEFINED> instruction: 0xffffffff
 1f0:	7c020001 	stcvc	0, cr0, [r2], {1}
 1f4:	000d0c0e 	andeq	r0, sp, lr, lsl #24
 1f8:	0000000c 	andeq	r0, r0, ip
 1fc:	000001e8 	andeq	r0, r0, r8, ror #3
 200:	00008920 	andeq	r8, r0, r0, lsr #18
 204:	00000018 	andeq	r0, r0, r8, lsl r0
 208:	0000000c 	andeq	r0, r0, ip
 20c:	000001e8 	andeq	r0, r0, r8, ror #3
 210:	00008938 	andeq	r8, r0, r8, lsr r9
 214:	00000014 	andeq	r0, r0, r4, lsl r0
 218:	00000014 	andeq	r0, r0, r4, lsl r0
 21c:	000001e8 	andeq	r0, r0, r8, ror #3
 220:	0000894c 	andeq	r8, r0, ip, asr #18
 224:	00000048 	andeq	r0, r0, r8, asr #32
 228:	83080e42 	movwhi	r0, #36418	; 0x8e42
 22c:	00018e02 	andeq	r8, r1, r2, lsl #28
 230:	0000000c 	andeq	r0, r0, ip
 234:	ffffffff 			; <UNDEFINED> instruction: 0xffffffff
 238:	7c020001 	stcvc	0, cr0, [r2], {1}
 23c:	000d0c0e 	andeq	r0, sp, lr, lsl #24
 240:	0000000c 	andeq	r0, r0, ip
 244:	00000230 	andeq	r0, r0, r0, lsr r2
 248:	00008994 	muleq	r0, r4, r9
 24c:	0000001c 	andeq	r0, r0, ip, lsl r0
 250:	00000014 	andeq	r0, r0, r4, lsl r0
 254:	00000230 	andeq	r0, r0, r0, lsr r2
 258:	000089b0 			; <UNDEFINED> instruction: 0x000089b0
 25c:	00000014 	andeq	r0, r0, r4, lsl r0
 260:	83080e42 	movwhi	r0, #36418	; 0x8e42
 264:	00018e02 	andeq	r8, r1, r2, lsl #28
 268:	00000014 	andeq	r0, r0, r4, lsl r0
 26c:	00000230 	andeq	r0, r0, r0, lsr r2
 270:	000089c4 	andeq	r8, r0, r4, asr #19
 274:	0000000c 	andeq	r0, r0, ip
 278:	83080e42 	movwhi	r0, #36418	; 0x8e42
 27c:	00018e02 	andeq	r8, r1, r2, lsl #28
 280:	00000018 	andeq	r0, r0, r8, lsl r0
 284:	00000230 	andeq	r0, r0, r0, lsr r2
 288:	000089d0 	ldrdeq	r8, [r0], -r0
 28c:	00000024 	andeq	r0, r0, r4, lsr #32
 290:	83100e42 	tsthi	r0, #1056	; 0x420
 294:	85038404 	strhi	r8, [r3, #-1028]	; 0x404
 298:	00018e02 	andeq	r8, r1, r2, lsl #28
 29c:	00000014 	andeq	r0, r0, r4, lsl r0
 2a0:	00000230 	andeq	r0, r0, r0, lsr r2
 2a4:	000089f4 	strdeq	r8, [r0], -r4
 2a8:	00000014 	andeq	r0, r0, r4, lsl r0
 2ac:	83080e42 	movwhi	r0, #36418	; 0x8e42
 2b0:	00018e02 	andeq	r8, r1, r2, lsl #28
 2b4:	00000014 	andeq	r0, r0, r4, lsl r0
 2b8:	00000230 	andeq	r0, r0, r0, lsr r2
 2bc:	00008a08 	andeq	r8, r0, r8, lsl #20
 2c0:	00000014 	andeq	r0, r0, r4, lsl r0
 2c4:	83080e42 	movwhi	r0, #36418	; 0x8e42
 2c8:	00018e02 	andeq	r8, r1, r2, lsl #28
 2cc:	0000000c 	andeq	r0, r0, ip
 2d0:	ffffffff 			; <UNDEFINED> instruction: 0xffffffff
 2d4:	7c020001 	stcvc	0, cr0, [r2], {1}
 2d8:	000d0c0e 	andeq	r0, sp, lr, lsl #24
 2dc:	00000018 	andeq	r0, r0, r8, lsl r0
 2e0:	000002cc 	andeq	r0, r0, ip, asr #5
 2e4:	00008a1c 	andeq	r8, r0, ip, lsl sl
 2e8:	000000d4 	ldrdeq	r0, [r0], -r4
 2ec:	83100e42 	tsthi	r0, #1056	; 0x420
 2f0:	85038404 	strhi	r8, [r3, #-1028]	; 0x404
 2f4:	00018e02 	andeq	r8, r1, r2, lsl #28
 2f8:	00000014 	andeq	r0, r0, r4, lsl r0
 2fc:	000002cc 	andeq	r0, r0, ip, asr #5
 300:	00008af0 	strdeq	r8, [r0], -r0
 304:	00000038 	andeq	r0, r0, r8, lsr r0
 308:	83080e42 	movwhi	r0, #36418	; 0x8e42
 30c:	00018e02 	andeq	r8, r1, r2, lsl #28
 310:	00000014 	andeq	r0, r0, r4, lsl r0
 314:	000002cc 	andeq	r0, r0, ip, asr #5
 318:	00008b28 	andeq	r8, r0, r8, lsr #22
 31c:	00000038 	andeq	r0, r0, r8, lsr r0
 320:	83080e42 	movwhi	r0, #36418	; 0x8e42
 324:	00018e02 	andeq	r8, r1, r2, lsl #28
 328:	00000018 	andeq	r0, r0, r8, lsl r0
 32c:	000002cc 	andeq	r0, r0, ip, asr #5
 330:	00008b60 	andeq	r8, r0, r0, ror #22
 334:	000000cc 	andeq	r0, r0, ip, asr #1
 338:	83100e42 	tsthi	r0, #1056	; 0x420
 33c:	85038404 	strhi	r8, [r3, #-1028]	; 0x404
 340:	00018e02 	andeq	r8, r1, r2, lsl #28
 344:	00000014 	andeq	r0, r0, r4, lsl r0
 348:	000002cc 	andeq	r0, r0, ip, asr #5
 34c:	00008c2c 	andeq	r8, r0, ip, lsr #24
 350:	0000004c 	andeq	r0, r0, ip, asr #32
 354:	84080e42 	strhi	r0, [r8], #-3650	; 0xe42
 358:	00018e02 	andeq	r8, r1, r2, lsl #28
 35c:	00000014 	andeq	r0, r0, r4, lsl r0
 360:	000002cc 	andeq	r0, r0, ip, asr #5
 364:	00008c78 	andeq	r8, r0, r8, ror ip
 368:	00000024 	andeq	r0, r0, r4, lsr #32
 36c:	83080e42 	movwhi	r0, #36418	; 0x8e42
 370:	00018e02 	andeq	r8, r1, r2, lsl #28
 374:	00000018 	andeq	r0, r0, r8, lsl r0
 378:	000002cc 	andeq	r0, r0, ip, asr #5
 37c:	00008c9c 	muleq	r0, ip, ip
 380:	000000d8 	ldrdeq	r0, [r0], -r8
 384:	84100e42 	ldrhi	r0, [r0], #-3650	; 0xe42
 388:	86038504 	strhi	r8, [r3], -r4, lsl #10
 38c:	00018e02 	andeq	r8, r1, r2, lsl #28
 390:	00000014 	andeq	r0, r0, r4, lsl r0
 394:	000002cc 	andeq	r0, r0, ip, asr #5
 398:	00008d74 	andeq	r8, r0, r4, ror sp
 39c:	00000038 	andeq	r0, r0, r8, lsr r0
 3a0:	83080e42 	movwhi	r0, #36418	; 0x8e42
 3a4:	00018e02 	andeq	r8, r1, r2, lsl #28
 3a8:	00000014 	andeq	r0, r0, r4, lsl r0
 3ac:	000002cc 	andeq	r0, r0, ip, asr #5
 3b0:	00008dac 	andeq	r8, r0, ip, lsr #27
 3b4:	0000002c 	andeq	r0, r0, ip, lsr #32
 3b8:	83080e42 	movwhi	r0, #36418	; 0x8e42
 3bc:	00018e02 	andeq	r8, r1, r2, lsl #28
 3c0:	00000018 	andeq	r0, r0, r8, lsl r0
 3c4:	000002cc 	andeq	r0, r0, ip, asr #5
 3c8:	00008dd8 	ldrdeq	r8, [r0], -r8	; <UNPREDICTABLE>
 3cc:	00000084 	andeq	r0, r0, r4, lsl #1
 3d0:	83100e42 	tsthi	r0, #1056	; 0x420
 3d4:	85038404 	strhi	r8, [r3, #-1028]	; 0x404
 3d8:	00018e02 	andeq	r8, r1, r2, lsl #28
 3dc:	00000018 	andeq	r0, r0, r8, lsl r0
 3e0:	000002cc 	andeq	r0, r0, ip, asr #5
 3e4:	00008e5c 	andeq	r8, r0, ip, asr lr
 3e8:	00000084 	andeq	r0, r0, r4, lsl #1
 3ec:	83100e42 	tsthi	r0, #1056	; 0x420
 3f0:	85038404 	strhi	r8, [r3, #-1028]	; 0x404
 3f4:	00018e02 	andeq	r8, r1, r2, lsl #28
 3f8:	00000014 	andeq	r0, r0, r4, lsl r0
 3fc:	000002cc 	andeq	r0, r0, ip, asr #5
 400:	00008ee0 	andeq	r8, r0, r0, ror #29
 404:	00000084 	andeq	r0, r0, r4, lsl #1
 408:	84080e42 	strhi	r0, [r8], #-3650	; 0xe42
 40c:	00018e02 	andeq	r8, r1, r2, lsl #28
 410:	00000014 	andeq	r0, r0, r4, lsl r0
 414:	000002cc 	andeq	r0, r0, ip, asr #5
 418:	00008f64 	andeq	r8, r0, r4, ror #30
 41c:	00000058 	andeq	r0, r0, r8, asr r0
 420:	84080e42 	strhi	r0, [r8], #-3650	; 0xe42
 424:	00018e02 	andeq	r8, r1, r2, lsl #28
 428:	0000000c 	andeq	r0, r0, ip
 42c:	ffffffff 			; <UNDEFINED> instruction: 0xffffffff
 430:	7c020001 	stcvc	0, cr0, [r2], {1}
 434:	000d0c0e 	andeq	r0, sp, lr, lsl #24
 438:	0000001c 	andeq	r0, r0, ip, lsl r0
 43c:	00000428 	andeq	r0, r0, r8, lsr #8
 440:	00008fbc 			; <UNDEFINED> instruction: 0x00008fbc
 444:	00000154 	andeq	r0, r0, r4, asr r1
 448:	84180e42 	ldrhi	r0, [r8], #-3650	; 0xe42
 44c:	86058506 	strhi	r8, [r5], -r6, lsl #10
 450:	88038704 	stmdahi	r3, {r2, r8, r9, sl, pc}
 454:	00018e02 	andeq	r8, r1, r2, lsl #28
 458:	00000020 	andeq	r0, r0, r0, lsr #32
 45c:	00000428 	andeq	r0, r0, r8, lsr #8
 460:	00009110 	andeq	r9, r0, r0, lsl r1
 464:	000001c8 	andeq	r0, r0, r8, asr #3
 468:	83200e42 	teqhi	r0, #1056	; 0x420
 46c:	85078408 	strhi	r8, [r7, #-1032]	; 0x408
 470:	87058606 	strhi	r8, [r5, -r6, lsl #12]
 474:	89038804 	stmdbhi	r3, {r2, fp, pc}
 478:	00018e02 	andeq	r8, r1, r2, lsl #28
 47c:	00000024 	andeq	r0, r0, r4, lsr #32
 480:	00000428 	andeq	r0, r0, r8, lsr #8
 484:	000092d8 	ldrdeq	r9, [r0], -r8
 488:	000000a4 	andeq	r0, r0, r4, lsr #1
 48c:	84200e42 	strthi	r0, [r0], #-3650	; 0xe42
 490:	86078508 	strhi	r8, [r7], -r8, lsl #10
 494:	88058706 	stmdahi	r5, {r1, r2, r8, r9, sl, pc}
 498:	8a038904 	bhi	e28b0 <__bss_end__+0xd8920>
 49c:	42018e02 	andmi	r8, r1, #2, 28
 4a0:	0000280e 	andeq	r2, r0, lr, lsl #16
 4a4:	00000020 	andeq	r0, r0, r0, lsr #32
 4a8:	00000428 	andeq	r0, r0, r8, lsr #8
 4ac:	0000937c 	andeq	r9, r0, ip, ror r3
 4b0:	00000090 	muleq	r0, r0, r0
 4b4:	84180e42 	ldrhi	r0, [r8], #-3650	; 0xe42
 4b8:	86058506 	strhi	r8, [r5], -r6, lsl #10
 4bc:	88038704 	stmdahi	r3, {r2, r8, r9, sl, pc}
 4c0:	42018e02 	andmi	r8, r1, #2, 28
 4c4:	0000200e 	andeq	r2, r0, lr
 4c8:	00000020 	andeq	r0, r0, r0, lsr #32
 4cc:	00000428 	andeq	r0, r0, r8, lsr #8
 4d0:	0000940c 	andeq	r9, r0, ip, lsl #8
 4d4:	000000d4 	ldrdeq	r0, [r0], -r4
 4d8:	84180e42 	ldrhi	r0, [r8], #-3650	; 0xe42
 4dc:	86058506 	strhi	r8, [r5], -r6, lsl #10
 4e0:	88038704 	stmdahi	r3, {r2, r8, r9, sl, pc}
 4e4:	42018e02 	andmi	r8, r1, #2, 28
 4e8:	0000200e 	andeq	r2, r0, lr
 4ec:	00000014 	andeq	r0, r0, r4, lsl r0
 4f0:	00000428 	andeq	r0, r0, r8, lsr #8
 4f4:	000094e0 	andeq	r9, r0, r0, ror #9
 4f8:	0000003c 	andeq	r0, r0, ip, lsr r0
 4fc:	83080e42 	movwhi	r0, #36418	; 0x8e42
 500:	00018e02 	andeq	r8, r1, r2, lsl #28
 504:	00000018 	andeq	r0, r0, r8, lsl r0
 508:	00000428 	andeq	r0, r0, r8, lsr #8
 50c:	0000951c 	andeq	r9, r0, ip, lsl r5
 510:	0000002c 	andeq	r0, r0, ip, lsr #32
 514:	83100e42 	tsthi	r0, #1056	; 0x420
 518:	85038404 	strhi	r8, [r3, #-1028]	; 0x404
 51c:	00018e02 	andeq	r8, r1, r2, lsl #28
 520:	00000024 	andeq	r0, r0, r4, lsr #32
 524:	00000428 	andeq	r0, r0, r8, lsr #8
 528:	00009548 	andeq	r9, r0, r8, asr #10
 52c:	00000090 	muleq	r0, r0, r0
 530:	810c0e42 	tsthi	ip, r2, asr #28
 534:	83028203 	movwhi	r8, #8707	; 0x2203
 538:	180e4201 	stmdane	lr, {r0, r9, lr}
 53c:	05850684 	streq	r0, [r5, #1668]	; 0x684
 540:	0e42048e 	cdpeq	4, 4, cr0, cr2, cr14, {4}
 544:	000003f0 	strdeq	r0, [r0], -r0	; <UNPREDICTABLE>
 548:	00000014 	andeq	r0, r0, r4, lsl r0
 54c:	00000428 	andeq	r0, r0, r8, lsr #8
 550:	000095d8 	ldrdeq	r9, [r0], -r8
 554:	0000004c 	andeq	r0, r0, ip, asr #32
 558:	8e040e42 	cdphi	14, 0, cr0, cr4, cr2, {2}
 55c:	100e4201 	andne	r4, lr, r1, lsl #4
 560:	0000000c 	andeq	r0, r0, ip
 564:	ffffffff 			; <UNDEFINED> instruction: 0xffffffff
 568:	7c020001 	stcvc	0, cr0, [r2], {1}
 56c:	000d0c0e 	andeq	r0, sp, lr, lsl #24
 570:	00000014 	andeq	r0, r0, r4, lsl r0
 574:	00000560 	andeq	r0, r0, r0, ror #10
 578:	00009688 	andeq	r9, r0, r8, lsl #13
 57c:	00000014 	andeq	r0, r0, r4, lsl r0
 580:	84080e42 	strhi	r0, [r8], #-3650	; 0xe42
 584:	00018e02 	andeq	r8, r1, r2, lsl #28
 588:	0000000c 	andeq	r0, r0, ip
 58c:	00000560 	andeq	r0, r0, r0, ror #10
 590:	0000969c 	muleq	r0, ip, r6
 594:	00000018 	andeq	r0, r0, r8, lsl r0
 598:	0000000c 	andeq	r0, r0, ip
 59c:	00000560 	andeq	r0, r0, r0, ror #10
 5a0:	000096b4 			; <UNDEFINED> instruction: 0x000096b4
 5a4:	00000010 	andeq	r0, r0, r0, lsl r0
 5a8:	0000000c 	andeq	r0, r0, ip
 5ac:	ffffffff 			; <UNDEFINED> instruction: 0xffffffff
 5b0:	7c020001 	stcvc	0, cr0, [r2], {1}
 5b4:	000d0c0e 	andeq	r0, sp, lr, lsl #24
 5b8:	00000014 	andeq	r0, r0, r4, lsl r0
 5bc:	000005a8 	andeq	r0, r0, r8, lsr #11
 5c0:	000096c4 	andeq	r9, r0, r4, asr #13
 5c4:	00000028 	andeq	r0, r0, r8, lsr #32
 5c8:	83080e42 	movwhi	r0, #36418	; 0x8e42
 5cc:	00018e02 	andeq	r8, r1, r2, lsl #28
 5d0:	0000000c 	andeq	r0, r0, ip
 5d4:	000005a8 	andeq	r0, r0, r8, lsr #11
 5d8:	000096ec 	andeq	r9, r0, ip, ror #13
 5dc:	00000028 	andeq	r0, r0, r8, lsr #32
 5e0:	0000000c 	andeq	r0, r0, ip
 5e4:	ffffffff 			; <UNDEFINED> instruction: 0xffffffff
 5e8:	7c020001 	stcvc	0, cr0, [r2], {1}
 5ec:	000d0c0e 	andeq	r0, sp, lr, lsl #24
 5f0:	00000018 	andeq	r0, r0, r8, lsl r0
 5f4:	000005e0 	andeq	r0, r0, r0, ror #11
 5f8:	00009714 	andeq	r9, r0, r4, lsl r7
 5fc:	0000009c 	muleq	r0, ip, r0
 600:	83100e42 	tsthi	r0, #1056	; 0x420
 604:	85038404 	strhi	r8, [r3, #-1028]	; 0x404
 608:	00018e02 	andeq	r8, r1, r2, lsl #28
 60c:	00000014 	andeq	r0, r0, r4, lsl r0
 610:	000005e0 	andeq	r0, r0, r0, ror #11
 614:	000097b0 			; <UNDEFINED> instruction: 0x000097b0
 618:	0000001c 	andeq	r0, r0, ip, lsl r0
 61c:	83080e42 	movwhi	r0, #36418	; 0x8e42
 620:	00018e02 	andeq	r8, r1, r2, lsl #28
 624:	00000014 	andeq	r0, r0, r4, lsl r0
 628:	000005e0 	andeq	r0, r0, r0, ror #11
 62c:	000097cc 	andeq	r9, r0, ip, asr #15
 630:	00000028 	andeq	r0, r0, r8, lsr #32
 634:	83080e42 	movwhi	r0, #36418	; 0x8e42
 638:	00018e02 	andeq	r8, r1, r2, lsl #28
 63c:	00000014 	andeq	r0, r0, r4, lsl r0
 640:	000005e0 	andeq	r0, r0, r0, ror #11
 644:	000097f4 	strdeq	r9, [r0], -r4
 648:	0000001c 	andeq	r0, r0, ip, lsl r0
 64c:	83080e42 	movwhi	r0, #36418	; 0x8e42
 650:	00018e02 	andeq	r8, r1, r2, lsl #28
 654:	00000014 	andeq	r0, r0, r4, lsl r0
 658:	000005e0 	andeq	r0, r0, r0, ror #11
 65c:	00009810 	andeq	r9, r0, r0, lsl r8
 660:	0000002c 	andeq	r0, r0, ip, lsr #32
 664:	84080e42 	strhi	r0, [r8], #-3650	; 0xe42
 668:	00018e02 	andeq	r8, r1, r2, lsl #28
 66c:	00000014 	andeq	r0, r0, r4, lsl r0
 670:	000005e0 	andeq	r0, r0, r0, ror #11
 674:	0000983c 	andeq	r9, r0, ip, lsr r8
 678:	0000000c 	andeq	r0, r0, ip
 67c:	83080e42 	movwhi	r0, #36418	; 0x8e42
 680:	00018e02 	andeq	r8, r1, r2, lsl #28
 684:	00000014 	andeq	r0, r0, r4, lsl r0
 688:	000005e0 	andeq	r0, r0, r0, ror #11
 68c:	00009848 	andeq	r9, r0, r8, asr #16
 690:	00000020 	andeq	r0, r0, r0, lsr #32
 694:	83080e42 	movwhi	r0, #36418	; 0x8e42
 698:	00018e02 	andeq	r8, r1, r2, lsl #28
 69c:	0000000c 	andeq	r0, r0, ip
 6a0:	ffffffff 			; <UNDEFINED> instruction: 0xffffffff
 6a4:	7c020001 	stcvc	0, cr0, [r2], {1}
 6a8:	000d0c0e 	andeq	r0, sp, lr, lsl #24
 6ac:	0000000c 	andeq	r0, r0, ip
 6b0:	0000069c 	muleq	r0, ip, r6
 6b4:	00009868 	andeq	r9, r0, r8, ror #16
 6b8:	00000020 	andeq	r0, r0, r0, lsr #32
