
sonar.elf:     file format elf32-littlearm


Disassembly of section .text:

00008000 <_start>:
    8000:	e3a0d302 	mov	sp, #134217728	; 0x8000000
    8004:	e3a0b000 	mov	fp, #0
    8008:	eb00024b 	bl	893c <_cstart>
    800c:	eb000262 	bl	899c <rpi_reboot>

00008010 <notmain>:
    8010:	e92d41f0 	push	{r4, r5, r6, r7, r8, lr}
    8014:	e24dd008 	sub	sp, sp, #8
    8018:	eb0003fb 	bl	900c <uart_init>
    801c:	e59f0074 	ldr	r0, [pc, #116]	; 8098 <notmain+0x88>
    8020:	eb0000da 	bl	8390 <printk>
    8024:	e1a0000d 	mov	r0, sp
    8028:	e3a01014 	mov	r1, #20
    802c:	e3a02015 	mov	r2, #21
    8030:	eb000031 	bl	80fc <hc_sr04_init>
    8034:	e59f0060 	ldr	r0, [pc, #96]	; 809c <notmain+0x8c>
    8038:	eb0000d4 	bl	8390 <printk>
    803c:	e3a06000 	mov	r6, #0
    8040:	e59f4058 	ldr	r4, [pc, #88]	; 80a0 <notmain+0x90>
    8044:	e59f5058 	ldr	r5, [pc, #88]	; 80a4 <notmain+0x94>
    8048:	e59f8058 	ldr	r8, [pc, #88]	; 80a8 <notmain+0x98>
    804c:	e3a07ffa 	mov	r7, #1000	; 0x3e8
    8050:	ea00000b 	b	8084 <notmain+0x74>
    8054:	e1a00005 	mov	r0, r5
    8058:	eb0000cc 	bl	8390 <printk>
    805c:	e1a0000d 	mov	r0, sp
    8060:	e1a01004 	mov	r1, r4
    8064:	eb000035 	bl	8140 <hc_sr04_get_distance>
    8068:	e2501000 	subs	r1, r0, #0
    806c:	bafffff8 	blt	8054 <notmain+0x44>
    8070:	e1a00008 	mov	r0, r8
    8074:	eb0000c5 	bl	8390 <printk>
    8078:	e1a00007 	mov	r0, r7
    807c:	eb000270 	bl	8a44 <delay_ms>
    8080:	e2866001 	add	r6, r6, #1
    8084:	e3560009 	cmp	r6, #9
    8088:	dafffff3 	ble	805c <notmain+0x4c>
    808c:	e59f0018 	ldr	r0, [pc, #24]	; 80ac <notmain+0x9c>
    8090:	eb0000be 	bl	8390 <printk>
    8094:	eb00021e 	bl	8914 <clean_reboot>
    8098:	000092a8 	andeq	r9, r0, r8, lsr #5
    809c:	000092bc 			; <UNDEFINED> instruction: 0x000092bc
    80a0:	0000d6d8 	ldrdeq	sp, [r0], -r8
    80a4:	000092cc 	andeq	r9, r0, ip, asr #5
    80a8:	000092d8 	ldrdeq	r9, [r0], -r8
    80ac:	000092f0 	strdeq	r9, [r0], -r0

000080b0 <read_while_eq>:
    80b0:	e92d40f8 	push	{r3, r4, r5, r6, r7, lr}
    80b4:	e1a04000 	mov	r4, r0
    80b8:	e1a05001 	mov	r5, r1
    80bc:	e1a07002 	mov	r7, r2
    80c0:	e59f6030 	ldr	r6, [pc, #48]	; 80f8 <read_while_eq+0x48>
    80c4:	e1a00004 	mov	r0, r4
    80c8:	eb0002eb 	bl	8c7c <gpio_read>
    80cc:	e1550450 	cmp	r5, r0, asr r4
    80d0:	1a000006 	bne	80f0 <read_while_eq+0x40>
    80d4:	eb00024e 	bl	8a14 <timer_get_usec>
    80d8:	e5963000 	ldr	r3, [r6]
    80dc:	e0873003 	add	r3, r7, r3
    80e0:	e1530000 	cmp	r3, r0
    80e4:	8afffff6 	bhi	80c4 <read_while_eq+0x14>
    80e8:	e3a00000 	mov	r0, #0
    80ec:	e8bd80f8 	pop	{r3, r4, r5, r6, r7, pc}
    80f0:	e3a00001 	mov	r0, #1
    80f4:	e8bd80f8 	pop	{r3, r4, r5, r6, r7, pc}
    80f8:	00009414 	andeq	r9, r0, r4, lsl r4

000080fc <hc_sr04_init>:
    80fc:	e92d4070 	push	{r4, r5, r6, lr}
    8100:	e1a04000 	mov	r4, r0
    8104:	e1a06001 	mov	r6, r1
    8108:	e1a05002 	mov	r5, r2
    810c:	e5841000 	str	r1, [r4]
    8110:	e5842004 	str	r2, [r4, #4]
    8114:	e1a00001 	mov	r0, r1
    8118:	eb000253 	bl	8a6c <gpio_set_output>
    811c:	e1a00006 	mov	r0, r6
    8120:	e3a01000 	mov	r1, #0
    8124:	eb0002e7 	bl	8cc8 <gpio_write>
    8128:	e1a00005 	mov	r0, r5
    812c:	eb00029f 	bl	8bb0 <gpio_set_input>
    8130:	e1a00005 	mov	r0, r5
    8134:	eb00004f 	bl	8278 <gpio_set_pulldown>
    8138:	e1a00004 	mov	r0, r4
    813c:	e8bd8070 	pop	{r4, r5, r6, pc}

00008140 <hc_sr04_get_distance>:
    8140:	e92d4038 	push	{r3, r4, r5, lr}
    8144:	e1a04000 	mov	r4, r0
    8148:	e1a05001 	mov	r5, r1
    814c:	e5900000 	ldr	r0, [r0]
    8150:	e3a01001 	mov	r1, #1
    8154:	eb0002db 	bl	8cc8 <gpio_write>
    8158:	e3a0000a 	mov	r0, #10
    815c:	eb00022f 	bl	8a20 <delay_us>
    8160:	e5940000 	ldr	r0, [r4]
    8164:	e3a01000 	mov	r1, #0
    8168:	eb0002d6 	bl	8cc8 <gpio_write>
    816c:	e3a00094 	mov	r0, #148	; 0x94
    8170:	eb00022a 	bl	8a20 <delay_us>
    8174:	eb000226 	bl	8a14 <timer_get_usec>
    8178:	e59f3064 	ldr	r3, [pc, #100]	; 81e4 <hc_sr04_get_distance+0xa4>
    817c:	e5830000 	str	r0, [r3]
    8180:	e5940004 	ldr	r0, [r4, #4]
    8184:	e3a01000 	mov	r1, #0
    8188:	e1a02005 	mov	r2, r5
    818c:	ebffffc7 	bl	80b0 <read_while_eq>
    8190:	e3500000 	cmp	r0, #0
    8194:	0a00000e 	beq	81d4 <hc_sr04_get_distance+0x94>
    8198:	e5940004 	ldr	r0, [r4, #4]
    819c:	e3a01001 	mov	r1, #1
    81a0:	e1a02005 	mov	r2, r5
    81a4:	ebffffc1 	bl	80b0 <read_while_eq>
    81a8:	e3500000 	cmp	r0, #0
    81ac:	0a00000a 	beq	81dc <hc_sr04_get_distance+0x9c>
    81b0:	eb000217 	bl	8a14 <timer_get_usec>
    81b4:	e59f3028 	ldr	r3, [pc, #40]	; 81e4 <hc_sr04_get_distance+0xa4>
    81b8:	e5933000 	ldr	r3, [r3]
    81bc:	e0630000 	rsb	r0, r3, r0
    81c0:	e1a00120 	lsr	r0, r0, #2
    81c4:	e59f201c 	ldr	r2, [pc, #28]	; 81e8 <hc_sr04_get_distance+0xa8>
    81c8:	e0803092 	umull	r3, r0, r2, r0
    81cc:	e1a00120 	lsr	r0, r0, #2
    81d0:	e8bd8038 	pop	{r3, r4, r5, pc}
    81d4:	e3e00000 	mvn	r0, #0
    81d8:	e8bd8038 	pop	{r3, r4, r5, pc}
    81dc:	e3e00000 	mvn	r0, #0
    81e0:	e8bd8038 	pop	{r3, r4, r5, pc}
    81e4:	00009414 	andeq	r9, r0, r4, lsl r4
    81e8:	1bacf915 	blne	feb46644 <__bss_end__+0xfeb3ce2c>

000081ec <gpio_set_pullup>:
    81ec:	e92d4038 	push	{r3, r4, r5, lr}
    81f0:	e1a05000 	mov	r5, r0
    81f4:	eb0003d9 	bl	9160 <dev_barrier>
    81f8:	e59f3074 	ldr	r3, [pc, #116]	; 8274 <gpio_set_pullup+0x88>
    81fc:	e5930000 	ldr	r0, [r3]
    8200:	e3a01002 	mov	r1, #2
    8204:	eb0003db 	bl	9178 <put32>
    8208:	e3a00096 	mov	r0, #150	; 0x96
    820c:	eb000203 	bl	8a20 <delay_us>
    8210:	e355001f 	cmp	r5, #31
    8214:	959f3058 	ldrls	r3, [pc, #88]	; 8274 <gpio_set_pullup+0x88>
    8218:	95934004 	ldrls	r4, [r3, #4]
    821c:	859f3050 	ldrhi	r3, [pc, #80]	; 8274 <gpio_set_pullup+0x88>
    8220:	85934008 	ldrhi	r4, [r3, #8]
    8224:	e205501f 	and	r5, r5, #31
    8228:	e1a00004 	mov	r0, r4
    822c:	e3a01001 	mov	r1, #1
    8230:	e1a01511 	lsl	r1, r1, r5
    8234:	eb0003cf 	bl	9178 <put32>
    8238:	e3a00096 	mov	r0, #150	; 0x96
    823c:	eb0001f7 	bl	8a20 <delay_us>
    8240:	e59f302c 	ldr	r3, [pc, #44]	; 8274 <gpio_set_pullup+0x88>
    8244:	e5930000 	ldr	r0, [r3]
    8248:	e3a01000 	mov	r1, #0
    824c:	eb0003c9 	bl	9178 <put32>
    8250:	e3a00096 	mov	r0, #150	; 0x96
    8254:	eb0001f1 	bl	8a20 <delay_us>
    8258:	e1a00004 	mov	r0, r4
    825c:	e3a01000 	mov	r1, #0
    8260:	eb0003c4 	bl	9178 <put32>
    8264:	e3a00096 	mov	r0, #150	; 0x96
    8268:	eb0001ec 	bl	8a20 <delay_us>
    826c:	eb0003bb 	bl	9160 <dev_barrier>
    8270:	e8bd8038 	pop	{r3, r4, r5, pc}
    8274:	00009200 	andeq	r9, r0, r0, lsl #4

00008278 <gpio_set_pulldown>:
    8278:	e92d4038 	push	{r3, r4, r5, lr}
    827c:	e1a05000 	mov	r5, r0
    8280:	eb0003b6 	bl	9160 <dev_barrier>
    8284:	e59f3074 	ldr	r3, [pc, #116]	; 8300 <gpio_set_pulldown+0x88>
    8288:	e5930000 	ldr	r0, [r3]
    828c:	e3a01001 	mov	r1, #1
    8290:	eb0003b8 	bl	9178 <put32>
    8294:	e3a00096 	mov	r0, #150	; 0x96
    8298:	eb0001e0 	bl	8a20 <delay_us>
    829c:	e355001f 	cmp	r5, #31
    82a0:	959f3058 	ldrls	r3, [pc, #88]	; 8300 <gpio_set_pulldown+0x88>
    82a4:	95934004 	ldrls	r4, [r3, #4]
    82a8:	859f3050 	ldrhi	r3, [pc, #80]	; 8300 <gpio_set_pulldown+0x88>
    82ac:	85934008 	ldrhi	r4, [r3, #8]
    82b0:	e205501f 	and	r5, r5, #31
    82b4:	e1a00004 	mov	r0, r4
    82b8:	e3a01001 	mov	r1, #1
    82bc:	e1a01511 	lsl	r1, r1, r5
    82c0:	eb0003ac 	bl	9178 <put32>
    82c4:	e3a00096 	mov	r0, #150	; 0x96
    82c8:	eb0001d4 	bl	8a20 <delay_us>
    82cc:	e59f302c 	ldr	r3, [pc, #44]	; 8300 <gpio_set_pulldown+0x88>
    82d0:	e5930000 	ldr	r0, [r3]
    82d4:	e3a01000 	mov	r1, #0
    82d8:	eb0003a6 	bl	9178 <put32>
    82dc:	e3a00096 	mov	r0, #150	; 0x96
    82e0:	eb0001ce 	bl	8a20 <delay_us>
    82e4:	e1a00004 	mov	r0, r4
    82e8:	e3a01000 	mov	r1, #0
    82ec:	eb0003a1 	bl	9178 <put32>
    82f0:	e3a00096 	mov	r0, #150	; 0x96
    82f4:	eb0001c9 	bl	8a20 <delay_us>
    82f8:	eb000398 	bl	9160 <dev_barrier>
    82fc:	e8bd8038 	pop	{r3, r4, r5, pc}
    8300:	00009200 	andeq	r9, r0, r0, lsl #4

00008304 <gpio_pud_off>:
    8304:	e92d4038 	push	{r3, r4, r5, lr}
    8308:	e1a05000 	mov	r5, r0
    830c:	eb000393 	bl	9160 <dev_barrier>
    8310:	e59f3074 	ldr	r3, [pc, #116]	; 838c <gpio_pud_off+0x88>
    8314:	e5930000 	ldr	r0, [r3]
    8318:	e3a01000 	mov	r1, #0
    831c:	eb000395 	bl	9178 <put32>
    8320:	e3a00096 	mov	r0, #150	; 0x96
    8324:	eb0001bd 	bl	8a20 <delay_us>
    8328:	e355001f 	cmp	r5, #31
    832c:	959f3058 	ldrls	r3, [pc, #88]	; 838c <gpio_pud_off+0x88>
    8330:	95934004 	ldrls	r4, [r3, #4]
    8334:	859f3050 	ldrhi	r3, [pc, #80]	; 838c <gpio_pud_off+0x88>
    8338:	85934008 	ldrhi	r4, [r3, #8]
    833c:	e205501f 	and	r5, r5, #31
    8340:	e1a00004 	mov	r0, r4
    8344:	e3a01001 	mov	r1, #1
    8348:	e1a01511 	lsl	r1, r1, r5
    834c:	eb000389 	bl	9178 <put32>
    8350:	e3a00096 	mov	r0, #150	; 0x96
    8354:	eb0001b1 	bl	8a20 <delay_us>
    8358:	e59f302c 	ldr	r3, [pc, #44]	; 838c <gpio_pud_off+0x88>
    835c:	e5930000 	ldr	r0, [r3]
    8360:	e3a01000 	mov	r1, #0
    8364:	eb000383 	bl	9178 <put32>
    8368:	e3a00096 	mov	r0, #150	; 0x96
    836c:	eb0001ab 	bl	8a20 <delay_us>
    8370:	e1a00004 	mov	r0, r4
    8374:	e3a01000 	mov	r1, #0
    8378:	eb00037e 	bl	9178 <put32>
    837c:	e3a00096 	mov	r0, #150	; 0x96
    8380:	eb0001a6 	bl	8a20 <delay_us>
    8384:	eb000375 	bl	9160 <dev_barrier>
    8388:	e8bd8038 	pop	{r3, r4, r5, pc}
    838c:	00009200 	andeq	r9, r0, r0, lsl #4

00008390 <printk>:
    8390:	e92d000f 	push	{r0, r1, r2, r3}
    8394:	e92d4030 	push	{r4, r5, lr}
    8398:	e24dd00c 	sub	sp, sp, #12
    839c:	e28d301c 	add	r3, sp, #28
    83a0:	e58d3004 	str	r3, [sp, #4]
    83a4:	e59f4034 	ldr	r4, [pc, #52]	; 83e0 <printk+0x50>
    83a8:	e1a00004 	mov	r0, r4
    83ac:	e3a01b01 	mov	r1, #1024	; 0x400
    83b0:	e59d2018 	ldr	r2, [sp, #24]
    83b4:	eb0000b4 	bl	868c <va_printk>
    83b8:	e1a05000 	mov	r5, r0
    83bc:	e59f3020 	ldr	r3, [pc, #32]	; 83e4 <printk+0x54>
    83c0:	e5933000 	ldr	r3, [r3]
    83c4:	e1a00004 	mov	r0, r4
    83c8:	e12fff33 	blx	r3
    83cc:	e1a00005 	mov	r0, r5
    83d0:	e28dd00c 	add	sp, sp, #12
    83d4:	e8bd4030 	pop	{r4, r5, lr}
    83d8:	e28dd010 	add	sp, sp, #16
    83dc:	e12fff1e 	bx	lr
    83e0:	00009418 	andeq	r9, r0, r8, lsl r4
    83e4:	0000920c 	andeq	r9, r0, ip, lsl #4

000083e8 <internal_putk>:
    83e8:	e92d4038 	push	{r3, r4, r5, lr}
    83ec:	e1a04000 	mov	r4, r0
    83f0:	e59f5020 	ldr	r5, [pc, #32]	; 8418 <internal_putk+0x30>
    83f4:	ea000002 	b	8404 <internal_putk+0x1c>
    83f8:	e5953000 	ldr	r3, [r5]
    83fc:	e12fff33 	blx	r3
    8400:	e2844001 	add	r4, r4, #1
    8404:	e5d40000 	ldrb	r0, [r4]
    8408:	e3500000 	cmp	r0, #0
    840c:	1afffff9 	bne	83f8 <internal_putk+0x10>
    8410:	e3a00001 	mov	r0, #1
    8414:	e8bd8038 	pop	{r3, r4, r5, pc}
    8418:	000092a4 	andeq	r9, r0, r4, lsr #5

0000841c <isdigit>:
    841c:	e2400030 	sub	r0, r0, #48	; 0x30
    8420:	e3500009 	cmp	r0, #9
    8424:	83a00000 	movhi	r0, #0
    8428:	93a00001 	movls	r0, #1
    842c:	e12fff1e 	bx	lr

00008430 <pad>:
    8430:	e0611000 	rsb	r1, r1, r0
    8434:	e3a03020 	mov	r3, #32
    8438:	ea000002 	b	8448 <pad+0x18>
    843c:	e5c03000 	strb	r3, [r0]
    8440:	e2811001 	add	r1, r1, #1
    8444:	e2800001 	add	r0, r0, #1
    8448:	e1510002 	cmp	r1, r2
    844c:	bafffffa 	blt	843c <pad+0xc>
    8450:	e3a03000 	mov	r3, #0
    8454:	e5c03000 	strb	r3, [r0]
    8458:	e12fff1e 	bx	lr

0000845c <reverse>:
    845c:	e063c002 	rsb	ip, r3, r2
    8460:	e28cc001 	add	ip, ip, #1
    8464:	e15c0001 	cmp	ip, r1
    8468:	c061100c 	rsbgt	r1, r1, ip
    846c:	c0833001 	addgt	r3, r3, r1
    8470:	e2422001 	sub	r2, r2, #1
    8474:	e1a01000 	mov	r1, r0
    8478:	ea000002 	b	8488 <reverse+0x2c>
    847c:	e452c001 	ldrb	ip, [r2], #-1
    8480:	e5c1c000 	strb	ip, [r1]
    8484:	e2811001 	add	r1, r1, #1
    8488:	e1520003 	cmp	r2, r3
    848c:	2afffffa 	bcs	847c <reverse+0x20>
    8490:	e3a03000 	mov	r3, #0
    8494:	e5c13000 	strb	r3, [r1]
    8498:	e12fff1e 	bx	lr

0000849c <emit>:
    849c:	e92d41f0 	push	{r4, r5, r6, r7, r8, lr}
    84a0:	e24dd040 	sub	sp, sp, #64	; 0x40
    84a4:	e1a05001 	mov	r5, r1
    84a8:	e1a04002 	mov	r4, r2
    84ac:	e59d2058 	ldr	r2, [sp, #88]	; 0x58
    84b0:	e1520004 	cmp	r2, r4
    84b4:	c2442001 	subgt	r2, r4, #1
    84b8:	e1a0c003 	mov	ip, r3
    84bc:	e2400002 	sub	r0, r0, #2
    84c0:	e350000e 	cmp	r0, #14
    84c4:	979ff100 	ldrls	pc, [pc, r0, lsl #2]
    84c8:	ea000042 	b	85d8 <emit+0x13c>
    84cc:	000085b0 			; <UNDEFINED> instruction: 0x000085b0
    84d0:	000085d8 	ldrdeq	r8, [r0], -r8	; <UNPREDICTABLE>
    84d4:	000085d8 	ldrdeq	r8, [r0], -r8	; <UNPREDICTABLE>
    84d8:	000085d8 	ldrdeq	r8, [r0], -r8	; <UNPREDICTABLE>
    84dc:	000085d8 	ldrdeq	r8, [r0], -r8	; <UNPREDICTABLE>
    84e0:	000085d8 	ldrdeq	r8, [r0], -r8	; <UNPREDICTABLE>
    84e4:	000085a4 	andeq	r8, r0, r4, lsr #11
    84e8:	000085d8 	ldrdeq	r8, [r0], -r8	; <UNPREDICTABLE>
    84ec:	00008508 	andeq	r8, r0, r8, lsl #10
    84f0:	000085d8 	ldrdeq	r8, [r0], -r8	; <UNPREDICTABLE>
    84f4:	000085d8 	ldrdeq	r8, [r0], -r8	; <UNPREDICTABLE>
    84f8:	000085d8 	ldrdeq	r8, [r0], -r8	; <UNPREDICTABLE>
    84fc:	000085d8 	ldrdeq	r8, [r0], -r8	; <UNPREDICTABLE>
    8500:	000085d8 	ldrdeq	r8, [r0], -r8	; <UNPREDICTABLE>
    8504:	0000857c 	andeq	r8, r0, ip, ror r5
    8508:	e59d105c 	ldr	r1, [sp, #92]	; 0x5c
    850c:	e2911000 	adds	r1, r1, #0
    8510:	13a01001 	movne	r1, #1
    8514:	e0111fa3 	ands	r1, r1, r3, lsr #31
    8518:	1263c000 	rsbne	ip, r3, #0
    851c:	13a08001 	movne	r8, #1
    8520:	03a08000 	moveq	r8, #0
    8524:	e1a0100d 	mov	r1, sp
    8528:	e59f70ec 	ldr	r7, [pc, #236]	; 861c <emit+0x180>
    852c:	e59f60ec 	ldr	r6, [pc, #236]	; 8620 <emit+0x184>
    8530:	ea000000 	b	8538 <emit+0x9c>
    8534:	e1a01003 	mov	r1, r3
    8538:	e2813001 	add	r3, r1, #1
    853c:	e08e0c97 	umull	r0, lr, r7, ip
    8540:	e1a0e1ae 	lsr	lr, lr, #3
    8544:	e1a0000e 	mov	r0, lr
    8548:	e08ee10e 	add	lr, lr, lr, lsl #2
    854c:	e1a0e08e 	lsl	lr, lr, #1
    8550:	e06ee00c 	rsb	lr, lr, ip
    8554:	e7d6c00e 	ldrb	ip, [r6, lr]
    8558:	e5c1c000 	strb	ip, [r1]
    855c:	e1a0c000 	mov	ip, r0
    8560:	e3500000 	cmp	r0, #0
    8564:	1afffff2 	bne	8534 <emit+0x98>
    8568:	e3580000 	cmp	r8, #0
    856c:	12813002 	addne	r3, r1, #2
    8570:	13a0002d 	movne	r0, #45	; 0x2d
    8574:	15c10001 	strbne	r0, [r1, #1]
    8578:	ea00001d 	b	85f4 <emit+0x158>
    857c:	e1a0e00d 	mov	lr, sp
    8580:	e59f009c 	ldr	r0, [pc, #156]	; 8624 <emit+0x188>
    8584:	e28e3001 	add	r3, lr, #1
    8588:	e20c100f 	and	r1, ip, #15
    858c:	e7d01001 	ldrb	r1, [r0, r1]
    8590:	e5ce1000 	strb	r1, [lr]
    8594:	e1a0e003 	mov	lr, r3
    8598:	e1b0c22c 	lsrs	ip, ip, #4
    859c:	1afffff8 	bne	8584 <emit+0xe8>
    85a0:	ea000013 	b	85f4 <emit+0x158>
    85a4:	e5cd3000 	strb	r3, [sp]
    85a8:	e28d3001 	add	r3, sp, #1
    85ac:	ea000010 	b	85f4 <emit+0x158>
    85b0:	e1a0e00d 	mov	lr, sp
    85b4:	e59f006c 	ldr	r0, [pc, #108]	; 8628 <emit+0x18c>
    85b8:	e28e3001 	add	r3, lr, #1
    85bc:	e20c1001 	and	r1, ip, #1
    85c0:	e7d01001 	ldrb	r1, [r0, r1]
    85c4:	e5ce1000 	strb	r1, [lr]
    85c8:	e1a0e003 	mov	lr, r3
    85cc:	e1b0c0ac 	lsrs	ip, ip, #1
    85d0:	1afffff8 	bne	85b8 <emit+0x11c>
    85d4:	ea000006 	b	85f4 <emit+0x158>
    85d8:	eb0002fe 	bl	91d8 <rpi_reset_putc>
    85dc:	e59f0048 	ldr	r0, [pc, #72]	; 862c <emit+0x190>
    85e0:	e59f1048 	ldr	r1, [pc, #72]	; 8630 <emit+0x194>
    85e4:	e59f2048 	ldr	r2, [pc, #72]	; 8634 <emit+0x198>
    85e8:	e3a03075 	mov	r3, #117	; 0x75
    85ec:	ebffff67 	bl	8390 <printk>
    85f0:	eb0000c7 	bl	8914 <clean_reboot>
    85f4:	e1a00003 	mov	r0, r3
    85f8:	e1a0100d 	mov	r1, sp
    85fc:	ebffff8b 	bl	8430 <pad>
    8600:	e1a02000 	mov	r2, r0
    8604:	e1a00005 	mov	r0, r5
    8608:	e1a01004 	mov	r1, r4
    860c:	e1a0300d 	mov	r3, sp
    8610:	ebffff91 	bl	845c <reverse>
    8614:	e28dd040 	add	sp, sp, #64	; 0x40
    8618:	e8bd81f0 	pop	{r4, r5, r6, r7, r8, pc}
    861c:	cccccccd 	stclgt	12, cr12, [ip], {205}	; 0xcd
    8620:	00009350 	andeq	r9, r0, r0, asr r3
    8624:	0000935c 	andeq	r9, r0, ip, asr r3
    8628:	00009370 	andeq	r9, r0, r0, ror r3
    862c:	00009328 	andeq	r9, r0, r8, lsr #6
    8630:	0000933c 	andeq	r9, r0, ip, lsr r3
    8634:	00009304 	andeq	r9, r0, r4, lsl #6

00008638 <rpi_set_output>:
    8638:	e92d4008 	push	{r3, lr}
    863c:	e3500000 	cmp	r0, #0
    8640:	1a000006 	bne	8660 <rpi_set_output+0x28>
    8644:	eb0002e3 	bl	91d8 <rpi_reset_putc>
    8648:	e59f0028 	ldr	r0, [pc, #40]	; 8678 <rpi_set_output+0x40>
    864c:	e59f1028 	ldr	r1, [pc, #40]	; 867c <rpi_set_output+0x44>
    8650:	e59f2028 	ldr	r2, [pc, #40]	; 8680 <rpi_set_output+0x48>
    8654:	e3a03020 	mov	r3, #32
    8658:	ebffff4c 	bl	8390 <printk>
    865c:	eb0000ac 	bl	8914 <clean_reboot>
    8660:	e59f301c 	ldr	r3, [pc, #28]	; 8684 <rpi_set_output+0x4c>
    8664:	e5830000 	str	r0, [r3]
    8668:	e3510000 	cmp	r1, #0
    866c:	159f3014 	ldrne	r3, [pc, #20]	; 8688 <rpi_set_output+0x50>
    8670:	15831000 	strne	r1, [r3]
    8674:	e8bd8008 	pop	{r3, pc}
    8678:	00009374 	andeq	r9, r0, r4, ror r3
    867c:	0000933c 	andeq	r9, r0, ip, lsr r3
    8680:	0000930c 	andeq	r9, r0, ip, lsl #6
    8684:	000092a4 	andeq	r9, r0, r4, lsr #5
    8688:	0000920c 	andeq	r9, r0, ip, lsl #4

0000868c <va_printk>:
    868c:	e92d4ff0 	push	{r4, r5, r6, r7, r8, r9, sl, fp, lr}
    8690:	e24dd08c 	sub	sp, sp, #140	; 0x8c
    8694:	e1a0a000 	mov	sl, r0
    8698:	e1a09003 	mov	r9, r3
    869c:	e2411001 	sub	r1, r1, #1
    86a0:	e0808001 	add	r8, r0, r1
    86a4:	e3a03000 	mov	r3, #0
    86a8:	e5c03000 	strb	r3, [r0]
    86ac:	e1a04000 	mov	r4, r0
    86b0:	e1a0b003 	mov	fp, r3
    86b4:	ea000086 	b	88d4 <va_printk+0x248>
    86b8:	e3530025 	cmp	r3, #37	; 0x25
    86bc:	12822001 	addne	r2, r2, #1
    86c0:	15c43000 	strbne	r3, [r4]
    86c4:	12844001 	addne	r4, r4, #1
    86c8:	1a000081 	bne	88d4 <va_printk+0x248>
    86cc:	e5d21001 	ldrb	r1, [r2, #1]
    86d0:	e3510025 	cmp	r1, #37	; 0x25
    86d4:	05c43000 	strbeq	r3, [r4]
    86d8:	02822002 	addeq	r2, r2, #2
    86dc:	02844001 	addeq	r4, r4, #1
    86e0:	0a00007b 	beq	88d4 <va_printk+0x248>
    86e4:	e2826001 	add	r6, r2, #1
    86e8:	e1a0700b 	mov	r7, fp
    86ec:	ea000004 	b	8704 <va_printk+0x78>
    86f0:	e0877107 	add	r7, r7, r7, lsl #2
    86f4:	e1a07087 	lsl	r7, r7, #1
    86f8:	e0877005 	add	r7, r7, r5
    86fc:	e2477030 	sub	r7, r7, #48	; 0x30
    8700:	e2866001 	add	r6, r6, #1
    8704:	e5d65000 	ldrb	r5, [r6]
    8708:	e1a00005 	mov	r0, r5
    870c:	ebffff42 	bl	841c <isdigit>
    8710:	e3500000 	cmp	r0, #0
    8714:	1afffff5 	bne	86f0 <va_printk+0x64>
    8718:	e357001f 	cmp	r7, #31
    871c:	9a000006 	bls	873c <va_printk+0xb0>
    8720:	eb0002ac 	bl	91d8 <rpi_reset_putc>
    8724:	e59f01d4 	ldr	r0, [pc, #468]	; 8900 <va_printk+0x274>
    8728:	e59f11d4 	ldr	r1, [pc, #468]	; 8904 <va_printk+0x278>
    872c:	e59f21d4 	ldr	r2, [pc, #468]	; 8908 <va_printk+0x27c>
    8730:	e3a03092 	mov	r3, #146	; 0x92
    8734:	ebffff15 	bl	8390 <printk>
    8738:	eb000075 	bl	8914 <clean_reboot>
    873c:	e2455062 	sub	r5, r5, #98	; 0x62
    8740:	e3550016 	cmp	r5, #22
    8744:	979ff105 	ldrls	pc, [pc, r5, lsl #2]
    8748:	ea00004e 	b	8888 <va_printk+0x1fc>
    874c:	00008834 	andeq	r8, r0, r4, lsr r8
    8750:	00008864 	andeq	r8, r0, r4, ror #16
    8754:	000087c4 	andeq	r8, r0, r4, asr #15
    8758:	00008888 	andeq	r8, r0, r8, lsl #17
    875c:	000087a8 	andeq	r8, r0, r8, lsr #15
    8760:	00008888 	andeq	r8, r0, r8, lsl #17
    8764:	00008888 	andeq	r8, r0, r8, lsl #17
    8768:	00008888 	andeq	r8, r0, r8, lsl #17
    876c:	00008888 	andeq	r8, r0, r8, lsl #17
    8770:	00008888 	andeq	r8, r0, r8, lsl #17
    8774:	00008888 	andeq	r8, r0, r8, lsl #17
    8778:	00008888 	andeq	r8, r0, r8, lsl #17
    877c:	00008888 	andeq	r8, r0, r8, lsl #17
    8780:	00008888 	andeq	r8, r0, r8, lsl #17
    8784:	00008810 	andeq	r8, r0, r0, lsl r8
    8788:	00008888 	andeq	r8, r0, r8, lsl #17
    878c:	00008888 	andeq	r8, r0, r8, lsl #17
    8790:	00008858 	andeq	r8, r0, r8, asr r8
    8794:	00008888 	andeq	r8, r0, r8, lsl #17
    8798:	000087ec 	andeq	r8, r0, ip, ror #15
    879c:	00008888 	andeq	r8, r0, r8, lsl #17
    87a0:	00008888 	andeq	r8, r0, r8, lsl #17
    87a4:	00008810 	andeq	r8, r0, r0, lsl r8
    87a8:	eb00028a 	bl	91d8 <rpi_reset_putc>
    87ac:	e59f0158 	ldr	r0, [pc, #344]	; 890c <va_printk+0x280>
    87b0:	e59f114c 	ldr	r1, [pc, #332]	; 8904 <va_printk+0x278>
    87b4:	e59f214c 	ldr	r2, [pc, #332]	; 8908 <va_printk+0x27c>
    87b8:	e3a03098 	mov	r3, #152	; 0x98
    87bc:	ebfffef3 	bl	8390 <printk>
    87c0:	eb000053 	bl	8914 <clean_reboot>
    87c4:	e5993000 	ldr	r3, [r9]
    87c8:	e2899004 	add	r9, r9, #4
    87cc:	e58d7000 	str	r7, [sp]
    87d0:	e3a02001 	mov	r2, #1
    87d4:	e58d2004 	str	r2, [sp, #4]
    87d8:	e3a0000a 	mov	r0, #10
    87dc:	e28d1008 	add	r1, sp, #8
    87e0:	e3a02080 	mov	r2, #128	; 0x80
    87e4:	ebffff2c 	bl	849c <emit>
    87e8:	ea00002f 	b	88ac <va_printk+0x220>
    87ec:	e5993000 	ldr	r3, [r9]
    87f0:	e2899004 	add	r9, r9, #4
    87f4:	e58d7000 	str	r7, [sp]
    87f8:	e58db004 	str	fp, [sp, #4]
    87fc:	e3a0000a 	mov	r0, #10
    8800:	e28d1008 	add	r1, sp, #8
    8804:	e3a02080 	mov	r2, #128	; 0x80
    8808:	ebffff23 	bl	849c <emit>
    880c:	ea000026 	b	88ac <va_printk+0x220>
    8810:	e5993000 	ldr	r3, [r9]
    8814:	e2899004 	add	r9, r9, #4
    8818:	e58d7000 	str	r7, [sp]
    881c:	e58db004 	str	fp, [sp, #4]
    8820:	e3a00010 	mov	r0, #16
    8824:	e28d1008 	add	r1, sp, #8
    8828:	e3a02080 	mov	r2, #128	; 0x80
    882c:	ebffff1a 	bl	849c <emit>
    8830:	ea00001d 	b	88ac <va_printk+0x220>
    8834:	e5993000 	ldr	r3, [r9]
    8838:	e2899004 	add	r9, r9, #4
    883c:	e58d7000 	str	r7, [sp]
    8840:	e58db004 	str	fp, [sp, #4]
    8844:	e3a00002 	mov	r0, #2
    8848:	e28d1008 	add	r1, sp, #8
    884c:	e3a02080 	mov	r2, #128	; 0x80
    8850:	ebffff11 	bl	849c <emit>
    8854:	ea000014 	b	88ac <va_printk+0x220>
    8858:	e5990000 	ldr	r0, [r9]
    885c:	e2899004 	add	r9, r9, #4
    8860:	ea000011 	b	88ac <va_printk+0x220>
    8864:	e5993000 	ldr	r3, [r9]
    8868:	e2899004 	add	r9, r9, #4
    886c:	e58d7000 	str	r7, [sp]
    8870:	e58db004 	str	fp, [sp, #4]
    8874:	e3a00008 	mov	r0, #8
    8878:	e08d1000 	add	r1, sp, r0
    887c:	e3a02080 	mov	r2, #128	; 0x80
    8880:	ebffff05 	bl	849c <emit>
    8884:	ea000008 	b	88ac <va_printk+0x220>
    8888:	eb000252 	bl	91d8 <rpi_reset_putc>
    888c:	e5d63000 	ldrb	r3, [r6]
    8890:	e58d3000 	str	r3, [sp]
    8894:	e59f0074 	ldr	r0, [pc, #116]	; 8910 <va_printk+0x284>
    8898:	e59f1064 	ldr	r1, [pc, #100]	; 8904 <va_printk+0x278>
    889c:	e59f2064 	ldr	r2, [pc, #100]	; 8908 <va_printk+0x27c>
    88a0:	e3a030b9 	mov	r3, #185	; 0xb9
    88a4:	ebfffeb9 	bl	8390 <printk>
    88a8:	eb000019 	bl	8914 <clean_reboot>
    88ac:	e2862001 	add	r2, r6, #1
    88b0:	ea000002 	b	88c0 <va_printk+0x234>
    88b4:	e2800001 	add	r0, r0, #1
    88b8:	e5c43000 	strb	r3, [r4]
    88bc:	e2844001 	add	r4, r4, #1
    88c0:	e1540008 	cmp	r4, r8
    88c4:	2a000002 	bcs	88d4 <va_printk+0x248>
    88c8:	e5d03000 	ldrb	r3, [r0]
    88cc:	e3530000 	cmp	r3, #0
    88d0:	1afffff7 	bne	88b4 <va_printk+0x228>
    88d4:	e5d23000 	ldrb	r3, [r2]
    88d8:	e3530000 	cmp	r3, #0
    88dc:	0a000001 	beq	88e8 <va_printk+0x25c>
    88e0:	e1540008 	cmp	r4, r8
    88e4:	3affff73 	bcc	86b8 <va_printk+0x2c>
    88e8:	e2840001 	add	r0, r4, #1
    88ec:	e3a03000 	mov	r3, #0
    88f0:	e5c43000 	strb	r3, [r4]
    88f4:	e06a0000 	rsb	r0, sl, r0
    88f8:	e28dd08c 	add	sp, sp, #140	; 0x8c
    88fc:	e8bd8ff0 	pop	{r4, r5, r6, r7, r8, r9, sl, fp, pc}
    8900:	0000938c 	andeq	r9, r0, ip, lsl #7
    8904:	0000933c 	andeq	r9, r0, ip, lsr r3
    8908:	0000931c 	andeq	r9, r0, ip, lsl r3
    890c:	000093a8 	andeq	r9, r0, r8, lsr #7
    8910:	000093d0 	ldrdeq	r9, [r0], -r0

00008914 <clean_reboot>:
    8914:	e92d4008 	push	{r3, lr}
    8918:	e59f3014 	ldr	r3, [pc, #20]	; 8934 <clean_reboot+0x20>
    891c:	e5933000 	ldr	r3, [r3]
    8920:	e59f0010 	ldr	r0, [pc, #16]	; 8938 <clean_reboot+0x24>
    8924:	e12fff33 	blx	r3
    8928:	e3a00064 	mov	r0, #100	; 0x64
    892c:	eb000044 	bl	8a44 <delay_ms>
    8930:	eb000019 	bl	899c <rpi_reboot>
    8934:	0000920c 	andeq	r9, r0, ip, lsl #4
    8938:	00009408 	andeq	r9, r0, r8, lsl #8

0000893c <_cstart>:
    893c:	e92d4008 	push	{r3, lr}
    8940:	e59f3020 	ldr	r3, [pc, #32]	; 8968 <_cstart+0x2c>
    8944:	e59f2020 	ldr	r2, [pc, #32]	; 896c <_cstart+0x30>
    8948:	e3a01000 	mov	r1, #0
    894c:	ea000001 	b	8958 <_cstart+0x1c>
    8950:	e5831000 	str	r1, [r3]
    8954:	e2833004 	add	r3, r3, #4
    8958:	e1530002 	cmp	r3, r2
    895c:	3afffffb 	bcc	8950 <_cstart+0x14>
    8960:	ebfffdaa 	bl	8010 <notmain>
    8964:	eb00000c 	bl	899c <rpi_reboot>
    8968:	00009414 	andeq	r9, r0, r4, lsl r4
    896c:	00009818 	andeq	r9, r0, r8, lsl r8

00008970 <at_user_level>:
    8970:	e10f0000 	mrs	r0, CPSR
    8974:	e200001f 	and	r0, r0, #31
    8978:	e3500010 	cmp	r0, #16
    897c:	13a00000 	movne	r0, #0
    8980:	03a00001 	moveq	r0, #1
    8984:	e12fff1e 	bx	lr

00008988 <set_user_level>:
    8988:	e10f3000 	mrs	r3, CPSR
    898c:	e3c3301f 	bic	r3, r3, #31
    8990:	e3833010 	orr	r3, r3, #16
    8994:	e129f003 	msr	CPSR_fc, r3
    8998:	e12fff1e 	bx	lr

0000899c <rpi_reboot>:
    899c:	e92d4008 	push	{r3, lr}
    89a0:	ebfffff2 	bl	8970 <at_user_level>
    89a4:	e3500000 	cmp	r0, #0
    89a8:	0a000000 	beq	89b0 <rpi_reboot+0x14>
    89ac:	ebfffff5 	bl	8988 <set_user_level>
    89b0:	e3a0001e 	mov	r0, #30
    89b4:	eb000022 	bl	8a44 <delay_ms>
    89b8:	e59f0014 	ldr	r0, [pc, #20]	; 89d4 <rpi_reboot+0x38>
    89bc:	e59f1014 	ldr	r1, [pc, #20]	; 89d8 <rpi_reboot+0x3c>
    89c0:	eb0001ee 	bl	9180 <PUT32>
    89c4:	e59f0010 	ldr	r0, [pc, #16]	; 89dc <rpi_reboot+0x40>
    89c8:	e59f1010 	ldr	r1, [pc, #16]	; 89e0 <rpi_reboot+0x44>
    89cc:	eb0001eb 	bl	9180 <PUT32>
    89d0:	eafffffe 	b	89d0 <rpi_reboot+0x34>
    89d4:	20100024 	andscs	r0, r0, r4, lsr #32
    89d8:	5a000001 	bpl	89e4 <delay_cycles>
    89dc:	2010001c 	andscs	r0, r0, ip, lsl r0
    89e0:	5a000020 	bpl	8a68 <delay_sec+0x10>

000089e4 <delay_cycles>:
    89e4:	ea000001 	b	89f0 <delay_cycles+0xc>
    89e8:	e2811000 	add	r1, r1, #0
    89ec:	e1a00003 	mov	r0, r3
    89f0:	e2403001 	sub	r3, r0, #1
    89f4:	e3500000 	cmp	r0, #0
    89f8:	1afffffa 	bne	89e8 <delay_cycles+0x4>
    89fc:	e12fff1e 	bx	lr

00008a00 <timer_get_usec_raw>:
    8a00:	e92d4008 	push	{r3, lr}
    8a04:	e59f0004 	ldr	r0, [pc, #4]	; 8a10 <timer_get_usec_raw+0x10>
    8a08:	eb0001e8 	bl	91b0 <GET32>
    8a0c:	e8bd8008 	pop	{r3, pc}
    8a10:	20003004 	andcs	r3, r0, r4

00008a14 <timer_get_usec>:
    8a14:	e92d4008 	push	{r3, lr}
    8a18:	ebfffff8 	bl	8a00 <timer_get_usec_raw>
    8a1c:	e8bd8008 	pop	{r3, pc}

00008a20 <delay_us>:
    8a20:	e92d4038 	push	{r3, r4, r5, lr}
    8a24:	e1a05000 	mov	r5, r0
    8a28:	ebfffff9 	bl	8a14 <timer_get_usec>
    8a2c:	e1a04000 	mov	r4, r0
    8a30:	ebfffff7 	bl	8a14 <timer_get_usec>
    8a34:	e0640000 	rsb	r0, r4, r0
    8a38:	e1500005 	cmp	r0, r5
    8a3c:	3afffffb 	bcc	8a30 <delay_us+0x10>
    8a40:	e8bd8038 	pop	{r3, r4, r5, pc}

00008a44 <delay_ms>:
    8a44:	e92d4008 	push	{r3, lr}
    8a48:	e3a03ffa 	mov	r3, #1000	; 0x3e8
    8a4c:	e0000093 	mul	r0, r3, r0
    8a50:	ebfffff2 	bl	8a20 <delay_us>
    8a54:	e8bd8008 	pop	{r3, pc}

00008a58 <delay_sec>:
    8a58:	e92d4008 	push	{r3, lr}
    8a5c:	e3a03ffa 	mov	r3, #1000	; 0x3e8
    8a60:	e0000093 	mul	r0, r3, r0
    8a64:	ebfffff6 	bl	8a44 <delay_ms>
    8a68:	e8bd8008 	pop	{r3, pc}

00008a6c <gpio_set_output>:
    8a6c:	e92d4038 	push	{r3, r4, r5, lr}
    8a70:	e1a04000 	mov	r4, r0
    8a74:	e350001f 	cmp	r0, #31
    8a78:	88bd8038 	pophi	{r3, r4, r5, pc}
    8a7c:	e59f30b4 	ldr	r3, [pc, #180]	; 8b38 <gpio_set_output+0xcc>
    8a80:	e0832093 	umull	r2, r3, r3, r0
    8a84:	e1a031a3 	lsr	r3, r3, #3
    8a88:	e3530005 	cmp	r3, #5
    8a8c:	979ff103 	ldrls	pc, [pc, r3, lsl #2]
    8a90:	ea000017 	b	8af4 <gpio_set_output+0x88>
    8a94:	00008aac 	andeq	r8, r0, ip, lsr #21
    8a98:	00008ab8 			; <UNDEFINED> instruction: 0x00008ab8
    8a9c:	00008ac4 	andeq	r8, r0, r4, asr #21
    8aa0:	00008ad0 	ldrdeq	r8, [r0], -r0
    8aa4:	00008adc 	ldrdeq	r8, [r0], -ip
    8aa8:	00008ae8 	andeq	r8, r0, r8, ror #21
    8aac:	e59f3088 	ldr	r3, [pc, #136]	; 8b3c <gpio_set_output+0xd0>
    8ab0:	e5935000 	ldr	r5, [r3]
    8ab4:	ea00000f 	b	8af8 <gpio_set_output+0x8c>
    8ab8:	e59f307c 	ldr	r3, [pc, #124]	; 8b3c <gpio_set_output+0xd0>
    8abc:	e5935004 	ldr	r5, [r3, #4]
    8ac0:	ea00000c 	b	8af8 <gpio_set_output+0x8c>
    8ac4:	e59f3070 	ldr	r3, [pc, #112]	; 8b3c <gpio_set_output+0xd0>
    8ac8:	e5935008 	ldr	r5, [r3, #8]
    8acc:	ea000009 	b	8af8 <gpio_set_output+0x8c>
    8ad0:	e59f3064 	ldr	r3, [pc, #100]	; 8b3c <gpio_set_output+0xd0>
    8ad4:	e593500c 	ldr	r5, [r3, #12]
    8ad8:	ea000006 	b	8af8 <gpio_set_output+0x8c>
    8adc:	e59f3058 	ldr	r3, [pc, #88]	; 8b3c <gpio_set_output+0xd0>
    8ae0:	e5935010 	ldr	r5, [r3, #16]
    8ae4:	ea000003 	b	8af8 <gpio_set_output+0x8c>
    8ae8:	e59f304c 	ldr	r3, [pc, #76]	; 8b3c <gpio_set_output+0xd0>
    8aec:	e5935014 	ldr	r5, [r3, #20]
    8af0:	ea000000 	b	8af8 <gpio_set_output+0x8c>
    8af4:	e3a05000 	mov	r5, #0
    8af8:	e1a00005 	mov	r0, r5
    8afc:	eb0001a9 	bl	91a8 <get32>
    8b00:	e59f1030 	ldr	r1, [pc, #48]	; 8b38 <gpio_set_output+0xcc>
    8b04:	e0813491 	umull	r3, r1, r1, r4
    8b08:	e1a011a1 	lsr	r1, r1, #3
    8b0c:	e0811101 	add	r1, r1, r1, lsl #2
    8b10:	e1a01081 	lsl	r1, r1, #1
    8b14:	e0611004 	rsb	r1, r1, r4
    8b18:	e0811081 	add	r1, r1, r1, lsl #1
    8b1c:	e3a03007 	mov	r3, #7
    8b20:	e1c03113 	bic	r3, r0, r3, lsl r1
    8b24:	e1a00005 	mov	r0, r5
    8b28:	e3a02001 	mov	r2, #1
    8b2c:	e1831112 	orr	r1, r3, r2, lsl r1
    8b30:	eb000190 	bl	9178 <put32>
    8b34:	e8bd8038 	pop	{r3, r4, r5, pc}
    8b38:	cccccccd 	stclgt	12, cr12, [ip], {205}	; 0xcd
    8b3c:	00009210 	andeq	r9, r0, r0, lsl r2

00008b40 <gpio_set_on>:
    8b40:	e92d4008 	push	{r3, lr}
    8b44:	e350001f 	cmp	r0, #31
    8b48:	88bd8008 	pophi	{r3, pc}
    8b4c:	959f3020 	ldrls	r3, [pc, #32]	; 8b74 <gpio_set_on+0x34>
    8b50:	95932018 	ldrls	r2, [r3, #24]
    8b54:	859f3018 	ldrhi	r3, [pc, #24]	; 8b74 <gpio_set_on+0x34>
    8b58:	8593201c 	ldrhi	r2, [r3, #28]
    8b5c:	e200301f 	and	r3, r0, #31
    8b60:	e1a00002 	mov	r0, r2
    8b64:	e3a01001 	mov	r1, #1
    8b68:	e1a01311 	lsl	r1, r1, r3
    8b6c:	eb000181 	bl	9178 <put32>
    8b70:	e8bd8008 	pop	{r3, pc}
    8b74:	00009210 	andeq	r9, r0, r0, lsl r2

00008b78 <gpio_set_off>:
    8b78:	e92d4008 	push	{r3, lr}
    8b7c:	e350001f 	cmp	r0, #31
    8b80:	88bd8008 	pophi	{r3, pc}
    8b84:	959f3020 	ldrls	r3, [pc, #32]	; 8bac <gpio_set_off+0x34>
    8b88:	95932020 	ldrls	r2, [r3, #32]
    8b8c:	859f3018 	ldrhi	r3, [pc, #24]	; 8bac <gpio_set_off+0x34>
    8b90:	85932024 	ldrhi	r2, [r3, #36]	; 0x24
    8b94:	e200301f 	and	r3, r0, #31
    8b98:	e1a00002 	mov	r0, r2
    8b9c:	e3a01001 	mov	r1, #1
    8ba0:	e1a01311 	lsl	r1, r1, r3
    8ba4:	eb000173 	bl	9178 <put32>
    8ba8:	e8bd8008 	pop	{r3, pc}
    8bac:	00009210 	andeq	r9, r0, r0, lsl r2

00008bb0 <gpio_set_input>:
    8bb0:	e92d4038 	push	{r3, r4, r5, lr}
    8bb4:	e1a04000 	mov	r4, r0
    8bb8:	e350001f 	cmp	r0, #31
    8bbc:	88bd8038 	pophi	{r3, r4, r5, pc}
    8bc0:	e59f30ac 	ldr	r3, [pc, #172]	; 8c74 <gpio_set_input+0xc4>
    8bc4:	e0832093 	umull	r2, r3, r3, r0
    8bc8:	e1a031a3 	lsr	r3, r3, #3
    8bcc:	e3530005 	cmp	r3, #5
    8bd0:	979ff103 	ldrls	pc, [pc, r3, lsl #2]
    8bd4:	ea000017 	b	8c38 <gpio_set_input+0x88>
    8bd8:	00008bf0 	strdeq	r8, [r0], -r0
    8bdc:	00008bfc 	strdeq	r8, [r0], -ip
    8be0:	00008c08 	andeq	r8, r0, r8, lsl #24
    8be4:	00008c14 	andeq	r8, r0, r4, lsl ip
    8be8:	00008c20 	andeq	r8, r0, r0, lsr #24
    8bec:	00008c2c 	andeq	r8, r0, ip, lsr #24
    8bf0:	e59f3080 	ldr	r3, [pc, #128]	; 8c78 <gpio_set_input+0xc8>
    8bf4:	e5935000 	ldr	r5, [r3]
    8bf8:	ea00000f 	b	8c3c <gpio_set_input+0x8c>
    8bfc:	e59f3074 	ldr	r3, [pc, #116]	; 8c78 <gpio_set_input+0xc8>
    8c00:	e5935004 	ldr	r5, [r3, #4]
    8c04:	ea00000c 	b	8c3c <gpio_set_input+0x8c>
    8c08:	e59f3068 	ldr	r3, [pc, #104]	; 8c78 <gpio_set_input+0xc8>
    8c0c:	e5935008 	ldr	r5, [r3, #8]
    8c10:	ea000009 	b	8c3c <gpio_set_input+0x8c>
    8c14:	e59f305c 	ldr	r3, [pc, #92]	; 8c78 <gpio_set_input+0xc8>
    8c18:	e593500c 	ldr	r5, [r3, #12]
    8c1c:	ea000006 	b	8c3c <gpio_set_input+0x8c>
    8c20:	e59f3050 	ldr	r3, [pc, #80]	; 8c78 <gpio_set_input+0xc8>
    8c24:	e5935010 	ldr	r5, [r3, #16]
    8c28:	ea000003 	b	8c3c <gpio_set_input+0x8c>
    8c2c:	e59f3044 	ldr	r3, [pc, #68]	; 8c78 <gpio_set_input+0xc8>
    8c30:	e5935014 	ldr	r5, [r3, #20]
    8c34:	ea000000 	b	8c3c <gpio_set_input+0x8c>
    8c38:	e3a05000 	mov	r5, #0
    8c3c:	e1a00005 	mov	r0, r5
    8c40:	eb000158 	bl	91a8 <get32>
    8c44:	e59f1028 	ldr	r1, [pc, #40]	; 8c74 <gpio_set_input+0xc4>
    8c48:	e0813491 	umull	r3, r1, r1, r4
    8c4c:	e1a011a1 	lsr	r1, r1, #3
    8c50:	e0811101 	add	r1, r1, r1, lsl #2
    8c54:	e1a01081 	lsl	r1, r1, #1
    8c58:	e0611004 	rsb	r1, r1, r4
    8c5c:	e0811081 	add	r1, r1, r1, lsl #1
    8c60:	e3a03007 	mov	r3, #7
    8c64:	e1c01113 	bic	r1, r0, r3, lsl r1
    8c68:	e1a00005 	mov	r0, r5
    8c6c:	eb000141 	bl	9178 <put32>
    8c70:	e8bd8038 	pop	{r3, r4, r5, pc}
    8c74:	cccccccd 	stclgt	12, cr12, [ip], {205}	; 0xcd
    8c78:	00009210 	andeq	r9, r0, r0, lsl r2

00008c7c <gpio_read>:
    8c7c:	e92d4010 	push	{r4, lr}
    8c80:	e1a04000 	mov	r4, r0
    8c84:	e350001f 	cmp	r0, #31
    8c88:	8a00000b 	bhi	8cbc <gpio_read+0x40>
    8c8c:	8a000003 	bhi	8ca0 <gpio_read+0x24>
    8c90:	e59f302c 	ldr	r3, [pc, #44]	; 8cc4 <gpio_read+0x48>
    8c94:	e5930028 	ldr	r0, [r3, #40]	; 0x28
    8c98:	eb000142 	bl	91a8 <get32>
    8c9c:	ea000002 	b	8cac <gpio_read+0x30>
    8ca0:	e59f301c 	ldr	r3, [pc, #28]	; 8cc4 <gpio_read+0x48>
    8ca4:	e593002c 	ldr	r0, [r3, #44]	; 0x2c
    8ca8:	eb00013e 	bl	91a8 <get32>
    8cac:	e204401f 	and	r4, r4, #31
    8cb0:	e3a03001 	mov	r3, #1
    8cb4:	e0000413 	and	r0, r0, r3, lsl r4
    8cb8:	e8bd8010 	pop	{r4, pc}
    8cbc:	e3e00000 	mvn	r0, #0
    8cc0:	e8bd8010 	pop	{r4, pc}
    8cc4:	00009210 	andeq	r9, r0, r0, lsl r2

00008cc8 <gpio_write>:
    8cc8:	e92d4008 	push	{r3, lr}
    8ccc:	e350001f 	cmp	r0, #31
    8cd0:	88bd8008 	pophi	{r3, pc}
    8cd4:	e3510000 	cmp	r1, #0
    8cd8:	0a000001 	beq	8ce4 <gpio_write+0x1c>
    8cdc:	ebffff97 	bl	8b40 <gpio_set_on>
    8ce0:	e8bd8008 	pop	{r3, pc}
    8ce4:	ebffffa3 	bl	8b78 <gpio_set_off>
    8ce8:	e8bd8008 	pop	{r3, pc}

00008cec <gpio_set_function>:
    8cec:	e92d4070 	push	{r4, r5, r6, lr}
    8cf0:	e1a04000 	mov	r4, r0
    8cf4:	e1a05001 	mov	r5, r1
    8cf8:	e3510007 	cmp	r1, #7
    8cfc:	9350001f 	cmpls	r0, #31
    8d00:	88bd8070 	pophi	{r4, r5, r6, pc}
    8d04:	e59f30b0 	ldr	r3, [pc, #176]	; 8dbc <gpio_set_function+0xd0>
    8d08:	e0832093 	umull	r2, r3, r3, r0
    8d0c:	e1a031a3 	lsr	r3, r3, #3
    8d10:	e3530005 	cmp	r3, #5
    8d14:	979ff103 	ldrls	pc, [pc, r3, lsl #2]
    8d18:	ea000017 	b	8d7c <gpio_set_function+0x90>
    8d1c:	00008d34 	andeq	r8, r0, r4, lsr sp
    8d20:	00008d40 	andeq	r8, r0, r0, asr #26
    8d24:	00008d4c 	andeq	r8, r0, ip, asr #26
    8d28:	00008d58 	andeq	r8, r0, r8, asr sp
    8d2c:	00008d64 	andeq	r8, r0, r4, ror #26
    8d30:	00008d70 	andeq	r8, r0, r0, ror sp
    8d34:	e59f3084 	ldr	r3, [pc, #132]	; 8dc0 <gpio_set_function+0xd4>
    8d38:	e5936000 	ldr	r6, [r3]
    8d3c:	ea00000f 	b	8d80 <gpio_set_function+0x94>
    8d40:	e59f3078 	ldr	r3, [pc, #120]	; 8dc0 <gpio_set_function+0xd4>
    8d44:	e5936004 	ldr	r6, [r3, #4]
    8d48:	ea00000c 	b	8d80 <gpio_set_function+0x94>
    8d4c:	e59f306c 	ldr	r3, [pc, #108]	; 8dc0 <gpio_set_function+0xd4>
    8d50:	e5936008 	ldr	r6, [r3, #8]
    8d54:	ea000009 	b	8d80 <gpio_set_function+0x94>
    8d58:	e59f3060 	ldr	r3, [pc, #96]	; 8dc0 <gpio_set_function+0xd4>
    8d5c:	e593600c 	ldr	r6, [r3, #12]
    8d60:	ea000006 	b	8d80 <gpio_set_function+0x94>
    8d64:	e59f3054 	ldr	r3, [pc, #84]	; 8dc0 <gpio_set_function+0xd4>
    8d68:	e5936010 	ldr	r6, [r3, #16]
    8d6c:	ea000003 	b	8d80 <gpio_set_function+0x94>
    8d70:	e59f3048 	ldr	r3, [pc, #72]	; 8dc0 <gpio_set_function+0xd4>
    8d74:	e5936014 	ldr	r6, [r3, #20]
    8d78:	ea000000 	b	8d80 <gpio_set_function+0x94>
    8d7c:	e3a06000 	mov	r6, #0
    8d80:	e1a00006 	mov	r0, r6
    8d84:	eb000107 	bl	91a8 <get32>
    8d88:	e59f302c 	ldr	r3, [pc, #44]	; 8dbc <gpio_set_function+0xd0>
    8d8c:	e0832493 	umull	r2, r3, r3, r4
    8d90:	e1a031a3 	lsr	r3, r3, #3
    8d94:	e0833103 	add	r3, r3, r3, lsl #2
    8d98:	e1a03083 	lsl	r3, r3, #1
    8d9c:	e0633004 	rsb	r3, r3, r4
    8da0:	e0833083 	add	r3, r3, r3, lsl #1
    8da4:	e3a01007 	mov	r1, #7
    8da8:	e1c01311 	bic	r1, r0, r1, lsl r3
    8dac:	e1a00006 	mov	r0, r6
    8db0:	e1811315 	orr	r1, r1, r5, lsl r3
    8db4:	eb0000ef 	bl	9178 <put32>
    8db8:	e8bd8070 	pop	{r4, r5, r6, pc}
    8dbc:	cccccccd 	stclgt	12, cr12, [ip], {205}	; 0xcd
    8dc0:	00009210 	andeq	r9, r0, r0, lsl r2

00008dc4 <gpio_toggle>:
    8dc4:	e92d4008 	push	{r3, lr}
    8dc8:	e350001f 	cmp	r0, #31
    8dcc:	88bd8008 	pophi	{r3, pc}
    8dd0:	959f3020 	ldrls	r3, [pc, #32]	; 8df8 <gpio_toggle+0x34>
    8dd4:	95932018 	ldrls	r2, [r3, #24]
    8dd8:	859f3018 	ldrhi	r3, [pc, #24]	; 8df8 <gpio_toggle+0x34>
    8ddc:	8593201c 	ldrhi	r2, [r3, #28]
    8de0:	e200301f 	and	r3, r0, #31
    8de4:	e1a00002 	mov	r0, r2
    8de8:	e3a01001 	mov	r1, #1
    8dec:	e1a01311 	lsl	r1, r1, r3
    8df0:	eb0000e0 	bl	9178 <put32>
    8df4:	e8bd8008 	pop	{r3, pc}
    8df8:	00009210 	andeq	r9, r0, r0, lsl r2

00008dfc <is_gpio_int>:
    8dfc:	e92d4008 	push	{r3, lr}
    8e00:	e59f301c 	ldr	r3, [pc, #28]	; 8e24 <is_gpio_int+0x28>
    8e04:	e5930030 	ldr	r0, [r3, #48]	; 0x30
    8e08:	eb0000e6 	bl	91a8 <get32>
    8e0c:	e3500000 	cmp	r0, #0
    8e10:	0a000001 	beq	8e1c <is_gpio_int+0x20>
    8e14:	e3a00001 	mov	r0, #1
    8e18:	e8bd8008 	pop	{r3, pc}
    8e1c:	e3a00000 	mov	r0, #0
    8e20:	e8bd8008 	pop	{r3, pc}
    8e24:	00009210 	andeq	r9, r0, r0, lsl r2

00008e28 <gpio_int_rising_edge>:
    8e28:	e92d4038 	push	{r3, r4, r5, lr}
    8e2c:	e1a04000 	mov	r4, r0
    8e30:	e350001f 	cmp	r0, #31
    8e34:	88bd8038 	pophi	{r3, r4, r5, pc}
    8e38:	eb0000c8 	bl	9160 <dev_barrier>
    8e3c:	e354001f 	cmp	r4, #31
    8e40:	8a000007 	bhi	8e64 <gpio_int_rising_edge+0x3c>
    8e44:	e59f505c 	ldr	r5, [pc, #92]	; 8ea8 <gpio_int_rising_edge+0x80>
    8e48:	e5950034 	ldr	r0, [r5, #52]	; 0x34
    8e4c:	eb0000d5 	bl	91a8 <get32>
    8e50:	e3a01001 	mov	r1, #1
    8e54:	e1801411 	orr	r1, r0, r1, lsl r4
    8e58:	e5950034 	ldr	r0, [r5, #52]	; 0x34
    8e5c:	eb0000c5 	bl	9178 <put32>
    8e60:	ea000007 	b	8e84 <gpio_int_rising_edge+0x5c>
    8e64:	e59f503c 	ldr	r5, [pc, #60]	; 8ea8 <gpio_int_rising_edge+0x80>
    8e68:	e5950038 	ldr	r0, [r5, #56]	; 0x38
    8e6c:	eb0000cd 	bl	91a8 <get32>
    8e70:	e204401f 	and	r4, r4, #31
    8e74:	e3a01001 	mov	r1, #1
    8e78:	e1801411 	orr	r1, r0, r1, lsl r4
    8e7c:	e5950038 	ldr	r0, [r5, #56]	; 0x38
    8e80:	eb0000bc 	bl	9178 <put32>
    8e84:	eb0000b5 	bl	9160 <dev_barrier>
    8e88:	e59f4018 	ldr	r4, [pc, #24]	; 8ea8 <gpio_int_rising_edge+0x80>
    8e8c:	e594003c 	ldr	r0, [r4, #60]	; 0x3c
    8e90:	eb0000c4 	bl	91a8 <get32>
    8e94:	e3801802 	orr	r1, r0, #131072	; 0x20000
    8e98:	e594003c 	ldr	r0, [r4, #60]	; 0x3c
    8e9c:	eb0000b5 	bl	9178 <put32>
    8ea0:	eb0000ae 	bl	9160 <dev_barrier>
    8ea4:	e8bd8038 	pop	{r3, r4, r5, pc}
    8ea8:	00009210 	andeq	r9, r0, r0, lsl r2

00008eac <gpio_int_falling_edge>:
    8eac:	e92d4038 	push	{r3, r4, r5, lr}
    8eb0:	e1a04000 	mov	r4, r0
    8eb4:	e350001f 	cmp	r0, #31
    8eb8:	88bd8038 	pophi	{r3, r4, r5, pc}
    8ebc:	eb0000a7 	bl	9160 <dev_barrier>
    8ec0:	e354001f 	cmp	r4, #31
    8ec4:	8a000007 	bhi	8ee8 <gpio_int_falling_edge+0x3c>
    8ec8:	e59f505c 	ldr	r5, [pc, #92]	; 8f2c <gpio_int_falling_edge+0x80>
    8ecc:	e5950040 	ldr	r0, [r5, #64]	; 0x40
    8ed0:	eb0000b4 	bl	91a8 <get32>
    8ed4:	e3a01001 	mov	r1, #1
    8ed8:	e1801411 	orr	r1, r0, r1, lsl r4
    8edc:	e5950040 	ldr	r0, [r5, #64]	; 0x40
    8ee0:	eb0000a4 	bl	9178 <put32>
    8ee4:	ea000007 	b	8f08 <gpio_int_falling_edge+0x5c>
    8ee8:	e59f503c 	ldr	r5, [pc, #60]	; 8f2c <gpio_int_falling_edge+0x80>
    8eec:	e5950044 	ldr	r0, [r5, #68]	; 0x44
    8ef0:	eb0000ac 	bl	91a8 <get32>
    8ef4:	e204401f 	and	r4, r4, #31
    8ef8:	e3a01001 	mov	r1, #1
    8efc:	e1801411 	orr	r1, r0, r1, lsl r4
    8f00:	e5950044 	ldr	r0, [r5, #68]	; 0x44
    8f04:	eb00009b 	bl	9178 <put32>
    8f08:	eb000094 	bl	9160 <dev_barrier>
    8f0c:	e59f4018 	ldr	r4, [pc, #24]	; 8f2c <gpio_int_falling_edge+0x80>
    8f10:	e594003c 	ldr	r0, [r4, #60]	; 0x3c
    8f14:	eb0000a3 	bl	91a8 <get32>
    8f18:	e3801601 	orr	r1, r0, #1048576	; 0x100000
    8f1c:	e594003c 	ldr	r0, [r4, #60]	; 0x3c
    8f20:	eb000094 	bl	9178 <put32>
    8f24:	eb00008d 	bl	9160 <dev_barrier>
    8f28:	e8bd8038 	pop	{r3, r4, r5, pc}
    8f2c:	00009210 	andeq	r9, r0, r0, lsl r2

00008f30 <gpio_event_detected>:
    8f30:	e92d4010 	push	{r4, lr}
    8f34:	e1a04000 	mov	r4, r0
    8f38:	e350001f 	cmp	r0, #31
    8f3c:	8a000019 	bhi	8fa8 <gpio_event_detected+0x78>
    8f40:	eb000086 	bl	9160 <dev_barrier>
    8f44:	e354001f 	cmp	r4, #31
    8f48:	8a000008 	bhi	8f70 <gpio_event_detected+0x40>
    8f4c:	e59f305c 	ldr	r3, [pc, #92]	; 8fb0 <gpio_event_detected+0x80>
    8f50:	e5930048 	ldr	r0, [r3, #72]	; 0x48
    8f54:	eb000093 	bl	91a8 <get32>
    8f58:	e3a03001 	mov	r3, #1
    8f5c:	e0103413 	ands	r3, r0, r3, lsl r4
    8f60:	0a00000d 	beq	8f9c <gpio_event_detected+0x6c>
    8f64:	eb00007d 	bl	9160 <dev_barrier>
    8f68:	e3a00001 	mov	r0, #1
    8f6c:	e8bd8010 	pop	{r4, pc}
    8f70:	e59f3038 	ldr	r3, [pc, #56]	; 8fb0 <gpio_event_detected+0x80>
    8f74:	e593004c 	ldr	r0, [r3, #76]	; 0x4c
    8f78:	eb00008a 	bl	91a8 <get32>
    8f7c:	e3a03001 	mov	r3, #1
    8f80:	e0004413 	and	r4, r0, r3, lsl r4
    8f84:	eb000075 	bl	9160 <dev_barrier>
    8f88:	e3540000 	cmp	r4, #0
    8f8c:	0a000002 	beq	8f9c <gpio_event_detected+0x6c>
    8f90:	eb000072 	bl	9160 <dev_barrier>
    8f94:	e3a00001 	mov	r0, #1
    8f98:	e8bd8010 	pop	{r4, pc}
    8f9c:	eb00006f 	bl	9160 <dev_barrier>
    8fa0:	e3a00000 	mov	r0, #0
    8fa4:	e8bd8010 	pop	{r4, pc}
    8fa8:	e3e00000 	mvn	r0, #0
    8fac:	e8bd8010 	pop	{r4, pc}
    8fb0:	00009210 	andeq	r9, r0, r0, lsl r2

00008fb4 <gpio_event_clear>:
    8fb4:	e92d4010 	push	{r4, lr}
    8fb8:	e1a04000 	mov	r4, r0
    8fbc:	e350001f 	cmp	r0, #31
    8fc0:	88bd8010 	pophi	{r4, pc}
    8fc4:	eb000065 	bl	9160 <dev_barrier>
    8fc8:	e354001f 	cmp	r4, #31
    8fcc:	8a000005 	bhi	8fe8 <gpio_event_clear+0x34>
    8fd0:	e59f3030 	ldr	r3, [pc, #48]	; 9008 <gpio_event_clear+0x54>
    8fd4:	e5930048 	ldr	r0, [r3, #72]	; 0x48
    8fd8:	e3a01001 	mov	r1, #1
    8fdc:	e1a01411 	lsl	r1, r1, r4
    8fe0:	eb000064 	bl	9178 <put32>
    8fe4:	ea000005 	b	9000 <gpio_event_clear+0x4c>
    8fe8:	e204401f 	and	r4, r4, #31
    8fec:	e59f3014 	ldr	r3, [pc, #20]	; 9008 <gpio_event_clear+0x54>
    8ff0:	e593004c 	ldr	r0, [r3, #76]	; 0x4c
    8ff4:	e3a01001 	mov	r1, #1
    8ff8:	e1a01411 	lsl	r1, r1, r4
    8ffc:	eb00005d 	bl	9178 <put32>
    9000:	eb000056 	bl	9160 <dev_barrier>
    9004:	e8bd8010 	pop	{r4, pc}
    9008:	00009210 	andeq	r9, r0, r0, lsl r2

0000900c <uart_init>:
    900c:	e92d4038 	push	{r3, r4, r5, lr}
    9010:	eb000052 	bl	9160 <dev_barrier>
    9014:	e3a0000e 	mov	r0, #14
    9018:	e3a01002 	mov	r1, #2
    901c:	ebffff32 	bl	8cec <gpio_set_function>
    9020:	e3a0000f 	mov	r0, #15
    9024:	e3a01002 	mov	r1, #2
    9028:	ebffff2f 	bl	8cec <gpio_set_function>
    902c:	eb00004b 	bl	9160 <dev_barrier>
    9030:	e59f4068 	ldr	r4, [pc, #104]	; 90a0 <uart_init+0x94>
    9034:	e5945000 	ldr	r5, [r4]
    9038:	e1a00005 	mov	r0, r5
    903c:	eb000059 	bl	91a8 <get32>
    9040:	e3801001 	orr	r1, r0, #1
    9044:	e1a00005 	mov	r0, r5
    9048:	eb00004a 	bl	9178 <put32>
    904c:	eb000043 	bl	9160 <dev_barrier>
    9050:	e5940004 	ldr	r0, [r4, #4]
    9054:	e3a01000 	mov	r1, #0
    9058:	eb000046 	bl	9178 <put32>
    905c:	e5940008 	ldr	r0, [r4, #8]
    9060:	e3a01000 	mov	r1, #0
    9064:	eb000043 	bl	9178 <put32>
    9068:	e594000c 	ldr	r0, [r4, #12]
    906c:	e3a01006 	mov	r1, #6
    9070:	eb000040 	bl	9178 <put32>
    9074:	e5940010 	ldr	r0, [r4, #16]
    9078:	e3a01003 	mov	r1, #3
    907c:	eb00003d 	bl	9178 <put32>
    9080:	e5940014 	ldr	r0, [r4, #20]
    9084:	e59f1018 	ldr	r1, [pc, #24]	; 90a4 <uart_init+0x98>
    9088:	eb00003a 	bl	9178 <put32>
    908c:	e5940004 	ldr	r0, [r4, #4]
    9090:	e3a01003 	mov	r1, #3
    9094:	eb000037 	bl	9178 <put32>
    9098:	eb000030 	bl	9160 <dev_barrier>
    909c:	e8bd8038 	pop	{r3, r4, r5, pc}
    90a0:	00009270 	andeq	r9, r0, r0, ror r2
    90a4:	0000010e 	andeq	r0, r0, lr, lsl #2

000090a8 <uart_can_getc>:
    90a8:	e92d4008 	push	{r3, lr}
    90ac:	e59f300c 	ldr	r3, [pc, #12]	; 90c0 <uart_can_getc+0x18>
    90b0:	e5930018 	ldr	r0, [r3, #24]
    90b4:	eb00003b 	bl	91a8 <get32>
    90b8:	e2000001 	and	r0, r0, #1
    90bc:	e8bd8008 	pop	{r3, pc}
    90c0:	00009270 	andeq	r9, r0, r0, ror r2

000090c4 <uart_getc>:
    90c4:	e92d4008 	push	{r3, lr}
    90c8:	ebfffff6 	bl	90a8 <uart_can_getc>
    90cc:	e3500000 	cmp	r0, #0
    90d0:	0afffffc 	beq	90c8 <uart_getc+0x4>
    90d4:	e59f300c 	ldr	r3, [pc, #12]	; 90e8 <uart_getc+0x24>
    90d8:	e593001c 	ldr	r0, [r3, #28]
    90dc:	eb000031 	bl	91a8 <get32>
    90e0:	e6ef0070 	uxtb	r0, r0
    90e4:	e8bd8008 	pop	{r3, pc}
    90e8:	00009270 	andeq	r9, r0, r0, ror r2

000090ec <uart_can_putc>:
    90ec:	e92d4008 	push	{r3, lr}
    90f0:	e59f300c 	ldr	r3, [pc, #12]	; 9104 <uart_can_putc+0x18>
    90f4:	e5930018 	ldr	r0, [r3, #24]
    90f8:	eb00002a 	bl	91a8 <get32>
    90fc:	e2000020 	and	r0, r0, #32
    9100:	e8bd8008 	pop	{r3, pc}
    9104:	00009270 	andeq	r9, r0, r0, ror r2

00009108 <uart_putc>:
    9108:	e92d4010 	push	{r4, lr}
    910c:	e1a04000 	mov	r4, r0
    9110:	ebfffff5 	bl	90ec <uart_can_putc>
    9114:	e3500000 	cmp	r0, #0
    9118:	0afffffc 	beq	9110 <uart_putc+0x8>
    911c:	e59f300c 	ldr	r3, [pc, #12]	; 9130 <uart_putc+0x28>
    9120:	e593001c 	ldr	r0, [r3, #28]
    9124:	e1a01004 	mov	r1, r4
    9128:	eb000012 	bl	9178 <put32>
    912c:	e8bd8010 	pop	{r4, pc}
    9130:	00009270 	andeq	r9, r0, r0, ror r2

00009134 <uart_has_data>:
    9134:	e92d4008 	push	{r3, lr}
    9138:	ebffffda 	bl	90a8 <uart_can_getc>
    913c:	e8bd8008 	pop	{r3, pc}

00009140 <uart_getc_async>:
    9140:	e92d4008 	push	{r3, lr}
    9144:	ebfffffa 	bl	9134 <uart_has_data>
    9148:	e3500000 	cmp	r0, #0
    914c:	0a000001 	beq	9158 <uart_getc_async+0x18>
    9150:	ebffffdb 	bl	90c4 <uart_getc>
    9154:	e8bd8008 	pop	{r3, pc}
    9158:	e3e00000 	mvn	r0, #0
    915c:	e8bd8008 	pop	{r3, pc}

00009160 <dev_barrier>:
    9160:	ea000002 	b	9170 <dsb>

00009164 <dmb>:
    9164:	e3a00000 	mov	r0, #0
    9168:	ee070fba 	mcr	15, 0, r0, cr7, cr10, {5}
    916c:	e12fff1e 	bx	lr

00009170 <dsb>:
    9170:	ee070f9a 	mcr	15, 0, r0, cr7, cr10, {4}
    9174:	e12fff1e 	bx	lr

00009178 <put32>:
    9178:	e5801000 	str	r1, [r0]
    917c:	e12fff1e 	bx	lr

00009180 <PUT32>:
    9180:	e5801000 	str	r1, [r0]
    9184:	e12fff1e 	bx	lr

00009188 <put16>:
    9188:	e1c010b0 	strh	r1, [r0]
    918c:	e12fff1e 	bx	lr

00009190 <PUT16>:
    9190:	e1c010b0 	strh	r1, [r0]
    9194:	e12fff1e 	bx	lr

00009198 <put8>:
    9198:	e5c01000 	strb	r1, [r0]
    919c:	e12fff1e 	bx	lr

000091a0 <PUT8>:
    91a0:	e5c01000 	strb	r1, [r0]
    91a4:	e12fff1e 	bx	lr

000091a8 <get32>:
    91a8:	e5900000 	ldr	r0, [r0]
    91ac:	e12fff1e 	bx	lr

000091b0 <GET32>:
    91b0:	e5900000 	ldr	r0, [r0]
    91b4:	e12fff1e 	bx	lr

000091b8 <GETPC>:
    91b8:	e1a0000e 	mov	r0, lr
    91bc:	e12fff1e 	bx	lr

000091c0 <dummy>:
    91c0:	e12fff1e 	bx	lr

000091c4 <internal_putchar>:
    91c4:	e92d4010 	push	{r4, lr}
    91c8:	e1a04000 	mov	r4, r0
    91cc:	ebffffcd 	bl	9108 <uart_putc>
    91d0:	e1a00004 	mov	r0, r4
    91d4:	e8bd8010 	pop	{r4, pc}

000091d8 <rpi_reset_putc>:
    91d8:	e59f2008 	ldr	r2, [pc, #8]	; 91e8 <rpi_reset_putc+0x10>
    91dc:	e59f3008 	ldr	r3, [pc, #8]	; 91ec <rpi_reset_putc+0x14>
    91e0:	e5832000 	str	r2, [r3]
    91e4:	e12fff1e 	bx	lr
    91e8:	000091c4 	andeq	r9, r0, r4, asr #3
    91ec:	000092a4 	andeq	r9, r0, r4, lsr #5

000091f0 <rpi_set_putc>:
    91f0:	e59f3004 	ldr	r3, [pc, #4]	; 91fc <rpi_set_putc+0xc>
    91f4:	e5830000 	str	r0, [r3]
    91f8:	e12fff1e 	bx	lr
    91fc:	000092a4 	andeq	r9, r0, r4, lsr #5

Disassembly of section .data:

00009200 <GPPUD>:
    9200:	20200094 	mlacs	r0, r4, r0, r0

00009204 <GPPUDCLK0>:
    9204:	20200098 	mlacs	r0, r8, r0, r0

00009208 <GPPUDCLK1>:
    9208:	2020009c 	mlacs	r0, ip, r0, r0

0000920c <putk>:
    920c:	000083e8 	andeq	r8, r0, r8, ror #7

00009210 <GPFSEL0>:
    9210:	20200000 	eorcs	r0, r0, r0

00009214 <GPFSEL1>:
    9214:	20200004 	eorcs	r0, r0, r4

00009218 <GPFSEL2>:
    9218:	20200008 	eorcs	r0, r0, r8

0000921c <GPFSEL3>:
    921c:	2020000c 	eorcs	r0, r0, ip

00009220 <GPFSEL4>:
    9220:	20200010 	eorcs	r0, r0, r0, lsl r0

00009224 <GPFSEL5>:
    9224:	20200014 	eorcs	r0, r0, r4, lsl r0

00009228 <GPSET0>:
    9228:	2020001c 	eorcs	r0, r0, ip, lsl r0

0000922c <GPSET1>:
    922c:	20200020 	eorcs	r0, r0, r0, lsr #32

00009230 <GPCLR0>:
    9230:	20200028 	eorcs	r0, r0, r8, lsr #32

00009234 <GPCLR1>:
    9234:	2020002c 	eorcs	r0, r0, ip, lsr #32

00009238 <GPLEV0>:
    9238:	20200034 	eorcs	r0, r0, r4, lsr r0

0000923c <GPLEV1>:
    923c:	20200038 	eorcs	r0, r0, r8, lsr r0

00009240 <IRQ_PENDING_2>:
    9240:	2000b208 	andcs	fp, r0, r8, lsl #4

00009244 <GPREN0>:
    9244:	2020004c 	eorcs	r0, r0, ip, asr #32

00009248 <GPREN1>:
    9248:	20200050 	eorcs	r0, r0, r0, asr r0

0000924c <ENABLE_IRQS_2>:
    924c:	2000b214 	andcs	fp, r0, r4, lsl r2

00009250 <GPFEN0>:
    9250:	20200058 	eorcs	r0, r0, r8, asr r0

00009254 <GPFEN1>:
    9254:	2020005c 	eorcs	r0, r0, ip, asr r0

00009258 <GPEDS0>:
    9258:	20200040 	eorcs	r0, r0, r0, asr #32

0000925c <GPEDS1>:
    925c:	20200044 	eorcs	r0, r0, r4, asr #32

00009260 <IRQ_PENDING_1>:
    9260:	2000b204 	andcs	fp, r0, r4, lsl #4

00009264 <gpio_clr0>:
    9264:	20200028 	eorcs	r0, r0, r8, lsr #32

00009268 <gpio_set0>:
    9268:	2020001c 	eorcs	r0, r0, ip, lsl r0

0000926c <gpio_fsel0>:
    926c:	20200000 	eorcs	r0, r0, r0

00009270 <AUX_ENABLES>:
    9270:	20215004 	eorcs	r5, r1, r4

00009274 <AUX_MU_CNTL_REG>:
    9274:	20215060 	eorcs	r5, r1, r0, rrx

00009278 <AUX_MU_IER_REG>:
    9278:	20215044 	eorcs	r5, r1, r4, asr #32

0000927c <AUX_MU_IIR_REG>:
    927c:	20215048 	eorcs	r5, r1, r8, asr #32

00009280 <AUX_MU_LCR_REG>:
    9280:	2021504c 	eorcs	r5, r1, ip, asr #32

00009284 <AUX_MU_BAUD_REG>:
    9284:	20215068 	eorcs	r5, r1, r8, rrx

00009288 <AUX_MU_LSR_REG>:
    9288:	20215054 	eorcs	r5, r1, r4, asr r0

0000928c <AUX_MU_IO_REG>:
    928c:	20215040 	eorcs	r5, r1, r0, asr #32

00009290 <AUX_MU_STAT_REG>:
    9290:	20215064 	eorcs	r5, r1, r4, rrx

00009294 <AUX_MU_SCRATCH>:
    9294:	2021505c 	eorcs	r5, r1, ip, asr r0

00009298 <AUX_MU_MSR_REG>:
    9298:	20215058 	eorcs	r5, r1, r8, asr r0

0000929c <AUX_MU_MCR_REG>:
    929c:	20215050 	eorcs	r5, r1, r0, asr r0

000092a0 <AUX_IRQ>:
    92a0:	20215000 	eorcs	r5, r1, r0

000092a4 <rpi_putchar>:
    92a4:	000091c4 	andeq	r9, r0, r4, asr #3

Disassembly of section .rodata:

000092a8 <__FUNCTION__.4271-0x5c>:
    92a8:	72617473 	rsbvc	r7, r1, #1929379840	; 0x73000000
    92ac:	676e6974 			; <UNDEFINED> instruction: 0x676e6974
    92b0:	6e6f7320 	cdpvs	3, 6, cr7, cr15, cr0, {1}
    92b4:	0a217261 	beq	865c40 <__bss_end__+0x85c428>
    92b8:	00000000 	andeq	r0, r0, r0
    92bc:	616e6f73 	smcvs	59123	; 0xe6f3
    92c0:	65722072 	ldrbvs	r2, [r2, #-114]!	; 0x72
    92c4:	21796461 	cmncs	r9, r1, ror #8
    92c8:	0000000a 	andeq	r0, r0, sl
    92cc:	656d6974 	strbvs	r6, [sp, #-2420]!	; 0x974
    92d0:	2174756f 	cmncs	r4, pc, ror #10
    92d4:	0000000a 	andeq	r0, r0, sl
    92d8:	74736964 	ldrbtvc	r6, [r3], #-2404	; 0x964
    92dc:	65636e61 	strbvs	r6, [r3, #-3681]!	; 0xe61
    92e0:	25203d20 	strcs	r3, [r0, #-3360]!	; 0xd20
    92e4:	6e692064 	cdpvs	0, 6, cr2, cr9, cr4, {3}
    92e8:	73656863 	cmnvc	r5, #6488064	; 0x630000
    92ec:	0000000a 	andeq	r0, r0, sl
    92f0:	706f7473 	rsbvc	r7, pc, r3, ror r4	; <UNPREDICTABLE>
    92f4:	676e6970 			; <UNDEFINED> instruction: 0x676e6970
    92f8:	6e6f7320 	cdpvs	3, 6, cr7, cr15, cr0, {1}
    92fc:	21207261 	teqcs	r0, r1, ror #4
    9300:	0000000a 	andeq	r0, r0, sl

00009304 <__FUNCTION__.4271>:
    9304:	74696d65 	strbtvc	r6, [r9], #-3429	; 0xd65
    9308:	00000000 	andeq	r0, r0, r0

0000930c <__FUNCTION__.4219>:
    930c:	5f697072 	svcpl	0x00697072
    9310:	5f746573 	svcpl	0x00746573
    9314:	7074756f 	rsbsvc	r7, r4, pc, ror #10
    9318:	00007475 	andeq	r7, r0, r5, ror r4

0000931c <__FUNCTION__.4293>:
    931c:	705f6176 	subsvc	r6, pc, r6, ror r1	; <UNPREDICTABLE>
    9320:	746e6972 	strbtvc	r6, [lr], #-2418	; 0x972
    9324:	0000006b 	andeq	r0, r0, fp, rrx
    9328:	494e4150 	stmdbmi	lr, {r4, r6, r8, lr}^
    932c:	73253a43 	teqvc	r5, #274432	; 0x43000
    9330:	3a73253a 	bcc	1cd2820 <__bss_end__+0x1cc9008>
    9334:	303a6425 	eorscc	r6, sl, r5, lsr #8
    9338:	0000000a 	andeq	r0, r0, sl
    933c:	6362696c 	cmnvs	r2, #108, 18	; 0x1b0000
    9340:	2d61762f 	stclcs	6, cr7, [r1, #-188]!	; 0xffffff44
    9344:	6e697270 	mcrvs	2, 3, r7, cr9, cr0, {3}
    9348:	632e6b74 	teqvs	lr, #116, 22	; 0x1d000
    934c:	00000000 	andeq	r0, r0, r0
    9350:	33323130 	teqcc	r2, #48, 2
    9354:	37363534 			; <UNDEFINED> instruction: 0x37363534
    9358:	00003938 	andeq	r3, r0, r8, lsr r9
    935c:	33323130 	teqcc	r2, #48, 2
    9360:	37363534 			; <UNDEFINED> instruction: 0x37363534
    9364:	62613938 	rsbvs	r3, r1, #56, 18	; 0xe0000
    9368:	66656463 	strbtvs	r6, [r5], -r3, ror #8
    936c:	00000000 	andeq	r0, r0, r0
    9370:	00003130 	andeq	r3, r0, r0, lsr r1
    9374:	494e4150 	stmdbmi	lr, {r4, r6, r8, lr}^
    9378:	73253a43 	teqvc	r5, #274432	; 0x43000
    937c:	3a73253a 	bcc	1cd286c <__bss_end__+0x1cc9054>
    9380:	703a6425 	eorsvc	r6, sl, r5, lsr #8
    9384:	5f637475 	svcpl	0x00637475
    9388:	000a7066 	andeq	r7, sl, r6, rrx
    938c:	494e4150 	stmdbmi	lr, {r4, r6, r8, lr}^
    9390:	73253a43 	teqvc	r5, #274432	; 0x43000
    9394:	3a73253a 	bcc	1cd2884 <__bss_end__+0x1cc906c>
    9398:	773a6425 	ldrvc	r6, [sl, -r5, lsr #8]!
    939c:	68746469 	ldmdavs	r4!, {r0, r3, r5, r6, sl, sp, lr}^
    93a0:	33203c20 	teqcc	r0, #32, 24	; 0x2000
    93a4:	00000a32 	andeq	r0, r0, r2, lsr sl
    93a8:	494e4150 	stmdbmi	lr, {r4, r6, r8, lr}^
    93ac:	73253a43 	teqvc	r5, #274432	; 0x43000
    93b0:	3a73253a 	bcc	1cd28a0 <__bss_end__+0x1cc9088>
    93b4:	663a6425 	ldrtvs	r6, [sl], -r5, lsr #8
    93b8:	74616f6c 	strbtvc	r6, [r1], #-3948	; 0xf6c
    93bc:	746f6e20 	strbtvc	r6, [pc], #-3616	; 93c4 <__FUNCTION__.4293+0xa8>
    93c0:	616e6520 	cmnvs	lr, r0, lsr #10
    93c4:	64656c62 	strbtvs	r6, [r5], #-3170	; 0xc62
    93c8:	0a212121 	beq	851854 <__bss_end__+0x84803c>
    93cc:	00000000 	andeq	r0, r0, r0
    93d0:	494e4150 	stmdbmi	lr, {r4, r6, r8, lr}^
    93d4:	73253a43 	teqvc	r5, #274432	; 0x43000
    93d8:	3a73253a 	bcc	1cd28c8 <__bss_end__+0x1cc90b0>
    93dc:	703a6425 	eorsvc	r6, sl, r5, lsr #8
    93e0:	746e6972 	strbtvc	r6, [lr], #-2418	; 0x972
    93e4:	6e203a6b 	vnmulvs.f32	s6, s0, s23
    93e8:	6820746f 	stmdavs	r0!, {r0, r1, r2, r3, r5, r6, sl, ip, sp, lr}
    93ec:	6c646e61 	stclvs	14, cr6, [r4], #-388	; 0xfffffe7c
    93f0:	20676e69 	rsbcs	r6, r7, r9, ror #28
    93f4:	63657073 	cmnvs	r5, #115	; 0x73
    93f8:	65696669 	strbvs	r6, [r9, #-1641]!	; 0x669
    93fc:	25272072 	strcs	r2, [r7, #-114]!	; 0x72
    9400:	0a0a2763 	beq	293194 <__bss_end__+0x28997c>
    9404:	00000000 	andeq	r0, r0, r0
    9408:	454e4f44 	strbmi	r4, [lr, #-3908]	; 0xf44
    940c:	0a212121 	beq	851898 <__bss_end__+0x848080>
    9410:	00000000 	andeq	r0, r0, r0

Disassembly of section .bss:

00009414 <__bss_start__>:
    9414:	00000000 	andeq	r0, r0, r0

00009418 <buf.4219>:
	...

Disassembly of section .ARM.attributes:

00000000 <.ARM.attributes>:
   0:	00002a41 	andeq	r2, r0, r1, asr #20
   4:	61656100 	cmnvs	r5, r0, lsl #2
   8:	01006962 	tsteq	r0, r2, ror #18
   c:	00000020 	andeq	r0, r0, r0, lsr #32
  10:	4b5a3605 	blmi	168d82c <__bss_end__+0x1684014>
  14:	08070600 	stmdaeq	r7, {r9, sl}
  18:	12010901 	andne	r0, r1, #16384	; 0x4000
  1c:	15011404 	strne	r1, [r1, #-1028]	; 0x404
  20:	18031701 	stmdane	r3, {r0, r8, r9, sl, ip}
  24:	22011a01 	andcs	r1, r1, #4096	; 0x1000
  28:	Address 0x0000000000000028 is out of bounds.


Disassembly of section .comment:

00000000 <.comment>:
   0:	3a434347 	bcc	10d0d24 <__bss_end__+0x10c750c>
   4:	4e472820 	cdpmi	8, 4, cr2, cr7, cr0, {1}
   8:	34202955 	strtcc	r2, [r0], #-2389	; 0x955
   c:	332e382e 	teqcc	lr, #3014656	; 0x2e0000
	...

Disassembly of section .debug_info:

00000000 <.debug_info>:
       0:	00000241 	andeq	r0, r0, r1, asr #4
       4:	00000004 	andeq	r0, r0, r4
       8:	01040000 	mrseq	r0, (UNDEF: 4)
       c:	0000005c 	andeq	r0, r0, ip, asr r0
      10:	00011f01 	andeq	r1, r1, r1, lsl #30
      14:	00012700 	andeq	r2, r1, r0, lsl #14
      18:	00801000 	addeq	r1, r0, r0
      1c:	0000a000 	andeq	sl, r0, r0
      20:	00000000 	andeq	r0, r0, r0
      24:	05040200 	streq	r0, [r4, #-512]	; 0x200
      28:	00746e69 	rsbseq	r6, r4, r9, ror #28
      2c:	42070403 	andmi	r0, r7, #50331648	; 0x3000000
      30:	03000000 	movweq	r0, #0
      34:	00ce0601 	sbceq	r0, lr, r1, lsl #12
      38:	02030000 	andeq	r0, r3, #0
      3c:	00017905 	andeq	r7, r1, r5, lsl #18
      40:	05040300 	streq	r0, [r4, #-768]	; 0x300
      44:	00000005 	andeq	r0, r0, r5
      48:	00050803 	andeq	r0, r5, r3, lsl #16
      4c:	03000000 	movweq	r0, #0
      50:	00cc0801 	sbceq	r0, ip, r1, lsl #16
      54:	02030000 	andeq	r0, r3, #0
      58:	0000f907 	andeq	pc, r0, r7, lsl #18
      5c:	07040300 	streq	r0, [r4, -r0, lsl #6]
      60:	0000003d 	andeq	r0, r0, sp, lsr r0
      64:	38070803 	stmdacc	r7, {r0, r1, fp}
      68:	03000000 	movweq	r0, #0
      6c:	01830704 	orreq	r0, r3, r4, lsl #14
      70:	01030000 	mrseq	r0, (UNDEF: 3)
      74:	0000d508 	andeq	sp, r0, r8, lsl #10
      78:	7f040400 	svcvc	0x00040400
      7c:	05000000 	streq	r0, [r0, #-0]
      80:	00000072 	andeq	r0, r0, r2, ror r0
      84:	09020806 	stmdbeq	r2, {r1, r2, fp}
      88:	000000a5 	andeq	r0, r0, r5, lsr #1
      8c:	00000e07 	andeq	r0, r0, r7, lsl #28
      90:	250a0200 	strcs	r0, [sl, #-512]	; 0x200
      94:	00000000 	andeq	r0, r0, r0
      98:	0000ec07 	andeq	lr, r0, r7, lsl #24
      9c:	250a0200 	strcs	r0, [sl, #-512]	; 0x200
      a0:	04000000 	streq	r0, [r0], #-0
      a4:	01150800 	tsteq	r5, r0, lsl #16
      a8:	0b020000 	bleq	800b0 <__bss_end__+0x76898>
      ac:	00000084 	andeq	r0, r0, r4, lsl #1
      b0:	0000f109 	andeq	pc, r0, r9, lsl #2
      b4:	10230100 	eorne	r0, r3, r0, lsl #2
      b8:	a0000080 	andge	r0, r0, r0, lsl #1
      bc:	01000000 	mrseq	r0, (UNDEF: 0)
      c0:	0001c39c 	muleq	r1, ip, r3
      c4:	00680a00 	rsbeq	r0, r8, r0, lsl #20
      c8:	00a52801 	adceq	r2, r5, r1, lsl #16
      cc:	91020000 	mrsls	r0, (UNDEF: 2)
      d0:	803c0b60 	eorshi	r0, ip, r0, ror #22
      d4:	00500000 	subseq	r0, r0, r0
      d8:	014d0000 	mrseq	r0, (UNDEF: 77)
      dc:	c70c0000 	strgt	r0, [ip, -r0]
      e0:	01000000 	mrseq	r0, (UNDEF: 0)
      e4:	0000252b 	andeq	r2, r0, fp, lsr #10
      e8:	00000000 	andeq	r0, r0, r0
      ec:	00690d00 	rsbeq	r0, r9, r0, lsl #26
      f0:	00252b01 	eoreq	r2, r5, r1, lsl #22
      f4:	00340000 	eorseq	r0, r4, r0
      f8:	5c0e0000 	stcpl	0, cr0, [lr], {-0}
      fc:	d5000080 	strle	r0, [r0, #-128]	; 0x80
     100:	0e000001 	cdpeq	0, 0, cr0, cr0, cr1, {0}
     104:	0f000001 	svceq	0x00000001
     108:	75025001 	strvc	r5, [r2, #-1]
     10c:	680e0000 	stmdavs	lr, {}	; <UNPREDICTABLE>
     110:	eb000080 	bl	318 <_start-0x7ce8>
     114:	28000001 	stmdacs	r0, {r0}
     118:	0f000001 	svceq	0x00000001
     11c:	74025101 	strvc	r5, [r2], #-257	; 0x101
     120:	50010f00 	andpl	r0, r1, r0, lsl #30
     124:	00007d02 	andeq	r7, r0, r2, lsl #26
     128:	0080780e 	addeq	r7, r0, lr, lsl #16
     12c:	0001d500 	andeq	sp, r1, r0, lsl #10
     130:	00013c00 	andeq	r3, r1, r0, lsl #24
     134:	50010f00 	andpl	r0, r1, r0, lsl #30
     138:	00007802 	andeq	r7, r0, r2, lsl #16
     13c:	00808010 	addeq	r8, r0, r0, lsl r0
     140:	00020b00 	andeq	r0, r2, r0, lsl #22
     144:	50010f00 	andpl	r0, r1, r0, lsl #30
     148:	00007702 	andeq	r7, r0, r2, lsl #14
     14c:	801c1100 	andshi	r1, ip, r0, lsl #2
     150:	021c0000 	andseq	r0, ip, #0
     154:	240e0000 	strcs	r0, [lr], #-0
     158:	d5000080 	strle	r0, [r0, #-128]	; 0x80
     15c:	6d000001 	stcvs	0, cr0, [r0, #-4]
     160:	0f000001 	svceq	0x00000001
     164:	03055001 	movweq	r5, #20481	; 0x5001
     168:	000092a8 	andeq	r9, r0, r8, lsr #5
     16c:	80340e00 	eorshi	r0, r4, r0, lsl #28
     170:	02230000 	eoreq	r0, r3, #0
     174:	018b0000 	orreq	r0, fp, r0
     178:	010f0000 	mrseq	r0, CPSR
     17c:	0f450152 	svceq	0x00450152
     180:	44015101 	strmi	r5, [r1], #-257	; 0x101
     184:	0250010f 	subseq	r0, r0, #-1073741821	; 0xc0000003
     188:	0e00007d 	mcreq	0, 0, r0, cr0, cr13, {3}
     18c:	0000803c 	andeq	r8, r0, ip, lsr r0
     190:	000001d5 	ldrdeq	r0, [r0], -r5
     194:	000001a2 	andeq	r0, r0, r2, lsr #3
     198:	0550010f 	ldrbeq	r0, [r0, #-271]	; 0x10f
     19c:	0092bc03 	addseq	fp, r2, r3, lsl #24
     1a0:	940e0000 	strls	r0, [lr], #-0
     1a4:	d5000080 	strle	r0, [r0, #-128]	; 0x80
     1a8:	b9000001 	stmdblt	r0, {r0}
     1ac:	0f000001 	svceq	0x00000001
     1b0:	03055001 	movweq	r5, #20481	; 0x5001
     1b4:	000092f0 	strdeq	r9, [r0], -r0
     1b8:	80981100 	addshi	r1, r8, r0, lsl #2
     1bc:	023d0000 	eorseq	r0, sp, #0
     1c0:	12000000 	andne	r0, r0, #0
     1c4:	000000da 	ldrdeq	r0, [r0], -sl
     1c8:	01d00601 	bicseq	r0, r0, r1, lsl #12
     1cc:	d6d80000 	ldrble	r0, [r8], r0
     1d0:	00002c05 	andeq	r2, r0, r5, lsl #24
     1d4:	036f1300 	cmneq	pc, #0, 6
     1d8:	29030000 	stmdbcs	r3, {}	; <UNPREDICTABLE>
     1dc:	00000025 	andeq	r0, r0, r5, lsr #32
     1e0:	000001eb 	andeq	r0, r0, fp, ror #3
     1e4:	00007914 	andeq	r7, r0, r4, lsl r9
     1e8:	13001500 	movwne	r1, #1280	; 0x500
     1ec:	00000023 	andeq	r0, r0, r3, lsr #32
     1f0:	00251302 	eoreq	r1, r5, r2, lsl #6
     1f4:	02050000 	andeq	r0, r5, #0
     1f8:	05140000 	ldreq	r0, [r4, #-0]
     1fc:	14000002 	strne	r0, [r0], #-2
     200:	0000002c 	andeq	r0, r0, ip, lsr #32
     204:	a5040400 	strge	r0, [r4, #-1024]	; 0x400
     208:	16000000 	strne	r0, [r0], -r0
     20c:	0000010c 	andeq	r0, r0, ip, lsl #2
     210:	021c5003 	andseq	r5, ip, #3
     214:	2c140000 	ldccs	0, cr0, [r4], {-0}
     218:	00000000 	andeq	r0, r0, r0
     21c:	0000e217 	andeq	lr, r0, r7, lsl r2
     220:	133a0300 	teqne	sl, #0, 6
     224:	00000016 	andeq	r0, r0, r6, lsl r0
     228:	00a51002 	adceq	r1, r5, r2
     22c:	023d0000 	eorseq	r0, sp, #0
     230:	25140000 	ldrcs	r0, [r4, #-0]
     234:	14000000 	strne	r0, [r0], #-0
     238:	00000025 	andeq	r0, r0, r5, lsr #32
     23c:	004f1700 	subeq	r1, pc, r0, lsl #14
     240:	66030000 	strvs	r0, [r3], -r0
     244:	00033400 	andeq	r3, r3, r0, lsl #8
     248:	38000400 	stmdacc	r0, {sl}
     24c:	04000001 	streq	r0, [r0], #-1
     250:	00005c01 	andeq	r5, r0, r1, lsl #24
     254:	022b0100 	eoreq	r0, fp, #0, 2
     258:	01270000 	teqeq	r7, r0
     25c:	80b00000 	adcshi	r0, r0, r0
     260:	013c0000 	teqeq	ip, r0
     264:	00b10000 	adcseq	r0, r1, r0
     268:	04020000 	streq	r0, [r2], #-0
     26c:	746e6905 	strbtvc	r6, [lr], #-2309	; 0x905
     270:	07040300 	streq	r0, [r4, -r0, lsl #6]
     274:	00000042 	andeq	r0, r0, r2, asr #32
     278:	ce060103 	adfgts	f0, f6, f3
     27c:	03000000 	movweq	r0, #0
     280:	01790502 	cmneq	r9, r2, lsl #10
     284:	04030000 	streq	r0, [r3], #-0
     288:	00000505 	andeq	r0, r0, r5, lsl #10
     28c:	05080300 	streq	r0, [r8, #-768]	; 0x300
     290:	00000000 	andeq	r0, r0, r0
     294:	cc080103 	stfgts	f0, [r8], {3}
     298:	03000000 	movweq	r0, #0
     29c:	00f90702 	rscseq	r0, r9, r2, lsl #14
     2a0:	04030000 	streq	r0, [r3], #-0
     2a4:	00003d07 	andeq	r3, r0, r7, lsl #26
     2a8:	07080300 	streq	r0, [r8, -r0, lsl #6]
     2ac:	00000038 	andeq	r0, r0, r8, lsr r0
     2b0:	83070403 	movwhi	r0, #29699	; 0x7403
     2b4:	03000001 	movweq	r0, #1
     2b8:	00d50801 	sbcseq	r0, r5, r1, lsl #16
     2bc:	08040000 	stmdaeq	r4, {}	; <UNPREDICTABLE>
     2c0:	009a0902 	addseq	r0, sl, r2, lsl #18
     2c4:	0e050000 	cdpeq	0, 0, cr0, cr5, cr0, {0}
     2c8:	02000000 	andeq	r0, r0, #0
     2cc:	0000250a 	andeq	r2, r0, sl, lsl #10
     2d0:	ec050000 	stc	0, cr0, [r5], {-0}
     2d4:	02000000 	andeq	r0, r0, #0
     2d8:	0000250a 	andeq	r2, r0, sl, lsl #10
     2dc:	06000400 	streq	r0, [r0], -r0, lsl #8
     2e0:	00000115 	andeq	r0, r0, r5, lsl r1
     2e4:	00790b02 	rsbseq	r0, r9, r2, lsl #22
     2e8:	f3070000 	vhadd.u8	d0, d7, d0
     2ec:	01000001 	tsteq	r0, r1
     2f0:	00002509 	andeq	r2, r0, r9, lsl #10
     2f4:	0080b000 	addeq	fp, r0, r0
     2f8:	00004c00 	andeq	r4, r0, r0, lsl #24
     2fc:	209c0100 	addscs	r0, ip, r0, lsl #2
     300:	08000001 	stmdaeq	r0, {r0}
     304:	006e6970 	rsbeq	r6, lr, r0, ror r9
     308:	00250901 	eoreq	r0, r5, r1, lsl #18
     30c:	00530000 	subseq	r0, r3, r0
     310:	76080000 	strvc	r0, [r8], -r0
     314:	25090100 	strcs	r0, [r9, #-256]	; 0x100
     318:	71000000 	mrsvc	r0, (UNDEF: 0)
     31c:	09000000 	stmdbeq	r0, {}	; <UNPREDICTABLE>
     320:	000000da 	ldrdeq	r0, [r0], -sl
     324:	002c0901 	eoreq	r0, ip, r1, lsl #18
     328:	008f0000 	addeq	r0, pc, r0
     32c:	c00a0000 	andgt	r0, sl, r0
     330:	34000080 	strcc	r0, [r0], #-128	; 0x80
     334:	0b000000 	bleq	33c <_start-0x7cc4>
     338:	0000018c 	andeq	r0, r0, ip, lsl #3
     33c:	002c0e01 	eoreq	r0, ip, r1, lsl #28
     340:	00ad0000 	adceq	r0, sp, r0
     344:	cc0c0000 	stcgt	0, cr0, [ip], {-0}
     348:	c1000080 	smlabbgt	r0, r0, r0, r0
     34c:	15000002 	strne	r0, [r0, #-2]
     350:	0d000001 	stceq	0, cr0, [r0, #-4]
     354:	74025001 	strvc	r5, [r2], #-1
     358:	d80e0000 	stmdale	lr, {}	; <UNPREDICTABLE>
     35c:	d6000080 	strle	r0, [r0], -r0, lsl #1
     360:	00000002 	andeq	r0, r0, r2
     364:	00160700 	andseq	r0, r6, r0, lsl #14
     368:	25010000 	strcs	r0, [r1, #-0]
     36c:	0000009a 	muleq	r0, sl, r0
     370:	000080fc 	strdeq	r8, [r0], -ip
     374:	00000044 	andeq	r0, r0, r4, asr #32
     378:	01b69c01 			; <UNDEFINED> instruction: 0x01b69c01
     37c:	0e090000 	cdpeq	0, 0, cr0, cr9, cr0, {0}
     380:	01000000 	mrseq	r0, (UNDEF: 0)
     384:	00002525 	andeq	r2, r0, r5, lsr #10
     388:	0000c000 	andeq	ip, r0, r0
     38c:	00ec0900 	rsceq	r0, ip, r0, lsl #18
     390:	25010000 	strcs	r0, [r1, #-0]
     394:	00000025 	andeq	r0, r0, r5, lsr #32
     398:	000000de 	ldrdeq	r0, [r0], -lr
     39c:	0100680f 	tsteq	r0, pc, lsl #16
     3a0:	00009a26 	andeq	r9, r0, r6, lsr #20
     3a4:	0000fc00 	andeq	pc, r0, r0, lsl #24
     3a8:	811c0c00 	tsthi	ip, r0, lsl #24
     3ac:	02e10000 	rsceq	r0, r1, #0
     3b0:	01780000 	cmneq	r8, r0
     3b4:	010d0000 	mrseq	r0, (UNDEF: 13)
     3b8:	00760250 	rsbseq	r0, r6, r0, asr r2
     3bc:	81280c00 	teqhi	r8, r0, lsl #24
     3c0:	02f20000 	rscseq	r0, r2, #0
     3c4:	01910000 	orrseq	r0, r1, r0
     3c8:	010d0000 	mrseq	r0, (UNDEF: 13)
     3cc:	0d300151 	ldfeqs	f0, [r0, #-324]!	; 0xfffffebc
     3d0:	76025001 	strvc	r5, [r2], -r1
     3d4:	300c0000 	andcc	r0, ip, r0
     3d8:	08000081 	stmdaeq	r0, {r0, r7}
     3dc:	a5000003 	strge	r0, [r0, #-3]
     3e0:	0d000001 	stceq	0, cr0, [r0, #-4]
     3e4:	75025001 	strvc	r5, [r2, #-1]
     3e8:	38100000 	ldmdacc	r0, {}	; <UNPREDICTABLE>
     3ec:	19000081 	stmdbne	r0, {r0, r7}
     3f0:	0d000003 	stceq	0, cr0, [r0, #-12]
     3f4:	75025001 	strvc	r5, [r2, #-1]
     3f8:	07000000 	streq	r0, [r0, -r0]
     3fc:	00000023 	andeq	r0, r0, r3, lsr #32
     400:	00254001 	eoreq	r4, r5, r1
     404:	81400000 	mrshi	r0, (UNDEF: 64)
     408:	00ac0000 	adceq	r0, ip, r0
     40c:	9c010000 	stcls	0, cr0, [r1], {-0}
     410:	000002aa 	andeq	r0, r0, sl, lsr #5
     414:	01006808 	tsteq	r0, r8, lsl #16
     418:	0002aa40 	andeq	sl, r2, r0, asr #20
     41c:	00011c00 	andeq	r1, r1, r0, lsl #24
     420:	019c0900 	orrseq	r0, ip, r0, lsl #18
     424:	40010000 	andmi	r0, r1, r0
     428:	0000002c 	andeq	r0, r0, ip, lsr #32
     42c:	0000013a 	andeq	r0, r0, sl, lsr r1
     430:	0002350b 	andeq	r3, r2, fp, lsl #10
     434:	25460100 	strbcs	r0, [r6, #-256]	; 0x100
     438:	58000000 	stmdapl	r0, {}	; <UNPREDICTABLE>
     43c:	0b000001 	bleq	448 <_start-0x7bb8>
     440:	000001d2 	ldrdeq	r0, [r0], -r2
     444:	00254a01 	eoreq	r4, r5, r1, lsl #20
     448:	01760000 	cmneq	r6, r0
     44c:	c20b0000 	andgt	r0, fp, #0
     450:	01000001 	tsteq	r0, r1
     454:	0000254e 	andeq	r2, r0, lr, asr #10
     458:	00019400 	andeq	r9, r1, r0, lsl #8
     45c:	81580c00 	cmphi	r8, r0, lsl #24
     460:	02f20000 	rscseq	r0, r2, #0
     464:	022b0000 	eoreq	r0, fp, #0
     468:	010d0000 	mrseq	r0, (UNDEF: 13)
     46c:	00310151 	eorseq	r0, r1, r1, asr r1
     470:	0081600c 	addeq	r6, r1, ip
     474:	00032a00 	andeq	r2, r3, r0, lsl #20
     478:	00023e00 	andeq	r3, r2, r0, lsl #28
     47c:	50010d00 	andpl	r0, r1, r0, lsl #26
     480:	0c003a01 	stceq	10, cr3, [r0], {1}
     484:	0000816c 	andeq	r8, r0, ip, ror #2
     488:	000002f2 	strdeq	r0, [r0], -r2
     48c:	00000251 	andeq	r0, r0, r1, asr r2
     490:	0151010d 	cmpeq	r1, sp, lsl #2
     494:	740c0030 	strvc	r0, [ip], #-48	; 0x30
     498:	2a000081 	bcs	6a4 <_start-0x795c>
     49c:	65000003 	strvs	r0, [r0, #-3]
     4a0:	0d000002 	stceq	0, cr0, [r0, #-8]
     4a4:	08025001 	stmdaeq	r2, {r0, ip, lr}
     4a8:	780e0094 	stmdavc	lr, {r2, r4, r7}
     4ac:	d6000081 	strle	r0, [r0], -r1, lsl #1
     4b0:	0c000002 	stceq	0, cr0, [r0], {2}
     4b4:	00008190 	muleq	r0, r0, r1
     4b8:	000000a5 	andeq	r0, r0, r5, lsr #1
     4bc:	00000287 	andeq	r0, r0, r7, lsl #5
     4c0:	0252010d 	subseq	r0, r2, #1073741827	; 0x40000003
     4c4:	010d0075 	tsteq	sp, r5, ror r0
     4c8:	00300151 	eorseq	r0, r0, r1, asr r1
     4cc:	0081a80c 	addeq	sl, r1, ip, lsl #16
     4d0:	0000a500 	andeq	sl, r0, r0, lsl #10
     4d4:	0002a000 	andeq	sl, r2, r0
     4d8:	52010d00 	andpl	r0, r1, #0, 26
     4dc:	0d007502 	cfstr32eq	mvfx7, [r0, #-8]
     4e0:	31015101 	tstcc	r1, r1, lsl #2
     4e4:	81b40e00 			; <UNDEFINED> instruction: 0x81b40e00
     4e8:	02d60000 	sbcseq	r0, r6, #0
     4ec:	11000000 	mrsne	r0, (UNDEF: 0)
     4f0:	00009a04 	andeq	r9, r0, r4, lsl #20
     4f4:	04cc1200 	strbeq	r1, [ip], #512	; 0x200
     4f8:	04010000 	streq	r0, [r1], #-0
     4fc:	0000002c 	andeq	r0, r0, ip, lsr #32
     500:	94140305 	ldrls	r0, [r4], #-773	; 0x305
     504:	a9130000 	ldmdbge	r3, {}	; <UNPREDICTABLE>
     508:	03000001 	movweq	r0, #1
     50c:	00002524 	andeq	r2, r0, r4, lsr #10
     510:	0002d600 	andeq	sp, r2, r0, lsl #12
     514:	002c1400 	eoreq	r1, ip, r0, lsl #8
     518:	15000000 	strne	r0, [r0, #-0]
     51c:	0000021c 	andeq	r0, r0, ip, lsl r2
     520:	002c5504 	eoreq	r5, ip, r4, lsl #10
     524:	e3160000 	tst	r6, #0
     528:	03000001 	movweq	r0, #1
     52c:	0002f21d 	andeq	pc, r2, sp, lsl r2	; <UNPREDICTABLE>
     530:	002c1400 	eoreq	r1, ip, r0, lsl #8
     534:	16000000 	strne	r0, [r0], -r0
     538:	00000191 	muleq	r0, r1, r1
     53c:	03082103 	movweq	r2, #33027	; 0x8103
     540:	2c140000 	ldccs	0, cr0, [r4], {-0}
     544:	14000000 	strne	r0, [r0], #-0
     548:	0000002c 	andeq	r0, r0, ip, lsr #32
     54c:	01b31600 			; <UNDEFINED> instruction: 0x01b31600
     550:	1c030000 	stcne	0, cr0, [r3], {-0}
     554:	00000319 	andeq	r0, r0, r9, lsl r3
     558:	00002c14 	andeq	r2, r0, r4, lsl ip
     55c:	01160000 	tsteq	r6, r0
     560:	03000002 	movweq	r0, #2
     564:	00032a32 	andeq	r2, r3, r2, lsr sl
     568:	002c1400 	eoreq	r1, ip, r0, lsl #8
     56c:	17000000 	strne	r0, [r0, -r0]
     570:	00000213 	andeq	r0, r0, r3, lsl r2
     574:	2c144e04 	ldccs	14, cr4, [r4], {4}
     578:	00000000 	andeq	r0, r0, r0
     57c:	0003df00 	andeq	sp, r3, r0, lsl #30
     580:	88000400 	stmdahi	r0, {sl}
     584:	04000002 	streq	r0, [r0], #-2
     588:	00005c01 	andeq	r5, r0, r1, lsl #24
     58c:	02500100 	subseq	r0, r0, #0, 2
     590:	02750000 	rsbseq	r0, r5, #0
     594:	81ec0000 	mvnhi	r0, r0
     598:	01a40000 			; <UNDEFINED> instruction: 0x01a40000
     59c:	01be0000 			; <UNDEFINED> instruction: 0x01be0000
     5a0:	04020000 	streq	r0, [r2], #-0
     5a4:	746e6905 	strbtvc	r6, [lr], #-2309	; 0x905
     5a8:	07040300 	streq	r0, [r4, -r0, lsl #6]
     5ac:	00000042 	andeq	r0, r0, r2, asr #32
     5b0:	ce060103 	adfgts	f0, f6, f3
     5b4:	03000000 	movweq	r0, #0
     5b8:	01790502 	cmneq	r9, r2, lsl #10
     5bc:	04030000 	streq	r0, [r3], #-0
     5c0:	00000505 	andeq	r0, r0, r5, lsl #10
     5c4:	05080300 	streq	r0, [r8, #-768]	; 0x300
     5c8:	00000000 	andeq	r0, r0, r0
     5cc:	cc080103 	stfgts	f0, [r8], {3}
     5d0:	03000000 	movweq	r0, #0
     5d4:	00f90702 	rscseq	r0, r9, r2, lsl #14
     5d8:	04030000 	streq	r0, [r3], #-0
     5dc:	00003d07 	andeq	r3, r0, r7, lsl #26
     5e0:	07080300 	streq	r0, [r8, -r0, lsl #6]
     5e4:	00000038 	andeq	r0, r0, r8, lsr r0
     5e8:	83070403 	movwhi	r0, #29699	; 0x7403
     5ec:	03000001 	movweq	r0, #1
     5f0:	00d50801 	sbcseq	r0, r5, r1, lsl #16
     5f4:	5b040000 	blpl	1005fc <__bss_end__+0xf6de4>
     5f8:	01000002 	tsteq	r0, r2
     5fc:	0081ec09 	addeq	lr, r1, r9, lsl #24
     600:	00008c00 	andeq	r8, r0, r0, lsl #24
     604:	779c0100 	ldrvc	r0, [ip, r0, lsl #2]
     608:	05000001 	streq	r0, [r0, #-1]
     60c:	006e6970 	rsbeq	r6, lr, r0, ror r9
     610:	002c0901 	eoreq	r0, ip, r1, lsl #18
     614:	01b60000 			; <UNDEFINED> instruction: 0x01b60000
     618:	ec060000 	stc	0, cr0, [r6], {-0}
     61c:	01000002 	tsteq	r0, r2
     620:	0001770d 	andeq	r7, r1, sp, lsl #14
     624:	0001e200 	andeq	lr, r1, r0, lsl #4
     628:	02450700 	subeq	r0, r5, #0, 14
     62c:	13010000 	movwne	r0, #4096	; 0x1000
     630:	0000002c 	andeq	r0, r0, ip, lsr #32
     634:	f8085501 			; <UNDEFINED> instruction: 0xf8085501
     638:	b1000081 	smlabblt	r0, r1, r0, r0
     63c:	09000003 	stmdbeq	r0, {r0, r1}
     640:	00008208 	andeq	r8, r0, r8, lsl #4
     644:	000003b8 			; <UNDEFINED> instruction: 0x000003b8
     648:	000000d5 	ldrdeq	r0, [r0], -r5
     64c:	0151010a 	cmpeq	r1, sl, lsl #2
     650:	10090032 	andne	r0, r9, r2, lsr r0
     654:	d5000082 	strle	r0, [r0, #-130]	; 0x82
     658:	e9000003 	stmdb	r0, {r0, r1}
     65c:	0a000000 	beq	664 <_start-0x799c>
     660:	08025001 	stmdaeq	r2, {r0, ip, lr}
     664:	38090096 	stmdacc	r9, {r1, r2, r4, r7}
     668:	b8000082 	stmdalt	r0, {r1, r7}
     66c:	05000003 	streq	r0, [r0, #-3]
     670:	0a000001 	beq	67c <_start-0x7984>
     674:	31045101 	tstcc	r4, r1, lsl #2
     678:	0a240075 	beq	900854 <__bss_end__+0x8f703c>
     67c:	74025001 	strvc	r5, [r2], #-1
     680:	40090000 	andmi	r0, r9, r0
     684:	d5000082 	strle	r0, [r0, #-130]	; 0x82
     688:	19000003 	stmdbne	r0, {r0, r1}
     68c:	0a000001 	beq	698 <_start-0x7968>
     690:	08025001 	stmdaeq	r2, {r0, ip, lr}
     694:	50090096 	mulpl	r9, r6, r0
     698:	b8000082 	stmdalt	r0, {r1, r7}
     69c:	2c000003 	stccs	0, cr0, [r0], {3}
     6a0:	0a000001 	beq	6ac <_start-0x7954>
     6a4:	30015101 	andcc	r5, r1, r1, lsl #2
     6a8:	82580900 	subshi	r0, r8, #0, 18
     6ac:	03d50000 	bicseq	r0, r5, #0
     6b0:	01400000 	mrseq	r0, (UNDEF: 64)
     6b4:	010a0000 	mrseq	r0, (UNDEF: 10)
     6b8:	96080250 			; <UNDEFINED> instruction: 0x96080250
     6bc:	82640900 	rsbhi	r0, r4, #0, 18
     6c0:	03b80000 			; <UNDEFINED> instruction: 0x03b80000
     6c4:	01590000 	cmpeq	r9, r0
     6c8:	010a0000 	mrseq	r0, (UNDEF: 10)
     6cc:	0a300151 	beq	c00c18 <__bss_end__+0xbf7400>
     6d0:	74025001 	strvc	r5, [r2], #-1
     6d4:	6c090000 	stcvs	0, cr0, [r9], {-0}
     6d8:	d5000082 	strle	r0, [r0, #-130]	; 0x82
     6dc:	6d000003 	stcvs	0, cr0, [r0, #-12]
     6e0:	0a000001 	beq	6ec <_start-0x7914>
     6e4:	08025001 	stmdaeq	r2, {r0, ip, lr}
     6e8:	70080096 	mulvc	r8, r6, r0
     6ec:	b1000082 	smlabblt	r0, r2, r0, r0
     6f0:	00000003 	andeq	r0, r0, r3
     6f4:	017d040b 	cmneq	sp, fp, lsl #8
     6f8:	2c0c0000 	stccs	0, cr0, [ip], {-0}
     6fc:	04000000 	streq	r0, [r0], #-0
     700:	00000201 	andeq	r0, r0, r1, lsl #4
     704:	82781c01 	rsbshi	r1, r8, #256	; 0x100
     708:	008c0000 	addeq	r0, ip, r0
     70c:	9c010000 	stcls	0, cr0, [r1], {-0}
     710:	00000280 	andeq	r0, r0, r0, lsl #5
     714:	6e697005 	cdpvs	0, 6, cr7, cr9, cr5, {0}
     718:	2c1c0100 	ldfcss	f0, [ip], {-0}
     71c:	18000000 	stmdane	r0, {}	; <UNPREDICTABLE>
     720:	06000002 	streq	r0, [r0], -r2
     724:	000002ec 	andeq	r0, r0, ip, ror #5
     728:	01772001 	cmneq	r7, r1
     72c:	02440000 	subeq	r0, r4, #0
     730:	45070000 	strmi	r0, [r7, #-0]
     734:	01000002 	tsteq	r0, r2
     738:	00002c26 	andeq	r2, r0, r6, lsr #24
     73c:	08550100 	ldmdaeq	r5, {r8}^
     740:	00008284 	andeq	r8, r0, r4, lsl #5
     744:	000003b1 			; <UNDEFINED> instruction: 0x000003b1
     748:	00829409 	addeq	r9, r2, r9, lsl #8
     74c:	0003b800 	andeq	fp, r3, r0, lsl #16
     750:	0001de00 	andeq	sp, r1, r0, lsl #28
     754:	51010a00 	tstpl	r1, r0, lsl #20
     758:	09003101 	stmdbeq	r0, {r0, r8, ip, sp}
     75c:	0000829c 	muleq	r0, ip, r2
     760:	000003d5 	ldrdeq	r0, [r0], -r5
     764:	000001f2 	strdeq	r0, [r0], -r2
     768:	0250010a 	subseq	r0, r0, #-2147483646	; 0x80000002
     76c:	09009608 	stmdbeq	r0, {r3, r9, sl, ip, pc}
     770:	000082c4 	andeq	r8, r0, r4, asr #5
     774:	000003b8 			; <UNDEFINED> instruction: 0x000003b8
     778:	0000020e 	andeq	r0, r0, lr, lsl #4
     77c:	0451010a 	ldrbeq	r0, [r1], #-266	; 0x10a
     780:	24007531 	strcs	r7, [r0], #-1329	; 0x531
     784:	0250010a 	subseq	r0, r0, #-2147483646	; 0x80000002
     788:	09000074 	stmdbeq	r0, {r2, r4, r5, r6}
     78c:	000082cc 	andeq	r8, r0, ip, asr #5
     790:	000003d5 	ldrdeq	r0, [r0], -r5
     794:	00000222 	andeq	r0, r0, r2, lsr #4
     798:	0250010a 	subseq	r0, r0, #-2147483646	; 0x80000002
     79c:	09009608 	stmdbeq	r0, {r3, r9, sl, ip, pc}
     7a0:	000082dc 	ldrdeq	r8, [r0], -ip
     7a4:	000003b8 			; <UNDEFINED> instruction: 0x000003b8
     7a8:	00000235 	andeq	r0, r0, r5, lsr r2
     7ac:	0151010a 	cmpeq	r1, sl, lsl #2
     7b0:	e4090030 	str	r0, [r9], #-48	; 0x30
     7b4:	d5000082 	strle	r0, [r0, #-130]	; 0x82
     7b8:	49000003 	stmdbmi	r0, {r0, r1}
     7bc:	0a000002 	beq	7cc <_start-0x7834>
     7c0:	08025001 	stmdaeq	r2, {r0, ip, lr}
     7c4:	f0090096 			; <UNDEFINED> instruction: 0xf0090096
     7c8:	b8000082 	stmdalt	r0, {r1, r7}
     7cc:	62000003 	andvs	r0, r0, #3
     7d0:	0a000002 	beq	7e0 <_start-0x7820>
     7d4:	30015101 	andcc	r5, r1, r1, lsl #2
     7d8:	0250010a 	subseq	r0, r0, #-2147483646	; 0x80000002
     7dc:	09000074 	stmdbeq	r0, {r2, r4, r5, r6}
     7e0:	000082f8 	strdeq	r8, [r0], -r8	; <UNPREDICTABLE>
     7e4:	000003d5 	ldrdeq	r0, [r0], -r5
     7e8:	00000276 	andeq	r0, r0, r6, ror r2
     7ec:	0250010a 	subseq	r0, r0, #-2147483646	; 0x80000002
     7f0:	08009608 	stmdaeq	r0, {r3, r9, sl, ip, pc}
     7f4:	000082fc 	strdeq	r8, [r0], -ip
     7f8:	000003b1 			; <UNDEFINED> instruction: 0x000003b1
     7fc:	02df0400 	sbcseq	r0, pc, #0, 8
     800:	31010000 	mrscc	r0, (UNDEF: 1)
     804:	00008304 	andeq	r8, r0, r4, lsl #6
     808:	0000008c 	andeq	r0, r0, ip, lsl #1
     80c:	037e9c01 	cmneq	lr, #256	; 0x100
     810:	70050000 	andvc	r0, r5, r0
     814:	01006e69 	tsteq	r0, r9, ror #28
     818:	00002c31 	andeq	r2, r0, r1, lsr ip
     81c:	00027a00 	andeq	r7, r2, r0, lsl #20
     820:	02ec0600 	rsceq	r0, ip, #0, 12
     824:	35010000 	strcc	r0, [r1, #-0]
     828:	00000177 	andeq	r0, r0, r7, ror r1
     82c:	000002a6 	andeq	r0, r0, r6, lsr #5
     830:	00024507 	andeq	r4, r2, r7, lsl #10
     834:	2c3b0100 	ldfcss	f0, [fp], #-0
     838:	01000000 	mrseq	r0, (UNDEF: 0)
     83c:	83100855 	tsthi	r0, #5570560	; 0x550000
     840:	03b10000 			; <UNDEFINED> instruction: 0x03b10000
     844:	20090000 	andcs	r0, r9, r0
     848:	b8000083 	stmdalt	r0, {r0, r1, r7}
     84c:	dc000003 	stcle	0, cr0, [r0], {3}
     850:	0a000002 	beq	860 <_start-0x77a0>
     854:	30015101 	andcc	r5, r1, r1, lsl #2
     858:	83280900 	teqhi	r8, #0, 18
     85c:	03d50000 	bicseq	r0, r5, #0
     860:	02f00000 	rscseq	r0, r0, #0
     864:	010a0000 	mrseq	r0, (UNDEF: 10)
     868:	96080250 			; <UNDEFINED> instruction: 0x96080250
     86c:	83500900 	cmphi	r0, #0, 18
     870:	03b80000 			; <UNDEFINED> instruction: 0x03b80000
     874:	030c0000 	movweq	r0, #49152	; 0xc000
     878:	010a0000 	mrseq	r0, (UNDEF: 10)
     87c:	75310451 	ldrvc	r0, [r1, #-1105]!	; 0x451
     880:	010a2400 	tsteq	sl, r0, lsl #8
     884:	00740250 	rsbseq	r0, r4, r0, asr r2
     888:	83580900 	cmphi	r8, #0, 18
     88c:	03d50000 	bicseq	r0, r5, #0
     890:	03200000 	teqeq	r0, #0
     894:	010a0000 	mrseq	r0, (UNDEF: 10)
     898:	96080250 			; <UNDEFINED> instruction: 0x96080250
     89c:	83680900 	cmnhi	r8, #0, 18
     8a0:	03b80000 			; <UNDEFINED> instruction: 0x03b80000
     8a4:	03330000 	teqeq	r3, #0
     8a8:	010a0000 	mrseq	r0, (UNDEF: 10)
     8ac:	00300151 	eorseq	r0, r0, r1, asr r1
     8b0:	00837009 	addeq	r7, r3, r9
     8b4:	0003d500 	andeq	sp, r3, r0, lsl #10
     8b8:	00034700 	andeq	r4, r3, r0, lsl #14
     8bc:	50010a00 	andpl	r0, r1, r0, lsl #20
     8c0:	00960802 	addseq	r0, r6, r2, lsl #16
     8c4:	00837c09 	addeq	r7, r3, r9, lsl #24
     8c8:	0003b800 	andeq	fp, r3, r0, lsl #16
     8cc:	00036000 	andeq	r6, r3, r0
     8d0:	51010a00 	tstpl	r1, r0, lsl #20
     8d4:	010a3001 	tsteq	sl, r1
     8d8:	00740250 	rsbseq	r0, r4, r0, asr r2
     8dc:	83840900 	orrhi	r0, r4, #0, 18
     8e0:	03d50000 	bicseq	r0, r5, #0
     8e4:	03740000 	cmneq	r4, #0
     8e8:	010a0000 	mrseq	r0, (UNDEF: 10)
     8ec:	96080250 			; <UNDEFINED> instruction: 0x96080250
     8f0:	83880800 	orrhi	r0, r8, #0, 16
     8f4:	03b10000 			; <UNDEFINED> instruction: 0x03b10000
     8f8:	0d000000 	stceq	0, cr0, [r0, #-0]
     8fc:	000002d9 	ldrdeq	r0, [r0], -r9
     900:	01770501 	cmneq	r7, r1, lsl #10
     904:	03050000 	movweq	r0, #20480	; 0x5000
     908:	00009200 	andeq	r9, r0, r0, lsl #4
     90c:	00026b0d 	andeq	r6, r2, sp, lsl #22
     910:	77060100 	strvc	r0, [r6, -r0, lsl #2]
     914:	05000001 	streq	r0, [r0, #-1]
     918:	00920403 	addseq	r0, r2, r3, lsl #8
     91c:	02c90d00 	sbceq	r0, r9, #0, 26
     920:	07010000 	streq	r0, [r1, -r0]
     924:	00000177 	andeq	r0, r0, r7, ror r1
     928:	92080305 	andls	r0, r8, #335544320	; 0x14000000
     92c:	bd0e0000 	stclt	0, cr0, [lr, #-0]
     930:	02000002 	andeq	r0, r0, #2
     934:	02d30f8a 	sbcseq	r0, r3, #552	; 0x228
     938:	9d020000 	stcls	0, cr0, [r2, #-0]
     93c:	000003ce 	andeq	r0, r0, lr, asr #7
     940:	0003ce10 	andeq	ip, r3, r0, lsl lr
     944:	002c1000 	eoreq	r1, ip, r0
     948:	0b000000 	bleq	950 <_start-0x76b0>
     94c:	0003d404 	andeq	sp, r3, r4, lsl #8
     950:	13121100 	tstne	r2, #0, 2
     954:	02000002 	andeq	r0, r0, #2
     958:	002c104e 	eoreq	r1, ip, lr, asr #32
     95c:	00000000 	andeq	r0, r0, r0
     960:	00000191 	muleq	r0, r1, r1
     964:	037f0004 	cmneq	pc, #4
     968:	01040000 	mrseq	r0, (UNDEF: 4)
     96c:	00000315 	andeq	r0, r0, r5, lsl r3
     970:	00030701 	andeq	r0, r3, r1, lsl #14
     974:	00038000 	andeq	r8, r3, r0
     978:	00839000 	addeq	r9, r3, r0
     97c:	00005800 	andeq	r5, r0, r0, lsl #16
     980:	00026f00 	andeq	r6, r2, r0, lsl #30
     984:	02f80200 	rscseq	r0, r8, #0, 4
     988:	28020000 	stmdacs	r2, {}	; <UNPREDICTABLE>
     98c:	00000030 	andeq	r0, r0, r0, lsr r0
     990:	00037603 	andeq	r7, r3, r3, lsl #12
     994:	00030400 	andeq	r0, r3, r0, lsl #8
     998:	00000047 	andeq	r0, r0, r7, asr #32
     99c:	0003c904 	andeq	ip, r3, r4, lsl #18
     9a0:	00004700 	andeq	r4, r0, r0, lsl #14
     9a4:	05000000 	streq	r0, [r0, #-0]
     9a8:	03780204 	cmneq	r8, #4, 4	; 0x40000000
     9ac:	62020000 	andvs	r0, r2, #0
     9b0:	00000025 	andeq	r0, r0, r5, lsr #32
     9b4:	69050406 	stmdbvs	r5, {r1, r2, sl}
     9b8:	0700746e 	streq	r7, [r0, -lr, ror #8]
     9bc:	00420704 	subeq	r0, r2, r4, lsl #14
     9c0:	01070000 	mrseq	r0, (UNDEF: 7)
     9c4:	0000ce06 	andeq	ip, r0, r6, lsl #28
     9c8:	05020700 	streq	r0, [r2, #-1792]	; 0x700
     9cc:	00000179 	andeq	r0, r0, r9, ror r1
     9d0:	05050407 	streq	r0, [r5, #-1031]	; 0x407
     9d4:	07000000 	streq	r0, [r0, -r0]
     9d8:	00000508 	andeq	r0, r0, r8, lsl #10
     9dc:	01070000 	mrseq	r0, (UNDEF: 7)
     9e0:	0000cc08 	andeq	ip, r0, r8, lsl #24
     9e4:	07020700 	streq	r0, [r2, -r0, lsl #14]
     9e8:	000000f9 	strdeq	r0, [r0], -r9
     9ec:	3d070407 	cfstrscc	mvf0, [r7, #-28]	; 0xffffffe4
     9f0:	07000000 	streq	r0, [r0, -r0]
     9f4:	00380708 	eorseq	r0, r8, r8, lsl #14
     9f8:	04070000 	streq	r0, [r7], #-0
     9fc:	00018307 	andeq	r8, r1, r7, lsl #6
     a00:	a7040800 	strge	r0, [r4, -r0, lsl #16]
     a04:	07000000 	streq	r0, [r0, -r0]
     a08:	00d50801 	sbcseq	r0, r5, r1, lsl #16
     a0c:	04080000 	streq	r0, [r8], #-0
     a10:	000000b4 	strheq	r0, [r0], -r4
     a14:	0000a709 	andeq	sl, r0, r9, lsl #14
     a18:	036f0a00 	cmneq	pc, #0, 20
     a1c:	06010000 	streq	r0, [r1], -r0
     a20:	00000054 	andeq	r0, r0, r4, asr r0
     a24:	00008390 	muleq	r0, r0, r3
     a28:	00000058 	andeq	r0, r0, r8, asr r0
     a2c:	01439c01 	cmpeq	r3, r1, lsl #24
     a30:	660b0000 	strvs	r0, [fp], -r0
     a34:	0100746d 	tsteq	r0, sp, ror #8
     a38:	0000ae06 	andeq	sl, r0, r6, lsl #28
     a3c:	70910200 	addsvc	r0, r1, r0, lsl #4
     a40:	75620d0c 	strbvc	r0, [r2, #-3340]!	; 0xd0c
     a44:	08010066 	stmdaeq	r1, {r1, r2, r5, r6}
     a48:	00000143 	andeq	r0, r0, r3, asr #2
     a4c:	94180305 	ldrls	r0, [r8], #-773	; 0x305
     a50:	c40e0000 	strgt	r0, [lr], #-0
     a54:	01000003 	tsteq	r0, r3
     a58:	00004909 	andeq	r4, r0, r9, lsl #18
     a5c:	5c910200 	lfmpl	f0, 4, [r1], {0}
     a60:	007a730f 	rsbseq	r7, sl, pc, lsl #6
     a64:	00540c01 	subseq	r0, r4, r1, lsl #24
     a68:	02dc0000 	sbcseq	r0, ip, #0
     a6c:	b8100000 	ldmdalt	r0, {}	; <UNPREDICTABLE>
     a70:	74000083 	strvc	r0, [r0], #-131	; 0x83
     a74:	36000001 	strcc	r0, [r0], -r1
     a78:	11000001 	tstne	r0, r1
     a7c:	91025301 	tstls	r2, r1, lsl #6
     a80:	5201114c 	andpl	r1, r1, #76, 2
     a84:	06489103 	strbeq	r9, [r8], -r3, lsl #2
     a88:	03510111 	cmpeq	r1, #1073741828	; 0x40000004
     a8c:	1104000a 	tstne	r4, sl
     a90:	74025001 	strvc	r5, [r2], #-1
     a94:	cc120000 	ldcgt	0, cr0, [r2], {-0}
     a98:	11000083 	smlabbne	r0, r3, r0, r0
     a9c:	74025001 	strvc	r5, [r2], #-1
     aa0:	13000000 	movwne	r0, #0
     aa4:	000000a7 	andeq	r0, r0, r7, lsr #1
     aa8:	00000154 	andeq	r0, r0, r4, asr r1
     aac:	00009a14 	andeq	r9, r0, r4, lsl sl
     ab0:	0003ff00 	andeq	pc, r3, r0, lsl #30
     ab4:	00005415 	andeq	r5, r0, r5, lsl r4
     ab8:	00016300 	andeq	r6, r1, r0, lsl #6
     abc:	00ae1600 	adceq	r1, lr, r0, lsl #12
     ac0:	17000000 	strne	r0, [r0, -r0]
     ac4:	000003e3 	andeq	r0, r0, r3, ror #7
     ac8:	016e2204 	cmneq	lr, r4, lsl #4
     acc:	04080000 	streq	r0, [r8], #-0
     ad0:	00000154 	andeq	r0, r0, r4, asr r1
     ad4:	00036c18 	andeq	r6, r3, r8, lsl ip
     ad8:	54020500 	strpl	r0, [r2], #-1280	; 0x500
     adc:	16000000 	strne	r0, [r0], -r0
     ae0:	000000a1 	andeq	r0, r0, r1, lsr #1
     ae4:	00005416 	andeq	r5, r0, r6, lsl r4
     ae8:	00ae1600 	adceq	r1, lr, r0, lsl #12
     aec:	49160000 	ldmdbmi	r6, {}	; <UNPREDICTABLE>
     af0:	00000000 	andeq	r0, r0, r0
     af4:	0000ee00 	andeq	lr, r0, r0, lsl #28
     af8:	b0000400 	andlt	r0, r0, r0, lsl #8
     afc:	04000004 	streq	r0, [r0], #-4
     b00:	00031501 	andeq	r1, r3, r1, lsl #10
     b04:	03ce0100 	biceq	r0, lr, #0, 2
     b08:	03800000 	orreq	r0, r0, #0
     b0c:	83e80000 	mvnhi	r0, #0
     b10:	00340000 	eorseq	r0, r4, r0
     b14:	03750000 	cmneq	r5, #0
     b18:	04020000 	streq	r0, [r2], #-0
     b1c:	746e6905 	strbtvc	r6, [lr], #-2309	; 0x905
     b20:	07040300 	streq	r0, [r4, -r0, lsl #6]
     b24:	00000042 	andeq	r0, r0, r2, asr #32
     b28:	ce060103 	adfgts	f0, f6, f3
     b2c:	03000000 	movweq	r0, #0
     b30:	01790502 	cmneq	r9, r2, lsl #10
     b34:	04030000 	streq	r0, [r3], #-0
     b38:	00000505 	andeq	r0, r0, r5, lsl #10
     b3c:	05080300 	streq	r0, [r8, #-768]	; 0x300
     b40:	00000000 	andeq	r0, r0, r0
     b44:	cc080103 	stfgts	f0, [r8], {3}
     b48:	03000000 	movweq	r0, #0
     b4c:	00f90702 	rscseq	r0, r9, r2, lsl #14
     b50:	04030000 	streq	r0, [r3], #-0
     b54:	00003d07 	andeq	r3, r0, r7, lsl #26
     b58:	07080300 	streq	r0, [r8, -r0, lsl #6]
     b5c:	00000038 	andeq	r0, r0, r8, lsr r0
     b60:	83070403 	movwhi	r0, #29699	; 0x7403
     b64:	03000001 	movweq	r0, #1
     b68:	00d50801 	sbcseq	r0, r5, r1, lsl #16
     b6c:	04040000 	streq	r0, [r4], #-0
     b70:	0000007f 	andeq	r0, r0, pc, ror r0
     b74:	00007205 	andeq	r7, r0, r5, lsl #4
     b78:	03da0600 	bicseq	r0, sl, #0, 12
     b7c:	04010000 	streq	r0, [r1], #-0
     b80:	00000025 	andeq	r0, r0, r5, lsr #32
     b84:	000083e8 	andeq	r8, r0, r8, ror #7
     b88:	00000034 	andeq	r0, r0, r4, lsr r0
     b8c:	00ab9c01 	adceq	r9, fp, r1, lsl #24
     b90:	70070000 	andvc	r0, r7, r0
     b94:	79040100 	stmdbvc	r4, {r8}
     b98:	05000000 	streq	r0, [r0, #-0]
     b9c:	00000003 	andeq	r0, r0, r3
     ba0:	00002508 	andeq	r2, r0, r8, lsl #10
     ba4:	0000ba00 	andeq	fp, r0, r0, lsl #20
     ba8:	00250900 	eoreq	r0, r5, r0, lsl #18
     bac:	0a000000 	beq	bb4 <_start-0x744c>
     bb0:	000003e8 	andeq	r0, r0, r8, ror #7
     bb4:	00c51d02 	sbceq	r1, r5, r2, lsl #26
     bb8:	04040000 	streq	r0, [r4], #-0
     bbc:	000000ab 	andeq	r0, r0, fp, lsr #1
     bc0:	00002508 	andeq	r2, r0, r8, lsl #10
     bc4:	0000da00 	andeq	sp, r0, r0, lsl #20
     bc8:	00790900 	rsbseq	r0, r9, r0, lsl #18
     bcc:	0b000000 	bleq	bd4 <_start-0x742c>
     bd0:	000003e3 	andeq	r0, r0, r3, ror #7
     bd4:	00eb0c01 	rsceq	r0, fp, r1, lsl #24
     bd8:	03050000 	movweq	r0, #20480	; 0x5000
     bdc:	0000920c 	andeq	r9, r0, ip, lsl #4
     be0:	00cb0404 	sbceq	r0, fp, r4, lsl #8
     be4:	81000000 	mrshi	r0, (UNDEF: 0)
     be8:	04000006 	streq	r0, [r0], #-6
     bec:	00054900 	andeq	r4, r5, r0, lsl #18
     bf0:	15010400 	strne	r0, [r1, #-1024]	; 0x400
     bf4:	01000003 	tsteq	r0, r3
     bf8:	0000042d 	andeq	r0, r0, sp, lsr #8
     bfc:	00000380 	andeq	r0, r0, r0, lsl #7
     c00:	0000841c 	andeq	r8, r0, ip, lsl r4
     c04:	000004f8 	strdeq	r0, [r0], -r8
     c08:	0000040f 	andeq	r0, r0, pc, lsl #8
     c0c:	69050402 	stmdbvs	r5, {r1, sl}
     c10:	0300746e 	movweq	r7, #1134	; 0x46e
     c14:	00420704 	subeq	r0, r2, r4, lsl #14
     c18:	01030000 	mrseq	r0, (UNDEF: 3)
     c1c:	0000ce06 	andeq	ip, r0, r6, lsl #28
     c20:	05020300 	streq	r0, [r2, #-768]	; 0x300
     c24:	00000179 	andeq	r0, r0, r9, ror r1
     c28:	05050403 	streq	r0, [r5, #-1027]	; 0x403
     c2c:	03000000 	movweq	r0, #0
     c30:	00000508 	andeq	r0, r0, r8, lsl #10
     c34:	01030000 	mrseq	r0, (UNDEF: 3)
     c38:	0000cc08 	andeq	ip, r0, r8, lsl #24
     c3c:	07020300 	streq	r0, [r2, -r0, lsl #6]
     c40:	000000f9 	strdeq	r0, [r0], -r9
     c44:	3d070403 	cfstrscc	mvf0, [r7, #-12]
     c48:	03000000 	movweq	r0, #0
     c4c:	00380708 	eorseq	r0, r8, r8, lsl #14
     c50:	04030000 	streq	r0, [r3], #-0
     c54:	00018307 	andeq	r8, r1, r7, lsl #6
     c58:	05040400 	streq	r0, [r4, #-1024]	; 0x400
     c5c:	00007a04 	andeq	r7, r0, r4, lsl #20
     c60:	08010300 	stmdaeq	r1, {r8, r9}
     c64:	000000d5 	ldrdeq	r0, [r0], -r5
     c68:	00870405 	addeq	r0, r7, r5, lsl #8
     c6c:	7a060000 	bvc	180c74 <__bss_end__+0x17745c>
     c70:	07000000 	streq	r0, [r0, -r0]
     c74:	000002f8 	strdeq	r0, [r0], -r8
     c78:	00972802 	addseq	r2, r7, r2, lsl #16
     c7c:	76080000 	strvc	r0, [r8], -r0
     c80:	04000003 	streq	r0, [r0], #-3
     c84:	00ae0004 	adceq	r0, lr, r4
     c88:	c9090000 	stmdbgt	r9, {}	; <UNPREDICTABLE>
     c8c:	72000003 	andvc	r0, r0, #3
     c90:	00000000 	andeq	r0, r0, r0
     c94:	03780700 	cmneq	r8, #0, 14
     c98:	62020000 	andvs	r0, r2, #0
     c9c:	0000008c 	andeq	r0, r0, ip, lsl #1
     ca0:	0004020a 	andeq	r0, r4, sl, lsl #4
     ca4:	25270100 	strcs	r0, [r7, #-256]!	; 0x100
     ca8:	1c000000 	stcne	0, cr0, [r0], {-0}
     cac:	14000084 	strne	r0, [r0], #-132	; 0x84
     cb0:	01000000 	mrseq	r0, (UNDEF: 0)
     cb4:	0000e09c 	muleq	r0, ip, r0
     cb8:	00630b00 	rsbeq	r0, r3, r0, lsl #22
     cbc:	00252701 	eoreq	r2, r5, r1, lsl #14
     cc0:	03230000 	teqeq	r3, #0
     cc4:	0c000000 	stceq	0, cr0, [r0], {-0}
     cc8:	00646170 	rsbeq	r6, r4, r0, ror r1
     ccc:	00742e01 	rsbseq	r2, r4, r1, lsl #28
     cd0:	84300000 	ldrthi	r0, [r0], #-0
     cd4:	002c0000 	eoreq	r0, ip, r0
     cd8:	9c010000 	stcls	0, cr0, [r1], {-0}
     cdc:	00000130 	andeq	r0, r0, r0, lsr r1
     ce0:	0100700b 	tsteq	r0, fp
     ce4:	0000742e 	andeq	r7, r0, lr, lsr #8
     ce8:	00035100 	andeq	r5, r3, r0, lsl #2
     cec:	041f0d00 	ldreq	r0, [pc], #-3328	; cf4 <_start-0x730c>
     cf0:	2e010000 	cdpcs	0, 0, cr0, cr1, cr0, {0}
     cf4:	00000074 	andeq	r0, r0, r4, ror r0
     cf8:	0000037c 	andeq	r0, r0, ip, ror r3
     cfc:	00044d0e 	andeq	r4, r4, lr, lsl #26
     d00:	252e0100 	strcs	r0, [lr, #-256]!	; 0x100
     d04:	01000000 	mrseq	r0, (UNDEF: 0)
     d08:	656c0f52 	strbvs	r0, [ip, #-3922]!	; 0xf52
     d0c:	2f01006e 	svccs	0x0001006e
     d10:	00000025 	andeq	r0, r0, r5, lsr #32
     d14:	0a005101 	beq	15120 <__bss_end__+0xb908>
     d18:	000003fa 	strdeq	r0, [r0], -sl
     d1c:	00743701 	rsbseq	r3, r4, r1, lsl #14
     d20:	845c0000 	ldrbhi	r0, [ip], #-0
     d24:	00400000 	subeq	r0, r0, r0
     d28:	9c010000 	stcls	0, cr0, [r1], {-0}
     d2c:	0000019c 	muleq	r0, ip, r1
     d30:	7473640b 	ldrbtvc	r6, [r3], #-1035	; 0x40b
     d34:	74370100 	ldrtvc	r0, [r7], #-256	; 0x100
     d38:	9d000000 	stcls	0, cr0, [r0, #-0]
     d3c:	0b000003 	bleq	d50 <_start-0x72b0>
     d40:	3701006e 	strcc	r0, [r1, -lr, rrx]
     d44:	00000025 	andeq	r0, r0, r5, lsr #32
     d48:	000003d5 	ldrdeq	r0, [r0], -r5
     d4c:	0100700b 	tsteq	r0, fp
     d50:	00007437 	andeq	r7, r0, r7, lsr r4
     d54:	0003f600 	andeq	pc, r3, r0, lsl #12
     d58:	04cc0d00 	strbeq	r0, [ip], #3328	; 0xd00
     d5c:	37010000 	strcc	r0, [r1, -r0]
     d60:	00000074 	andeq	r0, r0, r4, ror r0
     d64:	0000042c 	andeq	r0, r0, ip, lsr #8
     d68:	6e656c10 	mcrvs	12, 3, r6, cr5, cr0, {0}
     d6c:	25390100 	ldrcs	r0, [r9, #-256]!	; 0x100
     d70:	4a000000 	bmi	d78 <_start-0x7288>
     d74:	0f000004 	svceq	0x00000004
     d78:	3d010073 	stccc	0, cr0, [r1, #-460]	; 0xfffffe34
     d7c:	00000074 	andeq	r0, r0, r4, ror r0
     d80:	0a005001 	beq	14d8c <__bss_end__+0xb574>
     d84:	0000046a 	andeq	r0, r0, sl, ror #8
     d88:	00744701 	rsbseq	r4, r4, r1, lsl #14
     d8c:	849c0000 	ldrhi	r0, [ip], #0
     d90:	019c0000 	orrseq	r0, ip, r0
     d94:	9c010000 	stcls	0, cr0, [r1], {-0}
     d98:	000002d3 	ldrdeq	r0, [r0], -r3
     d9c:	00041f0d 	andeq	r1, r4, sp, lsl #30
     da0:	2c470100 	stfcse	f0, [r7], {-0}
     da4:	71000000 	mrsvc	r0, (UNDEF: 0)
     da8:	0b000004 	bleq	dc0 <_start-0x7240>
     dac:	00747364 	rsbseq	r7, r4, r4, ror #6
     db0:	00744701 	rsbseq	r4, r4, r1, lsl #14
     db4:	049f0000 	ldreq	r0, [pc], #0	; dbc <_start-0x7244>
     db8:	6e0b0000 	cdpvs	0, 0, cr0, cr11, cr0, {0}
     dbc:	25470100 	strbcs	r0, [r7, #-256]	; 0x100
     dc0:	0d000000 	stceq	0, cr0, [r0, #-0]
     dc4:	0b000005 	bleq	de0 <_start-0x7220>
     dc8:	006c6176 	rsbeq	r6, ip, r6, ror r1
     dcc:	00254701 	eoreq	r4, r5, r1, lsl #14
     dd0:	05390000 	ldreq	r0, [r9, #-0]!
     dd4:	4d0d0000 	stcmi	0, cr0, [sp, #-0]
     dd8:	01000004 	tsteq	r0, r4
     ddc:	00002547 	andeq	r2, r0, r7, asr #10
     de0:	0005b800 	andeq	fp, r5, r0, lsl #16
     de4:	04240e00 	strteq	r0, [r4], #-3584	; 0xe00
     de8:	47010000 	strmi	r0, [r1, -r0]
     dec:	00000025 	andeq	r0, r0, r5, lsr #32
     df0:	0f049102 	svceq	0x00049102
     df4:	00667562 	rsbeq	r7, r6, r2, ror #10
     df8:	02d34c01 	sbcseq	r4, r3, #256	; 0x100
     dfc:	91030000 	mrsls	r0, (UNDEF: 3)
     e00:	70107fa8 	andsvc	r7, r0, r8, lsr #31
     e04:	744c0100 	strbvc	r0, [ip], #-256	; 0x100
     e08:	e2000000 	and	r0, r0, #0
     e0c:	10000005 	andne	r0, r0, r5
     e10:	4d010075 	stcmi	0, cr0, [r1, #-468]	; 0xfffffe2c
     e14:	0000002c 	andeq	r0, r0, ip, lsr #32
     e18:	00000687 	andeq	r0, r0, r7, lsl #13
     e1c:	00040a11 	andeq	r0, r4, r1, lsl sl
     e20:	0002f300 	andeq	pc, r2, r0, lsl #6
     e24:	04030500 	streq	r0, [r3], #-1280	; 0x500
     e28:	12000093 	andne	r0, r0, #147	; 0x93
     e2c:	00008508 	andeq	r8, r0, r8, lsl #10
     e30:	00000074 	andeq	r0, r0, r4, ror r0
     e34:	00000261 	andeq	r0, r0, r1, ror #4
     e38:	0003f413 	andeq	pc, r3, r3, lsl r4	; <UNPREDICTABLE>
     e3c:	2c520100 	ldfcse	f0, [r2], {-0}
     e40:	8c000000 	stchi	0, cr0, [r0], {-0}
     e44:	00000007 	andeq	r0, r0, r7
     e48:	0085dc14 	addeq	sp, r5, r4, lsl ip
     e4c:	00066000 	andeq	r6, r6, r0
     e50:	85f01500 	ldrbhi	r1, [r0, #1280]!	; 0x500
     e54:	06670000 	strbteq	r0, [r7], -r0
     e58:	02990000 	addseq	r0, r9, #0
     e5c:	01160000 	tsteq	r6, r0
     e60:	75080253 	strvc	r0, [r8, #-595]	; 0x253
     e64:	05520116 	ldrbeq	r0, [r2, #-278]	; 0x116
     e68:	00930403 	addseq	r0, r3, r3, lsl #8
     e6c:	51011600 	tstpl	r1, r0, lsl #12
     e70:	933c0305 	teqls	ip, #335544320	; 0x14000000
     e74:	01160000 	tsteq	r6, r0
     e78:	28030550 	stmdacs	r3, {r4, r6, r8, sl}
     e7c:	00000093 	muleq	r0, r3, r0
     e80:	0085f414 	addeq	pc, r5, r4, lsl r4	; <UNPREDICTABLE>
     e84:	00067d00 	andeq	r7, r6, r0, lsl #26
     e88:	86001500 	strhi	r1, [r0], -r0, lsl #10
     e8c:	00e00000 	rsceq	r0, r0, r0
     e90:	02b60000 	adcseq	r0, r6, #0
     e94:	01160000 	tsteq	r6, r0
     e98:	007d0251 	rsbseq	r0, sp, r1, asr r2
     e9c:	86141700 	ldrhi	r1, [r4], -r0, lsl #14
     ea0:	01300000 	teqeq	r0, r0
     ea4:	01160000 	tsteq	r6, r0
     ea8:	007d0253 	rsbseq	r0, sp, r3, asr r2
     eac:	02510116 	subseq	r0, r1, #-2147483643	; 0x80000005
     eb0:	01160074 	tsteq	r6, r4, ror r0
     eb4:	00750250 	rsbseq	r0, r5, r0, asr r2
     eb8:	7a180000 	bvc	600ec0 <__bss_end__+0x5f76a8>
     ebc:	e3000000 	movw	r0, #0
     ec0:	19000002 	stmdbne	r0, {r1}
     ec4:	0000006b 	andeq	r0, r0, fp, rrx
     ec8:	7a18003f 	bvc	600fcc <__bss_end__+0x5f77b4>
     ecc:	f3000000 	vhadd.u8	d0, d0, d0
     ed0:	19000002 	stmdbne	r0, {r1}
     ed4:	0000006b 	andeq	r0, r0, fp, rrx
     ed8:	e3060004 	movw	r0, #24580	; 0x6004
     edc:	1a000002 	bne	eec <_start-0x7114>
     ee0:	0000043e 	andeq	r0, r0, lr, lsr r4
     ee4:	86381f01 	ldrthi	r1, [r8], -r1, lsl #30
     ee8:	00540000 	subseq	r0, r4, r0
     eec:	9c010000 	stcls	0, cr0, [r1], {-0}
     ef0:	0000037c 	andeq	r0, r0, ip, ror r3
     ef4:	0004530d 	andeq	r5, r4, sp, lsl #6
     ef8:	8b1f0100 	blhi	7c1300 <__bss_end__+0x7b7ae8>
     efc:	b8000003 	stmdalt	r0, {r0, r1}
     f00:	0d000007 	stceq	0, cr0, [r0, #-28]	; 0xffffffe4
     f04:	00000417 	andeq	r0, r0, r7, lsl r4
     f08:	03a01f01 	moveq	r1, #1, 30
     f0c:	07e40000 	strbeq	r0, [r4, r0]!
     f10:	0a110000 	beq	440f18 <__bss_end__+0x437700>
     f14:	b6000004 	strlt	r0, [r0], -r4
     f18:	05000003 	streq	r0, [r0, #-3]
     f1c:	00930c03 	addseq	r0, r3, r3, lsl #24
     f20:	86481400 	strbhi	r1, [r8], -r0, lsl #8
     f24:	06600000 	strbteq	r0, [r0], -r0
     f28:	5c150000 	ldcpl	0, cr0, [r5], {-0}
     f2c:	67000086 	strvs	r0, [r0, -r6, lsl #1]
     f30:	72000006 	andvc	r0, r0, #6
     f34:	16000003 	strne	r0, [r0], -r3
     f38:	08025301 	stmdaeq	r2, {r0, r8, r9, ip, lr}
     f3c:	52011620 	andpl	r1, r1, #32, 12	; 0x2000000
     f40:	930c0305 	movwls	r0, #49925	; 0xc305
     f44:	01160000 	tsteq	r6, r0
     f48:	3c030551 	cfstr32cc	mvfx0, [r3], {81}	; 0x51
     f4c:	16000093 			; <UNDEFINED> instruction: 0x16000093
     f50:	03055001 	movweq	r5, #20481	; 0x5001
     f54:	00009374 	andeq	r9, r0, r4, ror r3
     f58:	86601400 	strbthi	r1, [r0], -r0, lsl #8
     f5c:	067d0000 	ldrbteq	r0, [sp], -r0
     f60:	1b000000 	blne	f68 <_start-0x7098>
     f64:	00000025 	andeq	r0, r0, r5, lsr #32
     f68:	0000038b 	andeq	r0, r0, fp, lsl #7
     f6c:	0000251c 	andeq	r2, r0, ip, lsl r5
     f70:	04050000 	streq	r0, [r5], #-0
     f74:	0000037c 	andeq	r0, r0, ip, ror r3
     f78:	0000251b 	andeq	r2, r0, fp, lsl r5
     f7c:	0003a000 	andeq	sl, r3, r0
     f80:	00811c00 	addeq	r1, r1, r0, lsl #24
     f84:	05000000 	streq	r0, [r0, #-0]
     f88:	00039104 	andeq	r9, r3, r4, lsl #2
     f8c:	007a1800 	rsbseq	r1, sl, r0, lsl #16
     f90:	03b60000 			; <UNDEFINED> instruction: 0x03b60000
     f94:	6b190000 	blvs	640f9c <__bss_end__+0x637784>
     f98:	0e000000 	cdpeq	0, 0, cr0, cr0, cr0, {0}
     f9c:	03a60600 			; <UNDEFINED> instruction: 0x03a60600
     fa0:	6c1d0000 	ldcvs	0, cr0, [sp], {-0}
     fa4:	01000003 	tsteq	r0, r3
     fa8:	0000257d 	andeq	r2, r0, sp, ror r5
     fac:	00868c00 	addeq	r8, r6, r0, lsl #24
     fb0:	00028800 	andeq	r8, r2, r0, lsl #16
     fb4:	259c0100 	ldrcs	r0, [ip, #256]	; 0x100
     fb8:	0b000006 	bleq	fd8 <_start-0x7028>
     fbc:	00667562 	rsbeq	r7, r6, r2, ror #10
     fc0:	00747d01 	rsbseq	r7, r4, r1, lsl #26
     fc4:	08100000 	ldmdaeq	r0, {}	; <UNPREDICTABLE>
     fc8:	6e0b0000 	cdpvs	0, 0, cr0, cr11, cr0, {0}
     fcc:	257d0100 	ldrbcs	r0, [sp, #-256]!	; 0x100
     fd0:	3c000000 	stccc	0, cr0, [r0], {-0}
     fd4:	0b000008 	bleq	ffc <_start-0x7004>
     fd8:	00746d66 	rsbseq	r6, r4, r6, ror #26
     fdc:	00817d01 	addeq	r7, r1, r1, lsl #26
     fe0:	086a0000 	stmdaeq	sl!, {}^	; <UNPREDICTABLE>
     fe4:	c40d0000 	strgt	r0, [sp], #-0
     fe8:	01000003 	tsteq	r0, r3
     fec:	0000ae7d 	andeq	sl, r0, sp, ror lr
     ff0:	00089e00 	andeq	r9, r8, r0, lsl #28
     ff4:	00701000 	rsbseq	r1, r0, r0
     ff8:	00747e01 	rsbseq	r7, r4, r1, lsl #28
     ffc:	08b10000 	ldmeq	r1!, {}	; <UNPREDICTABLE>
    1000:	65100000 	ldrvs	r0, [r0, #-0]
    1004:	747e0100 	ldrbtvc	r0, [lr], #-256	; 0x100
    1008:	2f000000 	svccs	0x00000000
    100c:	11000009 	tstne	r0, r9
    1010:	0000040a 	andeq	r0, r0, sl, lsl #8
    1014:	00000635 	andeq	r0, r0, r5, lsr r6
    1018:	931c0305 	tstls	ip, #335544320	; 0x14000000
    101c:	001e0000 	andseq	r0, lr, r0
    1020:	10000000 	andne	r0, r0, r0
    1024:	8b010073 	blhi	411f8 <__bss_end__+0x379e0>
    1028:	00000074 	andeq	r0, r0, r4, ror r0
    102c:	00000956 	andeq	r0, r0, r6, asr r9
    1030:	6d756e0f 	ldclvs	14, cr6, [r5, #-60]!	; 0xffffffc4
    1034:	3a8b0100 	bcc	fe2c143c <__bss_end__+0xfe2b7c24>
    1038:	03000006 	movweq	r0, #6
    103c:	137ed891 	cmnne	lr, #9502720	; 0x910000
    1040:	0000044d 	andeq	r0, r0, sp, asr #8
    1044:	002c8c01 	eoreq	r8, ip, r1, lsl #24
    1048:	09ab0000 	stmibeq	fp!, {}	; <UNPREDICTABLE>
    104c:	10150000 	andsne	r0, r5, r0
    1050:	b9000087 	stmdblt	r0, {r0, r1, r2, r7}
    1054:	7b000000 	blvc	105c <_start-0x6fa4>
    1058:	16000004 	strne	r0, [r0], -r4
    105c:	75025001 	strvc	r5, [r2, #-1]
    1060:	24140000 	ldrcs	r0, [r4], #-0
    1064:	60000087 	andvs	r0, r0, r7, lsl #1
    1068:	15000006 	strne	r0, [r0, #-6]
    106c:	00008738 	andeq	r8, r0, r8, lsr r7
    1070:	00000667 	andeq	r0, r0, r7, ror #12
    1074:	000004b3 			; <UNDEFINED> instruction: 0x000004b3
    1078:	02530116 	subseq	r0, r3, #-2147483643	; 0x80000005
    107c:	01169208 	tsteq	r6, r8, lsl #4
    1080:	1c030552 	cfstr32ne	mvfx0, [r3], {82}	; 0x52
    1084:	16000093 			; <UNDEFINED> instruction: 0x16000093
    1088:	03055101 	movweq	r5, #20737	; 0x5101
    108c:	0000933c 	andeq	r9, r0, ip, lsr r3
    1090:	05500116 	ldrbeq	r0, [r0, #-278]	; 0x116
    1094:	00938c03 	addseq	r8, r3, r3, lsl #24
    1098:	3c140000 	ldccc	0, cr0, [r4], {-0}
    109c:	7d000087 	stcvc	0, cr0, [r0, #-540]	; 0xfffffde4
    10a0:	14000006 	strne	r0, [r0], #-6
    10a4:	000087ac 	andeq	r8, r0, ip, lsr #15
    10a8:	00000660 	andeq	r0, r0, r0, ror #12
    10ac:	0087c015 	addeq	ip, r7, r5, lsl r0
    10b0:	00066700 	andeq	r6, r6, r0, lsl #14
    10b4:	0004f400 	andeq	pc, r4, r0, lsl #8
    10b8:	53011600 	movwpl	r1, #5632	; 0x1600
    10bc:	16980802 	ldrne	r0, [r8], r2, lsl #16
    10c0:	03055201 	movweq	r5, #20993	; 0x5201
    10c4:	0000931c 	andeq	r9, r0, ip, lsl r3
    10c8:	05510116 	ldrbeq	r0, [r1, #-278]	; 0x116
    10cc:	00933c03 	addseq	r3, r3, r3, lsl #24
    10d0:	50011600 	andpl	r1, r1, r0, lsl #12
    10d4:	93a80305 			; <UNDEFINED> instruction: 0x93a80305
    10d8:	14000000 	strne	r0, [r0], #-0
    10dc:	000087c4 	andeq	r8, r0, r4, asr #15
    10e0:	0000067d 	andeq	r0, r0, sp, ror r6
    10e4:	0087e815 	addeq	lr, r7, r5, lsl r8
    10e8:	00019c00 	andeq	r9, r1, r0, lsl #24
    10ec:	00052a00 	andeq	r2, r5, r0, lsl #20
    10f0:	52011600 	andpl	r1, r1, #0, 12
    10f4:	16800802 	strne	r0, [r0], r2, lsl #16
    10f8:	91035101 	tstls	r3, r1, lsl #2
    10fc:	01167ed0 			; <UNDEFINED> instruction: 0x01167ed0
    1100:	163a0150 			; <UNDEFINED> instruction: 0x163a0150
    1104:	01047d02 	tsteq	r4, r2, lsl #26
    1108:	7d021631 	stcvc	6, cr1, [r2, #-196]	; 0xffffff3c
    110c:	00770200 	rsbseq	r0, r7, r0, lsl #4
    1110:	880c1500 	stmdahi	ip, {r8, sl, ip}
    1114:	019c0000 	orrseq	r0, ip, r0
    1118:	05580000 	ldrbeq	r0, [r8, #-0]
    111c:	01160000 	tsteq	r6, r0
    1120:	80080252 	andhi	r0, r8, r2, asr r2
    1124:	03510116 	cmpeq	r1, #-2147483643	; 0x80000005
    1128:	167ed091 			; <UNDEFINED> instruction: 0x167ed091
    112c:	3a015001 	bcc	55138 <__bss_end__+0x4b920>
    1130:	047d0216 	ldrbteq	r0, [sp], #-534	; 0x216
    1134:	16007b02 	strne	r7, [r0], -r2, lsl #22
    1138:	02007d02 	andeq	r7, r0, #2, 26	; 0x80
    113c:	15000077 	strne	r0, [r0, #-119]	; 0x77
    1140:	00008830 	andeq	r8, r0, r0, lsr r8
    1144:	0000019c 	muleq	r0, ip, r1
    1148:	00000586 	andeq	r0, r0, r6, lsl #11
    114c:	02520116 	subseq	r0, r2, #-2147483643	; 0x80000005
    1150:	01168008 	tsteq	r6, r8
    1154:	d0910351 	addsle	r0, r1, r1, asr r3
    1158:	5001167e 	andpl	r1, r1, lr, ror r6
    115c:	02164001 	andseq	r4, r6, #1
    1160:	7b02047d 	blvc	8235c <__bss_end__+0x78b44>
    1164:	7d021600 	stcvc	6, cr1, [r2, #-0]
    1168:	00770200 	rsbseq	r0, r7, r0, lsl #4
    116c:	88541500 	ldmdahi	r4, {r8, sl, ip}^
    1170:	019c0000 	orrseq	r0, ip, r0
    1174:	05b40000 	ldreq	r0, [r4, #0]!
    1178:	01160000 	tsteq	r6, r0
    117c:	80080252 	andhi	r0, r8, r2, asr r2
    1180:	03510116 	cmpeq	r1, #-2147483643	; 0x80000005
    1184:	167ed091 			; <UNDEFINED> instruction: 0x167ed091
    1188:	32015001 	andcc	r5, r1, #1
    118c:	047d0216 	ldrbteq	r0, [sp], #-534	; 0x216
    1190:	16007b02 	strne	r7, [r0], -r2, lsl #22
    1194:	02007d02 	andeq	r7, r0, #2, 26	; 0x80
    1198:	15000077 	strne	r0, [r0, #-119]	; 0x77
    119c:	00008884 	andeq	r8, r0, r4, lsl #17
    11a0:	0000019c 	muleq	r0, ip, r1
    11a4:	000005e2 	andeq	r0, r0, r2, ror #11
    11a8:	02520116 	subseq	r0, r2, #-2147483643	; 0x80000005
    11ac:	01168008 	tsteq	r6, r8
    11b0:	d0910351 	addsle	r0, r1, r1, asr r3
    11b4:	5001167e 	andpl	r1, r1, lr, ror r6
    11b8:	02163801 	andseq	r3, r6, #65536	; 0x10000
    11bc:	7b02047d 	blvc	823b8 <__bss_end__+0x78ba0>
    11c0:	7d021600 	stcvc	6, cr1, [r2, #-0]
    11c4:	00770200 	rsbseq	r0, r7, r0, lsl #4
    11c8:	888c1400 	stmhi	ip, {sl, ip}
    11cc:	06600000 	strbteq	r0, [r0], -r0
    11d0:	a8150000 	ldmdage	r5, {}	; <UNPREDICTABLE>
    11d4:	67000088 	strvs	r0, [r0, -r8, lsl #1]
    11d8:	1a000006 	bne	11f8 <_start-0x6e08>
    11dc:	16000006 	strne	r0, [r0], -r6
    11e0:	08025301 	stmdaeq	r2, {r0, r8, r9, ip, lr}
    11e4:	520116b9 	andpl	r1, r1, #193986560	; 0xb900000
    11e8:	931c0305 	tstls	ip, #335544320	; 0x14000000
    11ec:	01160000 	tsteq	r6, r0
    11f0:	3c030551 	cfstr32cc	mvfx0, [r3], {81}	; 0x51
    11f4:	16000093 			; <UNDEFINED> instruction: 0x16000093
    11f8:	03055001 	movweq	r5, #20481	; 0x5001
    11fc:	000093d0 	ldrdeq	r9, [r0], -r0
    1200:	88ac1400 	stmiahi	ip!, {sl, ip}
    1204:	067d0000 	ldrbteq	r0, [sp], -r0
    1208:	00000000 	andeq	r0, r0, r0
    120c:	00007a18 	andeq	r7, r0, r8, lsl sl
    1210:	00063500 	andeq	r3, r6, r0, lsl #10
    1214:	006b1900 	rsbeq	r1, fp, r0, lsl #18
    1218:	00090000 	andeq	r0, r9, r0
    121c:	00062506 	andeq	r2, r6, r6, lsl #10
    1220:	007a1800 	rsbseq	r1, sl, r0, lsl #16
    1224:	064a0000 	strbeq	r0, [sl], -r0
    1228:	6b190000 	blvs	641230 <__bss_end__+0x637a18>
    122c:	7f000000 	svcvc	0x00000000
    1230:	03e81f00 	mvneq	r1, #0, 30
    1234:	1d030000 	stcne	0, cr0, [r3, #-0]
    1238:	0000038b 	andeq	r0, r0, fp, lsl #7
    123c:	0003e31f 	andeq	lr, r3, pc, lsl r3
    1240:	a0220300 	eorge	r0, r2, r0, lsl #6
    1244:	20000003 	andcs	r0, r0, r3
    1248:	0000045b 	andeq	r0, r0, fp, asr r4
    124c:	6f211e03 	svcvs	0x00211e03
    1250:	03000003 	movweq	r0, #3
    1254:	00002529 	andeq	r2, r0, r9, lsr #10
    1258:	00067d00 	andeq	r7, r6, r0, lsl #26
    125c:	00811c00 	addeq	r1, r1, r0, lsl #24
    1260:	00220000 	eoreq	r0, r2, r0
    1264:	00004f20 	andeq	r4, r0, r0, lsr #30
    1268:	00660300 	rsbeq	r0, r6, r0, lsl #6
    126c:	000000ff 	strdeq	r0, [r0], -pc	; <UNPREDICTABLE>
    1270:	07250004 	streq	r0, [r5, -r4]!
    1274:	01040000 	mrseq	r0, (UNDEF: 4)
    1278:	00000315 	andeq	r0, r0, r5, lsl r3
    127c:	00047a01 	andeq	r7, r4, r1, lsl #20
    1280:	00038000 	andeq	r8, r3, r0
    1284:	00891400 	addeq	r1, r9, r0, lsl #8
    1288:	00002800 	andeq	r2, r0, r0, lsl #16
    128c:	0005f100 	andeq	pc, r5, r0, lsl #2
    1290:	05040200 	streq	r0, [r4, #-512]	; 0x200
    1294:	00746e69 	rsbseq	r6, r4, r9, ror #28
    1298:	42070403 	andmi	r0, r7, #50331648	; 0x3000000
    129c:	03000000 	movweq	r0, #0
    12a0:	00ce0601 	sbceq	r0, lr, r1, lsl #12
    12a4:	02030000 	andeq	r0, r3, #0
    12a8:	00017905 	andeq	r7, r1, r5, lsl #18
    12ac:	05040300 	streq	r0, [r4, #-768]	; 0x300
    12b0:	00000005 	andeq	r0, r0, r5
    12b4:	00050803 	andeq	r0, r5, r3, lsl #16
    12b8:	03000000 	movweq	r0, #0
    12bc:	00cc0801 	sbceq	r0, ip, r1, lsl #16
    12c0:	02030000 	andeq	r0, r3, #0
    12c4:	0000f907 	andeq	pc, r0, r7, lsl #18
    12c8:	07040300 	streq	r0, [r4, -r0, lsl #6]
    12cc:	0000003d 	andeq	r0, r0, sp, lsr r0
    12d0:	38070803 	stmdacc	r7, {r0, r1, fp}
    12d4:	03000000 	movweq	r0, #0
    12d8:	01830704 	orreq	r0, r3, r4, lsl #14
    12dc:	01030000 	mrseq	r0, (UNDEF: 3)
    12e0:	0000d508 	andeq	sp, r0, r8, lsl #10
    12e4:	7f040400 	svcvc	0x00040400
    12e8:	05000000 	streq	r0, [r0, #-0]
    12ec:	00000072 	andeq	r0, r0, r2, ror r0
    12f0:	00004f06 	andeq	r4, r0, r6, lsl #30
    12f4:	14040100 	strne	r0, [r4], #-256	; 0x100
    12f8:	28000089 	stmdacs	r0, {r0, r3, r7}
    12fc:	01000000 	mrseq	r0, (UNDEF: 0)
    1300:	0000ca9c 	muleq	r0, ip, sl
    1304:	89280700 	stmdbhi	r8!, {r8, r9, sl}
    1308:	00ac0000 	adceq	r0, ip, r0
    130c:	01080000 	mrseq	r0, (UNDEF: 8)
    1310:	08030550 	stmdaeq	r3, {r4, r6, r8, sl}
    1314:	00000094 	muleq	r0, r4, r0
    1318:	00893009 	addeq	r3, r9, r9
    131c:	0000ea00 	andeq	lr, r0, r0, lsl #20
    1320:	0000c000 	andeq	ip, r0, r0
    1324:	50010800 	andpl	r0, r1, r0, lsl #16
    1328:	00640802 	rsbeq	r0, r4, r2, lsl #16
    132c:	0089340a 	addeq	r3, r9, sl, lsl #8
    1330:	0000fb00 	andeq	pc, r0, r0, lsl #22
    1334:	250b0000 	strcs	r0, [fp, #-0]
    1338:	d9000000 	stmdble	r0, {}	; <UNPREDICTABLE>
    133c:	0c000000 	stceq	0, cr0, [r0], {-0}
    1340:	00000079 	andeq	r0, r0, r9, ror r0
    1344:	03e30d00 	mvneq	r0, #0, 26
    1348:	22020000 	andcs	r0, r2, #0
    134c:	000000e4 	andeq	r0, r0, r4, ror #1
    1350:	00ca0404 	sbceq	r0, sl, r4, lsl #8
    1354:	0c0e0000 	stceq	0, cr0, [lr], {-0}
    1358:	02000001 	andeq	r0, r0, #1
    135c:	0000fb50 	andeq	pc, r0, r0, asr fp	; <UNPREDICTABLE>
    1360:	002c0c00 	eoreq	r0, ip, r0, lsl #24
    1364:	0f000000 	svceq	0x00000000
    1368:	0000046f 	andeq	r0, r0, pc, ror #8
    136c:	ff006302 			; <UNDEFINED> instruction: 0xff006302
    1370:	04000000 	streq	r0, [r0], #-0
    1374:	0007ef00 	andeq	lr, r7, r0, lsl #30
    1378:	15010400 	strne	r0, [r1, #-1024]	; 0x400
    137c:	01000003 	tsteq	r0, r3
    1380:	00000494 	muleq	r0, r4, r4
    1384:	00000380 	andeq	r0, r0, r0, lsl #7
    1388:	0000893c 	andeq	r8, r0, ip, lsr r9
    138c:	00000034 	andeq	r0, r0, r4, lsr r0
    1390:	00000688 	andeq	r0, r0, r8, lsl #13
    1394:	69050402 	stmdbvs	r5, {r1, sl}
    1398:	0300746e 	movweq	r7, #1134	; 0x46e
    139c:	00420704 	subeq	r0, r2, r4, lsl #14
    13a0:	01030000 	mrseq	r0, (UNDEF: 3)
    13a4:	0000ce06 	andeq	ip, r0, r6, lsl #28
    13a8:	05020300 	streq	r0, [r2, #-768]	; 0x300
    13ac:	00000179 	andeq	r0, r0, r9, ror r1
    13b0:	05050403 	streq	r0, [r5, #-1027]	; 0x403
    13b4:	03000000 	movweq	r0, #0
    13b8:	00000508 	andeq	r0, r0, r8, lsl #10
    13bc:	01030000 	mrseq	r0, (UNDEF: 3)
    13c0:	0000cc08 	andeq	ip, r0, r8, lsl #24
    13c4:	07020300 	streq	r0, [r2, -r0, lsl #6]
    13c8:	000000f9 	strdeq	r0, [r0], -r9
    13cc:	3d070403 	cfstrscc	mvf0, [r7, #-12]
    13d0:	03000000 	movweq	r0, #0
    13d4:	00380708 	eorseq	r0, r8, r8, lsl #14
    13d8:	04030000 	streq	r0, [r3], #-0
    13dc:	00018307 	andeq	r8, r1, r7, lsl #6
    13e0:	08010300 	stmdaeq	r1, {r8, r9}
    13e4:	000000d5 	ldrdeq	r0, [r0], -r5
    13e8:	0004ca04 	andeq	ip, r4, r4, lsl #20
    13ec:	3c0d0100 	stfccs	f0, [sp], {-0}
    13f0:	34000089 	strcc	r0, [r0], #-137	; 0x89
    13f4:	01000000 	mrseq	r0, (UNDEF: 0)
    13f8:	0000d89c 	muleq	r0, ip, r8
    13fc:	04a80500 	strteq	r0, [r8], #1280	; 0x500
    1400:	0e010000 	cdpeq	0, 0, cr0, cr1, cr0, {0}
    1404:	00000025 	andeq	r0, r0, r5, lsr #32
    1408:	0004b605 	andeq	fp, r4, r5, lsl #12
    140c:	250e0100 	strcs	r0, [lr, #-256]	; 0x100
    1410:	06000000 	streq	r0, [r0], -r0
    1414:	000000f1 	strdeq	r0, [r0], -r1
    1418:	62070f01 	andvs	r0, r7, #1, 30
    141c:	01007373 	tsteq	r0, r3, ror r3
    1420:	0000d811 	andeq	sp, r0, r1, lsl r8
    1424:	0009d500 	andeq	sp, r9, r0, lsl #10
    1428:	04c20800 	strbeq	r0, [r2], #2048	; 0x800
    142c:	12010000 	andne	r0, r1, #0
    1430:	000000d8 	ldrdeq	r0, [r0], -r8
    1434:	00896409 	addeq	r6, r9, r9, lsl #8
    1438:	0000f400 	andeq	pc, r0, r0, lsl #8
    143c:	89680900 	stmdbhi	r8!, {r8, fp}^
    1440:	00fb0000 	rscseq	r0, fp, r0
    1444:	0a000000 	beq	144c <_start-0x6bb4>
    1448:	00002504 	andeq	r2, r0, r4, lsl #10
    144c:	04a80500 	strteq	r0, [r8], #1280	; 0x500
    1450:	0e010000 	cdpeq	0, 0, cr0, cr1, cr0, {0}
    1454:	00000025 	andeq	r0, r0, r5, lsr #32
    1458:	0004b605 	andeq	fp, r4, r5, lsl #12
    145c:	250e0100 	strcs	r0, [lr, #-256]	; 0x100
    1460:	06000000 	streq	r0, [r0], -r0
    1464:	000000f1 	strdeq	r0, [r0], -r1
    1468:	6f06d802 	svcvs	0x0006d802
    146c:	02000004 	andeq	r0, r0, #4
    1470:	01ad0063 			; <UNDEFINED> instruction: 0x01ad0063
    1474:	00040000 	andeq	r0, r4, r0
    1478:	00000883 	andeq	r0, r0, r3, lsl #17
    147c:	03150104 	tsteq	r5, #4, 2
    1480:	ec010000 	stc	0, cr0, [r1], {-0}
    1484:	80000004 	andhi	r0, r0, r4
    1488:	18000003 	stmdane	r0, {r0, r1}
    148c:	00000000 	andeq	r0, r0, r0
    1490:	26000000 	strcs	r0, [r0], -r0
    1494:	02000007 	andeq	r0, r0, #7
    1498:	6e690504 	cdpvs	5, 6, cr0, cr9, cr4, {0}
    149c:	04030074 	streq	r0, [r3], #-116	; 0x74
    14a0:	00004207 	andeq	r4, r0, r7, lsl #4
    14a4:	06010300 	streq	r0, [r1], -r0, lsl #6
    14a8:	000000ce 	andeq	r0, r0, lr, asr #1
    14ac:	79050203 	stmdbvc	r5, {r0, r1, r9}
    14b0:	03000001 	movweq	r0, #1
    14b4:	00050504 	andeq	r0, r5, r4, lsl #10
    14b8:	08030000 	stmdaeq	r3, {}	; <UNPREDICTABLE>
    14bc:	00000005 	andeq	r0, r0, r5
    14c0:	08010300 	stmdaeq	r1, {r8, r9}
    14c4:	000000cc 	andeq	r0, r0, ip, asr #1
    14c8:	f9070203 			; <UNDEFINED> instruction: 0xf9070203
    14cc:	03000000 	movweq	r0, #0
    14d0:	003d0704 	eorseq	r0, sp, r4, lsl #14
    14d4:	08030000 	stmdaeq	r3, {}	; <UNPREDICTABLE>
    14d8:	00003807 	andeq	r3, r0, r7, lsl #16
    14dc:	07040300 	streq	r0, [r4, -r0, lsl #6]
    14e0:	00000183 	andeq	r0, r0, r3, lsl #3
    14e4:	d5080103 	strle	r0, [r8, #-259]	; 0x103
    14e8:	04000000 	streq	r0, [r0], #-0
    14ec:	000004d2 	ldrdeq	r0, [r0], -r2
    14f0:	00250e01 	eoreq	r0, r5, r1, lsl #28
    14f4:	89700000 	ldmdbhi	r0!, {}^	; <UNPREDICTABLE>
    14f8:	00180000 	andseq	r0, r8, r0
    14fc:	9c010000 	stcls	0, cr0, [r1], {-0}
    1500:	000000a2 	andeq	r0, r0, r2, lsr #1
    1504:	00053e05 	andeq	r3, r5, r5, lsl #28
    1508:	2c0f0100 	stfcss	f0, [pc], {-0}
    150c:	f5000000 			; <UNDEFINED> instruction: 0xf5000000
    1510:	00000009 	andeq	r0, r0, r9
    1514:	00052106 	andeq	r2, r5, r6, lsl #2
    1518:	88170100 	ldmdahi	r7, {r8}
    151c:	14000089 	strne	r0, [r0], #-137	; 0x89
    1520:	01000000 	mrseq	r0, (UNDEF: 0)
    1524:	0000c79c 	muleq	r0, ip, r7
    1528:	053e0500 	ldreq	r0, [lr, #-1280]!	; 0x500
    152c:	18010000 	stmdane	r1, {}	; <UNPREDICTABLE>
    1530:	0000002c 	andeq	r0, r0, ip, lsr #32
    1534:	00000a14 	andeq	r0, r0, r4, lsl sl
    1538:	046f0600 	strbteq	r0, [pc], #-1536	; 1540 <_start-0x6ac0>
    153c:	1f010000 	svcne	0x00010000
    1540:	0000899c 	muleq	r0, ip, r9
    1544:	00000048 	andeq	r0, r0, r8, asr #32
    1548:	01779c01 	cmneq	r7, r1, lsl #24
    154c:	36070000 	strcc	r0, [r7], -r0
    1550:	01000005 	tsteq	r0, r5
    1554:	0001772a 	andeq	r7, r1, sl, lsr #14
    1558:	10001c00 	andne	r1, r0, r0, lsl #24
    155c:	05190720 	ldreq	r0, [r9, #-1824]	; 0x720
    1560:	2b010000 	blcs	41568 <__bss_end__+0x37d50>
    1564:	00000177 	andeq	r0, r0, r7, ror r1
    1568:	20100024 	andscs	r0, r0, r4, lsr #32
    156c:	0004e007 	andeq	lr, r4, r7
    1570:	772c0100 	strvc	r0, [ip, -r0, lsl #2]!
    1574:	00000001 	andeq	r0, r0, r1
    1578:	085a0000 	ldmdaeq	sl, {}^	; <UNPREDICTABLE>
    157c:	00000500 	andeq	r0, r0, r0, lsl #10
    1580:	01772d01 	cmneq	r7, r1, lsl #26
    1584:	09200000 	stmdbeq	r0!, {}	; <UNPREDICTABLE>
    1588:	000089a4 	andeq	r8, r0, r4, lsr #19
    158c:	00000079 	andeq	r0, r0, r9, ror r0
    1590:	0089b009 	addeq	fp, r9, r9
    1594:	0000a200 	andeq	sl, r0, r0, lsl #4
    1598:	89b80a00 	ldmibhi	r8!, {r9, fp}
    159c:	018d0000 	orreq	r0, sp, r0
    15a0:	013a0000 	teqeq	sl, r0
    15a4:	010b0000 	mrseq	r0, (UNDEF: 11)
    15a8:	004e0150 	subeq	r0, lr, r0, asr r1
    15ac:	0089c40a 	addeq	ip, r9, sl, lsl #8
    15b0:	00019e00 	andeq	r9, r1, r0, lsl #28
    15b4:	00015a00 	andeq	r5, r1, r0, lsl #20
    15b8:	51010b00 	tstpl	r1, r0, lsl #22
    15bc:	00010c05 	andeq	r0, r1, r5, lsl #24
    15c0:	010b5a00 	tsteq	fp, r0, lsl #20
    15c4:	240c0550 	strcs	r0, [ip], #-1360	; 0x550
    15c8:	00201000 	eoreq	r1, r0, r0
    15cc:	0089d00c 	addeq	sp, r9, ip
    15d0:	00019e00 	andeq	r9, r1, r0, lsl #28
    15d4:	51010b00 	tstpl	r1, r0, lsl #22
    15d8:	00200c05 	eoreq	r0, r0, r5, lsl #24
    15dc:	010b5a00 	tsteq	fp, r0, lsl #20
    15e0:	1c0c0550 	cfstr32ne	mvfx0, [ip], {80}	; 0x50
    15e4:	00201000 	eoreq	r1, r0, r0
    15e8:	00250d00 	eoreq	r0, r5, r0, lsl #26
    15ec:	d5080000 	strle	r0, [r8, #-0]
    15f0:	01000004 	tsteq	r0, r4
    15f4:	0001880d 	andeq	r8, r1, sp, lsl #16
    15f8:	2c0d1000 	stccs	0, cr1, [sp], {-0}
    15fc:	0e000000 	cdpeq	0, 0, cr0, cr0, cr0, {0}
    1600:	0000010c 	andeq	r0, r0, ip, lsl #2
    1604:	019e5002 	orrseq	r5, lr, r2
    1608:	2c0f0000 	stccs	0, cr0, [pc], {-0}
    160c:	00000000 	andeq	r0, r0, r0
    1610:	00053010 	andeq	r3, r5, r0, lsl r0
    1614:	0f9c0200 	svceq	0x009c0200
    1618:	0000002c 	andeq	r0, r0, ip, lsr #32
    161c:	00002c0f 	andeq	r2, r0, pc, lsl #24
    1620:	d8000000 	stmdale	r0, {}	; <UNPREDICTABLE>
    1624:	04000001 	streq	r0, [r0], #-1
    1628:	00097100 	andeq	r7, r9, r0, lsl #2
    162c:	15010400 	strne	r0, [r1, #-1024]	; 0x400
    1630:	01000003 	tsteq	r0, r3
    1634:	00000560 	andeq	r0, r0, r0, ror #10
    1638:	00000380 	andeq	r0, r0, r0, lsl #7
    163c:	000089e4 	andeq	r8, r0, r4, ror #19
    1640:	00000088 	andeq	r0, r0, r8, lsl #1
    1644:	000007c3 	andeq	r0, r0, r3, asr #15
    1648:	69050402 	stmdbvs	r5, {r1, sl}
    164c:	0300746e 	movweq	r7, #1134	; 0x46e
    1650:	00420704 	subeq	r0, r2, r4, lsl #14
    1654:	01030000 	mrseq	r0, (UNDEF: 3)
    1658:	0000ce06 	andeq	ip, r0, r6, lsl #28
    165c:	05020300 	streq	r0, [r2, #-768]	; 0x300
    1660:	00000179 	andeq	r0, r0, r9, ror r1
    1664:	05050403 	streq	r0, [r5, #-1027]	; 0x403
    1668:	03000000 	movweq	r0, #0
    166c:	00000508 	andeq	r0, r0, r8, lsl #10
    1670:	01030000 	mrseq	r0, (UNDEF: 3)
    1674:	0000cc08 	andeq	ip, r0, r8, lsl #24
    1678:	07020300 	streq	r0, [r2, -r0, lsl #6]
    167c:	000000f9 	strdeq	r0, [r0], -r9
    1680:	3d070403 	cfstrscc	mvf0, [r7, #-12]
    1684:	03000000 	movweq	r0, #0
    1688:	00380708 	eorseq	r0, r8, r8, lsl #14
    168c:	04030000 	streq	r0, [r3], #-0
    1690:	00018307 	andeq	r8, r1, r7, lsl #6
    1694:	08010300 	stmdaeq	r1, {r8, r9}
    1698:	000000d5 	ldrdeq	r0, [r0], -r5
    169c:	00057f04 	andeq	r7, r5, r4, lsl #30
    16a0:	e4050100 	str	r0, [r5], #-256	; 0x100
    16a4:	1c000089 	stcne	0, cr0, [r0], {137}	; 0x89
    16a8:	01000000 	mrseq	r0, (UNDEF: 0)
    16ac:	00009e9c 	muleq	r0, ip, lr
    16b0:	05790500 	ldrbeq	r0, [r9, #-1280]!	; 0x500
    16b4:	05010000 	streq	r0, [r1, #-0]
    16b8:	0000002c 	andeq	r0, r0, ip, lsr #32
    16bc:	00000a3e 	andeq	r0, r0, lr, lsr sl
    16c0:	05430600 	strbeq	r0, [r3, #-1536]	; 0x600
    16c4:	11010000 	mrsne	r0, (UNDEF: 1)
    16c8:	0000002c 	andeq	r0, r0, ip, lsr #32
    16cc:	00008a00 	andeq	r8, r0, r0, lsl #20
    16d0:	00000014 	andeq	r0, r0, r4, lsl r0
    16d4:	00cb9c01 	sbceq	r9, fp, r1, lsl #24
    16d8:	0c070000 	stceq	0, cr0, [r7], {-0}
    16dc:	ca00008a 	bgt	190c <_start-0x66f4>
    16e0:	08000001 	stmdaeq	r0, {r0}
    16e4:	0c055001 	stceq	0, cr5, [r5], {1}
    16e8:	20003004 	andcs	r3, r0, r4
    16ec:	1c060000 	stcne	0, cr0, [r6], {-0}
    16f0:	01000002 	tsteq	r0, r2
    16f4:	00002c16 	andeq	r2, r0, r6, lsl ip
    16f8:	008a1400 	addeq	r1, sl, r0, lsl #8
    16fc:	00000c00 	andeq	r0, r0, r0, lsl #24
    1700:	f99c0100 			; <UNDEFINED> instruction: 0xf99c0100
    1704:	09000000 	stmdbeq	r0, {}	; <UNPREDICTABLE>
    1708:	1a010075 	bne	418e4 <__bss_end__+0x380cc>
    170c:	0000002c 	andeq	r0, r0, ip, lsr #32
    1710:	1c0a5001 	stcne	0, cr5, [sl], {1}
    1714:	9e00008a 	cdpls	0, 0, cr0, cr0, cr10, {4}
    1718:	00000000 	andeq	r0, r0, r0
    171c:	00021304 	andeq	r1, r2, r4, lsl #6
    1720:	201f0100 	andscs	r0, pc, r0, lsl #2
    1724:	2400008a 	strcs	r0, [r0], #-138	; 0x8a
    1728:	01000000 	mrseq	r0, (UNDEF: 0)
    172c:	0001579c 	muleq	r1, ip, r7
    1730:	73750b00 	cmnvc	r5, #0, 22
    1734:	2c1f0100 	ldfcss	f0, [pc], {-0}
    1738:	72000000 	andvc	r0, r0, #0
    173c:	0900000a 	stmdbeq	r0, {r1, r3}
    1740:	01006272 	tsteq	r0, r2, ror r2
    1744:	00002c20 	andeq	r2, r0, r0, lsr #24
    1748:	0c540100 	ldfeqe	f0, [r4], {-0}
    174c:	00008a30 	andeq	r8, r0, r0, lsr sl
    1750:	00000010 	andeq	r0, r0, r0, lsl r0
    1754:	0000014d 	andeq	r0, r0, sp, asr #2
    1758:	0061720d 	rsbeq	r7, r1, sp, lsl #4
    175c:	002c2201 	eoreq	r2, ip, r1, lsl #4
    1760:	0a900000 	beq	fe401768 <__bss_end__+0xfe3f7f50>
    1764:	340a0000 	strcc	r0, [sl], #-0
    1768:	cb00008a 	blgt	1998 <_start-0x6668>
    176c:	00000000 	andeq	r0, r0, r0
    1770:	008a2c0a 	addeq	r2, sl, sl, lsl #24
    1774:	0000cb00 	andeq	ip, r0, r0, lsl #22
    1778:	0c040000 	stceq	0, cr0, [r4], {-0}
    177c:	01000001 	tsteq	r0, r1
    1780:	008a4428 	addeq	r4, sl, r8, lsr #8
    1784:	00001400 	andeq	r1, r0, r0, lsl #8
    1788:	909c0100 	addsls	r0, ip, r0, lsl #2
    178c:	0b000001 	bleq	1798 <_start-0x6868>
    1790:	0100736d 	tsteq	r0, sp, ror #6
    1794:	00002c28 	andeq	r2, r0, r8, lsr #24
    1798:	000aa300 	andeq	sl, sl, r0, lsl #6
    179c:	8a540700 	bhi	15033a4 <__bss_end__+0x14f9b8c>
    17a0:	00f90000 	rscseq	r0, r9, r0
    17a4:	01080000 	mrseq	r0, (UNDEF: 8)
    17a8:	01f30750 	mvnseq	r0, r0, asr r7
    17ac:	03e80a50 	mvneq	r0, #80, 20	; 0x50000
    17b0:	0400001e 	streq	r0, [r0], #-30
    17b4:	00000556 	andeq	r0, r0, r6, asr r5
    17b8:	8a582b01 	bhi	160c3c4 <__bss_end__+0x1602bac>
    17bc:	00140000 	andseq	r0, r4, r0
    17c0:	9c010000 	stcls	0, cr0, [r1], {-0}
    17c4:	000001ca 	andeq	r0, r0, sl, asr #3
    17c8:	6365730b 	cmnvs	r5, #738197504	; 0x2c000000
    17cc:	2c2b0100 	stfcss	f0, [fp], #-0
    17d0:	c4000000 	strgt	r0, [r0], #-0
    17d4:	0700000a 	streq	r0, [r0, -sl]
    17d8:	00008a68 	andeq	r8, r0, r8, ror #20
    17dc:	00000157 	andeq	r0, r0, r7, asr r1
    17e0:	07500108 	ldrbeq	r0, [r0, -r8, lsl #2]
    17e4:	0a5001f3 	beq	1401fb8 <__bss_end__+0x13f87a0>
    17e8:	001e03e8 	andseq	r0, lr, r8, ror #7
    17ec:	05730e00 	ldrbeq	r0, [r3, #-3584]!	; 0xe00
    17f0:	a8020000 	stmdage	r2, {}	; <UNPREDICTABLE>
    17f4:	0000002c 	andeq	r0, r0, ip, lsr #32
    17f8:	00002c0f 	andeq	r2, r0, pc, lsl #24
    17fc:	82000000 	andhi	r0, r0, #0
    1800:	04000008 	streq	r0, [r0], #-8
    1804:	000a5400 	andeq	r5, sl, r0, lsl #8
    1808:	15010400 	strne	r0, [r1, #-1024]	; 0x400
    180c:	01000003 	tsteq	r0, r3
    1810:	000005e6 	andeq	r0, r0, r6, ror #11
    1814:	00000380 	andeq	r0, r0, r0, lsl #7
    1818:	00008a6c 	andeq	r8, r0, ip, ror #20
    181c:	000005a0 	andeq	r0, r0, r0, lsr #11
    1820:	0000086a 	andeq	r0, r0, sl, ror #16
    1824:	38070802 	stmdacc	r7, {r1, fp}
    1828:	02000000 	andeq	r0, r0, #0
    182c:	00420704 	subeq	r0, r2, r4, lsl #14
    1830:	01020000 	mrseq	r0, (UNDEF: 2)
    1834:	0000ce06 	andeq	ip, r0, r6, lsl #28
    1838:	05020200 	streq	r0, [r2, #-512]	; 0x200
    183c:	00000179 	andeq	r0, r0, r9, ror r1
    1840:	05050402 	streq	r0, [r5, #-1026]	; 0x402
    1844:	02000000 	andeq	r0, r0, #0
    1848:	00000508 	andeq	r0, r0, r8, lsl #10
    184c:	01020000 	mrseq	r0, (UNDEF: 2)
    1850:	0000cc08 	andeq	ip, r0, r8, lsl #24
    1854:	07020200 	streq	r0, [r2, -r0, lsl #4]
    1858:	000000f9 	strdeq	r0, [r0], -r9
    185c:	3d070402 	cfstrscc	mvf0, [r7, #-8]
    1860:	03000000 	movweq	r0, #0
    1864:	6e690504 	cdpvs	5, 6, cr0, cr9, cr4, {0}
    1868:	04020074 	streq	r0, [r2], #-116	; 0x74
    186c:	00018307 	andeq	r8, r1, r7, lsl #6
    1870:	08010200 	stmdaeq	r1, {r9}
    1874:	000000d5 	ldrdeq	r0, [r0], -r5
    1878:	0c020104 	stfeqs	f0, [r2], {4}
    187c:	000000b2 	strheq	r0, [r0], -r2
    1880:	0005c905 	andeq	ip, r5, r5, lsl #18
    1884:	12050000 	andne	r0, r5, #0
    1888:	01000007 	tsteq	r0, r7
    188c:	00074b05 	andeq	r4, r7, r5, lsl #22
    1890:	5a050400 	bpl	142898 <__bss_end__+0x139080>
    1894:	05000007 	streq	r0, [r0, #-7]
    1898:	00076905 	andeq	r6, r7, r5, lsl #18
    189c:	78050600 	stmdavc	r5, {r9, sl}
    18a0:	07000007 	streq	r0, [r0, -r7]
    18a4:	00078705 	andeq	r8, r7, r5, lsl #14
    18a8:	96050300 	strls	r0, [r5], -r0, lsl #6
    18ac:	02000007 	andeq	r0, r0, #7
    18b0:	073f0600 	ldreq	r0, [pc, -r0, lsl #12]!
    18b4:	15020000 	strne	r0, [r2, #-0]
    18b8:	00000079 	andeq	r0, r0, r9, ror r0
    18bc:	0001e307 	andeq	lr, r1, r7, lsl #6
    18c0:	6c3f0100 	ldfvss	f0, [pc], #-0	; 18c8 <_start-0x6738>
    18c4:	d400008a 	strle	r0, [r0], #-138	; 0x8a
    18c8:	01000000 	mrseq	r0, (UNDEF: 0)
    18cc:	0001339c 	muleq	r1, ip, r3
    18d0:	69700800 	ldmdbvs	r0!, {fp}^
    18d4:	3f01006e 	svccc	0x0001006e
    18d8:	0000002c 	andeq	r0, r0, ip, lsr #32
    18dc:	00000ae5 	andeq	r0, r0, r5, ror #21
    18e0:	00062209 	andeq	r2, r6, r9, lsl #4
    18e4:	33470100 	movtcc	r0, #28928	; 0x7100
    18e8:	03000001 	movweq	r0, #1
    18ec:	0900000b 	stmdbeq	r0, {r0, r1, r3}
    18f0:	000007a5 	andeq	r0, r0, r5, lsr #15
    18f4:	002c4901 	eoreq	r4, ip, r1, lsl #18
    18f8:	0b580000 	bleq	1601900 <__bss_end__+0x15f80e8>
    18fc:	c7090000 	strgt	r0, [r9, -r0]
    1900:	01000006 	tsteq	r0, r6
    1904:	00002c57 	andeq	r2, r0, r7, asr ip
    1908:	000d2400 	andeq	r2, sp, r0, lsl #8
    190c:	8b000a00 	blhi	4114 <_start-0x3eec>
    1910:	08410000 	stmdaeq	r1, {}^	; <UNPREDICTABLE>
    1914:	01220000 	teqeq	r2, r0
    1918:	010b0000 	mrseq	r0, (UNDEF: 11)
    191c:	00750250 	rsbseq	r0, r5, r0, asr r2
    1920:	8b340c00 	blhi	d04928 <__bss_end__+0xcfb110>
    1924:	08620000 	stmdaeq	r2!, {}^	; <UNPREDICTABLE>
    1928:	010b0000 	mrseq	r0, (UNDEF: 11)
    192c:	00750250 	rsbseq	r0, r5, r0, asr r2
    1930:	040d0000 	streq	r0, [sp], #-0
    1934:	00000139 	andeq	r0, r0, r9, lsr r1
    1938:	00002c0e 	andeq	r2, r0, lr, lsl #24
    193c:	06f80700 	ldrbteq	r0, [r8], r0, lsl #14
    1940:	60010000 	andvs	r0, r1, r0
    1944:	00008b40 	andeq	r8, r0, r0, asr #22
    1948:	00000038 	andeq	r0, r0, r8, lsr r0
    194c:	01969c01 	orrseq	r9, r6, r1, lsl #24
    1950:	70080000 	andvc	r0, r8, r0
    1954:	01006e69 	tsteq	r0, r9, ror #28
    1958:	00002c60 	andeq	r2, r0, r0, ror #24
    195c:	000d5400 	andeq	r5, sp, r0, lsl #8
    1960:	06220900 	strteq	r0, [r2], -r0, lsl #18
    1964:	67010000 	strvs	r0, [r1, -r0]
    1968:	00000133 	andeq	r0, r0, r3, lsr r1
    196c:	00000d75 	andeq	r0, r0, r5, ror sp
    1970:	0006c709 	andeq	ip, r6, r9, lsl #14
    1974:	2c680100 	stfcse	f0, [r8], #-0
    1978:	ab000000 	blge	1980 <_start-0x6680>
    197c:	0c00000d 	stceq	0, cr0, [r0], {13}
    1980:	00008b70 	andeq	r8, r0, r0, ror fp
    1984:	00000862 	andeq	r0, r0, r2, ror #16
    1988:	0751010b 	ldrbeq	r0, [r1, -fp, lsl #2]
    198c:	5001f331 	andpl	pc, r1, r1, lsr r3	; <UNPREDICTABLE>
    1990:	00241a4f 	eoreq	r1, r4, pc, asr #20
    1994:	05d90700 	ldrbeq	r0, [r9, #1792]	; 0x700
    1998:	7b010000 	blvc	419a0 <__bss_end__+0x38188>
    199c:	00008b78 	andeq	r8, r0, r8, ror fp
    19a0:	00000038 	andeq	r0, r0, r8, lsr r0
    19a4:	01ee9c01 	mvneq	r9, r1, lsl #24
    19a8:	70080000 	andvc	r0, r8, r0
    19ac:	01006e69 	tsteq	r0, r9, ror #28
    19b0:	00002c7b 	andeq	r2, r0, fp, ror ip
    19b4:	000deb00 	andeq	lr, sp, r0, lsl #22
    19b8:	06220900 	strteq	r0, [r2], -r0, lsl #18
    19bc:	81010000 	mrshi	r0, (UNDEF: 1)
    19c0:	00000133 	andeq	r0, r0, r3, lsr r1
    19c4:	00000e0c 	andeq	r0, r0, ip, lsl #28
    19c8:	0006c709 	andeq	ip, r6, r9, lsl #14
    19cc:	2c820100 	stfcss	f0, [r2], {0}
    19d0:	42000000 	andmi	r0, r0, #0
    19d4:	0c00000e 	stceq	0, cr0, [r0], {14}
    19d8:	00008ba8 	andeq	r8, r0, r8, lsr #23
    19dc:	00000862 	andeq	r0, r0, r2, ror #16
    19e0:	0751010b 	ldrbeq	r0, [r1, -fp, lsl #2]
    19e4:	5001f331 	andpl	pc, r1, r1, lsr r3	; <UNPREDICTABLE>
    19e8:	00241a4f 	eoreq	r1, r4, pc, asr #20
    19ec:	01b30700 			; <UNDEFINED> instruction: 0x01b30700
    19f0:	95010000 	strls	r0, [r1, #-0]
    19f4:	00008bb0 			; <UNDEFINED> instruction: 0x00008bb0
    19f8:	000000cc 	andeq	r0, r0, ip, asr #1
    19fc:	02649c01 	rsbeq	r9, r4, #256	; 0x100
    1a00:	70080000 	andvc	r0, r8, r0
    1a04:	01006e69 	tsteq	r0, r9, ror #28
    1a08:	00002c95 	muleq	r0, r5, ip
    1a0c:	000e8200 	andeq	r8, lr, r0, lsl #4
    1a10:	06220900 	strteq	r0, [r2], -r0, lsl #18
    1a14:	9b010000 	blls	41a1c <__bss_end__+0x38204>
    1a18:	00000133 	andeq	r0, r0, r3, lsr r1
    1a1c:	00000ea0 	andeq	r0, r0, r0, lsr #29
    1a20:	0007a509 	andeq	sl, r7, r9, lsl #10
    1a24:	2c9d0100 	ldfcss	f0, [sp], {0}
    1a28:	f5000000 			; <UNDEFINED> instruction: 0xf5000000
    1a2c:	0900000e 	stmdbeq	r0, {r1, r2, r3}
    1a30:	000006c7 	andeq	r0, r0, r7, asr #13
    1a34:	002cab01 	eoreq	sl, ip, r1, lsl #22
    1a38:	10c10000 	sbcne	r0, r1, r0
    1a3c:	440a0000 	strmi	r0, [sl], #-0
    1a40:	4100008c 	smlabbmi	r0, ip, r0, r0
    1a44:	53000008 	movwpl	r0, #8
    1a48:	0b000002 	bleq	1a58 <_start-0x65a8>
    1a4c:	75025001 	strvc	r5, [r2, #-1]
    1a50:	700c0000 	andvc	r0, ip, r0
    1a54:	6200008c 	andvs	r0, r0, #140	; 0x8c
    1a58:	0b000008 	bleq	1a80 <_start-0x6580>
    1a5c:	75025001 	strvc	r5, [r2, #-1]
    1a60:	0f000000 	svceq	0x00000000
    1a64:	000001a9 	andeq	r0, r0, r9, lsr #3
    1a68:	0064b201 	rsbeq	fp, r4, r1, lsl #4
    1a6c:	8c7c0000 	ldclhi	0, cr0, [ip], #-0
    1a70:	004c0000 	subeq	r0, ip, r0
    1a74:	9c010000 	stcls	0, cr0, [r1], {-0}
    1a78:	000002ac 	andeq	r0, r0, ip, lsr #5
    1a7c:	6e697008 	cdpvs	0, 6, cr7, cr9, cr8, {0}
    1a80:	2cb20100 	ldfcss	f0, [r2]
    1a84:	df000000 	svcle	0x00000000
    1a88:	10000010 	andne	r0, r0, r0, lsl r0
    1a8c:	b8010076 	stmdalt	r1, {r1, r2, r4, r5, r6}
    1a90:	0000002c 	andeq	r0, r0, ip, lsr #32
    1a94:	00001137 	andeq	r1, r0, r7, lsr r1
    1a98:	008c9c11 	addeq	r9, ip, r1, lsl ip
    1a9c:	00084100 	andeq	r4, r8, r0, lsl #2
    1aa0:	8cac1100 	stfhis	f1, [ip]
    1aa4:	08410000 	stmdaeq	r1, {}^	; <UNPREDICTABLE>
    1aa8:	07000000 	streq	r0, [r0, -r0]
    1aac:	00000191 	muleq	r0, r1, r1
    1ab0:	8cc8c401 	cfstrdhi	mvd12, [r8], {1}
    1ab4:	00240000 	eoreq	r0, r4, r0
    1ab8:	9c010000 	stcls	0, cr0, [r1], {-0}
    1abc:	000002fc 	strdeq	r0, [r0], -ip
    1ac0:	6e697008 	cdpvs	0, 6, cr7, cr9, cr8, {0}
    1ac4:	2cc40100 	stfcse	f0, [r4], {0}
    1ac8:	6d000000 	stcvs	0, cr0, [r0, #-0]
    1acc:	08000011 	stmdaeq	r0, {r0, r4}
    1ad0:	c4010076 	strgt	r0, [r1], #-118	; 0x76
    1ad4:	0000002c 	andeq	r0, r0, ip, lsr #32
    1ad8:	000011a7 	andeq	r1, r0, r7, lsr #3
    1adc:	008ce00a 	addeq	lr, ip, sl
    1ae0:	00013e00 	andeq	r3, r1, r0, lsl #28
    1ae4:	0002f200 	andeq	pc, r2, r0, lsl #4
    1ae8:	50010b00 	andpl	r0, r1, r0, lsl #22
    1aec:	5001f303 	andpl	pc, r1, r3, lsl #6
    1af0:	8ce81100 	stfhie	f1, [r8]
    1af4:	01960000 	orrseq	r0, r6, r0
    1af8:	07000000 	streq	r0, [r0, -r0]
    1afc:	0000067a 	andeq	r0, r0, sl, ror r6
    1b00:	8cecd001 	stclhi	0, cr13, [ip], #4
    1b04:	00d80000 	sbcseq	r0, r8, r0
    1b08:	9c010000 	stcls	0, cr0, [r1], {-0}
    1b0c:	00000381 	andeq	r0, r0, r1, lsl #7
    1b10:	6e697008 	cdpvs	0, 6, cr7, cr9, cr8, {0}
    1b14:	2cd00100 	ldfcse	f0, [r0], {0}
    1b18:	e1000000 	mrs	r0, (UNDEF: 0)
    1b1c:	12000011 	andne	r0, r0, #17
    1b20:	000006d9 	ldrdeq	r0, [r0], -r9
    1b24:	00b2d001 	adcseq	sp, r2, r1
    1b28:	11ff0000 	mvnsne	r0, r0
    1b2c:	22090000 	andcs	r0, r9, #0
    1b30:	01000006 	tsteq	r0, r6
    1b34:	000133d8 	ldrdeq	r3, [r1], -r8
    1b38:	00122000 	andseq	r2, r2, r0
    1b3c:	07a50900 	streq	r0, [r5, r0, lsl #18]!
    1b40:	d9010000 	stmdble	r1, {}	; <UNPREDICTABLE>
    1b44:	0000002c 	andeq	r0, r0, ip, lsr #32
    1b48:	00001275 	andeq	r1, r0, r5, ror r2
    1b4c:	0006c709 	andeq	ip, r6, r9, lsl #14
    1b50:	2ce70100 	stfcse	f0, [r7]
    1b54:	41000000 	mrsmi	r0, (UNDEF: 0)
    1b58:	0a000014 	beq	1bb0 <_start-0x6450>
    1b5c:	00008d88 	andeq	r8, r0, r8, lsl #27
    1b60:	00000841 	andeq	r0, r0, r1, asr #16
    1b64:	00000370 	andeq	r0, r0, r0, ror r3
    1b68:	0250010b 	subseq	r0, r0, #-1073741822	; 0xc0000002
    1b6c:	0c000076 	stceq	0, cr0, [r0], {118}	; 0x76
    1b70:	00008db8 			; <UNDEFINED> instruction: 0x00008db8
    1b74:	00000862 	andeq	r0, r0, r2, ror #16
    1b78:	0250010b 	subseq	r0, r0, #-1073741822	; 0xc0000002
    1b7c:	00000076 	andeq	r0, r0, r6, ror r0
    1b80:	0006de07 	andeq	sp, r6, r7, lsl #28
    1b84:	c4f00100 	ldrbtgt	r0, [r0], #256	; 0x100
    1b88:	3800008d 	stmdacc	r0, {r0, r2, r3, r7}
    1b8c:	01000000 	mrseq	r0, (UNDEF: 0)
    1b90:	0003d99c 	muleq	r3, ip, r9
    1b94:	69700800 	ldmdbvs	r0!, {fp}^
    1b98:	f001006e 			; <UNDEFINED> instruction: 0xf001006e
    1b9c:	0000002c 	andeq	r0, r0, ip, lsr #32
    1ba0:	00001472 	andeq	r1, r0, r2, ror r4
    1ba4:	00062209 	andeq	r2, r6, r9, lsl #4
    1ba8:	33f60100 	mvnscc	r0, #0, 2
    1bac:	93000001 	movwls	r0, #1
    1bb0:	09000014 	stmdbeq	r0, {r2, r4}
    1bb4:	000006c7 	andeq	r0, r0, r7, asr #13
    1bb8:	002cf701 	eoreq	pc, ip, r1, lsl #14
    1bbc:	14c90000 	strbne	r0, [r9], #0
    1bc0:	f40c0000 	vst4.8	{d0-d3}, [ip], r0
    1bc4:	6200008d 	andvs	r0, r0, #141	; 0x8d
    1bc8:	0b000008 	bleq	1bf0 <_start-0x6410>
    1bcc:	31075101 	tstcc	r7, r1, lsl #2
    1bd0:	4f5001f3 	svcmi	0x005001f3
    1bd4:	0000241a 	andeq	r2, r0, sl, lsl r4
    1bd8:	0005bd13 	andeq	fp, r5, r3, lsl sp
    1bdc:	011e0100 	tsteq	lr, r0, lsl #2
    1be0:	00000064 	andeq	r0, r0, r4, rrx
    1be4:	00008dfc 	strdeq	r8, [r0], -ip
    1be8:	0000002c 	andeq	r0, r0, ip, lsr #32
    1bec:	040d9c01 	streq	r9, [sp], #-3073	; 0xc01
    1bf0:	c0140000 	andsgt	r0, r4, r0
    1bf4:	01000005 	tsteq	r0, r5
    1bf8:	002c011e 	eoreq	r0, ip, lr, lsl r1
    1bfc:	15090000 	strne	r0, [r9, #-0]
    1c00:	0c110000 	ldceq	0, cr0, [r1], {-0}
    1c04:	4100008e 	smlabbmi	r0, lr, r0, r0
    1c08:	00000008 	andeq	r0, r0, r8
    1c0c:	00066515 	andeq	r6, r6, r5, lsl r5
    1c10:	012d0100 	teqeq	sp, r0, lsl #2
    1c14:	00008e28 	andeq	r8, r0, r8, lsr #28
    1c18:	00000084 	andeq	r0, r0, r4, lsl #1
    1c1c:	04d19c01 	ldrbeq	r9, [r1], #3073	; 0xc01
    1c20:	70160000 	andsvc	r0, r6, r0
    1c24:	01006e69 	tsteq	r0, r9, ror #28
    1c28:	002c012d 	eoreq	r0, ip, sp, lsr #2
    1c2c:	152a0000 	strne	r0, [sl, #-0]!
    1c30:	f4170000 			; <UNDEFINED> instruction: 0xf4170000
    1c34:	01000005 	tsteq	r0, r5
    1c38:	002c013f 	eoreq	r0, ip, pc, lsr r1
    1c3c:	15560000 	ldrbne	r0, [r6, #-0]
    1c40:	44180000 	ldrmi	r0, [r8], #-0
    1c44:	1c00008e 	stcne	0, cr0, [r0], {142}	; 0x8e
    1c48:	73000000 	movwvc	r0, #0
    1c4c:	17000004 	strne	r0, [r0, -r4]
    1c50:	000006c7 	andeq	r0, r0, r7, asr #13
    1c54:	2c013601 	stccs	6, cr3, [r1], {1}
    1c58:	74000000 	strvc	r0, [r0], #-0
    1c5c:	11000015 	tstne	r0, r5, lsl r0
    1c60:	00008e50 	andeq	r8, r0, r0, asr lr
    1c64:	00000841 	andeq	r0, r0, r1, asr #16
    1c68:	008e6011 	addeq	r6, lr, r1, lsl r0
    1c6c:	00086200 	andeq	r6, r8, r0, lsl #4
    1c70:	64180000 	ldrvs	r0, [r8], #-0
    1c74:	2000008e 	andcs	r0, r0, lr, lsl #1
    1c78:	a3000000 	movwge	r0, #0
    1c7c:	17000004 	strne	r0, [r0, -r4]
    1c80:	000006c7 	andeq	r0, r0, r7, asr #13
    1c84:	2c013a01 	stccs	10, cr3, [r1], {1}
    1c88:	92000000 	andls	r0, r0, #0
    1c8c:	11000015 	tstne	r0, r5, lsl r0
    1c90:	00008e70 	andeq	r8, r0, r0, ror lr
    1c94:	00000841 	andeq	r0, r0, r1, asr #16
    1c98:	008e8411 	addeq	r8, lr, r1, lsl r4
    1c9c:	00086200 	andeq	r6, r8, r0, lsl #4
    1ca0:	3c110000 	ldccc	0, cr0, [r1], {-0}
    1ca4:	7e00008e 	cdpvc	0, 0, cr0, cr0, cr14, {4}
    1ca8:	11000008 	tstne	r0, r8
    1cac:	00008e88 	andeq	r8, r0, r8, lsl #29
    1cb0:	0000087e 	andeq	r0, r0, lr, ror r8
    1cb4:	008e9411 	addeq	r9, lr, r1, lsl r4
    1cb8:	00084100 	andeq	r4, r8, r0, lsl #2
    1cbc:	8ea01100 	fdvhis	f1, f0, f0
    1cc0:	08620000 	stmdaeq	r2!, {}^	; <UNPREDICTABLE>
    1cc4:	a4110000 	ldrge	r0, [r1], #-0
    1cc8:	7e00008e 	cdpvc	0, 0, cr0, cr0, cr14, {4}
    1ccc:	00000008 	andeq	r0, r0, r8
    1cd0:	00072915 	andeq	r2, r7, r5, lsl r9
    1cd4:	014a0100 	mrseq	r0, (UNDEF: 90)
    1cd8:	00008eac 	andeq	r8, r0, ip, lsr #29
    1cdc:	00000084 	andeq	r0, r0, r4, lsl #1
    1ce0:	05959c01 	ldreq	r9, [r5, #3073]	; 0xc01
    1ce4:	70160000 	andsvc	r0, r6, r0
    1ce8:	01006e69 	tsteq	r0, r9, ror #28
    1cec:	002c014a 	eoreq	r0, ip, sl, asr #2
    1cf0:	15b00000 	ldrne	r0, [r0, #0]!
    1cf4:	f4170000 			; <UNDEFINED> instruction: 0xf4170000
    1cf8:	01000005 	tsteq	r0, r5
    1cfc:	002c015b 	eoreq	r0, ip, fp, asr r1
    1d00:	15dc0000 	ldrbne	r0, [ip]
    1d04:	c8180000 	ldmdagt	r8, {}	; <UNPREDICTABLE>
    1d08:	1c00008e 	stcne	0, cr0, [r0], {142}	; 0x8e
    1d0c:	37000000 	strcc	r0, [r0, -r0]
    1d10:	17000005 	strne	r0, [r0, -r5]
    1d14:	000006c7 	andeq	r0, r0, r7, asr #13
    1d18:	2c015201 	sfmcs	f5, 4, [r1], {1}
    1d1c:	fa000000 	blx	1d24 <_start-0x62dc>
    1d20:	11000015 	tstne	r0, r5, lsl r0
    1d24:	00008ed4 	ldrdeq	r8, [r0], -r4
    1d28:	00000841 	andeq	r0, r0, r1, asr #16
    1d2c:	008ee411 	addeq	lr, lr, r1, lsl r4
    1d30:	00086200 	andeq	r6, r8, r0, lsl #4
    1d34:	e8180000 	ldmda	r8, {}	; <UNPREDICTABLE>
    1d38:	2000008e 	andcs	r0, r0, lr, lsl #1
    1d3c:	67000000 	strvs	r0, [r0, -r0]
    1d40:	17000005 	strne	r0, [r0, -r5]
    1d44:	000006c7 	andeq	r0, r0, r7, asr #13
    1d48:	2c015601 	stccs	6, cr5, [r1], {1}
    1d4c:	18000000 	stmdane	r0, {}	; <UNPREDICTABLE>
    1d50:	11000016 	tstne	r0, r6, lsl r0
    1d54:	00008ef4 	strdeq	r8, [r0], -r4
    1d58:	00000841 	andeq	r0, r0, r1, asr #16
    1d5c:	008f0811 	addeq	r0, pc, r1, lsl r8	; <UNPREDICTABLE>
    1d60:	00086200 	andeq	r6, r8, r0, lsl #4
    1d64:	c0110000 	andsgt	r0, r1, r0
    1d68:	7e00008e 	cdpvc	0, 0, cr0, cr0, cr14, {4}
    1d6c:	11000008 	tstne	r0, r8
    1d70:	00008f0c 	andeq	r8, r0, ip, lsl #30
    1d74:	0000087e 	andeq	r0, r0, lr, ror r8
    1d78:	008f1811 	addeq	r1, pc, r1, lsl r8	; <UNPREDICTABLE>
    1d7c:	00084100 	andeq	r4, r8, r0, lsl #2
    1d80:	8f241100 	svchi	0x00241100
    1d84:	08620000 	stmdaeq	r2!, {}^	; <UNPREDICTABLE>
    1d88:	28110000 	ldmdacs	r1, {}	; <UNPREDICTABLE>
    1d8c:	7e00008f 	cdpvc	0, 0, cr0, cr0, cr15, {4}
    1d90:	00000008 	andeq	r0, r0, r8
    1d94:	00058c13 	andeq	r8, r5, r3, lsl ip
    1d98:	01650100 	cmneq	r5, r0, lsl #2
    1d9c:	00000064 	andeq	r0, r0, r4, rrx
    1da0:	00008f30 	andeq	r8, r0, r0, lsr pc
    1da4:	00000084 	andeq	r0, r0, r4, lsl #1
    1da8:	063b9c01 	ldrteq	r9, [fp], -r1, lsl #24
    1dac:	70160000 	andsvc	r0, r6, r0
    1db0:	01006e69 	tsteq	r0, r9, ror #28
    1db4:	002c0165 	eoreq	r0, ip, r5, ror #2
    1db8:	16360000 	ldrtne	r0, [r6], -r0
    1dbc:	4c180000 	ldcmi	0, cr0, [r8], {-0}
    1dc0:	2400008f 	strcs	r0, [r0], #-143	; 0x8f
    1dc4:	ef000000 	svc	0x00000000
    1dc8:	17000005 	strne	r0, [r0, -r5]
    1dcc:	0000060b 	andeq	r0, r0, fp, lsl #12
    1dd0:	2c016c01 	stccs	12, cr6, [r1], {1}
    1dd4:	78000000 	stmdavc	r0, {}	; <UNPREDICTABLE>
    1dd8:	11000016 	tstne	r0, r6, lsl r0
    1ddc:	00008f58 	andeq	r8, r0, r8, asr pc
    1de0:	00000841 	andeq	r0, r0, r1, asr #16
    1de4:	008f6811 	addeq	r6, pc, r1, lsl r8	; <UNPREDICTABLE>
    1de8:	00087e00 	andeq	r7, r8, r0, lsl #28
    1dec:	70180000 	andsvc	r0, r8, r0
    1df0:	2c00008f 	stccs	0, cr0, [r0], {143}	; 0x8f
    1df4:	28000000 	stmdacs	r0, {}	; <UNPREDICTABLE>
    1df8:	17000006 	strne	r0, [r0, -r6]
    1dfc:	0000060b 	andeq	r0, r0, fp, lsl #12
    1e00:	2c016f01 	stccs	15, cr6, [r1], {1}
    1e04:	92000000 	andls	r0, r0, #0
    1e08:	11000016 	tstne	r0, r6, lsl r0
    1e0c:	00008f7c 	andeq	r8, r0, ip, ror pc
    1e10:	00000841 	andeq	r0, r0, r1, asr #16
    1e14:	008f8811 	addeq	r8, pc, r1, lsl r8	; <UNPREDICTABLE>
    1e18:	00087e00 	andeq	r7, r8, r0, lsl #28
    1e1c:	8f941100 	svchi	0x00941100
    1e20:	087e0000 	ldmdaeq	lr!, {}^	; <UNPREDICTABLE>
    1e24:	11000000 	mrsne	r0, (UNDEF: 0)
    1e28:	00008f44 	andeq	r8, r0, r4, asr #30
    1e2c:	0000087e 	andeq	r0, r0, lr, ror r8
    1e30:	008fa011 	addeq	sl, pc, r1, lsl r0	; <UNPREDICTABLE>
    1e34:	00087e00 	andeq	r7, r8, r0, lsl #28
    1e38:	9a150000 	bls	541e40 <__bss_end__+0x538628>
    1e3c:	01000006 	tsteq	r0, r6
    1e40:	8fb40178 	svchi	0x00b40178
    1e44:	00580000 	subseq	r0, r8, r0
    1e48:	9c010000 	stcls	0, cr0, [r1], {-0}
    1e4c:	000006a0 	andeq	r0, r0, r0, lsr #13
    1e50:	6e697016 	mcrvs	0, 3, r7, cr9, cr6, {0}
    1e54:	01780100 	cmneq	r8, r0, lsl #2
    1e58:	0000002c 	andeq	r0, r0, ip, lsr #32
    1e5c:	000016a5 	andeq	r1, r0, r5, lsr #13
    1e60:	008fc811 	addeq	ip, pc, r1, lsl r8	; <UNPREDICTABLE>
    1e64:	00087e00 	andeq	r7, r8, r0, lsl #28
    1e68:	8fe40a00 	svchi	0x00e40a00
    1e6c:	08620000 	stmdaeq	r2!, {}^	; <UNPREDICTABLE>
    1e70:	06800000 	streq	r0, [r0], r0
    1e74:	010b0000 	mrseq	r0, (UNDEF: 11)
    1e78:	74310451 	ldrtvc	r0, [r1], #-1105	; 0x451
    1e7c:	0a002400 	beq	ae84 <__bss_end__+0x166c>
    1e80:	00009000 	andeq	r9, r0, r0
    1e84:	00000862 	andeq	r0, r0, r2, ror #16
    1e88:	00000696 	muleq	r0, r6, r6
    1e8c:	0451010b 	ldrbeq	r0, [r1], #-267	; 0x10b
    1e90:	24007431 	strcs	r7, [r0], #-1073	; 0x431
    1e94:	90041100 	andls	r1, r4, r0, lsl #2
    1e98:	087e0000 	ldmdaeq	lr!, {}^	; <UNPREDICTABLE>
    1e9c:	19000000 	stmdbne	r0, {}	; <UNPREDICTABLE>
    1ea0:	00000653 	andeq	r0, r0, r3, asr r6
    1ea4:	01332801 	teqeq	r3, r1, lsl #16
    1ea8:	03050000 	movweq	r0, #20480	; 0x5000
    1eac:	0000926c 	andeq	r9, r0, ip, ror #4
    1eb0:	0006cf19 	andeq	ip, r6, r9, lsl pc
    1eb4:	33290100 	teqcc	r9, #0, 2
    1eb8:	05000001 	streq	r0, [r0, #-1]
    1ebc:	00926803 	addseq	r6, r2, r3, lsl #16
    1ec0:	07b01900 	ldreq	r1, [r0, r0, lsl #18]!
    1ec4:	2a010000 	bcs	41ecc <__bss_end__+0x386b4>
    1ec8:	00000133 	andeq	r0, r0, r3, lsr r1
    1ecc:	92640305 	rsbls	r0, r4, #335544320	; 0x14000000
    1ed0:	2b190000 	blcs	641ed8 <__bss_end__+0x6386c0>
    1ed4:	01000006 	tsteq	r0, r6
    1ed8:	0001332c 	andeq	r3, r1, ip, lsr #6
    1edc:	10030500 	andne	r0, r3, r0, lsl #10
    1ee0:	19000092 	stmdbne	r0, {r1, r4, r7}
    1ee4:	00000633 	andeq	r0, r0, r3, lsr r6
    1ee8:	01332d01 	teqeq	r3, r1, lsl #26
    1eec:	03050000 	movweq	r0, #20480	; 0x5000
    1ef0:	00009214 	andeq	r9, r0, r4, lsl r2
    1ef4:	0005a019 	andeq	sl, r5, r9, lsl r0
    1ef8:	332e0100 	teqcc	lr, #0, 2
    1efc:	05000001 	streq	r0, [r0, #-1]
    1f00:	00921803 	addseq	r1, r2, r3, lsl #16
    1f04:	063b1900 	ldrteq	r1, [fp], -r0, lsl #18
    1f08:	2f010000 	svccs	0x00010000
    1f0c:	00000133 	andeq	r0, r0, r3, lsr r1
    1f10:	921c0305 	andsls	r0, ip, #335544320	; 0x14000000
    1f14:	43190000 	tstmi	r9, #0
    1f18:	01000006 	tsteq	r0, r6
    1f1c:	00013330 	andeq	r3, r1, r0, lsr r3
    1f20:	20030500 	andcs	r0, r3, r0, lsl #10
    1f24:	19000092 	stmdbne	r0, {r1, r4, r7}
    1f28:	0000064b 	andeq	r0, r0, fp, asr #12
    1f2c:	01333101 	teqeq	r3, r1, lsl #2
    1f30:	03050000 	movweq	r0, #20480	; 0x5000
    1f34:	00009224 	andeq	r9, r0, r4, lsr #4
    1f38:	0005fd19 	andeq	pc, r5, r9, lsl sp	; <UNPREDICTABLE>
    1f3c:	33330100 	teqcc	r3, #0, 2
    1f40:	05000001 	streq	r0, [r0, #-1]
    1f44:	00922803 	addseq	r2, r2, r3, lsl #16
    1f48:	06041900 	streq	r1, [r4], -r0, lsl #18
    1f4c:	34010000 	strcc	r0, [r1], #-0
    1f50:	00000133 	andeq	r0, r0, r3, lsr r1
    1f54:	922c0305 	eorls	r0, ip, #335544320	; 0x14000000
    1f58:	a8190000 	ldmdage	r9, {}	; <UNPREDICTABLE>
    1f5c:	01000005 	tsteq	r0, r5
    1f60:	00013336 	andeq	r3, r1, r6, lsr r3
    1f64:	30030500 	andcc	r0, r3, r0, lsl #10
    1f68:	19000092 	stmdbne	r0, {r1, r4, r7}
    1f6c:	0000065e 	andeq	r0, r0, lr, asr r6
    1f70:	01333701 	teqeq	r3, r1, lsl #14
    1f74:	03050000 	movweq	r0, #20480	; 0x5000
    1f78:	00009234 	andeq	r9, r0, r4, lsr r2
    1f7c:	00061419 	andeq	r1, r6, r9, lsl r4
    1f80:	33390100 	teqcc	r9, #0, 2
    1f84:	05000001 	streq	r0, [r0, #-1]
    1f88:	00923803 	addseq	r3, r2, r3, lsl #16
    1f8c:	061b1900 	ldreq	r1, [fp], -r0, lsl #18
    1f90:	3a010000 	bcc	41f98 <__bss_end__+0x38780>
    1f94:	00000133 	andeq	r0, r0, r3, lsr r1
    1f98:	923c0305 	eorsls	r0, ip, #335544320	; 0x14000000
    1f9c:	ab1a0000 	blge	681fa4 <__bss_end__+0x67878c>
    1fa0:	01000006 	tsteq	r0, r6
    1fa4:	01330109 	teqeq	r3, r9, lsl #2
    1fa8:	03050000 	movweq	r0, #20480	; 0x5000
    1fac:	00009260 	andeq	r9, r0, r0, ror #4
    1fb0:	0006b91a 	andeq	fp, r6, sl, lsl r9
    1fb4:	010a0100 	mrseq	r0, (UNDEF: 26)
    1fb8:	00000133 	andeq	r0, r0, r3, lsr r1
    1fbc:	92400305 	subls	r0, r0, #335544320	; 0x14000000
    1fc0:	ea1a0000 	b	681fc8 <__bss_end__+0x6787b0>
    1fc4:	01000006 	tsteq	r0, r6
    1fc8:	0133010c 	teqeq	r3, ip, lsl #2
    1fcc:	03050000 	movweq	r0, #20480	; 0x5000
    1fd0:	00009258 	andeq	r9, r0, r8, asr r2
    1fd4:	0006f11a 	andeq	pc, r6, sl, lsl r1	; <UNPREDICTABLE>
    1fd8:	010d0100 	mrseq	r0, (UNDEF: 29)
    1fdc:	00000133 	andeq	r0, r0, r3, lsr r1
    1fe0:	925c0305 	subsls	r0, ip, #335544320	; 0x14000000
    1fe4:	8c1a0000 	ldchi	0, cr0, [sl], {-0}
    1fe8:	01000006 	tsteq	r0, r6
    1fec:	0133010f 	teqeq	r3, pc, lsl #2
    1ff0:	03050000 	movweq	r0, #20480	; 0x5000
    1ff4:	00009244 	andeq	r9, r0, r4, asr #4
    1ff8:	0006931a 	andeq	r9, r6, sl, lsl r3
    1ffc:	01100100 	tsteq	r0, r0, lsl #2
    2000:	00000133 	andeq	r0, r0, r3, lsr r1
    2004:	92480305 	subls	r0, r8, #335544320	; 0x14000000
    2008:	041a0000 	ldreq	r0, [sl], #-0
    200c:	01000007 	tsteq	r0, r7
    2010:	01330112 	teqeq	r3, r2, lsl r1
    2014:	03050000 	movweq	r0, #20480	; 0x5000
    2018:	00009250 	andeq	r9, r0, r0, asr r2
    201c:	00070b1a 	andeq	r0, r7, sl, lsl fp
    2020:	01130100 	tsteq	r3, r0, lsl #2
    2024:	00000133 	andeq	r0, r0, r3, lsr r1
    2028:	92540305 	subsls	r0, r4, #335544320	; 0x14000000
    202c:	af1a0000 	svcge	0x001a0000
    2030:	01000005 	tsteq	r0, r5
    2034:	01330115 	teqeq	r3, r5, lsl r1
    2038:	03050000 	movweq	r0, #20480	; 0x5000
    203c:	0000924c 	andeq	r9, r0, ip, asr #4
    2040:	0007231b 	andeq	r2, r7, fp, lsl r3
    2044:	2c200100 	stfcss	f0, [r0], #-0
    2048:	56000000 	strpl	r0, [r0], -r0
    204c:	1c000008 	stcne	0, cr0, [r0], {8}
    2050:	00000856 	andeq	r0, r0, r6, asr r8
    2054:	5c040d00 	stcpl	13, cr0, [r4], {-0}
    2058:	1d000008 	stcne	0, cr0, [r0, #-32]	; 0xffffffe0
    205c:	00000861 	andeq	r0, r0, r1, ror #16
    2060:	02d31f1e 	sbcseq	r1, r3, #30, 30	; 0x78
    2064:	1e010000 	cdpne	0, 0, cr0, cr1, cr0, {0}
    2068:	00000878 	andeq	r0, r0, r8, ror r8
    206c:	0008781c 	andeq	r7, r8, ip, lsl r8
    2070:	002c1c00 	eoreq	r1, ip, r0, lsl #24
    2074:	0d000000 	stceq	0, cr0, [r0, #-0]
    2078:	00086104 	andeq	r6, r8, r4, lsl #2
    207c:	02bd2000 	adcseq	r2, sp, #0
    2080:	8a030000 	bhi	c2088 <__bss_end__+0xb8870>
    2084:	0003ff00 	andeq	pc, r3, r0, lsl #30
    2088:	2e000400 	cfcpyscs	mvf0, mvf0
    208c:	0400000c 	streq	r0, [r0], #-12
    2090:	00031501 	andeq	r1, r3, r1, lsl #10
    2094:	08950100 	ldmeq	r5, {r8}
    2098:	03800000 	orreq	r0, r0, #0
    209c:	900c0000 	andls	r0, ip, r0
    20a0:	01540000 	cmpeq	r4, r0
    20a4:	09ed0000 	stmibeq	sp!, {}^	; <UNPREDICTABLE>
    20a8:	04020000 	streq	r0, [r2], #-0
    20ac:	746e6905 	strbtvc	r6, [lr], #-2309	; 0x905
    20b0:	07040300 	streq	r0, [r4, -r0, lsl #6]
    20b4:	00000042 	andeq	r0, r0, r2, asr #32
    20b8:	ce060103 	adfgts	f0, f6, f3
    20bc:	03000000 	movweq	r0, #0
    20c0:	01790502 	cmneq	r9, r2, lsl #10
    20c4:	04030000 	streq	r0, [r3], #-0
    20c8:	00000505 	andeq	r0, r0, r5, lsl #10
    20cc:	05080300 	streq	r0, [r8, #-768]	; 0x300
    20d0:	00000000 	andeq	r0, r0, r0
    20d4:	cc080103 	stfgts	f0, [r8], {3}
    20d8:	03000000 	movweq	r0, #0
    20dc:	00f90702 	rscseq	r0, r9, r2, lsl #14
    20e0:	04030000 	streq	r0, [r3], #-0
    20e4:	00003d07 	andeq	r3, r0, r7, lsl #26
    20e8:	07080300 	streq	r0, [r8, -r0, lsl #6]
    20ec:	00000038 	andeq	r0, r0, r8, lsr r0
    20f0:	83070403 	movwhi	r0, #29699	; 0x7403
    20f4:	03000001 	movweq	r0, #1
    20f8:	00d50801 	sbcseq	r0, r5, r1, lsl #16
    20fc:	01040000 	mrseq	r0, (UNDEF: 4)
    2100:	00b20c02 	adcseq	r0, r2, r2, lsl #24
    2104:	c9050000 	stmdbgt	r5, {}	; <UNPREDICTABLE>
    2108:	00000005 	andeq	r0, r0, r5
    210c:	00071205 	andeq	r1, r7, r5, lsl #4
    2110:	4b050100 	blmi	142518 <__bss_end__+0x138d00>
    2114:	04000007 	streq	r0, [r0], #-7
    2118:	00075a05 	andeq	r5, r7, r5, lsl #20
    211c:	69050500 	stmdbvs	r5, {r8, sl}
    2120:	06000007 	streq	r0, [r0], -r7
    2124:	00077805 	andeq	r7, r7, r5, lsl #16
    2128:	87050700 	strhi	r0, [r5, -r0, lsl #14]
    212c:	03000007 	movweq	r0, #7
    2130:	00079605 	andeq	r9, r7, r5, lsl #12
    2134:	06000200 	streq	r0, [r0], -r0, lsl #4
    2138:	0000073f 	andeq	r0, r0, pc, lsr r7
    213c:	00791502 	rsbseq	r1, r9, r2, lsl #10
    2140:	e2070000 	and	r0, r7, #0
    2144:	01000000 	mrseq	r0, (UNDEF: 0)
    2148:	00900c37 	addseq	r0, r0, r7, lsr ip
    214c:	00009c00 	andeq	r9, r0, r0, lsl #24
    2150:	c39c0100 	orrsgt	r0, ip, #0, 2
    2154:	08000001 	stmdaeq	r0, {r0}
    2158:	00009014 	andeq	r9, r0, r4, lsl r0
    215c:	000003a8 	andeq	r0, r0, r8, lsr #7
    2160:	00902009 	addseq	r2, r0, r9
    2164:	0003af00 	andeq	sl, r3, r0, lsl #30
    2168:	0000f300 	andeq	pc, r0, r0, lsl #6
    216c:	51010a00 	tstpl	r1, r0, lsl #20
    2170:	010a3201 	tsteq	sl, r1, lsl #4
    2174:	003e0150 	eorseq	r0, lr, r0, asr r1
    2178:	00902c09 	addseq	r2, r0, r9, lsl #24
    217c:	0003af00 	andeq	sl, r3, r0, lsl #30
    2180:	00010b00 	andeq	r0, r1, r0, lsl #22
    2184:	51010a00 	tstpl	r1, r0, lsl #20
    2188:	010a3201 	tsteq	sl, r1, lsl #4
    218c:	003f0150 	eorseq	r0, pc, r0, asr r1	; <UNPREDICTABLE>
    2190:	00903008 	addseq	r3, r0, r8
    2194:	0003a800 	andeq	sl, r3, r0, lsl #16
    2198:	90400900 	subls	r0, r0, r0, lsl #18
    219c:	03c50000 	biceq	r0, r5, #0
    21a0:	01280000 	teqeq	r8, r0
    21a4:	010a0000 	mrseq	r0, (UNDEF: 10)
    21a8:	00750250 	rsbseq	r0, r5, r0, asr r2
    21ac:	904c0900 	subls	r0, ip, r0, lsl #18
    21b0:	03e60000 	mvneq	r0, #0
    21b4:	013c0000 	teqeq	ip, r0
    21b8:	010a0000 	mrseq	r0, (UNDEF: 10)
    21bc:	00750250 	rsbseq	r0, r5, r0, asr r2
    21c0:	90500800 	subsls	r0, r0, r0, lsl #16
    21c4:	03a80000 			; <UNDEFINED> instruction: 0x03a80000
    21c8:	5c090000 	stcpl	0, cr0, [r9], {-0}
    21cc:	e6000090 			; <UNDEFINED> instruction: 0xe6000090
    21d0:	58000003 	stmdapl	r0, {r0, r1}
    21d4:	0a000001 	beq	21e0 <_start-0x5e20>
    21d8:	30015101 	andcc	r5, r1, r1, lsl #2
    21dc:	90680900 	rsbls	r0, r8, r0, lsl #18
    21e0:	03e60000 	mvneq	r0, #0
    21e4:	016b0000 	cmneq	fp, r0
    21e8:	010a0000 	mrseq	r0, (UNDEF: 10)
    21ec:	00300151 	eorseq	r0, r0, r1, asr r1
    21f0:	00907409 	addseq	r7, r0, r9, lsl #8
    21f4:	0003e600 	andeq	lr, r3, r0, lsl #12
    21f8:	00017e00 	andeq	r7, r1, r0, lsl #28
    21fc:	51010a00 	tstpl	r1, r0, lsl #20
    2200:	09003601 	stmdbeq	r0, {r0, r9, sl, ip, sp}
    2204:	00009080 	andeq	r9, r0, r0, lsl #1
    2208:	000003e6 	andeq	r0, r0, r6, ror #7
    220c:	00000191 	muleq	r0, r1, r1
    2210:	0151010a 	cmpeq	r1, sl, lsl #2
    2214:	8c090033 	stchi	0, cr0, [r9], {51}	; 0x33
    2218:	e6000090 			; <UNDEFINED> instruction: 0xe6000090
    221c:	a6000003 	strge	r0, [r0], -r3
    2220:	0a000001 	beq	222c <_start-0x5dd4>
    2224:	0a035101 	beq	d6630 <__bss_end__+0xcce18>
    2228:	0900010e 	stmdbeq	r0, {r1, r2, r3, r8}
    222c:	00009098 	muleq	r0, r8, r0
    2230:	000003e6 	andeq	r0, r0, r6, ror #7
    2234:	000001b9 			; <UNDEFINED> instruction: 0x000001b9
    2238:	0151010a 	cmpeq	r1, sl, lsl #2
    223c:	9c080033 	stcls	0, cr0, [r8], {51}	; 0x33
    2240:	a8000090 	stmdage	r0, {r4, r7}
    2244:	00000003 	andeq	r0, r0, r3
    2248:	0007e60b 	andeq	lr, r7, fp, lsl #12
    224c:	25570100 	ldrbcs	r0, [r7, #-256]	; 0x100
    2250:	a8000000 	stmdage	r0, {}	; <UNPREDICTABLE>
    2254:	1c000090 	stcne	0, cr0, [r0], {144}	; 0x90
    2258:	01000000 	mrseq	r0, (UNDEF: 0)
    225c:	0001e69c 	muleq	r1, ip, r6
    2260:	90b80800 	adcsls	r0, r8, r0, lsl #16
    2264:	03c50000 	biceq	r0, r5, #0
    2268:	0b000000 	bleq	2270 <_start-0x5d90>
    226c:	00000821 	andeq	r0, r0, r1, lsr #16
    2270:	00255d01 	eoreq	r5, r5, r1, lsl #26
    2274:	90c40000 	sbcls	r0, r4, r0
    2278:	00280000 	eoreq	r0, r8, r0
    227c:	9c010000 	stcls	0, cr0, [r1], {-0}
    2280:	00000212 	andeq	r0, r0, r2, lsl r2
    2284:	0090cc08 	addseq	ip, r0, r8, lsl #24
    2288:	0001c300 	andeq	ip, r1, r0, lsl #6
    228c:	90e00800 	rscls	r0, r0, r0, lsl #16
    2290:	03c50000 	biceq	r0, r5, #0
    2294:	0b000000 	bleq	229c <_start-0x5d64>
    2298:	0000083a 	andeq	r0, r0, sl, lsr r8
    229c:	00256401 	eoreq	r6, r5, r1, lsl #8
    22a0:	90ec0000 	rscls	r0, ip, r0
    22a4:	001c0000 	andseq	r0, ip, r0
    22a8:	9c010000 	stcls	0, cr0, [r1], {-0}
    22ac:	00000235 	andeq	r0, r0, r5, lsr r2
    22b0:	0090fc08 	addseq	pc, r0, r8, lsl #24
    22b4:	0003c500 	andeq	ip, r3, r0, lsl #10
    22b8:	8b070000 	blhi	1c22c0 <__bss_end__+0x1b8aa8>
    22bc:	01000008 	tsteq	r0, r8
    22c0:	0091086a 	addseq	r0, r1, sl, ror #16
    22c4:	00002c00 	andeq	r2, r0, r0, lsl #24
    22c8:	719c0100 	orrsvc	r0, ip, r0, lsl #2
    22cc:	0c000002 	stceq	0, cr0, [r0], {2}
    22d0:	6a010063 	bvs	42464 <__bss_end__+0x38c4c>
    22d4:	0000002c 	andeq	r0, r0, ip, lsr #32
    22d8:	000016d1 	ldrdeq	r1, [r0], -r1	; <UNPREDICTABLE>
    22dc:	00911408 	addseq	r1, r1, r8, lsl #8
    22e0:	00021200 	andeq	r1, r2, r0, lsl #4
    22e4:	912c0d00 	teqls	ip, r0, lsl #26
    22e8:	03e60000 	mvneq	r0, #0
    22ec:	010a0000 	mrseq	r0, (UNDEF: 10)
    22f0:	00740251 	rsbseq	r0, r4, r1, asr r2
    22f4:	040b0000 	streq	r0, [fp], #-0
    22f8:	01000008 	tsteq	r0, r8
    22fc:	00002574 	andeq	r2, r0, r4, ror r5
    2300:	00913400 	addseq	r3, r1, r0, lsl #8
    2304:	00000c00 	andeq	r0, r0, r0, lsl #24
    2308:	949c0100 	ldrls	r0, [ip], #256	; 0x100
    230c:	08000002 	stmdaeq	r0, {r1}
    2310:	0000913c 	andeq	r9, r0, ip, lsr r1
    2314:	000001c3 	andeq	r0, r0, r3, asr #3
    2318:	08c10b00 	stmiaeq	r1, {r8, r9, fp}^
    231c:	78010000 	stmdavc	r1, {}	; <UNPREDICTABLE>
    2320:	00000025 	andeq	r0, r0, r5, lsr #32
    2324:	00009140 	andeq	r9, r0, r0, asr #2
    2328:	00000020 	andeq	r0, r0, r0, lsr #32
    232c:	02c09c01 	sbceq	r9, r0, #256	; 0x100
    2330:	48080000 	stmdami	r8, {}	; <UNPREDICTABLE>
    2334:	71000091 	swpvc	r0, r1, [r0]	; <UNPREDICTABLE>
    2338:	08000002 	stmdaeq	r0, {r1}
    233c:	00009154 	andeq	r9, r0, r4, asr r1
    2340:	000001e6 	andeq	r0, r0, r6, ror #3
    2344:	08540e00 	ldmdaeq	r4, {r9, sl, fp}^
    2348:	16010000 	strne	r0, [r1], -r0
    234c:	000002d1 	ldrdeq	r0, [r0], -r1
    2350:	92a00305 	adcls	r0, r0, #335544320	; 0x14000000
    2354:	040f0000 	streq	r0, [pc], #-0	; 235c <_start-0x5ca4>
    2358:	000002d7 	ldrdeq	r0, [r0], -r7
    235c:	00002c10 	andeq	r2, r0, r0, lsl ip
    2360:	08480e00 	stmdaeq	r8, {r9, sl, fp}^
    2364:	17010000 	strne	r0, [r1, -r0]
    2368:	000002d1 	ldrdeq	r0, [r0], -r1
    236c:	92700305 	rsbsls	r0, r0, #335544320	; 0x14000000
    2370:	c90e0000 	stmdbgt	lr, {}	; <UNPREDICTABLE>
    2374:	01000007 	tsteq	r0, r7
    2378:	0002d11a 	andeq	sp, r2, sl, lsl r1
    237c:	8c030500 	cfstr32hi	mvfx0, [r3], {-0}
    2380:	0e000092 	mcreq	0, 0, r0, cr0, cr2, {4}
    2384:	00000812 	andeq	r0, r0, r2, lsl r8
    2388:	02d11b01 	sbcseq	r1, r1, #1024	; 0x400
    238c:	03050000 	movweq	r0, #20480	; 0x5000
    2390:	00009278 	andeq	r9, r0, r8, ror r2
    2394:	00082b0e 	andeq	r2, r8, lr, lsl #22
    2398:	d11c0100 	tstle	ip, r0, lsl #2
    239c:	05000002 	streq	r0, [r0, #-2]
    23a0:	00927c03 	addseq	r7, r2, r3, lsl #24
    23a4:	08a30e00 	stmiaeq	r3!, {r9, sl, fp}
    23a8:	1d010000 	stcne	0, cr0, [r1, #-0]
    23ac:	000002d1 	ldrdeq	r0, [r0], -r1
    23b0:	92800305 	addls	r0, r0, #335544320	; 0x14000000
    23b4:	ba0e0000 	blt	3823bc <__bss_end__+0x378ba4>
    23b8:	01000007 	tsteq	r0, r7
    23bc:	0002d11e 	andeq	sp, r2, lr, lsl r1
    23c0:	9c030500 	cfstr32ls	mvfx0, [r3], {-0}
    23c4:	0e000092 	mcreq	0, 0, r0, cr0, cr2, {4}
    23c8:	000008b2 			; <UNDEFINED> instruction: 0x000008b2
    23cc:	02d11f01 	sbcseq	r1, r1, #1, 30
    23d0:	03050000 	movweq	r0, #20480	; 0x5000
    23d4:	00009288 	andeq	r9, r0, r8, lsl #5
    23d8:	0007d70e 	andeq	sp, r7, lr, lsl #14
    23dc:	d1200100 	teqle	r0, r0, lsl #2
    23e0:	05000002 	streq	r0, [r0, #-2]
    23e4:	00929803 	addseq	r9, r2, r3, lsl #16
    23e8:	087c0e00 	ldmdaeq	ip!, {r9, sl, fp}^
    23ec:	21010000 	mrscs	r0, (UNDEF: 1)
    23f0:	000002d1 	ldrdeq	r0, [r0], -r1
    23f4:	92940305 	addsls	r0, r4, #335544320	; 0x14000000
    23f8:	f40e0000 	vst4.8	{d0-d3}, [lr], r0
    23fc:	01000007 	tsteq	r0, r7
    2400:	0002d122 	andeq	sp, r2, r2, lsr #2
    2404:	74030500 	strvc	r0, [r3], #-1280	; 0x500
    2408:	0e000092 	mcreq	0, 0, r0, cr0, cr2, {4}
    240c:	0000086c 	andeq	r0, r0, ip, ror #16
    2410:	02d12301 	sbcseq	r2, r1, #67108864	; 0x4000000
    2414:	03050000 	movweq	r0, #20480	; 0x5000
    2418:	00009290 	muleq	r0, r0, r2
    241c:	00085c0e 	andeq	r5, r8, lr, lsl #24
    2420:	d1240100 	teqle	r4, r0, lsl #2
    2424:	05000002 	streq	r0, [r0, #-2]
    2428:	00928403 	addseq	r8, r2, r3, lsl #8
    242c:	02bd1100 	adcseq	r1, sp, #0, 2
    2430:	8a030000 	bhi	c2438 <__bss_end__+0xb8c20>
    2434:	00067a12 	andeq	r7, r6, r2, lsl sl
    2438:	c5190200 	ldrgt	r0, [r9, #-512]	; 0x200
    243c:	13000003 	movwne	r0, #3
    2440:	0000002c 	andeq	r0, r0, ip, lsr #32
    2444:	0000b213 	andeq	fp, r0, r3, lsl r2
    2448:	23140000 	tstcs	r4, #0
    244c:	03000007 	movweq	r0, #7
    2450:	00002ca9 	andeq	r2, r0, r9, lsr #25
    2454:	0003da00 	andeq	sp, r3, r0, lsl #20
    2458:	03da1300 	bicseq	r1, sl, #0, 6
    245c:	0f000000 	svceq	0x00000000
    2460:	0003e004 	andeq	lr, r3, r4
    2464:	03e51500 	mvneq	r1, #0, 10
    2468:	12160000 	andsne	r0, r6, #0
    246c:	000002d3 	ldrdeq	r0, [r0], -r3
    2470:	03fc9d03 	mvnseq	r9, #3, 26	; 0xc0
    2474:	fc130000 	ldc2	0, cr0, [r3], {-0}
    2478:	13000003 	movwne	r0, #3
    247c:	0000002c 	andeq	r0, r0, ip, lsr #32
    2480:	e5040f00 	str	r0, [r4, #-3840]	; 0xf00
    2484:	00000003 	andeq	r0, r0, r3
    2488:	00000113 	andeq	r0, r0, r3, lsl r1
    248c:	0d5c0004 	ldcleq	0, cr0, [ip, #-16]
    2490:	01040000 	mrseq	r0, (UNDEF: 4)
    2494:	00000315 	andeq	r0, r0, r5, lsl r3
    2498:	0008e201 	andeq	lr, r8, r1, lsl #4
    249c:	00038000 	andeq	r8, r3, r0
    24a0:	0091c400 	addseq	ip, r1, r0, lsl #8
    24a4:	00003c00 	andeq	r3, r0, r0, lsl #24
    24a8:	000af200 	andeq	pc, sl, r0, lsl #4
    24ac:	05040200 	streq	r0, [r4, #-512]	; 0x200
    24b0:	00746e69 	rsbseq	r6, r4, r9, ror #28
    24b4:	42070403 	andmi	r0, r7, #50331648	; 0x3000000
    24b8:	03000000 	movweq	r0, #0
    24bc:	00ce0601 	sbceq	r0, lr, r1, lsl #12
    24c0:	02030000 	andeq	r0, r3, #0
    24c4:	00017905 	andeq	r7, r1, r5, lsl #18
    24c8:	05040300 	streq	r0, [r4, #-768]	; 0x300
    24cc:	00000005 	andeq	r0, r0, r5
    24d0:	00050803 	andeq	r0, r5, r3, lsl #16
    24d4:	03000000 	movweq	r0, #0
    24d8:	00cc0801 	sbceq	r0, ip, r1, lsl #16
    24dc:	02030000 	andeq	r0, r3, #0
    24e0:	0000f907 	andeq	pc, r0, r7, lsl #18
    24e4:	07040300 	streq	r0, [r4, -r0, lsl #6]
    24e8:	0000003d 	andeq	r0, r0, sp, lsr r0
    24ec:	38070803 	stmdacc	r7, {r0, r1, fp}
    24f0:	03000000 	movweq	r0, #0
    24f4:	01830704 	orreq	r0, r3, r4, lsl #14
    24f8:	01030000 	mrseq	r0, (UNDEF: 3)
    24fc:	0000d508 	andeq	sp, r0, r8, lsl #10
    2500:	08d10400 	ldmeq	r1, {sl}^
    2504:	03010000 	movweq	r0, #4096	; 0x1000
    2508:	00000025 	andeq	r0, r0, r5, lsr #32
    250c:	000091c4 	andeq	r9, r0, r4, asr #3
    2510:	00000014 	andeq	r0, r0, r4, lsl r0
    2514:	00b09c01 	adcseq	r9, r0, r1, lsl #24
    2518:	63050000 	movwvs	r0, #20480	; 0x5000
    251c:	25030100 	strcs	r0, [r3, #-256]	; 0x100
    2520:	ef000000 	svc	0x00000000
    2524:	06000016 			; <UNDEFINED> instruction: 0x06000016
    2528:	000091d0 	ldrdeq	r9, [r0], -r0
    252c:	00000109 	andeq	r0, r0, r9, lsl #2
    2530:	02500107 	subseq	r0, r0, #-1073741823	; 0xc0000001
    2534:	00000074 	andeq	r0, r0, r4, ror r0
    2538:	00045b08 	andeq	r5, r4, r8, lsl #22
    253c:	d8080100 	stmdale	r8, {r8}
    2540:	18000091 	stmdane	r0, {r0, r4, r7}
    2544:	01000000 	mrseq	r0, (UNDEF: 0)
    2548:	08f1099c 	ldmeq	r1!, {r2, r3, r4, r7, r8, fp}^
    254c:	0b010000 	bleq	42554 <__bss_end__+0x38d3c>
    2550:	000091f0 	strdeq	r9, [r0], -r0
    2554:	00000010 	andeq	r0, r0, r0, lsl r0
    2558:	00e39c01 	rsceq	r9, r3, r1, lsl #24
    255c:	660a0000 	strvs	r0, [sl], -r0
    2560:	0b010070 	bleq	42728 <__bss_end__+0x38f10>
    2564:	000000f2 	strdeq	r0, [r0], -r2
    2568:	0b005001 	bleq	16574 <__bss_end__+0xcd5c>
    256c:	00000025 	andeq	r0, r0, r5, lsr #32
    2570:	000000f2 	strdeq	r0, [r0], -r2
    2574:	0000250c 	andeq	r2, r0, ip, lsl #10
    2578:	040d0000 	streq	r0, [sp], #-0
    257c:	000000e3 	andeq	r0, r0, r3, ror #1
    2580:	0003e80e 	andeq	lr, r3, lr, lsl #16
    2584:	f2060100 	vrhadd.s8	d0, d6, d0
    2588:	05000000 	streq	r0, [r0, #-0]
    258c:	0092a403 	addseq	sl, r2, r3, lsl #8
    2590:	088b0f00 	stmeq	fp, {r8, r9, sl, fp}
    2594:	3c020000 	stccc	0, cr0, [r2], {-0}
    2598:	00002c0c 	andeq	r2, r0, ip, lsl #24
    259c:	Address 0x000000000000259c is out of bounds.


Disassembly of section .debug_abbrev:

00000000 <.debug_abbrev>:
   0:	25011101 	strcs	r1, [r1, #-257]	; 0x101
   4:	030b130e 	movweq	r1, #45838	; 0xb30e
   8:	110e1b0e 	tstne	lr, lr, lsl #22
   c:	10061201 	andne	r1, r6, r1, lsl #4
  10:	02000017 	andeq	r0, r0, #23
  14:	0b0b0024 	bleq	2c00ac <__bss_end__+0x2b6894>
  18:	08030b3e 	stmdaeq	r3, {r1, r2, r3, r4, r5, r8, r9, fp}
  1c:	24030000 	strcs	r0, [r3], #-0
  20:	3e0b0b00 	vmlacc.f64	d0, d11, d0
  24:	000e030b 	andeq	r0, lr, fp, lsl #6
  28:	000f0400 	andeq	r0, pc, r0, lsl #8
  2c:	13490b0b 	movtne	r0, #39691	; 0x9b0b
  30:	26050000 	strcs	r0, [r5], -r0
  34:	00134900 	andseq	r4, r3, r0, lsl #18
  38:	01130600 	tsteq	r3, r0, lsl #12
  3c:	0b3a0b0b 	bleq	e82c70 <__bss_end__+0xe79458>
  40:	13010b3b 	movwne	r0, #6971	; 0x1b3b
  44:	0d070000 	stceq	0, cr0, [r7, #-0]
  48:	3a0e0300 	bcc	380c50 <__bss_end__+0x377438>
  4c:	490b3b0b 	stmdbmi	fp, {r0, r1, r3, r8, r9, fp, ip, sp}
  50:	000b3813 	andeq	r3, fp, r3, lsl r8
  54:	00160800 	andseq	r0, r6, r0, lsl #16
  58:	0b3a0e03 	bleq	e8386c <__bss_end__+0xe7a054>
  5c:	13490b3b 	movtne	r0, #39739	; 0x9b3b
  60:	2e090000 	cdpcs	0, 0, cr0, cr9, cr0, {0}
  64:	03193f01 	tsteq	r9, #1, 30
  68:	3b0b3a0e 	blcc	2ce8a8 <__bss_end__+0x2c5090>
  6c:	1119270b 	tstne	r9, fp, lsl #14
  70:	40061201 	andmi	r1, r6, r1, lsl #4
  74:	19429718 	stmdbne	r2, {r3, r4, r8, r9, sl, ip, pc}^
  78:	00001301 	andeq	r1, r0, r1, lsl #6
  7c:	0300340a 	movweq	r3, #1034	; 0x40a
  80:	3b0b3a08 	blcc	2ce8a8 <__bss_end__+0x2c5090>
  84:	0213490b 	andseq	r4, r3, #180224	; 0x2c000
  88:	0b000018 	bleq	f0 <_start-0x7f10>
  8c:	0111010b 	tsteq	r1, fp, lsl #2
  90:	13010612 	movwne	r0, #5650	; 0x1612
  94:	340c0000 	strcc	r0, [ip], #-0
  98:	3a0e0300 	bcc	380ca0 <__bss_end__+0x377488>
  9c:	490b3b0b 	stmdbmi	fp, {r0, r1, r3, r8, r9, fp, ip, sp}
  a0:	00170213 	andseq	r0, r7, r3, lsl r2
  a4:	00340d00 	eorseq	r0, r4, r0, lsl #26
  a8:	0b3a0803 	bleq	e820bc <__bss_end__+0xe788a4>
  ac:	13490b3b 	movtne	r0, #39739	; 0x9b3b
  b0:	00001702 	andeq	r1, r0, r2, lsl #14
  b4:	0182890e 	orreq	r8, r2, lr, lsl #18
  b8:	31011101 	tstcc	r1, r1, lsl #2
  bc:	00130113 	andseq	r0, r3, r3, lsl r1
  c0:	828a0f00 	addhi	r0, sl, #0, 30
  c4:	18020001 	stmdane	r2, {r0}
  c8:	00184291 	mulseq	r8, r1, r2
  cc:	82891000 	addhi	r1, r9, #0
  d0:	01110101 	tsteq	r1, r1, lsl #2
  d4:	00001331 	andeq	r1, r0, r1, lsr r3
  d8:	01828911 	orreq	r8, r2, r1, lsl r9
  dc:	31011100 	mrscc	r1, (UNDEF: 17)
  e0:	12000013 	andne	r0, r0, #19
  e4:	0e030034 	mcreq	0, 0, r0, cr3, cr4, {1}
  e8:	0b3b0b3a 	bleq	ec2dd8 <__bss_end__+0xeb95c0>
  ec:	051c1349 	ldreq	r1, [ip, #-841]	; 0x349
  f0:	2e130000 	cdpcs	0, 1, cr0, cr3, cr0, {0}
  f4:	03193f01 	tsteq	r9, #1, 30
  f8:	3b0b3a0e 	blcc	2ce938 <__bss_end__+0x2c5120>
  fc:	4919270b 	ldmdbmi	r9, {r0, r1, r3, r8, r9, sl, sp}
 100:	01193c13 	tsteq	r9, r3, lsl ip
 104:	14000013 	strne	r0, [r0], #-19
 108:	13490005 	movtne	r0, #36869	; 0x9005
 10c:	18150000 	ldmdane	r5, {}	; <UNPREDICTABLE>
 110:	16000000 	strne	r0, [r0], -r0
 114:	193f012e 	ldmdbne	pc!, {r1, r2, r3, r5, r8}	; <UNPREDICTABLE>
 118:	0b3a0e03 	bleq	e8392c <__bss_end__+0xe7a114>
 11c:	19270b3b 	stmdbne	r7!, {r0, r1, r3, r4, r5, r8, r9, fp}
 120:	1301193c 	movwne	r1, #6460	; 0x193c
 124:	2e170000 	cdpcs	0, 1, cr0, cr7, cr0, {0}
 128:	03193f00 	tsteq	r9, #0, 30
 12c:	3b0b3a0e 	blcc	2ce96c <__bss_end__+0x2c5154>
 130:	3c19270b 	ldccc	7, cr2, [r9], {11}
 134:	00000019 	andeq	r0, r0, r9, lsl r0
 138:	25011101 	strcs	r1, [r1, #-257]	; 0x101
 13c:	030b130e 	movweq	r1, #45838	; 0xb30e
 140:	110e1b0e 	tstne	lr, lr, lsl #22
 144:	10061201 	andne	r1, r6, r1, lsl #4
 148:	02000017 	andeq	r0, r0, #23
 14c:	0b0b0024 	bleq	2c01e4 <__bss_end__+0x2b69cc>
 150:	08030b3e 	stmdaeq	r3, {r1, r2, r3, r4, r5, r8, r9, fp}
 154:	24030000 	strcs	r0, [r3], #-0
 158:	3e0b0b00 	vmlacc.f64	d0, d11, d0
 15c:	000e030b 	andeq	r0, lr, fp, lsl #6
 160:	01130400 	tsteq	r3, r0, lsl #8
 164:	0b3a0b0b 	bleq	e82d98 <__bss_end__+0xe79580>
 168:	13010b3b 	movwne	r0, #6971	; 0x1b3b
 16c:	0d050000 	stceq	0, cr0, [r5, #-0]
 170:	3a0e0300 	bcc	380d78 <__bss_end__+0x377560>
 174:	490b3b0b 	stmdbmi	fp, {r0, r1, r3, r8, r9, fp, ip, sp}
 178:	000b3813 	andeq	r3, fp, r3, lsl r8
 17c:	00160600 	andseq	r0, r6, r0, lsl #12
 180:	0b3a0e03 	bleq	e83994 <__bss_end__+0xe7a17c>
 184:	13490b3b 	movtne	r0, #39739	; 0x9b3b
 188:	2e070000 	cdpcs	0, 0, cr0, cr7, cr0, {0}
 18c:	03193f01 	tsteq	r9, #1, 30
 190:	3b0b3a0e 	blcc	2ce9d0 <__bss_end__+0x2c51b8>
 194:	4919270b 	ldmdbmi	r9, {r0, r1, r3, r8, r9, sl, sp}
 198:	12011113 	andne	r1, r1, #-1073741820	; 0xc0000004
 19c:	97184006 	ldrls	r4, [r8, -r6]
 1a0:	13011942 	movwne	r1, #6466	; 0x1942
 1a4:	05080000 	streq	r0, [r8, #-0]
 1a8:	3a080300 	bcc	200db0 <__bss_end__+0x1f7598>
 1ac:	490b3b0b 	stmdbmi	fp, {r0, r1, r3, r8, r9, fp, ip, sp}
 1b0:	00170213 	andseq	r0, r7, r3, lsl r2
 1b4:	00050900 	andeq	r0, r5, r0, lsl #18
 1b8:	0b3a0e03 	bleq	e839cc <__bss_end__+0xe7a1b4>
 1bc:	13490b3b 	movtne	r0, #39739	; 0x9b3b
 1c0:	00001702 	andeq	r1, r0, r2, lsl #14
 1c4:	11010b0a 	tstne	r1, sl, lsl #22
 1c8:	00061201 	andeq	r1, r6, r1, lsl #4
 1cc:	00340b00 	eorseq	r0, r4, r0, lsl #22
 1d0:	0b3a0e03 	bleq	e839e4 <__bss_end__+0xe7a1cc>
 1d4:	13490b3b 	movtne	r0, #39739	; 0x9b3b
 1d8:	00001702 	andeq	r1, r0, r2, lsl #14
 1dc:	0182890c 	orreq	r8, r2, ip, lsl #18
 1e0:	31011101 	tstcc	r1, r1, lsl #2
 1e4:	00130113 	andseq	r0, r3, r3, lsl r1
 1e8:	828a0d00 	addhi	r0, sl, #0, 26
 1ec:	18020001 	stmdane	r2, {r0}
 1f0:	00184291 	mulseq	r8, r1, r2
 1f4:	82890e00 	addhi	r0, r9, #0, 28
 1f8:	01110001 	tsteq	r1, r1
 1fc:	00001331 	andeq	r1, r0, r1, lsr r3
 200:	0300340f 	movweq	r3, #1039	; 0x40f
 204:	3b0b3a08 	blcc	2cea2c <__bss_end__+0x2c5214>
 208:	0213490b 	andseq	r4, r3, #180224	; 0x2c000
 20c:	10000017 	andne	r0, r0, r7, lsl r0
 210:	01018289 	smlabbeq	r1, r9, r2, r8
 214:	13310111 	teqne	r1, #1073741828	; 0x40000004
 218:	0f110000 	svceq	0x00110000
 21c:	490b0b00 	stmdbmi	fp, {r8, r9, fp}
 220:	12000013 	andne	r0, r0, #19
 224:	0e030034 	mcreq	0, 0, r0, cr3, cr4, {1}
 228:	0b3b0b3a 	bleq	ec2f18 <__bss_end__+0xeb9700>
 22c:	193f1349 	ldmdbne	pc!, {r0, r3, r6, r8, r9, ip}	; <UNPREDICTABLE>
 230:	00001802 	andeq	r1, r0, r2, lsl #16
 234:	3f012e13 	svccc	0x00012e13
 238:	3a0e0319 	bcc	380ea4 <__bss_end__+0x37768c>
 23c:	270b3b0b 	strcs	r3, [fp, -fp, lsl #22]
 240:	3c134919 	ldccc	9, cr4, [r3], {25}
 244:	00130119 	andseq	r0, r3, r9, lsl r1
 248:	00051400 	andeq	r1, r5, r0, lsl #8
 24c:	00001349 	andeq	r1, r0, r9, asr #6
 250:	3f002e15 	svccc	0x00002e15
 254:	3a0e0319 	bcc	380ec0 <__bss_end__+0x3776a8>
 258:	270b3b0b 	strcs	r3, [fp, -fp, lsl #22]
 25c:	3c134919 	ldccc	9, cr4, [r3], {25}
 260:	16000019 			; <UNDEFINED> instruction: 0x16000019
 264:	193f012e 	ldmdbne	pc!, {r1, r2, r3, r5, r8}	; <UNPREDICTABLE>
 268:	0b3a0e03 	bleq	e83a7c <__bss_end__+0xe7a264>
 26c:	19270b3b 	stmdbne	r7!, {r0, r1, r3, r4, r5, r8, r9, fp}
 270:	1301193c 	movwne	r1, #6460	; 0x193c
 274:	2e170000 	cdpcs	0, 1, cr0, cr7, cr0, {0}
 278:	03193f01 	tsteq	r9, #1, 30
 27c:	3b0b3a0e 	blcc	2ceabc <__bss_end__+0x2c52a4>
 280:	3c19270b 	ldccc	7, cr2, [r9], {11}
 284:	00000019 	andeq	r0, r0, r9, lsl r0
 288:	25011101 	strcs	r1, [r1, #-257]	; 0x101
 28c:	030b130e 	movweq	r1, #45838	; 0xb30e
 290:	110e1b0e 	tstne	lr, lr, lsl #22
 294:	10061201 	andne	r1, r6, r1, lsl #4
 298:	02000017 	andeq	r0, r0, #23
 29c:	0b0b0024 	bleq	2c0334 <__bss_end__+0x2b6b1c>
 2a0:	08030b3e 	stmdaeq	r3, {r1, r2, r3, r4, r5, r8, r9, fp}
 2a4:	24030000 	strcs	r0, [r3], #-0
 2a8:	3e0b0b00 	vmlacc.f64	d0, d11, d0
 2ac:	000e030b 	andeq	r0, lr, fp, lsl #6
 2b0:	012e0400 	teqeq	lr, r0, lsl #8
 2b4:	0e03193f 	mcreq	9, 0, r1, cr3, cr15, {1}
 2b8:	0b3b0b3a 	bleq	ec2fa8 <__bss_end__+0xeb9790>
 2bc:	01111927 	tsteq	r1, r7, lsr #18
 2c0:	18400612 	stmdane	r0, {r1, r4, r9, sl}^
 2c4:	01194297 			; <UNDEFINED> instruction: 0x01194297
 2c8:	05000013 	streq	r0, [r0, #-19]
 2cc:	08030005 	stmdaeq	r3, {r0, r2}
 2d0:	0b3b0b3a 	bleq	ec2fc0 <__bss_end__+0xeb97a8>
 2d4:	17021349 	strne	r1, [r2, -r9, asr #6]
 2d8:	34060000 	strcc	r0, [r6], #-0
 2dc:	3a0e0300 	bcc	380ee4 <__bss_end__+0x3776cc>
 2e0:	490b3b0b 	stmdbmi	fp, {r0, r1, r3, r8, r9, fp, ip, sp}
 2e4:	00170213 	andseq	r0, r7, r3, lsl r2
 2e8:	00340700 	eorseq	r0, r4, r0, lsl #14
 2ec:	0b3a0e03 	bleq	e83b00 <__bss_end__+0xe7a2e8>
 2f0:	13490b3b 	movtne	r0, #39739	; 0x9b3b
 2f4:	00001802 	andeq	r1, r0, r2, lsl #16
 2f8:	01828908 	orreq	r8, r2, r8, lsl #18
 2fc:	31011100 	mrscc	r1, (UNDEF: 17)
 300:	09000013 	stmdbeq	r0, {r0, r1, r4}
 304:	01018289 	smlabbeq	r1, r9, r2, r8
 308:	13310111 	teqne	r1, #1073741828	; 0x40000004
 30c:	00001301 	andeq	r1, r0, r1, lsl #6
 310:	01828a0a 	orreq	r8, r2, sl, lsl #20
 314:	91180200 	tstls	r8, r0, lsl #4
 318:	00001842 	andeq	r1, r0, r2, asr #16
 31c:	0b000f0b 	bleq	3f50 <_start-0x40b0>
 320:	0013490b 	andseq	r4, r3, fp, lsl #18
 324:	00350c00 	eorseq	r0, r5, r0, lsl #24
 328:	00001349 	andeq	r1, r0, r9, asr #6
 32c:	0300340d 	movweq	r3, #1037	; 0x40d
 330:	3b0b3a0e 	blcc	2ceb70 <__bss_end__+0x2c5358>
 334:	3f13490b 	svccc	0x0013490b
 338:	00180219 	andseq	r0, r8, r9, lsl r2
 33c:	002e0e00 	eoreq	r0, lr, r0, lsl #28
 340:	0e03193f 	mcreq	9, 0, r1, cr3, cr15, {1}
 344:	0b3b0b3a 	bleq	ec3034 <__bss_end__+0xeb981c>
 348:	193c1927 	ldmdbne	ip!, {r0, r1, r2, r5, r8, fp, ip}
 34c:	2e0f0000 	cdpcs	0, 0, cr0, cr15, cr0, {0}
 350:	03193f01 	tsteq	r9, #1, 30
 354:	3b0b3a0e 	blcc	2ceb94 <__bss_end__+0x2c537c>
 358:	3c19270b 	ldccc	7, cr2, [r9], {11}
 35c:	00130119 	andseq	r0, r3, r9, lsl r1
 360:	00051000 	andeq	r1, r5, r0
 364:	00001349 	andeq	r1, r0, r9, asr #6
 368:	00003511 	andeq	r3, r0, r1, lsl r5
 36c:	012e1200 	teqeq	lr, r0, lsl #4
 370:	0e03193f 	mcreq	9, 0, r1, cr3, cr15, {1}
 374:	0b3b0b3a 	bleq	ec3064 <__bss_end__+0xeb984c>
 378:	193c1927 	ldmdbne	ip!, {r0, r1, r2, r5, r8, fp, ip}
 37c:	01000000 	mrseq	r0, (UNDEF: 0)
 380:	0e250111 	mcreq	1, 1, r0, cr5, cr1, {0}
 384:	0e030b13 	vmoveq.32	d3[0], r0
 388:	01110e1b 	tsteq	r1, fp, lsl lr
 38c:	17100612 			; <UNDEFINED> instruction: 0x17100612
 390:	16020000 	strne	r0, [r2], -r0
 394:	3a0e0300 	bcc	380f9c <__bss_end__+0x377784>
 398:	490b3b0b 	stmdbmi	fp, {r0, r1, r3, r8, r9, fp, ip, sp}
 39c:	03000013 	movweq	r0, #19
 3a0:	0e030113 	mcreq	1, 0, r0, cr3, cr3, {0}
 3a4:	0b3a0b0b 	bleq	e82fd8 <__bss_end__+0xe797c0>
 3a8:	13010b3b 	movwne	r0, #6971	; 0x1b3b
 3ac:	0d040000 	stceq	0, cr0, [r4, #-0]
 3b0:	490e0300 	stmdbmi	lr, {r8, r9}
 3b4:	340b3813 	strcc	r3, [fp], #-2067	; 0x813
 3b8:	05000019 	streq	r0, [r0, #-25]
 3bc:	0b0b000f 	bleq	2c0400 <__bss_end__+0x2b6be8>
 3c0:	24060000 	strcs	r0, [r6], #-0
 3c4:	3e0b0b00 	vmlacc.f64	d0, d11, d0
 3c8:	0008030b 	andeq	r0, r8, fp, lsl #6
 3cc:	00240700 	eoreq	r0, r4, r0, lsl #14
 3d0:	0b3e0b0b 	bleq	f83004 <__bss_end__+0xf797ec>
 3d4:	00000e03 	andeq	r0, r0, r3, lsl #28
 3d8:	0b000f08 	bleq	4000 <_start-0x4000>
 3dc:	0013490b 	andseq	r4, r3, fp, lsl #18
 3e0:	00260900 	eoreq	r0, r6, r0, lsl #18
 3e4:	00001349 	andeq	r1, r0, r9, asr #6
 3e8:	3f012e0a 	svccc	0x00012e0a
 3ec:	3a0e0319 	bcc	381058 <__bss_end__+0x377840>
 3f0:	270b3b0b 	strcs	r3, [fp, -fp, lsl #22]
 3f4:	11134919 	tstne	r3, r9, lsl r9
 3f8:	40061201 	andmi	r1, r6, r1, lsl #4
 3fc:	19429718 	stmdbne	r2, {r3, r4, r8, r9, sl, ip, pc}^
 400:	00001301 	andeq	r1, r0, r1, lsl #6
 404:	0300050b 	movweq	r0, #1291	; 0x50b
 408:	3b0b3a08 	blcc	2cec30 <__bss_end__+0x2c5418>
 40c:	0213490b 	andseq	r4, r3, #180224	; 0x2c000
 410:	0c000018 	stceq	0, cr0, [r0], {24}
 414:	00000018 	andeq	r0, r0, r8, lsl r0
 418:	0300340d 	movweq	r3, #1037	; 0x40d
 41c:	3b0b3a08 	blcc	2cec44 <__bss_end__+0x2c542c>
 420:	0213490b 	andseq	r4, r3, #180224	; 0x2c000
 424:	0e000018 	mcreq	0, 0, r0, cr0, cr8, {0}
 428:	0e030034 	mcreq	0, 0, r0, cr3, cr4, {1}
 42c:	0b3b0b3a 	bleq	ec311c <__bss_end__+0xeb9904>
 430:	18021349 	stmdane	r2, {r0, r3, r6, r8, r9, ip}
 434:	340f0000 	strcc	r0, [pc], #-0	; 43c <_start-0x7bc4>
 438:	3a080300 	bcc	201040 <__bss_end__+0x1f7828>
 43c:	490b3b0b 	stmdbmi	fp, {r0, r1, r3, r8, r9, fp, ip, sp}
 440:	00170213 	andseq	r0, r7, r3, lsl r2
 444:	82891000 	addhi	r1, r9, #0
 448:	01110101 	tsteq	r1, r1, lsl #2
 44c:	13011331 	movwne	r1, #4913	; 0x1331
 450:	8a110000 	bhi	440458 <__bss_end__+0x436c40>
 454:	02000182 	andeq	r0, r0, #-2147483616	; 0x80000020
 458:	18429118 	stmdane	r2, {r3, r4, r8, ip, pc}^
 45c:	89120000 	ldmdbhi	r2, {}	; <UNPREDICTABLE>
 460:	11010182 	smlabbne	r1, r2, r1, r0
 464:	13000001 	movwne	r0, #1
 468:	13490101 	movtne	r0, #37121	; 0x9101
 46c:	00001301 	andeq	r1, r0, r1, lsl #6
 470:	49002114 	stmdbmi	r0, {r2, r4, r8, sp}
 474:	00052f13 	andeq	r2, r5, r3, lsl pc
 478:	01151500 	tsteq	r5, r0, lsl #10
 47c:	13491927 	movtne	r1, #39207	; 0x9927
 480:	00001301 	andeq	r1, r0, r1, lsl #6
 484:	49000516 	stmdbmi	r0, {r1, r2, r4, r8, sl}
 488:	17000013 	smladne	r0, r3, r0, r0
 48c:	0e030034 	mcreq	0, 0, r0, cr3, cr4, {1}
 490:	0b3b0b3a 	bleq	ec3180 <__bss_end__+0xeb9968>
 494:	193f1349 	ldmdbne	pc!, {r0, r3, r6, r8, r9, ip}	; <UNPREDICTABLE>
 498:	0000193c 	andeq	r1, r0, ip, lsr r9
 49c:	3f012e18 	svccc	0x00012e18
 4a0:	3a0e0319 	bcc	38110c <__bss_end__+0x3778f4>
 4a4:	270b3b0b 	strcs	r3, [fp, -fp, lsl #22]
 4a8:	3c134919 	ldccc	9, cr4, [r3], {25}
 4ac:	00000019 	andeq	r0, r0, r9, lsl r0
 4b0:	25011101 	strcs	r1, [r1, #-257]	; 0x101
 4b4:	030b130e 	movweq	r1, #45838	; 0xb30e
 4b8:	110e1b0e 	tstne	lr, lr, lsl #22
 4bc:	10061201 	andne	r1, r6, r1, lsl #4
 4c0:	02000017 	andeq	r0, r0, #23
 4c4:	0b0b0024 	bleq	2c055c <__bss_end__+0x2b6d44>
 4c8:	08030b3e 	stmdaeq	r3, {r1, r2, r3, r4, r5, r8, r9, fp}
 4cc:	24030000 	strcs	r0, [r3], #-0
 4d0:	3e0b0b00 	vmlacc.f64	d0, d11, d0
 4d4:	000e030b 	andeq	r0, lr, fp, lsl #6
 4d8:	000f0400 	andeq	r0, pc, r0, lsl #8
 4dc:	13490b0b 	movtne	r0, #39691	; 0x9b0b
 4e0:	26050000 	strcs	r0, [r5], -r0
 4e4:	00134900 	andseq	r4, r3, r0, lsl #18
 4e8:	012e0600 	teqeq	lr, r0, lsl #12
 4ec:	0e03193f 	mcreq	9, 0, r1, cr3, cr15, {1}
 4f0:	0b3b0b3a 	bleq	ec31e0 <__bss_end__+0xeb99c8>
 4f4:	13491927 	movtne	r1, #39207	; 0x9927
 4f8:	06120111 			; <UNDEFINED> instruction: 0x06120111
 4fc:	42961840 	addsmi	r1, r6, #64, 16	; 0x400000
 500:	00130119 	andseq	r0, r3, r9, lsl r1
 504:	00050700 	andeq	r0, r5, r0, lsl #14
 508:	0b3a0803 	bleq	e8251c <__bss_end__+0xe78d04>
 50c:	13490b3b 	movtne	r0, #39739	; 0x9b3b
 510:	00001702 	andeq	r1, r0, r2, lsl #14
 514:	27011508 	strcs	r1, [r1, -r8, lsl #10]
 518:	01134919 	tsteq	r3, r9, lsl r9
 51c:	09000013 	stmdbeq	r0, {r0, r1, r4}
 520:	13490005 	movtne	r0, #36869	; 0x9005
 524:	340a0000 	strcc	r0, [sl], #-0
 528:	3a0e0300 	bcc	381130 <__bss_end__+0x377918>
 52c:	490b3b0b 	stmdbmi	fp, {r0, r1, r3, r8, r9, fp, ip, sp}
 530:	3c193f13 	ldccc	15, cr3, [r9], {19}
 534:	0b000019 	bleq	5a0 <_start-0x7a60>
 538:	0e030034 	mcreq	0, 0, r0, cr3, cr4, {1}
 53c:	0b3b0b3a 	bleq	ec322c <__bss_end__+0xeb9a14>
 540:	193f1349 	ldmdbne	pc!, {r0, r3, r6, r8, r9, ip}	; <UNPREDICTABLE>
 544:	00001802 	andeq	r1, r0, r2, lsl #16
 548:	01110100 	tsteq	r1, r0, lsl #2
 54c:	0b130e25 	bleq	4c3de8 <__bss_end__+0x4ba5d0>
 550:	0e1b0e03 	cdpeq	14, 1, cr0, cr11, cr3, {0}
 554:	06120111 			; <UNDEFINED> instruction: 0x06120111
 558:	00001710 	andeq	r1, r0, r0, lsl r7
 55c:	0b002402 	bleq	956c <buf.4219+0x154>
 560:	030b3e0b 	movweq	r3, #48651	; 0xbe0b
 564:	03000008 	movweq	r0, #8
 568:	0b0b0024 	bleq	2c0600 <__bss_end__+0x2b6de8>
 56c:	0e030b3e 	vmoveq.16	d3[0], r0
 570:	0f040000 	svceq	0x00040000
 574:	000b0b00 	andeq	r0, fp, r0, lsl #22
 578:	000f0500 	andeq	r0, pc, r0, lsl #10
 57c:	13490b0b 	movtne	r0, #39691	; 0x9b0b
 580:	26060000 	strcs	r0, [r6], -r0
 584:	00134900 	andseq	r4, r3, r0, lsl #18
 588:	00160700 	andseq	r0, r6, r0, lsl #14
 58c:	0b3a0e03 	bleq	e83da0 <__bss_end__+0xe7a588>
 590:	13490b3b 	movtne	r0, #39739	; 0x9b3b
 594:	13080000 	movwne	r0, #32768	; 0x8000
 598:	0b0e0301 	bleq	3811a4 <__bss_end__+0x37798c>
 59c:	3b0b3a0b 	blcc	2cedd0 <__bss_end__+0x2c55b8>
 5a0:	0013010b 	andseq	r0, r3, fp, lsl #2
 5a4:	000d0900 	andeq	r0, sp, r0, lsl #18
 5a8:	13490e03 	movtne	r0, #40451	; 0x9e03
 5ac:	19340b38 	ldmdbne	r4!, {r3, r4, r5, r8, r9, fp}
 5b0:	2e0a0000 	cdpcs	0, 0, cr0, cr10, cr0, {0}
 5b4:	3a0e0301 	bcc	3811c0 <__bss_end__+0x3779a8>
 5b8:	270b3b0b 	strcs	r3, [fp, -fp, lsl #22]
 5bc:	11134919 	tstne	r3, r9, lsl r9
 5c0:	40061201 	andmi	r1, r6, r1, lsl #4
 5c4:	19429718 	stmdbne	r2, {r3, r4, r8, r9, sl, ip, pc}^
 5c8:	00001301 	andeq	r1, r0, r1, lsl #6
 5cc:	0300050b 	movweq	r0, #1291	; 0x50b
 5d0:	3b0b3a08 	blcc	2cedf8 <__bss_end__+0x2c55e0>
 5d4:	0213490b 	andseq	r4, r3, #180224	; 0x2c000
 5d8:	0c000017 	stceq	0, cr0, [r0], {23}
 5dc:	0803012e 	stmdaeq	r3, {r1, r2, r3, r5, r8}
 5e0:	0b3b0b3a 	bleq	ec32d0 <__bss_end__+0xeb9ab8>
 5e4:	13491927 	movtne	r1, #39207	; 0x9927
 5e8:	06120111 			; <UNDEFINED> instruction: 0x06120111
 5ec:	42971840 	addsmi	r1, r7, #64, 16	; 0x400000
 5f0:	00130119 	andseq	r0, r3, r9, lsl r1
 5f4:	00050d00 	andeq	r0, r5, r0, lsl #26
 5f8:	0b3a0e03 	bleq	e83e0c <__bss_end__+0xe7a5f4>
 5fc:	13490b3b 	movtne	r0, #39739	; 0x9b3b
 600:	00001702 	andeq	r1, r0, r2, lsl #14
 604:	0300050e 	movweq	r0, #1294	; 0x50e
 608:	3b0b3a0e 	blcc	2cee48 <__bss_end__+0x2c5630>
 60c:	0213490b 	andseq	r4, r3, #180224	; 0x2c000
 610:	0f000018 	svceq	0x00000018
 614:	08030034 	stmdaeq	r3, {r2, r4, r5}
 618:	0b3b0b3a 	bleq	ec3308 <__bss_end__+0xeb9af0>
 61c:	18021349 	stmdane	r2, {r0, r3, r6, r8, r9, ip}
 620:	34100000 	ldrcc	r0, [r0], #-0
 624:	3a080300 	bcc	20122c <__bss_end__+0x1f7a14>
 628:	490b3b0b 	stmdbmi	fp, {r0, r1, r3, r8, r9, fp, ip, sp}
 62c:	00170213 	andseq	r0, r7, r3, lsl r2
 630:	00341100 	eorseq	r1, r4, r0, lsl #2
 634:	13490e03 	movtne	r0, #40451	; 0x9e03
 638:	18021934 	stmdane	r2, {r2, r4, r5, r8, fp, ip}
 63c:	0b120000 	bleq	480644 <__bss_end__+0x476e2c>
 640:	12011101 	andne	r1, r1, #1073741824	; 0x40000000
 644:	00130106 	andseq	r0, r3, r6, lsl #2
 648:	00341300 	eorseq	r1, r4, r0, lsl #6
 64c:	0b3a0e03 	bleq	e83e60 <__bss_end__+0xe7a648>
 650:	13490b3b 	movtne	r0, #39739	; 0x9b3b
 654:	00001702 	andeq	r1, r0, r2, lsl #14
 658:	01828914 	orreq	r8, r2, r4, lsl r9
 65c:	31011100 	mrscc	r1, (UNDEF: 17)
 660:	15000013 	strne	r0, [r0, #-19]
 664:	01018289 	smlabbeq	r1, r9, r2, r8
 668:	13310111 	teqne	r1, #1073741828	; 0x40000004
 66c:	00001301 	andeq	r1, r0, r1, lsl #6
 670:	01828a16 	orreq	r8, r2, r6, lsl sl
 674:	91180200 	tstls	r8, r0, lsl #4
 678:	00001842 	andeq	r1, r0, r2, asr #16
 67c:	01828917 	orreq	r8, r2, r7, lsl r9
 680:	31011101 	tstcc	r1, r1, lsl #2
 684:	18000013 	stmdane	r0, {r0, r1, r4}
 688:	13490101 	movtne	r0, #37121	; 0x9101
 68c:	00001301 	andeq	r1, r0, r1, lsl #6
 690:	49002119 	stmdbmi	r0, {r0, r3, r4, r8, sp}
 694:	000b2f13 	andeq	r2, fp, r3, lsl pc
 698:	012e1a00 	teqeq	lr, r0, lsl #20
 69c:	0e03193f 	mcreq	9, 0, r1, cr3, cr15, {1}
 6a0:	0b3b0b3a 	bleq	ec3390 <__bss_end__+0xeb9b78>
 6a4:	01111927 	tsteq	r1, r7, lsr #18
 6a8:	18400612 	stmdane	r0, {r1, r4, r9, sl}^
 6ac:	01194297 			; <UNDEFINED> instruction: 0x01194297
 6b0:	1b000013 	blne	704 <_start-0x78fc>
 6b4:	19270115 	stmdbne	r7!, {r0, r2, r4, r8}
 6b8:	13011349 	movwne	r1, #4937	; 0x1349
 6bc:	051c0000 	ldreq	r0, [ip, #-0]
 6c0:	00134900 	andseq	r4, r3, r0, lsl #18
 6c4:	012e1d00 	teqeq	lr, r0, lsl #26
 6c8:	0e03193f 	mcreq	9, 0, r1, cr3, cr15, {1}
 6cc:	0b3b0b3a 	bleq	ec33bc <__bss_end__+0xeb9ba4>
 6d0:	13491927 	movtne	r1, #39207	; 0x9927
 6d4:	06120111 			; <UNDEFINED> instruction: 0x06120111
 6d8:	42971840 	addsmi	r1, r7, #64, 16	; 0x400000
 6dc:	00130119 	andseq	r0, r3, r9, lsl r1
 6e0:	010b1e00 	tsteq	fp, r0, lsl #28
 6e4:	00001755 	andeq	r1, r0, r5, asr r7
 6e8:	0300341f 	movweq	r3, #1055	; 0x41f
 6ec:	3b0b3a0e 	blcc	2cef2c <__bss_end__+0x2c5714>
 6f0:	3f13490b 	svccc	0x0013490b
 6f4:	00193c19 	andseq	r3, r9, r9, lsl ip
 6f8:	002e2000 	eoreq	r2, lr, r0
 6fc:	0e03193f 	mcreq	9, 0, r1, cr3, cr15, {1}
 700:	0b3b0b3a 	bleq	ec33f0 <__bss_end__+0xeb9bd8>
 704:	193c1927 	ldmdbne	ip!, {r0, r1, r2, r5, r8, fp, ip}
 708:	2e210000 	cdpcs	0, 2, cr0, cr1, cr0, {0}
 70c:	03193f01 	tsteq	r9, #1, 30
 710:	3b0b3a0e 	blcc	2cef50 <__bss_end__+0x2c5738>
 714:	4919270b 	ldmdbmi	r9, {r0, r1, r3, r8, r9, sl, sp}
 718:	01193c13 	tsteq	r9, r3, lsl ip
 71c:	22000013 	andcs	r0, r0, #19
 720:	00000018 	andeq	r0, r0, r8, lsl r0
 724:	01110100 	tsteq	r1, r0, lsl #2
 728:	0b130e25 	bleq	4c3fc4 <__bss_end__+0x4ba7ac>
 72c:	0e1b0e03 	cdpeq	14, 1, cr0, cr11, cr3, {0}
 730:	06120111 			; <UNDEFINED> instruction: 0x06120111
 734:	00001710 	andeq	r1, r0, r0, lsl r7
 738:	0b002402 	bleq	9748 <buf.4219+0x330>
 73c:	030b3e0b 	movweq	r3, #48651	; 0xbe0b
 740:	03000008 	movweq	r0, #8
 744:	0b0b0024 	bleq	2c07dc <__bss_end__+0x2b6fc4>
 748:	0e030b3e 	vmoveq.16	d3[0], r0
 74c:	0f040000 	svceq	0x00040000
 750:	490b0b00 	stmdbmi	fp, {r8, r9, fp}
 754:	05000013 	streq	r0, [r0, #-19]
 758:	13490026 	movtne	r0, #36902	; 0x9026
 75c:	2e060000 	cdpcs	0, 0, cr0, cr6, cr0, {0}
 760:	03193f01 	tsteq	r9, #1, 30
 764:	3b0b3a0e 	blcc	2cefa4 <__bss_end__+0x2c578c>
 768:	1119270b 	tstne	r9, fp, lsl #14
 76c:	40061201 	andmi	r1, r6, r1, lsl #4
 770:	19429718 	stmdbne	r2, {r3, r4, r8, r9, sl, ip, pc}^
 774:	00001301 	andeq	r1, r0, r1, lsl #6
 778:	01828907 	orreq	r8, r2, r7, lsl #18
 77c:	01011101 	tsteq	r1, r1, lsl #2
 780:	08000013 	stmdaeq	r0, {r0, r1, r4}
 784:	0001828a 	andeq	r8, r1, sl, lsl #5
 788:	42911802 	addsmi	r1, r1, #131072	; 0x20000
 78c:	09000018 	stmdbeq	r0, {r3, r4}
 790:	01018289 	smlabbeq	r1, r9, r2, r8
 794:	13310111 	teqne	r1, #1073741828	; 0x40000004
 798:	00001301 	andeq	r1, r0, r1, lsl #6
 79c:	0182890a 	orreq	r8, r2, sl, lsl #18
 7a0:	31011100 	mrscc	r1, (UNDEF: 17)
 7a4:	0b000013 	bleq	7f8 <_start-0x7808>
 7a8:	19270115 	stmdbne	r7!, {r0, r2, r4, r8}
 7ac:	13011349 	movwne	r1, #4937	; 0x1349
 7b0:	050c0000 	streq	r0, [ip, #-0]
 7b4:	00134900 	andseq	r4, r3, r0, lsl #18
 7b8:	00340d00 	eorseq	r0, r4, r0, lsl #26
 7bc:	0b3a0e03 	bleq	e83fd0 <__bss_end__+0xe7a7b8>
 7c0:	13490b3b 	movtne	r0, #39739	; 0x9b3b
 7c4:	193c193f 	ldmdbne	ip!, {r0, r1, r2, r3, r4, r5, r8, fp, ip}
 7c8:	2e0e0000 	cdpcs	0, 0, cr0, cr14, cr0, {0}
 7cc:	03193f01 	tsteq	r9, #1, 30
 7d0:	3b0b3a0e 	blcc	2cf010 <__bss_end__+0x2c57f8>
 7d4:	3c19270b 	ldccc	7, cr2, [r9], {11}
 7d8:	00130119 	andseq	r0, r3, r9, lsl r1
 7dc:	002e0f00 	eoreq	r0, lr, r0, lsl #30
 7e0:	0e03193f 	mcreq	9, 0, r1, cr3, cr15, {1}
 7e4:	0b3b0b3a 	bleq	ec34d4 <__bss_end__+0xeb9cbc>
 7e8:	193c1927 	ldmdbne	ip!, {r0, r1, r2, r5, r8, fp, ip}
 7ec:	01000000 	mrseq	r0, (UNDEF: 0)
 7f0:	0e250111 	mcreq	1, 1, r0, cr5, cr1, {0}
 7f4:	0e030b13 	vmoveq.32	d3[0], r0
 7f8:	01110e1b 	tsteq	r1, fp, lsl lr
 7fc:	17100612 			; <UNDEFINED> instruction: 0x17100612
 800:	24020000 	strcs	r0, [r2], #-0
 804:	3e0b0b00 	vmlacc.f64	d0, d11, d0
 808:	0008030b 	andeq	r0, r8, fp, lsl #6
 80c:	00240300 	eoreq	r0, r4, r0, lsl #6
 810:	0b3e0b0b 	bleq	f83444 <__bss_end__+0xf79c2c>
 814:	00000e03 	andeq	r0, r0, r3, lsl #28
 818:	3f012e04 	svccc	0x00012e04
 81c:	3a0e0319 	bcc	381488 <__bss_end__+0x377c70>
 820:	110b3b0b 	tstne	fp, fp, lsl #22
 824:	40061201 	andmi	r1, r6, r1, lsl #4
 828:	19429718 	stmdbne	r2, {r3, r4, r8, r9, sl, ip, pc}^
 82c:	00001301 	andeq	r1, r0, r1, lsl #6
 830:	03003405 	movweq	r3, #1029	; 0x405
 834:	3b0b3a0e 	blcc	2cf074 <__bss_end__+0x2c585c>
 838:	3f13490b 	svccc	0x0013490b
 83c:	00193c19 	andseq	r3, r9, r9, lsl ip
 840:	002e0600 	eoreq	r0, lr, r0, lsl #12
 844:	0e03193f 	mcreq	9, 0, r1, cr3, cr15, {1}
 848:	0b3b0b3a 	bleq	ec3538 <__bss_end__+0xeb9d20>
 84c:	193c1927 	ldmdbne	ip!, {r0, r1, r2, r5, r8, fp, ip}
 850:	34070000 	strcc	r0, [r7], #-0
 854:	3a080300 	bcc	20145c <__bss_end__+0x1f7c44>
 858:	490b3b0b 	stmdbmi	fp, {r0, r1, r3, r8, r9, fp, ip, sp}
 85c:	00170213 	andseq	r0, r7, r3, lsl r2
 860:	00340800 	eorseq	r0, r4, r0, lsl #16
 864:	0b3a0e03 	bleq	e84078 <__bss_end__+0xe7a860>
 868:	13490b3b 	movtne	r0, #39739	; 0x9b3b
 86c:	89090000 	stmdbhi	r9, {}	; <UNPREDICTABLE>
 870:	11000182 	smlabbne	r0, r2, r1, r0
 874:	00133101 	andseq	r3, r3, r1, lsl #2
 878:	000f0a00 	andeq	r0, pc, r0, lsl #20
 87c:	13490b0b 	movtne	r0, #39691	; 0x9b0b
 880:	01000000 	mrseq	r0, (UNDEF: 0)
 884:	0e250111 	mcreq	1, 1, r0, cr5, cr1, {0}
 888:	0e030b13 	vmoveq.32	d3[0], r0
 88c:	17550e1b 	smmlane	r5, fp, lr, r0
 890:	17100111 			; <UNDEFINED> instruction: 0x17100111
 894:	24020000 	strcs	r0, [r2], #-0
 898:	3e0b0b00 	vmlacc.f64	d0, d11, d0
 89c:	0008030b 	andeq	r0, r8, fp, lsl #6
 8a0:	00240300 	eoreq	r0, r4, r0, lsl #6
 8a4:	0b3e0b0b 	bleq	f834d8 <__bss_end__+0xf79cc0>
 8a8:	00000e03 	andeq	r0, r0, r3, lsl #28
 8ac:	3f012e04 	svccc	0x00012e04
 8b0:	3a0e0319 	bcc	38151c <__bss_end__+0x377d04>
 8b4:	270b3b0b 	strcs	r3, [fp, -fp, lsl #22]
 8b8:	11134919 	tstne	r3, r9, lsl r9
 8bc:	40061201 	andmi	r1, r6, r1, lsl #4
 8c0:	19429718 	stmdbne	r2, {r3, r4, r8, r9, sl, ip, pc}^
 8c4:	00001301 	andeq	r1, r0, r1, lsl #6
 8c8:	03003405 	movweq	r3, #1029	; 0x405
 8cc:	3b0b3a0e 	blcc	2cf10c <__bss_end__+0x2c58f4>
 8d0:	0213490b 	andseq	r4, r3, #180224	; 0x2c000
 8d4:	06000017 			; <UNDEFINED> instruction: 0x06000017
 8d8:	193f012e 	ldmdbne	pc!, {r1, r2, r3, r5, r8}	; <UNPREDICTABLE>
 8dc:	0b3a0e03 	bleq	e840f0 <__bss_end__+0xe7a8d8>
 8e0:	19270b3b 	stmdbne	r7!, {r0, r1, r3, r4, r5, r8, r9, fp}
 8e4:	06120111 			; <UNDEFINED> instruction: 0x06120111
 8e8:	42971840 	addsmi	r1, r7, #64, 16	; 0x400000
 8ec:	00130119 	andseq	r0, r3, r9, lsl r1
 8f0:	00340700 	eorseq	r0, r4, r0, lsl #14
 8f4:	0b3a0e03 	bleq	e84108 <__bss_end__+0xe7a8f0>
 8f8:	13490b3b 	movtne	r0, #39739	; 0x9b3b
 8fc:	0000061c 	andeq	r0, r0, ip, lsl r6
 900:	03003408 	movweq	r3, #1032	; 0x408
 904:	3b0b3a0e 	blcc	2cf144 <__bss_end__+0x2c592c>
 908:	1c13490b 	ldcne	9, cr4, [r3], {11}
 90c:	0900000b 	stmdbeq	r0, {r0, r1, r3}
 910:	00018289 	andeq	r8, r1, r9, lsl #5
 914:	13310111 	teqne	r1, #1073741828	; 0x40000004
 918:	890a0000 	stmdbhi	sl, {}	; <UNPREDICTABLE>
 91c:	11010182 	smlabbne	r1, r2, r1, r0
 920:	01133101 	tsteq	r3, r1, lsl #2
 924:	0b000013 	bleq	978 <_start-0x7688>
 928:	0001828a 	andeq	r8, r1, sl, lsl #5
 92c:	42911802 	addsmi	r1, r1, #131072	; 0x20000
 930:	0c000018 	stceq	0, cr0, [r0], {24}
 934:	01018289 	smlabbeq	r1, r9, r2, r8
 938:	13310111 	teqne	r1, #1073741828	; 0x40000004
 93c:	260d0000 	strcs	r0, [sp], -r0
 940:	00134900 	andseq	r4, r3, r0, lsl #18
 944:	012e0e00 	teqeq	lr, r0, lsl #28
 948:	0e03193f 	mcreq	9, 0, r1, cr3, cr15, {1}
 94c:	0b3b0b3a 	bleq	ec363c <__bss_end__+0xeb9e24>
 950:	193c1927 	ldmdbne	ip!, {r0, r1, r2, r5, r8, fp, ip}
 954:	00001301 	andeq	r1, r0, r1, lsl #6
 958:	4900050f 	stmdbmi	r0, {r0, r1, r2, r3, r8, sl}
 95c:	10000013 	andne	r0, r0, r3, lsl r0
 960:	193f012e 	ldmdbne	pc!, {r1, r2, r3, r5, r8}	; <UNPREDICTABLE>
 964:	0b3a0e03 	bleq	e84178 <__bss_end__+0xe7a960>
 968:	19270b3b 	stmdbne	r7!, {r0, r1, r3, r4, r5, r8, r9, fp}
 96c:	0000193c 	andeq	r1, r0, ip, lsr r9
 970:	01110100 	tsteq	r1, r0, lsl #2
 974:	0b130e25 	bleq	4c4210 <__bss_end__+0x4ba9f8>
 978:	0e1b0e03 	cdpeq	14, 1, cr0, cr11, cr3, {0}
 97c:	06120111 			; <UNDEFINED> instruction: 0x06120111
 980:	00001710 	andeq	r1, r0, r0, lsl r7
 984:	0b002402 	bleq	9994 <__bss_end__+0x17c>
 988:	030b3e0b 	movweq	r3, #48651	; 0xbe0b
 98c:	03000008 	movweq	r0, #8
 990:	0b0b0024 	bleq	2c0a28 <__bss_end__+0x2b7210>
 994:	0e030b3e 	vmoveq.16	d3[0], r0
 998:	2e040000 	cdpcs	0, 0, cr0, cr4, cr0, {0}
 99c:	03193f01 	tsteq	r9, #1, 30
 9a0:	3b0b3a0e 	blcc	2cf1e0 <__bss_end__+0x2c59c8>
 9a4:	1119270b 	tstne	r9, fp, lsl #14
 9a8:	40061201 	andmi	r1, r6, r1, lsl #4
 9ac:	19429718 	stmdbne	r2, {r3, r4, r8, r9, sl, ip, pc}^
 9b0:	00001301 	andeq	r1, r0, r1, lsl #6
 9b4:	03000505 	movweq	r0, #1285	; 0x505
 9b8:	3b0b3a0e 	blcc	2cf1f8 <__bss_end__+0x2c59e0>
 9bc:	0213490b 	andseq	r4, r3, #180224	; 0x2c000
 9c0:	06000017 			; <UNDEFINED> instruction: 0x06000017
 9c4:	193f012e 	ldmdbne	pc!, {r1, r2, r3, r5, r8}	; <UNPREDICTABLE>
 9c8:	0b3a0e03 	bleq	e841dc <__bss_end__+0xe7a9c4>
 9cc:	19270b3b 	stmdbne	r7!, {r0, r1, r3, r4, r5, r8, r9, fp}
 9d0:	01111349 	tsteq	r1, r9, asr #6
 9d4:	18400612 	stmdane	r0, {r1, r4, r9, sl}^
 9d8:	01194297 			; <UNDEFINED> instruction: 0x01194297
 9dc:	07000013 	smladeq	r0, r3, r0, r0
 9e0:	01018289 	smlabbeq	r1, r9, r2, r8
 9e4:	13310111 	teqne	r1, #1073741828	; 0x40000004
 9e8:	8a080000 	bhi	2009f0 <__bss_end__+0x1f71d8>
 9ec:	02000182 	andeq	r0, r0, #-2147483616	; 0x80000020
 9f0:	18429118 	stmdane	r2, {r3, r4, r8, ip, pc}^
 9f4:	34090000 	strcc	r0, [r9], #-0
 9f8:	3a080300 	bcc	201600 <__bss_end__+0x1f7de8>
 9fc:	490b3b0b 	stmdbmi	fp, {r0, r1, r3, r8, r9, fp, ip, sp}
 a00:	00180213 	andseq	r0, r8, r3, lsl r2
 a04:	82890a00 	addhi	r0, r9, #0, 20
 a08:	01110001 	tsteq	r1, r1
 a0c:	00001331 	andeq	r1, r0, r1, lsr r3
 a10:	0300050b 	movweq	r0, #1291	; 0x50b
 a14:	3b0b3a08 	blcc	2cf23c <__bss_end__+0x2c5a24>
 a18:	0213490b 	andseq	r4, r3, #180224	; 0x2c000
 a1c:	0c000017 	stceq	0, cr0, [r0], {23}
 a20:	0111010b 	tsteq	r1, fp, lsl #2
 a24:	13010612 	movwne	r0, #5650	; 0x1612
 a28:	340d0000 	strcc	r0, [sp], #-0
 a2c:	3a080300 	bcc	201634 <__bss_end__+0x1f7e1c>
 a30:	490b3b0b 	stmdbmi	fp, {r0, r1, r3, r8, r9, fp, ip, sp}
 a34:	00170213 	andseq	r0, r7, r3, lsl r2
 a38:	012e0e00 	teqeq	lr, r0, lsl #28
 a3c:	0e03193f 	mcreq	9, 0, r1, cr3, cr15, {1}
 a40:	0b3b0b3a 	bleq	ec3730 <__bss_end__+0xeb9f18>
 a44:	13491927 	movtne	r1, #39207	; 0x9927
 a48:	0000193c 	andeq	r1, r0, ip, lsr r9
 a4c:	4900050f 	stmdbmi	r0, {r0, r1, r2, r3, r8, sl}
 a50:	00000013 	andeq	r0, r0, r3, lsl r0
 a54:	25011101 	strcs	r1, [r1, #-257]	; 0x101
 a58:	030b130e 	movweq	r1, #45838	; 0xb30e
 a5c:	110e1b0e 	tstne	lr, lr, lsl #22
 a60:	10061201 	andne	r1, r6, r1, lsl #4
 a64:	02000017 	andeq	r0, r0, #23
 a68:	0b0b0024 	bleq	2c0b00 <__bss_end__+0x2b72e8>
 a6c:	0e030b3e 	vmoveq.16	d3[0], r0
 a70:	24030000 	strcs	r0, [r3], #-0
 a74:	3e0b0b00 	vmlacc.f64	d0, d11, d0
 a78:	0008030b 	andeq	r0, r8, fp, lsl #6
 a7c:	01040400 	tsteq	r4, r0, lsl #8
 a80:	0b3a0b0b 	bleq	e836b4 <__bss_end__+0xe79e9c>
 a84:	13010b3b 	movwne	r0, #6971	; 0x1b3b
 a88:	28050000 	stmdacs	r5, {}	; <UNPREDICTABLE>
 a8c:	1c0e0300 	stcne	3, cr0, [lr], {-0}
 a90:	0600000d 	streq	r0, [r0], -sp
 a94:	0e030016 	mcreq	0, 0, r0, cr3, cr6, {0}
 a98:	0b3b0b3a 	bleq	ec3788 <__bss_end__+0xeb9f70>
 a9c:	00001349 	andeq	r1, r0, r9, asr #6
 aa0:	3f012e07 	svccc	0x00012e07
 aa4:	3a0e0319 	bcc	381710 <__bss_end__+0x377ef8>
 aa8:	270b3b0b 	strcs	r3, [fp, -fp, lsl #22]
 aac:	12011119 	andne	r1, r1, #1073741830	; 0x40000006
 ab0:	97184006 	ldrls	r4, [r8, -r6]
 ab4:	13011942 	movwne	r1, #6466	; 0x1942
 ab8:	05080000 	streq	r0, [r8, #-0]
 abc:	3a080300 	bcc	2016c4 <__bss_end__+0x1f7eac>
 ac0:	490b3b0b 	stmdbmi	fp, {r0, r1, r3, r8, r9, fp, ip, sp}
 ac4:	00170213 	andseq	r0, r7, r3, lsl r2
 ac8:	00340900 	eorseq	r0, r4, r0, lsl #18
 acc:	0b3a0e03 	bleq	e842e0 <__bss_end__+0xe7aac8>
 ad0:	13490b3b 	movtne	r0, #39739	; 0x9b3b
 ad4:	00001702 	andeq	r1, r0, r2, lsl #14
 ad8:	0182890a 	orreq	r8, r2, sl, lsl #18
 adc:	31011101 	tstcc	r1, r1, lsl #2
 ae0:	00130113 	andseq	r0, r3, r3, lsl r1
 ae4:	828a0b00 	addhi	r0, sl, #0, 22
 ae8:	18020001 	stmdane	r2, {r0}
 aec:	00184291 	mulseq	r8, r1, r2
 af0:	82890c00 	addhi	r0, r9, #0, 24
 af4:	01110101 	tsteq	r1, r1, lsl #2
 af8:	00001331 	andeq	r1, r0, r1, lsr r3
 afc:	0b000f0d 	bleq	4738 <_start-0x38c8>
 b00:	0013490b 	andseq	r4, r3, fp, lsl #18
 b04:	00350e00 	eorseq	r0, r5, r0, lsl #28
 b08:	00001349 	andeq	r1, r0, r9, asr #6
 b0c:	3f012e0f 	svccc	0x00012e0f
 b10:	3a0e0319 	bcc	38177c <__bss_end__+0x377f64>
 b14:	270b3b0b 	strcs	r3, [fp, -fp, lsl #22]
 b18:	11134919 	tstne	r3, r9, lsl r9
 b1c:	40061201 	andmi	r1, r6, r1, lsl #4
 b20:	19429718 	stmdbne	r2, {r3, r4, r8, r9, sl, ip, pc}^
 b24:	00001301 	andeq	r1, r0, r1, lsl #6
 b28:	03003410 	movweq	r3, #1040	; 0x410
 b2c:	3b0b3a08 	blcc	2cf354 <__bss_end__+0x2c5b3c>
 b30:	0213490b 	andseq	r4, r3, #180224	; 0x2c000
 b34:	11000017 	tstne	r0, r7, lsl r0
 b38:	00018289 	andeq	r8, r1, r9, lsl #5
 b3c:	13310111 	teqne	r1, #1073741828	; 0x40000004
 b40:	05120000 	ldreq	r0, [r2, #-0]
 b44:	3a0e0300 	bcc	38174c <__bss_end__+0x377f34>
 b48:	490b3b0b 	stmdbmi	fp, {r0, r1, r3, r8, r9, fp, ip, sp}
 b4c:	00170213 	andseq	r0, r7, r3, lsl r2
 b50:	012e1300 	teqeq	lr, r0, lsl #6
 b54:	0e03193f 	mcreq	9, 0, r1, cr3, cr15, {1}
 b58:	053b0b3a 	ldreq	r0, [fp, #-2874]!	; 0xb3a
 b5c:	13491927 	movtne	r1, #39207	; 0x9927
 b60:	06120111 			; <UNDEFINED> instruction: 0x06120111
 b64:	42971840 	addsmi	r1, r7, #64, 16	; 0x400000
 b68:	00130119 	andseq	r0, r3, r9, lsl r1
 b6c:	00051400 	andeq	r1, r5, r0, lsl #8
 b70:	0b3a0e03 	bleq	e84384 <__bss_end__+0xe7ab6c>
 b74:	1349053b 	movtne	r0, #38203	; 0x953b
 b78:	00001702 	andeq	r1, r0, r2, lsl #14
 b7c:	3f012e15 	svccc	0x00012e15
 b80:	3a0e0319 	bcc	3817ec <__bss_end__+0x377fd4>
 b84:	27053b0b 	strcs	r3, [r5, -fp, lsl #22]
 b88:	12011119 	andne	r1, r1, #1073741830	; 0x40000006
 b8c:	97184006 	ldrls	r4, [r8, -r6]
 b90:	13011942 	movwne	r1, #6466	; 0x1942
 b94:	05160000 	ldreq	r0, [r6, #-0]
 b98:	3a080300 	bcc	2017a0 <__bss_end__+0x1f7f88>
 b9c:	49053b0b 	stmdbmi	r5, {r0, r1, r3, r8, r9, fp, ip, sp}
 ba0:	00170213 	andseq	r0, r7, r3, lsl r2
 ba4:	00341700 	eorseq	r1, r4, r0, lsl #14
 ba8:	0b3a0e03 	bleq	e843bc <__bss_end__+0xe7aba4>
 bac:	1349053b 	movtne	r0, #38203	; 0x953b
 bb0:	00001702 	andeq	r1, r0, r2, lsl #14
 bb4:	11010b18 	tstne	r1, r8, lsl fp
 bb8:	01061201 	tsteq	r6, r1, lsl #4
 bbc:	19000013 	stmdbne	r0, {r0, r1, r4}
 bc0:	0e030034 	mcreq	0, 0, r0, cr3, cr4, {1}
 bc4:	0b3b0b3a 	bleq	ec38b4 <__bss_end__+0xeba09c>
 bc8:	193f1349 	ldmdbne	pc!, {r0, r3, r6, r8, r9, ip}	; <UNPREDICTABLE>
 bcc:	00001802 	andeq	r1, r0, r2, lsl #16
 bd0:	0300341a 	movweq	r3, #1050	; 0x41a
 bd4:	3b0b3a0e 	blcc	2cf414 <__bss_end__+0x2c5bfc>
 bd8:	3f134905 	svccc	0x00134905
 bdc:	00180219 	andseq	r0, r8, r9, lsl r2
 be0:	012e1b00 	teqeq	lr, r0, lsl #22
 be4:	0e03193f 	mcreq	9, 0, r1, cr3, cr15, {1}
 be8:	0b3b0b3a 	bleq	ec38d8 <__bss_end__+0xeba0c0>
 bec:	13491927 	movtne	r1, #39207	; 0x9927
 bf0:	1301193c 	movwne	r1, #6460	; 0x193c
 bf4:	051c0000 	ldreq	r0, [ip, #-0]
 bf8:	00134900 	andseq	r4, r3, r0, lsl #18
 bfc:	00261d00 	eoreq	r1, r6, r0, lsl #26
 c00:	00001349 	andeq	r1, r0, r9, asr #6
 c04:	0000351e 	andeq	r3, r0, lr, lsl r5
 c08:	012e1f00 	teqeq	lr, r0, lsl #30
 c0c:	0e03193f 	mcreq	9, 0, r1, cr3, cr15, {1}
 c10:	0b3b0b3a 	bleq	ec3900 <__bss_end__+0xeba0e8>
 c14:	193c1927 	ldmdbne	ip!, {r0, r1, r2, r5, r8, fp, ip}
 c18:	00001301 	andeq	r1, r0, r1, lsl #6
 c1c:	3f002e20 	svccc	0x00002e20
 c20:	3a0e0319 	bcc	38188c <__bss_end__+0x378074>
 c24:	270b3b0b 	strcs	r3, [fp, -fp, lsl #22]
 c28:	00193c19 	andseq	r3, r9, r9, lsl ip
 c2c:	11010000 	mrsne	r0, (UNDEF: 1)
 c30:	130e2501 	movwne	r2, #58625	; 0xe501
 c34:	1b0e030b 	blne	381868 <__bss_end__+0x378050>
 c38:	1201110e 	andne	r1, r1, #-2147483645	; 0x80000003
 c3c:	00171006 	andseq	r1, r7, r6
 c40:	00240200 	eoreq	r0, r4, r0, lsl #4
 c44:	0b3e0b0b 	bleq	f83878 <__bss_end__+0xf7a060>
 c48:	00000803 	andeq	r0, r0, r3, lsl #16
 c4c:	0b002403 	bleq	9c60 <__bss_end__+0x448>
 c50:	030b3e0b 	movweq	r3, #48651	; 0xbe0b
 c54:	0400000e 	streq	r0, [r0], #-14
 c58:	0b0b0104 	bleq	2c1070 <__bss_end__+0x2b7858>
 c5c:	0b3b0b3a 	bleq	ec394c <__bss_end__+0xeba134>
 c60:	00001301 	andeq	r1, r0, r1, lsl #6
 c64:	03002805 	movweq	r2, #2053	; 0x805
 c68:	000d1c0e 	andeq	r1, sp, lr, lsl #24
 c6c:	00160600 	andseq	r0, r6, r0, lsl #12
 c70:	0b3a0e03 	bleq	e84484 <__bss_end__+0xe7ac6c>
 c74:	13490b3b 	movtne	r0, #39739	; 0x9b3b
 c78:	2e070000 	cdpcs	0, 0, cr0, cr7, cr0, {0}
 c7c:	03193f01 	tsteq	r9, #1, 30
 c80:	3b0b3a0e 	blcc	2cf4c0 <__bss_end__+0x2c5ca8>
 c84:	1119270b 	tstne	r9, fp, lsl #14
 c88:	40061201 	andmi	r1, r6, r1, lsl #4
 c8c:	19429718 	stmdbne	r2, {r3, r4, r8, r9, sl, ip, pc}^
 c90:	00001301 	andeq	r1, r0, r1, lsl #6
 c94:	01828908 	orreq	r8, r2, r8, lsl #18
 c98:	31011100 	mrscc	r1, (UNDEF: 17)
 c9c:	09000013 	stmdbeq	r0, {r0, r1, r4}
 ca0:	01018289 	smlabbeq	r1, r9, r2, r8
 ca4:	13310111 	teqne	r1, #1073741828	; 0x40000004
 ca8:	00001301 	andeq	r1, r0, r1, lsl #6
 cac:	01828a0a 	orreq	r8, r2, sl, lsl #20
 cb0:	91180200 	tstls	r8, r0, lsl #4
 cb4:	00001842 	andeq	r1, r0, r2, asr #16
 cb8:	3f012e0b 	svccc	0x00012e0b
 cbc:	3a0e0319 	bcc	381928 <__bss_end__+0x378110>
 cc0:	270b3b0b 	strcs	r3, [fp, -fp, lsl #22]
 cc4:	11134919 	tstne	r3, r9, lsl r9
 cc8:	40061201 	andmi	r1, r6, r1, lsl #4
 ccc:	19429718 	stmdbne	r2, {r3, r4, r8, r9, sl, ip, pc}^
 cd0:	00001301 	andeq	r1, r0, r1, lsl #6
 cd4:	0300050c 	movweq	r0, #1292	; 0x50c
 cd8:	3b0b3a08 	blcc	2cf500 <__bss_end__+0x2c5ce8>
 cdc:	0213490b 	andseq	r4, r3, #180224	; 0x2c000
 ce0:	0d000017 	stceq	0, cr0, [r0, #-92]	; 0xffffffa4
 ce4:	01018289 	smlabbeq	r1, r9, r2, r8
 ce8:	13310111 	teqne	r1, #1073741828	; 0x40000004
 cec:	340e0000 	strcc	r0, [lr], #-0
 cf0:	3a0e0300 	bcc	3818f8 <__bss_end__+0x3780e0>
 cf4:	490b3b0b 	stmdbmi	fp, {r0, r1, r3, r8, r9, fp, ip, sp}
 cf8:	02193f13 	andseq	r3, r9, #19, 30	; 0x4c
 cfc:	0f000018 	svceq	0x00000018
 d00:	0b0b000f 	bleq	2c0d44 <__bss_end__+0x2b752c>
 d04:	00001349 	andeq	r1, r0, r9, asr #6
 d08:	49003510 	stmdbmi	r0, {r4, r8, sl, ip, sp}
 d0c:	11000013 	tstne	r0, r3, lsl r0
 d10:	193f002e 	ldmdbne	pc!, {r1, r2, r3, r5}	; <UNPREDICTABLE>
 d14:	0b3a0e03 	bleq	e84528 <__bss_end__+0xe7ad10>
 d18:	19270b3b 	stmdbne	r7!, {r0, r1, r3, r4, r5, r8, r9, fp}
 d1c:	0000193c 	andeq	r1, r0, ip, lsr r9
 d20:	3f012e12 	svccc	0x00012e12
 d24:	3a0e0319 	bcc	381990 <__bss_end__+0x378178>
 d28:	270b3b0b 	strcs	r3, [fp, -fp, lsl #22]
 d2c:	01193c19 	tsteq	r9, r9, lsl ip
 d30:	13000013 	movwne	r0, #19
 d34:	13490005 	movtne	r0, #36869	; 0x9005
 d38:	2e140000 	cdpcs	0, 1, cr0, cr4, cr0, {0}
 d3c:	03193f01 	tsteq	r9, #1, 30
 d40:	3b0b3a0e 	blcc	2cf580 <__bss_end__+0x2c5d68>
 d44:	4919270b 	ldmdbmi	r9, {r0, r1, r3, r8, r9, sl, sp}
 d48:	01193c13 	tsteq	r9, r3, lsl ip
 d4c:	15000013 	strne	r0, [r0, #-19]
 d50:	13490026 	movtne	r0, #36902	; 0x9026
 d54:	35160000 	ldrcc	r0, [r6, #-0]
 d58:	00000000 	andeq	r0, r0, r0
 d5c:	25011101 	strcs	r1, [r1, #-257]	; 0x101
 d60:	030b130e 	movweq	r1, #45838	; 0xb30e
 d64:	110e1b0e 	tstne	lr, lr, lsl #22
 d68:	10061201 	andne	r1, r6, r1, lsl #4
 d6c:	02000017 	andeq	r0, r0, #23
 d70:	0b0b0024 	bleq	2c0e08 <__bss_end__+0x2b75f0>
 d74:	08030b3e 	stmdaeq	r3, {r1, r2, r3, r4, r5, r8, r9, fp}
 d78:	24030000 	strcs	r0, [r3], #-0
 d7c:	3e0b0b00 	vmlacc.f64	d0, d11, d0
 d80:	000e030b 	andeq	r0, lr, fp, lsl #6
 d84:	012e0400 	teqeq	lr, r0, lsl #8
 d88:	0b3a0e03 	bleq	e8459c <__bss_end__+0xe7ad84>
 d8c:	19270b3b 	stmdbne	r7!, {r0, r1, r3, r4, r5, r8, r9, fp}
 d90:	01111349 	tsteq	r1, r9, asr #6
 d94:	18400612 	stmdane	r0, {r1, r4, r9, sl}^
 d98:	01194297 			; <UNDEFINED> instruction: 0x01194297
 d9c:	05000013 	streq	r0, [r0, #-19]
 da0:	08030005 	stmdaeq	r3, {r0, r2}
 da4:	0b3b0b3a 	bleq	ec3a94 <__bss_end__+0xeba27c>
 da8:	17021349 	strne	r1, [r2, -r9, asr #6]
 dac:	89060000 	stmdbhi	r6, {}	; <UNPREDICTABLE>
 db0:	11010182 	smlabbne	r1, r2, r1, r0
 db4:	00133101 	andseq	r3, r3, r1, lsl #2
 db8:	828a0700 	addhi	r0, sl, #0, 14
 dbc:	18020001 	stmdane	r2, {r0}
 dc0:	00184291 	mulseq	r8, r1, r2
 dc4:	002e0800 	eoreq	r0, lr, r0, lsl #16
 dc8:	0e03193f 	mcreq	9, 0, r1, cr3, cr15, {1}
 dcc:	0b3b0b3a 	bleq	ec3abc <__bss_end__+0xeba2a4>
 dd0:	01111927 	tsteq	r1, r7, lsr #18
 dd4:	18400612 	stmdane	r0, {r1, r4, r9, sl}^
 dd8:	00194297 	mulseq	r9, r7, r2
 ddc:	012e0900 	teqeq	lr, r0, lsl #18
 de0:	0e03193f 	mcreq	9, 0, r1, cr3, cr15, {1}
 de4:	0b3b0b3a 	bleq	ec3ad4 <__bss_end__+0xeba2bc>
 de8:	01111927 	tsteq	r1, r7, lsr #18
 dec:	18400612 	stmdane	r0, {r1, r4, r9, sl}^
 df0:	01194297 			; <UNDEFINED> instruction: 0x01194297
 df4:	0a000013 	beq	e48 <_start-0x71b8>
 df8:	08030005 	stmdaeq	r3, {r0, r2}
 dfc:	0b3b0b3a 	bleq	ec3aec <__bss_end__+0xeba2d4>
 e00:	18021349 	stmdane	r2, {r0, r3, r6, r8, r9, ip}
 e04:	150b0000 	strne	r0, [fp, #-0]
 e08:	49192701 	ldmdbmi	r9, {r0, r8, r9, sl, sp}
 e0c:	00130113 	andseq	r0, r3, r3, lsl r1
 e10:	00050c00 	andeq	r0, r5, r0, lsl #24
 e14:	00001349 	andeq	r1, r0, r9, asr #6
 e18:	0b000f0d 	bleq	4a54 <_start-0x35ac>
 e1c:	0013490b 	andseq	r4, r3, fp, lsl #18
 e20:	00340e00 	eorseq	r0, r4, r0, lsl #28
 e24:	0b3a0e03 	bleq	e84638 <__bss_end__+0xe7ae20>
 e28:	13490b3b 	movtne	r0, #39739	; 0x9b3b
 e2c:	1802193f 	stmdane	r2, {r0, r1, r2, r3, r4, r5, r8, fp, ip}
 e30:	2e0f0000 	cdpcs	0, 0, cr0, cr15, cr0, {0}
 e34:	03193f01 	tsteq	r9, #1, 30
 e38:	3b0b3a0e 	blcc	2cf678 <__bss_end__+0x2c5e60>
 e3c:	3c19270b 	ldccc	7, cr2, [r9], {11}
 e40:	00000019 	andeq	r0, r0, r9, lsl r0

Disassembly of section .debug_loc:

00000000 <.debug_loc>:
       0:	00000044 	andeq	r0, r0, r4, asr #32
       4:	00000048 	andeq	r0, r0, r8, asr #32
       8:	48500001 	ldmdami	r0, {r0}^
       c:	4b000000 	blmi	14 <_start-0x7fec>
      10:	01000000 	mrseq	r0, (UNDEF: 0)
      14:	00585100 	subseq	r5, r8, r0, lsl #2
      18:	00640000 	rsbeq	r0, r4, r0
      1c:	00010000 	andeq	r0, r1, r0
      20:	00006450 	andeq	r6, r0, r0, asr r4
      24:	00006700 	andeq	r6, r0, r0, lsl #14
      28:	51000100 	mrspl	r0, (UNDEF: 16)
	...
      34:	0000002c 	andeq	r0, r0, ip, lsr #32
      38:	00000044 	andeq	r0, r0, r4, asr #32
      3c:	9f300002 	svcls	0x00300002
      40:	00000044 	andeq	r0, r0, r4, asr #32
      44:	000000a0 	andeq	r0, r0, r0, lsr #1
      48:	00560001 	subseq	r0, r6, r1
	...
      54:	14000000 	strne	r0, [r0], #-0
      58:	01000000 	mrseq	r0, (UNDEF: 0)
      5c:	00145000 	andseq	r5, r4, r0
      60:	004c0000 	subeq	r0, ip, r0
      64:	00010000 	andeq	r0, r1, r0
      68:	00000054 	andeq	r0, r0, r4, asr r0
	...
      74:	00001400 	andeq	r1, r0, r0, lsl #8
      78:	51000100 	mrspl	r0, (UNDEF: 16)
      7c:	00000014 	andeq	r0, r0, r4, lsl r0
      80:	0000004c 	andeq	r0, r0, ip, asr #32
      84:	00550001 	subseq	r0, r5, r1
	...
      90:	14000000 	strne	r0, [r0], #-0
      94:	01000000 	mrseq	r0, (UNDEF: 0)
      98:	00145200 	andseq	r5, r4, r0, lsl #4
      9c:	004c0000 	subeq	r0, ip, r0
      a0:	00010000 	andeq	r0, r1, r0
      a4:	00000057 	andeq	r0, r0, r7, asr r0
      a8:	00000000 	andeq	r0, r0, r0
      ac:	00002800 	andeq	r2, r0, r0, lsl #16
      b0:	00003c00 	andeq	r3, r0, r0, lsl #24
      b4:	50000100 	andpl	r0, r0, r0, lsl #2
	...
      c0:	0000004c 	andeq	r0, r0, ip, asr #32
      c4:	0000006b 	andeq	r0, r0, fp, rrx
      c8:	6b510001 	blvs	14400d4 <__bss_end__+0x14368bc>
      cc:	90000000 	andls	r0, r0, r0
      d0:	01000000 	mrseq	r0, (UNDEF: 0)
      d4:	00005600 	andeq	r5, r0, r0, lsl #12
      d8:	00000000 	andeq	r0, r0, r0
      dc:	004c0000 	subeq	r0, ip, r0
      e0:	006b0000 	rsbeq	r0, fp, r0
      e4:	00010000 	andeq	r0, r1, r0
      e8:	00006b52 	andeq	r6, r0, r2, asr fp
      ec:	00009000 	andeq	r9, r0, r0
      f0:	55000100 	strpl	r0, [r0, #-256]	; 0x100
	...
      fc:	0000004c 	andeq	r0, r0, ip, asr #32
     100:	00000068 	andeq	r0, r0, r8, rrx
     104:	00700002 	rsbseq	r0, r0, r2
     108:	00000068 	andeq	r0, r0, r8, rrx
     10c:	00000090 	muleq	r0, r0, r0
     110:	00740002 	rsbseq	r0, r4, r2
	...
     11c:	00000090 	muleq	r0, r0, r0
     120:	000000a0 	andeq	r0, r0, r0, lsr #1
     124:	a0500001 	subsge	r0, r0, r1
     128:	3c000000 	stccc	0, cr0, [r0], {-0}
     12c:	01000001 	tsteq	r0, r1
     130:	00005400 	andeq	r5, r0, r0, lsl #8
     134:	00000000 	andeq	r0, r0, r0
     138:	00900000 	addseq	r0, r0, r0
     13c:	00a40000 	adceq	r0, r4, r0
     140:	00010000 	andeq	r0, r1, r0
     144:	0000a451 	andeq	sl, r0, r1, asr r4
     148:	00013c00 	andeq	r3, r1, r0, lsl #24
     14c:	55000100 	strpl	r0, [r0, #-256]	; 0x100
	...
     158:	000000e0 	andeq	r0, r0, r0, ror #1
     15c:	000000ec 	andeq	r0, r0, ip, ror #1
     160:	24500001 	ldrbcs	r0, [r0], #-1
     164:	28000001 	stmdacs	r0, {r0}
     168:	01000001 	tsteq	r0, r1
     16c:	00005000 	andeq	r5, r0, r0
     170:	00000000 	andeq	r0, r0, r0
     174:	00f80000 	rscseq	r0, r8, r0
     178:	01030000 	mrseq	r0, (UNDEF: 3)
     17c:	00010000 	andeq	r0, r1, r0
     180:	00012c50 	andeq	r2, r1, r0, asr ip
     184:	00013000 	andeq	r3, r1, r0
     188:	50000100 	andpl	r0, r0, r0, lsl #2
	...
     194:	0000011c 	andeq	r0, r0, ip, lsl r1
     198:	00000120 	andeq	r0, r0, r0, lsr #2
     19c:	00700005 	rsbseq	r0, r0, r5
     1a0:	209f2532 	addscs	r2, pc, r2, lsr r5	; <UNPREDICTABLE>
     1a4:	24000001 	strcs	r0, [r0], #-1
     1a8:	01000001 	tsteq	r0, r1
     1ac:	00005000 	andeq	r5, r0, r0
	...
     1b8:	000b0000 	andeq	r0, fp, r0
     1bc:	00010000 	andeq	r0, r1, r0
     1c0:	00000b50 	andeq	r0, r0, r0, asr fp
     1c4:	00003c00 	andeq	r3, r0, r0, lsl #24
     1c8:	55000100 	strpl	r0, [r0, #-256]	; 0x100
     1cc:	0000003c 	andeq	r0, r0, ip, lsr r0
     1d0:	0000008c 	andeq	r0, r0, ip, lsl #1
     1d4:	01f30004 	mvnseq	r0, r4
     1d8:	00009f50 	andeq	r9, r0, r0, asr pc
     1dc:	00000000 	andeq	r0, r0, r0
     1e0:	00240000 	eoreq	r0, r4, r0
     1e4:	00300000 	eorseq	r0, r0, r0
     1e8:	00020000 	andeq	r0, r2, r0
     1ec:	00309f30 	eorseq	r9, r0, r0, lsr pc
     1f0:	00300000 	eorseq	r0, r0, r0
     1f4:	00010000 	andeq	r0, r1, r0
     1f8:	00003054 	andeq	r3, r0, r4, asr r0
     1fc:	00003800 	andeq	r3, r0, r0, lsl #16
     200:	30000200 	andcc	r0, r0, r0, lsl #4
     204:	0000389f 	muleq	r0, pc, r8	; <UNPREDICTABLE>
     208:	00008c00 	andeq	r8, r0, r0, lsl #24
     20c:	54000100 	strpl	r0, [r0], #-256	; 0x100
	...
     218:	0000008c 	andeq	r0, r0, ip, lsl #1
     21c:	00000097 	muleq	r0, r7, r0
     220:	97500001 	ldrbls	r0, [r0, -r1]
     224:	c8000000 	stmdagt	r0, {}	; <UNPREDICTABLE>
     228:	01000000 	mrseq	r0, (UNDEF: 0)
     22c:	00c85500 	sbceq	r5, r8, r0, lsl #10
     230:	01180000 	tsteq	r8, r0
     234:	00040000 	andeq	r0, r4, r0
     238:	9f5001f3 	svcls	0x005001f3
	...
     244:	000000b0 	strheq	r0, [r0], -r0	; <UNPREDICTABLE>
     248:	000000bc 	strheq	r0, [r0], -ip
     24c:	9f300002 	svcls	0x00300002
     250:	000000bc 	strheq	r0, [r0], -ip
     254:	000000bc 	strheq	r0, [r0], -ip
     258:	bc540001 	mrrclt	0, 0, r0, r4, cr1
     25c:	c4000000 	strgt	r0, [r0], #-0
     260:	02000000 	andeq	r0, r0, #0
     264:	c49f3000 	ldrgt	r3, [pc], #0	; 26c <_start-0x7d94>
     268:	18000000 	stmdane	r0, {}	; <UNPREDICTABLE>
     26c:	01000001 	tsteq	r0, r1
     270:	00005400 	andeq	r5, r0, r0, lsl #8
     274:	00000000 	andeq	r0, r0, r0
     278:	01180000 	tsteq	r8, r0
     27c:	01230000 	teqeq	r3, r0
     280:	00010000 	andeq	r0, r1, r0
     284:	00012350 	andeq	r2, r1, r0, asr r3
     288:	00015400 	andeq	r5, r1, r0, lsl #8
     28c:	55000100 	strpl	r0, [r0, #-256]	; 0x100
     290:	00000154 	andeq	r0, r0, r4, asr r1
     294:	000001a4 	andeq	r0, r0, r4, lsr #3
     298:	01f30004 	mvnseq	r0, r4
     29c:	00009f50 	andeq	r9, r0, r0, asr pc
     2a0:	00000000 	andeq	r0, r0, r0
     2a4:	013c0000 	teqeq	ip, r0
     2a8:	01480000 	mrseq	r0, (UNDEF: 72)
     2ac:	00020000 	andeq	r0, r2, r0
     2b0:	01489f30 	cmpeq	r8, r0, lsr pc
     2b4:	01480000 	mrseq	r0, (UNDEF: 72)
     2b8:	00010000 	andeq	r0, r1, r0
     2bc:	00014854 	andeq	r4, r1, r4, asr r8
     2c0:	00015000 	andeq	r5, r1, r0
     2c4:	30000200 	andcc	r0, r0, r0, lsl #4
     2c8:	0001509f 	muleq	r1, pc, r0	; <UNPREDICTABLE>
     2cc:	0001a400 	andeq	sl, r1, r0, lsl #8
     2d0:	54000100 	strpl	r0, [r0], #-256	; 0x100
	...
     2dc:	0000002c 	andeq	r0, r0, ip, lsr #32
     2e0:	00000038 	andeq	r0, r0, r8, lsr r0
     2e4:	38500001 	ldmdacc	r0, {r0}^
     2e8:	48000000 	stmdami	r0, {}	; <UNPREDICTABLE>
     2ec:	01000000 	mrseq	r0, (UNDEF: 0)
     2f0:	00485500 	subeq	r5, r8, r0, lsl #10
     2f4:	00580000 	subseq	r0, r8, r0
     2f8:	00010000 	andeq	r0, r1, r0
     2fc:	00000050 	andeq	r0, r0, r0, asr r0
	...
     308:	00001000 	andeq	r1, r0, r0
     30c:	50000100 	andpl	r0, r0, r0, lsl #2
     310:	00000010 	andeq	r0, r0, r0, lsl r0
     314:	00000034 	andeq	r0, r0, r4, lsr r0
     318:	00540001 	subseq	r0, r4, r1
	...
     324:	04000000 	streq	r0, [r0], #-0
     328:	01000000 	mrseq	r0, (UNDEF: 0)
     32c:	00045000 	andeq	r5, r4, r0
     330:	000c0000 	andeq	r0, ip, r0
     334:	00030000 	andeq	r0, r3, r0
     338:	0c9f3070 	ldceq	0, cr3, [pc], {112}	; 0x70
     33c:	14000000 	strne	r0, [r0], #-0
     340:	04000000 	streq	r0, [r0], #-0
     344:	5001f300 	andpl	pc, r1, r0, lsl #6
     348:	0000009f 	muleq	r0, pc, r0	; <UNPREDICTABLE>
     34c:	00000000 	andeq	r0, r0, r0
     350:	00001400 	andeq	r1, r0, r0, lsl #8
     354:	00002000 	andeq	r2, r0, r0
     358:	50000100 	andpl	r0, r0, r0, lsl #2
     35c:	00000020 	andeq	r0, r0, r0, lsr #32
     360:	0000002c 	andeq	r0, r0, ip, lsr #32
     364:	01700003 	cmneq	r0, r3
     368:	00002c9f 	muleq	r0, pc, ip	; <UNPREDICTABLE>
     36c:	00004000 	andeq	r4, r0, r0
     370:	50000100 	andpl	r0, r0, r0, lsl #2
	...
     37c:	00000014 	andeq	r0, r0, r4, lsl r0
     380:	00000018 	andeq	r0, r0, r8, lsl r0
     384:	18510001 	ldmdane	r1, {r0}^
     388:	40000000 	andmi	r0, r0, r0
     38c:	04000000 	streq	r0, [r0], #-0
     390:	5101f300 	mrspl	pc, SP_irq	; <UNPREDICTABLE>
     394:	0000009f 	muleq	r0, pc, r0	; <UNPREDICTABLE>
     398:	00000000 	andeq	r0, r0, r0
     39c:	00004000 	andeq	r4, r0, r0
     3a0:	00006000 	andeq	r6, r0, r0
     3a4:	50000100 	andpl	r0, r0, r0, lsl #2
     3a8:	00000060 	andeq	r0, r0, r0, rrx
     3ac:	0000006c 	andeq	r0, r0, ip, rrx
     3b0:	01710003 	cmneq	r1, r3
     3b4:	00006c9f 	muleq	r0, pc, ip	; <UNPREDICTABLE>
     3b8:	00007400 	andeq	r7, r0, r0, lsl #8
     3bc:	51000100 	mrspl	r0, (UNDEF: 16)
     3c0:	00000074 	andeq	r0, r0, r4, ror r0
     3c4:	00000080 	andeq	r0, r0, r0, lsl #1
     3c8:	01710003 	cmneq	r1, r3
     3cc:	0000009f 	muleq	r0, pc, r0	; <UNPREDICTABLE>
     3d0:	00000000 	andeq	r0, r0, r0
     3d4:	00004000 	andeq	r4, r0, r0
     3d8:	00005000 	andeq	r5, r0, r0
     3dc:	51000100 	mrspl	r0, (UNDEF: 16)
     3e0:	00000050 	andeq	r0, r0, r0, asr r0
     3e4:	00000080 	andeq	r0, r0, r0, lsl #1
     3e8:	01f30004 	mvnseq	r0, r4
     3ec:	00009f51 	andeq	r9, r0, r1, asr pc
     3f0:	00000000 	andeq	r0, r0, r0
     3f4:	00400000 	subeq	r0, r0, r0
     3f8:	00580000 	subseq	r0, r8, r0
     3fc:	00010000 	andeq	r0, r1, r0
     400:	00005852 	andeq	r5, r0, r2, asr r8
     404:	00006400 	andeq	r6, r0, r0, lsl #8
     408:	52000100 	andpl	r0, r0, #0, 2
     40c:	00000064 	andeq	r0, r0, r4, rrx
     410:	00000068 	andeq	r0, r0, r8, rrx
     414:	01720003 	cmneq	r2, r3
     418:	0000689f 	muleq	r0, pc, r8	; <UNPREDICTABLE>
     41c:	00008000 	andeq	r8, r0, r0
     420:	52000100 	andpl	r0, r0, #0, 2
	...
     42c:	00000040 	andeq	r0, r0, r0, asr #32
     430:	00000054 	andeq	r0, r0, r4, asr r0
     434:	54530001 	ldrbpl	r0, [r3], #-1
     438:	78000000 	stmdavc	r0, {}	; <UNPREDICTABLE>
     43c:	01000000 	mrseq	r0, (UNDEF: 0)
     440:	00005300 	andeq	r5, r0, r0, lsl #6
     444:	00000000 	andeq	r0, r0, r0
     448:	00480000 	subeq	r0, r8, r0
     44c:	00600000 	rsbeq	r0, r0, r0
     450:	00010000 	andeq	r0, r1, r0
     454:	0000605c 	andeq	r6, r0, ip, asr r0
     458:	00008000 	andeq	r8, r0, r0
     45c:	f3000a00 	vpmax.u8	d0, d0, d0
     460:	01f35201 	mvnseq	r5, r1, lsl #4
     464:	01231c53 	teqeq	r3, r3, asr ip
     468:	0000009f 	muleq	r0, pc, r0	; <UNPREDICTABLE>
     46c:	00000000 	andeq	r0, r0, r0
     470:	00008000 	andeq	r8, r0, r0
     474:	0000a400 	andeq	sl, r0, r0, lsl #8
     478:	50000100 	andpl	r0, r0, r0, lsl #2
     47c:	000000a4 	andeq	r0, r0, r4, lsr #1
     480:	00000118 	andeq	r0, r0, r8, lsl r1
     484:	02700003 	rsbseq	r0, r0, #3
     488:	0001189f 	muleq	r1, pc, r8	; <UNPREDICTABLE>
     48c:	00021c00 	andeq	r1, r2, r0, lsl #24
     490:	f3000400 	vshl.u8	d0, d0, d0
     494:	009f5001 	addseq	r5, pc, r1
     498:	00000000 	andeq	r0, r0, r0
     49c:	80000000 	andhi	r0, r0, r0
     4a0:	f0000000 			; <UNDEFINED> instruction: 0xf0000000
     4a4:	01000000 	mrseq	r0, (UNDEF: 0)
     4a8:	00f05100 	rscseq	r5, r0, r0, lsl #2
     4ac:	01600000 	cmneq	r0, r0
     4b0:	00010000 	andeq	r0, r1, r0
     4b4:	00016055 	andeq	r6, r1, r5, asr r0
     4b8:	00016800 	andeq	r6, r1, r0, lsl #16
     4bc:	51000100 	mrspl	r0, (UNDEF: 16)
     4c0:	00000168 	andeq	r0, r0, r8, ror #2
     4c4:	00000188 	andeq	r0, r0, r8, lsl #3
     4c8:	88550001 	ldmdahi	r5, {r0}^
     4cc:	9c000001 	stcls	0, cr0, [r0], {1}
     4d0:	01000001 	tsteq	r0, r1
     4d4:	019c5100 	orrseq	r5, ip, r0, lsl #2
     4d8:	01bc0000 			; <UNDEFINED> instruction: 0x01bc0000
     4dc:	00010000 	andeq	r0, r1, r0
     4e0:	0001bc55 	andeq	fp, r1, r5, asr ip
     4e4:	0001bf00 	andeq	fp, r1, r0, lsl #30
     4e8:	51000100 	mrspl	r0, (UNDEF: 16)
     4ec:	000001bf 			; <UNDEFINED> instruction: 0x000001bf
     4f0:	00000200 	andeq	r0, r0, r0, lsl #4
     4f4:	00550001 	subseq	r0, r5, r1
     4f8:	1c000002 	stcne	0, cr0, [r0], {2}
     4fc:	04000002 	streq	r0, [r0], #-2
     500:	5101f300 	mrspl	pc, SP_irq	; <UNPREDICTABLE>
     504:	0000009f 	muleq	r0, pc, r0	; <UNPREDICTABLE>
     508:	00000000 	andeq	r0, r0, r0
     50c:	00008000 	andeq	r8, r0, r0
     510:	00009400 	andeq	r9, r0, r0, lsl #8
     514:	52000100 	andpl	r0, r0, #0, 2
     518:	00000094 	muleq	r0, r4, r0
     51c:	00000200 	andeq	r0, r0, r0, lsl #4
     520:	00540001 	subseq	r0, r4, r1
     524:	1c000002 	stcne	0, cr0, [r0], {2}
     528:	04000002 	streq	r0, [r0], #-2
     52c:	5201f300 	andpl	pc, r1, #0, 6
     530:	0000009f 	muleq	r0, pc, r0	; <UNPREDICTABLE>
     534:	00000000 	andeq	r0, r0, r0
     538:	00008000 	andeq	r8, r0, r0
     53c:	00010000 	andeq	r0, r1, r0
     540:	53000100 	movwpl	r0, #256	; 0x100
     544:	00000104 	andeq	r0, r0, r4, lsl #2
     548:	00000108 	andeq	r0, r0, r8, lsl #2
     54c:	60530001 	subsvs	r0, r3, r1
     550:	68000001 	stmdavs	r0, {r0}
     554:	01000001 	tsteq	r0, r1
     558:	01685300 	cmneq	r8, r0, lsl #6
     55c:	01880000 	orreq	r0, r8, r0
     560:	00040000 	andeq	r0, r4, r0
     564:	9f5301f3 	svcls	0x005301f3
     568:	00000188 	andeq	r0, r0, r8, lsl #3
     56c:	00000190 	muleq	r0, r0, r1
     570:	90530001 	subsls	r0, r3, r1
     574:	94000001 	strls	r0, [r0], #-1
     578:	01000001 	tsteq	r0, r1
     57c:	01945c00 	orrseq	r5, r4, r0, lsl #24
     580:	019c0000 	orrseq	r0, ip, r0
     584:	00010000 	andeq	r0, r1, r0
     588:	00019c53 	andeq	r9, r1, r3, asr ip
     58c:	0001bc00 	andeq	fp, r1, r0, lsl #24
     590:	f3000400 	vshl.u8	d0, d0, d0
     594:	bc9f5301 	ldclt	3, cr5, [pc], {1}
     598:	bf000001 	svclt	0x00000001
     59c:	01000001 	tsteq	r0, r1
     5a0:	01bf5300 			; <UNDEFINED> instruction: 0x01bf5300
     5a4:	01d80000 	bicseq	r0, r8, r0
     5a8:	00040000 	andeq	r0, r4, r0
     5ac:	9f5301f3 	svcls	0x005301f3
	...
     5b8:	00000080 	andeq	r0, r0, r0, lsl #1
     5bc:	0000009c 	muleq	r0, ip, r0
     5c0:	00910002 	addseq	r0, r1, r2
     5c4:	0000009c 	muleq	r0, ip, r0
     5c8:	000001bf 			; <UNDEFINED> instruction: 0x000001bf
     5cc:	d8520001 	ldmdale	r2, {r0}^
     5d0:	e3000001 	movw	r0, #1
     5d4:	01000001 	tsteq	r0, r1
     5d8:	00005200 	andeq	r5, r0, r0, lsl #4
     5dc:	00000000 	andeq	r0, r0, r0
     5e0:	009c0000 	addseq	r0, ip, r0
     5e4:	01180000 	tsteq	r8, r0
     5e8:	00010000 	andeq	r0, r1, r0
     5ec:	0001185d 	andeq	r1, r1, sp, asr r8
     5f0:	00011c00 	andeq	r1, r1, r0, lsl #24
     5f4:	53000100 	movwpl	r0, #256	; 0x100
     5f8:	0000011c 	andeq	r0, r0, ip, lsl r1
     5fc:	00000120 	andeq	r0, r0, r0, lsr #2
     600:	20510001 	subscs	r0, r1, r1
     604:	60000001 	andvs	r0, r0, r1
     608:	01000001 	tsteq	r0, r1
     60c:	01605300 	cmneq	r0, r0, lsl #6
     610:	01680000 	cmneq	r8, r0
     614:	00010000 	andeq	r0, r1, r0
     618:	0001685d 	andeq	r6, r1, sp, asr r8
     61c:	00016c00 	andeq	r6, r1, r0, lsl #24
     620:	5e000100 	adfpls	f0, f0, f0
     624:	0000016c 	andeq	r0, r0, ip, ror #2
     628:	00000188 	andeq	r0, r0, r8, lsl #3
     62c:	88530001 	ldmdahi	r3, {r0}^
     630:	90000001 	andls	r0, r0, r1
     634:	04000001 	streq	r0, [r0], #-1
     638:	7fa19100 	svcvc	0x00a19100
     63c:	0001909f 	muleq	r1, pc, r0	; <UNPREDICTABLE>
     640:	00019400 	andeq	r9, r1, r0, lsl #8
     644:	53000100 	movwpl	r0, #256	; 0x100
     648:	00000194 	muleq	r0, r4, r1
     64c:	0000019c 	muleq	r0, ip, r1
     650:	9c5d0001 	mrrcls	0, 0, r0, sp, cr1
     654:	a0000001 	andge	r0, r0, r1
     658:	01000001 	tsteq	r0, r1
     65c:	01a05e00 	lsleq	r5, r0, #28
     660:	01bc0000 			; <UNDEFINED> instruction: 0x01bc0000
     664:	00010000 	andeq	r0, r1, r0
     668:	0001bc53 	andeq	fp, r1, r3, asr ip
     66c:	0001d800 	andeq	sp, r1, r0, lsl #16
     670:	5d000100 	stfpls	f0, [r0, #-0]
     674:	000001d8 	ldrdeq	r0, [r0], -r8
     678:	000001e3 	andeq	r0, r0, r3, ror #3
     67c:	00530001 	subseq	r0, r3, r1
     680:	00000000 	andeq	r0, r0, r0
     684:	a0000000 	andge	r0, r0, r0
     688:	ec000000 	stc	0, cr0, [r0], {-0}
     68c:	01000000 	mrseq	r0, (UNDEF: 0)
     690:	00ec5c00 	rsceq	r5, ip, r0, lsl #24
     694:	01000000 	mrseq	r0, (UNDEF: 0)
     698:	00010000 	andeq	r0, r1, r0
     69c:	00010053 	andeq	r0, r1, r3, asr r0
     6a0:	00010400 	andeq	r0, r1, r0, lsl #8
     6a4:	5c000100 	stfpls	f0, [r0], {-0}
     6a8:	00000104 	andeq	r0, r0, r4, lsl #2
     6ac:	00000108 	andeq	r0, r0, r8, lsl #2
     6b0:	08530001 	ldmdaeq	r3, {r0}^
     6b4:	18000001 	stmdane	r0, {r0}
     6b8:	01000001 	tsteq	r0, r1
     6bc:	01185c00 	tsteq	r8, r0, lsl #24
     6c0:	011c0000 	tsteq	ip, r0
     6c4:	00010000 	andeq	r0, r1, r0
     6c8:	00011c50 	andeq	r1, r1, r0, asr ip
     6cc:	00013c00 	andeq	r3, r1, r0, lsl #24
     6d0:	5c000100 	stfpls	f0, [r0], {-0}
     6d4:	00000144 	andeq	r0, r0, r4, asr #2
     6d8:	00000158 	andeq	r0, r0, r8, asr r1
     6dc:	58500001 	ldmdapl	r0, {r0}^
     6e0:	60000001 	andvs	r0, r0, r1
     6e4:	01000001 	tsteq	r0, r1
     6e8:	01605c00 	cmneq	r0, r0, lsl #24
     6ec:	01680000 	cmneq	r8, r0
     6f0:	00010000 	andeq	r0, r1, r0
     6f4:	00016853 	andeq	r6, r1, r3, asr r8
     6f8:	00017800 	andeq	r7, r1, r0, lsl #16
     6fc:	5c000100 	stfpls	f0, [r0], {-0}
     700:	00000178 	andeq	r0, r0, r8, ror r1
     704:	00000180 	andeq	r0, r0, r0, lsl #3
     708:	007c0005 	rsbseq	r0, ip, r5
     70c:	809f2534 	addshi	r2, pc, r4, lsr r5	; <UNPREDICTABLE>
     710:	88000001 	stmdahi	r0, {r0}
     714:	01000001 	tsteq	r0, r1
     718:	01885c00 	orreq	r5, r8, r0, lsl #24
     71c:	01900000 	orrseq	r0, r0, r0
     720:	00010000 	andeq	r0, r1, r0
     724:	00019053 	andeq	r9, r1, r3, asr r0
     728:	00019400 	andeq	r9, r1, r0, lsl #8
     72c:	5c000100 	stfpls	f0, [r0], {-0}
     730:	00000194 	muleq	r0, r4, r1
     734:	0000019c 	muleq	r0, ip, r1
     738:	9c530001 	mrrcls	0, 0, r0, r3, cr1
     73c:	ac000001 	stcge	0, cr0, [r0], {1}
     740:	01000001 	tsteq	r0, r1
     744:	01ac5c00 			; <UNDEFINED> instruction: 0x01ac5c00
     748:	01b40000 			; <UNDEFINED> instruction: 0x01b40000
     74c:	00050000 	andeq	r0, r5, r0
     750:	2531007c 	ldrcs	r0, [r1, #-124]!	; 0x7c
     754:	0001b49f 	muleq	r1, pc, r4	; <UNPREDICTABLE>
     758:	0001bc00 	andeq	fp, r1, r0, lsl #24
     75c:	5c000100 	stfpls	f0, [r0], {-0}
     760:	000001bc 			; <UNDEFINED> instruction: 0x000001bc
     764:	000001bf 			; <UNDEFINED> instruction: 0x000001bf
     768:	bf530001 	svclt	0x00530001
     76c:	d8000001 	stmdale	r0, {r0}
     770:	04000001 	streq	r0, [r0], #-1
     774:	5301f300 	movwpl	pc, #4864	; 0x1300	; <UNPREDICTABLE>
     778:	0001d89f 	muleq	r1, pc, r8	; <UNPREDICTABLE>
     77c:	0001e300 	andeq	lr, r1, r0, lsl #6
     780:	5c000100 	stfpls	f0, [r0], {-0}
	...
     78c:	000000ec 	andeq	r0, r0, ip, ror #1
     790:	000000fc 	strdeq	r0, [r0], -ip
     794:	9f300002 	svcls	0x00300002
     798:	000000fc 	strdeq	r0, [r0], -ip
     79c:	00000104 	andeq	r0, r0, r4, lsl #2
     7a0:	9f310002 	svcls	0x00310002
     7a4:	00000104 	andeq	r0, r0, r4, lsl #2
     7a8:	00000108 	andeq	r0, r0, r8, lsl #2
     7ac:	9f300002 	svcls	0x00300002
	...
     7b8:	0000021c 	andeq	r0, r0, ip, lsl r2
     7bc:	0000022b 	andeq	r0, r0, fp, lsr #4
     7c0:	2b500001 	blcs	14007cc <__bss_end__+0x13f6fb4>
     7c4:	44000002 	strmi	r0, [r0], #-2
     7c8:	04000002 	streq	r0, [r0], #-2
     7cc:	5001f300 	andpl	pc, r1, r0, lsl #6
     7d0:	0002449f 	muleq	r2, pc, r4	; <UNPREDICTABLE>
     7d4:	00027000 	andeq	r7, r2, r0
     7d8:	50000100 	andpl	r0, r0, r0, lsl #2
	...
     7e4:	0000021c 	andeq	r0, r0, ip, lsl r2
     7e8:	0000022b 	andeq	r0, r0, fp, lsr #4
     7ec:	2b510001 	blcs	14407f8 <__bss_end__+0x1436fe0>
     7f0:	44000002 	strmi	r0, [r0], #-2
     7f4:	04000002 	streq	r0, [r0], #-2
     7f8:	5101f300 	mrspl	pc, SP_irq	; <UNPREDICTABLE>
     7fc:	0002449f 	muleq	r2, pc, r4	; <UNPREDICTABLE>
     800:	00027000 	andeq	r7, r2, r0
     804:	51000100 	mrspl	r0, (UNDEF: 16)
	...
     810:	00000270 	andeq	r0, r0, r0, ror r2
     814:	0000029c 	muleq	r0, ip, r2
     818:	9c500001 	mrrcls	0, 0, r0, r0, cr1	; <UNPREDICTABLE>
     81c:	e4000002 	str	r0, [r0], #-2
     820:	01000004 	tsteq	r0, r4
     824:	04e45a00 	strbteq	r5, [r4], #2560	; 0xa00
     828:	04f80000 	ldrbteq	r0, [r8], #0
     82c:	00040000 	andeq	r0, r4, r0
     830:	9f5001f3 	svcls	0x005001f3
	...
     83c:	00000270 	andeq	r0, r0, r0, ror r2
     840:	00000284 	andeq	r0, r0, r4, lsl #5
     844:	84510001 	ldrbhi	r0, [r1], #-1
     848:	9c000002 	stcls	0, cr0, [r0], {2}
     84c:	03000002 	movweq	r0, #2
     850:	9f017100 	svcls	0x00017100
     854:	0000029c 	muleq	r0, ip, r2
     858:	000004f8 	strdeq	r0, [r0], -r8
     85c:	01f30004 	mvnseq	r0, r4
     860:	00009f51 	andeq	r9, r0, r1, asr pc
     864:	00000000 	andeq	r0, r0, r0
     868:	02700000 	rsbseq	r0, r0, #0
     86c:	02a40000 	adceq	r0, r4, #0
     870:	00010000 	andeq	r0, r1, r0
     874:	0002a452 	andeq	sl, r2, r2, asr r4
     878:	0002cc00 	andeq	ip, r2, r0, lsl #24
     87c:	52000100 	andpl	r0, r0, #0, 2
     880:	000002cc 	andeq	r0, r0, ip, asr #5
     884:	00000494 	muleq	r0, r4, r4
     888:	94560001 	ldrbls	r0, [r6], #-1
     88c:	f8000004 			; <UNDEFINED> instruction: 0xf8000004
     890:	01000004 	tsteq	r0, r4
     894:	00005200 	andeq	r5, r0, r0, lsl #4
     898:	00000000 	andeq	r0, r0, r0
     89c:	02700000 	rsbseq	r0, r0, #0
     8a0:	028c0000 	addeq	r0, ip, #0
     8a4:	00010000 	andeq	r0, r1, r0
     8a8:	00000053 	andeq	r0, r0, r3, asr r0
     8ac:	00000000 	andeq	r0, r0, r0
     8b0:	00028000 	andeq	r8, r2, r0
     8b4:	00029c00 	andeq	r9, r2, r0, lsl #24
     8b8:	50000100 	andpl	r0, r0, r0, lsl #2
     8bc:	0000029c 	muleq	r0, ip, r2
     8c0:	000002a0 	andeq	r0, r0, r0, lsr #5
     8c4:	a0540001 	subsge	r0, r4, r1
     8c8:	ac000002 	stcge	0, cr0, [r0], {2}
     8cc:	03000002 	movweq	r0, #2
     8d0:	9f017400 	svcls	0x00017400
     8d4:	000002ac 	andeq	r0, r0, ip, lsr #5
     8d8:	000002b8 			; <UNDEFINED> instruction: 0x000002b8
     8dc:	b8540001 	ldmdalt	r4, {r0}^
     8e0:	c4000002 	strgt	r0, [r0], #-2
     8e4:	03000002 	movweq	r0, #2
     8e8:	9f017400 	svcls	0x00017400
     8ec:	000002c4 	andeq	r0, r0, r4, asr #5
     8f0:	00000498 	muleq	r0, r8, r4
     8f4:	98540001 	ldmdals	r4, {r0}^
     8f8:	a4000004 	strge	r0, [r0], #-4
     8fc:	03000004 	movweq	r0, #4
     900:	9f017400 	svcls	0x00017400
     904:	000004a4 	andeq	r0, r0, r4, lsr #9
     908:	000004d0 	ldrdeq	r0, [r0], -r0	; <UNPREDICTABLE>
     90c:	d0540001 	subsle	r0, r4, r1
     910:	dc000004 	stcle	0, cr0, [r0], {4}
     914:	01000004 	tsteq	r0, r4
     918:	04dc5000 	ldrbeq	r5, [ip], #0
     91c:	04e40000 	strbteq	r0, [r4], #0
     920:	00030000 	andeq	r0, r3, r0
     924:	009f0174 	addseq	r0, pc, r4, ror r1	; <UNPREDICTABLE>
     928:	00000000 	andeq	r0, r0, r0
     92c:	88000000 	stmdahi	r0, {}	; <UNPREDICTABLE>
     930:	e4000002 	str	r0, [r0], #-2
     934:	01000004 	tsteq	r0, r4
     938:	04e45800 	strbteq	r5, [r4], #2048	; 0x800
     93c:	04f80000 	ldrbteq	r0, [r8], #0
     940:	000a0000 	andeq	r0, sl, r0
     944:	f35101f3 	vbsl	q8, <illegal reg q8.5>, <illegal reg q9.5>
     948:	31225001 	teqcc	r2, r1
     94c:	00009f1c 	andeq	r9, r0, ip, lsl pc
     950:	00000000 	andeq	r0, r0, r0
     954:	03cc0000 	biceq	r0, ip, #0
     958:	03d00000 	bicseq	r0, r0, #0
     95c:	00010000 	andeq	r0, r1, r0
     960:	0003f050 	andeq	pc, r3, r0, asr r0	; <UNPREDICTABLE>
     964:	0003f400 	andeq	pc, r3, r0, lsl #8
     968:	50000100 	andpl	r0, r0, r0, lsl #2
     96c:	00000414 	andeq	r0, r0, r4, lsl r4
     970:	00000418 	andeq	r0, r0, r8, lsl r4
     974:	38500001 	ldmdacc	r0, {r0}^
     978:	3c000004 	stccc	0, cr0, [r0], {4}
     97c:	01000004 	tsteq	r0, r4
     980:	04445000 	strbeq	r5, [r4], #-0
     984:	04480000 	strbeq	r0, [r8], #-0
     988:	00010000 	andeq	r0, r1, r0
     98c:	00046850 	andeq	r6, r4, r0, asr r8
     990:	00046c00 	andeq	r6, r4, r0, lsl #24
     994:	50000100 	andpl	r0, r0, r0, lsl #2
     998:	00000490 	muleq	r0, r0, r4
     99c:	000004b8 			; <UNDEFINED> instruction: 0x000004b8
     9a0:	00500001 	subseq	r0, r0, r1
     9a4:	00000000 	andeq	r0, r0, r0
     9a8:	cc000000 	stcgt	0, cr0, [r0], {-0}
     9ac:	d4000002 	strle	r0, [r0], #-2
     9b0:	02000002 	andeq	r0, r0, #2
     9b4:	d49f3000 	ldrle	r3, [pc], #0	; 9bc <_start-0x7644>
     9b8:	d8000002 	stmdale	r0, {r1}
     9bc:	01000002 	tsteq	r0, r2
     9c0:	02e45700 	rsceq	r5, r4, #0, 14
     9c4:	04b80000 	ldrteq	r0, [r8], #0
     9c8:	00010000 	andeq	r0, r1, r0
     9cc:	00000057 	andeq	r0, r0, r7, asr r0
     9d0:	00000000 	andeq	r0, r0, r0
     9d4:	00001400 	andeq	r1, r0, r0, lsl #8
     9d8:	00001c00 	andeq	r1, r0, r0, lsl #24
     9dc:	73000300 	movwvc	r0, #768	; 0x300
     9e0:	001c9f04 	andseq	r9, ip, r4, lsl #30
     9e4:	00270000 	eoreq	r0, r7, r0
     9e8:	00010000 	andeq	r0, r1, r0
     9ec:	00000053 	andeq	r0, r0, r3, asr r0
     9f0:	00000000 	andeq	r0, r0, r0
     9f4:	00897000 	addeq	r7, r9, r0
     9f8:	00897400 	addeq	r7, r9, r0, lsl #8
     9fc:	30000200 	andcc	r0, r0, r0, lsl #4
     a00:	0089749f 	umulleq	r7, r9, pc, r4	; <UNPREDICTABLE>
     a04:	00897800 	addeq	r7, r9, r0, lsl #16
     a08:	50000100 	andpl	r0, r0, r0, lsl #2
	...
     a14:	00008988 	andeq	r8, r0, r8, lsl #19
     a18:	0000898c 	andeq	r8, r0, ip, lsl #19
     a1c:	9f300002 	svcls	0x00300002
     a20:	0000898c 	andeq	r8, r0, ip, lsl #19
     a24:	00008990 	muleq	r0, r0, r9
     a28:	94530001 	ldrbls	r0, [r3], #-1
     a2c:	9c000089 	stcls	0, cr0, [r0], {137}	; 0x89
     a30:	01000089 	smlabbeq	r0, r9, r0, r0
     a34:	00005300 	andeq	r5, r0, r0, lsl #6
	...
     a40:	00040000 	andeq	r0, r4, r0
     a44:	00010000 	andeq	r0, r1, r0
     a48:	00000450 	andeq	r0, r0, r0, asr r4
     a4c:	00000c00 	andeq	r0, r0, r0, lsl #24
     a50:	53000100 	movwpl	r0, #256	; 0x100
     a54:	0000000c 	andeq	r0, r0, ip
     a58:	00000010 	andeq	r0, r0, r0, lsl r0
     a5c:	10500001 	subsne	r0, r0, r1
     a60:	1c000000 	stcne	0, cr0, [r0], {-0}
     a64:	01000000 	mrseq	r0, (UNDEF: 0)
     a68:	00005300 	andeq	r5, r0, r0, lsl #6
     a6c:	00000000 	andeq	r0, r0, r0
     a70:	003c0000 	eorseq	r0, ip, r0
     a74:	00470000 	subeq	r0, r7, r0
     a78:	00010000 	andeq	r0, r1, r0
     a7c:	00004750 	andeq	r4, r0, r0, asr r7
     a80:	00006000 	andeq	r6, r0, r0
     a84:	55000100 	strpl	r0, [r0, #-256]	; 0x100
	...
     a90:	00000050 	andeq	r0, r0, r0, asr r0
     a94:	00000054 	andeq	r0, r0, r4, asr r0
     a98:	00500001 	subseq	r0, r0, r1
     a9c:	00000000 	andeq	r0, r0, r0
     aa0:	60000000 	andvs	r0, r0, r0
     aa4:	6c000000 	stcvs	0, cr0, [r0], {-0}
     aa8:	01000000 	mrseq	r0, (UNDEF: 0)
     aac:	006c5000 	rsbeq	r5, ip, r0
     ab0:	00740000 	rsbseq	r0, r4, r0
     ab4:	00040000 	andeq	r0, r4, r0
     ab8:	9f5001f3 	svcls	0x005001f3
	...
     ac4:	00000074 	andeq	r0, r0, r4, ror r0
     ac8:	00000080 	andeq	r0, r0, r0, lsl #1
     acc:	80500001 	subshi	r0, r0, r1
     ad0:	88000000 	stmdahi	r0, {}	; <UNPREDICTABLE>
     ad4:	04000000 	streq	r0, [r0], #-0
     ad8:	5001f300 	andpl	pc, r1, r0, lsl #6
     adc:	0000009f 	muleq	r0, pc, r0	; <UNPREDICTABLE>
	...
     ae8:	00009000 	andeq	r9, r0, r0
     aec:	50000100 	andpl	r0, r0, r0, lsl #2
     af0:	00000090 	muleq	r0, r0, r0
     af4:	000000d4 	ldrdeq	r0, [r0], -r4
     af8:	00540001 	subseq	r0, r4, r1
     afc:	00000000 	andeq	r0, r0, r0
     b00:	48000000 	stmdami	r0, {}	; <UNPREDICTABLE>
     b04:	4c000000 	stcmi	0, cr0, [r0], {-0}
     b08:	01000000 	mrseq	r0, (UNDEF: 0)
     b0c:	00545500 	subseq	r5, r4, r0, lsl #10
     b10:	00580000 	subseq	r0, r8, r0
     b14:	00010000 	andeq	r0, r1, r0
     b18:	00006055 	andeq	r6, r0, r5, asr r0
     b1c:	00006400 	andeq	r6, r0, r0, lsl #8
     b20:	55000100 	strpl	r0, [r0, #-256]	; 0x100
     b24:	0000006c 	andeq	r0, r0, ip, rrx
     b28:	00000070 	andeq	r0, r0, r0, ror r0
     b2c:	78550001 	ldmdavc	r5, {r0}^
     b30:	7c000000 	stcvc	0, cr0, [r0], {-0}
     b34:	01000000 	mrseq	r0, (UNDEF: 0)
     b38:	00845500 	addeq	r5, r4, r0, lsl #10
     b3c:	00880000 	addeq	r0, r8, r0
     b40:	00010000 	andeq	r0, r1, r0
     b44:	00008c55 	andeq	r8, r0, r5, asr ip
     b48:	0000d400 	andeq	sp, r0, r0, lsl #8
     b4c:	55000100 	strpl	r0, [r0, #-256]	; 0x100
	...
     b58:	0000001c 	andeq	r0, r0, ip, lsl r0
     b5c:	00000044 	andeq	r0, r0, r4, asr #32
     b60:	44530001 	ldrbmi	r0, [r3], #-1
     b64:	4c000000 	stcmi	0, cr0, [r0], {-0}
     b68:	1c000000 	stcne	0, cr0, [r0], {-0}
     b6c:	f7007000 			; <UNDEFINED> instruction: 0xf7007000
     b70:	f425f72c 	vld1.8	{d15}, [r5 :128], ip
     b74:	cccd0825 	stclgt	8, cr0, [sp], {37}	; 0x25
     b78:	0000cccc 	andeq	ip, r0, ip, asr #25
     b7c:	081e0000 	ldmdaeq	lr, {}	; <UNPREDICTABLE>
     b80:	2525f720 	strcs	pc, [r5, #-1824]!	; 0x720
     b84:	25332cf7 	ldrcs	r2, [r3, #-3319]!	; 0xcf7
     b88:	00004c9f 	muleq	r0, pc, ip	; <UNPREDICTABLE>
     b8c:	00005000 	andeq	r5, r0, r0
     b90:	53000100 	movwpl	r0, #256	; 0x100
     b94:	00000050 	andeq	r0, r0, r0, asr r0
     b98:	00000058 	andeq	r0, r0, r8, asr r0
     b9c:	0070001c 	rsbseq	r0, r0, ip, lsl r0
     ba0:	25f72cf7 	ldrbcs	r2, [r7, #3319]!	; 0xcf7
     ba4:	cd0825f4 	cfstr32gt	mvfx2, [r8, #-976]	; 0xfffffc30
     ba8:	00cccccc 	sbceq	ip, ip, ip, asr #25
     bac:	1e000000 	cdpne	0, 0, cr0, cr0, cr0, {0}
     bb0:	25f72008 	ldrbcs	r2, [r7, #8]!
     bb4:	332cf725 	msrcc	CPSR_fs, #9699328	; 0x940000
     bb8:	00589f25 	subseq	r9, r8, r5, lsr #30
     bbc:	005c0000 	subseq	r0, ip, r0
     bc0:	00010000 	andeq	r0, r1, r0
     bc4:	00005c53 	andeq	r5, r0, r3, asr ip
     bc8:	00006400 	andeq	r6, r0, r0, lsl #8
     bcc:	70001c00 	andvc	r1, r0, r0, lsl #24
     bd0:	f72cf700 			; <UNDEFINED> instruction: 0xf72cf700
     bd4:	0825f425 	stmdaeq	r5!, {r0, r2, r5, sl, ip, sp, lr, pc}
     bd8:	cccccccd 	stclgt	12, cr12, [ip], {205}	; 0xcd
     bdc:	00000000 	andeq	r0, r0, r0
     be0:	f720081e 			; <UNDEFINED> instruction: 0xf720081e
     be4:	2cf72525 	cfldr64cs	mvdx2, [r7], #148	; 0x94
     be8:	649f2533 	ldrvs	r2, [pc], #1331	; bf0 <_start-0x7410>
     bec:	68000000 	stmdavs	r0, {}	; <UNPREDICTABLE>
     bf0:	01000000 	mrseq	r0, (UNDEF: 0)
     bf4:	00685300 	rsbeq	r5, r8, r0, lsl #6
     bf8:	00700000 	rsbseq	r0, r0, r0
     bfc:	001c0000 	andseq	r0, ip, r0
     c00:	2cf70070 	ldclcs	0, cr0, [r7], #448	; 0x1c0
     c04:	25f425f7 	ldrbcs	r2, [r4, #1527]!	; 0x5f7
     c08:	cccccd08 	stclgt	13, cr12, [ip], {8}
     c0c:	000000cc 	andeq	r0, r0, ip, asr #1
     c10:	20081e00 	andcs	r1, r8, r0, lsl #28
     c14:	f72525f7 			; <UNDEFINED> instruction: 0xf72525f7
     c18:	9f25332c 	svcls	0x0025332c
     c1c:	00000070 	andeq	r0, r0, r0, ror r0
     c20:	00000074 	andeq	r0, r0, r4, ror r0
     c24:	74530001 	ldrbvc	r0, [r3], #-1
     c28:	7c000000 	stcvc	0, cr0, [r0], {-0}
     c2c:	1c000000 	stcne	0, cr0, [r0], {-0}
     c30:	f7007000 			; <UNDEFINED> instruction: 0xf7007000
     c34:	f425f72c 	vld1.8	{d15}, [r5 :128], ip
     c38:	cccd0825 	stclgt	8, cr0, [sp], {37}	; 0x25
     c3c:	0000cccc 	andeq	ip, r0, ip, asr #25
     c40:	081e0000 	ldmdaeq	lr, {}	; <UNPREDICTABLE>
     c44:	2525f720 	strcs	pc, [r5, #-1824]!	; 0x720
     c48:	25332cf7 	ldrcs	r2, [r3, #-3319]!	; 0xcf7
     c4c:	00007c9f 	muleq	r0, pc, ip	; <UNPREDICTABLE>
     c50:	00008000 	andeq	r8, r0, r0
     c54:	53000100 	movwpl	r0, #256	; 0x100
     c58:	00000080 	andeq	r0, r0, r0, lsl #1
     c5c:	00000088 	andeq	r0, r0, r8, lsl #1
     c60:	0070001c 	rsbseq	r0, r0, ip, lsl r0
     c64:	25f72cf7 	ldrbcs	r2, [r7, #3319]!	; 0xcf7
     c68:	cd0825f4 	cfstr32gt	mvfx2, [r8, #-976]	; 0xfffffc30
     c6c:	00cccccc 	sbceq	ip, ip, ip, asr #25
     c70:	1e000000 	cdpne	0, 0, cr0, cr0, cr0, {0}
     c74:	25f72008 	ldrbcs	r2, [r7, #8]!
     c78:	332cf725 	msrcc	CPSR_fs, #9699328	; 0x940000
     c7c:	00889f25 	addeq	r9, r8, r5, lsr #30
     c80:	008c0000 	addeq	r0, ip, r0
     c84:	00010000 	andeq	r0, r1, r0
     c88:	00008c53 	andeq	r8, r0, r3, asr ip
     c8c:	00009000 	andeq	r9, r0, r0
     c90:	70001c00 	andvc	r1, r0, r0, lsl #24
     c94:	f72cf700 			; <UNDEFINED> instruction: 0xf72cf700
     c98:	0825f425 	stmdaeq	r5!, {r0, r2, r5, sl, ip, sp, lr, pc}
     c9c:	cccccccd 	stclgt	12, cr12, [ip], {205}	; 0xcd
     ca0:	00000000 	andeq	r0, r0, r0
     ca4:	f720081e 			; <UNDEFINED> instruction: 0xf720081e
     ca8:	2cf72525 	cfldr64cs	mvdx2, [r7], #148	; 0x94
     cac:	909f2533 	addsls	r2, pc, r3, lsr r5	; <UNPREDICTABLE>
     cb0:	98000000 	stmdals	r0, {}	; <UNPREDICTABLE>
     cb4:	1c000000 	stcne	0, cr0, [r0], {-0}
     cb8:	f7007400 			; <UNDEFINED> instruction: 0xf7007400
     cbc:	f425f72c 	vld1.8	{d15}, [r5 :128], ip
     cc0:	cccd0825 	stclgt	8, cr0, [sp], {37}	; 0x25
     cc4:	0000cccc 	andeq	ip, r0, ip, asr #25
     cc8:	081e0000 	ldmdaeq	lr, {}	; <UNPREDICTABLE>
     ccc:	2525f720 	strcs	pc, [r5, #-1824]!	; 0x720
     cd0:	25332cf7 	ldrcs	r2, [r3, #-3319]!	; 0xcf7
     cd4:	0000989f 	muleq	r0, pc, r8	; <UNPREDICTABLE>
     cd8:	00009c00 	andeq	r9, r0, r0, lsl #24
     cdc:	74001700 	strvc	r1, [r0], #-1792	; 0x700
     ce0:	f72cf700 			; <UNDEFINED> instruction: 0xf72cf700
     ce4:	f7007125 			; <UNDEFINED> instruction: 0xf7007125
     ce8:	1e25f72c 	cdpne	7, 2, cr15, cr5, cr12, {1}
     cec:	25f72008 	ldrbcs	r2, [r7, #8]!
     cf0:	332cf725 	msrcc	CPSR_fs, #9699328	; 0x940000
     cf4:	009c9f25 	addseq	r9, ip, r5, lsr #30
     cf8:	00d40000 	sbcseq	r0, r4, r0
     cfc:	001c0000 	andseq	r0, ip, r0
     d00:	2cf70074 	ldclcs	0, cr0, [r7], #464	; 0x1d0
     d04:	25f425f7 	ldrbcs	r2, [r4, #1527]!	; 0x5f7
     d08:	cccccd08 	stclgt	13, cr12, [ip], {8}
     d0c:	000000cc 	andeq	r0, r0, ip, asr #1
     d10:	20081e00 	andcs	r1, r8, r0, lsl #28
     d14:	f72525f7 			; <UNDEFINED> instruction: 0xf72525f7
     d18:	9f25332c 	svcls	0x0025332c
	...
     d24:	00000094 	muleq	r0, r4, r0
     d28:	000000b8 	strheq	r0, [r0], -r8
     d2c:	b8500001 	ldmdalt	r0, {r0}^
     d30:	c4000000 	strgt	r0, [r0], #-0
     d34:	08000000 	stmdaeq	r0, {}	; <UNPREDICTABLE>
     d38:	00713100 	rsbseq	r3, r1, r0, lsl #2
     d3c:	21007324 	tstcs	r0, r4, lsr #6
     d40:	0000c49f 	muleq	r0, pc, r4	; <UNPREDICTABLE>
     d44:	0000c700 	andeq	ip, r0, r0, lsl #14
     d48:	51000100 	mrspl	r0, (UNDEF: 16)
	...
     d54:	000000d4 	ldrdeq	r0, [r0], -r4
     d58:	000000f8 	strdeq	r0, [r0], -r8
     d5c:	f8500001 			; <UNDEFINED> instruction: 0xf8500001
     d60:	0c000000 	stceq	0, cr0, [r0], {-0}
     d64:	04000001 	streq	r0, [r0], #-1
     d68:	5001f300 	andpl	pc, r1, r0, lsl #6
     d6c:	0000009f 	muleq	r0, pc, r0	; <UNPREDICTABLE>
     d70:	00000000 	andeq	r0, r0, r0
     d74:	0000e000 	andeq	lr, r0, r0
     d78:	0000e800 	andeq	lr, r0, r0, lsl #16
     d7c:	30000200 	andcc	r0, r0, r0, lsl #4
     d80:	0000e89f 	muleq	r0, pc, r8	; <UNPREDICTABLE>
     d84:	0000e800 	andeq	lr, r0, r0, lsl #16
     d88:	52000100 	andpl	r0, r0, #0, 2
     d8c:	000000e8 	andeq	r0, r0, r8, ror #1
     d90:	000000f0 	strdeq	r0, [r0], -r0	; <UNPREDICTABLE>
     d94:	9f300002 	svcls	0x00300002
     d98:	000000f0 	strdeq	r0, [r0], -r0	; <UNPREDICTABLE>
     d9c:	00000103 	andeq	r0, r0, r3, lsl #2
     da0:	00520001 	subseq	r0, r2, r1
     da4:	00000000 	andeq	r0, r0, r0
     da8:	e0000000 	and	r0, r0, r0
     dac:	f4000000 	vst4.8	{d0-d3}, [r0], r0
     db0:	02000000 	andeq	r0, r0, #0
     db4:	f49f3000 			; <UNDEFINED> instruction: 0xf49f3000
     db8:	00000000 	andeq	r0, r0, r0
     dbc:	05000001 	streq	r0, [r0, #-1]
     dc0:	00733100 	rsbseq	r3, r3, r0, lsl #2
     dc4:	01009f24 	tsteq	r0, r4, lsr #30
     dc8:	01030000 	mrseq	r0, (UNDEF: 3)
     dcc:	00010000 	andeq	r0, r1, r0
     dd0:	00010351 	andeq	r0, r1, r1, asr r3
     dd4:	00010c00 	andeq	r0, r1, r0, lsl #24
     dd8:	31000800 	tstcc	r0, r0, lsl #16
     ddc:	4f5001f3 	svcmi	0x005001f3
     de0:	009f241a 	addseq	r2, pc, sl, lsl r4	; <UNPREDICTABLE>
     de4:	00000000 	andeq	r0, r0, r0
     de8:	0c000000 	stceq	0, cr0, [r0], {-0}
     dec:	30000001 	andcc	r0, r0, r1
     df0:	01000001 	tsteq	r0, r1
     df4:	01305000 	teqeq	r0, r0
     df8:	01440000 	mrseq	r0, (UNDEF: 68)
     dfc:	00040000 	andeq	r0, r4, r0
     e00:	9f5001f3 	svcls	0x005001f3
	...
     e0c:	00000118 	andeq	r0, r0, r8, lsl r1
     e10:	00000120 	andeq	r0, r0, r0, lsr #2
     e14:	9f300002 	svcls	0x00300002
     e18:	00000120 	andeq	r0, r0, r0, lsr #2
     e1c:	00000120 	andeq	r0, r0, r0, lsr #2
     e20:	20520001 	subscs	r0, r2, r1
     e24:	28000001 	stmdacs	r0, {r0}
     e28:	02000001 	andeq	r0, r0, #1
     e2c:	289f3000 	ldmcs	pc, {ip, sp}	; <UNPREDICTABLE>
     e30:	3b000001 	blcc	e3c <_start-0x71c4>
     e34:	01000001 	tsteq	r0, r1
     e38:	00005200 	andeq	r5, r0, r0, lsl #4
     e3c:	00000000 	andeq	r0, r0, r0
     e40:	01180000 	tsteq	r8, r0
     e44:	012c0000 	teqeq	ip, r0
     e48:	00020000 	andeq	r0, r2, r0
     e4c:	012c9f30 	teqeq	ip, r0, lsr pc
     e50:	01380000 	teqeq	r8, r0
     e54:	00050000 	andeq	r0, r5, r0
     e58:	24007331 	strcs	r7, [r0], #-817	; 0x331
     e5c:	0001389f 	muleq	r1, pc, r8	; <UNPREDICTABLE>
     e60:	00013b00 	andeq	r3, r1, r0, lsl #22
     e64:	51000100 	mrspl	r0, (UNDEF: 16)
     e68:	0000013b 	andeq	r0, r0, fp, lsr r1
     e6c:	00000144 	andeq	r0, r0, r4, asr #2
     e70:	f3310008 	vhadd.u<illegal width 64>	d0, d1, d8
     e74:	1a4f5001 	bne	13d4e80 <__bss_end__+0x13cb668>
     e78:	00009f24 	andeq	r9, r0, r4, lsr #30
     e7c:	00000000 	andeq	r0, r0, r0
     e80:	01440000 	mrseq	r0, (UNDEF: 68)
     e84:	01d40000 	bicseq	r0, r4, r0
     e88:	00010000 	andeq	r0, r1, r0
     e8c:	0001d450 	andeq	sp, r1, r0, asr r4
     e90:	00021000 	andeq	r1, r2, r0
     e94:	54000100 	strpl	r0, [r0], #-256	; 0x100
	...
     ea0:	0000018c 	andeq	r0, r0, ip, lsl #3
     ea4:	00000190 	muleq	r0, r0, r1
     ea8:	98550001 	ldmdals	r5, {r0}^
     eac:	9c000001 	stcls	0, cr0, [r0], {1}
     eb0:	01000001 	tsteq	r0, r1
     eb4:	01a45500 			; <UNDEFINED> instruction: 0x01a45500
     eb8:	01a80000 			; <UNDEFINED> instruction: 0x01a80000
     ebc:	00010000 	andeq	r0, r1, r0
     ec0:	0001b055 	andeq	fp, r1, r5, asr r0
     ec4:	0001b400 	andeq	fp, r1, r0, lsl #8
     ec8:	55000100 	strpl	r0, [r0, #-256]	; 0x100
     ecc:	000001bc 			; <UNDEFINED> instruction: 0x000001bc
     ed0:	000001c0 	andeq	r0, r0, r0, asr #3
     ed4:	c8550001 	ldmdagt	r5, {r0}^
     ed8:	cc000001 	stcgt	0, cr0, [r0], {1}
     edc:	01000001 	tsteq	r0, r1
     ee0:	01d05500 	bicseq	r5, r0, r0, lsl #10
     ee4:	02100000 	andseq	r0, r0, #0
     ee8:	00010000 	andeq	r0, r1, r0
     eec:	00000055 	andeq	r0, r0, r5, asr r0
     ef0:	00000000 	andeq	r0, r0, r0
     ef4:	00016000 	andeq	r6, r1, r0
     ef8:	00018800 	andeq	r8, r1, r0, lsl #16
     efc:	53000100 	movwpl	r0, #256	; 0x100
     f00:	00000188 	andeq	r0, r0, r8, lsl #3
     f04:	00000190 	muleq	r0, r0, r1
     f08:	0070001c 	rsbseq	r0, r0, ip, lsl r0
     f0c:	25f72cf7 	ldrbcs	r2, [r7, #3319]!	; 0xcf7
     f10:	cd0825f4 	cfstr32gt	mvfx2, [r8, #-976]	; 0xfffffc30
     f14:	00cccccc 	sbceq	ip, ip, ip, asr #25
     f18:	1e000000 	cdpne	0, 0, cr0, cr0, cr0, {0}
     f1c:	25f72008 	ldrbcs	r2, [r7, #8]!
     f20:	332cf725 	msrcc	CPSR_fs, #9699328	; 0x940000
     f24:	01909f25 	orrseq	r9, r0, r5, lsr #30
     f28:	01940000 	orrseq	r0, r4, r0
     f2c:	00010000 	andeq	r0, r1, r0
     f30:	00019453 	andeq	r9, r1, r3, asr r4
     f34:	00019c00 	andeq	r9, r1, r0, lsl #24
     f38:	70001c00 	andvc	r1, r0, r0, lsl #24
     f3c:	f72cf700 			; <UNDEFINED> instruction: 0xf72cf700
     f40:	0825f425 	stmdaeq	r5!, {r0, r2, r5, sl, ip, sp, lr, pc}
     f44:	cccccccd 	stclgt	12, cr12, [ip], {205}	; 0xcd
     f48:	00000000 	andeq	r0, r0, r0
     f4c:	f720081e 			; <UNDEFINED> instruction: 0xf720081e
     f50:	2cf72525 	cfldr64cs	mvdx2, [r7], #148	; 0x94
     f54:	9c9f2533 	cfldr32ls	mvfx2, [pc], {51}	; 0x33
     f58:	a0000001 	andge	r0, r0, r1
     f5c:	01000001 	tsteq	r0, r1
     f60:	01a05300 	lsleq	r5, r0, #6
     f64:	01a80000 			; <UNDEFINED> instruction: 0x01a80000
     f68:	001c0000 	andseq	r0, ip, r0
     f6c:	2cf70070 	ldclcs	0, cr0, [r7], #448	; 0x1c0
     f70:	25f425f7 	ldrbcs	r2, [r4, #1527]!	; 0x5f7
     f74:	cccccd08 	stclgt	13, cr12, [ip], {8}
     f78:	000000cc 	andeq	r0, r0, ip, asr #1
     f7c:	20081e00 	andcs	r1, r8, r0, lsl #28
     f80:	f72525f7 			; <UNDEFINED> instruction: 0xf72525f7
     f84:	9f25332c 	svcls	0x0025332c
     f88:	000001a8 	andeq	r0, r0, r8, lsr #3
     f8c:	000001ac 	andeq	r0, r0, ip, lsr #3
     f90:	ac530001 	mrrcge	0, 0, r0, r3, cr1
     f94:	b4000001 	strlt	r0, [r0], #-1
     f98:	1c000001 	stcne	0, cr0, [r0], {1}
     f9c:	f7007000 			; <UNDEFINED> instruction: 0xf7007000
     fa0:	f425f72c 	vld1.8	{d15}, [r5 :128], ip
     fa4:	cccd0825 	stclgt	8, cr0, [sp], {37}	; 0x25
     fa8:	0000cccc 	andeq	ip, r0, ip, asr #25
     fac:	081e0000 	ldmdaeq	lr, {}	; <UNPREDICTABLE>
     fb0:	2525f720 	strcs	pc, [r5, #-1824]!	; 0x720
     fb4:	25332cf7 	ldrcs	r2, [r3, #-3319]!	; 0xcf7
     fb8:	0001b49f 	muleq	r1, pc, r4	; <UNPREDICTABLE>
     fbc:	0001b800 	andeq	fp, r1, r0, lsl #16
     fc0:	53000100 	movwpl	r0, #256	; 0x100
     fc4:	000001b8 			; <UNDEFINED> instruction: 0x000001b8
     fc8:	000001c0 	andeq	r0, r0, r0, asr #3
     fcc:	0070001c 	rsbseq	r0, r0, ip, lsl r0
     fd0:	25f72cf7 	ldrbcs	r2, [r7, #3319]!	; 0xcf7
     fd4:	cd0825f4 	cfstr32gt	mvfx2, [r8, #-976]	; 0xfffffc30
     fd8:	00cccccc 	sbceq	ip, ip, ip, asr #25
     fdc:	1e000000 	cdpne	0, 0, cr0, cr0, cr0, {0}
     fe0:	25f72008 	ldrbcs	r2, [r7, #8]!
     fe4:	332cf725 	msrcc	CPSR_fs, #9699328	; 0x940000
     fe8:	01c09f25 	biceq	r9, r0, r5, lsr #30
     fec:	01c40000 	biceq	r0, r4, r0
     ff0:	00010000 	andeq	r0, r1, r0
     ff4:	0001c453 	andeq	ip, r1, r3, asr r4
     ff8:	0001cc00 	andeq	ip, r1, r0, lsl #24
     ffc:	70001c00 	andvc	r1, r0, r0, lsl #24
    1000:	f72cf700 			; <UNDEFINED> instruction: 0xf72cf700
    1004:	0825f425 	stmdaeq	r5!, {r0, r2, r5, sl, ip, sp, lr, pc}
    1008:	cccccccd 	stclgt	12, cr12, [ip], {205}	; 0xcd
    100c:	00000000 	andeq	r0, r0, r0
    1010:	f720081e 			; <UNDEFINED> instruction: 0xf720081e
    1014:	2cf72525 	cfldr64cs	mvdx2, [r7], #148	; 0x94
    1018:	cc9f2533 	cfldr32gt	mvfx2, [pc], {51}	; 0x33
    101c:	d0000001 	andle	r0, r0, r1
    1020:	01000001 	tsteq	r0, r1
    1024:	01d05300 	bicseq	r5, r0, r0, lsl #6
    1028:	01d40000 	bicseq	r0, r4, r0
    102c:	001c0000 	andseq	r0, ip, r0
    1030:	2cf70070 	ldclcs	0, cr0, [r7], #448	; 0x1c0
    1034:	25f425f7 	ldrbcs	r2, [r4, #1527]!	; 0x5f7
    1038:	cccccd08 	stclgt	13, cr12, [ip], {8}
    103c:	000000cc 	andeq	r0, r0, ip, asr #1
    1040:	20081e00 	andcs	r1, r8, r0, lsl #28
    1044:	f72525f7 			; <UNDEFINED> instruction: 0xf72525f7
    1048:	9f25332c 	svcls	0x0025332c
    104c:	000001d4 	ldrdeq	r0, [r0], -r4
    1050:	000001dc 	ldrdeq	r0, [r0], -ip
    1054:	0074001c 	rsbseq	r0, r4, ip, lsl r0
    1058:	25f72cf7 	ldrbcs	r2, [r7, #3319]!	; 0xcf7
    105c:	cd0825f4 	cfstr32gt	mvfx2, [r8, #-976]	; 0xfffffc30
    1060:	00cccccc 	sbceq	ip, ip, ip, asr #25
    1064:	1e000000 	cdpne	0, 0, cr0, cr0, cr0, {0}
    1068:	25f72008 	ldrbcs	r2, [r7, #8]!
    106c:	332cf725 	msrcc	CPSR_fs, #9699328	; 0x940000
    1070:	01dc9f25 	bicseq	r9, ip, r5, lsr #30
    1074:	01e00000 	mvneq	r0, r0
    1078:	00170000 	andseq	r0, r7, r0
    107c:	2cf70074 	ldclcs	0, cr0, [r7], #464	; 0x1d0
    1080:	007125f7 	ldrshteq	r2, [r1], #-87	; 0xffffffa9
    1084:	25f72cf7 	ldrbcs	r2, [r7, #3319]!	; 0xcf7
    1088:	f720081e 			; <UNDEFINED> instruction: 0xf720081e
    108c:	2cf72525 	cfldr64cs	mvdx2, [r7], #148	; 0x94
    1090:	e09f2533 	adds	r2, pc, r3, lsr r5	; <UNPREDICTABLE>
    1094:	10000001 	andne	r0, r0, r1
    1098:	1c000002 	stcne	0, cr0, [r0], {2}
    109c:	f7007400 			; <UNDEFINED> instruction: 0xf7007400
    10a0:	f425f72c 	vld1.8	{d15}, [r5 :128], ip
    10a4:	cccd0825 	stclgt	8, cr0, [sp], {37}	; 0x25
    10a8:	0000cccc 	andeq	ip, r0, ip, asr #25
    10ac:	081e0000 	ldmdaeq	lr, {}	; <UNPREDICTABLE>
    10b0:	2525f720 	strcs	pc, [r5, #-1824]!	; 0x720
    10b4:	25332cf7 	ldrcs	r2, [r3, #-3319]!	; 0xcf7
    10b8:	0000009f 	muleq	r0, pc, r0	; <UNPREDICTABLE>
    10bc:	00000000 	andeq	r0, r0, r0
    10c0:	0001d800 	andeq	sp, r1, r0, lsl #16
    10c4:	0001fc00 	andeq	pc, r1, r0, lsl #24
    10c8:	50000100 	andpl	r0, r0, r0, lsl #2
    10cc:	000001fc 	strdeq	r0, [r0], -ip
    10d0:	00000203 	andeq	r0, r0, r3, lsl #4
    10d4:	00510001 	subseq	r0, r1, r1
    10d8:	00000000 	andeq	r0, r0, r0
    10dc:	10000000 	andne	r0, r0, r0
    10e0:	2c000002 	stccs	0, cr0, [r0], {2}
    10e4:	01000002 	tsteq	r0, r2
    10e8:	022c5000 	eoreq	r5, ip, #0
    10ec:	02340000 	eorseq	r0, r4, #0
    10f0:	00010000 	andeq	r0, r1, r0
    10f4:	00023454 	andeq	r3, r2, r4, asr r4
    10f8:	00023c00 	andeq	r3, r2, r0, lsl #24
    10fc:	50000100 	andpl	r0, r0, r0, lsl #2
    1100:	0000023c 	andeq	r0, r0, ip, lsr r2
    1104:	00000244 	andeq	r0, r0, r4, asr #4
    1108:	44540001 	ldrbmi	r0, [r4], #-1
    110c:	50000002 	andpl	r0, r0, r2
    1110:	04000002 	streq	r0, [r0], #-2
    1114:	5001f300 	andpl	pc, r1, r0, lsl #6
    1118:	0002509f 	muleq	r2, pc, r0	; <UNPREDICTABLE>
    111c:	00025400 	andeq	r5, r2, r0, lsl #8
    1120:	50000100 	andpl	r0, r0, r0, lsl #2
    1124:	00000254 	andeq	r0, r0, r4, asr r2
    1128:	0000025c 	andeq	r0, r0, ip, asr r2
    112c:	00540001 	subseq	r0, r4, r1
    1130:	00000000 	andeq	r0, r0, r0
    1134:	20000000 	andcs	r0, r0, r0
    1138:	30000002 	andcc	r0, r0, r2
    113c:	02000002 	andeq	r0, r0, #2
    1140:	309f3000 	addscc	r3, pc, r0
    1144:	34000002 	strcc	r0, [r0], #-2
    1148:	01000002 	tsteq	r0, r2
    114c:	02345000 	eorseq	r5, r4, #0
    1150:	02400000 	subeq	r0, r0, #0
    1154:	00020000 	andeq	r0, r2, r0
    1158:	02409f30 	subeq	r9, r0, #48, 30	; 0xc0
    115c:	024c0000 	subeq	r0, ip, #0
    1160:	00010000 	andeq	r0, r1, r0
    1164:	00000050 	andeq	r0, r0, r0, asr r0
    1168:	00000000 	andeq	r0, r0, r0
    116c:	00025c00 	andeq	r5, r2, r0, lsl #24
    1170:	00027300 	andeq	r7, r2, r0, lsl #6
    1174:	50000100 	andpl	r0, r0, r0, lsl #2
    1178:	00000273 	andeq	r0, r0, r3, ror r2
    117c:	00000278 	andeq	r0, r0, r8, ror r2
    1180:	01f30004 	mvnseq	r0, r4
    1184:	02789f50 	rsbseq	r9, r8, #80, 30	; 0x140
    1188:	027b0000 	rsbseq	r0, fp, #0
    118c:	00010000 	andeq	r0, r1, r0
    1190:	00027b50 	andeq	r7, r2, r0, asr fp
    1194:	00028000 	andeq	r8, r2, r0
    1198:	f3000400 	vshl.u8	d0, d0, d0
    119c:	009f5001 	addseq	r5, pc, r1
    11a0:	00000000 	andeq	r0, r0, r0
    11a4:	5c000000 	stcpl	0, cr0, [r0], {-0}
    11a8:	73000002 	movwvc	r0, #2
    11ac:	01000002 	tsteq	r0, r2
    11b0:	02735100 	rsbseq	r5, r3, #0, 2
    11b4:	02780000 	rsbseq	r0, r8, #0
    11b8:	00040000 	andeq	r0, r4, r0
    11bc:	9f5101f3 	svcls	0x005101f3
    11c0:	00000278 	andeq	r0, r0, r8, ror r2
    11c4:	0000027b 	andeq	r0, r0, fp, ror r2
    11c8:	7b510001 	blvc	14411d4 <__bss_end__+0x14379bc>
    11cc:	80000002 	andhi	r0, r0, r2
    11d0:	04000002 	streq	r0, [r0], #-2
    11d4:	5101f300 	mrspl	pc, SP_irq	; <UNPREDICTABLE>
    11d8:	0000009f 	muleq	r0, pc, r0	; <UNPREDICTABLE>
    11dc:	00000000 	andeq	r0, r0, r0
    11e0:	00028000 	andeq	r8, r2, r0
    11e4:	00031800 	andeq	r1, r3, r0, lsl #16
    11e8:	50000100 	andpl	r0, r0, r0, lsl #2
    11ec:	00000318 	andeq	r0, r0, r8, lsl r3
    11f0:	00000358 	andeq	r0, r0, r8, asr r3
    11f4:	00540001 	subseq	r0, r4, r1
    11f8:	00000000 	andeq	r0, r0, r0
    11fc:	80000000 	andhi	r0, r0, r0
    1200:	1b000002 	blne	1210 <_start-0x6df0>
    1204:	01000003 	tsteq	r0, r3
    1208:	031b5100 	tsteq	fp, #0, 2
    120c:	03580000 	cmpeq	r8, #0
    1210:	00040000 	andeq	r0, r4, r0
    1214:	9f5101f3 	svcls	0x005101f3
	...
    1220:	000002d0 	ldrdeq	r0, [r0], -r0	; <UNPREDICTABLE>
    1224:	000002d4 	ldrdeq	r0, [r0], -r4
    1228:	dc560001 	mrrcle	0, 0, r0, r6, cr1
    122c:	e0000002 	and	r0, r0, r2
    1230:	01000002 	tsteq	r0, r2
    1234:	02e85600 	rsceq	r5, r8, #0, 12
    1238:	02ec0000 	rsceq	r0, ip, #0
    123c:	00010000 	andeq	r0, r1, r0
    1240:	0002f456 	andeq	pc, r2, r6, asr r4	; <UNPREDICTABLE>
    1244:	0002f800 	andeq	pc, r2, r0, lsl #16
    1248:	56000100 	strpl	r0, [r0], -r0, lsl #2
    124c:	00000300 	andeq	r0, r0, r0, lsl #6
    1250:	00000304 	andeq	r0, r0, r4, lsl #6
    1254:	0c560001 	mrrceq	0, 0, r0, r6, cr1
    1258:	10000003 	andne	r0, r0, r3
    125c:	01000003 	tsteq	r0, r3
    1260:	03145600 	tsteq	r4, #0, 12
    1264:	03580000 	cmpeq	r8, #0
    1268:	00010000 	andeq	r0, r1, r0
    126c:	00000056 	andeq	r0, r0, r6, asr r0
    1270:	00000000 	andeq	r0, r0, r0
    1274:	0002a400 	andeq	sl, r2, r0, lsl #8
    1278:	0002cc00 	andeq	ip, r2, r0, lsl #24
    127c:	53000100 	movwpl	r0, #256	; 0x100
    1280:	000002cc 	andeq	r0, r0, ip, asr #5
    1284:	000002d4 	ldrdeq	r0, [r0], -r4
    1288:	0070001c 	rsbseq	r0, r0, ip, lsl r0
    128c:	25f72cf7 	ldrbcs	r2, [r7, #3319]!	; 0xcf7
    1290:	cd0825f4 	cfstr32gt	mvfx2, [r8, #-976]	; 0xfffffc30
    1294:	00cccccc 	sbceq	ip, ip, ip, asr #25
    1298:	1e000000 	cdpne	0, 0, cr0, cr0, cr0, {0}
    129c:	25f72008 	ldrbcs	r2, [r7, #8]!
    12a0:	332cf725 	msrcc	CPSR_fs, #9699328	; 0x940000
    12a4:	02d49f25 	sbcseq	r9, r4, #37, 30	; 0x94
    12a8:	02d80000 	sbcseq	r0, r8, #0
    12ac:	00010000 	andeq	r0, r1, r0
    12b0:	0002d853 	andeq	sp, r2, r3, asr r8
    12b4:	0002e000 	andeq	lr, r2, r0
    12b8:	70001c00 	andvc	r1, r0, r0, lsl #24
    12bc:	f72cf700 			; <UNDEFINED> instruction: 0xf72cf700
    12c0:	0825f425 	stmdaeq	r5!, {r0, r2, r5, sl, ip, sp, lr, pc}
    12c4:	cccccccd 	stclgt	12, cr12, [ip], {205}	; 0xcd
    12c8:	00000000 	andeq	r0, r0, r0
    12cc:	f720081e 			; <UNDEFINED> instruction: 0xf720081e
    12d0:	2cf72525 	cfldr64cs	mvdx2, [r7], #148	; 0x94
    12d4:	e09f2533 	adds	r2, pc, r3, lsr r5	; <UNPREDICTABLE>
    12d8:	e4000002 	str	r0, [r0], #-2
    12dc:	01000002 	tsteq	r0, r2
    12e0:	02e45300 	rsceq	r5, r4, #0, 6
    12e4:	02ec0000 	rsceq	r0, ip, #0
    12e8:	001c0000 	andseq	r0, ip, r0
    12ec:	2cf70070 	ldclcs	0, cr0, [r7], #448	; 0x1c0
    12f0:	25f425f7 	ldrbcs	r2, [r4, #1527]!	; 0x5f7
    12f4:	cccccd08 	stclgt	13, cr12, [ip], {8}
    12f8:	000000cc 	andeq	r0, r0, ip, asr #1
    12fc:	20081e00 	andcs	r1, r8, r0, lsl #28
    1300:	f72525f7 			; <UNDEFINED> instruction: 0xf72525f7
    1304:	9f25332c 	svcls	0x0025332c
    1308:	000002ec 	andeq	r0, r0, ip, ror #5
    130c:	000002f0 	strdeq	r0, [r0], -r0	; <UNPREDICTABLE>
    1310:	f0530001 			; <UNDEFINED> instruction: 0xf0530001
    1314:	f8000002 			; <UNDEFINED> instruction: 0xf8000002
    1318:	1c000002 	stcne	0, cr0, [r0], {2}
    131c:	f7007000 			; <UNDEFINED> instruction: 0xf7007000
    1320:	f425f72c 	vld1.8	{d15}, [r5 :128], ip
    1324:	cccd0825 	stclgt	8, cr0, [sp], {37}	; 0x25
    1328:	0000cccc 	andeq	ip, r0, ip, asr #25
    132c:	081e0000 	ldmdaeq	lr, {}	; <UNPREDICTABLE>
    1330:	2525f720 	strcs	pc, [r5, #-1824]!	; 0x720
    1334:	25332cf7 	ldrcs	r2, [r3, #-3319]!	; 0xcf7
    1338:	0002f89f 	muleq	r2, pc, r8	; <UNPREDICTABLE>
    133c:	0002fc00 	andeq	pc, r2, r0, lsl #24
    1340:	53000100 	movwpl	r0, #256	; 0x100
    1344:	000002fc 	strdeq	r0, [r0], -ip
    1348:	00000304 	andeq	r0, r0, r4, lsl #6
    134c:	0070001c 	rsbseq	r0, r0, ip, lsl r0
    1350:	25f72cf7 	ldrbcs	r2, [r7, #3319]!	; 0xcf7
    1354:	cd0825f4 	cfstr32gt	mvfx2, [r8, #-976]	; 0xfffffc30
    1358:	00cccccc 	sbceq	ip, ip, ip, asr #25
    135c:	1e000000 	cdpne	0, 0, cr0, cr0, cr0, {0}
    1360:	25f72008 	ldrbcs	r2, [r7, #8]!
    1364:	332cf725 	msrcc	CPSR_fs, #9699328	; 0x940000
    1368:	03049f25 	movweq	r9, #20261	; 0x4f25
    136c:	03080000 	movweq	r0, #32768	; 0x8000
    1370:	00010000 	andeq	r0, r1, r0
    1374:	00030853 	andeq	r0, r3, r3, asr r8
    1378:	00031000 	andeq	r1, r3, r0
    137c:	70001c00 	andvc	r1, r0, r0, lsl #24
    1380:	f72cf700 			; <UNDEFINED> instruction: 0xf72cf700
    1384:	0825f425 	stmdaeq	r5!, {r0, r2, r5, sl, ip, sp, lr, pc}
    1388:	cccccccd 	stclgt	12, cr12, [ip], {205}	; 0xcd
    138c:	00000000 	andeq	r0, r0, r0
    1390:	f720081e 			; <UNDEFINED> instruction: 0xf720081e
    1394:	2cf72525 	cfldr64cs	mvdx2, [r7], #148	; 0x94
    1398:	109f2533 	addsne	r2, pc, r3, lsr r5	; <UNPREDICTABLE>
    139c:	14000003 	strne	r0, [r0], #-3
    13a0:	01000003 	tsteq	r0, r3
    13a4:	03145300 	tsteq	r4, #0, 6
    13a8:	03180000 	tsteq	r8, #0
    13ac:	001c0000 	andseq	r0, ip, r0
    13b0:	2cf70070 	ldclcs	0, cr0, [r7], #448	; 0x1c0
    13b4:	25f425f7 	ldrbcs	r2, [r4, #1527]!	; 0x5f7
    13b8:	cccccd08 	stclgt	13, cr12, [ip], {8}
    13bc:	000000cc 	andeq	r0, r0, ip, asr #1
    13c0:	20081e00 	andcs	r1, r8, r0, lsl #28
    13c4:	f72525f7 			; <UNDEFINED> instruction: 0xf72525f7
    13c8:	9f25332c 	svcls	0x0025332c
    13cc:	00000318 	andeq	r0, r0, r8, lsl r3
    13d0:	00000320 	andeq	r0, r0, r0, lsr #6
    13d4:	0074001c 	rsbseq	r0, r4, ip, lsl r0
    13d8:	25f72cf7 	ldrbcs	r2, [r7, #3319]!	; 0xcf7
    13dc:	cd0825f4 	cfstr32gt	mvfx2, [r8, #-976]	; 0xfffffc30
    13e0:	00cccccc 	sbceq	ip, ip, ip, asr #25
    13e4:	1e000000 	cdpne	0, 0, cr0, cr0, cr0, {0}
    13e8:	25f72008 	ldrbcs	r2, [r7, #8]!
    13ec:	332cf725 	msrcc	CPSR_fs, #9699328	; 0x940000
    13f0:	03209f25 	teqeq	r0, #37, 30	; 0x94
    13f4:	03240000 	teqeq	r4, #0
    13f8:	00170000 	andseq	r0, r7, r0
    13fc:	2cf70074 	ldclcs	0, cr0, [r7], #464	; 0x1d0
    1400:	007325f7 	ldrshteq	r2, [r3], #-87	; 0xffffffa9
    1404:	25f72cf7 	ldrbcs	r2, [r7, #3319]!	; 0xcf7
    1408:	f720081e 			; <UNDEFINED> instruction: 0xf720081e
    140c:	2cf72525 	cfldr64cs	mvdx2, [r7], #148	; 0x94
    1410:	249f2533 	ldrcs	r2, [pc], #1331	; 1418 <_start-0x6be8>
    1414:	58000003 	stmdapl	r0, {r0, r1}
    1418:	1c000003 	stcne	0, cr0, [r0], {3}
    141c:	f7007400 			; <UNDEFINED> instruction: 0xf7007400
    1420:	f425f72c 	vld1.8	{d15}, [r5 :128], ip
    1424:	cccd0825 	stclgt	8, cr0, [sp], {37}	; 0x25
    1428:	0000cccc 	andeq	ip, r0, ip, asr #25
    142c:	081e0000 	ldmdaeq	lr, {}	; <UNPREDICTABLE>
    1430:	2525f720 	strcs	pc, [r5, #-1824]!	; 0x720
    1434:	25332cf7 	ldrcs	r2, [r3, #-3319]!	; 0xcf7
    1438:	0000009f 	muleq	r0, pc, r0	; <UNPREDICTABLE>
    143c:	00000000 	andeq	r0, r0, r0
    1440:	00031c00 	andeq	r1, r3, r0, lsl #24
    1444:	00034000 	andeq	r4, r3, r0
    1448:	50000100 	andpl	r0, r0, r0, lsl #2
    144c:	00000340 	andeq	r0, r0, r0, asr #6
    1450:	00000348 	andeq	r0, r0, r8, asr #6
    1454:	00750009 	rsbseq	r0, r5, r9
    1458:	71240073 	teqvc	r4, r3, ror r0
    145c:	489f2100 	ldmmi	pc, {r8, sp}	; <UNPREDICTABLE>
    1460:	4b000003 	blmi	1474 <_start-0x6b8c>
    1464:	01000003 	tsteq	r0, r3
    1468:	00005100 	andeq	r5, r0, r0, lsl #2
    146c:	00000000 	andeq	r0, r0, r0
    1470:	03580000 	cmpeq	r8, #0
    1474:	037c0000 	cmneq	ip, #0
    1478:	00010000 	andeq	r0, r1, r0
    147c:	00037c50 	andeq	r7, r3, r0, asr ip
    1480:	00039000 	andeq	r9, r3, r0
    1484:	f3000400 	vshl.u8	d0, d0, d0
    1488:	009f5001 	addseq	r5, pc, r1
    148c:	00000000 	andeq	r0, r0, r0
    1490:	64000000 	strvs	r0, [r0], #-0
    1494:	6c000003 	stcvs	0, cr0, [r0], {3}
    1498:	02000003 	andeq	r0, r0, #3
    149c:	6c9f3000 	ldcvs	0, cr3, [pc], {0}
    14a0:	6c000003 	stcvs	0, cr0, [r0], {3}
    14a4:	01000003 	tsteq	r0, r3
    14a8:	036c5200 	cmneq	ip, #0, 4
    14ac:	03740000 	cmneq	r4, #0
    14b0:	00020000 	andeq	r0, r2, r0
    14b4:	03749f30 	cmneq	r4, #48, 30	; 0xc0
    14b8:	03870000 	orreq	r0, r7, #0
    14bc:	00010000 	andeq	r0, r1, r0
    14c0:	00000052 	andeq	r0, r0, r2, asr r0
    14c4:	00000000 	andeq	r0, r0, r0
    14c8:	00036400 	andeq	r6, r3, r0, lsl #8
    14cc:	00037800 	andeq	r7, r3, r0, lsl #16
    14d0:	30000200 	andcc	r0, r0, r0, lsl #4
    14d4:	0003789f 	muleq	r3, pc, r8	; <UNPREDICTABLE>
    14d8:	00038400 	andeq	r8, r3, r0, lsl #8
    14dc:	31000500 	tstcc	r0, r0, lsl #10
    14e0:	9f240073 	svcls	0x00240073
    14e4:	00000384 	andeq	r0, r0, r4, lsl #7
    14e8:	00000387 	andeq	r0, r0, r7, lsl #7
    14ec:	87510001 	ldrbhi	r0, [r1, -r1]
    14f0:	90000003 	andls	r0, r0, r3
    14f4:	08000003 	stmdaeq	r0, {r0, r1}
    14f8:	01f33100 	mvnseq	r3, r0, lsl #2
    14fc:	241a4f50 	ldrcs	r4, [sl], #-3920	; 0xf50
    1500:	0000009f 	muleq	r0, pc, r0	; <UNPREDICTABLE>
    1504:	00000000 	andeq	r0, r0, r0
    1508:	00039000 	andeq	r9, r3, r0
    150c:	00039c00 	andeq	r9, r3, r0, lsl #24
    1510:	50000100 	andpl	r0, r0, r0, lsl #2
    1514:	0000039c 	muleq	r0, ip, r3
    1518:	000003bc 			; <UNDEFINED> instruction: 0x000003bc
    151c:	01f30004 	mvnseq	r0, r4
    1520:	00009f50 	andeq	r9, r0, r0, asr pc
    1524:	00000000 	andeq	r0, r0, r0
    1528:	03bc0000 			; <UNDEFINED> instruction: 0x03bc0000
    152c:	03cf0000 	biceq	r0, pc, #0
    1530:	00010000 	andeq	r0, r1, r0
    1534:	0003cf50 	andeq	ip, r3, r0, asr pc
    1538:	00040800 	andeq	r0, r4, r0, lsl #16
    153c:	54000100 	strpl	r0, [r0], #-256	; 0x100
    1540:	00000408 	andeq	r0, r0, r8, lsl #8
    1544:	00000440 	andeq	r0, r0, r0, asr #8
    1548:	01f30004 	mvnseq	r0, r4
    154c:	00009f50 	andeq	r9, r0, r0, asr pc
    1550:	00000000 	andeq	r0, r0, r0
    1554:	04280000 	strteq	r0, [r8], #-0
    1558:	042c0000 	strteq	r0, [ip], #-0
    155c:	00010000 	andeq	r0, r1, r0
    1560:	00042c50 	andeq	r2, r4, r0, asr ip
    1564:	00043300 	andeq	r3, r4, r0, lsl #6
    1568:	51000100 	mrspl	r0, (UNDEF: 16)
	...
    1574:	000003e4 	andeq	r0, r0, r4, ror #7
    1578:	000003ec 	andeq	r0, r0, ip, ror #7
    157c:	ec500001 	mrrc	0, 0, r0, r0, cr1	; <UNPREDICTABLE>
    1580:	f3000003 	vhadd.u8	d0, d0, d3
    1584:	01000003 	tsteq	r0, r3
    1588:	00005100 	andeq	r5, r0, r0, lsl #2
    158c:	00000000 	andeq	r0, r0, r0
    1590:	04040000 	streq	r0, [r4], #-0
    1594:	04100000 	ldreq	r0, [r0], #-0
    1598:	00010000 	andeq	r0, r1, r0
    159c:	00041050 	andeq	r1, r4, r0, asr r0
    15a0:	00041700 	andeq	r1, r4, r0, lsl #14
    15a4:	51000100 	mrspl	r0, (UNDEF: 16)
	...
    15b0:	00000440 	andeq	r0, r0, r0, asr #8
    15b4:	00000453 	andeq	r0, r0, r3, asr r4
    15b8:	53500001 	cmppl	r0, #1
    15bc:	8c000004 	stchi	0, cr0, [r0], {4}
    15c0:	01000004 	tsteq	r0, r4
    15c4:	048c5400 	streq	r5, [ip], #1024	; 0x400
    15c8:	04c40000 	strbeq	r0, [r4], #0
    15cc:	00040000 	andeq	r0, r4, r0
    15d0:	9f5001f3 	svcls	0x005001f3
	...
    15dc:	000004ac 	andeq	r0, r0, ip, lsr #9
    15e0:	000004b0 			; <UNDEFINED> instruction: 0x000004b0
    15e4:	b0500001 	subslt	r0, r0, r1
    15e8:	b7000004 	strlt	r0, [r0, -r4]
    15ec:	01000004 	tsteq	r0, r4
    15f0:	00005100 	andeq	r5, r0, r0, lsl #2
    15f4:	00000000 	andeq	r0, r0, r0
    15f8:	04680000 	strbteq	r0, [r8], #-0
    15fc:	04700000 	ldrbteq	r0, [r0], #-0
    1600:	00010000 	andeq	r0, r1, r0
    1604:	00047050 	andeq	r7, r4, r0, asr r0
    1608:	00047700 	andeq	r7, r4, r0, lsl #14
    160c:	51000100 	mrspl	r0, (UNDEF: 16)
	...
    1618:	00000488 	andeq	r0, r0, r8, lsl #9
    161c:	00000494 	muleq	r0, r4, r4
    1620:	94500001 	ldrbls	r0, [r0], #-1
    1624:	9b000004 	blls	163c <_start-0x69c4>
    1628:	01000004 	tsteq	r0, r4
    162c:	00005100 	andeq	r5, r0, r0, lsl #2
    1630:	00000000 	andeq	r0, r0, r0
    1634:	04c40000 	strbeq	r0, [r4], #0
    1638:	04d70000 	ldrbeq	r0, [r7], #0
    163c:	00010000 	andeq	r0, r1, r0
    1640:	0004d750 	andeq	sp, r4, r0, asr r7
    1644:	00051800 	andeq	r1, r5, r0, lsl #16
    1648:	54000100 	strpl	r0, [r0], #-256	; 0x100
    164c:	00000518 	andeq	r0, r0, r8, lsl r5
    1650:	0000053c 	andeq	r0, r0, ip, lsr r5
    1654:	01f30004 	mvnseq	r0, r4
    1658:	053c9f50 	ldreq	r9, [ip, #-3920]!	; 0xf50
    165c:	05400000 	strbeq	r0, [r0, #-0]
    1660:	00010000 	andeq	r0, r1, r0
    1664:	00054050 	andeq	r4, r5, r0, asr r0
    1668:	00054800 	andeq	r4, r5, r0, lsl #16
    166c:	54000100 	strpl	r0, [r0], #-256	; 0x100
	...
    1678:	000004ec 	andeq	r0, r0, ip, ror #9
    167c:	000004fb 	strdeq	r0, [r0], -fp
    1680:	74310008 	ldrtvc	r0, [r1], #-8
    1684:	00702400 	rsbseq	r2, r0, r0, lsl #8
    1688:	00009f1a 	andeq	r9, r0, sl, lsl pc
    168c:	00000000 	andeq	r0, r0, r0
    1690:	05180000 	ldreq	r0, [r8, #-0]
    1694:	05300000 	ldreq	r0, [r0, #-0]!
    1698:	00010000 	andeq	r0, r1, r0
    169c:	00000054 	andeq	r0, r0, r4, asr r0
    16a0:	00000000 	andeq	r0, r0, r0
    16a4:	00054800 	andeq	r4, r5, r0, lsl #16
    16a8:	00055b00 	andeq	r5, r5, r0, lsl #22
    16ac:	50000100 	andpl	r0, r0, r0, lsl #2
    16b0:	0000055b 	andeq	r0, r0, fp, asr r5
    16b4:	00000580 	andeq	r0, r0, r0, lsl #11
    16b8:	80540001 	subshi	r0, r4, r1
    16bc:	a0000005 	andge	r0, r0, r5
    16c0:	04000005 	streq	r0, [r0], #-5
    16c4:	5001f300 	andpl	pc, r1, r0, lsl #6
    16c8:	0000009f 	muleq	r0, pc, r0	; <UNPREDICTABLE>
    16cc:	00000000 	andeq	r0, r0, r0
    16d0:	0000fc00 	andeq	pc, r0, r0, lsl #24
    16d4:	00010400 	andeq	r0, r1, r0, lsl #8
    16d8:	50000100 	andpl	r0, r0, r0, lsl #2
    16dc:	00000104 	andeq	r0, r0, r4, lsl #2
    16e0:	00000128 	andeq	r0, r0, r8, lsr #2
    16e4:	00540001 	subseq	r0, r4, r1
	...
    16f0:	0b000000 	bleq	16f8 <_start-0x6908>
    16f4:	01000000 	mrseq	r0, (UNDEF: 0)
    16f8:	000b5000 	andeq	r5, fp, r0
    16fc:	00140000 	andseq	r0, r4, r0
    1700:	00010000 	andeq	r0, r1, r0
    1704:	00000054 	andeq	r0, r0, r4, asr r0
    1708:	00000000 	andeq	r0, r0, r0
	...

Disassembly of section .debug_aranges:

00000000 <.debug_aranges>:
   0:	0000001c 	andeq	r0, r0, ip, lsl r0
   4:	00000002 	andeq	r0, r0, r2
   8:	00040000 	andeq	r0, r4, r0
   c:	00000000 	andeq	r0, r0, r0
  10:	00008010 	andeq	r8, r0, r0, lsl r0
  14:	000000a0 	andeq	r0, r0, r0, lsr #1
	...
  20:	0000001c 	andeq	r0, r0, ip, lsl r0
  24:	02450002 	subeq	r0, r5, #2
  28:	00040000 	andeq	r0, r4, r0
  2c:	00000000 	andeq	r0, r0, r0
  30:	000080b0 	strheq	r8, [r0], -r0
  34:	0000013c 	andeq	r0, r0, ip, lsr r1
	...
  40:	0000001c 	andeq	r0, r0, ip, lsl r0
  44:	057d0002 	ldrbeq	r0, [sp, #-2]!
  48:	00040000 	andeq	r0, r4, r0
  4c:	00000000 	andeq	r0, r0, r0
  50:	000081ec 	andeq	r8, r0, ip, ror #3
  54:	000001a4 	andeq	r0, r0, r4, lsr #3
	...
  60:	0000001c 	andeq	r0, r0, ip, lsl r0
  64:	09600002 	stmdbeq	r0!, {r1}^
  68:	00040000 	andeq	r0, r4, r0
  6c:	00000000 	andeq	r0, r0, r0
  70:	00008390 	muleq	r0, r0, r3
  74:	00000058 	andeq	r0, r0, r8, asr r0
	...
  80:	0000001c 	andeq	r0, r0, ip, lsl r0
  84:	0af50002 	beq	ffd40094 <__bss_end__+0xffd3687c>
  88:	00040000 	andeq	r0, r4, r0
  8c:	00000000 	andeq	r0, r0, r0
  90:	000083e8 	andeq	r8, r0, r8, ror #7
  94:	00000034 	andeq	r0, r0, r4, lsr r0
	...
  a0:	0000001c 	andeq	r0, r0, ip, lsl r0
  a4:	0be70002 	bleq	ff9c00b4 <__bss_end__+0xff9b689c>
  a8:	00040000 	andeq	r0, r4, r0
  ac:	00000000 	andeq	r0, r0, r0
  b0:	0000841c 	andeq	r8, r0, ip, lsl r4
  b4:	000004f8 	strdeq	r0, [r0], -r8
	...
  c0:	0000001c 	andeq	r0, r0, ip, lsl r0
  c4:	126c0002 	rsbne	r0, ip, #2
  c8:	00040000 	andeq	r0, r4, r0
  cc:	00000000 	andeq	r0, r0, r0
  d0:	00008914 	andeq	r8, r0, r4, lsl r9
  d4:	00000028 	andeq	r0, r0, r8, lsr #32
	...
  e0:	0000001c 	andeq	r0, r0, ip, lsl r0
  e4:	136f0002 	cmnne	pc, #2
  e8:	00040000 	andeq	r0, r4, r0
  ec:	00000000 	andeq	r0, r0, r0
  f0:	0000893c 	andeq	r8, r0, ip, lsr r9
  f4:	00000034 	andeq	r0, r0, r4, lsr r0
	...
 100:	0000001c 	andeq	r0, r0, ip, lsl r0
 104:	14720002 	ldrbtne	r0, [r2], #-2
 108:	00040000 	andeq	r0, r4, r0
 10c:	00000000 	andeq	r0, r0, r0
 110:	00008970 	andeq	r8, r0, r0, ror r9
 114:	00000074 	andeq	r0, r0, r4, ror r0
	...
 120:	0000001c 	andeq	r0, r0, ip, lsl r0
 124:	16230002 	strtne	r0, [r3], -r2
 128:	00040000 	andeq	r0, r4, r0
 12c:	00000000 	andeq	r0, r0, r0
 130:	000089e4 	andeq	r8, r0, r4, ror #19
 134:	00000088 	andeq	r0, r0, r8, lsl #1
	...
 140:	0000001c 	andeq	r0, r0, ip, lsl r0
 144:	17ff0002 	ldrbne	r0, [pc, r2]!
 148:	00040000 	andeq	r0, r4, r0
 14c:	00000000 	andeq	r0, r0, r0
 150:	00008a6c 	andeq	r8, r0, ip, ror #20
 154:	000005a0 	andeq	r0, r0, r0, lsr #11
	...
 160:	0000001c 	andeq	r0, r0, ip, lsl r0
 164:	20850002 	addcs	r0, r5, r2
 168:	00040000 	andeq	r0, r4, r0
 16c:	00000000 	andeq	r0, r0, r0
 170:	0000900c 	andeq	r9, r0, ip
 174:	00000154 	andeq	r0, r0, r4, asr r1
	...
 180:	0000001c 	andeq	r0, r0, ip, lsl r0
 184:	24880002 	strcs	r0, [r8], #2
 188:	00040000 	andeq	r0, r4, r0
 18c:	00000000 	andeq	r0, r0, r0
 190:	000091c4 	andeq	r9, r0, r4, asr #3
 194:	0000003c 	andeq	r0, r0, ip, lsr r0
	...

Disassembly of section .debug_line:

00000000 <.debug_line>:
   0:	000000ad 	andeq	r0, r0, sp, lsr #1
   4:	00780002 	rsbseq	r0, r8, r2
   8:	01020000 	mrseq	r0, (UNDEF: 2)
   c:	000d0efb 	strdeq	r0, [sp], -fp
  10:	01010101 	tsteq	r1, r1, lsl #2
  14:	01000000 	mrseq	r0, (UNDEF: 0)
  18:	2f010000 	svccs	0x00010000
  1c:	72657355 	rsbvc	r7, r5, #1409286145	; 0x54000001
  20:	72622f73 	rsbvc	r2, r2, #460	; 0x1cc
  24:	6a6e6169 	bvs	1b985d0 <__bss_end__+0x1b8edb8>
  28:	442f6e75 	strtmi	r6, [pc], #-3701	; 30 <_start-0x7fd0>
  2c:	746b7365 	strbtvc	r7, [fp], #-869	; 0x365
  30:	732f706f 	teqvc	pc, #111	; 0x6f
  34:	6f6f6863 	svcvs	0x006f6863
  38:	69572f6c 	ldmdbvs	r7, {r2, r3, r5, r6, r8, r9, sl, fp, sp}^
  3c:	7265746e 	rsbvc	r7, r5, #1845493760	; 0x6e000000
  40:	30323931 	eorscc	r3, r2, r1, lsr r9
  44:	3153432f 	cmpcc	r3, pc, lsr #6
  48:	2f453034 	svccs	0x00453034
  4c:	34317363 	ldrtcc	r7, [r1], #-867	; 0x363
  50:	322d6530 	eorcc	r6, sp, #48, 10	; 0xc000000
  54:	6e697730 	mcrvs	7, 3, r7, cr9, cr0, {1}
  58:	62696c2f 	rsbvs	r6, r9, #12032	; 0x2f00
  5c:	00006970 	andeq	r6, r0, r0, ror r9
  60:	616e6f73 	smcvs	59123	; 0xe6f3
  64:	00632e72 	rsbeq	r2, r3, r2, ror lr
  68:	68000000 	stmdavs	r0, {}	; <UNPREDICTABLE>
  6c:	72732d63 	rsbsvc	r2, r3, #6336	; 0x18c0
  70:	682e3430 	stmdavs	lr!, {r4, r5, sl, ip, sp}
  74:	00000000 	andeq	r0, r0, r0
  78:	2e697072 	mcrcs	0, 3, r7, cr9, cr2, {3}
  7c:	00010068 	andeq	r0, r1, r8, rrx
  80:	05000000 	streq	r0, [r0, #-0]
  84:	00801002 	addeq	r1, r0, r2
  88:	01220300 	teqeq	r2, r0, lsl #6
  8c:	834b304c 	movthi	r3, #45132	; 0xb04c
  90:	2f2f304c 	svccs	0x002f304c
  94:	2e7a0330 	mrccs	3, 3, r0, cr10, cr0, {1}
  98:	04020031 	streq	r0, [r2], #-49	; 0x31
  9c:	4ca04901 	stcmi	9, cr4, [r0], #4
  a0:	004a7a03 	subeq	r7, sl, r3, lsl #20
  a4:	06010402 	streq	r0, [r1], -r2, lsl #8
  a8:	4b52062e 	blmi	1481968 <__bss_end__+0x1478150>
  ac:	01000e02 	tsteq	r0, r2, lsl #28
  b0:	00010901 	andeq	r0, r1, r1, lsl #18
  b4:	d3000200 	movwle	r0, #512	; 0x200
  b8:	02000000 	andeq	r0, r0, #0
  bc:	0d0efb01 	vstreq	d15, [lr, #-4]
  c0:	01010100 	mrseq	r0, (UNDEF: 17)
  c4:	00000001 	andeq	r0, r0, r1
  c8:	01000001 	tsteq	r0, r1
  cc:	6573552f 	ldrbvs	r5, [r3, #-1327]!	; 0x52f
  d0:	622f7372 	eorvs	r7, pc, #-939524095	; 0xc8000001
  d4:	6e616972 	mcrvs	9, 3, r6, cr1, cr2, {3}
  d8:	2f6e756a 	svccs	0x006e756a
  dc:	6b736544 	blvs	1cd95f4 <__bss_end__+0x1ccfddc>
  e0:	2f706f74 	svccs	0x00706f74
  e4:	6f686373 	svcvs	0x00686373
  e8:	572f6c6f 	strpl	r6, [pc, -pc, ror #24]!
  ec:	65746e69 	ldrbvs	r6, [r4, #-3689]!	; 0xe69
  f0:	32393172 	eorscc	r3, r9, #-2147483620	; 0x8000001c
  f4:	53432f30 	movtpl	r2, #16176	; 0x3f30
  f8:	45303431 	ldrmi	r3, [r0, #-1073]!	; 0x431
  fc:	3173632f 	cmncc	r3, pc, lsr #6
 100:	2d653034 	stclcs	0, cr3, [r5, #-208]!	; 0xffffff30
 104:	69773032 	ldmdbvs	r7!, {r1, r4, r5, ip, sp}^
 108:	696c2f6e 	stmdbvs	ip!, {r1, r2, r3, r5, r6, r8, r9, sl, fp, sp}^
 10c:	2f697062 	svccs	0x00697062
 110:	34317363 	ldrtcc	r7, [r1], #-867	; 0x363
 114:	732d6530 	teqvc	sp, #48, 10	; 0xc000000
 118:	2f006372 	svccs	0x00006372
 11c:	72657355 	rsbvc	r7, r5, #1409286145	; 0x54000001
 120:	72622f73 	rsbvc	r2, r2, #460	; 0x1cc
 124:	6a6e6169 	bvs	1b986d0 <__bss_end__+0x1b8eeb8>
 128:	442f6e75 	strtmi	r6, [pc], #-3701	; 130 <_start-0x7ed0>
 12c:	746b7365 	strbtvc	r7, [fp], #-869	; 0x365
 130:	732f706f 	teqvc	pc, #111	; 0x6f
 134:	6f6f6863 	svcvs	0x006f6863
 138:	69572f6c 	ldmdbvs	r7, {r2, r3, r5, r6, r8, r9, sl, fp, sp}^
 13c:	7265746e 	rsbvc	r7, r5, #1845493760	; 0x6e000000
 140:	30323931 	eorscc	r3, r2, r1, lsr r9
 144:	3153432f 	cmpcc	r3, pc, lsr #6
 148:	2f453034 	svccs	0x00453034
 14c:	34317363 	ldrtcc	r7, [r1], #-867	; 0x363
 150:	322d6530 	eorcc	r6, sp, #48, 10	; 0xc000000
 154:	6e697730 	mcrvs	7, 3, r7, cr9, cr0, {1}
 158:	62696c2f 	rsbvs	r6, r9, #12032	; 0x2f00
 15c:	00006970 	andeq	r6, r0, r0, ror r9
 160:	732d6368 	teqvc	sp, #104, 6	; 0xa0000001
 164:	2e343072 	mrccs	0, 1, r3, cr4, cr2, {3}
 168:	00000063 	andeq	r0, r0, r3, rrx
 16c:	2d636800 	stclcs	8, cr6, [r3, #-0]
 170:	34307273 	ldrtcc	r7, [r0], #-627	; 0x273
 174:	0000682e 	andeq	r6, r0, lr, lsr #16
 178:	70670000 	rsbvc	r0, r7, r0
 17c:	682e6f69 	stmdavs	lr!, {r0, r3, r5, r6, r8, r9, sl, fp, sp, lr}
 180:	00000100 	andeq	r0, r0, r0, lsl #2
 184:	2e697072 	mcrcs	0, 3, r7, cr9, cr2, {3}
 188:	00020068 	andeq	r0, r2, r8, rrx
 18c:	05000000 	streq	r0, [r0, #-0]
 190:	0080b002 	addeq	fp, r0, r2
 194:	2a881a00 	bcs	fe20699c <__bss_end__+0xfe1fd184>
 198:	46832f85 	strmi	r2, [r3], r5, lsl #31
 19c:	4a120335 	bmi	480e78 <__bss_end__+0x477660>
 1a0:	674b4b83 	strbvs	r4, [fp, -r3, lsl #23]
 1a4:	14034c4b 	strne	r4, [r3], #-3147	; 0xc4b
 1a8:	4b67674a 	blmi	19d9ed8 <__bss_end__+0x19d06c0>
 1ac:	83674b67 	cmnhi	r7, #105472	; 0x19c00
 1b0:	d74d834d 	strble	r8, [sp, -sp, asr #6]
 1b4:	4e4a7903 	cdpmi	9, 4, cr7, cr10, cr3, {0}
 1b8:	00060232 	andeq	r0, r6, r2, lsr r2
 1bc:	00ad0101 	adceq	r0, sp, r1, lsl #2
 1c0:	00020000 	andeq	r0, r2, r0
 1c4:	0000006e 	andeq	r0, r0, lr, rrx
 1c8:	0efb0102 	cdpeq	1, 15, cr0, cr11, cr2, {0}
 1cc:	0101000d 	tsteq	r1, sp
 1d0:	00000101 	andeq	r0, r0, r1, lsl #2
 1d4:	00000100 	andeq	r0, r0, r0, lsl #2
 1d8:	73552f01 	cmpvc	r5, #1, 30
 1dc:	2f737265 	svccs	0x00737265
 1e0:	61697262 	cmnvs	r9, r2, ror #4
 1e4:	6e756a6e 	vsubvs.f32	s13, s10, s29
 1e8:	7365442f 	cmnvc	r5, #788529152	; 0x2f000000
 1ec:	706f746b 	rsbvc	r7, pc, fp, ror #8
 1f0:	6863732f 	stmdavs	r3!, {r0, r1, r2, r3, r5, r8, r9, ip, sp, lr}^
 1f4:	2f6c6f6f 	svccs	0x006c6f6f
 1f8:	746e6957 	strbtvc	r6, [lr], #-2391	; 0x957
 1fc:	39317265 	ldmdbcc	r1!, {r0, r2, r5, r6, r9, ip, sp, lr}
 200:	432f3032 	teqmi	pc, #50	; 0x32
 204:	30343153 	eorscc	r3, r4, r3, asr r1
 208:	73632f45 	cmnvc	r3, #276	; 0x114
 20c:	65303431 	ldrvs	r3, [r0, #-1073]!	; 0x431
 210:	7730322d 	ldrvc	r3, [r0, -sp, lsr #4]!
 214:	6c2f6e69 	stcvs	14, cr6, [pc], #-420	; 78 <_start-0x7f88>
 218:	69706269 	ldmdbvs	r0!, {r0, r3, r5, r6, r9, sp, lr}^
 21c:	70670000 	rsbvc	r0, r7, r0
 220:	702d6f69 	eorvc	r6, sp, r9, ror #30
 224:	632e6475 	teqvs	lr, #1962934272	; 0x75000000
 228:	00000000 	andeq	r0, r0, r0
 22c:	2e697072 	mcrcs	0, 3, r7, cr9, cr2, {3}
 230:	00010068 	andeq	r0, r1, r8, rrx
 234:	05000000 	streq	r0, [r0, #-0]
 238:	0081ec02 	addeq	lr, r1, r2, lsl #24
 23c:	2f4b1a00 	svccs	0x004b1a00
 240:	4c2f4c83 	stcmi	12, cr4, [pc], #-524	; 3c <_start-0x7fc4>
 244:	4b832f4c 	blmi	fe0cbf7c <__bss_end__+0xfe0c2764>
 248:	4b674b83 	blmi	19d305c <__bss_end__+0x19c9844>
 24c:	832f4b68 	teqhi	pc, #104, 22	; 0x1a000
 250:	4c4c2f4c 	mcrrmi	15, 4, r2, ip, cr12
 254:	834b832f 	movthi	r8, #45871	; 0xb32f
 258:	6a4b674b 	bvs	12d9f8c <__bss_end__+0x12d0774>
 25c:	4c832f4b 	stcmi	15, cr2, [r3], {75}	; 0x4b
 260:	2f4c4c2f 	svccs	0x004c4c2f
 264:	4c834c83 	stcmi	12, cr4, [r3], {131}	; 0x83
 268:	06024b67 	streq	r4, [r2], -r7, ror #22
 26c:	02010100 	andeq	r0, r1, #0, 2
 270:	02000001 	andeq	r0, r0, #1
 274:	0000eb00 	andeq	lr, r0, r0, lsl #22
 278:	fb010200 	blx	40a82 <__bss_end__+0x3726a>
 27c:	01000d0e 	tsteq	r0, lr, lsl #26
 280:	00010101 	andeq	r0, r1, r1, lsl #2
 284:	00010000 	andeq	r0, r1, r0
 288:	696c0100 	stmdbvs	ip!, {r8}^
 28c:	2f006362 	svccs	0x00006362
 290:	2f727375 	svccs	0x00727375
 294:	61636f6c 	cmnvs	r3, ip, ror #30
 298:	65432f6c 	strbvs	r2, [r3, #-3948]	; 0xf6c
 29c:	72616c6c 	rsbvc	r6, r1, #108, 24	; 0x6c00
 2a0:	6d72612f 	ldfvse	f6, [r2, #-188]!	; 0xffffff44
 2a4:	6e6f6e2d 	cdpvs	14, 6, cr6, cr15, cr13, {1}
 2a8:	61652d65 	cmnvs	r5, r5, ror #26
 2ac:	342f6962 	strtcc	r6, [pc], #-2402	; 2b4 <_start-0x7d4c>
 2b0:	332e382e 	teqcc	lr, #3014656	; 0x2e0000
 2b4:	3173632d 	cmncc	r3, sp, lsr #6
 2b8:	2f653037 	svccs	0x00653037
 2bc:	2f62696c 	svccs	0x0062696c
 2c0:	2f636367 	svccs	0x00636367
 2c4:	2d6d7261 	sfmcs	f7, 2, [sp, #-388]!	; 0xfffffe7c
 2c8:	656e6f6e 	strbvs	r6, [lr, #-3950]!	; 0xf6e
 2cc:	6261652d 	rsbvs	r6, r1, #188743680	; 0xb400000
 2d0:	2e342f69 	cdpcs	15, 3, cr2, cr4, cr9, {3}
 2d4:	2f332e38 	svccs	0x00332e38
 2d8:	6c636e69 	stclvs	14, cr6, [r3], #-420	; 0xfffffe5c
 2dc:	00656475 	rsbeq	r6, r5, r5, ror r4
 2e0:	6573552f 	ldrbvs	r5, [r3, #-1327]!	; 0x52f
 2e4:	622f7372 	eorvs	r7, pc, #-939524095	; 0xc8000001
 2e8:	6e616972 	mcrvs	9, 3, r6, cr1, cr2, {3}
 2ec:	2f6e756a 	svccs	0x006e756a
 2f0:	6b736544 	blvs	1cd9808 <__bss_end__+0x1ccfff0>
 2f4:	2f706f74 	svccs	0x00706f74
 2f8:	6f686373 	svcvs	0x00686373
 2fc:	572f6c6f 	strpl	r6, [pc, -pc, ror #24]!
 300:	65746e69 	ldrbvs	r6, [r4, #-3689]!	; 0xe69
 304:	32393172 	eorscc	r3, r9, #-2147483620	; 0x8000001c
 308:	53432f30 	movtpl	r2, #16176	; 0x3f30
 30c:	45303431 	ldrmi	r3, [r0, #-1073]!	; 0x431
 310:	3173632f 	cmncc	r3, pc, lsr #6
 314:	2d653034 	stclcs	0, cr3, [r5, #-208]!	; 0xffffff30
 318:	69773032 	ldmdbvs	r7!, {r1, r4, r5, ip, sp}^
 31c:	696c2f6e 	stmdbvs	ip!, {r1, r2, r3, r5, r6, r8, r9, sl, fp, sp}^
 320:	00697062 	rsbeq	r7, r9, r2, rrx
 324:	69727000 	ldmdbvs	r2!, {ip, sp, lr}^
 328:	2e6b746e 	cdpcs	4, 6, cr7, cr11, cr14, {3}
 32c:	00010063 	andeq	r0, r1, r3, rrx
 330:	64747300 	ldrbtvs	r7, [r4], #-768	; 0x300
 334:	2e677261 	cdpcs	2, 6, cr7, cr7, cr1, {3}
 338:	00020068 	andeq	r0, r2, r8, rrx
 33c:	75623c00 	strbvc	r3, [r2, #-3072]!	; 0xc00
 340:	2d746c69 	ldclcs	12, cr6, [r4, #-420]!	; 0xfffffe5c
 344:	003e6e69 	eorseq	r6, lr, r9, ror #28
 348:	72000000 	andvc	r0, r0, #0
 34c:	682e6970 	stmdavs	lr!, {r4, r5, r6, r8, fp, sp, lr}
 350:	00000300 	andeq	r0, r0, r0, lsl #6
 354:	702d6176 	eorvc	r6, sp, r6, ror r1
 358:	746e6972 	strbtvc	r6, [lr], #-2418	; 0x972
 35c:	00682e6b 	rsbeq	r2, r8, fp, ror #28
 360:	00000001 	andeq	r0, r0, r1
 364:	90020500 	andls	r0, r2, r0, lsl #10
 368:	17000083 	strne	r0, [r0, -r3, lsl #1]
 36c:	89bf4b6b 	ldmibhi	pc!, {r0, r1, r3, r5, r6, r8, r9, fp, lr}	; <UNPREDICTABLE>
 370:	01000e02 	tsteq	r0, r2, lsl #28
 374:	00009601 	andeq	r9, r0, r1, lsl #12
 378:	6f000200 	svcvs	0x00000200
 37c:	02000000 	andeq	r0, r0, #0
 380:	0d0efb01 	vstreq	d15, [lr, #-4]
 384:	01010100 	mrseq	r0, (UNDEF: 17)
 388:	00000001 	andeq	r0, r0, r1
 38c:	01000001 	tsteq	r0, r1
 390:	6362696c 	cmnvs	r2, #108, 18	; 0x1b0000
 394:	73552f00 	cmpvc	r5, #0, 30
 398:	2f737265 	svccs	0x00737265
 39c:	61697262 	cmnvs	r9, r2, ror #4
 3a0:	6e756a6e 	vsubvs.f32	s13, s10, s29
 3a4:	7365442f 	cmnvc	r5, #788529152	; 0x2f000000
 3a8:	706f746b 	rsbvc	r7, pc, fp, ror #8
 3ac:	6863732f 	stmdavs	r3!, {r0, r1, r2, r3, r5, r8, r9, ip, sp, lr}^
 3b0:	2f6c6f6f 	svccs	0x006c6f6f
 3b4:	746e6957 	strbtvc	r6, [lr], #-2391	; 0x957
 3b8:	39317265 	ldmdbcc	r1!, {r0, r2, r5, r6, r9, ip, sp, lr}
 3bc:	432f3032 	teqmi	pc, #50	; 0x32
 3c0:	30343153 	eorscc	r3, r4, r3, asr r1
 3c4:	73632f45 	cmnvc	r3, #276	; 0x114
 3c8:	65303431 	ldrvs	r3, [r0, #-1073]!	; 0x431
 3cc:	7730322d 	ldrvc	r3, [r0, -sp, lsr #4]!
 3d0:	6c2f6e69 	stcvs	14, cr6, [pc], #-420	; 234 <_start-0x7dcc>
 3d4:	69706269 	ldmdbvs	r0!, {r0, r3, r5, r6, r9, sp, lr}^
 3d8:	75700000 	ldrbvc	r0, [r0, #-0]!
 3dc:	632e6b74 	teqvs	lr, #116, 22	; 0x1d000
 3e0:	00000100 	andeq	r0, r0, r0, lsl #2
 3e4:	2e697072 	mcrcs	0, 3, r7, cr9, cr2, {3}
 3e8:	00020068 	andeq	r0, r2, r8, rrx
 3ec:	05000000 	streq	r0, [r0, #-0]
 3f0:	0083e802 	addeq	lr, r3, r2, lsl #16
 3f4:	2d4c1500 	cfstr64cs	mvdx1, [ip, #-0]
 3f8:	02040200 	andeq	r0, r4, #0, 4
 3fc:	0402002f 	streq	r0, [r2], #-47	; 0x2f
 400:	02004902 	andeq	r4, r0, #32768	; 0x8000
 404:	2e060104 	adfcss	f0, f6, f4
 408:	06026b06 	streq	r6, [r2], -r6, lsl #22
 40c:	de010100 	adfles	f0, f1, f0
 410:	02000001 	andeq	r0, r0, #1
 414:	0000df00 	andeq	sp, r0, r0, lsl #30
 418:	fb010200 	blx	40c22 <__bss_end__+0x3740a>
 41c:	01000d0e 	tsteq	r0, lr, lsl #26
 420:	00010101 	andeq	r0, r1, r1, lsl #2
 424:	00010000 	andeq	r0, r1, r0
 428:	696c0100 	stmdbvs	ip!, {r8}^
 42c:	2f006362 	svccs	0x00006362
 430:	2f727375 	svccs	0x00727375
 434:	61636f6c 	cmnvs	r3, ip, ror #30
 438:	65432f6c 	strbvs	r2, [r3, #-3948]	; 0xf6c
 43c:	72616c6c 	rsbvc	r6, r1, #108, 24	; 0x6c00
 440:	6d72612f 	ldfvse	f6, [r2, #-188]!	; 0xffffff44
 444:	6e6f6e2d 	cdpvs	14, 6, cr6, cr15, cr13, {1}
 448:	61652d65 	cmnvs	r5, r5, ror #26
 44c:	342f6962 	strtcc	r6, [pc], #-2402	; 454 <_start-0x7bac>
 450:	332e382e 	teqcc	lr, #3014656	; 0x2e0000
 454:	3173632d 	cmncc	r3, sp, lsr #6
 458:	2f653037 	svccs	0x00653037
 45c:	2f62696c 	svccs	0x0062696c
 460:	2f636367 	svccs	0x00636367
 464:	2d6d7261 	sfmcs	f7, 2, [sp, #-388]!	; 0xfffffe7c
 468:	656e6f6e 	strbvs	r6, [lr, #-3950]!	; 0xf6e
 46c:	6261652d 	rsbvs	r6, r1, #188743680	; 0xb400000
 470:	2e342f69 	cdpcs	15, 3, cr2, cr4, cr9, {3}
 474:	2f332e38 	svccs	0x00332e38
 478:	6c636e69 	stclvs	14, cr6, [r3], #-420	; 0xfffffe5c
 47c:	00656475 	rsbeq	r6, r5, r5, ror r4
 480:	6573552f 	ldrbvs	r5, [r3, #-1327]!	; 0x52f
 484:	622f7372 	eorvs	r7, pc, #-939524095	; 0xc8000001
 488:	6e616972 	mcrvs	9, 3, r6, cr1, cr2, {3}
 48c:	2f6e756a 	svccs	0x006e756a
 490:	6b736544 	blvs	1cd99a8 <__bss_end__+0x1cd0190>
 494:	2f706f74 	svccs	0x00706f74
 498:	6f686373 	svcvs	0x00686373
 49c:	572f6c6f 	strpl	r6, [pc, -pc, ror #24]!
 4a0:	65746e69 	ldrbvs	r6, [r4, #-3689]!	; 0xe69
 4a4:	32393172 	eorscc	r3, r9, #-2147483620	; 0x8000001c
 4a8:	53432f30 	movtpl	r2, #16176	; 0x3f30
 4ac:	45303431 	ldrmi	r3, [r0, #-1073]!	; 0x431
 4b0:	3173632f 	cmncc	r3, pc, lsr #6
 4b4:	2d653034 	stclcs	0, cr3, [r5, #-208]!	; 0xffffff30
 4b8:	69773032 	ldmdbvs	r7!, {r1, r4, r5, ip, sp}^
 4bc:	696c2f6e 	stmdbvs	ip!, {r1, r2, r3, r5, r6, r8, r9, sl, fp, sp}^
 4c0:	00697062 	rsbeq	r7, r9, r2, rrx
 4c4:	2d617600 	stclcs	6, cr7, [r1, #-0]
 4c8:	6e697270 	mcrvs	2, 3, r7, cr9, cr0, {3}
 4cc:	632e6b74 	teqvs	lr, #116, 22	; 0x1d000
 4d0:	00000100 	andeq	r0, r0, r0, lsl #2
 4d4:	61647473 	smcvs	18243	; 0x4743
 4d8:	682e6772 	stmdavs	lr!, {r1, r4, r5, r6, r8, r9, sl, sp, lr}
 4dc:	00000200 	andeq	r0, r0, r0, lsl #4
 4e0:	2e697072 	mcrcs	0, 3, r7, cr9, cr2, {3}
 4e4:	00030068 	andeq	r0, r3, r8, rrx
 4e8:	75623c00 	strbvc	r3, [r2, #-3072]!	; 0xc00
 4ec:	2d746c69 	ldclcs	12, cr6, [r4, #-420]!	; 0xfffffe5c
 4f0:	003e6e69 	eorseq	r6, lr, r9, ror #28
 4f4:	00000000 	andeq	r0, r0, r0
 4f8:	1c020500 	cfstr32ne	mvfx0, [r2], {-0}
 4fc:	03000084 	movweq	r0, #132	; 0x84
 500:	a5010126 	strge	r0, [r1, #-294]	; 0x126
 504:	002d3113 	eoreq	r3, sp, r3, lsl r1
 508:	2f020402 	svccs	0x00020402
 50c:	02040200 	andeq	r0, r4, #0, 4
 510:	0402002d 	streq	r0, [r2], #-45	; 0x2d
 514:	02002f02 	andeq	r2, r0, #2, 30
 518:	4c2d0104 	stfmis	f0, [sp], #-16
 51c:	4b14304c 	blmi	50c654 <__bss_end__+0x502e3c>
 520:	02004f2f 	andeq	r4, r0, #47, 30	; 0xbc
 524:	00670204 	rsbeq	r0, r7, r4, lsl #4
 528:	65010402 	strvs	r0, [r1, #-1026]	; 0x402
 52c:	a0304d4c 	eorsge	r4, r0, ip, asr #26
 530:	0230312f 	eorseq	r3, r0, #-1073741813	; 0xc000000b
 534:	2d841626 	stccs	6, cr1, [r4, #152]	; 0x98
 538:	0402002c 	streq	r0, [r2], #-44	; 0x2c
 53c:	02003001 	andeq	r3, r0, #1
 540:	06330104 	ldrteq	r0, [r3], -r4, lsl #2
 544:	04020066 	streq	r0, [r2], #-102	; 0x66
 548:	02002e01 	andeq	r2, r0, #1, 28
 54c:	08060104 	stmdaeq	r6, {r2, r8}
 550:	032f6721 	teqeq	pc, #8650752	; 0x840000
 554:	13038273 	movwne	r8, #12915	; 0x3273
 558:	0402002e 	streq	r0, [r2], #-46	; 0x2e
 55c:	002e0601 	eoreq	r0, lr, r1, lsl #12
 560:	06010402 	streq	r0, [r1], -r2, lsl #8
 564:	034b6a9f 	movteq	r6, #47775	; 0xba9f
 568:	21032e67 	tstcs	r3, r7, ror #28
 56c:	0402002e 	streq	r0, [r2], #-46	; 0x2e
 570:	002e0601 	eoreq	r0, lr, r1, lsl #12
 574:	06010402 	streq	r0, [r1], -r2, lsl #8
 578:	0402009f 	streq	r0, [r2], #-159	; 0x9f
 57c:	f3d96a01 	vmlsl.u16	q11, d9, d1
 580:	087fa603 	ldmdaeq	pc!, {r0, r1, r9, sl, sp, pc}^	; <UNPREDICTABLE>
 584:	02002f20 	andeq	r2, r0, #32, 30	; 0x80
 588:	4a060104 	bmi	1809a0 <__bss_end__+0x177188>
 58c:	2f4bd706 	svccs	0x004bd706
 590:	f200da03 	vpmax.s8	d13, d0, d3
 594:	03484c83 	movteq	r4, #35971	; 0x8c83
 598:	75032e0e 	strvc	r2, [r3, #-3598]	; 0xe0e
 59c:	842f2f2e 	strthi	r2, [pc], #-3886	; 5a4 <_start-0x7a5c>
 5a0:	4d2d2f4b 	stcmi	15, cr2, [sp, #-300]!	; 0xfffffed4
 5a4:	832f3031 	teqhi	pc, #49	; 0x31
 5a8:	01040200 	mrseq	r0, R12_usr
 5ac:	0200a22c 	andeq	sl, r0, #44, 4	; 0xc0000002
 5b0:	4a060104 	bmi	1809c8 <__bss_end__+0x1771b0>
 5b4:	3602d806 	strcc	sp, [r2], -r6, lsl #16
 5b8:	d60e0316 			; <UNDEFINED> instruction: 0xd60e0316
 5bc:	f3302108 	vrhadd.u<illegal width 64>	d2, d0, d8
 5c0:	f330f331 	vcge.u<illegal width 64>	d15, d0, d17
 5c4:	f3304b30 			; <UNDEFINED> instruction: 0xf3304b30
 5c8:	31230830 	teqcc	r3, r0, lsr r8
 5cc:	0402002f 	streq	r0, [r2], #-47	; 0x2f
 5d0:	02006501 	andeq	r6, r0, #4194304	; 0x400000
 5d4:	4a060204 	bmi	180dec <__bss_end__+0x1775d4>
 5d8:	01040200 	mrseq	r0, R12_usr
 5dc:	66420306 	strbvs	r0, [r2], -r6, lsl #6
 5e0:	02040200 	andeq	r0, r4, #0, 4
 5e4:	03066606 	movweq	r6, #26118	; 0x6606
 5e8:	684a00c2 	stmdavs	sl, {r1, r6, r7}^
 5ec:	01001002 	tsteq	r0, r2
 5f0:	00009301 	andeq	r9, r0, r1, lsl #6
 5f4:	7d000200 	sfmvc	f0, 4, [r0, #-0]
 5f8:	02000000 	andeq	r0, r0, #0
 5fc:	0d0efb01 	vstreq	d15, [lr, #-4]
 600:	01010100 	mrseq	r0, (UNDEF: 17)
 604:	00000001 	andeq	r0, r0, r1
 608:	01000001 	tsteq	r0, r1
 60c:	34317363 	ldrtcc	r7, [r1], #-867	; 0x363
 610:	732d6530 	teqvc	sp, #48, 10	; 0xc000000
 614:	2f006372 	svccs	0x00006372
 618:	72657355 	rsbvc	r7, r5, #1409286145	; 0x54000001
 61c:	72622f73 	rsbvc	r2, r2, #460	; 0x1cc
 620:	6a6e6169 	bvs	1b98bcc <__bss_end__+0x1b8f3b4>
 624:	442f6e75 	strtmi	r6, [pc], #-3701	; 62c <_start-0x79d4>
 628:	746b7365 	strbtvc	r7, [fp], #-869	; 0x365
 62c:	732f706f 	teqvc	pc, #111	; 0x6f
 630:	6f6f6863 	svcvs	0x006f6863
 634:	69572f6c 	ldmdbvs	r7, {r2, r3, r5, r6, r8, r9, sl, fp, sp}^
 638:	7265746e 	rsbvc	r7, r5, #1845493760	; 0x6e000000
 63c:	30323931 	eorscc	r3, r2, r1, lsr r9
 640:	3153432f 	cmpcc	r3, pc, lsr #6
 644:	2f453034 	svccs	0x00453034
 648:	34317363 	ldrtcc	r7, [r1], #-867	; 0x363
 64c:	322d6530 	eorcc	r6, sp, #48, 10	; 0xc000000
 650:	6e697730 	mcrvs	7, 3, r7, cr9, cr0, {1}
 654:	62696c2f 	rsbvs	r6, r9, #12032	; 0x2f00
 658:	00006970 	andeq	r6, r0, r0, ror r9
 65c:	61656c63 	cmnvs	r5, r3, ror #24
 660:	65722d6e 	ldrbvs	r2, [r2, #-3438]!	; 0xd6e
 664:	746f6f62 	strbtvc	r6, [pc], #-3938	; 66c <_start-0x7994>
 668:	0100632e 	tsteq	r0, lr, lsr #6
 66c:	70720000 	rsbsvc	r0, r2, r0
 670:	00682e69 	rsbeq	r2, r8, r9, ror #28
 674:	00000002 	andeq	r0, r0, r2
 678:	14020500 	strne	r0, [r2], #-1280	; 0x500
 67c:	15000089 	strne	r0, [r0, #-137]	; 0x89
 680:	024b832f 	subeq	r8, fp, #-1140850688	; 0xbc000000
 684:	01010006 	tsteq	r1, r6
 688:	0000009a 	muleq	r0, sl, r0
 68c:	00770002 	rsbseq	r0, r7, r2
 690:	01020000 	mrseq	r0, (UNDEF: 2)
 694:	000d0efb 	strdeq	r0, [sp], -fp
 698:	01010101 	tsteq	r1, r1, lsl #2
 69c:	01000000 	mrseq	r0, (UNDEF: 0)
 6a0:	63010000 	movwvs	r0, #4096	; 0x1000
 6a4:	30343173 	eorscc	r3, r4, r3, ror r1
 6a8:	72732d65 	rsbsvc	r2, r3, #6464	; 0x1940
 6ac:	552f0063 	strpl	r0, [pc, #-99]!	; 651 <_start-0x79af>
 6b0:	73726573 	cmnvc	r2, #482344960	; 0x1cc00000
 6b4:	6972622f 	ldmdbvs	r2!, {r0, r1, r2, r3, r5, r9, sp, lr}^
 6b8:	756a6e61 	strbvc	r6, [sl, #-3681]!	; 0xe61
 6bc:	65442f6e 	strbvs	r2, [r4, #-3950]	; 0xf6e
 6c0:	6f746b73 	svcvs	0x00746b73
 6c4:	63732f70 	cmnvs	r3, #112, 30	; 0x1c0
 6c8:	6c6f6f68 	stclvs	15, cr6, [pc], #-416	; 530 <_start-0x7ad0>
 6cc:	6e69572f 	cdpvs	7, 6, cr5, cr9, cr15, {1}
 6d0:	31726574 	cmncc	r2, r4, ror r5
 6d4:	2f303239 	svccs	0x00303239
 6d8:	34315343 	ldrtcc	r5, [r1], #-835	; 0x343
 6dc:	632f4530 	teqvs	pc, #48, 10	; 0xc000000
 6e0:	30343173 	eorscc	r3, r4, r3, ror r1
 6e4:	30322d65 	eorscc	r2, r2, r5, ror #26
 6e8:	2f6e6977 	svccs	0x006e6977
 6ec:	7062696c 	rsbvc	r6, r2, ip, ror #18
 6f0:	63000069 	movwvs	r0, #105	; 0x69
 6f4:	72617473 	rsbvc	r7, r1, #1929379840	; 0x73000000
 6f8:	00632e74 	rsbeq	r2, r3, r4, ror lr
 6fc:	72000001 	andvc	r0, r0, #1
 700:	682e6970 	stmdavs	lr!, {r4, r5, r6, r8, fp, sp, lr}
 704:	00000200 	andeq	r0, r0, r0, lsl #4
 708:	02050000 	andeq	r0, r5, #0
 70c:	0000893c 	andeq	r8, r0, ip, lsr r9
 710:	32010c03 	andcc	r0, r1, #768	; 0x300
 714:	2f2d2f31 	svccs	0x002d2f31
 718:	01040200 	mrseq	r0, R12_usr
 71c:	4a0f0349 	bmi	3c1448 <__bss_end__+0x3b7c30>
 720:	0006022f 	andeq	r0, r6, pc, lsr #4
 724:	00990101 	addseq	r0, r9, r1, lsl #2
 728:	00020000 	andeq	r0, r2, r0
 72c:	00000077 	andeq	r0, r0, r7, ror r0
 730:	0efb0102 	cdpeq	1, 15, cr0, cr11, cr2, {0}
 734:	0101000d 	tsteq	r1, sp
 738:	00000101 	andeq	r0, r0, r1, lsl #2
 73c:	00000100 	andeq	r0, r0, r0, lsl #2
 740:	31736301 	cmncc	r3, r1, lsl #6
 744:	2d653034 	stclcs	0, cr3, [r5, #-208]!	; 0xffffff30
 748:	00637273 	rsbeq	r7, r3, r3, ror r2
 74c:	6573552f 	ldrbvs	r5, [r3, #-1327]!	; 0x52f
 750:	622f7372 	eorvs	r7, pc, #-939524095	; 0xc8000001
 754:	6e616972 	mcrvs	9, 3, r6, cr1, cr2, {3}
 758:	2f6e756a 	svccs	0x006e756a
 75c:	6b736544 	blvs	1cd9c74 <__bss_end__+0x1cd045c>
 760:	2f706f74 	svccs	0x00706f74
 764:	6f686373 	svcvs	0x00686373
 768:	572f6c6f 	strpl	r6, [pc, -pc, ror #24]!
 76c:	65746e69 	ldrbvs	r6, [r4, #-3689]!	; 0xe69
 770:	32393172 	eorscc	r3, r9, #-2147483620	; 0x8000001c
 774:	53432f30 	movtpl	r2, #16176	; 0x3f30
 778:	45303431 	ldrmi	r3, [r0, #-1073]!	; 0x431
 77c:	3173632f 	cmncc	r3, pc, lsr #6
 780:	2d653034 	stclcs	0, cr3, [r5, #-208]!	; 0xffffff30
 784:	69773032 	ldmdbvs	r7!, {r1, r4, r5, ip, sp}^
 788:	696c2f6e 	stmdbvs	ip!, {r1, r2, r3, r5, r6, r8, r9, sl, fp, sp}^
 78c:	00697062 	rsbeq	r7, r9, r2, rrx
 790:	62657200 	rsbvs	r7, r5, #0, 4
 794:	2e746f6f 	cdpcs	15, 7, cr6, cr4, cr15, {3}
 798:	00010063 	andeq	r0, r1, r3, rrx
 79c:	69707200 	ldmdbvs	r0!, {r9, ip, sp, lr}^
 7a0:	0200682e 	andeq	r6, r0, #3014656	; 0x2e0000
 7a4:	00000000 	andeq	r0, r0, r0
 7a8:	89700205 	ldmdbhi	r0!, {r0, r2, r9}^
 7ac:	0d030000 	stceq	0, cr0, [r3, #-0]
 7b0:	2f311401 	svccs	0x00311401
 7b4:	4b2f1585 	blmi	bc5dd0 <__bss_end__+0xbbc5b8>
 7b8:	35672f4d 	strbcc	r2, [r7, #-3917]!	; 0xf4d
 7bc:	10026752 	andne	r6, r2, r2, asr r7
 7c0:	a3010100 	movwge	r0, #4352	; 0x1100
 7c4:	02000000 	andeq	r0, r0, #0
 7c8:	00007600 	andeq	r7, r0, r0, lsl #12
 7cc:	fb010200 	blx	40fd6 <__bss_end__+0x377be>
 7d0:	01000d0e 	tsteq	r0, lr, lsl #26
 7d4:	00010101 	andeq	r0, r1, r1, lsl #2
 7d8:	00010000 	andeq	r0, r1, r0
 7dc:	73630100 	cmnvc	r3, #0, 2
 7e0:	65303431 	ldrvs	r3, [r0, #-1073]!	; 0x431
 7e4:	6372732d 	cmnvs	r2, #-1275068416	; 0xb4000000
 7e8:	73552f00 	cmpvc	r5, #0, 30
 7ec:	2f737265 	svccs	0x00737265
 7f0:	61697262 	cmnvs	r9, r2, ror #4
 7f4:	6e756a6e 	vsubvs.f32	s13, s10, s29
 7f8:	7365442f 	cmnvc	r5, #788529152	; 0x2f000000
 7fc:	706f746b 	rsbvc	r7, pc, fp, ror #8
 800:	6863732f 	stmdavs	r3!, {r0, r1, r2, r3, r5, r8, r9, ip, sp, lr}^
 804:	2f6c6f6f 	svccs	0x006c6f6f
 808:	746e6957 	strbtvc	r6, [lr], #-2391	; 0x957
 80c:	39317265 	ldmdbcc	r1!, {r0, r2, r5, r6, r9, ip, sp, lr}
 810:	432f3032 	teqmi	pc, #50	; 0x32
 814:	30343153 	eorscc	r3, r4, r3, asr r1
 818:	73632f45 	cmnvc	r3, #276	; 0x114
 81c:	65303431 	ldrvs	r3, [r0, #-1073]!	; 0x431
 820:	7730322d 	ldrvc	r3, [r0, -sp, lsr #4]!
 824:	6c2f6e69 	stcvs	14, cr6, [pc], #-420	; 688 <_start-0x7978>
 828:	69706269 	ldmdbvs	r0!, {r0, r3, r5, r6, r9, sp, lr}^
 82c:	69740000 	ldmdbvs	r4!, {}^	; <UNPREDICTABLE>
 830:	2e72656d 	cdpcs	5, 7, cr6, cr2, cr13, {3}
 834:	00010063 	andeq	r0, r1, r3, rrx
 838:	69707200 	ldmdbvs	r0!, {r9, ip, sp, lr}^
 83c:	0200682e 	andeq	r6, r0, #3014656	; 0x2e0000
 840:	00000000 	andeq	r0, r0, r0
 844:	89e40205 	stmibhi	r4!, {r0, r2, r9}^
 848:	14160000 	ldrne	r0, [r6], #-0
 84c:	02002d2f 	andeq	r2, r0, #3008	; 0xbc0
 850:	2e060104 	adfcss	f0, f6, f4
 854:	2f316d06 	svccs	0x00316d06
 858:	31324d4b 	teqcc	r2, fp, asr #26
 85c:	2f4c4b30 	svccs	0x004c4b30
 860:	842f2f6a 	strthi	r2, [pc], #-3946	; 868 <_start-0x7798>
 864:	0008022f 	andeq	r0, r8, pc, lsr #4
 868:	017f0101 	cmneq	pc, r1, lsl #2
 86c:	00020000 	andeq	r0, r2, r0
 870:	000000ca 	andeq	r0, r0, sl, asr #1
 874:	0efb0102 	cdpeq	1, 15, cr0, cr11, cr2, {0}
 878:	0101000d 	tsteq	r1, sp
 87c:	00000101 	andeq	r0, r0, r1, lsl #2
 880:	00000100 	andeq	r0, r0, r0, lsl #2
 884:	2d796d01 	ldclcs	13, cr6, [r9, #-4]!
 888:	00637273 	rsbeq	r7, r3, r3, ror r2
 88c:	6573552f 	ldrbvs	r5, [r3, #-1327]!	; 0x52f
 890:	622f7372 	eorvs	r7, pc, #-939524095	; 0xc8000001
 894:	6e616972 	mcrvs	9, 3, r6, cr1, cr2, {3}
 898:	2f6e756a 	svccs	0x006e756a
 89c:	6b736544 	blvs	1cd9db4 <__bss_end__+0x1cd059c>
 8a0:	2f706f74 	svccs	0x00706f74
 8a4:	6f686373 	svcvs	0x00686373
 8a8:	572f6c6f 	strpl	r6, [pc, -pc, ror #24]!
 8ac:	65746e69 	ldrbvs	r6, [r4, #-3689]!	; 0xe69
 8b0:	32393172 	eorscc	r3, r9, #-2147483620	; 0x8000001c
 8b4:	53432f30 	movtpl	r2, #16176	; 0x3f30
 8b8:	45303431 	ldrmi	r3, [r0, #-1073]!	; 0x431
 8bc:	3173632f 	cmncc	r3, pc, lsr #6
 8c0:	2d653034 	stclcs	0, cr3, [r5, #-208]!	; 0xffffff30
 8c4:	69773032 	ldmdbvs	r7!, {r1, r4, r5, ip, sp}^
 8c8:	696c2f6e 	stmdbvs	ip!, {r1, r2, r3, r5, r6, r8, r9, sl, fp, sp}^
 8cc:	2f697062 	svccs	0x00697062
 8d0:	34317363 	ldrtcc	r7, [r1], #-867	; 0x363
 8d4:	732d6530 	teqvc	sp, #48, 10	; 0xc000000
 8d8:	2f006372 	svccs	0x00006372
 8dc:	72657355 	rsbvc	r7, r5, #1409286145	; 0x54000001
 8e0:	72622f73 	rsbvc	r2, r2, #460	; 0x1cc
 8e4:	6a6e6169 	bvs	1b98e90 <__bss_end__+0x1b8f678>
 8e8:	442f6e75 	strtmi	r6, [pc], #-3701	; 8f0 <_start-0x7710>
 8ec:	746b7365 	strbtvc	r7, [fp], #-869	; 0x365
 8f0:	732f706f 	teqvc	pc, #111	; 0x6f
 8f4:	6f6f6863 	svcvs	0x006f6863
 8f8:	69572f6c 	ldmdbvs	r7, {r2, r3, r5, r6, r8, r9, sl, fp, sp}^
 8fc:	7265746e 	rsbvc	r7, r5, #1845493760	; 0x6e000000
 900:	30323931 	eorscc	r3, r2, r1, lsr r9
 904:	3153432f 	cmpcc	r3, pc, lsr #6
 908:	2f453034 	svccs	0x00453034
 90c:	34317363 	ldrtcc	r7, [r1], #-867	; 0x363
 910:	322d6530 	eorcc	r6, sp, #48, 10	; 0xc000000
 914:	6e697730 	mcrvs	7, 3, r7, cr9, cr0, {1}
 918:	62696c2f 	rsbvs	r6, r9, #12032	; 0x2f00
 91c:	00006970 	andeq	r6, r0, r0, ror r9
 920:	6f697067 	svcvs	0x00697067
 924:	0100632e 	tsteq	r0, lr, lsr #6
 928:	70670000 	rsbvc	r0, r7, r0
 92c:	682e6f69 	stmdavs	lr!, {r0, r3, r5, r6, r8, r9, sl, fp, sp, lr}
 930:	00000200 	andeq	r0, r0, r0, lsl #4
 934:	2e697072 	mcrcs	0, 3, r7, cr9, cr2, {3}
 938:	00030068 	andeq	r0, r3, r8, rrx
 93c:	05000000 	streq	r0, [r0, #-0]
 940:	008a6c02 	addeq	r6, sl, r2, lsl #24
 944:	013e0300 	teqeq	lr, r0, lsl #6
 948:	0869504e 	stmdaeq	r9!, {r1, r2, r3, r6, ip, lr}^
 94c:	67676721 	strbvs	r6, [r7, -r1, lsr #14]!
 950:	32676767 	rsbcc	r6, r7, #27000832	; 0x19c0000
 954:	dc22084b 	stcle	8, cr0, [r2], #-300	; 0xfffffed4
 958:	4e135131 	mrcmi	1, 0, r5, cr3, cr1, {1}
 95c:	31be3050 			; <UNDEFINED> instruction: 0x31be3050
 960:	4f4d1350 	svcmi	0x004d1350
 964:	504cc030 	subpl	ip, ip, r0, lsr r0
 968:	67210869 	strvs	r0, [r1, -r9, ror #16]!
 96c:	67676767 	strbvs	r6, [r7, -r7, ror #14]!
 970:	084b3267 	stmdaeq	fp, {r0, r1, r2, r5, r6, r9, ip, sp}^
 974:	504ca321 	subpl	sl, ip, r1, lsr #6
 978:	0369842f 	cmneq	r9, #788529152	; 0x2f000000
 97c:	0c038275 	sfmeq	f0, 1, [r3], {117}	; 0x75
 980:	4e304d2e 	cdpmi	13, 3, cr4, cr0, cr14, {1}
 984:	6a4d4c4b 	bvs	1353ab8 <__bss_end__+0x134a2a0>
 988:	2108696b 	tstcs	r8, fp, ror #18
 98c:	67676767 	strbvs	r6, [r7, -r7, ror #14]!
 990:	4b326767 	blmi	c9a734 <__bss_end__+0xc90f1c>
 994:	30c02208 	sbccc	r2, r0, r8, lsl #4
 998:	504e1351 	subpl	r1, lr, r1, asr r3
 99c:	ba180330 	blt	601664 <__bss_end__+0x5f7e4c>
 9a0:	2f4c9f31 	svccs	0x004c9f31
 9a4:	2f4e4d52 	svccs	0x004e4d52
 9a8:	684b674b 	stmdavs	fp, {r0, r1, r3, r6, r8, r9, sl, sp, lr}^
 9ac:	2f4c6767 	svccs	0x004c6767
 9b0:	6e4b2f67 	cdpvs	15, 4, cr2, cr11, cr7, {3}
 9b4:	4b2f4e4c 	blmi	bd42ec <__bss_end__+0xbcaad4>
 9b8:	67684b67 	strbvs	r4, [r8, -r7, ror #22]!
 9bc:	672f4c67 	strvs	r4, [pc, -r7, ror #24]!
 9c0:	4b6d4b2f 	blmi	1b53684 <__bss_end__+0x1b49e6c>
 9c4:	674b2f4e 	strbvs	r2, [fp, -lr, asr #30]
 9c8:	01040200 	mrseq	r0, R12_usr
 9cc:	68066606 	stmdavs	r6, {r1, r2, r9, sl, sp, lr}
 9d0:	02002f9f 	andeq	r2, r0, #636	; 0x27c
 9d4:	4a060104 	bmi	180dec <__bss_end__+0x1775d4>
 9d8:	032f6806 	teqeq	pc, #393216	; 0x60000
 9dc:	0e034a73 	mcreq	10, 0, r4, cr3, cr3, {3}
 9e0:	4e4c4d2e 	cdpmi	13, 4, cr4, cr12, cr14, {1}
 9e4:	bcbc4b2f 	fldmiaxlt	ip!, {d4-d26}	;@ Deprecated
 9e8:	01000602 	tsteq	r0, r2, lsl #12
 9ec:	00010101 	andeq	r0, r1, r1, lsl #2
 9f0:	ca000200 	bgt	11f8 <_start-0x6e08>
 9f4:	02000000 	andeq	r0, r0, #0
 9f8:	0d0efb01 	vstreq	d15, [lr, #-4]
 9fc:	01010100 	mrseq	r0, (UNDEF: 17)
 a00:	00000001 	andeq	r0, r0, r1
 a04:	01000001 	tsteq	r0, r1
 a08:	732d796d 	teqvc	sp, #1785856	; 0x1b4000
 a0c:	2f006372 	svccs	0x00006372
 a10:	72657355 	rsbvc	r7, r5, #1409286145	; 0x54000001
 a14:	72622f73 	rsbvc	r2, r2, #460	; 0x1cc
 a18:	6a6e6169 	bvs	1b98fc4 <__bss_end__+0x1b8f7ac>
 a1c:	442f6e75 	strtmi	r6, [pc], #-3701	; a24 <_start-0x75dc>
 a20:	746b7365 	strbtvc	r7, [fp], #-869	; 0x365
 a24:	732f706f 	teqvc	pc, #111	; 0x6f
 a28:	6f6f6863 	svcvs	0x006f6863
 a2c:	69572f6c 	ldmdbvs	r7, {r2, r3, r5, r6, r8, r9, sl, fp, sp}^
 a30:	7265746e 	rsbvc	r7, r5, #1845493760	; 0x6e000000
 a34:	30323931 	eorscc	r3, r2, r1, lsr r9
 a38:	3153432f 	cmpcc	r3, pc, lsr #6
 a3c:	2f453034 	svccs	0x00453034
 a40:	34317363 	ldrtcc	r7, [r1], #-867	; 0x363
 a44:	322d6530 	eorcc	r6, sp, #48, 10	; 0xc000000
 a48:	6e697730 	mcrvs	7, 3, r7, cr9, cr0, {1}
 a4c:	62696c2f 	rsbvs	r6, r9, #12032	; 0x2f00
 a50:	632f6970 	teqvs	pc, #112, 18	; 0x1c0000
 a54:	30343173 	eorscc	r3, r4, r3, ror r1
 a58:	72732d65 	rsbsvc	r2, r3, #6464	; 0x1940
 a5c:	552f0063 	strpl	r0, [pc, #-99]!	; a01 <_start-0x75ff>
 a60:	73726573 	cmnvc	r2, #482344960	; 0x1cc00000
 a64:	6972622f 	ldmdbvs	r2!, {r0, r1, r2, r3, r5, r9, sp, lr}^
 a68:	756a6e61 	strbvc	r6, [sl, #-3681]!	; 0xe61
 a6c:	65442f6e 	strbvs	r2, [r4, #-3950]	; 0xf6e
 a70:	6f746b73 	svcvs	0x00746b73
 a74:	63732f70 	cmnvs	r3, #112, 30	; 0x1c0
 a78:	6c6f6f68 	stclvs	15, cr6, [pc], #-416	; 8e0 <_start-0x7720>
 a7c:	6e69572f 	cdpvs	7, 6, cr5, cr9, cr15, {1}
 a80:	31726574 	cmncc	r2, r4, ror r5
 a84:	2f303239 	svccs	0x00303239
 a88:	34315343 	ldrtcc	r5, [r1], #-835	; 0x343
 a8c:	632f4530 	teqvs	pc, #48, 10	; 0xc000000
 a90:	30343173 	eorscc	r3, r4, r3, ror r1
 a94:	30322d65 	eorscc	r2, r2, r5, ror #26
 a98:	2f6e6977 	svccs	0x006e6977
 a9c:	7062696c 	rsbvc	r6, r2, ip, ror #18
 aa0:	75000069 	strvc	r0, [r0, #-105]	; 0x69
 aa4:	2e747261 	cdpcs	2, 7, cr7, cr4, cr1, {3}
 aa8:	00010063 	andeq	r0, r1, r3, rrx
 aac:	69706700 	ldmdbvs	r0!, {r8, r9, sl, sp, lr}^
 ab0:	00682e6f 	rsbeq	r2, r8, pc, ror #28
 ab4:	72000002 	andvc	r0, r0, #2
 ab8:	682e6970 	stmdavs	lr!, {r4, r5, r6, r8, fp, sp, lr}
 abc:	00000300 	andeq	r0, r0, r0, lsl #6
 ac0:	02050000 	andeq	r0, r5, #0
 ac4:	0000900c 	andeq	r9, r0, ip
 ac8:	30013603 	andcc	r3, r1, r3, lsl #12
 acc:	306d6733 	rsbcc	r6, sp, r3, lsr r7
 ad0:	676730d8 			; <UNDEFINED> instruction: 0x676730d8
 ad4:	68676767 	stmdavs	r7!, {r0, r1, r2, r5, r6, r8, r9, sl, sp, lr}^
 ad8:	6a672f86 	bvs	19cc8f8 <__bss_end__+0x19c30e0>
 adc:	69676730 	stmdbvs	r7!, {r4, r5, r8, r9, sl, sp, lr}^
 ae0:	4c6a672f 	stclmi	7, cr6, [sl], #-188	; 0xffffff44
 ae4:	2f2fc167 	svccs	0x002fc167
 ae8:	49682f30 	stmdbmi	r8!, {r4, r5, r8, r9, sl, fp, sp}^
 aec:	00020230 	andeq	r0, r2, r0, lsr r2
 af0:	008a0101 	addeq	r0, sl, r1, lsl #2
 af4:	00020000 	andeq	r0, r2, r0
 af8:	00000072 	andeq	r0, r0, r2, ror r0
 afc:	0efb0102 	cdpeq	1, 15, cr0, cr11, cr2, {0}
 b00:	0101000d 	tsteq	r1, sp
 b04:	00000101 	andeq	r0, r0, r1, lsl #2
 b08:	00000100 	andeq	r0, r0, r0, lsl #2
 b0c:	62696c01 	rsbvs	r6, r9, #256	; 0x100
 b10:	552f0063 	strpl	r0, [pc, #-99]!	; ab5 <_start-0x754b>
 b14:	73726573 	cmnvc	r2, #482344960	; 0x1cc00000
 b18:	6972622f 	ldmdbvs	r2!, {r0, r1, r2, r3, r5, r9, sp, lr}^
 b1c:	756a6e61 	strbvc	r6, [sl, #-3681]!	; 0xe61
 b20:	65442f6e 	strbvs	r2, [r4, #-3950]	; 0xf6e
 b24:	6f746b73 	svcvs	0x00746b73
 b28:	63732f70 	cmnvs	r3, #112, 30	; 0x1c0
 b2c:	6c6f6f68 	stclvs	15, cr6, [pc], #-416	; 994 <_start-0x766c>
 b30:	6e69572f 	cdpvs	7, 6, cr5, cr9, cr15, {1}
 b34:	31726574 	cmncc	r2, r4, ror r5
 b38:	2f303239 	svccs	0x00303239
 b3c:	34315343 	ldrtcc	r5, [r1], #-835	; 0x343
 b40:	632f4530 	teqvs	pc, #48, 10	; 0xc000000
 b44:	30343173 	eorscc	r3, r4, r3, ror r1
 b48:	30322d65 	eorscc	r2, r2, r5, ror #26
 b4c:	2f6e6977 	svccs	0x006e6977
 b50:	7062696c 	rsbvc	r6, r2, ip, ror #18
 b54:	70000069 	andvc	r0, r0, r9, rrx
 b58:	68637475 	stmdavs	r3!, {r0, r2, r4, r5, r6, sl, ip, sp, lr}^
 b5c:	632e7261 	teqvs	lr, #268435462	; 0x10000006
 b60:	00000100 	andeq	r0, r0, r0, lsl #2
 b64:	2e697072 	mcrcs	0, 3, r7, cr9, cr2, {3}
 b68:	00020068 	andeq	r0, r2, r8, rrx
 b6c:	05000000 	streq	r0, [r0, #-0]
 b70:	0091c402 	addseq	ip, r1, r2, lsl #8
 b74:	6b4a1400 	blvs	1285b7c <__bss_end__+0x127c364>
 b78:	0213bc13 	andseq	fp, r3, #4864	; 0x1300
 b7c:	01010008 	tsteq	r1, r8

Disassembly of section .debug_str:

00000000 <.debug_str>:
   0:	676e6f6c 	strbvs	r6, [lr, -ip, ror #30]!
   4:	6e6f6c20 	cdpvs	12, 6, cr6, cr15, cr0, {1}
   8:	6e692067 	cdpvs	0, 6, cr2, cr9, cr7, {3}
   c:	72740074 	rsbsvc	r0, r4, #116	; 0x74
  10:	65676769 	strbvs	r6, [r7, #-1897]!	; 0x769
  14:	63680072 	cmnvs	r8, #114	; 0x72
  18:	3072735f 	rsbscc	r7, r2, pc, asr r3
  1c:	6e695f34 	mcrvs	15, 3, r5, cr9, cr4, {1}
  20:	68007469 	stmdavs	r0, {r0, r3, r5, r6, sl, ip, sp, lr}
  24:	72735f63 	rsbsvc	r5, r3, #396	; 0x18c
  28:	675f3430 	smmlarvs	pc, r0, r4, r3	; <UNPREDICTABLE>
  2c:	645f7465 	ldrbvs	r7, [pc], #-1125	; 34 <_start-0x7fcc>
  30:	61747369 	cmnvs	r4, r9, ror #6
  34:	0065636e 	rsbeq	r6, r5, lr, ror #6
  38:	676e6f6c 	strbvs	r6, [lr, -ip, ror #30]!
  3c:	6e6f6c20 	cdpvs	12, 6, cr6, cr15, cr0, {1}
  40:	6e752067 	cdpvs	0, 7, cr2, cr5, cr7, {3}
  44:	6e676973 	mcrvs	9, 3, r6, cr7, cr3, {3}
  48:	69206465 	stmdbvs	r0!, {r0, r2, r5, r6, sl, sp, lr}
  4c:	6300746e 	movwvs	r7, #1134	; 0x46e
  50:	6e61656c 	cdpvs	5, 6, cr6, cr1, cr12, {3}
  54:	6265725f 	rsbvs	r7, r5, #-268435451	; 0xf0000005
  58:	00746f6f 	rsbseq	r6, r4, pc, ror #30
  5c:	20554e47 	subscs	r4, r5, r7, asr #28
  60:	2e342043 	cdpcs	0, 3, cr2, cr4, cr3, {2}
  64:	20332e38 	eorscs	r2, r3, r8, lsr lr
  68:	70636d2d 	rsbvc	r6, r3, sp, lsr #26
  6c:	72613d75 	rsbvc	r3, r1, #7488	; 0x1d40
  70:	3731316d 	ldrcc	r3, [r1, -sp, ror #2]!
  74:	667a6a36 			; <UNDEFINED> instruction: 0x667a6a36
  78:	2d20732d 	stccs	3, cr7, [r0, #-180]!	; 0xffffff4c
  7c:	6e75746d 	cdpvs	4, 7, cr7, cr5, cr13, {3}
  80:	72613d65 	rsbvc	r3, r1, #6464	; 0x1940
  84:	3731316d 	ldrcc	r3, [r1, -sp, ror #2]!
  88:	667a6a36 			; <UNDEFINED> instruction: 0x667a6a36
  8c:	2d20732d 	stccs	3, cr7, [r0, #-180]!	; 0xffffff4c
  90:	62646767 	rsbvs	r6, r4, #27000832	; 0x19c0000
  94:	674f2d20 	strbvs	r2, [pc, -r0, lsr #26]
  98:	74732d20 	ldrbtvc	r2, [r3], #-3360	; 0xd20
  9c:	6e673d64 	cdpvs	13, 6, cr3, cr7, cr4, {3}
  a0:	20393975 	eorscs	r3, r9, r5, ror r9
  a4:	7266662d 	rsbvc	r6, r6, #47185920	; 0x2d00000
  a8:	74736565 	ldrbtvc	r6, [r3], #-1381	; 0x565
  ac:	69646e61 	stmdbvs	r4!, {r0, r5, r6, r9, sl, fp, sp, lr}^
  b0:	2d20676e 	stccs	7, cr6, [r0, #-440]!	; 0xfffffe48
  b4:	696c6166 	stmdbvs	ip!, {r1, r2, r5, r6, r8, sp, lr}^
  b8:	662d6e67 	strtvs	r6, [sp], -r7, ror #28
  bc:	74636e75 	strbtvc	r6, [r3], #-3701	; 0xe75
  c0:	736e6f69 	cmnvc	lr, #420	; 0x1a4
  c4:	6400343d 	strvs	r3, [r0], #-1085	; 0x43d
  c8:	00747369 	rsbseq	r7, r4, r9, ror #6
  cc:	69736e75 	ldmdbvs	r3!, {r0, r2, r4, r5, r6, r9, sl, fp, sp, lr}^
  d0:	64656e67 	strbtvs	r6, [r5], #-3687	; 0xe67
  d4:	61686320 	cmnvs	r8, r0, lsr #6
  d8:	69740072 	ldmdbvs	r4!, {r1, r4, r5, r6}^
  dc:	756f656d 	strbvc	r6, [pc, #-1389]!	; fffffb77 <__bss_end__+0xffff635f>
  e0:	61750074 	cmnvs	r5, r4, ror r0
  e4:	695f7472 	ldmdbvs	pc, {r1, r4, r5, r6, sl, ip, sp, lr}^	; <UNPREDICTABLE>
  e8:	0074696e 	rsbseq	r6, r4, lr, ror #18
  ec:	6f686365 	svcvs	0x00686365
  f0:	746f6e00 	strbtvc	r6, [pc], #-3584	; f8 <_start-0x7f08>
  f4:	6e69616d 	powvsez	f6, f1, #5.0
  f8:	6f687300 	svcvs	0x00687300
  fc:	75207472 	strvc	r7, [r0, #-1138]!	; 0x472
 100:	6769736e 	strbvs	r7, [r9, -lr, ror #6]!
 104:	2064656e 	rsbcs	r6, r4, lr, ror #10
 108:	00746e69 	rsbseq	r6, r4, r9, ror #28
 10c:	616c6564 	cmnvs	ip, r4, ror #10
 110:	736d5f79 	cmnvc	sp, #484	; 0x1e4
 114:	5f636800 	svcpl	0x00636800
 118:	34307273 	ldrtcc	r7, [r0], #-627	; 0x273
 11c:	7300745f 	movwvc	r7, #1119	; 0x45f
 120:	72616e6f 	rsbvc	r6, r1, #1776	; 0x6f0
 124:	2f00632e 	svccs	0x0000632e
 128:	72657355 	rsbvc	r7, r5, #1409286145	; 0x54000001
 12c:	72622f73 	rsbvc	r2, r2, #460	; 0x1cc
 130:	6a6e6169 	bvs	1b986dc <__bss_end__+0x1b8eec4>
 134:	442f6e75 	strtmi	r6, [pc], #-3701	; 13c <_start-0x7ec4>
 138:	746b7365 	strbtvc	r7, [fp], #-869	; 0x365
 13c:	732f706f 	teqvc	pc, #111	; 0x6f
 140:	6f6f6863 	svcvs	0x006f6863
 144:	70532f6c 	subsvc	r2, r3, ip, ror #30
 148:	676e6972 			; <UNDEFINED> instruction: 0x676e6972
 14c:	30323931 	eorscc	r3, r2, r1, lsr r9
 150:	3253432f 	subscc	r4, r3, #-1140850688	; 0xbc000000
 154:	584c3034 	stmdapl	ip, {r2, r4, r5, ip, sp}^
 158:	3273632f 	rsbscc	r6, r3, #-1140850688	; 0xbc000000
 15c:	786c3034 	stmdavc	ip!, {r2, r4, r5, ip, sp}^
 160:	7330322d 	teqvc	r0, #-805306366	; 0xd0000002
 164:	6c2f7270 	sfmvs	f7, 4, [pc], #-448	; ffffffac <__bss_end__+0xffff6794>
 168:	2f736261 	svccs	0x00736261
 16c:	6f732d37 	svcvs	0x00732d37
 170:	2f72616e 	svccs	0x0072616e
 174:	65646f63 	strbvs	r6, [r4, #-3939]!	; 0xf63
 178:	6f687300 	svcvs	0x00687300
 17c:	69207472 	stmdbvs	r0!, {r1, r4, r5, r6, sl, ip, sp, lr}
 180:	7300746e 	movwvc	r7, #1134	; 0x46e
 184:	74657a69 	strbtvc	r7, [r5], #-2665	; 0xa69
 188:	00657079 	rsbeq	r7, r5, r9, ror r0
 18c:	72727563 	rsbsvc	r7, r2, #415236096	; 0x18c00000
 190:	69706700 	ldmdbvs	r0!, {r8, r9, sl, sp, lr}^
 194:	72775f6f 	rsbsvc	r5, r7, #444	; 0x1bc
 198:	00657469 	rsbeq	r7, r5, r9, ror #8
 19c:	656d6974 	strbvs	r6, [sp, #-2420]!	; 0x974
 1a0:	5f74756f 	svcpl	0x0074756f
 1a4:	63657375 	cmnvs	r5, #-738197503	; 0xd4000001
 1a8:	69706700 	ldmdbvs	r0!, {r8, r9, sl, sp, lr}^
 1ac:	65725f6f 	ldrbvs	r5, [r2, #-3951]!	; 0xf6f
 1b0:	67006461 	strvs	r6, [r0, -r1, ror #8]
 1b4:	5f6f6970 	svcpl	0x006f6970
 1b8:	5f746573 	svcpl	0x00746573
 1bc:	75706e69 	ldrbvc	r6, [r0, #-3689]!	; 0xe69
 1c0:	69640074 	stmdbvs	r4!, {r2, r4, r5, r6}^
 1c4:	6e617473 	mcrvs	4, 3, r7, cr1, cr3, {3}
 1c8:	695f6563 	ldmdbvs	pc, {r0, r1, r5, r6, r8, sl, sp, lr}^	; <UNPREDICTABLE>
 1cc:	6568636e 	strbvs	r6, [r8, #-878]!	; 0x36e
 1d0:	69680073 	stmdbvs	r8!, {r0, r1, r4, r5, r6}^
 1d4:	695f6867 	ldmdbvs	pc, {r0, r1, r2, r5, r6, fp, sp, lr}^	; <UNPREDICTABLE>
 1d8:	7265746e 	rsbvc	r7, r5, #1845493760	; 0x6e000000
 1dc:	5f6c6176 	svcpl	0x006c6176
 1e0:	67007375 	smlsdxvs	r0, r5, r3, r7
 1e4:	5f6f6970 	svcpl	0x006f6970
 1e8:	5f746573 	svcpl	0x00746573
 1ec:	7074756f 	rsbsvc	r7, r4, pc, ror #10
 1f0:	72007475 	andvc	r7, r0, #1962934272	; 0x75000000
 1f4:	5f646165 	svcpl	0x00646165
 1f8:	6c696877 	stclvs	8, cr6, [r9], #-476	; 0xfffffe24
 1fc:	71655f65 	cmnvc	r5, r5, ror #30
 200:	69706700 	ldmdbvs	r0!, {r8, r9, sl, sp, lr}^
 204:	65735f6f 	ldrbvs	r5, [r3, #-3951]!	; 0xf6f
 208:	75705f74 	ldrbvc	r5, [r0, #-3956]!	; 0xf74
 20c:	6f646c6c 	svcvs	0x00646c6c
 210:	64006e77 	strvs	r6, [r0], #-3703	; 0xe77
 214:	79616c65 	stmdbvc	r1!, {r0, r2, r5, r6, sl, fp, sp, lr}^
 218:	0073755f 	rsbseq	r7, r3, pc, asr r5
 21c:	656d6974 	strbvs	r6, [sp, #-2420]!	; 0x974
 220:	65675f72 	strbvs	r5, [r7, #-3954]!	; 0xf72
 224:	73755f74 	cmnvc	r5, #116, 30	; 0x1d0
 228:	68006365 	stmdavs	r0, {r0, r2, r5, r6, r8, r9, sp, lr}
 22c:	72732d63 	rsbsvc	r2, r3, #6336	; 0x18c0
 230:	632e3430 	teqvs	lr, #48, 8	; 0x30000000
 234:	776f6c00 	strbvc	r6, [pc, -r0, lsl #24]!
 238:	746e695f 	strbtvc	r6, [lr], #-2399	; 0x95f
 23c:	61767265 	cmnvs	r6, r5, ror #4
 240:	73755f6c 	cmnvc	r5, #108, 30	; 0x1b0
 244:	64757000 	ldrbtvs	r7, [r5], #-0
 248:	66666f5f 	uqsaxvs	r6, r6, pc	; <UNPREDICTABLE>
 24c:	00746573 	rsbseq	r6, r4, r3, ror r5
 250:	6f697067 	svcvs	0x00697067
 254:	6475702d 	ldrbtvs	r7, [r5], #-45	; 0x2d
 258:	6700632e 	strvs	r6, [r0, -lr, lsr #6]
 25c:	5f6f6970 	svcpl	0x006f6970
 260:	5f746573 	svcpl	0x00746573
 264:	6c6c7570 	cfstr64vs	mvdx7, [ip], #-448	; 0xfffffe40
 268:	47007075 	smlsdxmi	r0, r5, r0, r7
 26c:	44555050 	ldrbmi	r5, [r5], #-80	; 0x50
 270:	304b4c43 	subcc	r4, fp, r3, asr #24
 274:	73552f00 	cmpvc	r5, #0, 30
 278:	2f737265 	svccs	0x00737265
 27c:	61697262 	cmnvs	r9, r2, ror #4
 280:	6e756a6e 	vsubvs.f32	s13, s10, s29
 284:	7365442f 	cmnvc	r5, #788529152	; 0x2f000000
 288:	706f746b 	rsbvc	r7, pc, fp, ror #8
 28c:	6863732f 	stmdavs	r3!, {r0, r1, r2, r3, r5, r8, r9, ip, sp, lr}^
 290:	2f6c6f6f 	svccs	0x006c6f6f
 294:	69727053 	ldmdbvs	r2!, {r0, r1, r4, r6, ip, sp, lr}^
 298:	3931676e 	ldmdbcc	r1!, {r1, r2, r3, r5, r6, r8, r9, sl, sp, lr}
 29c:	432f3032 	teqmi	pc, #50	; 0x32
 2a0:	30343253 	eorscc	r3, r4, r3, asr r2
 2a4:	632f584c 	teqvs	pc, #76, 16	; 0x4c0000
 2a8:	30343273 	eorscc	r3, r4, r3, ror r2
 2ac:	322d786c 	eorcc	r7, sp, #108, 16	; 0x6c0000
 2b0:	72707330 	rsbsvc	r7, r0, #48, 6	; 0xc0000000
 2b4:	62696c2f 	rsbvs	r6, r9, #12032	; 0x2f00
 2b8:	6970786c 	ldmdbvs	r0!, {r2, r3, r5, r6, fp, ip, sp, lr}^
 2bc:	76656400 	strbtvc	r6, [r5], -r0, lsl #8
 2c0:	7261625f 	rsbvc	r6, r1, #-268435451	; 0xf0000005
 2c4:	72656972 	rsbvc	r6, r5, #1867776	; 0x1c8000
 2c8:	50504700 	subspl	r4, r0, r0, lsl #14
 2cc:	4c434455 	cfstrdmi	mvd4, [r3], {85}	; 0x55
 2d0:	7000314b 	andvc	r3, r0, fp, asr #2
 2d4:	32337475 	eorscc	r7, r3, #1962934272	; 0x75000000
 2d8:	50504700 	subspl	r4, r0, r0, lsl #14
 2dc:	67004455 	smlsdvs	r0, r5, r4, r4
 2e0:	5f6f6970 	svcpl	0x006f6970
 2e4:	5f647570 	svcpl	0x00647570
 2e8:	0066666f 	rsbeq	r6, r6, pc, ror #12
 2ec:	5f647570 	svcpl	0x00647570
 2f0:	5f6b6c63 	svcpl	0x006b6c63
 2f4:	00676572 	rsbeq	r6, r7, r2, ror r5
 2f8:	6e675f5f 	mcrvs	15, 3, r5, cr7, cr15, {2}
 2fc:	765f6375 			; <UNDEFINED> instruction: 0x765f6375
 300:	696c5f61 	stmdbvs	ip!, {r0, r5, r6, r8, r9, sl, fp, ip, lr}^
 304:	6c007473 	cfstrsvs	mvf7, [r0], {115}	; 0x73
 308:	2f636269 	svccs	0x00636269
 30c:	6e697270 	mcrvs	2, 3, r7, cr9, cr0, {3}
 310:	632e6b74 	teqvs	lr, #116, 22	; 0x1d000
 314:	554e4700 	strbpl	r4, [lr, #-1792]	; 0x700
 318:	34204320 	strtcc	r4, [r0], #-800	; 0x320
 31c:	332e382e 	teqcc	lr, #3014656	; 0x2e0000
 320:	636d2d20 	cmnvs	sp, #32, 26	; 0x800
 324:	613d7570 	teqvs	sp, r0, ror r5
 328:	31316d72 	teqcc	r1, r2, ror sp
 32c:	7a6a3637 	bvc	1a8dc10 <__bss_end__+0x1a843f8>
 330:	20732d66 	rsbscs	r2, r3, r6, ror #26
 334:	75746d2d 	ldrbvc	r6, [r4, #-3373]!	; 0xd2d
 338:	613d656e 	teqvs	sp, lr, ror #10
 33c:	31316d72 	teqcc	r1, r2, ror sp
 340:	7a6a3637 	bvc	1a8dc24 <__bss_end__+0x1a8440c>
 344:	20732d66 	rsbscs	r2, r3, r6, ror #26
 348:	6467672d 	strbtvs	r6, [r7], #-1837	; 0x72d
 34c:	4f2d2062 	svcmi	0x002d2062
 350:	732d2067 	teqvc	sp, #103	; 0x67
 354:	673d6474 			; <UNDEFINED> instruction: 0x673d6474
 358:	3939756e 	ldmdbcc	r9!, {r1, r2, r3, r5, r6, r8, sl, ip, sp, lr}
 35c:	66662d20 	strbtvs	r2, [r6], -r0, lsr #26
 360:	73656572 	cmnvc	r5, #478150656	; 0x1c800000
 364:	646e6174 	strbtvs	r6, [lr], #-372	; 0x174
 368:	00676e69 	rsbeq	r6, r7, r9, ror #28
 36c:	705f6176 	subsvc	r6, pc, r6, ror r1	; <UNPREDICTABLE>
 370:	746e6972 	strbtvc	r6, [lr], #-2418	; 0x972
 374:	5f5f006b 	svcpl	0x005f006b
 378:	6c5f6176 	ldfvse	f6, [pc], {118}	; 0x76
 37c:	00747369 	rsbseq	r7, r4, r9, ror #6
 380:	6573552f 	ldrbvs	r5, [r3, #-1327]!	; 0x52f
 384:	622f7372 	eorvs	r7, pc, #-939524095	; 0xc8000001
 388:	6e616972 	mcrvs	9, 3, r6, cr1, cr2, {3}
 38c:	2f6e756a 	svccs	0x006e756a
 390:	6b736544 	blvs	1cd98a8 <__bss_end__+0x1cd0090>
 394:	2f706f74 	svccs	0x00706f74
 398:	6f686373 	svcvs	0x00686373
 39c:	572f6c6f 	strpl	r6, [pc, -pc, ror #24]!
 3a0:	65746e69 	ldrbvs	r6, [r4, #-3689]!	; 0xe69
 3a4:	32393172 	eorscc	r3, r9, #-2147483620	; 0x8000001c
 3a8:	53432f30 	movtpl	r2, #16176	; 0x3f30
 3ac:	45303431 	ldrmi	r3, [r0, #-1073]!	; 0x431
 3b0:	3173632f 	cmncc	r3, pc, lsr #6
 3b4:	2d653034 	stclcs	0, cr3, [r5, #-208]!	; 0xffffff30
 3b8:	69773032 	ldmdbvs	r7!, {r1, r4, r5, ip, sp}^
 3bc:	696c2f6e 	stmdbvs	ip!, {r1, r2, r3, r5, r6, r8, r9, sl, fp, sp}^
 3c0:	00697062 	rsbeq	r7, r9, r2, rrx
 3c4:	73677261 	cmnvc	r7, #268435462	; 0x10000006
 3c8:	615f5f00 	cmpvs	pc, r0, lsl #30
 3cc:	696c0070 	stmdbvs	ip!, {r4, r5, r6}^
 3d0:	702f6362 	eorvc	r6, pc, r2, ror #6
 3d4:	2e6b7475 	mcrcs	4, 3, r7, cr11, cr5, {3}
 3d8:	6e690063 	cdpvs	0, 6, cr0, cr9, cr3, {3}
 3dc:	6e726574 	mrcvs	5, 3, r6, cr2, cr4, {3}
 3e0:	705f6c61 	subsvc	r6, pc, r1, ror #24
 3e4:	006b7475 	rsbeq	r7, fp, r5, ror r4
 3e8:	5f697072 	svcpl	0x00697072
 3ec:	63747570 	cmnvs	r4, #112, 10	; 0x1c000000
 3f0:	00726168 	rsbseq	r6, r2, r8, ror #2
 3f4:	5f67656e 	svcpl	0x0067656e
 3f8:	65720070 	ldrbvs	r0, [r2, #-112]!	; 0x70
 3fc:	73726576 	cmnvc	r2, #494927872	; 0x1d800000
 400:	73690065 	cmnvc	r9, #101	; 0x65
 404:	69676964 	stmdbvs	r7!, {r2, r5, r6, r8, fp, sp, lr}^
 408:	5f5f0074 	svcpl	0x005f0074
 40c:	434e5546 	movtmi	r5, #58694	; 0xe546
 410:	4e4f4954 	mcrmi	9, 2, r4, cr15, cr4, {2}
 414:	70005f5f 	andvc	r5, r0, pc, asr pc
 418:	5f737475 	svcpl	0x00737475
 41c:	62007066 	andvs	r7, r0, #102	; 0x66
 420:	00657361 	rsbeq	r7, r5, r1, ror #6
 424:	6e676973 	mcrvs	9, 3, r6, cr7, cr3, {3}
 428:	705f6465 	subsvc	r6, pc, r5, ror #8
 42c:	62696c00 	rsbvs	r6, r9, #0, 24
 430:	61762f63 	cmnvs	r6, r3, ror #30
 434:	6972702d 	ldmdbvs	r2!, {r0, r2, r3, r5, ip, sp, lr}^
 438:	2e6b746e 	cdpcs	4, 6, cr7, cr11, cr14, {3}
 43c:	70720063 	rsbsvc	r0, r2, r3, rrx
 440:	65735f69 	ldrbvs	r5, [r3, #-3945]!	; 0xf69
 444:	756f5f74 	strbvc	r5, [pc, #-3956]!	; fffff4d8 <__bss_end__+0xffff5cc0>
 448:	74757074 	ldrbtvc	r7, [r5], #-116	; 0x74
 44c:	64697700 	strbtvs	r7, [r9], #-1792	; 0x700
 450:	70006874 	andvc	r6, r0, r4, ror r8
 454:	5f637475 	svcpl	0x00637475
 458:	72007066 	andvc	r7, r0, #102	; 0x66
 45c:	725f6970 	subsvc	r6, pc, #112, 18	; 0x1c0000
 460:	74657365 	strbtvc	r7, [r5], #-869	; 0x365
 464:	7475705f 	ldrbtvc	r7, [r5], #-95	; 0x5f
 468:	6d650063 	stclvs	0, cr0, [r5, #-396]!	; 0xfffffe74
 46c:	72007469 	andvc	r7, r0, #1761607680	; 0x69000000
 470:	725f6970 	subsvc	r6, pc, #112, 18	; 0x1c0000
 474:	6f6f6265 	svcvs	0x006f6265
 478:	73630074 	cmnvc	r3, #116	; 0x74
 47c:	65303431 	ldrvs	r3, [r0, #-1073]!	; 0x431
 480:	6372732d 	cmnvs	r2, #-1275068416	; 0xb4000000
 484:	656c632f 	strbvs	r6, [ip, #-815]!	; 0x32f
 488:	722d6e61 	eorvc	r6, sp, #1552	; 0x610
 48c:	6f6f6265 	svcvs	0x006f6265
 490:	00632e74 	rsbeq	r2, r3, r4, ror lr
 494:	34317363 	ldrtcc	r7, [r1], #-867	; 0x363
 498:	732d6530 	teqvc	sp, #48, 10	; 0xc000000
 49c:	632f6372 	teqvs	pc, #-939524095	; 0xc8000001
 4a0:	72617473 	rsbvc	r7, r1, #1929379840	; 0x73000000
 4a4:	00632e74 	rsbeq	r2, r3, r4, ror lr
 4a8:	73625f5f 	cmnvc	r2, #380	; 0x17c
 4ac:	74735f73 	ldrbtvc	r5, [r3], #-3955	; 0xf73
 4b0:	5f747261 	svcpl	0x00747261
 4b4:	5f5f005f 	svcpl	0x005f005f
 4b8:	5f737362 	svcpl	0x00737362
 4bc:	5f646e65 	svcpl	0x00646e65
 4c0:	7362005f 	cmnvc	r2, #95	; 0x5f
 4c4:	6e655f73 	mcrvs	15, 3, r5, cr5, cr3, {3}
 4c8:	635f0064 	cmpvs	pc, #100	; 0x64
 4cc:	72617473 	rsbvc	r7, r1, #1929379840	; 0x73000000
 4d0:	74610074 	strbtvc	r0, [r1], #-116	; 0x74
 4d4:	6573755f 	ldrbvs	r7, [r3, #-1375]!	; 0x55f
 4d8:	656c5f72 	strbvs	r5, [ip, #-3954]!	; 0xf72
 4dc:	006c6576 	rsbeq	r6, ip, r6, ror r5
 4e0:	505f4d50 	subspl	r4, pc, r0, asr sp	; <UNPREDICTABLE>
 4e4:	57535341 	ldrbpl	r5, [r3, -r1, asr #6]
 4e8:	0044524f 	subeq	r5, r4, pc, asr #4
 4ec:	34317363 	ldrtcc	r7, [r1], #-867	; 0x363
 4f0:	732d6530 	teqvc	sp, #48, 10	; 0xc000000
 4f4:	722f6372 	eorvc	r6, pc, #-939524095	; 0xc8000001
 4f8:	6f6f6265 	svcvs	0x006f6265
 4fc:	00632e74 	rsbeq	r2, r3, r4, ror lr
 500:	525f4d50 	subspl	r4, pc, #80, 26	; 0x1400
 504:	5f435453 	svcpl	0x00435453
 508:	46435257 			; <UNDEFINED> instruction: 0x46435257
 50c:	55465f47 	strbpl	r5, [r6, #-3911]	; 0xf47
 510:	525f4c4c 	subspl	r4, pc, #76, 24	; 0x4c00
 514:	54455345 	strbpl	r5, [r5], #-837	; 0x345
 518:	5f4d5000 	svcpl	0x004d5000
 51c:	474f4457 	smlsldmi	r4, pc, r7, r4	; <UNPREDICTABLE>
 520:	74657300 	strbtvc	r7, [r5], #-768	; 0x300
 524:	6573755f 	ldrbvs	r7, [r3, #-1375]!	; 0x55f
 528:	656c5f72 	strbvs	r5, [ip, #-3954]!	; 0xf72
 52c:	006c6576 	rsbeq	r6, ip, r6, ror r5
 530:	33545550 	cmpcc	r4, #80, 10	; 0x14000000
 534:	4d500032 	ldclmi	0, cr0, [r0, #-200]	; 0xffffff38
 538:	5453525f 	ldrbpl	r5, [r3], #-607	; 0x25f
 53c:	70630043 	rsbvc	r0, r3, r3, asr #32
 540:	74007273 	strvc	r7, [r0], #-627	; 0x273
 544:	72656d69 	rsbvc	r6, r5, #6720	; 0x1a40
 548:	7465675f 	strbtvc	r6, [r5], #-1887	; 0x75f
 54c:	6573755f 	ldrbvs	r7, [r3, #-1375]!	; 0x55f
 550:	61725f63 	cmnvs	r2, r3, ror #30
 554:	65640077 	strbvs	r0, [r4, #-119]!	; 0x77
 558:	5f79616c 	svcpl	0x0079616c
 55c:	00636573 	rsbeq	r6, r3, r3, ror r5
 560:	34317363 	ldrtcc	r7, [r1], #-867	; 0x363
 564:	732d6530 	teqvc	sp, #48, 10	; 0xc000000
 568:	742f6372 	strtvc	r6, [pc], #-882	; 570 <_start-0x7a90>
 56c:	72656d69 	rsbvc	r6, r5, #6720	; 0x1a40
 570:	4700632e 	strmi	r6, [r0, -lr, lsr #6]
 574:	32335445 	eorscc	r5, r3, #1157627904	; 0x45000000
 578:	63697400 	cmnvs	r9, #0, 8
 57c:	6400736b 	strvs	r7, [r0], #-875	; 0x36b
 580:	79616c65 	stmdbvc	r1!, {r0, r2, r5, r6, sl, fp, sp, lr}^
 584:	6379635f 	cmnvs	r9, #2080374785	; 0x7c000001
 588:	0073656c 	rsbseq	r6, r3, ip, ror #10
 58c:	6f697067 	svcvs	0x00697067
 590:	6576655f 	ldrbvs	r6, [r6, #-1375]!	; 0x55f
 594:	645f746e 	ldrbvs	r7, [pc], #-1134	; 59c <_start-0x7a64>
 598:	63657465 	cmnvs	r5, #1694498816	; 0x65000000
 59c:	00646574 	rsbeq	r6, r4, r4, ror r5
 5a0:	53465047 	movtpl	r5, #24647	; 0x6047
 5a4:	00324c45 	eorseq	r4, r2, r5, asr #24
 5a8:	4c435047 	mcrrmi	0, 4, r5, r3, cr7
 5ac:	45003052 	strmi	r3, [r0, #-82]	; 0x52
 5b0:	4c42414e 	stfmie	f4, [r2], {78}	; 0x4e
 5b4:	52495f45 	subpl	r5, r9, #276	; 0x114
 5b8:	325f5351 	subscc	r5, pc, #1140850689	; 0x44000001
 5bc:	5f736900 	svcpl	0x00736900
 5c0:	6f697067 	svcvs	0x00697067
 5c4:	746e695f 	strbtvc	r6, [lr], #-2399	; 0x95f
 5c8:	49504700 	ldmdbmi	r0, {r8, r9, sl, lr}^
 5cc:	55465f4f 	strbpl	r5, [r6, #-3919]	; 0xf4f
 5d0:	495f434e 	ldmdbmi	pc, {r1, r2, r3, r6, r8, r9, lr}^	; <UNPREDICTABLE>
 5d4:	5455504e 	ldrbpl	r5, [r5], #-78	; 0x4e
 5d8:	69706700 	ldmdbvs	r0!, {r8, r9, sl, sp, lr}^
 5dc:	65735f6f 	ldrbvs	r5, [r3, #-3951]!	; 0xf6f
 5e0:	666f5f74 	uqsub16vs	r5, pc, r4	; <UNPREDICTABLE>
 5e4:	796d0066 	stmdbvc	sp!, {r1, r2, r5, r6}^
 5e8:	6372732d 	cmnvs	r2, #-1275068416	; 0xb4000000
 5ec:	6970672f 	ldmdbvs	r0!, {r0, r1, r2, r3, r5, r8, r9, sl, sp, lr}^
 5f0:	00632e6f 	rsbeq	r2, r3, pc, ror #28
 5f4:	5f746e69 	svcpl	0x00746e69
 5f8:	6b73616d 	blvs	1cd8bb4 <__bss_end__+0x1ccf39c>
 5fc:	53504700 	cmppl	r0, #0, 14
 600:	00305445 	eorseq	r5, r0, r5, asr #8
 604:	45535047 	ldrbmi	r5, [r3, #-71]	; 0x47
 608:	72003154 	andvc	r3, r0, #84, 2
 60c:	735f6765 	cmpvc	pc, #26476544	; 0x1940000
 610:	00746174 	rsbseq	r6, r4, r4, ror r1
 614:	454c5047 	strbmi	r5, [ip, #-71]	; 0x47
 618:	47003056 	smlsdmi	r0, r6, r0, r3
 61c:	56454c50 			; <UNDEFINED> instruction: 0x56454c50
 620:	70670031 	rsbvc	r0, r7, r1, lsr r0
 624:	725f6f69 	subsvc	r6, pc, #420	; 0x1a4
 628:	47006765 	strmi	r6, [r0, -r5, ror #14]
 62c:	45534650 	ldrbmi	r4, [r3, #-1616]	; 0x650
 630:	4700304c 	strmi	r3, [r0, -ip, asr #32]
 634:	45534650 	ldrbmi	r4, [r3, #-1616]	; 0x650
 638:	4700314c 	strmi	r3, [r0, -ip, asr #2]
 63c:	45534650 	ldrbmi	r4, [r3, #-1616]	; 0x650
 640:	4700334c 	strmi	r3, [r0, -ip, asr #6]
 644:	45534650 	ldrbmi	r4, [r3, #-1616]	; 0x650
 648:	4700344c 	strmi	r3, [r0, -ip, asr #8]
 64c:	45534650 	ldrbmi	r4, [r3, #-1616]	; 0x650
 650:	6700354c 	strvs	r3, [r0, -ip, asr #10]
 654:	5f6f6970 	svcpl	0x006f6970
 658:	6c657366 	stclvs	3, cr7, [r5], #-408	; 0xfffffe68
 65c:	50470030 	subpl	r0, r7, r0, lsr r0
 660:	31524c43 	cmpcc	r2, r3, asr #24
 664:	69706700 	ldmdbvs	r0!, {r8, r9, sl, sp, lr}^
 668:	6e695f6f 	cdpvs	15, 6, cr5, cr9, cr15, {3}
 66c:	69725f74 	ldmdbvs	r2!, {r2, r4, r5, r6, r8, r9, sl, fp, ip, lr}^
 670:	676e6973 			; <UNDEFINED> instruction: 0x676e6973
 674:	6764655f 			; <UNDEFINED> instruction: 0x6764655f
 678:	70670065 	rsbvc	r0, r7, r5, rrx
 67c:	735f6f69 	cmpvc	pc, #420	; 0x1a4
 680:	665f7465 	ldrbvs	r7, [pc], -r5, ror #8
 684:	74636e75 	strbtvc	r6, [r3], #-3701	; 0xe75
 688:	006e6f69 	rsbeq	r6, lr, r9, ror #30
 68c:	45525047 	ldrbmi	r5, [r2, #-71]	; 0x47
 690:	4700304e 	strmi	r3, [r0, -lr, asr #32]
 694:	4e455250 	mcrmi	2, 2, r5, cr5, cr0, {2}
 698:	70670031 	rsbvc	r0, r7, r1, lsr r0
 69c:	655f6f69 	ldrbvs	r6, [pc, #-3945]	; fffff73b <__bss_end__+0xffff5f23>
 6a0:	746e6576 	strbtvc	r6, [lr], #-1398	; 0x576
 6a4:	656c635f 	strbvs	r6, [ip, #-863]!	; 0x35f
 6a8:	49007261 	stmdbmi	r0, {r0, r5, r6, r9, ip, sp, lr}
 6ac:	505f5152 	subspl	r5, pc, r2, asr r1	; <UNPREDICTABLE>
 6b0:	49444e45 	stmdbmi	r4, {r0, r2, r6, r9, sl, fp, lr}^
 6b4:	315f474e 	cmpcc	pc, lr, asr #14
 6b8:	51524900 	cmppl	r2, r0, lsl #18
 6bc:	4e45505f 	mcrmi	0, 2, r5, cr5, cr15, {2}
 6c0:	474e4944 	strbmi	r4, [lr, -r4, asr #18]
 6c4:	6200325f 	andvs	r3, r0, #-268435451	; 0xf0000005
 6c8:	616d7469 	cmnvs	sp, r9, ror #8
 6cc:	67006b73 	smlsdxvs	r0, r3, fp, r6
 6d0:	5f6f6970 	svcpl	0x006f6970
 6d4:	30746573 	rsbscc	r6, r4, r3, ror r5
 6d8:	6e756600 	cdpvs	6, 7, cr6, cr5, cr0, {0}
 6dc:	70670063 	rsbvc	r0, r7, r3, rrx
 6e0:	745f6f69 	ldrbvc	r6, [pc], #-3945	; 6e8 <_start-0x7918>
 6e4:	6c67676f 	stclvs	7, cr6, [r7], #-444	; 0xfffffe44
 6e8:	50470065 	subpl	r0, r7, r5, rrx
 6ec:	30534445 	subscc	r4, r3, r5, asr #8
 6f0:	45504700 	ldrbmi	r4, [r0, #-1792]	; 0x700
 6f4:	00315344 	eorseq	r5, r1, r4, asr #6
 6f8:	6f697067 	svcvs	0x00697067
 6fc:	7465735f 	strbtvc	r7, [r5], #-863	; 0x35f
 700:	006e6f5f 	rsbeq	r6, lr, pc, asr pc
 704:	45465047 	strbmi	r5, [r6, #-71]	; 0x47
 708:	4700304e 	strmi	r3, [r0, -lr, asr #32]
 70c:	4e454650 	mcrmi	6, 2, r4, cr5, cr0, {2}
 710:	50470031 	subpl	r0, r7, r1, lsr r0
 714:	465f4f49 	ldrbmi	r4, [pc], -r9, asr #30
 718:	5f434e55 	svcpl	0x00434e55
 71c:	5054554f 	subspl	r5, r4, pc, asr #10
 720:	67005455 	smlsdvs	r0, r5, r4, r5
 724:	32337465 	eorscc	r7, r3, #1694498816	; 0x65000000
 728:	69706700 	ldmdbvs	r0!, {r8, r9, sl, sp, lr}^
 72c:	6e695f6f 	cdpvs	15, 6, cr5, cr9, cr15, {3}
 730:	61665f74 	smcvs	26100	; 0x65f4
 734:	6e696c6c 	cdpvs	12, 6, cr6, cr9, cr12, {3}
 738:	64655f67 	strbtvs	r5, [r5], #-3943	; 0xf67
 73c:	67006567 	strvs	r6, [r0, -r7, ror #10]
 740:	5f6f6970 	svcpl	0x006f6970
 744:	636e7566 	cmnvs	lr, #427819008	; 0x19800000
 748:	4700745f 	smlsdmi	r0, pc, r4, r7	; <UNPREDICTABLE>
 74c:	5f4f4950 	svcpl	0x004f4950
 750:	434e5546 	movtmi	r5, #58694	; 0xe546
 754:	544c415f 	strbpl	r4, [ip], #-351	; 0x15f
 758:	50470030 	subpl	r0, r7, r0, lsr r0
 75c:	465f4f49 	ldrbmi	r4, [pc], -r9, asr #30
 760:	5f434e55 	svcpl	0x00434e55
 764:	31544c41 	cmpcc	r4, r1, asr #24
 768:	49504700 	ldmdbmi	r0, {r8, r9, sl, lr}^
 76c:	55465f4f 	strbpl	r5, [r6, #-3919]	; 0xf4f
 770:	415f434e 	cmpmi	pc, lr, asr #6
 774:	0032544c 	eorseq	r5, r2, ip, asr #8
 778:	4f495047 	svcmi	0x00495047
 77c:	4e55465f 	mrcmi	6, 2, r4, cr5, cr15, {2}
 780:	4c415f43 	mcrrmi	15, 4, r5, r1, cr3
 784:	47003354 	smlsdmi	r0, r4, r3, r3
 788:	5f4f4950 	svcpl	0x004f4950
 78c:	434e5546 	movtmi	r5, #58694	; 0xe546
 790:	544c415f 	strbpl	r4, [ip], #-351	; 0x15f
 794:	50470034 	subpl	r0, r7, r4, lsr r0
 798:	465f4f49 	ldrbmi	r4, [pc], -r9, asr #30
 79c:	5f434e55 	svcpl	0x00434e55
 7a0:	35544c41 	ldrbcc	r4, [r4, #-3137]	; 0xc41
 7a4:	67657200 	strbvs	r7, [r5, -r0, lsl #4]!
 7a8:	6c65735f 	stclvs	3, cr7, [r5], #-380	; 0xfffffe84
 7ac:	00746365 	rsbseq	r6, r4, r5, ror #6
 7b0:	6f697067 	svcvs	0x00697067
 7b4:	726c635f 	rsbvc	r6, ip, #2080374785	; 0x7c000001
 7b8:	55410030 	strbpl	r0, [r1, #-48]	; 0x30
 7bc:	554d5f58 	strbpl	r5, [sp, #-3928]	; 0xf58
 7c0:	52434d5f 	subpl	r4, r3, #6080	; 0x17c0
 7c4:	4745525f 	smlsldmi	r5, r5, pc, r2	; <UNPREDICTABLE>
 7c8:	58554100 	ldmdapl	r5, {r8, lr}^
 7cc:	5f554d5f 	svcpl	0x00554d5f
 7d0:	525f4f49 	subspl	r4, pc, #292	; 0x124
 7d4:	41004745 	tstmi	r0, r5, asr #14
 7d8:	4d5f5855 	ldclmi	8, cr5, [pc, #-340]	; 68c <_start-0x7974>
 7dc:	534d5f55 	movtpl	r5, #57173	; 0xdf55
 7e0:	45525f52 	ldrbmi	r5, [r2, #-3922]	; 0xf52
 7e4:	61750047 	cmnvs	r5, r7, asr #32
 7e8:	635f7472 	cmpvs	pc, #1912602624	; 0x72000000
 7ec:	675f6e61 	ldrbvs	r6, [pc, -r1, ror #28]
 7f0:	00637465 	rsbeq	r7, r3, r5, ror #8
 7f4:	5f585541 	svcpl	0x00585541
 7f8:	435f554d 	cmpmi	pc, #322961408	; 0x13400000
 7fc:	5f4c544e 	svcpl	0x004c544e
 800:	00474552 	subeq	r4, r7, r2, asr r5
 804:	74726175 	ldrbtvc	r6, [r2], #-373	; 0x175
 808:	7361685f 	cmnvc	r1, #6225920	; 0x5f0000
 80c:	7461645f 	strbtvc	r6, [r1], #-1119	; 0x45f
 810:	55410061 	strbpl	r0, [r1, #-97]	; 0x61
 814:	554d5f58 	strbpl	r5, [sp, #-3928]	; 0xf58
 818:	5245495f 	subpl	r4, r5, #1556480	; 0x17c000
 81c:	4745525f 	smlsldmi	r5, r5, pc, r2	; <UNPREDICTABLE>
 820:	72617500 	rsbvc	r7, r1, #0, 10
 824:	65675f74 	strbvs	r5, [r7, #-3956]!	; 0xf74
 828:	41006374 	tstmi	r0, r4, ror r3
 82c:	4d5f5855 	ldclmi	8, cr5, [pc, #-340]	; 6e0 <_start-0x7920>
 830:	49495f55 	stmdbmi	r9, {r0, r2, r4, r6, r8, r9, sl, fp, ip, lr}^
 834:	45525f52 	ldrbmi	r5, [r2, #-3922]	; 0xf52
 838:	61750047 	cmnvs	r5, r7, asr #32
 83c:	635f7472 	cmpvs	pc, #1912602624	; 0x72000000
 840:	705f6e61 	subsvc	r6, pc, r1, ror #28
 844:	00637475 	rsbeq	r7, r3, r5, ror r4
 848:	5f585541 	svcpl	0x00585541
 84c:	42414e45 	submi	r4, r1, #1104	; 0x450
 850:	0053454c 	subseq	r4, r3, ip, asr #10
 854:	5f585541 	svcpl	0x00585541
 858:	00515249 	subseq	r5, r1, r9, asr #4
 85c:	5f585541 	svcpl	0x00585541
 860:	425f554d 	subsmi	r5, pc, #322961408	; 0x13400000
 864:	5f445541 	svcpl	0x00445541
 868:	00474552 	subeq	r4, r7, r2, asr r5
 86c:	5f585541 	svcpl	0x00585541
 870:	535f554d 	cmppl	pc, #322961408	; 0x13400000
 874:	5f544154 	svcpl	0x00544154
 878:	00474552 	subeq	r4, r7, r2, asr r5
 87c:	5f585541 	svcpl	0x00585541
 880:	535f554d 	cmppl	pc, #322961408	; 0x13400000
 884:	54415243 	strbpl	r5, [r1], #-579	; 0x243
 888:	75004843 	strvc	r4, [r0, #-2115]	; 0x843
 88c:	5f747261 	svcpl	0x00747261
 890:	63747570 	cmnvs	r4, #112, 10	; 0x1c000000
 894:	2d796d00 	ldclcs	13, cr6, [r9, #-0]
 898:	2f637273 	svccs	0x00637273
 89c:	74726175 	ldrbtvc	r6, [r2], #-373	; 0x175
 8a0:	4100632e 	tstmi	r0, lr, lsr #6
 8a4:	4d5f5855 	ldclmi	8, cr5, [pc, #-340]	; 758 <_start-0x78a8>
 8a8:	434c5f55 	movtmi	r5, #53077	; 0xcf55
 8ac:	45525f52 	ldrbmi	r5, [r2, #-3922]	; 0xf52
 8b0:	55410047 	strbpl	r0, [r1, #-71]	; 0x47
 8b4:	554d5f58 	strbpl	r5, [sp, #-3928]	; 0xf58
 8b8:	52534c5f 	subspl	r4, r3, #24320	; 0x5f00
 8bc:	4745525f 	smlsldmi	r5, r5, pc, r2	; <UNPREDICTABLE>
 8c0:	72617500 	rsbvc	r7, r1, #0, 10
 8c4:	65675f74 	strbvs	r5, [r7, #-3956]!	; 0xf74
 8c8:	615f6374 	cmpvs	pc, r4, ror r3	; <UNPREDICTABLE>
 8cc:	636e7973 	cmnvs	lr, #1884160	; 0x1cc000
 8d0:	746e6900 	strbtvc	r6, [lr], #-2304	; 0x900
 8d4:	616e7265 	cmnvs	lr, r5, ror #4
 8d8:	75705f6c 	ldrbvc	r5, [r0, #-3948]!	; 0xf6c
 8dc:	61686374 	smcvs	34356	; 0x8634
 8e0:	696c0072 	stmdbvs	ip!, {r1, r4, r5, r6}^
 8e4:	702f6362 	eorvc	r6, pc, r2, ror #6
 8e8:	68637475 	stmdavs	r3!, {r0, r2, r4, r5, r6, sl, ip, sp, lr}^
 8ec:	632e7261 	teqvs	lr, #268435462	; 0x10000006
 8f0:	69707200 	ldmdbvs	r0!, {r9, ip, sp, lr}^
 8f4:	7465735f 	strbtvc	r7, [r5], #-863	; 0x35f
 8f8:	7475705f 	ldrbtvc	r7, [r5], #-95	; 0x5f
 8fc:	Address 0x00000000000008fc is out of bounds.


Disassembly of section .debug_frame:

00000000 <.debug_frame>:
   0:	0000000c 	andeq	r0, r0, ip
   4:	ffffffff 			; <UNDEFINED> instruction: 0xffffffff
   8:	7c020001 	stcvc	0, cr0, [r2], {1}
   c:	000d0c0e 	andeq	r0, sp, lr, lsl #24
  10:	00000020 	andeq	r0, r0, r0, lsr #32
  14:	00000000 	andeq	r0, r0, r0
  18:	00008010 	andeq	r8, r0, r0, lsl r0
  1c:	000000a0 	andeq	r0, r0, r0, lsr #1
  20:	84180e42 	ldrhi	r0, [r8], #-3650	; 0xe42
  24:	86058506 	strhi	r8, [r5], -r6, lsl #10
  28:	88038704 	stmdahi	r3, {r2, r8, r9, sl, pc}
  2c:	42018e02 	andmi	r8, r1, #2, 28
  30:	0000200e 	andeq	r2, r0, lr
  34:	0000000c 	andeq	r0, r0, ip
  38:	ffffffff 			; <UNDEFINED> instruction: 0xffffffff
  3c:	7c020001 	stcvc	0, cr0, [r2], {1}
  40:	000d0c0e 	andeq	r0, sp, lr, lsl #24
  44:	0000001c 	andeq	r0, r0, ip, lsl r0
  48:	00000034 	andeq	r0, r0, r4, lsr r0
  4c:	000080b0 	strheq	r8, [r0], -r0
  50:	0000004c 	andeq	r0, r0, ip, asr #32
  54:	83180e42 	tsthi	r8, #1056	; 0x420
  58:	85058406 	strhi	r8, [r5, #-1030]	; 0x406
  5c:	87038604 	strhi	r8, [r3, -r4, lsl #12]
  60:	00018e02 	andeq	r8, r1, r2, lsl #28
  64:	00000018 	andeq	r0, r0, r8, lsl r0
  68:	00000034 	andeq	r0, r0, r4, lsr r0
  6c:	000080fc 	strdeq	r8, [r0], -ip
  70:	00000044 	andeq	r0, r0, r4, asr #32
  74:	84100e42 	ldrhi	r0, [r0], #-3650	; 0xe42
  78:	86038504 	strhi	r8, [r3], -r4, lsl #10
  7c:	00018e02 	andeq	r8, r1, r2, lsl #28
  80:	00000018 	andeq	r0, r0, r8, lsl r0
  84:	00000034 	andeq	r0, r0, r4, lsr r0
  88:	00008140 	andeq	r8, r0, r0, asr #2
  8c:	000000ac 	andeq	r0, r0, ip, lsr #1
  90:	83100e42 	tsthi	r0, #1056	; 0x420
  94:	85038404 	strhi	r8, [r3, #-1028]	; 0x404
  98:	00018e02 	andeq	r8, r1, r2, lsl #28
  9c:	0000000c 	andeq	r0, r0, ip
  a0:	ffffffff 			; <UNDEFINED> instruction: 0xffffffff
  a4:	7c020001 	stcvc	0, cr0, [r2], {1}
  a8:	000d0c0e 	andeq	r0, sp, lr, lsl #24
  ac:	00000018 	andeq	r0, r0, r8, lsl r0
  b0:	0000009c 	muleq	r0, ip, r0
  b4:	000081ec 	andeq	r8, r0, ip, ror #3
  b8:	0000008c 	andeq	r0, r0, ip, lsl #1
  bc:	83100e42 	tsthi	r0, #1056	; 0x420
  c0:	85038404 	strhi	r8, [r3, #-1028]	; 0x404
  c4:	00018e02 	andeq	r8, r1, r2, lsl #28
  c8:	00000018 	andeq	r0, r0, r8, lsl r0
  cc:	0000009c 	muleq	r0, ip, r0
  d0:	00008278 	andeq	r8, r0, r8, ror r2
  d4:	0000008c 	andeq	r0, r0, ip, lsl #1
  d8:	83100e42 	tsthi	r0, #1056	; 0x420
  dc:	85038404 	strhi	r8, [r3, #-1028]	; 0x404
  e0:	00018e02 	andeq	r8, r1, r2, lsl #28
  e4:	00000018 	andeq	r0, r0, r8, lsl r0
  e8:	0000009c 	muleq	r0, ip, r0
  ec:	00008304 	andeq	r8, r0, r4, lsl #6
  f0:	0000008c 	andeq	r0, r0, ip, lsl #1
  f4:	83100e42 	tsthi	r0, #1056	; 0x420
  f8:	85038404 	strhi	r8, [r3, #-1028]	; 0x404
  fc:	00018e02 	andeq	r8, r1, r2, lsl #28
 100:	0000000c 	andeq	r0, r0, ip
 104:	ffffffff 			; <UNDEFINED> instruction: 0xffffffff
 108:	7c020001 	stcvc	0, cr0, [r2], {1}
 10c:	000d0c0e 	andeq	r0, sp, lr, lsl #24
 110:	00000024 	andeq	r0, r0, r4, lsr #32
 114:	00000100 	andeq	r0, r0, r0, lsl #2
 118:	00008390 	muleq	r0, r0, r3
 11c:	00000058 	andeq	r0, r0, r8, asr r0
 120:	80100e42 	andshi	r0, r0, r2, asr #28
 124:	82038104 	andhi	r8, r3, #4, 2
 128:	42018302 	andmi	r8, r1, #134217728	; 0x8000000
 12c:	07841c0e 	streq	r1, [r4, lr, lsl #24]
 130:	058e0685 	streq	r0, [lr, #1669]	; 0x685
 134:	00280e42 	eoreq	r0, r8, r2, asr #28
 138:	0000000c 	andeq	r0, r0, ip
 13c:	ffffffff 			; <UNDEFINED> instruction: 0xffffffff
 140:	7c020001 	stcvc	0, cr0, [r2], {1}
 144:	000d0c0e 	andeq	r0, sp, lr, lsl #24
 148:	00000018 	andeq	r0, r0, r8, lsl r0
 14c:	00000138 	andeq	r0, r0, r8, lsr r1
 150:	000083e8 	andeq	r8, r0, r8, ror #7
 154:	00000034 	andeq	r0, r0, r4, lsr r0
 158:	83100e42 	tsthi	r0, #1056	; 0x420
 15c:	85038404 	strhi	r8, [r3, #-1028]	; 0x404
 160:	00018e02 	andeq	r8, r1, r2, lsl #28
 164:	0000000c 	andeq	r0, r0, ip
 168:	ffffffff 			; <UNDEFINED> instruction: 0xffffffff
 16c:	7c020001 	stcvc	0, cr0, [r2], {1}
 170:	000d0c0e 	andeq	r0, sp, lr, lsl #24
 174:	0000000c 	andeq	r0, r0, ip
 178:	00000164 	andeq	r0, r0, r4, ror #2
 17c:	0000841c 	andeq	r8, r0, ip, lsl r4
 180:	00000014 	andeq	r0, r0, r4, lsl r0
 184:	0000000c 	andeq	r0, r0, ip
 188:	00000164 	andeq	r0, r0, r4, ror #2
 18c:	00008430 	andeq	r8, r0, r0, lsr r4
 190:	0000002c 	andeq	r0, r0, ip, lsr #32
 194:	0000000c 	andeq	r0, r0, ip
 198:	00000164 	andeq	r0, r0, r4, ror #2
 19c:	0000845c 	andeq	r8, r0, ip, asr r4
 1a0:	00000040 	andeq	r0, r0, r0, asr #32
 1a4:	00000020 	andeq	r0, r0, r0, lsr #32
 1a8:	00000164 	andeq	r0, r0, r4, ror #2
 1ac:	0000849c 	muleq	r0, ip, r4
 1b0:	0000019c 	muleq	r0, ip, r1
 1b4:	84180e42 	ldrhi	r0, [r8], #-3650	; 0xe42
 1b8:	86058506 	strhi	r8, [r5], -r6, lsl #10
 1bc:	88038704 	stmdahi	r3, {r2, r8, r9, sl, pc}
 1c0:	42018e02 	andmi	r8, r1, #2, 28
 1c4:	0000580e 	andeq	r5, r0, lr, lsl #16
 1c8:	00000014 	andeq	r0, r0, r4, lsl r0
 1cc:	00000164 	andeq	r0, r0, r4, ror #2
 1d0:	00008638 	andeq	r8, r0, r8, lsr r6
 1d4:	00000054 	andeq	r0, r0, r4, asr r0
 1d8:	83080e42 	movwhi	r0, #36418	; 0x8e42
 1dc:	00018e02 	andeq	r8, r1, r2, lsl #28
 1e0:	00000028 	andeq	r0, r0, r8, lsr #32
 1e4:	00000164 	andeq	r0, r0, r4, ror #2
 1e8:	0000868c 	andeq	r8, r0, ip, lsl #13
 1ec:	00000288 	andeq	r0, r0, r8, lsl #5
 1f0:	84240e42 	strthi	r0, [r4], #-3650	; 0xe42
 1f4:	86088509 	strhi	r8, [r8], -r9, lsl #10
 1f8:	88068707 	stmdahi	r6, {r0, r1, r2, r8, r9, sl, pc}
 1fc:	8a048905 	bhi	122618 <__bss_end__+0x118e00>
 200:	8e028b03 	vmlahi.f64	d8, d2, d3
 204:	b00e4201 	andlt	r4, lr, r1, lsl #4
 208:	00000001 	andeq	r0, r0, r1
 20c:	0000000c 	andeq	r0, r0, ip
 210:	ffffffff 			; <UNDEFINED> instruction: 0xffffffff
 214:	7c020001 	stcvc	0, cr0, [r2], {1}
 218:	000d0c0e 	andeq	r0, sp, lr, lsl #24
 21c:	00000014 	andeq	r0, r0, r4, lsl r0
 220:	0000020c 	andeq	r0, r0, ip, lsl #4
 224:	00008914 	andeq	r8, r0, r4, lsl r9
 228:	00000028 	andeq	r0, r0, r8, lsr #32
 22c:	83080e42 	movwhi	r0, #36418	; 0x8e42
 230:	00018e02 	andeq	r8, r1, r2, lsl #28
 234:	0000000c 	andeq	r0, r0, ip
 238:	ffffffff 			; <UNDEFINED> instruction: 0xffffffff
 23c:	7c020001 	stcvc	0, cr0, [r2], {1}
 240:	000d0c0e 	andeq	r0, sp, lr, lsl #24
 244:	00000014 	andeq	r0, r0, r4, lsl r0
 248:	00000234 	andeq	r0, r0, r4, lsr r2
 24c:	0000893c 	andeq	r8, r0, ip, lsr r9
 250:	00000034 	andeq	r0, r0, r4, lsr r0
 254:	83080e42 	movwhi	r0, #36418	; 0x8e42
 258:	00018e02 	andeq	r8, r1, r2, lsl #28
 25c:	0000000c 	andeq	r0, r0, ip
 260:	ffffffff 			; <UNDEFINED> instruction: 0xffffffff
 264:	7c020001 	stcvc	0, cr0, [r2], {1}
 268:	000d0c0e 	andeq	r0, sp, lr, lsl #24
 26c:	0000000c 	andeq	r0, r0, ip
 270:	0000025c 	andeq	r0, r0, ip, asr r2
 274:	00008970 	andeq	r8, r0, r0, ror r9
 278:	00000018 	andeq	r0, r0, r8, lsl r0
 27c:	0000000c 	andeq	r0, r0, ip
 280:	0000025c 	andeq	r0, r0, ip, asr r2
 284:	00008988 	andeq	r8, r0, r8, lsl #19
 288:	00000014 	andeq	r0, r0, r4, lsl r0
 28c:	00000014 	andeq	r0, r0, r4, lsl r0
 290:	0000025c 	andeq	r0, r0, ip, asr r2
 294:	0000899c 	muleq	r0, ip, r9
 298:	00000048 	andeq	r0, r0, r8, asr #32
 29c:	83080e42 	movwhi	r0, #36418	; 0x8e42
 2a0:	00018e02 	andeq	r8, r1, r2, lsl #28
 2a4:	0000000c 	andeq	r0, r0, ip
 2a8:	ffffffff 			; <UNDEFINED> instruction: 0xffffffff
 2ac:	7c020001 	stcvc	0, cr0, [r2], {1}
 2b0:	000d0c0e 	andeq	r0, sp, lr, lsl #24
 2b4:	0000000c 	andeq	r0, r0, ip
 2b8:	000002a4 	andeq	r0, r0, r4, lsr #5
 2bc:	000089e4 	andeq	r8, r0, r4, ror #19
 2c0:	0000001c 	andeq	r0, r0, ip, lsl r0
 2c4:	00000014 	andeq	r0, r0, r4, lsl r0
 2c8:	000002a4 	andeq	r0, r0, r4, lsr #5
 2cc:	00008a00 	andeq	r8, r0, r0, lsl #20
 2d0:	00000014 	andeq	r0, r0, r4, lsl r0
 2d4:	83080e42 	movwhi	r0, #36418	; 0x8e42
 2d8:	00018e02 	andeq	r8, r1, r2, lsl #28
 2dc:	00000014 	andeq	r0, r0, r4, lsl r0
 2e0:	000002a4 	andeq	r0, r0, r4, lsr #5
 2e4:	00008a14 	andeq	r8, r0, r4, lsl sl
 2e8:	0000000c 	andeq	r0, r0, ip
 2ec:	83080e42 	movwhi	r0, #36418	; 0x8e42
 2f0:	00018e02 	andeq	r8, r1, r2, lsl #28
 2f4:	00000018 	andeq	r0, r0, r8, lsl r0
 2f8:	000002a4 	andeq	r0, r0, r4, lsr #5
 2fc:	00008a20 	andeq	r8, r0, r0, lsr #20
 300:	00000024 	andeq	r0, r0, r4, lsr #32
 304:	83100e42 	tsthi	r0, #1056	; 0x420
 308:	85038404 	strhi	r8, [r3, #-1028]	; 0x404
 30c:	00018e02 	andeq	r8, r1, r2, lsl #28
 310:	00000014 	andeq	r0, r0, r4, lsl r0
 314:	000002a4 	andeq	r0, r0, r4, lsr #5
 318:	00008a44 	andeq	r8, r0, r4, asr #20
 31c:	00000014 	andeq	r0, r0, r4, lsl r0
 320:	83080e42 	movwhi	r0, #36418	; 0x8e42
 324:	00018e02 	andeq	r8, r1, r2, lsl #28
 328:	00000014 	andeq	r0, r0, r4, lsl r0
 32c:	000002a4 	andeq	r0, r0, r4, lsr #5
 330:	00008a58 	andeq	r8, r0, r8, asr sl
 334:	00000014 	andeq	r0, r0, r4, lsl r0
 338:	83080e42 	movwhi	r0, #36418	; 0x8e42
 33c:	00018e02 	andeq	r8, r1, r2, lsl #28
 340:	0000000c 	andeq	r0, r0, ip
 344:	ffffffff 			; <UNDEFINED> instruction: 0xffffffff
 348:	7c020001 	stcvc	0, cr0, [r2], {1}
 34c:	000d0c0e 	andeq	r0, sp, lr, lsl #24
 350:	00000018 	andeq	r0, r0, r8, lsl r0
 354:	00000340 	andeq	r0, r0, r0, asr #6
 358:	00008a6c 	andeq	r8, r0, ip, ror #20
 35c:	000000d4 	ldrdeq	r0, [r0], -r4
 360:	83100e42 	tsthi	r0, #1056	; 0x420
 364:	85038404 	strhi	r8, [r3, #-1028]	; 0x404
 368:	00018e02 	andeq	r8, r1, r2, lsl #28
 36c:	00000014 	andeq	r0, r0, r4, lsl r0
 370:	00000340 	andeq	r0, r0, r0, asr #6
 374:	00008b40 	andeq	r8, r0, r0, asr #22
 378:	00000038 	andeq	r0, r0, r8, lsr r0
 37c:	83080e42 	movwhi	r0, #36418	; 0x8e42
 380:	00018e02 	andeq	r8, r1, r2, lsl #28
 384:	00000014 	andeq	r0, r0, r4, lsl r0
 388:	00000340 	andeq	r0, r0, r0, asr #6
 38c:	00008b78 	andeq	r8, r0, r8, ror fp
 390:	00000038 	andeq	r0, r0, r8, lsr r0
 394:	83080e42 	movwhi	r0, #36418	; 0x8e42
 398:	00018e02 	andeq	r8, r1, r2, lsl #28
 39c:	00000018 	andeq	r0, r0, r8, lsl r0
 3a0:	00000340 	andeq	r0, r0, r0, asr #6
 3a4:	00008bb0 			; <UNDEFINED> instruction: 0x00008bb0
 3a8:	000000cc 	andeq	r0, r0, ip, asr #1
 3ac:	83100e42 	tsthi	r0, #1056	; 0x420
 3b0:	85038404 	strhi	r8, [r3, #-1028]	; 0x404
 3b4:	00018e02 	andeq	r8, r1, r2, lsl #28
 3b8:	00000014 	andeq	r0, r0, r4, lsl r0
 3bc:	00000340 	andeq	r0, r0, r0, asr #6
 3c0:	00008c7c 	andeq	r8, r0, ip, ror ip
 3c4:	0000004c 	andeq	r0, r0, ip, asr #32
 3c8:	84080e42 	strhi	r0, [r8], #-3650	; 0xe42
 3cc:	00018e02 	andeq	r8, r1, r2, lsl #28
 3d0:	00000014 	andeq	r0, r0, r4, lsl r0
 3d4:	00000340 	andeq	r0, r0, r0, asr #6
 3d8:	00008cc8 	andeq	r8, r0, r8, asr #25
 3dc:	00000024 	andeq	r0, r0, r4, lsr #32
 3e0:	83080e42 	movwhi	r0, #36418	; 0x8e42
 3e4:	00018e02 	andeq	r8, r1, r2, lsl #28
 3e8:	00000018 	andeq	r0, r0, r8, lsl r0
 3ec:	00000340 	andeq	r0, r0, r0, asr #6
 3f0:	00008cec 	andeq	r8, r0, ip, ror #25
 3f4:	000000d8 	ldrdeq	r0, [r0], -r8
 3f8:	84100e42 	ldrhi	r0, [r0], #-3650	; 0xe42
 3fc:	86038504 	strhi	r8, [r3], -r4, lsl #10
 400:	00018e02 	andeq	r8, r1, r2, lsl #28
 404:	00000014 	andeq	r0, r0, r4, lsl r0
 408:	00000340 	andeq	r0, r0, r0, asr #6
 40c:	00008dc4 	andeq	r8, r0, r4, asr #27
 410:	00000038 	andeq	r0, r0, r8, lsr r0
 414:	83080e42 	movwhi	r0, #36418	; 0x8e42
 418:	00018e02 	andeq	r8, r1, r2, lsl #28
 41c:	00000014 	andeq	r0, r0, r4, lsl r0
 420:	00000340 	andeq	r0, r0, r0, asr #6
 424:	00008dfc 	strdeq	r8, [r0], -ip
 428:	0000002c 	andeq	r0, r0, ip, lsr #32
 42c:	83080e42 	movwhi	r0, #36418	; 0x8e42
 430:	00018e02 	andeq	r8, r1, r2, lsl #28
 434:	00000018 	andeq	r0, r0, r8, lsl r0
 438:	00000340 	andeq	r0, r0, r0, asr #6
 43c:	00008e28 	andeq	r8, r0, r8, lsr #28
 440:	00000084 	andeq	r0, r0, r4, lsl #1
 444:	83100e42 	tsthi	r0, #1056	; 0x420
 448:	85038404 	strhi	r8, [r3, #-1028]	; 0x404
 44c:	00018e02 	andeq	r8, r1, r2, lsl #28
 450:	00000018 	andeq	r0, r0, r8, lsl r0
 454:	00000340 	andeq	r0, r0, r0, asr #6
 458:	00008eac 	andeq	r8, r0, ip, lsr #29
 45c:	00000084 	andeq	r0, r0, r4, lsl #1
 460:	83100e42 	tsthi	r0, #1056	; 0x420
 464:	85038404 	strhi	r8, [r3, #-1028]	; 0x404
 468:	00018e02 	andeq	r8, r1, r2, lsl #28
 46c:	00000014 	andeq	r0, r0, r4, lsl r0
 470:	00000340 	andeq	r0, r0, r0, asr #6
 474:	00008f30 	andeq	r8, r0, r0, lsr pc
 478:	00000084 	andeq	r0, r0, r4, lsl #1
 47c:	84080e42 	strhi	r0, [r8], #-3650	; 0xe42
 480:	00018e02 	andeq	r8, r1, r2, lsl #28
 484:	00000014 	andeq	r0, r0, r4, lsl r0
 488:	00000340 	andeq	r0, r0, r0, asr #6
 48c:	00008fb4 			; <UNDEFINED> instruction: 0x00008fb4
 490:	00000058 	andeq	r0, r0, r8, asr r0
 494:	84080e42 	strhi	r0, [r8], #-3650	; 0xe42
 498:	00018e02 	andeq	r8, r1, r2, lsl #28
 49c:	0000000c 	andeq	r0, r0, ip
 4a0:	ffffffff 			; <UNDEFINED> instruction: 0xffffffff
 4a4:	7c020001 	stcvc	0, cr0, [r2], {1}
 4a8:	000d0c0e 	andeq	r0, sp, lr, lsl #24
 4ac:	00000018 	andeq	r0, r0, r8, lsl r0
 4b0:	0000049c 	muleq	r0, ip, r4
 4b4:	0000900c 	andeq	r9, r0, ip
 4b8:	0000009c 	muleq	r0, ip, r0
 4bc:	83100e42 	tsthi	r0, #1056	; 0x420
 4c0:	85038404 	strhi	r8, [r3, #-1028]	; 0x404
 4c4:	00018e02 	andeq	r8, r1, r2, lsl #28
 4c8:	00000014 	andeq	r0, r0, r4, lsl r0
 4cc:	0000049c 	muleq	r0, ip, r4
 4d0:	000090a8 	andeq	r9, r0, r8, lsr #1
 4d4:	0000001c 	andeq	r0, r0, ip, lsl r0
 4d8:	83080e42 	movwhi	r0, #36418	; 0x8e42
 4dc:	00018e02 	andeq	r8, r1, r2, lsl #28
 4e0:	00000014 	andeq	r0, r0, r4, lsl r0
 4e4:	0000049c 	muleq	r0, ip, r4
 4e8:	000090c4 	andeq	r9, r0, r4, asr #1
 4ec:	00000028 	andeq	r0, r0, r8, lsr #32
 4f0:	83080e42 	movwhi	r0, #36418	; 0x8e42
 4f4:	00018e02 	andeq	r8, r1, r2, lsl #28
 4f8:	00000014 	andeq	r0, r0, r4, lsl r0
 4fc:	0000049c 	muleq	r0, ip, r4
 500:	000090ec 	andeq	r9, r0, ip, ror #1
 504:	0000001c 	andeq	r0, r0, ip, lsl r0
 508:	83080e42 	movwhi	r0, #36418	; 0x8e42
 50c:	00018e02 	andeq	r8, r1, r2, lsl #28
 510:	00000014 	andeq	r0, r0, r4, lsl r0
 514:	0000049c 	muleq	r0, ip, r4
 518:	00009108 	andeq	r9, r0, r8, lsl #2
 51c:	0000002c 	andeq	r0, r0, ip, lsr #32
 520:	84080e42 	strhi	r0, [r8], #-3650	; 0xe42
 524:	00018e02 	andeq	r8, r1, r2, lsl #28
 528:	00000014 	andeq	r0, r0, r4, lsl r0
 52c:	0000049c 	muleq	r0, ip, r4
 530:	00009134 	andeq	r9, r0, r4, lsr r1
 534:	0000000c 	andeq	r0, r0, ip
 538:	83080e42 	movwhi	r0, #36418	; 0x8e42
 53c:	00018e02 	andeq	r8, r1, r2, lsl #28
 540:	00000014 	andeq	r0, r0, r4, lsl r0
 544:	0000049c 	muleq	r0, ip, r4
 548:	00009140 	andeq	r9, r0, r0, asr #2
 54c:	00000020 	andeq	r0, r0, r0, lsr #32
 550:	83080e42 	movwhi	r0, #36418	; 0x8e42
 554:	00018e02 	andeq	r8, r1, r2, lsl #28
 558:	0000000c 	andeq	r0, r0, ip
 55c:	ffffffff 			; <UNDEFINED> instruction: 0xffffffff
 560:	7c020001 	stcvc	0, cr0, [r2], {1}
 564:	000d0c0e 	andeq	r0, sp, lr, lsl #24
 568:	00000014 	andeq	r0, r0, r4, lsl r0
 56c:	00000558 	andeq	r0, r0, r8, asr r5
 570:	000091c4 	andeq	r9, r0, r4, asr #3
 574:	00000014 	andeq	r0, r0, r4, lsl r0
 578:	84080e42 	strhi	r0, [r8], #-3650	; 0xe42
 57c:	00018e02 	andeq	r8, r1, r2, lsl #28
 580:	0000000c 	andeq	r0, r0, ip
 584:	00000558 	andeq	r0, r0, r8, asr r5
 588:	000091d8 	ldrdeq	r9, [r0], -r8
 58c:	00000018 	andeq	r0, r0, r8, lsl r0
 590:	0000000c 	andeq	r0, r0, ip
 594:	00000558 	andeq	r0, r0, r8, asr r5
 598:	000091f0 	strdeq	r9, [r0], -r0
 59c:	00000010 	andeq	r0, r0, r0, lsl r0

Disassembly of section .debug_ranges:

00000000 <.debug_ranges>:
   0:	00000294 	muleq	r0, r4, r2
   4:	00000298 	muleq	r0, r8, r2
   8:	000002c8 	andeq	r0, r0, r8, asr #5
   c:	000004b8 			; <UNDEFINED> instruction: 0x000004b8
	...
  18:	00008970 	andeq	r8, r0, r0, ror r9
  1c:	000089e4 	andeq	r8, r0, r4, ror #19
	...
