
sonar.elf:     file format elf32-littlearm


Disassembly of section .text:

00008000 <_start>:
    8000:	e3a0d302 	mov	sp, #134217728	; 0x8000000
    8004:	e3a0b000 	mov	fp, #0
    8008:	eb000247 	bl	892c <_cstart>
    800c:	eb00025e 	bl	898c <rpi_reboot>

00008010 <notmain>:
    8010:	e92d40f0 	push	{r4, r5, r6, r7, lr}
    8014:	e24dd00c 	sub	sp, sp, #12
    8018:	eb0003f7 	bl	8ffc <uart_init>
    801c:	e59f0068 	ldr	r0, [pc, #104]	; 808c <notmain+0x7c>
    8020:	eb0000d6 	bl	8380 <printk>
    8024:	e1a0000d 	mov	r0, sp
    8028:	e3a01014 	mov	r1, #20
    802c:	e3a02015 	mov	r2, #21
    8030:	eb00002d 	bl	80ec <hc_sr04_init>
    8034:	e59f0054 	ldr	r0, [pc, #84]	; 8090 <notmain+0x80>
    8038:	eb0000d0 	bl	8380 <printk>
    803c:	e3a05000 	mov	r5, #0
    8040:	e59f404c 	ldr	r4, [pc, #76]	; 8094 <notmain+0x84>
    8044:	e59f704c 	ldr	r7, [pc, #76]	; 8098 <notmain+0x88>
    8048:	e3a06ffa 	mov	r6, #1000	; 0x3e8
    804c:	ea000009 	b	8078 <notmain+0x68>
    8050:	e1a0000d 	mov	r0, sp
    8054:	e1a01004 	mov	r1, r4
    8058:	eb000034 	bl	8130 <hc_sr04_get_distance>
    805c:	e2501000 	subs	r1, r0, #0
    8060:	bafffffa 	blt	8050 <notmain+0x40>
    8064:	e1a00007 	mov	r0, r7
    8068:	eb0000c4 	bl	8380 <printk>
    806c:	e1a00006 	mov	r0, r6
    8070:	eb00026f 	bl	8a34 <delay_ms>
    8074:	e2855001 	add	r5, r5, #1
    8078:	e3550009 	cmp	r5, #9
    807c:	dafffff3 	ble	8050 <notmain+0x40>
    8080:	e59f0014 	ldr	r0, [pc, #20]	; 809c <notmain+0x8c>
    8084:	eb0000bd 	bl	8380 <printk>
    8088:	eb00021d 	bl	8904 <clean_reboot>
    808c:	00009298 	muleq	r0, r8, r2
    8090:	000092ac 	andeq	r9, r0, ip, lsr #5
    8094:	0000d6d8 	ldrdeq	sp, [r0], -r8
    8098:	000092bc 			; <UNDEFINED> instruction: 0x000092bc
    809c:	000092d4 	ldrdeq	r9, [r0], -r4

000080a0 <read_while_eq>:
    80a0:	e92d40f8 	push	{r3, r4, r5, r6, r7, lr}
    80a4:	e1a04000 	mov	r4, r0
    80a8:	e1a05001 	mov	r5, r1
    80ac:	e1a07002 	mov	r7, r2
    80b0:	e59f6030 	ldr	r6, [pc, #48]	; 80e8 <read_while_eq+0x48>
    80b4:	e1a00004 	mov	r0, r4
    80b8:	eb0002eb 	bl	8c6c <gpio_read>
    80bc:	e1550450 	cmp	r5, r0, asr r4
    80c0:	1a000006 	bne	80e0 <read_while_eq+0x40>
    80c4:	eb00024e 	bl	8a04 <timer_get_usec>
    80c8:	e5963000 	ldr	r3, [r6]
    80cc:	e0873003 	add	r3, r7, r3
    80d0:	e1530000 	cmp	r3, r0
    80d4:	8afffff6 	bhi	80b4 <read_while_eq+0x14>
    80d8:	e3a00000 	mov	r0, #0
    80dc:	e8bd80f8 	pop	{r3, r4, r5, r6, r7, pc}
    80e0:	e3a00001 	mov	r0, #1
    80e4:	e8bd80f8 	pop	{r3, r4, r5, r6, r7, pc}
    80e8:	000093f8 	strdeq	r9, [r0], -r8

000080ec <hc_sr04_init>:
    80ec:	e92d4070 	push	{r4, r5, r6, lr}
    80f0:	e1a04000 	mov	r4, r0
    80f4:	e1a06001 	mov	r6, r1
    80f8:	e1a05002 	mov	r5, r2
    80fc:	e5841000 	str	r1, [r4]
    8100:	e5842004 	str	r2, [r4, #4]
    8104:	e1a00001 	mov	r0, r1
    8108:	eb000253 	bl	8a5c <gpio_set_output>
    810c:	e1a00006 	mov	r0, r6
    8110:	e3a01000 	mov	r1, #0
    8114:	eb0002e7 	bl	8cb8 <gpio_write>
    8118:	e1a00005 	mov	r0, r5
    811c:	eb00029f 	bl	8ba0 <gpio_set_input>
    8120:	e1a00005 	mov	r0, r5
    8124:	eb00004f 	bl	8268 <gpio_set_pulldown>
    8128:	e1a00004 	mov	r0, r4
    812c:	e8bd8070 	pop	{r4, r5, r6, pc}

00008130 <hc_sr04_get_distance>:
    8130:	e92d4038 	push	{r3, r4, r5, lr}
    8134:	e1a04000 	mov	r4, r0
    8138:	e1a05001 	mov	r5, r1
    813c:	e5900000 	ldr	r0, [r0]
    8140:	e3a01001 	mov	r1, #1
    8144:	eb0002db 	bl	8cb8 <gpio_write>
    8148:	e3a0000a 	mov	r0, #10
    814c:	eb00022f 	bl	8a10 <delay_us>
    8150:	e5940000 	ldr	r0, [r4]
    8154:	e3a01000 	mov	r1, #0
    8158:	eb0002d6 	bl	8cb8 <gpio_write>
    815c:	e3a00094 	mov	r0, #148	; 0x94
    8160:	eb00022a 	bl	8a10 <delay_us>
    8164:	eb000226 	bl	8a04 <timer_get_usec>
    8168:	e59f3064 	ldr	r3, [pc, #100]	; 81d4 <hc_sr04_get_distance+0xa4>
    816c:	e5830000 	str	r0, [r3]
    8170:	e5940004 	ldr	r0, [r4, #4]
    8174:	e3a01000 	mov	r1, #0
    8178:	e1a02005 	mov	r2, r5
    817c:	ebffffc7 	bl	80a0 <read_while_eq>
    8180:	e3500000 	cmp	r0, #0
    8184:	0a00000e 	beq	81c4 <hc_sr04_get_distance+0x94>
    8188:	e5940004 	ldr	r0, [r4, #4]
    818c:	e3a01001 	mov	r1, #1
    8190:	e1a02005 	mov	r2, r5
    8194:	ebffffc1 	bl	80a0 <read_while_eq>
    8198:	e3500000 	cmp	r0, #0
    819c:	0a00000a 	beq	81cc <hc_sr04_get_distance+0x9c>
    81a0:	eb000217 	bl	8a04 <timer_get_usec>
    81a4:	e59f3028 	ldr	r3, [pc, #40]	; 81d4 <hc_sr04_get_distance+0xa4>
    81a8:	e5933000 	ldr	r3, [r3]
    81ac:	e0630000 	rsb	r0, r3, r0
    81b0:	e1a00120 	lsr	r0, r0, #2
    81b4:	e59f201c 	ldr	r2, [pc, #28]	; 81d8 <hc_sr04_get_distance+0xa8>
    81b8:	e0803092 	umull	r3, r0, r2, r0
    81bc:	e1a00120 	lsr	r0, r0, #2
    81c0:	e8bd8038 	pop	{r3, r4, r5, pc}
    81c4:	e3e00000 	mvn	r0, #0
    81c8:	e8bd8038 	pop	{r3, r4, r5, pc}
    81cc:	e3e00000 	mvn	r0, #0
    81d0:	e8bd8038 	pop	{r3, r4, r5, pc}
    81d4:	000093f8 	strdeq	r9, [r0], -r8
    81d8:	1bacf915 	blne	feb46634 <__bss_end__+0xfeb3ce34>

000081dc <gpio_set_pullup>:
    81dc:	e92d4038 	push	{r3, r4, r5, lr}
    81e0:	e1a05000 	mov	r5, r0
    81e4:	eb0003d9 	bl	9150 <dev_barrier>
    81e8:	e59f3074 	ldr	r3, [pc, #116]	; 8264 <gpio_set_pullup+0x88>
    81ec:	e5930000 	ldr	r0, [r3]
    81f0:	e3a01002 	mov	r1, #2
    81f4:	eb0003db 	bl	9168 <put32>
    81f8:	e3a00096 	mov	r0, #150	; 0x96
    81fc:	eb000203 	bl	8a10 <delay_us>
    8200:	e355001f 	cmp	r5, #31
    8204:	959f3058 	ldrls	r3, [pc, #88]	; 8264 <gpio_set_pullup+0x88>
    8208:	95934004 	ldrls	r4, [r3, #4]
    820c:	859f3050 	ldrhi	r3, [pc, #80]	; 8264 <gpio_set_pullup+0x88>
    8210:	85934008 	ldrhi	r4, [r3, #8]
    8214:	e205501f 	and	r5, r5, #31
    8218:	e1a00004 	mov	r0, r4
    821c:	e3a01001 	mov	r1, #1
    8220:	e1a01511 	lsl	r1, r1, r5
    8224:	eb0003cf 	bl	9168 <put32>
    8228:	e3a00096 	mov	r0, #150	; 0x96
    822c:	eb0001f7 	bl	8a10 <delay_us>
    8230:	e59f302c 	ldr	r3, [pc, #44]	; 8264 <gpio_set_pullup+0x88>
    8234:	e5930000 	ldr	r0, [r3]
    8238:	e3a01000 	mov	r1, #0
    823c:	eb0003c9 	bl	9168 <put32>
    8240:	e3a00096 	mov	r0, #150	; 0x96
    8244:	eb0001f1 	bl	8a10 <delay_us>
    8248:	e1a00004 	mov	r0, r4
    824c:	e3a01000 	mov	r1, #0
    8250:	eb0003c4 	bl	9168 <put32>
    8254:	e3a00096 	mov	r0, #150	; 0x96
    8258:	eb0001ec 	bl	8a10 <delay_us>
    825c:	eb0003bb 	bl	9150 <dev_barrier>
    8260:	e8bd8038 	pop	{r3, r4, r5, pc}
    8264:	000091f0 	strdeq	r9, [r0], -r0

00008268 <gpio_set_pulldown>:
    8268:	e92d4038 	push	{r3, r4, r5, lr}
    826c:	e1a05000 	mov	r5, r0
    8270:	eb0003b6 	bl	9150 <dev_barrier>
    8274:	e59f3074 	ldr	r3, [pc, #116]	; 82f0 <gpio_set_pulldown+0x88>
    8278:	e5930000 	ldr	r0, [r3]
    827c:	e3a01001 	mov	r1, #1
    8280:	eb0003b8 	bl	9168 <put32>
    8284:	e3a00096 	mov	r0, #150	; 0x96
    8288:	eb0001e0 	bl	8a10 <delay_us>
    828c:	e355001f 	cmp	r5, #31
    8290:	959f3058 	ldrls	r3, [pc, #88]	; 82f0 <gpio_set_pulldown+0x88>
    8294:	95934004 	ldrls	r4, [r3, #4]
    8298:	859f3050 	ldrhi	r3, [pc, #80]	; 82f0 <gpio_set_pulldown+0x88>
    829c:	85934008 	ldrhi	r4, [r3, #8]
    82a0:	e205501f 	and	r5, r5, #31
    82a4:	e1a00004 	mov	r0, r4
    82a8:	e3a01001 	mov	r1, #1
    82ac:	e1a01511 	lsl	r1, r1, r5
    82b0:	eb0003ac 	bl	9168 <put32>
    82b4:	e3a00096 	mov	r0, #150	; 0x96
    82b8:	eb0001d4 	bl	8a10 <delay_us>
    82bc:	e59f302c 	ldr	r3, [pc, #44]	; 82f0 <gpio_set_pulldown+0x88>
    82c0:	e5930000 	ldr	r0, [r3]
    82c4:	e3a01000 	mov	r1, #0
    82c8:	eb0003a6 	bl	9168 <put32>
    82cc:	e3a00096 	mov	r0, #150	; 0x96
    82d0:	eb0001ce 	bl	8a10 <delay_us>
    82d4:	e1a00004 	mov	r0, r4
    82d8:	e3a01000 	mov	r1, #0
    82dc:	eb0003a1 	bl	9168 <put32>
    82e0:	e3a00096 	mov	r0, #150	; 0x96
    82e4:	eb0001c9 	bl	8a10 <delay_us>
    82e8:	eb000398 	bl	9150 <dev_barrier>
    82ec:	e8bd8038 	pop	{r3, r4, r5, pc}
    82f0:	000091f0 	strdeq	r9, [r0], -r0

000082f4 <gpio_pud_off>:
    82f4:	e92d4038 	push	{r3, r4, r5, lr}
    82f8:	e1a05000 	mov	r5, r0
    82fc:	eb000393 	bl	9150 <dev_barrier>
    8300:	e59f3074 	ldr	r3, [pc, #116]	; 837c <gpio_pud_off+0x88>
    8304:	e5930000 	ldr	r0, [r3]
    8308:	e3a01000 	mov	r1, #0
    830c:	eb000395 	bl	9168 <put32>
    8310:	e3a00096 	mov	r0, #150	; 0x96
    8314:	eb0001bd 	bl	8a10 <delay_us>
    8318:	e355001f 	cmp	r5, #31
    831c:	959f3058 	ldrls	r3, [pc, #88]	; 837c <gpio_pud_off+0x88>
    8320:	95934004 	ldrls	r4, [r3, #4]
    8324:	859f3050 	ldrhi	r3, [pc, #80]	; 837c <gpio_pud_off+0x88>
    8328:	85934008 	ldrhi	r4, [r3, #8]
    832c:	e205501f 	and	r5, r5, #31
    8330:	e1a00004 	mov	r0, r4
    8334:	e3a01001 	mov	r1, #1
    8338:	e1a01511 	lsl	r1, r1, r5
    833c:	eb000389 	bl	9168 <put32>
    8340:	e3a00096 	mov	r0, #150	; 0x96
    8344:	eb0001b1 	bl	8a10 <delay_us>
    8348:	e59f302c 	ldr	r3, [pc, #44]	; 837c <gpio_pud_off+0x88>
    834c:	e5930000 	ldr	r0, [r3]
    8350:	e3a01000 	mov	r1, #0
    8354:	eb000383 	bl	9168 <put32>
    8358:	e3a00096 	mov	r0, #150	; 0x96
    835c:	eb0001ab 	bl	8a10 <delay_us>
    8360:	e1a00004 	mov	r0, r4
    8364:	e3a01000 	mov	r1, #0
    8368:	eb00037e 	bl	9168 <put32>
    836c:	e3a00096 	mov	r0, #150	; 0x96
    8370:	eb0001a6 	bl	8a10 <delay_us>
    8374:	eb000375 	bl	9150 <dev_barrier>
    8378:	e8bd8038 	pop	{r3, r4, r5, pc}
    837c:	000091f0 	strdeq	r9, [r0], -r0

00008380 <printk>:
    8380:	e92d000f 	push	{r0, r1, r2, r3}
    8384:	e92d4030 	push	{r4, r5, lr}
    8388:	e24dd00c 	sub	sp, sp, #12
    838c:	e28d301c 	add	r3, sp, #28
    8390:	e58d3004 	str	r3, [sp, #4]
    8394:	e59f4034 	ldr	r4, [pc, #52]	; 83d0 <printk+0x50>
    8398:	e1a00004 	mov	r0, r4
    839c:	e3a01b01 	mov	r1, #1024	; 0x400
    83a0:	e59d2018 	ldr	r2, [sp, #24]
    83a4:	eb0000b4 	bl	867c <va_printk>
    83a8:	e1a05000 	mov	r5, r0
    83ac:	e59f3020 	ldr	r3, [pc, #32]	; 83d4 <printk+0x54>
    83b0:	e5933000 	ldr	r3, [r3]
    83b4:	e1a00004 	mov	r0, r4
    83b8:	e12fff33 	blx	r3
    83bc:	e1a00005 	mov	r0, r5
    83c0:	e28dd00c 	add	sp, sp, #12
    83c4:	e8bd4030 	pop	{r4, r5, lr}
    83c8:	e28dd010 	add	sp, sp, #16
    83cc:	e12fff1e 	bx	lr
    83d0:	000093fc 	strdeq	r9, [r0], -ip
    83d4:	000091fc 	strdeq	r9, [r0], -ip

000083d8 <internal_putk>:
    83d8:	e92d4038 	push	{r3, r4, r5, lr}
    83dc:	e1a04000 	mov	r4, r0
    83e0:	e59f5020 	ldr	r5, [pc, #32]	; 8408 <internal_putk+0x30>
    83e4:	ea000002 	b	83f4 <internal_putk+0x1c>
    83e8:	e5953000 	ldr	r3, [r5]
    83ec:	e12fff33 	blx	r3
    83f0:	e2844001 	add	r4, r4, #1
    83f4:	e5d40000 	ldrb	r0, [r4]
    83f8:	e3500000 	cmp	r0, #0
    83fc:	1afffff9 	bne	83e8 <internal_putk+0x10>
    8400:	e3a00001 	mov	r0, #1
    8404:	e8bd8038 	pop	{r3, r4, r5, pc}
    8408:	00009294 	muleq	r0, r4, r2

0000840c <isdigit>:
    840c:	e2400030 	sub	r0, r0, #48	; 0x30
    8410:	e3500009 	cmp	r0, #9
    8414:	83a00000 	movhi	r0, #0
    8418:	93a00001 	movls	r0, #1
    841c:	e12fff1e 	bx	lr

00008420 <pad>:
    8420:	e0611000 	rsb	r1, r1, r0
    8424:	e3a03020 	mov	r3, #32
    8428:	ea000002 	b	8438 <pad+0x18>
    842c:	e5c03000 	strb	r3, [r0]
    8430:	e2811001 	add	r1, r1, #1
    8434:	e2800001 	add	r0, r0, #1
    8438:	e1510002 	cmp	r1, r2
    843c:	bafffffa 	blt	842c <pad+0xc>
    8440:	e3a03000 	mov	r3, #0
    8444:	e5c03000 	strb	r3, [r0]
    8448:	e12fff1e 	bx	lr

0000844c <reverse>:
    844c:	e063c002 	rsb	ip, r3, r2
    8450:	e28cc001 	add	ip, ip, #1
    8454:	e15c0001 	cmp	ip, r1
    8458:	c061100c 	rsbgt	r1, r1, ip
    845c:	c0833001 	addgt	r3, r3, r1
    8460:	e2422001 	sub	r2, r2, #1
    8464:	e1a01000 	mov	r1, r0
    8468:	ea000002 	b	8478 <reverse+0x2c>
    846c:	e452c001 	ldrb	ip, [r2], #-1
    8470:	e5c1c000 	strb	ip, [r1]
    8474:	e2811001 	add	r1, r1, #1
    8478:	e1520003 	cmp	r2, r3
    847c:	2afffffa 	bcs	846c <reverse+0x20>
    8480:	e3a03000 	mov	r3, #0
    8484:	e5c13000 	strb	r3, [r1]
    8488:	e12fff1e 	bx	lr

0000848c <emit>:
    848c:	e92d41f0 	push	{r4, r5, r6, r7, r8, lr}
    8490:	e24dd040 	sub	sp, sp, #64	; 0x40
    8494:	e1a05001 	mov	r5, r1
    8498:	e1a04002 	mov	r4, r2
    849c:	e59d2058 	ldr	r2, [sp, #88]	; 0x58
    84a0:	e1520004 	cmp	r2, r4
    84a4:	c2442001 	subgt	r2, r4, #1
    84a8:	e1a0c003 	mov	ip, r3
    84ac:	e2400002 	sub	r0, r0, #2
    84b0:	e350000e 	cmp	r0, #14
    84b4:	979ff100 	ldrls	pc, [pc, r0, lsl #2]
    84b8:	ea000042 	b	85c8 <emit+0x13c>
    84bc:	000085a0 	andeq	r8, r0, r0, lsr #11
    84c0:	000085c8 	andeq	r8, r0, r8, asr #11
    84c4:	000085c8 	andeq	r8, r0, r8, asr #11
    84c8:	000085c8 	andeq	r8, r0, r8, asr #11
    84cc:	000085c8 	andeq	r8, r0, r8, asr #11
    84d0:	000085c8 	andeq	r8, r0, r8, asr #11
    84d4:	00008594 	muleq	r0, r4, r5
    84d8:	000085c8 	andeq	r8, r0, r8, asr #11
    84dc:	000084f8 	strdeq	r8, [r0], -r8	; <UNPREDICTABLE>
    84e0:	000085c8 	andeq	r8, r0, r8, asr #11
    84e4:	000085c8 	andeq	r8, r0, r8, asr #11
    84e8:	000085c8 	andeq	r8, r0, r8, asr #11
    84ec:	000085c8 	andeq	r8, r0, r8, asr #11
    84f0:	000085c8 	andeq	r8, r0, r8, asr #11
    84f4:	0000856c 	andeq	r8, r0, ip, ror #10
    84f8:	e59d105c 	ldr	r1, [sp, #92]	; 0x5c
    84fc:	e2911000 	adds	r1, r1, #0
    8500:	13a01001 	movne	r1, #1
    8504:	e0111fa3 	ands	r1, r1, r3, lsr #31
    8508:	1263c000 	rsbne	ip, r3, #0
    850c:	13a08001 	movne	r8, #1
    8510:	03a08000 	moveq	r8, #0
    8514:	e1a0100d 	mov	r1, sp
    8518:	e59f70ec 	ldr	r7, [pc, #236]	; 860c <emit+0x180>
    851c:	e59f60ec 	ldr	r6, [pc, #236]	; 8610 <emit+0x184>
    8520:	ea000000 	b	8528 <emit+0x9c>
    8524:	e1a01003 	mov	r1, r3
    8528:	e2813001 	add	r3, r1, #1
    852c:	e08e0c97 	umull	r0, lr, r7, ip
    8530:	e1a0e1ae 	lsr	lr, lr, #3
    8534:	e1a0000e 	mov	r0, lr
    8538:	e08ee10e 	add	lr, lr, lr, lsl #2
    853c:	e1a0e08e 	lsl	lr, lr, #1
    8540:	e06ee00c 	rsb	lr, lr, ip
    8544:	e7d6c00e 	ldrb	ip, [r6, lr]
    8548:	e5c1c000 	strb	ip, [r1]
    854c:	e1a0c000 	mov	ip, r0
    8550:	e3500000 	cmp	r0, #0
    8554:	1afffff2 	bne	8524 <emit+0x98>
    8558:	e3580000 	cmp	r8, #0
    855c:	12813002 	addne	r3, r1, #2
    8560:	13a0002d 	movne	r0, #45	; 0x2d
    8564:	15c10001 	strbne	r0, [r1, #1]
    8568:	ea00001d 	b	85e4 <emit+0x158>
    856c:	e1a0e00d 	mov	lr, sp
    8570:	e59f009c 	ldr	r0, [pc, #156]	; 8614 <emit+0x188>
    8574:	e28e3001 	add	r3, lr, #1
    8578:	e20c100f 	and	r1, ip, #15
    857c:	e7d01001 	ldrb	r1, [r0, r1]
    8580:	e5ce1000 	strb	r1, [lr]
    8584:	e1a0e003 	mov	lr, r3
    8588:	e1b0c22c 	lsrs	ip, ip, #4
    858c:	1afffff8 	bne	8574 <emit+0xe8>
    8590:	ea000013 	b	85e4 <emit+0x158>
    8594:	e5cd3000 	strb	r3, [sp]
    8598:	e28d3001 	add	r3, sp, #1
    859c:	ea000010 	b	85e4 <emit+0x158>
    85a0:	e1a0e00d 	mov	lr, sp
    85a4:	e59f006c 	ldr	r0, [pc, #108]	; 8618 <emit+0x18c>
    85a8:	e28e3001 	add	r3, lr, #1
    85ac:	e20c1001 	and	r1, ip, #1
    85b0:	e7d01001 	ldrb	r1, [r0, r1]
    85b4:	e5ce1000 	strb	r1, [lr]
    85b8:	e1a0e003 	mov	lr, r3
    85bc:	e1b0c0ac 	lsrs	ip, ip, #1
    85c0:	1afffff8 	bne	85a8 <emit+0x11c>
    85c4:	ea000006 	b	85e4 <emit+0x158>
    85c8:	eb0002fe 	bl	91c8 <rpi_reset_putc>
    85cc:	e59f0048 	ldr	r0, [pc, #72]	; 861c <emit+0x190>
    85d0:	e59f1048 	ldr	r1, [pc, #72]	; 8620 <emit+0x194>
    85d4:	e59f2048 	ldr	r2, [pc, #72]	; 8624 <emit+0x198>
    85d8:	e3a03075 	mov	r3, #117	; 0x75
    85dc:	ebffff67 	bl	8380 <printk>
    85e0:	eb0000c7 	bl	8904 <clean_reboot>
    85e4:	e1a00003 	mov	r0, r3
    85e8:	e1a0100d 	mov	r1, sp
    85ec:	ebffff8b 	bl	8420 <pad>
    85f0:	e1a02000 	mov	r2, r0
    85f4:	e1a00005 	mov	r0, r5
    85f8:	e1a01004 	mov	r1, r4
    85fc:	e1a0300d 	mov	r3, sp
    8600:	ebffff91 	bl	844c <reverse>
    8604:	e28dd040 	add	sp, sp, #64	; 0x40
    8608:	e8bd81f0 	pop	{r4, r5, r6, r7, r8, pc}
    860c:	cccccccd 	stclgt	12, cr12, [ip], {205}	; 0xcd
    8610:	00009334 	andeq	r9, r0, r4, lsr r3
    8614:	00009340 	andeq	r9, r0, r0, asr #6
    8618:	00009354 	andeq	r9, r0, r4, asr r3
    861c:	0000930c 	andeq	r9, r0, ip, lsl #6
    8620:	00009320 	andeq	r9, r0, r0, lsr #6
    8624:	000092e8 	andeq	r9, r0, r8, ror #5

00008628 <rpi_set_output>:
    8628:	e92d4008 	push	{r3, lr}
    862c:	e3500000 	cmp	r0, #0
    8630:	1a000006 	bne	8650 <rpi_set_output+0x28>
    8634:	eb0002e3 	bl	91c8 <rpi_reset_putc>
    8638:	e59f0028 	ldr	r0, [pc, #40]	; 8668 <rpi_set_output+0x40>
    863c:	e59f1028 	ldr	r1, [pc, #40]	; 866c <rpi_set_output+0x44>
    8640:	e59f2028 	ldr	r2, [pc, #40]	; 8670 <rpi_set_output+0x48>
    8644:	e3a03020 	mov	r3, #32
    8648:	ebffff4c 	bl	8380 <printk>
    864c:	eb0000ac 	bl	8904 <clean_reboot>
    8650:	e59f301c 	ldr	r3, [pc, #28]	; 8674 <rpi_set_output+0x4c>
    8654:	e5830000 	str	r0, [r3]
    8658:	e3510000 	cmp	r1, #0
    865c:	159f3014 	ldrne	r3, [pc, #20]	; 8678 <rpi_set_output+0x50>
    8660:	15831000 	strne	r1, [r3]
    8664:	e8bd8008 	pop	{r3, pc}
    8668:	00009358 	andeq	r9, r0, r8, asr r3
    866c:	00009320 	andeq	r9, r0, r0, lsr #6
    8670:	000092f0 	strdeq	r9, [r0], -r0
    8674:	00009294 	muleq	r0, r4, r2
    8678:	000091fc 	strdeq	r9, [r0], -ip

0000867c <va_printk>:
    867c:	e92d4ff0 	push	{r4, r5, r6, r7, r8, r9, sl, fp, lr}
    8680:	e24dd08c 	sub	sp, sp, #140	; 0x8c
    8684:	e1a0a000 	mov	sl, r0
    8688:	e1a09003 	mov	r9, r3
    868c:	e2411001 	sub	r1, r1, #1
    8690:	e0808001 	add	r8, r0, r1
    8694:	e3a03000 	mov	r3, #0
    8698:	e5c03000 	strb	r3, [r0]
    869c:	e1a04000 	mov	r4, r0
    86a0:	e1a0b003 	mov	fp, r3
    86a4:	ea000086 	b	88c4 <va_printk+0x248>
    86a8:	e3530025 	cmp	r3, #37	; 0x25
    86ac:	12822001 	addne	r2, r2, #1
    86b0:	15c43000 	strbne	r3, [r4]
    86b4:	12844001 	addne	r4, r4, #1
    86b8:	1a000081 	bne	88c4 <va_printk+0x248>
    86bc:	e5d21001 	ldrb	r1, [r2, #1]
    86c0:	e3510025 	cmp	r1, #37	; 0x25
    86c4:	05c43000 	strbeq	r3, [r4]
    86c8:	02822002 	addeq	r2, r2, #2
    86cc:	02844001 	addeq	r4, r4, #1
    86d0:	0a00007b 	beq	88c4 <va_printk+0x248>
    86d4:	e2826001 	add	r6, r2, #1
    86d8:	e1a0700b 	mov	r7, fp
    86dc:	ea000004 	b	86f4 <va_printk+0x78>
    86e0:	e0877107 	add	r7, r7, r7, lsl #2
    86e4:	e1a07087 	lsl	r7, r7, #1
    86e8:	e0877005 	add	r7, r7, r5
    86ec:	e2477030 	sub	r7, r7, #48	; 0x30
    86f0:	e2866001 	add	r6, r6, #1
    86f4:	e5d65000 	ldrb	r5, [r6]
    86f8:	e1a00005 	mov	r0, r5
    86fc:	ebffff42 	bl	840c <isdigit>
    8700:	e3500000 	cmp	r0, #0
    8704:	1afffff5 	bne	86e0 <va_printk+0x64>
    8708:	e357001f 	cmp	r7, #31
    870c:	9a000006 	bls	872c <va_printk+0xb0>
    8710:	eb0002ac 	bl	91c8 <rpi_reset_putc>
    8714:	e59f01d4 	ldr	r0, [pc, #468]	; 88f0 <va_printk+0x274>
    8718:	e59f11d4 	ldr	r1, [pc, #468]	; 88f4 <va_printk+0x278>
    871c:	e59f21d4 	ldr	r2, [pc, #468]	; 88f8 <va_printk+0x27c>
    8720:	e3a03092 	mov	r3, #146	; 0x92
    8724:	ebffff15 	bl	8380 <printk>
    8728:	eb000075 	bl	8904 <clean_reboot>
    872c:	e2455062 	sub	r5, r5, #98	; 0x62
    8730:	e3550016 	cmp	r5, #22
    8734:	979ff105 	ldrls	pc, [pc, r5, lsl #2]
    8738:	ea00004e 	b	8878 <va_printk+0x1fc>
    873c:	00008824 	andeq	r8, r0, r4, lsr #16
    8740:	00008854 	andeq	r8, r0, r4, asr r8
    8744:	000087b4 			; <UNDEFINED> instruction: 0x000087b4
    8748:	00008878 	andeq	r8, r0, r8, ror r8
    874c:	00008798 	muleq	r0, r8, r7
    8750:	00008878 	andeq	r8, r0, r8, ror r8
    8754:	00008878 	andeq	r8, r0, r8, ror r8
    8758:	00008878 	andeq	r8, r0, r8, ror r8
    875c:	00008878 	andeq	r8, r0, r8, ror r8
    8760:	00008878 	andeq	r8, r0, r8, ror r8
    8764:	00008878 	andeq	r8, r0, r8, ror r8
    8768:	00008878 	andeq	r8, r0, r8, ror r8
    876c:	00008878 	andeq	r8, r0, r8, ror r8
    8770:	00008878 	andeq	r8, r0, r8, ror r8
    8774:	00008800 	andeq	r8, r0, r0, lsl #16
    8778:	00008878 	andeq	r8, r0, r8, ror r8
    877c:	00008878 	andeq	r8, r0, r8, ror r8
    8780:	00008848 	andeq	r8, r0, r8, asr #16
    8784:	00008878 	andeq	r8, r0, r8, ror r8
    8788:	000087dc 	ldrdeq	r8, [r0], -ip
    878c:	00008878 	andeq	r8, r0, r8, ror r8
    8790:	00008878 	andeq	r8, r0, r8, ror r8
    8794:	00008800 	andeq	r8, r0, r0, lsl #16
    8798:	eb00028a 	bl	91c8 <rpi_reset_putc>
    879c:	e59f0158 	ldr	r0, [pc, #344]	; 88fc <va_printk+0x280>
    87a0:	e59f114c 	ldr	r1, [pc, #332]	; 88f4 <va_printk+0x278>
    87a4:	e59f214c 	ldr	r2, [pc, #332]	; 88f8 <va_printk+0x27c>
    87a8:	e3a03098 	mov	r3, #152	; 0x98
    87ac:	ebfffef3 	bl	8380 <printk>
    87b0:	eb000053 	bl	8904 <clean_reboot>
    87b4:	e5993000 	ldr	r3, [r9]
    87b8:	e2899004 	add	r9, r9, #4
    87bc:	e58d7000 	str	r7, [sp]
    87c0:	e3a02001 	mov	r2, #1
    87c4:	e58d2004 	str	r2, [sp, #4]
    87c8:	e3a0000a 	mov	r0, #10
    87cc:	e28d1008 	add	r1, sp, #8
    87d0:	e3a02080 	mov	r2, #128	; 0x80
    87d4:	ebffff2c 	bl	848c <emit>
    87d8:	ea00002f 	b	889c <va_printk+0x220>
    87dc:	e5993000 	ldr	r3, [r9]
    87e0:	e2899004 	add	r9, r9, #4
    87e4:	e58d7000 	str	r7, [sp]
    87e8:	e58db004 	str	fp, [sp, #4]
    87ec:	e3a0000a 	mov	r0, #10
    87f0:	e28d1008 	add	r1, sp, #8
    87f4:	e3a02080 	mov	r2, #128	; 0x80
    87f8:	ebffff23 	bl	848c <emit>
    87fc:	ea000026 	b	889c <va_printk+0x220>
    8800:	e5993000 	ldr	r3, [r9]
    8804:	e2899004 	add	r9, r9, #4
    8808:	e58d7000 	str	r7, [sp]
    880c:	e58db004 	str	fp, [sp, #4]
    8810:	e3a00010 	mov	r0, #16
    8814:	e28d1008 	add	r1, sp, #8
    8818:	e3a02080 	mov	r2, #128	; 0x80
    881c:	ebffff1a 	bl	848c <emit>
    8820:	ea00001d 	b	889c <va_printk+0x220>
    8824:	e5993000 	ldr	r3, [r9]
    8828:	e2899004 	add	r9, r9, #4
    882c:	e58d7000 	str	r7, [sp]
    8830:	e58db004 	str	fp, [sp, #4]
    8834:	e3a00002 	mov	r0, #2
    8838:	e28d1008 	add	r1, sp, #8
    883c:	e3a02080 	mov	r2, #128	; 0x80
    8840:	ebffff11 	bl	848c <emit>
    8844:	ea000014 	b	889c <va_printk+0x220>
    8848:	e5990000 	ldr	r0, [r9]
    884c:	e2899004 	add	r9, r9, #4
    8850:	ea000011 	b	889c <va_printk+0x220>
    8854:	e5993000 	ldr	r3, [r9]
    8858:	e2899004 	add	r9, r9, #4
    885c:	e58d7000 	str	r7, [sp]
    8860:	e58db004 	str	fp, [sp, #4]
    8864:	e3a00008 	mov	r0, #8
    8868:	e08d1000 	add	r1, sp, r0
    886c:	e3a02080 	mov	r2, #128	; 0x80
    8870:	ebffff05 	bl	848c <emit>
    8874:	ea000008 	b	889c <va_printk+0x220>
    8878:	eb000252 	bl	91c8 <rpi_reset_putc>
    887c:	e5d63000 	ldrb	r3, [r6]
    8880:	e58d3000 	str	r3, [sp]
    8884:	e59f0074 	ldr	r0, [pc, #116]	; 8900 <va_printk+0x284>
    8888:	e59f1064 	ldr	r1, [pc, #100]	; 88f4 <va_printk+0x278>
    888c:	e59f2064 	ldr	r2, [pc, #100]	; 88f8 <va_printk+0x27c>
    8890:	e3a030b9 	mov	r3, #185	; 0xb9
    8894:	ebfffeb9 	bl	8380 <printk>
    8898:	eb000019 	bl	8904 <clean_reboot>
    889c:	e2862001 	add	r2, r6, #1
    88a0:	ea000002 	b	88b0 <va_printk+0x234>
    88a4:	e2800001 	add	r0, r0, #1
    88a8:	e5c43000 	strb	r3, [r4]
    88ac:	e2844001 	add	r4, r4, #1
    88b0:	e1540008 	cmp	r4, r8
    88b4:	2a000002 	bcs	88c4 <va_printk+0x248>
    88b8:	e5d03000 	ldrb	r3, [r0]
    88bc:	e3530000 	cmp	r3, #0
    88c0:	1afffff7 	bne	88a4 <va_printk+0x228>
    88c4:	e5d23000 	ldrb	r3, [r2]
    88c8:	e3530000 	cmp	r3, #0
    88cc:	0a000001 	beq	88d8 <va_printk+0x25c>
    88d0:	e1540008 	cmp	r4, r8
    88d4:	3affff73 	bcc	86a8 <va_printk+0x2c>
    88d8:	e2840001 	add	r0, r4, #1
    88dc:	e3a03000 	mov	r3, #0
    88e0:	e5c43000 	strb	r3, [r4]
    88e4:	e06a0000 	rsb	r0, sl, r0
    88e8:	e28dd08c 	add	sp, sp, #140	; 0x8c
    88ec:	e8bd8ff0 	pop	{r4, r5, r6, r7, r8, r9, sl, fp, pc}
    88f0:	00009370 	andeq	r9, r0, r0, ror r3
    88f4:	00009320 	andeq	r9, r0, r0, lsr #6
    88f8:	00009300 	andeq	r9, r0, r0, lsl #6
    88fc:	0000938c 	andeq	r9, r0, ip, lsl #7
    8900:	000093b4 			; <UNDEFINED> instruction: 0x000093b4

00008904 <clean_reboot>:
    8904:	e92d4008 	push	{r3, lr}
    8908:	e59f3014 	ldr	r3, [pc, #20]	; 8924 <clean_reboot+0x20>
    890c:	e5933000 	ldr	r3, [r3]
    8910:	e59f0010 	ldr	r0, [pc, #16]	; 8928 <clean_reboot+0x24>
    8914:	e12fff33 	blx	r3
    8918:	e3a00064 	mov	r0, #100	; 0x64
    891c:	eb000044 	bl	8a34 <delay_ms>
    8920:	eb000019 	bl	898c <rpi_reboot>
    8924:	000091fc 	strdeq	r9, [r0], -ip
    8928:	000093ec 	andeq	r9, r0, ip, ror #7

0000892c <_cstart>:
    892c:	e92d4008 	push	{r3, lr}
    8930:	e59f3020 	ldr	r3, [pc, #32]	; 8958 <_cstart+0x2c>
    8934:	e59f2020 	ldr	r2, [pc, #32]	; 895c <_cstart+0x30>
    8938:	e3a01000 	mov	r1, #0
    893c:	ea000001 	b	8948 <_cstart+0x1c>
    8940:	e5831000 	str	r1, [r3]
    8944:	e2833004 	add	r3, r3, #4
    8948:	e1530002 	cmp	r3, r2
    894c:	3afffffb 	bcc	8940 <_cstart+0x14>
    8950:	ebfffdae 	bl	8010 <notmain>
    8954:	eb00000c 	bl	898c <rpi_reboot>
    8958:	000093f8 	strdeq	r9, [r0], -r8
    895c:	00009800 	andeq	r9, r0, r0, lsl #16

00008960 <at_user_level>:
    8960:	e10f0000 	mrs	r0, CPSR
    8964:	e200001f 	and	r0, r0, #31
    8968:	e3500010 	cmp	r0, #16
    896c:	13a00000 	movne	r0, #0
    8970:	03a00001 	moveq	r0, #1
    8974:	e12fff1e 	bx	lr

00008978 <set_user_level>:
    8978:	e10f3000 	mrs	r3, CPSR
    897c:	e3c3301f 	bic	r3, r3, #31
    8980:	e3833010 	orr	r3, r3, #16
    8984:	e129f003 	msr	CPSR_fc, r3
    8988:	e12fff1e 	bx	lr

0000898c <rpi_reboot>:
    898c:	e92d4008 	push	{r3, lr}
    8990:	ebfffff2 	bl	8960 <at_user_level>
    8994:	e3500000 	cmp	r0, #0
    8998:	0a000000 	beq	89a0 <rpi_reboot+0x14>
    899c:	ebfffff5 	bl	8978 <set_user_level>
    89a0:	e3a0001e 	mov	r0, #30
    89a4:	eb000022 	bl	8a34 <delay_ms>
    89a8:	e59f0014 	ldr	r0, [pc, #20]	; 89c4 <rpi_reboot+0x38>
    89ac:	e59f1014 	ldr	r1, [pc, #20]	; 89c8 <rpi_reboot+0x3c>
    89b0:	eb0001ee 	bl	9170 <PUT32>
    89b4:	e59f0010 	ldr	r0, [pc, #16]	; 89cc <rpi_reboot+0x40>
    89b8:	e59f1010 	ldr	r1, [pc, #16]	; 89d0 <rpi_reboot+0x44>
    89bc:	eb0001eb 	bl	9170 <PUT32>
    89c0:	eafffffe 	b	89c0 <rpi_reboot+0x34>
    89c4:	20100024 	andscs	r0, r0, r4, lsr #32
    89c8:	5a000001 	bpl	89d4 <delay_cycles>
    89cc:	2010001c 	andscs	r0, r0, ip, lsl r0
    89d0:	5a000020 	bpl	8a58 <delay_sec+0x10>

000089d4 <delay_cycles>:
    89d4:	ea000001 	b	89e0 <delay_cycles+0xc>
    89d8:	e2811000 	add	r1, r1, #0
    89dc:	e1a00003 	mov	r0, r3
    89e0:	e2403001 	sub	r3, r0, #1
    89e4:	e3500000 	cmp	r0, #0
    89e8:	1afffffa 	bne	89d8 <delay_cycles+0x4>
    89ec:	e12fff1e 	bx	lr

000089f0 <timer_get_usec_raw>:
    89f0:	e92d4008 	push	{r3, lr}
    89f4:	e59f0004 	ldr	r0, [pc, #4]	; 8a00 <timer_get_usec_raw+0x10>
    89f8:	eb0001e8 	bl	91a0 <GET32>
    89fc:	e8bd8008 	pop	{r3, pc}
    8a00:	20003004 	andcs	r3, r0, r4

00008a04 <timer_get_usec>:
    8a04:	e92d4008 	push	{r3, lr}
    8a08:	ebfffff8 	bl	89f0 <timer_get_usec_raw>
    8a0c:	e8bd8008 	pop	{r3, pc}

00008a10 <delay_us>:
    8a10:	e92d4038 	push	{r3, r4, r5, lr}
    8a14:	e1a05000 	mov	r5, r0
    8a18:	ebfffff9 	bl	8a04 <timer_get_usec>
    8a1c:	e1a04000 	mov	r4, r0
    8a20:	ebfffff7 	bl	8a04 <timer_get_usec>
    8a24:	e0640000 	rsb	r0, r4, r0
    8a28:	e1500005 	cmp	r0, r5
    8a2c:	3afffffb 	bcc	8a20 <delay_us+0x10>
    8a30:	e8bd8038 	pop	{r3, r4, r5, pc}

00008a34 <delay_ms>:
    8a34:	e92d4008 	push	{r3, lr}
    8a38:	e3a03ffa 	mov	r3, #1000	; 0x3e8
    8a3c:	e0000093 	mul	r0, r3, r0
    8a40:	ebfffff2 	bl	8a10 <delay_us>
    8a44:	e8bd8008 	pop	{r3, pc}

00008a48 <delay_sec>:
    8a48:	e92d4008 	push	{r3, lr}
    8a4c:	e3a03ffa 	mov	r3, #1000	; 0x3e8
    8a50:	e0000093 	mul	r0, r3, r0
    8a54:	ebfffff6 	bl	8a34 <delay_ms>
    8a58:	e8bd8008 	pop	{r3, pc}

00008a5c <gpio_set_output>:
    8a5c:	e92d4038 	push	{r3, r4, r5, lr}
    8a60:	e1a04000 	mov	r4, r0
    8a64:	e350001f 	cmp	r0, #31
    8a68:	88bd8038 	pophi	{r3, r4, r5, pc}
    8a6c:	e59f30b4 	ldr	r3, [pc, #180]	; 8b28 <gpio_set_output+0xcc>
    8a70:	e0832093 	umull	r2, r3, r3, r0
    8a74:	e1a031a3 	lsr	r3, r3, #3
    8a78:	e3530005 	cmp	r3, #5
    8a7c:	979ff103 	ldrls	pc, [pc, r3, lsl #2]
    8a80:	ea000017 	b	8ae4 <gpio_set_output+0x88>
    8a84:	00008a9c 	muleq	r0, ip, sl
    8a88:	00008aa8 	andeq	r8, r0, r8, lsr #21
    8a8c:	00008ab4 			; <UNDEFINED> instruction: 0x00008ab4
    8a90:	00008ac0 	andeq	r8, r0, r0, asr #21
    8a94:	00008acc 	andeq	r8, r0, ip, asr #21
    8a98:	00008ad8 	ldrdeq	r8, [r0], -r8	; <UNPREDICTABLE>
    8a9c:	e59f3088 	ldr	r3, [pc, #136]	; 8b2c <gpio_set_output+0xd0>
    8aa0:	e5935000 	ldr	r5, [r3]
    8aa4:	ea00000f 	b	8ae8 <gpio_set_output+0x8c>
    8aa8:	e59f307c 	ldr	r3, [pc, #124]	; 8b2c <gpio_set_output+0xd0>
    8aac:	e5935004 	ldr	r5, [r3, #4]
    8ab0:	ea00000c 	b	8ae8 <gpio_set_output+0x8c>
    8ab4:	e59f3070 	ldr	r3, [pc, #112]	; 8b2c <gpio_set_output+0xd0>
    8ab8:	e5935008 	ldr	r5, [r3, #8]
    8abc:	ea000009 	b	8ae8 <gpio_set_output+0x8c>
    8ac0:	e59f3064 	ldr	r3, [pc, #100]	; 8b2c <gpio_set_output+0xd0>
    8ac4:	e593500c 	ldr	r5, [r3, #12]
    8ac8:	ea000006 	b	8ae8 <gpio_set_output+0x8c>
    8acc:	e59f3058 	ldr	r3, [pc, #88]	; 8b2c <gpio_set_output+0xd0>
    8ad0:	e5935010 	ldr	r5, [r3, #16]
    8ad4:	ea000003 	b	8ae8 <gpio_set_output+0x8c>
    8ad8:	e59f304c 	ldr	r3, [pc, #76]	; 8b2c <gpio_set_output+0xd0>
    8adc:	e5935014 	ldr	r5, [r3, #20]
    8ae0:	ea000000 	b	8ae8 <gpio_set_output+0x8c>
    8ae4:	e3a05000 	mov	r5, #0
    8ae8:	e1a00005 	mov	r0, r5
    8aec:	eb0001a9 	bl	9198 <get32>
    8af0:	e59f1030 	ldr	r1, [pc, #48]	; 8b28 <gpio_set_output+0xcc>
    8af4:	e0813491 	umull	r3, r1, r1, r4
    8af8:	e1a011a1 	lsr	r1, r1, #3
    8afc:	e0811101 	add	r1, r1, r1, lsl #2
    8b00:	e1a01081 	lsl	r1, r1, #1
    8b04:	e0611004 	rsb	r1, r1, r4
    8b08:	e0811081 	add	r1, r1, r1, lsl #1
    8b0c:	e3a03007 	mov	r3, #7
    8b10:	e1c03113 	bic	r3, r0, r3, lsl r1
    8b14:	e1a00005 	mov	r0, r5
    8b18:	e3a02001 	mov	r2, #1
    8b1c:	e1831112 	orr	r1, r3, r2, lsl r1
    8b20:	eb000190 	bl	9168 <put32>
    8b24:	e8bd8038 	pop	{r3, r4, r5, pc}
    8b28:	cccccccd 	stclgt	12, cr12, [ip], {205}	; 0xcd
    8b2c:	00009200 	andeq	r9, r0, r0, lsl #4

00008b30 <gpio_set_on>:
    8b30:	e92d4008 	push	{r3, lr}
    8b34:	e350001f 	cmp	r0, #31
    8b38:	88bd8008 	pophi	{r3, pc}
    8b3c:	959f3020 	ldrls	r3, [pc, #32]	; 8b64 <gpio_set_on+0x34>
    8b40:	95932018 	ldrls	r2, [r3, #24]
    8b44:	859f3018 	ldrhi	r3, [pc, #24]	; 8b64 <gpio_set_on+0x34>
    8b48:	8593201c 	ldrhi	r2, [r3, #28]
    8b4c:	e200301f 	and	r3, r0, #31
    8b50:	e1a00002 	mov	r0, r2
    8b54:	e3a01001 	mov	r1, #1
    8b58:	e1a01311 	lsl	r1, r1, r3
    8b5c:	eb000181 	bl	9168 <put32>
    8b60:	e8bd8008 	pop	{r3, pc}
    8b64:	00009200 	andeq	r9, r0, r0, lsl #4

00008b68 <gpio_set_off>:
    8b68:	e92d4008 	push	{r3, lr}
    8b6c:	e350001f 	cmp	r0, #31
    8b70:	88bd8008 	pophi	{r3, pc}
    8b74:	959f3020 	ldrls	r3, [pc, #32]	; 8b9c <gpio_set_off+0x34>
    8b78:	95932020 	ldrls	r2, [r3, #32]
    8b7c:	859f3018 	ldrhi	r3, [pc, #24]	; 8b9c <gpio_set_off+0x34>
    8b80:	85932024 	ldrhi	r2, [r3, #36]	; 0x24
    8b84:	e200301f 	and	r3, r0, #31
    8b88:	e1a00002 	mov	r0, r2
    8b8c:	e3a01001 	mov	r1, #1
    8b90:	e1a01311 	lsl	r1, r1, r3
    8b94:	eb000173 	bl	9168 <put32>
    8b98:	e8bd8008 	pop	{r3, pc}
    8b9c:	00009200 	andeq	r9, r0, r0, lsl #4

00008ba0 <gpio_set_input>:
    8ba0:	e92d4038 	push	{r3, r4, r5, lr}
    8ba4:	e1a04000 	mov	r4, r0
    8ba8:	e350001f 	cmp	r0, #31
    8bac:	88bd8038 	pophi	{r3, r4, r5, pc}
    8bb0:	e59f30ac 	ldr	r3, [pc, #172]	; 8c64 <gpio_set_input+0xc4>
    8bb4:	e0832093 	umull	r2, r3, r3, r0
    8bb8:	e1a031a3 	lsr	r3, r3, #3
    8bbc:	e3530005 	cmp	r3, #5
    8bc0:	979ff103 	ldrls	pc, [pc, r3, lsl #2]
    8bc4:	ea000017 	b	8c28 <gpio_set_input+0x88>
    8bc8:	00008be0 	andeq	r8, r0, r0, ror #23
    8bcc:	00008bec 	andeq	r8, r0, ip, ror #23
    8bd0:	00008bf8 	strdeq	r8, [r0], -r8	; <UNPREDICTABLE>
    8bd4:	00008c04 	andeq	r8, r0, r4, lsl #24
    8bd8:	00008c10 	andeq	r8, r0, r0, lsl ip
    8bdc:	00008c1c 	andeq	r8, r0, ip, lsl ip
    8be0:	e59f3080 	ldr	r3, [pc, #128]	; 8c68 <gpio_set_input+0xc8>
    8be4:	e5935000 	ldr	r5, [r3]
    8be8:	ea00000f 	b	8c2c <gpio_set_input+0x8c>
    8bec:	e59f3074 	ldr	r3, [pc, #116]	; 8c68 <gpio_set_input+0xc8>
    8bf0:	e5935004 	ldr	r5, [r3, #4]
    8bf4:	ea00000c 	b	8c2c <gpio_set_input+0x8c>
    8bf8:	e59f3068 	ldr	r3, [pc, #104]	; 8c68 <gpio_set_input+0xc8>
    8bfc:	e5935008 	ldr	r5, [r3, #8]
    8c00:	ea000009 	b	8c2c <gpio_set_input+0x8c>
    8c04:	e59f305c 	ldr	r3, [pc, #92]	; 8c68 <gpio_set_input+0xc8>
    8c08:	e593500c 	ldr	r5, [r3, #12]
    8c0c:	ea000006 	b	8c2c <gpio_set_input+0x8c>
    8c10:	e59f3050 	ldr	r3, [pc, #80]	; 8c68 <gpio_set_input+0xc8>
    8c14:	e5935010 	ldr	r5, [r3, #16]
    8c18:	ea000003 	b	8c2c <gpio_set_input+0x8c>
    8c1c:	e59f3044 	ldr	r3, [pc, #68]	; 8c68 <gpio_set_input+0xc8>
    8c20:	e5935014 	ldr	r5, [r3, #20]
    8c24:	ea000000 	b	8c2c <gpio_set_input+0x8c>
    8c28:	e3a05000 	mov	r5, #0
    8c2c:	e1a00005 	mov	r0, r5
    8c30:	eb000158 	bl	9198 <get32>
    8c34:	e59f1028 	ldr	r1, [pc, #40]	; 8c64 <gpio_set_input+0xc4>
    8c38:	e0813491 	umull	r3, r1, r1, r4
    8c3c:	e1a011a1 	lsr	r1, r1, #3
    8c40:	e0811101 	add	r1, r1, r1, lsl #2
    8c44:	e1a01081 	lsl	r1, r1, #1
    8c48:	e0611004 	rsb	r1, r1, r4
    8c4c:	e0811081 	add	r1, r1, r1, lsl #1
    8c50:	e3a03007 	mov	r3, #7
    8c54:	e1c01113 	bic	r1, r0, r3, lsl r1
    8c58:	e1a00005 	mov	r0, r5
    8c5c:	eb000141 	bl	9168 <put32>
    8c60:	e8bd8038 	pop	{r3, r4, r5, pc}
    8c64:	cccccccd 	stclgt	12, cr12, [ip], {205}	; 0xcd
    8c68:	00009200 	andeq	r9, r0, r0, lsl #4

00008c6c <gpio_read>:
    8c6c:	e92d4010 	push	{r4, lr}
    8c70:	e1a04000 	mov	r4, r0
    8c74:	e350001f 	cmp	r0, #31
    8c78:	8a00000b 	bhi	8cac <gpio_read+0x40>
    8c7c:	8a000003 	bhi	8c90 <gpio_read+0x24>
    8c80:	e59f302c 	ldr	r3, [pc, #44]	; 8cb4 <gpio_read+0x48>
    8c84:	e5930028 	ldr	r0, [r3, #40]	; 0x28
    8c88:	eb000142 	bl	9198 <get32>
    8c8c:	ea000002 	b	8c9c <gpio_read+0x30>
    8c90:	e59f301c 	ldr	r3, [pc, #28]	; 8cb4 <gpio_read+0x48>
    8c94:	e593002c 	ldr	r0, [r3, #44]	; 0x2c
    8c98:	eb00013e 	bl	9198 <get32>
    8c9c:	e204401f 	and	r4, r4, #31
    8ca0:	e3a03001 	mov	r3, #1
    8ca4:	e0000413 	and	r0, r0, r3, lsl r4
    8ca8:	e8bd8010 	pop	{r4, pc}
    8cac:	e3e00000 	mvn	r0, #0
    8cb0:	e8bd8010 	pop	{r4, pc}
    8cb4:	00009200 	andeq	r9, r0, r0, lsl #4

00008cb8 <gpio_write>:
    8cb8:	e92d4008 	push	{r3, lr}
    8cbc:	e350001f 	cmp	r0, #31
    8cc0:	88bd8008 	pophi	{r3, pc}
    8cc4:	e3510000 	cmp	r1, #0
    8cc8:	0a000001 	beq	8cd4 <gpio_write+0x1c>
    8ccc:	ebffff97 	bl	8b30 <gpio_set_on>
    8cd0:	e8bd8008 	pop	{r3, pc}
    8cd4:	ebffffa3 	bl	8b68 <gpio_set_off>
    8cd8:	e8bd8008 	pop	{r3, pc}

00008cdc <gpio_set_function>:
    8cdc:	e92d4070 	push	{r4, r5, r6, lr}
    8ce0:	e1a04000 	mov	r4, r0
    8ce4:	e1a05001 	mov	r5, r1
    8ce8:	e3510007 	cmp	r1, #7
    8cec:	9350001f 	cmpls	r0, #31
    8cf0:	88bd8070 	pophi	{r4, r5, r6, pc}
    8cf4:	e59f30b0 	ldr	r3, [pc, #176]	; 8dac <gpio_set_function+0xd0>
    8cf8:	e0832093 	umull	r2, r3, r3, r0
    8cfc:	e1a031a3 	lsr	r3, r3, #3
    8d00:	e3530005 	cmp	r3, #5
    8d04:	979ff103 	ldrls	pc, [pc, r3, lsl #2]
    8d08:	ea000017 	b	8d6c <gpio_set_function+0x90>
    8d0c:	00008d24 	andeq	r8, r0, r4, lsr #26
    8d10:	00008d30 	andeq	r8, r0, r0, lsr sp
    8d14:	00008d3c 	andeq	r8, r0, ip, lsr sp
    8d18:	00008d48 	andeq	r8, r0, r8, asr #26
    8d1c:	00008d54 	andeq	r8, r0, r4, asr sp
    8d20:	00008d60 	andeq	r8, r0, r0, ror #26
    8d24:	e59f3084 	ldr	r3, [pc, #132]	; 8db0 <gpio_set_function+0xd4>
    8d28:	e5936000 	ldr	r6, [r3]
    8d2c:	ea00000f 	b	8d70 <gpio_set_function+0x94>
    8d30:	e59f3078 	ldr	r3, [pc, #120]	; 8db0 <gpio_set_function+0xd4>
    8d34:	e5936004 	ldr	r6, [r3, #4]
    8d38:	ea00000c 	b	8d70 <gpio_set_function+0x94>
    8d3c:	e59f306c 	ldr	r3, [pc, #108]	; 8db0 <gpio_set_function+0xd4>
    8d40:	e5936008 	ldr	r6, [r3, #8]
    8d44:	ea000009 	b	8d70 <gpio_set_function+0x94>
    8d48:	e59f3060 	ldr	r3, [pc, #96]	; 8db0 <gpio_set_function+0xd4>
    8d4c:	e593600c 	ldr	r6, [r3, #12]
    8d50:	ea000006 	b	8d70 <gpio_set_function+0x94>
    8d54:	e59f3054 	ldr	r3, [pc, #84]	; 8db0 <gpio_set_function+0xd4>
    8d58:	e5936010 	ldr	r6, [r3, #16]
    8d5c:	ea000003 	b	8d70 <gpio_set_function+0x94>
    8d60:	e59f3048 	ldr	r3, [pc, #72]	; 8db0 <gpio_set_function+0xd4>
    8d64:	e5936014 	ldr	r6, [r3, #20]
    8d68:	ea000000 	b	8d70 <gpio_set_function+0x94>
    8d6c:	e3a06000 	mov	r6, #0
    8d70:	e1a00006 	mov	r0, r6
    8d74:	eb000107 	bl	9198 <get32>
    8d78:	e59f302c 	ldr	r3, [pc, #44]	; 8dac <gpio_set_function+0xd0>
    8d7c:	e0832493 	umull	r2, r3, r3, r4
    8d80:	e1a031a3 	lsr	r3, r3, #3
    8d84:	e0833103 	add	r3, r3, r3, lsl #2
    8d88:	e1a03083 	lsl	r3, r3, #1
    8d8c:	e0633004 	rsb	r3, r3, r4
    8d90:	e0833083 	add	r3, r3, r3, lsl #1
    8d94:	e3a01007 	mov	r1, #7
    8d98:	e1c01311 	bic	r1, r0, r1, lsl r3
    8d9c:	e1a00006 	mov	r0, r6
    8da0:	e1811315 	orr	r1, r1, r5, lsl r3
    8da4:	eb0000ef 	bl	9168 <put32>
    8da8:	e8bd8070 	pop	{r4, r5, r6, pc}
    8dac:	cccccccd 	stclgt	12, cr12, [ip], {205}	; 0xcd
    8db0:	00009200 	andeq	r9, r0, r0, lsl #4

00008db4 <gpio_toggle>:
    8db4:	e92d4008 	push	{r3, lr}
    8db8:	e350001f 	cmp	r0, #31
    8dbc:	88bd8008 	pophi	{r3, pc}
    8dc0:	959f3020 	ldrls	r3, [pc, #32]	; 8de8 <gpio_toggle+0x34>
    8dc4:	95932018 	ldrls	r2, [r3, #24]
    8dc8:	859f3018 	ldrhi	r3, [pc, #24]	; 8de8 <gpio_toggle+0x34>
    8dcc:	8593201c 	ldrhi	r2, [r3, #28]
    8dd0:	e200301f 	and	r3, r0, #31
    8dd4:	e1a00002 	mov	r0, r2
    8dd8:	e3a01001 	mov	r1, #1
    8ddc:	e1a01311 	lsl	r1, r1, r3
    8de0:	eb0000e0 	bl	9168 <put32>
    8de4:	e8bd8008 	pop	{r3, pc}
    8de8:	00009200 	andeq	r9, r0, r0, lsl #4

00008dec <is_gpio_int>:
    8dec:	e92d4008 	push	{r3, lr}
    8df0:	e59f301c 	ldr	r3, [pc, #28]	; 8e14 <is_gpio_int+0x28>
    8df4:	e5930030 	ldr	r0, [r3, #48]	; 0x30
    8df8:	eb0000e6 	bl	9198 <get32>
    8dfc:	e3500000 	cmp	r0, #0
    8e00:	0a000001 	beq	8e0c <is_gpio_int+0x20>
    8e04:	e3a00001 	mov	r0, #1
    8e08:	e8bd8008 	pop	{r3, pc}
    8e0c:	e3a00000 	mov	r0, #0
    8e10:	e8bd8008 	pop	{r3, pc}
    8e14:	00009200 	andeq	r9, r0, r0, lsl #4

00008e18 <gpio_int_rising_edge>:
    8e18:	e92d4038 	push	{r3, r4, r5, lr}
    8e1c:	e1a04000 	mov	r4, r0
    8e20:	e350001f 	cmp	r0, #31
    8e24:	88bd8038 	pophi	{r3, r4, r5, pc}
    8e28:	eb0000c8 	bl	9150 <dev_barrier>
    8e2c:	e354001f 	cmp	r4, #31
    8e30:	8a000007 	bhi	8e54 <gpio_int_rising_edge+0x3c>
    8e34:	e59f505c 	ldr	r5, [pc, #92]	; 8e98 <gpio_int_rising_edge+0x80>
    8e38:	e5950034 	ldr	r0, [r5, #52]	; 0x34
    8e3c:	eb0000d5 	bl	9198 <get32>
    8e40:	e3a01001 	mov	r1, #1
    8e44:	e1801411 	orr	r1, r0, r1, lsl r4
    8e48:	e5950034 	ldr	r0, [r5, #52]	; 0x34
    8e4c:	eb0000c5 	bl	9168 <put32>
    8e50:	ea000007 	b	8e74 <gpio_int_rising_edge+0x5c>
    8e54:	e59f503c 	ldr	r5, [pc, #60]	; 8e98 <gpio_int_rising_edge+0x80>
    8e58:	e5950038 	ldr	r0, [r5, #56]	; 0x38
    8e5c:	eb0000cd 	bl	9198 <get32>
    8e60:	e204401f 	and	r4, r4, #31
    8e64:	e3a01001 	mov	r1, #1
    8e68:	e1801411 	orr	r1, r0, r1, lsl r4
    8e6c:	e5950038 	ldr	r0, [r5, #56]	; 0x38
    8e70:	eb0000bc 	bl	9168 <put32>
    8e74:	eb0000b5 	bl	9150 <dev_barrier>
    8e78:	e59f4018 	ldr	r4, [pc, #24]	; 8e98 <gpio_int_rising_edge+0x80>
    8e7c:	e594003c 	ldr	r0, [r4, #60]	; 0x3c
    8e80:	eb0000c4 	bl	9198 <get32>
    8e84:	e3801802 	orr	r1, r0, #131072	; 0x20000
    8e88:	e594003c 	ldr	r0, [r4, #60]	; 0x3c
    8e8c:	eb0000b5 	bl	9168 <put32>
    8e90:	eb0000ae 	bl	9150 <dev_barrier>
    8e94:	e8bd8038 	pop	{r3, r4, r5, pc}
    8e98:	00009200 	andeq	r9, r0, r0, lsl #4

00008e9c <gpio_int_falling_edge>:
    8e9c:	e92d4038 	push	{r3, r4, r5, lr}
    8ea0:	e1a04000 	mov	r4, r0
    8ea4:	e350001f 	cmp	r0, #31
    8ea8:	88bd8038 	pophi	{r3, r4, r5, pc}
    8eac:	eb0000a7 	bl	9150 <dev_barrier>
    8eb0:	e354001f 	cmp	r4, #31
    8eb4:	8a000007 	bhi	8ed8 <gpio_int_falling_edge+0x3c>
    8eb8:	e59f505c 	ldr	r5, [pc, #92]	; 8f1c <gpio_int_falling_edge+0x80>
    8ebc:	e5950040 	ldr	r0, [r5, #64]	; 0x40
    8ec0:	eb0000b4 	bl	9198 <get32>
    8ec4:	e3a01001 	mov	r1, #1
    8ec8:	e1801411 	orr	r1, r0, r1, lsl r4
    8ecc:	e5950040 	ldr	r0, [r5, #64]	; 0x40
    8ed0:	eb0000a4 	bl	9168 <put32>
    8ed4:	ea000007 	b	8ef8 <gpio_int_falling_edge+0x5c>
    8ed8:	e59f503c 	ldr	r5, [pc, #60]	; 8f1c <gpio_int_falling_edge+0x80>
    8edc:	e5950044 	ldr	r0, [r5, #68]	; 0x44
    8ee0:	eb0000ac 	bl	9198 <get32>
    8ee4:	e204401f 	and	r4, r4, #31
    8ee8:	e3a01001 	mov	r1, #1
    8eec:	e1801411 	orr	r1, r0, r1, lsl r4
    8ef0:	e5950044 	ldr	r0, [r5, #68]	; 0x44
    8ef4:	eb00009b 	bl	9168 <put32>
    8ef8:	eb000094 	bl	9150 <dev_barrier>
    8efc:	e59f4018 	ldr	r4, [pc, #24]	; 8f1c <gpio_int_falling_edge+0x80>
    8f00:	e594003c 	ldr	r0, [r4, #60]	; 0x3c
    8f04:	eb0000a3 	bl	9198 <get32>
    8f08:	e3801601 	orr	r1, r0, #1048576	; 0x100000
    8f0c:	e594003c 	ldr	r0, [r4, #60]	; 0x3c
    8f10:	eb000094 	bl	9168 <put32>
    8f14:	eb00008d 	bl	9150 <dev_barrier>
    8f18:	e8bd8038 	pop	{r3, r4, r5, pc}
    8f1c:	00009200 	andeq	r9, r0, r0, lsl #4

00008f20 <gpio_event_detected>:
    8f20:	e92d4010 	push	{r4, lr}
    8f24:	e1a04000 	mov	r4, r0
    8f28:	e350001f 	cmp	r0, #31
    8f2c:	8a000019 	bhi	8f98 <gpio_event_detected+0x78>
    8f30:	eb000086 	bl	9150 <dev_barrier>
    8f34:	e354001f 	cmp	r4, #31
    8f38:	8a000008 	bhi	8f60 <gpio_event_detected+0x40>
    8f3c:	e59f305c 	ldr	r3, [pc, #92]	; 8fa0 <gpio_event_detected+0x80>
    8f40:	e5930048 	ldr	r0, [r3, #72]	; 0x48
    8f44:	eb000093 	bl	9198 <get32>
    8f48:	e3a03001 	mov	r3, #1
    8f4c:	e0103413 	ands	r3, r0, r3, lsl r4
    8f50:	0a00000d 	beq	8f8c <gpio_event_detected+0x6c>
    8f54:	eb00007d 	bl	9150 <dev_barrier>
    8f58:	e3a00001 	mov	r0, #1
    8f5c:	e8bd8010 	pop	{r4, pc}
    8f60:	e59f3038 	ldr	r3, [pc, #56]	; 8fa0 <gpio_event_detected+0x80>
    8f64:	e593004c 	ldr	r0, [r3, #76]	; 0x4c
    8f68:	eb00008a 	bl	9198 <get32>
    8f6c:	e3a03001 	mov	r3, #1
    8f70:	e0004413 	and	r4, r0, r3, lsl r4
    8f74:	eb000075 	bl	9150 <dev_barrier>
    8f78:	e3540000 	cmp	r4, #0
    8f7c:	0a000002 	beq	8f8c <gpio_event_detected+0x6c>
    8f80:	eb000072 	bl	9150 <dev_barrier>
    8f84:	e3a00001 	mov	r0, #1
    8f88:	e8bd8010 	pop	{r4, pc}
    8f8c:	eb00006f 	bl	9150 <dev_barrier>
    8f90:	e3a00000 	mov	r0, #0
    8f94:	e8bd8010 	pop	{r4, pc}
    8f98:	e3e00000 	mvn	r0, #0
    8f9c:	e8bd8010 	pop	{r4, pc}
    8fa0:	00009200 	andeq	r9, r0, r0, lsl #4

00008fa4 <gpio_event_clear>:
    8fa4:	e92d4010 	push	{r4, lr}
    8fa8:	e1a04000 	mov	r4, r0
    8fac:	e350001f 	cmp	r0, #31
    8fb0:	88bd8010 	pophi	{r4, pc}
    8fb4:	eb000065 	bl	9150 <dev_barrier>
    8fb8:	e354001f 	cmp	r4, #31
    8fbc:	8a000005 	bhi	8fd8 <gpio_event_clear+0x34>
    8fc0:	e59f3030 	ldr	r3, [pc, #48]	; 8ff8 <gpio_event_clear+0x54>
    8fc4:	e5930048 	ldr	r0, [r3, #72]	; 0x48
    8fc8:	e3a01001 	mov	r1, #1
    8fcc:	e1a01411 	lsl	r1, r1, r4
    8fd0:	eb000064 	bl	9168 <put32>
    8fd4:	ea000005 	b	8ff0 <gpio_event_clear+0x4c>
    8fd8:	e204401f 	and	r4, r4, #31
    8fdc:	e59f3014 	ldr	r3, [pc, #20]	; 8ff8 <gpio_event_clear+0x54>
    8fe0:	e593004c 	ldr	r0, [r3, #76]	; 0x4c
    8fe4:	e3a01001 	mov	r1, #1
    8fe8:	e1a01411 	lsl	r1, r1, r4
    8fec:	eb00005d 	bl	9168 <put32>
    8ff0:	eb000056 	bl	9150 <dev_barrier>
    8ff4:	e8bd8010 	pop	{r4, pc}
    8ff8:	00009200 	andeq	r9, r0, r0, lsl #4

00008ffc <uart_init>:
    8ffc:	e92d4038 	push	{r3, r4, r5, lr}
    9000:	eb000052 	bl	9150 <dev_barrier>
    9004:	e3a0000e 	mov	r0, #14
    9008:	e3a01002 	mov	r1, #2
    900c:	ebffff32 	bl	8cdc <gpio_set_function>
    9010:	e3a0000f 	mov	r0, #15
    9014:	e3a01002 	mov	r1, #2
    9018:	ebffff2f 	bl	8cdc <gpio_set_function>
    901c:	eb00004b 	bl	9150 <dev_barrier>
    9020:	e59f4068 	ldr	r4, [pc, #104]	; 9090 <uart_init+0x94>
    9024:	e5945000 	ldr	r5, [r4]
    9028:	e1a00005 	mov	r0, r5
    902c:	eb000059 	bl	9198 <get32>
    9030:	e3801001 	orr	r1, r0, #1
    9034:	e1a00005 	mov	r0, r5
    9038:	eb00004a 	bl	9168 <put32>
    903c:	eb000043 	bl	9150 <dev_barrier>
    9040:	e5940004 	ldr	r0, [r4, #4]
    9044:	e3a01000 	mov	r1, #0
    9048:	eb000046 	bl	9168 <put32>
    904c:	e5940008 	ldr	r0, [r4, #8]
    9050:	e3a01000 	mov	r1, #0
    9054:	eb000043 	bl	9168 <put32>
    9058:	e594000c 	ldr	r0, [r4, #12]
    905c:	e3a01006 	mov	r1, #6
    9060:	eb000040 	bl	9168 <put32>
    9064:	e5940010 	ldr	r0, [r4, #16]
    9068:	e3a01003 	mov	r1, #3
    906c:	eb00003d 	bl	9168 <put32>
    9070:	e5940014 	ldr	r0, [r4, #20]
    9074:	e59f1018 	ldr	r1, [pc, #24]	; 9094 <uart_init+0x98>
    9078:	eb00003a 	bl	9168 <put32>
    907c:	e5940004 	ldr	r0, [r4, #4]
    9080:	e3a01003 	mov	r1, #3
    9084:	eb000037 	bl	9168 <put32>
    9088:	eb000030 	bl	9150 <dev_barrier>
    908c:	e8bd8038 	pop	{r3, r4, r5, pc}
    9090:	00009260 	andeq	r9, r0, r0, ror #4
    9094:	0000010e 	andeq	r0, r0, lr, lsl #2

00009098 <uart_can_getc>:
    9098:	e92d4008 	push	{r3, lr}
    909c:	e59f300c 	ldr	r3, [pc, #12]	; 90b0 <uart_can_getc+0x18>
    90a0:	e5930018 	ldr	r0, [r3, #24]
    90a4:	eb00003b 	bl	9198 <get32>
    90a8:	e2000001 	and	r0, r0, #1
    90ac:	e8bd8008 	pop	{r3, pc}
    90b0:	00009260 	andeq	r9, r0, r0, ror #4

000090b4 <uart_getc>:
    90b4:	e92d4008 	push	{r3, lr}
    90b8:	ebfffff6 	bl	9098 <uart_can_getc>
    90bc:	e3500000 	cmp	r0, #0
    90c0:	0afffffc 	beq	90b8 <uart_getc+0x4>
    90c4:	e59f300c 	ldr	r3, [pc, #12]	; 90d8 <uart_getc+0x24>
    90c8:	e593001c 	ldr	r0, [r3, #28]
    90cc:	eb000031 	bl	9198 <get32>
    90d0:	e6ef0070 	uxtb	r0, r0
    90d4:	e8bd8008 	pop	{r3, pc}
    90d8:	00009260 	andeq	r9, r0, r0, ror #4

000090dc <uart_can_putc>:
    90dc:	e92d4008 	push	{r3, lr}
    90e0:	e59f300c 	ldr	r3, [pc, #12]	; 90f4 <uart_can_putc+0x18>
    90e4:	e5930018 	ldr	r0, [r3, #24]
    90e8:	eb00002a 	bl	9198 <get32>
    90ec:	e2000020 	and	r0, r0, #32
    90f0:	e8bd8008 	pop	{r3, pc}
    90f4:	00009260 	andeq	r9, r0, r0, ror #4

000090f8 <uart_putc>:
    90f8:	e92d4010 	push	{r4, lr}
    90fc:	e1a04000 	mov	r4, r0
    9100:	ebfffff5 	bl	90dc <uart_can_putc>
    9104:	e3500000 	cmp	r0, #0
    9108:	0afffffc 	beq	9100 <uart_putc+0x8>
    910c:	e59f300c 	ldr	r3, [pc, #12]	; 9120 <uart_putc+0x28>
    9110:	e593001c 	ldr	r0, [r3, #28]
    9114:	e1a01004 	mov	r1, r4
    9118:	eb000012 	bl	9168 <put32>
    911c:	e8bd8010 	pop	{r4, pc}
    9120:	00009260 	andeq	r9, r0, r0, ror #4

00009124 <uart_has_data>:
    9124:	e92d4008 	push	{r3, lr}
    9128:	ebffffda 	bl	9098 <uart_can_getc>
    912c:	e8bd8008 	pop	{r3, pc}

00009130 <uart_getc_async>:
    9130:	e92d4008 	push	{r3, lr}
    9134:	ebfffffa 	bl	9124 <uart_has_data>
    9138:	e3500000 	cmp	r0, #0
    913c:	0a000001 	beq	9148 <uart_getc_async+0x18>
    9140:	ebffffdb 	bl	90b4 <uart_getc>
    9144:	e8bd8008 	pop	{r3, pc}
    9148:	e3e00000 	mvn	r0, #0
    914c:	e8bd8008 	pop	{r3, pc}

00009150 <dev_barrier>:
    9150:	ea000002 	b	9160 <dsb>

00009154 <dmb>:
    9154:	e3a00000 	mov	r0, #0
    9158:	ee070fba 	mcr	15, 0, r0, cr7, cr10, {5}
    915c:	e12fff1e 	bx	lr

00009160 <dsb>:
    9160:	ee070f9a 	mcr	15, 0, r0, cr7, cr10, {4}
    9164:	e12fff1e 	bx	lr

00009168 <put32>:
    9168:	e5801000 	str	r1, [r0]
    916c:	e12fff1e 	bx	lr

00009170 <PUT32>:
    9170:	e5801000 	str	r1, [r0]
    9174:	e12fff1e 	bx	lr

00009178 <put16>:
    9178:	e1c010b0 	strh	r1, [r0]
    917c:	e12fff1e 	bx	lr

00009180 <PUT16>:
    9180:	e1c010b0 	strh	r1, [r0]
    9184:	e12fff1e 	bx	lr

00009188 <put8>:
    9188:	e5c01000 	strb	r1, [r0]
    918c:	e12fff1e 	bx	lr

00009190 <PUT8>:
    9190:	e5c01000 	strb	r1, [r0]
    9194:	e12fff1e 	bx	lr

00009198 <get32>:
    9198:	e5900000 	ldr	r0, [r0]
    919c:	e12fff1e 	bx	lr

000091a0 <GET32>:
    91a0:	e5900000 	ldr	r0, [r0]
    91a4:	e12fff1e 	bx	lr

000091a8 <GETPC>:
    91a8:	e1a0000e 	mov	r0, lr
    91ac:	e12fff1e 	bx	lr

000091b0 <dummy>:
    91b0:	e12fff1e 	bx	lr

000091b4 <internal_putchar>:
    91b4:	e92d4010 	push	{r4, lr}
    91b8:	e1a04000 	mov	r4, r0
    91bc:	ebffffcd 	bl	90f8 <uart_putc>
    91c0:	e1a00004 	mov	r0, r4
    91c4:	e8bd8010 	pop	{r4, pc}

000091c8 <rpi_reset_putc>:
    91c8:	e59f2008 	ldr	r2, [pc, #8]	; 91d8 <rpi_reset_putc+0x10>
    91cc:	e59f3008 	ldr	r3, [pc, #8]	; 91dc <rpi_reset_putc+0x14>
    91d0:	e5832000 	str	r2, [r3]
    91d4:	e12fff1e 	bx	lr
    91d8:	000091b4 			; <UNDEFINED> instruction: 0x000091b4
    91dc:	00009294 	muleq	r0, r4, r2

000091e0 <rpi_set_putc>:
    91e0:	e59f3004 	ldr	r3, [pc, #4]	; 91ec <rpi_set_putc+0xc>
    91e4:	e5830000 	str	r0, [r3]
    91e8:	e12fff1e 	bx	lr
    91ec:	00009294 	muleq	r0, r4, r2

Disassembly of section .data:

000091f0 <GPPUD>:
    91f0:	20200094 	mlacs	r0, r4, r0, r0

000091f4 <GPPUDCLK0>:
    91f4:	20200098 	mlacs	r0, r8, r0, r0

000091f8 <GPPUDCLK1>:
    91f8:	2020009c 	mlacs	r0, ip, r0, r0

000091fc <putk>:
    91fc:	000083d8 	ldrdeq	r8, [r0], -r8	; <UNPREDICTABLE>

00009200 <GPFSEL0>:
    9200:	20200000 	eorcs	r0, r0, r0

00009204 <GPFSEL1>:
    9204:	20200004 	eorcs	r0, r0, r4

00009208 <GPFSEL2>:
    9208:	20200008 	eorcs	r0, r0, r8

0000920c <GPFSEL3>:
    920c:	2020000c 	eorcs	r0, r0, ip

00009210 <GPFSEL4>:
    9210:	20200010 	eorcs	r0, r0, r0, lsl r0

00009214 <GPFSEL5>:
    9214:	20200014 	eorcs	r0, r0, r4, lsl r0

00009218 <GPSET0>:
    9218:	2020001c 	eorcs	r0, r0, ip, lsl r0

0000921c <GPSET1>:
    921c:	20200020 	eorcs	r0, r0, r0, lsr #32

00009220 <GPCLR0>:
    9220:	20200028 	eorcs	r0, r0, r8, lsr #32

00009224 <GPCLR1>:
    9224:	2020002c 	eorcs	r0, r0, ip, lsr #32

00009228 <GPLEV0>:
    9228:	20200034 	eorcs	r0, r0, r4, lsr r0

0000922c <GPLEV1>:
    922c:	20200038 	eorcs	r0, r0, r8, lsr r0

00009230 <IRQ_PENDING_2>:
    9230:	2000b208 	andcs	fp, r0, r8, lsl #4

00009234 <GPREN0>:
    9234:	2020004c 	eorcs	r0, r0, ip, asr #32

00009238 <GPREN1>:
    9238:	20200050 	eorcs	r0, r0, r0, asr r0

0000923c <ENABLE_IRQS_2>:
    923c:	2000b214 	andcs	fp, r0, r4, lsl r2

00009240 <GPFEN0>:
    9240:	20200058 	eorcs	r0, r0, r8, asr r0

00009244 <GPFEN1>:
    9244:	2020005c 	eorcs	r0, r0, ip, asr r0

00009248 <GPEDS0>:
    9248:	20200040 	eorcs	r0, r0, r0, asr #32

0000924c <GPEDS1>:
    924c:	20200044 	eorcs	r0, r0, r4, asr #32

00009250 <IRQ_PENDING_1>:
    9250:	2000b204 	andcs	fp, r0, r4, lsl #4

00009254 <gpio_clr0>:
    9254:	20200028 	eorcs	r0, r0, r8, lsr #32

00009258 <gpio_set0>:
    9258:	2020001c 	eorcs	r0, r0, ip, lsl r0

0000925c <gpio_fsel0>:
    925c:	20200000 	eorcs	r0, r0, r0

00009260 <AUX_ENABLES>:
    9260:	20215004 	eorcs	r5, r1, r4

00009264 <AUX_MU_CNTL_REG>:
    9264:	20215060 	eorcs	r5, r1, r0, rrx

00009268 <AUX_MU_IER_REG>:
    9268:	20215044 	eorcs	r5, r1, r4, asr #32

0000926c <AUX_MU_IIR_REG>:
    926c:	20215048 	eorcs	r5, r1, r8, asr #32

00009270 <AUX_MU_LCR_REG>:
    9270:	2021504c 	eorcs	r5, r1, ip, asr #32

00009274 <AUX_MU_BAUD_REG>:
    9274:	20215068 	eorcs	r5, r1, r8, rrx

00009278 <AUX_MU_LSR_REG>:
    9278:	20215054 	eorcs	r5, r1, r4, asr r0

0000927c <AUX_MU_IO_REG>:
    927c:	20215040 	eorcs	r5, r1, r0, asr #32

00009280 <AUX_MU_STAT_REG>:
    9280:	20215064 	eorcs	r5, r1, r4, rrx

00009284 <AUX_MU_SCRATCH>:
    9284:	2021505c 	eorcs	r5, r1, ip, asr r0

00009288 <AUX_MU_MSR_REG>:
    9288:	20215058 	eorcs	r5, r1, r8, asr r0

0000928c <AUX_MU_MCR_REG>:
    928c:	20215050 	eorcs	r5, r1, r0, asr r0

00009290 <AUX_IRQ>:
    9290:	20215000 	eorcs	r5, r1, r0

00009294 <rpi_putchar>:
    9294:	000091b4 			; <UNDEFINED> instruction: 0x000091b4

Disassembly of section .rodata:

00009298 <__FUNCTION__.4271-0x50>:
    9298:	72617473 	rsbvc	r7, r1, #1929379840	; 0x73000000
    929c:	676e6974 			; <UNDEFINED> instruction: 0x676e6974
    92a0:	6e6f7320 	cdpvs	3, 6, cr7, cr15, cr0, {1}
    92a4:	0a217261 	beq	865c30 <__bss_end__+0x85c430>
    92a8:	00000000 	andeq	r0, r0, r0
    92ac:	616e6f73 	smcvs	59123	; 0xe6f3
    92b0:	65722072 	ldrbvs	r2, [r2, #-114]!	; 0x72
    92b4:	21796461 	cmncs	r9, r1, ror #8
    92b8:	0000000a 	andeq	r0, r0, sl
    92bc:	74736964 	ldrbtvc	r6, [r3], #-2404	; 0x964
    92c0:	65636e61 	strbvs	r6, [r3, #-3681]!	; 0xe61
    92c4:	25203d20 	strcs	r3, [r0, #-3360]!	; 0xd20
    92c8:	6e692064 	cdpvs	0, 6, cr2, cr9, cr4, {3}
    92cc:	73656863 	cmnvc	r5, #6488064	; 0x630000
    92d0:	0000000a 	andeq	r0, r0, sl
    92d4:	706f7473 	rsbvc	r7, pc, r3, ror r4	; <UNPREDICTABLE>
    92d8:	676e6970 			; <UNDEFINED> instruction: 0x676e6970
    92dc:	6e6f7320 	cdpvs	3, 6, cr7, cr15, cr0, {1}
    92e0:	21207261 	teqcs	r0, r1, ror #4
    92e4:	0000000a 	andeq	r0, r0, sl

000092e8 <__FUNCTION__.4271>:
    92e8:	74696d65 	strbtvc	r6, [r9], #-3429	; 0xd65
    92ec:	00000000 	andeq	r0, r0, r0

000092f0 <__FUNCTION__.4219>:
    92f0:	5f697072 	svcpl	0x00697072
    92f4:	5f746573 	svcpl	0x00746573
    92f8:	7074756f 	rsbsvc	r7, r4, pc, ror #10
    92fc:	00007475 	andeq	r7, r0, r5, ror r4

00009300 <__FUNCTION__.4293>:
    9300:	705f6176 	subsvc	r6, pc, r6, ror r1	; <UNPREDICTABLE>
    9304:	746e6972 	strbtvc	r6, [lr], #-2418	; 0x972
    9308:	0000006b 	andeq	r0, r0, fp, rrx
    930c:	494e4150 	stmdbmi	lr, {r4, r6, r8, lr}^
    9310:	73253a43 	teqvc	r5, #274432	; 0x43000
    9314:	3a73253a 	bcc	1cd2804 <__bss_end__+0x1cc9004>
    9318:	303a6425 	eorscc	r6, sl, r5, lsr #8
    931c:	0000000a 	andeq	r0, r0, sl
    9320:	6362696c 	cmnvs	r2, #108, 18	; 0x1b0000
    9324:	2d61762f 	stclcs	6, cr7, [r1, #-188]!	; 0xffffff44
    9328:	6e697270 	mcrvs	2, 3, r7, cr9, cr0, {3}
    932c:	632e6b74 	teqvs	lr, #116, 22	; 0x1d000
    9330:	00000000 	andeq	r0, r0, r0
    9334:	33323130 	teqcc	r2, #48, 2
    9338:	37363534 			; <UNDEFINED> instruction: 0x37363534
    933c:	00003938 	andeq	r3, r0, r8, lsr r9
    9340:	33323130 	teqcc	r2, #48, 2
    9344:	37363534 			; <UNDEFINED> instruction: 0x37363534
    9348:	62613938 	rsbvs	r3, r1, #56, 18	; 0xe0000
    934c:	66656463 	strbtvs	r6, [r5], -r3, ror #8
    9350:	00000000 	andeq	r0, r0, r0
    9354:	00003130 	andeq	r3, r0, r0, lsr r1
    9358:	494e4150 	stmdbmi	lr, {r4, r6, r8, lr}^
    935c:	73253a43 	teqvc	r5, #274432	; 0x43000
    9360:	3a73253a 	bcc	1cd2850 <__bss_end__+0x1cc9050>
    9364:	703a6425 	eorsvc	r6, sl, r5, lsr #8
    9368:	5f637475 	svcpl	0x00637475
    936c:	000a7066 	andeq	r7, sl, r6, rrx
    9370:	494e4150 	stmdbmi	lr, {r4, r6, r8, lr}^
    9374:	73253a43 	teqvc	r5, #274432	; 0x43000
    9378:	3a73253a 	bcc	1cd2868 <__bss_end__+0x1cc9068>
    937c:	773a6425 	ldrvc	r6, [sl, -r5, lsr #8]!
    9380:	68746469 	ldmdavs	r4!, {r0, r3, r5, r6, sl, sp, lr}^
    9384:	33203c20 	teqcc	r0, #32, 24	; 0x2000
    9388:	00000a32 	andeq	r0, r0, r2, lsr sl
    938c:	494e4150 	stmdbmi	lr, {r4, r6, r8, lr}^
    9390:	73253a43 	teqvc	r5, #274432	; 0x43000
    9394:	3a73253a 	bcc	1cd2884 <__bss_end__+0x1cc9084>
    9398:	663a6425 	ldrtvs	r6, [sl], -r5, lsr #8
    939c:	74616f6c 	strbtvc	r6, [r1], #-3948	; 0xf6c
    93a0:	746f6e20 	strbtvc	r6, [pc], #-3616	; 93a8 <__FUNCTION__.4293+0xa8>
    93a4:	616e6520 	cmnvs	lr, r0, lsr #10
    93a8:	64656c62 	strbtvs	r6, [r5], #-3170	; 0xc62
    93ac:	0a212121 	beq	851838 <__bss_end__+0x848038>
    93b0:	00000000 	andeq	r0, r0, r0
    93b4:	494e4150 	stmdbmi	lr, {r4, r6, r8, lr}^
    93b8:	73253a43 	teqvc	r5, #274432	; 0x43000
    93bc:	3a73253a 	bcc	1cd28ac <__bss_end__+0x1cc90ac>
    93c0:	703a6425 	eorsvc	r6, sl, r5, lsr #8
    93c4:	746e6972 	strbtvc	r6, [lr], #-2418	; 0x972
    93c8:	6e203a6b 	vnmulvs.f32	s6, s0, s23
    93cc:	6820746f 	stmdavs	r0!, {r0, r1, r2, r3, r5, r6, sl, ip, sp, lr}
    93d0:	6c646e61 	stclvs	14, cr6, [r4], #-388	; 0xfffffe7c
    93d4:	20676e69 	rsbcs	r6, r7, r9, ror #28
    93d8:	63657073 	cmnvs	r5, #115	; 0x73
    93dc:	65696669 	strbvs	r6, [r9, #-1641]!	; 0x669
    93e0:	25272072 	strcs	r2, [r7, #-114]!	; 0x72
    93e4:	0a0a2763 	beq	293178 <__bss_end__+0x289978>
    93e8:	00000000 	andeq	r0, r0, r0
    93ec:	454e4f44 	strbmi	r4, [lr, #-3908]	; 0xf44
    93f0:	0a212121 	beq	85187c <__bss_end__+0x84807c>
    93f4:	00000000 	andeq	r0, r0, r0

Disassembly of section .bss:

000093f8 <__bss_start__>:
    93f8:	00000000 	andeq	r0, r0, r0

000093fc <buf.4219>:
	...

Disassembly of section .ARM.attributes:

00000000 <.ARM.attributes>:
   0:	00002a41 	andeq	r2, r0, r1, asr #20
   4:	61656100 	cmnvs	r5, r0, lsl #2
   8:	01006962 	tsteq	r0, r2, ror #18
   c:	00000020 	andeq	r0, r0, r0, lsr #32
  10:	4b5a3605 	blmi	168d82c <__bss_end__+0x168402c>
  14:	08070600 	stmdaeq	r7, {r9, sl}
  18:	12010901 	andne	r0, r1, #16384	; 0x4000
  1c:	15011404 	strne	r1, [r1, #-1028]	; 0x404
  20:	18031701 	stmdane	r3, {r0, r8, r9, sl, ip}
  24:	22011a01 	andcs	r1, r1, #4096	; 0x1000
  28:	Address 0x0000000000000028 is out of bounds.


Disassembly of section .comment:

00000000 <.comment>:
   0:	3a434347 	bcc	10d0d24 <__bss_end__+0x10c7524>
   4:	4e472820 	cdpmi	8, 4, cr2, cr7, cr0, {1}
   8:	34202955 	strtcc	r2, [r0], #-2389	; 0x955
   c:	332e382e 	teqcc	lr, #3014656	; 0x2e0000
	...

Disassembly of section .debug_info:

00000000 <.debug_info>:
       0:	00000228 	andeq	r0, r0, r8, lsr #4
       4:	00000004 	andeq	r0, r0, r4
       8:	01040000 	mrseq	r0, (UNDEF: 4)
       c:	0000005c 	andeq	r0, r0, ip, asr r0
      10:	00011f01 	andeq	r1, r1, r1, lsl #30
      14:	00012700 	andeq	r2, r1, r0, lsl #14
      18:	00801000 	addeq	r1, r0, r0
      1c:	00009000 	andeq	r9, r0, r0
      20:	00000000 	andeq	r0, r0, r0
      24:	05040200 	streq	r0, [r4, #-512]	; 0x200
      28:	00746e69 	rsbseq	r6, r4, r9, ror #28
      2c:	42070403 	andmi	r0, r7, #50331648	; 0x3000000
      30:	03000000 	movweq	r0, #0
      34:	00ce0601 	sbceq	r0, lr, r1, lsl #12
      38:	02030000 	andeq	r0, r3, #0
      3c:	00017905 	andeq	r7, r1, r5, lsl #18
      40:	05040300 	streq	r0, [r4, #-768]	; 0x300
      44:	00000005 	andeq	r0, r0, r5
      48:	00050803 	andeq	r0, r5, r3, lsl #16
      4c:	03000000 	movweq	r0, #0
      50:	00cc0801 	sbceq	r0, ip, r1, lsl #16
      54:	02030000 	andeq	r0, r3, #0
      58:	0000f907 	andeq	pc, r0, r7, lsl #18
      5c:	07040300 	streq	r0, [r4, -r0, lsl #6]
      60:	0000003d 	andeq	r0, r0, sp, lsr r0
      64:	38070803 	stmdacc	r7, {r0, r1, fp}
      68:	03000000 	movweq	r0, #0
      6c:	01830704 	orreq	r0, r3, r4, lsl #14
      70:	01030000 	mrseq	r0, (UNDEF: 3)
      74:	0000d508 	andeq	sp, r0, r8, lsl #10
      78:	7f040400 	svcvc	0x00040400
      7c:	05000000 	streq	r0, [r0, #-0]
      80:	00000072 	andeq	r0, r0, r2, ror r0
      84:	09020806 	stmdbeq	r2, {r1, r2, fp}
      88:	000000a5 	andeq	r0, r0, r5, lsr #1
      8c:	00000e07 	andeq	r0, r0, r7, lsl #28
      90:	250a0200 	strcs	r0, [sl, #-512]	; 0x200
      94:	00000000 	andeq	r0, r0, r0
      98:	0000ec07 	andeq	lr, r0, r7, lsl #24
      9c:	250a0200 	strcs	r0, [sl, #-512]	; 0x200
      a0:	04000000 	streq	r0, [r0], #-0
      a4:	01150800 	tsteq	r5, r0, lsl #16
      a8:	0b020000 	bleq	800b0 <__bss_end__+0x768b0>
      ac:	00000084 	andeq	r0, r0, r4, lsl #1
      b0:	0000f109 	andeq	pc, r0, r9, lsl #2
      b4:	10050100 	andne	r0, r5, r0, lsl #2
      b8:	90000080 	andls	r0, r0, r0, lsl #1
      bc:	01000000 	mrseq	r0, (UNDEF: 0)
      c0:	0001bc9c 	muleq	r1, ip, ip
      c4:	00da0a00 	sbcseq	r0, sl, r0, lsl #20
      c8:	07010000 	streq	r0, [r1, -r0]
      cc:	0000002c 	andeq	r0, r0, ip, lsr #32
      d0:	680bd6d8 	stmdavs	fp, {r3, r4, r6, r7, r9, sl, ip, lr, pc}
      d4:	a50c0100 	strge	r0, [ip, #-256]	; 0x100
      d8:	02000000 	andeq	r0, r0, #0
      dc:	3c0c6091 	stccc	0, cr6, [ip], {145}	; 0x91
      e0:	44000080 	strmi	r0, [r0], #-128	; 0x80
      e4:	46000000 	strmi	r0, [r0], -r0
      e8:	0d000001 	stceq	0, cr0, [r0, #-4]
      ec:	000000c7 	andeq	r0, r0, r7, asr #1
      f0:	00250f01 	eoreq	r0, r5, r1, lsl #30
      f4:	00000000 	andeq	r0, r0, r0
      f8:	690e0000 	stmdbvs	lr, {}	; <UNPREDICTABLE>
      fc:	250f0100 	strcs	r0, [pc, #-256]	; 4 <_start-0x7ffc>
     100:	1e000000 	cdpne	0, 0, cr0, cr0, cr0, {0}
     104:	0f000000 	svceq	0x00000000
     108:	0000805c 	andeq	r8, r0, ip, asr r0
     10c:	000001bc 			; <UNDEFINED> instruction: 0x000001bc
     110:	00000121 	andeq	r0, r0, r1, lsr #2
     114:	02510110 	subseq	r0, r1, #16, 2
     118:	01100074 	tsteq	r0, r4, ror r0
     11c:	007d0250 	rsbseq	r0, sp, r0, asr r2
     120:	806c0f00 	rsbhi	r0, ip, r0, lsl #30
     124:	01dc0000 	bicseq	r0, ip, r0
     128:	01350000 	teqeq	r5, r0
     12c:	01100000 	tsteq	r0, r0
     130:	00770250 	rsbseq	r0, r7, r0, asr r2
     134:	80741100 	rsbshi	r1, r4, r0, lsl #2
     138:	01f20000 	mvnseq	r0, r0
     13c:	01100000 	tsteq	r0, r0
     140:	00760250 	rsbseq	r0, r6, r0, asr r2
     144:	1c120000 	ldcne	0, cr0, [r2], {-0}
     148:	03000080 	movweq	r0, #128	; 0x80
     14c:	0f000002 	svceq	0x00000002
     150:	00008024 	andeq	r8, r0, r4, lsr #32
     154:	000001dc 	ldrdeq	r0, [r0], -ip
     158:	00000166 	andeq	r0, r0, r6, ror #2
     15c:	05500110 	ldrbeq	r0, [r0, #-272]	; 0x110
     160:	00929803 	addseq	r9, r2, r3, lsl #16
     164:	340f0000 	strcc	r0, [pc], #-0	; 16c <_start-0x7e94>
     168:	0a000080 	beq	370 <_start-0x7c90>
     16c:	84000002 	strhi	r0, [r0], #-2
     170:	10000001 	andne	r0, r0, r1
     174:	45015201 	strmi	r5, [r1, #-513]	; 0x201
     178:	01510110 	cmpeq	r1, r0, lsl r1
     17c:	50011044 	andpl	r1, r1, r4, asr #32
     180:	00007d02 	andeq	r7, r0, r2, lsl #26
     184:	00803c0f 	addeq	r3, r0, pc, lsl #24
     188:	0001dc00 	andeq	sp, r1, r0, lsl #24
     18c:	00019b00 	andeq	r9, r1, r0, lsl #22
     190:	50011000 	andpl	r1, r1, r0
     194:	92ac0305 	adcls	r0, ip, #335544320	; 0x14000000
     198:	0f000000 	svceq	0x00000000
     19c:	00008088 	andeq	r8, r0, r8, lsl #1
     1a0:	000001dc 	ldrdeq	r0, [r0], -ip
     1a4:	000001b2 			; <UNDEFINED> instruction: 0x000001b2
     1a8:	05500110 	ldrbeq	r0, [r0, #-272]	; 0x110
     1ac:	0092d403 	addseq	sp, r2, r3, lsl #8
     1b0:	8c120000 	ldchi	0, cr0, [r2], {-0}
     1b4:	24000080 	strcs	r0, [r0], #-128	; 0x80
     1b8:	00000002 	andeq	r0, r0, r2
     1bc:	00002313 	andeq	r2, r0, r3, lsl r3
     1c0:	25130200 	ldrcs	r0, [r3, #-512]	; 0x200
     1c4:	d6000000 	strle	r0, [r0], -r0
     1c8:	14000001 	strne	r0, [r0], #-1
     1cc:	000001d6 	ldrdeq	r0, [r0], -r6
     1d0:	00002c14 	andeq	r2, r0, r4, lsl ip
     1d4:	04040000 	streq	r0, [r4], #-0
     1d8:	000000a5 	andeq	r0, r0, r5, lsr #1
     1dc:	00036f13 	andeq	r6, r3, r3, lsl pc
     1e0:	25290300 	strcs	r0, [r9, #-768]!	; 0x300
     1e4:	f2000000 	vhadd.s8	d0, d0, d0
     1e8:	14000001 	strne	r0, [r0], #-1
     1ec:	00000079 	andeq	r0, r0, r9, ror r0
     1f0:	0c160015 	ldceq	0, cr0, [r6], {21}
     1f4:	03000001 	movweq	r0, #1
     1f8:	00020350 	andeq	r0, r2, r0, asr r3
     1fc:	002c1400 	eoreq	r1, ip, r0, lsl #8
     200:	17000000 	strne	r0, [r0, -r0]
     204:	000000e2 	andeq	r0, r0, r2, ror #1
     208:	16133a03 	ldrne	r3, [r3], -r3, lsl #20
     20c:	02000000 	andeq	r0, r0, #0
     210:	0000a510 	andeq	sl, r0, r0, lsl r5
     214:	00022400 	andeq	r2, r2, r0, lsl #8
     218:	00251400 	eoreq	r1, r5, r0, lsl #8
     21c:	25140000 	ldrcs	r0, [r4, #-0]
     220:	00000000 	andeq	r0, r0, r0
     224:	00004f17 	andeq	r4, r0, r7, lsl pc
     228:	00660300 	rsbeq	r0, r6, r0, lsl #6
     22c:	00000334 	andeq	r0, r0, r4, lsr r3
     230:	01380004 	teqeq	r8, r4
     234:	01040000 	mrseq	r0, (UNDEF: 4)
     238:	0000005c 	andeq	r0, r0, ip, asr r0
     23c:	00022b01 	andeq	r2, r2, r1, lsl #22
     240:	00012700 	andeq	r2, r1, r0, lsl #14
     244:	0080a000 	addeq	sl, r0, r0
     248:	00013c00 	andeq	r3, r1, r0, lsl #24
     24c:	0000ad00 	andeq	sl, r0, r0, lsl #26
     250:	05040200 	streq	r0, [r4, #-512]	; 0x200
     254:	00746e69 	rsbseq	r6, r4, r9, ror #28
     258:	42070403 	andmi	r0, r7, #50331648	; 0x3000000
     25c:	03000000 	movweq	r0, #0
     260:	00ce0601 	sbceq	r0, lr, r1, lsl #12
     264:	02030000 	andeq	r0, r3, #0
     268:	00017905 	andeq	r7, r1, r5, lsl #18
     26c:	05040300 	streq	r0, [r4, #-768]	; 0x300
     270:	00000005 	andeq	r0, r0, r5
     274:	00050803 	andeq	r0, r5, r3, lsl #16
     278:	03000000 	movweq	r0, #0
     27c:	00cc0801 	sbceq	r0, ip, r1, lsl #16
     280:	02030000 	andeq	r0, r3, #0
     284:	0000f907 	andeq	pc, r0, r7, lsl #18
     288:	07040300 	streq	r0, [r4, -r0, lsl #6]
     28c:	0000003d 	andeq	r0, r0, sp, lsr r0
     290:	38070803 	stmdacc	r7, {r0, r1, fp}
     294:	03000000 	movweq	r0, #0
     298:	01830704 	orreq	r0, r3, r4, lsl #14
     29c:	01030000 	mrseq	r0, (UNDEF: 3)
     2a0:	0000d508 	andeq	sp, r0, r8, lsl #10
     2a4:	02080400 	andeq	r0, r8, #0, 8
     2a8:	00009a09 	andeq	r9, r0, r9, lsl #20
     2ac:	000e0500 	andeq	r0, lr, r0, lsl #10
     2b0:	0a020000 	beq	802b8 <__bss_end__+0x76ab8>
     2b4:	00000025 	andeq	r0, r0, r5, lsr #32
     2b8:	00ec0500 	rsceq	r0, ip, r0, lsl #10
     2bc:	0a020000 	beq	802c4 <__bss_end__+0x76ac4>
     2c0:	00000025 	andeq	r0, r0, r5, lsr #32
     2c4:	15060004 	strne	r0, [r6, #-4]
     2c8:	02000001 	andeq	r0, r0, #1
     2cc:	0000790b 	andeq	r7, r0, fp, lsl #18
     2d0:	01f30700 	mvnseq	r0, r0, lsl #14
     2d4:	09010000 	stmdbeq	r1, {}	; <UNPREDICTABLE>
     2d8:	00000025 	andeq	r0, r0, r5, lsr #32
     2dc:	000080a0 	andeq	r8, r0, r0, lsr #1
     2e0:	0000004c 	andeq	r0, r0, ip, asr #32
     2e4:	01209c01 	teqeq	r0, r1, lsl #24
     2e8:	70080000 	andvc	r0, r8, r0
     2ec:	01006e69 	tsteq	r0, r9, ror #28
     2f0:	00002509 	andeq	r2, r0, r9, lsl #10
     2f4:	00003d00 	andeq	r3, r0, r0, lsl #26
     2f8:	00760800 	rsbseq	r0, r6, r0, lsl #16
     2fc:	00250901 	eoreq	r0, r5, r1, lsl #18
     300:	005b0000 	subseq	r0, fp, r0
     304:	da090000 	ble	24030c <__bss_end__+0x236b0c>
     308:	01000000 	mrseq	r0, (UNDEF: 0)
     30c:	00002c09 	andeq	r2, r0, r9, lsl #24
     310:	00007900 	andeq	r7, r0, r0, lsl #18
     314:	80b00a00 	adcshi	r0, r0, r0, lsl #20
     318:	00340000 	eorseq	r0, r4, r0
     31c:	8c0b0000 	stchi	0, cr0, [fp], {-0}
     320:	01000001 	tsteq	r0, r1
     324:	00002c0e 	andeq	r2, r0, lr, lsl #24
     328:	00009700 	andeq	r9, r0, r0, lsl #14
     32c:	80bc0c00 	adcshi	r0, ip, r0, lsl #24
     330:	02c10000 	sbceq	r0, r1, #0
     334:	01150000 	tsteq	r5, r0
     338:	010d0000 	mrseq	r0, (UNDEF: 13)
     33c:	00740250 	rsbseq	r0, r4, r0, asr r2
     340:	80c80e00 	sbchi	r0, r8, r0, lsl #28
     344:	02d60000 	sbcseq	r0, r6, #0
     348:	00000000 	andeq	r0, r0, r0
     34c:	00001607 	andeq	r1, r0, r7, lsl #12
     350:	9a250100 	bls	940758 <__bss_end__+0x936f58>
     354:	ec000000 	stc	0, cr0, [r0], {-0}
     358:	44000080 	strmi	r0, [r0], #-128	; 0x80
     35c:	01000000 	mrseq	r0, (UNDEF: 0)
     360:	0001b69c 	muleq	r1, ip, r6
     364:	000e0900 	andeq	r0, lr, r0, lsl #18
     368:	25010000 	strcs	r0, [r1, #-0]
     36c:	00000025 	andeq	r0, r0, r5, lsr #32
     370:	000000aa 	andeq	r0, r0, sl, lsr #1
     374:	0000ec09 	andeq	lr, r0, r9, lsl #24
     378:	25250100 	strcs	r0, [r5, #-256]!	; 0x100
     37c:	c8000000 	stmdagt	r0, {}	; <UNPREDICTABLE>
     380:	0f000000 	svceq	0x00000000
     384:	26010068 	strcs	r0, [r1], -r8, rrx
     388:	0000009a 	muleq	r0, sl, r0
     38c:	000000e6 	andeq	r0, r0, r6, ror #1
     390:	00810c0c 	addeq	r0, r1, ip, lsl #24
     394:	0002e100 	andeq	lr, r2, r0, lsl #2
     398:	00017800 	andeq	r7, r1, r0, lsl #16
     39c:	50010d00 	andpl	r0, r1, r0, lsl #26
     3a0:	00007602 	andeq	r7, r0, r2, lsl #12
     3a4:	0081180c 	addeq	r1, r1, ip, lsl #16
     3a8:	0002f200 	andeq	pc, r2, r0, lsl #4
     3ac:	00019100 	andeq	r9, r1, r0, lsl #2
     3b0:	51010d00 	tstpl	r1, r0, lsl #26
     3b4:	010d3001 	tsteq	sp, r1
     3b8:	00760250 	rsbseq	r0, r6, r0, asr r2
     3bc:	81200c00 	teqhi	r0, r0, lsl #24
     3c0:	03080000 	movweq	r0, #32768	; 0x8000
     3c4:	01a50000 			; <UNDEFINED> instruction: 0x01a50000
     3c8:	010d0000 	mrseq	r0, (UNDEF: 13)
     3cc:	00750250 	rsbseq	r0, r5, r0, asr r2
     3d0:	81281000 	teqhi	r8, r0
     3d4:	03190000 	tsteq	r9, #0
     3d8:	010d0000 	mrseq	r0, (UNDEF: 13)
     3dc:	00750250 	rsbseq	r0, r5, r0, asr r2
     3e0:	23070000 	movwcs	r0, #28672	; 0x7000
     3e4:	01000000 	mrseq	r0, (UNDEF: 0)
     3e8:	00002540 	andeq	r2, r0, r0, asr #10
     3ec:	00813000 	addeq	r3, r1, r0
     3f0:	0000ac00 	andeq	sl, r0, r0, lsl #24
     3f4:	aa9c0100 	bge	fe7007fc <__bss_end__+0xfe6f6ffc>
     3f8:	08000002 	stmdaeq	r0, {r1}
     3fc:	40010068 	andmi	r0, r1, r8, rrx
     400:	000002aa 	andeq	r0, r0, sl, lsr #5
     404:	00000106 	andeq	r0, r0, r6, lsl #2
     408:	00019c09 	andeq	r9, r1, r9, lsl #24
     40c:	2c400100 	stfcse	f0, [r0], {-0}
     410:	24000000 	strcs	r0, [r0], #-0
     414:	0b000001 	bleq	420 <_start-0x7be0>
     418:	00000235 	andeq	r0, r0, r5, lsr r2
     41c:	00254601 	eoreq	r4, r5, r1, lsl #12
     420:	01420000 	mrseq	r0, (UNDEF: 66)
     424:	d20b0000 	andle	r0, fp, #0
     428:	01000001 	tsteq	r0, r1
     42c:	0000254a 	andeq	r2, r0, sl, asr #10
     430:	00016000 	andeq	r6, r1, r0
     434:	01c20b00 	biceq	r0, r2, r0, lsl #22
     438:	4e010000 	cdpmi	0, 0, cr0, cr1, cr0, {0}
     43c:	00000025 	andeq	r0, r0, r5, lsr #32
     440:	0000017e 	andeq	r0, r0, lr, ror r1
     444:	0081480c 	addeq	r4, r1, ip, lsl #16
     448:	0002f200 	andeq	pc, r2, r0, lsl #4
     44c:	00022b00 	andeq	r2, r2, r0, lsl #22
     450:	51010d00 	tstpl	r1, r0, lsl #26
     454:	0c003101 	stfeqs	f3, [r0], {1}
     458:	00008150 	andeq	r8, r0, r0, asr r1
     45c:	0000032a 	andeq	r0, r0, sl, lsr #6
     460:	0000023e 	andeq	r0, r0, lr, lsr r2
     464:	0150010d 	cmpeq	r0, sp, lsl #2
     468:	5c0c003a 	stcpl	0, cr0, [ip], {58}	; 0x3a
     46c:	f2000081 	vhadd.s8	d0, d16, d1
     470:	51000002 	tstpl	r0, r2
     474:	0d000002 	stceq	0, cr0, [r0, #-8]
     478:	30015101 	andcc	r5, r1, r1, lsl #2
     47c:	81640c00 	cmnhi	r4, r0, lsl #24
     480:	032a0000 	teqeq	sl, #0
     484:	02650000 	rsbeq	r0, r5, #0
     488:	010d0000 	mrseq	r0, (UNDEF: 13)
     48c:	94080250 	strls	r0, [r8], #-592	; 0x250
     490:	81680e00 	cmnhi	r8, r0, lsl #28
     494:	02d60000 	sbcseq	r0, r6, #0
     498:	800c0000 	andhi	r0, ip, r0
     49c:	a5000081 	strge	r0, [r0, #-129]	; 0x81
     4a0:	87000000 	strhi	r0, [r0, -r0]
     4a4:	0d000002 	stceq	0, cr0, [r0, #-8]
     4a8:	75025201 	strvc	r5, [r2, #-513]	; 0x201
     4ac:	51010d00 	tstpl	r1, r0, lsl #26
     4b0:	0c003001 	stceq	0, cr3, [r0], {1}
     4b4:	00008198 	muleq	r0, r8, r1
     4b8:	000000a5 	andeq	r0, r0, r5, lsr #1
     4bc:	000002a0 	andeq	r0, r0, r0, lsr #5
     4c0:	0252010d 	subseq	r0, r2, #1073741827	; 0x40000003
     4c4:	010d0075 	tsteq	sp, r5, ror r0
     4c8:	00310151 	eorseq	r0, r1, r1, asr r1
     4cc:	0081a40e 	addeq	sl, r1, lr, lsl #8
     4d0:	0002d600 	andeq	sp, r2, r0, lsl #12
     4d4:	04110000 	ldreq	r0, [r1], #-0
     4d8:	0000009a 	muleq	r0, sl, r0
     4dc:	0004cc12 	andeq	ip, r4, r2, lsl ip
     4e0:	2c040100 	stfcss	f0, [r4], {-0}
     4e4:	05000000 	streq	r0, [r0, #-0]
     4e8:	0093f803 	addseq	pc, r3, r3, lsl #16
     4ec:	01a91300 			; <UNDEFINED> instruction: 0x01a91300
     4f0:	24030000 	strcs	r0, [r3], #-0
     4f4:	00000025 	andeq	r0, r0, r5, lsr #32
     4f8:	000002d6 	ldrdeq	r0, [r0], -r6
     4fc:	00002c14 	andeq	r2, r0, r4, lsl ip
     500:	1c150000 	ldcne	0, cr0, [r5], {-0}
     504:	04000002 	streq	r0, [r0], #-2
     508:	00002c55 	andeq	r2, r0, r5, asr ip
     50c:	01e31600 	mvneq	r1, r0, lsl #12
     510:	1d030000 	stcne	0, cr0, [r3, #-0]
     514:	000002f2 	strdeq	r0, [r0], -r2
     518:	00002c14 	andeq	r2, r0, r4, lsl ip
     51c:	91160000 	tstls	r6, r0
     520:	03000001 	movweq	r0, #1
     524:	00030821 	andeq	r0, r3, r1, lsr #16
     528:	002c1400 	eoreq	r1, ip, r0, lsl #8
     52c:	2c140000 	ldccs	0, cr0, [r4], {-0}
     530:	00000000 	andeq	r0, r0, r0
     534:	0001b316 	andeq	fp, r1, r6, lsl r3
     538:	191c0300 	ldmdbne	ip, {r8, r9}
     53c:	14000003 	strne	r0, [r0], #-3
     540:	0000002c 	andeq	r0, r0, ip, lsr #32
     544:	02011600 	andeq	r1, r1, #0, 12
     548:	32030000 	andcc	r0, r3, #0
     54c:	0000032a 	andeq	r0, r0, sl, lsr #6
     550:	00002c14 	andeq	r2, r0, r4, lsl ip
     554:	13170000 	tstne	r7, #0
     558:	04000002 	streq	r0, [r0], #-2
     55c:	002c144e 	eoreq	r1, ip, lr, asr #8
     560:	00000000 	andeq	r0, r0, r0
     564:	000003df 	ldrdeq	r0, [r0], -pc	; <UNPREDICTABLE>
     568:	02880004 	addeq	r0, r8, #4
     56c:	01040000 	mrseq	r0, (UNDEF: 4)
     570:	0000005c 	andeq	r0, r0, ip, asr r0
     574:	00025001 	andeq	r5, r2, r1
     578:	00027500 	andeq	r7, r2, r0, lsl #10
     57c:	0081dc00 	addeq	sp, r1, r0, lsl #24
     580:	0001a400 	andeq	sl, r1, r0, lsl #8
     584:	0001ba00 	andeq	fp, r1, r0, lsl #20
     588:	05040200 	streq	r0, [r4, #-512]	; 0x200
     58c:	00746e69 	rsbseq	r6, r4, r9, ror #28
     590:	42070403 	andmi	r0, r7, #50331648	; 0x3000000
     594:	03000000 	movweq	r0, #0
     598:	00ce0601 	sbceq	r0, lr, r1, lsl #12
     59c:	02030000 	andeq	r0, r3, #0
     5a0:	00017905 	andeq	r7, r1, r5, lsl #18
     5a4:	05040300 	streq	r0, [r4, #-768]	; 0x300
     5a8:	00000005 	andeq	r0, r0, r5
     5ac:	00050803 	andeq	r0, r5, r3, lsl #16
     5b0:	03000000 	movweq	r0, #0
     5b4:	00cc0801 	sbceq	r0, ip, r1, lsl #16
     5b8:	02030000 	andeq	r0, r3, #0
     5bc:	0000f907 	andeq	pc, r0, r7, lsl #18
     5c0:	07040300 	streq	r0, [r4, -r0, lsl #6]
     5c4:	0000003d 	andeq	r0, r0, sp, lsr r0
     5c8:	38070803 	stmdacc	r7, {r0, r1, fp}
     5cc:	03000000 	movweq	r0, #0
     5d0:	01830704 	orreq	r0, r3, r4, lsl #14
     5d4:	01030000 	mrseq	r0, (UNDEF: 3)
     5d8:	0000d508 	andeq	sp, r0, r8, lsl #10
     5dc:	025b0400 	subseq	r0, fp, #0, 8
     5e0:	09010000 	stmdbeq	r1, {}	; <UNPREDICTABLE>
     5e4:	000081dc 	ldrdeq	r8, [r0], -ip
     5e8:	0000008c 	andeq	r0, r0, ip, lsl #1
     5ec:	01779c01 	cmneq	r7, r1, lsl #24
     5f0:	70050000 	andvc	r0, r5, r0
     5f4:	01006e69 	tsteq	r0, r9, ror #28
     5f8:	00002c09 	andeq	r2, r0, r9, lsl #24
     5fc:	0001a000 	andeq	sl, r1, r0
     600:	02ec0600 	rsceq	r0, ip, #0, 12
     604:	0d010000 	stceq	0, cr0, [r1, #-0]
     608:	00000177 	andeq	r0, r0, r7, ror r1
     60c:	000001cc 	andeq	r0, r0, ip, asr #3
     610:	00024507 	andeq	r4, r2, r7, lsl #10
     614:	2c130100 	ldfcss	f0, [r3], {-0}
     618:	01000000 	mrseq	r0, (UNDEF: 0)
     61c:	81e80855 	mvnhi	r0, r5, asr r8
     620:	03b10000 			; <UNDEFINED> instruction: 0x03b10000
     624:	f8090000 			; <UNDEFINED> instruction: 0xf8090000
     628:	b8000081 	stmdalt	r0, {r0, r7}
     62c:	d5000003 	strle	r0, [r0, #-3]
     630:	0a000000 	beq	638 <_start-0x79c8>
     634:	32015101 	andcc	r5, r1, #1073741824	; 0x40000000
     638:	82000900 	andhi	r0, r0, #0, 18
     63c:	03d50000 	bicseq	r0, r5, #0
     640:	00e90000 	rsceq	r0, r9, r0
     644:	010a0000 	mrseq	r0, (UNDEF: 10)
     648:	96080250 			; <UNDEFINED> instruction: 0x96080250
     64c:	82280900 	eorhi	r0, r8, #0, 18
     650:	03b80000 			; <UNDEFINED> instruction: 0x03b80000
     654:	01050000 	mrseq	r0, (UNDEF: 5)
     658:	010a0000 	mrseq	r0, (UNDEF: 10)
     65c:	75310451 	ldrvc	r0, [r1, #-1105]!	; 0x451
     660:	010a2400 	tsteq	sl, r0, lsl #8
     664:	00740250 	rsbseq	r0, r4, r0, asr r2
     668:	82300900 	eorshi	r0, r0, #0, 18
     66c:	03d50000 	bicseq	r0, r5, #0
     670:	01190000 	tsteq	r9, r0
     674:	010a0000 	mrseq	r0, (UNDEF: 10)
     678:	96080250 			; <UNDEFINED> instruction: 0x96080250
     67c:	82400900 	subhi	r0, r0, #0, 18
     680:	03b80000 			; <UNDEFINED> instruction: 0x03b80000
     684:	012c0000 	teqeq	ip, r0
     688:	010a0000 	mrseq	r0, (UNDEF: 10)
     68c:	00300151 	eorseq	r0, r0, r1, asr r1
     690:	00824809 	addeq	r4, r2, r9, lsl #16
     694:	0003d500 	andeq	sp, r3, r0, lsl #10
     698:	00014000 	andeq	r4, r1, r0
     69c:	50010a00 	andpl	r0, r1, r0, lsl #20
     6a0:	00960802 	addseq	r0, r6, r2, lsl #16
     6a4:	00825409 	addeq	r5, r2, r9, lsl #8
     6a8:	0003b800 	andeq	fp, r3, r0, lsl #16
     6ac:	00015900 	andeq	r5, r1, r0, lsl #18
     6b0:	51010a00 	tstpl	r1, r0, lsl #20
     6b4:	010a3001 	tsteq	sl, r1
     6b8:	00740250 	rsbseq	r0, r4, r0, asr r2
     6bc:	825c0900 	subshi	r0, ip, #0, 18
     6c0:	03d50000 	bicseq	r0, r5, #0
     6c4:	016d0000 	cmneq	sp, r0
     6c8:	010a0000 	mrseq	r0, (UNDEF: 10)
     6cc:	96080250 			; <UNDEFINED> instruction: 0x96080250
     6d0:	82600800 	rsbhi	r0, r0, #0, 16
     6d4:	03b10000 			; <UNDEFINED> instruction: 0x03b10000
     6d8:	0b000000 	bleq	6e0 <_start-0x7920>
     6dc:	00017d04 	andeq	r7, r1, r4, lsl #26
     6e0:	002c0c00 	eoreq	r0, ip, r0, lsl #24
     6e4:	01040000 	mrseq	r0, (UNDEF: 4)
     6e8:	01000002 	tsteq	r0, r2
     6ec:	0082681c 	addeq	r6, r2, ip, lsl r8
     6f0:	00008c00 	andeq	r8, r0, r0, lsl #24
     6f4:	809c0100 	addshi	r0, ip, r0, lsl #2
     6f8:	05000002 	streq	r0, [r0, #-2]
     6fc:	006e6970 	rsbeq	r6, lr, r0, ror r9
     700:	002c1c01 	eoreq	r1, ip, r1, lsl #24
     704:	02020000 	andeq	r0, r2, #0
     708:	ec060000 	stc	0, cr0, [r6], {-0}
     70c:	01000002 	tsteq	r0, r2
     710:	00017720 	andeq	r7, r1, r0, lsr #14
     714:	00022e00 	andeq	r2, r2, r0, lsl #28
     718:	02450700 	subeq	r0, r5, #0, 14
     71c:	26010000 	strcs	r0, [r1], -r0
     720:	0000002c 	andeq	r0, r0, ip, lsr #32
     724:	74085501 	strvc	r5, [r8], #-1281	; 0x501
     728:	b1000082 	smlabblt	r0, r2, r0, r0
     72c:	09000003 	stmdbeq	r0, {r0, r1}
     730:	00008284 	andeq	r8, r0, r4, lsl #5
     734:	000003b8 			; <UNDEFINED> instruction: 0x000003b8
     738:	000001de 	ldrdeq	r0, [r0], -lr
     73c:	0151010a 	cmpeq	r1, sl, lsl #2
     740:	8c090031 	stchi	0, cr0, [r9], {49}	; 0x31
     744:	d5000082 	strle	r0, [r0, #-130]	; 0x82
     748:	f2000003 	vhadd.s8	d0, d0, d3
     74c:	0a000001 	beq	758 <_start-0x78a8>
     750:	08025001 	stmdaeq	r2, {r0, ip, lr}
     754:	b4090096 	strlt	r0, [r9], #-150	; 0x96
     758:	b8000082 	stmdalt	r0, {r1, r7}
     75c:	0e000003 	cdpeq	0, 0, cr0, cr0, cr3, {0}
     760:	0a000002 	beq	770 <_start-0x7890>
     764:	31045101 	tstcc	r4, r1, lsl #2
     768:	0a240075 	beq	900944 <__bss_end__+0x8f7144>
     76c:	74025001 	strvc	r5, [r2], #-1
     770:	bc090000 	stclt	0, cr0, [r9], {-0}
     774:	d5000082 	strle	r0, [r0, #-130]	; 0x82
     778:	22000003 	andcs	r0, r0, #3
     77c:	0a000002 	beq	78c <_start-0x7874>
     780:	08025001 	stmdaeq	r2, {r0, ip, lr}
     784:	cc090096 	stcgt	0, cr0, [r9], {150}	; 0x96
     788:	b8000082 	stmdalt	r0, {r1, r7}
     78c:	35000003 	strcc	r0, [r0, #-3]
     790:	0a000002 	beq	7a0 <_start-0x7860>
     794:	30015101 	andcc	r5, r1, r1, lsl #2
     798:	82d40900 	sbcshi	r0, r4, #0, 18
     79c:	03d50000 	bicseq	r0, r5, #0
     7a0:	02490000 	subeq	r0, r9, #0
     7a4:	010a0000 	mrseq	r0, (UNDEF: 10)
     7a8:	96080250 			; <UNDEFINED> instruction: 0x96080250
     7ac:	82e00900 	rschi	r0, r0, #0, 18
     7b0:	03b80000 			; <UNDEFINED> instruction: 0x03b80000
     7b4:	02620000 	rsbeq	r0, r2, #0
     7b8:	010a0000 	mrseq	r0, (UNDEF: 10)
     7bc:	0a300151 	beq	c00d08 <__bss_end__+0xbf7508>
     7c0:	74025001 	strvc	r5, [r2], #-1
     7c4:	e8090000 	stmda	r9, {}	; <UNPREDICTABLE>
     7c8:	d5000082 	strle	r0, [r0, #-130]	; 0x82
     7cc:	76000003 	strvc	r0, [r0], -r3
     7d0:	0a000002 	beq	7e0 <_start-0x7820>
     7d4:	08025001 	stmdaeq	r2, {r0, ip, lr}
     7d8:	ec080096 	stc	0, cr0, [r8], {150}	; 0x96
     7dc:	b1000082 	smlabblt	r0, r2, r0, r0
     7e0:	00000003 	andeq	r0, r0, r3
     7e4:	0002df04 	andeq	sp, r2, r4, lsl #30
     7e8:	f4310100 			; <UNDEFINED> instruction: 0xf4310100
     7ec:	8c000082 	stchi	0, cr0, [r0], {130}	; 0x82
     7f0:	01000000 	mrseq	r0, (UNDEF: 0)
     7f4:	00037e9c 	muleq	r3, ip, lr
     7f8:	69700500 	ldmdbvs	r0!, {r8, sl}^
     7fc:	3101006e 	tstcc	r1, lr, rrx
     800:	0000002c 	andeq	r0, r0, ip, lsr #32
     804:	00000264 	andeq	r0, r0, r4, ror #4
     808:	0002ec06 	andeq	lr, r2, r6, lsl #24
     80c:	77350100 	ldrvc	r0, [r5, -r0, lsl #2]!
     810:	90000001 	andls	r0, r0, r1
     814:	07000002 	streq	r0, [r0, -r2]
     818:	00000245 	andeq	r0, r0, r5, asr #4
     81c:	002c3b01 	eoreq	r3, ip, r1, lsl #22
     820:	55010000 	strpl	r0, [r1, #-0]
     824:	00830008 	addeq	r0, r3, r8
     828:	0003b100 	andeq	fp, r3, r0, lsl #2
     82c:	83100900 	tsthi	r0, #0, 18
     830:	03b80000 			; <UNDEFINED> instruction: 0x03b80000
     834:	02dc0000 	sbcseq	r0, ip, #0
     838:	010a0000 	mrseq	r0, (UNDEF: 10)
     83c:	00300151 	eorseq	r0, r0, r1, asr r1
     840:	00831809 	addeq	r1, r3, r9, lsl #16
     844:	0003d500 	andeq	sp, r3, r0, lsl #10
     848:	0002f000 	andeq	pc, r2, r0
     84c:	50010a00 	andpl	r0, r1, r0, lsl #20
     850:	00960802 	addseq	r0, r6, r2, lsl #16
     854:	00834009 	addeq	r4, r3, r9
     858:	0003b800 	andeq	fp, r3, r0, lsl #16
     85c:	00030c00 	andeq	r0, r3, r0, lsl #24
     860:	51010a00 	tstpl	r1, r0, lsl #20
     864:	00753104 	rsbseq	r3, r5, r4, lsl #2
     868:	50010a24 	andpl	r0, r1, r4, lsr #20
     86c:	00007402 	andeq	r7, r0, r2, lsl #8
     870:	00834809 	addeq	r4, r3, r9, lsl #16
     874:	0003d500 	andeq	sp, r3, r0, lsl #10
     878:	00032000 	andeq	r2, r3, r0
     87c:	50010a00 	andpl	r0, r1, r0, lsl #20
     880:	00960802 	addseq	r0, r6, r2, lsl #16
     884:	00835809 	addeq	r5, r3, r9, lsl #16
     888:	0003b800 	andeq	fp, r3, r0, lsl #16
     88c:	00033300 	andeq	r3, r3, r0, lsl #6
     890:	51010a00 	tstpl	r1, r0, lsl #20
     894:	09003001 	stmdbeq	r0, {r0, ip, sp}
     898:	00008360 	andeq	r8, r0, r0, ror #6
     89c:	000003d5 	ldrdeq	r0, [r0], -r5
     8a0:	00000347 	andeq	r0, r0, r7, asr #6
     8a4:	0250010a 	subseq	r0, r0, #-2147483646	; 0x80000002
     8a8:	09009608 	stmdbeq	r0, {r3, r9, sl, ip, pc}
     8ac:	0000836c 	andeq	r8, r0, ip, ror #6
     8b0:	000003b8 			; <UNDEFINED> instruction: 0x000003b8
     8b4:	00000360 	andeq	r0, r0, r0, ror #6
     8b8:	0151010a 	cmpeq	r1, sl, lsl #2
     8bc:	50010a30 	andpl	r0, r1, r0, lsr sl
     8c0:	00007402 	andeq	r7, r0, r2, lsl #8
     8c4:	00837409 	addeq	r7, r3, r9, lsl #8
     8c8:	0003d500 	andeq	sp, r3, r0, lsl #10
     8cc:	00037400 	andeq	r7, r3, r0, lsl #8
     8d0:	50010a00 	andpl	r0, r1, r0, lsl #20
     8d4:	00960802 	addseq	r0, r6, r2, lsl #16
     8d8:	00837808 	addeq	r7, r3, r8, lsl #16
     8dc:	0003b100 	andeq	fp, r3, r0, lsl #2
     8e0:	d90d0000 	stmdble	sp, {}	; <UNPREDICTABLE>
     8e4:	01000002 	tsteq	r0, r2
     8e8:	00017705 	andeq	r7, r1, r5, lsl #14
     8ec:	f0030500 			; <UNDEFINED> instruction: 0xf0030500
     8f0:	0d000091 	stceq	0, cr0, [r0, #-580]	; 0xfffffdbc
     8f4:	0000026b 	andeq	r0, r0, fp, ror #4
     8f8:	01770601 	cmneq	r7, r1, lsl #12
     8fc:	03050000 	movweq	r0, #20480	; 0x5000
     900:	000091f4 	strdeq	r9, [r0], -r4
     904:	0002c90d 	andeq	ip, r2, sp, lsl #18
     908:	77070100 	strvc	r0, [r7, -r0, lsl #2]
     90c:	05000001 	streq	r0, [r0, #-1]
     910:	0091f803 	addseq	pc, r1, r3, lsl #16
     914:	02bd0e00 	adcseq	r0, sp, #0, 28
     918:	8a020000 	bhi	80920 <__bss_end__+0x77120>
     91c:	0002d30f 	andeq	sp, r2, pc, lsl #6
     920:	ce9d0200 	cdpgt	2, 9, cr0, cr13, cr0, {0}
     924:	10000003 	andne	r0, r0, r3
     928:	000003ce 	andeq	r0, r0, lr, asr #7
     92c:	00002c10 	andeq	r2, r0, r0, lsl ip
     930:	040b0000 	streq	r0, [fp], #-0
     934:	000003d4 	ldrdeq	r0, [r0], -r4
     938:	02131211 	andseq	r1, r3, #268435457	; 0x10000001
     93c:	4e020000 	cdpmi	0, 0, cr0, cr2, cr0, {0}
     940:	00002c10 	andeq	r2, r0, r0, lsl ip
     944:	91000000 	mrsls	r0, (UNDEF: 0)
     948:	04000001 	streq	r0, [r0], #-1
     94c:	00037f00 	andeq	r7, r3, r0, lsl #30
     950:	15010400 	strne	r0, [r1, #-1024]	; 0x400
     954:	01000003 	tsteq	r0, r3
     958:	00000307 	andeq	r0, r0, r7, lsl #6
     95c:	00000380 	andeq	r0, r0, r0, lsl #7
     960:	00008380 	andeq	r8, r0, r0, lsl #7
     964:	00000058 	andeq	r0, r0, r8, asr r0
     968:	0000026b 	andeq	r0, r0, fp, ror #4
     96c:	0002f802 	andeq	pc, r2, r2, lsl #16
     970:	30280200 	eorcc	r0, r8, r0, lsl #4
     974:	03000000 	movweq	r0, #0
     978:	00000376 	andeq	r0, r0, r6, ror r3
     97c:	47000304 	strmi	r0, [r0, -r4, lsl #6]
     980:	04000000 	streq	r0, [r0], #-0
     984:	000003c9 	andeq	r0, r0, r9, asr #7
     988:	00000047 	andeq	r0, r0, r7, asr #32
     98c:	04050000 	streq	r0, [r5], #-0
     990:	00037802 	andeq	r7, r3, r2, lsl #16
     994:	25620200 	strbcs	r0, [r2, #-512]!	; 0x200
     998:	06000000 	streq	r0, [r0], -r0
     99c:	6e690504 	cdpvs	5, 6, cr0, cr9, cr4, {0}
     9a0:	04070074 	streq	r0, [r7], #-116	; 0x74
     9a4:	00004207 	andeq	r4, r0, r7, lsl #4
     9a8:	06010700 	streq	r0, [r1], -r0, lsl #14
     9ac:	000000ce 	andeq	r0, r0, lr, asr #1
     9b0:	79050207 	stmdbvc	r5, {r0, r1, r2, r9}
     9b4:	07000001 	streq	r0, [r0, -r1]
     9b8:	00050504 	andeq	r0, r5, r4, lsl #10
     9bc:	08070000 	stmdaeq	r7, {}	; <UNPREDICTABLE>
     9c0:	00000005 	andeq	r0, r0, r5
     9c4:	08010700 	stmdaeq	r1, {r8, r9, sl}
     9c8:	000000cc 	andeq	r0, r0, ip, asr #1
     9cc:	f9070207 			; <UNDEFINED> instruction: 0xf9070207
     9d0:	07000000 	streq	r0, [r0, -r0]
     9d4:	003d0704 	eorseq	r0, sp, r4, lsl #14
     9d8:	08070000 	stmdaeq	r7, {}	; <UNPREDICTABLE>
     9dc:	00003807 	andeq	r3, r0, r7, lsl #16
     9e0:	07040700 	streq	r0, [r4, -r0, lsl #14]
     9e4:	00000183 	andeq	r0, r0, r3, lsl #3
     9e8:	00a70408 	adceq	r0, r7, r8, lsl #8
     9ec:	01070000 	mrseq	r0, (UNDEF: 7)
     9f0:	0000d508 	andeq	sp, r0, r8, lsl #10
     9f4:	b4040800 	strlt	r0, [r4], #-2048	; 0x800
     9f8:	09000000 	stmdbeq	r0, {}	; <UNPREDICTABLE>
     9fc:	000000a7 	andeq	r0, r0, r7, lsr #1
     a00:	00036f0a 	andeq	r6, r3, sl, lsl #30
     a04:	54060100 	strpl	r0, [r6], #-256	; 0x100
     a08:	80000000 	andhi	r0, r0, r0
     a0c:	58000083 	stmdapl	r0, {r0, r1, r7}
     a10:	01000000 	mrseq	r0, (UNDEF: 0)
     a14:	0001439c 	muleq	r1, ip, r3
     a18:	6d660b00 	vstmdbvs	r6!, {d16-d15}
     a1c:	06010074 			; <UNDEFINED> instruction: 0x06010074
     a20:	000000ae 	andeq	r0, r0, lr, lsr #1
     a24:	0c709102 	ldfeqp	f1, [r0], #-8
     a28:	6675620d 	ldrbtvs	r6, [r5], -sp, lsl #4
     a2c:	43080100 	movwmi	r0, #33024	; 0x8100
     a30:	05000001 	streq	r0, [r0, #-1]
     a34:	0093fc03 	addseq	pc, r3, r3, lsl #24
     a38:	03c40e00 	biceq	r0, r4, #0, 28
     a3c:	09010000 	stmdbeq	r1, {}	; <UNPREDICTABLE>
     a40:	00000049 	andeq	r0, r0, r9, asr #32
     a44:	0f5c9102 	svceq	0x005c9102
     a48:	01007a73 	tsteq	r0, r3, ror sl
     a4c:	0000540c 	andeq	r5, r0, ip, lsl #8
     a50:	0002c600 	andeq	ip, r2, r0, lsl #12
     a54:	83a81000 			; <UNDEFINED> instruction: 0x83a81000
     a58:	01740000 	cmneq	r4, r0
     a5c:	01360000 	teqeq	r6, r0
     a60:	01110000 	tsteq	r1, r0
     a64:	4c910253 	lfmmi	f0, 4, [r1], {83}	; 0x53
     a68:	03520111 	cmpeq	r2, #1073741828	; 0x40000004
     a6c:	11064891 			; <UNDEFINED> instruction: 0x11064891
     a70:	0a035101 	beq	d4e7c <__bss_end__+0xcb67c>
     a74:	01110400 	tsteq	r1, r0, lsl #8
     a78:	00740250 	rsbseq	r0, r4, r0, asr r2
     a7c:	83bc1200 			; <UNDEFINED> instruction: 0x83bc1200
     a80:	01110000 	tsteq	r1, r0
     a84:	00740250 	rsbseq	r0, r4, r0, asr r2
     a88:	a7130000 	ldrge	r0, [r3, -r0]
     a8c:	54000000 	strpl	r0, [r0], #-0
     a90:	14000001 	strne	r0, [r0], #-1
     a94:	0000009a 	muleq	r0, sl, r0
     a98:	150003ff 	strne	r0, [r0, #-1023]	; 0x3ff
     a9c:	00000054 	andeq	r0, r0, r4, asr r0
     aa0:	00000163 	andeq	r0, r0, r3, ror #2
     aa4:	0000ae16 	andeq	sl, r0, r6, lsl lr
     aa8:	e3170000 	tst	r7, #0
     aac:	04000003 	streq	r0, [r0], #-3
     ab0:	00016e22 	andeq	r6, r1, r2, lsr #28
     ab4:	54040800 	strpl	r0, [r4], #-2048	; 0x800
     ab8:	18000001 	stmdane	r0, {r0}
     abc:	0000036c 	andeq	r0, r0, ip, ror #6
     ac0:	00540205 	subseq	r0, r4, r5, lsl #4
     ac4:	a1160000 	tstge	r6, r0
     ac8:	16000000 	strne	r0, [r0], -r0
     acc:	00000054 	andeq	r0, r0, r4, asr r0
     ad0:	0000ae16 	andeq	sl, r0, r6, lsl lr
     ad4:	00491600 	subeq	r1, r9, r0, lsl #12
     ad8:	00000000 	andeq	r0, r0, r0
     adc:	000000ee 	andeq	r0, r0, lr, ror #1
     ae0:	04b00004 	ldrteq	r0, [r0], #4
     ae4:	01040000 	mrseq	r0, (UNDEF: 4)
     ae8:	00000315 	andeq	r0, r0, r5, lsl r3
     aec:	0003ce01 	andeq	ip, r3, r1, lsl #28
     af0:	00038000 	andeq	r8, r3, r0
     af4:	0083d800 	addeq	sp, r3, r0, lsl #16
     af8:	00003400 	andeq	r3, r0, r0, lsl #8
     afc:	00037100 	andeq	r7, r3, r0, lsl #2
     b00:	05040200 	streq	r0, [r4, #-512]	; 0x200
     b04:	00746e69 	rsbseq	r6, r4, r9, ror #28
     b08:	42070403 	andmi	r0, r7, #50331648	; 0x3000000
     b0c:	03000000 	movweq	r0, #0
     b10:	00ce0601 	sbceq	r0, lr, r1, lsl #12
     b14:	02030000 	andeq	r0, r3, #0
     b18:	00017905 	andeq	r7, r1, r5, lsl #18
     b1c:	05040300 	streq	r0, [r4, #-768]	; 0x300
     b20:	00000005 	andeq	r0, r0, r5
     b24:	00050803 	andeq	r0, r5, r3, lsl #16
     b28:	03000000 	movweq	r0, #0
     b2c:	00cc0801 	sbceq	r0, ip, r1, lsl #16
     b30:	02030000 	andeq	r0, r3, #0
     b34:	0000f907 	andeq	pc, r0, r7, lsl #18
     b38:	07040300 	streq	r0, [r4, -r0, lsl #6]
     b3c:	0000003d 	andeq	r0, r0, sp, lsr r0
     b40:	38070803 	stmdacc	r7, {r0, r1, fp}
     b44:	03000000 	movweq	r0, #0
     b48:	01830704 	orreq	r0, r3, r4, lsl #14
     b4c:	01030000 	mrseq	r0, (UNDEF: 3)
     b50:	0000d508 	andeq	sp, r0, r8, lsl #10
     b54:	7f040400 	svcvc	0x00040400
     b58:	05000000 	streq	r0, [r0, #-0]
     b5c:	00000072 	andeq	r0, r0, r2, ror r0
     b60:	0003da06 	andeq	sp, r3, r6, lsl #20
     b64:	25040100 	strcs	r0, [r4, #-256]	; 0x100
     b68:	d8000000 	stmdale	r0, {}	; <UNPREDICTABLE>
     b6c:	34000083 	strcc	r0, [r0], #-131	; 0x83
     b70:	01000000 	mrseq	r0, (UNDEF: 0)
     b74:	0000ab9c 	muleq	r0, ip, fp
     b78:	00700700 	rsbseq	r0, r0, r0, lsl #14
     b7c:	00790401 	rsbseq	r0, r9, r1, lsl #8
     b80:	02ef0000 	rsceq	r0, pc, #0
     b84:	08000000 	stmdaeq	r0, {}	; <UNPREDICTABLE>
     b88:	00000025 	andeq	r0, r0, r5, lsr #32
     b8c:	000000ba 	strheq	r0, [r0], -sl
     b90:	00002509 	andeq	r2, r0, r9, lsl #10
     b94:	e80a0000 	stmda	sl, {}	; <UNPREDICTABLE>
     b98:	02000003 	andeq	r0, r0, #3
     b9c:	0000c51d 	andeq	ip, r0, sp, lsl r5
     ba0:	ab040400 	blge	101ba8 <__bss_end__+0xf83a8>
     ba4:	08000000 	stmdaeq	r0, {}	; <UNPREDICTABLE>
     ba8:	00000025 	andeq	r0, r0, r5, lsr #32
     bac:	000000da 	ldrdeq	r0, [r0], -sl
     bb0:	00007909 	andeq	r7, r0, r9, lsl #18
     bb4:	e30b0000 	movw	r0, #45056	; 0xb000
     bb8:	01000003 	tsteq	r0, r3
     bbc:	0000eb0c 	andeq	lr, r0, ip, lsl #22
     bc0:	fc030500 	stc2	5, cr0, [r3], {-0}
     bc4:	04000091 	streq	r0, [r0], #-145	; 0x91
     bc8:	0000cb04 	andeq	ip, r0, r4, lsl #22
     bcc:	06810000 	streq	r0, [r1], r0
     bd0:	00040000 	andeq	r0, r4, r0
     bd4:	00000549 	andeq	r0, r0, r9, asr #10
     bd8:	03150104 	tsteq	r5, #4, 2
     bdc:	2d010000 	stccs	0, cr0, [r1, #-0]
     be0:	80000004 	andhi	r0, r0, r4
     be4:	0c000003 	stceq	0, cr0, [r0], {3}
     be8:	f8000084 			; <UNDEFINED> instruction: 0xf8000084
     bec:	0b000004 	bleq	c04 <_start-0x73fc>
     bf0:	02000004 	andeq	r0, r0, #4
     bf4:	6e690504 	cdpvs	5, 6, cr0, cr9, cr4, {0}
     bf8:	04030074 	streq	r0, [r3], #-116	; 0x74
     bfc:	00004207 	andeq	r4, r0, r7, lsl #4
     c00:	06010300 	streq	r0, [r1], -r0, lsl #6
     c04:	000000ce 	andeq	r0, r0, lr, asr #1
     c08:	79050203 	stmdbvc	r5, {r0, r1, r9}
     c0c:	03000001 	movweq	r0, #1
     c10:	00050504 	andeq	r0, r5, r4, lsl #10
     c14:	08030000 	stmdaeq	r3, {}	; <UNPREDICTABLE>
     c18:	00000005 	andeq	r0, r0, r5
     c1c:	08010300 	stmdaeq	r1, {r8, r9}
     c20:	000000cc 	andeq	r0, r0, ip, asr #1
     c24:	f9070203 			; <UNDEFINED> instruction: 0xf9070203
     c28:	03000000 	movweq	r0, #0
     c2c:	003d0704 	eorseq	r0, sp, r4, lsl #14
     c30:	08030000 	stmdaeq	r3, {}	; <UNPREDICTABLE>
     c34:	00003807 	andeq	r3, r0, r7, lsl #16
     c38:	07040300 	streq	r0, [r4, -r0, lsl #6]
     c3c:	00000183 	andeq	r0, r0, r3, lsl #3
     c40:	04050404 	streq	r0, [r5], #-1028	; 0x404
     c44:	0000007a 	andeq	r0, r0, sl, ror r0
     c48:	d5080103 	strle	r0, [r8, #-259]	; 0x103
     c4c:	05000000 	streq	r0, [r0, #-0]
     c50:	00008704 	andeq	r8, r0, r4, lsl #14
     c54:	007a0600 	rsbseq	r0, sl, r0, lsl #12
     c58:	f8070000 			; <UNDEFINED> instruction: 0xf8070000
     c5c:	02000002 	andeq	r0, r0, #2
     c60:	00009728 	andeq	r9, r0, r8, lsr #14
     c64:	03760800 	cmneq	r6, #0, 16
     c68:	04040000 	streq	r0, [r4], #-0
     c6c:	0000ae00 	andeq	sl, r0, r0, lsl #28
     c70:	03c90900 	biceq	r0, r9, #0, 18
     c74:	00720000 	rsbseq	r0, r2, r0
     c78:	00000000 	andeq	r0, r0, r0
     c7c:	00037807 	andeq	r7, r3, r7, lsl #16
     c80:	8c620200 	sfmhi	f0, 2, [r2], #-0
     c84:	0a000000 	beq	c8c <_start-0x7374>
     c88:	00000402 	andeq	r0, r0, r2, lsl #8
     c8c:	00252701 	eoreq	r2, r5, r1, lsl #14
     c90:	840c0000 	strhi	r0, [ip], #-0
     c94:	00140000 	andseq	r0, r4, r0
     c98:	9c010000 	stcls	0, cr0, [r1], {-0}
     c9c:	000000e0 	andeq	r0, r0, r0, ror #1
     ca0:	0100630b 	tsteq	r0, fp, lsl #6
     ca4:	00002527 	andeq	r2, r0, r7, lsr #10
     ca8:	00030d00 	andeq	r0, r3, r0, lsl #26
     cac:	700c0000 	andvc	r0, ip, r0
     cb0:	01006461 	tsteq	r0, r1, ror #8
     cb4:	0000742e 	andeq	r7, r0, lr, lsr #8
     cb8:	00842000 	addeq	r2, r4, r0
     cbc:	00002c00 	andeq	r2, r0, r0, lsl #24
     cc0:	309c0100 	addscc	r0, ip, r0, lsl #2
     cc4:	0b000001 	bleq	cd0 <_start-0x7330>
     cc8:	2e010070 	mcrcs	0, 0, r0, cr1, cr0, {3}
     ccc:	00000074 	andeq	r0, r0, r4, ror r0
     cd0:	0000033b 	andeq	r0, r0, fp, lsr r3
     cd4:	00041f0d 	andeq	r1, r4, sp, lsl #30
     cd8:	742e0100 	strtvc	r0, [lr], #-256	; 0x100
     cdc:	66000000 	strvs	r0, [r0], -r0
     ce0:	0e000003 	cdpeq	0, 0, cr0, cr0, cr3, {0}
     ce4:	0000044d 	andeq	r0, r0, sp, asr #8
     ce8:	00252e01 	eoreq	r2, r5, r1, lsl #28
     cec:	52010000 	andpl	r0, r1, #0
     cf0:	6e656c0f 	cdpvs	12, 6, cr6, cr5, cr15, {0}
     cf4:	252f0100 	strcs	r0, [pc, #-256]!	; bfc <_start-0x7404>
     cf8:	01000000 	mrseq	r0, (UNDEF: 0)
     cfc:	fa0a0051 	blx	280e48 <__bss_end__+0x277648>
     d00:	01000003 	tsteq	r0, r3
     d04:	00007437 	andeq	r7, r0, r7, lsr r4
     d08:	00844c00 	addeq	r4, r4, r0, lsl #24
     d0c:	00004000 	andeq	r4, r0, r0
     d10:	9c9c0100 	ldflss	f0, [ip], {0}
     d14:	0b000001 	bleq	d20 <_start-0x72e0>
     d18:	00747364 	rsbseq	r7, r4, r4, ror #6
     d1c:	00743701 	rsbseq	r3, r4, r1, lsl #14
     d20:	03870000 	orreq	r0, r7, #0
     d24:	6e0b0000 	cdpvs	0, 0, cr0, cr11, cr0, {0}
     d28:	25370100 	ldrcs	r0, [r7, #-256]!	; 0x100
     d2c:	bf000000 	svclt	0x00000000
     d30:	0b000003 	bleq	d44 <_start-0x72bc>
     d34:	37010070 	smlsdxcc	r1, r0, r0, r0
     d38:	00000074 	andeq	r0, r0, r4, ror r0
     d3c:	000003e0 	andeq	r0, r0, r0, ror #7
     d40:	0004cc0d 	andeq	ip, r4, sp, lsl #24
     d44:	74370100 	ldrtvc	r0, [r7], #-256	; 0x100
     d48:	16000000 	strne	r0, [r0], -r0
     d4c:	10000004 	andne	r0, r0, r4
     d50:	006e656c 	rsbeq	r6, lr, ip, ror #10
     d54:	00253901 	eoreq	r3, r5, r1, lsl #18
     d58:	04340000 	ldrteq	r0, [r4], #-0
     d5c:	730f0000 	movwvc	r0, #61440	; 0xf000
     d60:	743d0100 	ldrtvc	r0, [sp], #-256	; 0x100
     d64:	01000000 	mrseq	r0, (UNDEF: 0)
     d68:	6a0a0050 	bvs	280eb0 <__bss_end__+0x2776b0>
     d6c:	01000004 	tsteq	r0, r4
     d70:	00007447 	andeq	r7, r0, r7, asr #8
     d74:	00848c00 	addeq	r8, r4, r0, lsl #24
     d78:	00019c00 	andeq	r9, r1, r0, lsl #24
     d7c:	d39c0100 	orrsle	r0, ip, #0, 2
     d80:	0d000002 	stceq	0, cr0, [r0, #-8]
     d84:	0000041f 	andeq	r0, r0, pc, lsl r4
     d88:	002c4701 	eoreq	r4, ip, r1, lsl #14
     d8c:	045b0000 	ldrbeq	r0, [fp], #-0
     d90:	640b0000 	strvs	r0, [fp], #-0
     d94:	01007473 	tsteq	r0, r3, ror r4
     d98:	00007447 	andeq	r7, r0, r7, asr #8
     d9c:	00048900 	andeq	r8, r4, r0, lsl #18
     da0:	006e0b00 	rsbeq	r0, lr, r0, lsl #22
     da4:	00254701 	eoreq	r4, r5, r1, lsl #14
     da8:	04f70000 	ldrbteq	r0, [r7], #0
     dac:	760b0000 	strvc	r0, [fp], -r0
     db0:	01006c61 	tsteq	r0, r1, ror #24
     db4:	00002547 	andeq	r2, r0, r7, asr #10
     db8:	00052300 	andeq	r2, r5, r0, lsl #6
     dbc:	044d0d00 	strbeq	r0, [sp], #-3328	; 0xd00
     dc0:	47010000 	strmi	r0, [r1, -r0]
     dc4:	00000025 	andeq	r0, r0, r5, lsr #32
     dc8:	000005a2 	andeq	r0, r0, r2, lsr #11
     dcc:	0004240e 	andeq	r2, r4, lr, lsl #8
     dd0:	25470100 	strbcs	r0, [r7, #-256]	; 0x100
     dd4:	02000000 	andeq	r0, r0, #0
     dd8:	620f0491 	andvs	r0, pc, #-1862270976	; 0x91000000
     ddc:	01006675 	tsteq	r0, r5, ror r6
     de0:	0002d34c 	andeq	sp, r2, ip, asr #6
     de4:	a8910300 	ldmge	r1, {r8, r9}
     de8:	0070107f 	rsbseq	r1, r0, pc, ror r0
     dec:	00744c01 	rsbseq	r4, r4, r1, lsl #24
     df0:	05cc0000 	strbeq	r0, [ip]
     df4:	75100000 	ldrvc	r0, [r0, #-0]
     df8:	2c4d0100 	stfcse	f0, [sp], {-0}
     dfc:	71000000 	mrsvc	r0, (UNDEF: 0)
     e00:	11000006 	tstne	r0, r6
     e04:	0000040a 	andeq	r0, r0, sl, lsl #8
     e08:	000002f3 	strdeq	r0, [r0], -r3
     e0c:	92e80305 	rscls	r0, r8, #335544320	; 0x14000000
     e10:	f8120000 			; <UNDEFINED> instruction: 0xf8120000
     e14:	74000084 	strvc	r0, [r0], #-132	; 0x84
     e18:	61000000 	mrsvs	r0, (UNDEF: 0)
     e1c:	13000002 	movwne	r0, #2
     e20:	000003f4 	strdeq	r0, [r0], -r4
     e24:	002c5201 	eoreq	r5, ip, r1, lsl #4
     e28:	07760000 	ldrbeq	r0, [r6, -r0]!
     e2c:	14000000 	strne	r0, [r0], #-0
     e30:	000085cc 	andeq	r8, r0, ip, asr #11
     e34:	00000660 	andeq	r0, r0, r0, ror #12
     e38:	0085e015 	addeq	lr, r5, r5, lsl r0
     e3c:	00066700 	andeq	r6, r6, r0, lsl #14
     e40:	00029900 	andeq	r9, r2, r0, lsl #18
     e44:	53011600 	movwpl	r1, #5632	; 0x1600
     e48:	16750802 	ldrbtne	r0, [r5], -r2, lsl #16
     e4c:	03055201 	movweq	r5, #20993	; 0x5201
     e50:	000092e8 	andeq	r9, r0, r8, ror #5
     e54:	05510116 	ldrbeq	r0, [r1, #-278]	; 0x116
     e58:	00932003 	addseq	r2, r3, r3
     e5c:	50011600 	andpl	r1, r1, r0, lsl #12
     e60:	930c0305 	movwls	r0, #49925	; 0xc305
     e64:	14000000 	strne	r0, [r0], #-0
     e68:	000085e4 	andeq	r8, r0, r4, ror #11
     e6c:	0000067d 	andeq	r0, r0, sp, ror r6
     e70:	0085f015 	addeq	pc, r5, r5, lsl r0	; <UNPREDICTABLE>
     e74:	0000e000 	andeq	lr, r0, r0
     e78:	0002b600 	andeq	fp, r2, r0, lsl #12
     e7c:	51011600 	tstpl	r1, r0, lsl #12
     e80:	00007d02 	andeq	r7, r0, r2, lsl #26
     e84:	00860417 	addeq	r0, r6, r7, lsl r4
     e88:	00013000 	andeq	r3, r1, r0
     e8c:	53011600 	movwpl	r1, #5632	; 0x1600
     e90:	16007d02 	strne	r7, [r0], -r2, lsl #26
     e94:	74025101 	strvc	r5, [r2], #-257	; 0x101
     e98:	50011600 	andpl	r1, r1, r0, lsl #12
     e9c:	00007502 	andeq	r7, r0, r2, lsl #10
     ea0:	007a1800 	rsbseq	r1, sl, r0, lsl #16
     ea4:	02e30000 	rsceq	r0, r3, #0
     ea8:	6b190000 	blvs	640eb0 <__bss_end__+0x6376b0>
     eac:	3f000000 	svccc	0x00000000
     eb0:	007a1800 	rsbseq	r1, sl, r0, lsl #16
     eb4:	02f30000 	rscseq	r0, r3, #0
     eb8:	6b190000 	blvs	640ec0 <__bss_end__+0x6376c0>
     ebc:	04000000 	streq	r0, [r0], #-0
     ec0:	02e30600 	rsceq	r0, r3, #0, 12
     ec4:	3e1a0000 	cdpcc	0, 1, cr0, cr10, cr0, {0}
     ec8:	01000004 	tsteq	r0, r4
     ecc:	0086281f 	addeq	r2, r6, pc, lsl r8
     ed0:	00005400 	andeq	r5, r0, r0, lsl #8
     ed4:	7c9c0100 	ldfvcs	f0, [ip], {0}
     ed8:	0d000003 	stceq	0, cr0, [r0, #-12]
     edc:	00000453 	andeq	r0, r0, r3, asr r4
     ee0:	038b1f01 	orreq	r1, fp, #1, 30
     ee4:	07a20000 	streq	r0, [r2, r0]!
     ee8:	170d0000 	strne	r0, [sp, -r0]
     eec:	01000004 	tsteq	r0, r4
     ef0:	0003a01f 	andeq	sl, r3, pc, lsl r0
     ef4:	0007ce00 	andeq	ip, r7, r0, lsl #28
     ef8:	040a1100 	streq	r1, [sl], #-256	; 0x100
     efc:	03b60000 			; <UNDEFINED> instruction: 0x03b60000
     f00:	03050000 	movweq	r0, #20480	; 0x5000
     f04:	000092f0 	strdeq	r9, [r0], -r0
     f08:	00863814 	addeq	r3, r6, r4, lsl r8
     f0c:	00066000 	andeq	r6, r6, r0
     f10:	864c1500 	strbhi	r1, [ip], -r0, lsl #10
     f14:	06670000 	strbteq	r0, [r7], -r0
     f18:	03720000 	cmneq	r2, #0
     f1c:	01160000 	tsteq	r6, r0
     f20:	20080253 	andcs	r0, r8, r3, asr r2
     f24:	05520116 	ldrbeq	r0, [r2, #-278]	; 0x116
     f28:	0092f003 	addseq	pc, r2, r3
     f2c:	51011600 	tstpl	r1, r0, lsl #12
     f30:	93200305 	teqls	r0, #335544320	; 0x14000000
     f34:	01160000 	tsteq	r6, r0
     f38:	58030550 	stmdapl	r3, {r4, r6, r8, sl}
     f3c:	00000093 	muleq	r0, r3, r0
     f40:	00865014 	addeq	r5, r6, r4, lsl r0
     f44:	00067d00 	andeq	r7, r6, r0, lsl #26
     f48:	251b0000 	ldrcs	r0, [fp, #-0]
     f4c:	8b000000 	blhi	f54 <_start-0x70ac>
     f50:	1c000003 	stcne	0, cr0, [r0], {3}
     f54:	00000025 	andeq	r0, r0, r5, lsr #32
     f58:	7c040500 	cfstr32vc	mvfx0, [r4], {-0}
     f5c:	1b000003 	blne	f70 <_start-0x7090>
     f60:	00000025 	andeq	r0, r0, r5, lsr #32
     f64:	000003a0 	andeq	r0, r0, r0, lsr #7
     f68:	0000811c 	andeq	r8, r0, ip, lsl r1
     f6c:	04050000 	streq	r0, [r5], #-0
     f70:	00000391 	muleq	r0, r1, r3
     f74:	00007a18 	andeq	r7, r0, r8, lsl sl
     f78:	0003b600 	andeq	fp, r3, r0, lsl #12
     f7c:	006b1900 	rsbeq	r1, fp, r0, lsl #18
     f80:	000e0000 	andeq	r0, lr, r0
     f84:	0003a606 	andeq	sl, r3, r6, lsl #12
     f88:	036c1d00 	cmneq	ip, #0, 26
     f8c:	7d010000 	stcvc	0, cr0, [r1, #-0]
     f90:	00000025 	andeq	r0, r0, r5, lsr #32
     f94:	0000867c 	andeq	r8, r0, ip, ror r6
     f98:	00000288 	andeq	r0, r0, r8, lsl #5
     f9c:	06259c01 	strteq	r9, [r5], -r1, lsl #24
     fa0:	620b0000 	andvs	r0, fp, #0
     fa4:	01006675 	tsteq	r0, r5, ror r6
     fa8:	0000747d 	andeq	r7, r0, sp, ror r4
     fac:	0007fa00 	andeq	pc, r7, r0, lsl #20
     fb0:	006e0b00 	rsbeq	r0, lr, r0, lsl #22
     fb4:	00257d01 	eoreq	r7, r5, r1, lsl #26
     fb8:	08260000 	stmdaeq	r6!, {}	; <UNPREDICTABLE>
     fbc:	660b0000 	strvs	r0, [fp], -r0
     fc0:	0100746d 	tsteq	r0, sp, ror #8
     fc4:	0000817d 	andeq	r8, r0, sp, ror r1
     fc8:	00085400 	andeq	r5, r8, r0, lsl #8
     fcc:	03c40d00 	biceq	r0, r4, #0, 26
     fd0:	7d010000 	stcvc	0, cr0, [r1, #-0]
     fd4:	000000ae 	andeq	r0, r0, lr, lsr #1
     fd8:	00000888 	andeq	r0, r0, r8, lsl #17
     fdc:	01007010 	tsteq	r0, r0, lsl r0
     fe0:	0000747e 	andeq	r7, r0, lr, ror r4
     fe4:	00089b00 	andeq	r9, r8, r0, lsl #22
     fe8:	00651000 	rsbeq	r1, r5, r0
     fec:	00747e01 	rsbseq	r7, r4, r1, lsl #28
     ff0:	09190000 	ldmdbeq	r9, {}	; <UNPREDICTABLE>
     ff4:	0a110000 	beq	440ffc <__bss_end__+0x4377fc>
     ff8:	35000004 	strcc	r0, [r0, #-4]
     ffc:	05000006 	streq	r0, [r0, #-6]
    1000:	00930003 	addseq	r0, r3, r3
    1004:	00001e00 	andeq	r1, r0, r0, lsl #28
    1008:	73100000 	tstvc	r0, #0
    100c:	748b0100 	strvc	r0, [fp], #256	; 0x100
    1010:	40000000 	andmi	r0, r0, r0
    1014:	0f000009 	svceq	0x00000009
    1018:	006d756e 	rsbeq	r7, sp, lr, ror #10
    101c:	063a8b01 	ldrteq	r8, [sl], -r1, lsl #22
    1020:	91030000 	mrsls	r0, (UNDEF: 3)
    1024:	4d137ed8 	ldcmi	14, cr7, [r3, #-864]	; 0xfffffca0
    1028:	01000004 	tsteq	r0, r4
    102c:	00002c8c 	andeq	r2, r0, ip, lsl #25
    1030:	00099500 	andeq	r9, r9, r0, lsl #10
    1034:	87001500 	strhi	r1, [r0, -r0, lsl #10]
    1038:	00b90000 	adcseq	r0, r9, r0
    103c:	047b0000 	ldrbteq	r0, [fp], #-0
    1040:	01160000 	tsteq	r6, r0
    1044:	00750250 	rsbseq	r0, r5, r0, asr r2
    1048:	87141400 	ldrhi	r1, [r4, -r0, lsl #8]
    104c:	06600000 	strbteq	r0, [r0], -r0
    1050:	28150000 	ldmdacs	r5, {}	; <UNPREDICTABLE>
    1054:	67000087 	strvs	r0, [r0, -r7, lsl #1]
    1058:	b3000006 	movwlt	r0, #6
    105c:	16000004 	strne	r0, [r0], -r4
    1060:	08025301 	stmdaeq	r2, {r0, r8, r9, ip, lr}
    1064:	52011692 	andpl	r1, r1, #153092096	; 0x9200000
    1068:	93000305 	movwls	r0, #773	; 0x305
    106c:	01160000 	tsteq	r6, r0
    1070:	20030551 	andcs	r0, r3, r1, asr r5
    1074:	16000093 			; <UNDEFINED> instruction: 0x16000093
    1078:	03055001 	movweq	r5, #20481	; 0x5001
    107c:	00009370 	andeq	r9, r0, r0, ror r3
    1080:	872c1400 	strhi	r1, [ip, -r0, lsl #8]!
    1084:	067d0000 	ldrbteq	r0, [sp], -r0
    1088:	9c140000 	ldcls	0, cr0, [r4], {-0}
    108c:	60000087 	andvs	r0, r0, r7, lsl #1
    1090:	15000006 	strne	r0, [r0, #-6]
    1094:	000087b0 			; <UNDEFINED> instruction: 0x000087b0
    1098:	00000667 	andeq	r0, r0, r7, ror #12
    109c:	000004f4 	strdeq	r0, [r0], -r4
    10a0:	02530116 	subseq	r0, r3, #-2147483643	; 0x80000005
    10a4:	01169808 	tsteq	r6, r8, lsl #16
    10a8:	00030552 	andeq	r0, r3, r2, asr r5
    10ac:	16000093 			; <UNDEFINED> instruction: 0x16000093
    10b0:	03055101 	movweq	r5, #20737	; 0x5101
    10b4:	00009320 	andeq	r9, r0, r0, lsr #6
    10b8:	05500116 	ldrbeq	r0, [r0, #-278]	; 0x116
    10bc:	00938c03 	addseq	r8, r3, r3, lsl #24
    10c0:	b4140000 	ldrlt	r0, [r4], #-0
    10c4:	7d000087 	stcvc	0, cr0, [r0, #-540]	; 0xfffffde4
    10c8:	15000006 	strne	r0, [r0, #-6]
    10cc:	000087d8 	ldrdeq	r8, [r0], -r8	; <UNPREDICTABLE>
    10d0:	0000019c 	muleq	r0, ip, r1
    10d4:	0000052a 	andeq	r0, r0, sl, lsr #10
    10d8:	02520116 	subseq	r0, r2, #-2147483643	; 0x80000005
    10dc:	01168008 	tsteq	r6, r8
    10e0:	d0910351 	addsle	r0, r1, r1, asr r3
    10e4:	5001167e 	andpl	r1, r1, lr, ror r6
    10e8:	02163a01 	andseq	r3, r6, #4096	; 0x1000
    10ec:	3101047d 	tstcc	r1, sp, ror r4
    10f0:	007d0216 	rsbseq	r0, sp, r6, lsl r2
    10f4:	00007702 	andeq	r7, r0, r2, lsl #14
    10f8:	0087fc15 	addeq	pc, r7, r5, lsl ip	; <UNPREDICTABLE>
    10fc:	00019c00 	andeq	r9, r1, r0, lsl #24
    1100:	00055800 	andeq	r5, r5, r0, lsl #16
    1104:	52011600 	andpl	r1, r1, #0, 12
    1108:	16800802 	strne	r0, [r0], r2, lsl #16
    110c:	91035101 	tstls	r3, r1, lsl #2
    1110:	01167ed0 			; <UNDEFINED> instruction: 0x01167ed0
    1114:	163a0150 			; <UNDEFINED> instruction: 0x163a0150
    1118:	02047d02 	andeq	r7, r4, #2, 26	; 0x80
    111c:	0216007b 	andseq	r0, r6, #123	; 0x7b
    1120:	7702007d 	smlsdxvc	r2, sp, r0, r0
    1124:	20150000 	andscs	r0, r5, r0
    1128:	9c000088 	stcls	0, cr0, [r0], {136}	; 0x88
    112c:	86000001 	strhi	r0, [r0], -r1
    1130:	16000005 	strne	r0, [r0], -r5
    1134:	08025201 	stmdaeq	r2, {r0, r9, ip, lr}
    1138:	51011680 	smlabbpl	r1, r0, r6, r1
    113c:	7ed09103 	atnvcs	f1, f3
    1140:	01500116 	cmpeq	r0, r6, lsl r1
    1144:	7d021640 	stcvc	6, cr1, [r2, #-256]	; 0xffffff00
    1148:	007b0204 	rsbseq	r0, fp, r4, lsl #4
    114c:	007d0216 	rsbseq	r0, sp, r6, lsl r2
    1150:	00007702 	andeq	r7, r0, r2, lsl #14
    1154:	00884415 	addeq	r4, r8, r5, lsl r4
    1158:	00019c00 	andeq	r9, r1, r0, lsl #24
    115c:	0005b400 	andeq	fp, r5, r0, lsl #8
    1160:	52011600 	andpl	r1, r1, #0, 12
    1164:	16800802 	strne	r0, [r0], r2, lsl #16
    1168:	91035101 	tstls	r3, r1, lsl #2
    116c:	01167ed0 			; <UNDEFINED> instruction: 0x01167ed0
    1170:	16320150 			; <UNDEFINED> instruction: 0x16320150
    1174:	02047d02 	andeq	r7, r4, #2, 26	; 0x80
    1178:	0216007b 	andseq	r0, r6, #123	; 0x7b
    117c:	7702007d 	smlsdxvc	r2, sp, r0, r0
    1180:	74150000 	ldrvc	r0, [r5], #-0
    1184:	9c000088 	stcls	0, cr0, [r0], {136}	; 0x88
    1188:	e2000001 	and	r0, r0, #1
    118c:	16000005 	strne	r0, [r0], -r5
    1190:	08025201 	stmdaeq	r2, {r0, r9, ip, lr}
    1194:	51011680 	smlabbpl	r1, r0, r6, r1
    1198:	7ed09103 	atnvcs	f1, f3
    119c:	01500116 	cmpeq	r0, r6, lsl r1
    11a0:	7d021638 	stcvc	6, cr1, [r2, #-224]	; 0xffffff20
    11a4:	007b0204 	rsbseq	r0, fp, r4, lsl #4
    11a8:	007d0216 	rsbseq	r0, sp, r6, lsl r2
    11ac:	00007702 	andeq	r7, r0, r2, lsl #14
    11b0:	00887c14 	addeq	r7, r8, r4, lsl ip
    11b4:	00066000 	andeq	r6, r6, r0
    11b8:	88981500 	ldmhi	r8, {r8, sl, ip}
    11bc:	06670000 	strbteq	r0, [r7], -r0
    11c0:	061a0000 	ldreq	r0, [sl], -r0
    11c4:	01160000 	tsteq	r6, r0
    11c8:	b9080253 	stmdblt	r8, {r0, r1, r4, r6, r9}
    11cc:	05520116 	ldrbeq	r0, [r2, #-278]	; 0x116
    11d0:	00930003 	addseq	r0, r3, r3
    11d4:	51011600 	tstpl	r1, r0, lsl #12
    11d8:	93200305 	teqls	r0, #335544320	; 0x14000000
    11dc:	01160000 	tsteq	r6, r0
    11e0:	b4030550 	strlt	r0, [r3], #-1360	; 0x550
    11e4:	00000093 	muleq	r0, r3, r0
    11e8:	00889c14 	addeq	r9, r8, r4, lsl ip
    11ec:	00067d00 	andeq	r7, r6, r0, lsl #26
    11f0:	18000000 	stmdane	r0, {}	; <UNPREDICTABLE>
    11f4:	0000007a 	andeq	r0, r0, sl, ror r0
    11f8:	00000635 	andeq	r0, r0, r5, lsr r6
    11fc:	00006b19 	andeq	r6, r0, r9, lsl fp
    1200:	06000900 	streq	r0, [r0], -r0, lsl #18
    1204:	00000625 	andeq	r0, r0, r5, lsr #12
    1208:	00007a18 	andeq	r7, r0, r8, lsl sl
    120c:	00064a00 	andeq	r4, r6, r0, lsl #20
    1210:	006b1900 	rsbeq	r1, fp, r0, lsl #18
    1214:	007f0000 	rsbseq	r0, pc, r0
    1218:	0003e81f 	andeq	lr, r3, pc, lsl r8
    121c:	8b1d0300 	blhi	741e24 <__bss_end__+0x738624>
    1220:	1f000003 	svcne	0x00000003
    1224:	000003e3 	andeq	r0, r0, r3, ror #7
    1228:	03a02203 	moveq	r2, #805306368	; 0x30000000
    122c:	5b200000 	blpl	801234 <__bss_end__+0x7f7a34>
    1230:	03000004 	movweq	r0, #4
    1234:	036f211e 	cmneq	pc, #-2147483641	; 0x80000007
    1238:	29030000 	stmdbcs	r3, {}	; <UNPREDICTABLE>
    123c:	00000025 	andeq	r0, r0, r5, lsr #32
    1240:	0000067d 	andeq	r0, r0, sp, ror r6
    1244:	0000811c 	andeq	r8, r0, ip, lsl r1
    1248:	20002200 	andcs	r2, r0, r0, lsl #4
    124c:	0000004f 	andeq	r0, r0, pc, asr #32
    1250:	ff006603 			; <UNDEFINED> instruction: 0xff006603
    1254:	04000000 	streq	r0, [r0], #-0
    1258:	00072500 	andeq	r2, r7, r0, lsl #10
    125c:	15010400 	strne	r0, [r1, #-1024]	; 0x400
    1260:	01000003 	tsteq	r0, r3
    1264:	0000047a 	andeq	r0, r0, sl, ror r4
    1268:	00000380 	andeq	r0, r0, r0, lsl #7
    126c:	00008904 	andeq	r8, r0, r4, lsl #18
    1270:	00000028 	andeq	r0, r0, r8, lsr #32
    1274:	000005ed 	andeq	r0, r0, sp, ror #11
    1278:	69050402 	stmdbvs	r5, {r1, sl}
    127c:	0300746e 	movweq	r7, #1134	; 0x46e
    1280:	00420704 	subeq	r0, r2, r4, lsl #14
    1284:	01030000 	mrseq	r0, (UNDEF: 3)
    1288:	0000ce06 	andeq	ip, r0, r6, lsl #28
    128c:	05020300 	streq	r0, [r2, #-768]	; 0x300
    1290:	00000179 	andeq	r0, r0, r9, ror r1
    1294:	05050403 	streq	r0, [r5, #-1027]	; 0x403
    1298:	03000000 	movweq	r0, #0
    129c:	00000508 	andeq	r0, r0, r8, lsl #10
    12a0:	01030000 	mrseq	r0, (UNDEF: 3)
    12a4:	0000cc08 	andeq	ip, r0, r8, lsl #24
    12a8:	07020300 	streq	r0, [r2, -r0, lsl #6]
    12ac:	000000f9 	strdeq	r0, [r0], -r9
    12b0:	3d070403 	cfstrscc	mvf0, [r7, #-12]
    12b4:	03000000 	movweq	r0, #0
    12b8:	00380708 	eorseq	r0, r8, r8, lsl #14
    12bc:	04030000 	streq	r0, [r3], #-0
    12c0:	00018307 	andeq	r8, r1, r7, lsl #6
    12c4:	08010300 	stmdaeq	r1, {r8, r9}
    12c8:	000000d5 	ldrdeq	r0, [r0], -r5
    12cc:	007f0404 	rsbseq	r0, pc, r4, lsl #8
    12d0:	72050000 	andvc	r0, r5, #0
    12d4:	06000000 	streq	r0, [r0], -r0
    12d8:	0000004f 	andeq	r0, r0, pc, asr #32
    12dc:	89040401 	stmdbhi	r4, {r0, sl}
    12e0:	00280000 	eoreq	r0, r8, r0
    12e4:	9c010000 	stcls	0, cr0, [r1], {-0}
    12e8:	000000ca 	andeq	r0, r0, sl, asr #1
    12ec:	00891807 	addeq	r1, r9, r7, lsl #16
    12f0:	0000ac00 	andeq	sl, r0, r0, lsl #24
    12f4:	50010800 	andpl	r0, r1, r0, lsl #16
    12f8:	93ec0305 	mvnls	r0, #335544320	; 0x14000000
    12fc:	09000000 	stmdbeq	r0, {}	; <UNPREDICTABLE>
    1300:	00008920 	andeq	r8, r0, r0, lsr #18
    1304:	000000ea 	andeq	r0, r0, sl, ror #1
    1308:	000000c0 	andeq	r0, r0, r0, asr #1
    130c:	02500108 	subseq	r0, r0, #8, 2
    1310:	0a006408 	beq	1a338 <__bss_end__+0x10b38>
    1314:	00008924 	andeq	r8, r0, r4, lsr #18
    1318:	000000fb 	strdeq	r0, [r0], -fp
    131c:	00250b00 	eoreq	r0, r5, r0, lsl #22
    1320:	00d90000 	sbcseq	r0, r9, r0
    1324:	790c0000 	stmdbvc	ip, {}	; <UNPREDICTABLE>
    1328:	00000000 	andeq	r0, r0, r0
    132c:	0003e30d 	andeq	lr, r3, sp, lsl #6
    1330:	e4220200 	strt	r0, [r2], #-512	; 0x200
    1334:	04000000 	streq	r0, [r0], #-0
    1338:	0000ca04 	andeq	ip, r0, r4, lsl #20
    133c:	010c0e00 	tsteq	ip, r0, lsl #28
    1340:	50020000 	andpl	r0, r2, r0
    1344:	000000fb 	strdeq	r0, [r0], -fp
    1348:	00002c0c 	andeq	r2, r0, ip, lsl #24
    134c:	6f0f0000 	svcvs	0x000f0000
    1350:	02000004 	andeq	r0, r0, #4
    1354:	00ff0063 	rscseq	r0, pc, r3, rrx
    1358:	00040000 	andeq	r0, r4, r0
    135c:	000007ef 	andeq	r0, r0, pc, ror #15
    1360:	03150104 	tsteq	r5, #4, 2
    1364:	94010000 	strls	r0, [r1], #-0
    1368:	80000004 	andhi	r0, r0, r4
    136c:	2c000003 	stccs	0, cr0, [r0], {3}
    1370:	34000089 	strcc	r0, [r0], #-137	; 0x89
    1374:	84000000 	strhi	r0, [r0], #-0
    1378:	02000006 	andeq	r0, r0, #6
    137c:	6e690504 	cdpvs	5, 6, cr0, cr9, cr4, {0}
    1380:	04030074 	streq	r0, [r3], #-116	; 0x74
    1384:	00004207 	andeq	r4, r0, r7, lsl #4
    1388:	06010300 	streq	r0, [r1], -r0, lsl #6
    138c:	000000ce 	andeq	r0, r0, lr, asr #1
    1390:	79050203 	stmdbvc	r5, {r0, r1, r9}
    1394:	03000001 	movweq	r0, #1
    1398:	00050504 	andeq	r0, r5, r4, lsl #10
    139c:	08030000 	stmdaeq	r3, {}	; <UNPREDICTABLE>
    13a0:	00000005 	andeq	r0, r0, r5
    13a4:	08010300 	stmdaeq	r1, {r8, r9}
    13a8:	000000cc 	andeq	r0, r0, ip, asr #1
    13ac:	f9070203 			; <UNDEFINED> instruction: 0xf9070203
    13b0:	03000000 	movweq	r0, #0
    13b4:	003d0704 	eorseq	r0, sp, r4, lsl #14
    13b8:	08030000 	stmdaeq	r3, {}	; <UNPREDICTABLE>
    13bc:	00003807 	andeq	r3, r0, r7, lsl #16
    13c0:	07040300 	streq	r0, [r4, -r0, lsl #6]
    13c4:	00000183 	andeq	r0, r0, r3, lsl #3
    13c8:	d5080103 	strle	r0, [r8, #-259]	; 0x103
    13cc:	04000000 	streq	r0, [r0], #-0
    13d0:	000004ca 	andeq	r0, r0, sl, asr #9
    13d4:	892c0d01 	stmdbhi	ip!, {r0, r8, sl, fp}
    13d8:	00340000 	eorseq	r0, r4, r0
    13dc:	9c010000 	stcls	0, cr0, [r1], {-0}
    13e0:	000000d8 	ldrdeq	r0, [r0], -r8
    13e4:	0004a805 	andeq	sl, r4, r5, lsl #16
    13e8:	250e0100 	strcs	r0, [lr, #-256]	; 0x100
    13ec:	05000000 	streq	r0, [r0, #-0]
    13f0:	000004b6 			; <UNDEFINED> instruction: 0x000004b6
    13f4:	00250e01 	eoreq	r0, r5, r1, lsl #28
    13f8:	f1060000 	cps	#0
    13fc:	01000000 	mrseq	r0, (UNDEF: 0)
    1400:	7362070f 	cmnvc	r2, #3932160	; 0x3c0000
    1404:	11010073 	tstne	r1, r3, ror r0
    1408:	000000d8 	ldrdeq	r0, [r0], -r8
    140c:	000009bf 			; <UNDEFINED> instruction: 0x000009bf
    1410:	0004c208 	andeq	ip, r4, r8, lsl #4
    1414:	d8120100 	ldmdale	r2, {r8}
    1418:	09000000 	stmdbeq	r0, {}	; <UNPREDICTABLE>
    141c:	00008954 	andeq	r8, r0, r4, asr r9
    1420:	000000f4 	strdeq	r0, [r0], -r4
    1424:	00895809 	addeq	r5, r9, r9, lsl #16
    1428:	0000fb00 	andeq	pc, r0, r0, lsl #22
    142c:	040a0000 	streq	r0, [sl], #-0
    1430:	00000025 	andeq	r0, r0, r5, lsr #32
    1434:	0004a805 	andeq	sl, r4, r5, lsl #16
    1438:	250e0100 	strcs	r0, [lr, #-256]	; 0x100
    143c:	05000000 	streq	r0, [r0, #-0]
    1440:	000004b6 			; <UNDEFINED> instruction: 0x000004b6
    1444:	00250e01 	eoreq	r0, r5, r1, lsl #28
    1448:	f1060000 	cps	#0
    144c:	02000000 	andeq	r0, r0, #0
    1450:	046f06d8 	strbteq	r0, [pc], #-1752	; 1458 <_start-0x6ba8>
    1454:	63020000 	movwvs	r0, #8192	; 0x2000
    1458:	0001ad00 	andeq	sl, r1, r0, lsl #26
    145c:	83000400 	movwhi	r0, #1024	; 0x400
    1460:	04000008 	streq	r0, [r0], #-8
    1464:	00031501 	andeq	r1, r3, r1, lsl #10
    1468:	04ec0100 	strbteq	r0, [ip], #256	; 0x100
    146c:	03800000 	orreq	r0, r0, #0
    1470:	00180000 	andseq	r0, r8, r0
    1474:	00000000 	andeq	r0, r0, r0
    1478:	07220000 	streq	r0, [r2, -r0]!
    147c:	04020000 	streq	r0, [r2], #-0
    1480:	746e6905 	strbtvc	r6, [lr], #-2309	; 0x905
    1484:	07040300 	streq	r0, [r4, -r0, lsl #6]
    1488:	00000042 	andeq	r0, r0, r2, asr #32
    148c:	ce060103 	adfgts	f0, f6, f3
    1490:	03000000 	movweq	r0, #0
    1494:	01790502 	cmneq	r9, r2, lsl #10
    1498:	04030000 	streq	r0, [r3], #-0
    149c:	00000505 	andeq	r0, r0, r5, lsl #10
    14a0:	05080300 	streq	r0, [r8, #-768]	; 0x300
    14a4:	00000000 	andeq	r0, r0, r0
    14a8:	cc080103 	stfgts	f0, [r8], {3}
    14ac:	03000000 	movweq	r0, #0
    14b0:	00f90702 	rscseq	r0, r9, r2, lsl #14
    14b4:	04030000 	streq	r0, [r3], #-0
    14b8:	00003d07 	andeq	r3, r0, r7, lsl #26
    14bc:	07080300 	streq	r0, [r8, -r0, lsl #6]
    14c0:	00000038 	andeq	r0, r0, r8, lsr r0
    14c4:	83070403 	movwhi	r0, #29699	; 0x7403
    14c8:	03000001 	movweq	r0, #1
    14cc:	00d50801 	sbcseq	r0, r5, r1, lsl #16
    14d0:	d2040000 	andle	r0, r4, #0
    14d4:	01000004 	tsteq	r0, r4
    14d8:	0000250e 	andeq	r2, r0, lr, lsl #10
    14dc:	00896000 	addeq	r6, r9, r0
    14e0:	00001800 	andeq	r1, r0, r0, lsl #16
    14e4:	a29c0100 	addsge	r0, ip, #0, 2
    14e8:	05000000 	streq	r0, [r0, #-0]
    14ec:	0000053e 	andeq	r0, r0, lr, lsr r5
    14f0:	002c0f01 	eoreq	r0, ip, r1, lsl #30
    14f4:	09df0000 	ldmibeq	pc, {}^	; <UNPREDICTABLE>
    14f8:	06000000 	streq	r0, [r0], -r0
    14fc:	00000521 	andeq	r0, r0, r1, lsr #10
    1500:	89781701 	ldmdbhi	r8!, {r0, r8, r9, sl, ip}^
    1504:	00140000 	andseq	r0, r4, r0
    1508:	9c010000 	stcls	0, cr0, [r1], {-0}
    150c:	000000c7 	andeq	r0, r0, r7, asr #1
    1510:	00053e05 	andeq	r3, r5, r5, lsl #28
    1514:	2c180100 	ldfcss	f0, [r8], {-0}
    1518:	fe000000 	cdp2	0, 0, cr0, cr0, cr0, {0}
    151c:	00000009 	andeq	r0, r0, r9
    1520:	00046f06 	andeq	r6, r4, r6, lsl #30
    1524:	8c1f0100 	ldfhis	f0, [pc], {-0}
    1528:	48000089 	stmdami	r0, {r0, r3, r7}
    152c:	01000000 	mrseq	r0, (UNDEF: 0)
    1530:	0001779c 	muleq	r1, ip, r7
    1534:	05360700 	ldreq	r0, [r6, #-1792]!	; 0x700
    1538:	2a010000 	bcs	41540 <__bss_end__+0x37d40>
    153c:	00000177 	andeq	r0, r0, r7, ror r1
    1540:	2010001c 	andscs	r0, r0, ip, lsl r0
    1544:	00051907 	andeq	r1, r5, r7, lsl #18
    1548:	772b0100 	strvc	r0, [fp, -r0, lsl #2]!
    154c:	24000001 	strcs	r0, [r0], #-1
    1550:	07201000 	streq	r1, [r0, -r0]!
    1554:	000004e0 	andeq	r0, r0, r0, ror #9
    1558:	01772c01 	cmneq	r7, r1, lsl #24
    155c:	00000000 	andeq	r0, r0, r0
    1560:	00085a00 	andeq	r5, r8, r0, lsl #20
    1564:	01000005 	tsteq	r0, r5
    1568:	0001772d 	andeq	r7, r1, sp, lsr #14
    156c:	94092000 	strls	r2, [r9], #-0
    1570:	79000089 	stmdbvc	r0, {r0, r3, r7}
    1574:	09000000 	stmdbeq	r0, {}	; <UNPREDICTABLE>
    1578:	000089a0 	andeq	r8, r0, r0, lsr #19
    157c:	000000a2 	andeq	r0, r0, r2, lsr #1
    1580:	0089a80a 	addeq	sl, r9, sl, lsl #16
    1584:	00018d00 	andeq	r8, r1, r0, lsl #26
    1588:	00013a00 	andeq	r3, r1, r0, lsl #20
    158c:	50010b00 	andpl	r0, r1, r0, lsl #22
    1590:	0a004e01 	beq	14d9c <__bss_end__+0xb59c>
    1594:	000089b4 			; <UNDEFINED> instruction: 0x000089b4
    1598:	0000019e 	muleq	r0, lr, r1
    159c:	0000015a 	andeq	r0, r0, sl, asr r1
    15a0:	0551010b 	ldrbeq	r0, [r1, #-267]	; 0x10b
    15a4:	0000010c 	andeq	r0, r0, ip, lsl #2
    15a8:	50010b5a 	andpl	r0, r1, sl, asr fp
    15ac:	00240c05 	eoreq	r0, r4, r5, lsl #24
    15b0:	0c002010 	stceq	0, cr2, [r0], {16}
    15b4:	000089c0 	andeq	r8, r0, r0, asr #19
    15b8:	0000019e 	muleq	r0, lr, r1
    15bc:	0551010b 	ldrbeq	r0, [r1, #-267]	; 0x10b
    15c0:	0000200c 	andeq	r2, r0, ip
    15c4:	50010b5a 	andpl	r0, r1, sl, asr fp
    15c8:	001c0c05 	andseq	r0, ip, r5, lsl #24
    15cc:	00002010 	andeq	r2, r0, r0, lsl r0
    15d0:	0000250d 	andeq	r2, r0, sp, lsl #10
    15d4:	04d50800 	ldrbeq	r0, [r5], #2048	; 0x800
    15d8:	0d010000 	stceq	0, cr0, [r1, #-0]
    15dc:	00000188 	andeq	r0, r0, r8, lsl #3
    15e0:	002c0d10 	eoreq	r0, ip, r0, lsl sp
    15e4:	0c0e0000 	stceq	0, cr0, [lr], {-0}
    15e8:	02000001 	andeq	r0, r0, #1
    15ec:	00019e50 	andeq	r9, r1, r0, asr lr
    15f0:	002c0f00 	eoreq	r0, ip, r0, lsl #30
    15f4:	10000000 	andne	r0, r0, r0
    15f8:	00000530 	andeq	r0, r0, r0, lsr r5
    15fc:	2c0f9c02 	stccs	12, cr9, [pc], {2}
    1600:	0f000000 	svceq	0x00000000
    1604:	0000002c 	andeq	r0, r0, ip, lsr #32
    1608:	01d80000 	bicseq	r0, r8, r0
    160c:	00040000 	andeq	r0, r4, r0
    1610:	00000971 	andeq	r0, r0, r1, ror r9
    1614:	03150104 	tsteq	r5, #4, 2
    1618:	60010000 	andvs	r0, r1, r0
    161c:	80000005 	andhi	r0, r0, r5
    1620:	d4000003 	strle	r0, [r0], #-3
    1624:	88000089 	stmdahi	r0, {r0, r3, r7}
    1628:	bf000000 	svclt	0x00000000
    162c:	02000007 	andeq	r0, r0, #7
    1630:	6e690504 	cdpvs	5, 6, cr0, cr9, cr4, {0}
    1634:	04030074 	streq	r0, [r3], #-116	; 0x74
    1638:	00004207 	andeq	r4, r0, r7, lsl #4
    163c:	06010300 	streq	r0, [r1], -r0, lsl #6
    1640:	000000ce 	andeq	r0, r0, lr, asr #1
    1644:	79050203 	stmdbvc	r5, {r0, r1, r9}
    1648:	03000001 	movweq	r0, #1
    164c:	00050504 	andeq	r0, r5, r4, lsl #10
    1650:	08030000 	stmdaeq	r3, {}	; <UNPREDICTABLE>
    1654:	00000005 	andeq	r0, r0, r5
    1658:	08010300 	stmdaeq	r1, {r8, r9}
    165c:	000000cc 	andeq	r0, r0, ip, asr #1
    1660:	f9070203 			; <UNDEFINED> instruction: 0xf9070203
    1664:	03000000 	movweq	r0, #0
    1668:	003d0704 	eorseq	r0, sp, r4, lsl #14
    166c:	08030000 	stmdaeq	r3, {}	; <UNPREDICTABLE>
    1670:	00003807 	andeq	r3, r0, r7, lsl #16
    1674:	07040300 	streq	r0, [r4, -r0, lsl #6]
    1678:	00000183 	andeq	r0, r0, r3, lsl #3
    167c:	d5080103 	strle	r0, [r8, #-259]	; 0x103
    1680:	04000000 	streq	r0, [r0], #-0
    1684:	0000057f 	andeq	r0, r0, pc, ror r5
    1688:	89d40501 	ldmibhi	r4, {r0, r8, sl}^
    168c:	001c0000 	andseq	r0, ip, r0
    1690:	9c010000 	stcls	0, cr0, [r1], {-0}
    1694:	0000009e 	muleq	r0, lr, r0
    1698:	00057905 	andeq	r7, r5, r5, lsl #18
    169c:	2c050100 	stfcss	f0, [r5], {-0}
    16a0:	28000000 	stmdacs	r0, {}	; <UNPREDICTABLE>
    16a4:	0000000a 	andeq	r0, r0, sl
    16a8:	00054306 	andeq	r4, r5, r6, lsl #6
    16ac:	2c110100 	ldfcss	f0, [r1], {-0}
    16b0:	f0000000 			; <UNDEFINED> instruction: 0xf0000000
    16b4:	14000089 	strne	r0, [r0], #-137	; 0x89
    16b8:	01000000 	mrseq	r0, (UNDEF: 0)
    16bc:	0000cb9c 	muleq	r0, ip, fp
    16c0:	89fc0700 	ldmibhi	ip!, {r8, r9, sl}^
    16c4:	01ca0000 	biceq	r0, sl, r0
    16c8:	01080000 	mrseq	r0, (UNDEF: 8)
    16cc:	040c0550 	streq	r0, [ip], #-1360	; 0x550
    16d0:	00200030 	eoreq	r0, r0, r0, lsr r0
    16d4:	021c0600 	andseq	r0, ip, #0, 12
    16d8:	16010000 	strne	r0, [r1], -r0
    16dc:	0000002c 	andeq	r0, r0, ip, lsr #32
    16e0:	00008a04 	andeq	r8, r0, r4, lsl #20
    16e4:	0000000c 	andeq	r0, r0, ip
    16e8:	00f99c01 	rscseq	r9, r9, r1, lsl #24
    16ec:	75090000 	strvc	r0, [r9, #-0]
    16f0:	2c1a0100 	ldfcss	f0, [sl], {-0}
    16f4:	01000000 	mrseq	r0, (UNDEF: 0)
    16f8:	8a0c0a50 	bhi	304040 <__bss_end__+0x2fa840>
    16fc:	009e0000 	addseq	r0, lr, r0
    1700:	04000000 	streq	r0, [r0], #-0
    1704:	00000213 	andeq	r0, r0, r3, lsl r2
    1708:	8a101f01 	bhi	409314 <__bss_end__+0x3ffb14>
    170c:	00240000 	eoreq	r0, r4, r0
    1710:	9c010000 	stcls	0, cr0, [r1], {-0}
    1714:	00000157 	andeq	r0, r0, r7, asr r1
    1718:	0073750b 	rsbseq	r7, r3, fp, lsl #10
    171c:	002c1f01 	eoreq	r1, ip, r1, lsl #30
    1720:	0a5c0000 	beq	1701728 <__bss_end__+0x16f7f28>
    1724:	72090000 	andvc	r0, r9, #0
    1728:	20010062 	andcs	r0, r1, r2, rrx
    172c:	0000002c 	andeq	r0, r0, ip, lsr #32
    1730:	200c5401 	andcs	r5, ip, r1, lsl #8
    1734:	1000008a 	andne	r0, r0, sl, lsl #1
    1738:	4d000000 	stcmi	0, cr0, [r0, #-0]
    173c:	0d000001 	stceq	0, cr0, [r0, #-4]
    1740:	01006172 	tsteq	r0, r2, ror r1
    1744:	00002c22 	andeq	r2, r0, r2, lsr #24
    1748:	000a7a00 	andeq	r7, sl, r0, lsl #20
    174c:	8a240a00 	bhi	903f54 <__bss_end__+0x8fa754>
    1750:	00cb0000 	sbceq	r0, fp, r0
    1754:	0a000000 	beq	175c <_start-0x68a4>
    1758:	00008a1c 	andeq	r8, r0, ip, lsl sl
    175c:	000000cb 	andeq	r0, r0, fp, asr #1
    1760:	010c0400 	tsteq	ip, r0, lsl #8
    1764:	28010000 	stmdacs	r1, {}	; <UNPREDICTABLE>
    1768:	00008a34 	andeq	r8, r0, r4, lsr sl
    176c:	00000014 	andeq	r0, r0, r4, lsl r0
    1770:	01909c01 	orrseq	r9, r0, r1, lsl #24
    1774:	6d0b0000 	stcvs	0, cr0, [fp, #-0]
    1778:	28010073 	stmdacs	r1, {r0, r1, r4, r5, r6}
    177c:	0000002c 	andeq	r0, r0, ip, lsr #32
    1780:	00000a8d 	andeq	r0, r0, sp, lsl #21
    1784:	008a4407 	addeq	r4, sl, r7, lsl #8
    1788:	0000f900 	andeq	pc, r0, r0, lsl #18
    178c:	50010800 	andpl	r0, r1, r0, lsl #16
    1790:	5001f307 	andpl	pc, r1, r7, lsl #6
    1794:	1e03e80a 	cdpne	8, 0, cr14, cr3, cr10, {0}
    1798:	56040000 	strpl	r0, [r4], -r0
    179c:	01000005 	tsteq	r0, r5
    17a0:	008a482b 	addeq	r4, sl, fp, lsr #16
    17a4:	00001400 	andeq	r1, r0, r0, lsl #8
    17a8:	ca9c0100 	bgt	fe701bb0 <__bss_end__+0xfe6f83b0>
    17ac:	0b000001 	bleq	17b8 <_start-0x6848>
    17b0:	00636573 	rsbeq	r6, r3, r3, ror r5
    17b4:	002c2b01 	eoreq	r2, ip, r1, lsl #22
    17b8:	0aae0000 	beq	feb817c0 <__bss_end__+0xfeb77fc0>
    17bc:	58070000 	stmdapl	r7, {}	; <UNPREDICTABLE>
    17c0:	5700008a 	strpl	r0, [r0, -sl, lsl #1]
    17c4:	08000001 	stmdaeq	r0, {r0}
    17c8:	f3075001 	vhadd.u8	d5, d7, d1
    17cc:	e80a5001 	stmda	sl, {r0, ip, lr}
    17d0:	00001e03 	andeq	r1, r0, r3, lsl #28
    17d4:	0005730e 	andeq	r7, r5, lr, lsl #6
    17d8:	2ca80200 	sfmcs	f0, 4, [r8]
    17dc:	0f000000 	svceq	0x00000000
    17e0:	0000002c 	andeq	r0, r0, ip, lsr #32
    17e4:	08820000 	stmeq	r2, {}	; <UNPREDICTABLE>
    17e8:	00040000 	andeq	r0, r4, r0
    17ec:	00000a54 	andeq	r0, r0, r4, asr sl
    17f0:	03150104 	tsteq	r5, #4, 2
    17f4:	e6010000 	str	r0, [r1], -r0
    17f8:	80000005 	andhi	r0, r0, r5
    17fc:	5c000003 	stcpl	0, cr0, [r0], {3}
    1800:	a000008a 	andge	r0, r0, sl, lsl #1
    1804:	66000005 	strvs	r0, [r0], -r5
    1808:	02000008 	andeq	r0, r0, #8
    180c:	00380708 	eorseq	r0, r8, r8, lsl #14
    1810:	04020000 	streq	r0, [r2], #-0
    1814:	00004207 	andeq	r4, r0, r7, lsl #4
    1818:	06010200 	streq	r0, [r1], -r0, lsl #4
    181c:	000000ce 	andeq	r0, r0, lr, asr #1
    1820:	79050202 	stmdbvc	r5, {r1, r9}
    1824:	02000001 	andeq	r0, r0, #1
    1828:	00050504 	andeq	r0, r5, r4, lsl #10
    182c:	08020000 	stmdaeq	r2, {}	; <UNPREDICTABLE>
    1830:	00000005 	andeq	r0, r0, r5
    1834:	08010200 	stmdaeq	r1, {r9}
    1838:	000000cc 	andeq	r0, r0, ip, asr #1
    183c:	f9070202 			; <UNDEFINED> instruction: 0xf9070202
    1840:	02000000 	andeq	r0, r0, #0
    1844:	003d0704 	eorseq	r0, sp, r4, lsl #14
    1848:	04030000 	streq	r0, [r3], #-0
    184c:	746e6905 	strbtvc	r6, [lr], #-2309	; 0x905
    1850:	07040200 	streq	r0, [r4, -r0, lsl #4]
    1854:	00000183 	andeq	r0, r0, r3, lsl #3
    1858:	d5080102 	strle	r0, [r8, #-258]	; 0x102
    185c:	04000000 	streq	r0, [r0], #-0
    1860:	b20c0201 	andlt	r0, ip, #268435456	; 0x10000000
    1864:	05000000 	streq	r0, [r0, #-0]
    1868:	000005c9 	andeq	r0, r0, r9, asr #11
    186c:	07120500 	ldreq	r0, [r2, -r0, lsl #10]
    1870:	05010000 	streq	r0, [r1, #-0]
    1874:	0000074b 	andeq	r0, r0, fp, asr #14
    1878:	075a0504 	ldrbeq	r0, [sl, -r4, lsl #10]
    187c:	05050000 	streq	r0, [r5, #-0]
    1880:	00000769 	andeq	r0, r0, r9, ror #14
    1884:	07780506 	ldrbeq	r0, [r8, -r6, lsl #10]!
    1888:	05070000 	streq	r0, [r7, #-0]
    188c:	00000787 	andeq	r0, r0, r7, lsl #15
    1890:	07960503 	ldreq	r0, [r6, r3, lsl #10]
    1894:	00020000 	andeq	r0, r2, r0
    1898:	00073f06 	andeq	r3, r7, r6, lsl #30
    189c:	79150200 	ldmdbvc	r5, {r9}
    18a0:	07000000 	streq	r0, [r0, -r0]
    18a4:	000001e3 	andeq	r0, r0, r3, ror #3
    18a8:	8a5c3f01 	bhi	17114b4 <__bss_end__+0x1707cb4>
    18ac:	00d40000 	sbcseq	r0, r4, r0
    18b0:	9c010000 	stcls	0, cr0, [r1], {-0}
    18b4:	00000133 	andeq	r0, r0, r3, lsr r1
    18b8:	6e697008 	cdpvs	0, 6, cr7, cr9, cr8, {0}
    18bc:	2c3f0100 	ldfcss	f0, [pc], #-0	; 18c4 <_start-0x673c>
    18c0:	cf000000 	svcgt	0x00000000
    18c4:	0900000a 	stmdbeq	r0, {r1, r3}
    18c8:	00000622 	andeq	r0, r0, r2, lsr #12
    18cc:	01334701 	teqeq	r3, r1, lsl #14
    18d0:	0aed0000 	beq	ffb418d8 <__bss_end__+0xffb380d8>
    18d4:	a5090000 	strge	r0, [r9, #-0]
    18d8:	01000007 	tsteq	r0, r7
    18dc:	00002c49 	andeq	r2, r0, r9, asr #24
    18e0:	000b4200 	andeq	r4, fp, r0, lsl #4
    18e4:	06c70900 	strbeq	r0, [r7], r0, lsl #18
    18e8:	57010000 	strpl	r0, [r1, -r0]
    18ec:	0000002c 	andeq	r0, r0, ip, lsr #32
    18f0:	00000d0e 	andeq	r0, r0, lr, lsl #26
    18f4:	008af00a 	addeq	pc, sl, sl
    18f8:	00084100 	andeq	r4, r8, r0, lsl #2
    18fc:	00012200 	andeq	r2, r1, r0, lsl #4
    1900:	50010b00 	andpl	r0, r1, r0, lsl #22
    1904:	00007502 	andeq	r7, r0, r2, lsl #10
    1908:	008b240c 	addeq	r2, fp, ip, lsl #8
    190c:	00086200 	andeq	r6, r8, r0, lsl #4
    1910:	50010b00 	andpl	r0, r1, r0, lsl #22
    1914:	00007502 	andeq	r7, r0, r2, lsl #10
    1918:	39040d00 	stmdbcc	r4, {r8, sl, fp}
    191c:	0e000001 	cdpeq	0, 0, cr0, cr0, cr1, {0}
    1920:	0000002c 	andeq	r0, r0, ip, lsr #32
    1924:	0006f807 	andeq	pc, r6, r7, lsl #16
    1928:	30600100 	rsbcc	r0, r0, r0, lsl #2
    192c:	3800008b 	stmdacc	r0, {r0, r1, r3, r7}
    1930:	01000000 	mrseq	r0, (UNDEF: 0)
    1934:	0001969c 	muleq	r1, ip, r6
    1938:	69700800 	ldmdbvs	r0!, {fp}^
    193c:	6001006e 	andvs	r0, r1, lr, rrx
    1940:	0000002c 	andeq	r0, r0, ip, lsr #32
    1944:	00000d3e 	andeq	r0, r0, lr, lsr sp
    1948:	00062209 	andeq	r2, r6, r9, lsl #4
    194c:	33670100 	cmncc	r7, #0, 2
    1950:	5f000001 	svcpl	0x00000001
    1954:	0900000d 	stmdbeq	r0, {r0, r2, r3}
    1958:	000006c7 	andeq	r0, r0, r7, asr #13
    195c:	002c6801 	eoreq	r6, ip, r1, lsl #16
    1960:	0d950000 	ldceq	0, cr0, [r5]
    1964:	600c0000 	andvs	r0, ip, r0
    1968:	6200008b 	andvs	r0, r0, #139	; 0x8b
    196c:	0b000008 	bleq	1994 <_start-0x666c>
    1970:	31075101 	tstcc	r7, r1, lsl #2
    1974:	4f5001f3 	svcmi	0x005001f3
    1978:	0000241a 	andeq	r2, r0, sl, lsl r4
    197c:	0005d907 	andeq	sp, r5, r7, lsl #18
    1980:	687b0100 	ldmdavs	fp!, {r8}^
    1984:	3800008b 	stmdacc	r0, {r0, r1, r3, r7}
    1988:	01000000 	mrseq	r0, (UNDEF: 0)
    198c:	0001ee9c 	muleq	r1, ip, lr
    1990:	69700800 	ldmdbvs	r0!, {fp}^
    1994:	7b01006e 	blvc	41b54 <__bss_end__+0x38354>
    1998:	0000002c 	andeq	r0, r0, ip, lsr #32
    199c:	00000dd5 	ldrdeq	r0, [r0], -r5
    19a0:	00062209 	andeq	r2, r6, r9, lsl #4
    19a4:	33810100 	orrcc	r0, r1, #0, 2
    19a8:	f6000001 			; <UNDEFINED> instruction: 0xf6000001
    19ac:	0900000d 	stmdbeq	r0, {r0, r2, r3}
    19b0:	000006c7 	andeq	r0, r0, r7, asr #13
    19b4:	002c8201 	eoreq	r8, ip, r1, lsl #4
    19b8:	0e2c0000 	cdpeq	0, 2, cr0, cr12, cr0, {0}
    19bc:	980c0000 	stmdals	ip, {}	; <UNPREDICTABLE>
    19c0:	6200008b 	andvs	r0, r0, #139	; 0x8b
    19c4:	0b000008 	bleq	19ec <_start-0x6614>
    19c8:	31075101 	tstcc	r7, r1, lsl #2
    19cc:	4f5001f3 	svcmi	0x005001f3
    19d0:	0000241a 	andeq	r2, r0, sl, lsl r4
    19d4:	0001b307 	andeq	fp, r1, r7, lsl #6
    19d8:	a0950100 	addsge	r0, r5, r0, lsl #2
    19dc:	cc00008b 	stcgt	0, cr0, [r0], {139}	; 0x8b
    19e0:	01000000 	mrseq	r0, (UNDEF: 0)
    19e4:	0002649c 	muleq	r2, ip, r4
    19e8:	69700800 	ldmdbvs	r0!, {fp}^
    19ec:	9501006e 	strls	r0, [r1, #-110]	; 0x6e
    19f0:	0000002c 	andeq	r0, r0, ip, lsr #32
    19f4:	00000e6c 	andeq	r0, r0, ip, ror #28
    19f8:	00062209 	andeq	r2, r6, r9, lsl #4
    19fc:	339b0100 	orrscc	r0, fp, #0, 2
    1a00:	8a000001 	bhi	1a0c <_start-0x65f4>
    1a04:	0900000e 	stmdbeq	r0, {r1, r2, r3}
    1a08:	000007a5 	andeq	r0, r0, r5, lsr #15
    1a0c:	002c9d01 	eoreq	r9, ip, r1, lsl #26
    1a10:	0edf0000 	cdpeq	0, 13, cr0, cr15, cr0, {0}
    1a14:	c7090000 	strgt	r0, [r9, -r0]
    1a18:	01000006 	tsteq	r0, r6
    1a1c:	00002cab 	andeq	r2, r0, fp, lsr #25
    1a20:	0010ab00 	andseq	sl, r0, r0, lsl #22
    1a24:	8c340a00 	ldchi	10, cr0, [r4], #-0
    1a28:	08410000 	stmdaeq	r1, {}^	; <UNPREDICTABLE>
    1a2c:	02530000 	subseq	r0, r3, #0
    1a30:	010b0000 	mrseq	r0, (UNDEF: 11)
    1a34:	00750250 	rsbseq	r0, r5, r0, asr r2
    1a38:	8c600c00 	stclhi	12, cr0, [r0], #-0
    1a3c:	08620000 	stmdaeq	r2!, {}^	; <UNPREDICTABLE>
    1a40:	010b0000 	mrseq	r0, (UNDEF: 11)
    1a44:	00750250 	rsbseq	r0, r5, r0, asr r2
    1a48:	a90f0000 	stmdbge	pc, {}	; <UNPREDICTABLE>
    1a4c:	01000001 	tsteq	r0, r1
    1a50:	000064b2 			; <UNDEFINED> instruction: 0x000064b2
    1a54:	008c6c00 	addeq	r6, ip, r0, lsl #24
    1a58:	00004c00 	andeq	r4, r0, r0, lsl #24
    1a5c:	ac9c0100 	ldfges	f0, [ip], {0}
    1a60:	08000002 	stmdaeq	r0, {r1}
    1a64:	006e6970 	rsbeq	r6, lr, r0, ror r9
    1a68:	002cb201 	eoreq	fp, ip, r1, lsl #4
    1a6c:	10c90000 	sbcne	r0, r9, r0
    1a70:	76100000 	ldrvc	r0, [r0], -r0
    1a74:	2cb80100 	ldfcss	f0, [r8]
    1a78:	21000000 	mrscs	r0, (UNDEF: 0)
    1a7c:	11000011 	tstne	r0, r1, lsl r0
    1a80:	00008c8c 	andeq	r8, r0, ip, lsl #25
    1a84:	00000841 	andeq	r0, r0, r1, asr #16
    1a88:	008c9c11 	addeq	r9, ip, r1, lsl ip
    1a8c:	00084100 	andeq	r4, r8, r0, lsl #2
    1a90:	91070000 	mrsls	r0, (UNDEF: 7)
    1a94:	01000001 	tsteq	r0, r1
    1a98:	008cb8c4 	addeq	fp, ip, r4, asr #17
    1a9c:	00002400 	andeq	r2, r0, r0, lsl #8
    1aa0:	fc9c0100 	ldc2	1, cr0, [ip], {0}
    1aa4:	08000002 	stmdaeq	r0, {r1}
    1aa8:	006e6970 	rsbeq	r6, lr, r0, ror r9
    1aac:	002cc401 	eoreq	ip, ip, r1, lsl #8
    1ab0:	11570000 	cmpne	r7, r0
    1ab4:	76080000 	strvc	r0, [r8], -r0
    1ab8:	2cc40100 	stfcse	f0, [r4], {0}
    1abc:	91000000 	mrsls	r0, (UNDEF: 0)
    1ac0:	0a000011 	beq	1b0c <_start-0x64f4>
    1ac4:	00008cd0 	ldrdeq	r8, [r0], -r0
    1ac8:	0000013e 	andeq	r0, r0, lr, lsr r1
    1acc:	000002f2 	strdeq	r0, [r0], -r2
    1ad0:	0350010b 	cmpeq	r0, #-1073741822	; 0xc0000002
    1ad4:	005001f3 	ldrsheq	r0, [r0], #-19	; 0xffffffed
    1ad8:	008cd811 	addeq	sp, ip, r1, lsl r8
    1adc:	00019600 	andeq	r9, r1, r0, lsl #12
    1ae0:	7a070000 	bvc	1c1ae8 <__bss_end__+0x1b82e8>
    1ae4:	01000006 	tsteq	r0, r6
    1ae8:	008cdcd0 	ldrdeq	sp, [ip], r0
    1aec:	0000d800 	andeq	sp, r0, r0, lsl #16
    1af0:	819c0100 	orrshi	r0, ip, r0, lsl #2
    1af4:	08000003 	stmdaeq	r0, {r0, r1}
    1af8:	006e6970 	rsbeq	r6, lr, r0, ror r9
    1afc:	002cd001 	eoreq	sp, ip, r1
    1b00:	11cb0000 	bicne	r0, fp, r0
    1b04:	d9120000 	ldmdble	r2, {}	; <UNPREDICTABLE>
    1b08:	01000006 	tsteq	r0, r6
    1b0c:	0000b2d0 	ldrdeq	fp, [r0], -r0
    1b10:	0011e900 	andseq	lr, r1, r0, lsl #18
    1b14:	06220900 	strteq	r0, [r2], -r0, lsl #18
    1b18:	d8010000 	stmdale	r1, {}	; <UNPREDICTABLE>
    1b1c:	00000133 	andeq	r0, r0, r3, lsr r1
    1b20:	0000120a 	andeq	r1, r0, sl, lsl #4
    1b24:	0007a509 	andeq	sl, r7, r9, lsl #10
    1b28:	2cd90100 	ldfcse	f0, [r9], {0}
    1b2c:	5f000000 	svcpl	0x00000000
    1b30:	09000012 	stmdbeq	r0, {r1, r4}
    1b34:	000006c7 	andeq	r0, r0, r7, asr #13
    1b38:	002ce701 	eoreq	lr, ip, r1, lsl #14
    1b3c:	142b0000 	strtne	r0, [fp], #-0
    1b40:	780a0000 	stmdavc	sl, {}	; <UNPREDICTABLE>
    1b44:	4100008d 	smlabbmi	r0, sp, r0, r0
    1b48:	70000008 	andvc	r0, r0, r8
    1b4c:	0b000003 	bleq	1b60 <_start-0x64a0>
    1b50:	76025001 	strvc	r5, [r2], -r1
    1b54:	a80c0000 	stmdage	ip, {}	; <UNPREDICTABLE>
    1b58:	6200008d 	andvs	r0, r0, #141	; 0x8d
    1b5c:	0b000008 	bleq	1b84 <_start-0x647c>
    1b60:	76025001 	strvc	r5, [r2], -r1
    1b64:	07000000 	streq	r0, [r0, -r0]
    1b68:	000006de 	ldrdeq	r0, [r0], -lr
    1b6c:	8db4f001 	ldchi	0, cr15, [r4, #4]!
    1b70:	00380000 	eorseq	r0, r8, r0
    1b74:	9c010000 	stcls	0, cr0, [r1], {-0}
    1b78:	000003d9 	ldrdeq	r0, [r0], -r9
    1b7c:	6e697008 	cdpvs	0, 6, cr7, cr9, cr8, {0}
    1b80:	2cf00100 	ldfcse	f0, [r0]
    1b84:	5c000000 	stcpl	0, cr0, [r0], {-0}
    1b88:	09000014 	stmdbeq	r0, {r2, r4}
    1b8c:	00000622 	andeq	r0, r0, r2, lsr #12
    1b90:	0133f601 	teqeq	r3, r1, lsl #12
    1b94:	147d0000 	ldrbtne	r0, [sp], #-0
    1b98:	c7090000 	strgt	r0, [r9, -r0]
    1b9c:	01000006 	tsteq	r0, r6
    1ba0:	00002cf7 	strdeq	r2, [r0], -r7
    1ba4:	0014b300 	andseq	fp, r4, r0, lsl #6
    1ba8:	8de40c00 	stclhi	12, cr0, [r4]
    1bac:	08620000 	stmdaeq	r2!, {}^	; <UNPREDICTABLE>
    1bb0:	010b0000 	mrseq	r0, (UNDEF: 11)
    1bb4:	f3310751 	vaba.u<illegal width 64>	q0, <illegal reg q0.5>, <illegal reg q0.5>
    1bb8:	1a4f5001 	bne	13d5bc4 <__bss_end__+0x13cc3c4>
    1bbc:	13000024 	movwne	r0, #36	; 0x24
    1bc0:	000005bd 			; <UNDEFINED> instruction: 0x000005bd
    1bc4:	64011e01 	strvs	r1, [r1], #-3585	; 0xe01
    1bc8:	ec000000 	stc	0, cr0, [r0], {-0}
    1bcc:	2c00008d 	stccs	0, cr0, [r0], {141}	; 0x8d
    1bd0:	01000000 	mrseq	r0, (UNDEF: 0)
    1bd4:	00040d9c 	muleq	r4, ip, sp
    1bd8:	05c01400 	strbeq	r1, [r0, #1024]	; 0x400
    1bdc:	1e010000 	cdpne	0, 0, cr0, cr1, cr0, {0}
    1be0:	00002c01 	andeq	r2, r0, r1, lsl #24
    1be4:	0014f300 	andseq	pc, r4, r0, lsl #6
    1be8:	8dfc1100 	ldfhie	f1, [ip]
    1bec:	08410000 	stmdaeq	r1, {}^	; <UNPREDICTABLE>
    1bf0:	15000000 	strne	r0, [r0, #-0]
    1bf4:	00000665 	andeq	r0, r0, r5, ror #12
    1bf8:	18012d01 	stmdane	r1, {r0, r8, sl, fp, sp}
    1bfc:	8400008e 	strhi	r0, [r0], #-142	; 0x8e
    1c00:	01000000 	mrseq	r0, (UNDEF: 0)
    1c04:	0004d19c 	muleq	r4, ip, r1
    1c08:	69701600 	ldmdbvs	r0!, {r9, sl, ip}^
    1c0c:	2d01006e 	stccs	0, cr0, [r1, #-440]	; 0xfffffe48
    1c10:	00002c01 	andeq	r2, r0, r1, lsl #24
    1c14:	00151400 	andseq	r1, r5, r0, lsl #8
    1c18:	05f41700 	ldrbeq	r1, [r4, #1792]!	; 0x700
    1c1c:	3f010000 	svccc	0x00010000
    1c20:	00002c01 	andeq	r2, r0, r1, lsl #24
    1c24:	00154000 	andseq	r4, r5, r0
    1c28:	8e341800 	cdphi	8, 3, cr1, cr4, cr0, {0}
    1c2c:	001c0000 	andseq	r0, ip, r0
    1c30:	04730000 	ldrbteq	r0, [r3], #-0
    1c34:	c7170000 	ldrgt	r0, [r7, -r0]
    1c38:	01000006 	tsteq	r0, r6
    1c3c:	002c0136 	eoreq	r0, ip, r6, lsr r1
    1c40:	155e0000 	ldrbne	r0, [lr, #-0]
    1c44:	40110000 	andsmi	r0, r1, r0
    1c48:	4100008e 	smlabbmi	r0, lr, r0, r0
    1c4c:	11000008 	tstne	r0, r8
    1c50:	00008e50 	andeq	r8, r0, r0, asr lr
    1c54:	00000862 	andeq	r0, r0, r2, ror #16
    1c58:	8e541800 	cdphi	8, 5, cr1, cr4, cr0, {0}
    1c5c:	00200000 	eoreq	r0, r0, r0
    1c60:	04a30000 	strteq	r0, [r3], #0
    1c64:	c7170000 	ldrgt	r0, [r7, -r0]
    1c68:	01000006 	tsteq	r0, r6
    1c6c:	002c013a 	eoreq	r0, ip, sl, lsr r1
    1c70:	157c0000 	ldrbne	r0, [ip, #-0]!
    1c74:	60110000 	andsvs	r0, r1, r0
    1c78:	4100008e 	smlabbmi	r0, lr, r0, r0
    1c7c:	11000008 	tstne	r0, r8
    1c80:	00008e74 	andeq	r8, r0, r4, ror lr
    1c84:	00000862 	andeq	r0, r0, r2, ror #16
    1c88:	8e2c1100 	sufhie	f1, f4, f0
    1c8c:	087e0000 	ldmdaeq	lr!, {}^	; <UNPREDICTABLE>
    1c90:	78110000 	ldmdavc	r1, {}	; <UNPREDICTABLE>
    1c94:	7e00008e 	cdpvc	0, 0, cr0, cr0, cr14, {4}
    1c98:	11000008 	tstne	r0, r8
    1c9c:	00008e84 	andeq	r8, r0, r4, lsl #29
    1ca0:	00000841 	andeq	r0, r0, r1, asr #16
    1ca4:	008e9011 	addeq	r9, lr, r1, lsl r0
    1ca8:	00086200 	andeq	r6, r8, r0, lsl #4
    1cac:	8e941100 	fmlhis	f1, f4, f0
    1cb0:	087e0000 	ldmdaeq	lr!, {}^	; <UNPREDICTABLE>
    1cb4:	15000000 	strne	r0, [r0, #-0]
    1cb8:	00000729 	andeq	r0, r0, r9, lsr #14
    1cbc:	9c014a01 	stcls	10, cr4, [r1], {1}
    1cc0:	8400008e 	strhi	r0, [r0], #-142	; 0x8e
    1cc4:	01000000 	mrseq	r0, (UNDEF: 0)
    1cc8:	0005959c 	muleq	r5, ip, r5
    1ccc:	69701600 	ldmdbvs	r0!, {r9, sl, ip}^
    1cd0:	4a01006e 	bmi	41e90 <__bss_end__+0x38690>
    1cd4:	00002c01 	andeq	r2, r0, r1, lsl #24
    1cd8:	00159a00 	andseq	r9, r5, r0, lsl #20
    1cdc:	05f41700 	ldrbeq	r1, [r4, #1792]!	; 0x700
    1ce0:	5b010000 	blpl	41ce8 <__bss_end__+0x384e8>
    1ce4:	00002c01 	andeq	r2, r0, r1, lsl #24
    1ce8:	0015c600 	andseq	ip, r5, r0, lsl #12
    1cec:	8eb81800 	cdphi	8, 11, cr1, cr8, cr0, {0}
    1cf0:	001c0000 	andseq	r0, ip, r0
    1cf4:	05370000 	ldreq	r0, [r7, #-0]!
    1cf8:	c7170000 	ldrgt	r0, [r7, -r0]
    1cfc:	01000006 	tsteq	r0, r6
    1d00:	002c0152 	eoreq	r0, ip, r2, asr r1
    1d04:	15e40000 	strbne	r0, [r4, #0]!
    1d08:	c4110000 	ldrgt	r0, [r1], #-0
    1d0c:	4100008e 	smlabbmi	r0, lr, r0, r0
    1d10:	11000008 	tstne	r0, r8
    1d14:	00008ed4 	ldrdeq	r8, [r0], -r4
    1d18:	00000862 	andeq	r0, r0, r2, ror #16
    1d1c:	8ed81800 	cdphi	8, 13, cr1, cr8, cr0, {0}
    1d20:	00200000 	eoreq	r0, r0, r0
    1d24:	05670000 	strbeq	r0, [r7, #-0]!
    1d28:	c7170000 	ldrgt	r0, [r7, -r0]
    1d2c:	01000006 	tsteq	r0, r6
    1d30:	002c0156 	eoreq	r0, ip, r6, asr r1
    1d34:	16020000 	strne	r0, [r2], -r0
    1d38:	e4110000 	ldr	r0, [r1], #-0
    1d3c:	4100008e 	smlabbmi	r0, lr, r0, r0
    1d40:	11000008 	tstne	r0, r8
    1d44:	00008ef8 	strdeq	r8, [r0], -r8	; <UNPREDICTABLE>
    1d48:	00000862 	andeq	r0, r0, r2, ror #16
    1d4c:	8eb01100 	frdhis	f1, f0, f0
    1d50:	087e0000 	ldmdaeq	lr!, {}^	; <UNPREDICTABLE>
    1d54:	fc110000 	ldc2	0, cr0, [r1], {-0}
    1d58:	7e00008e 	cdpvc	0, 0, cr0, cr0, cr14, {4}
    1d5c:	11000008 	tstne	r0, r8
    1d60:	00008f08 	andeq	r8, r0, r8, lsl #30
    1d64:	00000841 	andeq	r0, r0, r1, asr #16
    1d68:	008f1411 	addeq	r1, pc, r1, lsl r4	; <UNPREDICTABLE>
    1d6c:	00086200 	andeq	r6, r8, r0, lsl #4
    1d70:	8f181100 	svchi	0x00181100
    1d74:	087e0000 	ldmdaeq	lr!, {}^	; <UNPREDICTABLE>
    1d78:	13000000 	movwne	r0, #0
    1d7c:	0000058c 	andeq	r0, r0, ip, lsl #11
    1d80:	64016501 	strvs	r6, [r1], #-1281	; 0x501
    1d84:	20000000 	andcs	r0, r0, r0
    1d88:	8400008f 	strhi	r0, [r0], #-143	; 0x8f
    1d8c:	01000000 	mrseq	r0, (UNDEF: 0)
    1d90:	00063b9c 	muleq	r6, ip, fp
    1d94:	69701600 	ldmdbvs	r0!, {r9, sl, ip}^
    1d98:	6501006e 	strvs	r0, [r1, #-110]	; 0x6e
    1d9c:	00002c01 	andeq	r2, r0, r1, lsl #24
    1da0:	00162000 	andseq	r2, r6, r0
    1da4:	8f3c1800 	svchi	0x003c1800
    1da8:	00240000 	eoreq	r0, r4, r0
    1dac:	05ef0000 	strbeq	r0, [pc, #0]!	; 1db4 <_start-0x624c>
    1db0:	0b170000 	bleq	5c1db8 <__bss_end__+0x5b85b8>
    1db4:	01000006 	tsteq	r0, r6
    1db8:	002c016c 	eoreq	r0, ip, ip, ror #2
    1dbc:	16620000 	strbtne	r0, [r2], -r0
    1dc0:	48110000 	ldmdami	r1, {}	; <UNPREDICTABLE>
    1dc4:	4100008f 	smlabbmi	r0, pc, r0, r0	; <UNPREDICTABLE>
    1dc8:	11000008 	tstne	r0, r8
    1dcc:	00008f58 	andeq	r8, r0, r8, asr pc
    1dd0:	0000087e 	andeq	r0, r0, lr, ror r8
    1dd4:	8f601800 	svchi	0x00601800
    1dd8:	002c0000 	eoreq	r0, ip, r0
    1ddc:	06280000 	strteq	r0, [r8], -r0
    1de0:	0b170000 	bleq	5c1de8 <__bss_end__+0x5b85e8>
    1de4:	01000006 	tsteq	r0, r6
    1de8:	002c016f 	eoreq	r0, ip, pc, ror #2
    1dec:	167c0000 	ldrbtne	r0, [ip], -r0
    1df0:	6c110000 	ldcvs	0, cr0, [r1], {-0}
    1df4:	4100008f 	smlabbmi	r0, pc, r0, r0	; <UNPREDICTABLE>
    1df8:	11000008 	tstne	r0, r8
    1dfc:	00008f78 	andeq	r8, r0, r8, ror pc
    1e00:	0000087e 	andeq	r0, r0, lr, ror r8
    1e04:	008f8411 	addeq	r8, pc, r1, lsl r4	; <UNPREDICTABLE>
    1e08:	00087e00 	andeq	r7, r8, r0, lsl #28
    1e0c:	34110000 	ldrcc	r0, [r1], #-0
    1e10:	7e00008f 	cdpvc	0, 0, cr0, cr0, cr15, {4}
    1e14:	11000008 	tstne	r0, r8
    1e18:	00008f90 	muleq	r0, r0, pc	; <UNPREDICTABLE>
    1e1c:	0000087e 	andeq	r0, r0, lr, ror r8
    1e20:	069a1500 	ldreq	r1, [sl], r0, lsl #10
    1e24:	78010000 	stmdavc	r1, {}	; <UNPREDICTABLE>
    1e28:	008fa401 	addeq	sl, pc, r1, lsl #8
    1e2c:	00005800 	andeq	r5, r0, r0, lsl #16
    1e30:	a09c0100 	addsge	r0, ip, r0, lsl #2
    1e34:	16000006 	strne	r0, [r0], -r6
    1e38:	006e6970 	rsbeq	r6, lr, r0, ror r9
    1e3c:	2c017801 	stccs	8, cr7, [r1], {1}
    1e40:	8f000000 	svchi	0x00000000
    1e44:	11000016 	tstne	r0, r6, lsl r0
    1e48:	00008fb8 			; <UNDEFINED> instruction: 0x00008fb8
    1e4c:	0000087e 	andeq	r0, r0, lr, ror r8
    1e50:	008fd40a 	addeq	sp, pc, sl, lsl #8
    1e54:	00086200 	andeq	r6, r8, r0, lsl #4
    1e58:	00068000 	andeq	r8, r6, r0
    1e5c:	51010b00 	tstpl	r1, r0, lsl #22
    1e60:	00743104 	rsbseq	r3, r4, r4, lsl #2
    1e64:	f00a0024 			; <UNDEFINED> instruction: 0xf00a0024
    1e68:	6200008f 	andvs	r0, r0, #143	; 0x8f
    1e6c:	96000008 	strls	r0, [r0], -r8
    1e70:	0b000006 	bleq	1e90 <_start-0x6170>
    1e74:	31045101 	tstcc	r4, r1, lsl #2
    1e78:	00240074 	eoreq	r0, r4, r4, ror r0
    1e7c:	008ff411 	addeq	pc, pc, r1, lsl r4	; <UNPREDICTABLE>
    1e80:	00087e00 	andeq	r7, r8, r0, lsl #28
    1e84:	53190000 	tstpl	r9, #0
    1e88:	01000006 	tsteq	r0, r6
    1e8c:	00013328 	andeq	r3, r1, r8, lsr #6
    1e90:	5c030500 	cfstr32pl	mvfx0, [r3], {-0}
    1e94:	19000092 	stmdbne	r0, {r1, r4, r7}
    1e98:	000006cf 	andeq	r0, r0, pc, asr #13
    1e9c:	01332901 	teqeq	r3, r1, lsl #18
    1ea0:	03050000 	movweq	r0, #20480	; 0x5000
    1ea4:	00009258 	andeq	r9, r0, r8, asr r2
    1ea8:	0007b019 	andeq	fp, r7, r9, lsl r0
    1eac:	332a0100 	teqcc	sl, #0, 2
    1eb0:	05000001 	streq	r0, [r0, #-1]
    1eb4:	00925403 	addseq	r5, r2, r3, lsl #8
    1eb8:	062b1900 	strteq	r1, [fp], -r0, lsl #18
    1ebc:	2c010000 	stccs	0, cr0, [r1], {-0}
    1ec0:	00000133 	andeq	r0, r0, r3, lsr r1
    1ec4:	92000305 	andls	r0, r0, #335544320	; 0x14000000
    1ec8:	33190000 	tstcc	r9, #0
    1ecc:	01000006 	tsteq	r0, r6
    1ed0:	0001332d 	andeq	r3, r1, sp, lsr #6
    1ed4:	04030500 	streq	r0, [r3], #-1280	; 0x500
    1ed8:	19000092 	stmdbne	r0, {r1, r4, r7}
    1edc:	000005a0 	andeq	r0, r0, r0, lsr #11
    1ee0:	01332e01 	teqeq	r3, r1, lsl #28
    1ee4:	03050000 	movweq	r0, #20480	; 0x5000
    1ee8:	00009208 	andeq	r9, r0, r8, lsl #4
    1eec:	00063b19 	andeq	r3, r6, r9, lsl fp
    1ef0:	332f0100 	teqcc	pc, #0, 2
    1ef4:	05000001 	streq	r0, [r0, #-1]
    1ef8:	00920c03 	addseq	r0, r2, r3, lsl #24
    1efc:	06431900 	strbeq	r1, [r3], -r0, lsl #18
    1f00:	30010000 	andcc	r0, r1, r0
    1f04:	00000133 	andeq	r0, r0, r3, lsr r1
    1f08:	92100305 	andsls	r0, r0, #335544320	; 0x14000000
    1f0c:	4b190000 	blmi	641f14 <__bss_end__+0x638714>
    1f10:	01000006 	tsteq	r0, r6
    1f14:	00013331 	andeq	r3, r1, r1, lsr r3
    1f18:	14030500 	strne	r0, [r3], #-1280	; 0x500
    1f1c:	19000092 	stmdbne	r0, {r1, r4, r7}
    1f20:	000005fd 	strdeq	r0, [r0], -sp
    1f24:	01333301 	teqeq	r3, r1, lsl #6
    1f28:	03050000 	movweq	r0, #20480	; 0x5000
    1f2c:	00009218 	andeq	r9, r0, r8, lsl r2
    1f30:	00060419 	andeq	r0, r6, r9, lsl r4
    1f34:	33340100 	teqcc	r4, #0, 2
    1f38:	05000001 	streq	r0, [r0, #-1]
    1f3c:	00921c03 	addseq	r1, r2, r3, lsl #24
    1f40:	05a81900 	streq	r1, [r8, #2304]!	; 0x900
    1f44:	36010000 	strcc	r0, [r1], -r0
    1f48:	00000133 	andeq	r0, r0, r3, lsr r1
    1f4c:	92200305 	eorls	r0, r0, #335544320	; 0x14000000
    1f50:	5e190000 	cdppl	0, 1, cr0, cr9, cr0, {0}
    1f54:	01000006 	tsteq	r0, r6
    1f58:	00013337 	andeq	r3, r1, r7, lsr r3
    1f5c:	24030500 	strcs	r0, [r3], #-1280	; 0x500
    1f60:	19000092 	stmdbne	r0, {r1, r4, r7}
    1f64:	00000614 	andeq	r0, r0, r4, lsl r6
    1f68:	01333901 	teqeq	r3, r1, lsl #18
    1f6c:	03050000 	movweq	r0, #20480	; 0x5000
    1f70:	00009228 	andeq	r9, r0, r8, lsr #4
    1f74:	00061b19 	andeq	r1, r6, r9, lsl fp
    1f78:	333a0100 	teqcc	sl, #0, 2
    1f7c:	05000001 	streq	r0, [r0, #-1]
    1f80:	00922c03 	addseq	r2, r2, r3, lsl #24
    1f84:	06ab1a00 	strteq	r1, [fp], r0, lsl #20
    1f88:	09010000 	stmdbeq	r1, {}	; <UNPREDICTABLE>
    1f8c:	00013301 	andeq	r3, r1, r1, lsl #6
    1f90:	50030500 	andpl	r0, r3, r0, lsl #10
    1f94:	1a000092 	bne	21e4 <_start-0x5e1c>
    1f98:	000006b9 			; <UNDEFINED> instruction: 0x000006b9
    1f9c:	33010a01 	movwcc	r0, #6657	; 0x1a01
    1fa0:	05000001 	streq	r0, [r0, #-1]
    1fa4:	00923003 	addseq	r3, r2, r3
    1fa8:	06ea1a00 	strbteq	r1, [sl], r0, lsl #20
    1fac:	0c010000 	stceq	0, cr0, [r1], {-0}
    1fb0:	00013301 	andeq	r3, r1, r1, lsl #6
    1fb4:	48030500 	stmdami	r3, {r8, sl}
    1fb8:	1a000092 	bne	2208 <_start-0x5df8>
    1fbc:	000006f1 	strdeq	r0, [r0], -r1
    1fc0:	33010d01 	movwcc	r0, #7425	; 0x1d01
    1fc4:	05000001 	streq	r0, [r0, #-1]
    1fc8:	00924c03 	addseq	r4, r2, r3, lsl #24
    1fcc:	068c1a00 	streq	r1, [ip], r0, lsl #20
    1fd0:	0f010000 	svceq	0x00010000
    1fd4:	00013301 	andeq	r3, r1, r1, lsl #6
    1fd8:	34030500 	strcc	r0, [r3], #-1280	; 0x500
    1fdc:	1a000092 	bne	222c <_start-0x5dd4>
    1fe0:	00000693 	muleq	r0, r3, r6
    1fe4:	33011001 	movwcc	r1, #4097	; 0x1001
    1fe8:	05000001 	streq	r0, [r0, #-1]
    1fec:	00923803 	addseq	r3, r2, r3, lsl #16
    1ff0:	07041a00 	streq	r1, [r4, -r0, lsl #20]
    1ff4:	12010000 	andne	r0, r1, #0
    1ff8:	00013301 	andeq	r3, r1, r1, lsl #6
    1ffc:	40030500 	andmi	r0, r3, r0, lsl #10
    2000:	1a000092 	bne	2250 <_start-0x5db0>
    2004:	0000070b 	andeq	r0, r0, fp, lsl #14
    2008:	33011301 	movwcc	r1, #4865	; 0x1301
    200c:	05000001 	streq	r0, [r0, #-1]
    2010:	00924403 	addseq	r4, r2, r3, lsl #8
    2014:	05af1a00 	streq	r1, [pc, #2560]!	; 2a1c <_start-0x55e4>
    2018:	15010000 	strne	r0, [r1, #-0]
    201c:	00013301 	andeq	r3, r1, r1, lsl #6
    2020:	3c030500 	cfstr32cc	mvfx0, [r3], {-0}
    2024:	1b000092 	blne	2274 <_start-0x5d8c>
    2028:	00000723 	andeq	r0, r0, r3, lsr #14
    202c:	002c2001 	eoreq	r2, ip, r1
    2030:	08560000 	ldmdaeq	r6, {}^	; <UNPREDICTABLE>
    2034:	561c0000 	ldrpl	r0, [ip], -r0
    2038:	00000008 	andeq	r0, r0, r8
    203c:	085c040d 	ldmdaeq	ip, {r0, r2, r3, sl}^
    2040:	611d0000 	tstvs	sp, r0
    2044:	1e000008 	cdpne	0, 0, cr0, cr0, cr8, {0}
    2048:	0002d31f 	andeq	sp, r2, pc, lsl r3
    204c:	781e0100 	ldmdavc	lr, {r8}
    2050:	1c000008 	stcne	0, cr0, [r0], {8}
    2054:	00000878 	andeq	r0, r0, r8, ror r8
    2058:	00002c1c 	andeq	r2, r0, ip, lsl ip
    205c:	040d0000 	streq	r0, [sp], #-0
    2060:	00000861 	andeq	r0, r0, r1, ror #16
    2064:	0002bd20 	andeq	fp, r2, r0, lsr #26
    2068:	008a0300 	addeq	r0, sl, r0, lsl #6
    206c:	000003ff 	strdeq	r0, [r0], -pc	; <UNPREDICTABLE>
    2070:	0c2e0004 	stceq	0, cr0, [lr], #-16
    2074:	01040000 	mrseq	r0, (UNDEF: 4)
    2078:	00000315 	andeq	r0, r0, r5, lsl r3
    207c:	00089501 	andeq	r9, r8, r1, lsl #10
    2080:	00038000 	andeq	r8, r3, r0
    2084:	008ffc00 	addeq	pc, pc, r0, lsl #24
    2088:	00015400 	andeq	r5, r1, r0, lsl #8
    208c:	0009e900 	andeq	lr, r9, r0, lsl #18
    2090:	05040200 	streq	r0, [r4, #-512]	; 0x200
    2094:	00746e69 	rsbseq	r6, r4, r9, ror #28
    2098:	42070403 	andmi	r0, r7, #50331648	; 0x3000000
    209c:	03000000 	movweq	r0, #0
    20a0:	00ce0601 	sbceq	r0, lr, r1, lsl #12
    20a4:	02030000 	andeq	r0, r3, #0
    20a8:	00017905 	andeq	r7, r1, r5, lsl #18
    20ac:	05040300 	streq	r0, [r4, #-768]	; 0x300
    20b0:	00000005 	andeq	r0, r0, r5
    20b4:	00050803 	andeq	r0, r5, r3, lsl #16
    20b8:	03000000 	movweq	r0, #0
    20bc:	00cc0801 	sbceq	r0, ip, r1, lsl #16
    20c0:	02030000 	andeq	r0, r3, #0
    20c4:	0000f907 	andeq	pc, r0, r7, lsl #18
    20c8:	07040300 	streq	r0, [r4, -r0, lsl #6]
    20cc:	0000003d 	andeq	r0, r0, sp, lsr r0
    20d0:	38070803 	stmdacc	r7, {r0, r1, fp}
    20d4:	03000000 	movweq	r0, #0
    20d8:	01830704 	orreq	r0, r3, r4, lsl #14
    20dc:	01030000 	mrseq	r0, (UNDEF: 3)
    20e0:	0000d508 	andeq	sp, r0, r8, lsl #10
    20e4:	02010400 	andeq	r0, r1, #0, 8
    20e8:	0000b20c 	andeq	fp, r0, ip, lsl #4
    20ec:	05c90500 	strbeq	r0, [r9, #1280]	; 0x500
    20f0:	05000000 	streq	r0, [r0, #-0]
    20f4:	00000712 	andeq	r0, r0, r2, lsl r7
    20f8:	074b0501 	strbeq	r0, [fp, -r1, lsl #10]
    20fc:	05040000 	streq	r0, [r4, #-0]
    2100:	0000075a 	andeq	r0, r0, sl, asr r7
    2104:	07690505 	strbeq	r0, [r9, -r5, lsl #10]!
    2108:	05060000 	streq	r0, [r6, #-0]
    210c:	00000778 	andeq	r0, r0, r8, ror r7
    2110:	07870507 	streq	r0, [r7, r7, lsl #10]
    2114:	05030000 	streq	r0, [r3, #-0]
    2118:	00000796 	muleq	r0, r6, r7
    211c:	3f060002 	svccc	0x00060002
    2120:	02000007 	andeq	r0, r0, #7
    2124:	00007915 	andeq	r7, r0, r5, lsl r9
    2128:	00e20700 	rsceq	r0, r2, r0, lsl #14
    212c:	37010000 	strcc	r0, [r1, -r0]
    2130:	00008ffc 	strdeq	r8, [r0], -ip
    2134:	0000009c 	muleq	r0, ip, r0
    2138:	01c39c01 	biceq	r9, r3, r1, lsl #24
    213c:	04080000 	streq	r0, [r8], #-0
    2140:	a8000090 	stmdage	r0, {r4, r7}
    2144:	09000003 	stmdbeq	r0, {r0, r1}
    2148:	00009010 	andeq	r9, r0, r0, lsl r0
    214c:	000003af 	andeq	r0, r0, pc, lsr #7
    2150:	000000f3 	strdeq	r0, [r0], -r3
    2154:	0151010a 	cmpeq	r1, sl, lsl #2
    2158:	50010a32 	andpl	r0, r1, r2, lsr sl
    215c:	09003e01 	stmdbeq	r0, {r0, r9, sl, fp, ip, sp}
    2160:	0000901c 	andeq	r9, r0, ip, lsl r0
    2164:	000003af 	andeq	r0, r0, pc, lsr #7
    2168:	0000010b 	andeq	r0, r0, fp, lsl #2
    216c:	0151010a 	cmpeq	r1, sl, lsl #2
    2170:	50010a32 	andpl	r0, r1, r2, lsr sl
    2174:	08003f01 	stmdaeq	r0, {r0, r8, r9, sl, fp, ip, sp}
    2178:	00009020 	andeq	r9, r0, r0, lsr #32
    217c:	000003a8 	andeq	r0, r0, r8, lsr #7
    2180:	00903009 	addseq	r3, r0, r9
    2184:	0003c500 	andeq	ip, r3, r0, lsl #10
    2188:	00012800 	andeq	r2, r1, r0, lsl #16
    218c:	50010a00 	andpl	r0, r1, r0, lsl #20
    2190:	00007502 	andeq	r7, r0, r2, lsl #10
    2194:	00903c09 	addseq	r3, r0, r9, lsl #24
    2198:	0003e600 	andeq	lr, r3, r0, lsl #12
    219c:	00013c00 	andeq	r3, r1, r0, lsl #24
    21a0:	50010a00 	andpl	r0, r1, r0, lsl #20
    21a4:	00007502 	andeq	r7, r0, r2, lsl #10
    21a8:	00904008 	addseq	r4, r0, r8
    21ac:	0003a800 	andeq	sl, r3, r0, lsl #16
    21b0:	904c0900 	subls	r0, ip, r0, lsl #18
    21b4:	03e60000 	mvneq	r0, #0
    21b8:	01580000 	cmpeq	r8, r0
    21bc:	010a0000 	mrseq	r0, (UNDEF: 10)
    21c0:	00300151 	eorseq	r0, r0, r1, asr r1
    21c4:	00905809 	addseq	r5, r0, r9, lsl #16
    21c8:	0003e600 	andeq	lr, r3, r0, lsl #12
    21cc:	00016b00 	andeq	r6, r1, r0, lsl #22
    21d0:	51010a00 	tstpl	r1, r0, lsl #20
    21d4:	09003001 	stmdbeq	r0, {r0, ip, sp}
    21d8:	00009064 	andeq	r9, r0, r4, rrx
    21dc:	000003e6 	andeq	r0, r0, r6, ror #7
    21e0:	0000017e 	andeq	r0, r0, lr, ror r1
    21e4:	0151010a 	cmpeq	r1, sl, lsl #2
    21e8:	70090036 	andvc	r0, r9, r6, lsr r0
    21ec:	e6000090 			; <UNDEFINED> instruction: 0xe6000090
    21f0:	91000003 	tstls	r0, r3
    21f4:	0a000001 	beq	2200 <_start-0x5e00>
    21f8:	33015101 	movwcc	r5, #4353	; 0x1101
    21fc:	907c0900 	rsbsls	r0, ip, r0, lsl #18
    2200:	03e60000 	mvneq	r0, #0
    2204:	01a60000 			; <UNDEFINED> instruction: 0x01a60000
    2208:	010a0000 	mrseq	r0, (UNDEF: 10)
    220c:	0e0a0351 	mcreq	3, 0, r0, cr10, cr1, {2}
    2210:	88090001 	stmdahi	r9, {r0}
    2214:	e6000090 			; <UNDEFINED> instruction: 0xe6000090
    2218:	b9000003 	stmdblt	r0, {r0, r1}
    221c:	0a000001 	beq	2228 <_start-0x5dd8>
    2220:	33015101 	movwcc	r5, #4353	; 0x1101
    2224:	908c0800 	addls	r0, ip, r0, lsl #16
    2228:	03a80000 			; <UNDEFINED> instruction: 0x03a80000
    222c:	0b000000 	bleq	2234 <_start-0x5dcc>
    2230:	000007e6 	andeq	r0, r0, r6, ror #15
    2234:	00255701 	eoreq	r5, r5, r1, lsl #14
    2238:	90980000 	addsls	r0, r8, r0
    223c:	001c0000 	andseq	r0, ip, r0
    2240:	9c010000 	stcls	0, cr0, [r1], {-0}
    2244:	000001e6 	andeq	r0, r0, r6, ror #3
    2248:	0090a808 	addseq	sl, r0, r8, lsl #16
    224c:	0003c500 	andeq	ip, r3, r0, lsl #10
    2250:	210b0000 	mrscs	r0, (UNDEF: 11)
    2254:	01000008 	tsteq	r0, r8
    2258:	0000255d 	andeq	r2, r0, sp, asr r5
    225c:	0090b400 	addseq	fp, r0, r0, lsl #8
    2260:	00002800 	andeq	r2, r0, r0, lsl #16
    2264:	129c0100 	addsne	r0, ip, #0, 2
    2268:	08000002 	stmdaeq	r0, {r1}
    226c:	000090bc 	strheq	r9, [r0], -ip
    2270:	000001c3 	andeq	r0, r0, r3, asr #3
    2274:	0090d008 	addseq	sp, r0, r8
    2278:	0003c500 	andeq	ip, r3, r0, lsl #10
    227c:	3a0b0000 	bcc	2c2284 <__bss_end__+0x2b8a84>
    2280:	01000008 	tsteq	r0, r8
    2284:	00002564 	andeq	r2, r0, r4, ror #10
    2288:	0090dc00 	addseq	sp, r0, r0, lsl #24
    228c:	00001c00 	andeq	r1, r0, r0, lsl #24
    2290:	359c0100 	ldrcc	r0, [ip, #256]	; 0x100
    2294:	08000002 	stmdaeq	r0, {r1}
    2298:	000090ec 	andeq	r9, r0, ip, ror #1
    229c:	000003c5 	andeq	r0, r0, r5, asr #7
    22a0:	088b0700 	stmeq	fp, {r8, r9, sl}
    22a4:	6a010000 	bvs	422ac <__bss_end__+0x38aac>
    22a8:	000090f8 	strdeq	r9, [r0], -r8
    22ac:	0000002c 	andeq	r0, r0, ip, lsr #32
    22b0:	02719c01 	rsbseq	r9, r1, #256	; 0x100
    22b4:	630c0000 	movwvs	r0, #49152	; 0xc000
    22b8:	2c6a0100 	stfcse	f0, [sl], #-0
    22bc:	bb000000 	bllt	22c4 <_start-0x5d3c>
    22c0:	08000016 	stmdaeq	r0, {r1, r2, r4}
    22c4:	00009104 	andeq	r9, r0, r4, lsl #2
    22c8:	00000212 	andeq	r0, r0, r2, lsl r2
    22cc:	00911c0d 	addseq	r1, r1, sp, lsl #24
    22d0:	0003e600 	andeq	lr, r3, r0, lsl #12
    22d4:	51010a00 	tstpl	r1, r0, lsl #20
    22d8:	00007402 	andeq	r7, r0, r2, lsl #8
    22dc:	08040b00 	stmdaeq	r4, {r8, r9, fp}
    22e0:	74010000 	strvc	r0, [r1], #-0
    22e4:	00000025 	andeq	r0, r0, r5, lsr #32
    22e8:	00009124 	andeq	r9, r0, r4, lsr #2
    22ec:	0000000c 	andeq	r0, r0, ip
    22f0:	02949c01 	addseq	r9, r4, #256	; 0x100
    22f4:	2c080000 	stccs	0, cr0, [r8], {-0}
    22f8:	c3000091 	movwgt	r0, #145	; 0x91
    22fc:	00000001 	andeq	r0, r0, r1
    2300:	0008c10b 	andeq	ip, r8, fp, lsl #2
    2304:	25780100 	ldrbcs	r0, [r8, #-256]!	; 0x100
    2308:	30000000 	andcc	r0, r0, r0
    230c:	20000091 	mulcs	r0, r1, r0
    2310:	01000000 	mrseq	r0, (UNDEF: 0)
    2314:	0002c09c 	muleq	r2, ip, r0
    2318:	91380800 	teqls	r8, r0, lsl #16
    231c:	02710000 	rsbseq	r0, r1, #0
    2320:	44080000 	strmi	r0, [r8], #-0
    2324:	e6000091 			; <UNDEFINED> instruction: 0xe6000091
    2328:	00000001 	andeq	r0, r0, r1
    232c:	0008540e 	andeq	r5, r8, lr, lsl #8
    2330:	d1160100 	tstle	r6, r0, lsl #2
    2334:	05000002 	streq	r0, [r0, #-2]
    2338:	00929003 	addseq	r9, r2, r3
    233c:	d7040f00 	strle	r0, [r4, -r0, lsl #30]
    2340:	10000002 	andne	r0, r0, r2
    2344:	0000002c 	andeq	r0, r0, ip, lsr #32
    2348:	0008480e 	andeq	r4, r8, lr, lsl #16
    234c:	d1170100 	tstle	r7, r0, lsl #2
    2350:	05000002 	streq	r0, [r0, #-2]
    2354:	00926003 	addseq	r6, r2, r3
    2358:	07c90e00 	strbeq	r0, [r9, r0, lsl #28]
    235c:	1a010000 	bne	42364 <__bss_end__+0x38b64>
    2360:	000002d1 	ldrdeq	r0, [r0], -r1
    2364:	927c0305 	rsbsls	r0, ip, #335544320	; 0x14000000
    2368:	120e0000 	andne	r0, lr, #0
    236c:	01000008 	tsteq	r0, r8
    2370:	0002d11b 	andeq	sp, r2, fp, lsl r1
    2374:	68030500 	stmdavs	r3, {r8, sl}
    2378:	0e000092 	mcreq	0, 0, r0, cr0, cr2, {4}
    237c:	0000082b 	andeq	r0, r0, fp, lsr #16
    2380:	02d11c01 	sbcseq	r1, r1, #256	; 0x100
    2384:	03050000 	movweq	r0, #20480	; 0x5000
    2388:	0000926c 	andeq	r9, r0, ip, ror #4
    238c:	0008a30e 	andeq	sl, r8, lr, lsl #6
    2390:	d11d0100 	tstle	sp, r0, lsl #2
    2394:	05000002 	streq	r0, [r0, #-2]
    2398:	00927003 	addseq	r7, r2, r3
    239c:	07ba0e00 	ldreq	r0, [sl, r0, lsl #28]!
    23a0:	1e010000 	cdpne	0, 0, cr0, cr1, cr0, {0}
    23a4:	000002d1 	ldrdeq	r0, [r0], -r1
    23a8:	928c0305 	addls	r0, ip, #335544320	; 0x14000000
    23ac:	b20e0000 	andlt	r0, lr, #0
    23b0:	01000008 	tsteq	r0, r8
    23b4:	0002d11f 	andeq	sp, r2, pc, lsl r1
    23b8:	78030500 	stmdavc	r3, {r8, sl}
    23bc:	0e000092 	mcreq	0, 0, r0, cr0, cr2, {4}
    23c0:	000007d7 	ldrdeq	r0, [r0], -r7
    23c4:	02d12001 	sbcseq	r2, r1, #1
    23c8:	03050000 	movweq	r0, #20480	; 0x5000
    23cc:	00009288 	andeq	r9, r0, r8, lsl #5
    23d0:	00087c0e 	andeq	r7, r8, lr, lsl #24
    23d4:	d1210100 	teqle	r1, r0, lsl #2
    23d8:	05000002 	streq	r0, [r0, #-2]
    23dc:	00928403 	addseq	r8, r2, r3, lsl #8
    23e0:	07f40e00 	ldrbeq	r0, [r4, r0, lsl #28]!
    23e4:	22010000 	andcs	r0, r1, #0
    23e8:	000002d1 	ldrdeq	r0, [r0], -r1
    23ec:	92640305 	rsbls	r0, r4, #335544320	; 0x14000000
    23f0:	6c0e0000 	stcvs	0, cr0, [lr], {-0}
    23f4:	01000008 	tsteq	r0, r8
    23f8:	0002d123 	andeq	sp, r2, r3, lsr #2
    23fc:	80030500 	andhi	r0, r3, r0, lsl #10
    2400:	0e000092 	mcreq	0, 0, r0, cr0, cr2, {4}
    2404:	0000085c 	andeq	r0, r0, ip, asr r8
    2408:	02d12401 	sbcseq	r2, r1, #16777216	; 0x1000000
    240c:	03050000 	movweq	r0, #20480	; 0x5000
    2410:	00009274 	andeq	r9, r0, r4, ror r2
    2414:	0002bd11 	andeq	fp, r2, r1, lsl sp
    2418:	128a0300 	addne	r0, sl, #0, 6
    241c:	0000067a 	andeq	r0, r0, sl, ror r6
    2420:	03c51902 	biceq	r1, r5, #32768	; 0x8000
    2424:	2c130000 	ldccs	0, cr0, [r3], {-0}
    2428:	13000000 	movwne	r0, #0
    242c:	000000b2 	strheq	r0, [r0], -r2
    2430:	07231400 	streq	r1, [r3, -r0, lsl #8]!
    2434:	a9030000 	stmdbge	r3, {}	; <UNPREDICTABLE>
    2438:	0000002c 	andeq	r0, r0, ip, lsr #32
    243c:	000003da 	ldrdeq	r0, [r0], -sl
    2440:	0003da13 	andeq	sp, r3, r3, lsl sl
    2444:	040f0000 	streq	r0, [pc], #-0	; 244c <_start-0x5bb4>
    2448:	000003e0 	andeq	r0, r0, r0, ror #7
    244c:	0003e515 	andeq	lr, r3, r5, lsl r5
    2450:	d3121600 	tstle	r2, #0, 12
    2454:	03000002 	movweq	r0, #2
    2458:	0003fc9d 	muleq	r3, sp, ip
    245c:	03fc1300 	mvnseq	r1, #0, 6
    2460:	2c130000 	ldccs	0, cr0, [r3], {-0}
    2464:	00000000 	andeq	r0, r0, r0
    2468:	03e5040f 	mvneq	r0, #251658240	; 0xf000000
    246c:	13000000 	movwne	r0, #0
    2470:	04000001 	streq	r0, [r0], #-1
    2474:	000d5c00 	andeq	r5, sp, r0, lsl #24
    2478:	15010400 	strne	r0, [r1, #-1024]	; 0x400
    247c:	01000003 	tsteq	r0, r3
    2480:	000008e2 	andeq	r0, r0, r2, ror #17
    2484:	00000380 	andeq	r0, r0, r0, lsl #7
    2488:	000091b4 			; <UNDEFINED> instruction: 0x000091b4
    248c:	0000003c 	andeq	r0, r0, ip, lsr r0
    2490:	00000aee 	andeq	r0, r0, lr, ror #21
    2494:	69050402 	stmdbvs	r5, {r1, sl}
    2498:	0300746e 	movweq	r7, #1134	; 0x46e
    249c:	00420704 	subeq	r0, r2, r4, lsl #14
    24a0:	01030000 	mrseq	r0, (UNDEF: 3)
    24a4:	0000ce06 	andeq	ip, r0, r6, lsl #28
    24a8:	05020300 	streq	r0, [r2, #-768]	; 0x300
    24ac:	00000179 	andeq	r0, r0, r9, ror r1
    24b0:	05050403 	streq	r0, [r5, #-1027]	; 0x403
    24b4:	03000000 	movweq	r0, #0
    24b8:	00000508 	andeq	r0, r0, r8, lsl #10
    24bc:	01030000 	mrseq	r0, (UNDEF: 3)
    24c0:	0000cc08 	andeq	ip, r0, r8, lsl #24
    24c4:	07020300 	streq	r0, [r2, -r0, lsl #6]
    24c8:	000000f9 	strdeq	r0, [r0], -r9
    24cc:	3d070403 	cfstrscc	mvf0, [r7, #-12]
    24d0:	03000000 	movweq	r0, #0
    24d4:	00380708 	eorseq	r0, r8, r8, lsl #14
    24d8:	04030000 	streq	r0, [r3], #-0
    24dc:	00018307 	andeq	r8, r1, r7, lsl #6
    24e0:	08010300 	stmdaeq	r1, {r8, r9}
    24e4:	000000d5 	ldrdeq	r0, [r0], -r5
    24e8:	0008d104 	andeq	sp, r8, r4, lsl #2
    24ec:	25030100 	strcs	r0, [r3, #-256]	; 0x100
    24f0:	b4000000 	strlt	r0, [r0], #-0
    24f4:	14000091 	strne	r0, [r0], #-145	; 0x91
    24f8:	01000000 	mrseq	r0, (UNDEF: 0)
    24fc:	0000b09c 	muleq	r0, ip, r0
    2500:	00630500 	rsbeq	r0, r3, r0, lsl #10
    2504:	00250301 	eoreq	r0, r5, r1, lsl #6
    2508:	16d90000 	ldrbne	r0, [r9], r0
    250c:	c0060000 	andgt	r0, r6, r0
    2510:	09000091 	stmdbeq	r0, {r0, r4, r7}
    2514:	07000001 	streq	r0, [r0, -r1]
    2518:	74025001 	strvc	r5, [r2], #-1
    251c:	08000000 	stmdaeq	r0, {}	; <UNPREDICTABLE>
    2520:	0000045b 	andeq	r0, r0, fp, asr r4
    2524:	91c80801 	bicls	r0, r8, r1, lsl #16
    2528:	00180000 	andseq	r0, r8, r0
    252c:	9c010000 	stcls	0, cr0, [r1], {-0}
    2530:	0008f109 	andeq	pc, r8, r9, lsl #2
    2534:	e00b0100 	and	r0, fp, r0, lsl #2
    2538:	10000091 	mulne	r0, r1, r0
    253c:	01000000 	mrseq	r0, (UNDEF: 0)
    2540:	0000e39c 	muleq	r0, ip, r3
    2544:	70660a00 	rsbvc	r0, r6, r0, lsl #20
    2548:	f20b0100 	vrhadd.s8	d0, d11, d0
    254c:	01000000 	mrseq	r0, (UNDEF: 0)
    2550:	250b0050 	strcs	r0, [fp, #-80]	; 0x50
    2554:	f2000000 	vhadd.s8	d0, d0, d0
    2558:	0c000000 	stceq	0, cr0, [r0], {-0}
    255c:	00000025 	andeq	r0, r0, r5, lsr #32
    2560:	e3040d00 	movw	r0, #19712	; 0x4d00
    2564:	0e000000 	cdpeq	0, 0, cr0, cr0, cr0, {0}
    2568:	000003e8 	andeq	r0, r0, r8, ror #7
    256c:	00f20601 	rscseq	r0, r2, r1, lsl #12
    2570:	03050000 	movweq	r0, #20480	; 0x5000
    2574:	00009294 	muleq	r0, r4, r2
    2578:	00088b0f 	andeq	r8, r8, pc, lsl #22
    257c:	0c3c0200 	lfmeq	f0, 4, [ip], #-0
    2580:	0000002c 	andeq	r0, r0, ip, lsr #32
	...

Disassembly of section .debug_abbrev:

00000000 <.debug_abbrev>:
   0:	25011101 	strcs	r1, [r1, #-257]	; 0x101
   4:	030b130e 	movweq	r1, #45838	; 0xb30e
   8:	110e1b0e 	tstne	lr, lr, lsl #22
   c:	10061201 	andne	r1, r6, r1, lsl #4
  10:	02000017 	andeq	r0, r0, #23
  14:	0b0b0024 	bleq	2c00ac <__bss_end__+0x2b68ac>
  18:	08030b3e 	stmdaeq	r3, {r1, r2, r3, r4, r5, r8, r9, fp}
  1c:	24030000 	strcs	r0, [r3], #-0
  20:	3e0b0b00 	vmlacc.f64	d0, d11, d0
  24:	000e030b 	andeq	r0, lr, fp, lsl #6
  28:	000f0400 	andeq	r0, pc, r0, lsl #8
  2c:	13490b0b 	movtne	r0, #39691	; 0x9b0b
  30:	26050000 	strcs	r0, [r5], -r0
  34:	00134900 	andseq	r4, r3, r0, lsl #18
  38:	01130600 	tsteq	r3, r0, lsl #12
  3c:	0b3a0b0b 	bleq	e82c70 <__bss_end__+0xe79470>
  40:	13010b3b 	movwne	r0, #6971	; 0x1b3b
  44:	0d070000 	stceq	0, cr0, [r7, #-0]
  48:	3a0e0300 	bcc	380c50 <__bss_end__+0x377450>
  4c:	490b3b0b 	stmdbmi	fp, {r0, r1, r3, r8, r9, fp, ip, sp}
  50:	000b3813 	andeq	r3, fp, r3, lsl r8
  54:	00160800 	andseq	r0, r6, r0, lsl #16
  58:	0b3a0e03 	bleq	e8386c <__bss_end__+0xe7a06c>
  5c:	13490b3b 	movtne	r0, #39739	; 0x9b3b
  60:	2e090000 	cdpcs	0, 0, cr0, cr9, cr0, {0}
  64:	03193f01 	tsteq	r9, #1, 30
  68:	3b0b3a0e 	blcc	2ce8a8 <__bss_end__+0x2c50a8>
  6c:	1119270b 	tstne	r9, fp, lsl #14
  70:	40061201 	andmi	r1, r6, r1, lsl #4
  74:	19429718 	stmdbne	r2, {r3, r4, r8, r9, sl, ip, pc}^
  78:	00001301 	andeq	r1, r0, r1, lsl #6
  7c:	0300340a 	movweq	r3, #1034	; 0x40a
  80:	3b0b3a0e 	blcc	2ce8c0 <__bss_end__+0x2c50c0>
  84:	1c13490b 	ldcne	9, cr4, [r3], {11}
  88:	0b000005 	bleq	a4 <_start-0x7f5c>
  8c:	08030034 	stmdaeq	r3, {r2, r4, r5}
  90:	0b3b0b3a 	bleq	ec2d80 <__bss_end__+0xeb9580>
  94:	18021349 	stmdane	r2, {r0, r3, r6, r8, r9, ip}
  98:	0b0c0000 	bleq	3000a0 <__bss_end__+0x2f68a0>
  9c:	12011101 	andne	r1, r1, #1073741824	; 0x40000000
  a0:	00130106 	andseq	r0, r3, r6, lsl #2
  a4:	00340d00 	eorseq	r0, r4, r0, lsl #26
  a8:	0b3a0e03 	bleq	e838bc <__bss_end__+0xe7a0bc>
  ac:	13490b3b 	movtne	r0, #39739	; 0x9b3b
  b0:	00001702 	andeq	r1, r0, r2, lsl #14
  b4:	0300340e 	movweq	r3, #1038	; 0x40e
  b8:	3b0b3a08 	blcc	2ce8e0 <__bss_end__+0x2c50e0>
  bc:	0213490b 	andseq	r4, r3, #180224	; 0x2c000
  c0:	0f000017 	svceq	0x00000017
  c4:	01018289 	smlabbeq	r1, r9, r2, r8
  c8:	13310111 	teqne	r1, #1073741828	; 0x40000004
  cc:	00001301 	andeq	r1, r0, r1, lsl #6
  d0:	01828a10 	orreq	r8, r2, r0, lsl sl
  d4:	91180200 	tstls	r8, r0, lsl #4
  d8:	00001842 	andeq	r1, r0, r2, asr #16
  dc:	01828911 	orreq	r8, r2, r1, lsl r9
  e0:	31011101 	tstcc	r1, r1, lsl #2
  e4:	12000013 	andne	r0, r0, #19
  e8:	00018289 	andeq	r8, r1, r9, lsl #5
  ec:	13310111 	teqne	r1, #1073741828	; 0x40000004
  f0:	2e130000 	cdpcs	0, 1, cr0, cr3, cr0, {0}
  f4:	03193f01 	tsteq	r9, #1, 30
  f8:	3b0b3a0e 	blcc	2ce938 <__bss_end__+0x2c5138>
  fc:	4919270b 	ldmdbmi	r9, {r0, r1, r3, r8, r9, sl, sp}
 100:	01193c13 	tsteq	r9, r3, lsl ip
 104:	14000013 	strne	r0, [r0], #-19
 108:	13490005 	movtne	r0, #36869	; 0x9005
 10c:	18150000 	ldmdane	r5, {}	; <UNPREDICTABLE>
 110:	16000000 	strne	r0, [r0], -r0
 114:	193f012e 	ldmdbne	pc!, {r1, r2, r3, r5, r8}	; <UNPREDICTABLE>
 118:	0b3a0e03 	bleq	e8392c <__bss_end__+0xe7a12c>
 11c:	19270b3b 	stmdbne	r7!, {r0, r1, r3, r4, r5, r8, r9, fp}
 120:	1301193c 	movwne	r1, #6460	; 0x193c
 124:	2e170000 	cdpcs	0, 1, cr0, cr7, cr0, {0}
 128:	03193f00 	tsteq	r9, #0, 30
 12c:	3b0b3a0e 	blcc	2ce96c <__bss_end__+0x2c516c>
 130:	3c19270b 	ldccc	7, cr2, [r9], {11}
 134:	00000019 	andeq	r0, r0, r9, lsl r0
 138:	25011101 	strcs	r1, [r1, #-257]	; 0x101
 13c:	030b130e 	movweq	r1, #45838	; 0xb30e
 140:	110e1b0e 	tstne	lr, lr, lsl #22
 144:	10061201 	andne	r1, r6, r1, lsl #4
 148:	02000017 	andeq	r0, r0, #23
 14c:	0b0b0024 	bleq	2c01e4 <__bss_end__+0x2b69e4>
 150:	08030b3e 	stmdaeq	r3, {r1, r2, r3, r4, r5, r8, r9, fp}
 154:	24030000 	strcs	r0, [r3], #-0
 158:	3e0b0b00 	vmlacc.f64	d0, d11, d0
 15c:	000e030b 	andeq	r0, lr, fp, lsl #6
 160:	01130400 	tsteq	r3, r0, lsl #8
 164:	0b3a0b0b 	bleq	e82d98 <__bss_end__+0xe79598>
 168:	13010b3b 	movwne	r0, #6971	; 0x1b3b
 16c:	0d050000 	stceq	0, cr0, [r5, #-0]
 170:	3a0e0300 	bcc	380d78 <__bss_end__+0x377578>
 174:	490b3b0b 	stmdbmi	fp, {r0, r1, r3, r8, r9, fp, ip, sp}
 178:	000b3813 	andeq	r3, fp, r3, lsl r8
 17c:	00160600 	andseq	r0, r6, r0, lsl #12
 180:	0b3a0e03 	bleq	e83994 <__bss_end__+0xe7a194>
 184:	13490b3b 	movtne	r0, #39739	; 0x9b3b
 188:	2e070000 	cdpcs	0, 0, cr0, cr7, cr0, {0}
 18c:	03193f01 	tsteq	r9, #1, 30
 190:	3b0b3a0e 	blcc	2ce9d0 <__bss_end__+0x2c51d0>
 194:	4919270b 	ldmdbmi	r9, {r0, r1, r3, r8, r9, sl, sp}
 198:	12011113 	andne	r1, r1, #-1073741820	; 0xc0000004
 19c:	97184006 	ldrls	r4, [r8, -r6]
 1a0:	13011942 	movwne	r1, #6466	; 0x1942
 1a4:	05080000 	streq	r0, [r8, #-0]
 1a8:	3a080300 	bcc	200db0 <__bss_end__+0x1f75b0>
 1ac:	490b3b0b 	stmdbmi	fp, {r0, r1, r3, r8, r9, fp, ip, sp}
 1b0:	00170213 	andseq	r0, r7, r3, lsl r2
 1b4:	00050900 	andeq	r0, r5, r0, lsl #18
 1b8:	0b3a0e03 	bleq	e839cc <__bss_end__+0xe7a1cc>
 1bc:	13490b3b 	movtne	r0, #39739	; 0x9b3b
 1c0:	00001702 	andeq	r1, r0, r2, lsl #14
 1c4:	11010b0a 	tstne	r1, sl, lsl #22
 1c8:	00061201 	andeq	r1, r6, r1, lsl #4
 1cc:	00340b00 	eorseq	r0, r4, r0, lsl #22
 1d0:	0b3a0e03 	bleq	e839e4 <__bss_end__+0xe7a1e4>
 1d4:	13490b3b 	movtne	r0, #39739	; 0x9b3b
 1d8:	00001702 	andeq	r1, r0, r2, lsl #14
 1dc:	0182890c 	orreq	r8, r2, ip, lsl #18
 1e0:	31011101 	tstcc	r1, r1, lsl #2
 1e4:	00130113 	andseq	r0, r3, r3, lsl r1
 1e8:	828a0d00 	addhi	r0, sl, #0, 26
 1ec:	18020001 	stmdane	r2, {r0}
 1f0:	00184291 	mulseq	r8, r1, r2
 1f4:	82890e00 	addhi	r0, r9, #0, 28
 1f8:	01110001 	tsteq	r1, r1
 1fc:	00001331 	andeq	r1, r0, r1, lsr r3
 200:	0300340f 	movweq	r3, #1039	; 0x40f
 204:	3b0b3a08 	blcc	2cea2c <__bss_end__+0x2c522c>
 208:	0213490b 	andseq	r4, r3, #180224	; 0x2c000
 20c:	10000017 	andne	r0, r0, r7, lsl r0
 210:	01018289 	smlabbeq	r1, r9, r2, r8
 214:	13310111 	teqne	r1, #1073741828	; 0x40000004
 218:	0f110000 	svceq	0x00110000
 21c:	490b0b00 	stmdbmi	fp, {r8, r9, fp}
 220:	12000013 	andne	r0, r0, #19
 224:	0e030034 	mcreq	0, 0, r0, cr3, cr4, {1}
 228:	0b3b0b3a 	bleq	ec2f18 <__bss_end__+0xeb9718>
 22c:	193f1349 	ldmdbne	pc!, {r0, r3, r6, r8, r9, ip}	; <UNPREDICTABLE>
 230:	00001802 	andeq	r1, r0, r2, lsl #16
 234:	3f012e13 	svccc	0x00012e13
 238:	3a0e0319 	bcc	380ea4 <__bss_end__+0x3776a4>
 23c:	270b3b0b 	strcs	r3, [fp, -fp, lsl #22]
 240:	3c134919 	ldccc	9, cr4, [r3], {25}
 244:	00130119 	andseq	r0, r3, r9, lsl r1
 248:	00051400 	andeq	r1, r5, r0, lsl #8
 24c:	00001349 	andeq	r1, r0, r9, asr #6
 250:	3f002e15 	svccc	0x00002e15
 254:	3a0e0319 	bcc	380ec0 <__bss_end__+0x3776c0>
 258:	270b3b0b 	strcs	r3, [fp, -fp, lsl #22]
 25c:	3c134919 	ldccc	9, cr4, [r3], {25}
 260:	16000019 			; <UNDEFINED> instruction: 0x16000019
 264:	193f012e 	ldmdbne	pc!, {r1, r2, r3, r5, r8}	; <UNPREDICTABLE>
 268:	0b3a0e03 	bleq	e83a7c <__bss_end__+0xe7a27c>
 26c:	19270b3b 	stmdbne	r7!, {r0, r1, r3, r4, r5, r8, r9, fp}
 270:	1301193c 	movwne	r1, #6460	; 0x193c
 274:	2e170000 	cdpcs	0, 1, cr0, cr7, cr0, {0}
 278:	03193f01 	tsteq	r9, #1, 30
 27c:	3b0b3a0e 	blcc	2ceabc <__bss_end__+0x2c52bc>
 280:	3c19270b 	ldccc	7, cr2, [r9], {11}
 284:	00000019 	andeq	r0, r0, r9, lsl r0
 288:	25011101 	strcs	r1, [r1, #-257]	; 0x101
 28c:	030b130e 	movweq	r1, #45838	; 0xb30e
 290:	110e1b0e 	tstne	lr, lr, lsl #22
 294:	10061201 	andne	r1, r6, r1, lsl #4
 298:	02000017 	andeq	r0, r0, #23
 29c:	0b0b0024 	bleq	2c0334 <__bss_end__+0x2b6b34>
 2a0:	08030b3e 	stmdaeq	r3, {r1, r2, r3, r4, r5, r8, r9, fp}
 2a4:	24030000 	strcs	r0, [r3], #-0
 2a8:	3e0b0b00 	vmlacc.f64	d0, d11, d0
 2ac:	000e030b 	andeq	r0, lr, fp, lsl #6
 2b0:	012e0400 	teqeq	lr, r0, lsl #8
 2b4:	0e03193f 	mcreq	9, 0, r1, cr3, cr15, {1}
 2b8:	0b3b0b3a 	bleq	ec2fa8 <__bss_end__+0xeb97a8>
 2bc:	01111927 	tsteq	r1, r7, lsr #18
 2c0:	18400612 	stmdane	r0, {r1, r4, r9, sl}^
 2c4:	01194297 			; <UNDEFINED> instruction: 0x01194297
 2c8:	05000013 	streq	r0, [r0, #-19]
 2cc:	08030005 	stmdaeq	r3, {r0, r2}
 2d0:	0b3b0b3a 	bleq	ec2fc0 <__bss_end__+0xeb97c0>
 2d4:	17021349 	strne	r1, [r2, -r9, asr #6]
 2d8:	34060000 	strcc	r0, [r6], #-0
 2dc:	3a0e0300 	bcc	380ee4 <__bss_end__+0x3776e4>
 2e0:	490b3b0b 	stmdbmi	fp, {r0, r1, r3, r8, r9, fp, ip, sp}
 2e4:	00170213 	andseq	r0, r7, r3, lsl r2
 2e8:	00340700 	eorseq	r0, r4, r0, lsl #14
 2ec:	0b3a0e03 	bleq	e83b00 <__bss_end__+0xe7a300>
 2f0:	13490b3b 	movtne	r0, #39739	; 0x9b3b
 2f4:	00001802 	andeq	r1, r0, r2, lsl #16
 2f8:	01828908 	orreq	r8, r2, r8, lsl #18
 2fc:	31011100 	mrscc	r1, (UNDEF: 17)
 300:	09000013 	stmdbeq	r0, {r0, r1, r4}
 304:	01018289 	smlabbeq	r1, r9, r2, r8
 308:	13310111 	teqne	r1, #1073741828	; 0x40000004
 30c:	00001301 	andeq	r1, r0, r1, lsl #6
 310:	01828a0a 	orreq	r8, r2, sl, lsl #20
 314:	91180200 	tstls	r8, r0, lsl #4
 318:	00001842 	andeq	r1, r0, r2, asr #16
 31c:	0b000f0b 	bleq	3f50 <_start-0x40b0>
 320:	0013490b 	andseq	r4, r3, fp, lsl #18
 324:	00350c00 	eorseq	r0, r5, r0, lsl #24
 328:	00001349 	andeq	r1, r0, r9, asr #6
 32c:	0300340d 	movweq	r3, #1037	; 0x40d
 330:	3b0b3a0e 	blcc	2ceb70 <__bss_end__+0x2c5370>
 334:	3f13490b 	svccc	0x0013490b
 338:	00180219 	andseq	r0, r8, r9, lsl r2
 33c:	002e0e00 	eoreq	r0, lr, r0, lsl #28
 340:	0e03193f 	mcreq	9, 0, r1, cr3, cr15, {1}
 344:	0b3b0b3a 	bleq	ec3034 <__bss_end__+0xeb9834>
 348:	193c1927 	ldmdbne	ip!, {r0, r1, r2, r5, r8, fp, ip}
 34c:	2e0f0000 	cdpcs	0, 0, cr0, cr15, cr0, {0}
 350:	03193f01 	tsteq	r9, #1, 30
 354:	3b0b3a0e 	blcc	2ceb94 <__bss_end__+0x2c5394>
 358:	3c19270b 	ldccc	7, cr2, [r9], {11}
 35c:	00130119 	andseq	r0, r3, r9, lsl r1
 360:	00051000 	andeq	r1, r5, r0
 364:	00001349 	andeq	r1, r0, r9, asr #6
 368:	00003511 	andeq	r3, r0, r1, lsl r5
 36c:	012e1200 	teqeq	lr, r0, lsl #4
 370:	0e03193f 	mcreq	9, 0, r1, cr3, cr15, {1}
 374:	0b3b0b3a 	bleq	ec3064 <__bss_end__+0xeb9864>
 378:	193c1927 	ldmdbne	ip!, {r0, r1, r2, r5, r8, fp, ip}
 37c:	01000000 	mrseq	r0, (UNDEF: 0)
 380:	0e250111 	mcreq	1, 1, r0, cr5, cr1, {0}
 384:	0e030b13 	vmoveq.32	d3[0], r0
 388:	01110e1b 	tsteq	r1, fp, lsl lr
 38c:	17100612 			; <UNDEFINED> instruction: 0x17100612
 390:	16020000 	strne	r0, [r2], -r0
 394:	3a0e0300 	bcc	380f9c <__bss_end__+0x37779c>
 398:	490b3b0b 	stmdbmi	fp, {r0, r1, r3, r8, r9, fp, ip, sp}
 39c:	03000013 	movweq	r0, #19
 3a0:	0e030113 	mcreq	1, 0, r0, cr3, cr3, {0}
 3a4:	0b3a0b0b 	bleq	e82fd8 <__bss_end__+0xe797d8>
 3a8:	13010b3b 	movwne	r0, #6971	; 0x1b3b
 3ac:	0d040000 	stceq	0, cr0, [r4, #-0]
 3b0:	490e0300 	stmdbmi	lr, {r8, r9}
 3b4:	340b3813 	strcc	r3, [fp], #-2067	; 0x813
 3b8:	05000019 	streq	r0, [r0, #-25]
 3bc:	0b0b000f 	bleq	2c0400 <__bss_end__+0x2b6c00>
 3c0:	24060000 	strcs	r0, [r6], #-0
 3c4:	3e0b0b00 	vmlacc.f64	d0, d11, d0
 3c8:	0008030b 	andeq	r0, r8, fp, lsl #6
 3cc:	00240700 	eoreq	r0, r4, r0, lsl #14
 3d0:	0b3e0b0b 	bleq	f83004 <__bss_end__+0xf79804>
 3d4:	00000e03 	andeq	r0, r0, r3, lsl #28
 3d8:	0b000f08 	bleq	4000 <_start-0x4000>
 3dc:	0013490b 	andseq	r4, r3, fp, lsl #18
 3e0:	00260900 	eoreq	r0, r6, r0, lsl #18
 3e4:	00001349 	andeq	r1, r0, r9, asr #6
 3e8:	3f012e0a 	svccc	0x00012e0a
 3ec:	3a0e0319 	bcc	381058 <__bss_end__+0x377858>
 3f0:	270b3b0b 	strcs	r3, [fp, -fp, lsl #22]
 3f4:	11134919 	tstne	r3, r9, lsl r9
 3f8:	40061201 	andmi	r1, r6, r1, lsl #4
 3fc:	19429718 	stmdbne	r2, {r3, r4, r8, r9, sl, ip, pc}^
 400:	00001301 	andeq	r1, r0, r1, lsl #6
 404:	0300050b 	movweq	r0, #1291	; 0x50b
 408:	3b0b3a08 	blcc	2cec30 <__bss_end__+0x2c5430>
 40c:	0213490b 	andseq	r4, r3, #180224	; 0x2c000
 410:	0c000018 	stceq	0, cr0, [r0], {24}
 414:	00000018 	andeq	r0, r0, r8, lsl r0
 418:	0300340d 	movweq	r3, #1037	; 0x40d
 41c:	3b0b3a08 	blcc	2cec44 <__bss_end__+0x2c5444>
 420:	0213490b 	andseq	r4, r3, #180224	; 0x2c000
 424:	0e000018 	mcreq	0, 0, r0, cr0, cr8, {0}
 428:	0e030034 	mcreq	0, 0, r0, cr3, cr4, {1}
 42c:	0b3b0b3a 	bleq	ec311c <__bss_end__+0xeb991c>
 430:	18021349 	stmdane	r2, {r0, r3, r6, r8, r9, ip}
 434:	340f0000 	strcc	r0, [pc], #-0	; 43c <_start-0x7bc4>
 438:	3a080300 	bcc	201040 <__bss_end__+0x1f7840>
 43c:	490b3b0b 	stmdbmi	fp, {r0, r1, r3, r8, r9, fp, ip, sp}
 440:	00170213 	andseq	r0, r7, r3, lsl r2
 444:	82891000 	addhi	r1, r9, #0
 448:	01110101 	tsteq	r1, r1, lsl #2
 44c:	13011331 	movwne	r1, #4913	; 0x1331
 450:	8a110000 	bhi	440458 <__bss_end__+0x436c58>
 454:	02000182 	andeq	r0, r0, #-2147483616	; 0x80000020
 458:	18429118 	stmdane	r2, {r3, r4, r8, ip, pc}^
 45c:	89120000 	ldmdbhi	r2, {}	; <UNPREDICTABLE>
 460:	11010182 	smlabbne	r1, r2, r1, r0
 464:	13000001 	movwne	r0, #1
 468:	13490101 	movtne	r0, #37121	; 0x9101
 46c:	00001301 	andeq	r1, r0, r1, lsl #6
 470:	49002114 	stmdbmi	r0, {r2, r4, r8, sp}
 474:	00052f13 	andeq	r2, r5, r3, lsl pc
 478:	01151500 	tsteq	r5, r0, lsl #10
 47c:	13491927 	movtne	r1, #39207	; 0x9927
 480:	00001301 	andeq	r1, r0, r1, lsl #6
 484:	49000516 	stmdbmi	r0, {r1, r2, r4, r8, sl}
 488:	17000013 	smladne	r0, r3, r0, r0
 48c:	0e030034 	mcreq	0, 0, r0, cr3, cr4, {1}
 490:	0b3b0b3a 	bleq	ec3180 <__bss_end__+0xeb9980>
 494:	193f1349 	ldmdbne	pc!, {r0, r3, r6, r8, r9, ip}	; <UNPREDICTABLE>
 498:	0000193c 	andeq	r1, r0, ip, lsr r9
 49c:	3f012e18 	svccc	0x00012e18
 4a0:	3a0e0319 	bcc	38110c <__bss_end__+0x37790c>
 4a4:	270b3b0b 	strcs	r3, [fp, -fp, lsl #22]
 4a8:	3c134919 	ldccc	9, cr4, [r3], {25}
 4ac:	00000019 	andeq	r0, r0, r9, lsl r0
 4b0:	25011101 	strcs	r1, [r1, #-257]	; 0x101
 4b4:	030b130e 	movweq	r1, #45838	; 0xb30e
 4b8:	110e1b0e 	tstne	lr, lr, lsl #22
 4bc:	10061201 	andne	r1, r6, r1, lsl #4
 4c0:	02000017 	andeq	r0, r0, #23
 4c4:	0b0b0024 	bleq	2c055c <__bss_end__+0x2b6d5c>
 4c8:	08030b3e 	stmdaeq	r3, {r1, r2, r3, r4, r5, r8, r9, fp}
 4cc:	24030000 	strcs	r0, [r3], #-0
 4d0:	3e0b0b00 	vmlacc.f64	d0, d11, d0
 4d4:	000e030b 	andeq	r0, lr, fp, lsl #6
 4d8:	000f0400 	andeq	r0, pc, r0, lsl #8
 4dc:	13490b0b 	movtne	r0, #39691	; 0x9b0b
 4e0:	26050000 	strcs	r0, [r5], -r0
 4e4:	00134900 	andseq	r4, r3, r0, lsl #18
 4e8:	012e0600 	teqeq	lr, r0, lsl #12
 4ec:	0e03193f 	mcreq	9, 0, r1, cr3, cr15, {1}
 4f0:	0b3b0b3a 	bleq	ec31e0 <__bss_end__+0xeb99e0>
 4f4:	13491927 	movtne	r1, #39207	; 0x9927
 4f8:	06120111 			; <UNDEFINED> instruction: 0x06120111
 4fc:	42961840 	addsmi	r1, r6, #64, 16	; 0x400000
 500:	00130119 	andseq	r0, r3, r9, lsl r1
 504:	00050700 	andeq	r0, r5, r0, lsl #14
 508:	0b3a0803 	bleq	e8251c <__bss_end__+0xe78d1c>
 50c:	13490b3b 	movtne	r0, #39739	; 0x9b3b
 510:	00001702 	andeq	r1, r0, r2, lsl #14
 514:	27011508 	strcs	r1, [r1, -r8, lsl #10]
 518:	01134919 	tsteq	r3, r9, lsl r9
 51c:	09000013 	stmdbeq	r0, {r0, r1, r4}
 520:	13490005 	movtne	r0, #36869	; 0x9005
 524:	340a0000 	strcc	r0, [sl], #-0
 528:	3a0e0300 	bcc	381130 <__bss_end__+0x377930>
 52c:	490b3b0b 	stmdbmi	fp, {r0, r1, r3, r8, r9, fp, ip, sp}
 530:	3c193f13 	ldccc	15, cr3, [r9], {19}
 534:	0b000019 	bleq	5a0 <_start-0x7a60>
 538:	0e030034 	mcreq	0, 0, r0, cr3, cr4, {1}
 53c:	0b3b0b3a 	bleq	ec322c <__bss_end__+0xeb9a2c>
 540:	193f1349 	ldmdbne	pc!, {r0, r3, r6, r8, r9, ip}	; <UNPREDICTABLE>
 544:	00001802 	andeq	r1, r0, r2, lsl #16
 548:	01110100 	tsteq	r1, r0, lsl #2
 54c:	0b130e25 	bleq	4c3de8 <__bss_end__+0x4ba5e8>
 550:	0e1b0e03 	cdpeq	14, 1, cr0, cr11, cr3, {0}
 554:	06120111 			; <UNDEFINED> instruction: 0x06120111
 558:	00001710 	andeq	r1, r0, r0, lsl r7
 55c:	0b002402 	bleq	956c <buf.4219+0x170>
 560:	030b3e0b 	movweq	r3, #48651	; 0xbe0b
 564:	03000008 	movweq	r0, #8
 568:	0b0b0024 	bleq	2c0600 <__bss_end__+0x2b6e00>
 56c:	0e030b3e 	vmoveq.16	d3[0], r0
 570:	0f040000 	svceq	0x00040000
 574:	000b0b00 	andeq	r0, fp, r0, lsl #22
 578:	000f0500 	andeq	r0, pc, r0, lsl #10
 57c:	13490b0b 	movtne	r0, #39691	; 0x9b0b
 580:	26060000 	strcs	r0, [r6], -r0
 584:	00134900 	andseq	r4, r3, r0, lsl #18
 588:	00160700 	andseq	r0, r6, r0, lsl #14
 58c:	0b3a0e03 	bleq	e83da0 <__bss_end__+0xe7a5a0>
 590:	13490b3b 	movtne	r0, #39739	; 0x9b3b
 594:	13080000 	movwne	r0, #32768	; 0x8000
 598:	0b0e0301 	bleq	3811a4 <__bss_end__+0x3779a4>
 59c:	3b0b3a0b 	blcc	2cedd0 <__bss_end__+0x2c55d0>
 5a0:	0013010b 	andseq	r0, r3, fp, lsl #2
 5a4:	000d0900 	andeq	r0, sp, r0, lsl #18
 5a8:	13490e03 	movtne	r0, #40451	; 0x9e03
 5ac:	19340b38 	ldmdbne	r4!, {r3, r4, r5, r8, r9, fp}
 5b0:	2e0a0000 	cdpcs	0, 0, cr0, cr10, cr0, {0}
 5b4:	3a0e0301 	bcc	3811c0 <__bss_end__+0x3779c0>
 5b8:	270b3b0b 	strcs	r3, [fp, -fp, lsl #22]
 5bc:	11134919 	tstne	r3, r9, lsl r9
 5c0:	40061201 	andmi	r1, r6, r1, lsl #4
 5c4:	19429718 	stmdbne	r2, {r3, r4, r8, r9, sl, ip, pc}^
 5c8:	00001301 	andeq	r1, r0, r1, lsl #6
 5cc:	0300050b 	movweq	r0, #1291	; 0x50b
 5d0:	3b0b3a08 	blcc	2cedf8 <__bss_end__+0x2c55f8>
 5d4:	0213490b 	andseq	r4, r3, #180224	; 0x2c000
 5d8:	0c000017 	stceq	0, cr0, [r0], {23}
 5dc:	0803012e 	stmdaeq	r3, {r1, r2, r3, r5, r8}
 5e0:	0b3b0b3a 	bleq	ec32d0 <__bss_end__+0xeb9ad0>
 5e4:	13491927 	movtne	r1, #39207	; 0x9927
 5e8:	06120111 			; <UNDEFINED> instruction: 0x06120111
 5ec:	42971840 	addsmi	r1, r7, #64, 16	; 0x400000
 5f0:	00130119 	andseq	r0, r3, r9, lsl r1
 5f4:	00050d00 	andeq	r0, r5, r0, lsl #26
 5f8:	0b3a0e03 	bleq	e83e0c <__bss_end__+0xe7a60c>
 5fc:	13490b3b 	movtne	r0, #39739	; 0x9b3b
 600:	00001702 	andeq	r1, r0, r2, lsl #14
 604:	0300050e 	movweq	r0, #1294	; 0x50e
 608:	3b0b3a0e 	blcc	2cee48 <__bss_end__+0x2c5648>
 60c:	0213490b 	andseq	r4, r3, #180224	; 0x2c000
 610:	0f000018 	svceq	0x00000018
 614:	08030034 	stmdaeq	r3, {r2, r4, r5}
 618:	0b3b0b3a 	bleq	ec3308 <__bss_end__+0xeb9b08>
 61c:	18021349 	stmdane	r2, {r0, r3, r6, r8, r9, ip}
 620:	34100000 	ldrcc	r0, [r0], #-0
 624:	3a080300 	bcc	20122c <__bss_end__+0x1f7a2c>
 628:	490b3b0b 	stmdbmi	fp, {r0, r1, r3, r8, r9, fp, ip, sp}
 62c:	00170213 	andseq	r0, r7, r3, lsl r2
 630:	00341100 	eorseq	r1, r4, r0, lsl #2
 634:	13490e03 	movtne	r0, #40451	; 0x9e03
 638:	18021934 	stmdane	r2, {r2, r4, r5, r8, fp, ip}
 63c:	0b120000 	bleq	480644 <__bss_end__+0x476e44>
 640:	12011101 	andne	r1, r1, #1073741824	; 0x40000000
 644:	00130106 	andseq	r0, r3, r6, lsl #2
 648:	00341300 	eorseq	r1, r4, r0, lsl #6
 64c:	0b3a0e03 	bleq	e83e60 <__bss_end__+0xe7a660>
 650:	13490b3b 	movtne	r0, #39739	; 0x9b3b
 654:	00001702 	andeq	r1, r0, r2, lsl #14
 658:	01828914 	orreq	r8, r2, r4, lsl r9
 65c:	31011100 	mrscc	r1, (UNDEF: 17)
 660:	15000013 	strne	r0, [r0, #-19]
 664:	01018289 	smlabbeq	r1, r9, r2, r8
 668:	13310111 	teqne	r1, #1073741828	; 0x40000004
 66c:	00001301 	andeq	r1, r0, r1, lsl #6
 670:	01828a16 	orreq	r8, r2, r6, lsl sl
 674:	91180200 	tstls	r8, r0, lsl #4
 678:	00001842 	andeq	r1, r0, r2, asr #16
 67c:	01828917 	orreq	r8, r2, r7, lsl r9
 680:	31011101 	tstcc	r1, r1, lsl #2
 684:	18000013 	stmdane	r0, {r0, r1, r4}
 688:	13490101 	movtne	r0, #37121	; 0x9101
 68c:	00001301 	andeq	r1, r0, r1, lsl #6
 690:	49002119 	stmdbmi	r0, {r0, r3, r4, r8, sp}
 694:	000b2f13 	andeq	r2, fp, r3, lsl pc
 698:	012e1a00 	teqeq	lr, r0, lsl #20
 69c:	0e03193f 	mcreq	9, 0, r1, cr3, cr15, {1}
 6a0:	0b3b0b3a 	bleq	ec3390 <__bss_end__+0xeb9b90>
 6a4:	01111927 	tsteq	r1, r7, lsr #18
 6a8:	18400612 	stmdane	r0, {r1, r4, r9, sl}^
 6ac:	01194297 			; <UNDEFINED> instruction: 0x01194297
 6b0:	1b000013 	blne	704 <_start-0x78fc>
 6b4:	19270115 	stmdbne	r7!, {r0, r2, r4, r8}
 6b8:	13011349 	movwne	r1, #4937	; 0x1349
 6bc:	051c0000 	ldreq	r0, [ip, #-0]
 6c0:	00134900 	andseq	r4, r3, r0, lsl #18
 6c4:	012e1d00 	teqeq	lr, r0, lsl #26
 6c8:	0e03193f 	mcreq	9, 0, r1, cr3, cr15, {1}
 6cc:	0b3b0b3a 	bleq	ec33bc <__bss_end__+0xeb9bbc>
 6d0:	13491927 	movtne	r1, #39207	; 0x9927
 6d4:	06120111 			; <UNDEFINED> instruction: 0x06120111
 6d8:	42971840 	addsmi	r1, r7, #64, 16	; 0x400000
 6dc:	00130119 	andseq	r0, r3, r9, lsl r1
 6e0:	010b1e00 	tsteq	fp, r0, lsl #28
 6e4:	00001755 	andeq	r1, r0, r5, asr r7
 6e8:	0300341f 	movweq	r3, #1055	; 0x41f
 6ec:	3b0b3a0e 	blcc	2cef2c <__bss_end__+0x2c572c>
 6f0:	3f13490b 	svccc	0x0013490b
 6f4:	00193c19 	andseq	r3, r9, r9, lsl ip
 6f8:	002e2000 	eoreq	r2, lr, r0
 6fc:	0e03193f 	mcreq	9, 0, r1, cr3, cr15, {1}
 700:	0b3b0b3a 	bleq	ec33f0 <__bss_end__+0xeb9bf0>
 704:	193c1927 	ldmdbne	ip!, {r0, r1, r2, r5, r8, fp, ip}
 708:	2e210000 	cdpcs	0, 2, cr0, cr1, cr0, {0}
 70c:	03193f01 	tsteq	r9, #1, 30
 710:	3b0b3a0e 	blcc	2cef50 <__bss_end__+0x2c5750>
 714:	4919270b 	ldmdbmi	r9, {r0, r1, r3, r8, r9, sl, sp}
 718:	01193c13 	tsteq	r9, r3, lsl ip
 71c:	22000013 	andcs	r0, r0, #19
 720:	00000018 	andeq	r0, r0, r8, lsl r0
 724:	01110100 	tsteq	r1, r0, lsl #2
 728:	0b130e25 	bleq	4c3fc4 <__bss_end__+0x4ba7c4>
 72c:	0e1b0e03 	cdpeq	14, 1, cr0, cr11, cr3, {0}
 730:	06120111 			; <UNDEFINED> instruction: 0x06120111
 734:	00001710 	andeq	r1, r0, r0, lsl r7
 738:	0b002402 	bleq	9748 <buf.4219+0x34c>
 73c:	030b3e0b 	movweq	r3, #48651	; 0xbe0b
 740:	03000008 	movweq	r0, #8
 744:	0b0b0024 	bleq	2c07dc <__bss_end__+0x2b6fdc>
 748:	0e030b3e 	vmoveq.16	d3[0], r0
 74c:	0f040000 	svceq	0x00040000
 750:	490b0b00 	stmdbmi	fp, {r8, r9, fp}
 754:	05000013 	streq	r0, [r0, #-19]
 758:	13490026 	movtne	r0, #36902	; 0x9026
 75c:	2e060000 	cdpcs	0, 0, cr0, cr6, cr0, {0}
 760:	03193f01 	tsteq	r9, #1, 30
 764:	3b0b3a0e 	blcc	2cefa4 <__bss_end__+0x2c57a4>
 768:	1119270b 	tstne	r9, fp, lsl #14
 76c:	40061201 	andmi	r1, r6, r1, lsl #4
 770:	19429718 	stmdbne	r2, {r3, r4, r8, r9, sl, ip, pc}^
 774:	00001301 	andeq	r1, r0, r1, lsl #6
 778:	01828907 	orreq	r8, r2, r7, lsl #18
 77c:	01011101 	tsteq	r1, r1, lsl #2
 780:	08000013 	stmdaeq	r0, {r0, r1, r4}
 784:	0001828a 	andeq	r8, r1, sl, lsl #5
 788:	42911802 	addsmi	r1, r1, #131072	; 0x20000
 78c:	09000018 	stmdbeq	r0, {r3, r4}
 790:	01018289 	smlabbeq	r1, r9, r2, r8
 794:	13310111 	teqne	r1, #1073741828	; 0x40000004
 798:	00001301 	andeq	r1, r0, r1, lsl #6
 79c:	0182890a 	orreq	r8, r2, sl, lsl #18
 7a0:	31011100 	mrscc	r1, (UNDEF: 17)
 7a4:	0b000013 	bleq	7f8 <_start-0x7808>
 7a8:	19270115 	stmdbne	r7!, {r0, r2, r4, r8}
 7ac:	13011349 	movwne	r1, #4937	; 0x1349
 7b0:	050c0000 	streq	r0, [ip, #-0]
 7b4:	00134900 	andseq	r4, r3, r0, lsl #18
 7b8:	00340d00 	eorseq	r0, r4, r0, lsl #26
 7bc:	0b3a0e03 	bleq	e83fd0 <__bss_end__+0xe7a7d0>
 7c0:	13490b3b 	movtne	r0, #39739	; 0x9b3b
 7c4:	193c193f 	ldmdbne	ip!, {r0, r1, r2, r3, r4, r5, r8, fp, ip}
 7c8:	2e0e0000 	cdpcs	0, 0, cr0, cr14, cr0, {0}
 7cc:	03193f01 	tsteq	r9, #1, 30
 7d0:	3b0b3a0e 	blcc	2cf010 <__bss_end__+0x2c5810>
 7d4:	3c19270b 	ldccc	7, cr2, [r9], {11}
 7d8:	00130119 	andseq	r0, r3, r9, lsl r1
 7dc:	002e0f00 	eoreq	r0, lr, r0, lsl #30
 7e0:	0e03193f 	mcreq	9, 0, r1, cr3, cr15, {1}
 7e4:	0b3b0b3a 	bleq	ec34d4 <__bss_end__+0xeb9cd4>
 7e8:	193c1927 	ldmdbne	ip!, {r0, r1, r2, r5, r8, fp, ip}
 7ec:	01000000 	mrseq	r0, (UNDEF: 0)
 7f0:	0e250111 	mcreq	1, 1, r0, cr5, cr1, {0}
 7f4:	0e030b13 	vmoveq.32	d3[0], r0
 7f8:	01110e1b 	tsteq	r1, fp, lsl lr
 7fc:	17100612 			; <UNDEFINED> instruction: 0x17100612
 800:	24020000 	strcs	r0, [r2], #-0
 804:	3e0b0b00 	vmlacc.f64	d0, d11, d0
 808:	0008030b 	andeq	r0, r8, fp, lsl #6
 80c:	00240300 	eoreq	r0, r4, r0, lsl #6
 810:	0b3e0b0b 	bleq	f83444 <__bss_end__+0xf79c44>
 814:	00000e03 	andeq	r0, r0, r3, lsl #28
 818:	3f012e04 	svccc	0x00012e04
 81c:	3a0e0319 	bcc	381488 <__bss_end__+0x377c88>
 820:	110b3b0b 	tstne	fp, fp, lsl #22
 824:	40061201 	andmi	r1, r6, r1, lsl #4
 828:	19429718 	stmdbne	r2, {r3, r4, r8, r9, sl, ip, pc}^
 82c:	00001301 	andeq	r1, r0, r1, lsl #6
 830:	03003405 	movweq	r3, #1029	; 0x405
 834:	3b0b3a0e 	blcc	2cf074 <__bss_end__+0x2c5874>
 838:	3f13490b 	svccc	0x0013490b
 83c:	00193c19 	andseq	r3, r9, r9, lsl ip
 840:	002e0600 	eoreq	r0, lr, r0, lsl #12
 844:	0e03193f 	mcreq	9, 0, r1, cr3, cr15, {1}
 848:	0b3b0b3a 	bleq	ec3538 <__bss_end__+0xeb9d38>
 84c:	193c1927 	ldmdbne	ip!, {r0, r1, r2, r5, r8, fp, ip}
 850:	34070000 	strcc	r0, [r7], #-0
 854:	3a080300 	bcc	20145c <__bss_end__+0x1f7c5c>
 858:	490b3b0b 	stmdbmi	fp, {r0, r1, r3, r8, r9, fp, ip, sp}
 85c:	00170213 	andseq	r0, r7, r3, lsl r2
 860:	00340800 	eorseq	r0, r4, r0, lsl #16
 864:	0b3a0e03 	bleq	e84078 <__bss_end__+0xe7a878>
 868:	13490b3b 	movtne	r0, #39739	; 0x9b3b
 86c:	89090000 	stmdbhi	r9, {}	; <UNPREDICTABLE>
 870:	11000182 	smlabbne	r0, r2, r1, r0
 874:	00133101 	andseq	r3, r3, r1, lsl #2
 878:	000f0a00 	andeq	r0, pc, r0, lsl #20
 87c:	13490b0b 	movtne	r0, #39691	; 0x9b0b
 880:	01000000 	mrseq	r0, (UNDEF: 0)
 884:	0e250111 	mcreq	1, 1, r0, cr5, cr1, {0}
 888:	0e030b13 	vmoveq.32	d3[0], r0
 88c:	17550e1b 	smmlane	r5, fp, lr, r0
 890:	17100111 			; <UNDEFINED> instruction: 0x17100111
 894:	24020000 	strcs	r0, [r2], #-0
 898:	3e0b0b00 	vmlacc.f64	d0, d11, d0
 89c:	0008030b 	andeq	r0, r8, fp, lsl #6
 8a0:	00240300 	eoreq	r0, r4, r0, lsl #6
 8a4:	0b3e0b0b 	bleq	f834d8 <__bss_end__+0xf79cd8>
 8a8:	00000e03 	andeq	r0, r0, r3, lsl #28
 8ac:	3f012e04 	svccc	0x00012e04
 8b0:	3a0e0319 	bcc	38151c <__bss_end__+0x377d1c>
 8b4:	270b3b0b 	strcs	r3, [fp, -fp, lsl #22]
 8b8:	11134919 	tstne	r3, r9, lsl r9
 8bc:	40061201 	andmi	r1, r6, r1, lsl #4
 8c0:	19429718 	stmdbne	r2, {r3, r4, r8, r9, sl, ip, pc}^
 8c4:	00001301 	andeq	r1, r0, r1, lsl #6
 8c8:	03003405 	movweq	r3, #1029	; 0x405
 8cc:	3b0b3a0e 	blcc	2cf10c <__bss_end__+0x2c590c>
 8d0:	0213490b 	andseq	r4, r3, #180224	; 0x2c000
 8d4:	06000017 			; <UNDEFINED> instruction: 0x06000017
 8d8:	193f012e 	ldmdbne	pc!, {r1, r2, r3, r5, r8}	; <UNPREDICTABLE>
 8dc:	0b3a0e03 	bleq	e840f0 <__bss_end__+0xe7a8f0>
 8e0:	19270b3b 	stmdbne	r7!, {r0, r1, r3, r4, r5, r8, r9, fp}
 8e4:	06120111 			; <UNDEFINED> instruction: 0x06120111
 8e8:	42971840 	addsmi	r1, r7, #64, 16	; 0x400000
 8ec:	00130119 	andseq	r0, r3, r9, lsl r1
 8f0:	00340700 	eorseq	r0, r4, r0, lsl #14
 8f4:	0b3a0e03 	bleq	e84108 <__bss_end__+0xe7a908>
 8f8:	13490b3b 	movtne	r0, #39739	; 0x9b3b
 8fc:	0000061c 	andeq	r0, r0, ip, lsl r6
 900:	03003408 	movweq	r3, #1032	; 0x408
 904:	3b0b3a0e 	blcc	2cf144 <__bss_end__+0x2c5944>
 908:	1c13490b 	ldcne	9, cr4, [r3], {11}
 90c:	0900000b 	stmdbeq	r0, {r0, r1, r3}
 910:	00018289 	andeq	r8, r1, r9, lsl #5
 914:	13310111 	teqne	r1, #1073741828	; 0x40000004
 918:	890a0000 	stmdbhi	sl, {}	; <UNPREDICTABLE>
 91c:	11010182 	smlabbne	r1, r2, r1, r0
 920:	01133101 	tsteq	r3, r1, lsl #2
 924:	0b000013 	bleq	978 <_start-0x7688>
 928:	0001828a 	andeq	r8, r1, sl, lsl #5
 92c:	42911802 	addsmi	r1, r1, #131072	; 0x20000
 930:	0c000018 	stceq	0, cr0, [r0], {24}
 934:	01018289 	smlabbeq	r1, r9, r2, r8
 938:	13310111 	teqne	r1, #1073741828	; 0x40000004
 93c:	260d0000 	strcs	r0, [sp], -r0
 940:	00134900 	andseq	r4, r3, r0, lsl #18
 944:	012e0e00 	teqeq	lr, r0, lsl #28
 948:	0e03193f 	mcreq	9, 0, r1, cr3, cr15, {1}
 94c:	0b3b0b3a 	bleq	ec363c <__bss_end__+0xeb9e3c>
 950:	193c1927 	ldmdbne	ip!, {r0, r1, r2, r5, r8, fp, ip}
 954:	00001301 	andeq	r1, r0, r1, lsl #6
 958:	4900050f 	stmdbmi	r0, {r0, r1, r2, r3, r8, sl}
 95c:	10000013 	andne	r0, r0, r3, lsl r0
 960:	193f012e 	ldmdbne	pc!, {r1, r2, r3, r5, r8}	; <UNPREDICTABLE>
 964:	0b3a0e03 	bleq	e84178 <__bss_end__+0xe7a978>
 968:	19270b3b 	stmdbne	r7!, {r0, r1, r3, r4, r5, r8, r9, fp}
 96c:	0000193c 	andeq	r1, r0, ip, lsr r9
 970:	01110100 	tsteq	r1, r0, lsl #2
 974:	0b130e25 	bleq	4c4210 <__bss_end__+0x4baa10>
 978:	0e1b0e03 	cdpeq	14, 1, cr0, cr11, cr3, {0}
 97c:	06120111 			; <UNDEFINED> instruction: 0x06120111
 980:	00001710 	andeq	r1, r0, r0, lsl r7
 984:	0b002402 	bleq	9994 <__bss_end__+0x194>
 988:	030b3e0b 	movweq	r3, #48651	; 0xbe0b
 98c:	03000008 	movweq	r0, #8
 990:	0b0b0024 	bleq	2c0a28 <__bss_end__+0x2b7228>
 994:	0e030b3e 	vmoveq.16	d3[0], r0
 998:	2e040000 	cdpcs	0, 0, cr0, cr4, cr0, {0}
 99c:	03193f01 	tsteq	r9, #1, 30
 9a0:	3b0b3a0e 	blcc	2cf1e0 <__bss_end__+0x2c59e0>
 9a4:	1119270b 	tstne	r9, fp, lsl #14
 9a8:	40061201 	andmi	r1, r6, r1, lsl #4
 9ac:	19429718 	stmdbne	r2, {r3, r4, r8, r9, sl, ip, pc}^
 9b0:	00001301 	andeq	r1, r0, r1, lsl #6
 9b4:	03000505 	movweq	r0, #1285	; 0x505
 9b8:	3b0b3a0e 	blcc	2cf1f8 <__bss_end__+0x2c59f8>
 9bc:	0213490b 	andseq	r4, r3, #180224	; 0x2c000
 9c0:	06000017 			; <UNDEFINED> instruction: 0x06000017
 9c4:	193f012e 	ldmdbne	pc!, {r1, r2, r3, r5, r8}	; <UNPREDICTABLE>
 9c8:	0b3a0e03 	bleq	e841dc <__bss_end__+0xe7a9dc>
 9cc:	19270b3b 	stmdbne	r7!, {r0, r1, r3, r4, r5, r8, r9, fp}
 9d0:	01111349 	tsteq	r1, r9, asr #6
 9d4:	18400612 	stmdane	r0, {r1, r4, r9, sl}^
 9d8:	01194297 			; <UNDEFINED> instruction: 0x01194297
 9dc:	07000013 	smladeq	r0, r3, r0, r0
 9e0:	01018289 	smlabbeq	r1, r9, r2, r8
 9e4:	13310111 	teqne	r1, #1073741828	; 0x40000004
 9e8:	8a080000 	bhi	2009f0 <__bss_end__+0x1f71f0>
 9ec:	02000182 	andeq	r0, r0, #-2147483616	; 0x80000020
 9f0:	18429118 	stmdane	r2, {r3, r4, r8, ip, pc}^
 9f4:	34090000 	strcc	r0, [r9], #-0
 9f8:	3a080300 	bcc	201600 <__bss_end__+0x1f7e00>
 9fc:	490b3b0b 	stmdbmi	fp, {r0, r1, r3, r8, r9, fp, ip, sp}
 a00:	00180213 	andseq	r0, r8, r3, lsl r2
 a04:	82890a00 	addhi	r0, r9, #0, 20
 a08:	01110001 	tsteq	r1, r1
 a0c:	00001331 	andeq	r1, r0, r1, lsr r3
 a10:	0300050b 	movweq	r0, #1291	; 0x50b
 a14:	3b0b3a08 	blcc	2cf23c <__bss_end__+0x2c5a3c>
 a18:	0213490b 	andseq	r4, r3, #180224	; 0x2c000
 a1c:	0c000017 	stceq	0, cr0, [r0], {23}
 a20:	0111010b 	tsteq	r1, fp, lsl #2
 a24:	13010612 	movwne	r0, #5650	; 0x1612
 a28:	340d0000 	strcc	r0, [sp], #-0
 a2c:	3a080300 	bcc	201634 <__bss_end__+0x1f7e34>
 a30:	490b3b0b 	stmdbmi	fp, {r0, r1, r3, r8, r9, fp, ip, sp}
 a34:	00170213 	andseq	r0, r7, r3, lsl r2
 a38:	012e0e00 	teqeq	lr, r0, lsl #28
 a3c:	0e03193f 	mcreq	9, 0, r1, cr3, cr15, {1}
 a40:	0b3b0b3a 	bleq	ec3730 <__bss_end__+0xeb9f30>
 a44:	13491927 	movtne	r1, #39207	; 0x9927
 a48:	0000193c 	andeq	r1, r0, ip, lsr r9
 a4c:	4900050f 	stmdbmi	r0, {r0, r1, r2, r3, r8, sl}
 a50:	00000013 	andeq	r0, r0, r3, lsl r0
 a54:	25011101 	strcs	r1, [r1, #-257]	; 0x101
 a58:	030b130e 	movweq	r1, #45838	; 0xb30e
 a5c:	110e1b0e 	tstne	lr, lr, lsl #22
 a60:	10061201 	andne	r1, r6, r1, lsl #4
 a64:	02000017 	andeq	r0, r0, #23
 a68:	0b0b0024 	bleq	2c0b00 <__bss_end__+0x2b7300>
 a6c:	0e030b3e 	vmoveq.16	d3[0], r0
 a70:	24030000 	strcs	r0, [r3], #-0
 a74:	3e0b0b00 	vmlacc.f64	d0, d11, d0
 a78:	0008030b 	andeq	r0, r8, fp, lsl #6
 a7c:	01040400 	tsteq	r4, r0, lsl #8
 a80:	0b3a0b0b 	bleq	e836b4 <__bss_end__+0xe79eb4>
 a84:	13010b3b 	movwne	r0, #6971	; 0x1b3b
 a88:	28050000 	stmdacs	r5, {}	; <UNPREDICTABLE>
 a8c:	1c0e0300 	stcne	3, cr0, [lr], {-0}
 a90:	0600000d 	streq	r0, [r0], -sp
 a94:	0e030016 	mcreq	0, 0, r0, cr3, cr6, {0}
 a98:	0b3b0b3a 	bleq	ec3788 <__bss_end__+0xeb9f88>
 a9c:	00001349 	andeq	r1, r0, r9, asr #6
 aa0:	3f012e07 	svccc	0x00012e07
 aa4:	3a0e0319 	bcc	381710 <__bss_end__+0x377f10>
 aa8:	270b3b0b 	strcs	r3, [fp, -fp, lsl #22]
 aac:	12011119 	andne	r1, r1, #1073741830	; 0x40000006
 ab0:	97184006 	ldrls	r4, [r8, -r6]
 ab4:	13011942 	movwne	r1, #6466	; 0x1942
 ab8:	05080000 	streq	r0, [r8, #-0]
 abc:	3a080300 	bcc	2016c4 <__bss_end__+0x1f7ec4>
 ac0:	490b3b0b 	stmdbmi	fp, {r0, r1, r3, r8, r9, fp, ip, sp}
 ac4:	00170213 	andseq	r0, r7, r3, lsl r2
 ac8:	00340900 	eorseq	r0, r4, r0, lsl #18
 acc:	0b3a0e03 	bleq	e842e0 <__bss_end__+0xe7aae0>
 ad0:	13490b3b 	movtne	r0, #39739	; 0x9b3b
 ad4:	00001702 	andeq	r1, r0, r2, lsl #14
 ad8:	0182890a 	orreq	r8, r2, sl, lsl #18
 adc:	31011101 	tstcc	r1, r1, lsl #2
 ae0:	00130113 	andseq	r0, r3, r3, lsl r1
 ae4:	828a0b00 	addhi	r0, sl, #0, 22
 ae8:	18020001 	stmdane	r2, {r0}
 aec:	00184291 	mulseq	r8, r1, r2
 af0:	82890c00 	addhi	r0, r9, #0, 24
 af4:	01110101 	tsteq	r1, r1, lsl #2
 af8:	00001331 	andeq	r1, r0, r1, lsr r3
 afc:	0b000f0d 	bleq	4738 <_start-0x38c8>
 b00:	0013490b 	andseq	r4, r3, fp, lsl #18
 b04:	00350e00 	eorseq	r0, r5, r0, lsl #28
 b08:	00001349 	andeq	r1, r0, r9, asr #6
 b0c:	3f012e0f 	svccc	0x00012e0f
 b10:	3a0e0319 	bcc	38177c <__bss_end__+0x377f7c>
 b14:	270b3b0b 	strcs	r3, [fp, -fp, lsl #22]
 b18:	11134919 	tstne	r3, r9, lsl r9
 b1c:	40061201 	andmi	r1, r6, r1, lsl #4
 b20:	19429718 	stmdbne	r2, {r3, r4, r8, r9, sl, ip, pc}^
 b24:	00001301 	andeq	r1, r0, r1, lsl #6
 b28:	03003410 	movweq	r3, #1040	; 0x410
 b2c:	3b0b3a08 	blcc	2cf354 <__bss_end__+0x2c5b54>
 b30:	0213490b 	andseq	r4, r3, #180224	; 0x2c000
 b34:	11000017 	tstne	r0, r7, lsl r0
 b38:	00018289 	andeq	r8, r1, r9, lsl #5
 b3c:	13310111 	teqne	r1, #1073741828	; 0x40000004
 b40:	05120000 	ldreq	r0, [r2, #-0]
 b44:	3a0e0300 	bcc	38174c <__bss_end__+0x377f4c>
 b48:	490b3b0b 	stmdbmi	fp, {r0, r1, r3, r8, r9, fp, ip, sp}
 b4c:	00170213 	andseq	r0, r7, r3, lsl r2
 b50:	012e1300 	teqeq	lr, r0, lsl #6
 b54:	0e03193f 	mcreq	9, 0, r1, cr3, cr15, {1}
 b58:	053b0b3a 	ldreq	r0, [fp, #-2874]!	; 0xb3a
 b5c:	13491927 	movtne	r1, #39207	; 0x9927
 b60:	06120111 			; <UNDEFINED> instruction: 0x06120111
 b64:	42971840 	addsmi	r1, r7, #64, 16	; 0x400000
 b68:	00130119 	andseq	r0, r3, r9, lsl r1
 b6c:	00051400 	andeq	r1, r5, r0, lsl #8
 b70:	0b3a0e03 	bleq	e84384 <__bss_end__+0xe7ab84>
 b74:	1349053b 	movtne	r0, #38203	; 0x953b
 b78:	00001702 	andeq	r1, r0, r2, lsl #14
 b7c:	3f012e15 	svccc	0x00012e15
 b80:	3a0e0319 	bcc	3817ec <__bss_end__+0x377fec>
 b84:	27053b0b 	strcs	r3, [r5, -fp, lsl #22]
 b88:	12011119 	andne	r1, r1, #1073741830	; 0x40000006
 b8c:	97184006 	ldrls	r4, [r8, -r6]
 b90:	13011942 	movwne	r1, #6466	; 0x1942
 b94:	05160000 	ldreq	r0, [r6, #-0]
 b98:	3a080300 	bcc	2017a0 <__bss_end__+0x1f7fa0>
 b9c:	49053b0b 	stmdbmi	r5, {r0, r1, r3, r8, r9, fp, ip, sp}
 ba0:	00170213 	andseq	r0, r7, r3, lsl r2
 ba4:	00341700 	eorseq	r1, r4, r0, lsl #14
 ba8:	0b3a0e03 	bleq	e843bc <__bss_end__+0xe7abbc>
 bac:	1349053b 	movtne	r0, #38203	; 0x953b
 bb0:	00001702 	andeq	r1, r0, r2, lsl #14
 bb4:	11010b18 	tstne	r1, r8, lsl fp
 bb8:	01061201 	tsteq	r6, r1, lsl #4
 bbc:	19000013 	stmdbne	r0, {r0, r1, r4}
 bc0:	0e030034 	mcreq	0, 0, r0, cr3, cr4, {1}
 bc4:	0b3b0b3a 	bleq	ec38b4 <__bss_end__+0xeba0b4>
 bc8:	193f1349 	ldmdbne	pc!, {r0, r3, r6, r8, r9, ip}	; <UNPREDICTABLE>
 bcc:	00001802 	andeq	r1, r0, r2, lsl #16
 bd0:	0300341a 	movweq	r3, #1050	; 0x41a
 bd4:	3b0b3a0e 	blcc	2cf414 <__bss_end__+0x2c5c14>
 bd8:	3f134905 	svccc	0x00134905
 bdc:	00180219 	andseq	r0, r8, r9, lsl r2
 be0:	012e1b00 	teqeq	lr, r0, lsl #22
 be4:	0e03193f 	mcreq	9, 0, r1, cr3, cr15, {1}
 be8:	0b3b0b3a 	bleq	ec38d8 <__bss_end__+0xeba0d8>
 bec:	13491927 	movtne	r1, #39207	; 0x9927
 bf0:	1301193c 	movwne	r1, #6460	; 0x193c
 bf4:	051c0000 	ldreq	r0, [ip, #-0]
 bf8:	00134900 	andseq	r4, r3, r0, lsl #18
 bfc:	00261d00 	eoreq	r1, r6, r0, lsl #26
 c00:	00001349 	andeq	r1, r0, r9, asr #6
 c04:	0000351e 	andeq	r3, r0, lr, lsl r5
 c08:	012e1f00 	teqeq	lr, r0, lsl #30
 c0c:	0e03193f 	mcreq	9, 0, r1, cr3, cr15, {1}
 c10:	0b3b0b3a 	bleq	ec3900 <__bss_end__+0xeba100>
 c14:	193c1927 	ldmdbne	ip!, {r0, r1, r2, r5, r8, fp, ip}
 c18:	00001301 	andeq	r1, r0, r1, lsl #6
 c1c:	3f002e20 	svccc	0x00002e20
 c20:	3a0e0319 	bcc	38188c <__bss_end__+0x37808c>
 c24:	270b3b0b 	strcs	r3, [fp, -fp, lsl #22]
 c28:	00193c19 	andseq	r3, r9, r9, lsl ip
 c2c:	11010000 	mrsne	r0, (UNDEF: 1)
 c30:	130e2501 	movwne	r2, #58625	; 0xe501
 c34:	1b0e030b 	blne	381868 <__bss_end__+0x378068>
 c38:	1201110e 	andne	r1, r1, #-2147483645	; 0x80000003
 c3c:	00171006 	andseq	r1, r7, r6
 c40:	00240200 	eoreq	r0, r4, r0, lsl #4
 c44:	0b3e0b0b 	bleq	f83878 <__bss_end__+0xf7a078>
 c48:	00000803 	andeq	r0, r0, r3, lsl #16
 c4c:	0b002403 	bleq	9c60 <__bss_end__+0x460>
 c50:	030b3e0b 	movweq	r3, #48651	; 0xbe0b
 c54:	0400000e 	streq	r0, [r0], #-14
 c58:	0b0b0104 	bleq	2c1070 <__bss_end__+0x2b7870>
 c5c:	0b3b0b3a 	bleq	ec394c <__bss_end__+0xeba14c>
 c60:	00001301 	andeq	r1, r0, r1, lsl #6
 c64:	03002805 	movweq	r2, #2053	; 0x805
 c68:	000d1c0e 	andeq	r1, sp, lr, lsl #24
 c6c:	00160600 	andseq	r0, r6, r0, lsl #12
 c70:	0b3a0e03 	bleq	e84484 <__bss_end__+0xe7ac84>
 c74:	13490b3b 	movtne	r0, #39739	; 0x9b3b
 c78:	2e070000 	cdpcs	0, 0, cr0, cr7, cr0, {0}
 c7c:	03193f01 	tsteq	r9, #1, 30
 c80:	3b0b3a0e 	blcc	2cf4c0 <__bss_end__+0x2c5cc0>
 c84:	1119270b 	tstne	r9, fp, lsl #14
 c88:	40061201 	andmi	r1, r6, r1, lsl #4
 c8c:	19429718 	stmdbne	r2, {r3, r4, r8, r9, sl, ip, pc}^
 c90:	00001301 	andeq	r1, r0, r1, lsl #6
 c94:	01828908 	orreq	r8, r2, r8, lsl #18
 c98:	31011100 	mrscc	r1, (UNDEF: 17)
 c9c:	09000013 	stmdbeq	r0, {r0, r1, r4}
 ca0:	01018289 	smlabbeq	r1, r9, r2, r8
 ca4:	13310111 	teqne	r1, #1073741828	; 0x40000004
 ca8:	00001301 	andeq	r1, r0, r1, lsl #6
 cac:	01828a0a 	orreq	r8, r2, sl, lsl #20
 cb0:	91180200 	tstls	r8, r0, lsl #4
 cb4:	00001842 	andeq	r1, r0, r2, asr #16
 cb8:	3f012e0b 	svccc	0x00012e0b
 cbc:	3a0e0319 	bcc	381928 <__bss_end__+0x378128>
 cc0:	270b3b0b 	strcs	r3, [fp, -fp, lsl #22]
 cc4:	11134919 	tstne	r3, r9, lsl r9
 cc8:	40061201 	andmi	r1, r6, r1, lsl #4
 ccc:	19429718 	stmdbne	r2, {r3, r4, r8, r9, sl, ip, pc}^
 cd0:	00001301 	andeq	r1, r0, r1, lsl #6
 cd4:	0300050c 	movweq	r0, #1292	; 0x50c
 cd8:	3b0b3a08 	blcc	2cf500 <__bss_end__+0x2c5d00>
 cdc:	0213490b 	andseq	r4, r3, #180224	; 0x2c000
 ce0:	0d000017 	stceq	0, cr0, [r0, #-92]	; 0xffffffa4
 ce4:	01018289 	smlabbeq	r1, r9, r2, r8
 ce8:	13310111 	teqne	r1, #1073741828	; 0x40000004
 cec:	340e0000 	strcc	r0, [lr], #-0
 cf0:	3a0e0300 	bcc	3818f8 <__bss_end__+0x3780f8>
 cf4:	490b3b0b 	stmdbmi	fp, {r0, r1, r3, r8, r9, fp, ip, sp}
 cf8:	02193f13 	andseq	r3, r9, #19, 30	; 0x4c
 cfc:	0f000018 	svceq	0x00000018
 d00:	0b0b000f 	bleq	2c0d44 <__bss_end__+0x2b7544>
 d04:	00001349 	andeq	r1, r0, r9, asr #6
 d08:	49003510 	stmdbmi	r0, {r4, r8, sl, ip, sp}
 d0c:	11000013 	tstne	r0, r3, lsl r0
 d10:	193f002e 	ldmdbne	pc!, {r1, r2, r3, r5}	; <UNPREDICTABLE>
 d14:	0b3a0e03 	bleq	e84528 <__bss_end__+0xe7ad28>
 d18:	19270b3b 	stmdbne	r7!, {r0, r1, r3, r4, r5, r8, r9, fp}
 d1c:	0000193c 	andeq	r1, r0, ip, lsr r9
 d20:	3f012e12 	svccc	0x00012e12
 d24:	3a0e0319 	bcc	381990 <__bss_end__+0x378190>
 d28:	270b3b0b 	strcs	r3, [fp, -fp, lsl #22]
 d2c:	01193c19 	tsteq	r9, r9, lsl ip
 d30:	13000013 	movwne	r0, #19
 d34:	13490005 	movtne	r0, #36869	; 0x9005
 d38:	2e140000 	cdpcs	0, 1, cr0, cr4, cr0, {0}
 d3c:	03193f01 	tsteq	r9, #1, 30
 d40:	3b0b3a0e 	blcc	2cf580 <__bss_end__+0x2c5d80>
 d44:	4919270b 	ldmdbmi	r9, {r0, r1, r3, r8, r9, sl, sp}
 d48:	01193c13 	tsteq	r9, r3, lsl ip
 d4c:	15000013 	strne	r0, [r0, #-19]
 d50:	13490026 	movtne	r0, #36902	; 0x9026
 d54:	35160000 	ldrcc	r0, [r6, #-0]
 d58:	00000000 	andeq	r0, r0, r0
 d5c:	25011101 	strcs	r1, [r1, #-257]	; 0x101
 d60:	030b130e 	movweq	r1, #45838	; 0xb30e
 d64:	110e1b0e 	tstne	lr, lr, lsl #22
 d68:	10061201 	andne	r1, r6, r1, lsl #4
 d6c:	02000017 	andeq	r0, r0, #23
 d70:	0b0b0024 	bleq	2c0e08 <__bss_end__+0x2b7608>
 d74:	08030b3e 	stmdaeq	r3, {r1, r2, r3, r4, r5, r8, r9, fp}
 d78:	24030000 	strcs	r0, [r3], #-0
 d7c:	3e0b0b00 	vmlacc.f64	d0, d11, d0
 d80:	000e030b 	andeq	r0, lr, fp, lsl #6
 d84:	012e0400 	teqeq	lr, r0, lsl #8
 d88:	0b3a0e03 	bleq	e8459c <__bss_end__+0xe7ad9c>
 d8c:	19270b3b 	stmdbne	r7!, {r0, r1, r3, r4, r5, r8, r9, fp}
 d90:	01111349 	tsteq	r1, r9, asr #6
 d94:	18400612 	stmdane	r0, {r1, r4, r9, sl}^
 d98:	01194297 			; <UNDEFINED> instruction: 0x01194297
 d9c:	05000013 	streq	r0, [r0, #-19]
 da0:	08030005 	stmdaeq	r3, {r0, r2}
 da4:	0b3b0b3a 	bleq	ec3a94 <__bss_end__+0xeba294>
 da8:	17021349 	strne	r1, [r2, -r9, asr #6]
 dac:	89060000 	stmdbhi	r6, {}	; <UNPREDICTABLE>
 db0:	11010182 	smlabbne	r1, r2, r1, r0
 db4:	00133101 	andseq	r3, r3, r1, lsl #2
 db8:	828a0700 	addhi	r0, sl, #0, 14
 dbc:	18020001 	stmdane	r2, {r0}
 dc0:	00184291 	mulseq	r8, r1, r2
 dc4:	002e0800 	eoreq	r0, lr, r0, lsl #16
 dc8:	0e03193f 	mcreq	9, 0, r1, cr3, cr15, {1}
 dcc:	0b3b0b3a 	bleq	ec3abc <__bss_end__+0xeba2bc>
 dd0:	01111927 	tsteq	r1, r7, lsr #18
 dd4:	18400612 	stmdane	r0, {r1, r4, r9, sl}^
 dd8:	00194297 	mulseq	r9, r7, r2
 ddc:	012e0900 	teqeq	lr, r0, lsl #18
 de0:	0e03193f 	mcreq	9, 0, r1, cr3, cr15, {1}
 de4:	0b3b0b3a 	bleq	ec3ad4 <__bss_end__+0xeba2d4>
 de8:	01111927 	tsteq	r1, r7, lsr #18
 dec:	18400612 	stmdane	r0, {r1, r4, r9, sl}^
 df0:	01194297 			; <UNDEFINED> instruction: 0x01194297
 df4:	0a000013 	beq	e48 <_start-0x71b8>
 df8:	08030005 	stmdaeq	r3, {r0, r2}
 dfc:	0b3b0b3a 	bleq	ec3aec <__bss_end__+0xeba2ec>
 e00:	18021349 	stmdane	r2, {r0, r3, r6, r8, r9, ip}
 e04:	150b0000 	strne	r0, [fp, #-0]
 e08:	49192701 	ldmdbmi	r9, {r0, r8, r9, sl, sp}
 e0c:	00130113 	andseq	r0, r3, r3, lsl r1
 e10:	00050c00 	andeq	r0, r5, r0, lsl #24
 e14:	00001349 	andeq	r1, r0, r9, asr #6
 e18:	0b000f0d 	bleq	4a54 <_start-0x35ac>
 e1c:	0013490b 	andseq	r4, r3, fp, lsl #18
 e20:	00340e00 	eorseq	r0, r4, r0, lsl #28
 e24:	0b3a0e03 	bleq	e84638 <__bss_end__+0xe7ae38>
 e28:	13490b3b 	movtne	r0, #39739	; 0x9b3b
 e2c:	1802193f 	stmdane	r2, {r0, r1, r2, r3, r4, r5, r8, fp, ip}
 e30:	2e0f0000 	cdpcs	0, 0, cr0, cr15, cr0, {0}
 e34:	03193f01 	tsteq	r9, #1, 30
 e38:	3b0b3a0e 	blcc	2cf678 <__bss_end__+0x2c5e78>
 e3c:	3c19270b 	ldccc	7, cr2, [r9], {11}
 e40:	00000019 	andeq	r0, r0, r9, lsl r0

Disassembly of section .debug_loc:

00000000 <.debug_loc>:
       0:	0000004c 	andeq	r0, r0, ip, asr #32
       4:	00000058 	andeq	r0, r0, r8, asr r0
       8:	58500001 	ldmdapl	r0, {r0}^
       c:	5b000000 	blpl	14 <_start-0x7fec>
      10:	01000000 	mrseq	r0, (UNDEF: 0)
      14:	00005100 	andeq	r5, r0, r0, lsl #2
      18:	00000000 	andeq	r0, r0, r0
      1c:	002c0000 	eoreq	r0, ip, r0
      20:	00400000 	subeq	r0, r0, r0
      24:	00020000 	andeq	r0, r2, r0
      28:	00409f30 	subeq	r9, r0, r0, lsr pc
      2c:	00900000 	addseq	r0, r0, r0
      30:	00010000 	andeq	r0, r1, r0
      34:	00000055 	andeq	r0, r0, r5, asr r0
	...
      40:	00001400 	andeq	r1, r0, r0, lsl #8
      44:	50000100 	andpl	r0, r0, r0, lsl #2
      48:	00000014 	andeq	r0, r0, r4, lsl r0
      4c:	0000004c 	andeq	r0, r0, ip, asr #32
      50:	00540001 	subseq	r0, r4, r1
	...
      5c:	14000000 	strne	r0, [r0], #-0
      60:	01000000 	mrseq	r0, (UNDEF: 0)
      64:	00145100 	andseq	r5, r4, r0, lsl #2
      68:	004c0000 	subeq	r0, ip, r0
      6c:	00010000 	andeq	r0, r1, r0
      70:	00000055 	andeq	r0, r0, r5, asr r0
	...
      7c:	00001400 	andeq	r1, r0, r0, lsl #8
      80:	52000100 	andpl	r0, r0, #0, 2
      84:	00000014 	andeq	r0, r0, r4, lsl r0
      88:	0000004c 	andeq	r0, r0, ip, asr #32
      8c:	00570001 	subseq	r0, r7, r1
      90:	00000000 	andeq	r0, r0, r0
      94:	28000000 	stmdacs	r0, {}	; <UNPREDICTABLE>
      98:	3c000000 	stccc	0, cr0, [r0], {-0}
      9c:	01000000 	mrseq	r0, (UNDEF: 0)
      a0:	00005000 	andeq	r5, r0, r0
      a4:	00000000 	andeq	r0, r0, r0
      a8:	004c0000 	subeq	r0, ip, r0
      ac:	006b0000 	rsbeq	r0, fp, r0
      b0:	00010000 	andeq	r0, r1, r0
      b4:	00006b51 	andeq	r6, r0, r1, asr fp
      b8:	00009000 	andeq	r9, r0, r0
      bc:	56000100 	strpl	r0, [r0], -r0, lsl #2
	...
      c8:	0000004c 	andeq	r0, r0, ip, asr #32
      cc:	0000006b 	andeq	r0, r0, fp, rrx
      d0:	6b520001 	blvs	14800dc <__bss_end__+0x14768dc>
      d4:	90000000 	andls	r0, r0, r0
      d8:	01000000 	mrseq	r0, (UNDEF: 0)
      dc:	00005500 	andeq	r5, r0, r0, lsl #10
      e0:	00000000 	andeq	r0, r0, r0
      e4:	004c0000 	subeq	r0, ip, r0
      e8:	00680000 	rsbeq	r0, r8, r0
      ec:	00020000 	andeq	r0, r2, r0
      f0:	00680070 	rsbeq	r0, r8, r0, ror r0
      f4:	00900000 	addseq	r0, r0, r0
      f8:	00020000 	andeq	r0, r2, r0
      fc:	00000074 	andeq	r0, r0, r4, ror r0
     100:	00000000 	andeq	r0, r0, r0
     104:	00900000 	addseq	r0, r0, r0
     108:	00a00000 	adceq	r0, r0, r0
     10c:	00010000 	andeq	r0, r1, r0
     110:	0000a050 	andeq	sl, r0, r0, asr r0
     114:	00013c00 	andeq	r3, r1, r0, lsl #24
     118:	54000100 	strpl	r0, [r0], #-256	; 0x100
	...
     124:	00000090 	muleq	r0, r0, r0
     128:	000000a4 	andeq	r0, r0, r4, lsr #1
     12c:	a4510001 	ldrbge	r0, [r1], #-1
     130:	3c000000 	stccc	0, cr0, [r0], {-0}
     134:	01000001 	tsteq	r0, r1
     138:	00005500 	andeq	r5, r0, r0, lsl #10
     13c:	00000000 	andeq	r0, r0, r0
     140:	00e00000 	rsceq	r0, r0, r0
     144:	00ec0000 	rsceq	r0, ip, r0
     148:	00010000 	andeq	r0, r1, r0
     14c:	00012450 	andeq	r2, r1, r0, asr r4
     150:	00012800 	andeq	r2, r1, r0, lsl #16
     154:	50000100 	andpl	r0, r0, r0, lsl #2
	...
     160:	000000f8 	strdeq	r0, [r0], -r8
     164:	00000103 	andeq	r0, r0, r3, lsl #2
     168:	2c500001 	mrrccs	0, 0, r0, r0, cr1	; <UNPREDICTABLE>
     16c:	30000001 	andcc	r0, r0, r1
     170:	01000001 	tsteq	r0, r1
     174:	00005000 	andeq	r5, r0, r0
     178:	00000000 	andeq	r0, r0, r0
     17c:	011c0000 	tsteq	ip, r0
     180:	01200000 	teqeq	r0, r0
     184:	00050000 	andeq	r0, r5, r0
     188:	25320070 	ldrcs	r0, [r2, #-112]!	; 0x70
     18c:	0001209f 	muleq	r1, pc, r0	; <UNPREDICTABLE>
     190:	00012400 	andeq	r2, r1, r0, lsl #8
     194:	50000100 	andpl	r0, r0, r0, lsl #2
	...
     1a4:	0000000b 	andeq	r0, r0, fp
     1a8:	0b500001 	bleq	14001b4 <__bss_end__+0x13f69b4>
     1ac:	3c000000 	stccc	0, cr0, [r0], {-0}
     1b0:	01000000 	mrseq	r0, (UNDEF: 0)
     1b4:	003c5500 	eorseq	r5, ip, r0, lsl #10
     1b8:	008c0000 	addeq	r0, ip, r0
     1bc:	00040000 	andeq	r0, r4, r0
     1c0:	9f5001f3 	svcls	0x005001f3
	...
     1cc:	00000024 	andeq	r0, r0, r4, lsr #32
     1d0:	00000030 	andeq	r0, r0, r0, lsr r0
     1d4:	9f300002 	svcls	0x00300002
     1d8:	00000030 	andeq	r0, r0, r0, lsr r0
     1dc:	00000030 	andeq	r0, r0, r0, lsr r0
     1e0:	30540001 	subscc	r0, r4, r1
     1e4:	38000000 	stmdacc	r0, {}	; <UNPREDICTABLE>
     1e8:	02000000 	andeq	r0, r0, #0
     1ec:	389f3000 	ldmcc	pc, {ip, sp}	; <UNPREDICTABLE>
     1f0:	8c000000 	stchi	0, cr0, [r0], {-0}
     1f4:	01000000 	mrseq	r0, (UNDEF: 0)
     1f8:	00005400 	andeq	r5, r0, r0, lsl #8
     1fc:	00000000 	andeq	r0, r0, r0
     200:	008c0000 	addeq	r0, ip, r0
     204:	00970000 	addseq	r0, r7, r0
     208:	00010000 	andeq	r0, r1, r0
     20c:	00009750 	andeq	r9, r0, r0, asr r7
     210:	0000c800 	andeq	ip, r0, r0, lsl #16
     214:	55000100 	strpl	r0, [r0, #-256]	; 0x100
     218:	000000c8 	andeq	r0, r0, r8, asr #1
     21c:	00000118 	andeq	r0, r0, r8, lsl r1
     220:	01f30004 	mvnseq	r0, r4
     224:	00009f50 	andeq	r9, r0, r0, asr pc
     228:	00000000 	andeq	r0, r0, r0
     22c:	00b00000 	adcseq	r0, r0, r0
     230:	00bc0000 	adcseq	r0, ip, r0
     234:	00020000 	andeq	r0, r2, r0
     238:	00bc9f30 	adcseq	r9, ip, r0, lsr pc
     23c:	00bc0000 	adcseq	r0, ip, r0
     240:	00010000 	andeq	r0, r1, r0
     244:	0000bc54 	andeq	fp, r0, r4, asr ip
     248:	0000c400 	andeq	ip, r0, r0, lsl #8
     24c:	30000200 	andcc	r0, r0, r0, lsl #4
     250:	0000c49f 	muleq	r0, pc, r4	; <UNPREDICTABLE>
     254:	00011800 	andeq	r1, r1, r0, lsl #16
     258:	54000100 	strpl	r0, [r0], #-256	; 0x100
	...
     264:	00000118 	andeq	r0, r0, r8, lsl r1
     268:	00000123 	andeq	r0, r0, r3, lsr #2
     26c:	23500001 	cmpcs	r0, #1
     270:	54000001 	strpl	r0, [r0], #-1
     274:	01000001 	tsteq	r0, r1
     278:	01545500 	cmpeq	r4, r0, lsl #10
     27c:	01a40000 			; <UNDEFINED> instruction: 0x01a40000
     280:	00040000 	andeq	r0, r4, r0
     284:	9f5001f3 	svcls	0x005001f3
	...
     290:	0000013c 	andeq	r0, r0, ip, lsr r1
     294:	00000148 	andeq	r0, r0, r8, asr #2
     298:	9f300002 	svcls	0x00300002
     29c:	00000148 	andeq	r0, r0, r8, asr #2
     2a0:	00000148 	andeq	r0, r0, r8, asr #2
     2a4:	48540001 	ldmdami	r4, {r0}^
     2a8:	50000001 	andpl	r0, r0, r1
     2ac:	02000001 	andeq	r0, r0, #1
     2b0:	509f3000 	addspl	r3, pc, r0
     2b4:	a4000001 	strge	r0, [r0], #-1
     2b8:	01000001 	tsteq	r0, r1
     2bc:	00005400 	andeq	r5, r0, r0, lsl #8
     2c0:	00000000 	andeq	r0, r0, r0
     2c4:	002c0000 	eoreq	r0, ip, r0
     2c8:	00380000 	eorseq	r0, r8, r0
     2cc:	00010000 	andeq	r0, r1, r0
     2d0:	00003850 	andeq	r3, r0, r0, asr r8
     2d4:	00004800 	andeq	r4, r0, r0, lsl #16
     2d8:	55000100 	strpl	r0, [r0, #-256]	; 0x100
     2dc:	00000048 	andeq	r0, r0, r8, asr #32
     2e0:	00000058 	andeq	r0, r0, r8, asr r0
     2e4:	00500001 	subseq	r0, r0, r1
	...
     2f0:	10000000 	andne	r0, r0, r0
     2f4:	01000000 	mrseq	r0, (UNDEF: 0)
     2f8:	00105000 	andseq	r5, r0, r0
     2fc:	00340000 	eorseq	r0, r4, r0
     300:	00010000 	andeq	r0, r1, r0
     304:	00000054 	andeq	r0, r0, r4, asr r0
	...
     310:	00000400 	andeq	r0, r0, r0, lsl #8
     314:	50000100 	andpl	r0, r0, r0, lsl #2
     318:	00000004 	andeq	r0, r0, r4
     31c:	0000000c 	andeq	r0, r0, ip
     320:	30700003 	rsbscc	r0, r0, r3
     324:	00000c9f 	muleq	r0, pc, ip	; <UNPREDICTABLE>
     328:	00001400 	andeq	r1, r0, r0, lsl #8
     32c:	f3000400 	vshl.u8	d0, d0, d0
     330:	009f5001 	addseq	r5, pc, r1
     334:	00000000 	andeq	r0, r0, r0
     338:	14000000 	strne	r0, [r0], #-0
     33c:	20000000 	andcs	r0, r0, r0
     340:	01000000 	mrseq	r0, (UNDEF: 0)
     344:	00205000 	eoreq	r5, r0, r0
     348:	002c0000 	eoreq	r0, ip, r0
     34c:	00030000 	andeq	r0, r3, r0
     350:	2c9f0170 	ldfcss	f0, [pc], {112}	; 0x70
     354:	40000000 	andmi	r0, r0, r0
     358:	01000000 	mrseq	r0, (UNDEF: 0)
     35c:	00005000 	andeq	r5, r0, r0
     360:	00000000 	andeq	r0, r0, r0
     364:	00140000 	andseq	r0, r4, r0
     368:	00180000 	andseq	r0, r8, r0
     36c:	00010000 	andeq	r0, r1, r0
     370:	00001851 	andeq	r1, r0, r1, asr r8
     374:	00004000 	andeq	r4, r0, r0
     378:	f3000400 	vshl.u8	d0, d0, d0
     37c:	009f5101 	addseq	r5, pc, r1, lsl #2
     380:	00000000 	andeq	r0, r0, r0
     384:	40000000 	andmi	r0, r0, r0
     388:	60000000 	andvs	r0, r0, r0
     38c:	01000000 	mrseq	r0, (UNDEF: 0)
     390:	00605000 	rsbeq	r5, r0, r0
     394:	006c0000 	rsbeq	r0, ip, r0
     398:	00030000 	andeq	r0, r3, r0
     39c:	6c9f0171 	ldfvss	f0, [pc], {113}	; 0x71
     3a0:	74000000 	strvc	r0, [r0], #-0
     3a4:	01000000 	mrseq	r0, (UNDEF: 0)
     3a8:	00745100 	rsbseq	r5, r4, r0, lsl #2
     3ac:	00800000 	addeq	r0, r0, r0
     3b0:	00030000 	andeq	r0, r3, r0
     3b4:	009f0171 	addseq	r0, pc, r1, ror r1	; <UNPREDICTABLE>
     3b8:	00000000 	andeq	r0, r0, r0
     3bc:	40000000 	andmi	r0, r0, r0
     3c0:	50000000 	andpl	r0, r0, r0
     3c4:	01000000 	mrseq	r0, (UNDEF: 0)
     3c8:	00505100 	subseq	r5, r0, r0, lsl #2
     3cc:	00800000 	addeq	r0, r0, r0
     3d0:	00040000 	andeq	r0, r4, r0
     3d4:	9f5101f3 	svcls	0x005101f3
	...
     3e0:	00000040 	andeq	r0, r0, r0, asr #32
     3e4:	00000058 	andeq	r0, r0, r8, asr r0
     3e8:	58520001 	ldmdapl	r2, {r0}^
     3ec:	64000000 	strvs	r0, [r0], #-0
     3f0:	01000000 	mrseq	r0, (UNDEF: 0)
     3f4:	00645200 	rsbeq	r5, r4, r0, lsl #4
     3f8:	00680000 	rsbeq	r0, r8, r0
     3fc:	00030000 	andeq	r0, r3, r0
     400:	689f0172 	ldmvs	pc, {r1, r4, r5, r6, r8}	; <UNPREDICTABLE>
     404:	80000000 	andhi	r0, r0, r0
     408:	01000000 	mrseq	r0, (UNDEF: 0)
     40c:	00005200 	andeq	r5, r0, r0, lsl #4
     410:	00000000 	andeq	r0, r0, r0
     414:	00400000 	subeq	r0, r0, r0
     418:	00540000 	subseq	r0, r4, r0
     41c:	00010000 	andeq	r0, r1, r0
     420:	00005453 	andeq	r5, r0, r3, asr r4
     424:	00007800 	andeq	r7, r0, r0, lsl #16
     428:	53000100 	movwpl	r0, #256	; 0x100
	...
     434:	00000048 	andeq	r0, r0, r8, asr #32
     438:	00000060 	andeq	r0, r0, r0, rrx
     43c:	605c0001 	subsvs	r0, ip, r1
     440:	80000000 	andhi	r0, r0, r0
     444:	0a000000 	beq	44c <_start-0x7bb4>
     448:	5201f300 	andpl	pc, r1, #0, 6
     44c:	1c5301f3 	ldfnee	f0, [r3], {243}	; 0xf3
     450:	009f0123 	addseq	r0, pc, r3, lsr #2
     454:	00000000 	andeq	r0, r0, r0
     458:	80000000 	andhi	r0, r0, r0
     45c:	a4000000 	strge	r0, [r0], #-0
     460:	01000000 	mrseq	r0, (UNDEF: 0)
     464:	00a45000 	adceq	r5, r4, r0
     468:	01180000 	tsteq	r8, r0
     46c:	00030000 	andeq	r0, r3, r0
     470:	189f0270 	ldmne	pc, {r4, r5, r6, r9}	; <UNPREDICTABLE>
     474:	1c000001 	stcne	0, cr0, [r0], {1}
     478:	04000002 	streq	r0, [r0], #-2
     47c:	5001f300 	andpl	pc, r1, r0, lsl #6
     480:	0000009f 	muleq	r0, pc, r0	; <UNPREDICTABLE>
     484:	00000000 	andeq	r0, r0, r0
     488:	00008000 	andeq	r8, r0, r0
     48c:	0000f000 	andeq	pc, r0, r0
     490:	51000100 	mrspl	r0, (UNDEF: 16)
     494:	000000f0 	strdeq	r0, [r0], -r0	; <UNPREDICTABLE>
     498:	00000160 	andeq	r0, r0, r0, ror #2
     49c:	60550001 	subsvs	r0, r5, r1
     4a0:	68000001 	stmdavs	r0, {r0}
     4a4:	01000001 	tsteq	r0, r1
     4a8:	01685100 	cmneq	r8, r0, lsl #2
     4ac:	01880000 	orreq	r0, r8, r0
     4b0:	00010000 	andeq	r0, r1, r0
     4b4:	00018855 	andeq	r8, r1, r5, asr r8
     4b8:	00019c00 	andeq	r9, r1, r0, lsl #24
     4bc:	51000100 	mrspl	r0, (UNDEF: 16)
     4c0:	0000019c 	muleq	r0, ip, r1
     4c4:	000001bc 			; <UNDEFINED> instruction: 0x000001bc
     4c8:	bc550001 	mrrclt	0, 0, r0, r5, cr1
     4cc:	bf000001 	svclt	0x00000001
     4d0:	01000001 	tsteq	r0, r1
     4d4:	01bf5100 			; <UNDEFINED> instruction: 0x01bf5100
     4d8:	02000000 	andeq	r0, r0, #0
     4dc:	00010000 	andeq	r0, r1, r0
     4e0:	00020055 	andeq	r0, r2, r5, asr r0
     4e4:	00021c00 	andeq	r1, r2, r0, lsl #24
     4e8:	f3000400 	vshl.u8	d0, d0, d0
     4ec:	009f5101 	addseq	r5, pc, r1, lsl #2
     4f0:	00000000 	andeq	r0, r0, r0
     4f4:	80000000 	andhi	r0, r0, r0
     4f8:	94000000 	strls	r0, [r0], #-0
     4fc:	01000000 	mrseq	r0, (UNDEF: 0)
     500:	00945200 	addseq	r5, r4, r0, lsl #4
     504:	02000000 	andeq	r0, r0, #0
     508:	00010000 	andeq	r0, r1, r0
     50c:	00020054 	andeq	r0, r2, r4, asr r0
     510:	00021c00 	andeq	r1, r2, r0, lsl #24
     514:	f3000400 	vshl.u8	d0, d0, d0
     518:	009f5201 	addseq	r5, pc, r1, lsl #4
     51c:	00000000 	andeq	r0, r0, r0
     520:	80000000 	andhi	r0, r0, r0
     524:	00000000 	andeq	r0, r0, r0
     528:	01000001 	tsteq	r0, r1
     52c:	01045300 	mrseq	r5, LR_abt
     530:	01080000 	mrseq	r0, (UNDEF: 8)
     534:	00010000 	andeq	r0, r1, r0
     538:	00016053 	andeq	r6, r1, r3, asr r0
     53c:	00016800 	andeq	r6, r1, r0, lsl #16
     540:	53000100 	movwpl	r0, #256	; 0x100
     544:	00000168 	andeq	r0, r0, r8, ror #2
     548:	00000188 	andeq	r0, r0, r8, lsl #3
     54c:	01f30004 	mvnseq	r0, r4
     550:	01889f53 	orreq	r9, r8, r3, asr pc
     554:	01900000 	orrseq	r0, r0, r0
     558:	00010000 	andeq	r0, r1, r0
     55c:	00019053 	andeq	r9, r1, r3, asr r0
     560:	00019400 	andeq	r9, r1, r0, lsl #8
     564:	5c000100 	stfpls	f0, [r0], {-0}
     568:	00000194 	muleq	r0, r4, r1
     56c:	0000019c 	muleq	r0, ip, r1
     570:	9c530001 	mrrcls	0, 0, r0, r3, cr1
     574:	bc000001 	stclt	0, cr0, [r0], {1}
     578:	04000001 	streq	r0, [r0], #-1
     57c:	5301f300 	movwpl	pc, #4864	; 0x1300	; <UNPREDICTABLE>
     580:	0001bc9f 	muleq	r1, pc, ip	; <UNPREDICTABLE>
     584:	0001bf00 	andeq	fp, r1, r0, lsl #30
     588:	53000100 	movwpl	r0, #256	; 0x100
     58c:	000001bf 			; <UNDEFINED> instruction: 0x000001bf
     590:	000001d8 	ldrdeq	r0, [r0], -r8
     594:	01f30004 	mvnseq	r0, r4
     598:	00009f53 	andeq	r9, r0, r3, asr pc
     59c:	00000000 	andeq	r0, r0, r0
     5a0:	00800000 	addeq	r0, r0, r0
     5a4:	009c0000 	addseq	r0, ip, r0
     5a8:	00020000 	andeq	r0, r2, r0
     5ac:	009c0091 	umullseq	r0, ip, r1, r0
     5b0:	01bf0000 			; <UNDEFINED> instruction: 0x01bf0000
     5b4:	00010000 	andeq	r0, r1, r0
     5b8:	0001d852 	andeq	sp, r1, r2, asr r8
     5bc:	0001e300 	andeq	lr, r1, r0, lsl #6
     5c0:	52000100 	andpl	r0, r0, #0, 2
	...
     5cc:	0000009c 	muleq	r0, ip, r0
     5d0:	00000118 	andeq	r0, r0, r8, lsl r1
     5d4:	185d0001 	ldmdane	sp, {r0}^
     5d8:	1c000001 	stcne	0, cr0, [r0], {1}
     5dc:	01000001 	tsteq	r0, r1
     5e0:	011c5300 	tsteq	ip, r0, lsl #6
     5e4:	01200000 	teqeq	r0, r0
     5e8:	00010000 	andeq	r0, r1, r0
     5ec:	00012051 	andeq	r2, r1, r1, asr r0
     5f0:	00016000 	andeq	r6, r1, r0
     5f4:	53000100 	movwpl	r0, #256	; 0x100
     5f8:	00000160 	andeq	r0, r0, r0, ror #2
     5fc:	00000168 	andeq	r0, r0, r8, ror #2
     600:	685d0001 	ldmdavs	sp, {r0}^
     604:	6c000001 	stcvs	0, cr0, [r0], {1}
     608:	01000001 	tsteq	r0, r1
     60c:	016c5e00 	cmneq	ip, r0, lsl #28
     610:	01880000 	orreq	r0, r8, r0
     614:	00010000 	andeq	r0, r1, r0
     618:	00018853 	andeq	r8, r1, r3, asr r8
     61c:	00019000 	andeq	r9, r1, r0
     620:	91000400 	tstls	r0, r0, lsl #8
     624:	909f7fa1 	addsls	r7, pc, r1, lsr #31
     628:	94000001 	strls	r0, [r0], #-1
     62c:	01000001 	tsteq	r0, r1
     630:	01945300 	orrseq	r5, r4, r0, lsl #6
     634:	019c0000 	orrseq	r0, ip, r0
     638:	00010000 	andeq	r0, r1, r0
     63c:	00019c5d 	andeq	r9, r1, sp, asr ip
     640:	0001a000 	andeq	sl, r1, r0
     644:	5e000100 	adfpls	f0, f0, f0
     648:	000001a0 	andeq	r0, r0, r0, lsr #3
     64c:	000001bc 			; <UNDEFINED> instruction: 0x000001bc
     650:	bc530001 	mrrclt	0, 0, r0, r3, cr1
     654:	d8000001 	stmdale	r0, {r0}
     658:	01000001 	tsteq	r0, r1
     65c:	01d85d00 	bicseq	r5, r8, r0, lsl #26
     660:	01e30000 	mvneq	r0, r0
     664:	00010000 	andeq	r0, r1, r0
     668:	00000053 	andeq	r0, r0, r3, asr r0
     66c:	00000000 	andeq	r0, r0, r0
     670:	0000a000 	andeq	sl, r0, r0
     674:	0000ec00 	andeq	lr, r0, r0, lsl #24
     678:	5c000100 	stfpls	f0, [r0], {-0}
     67c:	000000ec 	andeq	r0, r0, ip, ror #1
     680:	00000100 	andeq	r0, r0, r0, lsl #2
     684:	00530001 	subseq	r0, r3, r1
     688:	04000001 	streq	r0, [r0], #-1
     68c:	01000001 	tsteq	r0, r1
     690:	01045c00 	tsteq	r4, r0, lsl #24
     694:	01080000 	mrseq	r0, (UNDEF: 8)
     698:	00010000 	andeq	r0, r1, r0
     69c:	00010853 	andeq	r0, r1, r3, asr r8
     6a0:	00011800 	andeq	r1, r1, r0, lsl #16
     6a4:	5c000100 	stfpls	f0, [r0], {-0}
     6a8:	00000118 	andeq	r0, r0, r8, lsl r1
     6ac:	0000011c 	andeq	r0, r0, ip, lsl r1
     6b0:	1c500001 	mrrcne	0, 0, r0, r0, cr1	; <UNPREDICTABLE>
     6b4:	3c000001 	stccc	0, cr0, [r0], {1}
     6b8:	01000001 	tsteq	r0, r1
     6bc:	01445c00 	cmpeq	r4, r0, lsl #24
     6c0:	01580000 	cmpeq	r8, r0
     6c4:	00010000 	andeq	r0, r1, r0
     6c8:	00015850 	andeq	r5, r1, r0, asr r8
     6cc:	00016000 	andeq	r6, r1, r0
     6d0:	5c000100 	stfpls	f0, [r0], {-0}
     6d4:	00000160 	andeq	r0, r0, r0, ror #2
     6d8:	00000168 	andeq	r0, r0, r8, ror #2
     6dc:	68530001 	ldmdavs	r3, {r0}^
     6e0:	78000001 	stmdavc	r0, {r0}
     6e4:	01000001 	tsteq	r0, r1
     6e8:	01785c00 	cmneq	r8, r0, lsl #24
     6ec:	01800000 	orreq	r0, r0, r0
     6f0:	00050000 	andeq	r0, r5, r0
     6f4:	2534007c 	ldrcs	r0, [r4, #-124]!	; 0x7c
     6f8:	0001809f 	muleq	r1, pc, r0	; <UNPREDICTABLE>
     6fc:	00018800 	andeq	r8, r1, r0, lsl #16
     700:	5c000100 	stfpls	f0, [r0], {-0}
     704:	00000188 	andeq	r0, r0, r8, lsl #3
     708:	00000190 	muleq	r0, r0, r1
     70c:	90530001 	subsls	r0, r3, r1
     710:	94000001 	strls	r0, [r0], #-1
     714:	01000001 	tsteq	r0, r1
     718:	01945c00 	orrseq	r5, r4, r0, lsl #24
     71c:	019c0000 	orrseq	r0, ip, r0
     720:	00010000 	andeq	r0, r1, r0
     724:	00019c53 	andeq	r9, r1, r3, asr ip
     728:	0001ac00 	andeq	sl, r1, r0, lsl #24
     72c:	5c000100 	stfpls	f0, [r0], {-0}
     730:	000001ac 	andeq	r0, r0, ip, lsr #3
     734:	000001b4 			; <UNDEFINED> instruction: 0x000001b4
     738:	007c0005 	rsbseq	r0, ip, r5
     73c:	b49f2531 	ldrlt	r2, [pc], #1329	; 744 <_start-0x78bc>
     740:	bc000001 	stclt	0, cr0, [r0], {1}
     744:	01000001 	tsteq	r0, r1
     748:	01bc5c00 			; <UNDEFINED> instruction: 0x01bc5c00
     74c:	01bf0000 			; <UNDEFINED> instruction: 0x01bf0000
     750:	00010000 	andeq	r0, r1, r0
     754:	0001bf53 	andeq	fp, r1, r3, asr pc
     758:	0001d800 	andeq	sp, r1, r0, lsl #16
     75c:	f3000400 	vshl.u8	d0, d0, d0
     760:	d89f5301 	ldmle	pc, {r0, r8, r9, ip, lr}	; <UNPREDICTABLE>
     764:	e3000001 	movw	r0, #1
     768:	01000001 	tsteq	r0, r1
     76c:	00005c00 	andeq	r5, r0, r0, lsl #24
     770:	00000000 	andeq	r0, r0, r0
     774:	00ec0000 	rsceq	r0, ip, r0
     778:	00fc0000 	rscseq	r0, ip, r0
     77c:	00020000 	andeq	r0, r2, r0
     780:	00fc9f30 	rscseq	r9, ip, r0, lsr pc
     784:	01040000 	mrseq	r0, (UNDEF: 4)
     788:	00020000 	andeq	r0, r2, r0
     78c:	01049f31 	tsteq	r4, r1, lsr pc
     790:	01080000 	mrseq	r0, (UNDEF: 8)
     794:	00020000 	andeq	r0, r2, r0
     798:	00009f30 	andeq	r9, r0, r0, lsr pc
     79c:	00000000 	andeq	r0, r0, r0
     7a0:	021c0000 	andseq	r0, ip, #0
     7a4:	022b0000 	eoreq	r0, fp, #0
     7a8:	00010000 	andeq	r0, r1, r0
     7ac:	00022b50 	andeq	r2, r2, r0, asr fp
     7b0:	00024400 	andeq	r4, r2, r0, lsl #8
     7b4:	f3000400 	vshl.u8	d0, d0, d0
     7b8:	449f5001 	ldrmi	r5, [pc], #1	; 7c0 <_start-0x7840>
     7bc:	70000002 	andvc	r0, r0, r2
     7c0:	01000002 	tsteq	r0, r2
     7c4:	00005000 	andeq	r5, r0, r0
     7c8:	00000000 	andeq	r0, r0, r0
     7cc:	021c0000 	andseq	r0, ip, #0
     7d0:	022b0000 	eoreq	r0, fp, #0
     7d4:	00010000 	andeq	r0, r1, r0
     7d8:	00022b51 	andeq	r2, r2, r1, asr fp
     7dc:	00024400 	andeq	r4, r2, r0, lsl #8
     7e0:	f3000400 	vshl.u8	d0, d0, d0
     7e4:	449f5101 	ldrmi	r5, [pc], #257	; 7ec <_start-0x7814>
     7e8:	70000002 	andvc	r0, r0, r2
     7ec:	01000002 	tsteq	r0, r2
     7f0:	00005100 	andeq	r5, r0, r0, lsl #2
     7f4:	00000000 	andeq	r0, r0, r0
     7f8:	02700000 	rsbseq	r0, r0, #0
     7fc:	029c0000 	addseq	r0, ip, #0
     800:	00010000 	andeq	r0, r1, r0
     804:	00029c50 	andeq	r9, r2, r0, asr ip
     808:	0004e400 	andeq	lr, r4, r0, lsl #8
     80c:	5a000100 	bpl	c14 <_start-0x73ec>
     810:	000004e4 	andeq	r0, r0, r4, ror #9
     814:	000004f8 	strdeq	r0, [r0], -r8
     818:	01f30004 	mvnseq	r0, r4
     81c:	00009f50 	andeq	r9, r0, r0, asr pc
     820:	00000000 	andeq	r0, r0, r0
     824:	02700000 	rsbseq	r0, r0, #0
     828:	02840000 	addeq	r0, r4, #0
     82c:	00010000 	andeq	r0, r1, r0
     830:	00028451 	andeq	r8, r2, r1, asr r4
     834:	00029c00 	andeq	r9, r2, r0, lsl #24
     838:	71000300 	mrsvc	r0, LR_irq
     83c:	029c9f01 	addseq	r9, ip, #1, 30
     840:	04f80000 	ldrbteq	r0, [r8], #0
     844:	00040000 	andeq	r0, r4, r0
     848:	9f5101f3 	svcls	0x005101f3
	...
     854:	00000270 	andeq	r0, r0, r0, ror r2
     858:	000002a4 	andeq	r0, r0, r4, lsr #5
     85c:	a4520001 	ldrbge	r0, [r2], #-1
     860:	cc000002 	stcgt	0, cr0, [r0], {2}
     864:	01000002 	tsteq	r0, r2
     868:	02cc5200 	sbceq	r5, ip, #0, 4
     86c:	04940000 	ldreq	r0, [r4], #0
     870:	00010000 	andeq	r0, r1, r0
     874:	00049456 	andeq	r9, r4, r6, asr r4
     878:	0004f800 	andeq	pc, r4, r0, lsl #16
     87c:	52000100 	andpl	r0, r0, #0, 2
	...
     888:	00000270 	andeq	r0, r0, r0, ror r2
     88c:	0000028c 	andeq	r0, r0, ip, lsl #5
     890:	00530001 	subseq	r0, r3, r1
     894:	00000000 	andeq	r0, r0, r0
     898:	80000000 	andhi	r0, r0, r0
     89c:	9c000002 	stcls	0, cr0, [r0], {2}
     8a0:	01000002 	tsteq	r0, r2
     8a4:	029c5000 	addseq	r5, ip, #0
     8a8:	02a00000 	adceq	r0, r0, #0
     8ac:	00010000 	andeq	r0, r1, r0
     8b0:	0002a054 	andeq	sl, r2, r4, asr r0
     8b4:	0002ac00 	andeq	sl, r2, r0, lsl #24
     8b8:	74000300 	strvc	r0, [r0], #-768	; 0x300
     8bc:	02ac9f01 	adceq	r9, ip, #1, 30
     8c0:	02b80000 	adcseq	r0, r8, #0
     8c4:	00010000 	andeq	r0, r1, r0
     8c8:	0002b854 	andeq	fp, r2, r4, asr r8
     8cc:	0002c400 	andeq	ip, r2, r0, lsl #8
     8d0:	74000300 	strvc	r0, [r0], #-768	; 0x300
     8d4:	02c49f01 	sbceq	r9, r4, #1, 30
     8d8:	04980000 	ldreq	r0, [r8], #0
     8dc:	00010000 	andeq	r0, r1, r0
     8e0:	00049854 	andeq	r9, r4, r4, asr r8
     8e4:	0004a400 	andeq	sl, r4, r0, lsl #8
     8e8:	74000300 	strvc	r0, [r0], #-768	; 0x300
     8ec:	04a49f01 	strteq	r9, [r4], #3841	; 0xf01
     8f0:	04d00000 	ldrbeq	r0, [r0], #0
     8f4:	00010000 	andeq	r0, r1, r0
     8f8:	0004d054 	andeq	sp, r4, r4, asr r0
     8fc:	0004dc00 	andeq	sp, r4, r0, lsl #24
     900:	50000100 	andpl	r0, r0, r0, lsl #2
     904:	000004dc 	ldrdeq	r0, [r0], -ip
     908:	000004e4 	andeq	r0, r0, r4, ror #9
     90c:	01740003 	cmneq	r4, r3
     910:	0000009f 	muleq	r0, pc, r0	; <UNPREDICTABLE>
     914:	00000000 	andeq	r0, r0, r0
     918:	00028800 	andeq	r8, r2, r0, lsl #16
     91c:	0004e400 	andeq	lr, r4, r0, lsl #8
     920:	58000100 	stmdapl	r0, {r8}
     924:	000004e4 	andeq	r0, r0, r4, ror #9
     928:	000004f8 	strdeq	r0, [r0], -r8
     92c:	01f3000a 	mvnseq	r0, sl
     930:	5001f351 	andpl	pc, r1, r1, asr r3	; <UNPREDICTABLE>
     934:	9f1c3122 	svcls	0x001c3122
	...
     940:	000003cc 	andeq	r0, r0, ip, asr #7
     944:	000003d0 	ldrdeq	r0, [r0], -r0	; <UNPREDICTABLE>
     948:	f0500001 			; <UNDEFINED> instruction: 0xf0500001
     94c:	f4000003 	vst4.8	{d0-d3}, [r0], r3
     950:	01000003 	tsteq	r0, r3
     954:	04145000 	ldreq	r5, [r4], #-0
     958:	04180000 	ldreq	r0, [r8], #-0
     95c:	00010000 	andeq	r0, r1, r0
     960:	00043850 	andeq	r3, r4, r0, asr r8
     964:	00043c00 	andeq	r3, r4, r0, lsl #24
     968:	50000100 	andpl	r0, r0, r0, lsl #2
     96c:	00000444 	andeq	r0, r0, r4, asr #8
     970:	00000448 	andeq	r0, r0, r8, asr #8
     974:	68500001 	ldmdavs	r0, {r0}^
     978:	6c000004 	stcvs	0, cr0, [r0], {4}
     97c:	01000004 	tsteq	r0, r4
     980:	04905000 	ldreq	r5, [r0], #0
     984:	04b80000 	ldrteq	r0, [r8], #0
     988:	00010000 	andeq	r0, r1, r0
     98c:	00000050 	andeq	r0, r0, r0, asr r0
     990:	00000000 	andeq	r0, r0, r0
     994:	0002cc00 	andeq	ip, r2, r0, lsl #24
     998:	0002d400 	andeq	sp, r2, r0, lsl #8
     99c:	30000200 	andcc	r0, r0, r0, lsl #4
     9a0:	0002d49f 	muleq	r2, pc, r4	; <UNPREDICTABLE>
     9a4:	0002d800 	andeq	sp, r2, r0, lsl #16
     9a8:	57000100 	strpl	r0, [r0, -r0, lsl #2]
     9ac:	000002e4 	andeq	r0, r0, r4, ror #5
     9b0:	000004b8 			; <UNDEFINED> instruction: 0x000004b8
     9b4:	00570001 	subseq	r0, r7, r1
     9b8:	00000000 	andeq	r0, r0, r0
     9bc:	14000000 	strne	r0, [r0], #-0
     9c0:	1c000000 	stcne	0, cr0, [r0], {-0}
     9c4:	03000000 	movweq	r0, #0
     9c8:	9f047300 	svcls	0x00047300
     9cc:	0000001c 	andeq	r0, r0, ip, lsl r0
     9d0:	00000027 	andeq	r0, r0, r7, lsr #32
     9d4:	00530001 	subseq	r0, r3, r1
     9d8:	00000000 	andeq	r0, r0, r0
     9dc:	60000000 	andvs	r0, r0, r0
     9e0:	64000089 	strvs	r0, [r0], #-137	; 0x89
     9e4:	02000089 	andeq	r0, r0, #137	; 0x89
     9e8:	649f3000 	ldrvs	r3, [pc], #0	; 9f0 <_start-0x7610>
     9ec:	68000089 	stmdavs	r0, {r0, r3, r7}
     9f0:	01000089 	smlabbeq	r0, r9, r0, r0
     9f4:	00005000 	andeq	r5, r0, r0
     9f8:	00000000 	andeq	r0, r0, r0
     9fc:	89780000 	ldmdbhi	r8!, {}^	; <UNPREDICTABLE>
     a00:	897c0000 	ldmdbhi	ip!, {}^	; <UNPREDICTABLE>
     a04:	00020000 	andeq	r0, r2, r0
     a08:	897c9f30 	ldmdbhi	ip!, {r4, r5, r8, r9, sl, fp, ip, pc}^
     a0c:	89800000 	stmibhi	r0, {}	; <UNPREDICTABLE>
     a10:	00010000 	andeq	r0, r1, r0
     a14:	00898453 	addeq	r8, r9, r3, asr r4
     a18:	00898c00 	addeq	r8, r9, r0, lsl #24
     a1c:	53000100 	movwpl	r0, #256	; 0x100
	...
     a2c:	00000004 	andeq	r0, r0, r4
     a30:	04500001 	ldrbeq	r0, [r0], #-1
     a34:	0c000000 	stceq	0, cr0, [r0], {-0}
     a38:	01000000 	mrseq	r0, (UNDEF: 0)
     a3c:	000c5300 	andeq	r5, ip, r0, lsl #6
     a40:	00100000 	andseq	r0, r0, r0
     a44:	00010000 	andeq	r0, r1, r0
     a48:	00001050 	andeq	r1, r0, r0, asr r0
     a4c:	00001c00 	andeq	r1, r0, r0, lsl #24
     a50:	53000100 	movwpl	r0, #256	; 0x100
	...
     a5c:	0000003c 	andeq	r0, r0, ip, lsr r0
     a60:	00000047 	andeq	r0, r0, r7, asr #32
     a64:	47500001 	ldrbmi	r0, [r0, -r1]
     a68:	60000000 	andvs	r0, r0, r0
     a6c:	01000000 	mrseq	r0, (UNDEF: 0)
     a70:	00005500 	andeq	r5, r0, r0, lsl #10
     a74:	00000000 	andeq	r0, r0, r0
     a78:	00500000 	subseq	r0, r0, r0
     a7c:	00540000 	subseq	r0, r4, r0
     a80:	00010000 	andeq	r0, r1, r0
     a84:	00000050 	andeq	r0, r0, r0, asr r0
     a88:	00000000 	andeq	r0, r0, r0
     a8c:	00006000 	andeq	r6, r0, r0
     a90:	00006c00 	andeq	r6, r0, r0, lsl #24
     a94:	50000100 	andpl	r0, r0, r0, lsl #2
     a98:	0000006c 	andeq	r0, r0, ip, rrx
     a9c:	00000074 	andeq	r0, r0, r4, ror r0
     aa0:	01f30004 	mvnseq	r0, r4
     aa4:	00009f50 	andeq	r9, r0, r0, asr pc
     aa8:	00000000 	andeq	r0, r0, r0
     aac:	00740000 	rsbseq	r0, r4, r0
     ab0:	00800000 	addeq	r0, r0, r0
     ab4:	00010000 	andeq	r0, r1, r0
     ab8:	00008050 	andeq	r8, r0, r0, asr r0
     abc:	00008800 	andeq	r8, r0, r0, lsl #16
     ac0:	f3000400 	vshl.u8	d0, d0, d0
     ac4:	009f5001 	addseq	r5, pc, r1
	...
     ad0:	90000000 	andls	r0, r0, r0
     ad4:	01000000 	mrseq	r0, (UNDEF: 0)
     ad8:	00905000 	addseq	r5, r0, r0
     adc:	00d40000 	sbcseq	r0, r4, r0
     ae0:	00010000 	andeq	r0, r1, r0
     ae4:	00000054 	andeq	r0, r0, r4, asr r0
     ae8:	00000000 	andeq	r0, r0, r0
     aec:	00004800 	andeq	r4, r0, r0, lsl #16
     af0:	00004c00 	andeq	r4, r0, r0, lsl #24
     af4:	55000100 	strpl	r0, [r0, #-256]	; 0x100
     af8:	00000054 	andeq	r0, r0, r4, asr r0
     afc:	00000058 	andeq	r0, r0, r8, asr r0
     b00:	60550001 	subsvs	r0, r5, r1
     b04:	64000000 	strvs	r0, [r0], #-0
     b08:	01000000 	mrseq	r0, (UNDEF: 0)
     b0c:	006c5500 	rsbeq	r5, ip, r0, lsl #10
     b10:	00700000 	rsbseq	r0, r0, r0
     b14:	00010000 	andeq	r0, r1, r0
     b18:	00007855 	andeq	r7, r0, r5, asr r8
     b1c:	00007c00 	andeq	r7, r0, r0, lsl #24
     b20:	55000100 	strpl	r0, [r0, #-256]	; 0x100
     b24:	00000084 	andeq	r0, r0, r4, lsl #1
     b28:	00000088 	andeq	r0, r0, r8, lsl #1
     b2c:	8c550001 	mrrchi	0, 0, r0, r5, cr1
     b30:	d4000000 	strle	r0, [r0], #-0
     b34:	01000000 	mrseq	r0, (UNDEF: 0)
     b38:	00005500 	andeq	r5, r0, r0, lsl #10
     b3c:	00000000 	andeq	r0, r0, r0
     b40:	001c0000 	andseq	r0, ip, r0
     b44:	00440000 	subeq	r0, r4, r0
     b48:	00010000 	andeq	r0, r1, r0
     b4c:	00004453 	andeq	r4, r0, r3, asr r4
     b50:	00004c00 	andeq	r4, r0, r0, lsl #24
     b54:	70001c00 	andvc	r1, r0, r0, lsl #24
     b58:	f72cf700 			; <UNDEFINED> instruction: 0xf72cf700
     b5c:	0825f425 	stmdaeq	r5!, {r0, r2, r5, sl, ip, sp, lr, pc}
     b60:	cccccccd 	stclgt	12, cr12, [ip], {205}	; 0xcd
     b64:	00000000 	andeq	r0, r0, r0
     b68:	f720081e 			; <UNDEFINED> instruction: 0xf720081e
     b6c:	2cf72525 	cfldr64cs	mvdx2, [r7], #148	; 0x94
     b70:	4c9f2533 	cfldr32mi	mvfx2, [pc], {51}	; 0x33
     b74:	50000000 	andpl	r0, r0, r0
     b78:	01000000 	mrseq	r0, (UNDEF: 0)
     b7c:	00505300 	subseq	r5, r0, r0, lsl #6
     b80:	00580000 	subseq	r0, r8, r0
     b84:	001c0000 	andseq	r0, ip, r0
     b88:	2cf70070 	ldclcs	0, cr0, [r7], #448	; 0x1c0
     b8c:	25f425f7 	ldrbcs	r2, [r4, #1527]!	; 0x5f7
     b90:	cccccd08 	stclgt	13, cr12, [ip], {8}
     b94:	000000cc 	andeq	r0, r0, ip, asr #1
     b98:	20081e00 	andcs	r1, r8, r0, lsl #28
     b9c:	f72525f7 			; <UNDEFINED> instruction: 0xf72525f7
     ba0:	9f25332c 	svcls	0x0025332c
     ba4:	00000058 	andeq	r0, r0, r8, asr r0
     ba8:	0000005c 	andeq	r0, r0, ip, asr r0
     bac:	5c530001 	mrrcpl	0, 0, r0, r3, cr1
     bb0:	64000000 	strvs	r0, [r0], #-0
     bb4:	1c000000 	stcne	0, cr0, [r0], {-0}
     bb8:	f7007000 			; <UNDEFINED> instruction: 0xf7007000
     bbc:	f425f72c 	vld1.8	{d15}, [r5 :128], ip
     bc0:	cccd0825 	stclgt	8, cr0, [sp], {37}	; 0x25
     bc4:	0000cccc 	andeq	ip, r0, ip, asr #25
     bc8:	081e0000 	ldmdaeq	lr, {}	; <UNPREDICTABLE>
     bcc:	2525f720 	strcs	pc, [r5, #-1824]!	; 0x720
     bd0:	25332cf7 	ldrcs	r2, [r3, #-3319]!	; 0xcf7
     bd4:	0000649f 	muleq	r0, pc, r4	; <UNPREDICTABLE>
     bd8:	00006800 	andeq	r6, r0, r0, lsl #16
     bdc:	53000100 	movwpl	r0, #256	; 0x100
     be0:	00000068 	andeq	r0, r0, r8, rrx
     be4:	00000070 	andeq	r0, r0, r0, ror r0
     be8:	0070001c 	rsbseq	r0, r0, ip, lsl r0
     bec:	25f72cf7 	ldrbcs	r2, [r7, #3319]!	; 0xcf7
     bf0:	cd0825f4 	cfstr32gt	mvfx2, [r8, #-976]	; 0xfffffc30
     bf4:	00cccccc 	sbceq	ip, ip, ip, asr #25
     bf8:	1e000000 	cdpne	0, 0, cr0, cr0, cr0, {0}
     bfc:	25f72008 	ldrbcs	r2, [r7, #8]!
     c00:	332cf725 	msrcc	CPSR_fs, #9699328	; 0x940000
     c04:	00709f25 	rsbseq	r9, r0, r5, lsr #30
     c08:	00740000 	rsbseq	r0, r4, r0
     c0c:	00010000 	andeq	r0, r1, r0
     c10:	00007453 	andeq	r7, r0, r3, asr r4
     c14:	00007c00 	andeq	r7, r0, r0, lsl #24
     c18:	70001c00 	andvc	r1, r0, r0, lsl #24
     c1c:	f72cf700 			; <UNDEFINED> instruction: 0xf72cf700
     c20:	0825f425 	stmdaeq	r5!, {r0, r2, r5, sl, ip, sp, lr, pc}
     c24:	cccccccd 	stclgt	12, cr12, [ip], {205}	; 0xcd
     c28:	00000000 	andeq	r0, r0, r0
     c2c:	f720081e 			; <UNDEFINED> instruction: 0xf720081e
     c30:	2cf72525 	cfldr64cs	mvdx2, [r7], #148	; 0x94
     c34:	7c9f2533 	cfldr32vc	mvfx2, [pc], {51}	; 0x33
     c38:	80000000 	andhi	r0, r0, r0
     c3c:	01000000 	mrseq	r0, (UNDEF: 0)
     c40:	00805300 	addeq	r5, r0, r0, lsl #6
     c44:	00880000 	addeq	r0, r8, r0
     c48:	001c0000 	andseq	r0, ip, r0
     c4c:	2cf70070 	ldclcs	0, cr0, [r7], #448	; 0x1c0
     c50:	25f425f7 	ldrbcs	r2, [r4, #1527]!	; 0x5f7
     c54:	cccccd08 	stclgt	13, cr12, [ip], {8}
     c58:	000000cc 	andeq	r0, r0, ip, asr #1
     c5c:	20081e00 	andcs	r1, r8, r0, lsl #28
     c60:	f72525f7 			; <UNDEFINED> instruction: 0xf72525f7
     c64:	9f25332c 	svcls	0x0025332c
     c68:	00000088 	andeq	r0, r0, r8, lsl #1
     c6c:	0000008c 	andeq	r0, r0, ip, lsl #1
     c70:	8c530001 	mrrchi	0, 0, r0, r3, cr1
     c74:	90000000 	andls	r0, r0, r0
     c78:	1c000000 	stcne	0, cr0, [r0], {-0}
     c7c:	f7007000 			; <UNDEFINED> instruction: 0xf7007000
     c80:	f425f72c 	vld1.8	{d15}, [r5 :128], ip
     c84:	cccd0825 	stclgt	8, cr0, [sp], {37}	; 0x25
     c88:	0000cccc 	andeq	ip, r0, ip, asr #25
     c8c:	081e0000 	ldmdaeq	lr, {}	; <UNPREDICTABLE>
     c90:	2525f720 	strcs	pc, [r5, #-1824]!	; 0x720
     c94:	25332cf7 	ldrcs	r2, [r3, #-3319]!	; 0xcf7
     c98:	0000909f 	muleq	r0, pc, r0	; <UNPREDICTABLE>
     c9c:	00009800 	andeq	r9, r0, r0, lsl #16
     ca0:	74001c00 	strvc	r1, [r0], #-3072	; 0xc00
     ca4:	f72cf700 			; <UNDEFINED> instruction: 0xf72cf700
     ca8:	0825f425 	stmdaeq	r5!, {r0, r2, r5, sl, ip, sp, lr, pc}
     cac:	cccccccd 	stclgt	12, cr12, [ip], {205}	; 0xcd
     cb0:	00000000 	andeq	r0, r0, r0
     cb4:	f720081e 			; <UNDEFINED> instruction: 0xf720081e
     cb8:	2cf72525 	cfldr64cs	mvdx2, [r7], #148	; 0x94
     cbc:	989f2533 	ldmls	pc, {r0, r1, r4, r5, r8, sl, sp}	; <UNPREDICTABLE>
     cc0:	9c000000 	stcls	0, cr0, [r0], {-0}
     cc4:	17000000 	strne	r0, [r0, -r0]
     cc8:	f7007400 			; <UNDEFINED> instruction: 0xf7007400
     ccc:	7125f72c 	msrvc	SP_abt, ip
     cd0:	f72cf700 			; <UNDEFINED> instruction: 0xf72cf700
     cd4:	20081e25 	andcs	r1, r8, r5, lsr #28
     cd8:	f72525f7 			; <UNDEFINED> instruction: 0xf72525f7
     cdc:	9f25332c 	svcls	0x0025332c
     ce0:	0000009c 	muleq	r0, ip, r0
     ce4:	000000d4 	ldrdeq	r0, [r0], -r4
     ce8:	0074001c 	rsbseq	r0, r4, ip, lsl r0
     cec:	25f72cf7 	ldrbcs	r2, [r7, #3319]!	; 0xcf7
     cf0:	cd0825f4 	cfstr32gt	mvfx2, [r8, #-976]	; 0xfffffc30
     cf4:	00cccccc 	sbceq	ip, ip, ip, asr #25
     cf8:	1e000000 	cdpne	0, 0, cr0, cr0, cr0, {0}
     cfc:	25f72008 	ldrbcs	r2, [r7, #8]!
     d00:	332cf725 	msrcc	CPSR_fs, #9699328	; 0x940000
     d04:	00009f25 	andeq	r9, r0, r5, lsr #30
     d08:	00000000 	andeq	r0, r0, r0
     d0c:	00940000 	addseq	r0, r4, r0
     d10:	00b80000 	adcseq	r0, r8, r0
     d14:	00010000 	andeq	r0, r1, r0
     d18:	0000b850 	andeq	fp, r0, r0, asr r8
     d1c:	0000c400 	andeq	ip, r0, r0, lsl #8
     d20:	31000800 	tstcc	r0, r0, lsl #16
     d24:	73240071 	teqvc	r4, #113	; 0x71
     d28:	c49f2100 	ldrgt	r2, [pc], #256	; d30 <_start-0x72d0>
     d2c:	c7000000 	strgt	r0, [r0, -r0]
     d30:	01000000 	mrseq	r0, (UNDEF: 0)
     d34:	00005100 	andeq	r5, r0, r0, lsl #2
     d38:	00000000 	andeq	r0, r0, r0
     d3c:	00d40000 	sbcseq	r0, r4, r0
     d40:	00f80000 	rscseq	r0, r8, r0
     d44:	00010000 	andeq	r0, r1, r0
     d48:	0000f850 	andeq	pc, r0, r0, asr r8	; <UNPREDICTABLE>
     d4c:	00010c00 	andeq	r0, r1, r0, lsl #24
     d50:	f3000400 	vshl.u8	d0, d0, d0
     d54:	009f5001 	addseq	r5, pc, r1
     d58:	00000000 	andeq	r0, r0, r0
     d5c:	e0000000 	and	r0, r0, r0
     d60:	e8000000 	stmda	r0, {}	; <UNPREDICTABLE>
     d64:	02000000 	andeq	r0, r0, #0
     d68:	e89f3000 	ldm	pc, {ip, sp}	; <UNPREDICTABLE>
     d6c:	e8000000 	stmda	r0, {}	; <UNPREDICTABLE>
     d70:	01000000 	mrseq	r0, (UNDEF: 0)
     d74:	00e85200 	rsceq	r5, r8, r0, lsl #4
     d78:	00f00000 	rscseq	r0, r0, r0
     d7c:	00020000 	andeq	r0, r2, r0
     d80:	00f09f30 	rscseq	r9, r0, r0, lsr pc
     d84:	01030000 	mrseq	r0, (UNDEF: 3)
     d88:	00010000 	andeq	r0, r1, r0
     d8c:	00000052 	andeq	r0, r0, r2, asr r0
     d90:	00000000 	andeq	r0, r0, r0
     d94:	0000e000 	andeq	lr, r0, r0
     d98:	0000f400 	andeq	pc, r0, r0, lsl #8
     d9c:	30000200 	andcc	r0, r0, r0, lsl #4
     da0:	0000f49f 	muleq	r0, pc, r4	; <UNPREDICTABLE>
     da4:	00010000 	andeq	r0, r1, r0
     da8:	31000500 	tstcc	r0, r0, lsl #10
     dac:	9f240073 	svcls	0x00240073
     db0:	00000100 	andeq	r0, r0, r0, lsl #2
     db4:	00000103 	andeq	r0, r0, r3, lsl #2
     db8:	03510001 	cmpeq	r1, #1
     dbc:	0c000001 	stceq	0, cr0, [r0], {1}
     dc0:	08000001 	stmdaeq	r0, {r0}
     dc4:	01f33100 	mvnseq	r3, r0, lsl #2
     dc8:	241a4f50 	ldrcs	r4, [sl], #-3920	; 0xf50
     dcc:	0000009f 	muleq	r0, pc, r0	; <UNPREDICTABLE>
     dd0:	00000000 	andeq	r0, r0, r0
     dd4:	00010c00 	andeq	r0, r1, r0, lsl #24
     dd8:	00013000 	andeq	r3, r1, r0
     ddc:	50000100 	andpl	r0, r0, r0, lsl #2
     de0:	00000130 	andeq	r0, r0, r0, lsr r1
     de4:	00000144 	andeq	r0, r0, r4, asr #2
     de8:	01f30004 	mvnseq	r0, r4
     dec:	00009f50 	andeq	r9, r0, r0, asr pc
     df0:	00000000 	andeq	r0, r0, r0
     df4:	01180000 	tsteq	r8, r0
     df8:	01200000 	teqeq	r0, r0
     dfc:	00020000 	andeq	r0, r2, r0
     e00:	01209f30 	teqeq	r0, r0, lsr pc
     e04:	01200000 	teqeq	r0, r0
     e08:	00010000 	andeq	r0, r1, r0
     e0c:	00012052 	andeq	r2, r1, r2, asr r0
     e10:	00012800 	andeq	r2, r1, r0, lsl #16
     e14:	30000200 	andcc	r0, r0, r0, lsl #4
     e18:	0001289f 	muleq	r1, pc, r8	; <UNPREDICTABLE>
     e1c:	00013b00 	andeq	r3, r1, r0, lsl #22
     e20:	52000100 	andpl	r0, r0, #0, 2
	...
     e2c:	00000118 	andeq	r0, r0, r8, lsl r1
     e30:	0000012c 	andeq	r0, r0, ip, lsr #2
     e34:	9f300002 	svcls	0x00300002
     e38:	0000012c 	andeq	r0, r0, ip, lsr #2
     e3c:	00000138 	andeq	r0, r0, r8, lsr r1
     e40:	73310005 	teqvc	r1, #5
     e44:	389f2400 	ldmcc	pc, {sl, sp}	; <UNPREDICTABLE>
     e48:	3b000001 	blcc	e54 <_start-0x71ac>
     e4c:	01000001 	tsteq	r0, r1
     e50:	013b5100 	teqeq	fp, r0, lsl #2
     e54:	01440000 	mrseq	r0, (UNDEF: 68)
     e58:	00080000 	andeq	r0, r8, r0
     e5c:	5001f331 	andpl	pc, r1, r1, lsr r3	; <UNPREDICTABLE>
     e60:	9f241a4f 	svcls	0x00241a4f
	...
     e6c:	00000144 	andeq	r0, r0, r4, asr #2
     e70:	000001d4 	ldrdeq	r0, [r0], -r4
     e74:	d4500001 	ldrble	r0, [r0], #-1
     e78:	10000001 	andne	r0, r0, r1
     e7c:	01000002 	tsteq	r0, r2
     e80:	00005400 	andeq	r5, r0, r0, lsl #8
     e84:	00000000 	andeq	r0, r0, r0
     e88:	018c0000 	orreq	r0, ip, r0
     e8c:	01900000 	orrseq	r0, r0, r0
     e90:	00010000 	andeq	r0, r1, r0
     e94:	00019855 	andeq	r9, r1, r5, asr r8
     e98:	00019c00 	andeq	r9, r1, r0, lsl #24
     e9c:	55000100 	strpl	r0, [r0, #-256]	; 0x100
     ea0:	000001a4 	andeq	r0, r0, r4, lsr #3
     ea4:	000001a8 	andeq	r0, r0, r8, lsr #3
     ea8:	b0550001 	subslt	r0, r5, r1
     eac:	b4000001 	strlt	r0, [r0], #-1
     eb0:	01000001 	tsteq	r0, r1
     eb4:	01bc5500 			; <UNDEFINED> instruction: 0x01bc5500
     eb8:	01c00000 	biceq	r0, r0, r0
     ebc:	00010000 	andeq	r0, r1, r0
     ec0:	0001c855 	andeq	ip, r1, r5, asr r8
     ec4:	0001cc00 	andeq	ip, r1, r0, lsl #24
     ec8:	55000100 	strpl	r0, [r0, #-256]	; 0x100
     ecc:	000001d0 	ldrdeq	r0, [r0], -r0	; <UNPREDICTABLE>
     ed0:	00000210 	andeq	r0, r0, r0, lsl r2
     ed4:	00550001 	subseq	r0, r5, r1
     ed8:	00000000 	andeq	r0, r0, r0
     edc:	60000000 	andvs	r0, r0, r0
     ee0:	88000001 	stmdahi	r0, {r0}
     ee4:	01000001 	tsteq	r0, r1
     ee8:	01885300 	orreq	r5, r8, r0, lsl #6
     eec:	01900000 	orrseq	r0, r0, r0
     ef0:	001c0000 	andseq	r0, ip, r0
     ef4:	2cf70070 	ldclcs	0, cr0, [r7], #448	; 0x1c0
     ef8:	25f425f7 	ldrbcs	r2, [r4, #1527]!	; 0x5f7
     efc:	cccccd08 	stclgt	13, cr12, [ip], {8}
     f00:	000000cc 	andeq	r0, r0, ip, asr #1
     f04:	20081e00 	andcs	r1, r8, r0, lsl #28
     f08:	f72525f7 			; <UNDEFINED> instruction: 0xf72525f7
     f0c:	9f25332c 	svcls	0x0025332c
     f10:	00000190 	muleq	r0, r0, r1
     f14:	00000194 	muleq	r0, r4, r1
     f18:	94530001 	ldrbls	r0, [r3], #-1
     f1c:	9c000001 	stcls	0, cr0, [r0], {1}
     f20:	1c000001 	stcne	0, cr0, [r0], {1}
     f24:	f7007000 			; <UNDEFINED> instruction: 0xf7007000
     f28:	f425f72c 	vld1.8	{d15}, [r5 :128], ip
     f2c:	cccd0825 	stclgt	8, cr0, [sp], {37}	; 0x25
     f30:	0000cccc 	andeq	ip, r0, ip, asr #25
     f34:	081e0000 	ldmdaeq	lr, {}	; <UNPREDICTABLE>
     f38:	2525f720 	strcs	pc, [r5, #-1824]!	; 0x720
     f3c:	25332cf7 	ldrcs	r2, [r3, #-3319]!	; 0xcf7
     f40:	00019c9f 	muleq	r1, pc, ip	; <UNPREDICTABLE>
     f44:	0001a000 	andeq	sl, r1, r0
     f48:	53000100 	movwpl	r0, #256	; 0x100
     f4c:	000001a0 	andeq	r0, r0, r0, lsr #3
     f50:	000001a8 	andeq	r0, r0, r8, lsr #3
     f54:	0070001c 	rsbseq	r0, r0, ip, lsl r0
     f58:	25f72cf7 	ldrbcs	r2, [r7, #3319]!	; 0xcf7
     f5c:	cd0825f4 	cfstr32gt	mvfx2, [r8, #-976]	; 0xfffffc30
     f60:	00cccccc 	sbceq	ip, ip, ip, asr #25
     f64:	1e000000 	cdpne	0, 0, cr0, cr0, cr0, {0}
     f68:	25f72008 	ldrbcs	r2, [r7, #8]!
     f6c:	332cf725 	msrcc	CPSR_fs, #9699328	; 0x940000
     f70:	01a89f25 			; <UNDEFINED> instruction: 0x01a89f25
     f74:	01ac0000 			; <UNDEFINED> instruction: 0x01ac0000
     f78:	00010000 	andeq	r0, r1, r0
     f7c:	0001ac53 	andeq	sl, r1, r3, asr ip
     f80:	0001b400 	andeq	fp, r1, r0, lsl #8
     f84:	70001c00 	andvc	r1, r0, r0, lsl #24
     f88:	f72cf700 			; <UNDEFINED> instruction: 0xf72cf700
     f8c:	0825f425 	stmdaeq	r5!, {r0, r2, r5, sl, ip, sp, lr, pc}
     f90:	cccccccd 	stclgt	12, cr12, [ip], {205}	; 0xcd
     f94:	00000000 	andeq	r0, r0, r0
     f98:	f720081e 			; <UNDEFINED> instruction: 0xf720081e
     f9c:	2cf72525 	cfldr64cs	mvdx2, [r7], #148	; 0x94
     fa0:	b49f2533 	ldrlt	r2, [pc], #1331	; fa8 <_start-0x7058>
     fa4:	b8000001 	stmdalt	r0, {r0}
     fa8:	01000001 	tsteq	r0, r1
     fac:	01b85300 			; <UNDEFINED> instruction: 0x01b85300
     fb0:	01c00000 	biceq	r0, r0, r0
     fb4:	001c0000 	andseq	r0, ip, r0
     fb8:	2cf70070 	ldclcs	0, cr0, [r7], #448	; 0x1c0
     fbc:	25f425f7 	ldrbcs	r2, [r4, #1527]!	; 0x5f7
     fc0:	cccccd08 	stclgt	13, cr12, [ip], {8}
     fc4:	000000cc 	andeq	r0, r0, ip, asr #1
     fc8:	20081e00 	andcs	r1, r8, r0, lsl #28
     fcc:	f72525f7 			; <UNDEFINED> instruction: 0xf72525f7
     fd0:	9f25332c 	svcls	0x0025332c
     fd4:	000001c0 	andeq	r0, r0, r0, asr #3
     fd8:	000001c4 	andeq	r0, r0, r4, asr #3
     fdc:	c4530001 	ldrbgt	r0, [r3], #-1
     fe0:	cc000001 	stcgt	0, cr0, [r0], {1}
     fe4:	1c000001 	stcne	0, cr0, [r0], {1}
     fe8:	f7007000 			; <UNDEFINED> instruction: 0xf7007000
     fec:	f425f72c 	vld1.8	{d15}, [r5 :128], ip
     ff0:	cccd0825 	stclgt	8, cr0, [sp], {37}	; 0x25
     ff4:	0000cccc 	andeq	ip, r0, ip, asr #25
     ff8:	081e0000 	ldmdaeq	lr, {}	; <UNPREDICTABLE>
     ffc:	2525f720 	strcs	pc, [r5, #-1824]!	; 0x720
    1000:	25332cf7 	ldrcs	r2, [r3, #-3319]!	; 0xcf7
    1004:	0001cc9f 	muleq	r1, pc, ip	; <UNPREDICTABLE>
    1008:	0001d000 	andeq	sp, r1, r0
    100c:	53000100 	movwpl	r0, #256	; 0x100
    1010:	000001d0 	ldrdeq	r0, [r0], -r0	; <UNPREDICTABLE>
    1014:	000001d4 	ldrdeq	r0, [r0], -r4
    1018:	0070001c 	rsbseq	r0, r0, ip, lsl r0
    101c:	25f72cf7 	ldrbcs	r2, [r7, #3319]!	; 0xcf7
    1020:	cd0825f4 	cfstr32gt	mvfx2, [r8, #-976]	; 0xfffffc30
    1024:	00cccccc 	sbceq	ip, ip, ip, asr #25
    1028:	1e000000 	cdpne	0, 0, cr0, cr0, cr0, {0}
    102c:	25f72008 	ldrbcs	r2, [r7, #8]!
    1030:	332cf725 	msrcc	CPSR_fs, #9699328	; 0x940000
    1034:	01d49f25 	bicseq	r9, r4, r5, lsr #30
    1038:	01dc0000 	bicseq	r0, ip, r0
    103c:	001c0000 	andseq	r0, ip, r0
    1040:	2cf70074 	ldclcs	0, cr0, [r7], #464	; 0x1d0
    1044:	25f425f7 	ldrbcs	r2, [r4, #1527]!	; 0x5f7
    1048:	cccccd08 	stclgt	13, cr12, [ip], {8}
    104c:	000000cc 	andeq	r0, r0, ip, asr #1
    1050:	20081e00 	andcs	r1, r8, r0, lsl #28
    1054:	f72525f7 			; <UNDEFINED> instruction: 0xf72525f7
    1058:	9f25332c 	svcls	0x0025332c
    105c:	000001dc 	ldrdeq	r0, [r0], -ip
    1060:	000001e0 	andeq	r0, r0, r0, ror #3
    1064:	00740017 	rsbseq	r0, r4, r7, lsl r0
    1068:	25f72cf7 	ldrbcs	r2, [r7, #3319]!	; 0xcf7
    106c:	2cf70071 	ldclcs	0, cr0, [r7], #452	; 0x1c4
    1070:	081e25f7 	ldmdaeq	lr, {r0, r1, r2, r4, r5, r6, r7, r8, sl, sp}
    1074:	2525f720 	strcs	pc, [r5, #-1824]!	; 0x720
    1078:	25332cf7 	ldrcs	r2, [r3, #-3319]!	; 0xcf7
    107c:	0001e09f 	muleq	r1, pc, r0	; <UNPREDICTABLE>
    1080:	00021000 	andeq	r1, r2, r0
    1084:	74001c00 	strvc	r1, [r0], #-3072	; 0xc00
    1088:	f72cf700 			; <UNDEFINED> instruction: 0xf72cf700
    108c:	0825f425 	stmdaeq	r5!, {r0, r2, r5, sl, ip, sp, lr, pc}
    1090:	cccccccd 	stclgt	12, cr12, [ip], {205}	; 0xcd
    1094:	00000000 	andeq	r0, r0, r0
    1098:	f720081e 			; <UNDEFINED> instruction: 0xf720081e
    109c:	2cf72525 	cfldr64cs	mvdx2, [r7], #148	; 0x94
    10a0:	009f2533 	addseq	r2, pc, r3, lsr r5	; <UNPREDICTABLE>
    10a4:	00000000 	andeq	r0, r0, r0
    10a8:	d8000000 	stmdale	r0, {}	; <UNPREDICTABLE>
    10ac:	fc000001 	stc2	0, cr0, [r0], {1}
    10b0:	01000001 	tsteq	r0, r1
    10b4:	01fc5000 	mvnseq	r5, r0
    10b8:	02030000 	andeq	r0, r3, #0
    10bc:	00010000 	andeq	r0, r1, r0
    10c0:	00000051 	andeq	r0, r0, r1, asr r0
    10c4:	00000000 	andeq	r0, r0, r0
    10c8:	00021000 	andeq	r1, r2, r0
    10cc:	00022c00 	andeq	r2, r2, r0, lsl #24
    10d0:	50000100 	andpl	r0, r0, r0, lsl #2
    10d4:	0000022c 	andeq	r0, r0, ip, lsr #4
    10d8:	00000234 	andeq	r0, r0, r4, lsr r2
    10dc:	34540001 	ldrbcc	r0, [r4], #-1
    10e0:	3c000002 	stccc	0, cr0, [r0], {2}
    10e4:	01000002 	tsteq	r0, r2
    10e8:	023c5000 	eorseq	r5, ip, #0
    10ec:	02440000 	subeq	r0, r4, #0
    10f0:	00010000 	andeq	r0, r1, r0
    10f4:	00024454 	andeq	r4, r2, r4, asr r4
    10f8:	00025000 	andeq	r5, r2, r0
    10fc:	f3000400 	vshl.u8	d0, d0, d0
    1100:	509f5001 	addspl	r5, pc, r1
    1104:	54000002 	strpl	r0, [r0], #-2
    1108:	01000002 	tsteq	r0, r2
    110c:	02545000 	subseq	r5, r4, #0
    1110:	025c0000 	subseq	r0, ip, #0
    1114:	00010000 	andeq	r0, r1, r0
    1118:	00000054 	andeq	r0, r0, r4, asr r0
    111c:	00000000 	andeq	r0, r0, r0
    1120:	00022000 	andeq	r2, r2, r0
    1124:	00023000 	andeq	r3, r2, r0
    1128:	30000200 	andcc	r0, r0, r0, lsl #4
    112c:	0002309f 	muleq	r2, pc, r0	; <UNPREDICTABLE>
    1130:	00023400 	andeq	r3, r2, r0, lsl #8
    1134:	50000100 	andpl	r0, r0, r0, lsl #2
    1138:	00000234 	andeq	r0, r0, r4, lsr r2
    113c:	00000240 	andeq	r0, r0, r0, asr #4
    1140:	9f300002 	svcls	0x00300002
    1144:	00000240 	andeq	r0, r0, r0, asr #4
    1148:	0000024c 	andeq	r0, r0, ip, asr #4
    114c:	00500001 	subseq	r0, r0, r1
    1150:	00000000 	andeq	r0, r0, r0
    1154:	5c000000 	stcpl	0, cr0, [r0], {-0}
    1158:	73000002 	movwvc	r0, #2
    115c:	01000002 	tsteq	r0, r2
    1160:	02735000 	rsbseq	r5, r3, #0
    1164:	02780000 	rsbseq	r0, r8, #0
    1168:	00040000 	andeq	r0, r4, r0
    116c:	9f5001f3 	svcls	0x005001f3
    1170:	00000278 	andeq	r0, r0, r8, ror r2
    1174:	0000027b 	andeq	r0, r0, fp, ror r2
    1178:	7b500001 	blvc	1401184 <__bss_end__+0x13f7984>
    117c:	80000002 	andhi	r0, r0, r2
    1180:	04000002 	streq	r0, [r0], #-2
    1184:	5001f300 	andpl	pc, r1, r0, lsl #6
    1188:	0000009f 	muleq	r0, pc, r0	; <UNPREDICTABLE>
    118c:	00000000 	andeq	r0, r0, r0
    1190:	00025c00 	andeq	r5, r2, r0, lsl #24
    1194:	00027300 	andeq	r7, r2, r0, lsl #6
    1198:	51000100 	mrspl	r0, (UNDEF: 16)
    119c:	00000273 	andeq	r0, r0, r3, ror r2
    11a0:	00000278 	andeq	r0, r0, r8, ror r2
    11a4:	01f30004 	mvnseq	r0, r4
    11a8:	02789f51 	rsbseq	r9, r8, #324	; 0x144
    11ac:	027b0000 	rsbseq	r0, fp, #0
    11b0:	00010000 	andeq	r0, r1, r0
    11b4:	00027b51 	andeq	r7, r2, r1, asr fp
    11b8:	00028000 	andeq	r8, r2, r0
    11bc:	f3000400 	vshl.u8	d0, d0, d0
    11c0:	009f5101 	addseq	r5, pc, r1, lsl #2
    11c4:	00000000 	andeq	r0, r0, r0
    11c8:	80000000 	andhi	r0, r0, r0
    11cc:	18000002 	stmdane	r0, {r1}
    11d0:	01000003 	tsteq	r0, r3
    11d4:	03185000 	tsteq	r8, #0
    11d8:	03580000 	cmpeq	r8, #0
    11dc:	00010000 	andeq	r0, r1, r0
    11e0:	00000054 	andeq	r0, r0, r4, asr r0
    11e4:	00000000 	andeq	r0, r0, r0
    11e8:	00028000 	andeq	r8, r2, r0
    11ec:	00031b00 	andeq	r1, r3, r0, lsl #22
    11f0:	51000100 	mrspl	r0, (UNDEF: 16)
    11f4:	0000031b 	andeq	r0, r0, fp, lsl r3
    11f8:	00000358 	andeq	r0, r0, r8, asr r3
    11fc:	01f30004 	mvnseq	r0, r4
    1200:	00009f51 	andeq	r9, r0, r1, asr pc
    1204:	00000000 	andeq	r0, r0, r0
    1208:	02d00000 	sbcseq	r0, r0, #0
    120c:	02d40000 	sbcseq	r0, r4, #0
    1210:	00010000 	andeq	r0, r1, r0
    1214:	0002dc56 	andeq	sp, r2, r6, asr ip
    1218:	0002e000 	andeq	lr, r2, r0
    121c:	56000100 	strpl	r0, [r0], -r0, lsl #2
    1220:	000002e8 	andeq	r0, r0, r8, ror #5
    1224:	000002ec 	andeq	r0, r0, ip, ror #5
    1228:	f4560001 			; <UNDEFINED> instruction: 0xf4560001
    122c:	f8000002 			; <UNDEFINED> instruction: 0xf8000002
    1230:	01000002 	tsteq	r0, r2
    1234:	03005600 	movweq	r5, #1536	; 0x600
    1238:	03040000 	movweq	r0, #16384	; 0x4000
    123c:	00010000 	andeq	r0, r1, r0
    1240:	00030c56 	andeq	r0, r3, r6, asr ip
    1244:	00031000 	andeq	r1, r3, r0
    1248:	56000100 	strpl	r0, [r0], -r0, lsl #2
    124c:	00000314 	andeq	r0, r0, r4, lsl r3
    1250:	00000358 	andeq	r0, r0, r8, asr r3
    1254:	00560001 	subseq	r0, r6, r1
    1258:	00000000 	andeq	r0, r0, r0
    125c:	a4000000 	strge	r0, [r0], #-0
    1260:	cc000002 	stcgt	0, cr0, [r0], {2}
    1264:	01000002 	tsteq	r0, r2
    1268:	02cc5300 	sbceq	r5, ip, #0, 6
    126c:	02d40000 	sbcseq	r0, r4, #0
    1270:	001c0000 	andseq	r0, ip, r0
    1274:	2cf70070 	ldclcs	0, cr0, [r7], #448	; 0x1c0
    1278:	25f425f7 	ldrbcs	r2, [r4, #1527]!	; 0x5f7
    127c:	cccccd08 	stclgt	13, cr12, [ip], {8}
    1280:	000000cc 	andeq	r0, r0, ip, asr #1
    1284:	20081e00 	andcs	r1, r8, r0, lsl #28
    1288:	f72525f7 			; <UNDEFINED> instruction: 0xf72525f7
    128c:	9f25332c 	svcls	0x0025332c
    1290:	000002d4 	ldrdeq	r0, [r0], -r4
    1294:	000002d8 	ldrdeq	r0, [r0], -r8
    1298:	d8530001 	ldmdale	r3, {r0}^
    129c:	e0000002 	and	r0, r0, r2
    12a0:	1c000002 	stcne	0, cr0, [r0], {2}
    12a4:	f7007000 			; <UNDEFINED> instruction: 0xf7007000
    12a8:	f425f72c 	vld1.8	{d15}, [r5 :128], ip
    12ac:	cccd0825 	stclgt	8, cr0, [sp], {37}	; 0x25
    12b0:	0000cccc 	andeq	ip, r0, ip, asr #25
    12b4:	081e0000 	ldmdaeq	lr, {}	; <UNPREDICTABLE>
    12b8:	2525f720 	strcs	pc, [r5, #-1824]!	; 0x720
    12bc:	25332cf7 	ldrcs	r2, [r3, #-3319]!	; 0xcf7
    12c0:	0002e09f 	muleq	r2, pc, r0	; <UNPREDICTABLE>
    12c4:	0002e400 	andeq	lr, r2, r0, lsl #8
    12c8:	53000100 	movwpl	r0, #256	; 0x100
    12cc:	000002e4 	andeq	r0, r0, r4, ror #5
    12d0:	000002ec 	andeq	r0, r0, ip, ror #5
    12d4:	0070001c 	rsbseq	r0, r0, ip, lsl r0
    12d8:	25f72cf7 	ldrbcs	r2, [r7, #3319]!	; 0xcf7
    12dc:	cd0825f4 	cfstr32gt	mvfx2, [r8, #-976]	; 0xfffffc30
    12e0:	00cccccc 	sbceq	ip, ip, ip, asr #25
    12e4:	1e000000 	cdpne	0, 0, cr0, cr0, cr0, {0}
    12e8:	25f72008 	ldrbcs	r2, [r7, #8]!
    12ec:	332cf725 	msrcc	CPSR_fs, #9699328	; 0x940000
    12f0:	02ec9f25 	rsceq	r9, ip, #37, 30	; 0x94
    12f4:	02f00000 	rscseq	r0, r0, #0
    12f8:	00010000 	andeq	r0, r1, r0
    12fc:	0002f053 	andeq	pc, r2, r3, asr r0	; <UNPREDICTABLE>
    1300:	0002f800 	andeq	pc, r2, r0, lsl #16
    1304:	70001c00 	andvc	r1, r0, r0, lsl #24
    1308:	f72cf700 			; <UNDEFINED> instruction: 0xf72cf700
    130c:	0825f425 	stmdaeq	r5!, {r0, r2, r5, sl, ip, sp, lr, pc}
    1310:	cccccccd 	stclgt	12, cr12, [ip], {205}	; 0xcd
    1314:	00000000 	andeq	r0, r0, r0
    1318:	f720081e 			; <UNDEFINED> instruction: 0xf720081e
    131c:	2cf72525 	cfldr64cs	mvdx2, [r7], #148	; 0x94
    1320:	f89f2533 			; <UNDEFINED> instruction: 0xf89f2533
    1324:	fc000002 	stc2	0, cr0, [r0], {2}
    1328:	01000002 	tsteq	r0, r2
    132c:	02fc5300 	rscseq	r5, ip, #0, 6
    1330:	03040000 	movweq	r0, #16384	; 0x4000
    1334:	001c0000 	andseq	r0, ip, r0
    1338:	2cf70070 	ldclcs	0, cr0, [r7], #448	; 0x1c0
    133c:	25f425f7 	ldrbcs	r2, [r4, #1527]!	; 0x5f7
    1340:	cccccd08 	stclgt	13, cr12, [ip], {8}
    1344:	000000cc 	andeq	r0, r0, ip, asr #1
    1348:	20081e00 	andcs	r1, r8, r0, lsl #28
    134c:	f72525f7 			; <UNDEFINED> instruction: 0xf72525f7
    1350:	9f25332c 	svcls	0x0025332c
    1354:	00000304 	andeq	r0, r0, r4, lsl #6
    1358:	00000308 	andeq	r0, r0, r8, lsl #6
    135c:	08530001 	ldmdaeq	r3, {r0}^
    1360:	10000003 	andne	r0, r0, r3
    1364:	1c000003 	stcne	0, cr0, [r0], {3}
    1368:	f7007000 			; <UNDEFINED> instruction: 0xf7007000
    136c:	f425f72c 	vld1.8	{d15}, [r5 :128], ip
    1370:	cccd0825 	stclgt	8, cr0, [sp], {37}	; 0x25
    1374:	0000cccc 	andeq	ip, r0, ip, asr #25
    1378:	081e0000 	ldmdaeq	lr, {}	; <UNPREDICTABLE>
    137c:	2525f720 	strcs	pc, [r5, #-1824]!	; 0x720
    1380:	25332cf7 	ldrcs	r2, [r3, #-3319]!	; 0xcf7
    1384:	0003109f 	muleq	r3, pc, r0	; <UNPREDICTABLE>
    1388:	00031400 	andeq	r1, r3, r0, lsl #8
    138c:	53000100 	movwpl	r0, #256	; 0x100
    1390:	00000314 	andeq	r0, r0, r4, lsl r3
    1394:	00000318 	andeq	r0, r0, r8, lsl r3
    1398:	0070001c 	rsbseq	r0, r0, ip, lsl r0
    139c:	25f72cf7 	ldrbcs	r2, [r7, #3319]!	; 0xcf7
    13a0:	cd0825f4 	cfstr32gt	mvfx2, [r8, #-976]	; 0xfffffc30
    13a4:	00cccccc 	sbceq	ip, ip, ip, asr #25
    13a8:	1e000000 	cdpne	0, 0, cr0, cr0, cr0, {0}
    13ac:	25f72008 	ldrbcs	r2, [r7, #8]!
    13b0:	332cf725 	msrcc	CPSR_fs, #9699328	; 0x940000
    13b4:	03189f25 	tsteq	r8, #37, 30	; 0x94
    13b8:	03200000 	teqeq	r0, #0
    13bc:	001c0000 	andseq	r0, ip, r0
    13c0:	2cf70074 	ldclcs	0, cr0, [r7], #464	; 0x1d0
    13c4:	25f425f7 	ldrbcs	r2, [r4, #1527]!	; 0x5f7
    13c8:	cccccd08 	stclgt	13, cr12, [ip], {8}
    13cc:	000000cc 	andeq	r0, r0, ip, asr #1
    13d0:	20081e00 	andcs	r1, r8, r0, lsl #28
    13d4:	f72525f7 			; <UNDEFINED> instruction: 0xf72525f7
    13d8:	9f25332c 	svcls	0x0025332c
    13dc:	00000320 	andeq	r0, r0, r0, lsr #6
    13e0:	00000324 	andeq	r0, r0, r4, lsr #6
    13e4:	00740017 	rsbseq	r0, r4, r7, lsl r0
    13e8:	25f72cf7 	ldrbcs	r2, [r7, #3319]!	; 0xcf7
    13ec:	2cf70073 	ldclcs	0, cr0, [r7], #460	; 0x1cc
    13f0:	081e25f7 	ldmdaeq	lr, {r0, r1, r2, r4, r5, r6, r7, r8, sl, sp}
    13f4:	2525f720 	strcs	pc, [r5, #-1824]!	; 0x720
    13f8:	25332cf7 	ldrcs	r2, [r3, #-3319]!	; 0xcf7
    13fc:	0003249f 	muleq	r3, pc, r4	; <UNPREDICTABLE>
    1400:	00035800 	andeq	r5, r3, r0, lsl #16
    1404:	74001c00 	strvc	r1, [r0], #-3072	; 0xc00
    1408:	f72cf700 			; <UNDEFINED> instruction: 0xf72cf700
    140c:	0825f425 	stmdaeq	r5!, {r0, r2, r5, sl, ip, sp, lr, pc}
    1410:	cccccccd 	stclgt	12, cr12, [ip], {205}	; 0xcd
    1414:	00000000 	andeq	r0, r0, r0
    1418:	f720081e 			; <UNDEFINED> instruction: 0xf720081e
    141c:	2cf72525 	cfldr64cs	mvdx2, [r7], #148	; 0x94
    1420:	009f2533 	addseq	r2, pc, r3, lsr r5	; <UNPREDICTABLE>
    1424:	00000000 	andeq	r0, r0, r0
    1428:	1c000000 	stcne	0, cr0, [r0], {-0}
    142c:	40000003 	andmi	r0, r0, r3
    1430:	01000003 	tsteq	r0, r3
    1434:	03405000 	movteq	r5, #0
    1438:	03480000 	movteq	r0, #32768	; 0x8000
    143c:	00090000 	andeq	r0, r9, r0
    1440:	00730075 	rsbseq	r0, r3, r5, ror r0
    1444:	21007124 	tstcs	r0, r4, lsr #2
    1448:	0003489f 	muleq	r3, pc, r8	; <UNPREDICTABLE>
    144c:	00034b00 	andeq	r4, r3, r0, lsl #22
    1450:	51000100 	mrspl	r0, (UNDEF: 16)
	...
    145c:	00000358 	andeq	r0, r0, r8, asr r3
    1460:	0000037c 	andeq	r0, r0, ip, ror r3
    1464:	7c500001 	mrrcvc	0, 0, r0, r0, cr1	; <UNPREDICTABLE>
    1468:	90000003 	andls	r0, r0, r3
    146c:	04000003 	streq	r0, [r0], #-3
    1470:	5001f300 	andpl	pc, r1, r0, lsl #6
    1474:	0000009f 	muleq	r0, pc, r0	; <UNPREDICTABLE>
    1478:	00000000 	andeq	r0, r0, r0
    147c:	00036400 	andeq	r6, r3, r0, lsl #8
    1480:	00036c00 	andeq	r6, r3, r0, lsl #24
    1484:	30000200 	andcc	r0, r0, r0, lsl #4
    1488:	00036c9f 	muleq	r3, pc, ip	; <UNPREDICTABLE>
    148c:	00036c00 	andeq	r6, r3, r0, lsl #24
    1490:	52000100 	andpl	r0, r0, #0, 2
    1494:	0000036c 	andeq	r0, r0, ip, ror #6
    1498:	00000374 	andeq	r0, r0, r4, ror r3
    149c:	9f300002 	svcls	0x00300002
    14a0:	00000374 	andeq	r0, r0, r4, ror r3
    14a4:	00000387 	andeq	r0, r0, r7, lsl #7
    14a8:	00520001 	subseq	r0, r2, r1
    14ac:	00000000 	andeq	r0, r0, r0
    14b0:	64000000 	strvs	r0, [r0], #-0
    14b4:	78000003 	stmdavc	r0, {r0, r1}
    14b8:	02000003 	andeq	r0, r0, #3
    14bc:	789f3000 	ldmvc	pc, {ip, sp}	; <UNPREDICTABLE>
    14c0:	84000003 	strhi	r0, [r0], #-3
    14c4:	05000003 	streq	r0, [r0, #-3]
    14c8:	00733100 	rsbseq	r3, r3, r0, lsl #2
    14cc:	03849f24 	orreq	r9, r4, #36, 30	; 0x90
    14d0:	03870000 	orreq	r0, r7, #0
    14d4:	00010000 	andeq	r0, r1, r0
    14d8:	00038751 	andeq	r8, r3, r1, asr r7
    14dc:	00039000 	andeq	r9, r3, r0
    14e0:	31000800 	tstcc	r0, r0, lsl #16
    14e4:	4f5001f3 	svcmi	0x005001f3
    14e8:	009f241a 	addseq	r2, pc, sl, lsl r4	; <UNPREDICTABLE>
    14ec:	00000000 	andeq	r0, r0, r0
    14f0:	90000000 	andls	r0, r0, r0
    14f4:	9c000003 	stcls	0, cr0, [r0], {3}
    14f8:	01000003 	tsteq	r0, r3
    14fc:	039c5000 	orrseq	r5, ip, #0
    1500:	03bc0000 			; <UNDEFINED> instruction: 0x03bc0000
    1504:	00040000 	andeq	r0, r4, r0
    1508:	9f5001f3 	svcls	0x005001f3
	...
    1514:	000003bc 			; <UNDEFINED> instruction: 0x000003bc
    1518:	000003cf 	andeq	r0, r0, pc, asr #7
    151c:	cf500001 	svcgt	0x00500001
    1520:	08000003 	stmdaeq	r0, {r0, r1}
    1524:	01000004 	tsteq	r0, r4
    1528:	04085400 	streq	r5, [r8], #-1024	; 0x400
    152c:	04400000 	strbeq	r0, [r0], #-0
    1530:	00040000 	andeq	r0, r4, r0
    1534:	9f5001f3 	svcls	0x005001f3
	...
    1540:	00000428 	andeq	r0, r0, r8, lsr #8
    1544:	0000042c 	andeq	r0, r0, ip, lsr #8
    1548:	2c500001 	mrrccs	0, 0, r0, r0, cr1	; <UNPREDICTABLE>
    154c:	33000004 	movwcc	r0, #4
    1550:	01000004 	tsteq	r0, r4
    1554:	00005100 	andeq	r5, r0, r0, lsl #2
    1558:	00000000 	andeq	r0, r0, r0
    155c:	03e40000 	mvneq	r0, #0
    1560:	03ec0000 	mvneq	r0, #0
    1564:	00010000 	andeq	r0, r1, r0
    1568:	0003ec50 	andeq	lr, r3, r0, asr ip
    156c:	0003f300 	andeq	pc, r3, r0, lsl #6
    1570:	51000100 	mrspl	r0, (UNDEF: 16)
	...
    157c:	00000404 	andeq	r0, r0, r4, lsl #8
    1580:	00000410 	andeq	r0, r0, r0, lsl r4
    1584:	10500001 	subsne	r0, r0, r1
    1588:	17000004 	strne	r0, [r0, -r4]
    158c:	01000004 	tsteq	r0, r4
    1590:	00005100 	andeq	r5, r0, r0, lsl #2
    1594:	00000000 	andeq	r0, r0, r0
    1598:	04400000 	strbeq	r0, [r0], #-0
    159c:	04530000 	ldrbeq	r0, [r3], #-0
    15a0:	00010000 	andeq	r0, r1, r0
    15a4:	00045350 	andeq	r5, r4, r0, asr r3
    15a8:	00048c00 	andeq	r8, r4, r0, lsl #24
    15ac:	54000100 	strpl	r0, [r0], #-256	; 0x100
    15b0:	0000048c 	andeq	r0, r0, ip, lsl #9
    15b4:	000004c4 	andeq	r0, r0, r4, asr #9
    15b8:	01f30004 	mvnseq	r0, r4
    15bc:	00009f50 	andeq	r9, r0, r0, asr pc
    15c0:	00000000 	andeq	r0, r0, r0
    15c4:	04ac0000 	strteq	r0, [ip], #0
    15c8:	04b00000 	ldrteq	r0, [r0], #0
    15cc:	00010000 	andeq	r0, r1, r0
    15d0:	0004b050 	andeq	fp, r4, r0, asr r0
    15d4:	0004b700 	andeq	fp, r4, r0, lsl #14
    15d8:	51000100 	mrspl	r0, (UNDEF: 16)
	...
    15e4:	00000468 	andeq	r0, r0, r8, ror #8
    15e8:	00000470 	andeq	r0, r0, r0, ror r4
    15ec:	70500001 	subsvc	r0, r0, r1
    15f0:	77000004 	strvc	r0, [r0, -r4]
    15f4:	01000004 	tsteq	r0, r4
    15f8:	00005100 	andeq	r5, r0, r0, lsl #2
    15fc:	00000000 	andeq	r0, r0, r0
    1600:	04880000 	streq	r0, [r8], #0
    1604:	04940000 	ldreq	r0, [r4], #0
    1608:	00010000 	andeq	r0, r1, r0
    160c:	00049450 	andeq	r9, r4, r0, asr r4
    1610:	00049b00 	andeq	r9, r4, r0, lsl #22
    1614:	51000100 	mrspl	r0, (UNDEF: 16)
	...
    1620:	000004c4 	andeq	r0, r0, r4, asr #9
    1624:	000004d7 	ldrdeq	r0, [r0], -r7
    1628:	d7500001 	ldrble	r0, [r0, -r1]
    162c:	18000004 	stmdane	r0, {r2}
    1630:	01000005 	tsteq	r0, r5
    1634:	05185400 	ldreq	r5, [r8, #-1024]	; 0x400
    1638:	053c0000 	ldreq	r0, [ip, #-0]!
    163c:	00040000 	andeq	r0, r4, r0
    1640:	9f5001f3 	svcls	0x005001f3
    1644:	0000053c 	andeq	r0, r0, ip, lsr r5
    1648:	00000540 	andeq	r0, r0, r0, asr #10
    164c:	40500001 	subsmi	r0, r0, r1
    1650:	48000005 	stmdami	r0, {r0, r2}
    1654:	01000005 	tsteq	r0, r5
    1658:	00005400 	andeq	r5, r0, r0, lsl #8
    165c:	00000000 	andeq	r0, r0, r0
    1660:	04ec0000 	strbteq	r0, [ip], #0
    1664:	04fb0000 	ldrbteq	r0, [fp], #0
    1668:	00080000 	andeq	r0, r8, r0
    166c:	24007431 	strcs	r7, [r0], #-1073	; 0x431
    1670:	9f1a0070 	svcls	0x001a0070
	...
    167c:	00000518 	andeq	r0, r0, r8, lsl r5
    1680:	00000530 	andeq	r0, r0, r0, lsr r5
    1684:	00540001 	subseq	r0, r4, r1
    1688:	00000000 	andeq	r0, r0, r0
    168c:	48000000 	stmdami	r0, {}	; <UNPREDICTABLE>
    1690:	5b000005 	blpl	16ac <_start-0x6954>
    1694:	01000005 	tsteq	r0, r5
    1698:	055b5000 	ldrbeq	r5, [fp, #-0]
    169c:	05800000 	streq	r0, [r0]
    16a0:	00010000 	andeq	r0, r1, r0
    16a4:	00058054 	andeq	r8, r5, r4, asr r0
    16a8:	0005a000 	andeq	sl, r5, r0
    16ac:	f3000400 	vshl.u8	d0, d0, d0
    16b0:	009f5001 	addseq	r5, pc, r1
    16b4:	00000000 	andeq	r0, r0, r0
    16b8:	fc000000 	stc2	0, cr0, [r0], {-0}
    16bc:	04000000 	streq	r0, [r0], #-0
    16c0:	01000001 	tsteq	r0, r1
    16c4:	01045000 	mrseq	r5, (UNDEF: 4)
    16c8:	01280000 	teqeq	r8, r0
    16cc:	00010000 	andeq	r0, r1, r0
    16d0:	00000054 	andeq	r0, r0, r4, asr r0
	...
    16dc:	00000b00 	andeq	r0, r0, r0, lsl #22
    16e0:	50000100 	andpl	r0, r0, r0, lsl #2
    16e4:	0000000b 	andeq	r0, r0, fp
    16e8:	00000014 	andeq	r0, r0, r4, lsl r0
    16ec:	00540001 	subseq	r0, r4, r1
    16f0:	00000000 	andeq	r0, r0, r0
    16f4:	Address 0x00000000000016f4 is out of bounds.


Disassembly of section .debug_aranges:

00000000 <.debug_aranges>:
   0:	0000001c 	andeq	r0, r0, ip, lsl r0
   4:	00000002 	andeq	r0, r0, r2
   8:	00040000 	andeq	r0, r4, r0
   c:	00000000 	andeq	r0, r0, r0
  10:	00008010 	andeq	r8, r0, r0, lsl r0
  14:	00000090 	muleq	r0, r0, r0
	...
  20:	0000001c 	andeq	r0, r0, ip, lsl r0
  24:	022c0002 	eoreq	r0, ip, #2
  28:	00040000 	andeq	r0, r4, r0
  2c:	00000000 	andeq	r0, r0, r0
  30:	000080a0 	andeq	r8, r0, r0, lsr #1
  34:	0000013c 	andeq	r0, r0, ip, lsr r1
	...
  40:	0000001c 	andeq	r0, r0, ip, lsl r0
  44:	05640002 	strbeq	r0, [r4, #-2]!
  48:	00040000 	andeq	r0, r4, r0
  4c:	00000000 	andeq	r0, r0, r0
  50:	000081dc 	ldrdeq	r8, [r0], -ip
  54:	000001a4 	andeq	r0, r0, r4, lsr #3
	...
  60:	0000001c 	andeq	r0, r0, ip, lsl r0
  64:	09470002 	stmdbeq	r7, {r1}^
  68:	00040000 	andeq	r0, r4, r0
  6c:	00000000 	andeq	r0, r0, r0
  70:	00008380 	andeq	r8, r0, r0, lsl #7
  74:	00000058 	andeq	r0, r0, r8, asr r0
	...
  80:	0000001c 	andeq	r0, r0, ip, lsl r0
  84:	0adc0002 	beq	ff700094 <__bss_end__+0xff6f6894>
  88:	00040000 	andeq	r0, r4, r0
  8c:	00000000 	andeq	r0, r0, r0
  90:	000083d8 	ldrdeq	r8, [r0], -r8	; <UNPREDICTABLE>
  94:	00000034 	andeq	r0, r0, r4, lsr r0
	...
  a0:	0000001c 	andeq	r0, r0, ip, lsl r0
  a4:	0bce0002 	bleq	ff3800b4 <__bss_end__+0xff3768b4>
  a8:	00040000 	andeq	r0, r4, r0
  ac:	00000000 	andeq	r0, r0, r0
  b0:	0000840c 	andeq	r8, r0, ip, lsl #8
  b4:	000004f8 	strdeq	r0, [r0], -r8
	...
  c0:	0000001c 	andeq	r0, r0, ip, lsl r0
  c4:	12530002 	subsne	r0, r3, #2
  c8:	00040000 	andeq	r0, r4, r0
  cc:	00000000 	andeq	r0, r0, r0
  d0:	00008904 	andeq	r8, r0, r4, lsl #18
  d4:	00000028 	andeq	r0, r0, r8, lsr #32
	...
  e0:	0000001c 	andeq	r0, r0, ip, lsl r0
  e4:	13560002 	cmpne	r6, #2
  e8:	00040000 	andeq	r0, r4, r0
  ec:	00000000 	andeq	r0, r0, r0
  f0:	0000892c 	andeq	r8, r0, ip, lsr #18
  f4:	00000034 	andeq	r0, r0, r4, lsr r0
	...
 100:	0000001c 	andeq	r0, r0, ip, lsl r0
 104:	14590002 	ldrbne	r0, [r9], #-2
 108:	00040000 	andeq	r0, r4, r0
 10c:	00000000 	andeq	r0, r0, r0
 110:	00008960 	andeq	r8, r0, r0, ror #18
 114:	00000074 	andeq	r0, r0, r4, ror r0
	...
 120:	0000001c 	andeq	r0, r0, ip, lsl r0
 124:	160a0002 	strne	r0, [sl], -r2
 128:	00040000 	andeq	r0, r4, r0
 12c:	00000000 	andeq	r0, r0, r0
 130:	000089d4 	ldrdeq	r8, [r0], -r4
 134:	00000088 	andeq	r0, r0, r8, lsl #1
	...
 140:	0000001c 	andeq	r0, r0, ip, lsl r0
 144:	17e60002 	strbne	r0, [r6, r2]!
 148:	00040000 	andeq	r0, r4, r0
 14c:	00000000 	andeq	r0, r0, r0
 150:	00008a5c 	andeq	r8, r0, ip, asr sl
 154:	000005a0 	andeq	r0, r0, r0, lsr #11
	...
 160:	0000001c 	andeq	r0, r0, ip, lsl r0
 164:	206c0002 	rsbcs	r0, ip, r2
 168:	00040000 	andeq	r0, r4, r0
 16c:	00000000 	andeq	r0, r0, r0
 170:	00008ffc 	strdeq	r8, [r0], -ip
 174:	00000154 	andeq	r0, r0, r4, asr r1
	...
 180:	0000001c 	andeq	r0, r0, ip, lsl r0
 184:	246f0002 	strbtcs	r0, [pc], #-2	; 18c <_start-0x7e74>
 188:	00040000 	andeq	r0, r4, r0
 18c:	00000000 	andeq	r0, r0, r0
 190:	000091b4 			; <UNDEFINED> instruction: 0x000091b4
 194:	0000003c 	andeq	r0, r0, ip, lsr r0
	...

Disassembly of section .debug_line:

00000000 <.debug_line>:
   0:	000000a9 	andeq	r0, r0, r9, lsr #1
   4:	00780002 	rsbseq	r0, r8, r2
   8:	01020000 	mrseq	r0, (UNDEF: 2)
   c:	000d0efb 	strdeq	r0, [sp], -fp
  10:	01010101 	tsteq	r1, r1, lsl #2
  14:	01000000 	mrseq	r0, (UNDEF: 0)
  18:	2f010000 	svccs	0x00010000
  1c:	72657355 	rsbvc	r7, r5, #1409286145	; 0x54000001
  20:	72622f73 	rsbvc	r2, r2, #460	; 0x1cc
  24:	6a6e6169 	bvs	1b985d0 <__bss_end__+0x1b8edd0>
  28:	442f6e75 	strtmi	r6, [pc], #-3701	; 30 <_start-0x7fd0>
  2c:	746b7365 	strbtvc	r7, [fp], #-869	; 0x365
  30:	732f706f 	teqvc	pc, #111	; 0x6f
  34:	6f6f6863 	svcvs	0x006f6863
  38:	69572f6c 	ldmdbvs	r7, {r2, r3, r5, r6, r8, r9, sl, fp, sp}^
  3c:	7265746e 	rsbvc	r7, r5, #1845493760	; 0x6e000000
  40:	30323931 	eorscc	r3, r2, r1, lsr r9
  44:	3153432f 	cmpcc	r3, pc, lsr #6
  48:	2f453034 	svccs	0x00453034
  4c:	34317363 	ldrtcc	r7, [r1], #-867	; 0x363
  50:	322d6530 	eorcc	r6, sp, #48, 10	; 0xc000000
  54:	6e697730 	mcrvs	7, 3, r7, cr9, cr0, {1}
  58:	62696c2f 	rsbvs	r6, r9, #12032	; 0x2f00
  5c:	00006970 	andeq	r6, r0, r0, ror r9
  60:	616e6f73 	smcvs	59123	; 0xe6f3
  64:	00632e72 	rsbeq	r2, r3, r2, ror lr
  68:	68000000 	stmdavs	r0, {}	; <UNPREDICTABLE>
  6c:	72732d63 	rsbsvc	r2, r3, #6336	; 0x18c0
  70:	682e3430 	stmdavs	lr!, {r4, r5, sl, ip, sp}
  74:	00000000 	andeq	r0, r0, r0
  78:	2e697072 	mcrcs	0, 3, r7, cr9, cr2, {3}
  7c:	00010068 	andeq	r0, r1, r8, rrx
  80:	05000000 	streq	r0, [r0, #-0]
  84:	00801002 	addeq	r1, r0, r2
  88:	304e1600 	subcc	r1, lr, r0, lsl #12
  8c:	304c834b 	subcc	r8, ip, fp, asr #6
  90:	7a033030 	bvc	cc158 <__bss_end__+0xc2958>
  94:	0402002e 	streq	r0, [r2], #-46	; 0x2e
  98:	4ca03001 	stcmi	0, cr3, [r0], #4
  9c:	004a7a03 	subeq	r7, sl, r3, lsl #20
  a0:	06010402 	streq	r0, [r1], -r2, lsl #8
  a4:	4b52062e 	blmi	1481964 <__bss_end__+0x1478164>
  a8:	01000c02 	tsteq	r0, r2, lsl #24
  ac:	00010901 	andeq	r0, r1, r1, lsl #18
  b0:	d3000200 	movwle	r0, #512	; 0x200
  b4:	02000000 	andeq	r0, r0, #0
  b8:	0d0efb01 	vstreq	d15, [lr, #-4]
  bc:	01010100 	mrseq	r0, (UNDEF: 17)
  c0:	00000001 	andeq	r0, r0, r1
  c4:	01000001 	tsteq	r0, r1
  c8:	6573552f 	ldrbvs	r5, [r3, #-1327]!	; 0x52f
  cc:	622f7372 	eorvs	r7, pc, #-939524095	; 0xc8000001
  d0:	6e616972 	mcrvs	9, 3, r6, cr1, cr2, {3}
  d4:	2f6e756a 	svccs	0x006e756a
  d8:	6b736544 	blvs	1cd95f0 <__bss_end__+0x1ccfdf0>
  dc:	2f706f74 	svccs	0x00706f74
  e0:	6f686373 	svcvs	0x00686373
  e4:	572f6c6f 	strpl	r6, [pc, -pc, ror #24]!
  e8:	65746e69 	ldrbvs	r6, [r4, #-3689]!	; 0xe69
  ec:	32393172 	eorscc	r3, r9, #-2147483620	; 0x8000001c
  f0:	53432f30 	movtpl	r2, #16176	; 0x3f30
  f4:	45303431 	ldrmi	r3, [r0, #-1073]!	; 0x431
  f8:	3173632f 	cmncc	r3, pc, lsr #6
  fc:	2d653034 	stclcs	0, cr3, [r5, #-208]!	; 0xffffff30
 100:	69773032 	ldmdbvs	r7!, {r1, r4, r5, ip, sp}^
 104:	696c2f6e 	stmdbvs	ip!, {r1, r2, r3, r5, r6, r8, r9, sl, fp, sp}^
 108:	2f697062 	svccs	0x00697062
 10c:	34317363 	ldrtcc	r7, [r1], #-867	; 0x363
 110:	732d6530 	teqvc	sp, #48, 10	; 0xc000000
 114:	2f006372 	svccs	0x00006372
 118:	72657355 	rsbvc	r7, r5, #1409286145	; 0x54000001
 11c:	72622f73 	rsbvc	r2, r2, #460	; 0x1cc
 120:	6a6e6169 	bvs	1b986cc <__bss_end__+0x1b8eecc>
 124:	442f6e75 	strtmi	r6, [pc], #-3701	; 12c <_start-0x7ed4>
 128:	746b7365 	strbtvc	r7, [fp], #-869	; 0x365
 12c:	732f706f 	teqvc	pc, #111	; 0x6f
 130:	6f6f6863 	svcvs	0x006f6863
 134:	69572f6c 	ldmdbvs	r7, {r2, r3, r5, r6, r8, r9, sl, fp, sp}^
 138:	7265746e 	rsbvc	r7, r5, #1845493760	; 0x6e000000
 13c:	30323931 	eorscc	r3, r2, r1, lsr r9
 140:	3153432f 	cmpcc	r3, pc, lsr #6
 144:	2f453034 	svccs	0x00453034
 148:	34317363 	ldrtcc	r7, [r1], #-867	; 0x363
 14c:	322d6530 	eorcc	r6, sp, #48, 10	; 0xc000000
 150:	6e697730 	mcrvs	7, 3, r7, cr9, cr0, {1}
 154:	62696c2f 	rsbvs	r6, r9, #12032	; 0x2f00
 158:	00006970 	andeq	r6, r0, r0, ror r9
 15c:	732d6368 	teqvc	sp, #104, 6	; 0xa0000001
 160:	2e343072 	mrccs	0, 1, r3, cr4, cr2, {3}
 164:	00000063 	andeq	r0, r0, r3, rrx
 168:	2d636800 	stclcs	8, cr6, [r3, #-0]
 16c:	34307273 	ldrtcc	r7, [r0], #-627	; 0x273
 170:	0000682e 	andeq	r6, r0, lr, lsr #16
 174:	70670000 	rsbvc	r0, r7, r0
 178:	682e6f69 	stmdavs	lr!, {r0, r3, r5, r6, r8, r9, sl, fp, sp, lr}
 17c:	00000100 	andeq	r0, r0, r0, lsl #2
 180:	2e697072 	mcrcs	0, 3, r7, cr9, cr2, {3}
 184:	00020068 	andeq	r0, r2, r8, rrx
 188:	05000000 	streq	r0, [r0, #-0]
 18c:	0080a002 	addeq	sl, r0, r2
 190:	2a881a00 	bcs	fe206998 <__bss_end__+0xfe1fd198>
 194:	46832f85 	strmi	r2, [r3], r5, lsl #31
 198:	4a120335 	bmi	480e74 <__bss_end__+0x477674>
 19c:	674b4b83 	strbvs	r4, [fp, -r3, lsl #23]
 1a0:	14034c4b 	strne	r4, [r3], #-3147	; 0xc4b
 1a4:	4b67674a 	blmi	19d9ed4 <__bss_end__+0x19d06d4>
 1a8:	83674b67 	cmnhi	r7, #105472	; 0x19c00
 1ac:	d74d834d 	strble	r8, [sp, -sp, asr #6]
 1b0:	4e4a7903 	cdpmi	9, 4, cr7, cr10, cr3, {0}
 1b4:	00060232 	andeq	r0, r6, r2, lsr r2
 1b8:	00ad0101 	adceq	r0, sp, r1, lsl #2
 1bc:	00020000 	andeq	r0, r2, r0
 1c0:	0000006e 	andeq	r0, r0, lr, rrx
 1c4:	0efb0102 	cdpeq	1, 15, cr0, cr11, cr2, {0}
 1c8:	0101000d 	tsteq	r1, sp
 1cc:	00000101 	andeq	r0, r0, r1, lsl #2
 1d0:	00000100 	andeq	r0, r0, r0, lsl #2
 1d4:	73552f01 	cmpvc	r5, #1, 30
 1d8:	2f737265 	svccs	0x00737265
 1dc:	61697262 	cmnvs	r9, r2, ror #4
 1e0:	6e756a6e 	vsubvs.f32	s13, s10, s29
 1e4:	7365442f 	cmnvc	r5, #788529152	; 0x2f000000
 1e8:	706f746b 	rsbvc	r7, pc, fp, ror #8
 1ec:	6863732f 	stmdavs	r3!, {r0, r1, r2, r3, r5, r8, r9, ip, sp, lr}^
 1f0:	2f6c6f6f 	svccs	0x006c6f6f
 1f4:	746e6957 	strbtvc	r6, [lr], #-2391	; 0x957
 1f8:	39317265 	ldmdbcc	r1!, {r0, r2, r5, r6, r9, ip, sp, lr}
 1fc:	432f3032 	teqmi	pc, #50	; 0x32
 200:	30343153 	eorscc	r3, r4, r3, asr r1
 204:	73632f45 	cmnvc	r3, #276	; 0x114
 208:	65303431 	ldrvs	r3, [r0, #-1073]!	; 0x431
 20c:	7730322d 	ldrvc	r3, [r0, -sp, lsr #4]!
 210:	6c2f6e69 	stcvs	14, cr6, [pc], #-420	; 74 <_start-0x7f8c>
 214:	69706269 	ldmdbvs	r0!, {r0, r3, r5, r6, r9, sp, lr}^
 218:	70670000 	rsbvc	r0, r7, r0
 21c:	702d6f69 	eorvc	r6, sp, r9, ror #30
 220:	632e6475 	teqvs	lr, #1962934272	; 0x75000000
 224:	00000000 	andeq	r0, r0, r0
 228:	2e697072 	mcrcs	0, 3, r7, cr9, cr2, {3}
 22c:	00010068 	andeq	r0, r1, r8, rrx
 230:	05000000 	streq	r0, [r0, #-0]
 234:	0081dc02 	addeq	sp, r1, r2, lsl #24
 238:	2f4b1a00 	svccs	0x004b1a00
 23c:	4c2f4c83 	stcmi	12, cr4, [pc], #-524	; 38 <_start-0x7fc8>
 240:	4b832f4c 	blmi	fe0cbf78 <__bss_end__+0xfe0c2778>
 244:	4b674b83 	blmi	19d3058 <__bss_end__+0x19c9858>
 248:	832f4b68 	teqhi	pc, #104, 22	; 0x1a000
 24c:	4c4c2f4c 	mcrrmi	15, 4, r2, ip, cr12
 250:	834b832f 	movthi	r8, #45871	; 0xb32f
 254:	6a4b674b 	bvs	12d9f88 <__bss_end__+0x12d0788>
 258:	4c832f4b 	stcmi	15, cr2, [r3], {75}	; 0x4b
 25c:	2f4c4c2f 	svccs	0x004c4c2f
 260:	4c834c83 	stcmi	12, cr4, [r3], {131}	; 0x83
 264:	06024b67 	streq	r4, [r2], -r7, ror #22
 268:	02010100 	andeq	r0, r1, #0, 2
 26c:	02000001 	andeq	r0, r0, #1
 270:	0000eb00 	andeq	lr, r0, r0, lsl #22
 274:	fb010200 	blx	40a7e <__bss_end__+0x3727e>
 278:	01000d0e 	tsteq	r0, lr, lsl #26
 27c:	00010101 	andeq	r0, r1, r1, lsl #2
 280:	00010000 	andeq	r0, r1, r0
 284:	696c0100 	stmdbvs	ip!, {r8}^
 288:	2f006362 	svccs	0x00006362
 28c:	2f727375 	svccs	0x00727375
 290:	61636f6c 	cmnvs	r3, ip, ror #30
 294:	65432f6c 	strbvs	r2, [r3, #-3948]	; 0xf6c
 298:	72616c6c 	rsbvc	r6, r1, #108, 24	; 0x6c00
 29c:	6d72612f 	ldfvse	f6, [r2, #-188]!	; 0xffffff44
 2a0:	6e6f6e2d 	cdpvs	14, 6, cr6, cr15, cr13, {1}
 2a4:	61652d65 	cmnvs	r5, r5, ror #26
 2a8:	342f6962 	strtcc	r6, [pc], #-2402	; 2b0 <_start-0x7d50>
 2ac:	332e382e 	teqcc	lr, #3014656	; 0x2e0000
 2b0:	3173632d 	cmncc	r3, sp, lsr #6
 2b4:	2f653037 	svccs	0x00653037
 2b8:	2f62696c 	svccs	0x0062696c
 2bc:	2f636367 	svccs	0x00636367
 2c0:	2d6d7261 	sfmcs	f7, 2, [sp, #-388]!	; 0xfffffe7c
 2c4:	656e6f6e 	strbvs	r6, [lr, #-3950]!	; 0xf6e
 2c8:	6261652d 	rsbvs	r6, r1, #188743680	; 0xb400000
 2cc:	2e342f69 	cdpcs	15, 3, cr2, cr4, cr9, {3}
 2d0:	2f332e38 	svccs	0x00332e38
 2d4:	6c636e69 	stclvs	14, cr6, [r3], #-420	; 0xfffffe5c
 2d8:	00656475 	rsbeq	r6, r5, r5, ror r4
 2dc:	6573552f 	ldrbvs	r5, [r3, #-1327]!	; 0x52f
 2e0:	622f7372 	eorvs	r7, pc, #-939524095	; 0xc8000001
 2e4:	6e616972 	mcrvs	9, 3, r6, cr1, cr2, {3}
 2e8:	2f6e756a 	svccs	0x006e756a
 2ec:	6b736544 	blvs	1cd9804 <__bss_end__+0x1cd0004>
 2f0:	2f706f74 	svccs	0x00706f74
 2f4:	6f686373 	svcvs	0x00686373
 2f8:	572f6c6f 	strpl	r6, [pc, -pc, ror #24]!
 2fc:	65746e69 	ldrbvs	r6, [r4, #-3689]!	; 0xe69
 300:	32393172 	eorscc	r3, r9, #-2147483620	; 0x8000001c
 304:	53432f30 	movtpl	r2, #16176	; 0x3f30
 308:	45303431 	ldrmi	r3, [r0, #-1073]!	; 0x431
 30c:	3173632f 	cmncc	r3, pc, lsr #6
 310:	2d653034 	stclcs	0, cr3, [r5, #-208]!	; 0xffffff30
 314:	69773032 	ldmdbvs	r7!, {r1, r4, r5, ip, sp}^
 318:	696c2f6e 	stmdbvs	ip!, {r1, r2, r3, r5, r6, r8, r9, sl, fp, sp}^
 31c:	00697062 	rsbeq	r7, r9, r2, rrx
 320:	69727000 	ldmdbvs	r2!, {ip, sp, lr}^
 324:	2e6b746e 	cdpcs	4, 6, cr7, cr11, cr14, {3}
 328:	00010063 	andeq	r0, r1, r3, rrx
 32c:	64747300 	ldrbtvs	r7, [r4], #-768	; 0x300
 330:	2e677261 	cdpcs	2, 6, cr7, cr7, cr1, {3}
 334:	00020068 	andeq	r0, r2, r8, rrx
 338:	75623c00 	strbvc	r3, [r2, #-3072]!	; 0xc00
 33c:	2d746c69 	ldclcs	12, cr6, [r4, #-420]!	; 0xfffffe5c
 340:	003e6e69 	eorseq	r6, lr, r9, ror #28
 344:	72000000 	andvc	r0, r0, #0
 348:	682e6970 	stmdavs	lr!, {r4, r5, r6, r8, fp, sp, lr}
 34c:	00000300 	andeq	r0, r0, r0, lsl #6
 350:	702d6176 	eorvc	r6, sp, r6, ror r1
 354:	746e6972 	strbtvc	r6, [lr], #-2418	; 0x972
 358:	00682e6b 	rsbeq	r2, r8, fp, ror #28
 35c:	00000001 	andeq	r0, r0, r1
 360:	80020500 	andhi	r0, r2, r0, lsl #10
 364:	17000083 	strne	r0, [r0, -r3, lsl #1]
 368:	89bf4b6b 	ldmibhi	pc!, {r0, r1, r3, r5, r6, r8, r9, fp, lr}	; <UNPREDICTABLE>
 36c:	01000e02 	tsteq	r0, r2, lsl #28
 370:	00009601 	andeq	r9, r0, r1, lsl #12
 374:	6f000200 	svcvs	0x00000200
 378:	02000000 	andeq	r0, r0, #0
 37c:	0d0efb01 	vstreq	d15, [lr, #-4]
 380:	01010100 	mrseq	r0, (UNDEF: 17)
 384:	00000001 	andeq	r0, r0, r1
 388:	01000001 	tsteq	r0, r1
 38c:	6362696c 	cmnvs	r2, #108, 18	; 0x1b0000
 390:	73552f00 	cmpvc	r5, #0, 30
 394:	2f737265 	svccs	0x00737265
 398:	61697262 	cmnvs	r9, r2, ror #4
 39c:	6e756a6e 	vsubvs.f32	s13, s10, s29
 3a0:	7365442f 	cmnvc	r5, #788529152	; 0x2f000000
 3a4:	706f746b 	rsbvc	r7, pc, fp, ror #8
 3a8:	6863732f 	stmdavs	r3!, {r0, r1, r2, r3, r5, r8, r9, ip, sp, lr}^
 3ac:	2f6c6f6f 	svccs	0x006c6f6f
 3b0:	746e6957 	strbtvc	r6, [lr], #-2391	; 0x957
 3b4:	39317265 	ldmdbcc	r1!, {r0, r2, r5, r6, r9, ip, sp, lr}
 3b8:	432f3032 	teqmi	pc, #50	; 0x32
 3bc:	30343153 	eorscc	r3, r4, r3, asr r1
 3c0:	73632f45 	cmnvc	r3, #276	; 0x114
 3c4:	65303431 	ldrvs	r3, [r0, #-1073]!	; 0x431
 3c8:	7730322d 	ldrvc	r3, [r0, -sp, lsr #4]!
 3cc:	6c2f6e69 	stcvs	14, cr6, [pc], #-420	; 230 <_start-0x7dd0>
 3d0:	69706269 	ldmdbvs	r0!, {r0, r3, r5, r6, r9, sp, lr}^
 3d4:	75700000 	ldrbvc	r0, [r0, #-0]!
 3d8:	632e6b74 	teqvs	lr, #116, 22	; 0x1d000
 3dc:	00000100 	andeq	r0, r0, r0, lsl #2
 3e0:	2e697072 	mcrcs	0, 3, r7, cr9, cr2, {3}
 3e4:	00020068 	andeq	r0, r2, r8, rrx
 3e8:	05000000 	streq	r0, [r0, #-0]
 3ec:	0083d802 	addeq	sp, r3, r2, lsl #16
 3f0:	2d4c1500 	cfstr64cs	mvdx1, [ip, #-0]
 3f4:	02040200 	andeq	r0, r4, #0, 4
 3f8:	0402002f 	streq	r0, [r2], #-47	; 0x2f
 3fc:	02004902 	andeq	r4, r0, #32768	; 0x8000
 400:	2e060104 	adfcss	f0, f6, f4
 404:	06026b06 	streq	r6, [r2], -r6, lsl #22
 408:	de010100 	adfles	f0, f1, f0
 40c:	02000001 	andeq	r0, r0, #1
 410:	0000df00 	andeq	sp, r0, r0, lsl #30
 414:	fb010200 	blx	40c1e <__bss_end__+0x3741e>
 418:	01000d0e 	tsteq	r0, lr, lsl #26
 41c:	00010101 	andeq	r0, r1, r1, lsl #2
 420:	00010000 	andeq	r0, r1, r0
 424:	696c0100 	stmdbvs	ip!, {r8}^
 428:	2f006362 	svccs	0x00006362
 42c:	2f727375 	svccs	0x00727375
 430:	61636f6c 	cmnvs	r3, ip, ror #30
 434:	65432f6c 	strbvs	r2, [r3, #-3948]	; 0xf6c
 438:	72616c6c 	rsbvc	r6, r1, #108, 24	; 0x6c00
 43c:	6d72612f 	ldfvse	f6, [r2, #-188]!	; 0xffffff44
 440:	6e6f6e2d 	cdpvs	14, 6, cr6, cr15, cr13, {1}
 444:	61652d65 	cmnvs	r5, r5, ror #26
 448:	342f6962 	strtcc	r6, [pc], #-2402	; 450 <_start-0x7bb0>
 44c:	332e382e 	teqcc	lr, #3014656	; 0x2e0000
 450:	3173632d 	cmncc	r3, sp, lsr #6
 454:	2f653037 	svccs	0x00653037
 458:	2f62696c 	svccs	0x0062696c
 45c:	2f636367 	svccs	0x00636367
 460:	2d6d7261 	sfmcs	f7, 2, [sp, #-388]!	; 0xfffffe7c
 464:	656e6f6e 	strbvs	r6, [lr, #-3950]!	; 0xf6e
 468:	6261652d 	rsbvs	r6, r1, #188743680	; 0xb400000
 46c:	2e342f69 	cdpcs	15, 3, cr2, cr4, cr9, {3}
 470:	2f332e38 	svccs	0x00332e38
 474:	6c636e69 	stclvs	14, cr6, [r3], #-420	; 0xfffffe5c
 478:	00656475 	rsbeq	r6, r5, r5, ror r4
 47c:	6573552f 	ldrbvs	r5, [r3, #-1327]!	; 0x52f
 480:	622f7372 	eorvs	r7, pc, #-939524095	; 0xc8000001
 484:	6e616972 	mcrvs	9, 3, r6, cr1, cr2, {3}
 488:	2f6e756a 	svccs	0x006e756a
 48c:	6b736544 	blvs	1cd99a4 <__bss_end__+0x1cd01a4>
 490:	2f706f74 	svccs	0x00706f74
 494:	6f686373 	svcvs	0x00686373
 498:	572f6c6f 	strpl	r6, [pc, -pc, ror #24]!
 49c:	65746e69 	ldrbvs	r6, [r4, #-3689]!	; 0xe69
 4a0:	32393172 	eorscc	r3, r9, #-2147483620	; 0x8000001c
 4a4:	53432f30 	movtpl	r2, #16176	; 0x3f30
 4a8:	45303431 	ldrmi	r3, [r0, #-1073]!	; 0x431
 4ac:	3173632f 	cmncc	r3, pc, lsr #6
 4b0:	2d653034 	stclcs	0, cr3, [r5, #-208]!	; 0xffffff30
 4b4:	69773032 	ldmdbvs	r7!, {r1, r4, r5, ip, sp}^
 4b8:	696c2f6e 	stmdbvs	ip!, {r1, r2, r3, r5, r6, r8, r9, sl, fp, sp}^
 4bc:	00697062 	rsbeq	r7, r9, r2, rrx
 4c0:	2d617600 	stclcs	6, cr7, [r1, #-0]
 4c4:	6e697270 	mcrvs	2, 3, r7, cr9, cr0, {3}
 4c8:	632e6b74 	teqvs	lr, #116, 22	; 0x1d000
 4cc:	00000100 	andeq	r0, r0, r0, lsl #2
 4d0:	61647473 	smcvs	18243	; 0x4743
 4d4:	682e6772 	stmdavs	lr!, {r1, r4, r5, r6, r8, r9, sl, sp, lr}
 4d8:	00000200 	andeq	r0, r0, r0, lsl #4
 4dc:	2e697072 	mcrcs	0, 3, r7, cr9, cr2, {3}
 4e0:	00030068 	andeq	r0, r3, r8, rrx
 4e4:	75623c00 	strbvc	r3, [r2, #-3072]!	; 0xc00
 4e8:	2d746c69 	ldclcs	12, cr6, [r4, #-420]!	; 0xfffffe5c
 4ec:	003e6e69 	eorseq	r6, lr, r9, ror #28
 4f0:	00000000 	andeq	r0, r0, r0
 4f4:	0c020500 	cfstr32eq	mvfx0, [r2], {-0}
 4f8:	03000084 	movweq	r0, #132	; 0x84
 4fc:	a5010126 	strge	r0, [r1, #-294]	; 0x126
 500:	002d3113 	eoreq	r3, sp, r3, lsl r1
 504:	2f020402 	svccs	0x00020402
 508:	02040200 	andeq	r0, r4, #0, 4
 50c:	0402002d 	streq	r0, [r2], #-45	; 0x2d
 510:	02002f02 	andeq	r2, r0, #2, 30
 514:	4c2d0104 	stfmis	f0, [sp], #-16
 518:	4b14304c 	blmi	50c650 <__bss_end__+0x502e50>
 51c:	02004f2f 	andeq	r4, r0, #47, 30	; 0xbc
 520:	00670204 	rsbeq	r0, r7, r4, lsl #4
 524:	65010402 	strvs	r0, [r1, #-1026]	; 0x402
 528:	a0304d4c 	eorsge	r4, r0, ip, asr #26
 52c:	0230312f 	eorseq	r3, r0, #-1073741813	; 0xc000000b
 530:	2d841626 	stccs	6, cr1, [r4, #152]	; 0x98
 534:	0402002c 	streq	r0, [r2], #-44	; 0x2c
 538:	02003001 	andeq	r3, r0, #1
 53c:	06330104 	ldrteq	r0, [r3], -r4, lsl #2
 540:	04020066 	streq	r0, [r2], #-102	; 0x66
 544:	02002e01 	andeq	r2, r0, #1, 28
 548:	08060104 	stmdaeq	r6, {r2, r8}
 54c:	032f6721 	teqeq	pc, #8650752	; 0x840000
 550:	13038273 	movwne	r8, #12915	; 0x3273
 554:	0402002e 	streq	r0, [r2], #-46	; 0x2e
 558:	002e0601 	eoreq	r0, lr, r1, lsl #12
 55c:	06010402 	streq	r0, [r1], -r2, lsl #8
 560:	034b6a9f 	movteq	r6, #47775	; 0xba9f
 564:	21032e67 	tstcs	r3, r7, ror #28
 568:	0402002e 	streq	r0, [r2], #-46	; 0x2e
 56c:	002e0601 	eoreq	r0, lr, r1, lsl #12
 570:	06010402 	streq	r0, [r1], -r2, lsl #8
 574:	0402009f 	streq	r0, [r2], #-159	; 0x9f
 578:	f3d96a01 	vmlsl.u16	q11, d9, d1
 57c:	087fa603 	ldmdaeq	pc!, {r0, r1, r9, sl, sp, pc}^	; <UNPREDICTABLE>
 580:	02002f20 	andeq	r2, r0, #32, 30	; 0x80
 584:	4a060104 	bmi	18099c <__bss_end__+0x17719c>
 588:	2f4bd706 	svccs	0x004bd706
 58c:	f200da03 	vpmax.s8	d13, d0, d3
 590:	03484c83 	movteq	r4, #35971	; 0x8c83
 594:	75032e0e 	strvc	r2, [r3, #-3598]	; 0xe0e
 598:	842f2f2e 	strthi	r2, [pc], #-3886	; 5a0 <_start-0x7a60>
 59c:	4d2d2f4b 	stcmi	15, cr2, [sp, #-300]!	; 0xfffffed4
 5a0:	832f3031 	teqhi	pc, #49	; 0x31
 5a4:	01040200 	mrseq	r0, R12_usr
 5a8:	0200a22c 	andeq	sl, r0, #44, 4	; 0xc0000002
 5ac:	4a060104 	bmi	1809c4 <__bss_end__+0x1771c4>
 5b0:	3602d806 	strcc	sp, [r2], -r6, lsl #16
 5b4:	d60e0316 			; <UNDEFINED> instruction: 0xd60e0316
 5b8:	f3302108 	vrhadd.u<illegal width 64>	d2, d0, d8
 5bc:	f330f331 	vcge.u<illegal width 64>	d15, d0, d17
 5c0:	f3304b30 			; <UNDEFINED> instruction: 0xf3304b30
 5c4:	31230830 	teqcc	r3, r0, lsr r8
 5c8:	0402002f 	streq	r0, [r2], #-47	; 0x2f
 5cc:	02006501 	andeq	r6, r0, #4194304	; 0x400000
 5d0:	4a060204 	bmi	180de8 <__bss_end__+0x1775e8>
 5d4:	01040200 	mrseq	r0, R12_usr
 5d8:	66420306 	strbvs	r0, [r2], -r6, lsl #6
 5dc:	02040200 	andeq	r0, r4, #0, 4
 5e0:	03066606 	movweq	r6, #26118	; 0x6606
 5e4:	684a00c2 	stmdavs	sl, {r1, r6, r7}^
 5e8:	01001002 	tsteq	r0, r2
 5ec:	00009301 	andeq	r9, r0, r1, lsl #6
 5f0:	7d000200 	sfmvc	f0, 4, [r0, #-0]
 5f4:	02000000 	andeq	r0, r0, #0
 5f8:	0d0efb01 	vstreq	d15, [lr, #-4]
 5fc:	01010100 	mrseq	r0, (UNDEF: 17)
 600:	00000001 	andeq	r0, r0, r1
 604:	01000001 	tsteq	r0, r1
 608:	34317363 	ldrtcc	r7, [r1], #-867	; 0x363
 60c:	732d6530 	teqvc	sp, #48, 10	; 0xc000000
 610:	2f006372 	svccs	0x00006372
 614:	72657355 	rsbvc	r7, r5, #1409286145	; 0x54000001
 618:	72622f73 	rsbvc	r2, r2, #460	; 0x1cc
 61c:	6a6e6169 	bvs	1b98bc8 <__bss_end__+0x1b8f3c8>
 620:	442f6e75 	strtmi	r6, [pc], #-3701	; 628 <_start-0x79d8>
 624:	746b7365 	strbtvc	r7, [fp], #-869	; 0x365
 628:	732f706f 	teqvc	pc, #111	; 0x6f
 62c:	6f6f6863 	svcvs	0x006f6863
 630:	69572f6c 	ldmdbvs	r7, {r2, r3, r5, r6, r8, r9, sl, fp, sp}^
 634:	7265746e 	rsbvc	r7, r5, #1845493760	; 0x6e000000
 638:	30323931 	eorscc	r3, r2, r1, lsr r9
 63c:	3153432f 	cmpcc	r3, pc, lsr #6
 640:	2f453034 	svccs	0x00453034
 644:	34317363 	ldrtcc	r7, [r1], #-867	; 0x363
 648:	322d6530 	eorcc	r6, sp, #48, 10	; 0xc000000
 64c:	6e697730 	mcrvs	7, 3, r7, cr9, cr0, {1}
 650:	62696c2f 	rsbvs	r6, r9, #12032	; 0x2f00
 654:	00006970 	andeq	r6, r0, r0, ror r9
 658:	61656c63 	cmnvs	r5, r3, ror #24
 65c:	65722d6e 	ldrbvs	r2, [r2, #-3438]!	; 0xd6e
 660:	746f6f62 	strbtvc	r6, [pc], #-3938	; 668 <_start-0x7998>
 664:	0100632e 	tsteq	r0, lr, lsr #6
 668:	70720000 	rsbsvc	r0, r2, r0
 66c:	00682e69 	rsbeq	r2, r8, r9, ror #28
 670:	00000002 	andeq	r0, r0, r2
 674:	04020500 	streq	r0, [r2], #-1280	; 0x500
 678:	15000089 	strne	r0, [r0, #-137]	; 0x89
 67c:	024b832f 	subeq	r8, fp, #-1140850688	; 0xbc000000
 680:	01010006 	tsteq	r1, r6
 684:	0000009a 	muleq	r0, sl, r0
 688:	00770002 	rsbseq	r0, r7, r2
 68c:	01020000 	mrseq	r0, (UNDEF: 2)
 690:	000d0efb 	strdeq	r0, [sp], -fp
 694:	01010101 	tsteq	r1, r1, lsl #2
 698:	01000000 	mrseq	r0, (UNDEF: 0)
 69c:	63010000 	movwvs	r0, #4096	; 0x1000
 6a0:	30343173 	eorscc	r3, r4, r3, ror r1
 6a4:	72732d65 	rsbsvc	r2, r3, #6464	; 0x1940
 6a8:	552f0063 	strpl	r0, [pc, #-99]!	; 64d <_start-0x79b3>
 6ac:	73726573 	cmnvc	r2, #482344960	; 0x1cc00000
 6b0:	6972622f 	ldmdbvs	r2!, {r0, r1, r2, r3, r5, r9, sp, lr}^
 6b4:	756a6e61 	strbvc	r6, [sl, #-3681]!	; 0xe61
 6b8:	65442f6e 	strbvs	r2, [r4, #-3950]	; 0xf6e
 6bc:	6f746b73 	svcvs	0x00746b73
 6c0:	63732f70 	cmnvs	r3, #112, 30	; 0x1c0
 6c4:	6c6f6f68 	stclvs	15, cr6, [pc], #-416	; 52c <_start-0x7ad4>
 6c8:	6e69572f 	cdpvs	7, 6, cr5, cr9, cr15, {1}
 6cc:	31726574 	cmncc	r2, r4, ror r5
 6d0:	2f303239 	svccs	0x00303239
 6d4:	34315343 	ldrtcc	r5, [r1], #-835	; 0x343
 6d8:	632f4530 	teqvs	pc, #48, 10	; 0xc000000
 6dc:	30343173 	eorscc	r3, r4, r3, ror r1
 6e0:	30322d65 	eorscc	r2, r2, r5, ror #26
 6e4:	2f6e6977 	svccs	0x006e6977
 6e8:	7062696c 	rsbvc	r6, r2, ip, ror #18
 6ec:	63000069 	movwvs	r0, #105	; 0x69
 6f0:	72617473 	rsbvc	r7, r1, #1929379840	; 0x73000000
 6f4:	00632e74 	rsbeq	r2, r3, r4, ror lr
 6f8:	72000001 	andvc	r0, r0, #1
 6fc:	682e6970 	stmdavs	lr!, {r4, r5, r6, r8, fp, sp, lr}
 700:	00000200 	andeq	r0, r0, r0, lsl #4
 704:	02050000 	andeq	r0, r5, #0
 708:	0000892c 	andeq	r8, r0, ip, lsr #18
 70c:	32010c03 	andcc	r0, r1, #768	; 0x300
 710:	2f2d2f31 	svccs	0x002d2f31
 714:	01040200 	mrseq	r0, R12_usr
 718:	4a0f0349 	bmi	3c1444 <__bss_end__+0x3b7c44>
 71c:	0006022f 	andeq	r0, r6, pc, lsr #4
 720:	00990101 	addseq	r0, r9, r1, lsl #2
 724:	00020000 	andeq	r0, r2, r0
 728:	00000077 	andeq	r0, r0, r7, ror r0
 72c:	0efb0102 	cdpeq	1, 15, cr0, cr11, cr2, {0}
 730:	0101000d 	tsteq	r1, sp
 734:	00000101 	andeq	r0, r0, r1, lsl #2
 738:	00000100 	andeq	r0, r0, r0, lsl #2
 73c:	31736301 	cmncc	r3, r1, lsl #6
 740:	2d653034 	stclcs	0, cr3, [r5, #-208]!	; 0xffffff30
 744:	00637273 	rsbeq	r7, r3, r3, ror r2
 748:	6573552f 	ldrbvs	r5, [r3, #-1327]!	; 0x52f
 74c:	622f7372 	eorvs	r7, pc, #-939524095	; 0xc8000001
 750:	6e616972 	mcrvs	9, 3, r6, cr1, cr2, {3}
 754:	2f6e756a 	svccs	0x006e756a
 758:	6b736544 	blvs	1cd9c70 <__bss_end__+0x1cd0470>
 75c:	2f706f74 	svccs	0x00706f74
 760:	6f686373 	svcvs	0x00686373
 764:	572f6c6f 	strpl	r6, [pc, -pc, ror #24]!
 768:	65746e69 	ldrbvs	r6, [r4, #-3689]!	; 0xe69
 76c:	32393172 	eorscc	r3, r9, #-2147483620	; 0x8000001c
 770:	53432f30 	movtpl	r2, #16176	; 0x3f30
 774:	45303431 	ldrmi	r3, [r0, #-1073]!	; 0x431
 778:	3173632f 	cmncc	r3, pc, lsr #6
 77c:	2d653034 	stclcs	0, cr3, [r5, #-208]!	; 0xffffff30
 780:	69773032 	ldmdbvs	r7!, {r1, r4, r5, ip, sp}^
 784:	696c2f6e 	stmdbvs	ip!, {r1, r2, r3, r5, r6, r8, r9, sl, fp, sp}^
 788:	00697062 	rsbeq	r7, r9, r2, rrx
 78c:	62657200 	rsbvs	r7, r5, #0, 4
 790:	2e746f6f 	cdpcs	15, 7, cr6, cr4, cr15, {3}
 794:	00010063 	andeq	r0, r1, r3, rrx
 798:	69707200 	ldmdbvs	r0!, {r9, ip, sp, lr}^
 79c:	0200682e 	andeq	r6, r0, #3014656	; 0x2e0000
 7a0:	00000000 	andeq	r0, r0, r0
 7a4:	89600205 	stmdbhi	r0!, {r0, r2, r9}^
 7a8:	0d030000 	stceq	0, cr0, [r3, #-0]
 7ac:	2f311401 	svccs	0x00311401
 7b0:	4b2f1585 	blmi	bc5dcc <__bss_end__+0xbbc5cc>
 7b4:	35672f4d 	strbcc	r2, [r7, #-3917]!	; 0xf4d
 7b8:	10026752 	andne	r6, r2, r2, asr r7
 7bc:	a3010100 	movwge	r0, #4352	; 0x1100
 7c0:	02000000 	andeq	r0, r0, #0
 7c4:	00007600 	andeq	r7, r0, r0, lsl #12
 7c8:	fb010200 	blx	40fd2 <__bss_end__+0x377d2>
 7cc:	01000d0e 	tsteq	r0, lr, lsl #26
 7d0:	00010101 	andeq	r0, r1, r1, lsl #2
 7d4:	00010000 	andeq	r0, r1, r0
 7d8:	73630100 	cmnvc	r3, #0, 2
 7dc:	65303431 	ldrvs	r3, [r0, #-1073]!	; 0x431
 7e0:	6372732d 	cmnvs	r2, #-1275068416	; 0xb4000000
 7e4:	73552f00 	cmpvc	r5, #0, 30
 7e8:	2f737265 	svccs	0x00737265
 7ec:	61697262 	cmnvs	r9, r2, ror #4
 7f0:	6e756a6e 	vsubvs.f32	s13, s10, s29
 7f4:	7365442f 	cmnvc	r5, #788529152	; 0x2f000000
 7f8:	706f746b 	rsbvc	r7, pc, fp, ror #8
 7fc:	6863732f 	stmdavs	r3!, {r0, r1, r2, r3, r5, r8, r9, ip, sp, lr}^
 800:	2f6c6f6f 	svccs	0x006c6f6f
 804:	746e6957 	strbtvc	r6, [lr], #-2391	; 0x957
 808:	39317265 	ldmdbcc	r1!, {r0, r2, r5, r6, r9, ip, sp, lr}
 80c:	432f3032 	teqmi	pc, #50	; 0x32
 810:	30343153 	eorscc	r3, r4, r3, asr r1
 814:	73632f45 	cmnvc	r3, #276	; 0x114
 818:	65303431 	ldrvs	r3, [r0, #-1073]!	; 0x431
 81c:	7730322d 	ldrvc	r3, [r0, -sp, lsr #4]!
 820:	6c2f6e69 	stcvs	14, cr6, [pc], #-420	; 684 <_start-0x797c>
 824:	69706269 	ldmdbvs	r0!, {r0, r3, r5, r6, r9, sp, lr}^
 828:	69740000 	ldmdbvs	r4!, {}^	; <UNPREDICTABLE>
 82c:	2e72656d 	cdpcs	5, 7, cr6, cr2, cr13, {3}
 830:	00010063 	andeq	r0, r1, r3, rrx
 834:	69707200 	ldmdbvs	r0!, {r9, ip, sp, lr}^
 838:	0200682e 	andeq	r6, r0, #3014656	; 0x2e0000
 83c:	00000000 	andeq	r0, r0, r0
 840:	89d40205 	ldmibhi	r4, {r0, r2, r9}^
 844:	14160000 	ldrne	r0, [r6], #-0
 848:	02002d2f 	andeq	r2, r0, #3008	; 0xbc0
 84c:	2e060104 	adfcss	f0, f6, f4
 850:	2f316d06 	svccs	0x00316d06
 854:	31324d4b 	teqcc	r2, fp, asr #26
 858:	2f4c4b30 	svccs	0x004c4b30
 85c:	842f2f6a 	strthi	r2, [pc], #-3946	; 864 <_start-0x779c>
 860:	0008022f 	andeq	r0, r8, pc, lsr #4
 864:	017f0101 	cmneq	pc, r1, lsl #2
 868:	00020000 	andeq	r0, r2, r0
 86c:	000000ca 	andeq	r0, r0, sl, asr #1
 870:	0efb0102 	cdpeq	1, 15, cr0, cr11, cr2, {0}
 874:	0101000d 	tsteq	r1, sp
 878:	00000101 	andeq	r0, r0, r1, lsl #2
 87c:	00000100 	andeq	r0, r0, r0, lsl #2
 880:	2d796d01 	ldclcs	13, cr6, [r9, #-4]!
 884:	00637273 	rsbeq	r7, r3, r3, ror r2
 888:	6573552f 	ldrbvs	r5, [r3, #-1327]!	; 0x52f
 88c:	622f7372 	eorvs	r7, pc, #-939524095	; 0xc8000001
 890:	6e616972 	mcrvs	9, 3, r6, cr1, cr2, {3}
 894:	2f6e756a 	svccs	0x006e756a
 898:	6b736544 	blvs	1cd9db0 <__bss_end__+0x1cd05b0>
 89c:	2f706f74 	svccs	0x00706f74
 8a0:	6f686373 	svcvs	0x00686373
 8a4:	572f6c6f 	strpl	r6, [pc, -pc, ror #24]!
 8a8:	65746e69 	ldrbvs	r6, [r4, #-3689]!	; 0xe69
 8ac:	32393172 	eorscc	r3, r9, #-2147483620	; 0x8000001c
 8b0:	53432f30 	movtpl	r2, #16176	; 0x3f30
 8b4:	45303431 	ldrmi	r3, [r0, #-1073]!	; 0x431
 8b8:	3173632f 	cmncc	r3, pc, lsr #6
 8bc:	2d653034 	stclcs	0, cr3, [r5, #-208]!	; 0xffffff30
 8c0:	69773032 	ldmdbvs	r7!, {r1, r4, r5, ip, sp}^
 8c4:	696c2f6e 	stmdbvs	ip!, {r1, r2, r3, r5, r6, r8, r9, sl, fp, sp}^
 8c8:	2f697062 	svccs	0x00697062
 8cc:	34317363 	ldrtcc	r7, [r1], #-867	; 0x363
 8d0:	732d6530 	teqvc	sp, #48, 10	; 0xc000000
 8d4:	2f006372 	svccs	0x00006372
 8d8:	72657355 	rsbvc	r7, r5, #1409286145	; 0x54000001
 8dc:	72622f73 	rsbvc	r2, r2, #460	; 0x1cc
 8e0:	6a6e6169 	bvs	1b98e8c <__bss_end__+0x1b8f68c>
 8e4:	442f6e75 	strtmi	r6, [pc], #-3701	; 8ec <_start-0x7714>
 8e8:	746b7365 	strbtvc	r7, [fp], #-869	; 0x365
 8ec:	732f706f 	teqvc	pc, #111	; 0x6f
 8f0:	6f6f6863 	svcvs	0x006f6863
 8f4:	69572f6c 	ldmdbvs	r7, {r2, r3, r5, r6, r8, r9, sl, fp, sp}^
 8f8:	7265746e 	rsbvc	r7, r5, #1845493760	; 0x6e000000
 8fc:	30323931 	eorscc	r3, r2, r1, lsr r9
 900:	3153432f 	cmpcc	r3, pc, lsr #6
 904:	2f453034 	svccs	0x00453034
 908:	34317363 	ldrtcc	r7, [r1], #-867	; 0x363
 90c:	322d6530 	eorcc	r6, sp, #48, 10	; 0xc000000
 910:	6e697730 	mcrvs	7, 3, r7, cr9, cr0, {1}
 914:	62696c2f 	rsbvs	r6, r9, #12032	; 0x2f00
 918:	00006970 	andeq	r6, r0, r0, ror r9
 91c:	6f697067 	svcvs	0x00697067
 920:	0100632e 	tsteq	r0, lr, lsr #6
 924:	70670000 	rsbvc	r0, r7, r0
 928:	682e6f69 	stmdavs	lr!, {r0, r3, r5, r6, r8, r9, sl, fp, sp, lr}
 92c:	00000200 	andeq	r0, r0, r0, lsl #4
 930:	2e697072 	mcrcs	0, 3, r7, cr9, cr2, {3}
 934:	00030068 	andeq	r0, r3, r8, rrx
 938:	05000000 	streq	r0, [r0, #-0]
 93c:	008a5c02 	addeq	r5, sl, r2, lsl #24
 940:	013e0300 	teqeq	lr, r0, lsl #6
 944:	0869504e 	stmdaeq	r9!, {r1, r2, r3, r6, ip, lr}^
 948:	67676721 	strbvs	r6, [r7, -r1, lsr #14]!
 94c:	32676767 	rsbcc	r6, r7, #27000832	; 0x19c0000
 950:	dc22084b 	stcle	8, cr0, [r2], #-300	; 0xfffffed4
 954:	4e135131 	mrcmi	1, 0, r5, cr3, cr1, {1}
 958:	31be3050 			; <UNDEFINED> instruction: 0x31be3050
 95c:	4f4d1350 	svcmi	0x004d1350
 960:	504cc030 	subpl	ip, ip, r0, lsr r0
 964:	67210869 	strvs	r0, [r1, -r9, ror #16]!
 968:	67676767 	strbvs	r6, [r7, -r7, ror #14]!
 96c:	084b3267 	stmdaeq	fp, {r0, r1, r2, r5, r6, r9, ip, sp}^
 970:	504ca321 	subpl	sl, ip, r1, lsr #6
 974:	0369842f 	cmneq	r9, #788529152	; 0x2f000000
 978:	0c038275 	sfmeq	f0, 1, [r3], {117}	; 0x75
 97c:	4e304d2e 	cdpmi	13, 3, cr4, cr0, cr14, {1}
 980:	6a4d4c4b 	bvs	1353ab4 <__bss_end__+0x134a2b4>
 984:	2108696b 	tstcs	r8, fp, ror #18
 988:	67676767 	strbvs	r6, [r7, -r7, ror #14]!
 98c:	4b326767 	blmi	c9a730 <__bss_end__+0xc90f30>
 990:	30c02208 	sbccc	r2, r0, r8, lsl #4
 994:	504e1351 	subpl	r1, lr, r1, asr r3
 998:	ba180330 	blt	601660 <__bss_end__+0x5f7e60>
 99c:	2f4c9f31 	svccs	0x004c9f31
 9a0:	2f4e4d52 	svccs	0x004e4d52
 9a4:	684b674b 	stmdavs	fp, {r0, r1, r3, r6, r8, r9, sl, sp, lr}^
 9a8:	2f4c6767 	svccs	0x004c6767
 9ac:	6e4b2f67 	cdpvs	15, 4, cr2, cr11, cr7, {3}
 9b0:	4b2f4e4c 	blmi	bd42e8 <__bss_end__+0xbcaae8>
 9b4:	67684b67 	strbvs	r4, [r8, -r7, ror #22]!
 9b8:	672f4c67 	strvs	r4, [pc, -r7, ror #24]!
 9bc:	4b6d4b2f 	blmi	1b53680 <__bss_end__+0x1b49e80>
 9c0:	674b2f4e 	strbvs	r2, [fp, -lr, asr #30]
 9c4:	01040200 	mrseq	r0, R12_usr
 9c8:	68066606 	stmdavs	r6, {r1, r2, r9, sl, sp, lr}
 9cc:	02002f9f 	andeq	r2, r0, #636	; 0x27c
 9d0:	4a060104 	bmi	180de8 <__bss_end__+0x1775e8>
 9d4:	032f6806 	teqeq	pc, #393216	; 0x60000
 9d8:	0e034a73 	mcreq	10, 0, r4, cr3, cr3, {3}
 9dc:	4e4c4d2e 	cdpmi	13, 4, cr4, cr12, cr14, {1}
 9e0:	bcbc4b2f 	fldmiaxlt	ip!, {d4-d26}	;@ Deprecated
 9e4:	01000602 	tsteq	r0, r2, lsl #12
 9e8:	00010101 	andeq	r0, r1, r1, lsl #2
 9ec:	ca000200 	bgt	11f4 <_start-0x6e0c>
 9f0:	02000000 	andeq	r0, r0, #0
 9f4:	0d0efb01 	vstreq	d15, [lr, #-4]
 9f8:	01010100 	mrseq	r0, (UNDEF: 17)
 9fc:	00000001 	andeq	r0, r0, r1
 a00:	01000001 	tsteq	r0, r1
 a04:	732d796d 	teqvc	sp, #1785856	; 0x1b4000
 a08:	2f006372 	svccs	0x00006372
 a0c:	72657355 	rsbvc	r7, r5, #1409286145	; 0x54000001
 a10:	72622f73 	rsbvc	r2, r2, #460	; 0x1cc
 a14:	6a6e6169 	bvs	1b98fc0 <__bss_end__+0x1b8f7c0>
 a18:	442f6e75 	strtmi	r6, [pc], #-3701	; a20 <_start-0x75e0>
 a1c:	746b7365 	strbtvc	r7, [fp], #-869	; 0x365
 a20:	732f706f 	teqvc	pc, #111	; 0x6f
 a24:	6f6f6863 	svcvs	0x006f6863
 a28:	69572f6c 	ldmdbvs	r7, {r2, r3, r5, r6, r8, r9, sl, fp, sp}^
 a2c:	7265746e 	rsbvc	r7, r5, #1845493760	; 0x6e000000
 a30:	30323931 	eorscc	r3, r2, r1, lsr r9
 a34:	3153432f 	cmpcc	r3, pc, lsr #6
 a38:	2f453034 	svccs	0x00453034
 a3c:	34317363 	ldrtcc	r7, [r1], #-867	; 0x363
 a40:	322d6530 	eorcc	r6, sp, #48, 10	; 0xc000000
 a44:	6e697730 	mcrvs	7, 3, r7, cr9, cr0, {1}
 a48:	62696c2f 	rsbvs	r6, r9, #12032	; 0x2f00
 a4c:	632f6970 	teqvs	pc, #112, 18	; 0x1c0000
 a50:	30343173 	eorscc	r3, r4, r3, ror r1
 a54:	72732d65 	rsbsvc	r2, r3, #6464	; 0x1940
 a58:	552f0063 	strpl	r0, [pc, #-99]!	; 9fd <_start-0x7603>
 a5c:	73726573 	cmnvc	r2, #482344960	; 0x1cc00000
 a60:	6972622f 	ldmdbvs	r2!, {r0, r1, r2, r3, r5, r9, sp, lr}^
 a64:	756a6e61 	strbvc	r6, [sl, #-3681]!	; 0xe61
 a68:	65442f6e 	strbvs	r2, [r4, #-3950]	; 0xf6e
 a6c:	6f746b73 	svcvs	0x00746b73
 a70:	63732f70 	cmnvs	r3, #112, 30	; 0x1c0
 a74:	6c6f6f68 	stclvs	15, cr6, [pc], #-416	; 8dc <_start-0x7724>
 a78:	6e69572f 	cdpvs	7, 6, cr5, cr9, cr15, {1}
 a7c:	31726574 	cmncc	r2, r4, ror r5
 a80:	2f303239 	svccs	0x00303239
 a84:	34315343 	ldrtcc	r5, [r1], #-835	; 0x343
 a88:	632f4530 	teqvs	pc, #48, 10	; 0xc000000
 a8c:	30343173 	eorscc	r3, r4, r3, ror r1
 a90:	30322d65 	eorscc	r2, r2, r5, ror #26
 a94:	2f6e6977 	svccs	0x006e6977
 a98:	7062696c 	rsbvc	r6, r2, ip, ror #18
 a9c:	75000069 	strvc	r0, [r0, #-105]	; 0x69
 aa0:	2e747261 	cdpcs	2, 7, cr7, cr4, cr1, {3}
 aa4:	00010063 	andeq	r0, r1, r3, rrx
 aa8:	69706700 	ldmdbvs	r0!, {r8, r9, sl, sp, lr}^
 aac:	00682e6f 	rsbeq	r2, r8, pc, ror #28
 ab0:	72000002 	andvc	r0, r0, #2
 ab4:	682e6970 	stmdavs	lr!, {r4, r5, r6, r8, fp, sp, lr}
 ab8:	00000300 	andeq	r0, r0, r0, lsl #6
 abc:	02050000 	andeq	r0, r5, #0
 ac0:	00008ffc 	strdeq	r8, [r0], -ip
 ac4:	30013603 	andcc	r3, r1, r3, lsl #12
 ac8:	306d6733 	rsbcc	r6, sp, r3, lsr r7
 acc:	676730d8 			; <UNDEFINED> instruction: 0x676730d8
 ad0:	68676767 	stmdavs	r7!, {r0, r1, r2, r5, r6, r8, r9, sl, sp, lr}^
 ad4:	6a672f86 	bvs	19cc8f4 <__bss_end__+0x19c30f4>
 ad8:	69676730 	stmdbvs	r7!, {r4, r5, r8, r9, sl, sp, lr}^
 adc:	4c6a672f 	stclmi	7, cr6, [sl], #-188	; 0xffffff44
 ae0:	2f2fc167 	svccs	0x002fc167
 ae4:	49682f30 	stmdbmi	r8!, {r4, r5, r8, r9, sl, fp, sp}^
 ae8:	00020230 	andeq	r0, r2, r0, lsr r2
 aec:	008a0101 	addeq	r0, sl, r1, lsl #2
 af0:	00020000 	andeq	r0, r2, r0
 af4:	00000072 	andeq	r0, r0, r2, ror r0
 af8:	0efb0102 	cdpeq	1, 15, cr0, cr11, cr2, {0}
 afc:	0101000d 	tsteq	r1, sp
 b00:	00000101 	andeq	r0, r0, r1, lsl #2
 b04:	00000100 	andeq	r0, r0, r0, lsl #2
 b08:	62696c01 	rsbvs	r6, r9, #256	; 0x100
 b0c:	552f0063 	strpl	r0, [pc, #-99]!	; ab1 <_start-0x754f>
 b10:	73726573 	cmnvc	r2, #482344960	; 0x1cc00000
 b14:	6972622f 	ldmdbvs	r2!, {r0, r1, r2, r3, r5, r9, sp, lr}^
 b18:	756a6e61 	strbvc	r6, [sl, #-3681]!	; 0xe61
 b1c:	65442f6e 	strbvs	r2, [r4, #-3950]	; 0xf6e
 b20:	6f746b73 	svcvs	0x00746b73
 b24:	63732f70 	cmnvs	r3, #112, 30	; 0x1c0
 b28:	6c6f6f68 	stclvs	15, cr6, [pc], #-416	; 990 <_start-0x7670>
 b2c:	6e69572f 	cdpvs	7, 6, cr5, cr9, cr15, {1}
 b30:	31726574 	cmncc	r2, r4, ror r5
 b34:	2f303239 	svccs	0x00303239
 b38:	34315343 	ldrtcc	r5, [r1], #-835	; 0x343
 b3c:	632f4530 	teqvs	pc, #48, 10	; 0xc000000
 b40:	30343173 	eorscc	r3, r4, r3, ror r1
 b44:	30322d65 	eorscc	r2, r2, r5, ror #26
 b48:	2f6e6977 	svccs	0x006e6977
 b4c:	7062696c 	rsbvc	r6, r2, ip, ror #18
 b50:	70000069 	andvc	r0, r0, r9, rrx
 b54:	68637475 	stmdavs	r3!, {r0, r2, r4, r5, r6, sl, ip, sp, lr}^
 b58:	632e7261 	teqvs	lr, #268435462	; 0x10000006
 b5c:	00000100 	andeq	r0, r0, r0, lsl #2
 b60:	2e697072 	mcrcs	0, 3, r7, cr9, cr2, {3}
 b64:	00020068 	andeq	r0, r2, r8, rrx
 b68:	05000000 	streq	r0, [r0, #-0]
 b6c:	0091b402 	addseq	fp, r1, r2, lsl #8
 b70:	6b4a1400 	blvs	1285b78 <__bss_end__+0x127c378>
 b74:	0213bc13 	andseq	fp, r3, #4864	; 0x1300
 b78:	01010008 	tsteq	r1, r8

Disassembly of section .debug_str:

00000000 <.debug_str>:
   0:	676e6f6c 	strbvs	r6, [lr, -ip, ror #30]!
   4:	6e6f6c20 	cdpvs	12, 6, cr6, cr15, cr0, {1}
   8:	6e692067 	cdpvs	0, 6, cr2, cr9, cr7, {3}
   c:	72740074 	rsbsvc	r0, r4, #116	; 0x74
  10:	65676769 	strbvs	r6, [r7, #-1897]!	; 0x769
  14:	63680072 	cmnvs	r8, #114	; 0x72
  18:	3072735f 	rsbscc	r7, r2, pc, asr r3
  1c:	6e695f34 	mcrvs	15, 3, r5, cr9, cr4, {1}
  20:	68007469 	stmdavs	r0, {r0, r3, r5, r6, sl, ip, sp, lr}
  24:	72735f63 	rsbsvc	r5, r3, #396	; 0x18c
  28:	675f3430 	smmlarvs	pc, r0, r4, r3	; <UNPREDICTABLE>
  2c:	645f7465 	ldrbvs	r7, [pc], #-1125	; 34 <_start-0x7fcc>
  30:	61747369 	cmnvs	r4, r9, ror #6
  34:	0065636e 	rsbeq	r6, r5, lr, ror #6
  38:	676e6f6c 	strbvs	r6, [lr, -ip, ror #30]!
  3c:	6e6f6c20 	cdpvs	12, 6, cr6, cr15, cr0, {1}
  40:	6e752067 	cdpvs	0, 7, cr2, cr5, cr7, {3}
  44:	6e676973 	mcrvs	9, 3, r6, cr7, cr3, {3}
  48:	69206465 	stmdbvs	r0!, {r0, r2, r5, r6, sl, sp, lr}
  4c:	6300746e 	movwvs	r7, #1134	; 0x46e
  50:	6e61656c 	cdpvs	5, 6, cr6, cr1, cr12, {3}
  54:	6265725f 	rsbvs	r7, r5, #-268435451	; 0xf0000005
  58:	00746f6f 	rsbseq	r6, r4, pc, ror #30
  5c:	20554e47 	subscs	r4, r5, r7, asr #28
  60:	2e342043 	cdpcs	0, 3, cr2, cr4, cr3, {2}
  64:	20332e38 	eorscs	r2, r3, r8, lsr lr
  68:	70636d2d 	rsbvc	r6, r3, sp, lsr #26
  6c:	72613d75 	rsbvc	r3, r1, #7488	; 0x1d40
  70:	3731316d 	ldrcc	r3, [r1, -sp, ror #2]!
  74:	667a6a36 			; <UNDEFINED> instruction: 0x667a6a36
  78:	2d20732d 	stccs	3, cr7, [r0, #-180]!	; 0xffffff4c
  7c:	6e75746d 	cdpvs	4, 7, cr7, cr5, cr13, {3}
  80:	72613d65 	rsbvc	r3, r1, #6464	; 0x1940
  84:	3731316d 	ldrcc	r3, [r1, -sp, ror #2]!
  88:	667a6a36 			; <UNDEFINED> instruction: 0x667a6a36
  8c:	2d20732d 	stccs	3, cr7, [r0, #-180]!	; 0xffffff4c
  90:	62646767 	rsbvs	r6, r4, #27000832	; 0x19c0000
  94:	674f2d20 	strbvs	r2, [pc, -r0, lsr #26]
  98:	74732d20 	ldrbtvc	r2, [r3], #-3360	; 0xd20
  9c:	6e673d64 	cdpvs	13, 6, cr3, cr7, cr4, {3}
  a0:	20393975 	eorscs	r3, r9, r5, ror r9
  a4:	7266662d 	rsbvc	r6, r6, #47185920	; 0x2d00000
  a8:	74736565 	ldrbtvc	r6, [r3], #-1381	; 0x565
  ac:	69646e61 	stmdbvs	r4!, {r0, r5, r6, r9, sl, fp, sp, lr}^
  b0:	2d20676e 	stccs	7, cr6, [r0, #-440]!	; 0xfffffe48
  b4:	696c6166 	stmdbvs	ip!, {r1, r2, r5, r6, r8, sp, lr}^
  b8:	662d6e67 	strtvs	r6, [sp], -r7, ror #28
  bc:	74636e75 	strbtvc	r6, [r3], #-3701	; 0xe75
  c0:	736e6f69 	cmnvc	lr, #420	; 0x1a4
  c4:	6400343d 	strvs	r3, [r0], #-1085	; 0x43d
  c8:	00747369 	rsbseq	r7, r4, r9, ror #6
  cc:	69736e75 	ldmdbvs	r3!, {r0, r2, r4, r5, r6, r9, sl, fp, sp, lr}^
  d0:	64656e67 	strbtvs	r6, [r5], #-3687	; 0xe67
  d4:	61686320 	cmnvs	r8, r0, lsr #6
  d8:	69740072 	ldmdbvs	r4!, {r1, r4, r5, r6}^
  dc:	756f656d 	strbvc	r6, [pc, #-1389]!	; fffffb77 <__bss_end__+0xffff6377>
  e0:	61750074 	cmnvs	r5, r4, ror r0
  e4:	695f7472 	ldmdbvs	pc, {r1, r4, r5, r6, sl, ip, sp, lr}^	; <UNPREDICTABLE>
  e8:	0074696e 	rsbseq	r6, r4, lr, ror #18
  ec:	6f686365 	svcvs	0x00686365
  f0:	746f6e00 	strbtvc	r6, [pc], #-3584	; f8 <_start-0x7f08>
  f4:	6e69616d 	powvsez	f6, f1, #5.0
  f8:	6f687300 	svcvs	0x00687300
  fc:	75207472 	strvc	r7, [r0, #-1138]!	; 0x472
 100:	6769736e 	strbvs	r7, [r9, -lr, ror #6]!
 104:	2064656e 	rsbcs	r6, r4, lr, ror #10
 108:	00746e69 	rsbseq	r6, r4, r9, ror #28
 10c:	616c6564 	cmnvs	ip, r4, ror #10
 110:	736d5f79 	cmnvc	sp, #484	; 0x1e4
 114:	5f636800 	svcpl	0x00636800
 118:	34307273 	ldrtcc	r7, [r0], #-627	; 0x273
 11c:	7300745f 	movwvc	r7, #1119	; 0x45f
 120:	72616e6f 	rsbvc	r6, r1, #1776	; 0x6f0
 124:	2f00632e 	svccs	0x0000632e
 128:	72657355 	rsbvc	r7, r5, #1409286145	; 0x54000001
 12c:	72622f73 	rsbvc	r2, r2, #460	; 0x1cc
 130:	6a6e6169 	bvs	1b986dc <__bss_end__+0x1b8eedc>
 134:	442f6e75 	strtmi	r6, [pc], #-3701	; 13c <_start-0x7ec4>
 138:	746b7365 	strbtvc	r7, [fp], #-869	; 0x365
 13c:	732f706f 	teqvc	pc, #111	; 0x6f
 140:	6f6f6863 	svcvs	0x006f6863
 144:	70532f6c 	subsvc	r2, r3, ip, ror #30
 148:	676e6972 			; <UNDEFINED> instruction: 0x676e6972
 14c:	30323931 	eorscc	r3, r2, r1, lsr r9
 150:	3253432f 	subscc	r4, r3, #-1140850688	; 0xbc000000
 154:	584c3034 	stmdapl	ip, {r2, r4, r5, ip, sp}^
 158:	3273632f 	rsbscc	r6, r3, #-1140850688	; 0xbc000000
 15c:	786c3034 	stmdavc	ip!, {r2, r4, r5, ip, sp}^
 160:	7330322d 	teqvc	r0, #-805306366	; 0xd0000002
 164:	6c2f7270 	sfmvs	f7, 4, [pc], #-448	; ffffffac <__bss_end__+0xffff67ac>
 168:	2f736261 	svccs	0x00736261
 16c:	6f732d37 	svcvs	0x00732d37
 170:	2f72616e 	svccs	0x0072616e
 174:	65646f63 	strbvs	r6, [r4, #-3939]!	; 0xf63
 178:	6f687300 	svcvs	0x00687300
 17c:	69207472 	stmdbvs	r0!, {r1, r4, r5, r6, sl, ip, sp, lr}
 180:	7300746e 	movwvc	r7, #1134	; 0x46e
 184:	74657a69 	strbtvc	r7, [r5], #-2665	; 0xa69
 188:	00657079 	rsbeq	r7, r5, r9, ror r0
 18c:	72727563 	rsbsvc	r7, r2, #415236096	; 0x18c00000
 190:	69706700 	ldmdbvs	r0!, {r8, r9, sl, sp, lr}^
 194:	72775f6f 	rsbsvc	r5, r7, #444	; 0x1bc
 198:	00657469 	rsbeq	r7, r5, r9, ror #8
 19c:	656d6974 	strbvs	r6, [sp, #-2420]!	; 0x974
 1a0:	5f74756f 	svcpl	0x0074756f
 1a4:	63657375 	cmnvs	r5, #-738197503	; 0xd4000001
 1a8:	69706700 	ldmdbvs	r0!, {r8, r9, sl, sp, lr}^
 1ac:	65725f6f 	ldrbvs	r5, [r2, #-3951]!	; 0xf6f
 1b0:	67006461 	strvs	r6, [r0, -r1, ror #8]
 1b4:	5f6f6970 	svcpl	0x006f6970
 1b8:	5f746573 	svcpl	0x00746573
 1bc:	75706e69 	ldrbvc	r6, [r0, #-3689]!	; 0xe69
 1c0:	69640074 	stmdbvs	r4!, {r2, r4, r5, r6}^
 1c4:	6e617473 	mcrvs	4, 3, r7, cr1, cr3, {3}
 1c8:	695f6563 	ldmdbvs	pc, {r0, r1, r5, r6, r8, sl, sp, lr}^	; <UNPREDICTABLE>
 1cc:	6568636e 	strbvs	r6, [r8, #-878]!	; 0x36e
 1d0:	69680073 	stmdbvs	r8!, {r0, r1, r4, r5, r6}^
 1d4:	695f6867 	ldmdbvs	pc, {r0, r1, r2, r5, r6, fp, sp, lr}^	; <UNPREDICTABLE>
 1d8:	7265746e 	rsbvc	r7, r5, #1845493760	; 0x6e000000
 1dc:	5f6c6176 	svcpl	0x006c6176
 1e0:	67007375 	smlsdxvs	r0, r5, r3, r7
 1e4:	5f6f6970 	svcpl	0x006f6970
 1e8:	5f746573 	svcpl	0x00746573
 1ec:	7074756f 	rsbsvc	r7, r4, pc, ror #10
 1f0:	72007475 	andvc	r7, r0, #1962934272	; 0x75000000
 1f4:	5f646165 	svcpl	0x00646165
 1f8:	6c696877 	stclvs	8, cr6, [r9], #-476	; 0xfffffe24
 1fc:	71655f65 	cmnvc	r5, r5, ror #30
 200:	69706700 	ldmdbvs	r0!, {r8, r9, sl, sp, lr}^
 204:	65735f6f 	ldrbvs	r5, [r3, #-3951]!	; 0xf6f
 208:	75705f74 	ldrbvc	r5, [r0, #-3956]!	; 0xf74
 20c:	6f646c6c 	svcvs	0x00646c6c
 210:	64006e77 	strvs	r6, [r0], #-3703	; 0xe77
 214:	79616c65 	stmdbvc	r1!, {r0, r2, r5, r6, sl, fp, sp, lr}^
 218:	0073755f 	rsbseq	r7, r3, pc, asr r5
 21c:	656d6974 	strbvs	r6, [sp, #-2420]!	; 0x974
 220:	65675f72 	strbvs	r5, [r7, #-3954]!	; 0xf72
 224:	73755f74 	cmnvc	r5, #116, 30	; 0x1d0
 228:	68006365 	stmdavs	r0, {r0, r2, r5, r6, r8, r9, sp, lr}
 22c:	72732d63 	rsbsvc	r2, r3, #6336	; 0x18c0
 230:	632e3430 	teqvs	lr, #48, 8	; 0x30000000
 234:	776f6c00 	strbvc	r6, [pc, -r0, lsl #24]!
 238:	746e695f 	strbtvc	r6, [lr], #-2399	; 0x95f
 23c:	61767265 	cmnvs	r6, r5, ror #4
 240:	73755f6c 	cmnvc	r5, #108, 30	; 0x1b0
 244:	64757000 	ldrbtvs	r7, [r5], #-0
 248:	66666f5f 	uqsaxvs	r6, r6, pc	; <UNPREDICTABLE>
 24c:	00746573 	rsbseq	r6, r4, r3, ror r5
 250:	6f697067 	svcvs	0x00697067
 254:	6475702d 	ldrbtvs	r7, [r5], #-45	; 0x2d
 258:	6700632e 	strvs	r6, [r0, -lr, lsr #6]
 25c:	5f6f6970 	svcpl	0x006f6970
 260:	5f746573 	svcpl	0x00746573
 264:	6c6c7570 	cfstr64vs	mvdx7, [ip], #-448	; 0xfffffe40
 268:	47007075 	smlsdxmi	r0, r5, r0, r7
 26c:	44555050 	ldrbmi	r5, [r5], #-80	; 0x50
 270:	304b4c43 	subcc	r4, fp, r3, asr #24
 274:	73552f00 	cmpvc	r5, #0, 30
 278:	2f737265 	svccs	0x00737265
 27c:	61697262 	cmnvs	r9, r2, ror #4
 280:	6e756a6e 	vsubvs.f32	s13, s10, s29
 284:	7365442f 	cmnvc	r5, #788529152	; 0x2f000000
 288:	706f746b 	rsbvc	r7, pc, fp, ror #8
 28c:	6863732f 	stmdavs	r3!, {r0, r1, r2, r3, r5, r8, r9, ip, sp, lr}^
 290:	2f6c6f6f 	svccs	0x006c6f6f
 294:	69727053 	ldmdbvs	r2!, {r0, r1, r4, r6, ip, sp, lr}^
 298:	3931676e 	ldmdbcc	r1!, {r1, r2, r3, r5, r6, r8, r9, sl, sp, lr}
 29c:	432f3032 	teqmi	pc, #50	; 0x32
 2a0:	30343253 	eorscc	r3, r4, r3, asr r2
 2a4:	632f584c 	teqvs	pc, #76, 16	; 0x4c0000
 2a8:	30343273 	eorscc	r3, r4, r3, ror r2
 2ac:	322d786c 	eorcc	r7, sp, #108, 16	; 0x6c0000
 2b0:	72707330 	rsbsvc	r7, r0, #48, 6	; 0xc0000000
 2b4:	62696c2f 	rsbvs	r6, r9, #12032	; 0x2f00
 2b8:	6970786c 	ldmdbvs	r0!, {r2, r3, r5, r6, fp, ip, sp, lr}^
 2bc:	76656400 	strbtvc	r6, [r5], -r0, lsl #8
 2c0:	7261625f 	rsbvc	r6, r1, #-268435451	; 0xf0000005
 2c4:	72656972 	rsbvc	r6, r5, #1867776	; 0x1c8000
 2c8:	50504700 	subspl	r4, r0, r0, lsl #14
 2cc:	4c434455 	cfstrdmi	mvd4, [r3], {85}	; 0x55
 2d0:	7000314b 	andvc	r3, r0, fp, asr #2
 2d4:	32337475 	eorscc	r7, r3, #1962934272	; 0x75000000
 2d8:	50504700 	subspl	r4, r0, r0, lsl #14
 2dc:	67004455 	smlsdvs	r0, r5, r4, r4
 2e0:	5f6f6970 	svcpl	0x006f6970
 2e4:	5f647570 	svcpl	0x00647570
 2e8:	0066666f 	rsbeq	r6, r6, pc, ror #12
 2ec:	5f647570 	svcpl	0x00647570
 2f0:	5f6b6c63 	svcpl	0x006b6c63
 2f4:	00676572 	rsbeq	r6, r7, r2, ror r5
 2f8:	6e675f5f 	mcrvs	15, 3, r5, cr7, cr15, {2}
 2fc:	765f6375 			; <UNDEFINED> instruction: 0x765f6375
 300:	696c5f61 	stmdbvs	ip!, {r0, r5, r6, r8, r9, sl, fp, ip, lr}^
 304:	6c007473 	cfstrsvs	mvf7, [r0], {115}	; 0x73
 308:	2f636269 	svccs	0x00636269
 30c:	6e697270 	mcrvs	2, 3, r7, cr9, cr0, {3}
 310:	632e6b74 	teqvs	lr, #116, 22	; 0x1d000
 314:	554e4700 	strbpl	r4, [lr, #-1792]	; 0x700
 318:	34204320 	strtcc	r4, [r0], #-800	; 0x320
 31c:	332e382e 	teqcc	lr, #3014656	; 0x2e0000
 320:	636d2d20 	cmnvs	sp, #32, 26	; 0x800
 324:	613d7570 	teqvs	sp, r0, ror r5
 328:	31316d72 	teqcc	r1, r2, ror sp
 32c:	7a6a3637 	bvc	1a8dc10 <__bss_end__+0x1a84410>
 330:	20732d66 	rsbscs	r2, r3, r6, ror #26
 334:	75746d2d 	ldrbvc	r6, [r4, #-3373]!	; 0xd2d
 338:	613d656e 	teqvs	sp, lr, ror #10
 33c:	31316d72 	teqcc	r1, r2, ror sp
 340:	7a6a3637 	bvc	1a8dc24 <__bss_end__+0x1a84424>
 344:	20732d66 	rsbscs	r2, r3, r6, ror #26
 348:	6467672d 	strbtvs	r6, [r7], #-1837	; 0x72d
 34c:	4f2d2062 	svcmi	0x002d2062
 350:	732d2067 	teqvc	sp, #103	; 0x67
 354:	673d6474 			; <UNDEFINED> instruction: 0x673d6474
 358:	3939756e 	ldmdbcc	r9!, {r1, r2, r3, r5, r6, r8, sl, ip, sp, lr}
 35c:	66662d20 	strbtvs	r2, [r6], -r0, lsr #26
 360:	73656572 	cmnvc	r5, #478150656	; 0x1c800000
 364:	646e6174 	strbtvs	r6, [lr], #-372	; 0x174
 368:	00676e69 	rsbeq	r6, r7, r9, ror #28
 36c:	705f6176 	subsvc	r6, pc, r6, ror r1	; <UNPREDICTABLE>
 370:	746e6972 	strbtvc	r6, [lr], #-2418	; 0x972
 374:	5f5f006b 	svcpl	0x005f006b
 378:	6c5f6176 	ldfvse	f6, [pc], {118}	; 0x76
 37c:	00747369 	rsbseq	r7, r4, r9, ror #6
 380:	6573552f 	ldrbvs	r5, [r3, #-1327]!	; 0x52f
 384:	622f7372 	eorvs	r7, pc, #-939524095	; 0xc8000001
 388:	6e616972 	mcrvs	9, 3, r6, cr1, cr2, {3}
 38c:	2f6e756a 	svccs	0x006e756a
 390:	6b736544 	blvs	1cd98a8 <__bss_end__+0x1cd00a8>
 394:	2f706f74 	svccs	0x00706f74
 398:	6f686373 	svcvs	0x00686373
 39c:	572f6c6f 	strpl	r6, [pc, -pc, ror #24]!
 3a0:	65746e69 	ldrbvs	r6, [r4, #-3689]!	; 0xe69
 3a4:	32393172 	eorscc	r3, r9, #-2147483620	; 0x8000001c
 3a8:	53432f30 	movtpl	r2, #16176	; 0x3f30
 3ac:	45303431 	ldrmi	r3, [r0, #-1073]!	; 0x431
 3b0:	3173632f 	cmncc	r3, pc, lsr #6
 3b4:	2d653034 	stclcs	0, cr3, [r5, #-208]!	; 0xffffff30
 3b8:	69773032 	ldmdbvs	r7!, {r1, r4, r5, ip, sp}^
 3bc:	696c2f6e 	stmdbvs	ip!, {r1, r2, r3, r5, r6, r8, r9, sl, fp, sp}^
 3c0:	00697062 	rsbeq	r7, r9, r2, rrx
 3c4:	73677261 	cmnvc	r7, #268435462	; 0x10000006
 3c8:	615f5f00 	cmpvs	pc, r0, lsl #30
 3cc:	696c0070 	stmdbvs	ip!, {r4, r5, r6}^
 3d0:	702f6362 	eorvc	r6, pc, r2, ror #6
 3d4:	2e6b7475 	mcrcs	4, 3, r7, cr11, cr5, {3}
 3d8:	6e690063 	cdpvs	0, 6, cr0, cr9, cr3, {3}
 3dc:	6e726574 	mrcvs	5, 3, r6, cr2, cr4, {3}
 3e0:	705f6c61 	subsvc	r6, pc, r1, ror #24
 3e4:	006b7475 	rsbeq	r7, fp, r5, ror r4
 3e8:	5f697072 	svcpl	0x00697072
 3ec:	63747570 	cmnvs	r4, #112, 10	; 0x1c000000
 3f0:	00726168 	rsbseq	r6, r2, r8, ror #2
 3f4:	5f67656e 	svcpl	0x0067656e
 3f8:	65720070 	ldrbvs	r0, [r2, #-112]!	; 0x70
 3fc:	73726576 	cmnvc	r2, #494927872	; 0x1d800000
 400:	73690065 	cmnvc	r9, #101	; 0x65
 404:	69676964 	stmdbvs	r7!, {r2, r5, r6, r8, fp, sp, lr}^
 408:	5f5f0074 	svcpl	0x005f0074
 40c:	434e5546 	movtmi	r5, #58694	; 0xe546
 410:	4e4f4954 	mcrmi	9, 2, r4, cr15, cr4, {2}
 414:	70005f5f 	andvc	r5, r0, pc, asr pc
 418:	5f737475 	svcpl	0x00737475
 41c:	62007066 	andvs	r7, r0, #102	; 0x66
 420:	00657361 	rsbeq	r7, r5, r1, ror #6
 424:	6e676973 	mcrvs	9, 3, r6, cr7, cr3, {3}
 428:	705f6465 	subsvc	r6, pc, r5, ror #8
 42c:	62696c00 	rsbvs	r6, r9, #0, 24
 430:	61762f63 	cmnvs	r6, r3, ror #30
 434:	6972702d 	ldmdbvs	r2!, {r0, r2, r3, r5, ip, sp, lr}^
 438:	2e6b746e 	cdpcs	4, 6, cr7, cr11, cr14, {3}
 43c:	70720063 	rsbsvc	r0, r2, r3, rrx
 440:	65735f69 	ldrbvs	r5, [r3, #-3945]!	; 0xf69
 444:	756f5f74 	strbvc	r5, [pc, #-3956]!	; fffff4d8 <__bss_end__+0xffff5cd8>
 448:	74757074 	ldrbtvc	r7, [r5], #-116	; 0x74
 44c:	64697700 	strbtvs	r7, [r9], #-1792	; 0x700
 450:	70006874 	andvc	r6, r0, r4, ror r8
 454:	5f637475 	svcpl	0x00637475
 458:	72007066 	andvc	r7, r0, #102	; 0x66
 45c:	725f6970 	subsvc	r6, pc, #112, 18	; 0x1c0000
 460:	74657365 	strbtvc	r7, [r5], #-869	; 0x365
 464:	7475705f 	ldrbtvc	r7, [r5], #-95	; 0x5f
 468:	6d650063 	stclvs	0, cr0, [r5, #-396]!	; 0xfffffe74
 46c:	72007469 	andvc	r7, r0, #1761607680	; 0x69000000
 470:	725f6970 	subsvc	r6, pc, #112, 18	; 0x1c0000
 474:	6f6f6265 	svcvs	0x006f6265
 478:	73630074 	cmnvc	r3, #116	; 0x74
 47c:	65303431 	ldrvs	r3, [r0, #-1073]!	; 0x431
 480:	6372732d 	cmnvs	r2, #-1275068416	; 0xb4000000
 484:	656c632f 	strbvs	r6, [ip, #-815]!	; 0x32f
 488:	722d6e61 	eorvc	r6, sp, #1552	; 0x610
 48c:	6f6f6265 	svcvs	0x006f6265
 490:	00632e74 	rsbeq	r2, r3, r4, ror lr
 494:	34317363 	ldrtcc	r7, [r1], #-867	; 0x363
 498:	732d6530 	teqvc	sp, #48, 10	; 0xc000000
 49c:	632f6372 	teqvs	pc, #-939524095	; 0xc8000001
 4a0:	72617473 	rsbvc	r7, r1, #1929379840	; 0x73000000
 4a4:	00632e74 	rsbeq	r2, r3, r4, ror lr
 4a8:	73625f5f 	cmnvc	r2, #380	; 0x17c
 4ac:	74735f73 	ldrbtvc	r5, [r3], #-3955	; 0xf73
 4b0:	5f747261 	svcpl	0x00747261
 4b4:	5f5f005f 	svcpl	0x005f005f
 4b8:	5f737362 	svcpl	0x00737362
 4bc:	5f646e65 	svcpl	0x00646e65
 4c0:	7362005f 	cmnvc	r2, #95	; 0x5f
 4c4:	6e655f73 	mcrvs	15, 3, r5, cr5, cr3, {3}
 4c8:	635f0064 	cmpvs	pc, #100	; 0x64
 4cc:	72617473 	rsbvc	r7, r1, #1929379840	; 0x73000000
 4d0:	74610074 	strbtvc	r0, [r1], #-116	; 0x74
 4d4:	6573755f 	ldrbvs	r7, [r3, #-1375]!	; 0x55f
 4d8:	656c5f72 	strbvs	r5, [ip, #-3954]!	; 0xf72
 4dc:	006c6576 	rsbeq	r6, ip, r6, ror r5
 4e0:	505f4d50 	subspl	r4, pc, r0, asr sp	; <UNPREDICTABLE>
 4e4:	57535341 	ldrbpl	r5, [r3, -r1, asr #6]
 4e8:	0044524f 	subeq	r5, r4, pc, asr #4
 4ec:	34317363 	ldrtcc	r7, [r1], #-867	; 0x363
 4f0:	732d6530 	teqvc	sp, #48, 10	; 0xc000000
 4f4:	722f6372 	eorvc	r6, pc, #-939524095	; 0xc8000001
 4f8:	6f6f6265 	svcvs	0x006f6265
 4fc:	00632e74 	rsbeq	r2, r3, r4, ror lr
 500:	525f4d50 	subspl	r4, pc, #80, 26	; 0x1400
 504:	5f435453 	svcpl	0x00435453
 508:	46435257 			; <UNDEFINED> instruction: 0x46435257
 50c:	55465f47 	strbpl	r5, [r6, #-3911]	; 0xf47
 510:	525f4c4c 	subspl	r4, pc, #76, 24	; 0x4c00
 514:	54455345 	strbpl	r5, [r5], #-837	; 0x345
 518:	5f4d5000 	svcpl	0x004d5000
 51c:	474f4457 	smlsldmi	r4, pc, r7, r4	; <UNPREDICTABLE>
 520:	74657300 	strbtvc	r7, [r5], #-768	; 0x300
 524:	6573755f 	ldrbvs	r7, [r3, #-1375]!	; 0x55f
 528:	656c5f72 	strbvs	r5, [ip, #-3954]!	; 0xf72
 52c:	006c6576 	rsbeq	r6, ip, r6, ror r5
 530:	33545550 	cmpcc	r4, #80, 10	; 0x14000000
 534:	4d500032 	ldclmi	0, cr0, [r0, #-200]	; 0xffffff38
 538:	5453525f 	ldrbpl	r5, [r3], #-607	; 0x25f
 53c:	70630043 	rsbvc	r0, r3, r3, asr #32
 540:	74007273 	strvc	r7, [r0], #-627	; 0x273
 544:	72656d69 	rsbvc	r6, r5, #6720	; 0x1a40
 548:	7465675f 	strbtvc	r6, [r5], #-1887	; 0x75f
 54c:	6573755f 	ldrbvs	r7, [r3, #-1375]!	; 0x55f
 550:	61725f63 	cmnvs	r2, r3, ror #30
 554:	65640077 	strbvs	r0, [r4, #-119]!	; 0x77
 558:	5f79616c 	svcpl	0x0079616c
 55c:	00636573 	rsbeq	r6, r3, r3, ror r5
 560:	34317363 	ldrtcc	r7, [r1], #-867	; 0x363
 564:	732d6530 	teqvc	sp, #48, 10	; 0xc000000
 568:	742f6372 	strtvc	r6, [pc], #-882	; 570 <_start-0x7a90>
 56c:	72656d69 	rsbvc	r6, r5, #6720	; 0x1a40
 570:	4700632e 	strmi	r6, [r0, -lr, lsr #6]
 574:	32335445 	eorscc	r5, r3, #1157627904	; 0x45000000
 578:	63697400 	cmnvs	r9, #0, 8
 57c:	6400736b 	strvs	r7, [r0], #-875	; 0x36b
 580:	79616c65 	stmdbvc	r1!, {r0, r2, r5, r6, sl, fp, sp, lr}^
 584:	6379635f 	cmnvs	r9, #2080374785	; 0x7c000001
 588:	0073656c 	rsbseq	r6, r3, ip, ror #10
 58c:	6f697067 	svcvs	0x00697067
 590:	6576655f 	ldrbvs	r6, [r6, #-1375]!	; 0x55f
 594:	645f746e 	ldrbvs	r7, [pc], #-1134	; 59c <_start-0x7a64>
 598:	63657465 	cmnvs	r5, #1694498816	; 0x65000000
 59c:	00646574 	rsbeq	r6, r4, r4, ror r5
 5a0:	53465047 	movtpl	r5, #24647	; 0x6047
 5a4:	00324c45 	eorseq	r4, r2, r5, asr #24
 5a8:	4c435047 	mcrrmi	0, 4, r5, r3, cr7
 5ac:	45003052 	strmi	r3, [r0, #-82]	; 0x52
 5b0:	4c42414e 	stfmie	f4, [r2], {78}	; 0x4e
 5b4:	52495f45 	subpl	r5, r9, #276	; 0x114
 5b8:	325f5351 	subscc	r5, pc, #1140850689	; 0x44000001
 5bc:	5f736900 	svcpl	0x00736900
 5c0:	6f697067 	svcvs	0x00697067
 5c4:	746e695f 	strbtvc	r6, [lr], #-2399	; 0x95f
 5c8:	49504700 	ldmdbmi	r0, {r8, r9, sl, lr}^
 5cc:	55465f4f 	strbpl	r5, [r6, #-3919]	; 0xf4f
 5d0:	495f434e 	ldmdbmi	pc, {r1, r2, r3, r6, r8, r9, lr}^	; <UNPREDICTABLE>
 5d4:	5455504e 	ldrbpl	r5, [r5], #-78	; 0x4e
 5d8:	69706700 	ldmdbvs	r0!, {r8, r9, sl, sp, lr}^
 5dc:	65735f6f 	ldrbvs	r5, [r3, #-3951]!	; 0xf6f
 5e0:	666f5f74 	uqsub16vs	r5, pc, r4	; <UNPREDICTABLE>
 5e4:	796d0066 	stmdbvc	sp!, {r1, r2, r5, r6}^
 5e8:	6372732d 	cmnvs	r2, #-1275068416	; 0xb4000000
 5ec:	6970672f 	ldmdbvs	r0!, {r0, r1, r2, r3, r5, r8, r9, sl, sp, lr}^
 5f0:	00632e6f 	rsbeq	r2, r3, pc, ror #28
 5f4:	5f746e69 	svcpl	0x00746e69
 5f8:	6b73616d 	blvs	1cd8bb4 <__bss_end__+0x1ccf3b4>
 5fc:	53504700 	cmppl	r0, #0, 14
 600:	00305445 	eorseq	r5, r0, r5, asr #8
 604:	45535047 	ldrbmi	r5, [r3, #-71]	; 0x47
 608:	72003154 	andvc	r3, r0, #84, 2
 60c:	735f6765 	cmpvc	pc, #26476544	; 0x1940000
 610:	00746174 	rsbseq	r6, r4, r4, ror r1
 614:	454c5047 	strbmi	r5, [ip, #-71]	; 0x47
 618:	47003056 	smlsdmi	r0, r6, r0, r3
 61c:	56454c50 			; <UNDEFINED> instruction: 0x56454c50
 620:	70670031 	rsbvc	r0, r7, r1, lsr r0
 624:	725f6f69 	subsvc	r6, pc, #420	; 0x1a4
 628:	47006765 	strmi	r6, [r0, -r5, ror #14]
 62c:	45534650 	ldrbmi	r4, [r3, #-1616]	; 0x650
 630:	4700304c 	strmi	r3, [r0, -ip, asr #32]
 634:	45534650 	ldrbmi	r4, [r3, #-1616]	; 0x650
 638:	4700314c 	strmi	r3, [r0, -ip, asr #2]
 63c:	45534650 	ldrbmi	r4, [r3, #-1616]	; 0x650
 640:	4700334c 	strmi	r3, [r0, -ip, asr #6]
 644:	45534650 	ldrbmi	r4, [r3, #-1616]	; 0x650
 648:	4700344c 	strmi	r3, [r0, -ip, asr #8]
 64c:	45534650 	ldrbmi	r4, [r3, #-1616]	; 0x650
 650:	6700354c 	strvs	r3, [r0, -ip, asr #10]
 654:	5f6f6970 	svcpl	0x006f6970
 658:	6c657366 	stclvs	3, cr7, [r5], #-408	; 0xfffffe68
 65c:	50470030 	subpl	r0, r7, r0, lsr r0
 660:	31524c43 	cmpcc	r2, r3, asr #24
 664:	69706700 	ldmdbvs	r0!, {r8, r9, sl, sp, lr}^
 668:	6e695f6f 	cdpvs	15, 6, cr5, cr9, cr15, {3}
 66c:	69725f74 	ldmdbvs	r2!, {r2, r4, r5, r6, r8, r9, sl, fp, ip, lr}^
 670:	676e6973 			; <UNDEFINED> instruction: 0x676e6973
 674:	6764655f 			; <UNDEFINED> instruction: 0x6764655f
 678:	70670065 	rsbvc	r0, r7, r5, rrx
 67c:	735f6f69 	cmpvc	pc, #420	; 0x1a4
 680:	665f7465 	ldrbvs	r7, [pc], -r5, ror #8
 684:	74636e75 	strbtvc	r6, [r3], #-3701	; 0xe75
 688:	006e6f69 	rsbeq	r6, lr, r9, ror #30
 68c:	45525047 	ldrbmi	r5, [r2, #-71]	; 0x47
 690:	4700304e 	strmi	r3, [r0, -lr, asr #32]
 694:	4e455250 	mcrmi	2, 2, r5, cr5, cr0, {2}
 698:	70670031 	rsbvc	r0, r7, r1, lsr r0
 69c:	655f6f69 	ldrbvs	r6, [pc, #-3945]	; fffff73b <__bss_end__+0xffff5f3b>
 6a0:	746e6576 	strbtvc	r6, [lr], #-1398	; 0x576
 6a4:	656c635f 	strbvs	r6, [ip, #-863]!	; 0x35f
 6a8:	49007261 	stmdbmi	r0, {r0, r5, r6, r9, ip, sp, lr}
 6ac:	505f5152 	subspl	r5, pc, r2, asr r1	; <UNPREDICTABLE>
 6b0:	49444e45 	stmdbmi	r4, {r0, r2, r6, r9, sl, fp, lr}^
 6b4:	315f474e 	cmpcc	pc, lr, asr #14
 6b8:	51524900 	cmppl	r2, r0, lsl #18
 6bc:	4e45505f 	mcrmi	0, 2, r5, cr5, cr15, {2}
 6c0:	474e4944 	strbmi	r4, [lr, -r4, asr #18]
 6c4:	6200325f 	andvs	r3, r0, #-268435451	; 0xf0000005
 6c8:	616d7469 	cmnvs	sp, r9, ror #8
 6cc:	67006b73 	smlsdxvs	r0, r3, fp, r6
 6d0:	5f6f6970 	svcpl	0x006f6970
 6d4:	30746573 	rsbscc	r6, r4, r3, ror r5
 6d8:	6e756600 	cdpvs	6, 7, cr6, cr5, cr0, {0}
 6dc:	70670063 	rsbvc	r0, r7, r3, rrx
 6e0:	745f6f69 	ldrbvc	r6, [pc], #-3945	; 6e8 <_start-0x7918>
 6e4:	6c67676f 	stclvs	7, cr6, [r7], #-444	; 0xfffffe44
 6e8:	50470065 	subpl	r0, r7, r5, rrx
 6ec:	30534445 	subscc	r4, r3, r5, asr #8
 6f0:	45504700 	ldrbmi	r4, [r0, #-1792]	; 0x700
 6f4:	00315344 	eorseq	r5, r1, r4, asr #6
 6f8:	6f697067 	svcvs	0x00697067
 6fc:	7465735f 	strbtvc	r7, [r5], #-863	; 0x35f
 700:	006e6f5f 	rsbeq	r6, lr, pc, asr pc
 704:	45465047 	strbmi	r5, [r6, #-71]	; 0x47
 708:	4700304e 	strmi	r3, [r0, -lr, asr #32]
 70c:	4e454650 	mcrmi	6, 2, r4, cr5, cr0, {2}
 710:	50470031 	subpl	r0, r7, r1, lsr r0
 714:	465f4f49 	ldrbmi	r4, [pc], -r9, asr #30
 718:	5f434e55 	svcpl	0x00434e55
 71c:	5054554f 	subspl	r5, r4, pc, asr #10
 720:	67005455 	smlsdvs	r0, r5, r4, r5
 724:	32337465 	eorscc	r7, r3, #1694498816	; 0x65000000
 728:	69706700 	ldmdbvs	r0!, {r8, r9, sl, sp, lr}^
 72c:	6e695f6f 	cdpvs	15, 6, cr5, cr9, cr15, {3}
 730:	61665f74 	smcvs	26100	; 0x65f4
 734:	6e696c6c 	cdpvs	12, 6, cr6, cr9, cr12, {3}
 738:	64655f67 	strbtvs	r5, [r5], #-3943	; 0xf67
 73c:	67006567 	strvs	r6, [r0, -r7, ror #10]
 740:	5f6f6970 	svcpl	0x006f6970
 744:	636e7566 	cmnvs	lr, #427819008	; 0x19800000
 748:	4700745f 	smlsdmi	r0, pc, r4, r7	; <UNPREDICTABLE>
 74c:	5f4f4950 	svcpl	0x004f4950
 750:	434e5546 	movtmi	r5, #58694	; 0xe546
 754:	544c415f 	strbpl	r4, [ip], #-351	; 0x15f
 758:	50470030 	subpl	r0, r7, r0, lsr r0
 75c:	465f4f49 	ldrbmi	r4, [pc], -r9, asr #30
 760:	5f434e55 	svcpl	0x00434e55
 764:	31544c41 	cmpcc	r4, r1, asr #24
 768:	49504700 	ldmdbmi	r0, {r8, r9, sl, lr}^
 76c:	55465f4f 	strbpl	r5, [r6, #-3919]	; 0xf4f
 770:	415f434e 	cmpmi	pc, lr, asr #6
 774:	0032544c 	eorseq	r5, r2, ip, asr #8
 778:	4f495047 	svcmi	0x00495047
 77c:	4e55465f 	mrcmi	6, 2, r4, cr5, cr15, {2}
 780:	4c415f43 	mcrrmi	15, 4, r5, r1, cr3
 784:	47003354 	smlsdmi	r0, r4, r3, r3
 788:	5f4f4950 	svcpl	0x004f4950
 78c:	434e5546 	movtmi	r5, #58694	; 0xe546
 790:	544c415f 	strbpl	r4, [ip], #-351	; 0x15f
 794:	50470034 	subpl	r0, r7, r4, lsr r0
 798:	465f4f49 	ldrbmi	r4, [pc], -r9, asr #30
 79c:	5f434e55 	svcpl	0x00434e55
 7a0:	35544c41 	ldrbcc	r4, [r4, #-3137]	; 0xc41
 7a4:	67657200 	strbvs	r7, [r5, -r0, lsl #4]!
 7a8:	6c65735f 	stclvs	3, cr7, [r5], #-380	; 0xfffffe84
 7ac:	00746365 	rsbseq	r6, r4, r5, ror #6
 7b0:	6f697067 	svcvs	0x00697067
 7b4:	726c635f 	rsbvc	r6, ip, #2080374785	; 0x7c000001
 7b8:	55410030 	strbpl	r0, [r1, #-48]	; 0x30
 7bc:	554d5f58 	strbpl	r5, [sp, #-3928]	; 0xf58
 7c0:	52434d5f 	subpl	r4, r3, #6080	; 0x17c0
 7c4:	4745525f 	smlsldmi	r5, r5, pc, r2	; <UNPREDICTABLE>
 7c8:	58554100 	ldmdapl	r5, {r8, lr}^
 7cc:	5f554d5f 	svcpl	0x00554d5f
 7d0:	525f4f49 	subspl	r4, pc, #292	; 0x124
 7d4:	41004745 	tstmi	r0, r5, asr #14
 7d8:	4d5f5855 	ldclmi	8, cr5, [pc, #-340]	; 68c <_start-0x7974>
 7dc:	534d5f55 	movtpl	r5, #57173	; 0xdf55
 7e0:	45525f52 	ldrbmi	r5, [r2, #-3922]	; 0xf52
 7e4:	61750047 	cmnvs	r5, r7, asr #32
 7e8:	635f7472 	cmpvs	pc, #1912602624	; 0x72000000
 7ec:	675f6e61 	ldrbvs	r6, [pc, -r1, ror #28]
 7f0:	00637465 	rsbeq	r7, r3, r5, ror #8
 7f4:	5f585541 	svcpl	0x00585541
 7f8:	435f554d 	cmpmi	pc, #322961408	; 0x13400000
 7fc:	5f4c544e 	svcpl	0x004c544e
 800:	00474552 	subeq	r4, r7, r2, asr r5
 804:	74726175 	ldrbtvc	r6, [r2], #-373	; 0x175
 808:	7361685f 	cmnvc	r1, #6225920	; 0x5f0000
 80c:	7461645f 	strbtvc	r6, [r1], #-1119	; 0x45f
 810:	55410061 	strbpl	r0, [r1, #-97]	; 0x61
 814:	554d5f58 	strbpl	r5, [sp, #-3928]	; 0xf58
 818:	5245495f 	subpl	r4, r5, #1556480	; 0x17c000
 81c:	4745525f 	smlsldmi	r5, r5, pc, r2	; <UNPREDICTABLE>
 820:	72617500 	rsbvc	r7, r1, #0, 10
 824:	65675f74 	strbvs	r5, [r7, #-3956]!	; 0xf74
 828:	41006374 	tstmi	r0, r4, ror r3
 82c:	4d5f5855 	ldclmi	8, cr5, [pc, #-340]	; 6e0 <_start-0x7920>
 830:	49495f55 	stmdbmi	r9, {r0, r2, r4, r6, r8, r9, sl, fp, ip, lr}^
 834:	45525f52 	ldrbmi	r5, [r2, #-3922]	; 0xf52
 838:	61750047 	cmnvs	r5, r7, asr #32
 83c:	635f7472 	cmpvs	pc, #1912602624	; 0x72000000
 840:	705f6e61 	subsvc	r6, pc, r1, ror #28
 844:	00637475 	rsbeq	r7, r3, r5, ror r4
 848:	5f585541 	svcpl	0x00585541
 84c:	42414e45 	submi	r4, r1, #1104	; 0x450
 850:	0053454c 	subseq	r4, r3, ip, asr #10
 854:	5f585541 	svcpl	0x00585541
 858:	00515249 	subseq	r5, r1, r9, asr #4
 85c:	5f585541 	svcpl	0x00585541
 860:	425f554d 	subsmi	r5, pc, #322961408	; 0x13400000
 864:	5f445541 	svcpl	0x00445541
 868:	00474552 	subeq	r4, r7, r2, asr r5
 86c:	5f585541 	svcpl	0x00585541
 870:	535f554d 	cmppl	pc, #322961408	; 0x13400000
 874:	5f544154 	svcpl	0x00544154
 878:	00474552 	subeq	r4, r7, r2, asr r5
 87c:	5f585541 	svcpl	0x00585541
 880:	535f554d 	cmppl	pc, #322961408	; 0x13400000
 884:	54415243 	strbpl	r5, [r1], #-579	; 0x243
 888:	75004843 	strvc	r4, [r0, #-2115]	; 0x843
 88c:	5f747261 	svcpl	0x00747261
 890:	63747570 	cmnvs	r4, #112, 10	; 0x1c000000
 894:	2d796d00 	ldclcs	13, cr6, [r9, #-0]
 898:	2f637273 	svccs	0x00637273
 89c:	74726175 	ldrbtvc	r6, [r2], #-373	; 0x175
 8a0:	4100632e 	tstmi	r0, lr, lsr #6
 8a4:	4d5f5855 	ldclmi	8, cr5, [pc, #-340]	; 758 <_start-0x78a8>
 8a8:	434c5f55 	movtmi	r5, #53077	; 0xcf55
 8ac:	45525f52 	ldrbmi	r5, [r2, #-3922]	; 0xf52
 8b0:	55410047 	strbpl	r0, [r1, #-71]	; 0x47
 8b4:	554d5f58 	strbpl	r5, [sp, #-3928]	; 0xf58
 8b8:	52534c5f 	subspl	r4, r3, #24320	; 0x5f00
 8bc:	4745525f 	smlsldmi	r5, r5, pc, r2	; <UNPREDICTABLE>
 8c0:	72617500 	rsbvc	r7, r1, #0, 10
 8c4:	65675f74 	strbvs	r5, [r7, #-3956]!	; 0xf74
 8c8:	615f6374 	cmpvs	pc, r4, ror r3	; <UNPREDICTABLE>
 8cc:	636e7973 	cmnvs	lr, #1884160	; 0x1cc000
 8d0:	746e6900 	strbtvc	r6, [lr], #-2304	; 0x900
 8d4:	616e7265 	cmnvs	lr, r5, ror #4
 8d8:	75705f6c 	ldrbvc	r5, [r0, #-3948]!	; 0xf6c
 8dc:	61686374 	smcvs	34356	; 0x8634
 8e0:	696c0072 	stmdbvs	ip!, {r1, r4, r5, r6}^
 8e4:	702f6362 	eorvc	r6, pc, r2, ror #6
 8e8:	68637475 	stmdavs	r3!, {r0, r2, r4, r5, r6, sl, ip, sp, lr}^
 8ec:	632e7261 	teqvs	lr, #268435462	; 0x10000006
 8f0:	69707200 	ldmdbvs	r0!, {r9, ip, sp, lr}^
 8f4:	7465735f 	strbtvc	r7, [r5], #-863	; 0x35f
 8f8:	7475705f 	ldrbtvc	r7, [r5], #-95	; 0x5f
 8fc:	Address 0x00000000000008fc is out of bounds.


Disassembly of section .debug_frame:

00000000 <.debug_frame>:
   0:	0000000c 	andeq	r0, r0, ip
   4:	ffffffff 			; <UNDEFINED> instruction: 0xffffffff
   8:	7c020001 	stcvc	0, cr0, [r2], {1}
   c:	000d0c0e 	andeq	r0, sp, lr, lsl #24
  10:	0000001c 	andeq	r0, r0, ip, lsl r0
  14:	00000000 	andeq	r0, r0, r0
  18:	00008010 	andeq	r8, r0, r0, lsl r0
  1c:	00000090 	muleq	r0, r0, r0
  20:	84140e42 	ldrhi	r0, [r4], #-3650	; 0xe42
  24:	86048505 	strhi	r8, [r4], -r5, lsl #10
  28:	8e028703 	cdphi	7, 0, cr8, cr2, cr3, {0}
  2c:	200e4201 	andcs	r4, lr, r1, lsl #4
  30:	0000000c 	andeq	r0, r0, ip
  34:	ffffffff 			; <UNDEFINED> instruction: 0xffffffff
  38:	7c020001 	stcvc	0, cr0, [r2], {1}
  3c:	000d0c0e 	andeq	r0, sp, lr, lsl #24
  40:	0000001c 	andeq	r0, r0, ip, lsl r0
  44:	00000030 	andeq	r0, r0, r0, lsr r0
  48:	000080a0 	andeq	r8, r0, r0, lsr #1
  4c:	0000004c 	andeq	r0, r0, ip, asr #32
  50:	83180e42 	tsthi	r8, #1056	; 0x420
  54:	85058406 	strhi	r8, [r5, #-1030]	; 0x406
  58:	87038604 	strhi	r8, [r3, -r4, lsl #12]
  5c:	00018e02 	andeq	r8, r1, r2, lsl #28
  60:	00000018 	andeq	r0, r0, r8, lsl r0
  64:	00000030 	andeq	r0, r0, r0, lsr r0
  68:	000080ec 	andeq	r8, r0, ip, ror #1
  6c:	00000044 	andeq	r0, r0, r4, asr #32
  70:	84100e42 	ldrhi	r0, [r0], #-3650	; 0xe42
  74:	86038504 	strhi	r8, [r3], -r4, lsl #10
  78:	00018e02 	andeq	r8, r1, r2, lsl #28
  7c:	00000018 	andeq	r0, r0, r8, lsl r0
  80:	00000030 	andeq	r0, r0, r0, lsr r0
  84:	00008130 	andeq	r8, r0, r0, lsr r1
  88:	000000ac 	andeq	r0, r0, ip, lsr #1
  8c:	83100e42 	tsthi	r0, #1056	; 0x420
  90:	85038404 	strhi	r8, [r3, #-1028]	; 0x404
  94:	00018e02 	andeq	r8, r1, r2, lsl #28
  98:	0000000c 	andeq	r0, r0, ip
  9c:	ffffffff 			; <UNDEFINED> instruction: 0xffffffff
  a0:	7c020001 	stcvc	0, cr0, [r2], {1}
  a4:	000d0c0e 	andeq	r0, sp, lr, lsl #24
  a8:	00000018 	andeq	r0, r0, r8, lsl r0
  ac:	00000098 	muleq	r0, r8, r0
  b0:	000081dc 	ldrdeq	r8, [r0], -ip
  b4:	0000008c 	andeq	r0, r0, ip, lsl #1
  b8:	83100e42 	tsthi	r0, #1056	; 0x420
  bc:	85038404 	strhi	r8, [r3, #-1028]	; 0x404
  c0:	00018e02 	andeq	r8, r1, r2, lsl #28
  c4:	00000018 	andeq	r0, r0, r8, lsl r0
  c8:	00000098 	muleq	r0, r8, r0
  cc:	00008268 	andeq	r8, r0, r8, ror #4
  d0:	0000008c 	andeq	r0, r0, ip, lsl #1
  d4:	83100e42 	tsthi	r0, #1056	; 0x420
  d8:	85038404 	strhi	r8, [r3, #-1028]	; 0x404
  dc:	00018e02 	andeq	r8, r1, r2, lsl #28
  e0:	00000018 	andeq	r0, r0, r8, lsl r0
  e4:	00000098 	muleq	r0, r8, r0
  e8:	000082f4 	strdeq	r8, [r0], -r4
  ec:	0000008c 	andeq	r0, r0, ip, lsl #1
  f0:	83100e42 	tsthi	r0, #1056	; 0x420
  f4:	85038404 	strhi	r8, [r3, #-1028]	; 0x404
  f8:	00018e02 	andeq	r8, r1, r2, lsl #28
  fc:	0000000c 	andeq	r0, r0, ip
 100:	ffffffff 			; <UNDEFINED> instruction: 0xffffffff
 104:	7c020001 	stcvc	0, cr0, [r2], {1}
 108:	000d0c0e 	andeq	r0, sp, lr, lsl #24
 10c:	00000024 	andeq	r0, r0, r4, lsr #32
 110:	000000fc 	strdeq	r0, [r0], -ip
 114:	00008380 	andeq	r8, r0, r0, lsl #7
 118:	00000058 	andeq	r0, r0, r8, asr r0
 11c:	80100e42 	andshi	r0, r0, r2, asr #28
 120:	82038104 	andhi	r8, r3, #4, 2
 124:	42018302 	andmi	r8, r1, #134217728	; 0x8000000
 128:	07841c0e 	streq	r1, [r4, lr, lsl #24]
 12c:	058e0685 	streq	r0, [lr, #1669]	; 0x685
 130:	00280e42 	eoreq	r0, r8, r2, asr #28
 134:	0000000c 	andeq	r0, r0, ip
 138:	ffffffff 			; <UNDEFINED> instruction: 0xffffffff
 13c:	7c020001 	stcvc	0, cr0, [r2], {1}
 140:	000d0c0e 	andeq	r0, sp, lr, lsl #24
 144:	00000018 	andeq	r0, r0, r8, lsl r0
 148:	00000134 	andeq	r0, r0, r4, lsr r1
 14c:	000083d8 	ldrdeq	r8, [r0], -r8	; <UNPREDICTABLE>
 150:	00000034 	andeq	r0, r0, r4, lsr r0
 154:	83100e42 	tsthi	r0, #1056	; 0x420
 158:	85038404 	strhi	r8, [r3, #-1028]	; 0x404
 15c:	00018e02 	andeq	r8, r1, r2, lsl #28
 160:	0000000c 	andeq	r0, r0, ip
 164:	ffffffff 			; <UNDEFINED> instruction: 0xffffffff
 168:	7c020001 	stcvc	0, cr0, [r2], {1}
 16c:	000d0c0e 	andeq	r0, sp, lr, lsl #24
 170:	0000000c 	andeq	r0, r0, ip
 174:	00000160 	andeq	r0, r0, r0, ror #2
 178:	0000840c 	andeq	r8, r0, ip, lsl #8
 17c:	00000014 	andeq	r0, r0, r4, lsl r0
 180:	0000000c 	andeq	r0, r0, ip
 184:	00000160 	andeq	r0, r0, r0, ror #2
 188:	00008420 	andeq	r8, r0, r0, lsr #8
 18c:	0000002c 	andeq	r0, r0, ip, lsr #32
 190:	0000000c 	andeq	r0, r0, ip
 194:	00000160 	andeq	r0, r0, r0, ror #2
 198:	0000844c 	andeq	r8, r0, ip, asr #8
 19c:	00000040 	andeq	r0, r0, r0, asr #32
 1a0:	00000020 	andeq	r0, r0, r0, lsr #32
 1a4:	00000160 	andeq	r0, r0, r0, ror #2
 1a8:	0000848c 	andeq	r8, r0, ip, lsl #9
 1ac:	0000019c 	muleq	r0, ip, r1
 1b0:	84180e42 	ldrhi	r0, [r8], #-3650	; 0xe42
 1b4:	86058506 	strhi	r8, [r5], -r6, lsl #10
 1b8:	88038704 	stmdahi	r3, {r2, r8, r9, sl, pc}
 1bc:	42018e02 	andmi	r8, r1, #2, 28
 1c0:	0000580e 	andeq	r5, r0, lr, lsl #16
 1c4:	00000014 	andeq	r0, r0, r4, lsl r0
 1c8:	00000160 	andeq	r0, r0, r0, ror #2
 1cc:	00008628 	andeq	r8, r0, r8, lsr #12
 1d0:	00000054 	andeq	r0, r0, r4, asr r0
 1d4:	83080e42 	movwhi	r0, #36418	; 0x8e42
 1d8:	00018e02 	andeq	r8, r1, r2, lsl #28
 1dc:	00000028 	andeq	r0, r0, r8, lsr #32
 1e0:	00000160 	andeq	r0, r0, r0, ror #2
 1e4:	0000867c 	andeq	r8, r0, ip, ror r6
 1e8:	00000288 	andeq	r0, r0, r8, lsl #5
 1ec:	84240e42 	strthi	r0, [r4], #-3650	; 0xe42
 1f0:	86088509 	strhi	r8, [r8], -r9, lsl #10
 1f4:	88068707 	stmdahi	r6, {r0, r1, r2, r8, r9, sl, pc}
 1f8:	8a048905 	bhi	122614 <__bss_end__+0x118e14>
 1fc:	8e028b03 	vmlahi.f64	d8, d2, d3
 200:	b00e4201 	andlt	r4, lr, r1, lsl #4
 204:	00000001 	andeq	r0, r0, r1
 208:	0000000c 	andeq	r0, r0, ip
 20c:	ffffffff 			; <UNDEFINED> instruction: 0xffffffff
 210:	7c020001 	stcvc	0, cr0, [r2], {1}
 214:	000d0c0e 	andeq	r0, sp, lr, lsl #24
 218:	00000014 	andeq	r0, r0, r4, lsl r0
 21c:	00000208 	andeq	r0, r0, r8, lsl #4
 220:	00008904 	andeq	r8, r0, r4, lsl #18
 224:	00000028 	andeq	r0, r0, r8, lsr #32
 228:	83080e42 	movwhi	r0, #36418	; 0x8e42
 22c:	00018e02 	andeq	r8, r1, r2, lsl #28
 230:	0000000c 	andeq	r0, r0, ip
 234:	ffffffff 			; <UNDEFINED> instruction: 0xffffffff
 238:	7c020001 	stcvc	0, cr0, [r2], {1}
 23c:	000d0c0e 	andeq	r0, sp, lr, lsl #24
 240:	00000014 	andeq	r0, r0, r4, lsl r0
 244:	00000230 	andeq	r0, r0, r0, lsr r2
 248:	0000892c 	andeq	r8, r0, ip, lsr #18
 24c:	00000034 	andeq	r0, r0, r4, lsr r0
 250:	83080e42 	movwhi	r0, #36418	; 0x8e42
 254:	00018e02 	andeq	r8, r1, r2, lsl #28
 258:	0000000c 	andeq	r0, r0, ip
 25c:	ffffffff 			; <UNDEFINED> instruction: 0xffffffff
 260:	7c020001 	stcvc	0, cr0, [r2], {1}
 264:	000d0c0e 	andeq	r0, sp, lr, lsl #24
 268:	0000000c 	andeq	r0, r0, ip
 26c:	00000258 	andeq	r0, r0, r8, asr r2
 270:	00008960 	andeq	r8, r0, r0, ror #18
 274:	00000018 	andeq	r0, r0, r8, lsl r0
 278:	0000000c 	andeq	r0, r0, ip
 27c:	00000258 	andeq	r0, r0, r8, asr r2
 280:	00008978 	andeq	r8, r0, r8, ror r9
 284:	00000014 	andeq	r0, r0, r4, lsl r0
 288:	00000014 	andeq	r0, r0, r4, lsl r0
 28c:	00000258 	andeq	r0, r0, r8, asr r2
 290:	0000898c 	andeq	r8, r0, ip, lsl #19
 294:	00000048 	andeq	r0, r0, r8, asr #32
 298:	83080e42 	movwhi	r0, #36418	; 0x8e42
 29c:	00018e02 	andeq	r8, r1, r2, lsl #28
 2a0:	0000000c 	andeq	r0, r0, ip
 2a4:	ffffffff 			; <UNDEFINED> instruction: 0xffffffff
 2a8:	7c020001 	stcvc	0, cr0, [r2], {1}
 2ac:	000d0c0e 	andeq	r0, sp, lr, lsl #24
 2b0:	0000000c 	andeq	r0, r0, ip
 2b4:	000002a0 	andeq	r0, r0, r0, lsr #5
 2b8:	000089d4 	ldrdeq	r8, [r0], -r4
 2bc:	0000001c 	andeq	r0, r0, ip, lsl r0
 2c0:	00000014 	andeq	r0, r0, r4, lsl r0
 2c4:	000002a0 	andeq	r0, r0, r0, lsr #5
 2c8:	000089f0 	strdeq	r8, [r0], -r0
 2cc:	00000014 	andeq	r0, r0, r4, lsl r0
 2d0:	83080e42 	movwhi	r0, #36418	; 0x8e42
 2d4:	00018e02 	andeq	r8, r1, r2, lsl #28
 2d8:	00000014 	andeq	r0, r0, r4, lsl r0
 2dc:	000002a0 	andeq	r0, r0, r0, lsr #5
 2e0:	00008a04 	andeq	r8, r0, r4, lsl #20
 2e4:	0000000c 	andeq	r0, r0, ip
 2e8:	83080e42 	movwhi	r0, #36418	; 0x8e42
 2ec:	00018e02 	andeq	r8, r1, r2, lsl #28
 2f0:	00000018 	andeq	r0, r0, r8, lsl r0
 2f4:	000002a0 	andeq	r0, r0, r0, lsr #5
 2f8:	00008a10 	andeq	r8, r0, r0, lsl sl
 2fc:	00000024 	andeq	r0, r0, r4, lsr #32
 300:	83100e42 	tsthi	r0, #1056	; 0x420
 304:	85038404 	strhi	r8, [r3, #-1028]	; 0x404
 308:	00018e02 	andeq	r8, r1, r2, lsl #28
 30c:	00000014 	andeq	r0, r0, r4, lsl r0
 310:	000002a0 	andeq	r0, r0, r0, lsr #5
 314:	00008a34 	andeq	r8, r0, r4, lsr sl
 318:	00000014 	andeq	r0, r0, r4, lsl r0
 31c:	83080e42 	movwhi	r0, #36418	; 0x8e42
 320:	00018e02 	andeq	r8, r1, r2, lsl #28
 324:	00000014 	andeq	r0, r0, r4, lsl r0
 328:	000002a0 	andeq	r0, r0, r0, lsr #5
 32c:	00008a48 	andeq	r8, r0, r8, asr #20
 330:	00000014 	andeq	r0, r0, r4, lsl r0
 334:	83080e42 	movwhi	r0, #36418	; 0x8e42
 338:	00018e02 	andeq	r8, r1, r2, lsl #28
 33c:	0000000c 	andeq	r0, r0, ip
 340:	ffffffff 			; <UNDEFINED> instruction: 0xffffffff
 344:	7c020001 	stcvc	0, cr0, [r2], {1}
 348:	000d0c0e 	andeq	r0, sp, lr, lsl #24
 34c:	00000018 	andeq	r0, r0, r8, lsl r0
 350:	0000033c 	andeq	r0, r0, ip, lsr r3
 354:	00008a5c 	andeq	r8, r0, ip, asr sl
 358:	000000d4 	ldrdeq	r0, [r0], -r4
 35c:	83100e42 	tsthi	r0, #1056	; 0x420
 360:	85038404 	strhi	r8, [r3, #-1028]	; 0x404
 364:	00018e02 	andeq	r8, r1, r2, lsl #28
 368:	00000014 	andeq	r0, r0, r4, lsl r0
 36c:	0000033c 	andeq	r0, r0, ip, lsr r3
 370:	00008b30 	andeq	r8, r0, r0, lsr fp
 374:	00000038 	andeq	r0, r0, r8, lsr r0
 378:	83080e42 	movwhi	r0, #36418	; 0x8e42
 37c:	00018e02 	andeq	r8, r1, r2, lsl #28
 380:	00000014 	andeq	r0, r0, r4, lsl r0
 384:	0000033c 	andeq	r0, r0, ip, lsr r3
 388:	00008b68 	andeq	r8, r0, r8, ror #22
 38c:	00000038 	andeq	r0, r0, r8, lsr r0
 390:	83080e42 	movwhi	r0, #36418	; 0x8e42
 394:	00018e02 	andeq	r8, r1, r2, lsl #28
 398:	00000018 	andeq	r0, r0, r8, lsl r0
 39c:	0000033c 	andeq	r0, r0, ip, lsr r3
 3a0:	00008ba0 	andeq	r8, r0, r0, lsr #23
 3a4:	000000cc 	andeq	r0, r0, ip, asr #1
 3a8:	83100e42 	tsthi	r0, #1056	; 0x420
 3ac:	85038404 	strhi	r8, [r3, #-1028]	; 0x404
 3b0:	00018e02 	andeq	r8, r1, r2, lsl #28
 3b4:	00000014 	andeq	r0, r0, r4, lsl r0
 3b8:	0000033c 	andeq	r0, r0, ip, lsr r3
 3bc:	00008c6c 	andeq	r8, r0, ip, ror #24
 3c0:	0000004c 	andeq	r0, r0, ip, asr #32
 3c4:	84080e42 	strhi	r0, [r8], #-3650	; 0xe42
 3c8:	00018e02 	andeq	r8, r1, r2, lsl #28
 3cc:	00000014 	andeq	r0, r0, r4, lsl r0
 3d0:	0000033c 	andeq	r0, r0, ip, lsr r3
 3d4:	00008cb8 			; <UNDEFINED> instruction: 0x00008cb8
 3d8:	00000024 	andeq	r0, r0, r4, lsr #32
 3dc:	83080e42 	movwhi	r0, #36418	; 0x8e42
 3e0:	00018e02 	andeq	r8, r1, r2, lsl #28
 3e4:	00000018 	andeq	r0, r0, r8, lsl r0
 3e8:	0000033c 	andeq	r0, r0, ip, lsr r3
 3ec:	00008cdc 	ldrdeq	r8, [r0], -ip
 3f0:	000000d8 	ldrdeq	r0, [r0], -r8
 3f4:	84100e42 	ldrhi	r0, [r0], #-3650	; 0xe42
 3f8:	86038504 	strhi	r8, [r3], -r4, lsl #10
 3fc:	00018e02 	andeq	r8, r1, r2, lsl #28
 400:	00000014 	andeq	r0, r0, r4, lsl r0
 404:	0000033c 	andeq	r0, r0, ip, lsr r3
 408:	00008db4 			; <UNDEFINED> instruction: 0x00008db4
 40c:	00000038 	andeq	r0, r0, r8, lsr r0
 410:	83080e42 	movwhi	r0, #36418	; 0x8e42
 414:	00018e02 	andeq	r8, r1, r2, lsl #28
 418:	00000014 	andeq	r0, r0, r4, lsl r0
 41c:	0000033c 	andeq	r0, r0, ip, lsr r3
 420:	00008dec 	andeq	r8, r0, ip, ror #27
 424:	0000002c 	andeq	r0, r0, ip, lsr #32
 428:	83080e42 	movwhi	r0, #36418	; 0x8e42
 42c:	00018e02 	andeq	r8, r1, r2, lsl #28
 430:	00000018 	andeq	r0, r0, r8, lsl r0
 434:	0000033c 	andeq	r0, r0, ip, lsr r3
 438:	00008e18 	andeq	r8, r0, r8, lsl lr
 43c:	00000084 	andeq	r0, r0, r4, lsl #1
 440:	83100e42 	tsthi	r0, #1056	; 0x420
 444:	85038404 	strhi	r8, [r3, #-1028]	; 0x404
 448:	00018e02 	andeq	r8, r1, r2, lsl #28
 44c:	00000018 	andeq	r0, r0, r8, lsl r0
 450:	0000033c 	andeq	r0, r0, ip, lsr r3
 454:	00008e9c 	muleq	r0, ip, lr
 458:	00000084 	andeq	r0, r0, r4, lsl #1
 45c:	83100e42 	tsthi	r0, #1056	; 0x420
 460:	85038404 	strhi	r8, [r3, #-1028]	; 0x404
 464:	00018e02 	andeq	r8, r1, r2, lsl #28
 468:	00000014 	andeq	r0, r0, r4, lsl r0
 46c:	0000033c 	andeq	r0, r0, ip, lsr r3
 470:	00008f20 	andeq	r8, r0, r0, lsr #30
 474:	00000084 	andeq	r0, r0, r4, lsl #1
 478:	84080e42 	strhi	r0, [r8], #-3650	; 0xe42
 47c:	00018e02 	andeq	r8, r1, r2, lsl #28
 480:	00000014 	andeq	r0, r0, r4, lsl r0
 484:	0000033c 	andeq	r0, r0, ip, lsr r3
 488:	00008fa4 	andeq	r8, r0, r4, lsr #31
 48c:	00000058 	andeq	r0, r0, r8, asr r0
 490:	84080e42 	strhi	r0, [r8], #-3650	; 0xe42
 494:	00018e02 	andeq	r8, r1, r2, lsl #28
 498:	0000000c 	andeq	r0, r0, ip
 49c:	ffffffff 			; <UNDEFINED> instruction: 0xffffffff
 4a0:	7c020001 	stcvc	0, cr0, [r2], {1}
 4a4:	000d0c0e 	andeq	r0, sp, lr, lsl #24
 4a8:	00000018 	andeq	r0, r0, r8, lsl r0
 4ac:	00000498 	muleq	r0, r8, r4
 4b0:	00008ffc 	strdeq	r8, [r0], -ip
 4b4:	0000009c 	muleq	r0, ip, r0
 4b8:	83100e42 	tsthi	r0, #1056	; 0x420
 4bc:	85038404 	strhi	r8, [r3, #-1028]	; 0x404
 4c0:	00018e02 	andeq	r8, r1, r2, lsl #28
 4c4:	00000014 	andeq	r0, r0, r4, lsl r0
 4c8:	00000498 	muleq	r0, r8, r4
 4cc:	00009098 	muleq	r0, r8, r0
 4d0:	0000001c 	andeq	r0, r0, ip, lsl r0
 4d4:	83080e42 	movwhi	r0, #36418	; 0x8e42
 4d8:	00018e02 	andeq	r8, r1, r2, lsl #28
 4dc:	00000014 	andeq	r0, r0, r4, lsl r0
 4e0:	00000498 	muleq	r0, r8, r4
 4e4:	000090b4 	strheq	r9, [r0], -r4
 4e8:	00000028 	andeq	r0, r0, r8, lsr #32
 4ec:	83080e42 	movwhi	r0, #36418	; 0x8e42
 4f0:	00018e02 	andeq	r8, r1, r2, lsl #28
 4f4:	00000014 	andeq	r0, r0, r4, lsl r0
 4f8:	00000498 	muleq	r0, r8, r4
 4fc:	000090dc 	ldrdeq	r9, [r0], -ip
 500:	0000001c 	andeq	r0, r0, ip, lsl r0
 504:	83080e42 	movwhi	r0, #36418	; 0x8e42
 508:	00018e02 	andeq	r8, r1, r2, lsl #28
 50c:	00000014 	andeq	r0, r0, r4, lsl r0
 510:	00000498 	muleq	r0, r8, r4
 514:	000090f8 	strdeq	r9, [r0], -r8
 518:	0000002c 	andeq	r0, r0, ip, lsr #32
 51c:	84080e42 	strhi	r0, [r8], #-3650	; 0xe42
 520:	00018e02 	andeq	r8, r1, r2, lsl #28
 524:	00000014 	andeq	r0, r0, r4, lsl r0
 528:	00000498 	muleq	r0, r8, r4
 52c:	00009124 	andeq	r9, r0, r4, lsr #2
 530:	0000000c 	andeq	r0, r0, ip
 534:	83080e42 	movwhi	r0, #36418	; 0x8e42
 538:	00018e02 	andeq	r8, r1, r2, lsl #28
 53c:	00000014 	andeq	r0, r0, r4, lsl r0
 540:	00000498 	muleq	r0, r8, r4
 544:	00009130 	andeq	r9, r0, r0, lsr r1
 548:	00000020 	andeq	r0, r0, r0, lsr #32
 54c:	83080e42 	movwhi	r0, #36418	; 0x8e42
 550:	00018e02 	andeq	r8, r1, r2, lsl #28
 554:	0000000c 	andeq	r0, r0, ip
 558:	ffffffff 			; <UNDEFINED> instruction: 0xffffffff
 55c:	7c020001 	stcvc	0, cr0, [r2], {1}
 560:	000d0c0e 	andeq	r0, sp, lr, lsl #24
 564:	00000014 	andeq	r0, r0, r4, lsl r0
 568:	00000554 	andeq	r0, r0, r4, asr r5
 56c:	000091b4 			; <UNDEFINED> instruction: 0x000091b4
 570:	00000014 	andeq	r0, r0, r4, lsl r0
 574:	84080e42 	strhi	r0, [r8], #-3650	; 0xe42
 578:	00018e02 	andeq	r8, r1, r2, lsl #28
 57c:	0000000c 	andeq	r0, r0, ip
 580:	00000554 	andeq	r0, r0, r4, asr r5
 584:	000091c8 	andeq	r9, r0, r8, asr #3
 588:	00000018 	andeq	r0, r0, r8, lsl r0
 58c:	0000000c 	andeq	r0, r0, ip
 590:	00000554 	andeq	r0, r0, r4, asr r5
 594:	000091e0 	andeq	r9, r0, r0, ror #3
 598:	00000010 	andeq	r0, r0, r0, lsl r0

Disassembly of section .debug_ranges:

00000000 <.debug_ranges>:
   0:	00000294 	muleq	r0, r4, r2
   4:	00000298 	muleq	r0, r8, r2
   8:	000002c8 	andeq	r0, r0, r8, asr #5
   c:	000004b8 			; <UNDEFINED> instruction: 0x000004b8
	...
  18:	00008960 	andeq	r8, r0, r0, ror #18
  1c:	000089d4 	ldrdeq	r8, [r0], -r4
	...
