
sonar.elf:     file format elf32-littlearm


Disassembly of section .text:

00008000 <_start>:
    8000:	e3a0d302 	mov	sp, #134217728	; 0x8000000
    8004:	e3a0b000 	mov	fp, #0
    8008:	eb000209 	bl	8834 <_cstart>
    800c:	eb000220 	bl	8894 <rpi_reboot>

00008010 <notmain>:
    8010:	e92d40f0 	push	{r4, r5, r6, r7, lr}
    8014:	e24dd00c 	sub	sp, sp, #12
    8018:	eb0003b9 	bl	8f04 <uart_init>
    801c:	e59f0068 	ldr	r0, [pc, #104]	; 808c <notmain+0x7c>
    8020:	eb000098 	bl	8288 <printk>
    8024:	e1a0000d 	mov	r0, sp
    8028:	e3a01014 	mov	r1, #20
    802c:	e3a02015 	mov	r2, #21
    8030:	eb000075 	bl	820c <hc_sr04_init>
    8034:	e59f0054 	ldr	r0, [pc, #84]	; 8090 <notmain+0x80>
    8038:	eb000092 	bl	8288 <printk>
    803c:	e3a05000 	mov	r5, #0
    8040:	e59f404c 	ldr	r4, [pc, #76]	; 8094 <notmain+0x84>
    8044:	e59f704c 	ldr	r7, [pc, #76]	; 8098 <notmain+0x88>
    8048:	e3a06ffa 	mov	r6, #1000	; 0x3e8
    804c:	ea000009 	b	8078 <notmain+0x68>
    8050:	e1a0000d 	mov	r0, sp
    8054:	e1a01004 	mov	r1, r4
    8058:	eb000078 	bl	8240 <hc_sr04_get_distance>
    805c:	e2501000 	subs	r1, r0, #0
    8060:	bafffffa 	blt	8050 <notmain+0x40>
    8064:	e1a00007 	mov	r0, r7
    8068:	eb000086 	bl	8288 <printk>
    806c:	e1a00006 	mov	r0, r6
    8070:	eb000231 	bl	893c <delay_ms>
    8074:	e2855001 	add	r5, r5, #1
    8078:	e3550009 	cmp	r5, #9
    807c:	dafffff3 	ble	8050 <notmain+0x40>
    8080:	e59f0014 	ldr	r0, [pc, #20]	; 809c <notmain+0x8c>
    8084:	eb00007f 	bl	8288 <printk>
    8088:	eb0001df 	bl	880c <clean_reboot>
    808c:	000091a0 	andeq	r9, r0, r0, lsr #3
    8090:	000091b4 			; <UNDEFINED> instruction: 0x000091b4
    8094:	0000d6d8 	ldrdeq	sp, [r0], -r8
    8098:	000091c4 	andeq	r9, r0, r4, asr #3
    809c:	000091dc 	ldrdeq	r9, [r0], -ip

000080a0 <gpio_set_pullup>:
    80a0:	e92d4038 	push	{r3, r4, r5, lr}
    80a4:	e1a05000 	mov	r5, r0
    80a8:	eb0003ea 	bl	9058 <dev_barrier>
    80ac:	e59f3074 	ldr	r3, [pc, #116]	; 8128 <gpio_set_pullup+0x88>
    80b0:	e5930000 	ldr	r0, [r3]
    80b4:	e3a01002 	mov	r1, #2
    80b8:	eb0003ec 	bl	9070 <put32>
    80bc:	e3a00096 	mov	r0, #150	; 0x96
    80c0:	eb000214 	bl	8918 <delay_us>
    80c4:	e355001f 	cmp	r5, #31
    80c8:	959f3058 	ldrls	r3, [pc, #88]	; 8128 <gpio_set_pullup+0x88>
    80cc:	95934004 	ldrls	r4, [r3, #4]
    80d0:	859f3050 	ldrhi	r3, [pc, #80]	; 8128 <gpio_set_pullup+0x88>
    80d4:	85934008 	ldrhi	r4, [r3, #8]
    80d8:	e205501f 	and	r5, r5, #31
    80dc:	e1a00004 	mov	r0, r4
    80e0:	e3a01001 	mov	r1, #1
    80e4:	e1a01511 	lsl	r1, r1, r5
    80e8:	eb0003e0 	bl	9070 <put32>
    80ec:	e3a00096 	mov	r0, #150	; 0x96
    80f0:	eb000208 	bl	8918 <delay_us>
    80f4:	e59f302c 	ldr	r3, [pc, #44]	; 8128 <gpio_set_pullup+0x88>
    80f8:	e5930000 	ldr	r0, [r3]
    80fc:	e3a01000 	mov	r1, #0
    8100:	eb0003da 	bl	9070 <put32>
    8104:	e3a00096 	mov	r0, #150	; 0x96
    8108:	eb000202 	bl	8918 <delay_us>
    810c:	e1a00004 	mov	r0, r4
    8110:	e3a01000 	mov	r1, #0
    8114:	eb0003d5 	bl	9070 <put32>
    8118:	e3a00096 	mov	r0, #150	; 0x96
    811c:	eb0001fd 	bl	8918 <delay_us>
    8120:	eb0003cc 	bl	9058 <dev_barrier>
    8124:	e8bd8038 	pop	{r3, r4, r5, pc}
    8128:	000090f8 	strdeq	r9, [r0], -r8

0000812c <gpio_set_pulldown>:
    812c:	e92d4038 	push	{r3, r4, r5, lr}
    8130:	e1a05000 	mov	r5, r0
    8134:	eb0003c7 	bl	9058 <dev_barrier>
    8138:	e59f3074 	ldr	r3, [pc, #116]	; 81b4 <gpio_set_pulldown+0x88>
    813c:	e5930000 	ldr	r0, [r3]
    8140:	e3a01001 	mov	r1, #1
    8144:	eb0003c9 	bl	9070 <put32>
    8148:	e3a00096 	mov	r0, #150	; 0x96
    814c:	eb0001f1 	bl	8918 <delay_us>
    8150:	e355001f 	cmp	r5, #31
    8154:	959f3058 	ldrls	r3, [pc, #88]	; 81b4 <gpio_set_pulldown+0x88>
    8158:	95934004 	ldrls	r4, [r3, #4]
    815c:	859f3050 	ldrhi	r3, [pc, #80]	; 81b4 <gpio_set_pulldown+0x88>
    8160:	85934008 	ldrhi	r4, [r3, #8]
    8164:	e205501f 	and	r5, r5, #31
    8168:	e1a00004 	mov	r0, r4
    816c:	e3a01001 	mov	r1, #1
    8170:	e1a01511 	lsl	r1, r1, r5
    8174:	eb0003bd 	bl	9070 <put32>
    8178:	e3a00096 	mov	r0, #150	; 0x96
    817c:	eb0001e5 	bl	8918 <delay_us>
    8180:	e59f302c 	ldr	r3, [pc, #44]	; 81b4 <gpio_set_pulldown+0x88>
    8184:	e5930000 	ldr	r0, [r3]
    8188:	e3a01000 	mov	r1, #0
    818c:	eb0003b7 	bl	9070 <put32>
    8190:	e3a00096 	mov	r0, #150	; 0x96
    8194:	eb0001df 	bl	8918 <delay_us>
    8198:	e1a00004 	mov	r0, r4
    819c:	e3a01000 	mov	r1, #0
    81a0:	eb0003b2 	bl	9070 <put32>
    81a4:	e3a00096 	mov	r0, #150	; 0x96
    81a8:	eb0001da 	bl	8918 <delay_us>
    81ac:	eb0003a9 	bl	9058 <dev_barrier>
    81b0:	e8bd8038 	pop	{r3, r4, r5, pc}
    81b4:	000090f8 	strdeq	r9, [r0], -r8

000081b8 <read_while_eq>:
    81b8:	e92d41f0 	push	{r4, r5, r6, r7, r8, lr}
    81bc:	e1a04000 	mov	r4, r0
    81c0:	e1a06001 	mov	r6, r1
    81c4:	e1a07002 	mov	r7, r2
    81c8:	eb0001cf 	bl	890c <timer_get_usec>
    81cc:	e1a08000 	mov	r8, r0
    81d0:	e3a05000 	mov	r5, #0
    81d4:	e0807007 	add	r7, r0, r7
    81d8:	ea000003 	b	81ec <read_while_eq+0x34>
    81dc:	eb0001ca 	bl	890c <timer_get_usec>
    81e0:	e1a05000 	mov	r5, r0
    81e4:	e1570000 	cmp	r7, r0
    81e8:	3a000005 	bcc	8204 <read_while_eq+0x4c>
    81ec:	e1a00004 	mov	r0, r4
    81f0:	eb00025f 	bl	8b74 <gpio_read>
    81f4:	e1560450 	cmp	r6, r0, asr r4
    81f8:	0afffff7 	beq	81dc <read_while_eq+0x24>
    81fc:	e0680005 	rsb	r0, r8, r5
    8200:	e8bd81f0 	pop	{r4, r5, r6, r7, r8, pc}
    8204:	e3a00000 	mov	r0, #0
    8208:	e8bd81f0 	pop	{r4, r5, r6, r7, r8, pc}

0000820c <hc_sr04_init>:
    820c:	e92d4038 	push	{r3, r4, r5, lr}
    8210:	e1a04000 	mov	r4, r0
    8214:	e1a05002 	mov	r5, r2
    8218:	e5801000 	str	r1, [r0]
    821c:	e5842004 	str	r2, [r4, #4]
    8220:	e1a00001 	mov	r0, r1
    8224:	eb0001ce 	bl	8964 <gpio_set_output>
    8228:	e1a00005 	mov	r0, r5
    822c:	eb00021d 	bl	8aa8 <gpio_set_input>
    8230:	e1a00005 	mov	r0, r5
    8234:	ebffffbc 	bl	812c <gpio_set_pulldown>
    8238:	e1a00004 	mov	r0, r4
    823c:	e8bd8038 	pop	{r3, r4, r5, pc}

00008240 <hc_sr04_get_distance>:
    8240:	e92d4010 	push	{r4, lr}
    8244:	e1a04000 	mov	r4, r0
    8248:	e5900000 	ldr	r0, [r0]
    824c:	eb0001f9 	bl	8a38 <gpio_set_on>
    8250:	e3a0000a 	mov	r0, #10
    8254:	eb0001af 	bl	8918 <delay_us>
    8258:	e5940000 	ldr	r0, [r4]
    825c:	eb000203 	bl	8a70 <gpio_set_off>
    8260:	e5940004 	ldr	r0, [r4, #4]
    8264:	e3a01000 	mov	r1, #0
    8268:	e3a020c8 	mov	r2, #200	; 0xc8
    826c:	ebffffd1 	bl	81b8 <read_while_eq>
    8270:	e5940004 	ldr	r0, [r4, #4]
    8274:	e3a01001 	mov	r1, #1
    8278:	e59f2004 	ldr	r2, [pc, #4]	; 8284 <hc_sr04_get_distance+0x44>
    827c:	ebffffcd 	bl	81b8 <read_while_eq>
    8280:	e8bd8010 	pop	{r4, pc}
    8284:	0000d6d8 	ldrdeq	sp, [r0], -r8

00008288 <printk>:
    8288:	e92d000f 	push	{r0, r1, r2, r3}
    828c:	e92d4030 	push	{r4, r5, lr}
    8290:	e24dd00c 	sub	sp, sp, #12
    8294:	e28d301c 	add	r3, sp, #28
    8298:	e58d3004 	str	r3, [sp, #4]
    829c:	e59f4034 	ldr	r4, [pc, #52]	; 82d8 <printk+0x50>
    82a0:	e1a00004 	mov	r0, r4
    82a4:	e3a01b01 	mov	r1, #1024	; 0x400
    82a8:	e59d2018 	ldr	r2, [sp, #24]
    82ac:	eb0000b4 	bl	8584 <va_printk>
    82b0:	e1a05000 	mov	r5, r0
    82b4:	e59f3020 	ldr	r3, [pc, #32]	; 82dc <printk+0x54>
    82b8:	e5933000 	ldr	r3, [r3]
    82bc:	e1a00004 	mov	r0, r4
    82c0:	e12fff33 	blx	r3
    82c4:	e1a00005 	mov	r0, r5
    82c8:	e28dd00c 	add	sp, sp, #12
    82cc:	e8bd4030 	pop	{r4, r5, lr}
    82d0:	e28dd010 	add	sp, sp, #16
    82d4:	e12fff1e 	bx	lr
    82d8:	00009300 	andeq	r9, r0, r0, lsl #6
    82dc:	00009104 	andeq	r9, r0, r4, lsl #2

000082e0 <internal_putk>:
    82e0:	e92d4038 	push	{r3, r4, r5, lr}
    82e4:	e1a04000 	mov	r4, r0
    82e8:	e59f5020 	ldr	r5, [pc, #32]	; 8310 <internal_putk+0x30>
    82ec:	ea000002 	b	82fc <internal_putk+0x1c>
    82f0:	e5953000 	ldr	r3, [r5]
    82f4:	e12fff33 	blx	r3
    82f8:	e2844001 	add	r4, r4, #1
    82fc:	e5d40000 	ldrb	r0, [r4]
    8300:	e3500000 	cmp	r0, #0
    8304:	1afffff9 	bne	82f0 <internal_putk+0x10>
    8308:	e3a00001 	mov	r0, #1
    830c:	e8bd8038 	pop	{r3, r4, r5, pc}
    8310:	0000919c 	muleq	r0, ip, r1

00008314 <isdigit>:
    8314:	e2400030 	sub	r0, r0, #48	; 0x30
    8318:	e3500009 	cmp	r0, #9
    831c:	83a00000 	movhi	r0, #0
    8320:	93a00001 	movls	r0, #1
    8324:	e12fff1e 	bx	lr

00008328 <pad>:
    8328:	e0611000 	rsb	r1, r1, r0
    832c:	e3a03020 	mov	r3, #32
    8330:	ea000002 	b	8340 <pad+0x18>
    8334:	e5c03000 	strb	r3, [r0]
    8338:	e2811001 	add	r1, r1, #1
    833c:	e2800001 	add	r0, r0, #1
    8340:	e1510002 	cmp	r1, r2
    8344:	bafffffa 	blt	8334 <pad+0xc>
    8348:	e3a03000 	mov	r3, #0
    834c:	e5c03000 	strb	r3, [r0]
    8350:	e12fff1e 	bx	lr

00008354 <reverse>:
    8354:	e063c002 	rsb	ip, r3, r2
    8358:	e28cc001 	add	ip, ip, #1
    835c:	e15c0001 	cmp	ip, r1
    8360:	c061100c 	rsbgt	r1, r1, ip
    8364:	c0833001 	addgt	r3, r3, r1
    8368:	e2422001 	sub	r2, r2, #1
    836c:	e1a01000 	mov	r1, r0
    8370:	ea000002 	b	8380 <reverse+0x2c>
    8374:	e452c001 	ldrb	ip, [r2], #-1
    8378:	e5c1c000 	strb	ip, [r1]
    837c:	e2811001 	add	r1, r1, #1
    8380:	e1520003 	cmp	r2, r3
    8384:	2afffffa 	bcs	8374 <reverse+0x20>
    8388:	e3a03000 	mov	r3, #0
    838c:	e5c13000 	strb	r3, [r1]
    8390:	e12fff1e 	bx	lr

00008394 <emit>:
    8394:	e92d41f0 	push	{r4, r5, r6, r7, r8, lr}
    8398:	e24dd040 	sub	sp, sp, #64	; 0x40
    839c:	e1a05001 	mov	r5, r1
    83a0:	e1a04002 	mov	r4, r2
    83a4:	e59d2058 	ldr	r2, [sp, #88]	; 0x58
    83a8:	e1520004 	cmp	r2, r4
    83ac:	c2442001 	subgt	r2, r4, #1
    83b0:	e1a0c003 	mov	ip, r3
    83b4:	e2400002 	sub	r0, r0, #2
    83b8:	e350000e 	cmp	r0, #14
    83bc:	979ff100 	ldrls	pc, [pc, r0, lsl #2]
    83c0:	ea000042 	b	84d0 <emit+0x13c>
    83c4:	000084a8 	andeq	r8, r0, r8, lsr #9
    83c8:	000084d0 	ldrdeq	r8, [r0], -r0
    83cc:	000084d0 	ldrdeq	r8, [r0], -r0
    83d0:	000084d0 	ldrdeq	r8, [r0], -r0
    83d4:	000084d0 	ldrdeq	r8, [r0], -r0
    83d8:	000084d0 	ldrdeq	r8, [r0], -r0
    83dc:	0000849c 	muleq	r0, ip, r4
    83e0:	000084d0 	ldrdeq	r8, [r0], -r0
    83e4:	00008400 	andeq	r8, r0, r0, lsl #8
    83e8:	000084d0 	ldrdeq	r8, [r0], -r0
    83ec:	000084d0 	ldrdeq	r8, [r0], -r0
    83f0:	000084d0 	ldrdeq	r8, [r0], -r0
    83f4:	000084d0 	ldrdeq	r8, [r0], -r0
    83f8:	000084d0 	ldrdeq	r8, [r0], -r0
    83fc:	00008474 	andeq	r8, r0, r4, ror r4
    8400:	e59d105c 	ldr	r1, [sp, #92]	; 0x5c
    8404:	e2911000 	adds	r1, r1, #0
    8408:	13a01001 	movne	r1, #1
    840c:	e0111fa3 	ands	r1, r1, r3, lsr #31
    8410:	1263c000 	rsbne	ip, r3, #0
    8414:	13a08001 	movne	r8, #1
    8418:	03a08000 	moveq	r8, #0
    841c:	e1a0100d 	mov	r1, sp
    8420:	e59f70ec 	ldr	r7, [pc, #236]	; 8514 <emit+0x180>
    8424:	e59f60ec 	ldr	r6, [pc, #236]	; 8518 <emit+0x184>
    8428:	ea000000 	b	8430 <emit+0x9c>
    842c:	e1a01003 	mov	r1, r3
    8430:	e2813001 	add	r3, r1, #1
    8434:	e08e0c97 	umull	r0, lr, r7, ip
    8438:	e1a0e1ae 	lsr	lr, lr, #3
    843c:	e1a0000e 	mov	r0, lr
    8440:	e08ee10e 	add	lr, lr, lr, lsl #2
    8444:	e1a0e08e 	lsl	lr, lr, #1
    8448:	e06ee00c 	rsb	lr, lr, ip
    844c:	e7d6c00e 	ldrb	ip, [r6, lr]
    8450:	e5c1c000 	strb	ip, [r1]
    8454:	e1a0c000 	mov	ip, r0
    8458:	e3500000 	cmp	r0, #0
    845c:	1afffff2 	bne	842c <emit+0x98>
    8460:	e3580000 	cmp	r8, #0
    8464:	12813002 	addne	r3, r1, #2
    8468:	13a0002d 	movne	r0, #45	; 0x2d
    846c:	15c10001 	strbne	r0, [r1, #1]
    8470:	ea00001d 	b	84ec <emit+0x158>
    8474:	e1a0e00d 	mov	lr, sp
    8478:	e59f009c 	ldr	r0, [pc, #156]	; 851c <emit+0x188>
    847c:	e28e3001 	add	r3, lr, #1
    8480:	e20c100f 	and	r1, ip, #15
    8484:	e7d01001 	ldrb	r1, [r0, r1]
    8488:	e5ce1000 	strb	r1, [lr]
    848c:	e1a0e003 	mov	lr, r3
    8490:	e1b0c22c 	lsrs	ip, ip, #4
    8494:	1afffff8 	bne	847c <emit+0xe8>
    8498:	ea000013 	b	84ec <emit+0x158>
    849c:	e5cd3000 	strb	r3, [sp]
    84a0:	e28d3001 	add	r3, sp, #1
    84a4:	ea000010 	b	84ec <emit+0x158>
    84a8:	e1a0e00d 	mov	lr, sp
    84ac:	e59f006c 	ldr	r0, [pc, #108]	; 8520 <emit+0x18c>
    84b0:	e28e3001 	add	r3, lr, #1
    84b4:	e20c1001 	and	r1, ip, #1
    84b8:	e7d01001 	ldrb	r1, [r0, r1]
    84bc:	e5ce1000 	strb	r1, [lr]
    84c0:	e1a0e003 	mov	lr, r3
    84c4:	e1b0c0ac 	lsrs	ip, ip, #1
    84c8:	1afffff8 	bne	84b0 <emit+0x11c>
    84cc:	ea000006 	b	84ec <emit+0x158>
    84d0:	eb0002fe 	bl	90d0 <rpi_reset_putc>
    84d4:	e59f0048 	ldr	r0, [pc, #72]	; 8524 <emit+0x190>
    84d8:	e59f1048 	ldr	r1, [pc, #72]	; 8528 <emit+0x194>
    84dc:	e59f2048 	ldr	r2, [pc, #72]	; 852c <emit+0x198>
    84e0:	e3a03075 	mov	r3, #117	; 0x75
    84e4:	ebffff67 	bl	8288 <printk>
    84e8:	eb0000c7 	bl	880c <clean_reboot>
    84ec:	e1a00003 	mov	r0, r3
    84f0:	e1a0100d 	mov	r1, sp
    84f4:	ebffff8b 	bl	8328 <pad>
    84f8:	e1a02000 	mov	r2, r0
    84fc:	e1a00005 	mov	r0, r5
    8500:	e1a01004 	mov	r1, r4
    8504:	e1a0300d 	mov	r3, sp
    8508:	ebffff91 	bl	8354 <reverse>
    850c:	e28dd040 	add	sp, sp, #64	; 0x40
    8510:	e8bd81f0 	pop	{r4, r5, r6, r7, r8, pc}
    8514:	cccccccd 	stclgt	12, cr12, [ip], {205}	; 0xcd
    8518:	0000923c 	andeq	r9, r0, ip, lsr r2
    851c:	00009248 	andeq	r9, r0, r8, asr #4
    8520:	0000925c 	andeq	r9, r0, ip, asr r2
    8524:	00009214 	andeq	r9, r0, r4, lsl r2
    8528:	00009228 	andeq	r9, r0, r8, lsr #4
    852c:	000091f0 	strdeq	r9, [r0], -r0

00008530 <rpi_set_output>:
    8530:	e92d4008 	push	{r3, lr}
    8534:	e3500000 	cmp	r0, #0
    8538:	1a000006 	bne	8558 <rpi_set_output+0x28>
    853c:	eb0002e3 	bl	90d0 <rpi_reset_putc>
    8540:	e59f0028 	ldr	r0, [pc, #40]	; 8570 <rpi_set_output+0x40>
    8544:	e59f1028 	ldr	r1, [pc, #40]	; 8574 <rpi_set_output+0x44>
    8548:	e59f2028 	ldr	r2, [pc, #40]	; 8578 <rpi_set_output+0x48>
    854c:	e3a03020 	mov	r3, #32
    8550:	ebffff4c 	bl	8288 <printk>
    8554:	eb0000ac 	bl	880c <clean_reboot>
    8558:	e59f301c 	ldr	r3, [pc, #28]	; 857c <rpi_set_output+0x4c>
    855c:	e5830000 	str	r0, [r3]
    8560:	e3510000 	cmp	r1, #0
    8564:	159f3014 	ldrne	r3, [pc, #20]	; 8580 <rpi_set_output+0x50>
    8568:	15831000 	strne	r1, [r3]
    856c:	e8bd8008 	pop	{r3, pc}
    8570:	00009260 	andeq	r9, r0, r0, ror #4
    8574:	00009228 	andeq	r9, r0, r8, lsr #4
    8578:	000091f8 	strdeq	r9, [r0], -r8
    857c:	0000919c 	muleq	r0, ip, r1
    8580:	00009104 	andeq	r9, r0, r4, lsl #2

00008584 <va_printk>:
    8584:	e92d4ff0 	push	{r4, r5, r6, r7, r8, r9, sl, fp, lr}
    8588:	e24dd08c 	sub	sp, sp, #140	; 0x8c
    858c:	e1a0a000 	mov	sl, r0
    8590:	e1a09003 	mov	r9, r3
    8594:	e2411001 	sub	r1, r1, #1
    8598:	e0808001 	add	r8, r0, r1
    859c:	e3a03000 	mov	r3, #0
    85a0:	e5c03000 	strb	r3, [r0]
    85a4:	e1a04000 	mov	r4, r0
    85a8:	e1a0b003 	mov	fp, r3
    85ac:	ea000086 	b	87cc <va_printk+0x248>
    85b0:	e3530025 	cmp	r3, #37	; 0x25
    85b4:	12822001 	addne	r2, r2, #1
    85b8:	15c43000 	strbne	r3, [r4]
    85bc:	12844001 	addne	r4, r4, #1
    85c0:	1a000081 	bne	87cc <va_printk+0x248>
    85c4:	e5d21001 	ldrb	r1, [r2, #1]
    85c8:	e3510025 	cmp	r1, #37	; 0x25
    85cc:	05c43000 	strbeq	r3, [r4]
    85d0:	02822002 	addeq	r2, r2, #2
    85d4:	02844001 	addeq	r4, r4, #1
    85d8:	0a00007b 	beq	87cc <va_printk+0x248>
    85dc:	e2826001 	add	r6, r2, #1
    85e0:	e1a0700b 	mov	r7, fp
    85e4:	ea000004 	b	85fc <va_printk+0x78>
    85e8:	e0877107 	add	r7, r7, r7, lsl #2
    85ec:	e1a07087 	lsl	r7, r7, #1
    85f0:	e0877005 	add	r7, r7, r5
    85f4:	e2477030 	sub	r7, r7, #48	; 0x30
    85f8:	e2866001 	add	r6, r6, #1
    85fc:	e5d65000 	ldrb	r5, [r6]
    8600:	e1a00005 	mov	r0, r5
    8604:	ebffff42 	bl	8314 <isdigit>
    8608:	e3500000 	cmp	r0, #0
    860c:	1afffff5 	bne	85e8 <va_printk+0x64>
    8610:	e357001f 	cmp	r7, #31
    8614:	9a000006 	bls	8634 <va_printk+0xb0>
    8618:	eb0002ac 	bl	90d0 <rpi_reset_putc>
    861c:	e59f01d4 	ldr	r0, [pc, #468]	; 87f8 <va_printk+0x274>
    8620:	e59f11d4 	ldr	r1, [pc, #468]	; 87fc <va_printk+0x278>
    8624:	e59f21d4 	ldr	r2, [pc, #468]	; 8800 <va_printk+0x27c>
    8628:	e3a03092 	mov	r3, #146	; 0x92
    862c:	ebffff15 	bl	8288 <printk>
    8630:	eb000075 	bl	880c <clean_reboot>
    8634:	e2455062 	sub	r5, r5, #98	; 0x62
    8638:	e3550016 	cmp	r5, #22
    863c:	979ff105 	ldrls	pc, [pc, r5, lsl #2]
    8640:	ea00004e 	b	8780 <va_printk+0x1fc>
    8644:	0000872c 	andeq	r8, r0, ip, lsr #14
    8648:	0000875c 	andeq	r8, r0, ip, asr r7
    864c:	000086bc 			; <UNDEFINED> instruction: 0x000086bc
    8650:	00008780 	andeq	r8, r0, r0, lsl #15
    8654:	000086a0 	andeq	r8, r0, r0, lsr #13
    8658:	00008780 	andeq	r8, r0, r0, lsl #15
    865c:	00008780 	andeq	r8, r0, r0, lsl #15
    8660:	00008780 	andeq	r8, r0, r0, lsl #15
    8664:	00008780 	andeq	r8, r0, r0, lsl #15
    8668:	00008780 	andeq	r8, r0, r0, lsl #15
    866c:	00008780 	andeq	r8, r0, r0, lsl #15
    8670:	00008780 	andeq	r8, r0, r0, lsl #15
    8674:	00008780 	andeq	r8, r0, r0, lsl #15
    8678:	00008780 	andeq	r8, r0, r0, lsl #15
    867c:	00008708 	andeq	r8, r0, r8, lsl #14
    8680:	00008780 	andeq	r8, r0, r0, lsl #15
    8684:	00008780 	andeq	r8, r0, r0, lsl #15
    8688:	00008750 	andeq	r8, r0, r0, asr r7
    868c:	00008780 	andeq	r8, r0, r0, lsl #15
    8690:	000086e4 	andeq	r8, r0, r4, ror #13
    8694:	00008780 	andeq	r8, r0, r0, lsl #15
    8698:	00008780 	andeq	r8, r0, r0, lsl #15
    869c:	00008708 	andeq	r8, r0, r8, lsl #14
    86a0:	eb00028a 	bl	90d0 <rpi_reset_putc>
    86a4:	e59f0158 	ldr	r0, [pc, #344]	; 8804 <va_printk+0x280>
    86a8:	e59f114c 	ldr	r1, [pc, #332]	; 87fc <va_printk+0x278>
    86ac:	e59f214c 	ldr	r2, [pc, #332]	; 8800 <va_printk+0x27c>
    86b0:	e3a03098 	mov	r3, #152	; 0x98
    86b4:	ebfffef3 	bl	8288 <printk>
    86b8:	eb000053 	bl	880c <clean_reboot>
    86bc:	e5993000 	ldr	r3, [r9]
    86c0:	e2899004 	add	r9, r9, #4
    86c4:	e58d7000 	str	r7, [sp]
    86c8:	e3a02001 	mov	r2, #1
    86cc:	e58d2004 	str	r2, [sp, #4]
    86d0:	e3a0000a 	mov	r0, #10
    86d4:	e28d1008 	add	r1, sp, #8
    86d8:	e3a02080 	mov	r2, #128	; 0x80
    86dc:	ebffff2c 	bl	8394 <emit>
    86e0:	ea00002f 	b	87a4 <va_printk+0x220>
    86e4:	e5993000 	ldr	r3, [r9]
    86e8:	e2899004 	add	r9, r9, #4
    86ec:	e58d7000 	str	r7, [sp]
    86f0:	e58db004 	str	fp, [sp, #4]
    86f4:	e3a0000a 	mov	r0, #10
    86f8:	e28d1008 	add	r1, sp, #8
    86fc:	e3a02080 	mov	r2, #128	; 0x80
    8700:	ebffff23 	bl	8394 <emit>
    8704:	ea000026 	b	87a4 <va_printk+0x220>
    8708:	e5993000 	ldr	r3, [r9]
    870c:	e2899004 	add	r9, r9, #4
    8710:	e58d7000 	str	r7, [sp]
    8714:	e58db004 	str	fp, [sp, #4]
    8718:	e3a00010 	mov	r0, #16
    871c:	e28d1008 	add	r1, sp, #8
    8720:	e3a02080 	mov	r2, #128	; 0x80
    8724:	ebffff1a 	bl	8394 <emit>
    8728:	ea00001d 	b	87a4 <va_printk+0x220>
    872c:	e5993000 	ldr	r3, [r9]
    8730:	e2899004 	add	r9, r9, #4
    8734:	e58d7000 	str	r7, [sp]
    8738:	e58db004 	str	fp, [sp, #4]
    873c:	e3a00002 	mov	r0, #2
    8740:	e28d1008 	add	r1, sp, #8
    8744:	e3a02080 	mov	r2, #128	; 0x80
    8748:	ebffff11 	bl	8394 <emit>
    874c:	ea000014 	b	87a4 <va_printk+0x220>
    8750:	e5990000 	ldr	r0, [r9]
    8754:	e2899004 	add	r9, r9, #4
    8758:	ea000011 	b	87a4 <va_printk+0x220>
    875c:	e5993000 	ldr	r3, [r9]
    8760:	e2899004 	add	r9, r9, #4
    8764:	e58d7000 	str	r7, [sp]
    8768:	e58db004 	str	fp, [sp, #4]
    876c:	e3a00008 	mov	r0, #8
    8770:	e08d1000 	add	r1, sp, r0
    8774:	e3a02080 	mov	r2, #128	; 0x80
    8778:	ebffff05 	bl	8394 <emit>
    877c:	ea000008 	b	87a4 <va_printk+0x220>
    8780:	eb000252 	bl	90d0 <rpi_reset_putc>
    8784:	e5d63000 	ldrb	r3, [r6]
    8788:	e58d3000 	str	r3, [sp]
    878c:	e59f0074 	ldr	r0, [pc, #116]	; 8808 <va_printk+0x284>
    8790:	e59f1064 	ldr	r1, [pc, #100]	; 87fc <va_printk+0x278>
    8794:	e59f2064 	ldr	r2, [pc, #100]	; 8800 <va_printk+0x27c>
    8798:	e3a030b9 	mov	r3, #185	; 0xb9
    879c:	ebfffeb9 	bl	8288 <printk>
    87a0:	eb000019 	bl	880c <clean_reboot>
    87a4:	e2862001 	add	r2, r6, #1
    87a8:	ea000002 	b	87b8 <va_printk+0x234>
    87ac:	e2800001 	add	r0, r0, #1
    87b0:	e5c43000 	strb	r3, [r4]
    87b4:	e2844001 	add	r4, r4, #1
    87b8:	e1540008 	cmp	r4, r8
    87bc:	2a000002 	bcs	87cc <va_printk+0x248>
    87c0:	e5d03000 	ldrb	r3, [r0]
    87c4:	e3530000 	cmp	r3, #0
    87c8:	1afffff7 	bne	87ac <va_printk+0x228>
    87cc:	e5d23000 	ldrb	r3, [r2]
    87d0:	e3530000 	cmp	r3, #0
    87d4:	0a000001 	beq	87e0 <va_printk+0x25c>
    87d8:	e1540008 	cmp	r4, r8
    87dc:	3affff73 	bcc	85b0 <va_printk+0x2c>
    87e0:	e2840001 	add	r0, r4, #1
    87e4:	e3a03000 	mov	r3, #0
    87e8:	e5c43000 	strb	r3, [r4]
    87ec:	e06a0000 	rsb	r0, sl, r0
    87f0:	e28dd08c 	add	sp, sp, #140	; 0x8c
    87f4:	e8bd8ff0 	pop	{r4, r5, r6, r7, r8, r9, sl, fp, pc}
    87f8:	00009278 	andeq	r9, r0, r8, ror r2
    87fc:	00009228 	andeq	r9, r0, r8, lsr #4
    8800:	00009208 	andeq	r9, r0, r8, lsl #4
    8804:	00009294 	muleq	r0, r4, r2
    8808:	000092bc 			; <UNDEFINED> instruction: 0x000092bc

0000880c <clean_reboot>:
    880c:	e92d4008 	push	{r3, lr}
    8810:	e59f3014 	ldr	r3, [pc, #20]	; 882c <clean_reboot+0x20>
    8814:	e5933000 	ldr	r3, [r3]
    8818:	e59f0010 	ldr	r0, [pc, #16]	; 8830 <clean_reboot+0x24>
    881c:	e12fff33 	blx	r3
    8820:	e3a00064 	mov	r0, #100	; 0x64
    8824:	eb000044 	bl	893c <delay_ms>
    8828:	eb000019 	bl	8894 <rpi_reboot>
    882c:	00009104 	andeq	r9, r0, r4, lsl #2
    8830:	000092f4 	strdeq	r9, [r0], -r4

00008834 <_cstart>:
    8834:	e92d4008 	push	{r3, lr}
    8838:	e59f3020 	ldr	r3, [pc, #32]	; 8860 <_cstart+0x2c>
    883c:	e59f2020 	ldr	r2, [pc, #32]	; 8864 <_cstart+0x30>
    8840:	e3a01000 	mov	r1, #0
    8844:	ea000001 	b	8850 <_cstart+0x1c>
    8848:	e5831000 	str	r1, [r3]
    884c:	e2833004 	add	r3, r3, #4
    8850:	e1530002 	cmp	r3, r2
    8854:	3afffffb 	bcc	8848 <_cstart+0x14>
    8858:	ebfffdec 	bl	8010 <notmain>
    885c:	eb00000c 	bl	8894 <rpi_reboot>
    8860:	00009300 	andeq	r9, r0, r0, lsl #6
    8864:	00009700 	andeq	r9, r0, r0, lsl #14

00008868 <at_user_level>:
    8868:	e10f0000 	mrs	r0, CPSR
    886c:	e200001f 	and	r0, r0, #31
    8870:	e3500010 	cmp	r0, #16
    8874:	13a00000 	movne	r0, #0
    8878:	03a00001 	moveq	r0, #1
    887c:	e12fff1e 	bx	lr

00008880 <set_user_level>:
    8880:	e10f3000 	mrs	r3, CPSR
    8884:	e3c3301f 	bic	r3, r3, #31
    8888:	e3833010 	orr	r3, r3, #16
    888c:	e129f003 	msr	CPSR_fc, r3
    8890:	e12fff1e 	bx	lr

00008894 <rpi_reboot>:
    8894:	e92d4008 	push	{r3, lr}
    8898:	ebfffff2 	bl	8868 <at_user_level>
    889c:	e3500000 	cmp	r0, #0
    88a0:	0a000000 	beq	88a8 <rpi_reboot+0x14>
    88a4:	ebfffff5 	bl	8880 <set_user_level>
    88a8:	e3a0001e 	mov	r0, #30
    88ac:	eb000022 	bl	893c <delay_ms>
    88b0:	e59f0014 	ldr	r0, [pc, #20]	; 88cc <rpi_reboot+0x38>
    88b4:	e59f1014 	ldr	r1, [pc, #20]	; 88d0 <rpi_reboot+0x3c>
    88b8:	eb0001ee 	bl	9078 <PUT32>
    88bc:	e59f0010 	ldr	r0, [pc, #16]	; 88d4 <rpi_reboot+0x40>
    88c0:	e59f1010 	ldr	r1, [pc, #16]	; 88d8 <rpi_reboot+0x44>
    88c4:	eb0001eb 	bl	9078 <PUT32>
    88c8:	eafffffe 	b	88c8 <rpi_reboot+0x34>
    88cc:	20100024 	andscs	r0, r0, r4, lsr #32
    88d0:	5a000001 	bpl	88dc <delay_cycles>
    88d4:	2010001c 	andscs	r0, r0, ip, lsl r0
    88d8:	5a000020 	bpl	8960 <delay_sec+0x10>

000088dc <delay_cycles>:
    88dc:	ea000001 	b	88e8 <delay_cycles+0xc>
    88e0:	e2811000 	add	r1, r1, #0
    88e4:	e1a00003 	mov	r0, r3
    88e8:	e2403001 	sub	r3, r0, #1
    88ec:	e3500000 	cmp	r0, #0
    88f0:	1afffffa 	bne	88e0 <delay_cycles+0x4>
    88f4:	e12fff1e 	bx	lr

000088f8 <timer_get_usec_raw>:
    88f8:	e92d4008 	push	{r3, lr}
    88fc:	e59f0004 	ldr	r0, [pc, #4]	; 8908 <timer_get_usec_raw+0x10>
    8900:	eb0001e8 	bl	90a8 <GET32>
    8904:	e8bd8008 	pop	{r3, pc}
    8908:	20003004 	andcs	r3, r0, r4

0000890c <timer_get_usec>:
    890c:	e92d4008 	push	{r3, lr}
    8910:	ebfffff8 	bl	88f8 <timer_get_usec_raw>
    8914:	e8bd8008 	pop	{r3, pc}

00008918 <delay_us>:
    8918:	e92d4038 	push	{r3, r4, r5, lr}
    891c:	e1a05000 	mov	r5, r0
    8920:	ebfffff9 	bl	890c <timer_get_usec>
    8924:	e1a04000 	mov	r4, r0
    8928:	ebfffff7 	bl	890c <timer_get_usec>
    892c:	e0640000 	rsb	r0, r4, r0
    8930:	e1500005 	cmp	r0, r5
    8934:	3afffffb 	bcc	8928 <delay_us+0x10>
    8938:	e8bd8038 	pop	{r3, r4, r5, pc}

0000893c <delay_ms>:
    893c:	e92d4008 	push	{r3, lr}
    8940:	e3a03ffa 	mov	r3, #1000	; 0x3e8
    8944:	e0000093 	mul	r0, r3, r0
    8948:	ebfffff2 	bl	8918 <delay_us>
    894c:	e8bd8008 	pop	{r3, pc}

00008950 <delay_sec>:
    8950:	e92d4008 	push	{r3, lr}
    8954:	e3a03ffa 	mov	r3, #1000	; 0x3e8
    8958:	e0000093 	mul	r0, r3, r0
    895c:	ebfffff6 	bl	893c <delay_ms>
    8960:	e8bd8008 	pop	{r3, pc}

00008964 <gpio_set_output>:
    8964:	e92d4038 	push	{r3, r4, r5, lr}
    8968:	e1a04000 	mov	r4, r0
    896c:	e350001f 	cmp	r0, #31
    8970:	88bd8038 	pophi	{r3, r4, r5, pc}
    8974:	e59f30b4 	ldr	r3, [pc, #180]	; 8a30 <gpio_set_output+0xcc>
    8978:	e0832093 	umull	r2, r3, r3, r0
    897c:	e1a031a3 	lsr	r3, r3, #3
    8980:	e3530005 	cmp	r3, #5
    8984:	979ff103 	ldrls	pc, [pc, r3, lsl #2]
    8988:	ea000017 	b	89ec <gpio_set_output+0x88>
    898c:	000089a4 	andeq	r8, r0, r4, lsr #19
    8990:	000089b0 			; <UNDEFINED> instruction: 0x000089b0
    8994:	000089bc 			; <UNDEFINED> instruction: 0x000089bc
    8998:	000089c8 	andeq	r8, r0, r8, asr #19
    899c:	000089d4 	ldrdeq	r8, [r0], -r4
    89a0:	000089e0 	andeq	r8, r0, r0, ror #19
    89a4:	e59f3088 	ldr	r3, [pc, #136]	; 8a34 <gpio_set_output+0xd0>
    89a8:	e5935000 	ldr	r5, [r3]
    89ac:	ea00000f 	b	89f0 <gpio_set_output+0x8c>
    89b0:	e59f307c 	ldr	r3, [pc, #124]	; 8a34 <gpio_set_output+0xd0>
    89b4:	e5935004 	ldr	r5, [r3, #4]
    89b8:	ea00000c 	b	89f0 <gpio_set_output+0x8c>
    89bc:	e59f3070 	ldr	r3, [pc, #112]	; 8a34 <gpio_set_output+0xd0>
    89c0:	e5935008 	ldr	r5, [r3, #8]
    89c4:	ea000009 	b	89f0 <gpio_set_output+0x8c>
    89c8:	e59f3064 	ldr	r3, [pc, #100]	; 8a34 <gpio_set_output+0xd0>
    89cc:	e593500c 	ldr	r5, [r3, #12]
    89d0:	ea000006 	b	89f0 <gpio_set_output+0x8c>
    89d4:	e59f3058 	ldr	r3, [pc, #88]	; 8a34 <gpio_set_output+0xd0>
    89d8:	e5935010 	ldr	r5, [r3, #16]
    89dc:	ea000003 	b	89f0 <gpio_set_output+0x8c>
    89e0:	e59f304c 	ldr	r3, [pc, #76]	; 8a34 <gpio_set_output+0xd0>
    89e4:	e5935014 	ldr	r5, [r3, #20]
    89e8:	ea000000 	b	89f0 <gpio_set_output+0x8c>
    89ec:	e3a05000 	mov	r5, #0
    89f0:	e1a00005 	mov	r0, r5
    89f4:	eb0001a9 	bl	90a0 <get32>
    89f8:	e59f1030 	ldr	r1, [pc, #48]	; 8a30 <gpio_set_output+0xcc>
    89fc:	e0813491 	umull	r3, r1, r1, r4
    8a00:	e1a011a1 	lsr	r1, r1, #3
    8a04:	e0811101 	add	r1, r1, r1, lsl #2
    8a08:	e1a01081 	lsl	r1, r1, #1
    8a0c:	e0611004 	rsb	r1, r1, r4
    8a10:	e0811081 	add	r1, r1, r1, lsl #1
    8a14:	e3a03007 	mov	r3, #7
    8a18:	e1c03113 	bic	r3, r0, r3, lsl r1
    8a1c:	e1a00005 	mov	r0, r5
    8a20:	e3a02001 	mov	r2, #1
    8a24:	e1831112 	orr	r1, r3, r2, lsl r1
    8a28:	eb000190 	bl	9070 <put32>
    8a2c:	e8bd8038 	pop	{r3, r4, r5, pc}
    8a30:	cccccccd 	stclgt	12, cr12, [ip], {205}	; 0xcd
    8a34:	00009108 	andeq	r9, r0, r8, lsl #2

00008a38 <gpio_set_on>:
    8a38:	e92d4008 	push	{r3, lr}
    8a3c:	e350001f 	cmp	r0, #31
    8a40:	88bd8008 	pophi	{r3, pc}
    8a44:	959f3020 	ldrls	r3, [pc, #32]	; 8a6c <gpio_set_on+0x34>
    8a48:	95932018 	ldrls	r2, [r3, #24]
    8a4c:	859f3018 	ldrhi	r3, [pc, #24]	; 8a6c <gpio_set_on+0x34>
    8a50:	8593201c 	ldrhi	r2, [r3, #28]
    8a54:	e200301f 	and	r3, r0, #31
    8a58:	e1a00002 	mov	r0, r2
    8a5c:	e3a01001 	mov	r1, #1
    8a60:	e1a01311 	lsl	r1, r1, r3
    8a64:	eb000181 	bl	9070 <put32>
    8a68:	e8bd8008 	pop	{r3, pc}
    8a6c:	00009108 	andeq	r9, r0, r8, lsl #2

00008a70 <gpio_set_off>:
    8a70:	e92d4008 	push	{r3, lr}
    8a74:	e350001f 	cmp	r0, #31
    8a78:	88bd8008 	pophi	{r3, pc}
    8a7c:	959f3020 	ldrls	r3, [pc, #32]	; 8aa4 <gpio_set_off+0x34>
    8a80:	95932020 	ldrls	r2, [r3, #32]
    8a84:	859f3018 	ldrhi	r3, [pc, #24]	; 8aa4 <gpio_set_off+0x34>
    8a88:	85932024 	ldrhi	r2, [r3, #36]	; 0x24
    8a8c:	e200301f 	and	r3, r0, #31
    8a90:	e1a00002 	mov	r0, r2
    8a94:	e3a01001 	mov	r1, #1
    8a98:	e1a01311 	lsl	r1, r1, r3
    8a9c:	eb000173 	bl	9070 <put32>
    8aa0:	e8bd8008 	pop	{r3, pc}
    8aa4:	00009108 	andeq	r9, r0, r8, lsl #2

00008aa8 <gpio_set_input>:
    8aa8:	e92d4038 	push	{r3, r4, r5, lr}
    8aac:	e1a04000 	mov	r4, r0
    8ab0:	e350001f 	cmp	r0, #31
    8ab4:	88bd8038 	pophi	{r3, r4, r5, pc}
    8ab8:	e59f30ac 	ldr	r3, [pc, #172]	; 8b6c <gpio_set_input+0xc4>
    8abc:	e0832093 	umull	r2, r3, r3, r0
    8ac0:	e1a031a3 	lsr	r3, r3, #3
    8ac4:	e3530005 	cmp	r3, #5
    8ac8:	979ff103 	ldrls	pc, [pc, r3, lsl #2]
    8acc:	ea000017 	b	8b30 <gpio_set_input+0x88>
    8ad0:	00008ae8 	andeq	r8, r0, r8, ror #21
    8ad4:	00008af4 	strdeq	r8, [r0], -r4
    8ad8:	00008b00 	andeq	r8, r0, r0, lsl #22
    8adc:	00008b0c 	andeq	r8, r0, ip, lsl #22
    8ae0:	00008b18 	andeq	r8, r0, r8, lsl fp
    8ae4:	00008b24 	andeq	r8, r0, r4, lsr #22
    8ae8:	e59f3080 	ldr	r3, [pc, #128]	; 8b70 <gpio_set_input+0xc8>
    8aec:	e5935000 	ldr	r5, [r3]
    8af0:	ea00000f 	b	8b34 <gpio_set_input+0x8c>
    8af4:	e59f3074 	ldr	r3, [pc, #116]	; 8b70 <gpio_set_input+0xc8>
    8af8:	e5935004 	ldr	r5, [r3, #4]
    8afc:	ea00000c 	b	8b34 <gpio_set_input+0x8c>
    8b00:	e59f3068 	ldr	r3, [pc, #104]	; 8b70 <gpio_set_input+0xc8>
    8b04:	e5935008 	ldr	r5, [r3, #8]
    8b08:	ea000009 	b	8b34 <gpio_set_input+0x8c>
    8b0c:	e59f305c 	ldr	r3, [pc, #92]	; 8b70 <gpio_set_input+0xc8>
    8b10:	e593500c 	ldr	r5, [r3, #12]
    8b14:	ea000006 	b	8b34 <gpio_set_input+0x8c>
    8b18:	e59f3050 	ldr	r3, [pc, #80]	; 8b70 <gpio_set_input+0xc8>
    8b1c:	e5935010 	ldr	r5, [r3, #16]
    8b20:	ea000003 	b	8b34 <gpio_set_input+0x8c>
    8b24:	e59f3044 	ldr	r3, [pc, #68]	; 8b70 <gpio_set_input+0xc8>
    8b28:	e5935014 	ldr	r5, [r3, #20]
    8b2c:	ea000000 	b	8b34 <gpio_set_input+0x8c>
    8b30:	e3a05000 	mov	r5, #0
    8b34:	e1a00005 	mov	r0, r5
    8b38:	eb000158 	bl	90a0 <get32>
    8b3c:	e59f1028 	ldr	r1, [pc, #40]	; 8b6c <gpio_set_input+0xc4>
    8b40:	e0813491 	umull	r3, r1, r1, r4
    8b44:	e1a011a1 	lsr	r1, r1, #3
    8b48:	e0811101 	add	r1, r1, r1, lsl #2
    8b4c:	e1a01081 	lsl	r1, r1, #1
    8b50:	e0611004 	rsb	r1, r1, r4
    8b54:	e0811081 	add	r1, r1, r1, lsl #1
    8b58:	e3a03007 	mov	r3, #7
    8b5c:	e1c01113 	bic	r1, r0, r3, lsl r1
    8b60:	e1a00005 	mov	r0, r5
    8b64:	eb000141 	bl	9070 <put32>
    8b68:	e8bd8038 	pop	{r3, r4, r5, pc}
    8b6c:	cccccccd 	stclgt	12, cr12, [ip], {205}	; 0xcd
    8b70:	00009108 	andeq	r9, r0, r8, lsl #2

00008b74 <gpio_read>:
    8b74:	e92d4010 	push	{r4, lr}
    8b78:	e1a04000 	mov	r4, r0
    8b7c:	e350001f 	cmp	r0, #31
    8b80:	8a00000b 	bhi	8bb4 <gpio_read+0x40>
    8b84:	8a000003 	bhi	8b98 <gpio_read+0x24>
    8b88:	e59f302c 	ldr	r3, [pc, #44]	; 8bbc <gpio_read+0x48>
    8b8c:	e5930028 	ldr	r0, [r3, #40]	; 0x28
    8b90:	eb000142 	bl	90a0 <get32>
    8b94:	ea000002 	b	8ba4 <gpio_read+0x30>
    8b98:	e59f301c 	ldr	r3, [pc, #28]	; 8bbc <gpio_read+0x48>
    8b9c:	e593002c 	ldr	r0, [r3, #44]	; 0x2c
    8ba0:	eb00013e 	bl	90a0 <get32>
    8ba4:	e204401f 	and	r4, r4, #31
    8ba8:	e3a03001 	mov	r3, #1
    8bac:	e0000413 	and	r0, r0, r3, lsl r4
    8bb0:	e8bd8010 	pop	{r4, pc}
    8bb4:	e3e00000 	mvn	r0, #0
    8bb8:	e8bd8010 	pop	{r4, pc}
    8bbc:	00009108 	andeq	r9, r0, r8, lsl #2

00008bc0 <gpio_write>:
    8bc0:	e92d4008 	push	{r3, lr}
    8bc4:	e350001f 	cmp	r0, #31
    8bc8:	88bd8008 	pophi	{r3, pc}
    8bcc:	e3510000 	cmp	r1, #0
    8bd0:	0a000001 	beq	8bdc <gpio_write+0x1c>
    8bd4:	ebffff97 	bl	8a38 <gpio_set_on>
    8bd8:	e8bd8008 	pop	{r3, pc}
    8bdc:	ebffffa3 	bl	8a70 <gpio_set_off>
    8be0:	e8bd8008 	pop	{r3, pc}

00008be4 <gpio_set_function>:
    8be4:	e92d4070 	push	{r4, r5, r6, lr}
    8be8:	e1a04000 	mov	r4, r0
    8bec:	e1a05001 	mov	r5, r1
    8bf0:	e3510007 	cmp	r1, #7
    8bf4:	9350001f 	cmpls	r0, #31
    8bf8:	88bd8070 	pophi	{r4, r5, r6, pc}
    8bfc:	e59f30b0 	ldr	r3, [pc, #176]	; 8cb4 <gpio_set_function+0xd0>
    8c00:	e0832093 	umull	r2, r3, r3, r0
    8c04:	e1a031a3 	lsr	r3, r3, #3
    8c08:	e3530005 	cmp	r3, #5
    8c0c:	979ff103 	ldrls	pc, [pc, r3, lsl #2]
    8c10:	ea000017 	b	8c74 <gpio_set_function+0x90>
    8c14:	00008c2c 	andeq	r8, r0, ip, lsr #24
    8c18:	00008c38 	andeq	r8, r0, r8, lsr ip
    8c1c:	00008c44 	andeq	r8, r0, r4, asr #24
    8c20:	00008c50 	andeq	r8, r0, r0, asr ip
    8c24:	00008c5c 	andeq	r8, r0, ip, asr ip
    8c28:	00008c68 	andeq	r8, r0, r8, ror #24
    8c2c:	e59f3084 	ldr	r3, [pc, #132]	; 8cb8 <gpio_set_function+0xd4>
    8c30:	e5936000 	ldr	r6, [r3]
    8c34:	ea00000f 	b	8c78 <gpio_set_function+0x94>
    8c38:	e59f3078 	ldr	r3, [pc, #120]	; 8cb8 <gpio_set_function+0xd4>
    8c3c:	e5936004 	ldr	r6, [r3, #4]
    8c40:	ea00000c 	b	8c78 <gpio_set_function+0x94>
    8c44:	e59f306c 	ldr	r3, [pc, #108]	; 8cb8 <gpio_set_function+0xd4>
    8c48:	e5936008 	ldr	r6, [r3, #8]
    8c4c:	ea000009 	b	8c78 <gpio_set_function+0x94>
    8c50:	e59f3060 	ldr	r3, [pc, #96]	; 8cb8 <gpio_set_function+0xd4>
    8c54:	e593600c 	ldr	r6, [r3, #12]
    8c58:	ea000006 	b	8c78 <gpio_set_function+0x94>
    8c5c:	e59f3054 	ldr	r3, [pc, #84]	; 8cb8 <gpio_set_function+0xd4>
    8c60:	e5936010 	ldr	r6, [r3, #16]
    8c64:	ea000003 	b	8c78 <gpio_set_function+0x94>
    8c68:	e59f3048 	ldr	r3, [pc, #72]	; 8cb8 <gpio_set_function+0xd4>
    8c6c:	e5936014 	ldr	r6, [r3, #20]
    8c70:	ea000000 	b	8c78 <gpio_set_function+0x94>
    8c74:	e3a06000 	mov	r6, #0
    8c78:	e1a00006 	mov	r0, r6
    8c7c:	eb000107 	bl	90a0 <get32>
    8c80:	e59f302c 	ldr	r3, [pc, #44]	; 8cb4 <gpio_set_function+0xd0>
    8c84:	e0832493 	umull	r2, r3, r3, r4
    8c88:	e1a031a3 	lsr	r3, r3, #3
    8c8c:	e0833103 	add	r3, r3, r3, lsl #2
    8c90:	e1a03083 	lsl	r3, r3, #1
    8c94:	e0633004 	rsb	r3, r3, r4
    8c98:	e0833083 	add	r3, r3, r3, lsl #1
    8c9c:	e3a01007 	mov	r1, #7
    8ca0:	e1c01311 	bic	r1, r0, r1, lsl r3
    8ca4:	e1a00006 	mov	r0, r6
    8ca8:	e1811315 	orr	r1, r1, r5, lsl r3
    8cac:	eb0000ef 	bl	9070 <put32>
    8cb0:	e8bd8070 	pop	{r4, r5, r6, pc}
    8cb4:	cccccccd 	stclgt	12, cr12, [ip], {205}	; 0xcd
    8cb8:	00009108 	andeq	r9, r0, r8, lsl #2

00008cbc <gpio_toggle>:
    8cbc:	e92d4008 	push	{r3, lr}
    8cc0:	e350001f 	cmp	r0, #31
    8cc4:	88bd8008 	pophi	{r3, pc}
    8cc8:	959f3020 	ldrls	r3, [pc, #32]	; 8cf0 <gpio_toggle+0x34>
    8ccc:	95932018 	ldrls	r2, [r3, #24]
    8cd0:	859f3018 	ldrhi	r3, [pc, #24]	; 8cf0 <gpio_toggle+0x34>
    8cd4:	8593201c 	ldrhi	r2, [r3, #28]
    8cd8:	e200301f 	and	r3, r0, #31
    8cdc:	e1a00002 	mov	r0, r2
    8ce0:	e3a01001 	mov	r1, #1
    8ce4:	e1a01311 	lsl	r1, r1, r3
    8ce8:	eb0000e0 	bl	9070 <put32>
    8cec:	e8bd8008 	pop	{r3, pc}
    8cf0:	00009108 	andeq	r9, r0, r8, lsl #2

00008cf4 <is_gpio_int>:
    8cf4:	e92d4008 	push	{r3, lr}
    8cf8:	e59f301c 	ldr	r3, [pc, #28]	; 8d1c <is_gpio_int+0x28>
    8cfc:	e5930030 	ldr	r0, [r3, #48]	; 0x30
    8d00:	eb0000e6 	bl	90a0 <get32>
    8d04:	e3500000 	cmp	r0, #0
    8d08:	0a000001 	beq	8d14 <is_gpio_int+0x20>
    8d0c:	e3a00001 	mov	r0, #1
    8d10:	e8bd8008 	pop	{r3, pc}
    8d14:	e3a00000 	mov	r0, #0
    8d18:	e8bd8008 	pop	{r3, pc}
    8d1c:	00009108 	andeq	r9, r0, r8, lsl #2

00008d20 <gpio_int_rising_edge>:
    8d20:	e92d4038 	push	{r3, r4, r5, lr}
    8d24:	e1a04000 	mov	r4, r0
    8d28:	e350001f 	cmp	r0, #31
    8d2c:	88bd8038 	pophi	{r3, r4, r5, pc}
    8d30:	eb0000c8 	bl	9058 <dev_barrier>
    8d34:	e354001f 	cmp	r4, #31
    8d38:	8a000007 	bhi	8d5c <gpio_int_rising_edge+0x3c>
    8d3c:	e59f505c 	ldr	r5, [pc, #92]	; 8da0 <gpio_int_rising_edge+0x80>
    8d40:	e5950034 	ldr	r0, [r5, #52]	; 0x34
    8d44:	eb0000d5 	bl	90a0 <get32>
    8d48:	e3a01001 	mov	r1, #1
    8d4c:	e1801411 	orr	r1, r0, r1, lsl r4
    8d50:	e5950034 	ldr	r0, [r5, #52]	; 0x34
    8d54:	eb0000c5 	bl	9070 <put32>
    8d58:	ea000007 	b	8d7c <gpio_int_rising_edge+0x5c>
    8d5c:	e59f503c 	ldr	r5, [pc, #60]	; 8da0 <gpio_int_rising_edge+0x80>
    8d60:	e5950038 	ldr	r0, [r5, #56]	; 0x38
    8d64:	eb0000cd 	bl	90a0 <get32>
    8d68:	e204401f 	and	r4, r4, #31
    8d6c:	e3a01001 	mov	r1, #1
    8d70:	e1801411 	orr	r1, r0, r1, lsl r4
    8d74:	e5950038 	ldr	r0, [r5, #56]	; 0x38
    8d78:	eb0000bc 	bl	9070 <put32>
    8d7c:	eb0000b5 	bl	9058 <dev_barrier>
    8d80:	e59f4018 	ldr	r4, [pc, #24]	; 8da0 <gpio_int_rising_edge+0x80>
    8d84:	e594003c 	ldr	r0, [r4, #60]	; 0x3c
    8d88:	eb0000c4 	bl	90a0 <get32>
    8d8c:	e3801802 	orr	r1, r0, #131072	; 0x20000
    8d90:	e594003c 	ldr	r0, [r4, #60]	; 0x3c
    8d94:	eb0000b5 	bl	9070 <put32>
    8d98:	eb0000ae 	bl	9058 <dev_barrier>
    8d9c:	e8bd8038 	pop	{r3, r4, r5, pc}
    8da0:	00009108 	andeq	r9, r0, r8, lsl #2

00008da4 <gpio_int_falling_edge>:
    8da4:	e92d4038 	push	{r3, r4, r5, lr}
    8da8:	e1a04000 	mov	r4, r0
    8dac:	e350001f 	cmp	r0, #31
    8db0:	88bd8038 	pophi	{r3, r4, r5, pc}
    8db4:	eb0000a7 	bl	9058 <dev_barrier>
    8db8:	e354001f 	cmp	r4, #31
    8dbc:	8a000007 	bhi	8de0 <gpio_int_falling_edge+0x3c>
    8dc0:	e59f505c 	ldr	r5, [pc, #92]	; 8e24 <gpio_int_falling_edge+0x80>
    8dc4:	e5950040 	ldr	r0, [r5, #64]	; 0x40
    8dc8:	eb0000b4 	bl	90a0 <get32>
    8dcc:	e3a01001 	mov	r1, #1
    8dd0:	e1801411 	orr	r1, r0, r1, lsl r4
    8dd4:	e5950040 	ldr	r0, [r5, #64]	; 0x40
    8dd8:	eb0000a4 	bl	9070 <put32>
    8ddc:	ea000007 	b	8e00 <gpio_int_falling_edge+0x5c>
    8de0:	e59f503c 	ldr	r5, [pc, #60]	; 8e24 <gpio_int_falling_edge+0x80>
    8de4:	e5950044 	ldr	r0, [r5, #68]	; 0x44
    8de8:	eb0000ac 	bl	90a0 <get32>
    8dec:	e204401f 	and	r4, r4, #31
    8df0:	e3a01001 	mov	r1, #1
    8df4:	e1801411 	orr	r1, r0, r1, lsl r4
    8df8:	e5950044 	ldr	r0, [r5, #68]	; 0x44
    8dfc:	eb00009b 	bl	9070 <put32>
    8e00:	eb000094 	bl	9058 <dev_barrier>
    8e04:	e59f4018 	ldr	r4, [pc, #24]	; 8e24 <gpio_int_falling_edge+0x80>
    8e08:	e594003c 	ldr	r0, [r4, #60]	; 0x3c
    8e0c:	eb0000a3 	bl	90a0 <get32>
    8e10:	e3801601 	orr	r1, r0, #1048576	; 0x100000
    8e14:	e594003c 	ldr	r0, [r4, #60]	; 0x3c
    8e18:	eb000094 	bl	9070 <put32>
    8e1c:	eb00008d 	bl	9058 <dev_barrier>
    8e20:	e8bd8038 	pop	{r3, r4, r5, pc}
    8e24:	00009108 	andeq	r9, r0, r8, lsl #2

00008e28 <gpio_event_detected>:
    8e28:	e92d4010 	push	{r4, lr}
    8e2c:	e1a04000 	mov	r4, r0
    8e30:	e350001f 	cmp	r0, #31
    8e34:	8a000019 	bhi	8ea0 <gpio_event_detected+0x78>
    8e38:	eb000086 	bl	9058 <dev_barrier>
    8e3c:	e354001f 	cmp	r4, #31
    8e40:	8a000008 	bhi	8e68 <gpio_event_detected+0x40>
    8e44:	e59f305c 	ldr	r3, [pc, #92]	; 8ea8 <gpio_event_detected+0x80>
    8e48:	e5930048 	ldr	r0, [r3, #72]	; 0x48
    8e4c:	eb000093 	bl	90a0 <get32>
    8e50:	e3a03001 	mov	r3, #1
    8e54:	e0103413 	ands	r3, r0, r3, lsl r4
    8e58:	0a00000d 	beq	8e94 <gpio_event_detected+0x6c>
    8e5c:	eb00007d 	bl	9058 <dev_barrier>
    8e60:	e3a00001 	mov	r0, #1
    8e64:	e8bd8010 	pop	{r4, pc}
    8e68:	e59f3038 	ldr	r3, [pc, #56]	; 8ea8 <gpio_event_detected+0x80>
    8e6c:	e593004c 	ldr	r0, [r3, #76]	; 0x4c
    8e70:	eb00008a 	bl	90a0 <get32>
    8e74:	e3a03001 	mov	r3, #1
    8e78:	e0004413 	and	r4, r0, r3, lsl r4
    8e7c:	eb000075 	bl	9058 <dev_barrier>
    8e80:	e3540000 	cmp	r4, #0
    8e84:	0a000002 	beq	8e94 <gpio_event_detected+0x6c>
    8e88:	eb000072 	bl	9058 <dev_barrier>
    8e8c:	e3a00001 	mov	r0, #1
    8e90:	e8bd8010 	pop	{r4, pc}
    8e94:	eb00006f 	bl	9058 <dev_barrier>
    8e98:	e3a00000 	mov	r0, #0
    8e9c:	e8bd8010 	pop	{r4, pc}
    8ea0:	e3e00000 	mvn	r0, #0
    8ea4:	e8bd8010 	pop	{r4, pc}
    8ea8:	00009108 	andeq	r9, r0, r8, lsl #2

00008eac <gpio_event_clear>:
    8eac:	e92d4010 	push	{r4, lr}
    8eb0:	e1a04000 	mov	r4, r0
    8eb4:	e350001f 	cmp	r0, #31
    8eb8:	88bd8010 	pophi	{r4, pc}
    8ebc:	eb000065 	bl	9058 <dev_barrier>
    8ec0:	e354001f 	cmp	r4, #31
    8ec4:	8a000005 	bhi	8ee0 <gpio_event_clear+0x34>
    8ec8:	e59f3030 	ldr	r3, [pc, #48]	; 8f00 <gpio_event_clear+0x54>
    8ecc:	e5930048 	ldr	r0, [r3, #72]	; 0x48
    8ed0:	e3a01001 	mov	r1, #1
    8ed4:	e1a01411 	lsl	r1, r1, r4
    8ed8:	eb000064 	bl	9070 <put32>
    8edc:	ea000005 	b	8ef8 <gpio_event_clear+0x4c>
    8ee0:	e204401f 	and	r4, r4, #31
    8ee4:	e59f3014 	ldr	r3, [pc, #20]	; 8f00 <gpio_event_clear+0x54>
    8ee8:	e593004c 	ldr	r0, [r3, #76]	; 0x4c
    8eec:	e3a01001 	mov	r1, #1
    8ef0:	e1a01411 	lsl	r1, r1, r4
    8ef4:	eb00005d 	bl	9070 <put32>
    8ef8:	eb000056 	bl	9058 <dev_barrier>
    8efc:	e8bd8010 	pop	{r4, pc}
    8f00:	00009108 	andeq	r9, r0, r8, lsl #2

00008f04 <uart_init>:
    8f04:	e92d4038 	push	{r3, r4, r5, lr}
    8f08:	eb000052 	bl	9058 <dev_barrier>
    8f0c:	e3a0000e 	mov	r0, #14
    8f10:	e3a01002 	mov	r1, #2
    8f14:	ebffff32 	bl	8be4 <gpio_set_function>
    8f18:	e3a0000f 	mov	r0, #15
    8f1c:	e3a01002 	mov	r1, #2
    8f20:	ebffff2f 	bl	8be4 <gpio_set_function>
    8f24:	eb00004b 	bl	9058 <dev_barrier>
    8f28:	e59f4068 	ldr	r4, [pc, #104]	; 8f98 <uart_init+0x94>
    8f2c:	e5945000 	ldr	r5, [r4]
    8f30:	e1a00005 	mov	r0, r5
    8f34:	eb000059 	bl	90a0 <get32>
    8f38:	e3801001 	orr	r1, r0, #1
    8f3c:	e1a00005 	mov	r0, r5
    8f40:	eb00004a 	bl	9070 <put32>
    8f44:	eb000043 	bl	9058 <dev_barrier>
    8f48:	e5940004 	ldr	r0, [r4, #4]
    8f4c:	e3a01000 	mov	r1, #0
    8f50:	eb000046 	bl	9070 <put32>
    8f54:	e5940008 	ldr	r0, [r4, #8]
    8f58:	e3a01000 	mov	r1, #0
    8f5c:	eb000043 	bl	9070 <put32>
    8f60:	e594000c 	ldr	r0, [r4, #12]
    8f64:	e3a01006 	mov	r1, #6
    8f68:	eb000040 	bl	9070 <put32>
    8f6c:	e5940010 	ldr	r0, [r4, #16]
    8f70:	e3a01003 	mov	r1, #3
    8f74:	eb00003d 	bl	9070 <put32>
    8f78:	e5940014 	ldr	r0, [r4, #20]
    8f7c:	e59f1018 	ldr	r1, [pc, #24]	; 8f9c <uart_init+0x98>
    8f80:	eb00003a 	bl	9070 <put32>
    8f84:	e5940004 	ldr	r0, [r4, #4]
    8f88:	e3a01003 	mov	r1, #3
    8f8c:	eb000037 	bl	9070 <put32>
    8f90:	eb000030 	bl	9058 <dev_barrier>
    8f94:	e8bd8038 	pop	{r3, r4, r5, pc}
    8f98:	00009168 	andeq	r9, r0, r8, ror #2
    8f9c:	0000010e 	andeq	r0, r0, lr, lsl #2

00008fa0 <uart_can_getc>:
    8fa0:	e92d4008 	push	{r3, lr}
    8fa4:	e59f300c 	ldr	r3, [pc, #12]	; 8fb8 <uart_can_getc+0x18>
    8fa8:	e5930018 	ldr	r0, [r3, #24]
    8fac:	eb00003b 	bl	90a0 <get32>
    8fb0:	e2000001 	and	r0, r0, #1
    8fb4:	e8bd8008 	pop	{r3, pc}
    8fb8:	00009168 	andeq	r9, r0, r8, ror #2

00008fbc <uart_getc>:
    8fbc:	e92d4008 	push	{r3, lr}
    8fc0:	ebfffff6 	bl	8fa0 <uart_can_getc>
    8fc4:	e3500000 	cmp	r0, #0
    8fc8:	0afffffc 	beq	8fc0 <uart_getc+0x4>
    8fcc:	e59f300c 	ldr	r3, [pc, #12]	; 8fe0 <uart_getc+0x24>
    8fd0:	e593001c 	ldr	r0, [r3, #28]
    8fd4:	eb000031 	bl	90a0 <get32>
    8fd8:	e6ef0070 	uxtb	r0, r0
    8fdc:	e8bd8008 	pop	{r3, pc}
    8fe0:	00009168 	andeq	r9, r0, r8, ror #2

00008fe4 <uart_can_putc>:
    8fe4:	e92d4008 	push	{r3, lr}
    8fe8:	e59f300c 	ldr	r3, [pc, #12]	; 8ffc <uart_can_putc+0x18>
    8fec:	e5930018 	ldr	r0, [r3, #24]
    8ff0:	eb00002a 	bl	90a0 <get32>
    8ff4:	e2000020 	and	r0, r0, #32
    8ff8:	e8bd8008 	pop	{r3, pc}
    8ffc:	00009168 	andeq	r9, r0, r8, ror #2

00009000 <uart_putc>:
    9000:	e92d4010 	push	{r4, lr}
    9004:	e1a04000 	mov	r4, r0
    9008:	ebfffff5 	bl	8fe4 <uart_can_putc>
    900c:	e3500000 	cmp	r0, #0
    9010:	0afffffc 	beq	9008 <uart_putc+0x8>
    9014:	e59f300c 	ldr	r3, [pc, #12]	; 9028 <uart_putc+0x28>
    9018:	e593001c 	ldr	r0, [r3, #28]
    901c:	e1a01004 	mov	r1, r4
    9020:	eb000012 	bl	9070 <put32>
    9024:	e8bd8010 	pop	{r4, pc}
    9028:	00009168 	andeq	r9, r0, r8, ror #2

0000902c <uart_has_data>:
    902c:	e92d4008 	push	{r3, lr}
    9030:	ebffffda 	bl	8fa0 <uart_can_getc>
    9034:	e8bd8008 	pop	{r3, pc}

00009038 <uart_getc_async>:
    9038:	e92d4008 	push	{r3, lr}
    903c:	ebfffffa 	bl	902c <uart_has_data>
    9040:	e3500000 	cmp	r0, #0
    9044:	0a000001 	beq	9050 <uart_getc_async+0x18>
    9048:	ebffffdb 	bl	8fbc <uart_getc>
    904c:	e8bd8008 	pop	{r3, pc}
    9050:	e3e00000 	mvn	r0, #0
    9054:	e8bd8008 	pop	{r3, pc}

00009058 <dev_barrier>:
    9058:	ea000002 	b	9068 <dsb>

0000905c <dmb>:
    905c:	e3a00000 	mov	r0, #0
    9060:	ee070fba 	mcr	15, 0, r0, cr7, cr10, {5}
    9064:	e12fff1e 	bx	lr

00009068 <dsb>:
    9068:	ee070f9a 	mcr	15, 0, r0, cr7, cr10, {4}
    906c:	e12fff1e 	bx	lr

00009070 <put32>:
    9070:	e5801000 	str	r1, [r0]
    9074:	e12fff1e 	bx	lr

00009078 <PUT32>:
    9078:	e5801000 	str	r1, [r0]
    907c:	e12fff1e 	bx	lr

00009080 <put16>:
    9080:	e1c010b0 	strh	r1, [r0]
    9084:	e12fff1e 	bx	lr

00009088 <PUT16>:
    9088:	e1c010b0 	strh	r1, [r0]
    908c:	e12fff1e 	bx	lr

00009090 <put8>:
    9090:	e5c01000 	strb	r1, [r0]
    9094:	e12fff1e 	bx	lr

00009098 <PUT8>:
    9098:	e5c01000 	strb	r1, [r0]
    909c:	e12fff1e 	bx	lr

000090a0 <get32>:
    90a0:	e5900000 	ldr	r0, [r0]
    90a4:	e12fff1e 	bx	lr

000090a8 <GET32>:
    90a8:	e5900000 	ldr	r0, [r0]
    90ac:	e12fff1e 	bx	lr

000090b0 <GETPC>:
    90b0:	e1a0000e 	mov	r0, lr
    90b4:	e12fff1e 	bx	lr

000090b8 <dummy>:
    90b8:	e12fff1e 	bx	lr

000090bc <internal_putchar>:
    90bc:	e92d4010 	push	{r4, lr}
    90c0:	e1a04000 	mov	r4, r0
    90c4:	ebffffcd 	bl	9000 <uart_putc>
    90c8:	e1a00004 	mov	r0, r4
    90cc:	e8bd8010 	pop	{r4, pc}

000090d0 <rpi_reset_putc>:
    90d0:	e59f2008 	ldr	r2, [pc, #8]	; 90e0 <rpi_reset_putc+0x10>
    90d4:	e59f3008 	ldr	r3, [pc, #8]	; 90e4 <rpi_reset_putc+0x14>
    90d8:	e5832000 	str	r2, [r3]
    90dc:	e12fff1e 	bx	lr
    90e0:	000090bc 	strheq	r9, [r0], -ip
    90e4:	0000919c 	muleq	r0, ip, r1

000090e8 <rpi_set_putc>:
    90e8:	e59f3004 	ldr	r3, [pc, #4]	; 90f4 <rpi_set_putc+0xc>
    90ec:	e5830000 	str	r0, [r3]
    90f0:	e12fff1e 	bx	lr
    90f4:	0000919c 	muleq	r0, ip, r1

Disassembly of section .data:

000090f8 <GPPUD>:
    90f8:	20200094 	mlacs	r0, r4, r0, r0

000090fc <GPPUDCLK0>:
    90fc:	20200098 	mlacs	r0, r8, r0, r0

00009100 <GPPUDCLK1>:
    9100:	2020009c 	mlacs	r0, ip, r0, r0

00009104 <putk>:
    9104:	000082e0 	andeq	r8, r0, r0, ror #5

00009108 <GPFSEL0>:
    9108:	20200000 	eorcs	r0, r0, r0

0000910c <GPFSEL1>:
    910c:	20200004 	eorcs	r0, r0, r4

00009110 <GPFSEL2>:
    9110:	20200008 	eorcs	r0, r0, r8

00009114 <GPFSEL3>:
    9114:	2020000c 	eorcs	r0, r0, ip

00009118 <GPFSEL4>:
    9118:	20200010 	eorcs	r0, r0, r0, lsl r0

0000911c <GPFSEL5>:
    911c:	20200014 	eorcs	r0, r0, r4, lsl r0

00009120 <GPSET0>:
    9120:	2020001c 	eorcs	r0, r0, ip, lsl r0

00009124 <GPSET1>:
    9124:	20200020 	eorcs	r0, r0, r0, lsr #32

00009128 <GPCLR0>:
    9128:	20200028 	eorcs	r0, r0, r8, lsr #32

0000912c <GPCLR1>:
    912c:	2020002c 	eorcs	r0, r0, ip, lsr #32

00009130 <GPLEV0>:
    9130:	20200034 	eorcs	r0, r0, r4, lsr r0

00009134 <GPLEV1>:
    9134:	20200038 	eorcs	r0, r0, r8, lsr r0

00009138 <IRQ_PENDING_2>:
    9138:	2000b208 	andcs	fp, r0, r8, lsl #4

0000913c <GPREN0>:
    913c:	2020004c 	eorcs	r0, r0, ip, asr #32

00009140 <GPREN1>:
    9140:	20200050 	eorcs	r0, r0, r0, asr r0

00009144 <ENABLE_IRQS_2>:
    9144:	2000b214 	andcs	fp, r0, r4, lsl r2

00009148 <GPFEN0>:
    9148:	20200058 	eorcs	r0, r0, r8, asr r0

0000914c <GPFEN1>:
    914c:	2020005c 	eorcs	r0, r0, ip, asr r0

00009150 <GPEDS0>:
    9150:	20200040 	eorcs	r0, r0, r0, asr #32

00009154 <GPEDS1>:
    9154:	20200044 	eorcs	r0, r0, r4, asr #32

00009158 <IRQ_PENDING_1>:
    9158:	2000b204 	andcs	fp, r0, r4, lsl #4

0000915c <gpio_clr0>:
    915c:	20200028 	eorcs	r0, r0, r8, lsr #32

00009160 <gpio_set0>:
    9160:	2020001c 	eorcs	r0, r0, ip, lsl r0

00009164 <gpio_fsel0>:
    9164:	20200000 	eorcs	r0, r0, r0

00009168 <AUX_ENABLES>:
    9168:	20215004 	eorcs	r5, r1, r4

0000916c <AUX_MU_CNTL_REG>:
    916c:	20215060 	eorcs	r5, r1, r0, rrx

00009170 <AUX_MU_IER_REG>:
    9170:	20215044 	eorcs	r5, r1, r4, asr #32

00009174 <AUX_MU_IIR_REG>:
    9174:	20215048 	eorcs	r5, r1, r8, asr #32

00009178 <AUX_MU_LCR_REG>:
    9178:	2021504c 	eorcs	r5, r1, ip, asr #32

0000917c <AUX_MU_BAUD_REG>:
    917c:	20215068 	eorcs	r5, r1, r8, rrx

00009180 <AUX_MU_LSR_REG>:
    9180:	20215054 	eorcs	r5, r1, r4, asr r0

00009184 <AUX_MU_IO_REG>:
    9184:	20215040 	eorcs	r5, r1, r0, asr #32

00009188 <AUX_MU_STAT_REG>:
    9188:	20215064 	eorcs	r5, r1, r4, rrx

0000918c <AUX_MU_SCRATCH>:
    918c:	2021505c 	eorcs	r5, r1, ip, asr r0

00009190 <AUX_MU_MSR_REG>:
    9190:	20215058 	eorcs	r5, r1, r8, asr r0

00009194 <AUX_MU_MCR_REG>:
    9194:	20215050 	eorcs	r5, r1, r0, asr r0

00009198 <AUX_IRQ>:
    9198:	20215000 	eorcs	r5, r1, r0

0000919c <rpi_putchar>:
    919c:	000090bc 	strheq	r9, [r0], -ip

Disassembly of section .rodata:

000091a0 <__FUNCTION__.4271-0x50>:
    91a0:	72617473 	rsbvc	r7, r1, #1929379840	; 0x73000000
    91a4:	676e6974 			; <UNDEFINED> instruction: 0x676e6974
    91a8:	6e6f7320 	cdpvs	3, 6, cr7, cr15, cr0, {1}
    91ac:	0a217261 	beq	865b38 <__bss_end__+0x85c438>
    91b0:	00000000 	andeq	r0, r0, r0
    91b4:	616e6f73 	smcvs	59123	; 0xe6f3
    91b8:	65722072 	ldrbvs	r2, [r2, #-114]!	; 0x72
    91bc:	21796461 	cmncs	r9, r1, ror #8
    91c0:	0000000a 	andeq	r0, r0, sl
    91c4:	74736964 	ldrbtvc	r6, [r3], #-2404	; 0x964
    91c8:	65636e61 	strbvs	r6, [r3, #-3681]!	; 0xe61
    91cc:	25203d20 	strcs	r3, [r0, #-3360]!	; 0xd20
    91d0:	6e692064 	cdpvs	0, 6, cr2, cr9, cr4, {3}
    91d4:	73656863 	cmnvc	r5, #6488064	; 0x630000
    91d8:	0000000a 	andeq	r0, r0, sl
    91dc:	706f7473 	rsbvc	r7, pc, r3, ror r4	; <UNPREDICTABLE>
    91e0:	676e6970 			; <UNDEFINED> instruction: 0x676e6970
    91e4:	6e6f7320 	cdpvs	3, 6, cr7, cr15, cr0, {1}
    91e8:	21207261 	teqcs	r0, r1, ror #4
    91ec:	0000000a 	andeq	r0, r0, sl

000091f0 <__FUNCTION__.4271>:
    91f0:	74696d65 	strbtvc	r6, [r9], #-3429	; 0xd65
    91f4:	00000000 	andeq	r0, r0, r0

000091f8 <__FUNCTION__.4219>:
    91f8:	5f697072 	svcpl	0x00697072
    91fc:	5f746573 	svcpl	0x00746573
    9200:	7074756f 	rsbsvc	r7, r4, pc, ror #10
    9204:	00007475 	andeq	r7, r0, r5, ror r4

00009208 <__FUNCTION__.4293>:
    9208:	705f6176 	subsvc	r6, pc, r6, ror r1	; <UNPREDICTABLE>
    920c:	746e6972 	strbtvc	r6, [lr], #-2418	; 0x972
    9210:	0000006b 	andeq	r0, r0, fp, rrx
    9214:	494e4150 	stmdbmi	lr, {r4, r6, r8, lr}^
    9218:	73253a43 	teqvc	r5, #274432	; 0x43000
    921c:	3a73253a 	bcc	1cd270c <__bss_end__+0x1cc900c>
    9220:	303a6425 	eorscc	r6, sl, r5, lsr #8
    9224:	0000000a 	andeq	r0, r0, sl
    9228:	6362696c 	cmnvs	r2, #108, 18	; 0x1b0000
    922c:	2d61762f 	stclcs	6, cr7, [r1, #-188]!	; 0xffffff44
    9230:	6e697270 	mcrvs	2, 3, r7, cr9, cr0, {3}
    9234:	632e6b74 	teqvs	lr, #116, 22	; 0x1d000
    9238:	00000000 	andeq	r0, r0, r0
    923c:	33323130 	teqcc	r2, #48, 2
    9240:	37363534 			; <UNDEFINED> instruction: 0x37363534
    9244:	00003938 	andeq	r3, r0, r8, lsr r9
    9248:	33323130 	teqcc	r2, #48, 2
    924c:	37363534 			; <UNDEFINED> instruction: 0x37363534
    9250:	62613938 	rsbvs	r3, r1, #56, 18	; 0xe0000
    9254:	66656463 	strbtvs	r6, [r5], -r3, ror #8
    9258:	00000000 	andeq	r0, r0, r0
    925c:	00003130 	andeq	r3, r0, r0, lsr r1
    9260:	494e4150 	stmdbmi	lr, {r4, r6, r8, lr}^
    9264:	73253a43 	teqvc	r5, #274432	; 0x43000
    9268:	3a73253a 	bcc	1cd2758 <__bss_end__+0x1cc9058>
    926c:	703a6425 	eorsvc	r6, sl, r5, lsr #8
    9270:	5f637475 	svcpl	0x00637475
    9274:	000a7066 	andeq	r7, sl, r6, rrx
    9278:	494e4150 	stmdbmi	lr, {r4, r6, r8, lr}^
    927c:	73253a43 	teqvc	r5, #274432	; 0x43000
    9280:	3a73253a 	bcc	1cd2770 <__bss_end__+0x1cc9070>
    9284:	773a6425 	ldrvc	r6, [sl, -r5, lsr #8]!
    9288:	68746469 	ldmdavs	r4!, {r0, r3, r5, r6, sl, sp, lr}^
    928c:	33203c20 	teqcc	r0, #32, 24	; 0x2000
    9290:	00000a32 	andeq	r0, r0, r2, lsr sl
    9294:	494e4150 	stmdbmi	lr, {r4, r6, r8, lr}^
    9298:	73253a43 	teqvc	r5, #274432	; 0x43000
    929c:	3a73253a 	bcc	1cd278c <__bss_end__+0x1cc908c>
    92a0:	663a6425 	ldrtvs	r6, [sl], -r5, lsr #8
    92a4:	74616f6c 	strbtvc	r6, [r1], #-3948	; 0xf6c
    92a8:	746f6e20 	strbtvc	r6, [pc], #-3616	; 92b0 <__FUNCTION__.4293+0xa8>
    92ac:	616e6520 	cmnvs	lr, r0, lsr #10
    92b0:	64656c62 	strbtvs	r6, [r5], #-3170	; 0xc62
    92b4:	0a212121 	beq	851740 <__bss_end__+0x848040>
    92b8:	00000000 	andeq	r0, r0, r0
    92bc:	494e4150 	stmdbmi	lr, {r4, r6, r8, lr}^
    92c0:	73253a43 	teqvc	r5, #274432	; 0x43000
    92c4:	3a73253a 	bcc	1cd27b4 <__bss_end__+0x1cc90b4>
    92c8:	703a6425 	eorsvc	r6, sl, r5, lsr #8
    92cc:	746e6972 	strbtvc	r6, [lr], #-2418	; 0x972
    92d0:	6e203a6b 	vnmulvs.f32	s6, s0, s23
    92d4:	6820746f 	stmdavs	r0!, {r0, r1, r2, r3, r5, r6, sl, ip, sp, lr}
    92d8:	6c646e61 	stclvs	14, cr6, [r4], #-388	; 0xfffffe7c
    92dc:	20676e69 	rsbcs	r6, r7, r9, ror #28
    92e0:	63657073 	cmnvs	r5, #115	; 0x73
    92e4:	65696669 	strbvs	r6, [r9, #-1641]!	; 0x669
    92e8:	25272072 	strcs	r2, [r7, #-114]!	; 0x72
    92ec:	0a0a2763 	beq	293080 <__bss_end__+0x289980>
    92f0:	00000000 	andeq	r0, r0, r0
    92f4:	454e4f44 	strbmi	r4, [lr, #-3908]	; 0xf44
    92f8:	0a212121 	beq	851784 <__bss_end__+0x848084>
    92fc:	00000000 	andeq	r0, r0, r0

Disassembly of section .bss:

00009300 <__bss_start__>:
	...

Disassembly of section .ARM.attributes:

00000000 <.ARM.attributes>:
   0:	00002a41 	andeq	r2, r0, r1, asr #20
   4:	61656100 	cmnvs	r5, r0, lsl #2
   8:	01006962 	tsteq	r0, r2, ror #18
   c:	00000020 	andeq	r0, r0, r0, lsr #32
  10:	4b5a3605 	blmi	168d82c <__bss_end__+0x168412c>
  14:	08070600 	stmdaeq	r7, {r9, sl}
  18:	12010901 	andne	r0, r1, #16384	; 0x4000
  1c:	15011404 	strne	r1, [r1, #-1028]	; 0x404
  20:	18031701 	stmdane	r3, {r0, r8, r9, sl, ip}
  24:	22011a01 	andcs	r1, r1, #4096	; 0x1000
  28:	Address 0x0000000000000028 is out of bounds.


Disassembly of section .comment:

00000000 <.comment>:
   0:	3a434347 	bcc	10d0d24 <__bss_end__+0x10c7624>
   4:	4e472820 	cdpmi	8, 4, cr2, cr7, cr0, {1}
   8:	34202955 	strtcc	r2, [r0], #-2389	; 0x955
   c:	332e382e 	teqcc	lr, #3014656	; 0x2e0000
	...

Disassembly of section .debug_info:

00000000 <.debug_info>:
       0:	00000228 	andeq	r0, r0, r8, lsr #4
       4:	00000004 	andeq	r0, r0, r4
       8:	01040000 	mrseq	r0, (UNDEF: 4)
       c:	0000005c 	andeq	r0, r0, ip, asr r0
      10:	00011f01 	andeq	r1, r1, r1, lsl #30
      14:	00012700 	andeq	r2, r1, r0, lsl #14
      18:	00801000 	addeq	r1, r0, r0
      1c:	00009000 	andeq	r9, r0, r0
      20:	00000000 	andeq	r0, r0, r0
      24:	05040200 	streq	r0, [r4, #-512]	; 0x200
      28:	00746e69 	rsbseq	r6, r4, r9, ror #28
      2c:	42070403 	andmi	r0, r7, #50331648	; 0x3000000
      30:	03000000 	movweq	r0, #0
      34:	00ce0601 	sbceq	r0, lr, r1, lsl #12
      38:	02030000 	andeq	r0, r3, #0
      3c:	00017905 	andeq	r7, r1, r5, lsl #18
      40:	05040300 	streq	r0, [r4, #-768]	; 0x300
      44:	00000005 	andeq	r0, r0, r5
      48:	00050803 	andeq	r0, r5, r3, lsl #16
      4c:	03000000 	movweq	r0, #0
      50:	00cc0801 	sbceq	r0, ip, r1, lsl #16
      54:	02030000 	andeq	r0, r3, #0
      58:	0000f907 	andeq	pc, r0, r7, lsl #18
      5c:	07040300 	streq	r0, [r4, -r0, lsl #6]
      60:	0000003d 	andeq	r0, r0, sp, lsr r0
      64:	38070803 	stmdacc	r7, {r0, r1, fp}
      68:	03000000 	movweq	r0, #0
      6c:	01830704 	orreq	r0, r3, r4, lsl #14
      70:	01030000 	mrseq	r0, (UNDEF: 3)
      74:	0000d508 	andeq	sp, r0, r8, lsl #10
      78:	7f040400 	svcvc	0x00040400
      7c:	05000000 	streq	r0, [r0, #-0]
      80:	00000072 	andeq	r0, r0, r2, ror r0
      84:	09020806 	stmdbeq	r2, {r1, r2, fp}
      88:	000000a5 	andeq	r0, r0, r5, lsr #1
      8c:	00000e07 	andeq	r0, r0, r7, lsl #28
      90:	250a0200 	strcs	r0, [sl, #-512]	; 0x200
      94:	00000000 	andeq	r0, r0, r0
      98:	0000ec07 	andeq	lr, r0, r7, lsl #24
      9c:	250a0200 	strcs	r0, [sl, #-512]	; 0x200
      a0:	04000000 	streq	r0, [r0], #-0
      a4:	01150800 	tsteq	r5, r0, lsl #16
      a8:	0b020000 	bleq	800b0 <__bss_end__+0x769b0>
      ac:	00000084 	andeq	r0, r0, r4, lsl #1
      b0:	0000f109 	andeq	pc, r0, r9, lsl #2
      b4:	10050100 	andne	r0, r5, r0, lsl #2
      b8:	90000080 	andls	r0, r0, r0, lsl #1
      bc:	01000000 	mrseq	r0, (UNDEF: 0)
      c0:	0001bc9c 	muleq	r1, ip, ip
      c4:	00da0a00 	sbcseq	r0, sl, r0, lsl #20
      c8:	07010000 	streq	r0, [r1, -r0]
      cc:	0000002c 	andeq	r0, r0, ip, lsr #32
      d0:	680bd6d8 	stmdavs	fp, {r3, r4, r6, r7, r9, sl, ip, lr, pc}
      d4:	a50c0100 	strge	r0, [ip, #-256]	; 0x100
      d8:	02000000 	andeq	r0, r0, #0
      dc:	3c0c6091 	stccc	0, cr6, [ip], {145}	; 0x91
      e0:	44000080 	strmi	r0, [r0], #-128	; 0x80
      e4:	46000000 	strmi	r0, [r0], -r0
      e8:	0d000001 	stceq	0, cr0, [r0, #-4]
      ec:	000000c7 	andeq	r0, r0, r7, asr #1
      f0:	00250f01 	eoreq	r0, r5, r1, lsl #30
      f4:	00000000 	andeq	r0, r0, r0
      f8:	690e0000 	stmdbvs	lr, {}	; <UNPREDICTABLE>
      fc:	250f0100 	strcs	r0, [pc, #-256]	; 4 <_start-0x7ffc>
     100:	1e000000 	cdpne	0, 0, cr0, cr0, cr0, {0}
     104:	0f000000 	svceq	0x00000000
     108:	0000805c 	andeq	r8, r0, ip, asr r0
     10c:	000001bc 			; <UNDEFINED> instruction: 0x000001bc
     110:	00000121 	andeq	r0, r0, r1, lsr #2
     114:	02510110 	subseq	r0, r1, #16, 2
     118:	01100074 	tsteq	r0, r4, ror r0
     11c:	007d0250 	rsbseq	r0, sp, r0, asr r2
     120:	806c0f00 	rsbhi	r0, ip, r0, lsl #30
     124:	01dc0000 	bicseq	r0, ip, r0
     128:	01350000 	teqeq	r5, r0
     12c:	01100000 	tsteq	r0, r0
     130:	00770250 	rsbseq	r0, r7, r0, asr r2
     134:	80741100 	rsbshi	r1, r4, r0, lsl #2
     138:	01f20000 	mvnseq	r0, r0
     13c:	01100000 	tsteq	r0, r0
     140:	00760250 	rsbseq	r0, r6, r0, asr r2
     144:	1c120000 	ldcne	0, cr0, [r2], {-0}
     148:	03000080 	movweq	r0, #128	; 0x80
     14c:	0f000002 	svceq	0x00000002
     150:	00008024 	andeq	r8, r0, r4, lsr #32
     154:	000001dc 	ldrdeq	r0, [r0], -ip
     158:	00000166 	andeq	r0, r0, r6, ror #2
     15c:	05500110 	ldrbeq	r0, [r0, #-272]	; 0x110
     160:	0091a003 	addseq	sl, r1, r3
     164:	340f0000 	strcc	r0, [pc], #-0	; 16c <_start-0x7e94>
     168:	0a000080 	beq	370 <_start-0x7c90>
     16c:	84000002 	strhi	r0, [r0], #-2
     170:	10000001 	andne	r0, r0, r1
     174:	45015201 	strmi	r5, [r1, #-513]	; 0x201
     178:	01510110 	cmpeq	r1, r0, lsl r1
     17c:	50011044 	andpl	r1, r1, r4, asr #32
     180:	00007d02 	andeq	r7, r0, r2, lsl #26
     184:	00803c0f 	addeq	r3, r0, pc, lsl #24
     188:	0001dc00 	andeq	sp, r1, r0, lsl #24
     18c:	00019b00 	andeq	r9, r1, r0, lsl #22
     190:	50011000 	andpl	r1, r1, r0
     194:	91b40305 			; <UNDEFINED> instruction: 0x91b40305
     198:	0f000000 	svceq	0x00000000
     19c:	00008088 	andeq	r8, r0, r8, lsl #1
     1a0:	000001dc 	ldrdeq	r0, [r0], -ip
     1a4:	000001b2 			; <UNDEFINED> instruction: 0x000001b2
     1a8:	05500110 	ldrbeq	r0, [r0, #-272]	; 0x110
     1ac:	0091dc03 	addseq	sp, r1, r3, lsl #24
     1b0:	8c120000 	ldchi	0, cr0, [r2], {-0}
     1b4:	24000080 	strcs	r0, [r0], #-128	; 0x80
     1b8:	00000002 	andeq	r0, r0, r2
     1bc:	00002313 	andeq	r2, r0, r3, lsl r3
     1c0:	25130200 	ldrcs	r0, [r3, #-512]	; 0x200
     1c4:	d6000000 	strle	r0, [r0], -r0
     1c8:	14000001 	strne	r0, [r0], #-1
     1cc:	000001d6 	ldrdeq	r0, [r0], -r6
     1d0:	00002c14 	andeq	r2, r0, r4, lsl ip
     1d4:	04040000 	streq	r0, [r4], #-0
     1d8:	000000a5 	andeq	r0, r0, r5, lsr #1
     1dc:	0002fd13 	andeq	pc, r2, r3, lsl sp	; <UNPREDICTABLE>
     1e0:	25290300 	strcs	r0, [r9, #-768]!	; 0x300
     1e4:	f2000000 	vhadd.s8	d0, d0, d0
     1e8:	14000001 	strne	r0, [r0], #-1
     1ec:	00000079 	andeq	r0, r0, r9, ror r0
     1f0:	0c160015 	ldceq	0, cr0, [r6], {21}
     1f4:	03000001 	movweq	r0, #1
     1f8:	00020350 	andeq	r0, r2, r0, asr r3
     1fc:	002c1400 	eoreq	r1, ip, r0, lsl #8
     200:	17000000 	strne	r0, [r0, -r0]
     204:	000000e2 	andeq	r0, r0, r2, ror #1
     208:	16133a03 	ldrne	r3, [r3], -r3, lsl #20
     20c:	02000000 	andeq	r0, r0, #0
     210:	0000a510 	andeq	sl, r0, r0, lsl r5
     214:	00022400 	andeq	r2, r2, r0, lsl #8
     218:	00251400 	eoreq	r1, r5, r0, lsl #8
     21c:	25140000 	ldrcs	r0, [r4, #-0]
     220:	00000000 	andeq	r0, r0, r0
     224:	00004f17 	andeq	r4, r0, r7, lsl pc
     228:	00660300 	rsbeq	r0, r6, r0, lsl #6
     22c:	00000511 	andeq	r0, r0, r1, lsl r5
     230:	01380004 	teqeq	r8, r4
     234:	01040000 	mrseq	r0, (UNDEF: 4)
     238:	0000005c 	andeq	r0, r0, ip, asr r0
     23c:	00025f01 	andeq	r5, r2, r1, lsl #30
     240:	00012700 	andeq	r2, r1, r0, lsl #14
     244:	0080a000 	addeq	sl, r0, r0
     248:	0001e800 	andeq	lr, r1, r0, lsl #16
     24c:	0000ad00 	andeq	sl, r0, r0, lsl #26
     250:	05040200 	streq	r0, [r4, #-512]	; 0x200
     254:	00746e69 	rsbseq	r6, r4, r9, ror #28
     258:	42070403 	andmi	r0, r7, #50331648	; 0x3000000
     25c:	03000000 	movweq	r0, #0
     260:	00ce0601 	sbceq	r0, lr, r1, lsl #12
     264:	02030000 	andeq	r0, r3, #0
     268:	00017905 	andeq	r7, r1, r5, lsl #18
     26c:	05040300 	streq	r0, [r4, #-768]	; 0x300
     270:	00000005 	andeq	r0, r0, r5
     274:	00050803 	andeq	r0, r5, r3, lsl #16
     278:	03000000 	movweq	r0, #0
     27c:	00cc0801 	sbceq	r0, ip, r1, lsl #16
     280:	02030000 	andeq	r0, r3, #0
     284:	0000f907 	andeq	pc, r0, r7, lsl #18
     288:	07040300 	streq	r0, [r4, -r0, lsl #6]
     28c:	0000003d 	andeq	r0, r0, sp, lsr r0
     290:	38070803 	stmdacc	r7, {r0, r1, fp}
     294:	03000000 	movweq	r0, #0
     298:	01830704 	orreq	r0, r3, r4, lsl #14
     29c:	01030000 	mrseq	r0, (UNDEF: 3)
     2a0:	0000d508 	andeq	sp, r0, r8, lsl #10
     2a4:	02080400 	andeq	r0, r8, #0, 8
     2a8:	00009a09 	andeq	r9, r0, r9, lsl #20
     2ac:	000e0500 	andeq	r0, lr, r0, lsl #10
     2b0:	0a020000 	beq	802b8 <__bss_end__+0x76bb8>
     2b4:	00000025 	andeq	r0, r0, r5, lsr #32
     2b8:	00ec0500 	rsceq	r0, ip, r0, lsl #10
     2bc:	0a020000 	beq	802c4 <__bss_end__+0x76bc4>
     2c0:	00000025 	andeq	r0, r0, r5, lsr #32
     2c4:	15060004 	strne	r0, [r6, #-4]
     2c8:	02000001 	andeq	r0, r0, #1
     2cc:	0000790b 	andeq	r7, r0, fp, lsl #18
     2d0:	024f0700 	subeq	r0, pc, #0, 14
     2d4:	08010000 	stmdaeq	r1, {}	; <UNPREDICTABLE>
     2d8:	000080a0 	andeq	r8, r0, r0, lsr #1
     2dc:	0000008c 	andeq	r0, r0, ip, lsl #1
     2e0:	01a39c01 			; <UNDEFINED> instruction: 0x01a39c01
     2e4:	70080000 	andvc	r0, r8, r0
     2e8:	01006e69 	tsteq	r0, r9, ror #28
     2ec:	00002c08 	andeq	r2, r0, r8, lsl #24
     2f0:	00003d00 	andeq	r3, r0, r0, lsl #26
     2f4:	01910900 	orrseq	r0, r1, r0, lsl #18
     2f8:	0c010000 	stceq	0, cr0, [r1], {-0}
     2fc:	000001a3 	andeq	r0, r0, r3, lsr #3
     300:	00000069 	andeq	r0, r0, r9, rrx
     304:	0001ff0a 	andeq	pc, r1, sl, lsl #30
     308:	2c120100 	ldfcss	f0, [r2], {-0}
     30c:	01000000 	mrseq	r0, (UNDEF: 0)
     310:	80ac0b55 	adchi	r0, ip, r5, asr fp
     314:	047f0000 	ldrbteq	r0, [pc], #-0	; 31c <_start-0x7ce4>
     318:	bc0c0000 	stclt	0, cr0, [ip], {-0}
     31c:	86000080 	strhi	r0, [r0], -r0, lsl #1
     320:	01000004 	tsteq	r0, r4
     324:	0d000001 	stceq	0, cr0, [r0, #-4]
     328:	32015101 	andcc	r5, r1, #1073741824	; 0x40000000
     32c:	80c40c00 	sbchi	r0, r4, r0, lsl #24
     330:	04a30000 	strteq	r0, [r3], #0
     334:	01150000 	tsteq	r5, r0
     338:	010d0000 	mrseq	r0, (UNDEF: 13)
     33c:	96080250 			; <UNDEFINED> instruction: 0x96080250
     340:	80ec0c00 	rschi	r0, ip, r0, lsl #24
     344:	04860000 	streq	r0, [r6], #0
     348:	01310000 	teqeq	r1, r0
     34c:	010d0000 	mrseq	r0, (UNDEF: 13)
     350:	75310451 	ldrvc	r0, [r1, #-1105]!	; 0x451
     354:	010d2400 	tsteq	sp, r0, lsl #8
     358:	00740250 	rsbseq	r0, r4, r0, asr r2
     35c:	80f40c00 	rscshi	r0, r4, r0, lsl #24
     360:	04a30000 	strteq	r0, [r3], #0
     364:	01450000 	mrseq	r0, (UNDEF: 69)
     368:	010d0000 	mrseq	r0, (UNDEF: 13)
     36c:	96080250 			; <UNDEFINED> instruction: 0x96080250
     370:	81040c00 	tsthi	r4, r0, lsl #24
     374:	04860000 	streq	r0, [r6], #0
     378:	01580000 	cmpeq	r8, r0
     37c:	010d0000 	mrseq	r0, (UNDEF: 13)
     380:	00300151 	eorseq	r0, r0, r1, asr r1
     384:	00810c0c 	addeq	r0, r1, ip, lsl #24
     388:	0004a300 	andeq	sl, r4, r0, lsl #6
     38c:	00016c00 	andeq	r6, r1, r0, lsl #24
     390:	50010d00 	andpl	r0, r1, r0, lsl #26
     394:	00960802 	addseq	r0, r6, r2, lsl #16
     398:	0081180c 	addeq	r1, r1, ip, lsl #16
     39c:	00048600 	andeq	r8, r4, r0, lsl #12
     3a0:	00018500 	andeq	r8, r1, r0, lsl #10
     3a4:	51010d00 	tstpl	r1, r0, lsl #26
     3a8:	010d3001 	tsteq	sp, r1
     3ac:	00740250 	rsbseq	r0, r4, r0, asr r2
     3b0:	81200c00 	teqhi	r0, r0, lsl #24
     3b4:	04a30000 	strteq	r0, [r3], #0
     3b8:	01990000 	orrseq	r0, r9, r0
     3bc:	010d0000 	mrseq	r0, (UNDEF: 13)
     3c0:	96080250 			; <UNDEFINED> instruction: 0x96080250
     3c4:	81240b00 	teqhi	r4, r0, lsl #22
     3c8:	047f0000 	ldrbteq	r0, [pc], #-0	; 3d0 <_start-0x7c30>
     3cc:	0e000000 	cdpeq	0, 0, cr0, cr0, cr0, {0}
     3d0:	0001a904 	andeq	sl, r1, r4, lsl #18
     3d4:	002c0f00 	eoreq	r0, ip, r0, lsl #30
     3d8:	34070000 	strcc	r0, [r7], #-0
     3dc:	01000002 	tsteq	r0, r2
     3e0:	00812c1b 	addeq	r2, r1, fp, lsl ip
     3e4:	00008c00 	andeq	r8, r0, r0, lsl #24
     3e8:	ac9c0100 	ldfges	f0, [ip], {0}
     3ec:	08000002 	stmdaeq	r0, {r1}
     3f0:	006e6970 	rsbeq	r6, lr, r0, ror r9
     3f4:	002c1b01 	eoreq	r1, ip, r1, lsl #22
     3f8:	009f0000 	addseq	r0, pc, r0
     3fc:	91090000 	mrsls	r0, (UNDEF: 9)
     400:	01000001 	tsteq	r0, r1
     404:	0001a31f 	andeq	sl, r1, pc, lsl r3
     408:	0000cb00 	andeq	ip, r0, r0, lsl #22
     40c:	01ff0a00 	mvnseq	r0, r0, lsl #20
     410:	25010000 	strcs	r0, [r1, #-0]
     414:	0000002c 	andeq	r0, r0, ip, lsr #32
     418:	380b5501 	stmdacc	fp, {r0, r8, sl, ip, lr}
     41c:	7f000081 	svcvc	0x00000081
     420:	0c000004 	stceq	0, cr0, [r0], {4}
     424:	00008148 	andeq	r8, r0, r8, asr #2
     428:	00000486 	andeq	r0, r0, r6, lsl #9
     42c:	0000020a 	andeq	r0, r0, sl, lsl #4
     430:	0151010d 	cmpeq	r1, sp, lsl #2
     434:	500c0031 	andpl	r0, ip, r1, lsr r0
     438:	a3000081 	movwge	r0, #129	; 0x81
     43c:	1e000004 	cdpne	0, 0, cr0, cr0, cr4, {0}
     440:	0d000002 	stceq	0, cr0, [r0, #-8]
     444:	08025001 	stmdaeq	r2, {r0, ip, lr}
     448:	780c0096 	stmdavc	ip, {r1, r2, r4, r7}
     44c:	86000081 	strhi	r0, [r0], -r1, lsl #1
     450:	3a000004 	bcc	468 <_start-0x7b98>
     454:	0d000002 	stceq	0, cr0, [r0, #-8]
     458:	31045101 	tstcc	r4, r1, lsl #2
     45c:	0d240075 	stceq	0, cr0, [r4, #-468]!	; 0xfffffe2c
     460:	74025001 	strvc	r5, [r2], #-1
     464:	800c0000 	andhi	r0, ip, r0
     468:	a3000081 	movwge	r0, #129	; 0x81
     46c:	4e000004 	cdpmi	0, 0, cr0, cr0, cr4, {0}
     470:	0d000002 	stceq	0, cr0, [r0, #-8]
     474:	08025001 	stmdaeq	r2, {r0, ip, lr}
     478:	900c0096 	mulls	ip, r6, r0
     47c:	86000081 	strhi	r0, [r0], -r1, lsl #1
     480:	61000004 	tstvs	r0, r4
     484:	0d000002 	stceq	0, cr0, [r0, #-8]
     488:	30015101 	andcc	r5, r1, r1, lsl #2
     48c:	81980c00 	orrshi	r0, r8, r0, lsl #24
     490:	04a30000 	strteq	r0, [r3], #0
     494:	02750000 	rsbseq	r0, r5, #0
     498:	010d0000 	mrseq	r0, (UNDEF: 13)
     49c:	96080250 			; <UNDEFINED> instruction: 0x96080250
     4a0:	81a40c00 			; <UNDEFINED> instruction: 0x81a40c00
     4a4:	04860000 	streq	r0, [r6], #0
     4a8:	028e0000 	addeq	r0, lr, #0
     4ac:	010d0000 	mrseq	r0, (UNDEF: 13)
     4b0:	0d300151 	ldfeqs	f0, [r0, #-324]!	; 0xfffffebc
     4b4:	74025001 	strvc	r5, [r2], #-1
     4b8:	ac0c0000 	stcge	0, cr0, [ip], {-0}
     4bc:	a3000081 	movwge	r0, #129	; 0x81
     4c0:	a2000004 	andge	r0, r0, #4
     4c4:	0d000002 	stceq	0, cr0, [r0, #-8]
     4c8:	08025001 	stmdaeq	r2, {r0, ip, lr}
     4cc:	b00b0096 	mullt	fp, r6, r0
     4d0:	7f000081 	svcvc	0x00000081
     4d4:	00000004 	andeq	r0, r0, r4
     4d8:	00021a10 	andeq	r1, r2, r0, lsl sl
     4dc:	25340100 	ldrcs	r0, [r4, #-256]!	; 0x100
     4e0:	b8000000 	stmdalt	r0, {}	; <UNPREDICTABLE>
     4e4:	54000081 	strpl	r0, [r0], #-129	; 0x81
     4e8:	01000000 	mrseq	r0, (UNDEF: 0)
     4ec:	0003319c 	muleq	r3, ip, r1
     4f0:	69700800 	ldmdbvs	r0!, {fp}^
     4f4:	3401006e 	strcc	r0, [r1], #-110	; 0x6e
     4f8:	00000025 	andeq	r0, r0, r5, lsr #32
     4fc:	00000101 	andeq	r0, r0, r1, lsl #2
     500:	01007608 	tsteq	r0, r8, lsl #12
     504:	00002534 	andeq	r2, r0, r4, lsr r5
     508:	00011f00 	andeq	r1, r1, r0, lsl #30
     50c:	00da1100 	sbcseq	r1, sl, r0, lsl #2
     510:	34010000 	strcc	r0, [r1], #-0
     514:	0000002c 	andeq	r0, r0, ip, lsr #32
     518:	0000013d 	andeq	r0, r0, sp, lsr r1
     51c:	00045a09 	andeq	r5, r4, r9, lsl #20
     520:	2c350100 	ldfcss	f0, [r5], #-0
     524:	69000000 	stmdbvs	r0, {}	; <UNPREDICTABLE>
     528:	09000001 	stmdbeq	r0, {r0}
     52c:	0000018c 	andeq	r0, r0, ip, lsl #3
     530:	002c3601 	eoreq	r3, ip, r1, lsl #12
     534:	01870000 	orreq	r0, r7, r0
     538:	cc0b0000 	stcgt	0, cr0, [fp], {-0}
     53c:	b4000081 	strlt	r0, [r0], #-129	; 0x81
     540:	0b000004 	bleq	558 <_start-0x7aa8>
     544:	000081e0 	andeq	r8, r0, r0, ror #3
     548:	000004b4 			; <UNDEFINED> instruction: 0x000004b4
     54c:	0081f412 	addeq	pc, r1, r2, lsl r4	; <UNPREDICTABLE>
     550:	0004bf00 	andeq	fp, r4, r0, lsl #30
     554:	50010d00 	andpl	r0, r1, r0, lsl #26
     558:	00007402 	andeq	r7, r0, r2, lsl #8
     55c:	00161000 	andseq	r1, r6, r0
     560:	50010000 	andpl	r0, r1, r0
     564:	0000009a 	muleq	r0, sl, r0
     568:	0000820c 	andeq	r8, r0, ip, lsl #4
     56c:	00000034 	andeq	r0, r0, r4, lsr r0
     570:	03af9c01 			; <UNDEFINED> instruction: 0x03af9c01
     574:	0e110000 	cdpeq	0, 1, cr0, cr1, cr0, {0}
     578:	01000000 	mrseq	r0, (UNDEF: 0)
     57c:	00002550 	andeq	r2, r0, r0, asr r5
     580:	0001bc00 	andeq	fp, r1, r0, lsl #24
     584:	00ec1100 	rsceq	r1, ip, r0, lsl #2
     588:	50010000 	andpl	r0, r1, r0
     58c:	00000025 	andeq	r0, r0, r5, lsr #32
     590:	000001db 	ldrdeq	r0, [r0], -fp
     594:	01006813 	tsteq	r0, r3, lsl r8
     598:	00009a51 	andeq	r9, r0, r1, asr sl
     59c:	0001f900 	andeq	pc, r1, r0, lsl #18
     5a0:	82280c00 	eorhi	r0, r8, #0, 24
     5a4:	04d40000 	ldrbeq	r0, [r4], #0
     5a8:	038a0000 	orreq	r0, sl, #0
     5ac:	010d0000 	mrseq	r0, (UNDEF: 13)
     5b0:	00740350 	rsbseq	r0, r4, r0, asr r3
     5b4:	300c0006 	andcc	r0, ip, r6
     5b8:	e5000082 	str	r0, [r0, #-130]	; 0x82
     5bc:	9e000004 	cdpls	0, 0, cr0, cr0, cr4, {0}
     5c0:	0d000003 	stceq	0, cr0, [r0, #-12]
     5c4:	75025001 	strvc	r5, [r2, #-1]
     5c8:	38120000 	ldmdacc	r2, {}	; <UNPREDICTABLE>
     5cc:	ae000082 	cdpge	0, 0, cr0, cr0, cr2, {4}
     5d0:	0d000001 	stceq	0, cr0, [r0, #-4]
     5d4:	75025001 	strvc	r5, [r2, #-1]
     5d8:	10000000 	andne	r0, r0, r0
     5dc:	00000023 	andeq	r0, r0, r3, lsr #32
     5e0:	00256a01 	eoreq	r6, r5, r1, lsl #20
     5e4:	82400000 	subhi	r0, r0, #0
     5e8:	00480000 	subeq	r0, r8, r0
     5ec:	9c010000 	stcls	0, cr0, [r1], {-0}
     5f0:	00000446 	andeq	r0, r0, r6, asr #8
     5f4:	01006808 	tsteq	r0, r8, lsl #16
     5f8:	0004466a 	andeq	r4, r4, sl, ror #12
     5fc:	00021900 	andeq	r1, r2, r0, lsl #18
     600:	019d1100 	orrseq	r1, sp, r0, lsl #2
     604:	6a010000 	bvs	4060c <__bss_end__+0x36f0c>
     608:	0000002c 	andeq	r0, r0, ip, lsr #32
     60c:	00000237 	andeq	r0, r0, r7, lsr r2
     610:	0002690a 	andeq	r6, r2, sl, lsl #18
     614:	256f0100 	strbcs	r0, [pc, #-256]!	; 51c <_start-0x7ae4>
     618:	01000000 	mrseq	r0, (UNDEF: 0)
     61c:	82500b50 	subshi	r0, r0, #80, 22	; 0x14000
     620:	04f60000 	ldrbteq	r0, [r6], #0
     624:	580c0000 	stmdapl	ip, {}	; <UNPREDICTABLE>
     628:	a3000082 	movwge	r0, #130	; 0x82
     62c:	0d000004 	stceq	0, cr0, [r0, #-16]
     630:	0d000004 	stceq	0, cr0, [r0, #-16]
     634:	3a015001 	bcc	54640 <__bss_end__+0x4af40>
     638:	82600b00 	rsbhi	r0, r0, #0, 22
     63c:	05070000 	streq	r0, [r7, #-0]
     640:	700c0000 	andvc	r0, ip, r0
     644:	ac000082 	stcge	0, cr0, [r0], {130}	; 0x82
     648:	2f000002 	svccs	0x00000002
     64c:	0d000004 	stceq	0, cr0, [r0, #-16]
     650:	08025201 	stmdaeq	r2, {r0, r9, ip, lr}
     654:	51010dc8 	smlabtpl	r1, r8, sp, r0
     658:	12003001 	andne	r3, r0, #1
     65c:	00008280 	andeq	r8, r0, r0, lsl #5
     660:	000002ac 	andeq	r0, r0, ip, lsr #5
     664:	0352010d 	cmpeq	r2, #1073741827	; 0x40000003
     668:	0dd6d80a 	ldcleq	8, cr13, [r6, #40]	; 0x28
     66c:	31015101 	tstcc	r1, r1, lsl #2
     670:	040e0000 	streq	r0, [lr], #-0
     674:	0000009a 	muleq	r0, sl, r0
     678:	0001d314 	andeq	sp, r1, r4, lsl r3
     67c:	a3040100 	movwge	r0, #16640	; 0x4100
     680:	05000001 	streq	r0, [r0, #-1]
     684:	0090f803 	addseq	pc, r0, r3, lsl #16
     688:	01bf1400 			; <UNDEFINED> instruction: 0x01bf1400
     68c:	05010000 	streq	r0, [r1, #-0]
     690:	000001a3 	andeq	r0, r0, r3, lsr #3
     694:	90fc0305 	rscsls	r0, ip, r5, lsl #6
     698:	c9140000 	ldmdbgt	r4, {}	; <UNPREDICTABLE>
     69c:	01000001 	tsteq	r0, r1
     6a0:	0001a306 	andeq	sl, r1, r6, lsl #6
     6a4:	00030500 	andeq	r0, r3, r0, lsl #10
     6a8:	15000091 	strne	r0, [r0, #-145]	; 0x91
     6ac:	00000228 	andeq	r0, r0, r8, lsr #4
     6b0:	b9168a03 	ldmdblt	r6, {r0, r1, r9, fp, pc}
     6b4:	03000001 	movweq	r0, #1
     6b8:	00049c9d 	muleq	r4, sp, ip
     6bc:	049c1700 	ldreq	r1, [ip], #1792	; 0x700
     6c0:	2c170000 	ldccs	0, cr0, [r7], {-0}
     6c4:	00000000 	andeq	r0, r0, r0
     6c8:	04a2040e 	strteq	r0, [r2], #1038	; 0x40e
     6cc:	16180000 	ldrne	r0, [r8], -r0
     6d0:	00000246 	andeq	r0, r0, r6, asr #4
     6d4:	04b44e03 	ldrteq	r4, [r4], #3587	; 0xe03
     6d8:	2c170000 	ldccs	0, cr0, [r7], {-0}
     6dc:	00000000 	andeq	r0, r0, r0
     6e0:	0001aa19 	andeq	sl, r1, r9, lsl sl
     6e4:	2c550300 	mrrccs	3, 0, r0, r5, cr0
     6e8:	1a000000 	bne	6f0 <_start-0x7910>
     6ec:	000001e8 	andeq	r0, r0, r8, ror #3
     6f0:	00252404 	eoreq	r2, r5, r4, lsl #8
     6f4:	04d40000 	ldrbeq	r0, [r4], #0
     6f8:	2c170000 	ldccs	0, cr0, [r7], {-0}
     6fc:	00000000 	andeq	r0, r0, r0
     700:	00020a16 	andeq	r0, r2, r6, lsl sl
     704:	e51d0400 	ldr	r0, [sp, #-1024]	; 0x400
     708:	17000004 	strne	r0, [r0, -r4]
     70c:	0000002c 	andeq	r0, r0, ip, lsr #32
     710:	01d91600 	bicseq	r1, r9, r0, lsl #12
     714:	1c040000 	stcne	0, cr0, [r4], {-0}
     718:	000004f6 	strdeq	r0, [r0], -r6
     71c:	00002c17 	andeq	r2, r0, r7, lsl ip
     720:	7a160000 	bvc	580728 <__bss_end__+0x577028>
     724:	04000002 	streq	r0, [r0], #-2
     728:	00050727 	andeq	r0, r5, r7, lsr #14
     72c:	002c1700 	eoreq	r1, ip, r0, lsl #14
     730:	1b000000 	blne	738 <_start-0x78c8>
     734:	000001f2 	strdeq	r0, [r0], -r2
     738:	2c172a04 	ldccs	10, cr2, [r7], {4}
     73c:	00000000 	andeq	r0, r0, r0
     740:	00019100 	andeq	r9, r1, r0, lsl #2
     744:	c5000400 	strgt	r0, [r0, #-1024]	; 0x400
     748:	04000002 	streq	r0, [r0], #-2
     74c:	0002a301 	andeq	sl, r2, r1, lsl #6
     750:	02950100 	addseq	r0, r5, #0, 2
     754:	030e0000 	movweq	r0, #57344	; 0xe000
     758:	82880000 	addhi	r0, r8, #0
     75c:	00580000 	subseq	r0, r8, r0
     760:	01d40000 	bicseq	r0, r4, r0
     764:	86020000 	strhi	r0, [r2], -r0
     768:	02000002 	andeq	r0, r0, #2
     76c:	00003028 	andeq	r3, r0, r8, lsr #32
     770:	03040300 	movweq	r0, #17152	; 0x4300
     774:	03040000 	movweq	r0, #16384	; 0x4000
     778:	00004700 	andeq	r4, r0, r0, lsl #14
     77c:	03570400 	cmpeq	r7, #0, 8
     780:	00470000 	subeq	r0, r7, r0
     784:	00000000 	andeq	r0, r0, r0
     788:	06020405 	streq	r0, [r2], -r5, lsl #8
     78c:	02000003 	andeq	r0, r0, #3
     790:	00002562 	andeq	r2, r0, r2, ror #10
     794:	05040600 	streq	r0, [r4, #-1536]	; 0x600
     798:	00746e69 	rsbseq	r6, r4, r9, ror #28
     79c:	42070407 	andmi	r0, r7, #117440512	; 0x7000000
     7a0:	07000000 	streq	r0, [r0, -r0]
     7a4:	00ce0601 	sbceq	r0, lr, r1, lsl #12
     7a8:	02070000 	andeq	r0, r7, #0
     7ac:	00017905 	andeq	r7, r1, r5, lsl #18
     7b0:	05040700 	streq	r0, [r4, #-1792]	; 0x700
     7b4:	00000005 	andeq	r0, r0, r5
     7b8:	00050807 	andeq	r0, r5, r7, lsl #16
     7bc:	07000000 	streq	r0, [r0, -r0]
     7c0:	00cc0801 	sbceq	r0, ip, r1, lsl #16
     7c4:	02070000 	andeq	r0, r7, #0
     7c8:	0000f907 	andeq	pc, r0, r7, lsl #18
     7cc:	07040700 	streq	r0, [r4, -r0, lsl #14]
     7d0:	0000003d 	andeq	r0, r0, sp, lsr r0
     7d4:	38070807 	stmdacc	r7, {r0, r1, r2, fp}
     7d8:	07000000 	streq	r0, [r0, -r0]
     7dc:	01830704 	orreq	r0, r3, r4, lsl #14
     7e0:	04080000 	streq	r0, [r8], #-0
     7e4:	000000a7 	andeq	r0, r0, r7, lsr #1
     7e8:	d5080107 	strle	r0, [r8, #-263]	; 0x107
     7ec:	08000000 	stmdaeq	r0, {}	; <UNPREDICTABLE>
     7f0:	0000b404 	andeq	fp, r0, r4, lsl #8
     7f4:	00a70900 	adceq	r0, r7, r0, lsl #18
     7f8:	fd0a0000 	stc2	0, cr0, [sl, #-0]
     7fc:	01000002 	tsteq	r0, r2
     800:	00005406 	andeq	r5, r0, r6, lsl #8
     804:	00828800 	addeq	r8, r2, r0, lsl #16
     808:	00005800 	andeq	r5, r0, r0, lsl #16
     80c:	439c0100 	orrsmi	r0, ip, #0, 2
     810:	0b000001 	bleq	81c <_start-0x77e4>
     814:	00746d66 	rsbseq	r6, r4, r6, ror #26
     818:	00ae0601 	adceq	r0, lr, r1, lsl #12
     81c:	91020000 	mrsls	r0, (UNDEF: 2)
     820:	620d0c70 	andvs	r0, sp, #112, 24	; 0x7000
     824:	01006675 	tsteq	r0, r5, ror r6
     828:	00014308 	andeq	r4, r1, r8, lsl #6
     82c:	00030500 	andeq	r0, r3, r0, lsl #10
     830:	0e000093 	mcreq	0, 0, r0, cr0, cr3, {4}
     834:	00000352 	andeq	r0, r0, r2, asr r3
     838:	00490901 	subeq	r0, r9, r1, lsl #18
     83c:	91020000 	mrsls	r0, (UNDEF: 2)
     840:	7a730f5c 	bvc	1cc45b8 <__bss_end__+0x1cbaeb8>
     844:	540c0100 	strpl	r0, [ip], #-256	; 0x100
     848:	58000000 	stmdapl	r0, {}	; <UNPREDICTABLE>
     84c:	10000002 	andne	r0, r0, r2
     850:	000082b0 			; <UNDEFINED> instruction: 0x000082b0
     854:	00000174 	andeq	r0, r0, r4, ror r1
     858:	00000136 	andeq	r0, r0, r6, lsr r1
     85c:	02530111 	subseq	r0, r3, #1073741828	; 0x40000004
     860:	01114c91 			; <UNDEFINED> instruction: 0x01114c91
     864:	48910352 	ldmmi	r1, {r1, r4, r6, r8, r9}
     868:	51011106 	tstpl	r1, r6, lsl #2
     86c:	04000a03 	streq	r0, [r0], #-2563	; 0xa03
     870:	02500111 	subseq	r0, r0, #1073741828	; 0x40000004
     874:	12000074 	andne	r0, r0, #116	; 0x74
     878:	000082c4 	andeq	r8, r0, r4, asr #5
     87c:	02500111 	subseq	r0, r0, #1073741828	; 0x40000004
     880:	00000074 	andeq	r0, r0, r4, ror r0
     884:	0000a713 	andeq	sl, r0, r3, lsl r7
     888:	00015400 	andeq	r5, r1, r0, lsl #8
     88c:	009a1400 	addseq	r1, sl, r0, lsl #8
     890:	03ff0000 	mvnseq	r0, #0
     894:	00541500 	subseq	r1, r4, r0, lsl #10
     898:	01630000 	cmneq	r3, r0
     89c:	ae160000 	cdpge	0, 1, cr0, cr6, cr0, {0}
     8a0:	00000000 	andeq	r0, r0, r0
     8a4:	00037117 	andeq	r7, r3, r7, lsl r1
     8a8:	6e220400 	cdpvs	4, 2, cr0, cr2, cr0, {0}
     8ac:	08000001 	stmdaeq	r0, {r0}
     8b0:	00015404 	andeq	r5, r1, r4, lsl #8
     8b4:	02fa1800 	rscseq	r1, sl, #0, 16
     8b8:	02050000 	andeq	r0, r5, #0
     8bc:	00000054 	andeq	r0, r0, r4, asr r0
     8c0:	0000a116 	andeq	sl, r0, r6, lsl r1
     8c4:	00541600 	subseq	r1, r4, r0, lsl #12
     8c8:	ae160000 	cdpge	0, 1, cr0, cr6, cr0, {0}
     8cc:	16000000 	strne	r0, [r0], -r0
     8d0:	00000049 	andeq	r0, r0, r9, asr #32
     8d4:	00ee0000 	rsceq	r0, lr, r0
     8d8:	00040000 	andeq	r0, r4, r0
     8dc:	000003f6 	strdeq	r0, [r0], -r6
     8e0:	02a30104 	adceq	r0, r3, #4, 2
     8e4:	5c010000 	stcpl	0, cr0, [r1], {-0}
     8e8:	0e000003 	cdpeq	0, 0, cr0, cr0, cr3, {0}
     8ec:	e0000003 	and	r0, r0, r3
     8f0:	34000082 	strcc	r0, [r0], #-130	; 0x82
     8f4:	da000000 	ble	8fc <_start-0x7704>
     8f8:	02000002 	andeq	r0, r0, #2
     8fc:	6e690504 	cdpvs	5, 6, cr0, cr9, cr4, {0}
     900:	04030074 	streq	r0, [r3], #-116	; 0x74
     904:	00004207 	andeq	r4, r0, r7, lsl #4
     908:	06010300 	streq	r0, [r1], -r0, lsl #6
     90c:	000000ce 	andeq	r0, r0, lr, asr #1
     910:	79050203 	stmdbvc	r5, {r0, r1, r9}
     914:	03000001 	movweq	r0, #1
     918:	00050504 	andeq	r0, r5, r4, lsl #10
     91c:	08030000 	stmdaeq	r3, {}	; <UNPREDICTABLE>
     920:	00000005 	andeq	r0, r0, r5
     924:	08010300 	stmdaeq	r1, {r8, r9}
     928:	000000cc 	andeq	r0, r0, ip, asr #1
     92c:	f9070203 			; <UNDEFINED> instruction: 0xf9070203
     930:	03000000 	movweq	r0, #0
     934:	003d0704 	eorseq	r0, sp, r4, lsl #14
     938:	08030000 	stmdaeq	r3, {}	; <UNPREDICTABLE>
     93c:	00003807 	andeq	r3, r0, r7, lsl #16
     940:	07040300 	streq	r0, [r4, -r0, lsl #6]
     944:	00000183 	andeq	r0, r0, r3, lsl #3
     948:	d5080103 	strle	r0, [r8, #-259]	; 0x103
     94c:	04000000 	streq	r0, [r0], #-0
     950:	00007f04 	andeq	r7, r0, r4, lsl #30
     954:	00720500 	rsbseq	r0, r2, r0, lsl #10
     958:	68060000 	stmdavs	r6, {}	; <UNPREDICTABLE>
     95c:	01000003 	tsteq	r0, r3
     960:	00002504 	andeq	r2, r0, r4, lsl #10
     964:	0082e000 	addeq	lr, r2, r0
     968:	00003400 	andeq	r3, r0, r0, lsl #8
     96c:	ab9c0100 	blge	fe700d74 <__bss_end__+0xfe6f7674>
     970:	07000000 	streq	r0, [r0, -r0]
     974:	04010070 	streq	r0, [r1], #-112	; 0x70
     978:	00000079 	andeq	r0, r0, r9, ror r0
     97c:	00000281 	andeq	r0, r0, r1, lsl #5
     980:	00250800 	eoreq	r0, r5, r0, lsl #16
     984:	00ba0000 	adcseq	r0, sl, r0
     988:	25090000 	strcs	r0, [r9, #-0]
     98c:	00000000 	andeq	r0, r0, r0
     990:	0003760a 	andeq	r7, r3, sl, lsl #12
     994:	c51d0200 	ldrgt	r0, [sp, #-512]	; 0x200
     998:	04000000 	streq	r0, [r0], #-0
     99c:	0000ab04 	andeq	sl, r0, r4, lsl #22
     9a0:	00250800 	eoreq	r0, r5, r0, lsl #16
     9a4:	00da0000 	sbcseq	r0, sl, r0
     9a8:	79090000 	stmdbvc	r9, {}	; <UNPREDICTABLE>
     9ac:	00000000 	andeq	r0, r0, r0
     9b0:	0003710b 	andeq	r7, r3, fp, lsl #2
     9b4:	eb0c0100 	bl	300dbc <__bss_end__+0x2f76bc>
     9b8:	05000000 	streq	r0, [r0, #-0]
     9bc:	00910403 	addseq	r0, r1, r3, lsl #8
     9c0:	cb040400 	blgt	1019c8 <__bss_end__+0xf82c8>
     9c4:	00000000 	andeq	r0, r0, r0
     9c8:	00000681 	andeq	r0, r0, r1, lsl #13
     9cc:	048f0004 	streq	r0, [pc], #4	; 9d4 <_start-0x762c>
     9d0:	01040000 	mrseq	r0, (UNDEF: 4)
     9d4:	000002a3 	andeq	r0, r0, r3, lsr #5
     9d8:	0003bb01 	andeq	fp, r3, r1, lsl #22
     9dc:	00030e00 	andeq	r0, r3, r0, lsl #28
     9e0:	00831400 	addeq	r1, r3, r0, lsl #8
     9e4:	0004f800 	andeq	pc, r4, r0, lsl #16
     9e8:	00037400 	andeq	r7, r3, r0, lsl #8
     9ec:	05040200 	streq	r0, [r4, #-512]	; 0x200
     9f0:	00746e69 	rsbseq	r6, r4, r9, ror #28
     9f4:	42070403 	andmi	r0, r7, #50331648	; 0x3000000
     9f8:	03000000 	movweq	r0, #0
     9fc:	00ce0601 	sbceq	r0, lr, r1, lsl #12
     a00:	02030000 	andeq	r0, r3, #0
     a04:	00017905 	andeq	r7, r1, r5, lsl #18
     a08:	05040300 	streq	r0, [r4, #-768]	; 0x300
     a0c:	00000005 	andeq	r0, r0, r5
     a10:	00050803 	andeq	r0, r5, r3, lsl #16
     a14:	03000000 	movweq	r0, #0
     a18:	00cc0801 	sbceq	r0, ip, r1, lsl #16
     a1c:	02030000 	andeq	r0, r3, #0
     a20:	0000f907 	andeq	pc, r0, r7, lsl #18
     a24:	07040300 	streq	r0, [r4, -r0, lsl #6]
     a28:	0000003d 	andeq	r0, r0, sp, lsr r0
     a2c:	38070803 	stmdacc	r7, {r0, r1, fp}
     a30:	03000000 	movweq	r0, #0
     a34:	01830704 	orreq	r0, r3, r4, lsl #14
     a38:	04040000 	streq	r0, [r4], #-0
     a3c:	007a0405 	rsbseq	r0, sl, r5, lsl #8
     a40:	01030000 	mrseq	r0, (UNDEF: 3)
     a44:	0000d508 	andeq	sp, r0, r8, lsl #10
     a48:	87040500 	strhi	r0, [r4, -r0, lsl #10]
     a4c:	06000000 	streq	r0, [r0], -r0
     a50:	0000007a 	andeq	r0, r0, sl, ror r0
     a54:	00028607 	andeq	r8, r2, r7, lsl #12
     a58:	97280200 	strls	r0, [r8, -r0, lsl #4]!
     a5c:	08000000 	stmdaeq	r0, {}	; <UNPREDICTABLE>
     a60:	00000304 	andeq	r0, r0, r4, lsl #6
     a64:	ae000404 	cdpge	4, 0, cr0, cr0, cr4, {0}
     a68:	09000000 	stmdbeq	r0, {}	; <UNPREDICTABLE>
     a6c:	00000357 	andeq	r0, r0, r7, asr r3
     a70:	00000072 	andeq	r0, r0, r2, ror r0
     a74:	06070000 	streq	r0, [r7], -r0
     a78:	02000003 	andeq	r0, r0, #3
     a7c:	00008c62 	andeq	r8, r0, r2, ror #24
     a80:	03900a00 	orrseq	r0, r0, #0, 20
     a84:	27010000 	strcs	r0, [r1, -r0]
     a88:	00000025 	andeq	r0, r0, r5, lsr #32
     a8c:	00008314 	andeq	r8, r0, r4, lsl r3
     a90:	00000014 	andeq	r0, r0, r4, lsl r0
     a94:	00e09c01 	rsceq	r9, r0, r1, lsl #24
     a98:	630b0000 	movwvs	r0, #45056	; 0xb000
     a9c:	25270100 	strcs	r0, [r7, #-256]!	; 0x100
     aa0:	9f000000 	svcls	0x00000000
     aa4:	00000002 	andeq	r0, r0, r2
     aa8:	6461700c 	strbtvs	r7, [r1], #-12
     aac:	742e0100 	strtvc	r0, [lr], #-256	; 0x100
     ab0:	28000000 	stmdacs	r0, {}	; <UNPREDICTABLE>
     ab4:	2c000083 	stccs	0, cr0, [r0], {131}	; 0x83
     ab8:	01000000 	mrseq	r0, (UNDEF: 0)
     abc:	0001309c 	muleq	r1, ip, r0
     ac0:	00700b00 	rsbseq	r0, r0, r0, lsl #22
     ac4:	00742e01 	rsbseq	r2, r4, r1, lsl #28
     ac8:	02cd0000 	sbceq	r0, sp, #0
     acc:	ad0d0000 	stcge	0, cr0, [sp, #-0]
     ad0:	01000003 	tsteq	r0, r3
     ad4:	0000742e 	andeq	r7, r0, lr, lsr #8
     ad8:	0002f800 	andeq	pc, r2, r0, lsl #16
     adc:	03db0e00 	bicseq	r0, fp, #0, 28
     ae0:	2e010000 	cdpcs	0, 0, cr0, cr1, cr0, {0}
     ae4:	00000025 	andeq	r0, r0, r5, lsr #32
     ae8:	6c0f5201 	sfmvs	f5, 4, [pc], {1}
     aec:	01006e65 	tsteq	r0, r5, ror #28
     af0:	0000252f 	andeq	r2, r0, pc, lsr #10
     af4:	00510100 	subseq	r0, r1, r0, lsl #2
     af8:	0003880a 	andeq	r8, r3, sl, lsl #16
     afc:	74370100 	ldrtvc	r0, [r7], #-256	; 0x100
     b00:	54000000 	strpl	r0, [r0], #-0
     b04:	40000083 	andmi	r0, r0, r3, lsl #1
     b08:	01000000 	mrseq	r0, (UNDEF: 0)
     b0c:	00019c9c 	muleq	r1, ip, ip
     b10:	73640b00 	cmnvc	r4, #0, 22
     b14:	37010074 	smlsdxcc	r1, r4, r0, r0
     b18:	00000074 	andeq	r0, r0, r4, ror r0
     b1c:	00000319 	andeq	r0, r0, r9, lsl r3
     b20:	01006e0b 	tsteq	r0, fp, lsl #28
     b24:	00002537 	andeq	r2, r0, r7, lsr r5
     b28:	00035100 	andeq	r5, r3, r0, lsl #2
     b2c:	00700b00 	rsbseq	r0, r0, r0, lsl #22
     b30:	00743701 	rsbseq	r3, r4, r1, lsl #14
     b34:	03720000 	cmneq	r2, #0
     b38:	5a0d0000 	bpl	340b40 <__bss_end__+0x337440>
     b3c:	01000004 	tsteq	r0, r4
     b40:	00007437 	andeq	r7, r0, r7, lsr r4
     b44:	0003a800 	andeq	sl, r3, r0, lsl #16
     b48:	656c1000 	strbvs	r1, [ip, #-0]!
     b4c:	3901006e 	stmdbcc	r1, {r1, r2, r3, r5, r6}
     b50:	00000025 	andeq	r0, r0, r5, lsr #32
     b54:	000003c6 	andeq	r0, r0, r6, asr #7
     b58:	0100730f 	tsteq	r0, pc, lsl #6
     b5c:	0000743d 	andeq	r7, r0, sp, lsr r4
     b60:	00500100 	subseq	r0, r0, r0, lsl #2
     b64:	0003f80a 	andeq	pc, r3, sl, lsl #16
     b68:	74470100 	strbvc	r0, [r7], #-256	; 0x100
     b6c:	94000000 	strls	r0, [r0], #-0
     b70:	9c000083 	stcls	0, cr0, [r0], {131}	; 0x83
     b74:	01000001 	tsteq	r0, r1
     b78:	0002d39c 	muleq	r2, ip, r3
     b7c:	03ad0d00 			; <UNDEFINED> instruction: 0x03ad0d00
     b80:	47010000 	strmi	r0, [r1, -r0]
     b84:	0000002c 	andeq	r0, r0, ip, lsr #32
     b88:	000003ed 	andeq	r0, r0, sp, ror #7
     b8c:	7473640b 	ldrbtvc	r6, [r3], #-1035	; 0x40b
     b90:	74470100 	strbvc	r0, [r7], #-256	; 0x100
     b94:	1b000000 	blne	b9c <_start-0x7464>
     b98:	0b000004 	bleq	bb0 <_start-0x7450>
     b9c:	4701006e 	strmi	r0, [r1, -lr, rrx]
     ba0:	00000025 	andeq	r0, r0, r5, lsr #32
     ba4:	00000489 	andeq	r0, r0, r9, lsl #9
     ba8:	6c61760b 	stclvs	6, cr7, [r1], #-44	; 0xffffffd4
     bac:	25470100 	strbcs	r0, [r7, #-256]	; 0x100
     bb0:	b5000000 	strlt	r0, [r0, #-0]
     bb4:	0d000004 	stceq	0, cr0, [r0, #-16]
     bb8:	000003db 	ldrdeq	r0, [r0], -fp
     bbc:	00254701 	eoreq	r4, r5, r1, lsl #14
     bc0:	05340000 	ldreq	r0, [r4, #-0]!
     bc4:	b20e0000 	andlt	r0, lr, #0
     bc8:	01000003 	tsteq	r0, r3
     bcc:	00002547 	andeq	r2, r0, r7, asr #10
     bd0:	04910200 	ldreq	r0, [r1], #512	; 0x200
     bd4:	6675620f 	ldrbtvs	r6, [r5], -pc, lsl #4
     bd8:	d34c0100 	movtle	r0, #49408	; 0xc100
     bdc:	03000002 	movweq	r0, #2
     be0:	107fa891 			; <UNDEFINED> instruction: 0x107fa891
     be4:	4c010070 	stcmi	0, cr0, [r1], {112}	; 0x70
     be8:	00000074 	andeq	r0, r0, r4, ror r0
     bec:	0000055e 	andeq	r0, r0, lr, asr r5
     bf0:	01007510 	tsteq	r0, r0, lsl r5
     bf4:	00002c4d 	andeq	r2, r0, sp, asr #24
     bf8:	00060300 	andeq	r0, r6, r0, lsl #6
     bfc:	03981100 	orrseq	r1, r8, #0, 2
     c00:	02f30000 	rscseq	r0, r3, #0
     c04:	03050000 	movweq	r0, #20480	; 0x5000
     c08:	000091f0 	strdeq	r9, [r0], -r0
     c0c:	00840012 	addeq	r0, r4, r2, lsl r0
     c10:	00007400 	andeq	r7, r0, r0, lsl #8
     c14:	00026100 	andeq	r6, r2, r0, lsl #2
     c18:	03821300 	orreq	r1, r2, #0, 6
     c1c:	52010000 	andpl	r0, r1, #0
     c20:	0000002c 	andeq	r0, r0, ip, lsr #32
     c24:	00000708 	andeq	r0, r0, r8, lsl #14
     c28:	84d41400 	ldrbhi	r1, [r4], #1024	; 0x400
     c2c:	06600000 	strbteq	r0, [r0], -r0
     c30:	e8150000 	ldmda	r5, {}	; <UNPREDICTABLE>
     c34:	67000084 	strvs	r0, [r0, -r4, lsl #1]
     c38:	99000006 	stmdbls	r0, {r1, r2}
     c3c:	16000002 	strne	r0, [r0], -r2
     c40:	08025301 	stmdaeq	r2, {r0, r8, r9, ip, lr}
     c44:	52011675 	andpl	r1, r1, #122683392	; 0x7500000
     c48:	91f00305 	mvnsls	r0, r5, lsl #6
     c4c:	01160000 	tsteq	r6, r0
     c50:	28030551 	stmdacs	r3, {r0, r4, r6, r8, sl}
     c54:	16000092 			; <UNDEFINED> instruction: 0x16000092
     c58:	03055001 	movweq	r5, #20481	; 0x5001
     c5c:	00009214 	andeq	r9, r0, r4, lsl r2
     c60:	84ec1400 	strbthi	r1, [ip], #1024	; 0x400
     c64:	067d0000 	ldrbteq	r0, [sp], -r0
     c68:	f8150000 			; <UNDEFINED> instruction: 0xf8150000
     c6c:	e0000084 	and	r0, r0, r4, lsl #1
     c70:	b6000000 	strlt	r0, [r0], -r0
     c74:	16000002 	strne	r0, [r0], -r2
     c78:	7d025101 	stfvcs	f5, [r2, #-4]
     c7c:	0c170000 	ldceq	0, cr0, [r7], {-0}
     c80:	30000085 	andcc	r0, r0, r5, lsl #1
     c84:	16000001 	strne	r0, [r0], -r1
     c88:	7d025301 	stcvc	3, cr5, [r2, #-4]
     c8c:	51011600 	tstpl	r1, r0, lsl #12
     c90:	16007402 	strne	r7, [r0], -r2, lsl #8
     c94:	75025001 	strvc	r5, [r2, #-1]
     c98:	18000000 	stmdane	r0, {}	; <UNPREDICTABLE>
     c9c:	0000007a 	andeq	r0, r0, sl, ror r0
     ca0:	000002e3 	andeq	r0, r0, r3, ror #5
     ca4:	00006b19 	andeq	r6, r0, r9, lsl fp
     ca8:	18003f00 	stmdane	r0, {r8, r9, sl, fp, ip, sp}
     cac:	0000007a 	andeq	r0, r0, sl, ror r0
     cb0:	000002f3 	strdeq	r0, [r0], -r3
     cb4:	00006b19 	andeq	r6, r0, r9, lsl fp
     cb8:	06000400 	streq	r0, [r0], -r0, lsl #8
     cbc:	000002e3 	andeq	r0, r0, r3, ror #5
     cc0:	0003cc1a 	andeq	ip, r3, sl, lsl ip
     cc4:	301f0100 	andscc	r0, pc, r0, lsl #2
     cc8:	54000085 	strpl	r0, [r0], #-133	; 0x85
     ccc:	01000000 	mrseq	r0, (UNDEF: 0)
     cd0:	00037c9c 	muleq	r3, ip, ip
     cd4:	03e10d00 	mvneq	r0, #0, 26
     cd8:	1f010000 	svcne	0x00010000
     cdc:	0000038b 	andeq	r0, r0, fp, lsl #7
     ce0:	00000734 	andeq	r0, r0, r4, lsr r7
     ce4:	0003a50d 	andeq	sl, r3, sp, lsl #10
     ce8:	a01f0100 	andsge	r0, pc, r0, lsl #2
     cec:	60000003 	andvs	r0, r0, r3
     cf0:	11000007 	tstne	r0, r7
     cf4:	00000398 	muleq	r0, r8, r3
     cf8:	000003b6 			; <UNDEFINED> instruction: 0x000003b6
     cfc:	91f80305 	mvnsls	r0, r5, lsl #6
     d00:	40140000 	andsmi	r0, r4, r0
     d04:	60000085 	andvs	r0, r0, r5, lsl #1
     d08:	15000006 	strne	r0, [r0, #-6]
     d0c:	00008554 	andeq	r8, r0, r4, asr r5
     d10:	00000667 	andeq	r0, r0, r7, ror #12
     d14:	00000372 	andeq	r0, r0, r2, ror r3
     d18:	02530116 	subseq	r0, r3, #-2147483643	; 0x80000005
     d1c:	01162008 	tsteq	r6, r8
     d20:	f8030552 			; <UNDEFINED> instruction: 0xf8030552
     d24:	16000091 			; <UNDEFINED> instruction: 0x16000091
     d28:	03055101 	movweq	r5, #20737	; 0x5101
     d2c:	00009228 	andeq	r9, r0, r8, lsr #4
     d30:	05500116 	ldrbeq	r0, [r0, #-278]	; 0x116
     d34:	00926003 	addseq	r6, r2, r3
     d38:	58140000 	ldmdapl	r4, {}	; <UNPREDICTABLE>
     d3c:	7d000085 	stcvc	0, cr0, [r0, #-532]	; 0xfffffdec
     d40:	00000006 	andeq	r0, r0, r6
     d44:	0000251b 	andeq	r2, r0, fp, lsl r5
     d48:	00038b00 	andeq	r8, r3, r0, lsl #22
     d4c:	00251c00 	eoreq	r1, r5, r0, lsl #24
     d50:	05000000 	streq	r0, [r0, #-0]
     d54:	00037c04 	andeq	r7, r3, r4, lsl #24
     d58:	00251b00 	eoreq	r1, r5, r0, lsl #22
     d5c:	03a00000 	moveq	r0, #0
     d60:	811c0000 	tsthi	ip, r0
     d64:	00000000 	andeq	r0, r0, r0
     d68:	03910405 	orrseq	r0, r1, #83886080	; 0x5000000
     d6c:	7a180000 	bvc	600d74 <__bss_end__+0x5f7674>
     d70:	b6000000 	strlt	r0, [r0], -r0
     d74:	19000003 	stmdbne	r0, {r0, r1}
     d78:	0000006b 	andeq	r0, r0, fp, rrx
     d7c:	a606000e 	strge	r0, [r6], -lr
     d80:	1d000003 	stcne	0, cr0, [r0, #-12]
     d84:	000002fa 	strdeq	r0, [r0], -sl
     d88:	00257d01 	eoreq	r7, r5, r1, lsl #26
     d8c:	85840000 	strhi	r0, [r4]
     d90:	02880000 	addeq	r0, r8, #0
     d94:	9c010000 	stcls	0, cr0, [r1], {-0}
     d98:	00000625 	andeq	r0, r0, r5, lsr #12
     d9c:	6675620b 	ldrbtvs	r6, [r5], -fp, lsl #4
     da0:	747d0100 	ldrbtvc	r0, [sp], #-256	; 0x100
     da4:	8c000000 	stchi	0, cr0, [r0], {-0}
     da8:	0b000007 	bleq	dcc <_start-0x7234>
     dac:	7d01006e 	stcvc	0, cr0, [r1, #-440]	; 0xfffffe48
     db0:	00000025 	andeq	r0, r0, r5, lsr #32
     db4:	000007b8 			; <UNDEFINED> instruction: 0x000007b8
     db8:	746d660b 	strbtvc	r6, [sp], #-1547	; 0x60b
     dbc:	817d0100 	cmnhi	sp, r0, lsl #2
     dc0:	e6000000 	str	r0, [r0], -r0
     dc4:	0d000007 	stceq	0, cr0, [r0, #-28]	; 0xffffffe4
     dc8:	00000352 	andeq	r0, r0, r2, asr r3
     dcc:	00ae7d01 	adceq	r7, lr, r1, lsl #26
     dd0:	081a0000 	ldmdaeq	sl, {}	; <UNPREDICTABLE>
     dd4:	70100000 	andsvc	r0, r0, r0
     dd8:	747e0100 	ldrbtvc	r0, [lr], #-256	; 0x100
     ddc:	2d000000 	stccs	0, cr0, [r0, #-0]
     de0:	10000008 	andne	r0, r0, r8
     de4:	7e010065 	cdpvc	0, 0, cr0, cr1, cr5, {3}
     de8:	00000074 	andeq	r0, r0, r4, ror r0
     dec:	000008ab 	andeq	r0, r0, fp, lsr #17
     df0:	00039811 	andeq	r9, r3, r1, lsl r8
     df4:	00063500 	andeq	r3, r6, r0, lsl #10
     df8:	08030500 	stmdaeq	r3, {r8, sl}
     dfc:	1e000092 	mcrne	0, 0, r0, cr0, cr2, {4}
     e00:	00000000 	andeq	r0, r0, r0
     e04:	01007310 	tsteq	r0, r0, lsl r3
     e08:	0000748b 	andeq	r7, r0, fp, lsl #9
     e0c:	0008d200 	andeq	sp, r8, r0, lsl #4
     e10:	756e0f00 	strbvc	r0, [lr, #-3840]!	; 0xf00
     e14:	8b01006d 	blhi	40fd0 <__bss_end__+0x378d0>
     e18:	0000063a 	andeq	r0, r0, sl, lsr r6
     e1c:	7ed89103 	atnvce	f1, f3
     e20:	0003db13 	andeq	sp, r3, r3, lsl fp
     e24:	2c8c0100 	stfcss	f0, [ip], {0}
     e28:	27000000 	strcs	r0, [r0, -r0]
     e2c:	15000009 	strne	r0, [r0, #-9]
     e30:	00008608 	andeq	r8, r0, r8, lsl #12
     e34:	000000b9 	strheq	r0, [r0], -r9
     e38:	0000047b 	andeq	r0, r0, fp, ror r4
     e3c:	02500116 	subseq	r0, r0, #-2147483643	; 0x80000005
     e40:	14000075 	strne	r0, [r0], #-117	; 0x75
     e44:	0000861c 	andeq	r8, r0, ip, lsl r6
     e48:	00000660 	andeq	r0, r0, r0, ror #12
     e4c:	00863015 	addeq	r3, r6, r5, lsl r0
     e50:	00066700 	andeq	r6, r6, r0, lsl #14
     e54:	0004b300 	andeq	fp, r4, r0, lsl #6
     e58:	53011600 	movwpl	r1, #5632	; 0x1600
     e5c:	16920802 	ldrne	r0, [r2], r2, lsl #16
     e60:	03055201 	movweq	r5, #20993	; 0x5201
     e64:	00009208 	andeq	r9, r0, r8, lsl #4
     e68:	05510116 	ldrbeq	r0, [r1, #-278]	; 0x116
     e6c:	00922803 	addseq	r2, r2, r3, lsl #16
     e70:	50011600 	andpl	r1, r1, r0, lsl #12
     e74:	92780305 	rsbsls	r0, r8, #335544320	; 0x14000000
     e78:	14000000 	strne	r0, [r0], #-0
     e7c:	00008634 	andeq	r8, r0, r4, lsr r6
     e80:	0000067d 	andeq	r0, r0, sp, ror r6
     e84:	0086a414 	addeq	sl, r6, r4, lsl r4
     e88:	00066000 	andeq	r6, r6, r0
     e8c:	86b81500 	ldrthi	r1, [r8], r0, lsl #10
     e90:	06670000 	strbteq	r0, [r7], -r0
     e94:	04f40000 	ldrbteq	r0, [r4], #0
     e98:	01160000 	tsteq	r6, r0
     e9c:	98080253 	stmdals	r8, {r0, r1, r4, r6, r9}
     ea0:	05520116 	ldrbeq	r0, [r2, #-278]	; 0x116
     ea4:	00920803 	addseq	r0, r2, r3, lsl #16
     ea8:	51011600 	tstpl	r1, r0, lsl #12
     eac:	92280305 	eorls	r0, r8, #335544320	; 0x14000000
     eb0:	01160000 	tsteq	r6, r0
     eb4:	94030550 	strls	r0, [r3], #-1360	; 0x550
     eb8:	00000092 	muleq	r0, r2, r0
     ebc:	0086bc14 	addeq	fp, r6, r4, lsl ip
     ec0:	00067d00 	andeq	r7, r6, r0, lsl #26
     ec4:	86e01500 	strbthi	r1, [r0], r0, lsl #10
     ec8:	019c0000 	orrseq	r0, ip, r0
     ecc:	052a0000 	streq	r0, [sl, #-0]!
     ed0:	01160000 	tsteq	r6, r0
     ed4:	80080252 	andhi	r0, r8, r2, asr r2
     ed8:	03510116 	cmpeq	r1, #-2147483643	; 0x80000005
     edc:	167ed091 			; <UNDEFINED> instruction: 0x167ed091
     ee0:	3a015001 	bcc	54eec <__bss_end__+0x4b7ec>
     ee4:	047d0216 	ldrbteq	r0, [sp], #-534	; 0x216
     ee8:	02163101 	andseq	r3, r6, #1073741824	; 0x40000000
     eec:	7702007d 	smlsdxvc	r2, sp, r0, r0
     ef0:	04150000 	ldreq	r0, [r5], #-0
     ef4:	9c000087 	stcls	0, cr0, [r0], {135}	; 0x87
     ef8:	58000001 	stmdapl	r0, {r0}
     efc:	16000005 	strne	r0, [r0], -r5
     f00:	08025201 	stmdaeq	r2, {r0, r9, ip, lr}
     f04:	51011680 	smlabbpl	r1, r0, r6, r1
     f08:	7ed09103 	atnvcs	f1, f3
     f0c:	01500116 	cmpeq	r0, r6, lsl r1
     f10:	7d02163a 	stcvc	6, cr1, [r2, #-232]	; 0xffffff18
     f14:	007b0204 	rsbseq	r0, fp, r4, lsl #4
     f18:	007d0216 	rsbseq	r0, sp, r6, lsl r2
     f1c:	00007702 	andeq	r7, r0, r2, lsl #14
     f20:	00872815 	addeq	r2, r7, r5, lsl r8
     f24:	00019c00 	andeq	r9, r1, r0, lsl #24
     f28:	00058600 	andeq	r8, r5, r0, lsl #12
     f2c:	52011600 	andpl	r1, r1, #0, 12
     f30:	16800802 	strne	r0, [r0], r2, lsl #16
     f34:	91035101 	tstls	r3, r1, lsl #2
     f38:	01167ed0 			; <UNDEFINED> instruction: 0x01167ed0
     f3c:	16400150 			; <UNDEFINED> instruction: 0x16400150
     f40:	02047d02 	andeq	r7, r4, #2, 26	; 0x80
     f44:	0216007b 	andseq	r0, r6, #123	; 0x7b
     f48:	7702007d 	smlsdxvc	r2, sp, r0, r0
     f4c:	4c150000 	ldcmi	0, cr0, [r5], {-0}
     f50:	9c000087 	stcls	0, cr0, [r0], {135}	; 0x87
     f54:	b4000001 	strlt	r0, [r0], #-1
     f58:	16000005 	strne	r0, [r0], -r5
     f5c:	08025201 	stmdaeq	r2, {r0, r9, ip, lr}
     f60:	51011680 	smlabbpl	r1, r0, r6, r1
     f64:	7ed09103 	atnvcs	f1, f3
     f68:	01500116 	cmpeq	r0, r6, lsl r1
     f6c:	7d021632 	stcvc	6, cr1, [r2, #-200]	; 0xffffff38
     f70:	007b0204 	rsbseq	r0, fp, r4, lsl #4
     f74:	007d0216 	rsbseq	r0, sp, r6, lsl r2
     f78:	00007702 	andeq	r7, r0, r2, lsl #14
     f7c:	00877c15 	addeq	r7, r7, r5, lsl ip
     f80:	00019c00 	andeq	r9, r1, r0, lsl #24
     f84:	0005e200 	andeq	lr, r5, r0, lsl #4
     f88:	52011600 	andpl	r1, r1, #0, 12
     f8c:	16800802 	strne	r0, [r0], r2, lsl #16
     f90:	91035101 	tstls	r3, r1, lsl #2
     f94:	01167ed0 			; <UNDEFINED> instruction: 0x01167ed0
     f98:	16380150 			; <UNDEFINED> instruction: 0x16380150
     f9c:	02047d02 	andeq	r7, r4, #2, 26	; 0x80
     fa0:	0216007b 	andseq	r0, r6, #123	; 0x7b
     fa4:	7702007d 	smlsdxvc	r2, sp, r0, r0
     fa8:	84140000 	ldrhi	r0, [r4], #-0
     fac:	60000087 	andvs	r0, r0, r7, lsl #1
     fb0:	15000006 	strne	r0, [r0, #-6]
     fb4:	000087a0 	andeq	r8, r0, r0, lsr #15
     fb8:	00000667 	andeq	r0, r0, r7, ror #12
     fbc:	0000061a 	andeq	r0, r0, sl, lsl r6
     fc0:	02530116 	subseq	r0, r3, #-2147483643	; 0x80000005
     fc4:	0116b908 	tsteq	r6, r8, lsl #18
     fc8:	08030552 	stmdaeq	r3, {r1, r4, r6, r8, sl}
     fcc:	16000092 			; <UNDEFINED> instruction: 0x16000092
     fd0:	03055101 	movweq	r5, #20737	; 0x5101
     fd4:	00009228 	andeq	r9, r0, r8, lsr #4
     fd8:	05500116 	ldrbeq	r0, [r0, #-278]	; 0x116
     fdc:	0092bc03 	addseq	fp, r2, r3, lsl #24
     fe0:	a4140000 	ldrge	r0, [r4], #-0
     fe4:	7d000087 	stcvc	0, cr0, [r0, #-540]	; 0xfffffde4
     fe8:	00000006 	andeq	r0, r0, r6
     fec:	007a1800 	rsbseq	r1, sl, r0, lsl #16
     ff0:	06350000 	ldrteq	r0, [r5], -r0
     ff4:	6b190000 	blvs	640ffc <__bss_end__+0x6378fc>
     ff8:	09000000 	stmdbeq	r0, {}	; <UNPREDICTABLE>
     ffc:	06250600 	strteq	r0, [r5], -r0, lsl #12
    1000:	7a180000 	bvc	601008 <__bss_end__+0x5f7908>
    1004:	4a000000 	bmi	100c <_start-0x6ff4>
    1008:	19000006 	stmdbne	r0, {r1, r2}
    100c:	0000006b 	andeq	r0, r0, fp, rrx
    1010:	761f007f 			; <UNDEFINED> instruction: 0x761f007f
    1014:	03000003 	movweq	r0, #3
    1018:	00038b1d 	andeq	r8, r3, sp, lsl fp
    101c:	03711f00 	cmneq	r1, #0, 30
    1020:	22030000 	andcs	r0, r3, #0
    1024:	000003a0 	andeq	r0, r0, r0, lsr #7
    1028:	0003e920 	andeq	lr, r3, r0, lsr #18
    102c:	211e0300 	tstcs	lr, r0, lsl #6
    1030:	000002fd 	strdeq	r0, [r0], -sp
    1034:	00252903 	eoreq	r2, r5, r3, lsl #18
    1038:	067d0000 	ldrbteq	r0, [sp], -r0
    103c:	811c0000 	tsthi	ip, r0
    1040:	22000000 	andcs	r0, r0, #0
    1044:	004f2000 	subeq	r2, pc, r0
    1048:	66030000 	strvs	r0, [r3], -r0
    104c:	0000ff00 	andeq	pc, r0, r0, lsl #30
    1050:	6b000400 	blvs	2058 <_start-0x5fa8>
    1054:	04000006 	streq	r0, [r0], #-6
    1058:	0002a301 	andeq	sl, r2, r1, lsl #6
    105c:	04080100 	streq	r0, [r8], #-256	; 0x100
    1060:	030e0000 	movweq	r0, #57344	; 0xe000
    1064:	880c0000 	stmdahi	ip, {}	; <UNPREDICTABLE>
    1068:	00280000 	eoreq	r0, r8, r0
    106c:	05560000 	ldrbeq	r0, [r6, #-0]
    1070:	04020000 	streq	r0, [r2], #-0
    1074:	746e6905 	strbtvc	r6, [lr], #-2309	; 0x905
    1078:	07040300 	streq	r0, [r4, -r0, lsl #6]
    107c:	00000042 	andeq	r0, r0, r2, asr #32
    1080:	ce060103 	adfgts	f0, f6, f3
    1084:	03000000 	movweq	r0, #0
    1088:	01790502 	cmneq	r9, r2, lsl #10
    108c:	04030000 	streq	r0, [r3], #-0
    1090:	00000505 	andeq	r0, r0, r5, lsl #10
    1094:	05080300 	streq	r0, [r8, #-768]	; 0x300
    1098:	00000000 	andeq	r0, r0, r0
    109c:	cc080103 	stfgts	f0, [r8], {3}
    10a0:	03000000 	movweq	r0, #0
    10a4:	00f90702 	rscseq	r0, r9, r2, lsl #14
    10a8:	04030000 	streq	r0, [r3], #-0
    10ac:	00003d07 	andeq	r3, r0, r7, lsl #26
    10b0:	07080300 	streq	r0, [r8, -r0, lsl #6]
    10b4:	00000038 	andeq	r0, r0, r8, lsr r0
    10b8:	83070403 	movwhi	r0, #29699	; 0x7403
    10bc:	03000001 	movweq	r0, #1
    10c0:	00d50801 	sbcseq	r0, r5, r1, lsl #16
    10c4:	04040000 	streq	r0, [r4], #-0
    10c8:	0000007f 	andeq	r0, r0, pc, ror r0
    10cc:	00007205 	andeq	r7, r0, r5, lsl #4
    10d0:	004f0600 	subeq	r0, pc, r0, lsl #12
    10d4:	04010000 	streq	r0, [r1], #-0
    10d8:	0000880c 	andeq	r8, r0, ip, lsl #16
    10dc:	00000028 	andeq	r0, r0, r8, lsr #32
    10e0:	00ca9c01 	sbceq	r9, sl, r1, lsl #24
    10e4:	20070000 	andcs	r0, r7, r0
    10e8:	ac000088 	stcge	0, cr0, [r0], {136}	; 0x88
    10ec:	08000000 	stmdaeq	r0, {}	; <UNPREDICTABLE>
    10f0:	03055001 	movweq	r5, #20481	; 0x5001
    10f4:	000092f4 	strdeq	r9, [r0], -r4
    10f8:	88280900 	stmdahi	r8!, {r8, fp}
    10fc:	00ea0000 	rsceq	r0, sl, r0
    1100:	00c00000 	sbceq	r0, r0, r0
    1104:	01080000 	mrseq	r0, (UNDEF: 8)
    1108:	64080250 	strvs	r0, [r8], #-592	; 0x250
    110c:	882c0a00 	stmdahi	ip!, {r9, fp}
    1110:	00fb0000 	rscseq	r0, fp, r0
    1114:	0b000000 	bleq	111c <_start-0x6ee4>
    1118:	00000025 	andeq	r0, r0, r5, lsr #32
    111c:	000000d9 	ldrdeq	r0, [r0], -r9
    1120:	0000790c 	andeq	r7, r0, ip, lsl #18
    1124:	710d0000 	mrsvc	r0, (UNDEF: 13)
    1128:	02000003 	andeq	r0, r0, #3
    112c:	0000e422 	andeq	lr, r0, r2, lsr #8
    1130:	ca040400 	bgt	102138 <__bss_end__+0xf8a38>
    1134:	0e000000 	cdpeq	0, 0, cr0, cr0, cr0, {0}
    1138:	0000010c 	andeq	r0, r0, ip, lsl #2
    113c:	00fb5002 	rscseq	r5, fp, r2
    1140:	2c0c0000 	stccs	0, cr0, [ip], {-0}
    1144:	00000000 	andeq	r0, r0, r0
    1148:	0003fd0f 	andeq	pc, r3, pc, lsl #26
    114c:	00630200 	rsbeq	r0, r3, r0, lsl #4
    1150:	000000ff 	strdeq	r0, [r0], -pc	; <UNPREDICTABLE>
    1154:	07350004 	ldreq	r0, [r5, -r4]!
    1158:	01040000 	mrseq	r0, (UNDEF: 4)
    115c:	000002a3 	andeq	r0, r0, r3, lsr #5
    1160:	00042201 	andeq	r2, r4, r1, lsl #4
    1164:	00030e00 	andeq	r0, r3, r0, lsl #28
    1168:	00883400 	addeq	r3, r8, r0, lsl #8
    116c:	00003400 	andeq	r3, r0, r0, lsl #8
    1170:	0005ed00 	andeq	lr, r5, r0, lsl #26
    1174:	05040200 	streq	r0, [r4, #-512]	; 0x200
    1178:	00746e69 	rsbseq	r6, r4, r9, ror #28
    117c:	42070403 	andmi	r0, r7, #50331648	; 0x3000000
    1180:	03000000 	movweq	r0, #0
    1184:	00ce0601 	sbceq	r0, lr, r1, lsl #12
    1188:	02030000 	andeq	r0, r3, #0
    118c:	00017905 	andeq	r7, r1, r5, lsl #18
    1190:	05040300 	streq	r0, [r4, #-768]	; 0x300
    1194:	00000005 	andeq	r0, r0, r5
    1198:	00050803 	andeq	r0, r5, r3, lsl #16
    119c:	03000000 	movweq	r0, #0
    11a0:	00cc0801 	sbceq	r0, ip, r1, lsl #16
    11a4:	02030000 	andeq	r0, r3, #0
    11a8:	0000f907 	andeq	pc, r0, r7, lsl #18
    11ac:	07040300 	streq	r0, [r4, -r0, lsl #6]
    11b0:	0000003d 	andeq	r0, r0, sp, lsr r0
    11b4:	38070803 	stmdacc	r7, {r0, r1, fp}
    11b8:	03000000 	movweq	r0, #0
    11bc:	01830704 	orreq	r0, r3, r4, lsl #14
    11c0:	01030000 	mrseq	r0, (UNDEF: 3)
    11c4:	0000d508 	andeq	sp, r0, r8, lsl #10
    11c8:	04580400 	ldrbeq	r0, [r8], #-1024	; 0x400
    11cc:	0d010000 	stceq	0, cr0, [r1, #-0]
    11d0:	00008834 	andeq	r8, r0, r4, lsr r8
    11d4:	00000034 	andeq	r0, r0, r4, lsr r0
    11d8:	00d89c01 	sbcseq	r9, r8, r1, lsl #24
    11dc:	36050000 	strcc	r0, [r5], -r0
    11e0:	01000004 	tsteq	r0, r4
    11e4:	0000250e 	andeq	r2, r0, lr, lsl #10
    11e8:	04440500 	strbeq	r0, [r4], #-1280	; 0x500
    11ec:	0e010000 	cdpeq	0, 0, cr0, cr1, cr0, {0}
    11f0:	00000025 	andeq	r0, r0, r5, lsr #32
    11f4:	0000f106 	andeq	pc, r0, r6, lsl #2
    11f8:	070f0100 	streq	r0, [pc, -r0, lsl #2]
    11fc:	00737362 	rsbseq	r7, r3, r2, ror #6
    1200:	00d81101 	sbcseq	r1, r8, r1, lsl #2
    1204:	09510000 	ldmdbeq	r1, {}^	; <UNPREDICTABLE>
    1208:	50080000 	andpl	r0, r8, r0
    120c:	01000004 	tsteq	r0, r4
    1210:	0000d812 	andeq	sp, r0, r2, lsl r8
    1214:	885c0900 	ldmdahi	ip, {r8, fp}^
    1218:	00f40000 	rscseq	r0, r4, r0
    121c:	60090000 	andvs	r0, r9, r0
    1220:	fb000088 	blx	144a <_start-0x6bb6>
    1224:	00000000 	andeq	r0, r0, r0
    1228:	0025040a 	eoreq	r0, r5, sl, lsl #8
    122c:	36050000 	strcc	r0, [r5], -r0
    1230:	01000004 	tsteq	r0, r4
    1234:	0000250e 	andeq	r2, r0, lr, lsl #10
    1238:	04440500 	strbeq	r0, [r4], #-1280	; 0x500
    123c:	0e010000 	cdpeq	0, 0, cr0, cr1, cr0, {0}
    1240:	00000025 	andeq	r0, r0, r5, lsr #32
    1244:	0000f106 	andeq	pc, r0, r6, lsl #2
    1248:	06d80200 	ldrbeq	r0, [r8], r0, lsl #4
    124c:	000003fd 	strdeq	r0, [r0], -sp
    1250:	ad006302 	stcge	3, cr6, [r0, #-8]
    1254:	04000001 	streq	r0, [r0], #-1
    1258:	0007c900 	andeq	ip, r7, r0, lsl #18
    125c:	a3010400 	movwge	r0, #5120	; 0x1400
    1260:	01000002 	tsteq	r0, r2
    1264:	0000047a 	andeq	r0, r0, sl, ror r4
    1268:	0000030e 	andeq	r0, r0, lr, lsl #6
    126c:	00000018 	andeq	r0, r0, r8, lsl r0
    1270:	00000000 	andeq	r0, r0, r0
    1274:	0000068b 	andeq	r0, r0, fp, lsl #13
    1278:	69050402 	stmdbvs	r5, {r1, sl}
    127c:	0300746e 	movweq	r7, #1134	; 0x46e
    1280:	00420704 	subeq	r0, r2, r4, lsl #14
    1284:	01030000 	mrseq	r0, (UNDEF: 3)
    1288:	0000ce06 	andeq	ip, r0, r6, lsl #28
    128c:	05020300 	streq	r0, [r2, #-768]	; 0x300
    1290:	00000179 	andeq	r0, r0, r9, ror r1
    1294:	05050403 	streq	r0, [r5, #-1027]	; 0x403
    1298:	03000000 	movweq	r0, #0
    129c:	00000508 	andeq	r0, r0, r8, lsl #10
    12a0:	01030000 	mrseq	r0, (UNDEF: 3)
    12a4:	0000cc08 	andeq	ip, r0, r8, lsl #24
    12a8:	07020300 	streq	r0, [r2, -r0, lsl #6]
    12ac:	000000f9 	strdeq	r0, [r0], -r9
    12b0:	3d070403 	cfstrscc	mvf0, [r7, #-12]
    12b4:	03000000 	movweq	r0, #0
    12b8:	00380708 	eorseq	r0, r8, r8, lsl #14
    12bc:	04030000 	streq	r0, [r3], #-0
    12c0:	00018307 	andeq	r8, r1, r7, lsl #6
    12c4:	08010300 	stmdaeq	r1, {r8, r9}
    12c8:	000000d5 	ldrdeq	r0, [r0], -r5
    12cc:	00046004 	andeq	r6, r4, r4
    12d0:	250e0100 	strcs	r0, [lr, #-256]	; 0x100
    12d4:	68000000 	stmdavs	r0, {}	; <UNPREDICTABLE>
    12d8:	18000088 	stmdane	r0, {r3, r7}
    12dc:	01000000 	mrseq	r0, (UNDEF: 0)
    12e0:	0000a29c 	muleq	r0, ip, r2
    12e4:	04cc0500 	strbeq	r0, [ip], #1280	; 0x500
    12e8:	0f010000 	svceq	0x00010000
    12ec:	0000002c 	andeq	r0, r0, ip, lsr #32
    12f0:	00000971 	andeq	r0, r0, r1, ror r9
    12f4:	04af0600 	strteq	r0, [pc], #1536	; 12fc <_start-0x6d04>
    12f8:	17010000 	strne	r0, [r1, -r0]
    12fc:	00008880 	andeq	r8, r0, r0, lsl #17
    1300:	00000014 	andeq	r0, r0, r4, lsl r0
    1304:	00c79c01 	sbceq	r9, r7, r1, lsl #24
    1308:	cc050000 	stcgt	0, cr0, [r5], {-0}
    130c:	01000004 	tsteq	r0, r4
    1310:	00002c18 	andeq	r2, r0, r8, lsl ip
    1314:	00099000 	andeq	r9, r9, r0
    1318:	fd060000 	stc2	0, cr0, [r6, #-0]
    131c:	01000003 	tsteq	r0, r3
    1320:	0088941f 	addeq	r9, r8, pc, lsl r4
    1324:	00004800 	andeq	r4, r0, r0, lsl #16
    1328:	779c0100 	ldrvc	r0, [ip, r0, lsl #2]
    132c:	07000001 	streq	r0, [r0, -r1]
    1330:	000004c4 	andeq	r0, r0, r4, asr #9
    1334:	01772a01 	cmneq	r7, r1, lsl #20
    1338:	001c0000 	andseq	r0, ip, r0
    133c:	a7072010 	smladge	r7, r0, r0, r2
    1340:	01000004 	tsteq	r0, r4
    1344:	0001772b 	andeq	r7, r1, fp, lsr #14
    1348:	10002400 	andne	r2, r0, r0, lsl #8
    134c:	046e0720 	strbteq	r0, [lr], #-1824	; 0x720
    1350:	2c010000 	stccs	0, cr0, [r1], {-0}
    1354:	00000177 	andeq	r0, r0, r7, ror r1
    1358:	5a000000 	bpl	1360 <_start-0x6ca0>
    135c:	00048e08 	andeq	r8, r4, r8, lsl #28
    1360:	772d0100 	strvc	r0, [sp, -r0, lsl #2]!
    1364:	20000001 	andcs	r0, r0, r1
    1368:	00889c09 	addeq	r9, r8, r9, lsl #24
    136c:	00007900 	andeq	r7, r0, r0, lsl #18
    1370:	88a80900 	stmiahi	r8!, {r8, fp}
    1374:	00a20000 	adceq	r0, r2, r0
    1378:	b00a0000 	andlt	r0, sl, r0
    137c:	8d000088 	stchi	0, cr0, [r0, #-544]	; 0xfffffde0
    1380:	3a000001 	bcc	138c <_start-0x6c74>
    1384:	0b000001 	bleq	1390 <_start-0x6c70>
    1388:	4e015001 	cdpmi	0, 0, cr5, cr1, cr1, {0}
    138c:	88bc0a00 	ldmhi	ip!, {r9, fp}
    1390:	019e0000 	orrseq	r0, lr, r0
    1394:	015a0000 	cmpeq	sl, r0
    1398:	010b0000 	mrseq	r0, (UNDEF: 11)
    139c:	010c0551 	tsteq	ip, r1, asr r5
    13a0:	0b5a0000 	bleq	16813a8 <__bss_end__+0x1677ca8>
    13a4:	0c055001 	stceq	0, cr5, [r5], {1}
    13a8:	20100024 	andscs	r0, r0, r4, lsr #32
    13ac:	88c80c00 	stmiahi	r8, {sl, fp}^
    13b0:	019e0000 	orrseq	r0, lr, r0
    13b4:	010b0000 	mrseq	r0, (UNDEF: 11)
    13b8:	200c0551 	andcs	r0, ip, r1, asr r5
    13bc:	0b5a0000 	bleq	16813c4 <__bss_end__+0x1677cc4>
    13c0:	0c055001 	stceq	0, cr5, [r5], {1}
    13c4:	2010001c 	andscs	r0, r0, ip, lsl r0
    13c8:	250d0000 	strcs	r0, [sp, #-0]
    13cc:	08000000 	stmdaeq	r0, {}	; <UNPREDICTABLE>
    13d0:	00000463 	andeq	r0, r0, r3, ror #8
    13d4:	01880d01 	orreq	r0, r8, r1, lsl #26
    13d8:	0d100000 	ldceq	0, cr0, [r0, #-0]
    13dc:	0000002c 	andeq	r0, r0, ip, lsr #32
    13e0:	00010c0e 	andeq	r0, r1, lr, lsl #24
    13e4:	9e500200 	cdpls	2, 5, cr0, cr0, cr0, {0}
    13e8:	0f000001 	svceq	0x00000001
    13ec:	0000002c 	andeq	r0, r0, ip, lsr #32
    13f0:	04be1000 	ldrteq	r1, [lr], #0
    13f4:	9c020000 	stcls	0, cr0, [r2], {-0}
    13f8:	00002c0f 	andeq	r2, r0, pc, lsl #24
    13fc:	002c0f00 	eoreq	r0, ip, r0, lsl #30
    1400:	00000000 	andeq	r0, r0, r0
    1404:	000001d8 	ldrdeq	r0, [r0], -r8
    1408:	08b70004 	ldmeq	r7!, {r2}
    140c:	01040000 	mrseq	r0, (UNDEF: 4)
    1410:	000002a3 	andeq	r0, r0, r3, lsr #5
    1414:	0004ee01 	andeq	lr, r4, r1, lsl #28
    1418:	00030e00 	andeq	r0, r3, r0, lsl #28
    141c:	0088dc00 	addeq	sp, r8, r0, lsl #24
    1420:	00008800 	andeq	r8, r0, r0, lsl #16
    1424:	00072800 	andeq	r2, r7, r0, lsl #16
    1428:	05040200 	streq	r0, [r4, #-512]	; 0x200
    142c:	00746e69 	rsbseq	r6, r4, r9, ror #28
    1430:	42070403 	andmi	r0, r7, #50331648	; 0x3000000
    1434:	03000000 	movweq	r0, #0
    1438:	00ce0601 	sbceq	r0, lr, r1, lsl #12
    143c:	02030000 	andeq	r0, r3, #0
    1440:	00017905 	andeq	r7, r1, r5, lsl #18
    1444:	05040300 	streq	r0, [r4, #-768]	; 0x300
    1448:	00000005 	andeq	r0, r0, r5
    144c:	00050803 	andeq	r0, r5, r3, lsl #16
    1450:	03000000 	movweq	r0, #0
    1454:	00cc0801 	sbceq	r0, ip, r1, lsl #16
    1458:	02030000 	andeq	r0, r3, #0
    145c:	0000f907 	andeq	pc, r0, r7, lsl #18
    1460:	07040300 	streq	r0, [r4, -r0, lsl #6]
    1464:	0000003d 	andeq	r0, r0, sp, lsr r0
    1468:	38070803 	stmdacc	r7, {r0, r1, fp}
    146c:	03000000 	movweq	r0, #0
    1470:	01830704 	orreq	r0, r3, r4, lsl #14
    1474:	01030000 	mrseq	r0, (UNDEF: 3)
    1478:	0000d508 	andeq	sp, r0, r8, lsl #10
    147c:	050d0400 	streq	r0, [sp, #-1024]	; 0x400
    1480:	05010000 	streq	r0, [r1, #-0]
    1484:	000088dc 	ldrdeq	r8, [r0], -ip
    1488:	0000001c 	andeq	r0, r0, ip, lsl r0
    148c:	009e9c01 	addseq	r9, lr, r1, lsl #24
    1490:	07050000 	streq	r0, [r5, -r0]
    1494:	01000005 	tsteq	r0, r5
    1498:	00002c05 	andeq	r2, r0, r5, lsl #24
    149c:	0009ba00 	andeq	fp, r9, r0, lsl #20
    14a0:	d1060000 	mrsle	r0, (UNDEF: 6)
    14a4:	01000004 	tsteq	r0, r4
    14a8:	00002c11 	andeq	r2, r0, r1, lsl ip
    14ac:	0088f800 	addeq	pc, r8, r0, lsl #16
    14b0:	00001400 	andeq	r1, r0, r0, lsl #8
    14b4:	cb9c0100 	blgt	fe7018bc <__bss_end__+0xfe6f81bc>
    14b8:	07000000 	streq	r0, [r0, -r0]
    14bc:	00008904 	andeq	r8, r0, r4, lsl #18
    14c0:	000001ca 	andeq	r0, r0, sl, asr #3
    14c4:	05500108 	ldrbeq	r0, [r0, #-264]	; 0x108
    14c8:	0030040c 	eorseq	r0, r0, ip, lsl #8
    14cc:	06000020 	streq	r0, [r0], -r0, lsr #32
    14d0:	000001aa 	andeq	r0, r0, sl, lsr #3
    14d4:	002c1601 	eoreq	r1, ip, r1, lsl #12
    14d8:	890c0000 	stmdbhi	ip, {}	; <UNPREDICTABLE>
    14dc:	000c0000 	andeq	r0, ip, r0
    14e0:	9c010000 	stcls	0, cr0, [r1], {-0}
    14e4:	000000f9 	strdeq	r0, [r0], -r9
    14e8:	01007509 	tsteq	r0, r9, lsl #10
    14ec:	00002c1a 	andeq	r2, r0, sl, lsl ip
    14f0:	0a500100 	beq	14018f8 <__bss_end__+0x13f81f8>
    14f4:	00008914 	andeq	r8, r0, r4, lsl r9
    14f8:	0000009e 	muleq	r0, lr, r0
    14fc:	02460400 	subeq	r0, r6, #0, 8
    1500:	1f010000 	svcne	0x00010000
    1504:	00008918 	andeq	r8, r0, r8, lsl r9
    1508:	00000024 	andeq	r0, r0, r4, lsr #32
    150c:	01579c01 	cmpeq	r7, r1, lsl #24
    1510:	750b0000 	strvc	r0, [fp, #-0]
    1514:	1f010073 	svcne	0x00010073
    1518:	0000002c 	andeq	r0, r0, ip, lsr #32
    151c:	000009ee 	andeq	r0, r0, lr, ror #19
    1520:	00627209 	rsbeq	r7, r2, r9, lsl #4
    1524:	002c2001 	eoreq	r2, ip, r1
    1528:	54010000 	strpl	r0, [r1], #-0
    152c:	0089280c 	addeq	r2, r9, ip, lsl #16
    1530:	00001000 	andeq	r1, r0, r0
    1534:	00014d00 	andeq	r4, r1, r0, lsl #26
    1538:	61720d00 	cmnvs	r2, r0, lsl #26
    153c:	2c220100 	stfcss	f0, [r2], #-0
    1540:	0c000000 	stceq	0, cr0, [r0], {-0}
    1544:	0a00000a 	beq	1574 <_start-0x6a8c>
    1548:	0000892c 	andeq	r8, r0, ip, lsr #18
    154c:	000000cb 	andeq	r0, r0, fp, asr #1
    1550:	89240a00 	stmdbhi	r4!, {r9, fp}
    1554:	00cb0000 	sbceq	r0, fp, r0
    1558:	04000000 	streq	r0, [r0], #-0
    155c:	0000010c 	andeq	r0, r0, ip, lsl #2
    1560:	893c2801 	ldmdbhi	ip!, {r0, fp, sp}
    1564:	00140000 	andseq	r0, r4, r0
    1568:	9c010000 	stcls	0, cr0, [r1], {-0}
    156c:	00000190 	muleq	r0, r0, r1
    1570:	00736d0b 	rsbseq	r6, r3, fp, lsl #26
    1574:	002c2801 	eoreq	r2, ip, r1, lsl #16
    1578:	0a1f0000 	beq	7c1580 <__bss_end__+0x7b7e80>
    157c:	4c070000 	stcmi	0, cr0, [r7], {-0}
    1580:	f9000089 			; <UNDEFINED> instruction: 0xf9000089
    1584:	08000000 	stmdaeq	r0, {}	; <UNPREDICTABLE>
    1588:	f3075001 	vhadd.u8	d5, d7, d1
    158c:	e80a5001 	stmda	sl, {r0, ip, lr}
    1590:	00001e03 	andeq	r1, r0, r3, lsl #28
    1594:	0004e404 	andeq	lr, r4, r4, lsl #8
    1598:	502b0100 	eorpl	r0, fp, r0, lsl #2
    159c:	14000089 	strne	r0, [r0], #-137	; 0x89
    15a0:	01000000 	mrseq	r0, (UNDEF: 0)
    15a4:	0001ca9c 	muleq	r1, ip, sl
    15a8:	65730b00 	ldrbvs	r0, [r3, #-2816]!	; 0xb00
    15ac:	2b010063 	blcs	41740 <__bss_end__+0x38040>
    15b0:	0000002c 	andeq	r0, r0, ip, lsr #32
    15b4:	00000a40 	andeq	r0, r0, r0, asr #20
    15b8:	00896007 	addeq	r6, r9, r7
    15bc:	00015700 	andeq	r5, r1, r0, lsl #14
    15c0:	50010800 	andpl	r0, r1, r0, lsl #16
    15c4:	5001f307 	andpl	pc, r1, r7, lsl #6
    15c8:	1e03e80a 	cdpne	8, 0, cr14, cr3, cr10, {0}
    15cc:	010e0000 	mrseq	r0, (UNDEF: 14)
    15d0:	02000005 	andeq	r0, r0, #5
    15d4:	00002ca8 	andeq	r2, r0, r8, lsr #25
    15d8:	002c0f00 	eoreq	r0, ip, r0, lsl #30
    15dc:	00000000 	andeq	r0, r0, r0
    15e0:	00000882 	andeq	r0, r0, r2, lsl #17
    15e4:	099a0004 	ldmibeq	sl, {r2}
    15e8:	01040000 	mrseq	r0, (UNDEF: 4)
    15ec:	000002a3 	andeq	r0, r0, r3, lsr #5
    15f0:	00056701 	andeq	r6, r5, r1, lsl #14
    15f4:	00030e00 	andeq	r0, r3, r0, lsl #28
    15f8:	00896400 	addeq	r6, r9, r0, lsl #8
    15fc:	0005a000 	andeq	sl, r5, r0
    1600:	0007cf00 	andeq	ip, r7, r0, lsl #30
    1604:	07080200 	streq	r0, [r8, -r0, lsl #4]
    1608:	00000038 	andeq	r0, r0, r8, lsr r0
    160c:	42070402 	andmi	r0, r7, #33554432	; 0x2000000
    1610:	02000000 	andeq	r0, r0, #0
    1614:	00ce0601 	sbceq	r0, lr, r1, lsl #12
    1618:	02020000 	andeq	r0, r2, #0
    161c:	00017905 	andeq	r7, r1, r5, lsl #18
    1620:	05040200 	streq	r0, [r4, #-512]	; 0x200
    1624:	00000005 	andeq	r0, r0, r5
    1628:	00050802 	andeq	r0, r5, r2, lsl #16
    162c:	02000000 	andeq	r0, r0, #0
    1630:	00cc0801 	sbceq	r0, ip, r1, lsl #16
    1634:	02020000 	andeq	r0, r2, #0
    1638:	0000f907 	andeq	pc, r0, r7, lsl #18
    163c:	07040200 	streq	r0, [r4, -r0, lsl #4]
    1640:	0000003d 	andeq	r0, r0, sp, lsr r0
    1644:	69050403 	stmdbvs	r5, {r0, r1, sl}
    1648:	0200746e 	andeq	r7, r0, #1845493760	; 0x6e000000
    164c:	01830704 	orreq	r0, r3, r4, lsl #14
    1650:	01020000 	mrseq	r0, (UNDEF: 2)
    1654:	0000d508 	andeq	sp, r0, r8, lsl #10
    1658:	02010400 	andeq	r0, r1, #0, 8
    165c:	0000b20c 	andeq	fp, r0, ip, lsl #4
    1660:	05570500 	ldrbeq	r0, [r7, #-1280]	; 0x500
    1664:	05000000 	streq	r0, [r0, #-0]
    1668:	00000692 	muleq	r0, r2, r6
    166c:	06cb0501 	strbeq	r0, [fp], r1, lsl #10
    1670:	05040000 	streq	r0, [r4, #-0]
    1674:	000006da 	ldrdeq	r0, [r0], -sl
    1678:	06e90505 	strbteq	r0, [r9], r5, lsl #10
    167c:	05060000 	streq	r0, [r6, #-0]
    1680:	000006f8 	strdeq	r0, [r0], -r8
    1684:	07070507 	streq	r0, [r7, -r7, lsl #10]
    1688:	05030000 	streq	r0, [r3, #-0]
    168c:	00000716 	andeq	r0, r0, r6, lsl r7
    1690:	bf060002 	svclt	0x00060002
    1694:	02000006 	andeq	r0, r0, #6
    1698:	00007915 	andeq	r7, r0, r5, lsl r9
    169c:	020a0700 	andeq	r0, sl, #0, 14
    16a0:	3f010000 	svccc	0x00010000
    16a4:	00008964 	andeq	r8, r0, r4, ror #18
    16a8:	000000d4 	ldrdeq	r0, [r0], -r4
    16ac:	01339c01 	teqeq	r3, r1, lsl #24
    16b0:	70080000 	andvc	r0, r8, r0
    16b4:	01006e69 	tsteq	r0, r9, ror #28
    16b8:	00002c3f 	andeq	r2, r0, pc, lsr ip
    16bc:	000a6100 	andeq	r6, sl, r0, lsl #2
    16c0:	05a30900 	streq	r0, [r3, #2304]!	; 0x900
    16c4:	47010000 	strmi	r0, [r1, -r0]
    16c8:	00000133 	andeq	r0, r0, r3, lsr r1
    16cc:	00000a7f 	andeq	r0, r0, pc, ror sl
    16d0:	00072509 	andeq	r2, r7, r9, lsl #10
    16d4:	2c490100 	stfcse	f0, [r9], {-0}
    16d8:	d4000000 	strle	r0, [r0], #-0
    16dc:	0900000a 	stmdbeq	r0, {r1, r3}
    16e0:	00000648 	andeq	r0, r0, r8, asr #12
    16e4:	002c5701 	eoreq	r5, ip, r1, lsl #14
    16e8:	0ca00000 	stceq	0, cr0, [r0]
    16ec:	f80a0000 			; <UNDEFINED> instruction: 0xf80a0000
    16f0:	41000089 	smlabbmi	r0, r9, r0, r0
    16f4:	22000008 	andcs	r0, r0, #8
    16f8:	0b000001 	bleq	1704 <_start-0x68fc>
    16fc:	75025001 	strvc	r5, [r2, #-1]
    1700:	2c0c0000 	stccs	0, cr0, [ip], {-0}
    1704:	6200008a 	andvs	r0, r0, #138	; 0x8a
    1708:	0b000008 	bleq	1730 <_start-0x68d0>
    170c:	75025001 	strvc	r5, [r2, #-1]
    1710:	0d000000 	stceq	0, cr0, [r0, #-0]
    1714:	00013904 	andeq	r3, r1, r4, lsl #18
    1718:	002c0e00 	eoreq	r0, ip, r0, lsl #28
    171c:	7a070000 	bvc	1c1724 <__bss_end__+0x1b8024>
    1720:	01000002 	tsteq	r0, r2
    1724:	008a3860 	addeq	r3, sl, r0, ror #16
    1728:	00003800 	andeq	r3, r0, r0, lsl #16
    172c:	969c0100 	ldrls	r0, [ip], r0, lsl #2
    1730:	08000001 	stmdaeq	r0, {r0}
    1734:	006e6970 	rsbeq	r6, lr, r0, ror r9
    1738:	002c6001 	eoreq	r6, ip, r1
    173c:	0cd00000 	ldcleq	0, cr0, [r0], {0}
    1740:	a3090000 	movwge	r0, #36864	; 0x9000
    1744:	01000005 	tsteq	r0, r5
    1748:	00013367 	andeq	r3, r1, r7, ror #6
    174c:	000cf100 	andeq	pc, ip, r0, lsl #2
    1750:	06480900 	strbeq	r0, [r8], -r0, lsl #18
    1754:	68010000 	stmdavs	r1, {}	; <UNPREDICTABLE>
    1758:	0000002c 	andeq	r0, r0, ip, lsr #32
    175c:	00000d27 	andeq	r0, r0, r7, lsr #26
    1760:	008a680c 	addeq	r6, sl, ip, lsl #16
    1764:	00086200 	andeq	r6, r8, r0, lsl #4
    1768:	51010b00 	tstpl	r1, r0, lsl #22
    176c:	01f33107 	mvnseq	r3, r7, lsl #2
    1770:	241a4f50 	ldrcs	r4, [sl], #-3920	; 0xf50
    1774:	f2070000 	vhadd.s8	d0, d7, d0
    1778:	01000001 	tsteq	r0, r1
    177c:	008a707b 	addeq	r7, sl, fp, ror r0
    1780:	00003800 	andeq	r3, r0, r0, lsl #16
    1784:	ee9c0100 	fmle	f0, f4, f0
    1788:	08000001 	stmdaeq	r0, {r0}
    178c:	006e6970 	rsbeq	r6, lr, r0, ror r9
    1790:	002c7b01 	eoreq	r7, ip, r1, lsl #22
    1794:	0d670000 	stcleq	0, cr0, [r7, #-0]
    1798:	a3090000 	movwge	r0, #36864	; 0x9000
    179c:	01000005 	tsteq	r0, r5
    17a0:	00013381 	andeq	r3, r1, r1, lsl #7
    17a4:	000d8800 	andeq	r8, sp, r0, lsl #16
    17a8:	06480900 	strbeq	r0, [r8], -r0, lsl #18
    17ac:	82010000 	andhi	r0, r1, #0
    17b0:	0000002c 	andeq	r0, r0, ip, lsr #32
    17b4:	00000dbe 			; <UNDEFINED> instruction: 0x00000dbe
    17b8:	008aa00c 	addeq	sl, sl, ip
    17bc:	00086200 	andeq	r6, r8, r0, lsl #4
    17c0:	51010b00 	tstpl	r1, r0, lsl #22
    17c4:	01f33107 	mvnseq	r3, r7, lsl #2
    17c8:	241a4f50 	ldrcs	r4, [sl], #-3920	; 0xf50
    17cc:	d9070000 	stmdble	r7, {}	; <UNPREDICTABLE>
    17d0:	01000001 	tsteq	r0, r1
    17d4:	008aa895 	umulleq	sl, sl, r5, r8	; <UNPREDICTABLE>
    17d8:	0000cc00 	andeq	ip, r0, r0, lsl #24
    17dc:	649c0100 	ldrvs	r0, [ip], #256	; 0x100
    17e0:	08000002 	stmdaeq	r0, {r1}
    17e4:	006e6970 	rsbeq	r6, lr, r0, ror r9
    17e8:	002c9501 	eoreq	r9, ip, r1, lsl #10
    17ec:	0dfe0000 	ldcleq	0, cr0, [lr]
    17f0:	a3090000 	movwge	r0, #36864	; 0x9000
    17f4:	01000005 	tsteq	r0, r5
    17f8:	0001339b 	muleq	r1, fp, r3
    17fc:	000e1c00 	andeq	r1, lr, r0, lsl #24
    1800:	07250900 	streq	r0, [r5, -r0, lsl #18]!
    1804:	9d010000 	stcls	0, cr0, [r1, #-0]
    1808:	0000002c 	andeq	r0, r0, ip, lsr #32
    180c:	00000e71 	andeq	r0, r0, r1, ror lr
    1810:	00064809 	andeq	r4, r6, r9, lsl #16
    1814:	2cab0100 	stfcss	f0, [fp]
    1818:	3d000000 	stccc	0, cr0, [r0, #-0]
    181c:	0a000010 	beq	1864 <_start-0x679c>
    1820:	00008b3c 	andeq	r8, r0, ip, lsr fp
    1824:	00000841 	andeq	r0, r0, r1, asr #16
    1828:	00000253 	andeq	r0, r0, r3, asr r2
    182c:	0250010b 	subseq	r0, r0, #-1073741822	; 0xc0000002
    1830:	0c000075 	stceq	0, cr0, [r0], {117}	; 0x75
    1834:	00008b68 	andeq	r8, r0, r8, ror #22
    1838:	00000862 	andeq	r0, r0, r2, ror #16
    183c:	0250010b 	subseq	r0, r0, #-1073741822	; 0xc0000002
    1840:	00000075 	andeq	r0, r0, r5, ror r0
    1844:	0001e80f 	andeq	lr, r1, pc, lsl #16
    1848:	64b20100 	ldrtvs	r0, [r2], #256	; 0x100
    184c:	74000000 	strvc	r0, [r0], #-0
    1850:	4c00008b 	stcmi	0, cr0, [r0], {139}	; 0x8b
    1854:	01000000 	mrseq	r0, (UNDEF: 0)
    1858:	0002ac9c 	muleq	r2, ip, ip
    185c:	69700800 	ldmdbvs	r0!, {fp}^
    1860:	b201006e 	andlt	r0, r1, #110	; 0x6e
    1864:	0000002c 	andeq	r0, r0, ip, lsr #32
    1868:	0000105b 	andeq	r1, r0, fp, asr r0
    186c:	01007610 	tsteq	r0, r0, lsl r6
    1870:	00002cb8 			; <UNDEFINED> instruction: 0x00002cb8
    1874:	0010b300 	andseq	fp, r0, r0, lsl #6
    1878:	8b941100 	blhi	fe505c80 <__bss_end__+0xfe4fc580>
    187c:	08410000 	stmdaeq	r1, {}^	; <UNPREDICTABLE>
    1880:	a4110000 	ldrge	r0, [r1], #-0
    1884:	4100008b 	smlabbmi	r0, fp, r0, r0
    1888:	00000008 	andeq	r0, r0, r8
    188c:	00065007 	andeq	r5, r6, r7
    1890:	c0c40100 	sbcgt	r0, r4, r0, lsl #2
    1894:	2400008b 	strcs	r0, [r0], #-139	; 0x8b
    1898:	01000000 	mrseq	r0, (UNDEF: 0)
    189c:	0002fc9c 	muleq	r2, ip, ip
    18a0:	69700800 	ldmdbvs	r0!, {fp}^
    18a4:	c401006e 	strgt	r0, [r1], #-110	; 0x6e
    18a8:	0000002c 	andeq	r0, r0, ip, lsr #32
    18ac:	000010e9 	andeq	r1, r0, r9, ror #1
    18b0:	01007608 	tsteq	r0, r8, lsl #12
    18b4:	00002cc4 	andeq	r2, r0, r4, asr #25
    18b8:	00112300 	andseq	r2, r1, r0, lsl #6
    18bc:	8bd80a00 	blhi	ff6040c4 <__bss_end__+0xff5fa9c4>
    18c0:	013e0000 	teqeq	lr, r0
    18c4:	02f20000 	rscseq	r0, r2, #0
    18c8:	010b0000 	mrseq	r0, (UNDEF: 11)
    18cc:	01f30350 	mvnseq	r0, r0, asr r3
    18d0:	e0110050 	ands	r0, r1, r0, asr r0
    18d4:	9600008b 	strls	r0, [r0], -fp, lsl #1
    18d8:	00000001 	andeq	r0, r0, r1
    18dc:	0005fb07 	andeq	pc, r5, r7, lsl #22
    18e0:	e4d00100 	ldrb	r0, [r0], #256	; 0x100
    18e4:	d800008b 	stmdale	r0, {r0, r1, r3, r7}
    18e8:	01000000 	mrseq	r0, (UNDEF: 0)
    18ec:	0003819c 	muleq	r3, ip, r1
    18f0:	69700800 	ldmdbvs	r0!, {fp}^
    18f4:	d001006e 	andle	r0, r1, lr, rrx
    18f8:	0000002c 	andeq	r0, r0, ip, lsr #32
    18fc:	0000115d 	andeq	r1, r0, sp, asr r1
    1900:	00066512 	andeq	r6, r6, r2, lsl r5
    1904:	b2d00100 	sbcslt	r0, r0, #0, 2
    1908:	7b000000 	blvc	1910 <_start-0x66f0>
    190c:	09000011 	stmdbeq	r0, {r0, r4}
    1910:	000005a3 	andeq	r0, r0, r3, lsr #11
    1914:	0133d801 	teqeq	r3, r1, lsl #16
    1918:	119c0000 	orrsne	r0, ip, r0
    191c:	25090000 	strcs	r0, [r9, #-0]
    1920:	01000007 	tsteq	r0, r7
    1924:	00002cd9 	ldrdeq	r2, [r0], -r9
    1928:	0011f100 	andseq	pc, r1, r0, lsl #2
    192c:	06480900 	strbeq	r0, [r8], -r0, lsl #18
    1930:	e7010000 	str	r0, [r1, -r0]
    1934:	0000002c 	andeq	r0, r0, ip, lsr #32
    1938:	000013bd 			; <UNDEFINED> instruction: 0x000013bd
    193c:	008c800a 	addeq	r8, ip, sl
    1940:	00084100 	andeq	r4, r8, r0, lsl #2
    1944:	00037000 	andeq	r7, r3, r0
    1948:	50010b00 	andpl	r0, r1, r0, lsl #22
    194c:	00007602 	andeq	r7, r0, r2, lsl #12
    1950:	008cb00c 	addeq	fp, ip, ip
    1954:	00086200 	andeq	r6, r8, r0, lsl #4
    1958:	50010b00 	andpl	r0, r1, r0, lsl #22
    195c:	00007602 	andeq	r7, r0, r2, lsl #12
    1960:	066a0700 	strbteq	r0, [sl], -r0, lsl #14
    1964:	f0010000 			; <UNDEFINED> instruction: 0xf0010000
    1968:	00008cbc 			; <UNDEFINED> instruction: 0x00008cbc
    196c:	00000038 	andeq	r0, r0, r8, lsr r0
    1970:	03d99c01 	bicseq	r9, r9, #256	; 0x100
    1974:	70080000 	andvc	r0, r8, r0
    1978:	01006e69 	tsteq	r0, r9, ror #28
    197c:	00002cf0 	strdeq	r2, [r0], -r0
    1980:	0013ee00 	andseq	lr, r3, r0, lsl #28
    1984:	05a30900 	streq	r0, [r3, #2304]!	; 0x900
    1988:	f6010000 			; <UNDEFINED> instruction: 0xf6010000
    198c:	00000133 	andeq	r0, r0, r3, lsr r1
    1990:	0000140f 	andeq	r1, r0, pc, lsl #8
    1994:	00064809 	andeq	r4, r6, r9, lsl #16
    1998:	2cf70100 	ldfcse	f0, [r7]
    199c:	45000000 	strmi	r0, [r0, #-0]
    19a0:	0c000014 	stceq	0, cr0, [r0], {20}
    19a4:	00008cec 	andeq	r8, r0, ip, ror #25
    19a8:	00000862 	andeq	r0, r0, r2, ror #16
    19ac:	0751010b 	ldrbeq	r0, [r1, -fp, lsl #2]
    19b0:	5001f331 	andpl	pc, r1, r1, lsr r3	; <UNPREDICTABLE>
    19b4:	00241a4f 	eoreq	r1, r4, pc, asr #20
    19b8:	054b1300 	strbeq	r1, [fp, #-768]	; 0x300
    19bc:	1e010000 	cdpne	0, 0, cr0, cr1, cr0, {0}
    19c0:	00006401 	andeq	r6, r0, r1, lsl #8
    19c4:	008cf400 	addeq	pc, ip, r0, lsl #8
    19c8:	00002c00 	andeq	r2, r0, r0, lsl #24
    19cc:	0d9c0100 	ldfeqs	f0, [ip]
    19d0:	14000004 	strne	r0, [r0], #-4
    19d4:	0000054e 	andeq	r0, r0, lr, asr #10
    19d8:	2c011e01 	stccs	14, cr1, [r1], {1}
    19dc:	85000000 	strhi	r0, [r0, #-0]
    19e0:	11000014 	tstne	r0, r4, lsl r0
    19e4:	00008d04 	andeq	r8, r0, r4, lsl #26
    19e8:	00000841 	andeq	r0, r0, r1, asr #16
    19ec:	05e61500 	strbeq	r1, [r6, #1280]!	; 0x500
    19f0:	2d010000 	stccs	0, cr0, [r1, #-0]
    19f4:	008d2001 	addeq	r2, sp, r1
    19f8:	00008400 	andeq	r8, r0, r0, lsl #8
    19fc:	d19c0100 	orrsle	r0, ip, r0, lsl #2
    1a00:	16000004 	strne	r0, [r0], -r4
    1a04:	006e6970 	rsbeq	r6, lr, r0, ror r9
    1a08:	2c012d01 	stccs	13, cr2, [r1], {1}
    1a0c:	a6000000 	strge	r0, [r0], -r0
    1a10:	17000014 	smladne	r0, r4, r0, r0
    1a14:	00000575 	andeq	r0, r0, r5, ror r5
    1a18:	2c013f01 	stccs	15, cr3, [r1], {1}
    1a1c:	d2000000 	andle	r0, r0, #0
    1a20:	18000014 	stmdane	r0, {r2, r4}
    1a24:	00008d3c 	andeq	r8, r0, ip, lsr sp
    1a28:	0000001c 	andeq	r0, r0, ip, lsl r0
    1a2c:	00000473 	andeq	r0, r0, r3, ror r4
    1a30:	00064817 	andeq	r4, r6, r7, lsl r8
    1a34:	01360100 	teqeq	r6, r0, lsl #2
    1a38:	0000002c 	andeq	r0, r0, ip, lsr #32
    1a3c:	000014f0 	strdeq	r1, [r0], -r0
    1a40:	008d4811 	addeq	r4, sp, r1, lsl r8
    1a44:	00084100 	andeq	r4, r8, r0, lsl #2
    1a48:	8d581100 	ldfhie	f1, [r8, #-0]
    1a4c:	08620000 	stmdaeq	r2!, {}^	; <UNPREDICTABLE>
    1a50:	18000000 	stmdane	r0, {}	; <UNPREDICTABLE>
    1a54:	00008d5c 	andeq	r8, r0, ip, asr sp
    1a58:	00000020 	andeq	r0, r0, r0, lsr #32
    1a5c:	000004a3 	andeq	r0, r0, r3, lsr #9
    1a60:	00064817 	andeq	r4, r6, r7, lsl r8
    1a64:	013a0100 	teqeq	sl, r0, lsl #2
    1a68:	0000002c 	andeq	r0, r0, ip, lsr #32
    1a6c:	0000150e 	andeq	r1, r0, lr, lsl #10
    1a70:	008d6811 	addeq	r6, sp, r1, lsl r8
    1a74:	00084100 	andeq	r4, r8, r0, lsl #2
    1a78:	8d7c1100 	ldfhie	f1, [ip, #-0]
    1a7c:	08620000 	stmdaeq	r2!, {}^	; <UNPREDICTABLE>
    1a80:	11000000 	mrsne	r0, (UNDEF: 0)
    1a84:	00008d34 	andeq	r8, r0, r4, lsr sp
    1a88:	0000087e 	andeq	r0, r0, lr, ror r8
    1a8c:	008d8011 	addeq	r8, sp, r1, lsl r0
    1a90:	00087e00 	andeq	r7, r8, r0, lsl #28
    1a94:	8d8c1100 	stfhis	f1, [ip]
    1a98:	08410000 	stmdaeq	r1, {}^	; <UNPREDICTABLE>
    1a9c:	98110000 	ldmdals	r1, {}	; <UNPREDICTABLE>
    1aa0:	6200008d 	andvs	r0, r0, #141	; 0x8d
    1aa4:	11000008 	tstne	r0, r8
    1aa8:	00008d9c 	muleq	r0, ip, sp
    1aac:	0000087e 	andeq	r0, r0, lr, ror r8
    1ab0:	06a91500 	strteq	r1, [r9], r0, lsl #10
    1ab4:	4a010000 	bmi	41abc <__bss_end__+0x383bc>
    1ab8:	008da401 	addeq	sl, sp, r1, lsl #8
    1abc:	00008400 	andeq	r8, r0, r0, lsl #8
    1ac0:	959c0100 	ldrls	r0, [ip, #256]	; 0x100
    1ac4:	16000005 	strne	r0, [r0], -r5
    1ac8:	006e6970 	rsbeq	r6, lr, r0, ror r9
    1acc:	2c014a01 	stccs	10, cr4, [r1], {1}
    1ad0:	2c000000 	stccs	0, cr0, [r0], {-0}
    1ad4:	17000015 	smladne	r0, r5, r0, r0
    1ad8:	00000575 	andeq	r0, r0, r5, ror r5
    1adc:	2c015b01 	stccs	11, cr5, [r1], {1}
    1ae0:	58000000 	stmdapl	r0, {}	; <UNPREDICTABLE>
    1ae4:	18000015 	stmdane	r0, {r0, r2, r4}
    1ae8:	00008dc0 	andeq	r8, r0, r0, asr #27
    1aec:	0000001c 	andeq	r0, r0, ip, lsl r0
    1af0:	00000537 	andeq	r0, r0, r7, lsr r5
    1af4:	00064817 	andeq	r4, r6, r7, lsl r8
    1af8:	01520100 	cmpeq	r2, r0, lsl #2
    1afc:	0000002c 	andeq	r0, r0, ip, lsr #32
    1b00:	00001576 	andeq	r1, r0, r6, ror r5
    1b04:	008dcc11 	addeq	ip, sp, r1, lsl ip
    1b08:	00084100 	andeq	r4, r8, r0, lsl #2
    1b0c:	8ddc1100 	ldfhie	f1, [ip]
    1b10:	08620000 	stmdaeq	r2!, {}^	; <UNPREDICTABLE>
    1b14:	18000000 	stmdane	r0, {}	; <UNPREDICTABLE>
    1b18:	00008de0 	andeq	r8, r0, r0, ror #27
    1b1c:	00000020 	andeq	r0, r0, r0, lsr #32
    1b20:	00000567 	andeq	r0, r0, r7, ror #10
    1b24:	00064817 	andeq	r4, r6, r7, lsl r8
    1b28:	01560100 	cmpeq	r6, r0, lsl #2
    1b2c:	0000002c 	andeq	r0, r0, ip, lsr #32
    1b30:	00001594 	muleq	r0, r4, r5
    1b34:	008dec11 	addeq	lr, sp, r1, lsl ip
    1b38:	00084100 	andeq	r4, r8, r0, lsl #2
    1b3c:	8e001100 	adfhis	f1, f0, f0
    1b40:	08620000 	stmdaeq	r2!, {}^	; <UNPREDICTABLE>
    1b44:	11000000 	mrsne	r0, (UNDEF: 0)
    1b48:	00008db8 			; <UNDEFINED> instruction: 0x00008db8
    1b4c:	0000087e 	andeq	r0, r0, lr, ror r8
    1b50:	008e0411 	addeq	r0, lr, r1, lsl r4
    1b54:	00087e00 	andeq	r7, r8, r0, lsl #28
    1b58:	8e101100 	mufhis	f1, f0, f0
    1b5c:	08410000 	stmdaeq	r1, {}^	; <UNPREDICTABLE>
    1b60:	1c110000 	ldcne	0, cr0, [r1], {-0}
    1b64:	6200008e 	andvs	r0, r0, #142	; 0x8e
    1b68:	11000008 	tstne	r0, r8
    1b6c:	00008e20 	andeq	r8, r0, r0, lsr #28
    1b70:	0000087e 	andeq	r0, r0, lr, ror r8
    1b74:	051a1300 	ldreq	r1, [sl, #-768]	; 0x300
    1b78:	65010000 	strvs	r0, [r1, #-0]
    1b7c:	00006401 	andeq	r6, r0, r1, lsl #8
    1b80:	008e2800 	addeq	r2, lr, r0, lsl #16
    1b84:	00008400 	andeq	r8, r0, r0, lsl #8
    1b88:	3b9c0100 	blcc	fe701f90 <__bss_end__+0xfe6f8890>
    1b8c:	16000006 	strne	r0, [r0], -r6
    1b90:	006e6970 	rsbeq	r6, lr, r0, ror r9
    1b94:	2c016501 	cfstr32cs	mvfx6, [r1], {1}
    1b98:	b2000000 	andlt	r0, r0, #0
    1b9c:	18000015 	stmdane	r0, {r0, r2, r4}
    1ba0:	00008e44 	andeq	r8, r0, r4, asr #28
    1ba4:	00000024 	andeq	r0, r0, r4, lsr #32
    1ba8:	000005ef 	andeq	r0, r0, pc, ror #11
    1bac:	00058c17 	andeq	r8, r5, r7, lsl ip
    1bb0:	016c0100 	cmneq	ip, r0, lsl #2
    1bb4:	0000002c 	andeq	r0, r0, ip, lsr #32
    1bb8:	000015f4 	strdeq	r1, [r0], -r4
    1bbc:	008e5011 	addeq	r5, lr, r1, lsl r0
    1bc0:	00084100 	andeq	r4, r8, r0, lsl #2
    1bc4:	8e601100 	powhis	f1, f0, f0
    1bc8:	087e0000 	ldmdaeq	lr!, {}^	; <UNPREDICTABLE>
    1bcc:	18000000 	stmdane	r0, {}	; <UNPREDICTABLE>
    1bd0:	00008e68 	andeq	r8, r0, r8, ror #28
    1bd4:	0000002c 	andeq	r0, r0, ip, lsr #32
    1bd8:	00000628 	andeq	r0, r0, r8, lsr #12
    1bdc:	00058c17 	andeq	r8, r5, r7, lsl ip
    1be0:	016f0100 	cmneq	pc, r0, lsl #2
    1be4:	0000002c 	andeq	r0, r0, ip, lsr #32
    1be8:	0000160e 	andeq	r1, r0, lr, lsl #12
    1bec:	008e7411 	addeq	r7, lr, r1, lsl r4
    1bf0:	00084100 	andeq	r4, r8, r0, lsl #2
    1bf4:	8e801100 	rmfhis	f1, f0, f0
    1bf8:	087e0000 	ldmdaeq	lr!, {}^	; <UNPREDICTABLE>
    1bfc:	8c110000 	ldchi	0, cr0, [r1], {-0}
    1c00:	7e00008e 	cdpvc	0, 0, cr0, cr0, cr14, {4}
    1c04:	00000008 	andeq	r0, r0, r8
    1c08:	008e3c11 	addeq	r3, lr, r1, lsl ip
    1c0c:	00087e00 	andeq	r7, r8, r0, lsl #28
    1c10:	8e981100 	fmlhie	f1, f0, f0
    1c14:	087e0000 	ldmdaeq	lr!, {}^	; <UNPREDICTABLE>
    1c18:	15000000 	strne	r0, [r0, #-0]
    1c1c:	0000061b 	andeq	r0, r0, fp, lsl r6
    1c20:	ac017801 	stcge	8, cr7, [r1], {1}
    1c24:	5800008e 	stmdapl	r0, {r1, r2, r3, r7}
    1c28:	01000000 	mrseq	r0, (UNDEF: 0)
    1c2c:	0006a09c 	muleq	r6, ip, r0
    1c30:	69701600 	ldmdbvs	r0!, {r9, sl, ip}^
    1c34:	7801006e 	stmdavc	r1, {r1, r2, r3, r5, r6}
    1c38:	00002c01 	andeq	r2, r0, r1, lsl #24
    1c3c:	00162100 	andseq	r2, r6, r0, lsl #2
    1c40:	8ec01100 	polhis	f1, f0, f0
    1c44:	087e0000 	ldmdaeq	lr!, {}^	; <UNPREDICTABLE>
    1c48:	dc0a0000 	stcle	0, cr0, [sl], {-0}
    1c4c:	6200008e 	andvs	r0, r0, #142	; 0x8e
    1c50:	80000008 	andhi	r0, r0, r8
    1c54:	0b000006 	bleq	1c74 <_start-0x638c>
    1c58:	31045101 	tstcc	r4, r1, lsl #2
    1c5c:	00240074 	eoreq	r0, r4, r4, ror r0
    1c60:	008ef80a 	addeq	pc, lr, sl, lsl #16
    1c64:	00086200 	andeq	r6, r8, r0, lsl #4
    1c68:	00069600 	andeq	r9, r6, r0, lsl #12
    1c6c:	51010b00 	tstpl	r1, r0, lsl #22
    1c70:	00743104 	rsbseq	r3, r4, r4, lsl #2
    1c74:	fc110024 	ldc2	0, cr0, [r1], {36}	; 0x24
    1c78:	7e00008e 	cdpvc	0, 0, cr0, cr0, cr14, {4}
    1c7c:	00000008 	andeq	r0, r0, r8
    1c80:	0005d419 	andeq	sp, r5, r9, lsl r4
    1c84:	33280100 	teqcc	r8, #0, 2
    1c88:	05000001 	streq	r0, [r0, #-1]
    1c8c:	00916403 	addseq	r6, r1, r3, lsl #8
    1c90:	065b1900 	ldrbeq	r1, [fp], -r0, lsl #18
    1c94:	29010000 	stmdbcs	r1, {}	; <UNPREDICTABLE>
    1c98:	00000133 	andeq	r0, r0, r3, lsr r1
    1c9c:	91600305 	cmnls	r0, r5, lsl #6
    1ca0:	30190000 	andscc	r0, r9, r0
    1ca4:	01000007 	tsteq	r0, r7
    1ca8:	0001332a 	andeq	r3, r1, sl, lsr #6
    1cac:	5c030500 	cfstr32pl	mvfx0, [r3], {-0}
    1cb0:	19000091 	stmdbne	r0, {r0, r4, r7}
    1cb4:	000005ac 	andeq	r0, r0, ip, lsr #11
    1cb8:	01332c01 	teqeq	r3, r1, lsl #24
    1cbc:	03050000 	movweq	r0, #20480	; 0x5000
    1cc0:	00009108 	andeq	r9, r0, r8, lsl #2
    1cc4:	0005b419 	andeq	fp, r5, r9, lsl r4
    1cc8:	332d0100 	teqcc	sp, #0, 2
    1ccc:	05000001 	streq	r0, [r0, #-1]
    1cd0:	00910c03 	addseq	r0, r1, r3, lsl #24
    1cd4:	052e1900 	streq	r1, [lr, #-2304]!	; 0x900
    1cd8:	2e010000 	cdpcs	0, 0, cr0, cr1, cr0, {0}
    1cdc:	00000133 	andeq	r0, r0, r3, lsr r1
    1ce0:	91100305 	tstls	r0, r5, lsl #6
    1ce4:	bc190000 	ldclt	0, cr0, [r9], {-0}
    1ce8:	01000005 	tsteq	r0, r5
    1cec:	0001332f 	andeq	r3, r1, pc, lsr #6
    1cf0:	14030500 	strne	r0, [r3], #-1280	; 0x500
    1cf4:	19000091 	stmdbne	r0, {r0, r4, r7}
    1cf8:	000005c4 	andeq	r0, r0, r4, asr #11
    1cfc:	01333001 	teqeq	r3, r1
    1d00:	03050000 	movweq	r0, #20480	; 0x5000
    1d04:	00009118 	andeq	r9, r0, r8, lsl r1
    1d08:	0005cc19 	andeq	ip, r5, r9, lsl ip
    1d0c:	33310100 	teqcc	r1, #0, 2
    1d10:	05000001 	streq	r0, [r0, #-1]
    1d14:	00911c03 	addseq	r1, r1, r3, lsl #24
    1d18:	057e1900 	ldrbeq	r1, [lr, #-2304]!	; 0x900
    1d1c:	33010000 	movwcc	r0, #4096	; 0x1000
    1d20:	00000133 	andeq	r0, r0, r3, lsr r1
    1d24:	91200305 	teqls	r0, r5, lsl #6
    1d28:	85190000 	ldrhi	r0, [r9, #-0]
    1d2c:	01000005 	tsteq	r0, r5
    1d30:	00013334 	andeq	r3, r1, r4, lsr r3
    1d34:	24030500 	strcs	r0, [r3], #-1280	; 0x500
    1d38:	19000091 	stmdbne	r0, {r0, r4, r7}
    1d3c:	00000536 	andeq	r0, r0, r6, lsr r5
    1d40:	01333601 	teqeq	r3, r1, lsl #12
    1d44:	03050000 	movweq	r0, #20480	; 0x5000
    1d48:	00009128 	andeq	r9, r0, r8, lsr #2
    1d4c:	0005df19 	andeq	sp, r5, r9, lsl pc
    1d50:	33370100 	teqcc	r7, #0, 2
    1d54:	05000001 	streq	r0, [r0, #-1]
    1d58:	00912c03 	addseq	r2, r1, r3, lsl #24
    1d5c:	05951900 	ldreq	r1, [r5, #2304]	; 0x900
    1d60:	39010000 	stmdbcc	r1, {}	; <UNPREDICTABLE>
    1d64:	00000133 	andeq	r0, r0, r3, lsr r1
    1d68:	91300305 	teqls	r0, r5, lsl #6
    1d6c:	9c190000 	ldcls	0, cr0, [r9], {-0}
    1d70:	01000005 	tsteq	r0, r5
    1d74:	0001333a 	andeq	r3, r1, sl, lsr r3
    1d78:	34030500 	strcc	r0, [r3], #-1280	; 0x500
    1d7c:	1a000091 	bne	1fc8 <_start-0x6038>
    1d80:	0000062c 	andeq	r0, r0, ip, lsr #12
    1d84:	33010901 	movwcc	r0, #6401	; 0x1901
    1d88:	05000001 	streq	r0, [r0, #-1]
    1d8c:	00915803 	addseq	r5, r1, r3, lsl #16
    1d90:	063a1a00 	ldrteq	r1, [sl], -r0, lsl #20
    1d94:	0a010000 	beq	41d9c <__bss_end__+0x3869c>
    1d98:	00013301 	andeq	r3, r1, r1, lsl #6
    1d9c:	38030500 	stmdacc	r3, {r8, sl}
    1da0:	1a000091 	bne	1fec <_start-0x6014>
    1da4:	00000676 	andeq	r0, r0, r6, ror r6
    1da8:	33010c01 	movwcc	r0, #7169	; 0x1c01
    1dac:	05000001 	streq	r0, [r0, #-1]
    1db0:	00915003 	addseq	r5, r1, r3
    1db4:	067d1a00 	ldrbteq	r1, [sp], -r0, lsl #20
    1db8:	0d010000 	stceq	0, cr0, [r1, #-0]
    1dbc:	00013301 	andeq	r3, r1, r1, lsl #6
    1dc0:	54030500 	strpl	r0, [r3], #-1280	; 0x500
    1dc4:	1a000091 	bne	2010 <_start-0x5ff0>
    1dc8:	0000060d 	andeq	r0, r0, sp, lsl #12
    1dcc:	33010f01 	movwcc	r0, #7937	; 0x1f01
    1dd0:	05000001 	streq	r0, [r0, #-1]
    1dd4:	00913c03 	addseq	r3, r1, r3, lsl #24
    1dd8:	06141a00 	ldreq	r1, [r4], -r0, lsl #20
    1ddc:	10010000 	andne	r0, r1, r0
    1de0:	00013301 	andeq	r3, r1, r1, lsl #6
    1de4:	40030500 	andmi	r0, r3, r0, lsl #10
    1de8:	1a000091 	bne	2034 <_start-0x5fcc>
    1dec:	00000684 	andeq	r0, r0, r4, lsl #13
    1df0:	33011201 	movwcc	r1, #4609	; 0x1201
    1df4:	05000001 	streq	r0, [r0, #-1]
    1df8:	00914803 	addseq	r4, r1, r3, lsl #16
    1dfc:	068b1a00 	streq	r1, [fp], r0, lsl #20
    1e00:	13010000 	movwne	r0, #4096	; 0x1000
    1e04:	00013301 	andeq	r3, r1, r1, lsl #6
    1e08:	4c030500 	cfstr32mi	mvfx0, [r3], {-0}
    1e0c:	1a000091 	bne	2058 <_start-0x5fa8>
    1e10:	0000053d 	andeq	r0, r0, sp, lsr r5
    1e14:	33011501 	movwcc	r1, #5377	; 0x1501
    1e18:	05000001 	streq	r0, [r0, #-1]
    1e1c:	00914403 	addseq	r4, r1, r3, lsl #8
    1e20:	06a31b00 	strteq	r1, [r3], r0, lsl #22
    1e24:	20010000 	andcs	r0, r1, r0
    1e28:	0000002c 	andeq	r0, r0, ip, lsr #32
    1e2c:	00000856 	andeq	r0, r0, r6, asr r8
    1e30:	0008561c 	andeq	r5, r8, ip, lsl r6
    1e34:	040d0000 	streq	r0, [sp], #-0
    1e38:	0000085c 	andeq	r0, r0, ip, asr r8
    1e3c:	0008611d 	andeq	r6, r8, sp, lsl r1
    1e40:	b91f1e00 	ldmdblt	pc, {r9, sl, fp, ip}	; <UNPREDICTABLE>
    1e44:	01000001 	tsteq	r0, r1
    1e48:	0008781e 	andeq	r7, r8, lr, lsl r8
    1e4c:	08781c00 	ldmdaeq	r8!, {sl, fp, ip}^
    1e50:	2c1c0000 	ldccs	0, cr0, [ip], {-0}
    1e54:	00000000 	andeq	r0, r0, r0
    1e58:	0861040d 	stmdaeq	r1!, {r0, r2, r3, sl}^
    1e5c:	28200000 	stmdacs	r0!, {}	; <UNPREDICTABLE>
    1e60:	03000002 	movweq	r0, #2
    1e64:	03ff008a 	mvnseq	r0, #138	; 0x8a
    1e68:	00040000 	andeq	r0, r4, r0
    1e6c:	00000b74 	andeq	r0, r0, r4, ror fp
    1e70:	02a30104 	adceq	r0, r3, #4, 2
    1e74:	15010000 	strne	r0, [r1, #-0]
    1e78:	0e000008 	cdpeq	0, 0, cr0, cr0, cr8, {0}
    1e7c:	04000003 	streq	r0, [r0], #-3
    1e80:	5400008f 	strpl	r0, [r0], #-143	; 0x8f
    1e84:	52000001 	andpl	r0, r0, #1
    1e88:	02000009 	andeq	r0, r0, #9
    1e8c:	6e690504 	cdpvs	5, 6, cr0, cr9, cr4, {0}
    1e90:	04030074 	streq	r0, [r3], #-116	; 0x74
    1e94:	00004207 	andeq	r4, r0, r7, lsl #4
    1e98:	06010300 	streq	r0, [r1], -r0, lsl #6
    1e9c:	000000ce 	andeq	r0, r0, lr, asr #1
    1ea0:	79050203 	stmdbvc	r5, {r0, r1, r9}
    1ea4:	03000001 	movweq	r0, #1
    1ea8:	00050504 	andeq	r0, r5, r4, lsl #10
    1eac:	08030000 	stmdaeq	r3, {}	; <UNPREDICTABLE>
    1eb0:	00000005 	andeq	r0, r0, r5
    1eb4:	08010300 	stmdaeq	r1, {r8, r9}
    1eb8:	000000cc 	andeq	r0, r0, ip, asr #1
    1ebc:	f9070203 			; <UNDEFINED> instruction: 0xf9070203
    1ec0:	03000000 	movweq	r0, #0
    1ec4:	003d0704 	eorseq	r0, sp, r4, lsl #14
    1ec8:	08030000 	stmdaeq	r3, {}	; <UNPREDICTABLE>
    1ecc:	00003807 	andeq	r3, r0, r7, lsl #16
    1ed0:	07040300 	streq	r0, [r4, -r0, lsl #6]
    1ed4:	00000183 	andeq	r0, r0, r3, lsl #3
    1ed8:	d5080103 	strle	r0, [r8, #-259]	; 0x103
    1edc:	04000000 	streq	r0, [r0], #-0
    1ee0:	b20c0201 	andlt	r0, ip, #268435456	; 0x10000000
    1ee4:	05000000 	streq	r0, [r0, #-0]
    1ee8:	00000557 	andeq	r0, r0, r7, asr r5
    1eec:	06920500 	ldreq	r0, [r2], r0, lsl #10
    1ef0:	05010000 	streq	r0, [r1, #-0]
    1ef4:	000006cb 	andeq	r0, r0, fp, asr #13
    1ef8:	06da0504 	ldrbeq	r0, [sl], r4, lsl #10
    1efc:	05050000 	streq	r0, [r5, #-0]
    1f00:	000006e9 	andeq	r0, r0, r9, ror #13
    1f04:	06f80506 	ldrbteq	r0, [r8], r6, lsl #10
    1f08:	05070000 	streq	r0, [r7, #-0]
    1f0c:	00000707 	andeq	r0, r0, r7, lsl #14
    1f10:	07160503 	ldreq	r0, [r6, -r3, lsl #10]
    1f14:	00020000 	andeq	r0, r2, r0
    1f18:	0006bf06 	andeq	fp, r6, r6, lsl #30
    1f1c:	79150200 	ldmdbvc	r5, {r9}
    1f20:	07000000 	streq	r0, [r0, -r0]
    1f24:	000000e2 	andeq	r0, r0, r2, ror #1
    1f28:	8f043701 	svchi	0x00043701
    1f2c:	009c0000 	addseq	r0, ip, r0
    1f30:	9c010000 	stcls	0, cr0, [r1], {-0}
    1f34:	000001c3 	andeq	r0, r0, r3, asr #3
    1f38:	008f0c08 	addeq	r0, pc, r8, lsl #24
    1f3c:	0003a800 	andeq	sl, r3, r0, lsl #16
    1f40:	8f180900 	svchi	0x00180900
    1f44:	03af0000 			; <UNDEFINED> instruction: 0x03af0000
    1f48:	00f30000 	rscseq	r0, r3, r0
    1f4c:	010a0000 	mrseq	r0, (UNDEF: 10)
    1f50:	0a320151 	beq	c8249c <__bss_end__+0xc78d9c>
    1f54:	3e015001 	cdpcc	0, 0, cr5, cr1, cr1, {0}
    1f58:	8f240900 	svchi	0x00240900
    1f5c:	03af0000 			; <UNDEFINED> instruction: 0x03af0000
    1f60:	010b0000 	mrseq	r0, (UNDEF: 11)
    1f64:	010a0000 	mrseq	r0, (UNDEF: 10)
    1f68:	0a320151 	beq	c824b4 <__bss_end__+0xc78db4>
    1f6c:	3f015001 	svccc	0x00015001
    1f70:	8f280800 	svchi	0x00280800
    1f74:	03a80000 			; <UNDEFINED> instruction: 0x03a80000
    1f78:	38090000 	stmdacc	r9, {}	; <UNPREDICTABLE>
    1f7c:	c500008f 	strgt	r0, [r0, #-143]	; 0x8f
    1f80:	28000003 	stmdacs	r0, {r0, r1}
    1f84:	0a000001 	beq	1f90 <_start-0x6070>
    1f88:	75025001 	strvc	r5, [r2, #-1]
    1f8c:	44090000 	strmi	r0, [r9], #-0
    1f90:	e600008f 	str	r0, [r0], -pc, lsl #1
    1f94:	3c000003 	stccc	0, cr0, [r0], {3}
    1f98:	0a000001 	beq	1fa4 <_start-0x605c>
    1f9c:	75025001 	strvc	r5, [r2, #-1]
    1fa0:	48080000 	stmdami	r8, {}	; <UNPREDICTABLE>
    1fa4:	a800008f 	stmdage	r0, {r0, r1, r2, r3, r7}
    1fa8:	09000003 	stmdbeq	r0, {r0, r1}
    1fac:	00008f54 	andeq	r8, r0, r4, asr pc
    1fb0:	000003e6 	andeq	r0, r0, r6, ror #7
    1fb4:	00000158 	andeq	r0, r0, r8, asr r1
    1fb8:	0151010a 	cmpeq	r1, sl, lsl #2
    1fbc:	60090030 	andvs	r0, r9, r0, lsr r0
    1fc0:	e600008f 	str	r0, [r0], -pc, lsl #1
    1fc4:	6b000003 	blvs	1fd8 <_start-0x6028>
    1fc8:	0a000001 	beq	1fd4 <_start-0x602c>
    1fcc:	30015101 	andcc	r5, r1, r1, lsl #2
    1fd0:	8f6c0900 	svchi	0x006c0900
    1fd4:	03e60000 	mvneq	r0, #0
    1fd8:	017e0000 	cmneq	lr, r0
    1fdc:	010a0000 	mrseq	r0, (UNDEF: 10)
    1fe0:	00360151 	eorseq	r0, r6, r1, asr r1
    1fe4:	008f7809 	addeq	r7, pc, r9, lsl #16
    1fe8:	0003e600 	andeq	lr, r3, r0, lsl #12
    1fec:	00019100 	andeq	r9, r1, r0, lsl #2
    1ff0:	51010a00 	tstpl	r1, r0, lsl #20
    1ff4:	09003301 	stmdbeq	r0, {r0, r8, r9, ip, sp}
    1ff8:	00008f84 	andeq	r8, r0, r4, lsl #31
    1ffc:	000003e6 	andeq	r0, r0, r6, ror #7
    2000:	000001a6 	andeq	r0, r0, r6, lsr #3
    2004:	0351010a 	cmpeq	r1, #-2147483646	; 0x80000002
    2008:	00010e0a 	andeq	r0, r1, sl, lsl #28
    200c:	008f9009 	addeq	r9, pc, r9
    2010:	0003e600 	andeq	lr, r3, r0, lsl #12
    2014:	0001b900 	andeq	fp, r1, r0, lsl #18
    2018:	51010a00 	tstpl	r1, r0, lsl #20
    201c:	08003301 	stmdaeq	r0, {r0, r8, r9, ip, sp}
    2020:	00008f94 	muleq	r0, r4, pc	; <UNPREDICTABLE>
    2024:	000003a8 	andeq	r0, r0, r8, lsr #7
    2028:	07660b00 	strbeq	r0, [r6, -r0, lsl #22]!
    202c:	57010000 	strpl	r0, [r1, -r0]
    2030:	00000025 	andeq	r0, r0, r5, lsr #32
    2034:	00008fa0 	andeq	r8, r0, r0, lsr #31
    2038:	0000001c 	andeq	r0, r0, ip, lsl r0
    203c:	01e69c01 	mvneq	r9, r1, lsl #24
    2040:	b0080000 	andlt	r0, r8, r0
    2044:	c500008f 	strgt	r0, [r0, #-143]	; 0x8f
    2048:	00000003 	andeq	r0, r0, r3
    204c:	0007a10b 	andeq	sl, r7, fp, lsl #2
    2050:	255d0100 	ldrbcs	r0, [sp, #-256]	; 0x100
    2054:	bc000000 	stclt	0, cr0, [r0], {-0}
    2058:	2800008f 	stmdacs	r0, {r0, r1, r2, r3, r7}
    205c:	01000000 	mrseq	r0, (UNDEF: 0)
    2060:	0002129c 	muleq	r2, ip, r2
    2064:	8fc40800 	svchi	0x00c40800
    2068:	01c30000 	biceq	r0, r3, r0
    206c:	d8080000 	stmdale	r8, {}	; <UNPREDICTABLE>
    2070:	c500008f 	strgt	r0, [r0, #-143]	; 0x8f
    2074:	00000003 	andeq	r0, r0, r3
    2078:	0007ba0b 	andeq	fp, r7, fp, lsl #20
    207c:	25640100 	strbcs	r0, [r4, #-256]!	; 0x100
    2080:	e4000000 	str	r0, [r0], #-0
    2084:	1c00008f 	stcne	0, cr0, [r0], {143}	; 0x8f
    2088:	01000000 	mrseq	r0, (UNDEF: 0)
    208c:	0002359c 	muleq	r2, ip, r5
    2090:	8ff40800 	svchi	0x00f40800
    2094:	03c50000 	biceq	r0, r5, #0
    2098:	07000000 	streq	r0, [r0, -r0]
    209c:	0000080b 	andeq	r0, r0, fp, lsl #16
    20a0:	90006a01 	andls	r6, r0, r1, lsl #20
    20a4:	002c0000 	eoreq	r0, ip, r0
    20a8:	9c010000 	stcls	0, cr0, [r1], {-0}
    20ac:	00000271 	andeq	r0, r0, r1, ror r2
    20b0:	0100630c 	tsteq	r0, ip, lsl #6
    20b4:	00002c6a 	andeq	r2, r0, sl, ror #24
    20b8:	00164d00 	andseq	r4, r6, r0, lsl #26
    20bc:	900c0800 	andls	r0, ip, r0, lsl #16
    20c0:	02120000 	andseq	r0, r2, #0
    20c4:	240d0000 	strcs	r0, [sp], #-0
    20c8:	e6000090 			; <UNDEFINED> instruction: 0xe6000090
    20cc:	0a000003 	beq	20e0 <_start-0x5f20>
    20d0:	74025101 	strvc	r5, [r2], #-257	; 0x101
    20d4:	0b000000 	bleq	20dc <_start-0x5f24>
    20d8:	00000784 	andeq	r0, r0, r4, lsl #15
    20dc:	00257401 	eoreq	r7, r5, r1, lsl #8
    20e0:	902c0000 	eorls	r0, ip, r0
    20e4:	000c0000 	andeq	r0, ip, r0
    20e8:	9c010000 	stcls	0, cr0, [r1], {-0}
    20ec:	00000294 	muleq	r0, r4, r2
    20f0:	00903408 	addseq	r3, r0, r8, lsl #8
    20f4:	0001c300 	andeq	ip, r1, r0, lsl #6
    20f8:	410b0000 	mrsmi	r0, (UNDEF: 11)
    20fc:	01000008 	tsteq	r0, r8
    2100:	00002578 	andeq	r2, r0, r8, ror r5
    2104:	00903800 	addseq	r3, r0, r0, lsl #16
    2108:	00002000 	andeq	r2, r0, r0
    210c:	c09c0100 	addsgt	r0, ip, r0, lsl #2
    2110:	08000002 	stmdaeq	r0, {r1}
    2114:	00009040 	andeq	r9, r0, r0, asr #32
    2118:	00000271 	andeq	r0, r0, r1, ror r2
    211c:	00904c08 	addseq	r4, r0, r8, lsl #24
    2120:	0001e600 	andeq	lr, r1, r0, lsl #12
    2124:	d40e0000 	strle	r0, [lr], #-0
    2128:	01000007 	tsteq	r0, r7
    212c:	0002d116 	andeq	sp, r2, r6, lsl r1
    2130:	98030500 	stmdals	r3, {r8, sl}
    2134:	0f000091 	svceq	0x00000091
    2138:	0002d704 	andeq	sp, r2, r4, lsl #14
    213c:	002c1000 	eoreq	r1, ip, r0
    2140:	c80e0000 	stmdagt	lr, {}	; <UNPREDICTABLE>
    2144:	01000007 	tsteq	r0, r7
    2148:	0002d117 	andeq	sp, r2, r7, lsl r1
    214c:	68030500 	stmdavs	r3, {r8, sl}
    2150:	0e000091 	mcreq	0, 0, r0, cr0, cr1, {4}
    2154:	00000749 	andeq	r0, r0, r9, asr #14
    2158:	02d11a01 	sbcseq	r1, r1, #4096	; 0x1000
    215c:	03050000 	movweq	r0, #20480	; 0x5000
    2160:	00009184 	andeq	r9, r0, r4, lsl #3
    2164:	0007920e 	andeq	r9, r7, lr, lsl #4
    2168:	d11b0100 	tstle	fp, r0, lsl #2
    216c:	05000002 	streq	r0, [r0, #-2]
    2170:	00917003 	addseq	r7, r1, r3
    2174:	07ab0e00 	streq	r0, [fp, r0, lsl #28]!
    2178:	1c010000 	stcne	0, cr0, [r1], {-0}
    217c:	000002d1 	ldrdeq	r0, [r0], -r1
    2180:	91740305 	cmnls	r4, r5, lsl #6
    2184:	230e0000 	movwcs	r0, #57344	; 0xe000
    2188:	01000008 	tsteq	r0, r8
    218c:	0002d11d 	andeq	sp, r2, sp, lsl r1
    2190:	78030500 	stmdavc	r3, {r8, sl}
    2194:	0e000091 	mcreq	0, 0, r0, cr0, cr1, {4}
    2198:	0000073a 	andeq	r0, r0, sl, lsr r7
    219c:	02d11e01 	sbcseq	r1, r1, #1, 28
    21a0:	03050000 	movweq	r0, #20480	; 0x5000
    21a4:	00009194 	muleq	r0, r4, r1
    21a8:	0008320e 	andeq	r3, r8, lr, lsl #4
    21ac:	d11f0100 	tstle	pc, r0, lsl #2
    21b0:	05000002 	streq	r0, [r0, #-2]
    21b4:	00918003 	addseq	r8, r1, r3
    21b8:	07570e00 	ldrbeq	r0, [r7, -r0, lsl #28]
    21bc:	20010000 	andcs	r0, r1, r0
    21c0:	000002d1 	ldrdeq	r0, [r0], -r1
    21c4:	91900305 	orrsls	r0, r0, r5, lsl #6
    21c8:	fc0e0000 	stc2	0, cr0, [lr], {-0}
    21cc:	01000007 	tsteq	r0, r7
    21d0:	0002d121 	andeq	sp, r2, r1, lsr #2
    21d4:	8c030500 	cfstr32hi	mvfx0, [r3], {-0}
    21d8:	0e000091 	mcreq	0, 0, r0, cr0, cr1, {4}
    21dc:	00000774 	andeq	r0, r0, r4, ror r7
    21e0:	02d12201 	sbcseq	r2, r1, #268435456	; 0x10000000
    21e4:	03050000 	movweq	r0, #20480	; 0x5000
    21e8:	0000916c 	andeq	r9, r0, ip, ror #2
    21ec:	0007ec0e 	andeq	lr, r7, lr, lsl #24
    21f0:	d1230100 	teqle	r3, r0, lsl #2
    21f4:	05000002 	streq	r0, [r0, #-2]
    21f8:	00918803 	addseq	r8, r1, r3, lsl #16
    21fc:	07dc0e00 	ldrbeq	r0, [ip, r0, lsl #28]
    2200:	24010000 	strcs	r0, [r1], #-0
    2204:	000002d1 	ldrdeq	r0, [r0], -r1
    2208:	917c0305 	cmnls	ip, r5, lsl #6
    220c:	28110000 	ldmdacs	r1, {}	; <UNPREDICTABLE>
    2210:	03000002 	movweq	r0, #2
    2214:	05fb128a 	ldrbeq	r1, [fp, #650]!	; 0x28a
    2218:	19020000 	stmdbne	r2, {}	; <UNPREDICTABLE>
    221c:	000003c5 	andeq	r0, r0, r5, asr #7
    2220:	00002c13 	andeq	r2, r0, r3, lsl ip
    2224:	00b21300 	adcseq	r1, r2, r0, lsl #6
    2228:	14000000 	strne	r0, [r0], #-0
    222c:	000006a3 	andeq	r0, r0, r3, lsr #13
    2230:	002ca903 	eoreq	sl, ip, r3, lsl #18
    2234:	03da0000 	bicseq	r0, sl, #0
    2238:	da130000 	ble	4c2240 <__bss_end__+0x4b8b40>
    223c:	00000003 	andeq	r0, r0, r3
    2240:	03e0040f 	mvneq	r0, #251658240	; 0xf000000
    2244:	e5150000 	ldr	r0, [r5, #-0]
    2248:	16000003 	strne	r0, [r0], -r3
    224c:	0001b912 	andeq	fp, r1, r2, lsl r9
    2250:	fc9d0300 	ldc2	3, cr0, [sp], {0}
    2254:	13000003 	movwne	r0, #3
    2258:	000003fc 	strdeq	r0, [r0], -ip
    225c:	00002c13 	andeq	r2, r0, r3, lsl ip
    2260:	040f0000 	streq	r0, [pc], #-0	; 2268 <_start-0x5d98>
    2264:	000003e5 	andeq	r0, r0, r5, ror #7
    2268:	00011300 	andeq	r1, r1, r0, lsl #6
    226c:	a2000400 	andge	r0, r0, #0, 8
    2270:	0400000c 	streq	r0, [r0], #-12
    2274:	0002a301 	andeq	sl, r2, r1, lsl #6
    2278:	08620100 	stmdaeq	r2!, {r8}^
    227c:	030e0000 	movweq	r0, #57344	; 0xe000
    2280:	90bc0000 	adcsls	r0, ip, r0
    2284:	003c0000 	eorseq	r0, ip, r0
    2288:	0a570000 	beq	15c2290 <__bss_end__+0x15b8b90>
    228c:	04020000 	streq	r0, [r2], #-0
    2290:	746e6905 	strbtvc	r6, [lr], #-2309	; 0x905
    2294:	07040300 	streq	r0, [r4, -r0, lsl #6]
    2298:	00000042 	andeq	r0, r0, r2, asr #32
    229c:	ce060103 	adfgts	f0, f6, f3
    22a0:	03000000 	movweq	r0, #0
    22a4:	01790502 	cmneq	r9, r2, lsl #10
    22a8:	04030000 	streq	r0, [r3], #-0
    22ac:	00000505 	andeq	r0, r0, r5, lsl #10
    22b0:	05080300 	streq	r0, [r8, #-768]	; 0x300
    22b4:	00000000 	andeq	r0, r0, r0
    22b8:	cc080103 	stfgts	f0, [r8], {3}
    22bc:	03000000 	movweq	r0, #0
    22c0:	00f90702 	rscseq	r0, r9, r2, lsl #14
    22c4:	04030000 	streq	r0, [r3], #-0
    22c8:	00003d07 	andeq	r3, r0, r7, lsl #26
    22cc:	07080300 	streq	r0, [r8, -r0, lsl #6]
    22d0:	00000038 	andeq	r0, r0, r8, lsr r0
    22d4:	83070403 	movwhi	r0, #29699	; 0x7403
    22d8:	03000001 	movweq	r0, #1
    22dc:	00d50801 	sbcseq	r0, r5, r1, lsl #16
    22e0:	51040000 	mrspl	r0, (UNDEF: 4)
    22e4:	01000008 	tsteq	r0, r8
    22e8:	00002503 	andeq	r2, r0, r3, lsl #10
    22ec:	0090bc00 	addseq	fp, r0, r0, lsl #24
    22f0:	00001400 	andeq	r1, r0, r0, lsl #8
    22f4:	b09c0100 	addslt	r0, ip, r0, lsl #2
    22f8:	05000000 	streq	r0, [r0, #-0]
    22fc:	03010063 	movweq	r0, #4195	; 0x1063
    2300:	00000025 	andeq	r0, r0, r5, lsr #32
    2304:	0000166b 	andeq	r1, r0, fp, ror #12
    2308:	0090c806 	addseq	ip, r0, r6, lsl #16
    230c:	00010900 	andeq	r0, r1, r0, lsl #18
    2310:	50010700 	andpl	r0, r1, r0, lsl #14
    2314:	00007402 	andeq	r7, r0, r2, lsl #8
    2318:	03e90800 	mvneq	r0, #0, 16
    231c:	08010000 	stmdaeq	r1, {}	; <UNPREDICTABLE>
    2320:	000090d0 	ldrdeq	r9, [r0], -r0
    2324:	00000018 	andeq	r0, r0, r8, lsl r0
    2328:	71099c01 	tstvc	r9, r1, lsl #24
    232c:	01000008 	tsteq	r0, r8
    2330:	0090e80b 	addseq	lr, r0, fp, lsl #16
    2334:	00001000 	andeq	r1, r0, r0
    2338:	e39c0100 	orrs	r0, ip, #0, 2
    233c:	0a000000 	beq	2344 <_start-0x5cbc>
    2340:	01007066 	tsteq	r0, r6, rrx
    2344:	0000f20b 	andeq	pc, r0, fp, lsl #4
    2348:	00500100 	subseq	r0, r0, r0, lsl #2
    234c:	0000250b 	andeq	r2, r0, fp, lsl #10
    2350:	0000f200 	andeq	pc, r0, r0, lsl #4
    2354:	00250c00 	eoreq	r0, r5, r0, lsl #24
    2358:	0d000000 	stceq	0, cr0, [r0, #-0]
    235c:	0000e304 	andeq	lr, r0, r4, lsl #6
    2360:	03760e00 	cmneq	r6, #0, 28
    2364:	06010000 	streq	r0, [r1], -r0
    2368:	000000f2 	strdeq	r0, [r0], -r2
    236c:	919c0305 	orrsls	r0, ip, r5, lsl #6
    2370:	0b0f0000 	bleq	3c2378 <__bss_end__+0x3b8c78>
    2374:	02000008 	andeq	r0, r0, #8
    2378:	002c0c3c 	eoreq	r0, ip, ip, lsr ip
    237c:	00000000 	andeq	r0, r0, r0

Disassembly of section .debug_abbrev:

00000000 <.debug_abbrev>:
   0:	25011101 	strcs	r1, [r1, #-257]	; 0x101
   4:	030b130e 	movweq	r1, #45838	; 0xb30e
   8:	110e1b0e 	tstne	lr, lr, lsl #22
   c:	10061201 	andne	r1, r6, r1, lsl #4
  10:	02000017 	andeq	r0, r0, #23
  14:	0b0b0024 	bleq	2c00ac <__bss_end__+0x2b69ac>
  18:	08030b3e 	stmdaeq	r3, {r1, r2, r3, r4, r5, r8, r9, fp}
  1c:	24030000 	strcs	r0, [r3], #-0
  20:	3e0b0b00 	vmlacc.f64	d0, d11, d0
  24:	000e030b 	andeq	r0, lr, fp, lsl #6
  28:	000f0400 	andeq	r0, pc, r0, lsl #8
  2c:	13490b0b 	movtne	r0, #39691	; 0x9b0b
  30:	26050000 	strcs	r0, [r5], -r0
  34:	00134900 	andseq	r4, r3, r0, lsl #18
  38:	01130600 	tsteq	r3, r0, lsl #12
  3c:	0b3a0b0b 	bleq	e82c70 <__bss_end__+0xe79570>
  40:	13010b3b 	movwne	r0, #6971	; 0x1b3b
  44:	0d070000 	stceq	0, cr0, [r7, #-0]
  48:	3a0e0300 	bcc	380c50 <__bss_end__+0x377550>
  4c:	490b3b0b 	stmdbmi	fp, {r0, r1, r3, r8, r9, fp, ip, sp}
  50:	000b3813 	andeq	r3, fp, r3, lsl r8
  54:	00160800 	andseq	r0, r6, r0, lsl #16
  58:	0b3a0e03 	bleq	e8386c <__bss_end__+0xe7a16c>
  5c:	13490b3b 	movtne	r0, #39739	; 0x9b3b
  60:	2e090000 	cdpcs	0, 0, cr0, cr9, cr0, {0}
  64:	03193f01 	tsteq	r9, #1, 30
  68:	3b0b3a0e 	blcc	2ce8a8 <__bss_end__+0x2c51a8>
  6c:	1119270b 	tstne	r9, fp, lsl #14
  70:	40061201 	andmi	r1, r6, r1, lsl #4
  74:	19429718 	stmdbne	r2, {r3, r4, r8, r9, sl, ip, pc}^
  78:	00001301 	andeq	r1, r0, r1, lsl #6
  7c:	0300340a 	movweq	r3, #1034	; 0x40a
  80:	3b0b3a0e 	blcc	2ce8c0 <__bss_end__+0x2c51c0>
  84:	1c13490b 	ldcne	9, cr4, [r3], {11}
  88:	0b000005 	bleq	a4 <_start-0x7f5c>
  8c:	08030034 	stmdaeq	r3, {r2, r4, r5}
  90:	0b3b0b3a 	bleq	ec2d80 <__bss_end__+0xeb9680>
  94:	18021349 	stmdane	r2, {r0, r3, r6, r8, r9, ip}
  98:	0b0c0000 	bleq	3000a0 <__bss_end__+0x2f69a0>
  9c:	12011101 	andne	r1, r1, #1073741824	; 0x40000000
  a0:	00130106 	andseq	r0, r3, r6, lsl #2
  a4:	00340d00 	eorseq	r0, r4, r0, lsl #26
  a8:	0b3a0e03 	bleq	e838bc <__bss_end__+0xe7a1bc>
  ac:	13490b3b 	movtne	r0, #39739	; 0x9b3b
  b0:	00001702 	andeq	r1, r0, r2, lsl #14
  b4:	0300340e 	movweq	r3, #1038	; 0x40e
  b8:	3b0b3a08 	blcc	2ce8e0 <__bss_end__+0x2c51e0>
  bc:	0213490b 	andseq	r4, r3, #180224	; 0x2c000
  c0:	0f000017 	svceq	0x00000017
  c4:	01018289 	smlabbeq	r1, r9, r2, r8
  c8:	13310111 	teqne	r1, #1073741828	; 0x40000004
  cc:	00001301 	andeq	r1, r0, r1, lsl #6
  d0:	01828a10 	orreq	r8, r2, r0, lsl sl
  d4:	91180200 	tstls	r8, r0, lsl #4
  d8:	00001842 	andeq	r1, r0, r2, asr #16
  dc:	01828911 	orreq	r8, r2, r1, lsl r9
  e0:	31011101 	tstcc	r1, r1, lsl #2
  e4:	12000013 	andne	r0, r0, #19
  e8:	00018289 	andeq	r8, r1, r9, lsl #5
  ec:	13310111 	teqne	r1, #1073741828	; 0x40000004
  f0:	2e130000 	cdpcs	0, 1, cr0, cr3, cr0, {0}
  f4:	03193f01 	tsteq	r9, #1, 30
  f8:	3b0b3a0e 	blcc	2ce938 <__bss_end__+0x2c5238>
  fc:	4919270b 	ldmdbmi	r9, {r0, r1, r3, r8, r9, sl, sp}
 100:	01193c13 	tsteq	r9, r3, lsl ip
 104:	14000013 	strne	r0, [r0], #-19
 108:	13490005 	movtne	r0, #36869	; 0x9005
 10c:	18150000 	ldmdane	r5, {}	; <UNPREDICTABLE>
 110:	16000000 	strne	r0, [r0], -r0
 114:	193f012e 	ldmdbne	pc!, {r1, r2, r3, r5, r8}	; <UNPREDICTABLE>
 118:	0b3a0e03 	bleq	e8392c <__bss_end__+0xe7a22c>
 11c:	19270b3b 	stmdbne	r7!, {r0, r1, r3, r4, r5, r8, r9, fp}
 120:	1301193c 	movwne	r1, #6460	; 0x193c
 124:	2e170000 	cdpcs	0, 1, cr0, cr7, cr0, {0}
 128:	03193f00 	tsteq	r9, #0, 30
 12c:	3b0b3a0e 	blcc	2ce96c <__bss_end__+0x2c526c>
 130:	3c19270b 	ldccc	7, cr2, [r9], {11}
 134:	00000019 	andeq	r0, r0, r9, lsl r0
 138:	25011101 	strcs	r1, [r1, #-257]	; 0x101
 13c:	030b130e 	movweq	r1, #45838	; 0xb30e
 140:	110e1b0e 	tstne	lr, lr, lsl #22
 144:	10061201 	andne	r1, r6, r1, lsl #4
 148:	02000017 	andeq	r0, r0, #23
 14c:	0b0b0024 	bleq	2c01e4 <__bss_end__+0x2b6ae4>
 150:	08030b3e 	stmdaeq	r3, {r1, r2, r3, r4, r5, r8, r9, fp}
 154:	24030000 	strcs	r0, [r3], #-0
 158:	3e0b0b00 	vmlacc.f64	d0, d11, d0
 15c:	000e030b 	andeq	r0, lr, fp, lsl #6
 160:	01130400 	tsteq	r3, r0, lsl #8
 164:	0b3a0b0b 	bleq	e82d98 <__bss_end__+0xe79698>
 168:	13010b3b 	movwne	r0, #6971	; 0x1b3b
 16c:	0d050000 	stceq	0, cr0, [r5, #-0]
 170:	3a0e0300 	bcc	380d78 <__bss_end__+0x377678>
 174:	490b3b0b 	stmdbmi	fp, {r0, r1, r3, r8, r9, fp, ip, sp}
 178:	000b3813 	andeq	r3, fp, r3, lsl r8
 17c:	00160600 	andseq	r0, r6, r0, lsl #12
 180:	0b3a0e03 	bleq	e83994 <__bss_end__+0xe7a294>
 184:	13490b3b 	movtne	r0, #39739	; 0x9b3b
 188:	2e070000 	cdpcs	0, 0, cr0, cr7, cr0, {0}
 18c:	03193f01 	tsteq	r9, #1, 30
 190:	3b0b3a0e 	blcc	2ce9d0 <__bss_end__+0x2c52d0>
 194:	1119270b 	tstne	r9, fp, lsl #14
 198:	40061201 	andmi	r1, r6, r1, lsl #4
 19c:	19429718 	stmdbne	r2, {r3, r4, r8, r9, sl, ip, pc}^
 1a0:	00001301 	andeq	r1, r0, r1, lsl #6
 1a4:	03000508 	movweq	r0, #1288	; 0x508
 1a8:	3b0b3a08 	blcc	2ce9d0 <__bss_end__+0x2c52d0>
 1ac:	0213490b 	andseq	r4, r3, #180224	; 0x2c000
 1b0:	09000017 	stmdbeq	r0, {r0, r1, r2, r4}
 1b4:	0e030034 	mcreq	0, 0, r0, cr3, cr4, {1}
 1b8:	0b3b0b3a 	bleq	ec2ea8 <__bss_end__+0xeb97a8>
 1bc:	17021349 	strne	r1, [r2, -r9, asr #6]
 1c0:	340a0000 	strcc	r0, [sl], #-0
 1c4:	3a0e0300 	bcc	380dcc <__bss_end__+0x3776cc>
 1c8:	490b3b0b 	stmdbmi	fp, {r0, r1, r3, r8, r9, fp, ip, sp}
 1cc:	00180213 	andseq	r0, r8, r3, lsl r2
 1d0:	82890b00 	addhi	r0, r9, #0, 22
 1d4:	01110001 	tsteq	r1, r1
 1d8:	00001331 	andeq	r1, r0, r1, lsr r3
 1dc:	0182890c 	orreq	r8, r2, ip, lsl #18
 1e0:	31011101 	tstcc	r1, r1, lsl #2
 1e4:	00130113 	andseq	r0, r3, r3, lsl r1
 1e8:	828a0d00 	addhi	r0, sl, #0, 26
 1ec:	18020001 	stmdane	r2, {r0}
 1f0:	00184291 	mulseq	r8, r1, r2
 1f4:	000f0e00 	andeq	r0, pc, r0, lsl #28
 1f8:	13490b0b 	movtne	r0, #39691	; 0x9b0b
 1fc:	350f0000 	strcc	r0, [pc, #-0]	; 204 <_start-0x7dfc>
 200:	00134900 	andseq	r4, r3, r0, lsl #18
 204:	012e1000 	teqeq	lr, r0
 208:	0e03193f 	mcreq	9, 0, r1, cr3, cr15, {1}
 20c:	0b3b0b3a 	bleq	ec2efc <__bss_end__+0xeb97fc>
 210:	13491927 	movtne	r1, #39207	; 0x9927
 214:	06120111 			; <UNDEFINED> instruction: 0x06120111
 218:	42971840 	addsmi	r1, r7, #64, 16	; 0x400000
 21c:	00130119 	andseq	r0, r3, r9, lsl r1
 220:	00051100 	andeq	r1, r5, r0, lsl #2
 224:	0b3a0e03 	bleq	e83a38 <__bss_end__+0xe7a338>
 228:	13490b3b 	movtne	r0, #39739	; 0x9b3b
 22c:	00001702 	andeq	r1, r0, r2, lsl #14
 230:	01828912 	orreq	r8, r2, r2, lsl r9
 234:	31011101 	tstcc	r1, r1, lsl #2
 238:	13000013 	movwne	r0, #19
 23c:	08030034 	stmdaeq	r3, {r2, r4, r5}
 240:	0b3b0b3a 	bleq	ec2f30 <__bss_end__+0xeb9830>
 244:	17021349 	strne	r1, [r2, -r9, asr #6]
 248:	34140000 	ldrcc	r0, [r4], #-0
 24c:	3a0e0300 	bcc	380e54 <__bss_end__+0x377754>
 250:	490b3b0b 	stmdbmi	fp, {r0, r1, r3, r8, r9, fp, ip, sp}
 254:	02193f13 	andseq	r3, r9, #19, 30	; 0x4c
 258:	15000018 	strne	r0, [r0, #-24]
 25c:	193f002e 	ldmdbne	pc!, {r1, r2, r3, r5}	; <UNPREDICTABLE>
 260:	0b3a0e03 	bleq	e83a74 <__bss_end__+0xe7a374>
 264:	19270b3b 	stmdbne	r7!, {r0, r1, r3, r4, r5, r8, r9, fp}
 268:	0000193c 	andeq	r1, r0, ip, lsr r9
 26c:	3f012e16 	svccc	0x00012e16
 270:	3a0e0319 	bcc	380edc <__bss_end__+0x3777dc>
 274:	270b3b0b 	strcs	r3, [fp, -fp, lsl #22]
 278:	01193c19 	tsteq	r9, r9, lsl ip
 27c:	17000013 	smladne	r0, r3, r0, r0
 280:	13490005 	movtne	r0, #36869	; 0x9005
 284:	35180000 	ldrcc	r0, [r8, #-0]
 288:	19000000 	stmdbne	r0, {}	; <UNPREDICTABLE>
 28c:	193f002e 	ldmdbne	pc!, {r1, r2, r3, r5}	; <UNPREDICTABLE>
 290:	0b3a0e03 	bleq	e83aa4 <__bss_end__+0xe7a3a4>
 294:	19270b3b 	stmdbne	r7!, {r0, r1, r3, r4, r5, r8, r9, fp}
 298:	193c1349 	ldmdbne	ip!, {r0, r3, r6, r8, r9, ip}
 29c:	2e1a0000 	cdpcs	0, 1, cr0, cr10, cr0, {0}
 2a0:	03193f01 	tsteq	r9, #1, 30
 2a4:	3b0b3a0e 	blcc	2ceae4 <__bss_end__+0x2c53e4>
 2a8:	4919270b 	ldmdbmi	r9, {r0, r1, r3, r8, r9, sl, sp}
 2ac:	01193c13 	tsteq	r9, r3, lsl ip
 2b0:	1b000013 	blne	304 <_start-0x7cfc>
 2b4:	193f012e 	ldmdbne	pc!, {r1, r2, r3, r5, r8}	; <UNPREDICTABLE>
 2b8:	0b3a0e03 	bleq	e83acc <__bss_end__+0xe7a3cc>
 2bc:	19270b3b 	stmdbne	r7!, {r0, r1, r3, r4, r5, r8, r9, fp}
 2c0:	0000193c 	andeq	r1, r0, ip, lsr r9
 2c4:	01110100 	tsteq	r1, r0, lsl #2
 2c8:	0b130e25 	bleq	4c3b64 <__bss_end__+0x4ba464>
 2cc:	0e1b0e03 	cdpeq	14, 1, cr0, cr11, cr3, {0}
 2d0:	06120111 			; <UNDEFINED> instruction: 0x06120111
 2d4:	00001710 	andeq	r1, r0, r0, lsl r7
 2d8:	03001602 	movweq	r1, #1538	; 0x602
 2dc:	3b0b3a0e 	blcc	2ceb1c <__bss_end__+0x2c541c>
 2e0:	0013490b 	andseq	r4, r3, fp, lsl #18
 2e4:	01130300 	tsteq	r3, r0, lsl #6
 2e8:	0b0b0e03 	bleq	2c3afc <__bss_end__+0x2ba3fc>
 2ec:	0b3b0b3a 	bleq	ec2fdc <__bss_end__+0xeb98dc>
 2f0:	00001301 	andeq	r1, r0, r1, lsl #6
 2f4:	03000d04 	movweq	r0, #3332	; 0xd04
 2f8:	3813490e 	ldmdacc	r3, {r1, r2, r3, r8, fp, lr}
 2fc:	0019340b 	andseq	r3, r9, fp, lsl #8
 300:	000f0500 	andeq	r0, pc, r0, lsl #10
 304:	00000b0b 	andeq	r0, r0, fp, lsl #22
 308:	0b002406 	bleq	9328 <__bss_start__+0x28>
 30c:	030b3e0b 	movweq	r3, #48651	; 0xbe0b
 310:	07000008 	streq	r0, [r0, -r8]
 314:	0b0b0024 	bleq	2c03ac <__bss_end__+0x2b6cac>
 318:	0e030b3e 	vmoveq.16	d3[0], r0
 31c:	0f080000 	svceq	0x00080000
 320:	490b0b00 	stmdbmi	fp, {r8, r9, fp}
 324:	09000013 	stmdbeq	r0, {r0, r1, r4}
 328:	13490026 	movtne	r0, #36902	; 0x9026
 32c:	2e0a0000 	cdpcs	0, 0, cr0, cr10, cr0, {0}
 330:	03193f01 	tsteq	r9, #1, 30
 334:	3b0b3a0e 	blcc	2ceb74 <__bss_end__+0x2c5474>
 338:	4919270b 	ldmdbmi	r9, {r0, r1, r3, r8, r9, sl, sp}
 33c:	12011113 	andne	r1, r1, #-1073741820	; 0xc0000004
 340:	97184006 	ldrls	r4, [r8, -r6]
 344:	13011942 	movwne	r1, #6466	; 0x1942
 348:	050b0000 	streq	r0, [fp, #-0]
 34c:	3a080300 	bcc	200f54 <__bss_end__+0x1f7854>
 350:	490b3b0b 	stmdbmi	fp, {r0, r1, r3, r8, r9, fp, ip, sp}
 354:	00180213 	andseq	r0, r8, r3, lsl r2
 358:	00180c00 	andseq	r0, r8, r0, lsl #24
 35c:	340d0000 	strcc	r0, [sp], #-0
 360:	3a080300 	bcc	200f68 <__bss_end__+0x1f7868>
 364:	490b3b0b 	stmdbmi	fp, {r0, r1, r3, r8, r9, fp, ip, sp}
 368:	00180213 	andseq	r0, r8, r3, lsl r2
 36c:	00340e00 	eorseq	r0, r4, r0, lsl #28
 370:	0b3a0e03 	bleq	e83b84 <__bss_end__+0xe7a484>
 374:	13490b3b 	movtne	r0, #39739	; 0x9b3b
 378:	00001802 	andeq	r1, r0, r2, lsl #16
 37c:	0300340f 	movweq	r3, #1039	; 0x40f
 380:	3b0b3a08 	blcc	2ceba8 <__bss_end__+0x2c54a8>
 384:	0213490b 	andseq	r4, r3, #180224	; 0x2c000
 388:	10000017 	andne	r0, r0, r7, lsl r0
 38c:	01018289 	smlabbeq	r1, r9, r2, r8
 390:	13310111 	teqne	r1, #1073741828	; 0x40000004
 394:	00001301 	andeq	r1, r0, r1, lsl #6
 398:	01828a11 	orreq	r8, r2, r1, lsl sl
 39c:	91180200 	tstls	r8, r0, lsl #4
 3a0:	00001842 	andeq	r1, r0, r2, asr #16
 3a4:	01828912 	orreq	r8, r2, r2, lsl r9
 3a8:	00011101 	andeq	r1, r1, r1, lsl #2
 3ac:	01011300 	mrseq	r1, SP_irq
 3b0:	13011349 	movwne	r1, #4937	; 0x1349
 3b4:	21140000 	tstcs	r4, r0
 3b8:	2f134900 	svccs	0x00134900
 3bc:	15000005 	strne	r0, [r0, #-5]
 3c0:	19270115 	stmdbne	r7!, {r0, r2, r4, r8}
 3c4:	13011349 	movwne	r1, #4937	; 0x1349
 3c8:	05160000 	ldreq	r0, [r6, #-0]
 3cc:	00134900 	andseq	r4, r3, r0, lsl #18
 3d0:	00341700 	eorseq	r1, r4, r0, lsl #14
 3d4:	0b3a0e03 	bleq	e83be8 <__bss_end__+0xe7a4e8>
 3d8:	13490b3b 	movtne	r0, #39739	; 0x9b3b
 3dc:	193c193f 	ldmdbne	ip!, {r0, r1, r2, r3, r4, r5, r8, fp, ip}
 3e0:	2e180000 	cdpcs	0, 1, cr0, cr8, cr0, {0}
 3e4:	03193f01 	tsteq	r9, #1, 30
 3e8:	3b0b3a0e 	blcc	2cec28 <__bss_end__+0x2c5528>
 3ec:	4919270b 	ldmdbmi	r9, {r0, r1, r3, r8, r9, sl, sp}
 3f0:	00193c13 	andseq	r3, r9, r3, lsl ip
 3f4:	11010000 	mrsne	r0, (UNDEF: 1)
 3f8:	130e2501 	movwne	r2, #58625	; 0xe501
 3fc:	1b0e030b 	blne	381030 <__bss_end__+0x377930>
 400:	1201110e 	andne	r1, r1, #-2147483645	; 0x80000003
 404:	00171006 	andseq	r1, r7, r6
 408:	00240200 	eoreq	r0, r4, r0, lsl #4
 40c:	0b3e0b0b 	bleq	f83040 <__bss_end__+0xf79940>
 410:	00000803 	andeq	r0, r0, r3, lsl #16
 414:	0b002403 	bleq	9428 <__bss_start__+0x128>
 418:	030b3e0b 	movweq	r3, #48651	; 0xbe0b
 41c:	0400000e 	streq	r0, [r0], #-14
 420:	0b0b000f 	bleq	2c0464 <__bss_end__+0x2b6d64>
 424:	00001349 	andeq	r1, r0, r9, asr #6
 428:	49002605 	stmdbmi	r0, {r0, r2, r9, sl, sp}
 42c:	06000013 			; <UNDEFINED> instruction: 0x06000013
 430:	193f012e 	ldmdbne	pc!, {r1, r2, r3, r5, r8}	; <UNPREDICTABLE>
 434:	0b3a0e03 	bleq	e83c48 <__bss_end__+0xe7a548>
 438:	19270b3b 	stmdbne	r7!, {r0, r1, r3, r4, r5, r8, r9, fp}
 43c:	01111349 	tsteq	r1, r9, asr #6
 440:	18400612 	stmdane	r0, {r1, r4, r9, sl}^
 444:	01194296 			; <UNDEFINED> instruction: 0x01194296
 448:	07000013 	smladeq	r0, r3, r0, r0
 44c:	08030005 	stmdaeq	r3, {r0, r2}
 450:	0b3b0b3a 	bleq	ec3140 <__bss_end__+0xeb9a40>
 454:	17021349 	strne	r1, [r2, -r9, asr #6]
 458:	15080000 	strne	r0, [r8, #-0]
 45c:	49192701 	ldmdbmi	r9, {r0, r8, r9, sl, sp}
 460:	00130113 	andseq	r0, r3, r3, lsl r1
 464:	00050900 	andeq	r0, r5, r0, lsl #18
 468:	00001349 	andeq	r1, r0, r9, asr #6
 46c:	0300340a 	movweq	r3, #1034	; 0x40a
 470:	3b0b3a0e 	blcc	2cecb0 <__bss_end__+0x2c55b0>
 474:	3f13490b 	svccc	0x0013490b
 478:	00193c19 	andseq	r3, r9, r9, lsl ip
 47c:	00340b00 	eorseq	r0, r4, r0, lsl #22
 480:	0b3a0e03 	bleq	e83c94 <__bss_end__+0xe7a594>
 484:	13490b3b 	movtne	r0, #39739	; 0x9b3b
 488:	1802193f 	stmdane	r2, {r0, r1, r2, r3, r4, r5, r8, fp, ip}
 48c:	01000000 	mrseq	r0, (UNDEF: 0)
 490:	0e250111 	mcreq	1, 1, r0, cr5, cr1, {0}
 494:	0e030b13 	vmoveq.32	d3[0], r0
 498:	01110e1b 	tsteq	r1, fp, lsl lr
 49c:	17100612 			; <UNDEFINED> instruction: 0x17100612
 4a0:	24020000 	strcs	r0, [r2], #-0
 4a4:	3e0b0b00 	vmlacc.f64	d0, d11, d0
 4a8:	0008030b 	andeq	r0, r8, fp, lsl #6
 4ac:	00240300 	eoreq	r0, r4, r0, lsl #6
 4b0:	0b3e0b0b 	bleq	f830e4 <__bss_end__+0xf799e4>
 4b4:	00000e03 	andeq	r0, r0, r3, lsl #28
 4b8:	0b000f04 	bleq	40d0 <_start-0x3f30>
 4bc:	0500000b 	streq	r0, [r0, #-11]
 4c0:	0b0b000f 	bleq	2c0504 <__bss_end__+0x2b6e04>
 4c4:	00001349 	andeq	r1, r0, r9, asr #6
 4c8:	49002606 	stmdbmi	r0, {r1, r2, r9, sl, sp}
 4cc:	07000013 	smladeq	r0, r3, r0, r0
 4d0:	0e030016 	mcreq	0, 0, r0, cr3, cr6, {0}
 4d4:	0b3b0b3a 	bleq	ec31c4 <__bss_end__+0xeb9ac4>
 4d8:	00001349 	andeq	r1, r0, r9, asr #6
 4dc:	03011308 	movweq	r1, #4872	; 0x1308
 4e0:	3a0b0b0e 	bcc	2c3120 <__bss_end__+0x2b9a20>
 4e4:	010b3b0b 	tsteq	fp, fp, lsl #22
 4e8:	09000013 	stmdbeq	r0, {r0, r1, r4}
 4ec:	0e03000d 	cdpeq	0, 0, cr0, cr3, cr13, {0}
 4f0:	0b381349 	bleq	e0521c <__bss_end__+0xdfbb1c>
 4f4:	00001934 	andeq	r1, r0, r4, lsr r9
 4f8:	03012e0a 	movweq	r2, #7690	; 0x1e0a
 4fc:	3b0b3a0e 	blcc	2ced3c <__bss_end__+0x2c563c>
 500:	4919270b 	ldmdbmi	r9, {r0, r1, r3, r8, r9, sl, sp}
 504:	12011113 	andne	r1, r1, #-1073741820	; 0xc0000004
 508:	97184006 	ldrls	r4, [r8, -r6]
 50c:	13011942 	movwne	r1, #6466	; 0x1942
 510:	050b0000 	streq	r0, [fp, #-0]
 514:	3a080300 	bcc	20111c <__bss_end__+0x1f7a1c>
 518:	490b3b0b 	stmdbmi	fp, {r0, r1, r3, r8, r9, fp, ip, sp}
 51c:	00170213 	andseq	r0, r7, r3, lsl r2
 520:	012e0c00 	teqeq	lr, r0, lsl #24
 524:	0b3a0803 	bleq	e82538 <__bss_end__+0xe78e38>
 528:	19270b3b 	stmdbne	r7!, {r0, r1, r3, r4, r5, r8, r9, fp}
 52c:	01111349 	tsteq	r1, r9, asr #6
 530:	18400612 	stmdane	r0, {r1, r4, r9, sl}^
 534:	01194297 			; <UNDEFINED> instruction: 0x01194297
 538:	0d000013 	stceq	0, cr0, [r0, #-76]	; 0xffffffb4
 53c:	0e030005 	cdpeq	0, 0, cr0, cr3, cr5, {0}
 540:	0b3b0b3a 	bleq	ec3230 <__bss_end__+0xeb9b30>
 544:	17021349 	strne	r1, [r2, -r9, asr #6]
 548:	050e0000 	streq	r0, [lr, #-0]
 54c:	3a0e0300 	bcc	381154 <__bss_end__+0x377a54>
 550:	490b3b0b 	stmdbmi	fp, {r0, r1, r3, r8, r9, fp, ip, sp}
 554:	00180213 	andseq	r0, r8, r3, lsl r2
 558:	00340f00 	eorseq	r0, r4, r0, lsl #30
 55c:	0b3a0803 	bleq	e82570 <__bss_end__+0xe78e70>
 560:	13490b3b 	movtne	r0, #39739	; 0x9b3b
 564:	00001802 	andeq	r1, r0, r2, lsl #16
 568:	03003410 	movweq	r3, #1040	; 0x410
 56c:	3b0b3a08 	blcc	2ced94 <__bss_end__+0x2c5694>
 570:	0213490b 	andseq	r4, r3, #180224	; 0x2c000
 574:	11000017 	tstne	r0, r7, lsl r0
 578:	0e030034 	mcreq	0, 0, r0, cr3, cr4, {1}
 57c:	19341349 	ldmdbne	r4!, {r0, r3, r6, r8, r9, ip}
 580:	00001802 	andeq	r1, r0, r2, lsl #16
 584:	11010b12 	tstne	r1, r2, lsl fp
 588:	01061201 	tsteq	r6, r1, lsl #4
 58c:	13000013 	movwne	r0, #19
 590:	0e030034 	mcreq	0, 0, r0, cr3, cr4, {1}
 594:	0b3b0b3a 	bleq	ec3284 <__bss_end__+0xeb9b84>
 598:	17021349 	strne	r1, [r2, -r9, asr #6]
 59c:	89140000 	ldmdbhi	r4, {}	; <UNPREDICTABLE>
 5a0:	11000182 	smlabbne	r0, r2, r1, r0
 5a4:	00133101 	andseq	r3, r3, r1, lsl #2
 5a8:	82891500 	addhi	r1, r9, #0, 10
 5ac:	01110101 	tsteq	r1, r1, lsl #2
 5b0:	13011331 	movwne	r1, #4913	; 0x1331
 5b4:	8a160000 	bhi	5805bc <__bss_end__+0x576ebc>
 5b8:	02000182 	andeq	r0, r0, #-2147483616	; 0x80000020
 5bc:	18429118 	stmdane	r2, {r3, r4, r8, ip, pc}^
 5c0:	89170000 	ldmdbhi	r7, {}	; <UNPREDICTABLE>
 5c4:	11010182 	smlabbne	r1, r2, r1, r0
 5c8:	00133101 	andseq	r3, r3, r1, lsl #2
 5cc:	01011800 	tsteq	r1, r0, lsl #16
 5d0:	13011349 	movwne	r1, #4937	; 0x1349
 5d4:	21190000 	tstcs	r9, r0
 5d8:	2f134900 	svccs	0x00134900
 5dc:	1a00000b 	bne	610 <_start-0x79f0>
 5e0:	193f012e 	ldmdbne	pc!, {r1, r2, r3, r5, r8}	; <UNPREDICTABLE>
 5e4:	0b3a0e03 	bleq	e83df8 <__bss_end__+0xe7a6f8>
 5e8:	19270b3b 	stmdbne	r7!, {r0, r1, r3, r4, r5, r8, r9, fp}
 5ec:	06120111 			; <UNDEFINED> instruction: 0x06120111
 5f0:	42971840 	addsmi	r1, r7, #64, 16	; 0x400000
 5f4:	00130119 	andseq	r0, r3, r9, lsl r1
 5f8:	01151b00 	tsteq	r5, r0, lsl #22
 5fc:	13491927 	movtne	r1, #39207	; 0x9927
 600:	00001301 	andeq	r1, r0, r1, lsl #6
 604:	4900051c 	stmdbmi	r0, {r2, r3, r4, r8, sl}
 608:	1d000013 	stcne	0, cr0, [r0, #-76]	; 0xffffffb4
 60c:	193f012e 	ldmdbne	pc!, {r1, r2, r3, r5, r8}	; <UNPREDICTABLE>
 610:	0b3a0e03 	bleq	e83e24 <__bss_end__+0xe7a724>
 614:	19270b3b 	stmdbne	r7!, {r0, r1, r3, r4, r5, r8, r9, fp}
 618:	01111349 	tsteq	r1, r9, asr #6
 61c:	18400612 	stmdane	r0, {r1, r4, r9, sl}^
 620:	01194297 			; <UNDEFINED> instruction: 0x01194297
 624:	1e000013 	mcrne	0, 0, r0, cr0, cr3, {0}
 628:	1755010b 	ldrbne	r0, [r5, -fp, lsl #2]
 62c:	341f0000 	ldrcc	r0, [pc], #-0	; 634 <_start-0x79cc>
 630:	3a0e0300 	bcc	381238 <__bss_end__+0x377b38>
 634:	490b3b0b 	stmdbmi	fp, {r0, r1, r3, r8, r9, fp, ip, sp}
 638:	3c193f13 	ldccc	15, cr3, [r9], {19}
 63c:	20000019 	andcs	r0, r0, r9, lsl r0
 640:	193f002e 	ldmdbne	pc!, {r1, r2, r3, r5}	; <UNPREDICTABLE>
 644:	0b3a0e03 	bleq	e83e58 <__bss_end__+0xe7a758>
 648:	19270b3b 	stmdbne	r7!, {r0, r1, r3, r4, r5, r8, r9, fp}
 64c:	0000193c 	andeq	r1, r0, ip, lsr r9
 650:	3f012e21 	svccc	0x00012e21
 654:	3a0e0319 	bcc	3812c0 <__bss_end__+0x377bc0>
 658:	270b3b0b 	strcs	r3, [fp, -fp, lsl #22]
 65c:	3c134919 	ldccc	9, cr4, [r3], {25}
 660:	00130119 	andseq	r0, r3, r9, lsl r1
 664:	00182200 	andseq	r2, r8, r0, lsl #4
 668:	01000000 	mrseq	r0, (UNDEF: 0)
 66c:	0e250111 	mcreq	1, 1, r0, cr5, cr1, {0}
 670:	0e030b13 	vmoveq.32	d3[0], r0
 674:	01110e1b 	tsteq	r1, fp, lsl lr
 678:	17100612 			; <UNDEFINED> instruction: 0x17100612
 67c:	24020000 	strcs	r0, [r2], #-0
 680:	3e0b0b00 	vmlacc.f64	d0, d11, d0
 684:	0008030b 	andeq	r0, r8, fp, lsl #6
 688:	00240300 	eoreq	r0, r4, r0, lsl #6
 68c:	0b3e0b0b 	bleq	f832c0 <__bss_end__+0xf79bc0>
 690:	00000e03 	andeq	r0, r0, r3, lsl #28
 694:	0b000f04 	bleq	42ac <_start-0x3d54>
 698:	0013490b 	andseq	r4, r3, fp, lsl #18
 69c:	00260500 	eoreq	r0, r6, r0, lsl #10
 6a0:	00001349 	andeq	r1, r0, r9, asr #6
 6a4:	3f012e06 	svccc	0x00012e06
 6a8:	3a0e0319 	bcc	381314 <__bss_end__+0x377c14>
 6ac:	270b3b0b 	strcs	r3, [fp, -fp, lsl #22]
 6b0:	12011119 	andne	r1, r1, #1073741830	; 0x40000006
 6b4:	97184006 	ldrls	r4, [r8, -r6]
 6b8:	13011942 	movwne	r1, #6466	; 0x1942
 6bc:	89070000 	stmdbhi	r7, {}	; <UNPREDICTABLE>
 6c0:	11010182 	smlabbne	r1, r2, r1, r0
 6c4:	00130101 	andseq	r0, r3, r1, lsl #2
 6c8:	828a0800 	addhi	r0, sl, #0, 16
 6cc:	18020001 	stmdane	r2, {r0}
 6d0:	00184291 	mulseq	r8, r1, r2
 6d4:	82890900 	addhi	r0, r9, #0, 18
 6d8:	01110101 	tsteq	r1, r1, lsl #2
 6dc:	13011331 	movwne	r1, #4913	; 0x1331
 6e0:	890a0000 	stmdbhi	sl, {}	; <UNPREDICTABLE>
 6e4:	11000182 	smlabbne	r0, r2, r1, r0
 6e8:	00133101 	andseq	r3, r3, r1, lsl #2
 6ec:	01150b00 	tsteq	r5, r0, lsl #22
 6f0:	13491927 	movtne	r1, #39207	; 0x9927
 6f4:	00001301 	andeq	r1, r0, r1, lsl #6
 6f8:	4900050c 	stmdbmi	r0, {r2, r3, r8, sl}
 6fc:	0d000013 	stceq	0, cr0, [r0, #-76]	; 0xffffffb4
 700:	0e030034 	mcreq	0, 0, r0, cr3, cr4, {1}
 704:	0b3b0b3a 	bleq	ec33f4 <__bss_end__+0xeb9cf4>
 708:	193f1349 	ldmdbne	pc!, {r0, r3, r6, r8, r9, ip}	; <UNPREDICTABLE>
 70c:	0000193c 	andeq	r1, r0, ip, lsr r9
 710:	3f012e0e 	svccc	0x00012e0e
 714:	3a0e0319 	bcc	381380 <__bss_end__+0x377c80>
 718:	270b3b0b 	strcs	r3, [fp, -fp, lsl #22]
 71c:	01193c19 	tsteq	r9, r9, lsl ip
 720:	0f000013 	svceq	0x00000013
 724:	193f002e 	ldmdbne	pc!, {r1, r2, r3, r5}	; <UNPREDICTABLE>
 728:	0b3a0e03 	bleq	e83f3c <__bss_end__+0xe7a83c>
 72c:	19270b3b 	stmdbne	r7!, {r0, r1, r3, r4, r5, r8, r9, fp}
 730:	0000193c 	andeq	r1, r0, ip, lsr r9
 734:	01110100 	tsteq	r1, r0, lsl #2
 738:	0b130e25 	bleq	4c3fd4 <__bss_end__+0x4ba8d4>
 73c:	0e1b0e03 	cdpeq	14, 1, cr0, cr11, cr3, {0}
 740:	06120111 			; <UNDEFINED> instruction: 0x06120111
 744:	00001710 	andeq	r1, r0, r0, lsl r7
 748:	0b002402 	bleq	9758 <__bss_end__+0x58>
 74c:	030b3e0b 	movweq	r3, #48651	; 0xbe0b
 750:	03000008 	movweq	r0, #8
 754:	0b0b0024 	bleq	2c07ec <__bss_end__+0x2b70ec>
 758:	0e030b3e 	vmoveq.16	d3[0], r0
 75c:	2e040000 	cdpcs	0, 0, cr0, cr4, cr0, {0}
 760:	03193f01 	tsteq	r9, #1, 30
 764:	3b0b3a0e 	blcc	2cefa4 <__bss_end__+0x2c58a4>
 768:	1201110b 	andne	r1, r1, #-1073741822	; 0xc0000002
 76c:	97184006 	ldrls	r4, [r8, -r6]
 770:	13011942 	movwne	r1, #6466	; 0x1942
 774:	34050000 	strcc	r0, [r5], #-0
 778:	3a0e0300 	bcc	381380 <__bss_end__+0x377c80>
 77c:	490b3b0b 	stmdbmi	fp, {r0, r1, r3, r8, r9, fp, ip, sp}
 780:	3c193f13 	ldccc	15, cr3, [r9], {19}
 784:	06000019 			; <UNDEFINED> instruction: 0x06000019
 788:	193f002e 	ldmdbne	pc!, {r1, r2, r3, r5}	; <UNPREDICTABLE>
 78c:	0b3a0e03 	bleq	e83fa0 <__bss_end__+0xe7a8a0>
 790:	19270b3b 	stmdbne	r7!, {r0, r1, r3, r4, r5, r8, r9, fp}
 794:	0000193c 	andeq	r1, r0, ip, lsr r9
 798:	03003407 	movweq	r3, #1031	; 0x407
 79c:	3b0b3a08 	blcc	2cefc4 <__bss_end__+0x2c58c4>
 7a0:	0213490b 	andseq	r4, r3, #180224	; 0x2c000
 7a4:	08000017 	stmdaeq	r0, {r0, r1, r2, r4}
 7a8:	0e030034 	mcreq	0, 0, r0, cr3, cr4, {1}
 7ac:	0b3b0b3a 	bleq	ec349c <__bss_end__+0xeb9d9c>
 7b0:	00001349 	andeq	r1, r0, r9, asr #6
 7b4:	01828909 	orreq	r8, r2, r9, lsl #18
 7b8:	31011100 	mrscc	r1, (UNDEF: 17)
 7bc:	0a000013 	beq	810 <_start-0x77f0>
 7c0:	0b0b000f 	bleq	2c0804 <__bss_end__+0x2b7104>
 7c4:	00001349 	andeq	r1, r0, r9, asr #6
 7c8:	01110100 	tsteq	r1, r0, lsl #2
 7cc:	0b130e25 	bleq	4c4068 <__bss_end__+0x4ba968>
 7d0:	0e1b0e03 	cdpeq	14, 1, cr0, cr11, cr3, {0}
 7d4:	01111755 	tsteq	r1, r5, asr r7
 7d8:	00001710 	andeq	r1, r0, r0, lsl r7
 7dc:	0b002402 	bleq	97ec <__bss_end__+0xec>
 7e0:	030b3e0b 	movweq	r3, #48651	; 0xbe0b
 7e4:	03000008 	movweq	r0, #8
 7e8:	0b0b0024 	bleq	2c0880 <__bss_end__+0x2b7180>
 7ec:	0e030b3e 	vmoveq.16	d3[0], r0
 7f0:	2e040000 	cdpcs	0, 0, cr0, cr4, cr0, {0}
 7f4:	03193f01 	tsteq	r9, #1, 30
 7f8:	3b0b3a0e 	blcc	2cf038 <__bss_end__+0x2c5938>
 7fc:	4919270b 	ldmdbmi	r9, {r0, r1, r3, r8, r9, sl, sp}
 800:	12011113 	andne	r1, r1, #-1073741820	; 0xc0000004
 804:	97184006 	ldrls	r4, [r8, -r6]
 808:	13011942 	movwne	r1, #6466	; 0x1942
 80c:	34050000 	strcc	r0, [r5], #-0
 810:	3a0e0300 	bcc	381418 <__bss_end__+0x377d18>
 814:	490b3b0b 	stmdbmi	fp, {r0, r1, r3, r8, r9, fp, ip, sp}
 818:	00170213 	andseq	r0, r7, r3, lsl r2
 81c:	012e0600 	teqeq	lr, r0, lsl #12
 820:	0e03193f 	mcreq	9, 0, r1, cr3, cr15, {1}
 824:	0b3b0b3a 	bleq	ec3514 <__bss_end__+0xeb9e14>
 828:	01111927 	tsteq	r1, r7, lsr #18
 82c:	18400612 	stmdane	r0, {r1, r4, r9, sl}^
 830:	01194297 			; <UNDEFINED> instruction: 0x01194297
 834:	07000013 	smladeq	r0, r3, r0, r0
 838:	0e030034 	mcreq	0, 0, r0, cr3, cr4, {1}
 83c:	0b3b0b3a 	bleq	ec352c <__bss_end__+0xeb9e2c>
 840:	061c1349 	ldreq	r1, [ip], -r9, asr #6
 844:	34080000 	strcc	r0, [r8], #-0
 848:	3a0e0300 	bcc	381450 <__bss_end__+0x377d50>
 84c:	490b3b0b 	stmdbmi	fp, {r0, r1, r3, r8, r9, fp, ip, sp}
 850:	000b1c13 	andeq	r1, fp, r3, lsl ip
 854:	82890900 	addhi	r0, r9, #0, 18
 858:	01110001 	tsteq	r1, r1
 85c:	00001331 	andeq	r1, r0, r1, lsr r3
 860:	0182890a 	orreq	r8, r2, sl, lsl #18
 864:	31011101 	tstcc	r1, r1, lsl #2
 868:	00130113 	andseq	r0, r3, r3, lsl r1
 86c:	828a0b00 	addhi	r0, sl, #0, 22
 870:	18020001 	stmdane	r2, {r0}
 874:	00184291 	mulseq	r8, r1, r2
 878:	82890c00 	addhi	r0, r9, #0, 24
 87c:	01110101 	tsteq	r1, r1, lsl #2
 880:	00001331 	andeq	r1, r0, r1, lsr r3
 884:	4900260d 	stmdbmi	r0, {r0, r2, r3, r9, sl, sp}
 888:	0e000013 	mcreq	0, 0, r0, cr0, cr3, {0}
 88c:	193f012e 	ldmdbne	pc!, {r1, r2, r3, r5, r8}	; <UNPREDICTABLE>
 890:	0b3a0e03 	bleq	e840a4 <__bss_end__+0xe7a9a4>
 894:	19270b3b 	stmdbne	r7!, {r0, r1, r3, r4, r5, r8, r9, fp}
 898:	1301193c 	movwne	r1, #6460	; 0x193c
 89c:	050f0000 	streq	r0, [pc, #-0]	; 8a4 <_start-0x775c>
 8a0:	00134900 	andseq	r4, r3, r0, lsl #18
 8a4:	012e1000 	teqeq	lr, r0
 8a8:	0e03193f 	mcreq	9, 0, r1, cr3, cr15, {1}
 8ac:	0b3b0b3a 	bleq	ec359c <__bss_end__+0xeb9e9c>
 8b0:	193c1927 	ldmdbne	ip!, {r0, r1, r2, r5, r8, fp, ip}
 8b4:	01000000 	mrseq	r0, (UNDEF: 0)
 8b8:	0e250111 	mcreq	1, 1, r0, cr5, cr1, {0}
 8bc:	0e030b13 	vmoveq.32	d3[0], r0
 8c0:	01110e1b 	tsteq	r1, fp, lsl lr
 8c4:	17100612 			; <UNDEFINED> instruction: 0x17100612
 8c8:	24020000 	strcs	r0, [r2], #-0
 8cc:	3e0b0b00 	vmlacc.f64	d0, d11, d0
 8d0:	0008030b 	andeq	r0, r8, fp, lsl #6
 8d4:	00240300 	eoreq	r0, r4, r0, lsl #6
 8d8:	0b3e0b0b 	bleq	f8350c <__bss_end__+0xf79e0c>
 8dc:	00000e03 	andeq	r0, r0, r3, lsl #28
 8e0:	3f012e04 	svccc	0x00012e04
 8e4:	3a0e0319 	bcc	381550 <__bss_end__+0x377e50>
 8e8:	270b3b0b 	strcs	r3, [fp, -fp, lsl #22]
 8ec:	12011119 	andne	r1, r1, #1073741830	; 0x40000006
 8f0:	97184006 	ldrls	r4, [r8, -r6]
 8f4:	13011942 	movwne	r1, #6466	; 0x1942
 8f8:	05050000 	streq	r0, [r5, #-0]
 8fc:	3a0e0300 	bcc	381504 <__bss_end__+0x377e04>
 900:	490b3b0b 	stmdbmi	fp, {r0, r1, r3, r8, r9, fp, ip, sp}
 904:	00170213 	andseq	r0, r7, r3, lsl r2
 908:	012e0600 	teqeq	lr, r0, lsl #12
 90c:	0e03193f 	mcreq	9, 0, r1, cr3, cr15, {1}
 910:	0b3b0b3a 	bleq	ec3600 <__bss_end__+0xeb9f00>
 914:	13491927 	movtne	r1, #39207	; 0x9927
 918:	06120111 			; <UNDEFINED> instruction: 0x06120111
 91c:	42971840 	addsmi	r1, r7, #64, 16	; 0x400000
 920:	00130119 	andseq	r0, r3, r9, lsl r1
 924:	82890700 	addhi	r0, r9, #0, 14
 928:	01110101 	tsteq	r1, r1, lsl #2
 92c:	00001331 	andeq	r1, r0, r1, lsr r3
 930:	01828a08 	orreq	r8, r2, r8, lsl #20
 934:	91180200 	tstls	r8, r0, lsl #4
 938:	00001842 	andeq	r1, r0, r2, asr #16
 93c:	03003409 	movweq	r3, #1033	; 0x409
 940:	3b0b3a08 	blcc	2cf168 <__bss_end__+0x2c5a68>
 944:	0213490b 	andseq	r4, r3, #180224	; 0x2c000
 948:	0a000018 	beq	9b0 <_start-0x7650>
 94c:	00018289 	andeq	r8, r1, r9, lsl #5
 950:	13310111 	teqne	r1, #1073741828	; 0x40000004
 954:	050b0000 	streq	r0, [fp, #-0]
 958:	3a080300 	bcc	201560 <__bss_end__+0x1f7e60>
 95c:	490b3b0b 	stmdbmi	fp, {r0, r1, r3, r8, r9, fp, ip, sp}
 960:	00170213 	andseq	r0, r7, r3, lsl r2
 964:	010b0c00 	tsteq	fp, r0, lsl #24
 968:	06120111 			; <UNDEFINED> instruction: 0x06120111
 96c:	00001301 	andeq	r1, r0, r1, lsl #6
 970:	0300340d 	movweq	r3, #1037	; 0x40d
 974:	3b0b3a08 	blcc	2cf19c <__bss_end__+0x2c5a9c>
 978:	0213490b 	andseq	r4, r3, #180224	; 0x2c000
 97c:	0e000017 	mcreq	0, 0, r0, cr0, cr7, {0}
 980:	193f012e 	ldmdbne	pc!, {r1, r2, r3, r5, r8}	; <UNPREDICTABLE>
 984:	0b3a0e03 	bleq	e84198 <__bss_end__+0xe7aa98>
 988:	19270b3b 	stmdbne	r7!, {r0, r1, r3, r4, r5, r8, r9, fp}
 98c:	193c1349 	ldmdbne	ip!, {r0, r3, r6, r8, r9, ip}
 990:	050f0000 	streq	r0, [pc, #-0]	; 998 <_start-0x7668>
 994:	00134900 	andseq	r4, r3, r0, lsl #18
 998:	11010000 	mrsne	r0, (UNDEF: 1)
 99c:	130e2501 	movwne	r2, #58625	; 0xe501
 9a0:	1b0e030b 	blne	3815d4 <__bss_end__+0x377ed4>
 9a4:	1201110e 	andne	r1, r1, #-2147483645	; 0x80000003
 9a8:	00171006 	andseq	r1, r7, r6
 9ac:	00240200 	eoreq	r0, r4, r0, lsl #4
 9b0:	0b3e0b0b 	bleq	f835e4 <__bss_end__+0xf79ee4>
 9b4:	00000e03 	andeq	r0, r0, r3, lsl #28
 9b8:	0b002403 	bleq	99cc <__bss_end__+0x2cc>
 9bc:	030b3e0b 	movweq	r3, #48651	; 0xbe0b
 9c0:	04000008 	streq	r0, [r0], #-8
 9c4:	0b0b0104 	bleq	2c0ddc <__bss_end__+0x2b76dc>
 9c8:	0b3b0b3a 	bleq	ec36b8 <__bss_end__+0xeb9fb8>
 9cc:	00001301 	andeq	r1, r0, r1, lsl #6
 9d0:	03002805 	movweq	r2, #2053	; 0x805
 9d4:	000d1c0e 	andeq	r1, sp, lr, lsl #24
 9d8:	00160600 	andseq	r0, r6, r0, lsl #12
 9dc:	0b3a0e03 	bleq	e841f0 <__bss_end__+0xe7aaf0>
 9e0:	13490b3b 	movtne	r0, #39739	; 0x9b3b
 9e4:	2e070000 	cdpcs	0, 0, cr0, cr7, cr0, {0}
 9e8:	03193f01 	tsteq	r9, #1, 30
 9ec:	3b0b3a0e 	blcc	2cf22c <__bss_end__+0x2c5b2c>
 9f0:	1119270b 	tstne	r9, fp, lsl #14
 9f4:	40061201 	andmi	r1, r6, r1, lsl #4
 9f8:	19429718 	stmdbne	r2, {r3, r4, r8, r9, sl, ip, pc}^
 9fc:	00001301 	andeq	r1, r0, r1, lsl #6
 a00:	03000508 	movweq	r0, #1288	; 0x508
 a04:	3b0b3a08 	blcc	2cf22c <__bss_end__+0x2c5b2c>
 a08:	0213490b 	andseq	r4, r3, #180224	; 0x2c000
 a0c:	09000017 	stmdbeq	r0, {r0, r1, r2, r4}
 a10:	0e030034 	mcreq	0, 0, r0, cr3, cr4, {1}
 a14:	0b3b0b3a 	bleq	ec3704 <__bss_end__+0xeba004>
 a18:	17021349 	strne	r1, [r2, -r9, asr #6]
 a1c:	890a0000 	stmdbhi	sl, {}	; <UNPREDICTABLE>
 a20:	11010182 	smlabbne	r1, r2, r1, r0
 a24:	01133101 	tsteq	r3, r1, lsl #2
 a28:	0b000013 	bleq	a7c <_start-0x7584>
 a2c:	0001828a 	andeq	r8, r1, sl, lsl #5
 a30:	42911802 	addsmi	r1, r1, #131072	; 0x20000
 a34:	0c000018 	stceq	0, cr0, [r0], {24}
 a38:	01018289 	smlabbeq	r1, r9, r2, r8
 a3c:	13310111 	teqne	r1, #1073741828	; 0x40000004
 a40:	0f0d0000 	svceq	0x000d0000
 a44:	490b0b00 	stmdbmi	fp, {r8, r9, fp}
 a48:	0e000013 	mcreq	0, 0, r0, cr0, cr3, {0}
 a4c:	13490035 	movtne	r0, #36917	; 0x9035
 a50:	2e0f0000 	cdpcs	0, 0, cr0, cr15, cr0, {0}
 a54:	03193f01 	tsteq	r9, #1, 30
 a58:	3b0b3a0e 	blcc	2cf298 <__bss_end__+0x2c5b98>
 a5c:	4919270b 	ldmdbmi	r9, {r0, r1, r3, r8, r9, sl, sp}
 a60:	12011113 	andne	r1, r1, #-1073741820	; 0xc0000004
 a64:	97184006 	ldrls	r4, [r8, -r6]
 a68:	13011942 	movwne	r1, #6466	; 0x1942
 a6c:	34100000 	ldrcc	r0, [r0], #-0
 a70:	3a080300 	bcc	201678 <__bss_end__+0x1f7f78>
 a74:	490b3b0b 	stmdbmi	fp, {r0, r1, r3, r8, r9, fp, ip, sp}
 a78:	00170213 	andseq	r0, r7, r3, lsl r2
 a7c:	82891100 	addhi	r1, r9, #0, 2
 a80:	01110001 	tsteq	r1, r1
 a84:	00001331 	andeq	r1, r0, r1, lsr r3
 a88:	03000512 	movweq	r0, #1298	; 0x512
 a8c:	3b0b3a0e 	blcc	2cf2cc <__bss_end__+0x2c5bcc>
 a90:	0213490b 	andseq	r4, r3, #180224	; 0x2c000
 a94:	13000017 	movwne	r0, #23
 a98:	193f012e 	ldmdbne	pc!, {r1, r2, r3, r5, r8}	; <UNPREDICTABLE>
 a9c:	0b3a0e03 	bleq	e842b0 <__bss_end__+0xe7abb0>
 aa0:	1927053b 	stmdbne	r7!, {r0, r1, r3, r4, r5, r8, sl}
 aa4:	01111349 	tsteq	r1, r9, asr #6
 aa8:	18400612 	stmdane	r0, {r1, r4, r9, sl}^
 aac:	01194297 			; <UNDEFINED> instruction: 0x01194297
 ab0:	14000013 	strne	r0, [r0], #-19
 ab4:	0e030005 	cdpeq	0, 0, cr0, cr3, cr5, {0}
 ab8:	053b0b3a 	ldreq	r0, [fp, #-2874]!	; 0xb3a
 abc:	17021349 	strne	r1, [r2, -r9, asr #6]
 ac0:	2e150000 	cdpcs	0, 1, cr0, cr5, cr0, {0}
 ac4:	03193f01 	tsteq	r9, #1, 30
 ac8:	3b0b3a0e 	blcc	2cf308 <__bss_end__+0x2c5c08>
 acc:	11192705 	tstne	r9, r5, lsl #14
 ad0:	40061201 	andmi	r1, r6, r1, lsl #4
 ad4:	19429718 	stmdbne	r2, {r3, r4, r8, r9, sl, ip, pc}^
 ad8:	00001301 	andeq	r1, r0, r1, lsl #6
 adc:	03000516 	movweq	r0, #1302	; 0x516
 ae0:	3b0b3a08 	blcc	2cf308 <__bss_end__+0x2c5c08>
 ae4:	02134905 	andseq	r4, r3, #81920	; 0x14000
 ae8:	17000017 	smladne	r0, r7, r0, r0
 aec:	0e030034 	mcreq	0, 0, r0, cr3, cr4, {1}
 af0:	053b0b3a 	ldreq	r0, [fp, #-2874]!	; 0xb3a
 af4:	17021349 	strne	r1, [r2, -r9, asr #6]
 af8:	0b180000 	bleq	600b00 <__bss_end__+0x5f7400>
 afc:	12011101 	andne	r1, r1, #1073741824	; 0x40000000
 b00:	00130106 	andseq	r0, r3, r6, lsl #2
 b04:	00341900 	eorseq	r1, r4, r0, lsl #18
 b08:	0b3a0e03 	bleq	e8431c <__bss_end__+0xe7ac1c>
 b0c:	13490b3b 	movtne	r0, #39739	; 0x9b3b
 b10:	1802193f 	stmdane	r2, {r0, r1, r2, r3, r4, r5, r8, fp, ip}
 b14:	341a0000 	ldrcc	r0, [sl], #-0
 b18:	3a0e0300 	bcc	381720 <__bss_end__+0x378020>
 b1c:	49053b0b 	stmdbmi	r5, {r0, r1, r3, r8, r9, fp, ip, sp}
 b20:	02193f13 	andseq	r3, r9, #19, 30	; 0x4c
 b24:	1b000018 	blne	b8c <_start-0x7474>
 b28:	193f012e 	ldmdbne	pc!, {r1, r2, r3, r5, r8}	; <UNPREDICTABLE>
 b2c:	0b3a0e03 	bleq	e84340 <__bss_end__+0xe7ac40>
 b30:	19270b3b 	stmdbne	r7!, {r0, r1, r3, r4, r5, r8, r9, fp}
 b34:	193c1349 	ldmdbne	ip!, {r0, r3, r6, r8, r9, ip}
 b38:	00001301 	andeq	r1, r0, r1, lsl #6
 b3c:	4900051c 	stmdbmi	r0, {r2, r3, r4, r8, sl}
 b40:	1d000013 	stcne	0, cr0, [r0, #-76]	; 0xffffffb4
 b44:	13490026 	movtne	r0, #36902	; 0x9026
 b48:	351e0000 	ldrcc	r0, [lr, #-0]
 b4c:	1f000000 	svcne	0x00000000
 b50:	193f012e 	ldmdbne	pc!, {r1, r2, r3, r5, r8}	; <UNPREDICTABLE>
 b54:	0b3a0e03 	bleq	e84368 <__bss_end__+0xe7ac68>
 b58:	19270b3b 	stmdbne	r7!, {r0, r1, r3, r4, r5, r8, r9, fp}
 b5c:	1301193c 	movwne	r1, #6460	; 0x193c
 b60:	2e200000 	cdpcs	0, 2, cr0, cr0, cr0, {0}
 b64:	03193f00 	tsteq	r9, #0, 30
 b68:	3b0b3a0e 	blcc	2cf3a8 <__bss_end__+0x2c5ca8>
 b6c:	3c19270b 	ldccc	7, cr2, [r9], {11}
 b70:	00000019 	andeq	r0, r0, r9, lsl r0
 b74:	25011101 	strcs	r1, [r1, #-257]	; 0x101
 b78:	030b130e 	movweq	r1, #45838	; 0xb30e
 b7c:	110e1b0e 	tstne	lr, lr, lsl #22
 b80:	10061201 	andne	r1, r6, r1, lsl #4
 b84:	02000017 	andeq	r0, r0, #23
 b88:	0b0b0024 	bleq	2c0c20 <__bss_end__+0x2b7520>
 b8c:	08030b3e 	stmdaeq	r3, {r1, r2, r3, r4, r5, r8, r9, fp}
 b90:	24030000 	strcs	r0, [r3], #-0
 b94:	3e0b0b00 	vmlacc.f64	d0, d11, d0
 b98:	000e030b 	andeq	r0, lr, fp, lsl #6
 b9c:	01040400 	tsteq	r4, r0, lsl #8
 ba0:	0b3a0b0b 	bleq	e837d4 <__bss_end__+0xe7a0d4>
 ba4:	13010b3b 	movwne	r0, #6971	; 0x1b3b
 ba8:	28050000 	stmdacs	r5, {}	; <UNPREDICTABLE>
 bac:	1c0e0300 	stcne	3, cr0, [lr], {-0}
 bb0:	0600000d 	streq	r0, [r0], -sp
 bb4:	0e030016 	mcreq	0, 0, r0, cr3, cr6, {0}
 bb8:	0b3b0b3a 	bleq	ec38a8 <__bss_end__+0xeba1a8>
 bbc:	00001349 	andeq	r1, r0, r9, asr #6
 bc0:	3f012e07 	svccc	0x00012e07
 bc4:	3a0e0319 	bcc	381830 <__bss_end__+0x378130>
 bc8:	270b3b0b 	strcs	r3, [fp, -fp, lsl #22]
 bcc:	12011119 	andne	r1, r1, #1073741830	; 0x40000006
 bd0:	97184006 	ldrls	r4, [r8, -r6]
 bd4:	13011942 	movwne	r1, #6466	; 0x1942
 bd8:	89080000 	stmdbhi	r8, {}	; <UNPREDICTABLE>
 bdc:	11000182 	smlabbne	r0, r2, r1, r0
 be0:	00133101 	andseq	r3, r3, r1, lsl #2
 be4:	82890900 	addhi	r0, r9, #0, 18
 be8:	01110101 	tsteq	r1, r1, lsl #2
 bec:	13011331 	movwne	r1, #4913	; 0x1331
 bf0:	8a0a0000 	bhi	280bf8 <__bss_end__+0x2774f8>
 bf4:	02000182 	andeq	r0, r0, #-2147483616	; 0x80000020
 bf8:	18429118 	stmdane	r2, {r3, r4, r8, ip, pc}^
 bfc:	2e0b0000 	cdpcs	0, 0, cr0, cr11, cr0, {0}
 c00:	03193f01 	tsteq	r9, #1, 30
 c04:	3b0b3a0e 	blcc	2cf444 <__bss_end__+0x2c5d44>
 c08:	4919270b 	ldmdbmi	r9, {r0, r1, r3, r8, r9, sl, sp}
 c0c:	12011113 	andne	r1, r1, #-1073741820	; 0xc0000004
 c10:	97184006 	ldrls	r4, [r8, -r6]
 c14:	13011942 	movwne	r1, #6466	; 0x1942
 c18:	050c0000 	streq	r0, [ip, #-0]
 c1c:	3a080300 	bcc	201824 <__bss_end__+0x1f8124>
 c20:	490b3b0b 	stmdbmi	fp, {r0, r1, r3, r8, r9, fp, ip, sp}
 c24:	00170213 	andseq	r0, r7, r3, lsl r2
 c28:	82890d00 	addhi	r0, r9, #0, 26
 c2c:	01110101 	tsteq	r1, r1, lsl #2
 c30:	00001331 	andeq	r1, r0, r1, lsr r3
 c34:	0300340e 	movweq	r3, #1038	; 0x40e
 c38:	3b0b3a0e 	blcc	2cf478 <__bss_end__+0x2c5d78>
 c3c:	3f13490b 	svccc	0x0013490b
 c40:	00180219 	andseq	r0, r8, r9, lsl r2
 c44:	000f0f00 	andeq	r0, pc, r0, lsl #30
 c48:	13490b0b 	movtne	r0, #39691	; 0x9b0b
 c4c:	35100000 	ldrcc	r0, [r0, #-0]
 c50:	00134900 	andseq	r4, r3, r0, lsl #18
 c54:	002e1100 	eoreq	r1, lr, r0, lsl #2
 c58:	0e03193f 	mcreq	9, 0, r1, cr3, cr15, {1}
 c5c:	0b3b0b3a 	bleq	ec394c <__bss_end__+0xeba24c>
 c60:	193c1927 	ldmdbne	ip!, {r0, r1, r2, r5, r8, fp, ip}
 c64:	2e120000 	cdpcs	0, 1, cr0, cr2, cr0, {0}
 c68:	03193f01 	tsteq	r9, #1, 30
 c6c:	3b0b3a0e 	blcc	2cf4ac <__bss_end__+0x2c5dac>
 c70:	3c19270b 	ldccc	7, cr2, [r9], {11}
 c74:	00130119 	andseq	r0, r3, r9, lsl r1
 c78:	00051300 	andeq	r1, r5, r0, lsl #6
 c7c:	00001349 	andeq	r1, r0, r9, asr #6
 c80:	3f012e14 	svccc	0x00012e14
 c84:	3a0e0319 	bcc	3818f0 <__bss_end__+0x3781f0>
 c88:	270b3b0b 	strcs	r3, [fp, -fp, lsl #22]
 c8c:	3c134919 	ldccc	9, cr4, [r3], {25}
 c90:	00130119 	andseq	r0, r3, r9, lsl r1
 c94:	00261500 	eoreq	r1, r6, r0, lsl #10
 c98:	00001349 	andeq	r1, r0, r9, asr #6
 c9c:	00003516 	andeq	r3, r0, r6, lsl r5
 ca0:	11010000 	mrsne	r0, (UNDEF: 1)
 ca4:	130e2501 	movwne	r2, #58625	; 0xe501
 ca8:	1b0e030b 	blne	3818dc <__bss_end__+0x3781dc>
 cac:	1201110e 	andne	r1, r1, #-2147483645	; 0x80000003
 cb0:	00171006 	andseq	r1, r7, r6
 cb4:	00240200 	eoreq	r0, r4, r0, lsl #4
 cb8:	0b3e0b0b 	bleq	f838ec <__bss_end__+0xf7a1ec>
 cbc:	00000803 	andeq	r0, r0, r3, lsl #16
 cc0:	0b002403 	bleq	9cd4 <__bss_end__+0x5d4>
 cc4:	030b3e0b 	movweq	r3, #48651	; 0xbe0b
 cc8:	0400000e 	streq	r0, [r0], #-14
 ccc:	0e03012e 	adfeqsp	f0, f3, #0.5
 cd0:	0b3b0b3a 	bleq	ec39c0 <__bss_end__+0xeba2c0>
 cd4:	13491927 	movtne	r1, #39207	; 0x9927
 cd8:	06120111 			; <UNDEFINED> instruction: 0x06120111
 cdc:	42971840 	addsmi	r1, r7, #64, 16	; 0x400000
 ce0:	00130119 	andseq	r0, r3, r9, lsl r1
 ce4:	00050500 	andeq	r0, r5, r0, lsl #10
 ce8:	0b3a0803 	bleq	e82cfc <__bss_end__+0xe795fc>
 cec:	13490b3b 	movtne	r0, #39739	; 0x9b3b
 cf0:	00001702 	andeq	r1, r0, r2, lsl #14
 cf4:	01828906 	orreq	r8, r2, r6, lsl #18
 cf8:	31011101 	tstcc	r1, r1, lsl #2
 cfc:	07000013 	smladeq	r0, r3, r0, r0
 d00:	0001828a 	andeq	r8, r1, sl, lsl #5
 d04:	42911802 	addsmi	r1, r1, #131072	; 0x20000
 d08:	08000018 	stmdaeq	r0, {r3, r4}
 d0c:	193f002e 	ldmdbne	pc!, {r1, r2, r3, r5}	; <UNPREDICTABLE>
 d10:	0b3a0e03 	bleq	e84524 <__bss_end__+0xe7ae24>
 d14:	19270b3b 	stmdbne	r7!, {r0, r1, r3, r4, r5, r8, r9, fp}
 d18:	06120111 			; <UNDEFINED> instruction: 0x06120111
 d1c:	42971840 	addsmi	r1, r7, #64, 16	; 0x400000
 d20:	09000019 	stmdbeq	r0, {r0, r3, r4}
 d24:	193f012e 	ldmdbne	pc!, {r1, r2, r3, r5, r8}	; <UNPREDICTABLE>
 d28:	0b3a0e03 	bleq	e8453c <__bss_end__+0xe7ae3c>
 d2c:	19270b3b 	stmdbne	r7!, {r0, r1, r3, r4, r5, r8, r9, fp}
 d30:	06120111 			; <UNDEFINED> instruction: 0x06120111
 d34:	42971840 	addsmi	r1, r7, #64, 16	; 0x400000
 d38:	00130119 	andseq	r0, r3, r9, lsl r1
 d3c:	00050a00 	andeq	r0, r5, r0, lsl #20
 d40:	0b3a0803 	bleq	e82d54 <__bss_end__+0xe79654>
 d44:	13490b3b 	movtne	r0, #39739	; 0x9b3b
 d48:	00001802 	andeq	r1, r0, r2, lsl #16
 d4c:	2701150b 	strcs	r1, [r1, -fp, lsl #10]
 d50:	01134919 	tsteq	r3, r9, lsl r9
 d54:	0c000013 	stceq	0, cr0, [r0], {19}
 d58:	13490005 	movtne	r0, #36869	; 0x9005
 d5c:	0f0d0000 	svceq	0x000d0000
 d60:	490b0b00 	stmdbmi	fp, {r8, r9, fp}
 d64:	0e000013 	mcreq	0, 0, r0, cr0, cr3, {0}
 d68:	0e030034 	mcreq	0, 0, r0, cr3, cr4, {1}
 d6c:	0b3b0b3a 	bleq	ec3a5c <__bss_end__+0xeba35c>
 d70:	193f1349 	ldmdbne	pc!, {r0, r3, r6, r8, r9, ip}	; <UNPREDICTABLE>
 d74:	00001802 	andeq	r1, r0, r2, lsl #16
 d78:	3f012e0f 	svccc	0x00012e0f
 d7c:	3a0e0319 	bcc	3819e8 <__bss_end__+0x3782e8>
 d80:	270b3b0b 	strcs	r3, [fp, -fp, lsl #22]
 d84:	00193c19 	andseq	r3, r9, r9, lsl ip
	...

Disassembly of section .debug_loc:

00000000 <.debug_loc>:
       0:	0000004c 	andeq	r0, r0, ip, asr #32
       4:	00000058 	andeq	r0, r0, r8, asr r0
       8:	58500001 	ldmdapl	r0, {r0}^
       c:	5b000000 	blpl	14 <_start-0x7fec>
      10:	01000000 	mrseq	r0, (UNDEF: 0)
      14:	00005100 	andeq	r5, r0, r0, lsl #2
      18:	00000000 	andeq	r0, r0, r0
      1c:	002c0000 	eoreq	r0, ip, r0
      20:	00400000 	subeq	r0, r0, r0
      24:	00020000 	andeq	r0, r2, r0
      28:	00409f30 	subeq	r9, r0, r0, lsr pc
      2c:	00900000 	addseq	r0, r0, r0
      30:	00010000 	andeq	r0, r1, r0
      34:	00000055 	andeq	r0, r0, r5, asr r0
	...
      40:	00000b00 	andeq	r0, r0, r0, lsl #22
      44:	50000100 	andpl	r0, r0, r0, lsl #2
      48:	0000000b 	andeq	r0, r0, fp
      4c:	0000003c 	andeq	r0, r0, ip, lsr r0
      50:	3c550001 	mrrccc	0, 0, r0, r5, cr1
      54:	8c000000 	stchi	0, cr0, [r0], {-0}
      58:	04000000 	streq	r0, [r0], #-0
      5c:	5001f300 	andpl	pc, r1, r0, lsl #6
      60:	0000009f 	muleq	r0, pc, r0	; <UNPREDICTABLE>
      64:	00000000 	andeq	r0, r0, r0
      68:	00002400 	andeq	r2, r0, r0, lsl #8
      6c:	00003000 	andeq	r3, r0, r0
      70:	30000200 	andcc	r0, r0, r0, lsl #4
      74:	0000309f 	muleq	r0, pc, r0	; <UNPREDICTABLE>
      78:	00003000 	andeq	r3, r0, r0
      7c:	54000100 	strpl	r0, [r0], #-256	; 0x100
      80:	00000030 	andeq	r0, r0, r0, lsr r0
      84:	00000038 	andeq	r0, r0, r8, lsr r0
      88:	9f300002 	svcls	0x00300002
      8c:	00000038 	andeq	r0, r0, r8, lsr r0
      90:	0000008c 	andeq	r0, r0, ip, lsl #1
      94:	00540001 	subseq	r0, r4, r1
      98:	00000000 	andeq	r0, r0, r0
      9c:	8c000000 	stchi	0, cr0, [r0], {-0}
      a0:	97000000 	strls	r0, [r0, -r0]
      a4:	01000000 	mrseq	r0, (UNDEF: 0)
      a8:	00975000 	addseq	r5, r7, r0
      ac:	00c80000 	sbceq	r0, r8, r0
      b0:	00010000 	andeq	r0, r1, r0
      b4:	0000c855 	andeq	ip, r0, r5, asr r8
      b8:	00011800 	andeq	r1, r1, r0, lsl #16
      bc:	f3000400 	vshl.u8	d0, d0, d0
      c0:	009f5001 	addseq	r5, pc, r1
      c4:	00000000 	andeq	r0, r0, r0
      c8:	b0000000 	andlt	r0, r0, r0
      cc:	bc000000 	stclt	0, cr0, [r0], {-0}
      d0:	02000000 	andeq	r0, r0, #0
      d4:	bc9f3000 	ldclt	0, cr3, [pc], {0}
      d8:	bc000000 	stclt	0, cr0, [r0], {-0}
      dc:	01000000 	mrseq	r0, (UNDEF: 0)
      e0:	00bc5400 	adcseq	r5, ip, r0, lsl #8
      e4:	00c40000 	sbceq	r0, r4, r0
      e8:	00020000 	andeq	r0, r2, r0
      ec:	00c49f30 	sbceq	r9, r4, r0, lsr pc
      f0:	01180000 	tsteq	r8, r0
      f4:	00010000 	andeq	r0, r1, r0
      f8:	00000054 	andeq	r0, r0, r4, asr r0
      fc:	00000000 	andeq	r0, r0, r0
     100:	00011800 	andeq	r1, r1, r0, lsl #16
     104:	00012b00 	andeq	r2, r1, r0, lsl #22
     108:	50000100 	andpl	r0, r0, r0, lsl #2
     10c:	0000012b 	andeq	r0, r0, fp, lsr #2
     110:	0000016c 	andeq	r0, r0, ip, ror #2
     114:	00540001 	subseq	r0, r4, r1
     118:	00000000 	andeq	r0, r0, r0
     11c:	18000000 	stmdane	r0, {}	; <UNPREDICTABLE>
     120:	2b000001 	blcs	12c <_start-0x7ed4>
     124:	01000001 	tsteq	r0, r1
     128:	012b5100 	teqeq	fp, r0, lsl #2
     12c:	016c0000 	cmneq	ip, r0
     130:	00010000 	andeq	r0, r1, r0
     134:	00000056 	andeq	r0, r0, r6, asr r0
     138:	00000000 	andeq	r0, r0, r0
     13c:	00011800 	andeq	r1, r1, r0, lsl #16
     140:	00012b00 	andeq	r2, r1, r0, lsl #22
     144:	52000100 	andpl	r0, r0, #0, 2
     148:	0000012b 	andeq	r0, r0, fp, lsr #2
     14c:	00000138 	andeq	r0, r0, r8, lsr r1
     150:	38570001 	ldmdacc	r7, {r0}^
     154:	6c000001 	stcvs	0, cr0, [r0], {1}
     158:	04000001 	streq	r0, [r0], #-1
     15c:	5201f300 	andpl	pc, r1, #0, 6
     160:	0000009f 	muleq	r0, pc, r0	; <UNPREDICTABLE>
     164:	00000000 	andeq	r0, r0, r0
     168:	00013000 	andeq	r3, r1, r0
     16c:	00013c00 	andeq	r3, r1, r0, lsl #24
     170:	50000100 	andpl	r0, r0, r0, lsl #2
     174:	0000013c 	andeq	r0, r0, ip, lsr r1
     178:	0000016c 	andeq	r0, r0, ip, ror #2
     17c:	00580001 	subseq	r0, r8, r1
     180:	00000000 	andeq	r0, r0, r0
     184:	30000000 	andcc	r0, r0, r0
     188:	3c000001 	stccc	0, cr0, [r0], {1}
     18c:	02000001 	andeq	r0, r0, #1
     190:	449f3000 	ldrmi	r3, [pc], #0	; 198 <_start-0x7e68>
     194:	4c000001 	stcmi	0, cr0, [r0], {1}
     198:	01000001 	tsteq	r0, r1
     19c:	01645000 	cmneq	r4, r0
     1a0:	01680000 	cmneq	r8, r0
     1a4:	00010000 	andeq	r0, r1, r0
     1a8:	00016850 	andeq	r6, r1, r0, asr r8
     1ac:	00016c00 	andeq	r6, r1, r0, lsl #24
     1b0:	55000100 	strpl	r0, [r0, #-256]	; 0x100
	...
     1bc:	0000016c 	andeq	r0, r0, ip, ror #2
     1c0:	00000187 	andeq	r0, r0, r7, lsl #3
     1c4:	87510001 	ldrbhi	r0, [r1, -r1]
     1c8:	a0000001 	andge	r0, r0, r1
     1cc:	02000001 	andeq	r0, r0, #1
     1d0:	00007400 	andeq	r7, r0, r0, lsl #8
     1d4:	00000000 	andeq	r0, r0, r0
     1d8:	6c000000 	stcvs	0, cr0, [r0], {-0}
     1dc:	87000001 	strhi	r0, [r0, -r1]
     1e0:	01000001 	tsteq	r0, r1
     1e4:	01875200 	orreq	r5, r7, r0, lsl #4
     1e8:	01a00000 	moveq	r0, r0
     1ec:	00010000 	andeq	r0, r1, r0
     1f0:	00000055 	andeq	r0, r0, r5, asr r0
     1f4:	00000000 	andeq	r0, r0, r0
     1f8:	00016c00 	andeq	r6, r1, r0, lsl #24
     1fc:	00018400 	andeq	r8, r1, r0, lsl #8
     200:	70000200 	andvc	r0, r0, r0, lsl #4
     204:	00018400 	andeq	r8, r1, r0, lsl #8
     208:	0001a000 	andeq	sl, r1, r0
     20c:	74000200 	strvc	r0, [r0], #-512	; 0x200
	...
     218:	0001a000 	andeq	sl, r1, r0
     21c:	0001ac00 	andeq	sl, r1, r0, lsl #24
     220:	50000100 	andpl	r0, r0, r0, lsl #2
     224:	000001ac 	andeq	r0, r0, ip, lsr #3
     228:	000001e8 	andeq	r0, r0, r8, ror #3
     22c:	00540001 	subseq	r0, r4, r1
     230:	00000000 	andeq	r0, r0, r0
     234:	a0000000 	andge	r0, r0, r0
     238:	af000001 	svcge	0x00000001
     23c:	01000001 	tsteq	r0, r1
     240:	01af5100 			; <UNDEFINED> instruction: 0x01af5100
     244:	01e80000 	mvneq	r0, r0
     248:	00040000 	andeq	r0, r4, r0
     24c:	9f5101f3 	svcls	0x005101f3
	...
     258:	0000002c 	andeq	r0, r0, ip, lsr #32
     25c:	00000038 	andeq	r0, r0, r8, lsr r0
     260:	38500001 	ldmdacc	r0, {r0}^
     264:	48000000 	stmdami	r0, {}	; <UNPREDICTABLE>
     268:	01000000 	mrseq	r0, (UNDEF: 0)
     26c:	00485500 	subeq	r5, r8, r0, lsl #10
     270:	00580000 	subseq	r0, r8, r0
     274:	00010000 	andeq	r0, r1, r0
     278:	00000050 	andeq	r0, r0, r0, asr r0
	...
     284:	00001000 	andeq	r1, r0, r0
     288:	50000100 	andpl	r0, r0, r0, lsl #2
     28c:	00000010 	andeq	r0, r0, r0, lsl r0
     290:	00000034 	andeq	r0, r0, r4, lsr r0
     294:	00540001 	subseq	r0, r4, r1
	...
     2a0:	04000000 	streq	r0, [r0], #-0
     2a4:	01000000 	mrseq	r0, (UNDEF: 0)
     2a8:	00045000 	andeq	r5, r4, r0
     2ac:	000c0000 	andeq	r0, ip, r0
     2b0:	00030000 	andeq	r0, r3, r0
     2b4:	0c9f3070 	ldceq	0, cr3, [pc], {112}	; 0x70
     2b8:	14000000 	strne	r0, [r0], #-0
     2bc:	04000000 	streq	r0, [r0], #-0
     2c0:	5001f300 	andpl	pc, r1, r0, lsl #6
     2c4:	0000009f 	muleq	r0, pc, r0	; <UNPREDICTABLE>
     2c8:	00000000 	andeq	r0, r0, r0
     2cc:	00001400 	andeq	r1, r0, r0, lsl #8
     2d0:	00002000 	andeq	r2, r0, r0
     2d4:	50000100 	andpl	r0, r0, r0, lsl #2
     2d8:	00000020 	andeq	r0, r0, r0, lsr #32
     2dc:	0000002c 	andeq	r0, r0, ip, lsr #32
     2e0:	01700003 	cmneq	r0, r3
     2e4:	00002c9f 	muleq	r0, pc, ip	; <UNPREDICTABLE>
     2e8:	00004000 	andeq	r4, r0, r0
     2ec:	50000100 	andpl	r0, r0, r0, lsl #2
	...
     2f8:	00000014 	andeq	r0, r0, r4, lsl r0
     2fc:	00000018 	andeq	r0, r0, r8, lsl r0
     300:	18510001 	ldmdane	r1, {r0}^
     304:	40000000 	andmi	r0, r0, r0
     308:	04000000 	streq	r0, [r0], #-0
     30c:	5101f300 	mrspl	pc, SP_irq	; <UNPREDICTABLE>
     310:	0000009f 	muleq	r0, pc, r0	; <UNPREDICTABLE>
     314:	00000000 	andeq	r0, r0, r0
     318:	00004000 	andeq	r4, r0, r0
     31c:	00006000 	andeq	r6, r0, r0
     320:	50000100 	andpl	r0, r0, r0, lsl #2
     324:	00000060 	andeq	r0, r0, r0, rrx
     328:	0000006c 	andeq	r0, r0, ip, rrx
     32c:	01710003 	cmneq	r1, r3
     330:	00006c9f 	muleq	r0, pc, ip	; <UNPREDICTABLE>
     334:	00007400 	andeq	r7, r0, r0, lsl #8
     338:	51000100 	mrspl	r0, (UNDEF: 16)
     33c:	00000074 	andeq	r0, r0, r4, ror r0
     340:	00000080 	andeq	r0, r0, r0, lsl #1
     344:	01710003 	cmneq	r1, r3
     348:	0000009f 	muleq	r0, pc, r0	; <UNPREDICTABLE>
     34c:	00000000 	andeq	r0, r0, r0
     350:	00004000 	andeq	r4, r0, r0
     354:	00005000 	andeq	r5, r0, r0
     358:	51000100 	mrspl	r0, (UNDEF: 16)
     35c:	00000050 	andeq	r0, r0, r0, asr r0
     360:	00000080 	andeq	r0, r0, r0, lsl #1
     364:	01f30004 	mvnseq	r0, r4
     368:	00009f51 	andeq	r9, r0, r1, asr pc
     36c:	00000000 	andeq	r0, r0, r0
     370:	00400000 	subeq	r0, r0, r0
     374:	00580000 	subseq	r0, r8, r0
     378:	00010000 	andeq	r0, r1, r0
     37c:	00005852 	andeq	r5, r0, r2, asr r8
     380:	00006400 	andeq	r6, r0, r0, lsl #8
     384:	52000100 	andpl	r0, r0, #0, 2
     388:	00000064 	andeq	r0, r0, r4, rrx
     38c:	00000068 	andeq	r0, r0, r8, rrx
     390:	01720003 	cmneq	r2, r3
     394:	0000689f 	muleq	r0, pc, r8	; <UNPREDICTABLE>
     398:	00008000 	andeq	r8, r0, r0
     39c:	52000100 	andpl	r0, r0, #0, 2
	...
     3a8:	00000040 	andeq	r0, r0, r0, asr #32
     3ac:	00000054 	andeq	r0, r0, r4, asr r0
     3b0:	54530001 	ldrbpl	r0, [r3], #-1
     3b4:	78000000 	stmdavc	r0, {}	; <UNPREDICTABLE>
     3b8:	01000000 	mrseq	r0, (UNDEF: 0)
     3bc:	00005300 	andeq	r5, r0, r0, lsl #6
     3c0:	00000000 	andeq	r0, r0, r0
     3c4:	00480000 	subeq	r0, r8, r0
     3c8:	00600000 	rsbeq	r0, r0, r0
     3cc:	00010000 	andeq	r0, r1, r0
     3d0:	0000605c 	andeq	r6, r0, ip, asr r0
     3d4:	00008000 	andeq	r8, r0, r0
     3d8:	f3000a00 	vpmax.u8	d0, d0, d0
     3dc:	01f35201 	mvnseq	r5, r1, lsl #4
     3e0:	01231c53 	teqeq	r3, r3, asr ip
     3e4:	0000009f 	muleq	r0, pc, r0	; <UNPREDICTABLE>
     3e8:	00000000 	andeq	r0, r0, r0
     3ec:	00008000 	andeq	r8, r0, r0
     3f0:	0000a400 	andeq	sl, r0, r0, lsl #8
     3f4:	50000100 	andpl	r0, r0, r0, lsl #2
     3f8:	000000a4 	andeq	r0, r0, r4, lsr #1
     3fc:	00000118 	andeq	r0, r0, r8, lsl r1
     400:	02700003 	rsbseq	r0, r0, #3
     404:	0001189f 	muleq	r1, pc, r8	; <UNPREDICTABLE>
     408:	00021c00 	andeq	r1, r2, r0, lsl #24
     40c:	f3000400 	vshl.u8	d0, d0, d0
     410:	009f5001 	addseq	r5, pc, r1
     414:	00000000 	andeq	r0, r0, r0
     418:	80000000 	andhi	r0, r0, r0
     41c:	f0000000 			; <UNDEFINED> instruction: 0xf0000000
     420:	01000000 	mrseq	r0, (UNDEF: 0)
     424:	00f05100 	rscseq	r5, r0, r0, lsl #2
     428:	01600000 	cmneq	r0, r0
     42c:	00010000 	andeq	r0, r1, r0
     430:	00016055 	andeq	r6, r1, r5, asr r0
     434:	00016800 	andeq	r6, r1, r0, lsl #16
     438:	51000100 	mrspl	r0, (UNDEF: 16)
     43c:	00000168 	andeq	r0, r0, r8, ror #2
     440:	00000188 	andeq	r0, r0, r8, lsl #3
     444:	88550001 	ldmdahi	r5, {r0}^
     448:	9c000001 	stcls	0, cr0, [r0], {1}
     44c:	01000001 	tsteq	r0, r1
     450:	019c5100 	orrseq	r5, ip, r0, lsl #2
     454:	01bc0000 			; <UNDEFINED> instruction: 0x01bc0000
     458:	00010000 	andeq	r0, r1, r0
     45c:	0001bc55 	andeq	fp, r1, r5, asr ip
     460:	0001bf00 	andeq	fp, r1, r0, lsl #30
     464:	51000100 	mrspl	r0, (UNDEF: 16)
     468:	000001bf 			; <UNDEFINED> instruction: 0x000001bf
     46c:	00000200 	andeq	r0, r0, r0, lsl #4
     470:	00550001 	subseq	r0, r5, r1
     474:	1c000002 	stcne	0, cr0, [r0], {2}
     478:	04000002 	streq	r0, [r0], #-2
     47c:	5101f300 	mrspl	pc, SP_irq	; <UNPREDICTABLE>
     480:	0000009f 	muleq	r0, pc, r0	; <UNPREDICTABLE>
     484:	00000000 	andeq	r0, r0, r0
     488:	00008000 	andeq	r8, r0, r0
     48c:	00009400 	andeq	r9, r0, r0, lsl #8
     490:	52000100 	andpl	r0, r0, #0, 2
     494:	00000094 	muleq	r0, r4, r0
     498:	00000200 	andeq	r0, r0, r0, lsl #4
     49c:	00540001 	subseq	r0, r4, r1
     4a0:	1c000002 	stcne	0, cr0, [r0], {2}
     4a4:	04000002 	streq	r0, [r0], #-2
     4a8:	5201f300 	andpl	pc, r1, #0, 6
     4ac:	0000009f 	muleq	r0, pc, r0	; <UNPREDICTABLE>
     4b0:	00000000 	andeq	r0, r0, r0
     4b4:	00008000 	andeq	r8, r0, r0
     4b8:	00010000 	andeq	r0, r1, r0
     4bc:	53000100 	movwpl	r0, #256	; 0x100
     4c0:	00000104 	andeq	r0, r0, r4, lsl #2
     4c4:	00000108 	andeq	r0, r0, r8, lsl #2
     4c8:	60530001 	subsvs	r0, r3, r1
     4cc:	68000001 	stmdavs	r0, {r0}
     4d0:	01000001 	tsteq	r0, r1
     4d4:	01685300 	cmneq	r8, r0, lsl #6
     4d8:	01880000 	orreq	r0, r8, r0
     4dc:	00040000 	andeq	r0, r4, r0
     4e0:	9f5301f3 	svcls	0x005301f3
     4e4:	00000188 	andeq	r0, r0, r8, lsl #3
     4e8:	00000190 	muleq	r0, r0, r1
     4ec:	90530001 	subsls	r0, r3, r1
     4f0:	94000001 	strls	r0, [r0], #-1
     4f4:	01000001 	tsteq	r0, r1
     4f8:	01945c00 	orrseq	r5, r4, r0, lsl #24
     4fc:	019c0000 	orrseq	r0, ip, r0
     500:	00010000 	andeq	r0, r1, r0
     504:	00019c53 	andeq	r9, r1, r3, asr ip
     508:	0001bc00 	andeq	fp, r1, r0, lsl #24
     50c:	f3000400 	vshl.u8	d0, d0, d0
     510:	bc9f5301 	ldclt	3, cr5, [pc], {1}
     514:	bf000001 	svclt	0x00000001
     518:	01000001 	tsteq	r0, r1
     51c:	01bf5300 			; <UNDEFINED> instruction: 0x01bf5300
     520:	01d80000 	bicseq	r0, r8, r0
     524:	00040000 	andeq	r0, r4, r0
     528:	9f5301f3 	svcls	0x005301f3
	...
     534:	00000080 	andeq	r0, r0, r0, lsl #1
     538:	0000009c 	muleq	r0, ip, r0
     53c:	00910002 	addseq	r0, r1, r2
     540:	0000009c 	muleq	r0, ip, r0
     544:	000001bf 			; <UNDEFINED> instruction: 0x000001bf
     548:	d8520001 	ldmdale	r2, {r0}^
     54c:	e3000001 	movw	r0, #1
     550:	01000001 	tsteq	r0, r1
     554:	00005200 	andeq	r5, r0, r0, lsl #4
     558:	00000000 	andeq	r0, r0, r0
     55c:	009c0000 	addseq	r0, ip, r0
     560:	01180000 	tsteq	r8, r0
     564:	00010000 	andeq	r0, r1, r0
     568:	0001185d 	andeq	r1, r1, sp, asr r8
     56c:	00011c00 	andeq	r1, r1, r0, lsl #24
     570:	53000100 	movwpl	r0, #256	; 0x100
     574:	0000011c 	andeq	r0, r0, ip, lsl r1
     578:	00000120 	andeq	r0, r0, r0, lsr #2
     57c:	20510001 	subscs	r0, r1, r1
     580:	60000001 	andvs	r0, r0, r1
     584:	01000001 	tsteq	r0, r1
     588:	01605300 	cmneq	r0, r0, lsl #6
     58c:	01680000 	cmneq	r8, r0
     590:	00010000 	andeq	r0, r1, r0
     594:	0001685d 	andeq	r6, r1, sp, asr r8
     598:	00016c00 	andeq	r6, r1, r0, lsl #24
     59c:	5e000100 	adfpls	f0, f0, f0
     5a0:	0000016c 	andeq	r0, r0, ip, ror #2
     5a4:	00000188 	andeq	r0, r0, r8, lsl #3
     5a8:	88530001 	ldmdahi	r3, {r0}^
     5ac:	90000001 	andls	r0, r0, r1
     5b0:	04000001 	streq	r0, [r0], #-1
     5b4:	7fa19100 	svcvc	0x00a19100
     5b8:	0001909f 	muleq	r1, pc, r0	; <UNPREDICTABLE>
     5bc:	00019400 	andeq	r9, r1, r0, lsl #8
     5c0:	53000100 	movwpl	r0, #256	; 0x100
     5c4:	00000194 	muleq	r0, r4, r1
     5c8:	0000019c 	muleq	r0, ip, r1
     5cc:	9c5d0001 	mrrcls	0, 0, r0, sp, cr1
     5d0:	a0000001 	andge	r0, r0, r1
     5d4:	01000001 	tsteq	r0, r1
     5d8:	01a05e00 	lsleq	r5, r0, #28
     5dc:	01bc0000 			; <UNDEFINED> instruction: 0x01bc0000
     5e0:	00010000 	andeq	r0, r1, r0
     5e4:	0001bc53 	andeq	fp, r1, r3, asr ip
     5e8:	0001d800 	andeq	sp, r1, r0, lsl #16
     5ec:	5d000100 	stfpls	f0, [r0, #-0]
     5f0:	000001d8 	ldrdeq	r0, [r0], -r8
     5f4:	000001e3 	andeq	r0, r0, r3, ror #3
     5f8:	00530001 	subseq	r0, r3, r1
     5fc:	00000000 	andeq	r0, r0, r0
     600:	a0000000 	andge	r0, r0, r0
     604:	ec000000 	stc	0, cr0, [r0], {-0}
     608:	01000000 	mrseq	r0, (UNDEF: 0)
     60c:	00ec5c00 	rsceq	r5, ip, r0, lsl #24
     610:	01000000 	mrseq	r0, (UNDEF: 0)
     614:	00010000 	andeq	r0, r1, r0
     618:	00010053 	andeq	r0, r1, r3, asr r0
     61c:	00010400 	andeq	r0, r1, r0, lsl #8
     620:	5c000100 	stfpls	f0, [r0], {-0}
     624:	00000104 	andeq	r0, r0, r4, lsl #2
     628:	00000108 	andeq	r0, r0, r8, lsl #2
     62c:	08530001 	ldmdaeq	r3, {r0}^
     630:	18000001 	stmdane	r0, {r0}
     634:	01000001 	tsteq	r0, r1
     638:	01185c00 	tsteq	r8, r0, lsl #24
     63c:	011c0000 	tsteq	ip, r0
     640:	00010000 	andeq	r0, r1, r0
     644:	00011c50 	andeq	r1, r1, r0, asr ip
     648:	00013c00 	andeq	r3, r1, r0, lsl #24
     64c:	5c000100 	stfpls	f0, [r0], {-0}
     650:	00000144 	andeq	r0, r0, r4, asr #2
     654:	00000158 	andeq	r0, r0, r8, asr r1
     658:	58500001 	ldmdapl	r0, {r0}^
     65c:	60000001 	andvs	r0, r0, r1
     660:	01000001 	tsteq	r0, r1
     664:	01605c00 	cmneq	r0, r0, lsl #24
     668:	01680000 	cmneq	r8, r0
     66c:	00010000 	andeq	r0, r1, r0
     670:	00016853 	andeq	r6, r1, r3, asr r8
     674:	00017800 	andeq	r7, r1, r0, lsl #16
     678:	5c000100 	stfpls	f0, [r0], {-0}
     67c:	00000178 	andeq	r0, r0, r8, ror r1
     680:	00000180 	andeq	r0, r0, r0, lsl #3
     684:	007c0005 	rsbseq	r0, ip, r5
     688:	809f2534 	addshi	r2, pc, r4, lsr r5	; <UNPREDICTABLE>
     68c:	88000001 	stmdahi	r0, {r0}
     690:	01000001 	tsteq	r0, r1
     694:	01885c00 	orreq	r5, r8, r0, lsl #24
     698:	01900000 	orrseq	r0, r0, r0
     69c:	00010000 	andeq	r0, r1, r0
     6a0:	00019053 	andeq	r9, r1, r3, asr r0
     6a4:	00019400 	andeq	r9, r1, r0, lsl #8
     6a8:	5c000100 	stfpls	f0, [r0], {-0}
     6ac:	00000194 	muleq	r0, r4, r1
     6b0:	0000019c 	muleq	r0, ip, r1
     6b4:	9c530001 	mrrcls	0, 0, r0, r3, cr1
     6b8:	ac000001 	stcge	0, cr0, [r0], {1}
     6bc:	01000001 	tsteq	r0, r1
     6c0:	01ac5c00 			; <UNDEFINED> instruction: 0x01ac5c00
     6c4:	01b40000 			; <UNDEFINED> instruction: 0x01b40000
     6c8:	00050000 	andeq	r0, r5, r0
     6cc:	2531007c 	ldrcs	r0, [r1, #-124]!	; 0x7c
     6d0:	0001b49f 	muleq	r1, pc, r4	; <UNPREDICTABLE>
     6d4:	0001bc00 	andeq	fp, r1, r0, lsl #24
     6d8:	5c000100 	stfpls	f0, [r0], {-0}
     6dc:	000001bc 			; <UNDEFINED> instruction: 0x000001bc
     6e0:	000001bf 			; <UNDEFINED> instruction: 0x000001bf
     6e4:	bf530001 	svclt	0x00530001
     6e8:	d8000001 	stmdale	r0, {r0}
     6ec:	04000001 	streq	r0, [r0], #-1
     6f0:	5301f300 	movwpl	pc, #4864	; 0x1300	; <UNPREDICTABLE>
     6f4:	0001d89f 	muleq	r1, pc, r8	; <UNPREDICTABLE>
     6f8:	0001e300 	andeq	lr, r1, r0, lsl #6
     6fc:	5c000100 	stfpls	f0, [r0], {-0}
	...
     708:	000000ec 	andeq	r0, r0, ip, ror #1
     70c:	000000fc 	strdeq	r0, [r0], -ip
     710:	9f300002 	svcls	0x00300002
     714:	000000fc 	strdeq	r0, [r0], -ip
     718:	00000104 	andeq	r0, r0, r4, lsl #2
     71c:	9f310002 	svcls	0x00310002
     720:	00000104 	andeq	r0, r0, r4, lsl #2
     724:	00000108 	andeq	r0, r0, r8, lsl #2
     728:	9f300002 	svcls	0x00300002
	...
     734:	0000021c 	andeq	r0, r0, ip, lsl r2
     738:	0000022b 	andeq	r0, r0, fp, lsr #4
     73c:	2b500001 	blcs	1400748 <__bss_end__+0x13f7048>
     740:	44000002 	strmi	r0, [r0], #-2
     744:	04000002 	streq	r0, [r0], #-2
     748:	5001f300 	andpl	pc, r1, r0, lsl #6
     74c:	0002449f 	muleq	r2, pc, r4	; <UNPREDICTABLE>
     750:	00027000 	andeq	r7, r2, r0
     754:	50000100 	andpl	r0, r0, r0, lsl #2
	...
     760:	0000021c 	andeq	r0, r0, ip, lsl r2
     764:	0000022b 	andeq	r0, r0, fp, lsr #4
     768:	2b510001 	blcs	1440774 <__bss_end__+0x1437074>
     76c:	44000002 	strmi	r0, [r0], #-2
     770:	04000002 	streq	r0, [r0], #-2
     774:	5101f300 	mrspl	pc, SP_irq	; <UNPREDICTABLE>
     778:	0002449f 	muleq	r2, pc, r4	; <UNPREDICTABLE>
     77c:	00027000 	andeq	r7, r2, r0
     780:	51000100 	mrspl	r0, (UNDEF: 16)
	...
     78c:	00000270 	andeq	r0, r0, r0, ror r2
     790:	0000029c 	muleq	r0, ip, r2
     794:	9c500001 	mrrcls	0, 0, r0, r0, cr1	; <UNPREDICTABLE>
     798:	e4000002 	str	r0, [r0], #-2
     79c:	01000004 	tsteq	r0, r4
     7a0:	04e45a00 	strbteq	r5, [r4], #2560	; 0xa00
     7a4:	04f80000 	ldrbteq	r0, [r8], #0
     7a8:	00040000 	andeq	r0, r4, r0
     7ac:	9f5001f3 	svcls	0x005001f3
	...
     7b8:	00000270 	andeq	r0, r0, r0, ror r2
     7bc:	00000284 	andeq	r0, r0, r4, lsl #5
     7c0:	84510001 	ldrbhi	r0, [r1], #-1
     7c4:	9c000002 	stcls	0, cr0, [r0], {2}
     7c8:	03000002 	movweq	r0, #2
     7cc:	9f017100 	svcls	0x00017100
     7d0:	0000029c 	muleq	r0, ip, r2
     7d4:	000004f8 	strdeq	r0, [r0], -r8
     7d8:	01f30004 	mvnseq	r0, r4
     7dc:	00009f51 	andeq	r9, r0, r1, asr pc
     7e0:	00000000 	andeq	r0, r0, r0
     7e4:	02700000 	rsbseq	r0, r0, #0
     7e8:	02a40000 	adceq	r0, r4, #0
     7ec:	00010000 	andeq	r0, r1, r0
     7f0:	0002a452 	andeq	sl, r2, r2, asr r4
     7f4:	0002cc00 	andeq	ip, r2, r0, lsl #24
     7f8:	52000100 	andpl	r0, r0, #0, 2
     7fc:	000002cc 	andeq	r0, r0, ip, asr #5
     800:	00000494 	muleq	r0, r4, r4
     804:	94560001 	ldrbls	r0, [r6], #-1
     808:	f8000004 			; <UNDEFINED> instruction: 0xf8000004
     80c:	01000004 	tsteq	r0, r4
     810:	00005200 	andeq	r5, r0, r0, lsl #4
     814:	00000000 	andeq	r0, r0, r0
     818:	02700000 	rsbseq	r0, r0, #0
     81c:	028c0000 	addeq	r0, ip, #0
     820:	00010000 	andeq	r0, r1, r0
     824:	00000053 	andeq	r0, r0, r3, asr r0
     828:	00000000 	andeq	r0, r0, r0
     82c:	00028000 	andeq	r8, r2, r0
     830:	00029c00 	andeq	r9, r2, r0, lsl #24
     834:	50000100 	andpl	r0, r0, r0, lsl #2
     838:	0000029c 	muleq	r0, ip, r2
     83c:	000002a0 	andeq	r0, r0, r0, lsr #5
     840:	a0540001 	subsge	r0, r4, r1
     844:	ac000002 	stcge	0, cr0, [r0], {2}
     848:	03000002 	movweq	r0, #2
     84c:	9f017400 	svcls	0x00017400
     850:	000002ac 	andeq	r0, r0, ip, lsr #5
     854:	000002b8 			; <UNDEFINED> instruction: 0x000002b8
     858:	b8540001 	ldmdalt	r4, {r0}^
     85c:	c4000002 	strgt	r0, [r0], #-2
     860:	03000002 	movweq	r0, #2
     864:	9f017400 	svcls	0x00017400
     868:	000002c4 	andeq	r0, r0, r4, asr #5
     86c:	00000498 	muleq	r0, r8, r4
     870:	98540001 	ldmdals	r4, {r0}^
     874:	a4000004 	strge	r0, [r0], #-4
     878:	03000004 	movweq	r0, #4
     87c:	9f017400 	svcls	0x00017400
     880:	000004a4 	andeq	r0, r0, r4, lsr #9
     884:	000004d0 	ldrdeq	r0, [r0], -r0	; <UNPREDICTABLE>
     888:	d0540001 	subsle	r0, r4, r1
     88c:	dc000004 	stcle	0, cr0, [r0], {4}
     890:	01000004 	tsteq	r0, r4
     894:	04dc5000 	ldrbeq	r5, [ip], #0
     898:	04e40000 	strbteq	r0, [r4], #0
     89c:	00030000 	andeq	r0, r3, r0
     8a0:	009f0174 	addseq	r0, pc, r4, ror r1	; <UNPREDICTABLE>
     8a4:	00000000 	andeq	r0, r0, r0
     8a8:	88000000 	stmdahi	r0, {}	; <UNPREDICTABLE>
     8ac:	e4000002 	str	r0, [r0], #-2
     8b0:	01000004 	tsteq	r0, r4
     8b4:	04e45800 	strbteq	r5, [r4], #2048	; 0x800
     8b8:	04f80000 	ldrbteq	r0, [r8], #0
     8bc:	000a0000 	andeq	r0, sl, r0
     8c0:	f35101f3 	vbsl	q8, <illegal reg q8.5>, <illegal reg q9.5>
     8c4:	31225001 	teqcc	r2, r1
     8c8:	00009f1c 	andeq	r9, r0, ip, lsl pc
     8cc:	00000000 	andeq	r0, r0, r0
     8d0:	03cc0000 	biceq	r0, ip, #0
     8d4:	03d00000 	bicseq	r0, r0, #0
     8d8:	00010000 	andeq	r0, r1, r0
     8dc:	0003f050 	andeq	pc, r3, r0, asr r0	; <UNPREDICTABLE>
     8e0:	0003f400 	andeq	pc, r3, r0, lsl #8
     8e4:	50000100 	andpl	r0, r0, r0, lsl #2
     8e8:	00000414 	andeq	r0, r0, r4, lsl r4
     8ec:	00000418 	andeq	r0, r0, r8, lsl r4
     8f0:	38500001 	ldmdacc	r0, {r0}^
     8f4:	3c000004 	stccc	0, cr0, [r0], {4}
     8f8:	01000004 	tsteq	r0, r4
     8fc:	04445000 	strbeq	r5, [r4], #-0
     900:	04480000 	strbeq	r0, [r8], #-0
     904:	00010000 	andeq	r0, r1, r0
     908:	00046850 	andeq	r6, r4, r0, asr r8
     90c:	00046c00 	andeq	r6, r4, r0, lsl #24
     910:	50000100 	andpl	r0, r0, r0, lsl #2
     914:	00000490 	muleq	r0, r0, r4
     918:	000004b8 			; <UNDEFINED> instruction: 0x000004b8
     91c:	00500001 	subseq	r0, r0, r1
     920:	00000000 	andeq	r0, r0, r0
     924:	cc000000 	stcgt	0, cr0, [r0], {-0}
     928:	d4000002 	strle	r0, [r0], #-2
     92c:	02000002 	andeq	r0, r0, #2
     930:	d49f3000 	ldrle	r3, [pc], #0	; 938 <_start-0x76c8>
     934:	d8000002 	stmdale	r0, {r1}
     938:	01000002 	tsteq	r0, r2
     93c:	02e45700 	rsceq	r5, r4, #0, 14
     940:	04b80000 	ldrteq	r0, [r8], #0
     944:	00010000 	andeq	r0, r1, r0
     948:	00000057 	andeq	r0, r0, r7, asr r0
     94c:	00000000 	andeq	r0, r0, r0
     950:	00001400 	andeq	r1, r0, r0, lsl #8
     954:	00001c00 	andeq	r1, r0, r0, lsl #24
     958:	73000300 	movwvc	r0, #768	; 0x300
     95c:	001c9f04 	andseq	r9, ip, r4, lsl #30
     960:	00270000 	eoreq	r0, r7, r0
     964:	00010000 	andeq	r0, r1, r0
     968:	00000053 	andeq	r0, r0, r3, asr r0
     96c:	00000000 	andeq	r0, r0, r0
     970:	00886800 	addeq	r6, r8, r0, lsl #16
     974:	00886c00 	addeq	r6, r8, r0, lsl #24
     978:	30000200 	andcc	r0, r0, r0, lsl #4
     97c:	00886c9f 	umulleq	r6, r8, pc, ip	; <UNPREDICTABLE>
     980:	00887000 	addeq	r7, r8, r0
     984:	50000100 	andpl	r0, r0, r0, lsl #2
	...
     990:	00008880 	andeq	r8, r0, r0, lsl #17
     994:	00008884 	andeq	r8, r0, r4, lsl #17
     998:	9f300002 	svcls	0x00300002
     99c:	00008884 	andeq	r8, r0, r4, lsl #17
     9a0:	00008888 	andeq	r8, r0, r8, lsl #17
     9a4:	8c530001 	mrrchi	0, 0, r0, r3, cr1
     9a8:	94000088 	strls	r0, [r0], #-136	; 0x88
     9ac:	01000088 	smlabbeq	r0, r8, r0, r0
     9b0:	00005300 	andeq	r5, r0, r0, lsl #6
	...
     9bc:	00040000 	andeq	r0, r4, r0
     9c0:	00010000 	andeq	r0, r1, r0
     9c4:	00000450 	andeq	r0, r0, r0, asr r4
     9c8:	00000c00 	andeq	r0, r0, r0, lsl #24
     9cc:	53000100 	movwpl	r0, #256	; 0x100
     9d0:	0000000c 	andeq	r0, r0, ip
     9d4:	00000010 	andeq	r0, r0, r0, lsl r0
     9d8:	10500001 	subsne	r0, r0, r1
     9dc:	1c000000 	stcne	0, cr0, [r0], {-0}
     9e0:	01000000 	mrseq	r0, (UNDEF: 0)
     9e4:	00005300 	andeq	r5, r0, r0, lsl #6
     9e8:	00000000 	andeq	r0, r0, r0
     9ec:	003c0000 	eorseq	r0, ip, r0
     9f0:	00470000 	subeq	r0, r7, r0
     9f4:	00010000 	andeq	r0, r1, r0
     9f8:	00004750 	andeq	r4, r0, r0, asr r7
     9fc:	00006000 	andeq	r6, r0, r0
     a00:	55000100 	strpl	r0, [r0, #-256]	; 0x100
	...
     a0c:	00000050 	andeq	r0, r0, r0, asr r0
     a10:	00000054 	andeq	r0, r0, r4, asr r0
     a14:	00500001 	subseq	r0, r0, r1
     a18:	00000000 	andeq	r0, r0, r0
     a1c:	60000000 	andvs	r0, r0, r0
     a20:	6c000000 	stcvs	0, cr0, [r0], {-0}
     a24:	01000000 	mrseq	r0, (UNDEF: 0)
     a28:	006c5000 	rsbeq	r5, ip, r0
     a2c:	00740000 	rsbseq	r0, r4, r0
     a30:	00040000 	andeq	r0, r4, r0
     a34:	9f5001f3 	svcls	0x005001f3
	...
     a40:	00000074 	andeq	r0, r0, r4, ror r0
     a44:	00000080 	andeq	r0, r0, r0, lsl #1
     a48:	80500001 	subshi	r0, r0, r1
     a4c:	88000000 	stmdahi	r0, {}	; <UNPREDICTABLE>
     a50:	04000000 	streq	r0, [r0], #-0
     a54:	5001f300 	andpl	pc, r1, r0, lsl #6
     a58:	0000009f 	muleq	r0, pc, r0	; <UNPREDICTABLE>
	...
     a64:	00009000 	andeq	r9, r0, r0
     a68:	50000100 	andpl	r0, r0, r0, lsl #2
     a6c:	00000090 	muleq	r0, r0, r0
     a70:	000000d4 	ldrdeq	r0, [r0], -r4
     a74:	00540001 	subseq	r0, r4, r1
     a78:	00000000 	andeq	r0, r0, r0
     a7c:	48000000 	stmdami	r0, {}	; <UNPREDICTABLE>
     a80:	4c000000 	stcmi	0, cr0, [r0], {-0}
     a84:	01000000 	mrseq	r0, (UNDEF: 0)
     a88:	00545500 	subseq	r5, r4, r0, lsl #10
     a8c:	00580000 	subseq	r0, r8, r0
     a90:	00010000 	andeq	r0, r1, r0
     a94:	00006055 	andeq	r6, r0, r5, asr r0
     a98:	00006400 	andeq	r6, r0, r0, lsl #8
     a9c:	55000100 	strpl	r0, [r0, #-256]	; 0x100
     aa0:	0000006c 	andeq	r0, r0, ip, rrx
     aa4:	00000070 	andeq	r0, r0, r0, ror r0
     aa8:	78550001 	ldmdavc	r5, {r0}^
     aac:	7c000000 	stcvc	0, cr0, [r0], {-0}
     ab0:	01000000 	mrseq	r0, (UNDEF: 0)
     ab4:	00845500 	addeq	r5, r4, r0, lsl #10
     ab8:	00880000 	addeq	r0, r8, r0
     abc:	00010000 	andeq	r0, r1, r0
     ac0:	00008c55 	andeq	r8, r0, r5, asr ip
     ac4:	0000d400 	andeq	sp, r0, r0, lsl #8
     ac8:	55000100 	strpl	r0, [r0, #-256]	; 0x100
	...
     ad4:	0000001c 	andeq	r0, r0, ip, lsl r0
     ad8:	00000044 	andeq	r0, r0, r4, asr #32
     adc:	44530001 	ldrbmi	r0, [r3], #-1
     ae0:	4c000000 	stcmi	0, cr0, [r0], {-0}
     ae4:	1c000000 	stcne	0, cr0, [r0], {-0}
     ae8:	f7007000 			; <UNDEFINED> instruction: 0xf7007000
     aec:	f425f72c 	vld1.8	{d15}, [r5 :128], ip
     af0:	cccd0825 	stclgt	8, cr0, [sp], {37}	; 0x25
     af4:	0000cccc 	andeq	ip, r0, ip, asr #25
     af8:	081e0000 	ldmdaeq	lr, {}	; <UNPREDICTABLE>
     afc:	2525f720 	strcs	pc, [r5, #-1824]!	; 0x720
     b00:	25332cf7 	ldrcs	r2, [r3, #-3319]!	; 0xcf7
     b04:	00004c9f 	muleq	r0, pc, ip	; <UNPREDICTABLE>
     b08:	00005000 	andeq	r5, r0, r0
     b0c:	53000100 	movwpl	r0, #256	; 0x100
     b10:	00000050 	andeq	r0, r0, r0, asr r0
     b14:	00000058 	andeq	r0, r0, r8, asr r0
     b18:	0070001c 	rsbseq	r0, r0, ip, lsl r0
     b1c:	25f72cf7 	ldrbcs	r2, [r7, #3319]!	; 0xcf7
     b20:	cd0825f4 	cfstr32gt	mvfx2, [r8, #-976]	; 0xfffffc30
     b24:	00cccccc 	sbceq	ip, ip, ip, asr #25
     b28:	1e000000 	cdpne	0, 0, cr0, cr0, cr0, {0}
     b2c:	25f72008 	ldrbcs	r2, [r7, #8]!
     b30:	332cf725 	msrcc	CPSR_fs, #9699328	; 0x940000
     b34:	00589f25 	subseq	r9, r8, r5, lsr #30
     b38:	005c0000 	subseq	r0, ip, r0
     b3c:	00010000 	andeq	r0, r1, r0
     b40:	00005c53 	andeq	r5, r0, r3, asr ip
     b44:	00006400 	andeq	r6, r0, r0, lsl #8
     b48:	70001c00 	andvc	r1, r0, r0, lsl #24
     b4c:	f72cf700 			; <UNDEFINED> instruction: 0xf72cf700
     b50:	0825f425 	stmdaeq	r5!, {r0, r2, r5, sl, ip, sp, lr, pc}
     b54:	cccccccd 	stclgt	12, cr12, [ip], {205}	; 0xcd
     b58:	00000000 	andeq	r0, r0, r0
     b5c:	f720081e 			; <UNDEFINED> instruction: 0xf720081e
     b60:	2cf72525 	cfldr64cs	mvdx2, [r7], #148	; 0x94
     b64:	649f2533 	ldrvs	r2, [pc], #1331	; b6c <_start-0x7494>
     b68:	68000000 	stmdavs	r0, {}	; <UNPREDICTABLE>
     b6c:	01000000 	mrseq	r0, (UNDEF: 0)
     b70:	00685300 	rsbeq	r5, r8, r0, lsl #6
     b74:	00700000 	rsbseq	r0, r0, r0
     b78:	001c0000 	andseq	r0, ip, r0
     b7c:	2cf70070 	ldclcs	0, cr0, [r7], #448	; 0x1c0
     b80:	25f425f7 	ldrbcs	r2, [r4, #1527]!	; 0x5f7
     b84:	cccccd08 	stclgt	13, cr12, [ip], {8}
     b88:	000000cc 	andeq	r0, r0, ip, asr #1
     b8c:	20081e00 	andcs	r1, r8, r0, lsl #28
     b90:	f72525f7 			; <UNDEFINED> instruction: 0xf72525f7
     b94:	9f25332c 	svcls	0x0025332c
     b98:	00000070 	andeq	r0, r0, r0, ror r0
     b9c:	00000074 	andeq	r0, r0, r4, ror r0
     ba0:	74530001 	ldrbvc	r0, [r3], #-1
     ba4:	7c000000 	stcvc	0, cr0, [r0], {-0}
     ba8:	1c000000 	stcne	0, cr0, [r0], {-0}
     bac:	f7007000 			; <UNDEFINED> instruction: 0xf7007000
     bb0:	f425f72c 	vld1.8	{d15}, [r5 :128], ip
     bb4:	cccd0825 	stclgt	8, cr0, [sp], {37}	; 0x25
     bb8:	0000cccc 	andeq	ip, r0, ip, asr #25
     bbc:	081e0000 	ldmdaeq	lr, {}	; <UNPREDICTABLE>
     bc0:	2525f720 	strcs	pc, [r5, #-1824]!	; 0x720
     bc4:	25332cf7 	ldrcs	r2, [r3, #-3319]!	; 0xcf7
     bc8:	00007c9f 	muleq	r0, pc, ip	; <UNPREDICTABLE>
     bcc:	00008000 	andeq	r8, r0, r0
     bd0:	53000100 	movwpl	r0, #256	; 0x100
     bd4:	00000080 	andeq	r0, r0, r0, lsl #1
     bd8:	00000088 	andeq	r0, r0, r8, lsl #1
     bdc:	0070001c 	rsbseq	r0, r0, ip, lsl r0
     be0:	25f72cf7 	ldrbcs	r2, [r7, #3319]!	; 0xcf7
     be4:	cd0825f4 	cfstr32gt	mvfx2, [r8, #-976]	; 0xfffffc30
     be8:	00cccccc 	sbceq	ip, ip, ip, asr #25
     bec:	1e000000 	cdpne	0, 0, cr0, cr0, cr0, {0}
     bf0:	25f72008 	ldrbcs	r2, [r7, #8]!
     bf4:	332cf725 	msrcc	CPSR_fs, #9699328	; 0x940000
     bf8:	00889f25 	addeq	r9, r8, r5, lsr #30
     bfc:	008c0000 	addeq	r0, ip, r0
     c00:	00010000 	andeq	r0, r1, r0
     c04:	00008c53 	andeq	r8, r0, r3, asr ip
     c08:	00009000 	andeq	r9, r0, r0
     c0c:	70001c00 	andvc	r1, r0, r0, lsl #24
     c10:	f72cf700 			; <UNDEFINED> instruction: 0xf72cf700
     c14:	0825f425 	stmdaeq	r5!, {r0, r2, r5, sl, ip, sp, lr, pc}
     c18:	cccccccd 	stclgt	12, cr12, [ip], {205}	; 0xcd
     c1c:	00000000 	andeq	r0, r0, r0
     c20:	f720081e 			; <UNDEFINED> instruction: 0xf720081e
     c24:	2cf72525 	cfldr64cs	mvdx2, [r7], #148	; 0x94
     c28:	909f2533 	addsls	r2, pc, r3, lsr r5	; <UNPREDICTABLE>
     c2c:	98000000 	stmdals	r0, {}	; <UNPREDICTABLE>
     c30:	1c000000 	stcne	0, cr0, [r0], {-0}
     c34:	f7007400 			; <UNDEFINED> instruction: 0xf7007400
     c38:	f425f72c 	vld1.8	{d15}, [r5 :128], ip
     c3c:	cccd0825 	stclgt	8, cr0, [sp], {37}	; 0x25
     c40:	0000cccc 	andeq	ip, r0, ip, asr #25
     c44:	081e0000 	ldmdaeq	lr, {}	; <UNPREDICTABLE>
     c48:	2525f720 	strcs	pc, [r5, #-1824]!	; 0x720
     c4c:	25332cf7 	ldrcs	r2, [r3, #-3319]!	; 0xcf7
     c50:	0000989f 	muleq	r0, pc, r8	; <UNPREDICTABLE>
     c54:	00009c00 	andeq	r9, r0, r0, lsl #24
     c58:	74001700 	strvc	r1, [r0], #-1792	; 0x700
     c5c:	f72cf700 			; <UNDEFINED> instruction: 0xf72cf700
     c60:	f7007125 			; <UNDEFINED> instruction: 0xf7007125
     c64:	1e25f72c 	cdpne	7, 2, cr15, cr5, cr12, {1}
     c68:	25f72008 	ldrbcs	r2, [r7, #8]!
     c6c:	332cf725 	msrcc	CPSR_fs, #9699328	; 0x940000
     c70:	009c9f25 	addseq	r9, ip, r5, lsr #30
     c74:	00d40000 	sbcseq	r0, r4, r0
     c78:	001c0000 	andseq	r0, ip, r0
     c7c:	2cf70074 	ldclcs	0, cr0, [r7], #464	; 0x1d0
     c80:	25f425f7 	ldrbcs	r2, [r4, #1527]!	; 0x5f7
     c84:	cccccd08 	stclgt	13, cr12, [ip], {8}
     c88:	000000cc 	andeq	r0, r0, ip, asr #1
     c8c:	20081e00 	andcs	r1, r8, r0, lsl #28
     c90:	f72525f7 			; <UNDEFINED> instruction: 0xf72525f7
     c94:	9f25332c 	svcls	0x0025332c
	...
     ca0:	00000094 	muleq	r0, r4, r0
     ca4:	000000b8 	strheq	r0, [r0], -r8
     ca8:	b8500001 	ldmdalt	r0, {r0}^
     cac:	c4000000 	strgt	r0, [r0], #-0
     cb0:	08000000 	stmdaeq	r0, {}	; <UNPREDICTABLE>
     cb4:	00713100 	rsbseq	r3, r1, r0, lsl #2
     cb8:	21007324 	tstcs	r0, r4, lsr #6
     cbc:	0000c49f 	muleq	r0, pc, r4	; <UNPREDICTABLE>
     cc0:	0000c700 	andeq	ip, r0, r0, lsl #14
     cc4:	51000100 	mrspl	r0, (UNDEF: 16)
	...
     cd0:	000000d4 	ldrdeq	r0, [r0], -r4
     cd4:	000000f8 	strdeq	r0, [r0], -r8
     cd8:	f8500001 			; <UNDEFINED> instruction: 0xf8500001
     cdc:	0c000000 	stceq	0, cr0, [r0], {-0}
     ce0:	04000001 	streq	r0, [r0], #-1
     ce4:	5001f300 	andpl	pc, r1, r0, lsl #6
     ce8:	0000009f 	muleq	r0, pc, r0	; <UNPREDICTABLE>
     cec:	00000000 	andeq	r0, r0, r0
     cf0:	0000e000 	andeq	lr, r0, r0
     cf4:	0000e800 	andeq	lr, r0, r0, lsl #16
     cf8:	30000200 	andcc	r0, r0, r0, lsl #4
     cfc:	0000e89f 	muleq	r0, pc, r8	; <UNPREDICTABLE>
     d00:	0000e800 	andeq	lr, r0, r0, lsl #16
     d04:	52000100 	andpl	r0, r0, #0, 2
     d08:	000000e8 	andeq	r0, r0, r8, ror #1
     d0c:	000000f0 	strdeq	r0, [r0], -r0	; <UNPREDICTABLE>
     d10:	9f300002 	svcls	0x00300002
     d14:	000000f0 	strdeq	r0, [r0], -r0	; <UNPREDICTABLE>
     d18:	00000103 	andeq	r0, r0, r3, lsl #2
     d1c:	00520001 	subseq	r0, r2, r1
     d20:	00000000 	andeq	r0, r0, r0
     d24:	e0000000 	and	r0, r0, r0
     d28:	f4000000 	vst4.8	{d0-d3}, [r0], r0
     d2c:	02000000 	andeq	r0, r0, #0
     d30:	f49f3000 			; <UNDEFINED> instruction: 0xf49f3000
     d34:	00000000 	andeq	r0, r0, r0
     d38:	05000001 	streq	r0, [r0, #-1]
     d3c:	00733100 	rsbseq	r3, r3, r0, lsl #2
     d40:	01009f24 	tsteq	r0, r4, lsr #30
     d44:	01030000 	mrseq	r0, (UNDEF: 3)
     d48:	00010000 	andeq	r0, r1, r0
     d4c:	00010351 	andeq	r0, r1, r1, asr r3
     d50:	00010c00 	andeq	r0, r1, r0, lsl #24
     d54:	31000800 	tstcc	r0, r0, lsl #16
     d58:	4f5001f3 	svcmi	0x005001f3
     d5c:	009f241a 	addseq	r2, pc, sl, lsl r4	; <UNPREDICTABLE>
     d60:	00000000 	andeq	r0, r0, r0
     d64:	0c000000 	stceq	0, cr0, [r0], {-0}
     d68:	30000001 	andcc	r0, r0, r1
     d6c:	01000001 	tsteq	r0, r1
     d70:	01305000 	teqeq	r0, r0
     d74:	01440000 	mrseq	r0, (UNDEF: 68)
     d78:	00040000 	andeq	r0, r4, r0
     d7c:	9f5001f3 	svcls	0x005001f3
	...
     d88:	00000118 	andeq	r0, r0, r8, lsl r1
     d8c:	00000120 	andeq	r0, r0, r0, lsr #2
     d90:	9f300002 	svcls	0x00300002
     d94:	00000120 	andeq	r0, r0, r0, lsr #2
     d98:	00000120 	andeq	r0, r0, r0, lsr #2
     d9c:	20520001 	subscs	r0, r2, r1
     da0:	28000001 	stmdacs	r0, {r0}
     da4:	02000001 	andeq	r0, r0, #1
     da8:	289f3000 	ldmcs	pc, {ip, sp}	; <UNPREDICTABLE>
     dac:	3b000001 	blcc	db8 <_start-0x7248>
     db0:	01000001 	tsteq	r0, r1
     db4:	00005200 	andeq	r5, r0, r0, lsl #4
     db8:	00000000 	andeq	r0, r0, r0
     dbc:	01180000 	tsteq	r8, r0
     dc0:	012c0000 	teqeq	ip, r0
     dc4:	00020000 	andeq	r0, r2, r0
     dc8:	012c9f30 	teqeq	ip, r0, lsr pc
     dcc:	01380000 	teqeq	r8, r0
     dd0:	00050000 	andeq	r0, r5, r0
     dd4:	24007331 	strcs	r7, [r0], #-817	; 0x331
     dd8:	0001389f 	muleq	r1, pc, r8	; <UNPREDICTABLE>
     ddc:	00013b00 	andeq	r3, r1, r0, lsl #22
     de0:	51000100 	mrspl	r0, (UNDEF: 16)
     de4:	0000013b 	andeq	r0, r0, fp, lsr r1
     de8:	00000144 	andeq	r0, r0, r4, asr #2
     dec:	f3310008 	vhadd.u<illegal width 64>	d0, d1, d8
     df0:	1a4f5001 	bne	13d4dfc <__bss_end__+0x13cb6fc>
     df4:	00009f24 	andeq	r9, r0, r4, lsr #30
     df8:	00000000 	andeq	r0, r0, r0
     dfc:	01440000 	mrseq	r0, (UNDEF: 68)
     e00:	01d40000 	bicseq	r0, r4, r0
     e04:	00010000 	andeq	r0, r1, r0
     e08:	0001d450 	andeq	sp, r1, r0, asr r4
     e0c:	00021000 	andeq	r1, r2, r0
     e10:	54000100 	strpl	r0, [r0], #-256	; 0x100
	...
     e1c:	0000018c 	andeq	r0, r0, ip, lsl #3
     e20:	00000190 	muleq	r0, r0, r1
     e24:	98550001 	ldmdals	r5, {r0}^
     e28:	9c000001 	stcls	0, cr0, [r0], {1}
     e2c:	01000001 	tsteq	r0, r1
     e30:	01a45500 			; <UNDEFINED> instruction: 0x01a45500
     e34:	01a80000 			; <UNDEFINED> instruction: 0x01a80000
     e38:	00010000 	andeq	r0, r1, r0
     e3c:	0001b055 	andeq	fp, r1, r5, asr r0
     e40:	0001b400 	andeq	fp, r1, r0, lsl #8
     e44:	55000100 	strpl	r0, [r0, #-256]	; 0x100
     e48:	000001bc 			; <UNDEFINED> instruction: 0x000001bc
     e4c:	000001c0 	andeq	r0, r0, r0, asr #3
     e50:	c8550001 	ldmdagt	r5, {r0}^
     e54:	cc000001 	stcgt	0, cr0, [r0], {1}
     e58:	01000001 	tsteq	r0, r1
     e5c:	01d05500 	bicseq	r5, r0, r0, lsl #10
     e60:	02100000 	andseq	r0, r0, #0
     e64:	00010000 	andeq	r0, r1, r0
     e68:	00000055 	andeq	r0, r0, r5, asr r0
     e6c:	00000000 	andeq	r0, r0, r0
     e70:	00016000 	andeq	r6, r1, r0
     e74:	00018800 	andeq	r8, r1, r0, lsl #16
     e78:	53000100 	movwpl	r0, #256	; 0x100
     e7c:	00000188 	andeq	r0, r0, r8, lsl #3
     e80:	00000190 	muleq	r0, r0, r1
     e84:	0070001c 	rsbseq	r0, r0, ip, lsl r0
     e88:	25f72cf7 	ldrbcs	r2, [r7, #3319]!	; 0xcf7
     e8c:	cd0825f4 	cfstr32gt	mvfx2, [r8, #-976]	; 0xfffffc30
     e90:	00cccccc 	sbceq	ip, ip, ip, asr #25
     e94:	1e000000 	cdpne	0, 0, cr0, cr0, cr0, {0}
     e98:	25f72008 	ldrbcs	r2, [r7, #8]!
     e9c:	332cf725 	msrcc	CPSR_fs, #9699328	; 0x940000
     ea0:	01909f25 	orrseq	r9, r0, r5, lsr #30
     ea4:	01940000 	orrseq	r0, r4, r0
     ea8:	00010000 	andeq	r0, r1, r0
     eac:	00019453 	andeq	r9, r1, r3, asr r4
     eb0:	00019c00 	andeq	r9, r1, r0, lsl #24
     eb4:	70001c00 	andvc	r1, r0, r0, lsl #24
     eb8:	f72cf700 			; <UNDEFINED> instruction: 0xf72cf700
     ebc:	0825f425 	stmdaeq	r5!, {r0, r2, r5, sl, ip, sp, lr, pc}
     ec0:	cccccccd 	stclgt	12, cr12, [ip], {205}	; 0xcd
     ec4:	00000000 	andeq	r0, r0, r0
     ec8:	f720081e 			; <UNDEFINED> instruction: 0xf720081e
     ecc:	2cf72525 	cfldr64cs	mvdx2, [r7], #148	; 0x94
     ed0:	9c9f2533 	cfldr32ls	mvfx2, [pc], {51}	; 0x33
     ed4:	a0000001 	andge	r0, r0, r1
     ed8:	01000001 	tsteq	r0, r1
     edc:	01a05300 	lsleq	r5, r0, #6
     ee0:	01a80000 			; <UNDEFINED> instruction: 0x01a80000
     ee4:	001c0000 	andseq	r0, ip, r0
     ee8:	2cf70070 	ldclcs	0, cr0, [r7], #448	; 0x1c0
     eec:	25f425f7 	ldrbcs	r2, [r4, #1527]!	; 0x5f7
     ef0:	cccccd08 	stclgt	13, cr12, [ip], {8}
     ef4:	000000cc 	andeq	r0, r0, ip, asr #1
     ef8:	20081e00 	andcs	r1, r8, r0, lsl #28
     efc:	f72525f7 			; <UNDEFINED> instruction: 0xf72525f7
     f00:	9f25332c 	svcls	0x0025332c
     f04:	000001a8 	andeq	r0, r0, r8, lsr #3
     f08:	000001ac 	andeq	r0, r0, ip, lsr #3
     f0c:	ac530001 	mrrcge	0, 0, r0, r3, cr1
     f10:	b4000001 	strlt	r0, [r0], #-1
     f14:	1c000001 	stcne	0, cr0, [r0], {1}
     f18:	f7007000 			; <UNDEFINED> instruction: 0xf7007000
     f1c:	f425f72c 	vld1.8	{d15}, [r5 :128], ip
     f20:	cccd0825 	stclgt	8, cr0, [sp], {37}	; 0x25
     f24:	0000cccc 	andeq	ip, r0, ip, asr #25
     f28:	081e0000 	ldmdaeq	lr, {}	; <UNPREDICTABLE>
     f2c:	2525f720 	strcs	pc, [r5, #-1824]!	; 0x720
     f30:	25332cf7 	ldrcs	r2, [r3, #-3319]!	; 0xcf7
     f34:	0001b49f 	muleq	r1, pc, r4	; <UNPREDICTABLE>
     f38:	0001b800 	andeq	fp, r1, r0, lsl #16
     f3c:	53000100 	movwpl	r0, #256	; 0x100
     f40:	000001b8 			; <UNDEFINED> instruction: 0x000001b8
     f44:	000001c0 	andeq	r0, r0, r0, asr #3
     f48:	0070001c 	rsbseq	r0, r0, ip, lsl r0
     f4c:	25f72cf7 	ldrbcs	r2, [r7, #3319]!	; 0xcf7
     f50:	cd0825f4 	cfstr32gt	mvfx2, [r8, #-976]	; 0xfffffc30
     f54:	00cccccc 	sbceq	ip, ip, ip, asr #25
     f58:	1e000000 	cdpne	0, 0, cr0, cr0, cr0, {0}
     f5c:	25f72008 	ldrbcs	r2, [r7, #8]!
     f60:	332cf725 	msrcc	CPSR_fs, #9699328	; 0x940000
     f64:	01c09f25 	biceq	r9, r0, r5, lsr #30
     f68:	01c40000 	biceq	r0, r4, r0
     f6c:	00010000 	andeq	r0, r1, r0
     f70:	0001c453 	andeq	ip, r1, r3, asr r4
     f74:	0001cc00 	andeq	ip, r1, r0, lsl #24
     f78:	70001c00 	andvc	r1, r0, r0, lsl #24
     f7c:	f72cf700 			; <UNDEFINED> instruction: 0xf72cf700
     f80:	0825f425 	stmdaeq	r5!, {r0, r2, r5, sl, ip, sp, lr, pc}
     f84:	cccccccd 	stclgt	12, cr12, [ip], {205}	; 0xcd
     f88:	00000000 	andeq	r0, r0, r0
     f8c:	f720081e 			; <UNDEFINED> instruction: 0xf720081e
     f90:	2cf72525 	cfldr64cs	mvdx2, [r7], #148	; 0x94
     f94:	cc9f2533 	cfldr32gt	mvfx2, [pc], {51}	; 0x33
     f98:	d0000001 	andle	r0, r0, r1
     f9c:	01000001 	tsteq	r0, r1
     fa0:	01d05300 	bicseq	r5, r0, r0, lsl #6
     fa4:	01d40000 	bicseq	r0, r4, r0
     fa8:	001c0000 	andseq	r0, ip, r0
     fac:	2cf70070 	ldclcs	0, cr0, [r7], #448	; 0x1c0
     fb0:	25f425f7 	ldrbcs	r2, [r4, #1527]!	; 0x5f7
     fb4:	cccccd08 	stclgt	13, cr12, [ip], {8}
     fb8:	000000cc 	andeq	r0, r0, ip, asr #1
     fbc:	20081e00 	andcs	r1, r8, r0, lsl #28
     fc0:	f72525f7 			; <UNDEFINED> instruction: 0xf72525f7
     fc4:	9f25332c 	svcls	0x0025332c
     fc8:	000001d4 	ldrdeq	r0, [r0], -r4
     fcc:	000001dc 	ldrdeq	r0, [r0], -ip
     fd0:	0074001c 	rsbseq	r0, r4, ip, lsl r0
     fd4:	25f72cf7 	ldrbcs	r2, [r7, #3319]!	; 0xcf7
     fd8:	cd0825f4 	cfstr32gt	mvfx2, [r8, #-976]	; 0xfffffc30
     fdc:	00cccccc 	sbceq	ip, ip, ip, asr #25
     fe0:	1e000000 	cdpne	0, 0, cr0, cr0, cr0, {0}
     fe4:	25f72008 	ldrbcs	r2, [r7, #8]!
     fe8:	332cf725 	msrcc	CPSR_fs, #9699328	; 0x940000
     fec:	01dc9f25 	bicseq	r9, ip, r5, lsr #30
     ff0:	01e00000 	mvneq	r0, r0
     ff4:	00170000 	andseq	r0, r7, r0
     ff8:	2cf70074 	ldclcs	0, cr0, [r7], #464	; 0x1d0
     ffc:	007125f7 	ldrshteq	r2, [r1], #-87	; 0xffffffa9
    1000:	25f72cf7 	ldrbcs	r2, [r7, #3319]!	; 0xcf7
    1004:	f720081e 			; <UNDEFINED> instruction: 0xf720081e
    1008:	2cf72525 	cfldr64cs	mvdx2, [r7], #148	; 0x94
    100c:	e09f2533 	adds	r2, pc, r3, lsr r5	; <UNPREDICTABLE>
    1010:	10000001 	andne	r0, r0, r1
    1014:	1c000002 	stcne	0, cr0, [r0], {2}
    1018:	f7007400 			; <UNDEFINED> instruction: 0xf7007400
    101c:	f425f72c 	vld1.8	{d15}, [r5 :128], ip
    1020:	cccd0825 	stclgt	8, cr0, [sp], {37}	; 0x25
    1024:	0000cccc 	andeq	ip, r0, ip, asr #25
    1028:	081e0000 	ldmdaeq	lr, {}	; <UNPREDICTABLE>
    102c:	2525f720 	strcs	pc, [r5, #-1824]!	; 0x720
    1030:	25332cf7 	ldrcs	r2, [r3, #-3319]!	; 0xcf7
    1034:	0000009f 	muleq	r0, pc, r0	; <UNPREDICTABLE>
    1038:	00000000 	andeq	r0, r0, r0
    103c:	0001d800 	andeq	sp, r1, r0, lsl #16
    1040:	0001fc00 	andeq	pc, r1, r0, lsl #24
    1044:	50000100 	andpl	r0, r0, r0, lsl #2
    1048:	000001fc 	strdeq	r0, [r0], -ip
    104c:	00000203 	andeq	r0, r0, r3, lsl #4
    1050:	00510001 	subseq	r0, r1, r1
    1054:	00000000 	andeq	r0, r0, r0
    1058:	10000000 	andne	r0, r0, r0
    105c:	2c000002 	stccs	0, cr0, [r0], {2}
    1060:	01000002 	tsteq	r0, r2
    1064:	022c5000 	eoreq	r5, ip, #0
    1068:	02340000 	eorseq	r0, r4, #0
    106c:	00010000 	andeq	r0, r1, r0
    1070:	00023454 	andeq	r3, r2, r4, asr r4
    1074:	00023c00 	andeq	r3, r2, r0, lsl #24
    1078:	50000100 	andpl	r0, r0, r0, lsl #2
    107c:	0000023c 	andeq	r0, r0, ip, lsr r2
    1080:	00000244 	andeq	r0, r0, r4, asr #4
    1084:	44540001 	ldrbmi	r0, [r4], #-1
    1088:	50000002 	andpl	r0, r0, r2
    108c:	04000002 	streq	r0, [r0], #-2
    1090:	5001f300 	andpl	pc, r1, r0, lsl #6
    1094:	0002509f 	muleq	r2, pc, r0	; <UNPREDICTABLE>
    1098:	00025400 	andeq	r5, r2, r0, lsl #8
    109c:	50000100 	andpl	r0, r0, r0, lsl #2
    10a0:	00000254 	andeq	r0, r0, r4, asr r2
    10a4:	0000025c 	andeq	r0, r0, ip, asr r2
    10a8:	00540001 	subseq	r0, r4, r1
    10ac:	00000000 	andeq	r0, r0, r0
    10b0:	20000000 	andcs	r0, r0, r0
    10b4:	30000002 	andcc	r0, r0, r2
    10b8:	02000002 	andeq	r0, r0, #2
    10bc:	309f3000 	addscc	r3, pc, r0
    10c0:	34000002 	strcc	r0, [r0], #-2
    10c4:	01000002 	tsteq	r0, r2
    10c8:	02345000 	eorseq	r5, r4, #0
    10cc:	02400000 	subeq	r0, r0, #0
    10d0:	00020000 	andeq	r0, r2, r0
    10d4:	02409f30 	subeq	r9, r0, #48, 30	; 0xc0
    10d8:	024c0000 	subeq	r0, ip, #0
    10dc:	00010000 	andeq	r0, r1, r0
    10e0:	00000050 	andeq	r0, r0, r0, asr r0
    10e4:	00000000 	andeq	r0, r0, r0
    10e8:	00025c00 	andeq	r5, r2, r0, lsl #24
    10ec:	00027300 	andeq	r7, r2, r0, lsl #6
    10f0:	50000100 	andpl	r0, r0, r0, lsl #2
    10f4:	00000273 	andeq	r0, r0, r3, ror r2
    10f8:	00000278 	andeq	r0, r0, r8, ror r2
    10fc:	01f30004 	mvnseq	r0, r4
    1100:	02789f50 	rsbseq	r9, r8, #80, 30	; 0x140
    1104:	027b0000 	rsbseq	r0, fp, #0
    1108:	00010000 	andeq	r0, r1, r0
    110c:	00027b50 	andeq	r7, r2, r0, asr fp
    1110:	00028000 	andeq	r8, r2, r0
    1114:	f3000400 	vshl.u8	d0, d0, d0
    1118:	009f5001 	addseq	r5, pc, r1
    111c:	00000000 	andeq	r0, r0, r0
    1120:	5c000000 	stcpl	0, cr0, [r0], {-0}
    1124:	73000002 	movwvc	r0, #2
    1128:	01000002 	tsteq	r0, r2
    112c:	02735100 	rsbseq	r5, r3, #0, 2
    1130:	02780000 	rsbseq	r0, r8, #0
    1134:	00040000 	andeq	r0, r4, r0
    1138:	9f5101f3 	svcls	0x005101f3
    113c:	00000278 	andeq	r0, r0, r8, ror r2
    1140:	0000027b 	andeq	r0, r0, fp, ror r2
    1144:	7b510001 	blvc	1441150 <__bss_end__+0x1437a50>
    1148:	80000002 	andhi	r0, r0, r2
    114c:	04000002 	streq	r0, [r0], #-2
    1150:	5101f300 	mrspl	pc, SP_irq	; <UNPREDICTABLE>
    1154:	0000009f 	muleq	r0, pc, r0	; <UNPREDICTABLE>
    1158:	00000000 	andeq	r0, r0, r0
    115c:	00028000 	andeq	r8, r2, r0
    1160:	00031800 	andeq	r1, r3, r0, lsl #16
    1164:	50000100 	andpl	r0, r0, r0, lsl #2
    1168:	00000318 	andeq	r0, r0, r8, lsl r3
    116c:	00000358 	andeq	r0, r0, r8, asr r3
    1170:	00540001 	subseq	r0, r4, r1
    1174:	00000000 	andeq	r0, r0, r0
    1178:	80000000 	andhi	r0, r0, r0
    117c:	1b000002 	blne	118c <_start-0x6e74>
    1180:	01000003 	tsteq	r0, r3
    1184:	031b5100 	tsteq	fp, #0, 2
    1188:	03580000 	cmpeq	r8, #0
    118c:	00040000 	andeq	r0, r4, r0
    1190:	9f5101f3 	svcls	0x005101f3
	...
    119c:	000002d0 	ldrdeq	r0, [r0], -r0	; <UNPREDICTABLE>
    11a0:	000002d4 	ldrdeq	r0, [r0], -r4
    11a4:	dc560001 	mrrcle	0, 0, r0, r6, cr1
    11a8:	e0000002 	and	r0, r0, r2
    11ac:	01000002 	tsteq	r0, r2
    11b0:	02e85600 	rsceq	r5, r8, #0, 12
    11b4:	02ec0000 	rsceq	r0, ip, #0
    11b8:	00010000 	andeq	r0, r1, r0
    11bc:	0002f456 	andeq	pc, r2, r6, asr r4	; <UNPREDICTABLE>
    11c0:	0002f800 	andeq	pc, r2, r0, lsl #16
    11c4:	56000100 	strpl	r0, [r0], -r0, lsl #2
    11c8:	00000300 	andeq	r0, r0, r0, lsl #6
    11cc:	00000304 	andeq	r0, r0, r4, lsl #6
    11d0:	0c560001 	mrrceq	0, 0, r0, r6, cr1
    11d4:	10000003 	andne	r0, r0, r3
    11d8:	01000003 	tsteq	r0, r3
    11dc:	03145600 	tsteq	r4, #0, 12
    11e0:	03580000 	cmpeq	r8, #0
    11e4:	00010000 	andeq	r0, r1, r0
    11e8:	00000056 	andeq	r0, r0, r6, asr r0
    11ec:	00000000 	andeq	r0, r0, r0
    11f0:	0002a400 	andeq	sl, r2, r0, lsl #8
    11f4:	0002cc00 	andeq	ip, r2, r0, lsl #24
    11f8:	53000100 	movwpl	r0, #256	; 0x100
    11fc:	000002cc 	andeq	r0, r0, ip, asr #5
    1200:	000002d4 	ldrdeq	r0, [r0], -r4
    1204:	0070001c 	rsbseq	r0, r0, ip, lsl r0
    1208:	25f72cf7 	ldrbcs	r2, [r7, #3319]!	; 0xcf7
    120c:	cd0825f4 	cfstr32gt	mvfx2, [r8, #-976]	; 0xfffffc30
    1210:	00cccccc 	sbceq	ip, ip, ip, asr #25
    1214:	1e000000 	cdpne	0, 0, cr0, cr0, cr0, {0}
    1218:	25f72008 	ldrbcs	r2, [r7, #8]!
    121c:	332cf725 	msrcc	CPSR_fs, #9699328	; 0x940000
    1220:	02d49f25 	sbcseq	r9, r4, #37, 30	; 0x94
    1224:	02d80000 	sbcseq	r0, r8, #0
    1228:	00010000 	andeq	r0, r1, r0
    122c:	0002d853 	andeq	sp, r2, r3, asr r8
    1230:	0002e000 	andeq	lr, r2, r0
    1234:	70001c00 	andvc	r1, r0, r0, lsl #24
    1238:	f72cf700 			; <UNDEFINED> instruction: 0xf72cf700
    123c:	0825f425 	stmdaeq	r5!, {r0, r2, r5, sl, ip, sp, lr, pc}
    1240:	cccccccd 	stclgt	12, cr12, [ip], {205}	; 0xcd
    1244:	00000000 	andeq	r0, r0, r0
    1248:	f720081e 			; <UNDEFINED> instruction: 0xf720081e
    124c:	2cf72525 	cfldr64cs	mvdx2, [r7], #148	; 0x94
    1250:	e09f2533 	adds	r2, pc, r3, lsr r5	; <UNPREDICTABLE>
    1254:	e4000002 	str	r0, [r0], #-2
    1258:	01000002 	tsteq	r0, r2
    125c:	02e45300 	rsceq	r5, r4, #0, 6
    1260:	02ec0000 	rsceq	r0, ip, #0
    1264:	001c0000 	andseq	r0, ip, r0
    1268:	2cf70070 	ldclcs	0, cr0, [r7], #448	; 0x1c0
    126c:	25f425f7 	ldrbcs	r2, [r4, #1527]!	; 0x5f7
    1270:	cccccd08 	stclgt	13, cr12, [ip], {8}
    1274:	000000cc 	andeq	r0, r0, ip, asr #1
    1278:	20081e00 	andcs	r1, r8, r0, lsl #28
    127c:	f72525f7 			; <UNDEFINED> instruction: 0xf72525f7
    1280:	9f25332c 	svcls	0x0025332c
    1284:	000002ec 	andeq	r0, r0, ip, ror #5
    1288:	000002f0 	strdeq	r0, [r0], -r0	; <UNPREDICTABLE>
    128c:	f0530001 			; <UNDEFINED> instruction: 0xf0530001
    1290:	f8000002 			; <UNDEFINED> instruction: 0xf8000002
    1294:	1c000002 	stcne	0, cr0, [r0], {2}
    1298:	f7007000 			; <UNDEFINED> instruction: 0xf7007000
    129c:	f425f72c 	vld1.8	{d15}, [r5 :128], ip
    12a0:	cccd0825 	stclgt	8, cr0, [sp], {37}	; 0x25
    12a4:	0000cccc 	andeq	ip, r0, ip, asr #25
    12a8:	081e0000 	ldmdaeq	lr, {}	; <UNPREDICTABLE>
    12ac:	2525f720 	strcs	pc, [r5, #-1824]!	; 0x720
    12b0:	25332cf7 	ldrcs	r2, [r3, #-3319]!	; 0xcf7
    12b4:	0002f89f 	muleq	r2, pc, r8	; <UNPREDICTABLE>
    12b8:	0002fc00 	andeq	pc, r2, r0, lsl #24
    12bc:	53000100 	movwpl	r0, #256	; 0x100
    12c0:	000002fc 	strdeq	r0, [r0], -ip
    12c4:	00000304 	andeq	r0, r0, r4, lsl #6
    12c8:	0070001c 	rsbseq	r0, r0, ip, lsl r0
    12cc:	25f72cf7 	ldrbcs	r2, [r7, #3319]!	; 0xcf7
    12d0:	cd0825f4 	cfstr32gt	mvfx2, [r8, #-976]	; 0xfffffc30
    12d4:	00cccccc 	sbceq	ip, ip, ip, asr #25
    12d8:	1e000000 	cdpne	0, 0, cr0, cr0, cr0, {0}
    12dc:	25f72008 	ldrbcs	r2, [r7, #8]!
    12e0:	332cf725 	msrcc	CPSR_fs, #9699328	; 0x940000
    12e4:	03049f25 	movweq	r9, #20261	; 0x4f25
    12e8:	03080000 	movweq	r0, #32768	; 0x8000
    12ec:	00010000 	andeq	r0, r1, r0
    12f0:	00030853 	andeq	r0, r3, r3, asr r8
    12f4:	00031000 	andeq	r1, r3, r0
    12f8:	70001c00 	andvc	r1, r0, r0, lsl #24
    12fc:	f72cf700 			; <UNDEFINED> instruction: 0xf72cf700
    1300:	0825f425 	stmdaeq	r5!, {r0, r2, r5, sl, ip, sp, lr, pc}
    1304:	cccccccd 	stclgt	12, cr12, [ip], {205}	; 0xcd
    1308:	00000000 	andeq	r0, r0, r0
    130c:	f720081e 			; <UNDEFINED> instruction: 0xf720081e
    1310:	2cf72525 	cfldr64cs	mvdx2, [r7], #148	; 0x94
    1314:	109f2533 	addsne	r2, pc, r3, lsr r5	; <UNPREDICTABLE>
    1318:	14000003 	strne	r0, [r0], #-3
    131c:	01000003 	tsteq	r0, r3
    1320:	03145300 	tsteq	r4, #0, 6
    1324:	03180000 	tsteq	r8, #0
    1328:	001c0000 	andseq	r0, ip, r0
    132c:	2cf70070 	ldclcs	0, cr0, [r7], #448	; 0x1c0
    1330:	25f425f7 	ldrbcs	r2, [r4, #1527]!	; 0x5f7
    1334:	cccccd08 	stclgt	13, cr12, [ip], {8}
    1338:	000000cc 	andeq	r0, r0, ip, asr #1
    133c:	20081e00 	andcs	r1, r8, r0, lsl #28
    1340:	f72525f7 			; <UNDEFINED> instruction: 0xf72525f7
    1344:	9f25332c 	svcls	0x0025332c
    1348:	00000318 	andeq	r0, r0, r8, lsl r3
    134c:	00000320 	andeq	r0, r0, r0, lsr #6
    1350:	0074001c 	rsbseq	r0, r4, ip, lsl r0
    1354:	25f72cf7 	ldrbcs	r2, [r7, #3319]!	; 0xcf7
    1358:	cd0825f4 	cfstr32gt	mvfx2, [r8, #-976]	; 0xfffffc30
    135c:	00cccccc 	sbceq	ip, ip, ip, asr #25
    1360:	1e000000 	cdpne	0, 0, cr0, cr0, cr0, {0}
    1364:	25f72008 	ldrbcs	r2, [r7, #8]!
    1368:	332cf725 	msrcc	CPSR_fs, #9699328	; 0x940000
    136c:	03209f25 	teqeq	r0, #37, 30	; 0x94
    1370:	03240000 	teqeq	r4, #0
    1374:	00170000 	andseq	r0, r7, r0
    1378:	2cf70074 	ldclcs	0, cr0, [r7], #464	; 0x1d0
    137c:	007325f7 	ldrshteq	r2, [r3], #-87	; 0xffffffa9
    1380:	25f72cf7 	ldrbcs	r2, [r7, #3319]!	; 0xcf7
    1384:	f720081e 			; <UNDEFINED> instruction: 0xf720081e
    1388:	2cf72525 	cfldr64cs	mvdx2, [r7], #148	; 0x94
    138c:	249f2533 	ldrcs	r2, [pc], #1331	; 1394 <_start-0x6c6c>
    1390:	58000003 	stmdapl	r0, {r0, r1}
    1394:	1c000003 	stcne	0, cr0, [r0], {3}
    1398:	f7007400 			; <UNDEFINED> instruction: 0xf7007400
    139c:	f425f72c 	vld1.8	{d15}, [r5 :128], ip
    13a0:	cccd0825 	stclgt	8, cr0, [sp], {37}	; 0x25
    13a4:	0000cccc 	andeq	ip, r0, ip, asr #25
    13a8:	081e0000 	ldmdaeq	lr, {}	; <UNPREDICTABLE>
    13ac:	2525f720 	strcs	pc, [r5, #-1824]!	; 0x720
    13b0:	25332cf7 	ldrcs	r2, [r3, #-3319]!	; 0xcf7
    13b4:	0000009f 	muleq	r0, pc, r0	; <UNPREDICTABLE>
    13b8:	00000000 	andeq	r0, r0, r0
    13bc:	00031c00 	andeq	r1, r3, r0, lsl #24
    13c0:	00034000 	andeq	r4, r3, r0
    13c4:	50000100 	andpl	r0, r0, r0, lsl #2
    13c8:	00000340 	andeq	r0, r0, r0, asr #6
    13cc:	00000348 	andeq	r0, r0, r8, asr #6
    13d0:	00750009 	rsbseq	r0, r5, r9
    13d4:	71240073 	teqvc	r4, r3, ror r0
    13d8:	489f2100 	ldmmi	pc, {r8, sp}	; <UNPREDICTABLE>
    13dc:	4b000003 	blmi	13f0 <_start-0x6c10>
    13e0:	01000003 	tsteq	r0, r3
    13e4:	00005100 	andeq	r5, r0, r0, lsl #2
    13e8:	00000000 	andeq	r0, r0, r0
    13ec:	03580000 	cmpeq	r8, #0
    13f0:	037c0000 	cmneq	ip, #0
    13f4:	00010000 	andeq	r0, r1, r0
    13f8:	00037c50 	andeq	r7, r3, r0, asr ip
    13fc:	00039000 	andeq	r9, r3, r0
    1400:	f3000400 	vshl.u8	d0, d0, d0
    1404:	009f5001 	addseq	r5, pc, r1
    1408:	00000000 	andeq	r0, r0, r0
    140c:	64000000 	strvs	r0, [r0], #-0
    1410:	6c000003 	stcvs	0, cr0, [r0], {3}
    1414:	02000003 	andeq	r0, r0, #3
    1418:	6c9f3000 	ldcvs	0, cr3, [pc], {0}
    141c:	6c000003 	stcvs	0, cr0, [r0], {3}
    1420:	01000003 	tsteq	r0, r3
    1424:	036c5200 	cmneq	ip, #0, 4
    1428:	03740000 	cmneq	r4, #0
    142c:	00020000 	andeq	r0, r2, r0
    1430:	03749f30 	cmneq	r4, #48, 30	; 0xc0
    1434:	03870000 	orreq	r0, r7, #0
    1438:	00010000 	andeq	r0, r1, r0
    143c:	00000052 	andeq	r0, r0, r2, asr r0
    1440:	00000000 	andeq	r0, r0, r0
    1444:	00036400 	andeq	r6, r3, r0, lsl #8
    1448:	00037800 	andeq	r7, r3, r0, lsl #16
    144c:	30000200 	andcc	r0, r0, r0, lsl #4
    1450:	0003789f 	muleq	r3, pc, r8	; <UNPREDICTABLE>
    1454:	00038400 	andeq	r8, r3, r0, lsl #8
    1458:	31000500 	tstcc	r0, r0, lsl #10
    145c:	9f240073 	svcls	0x00240073
    1460:	00000384 	andeq	r0, r0, r4, lsl #7
    1464:	00000387 	andeq	r0, r0, r7, lsl #7
    1468:	87510001 	ldrbhi	r0, [r1, -r1]
    146c:	90000003 	andls	r0, r0, r3
    1470:	08000003 	stmdaeq	r0, {r0, r1}
    1474:	01f33100 	mvnseq	r3, r0, lsl #2
    1478:	241a4f50 	ldrcs	r4, [sl], #-3920	; 0xf50
    147c:	0000009f 	muleq	r0, pc, r0	; <UNPREDICTABLE>
    1480:	00000000 	andeq	r0, r0, r0
    1484:	00039000 	andeq	r9, r3, r0
    1488:	00039c00 	andeq	r9, r3, r0, lsl #24
    148c:	50000100 	andpl	r0, r0, r0, lsl #2
    1490:	0000039c 	muleq	r0, ip, r3
    1494:	000003bc 			; <UNDEFINED> instruction: 0x000003bc
    1498:	01f30004 	mvnseq	r0, r4
    149c:	00009f50 	andeq	r9, r0, r0, asr pc
    14a0:	00000000 	andeq	r0, r0, r0
    14a4:	03bc0000 			; <UNDEFINED> instruction: 0x03bc0000
    14a8:	03cf0000 	biceq	r0, pc, #0
    14ac:	00010000 	andeq	r0, r1, r0
    14b0:	0003cf50 	andeq	ip, r3, r0, asr pc
    14b4:	00040800 	andeq	r0, r4, r0, lsl #16
    14b8:	54000100 	strpl	r0, [r0], #-256	; 0x100
    14bc:	00000408 	andeq	r0, r0, r8, lsl #8
    14c0:	00000440 	andeq	r0, r0, r0, asr #8
    14c4:	01f30004 	mvnseq	r0, r4
    14c8:	00009f50 	andeq	r9, r0, r0, asr pc
    14cc:	00000000 	andeq	r0, r0, r0
    14d0:	04280000 	strteq	r0, [r8], #-0
    14d4:	042c0000 	strteq	r0, [ip], #-0
    14d8:	00010000 	andeq	r0, r1, r0
    14dc:	00042c50 	andeq	r2, r4, r0, asr ip
    14e0:	00043300 	andeq	r3, r4, r0, lsl #6
    14e4:	51000100 	mrspl	r0, (UNDEF: 16)
	...
    14f0:	000003e4 	andeq	r0, r0, r4, ror #7
    14f4:	000003ec 	andeq	r0, r0, ip, ror #7
    14f8:	ec500001 	mrrc	0, 0, r0, r0, cr1	; <UNPREDICTABLE>
    14fc:	f3000003 	vhadd.u8	d0, d0, d3
    1500:	01000003 	tsteq	r0, r3
    1504:	00005100 	andeq	r5, r0, r0, lsl #2
    1508:	00000000 	andeq	r0, r0, r0
    150c:	04040000 	streq	r0, [r4], #-0
    1510:	04100000 	ldreq	r0, [r0], #-0
    1514:	00010000 	andeq	r0, r1, r0
    1518:	00041050 	andeq	r1, r4, r0, asr r0
    151c:	00041700 	andeq	r1, r4, r0, lsl #14
    1520:	51000100 	mrspl	r0, (UNDEF: 16)
	...
    152c:	00000440 	andeq	r0, r0, r0, asr #8
    1530:	00000453 	andeq	r0, r0, r3, asr r4
    1534:	53500001 	cmppl	r0, #1
    1538:	8c000004 	stchi	0, cr0, [r0], {4}
    153c:	01000004 	tsteq	r0, r4
    1540:	048c5400 	streq	r5, [ip], #1024	; 0x400
    1544:	04c40000 	strbeq	r0, [r4], #0
    1548:	00040000 	andeq	r0, r4, r0
    154c:	9f5001f3 	svcls	0x005001f3
	...
    1558:	000004ac 	andeq	r0, r0, ip, lsr #9
    155c:	000004b0 			; <UNDEFINED> instruction: 0x000004b0
    1560:	b0500001 	subslt	r0, r0, r1
    1564:	b7000004 	strlt	r0, [r0, -r4]
    1568:	01000004 	tsteq	r0, r4
    156c:	00005100 	andeq	r5, r0, r0, lsl #2
    1570:	00000000 	andeq	r0, r0, r0
    1574:	04680000 	strbteq	r0, [r8], #-0
    1578:	04700000 	ldrbteq	r0, [r0], #-0
    157c:	00010000 	andeq	r0, r1, r0
    1580:	00047050 	andeq	r7, r4, r0, asr r0
    1584:	00047700 	andeq	r7, r4, r0, lsl #14
    1588:	51000100 	mrspl	r0, (UNDEF: 16)
	...
    1594:	00000488 	andeq	r0, r0, r8, lsl #9
    1598:	00000494 	muleq	r0, r4, r4
    159c:	94500001 	ldrbls	r0, [r0], #-1
    15a0:	9b000004 	blls	15b8 <_start-0x6a48>
    15a4:	01000004 	tsteq	r0, r4
    15a8:	00005100 	andeq	r5, r0, r0, lsl #2
    15ac:	00000000 	andeq	r0, r0, r0
    15b0:	04c40000 	strbeq	r0, [r4], #0
    15b4:	04d70000 	ldrbeq	r0, [r7], #0
    15b8:	00010000 	andeq	r0, r1, r0
    15bc:	0004d750 	andeq	sp, r4, r0, asr r7
    15c0:	00051800 	andeq	r1, r5, r0, lsl #16
    15c4:	54000100 	strpl	r0, [r0], #-256	; 0x100
    15c8:	00000518 	andeq	r0, r0, r8, lsl r5
    15cc:	0000053c 	andeq	r0, r0, ip, lsr r5
    15d0:	01f30004 	mvnseq	r0, r4
    15d4:	053c9f50 	ldreq	r9, [ip, #-3920]!	; 0xf50
    15d8:	05400000 	strbeq	r0, [r0, #-0]
    15dc:	00010000 	andeq	r0, r1, r0
    15e0:	00054050 	andeq	r4, r5, r0, asr r0
    15e4:	00054800 	andeq	r4, r5, r0, lsl #16
    15e8:	54000100 	strpl	r0, [r0], #-256	; 0x100
	...
    15f4:	000004ec 	andeq	r0, r0, ip, ror #9
    15f8:	000004fb 	strdeq	r0, [r0], -fp
    15fc:	74310008 	ldrtvc	r0, [r1], #-8
    1600:	00702400 	rsbseq	r2, r0, r0, lsl #8
    1604:	00009f1a 	andeq	r9, r0, sl, lsl pc
    1608:	00000000 	andeq	r0, r0, r0
    160c:	05180000 	ldreq	r0, [r8, #-0]
    1610:	05300000 	ldreq	r0, [r0, #-0]!
    1614:	00010000 	andeq	r0, r1, r0
    1618:	00000054 	andeq	r0, r0, r4, asr r0
    161c:	00000000 	andeq	r0, r0, r0
    1620:	00054800 	andeq	r4, r5, r0, lsl #16
    1624:	00055b00 	andeq	r5, r5, r0, lsl #22
    1628:	50000100 	andpl	r0, r0, r0, lsl #2
    162c:	0000055b 	andeq	r0, r0, fp, asr r5
    1630:	00000580 	andeq	r0, r0, r0, lsl #11
    1634:	80540001 	subshi	r0, r4, r1
    1638:	a0000005 	andge	r0, r0, r5
    163c:	04000005 	streq	r0, [r0], #-5
    1640:	5001f300 	andpl	pc, r1, r0, lsl #6
    1644:	0000009f 	muleq	r0, pc, r0	; <UNPREDICTABLE>
    1648:	00000000 	andeq	r0, r0, r0
    164c:	0000fc00 	andeq	pc, r0, r0, lsl #24
    1650:	00010400 	andeq	r0, r1, r0, lsl #8
    1654:	50000100 	andpl	r0, r0, r0, lsl #2
    1658:	00000104 	andeq	r0, r0, r4, lsl #2
    165c:	00000128 	andeq	r0, r0, r8, lsr #2
    1660:	00540001 	subseq	r0, r4, r1
	...
    166c:	0b000000 	bleq	1674 <_start-0x698c>
    1670:	01000000 	mrseq	r0, (UNDEF: 0)
    1674:	000b5000 	andeq	r5, fp, r0
    1678:	00140000 	andseq	r0, r4, r0
    167c:	00010000 	andeq	r0, r1, r0
    1680:	00000054 	andeq	r0, r0, r4, asr r0
    1684:	00000000 	andeq	r0, r0, r0
	...

Disassembly of section .debug_aranges:

00000000 <.debug_aranges>:
   0:	0000001c 	andeq	r0, r0, ip, lsl r0
   4:	00000002 	andeq	r0, r0, r2
   8:	00040000 	andeq	r0, r4, r0
   c:	00000000 	andeq	r0, r0, r0
  10:	00008010 	andeq	r8, r0, r0, lsl r0
  14:	00000090 	muleq	r0, r0, r0
	...
  20:	0000001c 	andeq	r0, r0, ip, lsl r0
  24:	022c0002 	eoreq	r0, ip, #2
  28:	00040000 	andeq	r0, r4, r0
  2c:	00000000 	andeq	r0, r0, r0
  30:	000080a0 	andeq	r8, r0, r0, lsr #1
  34:	000001e8 	andeq	r0, r0, r8, ror #3
	...
  40:	0000001c 	andeq	r0, r0, ip, lsl r0
  44:	07410002 	strbeq	r0, [r1, -r2]
  48:	00040000 	andeq	r0, r4, r0
  4c:	00000000 	andeq	r0, r0, r0
  50:	00008288 	andeq	r8, r0, r8, lsl #5
  54:	00000058 	andeq	r0, r0, r8, asr r0
	...
  60:	0000001c 	andeq	r0, r0, ip, lsl r0
  64:	08d60002 	ldmeq	r6, {r1}^
  68:	00040000 	andeq	r0, r4, r0
  6c:	00000000 	andeq	r0, r0, r0
  70:	000082e0 	andeq	r8, r0, r0, ror #5
  74:	00000034 	andeq	r0, r0, r4, lsr r0
	...
  80:	0000001c 	andeq	r0, r0, ip, lsl r0
  84:	09c80002 	stmibeq	r8, {r1}^
  88:	00040000 	andeq	r0, r4, r0
  8c:	00000000 	andeq	r0, r0, r0
  90:	00008314 	andeq	r8, r0, r4, lsl r3
  94:	000004f8 	strdeq	r0, [r0], -r8
	...
  a0:	0000001c 	andeq	r0, r0, ip, lsl r0
  a4:	104d0002 	subne	r0, sp, r2
  a8:	00040000 	andeq	r0, r4, r0
  ac:	00000000 	andeq	r0, r0, r0
  b0:	0000880c 	andeq	r8, r0, ip, lsl #16
  b4:	00000028 	andeq	r0, r0, r8, lsr #32
	...
  c0:	0000001c 	andeq	r0, r0, ip, lsl r0
  c4:	11500002 	cmpne	r0, r2
  c8:	00040000 	andeq	r0, r4, r0
  cc:	00000000 	andeq	r0, r0, r0
  d0:	00008834 	andeq	r8, r0, r4, lsr r8
  d4:	00000034 	andeq	r0, r0, r4, lsr r0
	...
  e0:	0000001c 	andeq	r0, r0, ip, lsl r0
  e4:	12530002 	subsne	r0, r3, #2
  e8:	00040000 	andeq	r0, r4, r0
  ec:	00000000 	andeq	r0, r0, r0
  f0:	00008868 	andeq	r8, r0, r8, ror #16
  f4:	00000074 	andeq	r0, r0, r4, ror r0
	...
 100:	0000001c 	andeq	r0, r0, ip, lsl r0
 104:	14040002 	strne	r0, [r4], #-2
 108:	00040000 	andeq	r0, r4, r0
 10c:	00000000 	andeq	r0, r0, r0
 110:	000088dc 	ldrdeq	r8, [r0], -ip
 114:	00000088 	andeq	r0, r0, r8, lsl #1
	...
 120:	0000001c 	andeq	r0, r0, ip, lsl r0
 124:	15e00002 	strbne	r0, [r0, #2]!
 128:	00040000 	andeq	r0, r4, r0
 12c:	00000000 	andeq	r0, r0, r0
 130:	00008964 	andeq	r8, r0, r4, ror #18
 134:	000005a0 	andeq	r0, r0, r0, lsr #11
	...
 140:	0000001c 	andeq	r0, r0, ip, lsl r0
 144:	1e660002 	cdpne	0, 6, cr0, cr6, cr2, {0}
 148:	00040000 	andeq	r0, r4, r0
 14c:	00000000 	andeq	r0, r0, r0
 150:	00008f04 	andeq	r8, r0, r4, lsl #30
 154:	00000154 	andeq	r0, r0, r4, asr r1
	...
 160:	0000001c 	andeq	r0, r0, ip, lsl r0
 164:	22690002 	rsbcs	r0, r9, #2
 168:	00040000 	andeq	r0, r4, r0
 16c:	00000000 	andeq	r0, r0, r0
 170:	000090bc 	strheq	r9, [r0], -ip
 174:	0000003c 	andeq	r0, r0, ip, lsr r0
	...

Disassembly of section .debug_line:

00000000 <.debug_line>:
   0:	000000a9 	andeq	r0, r0, r9, lsr #1
   4:	00780002 	rsbseq	r0, r8, r2
   8:	01020000 	mrseq	r0, (UNDEF: 2)
   c:	000d0efb 	strdeq	r0, [sp], -fp
  10:	01010101 	tsteq	r1, r1, lsl #2
  14:	01000000 	mrseq	r0, (UNDEF: 0)
  18:	2f010000 	svccs	0x00010000
  1c:	72657355 	rsbvc	r7, r5, #1409286145	; 0x54000001
  20:	72622f73 	rsbvc	r2, r2, #460	; 0x1cc
  24:	6a6e6169 	bvs	1b985d0 <__bss_end__+0x1b8eed0>
  28:	442f6e75 	strtmi	r6, [pc], #-3701	; 30 <_start-0x7fd0>
  2c:	746b7365 	strbtvc	r7, [fp], #-869	; 0x365
  30:	732f706f 	teqvc	pc, #111	; 0x6f
  34:	6f6f6863 	svcvs	0x006f6863
  38:	69572f6c 	ldmdbvs	r7, {r2, r3, r5, r6, r8, r9, sl, fp, sp}^
  3c:	7265746e 	rsbvc	r7, r5, #1845493760	; 0x6e000000
  40:	30323931 	eorscc	r3, r2, r1, lsr r9
  44:	3153432f 	cmpcc	r3, pc, lsr #6
  48:	2f453034 	svccs	0x00453034
  4c:	34317363 	ldrtcc	r7, [r1], #-867	; 0x363
  50:	322d6530 	eorcc	r6, sp, #48, 10	; 0xc000000
  54:	6e697730 	mcrvs	7, 3, r7, cr9, cr0, {1}
  58:	62696c2f 	rsbvs	r6, r9, #12032	; 0x2f00
  5c:	00006970 	andeq	r6, r0, r0, ror r9
  60:	616e6f73 	smcvs	59123	; 0xe6f3
  64:	00632e72 	rsbeq	r2, r3, r2, ror lr
  68:	68000000 	stmdavs	r0, {}	; <UNPREDICTABLE>
  6c:	72732d63 	rsbsvc	r2, r3, #6336	; 0x18c0
  70:	682e3430 	stmdavs	lr!, {r4, r5, sl, ip, sp}
  74:	00000000 	andeq	r0, r0, r0
  78:	2e697072 	mcrcs	0, 3, r7, cr9, cr2, {3}
  7c:	00010068 	andeq	r0, r1, r8, rrx
  80:	05000000 	streq	r0, [r0, #-0]
  84:	00801002 	addeq	r1, r0, r2
  88:	304e1600 	subcc	r1, lr, r0, lsl #12
  8c:	304c834b 	subcc	r8, ip, fp, asr #6
  90:	7a033030 	bvc	cc158 <__bss_end__+0xc2a58>
  94:	0402002e 	streq	r0, [r2], #-46	; 0x2e
  98:	4ca03001 	stcmi	0, cr3, [r0], #4
  9c:	004a7a03 	subeq	r7, sl, r3, lsl #20
  a0:	06010402 	streq	r0, [r1], -r2, lsl #8
  a4:	4b52062e 	blmi	1481964 <__bss_end__+0x1478264>
  a8:	01000c02 	tsteq	r0, r2, lsl #24
  ac:	00012301 	andeq	r2, r1, r1, lsl #6
  b0:	d3000200 	movwle	r0, #512	; 0x200
  b4:	02000000 	andeq	r0, r0, #0
  b8:	0d0efb01 	vstreq	d15, [lr, #-4]
  bc:	01010100 	mrseq	r0, (UNDEF: 17)
  c0:	00000001 	andeq	r0, r0, r1
  c4:	01000001 	tsteq	r0, r1
  c8:	6573552f 	ldrbvs	r5, [r3, #-1327]!	; 0x52f
  cc:	622f7372 	eorvs	r7, pc, #-939524095	; 0xc8000001
  d0:	6e616972 	mcrvs	9, 3, r6, cr1, cr2, {3}
  d4:	2f6e756a 	svccs	0x006e756a
  d8:	6b736544 	blvs	1cd95f0 <__bss_end__+0x1ccfef0>
  dc:	2f706f74 	svccs	0x00706f74
  e0:	6f686373 	svcvs	0x00686373
  e4:	572f6c6f 	strpl	r6, [pc, -pc, ror #24]!
  e8:	65746e69 	ldrbvs	r6, [r4, #-3689]!	; 0xe69
  ec:	32393172 	eorscc	r3, r9, #-2147483620	; 0x8000001c
  f0:	53432f30 	movtpl	r2, #16176	; 0x3f30
  f4:	45303431 	ldrmi	r3, [r0, #-1073]!	; 0x431
  f8:	3173632f 	cmncc	r3, pc, lsr #6
  fc:	2d653034 	stclcs	0, cr3, [r5, #-208]!	; 0xffffff30
 100:	69773032 	ldmdbvs	r7!, {r1, r4, r5, ip, sp}^
 104:	696c2f6e 	stmdbvs	ip!, {r1, r2, r3, r5, r6, r8, r9, sl, fp, sp}^
 108:	00697062 	rsbeq	r7, r9, r2, rrx
 10c:	6573552f 	ldrbvs	r5, [r3, #-1327]!	; 0x52f
 110:	622f7372 	eorvs	r7, pc, #-939524095	; 0xc8000001
 114:	6e616972 	mcrvs	9, 3, r6, cr1, cr2, {3}
 118:	2f6e756a 	svccs	0x006e756a
 11c:	6b736544 	blvs	1cd9634 <__bss_end__+0x1ccff34>
 120:	2f706f74 	svccs	0x00706f74
 124:	6f686373 	svcvs	0x00686373
 128:	572f6c6f 	strpl	r6, [pc, -pc, ror #24]!
 12c:	65746e69 	ldrbvs	r6, [r4, #-3689]!	; 0xe69
 130:	32393172 	eorscc	r3, r9, #-2147483620	; 0x8000001c
 134:	53432f30 	movtpl	r2, #16176	; 0x3f30
 138:	45303431 	ldrmi	r3, [r0, #-1073]!	; 0x431
 13c:	3173632f 	cmncc	r3, pc, lsr #6
 140:	2d653034 	stclcs	0, cr3, [r5, #-208]!	; 0xffffff30
 144:	69773032 	ldmdbvs	r7!, {r1, r4, r5, ip, sp}^
 148:	696c2f6e 	stmdbvs	ip!, {r1, r2, r3, r5, r6, r8, r9, sl, fp, sp}^
 14c:	2f697062 	svccs	0x00697062
 150:	34317363 	ldrtcc	r7, [r1], #-867	; 0x363
 154:	732d6530 	teqvc	sp, #48, 10	; 0xc000000
 158:	00006372 	andeq	r6, r0, r2, ror r3
 15c:	732d6368 	teqvc	sp, #104, 6	; 0xa0000001
 160:	2e343072 	mrccs	0, 1, r3, cr4, cr2, {3}
 164:	00000063 	andeq	r0, r0, r3, rrx
 168:	2d636800 	stclcs	8, cr6, [r3, #-0]
 16c:	34307273 	ldrtcc	r7, [r0], #-627	; 0x273
 170:	0000682e 	andeq	r6, r0, lr, lsr #16
 174:	70720000 	rsbsvc	r0, r2, r0
 178:	00682e69 	rsbeq	r2, r8, r9, ror #28
 17c:	67000001 	strvs	r0, [r0, -r1]
 180:	2e6f6970 	mcrcs	9, 3, r6, cr15, cr0, {3}
 184:	00020068 	andeq	r0, r2, r8, rrx
 188:	05000000 	streq	r0, [r0, #-0]
 18c:	0080a002 	addeq	sl, r0, r2
 190:	2f4b1900 	svccs	0x004b1900
 194:	4c2f4c83 	stcmi	12, cr4, [pc], #-524	; ffffff90 <__bss_end__+0xffff6890>
 198:	4b832f4c 	blmi	fe0cbed0 <__bss_end__+0xfe0c27d0>
 19c:	4b674b83 	blmi	19d2fb0 <__bss_end__+0x19c98b0>
 1a0:	832f4b68 	teqhi	pc, #104, 22	; 0x1a000
 1a4:	4c4c2f4c 	mcrrmi	15, 4, r2, ip, cr12
 1a8:	834b832f 	movthi	r8, #45871	; 0xb32f
 1ac:	6e4b674b 	cdpvs	7, 4, cr6, cr11, cr11, {2}
 1b0:	2c314b83 	ldccs	11, cr4, [r1], #-524	; 0xfffffdf4
 1b4:	02004b2f 	andeq	r4, r0, #48128	; 0xbc00
 1b8:	88480104 	stmdahi	r8, {r2, r8}^
 1bc:	12033247 	andne	r3, r3, #1879048196	; 0x70000004
 1c0:	4b4b672e 	blmi	12d9e80 <__bss_end__+0x12d0780>
 1c4:	14034c4b 	strne	r4, [r3], #-3147	; 0xc4b
 1c8:	4b4b4b4a 	blmi	12d2ef8 <__bss_end__+0x12c97f8>
 1cc:	0284834b 	addeq	r8, r4, #738197505	; 0x2c000001
 1d0:	01010004 	tsteq	r1, r4
 1d4:	00000102 	andeq	r0, r0, r2, lsl #2
 1d8:	00eb0002 	rsceq	r0, fp, r2
 1dc:	01020000 	mrseq	r0, (UNDEF: 2)
 1e0:	000d0efb 	strdeq	r0, [sp], -fp
 1e4:	01010101 	tsteq	r1, r1, lsl #2
 1e8:	01000000 	mrseq	r0, (UNDEF: 0)
 1ec:	6c010000 	stcvs	0, cr0, [r1], {-0}
 1f0:	00636269 	rsbeq	r6, r3, r9, ror #4
 1f4:	7273752f 	rsbsvc	r7, r3, #197132288	; 0xbc00000
 1f8:	636f6c2f 	cmnvs	pc, #12032	; 0x2f00
 1fc:	432f6c61 	teqmi	pc, #24832	; 0x6100
 200:	616c6c65 	cmnvs	ip, r5, ror #24
 204:	72612f72 	rsbvc	r2, r1, #456	; 0x1c8
 208:	6f6e2d6d 	svcvs	0x006e2d6d
 20c:	652d656e 	strvs	r6, [sp, #-1390]!	; 0x56e
 210:	2f696261 	svccs	0x00696261
 214:	2e382e34 	mrccs	14, 1, r2, cr8, cr4, {1}
 218:	73632d33 	cmnvc	r3, #3264	; 0xcc0
 21c:	65303731 	ldrvs	r3, [r0, #-1841]!	; 0x731
 220:	62696c2f 	rsbvs	r6, r9, #12032	; 0x2f00
 224:	6363672f 	cmnvs	r3, #12320768	; 0xbc0000
 228:	6d72612f 	ldfvse	f6, [r2, #-188]!	; 0xffffff44
 22c:	6e6f6e2d 	cdpvs	14, 6, cr6, cr15, cr13, {1}
 230:	61652d65 	cmnvs	r5, r5, ror #26
 234:	342f6962 	strtcc	r6, [pc], #-2402	; 23c <_start-0x7dc4>
 238:	332e382e 	teqcc	lr, #3014656	; 0x2e0000
 23c:	636e692f 	cmnvs	lr, #770048	; 0xbc000
 240:	6564756c 	strbvs	r7, [r4, #-1388]!	; 0x56c
 244:	73552f00 	cmpvc	r5, #0, 30
 248:	2f737265 	svccs	0x00737265
 24c:	61697262 	cmnvs	r9, r2, ror #4
 250:	6e756a6e 	vsubvs.f32	s13, s10, s29
 254:	7365442f 	cmnvc	r5, #788529152	; 0x2f000000
 258:	706f746b 	rsbvc	r7, pc, fp, ror #8
 25c:	6863732f 	stmdavs	r3!, {r0, r1, r2, r3, r5, r8, r9, ip, sp, lr}^
 260:	2f6c6f6f 	svccs	0x006c6f6f
 264:	746e6957 	strbtvc	r6, [lr], #-2391	; 0x957
 268:	39317265 	ldmdbcc	r1!, {r0, r2, r5, r6, r9, ip, sp, lr}
 26c:	432f3032 	teqmi	pc, #50	; 0x32
 270:	30343153 	eorscc	r3, r4, r3, asr r1
 274:	73632f45 	cmnvc	r3, #276	; 0x114
 278:	65303431 	ldrvs	r3, [r0, #-1073]!	; 0x431
 27c:	7730322d 	ldrvc	r3, [r0, -sp, lsr #4]!
 280:	6c2f6e69 	stcvs	14, cr6, [pc], #-420	; e4 <_start-0x7f1c>
 284:	69706269 	ldmdbvs	r0!, {r0, r3, r5, r6, r9, sp, lr}^
 288:	72700000 	rsbsvc	r0, r0, #0
 28c:	6b746e69 	blvs	1d1bc38 <__bss_end__+0x1d12538>
 290:	0100632e 	tsteq	r0, lr, lsr #6
 294:	74730000 	ldrbtvc	r0, [r3], #-0
 298:	67726164 	ldrbvs	r6, [r2, -r4, ror #2]!
 29c:	0200682e 	andeq	r6, r0, #3014656	; 0x2e0000
 2a0:	623c0000 	eorsvs	r0, ip, #0
 2a4:	746c6975 	strbtvc	r6, [ip], #-2421	; 0x975
 2a8:	3e6e692d 	cdpcc	9, 6, cr6, cr14, cr13, {1}
 2ac:	00000000 	andeq	r0, r0, r0
 2b0:	2e697072 	mcrcs	0, 3, r7, cr9, cr2, {3}
 2b4:	00030068 	andeq	r0, r3, r8, rrx
 2b8:	2d617600 	stclcs	6, cr7, [r1, #-0]
 2bc:	6e697270 	mcrvs	2, 3, r7, cr9, cr0, {3}
 2c0:	682e6b74 	stmdavs	lr!, {r2, r4, r5, r6, r8, r9, fp, sp, lr}
 2c4:	00000100 	andeq	r0, r0, r0, lsl #2
 2c8:	02050000 	andeq	r0, r5, #0
 2cc:	00008288 	andeq	r8, r0, r8, lsl #5
 2d0:	bf4b6b17 	svclt	0x004b6b17
 2d4:	000e0289 	andeq	r0, lr, r9, lsl #5
 2d8:	00960101 	addseq	r0, r6, r1, lsl #2
 2dc:	00020000 	andeq	r0, r2, r0
 2e0:	0000006f 	andeq	r0, r0, pc, rrx
 2e4:	0efb0102 	cdpeq	1, 15, cr0, cr11, cr2, {0}
 2e8:	0101000d 	tsteq	r1, sp
 2ec:	00000101 	andeq	r0, r0, r1, lsl #2
 2f0:	00000100 	andeq	r0, r0, r0, lsl #2
 2f4:	62696c01 	rsbvs	r6, r9, #256	; 0x100
 2f8:	552f0063 	strpl	r0, [pc, #-99]!	; 29d <_start-0x7d63>
 2fc:	73726573 	cmnvc	r2, #482344960	; 0x1cc00000
 300:	6972622f 	ldmdbvs	r2!, {r0, r1, r2, r3, r5, r9, sp, lr}^
 304:	756a6e61 	strbvc	r6, [sl, #-3681]!	; 0xe61
 308:	65442f6e 	strbvs	r2, [r4, #-3950]	; 0xf6e
 30c:	6f746b73 	svcvs	0x00746b73
 310:	63732f70 	cmnvs	r3, #112, 30	; 0x1c0
 314:	6c6f6f68 	stclvs	15, cr6, [pc], #-416	; 17c <_start-0x7e84>
 318:	6e69572f 	cdpvs	7, 6, cr5, cr9, cr15, {1}
 31c:	31726574 	cmncc	r2, r4, ror r5
 320:	2f303239 	svccs	0x00303239
 324:	34315343 	ldrtcc	r5, [r1], #-835	; 0x343
 328:	632f4530 	teqvs	pc, #48, 10	; 0xc000000
 32c:	30343173 	eorscc	r3, r4, r3, ror r1
 330:	30322d65 	eorscc	r2, r2, r5, ror #26
 334:	2f6e6977 	svccs	0x006e6977
 338:	7062696c 	rsbvc	r6, r2, ip, ror #18
 33c:	70000069 	andvc	r0, r0, r9, rrx
 340:	2e6b7475 	mcrcs	4, 3, r7, cr11, cr5, {3}
 344:	00010063 	andeq	r0, r1, r3, rrx
 348:	69707200 	ldmdbvs	r0!, {r9, ip, sp, lr}^
 34c:	0200682e 	andeq	r6, r0, #3014656	; 0x2e0000
 350:	00000000 	andeq	r0, r0, r0
 354:	82e00205 	rschi	r0, r0, #1342177280	; 0x50000000
 358:	4c150000 	ldcmi	0, cr0, [r5], {-0}
 35c:	0402002d 	streq	r0, [r2], #-45	; 0x2d
 360:	02002f02 	andeq	r2, r0, #2, 30
 364:	00490204 	subeq	r0, r9, r4, lsl #4
 368:	06010402 	streq	r0, [r1], -r2, lsl #8
 36c:	026b062e 	rsbeq	r0, fp, #48234496	; 0x2e00000
 370:	01010006 	tsteq	r1, r6
 374:	000001de 	ldrdeq	r0, [r0], -lr
 378:	00df0002 	sbcseq	r0, pc, r2
 37c:	01020000 	mrseq	r0, (UNDEF: 2)
 380:	000d0efb 	strdeq	r0, [sp], -fp
 384:	01010101 	tsteq	r1, r1, lsl #2
 388:	01000000 	mrseq	r0, (UNDEF: 0)
 38c:	6c010000 	stcvs	0, cr0, [r1], {-0}
 390:	00636269 	rsbeq	r6, r3, r9, ror #4
 394:	7273752f 	rsbsvc	r7, r3, #197132288	; 0xbc00000
 398:	636f6c2f 	cmnvs	pc, #12032	; 0x2f00
 39c:	432f6c61 	teqmi	pc, #24832	; 0x6100
 3a0:	616c6c65 	cmnvs	ip, r5, ror #24
 3a4:	72612f72 	rsbvc	r2, r1, #456	; 0x1c8
 3a8:	6f6e2d6d 	svcvs	0x006e2d6d
 3ac:	652d656e 	strvs	r6, [sp, #-1390]!	; 0x56e
 3b0:	2f696261 	svccs	0x00696261
 3b4:	2e382e34 	mrccs	14, 1, r2, cr8, cr4, {1}
 3b8:	73632d33 	cmnvc	r3, #3264	; 0xcc0
 3bc:	65303731 	ldrvs	r3, [r0, #-1841]!	; 0x731
 3c0:	62696c2f 	rsbvs	r6, r9, #12032	; 0x2f00
 3c4:	6363672f 	cmnvs	r3, #12320768	; 0xbc0000
 3c8:	6d72612f 	ldfvse	f6, [r2, #-188]!	; 0xffffff44
 3cc:	6e6f6e2d 	cdpvs	14, 6, cr6, cr15, cr13, {1}
 3d0:	61652d65 	cmnvs	r5, r5, ror #26
 3d4:	342f6962 	strtcc	r6, [pc], #-2402	; 3dc <_start-0x7c24>
 3d8:	332e382e 	teqcc	lr, #3014656	; 0x2e0000
 3dc:	636e692f 	cmnvs	lr, #770048	; 0xbc000
 3e0:	6564756c 	strbvs	r7, [r4, #-1388]!	; 0x56c
 3e4:	73552f00 	cmpvc	r5, #0, 30
 3e8:	2f737265 	svccs	0x00737265
 3ec:	61697262 	cmnvs	r9, r2, ror #4
 3f0:	6e756a6e 	vsubvs.f32	s13, s10, s29
 3f4:	7365442f 	cmnvc	r5, #788529152	; 0x2f000000
 3f8:	706f746b 	rsbvc	r7, pc, fp, ror #8
 3fc:	6863732f 	stmdavs	r3!, {r0, r1, r2, r3, r5, r8, r9, ip, sp, lr}^
 400:	2f6c6f6f 	svccs	0x006c6f6f
 404:	746e6957 	strbtvc	r6, [lr], #-2391	; 0x957
 408:	39317265 	ldmdbcc	r1!, {r0, r2, r5, r6, r9, ip, sp, lr}
 40c:	432f3032 	teqmi	pc, #50	; 0x32
 410:	30343153 	eorscc	r3, r4, r3, asr r1
 414:	73632f45 	cmnvc	r3, #276	; 0x114
 418:	65303431 	ldrvs	r3, [r0, #-1073]!	; 0x431
 41c:	7730322d 	ldrvc	r3, [r0, -sp, lsr #4]!
 420:	6c2f6e69 	stcvs	14, cr6, [pc], #-420	; 284 <_start-0x7d7c>
 424:	69706269 	ldmdbvs	r0!, {r0, r3, r5, r6, r9, sp, lr}^
 428:	61760000 	cmnvs	r6, r0
 42c:	6972702d 	ldmdbvs	r2!, {r0, r2, r3, r5, ip, sp, lr}^
 430:	2e6b746e 	cdpcs	4, 6, cr7, cr11, cr14, {3}
 434:	00010063 	andeq	r0, r1, r3, rrx
 438:	64747300 	ldrbtvs	r7, [r4], #-768	; 0x300
 43c:	2e677261 	cdpcs	2, 6, cr7, cr7, cr1, {3}
 440:	00020068 	andeq	r0, r2, r8, rrx
 444:	69707200 	ldmdbvs	r0!, {r9, ip, sp, lr}^
 448:	0300682e 	movweq	r6, #2094	; 0x82e
 44c:	623c0000 	eorsvs	r0, ip, #0
 450:	746c6975 	strbtvc	r6, [ip], #-2421	; 0x975
 454:	3e6e692d 	cdpcc	9, 6, cr6, cr14, cr13, {1}
 458:	00000000 	andeq	r0, r0, r0
 45c:	02050000 	andeq	r0, r5, #0
 460:	00008314 	andeq	r8, r0, r4, lsl r3
 464:	01012603 	tsteq	r1, r3, lsl #12
 468:	2d3113a5 	ldccs	3, cr1, [r1, #-660]!	; 0xfffffd6c
 46c:	02040200 	andeq	r0, r4, #0, 4
 470:	0402002f 	streq	r0, [r2], #-47	; 0x2f
 474:	02002d02 	andeq	r2, r0, #2, 26	; 0x80
 478:	002f0204 	eoreq	r0, pc, r4, lsl #4
 47c:	2d010402 	cfstrscs	mvf0, [r1, #-8]
 480:	14304c4c 	ldrtne	r4, [r0], #-3148	; 0xc4c
 484:	004f2f4b 	subeq	r2, pc, fp, asr #30
 488:	67020402 	strvs	r0, [r2, -r2, lsl #8]
 48c:	01040200 	mrseq	r0, R12_usr
 490:	304d4c65 	subcc	r4, sp, r5, ror #24
 494:	30312fa0 	eorscc	r2, r1, r0, lsr #31
 498:	84162602 	ldrhi	r2, [r6], #-1538	; 0x602
 49c:	02002c2d 	andeq	r2, r0, #11520	; 0x2d00
 4a0:	00300104 	eorseq	r0, r0, r4, lsl #2
 4a4:	33010402 	movwcc	r0, #5122	; 0x1402
 4a8:	02006606 	andeq	r6, r0, #6291456	; 0x600000
 4ac:	002e0104 	eoreq	r0, lr, r4, lsl #2
 4b0:	06010402 	streq	r0, [r1], -r2, lsl #8
 4b4:	2f672108 	svccs	0x00672108
 4b8:	03827303 	orreq	r7, r2, #201326592	; 0xc000000
 4bc:	02002e13 	andeq	r2, r0, #304	; 0x130
 4c0:	2e060104 	adfcss	f0, f6, f4
 4c4:	01040200 	mrseq	r0, R12_usr
 4c8:	4b6a9f06 	blmi	1aa80e8 <__bss_end__+0x1a9e9e8>
 4cc:	032e6703 	teqeq	lr, #786432	; 0xc0000
 4d0:	02002e21 	andeq	r2, r0, #528	; 0x210
 4d4:	2e060104 	adfcss	f0, f6, f4
 4d8:	01040200 	mrseq	r0, R12_usr
 4dc:	02009f06 	andeq	r9, r0, #6, 30
 4e0:	d96a0104 	stmdble	sl!, {r2, r8}^
 4e4:	7fa603f3 	svcvc	0x00a603f3
 4e8:	002f2008 	eoreq	r2, pc, r8
 4ec:	06010402 	streq	r0, [r1], -r2, lsl #8
 4f0:	4bd7064a 	blmi	ff5c1e20 <__bss_end__+0xff5b8720>
 4f4:	00da032f 	sbcseq	r0, sl, pc, lsr #6
 4f8:	484c83f2 	stmdami	ip, {r1, r4, r5, r6, r7, r8, r9, pc}^
 4fc:	032e0e03 	teqeq	lr, #3, 28	; 0x30
 500:	2f2f2e75 	svccs	0x002f2e75
 504:	2d2f4b84 	vstmdbcs	pc!, {d4-d5}
 508:	2f30314d 	svccs	0x0030314d
 50c:	04020083 	streq	r0, [r2], #-131	; 0x83
 510:	00a22c01 	adceq	r2, r2, r1, lsl #24
 514:	06010402 	streq	r0, [r1], -r2, lsl #8
 518:	02d8064a 	sbcseq	r0, r8, #77594624	; 0x4a00000
 51c:	0e031636 	mcreq	6, 0, r1, cr3, cr6, {1}
 520:	302108d6 	ldrdcc	r0, [r1], -r6	; <UNPREDICTABLE>
 524:	30f331f3 	ldrshtcc	r3, [r3], #19
 528:	304b30f3 	strdcc	r3, [fp], #-3
 52c:	230830f3 	movwcs	r3, #33011	; 0x80f3
 530:	02002f31 	andeq	r2, r0, #49, 30	; 0xc4
 534:	00650104 	rsbeq	r0, r5, r4, lsl #2
 538:	06020402 	streq	r0, [r2], -r2, lsl #8
 53c:	0402004a 	streq	r0, [r2], #-74	; 0x4a
 540:	42030601 	andmi	r0, r3, #1048576	; 0x100000
 544:	04020066 	streq	r0, [r2], #-102	; 0x66
 548:	06660602 	strbteq	r0, [r6], -r2, lsl #12
 54c:	4a00c203 	bmi	30d60 <__bss_end__+0x27660>
 550:	00100268 	andseq	r0, r0, r8, ror #4
 554:	00930101 	addseq	r0, r3, r1, lsl #2
 558:	00020000 	andeq	r0, r2, r0
 55c:	0000007d 	andeq	r0, r0, sp, ror r0
 560:	0efb0102 	cdpeq	1, 15, cr0, cr11, cr2, {0}
 564:	0101000d 	tsteq	r1, sp
 568:	00000101 	andeq	r0, r0, r1, lsl #2
 56c:	00000100 	andeq	r0, r0, r0, lsl #2
 570:	31736301 	cmncc	r3, r1, lsl #6
 574:	2d653034 	stclcs	0, cr3, [r5, #-208]!	; 0xffffff30
 578:	00637273 	rsbeq	r7, r3, r3, ror r2
 57c:	6573552f 	ldrbvs	r5, [r3, #-1327]!	; 0x52f
 580:	622f7372 	eorvs	r7, pc, #-939524095	; 0xc8000001
 584:	6e616972 	mcrvs	9, 3, r6, cr1, cr2, {3}
 588:	2f6e756a 	svccs	0x006e756a
 58c:	6b736544 	blvs	1cd9aa4 <__bss_end__+0x1cd03a4>
 590:	2f706f74 	svccs	0x00706f74
 594:	6f686373 	svcvs	0x00686373
 598:	572f6c6f 	strpl	r6, [pc, -pc, ror #24]!
 59c:	65746e69 	ldrbvs	r6, [r4, #-3689]!	; 0xe69
 5a0:	32393172 	eorscc	r3, r9, #-2147483620	; 0x8000001c
 5a4:	53432f30 	movtpl	r2, #16176	; 0x3f30
 5a8:	45303431 	ldrmi	r3, [r0, #-1073]!	; 0x431
 5ac:	3173632f 	cmncc	r3, pc, lsr #6
 5b0:	2d653034 	stclcs	0, cr3, [r5, #-208]!	; 0xffffff30
 5b4:	69773032 	ldmdbvs	r7!, {r1, r4, r5, ip, sp}^
 5b8:	696c2f6e 	stmdbvs	ip!, {r1, r2, r3, r5, r6, r8, r9, sl, fp, sp}^
 5bc:	00697062 	rsbeq	r7, r9, r2, rrx
 5c0:	656c6300 	strbvs	r6, [ip, #-768]!	; 0x300
 5c4:	722d6e61 	eorvc	r6, sp, #1552	; 0x610
 5c8:	6f6f6265 	svcvs	0x006f6265
 5cc:	00632e74 	rsbeq	r2, r3, r4, ror lr
 5d0:	72000001 	andvc	r0, r0, #1
 5d4:	682e6970 	stmdavs	lr!, {r4, r5, r6, r8, fp, sp, lr}
 5d8:	00000200 	andeq	r0, r0, r0, lsl #4
 5dc:	02050000 	andeq	r0, r5, #0
 5e0:	0000880c 	andeq	r8, r0, ip, lsl #16
 5e4:	4b832f15 	blmi	fe0cc240 <__bss_end__+0xfe0c2b40>
 5e8:	01000602 	tsteq	r0, r2, lsl #12
 5ec:	00009a01 	andeq	r9, r0, r1, lsl #20
 5f0:	77000200 	strvc	r0, [r0, -r0, lsl #4]
 5f4:	02000000 	andeq	r0, r0, #0
 5f8:	0d0efb01 	vstreq	d15, [lr, #-4]
 5fc:	01010100 	mrseq	r0, (UNDEF: 17)
 600:	00000001 	andeq	r0, r0, r1
 604:	01000001 	tsteq	r0, r1
 608:	34317363 	ldrtcc	r7, [r1], #-867	; 0x363
 60c:	732d6530 	teqvc	sp, #48, 10	; 0xc000000
 610:	2f006372 	svccs	0x00006372
 614:	72657355 	rsbvc	r7, r5, #1409286145	; 0x54000001
 618:	72622f73 	rsbvc	r2, r2, #460	; 0x1cc
 61c:	6a6e6169 	bvs	1b98bc8 <__bss_end__+0x1b8f4c8>
 620:	442f6e75 	strtmi	r6, [pc], #-3701	; 628 <_start-0x79d8>
 624:	746b7365 	strbtvc	r7, [fp], #-869	; 0x365
 628:	732f706f 	teqvc	pc, #111	; 0x6f
 62c:	6f6f6863 	svcvs	0x006f6863
 630:	69572f6c 	ldmdbvs	r7, {r2, r3, r5, r6, r8, r9, sl, fp, sp}^
 634:	7265746e 	rsbvc	r7, r5, #1845493760	; 0x6e000000
 638:	30323931 	eorscc	r3, r2, r1, lsr r9
 63c:	3153432f 	cmpcc	r3, pc, lsr #6
 640:	2f453034 	svccs	0x00453034
 644:	34317363 	ldrtcc	r7, [r1], #-867	; 0x363
 648:	322d6530 	eorcc	r6, sp, #48, 10	; 0xc000000
 64c:	6e697730 	mcrvs	7, 3, r7, cr9, cr0, {1}
 650:	62696c2f 	rsbvs	r6, r9, #12032	; 0x2f00
 654:	00006970 	andeq	r6, r0, r0, ror r9
 658:	61747363 	cmnvs	r4, r3, ror #6
 65c:	632e7472 	teqvs	lr, #1912602624	; 0x72000000
 660:	00000100 	andeq	r0, r0, r0, lsl #2
 664:	2e697072 	mcrcs	0, 3, r7, cr9, cr2, {3}
 668:	00020068 	andeq	r0, r2, r8, rrx
 66c:	05000000 	streq	r0, [r0, #-0]
 670:	00883402 	addeq	r3, r8, r2, lsl #8
 674:	010c0300 	mrseq	r0, LR_mon
 678:	2d2f3132 	stfcss	f3, [pc, #-200]!	; 5b8 <_start-0x7a48>
 67c:	0402002f 	streq	r0, [r2], #-47	; 0x2f
 680:	0f034901 	svceq	0x00034901
 684:	06022f4a 	streq	r2, [r2], -sl, asr #30
 688:	99010100 	stmdbls	r1, {r8}
 68c:	02000000 	andeq	r0, r0, #0
 690:	00007700 	andeq	r7, r0, r0, lsl #14
 694:	fb010200 	blx	40e9e <__bss_end__+0x3779e>
 698:	01000d0e 	tsteq	r0, lr, lsl #26
 69c:	00010101 	andeq	r0, r1, r1, lsl #2
 6a0:	00010000 	andeq	r0, r1, r0
 6a4:	73630100 	cmnvc	r3, #0, 2
 6a8:	65303431 	ldrvs	r3, [r0, #-1073]!	; 0x431
 6ac:	6372732d 	cmnvs	r2, #-1275068416	; 0xb4000000
 6b0:	73552f00 	cmpvc	r5, #0, 30
 6b4:	2f737265 	svccs	0x00737265
 6b8:	61697262 	cmnvs	r9, r2, ror #4
 6bc:	6e756a6e 	vsubvs.f32	s13, s10, s29
 6c0:	7365442f 	cmnvc	r5, #788529152	; 0x2f000000
 6c4:	706f746b 	rsbvc	r7, pc, fp, ror #8
 6c8:	6863732f 	stmdavs	r3!, {r0, r1, r2, r3, r5, r8, r9, ip, sp, lr}^
 6cc:	2f6c6f6f 	svccs	0x006c6f6f
 6d0:	746e6957 	strbtvc	r6, [lr], #-2391	; 0x957
 6d4:	39317265 	ldmdbcc	r1!, {r0, r2, r5, r6, r9, ip, sp, lr}
 6d8:	432f3032 	teqmi	pc, #50	; 0x32
 6dc:	30343153 	eorscc	r3, r4, r3, asr r1
 6e0:	73632f45 	cmnvc	r3, #276	; 0x114
 6e4:	65303431 	ldrvs	r3, [r0, #-1073]!	; 0x431
 6e8:	7730322d 	ldrvc	r3, [r0, -sp, lsr #4]!
 6ec:	6c2f6e69 	stcvs	14, cr6, [pc], #-420	; 550 <_start-0x7ab0>
 6f0:	69706269 	ldmdbvs	r0!, {r0, r3, r5, r6, r9, sp, lr}^
 6f4:	65720000 	ldrbvs	r0, [r2, #-0]!
 6f8:	746f6f62 	strbtvc	r6, [pc], #-3938	; 700 <_start-0x7900>
 6fc:	0100632e 	tsteq	r0, lr, lsr #6
 700:	70720000 	rsbsvc	r0, r2, r0
 704:	00682e69 	rsbeq	r2, r8, r9, ror #28
 708:	00000002 	andeq	r0, r0, r2
 70c:	68020500 	stmdavs	r2, {r8, sl}
 710:	03000088 	movweq	r0, #136	; 0x88
 714:	3114010d 	tstcc	r4, sp, lsl #2
 718:	2f15852f 	svccs	0x0015852f
 71c:	672f4d4b 	strvs	r4, [pc, -fp, asr #26]!
 720:	02675235 	rsbeq	r5, r7, #1342177283	; 0x50000003
 724:	01010010 	tsteq	r1, r0, lsl r0
 728:	000000a3 	andeq	r0, r0, r3, lsr #1
 72c:	00760002 	rsbseq	r0, r6, r2
 730:	01020000 	mrseq	r0, (UNDEF: 2)
 734:	000d0efb 	strdeq	r0, [sp], -fp
 738:	01010101 	tsteq	r1, r1, lsl #2
 73c:	01000000 	mrseq	r0, (UNDEF: 0)
 740:	63010000 	movwvs	r0, #4096	; 0x1000
 744:	30343173 	eorscc	r3, r4, r3, ror r1
 748:	72732d65 	rsbsvc	r2, r3, #6464	; 0x1940
 74c:	552f0063 	strpl	r0, [pc, #-99]!	; 6f1 <_start-0x790f>
 750:	73726573 	cmnvc	r2, #482344960	; 0x1cc00000
 754:	6972622f 	ldmdbvs	r2!, {r0, r1, r2, r3, r5, r9, sp, lr}^
 758:	756a6e61 	strbvc	r6, [sl, #-3681]!	; 0xe61
 75c:	65442f6e 	strbvs	r2, [r4, #-3950]	; 0xf6e
 760:	6f746b73 	svcvs	0x00746b73
 764:	63732f70 	cmnvs	r3, #112, 30	; 0x1c0
 768:	6c6f6f68 	stclvs	15, cr6, [pc], #-416	; 5d0 <_start-0x7a30>
 76c:	6e69572f 	cdpvs	7, 6, cr5, cr9, cr15, {1}
 770:	31726574 	cmncc	r2, r4, ror r5
 774:	2f303239 	svccs	0x00303239
 778:	34315343 	ldrtcc	r5, [r1], #-835	; 0x343
 77c:	632f4530 	teqvs	pc, #48, 10	; 0xc000000
 780:	30343173 	eorscc	r3, r4, r3, ror r1
 784:	30322d65 	eorscc	r2, r2, r5, ror #26
 788:	2f6e6977 	svccs	0x006e6977
 78c:	7062696c 	rsbvc	r6, r2, ip, ror #18
 790:	74000069 	strvc	r0, [r0], #-105	; 0x69
 794:	72656d69 	rsbvc	r6, r5, #6720	; 0x1a40
 798:	0100632e 	tsteq	r0, lr, lsr #6
 79c:	70720000 	rsbsvc	r0, r2, r0
 7a0:	00682e69 	rsbeq	r2, r8, r9, ror #28
 7a4:	00000002 	andeq	r0, r0, r2
 7a8:	dc020500 	cfstr32le	mvfx0, [r2], {-0}
 7ac:	16000088 	strne	r0, [r0], -r8, lsl #1
 7b0:	002d2f14 	eoreq	r2, sp, r4, lsl pc
 7b4:	06010402 	streq	r0, [r1], -r2, lsl #8
 7b8:	316d062e 	cmncc	sp, lr, lsr #12
 7bc:	324d4b2f 	subcc	r4, sp, #48128	; 0xbc00
 7c0:	4c4b3031 	mcrrmi	0, 3, r3, fp, cr1
 7c4:	2f2f6a2f 	svccs	0x002f6a2f
 7c8:	08022f84 	stmdaeq	r2, {r2, r7, r8, r9, sl, fp, sp}
 7cc:	7f010100 	svcvc	0x00010100
 7d0:	02000001 	andeq	r0, r0, #1
 7d4:	0000ca00 	andeq	ip, r0, r0, lsl #20
 7d8:	fb010200 	blx	40fe2 <__bss_end__+0x378e2>
 7dc:	01000d0e 	tsteq	r0, lr, lsl #26
 7e0:	00010101 	andeq	r0, r1, r1, lsl #2
 7e4:	00010000 	andeq	r0, r1, r0
 7e8:	796d0100 	stmdbvc	sp!, {r8}^
 7ec:	6372732d 	cmnvs	r2, #-1275068416	; 0xb4000000
 7f0:	73552f00 	cmpvc	r5, #0, 30
 7f4:	2f737265 	svccs	0x00737265
 7f8:	61697262 	cmnvs	r9, r2, ror #4
 7fc:	6e756a6e 	vsubvs.f32	s13, s10, s29
 800:	7365442f 	cmnvc	r5, #788529152	; 0x2f000000
 804:	706f746b 	rsbvc	r7, pc, fp, ror #8
 808:	6863732f 	stmdavs	r3!, {r0, r1, r2, r3, r5, r8, r9, ip, sp, lr}^
 80c:	2f6c6f6f 	svccs	0x006c6f6f
 810:	746e6957 	strbtvc	r6, [lr], #-2391	; 0x957
 814:	39317265 	ldmdbcc	r1!, {r0, r2, r5, r6, r9, ip, sp, lr}
 818:	432f3032 	teqmi	pc, #50	; 0x32
 81c:	30343153 	eorscc	r3, r4, r3, asr r1
 820:	73632f45 	cmnvc	r3, #276	; 0x114
 824:	65303431 	ldrvs	r3, [r0, #-1073]!	; 0x431
 828:	7730322d 	ldrvc	r3, [r0, -sp, lsr #4]!
 82c:	6c2f6e69 	stcvs	14, cr6, [pc], #-420	; 690 <_start-0x7970>
 830:	69706269 	ldmdbvs	r0!, {r0, r3, r5, r6, r9, sp, lr}^
 834:	3173632f 	cmncc	r3, pc, lsr #6
 838:	2d653034 	stclcs	0, cr3, [r5, #-208]!	; 0xffffff30
 83c:	00637273 	rsbeq	r7, r3, r3, ror r2
 840:	6573552f 	ldrbvs	r5, [r3, #-1327]!	; 0x52f
 844:	622f7372 	eorvs	r7, pc, #-939524095	; 0xc8000001
 848:	6e616972 	mcrvs	9, 3, r6, cr1, cr2, {3}
 84c:	2f6e756a 	svccs	0x006e756a
 850:	6b736544 	blvs	1cd9d68 <__bss_end__+0x1cd0668>
 854:	2f706f74 	svccs	0x00706f74
 858:	6f686373 	svcvs	0x00686373
 85c:	572f6c6f 	strpl	r6, [pc, -pc, ror #24]!
 860:	65746e69 	ldrbvs	r6, [r4, #-3689]!	; 0xe69
 864:	32393172 	eorscc	r3, r9, #-2147483620	; 0x8000001c
 868:	53432f30 	movtpl	r2, #16176	; 0x3f30
 86c:	45303431 	ldrmi	r3, [r0, #-1073]!	; 0x431
 870:	3173632f 	cmncc	r3, pc, lsr #6
 874:	2d653034 	stclcs	0, cr3, [r5, #-208]!	; 0xffffff30
 878:	69773032 	ldmdbvs	r7!, {r1, r4, r5, ip, sp}^
 87c:	696c2f6e 	stmdbvs	ip!, {r1, r2, r3, r5, r6, r8, r9, sl, fp, sp}^
 880:	00697062 	rsbeq	r7, r9, r2, rrx
 884:	69706700 	ldmdbvs	r0!, {r8, r9, sl, sp, lr}^
 888:	00632e6f 	rsbeq	r2, r3, pc, ror #28
 88c:	67000001 	strvs	r0, [r0, -r1]
 890:	2e6f6970 	mcrcs	9, 3, r6, cr15, cr0, {3}
 894:	00020068 	andeq	r0, r2, r8, rrx
 898:	69707200 	ldmdbvs	r0!, {r9, ip, sp, lr}^
 89c:	0300682e 	movweq	r6, #2094	; 0x82e
 8a0:	00000000 	andeq	r0, r0, r0
 8a4:	89640205 	stmdbhi	r4!, {r0, r2, r9}^
 8a8:	3e030000 	cdpcc	0, 0, cr0, cr3, cr0, {0}
 8ac:	69504e01 	ldmdbvs	r0, {r0, r9, sl, fp, lr}^
 8b0:	67672108 	strbvs	r2, [r7, -r8, lsl #2]!
 8b4:	67676767 	strbvs	r6, [r7, -r7, ror #14]!
 8b8:	22084b32 	andcs	r4, r8, #51200	; 0xc800
 8bc:	135131dc 	cmpne	r1, #220, 2	; 0x37
 8c0:	be30504e 	cdplt	0, 3, cr5, cr0, cr14, {2}
 8c4:	4d135031 	ldcmi	0, cr5, [r3, #-196]	; 0xffffff3c
 8c8:	4cc0304f 	stclmi	0, cr3, [r0], {79}	; 0x4f
 8cc:	21086950 	tstcs	r8, r0, asr r9
 8d0:	67676767 	strbvs	r6, [r7, -r7, ror #14]!
 8d4:	4b326767 	blmi	c9a678 <__bss_end__+0xc90f78>
 8d8:	4ca32108 	stfmis	f2, [r3], #32
 8dc:	69842f50 	stmibvs	r4, {r4, r6, r8, r9, sl, fp, sp}
 8e0:	03827503 	orreq	r7, r2, #12582912	; 0xc00000
 8e4:	304d2e0c 	subcc	r2, sp, ip, lsl #28
 8e8:	4d4c4b4e 	vstrmi	d20, [ip, #-312]	; 0xfffffec8
 8ec:	08696b6a 	stmdaeq	r9!, {r1, r3, r5, r6, r8, r9, fp, sp, lr}^
 8f0:	67676721 	strbvs	r6, [r7, -r1, lsr #14]!
 8f4:	32676767 	rsbcc	r6, r7, #27000832	; 0x19c0000
 8f8:	c022084b 	eorgt	r0, r2, fp, asr #16
 8fc:	4e135130 	mrcmi	1, 0, r5, cr3, cr0, {1}
 900:	18033050 	stmdane	r3, {r4, r6, ip, sp}
 904:	4c9f31ba 	ldfmis	f3, [pc], {186}	; 0xba
 908:	4e4d522f 	cdpmi	2, 4, cr5, cr13, cr15, {1}
 90c:	4b674b2f 	blmi	19d35d0 <__bss_end__+0x19c9ed0>
 910:	4c676768 	stclmi	7, cr6, [r7], #-416	; 0xfffffe60
 914:	4b2f672f 	blmi	bda5d8 <__bss_end__+0xbd0ed8>
 918:	2f4e4c6e 	svccs	0x004e4c6e
 91c:	684b674b 	stmdavs	fp, {r0, r1, r3, r6, r8, r9, sl, sp, lr}^
 920:	2f4c6767 	svccs	0x004c6767
 924:	6d4b2f67 	stclvs	15, cr2, [fp, #-412]	; 0xfffffe64
 928:	4b2f4e4b 	blmi	bd425c <__bss_end__+0xbcab5c>
 92c:	04020067 	streq	r0, [r2], #-103	; 0x67
 930:	06660601 	strbteq	r0, [r6], -r1, lsl #12
 934:	002f9f68 	eoreq	r9, pc, r8, ror #30
 938:	06010402 	streq	r0, [r1], -r2, lsl #8
 93c:	2f68064a 	svccs	0x0068064a
 940:	034a7303 	movteq	r7, #41731	; 0xa303
 944:	4c4d2e0e 	mcrrmi	14, 0, r2, sp, cr14
 948:	bc4b2f4e 	mcrrlt	15, 4, r2, fp, cr14
 94c:	000602bc 			; <UNDEFINED> instruction: 0x000602bc
 950:	01010101 	tsteq	r1, r1, lsl #2
 954:	00020000 	andeq	r0, r2, r0
 958:	000000ca 	andeq	r0, r0, sl, asr #1
 95c:	0efb0102 	cdpeq	1, 15, cr0, cr11, cr2, {0}
 960:	0101000d 	tsteq	r1, sp
 964:	00000101 	andeq	r0, r0, r1, lsl #2
 968:	00000100 	andeq	r0, r0, r0, lsl #2
 96c:	2d796d01 	ldclcs	13, cr6, [r9, #-4]!
 970:	00637273 	rsbeq	r7, r3, r3, ror r2
 974:	6573552f 	ldrbvs	r5, [r3, #-1327]!	; 0x52f
 978:	622f7372 	eorvs	r7, pc, #-939524095	; 0xc8000001
 97c:	6e616972 	mcrvs	9, 3, r6, cr1, cr2, {3}
 980:	2f6e756a 	svccs	0x006e756a
 984:	6b736544 	blvs	1cd9e9c <__bss_end__+0x1cd079c>
 988:	2f706f74 	svccs	0x00706f74
 98c:	6f686373 	svcvs	0x00686373
 990:	572f6c6f 	strpl	r6, [pc, -pc, ror #24]!
 994:	65746e69 	ldrbvs	r6, [r4, #-3689]!	; 0xe69
 998:	32393172 	eorscc	r3, r9, #-2147483620	; 0x8000001c
 99c:	53432f30 	movtpl	r2, #16176	; 0x3f30
 9a0:	45303431 	ldrmi	r3, [r0, #-1073]!	; 0x431
 9a4:	3173632f 	cmncc	r3, pc, lsr #6
 9a8:	2d653034 	stclcs	0, cr3, [r5, #-208]!	; 0xffffff30
 9ac:	69773032 	ldmdbvs	r7!, {r1, r4, r5, ip, sp}^
 9b0:	696c2f6e 	stmdbvs	ip!, {r1, r2, r3, r5, r6, r8, r9, sl, fp, sp}^
 9b4:	2f697062 	svccs	0x00697062
 9b8:	34317363 	ldrtcc	r7, [r1], #-867	; 0x363
 9bc:	732d6530 	teqvc	sp, #48, 10	; 0xc000000
 9c0:	2f006372 	svccs	0x00006372
 9c4:	72657355 	rsbvc	r7, r5, #1409286145	; 0x54000001
 9c8:	72622f73 	rsbvc	r2, r2, #460	; 0x1cc
 9cc:	6a6e6169 	bvs	1b98f78 <__bss_end__+0x1b8f878>
 9d0:	442f6e75 	strtmi	r6, [pc], #-3701	; 9d8 <_start-0x7628>
 9d4:	746b7365 	strbtvc	r7, [fp], #-869	; 0x365
 9d8:	732f706f 	teqvc	pc, #111	; 0x6f
 9dc:	6f6f6863 	svcvs	0x006f6863
 9e0:	69572f6c 	ldmdbvs	r7, {r2, r3, r5, r6, r8, r9, sl, fp, sp}^
 9e4:	7265746e 	rsbvc	r7, r5, #1845493760	; 0x6e000000
 9e8:	30323931 	eorscc	r3, r2, r1, lsr r9
 9ec:	3153432f 	cmpcc	r3, pc, lsr #6
 9f0:	2f453034 	svccs	0x00453034
 9f4:	34317363 	ldrtcc	r7, [r1], #-867	; 0x363
 9f8:	322d6530 	eorcc	r6, sp, #48, 10	; 0xc000000
 9fc:	6e697730 	mcrvs	7, 3, r7, cr9, cr0, {1}
 a00:	62696c2f 	rsbvs	r6, r9, #12032	; 0x2f00
 a04:	00006970 	andeq	r6, r0, r0, ror r9
 a08:	74726175 	ldrbtvc	r6, [r2], #-373	; 0x175
 a0c:	0100632e 	tsteq	r0, lr, lsr #6
 a10:	70670000 	rsbvc	r0, r7, r0
 a14:	682e6f69 	stmdavs	lr!, {r0, r3, r5, r6, r8, r9, sl, fp, sp, lr}
 a18:	00000200 	andeq	r0, r0, r0, lsl #4
 a1c:	2e697072 	mcrcs	0, 3, r7, cr9, cr2, {3}
 a20:	00030068 	andeq	r0, r3, r8, rrx
 a24:	05000000 	streq	r0, [r0, #-0]
 a28:	008f0402 	addeq	r0, pc, r2, lsl #8
 a2c:	01360300 	teqeq	r6, r0, lsl #6
 a30:	6d673330 	stclvs	3, cr3, [r7, #-192]!	; 0xffffff40
 a34:	6730d830 			; <UNDEFINED> instruction: 0x6730d830
 a38:	67676767 	strbvs	r6, [r7, -r7, ror #14]!
 a3c:	672f8668 	strvs	r8, [pc, -r8, ror #12]!
 a40:	6767306a 	strbvs	r3, [r7, -sl, rrx]!
 a44:	6a672f69 	bvs	19cc7f0 <__bss_end__+0x19c30f0>
 a48:	2fc1674c 	svccs	0x00c1674c
 a4c:	682f302f 	stmdavs	pc!, {r0, r1, r2, r3, r5, ip, sp}	; <UNPREDICTABLE>
 a50:	02023049 	andeq	r3, r2, #73	; 0x49
 a54:	8a010100 	bhi	40e5c <__bss_end__+0x3775c>
 a58:	02000000 	andeq	r0, r0, #0
 a5c:	00007200 	andeq	r7, r0, r0, lsl #4
 a60:	fb010200 	blx	4126a <__bss_end__+0x37b6a>
 a64:	01000d0e 	tsteq	r0, lr, lsl #26
 a68:	00010101 	andeq	r0, r1, r1, lsl #2
 a6c:	00010000 	andeq	r0, r1, r0
 a70:	696c0100 	stmdbvs	ip!, {r8}^
 a74:	2f006362 	svccs	0x00006362
 a78:	72657355 	rsbvc	r7, r5, #1409286145	; 0x54000001
 a7c:	72622f73 	rsbvc	r2, r2, #460	; 0x1cc
 a80:	6a6e6169 	bvs	1b9902c <__bss_end__+0x1b8f92c>
 a84:	442f6e75 	strtmi	r6, [pc], #-3701	; a8c <_start-0x7574>
 a88:	746b7365 	strbtvc	r7, [fp], #-869	; 0x365
 a8c:	732f706f 	teqvc	pc, #111	; 0x6f
 a90:	6f6f6863 	svcvs	0x006f6863
 a94:	69572f6c 	ldmdbvs	r7, {r2, r3, r5, r6, r8, r9, sl, fp, sp}^
 a98:	7265746e 	rsbvc	r7, r5, #1845493760	; 0x6e000000
 a9c:	30323931 	eorscc	r3, r2, r1, lsr r9
 aa0:	3153432f 	cmpcc	r3, pc, lsr #6
 aa4:	2f453034 	svccs	0x00453034
 aa8:	34317363 	ldrtcc	r7, [r1], #-867	; 0x363
 aac:	322d6530 	eorcc	r6, sp, #48, 10	; 0xc000000
 ab0:	6e697730 	mcrvs	7, 3, r7, cr9, cr0, {1}
 ab4:	62696c2f 	rsbvs	r6, r9, #12032	; 0x2f00
 ab8:	00006970 	andeq	r6, r0, r0, ror r9
 abc:	63747570 	cmnvs	r4, #112, 10	; 0x1c000000
 ac0:	2e726168 	rpwcssz	f6, f2, #0.0
 ac4:	00010063 	andeq	r0, r1, r3, rrx
 ac8:	69707200 	ldmdbvs	r0!, {r9, ip, sp, lr}^
 acc:	0200682e 	andeq	r6, r0, #3014656	; 0x2e0000
 ad0:	00000000 	andeq	r0, r0, r0
 ad4:	90bc0205 	adcsls	r0, ip, r5, lsl #4
 ad8:	4a140000 	bmi	500ae0 <__bss_end__+0x4f73e0>
 adc:	13bc136b 			; <UNDEFINED> instruction: 0x13bc136b
 ae0:	01000802 	tsteq	r0, r2, lsl #16
 ae4:	Address 0x0000000000000ae4 is out of bounds.


Disassembly of section .debug_str:

00000000 <.debug_str>:
   0:	676e6f6c 	strbvs	r6, [lr, -ip, ror #30]!
   4:	6e6f6c20 	cdpvs	12, 6, cr6, cr15, cr0, {1}
   8:	6e692067 	cdpvs	0, 6, cr2, cr9, cr7, {3}
   c:	72740074 	rsbsvc	r0, r4, #116	; 0x74
  10:	65676769 	strbvs	r6, [r7, #-1897]!	; 0x769
  14:	63680072 	cmnvs	r8, #114	; 0x72
  18:	3072735f 	rsbscc	r7, r2, pc, asr r3
  1c:	6e695f34 	mcrvs	15, 3, r5, cr9, cr4, {1}
  20:	68007469 	stmdavs	r0, {r0, r3, r5, r6, sl, ip, sp, lr}
  24:	72735f63 	rsbsvc	r5, r3, #396	; 0x18c
  28:	675f3430 	smmlarvs	pc, r0, r4, r3	; <UNPREDICTABLE>
  2c:	645f7465 	ldrbvs	r7, [pc], #-1125	; 34 <_start-0x7fcc>
  30:	61747369 	cmnvs	r4, r9, ror #6
  34:	0065636e 	rsbeq	r6, r5, lr, ror #6
  38:	676e6f6c 	strbvs	r6, [lr, -ip, ror #30]!
  3c:	6e6f6c20 	cdpvs	12, 6, cr6, cr15, cr0, {1}
  40:	6e752067 	cdpvs	0, 7, cr2, cr5, cr7, {3}
  44:	6e676973 	mcrvs	9, 3, r6, cr7, cr3, {3}
  48:	69206465 	stmdbvs	r0!, {r0, r2, r5, r6, sl, sp, lr}
  4c:	6300746e 	movwvs	r7, #1134	; 0x46e
  50:	6e61656c 	cdpvs	5, 6, cr6, cr1, cr12, {3}
  54:	6265725f 	rsbvs	r7, r5, #-268435451	; 0xf0000005
  58:	00746f6f 	rsbseq	r6, r4, pc, ror #30
  5c:	20554e47 	subscs	r4, r5, r7, asr #28
  60:	2e342043 	cdpcs	0, 3, cr2, cr4, cr3, {2}
  64:	20332e38 	eorscs	r2, r3, r8, lsr lr
  68:	70636d2d 	rsbvc	r6, r3, sp, lsr #26
  6c:	72613d75 	rsbvc	r3, r1, #7488	; 0x1d40
  70:	3731316d 	ldrcc	r3, [r1, -sp, ror #2]!
  74:	667a6a36 			; <UNDEFINED> instruction: 0x667a6a36
  78:	2d20732d 	stccs	3, cr7, [r0, #-180]!	; 0xffffff4c
  7c:	6e75746d 	cdpvs	4, 7, cr7, cr5, cr13, {3}
  80:	72613d65 	rsbvc	r3, r1, #6464	; 0x1940
  84:	3731316d 	ldrcc	r3, [r1, -sp, ror #2]!
  88:	667a6a36 			; <UNDEFINED> instruction: 0x667a6a36
  8c:	2d20732d 	stccs	3, cr7, [r0, #-180]!	; 0xffffff4c
  90:	62646767 	rsbvs	r6, r4, #27000832	; 0x19c0000
  94:	674f2d20 	strbvs	r2, [pc, -r0, lsr #26]
  98:	74732d20 	ldrbtvc	r2, [r3], #-3360	; 0xd20
  9c:	6e673d64 	cdpvs	13, 6, cr3, cr7, cr4, {3}
  a0:	20393975 	eorscs	r3, r9, r5, ror r9
  a4:	7266662d 	rsbvc	r6, r6, #47185920	; 0x2d00000
  a8:	74736565 	ldrbtvc	r6, [r3], #-1381	; 0x565
  ac:	69646e61 	stmdbvs	r4!, {r0, r5, r6, r9, sl, fp, sp, lr}^
  b0:	2d20676e 	stccs	7, cr6, [r0, #-440]!	; 0xfffffe48
  b4:	696c6166 	stmdbvs	ip!, {r1, r2, r5, r6, r8, sp, lr}^
  b8:	662d6e67 	strtvs	r6, [sp], -r7, ror #28
  bc:	74636e75 	strbtvc	r6, [r3], #-3701	; 0xe75
  c0:	736e6f69 	cmnvc	lr, #420	; 0x1a4
  c4:	6400343d 	strvs	r3, [r0], #-1085	; 0x43d
  c8:	00747369 	rsbseq	r7, r4, r9, ror #6
  cc:	69736e75 	ldmdbvs	r3!, {r0, r2, r4, r5, r6, r9, sl, fp, sp, lr}^
  d0:	64656e67 	strbtvs	r6, [r5], #-3687	; 0xe67
  d4:	61686320 	cmnvs	r8, r0, lsr #6
  d8:	69740072 	ldmdbvs	r4!, {r1, r4, r5, r6}^
  dc:	756f656d 	strbvc	r6, [pc, #-1389]!	; fffffb77 <__bss_end__+0xffff6477>
  e0:	61750074 	cmnvs	r5, r4, ror r0
  e4:	695f7472 	ldmdbvs	pc, {r1, r4, r5, r6, sl, ip, sp, lr}^	; <UNPREDICTABLE>
  e8:	0074696e 	rsbseq	r6, r4, lr, ror #18
  ec:	6f686365 	svcvs	0x00686365
  f0:	746f6e00 	strbtvc	r6, [pc], #-3584	; f8 <_start-0x7f08>
  f4:	6e69616d 	powvsez	f6, f1, #5.0
  f8:	6f687300 	svcvs	0x00687300
  fc:	75207472 	strvc	r7, [r0, #-1138]!	; 0x472
 100:	6769736e 	strbvs	r7, [r9, -lr, ror #6]!
 104:	2064656e 	rsbcs	r6, r4, lr, ror #10
 108:	00746e69 	rsbseq	r6, r4, r9, ror #28
 10c:	616c6564 	cmnvs	ip, r4, ror #10
 110:	736d5f79 	cmnvc	sp, #484	; 0x1e4
 114:	5f636800 	svcpl	0x00636800
 118:	34307273 	ldrtcc	r7, [r0], #-627	; 0x273
 11c:	7300745f 	movwvc	r7, #1119	; 0x45f
 120:	72616e6f 	rsbvc	r6, r1, #1776	; 0x6f0
 124:	2f00632e 	svccs	0x0000632e
 128:	72657355 	rsbvc	r7, r5, #1409286145	; 0x54000001
 12c:	72622f73 	rsbvc	r2, r2, #460	; 0x1cc
 130:	6a6e6169 	bvs	1b986dc <__bss_end__+0x1b8efdc>
 134:	442f6e75 	strtmi	r6, [pc], #-3701	; 13c <_start-0x7ec4>
 138:	746b7365 	strbtvc	r7, [fp], #-869	; 0x365
 13c:	732f706f 	teqvc	pc, #111	; 0x6f
 140:	6f6f6863 	svcvs	0x006f6863
 144:	70532f6c 	subsvc	r2, r3, ip, ror #30
 148:	676e6972 			; <UNDEFINED> instruction: 0x676e6972
 14c:	30323931 	eorscc	r3, r2, r1, lsr r9
 150:	3253432f 	subscc	r4, r3, #-1140850688	; 0xbc000000
 154:	584c3034 	stmdapl	ip, {r2, r4, r5, ip, sp}^
 158:	3273632f 	rsbscc	r6, r3, #-1140850688	; 0xbc000000
 15c:	786c3034 	stmdavc	ip!, {r2, r4, r5, ip, sp}^
 160:	7330322d 	teqvc	r0, #-805306366	; 0xd0000002
 164:	6c2f7270 	sfmvs	f7, 4, [pc], #-448	; ffffffac <__bss_end__+0xffff68ac>
 168:	2f736261 	svccs	0x00736261
 16c:	6f732d37 	svcvs	0x00732d37
 170:	2f72616e 	svccs	0x0072616e
 174:	65646f63 	strbvs	r6, [r4, #-3939]!	; 0xf63
 178:	6f687300 	svcvs	0x00687300
 17c:	69207472 	stmdbvs	r0!, {r1, r4, r5, r6, sl, ip, sp, lr}
 180:	7300746e 	movwvc	r7, #1134	; 0x46e
 184:	74657a69 	strbtvc	r7, [r5], #-2665	; 0xa69
 188:	00657079 	rsbeq	r7, r5, r9, ror r0
 18c:	72727563 	rsbsvc	r7, r2, #415236096	; 0x18c00000
 190:	64757000 	ldrbtvs	r7, [r5], #-0
 194:	6b6c635f 	blvs	1b18f18 <__bss_end__+0x1b0f818>
 198:	6765725f 			; <UNDEFINED> instruction: 0x6765725f
 19c:	6d697400 	cfstrdvs	mvd7, [r9, #-0]
 1a0:	74756f65 	ldrbtvc	r6, [r5], #-3941	; 0xf65
 1a4:	6573755f 	ldrbvs	r7, [r3, #-1375]!	; 0x55f
 1a8:	69740063 	ldmdbvs	r4!, {r0, r1, r5, r6}^
 1ac:	5f72656d 	svcpl	0x0072656d
 1b0:	5f746567 	svcpl	0x00746567
 1b4:	63657375 	cmnvs	r5, #-738197503	; 0xd4000001
 1b8:	74757000 	ldrbtvc	r7, [r5], #-0
 1bc:	47003233 	smladxmi	r0, r3, r2, r3
 1c0:	44555050 	ldrbmi	r5, [r5], #-80	; 0x50
 1c4:	304b4c43 	subcc	r4, fp, r3, asr #24
 1c8:	50504700 	subspl	r4, r0, r0, lsl #14
 1cc:	4c434455 	cfstrdmi	mvd4, [r3], {85}	; 0x55
 1d0:	4700314b 	strmi	r3, [r0, -fp, asr #2]
 1d4:	44555050 	ldrbmi	r5, [r5], #-80	; 0x50
 1d8:	69706700 	ldmdbvs	r0!, {r8, r9, sl, sp, lr}^
 1dc:	65735f6f 	ldrbvs	r5, [r3, #-3951]!	; 0xf6f
 1e0:	6e695f74 	mcrvs	15, 3, r5, cr9, cr4, {3}
 1e4:	00747570 	rsbseq	r7, r4, r0, ror r5
 1e8:	6f697067 	svcvs	0x00697067
 1ec:	6165725f 	cmnvs	r5, pc, asr r2
 1f0:	70670064 	rsbvc	r0, r7, r4, rrx
 1f4:	735f6f69 	cmpvc	pc, #420	; 0x1a4
 1f8:	6f5f7465 	svcvs	0x005f7465
 1fc:	70006666 	andvc	r6, r0, r6, ror #12
 200:	6f5f6475 	svcvs	0x005f6475
 204:	65736666 	ldrbvs	r6, [r3, #-1638]!	; 0x666
 208:	70670074 	rsbvc	r0, r7, r4, ror r0
 20c:	735f6f69 	cmpvc	pc, #420	; 0x1a4
 210:	6f5f7465 	svcvs	0x005f7465
 214:	75707475 	ldrbvc	r7, [r0, #-1141]!	; 0x475
 218:	65720074 	ldrbvs	r0, [r2, #-116]!	; 0x74
 21c:	775f6461 	ldrbvc	r6, [pc, -r1, ror #8]
 220:	656c6968 	strbvs	r6, [ip, #-2408]!	; 0x968
 224:	0071655f 	rsbseq	r6, r1, pc, asr r5
 228:	5f766564 	svcpl	0x00766564
 22c:	72726162 	rsbsvc	r6, r2, #-2147483624	; 0x80000018
 230:	00726569 	rsbseq	r6, r2, r9, ror #10
 234:	6f697067 	svcvs	0x00697067
 238:	7465735f 	strbtvc	r7, [r5], #-863	; 0x35f
 23c:	6c75705f 	ldclvs	0, cr7, [r5], #-380	; 0xfffffe84
 240:	776f646c 	strbvc	r6, [pc, -ip, ror #8]!
 244:	6564006e 	strbvs	r0, [r4, #-110]!	; 0x6e
 248:	5f79616c 	svcpl	0x0079616c
 24c:	67007375 	smlsdxvs	r0, r5, r3, r7
 250:	5f6f6970 	svcpl	0x006f6970
 254:	5f746573 	svcpl	0x00746573
 258:	6c6c7570 	cfstr64vs	mvdx7, [ip], #-448	; 0xfffffe40
 25c:	68007075 	stmdavs	r0, {r0, r2, r4, r5, r6, ip, sp, lr}
 260:	72732d63 	rsbsvc	r2, r3, #6336	; 0x18c0
 264:	632e3430 	teqvs	lr, #48, 8	; 0x30000000
 268:	67696800 	strbvs	r6, [r9, -r0, lsl #16]!
 26c:	6e695f68 	cdpvs	15, 6, cr5, cr9, cr8, {3}
 270:	76726574 			; <UNDEFINED> instruction: 0x76726574
 274:	755f6c61 	ldrbvc	r6, [pc, #-3169]	; fffff61b <__bss_end__+0xffff5f1b>
 278:	70670073 	rsbvc	r0, r7, r3, ror r0
 27c:	735f6f69 	cmpvc	pc, #420	; 0x1a4
 280:	6f5f7465 	svcvs	0x005f7465
 284:	5f5f006e 	svcpl	0x005f006e
 288:	63756e67 	cmnvs	r5, #1648	; 0x670
 28c:	5f61765f 	svcpl	0x0061765f
 290:	7473696c 	ldrbtvc	r6, [r3], #-2412	; 0x96c
 294:	62696c00 	rsbvs	r6, r9, #0, 24
 298:	72702f63 	rsbsvc	r2, r0, #396	; 0x18c
 29c:	6b746e69 	blvs	1d1bc48 <__bss_end__+0x1d12548>
 2a0:	4700632e 	strmi	r6, [r0, -lr, lsr #6]
 2a4:	4320554e 	teqmi	r0, #327155712	; 0x13800000
 2a8:	382e3420 	stmdacc	lr!, {r5, sl, ip, sp}
 2ac:	2d20332e 	stccs	3, cr3, [r0, #-184]!	; 0xffffff48
 2b0:	7570636d 	ldrbvc	r6, [r0, #-877]!	; 0x36d
 2b4:	6d72613d 	ldfvse	f6, [r2, #-244]!	; 0xffffff0c
 2b8:	36373131 			; <UNDEFINED> instruction: 0x36373131
 2bc:	2d667a6a 	vstmdbcs	r6!, {s15-s120}
 2c0:	6d2d2073 	stcvs	0, cr2, [sp, #-460]!	; 0xfffffe34
 2c4:	656e7574 	strbvs	r7, [lr, #-1396]!	; 0x574
 2c8:	6d72613d 	ldfvse	f6, [r2, #-244]!	; 0xffffff0c
 2cc:	36373131 			; <UNDEFINED> instruction: 0x36373131
 2d0:	2d667a6a 	vstmdbcs	r6!, {s15-s120}
 2d4:	672d2073 			; <UNDEFINED> instruction: 0x672d2073
 2d8:	20626467 	rsbcs	r6, r2, r7, ror #8
 2dc:	20674f2d 	rsbcs	r4, r7, sp, lsr #30
 2e0:	6474732d 	ldrbtvs	r7, [r4], #-813	; 0x32d
 2e4:	756e673d 	strbvc	r6, [lr, #-1853]!	; 0x73d
 2e8:	2d203939 	stccs	9, cr3, [r0, #-228]!	; 0xffffff1c
 2ec:	65726666 	ldrbvs	r6, [r2, #-1638]!	; 0x666
 2f0:	61747365 	cmnvs	r4, r5, ror #6
 2f4:	6e69646e 	cdpvs	4, 6, cr6, cr9, cr14, {3}
 2f8:	61760067 	cmnvs	r6, r7, rrx
 2fc:	6972705f 	ldmdbvs	r2!, {r0, r1, r2, r3, r4, r6, ip, sp, lr}^
 300:	006b746e 	rsbeq	r7, fp, lr, ror #8
 304:	61765f5f 	cmnvs	r6, pc, asr pc
 308:	73696c5f 	cmnvc	r9, #24320	; 0x5f00
 30c:	552f0074 	strpl	r0, [pc, #-116]!	; 2a0 <_start-0x7d60>
 310:	73726573 	cmnvc	r2, #482344960	; 0x1cc00000
 314:	6972622f 	ldmdbvs	r2!, {r0, r1, r2, r3, r5, r9, sp, lr}^
 318:	756a6e61 	strbvc	r6, [sl, #-3681]!	; 0xe61
 31c:	65442f6e 	strbvs	r2, [r4, #-3950]	; 0xf6e
 320:	6f746b73 	svcvs	0x00746b73
 324:	63732f70 	cmnvs	r3, #112, 30	; 0x1c0
 328:	6c6f6f68 	stclvs	15, cr6, [pc], #-416	; 190 <_start-0x7e70>
 32c:	6e69572f 	cdpvs	7, 6, cr5, cr9, cr15, {1}
 330:	31726574 	cmncc	r2, r4, ror r5
 334:	2f303239 	svccs	0x00303239
 338:	34315343 	ldrtcc	r5, [r1], #-835	; 0x343
 33c:	632f4530 	teqvs	pc, #48, 10	; 0xc000000
 340:	30343173 	eorscc	r3, r4, r3, ror r1
 344:	30322d65 	eorscc	r2, r2, r5, ror #26
 348:	2f6e6977 	svccs	0x006e6977
 34c:	7062696c 	rsbvc	r6, r2, ip, ror #18
 350:	72610069 	rsbvc	r0, r1, #105	; 0x69
 354:	5f007367 	svcpl	0x00007367
 358:	0070615f 	rsbseq	r6, r0, pc, asr r1
 35c:	6362696c 	cmnvs	r2, #108, 18	; 0x1b0000
 360:	7475702f 	ldrbtvc	r7, [r5], #-47	; 0x2f
 364:	00632e6b 	rsbeq	r2, r3, fp, ror #28
 368:	65746e69 	ldrbvs	r6, [r4, #-3689]!	; 0xe69
 36c:	6c616e72 	stclvs	14, cr6, [r1], #-456	; 0xfffffe38
 370:	7475705f 	ldrbtvc	r7, [r5], #-95	; 0x5f
 374:	7072006b 	rsbsvc	r0, r2, fp, rrx
 378:	75705f69 	ldrbvc	r5, [r0, #-3945]!	; 0xf69
 37c:	61686374 	smcvs	34356	; 0x8634
 380:	656e0072 	strbvs	r0, [lr, #-114]!	; 0x72
 384:	00705f67 	rsbseq	r5, r0, r7, ror #30
 388:	65766572 	ldrbvs	r6, [r6, #-1394]!	; 0x572
 38c:	00657372 	rsbeq	r7, r5, r2, ror r3
 390:	69647369 	stmdbvs	r4!, {r0, r3, r5, r6, r8, r9, ip, sp, lr}^
 394:	00746967 	rsbseq	r6, r4, r7, ror #18
 398:	55465f5f 	strbpl	r5, [r6, #-3935]	; 0xf5f
 39c:	4954434e 	ldmdbmi	r4, {r1, r2, r3, r6, r8, r9, lr}^
 3a0:	5f5f4e4f 	svcpl	0x005f4e4f
 3a4:	74757000 	ldrbtvc	r7, [r5], #-0
 3a8:	70665f73 	rsbvc	r5, r6, r3, ror pc
 3ac:	73616200 	cmnvc	r1, #0, 4
 3b0:	69730065 	ldmdbvs	r3!, {r0, r2, r5, r6}^
 3b4:	64656e67 	strbtvs	r6, [r5], #-3687	; 0xe67
 3b8:	6c00705f 	stcvs	0, cr7, [r0], {95}	; 0x5f
 3bc:	2f636269 	svccs	0x00636269
 3c0:	702d6176 	eorvc	r6, sp, r6, ror r1
 3c4:	746e6972 	strbtvc	r6, [lr], #-2418	; 0x972
 3c8:	00632e6b 	rsbeq	r2, r3, fp, ror #28
 3cc:	5f697072 	svcpl	0x00697072
 3d0:	5f746573 	svcpl	0x00746573
 3d4:	7074756f 	rsbsvc	r7, r4, pc, ror #10
 3d8:	77007475 	smlsdxvc	r0, r5, r4, r7
 3dc:	68746469 	ldmdavs	r4!, {r0, r3, r5, r6, sl, sp, lr}^
 3e0:	74757000 	ldrbtvc	r7, [r5], #-0
 3e4:	70665f63 	rsbvc	r5, r6, r3, ror #30
 3e8:	69707200 	ldmdbvs	r0!, {r9, ip, sp, lr}^
 3ec:	7365725f 	cmnvc	r5, #-268435451	; 0xf0000005
 3f0:	705f7465 	subsvc	r7, pc, r5, ror #8
 3f4:	00637475 	rsbeq	r7, r3, r5, ror r4
 3f8:	74696d65 	strbtvc	r6, [r9], #-3429	; 0xd65
 3fc:	69707200 	ldmdbvs	r0!, {r9, ip, sp, lr}^
 400:	6265725f 	rsbvs	r7, r5, #-268435451	; 0xf0000005
 404:	00746f6f 	rsbseq	r6, r4, pc, ror #30
 408:	34317363 	ldrtcc	r7, [r1], #-867	; 0x363
 40c:	732d6530 	teqvc	sp, #48, 10	; 0xc000000
 410:	632f6372 	teqvs	pc, #-939524095	; 0xc8000001
 414:	6e61656c 	cdpvs	5, 6, cr6, cr1, cr12, {3}
 418:	6265722d 	rsbvs	r7, r5, #-805306366	; 0xd0000002
 41c:	2e746f6f 	cdpcs	15, 7, cr6, cr4, cr15, {3}
 420:	73630063 	cmnvc	r3, #99	; 0x63
 424:	65303431 	ldrvs	r3, [r0, #-1073]!	; 0x431
 428:	6372732d 	cmnvs	r2, #-1275068416	; 0xb4000000
 42c:	7473632f 	ldrbtvc	r6, [r3], #-815	; 0x32f
 430:	2e747261 	cdpcs	2, 7, cr7, cr4, cr1, {3}
 434:	5f5f0063 	svcpl	0x005f0063
 438:	5f737362 	svcpl	0x00737362
 43c:	72617473 	rsbvc	r7, r1, #1929379840	; 0x73000000
 440:	005f5f74 	subseq	r5, pc, r4, ror pc	; <UNPREDICTABLE>
 444:	73625f5f 	cmnvc	r2, #380	; 0x17c
 448:	6e655f73 	mcrvs	15, 3, r5, cr5, cr3, {3}
 44c:	005f5f64 	subseq	r5, pc, r4, ror #30
 450:	5f737362 	svcpl	0x00737362
 454:	00646e65 	rsbeq	r6, r4, r5, ror #28
 458:	7473635f 	ldrbtvc	r6, [r3], #-863	; 0x35f
 45c:	00747261 	rsbseq	r7, r4, r1, ror #4
 460:	755f7461 	ldrbvc	r7, [pc, #-1121]	; 7 <_start-0x7ff9>
 464:	5f726573 	svcpl	0x00726573
 468:	6576656c 	ldrbvs	r6, [r6, #-1388]!	; 0x56c
 46c:	4d50006c 	ldclmi	0, cr0, [r0, #-432]	; 0xfffffe50
 470:	5341505f 	movtpl	r5, #4191	; 0x105f
 474:	524f5753 	subpl	r5, pc, #21757952	; 0x14c0000
 478:	73630044 	cmnvc	r3, #68	; 0x44
 47c:	65303431 	ldrvs	r3, [r0, #-1073]!	; 0x431
 480:	6372732d 	cmnvs	r2, #-1275068416	; 0xb4000000
 484:	6265722f 	rsbvs	r7, r5, #-268435454	; 0xf0000002
 488:	2e746f6f 	cdpcs	15, 7, cr6, cr4, cr15, {3}
 48c:	4d500063 	ldclmi	0, cr0, [r0, #-396]	; 0xfffffe74
 490:	5453525f 	ldrbpl	r5, [r3], #-607	; 0x25f
 494:	52575f43 	subspl	r5, r7, #268	; 0x10c
 498:	5f474643 	svcpl	0x00474643
 49c:	4c4c5546 	cfstr64mi	mvdx5, [ip], {70}	; 0x46
 4a0:	5345525f 	movtpl	r5, #21087	; 0x525f
 4a4:	50005445 	andpl	r5, r0, r5, asr #8
 4a8:	44575f4d 	ldrbmi	r5, [r7], #-3917	; 0xf4d
 4ac:	7300474f 	movwvc	r4, #1871	; 0x74f
 4b0:	755f7465 	ldrbvc	r7, [pc, #-1125]	; 53 <_start-0x7fad>
 4b4:	5f726573 	svcpl	0x00726573
 4b8:	6576656c 	ldrbvs	r6, [r6, #-1388]!	; 0x56c
 4bc:	5550006c 	ldrbpl	r0, [r0, #-108]	; 0x6c
 4c0:	00323354 	eorseq	r3, r2, r4, asr r3
 4c4:	525f4d50 	subspl	r4, pc, #80, 26	; 0x1400
 4c8:	00435453 	subeq	r5, r3, r3, asr r4
 4cc:	72737063 	rsbsvc	r7, r3, #99	; 0x63
 4d0:	6d697400 	cfstrdvs	mvd7, [r9, #-0]
 4d4:	675f7265 	ldrbvs	r7, [pc, -r5, ror #4]
 4d8:	755f7465 	ldrbvc	r7, [pc, #-1125]	; 7b <_start-0x7f85>
 4dc:	5f636573 	svcpl	0x00636573
 4e0:	00776172 	rsbseq	r6, r7, r2, ror r1
 4e4:	616c6564 	cmnvs	ip, r4, ror #10
 4e8:	65735f79 	ldrbvs	r5, [r3, #-3961]!	; 0xf79
 4ec:	73630063 	cmnvc	r3, #99	; 0x63
 4f0:	65303431 	ldrvs	r3, [r0, #-1073]!	; 0x431
 4f4:	6372732d 	cmnvs	r2, #-1275068416	; 0xb4000000
 4f8:	6d69742f 	cfstrdvs	mvd7, [r9, #-188]!	; 0xffffff44
 4fc:	632e7265 	teqvs	lr, #1342177286	; 0x50000006
 500:	54454700 	strbpl	r4, [r5], #-1792	; 0x700
 504:	74003233 	strvc	r3, [r0], #-563	; 0x233
 508:	736b6369 	cmnvc	fp, #-1543503871	; 0xa4000001
 50c:	6c656400 	cfstrdvs	mvd6, [r5], #-0
 510:	635f7961 	cmpvs	pc, #1589248	; 0x184000
 514:	656c6379 	strbvs	r6, [ip, #-889]!	; 0x379
 518:	70670073 	rsbvc	r0, r7, r3, ror r0
 51c:	655f6f69 	ldrbvs	r6, [pc, #-3945]	; fffff5bb <__bss_end__+0xffff5ebb>
 520:	746e6576 	strbtvc	r6, [lr], #-1398	; 0x576
 524:	7465645f 	strbtvc	r6, [r5], #-1119	; 0x45f
 528:	65746365 	ldrbvs	r6, [r4, #-869]!	; 0x365
 52c:	50470064 	subpl	r0, r7, r4, rrx
 530:	4c455346 	mcrrmi	3, 4, r5, r5, cr6
 534:	50470032 	subpl	r0, r7, r2, lsr r0
 538:	30524c43 	subscc	r4, r2, r3, asr #24
 53c:	414e4500 	cmpmi	lr, r0, lsl #10
 540:	5f454c42 	svcpl	0x00454c42
 544:	53515249 	cmppl	r1, #-1879048188	; 0x90000004
 548:	6900325f 	stmdbvs	r0, {r0, r1, r2, r3, r4, r6, r9, ip, sp}
 54c:	70675f73 	rsbvc	r5, r7, r3, ror pc
 550:	695f6f69 	ldmdbvs	pc, {r0, r3, r5, r6, r8, r9, sl, fp, sp, lr}^	; <UNPREDICTABLE>
 554:	4700746e 	strmi	r7, [r0, -lr, ror #8]
 558:	5f4f4950 	svcpl	0x004f4950
 55c:	434e5546 	movtmi	r5, #58694	; 0xe546
 560:	504e495f 	subpl	r4, lr, pc, asr r9
 564:	6d005455 	cfstrsvs	mvf5, [r0, #-340]	; 0xfffffeac
 568:	72732d79 	rsbsvc	r2, r3, #7744	; 0x1e40
 56c:	70672f63 	rsbvc	r2, r7, r3, ror #30
 570:	632e6f69 	teqvs	lr, #420	; 0x1a4
 574:	746e6900 	strbtvc	r6, [lr], #-2304	; 0x900
 578:	73616d5f 	cmnvc	r1, #6080	; 0x17c0
 57c:	5047006b 	subpl	r0, r7, fp, rrx
 580:	30544553 	subscc	r4, r4, r3, asr r5
 584:	53504700 	cmppl	r0, #0, 14
 588:	00315445 	eorseq	r5, r1, r5, asr #8
 58c:	5f676572 	svcpl	0x00676572
 590:	74617473 	strbtvc	r7, [r1], #-1139	; 0x473
 594:	4c504700 	mrrcmi	7, 0, r4, r0, cr0
 598:	00305645 	eorseq	r5, r0, r5, asr #12
 59c:	454c5047 	strbmi	r5, [ip, #-71]	; 0x47
 5a0:	67003156 	smlsdvs	r0, r6, r1, r3
 5a4:	5f6f6970 	svcpl	0x006f6970
 5a8:	00676572 	rsbeq	r6, r7, r2, ror r5
 5ac:	53465047 	movtpl	r5, #24647	; 0x6047
 5b0:	00304c45 	eorseq	r4, r0, r5, asr #24
 5b4:	53465047 	movtpl	r5, #24647	; 0x6047
 5b8:	00314c45 	eorseq	r4, r1, r5, asr #24
 5bc:	53465047 	movtpl	r5, #24647	; 0x6047
 5c0:	00334c45 	eorseq	r4, r3, r5, asr #24
 5c4:	53465047 	movtpl	r5, #24647	; 0x6047
 5c8:	00344c45 	eorseq	r4, r4, r5, asr #24
 5cc:	53465047 	movtpl	r5, #24647	; 0x6047
 5d0:	00354c45 	eorseq	r4, r5, r5, asr #24
 5d4:	6f697067 	svcvs	0x00697067
 5d8:	6573665f 	ldrbvs	r6, [r3, #-1631]!	; 0x65f
 5dc:	4700306c 	strmi	r3, [r0, -ip, rrx]
 5e0:	524c4350 	subpl	r4, ip, #80, 6	; 0x40000001
 5e4:	70670031 	rsbvc	r0, r7, r1, lsr r0
 5e8:	695f6f69 	ldmdbvs	pc, {r0, r3, r5, r6, r8, r9, sl, fp, sp, lr}^	; <UNPREDICTABLE>
 5ec:	725f746e 	subsvc	r7, pc, #1845493760	; 0x6e000000
 5f0:	6e697369 	cdpvs	3, 6, cr7, cr9, cr9, {3}
 5f4:	64655f67 	strbtvs	r5, [r5], #-3943	; 0xf67
 5f8:	67006567 	strvs	r6, [r0, -r7, ror #10]
 5fc:	5f6f6970 	svcpl	0x006f6970
 600:	5f746573 	svcpl	0x00746573
 604:	636e7566 	cmnvs	lr, #427819008	; 0x19800000
 608:	6e6f6974 	mcrvs	9, 3, r6, cr15, cr4, {3}
 60c:	52504700 	subspl	r4, r0, #0, 14
 610:	00304e45 	eorseq	r4, r0, r5, asr #28
 614:	45525047 	ldrbmi	r5, [r2, #-71]	; 0x47
 618:	6700314e 	strvs	r3, [r0, -lr, asr #2]
 61c:	5f6f6970 	svcpl	0x006f6970
 620:	6e657665 	cdpvs	6, 6, cr7, cr5, cr5, {3}
 624:	6c635f74 	stclvs	15, cr5, [r3], #-464	; 0xfffffe30
 628:	00726165 	rsbseq	r6, r2, r5, ror #2
 62c:	5f515249 	svcpl	0x00515249
 630:	444e4550 	strbmi	r4, [lr], #-1360	; 0x550
 634:	5f474e49 	svcpl	0x00474e49
 638:	52490031 	subpl	r0, r9, #49	; 0x31
 63c:	45505f51 	ldrbmi	r5, [r0, #-3921]	; 0xf51
 640:	4e49444e 	cdpmi	4, 4, cr4, cr9, cr14, {2}
 644:	00325f47 	eorseq	r5, r2, r7, asr #30
 648:	6d746962 	ldclvs	9, cr6, [r4, #-392]!	; 0xfffffe78
 64c:	006b7361 	rsbeq	r7, fp, r1, ror #6
 650:	6f697067 	svcvs	0x00697067
 654:	6972775f 	ldmdbvs	r2!, {r0, r1, r2, r3, r4, r6, r8, r9, sl, ip, sp, lr}^
 658:	67006574 	smlsdxvs	r0, r4, r5, r6
 65c:	5f6f6970 	svcpl	0x006f6970
 660:	30746573 	rsbscc	r6, r4, r3, ror r5
 664:	6e756600 	cdpvs	6, 7, cr6, cr5, cr0, {0}
 668:	70670063 	rsbvc	r0, r7, r3, rrx
 66c:	745f6f69 	ldrbvc	r6, [pc], #-3945	; 674 <_start-0x798c>
 670:	6c67676f 	stclvs	7, cr6, [r7], #-444	; 0xfffffe44
 674:	50470065 	subpl	r0, r7, r5, rrx
 678:	30534445 	subscc	r4, r3, r5, asr #8
 67c:	45504700 	ldrbmi	r4, [r0, #-1792]	; 0x700
 680:	00315344 	eorseq	r5, r1, r4, asr #6
 684:	45465047 	strbmi	r5, [r6, #-71]	; 0x47
 688:	4700304e 	strmi	r3, [r0, -lr, asr #32]
 68c:	4e454650 	mcrmi	6, 2, r4, cr5, cr0, {2}
 690:	50470031 	subpl	r0, r7, r1, lsr r0
 694:	465f4f49 	ldrbmi	r4, [pc], -r9, asr #30
 698:	5f434e55 	svcpl	0x00434e55
 69c:	5054554f 	subspl	r5, r4, pc, asr #10
 6a0:	67005455 	smlsdvs	r0, r5, r4, r5
 6a4:	32337465 	eorscc	r7, r3, #1694498816	; 0x65000000
 6a8:	69706700 	ldmdbvs	r0!, {r8, r9, sl, sp, lr}^
 6ac:	6e695f6f 	cdpvs	15, 6, cr5, cr9, cr15, {3}
 6b0:	61665f74 	smcvs	26100	; 0x65f4
 6b4:	6e696c6c 	cdpvs	12, 6, cr6, cr9, cr12, {3}
 6b8:	64655f67 	strbtvs	r5, [r5], #-3943	; 0xf67
 6bc:	67006567 	strvs	r6, [r0, -r7, ror #10]
 6c0:	5f6f6970 	svcpl	0x006f6970
 6c4:	636e7566 	cmnvs	lr, #427819008	; 0x19800000
 6c8:	4700745f 	smlsdmi	r0, pc, r4, r7	; <UNPREDICTABLE>
 6cc:	5f4f4950 	svcpl	0x004f4950
 6d0:	434e5546 	movtmi	r5, #58694	; 0xe546
 6d4:	544c415f 	strbpl	r4, [ip], #-351	; 0x15f
 6d8:	50470030 	subpl	r0, r7, r0, lsr r0
 6dc:	465f4f49 	ldrbmi	r4, [pc], -r9, asr #30
 6e0:	5f434e55 	svcpl	0x00434e55
 6e4:	31544c41 	cmpcc	r4, r1, asr #24
 6e8:	49504700 	ldmdbmi	r0, {r8, r9, sl, lr}^
 6ec:	55465f4f 	strbpl	r5, [r6, #-3919]	; 0xf4f
 6f0:	415f434e 	cmpmi	pc, lr, asr #6
 6f4:	0032544c 	eorseq	r5, r2, ip, asr #8
 6f8:	4f495047 	svcmi	0x00495047
 6fc:	4e55465f 	mrcmi	6, 2, r4, cr5, cr15, {2}
 700:	4c415f43 	mcrrmi	15, 4, r5, r1, cr3
 704:	47003354 	smlsdmi	r0, r4, r3, r3
 708:	5f4f4950 	svcpl	0x004f4950
 70c:	434e5546 	movtmi	r5, #58694	; 0xe546
 710:	544c415f 	strbpl	r4, [ip], #-351	; 0x15f
 714:	50470034 	subpl	r0, r7, r4, lsr r0
 718:	465f4f49 	ldrbmi	r4, [pc], -r9, asr #30
 71c:	5f434e55 	svcpl	0x00434e55
 720:	35544c41 	ldrbcc	r4, [r4, #-3137]	; 0xc41
 724:	67657200 	strbvs	r7, [r5, -r0, lsl #4]!
 728:	6c65735f 	stclvs	3, cr7, [r5], #-380	; 0xfffffe84
 72c:	00746365 	rsbseq	r6, r4, r5, ror #6
 730:	6f697067 	svcvs	0x00697067
 734:	726c635f 	rsbvc	r6, ip, #2080374785	; 0x7c000001
 738:	55410030 	strbpl	r0, [r1, #-48]	; 0x30
 73c:	554d5f58 	strbpl	r5, [sp, #-3928]	; 0xf58
 740:	52434d5f 	subpl	r4, r3, #6080	; 0x17c0
 744:	4745525f 	smlsldmi	r5, r5, pc, r2	; <UNPREDICTABLE>
 748:	58554100 	ldmdapl	r5, {r8, lr}^
 74c:	5f554d5f 	svcpl	0x00554d5f
 750:	525f4f49 	subspl	r4, pc, #292	; 0x124
 754:	41004745 	tstmi	r0, r5, asr #14
 758:	4d5f5855 	ldclmi	8, cr5, [pc, #-340]	; 60c <_start-0x79f4>
 75c:	534d5f55 	movtpl	r5, #57173	; 0xdf55
 760:	45525f52 	ldrbmi	r5, [r2, #-3922]	; 0xf52
 764:	61750047 	cmnvs	r5, r7, asr #32
 768:	635f7472 	cmpvs	pc, #1912602624	; 0x72000000
 76c:	675f6e61 	ldrbvs	r6, [pc, -r1, ror #28]
 770:	00637465 	rsbeq	r7, r3, r5, ror #8
 774:	5f585541 	svcpl	0x00585541
 778:	435f554d 	cmpmi	pc, #322961408	; 0x13400000
 77c:	5f4c544e 	svcpl	0x004c544e
 780:	00474552 	subeq	r4, r7, r2, asr r5
 784:	74726175 	ldrbtvc	r6, [r2], #-373	; 0x175
 788:	7361685f 	cmnvc	r1, #6225920	; 0x5f0000
 78c:	7461645f 	strbtvc	r6, [r1], #-1119	; 0x45f
 790:	55410061 	strbpl	r0, [r1, #-97]	; 0x61
 794:	554d5f58 	strbpl	r5, [sp, #-3928]	; 0xf58
 798:	5245495f 	subpl	r4, r5, #1556480	; 0x17c000
 79c:	4745525f 	smlsldmi	r5, r5, pc, r2	; <UNPREDICTABLE>
 7a0:	72617500 	rsbvc	r7, r1, #0, 10
 7a4:	65675f74 	strbvs	r5, [r7, #-3956]!	; 0xf74
 7a8:	41006374 	tstmi	r0, r4, ror r3
 7ac:	4d5f5855 	ldclmi	8, cr5, [pc, #-340]	; 660 <_start-0x79a0>
 7b0:	49495f55 	stmdbmi	r9, {r0, r2, r4, r6, r8, r9, sl, fp, ip, lr}^
 7b4:	45525f52 	ldrbmi	r5, [r2, #-3922]	; 0xf52
 7b8:	61750047 	cmnvs	r5, r7, asr #32
 7bc:	635f7472 	cmpvs	pc, #1912602624	; 0x72000000
 7c0:	705f6e61 	subsvc	r6, pc, r1, ror #28
 7c4:	00637475 	rsbeq	r7, r3, r5, ror r4
 7c8:	5f585541 	svcpl	0x00585541
 7cc:	42414e45 	submi	r4, r1, #1104	; 0x450
 7d0:	0053454c 	subseq	r4, r3, ip, asr #10
 7d4:	5f585541 	svcpl	0x00585541
 7d8:	00515249 	subseq	r5, r1, r9, asr #4
 7dc:	5f585541 	svcpl	0x00585541
 7e0:	425f554d 	subsmi	r5, pc, #322961408	; 0x13400000
 7e4:	5f445541 	svcpl	0x00445541
 7e8:	00474552 	subeq	r4, r7, r2, asr r5
 7ec:	5f585541 	svcpl	0x00585541
 7f0:	535f554d 	cmppl	pc, #322961408	; 0x13400000
 7f4:	5f544154 	svcpl	0x00544154
 7f8:	00474552 	subeq	r4, r7, r2, asr r5
 7fc:	5f585541 	svcpl	0x00585541
 800:	535f554d 	cmppl	pc, #322961408	; 0x13400000
 804:	54415243 	strbpl	r5, [r1], #-579	; 0x243
 808:	75004843 	strvc	r4, [r0, #-2115]	; 0x843
 80c:	5f747261 	svcpl	0x00747261
 810:	63747570 	cmnvs	r4, #112, 10	; 0x1c000000
 814:	2d796d00 	ldclcs	13, cr6, [r9, #-0]
 818:	2f637273 	svccs	0x00637273
 81c:	74726175 	ldrbtvc	r6, [r2], #-373	; 0x175
 820:	4100632e 	tstmi	r0, lr, lsr #6
 824:	4d5f5855 	ldclmi	8, cr5, [pc, #-340]	; 6d8 <_start-0x7928>
 828:	434c5f55 	movtmi	r5, #53077	; 0xcf55
 82c:	45525f52 	ldrbmi	r5, [r2, #-3922]	; 0xf52
 830:	55410047 	strbpl	r0, [r1, #-71]	; 0x47
 834:	554d5f58 	strbpl	r5, [sp, #-3928]	; 0xf58
 838:	52534c5f 	subspl	r4, r3, #24320	; 0x5f00
 83c:	4745525f 	smlsldmi	r5, r5, pc, r2	; <UNPREDICTABLE>
 840:	72617500 	rsbvc	r7, r1, #0, 10
 844:	65675f74 	strbvs	r5, [r7, #-3956]!	; 0xf74
 848:	615f6374 	cmpvs	pc, r4, ror r3	; <UNPREDICTABLE>
 84c:	636e7973 	cmnvs	lr, #1884160	; 0x1cc000
 850:	746e6900 	strbtvc	r6, [lr], #-2304	; 0x900
 854:	616e7265 	cmnvs	lr, r5, ror #4
 858:	75705f6c 	ldrbvc	r5, [r0, #-3948]!	; 0xf6c
 85c:	61686374 	smcvs	34356	; 0x8634
 860:	696c0072 	stmdbvs	ip!, {r1, r4, r5, r6}^
 864:	702f6362 	eorvc	r6, pc, r2, ror #6
 868:	68637475 	stmdavs	r3!, {r0, r2, r4, r5, r6, sl, ip, sp, lr}^
 86c:	632e7261 	teqvs	lr, #268435462	; 0x10000006
 870:	69707200 	ldmdbvs	r0!, {r9, ip, sp, lr}^
 874:	7465735f 	strbtvc	r7, [r5], #-863	; 0x35f
 878:	7475705f 	ldrbtvc	r7, [r5], #-95	; 0x5f
 87c:	Address 0x000000000000087c is out of bounds.


Disassembly of section .debug_frame:

00000000 <.debug_frame>:
   0:	0000000c 	andeq	r0, r0, ip
   4:	ffffffff 			; <UNDEFINED> instruction: 0xffffffff
   8:	7c020001 	stcvc	0, cr0, [r2], {1}
   c:	000d0c0e 	andeq	r0, sp, lr, lsl #24
  10:	0000001c 	andeq	r0, r0, ip, lsl r0
  14:	00000000 	andeq	r0, r0, r0
  18:	00008010 	andeq	r8, r0, r0, lsl r0
  1c:	00000090 	muleq	r0, r0, r0
  20:	84140e42 	ldrhi	r0, [r4], #-3650	; 0xe42
  24:	86048505 	strhi	r8, [r4], -r5, lsl #10
  28:	8e028703 	cdphi	7, 0, cr8, cr2, cr3, {0}
  2c:	200e4201 	andcs	r4, lr, r1, lsl #4
  30:	0000000c 	andeq	r0, r0, ip
  34:	ffffffff 			; <UNDEFINED> instruction: 0xffffffff
  38:	7c020001 	stcvc	0, cr0, [r2], {1}
  3c:	000d0c0e 	andeq	r0, sp, lr, lsl #24
  40:	00000018 	andeq	r0, r0, r8, lsl r0
  44:	00000030 	andeq	r0, r0, r0, lsr r0
  48:	000080a0 	andeq	r8, r0, r0, lsr #1
  4c:	0000008c 	andeq	r0, r0, ip, lsl #1
  50:	83100e42 	tsthi	r0, #1056	; 0x420
  54:	85038404 	strhi	r8, [r3, #-1028]	; 0x404
  58:	00018e02 	andeq	r8, r1, r2, lsl #28
  5c:	00000018 	andeq	r0, r0, r8, lsl r0
  60:	00000030 	andeq	r0, r0, r0, lsr r0
  64:	0000812c 	andeq	r8, r0, ip, lsr #2
  68:	0000008c 	andeq	r0, r0, ip, lsl #1
  6c:	83100e42 	tsthi	r0, #1056	; 0x420
  70:	85038404 	strhi	r8, [r3, #-1028]	; 0x404
  74:	00018e02 	andeq	r8, r1, r2, lsl #28
  78:	0000001c 	andeq	r0, r0, ip, lsl r0
  7c:	00000030 	andeq	r0, r0, r0, lsr r0
  80:	000081b8 			; <UNDEFINED> instruction: 0x000081b8
  84:	00000054 	andeq	r0, r0, r4, asr r0
  88:	84180e42 	ldrhi	r0, [r8], #-3650	; 0xe42
  8c:	86058506 	strhi	r8, [r5], -r6, lsl #10
  90:	88038704 	stmdahi	r3, {r2, r8, r9, sl, pc}
  94:	00018e02 	andeq	r8, r1, r2, lsl #28
  98:	00000018 	andeq	r0, r0, r8, lsl r0
  9c:	00000030 	andeq	r0, r0, r0, lsr r0
  a0:	0000820c 	andeq	r8, r0, ip, lsl #4
  a4:	00000034 	andeq	r0, r0, r4, lsr r0
  a8:	83100e42 	tsthi	r0, #1056	; 0x420
  ac:	85038404 	strhi	r8, [r3, #-1028]	; 0x404
  b0:	00018e02 	andeq	r8, r1, r2, lsl #28
  b4:	00000014 	andeq	r0, r0, r4, lsl r0
  b8:	00000030 	andeq	r0, r0, r0, lsr r0
  bc:	00008240 	andeq	r8, r0, r0, asr #4
  c0:	00000048 	andeq	r0, r0, r8, asr #32
  c4:	84080e42 	strhi	r0, [r8], #-3650	; 0xe42
  c8:	00018e02 	andeq	r8, r1, r2, lsl #28
  cc:	0000000c 	andeq	r0, r0, ip
  d0:	ffffffff 			; <UNDEFINED> instruction: 0xffffffff
  d4:	7c020001 	stcvc	0, cr0, [r2], {1}
  d8:	000d0c0e 	andeq	r0, sp, lr, lsl #24
  dc:	00000024 	andeq	r0, r0, r4, lsr #32
  e0:	000000cc 	andeq	r0, r0, ip, asr #1
  e4:	00008288 	andeq	r8, r0, r8, lsl #5
  e8:	00000058 	andeq	r0, r0, r8, asr r0
  ec:	80100e42 	andshi	r0, r0, r2, asr #28
  f0:	82038104 	andhi	r8, r3, #4, 2
  f4:	42018302 	andmi	r8, r1, #134217728	; 0x8000000
  f8:	07841c0e 	streq	r1, [r4, lr, lsl #24]
  fc:	058e0685 	streq	r0, [lr, #1669]	; 0x685
 100:	00280e42 	eoreq	r0, r8, r2, asr #28
 104:	0000000c 	andeq	r0, r0, ip
 108:	ffffffff 			; <UNDEFINED> instruction: 0xffffffff
 10c:	7c020001 	stcvc	0, cr0, [r2], {1}
 110:	000d0c0e 	andeq	r0, sp, lr, lsl #24
 114:	00000018 	andeq	r0, r0, r8, lsl r0
 118:	00000104 	andeq	r0, r0, r4, lsl #2
 11c:	000082e0 	andeq	r8, r0, r0, ror #5
 120:	00000034 	andeq	r0, r0, r4, lsr r0
 124:	83100e42 	tsthi	r0, #1056	; 0x420
 128:	85038404 	strhi	r8, [r3, #-1028]	; 0x404
 12c:	00018e02 	andeq	r8, r1, r2, lsl #28
 130:	0000000c 	andeq	r0, r0, ip
 134:	ffffffff 			; <UNDEFINED> instruction: 0xffffffff
 138:	7c020001 	stcvc	0, cr0, [r2], {1}
 13c:	000d0c0e 	andeq	r0, sp, lr, lsl #24
 140:	0000000c 	andeq	r0, r0, ip
 144:	00000130 	andeq	r0, r0, r0, lsr r1
 148:	00008314 	andeq	r8, r0, r4, lsl r3
 14c:	00000014 	andeq	r0, r0, r4, lsl r0
 150:	0000000c 	andeq	r0, r0, ip
 154:	00000130 	andeq	r0, r0, r0, lsr r1
 158:	00008328 	andeq	r8, r0, r8, lsr #6
 15c:	0000002c 	andeq	r0, r0, ip, lsr #32
 160:	0000000c 	andeq	r0, r0, ip
 164:	00000130 	andeq	r0, r0, r0, lsr r1
 168:	00008354 	andeq	r8, r0, r4, asr r3
 16c:	00000040 	andeq	r0, r0, r0, asr #32
 170:	00000020 	andeq	r0, r0, r0, lsr #32
 174:	00000130 	andeq	r0, r0, r0, lsr r1
 178:	00008394 	muleq	r0, r4, r3
 17c:	0000019c 	muleq	r0, ip, r1
 180:	84180e42 	ldrhi	r0, [r8], #-3650	; 0xe42
 184:	86058506 	strhi	r8, [r5], -r6, lsl #10
 188:	88038704 	stmdahi	r3, {r2, r8, r9, sl, pc}
 18c:	42018e02 	andmi	r8, r1, #2, 28
 190:	0000580e 	andeq	r5, r0, lr, lsl #16
 194:	00000014 	andeq	r0, r0, r4, lsl r0
 198:	00000130 	andeq	r0, r0, r0, lsr r1
 19c:	00008530 	andeq	r8, r0, r0, lsr r5
 1a0:	00000054 	andeq	r0, r0, r4, asr r0
 1a4:	83080e42 	movwhi	r0, #36418	; 0x8e42
 1a8:	00018e02 	andeq	r8, r1, r2, lsl #28
 1ac:	00000028 	andeq	r0, r0, r8, lsr #32
 1b0:	00000130 	andeq	r0, r0, r0, lsr r1
 1b4:	00008584 	andeq	r8, r0, r4, lsl #11
 1b8:	00000288 	andeq	r0, r0, r8, lsl #5
 1bc:	84240e42 	strthi	r0, [r4], #-3650	; 0xe42
 1c0:	86088509 	strhi	r8, [r8], -r9, lsl #10
 1c4:	88068707 	stmdahi	r6, {r0, r1, r2, r8, r9, sl, pc}
 1c8:	8a048905 	bhi	1225e4 <__bss_end__+0x118ee4>
 1cc:	8e028b03 	vmlahi.f64	d8, d2, d3
 1d0:	b00e4201 	andlt	r4, lr, r1, lsl #4
 1d4:	00000001 	andeq	r0, r0, r1
 1d8:	0000000c 	andeq	r0, r0, ip
 1dc:	ffffffff 			; <UNDEFINED> instruction: 0xffffffff
 1e0:	7c020001 	stcvc	0, cr0, [r2], {1}
 1e4:	000d0c0e 	andeq	r0, sp, lr, lsl #24
 1e8:	00000014 	andeq	r0, r0, r4, lsl r0
 1ec:	000001d8 	ldrdeq	r0, [r0], -r8
 1f0:	0000880c 	andeq	r8, r0, ip, lsl #16
 1f4:	00000028 	andeq	r0, r0, r8, lsr #32
 1f8:	83080e42 	movwhi	r0, #36418	; 0x8e42
 1fc:	00018e02 	andeq	r8, r1, r2, lsl #28
 200:	0000000c 	andeq	r0, r0, ip
 204:	ffffffff 			; <UNDEFINED> instruction: 0xffffffff
 208:	7c020001 	stcvc	0, cr0, [r2], {1}
 20c:	000d0c0e 	andeq	r0, sp, lr, lsl #24
 210:	00000014 	andeq	r0, r0, r4, lsl r0
 214:	00000200 	andeq	r0, r0, r0, lsl #4
 218:	00008834 	andeq	r8, r0, r4, lsr r8
 21c:	00000034 	andeq	r0, r0, r4, lsr r0
 220:	83080e42 	movwhi	r0, #36418	; 0x8e42
 224:	00018e02 	andeq	r8, r1, r2, lsl #28
 228:	0000000c 	andeq	r0, r0, ip
 22c:	ffffffff 			; <UNDEFINED> instruction: 0xffffffff
 230:	7c020001 	stcvc	0, cr0, [r2], {1}
 234:	000d0c0e 	andeq	r0, sp, lr, lsl #24
 238:	0000000c 	andeq	r0, r0, ip
 23c:	00000228 	andeq	r0, r0, r8, lsr #4
 240:	00008868 	andeq	r8, r0, r8, ror #16
 244:	00000018 	andeq	r0, r0, r8, lsl r0
 248:	0000000c 	andeq	r0, r0, ip
 24c:	00000228 	andeq	r0, r0, r8, lsr #4
 250:	00008880 	andeq	r8, r0, r0, lsl #17
 254:	00000014 	andeq	r0, r0, r4, lsl r0
 258:	00000014 	andeq	r0, r0, r4, lsl r0
 25c:	00000228 	andeq	r0, r0, r8, lsr #4
 260:	00008894 	muleq	r0, r4, r8
 264:	00000048 	andeq	r0, r0, r8, asr #32
 268:	83080e42 	movwhi	r0, #36418	; 0x8e42
 26c:	00018e02 	andeq	r8, r1, r2, lsl #28
 270:	0000000c 	andeq	r0, r0, ip
 274:	ffffffff 			; <UNDEFINED> instruction: 0xffffffff
 278:	7c020001 	stcvc	0, cr0, [r2], {1}
 27c:	000d0c0e 	andeq	r0, sp, lr, lsl #24
 280:	0000000c 	andeq	r0, r0, ip
 284:	00000270 	andeq	r0, r0, r0, ror r2
 288:	000088dc 	ldrdeq	r8, [r0], -ip
 28c:	0000001c 	andeq	r0, r0, ip, lsl r0
 290:	00000014 	andeq	r0, r0, r4, lsl r0
 294:	00000270 	andeq	r0, r0, r0, ror r2
 298:	000088f8 	strdeq	r8, [r0], -r8	; <UNPREDICTABLE>
 29c:	00000014 	andeq	r0, r0, r4, lsl r0
 2a0:	83080e42 	movwhi	r0, #36418	; 0x8e42
 2a4:	00018e02 	andeq	r8, r1, r2, lsl #28
 2a8:	00000014 	andeq	r0, r0, r4, lsl r0
 2ac:	00000270 	andeq	r0, r0, r0, ror r2
 2b0:	0000890c 	andeq	r8, r0, ip, lsl #18
 2b4:	0000000c 	andeq	r0, r0, ip
 2b8:	83080e42 	movwhi	r0, #36418	; 0x8e42
 2bc:	00018e02 	andeq	r8, r1, r2, lsl #28
 2c0:	00000018 	andeq	r0, r0, r8, lsl r0
 2c4:	00000270 	andeq	r0, r0, r0, ror r2
 2c8:	00008918 	andeq	r8, r0, r8, lsl r9
 2cc:	00000024 	andeq	r0, r0, r4, lsr #32
 2d0:	83100e42 	tsthi	r0, #1056	; 0x420
 2d4:	85038404 	strhi	r8, [r3, #-1028]	; 0x404
 2d8:	00018e02 	andeq	r8, r1, r2, lsl #28
 2dc:	00000014 	andeq	r0, r0, r4, lsl r0
 2e0:	00000270 	andeq	r0, r0, r0, ror r2
 2e4:	0000893c 	andeq	r8, r0, ip, lsr r9
 2e8:	00000014 	andeq	r0, r0, r4, lsl r0
 2ec:	83080e42 	movwhi	r0, #36418	; 0x8e42
 2f0:	00018e02 	andeq	r8, r1, r2, lsl #28
 2f4:	00000014 	andeq	r0, r0, r4, lsl r0
 2f8:	00000270 	andeq	r0, r0, r0, ror r2
 2fc:	00008950 	andeq	r8, r0, r0, asr r9
 300:	00000014 	andeq	r0, r0, r4, lsl r0
 304:	83080e42 	movwhi	r0, #36418	; 0x8e42
 308:	00018e02 	andeq	r8, r1, r2, lsl #28
 30c:	0000000c 	andeq	r0, r0, ip
 310:	ffffffff 			; <UNDEFINED> instruction: 0xffffffff
 314:	7c020001 	stcvc	0, cr0, [r2], {1}
 318:	000d0c0e 	andeq	r0, sp, lr, lsl #24
 31c:	00000018 	andeq	r0, r0, r8, lsl r0
 320:	0000030c 	andeq	r0, r0, ip, lsl #6
 324:	00008964 	andeq	r8, r0, r4, ror #18
 328:	000000d4 	ldrdeq	r0, [r0], -r4
 32c:	83100e42 	tsthi	r0, #1056	; 0x420
 330:	85038404 	strhi	r8, [r3, #-1028]	; 0x404
 334:	00018e02 	andeq	r8, r1, r2, lsl #28
 338:	00000014 	andeq	r0, r0, r4, lsl r0
 33c:	0000030c 	andeq	r0, r0, ip, lsl #6
 340:	00008a38 	andeq	r8, r0, r8, lsr sl
 344:	00000038 	andeq	r0, r0, r8, lsr r0
 348:	83080e42 	movwhi	r0, #36418	; 0x8e42
 34c:	00018e02 	andeq	r8, r1, r2, lsl #28
 350:	00000014 	andeq	r0, r0, r4, lsl r0
 354:	0000030c 	andeq	r0, r0, ip, lsl #6
 358:	00008a70 	andeq	r8, r0, r0, ror sl
 35c:	00000038 	andeq	r0, r0, r8, lsr r0
 360:	83080e42 	movwhi	r0, #36418	; 0x8e42
 364:	00018e02 	andeq	r8, r1, r2, lsl #28
 368:	00000018 	andeq	r0, r0, r8, lsl r0
 36c:	0000030c 	andeq	r0, r0, ip, lsl #6
 370:	00008aa8 	andeq	r8, r0, r8, lsr #21
 374:	000000cc 	andeq	r0, r0, ip, asr #1
 378:	83100e42 	tsthi	r0, #1056	; 0x420
 37c:	85038404 	strhi	r8, [r3, #-1028]	; 0x404
 380:	00018e02 	andeq	r8, r1, r2, lsl #28
 384:	00000014 	andeq	r0, r0, r4, lsl r0
 388:	0000030c 	andeq	r0, r0, ip, lsl #6
 38c:	00008b74 	andeq	r8, r0, r4, ror fp
 390:	0000004c 	andeq	r0, r0, ip, asr #32
 394:	84080e42 	strhi	r0, [r8], #-3650	; 0xe42
 398:	00018e02 	andeq	r8, r1, r2, lsl #28
 39c:	00000014 	andeq	r0, r0, r4, lsl r0
 3a0:	0000030c 	andeq	r0, r0, ip, lsl #6
 3a4:	00008bc0 	andeq	r8, r0, r0, asr #23
 3a8:	00000024 	andeq	r0, r0, r4, lsr #32
 3ac:	83080e42 	movwhi	r0, #36418	; 0x8e42
 3b0:	00018e02 	andeq	r8, r1, r2, lsl #28
 3b4:	00000018 	andeq	r0, r0, r8, lsl r0
 3b8:	0000030c 	andeq	r0, r0, ip, lsl #6
 3bc:	00008be4 	andeq	r8, r0, r4, ror #23
 3c0:	000000d8 	ldrdeq	r0, [r0], -r8
 3c4:	84100e42 	ldrhi	r0, [r0], #-3650	; 0xe42
 3c8:	86038504 	strhi	r8, [r3], -r4, lsl #10
 3cc:	00018e02 	andeq	r8, r1, r2, lsl #28
 3d0:	00000014 	andeq	r0, r0, r4, lsl r0
 3d4:	0000030c 	andeq	r0, r0, ip, lsl #6
 3d8:	00008cbc 			; <UNDEFINED> instruction: 0x00008cbc
 3dc:	00000038 	andeq	r0, r0, r8, lsr r0
 3e0:	83080e42 	movwhi	r0, #36418	; 0x8e42
 3e4:	00018e02 	andeq	r8, r1, r2, lsl #28
 3e8:	00000014 	andeq	r0, r0, r4, lsl r0
 3ec:	0000030c 	andeq	r0, r0, ip, lsl #6
 3f0:	00008cf4 	strdeq	r8, [r0], -r4
 3f4:	0000002c 	andeq	r0, r0, ip, lsr #32
 3f8:	83080e42 	movwhi	r0, #36418	; 0x8e42
 3fc:	00018e02 	andeq	r8, r1, r2, lsl #28
 400:	00000018 	andeq	r0, r0, r8, lsl r0
 404:	0000030c 	andeq	r0, r0, ip, lsl #6
 408:	00008d20 	andeq	r8, r0, r0, lsr #26
 40c:	00000084 	andeq	r0, r0, r4, lsl #1
 410:	83100e42 	tsthi	r0, #1056	; 0x420
 414:	85038404 	strhi	r8, [r3, #-1028]	; 0x404
 418:	00018e02 	andeq	r8, r1, r2, lsl #28
 41c:	00000018 	andeq	r0, r0, r8, lsl r0
 420:	0000030c 	andeq	r0, r0, ip, lsl #6
 424:	00008da4 	andeq	r8, r0, r4, lsr #27
 428:	00000084 	andeq	r0, r0, r4, lsl #1
 42c:	83100e42 	tsthi	r0, #1056	; 0x420
 430:	85038404 	strhi	r8, [r3, #-1028]	; 0x404
 434:	00018e02 	andeq	r8, r1, r2, lsl #28
 438:	00000014 	andeq	r0, r0, r4, lsl r0
 43c:	0000030c 	andeq	r0, r0, ip, lsl #6
 440:	00008e28 	andeq	r8, r0, r8, lsr #28
 444:	00000084 	andeq	r0, r0, r4, lsl #1
 448:	84080e42 	strhi	r0, [r8], #-3650	; 0xe42
 44c:	00018e02 	andeq	r8, r1, r2, lsl #28
 450:	00000014 	andeq	r0, r0, r4, lsl r0
 454:	0000030c 	andeq	r0, r0, ip, lsl #6
 458:	00008eac 	andeq	r8, r0, ip, lsr #29
 45c:	00000058 	andeq	r0, r0, r8, asr r0
 460:	84080e42 	strhi	r0, [r8], #-3650	; 0xe42
 464:	00018e02 	andeq	r8, r1, r2, lsl #28
 468:	0000000c 	andeq	r0, r0, ip
 46c:	ffffffff 			; <UNDEFINED> instruction: 0xffffffff
 470:	7c020001 	stcvc	0, cr0, [r2], {1}
 474:	000d0c0e 	andeq	r0, sp, lr, lsl #24
 478:	00000018 	andeq	r0, r0, r8, lsl r0
 47c:	00000468 	andeq	r0, r0, r8, ror #8
 480:	00008f04 	andeq	r8, r0, r4, lsl #30
 484:	0000009c 	muleq	r0, ip, r0
 488:	83100e42 	tsthi	r0, #1056	; 0x420
 48c:	85038404 	strhi	r8, [r3, #-1028]	; 0x404
 490:	00018e02 	andeq	r8, r1, r2, lsl #28
 494:	00000014 	andeq	r0, r0, r4, lsl r0
 498:	00000468 	andeq	r0, r0, r8, ror #8
 49c:	00008fa0 	andeq	r8, r0, r0, lsr #31
 4a0:	0000001c 	andeq	r0, r0, ip, lsl r0
 4a4:	83080e42 	movwhi	r0, #36418	; 0x8e42
 4a8:	00018e02 	andeq	r8, r1, r2, lsl #28
 4ac:	00000014 	andeq	r0, r0, r4, lsl r0
 4b0:	00000468 	andeq	r0, r0, r8, ror #8
 4b4:	00008fbc 			; <UNDEFINED> instruction: 0x00008fbc
 4b8:	00000028 	andeq	r0, r0, r8, lsr #32
 4bc:	83080e42 	movwhi	r0, #36418	; 0x8e42
 4c0:	00018e02 	andeq	r8, r1, r2, lsl #28
 4c4:	00000014 	andeq	r0, r0, r4, lsl r0
 4c8:	00000468 	andeq	r0, r0, r8, ror #8
 4cc:	00008fe4 	andeq	r8, r0, r4, ror #31
 4d0:	0000001c 	andeq	r0, r0, ip, lsl r0
 4d4:	83080e42 	movwhi	r0, #36418	; 0x8e42
 4d8:	00018e02 	andeq	r8, r1, r2, lsl #28
 4dc:	00000014 	andeq	r0, r0, r4, lsl r0
 4e0:	00000468 	andeq	r0, r0, r8, ror #8
 4e4:	00009000 	andeq	r9, r0, r0
 4e8:	0000002c 	andeq	r0, r0, ip, lsr #32
 4ec:	84080e42 	strhi	r0, [r8], #-3650	; 0xe42
 4f0:	00018e02 	andeq	r8, r1, r2, lsl #28
 4f4:	00000014 	andeq	r0, r0, r4, lsl r0
 4f8:	00000468 	andeq	r0, r0, r8, ror #8
 4fc:	0000902c 	andeq	r9, r0, ip, lsr #32
 500:	0000000c 	andeq	r0, r0, ip
 504:	83080e42 	movwhi	r0, #36418	; 0x8e42
 508:	00018e02 	andeq	r8, r1, r2, lsl #28
 50c:	00000014 	andeq	r0, r0, r4, lsl r0
 510:	00000468 	andeq	r0, r0, r8, ror #8
 514:	00009038 	andeq	r9, r0, r8, lsr r0
 518:	00000020 	andeq	r0, r0, r0, lsr #32
 51c:	83080e42 	movwhi	r0, #36418	; 0x8e42
 520:	00018e02 	andeq	r8, r1, r2, lsl #28
 524:	0000000c 	andeq	r0, r0, ip
 528:	ffffffff 			; <UNDEFINED> instruction: 0xffffffff
 52c:	7c020001 	stcvc	0, cr0, [r2], {1}
 530:	000d0c0e 	andeq	r0, sp, lr, lsl #24
 534:	00000014 	andeq	r0, r0, r4, lsl r0
 538:	00000524 	andeq	r0, r0, r4, lsr #10
 53c:	000090bc 	strheq	r9, [r0], -ip
 540:	00000014 	andeq	r0, r0, r4, lsl r0
 544:	84080e42 	strhi	r0, [r8], #-3650	; 0xe42
 548:	00018e02 	andeq	r8, r1, r2, lsl #28
 54c:	0000000c 	andeq	r0, r0, ip
 550:	00000524 	andeq	r0, r0, r4, lsr #10
 554:	000090d0 	ldrdeq	r9, [r0], -r0
 558:	00000018 	andeq	r0, r0, r8, lsl r0
 55c:	0000000c 	andeq	r0, r0, ip
 560:	00000524 	andeq	r0, r0, r4, lsr #10
 564:	000090e8 	andeq	r9, r0, r8, ror #1
 568:	00000010 	andeq	r0, r0, r0, lsl r0

Disassembly of section .debug_ranges:

00000000 <.debug_ranges>:
   0:	00000294 	muleq	r0, r4, r2
   4:	00000298 	muleq	r0, r8, r2
   8:	000002c8 	andeq	r0, r0, r8, asr #5
   c:	000004b8 			; <UNDEFINED> instruction: 0x000004b8
	...
  18:	00008868 	andeq	r8, r0, r8, ror #16
  1c:	000088dc 	ldrdeq	r8, [r0], -ip
	...
