
part1-test3.elf:     file format elf32-littlearm


Disassembly of section .text:

00008000 <_start>:
    8000:	e3a0d302 	mov	sp, #134217728	; 0x8000000
    8004:	e3a0b000 	mov	fp, #0
    8008:	eb0003d1 	bl	8f54 <_cstart>
    800c:	eb0003e8 	bl	8fb4 <rpi_reboot>

00008010 <notmain>:
    8010:	e92d4070 	push	{r4, r5, r6, lr}
    8014:	e24dd008 	sub	sp, sp, #8
    8018:	e59f00a8 	ldr	r0, [pc, #168]	; 80c8 <notmain+0xb8>
    801c:	eb00024d 	bl	8958 <printk>
    8020:	e3a00601 	mov	r0, #1048576	; 0x100000
    8024:	eb0004d6 	bl	9384 <kmalloc_init_set_start>
    8028:	e3a00601 	mov	r0, #1048576	; 0x100000
    802c:	eb0004e8 	bl	93d4 <kmalloc>
    8030:	e3a01601 	mov	r1, #1048576	; 0x100000
    8034:	eb0000d1 	bl	8380 <ck_init>
    8038:	e59f608c 	ldr	r6, [pc, #140]	; 80cc <notmain+0xbc>
    803c:	e59f508c 	ldr	r5, [pc, #140]	; 80d0 <notmain+0xc0>
    8040:	e3a00004 	mov	r0, #4
    8044:	e1a01006 	mov	r1, r6
    8048:	e1a02005 	mov	r2, r5
    804c:	e3a0300d 	mov	r3, #13
    8050:	eb000117 	bl	84b4 <ckalloc>
    8054:	e1a04000 	mov	r4, r0
    8058:	e3a01000 	mov	r1, #0
    805c:	e3a02004 	mov	r2, #4
    8060:	eb000234 	bl	8938 <memset>
    8064:	e1a00004 	mov	r0, r4
    8068:	e1a01006 	mov	r1, r6
    806c:	e1a02005 	mov	r2, r5
    8070:	e3a0300f 	mov	r3, #15
    8074:	eb0000de 	bl	83f4 <ckfree>
    8078:	e3a03001 	mov	r3, #1
    807c:	e5c43000 	strb	r3, [r4]
    8080:	eb00019e 	bl	8700 <ck_heap_errors>
    8084:	e1a04000 	mov	r4, r0
    8088:	e3500001 	cmp	r0, #1
    808c:	0a000007 	beq	80b0 <notmain+0xa0>
    8090:	eb00024b 	bl	89c4 <rpi_reset_putc>
    8094:	e58d4000 	str	r4, [sp]
    8098:	e59f0034 	ldr	r0, [pc, #52]	; 80d4 <notmain+0xc4>
    809c:	e1a01006 	mov	r1, r6
    80a0:	e1a02005 	mov	r2, r5
    80a4:	e3a03014 	mov	r3, #20
    80a8:	eb00022a 	bl	8958 <printk>
    80ac:	eb00039e 	bl	8f2c <clean_reboot>
    80b0:	e59f0020 	ldr	r0, [pc, #32]	; 80d8 <notmain+0xc8>
    80b4:	eb000227 	bl	8958 <printk>
    80b8:	e59f001c 	ldr	r0, [pc, #28]	; 80dc <notmain+0xcc>
    80bc:	eb000225 	bl	8958 <printk>
    80c0:	e28dd008 	add	sp, sp, #8
    80c4:	e8bd8070 	pop	{r4, r5, r6, pc}
    80c8:	0000952c 	andeq	r9, r0, ip, lsr #10
    80cc:	00009544 	andeq	r9, r0, r4, asr #10
    80d0:	00009524 	andeq	r9, r0, r4, lsr #10
    80d4:	00009554 	andeq	r9, r0, r4, asr r5
    80d8:	00009590 	muleq	r0, r0, r5
    80dc:	00009598 	muleq	r0, r8, r5

000080e0 <b_rz1_ptr>:
    80e0:	e2800038 	add	r0, r0, #56	; 0x38
    80e4:	e12fff1e 	bx	lr

000080e8 <b_alloc_ptr>:
    80e8:	e92d4008 	push	{r3, lr}
    80ec:	ebfffffb 	bl	80e0 <b_rz1_ptr>
    80f0:	e2800080 	add	r0, r0, #128	; 0x80
    80f4:	e8bd8008 	pop	{r3, pc}

000080f8 <b_rz2_ptr>:
    80f8:	e92d4010 	push	{r4, lr}
    80fc:	e1a04000 	mov	r4, r0
    8100:	ebfffff8 	bl	80e8 <b_alloc_ptr>
    8104:	e5943000 	ldr	r3, [r4]
    8108:	e0800003 	add	r0, r0, r3
    810c:	e8bd8010 	pop	{r4, pc}

00008110 <b_rz2_nbytes>:
    8110:	e5900004 	ldr	r0, [r0, #4]
    8114:	e2800080 	add	r0, r0, #128	; 0x80
    8118:	e12fff1e 	bx	lr

0000811c <b_addr_to_hdr>:
    811c:	e24000b8 	sub	r0, r0, #184	; 0xb8
    8120:	e12fff1e 	bx	lr

00008124 <check_mem>:
    8124:	e92d40f8 	push	{r3, r4, r5, r6, r7, lr}
    8128:	e1a05000 	mov	r5, r0
    812c:	e3a03000 	mov	r3, #0
    8130:	ea00002f 	b	81f4 <check_mem+0xd0>
    8134:	e0814003 	add	r4, r1, r3
    8138:	e7d1c003 	ldrb	ip, [r1, r3]
    813c:	e35c00fe 	cmp	ip, #254	; 0xfe
    8140:	0a00002a 	beq	81f0 <check_mem+0xcc>
    8144:	e1a00005 	mov	r0, r5
    8148:	ebffffe6 	bl	80e8 <b_alloc_ptr>
    814c:	e1a07000 	mov	r7, r0
    8150:	e0604004 	rsb	r4, r0, r4
    8154:	e59f60b8 	ldr	r6, [pc, #184]	; 8214 <check_mem+0xf0>
    8158:	e1a00006 	mov	r0, r6
    815c:	eb0001fd 	bl	8958 <printk>
    8160:	e59f00b0 	ldr	r0, [pc, #176]	; 8218 <check_mem+0xf4>
    8164:	eb0001fb 	bl	8958 <printk>
    8168:	e59f00ac 	ldr	r0, [pc, #172]	; 821c <check_mem+0xf8>
    816c:	e1a01007 	mov	r1, r7
    8170:	e1a02004 	mov	r2, r4
    8174:	eb0001f7 	bl	8958 <printk>
    8178:	e1a00006 	mov	r0, r6
    817c:	eb0001f5 	bl	8958 <printk>
    8180:	e59f0098 	ldr	r0, [pc, #152]	; 8220 <check_mem+0xfc>
    8184:	e5951000 	ldr	r1, [r5]
    8188:	eb0001f2 	bl	8958 <printk>
    818c:	e5953010 	ldr	r3, [r5, #16]
    8190:	e3530000 	cmp	r3, #0
    8194:	0a000006 	beq	81b4 <check_mem+0x90>
    8198:	e1a00006 	mov	r0, r6
    819c:	eb0001ed 	bl	8958 <printk>
    81a0:	e59f007c 	ldr	r0, [pc, #124]	; 8224 <check_mem+0x100>
    81a4:	e5951010 	ldr	r1, [r5, #16]
    81a8:	e5952014 	ldr	r2, [r5, #20]
    81ac:	e5953018 	ldr	r3, [r5, #24]
    81b0:	eb0001e8 	bl	8958 <printk>
    81b4:	e5953008 	ldr	r3, [r5, #8]
    81b8:	e353000c 	cmp	r3, #12
    81bc:	1a000010 	bne	8204 <check_mem+0xe0>
    81c0:	e595301c 	ldr	r3, [r5, #28]
    81c4:	e3530000 	cmp	r3, #0
    81c8:	0a00000f 	beq	820c <check_mem+0xe8>
    81cc:	e59f0040 	ldr	r0, [pc, #64]	; 8214 <check_mem+0xf0>
    81d0:	eb0001e0 	bl	8958 <printk>
    81d4:	e59f004c 	ldr	r0, [pc, #76]	; 8228 <check_mem+0x104>
    81d8:	e595101c 	ldr	r1, [r5, #28]
    81dc:	e5952020 	ldr	r2, [r5, #32]
    81e0:	e5953024 	ldr	r3, [r5, #36]	; 0x24
    81e4:	eb0001db 	bl	8958 <printk>
    81e8:	e3a00000 	mov	r0, #0
    81ec:	e8bd80f8 	pop	{r3, r4, r5, r6, r7, pc}
    81f0:	e2833001 	add	r3, r3, #1
    81f4:	e1530002 	cmp	r3, r2
    81f8:	3affffcd 	bcc	8134 <check_mem+0x10>
    81fc:	e3a00001 	mov	r0, #1
    8200:	e8bd80f8 	pop	{r3, r4, r5, r6, r7, pc}
    8204:	e3a00000 	mov	r0, #0
    8208:	e8bd80f8 	pop	{r3, r4, r5, r6, r7, pc}
    820c:	e3a00000 	mov	r0, #0
    8210:	e8bd80f8 	pop	{r3, r4, r5, r6, r7, pc}
    8214:	00009590 	muleq	r0, r0, r5
    8218:	000095dc 	ldrdeq	r9, [r0], -ip
    821c:	000095e4 	andeq	r9, r0, r4, ror #11
    8220:	00009608 	andeq	r9, r0, r8, lsl #12
    8224:	00009614 	andeq	r9, r0, r4, lsl r6
    8228:	00009634 	andeq	r9, r0, r4, lsr r6

0000822c <mark_mem>:
    822c:	e92d4008 	push	{r3, lr}
    8230:	e1a02001 	mov	r2, r1
    8234:	e3a010fe 	mov	r1, #254	; 0xfe
    8238:	eb0001be 	bl	8938 <memset>
    823c:	e8bd8008 	pop	{r3, pc}

00008240 <hdr_cksum>:
    8240:	e92d4038 	push	{r3, r4, r5, lr}
    8244:	e1a04000 	mov	r4, r0
    8248:	e590500c 	ldr	r5, [r0, #12]
    824c:	e3a03000 	mov	r3, #0
    8250:	e580300c 	str	r3, [r0, #12]
    8254:	e3a01038 	mov	r1, #56	; 0x38
    8258:	eb00017a 	bl	8848 <fast_hash>
    825c:	e584500c 	str	r5, [r4, #12]
    8260:	e8bd8038 	pop	{r3, r4, r5, pc}

00008264 <check_hdr>:
    8264:	e92d4038 	push	{r3, r4, r5, lr}
    8268:	e1a04000 	mov	r4, r0
    826c:	ebfffff3 	bl	8240 <hdr_cksum>
    8270:	e1a05000 	mov	r5, r0
    8274:	e59f006c 	ldr	r0, [pc, #108]	; 82e8 <check_hdr+0x84>
    8278:	e1a01005 	mov	r1, r5
    827c:	eb0001b5 	bl	8958 <printk>
    8280:	e59f0064 	ldr	r0, [pc, #100]	; 82ec <check_hdr+0x88>
    8284:	e594100c 	ldr	r1, [r4, #12]
    8288:	eb0001b2 	bl	8958 <printk>
    828c:	e594300c 	ldr	r3, [r4, #12]
    8290:	e1530005 	cmp	r3, r5
    8294:	0a000006 	beq	82b4 <check_hdr+0x50>
    8298:	eb0001c9 	bl	89c4 <rpi_reset_putc>
    829c:	e59f004c 	ldr	r0, [pc, #76]	; 82f0 <check_hdr+0x8c>
    82a0:	e59f104c 	ldr	r1, [pc, #76]	; 82f4 <check_hdr+0x90>
    82a4:	e59f204c 	ldr	r2, [pc, #76]	; 82f8 <check_hdr+0x94>
    82a8:	e3a0302e 	mov	r3, #46	; 0x2e
    82ac:	eb0001a9 	bl	8958 <printk>
    82b0:	eb00031d 	bl	8f2c <clean_reboot>
    82b4:	e5943008 	ldr	r3, [r4, #8]
    82b8:	e243300b 	sub	r3, r3, #11
    82bc:	e3530001 	cmp	r3, #1
    82c0:	9a000006 	bls	82e0 <check_hdr+0x7c>
    82c4:	eb0001be 	bl	89c4 <rpi_reset_putc>
    82c8:	e59f002c 	ldr	r0, [pc, #44]	; 82fc <check_hdr+0x98>
    82cc:	e59f1020 	ldr	r1, [pc, #32]	; 82f4 <check_hdr+0x90>
    82d0:	e59f2020 	ldr	r2, [pc, #32]	; 82f8 <check_hdr+0x94>
    82d4:	e3a0302f 	mov	r3, #47	; 0x2f
    82d8:	eb00019e 	bl	8958 <printk>
    82dc:	eb000312 	bl	8f2c <clean_reboot>
    82e0:	e3a00001 	mov	r0, #1
    82e4:	e8bd8038 	pop	{r3, r4, r5, pc}
    82e8:	00009650 	andeq	r9, r0, r0, asr r6
    82ec:	00009664 	andeq	r9, r0, r4, ror #12
    82f0:	00009674 	andeq	r9, r0, r4, ror r6
    82f4:	000096a0 	andeq	r9, r0, r0, lsr #13
    82f8:	000095b8 			; <UNDEFINED> instruction: 0x000095b8
    82fc:	000096ac 	andeq	r9, r0, ip, lsr #13

00008300 <check_block>:
    8300:	e92d4038 	push	{r3, r4, r5, lr}
    8304:	e1a04000 	mov	r4, r0
    8308:	ebffffd5 	bl	8264 <check_hdr>
    830c:	e3500000 	cmp	r0, #0
    8310:	0a000014 	beq	8368 <check_block+0x68>
    8314:	e1a00004 	mov	r0, r4
    8318:	ebffff70 	bl	80e0 <b_rz1_ptr>
    831c:	e1a01000 	mov	r1, r0
    8320:	e1a00004 	mov	r0, r4
    8324:	e3a02080 	mov	r2, #128	; 0x80
    8328:	ebffff7d 	bl	8124 <check_mem>
    832c:	e3500000 	cmp	r0, #0
    8330:	0a00000e 	beq	8370 <check_block+0x70>
    8334:	e1a00004 	mov	r0, r4
    8338:	ebffff6e 	bl	80f8 <b_rz2_ptr>
    833c:	e1a05000 	mov	r5, r0
    8340:	e1a00004 	mov	r0, r4
    8344:	ebffff71 	bl	8110 <b_rz2_nbytes>
    8348:	e1a02000 	mov	r2, r0
    834c:	e1a00004 	mov	r0, r4
    8350:	e1a01005 	mov	r1, r5
    8354:	ebffff72 	bl	8124 <check_mem>
    8358:	e3500000 	cmp	r0, #0
    835c:	0a000005 	beq	8378 <check_block+0x78>
    8360:	e3a00001 	mov	r0, #1
    8364:	e8bd8038 	pop	{r3, r4, r5, pc}
    8368:	e3a00000 	mov	r0, #0
    836c:	e8bd8038 	pop	{r3, r4, r5, pc}
    8370:	e3a00000 	mov	r0, #0
    8374:	e8bd8038 	pop	{r3, r4, r5, pc}
    8378:	e3a00000 	mov	r0, #0
    837c:	e8bd8038 	pop	{r3, r4, r5, pc}

00008380 <ck_init>:
    8380:	e92d4038 	push	{r3, r4, r5, lr}
    8384:	e1a04000 	mov	r4, r0
    8388:	e1a05001 	mov	r5, r1
    838c:	e59f304c 	ldr	r3, [pc, #76]	; 83e0 <ck_init+0x60>
    8390:	e5933000 	ldr	r3, [r3]
    8394:	e3130007 	tst	r3, #7
    8398:	0a000006 	beq	83b8 <ck_init+0x38>
    839c:	eb000188 	bl	89c4 <rpi_reset_putc>
    83a0:	e59f003c 	ldr	r0, [pc, #60]	; 83e4 <ck_init+0x64>
    83a4:	e59f103c 	ldr	r1, [pc, #60]	; 83e8 <ck_init+0x68>
    83a8:	e59f203c 	ldr	r2, [pc, #60]	; 83ec <ck_init+0x6c>
    83ac:	e3a0300a 	mov	r3, #10
    83b0:	eb000168 	bl	8958 <printk>
    83b4:	eb0002dc 	bl	8f2c <clean_reboot>
    83b8:	e59f0030 	ldr	r0, [pc, #48]	; 83f0 <ck_init+0x70>
    83bc:	e3a01038 	mov	r1, #56	; 0x38
    83c0:	e3a02080 	mov	r2, #128	; 0x80
    83c4:	eb000163 	bl	8958 <printk>
    83c8:	e59f3010 	ldr	r3, [pc, #16]	; 83e0 <ck_init+0x60>
    83cc:	e5834000 	str	r4, [r3]
    83d0:	e5834004 	str	r4, [r3, #4]
    83d4:	e0844005 	add	r4, r4, r5
    83d8:	e5834008 	str	r4, [r3, #8]
    83dc:	e8bd8038 	pop	{r3, r4, r5, pc}
    83e0:	00009bb8 			; <UNDEFINED> instruction: 0x00009bb8
    83e4:	000096e8 	andeq	r9, r0, r8, ror #13
    83e8:	000096a0 	andeq	r9, r0, r0, lsr #13
    83ec:	000095c4 	andeq	r9, r0, r4, asr #11
    83f0:	00009710 	andeq	r9, r0, r0, lsl r7

000083f4 <ckfree>:
    83f4:	e92d41f0 	push	{r4, r5, r6, r7, r8, lr}
    83f8:	e1a05000 	mov	r5, r0
    83fc:	e1a08001 	mov	r8, r1
    8400:	e1a07002 	mov	r7, r2
    8404:	e1a06003 	mov	r6, r3
    8408:	e59f008c 	ldr	r0, [pc, #140]	; 849c <ckfree+0xa8>
    840c:	e5900004 	ldr	r0, [r0, #4]
    8410:	e3500000 	cmp	r0, #0
    8414:	1a000006 	bne	8434 <ckfree+0x40>
    8418:	eb000169 	bl	89c4 <rpi_reset_putc>
    841c:	e59f007c 	ldr	r0, [pc, #124]	; 84a0 <ckfree+0xac>
    8420:	e59f107c 	ldr	r1, [pc, #124]	; 84a4 <ckfree+0xb0>
    8424:	e59f207c 	ldr	r2, [pc, #124]	; 84a8 <ckfree+0xb4>
    8428:	e3a03057 	mov	r3, #87	; 0x57
    842c:	eb000149 	bl	8958 <printk>
    8430:	eb0002bd 	bl	8f2c <clean_reboot>
    8434:	e59f0070 	ldr	r0, [pc, #112]	; 84ac <ckfree+0xb8>
    8438:	eb000146 	bl	8958 <printk>
    843c:	e59f006c 	ldr	r0, [pc, #108]	; 84b0 <ckfree+0xbc>
    8440:	e1a01005 	mov	r1, r5
    8444:	eb000143 	bl	8958 <printk>
    8448:	e1a00005 	mov	r0, r5
    844c:	ebffff32 	bl	811c <b_addr_to_hdr>
    8450:	e1a04000 	mov	r4, r0
    8454:	ebffffa9 	bl	8300 <check_block>
    8458:	e3500000 	cmp	r0, #0
    845c:	08bd81f0 	popeq	{r4, r5, r6, r7, r8, pc}
    8460:	e5943008 	ldr	r3, [r4, #8]
    8464:	e353000c 	cmp	r3, #12
    8468:	08bd81f0 	popeq	{r4, r5, r6, r7, r8, pc}
    846c:	e3a0300c 	mov	r3, #12
    8470:	e5843008 	str	r3, [r4, #8]
    8474:	e1a00005 	mov	r0, r5
    8478:	e5941000 	ldr	r1, [r4]
    847c:	ebffff6a 	bl	822c <mark_mem>
    8480:	e584801c 	str	r8, [r4, #28]
    8484:	e5847020 	str	r7, [r4, #32]
    8488:	e5846024 	str	r6, [r4, #36]	; 0x24
    848c:	e1a00004 	mov	r0, r4
    8490:	ebffff6a 	bl	8240 <hdr_cksum>
    8494:	e584000c 	str	r0, [r4, #12]
    8498:	e8bd81f0 	pop	{r4, r5, r6, r7, r8, pc}
    849c:	00009bb8 			; <UNDEFINED> instruction: 0x00009bb8
    84a0:	0000972c 	andeq	r9, r0, ip, lsr #14
    84a4:	000096a0 	andeq	r9, r0, r0, lsr #13
    84a8:	000095cc 	andeq	r9, r0, ip, asr #11
    84ac:	00009590 	muleq	r0, r0, r5
    84b0:	00009760 	andeq	r9, r0, r0, ror #14

000084b4 <ckalloc>:
    84b4:	e92d43f0 	push	{r4, r5, r6, r7, r8, r9, lr}
    84b8:	e24dd00c 	sub	sp, sp, #12
    84bc:	e1a05000 	mov	r5, r0
    84c0:	e1a09001 	mov	r9, r1
    84c4:	e1a08002 	mov	r8, r2
    84c8:	e1a07003 	mov	r7, r3
    84cc:	e59f31f4 	ldr	r3, [pc, #500]	; 86c8 <ckalloc+0x214>
    84d0:	e5933004 	ldr	r3, [r3, #4]
    84d4:	e3530000 	cmp	r3, #0
    84d8:	1a000006 	bne	84f8 <ckalloc+0x44>
    84dc:	eb000138 	bl	89c4 <rpi_reset_putc>
    84e0:	e59f01e4 	ldr	r0, [pc, #484]	; 86cc <ckalloc+0x218>
    84e4:	e59f11e4 	ldr	r1, [pc, #484]	; 86d0 <ckalloc+0x21c>
    84e8:	e59f21e4 	ldr	r2, [pc, #484]	; 86d4 <ckalloc+0x220>
    84ec:	e3a03073 	mov	r3, #115	; 0x73
    84f0:	eb000118 	bl	8958 <printk>
    84f4:	eb00028c 	bl	8f2c <clean_reboot>
    84f8:	e59f01d8 	ldr	r0, [pc, #472]	; 86d8 <ckalloc+0x224>
    84fc:	eb000115 	bl	8958 <printk>
    8500:	e59f01d4 	ldr	r0, [pc, #468]	; 86dc <ckalloc+0x228>
    8504:	e1a01005 	mov	r1, r5
    8508:	eb000112 	bl	8958 <printk>
    850c:	e285c007 	add	ip, r5, #7
    8510:	e3ccc007 	bic	ip, ip, #7
    8514:	e28c6f4e 	add	r6, ip, #312	; 0x138
    8518:	e1560005 	cmp	r6, r5
    851c:	2a00000c 	bcs	8554 <ckalloc+0xa0>
    8520:	e59f01b8 	ldr	r0, [pc, #440]	; 86e0 <ckalloc+0x22c>
    8524:	eb00010b 	bl	8958 <printk>
    8528:	e59f01b4 	ldr	r0, [pc, #436]	; 86e4 <ckalloc+0x230>
    852c:	e1a01005 	mov	r1, r5
    8530:	eb000108 	bl	8958 <printk>
    8534:	eb000122 	bl	89c4 <rpi_reset_putc>
    8538:	e58d5000 	str	r5, [sp]
    853c:	e59f01a4 	ldr	r0, [pc, #420]	; 86e8 <ckalloc+0x234>
    8540:	e59f1188 	ldr	r1, [pc, #392]	; 86d0 <ckalloc+0x21c>
    8544:	e59f2188 	ldr	r2, [pc, #392]	; 86d4 <ckalloc+0x220>
    8548:	e3a0307b 	mov	r3, #123	; 0x7b
    854c:	eb000101 	bl	8958 <printk>
    8550:	eb000275 	bl	8f2c <clean_reboot>
    8554:	e59f016c 	ldr	r0, [pc, #364]	; 86c8 <ckalloc+0x214>
    8558:	e5904004 	ldr	r4, [r0, #4]
    855c:	e0842006 	add	r2, r4, r6
    8560:	e5903008 	ldr	r3, [r0, #8]
    8564:	e1520003 	cmp	r2, r3
    8568:	3a000014 	bcc	85c0 <ckalloc+0x10c>
    856c:	e59f016c 	ldr	r0, [pc, #364]	; 86e0 <ckalloc+0x22c>
    8570:	eb0000f8 	bl	8958 <printk>
    8574:	e59f414c 	ldr	r4, [pc, #332]	; 86c8 <ckalloc+0x214>
    8578:	e5941008 	ldr	r1, [r4, #8]
    857c:	e5943004 	ldr	r3, [r4, #4]
    8580:	e59f0164 	ldr	r0, [pc, #356]	; 86ec <ckalloc+0x238>
    8584:	e0631001 	rsb	r1, r3, r1
    8588:	e1a02006 	mov	r2, r6
    858c:	eb0000f1 	bl	8958 <printk>
    8590:	eb00010b 	bl	89c4 <rpi_reset_putc>
    8594:	e5942008 	ldr	r2, [r4, #8]
    8598:	e5943004 	ldr	r3, [r4, #4]
    859c:	e0633002 	rsb	r3, r3, r2
    85a0:	e58d3000 	str	r3, [sp]
    85a4:	e58d6004 	str	r6, [sp, #4]
    85a8:	e59f0140 	ldr	r0, [pc, #320]	; 86f0 <ckalloc+0x23c>
    85ac:	e59f111c 	ldr	r1, [pc, #284]	; 86d0 <ckalloc+0x21c>
    85b0:	e59f211c 	ldr	r2, [pc, #284]	; 86d4 <ckalloc+0x220>
    85b4:	e3a0307f 	mov	r3, #127	; 0x7f
    85b8:	eb0000e6 	bl	8958 <printk>
    85bc:	eb00025a 	bl	8f2c <clean_reboot>
    85c0:	e5845000 	str	r5, [r4]
    85c4:	e065c00c 	rsb	ip, r5, ip
    85c8:	e584c004 	str	ip, [r4, #4]
    85cc:	e3a0300b 	mov	r3, #11
    85d0:	e5843008 	str	r3, [r4, #8]
    85d4:	e5849010 	str	r9, [r4, #16]
    85d8:	e5848014 	str	r8, [r4, #20]
    85dc:	e5847018 	str	r7, [r4, #24]
    85e0:	e3a03000 	mov	r3, #0
    85e4:	e584301c 	str	r3, [r4, #28]
    85e8:	e5843020 	str	r3, [r4, #32]
    85ec:	e5843024 	str	r3, [r4, #36]	; 0x24
    85f0:	e1a00004 	mov	r0, r4
    85f4:	ebffff11 	bl	8240 <hdr_cksum>
    85f8:	e584000c 	str	r0, [r4, #12]
    85fc:	e1a00004 	mov	r0, r4
    8600:	ebfffeb6 	bl	80e0 <b_rz1_ptr>
    8604:	e3a01080 	mov	r1, #128	; 0x80
    8608:	ebffff07 	bl	822c <mark_mem>
    860c:	e1a00004 	mov	r0, r4
    8610:	ebfffeb8 	bl	80f8 <b_rz2_ptr>
    8614:	e1a07000 	mov	r7, r0
    8618:	e1a00004 	mov	r0, r4
    861c:	ebfffebb 	bl	8110 <b_rz2_nbytes>
    8620:	e1a01000 	mov	r1, r0
    8624:	e1a00007 	mov	r0, r7
    8628:	ebfffeff 	bl	822c <mark_mem>
    862c:	e59f3094 	ldr	r3, [pc, #148]	; 86c8 <ckalloc+0x214>
    8630:	e5932004 	ldr	r2, [r3, #4]
    8634:	e0822006 	add	r2, r2, r6
    8638:	e5832004 	str	r2, [r3, #4]
    863c:	e1a00004 	mov	r0, r4
    8640:	ebfffea8 	bl	80e8 <b_alloc_ptr>
    8644:	e1a07000 	mov	r7, r0
    8648:	e1a00004 	mov	r0, r4
    864c:	ebffff04 	bl	8264 <check_hdr>
    8650:	e3500000 	cmp	r0, #0
    8654:	1a000006 	bne	8674 <ckalloc+0x1c0>
    8658:	eb0000d9 	bl	89c4 <rpi_reset_putc>
    865c:	e59f0090 	ldr	r0, [pc, #144]	; 86f4 <ckalloc+0x240>
    8660:	e59f1068 	ldr	r1, [pc, #104]	; 86d0 <ckalloc+0x21c>
    8664:	e59f2068 	ldr	r2, [pc, #104]	; 86d4 <ckalloc+0x220>
    8668:	e3a03098 	mov	r3, #152	; 0x98
    866c:	eb0000b9 	bl	8958 <printk>
    8670:	eb00022d 	bl	8f2c <clean_reboot>
    8674:	e1a00004 	mov	r0, r4
    8678:	ebffff20 	bl	8300 <check_block>
    867c:	e3500000 	cmp	r0, #0
    8680:	1a000006 	bne	86a0 <ckalloc+0x1ec>
    8684:	eb0000ce 	bl	89c4 <rpi_reset_putc>
    8688:	e59f0068 	ldr	r0, [pc, #104]	; 86f8 <ckalloc+0x244>
    868c:	e59f103c 	ldr	r1, [pc, #60]	; 86d0 <ckalloc+0x21c>
    8690:	e59f203c 	ldr	r2, [pc, #60]	; 86d4 <ckalloc+0x220>
    8694:	e3a03099 	mov	r3, #153	; 0x99
    8698:	eb0000ae 	bl	8958 <printk>
    869c:	eb000222 	bl	8f2c <clean_reboot>
    86a0:	e59f0030 	ldr	r0, [pc, #48]	; 86d8 <ckalloc+0x224>
    86a4:	eb0000ab 	bl	8958 <printk>
    86a8:	e59f004c 	ldr	r0, [pc, #76]	; 86fc <ckalloc+0x248>
    86ac:	e1a01005 	mov	r1, r5
    86b0:	e1a02006 	mov	r2, r6
    86b4:	e1a03007 	mov	r3, r7
    86b8:	eb0000a6 	bl	8958 <printk>
    86bc:	e1a00007 	mov	r0, r7
    86c0:	e28dd00c 	add	sp, sp, #12
    86c4:	e8bd83f0 	pop	{r4, r5, r6, r7, r8, r9, pc}
    86c8:	00009bb8 			; <UNDEFINED> instruction: 0x00009bb8
    86cc:	0000972c 	andeq	r9, r0, ip, lsr #14
    86d0:	000096a0 	andeq	r9, r0, r0, lsr #13
    86d4:	000095d4 	ldrdeq	r9, [r0], -r4
    86d8:	00009590 	muleq	r0, r0, r5
    86dc:	0000976c 	andeq	r9, r0, ip, ror #14
    86e0:	00009784 	andeq	r9, r0, r4, lsl #15
    86e4:	00009790 	muleq	r0, r0, r7
    86e8:	000097b8 			; <UNDEFINED> instruction: 0x000097b8
    86ec:	000097f0 	strdeq	r9, [r0], -r0
    86f0:	0000981c 	andeq	r9, r0, ip, lsl r8
    86f4:	00009858 	andeq	r9, r0, r8, asr r8
    86f8:	00009878 	andeq	r9, r0, r8, ror r8
    86fc:	00009898 	muleq	r0, r8, r8

00008700 <ck_heap_errors>:
    8700:	e92d43f8 	push	{r3, r4, r5, r6, r7, r8, r9, lr}
    8704:	e59f4120 	ldr	r4, [pc, #288]	; 882c <ck_heap_errors+0x12c>
    8708:	e5943004 	ldr	r3, [r4, #4]
    870c:	e5946000 	ldr	r6, [r4]
    8710:	e0666003 	rsb	r6, r6, r3
    8714:	e5945008 	ldr	r5, [r4, #8]
    8718:	e0635005 	rsb	r5, r3, r5
    871c:	e59f010c 	ldr	r0, [pc, #268]	; 8830 <ck_heap_errors+0x130>
    8720:	eb00008c 	bl	8958 <printk>
    8724:	e59f0108 	ldr	r0, [pc, #264]	; 8834 <ck_heap_errors+0x134>
    8728:	e1a01006 	mov	r1, r6
    872c:	e1a02005 	mov	r2, r5
    8730:	eb000088 	bl	8958 <printk>
    8734:	e5944000 	ldr	r4, [r4]
    8738:	e3a05000 	mov	r5, #0
    873c:	e1a06005 	mov	r6, r5
    8740:	e59f70e4 	ldr	r7, [pc, #228]	; 882c <ck_heap_errors+0x12c>
    8744:	e59f90e4 	ldr	r9, [pc, #228]	; 8830 <ck_heap_errors+0x130>
    8748:	e59f80e8 	ldr	r8, [pc, #232]	; 8838 <ck_heap_errors+0x138>
    874c:	ea000023 	b	87e0 <ck_heap_errors+0xe0>
    8750:	e1a00004 	mov	r0, r4
    8754:	ebfffec2 	bl	8264 <check_hdr>
    8758:	e3500000 	cmp	r0, #0
    875c:	1a000005 	bne	8778 <ck_heap_errors+0x78>
    8760:	e59f00c8 	ldr	r0, [pc, #200]	; 8830 <ck_heap_errors+0x130>
    8764:	eb00007b 	bl	8958 <printk>
    8768:	e59f00cc 	ldr	r0, [pc, #204]	; 883c <ck_heap_errors+0x13c>
    876c:	eb000079 	bl	8958 <printk>
    8770:	e2866001 	add	r6, r6, #1
    8774:	ea00001c 	b	87ec <ck_heap_errors+0xec>
    8778:	e1a00004 	mov	r0, r4
    877c:	ebfffedf 	bl	8300 <check_block>
    8780:	e3500000 	cmp	r0, #0
    8784:	02866001 	addeq	r6, r6, #1
    8788:	e5943008 	ldr	r3, [r4, #8]
    878c:	e353000c 	cmp	r3, #12
    8790:	1a00000c 	bne	87c8 <ck_heap_errors+0xc8>
    8794:	e1a00004 	mov	r0, r4
    8798:	ebfffe52 	bl	80e8 <b_alloc_ptr>
    879c:	e1a01000 	mov	r1, r0
    87a0:	e1a00004 	mov	r0, r4
    87a4:	e5942000 	ldr	r2, [r4]
    87a8:	ebfffe5d 	bl	8124 <check_mem>
    87ac:	e3500000 	cmp	r0, #0
    87b0:	1a000004 	bne	87c8 <ck_heap_errors+0xc8>
    87b4:	e1a00009 	mov	r0, r9
    87b8:	eb000066 	bl	8958 <printk>
    87bc:	e1a00008 	mov	r0, r8
    87c0:	eb000064 	bl	8958 <printk>
    87c4:	e2866001 	add	r6, r6, #1
    87c8:	e5942000 	ldr	r2, [r4]
    87cc:	e5943004 	ldr	r3, [r4, #4]
    87d0:	e0823003 	add	r3, r2, r3
    87d4:	e2833f4e 	add	r3, r3, #312	; 0x138
    87d8:	e0844003 	add	r4, r4, r3
    87dc:	e2855001 	add	r5, r5, #1
    87e0:	e5973004 	ldr	r3, [r7, #4]
    87e4:	e1530004 	cmp	r3, r4
    87e8:	1affffd8 	bne	8750 <ck_heap_errors+0x50>
    87ec:	e3560000 	cmp	r6, #0
    87f0:	0a000006 	beq	8810 <ck_heap_errors+0x110>
    87f4:	e59f0034 	ldr	r0, [pc, #52]	; 8830 <ck_heap_errors+0x130>
    87f8:	eb000056 	bl	8958 <printk>
    87fc:	e59f003c 	ldr	r0, [pc, #60]	; 8840 <ck_heap_errors+0x140>
    8800:	e1a01005 	mov	r1, r5
    8804:	e1a02006 	mov	r2, r6
    8808:	eb000052 	bl	8958 <printk>
    880c:	ea000004 	b	8824 <ck_heap_errors+0x124>
    8810:	e59f0018 	ldr	r0, [pc, #24]	; 8830 <ck_heap_errors+0x130>
    8814:	eb00004f 	bl	8958 <printk>
    8818:	e59f0024 	ldr	r0, [pc, #36]	; 8844 <ck_heap_errors+0x144>
    881c:	e1a01005 	mov	r1, r5
    8820:	eb00004c 	bl	8958 <printk>
    8824:	e1a00006 	mov	r0, r6
    8828:	e8bd83f8 	pop	{r3, r4, r5, r6, r7, r8, r9, pc}
    882c:	00009bb8 			; <UNDEFINED> instruction: 0x00009bb8
    8830:	00009590 	muleq	r0, r0, r5
    8834:	000098c8 	andeq	r9, r0, r8, asr #17
    8838:	00009914 	andeq	r9, r0, r4, lsl r9
    883c:	00009900 	andeq	r9, r0, r0, lsl #18
    8840:	00009930 	andeq	r9, r0, r0, lsr r9
    8844:	00009958 	andeq	r9, r0, r8, asr r9

00008848 <fast_hash>:
    8848:	e52d4004 	push	{r4}		; (str r4, [sp, #-4]!)
    884c:	e1a02001 	mov	r2, r1
    8850:	e1a03000 	mov	r3, r0
    8854:	e3500000 	cmp	r0, #0
    8858:	13510000 	cmpne	r1, #0
    885c:	da000032 	ble	892c <fast_hash+0xe4>
    8860:	e2014003 	and	r4, r1, #3
    8864:	e1a01141 	asr	r1, r1, #2
    8868:	ea00000b 	b	889c <fast_hash+0x54>
    886c:	e5d3c001 	ldrb	ip, [r3, #1]
    8870:	e5d30000 	ldrb	r0, [r3]
    8874:	e080040c 	add	r0, r0, ip, lsl #8
    8878:	e0800002 	add	r0, r0, r2
    887c:	e5d3c003 	ldrb	ip, [r3, #3]
    8880:	e5d32002 	ldrb	r2, [r3, #2]
    8884:	e082240c 	add	r2, r2, ip, lsl #8
    8888:	e0202582 	eor	r2, r0, r2, lsl #11
    888c:	e0222800 	eor	r2, r2, r0, lsl #16
    8890:	e2833004 	add	r3, r3, #4
    8894:	e08225a2 	add	r2, r2, r2, lsr #11
    8898:	e2411001 	sub	r1, r1, #1
    889c:	e3510000 	cmp	r1, #0
    88a0:	cafffff1 	bgt	886c <fast_hash+0x24>
    88a4:	e3540002 	cmp	r4, #2
    88a8:	0a00000d 	beq	88e4 <fast_hash+0x9c>
    88ac:	e3540003 	cmp	r4, #3
    88b0:	0a000002 	beq	88c0 <fast_hash+0x78>
    88b4:	e3540001 	cmp	r4, #1
    88b8:	1a000014 	bne	8910 <fast_hash+0xc8>
    88bc:	ea00000f 	b	8900 <fast_hash+0xb8>
    88c0:	e5d30001 	ldrb	r0, [r3, #1]
    88c4:	e5d31000 	ldrb	r1, [r3]
    88c8:	e0811400 	add	r1, r1, r0, lsl #8
    88cc:	e0812002 	add	r2, r1, r2
    88d0:	e0222802 	eor	r2, r2, r2, lsl #16
    88d4:	e1d330d2 	ldrsb	r3, [r3, #2]
    88d8:	e0222903 	eor	r2, r2, r3, lsl #18
    88dc:	e08225a2 	add	r2, r2, r2, lsr #11
    88e0:	ea00000a 	b	8910 <fast_hash+0xc8>
    88e4:	e5d31001 	ldrb	r1, [r3, #1]
    88e8:	e5d33000 	ldrb	r3, [r3]
    88ec:	e0833401 	add	r3, r3, r1, lsl #8
    88f0:	e0832002 	add	r2, r3, r2
    88f4:	e0222582 	eor	r2, r2, r2, lsl #11
    88f8:	e08228a2 	add	r2, r2, r2, lsr #17
    88fc:	ea000003 	b	8910 <fast_hash+0xc8>
    8900:	e1d330d0 	ldrsb	r3, [r3]
    8904:	e0832002 	add	r2, r3, r2
    8908:	e0222502 	eor	r2, r2, r2, lsl #10
    890c:	e08220a2 	add	r2, r2, r2, lsr #1
    8910:	e0220182 	eor	r0, r2, r2, lsl #3
    8914:	e08002a0 	add	r0, r0, r0, lsr #5
    8918:	e0200200 	eor	r0, r0, r0, lsl #4
    891c:	e08008a0 	add	r0, r0, r0, lsr #17
    8920:	e0200c80 	eor	r0, r0, r0, lsl #25
    8924:	e0800320 	add	r0, r0, r0, lsr #6
    8928:	ea000000 	b	8930 <fast_hash+0xe8>
    892c:	e3a00000 	mov	r0, #0
    8930:	e49d4004 	pop	{r4}		; (ldr r4, [sp], #4)
    8934:	e12fff1e 	bx	lr

00008938 <memset>:
    8938:	e0802002 	add	r2, r0, r2
    893c:	e1a03000 	mov	r3, r0
    8940:	ea000001 	b	894c <memset+0x14>
    8944:	e5c31000 	strb	r1, [r3]
    8948:	e2833001 	add	r3, r3, #1
    894c:	e1530002 	cmp	r3, r2
    8950:	3afffffb 	bcc	8944 <memset+0xc>
    8954:	e12fff1e 	bx	lr

00008958 <printk>:
    8958:	e92d000f 	push	{r0, r1, r2, r3}
    895c:	e92d4030 	push	{r4, r5, lr}
    8960:	e24dd00c 	sub	sp, sp, #12
    8964:	e28d301c 	add	r3, sp, #28
    8968:	e58d3004 	str	r3, [sp, #4]
    896c:	e59f4034 	ldr	r4, [pc, #52]	; 89a8 <printk+0x50>
    8970:	e1a00004 	mov	r0, r4
    8974:	e3a01b01 	mov	r1, #1024	; 0x400
    8978:	e59d2018 	ldr	r2, [sp, #24]
    897c:	eb0000c8 	bl	8ca4 <va_printk>
    8980:	e1a05000 	mov	r5, r0
    8984:	e59f3020 	ldr	r3, [pc, #32]	; 89ac <printk+0x54>
    8988:	e5933000 	ldr	r3, [r3]
    898c:	e1a00004 	mov	r0, r4
    8990:	e12fff33 	blx	r3
    8994:	e1a00005 	mov	r0, r5
    8998:	e28dd00c 	add	sp, sp, #12
    899c:	e8bd4030 	pop	{r4, r5, lr}
    89a0:	e28dd010 	add	sp, sp, #16
    89a4:	e12fff1e 	bx	lr
    89a8:	00009bc4 	andeq	r9, r0, r4, asr #23
    89ac:	00009518 	andeq	r9, r0, r8, lsl r5

000089b0 <internal_putchar>:
    89b0:	e92d4010 	push	{r4, lr}
    89b4:	e1a04000 	mov	r4, r0
    89b8:	eb000212 	bl	9208 <uart_putc>
    89bc:	e1a00004 	mov	r0, r4
    89c0:	e8bd8010 	pop	{r4, pc}

000089c4 <rpi_reset_putc>:
    89c4:	e59f2008 	ldr	r2, [pc, #8]	; 89d4 <rpi_reset_putc+0x10>
    89c8:	e59f3008 	ldr	r3, [pc, #8]	; 89d8 <rpi_reset_putc+0x14>
    89cc:	e5832000 	str	r2, [r3]
    89d0:	e12fff1e 	bx	lr
    89d4:	000089b0 			; <UNDEFINED> instruction: 0x000089b0
    89d8:	00009514 	andeq	r9, r0, r4, lsl r5

000089dc <rpi_set_putc>:
    89dc:	e59f3004 	ldr	r3, [pc, #4]	; 89e8 <rpi_set_putc+0xc>
    89e0:	e5830000 	str	r0, [r3]
    89e4:	e12fff1e 	bx	lr
    89e8:	00009514 	andeq	r9, r0, r4, lsl r5

000089ec <internal_putk>:
    89ec:	e92d4038 	push	{r3, r4, r5, lr}
    89f0:	e1a04000 	mov	r4, r0
    89f4:	e59f5020 	ldr	r5, [pc, #32]	; 8a1c <internal_putk+0x30>
    89f8:	ea000002 	b	8a08 <internal_putk+0x1c>
    89fc:	e5953000 	ldr	r3, [r5]
    8a00:	e12fff33 	blx	r3
    8a04:	e2844001 	add	r4, r4, #1
    8a08:	e5d40000 	ldrb	r0, [r4]
    8a0c:	e3500000 	cmp	r0, #0
    8a10:	1afffff9 	bne	89fc <internal_putk+0x10>
    8a14:	e3a00001 	mov	r0, #1
    8a18:	e8bd8038 	pop	{r3, r4, r5, pc}
    8a1c:	00009514 	andeq	r9, r0, r4, lsl r5

00008a20 <isdigit>:
    8a20:	e2400030 	sub	r0, r0, #48	; 0x30
    8a24:	e3500009 	cmp	r0, #9
    8a28:	83a00000 	movhi	r0, #0
    8a2c:	93a00001 	movls	r0, #1
    8a30:	e12fff1e 	bx	lr

00008a34 <pad>:
    8a34:	e0611000 	rsb	r1, r1, r0
    8a38:	e3a03020 	mov	r3, #32
    8a3c:	ea000002 	b	8a4c <pad+0x18>
    8a40:	e5c03000 	strb	r3, [r0]
    8a44:	e2811001 	add	r1, r1, #1
    8a48:	e2800001 	add	r0, r0, #1
    8a4c:	e1510002 	cmp	r1, r2
    8a50:	bafffffa 	blt	8a40 <pad+0xc>
    8a54:	e3a03000 	mov	r3, #0
    8a58:	e5c03000 	strb	r3, [r0]
    8a5c:	e12fff1e 	bx	lr

00008a60 <reverse>:
    8a60:	e063c002 	rsb	ip, r3, r2
    8a64:	e28cc001 	add	ip, ip, #1
    8a68:	e15c0001 	cmp	ip, r1
    8a6c:	c061100c 	rsbgt	r1, r1, ip
    8a70:	c0833001 	addgt	r3, r3, r1
    8a74:	e2422001 	sub	r2, r2, #1
    8a78:	e1a01000 	mov	r1, r0
    8a7c:	ea000002 	b	8a8c <reverse+0x2c>
    8a80:	e452c001 	ldrb	ip, [r2], #-1
    8a84:	e5c1c000 	strb	ip, [r1]
    8a88:	e2811001 	add	r1, r1, #1
    8a8c:	e1520003 	cmp	r2, r3
    8a90:	2afffffa 	bcs	8a80 <reverse+0x20>
    8a94:	e3a03000 	mov	r3, #0
    8a98:	e5c13000 	strb	r3, [r1]
    8a9c:	e12fff1e 	bx	lr

00008aa0 <emit>:
    8aa0:	e92d41f0 	push	{r4, r5, r6, r7, r8, lr}
    8aa4:	e24dd040 	sub	sp, sp, #64	; 0x40
    8aa8:	e1a05001 	mov	r5, r1
    8aac:	e1a04002 	mov	r4, r2
    8ab0:	e59d2058 	ldr	r2, [sp, #88]	; 0x58
    8ab4:	e1520004 	cmp	r2, r4
    8ab8:	c2442001 	subgt	r2, r4, #1
    8abc:	e1a0c003 	mov	ip, r3
    8ac0:	e2400002 	sub	r0, r0, #2
    8ac4:	e350000e 	cmp	r0, #14
    8ac8:	979ff100 	ldrls	pc, [pc, r0, lsl #2]
    8acc:	ea000048 	b	8bf4 <emit+0x154>
    8ad0:	00008bcc 	andeq	r8, r0, ip, asr #23
    8ad4:	00008bf4 	strdeq	r8, [r0], -r4
    8ad8:	00008bf4 	strdeq	r8, [r0], -r4
    8adc:	00008bf4 	strdeq	r8, [r0], -r4
    8ae0:	00008bf4 	strdeq	r8, [r0], -r4
    8ae4:	00008bf4 	strdeq	r8, [r0], -r4
    8ae8:	00008bc0 	andeq	r8, r0, r0, asr #23
    8aec:	00008bf4 	strdeq	r8, [r0], -r4
    8af0:	00008b0c 	andeq	r8, r0, ip, lsl #22
    8af4:	00008bf4 	strdeq	r8, [r0], -r4
    8af8:	00008bf4 	strdeq	r8, [r0], -r4
    8afc:	00008bf4 	strdeq	r8, [r0], -r4
    8b00:	00008bf4 	strdeq	r8, [r0], -r4
    8b04:	00008bf4 	strdeq	r8, [r0], -r4
    8b08:	00008b80 	andeq	r8, r0, r0, lsl #23
    8b0c:	e59d105c 	ldr	r1, [sp, #92]	; 0x5c
    8b10:	e2911000 	adds	r1, r1, #0
    8b14:	13a01001 	movne	r1, #1
    8b18:	e0111fa3 	ands	r1, r1, r3, lsr #31
    8b1c:	1263c000 	rsbne	ip, r3, #0
    8b20:	13a08001 	movne	r8, #1
    8b24:	03a08000 	moveq	r8, #0
    8b28:	e1a0100d 	mov	r1, sp
    8b2c:	e59f7100 	ldr	r7, [pc, #256]	; 8c34 <emit+0x194>
    8b30:	e59f6100 	ldr	r6, [pc, #256]	; 8c38 <emit+0x198>
    8b34:	ea000000 	b	8b3c <emit+0x9c>
    8b38:	e1a01000 	mov	r1, r0
    8b3c:	e2810001 	add	r0, r1, #1
    8b40:	e083ec97 	umull	lr, r3, r7, ip
    8b44:	e1a031a3 	lsr	r3, r3, #3
    8b48:	e1a0e003 	mov	lr, r3
    8b4c:	e0833103 	add	r3, r3, r3, lsl #2
    8b50:	e1a03083 	lsl	r3, r3, #1
    8b54:	e063300c 	rsb	r3, r3, ip
    8b58:	e7d63003 	ldrb	r3, [r6, r3]
    8b5c:	e5c13000 	strb	r3, [r1]
    8b60:	e1a0c00e 	mov	ip, lr
    8b64:	e35e0000 	cmp	lr, #0
    8b68:	1afffff2 	bne	8b38 <emit+0x98>
    8b6c:	e3580000 	cmp	r8, #0
    8b70:	12810002 	addne	r0, r1, #2
    8b74:	13a0302d 	movne	r3, #45	; 0x2d
    8b78:	15c13001 	strbne	r3, [r1, #1]
    8b7c:	ea000023 	b	8c10 <emit+0x170>
    8b80:	e1a0300d 	mov	r3, sp
    8b84:	e59fe0b0 	ldr	lr, [pc, #176]	; 8c3c <emit+0x19c>
    8b88:	ea000000 	b	8b90 <emit+0xf0>
    8b8c:	e1a03000 	mov	r3, r0
    8b90:	e2830001 	add	r0, r3, #1
    8b94:	e20c100f 	and	r1, ip, #15
    8b98:	e7de1001 	ldrb	r1, [lr, r1]
    8b9c:	e5c31000 	strb	r1, [r3]
    8ba0:	e1b0c22c 	lsrs	ip, ip, #4
    8ba4:	1afffff8 	bne	8b8c <emit+0xec>
    8ba8:	e3a01078 	mov	r1, #120	; 0x78
    8bac:	e5c31001 	strb	r1, [r3, #1]
    8bb0:	e2830003 	add	r0, r3, #3
    8bb4:	e3a01030 	mov	r1, #48	; 0x30
    8bb8:	e5c31002 	strb	r1, [r3, #2]
    8bbc:	ea000013 	b	8c10 <emit+0x170>
    8bc0:	e5cd3000 	strb	r3, [sp]
    8bc4:	e28d0001 	add	r0, sp, #1
    8bc8:	ea000010 	b	8c10 <emit+0x170>
    8bcc:	e1a0300d 	mov	r3, sp
    8bd0:	e59fe068 	ldr	lr, [pc, #104]	; 8c40 <emit+0x1a0>
    8bd4:	e2830001 	add	r0, r3, #1
    8bd8:	e20c1001 	and	r1, ip, #1
    8bdc:	e7de1001 	ldrb	r1, [lr, r1]
    8be0:	e5c31000 	strb	r1, [r3]
    8be4:	e1a03000 	mov	r3, r0
    8be8:	e1b0c0ac 	lsrs	ip, ip, #1
    8bec:	1afffff8 	bne	8bd4 <emit+0x134>
    8bf0:	ea000006 	b	8c10 <emit+0x170>
    8bf4:	ebffff72 	bl	89c4 <rpi_reset_putc>
    8bf8:	e59f0044 	ldr	r0, [pc, #68]	; 8c44 <emit+0x1a4>
    8bfc:	e59f1044 	ldr	r1, [pc, #68]	; 8c48 <emit+0x1a8>
    8c00:	e59f2044 	ldr	r2, [pc, #68]	; 8c4c <emit+0x1ac>
    8c04:	e3a03077 	mov	r3, #119	; 0x77
    8c08:	ebffff52 	bl	8958 <printk>
    8c0c:	eb0000c6 	bl	8f2c <clean_reboot>
    8c10:	e1a0100d 	mov	r1, sp
    8c14:	ebffff86 	bl	8a34 <pad>
    8c18:	e1a02000 	mov	r2, r0
    8c1c:	e1a00005 	mov	r0, r5
    8c20:	e1a01004 	mov	r1, r4
    8c24:	e1a0300d 	mov	r3, sp
    8c28:	ebffff8c 	bl	8a60 <reverse>
    8c2c:	e28dd040 	add	sp, sp, #64	; 0x40
    8c30:	e8bd81f0 	pop	{r4, r5, r6, r7, r8, pc}
    8c34:	cccccccd 	stclgt	12, cr12, [ip], {205}	; 0xcd
    8c38:	000099d4 	ldrdeq	r9, [r0], -r4
    8c3c:	000099e0 	andeq	r9, r0, r0, ror #19
    8c40:	000099f4 	strdeq	r9, [r0], -r4
    8c44:	000099ac 	andeq	r9, r0, ip, lsr #19
    8c48:	000099c0 	andeq	r9, r0, r0, asr #19
    8c4c:	00009988 	andeq	r9, r0, r8, lsl #19

00008c50 <rpi_set_output>:
    8c50:	e92d4008 	push	{r3, lr}
    8c54:	e3500000 	cmp	r0, #0
    8c58:	1a000006 	bne	8c78 <rpi_set_output+0x28>
    8c5c:	ebffff58 	bl	89c4 <rpi_reset_putc>
    8c60:	e59f0028 	ldr	r0, [pc, #40]	; 8c90 <rpi_set_output+0x40>
    8c64:	e59f1028 	ldr	r1, [pc, #40]	; 8c94 <rpi_set_output+0x44>
    8c68:	e59f2028 	ldr	r2, [pc, #40]	; 8c98 <rpi_set_output+0x48>
    8c6c:	e3a03020 	mov	r3, #32
    8c70:	ebffff38 	bl	8958 <printk>
    8c74:	eb0000ac 	bl	8f2c <clean_reboot>
    8c78:	e59f301c 	ldr	r3, [pc, #28]	; 8c9c <rpi_set_output+0x4c>
    8c7c:	e5830000 	str	r0, [r3]
    8c80:	e3510000 	cmp	r1, #0
    8c84:	159f3014 	ldrne	r3, [pc, #20]	; 8ca0 <rpi_set_output+0x50>
    8c88:	15831000 	strne	r1, [r3]
    8c8c:	e8bd8008 	pop	{r3, pc}
    8c90:	000099f8 	strdeq	r9, [r0], -r8
    8c94:	000099c0 	andeq	r9, r0, r0, asr #19
    8c98:	00009990 	muleq	r0, r0, r9
    8c9c:	00009514 	andeq	r9, r0, r4, lsl r5
    8ca0:	00009518 	andeq	r9, r0, r8, lsl r5

00008ca4 <va_printk>:
    8ca4:	e92d4ff0 	push	{r4, r5, r6, r7, r8, r9, sl, fp, lr}
    8ca8:	e24dd08c 	sub	sp, sp, #140	; 0x8c
    8cac:	e1a0a000 	mov	sl, r0
    8cb0:	e1a09003 	mov	r9, r3
    8cb4:	e2411001 	sub	r1, r1, #1
    8cb8:	e0808001 	add	r8, r0, r1
    8cbc:	e3a03000 	mov	r3, #0
    8cc0:	e5c03000 	strb	r3, [r0]
    8cc4:	e1a04000 	mov	r4, r0
    8cc8:	e1a0b003 	mov	fp, r3
    8ccc:	ea000086 	b	8eec <va_printk+0x248>
    8cd0:	e3530025 	cmp	r3, #37	; 0x25
    8cd4:	12822001 	addne	r2, r2, #1
    8cd8:	15c43000 	strbne	r3, [r4]
    8cdc:	12844001 	addne	r4, r4, #1
    8ce0:	1a000081 	bne	8eec <va_printk+0x248>
    8ce4:	e5d21001 	ldrb	r1, [r2, #1]
    8ce8:	e3510025 	cmp	r1, #37	; 0x25
    8cec:	05c43000 	strbeq	r3, [r4]
    8cf0:	02822002 	addeq	r2, r2, #2
    8cf4:	02844001 	addeq	r4, r4, #1
    8cf8:	0a00007b 	beq	8eec <va_printk+0x248>
    8cfc:	e2826001 	add	r6, r2, #1
    8d00:	e1a0700b 	mov	r7, fp
    8d04:	ea000004 	b	8d1c <va_printk+0x78>
    8d08:	e0877107 	add	r7, r7, r7, lsl #2
    8d0c:	e1a07087 	lsl	r7, r7, #1
    8d10:	e0877005 	add	r7, r7, r5
    8d14:	e2477030 	sub	r7, r7, #48	; 0x30
    8d18:	e2866001 	add	r6, r6, #1
    8d1c:	e5d65000 	ldrb	r5, [r6]
    8d20:	e1a00005 	mov	r0, r5
    8d24:	ebffff3d 	bl	8a20 <isdigit>
    8d28:	e3500000 	cmp	r0, #0
    8d2c:	1afffff5 	bne	8d08 <va_printk+0x64>
    8d30:	e357001f 	cmp	r7, #31
    8d34:	9a000006 	bls	8d54 <va_printk+0xb0>
    8d38:	ebffff21 	bl	89c4 <rpi_reset_putc>
    8d3c:	e59f01d4 	ldr	r0, [pc, #468]	; 8f18 <va_printk+0x274>
    8d40:	e59f11d4 	ldr	r1, [pc, #468]	; 8f1c <va_printk+0x278>
    8d44:	e59f21d4 	ldr	r2, [pc, #468]	; 8f20 <va_printk+0x27c>
    8d48:	e3a03094 	mov	r3, #148	; 0x94
    8d4c:	ebffff01 	bl	8958 <printk>
    8d50:	eb000075 	bl	8f2c <clean_reboot>
    8d54:	e2455062 	sub	r5, r5, #98	; 0x62
    8d58:	e3550016 	cmp	r5, #22
    8d5c:	979ff105 	ldrls	pc, [pc, r5, lsl #2]
    8d60:	ea00004e 	b	8ea0 <va_printk+0x1fc>
    8d64:	00008e4c 	andeq	r8, r0, ip, asr #28
    8d68:	00008e7c 	andeq	r8, r0, ip, ror lr
    8d6c:	00008ddc 	ldrdeq	r8, [r0], -ip
    8d70:	00008ea0 	andeq	r8, r0, r0, lsr #29
    8d74:	00008dc0 	andeq	r8, r0, r0, asr #27
    8d78:	00008ea0 	andeq	r8, r0, r0, lsr #29
    8d7c:	00008ea0 	andeq	r8, r0, r0, lsr #29
    8d80:	00008ea0 	andeq	r8, r0, r0, lsr #29
    8d84:	00008ea0 	andeq	r8, r0, r0, lsr #29
    8d88:	00008ea0 	andeq	r8, r0, r0, lsr #29
    8d8c:	00008ea0 	andeq	r8, r0, r0, lsr #29
    8d90:	00008ea0 	andeq	r8, r0, r0, lsr #29
    8d94:	00008ea0 	andeq	r8, r0, r0, lsr #29
    8d98:	00008ea0 	andeq	r8, r0, r0, lsr #29
    8d9c:	00008e28 	andeq	r8, r0, r8, lsr #28
    8da0:	00008ea0 	andeq	r8, r0, r0, lsr #29
    8da4:	00008ea0 	andeq	r8, r0, r0, lsr #29
    8da8:	00008e70 	andeq	r8, r0, r0, ror lr
    8dac:	00008ea0 	andeq	r8, r0, r0, lsr #29
    8db0:	00008e04 	andeq	r8, r0, r4, lsl #28
    8db4:	00008ea0 	andeq	r8, r0, r0, lsr #29
    8db8:	00008ea0 	andeq	r8, r0, r0, lsr #29
    8dbc:	00008e28 	andeq	r8, r0, r8, lsr #28
    8dc0:	ebfffeff 	bl	89c4 <rpi_reset_putc>
    8dc4:	e59f0158 	ldr	r0, [pc, #344]	; 8f24 <va_printk+0x280>
    8dc8:	e59f114c 	ldr	r1, [pc, #332]	; 8f1c <va_printk+0x278>
    8dcc:	e59f214c 	ldr	r2, [pc, #332]	; 8f20 <va_printk+0x27c>
    8dd0:	e3a0309a 	mov	r3, #154	; 0x9a
    8dd4:	ebfffedf 	bl	8958 <printk>
    8dd8:	eb000053 	bl	8f2c <clean_reboot>
    8ddc:	e5993000 	ldr	r3, [r9]
    8de0:	e2899004 	add	r9, r9, #4
    8de4:	e58d7000 	str	r7, [sp]
    8de8:	e3a02001 	mov	r2, #1
    8dec:	e58d2004 	str	r2, [sp, #4]
    8df0:	e3a0000a 	mov	r0, #10
    8df4:	e28d1008 	add	r1, sp, #8
    8df8:	e3a02080 	mov	r2, #128	; 0x80
    8dfc:	ebffff27 	bl	8aa0 <emit>
    8e00:	ea00002f 	b	8ec4 <va_printk+0x220>
    8e04:	e5993000 	ldr	r3, [r9]
    8e08:	e2899004 	add	r9, r9, #4
    8e0c:	e58d7000 	str	r7, [sp]
    8e10:	e58db004 	str	fp, [sp, #4]
    8e14:	e3a0000a 	mov	r0, #10
    8e18:	e28d1008 	add	r1, sp, #8
    8e1c:	e3a02080 	mov	r2, #128	; 0x80
    8e20:	ebffff1e 	bl	8aa0 <emit>
    8e24:	ea000026 	b	8ec4 <va_printk+0x220>
    8e28:	e5993000 	ldr	r3, [r9]
    8e2c:	e2899004 	add	r9, r9, #4
    8e30:	e58d7000 	str	r7, [sp]
    8e34:	e58db004 	str	fp, [sp, #4]
    8e38:	e3a00010 	mov	r0, #16
    8e3c:	e28d1008 	add	r1, sp, #8
    8e40:	e3a02080 	mov	r2, #128	; 0x80
    8e44:	ebffff15 	bl	8aa0 <emit>
    8e48:	ea00001d 	b	8ec4 <va_printk+0x220>
    8e4c:	e5993000 	ldr	r3, [r9]
    8e50:	e2899004 	add	r9, r9, #4
    8e54:	e58d7000 	str	r7, [sp]
    8e58:	e58db004 	str	fp, [sp, #4]
    8e5c:	e3a00002 	mov	r0, #2
    8e60:	e28d1008 	add	r1, sp, #8
    8e64:	e3a02080 	mov	r2, #128	; 0x80
    8e68:	ebffff0c 	bl	8aa0 <emit>
    8e6c:	ea000014 	b	8ec4 <va_printk+0x220>
    8e70:	e5990000 	ldr	r0, [r9]
    8e74:	e2899004 	add	r9, r9, #4
    8e78:	ea000011 	b	8ec4 <va_printk+0x220>
    8e7c:	e5993000 	ldr	r3, [r9]
    8e80:	e2899004 	add	r9, r9, #4
    8e84:	e58d7000 	str	r7, [sp]
    8e88:	e58db004 	str	fp, [sp, #4]
    8e8c:	e3a00008 	mov	r0, #8
    8e90:	e08d1000 	add	r1, sp, r0
    8e94:	e3a02080 	mov	r2, #128	; 0x80
    8e98:	ebffff00 	bl	8aa0 <emit>
    8e9c:	ea000008 	b	8ec4 <va_printk+0x220>
    8ea0:	ebfffec7 	bl	89c4 <rpi_reset_putc>
    8ea4:	e5d63000 	ldrb	r3, [r6]
    8ea8:	e58d3000 	str	r3, [sp]
    8eac:	e59f0074 	ldr	r0, [pc, #116]	; 8f28 <va_printk+0x284>
    8eb0:	e59f1064 	ldr	r1, [pc, #100]	; 8f1c <va_printk+0x278>
    8eb4:	e59f2064 	ldr	r2, [pc, #100]	; 8f20 <va_printk+0x27c>
    8eb8:	e3a030bb 	mov	r3, #187	; 0xbb
    8ebc:	ebfffea5 	bl	8958 <printk>
    8ec0:	eb000019 	bl	8f2c <clean_reboot>
    8ec4:	e2862001 	add	r2, r6, #1
    8ec8:	ea000002 	b	8ed8 <va_printk+0x234>
    8ecc:	e2800001 	add	r0, r0, #1
    8ed0:	e5c43000 	strb	r3, [r4]
    8ed4:	e2844001 	add	r4, r4, #1
    8ed8:	e1540008 	cmp	r4, r8
    8edc:	2a000002 	bcs	8eec <va_printk+0x248>
    8ee0:	e5d03000 	ldrb	r3, [r0]
    8ee4:	e3530000 	cmp	r3, #0
    8ee8:	1afffff7 	bne	8ecc <va_printk+0x228>
    8eec:	e5d23000 	ldrb	r3, [r2]
    8ef0:	e3530000 	cmp	r3, #0
    8ef4:	0a000001 	beq	8f00 <va_printk+0x25c>
    8ef8:	e1540008 	cmp	r4, r8
    8efc:	3affff73 	bcc	8cd0 <va_printk+0x2c>
    8f00:	e2840001 	add	r0, r4, #1
    8f04:	e3a03000 	mov	r3, #0
    8f08:	e5c43000 	strb	r3, [r4]
    8f0c:	e06a0000 	rsb	r0, sl, r0
    8f10:	e28dd08c 	add	sp, sp, #140	; 0x8c
    8f14:	e8bd8ff0 	pop	{r4, r5, r6, r7, r8, r9, sl, fp, pc}
    8f18:	00009a10 	andeq	r9, r0, r0, lsl sl
    8f1c:	000099c0 	andeq	r9, r0, r0, asr #19
    8f20:	000099a0 	andeq	r9, r0, r0, lsr #19
    8f24:	00009a2c 	andeq	r9, r0, ip, lsr #20
    8f28:	00009a54 	andeq	r9, r0, r4, asr sl

00008f2c <clean_reboot>:
    8f2c:	e92d4008 	push	{r3, lr}
    8f30:	e59f3014 	ldr	r3, [pc, #20]	; 8f4c <clean_reboot+0x20>
    8f34:	e5933000 	ldr	r3, [r3]
    8f38:	e59f0010 	ldr	r0, [pc, #16]	; 8f50 <clean_reboot+0x24>
    8f3c:	e12fff33 	blx	r3
    8f40:	e3a00064 	mov	r0, #100	; 0x64
    8f44:	eb000044 	bl	905c <delay_ms>
    8f48:	eb000019 	bl	8fb4 <rpi_reboot>
    8f4c:	00009518 	andeq	r9, r0, r8, lsl r5
    8f50:	00009a8c 	andeq	r9, r0, ip, lsl #21

00008f54 <_cstart>:
    8f54:	e92d4008 	push	{r3, lr}
    8f58:	e59f3020 	ldr	r3, [pc, #32]	; 8f80 <_cstart+0x2c>
    8f5c:	e59f2020 	ldr	r2, [pc, #32]	; 8f84 <_cstart+0x30>
    8f60:	e3a01000 	mov	r1, #0
    8f64:	ea000001 	b	8f70 <_cstart+0x1c>
    8f68:	e5831000 	str	r1, [r3]
    8f6c:	e2833004 	add	r3, r3, #4
    8f70:	e1530002 	cmp	r3, r2
    8f74:	3afffffb 	bcc	8f68 <_cstart+0x14>
    8f78:	ebfffc24 	bl	8010 <notmain>
    8f7c:	ebffffea 	bl	8f2c <clean_reboot>
    8f80:	00009bb8 			; <UNDEFINED> instruction: 0x00009bb8
    8f84:	00009fc8 	andeq	r9, r0, r8, asr #31

00008f88 <at_user_level>:
    8f88:	e10f0000 	mrs	r0, CPSR
    8f8c:	e200001f 	and	r0, r0, #31
    8f90:	e3500010 	cmp	r0, #16
    8f94:	13a00000 	movne	r0, #0
    8f98:	03a00001 	moveq	r0, #1
    8f9c:	e12fff1e 	bx	lr

00008fa0 <set_user_level>:
    8fa0:	e10f3000 	mrs	r3, CPSR
    8fa4:	e3c3301f 	bic	r3, r3, #31
    8fa8:	e3833010 	orr	r3, r3, #16
    8fac:	e129f003 	msr	CPSR_fc, r3
    8fb0:	e12fff1e 	bx	lr

00008fb4 <rpi_reboot>:
    8fb4:	e92d4008 	push	{r3, lr}
    8fb8:	ebfffff2 	bl	8f88 <at_user_level>
    8fbc:	e3500000 	cmp	r0, #0
    8fc0:	0a000000 	beq	8fc8 <rpi_reboot+0x14>
    8fc4:	ebfffff5 	bl	8fa0 <set_user_level>
    8fc8:	e3a0001e 	mov	r0, #30
    8fcc:	eb000022 	bl	905c <delay_ms>
    8fd0:	e59f0014 	ldr	r0, [pc, #20]	; 8fec <rpi_reboot+0x38>
    8fd4:	e59f1014 	ldr	r1, [pc, #20]	; 8ff0 <rpi_reboot+0x3c>
    8fd8:	eb00002b 	bl	908c <PUT32>
    8fdc:	e59f0010 	ldr	r0, [pc, #16]	; 8ff4 <rpi_reboot+0x40>
    8fe0:	e59f1010 	ldr	r1, [pc, #16]	; 8ff8 <rpi_reboot+0x44>
    8fe4:	eb000028 	bl	908c <PUT32>
    8fe8:	eafffffe 	b	8fe8 <rpi_reboot+0x34>
    8fec:	20100024 	andscs	r0, r0, r4, lsr #32
    8ff0:	5a000001 	bpl	8ffc <delay_cycles>
    8ff4:	2010001c 	andscs	r0, r0, ip, lsl r0
    8ff8:	5a000020 	bpl	9080 <delay_sec+0x10>

00008ffc <delay_cycles>:
    8ffc:	ea000001 	b	9008 <delay_cycles+0xc>
    9000:	e2811000 	add	r1, r1, #0
    9004:	e1a00003 	mov	r0, r3
    9008:	e2403001 	sub	r3, r0, #1
    900c:	e3500000 	cmp	r0, #0
    9010:	1afffffa 	bne	9000 <delay_cycles+0x4>
    9014:	e12fff1e 	bx	lr

00009018 <timer_get_usec_raw>:
    9018:	e92d4008 	push	{r3, lr}
    901c:	e59f0004 	ldr	r0, [pc, #4]	; 9028 <timer_get_usec_raw+0x10>
    9020:	eb000025 	bl	90bc <GET32>
    9024:	e8bd8008 	pop	{r3, pc}
    9028:	20003004 	andcs	r3, r0, r4

0000902c <timer_get_usec>:
    902c:	e92d4008 	push	{r3, lr}
    9030:	ebfffff8 	bl	9018 <timer_get_usec_raw>
    9034:	e8bd8008 	pop	{r3, pc}

00009038 <delay_us>:
    9038:	e92d4038 	push	{r3, r4, r5, lr}
    903c:	e1a05000 	mov	r5, r0
    9040:	ebfffff9 	bl	902c <timer_get_usec>
    9044:	e1a04000 	mov	r4, r0
    9048:	ebfffff7 	bl	902c <timer_get_usec>
    904c:	e0640000 	rsb	r0, r4, r0
    9050:	e1500005 	cmp	r0, r5
    9054:	3afffffb 	bcc	9048 <delay_us+0x10>
    9058:	e8bd8038 	pop	{r3, r4, r5, pc}

0000905c <delay_ms>:
    905c:	e92d4008 	push	{r3, lr}
    9060:	e3a03ffa 	mov	r3, #1000	; 0x3e8
    9064:	e0000093 	mul	r0, r3, r0
    9068:	ebfffff2 	bl	9038 <delay_us>
    906c:	e8bd8008 	pop	{r3, pc}

00009070 <delay_sec>:
    9070:	e92d4008 	push	{r3, lr}
    9074:	e3a03ffa 	mov	r3, #1000	; 0x3e8
    9078:	e0000093 	mul	r0, r3, r0
    907c:	ebfffff6 	bl	905c <delay_ms>
    9080:	e8bd8008 	pop	{r3, pc}

00009084 <put32>:
    9084:	e5801000 	str	r1, [r0]
    9088:	e12fff1e 	bx	lr

0000908c <PUT32>:
    908c:	e5801000 	str	r1, [r0]
    9090:	e12fff1e 	bx	lr

00009094 <put16>:
    9094:	e1c010b0 	strh	r1, [r0]
    9098:	e12fff1e 	bx	lr

0000909c <PUT16>:
    909c:	e1c010b0 	strh	r1, [r0]
    90a0:	e12fff1e 	bx	lr

000090a4 <put8>:
    90a4:	e5c01000 	strb	r1, [r0]
    90a8:	e12fff1e 	bx	lr

000090ac <PUT8>:
    90ac:	e5c01000 	strb	r1, [r0]
    90b0:	e12fff1e 	bx	lr

000090b4 <get32>:
    90b4:	e5900000 	ldr	r0, [r0]
    90b8:	e12fff1e 	bx	lr

000090bc <GET32>:
    90bc:	e5900000 	ldr	r0, [r0]
    90c0:	e12fff1e 	bx	lr

000090c4 <GETPC>:
    90c4:	e1a0000e 	mov	r0, lr
    90c8:	e12fff1e 	bx	lr

000090cc <dummy>:
    90cc:	e12fff1e 	bx	lr

000090d0 <or_in32>:
    90d0:	e92d4070 	push	{r4, r5, r6, lr}
    90d4:	e1a04000 	mov	r4, r0
    90d8:	e1a05001 	mov	r5, r1
    90dc:	ebfffff4 	bl	90b4 <get32>
    90e0:	e1801005 	orr	r1, r0, r5
    90e4:	e1a00004 	mov	r0, r4
    90e8:	ebffffe5 	bl	9084 <put32>
    90ec:	e8bd8070 	pop	{r4, r5, r6, pc}

000090f0 <uart_init>:
    90f0:	e92d4010 	push	{r4, lr}
    90f4:	e3a01002 	mov	r1, #2
    90f8:	e3a0000e 	mov	r0, #14
    90fc:	eb000051 	bl	9248 <gpio_set_function>
    9100:	e3a01002 	mov	r1, #2
    9104:	e3a0000f 	mov	r0, #15
    9108:	eb00004e 	bl	9248 <gpio_set_function>
    910c:	eb0000fa 	bl	94fc <dev_barrier>
    9110:	e3a01001 	mov	r1, #1
    9114:	e59f0064 	ldr	r0, [pc, #100]	; 9180 <uart_init+0x90>
    9118:	ebffffec 	bl	90d0 <or_in32>
    911c:	eb0000f6 	bl	94fc <dev_barrier>
    9120:	e59f405c 	ldr	r4, [pc, #92]	; 9184 <uart_init+0x94>
    9124:	e3a01000 	mov	r1, #0
    9128:	e1a00004 	mov	r0, r4
    912c:	ebffffd4 	bl	9084 <put32>
    9130:	e3a01000 	mov	r1, #0
    9134:	e59f004c 	ldr	r0, [pc, #76]	; 9188 <uart_init+0x98>
    9138:	ebffffd1 	bl	9084 <put32>
    913c:	e3a01003 	mov	r1, #3
    9140:	e59f0044 	ldr	r0, [pc, #68]	; 918c <uart_init+0x9c>
    9144:	ebffffce 	bl	9084 <put32>
    9148:	e3a01000 	mov	r1, #0
    914c:	e59f003c 	ldr	r0, [pc, #60]	; 9190 <uart_init+0xa0>
    9150:	ebffffcb 	bl	9084 <put32>
    9154:	e3a010c7 	mov	r1, #199	; 0xc7
    9158:	e59f0034 	ldr	r0, [pc, #52]	; 9194 <uart_init+0xa4>
    915c:	ebffffc8 	bl	9084 <put32>
    9160:	e59f1030 	ldr	r1, [pc, #48]	; 9198 <uart_init+0xa8>
    9164:	e59f0030 	ldr	r0, [pc, #48]	; 919c <uart_init+0xac>
    9168:	ebffffc5 	bl	9084 <put32>
    916c:	e3a01003 	mov	r1, #3
    9170:	e1a00004 	mov	r0, r4
    9174:	ebffffc2 	bl	9084 <put32>
    9178:	eb0000df 	bl	94fc <dev_barrier>
    917c:	e8bd8010 	pop	{r4, pc}
    9180:	20215004 	eorcs	r5, r1, r4
    9184:	20215060 	eorcs	r5, r1, r0, rrx
    9188:	20215044 	eorcs	r5, r1, r4, asr #32
    918c:	2021504c 	eorcs	r5, r1, ip, asr #32
    9190:	20215050 	eorcs	r5, r1, r0, asr r0
    9194:	20215048 	eorcs	r5, r1, r8, asr #32
    9198:	0000010e 	andeq	r0, r0, lr, lsl #2
    919c:	20215068 	eorcs	r5, r1, r8, rrx

000091a0 <uart_can_getc>:
    91a0:	e92d4010 	push	{r4, lr}
    91a4:	e59f0008 	ldr	r0, [pc, #8]	; 91b4 <uart_can_getc+0x14>
    91a8:	ebffffc1 	bl	90b4 <get32>
    91ac:	e2000001 	and	r0, r0, #1
    91b0:	e8bd8010 	pop	{r4, pc}
    91b4:	20215064 	eorcs	r5, r1, r4, rrx

000091b8 <uart_can_putc>:
    91b8:	e92d4010 	push	{r4, lr}
    91bc:	e59f0010 	ldr	r0, [pc, #16]	; 91d4 <uart_can_putc+0x1c>
    91c0:	ebffffbb 	bl	90b4 <get32>
    91c4:	e3100002 	tst	r0, #2
    91c8:	13a00001 	movne	r0, #1
    91cc:	03a00000 	moveq	r0, #0
    91d0:	e8bd8010 	pop	{r4, pc}
    91d4:	20215064 	eorcs	r5, r1, r4, rrx

000091d8 <uart_getc>:
    91d8:	e92d4010 	push	{r4, lr}
    91dc:	eb0000c6 	bl	94fc <dev_barrier>
    91e0:	ebffffee 	bl	91a0 <uart_can_getc>
    91e4:	e3500000 	cmp	r0, #0
    91e8:	0afffffc 	beq	91e0 <uart_getc+0x8>
    91ec:	e59f0010 	ldr	r0, [pc, #16]	; 9204 <uart_getc+0x2c>
    91f0:	ebffffaf 	bl	90b4 <get32>
    91f4:	e6ef4070 	uxtb	r4, r0
    91f8:	eb0000bf 	bl	94fc <dev_barrier>
    91fc:	e1a00004 	mov	r0, r4
    9200:	e8bd8010 	pop	{r4, pc}
    9204:	20215040 	eorcs	r5, r1, r0, asr #32

00009208 <uart_putc>:
    9208:	e92d4010 	push	{r4, lr}
    920c:	e1a04000 	mov	r4, r0
    9210:	eb0000b9 	bl	94fc <dev_barrier>
    9214:	ebffffe7 	bl	91b8 <uart_can_putc>
    9218:	e3500000 	cmp	r0, #0
    921c:	0afffffc 	beq	9214 <uart_putc+0xc>
    9220:	e6ef1074 	uxtb	r1, r4
    9224:	e59f0008 	ldr	r0, [pc, #8]	; 9234 <uart_putc+0x2c>
    9228:	ebffff95 	bl	9084 <put32>
    922c:	eb0000b2 	bl	94fc <dev_barrier>
    9230:	e8bd8010 	pop	{r4, pc}
    9234:	20215040 	eorcs	r5, r1, r0, asr #32

00009238 <uart_has_data>:
    9238:	e92d4010 	push	{r4, lr}
    923c:	eb0000ae 	bl	94fc <dev_barrier>
    9240:	ebffffd6 	bl	91a0 <uart_can_getc>
    9244:	e8bd8010 	pop	{r4, pc}

00009248 <gpio_set_function>:
    9248:	e350001f 	cmp	r0, #31
    924c:	812fff1e 	bxhi	lr
    9250:	e3d13007 	bics	r3, r1, #7
    9254:	112fff1e 	bxne	lr
    9258:	e92d4070 	push	{r4, r5, r6, lr}
    925c:	e1a05001 	mov	r5, r1
    9260:	e59f3044 	ldr	r3, [pc, #68]	; 92ac <gpio_set_function+0x64>
    9264:	e0832093 	umull	r2, r3, r3, r0
    9268:	e1a031a3 	lsr	r3, r3, #3
    926c:	e1a06003 	mov	r6, r3
    9270:	e0833103 	add	r3, r3, r3, lsl #2
    9274:	e1a02083 	lsl	r2, r3, #1
    9278:	e0403002 	sub	r3, r0, r2
    927c:	e0834083 	add	r4, r3, r3, lsl #1
    9280:	e2866302 	add	r6, r6, #134217728	; 0x8000000
    9284:	e2866702 	add	r6, r6, #524288	; 0x80000
    9288:	e1a06106 	lsl	r6, r6, #2
    928c:	e1a00006 	mov	r0, r6
    9290:	ebffff89 	bl	90bc <GET32>
    9294:	e3a01007 	mov	r1, #7
    9298:	e1c01411 	bic	r1, r0, r1, lsl r4
    929c:	e1811415 	orr	r1, r1, r5, lsl r4
    92a0:	e1a00006 	mov	r0, r6
    92a4:	ebffff78 	bl	908c <PUT32>
    92a8:	e8bd8070 	pop	{r4, r5, r6, pc}
    92ac:	cccccccd 	stclgt	12, cr12, [ip], {205}	; 0xcd

000092b0 <gpio_set_output>:
    92b0:	e92d4010 	push	{r4, lr}
    92b4:	e3a01001 	mov	r1, #1
    92b8:	ebffffe2 	bl	9248 <gpio_set_function>
    92bc:	e8bd8010 	pop	{r4, pc}

000092c0 <gpio_set_on>:
    92c0:	e350001f 	cmp	r0, #31
    92c4:	812fff1e 	bxhi	lr
    92c8:	e92d4010 	push	{r4, lr}
    92cc:	e3a01001 	mov	r1, #1
    92d0:	e1a01011 	lsl	r1, r1, r0
    92d4:	e59f0004 	ldr	r0, [pc, #4]	; 92e0 <gpio_set_on+0x20>
    92d8:	ebffff6b 	bl	908c <PUT32>
    92dc:	e8bd8010 	pop	{r4, pc}
    92e0:	2020001c 	eorcs	r0, r0, ip, lsl r0

000092e4 <gpio_set_off>:
    92e4:	e350001f 	cmp	r0, #31
    92e8:	812fff1e 	bxhi	lr
    92ec:	e92d4010 	push	{r4, lr}
    92f0:	e3a01001 	mov	r1, #1
    92f4:	e1a01011 	lsl	r1, r1, r0
    92f8:	e59f0004 	ldr	r0, [pc, #4]	; 9304 <gpio_set_off+0x20>
    92fc:	ebffff62 	bl	908c <PUT32>
    9300:	e8bd8010 	pop	{r4, pc}
    9304:	20200028 	eorcs	r0, r0, r8, lsr #32

00009308 <gpio_set_input>:
    9308:	e92d4010 	push	{r4, lr}
    930c:	e3a01000 	mov	r1, #0
    9310:	ebffffcc 	bl	9248 <gpio_set_function>
    9314:	e8bd8010 	pop	{r4, pc}

00009318 <gpio_write>:
    9318:	e92d4010 	push	{r4, lr}
    931c:	e3510000 	cmp	r1, #0
    9320:	1a000001 	bne	932c <gpio_write+0x14>
    9324:	ebffffee 	bl	92e4 <gpio_set_off>
    9328:	e8bd8010 	pop	{r4, pc}
    932c:	ebffffe3 	bl	92c0 <gpio_set_on>
    9330:	e8bd8010 	pop	{r4, pc}

00009334 <gpio_read>:
    9334:	e350001f 	cmp	r0, #31
    9338:	8a000007 	bhi	935c <gpio_read+0x28>
    933c:	e92d4010 	push	{r4, lr}
    9340:	e200401f 	and	r4, r0, #31
    9344:	e59f3018 	ldr	r3, [pc, #24]	; 9364 <gpio_read+0x30>
    9348:	e08302a0 	add	r0, r3, r0, lsr #5
    934c:	ebffff5a 	bl	90bc <GET32>
    9350:	e1a00430 	lsr	r0, r0, r4
    9354:	e2000001 	and	r0, r0, #1
    9358:	e8bd8010 	pop	{r4, pc}
    935c:	e3e00000 	mvn	r0, #0
    9360:	e12fff1e 	bx	lr
    9364:	20200034 	eorcs	r0, r0, r4, lsr r0

00009368 <kmalloc_heap_end>:
    9368:	e59f3004 	ldr	r3, [pc, #4]	; 9374 <kmalloc_heap_end+0xc>
    936c:	e5930000 	ldr	r0, [r3]
    9370:	e12fff1e 	bx	lr
    9374:	0000951c 	andeq	r9, r0, ip, lsl r5

00009378 <kmalloc_heap_start>:
    9378:	e59f0000 	ldr	r0, [pc]	; 9380 <kmalloc_heap_start+0x8>
    937c:	e12fff1e 	bx	lr
    9380:	00009fc8 	andeq	r9, r0, r8, asr #31

00009384 <kmalloc_init_set_start>:
    9384:	e59f3038 	ldr	r3, [pc, #56]	; 93c4 <kmalloc_init_set_start+0x40>
    9388:	e5933000 	ldr	r3, [r3]
    938c:	e1500003 	cmp	r0, r3
    9390:	9a000003 	bls	93a4 <kmalloc_init_set_start+0x20>
    9394:	e59f3028 	ldr	r3, [pc, #40]	; 93c4 <kmalloc_init_set_start+0x40>
    9398:	e5830000 	str	r0, [r3]
    939c:	e5830004 	str	r0, [r3, #4]
    93a0:	e12fff1e 	bx	lr
    93a4:	e92d4010 	push	{r4, lr}
    93a8:	ebfffd85 	bl	89c4 <rpi_reset_putc>
    93ac:	e3a03016 	mov	r3, #22
    93b0:	e59f2010 	ldr	r2, [pc, #16]	; 93c8 <kmalloc_init_set_start+0x44>
    93b4:	e59f1010 	ldr	r1, [pc, #16]	; 93cc <kmalloc_init_set_start+0x48>
    93b8:	e59f0010 	ldr	r0, [pc, #16]	; 93d0 <kmalloc_init_set_start+0x4c>
    93bc:	ebfffd65 	bl	8958 <printk>
    93c0:	ebfffed9 	bl	8f2c <clean_reboot>
    93c4:	0000951c 	andeq	r9, r0, ip, lsl r5
    93c8:	00009a98 	muleq	r0, r8, sl
    93cc:	00009ac8 	andeq	r9, r0, r8, asr #21
    93d0:	00009ad4 	ldrdeq	r9, [r0], -r4

000093d4 <kmalloc>:
    93d4:	e92d4010 	push	{r4, lr}
    93d8:	e3500000 	cmp	r0, #0
    93dc:	0a00000a 	beq	940c <kmalloc+0x38>
    93e0:	e2802007 	add	r2, r0, #7
    93e4:	e3c22007 	bic	r2, r2, #7
    93e8:	e59f3038 	ldr	r3, [pc, #56]	; 9428 <kmalloc+0x54>
    93ec:	e5934000 	ldr	r4, [r3]
    93f0:	e0841002 	add	r1, r4, r2
    93f4:	e5831000 	str	r1, [r3]
    93f8:	e3a01000 	mov	r1, #0
    93fc:	e1a00004 	mov	r0, r4
    9400:	ebfffd4c 	bl	8938 <memset>
    9404:	e1a00004 	mov	r0, r4
    9408:	e8bd8010 	pop	{r4, pc}
    940c:	ebfffd6c 	bl	89c4 <rpi_reset_putc>
    9410:	e3a0301b 	mov	r3, #27
    9414:	e59f2010 	ldr	r2, [pc, #16]	; 942c <kmalloc+0x58>
    9418:	e59f1010 	ldr	r1, [pc, #16]	; 9430 <kmalloc+0x5c>
    941c:	e59f0010 	ldr	r0, [pc, #16]	; 9434 <kmalloc+0x60>
    9420:	ebfffd4c 	bl	8958 <printk>
    9424:	ebfffec0 	bl	8f2c <clean_reboot>
    9428:	0000951c 	andeq	r9, r0, ip, lsl r5
    942c:	00009ab0 			; <UNDEFINED> instruction: 0x00009ab0
    9430:	00009ac8 	andeq	r9, r0, r8, asr #21
    9434:	00009af0 	strdeq	r9, [r0], -r0

00009438 <kmalloc_init>:
    9438:	e12fff1e 	bx	lr

0000943c <kmalloc_heap_ptr>:
    943c:	e92d4010 	push	{r4, lr}
    9440:	ebffffcc 	bl	9378 <kmalloc_heap_start>
    9444:	e8bd8010 	pop	{r4, pc}

00009448 <kmalloc_aligned>:
    9448:	e92d4010 	push	{r4, lr}
    944c:	e2613000 	rsb	r3, r1, #0
    9450:	e1d12003 	bics	r2, r1, r3
    9454:	1a00000b 	bne	9488 <kmalloc_aligned+0x40>
    9458:	e59f2060 	ldr	r2, [pc, #96]	; 94c0 <kmalloc_aligned+0x78>
    945c:	e5922000 	ldr	r2, [r2]
    9460:	e0812002 	add	r2, r1, r2
    9464:	e2422001 	sub	r2, r2, #1
    9468:	e0033002 	and	r3, r3, r2
    946c:	e2411001 	sub	r1, r1, #1
    9470:	e1130001 	tst	r3, r1
    9474:	1a00000a 	bne	94a4 <kmalloc_aligned+0x5c>
    9478:	e59f2040 	ldr	r2, [pc, #64]	; 94c0 <kmalloc_aligned+0x78>
    947c:	e5823000 	str	r3, [r2]
    9480:	ebffffd3 	bl	93d4 <kmalloc>
    9484:	e8bd8010 	pop	{r4, pc}
    9488:	ebfffd4d 	bl	89c4 <rpi_reset_putc>
    948c:	e3a0302a 	mov	r3, #42	; 0x2a
    9490:	e59f202c 	ldr	r2, [pc, #44]	; 94c4 <kmalloc_aligned+0x7c>
    9494:	e59f102c 	ldr	r1, [pc, #44]	; 94c8 <kmalloc_aligned+0x80>
    9498:	e59f002c 	ldr	r0, [pc, #44]	; 94cc <kmalloc_aligned+0x84>
    949c:	ebfffd2d 	bl	8958 <printk>
    94a0:	ebfffea1 	bl	8f2c <clean_reboot>
    94a4:	ebfffd46 	bl	89c4 <rpi_reset_putc>
    94a8:	e3a03030 	mov	r3, #48	; 0x30
    94ac:	e59f2010 	ldr	r2, [pc, #16]	; 94c4 <kmalloc_aligned+0x7c>
    94b0:	e59f1010 	ldr	r1, [pc, #16]	; 94c8 <kmalloc_aligned+0x80>
    94b4:	e59f0014 	ldr	r0, [pc, #20]	; 94d0 <kmalloc_aligned+0x88>
    94b8:	ebfffd26 	bl	8958 <printk>
    94bc:	ebfffe9a 	bl	8f2c <clean_reboot>
    94c0:	0000951c 	andeq	r9, r0, ip, lsl r5
    94c4:	00009ab8 			; <UNDEFINED> instruction: 0x00009ab8
    94c8:	00009ac8 	andeq	r9, r0, r8, asr #21
    94cc:	00009b04 	andeq	r9, r0, r4, lsl #22
    94d0:	00009b64 	andeq	r9, r0, r4, ror #22

000094d4 <kfree>:
    94d4:	e12fff1e 	bx	lr

000094d8 <kfree_all>:
    94d8:	e59f3008 	ldr	r3, [pc, #8]	; 94e8 <kfree_all+0x10>
    94dc:	e5932004 	ldr	r2, [r3, #4]
    94e0:	e5832000 	str	r2, [r3]
    94e4:	e12fff1e 	bx	lr
    94e8:	0000951c 	andeq	r9, r0, ip, lsl r5

000094ec <kfree_after>:
    94ec:	e59f3004 	ldr	r3, [pc, #4]	; 94f8 <kfree_after+0xc>
    94f0:	e5830000 	str	r0, [r3]
    94f4:	e12fff1e 	bx	lr
    94f8:	0000951c 	andeq	r9, r0, ip, lsl r5

000094fc <dev_barrier>:
    94fc:	ea000002 	b	950c <dsb>

00009500 <dmb>:
    9500:	e3a00000 	mov	r0, #0
    9504:	ee070fba 	mcr	15, 0, r0, cr7, cr10, {5}
    9508:	e12fff1e 	bx	lr

0000950c <dsb>:
    950c:	ee070f9a 	mcr	15, 0, r0, cr7, cr10, {4}
    9510:	e12fff1e 	bx	lr

Disassembly of section .data:

00009514 <rpi_putchar>:
    9514:	000089b0 			; <UNDEFINED> instruction: 0x000089b0

00009518 <putk>:
    9518:	000089ec 	andeq	r8, r0, ip, ror #19

0000951c <heap>:
    951c:	00009fc8 	andeq	r9, r0, r8, asr #31

00009520 <heap_start>:
    9520:	00009fc8 	andeq	r9, r0, r8, asr #31

Disassembly of section .rodata:

00009524 <__FUNCTION__.4225>:
    9524:	6d746f6e 	ldclvs	15, cr6, [r4, #-440]!	; 0xfffffe48
    9528:	006e6961 	rsbeq	r6, lr, r1, ror #18
    952c:	74736574 	ldrbtvc	r6, [r3], #-1396	; 0x574
    9530:	75203a33 	strvc	r3, [r0, #-2611]!	; 0xa33
    9534:	61206573 	teqvs	r0, r3, ror r5
    9538:	72657466 	rsbvc	r7, r5, #1711276032	; 0x66000000
    953c:	65726620 	ldrbvs	r6, [r2, #-1568]!	; 0x620
    9540:	00000a65 	andeq	r0, r0, r5, ror #20
    9544:	74726170 	ldrbtvc	r6, [r2], #-368	; 0x170
    9548:	65742d31 	ldrbvs	r2, [r4, #-3377]!	; 0xd31
    954c:	2e337473 	mrccs	4, 1, r7, cr3, cr3, {3}
    9550:	00000063 	andeq	r0, r0, r3, rrx
    9554:	494e4150 	stmdbmi	lr, {r4, r6, r8, lr}^
    9558:	73253a43 	teqvc	r5, #274432	; 0x43000
    955c:	3a73253a 	bcc	1cd2a4c <__bss_end__+0x1cc8a84>
    9560:	693a6425 	ldmdbvs	sl!, {r0, r2, r5, sl, sp, lr}
    9564:	6c61766e 	stclvs	6, cr7, [r1], #-440	; 0xfffffe48
    9568:	65206469 	strvs	r6, [r0, #-1129]!	; 0x469
    956c:	726f7272 	rsbvc	r7, pc, #536870919	; 0x20000007
    9570:	6168203a 	cmnvs	r8, sl, lsr r0
    9574:	25206576 	strcs	r6, [r0, #-1398]!	; 0x576
    9578:	72652064 	rsbvc	r2, r5, #100	; 0x64
    957c:	73726f72 	cmnvc	r2, #456	; 0x1c8
    9580:	70786520 	rsbsvc	r6, r8, r0, lsr #10
    9584:	65746365 	ldrbvs	r6, [r4, #-869]!	; 0x365
    9588:	21312064 	teqcs	r1, r4, rrx
    958c:	000a0a21 	andeq	r0, sl, r1, lsr #20
    9590:	43415254 	movtmi	r5, #4692	; 0x1254
    9594:	00003a45 	andeq	r3, r0, r5, asr #20
    9598:	43435553 	movtmi	r5, #13651	; 0x3553
    959c:	3a535345 	bcc	14de2b8 <__bss_end__+0x14d42f0>
    95a0:	74656420 	strbtvc	r6, [r5], #-1056	; 0x420
    95a4:	65746365 	ldrbvs	r6, [r4, #-869]!	; 0x365
    95a8:	6f632064 	svcvs	0x00632064
    95ac:	70757272 	rsbsvc	r7, r5, r2, ror r2
    95b0:	6e6f6974 	mcrvs	9, 3, r6, cr15, cr4, {3}
    95b4:	0000000a 	andeq	r0, r0, sl

000095b8 <__FUNCTION__.4252>:
    95b8:	63656863 	cmnvs	r5, #6488064	; 0x630000
    95bc:	64685f6b 	strbtvs	r5, [r8], #-3947	; 0xf6b
    95c0:	00000072 	andeq	r0, r0, r2, ror r0

000095c4 <__FUNCTION__.4227>:
    95c4:	695f6b63 	ldmdbvs	pc, {r0, r1, r5, r6, r8, r9, fp, sp, lr}^	; <UNPREDICTABLE>
    95c8:	0074696e 	rsbseq	r6, r4, lr, ror #18

000095cc <__FUNCTION__.4278>:
    95cc:	72666b63 	rsbvc	r6, r6, #101376	; 0x18c00
    95d0:	00006565 	andeq	r6, r0, r5, ror #10

000095d4 <__FUNCTION__.4287>:
    95d4:	6c616b63 	stclvs	11, cr6, [r1], #-396	; 0xfffffe74
    95d8:	00636f6c 	rsbeq	r6, r3, ip, ror #30
    95dc:	4f525245 	svcmi	0x00525245
    95e0:	00003a52 	andeq	r3, r0, r2, asr sl
    95e4:	636f6c62 	cmnvs	pc, #25088	; 0x6200
    95e8:	7025206b 	eorvc	r2, r5, fp, rrx
    95ec:	726f6320 	rsbvc	r6, pc, #32, 6	; 0x80000000
    95f0:	74707572 	ldrbtvc	r7, [r0], #-1394	; 0x572
    95f4:	61206465 	teqvs	r0, r5, ror #8
    95f8:	666f2074 			; <UNDEFINED> instruction: 0x666f2074
    95fc:	74657366 	strbtvc	r7, [r5], #-870	; 0x366
    9600:	0a642520 	beq	1912a88 <__bss_end__+0x1908ac0>
    9604:	00000000 	andeq	r0, r0, r0
    9608:	79626e09 	stmdbvc	r2!, {r0, r3, r9, sl, fp, sp, lr}^
    960c:	3d736574 	cfldr64cc	mvdx6, [r3, #-464]!	; 0xfffffe30
    9610:	000a6425 	andeq	r6, sl, r5, lsr #8
    9614:	6f6c4209 	svcvs	0x006c4209
    9618:	61206b63 	teqvs	r0, r3, ror #22
    961c:	636f6c6c 	cmnvs	pc, #108, 24	; 0x6c00
    9620:	64657461 	strbtvs	r7, [r5], #-1121	; 0x461
    9624:	3a746120 	bcc	1d21aac <__bss_end__+0x1d17ae4>
    9628:	3a732520 	bcc	1cd2ab0 <__bss_end__+0x1cc8ae8>
    962c:	253a7325 	ldrcs	r7, [sl, #-805]!	; 0x325
    9630:	00000a64 	andeq	r0, r0, r4, ror #20
    9634:	6f6c4209 	svcvs	0x006c4209
    9638:	66206b63 	strtvs	r6, [r0], -r3, ror #22
    963c:	64656572 	strbtvs	r6, [r5], #-1394	; 0x572
    9640:	3a746120 	bcc	1d21ac8 <__bss_end__+0x1d17b00>
    9644:	3a732520 	bcc	1cd2acc <__bss_end__+0x1cc8b04>
    9648:	253a7325 	ldrcs	r7, [sl, #-805]!	; 0x325
    964c:	00000a64 	andeq	r0, r0, r4, ror #20
    9650:	5f726468 	svcpl	0x00726468
    9654:	75736b63 	ldrbvc	r6, [r3, #-2915]!	; 0xb63
    9658:	61765f6d 	cmnvs	r6, sp, ror #30
    965c:	203d206c 	eorscs	r2, sp, ip, rrx
    9660:	000a7825 	andeq	r7, sl, r5, lsr #16
    9664:	633e2d68 	teqvs	lr, #104, 26	; 0x1a00
    9668:	6d75736b 	ldclvs	3, cr7, [r5, #-428]!	; 0xfffffe54
    966c:	25203d20 	strcs	r3, [r0, #-3360]!	; 0xd20
    9670:	00000a78 	andeq	r0, r0, r8, ror sl
    9674:	494e4150 	stmdbmi	lr, {r4, r6, r8, lr}^
    9678:	73253a43 	teqvc	r5, #274432	; 0x43000
    967c:	3a73253a 	bcc	1cd2b6c <__bss_end__+0x1cc8ba4>
    9680:	683a6425 	ldmdavs	sl!, {r0, r2, r5, sl, sp, lr}
    9684:	635f7264 	cmpvs	pc, #100, 4	; 0x40000006
    9688:	6d75736b 	ldclvs	3, cr7, [r5, #-428]!	; 0xfffffe54
    968c:	6c61765f 	stclvs	6, cr7, [r1], #-380	; 0xfffffe84
    9690:	203d3d20 	eorscs	r3, sp, r0, lsr #26
    9694:	633e2d68 	teqvs	lr, #104, 26	; 0x1a00
    9698:	6d75736b 	ldclvs	3, cr7, [r5, #-428]!	; 0xfffffe54
    969c:	0000000a 	andeq	r0, r0, sl
    96a0:	6c616b63 	stclvs	11, cr6, [r1], #-396	; 0xfffffe74
    96a4:	2e636f6c 	cdpcs	15, 6, cr6, cr3, cr12, {3}
    96a8:	00000063 	andeq	r0, r0, r3, rrx
    96ac:	494e4150 	stmdbmi	lr, {r4, r6, r8, lr}^
    96b0:	73253a43 	teqvc	r5, #274432	; 0x43000
    96b4:	3a73253a 	bcc	1cd2ba4 <__bss_end__+0x1cc8bdc>
    96b8:	683a6425 	ldmdavs	sl!, {r0, r2, r5, sl, sp, lr}
    96bc:	74733e2d 	ldrbtvc	r3, [r3], #-3629	; 0xe2d
    96c0:	20657461 	rsbcs	r7, r5, r1, ror #8
    96c4:	41203d3d 	teqmi	r0, sp, lsr sp
    96c8:	434f4c4c 	movtmi	r4, #64588	; 0xfc4c
    96cc:	7c204445 	cfstrsvc	mvf4, [r0], #-276	; 0xfffffeec
    96d0:	2d68207c 	stclcs	0, cr2, [r8, #-496]!	; 0xfffffe10
    96d4:	6174733e 	cmnvs	r4, lr, lsr r3
    96d8:	3d206574 	cfstr32cc	mvfx6, [r0, #-464]!	; 0xfffffe30
    96dc:	5246203d 	subpl	r2, r6, #61	; 0x3d
    96e0:	0a444545 	beq	111abfc <__bss_end__+0x1110c34>
    96e4:	00000000 	andeq	r0, r0, r0
    96e8:	494e4150 	stmdbmi	lr, {r4, r6, r8, lr}^
    96ec:	73253a43 	teqvc	r5, #274432	; 0x43000
    96f0:	3a73253a 	bcc	1cd2be0 <__bss_end__+0x1cc8c18>
    96f4:	613a6425 	teqvs	sl, r5, lsr #8
    96f8:	6e67696c 	cdpvs	9, 6, cr6, cr7, cr12, {3}
    96fc:	68286465 	stmdavs	r8!, {r0, r2, r5, r6, sl, sp, lr}
    9700:	5f706165 	svcpl	0x00706165
    9704:	72617473 	rsbvc	r7, r1, #1929379840	; 0x73000000
    9708:	38202c74 	stmdacc	r0!, {r2, r4, r5, r6, sl, fp, sp}
    970c:	00000a29 	andeq	r0, r0, r9, lsr #20
    9710:	657a6973 	ldrbvs	r6, [sl, #-2419]!	; 0x973
    9714:	6820666f 	stmdavs	r0!, {r0, r1, r2, r3, r5, r6, r9, sl, sp, lr}
    9718:	253d7264 	ldrcs	r7, [sp, #-612]!	; 0x264
    971c:	72202c64 	eorvc	r2, r0, #100, 24	; 0x6400
    9720:	6f7a6465 	svcvs	0x007a6465
    9724:	253d656e 	ldrcs	r6, [sp, #-1390]!	; 0x56e
    9728:	00000a64 	andeq	r0, r0, r4, ror #20
    972c:	4f525245 	svcmi	0x00525245
    9730:	73253a52 	teqvc	r5, #335872	; 0x52000
    9734:	3a73253a 	bcc	1cd2c24 <__bss_end__+0x1cc8c5c>
    9738:	203a6425 	eorscs	r6, sl, r5, lsr #8
    973c:	534c4146 	movtpl	r4, #49478	; 0xc146
    9740:	683c2845 	ldmdavs	ip!, {r0, r2, r6, fp, sp}
    9744:	3e706165 	rpwccsz	f6, f0, f5
    9748:	6e203a29 	vmulvs.f32	s6, s0, s19
    974c:	6920746f 	stmdbvs	r0!, {r0, r1, r2, r3, r5, r6, sl, ip, sp, lr}
    9750:	6974696e 	ldmdbvs	r4!, {r1, r2, r3, r5, r6, r8, fp, sp, lr}^
    9754:	7a696c61 	bvc	1a648e0 <__bss_end__+0x1a5a918>
    9758:	0a3f6465 	beq	fe28f4 <__bss_end__+0xfd892c>
    975c:	00000000 	andeq	r0, r0, r0
    9760:	65657266 	strbvs	r7, [r5, #-614]!	; 0x266
    9764:	20676e69 	rsbcs	r6, r7, r9, ror #28
    9768:	000a7025 	andeq	r7, sl, r5, lsr #32
    976c:	6f6c6c61 	svcvs	0x006c6c61
    9770:	69746163 	ldmdbvs	r4!, {r0, r1, r5, r6, r8, sp, lr}^
    9774:	2520676e 	strcs	r6, [r0, #-1902]!	; 0x76e
    9778:	79622064 	stmdbvc	r2!, {r2, r5, r6, sp}^
    977c:	0a736574 	beq	1ce2d54 <__bss_end__+0x1cd8d8c>
    9780:	00000000 	andeq	r0, r0, r0
    9784:	43415254 	movtmi	r5, #4692	; 0x1254
    9788:	52453a45 	subpl	r3, r5, #282624	; 0x45000
    978c:	00524f52 	subseq	r4, r2, r2, asr pc
    9790:	657a6973 	ldrbvs	r6, [sl, #-2419]!	; 0x973
    9794:	65766f20 	ldrbvs	r6, [r6, #-3872]!	; 0xf20
    9798:	6f6c6672 	svcvs	0x006c6672
    979c:	3a646577 	bcc	1922d80 <__bss_end__+0x1918db8>
    97a0:	20642520 	rsbcs	r2, r4, r0, lsr #10
    97a4:	65747962 	ldrbvs	r7, [r4, #-2402]!	; 0x962
    97a8:	73692073 	cmnvc	r9, #115	; 0x73
    97ac:	6f6f7420 	svcvs	0x006f7420
    97b0:	72616c20 	rsbvc	r6, r1, #32, 24	; 0x2000
    97b4:	000a6567 	andeq	r6, sl, r7, ror #10
    97b8:	494e4150 	stmdbmi	lr, {r4, r6, r8, lr}^
    97bc:	73253a43 	teqvc	r5, #274432	; 0x43000
    97c0:	3a73253a 	bcc	1cd2cb0 <__bss_end__+0x1cc8ce8>
    97c4:	733a6425 	teqvc	sl, #620756992	; 0x25000000
    97c8:	20657a69 	rsbcs	r7, r5, r9, ror #20
    97cc:	7265766f 	rsbvc	r7, r5, #116391936	; 0x6f00000
    97d0:	776f6c66 	strbvc	r6, [pc, -r6, ror #24]!
    97d4:	203a6465 	eorscs	r6, sl, r5, ror #8
    97d8:	62206425 	eorvs	r6, r0, #620756992	; 0x25000000
    97dc:	73657479 	cmnvc	r5, #2030043136	; 0x79000000
    97e0:	20736920 	rsbscs	r6, r3, r0, lsr #18
    97e4:	206f6f74 	rsbcs	r6, pc, r4, ror pc	; <UNPREDICTABLE>
    97e8:	6772616c 	ldrbvs	r6, [r2, -ip, ror #2]!
    97ec:	000a0a65 	andeq	r0, sl, r5, ror #20
    97f0:	2074756f 	rsbscs	r7, r4, pc, ror #10
    97f4:	6d20666f 	stcvs	6, cr6, [r0, #-444]!	; 0xfffffe44
    97f8:	726f6d65 	rsbvc	r6, pc, #6464	; 0x1940
    97fc:	20202179 	eorcs	r2, r0, r9, ror r1
    9800:	65766168 	ldrbvs	r6, [r6, #-360]!	; 0x168
    9804:	6c6e6f20 	stclvs	15, cr6, [lr], #-128	; 0xffffff80
    9808:	64252079 	strtvs	r2, [r5], #-121	; 0x79
    980c:	66656c20 	strbtvs	r6, [r5], -r0, lsr #24
    9810:	6e202c74 	mcrvs	12, 1, r2, cr0, cr4, {3}
    9814:	20646565 	rsbcs	r6, r4, r5, ror #10
    9818:	000a6425 	andeq	r6, sl, r5, lsr #8
    981c:	494e4150 	stmdbmi	lr, {r4, r6, r8, lr}^
    9820:	73253a43 	teqvc	r5, #274432	; 0x43000
    9824:	3a73253a 	bcc	1cd2d14 <__bss_end__+0x1cc8d4c>
    9828:	6f3a6425 	svcvs	0x003a6425
    982c:	6f207475 	svcvs	0x00207475
    9830:	656d2066 	strbvs	r2, [sp, #-102]!	; 0x66
    9834:	79726f6d 	ldmdbvc	r2!, {r0, r2, r3, r5, r6, r8, r9, sl, fp, sp, lr}^
    9838:	68202021 	stmdavs	r0!, {r0, r5, sp}
    983c:	20657661 	rsbcs	r7, r5, r1, ror #12
    9840:	796c6e6f 	stmdbvc	ip!, {r0, r1, r2, r3, r5, r6, r9, sl, fp, sp, lr}^
    9844:	20642520 	rsbcs	r2, r4, r0, lsr #10
    9848:	7466656c 	strbtvc	r6, [r6], #-1388	; 0x56c
    984c:	656e202c 	strbvs	r2, [lr, #-44]!	; 0x2c
    9850:	25206465 	strcs	r6, [r0, #-1125]!	; 0x465
    9854:	000a0a64 	andeq	r0, sl, r4, ror #20
    9858:	494e4150 	stmdbmi	lr, {r4, r6, r8, lr}^
    985c:	73253a43 	teqvc	r5, #274432	; 0x43000
    9860:	3a73253a 	bcc	1cd2d50 <__bss_end__+0x1cc8d88>
    9864:	633a6425 	teqvs	sl, #620756992	; 0x25000000
    9868:	6b636568 	blvs	18e2e10 <__bss_end__+0x18d8e48>
    986c:	7264685f 	rsbvc	r6, r4, #6225920	; 0x5f0000
    9870:	0a296828 	beq	a63918 <__bss_end__+0xa59950>
    9874:	00000000 	andeq	r0, r0, r0
    9878:	494e4150 	stmdbmi	lr, {r4, r6, r8, lr}^
    987c:	73253a43 	teqvc	r5, #274432	; 0x43000
    9880:	3a73253a 	bcc	1cd2d70 <__bss_end__+0x1cc8da8>
    9884:	633a6425 	teqvs	sl, #620756992	; 0x25000000
    9888:	6b636568 	blvs	18e2e30 <__bss_end__+0x18d8e68>
    988c:	6f6c625f 	svcvs	0x006c625f
    9890:	68286b63 	stmdavs	r8!, {r0, r1, r5, r6, r8, r9, fp, sp, lr}
    9894:	00000a29 	andeq	r0, r0, r9, lsr #20
    9898:	6c616b63 	stclvs	11, cr6, [r1], #-396	; 0xfffffe74
    989c:	3a636f6c 	bcc	18e5654 <__bss_end__+0x18db68c>
    98a0:	6f6c6c61 	svcvs	0x006c6c61
    98a4:	65746163 	ldrbvs	r6, [r4, #-355]!	; 0x163
    98a8:	64252064 	strtvs	r2, [r5], #-100	; 0x64
    98ac:	74796220 	ldrbtvc	r6, [r9], #-544	; 0x220
    98b0:	202c7365 	eorcs	r7, ip, r5, ror #6
    98b4:	746f7428 	strbtvc	r7, [pc], #-1064	; 98bc <__FUNCTION__.4287+0x2e8>
    98b8:	253d6c61 	ldrcs	r6, [sp, #-3169]!	; 0xc61
    98bc:	202c2964 	eorcs	r2, ip, r4, ror #18
    98c0:	3d727470 	cfldrdcc	mvd7, [r2, #-448]!	; 0xfffffe40
    98c4:	000a7025 	andeq	r7, sl, r5, lsr #32
    98c8:	6e696f67 	cdpvs	15, 6, cr6, cr9, cr7, {3}
    98cc:	6f742067 	svcvs	0x00742067
    98d0:	65686320 	strbvs	r6, [r8, #-800]!	; 0x320
    98d4:	68206b63 	stmdavs	r0!, {r0, r1, r5, r6, r8, r9, fp, sp, lr}
    98d8:	3a706165 	bcc	1c21e74 <__bss_end__+0x1c17eac>
    98dc:	20642520 	rsbcs	r2, r4, r0, lsr #10
    98e0:	65747962 	ldrbvs	r7, [r4, #-2402]!	; 0x962
    98e4:	6c612073 	stclvs	0, cr2, [r1], #-460	; 0xfffffe34
    98e8:	61636f6c 	cmnvs	r3, ip, ror #30
    98ec:	2c646574 	cfstr64cs	mvdx6, [r4], #-464	; 0xfffffe30
    98f0:	20642520 	rsbcs	r2, r4, r0, lsr #10
    98f4:	65747962 	ldrbvs	r7, [r4, #-2402]!	; 0x962
    98f8:	656c2073 	strbvs	r2, [ip, #-115]!	; 0x73
    98fc:	000a7466 	andeq	r7, sl, r6, ror #8
    9900:	64616568 	strbtvs	r6, [r1], #-1384	; 0x568
    9904:	69207265 	stmdbvs	r0!, {r0, r2, r5, r6, r9, ip, sp, lr}
    9908:	6f632073 	svcvs	0x00632073
    990c:	70757272 	rsbsvc	r7, r5, r2, ror r2
    9910:	00646574 	rsbeq	r6, r4, r4, ror r5
    9914:	6f725709 	svcvs	0x00725709
    9918:	62206574 	eorvs	r6, r0, #116, 10	; 0x1d000000
    991c:	6b636f6c 	blvs	18e56d4 <__bss_end__+0x18db70c>
    9920:	74666120 	strbtvc	r6, [r6], #-288	; 0x120
    9924:	66207265 	strtvs	r7, [r0], -r5, ror #4
    9928:	21656572 	smccs	22098	; 0x5652
    992c:	0000000a 	andeq	r0, r0, sl
    9930:	63656863 	cmnvs	r5, #6488064	; 0x630000
    9934:	2064656b 	rsbcs	r6, r4, fp, ror #10
    9938:	62206425 	eorvs	r6, r0, #620756992	; 0x25000000
    993c:	6b636f6c 	blvs	18e56f4 <__bss_end__+0x18db72c>
    9940:	64202c73 	strtvs	r2, [r0], #-3187	; 0xc73
    9944:	63657465 	cmnvs	r5, #1694498816	; 0x65000000
    9948:	20646574 	rsbcs	r6, r4, r4, ror r5
    994c:	65206425 	strvs	r6, [r0, #-1061]!	; 0x425
    9950:	726f7272 	rsbvc	r7, pc, #536870919	; 0x20000007
    9954:	00000a73 	andeq	r0, r0, r3, ror sl
    9958:	43435553 	movtmi	r5, #13651	; 0x3553
    995c:	3a535345 	bcc	14de678 <__bss_end__+0x14d46b0>
    9960:	65686320 	strbvs	r6, [r8, #-800]!	; 0x320
    9964:	64656b63 	strbtvs	r6, [r5], #-2915	; 0xb63
    9968:	20642520 	rsbcs	r2, r4, r0, lsr #10
    996c:	636f6c62 	cmnvs	pc, #25088	; 0x6200
    9970:	202c736b 	eorcs	r7, ip, fp, ror #6
    9974:	65746564 	ldrbvs	r6, [r4, #-1380]!	; 0x564
    9978:	64657463 	strbtvs	r7, [r5], #-1123	; 0x463
    997c:	206f6e20 	rsbcs	r6, pc, r0, lsr #28
    9980:	6f727265 	svcvs	0x00727265
    9984:	000a7372 	andeq	r7, sl, r2, ror r3

00009988 <__FUNCTION__.4237>:
    9988:	74696d65 	strbtvc	r6, [r9], #-3429	; 0xd65
    998c:	00000000 	andeq	r0, r0, r0

00009990 <__FUNCTION__.4185>:
    9990:	5f697072 	svcpl	0x00697072
    9994:	5f746573 	svcpl	0x00746573
    9998:	7074756f 	rsbsvc	r7, r4, pc, ror #10
    999c:	00007475 	andeq	r7, r0, r5, ror r4

000099a0 <__FUNCTION__.4259>:
    99a0:	705f6176 	subsvc	r6, pc, r6, ror r1	; <UNPREDICTABLE>
    99a4:	746e6972 	strbtvc	r6, [lr], #-2418	; 0x972
    99a8:	0000006b 	andeq	r0, r0, fp, rrx
    99ac:	494e4150 	stmdbmi	lr, {r4, r6, r8, lr}^
    99b0:	73253a43 	teqvc	r5, #274432	; 0x43000
    99b4:	3a73253a 	bcc	1cd2ea4 <__bss_end__+0x1cc8edc>
    99b8:	303a6425 	eorscc	r6, sl, r5, lsr #8
    99bc:	0000000a 	andeq	r0, r0, sl
    99c0:	6362696c 	cmnvs	r2, #108, 18	; 0x1b0000
    99c4:	2d61762f 	stclcs	6, cr7, [r1, #-188]!	; 0xffffff44
    99c8:	6e697270 	mcrvs	2, 3, r7, cr9, cr0, {3}
    99cc:	632e6b74 	teqvs	lr, #116, 22	; 0x1d000
    99d0:	00000000 	andeq	r0, r0, r0
    99d4:	33323130 	teqcc	r2, #48, 2
    99d8:	37363534 			; <UNDEFINED> instruction: 0x37363534
    99dc:	00003938 	andeq	r3, r0, r8, lsr r9
    99e0:	33323130 	teqcc	r2, #48, 2
    99e4:	37363534 			; <UNDEFINED> instruction: 0x37363534
    99e8:	62613938 	rsbvs	r3, r1, #56, 18	; 0xe0000
    99ec:	66656463 	strbtvs	r6, [r5], -r3, ror #8
    99f0:	00000000 	andeq	r0, r0, r0
    99f4:	00003130 	andeq	r3, r0, r0, lsr r1
    99f8:	494e4150 	stmdbmi	lr, {r4, r6, r8, lr}^
    99fc:	73253a43 	teqvc	r5, #274432	; 0x43000
    9a00:	3a73253a 	bcc	1cd2ef0 <__bss_end__+0x1cc8f28>
    9a04:	703a6425 	eorsvc	r6, sl, r5, lsr #8
    9a08:	5f637475 	svcpl	0x00637475
    9a0c:	000a7066 	andeq	r7, sl, r6, rrx
    9a10:	494e4150 	stmdbmi	lr, {r4, r6, r8, lr}^
    9a14:	73253a43 	teqvc	r5, #274432	; 0x43000
    9a18:	3a73253a 	bcc	1cd2f08 <__bss_end__+0x1cc8f40>
    9a1c:	773a6425 	ldrvc	r6, [sl, -r5, lsr #8]!
    9a20:	68746469 	ldmdavs	r4!, {r0, r3, r5, r6, sl, sp, lr}^
    9a24:	33203c20 	teqcc	r0, #32, 24	; 0x2000
    9a28:	00000a32 	andeq	r0, r0, r2, lsr sl
    9a2c:	494e4150 	stmdbmi	lr, {r4, r6, r8, lr}^
    9a30:	73253a43 	teqvc	r5, #274432	; 0x43000
    9a34:	3a73253a 	bcc	1cd2f24 <__bss_end__+0x1cc8f5c>
    9a38:	663a6425 	ldrtvs	r6, [sl], -r5, lsr #8
    9a3c:	74616f6c 	strbtvc	r6, [r1], #-3948	; 0xf6c
    9a40:	746f6e20 	strbtvc	r6, [pc], #-3616	; 9a48 <__FUNCTION__.4259+0xa8>
    9a44:	616e6520 	cmnvs	lr, r0, lsr #10
    9a48:	64656c62 	strbtvs	r6, [r5], #-3170	; 0xc62
    9a4c:	0a212121 	beq	851ed8 <__bss_end__+0x847f10>
    9a50:	00000000 	andeq	r0, r0, r0
    9a54:	494e4150 	stmdbmi	lr, {r4, r6, r8, lr}^
    9a58:	73253a43 	teqvc	r5, #274432	; 0x43000
    9a5c:	3a73253a 	bcc	1cd2f4c <__bss_end__+0x1cc8f84>
    9a60:	703a6425 	eorsvc	r6, sl, r5, lsr #8
    9a64:	746e6972 	strbtvc	r6, [lr], #-2418	; 0x972
    9a68:	6e203a6b 	vnmulvs.f32	s6, s0, s23
    9a6c:	6820746f 	stmdavs	r0!, {r0, r1, r2, r3, r5, r6, sl, ip, sp, lr}
    9a70:	6c646e61 	stclvs	14, cr6, [r4], #-388	; 0xfffffe7c
    9a74:	20676e69 	rsbcs	r6, r7, r9, ror #28
    9a78:	63657073 	cmnvs	r5, #115	; 0x73
    9a7c:	65696669 	strbvs	r6, [r9, #-1641]!	; 0x669
    9a80:	25272072 	strcs	r2, [r7, #-114]!	; 0x72
    9a84:	0a0a2763 	beq	293818 <__bss_end__+0x289850>
    9a88:	00000000 	andeq	r0, r0, r0
    9a8c:	454e4f44 	strbmi	r4, [lr, #-3908]	; 0xf44
    9a90:	0a212121 	beq	851f1c <__bss_end__+0x847f54>
    9a94:	00000000 	andeq	r0, r0, r0

00009a98 <__FUNCTION__.4237>:
    9a98:	6c616d6b 	stclvs	13, cr6, [r1], #-428	; 0xfffffe54
    9a9c:	5f636f6c 	svcpl	0x00636f6c
    9aa0:	74696e69 	strbtvc	r6, [r9], #-3689	; 0xe69
    9aa4:	7465735f 	strbtvc	r7, [r5], #-863	; 0x35f
    9aa8:	6174735f 	cmnvs	r4, pc, asr r3
    9aac:	00007472 	andeq	r7, r0, r2, ror r4

00009ab0 <__FUNCTION__.4241>:
    9ab0:	6c616d6b 	stclvs	13, cr6, [r1], #-428	; 0xfffffe54
    9ab4:	00636f6c 	rsbeq	r6, r3, ip, ror #30

00009ab8 <__FUNCTION__.4253>:
    9ab8:	6c616d6b 	stclvs	13, cr6, [r1], #-428	; 0xfffffe54
    9abc:	5f636f6c 	svcpl	0x00636f6c
    9ac0:	67696c61 	strbvs	r6, [r9, -r1, ror #24]!
    9ac4:	0064656e 	rsbeq	r6, r4, lr, ror #10
    9ac8:	6c616d6b 	stclvs	13, cr6, [r1], #-428	; 0xfffffe54
    9acc:	2e636f6c 	cdpcs	15, 6, cr6, cr3, cr12, {3}
    9ad0:	00000063 	andeq	r0, r0, r3, rrx
    9ad4:	494e4150 	stmdbmi	lr, {r4, r6, r8, lr}^
    9ad8:	73253a43 	teqvc	r5, #274432	; 0x43000
    9adc:	3a73253a 	bcc	1cd2fcc <__bss_end__+0x1cc9004>
    9ae0:	613a6425 	teqvs	sl, r5, lsr #8
    9ae4:	20726464 	rsbscs	r6, r2, r4, ror #8
    9ae8:	6568203e 	strbvs	r2, [r8, #-62]!	; 0x3e
    9aec:	000a7061 	andeq	r7, sl, r1, rrx
    9af0:	494e4150 	stmdbmi	lr, {r4, r6, r8, lr}^
    9af4:	73253a43 	teqvc	r5, #274432	; 0x43000
    9af8:	3a73253a 	bcc	1cd2fe8 <__bss_end__+0x1cc9020>
    9afc:	733a6425 	teqvc	sl, #620756992	; 0x25000000
    9b00:	00000a7a 	andeq	r0, r0, sl, ror sl
    9b04:	4f525245 	svcmi	0x00525245
    9b08:	73253a52 	teqvc	r5, #335872	; 0x52000
    9b0c:	3a73253a 	bcc	1cd2ffc <__bss_end__+0x1cc9034>
    9b10:	203a6425 	eorscs	r6, sl, r5, lsr #8
    9b14:	534c4146 	movtpl	r4, #49478	; 0xc146
    9b18:	283c2845 	ldmdacs	ip!, {r0, r2, r6, fp, sp}
    9b1c:	6c612828 	stclvs	8, cr2, [r1], #-160	; 0xffffff60
    9b20:	6d6e6769 	stclvs	7, cr6, [lr, #-420]!	; 0xfffffe5c
    9b24:	29746e65 	ldmdbcs	r4!, {r0, r2, r5, r6, r9, sl, fp, sp, lr}^
    9b28:	61282d26 	teqvs	r8, r6, lsr #26
    9b2c:	6e67696c 	cdpvs	9, 6, cr6, cr7, cr12, {3}
    9b30:	746e656d 	strbtvc	r6, [lr], #-1389	; 0x56d
    9b34:	3d202929 	stccc	9, cr2, [r0, #-164]!	; 0xffffff5c
    9b38:	6128203d 	teqvs	r8, sp, lsr r0
    9b3c:	6e67696c 	cdpvs	9, 6, cr6, cr7, cr12, {3}
    9b40:	746e656d 	strbtvc	r6, [lr], #-1389	; 0x56d
    9b44:	293e2929 	ldmdbcs	lr!, {r0, r3, r5, r8, fp, sp}
    9b48:	7361203a 	cmnvc	r1, #58	; 0x3a
    9b4c:	696d7573 	stmdbvs	sp!, {r0, r1, r4, r5, r6, r8, sl, ip, sp, lr}^
    9b50:	7020676e 	eorvc	r6, r0, lr, ror #14
    9b54:	7265776f 	rsbvc	r7, r5, #29097984	; 0x1bc0000
    9b58:	20666f20 	rsbcs	r6, r6, r0, lsr #30
    9b5c:	0a6f7774 	beq	1be7934 <__bss_end__+0x1bdd96c>
    9b60:	00000000 	andeq	r0, r0, r0
    9b64:	4f525245 	svcmi	0x00525245
    9b68:	73253a52 	teqvc	r5, #335872	; 0x52000
    9b6c:	3a73253a 	bcc	1cd305c <__bss_end__+0x1cc9094>
    9b70:	203a6425 	eorscs	r6, sl, r5, lsr #8
    9b74:	534c4146 	movtpl	r4, #49478	; 0xc146
    9b78:	283c2845 	ldmdacs	ip!, {r0, r2, r6, fp, sp}
    9b7c:	29682828 	stmdbcs	r8!, {r3, r5, fp, sp}^
    9b80:	28202620 	stmdacs	r0!, {r5, r9, sl, sp}
    9b84:	70797428 	rsbsvc	r7, r9, r8, lsr #8
    9b88:	28666f65 	stmdacs	r6!, {r0, r2, r5, r6, r8, r9, sl, fp, sp, lr}^
    9b8c:	28292968 	stmdacs	r9!, {r3, r5, r6, r8, fp, sp}
    9b90:	67696c61 	strbvs	r6, [r9, -r1, ror #24]!
    9b94:	6e656d6e 	cdpvs	13, 6, cr6, cr5, cr14, {3}
    9b98:	2d202974 	stccs	9, cr2, [r0, #-464]!	; 0xfffffe30
    9b9c:	29293120 	stmdbcs	r9!, {r5, r8, ip, sp}
    9ba0:	203d3d20 	eorscs	r3, sp, r0, lsr #26
    9ba4:	293e2930 	ldmdbcs	lr!, {r4, r5, r8, fp, sp}
    9ba8:	6d69203a 	stclvs	0, cr2, [r9, #-232]!	; 0xffffff18
    9bac:	73736f70 	cmnvc	r3, #112, 30	; 0x1c0
    9bb0:	656c6269 	strbvs	r6, [ip, #-617]!	; 0x269
    9bb4:	0000000a 	andeq	r0, r0, sl

Disassembly of section .bss:

00009bb8 <__bss_start__>:
    9bb8:	00000000 	andeq	r0, r0, r0

00009bbc <heap>:
    9bbc:	00000000 	andeq	r0, r0, r0

00009bc0 <heap_end>:
    9bc0:	00000000 	andeq	r0, r0, r0

00009bc4 <buf.4185>:
	...

Disassembly of section .ARM.attributes:

00000000 <.ARM.attributes>:
   0:	00002a41 	andeq	r2, r0, r1, asr #20
   4:	61656100 	cmnvs	r5, r0, lsl #2
   8:	01006962 	tsteq	r0, r2, ror #18
   c:	00000020 	andeq	r0, r0, r0, lsr #32
  10:	4b5a3605 	blmi	168d82c <__bss_end__+0x1683864>
  14:	08070600 	stmdaeq	r7, {r9, sl}
  18:	12010901 	andne	r0, r1, #16384	; 0x4000
  1c:	15011404 	strne	r1, [r1, #-1028]	; 0x404
  20:	18031701 	stmdane	r3, {r0, r8, r9, sl, ip}
  24:	22011a01 	andcs	r1, r1, #4096	; 0x1000
  28:	Address 0x0000000000000028 is out of bounds.


Disassembly of section .comment:

00000000 <.comment>:
   0:	3a434347 	bcc	10d0d24 <__bss_end__+0x10c6d5c>
   4:	4e472820 	cdpmi	8, 4, cr2, cr7, cr0, {1}
   8:	34202955 	strtcc	r2, [r0], #-2389	; 0x955
   c:	332e382e 	teqcc	lr, #3014656	; 0x2e0000
  10:	43434700 	movtmi	r4, #14080	; 0x3700
  14:	3128203a 	teqcc	r8, sl, lsr r0
  18:	2e363a35 	mrccs	10, 1, r3, cr6, cr5, {1}
  1c:	2b312e33 	blcs	c4b8f0 <__bss_end__+0xc41928>
  20:	326e7673 	rsbcc	r7, lr, #120586240	; 0x7300000
  24:	33303335 	teqcc	r0, #-738197504	; 0xd4000000
  28:	62312d39 	eorsvs	r2, r1, #3648	; 0xe40
  2c:	646c6975 	strbtvs	r6, [ip], #-2421	; 0x975
  30:	36202931 			; <UNDEFINED> instruction: 0x36202931
  34:	312e332e 	teqcc	lr, lr, lsr #6
  38:	31303220 	teqcc	r0, r0, lsr #4
  3c:	32363037 	eorscc	r3, r6, #55	; 0x37
  40:	Address 0x0000000000000040 is out of bounds.


Disassembly of section .debug_info:

00000000 <.debug_info>:
       0:	00000301 	andeq	r0, r0, r1, lsl #6
       4:	00000004 	andeq	r0, r0, r4
       8:	01040000 	mrseq	r0, (UNDEF: 4)
       c:	0000000f 	andeq	r0, r0, pc
      10:	00008b01 	andeq	r8, r0, r1, lsl #22
      14:	00009900 	andeq	r9, r0, r0, lsl #18
      18:	00801000 	addeq	r1, r0, r0
      1c:	0000d000 	andeq	sp, r0, r0
      20:	00000000 	andeq	r0, r0, r0
      24:	05040200 	streq	r0, [r4, #-512]	; 0x200
      28:	00746e69 	rsbseq	r6, r4, r9, ror #28
      2c:	00000003 	andeq	r0, r0, r3
      30:	37d40200 	ldrbcc	r0, [r4, r0, lsl #4]
      34:	04000000 	streq	r0, [r0], #-0
      38:	013e0704 	teqeq	lr, r4, lsl #14
      3c:	01040000 	mrseq	r0, (UNDEF: 4)
      40:	00007f06 	andeq	r7, r0, r6, lsl #30
      44:	05020400 	streq	r0, [r2, #-1024]	; 0x400
      48:	00000176 	andeq	r0, r0, r6, ror r1
      4c:	66050404 	strvs	r0, [r5], -r4, lsl #8
      50:	04000001 	streq	r0, [r0], #-1
      54:	01610508 	cmneq	r1, r8, lsl #10
      58:	01040000 	mrseq	r0, (UNDEF: 4)
      5c:	00007d08 	andeq	r7, r0, r8, lsl #26
      60:	07020400 	streq	r0, [r2, -r0, lsl #8]
      64:	000000f4 	strdeq	r0, [r0], -r4
      68:	00010703 	andeq	r0, r1, r3, lsl #14
      6c:	73340300 	teqvc	r4, #0, 6
      70:	04000000 	streq	r0, [r0], #-0
      74:	01390704 	teqeq	r9, r4, lsl #14
      78:	08040000 	stmdaeq	r4, {}	; <UNPREDICTABLE>
      7c:	00013407 	andeq	r3, r1, r7, lsl #8
      80:	07040400 	streq	r0, [r4, -r0, lsl #8]
      84:	00000158 	andeq	r0, r0, r8, asr r1
      88:	04060405 	streq	r0, [r6], #-1029	; 0x405
      8c:	00000090 	muleq	r0, r0, r0
      90:	86080104 	strhi	r0, [r8], -r4, lsl #2
      94:	06000000 	streq	r0, [r0], -r0
      98:	00009d04 	andeq	r9, r0, r4, lsl #26
      9c:	00900700 	addseq	r0, r0, r0, lsl #14
      a0:	90080000 	andls	r0, r8, r0
      a4:	b2000000 	andlt	r0, r0, #0
      a8:	09000000 	stmdbeq	r0, {}	; <UNPREDICTABLE>
      ac:	00000081 	andeq	r0, r0, r1, lsl #1
      b0:	660a0007 	strvs	r0, [sl], -r7
      b4:	01000000 	mrseq	r0, (UNDEF: 0)
      b8:	00801005 	addeq	r1, r0, r5
      bc:	0000d000 	andeq	sp, r0, r0
      c0:	319c0100 	orrscc	r0, ip, r0, lsl #2
      c4:	0b000002 	bleq	d4 <_start-0x7f2c>
      c8:	0a01006e 	beq	40288 <__bss_end__+0x362c0>
      cc:	00000037 	andeq	r0, r0, r7, lsr r0
      d0:	00100000 	andseq	r0, r0, r0
      d4:	0100700c 	tsteq	r0, ip
      d8:	00008a0d 	andeq	r8, r0, sp, lsl #20
      dc:	00000000 	andeq	r0, r0, r0
      e0:	011f0d00 	tsteq	pc, r0, lsl #26
      e4:	02310000 	eorseq	r0, r1, #0
      e8:	03050000 	movweq	r0, #20480	; 0x5000
      ec:	00009524 	andeq	r9, r0, r4, lsr #10
      f0:	0001800e 	andeq	r8, r1, lr
      f4:	37120100 	ldrcc	r0, [r2, -r0, lsl #2]
      f8:	1e000000 	cdpne	0, 0, cr0, cr0, cr0, {0}
      fc:	0f000000 	svceq	0x00000000
     100:	00008020 	andeq	r8, r0, r0, lsr #32
     104:	00000236 	andeq	r0, r0, r6, lsr r2
     108:	00000116 	andeq	r0, r0, r6, lsl r1
     10c:	05500110 	ldrbeq	r0, [r0, #-272]	; 0x110
     110:	00952c03 	addseq	r2, r5, r3, lsl #24
     114:	280f0000 	stmdacs	pc, {}	; <UNPREDICTABLE>
     118:	4c000080 	stcmi	0, cr0, [r0], {128}	; 0x80
     11c:	2b000002 	blcs	12c <_start-0x7ed4>
     120:	10000001 	andne	r0, r0, r1
     124:	40035001 	andmi	r5, r3, r1
     128:	0f002440 	svceq	0x00002440
     12c:	00008030 	andeq	r8, r0, r0, lsr r0
     130:	0000025d 	andeq	r0, r0, sp, asr r2
     134:	00000140 	andeq	r0, r0, r0, asr #2
     138:	03500110 	cmpeq	r0, #16, 2
     13c:	00244040 	eoreq	r4, r4, r0, asr #32
     140:	0080380f 	addeq	r3, r0, pc, lsl #16
     144:	00027200 	andeq	r7, r2, r0, lsl #4
     148:	00015500 	andeq	r5, r1, r0, lsl #10
     14c:	51011000 	mrspl	r1, (UNDEF: 1)
     150:	24404003 	strbcs	r4, [r0], #-3
     154:	80540f00 	subshi	r0, r4, r0, lsl #30
     158:	02880000 	addeq	r0, r8, #0
     15c:	01790000 	cmneq	r9, r0
     160:	01100000 	tsteq	r0, r0
     164:	103d0153 	eorsne	r0, sp, r3, asr r1
     168:	75025201 	strvc	r5, [r2, #-513]	; 0x201
     16c:	51011000 	mrspl	r1, (UNDEF: 1)
     170:	10007602 	andne	r7, r0, r2, lsl #12
     174:	34015001 	strcc	r5, [r1], #-1
     178:	80640f00 	rsbhi	r0, r4, r0, lsl #30
     17c:	02ac0000 	adceq	r0, ip, #0
     180:	01970000 	orrseq	r0, r7, r0
     184:	01100000 	tsteq	r0, r0
     188:	10340152 	eorsne	r0, r4, r2, asr r1
     18c:	30015101 	andcc	r5, r1, r1, lsl #2
     190:	02500110 	subseq	r0, r0, #16, 2
     194:	0f000074 	svceq	0x00000074
     198:	00008078 	andeq	r8, r0, r8, ror r0
     19c:	000002cb 	andeq	r0, r0, fp, asr #5
     1a0:	000001bc 			; <UNDEFINED> instruction: 0x000001bc
     1a4:	01530110 	cmpeq	r3, r0, lsl r1
     1a8:	5201103f 	andpl	r1, r1, #63	; 0x3f
     1ac:	10007502 	andne	r7, r0, r2, lsl #10
     1b0:	76025101 	strvc	r5, [r2], -r1, lsl #2
     1b4:	50011000 	andpl	r1, r1, r0
     1b8:	00007402 	andeq	r7, r0, r2, lsl #8
     1bc:	00808411 	addeq	r8, r0, r1, lsl r4
     1c0:	0002eb00 	andeq	lr, r2, r0, lsl #22
     1c4:	80941100 	addshi	r1, r4, r0, lsl #2
     1c8:	02f60000 	rscseq	r0, r6, #0
     1cc:	ac0f0000 	stcge	0, cr0, [pc], {-0}
     1d0:	36000080 	strcc	r0, [r0], -r0, lsl #1
     1d4:	fd000002 	stc2	0, cr0, [r0, #-8]
     1d8:	10000001 	andne	r0, r0, r1
     1dc:	44015301 	strmi	r5, [r1], #-769	; 0x301
     1e0:	02520110 	subseq	r0, r2, #16, 2
     1e4:	01100075 	tsteq	r0, r5, ror r0
     1e8:	00760251 	rsbseq	r0, r6, r1, asr r2
     1ec:	05500110 	ldrbeq	r0, [r0, #-272]	; 0x110
     1f0:	00955403 	addseq	r5, r5, r3, lsl #8
     1f4:	7d021000 	stcvc	0, cr1, [r2, #-0]
     1f8:	00740200 	rsbseq	r0, r4, r0, lsl #4
     1fc:	80b01100 	adcshi	r1, r0, r0, lsl #2
     200:	02fd0000 	rscseq	r0, sp, #0
     204:	b80f0000 	stmdalt	pc, {}	; <UNPREDICTABLE>
     208:	36000080 	strcc	r0, [r0], -r0, lsl #1
     20c:	1d000002 	stcne	0, cr0, [r0, #-8]
     210:	10000002 	andne	r0, r0, r2
     214:	03055001 	movweq	r5, #20481	; 0x5001
     218:	00009590 	muleq	r0, r0, r5
     21c:	80c01200 	sbchi	r1, r0, r0, lsl #4
     220:	02360000 	eorseq	r0, r6, #0
     224:	01100000 	tsteq	r0, r0
     228:	98030550 	stmdals	r3, {r4, r6, r8, sl}
     22c:	00000095 	muleq	r0, r5, r0
     230:	00a20700 	adceq	r0, r2, r0, lsl #14
     234:	b2130000 	andslt	r0, r3, #0
     238:	04000003 	streq	r0, [r0], #-3
     23c:	00002529 	andeq	r2, r0, r9, lsr #10
     240:	00024c00 	andeq	r4, r2, r0, lsl #24
     244:	00971400 	addseq	r1, r7, r0, lsl #8
     248:	00150000 	andseq	r0, r5, r0
     24c:	00018516 	andeq	r8, r1, r6, lsl r5
     250:	5d720400 	cfldrdpl	mvd0, [r2, #-0]
     254:	14000002 	strne	r0, [r0], #-2
     258:	00000037 	andeq	r0, r0, r7, lsr r0
     25c:	01101300 	tsteq	r0, r0, lsl #6
     260:	6c040000 	stcvs	0, cr0, [r4], {-0}
     264:	00000088 	andeq	r0, r0, r8, lsl #1
     268:	00000272 	andeq	r0, r0, r2, ror r2
     26c:	00003714 	andeq	r3, r0, r4, lsl r7
     270:	2c160000 	ldccs	0, cr0, [r6], {-0}
     274:	05000001 	streq	r0, [r0, #-1]
     278:	00028877 	andeq	r8, r2, r7, ror r8
     27c:	00881400 	addeq	r1, r8, r0, lsl #8
     280:	37140000 	ldrcc	r0, [r4, -r0]
     284:	00000000 	andeq	r0, r0, r0
     288:	00000713 	andeq	r0, r0, r3, lsl r7
     28c:	88740500 	ldmdahi	r4!, {r8, sl}^
     290:	ac000000 	stcge	0, cr0, [r0], {-0}
     294:	14000002 	strne	r0, [r0], #-2
     298:	00000068 	andeq	r0, r0, r8, rrx
     29c:	00009714 	andeq	r9, r0, r4, lsl r7
     2a0:	00971400 	addseq	r1, r7, r0, lsl #8
     2a4:	37140000 	ldrcc	r0, [r4, -r0]
     2a8:	00000000 	andeq	r0, r0, r0
     2ac:	00011813 	andeq	r1, r1, r3, lsl r8
     2b0:	881b0600 	ldmdahi	fp, {r9, sl}
     2b4:	cb000000 	blgt	2bc <_start-0x7d44>
     2b8:	14000002 	strne	r0, [r0], #-2
     2bc:	00000088 	andeq	r0, r0, r8, lsl #1
     2c0:	00002514 	andeq	r2, r0, r4, lsl r5
     2c4:	002c1400 	eoreq	r1, ip, r0, lsl #8
     2c8:	16000000 	strne	r0, [r0], -r0
     2cc:	0000016f 	andeq	r0, r0, pc, ror #2
     2d0:	02eb7505 	rsceq	r7, fp, #20971520	; 0x1400000
     2d4:	88140000 	ldmdahi	r4, {}	; <UNPREDICTABLE>
     2d8:	14000000 	strne	r0, [r0], #-0
     2dc:	00000097 	muleq	r0, r7, r0
     2e0:	00009714 	andeq	r9, r0, r4, lsl r7
     2e4:	00371400 	eorseq	r1, r7, r0, lsl #8
     2e8:	17000000 	strne	r0, [r0, -r0]
     2ec:	0000006e 	andeq	r0, r0, lr, rrx
     2f0:	00257d05 	eoreq	r7, r5, r5, lsl #26
     2f4:	9c180000 	ldcls	0, cr0, [r8], {-0}
     2f8:	04000001 	streq	r0, [r0], #-1
     2fc:	014b181e 	cmpeq	fp, lr, lsl r8
     300:	65040000 	strvs	r0, [r4, #-0]
     304:	000e9100 	andeq	r9, lr, r0, lsl #2
     308:	3b000400 	blcc	1310 <_start-0x6cf0>
     30c:	04000001 	streq	r0, [r0], #-1
     310:	00000f01 	andeq	r0, r0, r1, lsl #30
     314:	02400100 	subeq	r0, r0, #0, 2
     318:	00990000 	addseq	r0, r9, r0
     31c:	80e00000 	rschi	r0, r0, r0
     320:	07680000 	strbeq	r0, [r8, -r0]!
     324:	01660000 	cmneq	r6, r0
     328:	04020000 	streq	r0, [r2], #-0
     32c:	746e6905 	strbtvc	r6, [lr], #-2309	; 0x905
     330:	00000300 	andeq	r0, r0, r0, lsl #6
     334:	d4030000 	strle	r0, [r3], #-0
     338:	00000037 	andeq	r0, r0, r7, lsr r0
     33c:	3e070404 	cdpcc	4, 0, cr0, cr7, cr4, {0}
     340:	04000001 	streq	r0, [r0], #-1
     344:	007f0601 	rsbseq	r0, pc, r1, lsl #12
     348:	02040000 	andeq	r0, r4, #0
     34c:	00017605 	andeq	r7, r1, r5, lsl #12
     350:	05040400 	streq	r0, [r4, #-1024]	; 0x400
     354:	00000166 	andeq	r0, r0, r6, ror #2
     358:	61050804 	tstvs	r5, r4, lsl #16
     35c:	03000001 	movweq	r0, #1
     360:	00000303 	andeq	r0, r0, r3, lsl #6
     364:	00652e04 	rsbeq	r2, r5, r4, lsl #28
     368:	01040000 	mrseq	r0, (UNDEF: 4)
     36c:	00007d08 	andeq	r7, r0, r8, lsl #26
     370:	07020400 	streq	r0, [r2, -r0, lsl #8]
     374:	000000f4 	strdeq	r0, [r0], -r4
     378:	00010703 	andeq	r0, r1, r3, lsl #14
     37c:	7e340400 	cfabssvc	mvf0, mvf4
     380:	04000000 	streq	r0, [r0], #-0
     384:	01390704 	teqeq	r9, r4, lsl #14
     388:	08040000 	stmdaeq	r4, {}	; <UNPREDICTABLE>
     38c:	00013407 	andeq	r3, r1, r7, lsl #8
     390:	07040400 	streq	r0, [r4, -r0, lsl #8]
     394:	00000158 	andeq	r0, r0, r8, asr r1
     398:	04060405 	streq	r0, [r6], #-1029	; 0x405
     39c:	0000009b 	muleq	r0, fp, r0
     3a0:	86080104 	strhi	r0, [r8], -r4, lsl #2
     3a4:	06000000 	streq	r0, [r0], -r0
     3a8:	0000a804 	andeq	sl, r0, r4, lsl #16
     3ac:	009b0700 	addseq	r0, fp, r0, lsl #14
     3b0:	9b080000 	blls	2003b8 <__bss_end__+0x1f63f0>
     3b4:	bd000000 	stclt	0, cr0, [r0, #-0]
     3b8:	09000000 	stmdbeq	r0, {}	; <UNPREDICTABLE>
     3bc:	0000008c 	andeq	r0, r0, ip, lsl #1
     3c0:	010a0007 	tsteq	sl, r7
     3c4:	00d22402 	sbcseq	r2, r2, r2, lsl #8
     3c8:	e40b0000 	str	r0, [fp], #-0
     3cc:	0b000001 	bleq	3d8 <_start-0x7c28>
     3d0:	0001de0b 	andeq	sp, r1, fp, lsl #28
     3d4:	0c000c00 	stceq	12, cr0, [r0], {-0}
     3d8:	ff26020c 			; <UNDEFINED> instruction: 0xff26020c
     3dc:	0d000000 	stceq	0, cr0, [r0, #-0]
     3e0:	000007a7 	andeq	r0, r0, r7, lsr #15
     3e4:	00a22702 	adceq	r2, r2, r2, lsl #14
     3e8:	0d000000 	stceq	0, cr0, [r0, #-0]
     3ec:	00000a71 	andeq	r0, r0, r1, ror sl
     3f0:	00a22802 	adceq	r2, r2, r2, lsl #16
     3f4:	0d040000 	stceq	0, cr0, [r4, #-0]
     3f8:	000002e1 	andeq	r0, r0, r1, ror #5
     3fc:	00372902 	eorseq	r2, r7, r2, lsl #18
     400:	00080000 	andeq	r0, r8, r0
     404:	00028e03 	andeq	r8, r2, r3, lsl #28
     408:	d22a0200 	eorle	r0, sl, #0, 4
     40c:	0e000000 	cdpeq	0, 0, cr0, cr0, cr0, {0}
     410:	0000032b 	andeq	r0, r0, fp, lsr #6
     414:	8f2d0238 	svchi	0x002d0238
     418:	0d000001 	stceq	0, cr0, [r0, #-4]
     41c:	0000026c 	andeq	r0, r0, ip, ror #4
     420:	00732e02 	rsbseq	r2, r3, r2, lsl #28
     424:	0d000000 	stceq	0, cr0, [r0, #-0]
     428:	00000311 	andeq	r0, r0, r1, lsl r3
     42c:	00732f02 	rsbseq	r2, r3, r2, lsl #30
     430:	0d040000 	stceq	0, cr0, [r4, #-0]
     434:	00000632 	andeq	r0, r0, r2, lsr r6
     438:	00733002 	rsbseq	r3, r3, r2
     43c:	0d080000 	stceq	0, cr0, [r8, #-0]
     440:	00000258 	andeq	r0, r0, r8, asr r2
     444:	00733402 	rsbseq	r3, r3, r2, lsl #8
     448:	0d0c0000 	stceq	0, cr0, [ip, #-0]
     44c:	0000024a 	andeq	r0, r0, sl, asr #4
     450:	00ff3602 	rscseq	r3, pc, r2, lsl #12
     454:	0d100000 	ldceq	0, cr0, [r0, #-0]
     458:	00000279 	andeq	r0, r0, r9, ror r2
     45c:	00ff3702 	rscseq	r3, pc, r2, lsl #14
     460:	0d1c0000 	ldceq	0, cr0, [ip, #-0]
     464:	00000206 	andeq	r0, r0, r6, lsl #4
     468:	00733b02 	rsbseq	r3, r3, r2, lsl #22
     46c:	0d280000 	stceq	0, cr0, [r8, #-0]
     470:	000001ec 	andeq	r0, r0, ip, ror #3
     474:	00733c02 	rsbseq	r3, r3, r2, lsl #24
     478:	0d2c0000 	stceq	0, cr0, [ip, #-0]
     47c:	000001b3 			; <UNDEFINED> instruction: 0x000001b3
     480:	018f3f02 	orreq	r3, pc, r2, lsl #30
     484:	0d300000 	ldceq	0, cr0, [r0, #-0]
     488:	000001ab 	andeq	r0, r0, fp, lsr #3
     48c:	00734102 	rsbseq	r4, r3, r2, lsl #2
     490:	00340000 	eorseq	r0, r4, r0
     494:	010a0406 	tsteq	sl, r6, lsl #8
     498:	0b030000 	bleq	c04a0 <__bss_end__+0xb64d8>
     49c:	02000003 	andeq	r0, r0, #3
     4a0:	00010a42 	andeq	r0, r1, r2, asr #20
     4a4:	02020a00 	andeq	r0, r2, #0, 20
     4a8:	0001c562 	andeq	ip, r1, r2, ror #10
     4ac:	02c30b00 	sbceq	r0, r3, #0, 22
     4b0:	01fe0000 	mvnseq	r0, r0
     4b4:	00025e0b 	andeq	r5, r2, fp, lsl #28
     4b8:	0b018000 	bleq	604c0 <__bss_end__+0x564f8>
     4bc:	00000229 	andeq	r0, r0, r9, lsr #4
     4c0:	190b01b8 	stmdbne	fp, {r3, r4, r5, r7, r8}
     4c4:	b8000002 	stmdalt	r0, {r1}
     4c8:	d40f0002 	strle	r0, [pc], #-2	; 4d0 <_start-0x7b30>
     4cc:	01000001 	tsteq	r0, r1
     4d0:	00009313 	andeq	r9, r0, r3, lsl r3
     4d4:	0080e000 	addeq	lr, r0, r0
     4d8:	00000800 	andeq	r0, r0, r0, lsl #16
     4dc:	ec9c0100 	ldfs	f0, [ip], {0}
     4e0:	10000001 	andne	r0, r0, r1
     4e4:	13010068 	movwne	r0, #4200	; 0x1068
     4e8:	000001ec 	andeq	r0, r0, ip, ror #3
     4ec:	00000052 	andeq	r0, r0, r2, asr r0
     4f0:	95040600 	strls	r0, [r4, #-1536]	; 0x600
     4f4:	0f000001 	svceq	0x00000001
     4f8:	00000282 	andeq	r0, r0, r2, lsl #5
     4fc:	00931501 	addseq	r1, r3, r1, lsl #10
     500:	80e80000 	rschi	r0, r8, r0
     504:	00100000 	andseq	r0, r0, r0
     508:	9c010000 	stcls	0, cr0, [r1], {-0}
     50c:	0000022a 	andeq	r0, r0, sl, lsr #4
     510:	01006810 	tsteq	r0, r0, lsl r8
     514:	0001ec15 	andeq	lr, r1, r5, lsl ip
     518:	00007200 	andeq	r7, r0, r0, lsl #4
     51c:	80f01100 	rscshi	r1, r0, r0, lsl #2
     520:	01c50000 	biceq	r0, r5, r0
     524:	01120000 	tsteq	r2, r0
     528:	01f30350 	mvnseq	r0, r0, asr r3
     52c:	0f000050 	svceq	0x00000050
     530:	000002a7 	andeq	r0, r0, r7, lsr #5
     534:	00931701 	addseq	r1, r3, r1, lsl #14
     538:	80f80000 	rscshi	r0, r8, r0
     53c:	00180000 	andseq	r0, r8, r0
     540:	9c010000 	stcls	0, cr0, [r1], {-0}
     544:	00000261 	andeq	r0, r0, r1, ror #4
     548:	01006810 	tsteq	r0, r0, lsl r8
     54c:	0001ec17 	andeq	lr, r1, r7, lsl ip
     550:	00009300 	andeq	r9, r0, r0, lsl #6
     554:	81041100 	mrshi	r1, (UNDEF: 20)
     558:	01f20000 	mvnseq	r0, r0
     55c:	01120000 	tsteq	r2, r0
     560:	00740250 	rsbseq	r0, r4, r0, asr r2
     564:	e80f0000 	stmda	pc, {}	; <UNPREDICTABLE>
     568:	01000002 	tsteq	r0, r2
     56c:	00003719 	andeq	r3, r0, r9, lsl r7
     570:	00811000 	addeq	r1, r1, r0
     574:	00000c00 	andeq	r0, r0, r0, lsl #24
     578:	889c0100 	ldmhi	ip, {r8}
     57c:	10000002 	andne	r0, r0, r2
     580:	19010068 	stmdbne	r1, {r3, r5, r6}
     584:	000001ec 	andeq	r0, r0, ip, ror #3
     588:	000000b1 	strheq	r0, [r0], -r1
     58c:	01f80f00 	mvnseq	r0, r0, lsl #30
     590:	1c010000 	stcne	0, cr0, [r1], {-0}
     594:	000001ec 	andeq	r0, r0, ip, ror #3
     598:	0000811c 	andeq	r8, r0, ip, lsl r1
     59c:	00000008 	andeq	r0, r0, r8
     5a0:	02b19c01 	adcseq	r9, r1, #256	; 0x100
     5a4:	ba130000 	blt	4c05ac <__bss_end__+0x4b65e4>
     5a8:	01000001 	tsteq	r0, r1
     5ac:	0000931c 	andeq	r9, r0, ip, lsl r3
     5b0:	0000d200 	andeq	sp, r0, r0, lsl #4
     5b4:	b9140000 	ldmdblt	r4, {}	; <UNPREDICTABLE>
     5b8:	02000002 	andeq	r0, r0, #2
     5bc:	02d00355 	sbcseq	r0, r0, #1409286145	; 0x54000001
     5c0:	68150000 	ldmdavs	r5, {}	; <UNPREDICTABLE>
     5c4:	ec550200 	lfm	f0, 2, [r5], {-0}
     5c8:	16000001 	strne	r0, [r0], -r1
     5cc:	5702006c 	strpl	r0, [r2, -ip, rrx]
     5d0:	000002d0 	ldrdeq	r0, [r0], -r0	; <UNPREDICTABLE>
     5d4:	ff040600 			; <UNDEFINED> instruction: 0xff040600
     5d8:	0f000000 	svceq	0x00000000
     5dc:	00000321 	andeq	r0, r0, r1, lsr #6
     5e0:	00253301 	eoreq	r3, r5, r1, lsl #6
     5e4:	81240000 	teqhi	r4, r0
     5e8:	01080000 	mrseq	r0, (UNDEF: 8)
     5ec:	9c010000 	stcls	0, cr0, [r1], {-0}
     5f0:	00000455 	andeq	r0, r0, r5, asr r4
     5f4:	01006810 	tsteq	r0, r0, lsl r8
     5f8:	0001ec33 	andeq	lr, r1, r3, lsr ip
     5fc:	0000f300 	andeq	pc, r0, r0, lsl #6
     600:	00701000 	rsbseq	r1, r0, r0
     604:	00953301 	addseq	r3, r5, r1, lsl #6
     608:	01270000 	teqeq	r7, r0
     60c:	ee130000 	cdp	0, 1, cr0, cr3, cr0, {0}
     610:	01000002 	tsteq	r0, r2
     614:	00003733 	andeq	r3, r0, r3, lsr r7
     618:	00016100 	andeq	r6, r1, r0, lsl #2
     61c:	00691700 	rsbeq	r1, r9, r0, lsl #14
     620:	00253401 	eoreq	r3, r5, r1, lsl #8
     624:	019b0000 	orrseq	r0, fp, r0
     628:	00180000 	andseq	r0, r8, r0
     62c:	19000000 	stmdbne	r0, {}	; <UNPREDICTABLE>
     630:	000001b8 			; <UNDEFINED> instruction: 0x000001b8
     634:	00953701 	addseq	r3, r5, r1, lsl #14
     638:	01c50000 	biceq	r0, r5, r0
     63c:	1e190000 	cdpne	0, 1, cr0, cr9, cr0, {0}
     640:	01000008 	tsteq	r0, r8
     644:	00002538 	andeq	r2, r0, r8, lsr r5
     648:	0001ee00 	andeq	lr, r1, r0, lsl #28
     64c:	02b11a00 	adcseq	r1, r1, #0, 20
     650:	81780000 	cmnhi	r8, r0
     654:	00700000 	rsbseq	r0, r0, r0
     658:	39010000 	stmdbcc	r1, {}	; <UNPREDICTABLE>
     65c:	000003f5 	strdeq	r0, [r0], -r5
     660:	0002bd1b 	andeq	fp, r2, fp, lsl sp
     664:	00020c00 	andeq	r0, r2, r0, lsl #24
     668:	81781c00 	cmnhi	r8, r0, lsl #24
     66c:	00700000 	rsbseq	r0, r0, r0
     670:	c61d0000 	ldrgt	r0, [sp], -r0
     674:	2a000002 	bcs	684 <_start-0x797c>
     678:	1e000002 	cdpne	0, 0, cr0, cr0, cr2, {0}
     67c:	00008180 	andeq	r8, r0, r0, lsl #3
     680:	00000e30 	andeq	r0, r0, r0, lsr lr
     684:	0000038a 	andeq	r0, r0, sl, lsl #7
     688:	02500112 	subseq	r0, r0, #-2147483644	; 0x80000004
     68c:	1e000076 	mcrne	0, 0, r0, cr0, cr6, {3}
     690:	0000818c 	andeq	r8, r0, ip, lsl #3
     694:	00000e30 	andeq	r0, r0, r0, lsr lr
     698:	000003a1 	andeq	r0, r0, r1, lsr #7
     69c:	05500112 	ldrbeq	r0, [r0, #-274]	; 0x112
     6a0:	00960803 	addseq	r0, r6, r3, lsl #16
     6a4:	a01e0000 	andsge	r0, lr, r0
     6a8:	30000081 	andcc	r0, r0, r1, lsl #1
     6ac:	b500000e 	strlt	r0, [r0, #-14]
     6b0:	12000003 	andne	r0, r0, #3
     6b4:	76025001 	strvc	r5, [r2], -r1
     6b8:	b41e0000 	ldrlt	r0, [lr], #-0
     6bc:	30000081 	andcc	r0, r0, r1, lsl #1
     6c0:	cc00000e 	stcgt	0, cr0, [r0], {14}
     6c4:	12000003 	andne	r0, r0, #3
     6c8:	03055001 	movweq	r5, #20481	; 0x5001
     6cc:	00009614 	andeq	r9, r0, r4, lsl r6
     6d0:	81d41e00 	bicshi	r1, r4, r0, lsl #28
     6d4:	0e300000 	cdpeq	0, 3, cr0, cr0, cr0, {0}
     6d8:	03e00000 	mvneq	r0, #0
     6dc:	01120000 	tsteq	r2, r0
     6e0:	00760250 	rsbseq	r0, r6, r0, asr r2
     6e4:	81e81100 	mvnhi	r1, r0, lsl #2
     6e8:	0e300000 	cdpeq	0, 3, cr0, cr0, cr0, {0}
     6ec:	01120000 	tsteq	r2, r0
     6f0:	34030550 	strcc	r0, [r3], #-1360	; 0x550
     6f4:	00000096 	muleq	r0, r6, r0
     6f8:	4c1e0000 	ldcmi	0, cr0, [lr], {-0}
     6fc:	f2000081 	vhadd.s8	d0, d16, d1
     700:	09000001 	stmdbeq	r0, {r0}
     704:	12000004 	andne	r0, r0, #4
     708:	75025001 	strvc	r5, [r2, #-1]
     70c:	601e0000 	andsvs	r0, lr, r0
     710:	30000081 	andcc	r0, r0, r1, lsl #1
     714:	1d00000e 	stcne	0, cr0, [r0, #-56]	; 0xffffffc8
     718:	12000004 	andne	r0, r0, #4
     71c:	76025001 	strvc	r5, [r2], -r1
     720:	681e0000 	ldmdavs	lr, {}	; <UNPREDICTABLE>
     724:	30000081 	andcc	r0, r0, r1, lsl #1
     728:	3400000e 	strcc	r0, [r0], #-14
     72c:	12000004 	andne	r0, r0, #4
     730:	03055001 	movweq	r5, #20481	; 0x5001
     734:	000095dc 	ldrdeq	r9, [r0], -ip
     738:	81781100 	cmnhi	r8, r0, lsl #2
     73c:	0e300000 	cdpeq	0, 3, cr0, cr0, cr0, {0}
     740:	01120000 	tsteq	r2, r0
     744:	00740252 	rsbseq	r0, r4, r2, asr r2
     748:	02510112 	subseq	r0, r1, #-2147483644	; 0x80000004
     74c:	01120077 	tsteq	r2, r7, ror r0
     750:	e4030550 	str	r0, [r3], #-1360	; 0x550
     754:	00000095 	muleq	r0, r5, r0
     758:	cc1f0000 	ldcgt	0, cr0, [pc], {-0}
     75c:	01000002 	tsteq	r0, r2
     760:	00822c3f 	addeq	r2, r2, pc, lsr ip
     764:	00001400 	andeq	r1, r0, r0, lsl #8
     768:	a59c0100 	ldrge	r0, [ip, #256]	; 0x100
     76c:	10000004 	andne	r0, r0, r4
     770:	3f010070 	svccc	0x00010070
     774:	00000093 	muleq	r0, r3, r0
     778:	00000259 	andeq	r0, r0, r9, asr r2
     77c:	0002ee13 	andeq	lr, r2, r3, lsl lr
     780:	373f0100 	ldrcc	r0, [pc, -r0, lsl #2]!
     784:	7a000000 	bvc	78c <_start-0x7874>
     788:	11000002 	tstne	r0, r2
     78c:	0000823c 	andeq	r8, r0, ip, lsr r2
     790:	00000e46 	andeq	r0, r0, r6, asr #28
     794:	03520112 	cmpeq	r2, #-2147483644	; 0x80000004
     798:	125101f3 	subsne	r0, r1, #-1073741764	; 0xc000003c
     79c:	08025101 	stmdaeq	r2, {r0, r8, ip, lr}
     7a0:	500112fe 	strdpl	r1, [r1], -lr
     7a4:	5001f303 	andpl	pc, r1, r3, lsl #6
     7a8:	540f0000 	strpl	r0, [pc], #-0	; 7b0 <_start-0x7850>
     7ac:	01000002 	tsteq	r0, r2
     7b0:	00007321 	andeq	r7, r0, r1, lsr #6
     7b4:	00824000 	addeq	r4, r2, r0
     7b8:	00002400 	andeq	r2, r0, r0, lsl #8
     7bc:	fc9c0100 	ldc2	1, cr0, [ip], {0}
     7c0:	10000004 	andne	r0, r0, r4
     7c4:	21010068 	tstcs	r1, r8, rrx
     7c8:	000001ec 	andeq	r0, r0, ip, ror #3
     7cc:	000002a6 	andeq	r0, r0, r6, lsr #5
     7d0:	646c6f20 	strbtvs	r6, [ip], #-3872	; 0xf20
     7d4:	37220100 	strcc	r0, [r2, -r0, lsl #2]!
     7d8:	01000000 	mrseq	r0, (UNDEF: 0)
     7dc:	02582155 	subseq	r2, r8, #1073741845	; 0x40000015
     7e0:	24010000 	strcs	r0, [r1], #-0
     7e4:	00000073 	andeq	r0, r0, r3, ror r0
     7e8:	5c115001 	ldcpl	0, cr5, [r1], {1}
     7ec:	65000082 	strvs	r0, [r0, #-130]	; 0x82
     7f0:	1200000e 	andne	r0, r0, #14
     7f4:	08025101 	stmdaeq	r2, {r0, r8, ip, lr}
     7f8:	50011238 	andpl	r1, r1, r8, lsr r2
     7fc:	00007402 	andeq	r7, r0, r2, lsl #8
     800:	029d0f00 	addseq	r0, sp, #0, 30
     804:	2a010000 	bcs	4080c <__bss_end__+0x36844>
     808:	00000025 	andeq	r0, r0, r5, lsr #32
     80c:	00008264 	andeq	r8, r0, r4, ror #4
     810:	0000009c 	muleq	r0, ip, r0
     814:	060b9c01 	streq	r9, [fp], -r1, lsl #24
     818:	68100000 	ldmdavs	r0, {}	; <UNPREDICTABLE>
     81c:	ec2a0100 	stfs	f0, [sl], #-0
     820:	c4000001 	strgt	r0, [r0], #-1
     824:	19000002 	stmdbne	r0, {r1}
     828:	000002f5 	strdeq	r0, [r0], -r5
     82c:	00732b01 	rsbseq	r2, r3, r1, lsl #22
     830:	02e20000 	rsceq	r0, r2, #0
     834:	1f220000 	svcne	0x00220000
     838:	1b000001 	blne	844 <_start-0x77bc>
     83c:	05000006 	streq	r0, [r0, #-6]
     840:	0095b803 	addseq	fp, r5, r3, lsl #16
     844:	82701e00 	rsbshi	r1, r0, #0, 28
     848:	04a50000 	strteq	r0, [r5], #0
     84c:	05540000 	ldrbeq	r0, [r4, #-0]
     850:	01120000 	tsteq	r2, r0
     854:	00740250 	rsbseq	r0, r4, r0, asr r2
     858:	82801e00 	addhi	r1, r0, #0, 28
     85c:	0e300000 	cdpeq	0, 3, cr0, cr0, cr0, {0}
     860:	05710000 	ldrbeq	r0, [r1, #-0]!
     864:	01120000 	tsteq	r2, r0
     868:	00750251 	rsbseq	r0, r5, r1, asr r2
     86c:	05500112 	ldrbeq	r0, [r0, #-274]	; 0x112
     870:	00965003 	addseq	r5, r6, r3
     874:	8c1e0000 	ldchi	0, cr0, [lr], {-0}
     878:	30000082 	andcc	r0, r0, r2, lsl #1
     87c:	8800000e 	stmdahi	r0, {r1, r2, r3}
     880:	12000005 	andne	r0, r0, #5
     884:	03055001 	movweq	r5, #20481	; 0x5001
     888:	00009664 	andeq	r9, r0, r4, ror #12
     88c:	829c2300 	addshi	r2, ip, #0, 6
     890:	0e860000 	cdpeq	0, 8, cr0, cr6, cr0, {0}
     894:	b01e0000 	andslt	r0, lr, r0
     898:	30000082 	andcc	r0, r0, r2, lsl #1
     89c:	c000000e 	andgt	r0, r0, lr
     8a0:	12000005 	andne	r0, r0, #5
     8a4:	08025301 	stmdaeq	r2, {r0, r8, r9, ip, lr}
     8a8:	5201122e 	andpl	r1, r1, #-536870910	; 0xe0000002
     8ac:	95b80305 	ldrls	r0, [r8, #773]!	; 0x305
     8b0:	01120000 	tsteq	r2, r0
     8b4:	a0030551 	andge	r0, r3, r1, asr r5
     8b8:	12000096 	andne	r0, r0, #150	; 0x96
     8bc:	03055001 	movweq	r5, #20481	; 0x5001
     8c0:	00009674 	andeq	r9, r0, r4, ror r6
     8c4:	82b42300 	adcshi	r2, r4, #0, 6
     8c8:	0e8d0000 	cdpeq	0, 8, cr0, cr13, cr0, {0}
     8cc:	c8230000 	stmdagt	r3!, {}	; <UNPREDICTABLE>
     8d0:	86000082 	strhi	r0, [r0], -r2, lsl #1
     8d4:	1e00000e 	cdpne	0, 0, cr0, cr0, cr14, {0}
     8d8:	000082dc 	ldrdeq	r8, [r0], -ip
     8dc:	00000e30 	andeq	r0, r0, r0, lsr lr
     8e0:	00000601 	andeq	r0, r0, r1, lsl #12
     8e4:	02530112 	subseq	r0, r3, #-2147483644	; 0x80000004
     8e8:	01122f08 	tsteq	r2, r8, lsl #30
     8ec:	b8030552 	stmdalt	r3, {r1, r4, r6, r8, sl}
     8f0:	12000095 	andne	r0, r0, #149	; 0x95
     8f4:	03055101 	movweq	r5, #20737	; 0x5101
     8f8:	000096a0 	andeq	r9, r0, r0, lsr #13
     8fc:	05500112 	ldrbeq	r0, [r0, #-274]	; 0x112
     900:	0096ac03 	addseq	sl, r6, r3, lsl #24
     904:	e0230000 	eor	r0, r3, r0
     908:	8d000082 	stchi	0, cr0, [r0, #-520]	; 0xfffffdf8
     90c:	0000000e 	andeq	r0, r0, lr
     910:	00009b08 	andeq	r9, r0, r8, lsl #22
     914:	00061b00 	andeq	r1, r6, r0, lsl #22
     918:	008c0900 	addeq	r0, ip, r0, lsl #18
     91c:	00090000 	andeq	r0, r9, r0
     920:	00060b07 	andeq	r0, r6, r7, lsl #22
     924:	02d50f00 	sbcseq	r0, r5, #0, 30
     928:	49010000 	stmdbmi	r1, {}	; <UNPREDICTABLE>
     92c:	00000025 	andeq	r0, r0, r5, lsr #32
     930:	00008300 	andeq	r8, r0, r0, lsl #6
     934:	00000080 	andeq	r0, r0, r0, lsl #1
     938:	06c79c01 	strbeq	r9, [r7], r1, lsl #24
     93c:	68100000 	ldmdavs	r0, {}	; <UNPREDICTABLE>
     940:	ec490100 	stfe	f0, [r9], {-0}
     944:	00000001 	andeq	r0, r0, r1
     948:	1e000003 	cdpne	0, 0, cr0, cr0, cr3, {0}
     94c:	0000830c 	andeq	r8, r0, ip, lsl #6
     950:	000004fc 	strdeq	r0, [r0], -ip
     954:	0000065a 	andeq	r0, r0, sl, asr r6
     958:	02500112 	subseq	r0, r0, #-2147483644	; 0x80000004
     95c:	1e000074 	mcrne	0, 0, r0, cr0, cr4, {3}
     960:	0000831c 	andeq	r8, r0, ip, lsl r3
     964:	000001c5 	andeq	r0, r0, r5, asr #3
     968:	0000066e 	andeq	r0, r0, lr, ror #12
     96c:	02500112 	subseq	r0, r0, #-2147483644	; 0x80000004
     970:	1e000074 	mcrne	0, 0, r0, cr0, cr4, {3}
     974:	0000832c 	andeq	r8, r0, ip, lsr #6
     978:	000002d6 	ldrdeq	r0, [r0], -r6
     97c:	00000688 	andeq	r0, r0, r8, lsl #13
     980:	02520112 	subseq	r0, r2, #-2147483644	; 0x80000004
     984:	01128008 	tsteq	r2, r8
     988:	00740250 	rsbseq	r0, r4, r0, asr r2
     98c:	833c1e00 	teqhi	ip, #0, 28
     990:	022a0000 	eoreq	r0, sl, #0
     994:	069c0000 	ldreq	r0, [ip], r0
     998:	01120000 	tsteq	r2, r0
     99c:	00740250 	rsbseq	r0, r4, r0, asr r2
     9a0:	83481e00 	movthi	r1, #36352	; 0x8e00
     9a4:	02610000 	rsbeq	r0, r1, #0
     9a8:	06b00000 	ldrteq	r0, [r0], r0
     9ac:	01120000 	tsteq	r2, r0
     9b0:	00740250 	rsbseq	r0, r4, r0, asr r2
     9b4:	83581100 	cmphi	r8, #0, 2
     9b8:	02d60000 	sbcseq	r0, r6, #0
     9bc:	01120000 	tsteq	r2, r0
     9c0:	00750251 	rsbseq	r0, r5, r1, asr r2
     9c4:	02500112 	subseq	r0, r0, #-2147483644	; 0x80000004
     9c8:	00000074 	andeq	r0, r0, r4, ror r0
     9cc:	00012c24 	andeq	r2, r1, r4, lsr #24
     9d0:	80090100 	andhi	r0, r9, r0, lsl #2
     9d4:	74000083 	strvc	r0, [r0], #-131	; 0x83
     9d8:	01000000 	mrseq	r0, (UNDEF: 0)
     9dc:	0007679c 	muleq	r7, ip, r7
     9e0:	0c171300 	ldceq	3, cr1, [r7], {-0}
     9e4:	09010000 	stmdbeq	r1, {}	; <UNPREDICTABLE>
     9e8:	00000093 	muleq	r0, r3, r0
     9ec:	0000031e 	andeq	r0, r0, lr, lsl r3
     9f0:	01006e10 	tsteq	r0, r0, lsl lr
     9f4:	00003709 	andeq	r3, r0, r9, lsl #14
     9f8:	00036100 	andeq	r6, r3, r0, lsl #2
     9fc:	011f2200 	tsteq	pc, r0, lsl #4
     a00:	07670000 	strbeq	r0, [r7, -r0]!
     a04:	03050000 	movweq	r0, #20480	; 0x5000
     a08:	000095c4 	andeq	r9, r0, r4, asr #11
     a0c:	0083a023 	addeq	sl, r3, r3, lsr #32
     a10:	000e8600 	andeq	r8, lr, r0, lsl #12
     a14:	83b41e00 			; <UNDEFINED> instruction: 0x83b41e00
     a18:	0e300000 	cdpeq	0, 3, cr0, cr0, cr0, {0}
     a1c:	073e0000 	ldreq	r0, [lr, -r0]!
     a20:	01120000 	tsteq	r2, r0
     a24:	123a0153 	eorsne	r0, sl, #-1073741804	; 0xc0000014
     a28:	03055201 	movweq	r5, #20993	; 0x5201
     a2c:	000095c4 	andeq	r9, r0, r4, asr #11
     a30:	05510112 	ldrbeq	r0, [r1, #-274]	; 0x112
     a34:	0096a003 	addseq	sl, r6, r3
     a38:	50011200 	andpl	r1, r1, r0, lsl #4
     a3c:	96e80305 	strbtls	r0, [r8], r5, lsl #6
     a40:	23000000 	movwcs	r0, #0
     a44:	000083b8 			; <UNDEFINED> instruction: 0x000083b8
     a48:	00000e8d 	andeq	r0, r0, sp, lsl #29
     a4c:	0083c811 	addeq	ip, r3, r1, lsl r8
     a50:	000e3000 	andeq	r3, lr, r0
     a54:	52011200 	andpl	r1, r1, #0, 4
     a58:	12800802 	addne	r0, r0, #131072	; 0x20000
     a5c:	08025101 	stmdaeq	r2, {r0, r8, ip, lr}
     a60:	50011238 	andpl	r1, r1, r8, lsr r2
     a64:	97100305 	ldrls	r0, [r0, -r5, lsl #6]
     a68:	00000000 	andeq	r0, r0, r0
     a6c:	0000ad07 	andeq	sl, r0, r7, lsl #26
     a70:	016f2400 	cmneq	pc, r0, lsl #8
     a74:	55010000 	strpl	r0, [r1, #-0]
     a78:	000083f4 	strdeq	r8, [r0], -r4
     a7c:	000000c0 	andeq	r0, r0, r0, asr #1
     a80:	089b9c01 	ldmeq	fp, {r0, sl, fp, ip, pc}
     a84:	ba130000 	blt	4c0a8c <__bss_end__+0x4b6ac4>
     a88:	01000001 	tsteq	r0, r1
     a8c:	00009355 	andeq	r9, r0, r5, asr r3
     a90:	00039500 	andeq	r9, r3, r0, lsl #10
     a94:	07a71300 	streq	r1, [r7, r0, lsl #6]!
     a98:	55010000 	strpl	r0, [r1, #-0]
     a9c:	000000a2 	andeq	r0, r0, r2, lsr #1
     aa0:	000003b3 			; <UNDEFINED> instruction: 0x000003b3
     aa4:	000a7113 	andeq	r7, sl, r3, lsl r1
     aa8:	a2550100 	subsge	r0, r5, #0, 2
     aac:	e7000000 	str	r0, [r0, -r0]
     ab0:	13000003 	movwne	r0, #3
     ab4:	000002e1 	andeq	r0, r0, r1, ror #5
     ab8:	00375501 	eorseq	r5, r7, r1, lsl #10
     abc:	041b0000 	ldreq	r0, [fp], #-0
     ac0:	68170000 	ldmdavs	r7, {}	; <UNPREDICTABLE>
     ac4:	ec560100 	ldfe	f0, [r6], {-0}
     ac8:	4f000001 	svcmi	0x00000001
     acc:	22000004 	andcs	r0, r0, #4
     ad0:	0000011f 	andeq	r0, r0, pc, lsl r1
     ad4:	000008ab 	andeq	r0, r0, fp, lsr #17
     ad8:	95cc0305 	strbls	r0, [ip, #773]	; 0x305
     adc:	1c230000 	stcne	0, cr0, [r3], #-0
     ae0:	86000084 	strhi	r0, [r0], -r4, lsl #1
     ae4:	1e00000e 	cdpne	0, 0, cr0, cr0, cr14, {0}
     ae8:	00008430 	andeq	r8, r0, r0, lsr r4
     aec:	00000e30 	andeq	r0, r0, r0, lsr lr
     af0:	00000811 	andeq	r0, r0, r1, lsl r8
     af4:	02530112 	subseq	r0, r3, #-2147483644	; 0x80000004
     af8:	01125708 	tsteq	r2, r8, lsl #14
     afc:	cc030552 	cfstr32gt	mvfx0, [r3], {82}	; 0x52
     b00:	12000095 	andne	r0, r0, #149	; 0x95
     b04:	03055101 	movweq	r5, #20737	; 0x5101
     b08:	000096a0 	andeq	r9, r0, r0, lsr #13
     b0c:	05500112 	ldrbeq	r0, [r0, #-274]	; 0x112
     b10:	00972c03 	addseq	r2, r7, r3, lsl #24
     b14:	34230000 	strtcc	r0, [r3], #-0
     b18:	8d000084 	stchi	0, cr0, [r0, #-528]	; 0xfffffdf0
     b1c:	1e00000e 	cdpne	0, 0, cr0, cr0, cr14, {0}
     b20:	0000843c 	andeq	r8, r0, ip, lsr r4
     b24:	00000e30 	andeq	r0, r0, r0, lsr lr
     b28:	00000831 	andeq	r0, r0, r1, lsr r8
     b2c:	05500112 	ldrbeq	r0, [r0, #-274]	; 0x112
     b30:	00959003 	addseq	r9, r5, r3
     b34:	481e0000 	ldmdami	lr, {}	; <UNPREDICTABLE>
     b38:	30000084 	andcc	r0, r0, r4, lsl #1
     b3c:	4e00000e 	cdpmi	0, 0, cr0, cr0, cr14, {0}
     b40:	12000008 	andne	r0, r0, #8
     b44:	75025101 	strvc	r5, [r2, #-257]	; 0x101
     b48:	50011200 	andpl	r1, r1, r0, lsl #4
     b4c:	97600305 	strbls	r0, [r0, -r5, lsl #6]!
     b50:	1e000000 	cdpne	0, 0, cr0, cr0, cr0, {0}
     b54:	00008450 	andeq	r8, r0, r0, asr r4
     b58:	00000288 	andeq	r0, r0, r8, lsl #5
     b5c:	00000862 	andeq	r0, r0, r2, ror #16
     b60:	02500112 	subseq	r0, r0, #-2147483644	; 0x80000004
     b64:	1e000075 	mcrne	0, 0, r0, cr0, cr5, {3}
     b68:	00008458 	andeq	r8, r0, r8, asr r4
     b6c:	00000620 	andeq	r0, r0, r0, lsr #12
     b70:	00000876 	andeq	r0, r0, r6, ror r8
     b74:	02500112 	subseq	r0, r0, #-2147483644	; 0x80000004
     b78:	1e000074 	mcrne	0, 0, r0, cr0, cr4, {3}
     b7c:	00008480 	andeq	r8, r0, r0, lsl #9
     b80:	00000455 	andeq	r0, r0, r5, asr r4
     b84:	0000088a 	andeq	r0, r0, sl, lsl #17
     b88:	02500112 	subseq	r0, r0, #-2147483644	; 0x80000004
     b8c:	11000075 	tstne	r0, r5, ror r0
     b90:	00008494 	muleq	r0, r4, r4
     b94:	000004a5 	andeq	r0, r0, r5, lsr #9
     b98:	02500112 	subseq	r0, r0, #-2147483644	; 0x80000004
     b9c:	00000074 	andeq	r0, r0, r4, ror r0
     ba0:	00009b08 	andeq	r9, r0, r8, lsl #22
     ba4:	0008ab00 	andeq	sl, r8, r0, lsl #22
     ba8:	008c0900 	addeq	r0, ip, r0, lsl #18
     bac:	00060000 	andeq	r0, r6, r0
     bb0:	00089b07 	andeq	r9, r8, r7, lsl #22
     bb4:	00072500 	andeq	r2, r7, r0, lsl #10
     bb8:	6f010000 	svcvs	0x00010000
     bbc:	00000093 	muleq	r0, r3, r0
     bc0:	000084b4 			; <UNDEFINED> instruction: 0x000084b4
     bc4:	0000024c 	andeq	r0, r0, ip, asr #4
     bc8:	0c3b9c01 	ldceq	12, cr9, [fp], #-4
     bcc:	ee130000 	cdp	0, 1, cr0, cr3, cr0, {0}
     bd0:	01000002 	tsteq	r0, r2
     bd4:	0000736f 	andeq	r7, r0, pc, ror #6
     bd8:	00047900 	andeq	r7, r4, r0, lsl #18
     bdc:	07a71300 	streq	r1, [r7, r0, lsl #6]!
     be0:	6f010000 	svcvs	0x00010000
     be4:	000000a2 	andeq	r0, r0, r2, lsr #1
     be8:	000004bb 			; <UNDEFINED> instruction: 0x000004bb
     bec:	000a7113 	andeq	r7, sl, r3, lsl r1
     bf0:	a26f0100 	rsbge	r0, pc, #0, 2
     bf4:	fd000000 	stc2	0, cr0, [r0, #-0]
     bf8:	13000004 	movwne	r0, #4
     bfc:	000002e1 	andeq	r0, r0, r1, ror #5
     c00:	00376f01 	eorseq	r6, r7, r1, lsl #30
     c04:	053f0000 	ldreq	r0, [pc, #-0]!	; c0c <_start-0x73f4>
     c08:	68170000 	ldmdavs	r7, {}	; <UNPREDICTABLE>
     c0c:	ec700100 	ldfe	f0, [r0], #-0
     c10:	6b000001 	blvs	c1c <_start-0x73e4>
     c14:	17000005 	strne	r0, [r0, -r5]
     c18:	00727470 	rsbseq	r7, r2, r0, ror r4
     c1c:	00937101 	addseq	r7, r3, r1, lsl #2
     c20:	058a0000 	streq	r0, [sl]
     c24:	1f220000 	svcne	0x00220000
     c28:	3b000001 	blcc	c34 <_start-0x73cc>
     c2c:	0500000c 	streq	r0, [r0, #-12]
     c30:	0095d403 	addseq	sp, r5, r3, lsl #8
     c34:	6f741700 	svcvs	0x00741700
     c38:	76010074 			; <UNDEFINED> instruction: 0x76010074
     c3c:	00000037 	andeq	r0, r0, r7, lsr r0
     c40:	000005bf 			; <UNDEFINED> instruction: 0x000005bf
     c44:	01006e17 	tsteq	r0, r7, lsl lr
     c48:	00003777 	andeq	r3, r0, r7, ror r7
     c4c:	00062500 	andeq	r2, r6, r0, lsl #10
     c50:	01c91900 	biceq	r1, r9, r0, lsl #18
     c54:	82010000 	andhi	r0, r1, #0
     c58:	00000073 	andeq	r0, r0, r3, ror r0
     c5c:	0000064e 	andeq	r0, r0, lr, asr #12
     c60:	0084e023 	addeq	lr, r4, r3, lsr #32
     c64:	000e8600 	andeq	r8, lr, r0, lsl #12
     c68:	84f41e00 	ldrbthi	r1, [r4], #3584	; 0xe00
     c6c:	0e300000 	cdpeq	0, 3, cr0, cr0, cr0, {0}
     c70:	09930000 	ldmibeq	r3, {}	; <UNPREDICTABLE>
     c74:	01120000 	tsteq	r2, r0
     c78:	73080253 	movwvc	r0, #33363	; 0x8253
     c7c:	05520112 	ldrbeq	r0, [r2, #-274]	; 0x112
     c80:	0095d403 	addseq	sp, r5, r3, lsl #8
     c84:	51011200 	mrspl	r1, R9_usr
     c88:	96a00305 	strtls	r0, [r0], r5, lsl #6
     c8c:	01120000 	tsteq	r2, r0
     c90:	2c030550 	cfstr32cs	mvfx0, [r3], {80}	; 0x50
     c94:	00000097 	muleq	r0, r7, r0
     c98:	0084f823 	addeq	pc, r4, r3, lsr #16
     c9c:	000e8d00 	andeq	r8, lr, r0, lsl #26
     ca0:	85001e00 	strhi	r1, [r0, #-3584]	; 0xe00
     ca4:	0e300000 	cdpeq	0, 3, cr0, cr0, cr0, {0}
     ca8:	09b30000 	ldmibeq	r3!, {}	; <UNPREDICTABLE>
     cac:	01120000 	tsteq	r2, r0
     cb0:	90030550 	andls	r0, r3, r0, asr r5
     cb4:	00000095 	muleq	r0, r5, r0
     cb8:	00850c1e 	addeq	r0, r5, lr, lsl ip
     cbc:	000e3000 	andeq	r3, lr, r0
     cc0:	0009d000 	andeq	sp, r9, r0
     cc4:	51011200 	mrspl	r1, R9_usr
     cc8:	12007502 	andne	r7, r0, #8388608	; 0x800000
     ccc:	03055001 	movweq	r5, #20481	; 0x5001
     cd0:	0000976c 	andeq	r9, r0, ip, ror #14
     cd4:	85281e00 	strhi	r1, [r8, #-3584]!	; 0xe00
     cd8:	0e300000 	cdpeq	0, 3, cr0, cr0, cr0, {0}
     cdc:	09e70000 	stmibeq	r7!, {}^	; <UNPREDICTABLE>
     ce0:	01120000 	tsteq	r2, r0
     ce4:	84030550 	strhi	r0, [r3], #-1360	; 0x550
     ce8:	00000097 	muleq	r0, r7, r0
     cec:	0085341e 	addeq	r3, r5, lr, lsl r4
     cf0:	000e3000 	andeq	r3, lr, r0
     cf4:	000a0400 	andeq	r0, sl, r0, lsl #8
     cf8:	51011200 	mrspl	r1, R9_usr
     cfc:	12007502 	andne	r7, r0, #8388608	; 0x800000
     d00:	03055001 	movweq	r5, #20481	; 0x5001
     d04:	00009790 	muleq	r0, r0, r7
     d08:	85382300 	ldrhi	r2, [r8, #-768]!	; 0x300
     d0c:	0e860000 	cdpeq	0, 8, cr0, cr6, cr0, {0}
     d10:	501e0000 	andspl	r0, lr, r0
     d14:	30000085 	andcc	r0, r0, r5, lsl #1
     d18:	4300000e 	movwmi	r0, #14
     d1c:	1200000a 	andne	r0, r0, #10
     d20:	08025301 	stmdaeq	r2, {r0, r8, r9, ip, lr}
     d24:	5201127b 	andpl	r1, r1, #-1342177273	; 0xb0000007
     d28:	95d40305 	ldrbls	r0, [r4, #773]	; 0x305
     d2c:	01120000 	tsteq	r2, r0
     d30:	a0030551 	andge	r0, r3, r1, asr r5
     d34:	12000096 	andne	r0, r0, #150	; 0x96
     d38:	03055001 	movweq	r5, #20481	; 0x5001
     d3c:	000097b8 			; <UNDEFINED> instruction: 0x000097b8
     d40:	007d0212 	rsbseq	r0, sp, r2, lsl r2
     d44:	00007502 	andeq	r7, r0, r2, lsl #10
     d48:	00855423 	addeq	r5, r5, r3, lsr #8
     d4c:	000e8d00 	andeq	r8, lr, r0, lsl #26
     d50:	85741e00 	ldrbhi	r1, [r4, #-3584]!	; 0xe00
     d54:	0e300000 	cdpeq	0, 3, cr0, cr0, cr0, {0}
     d58:	0a630000 	beq	18c0d60 <__bss_end__+0x18b6d98>
     d5c:	01120000 	tsteq	r2, r0
     d60:	84030550 	strhi	r0, [r3], #-1360	; 0x550
     d64:	00000097 	muleq	r0, r7, r0
     d68:	0085901e 	addeq	r9, r5, lr, lsl r0
     d6c:	000e3000 	andeq	r3, lr, r0
     d70:	000a8000 	andeq	r8, sl, r0
     d74:	52011200 	andpl	r1, r1, #0, 4
     d78:	12007602 	andne	r7, r0, #2097152	; 0x200000
     d7c:	03055001 	movweq	r5, #20481	; 0x5001
     d80:	000097f0 	strdeq	r9, [r0], -r0
     d84:	85942300 	ldrhi	r2, [r4, #768]	; 0x300
     d88:	0e860000 	cdpeq	0, 8, cr0, cr6, cr0, {0}
     d8c:	bc1e0000 	ldclt	0, cr0, [lr], {-0}
     d90:	30000085 	andcc	r0, r0, r5, lsl #1
     d94:	bf00000e 	svclt	0x0000000e
     d98:	1200000a 	andne	r0, r0, #10
     d9c:	08025301 	stmdaeq	r2, {r0, r8, r9, ip, lr}
     da0:	5201127f 	andpl	r1, r1, #-268435449	; 0xf0000007
     da4:	95d40305 	ldrbls	r0, [r4, #773]	; 0x305
     da8:	01120000 	tsteq	r2, r0
     dac:	a0030551 	andge	r0, r3, r1, asr r5
     db0:	12000096 	andne	r0, r0, #150	; 0x96
     db4:	03055001 	movweq	r5, #20481	; 0x5001
     db8:	0000981c 	andeq	r9, r0, ip, lsl r8
     dbc:	047d0212 	ldrbteq	r0, [sp], #-530	; 0x212
     dc0:	00007602 	andeq	r7, r0, r2, lsl #12
     dc4:	0085c023 	addeq	ip, r5, r3, lsr #32
     dc8:	000e8d00 	andeq	r8, lr, r0, lsl #26
     dcc:	85f81e00 	ldrbhi	r1, [r8, #3584]!	; 0xe00
     dd0:	04a50000 	strteq	r0, [r5], #0
     dd4:	0adc0000 	beq	ff700ddc <__bss_end__+0xff6f6e14>
     dd8:	01120000 	tsteq	r2, r0
     ddc:	00740250 	rsbseq	r0, r4, r0, asr r2
     de0:	86041e00 	strhi	r1, [r4], -r0, lsl #28
     de4:	01c50000 	biceq	r0, r5, r0
     de8:	0af00000 	beq	ffc00df0 <__bss_end__+0xffbf6e28>
     dec:	01120000 	tsteq	r2, r0
     df0:	00740250 	rsbseq	r0, r4, r0, asr r2
     df4:	860c1e00 	strhi	r1, [ip], -r0, lsl #28
     df8:	04550000 	ldrbeq	r0, [r5], #-0
     dfc:	0b040000 	bleq	100e04 <__bss_end__+0xf6e3c>
     e00:	01120000 	tsteq	r2, r0
     e04:	80080251 	andhi	r0, r8, r1, asr r2
     e08:	86141e00 	ldrhi	r1, [r4], -r0, lsl #28
     e0c:	022a0000 	eoreq	r0, sl, #0
     e10:	0b180000 	bleq	600e18 <__bss_end__+0x5f6e50>
     e14:	01120000 	tsteq	r2, r0
     e18:	00740250 	rsbseq	r0, r4, r0, asr r2
     e1c:	86201e00 	strthi	r1, [r0], -r0, lsl #28
     e20:	02610000 	rsbeq	r0, r1, #0
     e24:	0b2c0000 	bleq	b00e2c <__bss_end__+0xaf6e64>
     e28:	01120000 	tsteq	r2, r0
     e2c:	00740250 	rsbseq	r0, r4, r0, asr r2
     e30:	862c1e00 	strthi	r1, [ip], -r0, lsl #28
     e34:	04550000 	ldrbeq	r0, [r5], #-0
     e38:	0b400000 	bleq	1000e40 <__bss_end__+0xff6e78>
     e3c:	01120000 	tsteq	r2, r0
     e40:	00770250 	rsbseq	r0, r7, r0, asr r2
     e44:	86441e00 	strbhi	r1, [r4], -r0, lsl #28
     e48:	01f20000 	mvnseq	r0, r0
     e4c:	0b540000 	bleq	1500e54 <__bss_end__+0x14f6e8c>
     e50:	01120000 	tsteq	r2, r0
     e54:	00740250 	rsbseq	r0, r4, r0, asr r2
     e58:	86501e00 	ldrbhi	r1, [r0], -r0, lsl #28
     e5c:	04fc0000 	ldrbteq	r0, [ip], #0
     e60:	0b680000 	bleq	1a00e68 <__bss_end__+0x19f6ea0>
     e64:	01120000 	tsteq	r2, r0
     e68:	00740250 	rsbseq	r0, r4, r0, asr r2
     e6c:	865c2300 	ldrbhi	r2, [ip], -r0, lsl #6
     e70:	0e860000 	cdpeq	0, 8, cr0, cr6, cr0, {0}
     e74:	701e0000 	andsvc	r0, lr, r0
     e78:	30000086 	andcc	r0, r0, r6, lsl #1
     e7c:	a000000e 	andge	r0, r0, lr
     e80:	1200000b 	andne	r0, r0, #11
     e84:	08025301 	stmdaeq	r2, {r0, r8, r9, ip, lr}
     e88:	52011298 	andpl	r1, r1, #152, 4	; 0x80000009
     e8c:	95d40305 	ldrbls	r0, [r4, #773]	; 0x305
     e90:	01120000 	tsteq	r2, r0
     e94:	a0030551 	andge	r0, r3, r1, asr r5
     e98:	12000096 	andne	r0, r0, #150	; 0x96
     e9c:	03055001 	movweq	r5, #20481	; 0x5001
     ea0:	00009858 	andeq	r9, r0, r8, asr r8
     ea4:	86742300 	ldrbthi	r2, [r4], -r0, lsl #6
     ea8:	0e8d0000 	cdpeq	0, 8, cr0, cr13, cr0, {0}
     eac:	7c1e0000 	ldcvc	0, cr0, [lr], {-0}
     eb0:	20000086 	andcs	r0, r0, r6, lsl #1
     eb4:	bd000006 	stclt	0, cr0, [r0, #-24]	; 0xffffffe8
     eb8:	1200000b 	andne	r0, r0, #11
     ebc:	74025001 	strvc	r5, [r2], #-1
     ec0:	88230000 	stmdahi	r3!, {}	; <UNPREDICTABLE>
     ec4:	86000086 	strhi	r0, [r0], -r6, lsl #1
     ec8:	1e00000e 	cdpne	0, 0, cr0, cr0, cr14, {0}
     ecc:	0000869c 	muleq	r0, ip, r6
     ed0:	00000e30 	andeq	r0, r0, r0, lsr lr
     ed4:	00000bf5 	strdeq	r0, [r0], -r5
     ed8:	02530112 	subseq	r0, r3, #-2147483644	; 0x80000004
     edc:	01129908 	tsteq	r2, r8, lsl #18
     ee0:	d4030552 	strle	r0, [r3], #-1362	; 0x552
     ee4:	12000095 	andne	r0, r0, #149	; 0x95
     ee8:	03055101 	movweq	r5, #20737	; 0x5101
     eec:	000096a0 	andeq	r9, r0, r0, lsr #13
     ef0:	05500112 	ldrbeq	r0, [r0, #-274]	; 0x112
     ef4:	00987803 	addseq	r7, r8, r3, lsl #16
     ef8:	a0230000 	eorge	r0, r3, r0
     efc:	8d000086 	stchi	0, cr0, [r0, #-536]	; 0xfffffde8
     f00:	1e00000e 	cdpne	0, 0, cr0, cr0, cr14, {0}
     f04:	000086a8 	andeq	r8, r0, r8, lsr #13
     f08:	00000e30 	andeq	r0, r0, r0, lsr lr
     f0c:	00000c15 	andeq	r0, r0, r5, lsl ip
     f10:	05500112 	ldrbeq	r0, [r0, #-274]	; 0x112
     f14:	00959003 	addseq	r9, r5, r3
     f18:	bc110000 	ldclt	0, cr0, [r1], {-0}
     f1c:	30000086 	andcc	r0, r0, r6, lsl #1
     f20:	1200000e 	andne	r0, r0, #14
     f24:	77025301 	strvc	r5, [r2, -r1, lsl #6]
     f28:	52011200 	andpl	r1, r1, #0, 4
     f2c:	12007602 	andne	r7, r0, #2097152	; 0x200000
     f30:	75025101 	strvc	r5, [r2, #-257]	; 0x101
     f34:	50011200 	andpl	r1, r1, r0, lsl #4
     f38:	98980305 	ldmls	r8, {r0, r2, r8, r9}
     f3c:	00000000 	andeq	r0, r0, r0
     f40:	0000ad07 	andeq	sl, r0, r7, lsl #26
     f44:	006e2500 	rsbeq	r2, lr, r0, lsl #10
     f48:	a1010000 	mrsge	r0, (UNDEF: 1)
     f4c:	00000025 	andeq	r0, r0, r5, lsr #32
     f50:	00008700 	andeq	r8, r0, r0, lsl #14
     f54:	00000148 	andeq	r0, r0, r8, asr #2
     f58:	0df79c01 	ldcleq	12, cr9, [r7, #4]!
     f5c:	11190000 	tstne	r9, r0
     f60:	01000002 	tsteq	r0, r2
     f64:	000037a2 	andeq	r3, r0, r2, lsr #15
     f68:	00067a00 	andeq	r7, r6, r0, lsl #20
     f6c:	031c1900 	tsteq	ip, #0, 18
     f70:	a3010000 	movwge	r0, #4096	; 0x1000
     f74:	00000037 	andeq	r0, r0, r7, lsr r0
     f78:	0000068d 	andeq	r0, r0, sp, lsl #13
     f7c:	0002b119 	andeq	fp, r2, r9, lsl r1
     f80:	37a70100 	strcc	r0, [r7, r0, lsl #2]!
     f84:	a0000000 	andge	r0, r0, r0
     f88:	19000006 	stmdbne	r0, {r1, r2}
     f8c:	00000266 	andeq	r0, r0, r6, ror #4
     f90:	0037a801 	eorseq	sl, r7, r1, lsl #16
     f94:	06bf0000 	ldrteq	r0, [pc], r0
     f98:	36210000 	strtcc	r0, [r1], -r0
     f9c:	01000002 	tsteq	r0, r2
     fa0:	000df7aa 	andeq	pc, sp, sl, lsr #15
     fa4:	26540100 	ldrbcs	r0, [r4], -r0, lsl #2
     fa8:	00000018 	andeq	r0, r0, r8, lsl r0
     fac:	00000d58 	andeq	r0, r0, r8, asr sp
     fb0:	01006817 	tsteq	r0, r7, lsl r8
     fb4:	0001ecac 	andeq	lr, r1, ip, lsr #25
     fb8:	0006de00 	andeq	sp, r6, r0, lsl #28
     fbc:	87581e00 	ldrbhi	r1, [r8, -r0, lsl #28]
     fc0:	04fc0000 	ldrbteq	r0, [ip], #0
     fc4:	0ccc0000 	stcleq	0, cr0, [ip], {0}
     fc8:	01120000 	tsteq	r2, r0
     fcc:	00740250 	rsbseq	r0, r4, r0, asr r2
     fd0:	87681e00 	strbhi	r1, [r8, -r0, lsl #28]!
     fd4:	0e300000 	cdpeq	0, 3, cr0, cr0, cr0, {0}
     fd8:	0ce00000 	stcleq	0, cr0, [r0]
     fdc:	01120000 	tsteq	r2, r0
     fe0:	00790250 	rsbseq	r0, r9, r0, asr r2
     fe4:	87701e00 	ldrbhi	r1, [r0, -r0, lsl #28]!
     fe8:	0e300000 	cdpeq	0, 3, cr0, cr0, cr0, {0}
     fec:	0cf70000 	ldcleq	0, cr0, [r7]
     ff0:	01120000 	tsteq	r2, r0
     ff4:	00030550 	andeq	r0, r3, r0, asr r5
     ff8:	00000099 	muleq	r0, r9, r0
     ffc:	0087801e 	addeq	r8, r7, lr, lsl r0
    1000:	00062000 	andeq	r2, r6, r0
    1004:	000d0b00 	andeq	r0, sp, r0, lsl #22
    1008:	50011200 	andpl	r1, r1, r0, lsl #4
    100c:	00007402 	andeq	r7, r0, r2, lsl #8
    1010:	00879c1e 	addeq	r9, r7, lr, lsl ip
    1014:	0001f200 	andeq	pc, r1, r0, lsl #4
    1018:	000d1f00 	andeq	r1, sp, r0, lsl #30
    101c:	50011200 	andpl	r1, r1, r0, lsl #4
    1020:	00007402 	andeq	r7, r0, r2, lsl #8
    1024:	0087ac1e 	addeq	sl, r7, lr, lsl ip
    1028:	0002d600 	andeq	sp, r2, r0, lsl #12
    102c:	000d3300 	andeq	r3, sp, r0, lsl #6
    1030:	50011200 	andpl	r1, r1, r0, lsl #4
    1034:	00007402 	andeq	r7, r0, r2, lsl #8
    1038:	0087bc1e 	addeq	fp, r7, lr, lsl ip
    103c:	000e3000 	andeq	r3, lr, r0
    1040:	000d4700 	andeq	r4, sp, r0, lsl #14
    1044:	50011200 	andpl	r1, r1, r0, lsl #4
    1048:	00007902 	andeq	r7, r0, r2, lsl #18
    104c:	0087c411 	addeq	ip, r7, r1, lsl r4
    1050:	000e3000 	andeq	r3, lr, r0
    1054:	50011200 	andpl	r1, r1, r0, lsl #4
    1058:	00007802 	andeq	r7, r0, r2, lsl #16
    105c:	87241e00 	strhi	r1, [r4, -r0, lsl #28]!
    1060:	0e300000 	cdpeq	0, 3, cr0, cr0, cr0, {0}
    1064:	0d6f0000 	stcleq	0, cr0, [pc, #-0]	; 106c <_start-0x6f94>
    1068:	01120000 	tsteq	r2, r0
    106c:	90030550 	andls	r0, r3, r0, asr r5
    1070:	00000095 	muleq	r0, r5, r0
    1074:	0087341e 	addeq	r3, r7, lr, lsl r4
    1078:	000e3000 	andeq	r3, lr, r0
    107c:	000d9200 	andeq	r9, sp, r0, lsl #4
    1080:	52011200 	andpl	r1, r1, #0, 4
    1084:	12007502 	andne	r7, r0, #8388608	; 0x800000
    1088:	76025101 	strvc	r5, [r2], -r1, lsl #2
    108c:	50011200 	andpl	r1, r1, r0, lsl #4
    1090:	98c80305 	stmials	r8, {r0, r2, r8, r9}^
    1094:	1e000000 	cdpne	0, 0, cr0, cr0, cr0, {0}
    1098:	000087fc 	strdeq	r8, [r0], -ip
    109c:	00000e30 	andeq	r0, r0, r0, lsr lr
    10a0:	00000da6 	andeq	r0, r0, r6, lsr #27
    10a4:	02500112 	subseq	r0, r0, #-2147483644	; 0x80000004
    10a8:	1e000079 	mcrne	0, 0, r0, cr0, cr9, {3}
    10ac:	0000880c 	andeq	r8, r0, ip, lsl #16
    10b0:	00000e30 	andeq	r0, r0, r0, lsr lr
    10b4:	00000dc9 	andeq	r0, r0, r9, asr #27
    10b8:	02520112 	subseq	r0, r2, #-2147483644	; 0x80000004
    10bc:	01120076 	tsteq	r2, r6, ror r0
    10c0:	00750251 	rsbseq	r0, r5, r1, asr r2
    10c4:	05500112 	ldrbeq	r0, [r0, #-274]	; 0x112
    10c8:	00993003 	addseq	r3, r9, r3
    10cc:	181e0000 	ldmdane	lr, {}	; <UNPREDICTABLE>
    10d0:	30000088 	andcc	r0, r0, r8, lsl #1
    10d4:	dd00000e 	stcle	0, cr0, [r0, #-56]	; 0xffffffc8
    10d8:	1200000d 	andne	r0, r0, #13
    10dc:	79025001 	stmdbvc	r2, {r0, ip, lr}
    10e0:	24110000 	ldrcs	r0, [r1], #-0
    10e4:	30000088 	andcc	r0, r0, r8, lsl #1
    10e8:	1200000e 	andne	r0, r0, #14
    10ec:	75025101 	strvc	r5, [r2, #-257]	; 0x101
    10f0:	50011200 	andpl	r1, r1, r0, lsl #4
    10f4:	99580305 	ldmdbls	r8, {r0, r2, r8, r9}^
    10f8:	00000000 	andeq	r0, r0, r0
    10fc:	005a0406 	subseq	r0, sl, r6, lsl #8
    1100:	98210000 	stmdals	r1!, {}	; <UNPREDICTABLE>
    1104:	01000002 	tsteq	r0, r2
    1108:	000df707 	andeq	pc, sp, r7, lsl #14
    110c:	bc030500 	cfstr32lt	mvfx0, [r3], {-0}
    1110:	2100009b 	swpcs	r0, fp, [r0]	; <UNPREDICTABLE>
    1114:	00000c25 	andeq	r0, r0, r5, lsr #24
    1118:	0df70701 	ldcleq	7, cr0, [r7, #4]!
    111c:	03050000 	movweq	r0, #20480	; 0x5000
    1120:	00009bc0 	andeq	r9, r0, r0, asr #23
    1124:	000c1221 	andeq	r1, ip, r1, lsr #4
    1128:	f7070100 			; <UNDEFINED> instruction: 0xf7070100
    112c:	0500000d 	streq	r0, [r0, #-13]
    1130:	009bb803 	addseq	fp, fp, r3, lsl #16
    1134:	03b22700 			; <UNDEFINED> instruction: 0x03b22700
    1138:	29050000 	stmdbcs	r5, {}	; <UNPREDICTABLE>
    113c:	00000025 	andeq	r0, r0, r5, lsr #32
    1140:	00000e46 	andeq	r0, r0, r6, asr #28
    1144:	0000a228 	andeq	sl, r0, r8, lsr #4
    1148:	27002900 	strcs	r2, [r0, -r0, lsl #18]
    114c:	00000118 	andeq	r0, r0, r8, lsl r1
    1150:	00931b06 	addseq	r1, r3, r6, lsl #22
    1154:	0e650000 	cdpeq	0, 6, cr0, cr5, cr0, {0}
    1158:	93280000 	teqls	r8, #0
    115c:	28000000 	stmdacs	r0, {}	; <UNPREDICTABLE>
    1160:	00000025 	andeq	r0, r0, r5, lsr #32
    1164:	00002c28 	andeq	r2, r0, r8, lsr #24
    1168:	bf270000 	svclt	0x00270000
    116c:	07000001 	streq	r0, [r0, -r1]
    1170:	00007305 	andeq	r7, r0, r5, lsl #6
    1174:	000e7f00 	andeq	r7, lr, r0, lsl #30
    1178:	0e7f2800 	cdpeq	8, 7, cr2, cr15, cr0, {0}
    117c:	25280000 	strcs	r0, [r8, #-0]!
    1180:	00000000 	andeq	r0, r0, r0
    1184:	0e850406 	cdpeq	4, 8, cr0, cr5, cr6, {0}
    1188:	2b2a0000 	blcs	a81190 <__bss_end__+0xa771c8>
    118c:	0000019c 	muleq	r0, ip, r1
    1190:	4b2b1e05 	blmi	ac89ac <__bss_end__+0xabe9e4>
    1194:	05000001 	streq	r0, [r0, #-1]
    1198:	01120065 	tsteq	r2, r5, rrx
    119c:	00040000 	andeq	r0, r4, r0
    11a0:	00000378 	andeq	r0, r0, r8, ror r3
    11a4:	000f0104 	andeq	r0, pc, r4, lsl #2
    11a8:	32010000 	andcc	r0, r1, #0
    11ac:	3e000003 	cdpcc	0, 0, cr0, cr0, cr3, {0}
    11b0:	48000003 	stmdami	r0, {r0, r1}
    11b4:	f0000088 			; <UNDEFINED> instruction: 0xf0000088
    11b8:	f6000000 			; <UNDEFINED> instruction: 0xf6000000
    11bc:	02000003 	andeq	r0, r0, #3
    11c0:	6e690504 	cdpvs	5, 6, cr0, cr9, cr4, {0}
    11c4:	04030074 	streq	r0, [r3], #-116	; 0x74
    11c8:	00013e07 	andeq	r3, r1, r7, lsl #28
    11cc:	06010300 	streq	r0, [r1], -r0, lsl #6
    11d0:	0000007f 	andeq	r0, r0, pc, ror r0
    11d4:	76050203 	strvc	r0, [r5], -r3, lsl #4
    11d8:	03000001 	movweq	r0, #1
    11dc:	01660504 	cmneq	r6, r4, lsl #10
    11e0:	08030000 	stmdaeq	r3, {}	; <UNPREDICTABLE>
    11e4:	00016105 	andeq	r6, r1, r5, lsl #2
    11e8:	03030400 	movweq	r0, #13312	; 0x3400
    11ec:	2e020000 	cdpcs	0, 0, cr0, cr2, cr0, {0}
    11f0:	0000005a 	andeq	r0, r0, sl, asr r0
    11f4:	7d080103 	stfvcs	f0, [r8, #-12]
    11f8:	03000000 	movweq	r0, #0
    11fc:	00f40702 	rscseq	r0, r4, r2, lsl #14
    1200:	07040000 	streq	r0, [r4, -r0]
    1204:	02000001 	andeq	r0, r0, #1
    1208:	00007334 	andeq	r7, r0, r4, lsr r3
    120c:	07040300 	streq	r0, [r4, -r0, lsl #6]
    1210:	00000139 	andeq	r0, r0, r9, lsr r1
    1214:	34070803 	strcc	r0, [r7], #-2051	; 0x803
    1218:	03000001 	movweq	r0, #1
    121c:	01580704 	cmpeq	r8, r4, lsl #14
    1220:	01030000 	mrseq	r0, (UNDEF: 3)
    1224:	00008608 	andeq	r8, r0, r8, lsl #12
    1228:	95040500 	strls	r0, [r4, #-1280]	; 0x500
    122c:	06000000 	streq	r0, [r0], -r0
    1230:	00000088 	andeq	r0, r0, r8, lsl #1
    1234:	0001bf07 	andeq	fp, r1, r7, lsl #30
    1238:	680f0100 	stmdavs	pc, {r8}	; <UNPREDICTABLE>
    123c:	48000000 	stmdami	r0, {}	; <UNPREDICTABLE>
    1240:	f0000088 			; <UNDEFINED> instruction: 0xf0000088
    1244:	01000000 	mrseq	r0, (UNDEF: 0)
    1248:	00010e9c 	muleq	r1, ip, lr
    124c:	0a860800 	beq	fe183254 <__bss_end__+0xfe17928c>
    1250:	0f010000 	svceq	0x00010000
    1254:	0000010e 	andeq	r0, r0, lr, lsl #2
    1258:	000006f1 	strdeq	r0, [r0], -r1
    125c:	6e656c09 	cdpvs	12, 6, cr6, cr5, cr9, {0}
    1260:	250f0100 	strcs	r0, [pc, #-256]	; 1168 <_start-0x6e98>
    1264:	2b000000 	blcs	126c <_start-0x6d94>
    1268:	0a000007 	beq	128c <_start-0x6d74>
    126c:	00000a87 	andeq	r0, r0, r7, lsl #21
    1270:	008f1001 	addeq	r1, pc, r1
    1274:	076a0000 	strbeq	r0, [sl, -r0]!
    1278:	c40a0000 	strgt	r0, [sl], #-0
    127c:	01000001 	tsteq	r0, r1
    1280:	00006811 	andeq	r6, r0, r1, lsl r8
    1284:	0007a900 	andeq	sl, r7, r0, lsl #18
    1288:	6d740b00 	vldmdbvs	r4!, {d16-d15}
    128c:	11010070 	tstne	r1, r0, ror r0
    1290:	00000068 	andeq	r0, r0, r8, rrx
    1294:	000007f3 	strdeq	r0, [r0], -r3
    1298:	6d65720b 	sfmvs	f7, 2, [r5, #-44]!	; 0xffffffd4
    129c:	25120100 	ldrcs	r0, [r2, #-256]	; 0x100
    12a0:	3e000000 	cdpcc	0, 0, cr0, cr0, cr0, {0}
    12a4:	00000008 	andeq	r0, r0, r8
    12a8:	01140405 	tsteq	r4, r5, lsl #8
    12ac:	000c0000 	andeq	r0, ip, r0
    12b0:	000000db 	ldrdeq	r0, [r0], -fp
    12b4:	041c0004 	ldreq	r0, [ip], #-4
    12b8:	01040000 	mrseq	r0, (UNDEF: 4)
    12bc:	0000000f 	andeq	r0, r0, pc
    12c0:	00038401 	andeq	r8, r3, r1, lsl #8
    12c4:	00033e00 	andeq	r3, r3, r0, lsl #28
    12c8:	00893800 	addeq	r3, r9, r0, lsl #16
    12cc:	00002000 	andeq	r2, r0, r0
    12d0:	0004d800 	andeq	sp, r4, r0, lsl #16
    12d4:	06010200 	streq	r0, [r1], -r0, lsl #4
    12d8:	0000007f 	andeq	r0, r0, pc, ror r0
    12dc:	7d080102 	stfvcs	f0, [r8, #-8]
    12e0:	02000000 	andeq	r0, r0, #0
    12e4:	01760502 	cmneq	r6, r2, lsl #10
    12e8:	02020000 	andeq	r0, r2, #0
    12ec:	0000f407 	andeq	pc, r0, r7, lsl #8
    12f0:	05040300 	streq	r0, [r4, #-768]	; 0x300
    12f4:	00746e69 	rsbseq	r6, r4, r9, ror #28
    12f8:	3e070402 	cdpcc	4, 0, cr0, cr7, cr2, {0}
    12fc:	02000001 	andeq	r0, r0, #1
    1300:	01610508 	cmneq	r1, r8, lsl #10
    1304:	08020000 	stmdaeq	r2, {}	; <UNPREDICTABLE>
    1308:	00013407 	andeq	r3, r1, r7, lsl #8
    130c:	05040200 	streq	r0, [r4, #-512]	; 0x200
    1310:	00000166 	andeq	r0, r0, r6, ror #2
    1314:	58070402 	stmdapl	r7, {r1, sl}
    1318:	04000001 	streq	r0, [r0], #-1
    131c:	07040204 	streq	r0, [r4, -r4, lsl #4]
    1320:	00000139 	andeq	r0, r0, r9, lsr r1
    1324:	007a0405 	rsbseq	r0, sl, r5, lsl #8
    1328:	01020000 	mrseq	r0, (UNDEF: 2)
    132c:	00008608 	andeq	r8, r0, r8, lsl #12
    1330:	00000600 	andeq	r0, r0, r0, lsl #12
    1334:	d4020000 	strle	r0, [r2], #-0
    1338:	00000048 	andeq	r0, r0, r8, asr #32
    133c:	00011807 	andeq	r1, r1, r7, lsl #16
    1340:	6b1b0300 	blvs	6c1f48 <__bss_end__+0x6b7f80>
    1344:	38000000 	stmdacc	r0, {}	; <UNPREDICTABLE>
    1348:	20000089 	andcs	r0, r0, r9, lsl #1
    134c:	01000000 	mrseq	r0, (UNDEF: 0)
    1350:	705f089c 			; <UNDEFINED> instruction: 0x705f089c
    1354:	6b030100 	blvs	c175c <__bss_end__+0xb7794>
    1358:	01000000 	mrseq	r0, (UNDEF: 0)
    135c:	00630850 	rsbeq	r0, r3, r0, asr r8
    1360:	00410301 	subeq	r0, r1, r1, lsl #6
    1364:	51010000 	mrspl	r0, (UNDEF: 1)
    1368:	01006e09 	tsteq	r0, r9, lsl #28
    136c:	00008103 	andeq	r8, r0, r3, lsl #2
    1370:	00085100 	andeq	r5, r8, r0, lsl #2
    1374:	00700a00 	rsbseq	r0, r0, r0, lsl #20
    1378:	00740401 	rsbseq	r0, r4, r1, lsl #8
    137c:	08720000 	ldmdaeq	r2!, {}^	; <UNPREDICTABLE>
    1380:	650b0000 	strvs	r0, [fp, #-0]
    1384:	74040100 	strvc	r0, [r4], #-256	; 0x100
    1388:	01000000 	mrseq	r0, (UNDEF: 0)
    138c:	91000052 	qaddls	r0, r2, r0
    1390:	04000001 	streq	r0, [r0], #-1
    1394:	0004b900 	andeq	fp, r4, r0, lsl #18
    1398:	0f010400 	svceq	0x00010400
    139c:	01000000 	mrseq	r0, (UNDEF: 0)
    13a0:	000003a1 	andeq	r0, r0, r1, lsr #7
    13a4:	0000033e 	andeq	r0, r0, lr, lsr r3
    13a8:	00008958 	andeq	r8, r0, r8, asr r9
    13ac:	00000058 	andeq	r0, r0, r8, asr r0
    13b0:	000005c8 	andeq	r0, r0, r8, asr #11
    13b4:	00039202 	andeq	r9, r3, r2, lsl #4
    13b8:	30280200 	eorcc	r0, r8, r0, lsl #4
    13bc:	03000000 	movweq	r0, #0
    13c0:	000003b9 			; <UNDEFINED> instruction: 0x000003b9
    13c4:	47000304 	strmi	r0, [r0, -r4, lsl #6]
    13c8:	04000000 	streq	r0, [r0], #-0
    13cc:	000003c3 	andeq	r0, r0, r3, asr #7
    13d0:	00000047 	andeq	r0, r0, r7, asr #32
    13d4:	04050000 	streq	r0, [r5], #-0
    13d8:	0003bb02 	andeq	fp, r3, r2, lsl #22
    13dc:	25620200 	strbcs	r0, [r2, #-512]!	; 0x200
    13e0:	06000000 	streq	r0, [r0], -r0
    13e4:	6e690504 	cdpvs	5, 6, cr0, cr9, cr4, {0}
    13e8:	04070074 	streq	r0, [r7], #-116	; 0x74
    13ec:	00013e07 	andeq	r3, r1, r7, lsl #28
    13f0:	06010700 	streq	r0, [r1], -r0, lsl #14
    13f4:	0000007f 	andeq	r0, r0, pc, ror r0
    13f8:	76050207 	strvc	r0, [r5], -r7, lsl #4
    13fc:	07000001 	streq	r0, [r0, -r1]
    1400:	01660504 	cmneq	r6, r4, lsl #10
    1404:	08070000 	stmdaeq	r7, {}	; <UNPREDICTABLE>
    1408:	00016105 	andeq	r6, r1, r5, lsl #2
    140c:	08010700 	stmdaeq	r1, {r8, r9, sl}
    1410:	0000007d 	andeq	r0, r0, sp, ror r0
    1414:	f4070207 	vst1.8	{d0-d3}, [r7], r7
    1418:	07000000 	streq	r0, [r0, -r0]
    141c:	01390704 	teqeq	r9, r4, lsl #14
    1420:	08070000 	stmdaeq	r7, {}	; <UNPREDICTABLE>
    1424:	00013407 	andeq	r3, r1, r7, lsl #8
    1428:	07040700 	streq	r0, [r4, -r0, lsl #14]
    142c:	00000158 	andeq	r0, r0, r8, asr r1
    1430:	00a70408 	adceq	r0, r7, r8, lsl #8
    1434:	01070000 	mrseq	r0, (UNDEF: 7)
    1438:	00008608 	andeq	r8, r0, r8, lsl #12
    143c:	b4040800 	strlt	r0, [r4], #-2048	; 0x800
    1440:	09000000 	stmdbeq	r0, {}	; <UNPREDICTABLE>
    1444:	000000a7 	andeq	r0, r0, r7, lsr #1
    1448:	0003b20a 	andeq	fp, r3, sl, lsl #4
    144c:	54060100 	strpl	r0, [r6], #-256	; 0x100
    1450:	58000000 	stmdapl	r0, {}	; <UNPREDICTABLE>
    1454:	58000089 	stmdapl	r0, {r0, r3, r7}
    1458:	01000000 	mrseq	r0, (UNDEF: 0)
    145c:	0001439c 	muleq	r1, ip, r3
    1460:	6d660b00 	vstmdbvs	r6!, {d16-d15}
    1464:	06010074 			; <UNDEFINED> instruction: 0x06010074
    1468:	000000ae 	andeq	r0, r0, lr, lsr #1
    146c:	0c709102 	ldfeqp	f1, [r0], #-8
    1470:	6675620d 	ldrbtvs	r6, [r5], -sp, lsl #4
    1474:	43080100 	movwmi	r0, #33024	; 0x8100
    1478:	05000001 	streq	r0, [r0, #-1]
    147c:	009bc403 	addseq	ip, fp, r3, lsl #8
    1480:	067e0e00 	ldrbteq	r0, [lr], -r0, lsl #28
    1484:	09010000 	stmdbeq	r1, {}	; <UNPREDICTABLE>
    1488:	00000049 	andeq	r0, r0, r9, asr #32
    148c:	0f5c9102 	svceq	0x005c9102
    1490:	01007a73 	tsteq	r0, r3, ror sl
    1494:	0000540c 	andeq	r5, r0, ip, lsl #8
    1498:	00089d00 	andeq	r9, r8, r0, lsl #26
    149c:	89801000 	stmibhi	r0, {ip}
    14a0:	01740000 	cmneq	r4, r0
    14a4:	01360000 	teqeq	r6, r0
    14a8:	01110000 	tsteq	r1, r0
    14ac:	4c910253 	lfmmi	f0, 4, [r1], {83}	; 0x53
    14b0:	03520111 	cmpeq	r2, #1073741828	; 0x40000004
    14b4:	11064891 			; <UNDEFINED> instruction: 0x11064891
    14b8:	0a035101 	beq	d58c4 <__bss_end__+0xcb8fc>
    14bc:	01110400 	tsteq	r1, r0, lsl #8
    14c0:	00740250 	rsbseq	r0, r4, r0, asr r2
    14c4:	89941200 	ldmibhi	r4, {r9, ip}
    14c8:	01110000 	tsteq	r1, r0
    14cc:	00740250 	rsbseq	r0, r4, r0, asr r2
    14d0:	a7130000 	ldrge	r0, [r3, -r0]
    14d4:	54000000 	strpl	r0, [r0], #-0
    14d8:	14000001 	strne	r0, [r0], #-1
    14dc:	0000009a 	muleq	r0, sl, r0
    14e0:	150003ff 	strne	r0, [r0, #-1023]	; 0x3ff
    14e4:	00000054 	andeq	r0, r0, r4, asr r0
    14e8:	00000163 	andeq	r0, r0, r3, ror #2
    14ec:	0000ae16 	andeq	sl, r0, r6, lsl lr
    14f0:	20170000 	andscs	r0, r7, r0
    14f4:	04000004 	streq	r0, [r0], #-4
    14f8:	00016e22 	andeq	r6, r1, r2, lsr #28
    14fc:	54040800 	strpl	r0, [r4], #-2048	; 0x800
    1500:	18000001 	stmdane	r0, {r0}
    1504:	000003af 	andeq	r0, r0, pc, lsr #7
    1508:	00540205 	subseq	r0, r4, r5, lsl #4
    150c:	a1160000 	tstge	r6, r0
    1510:	16000000 	strne	r0, [r0], -r0
    1514:	00000054 	andeq	r0, r0, r4, asr r0
    1518:	0000ae16 	andeq	sl, r0, r6, lsl lr
    151c:	00491600 	subeq	r1, r9, r0, lsl #12
    1520:	00000000 	andeq	r0, r0, r0
    1524:	00000113 	andeq	r0, r0, r3, lsl r1
    1528:	05ea0004 	strbeq	r0, [sl, #4]!
    152c:	01040000 	mrseq	r0, (UNDEF: 4)
    1530:	0000000f 	andeq	r0, r0, pc
    1534:	0003ef01 	andeq	lr, r3, r1, lsl #30
    1538:	00033e00 	andeq	r3, r3, r0, lsl #28
    153c:	0089b000 	addeq	fp, r9, r0
    1540:	00003c00 	andeq	r3, r0, r0, lsl #24
    1544:	0006d800 	andeq	sp, r6, r0, lsl #16
    1548:	05040200 	streq	r0, [r4, #-512]	; 0x200
    154c:	00746e69 	rsbseq	r6, r4, r9, ror #28
    1550:	3e070403 	cdpcc	4, 0, cr0, cr7, cr3, {0}
    1554:	03000001 	movweq	r0, #1
    1558:	007f0601 	rsbseq	r0, pc, r1, lsl #12
    155c:	02030000 	andeq	r0, r3, #0
    1560:	00017605 	andeq	r7, r1, r5, lsl #12
    1564:	05040300 	streq	r0, [r4, #-768]	; 0x300
    1568:	00000166 	andeq	r0, r0, r6, ror #2
    156c:	61050803 	tstvs	r5, r3, lsl #16
    1570:	03000001 	movweq	r0, #1
    1574:	007d0801 	rsbseq	r0, sp, r1, lsl #16
    1578:	02030000 	andeq	r0, r3, #0
    157c:	0000f407 	andeq	pc, r0, r7, lsl #8
    1580:	07040300 	streq	r0, [r4, -r0, lsl #6]
    1584:	00000139 	andeq	r0, r0, r9, lsr r1
    1588:	34070803 	strcc	r0, [r7], #-2051	; 0x803
    158c:	03000001 	movweq	r0, #1
    1590:	01580704 	cmpeq	r8, r4, lsl #14
    1594:	01030000 	mrseq	r0, (UNDEF: 3)
    1598:	00008608 	andeq	r8, r0, r8, lsl #12
    159c:	03d20400 	bicseq	r0, r2, #0, 8
    15a0:	03010000 	movweq	r0, #4096	; 0x1000
    15a4:	00000025 	andeq	r0, r0, r5, lsr #32
    15a8:	000089b0 			; <UNDEFINED> instruction: 0x000089b0
    15ac:	00000014 	andeq	r0, r0, r4, lsl r0
    15b0:	00b09c01 	adcseq	r9, r0, r1, lsl #24
    15b4:	63050000 	movwvs	r0, #20480	; 0x5000
    15b8:	25030100 	strcs	r0, [r3, #-256]	; 0x100
    15bc:	c6000000 	strgt	r0, [r0], -r0
    15c0:	06000008 	streq	r0, [r0], -r8
    15c4:	000089bc 			; <UNDEFINED> instruction: 0x000089bc
    15c8:	00000109 	andeq	r0, r0, r9, lsl #2
    15cc:	02500107 	subseq	r0, r0, #-1073741823	; 0xc0000001
    15d0:	00000074 	andeq	r0, r0, r4, ror r0
    15d4:	00019c08 	andeq	r9, r1, r8, lsl #24
    15d8:	c4080100 	strgt	r0, [r8], #-256	; 0x100
    15dc:	18000089 	stmdane	r0, {r0, r3, r7}
    15e0:	01000000 	mrseq	r0, (UNDEF: 0)
    15e4:	03fe099c 	mvnseq	r0, #156, 18	; 0x270000
    15e8:	0b010000 	bleq	415f0 <__bss_end__+0x37628>
    15ec:	000089dc 	ldrdeq	r8, [r0], -ip
    15f0:	00000010 	andeq	r0, r0, r0, lsl r0
    15f4:	00e39c01 	rsceq	r9, r3, r1, lsl #24
    15f8:	660a0000 	strvs	r0, [sl], -r0
    15fc:	0b010070 	bleq	417c4 <__bss_end__+0x377fc>
    1600:	000000f2 	strdeq	r0, [r0], -r2
    1604:	0b005001 	bleq	15610 <__bss_end__+0xb648>
    1608:	00000025 	andeq	r0, r0, r5, lsr #32
    160c:	000000f2 	strdeq	r0, [r0], -r2
    1610:	0000250c 	andeq	r2, r0, ip, lsl #10
    1614:	040d0000 	streq	r0, [sp], #-0
    1618:	000000e3 	andeq	r0, r0, r3, ror #1
    161c:	0003e30e 	andeq	lr, r3, lr, lsl #6
    1620:	f2060100 	vrhadd.s8	d0, d6, d0
    1624:	05000000 	streq	r0, [r0, #-0]
    1628:	00951403 	addseq	r1, r5, r3, lsl #8
    162c:	03c80f00 	biceq	r0, r8, #0, 30
    1630:	3c020000 	stccc	0, cr0, [r2], {-0}
    1634:	00002c0c 	andeq	r2, r0, ip, lsl #24
    1638:	ee000000 	cdp	0, 0, cr0, cr0, cr0, {0}
    163c:	04000000 	streq	r0, [r0], #-0
    1640:	0006d200 	andeq	sp, r6, r0, lsl #4
    1644:	0f010400 	svceq	0x00010400
    1648:	01000000 	mrseq	r0, (UNDEF: 0)
    164c:	0000040b 	andeq	r0, r0, fp, lsl #8
    1650:	0000033e 	andeq	r0, r0, lr, lsr r3
    1654:	000089ec 	andeq	r8, r0, ip, ror #19
    1658:	00000034 	andeq	r0, r0, r4, lsr r0
    165c:	00000770 	andeq	r0, r0, r0, ror r7
    1660:	69050402 	stmdbvs	r5, {r1, sl}
    1664:	0300746e 	movweq	r7, #1134	; 0x46e
    1668:	013e0704 	teqeq	lr, r4, lsl #14
    166c:	01030000 	mrseq	r0, (UNDEF: 3)
    1670:	00007f06 	andeq	r7, r0, r6, lsl #30
    1674:	05020300 	streq	r0, [r2, #-768]	; 0x300
    1678:	00000176 	andeq	r0, r0, r6, ror r1
    167c:	66050403 	strvs	r0, [r5], -r3, lsl #8
    1680:	03000001 	movweq	r0, #1
    1684:	01610508 	cmneq	r1, r8, lsl #10
    1688:	01030000 	mrseq	r0, (UNDEF: 3)
    168c:	00007d08 	andeq	r7, r0, r8, lsl #26
    1690:	07020300 	streq	r0, [r2, -r0, lsl #6]
    1694:	000000f4 	strdeq	r0, [r0], -r4
    1698:	39070403 	stmdbcc	r7, {r0, r1, sl}
    169c:	03000001 	movweq	r0, #1
    16a0:	01340708 	teqeq	r4, r8, lsl #14
    16a4:	04030000 	streq	r0, [r3], #-0
    16a8:	00015807 	andeq	r5, r1, r7, lsl #16
    16ac:	08010300 	stmdaeq	r1, {r8, r9}
    16b0:	00000086 	andeq	r0, r0, r6, lsl #1
    16b4:	007f0404 	rsbseq	r0, pc, r4, lsl #8
    16b8:	72050000 	andvc	r0, r5, #0
    16bc:	06000000 	streq	r0, [r0], -r0
    16c0:	00000417 	andeq	r0, r0, r7, lsl r4
    16c4:	00250401 	eoreq	r0, r5, r1, lsl #8
    16c8:	89ec0000 	stmibhi	ip!, {}^	; <UNPREDICTABLE>
    16cc:	00340000 	eorseq	r0, r4, r0
    16d0:	9c010000 	stcls	0, cr0, [r1], {-0}
    16d4:	000000ab 	andeq	r0, r0, fp, lsr #1
    16d8:	01007007 	tsteq	r0, r7
    16dc:	00007904 	andeq	r7, r0, r4, lsl #18
    16e0:	0008e400 	andeq	lr, r8, r0, lsl #8
    16e4:	25080000 	strcs	r0, [r8, #-0]
    16e8:	ba000000 	blt	16f0 <_start-0x6910>
    16ec:	09000000 	stmdbeq	r0, {}	; <UNPREDICTABLE>
    16f0:	00000025 	andeq	r0, r0, r5, lsr #32
    16f4:	03e30a00 	mvneq	r0, #0, 20
    16f8:	1d020000 	stcne	0, cr0, [r2, #-0]
    16fc:	000000c5 	andeq	r0, r0, r5, asr #1
    1700:	00ab0404 	adceq	r0, fp, r4, lsl #8
    1704:	25080000 	strcs	r0, [r8, #-0]
    1708:	da000000 	ble	1710 <_start-0x68f0>
    170c:	09000000 	stmdbeq	r0, {}	; <UNPREDICTABLE>
    1710:	00000079 	andeq	r0, r0, r9, ror r0
    1714:	04200b00 	strteq	r0, [r0], #-2816	; 0xb00
    1718:	0c010000 	stceq	0, cr0, [r1], {-0}
    171c:	000000eb 	andeq	r0, r0, fp, ror #1
    1720:	95180305 	ldrls	r0, [r8, #-773]	; 0x305
    1724:	04040000 	streq	r0, [r4], #-0
    1728:	000000cb 	andeq	r0, r0, fp, asr #1
    172c:	00068100 	andeq	r8, r6, r0, lsl #2
    1730:	6b000400 	blvs	2738 <_start-0x58c8>
    1734:	04000007 	streq	r0, [r0], #-7
    1738:	00000f01 	andeq	r0, r0, r1, lsl #30
    173c:	044c0100 	strbeq	r0, [ip], #-256	; 0x100
    1740:	033e0000 	teqeq	lr, #0
    1744:	8a200000 	bhi	80174c <__bss_end__+0x7f7784>
    1748:	050c0000 	streq	r0, [ip, #-0]
    174c:	08140000 	ldmdaeq	r4, {}	; <UNPREDICTABLE>
    1750:	04020000 	streq	r0, [r2], #-0
    1754:	746e6905 	strbtvc	r6, [lr], #-2309	; 0x905
    1758:	07040300 	streq	r0, [r4, -r0, lsl #6]
    175c:	0000013e 	andeq	r0, r0, lr, lsr r1
    1760:	7f060103 	svcvc	0x00060103
    1764:	03000000 	movweq	r0, #0
    1768:	01760502 	cmneq	r6, r2, lsl #10
    176c:	04030000 	streq	r0, [r3], #-0
    1770:	00016605 	andeq	r6, r1, r5, lsl #12
    1774:	05080300 	streq	r0, [r8, #-768]	; 0x300
    1778:	00000161 	andeq	r0, r0, r1, ror #2
    177c:	7d080103 	stfvcs	f0, [r8, #-12]
    1780:	03000000 	movweq	r0, #0
    1784:	00f40702 	rscseq	r0, r4, r2, lsl #14
    1788:	04030000 	streq	r0, [r3], #-0
    178c:	00013907 	andeq	r3, r1, r7, lsl #18
    1790:	07080300 	streq	r0, [r8, -r0, lsl #6]
    1794:	00000134 	andeq	r0, r0, r4, lsr r1
    1798:	58070403 	stmdapl	r7, {r0, r1, sl}
    179c:	04000001 	streq	r0, [r0], #-1
    17a0:	7a040504 	bvc	102bb8 <__bss_end__+0xf8bf0>
    17a4:	03000000 	movweq	r0, #0
    17a8:	00860801 	addeq	r0, r6, r1, lsl #16
    17ac:	04050000 	streq	r0, [r5], #-0
    17b0:	00000087 	andeq	r0, r0, r7, lsl #1
    17b4:	00007a06 	andeq	r7, r0, r6, lsl #20
    17b8:	03920700 	orrseq	r0, r2, #0, 14
    17bc:	28020000 	stmdacs	r2, {}	; <UNPREDICTABLE>
    17c0:	00000097 	muleq	r0, r7, r0
    17c4:	0003b908 	andeq	fp, r3, r8, lsl #18
    17c8:	00040400 	andeq	r0, r4, r0, lsl #8
    17cc:	000000ae 	andeq	r0, r0, lr, lsr #1
    17d0:	0003c309 	andeq	ip, r3, r9, lsl #6
    17d4:	00007200 	andeq	r7, r0, r0, lsl #4
    17d8:	07000000 	streq	r0, [r0, -r0]
    17dc:	000003bb 			; <UNDEFINED> instruction: 0x000003bb
    17e0:	008c6202 	addeq	r6, ip, r2, lsl #4
    17e4:	330a0000 	movwcc	r0, #40960	; 0xa000
    17e8:	01000004 	tsteq	r0, r4
    17ec:	00002527 	andeq	r2, r0, r7, lsr #10
    17f0:	008a2000 	addeq	r2, sl, r0
    17f4:	00001400 	andeq	r1, r0, r0, lsl #8
    17f8:	e09c0100 	adds	r0, ip, r0, lsl #2
    17fc:	0b000000 	bleq	1804 <_start-0x67fc>
    1800:	27010063 	strcs	r0, [r1, -r3, rrx]
    1804:	00000025 	andeq	r0, r0, r5, lsr #32
    1808:	00000902 	andeq	r0, r0, r2, lsl #18
    180c:	61700c00 	cmnvs	r0, r0, lsl #24
    1810:	2e010064 	cdpcs	0, 0, cr0, cr1, cr4, {3}
    1814:	00000074 	andeq	r0, r0, r4, ror r0
    1818:	00008a34 	andeq	r8, r0, r4, lsr sl
    181c:	0000002c 	andeq	r0, r0, ip, lsr #32
    1820:	01309c01 	teqeq	r0, r1, lsl #24
    1824:	700b0000 	andvc	r0, fp, r0
    1828:	742e0100 	strtvc	r0, [lr], #-256	; 0x100
    182c:	30000000 	andcc	r0, r0, r0
    1830:	0d000009 	stceq	0, cr0, [r0, #-36]	; 0xffffffdc
    1834:	0000065c 	andeq	r0, r0, ip, asr r6
    1838:	00742e01 	rsbseq	r2, r4, r1, lsl #28
    183c:	095b0000 	ldmdbeq	fp, {}^	; <UNPREDICTABLE>
    1840:	6c0e0000 	stcvs	0, cr0, [lr], {-0}
    1844:	01000004 	tsteq	r0, r4
    1848:	0000252e 	andeq	r2, r0, lr, lsr #10
    184c:	0f520100 	svceq	0x00520100
    1850:	006e656c 	rsbeq	r6, lr, ip, ror #10
    1854:	00252f01 	eoreq	r2, r5, r1, lsl #30
    1858:	51010000 	mrspl	r0, (UNDEF: 1)
    185c:	042b0a00 	strteq	r0, [fp], #-2560	; 0xa00
    1860:	37010000 	strcc	r0, [r1, -r0]
    1864:	00000074 	andeq	r0, r0, r4, ror r0
    1868:	00008a60 	andeq	r8, r0, r0, ror #20
    186c:	00000040 	andeq	r0, r0, r0, asr #32
    1870:	019c9c01 	orrseq	r9, ip, r1, lsl #24
    1874:	640b0000 	strvs	r0, [fp], #-0
    1878:	01007473 	tsteq	r0, r3, ror r4
    187c:	00007437 	andeq	r7, r0, r7, lsr r4
    1880:	00097c00 	andeq	r7, r9, r0, lsl #24
    1884:	006e0b00 	rsbeq	r0, lr, r0, lsl #22
    1888:	00253701 	eoreq	r3, r5, r1, lsl #14
    188c:	09b40000 	ldmibeq	r4!, {}	; <UNPREDICTABLE>
    1890:	700b0000 	andvc	r0, fp, r0
    1894:	74370100 	ldrtvc	r0, [r7], #-256	; 0x100
    1898:	d5000000 	strle	r0, [r0, #-0]
    189c:	0d000009 	stceq	0, cr0, [r0, #-36]	; 0xffffffdc
    18a0:	00000c17 	andeq	r0, r0, r7, lsl ip
    18a4:	00743701 	rsbseq	r3, r4, r1, lsl #14
    18a8:	0a0b0000 	beq	2c18b0 <__bss_end__+0x2b78e8>
    18ac:	6c100000 	ldcvs	0, cr0, [r0], {-0}
    18b0:	01006e65 	tsteq	r0, r5, ror #28
    18b4:	00002539 	andeq	r2, r0, r9, lsr r5
    18b8:	000a2900 	andeq	r2, sl, r0, lsl #18
    18bc:	00730f00 	rsbseq	r0, r3, r0, lsl #30
    18c0:	00743d01 	rsbseq	r3, r4, r1, lsl #26
    18c4:	50010000 	andpl	r0, r1, r0
    18c8:	047a0a00 	ldrbteq	r0, [sl], #-2560	; 0xa00
    18cc:	47010000 	strmi	r0, [r1, -r0]
    18d0:	00000074 	andeq	r0, r0, r4, ror r0
    18d4:	00008aa0 	andeq	r8, r0, r0, lsr #21
    18d8:	000001b0 			; <UNDEFINED> instruction: 0x000001b0
    18dc:	02d39c01 	sbcseq	r9, r3, #256	; 0x100
    18e0:	5c0d0000 	stcpl	0, cr0, [sp], {-0}
    18e4:	01000006 	tsteq	r0, r6
    18e8:	00002c47 	andeq	r2, r0, r7, asr #24
    18ec:	000a5000 	andeq	r5, sl, r0
    18f0:	73640b00 	cmnvc	r4, #0, 22
    18f4:	47010074 	smlsdxmi	r1, r4, r0, r0
    18f8:	00000074 	andeq	r0, r0, r4, ror r0
    18fc:	00000a7e 	andeq	r0, r0, lr, ror sl
    1900:	01006e0b 	tsteq	r0, fp, lsl #28
    1904:	00002547 	andeq	r2, r0, r7, asr #10
    1908:	000aec00 	andeq	lr, sl, r0, lsl #24
    190c:	61760b00 	cmnvs	r6, r0, lsl #22
    1910:	4701006c 	strmi	r0, [r1, -ip, rrx]
    1914:	00000025 	andeq	r0, r0, r5, lsr #32
    1918:	00000b18 	andeq	r0, r0, r8, lsl fp
    191c:	00046c0d 	andeq	r6, r4, sp, lsl #24
    1920:	25470100 	strbcs	r0, [r7, #-256]	; 0x100
    1924:	97000000 	strls	r0, [r0, -r0]
    1928:	0e00000b 	cdpeq	0, 0, cr0, cr0, cr11, {0}
    192c:	00000443 	andeq	r0, r0, r3, asr #8
    1930:	00254701 	eoreq	r4, r5, r1, lsl #14
    1934:	91020000 	mrsls	r0, (UNDEF: 2)
    1938:	75620f04 	strbvc	r0, [r2, #-3844]!	; 0xf04
    193c:	4c010066 	stcmi	0, cr0, [r1], {102}	; 0x66
    1940:	000002d3 	ldrdeq	r0, [r0], -r3
    1944:	7fa89103 	svcvc	0x00a89103
    1948:	01007010 	tsteq	r0, r0, lsl r0
    194c:	0000744c 	andeq	r7, r0, ip, asr #8
    1950:	000bc100 	andeq	ip, fp, r0, lsl #2
    1954:	00751000 	rsbseq	r1, r5, r0
    1958:	002c4d01 	eoreq	r4, ip, r1, lsl #26
    195c:	0c890000 	stceq	0, cr0, [r9], {0}
    1960:	1f110000 	svcne	0x00110000
    1964:	f3000001 	vhadd.u8	d0, d0, d1
    1968:	05000002 	streq	r0, [r0, #-2]
    196c:	00998803 	addseq	r8, r9, r3, lsl #16
    1970:	8b0c1200 	blhi	306178 <__bss_end__+0x2fc1b0>
    1974:	00740000 	rsbseq	r0, r4, r0
    1978:	02610000 	rsbeq	r0, r1, #0
    197c:	25130000 	ldrcs	r0, [r3, #-0]
    1980:	01000004 	tsteq	r0, r4
    1984:	00002c52 	andeq	r2, r0, r2, asr ip
    1988:	000d4c00 	andeq	r4, sp, r0, lsl #24
    198c:	f8140000 			; <UNDEFINED> instruction: 0xf8140000
    1990:	6000008b 	andvs	r0, r0, fp, lsl #1
    1994:	15000006 	strne	r0, [r0, #-6]
    1998:	00008c0c 	andeq	r8, r0, ip, lsl #24
    199c:	00000667 	andeq	r0, r0, r7, ror #12
    19a0:	00000299 	muleq	r0, r9, r2
    19a4:	02530116 	subseq	r0, r3, #-2147483643	; 0x80000005
    19a8:	01167708 	tsteq	r6, r8, lsl #14
    19ac:	88030552 	stmdahi	r3, {r1, r4, r6, r8, sl}
    19b0:	16000099 			; <UNDEFINED> instruction: 0x16000099
    19b4:	03055101 	movweq	r5, #20737	; 0x5101
    19b8:	000099c0 	andeq	r9, r0, r0, asr #19
    19bc:	05500116 	ldrbeq	r0, [r0, #-278]	; 0x116
    19c0:	0099ac03 	addseq	sl, r9, r3, lsl #24
    19c4:	10140000 	andsne	r0, r4, r0
    19c8:	7d00008c 	stcvc	0, cr0, [r0, #-560]	; 0xfffffdd0
    19cc:	15000006 	strne	r0, [r0, #-6]
    19d0:	00008c18 	andeq	r8, r0, r8, lsl ip
    19d4:	000000e0 	andeq	r0, r0, r0, ror #1
    19d8:	000002b6 			; <UNDEFINED> instruction: 0x000002b6
    19dc:	02510116 	subseq	r0, r1, #-2147483643	; 0x80000005
    19e0:	1700007d 	smlsdxne	r0, sp, r0, r0
    19e4:	00008c2c 	andeq	r8, r0, ip, lsr #24
    19e8:	00000130 	andeq	r0, r0, r0, lsr r1
    19ec:	02530116 	subseq	r0, r3, #-2147483643	; 0x80000005
    19f0:	0116007d 	tsteq	r6, sp, ror r0
    19f4:	00740251 	rsbseq	r0, r4, r1, asr r2
    19f8:	02500116 	subseq	r0, r0, #-2147483643	; 0x80000005
    19fc:	00000075 	andeq	r0, r0, r5, ror r0
    1a00:	00007a18 	andeq	r7, r0, r8, lsl sl
    1a04:	0002e300 	andeq	lr, r2, r0, lsl #6
    1a08:	006b1900 	rsbeq	r1, fp, r0, lsl #18
    1a0c:	003f0000 	eorseq	r0, pc, r0
    1a10:	00007a18 	andeq	r7, r0, r8, lsl sl
    1a14:	0002f300 	andeq	pc, r2, r0, lsl #6
    1a18:	006b1900 	rsbeq	r1, fp, r0, lsl #18
    1a1c:	00040000 	andeq	r0, r4, r0
    1a20:	0002e306 	andeq	lr, r2, r6, lsl #6
    1a24:	045d1a00 	ldrbeq	r1, [sp], #-2560	; 0xa00
    1a28:	1f010000 	svcne	0x00010000
    1a2c:	00008c50 	andeq	r8, r0, r0, asr ip
    1a30:	00000054 	andeq	r0, r0, r4, asr r0
    1a34:	037c9c01 	cmneq	ip, #256	; 0x100
    1a38:	720d0000 	andvc	r0, sp, #0
    1a3c:	01000004 	tsteq	r0, r4
    1a40:	00038b1f 	andeq	r8, r3, pc, lsl fp
    1a44:	000d7800 	andeq	r7, sp, r0, lsl #16
    1a48:	043b0d00 	ldrteq	r0, [fp], #-3328	; 0xd00
    1a4c:	1f010000 	svcne	0x00010000
    1a50:	000003a0 	andeq	r0, r0, r0, lsr #7
    1a54:	00000da4 	andeq	r0, r0, r4, lsr #27
    1a58:	00011f11 	andeq	r1, r1, r1, lsl pc
    1a5c:	0003b600 	andeq	fp, r3, r0, lsl #12
    1a60:	90030500 	andls	r0, r3, r0, lsl #10
    1a64:	14000099 	strne	r0, [r0], #-153	; 0x99
    1a68:	00008c60 	andeq	r8, r0, r0, ror #24
    1a6c:	00000660 	andeq	r0, r0, r0, ror #12
    1a70:	008c7415 	addeq	r7, ip, r5, lsl r4
    1a74:	00066700 	andeq	r6, r6, r0, lsl #14
    1a78:	00037200 	andeq	r7, r3, r0, lsl #4
    1a7c:	53011600 	movwpl	r1, #5632	; 0x1600
    1a80:	16200802 	strtne	r0, [r0], -r2, lsl #16
    1a84:	03055201 	movweq	r5, #20993	; 0x5201
    1a88:	00009990 	muleq	r0, r0, r9
    1a8c:	05510116 	ldrbeq	r0, [r1, #-278]	; 0x116
    1a90:	0099c003 	addseq	ip, r9, r3
    1a94:	50011600 	andpl	r1, r1, r0, lsl #12
    1a98:	99f80305 	ldmibls	r8!, {r0, r2, r8, r9}^
    1a9c:	14000000 	strne	r0, [r0], #-0
    1aa0:	00008c78 	andeq	r8, r0, r8, ror ip
    1aa4:	0000067d 	andeq	r0, r0, sp, ror r6
    1aa8:	00251b00 	eoreq	r1, r5, r0, lsl #22
    1aac:	038b0000 	orreq	r0, fp, #0
    1ab0:	251c0000 	ldrcs	r0, [ip, #-0]
    1ab4:	00000000 	andeq	r0, r0, r0
    1ab8:	037c0405 	cmneq	ip, #83886080	; 0x5000000
    1abc:	251b0000 	ldrcs	r0, [fp, #-0]
    1ac0:	a0000000 	andge	r0, r0, r0
    1ac4:	1c000003 	stcne	0, cr0, [r0], {3}
    1ac8:	00000081 	andeq	r0, r0, r1, lsl #1
    1acc:	91040500 	tstls	r4, r0, lsl #10
    1ad0:	18000003 	stmdane	r0, {r0, r1}
    1ad4:	0000007a 	andeq	r0, r0, sl, ror r0
    1ad8:	000003b6 			; <UNDEFINED> instruction: 0x000003b6
    1adc:	00006b19 	andeq	r6, r0, r9, lsl fp
    1ae0:	06000e00 	streq	r0, [r0], -r0, lsl #28
    1ae4:	000003a6 	andeq	r0, r0, r6, lsr #7
    1ae8:	0003af1d 	andeq	sl, r3, sp, lsl pc
    1aec:	257f0100 	ldrbcs	r0, [pc, #-256]!	; 19f4 <_start-0x660c>
    1af0:	a4000000 	strge	r0, [r0], #-0
    1af4:	8800008c 	stmdahi	r0, {r2, r3, r7}
    1af8:	01000002 	tsteq	r0, r2
    1afc:	0006259c 	muleq	r6, ip, r5
    1b00:	75620b00 	strbvc	r0, [r2, #-2816]!	; 0xb00
    1b04:	7f010066 	svcvc	0x00010066
    1b08:	00000074 	andeq	r0, r0, r4, ror r0
    1b0c:	00000dd0 	ldrdeq	r0, [r0], -r0	; <UNPREDICTABLE>
    1b10:	01006e0b 	tsteq	r0, fp, lsl #28
    1b14:	0000257f 	andeq	r2, r0, pc, ror r5
    1b18:	000dfc00 	andeq	pc, sp, r0, lsl #24
    1b1c:	6d660b00 	vstmdbvs	r6!, {d16-d15}
    1b20:	7f010074 	svcvc	0x00010074
    1b24:	00000081 	andeq	r0, r0, r1, lsl #1
    1b28:	00000e2a 	andeq	r0, r0, sl, lsr #28
    1b2c:	00067e0d 	andeq	r7, r6, sp, lsl #28
    1b30:	ae7f0100 	rpwgee	f0, f7, f0
    1b34:	5e000000 	cdppl	0, 0, cr0, cr0, cr0, {0}
    1b38:	1000000e 	andne	r0, r0, lr
    1b3c:	80010070 	andhi	r0, r1, r0, ror r0
    1b40:	00000074 	andeq	r0, r0, r4, ror r0
    1b44:	00000e71 	andeq	r0, r0, r1, ror lr
    1b48:	01006510 	tsteq	r0, r0, lsl r5
    1b4c:	00007480 	andeq	r7, r0, r0, lsl #9
    1b50:	000eef00 	andeq	lr, lr, r0, lsl #30
    1b54:	011f1100 	tsteq	pc, r0, lsl #2
    1b58:	06350000 	ldrteq	r0, [r5], -r0
    1b5c:	03050000 	movweq	r0, #20480	; 0x5000
    1b60:	000099a0 	andeq	r9, r0, r0, lsr #19
    1b64:	0000301e 	andeq	r3, r0, lr, lsl r0
    1b68:	00731000 	rsbseq	r1, r3, r0
    1b6c:	00748d01 	rsbseq	r8, r4, r1, lsl #26
    1b70:	0f160000 	svceq	0x00160000
    1b74:	6e0f0000 	cdpvs	0, 0, cr0, cr15, cr0, {0}
    1b78:	01006d75 	tsteq	r0, r5, ror sp
    1b7c:	00063a8d 	andeq	r3, r6, sp, lsl #21
    1b80:	d8910300 	ldmle	r1, {r8, r9}
    1b84:	046c137e 	strbteq	r1, [ip], #-894	; 0x37e
    1b88:	8e010000 	cdphi	0, 0, cr0, cr1, cr0, {0}
    1b8c:	0000002c 	andeq	r0, r0, ip, lsr #32
    1b90:	00000f6b 	andeq	r0, r0, fp, ror #30
    1b94:	008d2815 	addeq	r2, sp, r5, lsl r8
    1b98:	0000b900 	andeq	fp, r0, r0, lsl #18
    1b9c:	00047b00 	andeq	r7, r4, r0, lsl #22
    1ba0:	50011600 	andpl	r1, r1, r0, lsl #12
    1ba4:	00007502 	andeq	r7, r0, r2, lsl #10
    1ba8:	008d3c14 	addeq	r3, sp, r4, lsl ip
    1bac:	00066000 	andeq	r6, r6, r0
    1bb0:	8d501500 	cfldr64hi	mvdx1, [r0, #-0]
    1bb4:	06670000 	strbteq	r0, [r7], -r0
    1bb8:	04b30000 	ldrteq	r0, [r3], #0
    1bbc:	01160000 	tsteq	r6, r0
    1bc0:	94080253 	strls	r0, [r8], #-595	; 0x253
    1bc4:	05520116 	ldrbeq	r0, [r2, #-278]	; 0x116
    1bc8:	0099a003 	addseq	sl, r9, r3
    1bcc:	51011600 	tstpl	r1, r0, lsl #12
    1bd0:	99c00305 	stmibls	r0, {r0, r2, r8, r9}^
    1bd4:	01160000 	tsteq	r6, r0
    1bd8:	10030550 	andne	r0, r3, r0, asr r5
    1bdc:	0000009a 	muleq	r0, sl, r0
    1be0:	008d5414 	addeq	r5, sp, r4, lsl r4
    1be4:	00067d00 	andeq	r7, r6, r0, lsl #26
    1be8:	8dc41400 	cfstrdhi	mvd1, [r4]
    1bec:	06600000 	strbteq	r0, [r0], -r0
    1bf0:	d8150000 	ldmdale	r5, {}	; <UNPREDICTABLE>
    1bf4:	6700008d 	strvs	r0, [r0, -sp, lsl #1]
    1bf8:	f4000006 	vst4.8	{d0-d3}, [r0], r6
    1bfc:	16000004 	strne	r0, [r0], -r4
    1c00:	08025301 	stmdaeq	r2, {r0, r8, r9, ip, lr}
    1c04:	5201169a 	andpl	r1, r1, #161480704	; 0x9a00000
    1c08:	99a00305 	stmibls	r0!, {r0, r2, r8, r9}
    1c0c:	01160000 	tsteq	r6, r0
    1c10:	c0030551 	andgt	r0, r3, r1, asr r5
    1c14:	16000099 			; <UNDEFINED> instruction: 0x16000099
    1c18:	03055001 	movweq	r5, #20481	; 0x5001
    1c1c:	00009a2c 	andeq	r9, r0, ip, lsr #20
    1c20:	8ddc1400 	cfldrdhi	mvd1, [ip]
    1c24:	067d0000 	ldrbteq	r0, [sp], -r0
    1c28:	00150000 	andseq	r0, r5, r0
    1c2c:	9c00008e 	stcls	0, cr0, [r0], {142}	; 0x8e
    1c30:	2a000001 	bcs	1c3c <_start-0x63c4>
    1c34:	16000005 	strne	r0, [r0], -r5
    1c38:	08025201 	stmdaeq	r2, {r0, r9, ip, lr}
    1c3c:	51011680 	smlabbpl	r1, r0, r6, r1
    1c40:	7ed09103 	atnvcs	f1, f3
    1c44:	01500116 	cmpeq	r0, r6, lsl r1
    1c48:	7d02163a 	stcvc	6, cr1, [r2, #-232]	; 0xffffff18
    1c4c:	16310104 	ldrtne	r0, [r1], -r4, lsl #2
    1c50:	02007d02 	andeq	r7, r0, #2, 26	; 0x80
    1c54:	15000077 	strne	r0, [r0, #-119]	; 0x77
    1c58:	00008e24 	andeq	r8, r0, r4, lsr #28
    1c5c:	0000019c 	muleq	r0, ip, r1
    1c60:	00000558 	andeq	r0, r0, r8, asr r5
    1c64:	02520116 	subseq	r0, r2, #-2147483643	; 0x80000005
    1c68:	01168008 	tsteq	r6, r8
    1c6c:	d0910351 	addsle	r0, r1, r1, asr r3
    1c70:	5001167e 	andpl	r1, r1, lr, ror r6
    1c74:	02163a01 	andseq	r3, r6, #4096	; 0x1000
    1c78:	7b02047d 	blvc	82e74 <__bss_end__+0x78eac>
    1c7c:	7d021600 	stcvc	6, cr1, [r2, #-0]
    1c80:	00770200 	rsbseq	r0, r7, r0, lsl #4
    1c84:	8e481500 	cdphi	5, 4, cr1, cr8, cr0, {0}
    1c88:	019c0000 	orrseq	r0, ip, r0
    1c8c:	05860000 	streq	r0, [r6]
    1c90:	01160000 	tsteq	r6, r0
    1c94:	80080252 	andhi	r0, r8, r2, asr r2
    1c98:	03510116 	cmpeq	r1, #-2147483643	; 0x80000005
    1c9c:	167ed091 			; <UNDEFINED> instruction: 0x167ed091
    1ca0:	40015001 	andmi	r5, r1, r1
    1ca4:	047d0216 	ldrbteq	r0, [sp], #-534	; 0x216
    1ca8:	16007b02 	strne	r7, [r0], -r2, lsl #22
    1cac:	02007d02 	andeq	r7, r0, #2, 26	; 0x80
    1cb0:	15000077 	strne	r0, [r0, #-119]	; 0x77
    1cb4:	00008e6c 	andeq	r8, r0, ip, ror #28
    1cb8:	0000019c 	muleq	r0, ip, r1
    1cbc:	000005b4 			; <UNDEFINED> instruction: 0x000005b4
    1cc0:	02520116 	subseq	r0, r2, #-2147483643	; 0x80000005
    1cc4:	01168008 	tsteq	r6, r8
    1cc8:	d0910351 	addsle	r0, r1, r1, asr r3
    1ccc:	5001167e 	andpl	r1, r1, lr, ror r6
    1cd0:	02163201 	andseq	r3, r6, #268435456	; 0x10000000
    1cd4:	7b02047d 	blvc	82ed0 <__bss_end__+0x78f08>
    1cd8:	7d021600 	stcvc	6, cr1, [r2, #-0]
    1cdc:	00770200 	rsbseq	r0, r7, r0, lsl #4
    1ce0:	8e9c1500 	cdphi	5, 9, cr1, cr12, cr0, {0}
    1ce4:	019c0000 	orrseq	r0, ip, r0
    1ce8:	05e20000 	strbeq	r0, [r2, #0]!
    1cec:	01160000 	tsteq	r6, r0
    1cf0:	80080252 	andhi	r0, r8, r2, asr r2
    1cf4:	03510116 	cmpeq	r1, #-2147483643	; 0x80000005
    1cf8:	167ed091 			; <UNDEFINED> instruction: 0x167ed091
    1cfc:	38015001 	stmdacc	r1, {r0, ip, lr}
    1d00:	047d0216 	ldrbteq	r0, [sp], #-534	; 0x216
    1d04:	16007b02 	strne	r7, [r0], -r2, lsl #22
    1d08:	02007d02 	andeq	r7, r0, #2, 26	; 0x80
    1d0c:	14000077 	strne	r0, [r0], #-119	; 0x77
    1d10:	00008ea4 	andeq	r8, r0, r4, lsr #29
    1d14:	00000660 	andeq	r0, r0, r0, ror #12
    1d18:	008ec015 	addeq	ip, lr, r5, lsl r0
    1d1c:	00066700 	andeq	r6, r6, r0, lsl #14
    1d20:	00061a00 	andeq	r1, r6, r0, lsl #20
    1d24:	53011600 	movwpl	r1, #5632	; 0x1600
    1d28:	16bb0802 	ldrtne	r0, [fp], r2, lsl #16
    1d2c:	03055201 	movweq	r5, #20993	; 0x5201
    1d30:	000099a0 	andeq	r9, r0, r0, lsr #19
    1d34:	05510116 	ldrbeq	r0, [r1, #-278]	; 0x116
    1d38:	0099c003 	addseq	ip, r9, r3
    1d3c:	50011600 	andpl	r1, r1, r0, lsl #12
    1d40:	9a540305 	bls	150295c <__bss_end__+0x14f8994>
    1d44:	14000000 	strne	r0, [r0], #-0
    1d48:	00008ec4 	andeq	r8, r0, r4, asr #29
    1d4c:	0000067d 	andeq	r0, r0, sp, ror r6
    1d50:	7a180000 	bvc	601d58 <__bss_end__+0x5f7d90>
    1d54:	35000000 	strcc	r0, [r0, #-0]
    1d58:	19000006 	stmdbne	r0, {r1, r2}
    1d5c:	0000006b 	andeq	r0, r0, fp, rrx
    1d60:	25060009 	strcs	r0, [r6, #-9]
    1d64:	18000006 	stmdane	r0, {r1, r2}
    1d68:	0000007a 	andeq	r0, r0, sl, ror r0
    1d6c:	0000064a 	andeq	r0, r0, sl, asr #12
    1d70:	00006b19 	andeq	r6, r0, r9, lsl fp
    1d74:	1f007f00 	svcne	0x00007f00
    1d78:	000003e3 	andeq	r0, r0, r3, ror #7
    1d7c:	038b1d03 	orreq	r1, fp, #3, 26	; 0xc0
    1d80:	201f0000 	andscs	r0, pc, r0
    1d84:	03000004 	movweq	r0, #4
    1d88:	0003a022 	andeq	sl, r3, r2, lsr #32
    1d8c:	019c2000 	orrseq	r2, ip, r0
    1d90:	1e030000 	cdpne	0, 0, cr0, cr3, cr0, {0}
    1d94:	0003b221 	andeq	fp, r3, r1, lsr #4
    1d98:	25290300 	strcs	r0, [r9, #-768]!	; 0x300
    1d9c:	7d000000 	stcvc	0, cr0, [r0, #-0]
    1da0:	1c000006 	stcne	0, cr0, [r0], {6}
    1da4:	00000081 	andeq	r0, r0, r1, lsl #1
    1da8:	4b200022 	blmi	801e38 <__bss_end__+0x7f7e70>
    1dac:	03000001 	movweq	r0, #1
    1db0:	00ff0065 	rscseq	r0, pc, r5, rrx
    1db4:	00040000 	andeq	r0, r4, r0
    1db8:	00000947 	andeq	r0, r0, r7, asr #18
    1dbc:	000f0104 	andeq	r0, pc, r4, lsl #2
    1dc0:	7f010000 	svcvc	0x00010000
    1dc4:	3e000004 	cdpcc	0, 0, cr0, cr0, cr4, {0}
    1dc8:	2c000003 	stccs	0, cr0, [r0], {3}
    1dcc:	2800008f 	stmdacs	r0, {r0, r1, r2, r3, r7}
    1dd0:	03000000 	movweq	r0, #0
    1dd4:	0200000a 	andeq	r0, r0, #10
    1dd8:	6e690504 	cdpvs	5, 6, cr0, cr9, cr4, {0}
    1ddc:	04030074 	streq	r0, [r3], #-116	; 0x74
    1de0:	00013e07 	andeq	r3, r1, r7, lsl #28
    1de4:	06010300 	streq	r0, [r1], -r0, lsl #6
    1de8:	0000007f 	andeq	r0, r0, pc, ror r0
    1dec:	76050203 	strvc	r0, [r5], -r3, lsl #4
    1df0:	03000001 	movweq	r0, #1
    1df4:	01660504 	cmneq	r6, r4, lsl #10
    1df8:	08030000 	stmdaeq	r3, {}	; <UNPREDICTABLE>
    1dfc:	00016105 	andeq	r6, r1, r5, lsl #2
    1e00:	08010300 	stmdaeq	r1, {r8, r9}
    1e04:	0000007d 	andeq	r0, r0, sp, ror r0
    1e08:	f4070203 	vst1.8	{d0-d3}, [r7], r3
    1e0c:	03000000 	movweq	r0, #0
    1e10:	01390704 	teqeq	r9, r4, lsl #14
    1e14:	08030000 	stmdaeq	r3, {}	; <UNPREDICTABLE>
    1e18:	00013407 	andeq	r3, r1, r7, lsl #8
    1e1c:	07040300 	streq	r0, [r4, -r0, lsl #6]
    1e20:	00000158 	andeq	r0, r0, r8, asr r1
    1e24:	86080103 	strhi	r0, [r8], -r3, lsl #2
    1e28:	04000000 	streq	r0, [r0], #-0
    1e2c:	00007f04 	andeq	r7, r0, r4, lsl #30
    1e30:	00720500 	rsbseq	r0, r2, r0, lsl #10
    1e34:	4b060000 	blmi	181e3c <__bss_end__+0x177e74>
    1e38:	01000001 	tsteq	r0, r1
    1e3c:	008f2c04 	addeq	r2, pc, r4, lsl #24
    1e40:	00002800 	andeq	r2, r0, r0, lsl #16
    1e44:	ca9c0100 	bgt	fe70224c <__bss_end__+0xfe6f8284>
    1e48:	07000000 	streq	r0, [r0, -r0]
    1e4c:	00008f40 	andeq	r8, r0, r0, asr #30
    1e50:	000000ac 	andeq	r0, r0, ip, lsr #1
    1e54:	05500108 	ldrbeq	r0, [r0, #-264]	; 0x108
    1e58:	009a8c03 	addseq	r8, sl, r3, lsl #24
    1e5c:	48090000 	stmdami	r9, {}	; <UNPREDICTABLE>
    1e60:	ea00008f 	b	20a4 <_start-0x5f5c>
    1e64:	c0000000 	andgt	r0, r0, r0
    1e68:	08000000 	stmdaeq	r0, {}	; <UNPREDICTABLE>
    1e6c:	08025001 	stmdaeq	r2, {r0, ip, lr}
    1e70:	4c0a0064 	stcmi	0, cr0, [sl], {100}	; 0x64
    1e74:	fb00008f 	blx	20ba <_start-0x5f46>
    1e78:	00000000 	andeq	r0, r0, r0
    1e7c:	0000250b 	andeq	r2, r0, fp, lsl #10
    1e80:	0000d900 	andeq	sp, r0, r0, lsl #18
    1e84:	00790c00 	rsbseq	r0, r9, r0, lsl #24
    1e88:	0d000000 	stceq	0, cr0, [r0, #-0]
    1e8c:	00000420 	andeq	r0, r0, r0, lsr #8
    1e90:	00e42202 	rsceq	r2, r4, r2, lsl #4
    1e94:	04040000 	streq	r0, [r4], #-0
    1e98:	000000ca 	andeq	r0, r0, sl, asr #1
    1e9c:	0004a30e 	andeq	sl, r4, lr, lsl #6
    1ea0:	fb4f0200 	blx	13c26aa <__bss_end__+0x13b86e2>
    1ea4:	0c000000 	stceq	0, cr0, [r0], {-0}
    1ea8:	0000002c 	andeq	r0, r0, ip, lsr #32
    1eac:	04980f00 	ldreq	r0, [r8], #3840	; 0xf00
    1eb0:	62020000 	andvs	r0, r2, #0
    1eb4:	0000ff00 	andeq	pc, r0, r0, lsl #30
    1eb8:	11000400 	tstne	r0, r0, lsl #8
    1ebc:	0400000a 	streq	r0, [r0], #-10
    1ec0:	00000f01 	andeq	r0, r0, r1, lsl #30
    1ec4:	04d60100 	ldrbeq	r0, [r6], #256	; 0x100
    1ec8:	033e0000 	teqeq	lr, #0
    1ecc:	8f540000 	svchi	0x00540000
    1ed0:	00340000 	eorseq	r0, r4, r0
    1ed4:	0aa30000 	beq	fe8c1edc <__bss_end__+0xfe8b7f14>
    1ed8:	04020000 	streq	r0, [r2], #-0
    1edc:	746e6905 	strbtvc	r6, [lr], #-2309	; 0x905
    1ee0:	07040300 	streq	r0, [r4, -r0, lsl #6]
    1ee4:	0000013e 	andeq	r0, r0, lr, lsr r1
    1ee8:	7f060103 	svcvc	0x00060103
    1eec:	03000000 	movweq	r0, #0
    1ef0:	01760502 	cmneq	r6, r2, lsl #10
    1ef4:	04030000 	streq	r0, [r3], #-0
    1ef8:	00016605 	andeq	r6, r1, r5, lsl #12
    1efc:	05080300 	streq	r0, [r8, #-768]	; 0x300
    1f00:	00000161 	andeq	r0, r0, r1, ror #2
    1f04:	7d080103 	stfvcs	f0, [r8, #-12]
    1f08:	03000000 	movweq	r0, #0
    1f0c:	00f40702 	rscseq	r0, r4, r2, lsl #14
    1f10:	04030000 	streq	r0, [r3], #-0
    1f14:	00013907 	andeq	r3, r1, r7, lsl #18
    1f18:	07080300 	streq	r0, [r8, -r0, lsl #6]
    1f1c:	00000134 	andeq	r0, r0, r4, lsr r1
    1f20:	58070403 	stmdapl	r7, {r0, r1, sl}
    1f24:	03000001 	movweq	r0, #1
    1f28:	00860801 	addeq	r0, r6, r1, lsl #16
    1f2c:	ce040000 	cdpgt	0, 0, cr0, cr4, cr0, {0}
    1f30:	01000004 	tsteq	r0, r4
    1f34:	008f540d 	addeq	r5, pc, sp, lsl #8
    1f38:	00003400 	andeq	r3, r0, r0, lsl #8
    1f3c:	d89c0100 	ldmle	ip, {r8}
    1f40:	05000000 	streq	r0, [r0, #-0]
    1f44:	000004ac 	andeq	r0, r0, ip, lsr #9
    1f48:	00250e01 	eoreq	r0, r5, r1, lsl #28
    1f4c:	ba050000 	blt	141f54 <__bss_end__+0x137f8c>
    1f50:	01000004 	tsteq	r0, r4
    1f54:	0000250e 	andeq	r2, r0, lr, lsl #10
    1f58:	00660600 	rsbeq	r0, r6, r0, lsl #12
    1f5c:	0f010000 	svceq	0x00010000
    1f60:	73736207 	cmnvc	r3, #1879048192	; 0x70000000
    1f64:	d8110100 	ldmdale	r1, {r8}
    1f68:	95000000 	strls	r0, [r0, #-0]
    1f6c:	0800000f 	stmdaeq	r0, {r0, r1, r2, r3}
    1f70:	000004c6 	andeq	r0, r0, r6, asr #9
    1f74:	00d81201 	sbcseq	r1, r8, r1, lsl #4
    1f78:	7c090000 	stcvc	0, cr0, [r9], {-0}
    1f7c:	f400008f 	vst4.32	{d0-d3}, [r0]
    1f80:	09000000 	stmdbeq	r0, {}	; <UNPREDICTABLE>
    1f84:	00008f80 	andeq	r8, r0, r0, lsl #31
    1f88:	000000fb 	strdeq	r0, [r0], -fp
    1f8c:	25040a00 	strcs	r0, [r4, #-2560]	; 0xa00
    1f90:	05000000 	streq	r0, [r0, #-0]
    1f94:	000004ac 	andeq	r0, r0, ip, lsr #9
    1f98:	00250e01 	eoreq	r0, r5, r1, lsl #28
    1f9c:	ba050000 	blt	141fa4 <__bss_end__+0x137fdc>
    1fa0:	01000004 	tsteq	r0, r4
    1fa4:	0000250e 	andeq	r2, r0, lr, lsl #10
    1fa8:	00660600 	rsbeq	r0, r6, r0, lsl #12
    1fac:	d7020000 	strle	r0, [r2, -r0]
    1fb0:	00014b06 	andeq	r4, r1, r6, lsl #22
    1fb4:	00650200 	rsbeq	r0, r5, r0, lsl #4
    1fb8:	000001ad 	andeq	r0, r0, sp, lsr #3
    1fbc:	0aa50004 	beq	fe941fd4 <__bss_end__+0xfe93800c>
    1fc0:	01040000 	mrseq	r0, (UNDEF: 4)
    1fc4:	0000000f 	andeq	r0, r0, pc
    1fc8:	0004f701 	andeq	pc, r4, r1, lsl #14
    1fcc:	00033e00 	andeq	r3, r3, r0, lsl #28
    1fd0:	00004800 	andeq	r4, r0, r0, lsl #16
    1fd4:	00000000 	andeq	r0, r0, r0
    1fd8:	000b4a00 	andeq	r4, fp, r0, lsl #20
    1fdc:	05040200 	streq	r0, [r4, #-512]	; 0x200
    1fe0:	00746e69 	rsbseq	r6, r4, r9, ror #28
    1fe4:	3e070403 	cdpcc	4, 0, cr0, cr7, cr3, {0}
    1fe8:	03000001 	movweq	r0, #1
    1fec:	007f0601 	rsbseq	r0, pc, r1, lsl #12
    1ff0:	02030000 	andeq	r0, r3, #0
    1ff4:	00017605 	andeq	r7, r1, r5, lsl #12
    1ff8:	05040300 	streq	r0, [r4, #-768]	; 0x300
    1ffc:	00000166 	andeq	r0, r0, r6, ror #2
    2000:	61050803 	tstvs	r5, r3, lsl #16
    2004:	03000001 	movweq	r0, #1
    2008:	007d0801 	rsbseq	r0, sp, r1, lsl #16
    200c:	02030000 	andeq	r0, r3, #0
    2010:	0000f407 	andeq	pc, r0, r7, lsl #8
    2014:	07040300 	streq	r0, [r4, -r0, lsl #6]
    2018:	00000139 	andeq	r0, r0, r9, lsr r1
    201c:	34070803 	strcc	r0, [r7], #-2051	; 0x803
    2020:	03000001 	movweq	r0, #1
    2024:	01580704 	cmpeq	r8, r4, lsl #14
    2028:	01030000 	mrseq	r0, (UNDEF: 3)
    202c:	00008608 	andeq	r8, r0, r8, lsl #12
    2030:	04e90400 	strbteq	r0, [r9], #1024	; 0x400
    2034:	0e010000 	cdpeq	0, 0, cr0, cr1, cr0, {0}
    2038:	00000025 	andeq	r0, r0, r5, lsr #32
    203c:	00008f88 	andeq	r8, r0, r8, lsl #31
    2040:	00000018 	andeq	r0, r0, r8, lsl r0
    2044:	00a29c01 	adceq	r9, r2, r1, lsl #24
    2048:	54050000 	strpl	r0, [r5], #-0
    204c:	01000005 	tsteq	r0, r5
    2050:	00002c0f 	andeq	r2, r0, pc, lsl #24
    2054:	000fb500 	andeq	fp, pc, r0, lsl #10
    2058:	2b060000 	blcs	182060 <__bss_end__+0x178098>
    205c:	01000005 	tsteq	r0, r5
    2060:	008fa017 	addeq	sl, pc, r7, lsl r0	; <UNPREDICTABLE>
    2064:	00001400 	andeq	r1, r0, r0, lsl #8
    2068:	c79c0100 	ldrgt	r0, [ip, r0, lsl #2]
    206c:	05000000 	streq	r0, [r0, #-0]
    2070:	00000554 	andeq	r0, r0, r4, asr r5
    2074:	002c1801 	eoreq	r1, ip, r1, lsl #16
    2078:	0fd40000 	svceq	0x00d40000
    207c:	06000000 	streq	r0, [r0], -r0
    2080:	00000498 	muleq	r0, r8, r4
    2084:	8fb41f01 	svchi	0x00b41f01
    2088:	00480000 	subeq	r0, r8, r0
    208c:	9c010000 	stcls	0, cr0, [r1], {-0}
    2090:	00000177 	andeq	r0, r0, r7, ror r1
    2094:	00054c07 	andeq	r4, r5, r7, lsl #24
    2098:	772a0100 	strvc	r0, [sl, -r0, lsl #2]!
    209c:	1c000001 	stcne	0, cr0, [r0], {1}
    20a0:	07201000 	streq	r1, [r0, -r0]!
    20a4:	00000523 	andeq	r0, r0, r3, lsr #10
    20a8:	01772b01 	cmneq	r7, r1, lsl #22
    20ac:	00240000 	eoreq	r0, r4, r0
    20b0:	40072010 	andmi	r2, r7, r0, lsl r0
    20b4:	01000005 	tsteq	r0, r5
    20b8:	0001772c 	andeq	r7, r1, ip, lsr #14
    20bc:	00000000 	andeq	r0, r0, r0
    20c0:	050a085a 	streq	r0, [sl, #-2138]	; 0x85a
    20c4:	2d010000 	stccs	0, cr0, [r1, #-0]
    20c8:	00000177 	andeq	r0, r0, r7, ror r1
    20cc:	8fbc0920 	svchi	0x00bc0920
    20d0:	00790000 	rsbseq	r0, r9, r0
    20d4:	c8090000 	stmdagt	r9, {}	; <UNPREDICTABLE>
    20d8:	a200008f 	andge	r0, r0, #143	; 0x8f
    20dc:	0a000000 	beq	20e4 <_start-0x5f1c>
    20e0:	00008fd0 	ldrdeq	r8, [r0], -r0
    20e4:	0000018d 	andeq	r0, r0, sp, lsl #3
    20e8:	0000013a 	andeq	r0, r0, sl, lsr r1
    20ec:	0150010b 	cmpeq	r0, fp, lsl #2
    20f0:	dc0a004e 	stcle	0, cr0, [sl], {78}	; 0x4e
    20f4:	9e00008f 	cdpls	0, 0, cr0, cr0, cr15, {4}
    20f8:	5a000001 	bpl	2104 <_start-0x5efc>
    20fc:	0b000001 	bleq	2108 <_start-0x5ef8>
    2100:	0c055101 	stfeqs	f5, [r5], {1}
    2104:	5a000001 	bpl	2110 <_start-0x5ef0>
    2108:	0550010b 	ldrbeq	r0, [r0, #-267]	; 0x10b
    210c:	1000240c 	andne	r2, r0, ip, lsl #8
    2110:	e80c0020 	stmda	ip, {r5}
    2114:	9e00008f 	cdpls	0, 0, cr0, cr0, cr15, {4}
    2118:	0b000001 	bleq	2124 <_start-0x5edc>
    211c:	0c055101 	stfeqs	f5, [r5], {1}
    2120:	5a000020 	bpl	21a8 <_start-0x5e58>
    2124:	0550010b 	ldrbeq	r0, [r0, #-267]	; 0x10b
    2128:	10001c0c 	andne	r1, r0, ip, lsl #24
    212c:	0d000020 	stceq	0, cr0, [r0, #-128]	; 0xffffff80
    2130:	00000025 	andeq	r0, r0, r5, lsr #32
    2134:	0004ec08 	andeq	lr, r4, r8, lsl #24
    2138:	880d0100 	stmdahi	sp, {r8}
    213c:	10000001 	andne	r0, r0, r1
    2140:	00002c0d 	andeq	r2, r0, sp, lsl #24
    2144:	04a30e00 	strteq	r0, [r3], #3584	; 0xe00
    2148:	4f020000 	svcmi	0x00020000
    214c:	0000019e 	muleq	r0, lr, r1
    2150:	00002c0f 	andeq	r2, r0, pc, lsl #24
    2154:	3a100000 	bcc	40215c <__bss_end__+0x3f8194>
    2158:	02000005 	andeq	r0, r0, #5
    215c:	002c0f9b 	mlaeq	ip, fp, pc, r0	; <UNPREDICTABLE>
    2160:	2c0f0000 	stccs	0, cr0, [pc], {-0}
    2164:	00000000 	andeq	r0, r0, r0
    2168:	0001d800 	andeq	sp, r1, r0, lsl #16
    216c:	93000400 	movwls	r0, #1024	; 0x400
    2170:	0400000b 	streq	r0, [r0], #-11
    2174:	00000f01 	andeq	r0, r0, r1, lsl #30
    2178:	05760100 	ldrbeq	r0, [r6, #-256]!	; 0x100
    217c:	033e0000 	teqeq	lr, #0
    2180:	8ffc0000 	svchi	0x00fc0000
    2184:	00880000 	addeq	r0, r8, r0
    2188:	0bf00000 	bleq	ffc02190 <__bss_end__+0xffbf81c8>
    218c:	04020000 	streq	r0, [r2], #-0
    2190:	746e6905 	strbtvc	r6, [lr], #-2309	; 0x905
    2194:	07040300 	streq	r0, [r4, -r0, lsl #6]
    2198:	0000013e 	andeq	r0, r0, lr, lsr r1
    219c:	7f060103 	svcvc	0x00060103
    21a0:	03000000 	movweq	r0, #0
    21a4:	01760502 	cmneq	r6, r2, lsl #10
    21a8:	04030000 	streq	r0, [r3], #-0
    21ac:	00016605 	andeq	r6, r1, r5, lsl #12
    21b0:	05080300 	streq	r0, [r8, #-768]	; 0x300
    21b4:	00000161 	andeq	r0, r0, r1, ror #2
    21b8:	7d080103 	stfvcs	f0, [r8, #-12]
    21bc:	03000000 	movweq	r0, #0
    21c0:	00f40702 	rscseq	r0, r4, r2, lsl #14
    21c4:	04030000 	streq	r0, [r3], #-0
    21c8:	00013907 	andeq	r3, r1, r7, lsl #18
    21cc:	07080300 	streq	r0, [r8, -r0, lsl #6]
    21d0:	00000134 	andeq	r0, r0, r4, lsr r1
    21d4:	58070403 	stmdapl	r7, {r0, r1, sl}
    21d8:	03000001 	movweq	r0, #1
    21dc:	00860801 	addeq	r0, r6, r1, lsl #16
    21e0:	94040000 	strls	r0, [r4], #-0
    21e4:	01000005 	tsteq	r0, r5
    21e8:	008ffc05 	addeq	pc, pc, r5, lsl #24
    21ec:	00001c00 	andeq	r1, r0, r0, lsl #24
    21f0:	9e9c0100 	fmllse	f0, f4, f0
    21f4:	05000000 	streq	r0, [r0, #-0]
    21f8:	0000058e 	andeq	r0, r0, lr, lsl #11
    21fc:	002c0501 	eoreq	r0, ip, r1, lsl #10
    2200:	0ffe0000 	svceq	0x00fe0000
    2204:	06000000 	streq	r0, [r0], -r0
    2208:	00000559 	andeq	r0, r0, r9, asr r5
    220c:	002c1101 	eoreq	r1, ip, r1, lsl #2
    2210:	90180000 	andsls	r0, r8, r0
    2214:	00140000 	andseq	r0, r4, r0
    2218:	9c010000 	stcls	0, cr0, [r1], {-0}
    221c:	000000cb 	andeq	r0, r0, fp, asr #1
    2220:	00902407 	addseq	r2, r0, r7, lsl #8
    2224:	0001ca00 	andeq	ip, r1, r0, lsl #20
    2228:	50010800 	andpl	r0, r1, r0, lsl #16
    222c:	30040c05 	andcc	r0, r4, r5, lsl #24
    2230:	00002000 	andeq	r2, r0, r0
    2234:	0005aa06 	andeq	sl, r5, r6, lsl #20
    2238:	2c160100 	ldfcss	f0, [r6], {-0}
    223c:	2c000000 	stccs	0, cr0, [r0], {-0}
    2240:	0c000090 	stceq	0, cr0, [r0], {144}	; 0x90
    2244:	01000000 	mrseq	r0, (UNDEF: 0)
    2248:	0000f99c 	muleq	r0, ip, r9
    224c:	00750900 	rsbseq	r0, r5, r0, lsl #18
    2250:	002c1a01 	eoreq	r1, ip, r1, lsl #20
    2254:	50010000 	andpl	r0, r1, r0
    2258:	0090340a 	addseq	r3, r0, sl, lsl #8
    225c:	00009e00 	andeq	r9, r0, r0, lsl #28
    2260:	a1040000 	mrsge	r0, (UNDEF: 4)
    2264:	01000005 	tsteq	r0, r5
    2268:	0090381f 	addseq	r3, r0, pc, lsl r8
    226c:	00002400 	andeq	r2, r0, r0, lsl #8
    2270:	579c0100 	ldrpl	r0, [ip, r0, lsl #2]
    2274:	0b000001 	bleq	2280 <_start-0x5d80>
    2278:	01007375 	tsteq	r0, r5, ror r3
    227c:	00002c1f 	andeq	r2, r0, pc, lsl ip
    2280:	00103200 	andseq	r3, r0, r0, lsl #4
    2284:	62720900 	rsbsvs	r0, r2, #0, 18
    2288:	2c200100 	stfcss	f0, [r0], #-0
    228c:	01000000 	mrseq	r0, (UNDEF: 0)
    2290:	90480c54 	subls	r0, r8, r4, asr ip
    2294:	00100000 	andseq	r0, r0, r0
    2298:	014d0000 	mrseq	r0, (UNDEF: 77)
    229c:	720d0000 	andvc	r0, sp, #0
    22a0:	22010061 	andcs	r0, r1, #97	; 0x61
    22a4:	0000002c 	andeq	r0, r0, ip, lsr #32
    22a8:	00001050 	andeq	r1, r0, r0, asr r0
    22ac:	00904c0a 	addseq	r4, r0, sl, lsl #24
    22b0:	0000cb00 	andeq	ip, r0, r0, lsl #22
    22b4:	440a0000 	strmi	r0, [sl], #-0
    22b8:	cb000090 	blgt	2500 <_start-0x5b00>
    22bc:	00000000 	andeq	r0, r0, r0
    22c0:	0004a304 	andeq	sl, r4, r4, lsl #6
    22c4:	5c280100 	stfpls	f0, [r8], #-0
    22c8:	14000090 	strne	r0, [r0], #-144	; 0x90
    22cc:	01000000 	mrseq	r0, (UNDEF: 0)
    22d0:	0001909c 	muleq	r1, ip, r0
    22d4:	736d0b00 	cmnvc	sp, #0, 22
    22d8:	2c280100 	stfcss	f0, [r8], #-0
    22dc:	63000000 	movwvs	r0, #0
    22e0:	07000010 	smladeq	r0, r0, r0, r0
    22e4:	0000906c 	andeq	r9, r0, ip, rrx
    22e8:	000000f9 	strdeq	r0, [r0], -r9
    22ec:	07500108 	ldrbeq	r0, [r0, -r8, lsl #2]
    22f0:	0a5001f3 	beq	1402ac4 <__bss_end__+0x13f8afc>
    22f4:	001e03e8 	andseq	r0, lr, r8, ror #7
    22f8:	056c0400 	strbeq	r0, [ip, #-1024]!	; 0x400
    22fc:	2b010000 	blcs	42304 <__bss_end__+0x3833c>
    2300:	00009070 	andeq	r9, r0, r0, ror r0
    2304:	00000014 	andeq	r0, r0, r4, lsl r0
    2308:	01ca9c01 	biceq	r9, sl, r1, lsl #24
    230c:	730b0000 	movwvc	r0, #45056	; 0xb000
    2310:	01006365 	tsteq	r0, r5, ror #6
    2314:	00002c2b 	andeq	r2, r0, fp, lsr #24
    2318:	00108400 	andseq	r8, r0, r0, lsl #8
    231c:	90800700 	addls	r0, r0, r0, lsl #14
    2320:	01570000 	cmpeq	r7, r0
    2324:	01080000 	mrseq	r0, (UNDEF: 8)
    2328:	01f30750 	mvnseq	r0, r0, asr r7
    232c:	03e80a50 	mvneq	r0, #80, 20	; 0x50000
    2330:	0e00001e 	mcreq	0, 0, r0, cr0, cr14, {0}
    2334:	00000588 	andeq	r0, r0, r8, lsl #11
    2338:	002ca702 	eoreq	sl, ip, r2, lsl #14
    233c:	2c0f0000 	stccs	0, cr0, [pc], {-0}
    2340:	00000000 	andeq	r0, r0, r0
    2344:	000cc500 	andeq	ip, ip, r0, lsl #10
    2348:	76000400 	strvc	r0, [r0], -r0, lsl #8
    234c:	0400000c 	streq	r0, [r0], #-12
    2350:	00095b01 	andeq	r5, r9, r1, lsl #22
    2354:	06b20c00 	ldrteq	r0, [r2], r0, lsl #24
    2358:	06cd0000 	strbeq	r0, [sp], r0
    235c:	90d00000 	sbcsls	r0, r0, r0
    2360:	01780000 	cmneq	r8, r0
    2364:	0ca00000 	stceq	0, cr0, [r0]
    2368:	04020000 	streq	r0, [r2], #-0
    236c:	746e6905 	strbtvc	r6, [lr], #-2309	; 0x905
    2370:	07040300 	streq	r0, [r4, -r0, lsl #6]
    2374:	0000013e 	andeq	r0, r0, lr, lsr r1
    2378:	00002c04 	andeq	r2, r0, r4, lsl #24
    237c:	06010300 	streq	r0, [r1], -r0, lsl #6
    2380:	0000007f 	andeq	r0, r0, pc, ror r0
    2384:	76050203 	strvc	r0, [r5], -r3, lsl #4
    2388:	03000001 	movweq	r0, #1
    238c:	01660504 	cmneq	r6, r4, lsl #10
    2390:	08030000 	stmdaeq	r3, {}	; <UNPREDICTABLE>
    2394:	00016105 	andeq	r6, r1, r5, lsl #2
    2398:	08010300 	stmdaeq	r1, {r8, r9}
    239c:	0000007d 	andeq	r0, r0, sp, ror r0
    23a0:	f4070203 	vst1.8	{d0-d3}, [r7], r3
    23a4:	03000000 	movweq	r0, #0
    23a8:	01390704 	teqeq	r9, r4, lsl #14
    23ac:	08030000 	stmdaeq	r3, {}	; <UNPREDICTABLE>
    23b0:	00013407 	andeq	r3, r1, r7, lsl #8
    23b4:	08700500 	ldmdaeq	r0!, {r8, sl}^
    23b8:	07020000 	streq	r0, [r2, -r0]
    23bc:	00000025 	andeq	r0, r0, r5, lsr #32
    23c0:	00085a05 	andeq	r5, r8, r5, lsl #20
    23c4:	462c0300 	strtmi	r0, [ip], -r0, lsl #6
    23c8:	05000000 	streq	r0, [r0, #-0]
    23cc:	00000936 	andeq	r0, r0, r6, lsr r9
    23d0:	00467203 	subeq	r7, r6, r3, lsl #4
    23d4:	fe060000 	cdp2	0, 0, cr0, cr6, cr0, {0}
    23d8:	04000007 	streq	r0, [r0], #-7
    23dc:	002c0165 	eoreq	r0, ip, r5, ror #2
    23e0:	04070000 	streq	r0, [r7], #-0
    23e4:	00bca603 	adcseq	sl, ip, r3, lsl #12
    23e8:	e9080000 	stmdb	r8, {}	; <UNPREDICTABLE>
    23ec:	03000007 	movweq	r0, #7
    23f0:	000091a8 	andeq	r9, r0, r8, lsr #3
    23f4:	07850800 	streq	r0, [r5, r0, lsl #16]
    23f8:	a9030000 	stmdbge	r3, {}	; <UNPREDICTABLE>
    23fc:	000000bc 	strheq	r0, [r0], -ip
    2400:	00540900 	subseq	r0, r4, r0, lsl #18
    2404:	00cc0000 	sbceq	r0, ip, r0
    2408:	cc0a0000 	stcgt	0, cr0, [sl], {-0}
    240c:	03000000 	movweq	r0, #0
    2410:	07040300 	streq	r0, [r4, -r0, lsl #6]
    2414:	00000158 	andeq	r0, r0, r8, asr r1
    2418:	a303080b 	movwge	r0, #14347	; 0x380b
    241c:	000000f4 	strdeq	r0, [r0], -r4
    2420:	00091b0c 	andeq	r1, r9, ip, lsl #22
    2424:	25a50300 	strcs	r0, [r5, #768]!	; 0x300
    2428:	00000000 	andeq	r0, r0, r0
    242c:	0009230c 	andeq	r2, r9, ip, lsl #6
    2430:	9daa0300 	stcls	3, cr0, [sl]
    2434:	04000000 	streq	r0, [r0], #-0
    2438:	08ae0500 	stmiaeq	lr!, {r8, sl}
    243c:	ab030000 	blge	c2444 <__bss_end__+0xb847c>
    2440:	000000d3 	ldrdeq	r0, [r0], -r3
    2444:	00074e05 	andeq	r4, r7, r5, lsl #28
    2448:	70af0300 	adcvc	r0, pc, r0, lsl #6
    244c:	0d000000 	stceq	0, cr0, [r0, #-0]
    2450:	12040e04 	andne	r0, r4, #4, 28	; 0x40
    2454:	03000001 	movweq	r0, #1
    2458:	00860801 	addeq	r0, r6, r1, lsl #16
    245c:	120f0000 	andne	r0, pc, #0
    2460:	05000001 	streq	r0, [r0, #-1]
    2464:	000009d8 	ldrdeq	r0, [r0], -r8
    2468:	00621605 	rsbeq	r1, r2, r5, lsl #12
    246c:	5f100000 	svcpl	0x00100000
    2470:	18000007 	stmdane	r0, {r0, r1, r2}
    2474:	017c2d05 	cmneq	ip, r5, lsl #26
    2478:	cf0c0000 	svcgt	0x000c0000
    247c:	05000008 	streq	r0, [r0, #-8]
    2480:	00017c2f 	andeq	r7, r1, pc, lsr #24
    2484:	5f110000 	svcpl	0x00110000
    2488:	3005006b 	andcc	r0, r5, fp, rrx
    248c:	00000025 	andeq	r0, r0, r5, lsr #32
    2490:	09060c04 	stmdbeq	r6, {r2, sl, fp}
    2494:	30050000 	andcc	r0, r5, r0
    2498:	00000025 	andeq	r0, r0, r5, lsr #32
    249c:	073a0c08 	ldreq	r0, [sl, -r8, lsl #24]!
    24a0:	30050000 	andcc	r0, r5, r0
    24a4:	00000025 	andeq	r0, r0, r5, lsr #32
    24a8:	0a1f0c0c 	beq	7c54e0 <__bss_end__+0x7bb518>
    24ac:	30050000 	andcc	r0, r5, r0
    24b0:	00000025 	andeq	r0, r0, r5, lsr #32
    24b4:	785f1110 	ldmdavc	pc, {r4, r8, ip}^	; <UNPREDICTABLE>
    24b8:	82310500 	eorshi	r0, r1, #0, 10
    24bc:	14000001 	strne	r0, [r0], #-1
    24c0:	29040e00 	stmdbcs	r4, {r9, sl, fp}
    24c4:	09000001 	stmdbeq	r0, {r0}
    24c8:	0000011e 	andeq	r0, r0, lr, lsl r1
    24cc:	00000192 	muleq	r0, r2, r1
    24d0:	0000cc0a 	andeq	ip, r0, sl, lsl #24
    24d4:	10000000 	andne	r0, r0, r0
    24d8:	00000780 	andeq	r0, r0, r0, lsl #15
    24dc:	0b350524 	bleq	d43974 <__bss_end__+0xd399ac>
    24e0:	0c000002 	stceq	0, cr0, [r0], {2}
    24e4:	00000638 	andeq	r0, r0, r8, lsr r6
    24e8:	00253705 	eoreq	r3, r5, r5, lsl #14
    24ec:	0c000000 	stceq	0, cr0, [r0], {-0}
    24f0:	0000093e 	andeq	r0, r0, lr, lsr r9
    24f4:	00253805 	eoreq	r3, r5, r5, lsl #16
    24f8:	0c040000 	stceq	0, cr0, [r4], {-0}
    24fc:	00000666 	andeq	r0, r0, r6, ror #12
    2500:	00253905 	eoreq	r3, r5, r5, lsl #18
    2504:	0c080000 	stceq	0, cr0, [r8], {-0}
    2508:	00000b0f 	andeq	r0, r0, pc, lsl #22
    250c:	00253a05 	eoreq	r3, r5, r5, lsl #20
    2510:	0c0c0000 	stceq	0, cr0, [ip], {-0}
    2514:	0000083e 	andeq	r0, r0, lr, lsr r8
    2518:	00253b05 	eoreq	r3, r5, r5, lsl #22
    251c:	0c100000 	ldceq	0, cr0, [r0], {-0}
    2520:	00000813 	andeq	r0, r0, r3, lsl r8
    2524:	00253c05 	eoreq	r3, r5, r5, lsl #24
    2528:	0c140000 	ldceq	0, cr0, [r4], {-0}
    252c:	00000a24 	andeq	r0, r0, r4, lsr #20
    2530:	00253d05 	eoreq	r3, r5, r5, lsl #26
    2534:	0c180000 	ldceq	0, cr0, [r8], {-0}
    2538:	00000890 	muleq	r0, r0, r8
    253c:	00253e05 	eoreq	r3, r5, r5, lsl #28
    2540:	0c1c0000 	ldceq	0, cr0, [ip], {-0}
    2544:	00000ad6 	ldrdeq	r0, [r0], -r6
    2548:	00253f05 	eoreq	r3, r5, r5, lsl #30
    254c:	00200000 	eoreq	r0, r0, r0
    2550:	00067512 	andeq	r7, r6, r2, lsl r5
    2554:	05010800 	streq	r0, [r1, #-2048]	; 0x800
    2558:	00024b48 	andeq	r4, r2, r8, asr #22
    255c:	07210c00 	streq	r0, [r1, -r0, lsl #24]!
    2560:	49050000 	stmdbmi	r5, {}	; <UNPREDICTABLE>
    2564:	0000024b 	andeq	r0, r0, fp, asr #4
    2568:	05b90c00 	ldreq	r0, [r9, #3072]!	; 0xc00
    256c:	4a050000 	bmi	142574 <__bss_end__+0x1385ac>
    2570:	0000024b 	andeq	r0, r0, fp, asr #4
    2574:	09ca1380 	stmibeq	sl, {r7, r8, r9, ip}^
    2578:	4c050000 	stcmi	0, cr0, [r5], {-0}
    257c:	0000011e 	andeq	r0, r0, lr, lsl r1
    2580:	9a130100 	bls	4c2988 <__bss_end__+0x4b89c0>
    2584:	05000006 	streq	r0, [r0, #-6]
    2588:	00011e4f 	andeq	r1, r1, pc, asr #28
    258c:	00010400 	andeq	r0, r1, r0, lsl #8
    2590:	00010a09 	andeq	r0, r1, r9, lsl #20
    2594:	00025b00 	andeq	r5, r2, r0, lsl #22
    2598:	00cc0a00 	sbceq	r0, ip, r0, lsl #20
    259c:	001f0000 	andseq	r0, pc, r0
    25a0:	00084712 	andeq	r4, r8, r2, lsl r7
    25a4:	05019000 	streq	r9, [r1, #-0]
    25a8:	0002995b 	andeq	r9, r2, fp, asr r9
    25ac:	08cf0c00 	stmiaeq	pc, {sl, fp}^	; <UNPREDICTABLE>
    25b0:	5c050000 	stcpl	0, cr0, [r5], {-0}
    25b4:	00000299 	muleq	r0, r9, r2
    25b8:	08e70c00 	stmiaeq	r7!, {sl, fp}^
    25bc:	5d050000 	stcpl	0, cr0, [r5, #-0]
    25c0:	00000025 	andeq	r0, r0, r5, lsr #32
    25c4:	07350c04 	ldreq	r0, [r5, -r4, lsl #24]!
    25c8:	5f050000 	svcpl	0x00050000
    25cc:	0000029f 	muleq	r0, pc, r2	; <UNPREDICTABLE>
    25d0:	06750c08 	ldrbteq	r0, [r5], -r8, lsl #24
    25d4:	60050000 	andvs	r0, r5, r0
    25d8:	0000020b 	andeq	r0, r0, fp, lsl #4
    25dc:	040e0088 	streq	r0, [lr], #-136	; 0x88
    25e0:	0000025b 	andeq	r0, r0, fp, asr r2
    25e4:	0002af09 	andeq	sl, r2, r9, lsl #30
    25e8:	0002af00 	andeq	sl, r2, r0, lsl #30
    25ec:	00cc0a00 	sbceq	r0, ip, r0, lsl #20
    25f0:	001f0000 	andseq	r0, pc, r0
    25f4:	02b5040e 	adcseq	r0, r5, #234881024	; 0xe000000
    25f8:	10140000 	andsne	r0, r4, r0
    25fc:	0000089a 	muleq	r0, sl, r8
    2600:	db730508 	blle	1cc3a28 <__bss_end__+0x1cb9a60>
    2604:	0c000002 	stceq	0, cr0, [r0], {2}
    2608:	0000065b 	andeq	r0, r0, fp, asr r6
    260c:	02db7405 	sbcseq	r7, fp, #83886080	; 0x5000000
    2610:	0c000000 	stceq	0, cr0, [r0], {-0}
    2614:	000001ce 	andeq	r0, r0, lr, asr #3
    2618:	00257505 	eoreq	r7, r5, r5, lsl #10
    261c:	00040000 	andeq	r0, r4, r0
    2620:	0054040e 	subseq	r0, r4, lr, lsl #8
    2624:	b9100000 	ldmdblt	r0, {}	; <UNPREDICTABLE>
    2628:	68000008 	stmdavs	r0, {r3}
    262c:	040bb305 	streq	fp, [fp], #-773	; 0x305
    2630:	5f110000 	svcpl	0x00110000
    2634:	b4050070 	strlt	r0, [r5], #-112	; 0x70
    2638:	000002db 	ldrdeq	r0, [r0], -fp
    263c:	725f1100 	subsvc	r1, pc, #0, 2
    2640:	25b50500 	ldrcs	r0, [r5, #1280]!	; 0x500
    2644:	04000000 	streq	r0, [r0], #-0
    2648:	00775f11 	rsbseq	r5, r7, r1, lsl pc
    264c:	0025b605 	eoreq	fp, r5, r5, lsl #12
    2650:	0c080000 	stceq	0, cr0, [r8], {-0}
    2654:	00000693 	muleq	r0, r3, r6
    2658:	003fb705 	eorseq	fp, pc, r5, lsl #14
    265c:	0c0c0000 	stceq	0, cr0, [ip], {-0}
    2660:	000007a6 	andeq	r0, r0, r6, lsr #15
    2664:	003fb805 	eorseq	fp, pc, r5, lsl #16
    2668:	110e0000 	mrsne	r0, (UNDEF: 14)
    266c:	0066625f 	rsbeq	r6, r6, pc, asr r2
    2670:	02b6b905 	adcseq	fp, r6, #81920	; 0x14000
    2674:	0c100000 	ldceq	0, cr0, [r0], {-0}
    2678:	00000602 	andeq	r0, r0, r2, lsl #12
    267c:	0025ba05 	eoreq	fp, r5, r5, lsl #20
    2680:	0c180000 	ldceq	0, cr0, [r8], {-0}
    2684:	00000683 	andeq	r0, r0, r3, lsl #13
    2688:	010ac105 	tsteq	sl, r5, lsl #2
    268c:	0c1c0000 	ldceq	0, cr0, [ip], {-0}
    2690:	00000b36 	andeq	r0, r0, r6, lsr fp
    2694:	0566c305 	strbeq	ip, [r6, #-773]!	; 0x305
    2698:	0c200000 	stceq	0, cr0, [r0], #-0
    269c:	00000b50 	andeq	r0, r0, r0, asr fp
    26a0:	0590c505 	ldreq	ip, [r0, #1285]	; 0x505
    26a4:	0c240000 	stceq	0, cr0, [r4], #-0
    26a8:	0000092b 	andeq	r0, r0, fp, lsr #18
    26ac:	05b4c805 	ldreq	ip, [r4, #2053]!	; 0x805
    26b0:	0c280000 	stceq	0, cr0, [r8], #-0
    26b4:	00000af0 	strdeq	r0, [r0], -r0	; <UNPREDICTABLE>
    26b8:	05cec905 	strbeq	ip, [lr, #2309]	; 0x905
    26bc:	112c0000 	teqne	ip, r0
    26c0:	0062755f 	rsbeq	r7, r2, pc, asr r5
    26c4:	02b6cc05 	adcseq	ip, r6, #1280	; 0x500
    26c8:	11300000 	teqne	r0, r0
    26cc:	0070755f 	rsbseq	r7, r0, pc, asr r5
    26d0:	02dbcd05 	sbcseq	ip, fp, #320	; 0x140
    26d4:	11380000 	teqne	r8, r0
    26d8:	0072755f 	rsbseq	r7, r2, pc, asr r5
    26dc:	0025ce05 	eoreq	ip, r5, r5, lsl #28
    26e0:	0c3c0000 	ldceq	0, cr0, [ip], #-0
    26e4:	00000646 	andeq	r0, r0, r6, asr #12
    26e8:	05d4d105 	ldrbeq	sp, [r4, #261]	; 0x105
    26ec:	0c400000 	mareq	acc0, r0, r0
    26f0:	00000a9b 	muleq	r0, fp, sl
    26f4:	05e4d205 	strbeq	sp, [r4, #517]!	; 0x205
    26f8:	11430000 	mrsne	r0, (UNDEF: 67)
    26fc:	00626c5f 	rsbeq	r6, r2, pc, asr ip
    2700:	02b6d505 	adcseq	sp, r6, #20971520	; 0x1400000
    2704:	0c440000 	mareq	acc0, r0, r4
    2708:	000006a9 	andeq	r0, r0, r9, lsr #13
    270c:	0025d805 	eoreq	sp, r5, r5, lsl #16
    2710:	0c4c0000 	mareq	acc0, r0, ip
    2714:	0000081d 	andeq	r0, r0, sp, lsl r8
    2718:	007bd905 	rsbseq	sp, fp, r5, lsl #18
    271c:	0c500000 	mraeq	r0, r0, acc0
    2720:	00000a86 	andeq	r0, r0, r6, lsl #21
    2724:	0429dc05 	strteq	sp, [r9], #-3077	; 0xc05
    2728:	0c540000 	mraeq	r0, r4, acc0
    272c:	00000805 	andeq	r0, r0, r5, lsl #16
    2730:	00ffe005 	rscseq	lr, pc, r5
    2734:	0c580000 	mraeq	r0, r8, acc0
    2738:	000008c1 	andeq	r0, r0, r1, asr #17
    273c:	00f4e205 	rscseq	lr, r4, r5, lsl #4
    2740:	0c5c0000 	mraeq	r0, ip, acc0
    2744:	0000080b 	andeq	r0, r0, fp, lsl #16
    2748:	0025e305 	eoreq	lr, r5, r5, lsl #6
    274c:	00640000 	rsbeq	r0, r4, r0
    2750:	00002515 	andeq	r2, r0, r5, lsl r5
    2754:	00042900 	andeq	r2, r4, r0, lsl #18
    2758:	04291600 	strteq	r1, [r9], #-1536	; 0x600
    275c:	0a160000 	beq	582764 <__bss_end__+0x57879c>
    2760:	16000001 	strne	r0, [r0], -r1
    2764:	0000010c 	andeq	r0, r0, ip, lsl #2
    2768:	00002516 	andeq	r2, r0, r6, lsl r5
    276c:	040e0000 	streq	r0, [lr], #-0
    2770:	00000434 	andeq	r0, r0, r4, lsr r4
    2774:	0004290f 	andeq	r2, r4, pc, lsl #18
    2778:	090e1700 	stmdbeq	lr, {r8, r9, sl, ip}
    277c:	04280000 	strteq	r0, [r8], #-0
    2780:	66023805 	strvs	r3, [r2], -r5, lsl #16
    2784:	18000005 	stmdane	r0, {r0, r2}
    2788:	00000889 	andeq	r0, r0, r9, lsl #17
    278c:	25023a05 	strcs	r3, [r2, #-2565]	; 0xa05
    2790:	00000000 	andeq	r0, r0, r0
    2794:	0006a218 	andeq	sl, r6, r8, lsl r2
    2798:	023f0500 	eorseq	r0, pc, #0, 10
    279c:	0000063b 	andeq	r0, r0, fp, lsr r6
    27a0:	07961804 	ldreq	r1, [r6, r4, lsl #16]
    27a4:	3f050000 	svccc	0x00050000
    27a8:	00063b02 	andeq	r3, r6, r2, lsl #22
    27ac:	57180800 	ldrpl	r0, [r8, -r0, lsl #16]
    27b0:	05000007 	streq	r0, [r0, #-7]
    27b4:	063b023f 			; <UNDEFINED> instruction: 0x063b023f
    27b8:	180c0000 	stmdane	ip, {}	; <UNPREDICTABLE>
    27bc:	000008e2 	andeq	r0, r0, r2, ror #17
    27c0:	25024105 	strcs	r4, [r2, #-261]	; 0x105
    27c4:	10000000 	andne	r0, r0, r0
    27c8:	0005cd18 	andeq	ip, r5, r8, lsl sp
    27cc:	02420500 	subeq	r0, r2, #0, 10
    27d0:	0000081d 	andeq	r0, r0, sp, lsl r8
    27d4:	0a001814 	beq	882c <ck_heap_errors+0x12c>
    27d8:	44050000 	strmi	r0, [r5], #-0
    27dc:	00002502 	andeq	r2, r0, r2, lsl #10
    27e0:	ec183000 	ldc	0, cr3, [r8], {-0}
    27e4:	05000008 	streq	r0, [r0, #-8]
    27e8:	058a0245 	streq	r0, [sl, #581]	; 0x245
    27ec:	18340000 	ldmdane	r4!, {}	; <UNPREDICTABLE>
    27f0:	0000084f 	andeq	r0, r0, pc, asr #16
    27f4:	25024705 	strcs	r4, [r2, #-1797]	; 0x705
    27f8:	38000000 	stmdacc	r0, {}	; <UNPREDICTABLE>
    27fc:	0008fc18 	andeq	pc, r8, r8, lsl ip	; <UNPREDICTABLE>
    2800:	02490500 	subeq	r0, r9, #0, 10
    2804:	00000838 	andeq	r0, r0, r8, lsr r8
    2808:	07e1183c 			; <UNDEFINED> instruction: 0x07e1183c
    280c:	4c050000 	stcmi	0, cr0, [r5], {-0}
    2810:	00017c02 	andeq	r7, r1, r2, lsl #24
    2814:	76184000 	ldrvc	r4, [r8], -r0
    2818:	05000007 	streq	r0, [r0, #-7]
    281c:	0025024d 	eoreq	r0, r5, sp, asr #4
    2820:	18440000 	stmdane	r4, {}^	; <UNPREDICTABLE>
    2824:	00000b0a 	andeq	r0, r0, sl, lsl #22
    2828:	7c024e05 	stcvc	14, cr4, [r2], {5}
    282c:	48000001 	stmdami	r0, {r0}
    2830:	00086618 	andeq	r6, r8, r8, lsl r6
    2834:	024f0500 	subeq	r0, pc, #0, 10
    2838:	0000083e 	andeq	r0, r0, lr, lsr r8
    283c:	079e184c 	ldreq	r1, [lr, ip, asr #16]
    2840:	52050000 	andpl	r0, r5, #0
    2844:	00002502 	andeq	r2, r0, r2, lsl #10
    2848:	c5185000 	ldrgt	r5, [r8, #-0]
    284c:	05000006 	streq	r0, [r0, #-6]
    2850:	010c0253 	tsteq	ip, r3, asr r2
    2854:	18540000 	ldmdane	r4, {}^	; <UNPREDICTABLE>
    2858:	00000882 	andeq	r0, r0, r2, lsl #17
    285c:	fb027605 	blx	a007a <__bss_end__+0x960b2>
    2860:	58000007 	stmdapl	r0, {r0, r1, r2}
    2864:	00084719 	andeq	r4, r8, r9, lsl r7
    2868:	027a0500 	rsbseq	r0, sl, #0, 10
    286c:	00000299 	muleq	r0, r9, r2
    2870:	b3190148 	tstlt	r9, #72, 2
    2874:	05000007 	streq	r0, [r0, #-7]
    2878:	025b027b 	subseq	r0, fp, #-1342177273	; 0xb0000007
    287c:	014c0000 	mrseq	r0, (UNDEF: 76)
    2880:	000a6c19 	andeq	r6, sl, r9, lsl ip
    2884:	027f0500 	rsbseq	r0, pc, #0, 10
    2888:	0000084f 	andeq	r0, r0, pc, asr #16
    288c:	8b1902dc 	blhi	643404 <__bss_end__+0x63943c>
    2890:	05000006 	streq	r0, [r0, #-6]
    2894:	06000284 	streq	r0, [r0], -r4, lsl #5
    2898:	02e00000 	rsceq	r0, r0, #0
    289c:	00067019 	andeq	r7, r6, r9, lsl r0
    28a0:	02850500 	addeq	r0, r5, #0, 10
    28a4:	0000085b 	andeq	r0, r0, fp, asr r8
    28a8:	0e0002ec 	cdpeq	2, 0, cr0, cr0, cr12, {7}
    28ac:	00040b04 	andeq	r0, r4, r4, lsl #22
    28b0:	00251500 	eoreq	r1, r5, r0, lsl #10
    28b4:	058a0000 	streq	r0, [sl]
    28b8:	29160000 	ldmdbcs	r6, {}	; <UNPREDICTABLE>
    28bc:	16000004 	strne	r0, [r0], -r4
    28c0:	0000010a 	andeq	r0, r0, sl, lsl #2
    28c4:	00058a16 	andeq	r8, r5, r6, lsl sl
    28c8:	00251600 	eoreq	r1, r5, r0, lsl #12
    28cc:	0e000000 	cdpeq	0, 0, cr0, cr0, cr0, {0}
    28d0:	00011904 	andeq	r1, r1, r4, lsl #18
    28d4:	6c040e00 	stcvs	14, cr0, [r4], {-0}
    28d8:	15000005 	strne	r0, [r0, #-5]
    28dc:	00000086 	andeq	r0, r0, r6, lsl #1
    28e0:	000005b4 			; <UNDEFINED> instruction: 0x000005b4
    28e4:	00042916 	andeq	r2, r4, r6, lsl r9
    28e8:	010a1600 	tsteq	sl, r0, lsl #12
    28ec:	86160000 	ldrhi	r0, [r6], -r0
    28f0:	16000000 	strne	r0, [r0], -r0
    28f4:	00000025 	andeq	r0, r0, r5, lsr #32
    28f8:	96040e00 	strls	r0, [r4], -r0, lsl #28
    28fc:	15000005 	strne	r0, [r0, #-5]
    2900:	00000025 	andeq	r0, r0, r5, lsr #32
    2904:	000005ce 	andeq	r0, r0, lr, asr #11
    2908:	00042916 	andeq	r2, r4, r6, lsl r9
    290c:	010a1600 	tsteq	sl, r0, lsl #12
    2910:	0e000000 	cdpeq	0, 0, cr0, cr0, cr0, {0}
    2914:	0005ba04 	andeq	fp, r5, r4, lsl #20
    2918:	00540900 	subseq	r0, r4, r0, lsl #18
    291c:	05e40000 	strbeq	r0, [r4, #0]!
    2920:	cc0a0000 	stcgt	0, cr0, [sl], {-0}
    2924:	02000000 	andeq	r0, r0, #0
    2928:	00540900 	subseq	r0, r4, r0, lsl #18
    292c:	05f40000 	ldrbeq	r0, [r4, #0]!
    2930:	cc0a0000 	stcgt	0, cr0, [sl], {-0}
    2934:	00000000 	andeq	r0, r0, r0
    2938:	08a70600 	stmiaeq	r7!, {r9, sl}
    293c:	1d050000 	stcne	0, cr0, [r5, #-0]
    2940:	0002e101 	andeq	lr, r2, r1, lsl #2
    2944:	0a2e1a00 	beq	b8914c <__bss_end__+0xb7f184>
    2948:	050c0000 	streq	r0, [ip, #-0]
    294c:	06350121 	ldrteq	r0, [r5], -r1, lsr #2
    2950:	cf180000 	svcgt	0x00180000
    2954:	05000008 	streq	r0, [r0, #-8]
    2958:	06350123 	ldrteq	r0, [r5], -r3, lsr #2
    295c:	18000000 	stmdane	r0, {}	; <UNPREDICTABLE>
    2960:	000007ac 	andeq	r0, r0, ip, lsr #15
    2964:	25012405 	strcs	r2, [r1, #-1029]	; 0x405
    2968:	04000000 	streq	r0, [r0], #-0
    296c:	0008a118 	andeq	sl, r8, r8, lsl r1
    2970:	01250500 	teqeq	r5, r0, lsl #10
    2974:	0000063b 	andeq	r0, r0, fp, lsr r6
    2978:	040e0008 	streq	r0, [lr], #-8
    297c:	00000600 	andeq	r0, r0, r0, lsl #12
    2980:	05f4040e 	ldrbeq	r0, [r4, #1038]!	; 0x40e
    2984:	c51a0000 	ldrgt	r0, [sl, #-0]
    2988:	0e000005 	cdpeq	0, 0, cr0, cr0, cr5, {0}
    298c:	76013d05 	strvc	r3, [r1], -r5, lsl #26
    2990:	18000006 	stmdane	r0, {r1, r2}
    2994:	00000915 	andeq	r0, r0, r5, lsl r9
    2998:	76013e05 	strvc	r3, [r1], -r5, lsl #28
    299c:	00000006 	andeq	r0, r0, r6
    29a0:	00094f18 	andeq	r4, r9, r8, lsl pc
    29a4:	013f0500 	teqeq	pc, r0, lsl #10
    29a8:	00000676 	andeq	r0, r0, r6, ror r6
    29ac:	09d31806 	ldmibeq	r3, {r1, r2, fp, ip}^
    29b0:	40050000 	andmi	r0, r5, r0
    29b4:	00005b01 	andeq	r5, r0, r1, lsl #22
    29b8:	09000c00 	stmdbeq	r0, {sl, fp}
    29bc:	0000005b 	andeq	r0, r0, fp, asr r0
    29c0:	00000686 	andeq	r0, r0, r6, lsl #13
    29c4:	0000cc0a 	andeq	ip, r0, sl, lsl #24
    29c8:	1b000200 	blne	31d0 <_start-0x4e30>
    29cc:	025705d0 	subseq	r0, r7, #208, 10	; 0x34000000
    29d0:	00000787 	andeq	r0, r0, r7, lsl #15
    29d4:	000a1218 	andeq	r1, sl, r8, lsl r2
    29d8:	02590500 	subseq	r0, r9, #0, 10
    29dc:	0000002c 	andeq	r0, r0, ip, lsr #32
    29e0:	09bd1800 	ldmibeq	sp!, {fp, ip}
    29e4:	5a050000 	bpl	1429ec <__bss_end__+0x138a24>
    29e8:	00010c02 	andeq	r0, r1, r2, lsl #24
    29ec:	c8180400 	ldmdagt	r8, {sl}
    29f0:	05000007 	streq	r0, [r0, #-7]
    29f4:	0787025b 			; <UNDEFINED> instruction: 0x0787025b
    29f8:	18080000 	stmdane	r8, {}	; <UNPREDICTABLE>
    29fc:	00000ae1 	andeq	r0, r0, r1, ror #21
    2a00:	92025c05 	andls	r5, r2, #1280	; 0x500
    2a04:	24000001 	strcs	r0, [r0], #-1
    2a08:	00076718 	andeq	r6, r7, r8, lsl r7
    2a0c:	025d0500 	subseq	r0, sp, #0, 10
    2a10:	00000025 	andeq	r0, r0, r5, lsr #32
    2a14:	08ca1848 	stmiaeq	sl, {r3, r6, fp, ip}^
    2a18:	5e050000 	cdppl	0, 0, cr0, cr5, cr0, {0}
    2a1c:	00006902 	andeq	r6, r0, r2, lsl #18
    2a20:	f7185000 			; <UNDEFINED> instruction: 0xf7185000
    2a24:	0500000a 	streq	r0, [r0, #-10]
    2a28:	0641025f 			; <UNDEFINED> instruction: 0x0641025f
    2a2c:	18580000 	ldmdane	r8, {}^	; <UNPREDICTABLE>
    2a30:	000008d5 	ldrdeq	r0, [r0], -r5
    2a34:	f4026005 	vst4.8	{d6-d9}, [r2], r5
    2a38:	68000000 	stmdavs	r0, {}	; <UNPREDICTABLE>
    2a3c:	000afc18 	andeq	pc, sl, r8, lsl ip	; <UNPREDICTABLE>
    2a40:	02610500 	rsbeq	r0, r1, #0, 10
    2a44:	000000f4 	strdeq	r0, [r0], -r4
    2a48:	062a1870 			; <UNDEFINED> instruction: 0x062a1870
    2a4c:	62050000 	andvs	r0, r5, #0
    2a50:	0000f402 	andeq	pc, r0, r2, lsl #8
    2a54:	4e187800 	cdpmi	8, 1, cr7, cr8, cr0, {0}
    2a58:	0500000a 	streq	r0, [r0, #-10]
    2a5c:	07970263 	ldreq	r0, [r7, r3, ror #4]
    2a60:	18800000 	stmne	r0, {}	; <UNPREDICTABLE>
    2a64:	000007bc 			; <UNDEFINED> instruction: 0x000007bc
    2a68:	a7026405 	strge	r6, [r2, -r5, lsl #8]
    2a6c:	88000007 	stmdahi	r0, {r0, r1, r2}
    2a70:	0009e018 	andeq	lr, r9, r8, lsl r0
    2a74:	02650500 	rsbeq	r0, r5, #0, 10
    2a78:	00000025 	andeq	r0, r0, r5, lsr #32
    2a7c:	071318a0 	ldreq	r1, [r3, -r0, lsr #17]
    2a80:	66050000 	strvs	r0, [r5], -r0
    2a84:	0000f402 	andeq	pc, r0, r2, lsl #8
    2a88:	1b18a400 	blne	62ba90 <__bss_end__+0x621ac8>
    2a8c:	05000006 	streq	r0, [r0, #-6]
    2a90:	00f40267 	rscseq	r0, r4, r7, ror #4
    2a94:	18ac0000 	stmiane	ip!, {}	; <UNPREDICTABLE>
    2a98:	00000702 	andeq	r0, r0, r2, lsl #14
    2a9c:	f4026805 	vst2.8	{d6-d7}, [r2], r5
    2aa0:	b4000000 	strlt	r0, [r0], #-0
    2aa4:	0005e218 	andeq	lr, r5, r8, lsl r2
    2aa8:	02690500 	rsbeq	r0, r9, #0, 10
    2aac:	000000f4 	strdeq	r0, [r0], -r4
    2ab0:	05f118bc 	ldrbeq	r1, [r1, #2236]!	; 0x8bc
    2ab4:	6a050000 	bvs	142abc <__bss_end__+0x138af4>
    2ab8:	0000f402 	andeq	pc, r0, r2, lsl #8
    2abc:	8718c400 	ldrhi	ip, [r8, -r0, lsl #8]
    2ac0:	05000008 	streq	r0, [r0, #-8]
    2ac4:	0025026b 	eoreq	r0, r5, fp, ror #4
    2ac8:	00cc0000 	sbceq	r0, ip, r0
    2acc:	00011209 	andeq	r1, r1, r9, lsl #4
    2ad0:	00079700 	andeq	r9, r7, r0, lsl #14
    2ad4:	00cc0a00 	sbceq	r0, ip, r0, lsl #20
    2ad8:	00190000 	andseq	r0, r9, r0
    2adc:	00011209 	andeq	r1, r1, r9, lsl #4
    2ae0:	0007a700 	andeq	sl, r7, r0, lsl #14
    2ae4:	00cc0a00 	sbceq	r0, ip, r0, lsl #20
    2ae8:	00070000 	andeq	r0, r7, r0
    2aec:	00011209 	andeq	r1, r1, r9, lsl #4
    2af0:	0007b700 	andeq	fp, r7, r0, lsl #14
    2af4:	00cc0a00 	sbceq	r0, ip, r0, lsl #20
    2af8:	00170000 	andseq	r0, r7, r0
    2afc:	7005f01b 	andvc	pc, r5, fp, lsl r0	; <UNPREDICTABLE>
    2b00:	0007db02 	andeq	sp, r7, r2, lsl #22
    2b04:	08371800 	ldmdaeq	r7!, {fp, ip}
    2b08:	73050000 	movwvc	r0, #20480	; 0x5000
    2b0c:	0007db02 	andeq	sp, r7, r2, lsl #22
    2b10:	45180000 	ldrmi	r0, [r8, #-0]
    2b14:	0500000a 	streq	r0, [r0, #-10]
    2b18:	07eb0274 			; <UNDEFINED> instruction: 0x07eb0274
    2b1c:	00780000 	rsbseq	r0, r8, r0
    2b20:	0002db09 	andeq	sp, r2, r9, lsl #22
    2b24:	0007eb00 	andeq	lr, r7, r0, lsl #22
    2b28:	00cc0a00 	sbceq	r0, ip, r0, lsl #20
    2b2c:	001d0000 	andseq	r0, sp, r0
    2b30:	00002c09 	andeq	r2, r0, r9, lsl #24
    2b34:	0007fb00 	andeq	pc, r7, r0, lsl #22
    2b38:	00cc0a00 	sbceq	r0, ip, r0, lsl #20
    2b3c:	001d0000 	andseq	r0, sp, r0
    2b40:	5505f01c 	strpl	pc, [r5, #-28]
    2b44:	00081d02 	andeq	r1, r8, r2, lsl #26
    2b48:	090e1d00 	stmdbeq	lr, {r8, sl, fp, ip}
    2b4c:	6c050000 	stcvs	0, cr0, [r5], {-0}
    2b50:	00068602 	andeq	r8, r6, r2, lsl #12
    2b54:	0aa11d00 	beq	fe849f5c <__bss_end__+0xfe83ff94>
    2b58:	75050000 	strvc	r0, [r5, #-0]
    2b5c:	0007b702 	andeq	fp, r7, r2, lsl #14
    2b60:	12090000 	andne	r0, r9, #0
    2b64:	2d000001 	stccs	0, cr0, [r0, #-4]
    2b68:	0a000008 	beq	2b90 <_start-0x5470>
    2b6c:	000000cc 	andeq	r0, r0, ip, asr #1
    2b70:	381e0018 	ldmdacc	lr, {r3, r4}
    2b74:	16000008 	strne	r0, [r0], -r8
    2b78:	00000429 	andeq	r0, r0, r9, lsr #8
    2b7c:	2d040e00 	stccs	14, cr0, [r4, #-0]
    2b80:	0e000008 	cdpeq	0, 0, cr0, cr0, cr8, {0}
    2b84:	00017c04 	andeq	r7, r1, r4, lsl #24
    2b88:	084f1e00 	stmdaeq	pc, {r9, sl, fp, ip}^	; <UNPREDICTABLE>
    2b8c:	25160000 	ldrcs	r0, [r6, #-0]
    2b90:	00000000 	andeq	r0, r0, r0
    2b94:	0855040e 	ldmdaeq	r5, {r1, r2, r3, sl}^
    2b98:	040e0000 	streq	r0, [lr], #-0
    2b9c:	00000844 	andeq	r0, r0, r4, asr #16
    2ba0:	0005f409 	andeq	pc, r5, r9, lsl #8
    2ba4:	00086b00 	andeq	r6, r8, r0, lsl #22
    2ba8:	00cc0a00 	sbceq	r0, ip, r0, lsl #20
    2bac:	00020000 	andeq	r0, r2, r0
    2bb0:	0009f41f 	andeq	pc, r9, pc, lsl r4	; <UNPREDICTABLE>
    2bb4:	02fd0500 	rscseq	r0, sp, #0, 10
    2bb8:	00000429 	andeq	r0, r0, r9, lsr #8
    2bbc:	0009ed1f 	andeq	lr, r9, pc, lsl sp
    2bc0:	02fe0500 	rscseq	r0, lr, #0, 10
    2bc4:	0000042f 	andeq	r0, r0, pc, lsr #8
    2bc8:	00002515 	andeq	r2, r0, r5, lsl r5
    2bcc:	00089200 	andeq	r9, r8, r0, lsl #4
    2bd0:	00251600 	eoreq	r1, r5, r0, lsl #12
    2bd4:	20000000 	andcs	r0, r0, r0
    2bd8:	000003e3 	andeq	r0, r0, r3, ror #7
    2bdc:	089d1d06 	ldmeq	sp, {r1, r2, r8, sl, fp, ip}
    2be0:	040e0000 	streq	r0, [lr], #-0
    2be4:	00000883 	andeq	r0, r0, r3, lsl #17
    2be8:	00002515 	andeq	r2, r0, r5, lsl r5
    2bec:	0008b200 	andeq	fp, r8, r0, lsl #4
    2bf0:	058a1600 	streq	r1, [sl, #1536]	; 0x600
    2bf4:	20000000 	andcs	r0, r0, r0
    2bf8:	00000420 	andeq	r0, r0, r0, lsr #8
    2bfc:	08bd2206 	popeq	{r1, r2, r9, sp}
    2c00:	040e0000 	streq	r0, [lr], #-0
    2c04:	000008a3 	andeq	r0, r0, r3, lsr #17
    2c08:	00540121 	subseq	r0, r4, r1, lsr #2
    2c0c:	0c080000 	stceq	0, cr0, [r8], {-0}
    2c10:	00000900 	andeq	r0, r0, r0, lsl #18
    2c14:	00060b22 	andeq	r0, r6, r2, lsr #22
    2c18:	34220000 	strtcc	r0, [r2], #-0
    2c1c:	0100000a 	tsteq	r0, sl
    2c20:	000a8c22 	andeq	r8, sl, r2, lsr #24
    2c24:	4c220400 	cfstrsmi	mvf0, [r2], #-0
    2c28:	05000006 	streq	r0, [r0, #-6]
    2c2c:	0007ef22 	andeq	lr, r7, r2, lsr #30
    2c30:	a9220600 	stmdbge	r2!, {r9, sl}
    2c34:	0700000a 	streq	r0, [r0, -sl]
    2c38:	000ab822 	andeq	fp, sl, r2, lsr #16
    2c3c:	c7220300 	strgt	r0, [r2, -r0, lsl #6]!
    2c40:	0200000a 	andeq	r0, r0, #10
    2c44:	06b91000 	ldrteq	r1, [r9], r0
    2c48:	072c0000 	streq	r0, [ip, -r0]!
    2c4c:	00099006 	andeq	r9, r9, r6
    2c50:	6f691100 	svcvs	0x00691100
    2c54:	33090700 	movwcc	r0, #38656	; 0x9700
    2c58:	00000000 	andeq	r0, r0, r0
    2c5c:	72656911 	rsbvc	r6, r5, #278528	; 0x44000
    2c60:	330a0700 	movwcc	r0, #42752	; 0xa700
    2c64:	04000000 	streq	r0, [r0], #-0
    2c68:	72696911 	rsbvc	r6, r9, #278528	; 0x44000
    2c6c:	33110700 	tstcc	r1, #0, 14
    2c70:	08000000 	stmdaeq	r0, {}	; <UNPREDICTABLE>
    2c74:	72636c11 	rsbvc	r6, r3, #4352	; 0x1100
    2c78:	33130700 	tstcc	r3, #0, 14
    2c7c:	0c000000 	stceq	0, cr0, [r0], {-0}
    2c80:	72636d11 	rsbvc	r6, r3, #1088	; 0x440
    2c84:	33140700 	tstcc	r4, #0, 14
    2c88:	10000000 	andne	r0, r0, r0
    2c8c:	72736c11 	rsbsvc	r6, r3, #4352	; 0x1100
    2c90:	33150700 	tstcc	r5, #0, 14
    2c94:	14000000 	strne	r0, [r0], #-0
    2c98:	72736d11 	rsbsvc	r6, r3, #1088	; 0x440
    2c9c:	33160700 	tstcc	r6, #0, 14
    2ca0:	18000000 	stmdane	r0, {}	; <UNPREDICTABLE>
    2ca4:	0009470c 	andeq	r4, r9, ip, lsl #14
    2ca8:	33170700 	tstcc	r7, #0, 14
    2cac:	1c000000 	stcne	0, cr0, [r0], {-0}
    2cb0:	0006610c 	andeq	r6, r6, ip, lsl #2
    2cb4:	331b0700 	tstcc	fp, #0, 14
    2cb8:	20000000 	andcs	r0, r0, r0
    2cbc:	0006410c 	andeq	r4, r6, ip, lsl #2
    2cc0:	331d0700 	tstcc	sp, #0, 14
    2cc4:	24000000 	strcs	r0, [r0], #-0
    2cc8:	0009310c 	andeq	r3, r9, ip, lsl #2
    2ccc:	331e0700 	tstcc	lr, #0, 14
    2cd0:	28000000 	stmdacs	r0, {}	; <UNPREDICTABLE>
    2cd4:	07292300 	streq	r2, [r9, -r0, lsl #6]!
    2cd8:	07010000 	streq	r0, [r1, -r0]
    2cdc:	000009a5 	andeq	r0, r0, r5, lsr #19
    2ce0:	20215004 	eorcs	r5, r1, r4
    2ce4:	0033040e 	eorseq	r0, r3, lr, lsl #8
    2ce8:	9f0f0000 	svcls	0x000f0000
    2cec:	23000009 	movwcs	r0, #9
    2cf0:	00000861 	andeq	r0, r0, r1, ror #16
    2cf4:	09bf2801 	ldmibeq	pc!, {r0, fp, sp}	; <UNPREDICTABLE>
    2cf8:	50400000 	subpl	r0, r0, r0
    2cfc:	040e2021 	streq	r2, [lr], #-33	; 0x21
    2d00:	00000900 	andeq	r0, r0, r0, lsl #18
    2d04:	0009b90f 	andeq	fp, r9, pc, lsl #18
    2d08:	0a7e2400 	beq	1f8bd10 <__bss_end__+0x1f81d48>
    2d0c:	a7010000 	strge	r0, [r1, -r0]
    2d10:	00000025 	andeq	r0, r0, r5, lsr #32
    2d14:	00009238 	andeq	r9, r0, r8, lsr r2
    2d18:	00000010 	andeq	r0, r0, r0, lsl r0
    2d1c:	09f09c01 	ldmibeq	r0!, {r0, sl, fp, ip, pc}^
    2d20:	40250000 	eormi	r0, r5, r0
    2d24:	9c000092 	stcls	0, cr0, [r0], {146}	; 0x92
    2d28:	2500000c 	strcs	r0, [r0, #-12]
    2d2c:	00009244 	andeq	r9, r0, r4, asr #4
    2d30:	00000ad2 	ldrdeq	r0, [r0], -r2
    2d34:	03c82600 	biceq	r2, r8, #0, 12
    2d38:	9f010000 	svcls	0x00010000
    2d3c:	00009208 	andeq	r9, r0, r8, lsl #4
    2d40:	00000030 	andeq	r0, r0, r0, lsr r0
    2d44:	0a4e9c01 	beq	13a9d50 <__bss_end__+0x139fd88>
    2d48:	63270000 	teqvs	r7, #0
    2d4c:	2c9f0100 	ldfcss	f0, [pc], {0}
    2d50:	a5000000 	strge	r0, [r0, #-0]
    2d54:	25000010 	strcs	r0, [r0, #-16]
    2d58:	00009214 	andeq	r9, r0, r4, lsl r2
    2d5c:	00000c9c 	muleq	r0, ip, ip
    2d60:	00921825 	addseq	r1, r2, r5, lsr #16
    2d64:	000aa500 	andeq	sl, sl, r0, lsl #10
    2d68:	922c2800 	eorls	r2, ip, #0, 16
    2d6c:	0ca70000 	stceq	0, cr0, [r7]
    2d70:	0a440000 	beq	1102d78 <__bss_end__+0x10f8db0>
    2d74:	01290000 	teqeq	r9, r0
    2d78:	400c0550 	andmi	r0, ip, r0, asr r5
    2d7c:	29202150 	stmdbcs	r0!, {r4, r6, r8, sp}
    2d80:	74055101 	strvc	r5, [r5], #-257	; 0x101
    2d84:	1aff0800 	bne	fffc4d8c <__bss_end__+0xfffbadc4>
    2d88:	92302500 	eorsls	r2, r0, #0, 10
    2d8c:	0c9c0000 	ldceq	0, cr0, [ip], {0}
    2d90:	24000000 	strcs	r0, [r0], #-0
    2d94:	0000078c 	andeq	r0, r0, ip, lsl #15
    2d98:	00259701 	eoreq	r9, r5, r1, lsl #14
    2d9c:	91d80000 	bicsls	r0, r8, r0
    2da0:	00300000 	eorseq	r0, r0, r0
    2da4:	9c010000 	stcls	0, cr0, [r1], {-0}
    2da8:	00000aa5 	andeq	r0, r0, r5, lsr #21
    2dac:	0100632a 	tsteq	r0, sl, lsr #6
    2db0:	0000259b 	muleq	r0, fp, r5
    2db4:	25540100 	ldrbcs	r0, [r4, #-256]	; 0x100
    2db8:	000091e0 	andeq	r9, r0, r0, ror #3
    2dbc:	00000c9c 	muleq	r0, ip, ip
    2dc0:	0091e425 	addseq	lr, r1, r5, lsr #8
    2dc4:	000ad200 	andeq	sp, sl, r0, lsl #4
    2dc8:	91f42800 	mvnsls	r2, r0, lsl #16
    2dcc:	0cb20000 	ldceq	0, cr0, [r2]
    2dd0:	0a9b0000 	beq	fe6c2dd8 <__bss_end__+0xfe6b8e10>
    2dd4:	01290000 	teqeq	r9, r0
    2dd8:	400c0550 	andmi	r0, ip, r0, asr r5
    2ddc:	00202150 	eoreq	r2, r0, r0, asr r1
    2de0:	0091fc25 	addseq	pc, r1, r5, lsr #24
    2de4:	000c9c00 	andeq	r9, ip, r0, lsl #24
    2de8:	40240000 	eormi	r0, r4, r0
    2dec:	01000007 	tsteq	r0, r7
    2df0:	00002588 	andeq	r2, r0, r8, lsl #11
    2df4:	0091b800 	addseq	fp, r1, r0, lsl #16
    2df8:	00002000 	andeq	r2, r0, r0
    2dfc:	d29c0100 	addsle	r0, ip, #0, 2
    2e00:	2b00000a 	blcs	2e30 <_start-0x51d0>
    2e04:	000091c4 	andeq	r9, r0, r4, asr #3
    2e08:	00000cb2 			; <UNDEFINED> instruction: 0x00000cb2
    2e0c:	05500129 	ldrbeq	r0, [r0, #-297]	; 0x129
    2e10:	2150640c 	cmpcs	r0, ip, lsl #8
    2e14:	24000020 	strcs	r0, [r0], #-32
    2e18:	00000a5e 	andeq	r0, r0, lr, asr sl
    2e1c:	00257f01 	eoreq	r7, r5, r1, lsl #30
    2e20:	91a00000 	movls	r0, r0
    2e24:	00180000 	andseq	r0, r8, r0
    2e28:	9c010000 	stcls	0, cr0, [r1], {-0}
    2e2c:	00000aff 	strdeq	r0, [r0], -pc	; <UNPREDICTABLE>
    2e30:	0091ac2b 	addseq	sl, r1, fp, lsr #24
    2e34:	000cb200 	andeq	fp, ip, r0, lsl #4
    2e38:	50012900 	andpl	r2, r1, r0, lsl #18
    2e3c:	50640c05 	rsbpl	r0, r4, r5, lsl #24
    2e40:	00002021 	andeq	r2, r0, r1, lsr #32
    2e44:	0005d826 	andeq	sp, r5, r6, lsr #16
    2e48:	f03a0100 			; <UNDEFINED> instruction: 0xf03a0100
    2e4c:	b0000090 	mullt	r0, r0, r0
    2e50:	01000000 	mrseq	r0, (UNDEF: 0)
    2e54:	000c3d9c 	muleq	ip, ip, sp
    2e58:	91002800 	tstls	r0, r0, lsl #16
    2e5c:	0cbd0000 	ldceq	0, cr0, [sp]
    2e60:	0b2c0000 	bleq	b02e68 <__bss_end__+0xaf8ea0>
    2e64:	01290000 	teqeq	r9, r0
    2e68:	293e0150 	ldmdbcs	lr!, {r4, r6, r8}
    2e6c:	32015101 	andcc	r5, r1, #1073741824	; 0x40000000
    2e70:	910c2800 	tstls	ip, r0, lsl #16
    2e74:	0cbd0000 	ldceq	0, cr0, [sp]
    2e78:	0b440000 	bleq	1102e80 <__bss_end__+0x10f8eb8>
    2e7c:	01290000 	teqeq	r9, r0
    2e80:	293f0150 	ldmdbcs	pc!, {r4, r6, r8}	; <UNPREDICTABLE>
    2e84:	32015101 	andcc	r5, r1, #1073741824	; 0x40000000
    2e88:	91102500 	tstls	r0, r0, lsl #10
    2e8c:	0c9c0000 	ldceq	0, cr0, [ip], {0}
    2e90:	1c280000 	stcne	0, cr0, [r8], #-0
    2e94:	3d000091 	stccc	0, cr0, [r0, #-580]	; 0xfffffdbc
    2e98:	6900000c 	stmdbvs	r0, {r2, r3}
    2e9c:	2900000b 	stmdbcs	r0, {r0, r1, r3}
    2ea0:	0c055001 	stceq	0, cr5, [r5], {1}
    2ea4:	20215004 	eorcs	r5, r1, r4
    2ea8:	01510129 	cmpeq	r1, r9, lsr #2
    2eac:	20250031 	eorcs	r0, r5, r1, lsr r0
    2eb0:	9c000091 	stcls	0, cr0, [r0], {145}	; 0x91
    2eb4:	2800000c 	stmdacs	r0, {r2, r3}
    2eb8:	00009130 	andeq	r9, r0, r0, lsr r1
    2ebc:	00000ca7 	andeq	r0, r0, r7, lsr #25
    2ec0:	00000b8b 	andeq	r0, r0, fp, lsl #23
    2ec4:	02500129 	subseq	r0, r0, #1073741834	; 0x4000000a
    2ec8:	01290074 	teqeq	r9, r4, ror r0
    2ecc:	00300151 	eorseq	r0, r0, r1, asr r1
    2ed0:	00913c28 	addseq	r3, r1, r8, lsr #24
    2ed4:	000ca700 	andeq	sl, ip, r0, lsl #14
    2ed8:	000ba700 	andeq	sl, fp, r0, lsl #14
    2edc:	50012900 	andpl	r2, r1, r0, lsl #18
    2ee0:	50440c05 	subpl	r0, r4, r5, lsl #24
    2ee4:	01292021 	teqeq	r9, r1, lsr #32
    2ee8:	00300151 	eorseq	r0, r0, r1, asr r1
    2eec:	00914828 	addseq	r4, r1, r8, lsr #16
    2ef0:	000ca700 	andeq	sl, ip, r0, lsl #14
    2ef4:	000bc300 	andeq	ip, fp, r0, lsl #6
    2ef8:	50012900 	andpl	r2, r1, r0, lsl #18
    2efc:	504c0c05 	subpl	r0, ip, r5, lsl #24
    2f00:	01292021 	teqeq	r9, r1, lsr #32
    2f04:	00330151 	eorseq	r0, r3, r1, asr r1
    2f08:	00915428 	addseq	r5, r1, r8, lsr #8
    2f0c:	000ca700 	andeq	sl, ip, r0, lsl #14
    2f10:	000bdf00 	andeq	sp, fp, r0, lsl #30
    2f14:	50012900 	andpl	r2, r1, r0, lsl #18
    2f18:	50500c05 	subspl	r0, r0, r5, lsl #24
    2f1c:	01292021 	teqeq	r9, r1, lsr #32
    2f20:	00300151 	eorseq	r0, r0, r1, asr r1
    2f24:	00916028 	addseq	r6, r1, r8, lsr #32
    2f28:	000ca700 	andeq	sl, ip, r0, lsl #14
    2f2c:	000bfc00 	andeq	pc, fp, r0, lsl #24
    2f30:	50012900 	andpl	r2, r1, r0, lsl #18
    2f34:	50480c05 	subpl	r0, r8, r5, lsl #24
    2f38:	01292021 	teqeq	r9, r1, lsr #32
    2f3c:	c7080251 	smlsdgt	r8, r1, r2, r0
    2f40:	916c2800 	cmnls	ip, r0, lsl #16
    2f44:	0ca70000 	stceq	0, cr0, [r7]
    2f48:	0c1a0000 	ldceq	0, cr0, [sl], {-0}
    2f4c:	01290000 	teqeq	r9, r0
    2f50:	680c0550 	stmdavs	ip, {r4, r6, r8, sl}
    2f54:	29202150 	stmdbcs	r0!, {r4, r6, r8, sp}
    2f58:	0a035101 	beq	d7364 <__bss_end__+0xcd39c>
    2f5c:	2800010e 	stmdacs	r0, {r1, r2, r3, r8}
    2f60:	00009178 	andeq	r9, r0, r8, ror r1
    2f64:	00000ca7 	andeq	r0, r0, r7, lsr #25
    2f68:	00000c33 	andeq	r0, r0, r3, lsr ip
    2f6c:	02500129 	subseq	r0, r0, #1073741834	; 0x4000000a
    2f70:	01290074 	teqeq	r9, r4, ror r0
    2f74:	00330151 	eorseq	r0, r3, r1, asr r1
    2f78:	00917c25 	addseq	r7, r1, r5, lsr #24
    2f7c:	000c9c00 	andeq	r9, ip, r0, lsl #24
    2f80:	762c0000 	strtvc	r0, [ip], -r0
    2f84:	0100000a 	tsteq	r0, sl
    2f88:	0090d02d 	addseq	sp, r0, sp, lsr #32
    2f8c:	00002000 	andeq	r2, r0, r0
    2f90:	959c0100 	ldrls	r0, [ip, #256]	; 0x100
    2f94:	2d00000c 	stccs	0, cr0, [r0, #-48]	; 0xffffffd0
    2f98:	000001ba 			; <UNDEFINED> instruction: 0x000001ba
    2f9c:	0c952d01 	ldceq	13, cr2, [r5], {1}
    2fa0:	10c30000 	sbcne	r0, r3, r0
    2fa4:	76270000 	strtvc	r0, [r7], -r0
    2fa8:	01006c61 	tsteq	r0, r1, ror #24
    2fac:	00002c2d 	andeq	r2, r0, sp, lsr #24
    2fb0:	0010e100 	andseq	lr, r0, r0, lsl #2
    2fb4:	90e02800 	rscls	r2, r0, r0, lsl #16
    2fb8:	0cb20000 	ldceq	0, cr0, [r2]
    2fbc:	0c840000 	stceq	0, cr0, [r4], {0}
    2fc0:	01290000 	teqeq	r9, r0
    2fc4:	00740250 	rsbseq	r0, r4, r0, asr r2
    2fc8:	90ec2b00 	rscls	r2, ip, r0, lsl #22
    2fcc:	0ca70000 	stceq	0, cr0, [r7]
    2fd0:	01290000 	teqeq	r9, r0
    2fd4:	00740250 	rsbseq	r0, r4, r0, asr r2
    2fd8:	040e0000 	streq	r0, [lr], #-0
    2fdc:	00000c9b 	muleq	r0, fp, ip
    2fe0:	07d52f2e 	ldrbeq	r2, [r5, lr, lsr #30]
    2fe4:	07d50000 	ldrbeq	r0, [r5, r0]
    2fe8:	89060000 	stmdbhi	r6, {}	; <UNPREDICTABLE>
    2fec:	0009552f 	andeq	r5, r9, pc, lsr #10
    2ff0:	00095500 	andeq	r5, r9, r0, lsl #10
    2ff4:	2f9c0600 	svccs	0x009c0600
    2ff8:	00000a58 	andeq	r0, r0, r8, asr sl
    2ffc:	00000a58 	andeq	r0, r0, r8, asr sl
    3000:	252fa806 	strcs	sl, [pc, #-2054]!	; 2802 <_start-0x57fe>
    3004:	25000008 	strcs	r0, [r0, #-8]
    3008:	08000008 	stmdaeq	r0, {r3}
    300c:	0b700019 	bleq	1c03078 <__bss_end__+0x1bf90b0>
    3010:	00040000 	andeq	r0, r4, r0
    3014:	00000eea 	andeq	r0, r0, sl, ror #29
    3018:	095b0104 	ldmdbeq	fp, {r2, r8}^
    301c:	2b0c0000 	blcs	303024 <__bss_end__+0x2f905c>
    3020:	cd00000b 	stcgt	0, cr0, [r0, #-44]	; 0xffffffd4
    3024:	48000006 	stmdami	r0, {r1, r2}
    3028:	20000092 	mulcs	r0, r2, r0
    302c:	ec000001 	stc	0, cr0, [r0], {1}
    3030:	0200000d 	andeq	r0, r0, #13
    3034:	6e690504 	cdpvs	5, 6, cr0, cr9, cr4, {0}
    3038:	04030074 	streq	r0, [r3], #-116	; 0x74
    303c:	00013e07 	andeq	r3, r1, r7, lsl #28
    3040:	002c0400 	eoreq	r0, ip, r0, lsl #8
    3044:	01030000 	mrseq	r0, (UNDEF: 3)
    3048:	00007f06 	andeq	r7, r0, r6, lsl #30
    304c:	05020300 	streq	r0, [r2, #-768]	; 0x300
    3050:	00000176 	andeq	r0, r0, r6, ror r1
    3054:	66050403 	strvs	r0, [r5], -r3, lsl #8
    3058:	03000001 	movweq	r0, #1
    305c:	01610508 	cmneq	r1, r8, lsl #10
    3060:	01030000 	mrseq	r0, (UNDEF: 3)
    3064:	00007d08 	andeq	r7, r0, r8, lsl #26
    3068:	07020300 	streq	r0, [r2, -r0, lsl #6]
    306c:	000000f4 	strdeq	r0, [r0], -r4
    3070:	39070403 	stmdbcc	r7, {r0, r1, sl}
    3074:	03000001 	movweq	r0, #1
    3078:	01340708 	teqeq	r4, r8, lsl #14
    307c:	70050000 	andvc	r0, r5, r0
    3080:	02000008 	andeq	r0, r0, #8
    3084:	00002507 	andeq	r2, r0, r7, lsl #10
    3088:	085a0500 	ldmdaeq	sl, {r8, sl}^
    308c:	2c030000 	stccs	0, cr0, [r3], {-0}
    3090:	00000046 	andeq	r0, r0, r6, asr #32
    3094:	00093605 	andeq	r3, r9, r5, lsl #12
    3098:	46720300 	ldrbtmi	r0, [r2], -r0, lsl #6
    309c:	06000000 	streq	r0, [r0], -r0
    30a0:	000007fe 	strdeq	r0, [r0], -lr
    30a4:	2c016504 	cfstr32cs	mvfx6, [r1], {4}
    30a8:	07000000 	streq	r0, [r0, -r0]
    30ac:	bca60304 	stclt	3, cr0, [r6], #16
    30b0:	08000000 	stmdaeq	r0, {}	; <UNPREDICTABLE>
    30b4:	000007e9 	andeq	r0, r0, r9, ror #15
    30b8:	0091a803 	addseq	sl, r1, r3, lsl #16
    30bc:	85080000 	strhi	r0, [r8, #-0]
    30c0:	03000007 	movweq	r0, #7
    30c4:	0000bca9 	andeq	fp, r0, r9, lsr #25
    30c8:	54090000 	strpl	r0, [r9], #-0
    30cc:	cc000000 	stcgt	0, cr0, [r0], {-0}
    30d0:	0a000000 	beq	30d8 <_start-0x4f28>
    30d4:	000000cc 	andeq	r0, r0, ip, asr #1
    30d8:	04030003 	streq	r0, [r3], #-3
    30dc:	00015807 	andeq	r5, r1, r7, lsl #16
    30e0:	03080b00 	movweq	r0, #35584	; 0x8b00
    30e4:	0000f4a3 	andeq	pc, r0, r3, lsr #9
    30e8:	091b0c00 	ldmdbeq	fp, {sl, fp}
    30ec:	a5030000 	strge	r0, [r3, #-0]
    30f0:	00000025 	andeq	r0, r0, r5, lsr #32
    30f4:	09230c00 	stmdbeq	r3!, {sl, fp}
    30f8:	aa030000 	bge	c3100 <__bss_end__+0xb9138>
    30fc:	0000009d 	muleq	r0, sp, r0
    3100:	ae050004 	cdpge	0, 0, cr0, cr5, cr4, {0}
    3104:	03000008 	movweq	r0, #8
    3108:	0000d3ab 	andeq	sp, r0, fp, lsr #7
    310c:	074e0500 	strbeq	r0, [lr, -r0, lsl #10]
    3110:	af030000 	svcge	0x00030000
    3114:	00000070 	andeq	r0, r0, r0, ror r0
    3118:	040e040d 	streq	r0, [lr], #-1037	; 0x40d
    311c:	00000112 	andeq	r0, r0, r2, lsl r1
    3120:	86080103 	strhi	r0, [r8], -r3, lsl #2
    3124:	04000000 	streq	r0, [r0], #-0
    3128:	00000112 	andeq	r0, r0, r2, lsl r1
    312c:	0009d805 	andeq	sp, r9, r5, lsl #16
    3130:	62160500 	andsvs	r0, r6, #0, 10
    3134:	0f000000 	svceq	0x00000000
    3138:	0000075f 	andeq	r0, r0, pc, asr r7
    313c:	7c2d0518 	cfstr32vc	mvfx0, [sp], #-96	; 0xffffffa0
    3140:	0c000001 	stceq	0, cr0, [r0], {1}
    3144:	000008cf 	andeq	r0, r0, pc, asr #17
    3148:	017c2f05 	cmneq	ip, r5, lsl #30
    314c:	10000000 	andne	r0, r0, r0
    3150:	05006b5f 	streq	r6, [r0, #-2911]	; 0xb5f
    3154:	00002530 	andeq	r2, r0, r0, lsr r5
    3158:	060c0400 	streq	r0, [ip], -r0, lsl #8
    315c:	05000009 	streq	r0, [r0, #-9]
    3160:	00002530 	andeq	r2, r0, r0, lsr r5
    3164:	3a0c0800 	bcc	30516c <__bss_end__+0x2fb1a4>
    3168:	05000007 	streq	r0, [r0, #-7]
    316c:	00002530 	andeq	r2, r0, r0, lsr r5
    3170:	1f0c0c00 	svcne	0x000c0c00
    3174:	0500000a 	streq	r0, [r0, #-10]
    3178:	00002530 	andeq	r2, r0, r0, lsr r5
    317c:	5f101000 	svcpl	0x00101000
    3180:	31050078 	tstcc	r5, r8, ror r0
    3184:	00000182 	andeq	r0, r0, r2, lsl #3
    3188:	040e0014 	streq	r0, [lr], #-20
    318c:	00000129 	andeq	r0, r0, r9, lsr #2
    3190:	00011e09 	andeq	r1, r1, r9, lsl #28
    3194:	00019200 	andeq	r9, r1, r0, lsl #4
    3198:	00cc0a00 	sbceq	r0, ip, r0, lsl #20
    319c:	00000000 	andeq	r0, r0, r0
    31a0:	0007800f 	andeq	r8, r7, pc
    31a4:	35052400 	strcc	r2, [r5, #-1024]	; 0x400
    31a8:	0000020b 	andeq	r0, r0, fp, lsl #4
    31ac:	0006380c 	andeq	r3, r6, ip, lsl #16
    31b0:	25370500 	ldrcs	r0, [r7, #-1280]!	; 0x500
    31b4:	00000000 	andeq	r0, r0, r0
    31b8:	00093e0c 	andeq	r3, r9, ip, lsl #28
    31bc:	25380500 	ldrcs	r0, [r8, #-1280]!	; 0x500
    31c0:	04000000 	streq	r0, [r0], #-0
    31c4:	0006660c 	andeq	r6, r6, ip, lsl #12
    31c8:	25390500 	ldrcs	r0, [r9, #-1280]!	; 0x500
    31cc:	08000000 	stmdaeq	r0, {}	; <UNPREDICTABLE>
    31d0:	000b0f0c 	andeq	r0, fp, ip, lsl #30
    31d4:	253a0500 	ldrcs	r0, [sl, #-1280]!	; 0x500
    31d8:	0c000000 	stceq	0, cr0, [r0], {-0}
    31dc:	00083e0c 	andeq	r3, r8, ip, lsl #28
    31e0:	253b0500 	ldrcs	r0, [fp, #-1280]!	; 0x500
    31e4:	10000000 	andne	r0, r0, r0
    31e8:	0008130c 	andeq	r1, r8, ip, lsl #6
    31ec:	253c0500 	ldrcs	r0, [ip, #-1280]!	; 0x500
    31f0:	14000000 	strne	r0, [r0], #-0
    31f4:	000a240c 	andeq	r2, sl, ip, lsl #8
    31f8:	253d0500 	ldrcs	r0, [sp, #-1280]!	; 0x500
    31fc:	18000000 	stmdane	r0, {}	; <UNPREDICTABLE>
    3200:	0008900c 	andeq	r9, r8, ip
    3204:	253e0500 	ldrcs	r0, [lr, #-1280]!	; 0x500
    3208:	1c000000 	stcne	0, cr0, [r0], {-0}
    320c:	000ad60c 	andeq	sp, sl, ip, lsl #12
    3210:	253f0500 	ldrcs	r0, [pc, #-1280]!	; 2d18 <_start-0x52e8>
    3214:	20000000 	andcs	r0, r0, r0
    3218:	06751100 	ldrbteq	r1, [r5], -r0, lsl #2
    321c:	01080000 	mrseq	r0, (UNDEF: 8)
    3220:	024b4805 	subeq	r4, fp, #327680	; 0x50000
    3224:	210c0000 	mrscs	r0, (UNDEF: 12)
    3228:	05000007 	streq	r0, [r0, #-7]
    322c:	00024b49 	andeq	r4, r2, r9, asr #22
    3230:	b90c0000 	stmdblt	ip, {}	; <UNPREDICTABLE>
    3234:	05000005 	streq	r0, [r0, #-5]
    3238:	00024b4a 	andeq	r4, r2, sl, asr #22
    323c:	ca128000 	bgt	4a3244 <__bss_end__+0x49927c>
    3240:	05000009 	streq	r0, [r0, #-9]
    3244:	00011e4c 	andeq	r1, r1, ip, asr #28
    3248:	12010000 	andne	r0, r1, #0
    324c:	0000069a 	muleq	r0, sl, r6
    3250:	011e4f05 	tsteq	lr, r5, lsl #30
    3254:	01040000 	mrseq	r0, (UNDEF: 4)
    3258:	010a0900 	tsteq	sl, r0, lsl #18
    325c:	025b0000 	subseq	r0, fp, #0
    3260:	cc0a0000 	stcgt	0, cr0, [sl], {-0}
    3264:	1f000000 	svcne	0x00000000
    3268:	08471100 	stmdaeq	r7, {r8, ip}^
    326c:	01900000 	orrseq	r0, r0, r0
    3270:	02995b05 	addseq	r5, r9, #5120	; 0x1400
    3274:	cf0c0000 	svcgt	0x000c0000
    3278:	05000008 	streq	r0, [r0, #-8]
    327c:	0002995c 	andeq	r9, r2, ip, asr r9
    3280:	e70c0000 	str	r0, [ip, -r0]
    3284:	05000008 	streq	r0, [r0, #-8]
    3288:	0000255d 	andeq	r2, r0, sp, asr r5
    328c:	350c0400 	strcc	r0, [ip, #-1024]	; 0x400
    3290:	05000007 	streq	r0, [r0, #-7]
    3294:	00029f5f 	andeq	r9, r2, pc, asr pc
    3298:	750c0800 	strvc	r0, [ip, #-2048]	; 0x800
    329c:	05000006 	streq	r0, [r0, #-6]
    32a0:	00020b60 	andeq	r0, r2, r0, ror #22
    32a4:	0e008800 	cdpeq	8, 0, cr8, cr0, cr0, {0}
    32a8:	00025b04 	andeq	r5, r2, r4, lsl #22
    32ac:	02af0900 	adceq	r0, pc, #0, 18
    32b0:	02af0000 	adceq	r0, pc, #0
    32b4:	cc0a0000 	stcgt	0, cr0, [sl], {-0}
    32b8:	1f000000 	svcne	0x00000000
    32bc:	b5040e00 	strlt	r0, [r4, #-3584]	; 0xe00
    32c0:	13000002 	movwne	r0, #2
    32c4:	00089a0f 	andeq	r9, r8, pc, lsl #20
    32c8:	73050800 	movwvc	r0, #22528	; 0x5800
    32cc:	000002db 	ldrdeq	r0, [r0], -fp
    32d0:	00065b0c 	andeq	r5, r6, ip, lsl #22
    32d4:	db740500 	blle	1d046dc <__bss_end__+0x1cfa714>
    32d8:	00000002 	andeq	r0, r0, r2
    32dc:	0001ce0c 	andeq	ip, r1, ip, lsl #28
    32e0:	25750500 	ldrbcs	r0, [r5, #-1280]!	; 0x500
    32e4:	04000000 	streq	r0, [r0], #-0
    32e8:	54040e00 	strpl	r0, [r4], #-3584	; 0xe00
    32ec:	0f000000 	svceq	0x00000000
    32f0:	000008b9 			; <UNDEFINED> instruction: 0x000008b9
    32f4:	0bb30568 	bleq	fecc489c <__bss_end__+0xfecba8d4>
    32f8:	10000004 	andne	r0, r0, r4
    32fc:	0500705f 	streq	r7, [r0, #-95]	; 0x5f
    3300:	0002dbb4 			; <UNDEFINED> instruction: 0x0002dbb4
    3304:	5f100000 	svcpl	0x00100000
    3308:	b5050072 	strlt	r0, [r5, #-114]	; 0x72
    330c:	00000025 	andeq	r0, r0, r5, lsr #32
    3310:	775f1004 	ldrbvc	r1, [pc, -r4]
    3314:	25b60500 	ldrcs	r0, [r6, #1280]!	; 0x500
    3318:	08000000 	stmdaeq	r0, {}	; <UNPREDICTABLE>
    331c:	0006930c 	andeq	r9, r6, ip, lsl #6
    3320:	3fb70500 	svccc	0x00b70500
    3324:	0c000000 	stceq	0, cr0, [r0], {-0}
    3328:	0007a60c 	andeq	sl, r7, ip, lsl #12
    332c:	3fb80500 	svccc	0x00b80500
    3330:	0e000000 	cdpeq	0, 0, cr0, cr0, cr0, {0}
    3334:	66625f10 	uqadd16vs	r5, r2, r0
    3338:	b6b90500 	ldrtlt	r0, [r9], r0, lsl #10
    333c:	10000002 	andne	r0, r0, r2
    3340:	0006020c 	andeq	r0, r6, ip, lsl #4
    3344:	25ba0500 	ldrcs	r0, [sl, #1280]!	; 0x500
    3348:	18000000 	stmdane	r0, {}	; <UNPREDICTABLE>
    334c:	0006830c 	andeq	r8, r6, ip, lsl #6
    3350:	0ac10500 	beq	ff044758 <__bss_end__+0xff03a790>
    3354:	1c000001 	stcne	0, cr0, [r0], {1}
    3358:	000b360c 	andeq	r3, fp, ip, lsl #12
    335c:	66c30500 	strbvs	r0, [r3], r0, lsl #10
    3360:	20000005 	andcs	r0, r0, r5
    3364:	000b500c 	andeq	r5, fp, ip
    3368:	90c50500 	sbcls	r0, r5, r0, lsl #10
    336c:	24000005 	strcs	r0, [r0], #-5
    3370:	00092b0c 	andeq	r2, r9, ip, lsl #22
    3374:	b4c80500 	strblt	r0, [r8], #1280	; 0x500
    3378:	28000005 	stmdacs	r0, {r0, r2}
    337c:	000af00c 	andeq	pc, sl, ip
    3380:	cec90500 	cdpgt	5, 12, cr0, cr9, cr0, {0}
    3384:	2c000005 	stccs	0, cr0, [r0], {5}
    3388:	62755f10 	rsbsvs	r5, r5, #16, 30	; 0x40
    338c:	b6cc0500 	strblt	r0, [ip], r0, lsl #10
    3390:	30000002 	andcc	r0, r0, r2
    3394:	70755f10 	rsbsvc	r5, r5, r0, lsl pc
    3398:	dbcd0500 	blle	ff3447a0 <__bss_end__+0xff33a7d8>
    339c:	38000002 	stmdacc	r0, {r1}
    33a0:	72755f10 	rsbsvc	r5, r5, #16, 30	; 0x40
    33a4:	25ce0500 	strbcs	r0, [lr, #1280]	; 0x500
    33a8:	3c000000 	stccc	0, cr0, [r0], {-0}
    33ac:	0006460c 	andeq	r4, r6, ip, lsl #12
    33b0:	d4d10500 	ldrble	r0, [r1], #1280	; 0x500
    33b4:	40000005 	andmi	r0, r0, r5
    33b8:	000a9b0c 	andeq	r9, sl, ip, lsl #22
    33bc:	e4d20500 	ldrb	r0, [r2], #1280	; 0x500
    33c0:	43000005 	movwmi	r0, #5
    33c4:	626c5f10 	rsbvs	r5, ip, #16, 30	; 0x40
    33c8:	b6d50500 	ldrblt	r0, [r5], r0, lsl #10
    33cc:	44000002 	strmi	r0, [r0], #-2
    33d0:	0006a90c 	andeq	sl, r6, ip, lsl #18
    33d4:	25d80500 	ldrbcs	r0, [r8, #1280]	; 0x500
    33d8:	4c000000 	stcmi	0, cr0, [r0], {-0}
    33dc:	00081d0c 	andeq	r1, r8, ip, lsl #26
    33e0:	7bd90500 	blvc	ff6447e8 <__bss_end__+0xff63a820>
    33e4:	50000000 	andpl	r0, r0, r0
    33e8:	000a860c 	andeq	r8, sl, ip, lsl #12
    33ec:	29dc0500 	ldmibcs	ip, {r8, sl}^
    33f0:	54000004 	strpl	r0, [r0], #-4
    33f4:	0008050c 	andeq	r0, r8, ip, lsl #10
    33f8:	ffe00500 			; <UNDEFINED> instruction: 0xffe00500
    33fc:	58000000 	stmdapl	r0, {}	; <UNPREDICTABLE>
    3400:	0008c10c 	andeq	ip, r8, ip, lsl #2
    3404:	f4e20500 	vld2.16	{d16[0],d17[0]}, [r2], r0
    3408:	5c000000 	stcpl	0, cr0, [r0], {-0}
    340c:	00080b0c 	andeq	r0, r8, ip, lsl #22
    3410:	25e30500 	strbcs	r0, [r3, #1280]!	; 0x500
    3414:	64000000 	strvs	r0, [r0], #-0
    3418:	00251400 	eoreq	r1, r5, r0, lsl #8
    341c:	04290000 	strteq	r0, [r9], #-0
    3420:	29150000 	ldmdbcs	r5, {}	; <UNPREDICTABLE>
    3424:	15000004 	strne	r0, [r0, #-4]
    3428:	0000010a 	andeq	r0, r0, sl, lsl #2
    342c:	00010c15 	andeq	r0, r1, r5, lsl ip
    3430:	00251500 	eoreq	r1, r5, r0, lsl #10
    3434:	0e000000 	cdpeq	0, 0, cr0, cr0, cr0, {0}
    3438:	00043404 	andeq	r3, r4, r4, lsl #8
    343c:	04290400 	strteq	r0, [r9], #-1024	; 0x400
    3440:	0e160000 	cdpeq	0, 1, cr0, cr6, cr0, {0}
    3444:	28000009 	stmdacs	r0, {r0, r3}
    3448:	02380504 	eorseq	r0, r8, #4, 10	; 0x1000000
    344c:	00000566 	andeq	r0, r0, r6, ror #10
    3450:	00088917 	andeq	r8, r8, r7, lsl r9
    3454:	023a0500 	eorseq	r0, sl, #0, 10
    3458:	00000025 	andeq	r0, r0, r5, lsr #32
    345c:	06a21700 	strteq	r1, [r2], r0, lsl #14
    3460:	3f050000 	svccc	0x00050000
    3464:	00063b02 	andeq	r3, r6, r2, lsl #22
    3468:	96170400 	ldrls	r0, [r7], -r0, lsl #8
    346c:	05000007 	streq	r0, [r0, #-7]
    3470:	063b023f 			; <UNDEFINED> instruction: 0x063b023f
    3474:	17080000 	strne	r0, [r8, -r0]
    3478:	00000757 	andeq	r0, r0, r7, asr r7
    347c:	3b023f05 	blcc	93098 <__bss_end__+0x890d0>
    3480:	0c000006 	stceq	0, cr0, [r0], {6}
    3484:	0008e217 	andeq	lr, r8, r7, lsl r2
    3488:	02410500 	subeq	r0, r1, #0, 10
    348c:	00000025 	andeq	r0, r0, r5, lsr #32
    3490:	05cd1710 	strbeq	r1, [sp, #1808]	; 0x710
    3494:	42050000 	andmi	r0, r5, #0
    3498:	00081d02 	andeq	r1, r8, r2, lsl #26
    349c:	00171400 	andseq	r1, r7, r0, lsl #8
    34a0:	0500000a 	streq	r0, [r0, #-10]
    34a4:	00250244 	eoreq	r0, r5, r4, asr #4
    34a8:	17300000 	ldrne	r0, [r0, -r0]!
    34ac:	000008ec 	andeq	r0, r0, ip, ror #17
    34b0:	8a024505 	bhi	948cc <__bss_end__+0x8a904>
    34b4:	34000005 	strcc	r0, [r0], #-5
    34b8:	00084f17 	andeq	r4, r8, r7, lsl pc
    34bc:	02470500 	subeq	r0, r7, #0, 10
    34c0:	00000025 	andeq	r0, r0, r5, lsr #32
    34c4:	08fc1738 	ldmeq	ip!, {r3, r4, r5, r8, r9, sl, ip}^
    34c8:	49050000 	stmdbmi	r5, {}	; <UNPREDICTABLE>
    34cc:	00083802 	andeq	r3, r8, r2, lsl #16
    34d0:	e1173c00 	tst	r7, r0, lsl #24
    34d4:	05000007 	streq	r0, [r0, #-7]
    34d8:	017c024c 	cmneq	ip, ip, asr #4
    34dc:	17400000 	strbne	r0, [r0, -r0]
    34e0:	00000776 	andeq	r0, r0, r6, ror r7
    34e4:	25024d05 	strcs	r4, [r2, #-3333]	; 0xd05
    34e8:	44000000 	strmi	r0, [r0], #-0
    34ec:	000b0a17 	andeq	r0, fp, r7, lsl sl
    34f0:	024e0500 	subeq	r0, lr, #0, 10
    34f4:	0000017c 	andeq	r0, r0, ip, ror r1
    34f8:	08661748 	stmdaeq	r6!, {r3, r6, r8, r9, sl, ip}^
    34fc:	4f050000 	svcmi	0x00050000
    3500:	00083e02 	andeq	r3, r8, r2, lsl #28
    3504:	9e174c00 	cdpls	12, 1, cr4, cr7, cr0, {0}
    3508:	05000007 	streq	r0, [r0, #-7]
    350c:	00250252 	eoreq	r0, r5, r2, asr r2
    3510:	17500000 	ldrbne	r0, [r0, -r0]
    3514:	000006c5 	andeq	r0, r0, r5, asr #13
    3518:	0c025305 	stceq	3, cr5, [r2], {5}
    351c:	54000001 	strpl	r0, [r0], #-1
    3520:	00088217 	andeq	r8, r8, r7, lsl r2
    3524:	02760500 	rsbseq	r0, r6, #0, 10
    3528:	000007fb 	strdeq	r0, [r0], -fp
    352c:	08471858 	stmdaeq	r7, {r3, r4, r6, fp, ip}^
    3530:	7a050000 	bvc	143538 <__bss_end__+0x139570>
    3534:	00029902 	andeq	r9, r2, r2, lsl #18
    3538:	18014800 	stmdane	r1, {fp, lr}
    353c:	000007b3 			; <UNDEFINED> instruction: 0x000007b3
    3540:	5b027b05 	blpl	a215c <__bss_end__+0x98194>
    3544:	4c000002 	stcmi	0, cr0, [r0], {2}
    3548:	0a6c1801 	beq	1b09554 <__bss_end__+0x1aff58c>
    354c:	7f050000 	svcvc	0x00050000
    3550:	00084f02 	andeq	r4, r8, r2, lsl #30
    3554:	1802dc00 	stmdane	r2, {sl, fp, ip, lr, pc}
    3558:	0000068b 	andeq	r0, r0, fp, lsl #13
    355c:	00028405 	andeq	r8, r2, r5, lsl #8
    3560:	e0000006 	and	r0, r0, r6
    3564:	06701802 	ldrbteq	r1, [r0], -r2, lsl #16
    3568:	85050000 	strhi	r0, [r5, #-0]
    356c:	00085b02 	andeq	r5, r8, r2, lsl #22
    3570:	0002ec00 	andeq	lr, r2, r0, lsl #24
    3574:	040b040e 	streq	r0, [fp], #-1038	; 0x40e
    3578:	25140000 	ldrcs	r0, [r4, #-0]
    357c:	8a000000 	bhi	3584 <_start-0x4a7c>
    3580:	15000005 	strne	r0, [r0, #-5]
    3584:	00000429 	andeq	r0, r0, r9, lsr #8
    3588:	00010a15 	andeq	r0, r1, r5, lsl sl
    358c:	058a1500 	streq	r1, [sl, #1280]	; 0x500
    3590:	25150000 	ldrcs	r0, [r5, #-0]
    3594:	00000000 	andeq	r0, r0, r0
    3598:	0119040e 	tsteq	r9, lr, lsl #8
    359c:	040e0000 	streq	r0, [lr], #-0
    35a0:	0000056c 	andeq	r0, r0, ip, ror #10
    35a4:	00008614 	andeq	r8, r0, r4, lsl r6
    35a8:	0005b400 	andeq	fp, r5, r0, lsl #8
    35ac:	04291500 	strteq	r1, [r9], #-1280	; 0x500
    35b0:	0a150000 	beq	5435b8 <__bss_end__+0x5395f0>
    35b4:	15000001 	strne	r0, [r0, #-1]
    35b8:	00000086 	andeq	r0, r0, r6, lsl #1
    35bc:	00002515 	andeq	r2, r0, r5, lsl r5
    35c0:	040e0000 	streq	r0, [lr], #-0
    35c4:	00000596 	muleq	r0, r6, r5
    35c8:	00002514 	andeq	r2, r0, r4, lsl r5
    35cc:	0005ce00 	andeq	ip, r5, r0, lsl #28
    35d0:	04291500 	strteq	r1, [r9], #-1280	; 0x500
    35d4:	0a150000 	beq	5435dc <__bss_end__+0x539614>
    35d8:	00000001 	andeq	r0, r0, r1
    35dc:	05ba040e 	ldreq	r0, [sl, #1038]!	; 0x40e
    35e0:	54090000 	strpl	r0, [r9], #-0
    35e4:	e4000000 	str	r0, [r0], #-0
    35e8:	0a000005 	beq	3604 <_start-0x49fc>
    35ec:	000000cc 	andeq	r0, r0, ip, asr #1
    35f0:	54090002 	strpl	r0, [r9], #-2
    35f4:	f4000000 	vst4.8	{d0-d3}, [r0], r0
    35f8:	0a000005 	beq	3614 <_start-0x49ec>
    35fc:	000000cc 	andeq	r0, r0, ip, asr #1
    3600:	a7060000 	strge	r0, [r6, -r0]
    3604:	05000008 	streq	r0, [r0, #-8]
    3608:	02e1011d 	rsceq	r0, r1, #1073741831	; 0x40000007
    360c:	2e190000 	cdpcs	0, 1, cr0, cr9, cr0, {0}
    3610:	0c00000a 	stceq	0, cr0, [r0], {10}
    3614:	35012105 	strcc	r2, [r1, #-261]	; 0x105
    3618:	17000006 	strne	r0, [r0, -r6]
    361c:	000008cf 	andeq	r0, r0, pc, asr #17
    3620:	35012305 	strcc	r2, [r1, #-773]	; 0x305
    3624:	00000006 	andeq	r0, r0, r6
    3628:	0007ac17 	andeq	sl, r7, r7, lsl ip
    362c:	01240500 	teqeq	r4, r0, lsl #10
    3630:	00000025 	andeq	r0, r0, r5, lsr #32
    3634:	08a11704 	stmiaeq	r1!, {r2, r8, r9, sl, ip}
    3638:	25050000 	strcs	r0, [r5, #-0]
    363c:	00063b01 	andeq	r3, r6, r1, lsl #22
    3640:	0e000800 	cdpeq	8, 0, cr0, cr0, cr0, {0}
    3644:	00060004 	andeq	r0, r6, r4
    3648:	f4040e00 			; <UNDEFINED> instruction: 0xf4040e00
    364c:	19000005 	stmdbne	r0, {r0, r2}
    3650:	000005c5 	andeq	r0, r0, r5, asr #11
    3654:	013d050e 	teqeq	sp, lr, lsl #10
    3658:	00000676 	andeq	r0, r0, r6, ror r6
    365c:	00091517 	andeq	r1, r9, r7, lsl r5
    3660:	013e0500 	teqeq	lr, r0, lsl #10
    3664:	00000676 	andeq	r0, r0, r6, ror r6
    3668:	094f1700 	stmdbeq	pc, {r8, r9, sl, ip}^	; <UNPREDICTABLE>
    366c:	3f050000 	svccc	0x00050000
    3670:	00067601 	andeq	r7, r6, r1, lsl #12
    3674:	d3170600 	tstle	r7, #0, 12
    3678:	05000009 	streq	r0, [r0, #-9]
    367c:	005b0140 	subseq	r0, fp, r0, asr #2
    3680:	000c0000 	andeq	r0, ip, r0
    3684:	00005b09 	andeq	r5, r0, r9, lsl #22
    3688:	00068600 	andeq	r8, r6, r0, lsl #12
    368c:	00cc0a00 	sbceq	r0, ip, r0, lsl #20
    3690:	00020000 	andeq	r0, r2, r0
    3694:	5705d01a 	smladpl	r5, sl, r0, sp
    3698:	00078702 	andeq	r8, r7, r2, lsl #14
    369c:	0a121700 	beq	4892a4 <__bss_end__+0x47f2dc>
    36a0:	59050000 	stmdbpl	r5, {}	; <UNPREDICTABLE>
    36a4:	00002c02 	andeq	r2, r0, r2, lsl #24
    36a8:	bd170000 	ldclt	0, cr0, [r7, #-0]
    36ac:	05000009 	streq	r0, [r0, #-9]
    36b0:	010c025a 	tsteq	ip, sl, asr r2
    36b4:	17040000 	strne	r0, [r4, -r0]
    36b8:	000007c8 	andeq	r0, r0, r8, asr #15
    36bc:	87025b05 	strhi	r5, [r2, -r5, lsl #22]
    36c0:	08000007 	stmdaeq	r0, {r0, r1, r2}
    36c4:	000ae117 	andeq	lr, sl, r7, lsl r1
    36c8:	025c0500 	subseq	r0, ip, #0, 10
    36cc:	00000192 	muleq	r0, r2, r1
    36d0:	07671724 	strbeq	r1, [r7, -r4, lsr #14]!
    36d4:	5d050000 	stcpl	0, cr0, [r5, #-0]
    36d8:	00002502 	andeq	r2, r0, r2, lsl #10
    36dc:	ca174800 	bgt	5d56e4 <__bss_end__+0x5cb71c>
    36e0:	05000008 	streq	r0, [r0, #-8]
    36e4:	0069025e 	rsbeq	r0, r9, lr, asr r2
    36e8:	17500000 	ldrbne	r0, [r0, -r0]
    36ec:	00000af7 	strdeq	r0, [r0], -r7
    36f0:	41025f05 	tstmi	r2, r5, lsl #30
    36f4:	58000006 	stmdapl	r0, {r1, r2}
    36f8:	0008d517 	andeq	sp, r8, r7, lsl r5
    36fc:	02600500 	rsbeq	r0, r0, #0, 10
    3700:	000000f4 	strdeq	r0, [r0], -r4
    3704:	0afc1768 	beq	fff094ac <__bss_end__+0xffeff4e4>
    3708:	61050000 	mrsvs	r0, (UNDEF: 5)
    370c:	0000f402 	andeq	pc, r0, r2, lsl #8
    3710:	2a177000 	bcs	5df718 <__bss_end__+0x5d5750>
    3714:	05000006 	streq	r0, [r0, #-6]
    3718:	00f40262 	rscseq	r0, r4, r2, ror #4
    371c:	17780000 	ldrbne	r0, [r8, -r0]!
    3720:	00000a4e 	andeq	r0, r0, lr, asr #20
    3724:	97026305 	strls	r6, [r2, -r5, lsl #6]
    3728:	80000007 	andhi	r0, r0, r7
    372c:	0007bc17 	andeq	fp, r7, r7, lsl ip
    3730:	02640500 	rsbeq	r0, r4, #0, 10
    3734:	000007a7 	andeq	r0, r0, r7, lsr #15
    3738:	09e01788 	stmibeq	r0!, {r3, r7, r8, r9, sl, ip}^
    373c:	65050000 	strvs	r0, [r5, #-0]
    3740:	00002502 	andeq	r2, r0, r2, lsl #10
    3744:	1317a000 	tstne	r7, #0
    3748:	05000007 	streq	r0, [r0, #-7]
    374c:	00f40266 	rscseq	r0, r4, r6, ror #4
    3750:	17a40000 	strne	r0, [r4, r0]!
    3754:	0000061b 	andeq	r0, r0, fp, lsl r6
    3758:	f4026705 	vst1.8	{d6}, [r2], r5
    375c:	ac000000 	stcge	0, cr0, [r0], {-0}
    3760:	00070217 	andeq	r0, r7, r7, lsl r2
    3764:	02680500 	rsbeq	r0, r8, #0, 10
    3768:	000000f4 	strdeq	r0, [r0], -r4
    376c:	05e217b4 	strbeq	r1, [r2, #1972]!	; 0x7b4
    3770:	69050000 	stmdbvs	r5, {}	; <UNPREDICTABLE>
    3774:	0000f402 	andeq	pc, r0, r2, lsl #8
    3778:	f117bc00 			; <UNDEFINED> instruction: 0xf117bc00
    377c:	05000005 	streq	r0, [r0, #-5]
    3780:	00f4026a 	rscseq	r0, r4, sl, ror #4
    3784:	17c40000 	strbne	r0, [r4, r0]
    3788:	00000887 	andeq	r0, r0, r7, lsl #17
    378c:	25026b05 	strcs	r6, [r2, #-2821]	; 0xb05
    3790:	cc000000 	stcgt	0, cr0, [r0], {-0}
    3794:	01120900 	tsteq	r2, r0, lsl #18
    3798:	07970000 	ldreq	r0, [r7, r0]
    379c:	cc0a0000 	stcgt	0, cr0, [sl], {-0}
    37a0:	19000000 	stmdbne	r0, {}	; <UNPREDICTABLE>
    37a4:	01120900 	tsteq	r2, r0, lsl #18
    37a8:	07a70000 	streq	r0, [r7, r0]!
    37ac:	cc0a0000 	stcgt	0, cr0, [sl], {-0}
    37b0:	07000000 	streq	r0, [r0, -r0]
    37b4:	01120900 	tsteq	r2, r0, lsl #18
    37b8:	07b70000 	ldreq	r0, [r7, r0]!
    37bc:	cc0a0000 	stcgt	0, cr0, [sl], {-0}
    37c0:	17000000 	strne	r0, [r0, -r0]
    37c4:	05f01a00 	ldrbeq	r1, [r0, #2560]!	; 0xa00
    37c8:	07db0270 			; <UNDEFINED> instruction: 0x07db0270
    37cc:	37170000 	ldrcc	r0, [r7, -r0]
    37d0:	05000008 	streq	r0, [r0, #-8]
    37d4:	07db0273 			; <UNDEFINED> instruction: 0x07db0273
    37d8:	17000000 	strne	r0, [r0, -r0]
    37dc:	00000a45 	andeq	r0, r0, r5, asr #20
    37e0:	eb027405 	bl	a07fc <__bss_end__+0x96834>
    37e4:	78000007 	stmdavc	r0, {r0, r1, r2}
    37e8:	02db0900 	sbcseq	r0, fp, #0, 18
    37ec:	07eb0000 	strbeq	r0, [fp, r0]!
    37f0:	cc0a0000 	stcgt	0, cr0, [sl], {-0}
    37f4:	1d000000 	stcne	0, cr0, [r0, #-0]
    37f8:	002c0900 	eoreq	r0, ip, r0, lsl #18
    37fc:	07fb0000 	ldrbeq	r0, [fp, r0]!
    3800:	cc0a0000 	stcgt	0, cr0, [sl], {-0}
    3804:	1d000000 	stcne	0, cr0, [r0, #-0]
    3808:	05f01b00 	ldrbeq	r1, [r0, #2816]!	; 0xb00
    380c:	081d0255 	ldmdaeq	sp, {r0, r2, r4, r6, r9}
    3810:	0e1c0000 	cdpeq	0, 1, cr0, cr12, cr0, {0}
    3814:	05000009 	streq	r0, [r0, #-9]
    3818:	0686026c 	streq	r0, [r6], ip, ror #4
    381c:	a11c0000 	tstge	ip, r0
    3820:	0500000a 	streq	r0, [r0, #-10]
    3824:	07b70275 			; <UNDEFINED> instruction: 0x07b70275
    3828:	09000000 	stmdbeq	r0, {}	; <UNPREDICTABLE>
    382c:	00000112 	andeq	r0, r0, r2, lsl r1
    3830:	0000082d 	andeq	r0, r0, sp, lsr #16
    3834:	0000cc0a 	andeq	ip, r0, sl, lsl #24
    3838:	1d001800 	stcne	8, cr1, [r0, #-0]
    383c:	00000838 	andeq	r0, r0, r8, lsr r8
    3840:	00042915 	andeq	r2, r4, r5, lsl r9
    3844:	040e0000 	streq	r0, [lr], #-0
    3848:	0000082d 	andeq	r0, r0, sp, lsr #16
    384c:	017c040e 	cmneq	ip, lr, lsl #8
    3850:	4f1d0000 	svcmi	0x001d0000
    3854:	15000008 	strne	r0, [r0, #-8]
    3858:	00000025 	andeq	r0, r0, r5, lsr #32
    385c:	55040e00 	strpl	r0, [r4, #-3584]	; 0xe00
    3860:	0e000008 	cdpeq	0, 0, cr0, cr0, cr8, {0}
    3864:	00084404 	andeq	r4, r8, r4, lsl #8
    3868:	05f40900 	ldrbeq	r0, [r4, #2304]!	; 0x900
    386c:	086b0000 	stmdaeq	fp!, {}^	; <UNPREDICTABLE>
    3870:	cc0a0000 	stcgt	0, cr0, [sl], {-0}
    3874:	02000000 	andeq	r0, r0, #0
    3878:	09f41e00 	ldmibeq	r4!, {r9, sl, fp, ip}^
    387c:	fd050000 	stc2	0, cr0, [r5, #-0]
    3880:	00042902 	andeq	r2, r4, r2, lsl #18
    3884:	09ed1e00 	stmibeq	sp!, {r9, sl, fp, ip}^
    3888:	fe050000 	cdp2	0, 0, cr0, cr5, cr0, {0}
    388c:	00042f02 	andeq	r2, r4, r2, lsl #30
    3890:	00251400 	eoreq	r1, r5, r0, lsl #8
    3894:	08920000 	ldmeq	r2, {}	; <UNPREDICTABLE>
    3898:	25150000 	ldrcs	r0, [r5, #-0]
    389c:	00000000 	andeq	r0, r0, r0
    38a0:	0003e31f 	andeq	lr, r3, pc, lsl r3
    38a4:	9d1d0600 	ldcls	6, cr0, [sp, #-0]
    38a8:	0e000008 	cdpeq	0, 0, cr0, cr0, cr8, {0}
    38ac:	00088304 	andeq	r8, r8, r4, lsl #6
    38b0:	00251400 	eoreq	r1, r5, r0, lsl #8
    38b4:	08b20000 	ldmeq	r2!, {}	; <UNPREDICTABLE>
    38b8:	8a150000 	bhi	5438c0 <__bss_end__+0x5398f8>
    38bc:	00000005 	andeq	r0, r0, r5
    38c0:	0004201f 	andeq	r2, r4, pc, lsl r0
    38c4:	bd220600 	stclt	6, cr0, [r2, #-0]
    38c8:	0e000008 	cdpeq	0, 0, cr0, cr0, cr8, {0}
    38cc:	0008a304 	andeq	sl, r8, r4, lsl #6
    38d0:	54012000 	strpl	r2, [r1], #-0
    38d4:	07000000 	streq	r0, [r0, -r0]
    38d8:	0009000c 	andeq	r0, r9, ip
    38dc:	060b2100 	streq	r2, [fp], -r0, lsl #2
    38e0:	21000000 	mrscs	r0, (UNDEF: 0)
    38e4:	00000a34 	andeq	r0, r0, r4, lsr sl
    38e8:	0a8c2101 	beq	fe30bcf4 <__bss_end__+0xfe301d2c>
    38ec:	21040000 	mrscs	r0, (UNDEF: 4)
    38f0:	0000064c 	andeq	r0, r0, ip, asr #12
    38f4:	07ef2105 	strbeq	r2, [pc, r5, lsl #2]!
    38f8:	21060000 	mrscs	r0, (UNDEF: 6)
    38fc:	00000aa9 	andeq	r0, r0, r9, lsr #21
    3900:	0ab82107 	beq	fee0bd24 <__bss_end__+0xfee01d5c>
    3904:	21030000 	mrscs	r0, (UNDEF: 3)
    3908:	00000ac7 	andeq	r0, r0, r7, asr #21
    390c:	86050002 	strhi	r0, [r5], -r2
    3910:	0700000b 	streq	r0, [r0, -fp]
    3914:	0008c315 	andeq	ip, r8, r5, lsl r3
    3918:	0b572200 	bleq	15cc120 <__bss_end__+0x15c2158>
    391c:	1d010000 	stcne	0, cr0, [r1, #-0]
    3920:	00000033 	andeq	r0, r0, r3, lsr r0
    3924:	2020001c 	eorcs	r0, r0, ip, lsl r0
    3928:	000b9222 	andeq	r9, fp, r2, lsr #4
    392c:	331e0100 	tstcc	lr, #0, 2
    3930:	28000000 	stmdacs	r0, {}	; <UNPREDICTABLE>
    3934:	22202000 	eorcs	r2, r0, #0
    3938:	00000b61 	andeq	r0, r0, r1, ror #22
    393c:	00331f01 	eorseq	r1, r3, r1, lsl #30
    3940:	00340000 	eorseq	r0, r4, r0
    3944:	32232020 	eorcc	r2, r3, #32
    3948:	0100000b 	tsteq	r0, fp
    394c:	00002556 	andeq	r2, r0, r6, asr r5
    3950:	00933400 	addseq	r3, r3, r0, lsl #8
    3954:	00003400 	andeq	r3, r0, r0, lsl #8
    3958:	989c0100 	ldmls	ip, {r8}
    395c:	24000009 	strcs	r0, [r0], #-9
    3960:	006e6970 	rsbeq	r6, lr, r0, ror r9
    3964:	002c5601 	eoreq	r5, ip, r1, lsl #12
    3968:	10ff0000 	rscsne	r0, pc, r0
    396c:	26250000 	strtcs	r0, [r5], -r0
    3970:	0100000b 	tsteq	r0, fp
    3974:	00002c59 	andeq	r2, r0, r9, asr ip
    3978:	00113900 	andseq	r3, r1, r0, lsl #18
    397c:	666f2600 	strbtvs	r2, [pc], -r0, lsl #12
    3980:	5a010066 	bpl	43b20 <__bss_end__+0x39b58>
    3984:	0000002c 	andeq	r0, r0, ip, lsr #32
    3988:	00001177 	andeq	r1, r0, r7, ror r1
    398c:	00935027 	addseq	r5, r3, r7, lsr #32
    3990:	000b5d00 	andeq	r5, fp, r0, lsl #26
    3994:	50012800 	andpl	r2, r1, r0, lsl #16
    3998:	5001f30b 	andpl	pc, r1, fp, lsl #6
    399c:	b4232535 	strtlt	r2, [r3], #-1333	; 0x535
    39a0:	02818080 	addeq	r8, r1, #128	; 0x80
    39a4:	4c290000 	stcmi	0, cr0, [r9], #-0
    39a8:	0100000b 	tsteq	r0, fp
    39ac:	0093184f 	addseq	r1, r3, pc, asr #16
    39b0:	00001c00 	andeq	r1, r0, r0, lsl #24
    39b4:	e89c0100 	ldm	ip, {r8}
    39b8:	24000009 	strcs	r0, [r0], #-9
    39bc:	006e6970 	rsbeq	r6, lr, r0, ror r9
    39c0:	002c4f01 	eoreq	r4, ip, r1, lsl #30
    39c4:	118a0000 	orrne	r0, sl, r0
    39c8:	76240000 	strtvc	r0, [r4], -r0
    39cc:	2c4f0100 	stfcse	f0, [pc], {-0}
    39d0:	c4000000 	strgt	r0, [r0], #-0
    39d4:	2a000011 	bcs	3a20 <_start-0x45e0>
    39d8:	00009328 	andeq	r9, r0, r8, lsr #6
    39dc:	00000a23 	andeq	r0, r0, r3, lsr #20
    39e0:	000009de 	ldrdeq	r0, [r0], -lr
    39e4:	03500128 	cmpeq	r0, #40, 2
    39e8:	005001f3 	ldrsheq	r0, [r0], #-19	; 0xffffffed
    39ec:	0093302b 	addseq	r3, r3, fp, lsr #32
    39f0:	000a6400 	andeq	r6, sl, r0, lsl #8
    39f4:	6b290000 	blvs	a439fc <__bss_end__+0xa39a34>
    39f8:	0100000b 	tsteq	r0, fp
    39fc:	0093084a 	addseq	r0, r3, sl, asr #16
    3a00:	00001000 	andeq	r1, r0, r0
    3a04:	239c0100 	orrscs	r0, ip, #0, 2
    3a08:	2400000a 	strcs	r0, [r0], #-10
    3a0c:	006e6970 	rsbeq	r6, lr, r0, ror r9
    3a10:	002c4a01 	eoreq	r4, ip, r1, lsl #20
    3a14:	11fe0000 	mvnsne	r0, r0
    3a18:	14270000 	strtne	r0, [r7], #-0
    3a1c:	e0000093 	mul	r0, r3, r0
    3a20:	2800000a 	stmdacs	r0, {r1, r3}
    3a24:	f3035001 	vhadd.u8	d5, d3, d1
    3a28:	01285001 	teqeq	r8, r1
    3a2c:	00300151 	eorseq	r0, r0, r1, asr r1
    3a30:	0b192900 	bleq	64de38 <__bss_end__+0x643e70>
    3a34:	43010000 	movwmi	r0, #4096	; 0x1000
    3a38:	000092e4 	andeq	r9, r0, r4, ror #5
    3a3c:	00000024 	andeq	r0, r0, r4, lsr #32
    3a40:	0a649c01 	beq	192aa4c <__bss_end__+0x1920a84>
    3a44:	70240000 	eorvc	r0, r4, r0
    3a48:	01006e69 	tsteq	r0, r9, ror #28
    3a4c:	00002c43 	andeq	r2, r0, r3, asr #24
    3a50:	00121f00 	andseq	r1, r2, r0, lsl #30
    3a54:	93002700 	movwls	r2, #1792	; 0x700
    3a58:	0b680000 	bleq	1a03a60 <__bss_end__+0x19f9a98>
    3a5c:	01280000 	teqeq	r8, r0
    3a60:	280c0550 	stmdacs	ip, {r4, r6, r8, sl}
    3a64:	28202000 	stmdacs	r0!, {sp}
    3a68:	31055101 	tstcc	r5, r1, lsl #2
    3a6c:	245001f3 	ldrbcs	r0, [r0], #-499	; 0x1f3
    3a70:	7a290000 	bvc	a43a78 <__bss_end__+0xa39ab0>
    3a74:	0100000b 	tsteq	r0, fp
    3a78:	0092c03c 	addseq	ip, r2, ip, lsr r0
    3a7c:	00002400 	andeq	r2, r0, r0, lsl #8
    3a80:	a59c0100 	ldrge	r0, [ip, #256]	; 0x100
    3a84:	2400000a 	strcs	r0, [r0], #-10
    3a88:	006e6970 	rsbeq	r6, lr, r0, ror r9
    3a8c:	002c3c01 	eoreq	r3, ip, r1, lsl #24
    3a90:	12400000 	subne	r0, r0, #0
    3a94:	dc270000 	stcle	0, cr0, [r7], #-0
    3a98:	68000092 	stmdavs	r0, {r1, r4, r7}
    3a9c:	2800000b 	stmdacs	r0, {r0, r1, r3}
    3aa0:	0c055001 	stceq	0, cr5, [r5], {1}
    3aa4:	2020001c 	eorcs	r0, r0, ip, lsl r0
    3aa8:	05510128 	ldrbeq	r0, [r1, #-296]	; 0x128
    3aac:	5001f331 	andpl	pc, r1, r1, lsr r3	; <UNPREDICTABLE>
    3ab0:	29000024 	stmdbcs	r0, {r2, r5}
    3ab4:	00000b3c 	andeq	r0, r0, ip, lsr fp
    3ab8:	92b03701 	adcsls	r3, r0, #262144	; 0x40000
    3abc:	00100000 	andseq	r0, r0, r0
    3ac0:	9c010000 	stcls	0, cr0, [r1], {-0}
    3ac4:	00000ae0 	andeq	r0, r0, r0, ror #21
    3ac8:	6e697024 	cdpvs	0, 6, cr7, cr9, cr4, {1}
    3acc:	2c370100 	ldfcss	f0, [r7], #-0
    3ad0:	61000000 	mrsvs	r0, (UNDEF: 0)
    3ad4:	27000012 	smladcs	r0, r2, r0, r0
    3ad8:	000092bc 			; <UNDEFINED> instruction: 0x000092bc
    3adc:	00000ae0 	andeq	r0, r0, r0, ror #21
    3ae0:	03500128 	cmpeq	r0, #40, 2
    3ae4:	285001f3 	ldmdacs	r0, {r0, r1, r4, r5, r6, r7, r8}^
    3ae8:	31015101 	tstcc	r1, r1, lsl #2
    3aec:	25290000 	strcs	r0, [r9, #-0]!
    3af0:	01000008 	tsteq	r0, r8
    3af4:	00924828 	addseq	r4, r2, r8, lsr #16
    3af8:	00006800 	andeq	r6, r0, r0, lsl #16
    3afc:	5d9c0100 	ldfpls	f0, [ip]
    3b00:	2400000b 	strcs	r0, [r0], #-11
    3b04:	006e6970 	rsbeq	r6, lr, r0, ror r9
    3b08:	002c2801 	eoreq	r2, ip, r1, lsl #16
    3b0c:	12820000 	addne	r0, r2, #0
    3b10:	712c0000 	teqvc	ip, r0
    3b14:	0100000a 	tsteq	r0, sl
    3b18:	00090028 	andeq	r0, r9, r8, lsr #32
    3b1c:	0012a300 	andseq	sl, r2, r0, lsl #6
    3b20:	666f2d00 	strbtvs	r2, [pc], -r0, lsl #26
    3b24:	2d010066 	stccs	0, cr0, [r1, #-408]	; 0xfffffe68
    3b28:	0000002c 	andeq	r0, r0, ip, lsr #32
    3b2c:	672d5401 	strvs	r5, [sp, -r1, lsl #8]!
    3b30:	2c2f0100 	stfcss	f0, [pc], #-0	; 3b38 <_start-0x44c8>
    3b34:	01000000 	mrseq	r0, (UNDEF: 0)
    3b38:	00762656 	rsbseq	r2, r6, r6, asr r6
    3b3c:	002c3101 	eoreq	r3, ip, r1, lsl #2
    3b40:	12c40000 	sbcne	r0, r4, #0
    3b44:	942a0000 	strtls	r0, [sl], #-0
    3b48:	5d000092 	stcpl	0, cr0, [r0, #-584]	; 0xfffffdb8
    3b4c:	4c00000b 	stcmi	0, cr0, [r0], {11}
    3b50:	2800000b 	stmdacs	r0, {r0, r1, r3}
    3b54:	76025001 	strvc	r5, [r2], -r1
    3b58:	a8270000 	stmdage	r7!, {}	; <UNPREDICTABLE>
    3b5c:	68000092 	stmdavs	r0, {r1, r4, r7}
    3b60:	2800000b 	stmdacs	r0, {r0, r1, r3}
    3b64:	76025001 	strvc	r5, [r2], -r1
    3b68:	2e000000 	cdpcs	0, 0, cr0, cr0, cr0, {0}
    3b6c:	00000588 	andeq	r0, r0, r8, lsl #11
    3b70:	00000588 	andeq	r0, r0, r8, lsl #11
    3b74:	3a2ea706 	bcc	bad794 <__bss_end__+0xba37cc>
    3b78:	3a000005 	bcc	3b94 <_start-0x446c>
    3b7c:	06000005 	streq	r0, [r0], -r5
    3b80:	0c24009b 	stceq	0, cr0, [r4], #-620	; 0xfffffd94
    3b84:	00040000 	andeq	r0, r4, r0
    3b88:	00001158 	andeq	r1, r0, r8, asr r1
    3b8c:	095b0104 	ldmdbeq	fp, {r2, r8}^
    3b90:	9c0c0000 	stcls	0, cr0, [ip], {-0}
    3b94:	cd00000b 	stcgt	0, cr0, [r0, #-44]	; 0xffffffd4
    3b98:	68000006 	stmdavs	r0, {r1, r2}
    3b9c:	94000093 	strls	r0, [r0], #-147	; 0x93
    3ba0:	1b000001 	blne	3bac <_start-0x4454>
    3ba4:	0200000f 	andeq	r0, r0, #15
    3ba8:	6e690504 	cdpvs	5, 6, cr0, cr9, cr4, {0}
    3bac:	04030074 	streq	r0, [r3], #-116	; 0x74
    3bb0:	00013e07 	andeq	r3, r1, r7, lsl #28
    3bb4:	06010300 	streq	r0, [r1], -r0, lsl #6
    3bb8:	0000007f 	andeq	r0, r0, pc, ror r0
    3bbc:	76050203 	strvc	r0, [r5], -r3, lsl #4
    3bc0:	03000001 	movweq	r0, #1
    3bc4:	01660504 	cmneq	r6, r4, lsl #10
    3bc8:	08030000 	stmdaeq	r3, {}	; <UNPREDICTABLE>
    3bcc:	00016105 	andeq	r6, r1, r5, lsl #2
    3bd0:	08010300 	stmdaeq	r1, {r8, r9}
    3bd4:	0000007d 	andeq	r0, r0, sp, ror r0
    3bd8:	f4070203 	vst1.8	{d0-d3}, [r7], r3
    3bdc:	03000000 	movweq	r0, #0
    3be0:	01390704 	teqeq	r9, r4, lsl #14
    3be4:	08030000 	stmdaeq	r3, {}	; <UNPREDICTABLE>
    3be8:	00013407 	andeq	r3, r1, r7, lsl #8
    3bec:	08700400 	ldmdaeq	r0!, {sl}^
    3bf0:	07020000 	streq	r0, [r2, -r0]
    3bf4:	00000025 	andeq	r0, r0, r5, lsr #32
    3bf8:	00085a04 	andeq	r5, r8, r4, lsl #20
    3bfc:	412c0300 	teqmi	ip, r0, lsl #6
    3c00:	04000000 	streq	r0, [r0], #-0
    3c04:	00000936 	andeq	r0, r0, r6, lsr r9
    3c08:	00417203 	subeq	r7, r1, r3, lsl #4
    3c0c:	fe050000 	cdp2	0, 0, cr0, cr5, cr0, {0}
    3c10:	04000007 	streq	r0, [r0], #-7
    3c14:	002c0165 	eoreq	r0, ip, r5, ror #2
    3c18:	04060000 	streq	r0, [r6], #-0
    3c1c:	00b7a603 	adcseq	sl, r7, r3, lsl #12
    3c20:	e9070000 	stmdb	r7, {}	; <UNPREDICTABLE>
    3c24:	03000007 	movweq	r0, #7
    3c28:	00008ca8 	andeq	r8, r0, r8, lsr #25
    3c2c:	07850700 	streq	r0, [r5, r0, lsl #14]
    3c30:	a9030000 	stmdbge	r3, {}	; <UNPREDICTABLE>
    3c34:	000000b7 	strheq	r0, [r0], -r7
    3c38:	004f0800 	subeq	r0, pc, r0, lsl #16
    3c3c:	00c70000 	sbceq	r0, r7, r0
    3c40:	c7090000 	strgt	r0, [r9, -r0]
    3c44:	03000000 	movweq	r0, #0
    3c48:	07040300 	streq	r0, [r4, -r0, lsl #6]
    3c4c:	00000158 	andeq	r0, r0, r8, asr r1
    3c50:	a303080a 	movwge	r0, #14346	; 0x380a
    3c54:	000000ef 	andeq	r0, r0, pc, ror #1
    3c58:	00091b0b 	andeq	r1, r9, fp, lsl #22
    3c5c:	25a50300 	strcs	r0, [r5, #768]!	; 0x300
    3c60:	00000000 	andeq	r0, r0, r0
    3c64:	0009230b 	andeq	r2, r9, fp, lsl #6
    3c68:	98aa0300 	stmials	sl!, {r8, r9}
    3c6c:	04000000 	streq	r0, [r0], #-0
    3c70:	08ae0400 	stmiaeq	lr!, {sl}
    3c74:	ab030000 	blge	c3c7c <__bss_end__+0xb9cb4>
    3c78:	000000ce 	andeq	r0, r0, lr, asr #1
    3c7c:	00074e04 	andeq	r4, r7, r4, lsl #28
    3c80:	6baf0300 	blvs	febc4888 <__bss_end__+0xfebba8c0>
    3c84:	0c000000 	stceq	0, cr0, [r0], {-0}
    3c88:	0d040d04 	stceq	13, cr0, [r4, #-16]
    3c8c:	03000001 	movweq	r0, #1
    3c90:	00860801 	addeq	r0, r6, r1, lsl #16
    3c94:	0d0e0000 	stceq	0, cr0, [lr, #-0]
    3c98:	04000001 	streq	r0, [r0], #-1
    3c9c:	000009d8 	ldrdeq	r0, [r0], -r8
    3ca0:	005d1605 	subseq	r1, sp, r5, lsl #12
    3ca4:	5f0f0000 	svcpl	0x000f0000
    3ca8:	18000007 	stmdane	r0, {r0, r1, r2}
    3cac:	01772d05 	cmneq	r7, r5, lsl #26
    3cb0:	cf0b0000 	svcgt	0x000b0000
    3cb4:	05000008 	streq	r0, [r0, #-8]
    3cb8:	0001772f 	andeq	r7, r1, pc, lsr #14
    3cbc:	5f100000 	svcpl	0x00100000
    3cc0:	3005006b 	andcc	r0, r5, fp, rrx
    3cc4:	00000025 	andeq	r0, r0, r5, lsr #32
    3cc8:	09060b04 	stmdbeq	r6, {r2, r8, r9, fp}
    3ccc:	30050000 	andcc	r0, r5, r0
    3cd0:	00000025 	andeq	r0, r0, r5, lsr #32
    3cd4:	073a0b08 	ldreq	r0, [sl, -r8, lsl #22]!
    3cd8:	30050000 	andcc	r0, r5, r0
    3cdc:	00000025 	andeq	r0, r0, r5, lsr #32
    3ce0:	0a1f0b0c 	beq	7c6918 <__bss_end__+0x7bc950>
    3ce4:	30050000 	andcc	r0, r5, r0
    3ce8:	00000025 	andeq	r0, r0, r5, lsr #32
    3cec:	785f1010 	ldmdavc	pc, {r4, ip}^	; <UNPREDICTABLE>
    3cf0:	7d310500 	cfldr32vc	mvfx0, [r1, #-0]
    3cf4:	14000001 	strne	r0, [r0], #-1
    3cf8:	24040d00 	strcs	r0, [r4], #-3328	; 0xd00
    3cfc:	08000001 	stmdaeq	r0, {r0}
    3d00:	00000119 	andeq	r0, r0, r9, lsl r1
    3d04:	0000018d 	andeq	r0, r0, sp, lsl #3
    3d08:	0000c709 	andeq	ip, r0, r9, lsl #14
    3d0c:	0f000000 	svceq	0x00000000
    3d10:	00000780 	andeq	r0, r0, r0, lsl #15
    3d14:	06350524 	ldrteq	r0, [r5], -r4, lsr #10
    3d18:	0b000002 	bleq	3d28 <_start-0x42d8>
    3d1c:	00000638 	andeq	r0, r0, r8, lsr r6
    3d20:	00253705 	eoreq	r3, r5, r5, lsl #14
    3d24:	0b000000 	bleq	3d2c <_start-0x42d4>
    3d28:	0000093e 	andeq	r0, r0, lr, lsr r9
    3d2c:	00253805 	eoreq	r3, r5, r5, lsl #16
    3d30:	0b040000 	bleq	103d38 <__bss_end__+0xf9d70>
    3d34:	00000666 	andeq	r0, r0, r6, ror #12
    3d38:	00253905 	eoreq	r3, r5, r5, lsl #18
    3d3c:	0b080000 	bleq	203d44 <__bss_end__+0x1f9d7c>
    3d40:	00000b0f 	andeq	r0, r0, pc, lsl #22
    3d44:	00253a05 	eoreq	r3, r5, r5, lsl #20
    3d48:	0b0c0000 	bleq	303d50 <__bss_end__+0x2f9d88>
    3d4c:	0000083e 	andeq	r0, r0, lr, lsr r8
    3d50:	00253b05 	eoreq	r3, r5, r5, lsl #22
    3d54:	0b100000 	bleq	403d5c <__bss_end__+0x3f9d94>
    3d58:	00000813 	andeq	r0, r0, r3, lsl r8
    3d5c:	00253c05 	eoreq	r3, r5, r5, lsl #24
    3d60:	0b140000 	bleq	503d68 <__bss_end__+0x4f9da0>
    3d64:	00000a24 	andeq	r0, r0, r4, lsr #20
    3d68:	00253d05 	eoreq	r3, r5, r5, lsl #26
    3d6c:	0b180000 	bleq	603d74 <__bss_end__+0x5f9dac>
    3d70:	00000890 	muleq	r0, r0, r8
    3d74:	00253e05 	eoreq	r3, r5, r5, lsl #28
    3d78:	0b1c0000 	bleq	703d80 <__bss_end__+0x6f9db8>
    3d7c:	00000ad6 	ldrdeq	r0, [r0], -r6
    3d80:	00253f05 	eoreq	r3, r5, r5, lsl #30
    3d84:	00200000 	eoreq	r0, r0, r0
    3d88:	00067511 	andeq	r7, r6, r1, lsl r5
    3d8c:	05010800 	streq	r0, [r1, #-2048]	; 0x800
    3d90:	00024648 	andeq	r4, r2, r8, asr #12
    3d94:	07210b00 	streq	r0, [r1, -r0, lsl #22]!
    3d98:	49050000 	stmdbmi	r5, {}	; <UNPREDICTABLE>
    3d9c:	00000246 	andeq	r0, r0, r6, asr #4
    3da0:	05b90b00 	ldreq	r0, [r9, #2816]!	; 0xb00
    3da4:	4a050000 	bmi	143dac <__bss_end__+0x139de4>
    3da8:	00000246 	andeq	r0, r0, r6, asr #4
    3dac:	09ca1280 	stmibeq	sl, {r7, r9, ip}^
    3db0:	4c050000 	stcmi	0, cr0, [r5], {-0}
    3db4:	00000119 	andeq	r0, r0, r9, lsl r1
    3db8:	9a120100 	bls	4841c0 <__bss_end__+0x47a1f8>
    3dbc:	05000006 	streq	r0, [r0, #-6]
    3dc0:	0001194f 	andeq	r1, r1, pc, asr #18
    3dc4:	00010400 	andeq	r0, r1, r0, lsl #8
    3dc8:	00010508 	andeq	r0, r1, r8, lsl #10
    3dcc:	00025600 	andeq	r5, r2, r0, lsl #12
    3dd0:	00c70900 	sbceq	r0, r7, r0, lsl #18
    3dd4:	001f0000 	andseq	r0, pc, r0
    3dd8:	00084711 	andeq	r4, r8, r1, lsl r7
    3ddc:	05019000 	streq	r9, [r1, #-0]
    3de0:	0002945b 	andeq	r9, r2, fp, asr r4
    3de4:	08cf0b00 	stmiaeq	pc, {r8, r9, fp}^	; <UNPREDICTABLE>
    3de8:	5c050000 	stcpl	0, cr0, [r5], {-0}
    3dec:	00000294 	muleq	r0, r4, r2
    3df0:	08e70b00 	stmiaeq	r7!, {r8, r9, fp}^
    3df4:	5d050000 	stcpl	0, cr0, [r5, #-0]
    3df8:	00000025 	andeq	r0, r0, r5, lsr #32
    3dfc:	07350b04 	ldreq	r0, [r5, -r4, lsl #22]!
    3e00:	5f050000 	svcpl	0x00050000
    3e04:	0000029a 	muleq	r0, sl, r2
    3e08:	06750b08 	ldrbteq	r0, [r5], -r8, lsl #22
    3e0c:	60050000 	andvs	r0, r5, r0
    3e10:	00000206 	andeq	r0, r0, r6, lsl #4
    3e14:	040d0088 	streq	r0, [sp], #-136	; 0x88
    3e18:	00000256 	andeq	r0, r0, r6, asr r2
    3e1c:	0002aa08 	andeq	sl, r2, r8, lsl #20
    3e20:	0002aa00 	andeq	sl, r2, r0, lsl #20
    3e24:	00c70900 	sbceq	r0, r7, r0, lsl #18
    3e28:	001f0000 	andseq	r0, pc, r0
    3e2c:	02b0040d 	adcseq	r0, r0, #218103808	; 0xd000000
    3e30:	0f130000 	svceq	0x00130000
    3e34:	0000089a 	muleq	r0, sl, r8
    3e38:	d6730508 	ldrbtle	r0, [r3], -r8, lsl #10
    3e3c:	0b000002 	bleq	3e4c <_start-0x41b4>
    3e40:	0000065b 	andeq	r0, r0, fp, asr r6
    3e44:	02d67405 	sbcseq	r7, r6, #83886080	; 0x5000000
    3e48:	0b000000 	bleq	3e50 <_start-0x41b0>
    3e4c:	000001ce 	andeq	r0, r0, lr, asr #3
    3e50:	00257505 	eoreq	r7, r5, r5, lsl #10
    3e54:	00040000 	andeq	r0, r4, r0
    3e58:	004f040d 	subeq	r0, pc, sp, lsl #8
    3e5c:	b90f0000 	stmdblt	pc, {}	; <UNPREDICTABLE>
    3e60:	68000008 	stmdavs	r0, {r3}
    3e64:	0406b305 	streq	fp, [r6], #-773	; 0x305
    3e68:	5f100000 	svcpl	0x00100000
    3e6c:	b4050070 	strlt	r0, [r5], #-112	; 0x70
    3e70:	000002d6 	ldrdeq	r0, [r0], -r6
    3e74:	725f1000 	subsvc	r1, pc, #0
    3e78:	25b50500 	ldrcs	r0, [r5, #1280]!	; 0x500
    3e7c:	04000000 	streq	r0, [r0], #-0
    3e80:	00775f10 	rsbseq	r5, r7, r0, lsl pc
    3e84:	0025b605 	eoreq	fp, r5, r5, lsl #12
    3e88:	0b080000 	bleq	203e90 <__bss_end__+0x1f9ec8>
    3e8c:	00000693 	muleq	r0, r3, r6
    3e90:	003ab705 	eorseq	fp, sl, r5, lsl #14
    3e94:	0b0c0000 	bleq	303e9c <__bss_end__+0x2f9ed4>
    3e98:	000007a6 	andeq	r0, r0, r6, lsr #15
    3e9c:	003ab805 	eorseq	fp, sl, r5, lsl #16
    3ea0:	100e0000 	andne	r0, lr, r0
    3ea4:	0066625f 	rsbeq	r6, r6, pc, asr r2
    3ea8:	02b1b905 	adcseq	fp, r1, #81920	; 0x14000
    3eac:	0b100000 	bleq	403eb4 <__bss_end__+0x3f9eec>
    3eb0:	00000602 	andeq	r0, r0, r2, lsl #12
    3eb4:	0025ba05 	eoreq	fp, r5, r5, lsl #20
    3eb8:	0b180000 	bleq	603ec0 <__bss_end__+0x5f9ef8>
    3ebc:	00000683 	andeq	r0, r0, r3, lsl #13
    3ec0:	0105c105 	tsteq	r5, r5, lsl #2
    3ec4:	0b1c0000 	bleq	703ecc <__bss_end__+0x6f9f04>
    3ec8:	00000b36 	andeq	r0, r0, r6, lsr fp
    3ecc:	0561c305 	strbeq	ip, [r1, #-773]!	; 0x305
    3ed0:	0b200000 	bleq	803ed8 <__bss_end__+0x7f9f10>
    3ed4:	00000b50 	andeq	r0, r0, r0, asr fp
    3ed8:	058bc505 	streq	ip, [fp, #1285]	; 0x505
    3edc:	0b240000 	bleq	903ee4 <__bss_end__+0x8f9f1c>
    3ee0:	0000092b 	andeq	r0, r0, fp, lsr #18
    3ee4:	05afc805 	streq	ip, [pc, #2053]!	; 46f1 <_start-0x390f>
    3ee8:	0b280000 	bleq	a03ef0 <__bss_end__+0x9f9f28>
    3eec:	00000af0 	strdeq	r0, [r0], -r0	; <UNPREDICTABLE>
    3ef0:	05c9c905 	strbeq	ip, [r9, #2309]	; 0x905
    3ef4:	102c0000 	eorne	r0, ip, r0
    3ef8:	0062755f 	rsbeq	r7, r2, pc, asr r5
    3efc:	02b1cc05 	adcseq	ip, r1, #1280	; 0x500
    3f00:	10300000 	eorsne	r0, r0, r0
    3f04:	0070755f 	rsbseq	r7, r0, pc, asr r5
    3f08:	02d6cd05 	sbcseq	ip, r6, #320	; 0x140
    3f0c:	10380000 	eorsne	r0, r8, r0
    3f10:	0072755f 	rsbseq	r7, r2, pc, asr r5
    3f14:	0025ce05 	eoreq	ip, r5, r5, lsl #28
    3f18:	0b3c0000 	bleq	f03f20 <__bss_end__+0xef9f58>
    3f1c:	00000646 	andeq	r0, r0, r6, asr #12
    3f20:	05cfd105 	strbeq	sp, [pc, #261]	; 402d <_start-0x3fd3>
    3f24:	0b400000 	bleq	1003f2c <__bss_end__+0xff9f64>
    3f28:	00000a9b 	muleq	r0, fp, sl
    3f2c:	05dfd205 	ldrbeq	sp, [pc, #517]	; 4139 <_start-0x3ec7>
    3f30:	10430000 	subne	r0, r3, r0
    3f34:	00626c5f 	rsbeq	r6, r2, pc, asr ip
    3f38:	02b1d505 	adcseq	sp, r1, #20971520	; 0x1400000
    3f3c:	0b440000 	bleq	1103f44 <__bss_end__+0x10f9f7c>
    3f40:	000006a9 	andeq	r0, r0, r9, lsr #13
    3f44:	0025d805 	eoreq	sp, r5, r5, lsl #16
    3f48:	0b4c0000 	bleq	1303f50 <__bss_end__+0x12f9f88>
    3f4c:	0000081d 	andeq	r0, r0, sp, lsl r8
    3f50:	0076d905 	rsbseq	sp, r6, r5, lsl #18
    3f54:	0b500000 	bleq	1403f5c <__bss_end__+0x13f9f94>
    3f58:	00000a86 	andeq	r0, r0, r6, lsl #21
    3f5c:	0424dc05 	strteq	sp, [r4], #-3077	; 0xc05
    3f60:	0b540000 	bleq	1503f68 <__bss_end__+0x14f9fa0>
    3f64:	00000805 	andeq	r0, r0, r5, lsl #16
    3f68:	00fae005 	rscseq	lr, sl, r5
    3f6c:	0b580000 	bleq	1603f74 <__bss_end__+0x15f9fac>
    3f70:	000008c1 	andeq	r0, r0, r1, asr #17
    3f74:	00efe205 	rsceq	lr, pc, r5, lsl #4
    3f78:	0b5c0000 	bleq	1703f80 <__bss_end__+0x16f9fb8>
    3f7c:	0000080b 	andeq	r0, r0, fp, lsl #16
    3f80:	0025e305 	eoreq	lr, r5, r5, lsl #6
    3f84:	00640000 	rsbeq	r0, r4, r0
    3f88:	00002514 	andeq	r2, r0, r4, lsl r5
    3f8c:	00042400 	andeq	r2, r4, r0, lsl #8
    3f90:	04241500 	strteq	r1, [r4], #-1280	; 0x500
    3f94:	05150000 	ldreq	r0, [r5, #-0]
    3f98:	15000001 	strne	r0, [r0, #-1]
    3f9c:	00000107 	andeq	r0, r0, r7, lsl #2
    3fa0:	00002515 	andeq	r2, r0, r5, lsl r5
    3fa4:	040d0000 	streq	r0, [sp], #-0
    3fa8:	0000042f 	andeq	r0, r0, pc, lsr #8
    3fac:	0004240e 	andeq	r2, r4, lr, lsl #8
    3fb0:	090e1600 	stmdbeq	lr, {r9, sl, ip}
    3fb4:	04280000 	strteq	r0, [r8], #-0
    3fb8:	61023805 	tstvs	r2, r5, lsl #16
    3fbc:	17000005 	strne	r0, [r0, -r5]
    3fc0:	00000889 	andeq	r0, r0, r9, lsl #17
    3fc4:	25023a05 	strcs	r3, [r2, #-2565]	; 0xa05
    3fc8:	00000000 	andeq	r0, r0, r0
    3fcc:	0006a217 	andeq	sl, r6, r7, lsl r2
    3fd0:	023f0500 	eorseq	r0, pc, #0, 10
    3fd4:	00000636 	andeq	r0, r0, r6, lsr r6
    3fd8:	07961704 	ldreq	r1, [r6, r4, lsl #14]
    3fdc:	3f050000 	svccc	0x00050000
    3fe0:	00063602 	andeq	r3, r6, r2, lsl #12
    3fe4:	57170800 	ldrpl	r0, [r7, -r0, lsl #16]
    3fe8:	05000007 	streq	r0, [r0, #-7]
    3fec:	0636023f 			; <UNDEFINED> instruction: 0x0636023f
    3ff0:	170c0000 	strne	r0, [ip, -r0]
    3ff4:	000008e2 	andeq	r0, r0, r2, ror #17
    3ff8:	25024105 	strcs	r4, [r2, #-261]	; 0x105
    3ffc:	10000000 	andne	r0, r0, r0
    4000:	0005cd17 	andeq	ip, r5, r7, lsl sp
    4004:	02420500 	subeq	r0, r2, #0, 10
    4008:	00000818 	andeq	r0, r0, r8, lsl r8
    400c:	0a001714 	beq	9c64 <buf.4185+0xa0>
    4010:	44050000 	strmi	r0, [r5], #-0
    4014:	00002502 	andeq	r2, r0, r2, lsl #10
    4018:	ec173000 	ldc	0, cr3, [r7], {-0}
    401c:	05000008 	streq	r0, [r0, #-8]
    4020:	05850245 	streq	r0, [r5, #581]	; 0x245
    4024:	17340000 	ldrne	r0, [r4, -r0]!
    4028:	0000084f 	andeq	r0, r0, pc, asr #16
    402c:	25024705 	strcs	r4, [r2, #-1797]	; 0x705
    4030:	38000000 	stmdacc	r0, {}	; <UNPREDICTABLE>
    4034:	0008fc17 	andeq	pc, r8, r7, lsl ip	; <UNPREDICTABLE>
    4038:	02490500 	subeq	r0, r9, #0, 10
    403c:	00000833 	andeq	r0, r0, r3, lsr r8
    4040:	07e1173c 			; <UNDEFINED> instruction: 0x07e1173c
    4044:	4c050000 	stcmi	0, cr0, [r5], {-0}
    4048:	00017702 	andeq	r7, r1, r2, lsl #14
    404c:	76174000 	ldrvc	r4, [r7], -r0
    4050:	05000007 	streq	r0, [r0, #-7]
    4054:	0025024d 	eoreq	r0, r5, sp, asr #4
    4058:	17440000 	strbne	r0, [r4, -r0]
    405c:	00000b0a 	andeq	r0, r0, sl, lsl #22
    4060:	77024e05 	strvc	r4, [r2, -r5, lsl #28]
    4064:	48000001 	stmdami	r0, {r0}
    4068:	00086617 	andeq	r6, r8, r7, lsl r6
    406c:	024f0500 	subeq	r0, pc, #0, 10
    4070:	00000839 	andeq	r0, r0, r9, lsr r8
    4074:	079e174c 	ldreq	r1, [lr, ip, asr #14]
    4078:	52050000 	andpl	r0, r5, #0
    407c:	00002502 	andeq	r2, r0, r2, lsl #10
    4080:	c5175000 	ldrgt	r5, [r7, #-0]
    4084:	05000006 	streq	r0, [r0, #-6]
    4088:	01070253 	tsteq	r7, r3, asr r2
    408c:	17540000 	ldrbne	r0, [r4, -r0]
    4090:	00000882 	andeq	r0, r0, r2, lsl #17
    4094:	f6027605 			; <UNDEFINED> instruction: 0xf6027605
    4098:	58000007 	stmdapl	r0, {r0, r1, r2}
    409c:	00084718 	andeq	r4, r8, r8, lsl r7
    40a0:	027a0500 	rsbseq	r0, sl, #0, 10
    40a4:	00000294 	muleq	r0, r4, r2
    40a8:	b3180148 	tstlt	r8, #72, 2
    40ac:	05000007 	streq	r0, [r0, #-7]
    40b0:	0256027b 	subseq	r0, r6, #-1342177273	; 0xb0000007
    40b4:	014c0000 	mrseq	r0, (UNDEF: 76)
    40b8:	000a6c18 	andeq	r6, sl, r8, lsl ip
    40bc:	027f0500 	rsbseq	r0, pc, #0, 10
    40c0:	0000084a 	andeq	r0, r0, sl, asr #16
    40c4:	8b1802dc 	blhi	604c3c <__bss_end__+0x5fac74>
    40c8:	05000006 	streq	r0, [r0, #-6]
    40cc:	05fb0284 	ldrbeq	r0, [fp, #644]!	; 0x284
    40d0:	02e00000 	rsceq	r0, r0, #0
    40d4:	00067018 	andeq	r7, r6, r8, lsl r0
    40d8:	02850500 	addeq	r0, r5, #0, 10
    40dc:	00000856 	andeq	r0, r0, r6, asr r8
    40e0:	0d0002ec 	sfmeq	f0, 4, [r0, #-944]	; 0xfffffc50
    40e4:	00040604 	andeq	r0, r4, r4, lsl #12
    40e8:	00251400 	eoreq	r1, r5, r0, lsl #8
    40ec:	05850000 	streq	r0, [r5]
    40f0:	24150000 	ldrcs	r0, [r5], #-0
    40f4:	15000004 	strne	r0, [r0, #-4]
    40f8:	00000105 	andeq	r0, r0, r5, lsl #2
    40fc:	00058515 	andeq	r8, r5, r5, lsl r5
    4100:	00251500 	eoreq	r1, r5, r0, lsl #10
    4104:	0d000000 	stceq	0, cr0, [r0, #-0]
    4108:	00011404 	andeq	r1, r1, r4, lsl #8
    410c:	67040d00 	strvs	r0, [r4, -r0, lsl #26]
    4110:	14000005 	strne	r0, [r0], #-5
    4114:	00000081 	andeq	r0, r0, r1, lsl #1
    4118:	000005af 	andeq	r0, r0, pc, lsr #11
    411c:	00042415 	andeq	r2, r4, r5, lsl r4
    4120:	01051500 	tsteq	r5, r0, lsl #10
    4124:	81150000 	tsthi	r5, r0
    4128:	15000000 	strne	r0, [r0, #-0]
    412c:	00000025 	andeq	r0, r0, r5, lsr #32
    4130:	91040d00 	tstls	r4, r0, lsl #26
    4134:	14000005 	strne	r0, [r0], #-5
    4138:	00000025 	andeq	r0, r0, r5, lsr #32
    413c:	000005c9 	andeq	r0, r0, r9, asr #11
    4140:	00042415 	andeq	r2, r4, r5, lsl r4
    4144:	01051500 	tsteq	r5, r0, lsl #10
    4148:	0d000000 	stceq	0, cr0, [r0, #-0]
    414c:	0005b504 	andeq	fp, r5, r4, lsl #10
    4150:	004f0800 	subeq	r0, pc, r0, lsl #16
    4154:	05df0000 	ldrbeq	r0, [pc]	; 415c <_start-0x3ea4>
    4158:	c7090000 	strgt	r0, [r9, -r0]
    415c:	02000000 	andeq	r0, r0, #0
    4160:	004f0800 	subeq	r0, pc, r0, lsl #16
    4164:	05ef0000 	strbeq	r0, [pc, #0]!	; 416c <_start-0x3e94>
    4168:	c7090000 	strgt	r0, [r9, -r0]
    416c:	00000000 	andeq	r0, r0, r0
    4170:	08a70500 	stmiaeq	r7!, {r8, sl}
    4174:	1d050000 	stcne	0, cr0, [r5, #-0]
    4178:	0002dc01 	andeq	sp, r2, r1, lsl #24
    417c:	0a2e1900 	beq	b8a584 <__bss_end__+0xb805bc>
    4180:	050c0000 	streq	r0, [ip, #-0]
    4184:	06300121 	ldrteq	r0, [r0], -r1, lsr #2
    4188:	cf170000 	svcgt	0x00170000
    418c:	05000008 	streq	r0, [r0, #-8]
    4190:	06300123 	ldrteq	r0, [r0], -r3, lsr #2
    4194:	17000000 	strne	r0, [r0, -r0]
    4198:	000007ac 	andeq	r0, r0, ip, lsr #15
    419c:	25012405 	strcs	r2, [r1, #-1029]	; 0x405
    41a0:	04000000 	streq	r0, [r0], #-0
    41a4:	0008a117 	andeq	sl, r8, r7, lsl r1
    41a8:	01250500 	teqeq	r5, r0, lsl #10
    41ac:	00000636 	andeq	r0, r0, r6, lsr r6
    41b0:	040d0008 	streq	r0, [sp], #-8
    41b4:	000005fb 	strdeq	r0, [r0], -fp
    41b8:	05ef040d 	strbeq	r0, [pc, #1037]!	; 45cd <_start-0x3a33>
    41bc:	c5190000 	ldrgt	r0, [r9, #-0]
    41c0:	0e000005 	cdpeq	0, 0, cr0, cr0, cr5, {0}
    41c4:	71013d05 	tstvc	r1, r5, lsl #26
    41c8:	17000006 	strne	r0, [r0, -r6]
    41cc:	00000915 	andeq	r0, r0, r5, lsl r9
    41d0:	71013e05 	tstvc	r1, r5, lsl #28
    41d4:	00000006 	andeq	r0, r0, r6
    41d8:	00094f17 	andeq	r4, r9, r7, lsl pc
    41dc:	013f0500 	teqeq	pc, r0, lsl #10
    41e0:	00000671 	andeq	r0, r0, r1, ror r6
    41e4:	09d31706 	ldmibeq	r3, {r1, r2, r8, r9, sl, ip}^
    41e8:	40050000 	andmi	r0, r5, r0
    41ec:	00005601 	andeq	r5, r0, r1, lsl #12
    41f0:	08000c00 	stmdaeq	r0, {sl, fp}
    41f4:	00000056 	andeq	r0, r0, r6, asr r0
    41f8:	00000681 	andeq	r0, r0, r1, lsl #13
    41fc:	0000c709 	andeq	ip, r0, r9, lsl #14
    4200:	1a000200 	bne	4a08 <_start-0x35f8>
    4204:	025705d0 	subseq	r0, r7, #208, 10	; 0x34000000
    4208:	00000782 	andeq	r0, r0, r2, lsl #15
    420c:	000a1217 	andeq	r1, sl, r7, lsl r2
    4210:	02590500 	subseq	r0, r9, #0, 10
    4214:	0000002c 	andeq	r0, r0, ip, lsr #32
    4218:	09bd1700 	ldmibeq	sp!, {r8, r9, sl, ip}
    421c:	5a050000 	bpl	144224 <__bss_end__+0x13a25c>
    4220:	00010702 	andeq	r0, r1, r2, lsl #14
    4224:	c8170400 	ldmdagt	r7, {sl}
    4228:	05000007 	streq	r0, [r0, #-7]
    422c:	0782025b 			; <UNDEFINED> instruction: 0x0782025b
    4230:	17080000 	strne	r0, [r8, -r0]
    4234:	00000ae1 	andeq	r0, r0, r1, ror #21
    4238:	8d025c05 	stchi	12, cr5, [r2, #-20]	; 0xffffffec
    423c:	24000001 	strcs	r0, [r0], #-1
    4240:	00076717 	andeq	r6, r7, r7, lsl r7
    4244:	025d0500 	subseq	r0, sp, #0, 10
    4248:	00000025 	andeq	r0, r0, r5, lsr #32
    424c:	08ca1748 	stmiaeq	sl, {r3, r6, r8, r9, sl, ip}^
    4250:	5e050000 	cdppl	0, 0, cr0, cr5, cr0, {0}
    4254:	00006402 	andeq	r6, r0, r2, lsl #8
    4258:	f7175000 			; <UNDEFINED> instruction: 0xf7175000
    425c:	0500000a 	streq	r0, [r0, #-10]
    4260:	063c025f 			; <UNDEFINED> instruction: 0x063c025f
    4264:	17580000 	ldrbne	r0, [r8, -r0]
    4268:	000008d5 	ldrdeq	r0, [r0], -r5
    426c:	ef026005 	svc	0x00026005
    4270:	68000000 	stmdavs	r0, {}	; <UNPREDICTABLE>
    4274:	000afc17 	andeq	pc, sl, r7, lsl ip	; <UNPREDICTABLE>
    4278:	02610500 	rsbeq	r0, r1, #0, 10
    427c:	000000ef 	andeq	r0, r0, pc, ror #1
    4280:	062a1770 			; <UNDEFINED> instruction: 0x062a1770
    4284:	62050000 	andvs	r0, r5, #0
    4288:	0000ef02 	andeq	lr, r0, r2, lsl #30
    428c:	4e177800 	cdpmi	8, 1, cr7, cr7, cr0, {0}
    4290:	0500000a 	streq	r0, [r0, #-10]
    4294:	07920263 	ldreq	r0, [r2, r3, ror #4]
    4298:	17800000 	strne	r0, [r0, r0]
    429c:	000007bc 			; <UNDEFINED> instruction: 0x000007bc
    42a0:	a2026405 	andge	r6, r2, #83886080	; 0x5000000
    42a4:	88000007 	stmdahi	r0, {r0, r1, r2}
    42a8:	0009e017 	andeq	lr, r9, r7, lsl r0
    42ac:	02650500 	rsbeq	r0, r5, #0, 10
    42b0:	00000025 	andeq	r0, r0, r5, lsr #32
    42b4:	071317a0 	ldreq	r1, [r3, -r0, lsr #15]
    42b8:	66050000 	strvs	r0, [r5], -r0
    42bc:	0000ef02 	andeq	lr, r0, r2, lsl #30
    42c0:	1b17a400 	blne	5ed2c8 <__bss_end__+0x5e3300>
    42c4:	05000006 	streq	r0, [r0, #-6]
    42c8:	00ef0267 	rsceq	r0, pc, r7, ror #4
    42cc:	17ac0000 	strne	r0, [ip, r0]!
    42d0:	00000702 	andeq	r0, r0, r2, lsl #14
    42d4:	ef026805 	svc	0x00026805
    42d8:	b4000000 	strlt	r0, [r0], #-0
    42dc:	0005e217 	andeq	lr, r5, r7, lsl r2
    42e0:	02690500 	rsbeq	r0, r9, #0, 10
    42e4:	000000ef 	andeq	r0, r0, pc, ror #1
    42e8:	05f117bc 	ldrbeq	r1, [r1, #1980]!	; 0x7bc
    42ec:	6a050000 	bvs	1442f4 <__bss_end__+0x13a32c>
    42f0:	0000ef02 	andeq	lr, r0, r2, lsl #30
    42f4:	8717c400 	ldrhi	ip, [r7, -r0, lsl #8]
    42f8:	05000008 	streq	r0, [r0, #-8]
    42fc:	0025026b 	eoreq	r0, r5, fp, ror #4
    4300:	00cc0000 	sbceq	r0, ip, r0
    4304:	00010d08 	andeq	r0, r1, r8, lsl #26
    4308:	00079200 	andeq	r9, r7, r0, lsl #4
    430c:	00c70900 	sbceq	r0, r7, r0, lsl #18
    4310:	00190000 	andseq	r0, r9, r0
    4314:	00010d08 	andeq	r0, r1, r8, lsl #26
    4318:	0007a200 	andeq	sl, r7, r0, lsl #4
    431c:	00c70900 	sbceq	r0, r7, r0, lsl #18
    4320:	00070000 	andeq	r0, r7, r0
    4324:	00010d08 	andeq	r0, r1, r8, lsl #26
    4328:	0007b200 	andeq	fp, r7, r0, lsl #4
    432c:	00c70900 	sbceq	r0, r7, r0, lsl #18
    4330:	00170000 	andseq	r0, r7, r0
    4334:	7005f01a 	andvc	pc, r5, sl, lsl r0	; <UNPREDICTABLE>
    4338:	0007d602 	andeq	sp, r7, r2, lsl #12
    433c:	08371700 	ldmdaeq	r7!, {r8, r9, sl, ip}
    4340:	73050000 	movwvc	r0, #20480	; 0x5000
    4344:	0007d602 	andeq	sp, r7, r2, lsl #12
    4348:	45170000 	ldrmi	r0, [r7, #-0]
    434c:	0500000a 	streq	r0, [r0, #-10]
    4350:	07e60274 			; <UNDEFINED> instruction: 0x07e60274
    4354:	00780000 	rsbseq	r0, r8, r0
    4358:	0002d608 	andeq	sp, r2, r8, lsl #12
    435c:	0007e600 	andeq	lr, r7, r0, lsl #12
    4360:	00c70900 	sbceq	r0, r7, r0, lsl #18
    4364:	001d0000 	andseq	r0, sp, r0
    4368:	00002c08 	andeq	r2, r0, r8, lsl #24
    436c:	0007f600 	andeq	pc, r7, r0, lsl #12
    4370:	00c70900 	sbceq	r0, r7, r0, lsl #18
    4374:	001d0000 	andseq	r0, sp, r0
    4378:	5505f01b 	strpl	pc, [r5, #-27]
    437c:	00081802 	andeq	r1, r8, r2, lsl #16
    4380:	090e1c00 	stmdbeq	lr, {sl, fp, ip}
    4384:	6c050000 	stcvs	0, cr0, [r5], {-0}
    4388:	00068102 	andeq	r8, r6, r2, lsl #2
    438c:	0aa11c00 	beq	fe84b394 <__bss_end__+0xfe8413cc>
    4390:	75050000 	strvc	r0, [r5, #-0]
    4394:	0007b202 	andeq	fp, r7, r2, lsl #4
    4398:	0d080000 	stceq	0, cr0, [r8, #-0]
    439c:	28000001 	stmdacs	r0, {r0}
    43a0:	09000008 	stmdbeq	r0, {r3}
    43a4:	000000c7 	andeq	r0, r0, r7, asr #1
    43a8:	331d0018 	tstcc	sp, #24
    43ac:	15000008 	strne	r0, [r0, #-8]
    43b0:	00000424 	andeq	r0, r0, r4, lsr #8
    43b4:	28040d00 	stmdacs	r4, {r8, sl, fp}
    43b8:	0d000008 	stceq	0, cr0, [r0, #-32]	; 0xffffffe0
    43bc:	00017704 	andeq	r7, r1, r4, lsl #14
    43c0:	084a1d00 	stmdaeq	sl, {r8, sl, fp, ip}^
    43c4:	25150000 	ldrcs	r0, [r5, #-0]
    43c8:	00000000 	andeq	r0, r0, r0
    43cc:	0850040d 	ldmdaeq	r0, {r0, r2, r3, sl}^
    43d0:	040d0000 	streq	r0, [sp], #-0
    43d4:	0000083f 	andeq	r0, r0, pc, lsr r8
    43d8:	0005ef08 	andeq	lr, r5, r8, lsl #30
    43dc:	00086600 	andeq	r6, r8, r0, lsl #12
    43e0:	00c70900 	sbceq	r0, r7, r0, lsl #18
    43e4:	00020000 	andeq	r0, r2, r0
    43e8:	0009f41e 	andeq	pc, r9, lr, lsl r4	; <UNPREDICTABLE>
    43ec:	02fd0500 	rscseq	r0, sp, #0, 10
    43f0:	00000424 	andeq	r0, r0, r4, lsr #8
    43f4:	0009ed1e 	andeq	lr, r9, lr, lsl sp
    43f8:	02fe0500 	rscseq	r0, lr, #0, 10
    43fc:	0000042a 	andeq	r0, r0, sl, lsr #8
    4400:	00002514 	andeq	r2, r0, r4, lsl r5
    4404:	00088d00 	andeq	r8, r8, r0, lsl #26
    4408:	00251500 	eoreq	r1, r5, r0, lsl #10
    440c:	1f000000 	svcne	0x00000000
    4410:	000003e3 	andeq	r0, r0, r3, ror #7
    4414:	08981d06 	ldmeq	r8, {r1, r2, r8, sl, fp, ip}
    4418:	040d0000 	streq	r0, [sp], #-0
    441c:	0000087e 	andeq	r0, r0, lr, ror r8
    4420:	00002514 	andeq	r2, r0, r4, lsl r5
    4424:	0008ad00 	andeq	sl, r8, r0, lsl #26
    4428:	05851500 	streq	r1, [r5, #1280]	; 0x500
    442c:	1f000000 	svcne	0x00000000
    4430:	00000420 	andeq	r0, r0, r0, lsr #8
    4434:	08b82206 	ldmeq	r8!, {r1, r2, r9, sp}
    4438:	040d0000 	streq	r0, [sp], #-0
    443c:	0000089e 	muleq	r0, lr, r8
    4440:	c3040803 	movwgt	r0, #18435	; 0x4803
    4444:	1f00000b 	svcne	0x0000000b
    4448:	00000bfb 	strdeq	r0, [r0], -fp
    444c:	010d0d01 	tsteq	sp, r1, lsl #26
    4450:	98200000 	stmdals	r0!, {}	; <UNPREDICTABLE>
    4454:	01000002 	tsteq	r0, r2
    4458:	0001070e 	andeq	r0, r1, lr, lsl #14
    445c:	1c030500 	cfstr32ne	mvfx0, [r3], {-0}
    4460:	20000095 	mulcs	r0, r5, r0
    4464:	00000c12 	andeq	r0, r0, r2, lsl ip
    4468:	01070f01 	tsteq	r7, r1, lsl #30
    446c:	03050000 	movweq	r0, #20480	; 0x5000
    4470:	00009520 	andeq	r9, r0, r0, lsr #10
    4474:	000bd421 	andeq	sp, fp, r1, lsr #8
    4478:	ec380100 	ldfs	f0, [r8], #-0
    447c:	10000094 	mulne	r0, r4, r0
    4480:	01000000 	mrseq	r0, (UNDEF: 0)
    4484:	0009139c 	muleq	r9, ip, r3
    4488:	00702200 	rsbseq	r2, r0, r0, lsl #4
    448c:	01053801 	tsteq	r5, r1, lsl #16
    4490:	50010000 	andpl	r0, r1, r0
    4494:	0bca2300 	bleq	ff28d09c <__bss_end__+0xff2830d4>
    4498:	37010000 	strcc	r0, [r1, -r0]
    449c:	000094d8 	ldrdeq	r9, [r0], -r8
    44a0:	00000014 	andeq	r0, r0, r4, lsl r0
    44a4:	70219c01 	eorvc	r9, r1, r1, lsl #24
    44a8:	01000001 	tsteq	r0, r1
    44ac:	0094d436 	addseq	sp, r4, r6, lsr r4
    44b0:	00000400 	andeq	r0, r0, r0, lsl #8
    44b4:	459c0100 	ldrmi	r0, [ip, #256]	; 0x100
    44b8:	22000009 	andcs	r0, r0, #9
    44bc:	36010070 			; <UNDEFINED> instruction: 0x36010070
    44c0:	00000105 	andeq	r0, r0, r5, lsl #2
    44c4:	24005001 	strcs	r5, [r0], #-1
    44c8:	00000bb3 			; <UNDEFINED> instruction: 0x00000bb3
    44cc:	01052901 	tsteq	r5, r1, lsl #18
    44d0:	94480000 	strbls	r0, [r8], #-0
    44d4:	008c0000 	addeq	r0, ip, r0
    44d8:	9c010000 	stcls	0, cr0, [r1], {-0}
    44dc:	00000a30 	andeq	r0, r0, r0, lsr sl
    44e0:	0002ee25 	andeq	lr, r2, r5, lsr #28
    44e4:	2c290100 	stfcss	f0, [r9], #-0
    44e8:	f5000000 			; <UNDEFINED> instruction: 0xf5000000
    44ec:	25000012 	strcs	r0, [r0, #-18]
    44f0:	00000bf1 	strdeq	r0, [r0], -r1
    44f4:	002c2901 	eoreq	r2, ip, r1, lsl #18
    44f8:	13480000 	movtne	r0, #32768	; 0x8000
    44fc:	1f260000 	svcne	0x00260000
    4500:	40000001 	andmi	r0, r0, r1
    4504:	0500000a 	streq	r0, [r0, #-10]
    4508:	009ab803 	addseq	fp, sl, r3, lsl #16
    450c:	00682700 	rsbeq	r2, r8, r0, lsl #14
    4510:	002c2e01 	eoreq	r2, ip, r1, lsl #28
    4514:	138f0000 	orrne	r0, pc, #0
    4518:	84280000 	strthi	r0, [r8], #-0
    451c:	79000094 	stmdbvc	r0, {r2, r4, r7}
    4520:	ad00000a 	stcge	0, cr0, [r0, #-40]	; 0xffffffd8
    4524:	29000009 	stmdbcs	r0, {r0, r3}
    4528:	f3035001 	vhadd.u8	d5, d3, d1
    452c:	2a005001 	bcs	18538 <__bss_end__+0xe570>
    4530:	0000948c 	andeq	r9, r0, ip, lsl #9
    4534:	00000bfb 	strdeq	r0, [r0], -fp
    4538:	0094a028 	addseq	sl, r4, r8, lsr #32
    453c:	000c0600 	andeq	r0, ip, r0, lsl #12
    4540:	0009e500 	andeq	lr, r9, r0, lsl #10
    4544:	50012900 	andpl	r2, r1, r0, lsl #18
    4548:	9b040305 	blls	105164 <__bss_end__+0xfb19c>
    454c:	01290000 	teqeq	r9, r0
    4550:	c8030551 	stmdagt	r3, {r0, r4, r6, r8, sl}
    4554:	2900009a 	stmdbcs	r0, {r1, r3, r4, r7}
    4558:	03055201 	movweq	r5, #20993	; 0x5201
    455c:	00009ab8 			; <UNDEFINED> instruction: 0x00009ab8
    4560:	02530129 	subseq	r0, r3, #1073741834	; 0x4000000a
    4564:	2a002a08 	bcs	ed8c <__bss_end__+0x4dc4>
    4568:	000094a4 	andeq	r9, r0, r4, lsr #9
    456c:	00000c11 	andeq	r0, r0, r1, lsl ip
    4570:	0094a82a 	addseq	sl, r4, sl, lsr #16
    4574:	000bfb00 	andeq	pc, fp, r0, lsl #22
    4578:	94bc2800 	ldrtls	r2, [ip], #2048	; 0x800
    457c:	0c060000 	stceq	0, cr0, [r6], {-0}
    4580:	0a260000 	beq	984588 <__bss_end__+0x97a5c0>
    4584:	01290000 	teqeq	r9, r0
    4588:	64030550 	strvs	r0, [r3], #-1360	; 0x550
    458c:	2900009b 	stmdbcs	r0, {r0, r1, r3, r4, r7}
    4590:	03055101 	movweq	r5, #20737	; 0x5101
    4594:	00009ac8 	andeq	r9, r0, r8, asr #21
    4598:	05520129 	ldrbeq	r0, [r2, #-297]	; 0x129
    459c:	009ab803 	addseq	fp, sl, r3, lsl #16
    45a0:	53012900 	movwpl	r2, #6400	; 0x1900
    45a4:	00300802 	eorseq	r0, r0, r2, lsl #16
    45a8:	0094c02a 	addseq	ip, r4, sl, lsr #32
    45ac:	000c1100 	andeq	r1, ip, r0, lsl #2
    45b0:	14080000 	strne	r0, [r8], #-0
    45b4:	40000001 	andmi	r0, r0, r1
    45b8:	0900000a 	stmdbeq	r0, {r1, r3}
    45bc:	000000c7 	andeq	r0, r0, r7, asr #1
    45c0:	300e000f 	andcc	r0, lr, pc
    45c4:	2400000a 	strcs	r0, [r0], #-10
    45c8:	00000be0 	andeq	r0, r0, r0, ror #23
    45cc:	01052501 	tsteq	r5, r1, lsl #10
    45d0:	943c0000 	ldrtls	r0, [ip], #-0
    45d4:	000c0000 	andeq	r0, ip, r0
    45d8:	9c010000 	stcls	0, cr0, [r1], {-0}
    45dc:	00000a68 	andeq	r0, r0, r8, ror #20
    45e0:	0094442a 	addseq	r4, r4, sl, lsr #8
    45e4:	000bd100 	andeq	sp, fp, r0, lsl #2
    45e8:	a6230000 	strtge	r0, [r3], -r0
    45ec:	0100000b 	tsteq	r0, fp
    45f0:	00943824 	addseq	r3, r4, r4, lsr #16
    45f4:	00000400 	andeq	r0, r0, r0, lsl #8
    45f8:	249c0100 	ldrcs	r0, [ip], #256	; 0x100
    45fc:	00000110 	andeq	r0, r0, r0, lsl r1
    4600:	01051a01 	tsteq	r5, r1, lsl #20
    4604:	93d40000 	bicsls	r0, r4, #0
    4608:	00640000 	rsbeq	r0, r4, r0
    460c:	9c010000 	stcls	0, cr0, [r1], {-0}
    4610:	00000b24 	andeq	r0, r0, r4, lsr #22
    4614:	007a732b 	rsbseq	r7, sl, fp, lsr #6
    4618:	002c1a01 	eoreq	r1, ip, r1, lsl #20
    461c:	13c70000 	bicne	r0, r7, #0
    4620:	1f260000 	svcne	0x00260000
    4624:	34000001 	strcc	r0, [r0], #-1
    4628:	0500000b 	streq	r0, [r0, #-11]
    462c:	009ab003 	addseq	fp, sl, r3
    4630:	01ba2c00 			; <UNDEFINED> instruction: 0x01ba2c00
    4634:	1e010000 	cdpne	0, 0, cr0, cr1, cr0, {0}
    4638:	00000105 	andeq	r0, r0, r5, lsl #2
    463c:	00001411 	andeq	r1, r0, r1, lsl r4
    4640:	00940428 	addseq	r0, r4, r8, lsr #8
    4644:	000c1c00 	andeq	r1, ip, r0, lsl #24
    4648:	000ae300 	andeq	lr, sl, r0, lsl #6
    464c:	50012900 	andpl	r2, r1, r0, lsl #18
    4650:	29007402 	stmdbcs	r0, {r1, sl, ip, sp, lr}
    4654:	30015101 	andcc	r5, r1, r1, lsl #2
    4658:	08520129 	ldmdaeq	r2, {r0, r3, r5, r8}^
    465c:	235001f3 	cmpcs	r0, #-1073741764	; 0xc000003c
    4660:	1af80907 	bne	ffe06a84 <__bss_end__+0xffdfcabc>
    4664:	94102a00 	ldrls	r2, [r0], #-2560	; 0xa00
    4668:	0bfb0000 	bleq	ffec4670 <__bss_end__+0xffeba6a8>
    466c:	24280000 	strtcs	r0, [r8], #-0
    4670:	06000094 			; <UNDEFINED> instruction: 0x06000094
    4674:	1a00000c 	bne	46ac <_start-0x3954>
    4678:	2900000b 	stmdbcs	r0, {r0, r1, r3}
    467c:	03055001 	movweq	r5, #20481	; 0x5001
    4680:	00009af0 	strdeq	r9, [r0], -r0
    4684:	05510129 	ldrbeq	r0, [r1, #-297]	; 0x129
    4688:	009ac803 	addseq	ip, sl, r3, lsl #16
    468c:	52012900 	andpl	r2, r1, #0, 18
    4690:	9ab00305 	bls	fec052ac <__bss_end__+0xfebfb2e4>
    4694:	01290000 	teqeq	r9, r0
    4698:	004b0153 	subeq	r0, fp, r3, asr r1
    469c:	0094282a 	addseq	r2, r4, sl, lsr #16
    46a0:	000c1100 	andeq	r1, ip, r0, lsl #2
    46a4:	14080000 	strne	r0, [r8], #-0
    46a8:	34000001 	strcc	r0, [r0], #-1
    46ac:	0900000b 	stmdbeq	r0, {r0, r1, r3}
    46b0:	000000c7 	andeq	r0, r0, r7, asr #1
    46b4:	240e0007 	strcs	r0, [lr], #-7
    46b8:	2100000b 	tstcs	r0, fp
    46bc:	00000185 	andeq	r0, r0, r5, lsl #3
    46c0:	93841401 	orrls	r1, r4, #16777216	; 0x1000000
    46c4:	00500000 	subseq	r0, r0, r0
    46c8:	9c010000 	stcls	0, cr0, [r1], {-0}
    46cc:	00000bbc 			; <UNDEFINED> instruction: 0x00000bbc
    46d0:	0001b925 	andeq	fp, r1, r5, lsr #18
    46d4:	2c140100 	ldfcss	f0, [r4], {-0}
    46d8:	24000000 	strcs	r0, [r0], #-0
    46dc:	2c000014 	stccs	0, cr0, [r0], {20}
    46e0:	000001ba 			; <UNDEFINED> instruction: 0x000001ba
    46e4:	01071501 	tsteq	r7, r1, lsl #10
    46e8:	14450000 	strbne	r0, [r5], #-0
    46ec:	1f260000 	svcne	0x00260000
    46f0:	cc000001 	stcgt	0, cr0, [r0], {1}
    46f4:	0500000b 	streq	r0, [r0, #-11]
    46f8:	009a9803 	addseq	r9, sl, r3, lsl #16
    46fc:	93ac2a00 			; <UNDEFINED> instruction: 0x93ac2a00
    4700:	0bfb0000 	bleq	ffec4708 <__bss_end__+0xffeba740>
    4704:	c0280000 	eorgt	r0, r8, r0
    4708:	06000093 			; <UNDEFINED> instruction: 0x06000093
    470c:	b200000c 	andlt	r0, r0, #12
    4710:	2900000b 	stmdbcs	r0, {r0, r1, r3}
    4714:	03055001 	movweq	r5, #20481	; 0x5001
    4718:	00009ad4 	ldrdeq	r9, [r0], -r4
    471c:	05510129 	ldrbeq	r0, [r1, #-297]	; 0x129
    4720:	009ac803 	addseq	ip, sl, r3, lsl #16
    4724:	52012900 	andpl	r2, r1, #0, 18
    4728:	9a980305 	bls	fe605344 <__bss_end__+0xfe5fb37c>
    472c:	01290000 	teqeq	r9, r0
    4730:	00460153 	subeq	r0, r6, r3, asr r1
    4734:	0093c42a 	addseq	ip, r3, sl, lsr #8
    4738:	000c1100 	andeq	r1, ip, r0, lsl #2
    473c:	14080000 	strne	r0, [r8], #-0
    4740:	cc000001 	stcgt	0, cr0, [r0], {1}
    4744:	0900000b 	stmdbeq	r0, {r0, r1, r3}
    4748:	000000c7 	andeq	r0, r0, r7, asr #1
    474c:	bc0e0016 	stclt	0, cr0, [lr], {22}
    4750:	2d00000b 	stccs	0, cr0, [r0, #-44]	; 0xffffffd4
    4754:	00000c0a 	andeq	r0, r0, sl, lsl #24
    4758:	01051201 	tsteq	r5, r1, lsl #4
    475c:	93780000 	cmnls	r8, #0
    4760:	000c0000 	andeq	r0, ip, r0
    4764:	9c010000 	stcls	0, cr0, [r1], {-0}
    4768:	000c1d2d 	andeq	r1, ip, sp, lsr #26
    476c:	05110100 	ldreq	r0, [r1, #-256]	; 0x100
    4770:	68000001 	stmdavs	r0, {r0}
    4774:	10000093 	mulne	r0, r3, r0
    4778:	01000000 	mrseq	r0, (UNDEF: 0)
    477c:	019c2e9c 			; <UNDEFINED> instruction: 0x019c2e9c
    4780:	019c0000 	orrseq	r0, ip, r0
    4784:	1e060000 	cdpne	0, 0, cr0, cr6, cr0, {0}
    4788:	0003b22e 	andeq	fp, r3, lr, lsr #4
    478c:	0003b200 	andeq	fp, r3, r0, lsl #4
    4790:	2e290600 	cfmadda32cs	mvax0, mvax0, mvfx9, mvfx0
    4794:	0000014b 	andeq	r0, r0, fp, asr #2
    4798:	0000014b 	andeq	r0, r0, fp, asr #2
    479c:	182e6506 	stmdane	lr!, {r1, r2, r8, sl, sp, lr}
    47a0:	18000001 	stmdane	r0, {r0}
    47a4:	07000001 	streq	r0, [r0, -r1]
    47a8:	Address 0x00000000000047a8 is out of bounds.


Disassembly of section .debug_abbrev:

00000000 <.debug_abbrev>:
       0:	25011101 	strcs	r1, [r1, #-257]	; 0x101
       4:	030b130e 	movweq	r1, #45838	; 0xb30e
       8:	110e1b0e 	tstne	lr, lr, lsl #22
       c:	10061201 	andne	r1, r6, r1, lsl #4
      10:	02000017 	andeq	r0, r0, #23
      14:	0b0b0024 	bleq	2c00ac <__bss_end__+0x2b60e4>
      18:	08030b3e 	stmdaeq	r3, {r1, r2, r3, r4, r5, r8, r9, fp}
      1c:	16030000 	strne	r0, [r3], -r0
      20:	3a0e0300 	bcc	380c28 <__bss_end__+0x376c60>
      24:	490b3b0b 	stmdbmi	fp, {r0, r1, r3, r8, r9, fp, ip, sp}
      28:	04000013 	streq	r0, [r0], #-19
      2c:	0b0b0024 	bleq	2c00c4 <__bss_end__+0x2b60fc>
      30:	0e030b3e 	vmoveq.16	d3[0], r0
      34:	0f050000 	svceq	0x00050000
      38:	000b0b00 	andeq	r0, fp, r0, lsl #22
      3c:	000f0600 	andeq	r0, pc, r0, lsl #12
      40:	13490b0b 	movtne	r0, #39691	; 0x9b0b
      44:	26070000 	strcs	r0, [r7], -r0
      48:	00134900 	andseq	r4, r3, r0, lsl #18
      4c:	01010800 	tsteq	r1, r0, lsl #16
      50:	13011349 	movwne	r1, #4937	; 0x1349
      54:	21090000 	mrscs	r0, (UNDEF: 9)
      58:	2f134900 	svccs	0x00134900
      5c:	0a00000b 	beq	90 <_start-0x7f70>
      60:	193f012e 	ldmdbne	pc!, {r1, r2, r3, r5, r8}	; <UNPREDICTABLE>
      64:	0b3a0e03 	bleq	e83878 <__bss_end__+0xe798b0>
      68:	19270b3b 	stmdbne	r7!, {r0, r1, r3, r4, r5, r8, r9, fp}
      6c:	06120111 			; <UNDEFINED> instruction: 0x06120111
      70:	42971840 	addsmi	r1, r7, #64, 16	; 0x400000
      74:	00130119 	andseq	r0, r3, r9, lsl r1
      78:	00340b00 	eorseq	r0, r4, r0, lsl #22
      7c:	0b3a0803 	bleq	e82090 <__bss_end__+0xe780c8>
      80:	13490b3b 	movtne	r0, #39739	; 0x9b3b
      84:	0000061c 	andeq	r0, r0, ip, lsl r6
      88:	0300340c 	movweq	r3, #1036	; 0x40c
      8c:	3b0b3a08 	blcc	2ce8b4 <__bss_end__+0x2c48ec>
      90:	0213490b 	andseq	r4, r3, #180224	; 0x2c000
      94:	0d000017 	stceq	0, cr0, [r0, #-92]	; 0xffffffa4
      98:	0e030034 	mcreq	0, 0, r0, cr3, cr4, {1}
      9c:	19341349 	ldmdbne	r4!, {r0, r3, r6, r8, r9, ip}
      a0:	00001802 	andeq	r1, r0, r2, lsl #16
      a4:	0300340e 	movweq	r3, #1038	; 0x40e
      a8:	3b0b3a0e 	blcc	2ce8e8 <__bss_end__+0x2c4920>
      ac:	0213490b 	andseq	r4, r3, #180224	; 0x2c000
      b0:	0f000017 	svceq	0x00000017
      b4:	01018289 	smlabbeq	r1, r9, r2, r8
      b8:	13310111 	teqne	r1, #1073741828	; 0x40000004
      bc:	00001301 	andeq	r1, r0, r1, lsl #6
      c0:	01828a10 	orreq	r8, r2, r0, lsl sl
      c4:	91180200 	tstls	r8, r0, lsl #4
      c8:	00001842 	andeq	r1, r0, r2, asr #16
      cc:	01828911 	orreq	r8, r2, r1, lsl r9
      d0:	31011100 	mrscc	r1, (UNDEF: 17)
      d4:	12000013 	andne	r0, r0, #19
      d8:	01018289 	smlabbeq	r1, r9, r2, r8
      dc:	13310111 	teqne	r1, #1073741828	; 0x40000004
      e0:	2e130000 	cdpcs	0, 1, cr0, cr3, cr0, {0}
      e4:	03193f01 	tsteq	r9, #1, 30
      e8:	3b0b3a0e 	blcc	2ce928 <__bss_end__+0x2c4960>
      ec:	4919270b 	ldmdbmi	r9, {r0, r1, r3, r8, r9, sl, sp}
      f0:	01193c13 	tsteq	r9, r3, lsl ip
      f4:	14000013 	strne	r0, [r0], #-19
      f8:	13490005 	movtne	r0, #36869	; 0x9005
      fc:	18150000 	ldmdane	r5, {}	; <UNPREDICTABLE>
     100:	16000000 	strne	r0, [r0], -r0
     104:	193f012e 	ldmdbne	pc!, {r1, r2, r3, r5, r8}	; <UNPREDICTABLE>
     108:	0b3a0e03 	bleq	e8391c <__bss_end__+0xe79954>
     10c:	19270b3b 	stmdbne	r7!, {r0, r1, r3, r4, r5, r8, r9, fp}
     110:	1301193c 	movwne	r1, #6460	; 0x193c
     114:	2e170000 	cdpcs	0, 1, cr0, cr7, cr0, {0}
     118:	03193f00 	tsteq	r9, #0, 30
     11c:	3b0b3a0e 	blcc	2ce95c <__bss_end__+0x2c4994>
     120:	4919270b 	ldmdbmi	r9, {r0, r1, r3, r8, r9, sl, sp}
     124:	00193c13 	andseq	r3, r9, r3, lsl ip
     128:	002e1800 	eoreq	r1, lr, r0, lsl #16
     12c:	0e03193f 	mcreq	9, 0, r1, cr3, cr15, {1}
     130:	0b3b0b3a 	bleq	ec2e20 <__bss_end__+0xeb8e58>
     134:	193c1927 	ldmdbne	ip!, {r0, r1, r2, r5, r8, fp, ip}
     138:	01000000 	mrseq	r0, (UNDEF: 0)
     13c:	0e250111 	mcreq	1, 1, r0, cr5, cr1, {0}
     140:	0e030b13 	vmoveq.32	d3[0], r0
     144:	01110e1b 	tsteq	r1, fp, lsl lr
     148:	17100612 			; <UNDEFINED> instruction: 0x17100612
     14c:	24020000 	strcs	r0, [r2], #-0
     150:	3e0b0b00 	vmlacc.f64	d0, d11, d0
     154:	0008030b 	andeq	r0, r8, fp, lsl #6
     158:	00160300 	andseq	r0, r6, r0, lsl #6
     15c:	0b3a0e03 	bleq	e83970 <__bss_end__+0xe799a8>
     160:	13490b3b 	movtne	r0, #39739	; 0x9b3b
     164:	24040000 	strcs	r0, [r4], #-0
     168:	3e0b0b00 	vmlacc.f64	d0, d11, d0
     16c:	000e030b 	andeq	r0, lr, fp, lsl #6
     170:	000f0500 	andeq	r0, pc, r0, lsl #10
     174:	00000b0b 	andeq	r0, r0, fp, lsl #22
     178:	0b000f06 	bleq	3d98 <_start-0x4268>
     17c:	0013490b 	andseq	r4, r3, fp, lsl #18
     180:	00260700 	eoreq	r0, r6, r0, lsl #14
     184:	00001349 	andeq	r1, r0, r9, asr #6
     188:	49010108 	stmdbmi	r1, {r3, r8}
     18c:	00130113 	andseq	r0, r3, r3, lsl r1
     190:	00210900 	eoreq	r0, r1, r0, lsl #18
     194:	0b2f1349 	bleq	bc4ec0 <__bss_end__+0xbbaef8>
     198:	040a0000 	streq	r0, [sl], #-0
     19c:	3a0b0b01 	bcc	2c2da8 <__bss_end__+0x2b8de0>
     1a0:	010b3b0b 	tsteq	fp, fp, lsl #22
     1a4:	0b000013 	bleq	1f8 <_start-0x7e08>
     1a8:	0e030028 	cdpeq	0, 0, cr0, cr3, cr8, {1}
     1ac:	00000d1c 	andeq	r0, r0, ip, lsl sp
     1b0:	0b01130c 	bleq	44de8 <__bss_end__+0x3ae20>
     1b4:	3b0b3a0b 	blcc	2ce9e8 <__bss_end__+0x2c4a20>
     1b8:	0013010b 	andseq	r0, r3, fp, lsl #2
     1bc:	000d0d00 	andeq	r0, sp, r0, lsl #26
     1c0:	0b3a0e03 	bleq	e839d4 <__bss_end__+0xe79a0c>
     1c4:	13490b3b 	movtne	r0, #39739	; 0x9b3b
     1c8:	00000b38 	andeq	r0, r0, r8, lsr fp
     1cc:	0301130e 	movweq	r1, #4878	; 0x130e
     1d0:	3a0b0b0e 	bcc	2c2e10 <__bss_end__+0x2b8e48>
     1d4:	010b3b0b 	tsteq	fp, fp, lsl #22
     1d8:	0f000013 	svceq	0x00000013
     1dc:	0e03012e 	adfeqsp	f0, f3, #0.5
     1e0:	0b3b0b3a 	bleq	ec2ed0 <__bss_end__+0xeb8f08>
     1e4:	13491927 	movtne	r1, #39207	; 0x9927
     1e8:	06120111 			; <UNDEFINED> instruction: 0x06120111
     1ec:	42971840 	addsmi	r1, r7, #64, 16	; 0x400000
     1f0:	00130119 	andseq	r0, r3, r9, lsl r1
     1f4:	00051000 	andeq	r1, r5, r0
     1f8:	0b3a0803 	bleq	e8220c <__bss_end__+0xe78244>
     1fc:	13490b3b 	movtne	r0, #39739	; 0x9b3b
     200:	00001702 	andeq	r1, r0, r2, lsl #14
     204:	01828911 	orreq	r8, r2, r1, lsl r9
     208:	31011101 	tstcc	r1, r1, lsl #2
     20c:	12000013 	andne	r0, r0, #19
     210:	0001828a 	andeq	r8, r1, sl, lsl #5
     214:	42911802 	addsmi	r1, r1, #131072	; 0x20000
     218:	13000018 	movwne	r0, #24
     21c:	0e030005 	cdpeq	0, 0, cr0, cr3, cr5, {0}
     220:	0b3b0b3a 	bleq	ec2f10 <__bss_end__+0xeb8f48>
     224:	17021349 	strne	r1, [r2, -r9, asr #6]
     228:	2e140000 	cdpcs	0, 1, cr0, cr4, cr0, {0}
     22c:	3a0e0301 	bcc	380e38 <__bss_end__+0x376e70>
     230:	270b3b0b 	strcs	r3, [fp, -fp, lsl #22]
     234:	010b2019 	tsteq	fp, r9, lsl r0
     238:	15000013 	strne	r0, [r0, #-19]
     23c:	08030005 	stmdaeq	r3, {r0, r2}
     240:	0b3b0b3a 	bleq	ec2f30 <__bss_end__+0xeb8f68>
     244:	00001349 	andeq	r1, r0, r9, asr #6
     248:	03003416 	movweq	r3, #1046	; 0x416
     24c:	3b0b3a08 	blcc	2cea74 <__bss_end__+0x2c4aac>
     250:	0013490b 	andseq	r4, r3, fp, lsl #18
     254:	00341700 	eorseq	r1, r4, r0, lsl #14
     258:	0b3a0803 	bleq	e8226c <__bss_end__+0xe782a4>
     25c:	13490b3b 	movtne	r0, #39739	; 0x9b3b
     260:	00001702 	andeq	r1, r0, r2, lsl #14
     264:	55010b18 	strpl	r0, [r1, #-2840]	; 0xb18
     268:	19000017 	stmdbne	r0, {r0, r1, r2, r4}
     26c:	0e030034 	mcreq	0, 0, r0, cr3, cr4, {1}
     270:	0b3b0b3a 	bleq	ec2f60 <__bss_end__+0xeb8f98>
     274:	17021349 	strne	r1, [r2, -r9, asr #6]
     278:	1d1a0000 	ldcne	0, cr0, [sl, #-0]
     27c:	11133101 	tstne	r3, r1, lsl #2
     280:	58061201 	stmdapl	r6, {r0, r9, ip}
     284:	010b590b 	tsteq	fp, fp, lsl #18
     288:	1b000013 	blne	2dc <_start-0x7d24>
     28c:	13310005 	teqne	r1, #5
     290:	00001702 	andeq	r1, r0, r2, lsl #14
     294:	11010b1c 	tstne	r1, ip, lsl fp
     298:	00061201 	andeq	r1, r6, r1, lsl #4
     29c:	00341d00 	eorseq	r1, r4, r0, lsl #26
     2a0:	17021331 	smladxne	r2, r1, r3, r1
     2a4:	891e0000 	ldmdbhi	lr, {}	; <UNPREDICTABLE>
     2a8:	11010182 	smlabbne	r1, r2, r1, r0
     2ac:	01133101 	tsteq	r3, r1, lsl #2
     2b0:	1f000013 	svcne	0x00000013
     2b4:	0e03012e 	adfeqsp	f0, f3, #0.5
     2b8:	0b3b0b3a 	bleq	ec2fa8 <__bss_end__+0xeb8fe0>
     2bc:	01111927 	tsteq	r1, r7, lsr #18
     2c0:	18400612 	stmdane	r0, {r1, r4, r9, sl}^
     2c4:	01194297 			; <UNDEFINED> instruction: 0x01194297
     2c8:	20000013 	andcs	r0, r0, r3, lsl r0
     2cc:	08030034 	stmdaeq	r3, {r2, r4, r5}
     2d0:	0b3b0b3a 	bleq	ec2fc0 <__bss_end__+0xeb8ff8>
     2d4:	18021349 	stmdane	r2, {r0, r3, r6, r8, r9, ip}
     2d8:	34210000 	strtcc	r0, [r1], #-0
     2dc:	3a0e0300 	bcc	380ee4 <__bss_end__+0x376f1c>
     2e0:	490b3b0b 	stmdbmi	fp, {r0, r1, r3, r8, r9, fp, ip, sp}
     2e4:	00180213 	andseq	r0, r8, r3, lsl r2
     2e8:	00342200 	eorseq	r2, r4, r0, lsl #4
     2ec:	13490e03 	movtne	r0, #40451	; 0x9e03
     2f0:	18021934 	stmdane	r2, {r2, r4, r5, r8, fp, ip}
     2f4:	89230000 	stmdbhi	r3!, {}	; <UNPREDICTABLE>
     2f8:	11000182 	smlabbne	r0, r2, r1, r0
     2fc:	00133101 	andseq	r3, r3, r1, lsl #2
     300:	012e2400 	teqeq	lr, r0, lsl #8
     304:	0e03193f 	mcreq	9, 0, r1, cr3, cr15, {1}
     308:	0b3b0b3a 	bleq	ec2ff8 <__bss_end__+0xeb9030>
     30c:	01111927 	tsteq	r1, r7, lsr #18
     310:	18400612 	stmdane	r0, {r1, r4, r9, sl}^
     314:	01194297 			; <UNDEFINED> instruction: 0x01194297
     318:	25000013 	strcs	r0, [r0, #-19]
     31c:	193f012e 	ldmdbne	pc!, {r1, r2, r3, r5, r8}	; <UNPREDICTABLE>
     320:	0b3a0e03 	bleq	e83b34 <__bss_end__+0xe79b6c>
     324:	19270b3b 	stmdbne	r7!, {r0, r1, r3, r4, r5, r8, r9, fp}
     328:	01111349 	tsteq	r1, r9, asr #6
     32c:	18400612 	stmdane	r0, {r1, r4, r9, sl}^
     330:	01194297 			; <UNDEFINED> instruction: 0x01194297
     334:	26000013 			; <UNDEFINED> instruction: 0x26000013
     338:	1755010b 	ldrbne	r0, [r5, -fp, lsl #2]
     33c:	00001301 	andeq	r1, r0, r1, lsl #6
     340:	3f012e27 	svccc	0x00012e27
     344:	3a0e0319 	bcc	380fb0 <__bss_end__+0x376fe8>
     348:	270b3b0b 	strcs	r3, [fp, -fp, lsl #22]
     34c:	3c134919 	ldccc	9, cr4, [r3], {25}
     350:	00130119 	andseq	r0, r3, r9, lsl r1
     354:	00052800 	andeq	r2, r5, r0, lsl #16
     358:	00001349 	andeq	r1, r0, r9, asr #6
     35c:	00001829 	andeq	r1, r0, r9, lsr #16
     360:	00262a00 	eoreq	r2, r6, r0, lsl #20
     364:	2e2b0000 	cdpcs	0, 2, cr0, cr11, cr0, {0}
     368:	03193f00 	tsteq	r9, #0, 30
     36c:	3b0b3a0e 	blcc	2cebac <__bss_end__+0x2c4be4>
     370:	3c19270b 	ldccc	7, cr2, [r9], {11}
     374:	00000019 	andeq	r0, r0, r9, lsl r0
     378:	25011101 	strcs	r1, [r1, #-257]	; 0x101
     37c:	030b130e 	movweq	r1, #45838	; 0xb30e
     380:	110e1b0e 	tstne	lr, lr, lsl #22
     384:	10061201 	andne	r1, r6, r1, lsl #4
     388:	02000017 	andeq	r0, r0, #23
     38c:	0b0b0024 	bleq	2c0424 <__bss_end__+0x2b645c>
     390:	08030b3e 	stmdaeq	r3, {r1, r2, r3, r4, r5, r8, r9, fp}
     394:	24030000 	strcs	r0, [r3], #-0
     398:	3e0b0b00 	vmlacc.f64	d0, d11, d0
     39c:	000e030b 	andeq	r0, lr, fp, lsl #6
     3a0:	00160400 	andseq	r0, r6, r0, lsl #8
     3a4:	0b3a0e03 	bleq	e83bb8 <__bss_end__+0xe79bf0>
     3a8:	13490b3b 	movtne	r0, #39739	; 0x9b3b
     3ac:	0f050000 	svceq	0x00050000
     3b0:	490b0b00 	stmdbmi	fp, {r8, r9, fp}
     3b4:	06000013 			; <UNDEFINED> instruction: 0x06000013
     3b8:	13490026 	movtne	r0, #36902	; 0x9026
     3bc:	2e070000 	cdpcs	0, 0, cr0, cr7, cr0, {0}
     3c0:	03193f01 	tsteq	r9, #1, 30
     3c4:	3b0b3a0e 	blcc	2cec04 <__bss_end__+0x2c4c3c>
     3c8:	4919270b 	ldmdbmi	r9, {r0, r1, r3, r8, r9, sl, sp}
     3cc:	12011113 	andne	r1, r1, #-1073741820	; 0xc0000004
     3d0:	97184006 	ldrls	r4, [r8, -r6]
     3d4:	13011942 	movwne	r1, #6466	; 0x1942
     3d8:	05080000 	streq	r0, [r8, #-0]
     3dc:	3a0e0300 	bcc	380fe4 <__bss_end__+0x37701c>
     3e0:	490b3b0b 	stmdbmi	fp, {r0, r1, r3, r8, r9, fp, ip, sp}
     3e4:	00170213 	andseq	r0, r7, r3, lsl r2
     3e8:	00050900 	andeq	r0, r5, r0, lsl #18
     3ec:	0b3a0803 	bleq	e82400 <__bss_end__+0xe78438>
     3f0:	13490b3b 	movtne	r0, #39739	; 0x9b3b
     3f4:	00001702 	andeq	r1, r0, r2, lsl #14
     3f8:	0300340a 	movweq	r3, #1034	; 0x40a
     3fc:	3b0b3a0e 	blcc	2cec3c <__bss_end__+0x2c4c74>
     400:	0213490b 	andseq	r4, r3, #180224	; 0x2c000
     404:	0b000017 	bleq	468 <_start-0x7b98>
     408:	08030034 	stmdaeq	r3, {r2, r4, r5}
     40c:	0b3b0b3a 	bleq	ec30fc <__bss_end__+0xeb9134>
     410:	17021349 	strne	r1, [r2, -r9, asr #6]
     414:	260c0000 	strcs	r0, [ip], -r0
     418:	00000000 	andeq	r0, r0, r0
     41c:	25011101 	strcs	r1, [r1, #-257]	; 0x101
     420:	030b130e 	movweq	r1, #45838	; 0xb30e
     424:	110e1b0e 	tstne	lr, lr, lsl #22
     428:	10061201 	andne	r1, r6, r1, lsl #4
     42c:	02000017 	andeq	r0, r0, #23
     430:	0b0b0024 	bleq	2c04c8 <__bss_end__+0x2b6500>
     434:	0e030b3e 	vmoveq.16	d3[0], r0
     438:	24030000 	strcs	r0, [r3], #-0
     43c:	3e0b0b00 	vmlacc.f64	d0, d11, d0
     440:	0008030b 	andeq	r0, r8, fp, lsl #6
     444:	000f0400 	andeq	r0, pc, r0, lsl #8
     448:	00000b0b 	andeq	r0, r0, fp, lsl #22
     44c:	0b000f05 	bleq	4068 <_start-0x3f98>
     450:	0013490b 	andseq	r4, r3, fp, lsl #18
     454:	00160600 	andseq	r0, r6, r0, lsl #12
     458:	0b3a0e03 	bleq	e83c6c <__bss_end__+0xe79ca4>
     45c:	13490b3b 	movtne	r0, #39739	; 0x9b3b
     460:	2e070000 	cdpcs	0, 0, cr0, cr7, cr0, {0}
     464:	03193f01 	tsteq	r9, #1, 30
     468:	3b0b3a0e 	blcc	2ceca8 <__bss_end__+0x2c4ce0>
     46c:	4919270b 	ldmdbmi	r9, {r0, r1, r3, r8, r9, sl, sp}
     470:	12011113 	andne	r1, r1, #-1073741820	; 0xc0000004
     474:	97184006 	ldrls	r4, [r8, -r6]
     478:	00001942 	andeq	r1, r0, r2, asr #18
     47c:	03000508 	movweq	r0, #1288	; 0x508
     480:	3b0b3a08 	blcc	2ceca8 <__bss_end__+0x2c4ce0>
     484:	0213490b 	andseq	r4, r3, #180224	; 0x2c000
     488:	09000018 	stmdbeq	r0, {r3, r4}
     48c:	08030005 	stmdaeq	r3, {r0, r2}
     490:	0b3b0b3a 	bleq	ec3180 <__bss_end__+0xeb91b8>
     494:	17021349 	strne	r1, [r2, -r9, asr #6]
     498:	340a0000 	strcc	r0, [sl], #-0
     49c:	3a080300 	bcc	2010a4 <__bss_end__+0x1f70dc>
     4a0:	490b3b0b 	stmdbmi	fp, {r0, r1, r3, r8, r9, fp, ip, sp}
     4a4:	00170213 	andseq	r0, r7, r3, lsl r2
     4a8:	00340b00 	eorseq	r0, r4, r0, lsl #22
     4ac:	0b3a0803 	bleq	e824c0 <__bss_end__+0xe784f8>
     4b0:	13490b3b 	movtne	r0, #39739	; 0x9b3b
     4b4:	00001802 	andeq	r1, r0, r2, lsl #16
     4b8:	01110100 	tsteq	r1, r0, lsl #2
     4bc:	0b130e25 	bleq	4c3d58 <__bss_end__+0x4b9d90>
     4c0:	0e1b0e03 	cdpeq	14, 1, cr0, cr11, cr3, {0}
     4c4:	06120111 			; <UNDEFINED> instruction: 0x06120111
     4c8:	00001710 	andeq	r1, r0, r0, lsl r7
     4cc:	03001602 	movweq	r1, #1538	; 0x602
     4d0:	3b0b3a0e 	blcc	2ced10 <__bss_end__+0x2c4d48>
     4d4:	0013490b 	andseq	r4, r3, fp, lsl #18
     4d8:	01130300 	tsteq	r3, r0, lsl #6
     4dc:	0b0b0e03 	bleq	2c3cf0 <__bss_end__+0x2b9d28>
     4e0:	0b3b0b3a 	bleq	ec31d0 <__bss_end__+0xeb9208>
     4e4:	00001301 	andeq	r1, r0, r1, lsl #6
     4e8:	03000d04 	movweq	r0, #3332	; 0xd04
     4ec:	3813490e 	ldmdacc	r3, {r1, r2, r3, r8, fp, lr}
     4f0:	0019340b 	andseq	r3, r9, fp, lsl #8
     4f4:	000f0500 	andeq	r0, pc, r0, lsl #10
     4f8:	00000b0b 	andeq	r0, r0, fp, lsl #22
     4fc:	0b002406 	bleq	951c <heap>
     500:	030b3e0b 	movweq	r3, #48651	; 0xbe0b
     504:	07000008 	streq	r0, [r0, -r8]
     508:	0b0b0024 	bleq	2c05a0 <__bss_end__+0x2b65d8>
     50c:	0e030b3e 	vmoveq.16	d3[0], r0
     510:	0f080000 	svceq	0x00080000
     514:	490b0b00 	stmdbmi	fp, {r8, r9, fp}
     518:	09000013 	stmdbeq	r0, {r0, r1, r4}
     51c:	13490026 	movtne	r0, #36902	; 0x9026
     520:	2e0a0000 	cdpcs	0, 0, cr0, cr10, cr0, {0}
     524:	03193f01 	tsteq	r9, #1, 30
     528:	3b0b3a0e 	blcc	2ced68 <__bss_end__+0x2c4da0>
     52c:	4919270b 	ldmdbmi	r9, {r0, r1, r3, r8, r9, sl, sp}
     530:	12011113 	andne	r1, r1, #-1073741820	; 0xc0000004
     534:	97184006 	ldrls	r4, [r8, -r6]
     538:	13011942 	movwne	r1, #6466	; 0x1942
     53c:	050b0000 	streq	r0, [fp, #-0]
     540:	3a080300 	bcc	201148 <__bss_end__+0x1f7180>
     544:	490b3b0b 	stmdbmi	fp, {r0, r1, r3, r8, r9, fp, ip, sp}
     548:	00180213 	andseq	r0, r8, r3, lsl r2
     54c:	00180c00 	andseq	r0, r8, r0, lsl #24
     550:	340d0000 	strcc	r0, [sp], #-0
     554:	3a080300 	bcc	20115c <__bss_end__+0x1f7194>
     558:	490b3b0b 	stmdbmi	fp, {r0, r1, r3, r8, r9, fp, ip, sp}
     55c:	00180213 	andseq	r0, r8, r3, lsl r2
     560:	00340e00 	eorseq	r0, r4, r0, lsl #28
     564:	0b3a0e03 	bleq	e83d78 <__bss_end__+0xe79db0>
     568:	13490b3b 	movtne	r0, #39739	; 0x9b3b
     56c:	00001802 	andeq	r1, r0, r2, lsl #16
     570:	0300340f 	movweq	r3, #1039	; 0x40f
     574:	3b0b3a08 	blcc	2ced9c <__bss_end__+0x2c4dd4>
     578:	0213490b 	andseq	r4, r3, #180224	; 0x2c000
     57c:	10000017 	andne	r0, r0, r7, lsl r0
     580:	01018289 	smlabbeq	r1, r9, r2, r8
     584:	13310111 	teqne	r1, #1073741828	; 0x40000004
     588:	00001301 	andeq	r1, r0, r1, lsl #6
     58c:	01828a11 	orreq	r8, r2, r1, lsl sl
     590:	91180200 	tstls	r8, r0, lsl #4
     594:	00001842 	andeq	r1, r0, r2, asr #16
     598:	01828912 	orreq	r8, r2, r2, lsl r9
     59c:	00011101 	andeq	r1, r1, r1, lsl #2
     5a0:	01011300 	mrseq	r1, SP_irq
     5a4:	13011349 	movwne	r1, #4937	; 0x1349
     5a8:	21140000 	tstcs	r4, r0
     5ac:	2f134900 	svccs	0x00134900
     5b0:	15000005 	strne	r0, [r0, #-5]
     5b4:	19270115 	stmdbne	r7!, {r0, r2, r4, r8}
     5b8:	13011349 	movwne	r1, #4937	; 0x1349
     5bc:	05160000 	ldreq	r0, [r6, #-0]
     5c0:	00134900 	andseq	r4, r3, r0, lsl #18
     5c4:	00341700 	eorseq	r1, r4, r0, lsl #14
     5c8:	0b3a0e03 	bleq	e83ddc <__bss_end__+0xe79e14>
     5cc:	13490b3b 	movtne	r0, #39739	; 0x9b3b
     5d0:	193c193f 	ldmdbne	ip!, {r0, r1, r2, r3, r4, r5, r8, fp, ip}
     5d4:	2e180000 	cdpcs	0, 1, cr0, cr8, cr0, {0}
     5d8:	03193f01 	tsteq	r9, #1, 30
     5dc:	3b0b3a0e 	blcc	2cee1c <__bss_end__+0x2c4e54>
     5e0:	4919270b 	ldmdbmi	r9, {r0, r1, r3, r8, r9, sl, sp}
     5e4:	00193c13 	andseq	r3, r9, r3, lsl ip
     5e8:	11010000 	mrsne	r0, (UNDEF: 1)
     5ec:	130e2501 	movwne	r2, #58625	; 0xe501
     5f0:	1b0e030b 	blne	381224 <__bss_end__+0x37725c>
     5f4:	1201110e 	andne	r1, r1, #-2147483645	; 0x80000003
     5f8:	00171006 	andseq	r1, r7, r6
     5fc:	00240200 	eoreq	r0, r4, r0, lsl #4
     600:	0b3e0b0b 	bleq	f83234 <__bss_end__+0xf7926c>
     604:	00000803 	andeq	r0, r0, r3, lsl #16
     608:	0b002403 	bleq	961c <__FUNCTION__.4287+0x48>
     60c:	030b3e0b 	movweq	r3, #48651	; 0xbe0b
     610:	0400000e 	streq	r0, [r0], #-14
     614:	0e03012e 	adfeqsp	f0, f3, #0.5
     618:	0b3b0b3a 	bleq	ec3308 <__bss_end__+0xeb9340>
     61c:	13491927 	movtne	r1, #39207	; 0x9927
     620:	06120111 			; <UNDEFINED> instruction: 0x06120111
     624:	42971840 	addsmi	r1, r7, #64, 16	; 0x400000
     628:	00130119 	andseq	r0, r3, r9, lsl r1
     62c:	00050500 	andeq	r0, r5, r0, lsl #10
     630:	0b3a0803 	bleq	e82644 <__bss_end__+0xe7867c>
     634:	13490b3b 	movtne	r0, #39739	; 0x9b3b
     638:	00001702 	andeq	r1, r0, r2, lsl #14
     63c:	01828906 	orreq	r8, r2, r6, lsl #18
     640:	31011101 	tstcc	r1, r1, lsl #2
     644:	07000013 	smladeq	r0, r3, r0, r0
     648:	0001828a 	andeq	r8, r1, sl, lsl #5
     64c:	42911802 	addsmi	r1, r1, #131072	; 0x20000
     650:	08000018 	stmdaeq	r0, {r3, r4}
     654:	193f002e 	ldmdbne	pc!, {r1, r2, r3, r5}	; <UNPREDICTABLE>
     658:	0b3a0e03 	bleq	e83e6c <__bss_end__+0xe79ea4>
     65c:	19270b3b 	stmdbne	r7!, {r0, r1, r3, r4, r5, r8, r9, fp}
     660:	06120111 			; <UNDEFINED> instruction: 0x06120111
     664:	42971840 	addsmi	r1, r7, #64, 16	; 0x400000
     668:	09000019 	stmdbeq	r0, {r0, r3, r4}
     66c:	193f012e 	ldmdbne	pc!, {r1, r2, r3, r5, r8}	; <UNPREDICTABLE>
     670:	0b3a0e03 	bleq	e83e84 <__bss_end__+0xe79ebc>
     674:	19270b3b 	stmdbne	r7!, {r0, r1, r3, r4, r5, r8, r9, fp}
     678:	06120111 			; <UNDEFINED> instruction: 0x06120111
     67c:	42971840 	addsmi	r1, r7, #64, 16	; 0x400000
     680:	00130119 	andseq	r0, r3, r9, lsl r1
     684:	00050a00 	andeq	r0, r5, r0, lsl #20
     688:	0b3a0803 	bleq	e8269c <__bss_end__+0xe786d4>
     68c:	13490b3b 	movtne	r0, #39739	; 0x9b3b
     690:	00001802 	andeq	r1, r0, r2, lsl #16
     694:	2701150b 	strcs	r1, [r1, -fp, lsl #10]
     698:	01134919 	tsteq	r3, r9, lsl r9
     69c:	0c000013 	stceq	0, cr0, [r0], {19}
     6a0:	13490005 	movtne	r0, #36869	; 0x9005
     6a4:	0f0d0000 	svceq	0x000d0000
     6a8:	490b0b00 	stmdbmi	fp, {r8, r9, fp}
     6ac:	0e000013 	mcreq	0, 0, r0, cr0, cr3, {0}
     6b0:	0e030034 	mcreq	0, 0, r0, cr3, cr4, {1}
     6b4:	0b3b0b3a 	bleq	ec33a4 <__bss_end__+0xeb93dc>
     6b8:	193f1349 	ldmdbne	pc!, {r0, r3, r6, r8, r9, ip}	; <UNPREDICTABLE>
     6bc:	00001802 	andeq	r1, r0, r2, lsl #16
     6c0:	3f012e0f 	svccc	0x00012e0f
     6c4:	3a0e0319 	bcc	381330 <__bss_end__+0x377368>
     6c8:	270b3b0b 	strcs	r3, [fp, -fp, lsl #22]
     6cc:	00193c19 	andseq	r3, r9, r9, lsl ip
     6d0:	11010000 	mrsne	r0, (UNDEF: 1)
     6d4:	130e2501 	movwne	r2, #58625	; 0xe501
     6d8:	1b0e030b 	blne	38130c <__bss_end__+0x377344>
     6dc:	1201110e 	andne	r1, r1, #-2147483645	; 0x80000003
     6e0:	00171006 	andseq	r1, r7, r6
     6e4:	00240200 	eoreq	r0, r4, r0, lsl #4
     6e8:	0b3e0b0b 	bleq	f8331c <__bss_end__+0xf79354>
     6ec:	00000803 	andeq	r0, r0, r3, lsl #16
     6f0:	0b002403 	bleq	9704 <__FUNCTION__.4287+0x130>
     6f4:	030b3e0b 	movweq	r3, #48651	; 0xbe0b
     6f8:	0400000e 	streq	r0, [r0], #-14
     6fc:	0b0b000f 	bleq	2c0740 <__bss_end__+0x2b6778>
     700:	00001349 	andeq	r1, r0, r9, asr #6
     704:	49002605 	stmdbmi	r0, {r0, r2, r9, sl, sp}
     708:	06000013 			; <UNDEFINED> instruction: 0x06000013
     70c:	193f012e 	ldmdbne	pc!, {r1, r2, r3, r5, r8}	; <UNPREDICTABLE>
     710:	0b3a0e03 	bleq	e83f24 <__bss_end__+0xe79f5c>
     714:	19270b3b 	stmdbne	r7!, {r0, r1, r3, r4, r5, r8, r9, fp}
     718:	01111349 	tsteq	r1, r9, asr #6
     71c:	18400612 	stmdane	r0, {r1, r4, r9, sl}^
     720:	01194296 			; <UNDEFINED> instruction: 0x01194296
     724:	07000013 	smladeq	r0, r3, r0, r0
     728:	08030005 	stmdaeq	r3, {r0, r2}
     72c:	0b3b0b3a 	bleq	ec341c <__bss_end__+0xeb9454>
     730:	17021349 	strne	r1, [r2, -r9, asr #6]
     734:	15080000 	strne	r0, [r8, #-0]
     738:	49192701 	ldmdbmi	r9, {r0, r8, r9, sl, sp}
     73c:	00130113 	andseq	r0, r3, r3, lsl r1
     740:	00050900 	andeq	r0, r5, r0, lsl #18
     744:	00001349 	andeq	r1, r0, r9, asr #6
     748:	0300340a 	movweq	r3, #1034	; 0x40a
     74c:	3b0b3a0e 	blcc	2cef8c <__bss_end__+0x2c4fc4>
     750:	3f13490b 	svccc	0x0013490b
     754:	00193c19 	andseq	r3, r9, r9, lsl ip
     758:	00340b00 	eorseq	r0, r4, r0, lsl #22
     75c:	0b3a0e03 	bleq	e83f70 <__bss_end__+0xe79fa8>
     760:	13490b3b 	movtne	r0, #39739	; 0x9b3b
     764:	1802193f 	stmdane	r2, {r0, r1, r2, r3, r4, r5, r8, fp, ip}
     768:	01000000 	mrseq	r0, (UNDEF: 0)
     76c:	0e250111 	mcreq	1, 1, r0, cr5, cr1, {0}
     770:	0e030b13 	vmoveq.32	d3[0], r0
     774:	01110e1b 	tsteq	r1, fp, lsl lr
     778:	17100612 			; <UNDEFINED> instruction: 0x17100612
     77c:	24020000 	strcs	r0, [r2], #-0
     780:	3e0b0b00 	vmlacc.f64	d0, d11, d0
     784:	0008030b 	andeq	r0, r8, fp, lsl #6
     788:	00240300 	eoreq	r0, r4, r0, lsl #6
     78c:	0b3e0b0b 	bleq	f833c0 <__bss_end__+0xf793f8>
     790:	00000e03 	andeq	r0, r0, r3, lsl #28
     794:	0b000f04 	bleq	43ac <_start-0x3c54>
     798:	0500000b 	streq	r0, [r0, #-11]
     79c:	0b0b000f 	bleq	2c07e0 <__bss_end__+0x2b6818>
     7a0:	00001349 	andeq	r1, r0, r9, asr #6
     7a4:	49002606 	stmdbmi	r0, {r1, r2, r9, sl, sp}
     7a8:	07000013 	smladeq	r0, r3, r0, r0
     7ac:	0e030016 	mcreq	0, 0, r0, cr3, cr6, {0}
     7b0:	0b3b0b3a 	bleq	ec34a0 <__bss_end__+0xeb94d8>
     7b4:	00001349 	andeq	r1, r0, r9, asr #6
     7b8:	03011308 	movweq	r1, #4872	; 0x1308
     7bc:	3a0b0b0e 	bcc	2c33fc <__bss_end__+0x2b9434>
     7c0:	010b3b0b 	tsteq	fp, fp, lsl #22
     7c4:	09000013 	stmdbeq	r0, {r0, r1, r4}
     7c8:	0e03000d 	cdpeq	0, 0, cr0, cr3, cr13, {0}
     7cc:	0b381349 	bleq	e054f8 <__bss_end__+0xdfb530>
     7d0:	00001934 	andeq	r1, r0, r4, lsr r9
     7d4:	03012e0a 	movweq	r2, #7690	; 0x1e0a
     7d8:	3b0b3a0e 	blcc	2cf018 <__bss_end__+0x2c5050>
     7dc:	4919270b 	ldmdbmi	r9, {r0, r1, r3, r8, r9, sl, sp}
     7e0:	12011113 	andne	r1, r1, #-1073741820	; 0xc0000004
     7e4:	97184006 	ldrls	r4, [r8, -r6]
     7e8:	13011942 	movwne	r1, #6466	; 0x1942
     7ec:	050b0000 	streq	r0, [fp, #-0]
     7f0:	3a080300 	bcc	2013f8 <__bss_end__+0x1f7430>
     7f4:	490b3b0b 	stmdbmi	fp, {r0, r1, r3, r8, r9, fp, ip, sp}
     7f8:	00170213 	andseq	r0, r7, r3, lsl r2
     7fc:	012e0c00 	teqeq	lr, r0, lsl #24
     800:	0b3a0803 	bleq	e82814 <__bss_end__+0xe7884c>
     804:	19270b3b 	stmdbne	r7!, {r0, r1, r3, r4, r5, r8, r9, fp}
     808:	01111349 	tsteq	r1, r9, asr #6
     80c:	18400612 	stmdane	r0, {r1, r4, r9, sl}^
     810:	01194297 			; <UNDEFINED> instruction: 0x01194297
     814:	0d000013 	stceq	0, cr0, [r0, #-76]	; 0xffffffb4
     818:	0e030005 	cdpeq	0, 0, cr0, cr3, cr5, {0}
     81c:	0b3b0b3a 	bleq	ec350c <__bss_end__+0xeb9544>
     820:	17021349 	strne	r1, [r2, -r9, asr #6]
     824:	050e0000 	streq	r0, [lr, #-0]
     828:	3a0e0300 	bcc	381430 <__bss_end__+0x377468>
     82c:	490b3b0b 	stmdbmi	fp, {r0, r1, r3, r8, r9, fp, ip, sp}
     830:	00180213 	andseq	r0, r8, r3, lsl r2
     834:	00340f00 	eorseq	r0, r4, r0, lsl #30
     838:	0b3a0803 	bleq	e8284c <__bss_end__+0xe78884>
     83c:	13490b3b 	movtne	r0, #39739	; 0x9b3b
     840:	00001802 	andeq	r1, r0, r2, lsl #16
     844:	03003410 	movweq	r3, #1040	; 0x410
     848:	3b0b3a08 	blcc	2cf070 <__bss_end__+0x2c50a8>
     84c:	0213490b 	andseq	r4, r3, #180224	; 0x2c000
     850:	11000017 	tstne	r0, r7, lsl r0
     854:	0e030034 	mcreq	0, 0, r0, cr3, cr4, {1}
     858:	19341349 	ldmdbne	r4!, {r0, r3, r6, r8, r9, ip}
     85c:	00001802 	andeq	r1, r0, r2, lsl #16
     860:	11010b12 	tstne	r1, r2, lsl fp
     864:	01061201 	tsteq	r6, r1, lsl #4
     868:	13000013 	movwne	r0, #19
     86c:	0e030034 	mcreq	0, 0, r0, cr3, cr4, {1}
     870:	0b3b0b3a 	bleq	ec3560 <__bss_end__+0xeb9598>
     874:	17021349 	strne	r1, [r2, -r9, asr #6]
     878:	89140000 	ldmdbhi	r4, {}	; <UNPREDICTABLE>
     87c:	11000182 	smlabbne	r0, r2, r1, r0
     880:	00133101 	andseq	r3, r3, r1, lsl #2
     884:	82891500 	addhi	r1, r9, #0, 10
     888:	01110101 	tsteq	r1, r1, lsl #2
     88c:	13011331 	movwne	r1, #4913	; 0x1331
     890:	8a160000 	bhi	580898 <__bss_end__+0x5768d0>
     894:	02000182 	andeq	r0, r0, #-2147483616	; 0x80000020
     898:	18429118 	stmdane	r2, {r3, r4, r8, ip, pc}^
     89c:	89170000 	ldmdbhi	r7, {}	; <UNPREDICTABLE>
     8a0:	11010182 	smlabbne	r1, r2, r1, r0
     8a4:	00133101 	andseq	r3, r3, r1, lsl #2
     8a8:	01011800 	tsteq	r1, r0, lsl #16
     8ac:	13011349 	movwne	r1, #4937	; 0x1349
     8b0:	21190000 	tstcs	r9, r0
     8b4:	2f134900 	svccs	0x00134900
     8b8:	1a00000b 	bne	8ec <_start-0x7714>
     8bc:	193f012e 	ldmdbne	pc!, {r1, r2, r3, r5, r8}	; <UNPREDICTABLE>
     8c0:	0b3a0e03 	bleq	e840d4 <__bss_end__+0xe7a10c>
     8c4:	19270b3b 	stmdbne	r7!, {r0, r1, r3, r4, r5, r8, r9, fp}
     8c8:	06120111 			; <UNDEFINED> instruction: 0x06120111
     8cc:	42971840 	addsmi	r1, r7, #64, 16	; 0x400000
     8d0:	00130119 	andseq	r0, r3, r9, lsl r1
     8d4:	01151b00 	tsteq	r5, r0, lsl #22
     8d8:	13491927 	movtne	r1, #39207	; 0x9927
     8dc:	00001301 	andeq	r1, r0, r1, lsl #6
     8e0:	4900051c 	stmdbmi	r0, {r2, r3, r4, r8, sl}
     8e4:	1d000013 	stcne	0, cr0, [r0, #-76]	; 0xffffffb4
     8e8:	193f012e 	ldmdbne	pc!, {r1, r2, r3, r5, r8}	; <UNPREDICTABLE>
     8ec:	0b3a0e03 	bleq	e84100 <__bss_end__+0xe7a138>
     8f0:	19270b3b 	stmdbne	r7!, {r0, r1, r3, r4, r5, r8, r9, fp}
     8f4:	01111349 	tsteq	r1, r9, asr #6
     8f8:	18400612 	stmdane	r0, {r1, r4, r9, sl}^
     8fc:	01194297 			; <UNDEFINED> instruction: 0x01194297
     900:	1e000013 	mcrne	0, 0, r0, cr0, cr3, {0}
     904:	1755010b 	ldrbne	r0, [r5, -fp, lsl #2]
     908:	341f0000 	ldrcc	r0, [pc], #-0	; 910 <_start-0x76f0>
     90c:	3a0e0300 	bcc	381514 <__bss_end__+0x37754c>
     910:	490b3b0b 	stmdbmi	fp, {r0, r1, r3, r8, r9, fp, ip, sp}
     914:	3c193f13 	ldccc	15, cr3, [r9], {19}
     918:	20000019 	andcs	r0, r0, r9, lsl r0
     91c:	193f002e 	ldmdbne	pc!, {r1, r2, r3, r5}	; <UNPREDICTABLE>
     920:	0b3a0e03 	bleq	e84134 <__bss_end__+0xe7a16c>
     924:	19270b3b 	stmdbne	r7!, {r0, r1, r3, r4, r5, r8, r9, fp}
     928:	0000193c 	andeq	r1, r0, ip, lsr r9
     92c:	3f012e21 	svccc	0x00012e21
     930:	3a0e0319 	bcc	38159c <__bss_end__+0x3775d4>
     934:	270b3b0b 	strcs	r3, [fp, -fp, lsl #22]
     938:	3c134919 	ldccc	9, cr4, [r3], {25}
     93c:	00130119 	andseq	r0, r3, r9, lsl r1
     940:	00182200 	andseq	r2, r8, r0, lsl #4
     944:	01000000 	mrseq	r0, (UNDEF: 0)
     948:	0e250111 	mcreq	1, 1, r0, cr5, cr1, {0}
     94c:	0e030b13 	vmoveq.32	d3[0], r0
     950:	01110e1b 	tsteq	r1, fp, lsl lr
     954:	17100612 			; <UNDEFINED> instruction: 0x17100612
     958:	24020000 	strcs	r0, [r2], #-0
     95c:	3e0b0b00 	vmlacc.f64	d0, d11, d0
     960:	0008030b 	andeq	r0, r8, fp, lsl #6
     964:	00240300 	eoreq	r0, r4, r0, lsl #6
     968:	0b3e0b0b 	bleq	f8359c <__bss_end__+0xf795d4>
     96c:	00000e03 	andeq	r0, r0, r3, lsl #28
     970:	0b000f04 	bleq	4588 <_start-0x3a78>
     974:	0013490b 	andseq	r4, r3, fp, lsl #18
     978:	00260500 	eoreq	r0, r6, r0, lsl #10
     97c:	00001349 	andeq	r1, r0, r9, asr #6
     980:	3f012e06 	svccc	0x00012e06
     984:	3a0e0319 	bcc	3815f0 <__bss_end__+0x377628>
     988:	270b3b0b 	strcs	r3, [fp, -fp, lsl #22]
     98c:	12011119 	andne	r1, r1, #1073741830	; 0x40000006
     990:	97184006 	ldrls	r4, [r8, -r6]
     994:	13011942 	movwne	r1, #6466	; 0x1942
     998:	89070000 	stmdbhi	r7, {}	; <UNPREDICTABLE>
     99c:	11010182 	smlabbne	r1, r2, r1, r0
     9a0:	00130101 	andseq	r0, r3, r1, lsl #2
     9a4:	828a0800 	addhi	r0, sl, #0, 16
     9a8:	18020001 	stmdane	r2, {r0}
     9ac:	00184291 	mulseq	r8, r1, r2
     9b0:	82890900 	addhi	r0, r9, #0, 18
     9b4:	01110101 	tsteq	r1, r1, lsl #2
     9b8:	13011331 	movwne	r1, #4913	; 0x1331
     9bc:	890a0000 	stmdbhi	sl, {}	; <UNPREDICTABLE>
     9c0:	11000182 	smlabbne	r0, r2, r1, r0
     9c4:	00133101 	andseq	r3, r3, r1, lsl #2
     9c8:	01150b00 	tsteq	r5, r0, lsl #22
     9cc:	13491927 	movtne	r1, #39207	; 0x9927
     9d0:	00001301 	andeq	r1, r0, r1, lsl #6
     9d4:	4900050c 	stmdbmi	r0, {r2, r3, r8, sl}
     9d8:	0d000013 	stceq	0, cr0, [r0, #-76]	; 0xffffffb4
     9dc:	0e030034 	mcreq	0, 0, r0, cr3, cr4, {1}
     9e0:	0b3b0b3a 	bleq	ec36d0 <__bss_end__+0xeb9708>
     9e4:	193f1349 	ldmdbne	pc!, {r0, r3, r6, r8, r9, ip}	; <UNPREDICTABLE>
     9e8:	0000193c 	andeq	r1, r0, ip, lsr r9
     9ec:	3f012e0e 	svccc	0x00012e0e
     9f0:	3a0e0319 	bcc	38165c <__bss_end__+0x377694>
     9f4:	270b3b0b 	strcs	r3, [fp, -fp, lsl #22]
     9f8:	01193c19 	tsteq	r9, r9, lsl ip
     9fc:	0f000013 	svceq	0x00000013
     a00:	193f002e 	ldmdbne	pc!, {r1, r2, r3, r5}	; <UNPREDICTABLE>
     a04:	0b3a0e03 	bleq	e84218 <__bss_end__+0xe7a250>
     a08:	19270b3b 	stmdbne	r7!, {r0, r1, r3, r4, r5, r8, r9, fp}
     a0c:	0000193c 	andeq	r1, r0, ip, lsr r9
     a10:	01110100 	tsteq	r1, r0, lsl #2
     a14:	0b130e25 	bleq	4c42b0 <__bss_end__+0x4ba2e8>
     a18:	0e1b0e03 	cdpeq	14, 1, cr0, cr11, cr3, {0}
     a1c:	06120111 			; <UNDEFINED> instruction: 0x06120111
     a20:	00001710 	andeq	r1, r0, r0, lsl r7
     a24:	0b002402 	bleq	9a34 <__FUNCTION__.4259+0x94>
     a28:	030b3e0b 	movweq	r3, #48651	; 0xbe0b
     a2c:	03000008 	movweq	r0, #8
     a30:	0b0b0024 	bleq	2c0ac8 <__bss_end__+0x2b6b00>
     a34:	0e030b3e 	vmoveq.16	d3[0], r0
     a38:	2e040000 	cdpcs	0, 0, cr0, cr4, cr0, {0}
     a3c:	03193f01 	tsteq	r9, #1, 30
     a40:	3b0b3a0e 	blcc	2cf280 <__bss_end__+0x2c52b8>
     a44:	1201110b 	andne	r1, r1, #-1073741822	; 0xc0000002
     a48:	97184006 	ldrls	r4, [r8, -r6]
     a4c:	13011942 	movwne	r1, #6466	; 0x1942
     a50:	34050000 	strcc	r0, [r5], #-0
     a54:	3a0e0300 	bcc	38165c <__bss_end__+0x377694>
     a58:	490b3b0b 	stmdbmi	fp, {r0, r1, r3, r8, r9, fp, ip, sp}
     a5c:	3c193f13 	ldccc	15, cr3, [r9], {19}
     a60:	06000019 			; <UNDEFINED> instruction: 0x06000019
     a64:	193f002e 	ldmdbne	pc!, {r1, r2, r3, r5}	; <UNPREDICTABLE>
     a68:	0b3a0e03 	bleq	e8427c <__bss_end__+0xe7a2b4>
     a6c:	19270b3b 	stmdbne	r7!, {r0, r1, r3, r4, r5, r8, r9, fp}
     a70:	0000193c 	andeq	r1, r0, ip, lsr r9
     a74:	03003407 	movweq	r3, #1031	; 0x407
     a78:	3b0b3a08 	blcc	2cf2a0 <__bss_end__+0x2c52d8>
     a7c:	0213490b 	andseq	r4, r3, #180224	; 0x2c000
     a80:	08000017 	stmdaeq	r0, {r0, r1, r2, r4}
     a84:	0e030034 	mcreq	0, 0, r0, cr3, cr4, {1}
     a88:	0b3b0b3a 	bleq	ec3778 <__bss_end__+0xeb97b0>
     a8c:	00001349 	andeq	r1, r0, r9, asr #6
     a90:	01828909 	orreq	r8, r2, r9, lsl #18
     a94:	31011100 	mrscc	r1, (UNDEF: 17)
     a98:	0a000013 	beq	aec <_start-0x7514>
     a9c:	0b0b000f 	bleq	2c0ae0 <__bss_end__+0x2b6b18>
     aa0:	00001349 	andeq	r1, r0, r9, asr #6
     aa4:	01110100 	tsteq	r1, r0, lsl #2
     aa8:	0b130e25 	bleq	4c4344 <__bss_end__+0x4ba37c>
     aac:	0e1b0e03 	cdpeq	14, 1, cr0, cr11, cr3, {0}
     ab0:	01111755 	tsteq	r1, r5, asr r7
     ab4:	00001710 	andeq	r1, r0, r0, lsl r7
     ab8:	0b002402 	bleq	9ac8 <__FUNCTION__.4253+0x10>
     abc:	030b3e0b 	movweq	r3, #48651	; 0xbe0b
     ac0:	03000008 	movweq	r0, #8
     ac4:	0b0b0024 	bleq	2c0b5c <__bss_end__+0x2b6b94>
     ac8:	0e030b3e 	vmoveq.16	d3[0], r0
     acc:	2e040000 	cdpcs	0, 0, cr0, cr4, cr0, {0}
     ad0:	03193f01 	tsteq	r9, #1, 30
     ad4:	3b0b3a0e 	blcc	2cf314 <__bss_end__+0x2c534c>
     ad8:	4919270b 	ldmdbmi	r9, {r0, r1, r3, r8, r9, sl, sp}
     adc:	12011113 	andne	r1, r1, #-1073741820	; 0xc0000004
     ae0:	97184006 	ldrls	r4, [r8, -r6]
     ae4:	13011942 	movwne	r1, #6466	; 0x1942
     ae8:	34050000 	strcc	r0, [r5], #-0
     aec:	3a0e0300 	bcc	3816f4 <__bss_end__+0x37772c>
     af0:	490b3b0b 	stmdbmi	fp, {r0, r1, r3, r8, r9, fp, ip, sp}
     af4:	00170213 	andseq	r0, r7, r3, lsl r2
     af8:	012e0600 	teqeq	lr, r0, lsl #12
     afc:	0e03193f 	mcreq	9, 0, r1, cr3, cr15, {1}
     b00:	0b3b0b3a 	bleq	ec37f0 <__bss_end__+0xeb9828>
     b04:	01111927 	tsteq	r1, r7, lsr #18
     b08:	18400612 	stmdane	r0, {r1, r4, r9, sl}^
     b0c:	01194297 			; <UNDEFINED> instruction: 0x01194297
     b10:	07000013 	smladeq	r0, r3, r0, r0
     b14:	0e030034 	mcreq	0, 0, r0, cr3, cr4, {1}
     b18:	0b3b0b3a 	bleq	ec3808 <__bss_end__+0xeb9840>
     b1c:	061c1349 	ldreq	r1, [ip], -r9, asr #6
     b20:	34080000 	strcc	r0, [r8], #-0
     b24:	3a0e0300 	bcc	38172c <__bss_end__+0x377764>
     b28:	490b3b0b 	stmdbmi	fp, {r0, r1, r3, r8, r9, fp, ip, sp}
     b2c:	000b1c13 	andeq	r1, fp, r3, lsl ip
     b30:	82890900 	addhi	r0, r9, #0, 18
     b34:	01110001 	tsteq	r1, r1
     b38:	00001331 	andeq	r1, r0, r1, lsr r3
     b3c:	0182890a 	orreq	r8, r2, sl, lsl #18
     b40:	31011101 	tstcc	r1, r1, lsl #2
     b44:	00130113 	andseq	r0, r3, r3, lsl r1
     b48:	828a0b00 	addhi	r0, sl, #0, 22
     b4c:	18020001 	stmdane	r2, {r0}
     b50:	00184291 	mulseq	r8, r1, r2
     b54:	82890c00 	addhi	r0, r9, #0, 24
     b58:	01110101 	tsteq	r1, r1, lsl #2
     b5c:	00001331 	andeq	r1, r0, r1, lsr r3
     b60:	4900260d 	stmdbmi	r0, {r0, r2, r3, r9, sl, sp}
     b64:	0e000013 	mcreq	0, 0, r0, cr0, cr3, {0}
     b68:	193f012e 	ldmdbne	pc!, {r1, r2, r3, r5, r8}	; <UNPREDICTABLE>
     b6c:	0b3a0e03 	bleq	e84380 <__bss_end__+0xe7a3b8>
     b70:	19270b3b 	stmdbne	r7!, {r0, r1, r3, r4, r5, r8, r9, fp}
     b74:	1301193c 	movwne	r1, #6460	; 0x193c
     b78:	050f0000 	streq	r0, [pc, #-0]	; b80 <_start-0x7480>
     b7c:	00134900 	andseq	r4, r3, r0, lsl #18
     b80:	012e1000 	teqeq	lr, r0
     b84:	0e03193f 	mcreq	9, 0, r1, cr3, cr15, {1}
     b88:	0b3b0b3a 	bleq	ec3878 <__bss_end__+0xeb98b0>
     b8c:	193c1927 	ldmdbne	ip!, {r0, r1, r2, r5, r8, fp, ip}
     b90:	01000000 	mrseq	r0, (UNDEF: 0)
     b94:	0e250111 	mcreq	1, 1, r0, cr5, cr1, {0}
     b98:	0e030b13 	vmoveq.32	d3[0], r0
     b9c:	01110e1b 	tsteq	r1, fp, lsl lr
     ba0:	17100612 			; <UNDEFINED> instruction: 0x17100612
     ba4:	24020000 	strcs	r0, [r2], #-0
     ba8:	3e0b0b00 	vmlacc.f64	d0, d11, d0
     bac:	0008030b 	andeq	r0, r8, fp, lsl #6
     bb0:	00240300 	eoreq	r0, r4, r0, lsl #6
     bb4:	0b3e0b0b 	bleq	f837e8 <__bss_end__+0xf79820>
     bb8:	00000e03 	andeq	r0, r0, r3, lsl #28
     bbc:	3f012e04 	svccc	0x00012e04
     bc0:	3a0e0319 	bcc	38182c <__bss_end__+0x377864>
     bc4:	270b3b0b 	strcs	r3, [fp, -fp, lsl #22]
     bc8:	12011119 	andne	r1, r1, #1073741830	; 0x40000006
     bcc:	97184006 	ldrls	r4, [r8, -r6]
     bd0:	13011942 	movwne	r1, #6466	; 0x1942
     bd4:	05050000 	streq	r0, [r5, #-0]
     bd8:	3a0e0300 	bcc	3817e0 <__bss_end__+0x377818>
     bdc:	490b3b0b 	stmdbmi	fp, {r0, r1, r3, r8, r9, fp, ip, sp}
     be0:	00170213 	andseq	r0, r7, r3, lsl r2
     be4:	012e0600 	teqeq	lr, r0, lsl #12
     be8:	0e03193f 	mcreq	9, 0, r1, cr3, cr15, {1}
     bec:	0b3b0b3a 	bleq	ec38dc <__bss_end__+0xeb9914>
     bf0:	13491927 	movtne	r1, #39207	; 0x9927
     bf4:	06120111 			; <UNDEFINED> instruction: 0x06120111
     bf8:	42971840 	addsmi	r1, r7, #64, 16	; 0x400000
     bfc:	00130119 	andseq	r0, r3, r9, lsl r1
     c00:	82890700 	addhi	r0, r9, #0, 14
     c04:	01110101 	tsteq	r1, r1, lsl #2
     c08:	00001331 	andeq	r1, r0, r1, lsr r3
     c0c:	01828a08 	orreq	r8, r2, r8, lsl #20
     c10:	91180200 	tstls	r8, r0, lsl #4
     c14:	00001842 	andeq	r1, r0, r2, asr #16
     c18:	03003409 	movweq	r3, #1033	; 0x409
     c1c:	3b0b3a08 	blcc	2cf444 <__bss_end__+0x2c547c>
     c20:	0213490b 	andseq	r4, r3, #180224	; 0x2c000
     c24:	0a000018 	beq	c8c <_start-0x7374>
     c28:	00018289 	andeq	r8, r1, r9, lsl #5
     c2c:	13310111 	teqne	r1, #1073741828	; 0x40000004
     c30:	050b0000 	streq	r0, [fp, #-0]
     c34:	3a080300 	bcc	20183c <__bss_end__+0x1f7874>
     c38:	490b3b0b 	stmdbmi	fp, {r0, r1, r3, r8, r9, fp, ip, sp}
     c3c:	00170213 	andseq	r0, r7, r3, lsl r2
     c40:	010b0c00 	tsteq	fp, r0, lsl #24
     c44:	06120111 			; <UNDEFINED> instruction: 0x06120111
     c48:	00001301 	andeq	r1, r0, r1, lsl #6
     c4c:	0300340d 	movweq	r3, #1037	; 0x40d
     c50:	3b0b3a08 	blcc	2cf478 <__bss_end__+0x2c54b0>
     c54:	0213490b 	andseq	r4, r3, #180224	; 0x2c000
     c58:	0e000017 	mcreq	0, 0, r0, cr0, cr7, {0}
     c5c:	193f012e 	ldmdbne	pc!, {r1, r2, r3, r5, r8}	; <UNPREDICTABLE>
     c60:	0b3a0e03 	bleq	e84474 <__bss_end__+0xe7a4ac>
     c64:	19270b3b 	stmdbne	r7!, {r0, r1, r3, r4, r5, r8, r9, fp}
     c68:	193c1349 	ldmdbne	ip!, {r0, r3, r6, r8, r9, ip}
     c6c:	050f0000 	streq	r0, [pc, #-0]	; c74 <_start-0x738c>
     c70:	00134900 	andseq	r4, r3, r0, lsl #18
     c74:	11010000 	mrsne	r0, (UNDEF: 1)
     c78:	130e2501 	movwne	r2, #58625	; 0xe501
     c7c:	1b0e030b 	blne	3818b0 <__bss_end__+0x3778e8>
     c80:	1201110e 	andne	r1, r1, #-2147483645	; 0x80000003
     c84:	00171006 	andseq	r1, r7, r6
     c88:	00240200 	eoreq	r0, r4, r0, lsl #4
     c8c:	0b3e0b0b 	bleq	f838c0 <__bss_end__+0xf798f8>
     c90:	00000803 	andeq	r0, r0, r3, lsl #16
     c94:	0b002403 	bleq	9ca8 <buf.4185+0xe4>
     c98:	030b3e0b 	movweq	r3, #48651	; 0xbe0b
     c9c:	0400000e 	streq	r0, [r0], #-14
     ca0:	13490035 	movtne	r0, #36917	; 0x9035
     ca4:	16050000 	strne	r0, [r5], -r0
     ca8:	3a0e0300 	bcc	3818b0 <__bss_end__+0x3778e8>
     cac:	490b3b0b 	stmdbmi	fp, {r0, r1, r3, r8, r9, fp, ip, sp}
     cb0:	06000013 			; <UNDEFINED> instruction: 0x06000013
     cb4:	0e030016 	mcreq	0, 0, r0, cr3, cr6, {0}
     cb8:	053b0b3a 	ldreq	r0, [fp, #-2874]!	; 0xb3a
     cbc:	00001349 	andeq	r1, r0, r9, asr #6
     cc0:	0b011707 	bleq	468e4 <__bss_end__+0x3c91c>
     cc4:	3b0b3a0b 	blcc	2cf4f8 <__bss_end__+0x2c5530>
     cc8:	0013010b 	andseq	r0, r3, fp, lsl #2
     ccc:	000d0800 	andeq	r0, sp, r0, lsl #16
     cd0:	0b3a0e03 	bleq	e844e4 <__bss_end__+0xe7a51c>
     cd4:	13490b3b 	movtne	r0, #39739	; 0x9b3b
     cd8:	01090000 	mrseq	r0, (UNDEF: 9)
     cdc:	01134901 	tsteq	r3, r1, lsl #18
     ce0:	0a000013 	beq	d34 <_start-0x72cc>
     ce4:	13490021 	movtne	r0, #36897	; 0x9021
     ce8:	00000b2f 	andeq	r0, r0, pc, lsr #22
     cec:	0b01130b 	bleq	45920 <__bss_end__+0x3b958>
     cf0:	3b0b3a0b 	blcc	2cf524 <__bss_end__+0x2c555c>
     cf4:	0013010b 	andseq	r0, r3, fp, lsl #2
     cf8:	000d0c00 	andeq	r0, sp, r0, lsl #24
     cfc:	0b3a0e03 	bleq	e84510 <__bss_end__+0xe7a548>
     d00:	13490b3b 	movtne	r0, #39739	; 0x9b3b
     d04:	00000b38 	andeq	r0, r0, r8, lsr fp
     d08:	0b000f0d 	bleq	4944 <_start-0x36bc>
     d0c:	0e00000b 	cdpeq	0, 0, cr0, cr0, cr11, {0}
     d10:	0b0b000f 	bleq	2c0d54 <__bss_end__+0x2b6d8c>
     d14:	00001349 	andeq	r1, r0, r9, asr #6
     d18:	4900260f 	stmdbmi	r0, {r0, r1, r2, r3, r9, sl, sp}
     d1c:	10000013 	andne	r0, r0, r3, lsl r0
     d20:	0e030113 	mcreq	1, 0, r0, cr3, cr3, {0}
     d24:	0b3a0b0b 	bleq	e83958 <__bss_end__+0xe79990>
     d28:	13010b3b 	movwne	r0, #6971	; 0x1b3b
     d2c:	0d110000 	ldceq	0, cr0, [r1, #-0]
     d30:	3a080300 	bcc	201938 <__bss_end__+0x1f7970>
     d34:	490b3b0b 	stmdbmi	fp, {r0, r1, r3, r8, r9, fp, ip, sp}
     d38:	000b3813 	andeq	r3, fp, r3, lsl r8
     d3c:	01131200 	tsteq	r3, r0, lsl #4
     d40:	050b0e03 	streq	r0, [fp, #-3587]	; 0xe03
     d44:	0b3b0b3a 	bleq	ec3a34 <__bss_end__+0xeb9a6c>
     d48:	00001301 	andeq	r1, r0, r1, lsl #6
     d4c:	03000d13 	movweq	r0, #3347	; 0xd13
     d50:	3b0b3a0e 	blcc	2cf590 <__bss_end__+0x2c55c8>
     d54:	3813490b 	ldmdacc	r3, {r0, r1, r3, r8, fp, lr}
     d58:	14000005 	strne	r0, [r0], #-5
     d5c:	19270015 	stmdbne	r7!, {r0, r2, r4}
     d60:	15150000 	ldrne	r0, [r5, #-0]
     d64:	49192701 	ldmdbmi	r9, {r0, r8, r9, sl, sp}
     d68:	00130113 	andseq	r0, r3, r3, lsl r1
     d6c:	00051600 	andeq	r1, r5, r0, lsl #12
     d70:	00001349 	andeq	r1, r0, r9, asr #6
     d74:	03011317 	movweq	r1, #4887	; 0x1317
     d78:	3a050b0e 	bcc	1439b8 <__bss_end__+0x1399f0>
     d7c:	01053b0b 	tsteq	r5, fp, lsl #22
     d80:	18000013 	stmdane	r0, {r0, r1, r4}
     d84:	0e03000d 	cdpeq	0, 0, cr0, cr3, cr13, {0}
     d88:	053b0b3a 	ldreq	r0, [fp, #-2874]!	; 0xb3a
     d8c:	0b381349 	bleq	e05ab8 <__bss_end__+0xdfbaf0>
     d90:	0d190000 	ldceq	0, cr0, [r9, #-0]
     d94:	3a0e0300 	bcc	38199c <__bss_end__+0x3779d4>
     d98:	49053b0b 	stmdbmi	r5, {r0, r1, r3, r8, r9, fp, ip, sp}
     d9c:	00053813 	andeq	r3, r5, r3, lsl r8
     da0:	01131a00 	tsteq	r3, r0, lsl #20
     da4:	0b0b0e03 	bleq	2c45b8 <__bss_end__+0x2ba5f0>
     da8:	053b0b3a 	ldreq	r0, [fp, #-2874]!	; 0xb3a
     dac:	00001301 	andeq	r1, r0, r1, lsl #6
     db0:	0b01131b 	bleq	45a24 <__bss_end__+0x3ba5c>
     db4:	3b0b3a0b 	blcc	2cf5e8 <__bss_end__+0x2c5620>
     db8:	00130105 	andseq	r0, r3, r5, lsl #2
     dbc:	01171c00 	tsteq	r7, r0, lsl #24
     dc0:	0b3a0b0b 	bleq	e839f4 <__bss_end__+0xe79a2c>
     dc4:	1301053b 	movwne	r0, #5435	; 0x153b
     dc8:	0d1d0000 	ldceq	0, cr0, [sp, #-0]
     dcc:	3a0e0300 	bcc	3819d4 <__bss_end__+0x377a0c>
     dd0:	49053b0b 	stmdbmi	r5, {r0, r1, r3, r8, r9, fp, ip, sp}
     dd4:	1e000013 	mcrne	0, 0, r0, cr0, cr3, {0}
     dd8:	19270115 	stmdbne	r7!, {r0, r2, r4, r8}
     ddc:	00001301 	andeq	r1, r0, r1, lsl #6
     de0:	0300341f 	movweq	r3, #1055	; 0x41f
     de4:	3b0b3a0e 	blcc	2cf624 <__bss_end__+0x2c565c>
     de8:	3f134905 	svccc	0x00134905
     dec:	00193c19 	andseq	r3, r9, r9, lsl ip
     df0:	00342000 	eorseq	r2, r4, r0
     df4:	0b3a0e03 	bleq	e84608 <__bss_end__+0xe7a640>
     df8:	13490b3b 	movtne	r0, #39739	; 0x9b3b
     dfc:	193c193f 	ldmdbne	ip!, {r0, r1, r2, r3, r4, r5, r8, fp, ip}
     e00:	04210000 	strteq	r0, [r1], #-0
     e04:	490b0b01 	stmdbmi	fp, {r0, r8, r9, fp}
     e08:	3b0b3a13 	blcc	2cf65c <__bss_end__+0x2c5694>
     e0c:	0013010b 	andseq	r0, r3, fp, lsl #2
     e10:	00282200 	eoreq	r2, r8, r0, lsl #4
     e14:	0b1c0e03 	bleq	704628 <__bss_end__+0x6fa660>
     e18:	34230000 	strtcc	r0, [r3], #-0
     e1c:	3a0e0300 	bcc	381a24 <__bss_end__+0x377a5c>
     e20:	490b3b0b 	stmdbmi	fp, {r0, r1, r3, r8, r9, fp, ip, sp}
     e24:	00061c13 	andeq	r1, r6, r3, lsl ip
     e28:	012e2400 	teqeq	lr, r0, lsl #8
     e2c:	0e03193f 	mcreq	9, 0, r1, cr3, cr15, {1}
     e30:	0b3b0b3a 	bleq	ec3b20 <__bss_end__+0xeb9b58>
     e34:	13491927 	movtne	r1, #39207	; 0x9927
     e38:	06120111 			; <UNDEFINED> instruction: 0x06120111
     e3c:	42971840 	addsmi	r1, r7, #64, 16	; 0x400000
     e40:	00130119 	andseq	r0, r3, r9, lsl r1
     e44:	82892500 	addhi	r2, r9, #0, 10
     e48:	01110001 	tsteq	r1, r1
     e4c:	00001331 	andeq	r1, r0, r1, lsr r3
     e50:	3f012e26 	svccc	0x00012e26
     e54:	3a0e0319 	bcc	381ac0 <__bss_end__+0x377af8>
     e58:	270b3b0b 	strcs	r3, [fp, -fp, lsl #22]
     e5c:	12011119 	andne	r1, r1, #1073741830	; 0x40000006
     e60:	97184006 	ldrls	r4, [r8, -r6]
     e64:	13011942 	movwne	r1, #6466	; 0x1942
     e68:	05270000 	streq	r0, [r7, #-0]!
     e6c:	3a080300 	bcc	201a74 <__bss_end__+0x1f7aac>
     e70:	490b3b0b 	stmdbmi	fp, {r0, r1, r3, r8, r9, fp, ip, sp}
     e74:	00170213 	andseq	r0, r7, r3, lsl r2
     e78:	82892800 	addhi	r2, r9, #0, 16
     e7c:	01110101 	tsteq	r1, r1, lsl #2
     e80:	13011331 	movwne	r1, #4913	; 0x1331
     e84:	8a290000 	bhi	a40e8c <__bss_end__+0xa36ec4>
     e88:	02000182 	andeq	r0, r0, #-2147483616	; 0x80000020
     e8c:	18429118 	stmdane	r2, {r3, r4, r8, ip, pc}^
     e90:	342a0000 	strtcc	r0, [sl], #-0
     e94:	3a080300 	bcc	201a9c <__bss_end__+0x1f7ad4>
     e98:	490b3b0b 	stmdbmi	fp, {r0, r1, r3, r8, r9, fp, ip, sp}
     e9c:	00180213 	andseq	r0, r8, r3, lsl r2
     ea0:	82892b00 	addhi	r2, r9, #0, 22
     ea4:	01110101 	tsteq	r1, r1, lsl #2
     ea8:	00001331 	andeq	r1, r0, r1, lsr r3
     eac:	03012e2c 	movweq	r2, #7724	; 0x1e2c
     eb0:	3b0b3a0e 	blcc	2cf6f0 <__bss_end__+0x2c5728>
     eb4:	1119270b 	tstne	r9, fp, lsl #14
     eb8:	40061201 	andmi	r1, r6, r1, lsl #4
     ebc:	19429718 	stmdbne	r2, {r3, r4, r8, r9, sl, ip, pc}^
     ec0:	00001301 	andeq	r1, r0, r1, lsl #6
     ec4:	0300052d 	movweq	r0, #1325	; 0x52d
     ec8:	3b0b3a0e 	blcc	2cf708 <__bss_end__+0x2c5740>
     ecc:	0213490b 	andseq	r4, r3, #180224	; 0x2c000
     ed0:	2e000017 	mcrcs	0, 0, r0, cr0, cr7, {0}
     ed4:	00000035 	andeq	r0, r0, r5, lsr r0
     ed8:	3f002e2f 	svccc	0x00002e2f
     edc:	6e193c19 	mrcvs	12, 0, r3, cr9, cr9, {0}
     ee0:	3a0e030e 	bcc	381b20 <__bss_end__+0x377b58>
     ee4:	000b3b0b 	andeq	r3, fp, fp, lsl #22
     ee8:	11010000 	mrsne	r0, (UNDEF: 1)
     eec:	130e2501 	movwne	r2, #58625	; 0xe501
     ef0:	1b0e030b 	blne	381b24 <__bss_end__+0x377b5c>
     ef4:	1201110e 	andne	r1, r1, #-2147483645	; 0x80000003
     ef8:	00171006 	andseq	r1, r7, r6
     efc:	00240200 	eoreq	r0, r4, r0, lsl #4
     f00:	0b3e0b0b 	bleq	f83b34 <__bss_end__+0xf79b6c>
     f04:	00000803 	andeq	r0, r0, r3, lsl #16
     f08:	0b002403 	bleq	9f1c <buf.4185+0x358>
     f0c:	030b3e0b 	movweq	r3, #48651	; 0xbe0b
     f10:	0400000e 	streq	r0, [r0], #-14
     f14:	13490026 	movtne	r0, #36902	; 0x9026
     f18:	16050000 	strne	r0, [r5], -r0
     f1c:	3a0e0300 	bcc	381b24 <__bss_end__+0x377b5c>
     f20:	490b3b0b 	stmdbmi	fp, {r0, r1, r3, r8, r9, fp, ip, sp}
     f24:	06000013 			; <UNDEFINED> instruction: 0x06000013
     f28:	0e030016 	mcreq	0, 0, r0, cr3, cr6, {0}
     f2c:	053b0b3a 	ldreq	r0, [fp, #-2874]!	; 0xb3a
     f30:	00001349 	andeq	r1, r0, r9, asr #6
     f34:	0b011707 	bleq	46b58 <__bss_end__+0x3cb90>
     f38:	3b0b3a0b 	blcc	2cf76c <__bss_end__+0x2c57a4>
     f3c:	0013010b 	andseq	r0, r3, fp, lsl #2
     f40:	000d0800 	andeq	r0, sp, r0, lsl #16
     f44:	0b3a0e03 	bleq	e84758 <__bss_end__+0xe7a790>
     f48:	13490b3b 	movtne	r0, #39739	; 0x9b3b
     f4c:	01090000 	mrseq	r0, (UNDEF: 9)
     f50:	01134901 	tsteq	r3, r1, lsl #18
     f54:	0a000013 	beq	fa8 <_start-0x7058>
     f58:	13490021 	movtne	r0, #36897	; 0x9021
     f5c:	00000b2f 	andeq	r0, r0, pc, lsr #22
     f60:	0b01130b 	bleq	45b94 <__bss_end__+0x3bbcc>
     f64:	3b0b3a0b 	blcc	2cf798 <__bss_end__+0x2c57d0>
     f68:	0013010b 	andseq	r0, r3, fp, lsl #2
     f6c:	000d0c00 	andeq	r0, sp, r0, lsl #24
     f70:	0b3a0e03 	bleq	e84784 <__bss_end__+0xe7a7bc>
     f74:	13490b3b 	movtne	r0, #39739	; 0x9b3b
     f78:	00000b38 	andeq	r0, r0, r8, lsr fp
     f7c:	0b000f0d 	bleq	4bb8 <_start-0x3448>
     f80:	0e00000b 	cdpeq	0, 0, cr0, cr0, cr11, {0}
     f84:	0b0b000f 	bleq	2c0fc8 <__bss_end__+0x2b7000>
     f88:	00001349 	andeq	r1, r0, r9, asr #6
     f8c:	0301130f 	movweq	r1, #4879	; 0x130f
     f90:	3a0b0b0e 	bcc	2c3bd0 <__bss_end__+0x2b9c08>
     f94:	010b3b0b 	tsteq	fp, fp, lsl #22
     f98:	10000013 	andne	r0, r0, r3, lsl r0
     f9c:	0803000d 	stmdaeq	r3, {r0, r2, r3}
     fa0:	0b3b0b3a 	bleq	ec3c90 <__bss_end__+0xeb9cc8>
     fa4:	0b381349 	bleq	e05cd0 <__bss_end__+0xdfbd08>
     fa8:	13110000 	tstne	r1, #0
     fac:	0b0e0301 	bleq	381bb8 <__bss_end__+0x377bf0>
     fb0:	3b0b3a05 	blcc	2cf7cc <__bss_end__+0x2c5804>
     fb4:	0013010b 	andseq	r0, r3, fp, lsl #2
     fb8:	000d1200 	andeq	r1, sp, r0, lsl #4
     fbc:	0b3a0e03 	bleq	e847d0 <__bss_end__+0xe7a808>
     fc0:	13490b3b 	movtne	r0, #39739	; 0x9b3b
     fc4:	00000538 	andeq	r0, r0, r8, lsr r5
     fc8:	27001513 	smladcs	r0, r3, r5, r1
     fcc:	14000019 	strne	r0, [r0], #-25
     fd0:	19270115 	stmdbne	r7!, {r0, r2, r4, r8}
     fd4:	13011349 	movwne	r1, #4937	; 0x1349
     fd8:	05150000 	ldreq	r0, [r5, #-0]
     fdc:	00134900 	andseq	r4, r3, r0, lsl #18
     fe0:	01131600 	tsteq	r3, r0, lsl #12
     fe4:	050b0e03 	streq	r0, [fp, #-3587]	; 0xe03
     fe8:	053b0b3a 	ldreq	r0, [fp, #-2874]!	; 0xb3a
     fec:	00001301 	andeq	r1, r0, r1, lsl #6
     ff0:	03000d17 	movweq	r0, #3351	; 0xd17
     ff4:	3b0b3a0e 	blcc	2cf834 <__bss_end__+0x2c586c>
     ff8:	38134905 	ldmdacc	r3, {r0, r2, r8, fp, lr}
     ffc:	1800000b 	stmdane	r0, {r0, r1, r3}
    1000:	0e03000d 	cdpeq	0, 0, cr0, cr3, cr13, {0}
    1004:	053b0b3a 	ldreq	r0, [fp, #-2874]!	; 0xb3a
    1008:	05381349 	ldreq	r1, [r8, #-841]!	; 0x349
    100c:	13190000 	tstne	r9, #0
    1010:	0b0e0301 	bleq	381c1c <__bss_end__+0x377c54>
    1014:	3b0b3a0b 	blcc	2cf848 <__bss_end__+0x2c5880>
    1018:	00130105 	andseq	r0, r3, r5, lsl #2
    101c:	01131a00 	tsteq	r3, r0, lsl #20
    1020:	0b3a0b0b 	bleq	e83c54 <__bss_end__+0xe79c8c>
    1024:	1301053b 	movwne	r0, #5435	; 0x153b
    1028:	171b0000 	ldrne	r0, [fp, -r0]
    102c:	3a0b0b01 	bcc	2c3c38 <__bss_end__+0x2b9c70>
    1030:	01053b0b 	tsteq	r5, fp, lsl #22
    1034:	1c000013 	stcne	0, cr0, [r0], {19}
    1038:	0e03000d 	cdpeq	0, 0, cr0, cr3, cr13, {0}
    103c:	053b0b3a 	ldreq	r0, [fp, #-2874]!	; 0xb3a
    1040:	00001349 	andeq	r1, r0, r9, asr #6
    1044:	2701151d 	smladcs	r1, sp, r5, r1
    1048:	00130119 	andseq	r0, r3, r9, lsl r1
    104c:	00341e00 	eorseq	r1, r4, r0, lsl #28
    1050:	0b3a0e03 	bleq	e84864 <__bss_end__+0xe7a89c>
    1054:	1349053b 	movtne	r0, #38203	; 0x953b
    1058:	193c193f 	ldmdbne	ip!, {r0, r1, r2, r3, r4, r5, r8, fp, ip}
    105c:	341f0000 	ldrcc	r0, [pc], #-0	; 1064 <_start-0x6f9c>
    1060:	3a0e0300 	bcc	381c68 <__bss_end__+0x377ca0>
    1064:	490b3b0b 	stmdbmi	fp, {r0, r1, r3, r8, r9, fp, ip, sp}
    1068:	3c193f13 	ldccc	15, cr3, [r9], {19}
    106c:	20000019 	andcs	r0, r0, r9, lsl r0
    1070:	0b0b0104 	bleq	2c1488 <__bss_end__+0x2b74c0>
    1074:	0b3a1349 	bleq	e85da0 <__bss_end__+0xe7bdd8>
    1078:	13010b3b 	movwne	r0, #6971	; 0x1b3b
    107c:	28210000 	stmdacs	r1!, {}	; <UNPREDICTABLE>
    1080:	1c0e0300 	stcne	3, cr0, [lr], {-0}
    1084:	2200000b 	andcs	r0, r0, #11
    1088:	0e030034 	mcreq	0, 0, r0, cr3, cr4, {1}
    108c:	0b3b0b3a 	bleq	ec3d7c <__bss_end__+0xeb9db4>
    1090:	061c1349 	ldreq	r1, [ip], -r9, asr #6
    1094:	2e230000 	cdpcs	0, 2, cr0, cr3, cr0, {0}
    1098:	03193f01 	tsteq	r9, #1, 30
    109c:	3b0b3a0e 	blcc	2cf8dc <__bss_end__+0x2c5914>
    10a0:	4919270b 	ldmdbmi	r9, {r0, r1, r3, r8, r9, sl, sp}
    10a4:	12011113 	andne	r1, r1, #-1073741820	; 0xc0000004
    10a8:	97184006 	ldrls	r4, [r8, -r6]
    10ac:	13011942 	movwne	r1, #6466	; 0x1942
    10b0:	05240000 	streq	r0, [r4, #-0]!
    10b4:	3a080300 	bcc	201cbc <__bss_end__+0x1f7cf4>
    10b8:	490b3b0b 	stmdbmi	fp, {r0, r1, r3, r8, r9, fp, ip, sp}
    10bc:	00170213 	andseq	r0, r7, r3, lsl r2
    10c0:	00342500 	eorseq	r2, r4, r0, lsl #10
    10c4:	0b3a0e03 	bleq	e848d8 <__bss_end__+0xe7a910>
    10c8:	13490b3b 	movtne	r0, #39739	; 0x9b3b
    10cc:	00001702 	andeq	r1, r0, r2, lsl #14
    10d0:	03003426 	movweq	r3, #1062	; 0x426
    10d4:	3b0b3a08 	blcc	2cf8fc <__bss_end__+0x2c5934>
    10d8:	0213490b 	andseq	r4, r3, #180224	; 0x2c000
    10dc:	27000017 	smladcs	r0, r7, r0, r0
    10e0:	01018289 	smlabbeq	r1, r9, r2, r8
    10e4:	13310111 	teqne	r1, #1073741828	; 0x40000004
    10e8:	8a280000 	bhi	a010f0 <__bss_end__+0x9f7128>
    10ec:	02000182 	andeq	r0, r0, #-2147483616	; 0x80000020
    10f0:	18429118 	stmdane	r2, {r3, r4, r8, ip, pc}^
    10f4:	2e290000 	cdpcs	0, 2, cr0, cr9, cr0, {0}
    10f8:	03193f01 	tsteq	r9, #1, 30
    10fc:	3b0b3a0e 	blcc	2cf93c <__bss_end__+0x2c5974>
    1100:	1119270b 	tstne	r9, fp, lsl #14
    1104:	40061201 	andmi	r1, r6, r1, lsl #4
    1108:	19429718 	stmdbne	r2, {r3, r4, r8, r9, sl, ip, pc}^
    110c:	00001301 	andeq	r1, r0, r1, lsl #6
    1110:	0182892a 	orreq	r8, r2, sl, lsr #18
    1114:	31011101 	tstcc	r1, r1, lsl #2
    1118:	00130113 	andseq	r0, r3, r3, lsl r1
    111c:	82892b00 	addhi	r2, r9, #0, 22
    1120:	01110001 	tsteq	r1, r1
    1124:	00001331 	andeq	r1, r0, r1, lsr r3
    1128:	0300052c 	movweq	r0, #1324	; 0x52c
    112c:	3b0b3a0e 	blcc	2cf96c <__bss_end__+0x2c59a4>
    1130:	0213490b 	andseq	r4, r3, #180224	; 0x2c000
    1134:	2d000017 	stccs	0, cr0, [r0, #-92]	; 0xffffffa4
    1138:	08030034 	stmdaeq	r3, {r2, r4, r5}
    113c:	0b3b0b3a 	bleq	ec3e2c <__bss_end__+0xeb9e64>
    1140:	18021349 	stmdane	r2, {r0, r3, r6, r8, r9, ip}
    1144:	2e2e0000 	cdpcs	0, 2, cr0, cr14, cr0, {0}
    1148:	3c193f00 	ldccc	15, cr3, [r9], {-0}
    114c:	030e6e19 	movweq	r6, #60953	; 0xee19
    1150:	3b0b3a0e 	blcc	2cf990 <__bss_end__+0x2c59c8>
    1154:	0000000b 	andeq	r0, r0, fp
    1158:	25011101 	strcs	r1, [r1, #-257]	; 0x101
    115c:	030b130e 	movweq	r1, #45838	; 0xb30e
    1160:	110e1b0e 	tstne	lr, lr, lsl #22
    1164:	10061201 	andne	r1, r6, r1, lsl #4
    1168:	02000017 	andeq	r0, r0, #23
    116c:	0b0b0024 	bleq	2c1204 <__bss_end__+0x2b723c>
    1170:	08030b3e 	stmdaeq	r3, {r1, r2, r3, r4, r5, r8, r9, fp}
    1174:	24030000 	strcs	r0, [r3], #-0
    1178:	3e0b0b00 	vmlacc.f64	d0, d11, d0
    117c:	000e030b 	andeq	r0, lr, fp, lsl #6
    1180:	00160400 	andseq	r0, r6, r0, lsl #8
    1184:	0b3a0e03 	bleq	e84998 <__bss_end__+0xe7a9d0>
    1188:	13490b3b 	movtne	r0, #39739	; 0x9b3b
    118c:	16050000 	strne	r0, [r5], -r0
    1190:	3a0e0300 	bcc	381d98 <__bss_end__+0x377dd0>
    1194:	49053b0b 	stmdbmi	r5, {r0, r1, r3, r8, r9, fp, ip, sp}
    1198:	06000013 			; <UNDEFINED> instruction: 0x06000013
    119c:	0b0b0117 	bleq	2c1600 <__bss_end__+0x2b7638>
    11a0:	0b3b0b3a 	bleq	ec3e90 <__bss_end__+0xeb9ec8>
    11a4:	00001301 	andeq	r1, r0, r1, lsl #6
    11a8:	03000d07 	movweq	r0, #3335	; 0xd07
    11ac:	3b0b3a0e 	blcc	2cf9ec <__bss_end__+0x2c5a24>
    11b0:	0013490b 	andseq	r4, r3, fp, lsl #18
    11b4:	01010800 	tsteq	r1, r0, lsl #16
    11b8:	13011349 	movwne	r1, #4937	; 0x1349
    11bc:	21090000 	mrscs	r0, (UNDEF: 9)
    11c0:	2f134900 	svccs	0x00134900
    11c4:	0a00000b 	beq	11f8 <_start-0x6e08>
    11c8:	0b0b0113 	bleq	2c161c <__bss_end__+0x2b7654>
    11cc:	0b3b0b3a 	bleq	ec3ebc <__bss_end__+0xeb9ef4>
    11d0:	00001301 	andeq	r1, r0, r1, lsl #6
    11d4:	03000d0b 	movweq	r0, #3339	; 0xd0b
    11d8:	3b0b3a0e 	blcc	2cfa18 <__bss_end__+0x2c5a50>
    11dc:	3813490b 	ldmdacc	r3, {r0, r1, r3, r8, fp, lr}
    11e0:	0c00000b 	stceq	0, cr0, [r0], {11}
    11e4:	0b0b000f 	bleq	2c1228 <__bss_end__+0x2b7260>
    11e8:	0f0d0000 	svceq	0x000d0000
    11ec:	490b0b00 	stmdbmi	fp, {r8, r9, fp}
    11f0:	0e000013 	mcreq	0, 0, r0, cr0, cr3, {0}
    11f4:	13490026 	movtne	r0, #36902	; 0x9026
    11f8:	130f0000 	movwne	r0, #61440	; 0xf000
    11fc:	0b0e0301 	bleq	381e08 <__bss_end__+0x377e40>
    1200:	3b0b3a0b 	blcc	2cfa34 <__bss_end__+0x2c5a6c>
    1204:	0013010b 	andseq	r0, r3, fp, lsl #2
    1208:	000d1000 	andeq	r1, sp, r0
    120c:	0b3a0803 	bleq	e83220 <__bss_end__+0xe79258>
    1210:	13490b3b 	movtne	r0, #39739	; 0x9b3b
    1214:	00000b38 	andeq	r0, r0, r8, lsr fp
    1218:	03011311 	movweq	r1, #4881	; 0x1311
    121c:	3a050b0e 	bcc	143e5c <__bss_end__+0x139e94>
    1220:	010b3b0b 	tsteq	fp, fp, lsl #22
    1224:	12000013 	andne	r0, r0, #19
    1228:	0e03000d 	cdpeq	0, 0, cr0, cr3, cr13, {0}
    122c:	0b3b0b3a 	bleq	ec3f1c <__bss_end__+0xeb9f54>
    1230:	05381349 	ldreq	r1, [r8, #-841]!	; 0x349
    1234:	15130000 	ldrne	r0, [r3, #-0]
    1238:	00192700 	andseq	r2, r9, r0, lsl #14
    123c:	01151400 	tsteq	r5, r0, lsl #8
    1240:	13491927 	movtne	r1, #39207	; 0x9927
    1244:	00001301 	andeq	r1, r0, r1, lsl #6
    1248:	49000515 	stmdbmi	r0, {r0, r2, r4, r8, sl}
    124c:	16000013 			; <UNDEFINED> instruction: 0x16000013
    1250:	0e030113 	mcreq	1, 0, r0, cr3, cr3, {0}
    1254:	0b3a050b 	bleq	e82688 <__bss_end__+0xe786c0>
    1258:	1301053b 	movwne	r0, #5435	; 0x153b
    125c:	0d170000 	ldceq	0, cr0, [r7, #-0]
    1260:	3a0e0300 	bcc	381e68 <__bss_end__+0x377ea0>
    1264:	49053b0b 	stmdbmi	r5, {r0, r1, r3, r8, r9, fp, ip, sp}
    1268:	000b3813 	andeq	r3, fp, r3, lsl r8
    126c:	000d1800 	andeq	r1, sp, r0, lsl #16
    1270:	0b3a0e03 	bleq	e84a84 <__bss_end__+0xe7aabc>
    1274:	1349053b 	movtne	r0, #38203	; 0x953b
    1278:	00000538 	andeq	r0, r0, r8, lsr r5
    127c:	03011319 	movweq	r1, #4889	; 0x1319
    1280:	3a0b0b0e 	bcc	2c3ec0 <__bss_end__+0x2b9ef8>
    1284:	01053b0b 	tsteq	r5, fp, lsl #22
    1288:	1a000013 	bne	12dc <_start-0x6d24>
    128c:	0b0b0113 	bleq	2c16e0 <__bss_end__+0x2b7718>
    1290:	053b0b3a 	ldreq	r0, [fp, #-2874]!	; 0xb3a
    1294:	00001301 	andeq	r1, r0, r1, lsl #6
    1298:	0b01171b 	bleq	46f0c <__bss_end__+0x3cf44>
    129c:	3b0b3a0b 	blcc	2cfad0 <__bss_end__+0x2c5b08>
    12a0:	00130105 	andseq	r0, r3, r5, lsl #2
    12a4:	000d1c00 	andeq	r1, sp, r0, lsl #24
    12a8:	0b3a0e03 	bleq	e84abc <__bss_end__+0xe7aaf4>
    12ac:	1349053b 	movtne	r0, #38203	; 0x953b
    12b0:	151d0000 	ldrne	r0, [sp, #-0]
    12b4:	01192701 	tsteq	r9, r1, lsl #14
    12b8:	1e000013 	mcrne	0, 0, r0, cr0, cr3, {0}
    12bc:	0e030034 	mcreq	0, 0, r0, cr3, cr4, {1}
    12c0:	053b0b3a 	ldreq	r0, [fp, #-2874]!	; 0xb3a
    12c4:	193f1349 	ldmdbne	pc!, {r0, r3, r6, r8, r9, ip}	; <UNPREDICTABLE>
    12c8:	0000193c 	andeq	r1, r0, ip, lsr r9
    12cc:	0300341f 	movweq	r3, #1055	; 0x41f
    12d0:	3b0b3a0e 	blcc	2cfb10 <__bss_end__+0x2c5b48>
    12d4:	3f13490b 	svccc	0x0013490b
    12d8:	00193c19 	andseq	r3, r9, r9, lsl ip
    12dc:	00342000 	eorseq	r2, r4, r0
    12e0:	0b3a0e03 	bleq	e84af4 <__bss_end__+0xe7ab2c>
    12e4:	13490b3b 	movtne	r0, #39739	; 0x9b3b
    12e8:	00001802 	andeq	r1, r0, r2, lsl #16
    12ec:	3f012e21 	svccc	0x00012e21
    12f0:	3a0e0319 	bcc	381f5c <__bss_end__+0x377f94>
    12f4:	270b3b0b 	strcs	r3, [fp, -fp, lsl #22]
    12f8:	12011119 	andne	r1, r1, #1073741830	; 0x40000006
    12fc:	97184006 	ldrls	r4, [r8, -r6]
    1300:	13011942 	movwne	r1, #6466	; 0x1942
    1304:	05220000 	streq	r0, [r2, #-0]!
    1308:	3a080300 	bcc	201f10 <__bss_end__+0x1f7f48>
    130c:	490b3b0b 	stmdbmi	fp, {r0, r1, r3, r8, r9, fp, ip, sp}
    1310:	00180213 	andseq	r0, r8, r3, lsl r2
    1314:	002e2300 	eoreq	r2, lr, r0, lsl #6
    1318:	0e03193f 	mcreq	9, 0, r1, cr3, cr15, {1}
    131c:	0b3b0b3a 	bleq	ec400c <__bss_end__+0xeba044>
    1320:	01111927 	tsteq	r1, r7, lsr #18
    1324:	18400612 	stmdane	r0, {r1, r4, r9, sl}^
    1328:	00194297 	mulseq	r9, r7, r2
    132c:	012e2400 	teqeq	lr, r0, lsl #8
    1330:	0e03193f 	mcreq	9, 0, r1, cr3, cr15, {1}
    1334:	0b3b0b3a 	bleq	ec4024 <__bss_end__+0xeba05c>
    1338:	13491927 	movtne	r1, #39207	; 0x9927
    133c:	06120111 			; <UNDEFINED> instruction: 0x06120111
    1340:	42971840 	addsmi	r1, r7, #64, 16	; 0x400000
    1344:	00130119 	andseq	r0, r3, r9, lsl r1
    1348:	00052500 	andeq	r2, r5, r0, lsl #10
    134c:	0b3a0e03 	bleq	e84b60 <__bss_end__+0xe7ab98>
    1350:	13490b3b 	movtne	r0, #39739	; 0x9b3b
    1354:	00001702 	andeq	r1, r0, r2, lsl #14
    1358:	03003426 	movweq	r3, #1062	; 0x426
    135c:	3413490e 	ldrcc	r4, [r3], #-2318	; 0x90e
    1360:	00180219 	andseq	r0, r8, r9, lsl r2
    1364:	00342700 	eorseq	r2, r4, r0, lsl #14
    1368:	0b3a0803 	bleq	e8337c <__bss_end__+0xe793b4>
    136c:	13490b3b 	movtne	r0, #39739	; 0x9b3b
    1370:	00001702 	andeq	r1, r0, r2, lsl #14
    1374:	01828928 	orreq	r8, r2, r8, lsr #18
    1378:	31011101 	tstcc	r1, r1, lsl #2
    137c:	00130113 	andseq	r0, r3, r3, lsl r1
    1380:	828a2900 	addhi	r2, sl, #0, 18
    1384:	18020001 	stmdane	r2, {r0}
    1388:	00184291 	mulseq	r8, r1, r2
    138c:	82892a00 	addhi	r2, r9, #0, 20
    1390:	01110001 	tsteq	r1, r1
    1394:	00001331 	andeq	r1, r0, r1, lsr r3
    1398:	0300052b 	movweq	r0, #1323	; 0x52b
    139c:	3b0b3a08 	blcc	2cfbc4 <__bss_end__+0x2c5bfc>
    13a0:	0213490b 	andseq	r4, r3, #180224	; 0x2c000
    13a4:	2c000017 	stccs	0, cr0, [r0], {23}
    13a8:	0e030034 	mcreq	0, 0, r0, cr3, cr4, {1}
    13ac:	0b3b0b3a 	bleq	ec409c <__bss_end__+0xeba0d4>
    13b0:	17021349 	strne	r1, [r2, -r9, asr #6]
    13b4:	2e2d0000 	cdpcs	0, 2, cr0, cr13, cr0, {0}
    13b8:	03193f00 	tsteq	r9, #0, 30
    13bc:	3b0b3a0e 	blcc	2cfbfc <__bss_end__+0x2c5c34>
    13c0:	4919270b 	ldmdbmi	r9, {r0, r1, r3, r8, r9, sl, sp}
    13c4:	12011113 	andne	r1, r1, #-1073741820	; 0xc0000004
    13c8:	97184006 	ldrls	r4, [r8, -r6]
    13cc:	00001942 	andeq	r1, r0, r2, asr #18
    13d0:	3f002e2e 	svccc	0x00002e2e
    13d4:	6e193c19 	mrcvs	12, 0, r3, cr9, cr9, {0}
    13d8:	3a0e030e 	bcc	382018 <__bss_end__+0x378050>
    13dc:	000b3b0b 	andeq	r3, fp, fp, lsl #22
	...

Disassembly of section .debug_loc:

00000000 <.debug_loc>:
       0:	00000048 	andeq	r0, r0, r8, asr #32
       4:	00000053 	andeq	r0, r0, r3, asr r0
       8:	53500001 	cmppl	r0, #1
       c:	78000000 	stmdavc	r0, {}	; <UNPREDICTABLE>
      10:	01000000 	mrseq	r0, (UNDEF: 0)
      14:	00005400 	andeq	r5, r0, r0, lsl #8
      18:	00000000 	andeq	r0, r0, r0
      1c:	00780000 	rsbseq	r0, r8, r0
      20:	00830000 	addeq	r0, r3, r0
      24:	00010000 	andeq	r0, r1, r0
      28:	00008350 	andeq	r8, r0, r0, asr r3
      2c:	0000a000 	andeq	sl, r0, r0
      30:	54000100 	strpl	r0, [r0], #-256	; 0x100
      34:	000000a0 	andeq	r0, r0, r0, lsr #1
      38:	000000a4 	andeq	r0, r0, r4, lsr #1
      3c:	a4500001 	ldrbge	r0, [r0], #-1
      40:	b8000000 	stmdalt	r0, {}	; <UNPREDICTABLE>
      44:	01000000 	mrseq	r0, (UNDEF: 0)
      48:	00005400 	andeq	r5, r0, r0, lsl #8
	...
      54:	00040000 	andeq	r0, r4, r0
      58:	00010000 	andeq	r0, r1, r0
      5c:	00000450 	andeq	r0, r0, r0, asr r4
      60:	00000800 	andeq	r0, r0, r0, lsl #16
      64:	70000300 	andvc	r0, r0, r0, lsl #6
      68:	00009f48 	andeq	r9, r0, r8, asr #30
      6c:	00000000 	andeq	r0, r0, r0
      70:	00080000 	andeq	r0, r8, r0
      74:	000f0000 	andeq	r0, pc, r0
      78:	00010000 	andeq	r0, r1, r0
      7c:	00000f50 	andeq	r0, r0, r0, asr pc
      80:	00001800 	andeq	r1, r0, r0, lsl #16
      84:	f3000400 	vshl.u8	d0, d0, d0
      88:	009f5001 	addseq	r5, pc, r1
      8c:	00000000 	andeq	r0, r0, r0
      90:	18000000 	stmdane	r0, {}	; <UNPREDICTABLE>
      94:	23000000 	movwcs	r0, #0
      98:	01000000 	mrseq	r0, (UNDEF: 0)
      9c:	00235000 	eoreq	r5, r3, r0
      a0:	00300000 	eorseq	r0, r0, r0
      a4:	00010000 	andeq	r0, r1, r0
      a8:	00000054 	andeq	r0, r0, r4, asr r0
      ac:	00000000 	andeq	r0, r0, r0
      b0:	00003000 	andeq	r3, r0, r0
      b4:	00003400 	andeq	r3, r0, r0, lsl #8
      b8:	50000100 	andpl	r0, r0, r0, lsl #2
      bc:	00000034 	andeq	r0, r0, r4, lsr r0
      c0:	0000003c 	andeq	r0, r0, ip, lsr r0
      c4:	01f30004 	mvnseq	r0, r4
      c8:	00009f50 	andeq	r9, r0, r0, asr pc
      cc:	00000000 	andeq	r0, r0, r0
      d0:	003c0000 	eorseq	r0, ip, r0
      d4:	00400000 	subeq	r0, r0, r0
      d8:	00010000 	andeq	r0, r1, r0
      dc:	00004050 	andeq	r4, r0, r0, asr r0
      e0:	00004400 	andeq	r4, r0, r0, lsl #8
      e4:	70000400 	andvc	r0, r0, r0, lsl #8
      e8:	009f01b8 			; <UNDEFINED> instruction: 0x009f01b8
      ec:	00000000 	andeq	r0, r0, r0
      f0:	44000000 	strmi	r0, [r0], #-0
      f4:	68000000 	stmdavs	r0, {}	; <UNPREDICTABLE>
      f8:	01000000 	mrseq	r0, (UNDEF: 0)
      fc:	00685000 	rsbeq	r5, r8, r0
     100:	01100000 	tsteq	r0, r0
     104:	00010000 	andeq	r0, r1, r0
     108:	00011055 	andeq	r1, r1, r5, asr r0
     10c:	00012000 	andeq	r2, r1, r0
     110:	50000100 	andpl	r0, r0, r0, lsl #2
     114:	00000120 	andeq	r0, r0, r0, lsr #2
     118:	0000014c 	andeq	r0, r0, ip, asr #2
     11c:	00550001 	subseq	r0, r5, r1
     120:	00000000 	andeq	r0, r0, r0
     124:	44000000 	strmi	r0, [r0], #-0
     128:	6b000000 	blvs	130 <_start-0x7ed0>
     12c:	01000000 	mrseq	r0, (UNDEF: 0)
     130:	006b5100 	rsbeq	r5, fp, r0, lsl #2
     134:	01100000 	tsteq	r0, r0
     138:	00040000 	andeq	r0, r4, r0
     13c:	9f5101f3 	svcls	0x005101f3
     140:	00000110 	andeq	r0, r0, r0, lsl r1
     144:	00000124 	andeq	r0, r0, r4, lsr #2
     148:	24510001 	ldrbcs	r0, [r1], #-1
     14c:	4c000001 	stcmi	0, cr0, [r0], {1}
     150:	04000001 	streq	r0, [r0], #-1
     154:	5101f300 	mrspl	pc, SP_irq	; <UNPREDICTABLE>
     158:	0000009f 	muleq	r0, pc, r0	; <UNPREDICTABLE>
     15c:	00000000 	andeq	r0, r0, r0
     160:	00004400 	andeq	r4, r0, r0, lsl #8
     164:	00006b00 	andeq	r6, r0, r0, lsl #22
     168:	52000100 	andpl	r0, r0, #0, 2
     16c:	0000006b 	andeq	r0, r0, fp, rrx
     170:	00000110 	andeq	r0, r0, r0, lsl r1
     174:	01f30004 	mvnseq	r0, r4
     178:	01109f52 	tsteq	r0, r2, asr pc
     17c:	01240000 	teqeq	r4, r0
     180:	00010000 	andeq	r0, r1, r0
     184:	00012452 	andeq	r2, r1, r2, asr r4
     188:	00014c00 	andeq	r4, r1, r0, lsl #24
     18c:	f3000400 	vshl.u8	d0, d0, d0
     190:	009f5201 	addseq	r5, pc, r1, lsl #4
     194:	00000000 	andeq	r0, r0, r0
     198:	4c000000 	stcmi	0, cr0, [r0], {-0}
     19c:	54000000 	strpl	r0, [r0], #-0
     1a0:	02000000 	andeq	r0, r0, #0
     1a4:	549f3000 	ldrpl	r3, [pc], #0	; 1ac <_start-0x7e54>
     1a8:	6b000000 	blvs	1b0 <_start-0x7e50>
     1ac:	01000000 	mrseq	r0, (UNDEF: 0)
     1b0:	01105300 	tsteq	r0, r0, lsl #6
     1b4:	01240000 	teqeq	r4, r0
     1b8:	00010000 	andeq	r0, r1, r0
     1bc:	00000053 	andeq	r0, r0, r3, asr r0
     1c0:	00000000 	andeq	r0, r0, r0
     1c4:	00007000 	andeq	r7, r0, r0
     1c8:	00007c00 	andeq	r7, r0, r0, lsl #24
     1cc:	50000100 	andpl	r0, r0, r0, lsl #2
     1d0:	0000007c 	andeq	r0, r0, ip, ror r0
     1d4:	00000110 	andeq	r0, r0, r0, lsl r1
     1d8:	24570001 	ldrbcs	r0, [r7], #-1
     1dc:	4c000001 	stcmi	0, cr0, [r0], {1}
     1e0:	01000001 	tsteq	r0, r1
     1e4:	00005700 	andeq	r5, r0, r0, lsl #14
     1e8:	00000000 	andeq	r0, r0, r0
     1ec:	00740000 	rsbseq	r0, r4, r0
     1f0:	01100000 	tsteq	r0, r0
     1f4:	00010000 	andeq	r0, r1, r0
     1f8:	00012454 	andeq	r2, r1, r4, asr r4
     1fc:	00014c00 	andeq	r4, r1, r0, lsl #24
     200:	54000100 	strpl	r0, [r0], #-256	; 0x100
	...
     20c:	00000098 	muleq	r0, r8, r0
     210:	00000110 	andeq	r0, r0, r0, lsl r1
     214:	24550001 	ldrbcs	r0, [r5], #-1
     218:	4c000001 	stcmi	0, cr0, [r0], {1}
     21c:	01000001 	tsteq	r0, r1
     220:	00005500 	andeq	r5, r0, r0, lsl #10
     224:	00000000 	andeq	r0, r0, r0
     228:	00ac0000 	adceq	r0, ip, r0
     22c:	00d40000 	sbcseq	r0, r4, r0
     230:	00030000 	andeq	r0, r3, r0
     234:	d49f1075 	ldrle	r1, [pc], #117	; 23c <_start-0x7dc4>
     238:	10000000 	andne	r0, r0, r0
     23c:	03000001 	movweq	r0, #1
     240:	9f1c7500 	svcls	0x001c7500
     244:	00000124 	andeq	r0, r0, r4, lsr #2
     248:	0000014c 	andeq	r0, r0, ip, asr #2
     24c:	1c750003 	ldclne	0, cr0, [r5], #-12
     250:	0000009f 	muleq	r0, pc, r0	; <UNPREDICTABLE>
     254:	00000000 	andeq	r0, r0, r0
     258:	00014c00 	andeq	r4, r1, r0, lsl #24
     25c:	00015b00 	andeq	r5, r1, r0, lsl #22
     260:	50000100 	andpl	r0, r0, r0, lsl #2
     264:	0000015b 	andeq	r0, r0, fp, asr r1
     268:	00000160 	andeq	r0, r0, r0, ror #2
     26c:	01f30004 	mvnseq	r0, r4
     270:	00009f50 	andeq	r9, r0, r0, asr pc
     274:	00000000 	andeq	r0, r0, r0
     278:	014c0000 	mrseq	r0, (UNDEF: 76)
     27c:	01580000 	cmpeq	r8, r0
     280:	00010000 	andeq	r0, r1, r0
     284:	00015851 	andeq	r5, r1, r1, asr r8
     288:	00015b00 	andeq	r5, r1, r0, lsl #22
     28c:	52000100 	andpl	r0, r0, #0, 2
     290:	0000015b 	andeq	r0, r0, fp, asr r1
     294:	00000160 	andeq	r0, r0, r0, ror #2
     298:	01f30004 	mvnseq	r0, r4
     29c:	00009f51 	andeq	r9, r0, r1, asr pc
     2a0:	00000000 	andeq	r0, r0, r0
     2a4:	01600000 	cmneq	r0, r0
     2a8:	017b0000 	cmneq	fp, r0
     2ac:	00010000 	andeq	r0, r1, r0
     2b0:	00017b50 	andeq	r7, r1, r0, asr fp
     2b4:	00018400 	andeq	r8, r1, r0, lsl #8
     2b8:	54000100 	strpl	r0, [r0], #-256	; 0x100
	...
     2c4:	00000184 	andeq	r0, r0, r4, lsl #3
     2c8:	0000018f 	andeq	r0, r0, pc, lsl #3
     2cc:	8f500001 	svchi	0x00500001
     2d0:	20000001 	andcs	r0, r0, r1
     2d4:	01000002 	tsteq	r0, r2
     2d8:	00005400 	andeq	r5, r0, r0, lsl #8
     2dc:	00000000 	andeq	r0, r0, r0
     2e0:	01940000 	orrseq	r0, r4, r0
     2e4:	01980000 	orrseq	r0, r8, r0
     2e8:	00010000 	andeq	r0, r1, r0
     2ec:	00019850 	andeq	r9, r1, r0, asr r8
     2f0:	00022000 	andeq	r2, r2, r0
     2f4:	55000100 	strpl	r0, [r0, #-256]	; 0x100
	...
     300:	00000220 	andeq	r0, r0, r0, lsr #4
     304:	0000022b 	andeq	r0, r0, fp, lsr #4
     308:	2b500001 	blcs	1400314 <__bss_end__+0x13f634c>
     30c:	a0000002 	andge	r0, r0, r2
     310:	01000002 	tsteq	r0, r2
     314:	00005400 	andeq	r5, r0, r0, lsl #8
     318:	00000000 	andeq	r0, r0, r0
     31c:	02a00000 	adceq	r0, r0, #0
     320:	02bf0000 	adcseq	r0, pc, #0
     324:	00010000 	andeq	r0, r1, r0
     328:	0002bf50 	andeq	fp, r2, r0, asr pc
     32c:	0002d800 	andeq	sp, r2, r0, lsl #16
     330:	54000100 	strpl	r0, [r0], #-256	; 0x100
     334:	000002d8 	ldrdeq	r0, [r0], -r8
     338:	000002dc 	ldrdeq	r0, [r0], -ip
     33c:	dc500001 	mrrcle	0, 0, r0, r0, cr1	; <UNPREDICTABLE>
     340:	f8000002 			; <UNDEFINED> instruction: 0xf8000002
     344:	01000002 	tsteq	r0, r2
     348:	02f85400 	rscseq	r5, r8, #0, 8
     34c:	03140000 	tsteq	r4, #0
     350:	00050000 	andeq	r0, r5, r0
     354:	009bb803 	addseq	fp, fp, r3, lsl #16
	...
     360:	0002a000 	andeq	sl, r2, r0
     364:	0002bf00 	andeq	fp, r2, r0, lsl #30
     368:	51000100 	mrspl	r0, (UNDEF: 16)
     36c:	000002bf 			; <UNDEFINED> instruction: 0x000002bf
     370:	000002d8 	ldrdeq	r0, [r0], -r8
     374:	d8550001 	ldmdale	r5, {r0}^
     378:	e0000002 	and	r0, r0, r2
     37c:	01000002 	tsteq	r0, r2
     380:	02e05100 	rsceq	r5, r0, #0, 2
     384:	03140000 	tsteq	r4, #0
     388:	00010000 	andeq	r0, r1, r0
     38c:	00000055 	andeq	r0, r0, r5, asr r0
     390:	00000000 	andeq	r0, r0, r0
     394:	00031400 	andeq	r1, r3, r0, lsl #8
     398:	00032c00 	andeq	r2, r3, r0, lsl #24
     39c:	50000100 	andpl	r0, r0, r0, lsl #2
     3a0:	0000032c 	andeq	r0, r0, ip, lsr #6
     3a4:	000003d4 	ldrdeq	r0, [r0], -r4
     3a8:	00550001 	subseq	r0, r5, r1
     3ac:	00000000 	andeq	r0, r0, r0
     3b0:	14000000 	strne	r0, [r0], #-0
     3b4:	3b000003 	blcc	3c8 <_start-0x7c38>
     3b8:	01000003 	tsteq	r0, r3
     3bc:	033b5100 	teqeq	fp, #0, 2
     3c0:	03540000 	cmpeq	r4, #0
     3c4:	00010000 	andeq	r0, r1, r0
     3c8:	00035458 	andeq	r5, r3, r8, asr r4
     3cc:	00035b00 	andeq	r5, r3, r0, lsl #22
     3d0:	51000100 	mrspl	r0, (UNDEF: 16)
     3d4:	0000035b 	andeq	r0, r0, fp, asr r3
     3d8:	000003d4 	ldrdeq	r0, [r0], -r4
     3dc:	00580001 	subseq	r0, r8, r1
     3e0:	00000000 	andeq	r0, r0, r0
     3e4:	14000000 	strne	r0, [r0], #-0
     3e8:	3b000003 	blcc	3fc <_start-0x7c04>
     3ec:	01000003 	tsteq	r0, r3
     3f0:	033b5200 	teqeq	fp, #0, 4
     3f4:	03540000 	cmpeq	r4, #0
     3f8:	00010000 	andeq	r0, r1, r0
     3fc:	00035457 	andeq	r5, r3, r7, asr r4
     400:	00035b00 	andeq	r5, r3, r0, lsl #22
     404:	52000100 	andpl	r0, r0, #0, 2
     408:	0000035b 	andeq	r0, r0, fp, asr r3
     40c:	000003d4 	ldrdeq	r0, [r0], -r4
     410:	00570001 	subseq	r0, r7, r1
     414:	00000000 	andeq	r0, r0, r0
     418:	14000000 	strne	r0, [r0], #-0
     41c:	3b000003 	blcc	430 <_start-0x7bd0>
     420:	01000003 	tsteq	r0, r3
     424:	033b5300 	teqeq	fp, #0, 6
     428:	03540000 	cmpeq	r4, #0
     42c:	00010000 	andeq	r0, r1, r0
     430:	00035456 	andeq	r5, r3, r6, asr r4
     434:	00035b00 	andeq	r5, r3, r0, lsl #22
     438:	53000100 	movwpl	r0, #256	; 0x100
     43c:	0000035b 	andeq	r0, r0, fp, asr r3
     440:	000003d4 	ldrdeq	r0, [r0], -r4
     444:	00560001 	subseq	r0, r6, r1
     448:	00000000 	andeq	r0, r0, r0
     44c:	28000000 	stmdacs	r0, {}	; <UNPREDICTABLE>
     450:	74000003 	strvc	r0, [r0], #-3
     454:	02000003 	andeq	r0, r0, #3
     458:	749f3000 	ldrvc	r3, [pc], #0	; 460 <_start-0x7ba0>
     45c:	77000003 	strvc	r0, [r0, -r3]
     460:	01000003 	tsteq	r0, r3
     464:	03775000 	cmneq	r7, #0
     468:	03d40000 	bicseq	r0, r4, #0
     46c:	00010000 	andeq	r0, r1, r0
     470:	00000054 	andeq	r0, r0, r4, asr r0
     474:	00000000 	andeq	r0, r0, r0
     478:	0003d400 	andeq	sp, r3, r0, lsl #8
     47c:	0003ff00 	andeq	pc, r3, r0, lsl #30
     480:	50000100 	andpl	r0, r0, r0, lsl #2
     484:	000003ff 	strdeq	r0, [r0], -pc	; <UNPREDICTABLE>
     488:	00000418 	andeq	r0, r0, r8, lsl r4
     48c:	18550001 	ldmdane	r5, {r0}^
     490:	1c000004 	stcne	0, cr0, [r0], {4}
     494:	01000004 	tsteq	r0, r4
     498:	041c5000 	ldreq	r5, [ip], #-0
     49c:	05e80000 	strbeq	r0, [r8, #0]!
     4a0:	00010000 	andeq	r0, r1, r0
     4a4:	0005e855 	andeq	lr, r5, r5, asr r8
     4a8:	00062000 	andeq	r2, r6, r0
     4ac:	f3000400 	vshl.u8	d0, d0, d0
     4b0:	009f5001 	addseq	r5, pc, r1
     4b4:	00000000 	andeq	r0, r0, r0
     4b8:	d4000000 	strle	r0, [r0], #-0
     4bc:	ff000003 			; <UNDEFINED> instruction: 0xff000003
     4c0:	01000003 	tsteq	r0, r3
     4c4:	03ff5100 	mvnseq	r5, #0, 2
     4c8:	04180000 	ldreq	r0, [r8], #-0
     4cc:	00010000 	andeq	r0, r1, r0
     4d0:	00041859 	andeq	r1, r4, r9, asr r8
     4d4:	00041f00 	andeq	r1, r4, r0, lsl #30
     4d8:	51000100 	mrspl	r0, (UNDEF: 16)
     4dc:	0000041f 	andeq	r0, r0, pc, lsl r4
     4e0:	000005e8 	andeq	r0, r0, r8, ror #11
     4e4:	e8590001 	ldmda	r9, {r0}^
     4e8:	20000005 	andcs	r0, r0, r5
     4ec:	04000006 	streq	r0, [r0], #-6
     4f0:	5101f300 	mrspl	pc, SP_irq	; <UNPREDICTABLE>
     4f4:	0000009f 	muleq	r0, pc, r0	; <UNPREDICTABLE>
     4f8:	00000000 	andeq	r0, r0, r0
     4fc:	0003d400 	andeq	sp, r3, r0, lsl #8
     500:	0003ff00 	andeq	pc, r3, r0, lsl #30
     504:	52000100 	andpl	r0, r0, #0, 2
     508:	000003ff 	strdeq	r0, [r0], -pc	; <UNPREDICTABLE>
     50c:	00000418 	andeq	r0, r0, r8, lsl r4
     510:	18580001 	ldmdane	r8, {r0}^
     514:	1f000004 	svcne	0x00000004
     518:	01000004 	tsteq	r0, r4
     51c:	041f5200 	ldreq	r5, [pc], #-512	; 524 <_start-0x7adc>
     520:	05e80000 	strbeq	r0, [r8, #0]!
     524:	00010000 	andeq	r0, r1, r0
     528:	0005e858 	andeq	lr, r5, r8, asr r8
     52c:	00062000 	andeq	r2, r6, r0
     530:	f3000400 	vshl.u8	d0, d0, d0
     534:	009f5201 	addseq	r5, pc, r1, lsl #4
     538:	00000000 	andeq	r0, r0, r0
     53c:	d4000000 	strle	r0, [r0], #-0
     540:	f0000003 			; <UNDEFINED> instruction: 0xf0000003
     544:	01000003 	tsteq	r0, r3
     548:	03f05300 	mvnseq	r5, #0, 6
     54c:	05380000 	ldreq	r0, [r8, #-0]!
     550:	00010000 	andeq	r0, r1, r0
     554:	00053857 	andeq	r3, r5, r7, asr r8
     558:	00062000 	andeq	r2, r6, r0
     55c:	f3000400 	vshl.u8	d0, d0, d0
     560:	009f5301 	addseq	r5, pc, r1, lsl #6
     564:	00000000 	andeq	r0, r0, r0
     568:	ec000000 	stc	0, cr0, [r0], {-0}
     56c:	e0000003 	and	r0, r0, r3
     570:	02000004 	andeq	r0, r0, #4
     574:	e09f3000 	adds	r3, pc, r0
     578:	e8000004 	stmda	r0, {r2}
     57c:	01000005 	tsteq	r0, r5
     580:	00005400 	andeq	r5, r0, r0, lsl #8
     584:	00000000 	andeq	r0, r0, r0
     588:	03ec0000 	mvneq	r0, #0
     58c:	05680000 	strbeq	r0, [r8, #-0]!
     590:	00020000 	andeq	r0, r2, r0
     594:	05689f30 	strbeq	r9, [r8, #-3888]!	; 0xf30
     598:	056c0000 	strbeq	r0, [ip, #-0]!
     59c:	00010000 	andeq	r0, r1, r0
     5a0:	00056c50 	andeq	r6, r5, r0, asr ip
     5a4:	0005e800 	andeq	lr, r5, r0, lsl #16
     5a8:	57000100 	strpl	r0, [r0, -r0, lsl #2]
     5ac:	000005e8 	andeq	r0, r0, r8, ror #11
     5b0:	00000620 	andeq	r0, r0, r0, lsr #12
     5b4:	00500001 	subseq	r0, r0, r1
     5b8:	00000000 	andeq	r0, r0, r0
     5bc:	34000000 	strcc	r0, [r0], #-0
     5c0:	47000004 	strmi	r0, [r0, -r4]
     5c4:	01000004 	tsteq	r0, r4
     5c8:	04475c00 	strbeq	r5, [r7], #-3072	; 0xc00
     5cc:	04740000 	ldrbteq	r0, [r4], #-0
     5d0:	00040000 	andeq	r0, r4, r0
     5d4:	9f7dc876 	svcls	0x007dc876
     5d8:	00000474 	andeq	r0, r0, r4, ror r4
     5dc:	00000493 	muleq	r0, r3, r4
     5e0:	935c0001 	cmpls	ip, #1
     5e4:	e0000004 	and	r0, r0, r4
     5e8:	04000004 	streq	r0, [r0], #-4
     5ec:	7dc87600 	stclvc	6, cr7, [r8]
     5f0:	0004e09f 	muleq	r4, pc, r0	; <UNPREDICTABLE>
     5f4:	0004e800 	andeq	lr, r4, r0, lsl #16
     5f8:	5c000100 	stfpls	f0, [r0], {-0}
     5fc:	000004e8 	andeq	r0, r0, r8, ror #9
     600:	000005e8 	andeq	r0, r0, r8, ror #11
     604:	c8760004 	ldmdagt	r6!, {r2}^
     608:	05e89f7d 	strbeq	r9, [r8, #3965]!	; 0xf7d
     60c:	06200000 	strteq	r0, [r0], -r0
     610:	00090000 	andeq	r0, r9, r0
     614:	235001f3 	cmpcs	r0, #-1073741764	; 0xc000003c
     618:	1af80907 	bne	ffe02a3c <__bss_end__+0xffdf8a74>
     61c:	0000009f 	muleq	r0, pc, r0	; <UNPREDICTABLE>
     620:	00000000 	andeq	r0, r0, r0
     624:	00043800 	andeq	r3, r4, r0, lsl #16
     628:	0005e800 	andeq	lr, r5, r0, lsl #16
     62c:	56000100 	strpl	r0, [r0], -r0, lsl #2
     630:	000005e8 	andeq	r0, r0, r8, ror #11
     634:	00000620 	andeq	r0, r0, r0, lsr #12
     638:	01f3000c 	mvnseq	r0, ip
     63c:	09072350 	stmdbeq	r7, {r4, r6, r8, r9, sp}
     640:	b8231af8 	stmdalt	r3!, {r3, r4, r5, r6, r7, r9, fp, ip}
     644:	00009f02 	andeq	r9, r0, r2, lsl #30
     648:	00000000 	andeq	r0, r0, r0
     64c:	04e00000 	strbteq	r0, [r0], #0
     650:	05e80000 	strbeq	r0, [r8, #0]!
     654:	00040000 	andeq	r0, r4, r0
     658:	9f01b876 	svcls	0x0001b876
     65c:	000005e8 	andeq	r0, r0, r8, ror #11
     660:	00000620 	andeq	r0, r0, r0, lsr #12
     664:	01f3000c 	mvnseq	r0, ip
     668:	09072350 	stmdbeq	r7, {r4, r6, r8, r9, sp}
     66c:	f0231af8 			; <UNDEFINED> instruction: 0xf0231af8
     670:	00009f03 	andeq	r9, r0, r3, lsl #30
     674:	00000000 	andeq	r0, r0, r0
     678:	06340000 	ldrteq	r0, [r4], -r0
     67c:	06600000 	strbteq	r0, [r0], -r0
     680:	00010000 	andeq	r0, r1, r0
     684:	00000056 	andeq	r0, r0, r6, asr r0
     688:	00000000 	andeq	r0, r0, r0
     68c:	00063c00 	andeq	r3, r6, r0, lsl #24
     690:	00065c00 	andeq	r5, r6, r0, lsl #24
     694:	55000100 	strpl	r0, [r0, #-256]	; 0x100
	...
     6a0:	00000654 	andeq	r0, r0, r4, asr r6
     6a4:	00000670 	andeq	r0, r0, r0, ror r6
     6a8:	9f300002 	svcls	0x00300002
     6ac:	00000670 	andeq	r0, r0, r0, ror r6
     6b0:	00000768 	andeq	r0, r0, r8, ror #14
     6b4:	00560001 	subseq	r0, r6, r1
     6b8:	00000000 	andeq	r0, r0, r0
     6bc:	54000000 	strpl	r0, [r0], #-0
     6c0:	70000006 	andvc	r0, r0, r6
     6c4:	02000006 	andeq	r0, r0, #6
     6c8:	709f3000 	addsvc	r3, pc, r0
     6cc:	68000006 	stmdavs	r0, {r1, r2}
     6d0:	01000007 	tsteq	r0, r7
     6d4:	00005500 	andeq	r5, r0, r0, lsl #10
     6d8:	00000000 	andeq	r0, r0, r0
     6dc:	06700000 	ldrbteq	r0, [r0], -r0
     6e0:	06fc0000 	ldrbteq	r0, [ip], r0
     6e4:	00010000 	andeq	r0, r1, r0
     6e8:	00000054 	andeq	r0, r0, r4, asr r0
	...
     6f4:	00002400 	andeq	r2, r0, r0, lsl #8
     6f8:	50000100 	andpl	r0, r0, r0, lsl #2
     6fc:	00000024 	andeq	r0, r0, r4, lsr #32
     700:	000000e4 	andeq	r0, r0, r4, ror #1
     704:	01f30004 	mvnseq	r0, r4
     708:	00e49f50 	rsceq	r9, r4, r0, asr pc
     70c:	00e80000 	rsceq	r0, r8, r0
     710:	00010000 	andeq	r0, r1, r0
     714:	0000e850 	andeq	lr, r0, r0, asr r8
     718:	0000f000 	andeq	pc, r0, r0
     71c:	f3000400 	vshl.u8	d0, d0, d0
     720:	009f5001 	addseq	r5, pc, r1
	...
     72c:	20000000 	andcs	r0, r0, r0
     730:	01000000 	mrseq	r0, (UNDEF: 0)
     734:	00205100 	eoreq	r5, r0, r0, lsl #2
     738:	00800000 	addeq	r0, r0, r0
     73c:	00010000 	andeq	r0, r1, r0
     740:	00009c51 	andeq	r9, r0, r1, asr ip
     744:	0000a000 	andeq	sl, r0, r0
     748:	51000100 	mrspl	r0, (UNDEF: 16)
     74c:	000000b8 	strheq	r0, [r0], -r8
     750:	000000c8 	andeq	r0, r0, r8, asr #1
     754:	e4510001 	ldrb	r0, [r1], #-1
     758:	e8000000 	stmda	r0, {}	; <UNPREDICTABLE>
     75c:	01000000 	mrseq	r0, (UNDEF: 0)
     760:	00005100 	andeq	r5, r0, r0, lsl #2
     764:	00000000 	andeq	r0, r0, r0
     768:	00040000 	andeq	r0, r4, r0
     76c:	00240000 	eoreq	r0, r4, r0
     770:	00010000 	andeq	r0, r1, r0
     774:	00002450 	andeq	r2, r0, r0, asr r4
     778:	00009000 	andeq	r9, r0, r0
     77c:	53000100 	movwpl	r0, #256	; 0x100
     780:	0000009c 	muleq	r0, ip, r0
     784:	000000a4 	andeq	r0, r0, r4, lsr #1
     788:	b8530001 	ldmdalt	r3, {r0}^
     78c:	bc000000 	stclt	0, cr0, [r0], {-0}
     790:	01000000 	mrseq	r0, (UNDEF: 0)
     794:	00e45300 	rsceq	r5, r4, r0, lsl #6
     798:	00e80000 	rsceq	r0, r8, r0
     79c:	00010000 	andeq	r0, r1, r0
     7a0:	00000050 	andeq	r0, r0, r0, asr r0
     7a4:	00000000 	andeq	r0, r0, r0
     7a8:	00000800 	andeq	r0, r0, r0, lsl #16
     7ac:	00002000 	andeq	r2, r0, r0
     7b0:	51000100 	mrspl	r0, (UNDEF: 16)
     7b4:	00000020 	andeq	r0, r0, r0, lsr #32
     7b8:	00000034 	andeq	r0, r0, r4, lsr r0
     7bc:	34520001 	ldrbcc	r0, [r2], #-1
     7c0:	48000000 	stmdami	r0, {}	; <UNPREDICTABLE>
     7c4:	01000000 	mrseq	r0, (UNDEF: 0)
     7c8:	00485000 	subeq	r5, r8, r0
     7cc:	00cc0000 	sbceq	r0, ip, r0
     7d0:	00010000 	andeq	r0, r1, r0
     7d4:	0000cc52 	andeq	ip, r0, r2, asr ip
     7d8:	0000e000 	andeq	lr, r0, r0
     7dc:	50000100 	andpl	r0, r0, r0, lsl #2
     7e0:	000000e4 	andeq	r0, r0, r4, ror #1
     7e4:	000000e8 	andeq	r0, r0, r8, ror #1
     7e8:	00510001 	subseq	r0, r1, r1
     7ec:	00000000 	andeq	r0, r0, r0
     7f0:	44000000 	strmi	r0, [r0], #-0
     7f4:	48000000 	stmdami	r0, {}	; <UNPREDICTABLE>
     7f8:	01000000 	mrseq	r0, (UNDEF: 0)
     7fc:	00485200 	subeq	r5, r8, r0, lsl #4
     800:	004c0000 	subeq	r0, ip, r0
     804:	00120000 	andseq	r0, r2, r0
     808:	2438007c 	ldrtcs	r0, [r8], #-124	; 0x7c
     80c:	01940273 	orrseq	r0, r4, r3, ror r2
     810:	221aff08 	andscs	pc, sl, #8, 30
     814:	0070243b 	rsbseq	r2, r0, fp, lsr r4
     818:	004c9f27 	subeq	r9, ip, r7, lsr #30
     81c:	00540000 	subseq	r0, r4, r0
     820:	00120000 	andseq	r0, r2, r0
     824:	2438007c 	ldrtcs	r0, [r8], #-124	; 0x7c
     828:	01947e73 	orrseq	r7, r4, r3, ror lr
     82c:	221aff08 	andscs	pc, sl, #8, 30
     830:	0070243b 	rsbseq	r2, r0, fp, lsr r4
     834:	00009f27 	andeq	r9, r0, r7, lsr #30
     838:	00000000 	andeq	r0, r0, r0
     83c:	001c0000 	andseq	r0, ip, r0
     840:	00e40000 	rsceq	r0, r4, r0
     844:	00010000 	andeq	r0, r1, r0
     848:	00000054 	andeq	r0, r0, r4, asr r0
	...
     854:	00000400 	andeq	r0, r0, r0, lsl #8
     858:	52000100 	andpl	r0, r0, #0, 2
     85c:	00000004 	andeq	r0, r0, r4
     860:	00000020 	andeq	r0, r0, r0, lsr #32
     864:	01f30004 	mvnseq	r0, r4
     868:	00009f52 	andeq	r9, r0, r2, asr pc
	...
     874:	000c0000 	andeq	r0, ip, r0
     878:	00010000 	andeq	r0, r1, r0
     87c:	00000c50 	andeq	r0, r0, r0, asr ip
     880:	00001400 	andeq	r1, r0, r0, lsl #8
     884:	73000300 	movwvc	r0, #768	; 0x300
     888:	00149f01 	andseq	r9, r4, r1, lsl #30
     88c:	00200000 	eoreq	r0, r0, r0
     890:	00010000 	andeq	r0, r1, r0
     894:	00000053 	andeq	r0, r0, r3, asr r0
     898:	00000000 	andeq	r0, r0, r0
     89c:	00002c00 	andeq	r2, r0, r0, lsl #24
     8a0:	00003800 	andeq	r3, r0, r0, lsl #16
     8a4:	50000100 	andpl	r0, r0, r0, lsl #2
     8a8:	00000038 	andeq	r0, r0, r8, lsr r0
     8ac:	00000048 	andeq	r0, r0, r8, asr #32
     8b0:	48550001 	ldmdami	r5, {r0}^
     8b4:	58000000 	stmdapl	r0, {}	; <UNPREDICTABLE>
     8b8:	01000000 	mrseq	r0, (UNDEF: 0)
     8bc:	00005000 	andeq	r5, r0, r0
	...
     8c8:	000b0000 	andeq	r0, fp, r0
     8cc:	00010000 	andeq	r0, r1, r0
     8d0:	00000b50 	andeq	r0, r0, r0, asr fp
     8d4:	00001400 	andeq	r1, r0, r0, lsl #8
     8d8:	54000100 	strpl	r0, [r0], #-256	; 0x100
	...
     8e8:	00000010 	andeq	r0, r0, r0, lsl r0
     8ec:	10500001 	subsne	r0, r0, r1
     8f0:	34000000 	strcc	r0, [r0], #-0
     8f4:	01000000 	mrseq	r0, (UNDEF: 0)
     8f8:	00005400 	andeq	r5, r0, r0, lsl #8
	...
     904:	00040000 	andeq	r0, r4, r0
     908:	00010000 	andeq	r0, r1, r0
     90c:	00000450 	andeq	r0, r0, r0, asr r4
     910:	00000c00 	andeq	r0, r0, r0, lsl #24
     914:	70000300 	andvc	r0, r0, r0, lsl #6
     918:	000c9f30 	andeq	r9, ip, r0, lsr pc
     91c:	00140000 	andseq	r0, r4, r0
     920:	00040000 	andeq	r0, r4, r0
     924:	9f5001f3 	svcls	0x005001f3
	...
     930:	00000014 	andeq	r0, r0, r4, lsl r0
     934:	00000020 	andeq	r0, r0, r0, lsr #32
     938:	20500001 	subscs	r0, r0, r1
     93c:	2c000000 	stccs	0, cr0, [r0], {-0}
     940:	03000000 	movweq	r0, #0
     944:	9f017000 	svcls	0x00017000
     948:	0000002c 	andeq	r0, r0, ip, lsr #32
     94c:	00000040 	andeq	r0, r0, r0, asr #32
     950:	00500001 	subseq	r0, r0, r1
     954:	00000000 	andeq	r0, r0, r0
     958:	14000000 	strne	r0, [r0], #-0
     95c:	18000000 	stmdane	r0, {}	; <UNPREDICTABLE>
     960:	01000000 	mrseq	r0, (UNDEF: 0)
     964:	00185100 	andseq	r5, r8, r0, lsl #2
     968:	00400000 	subeq	r0, r0, r0
     96c:	00040000 	andeq	r0, r4, r0
     970:	9f5101f3 	svcls	0x005101f3
	...
     97c:	00000040 	andeq	r0, r0, r0, asr #32
     980:	00000060 	andeq	r0, r0, r0, rrx
     984:	60500001 	subsvs	r0, r0, r1
     988:	6c000000 	stcvs	0, cr0, [r0], {-0}
     98c:	03000000 	movweq	r0, #0
     990:	9f017100 	svcls	0x00017100
     994:	0000006c 	andeq	r0, r0, ip, rrx
     998:	00000074 	andeq	r0, r0, r4, ror r0
     99c:	74510001 	ldrbvc	r0, [r1], #-1
     9a0:	80000000 	andhi	r0, r0, r0
     9a4:	03000000 	movweq	r0, #0
     9a8:	9f017100 	svcls	0x00017100
	...
     9b4:	00000040 	andeq	r0, r0, r0, asr #32
     9b8:	00000050 	andeq	r0, r0, r0, asr r0
     9bc:	50510001 	subspl	r0, r1, r1
     9c0:	80000000 	andhi	r0, r0, r0
     9c4:	04000000 	streq	r0, [r0], #-0
     9c8:	5101f300 	mrspl	pc, SP_irq	; <UNPREDICTABLE>
     9cc:	0000009f 	muleq	r0, pc, r0	; <UNPREDICTABLE>
     9d0:	00000000 	andeq	r0, r0, r0
     9d4:	00004000 	andeq	r4, r0, r0
     9d8:	00005800 	andeq	r5, r0, r0, lsl #16
     9dc:	52000100 	andpl	r0, r0, #0, 2
     9e0:	00000058 	andeq	r0, r0, r8, asr r0
     9e4:	00000064 	andeq	r0, r0, r4, rrx
     9e8:	64520001 	ldrbvs	r0, [r2], #-1
     9ec:	68000000 	stmdavs	r0, {}	; <UNPREDICTABLE>
     9f0:	03000000 	movweq	r0, #0
     9f4:	9f017200 	svcls	0x00017200
     9f8:	00000068 	andeq	r0, r0, r8, rrx
     9fc:	00000080 	andeq	r0, r0, r0, lsl #1
     a00:	00520001 	subseq	r0, r2, r1
     a04:	00000000 	andeq	r0, r0, r0
     a08:	40000000 	andmi	r0, r0, r0
     a0c:	54000000 	strpl	r0, [r0], #-0
     a10:	01000000 	mrseq	r0, (UNDEF: 0)
     a14:	00545300 	subseq	r5, r4, r0, lsl #6
     a18:	00780000 	rsbseq	r0, r8, r0
     a1c:	00010000 	andeq	r0, r1, r0
     a20:	00000053 	andeq	r0, r0, r3, asr r0
     a24:	00000000 	andeq	r0, r0, r0
     a28:	00004800 	andeq	r4, r0, r0, lsl #16
     a2c:	00006000 	andeq	r6, r0, r0
     a30:	5c000100 	stfpls	f0, [r0], {-0}
     a34:	00000060 	andeq	r0, r0, r0, rrx
     a38:	00000080 	andeq	r0, r0, r0, lsl #1
     a3c:	01f3000a 	mvnseq	r0, sl
     a40:	5301f352 	movwpl	pc, #4946	; 0x1352	; <UNPREDICTABLE>
     a44:	9f01231c 	svcls	0x0001231c
	...
     a50:	00000080 	andeq	r0, r0, r0, lsl #1
     a54:	000000a4 	andeq	r0, r0, r4, lsr #1
     a58:	a4500001 	ldrbge	r0, [r0], #-1
     a5c:	18000000 	stmdane	r0, {}	; <UNPREDICTABLE>
     a60:	03000001 	movweq	r0, #1
     a64:	9f027000 	svcls	0x00027000
     a68:	00000118 	andeq	r0, r0, r8, lsl r1
     a6c:	00000230 	andeq	r0, r0, r0, lsr r2
     a70:	01f30004 	mvnseq	r0, r4
     a74:	00009f50 	andeq	r9, r0, r0, asr pc
     a78:	00000000 	andeq	r0, r0, r0
     a7c:	00800000 	addeq	r0, r0, r0
     a80:	00f00000 	rscseq	r0, r0, r0
     a84:	00010000 	andeq	r0, r1, r0
     a88:	0000f051 	andeq	pc, r0, r1, asr r0	; <UNPREDICTABLE>
     a8c:	00016000 	andeq	r6, r1, r0
     a90:	55000100 	strpl	r0, [r0, #-256]	; 0x100
     a94:	00000160 	andeq	r0, r0, r0, ror #2
     a98:	0000016c 	andeq	r0, r0, ip, ror #2
     a9c:	6c510001 	mrrcvs	0, 0, r0, r1, cr1
     aa0:	a0000001 	andge	r0, r0, r1
     aa4:	01000001 	tsteq	r0, r1
     aa8:	01a05500 	lsleq	r5, r0, #10
     aac:	01b40000 			; <UNDEFINED> instruction: 0x01b40000
     ab0:	00010000 	andeq	r0, r1, r0
     ab4:	0001b451 	andeq	fp, r1, r1, asr r4
     ab8:	0001d400 	andeq	sp, r1, r0, lsl #8
     abc:	55000100 	strpl	r0, [r0, #-256]	; 0x100
     ac0:	000001d4 	ldrdeq	r0, [r0], -r4
     ac4:	000001d7 	ldrdeq	r0, [r0], -r7
     ac8:	d7510001 	ldrble	r0, [r1, -r1]
     acc:	14000001 	strne	r0, [r0], #-1
     ad0:	01000002 	tsteq	r0, r2
     ad4:	02145500 	andseq	r5, r4, #0, 10
     ad8:	02300000 	eorseq	r0, r0, #0
     adc:	00040000 	andeq	r0, r4, r0
     ae0:	9f5101f3 	svcls	0x005101f3
	...
     aec:	00000080 	andeq	r0, r0, r0, lsl #1
     af0:	00000094 	muleq	r0, r4, r0
     af4:	94520001 	ldrbls	r0, [r2], #-1
     af8:	14000000 	strne	r0, [r0], #-0
     afc:	01000002 	tsteq	r0, r2
     b00:	02145400 	andseq	r5, r4, #0, 8
     b04:	02300000 	eorseq	r0, r0, #0
     b08:	00040000 	andeq	r0, r4, r0
     b0c:	9f5201f3 	svcls	0x005201f3
	...
     b18:	00000080 	andeq	r0, r0, r0, lsl #1
     b1c:	00000100 	andeq	r0, r0, r0, lsl #2
     b20:	04530001 	ldrbeq	r0, [r3], #-1
     b24:	08000001 	stmdaeq	r0, {r0}
     b28:	01000001 	tsteq	r0, r1
     b2c:	01605300 	cmneq	r0, r0, lsl #6
     b30:	01640000 	cmneq	r4, r0
     b34:	00010000 	andeq	r0, r1, r0
     b38:	00016453 	andeq	r6, r1, r3, asr r4
     b3c:	00016c00 	andeq	r6, r1, r0, lsl #24
     b40:	5c000100 	stfpls	f0, [r0], {-0}
     b44:	0000016c 	andeq	r0, r0, ip, ror #2
     b48:	000001a0 	andeq	r0, r0, r0, lsr #3
     b4c:	01f30004 	mvnseq	r0, r4
     b50:	01a09f53 	asreq	r9, r3, pc
     b54:	01b00000 	movseq	r0, r0
     b58:	00010000 	andeq	r0, r1, r0
     b5c:	0001b053 	andeq	fp, r1, r3, asr r0
     b60:	0001b400 	andeq	fp, r1, r0, lsl #8
     b64:	5c000100 	stfpls	f0, [r0], {-0}
     b68:	000001b4 			; <UNDEFINED> instruction: 0x000001b4
     b6c:	000001d4 	ldrdeq	r0, [r0], -r4
     b70:	01f30004 	mvnseq	r0, r4
     b74:	01d49f53 	bicseq	r9, r4, r3, asr pc
     b78:	01d70000 	bicseq	r0, r7, r0
     b7c:	00010000 	andeq	r0, r1, r0
     b80:	0001d753 	andeq	sp, r1, r3, asr r7
     b84:	0001f000 	andeq	pc, r1, r0
     b88:	f3000400 	vshl.u8	d0, d0, d0
     b8c:	009f5301 	addseq	r5, pc, r1, lsl #6
     b90:	00000000 	andeq	r0, r0, r0
     b94:	80000000 	andhi	r0, r0, r0
     b98:	9c000000 	stcls	0, cr0, [r0], {-0}
     b9c:	02000000 	andeq	r0, r0, #0
     ba0:	9c009100 	stflsd	f1, [r0], {-0}
     ba4:	d7000000 	strle	r0, [r0, -r0]
     ba8:	01000001 	tsteq	r0, r1
     bac:	01f05200 	mvnseq	r5, r0, lsl #4
     bb0:	01f70000 	mvnseq	r0, r0
     bb4:	00010000 	andeq	r0, r1, r0
     bb8:	00000052 	andeq	r0, r0, r2, asr r0
     bbc:	00000000 	andeq	r0, r0, r0
     bc0:	00009c00 	andeq	r9, r0, r0, lsl #24
     bc4:	00011800 	andeq	r1, r1, r0, lsl #16
     bc8:	5d000100 	stfpls	f0, [r0, #-0]
     bcc:	00000118 	andeq	r0, r0, r8, lsl r1
     bd0:	0000011c 	andeq	r0, r0, ip, lsl r1
     bd4:	1c500001 	mrrcne	0, 0, r0, r0, cr1	; <UNPREDICTABLE>
     bd8:	20000001 	andcs	r0, r0, r1
     bdc:	01000001 	tsteq	r0, r1
     be0:	01205100 	teqeq	r0, r0, lsl #2
     be4:	01600000 	cmneq	r0, r0
     be8:	00010000 	andeq	r0, r1, r0
     bec:	00016050 	andeq	r6, r1, r0, asr r0
     bf0:	00016c00 	andeq	r6, r1, r0, lsl #24
     bf4:	5d000100 	stfpls	f0, [r0, #-0]
     bf8:	0000016c 	andeq	r0, r0, ip, ror #2
     bfc:	00000170 	andeq	r0, r0, r0, ror r1
     c00:	70500001 	subsvc	r0, r0, r1
     c04:	74000001 	strvc	r0, [r0], #-1
     c08:	01000001 	tsteq	r0, r1
     c0c:	01745300 	cmneq	r4, r0, lsl #6
     c10:	01880000 	orreq	r0, r8, r0
     c14:	00010000 	andeq	r0, r1, r0
     c18:	00018850 	andeq	r8, r1, r0, asr r8
     c1c:	00019400 	andeq	r9, r1, r0, lsl #8
     c20:	70000300 	andvc	r0, r0, r0, lsl #6
     c24:	01949f01 	orrseq	r9, r4, r1, lsl #30
     c28:	01a00000 	moveq	r0, r0
     c2c:	00010000 	andeq	r0, r1, r0
     c30:	0001a050 	andeq	sl, r1, r0, asr r0
     c34:	0001a800 	andeq	sl, r1, r0, lsl #16
     c38:	91000400 	tstls	r0, r0, lsl #8
     c3c:	a89f7fa1 	ldmge	pc, {r0, r5, r7, r8, r9, sl, fp, ip, sp, lr}	; <UNPREDICTABLE>
     c40:	ac000001 	stcge	0, cr0, [r0], {1}
     c44:	01000001 	tsteq	r0, r1
     c48:	01ac5000 			; <UNDEFINED> instruction: 0x01ac5000
     c4c:	01b40000 			; <UNDEFINED> instruction: 0x01b40000
     c50:	00010000 	andeq	r0, r1, r0
     c54:	0001b45d 	andeq	fp, r1, sp, asr r4
     c58:	0001b800 	andeq	fp, r1, r0, lsl #16
     c5c:	53000100 	movwpl	r0, #256	; 0x100
     c60:	000001b8 			; <UNDEFINED> instruction: 0x000001b8
     c64:	000001d4 	ldrdeq	r0, [r0], -r4
     c68:	d4500001 	ldrble	r0, [r0], #-1
     c6c:	f0000001 			; <UNDEFINED> instruction: 0xf0000001
     c70:	01000001 	tsteq	r0, r1
     c74:	01f05d00 	mvnseq	r5, r0, lsl #26
     c78:	01f70000 	mvnseq	r0, r0
     c7c:	00010000 	andeq	r0, r1, r0
     c80:	00000050 	andeq	r0, r0, r0, asr r0
     c84:	00000000 	andeq	r0, r0, r0
     c88:	0000a000 	andeq	sl, r0, r0
     c8c:	0000ec00 	andeq	lr, r0, r0, lsl #24
     c90:	5c000100 	stfpls	f0, [r0], {-0}
     c94:	000000ec 	andeq	r0, r0, ip, ror #1
     c98:	00000100 	andeq	r0, r0, r0, lsl #2
     c9c:	00530001 	subseq	r0, r3, r1
     ca0:	04000001 	streq	r0, [r0], #-1
     ca4:	01000001 	tsteq	r0, r1
     ca8:	01045c00 	tsteq	r4, r0, lsl #24
     cac:	01080000 	mrseq	r0, (UNDEF: 8)
     cb0:	00010000 	andeq	r0, r1, r0
     cb4:	00010853 	andeq	r0, r1, r3, asr r8
     cb8:	00016000 	andeq	r6, r1, r0
     cbc:	5c000100 	stfpls	f0, [r0], {-0}
     cc0:	00000160 	andeq	r0, r0, r0, ror #2
     cc4:	00000164 	andeq	r0, r0, r4, ror #2
     cc8:	64530001 	ldrbvs	r0, [r3], #-1
     ccc:	80000001 	andhi	r0, r0, r1
     cd0:	01000001 	tsteq	r0, r1
     cd4:	01805c00 	orreq	r5, r0, r0, lsl #24
     cd8:	01840000 	orreq	r0, r4, r0
     cdc:	00050000 	andeq	r0, r5, r0
     ce0:	2534007c 	ldrcs	r0, [r4, #-124]!	; 0x7c
     ce4:	0001849f 	muleq	r1, pc, r4	; <UNPREDICTABLE>
     ce8:	0001a000 	andeq	sl, r1, r0
     cec:	5c000100 	stfpls	f0, [r0], {-0}
     cf0:	000001a0 	andeq	r0, r0, r0, lsr #3
     cf4:	000001b0 			; <UNDEFINED> instruction: 0x000001b0
     cf8:	b0530001 	subslt	r0, r3, r1
     cfc:	c4000001 	strgt	r0, [r0], #-1
     d00:	01000001 	tsteq	r0, r1
     d04:	01c45c00 	biceq	r5, r4, r0, lsl #24
     d08:	01cc0000 	biceq	r0, ip, r0
     d0c:	00050000 	andeq	r0, r5, r0
     d10:	2531007c 	ldrcs	r0, [r1, #-124]!	; 0x7c
     d14:	0001cc9f 	muleq	r1, pc, ip	; <UNPREDICTABLE>
     d18:	0001d400 	andeq	sp, r1, r0, lsl #8
     d1c:	5c000100 	stfpls	f0, [r0], {-0}
     d20:	000001d4 	ldrdeq	r0, [r0], -r4
     d24:	000001d7 	ldrdeq	r0, [r0], -r7
     d28:	d7530001 	ldrble	r0, [r3, -r1]
     d2c:	f0000001 			; <UNDEFINED> instruction: 0xf0000001
     d30:	04000001 	streq	r0, [r0], #-1
     d34:	5301f300 	movwpl	pc, #4864	; 0x1300	; <UNPREDICTABLE>
     d38:	0001f09f 	muleq	r1, pc, r0	; <UNPREDICTABLE>
     d3c:	0001f700 	andeq	pc, r1, r0, lsl #14
     d40:	5c000100 	stfpls	f0, [r0], {-0}
	...
     d4c:	000000ec 	andeq	r0, r0, ip, ror #1
     d50:	000000fc 	strdeq	r0, [r0], -ip
     d54:	9f300002 	svcls	0x00300002
     d58:	000000fc 	strdeq	r0, [r0], -ip
     d5c:	00000104 	andeq	r0, r0, r4, lsl #2
     d60:	9f310002 	svcls	0x00310002
     d64:	00000104 	andeq	r0, r0, r4, lsl #2
     d68:	00000108 	andeq	r0, r0, r8, lsl #2
     d6c:	9f300002 	svcls	0x00300002
	...
     d78:	00000230 	andeq	r0, r0, r0, lsr r2
     d7c:	0000023f 	andeq	r0, r0, pc, lsr r2
     d80:	3f500001 	svccc	0x00500001
     d84:	58000002 	stmdapl	r0, {r1}
     d88:	04000002 	streq	r0, [r0], #-2
     d8c:	5001f300 	andpl	pc, r1, r0, lsl #6
     d90:	0002589f 	muleq	r2, pc, r8	; <UNPREDICTABLE>
     d94:	00028400 	andeq	r8, r2, r0, lsl #8
     d98:	50000100 	andpl	r0, r0, r0, lsl #2
	...
     da4:	00000230 	andeq	r0, r0, r0, lsr r2
     da8:	0000023f 	andeq	r0, r0, pc, lsr r2
     dac:	3f510001 	svccc	0x00510001
     db0:	58000002 	stmdapl	r0, {r1}
     db4:	04000002 	streq	r0, [r0], #-2
     db8:	5101f300 	mrspl	pc, SP_irq	; <UNPREDICTABLE>
     dbc:	0002589f 	muleq	r2, pc, r8	; <UNPREDICTABLE>
     dc0:	00028400 	andeq	r8, r2, r0, lsl #8
     dc4:	51000100 	mrspl	r0, (UNDEF: 16)
	...
     dd0:	00000284 	andeq	r0, r0, r4, lsl #5
     dd4:	000002b0 			; <UNDEFINED> instruction: 0x000002b0
     dd8:	b0500001 	subslt	r0, r0, r1
     ddc:	f8000002 			; <UNDEFINED> instruction: 0xf8000002
     de0:	01000004 	tsteq	r0, r4
     de4:	04f85a00 	ldrbteq	r5, [r8], #2560	; 0xa00
     de8:	050c0000 	streq	r0, [ip, #-0]
     dec:	00040000 	andeq	r0, r4, r0
     df0:	9f5001f3 	svcls	0x005001f3
	...
     dfc:	00000284 	andeq	r0, r0, r4, lsl #5
     e00:	00000298 	muleq	r0, r8, r2
     e04:	98510001 	ldmdals	r1, {r0}^
     e08:	b0000002 	andlt	r0, r0, r2
     e0c:	03000002 	movweq	r0, #2
     e10:	9f017100 	svcls	0x00017100
     e14:	000002b0 			; <UNDEFINED> instruction: 0x000002b0
     e18:	0000050c 	andeq	r0, r0, ip, lsl #10
     e1c:	01f30004 	mvnseq	r0, r4
     e20:	00009f51 	andeq	r9, r0, r1, asr pc
     e24:	00000000 	andeq	r0, r0, r0
     e28:	02840000 	addeq	r0, r4, #0
     e2c:	02b80000 	adcseq	r0, r8, #0
     e30:	00010000 	andeq	r0, r1, r0
     e34:	0002b852 	andeq	fp, r2, r2, asr r8
     e38:	0002e000 	andeq	lr, r2, r0
     e3c:	52000100 	andpl	r0, r0, #0, 2
     e40:	000002e0 	andeq	r0, r0, r0, ror #5
     e44:	000004a8 	andeq	r0, r0, r8, lsr #9
     e48:	a8560001 	ldmdage	r6, {r0}^
     e4c:	0c000004 	stceq	0, cr0, [r0], {4}
     e50:	01000005 	tsteq	r0, r5
     e54:	00005200 	andeq	r5, r0, r0, lsl #4
     e58:	00000000 	andeq	r0, r0, r0
     e5c:	02840000 	addeq	r0, r4, #0
     e60:	02a00000 	adceq	r0, r0, #0
     e64:	00010000 	andeq	r0, r1, r0
     e68:	00000053 	andeq	r0, r0, r3, asr r0
     e6c:	00000000 	andeq	r0, r0, r0
     e70:	00029400 	andeq	r9, r2, r0, lsl #8
     e74:	0002b000 	andeq	fp, r2, r0
     e78:	50000100 	andpl	r0, r0, r0, lsl #2
     e7c:	000002b0 			; <UNDEFINED> instruction: 0x000002b0
     e80:	000002b4 			; <UNDEFINED> instruction: 0x000002b4
     e84:	b4540001 	ldrblt	r0, [r4], #-1
     e88:	c0000002 	andgt	r0, r0, r2
     e8c:	03000002 	movweq	r0, #2
     e90:	9f017400 	svcls	0x00017400
     e94:	000002c0 	andeq	r0, r0, r0, asr #5
     e98:	000002cc 	andeq	r0, r0, ip, asr #5
     e9c:	cc540001 	mrrcgt	0, 0, r0, r4, cr1
     ea0:	d8000002 	stmdale	r0, {r1}
     ea4:	03000002 	movweq	r0, #2
     ea8:	9f017400 	svcls	0x00017400
     eac:	000002d8 	ldrdeq	r0, [r0], -r8
     eb0:	000004ac 	andeq	r0, r0, ip, lsr #9
     eb4:	ac540001 	mrrcge	0, 0, r0, r4, cr1
     eb8:	b8000004 	stmdalt	r0, {r2}
     ebc:	03000004 	movweq	r0, #4
     ec0:	9f017400 	svcls	0x00017400
     ec4:	000004b8 			; <UNDEFINED> instruction: 0x000004b8
     ec8:	000004e4 	andeq	r0, r0, r4, ror #9
     ecc:	e4540001 	ldrb	r0, [r4], #-1
     ed0:	f0000004 			; <UNDEFINED> instruction: 0xf0000004
     ed4:	01000004 	tsteq	r0, r4
     ed8:	04f05000 	ldrbteq	r5, [r0], #0
     edc:	04f80000 	ldrbteq	r0, [r8], #0
     ee0:	00030000 	andeq	r0, r3, r0
     ee4:	009f0174 	addseq	r0, pc, r4, ror r1	; <UNPREDICTABLE>
     ee8:	00000000 	andeq	r0, r0, r0
     eec:	9c000000 	stcls	0, cr0, [r0], {-0}
     ef0:	f8000002 			; <UNDEFINED> instruction: 0xf8000002
     ef4:	01000004 	tsteq	r0, r4
     ef8:	04f85800 	ldrbteq	r5, [r8], #2048	; 0x800
     efc:	050c0000 	streq	r0, [ip, #-0]
     f00:	000a0000 	andeq	r0, sl, r0
     f04:	f35101f3 	vbsl	q8, <illegal reg q8.5>, <illegal reg q9.5>
     f08:	31225001 	teqcc	r2, r1
     f0c:	00009f1c 	andeq	r9, r0, ip, lsl pc
     f10:	00000000 	andeq	r0, r0, r0
     f14:	03e00000 	mvneq	r0, #0
     f18:	03e40000 	mvneq	r0, #0
     f1c:	00010000 	andeq	r0, r1, r0
     f20:	00040450 	andeq	r0, r4, r0, asr r4
     f24:	00040800 	andeq	r0, r4, r0, lsl #16
     f28:	50000100 	andpl	r0, r0, r0, lsl #2
     f2c:	00000428 	andeq	r0, r0, r8, lsr #8
     f30:	0000042c 	andeq	r0, r0, ip, lsr #8
     f34:	4c500001 	mrrcmi	0, 0, r0, r0, cr1	; <UNPREDICTABLE>
     f38:	50000004 	andpl	r0, r0, r4
     f3c:	01000004 	tsteq	r0, r4
     f40:	04585000 	ldrbeq	r5, [r8], #-0
     f44:	045c0000 	ldrbeq	r0, [ip], #-0
     f48:	00010000 	andeq	r0, r1, r0
     f4c:	00047c50 	andeq	r7, r4, r0, asr ip
     f50:	00048000 	andeq	r8, r4, r0
     f54:	50000100 	andpl	r0, r0, r0, lsl #2
     f58:	000004a4 	andeq	r0, r0, r4, lsr #9
     f5c:	000004cc 	andeq	r0, r0, ip, asr #9
     f60:	00500001 	subseq	r0, r0, r1
     f64:	00000000 	andeq	r0, r0, r0
     f68:	e0000000 	and	r0, r0, r0
     f6c:	e8000002 	stmda	r0, {r1}
     f70:	02000002 	andeq	r0, r0, #2
     f74:	e89f3000 	ldm	pc, {ip, sp}	; <UNPREDICTABLE>
     f78:	ec000002 	stc	0, cr0, [r0], {2}
     f7c:	01000002 	tsteq	r0, r2
     f80:	02f85700 	rscseq	r5, r8, #0, 14
     f84:	04cc0000 	strbeq	r0, [ip], #0
     f88:	00010000 	andeq	r0, r1, r0
     f8c:	00000057 	andeq	r0, r0, r7, asr r0
     f90:	00000000 	andeq	r0, r0, r0
     f94:	00001400 	andeq	r1, r0, r0, lsl #8
     f98:	00001c00 	andeq	r1, r0, r0, lsl #24
     f9c:	73000300 	movwvc	r0, #768	; 0x300
     fa0:	001c9f04 	andseq	r9, ip, r4, lsl #30
     fa4:	00270000 	eoreq	r0, r7, r0
     fa8:	00010000 	andeq	r0, r1, r0
     fac:	00000053 	andeq	r0, r0, r3, asr r0
     fb0:	00000000 	andeq	r0, r0, r0
     fb4:	008f8800 	addeq	r8, pc, r0, lsl #16
     fb8:	008f8c00 	addeq	r8, pc, r0, lsl #24
     fbc:	30000200 	andcc	r0, r0, r0, lsl #4
     fc0:	008f8c9f 	umulleq	r8, pc, pc, ip	; <UNPREDICTABLE>
     fc4:	008f9000 	addeq	r9, pc, r0
     fc8:	50000100 	andpl	r0, r0, r0, lsl #2
	...
     fd4:	00008fa0 	andeq	r8, r0, r0, lsr #31
     fd8:	00008fa4 	andeq	r8, r0, r4, lsr #31
     fdc:	9f300002 	svcls	0x00300002
     fe0:	00008fa4 	andeq	r8, r0, r4, lsr #31
     fe4:	00008fa8 	andeq	r8, r0, r8, lsr #31
     fe8:	ac530001 	mrrcge	0, 0, r0, r3, cr1
     fec:	b400008f 	strlt	r0, [r0], #-143	; 0x8f
     ff0:	0100008f 	smlabbeq	r0, pc, r0, r0	; <UNPREDICTABLE>
     ff4:	00005300 	andeq	r5, r0, r0, lsl #6
	...
    1000:	00040000 	andeq	r0, r4, r0
    1004:	00010000 	andeq	r0, r1, r0
    1008:	00000450 	andeq	r0, r0, r0, asr r4
    100c:	00000c00 	andeq	r0, r0, r0, lsl #24
    1010:	53000100 	movwpl	r0, #256	; 0x100
    1014:	0000000c 	andeq	r0, r0, ip
    1018:	00000010 	andeq	r0, r0, r0, lsl r0
    101c:	10500001 	subsne	r0, r0, r1
    1020:	1c000000 	stcne	0, cr0, [r0], {-0}
    1024:	01000000 	mrseq	r0, (UNDEF: 0)
    1028:	00005300 	andeq	r5, r0, r0, lsl #6
    102c:	00000000 	andeq	r0, r0, r0
    1030:	003c0000 	eorseq	r0, ip, r0
    1034:	00470000 	subeq	r0, r7, r0
    1038:	00010000 	andeq	r0, r1, r0
    103c:	00004750 	andeq	r4, r0, r0, asr r7
    1040:	00006000 	andeq	r6, r0, r0
    1044:	55000100 	strpl	r0, [r0, #-256]	; 0x100
	...
    1050:	00000050 	andeq	r0, r0, r0, asr r0
    1054:	00000054 	andeq	r0, r0, r4, asr r0
    1058:	00500001 	subseq	r0, r0, r1
    105c:	00000000 	andeq	r0, r0, r0
    1060:	60000000 	andvs	r0, r0, r0
    1064:	6c000000 	stcvs	0, cr0, [r0], {-0}
    1068:	01000000 	mrseq	r0, (UNDEF: 0)
    106c:	006c5000 	rsbeq	r5, ip, r0
    1070:	00740000 	rsbseq	r0, r4, r0
    1074:	00040000 	andeq	r0, r4, r0
    1078:	9f5001f3 	svcls	0x005001f3
	...
    1084:	00000074 	andeq	r0, r0, r4, ror r0
    1088:	00000080 	andeq	r0, r0, r0, lsl #1
    108c:	80500001 	subshi	r0, r0, r1
    1090:	88000000 	stmdahi	r0, {}	; <UNPREDICTABLE>
    1094:	04000000 	streq	r0, [r0], #-0
    1098:	5001f300 	andpl	pc, r1, r0, lsl #6
    109c:	0000009f 	muleq	r0, pc, r0	; <UNPREDICTABLE>
    10a0:	00000000 	andeq	r0, r0, r0
    10a4:	00013800 	andeq	r3, r1, r0, lsl #16
    10a8:	00014300 	andeq	r4, r1, r0, lsl #6
    10ac:	50000100 	andpl	r0, r0, r0, lsl #2
    10b0:	00000143 	andeq	r0, r0, r3, asr #2
    10b4:	00000168 	andeq	r0, r0, r8, ror #2
    10b8:	00540001 	subseq	r0, r4, r1
	...
    10c4:	0f000000 	svceq	0x00000000
    10c8:	01000000 	mrseq	r0, (UNDEF: 0)
    10cc:	000f5000 	andeq	r5, pc, r0
    10d0:	00200000 	eoreq	r0, r0, r0
    10d4:	00010000 	andeq	r0, r1, r0
    10d8:	00000054 	andeq	r0, r0, r4, asr r0
	...
    10e4:	00000f00 	andeq	r0, r0, r0, lsl #30
    10e8:	51000100 	mrspl	r0, (UNDEF: 16)
    10ec:	0000000f 	andeq	r0, r0, pc
    10f0:	00000020 	andeq	r0, r0, r0, lsr #32
    10f4:	00550001 	subseq	r0, r5, r1
    10f8:	00000000 	andeq	r0, r0, r0
    10fc:	ec000000 	stc	0, cr0, [r0], {-0}
    1100:	04000000 	streq	r0, [r0], #-0
    1104:	01000001 	tsteq	r0, r1
    1108:	01045000 	mrseq	r5, (UNDEF: 4)
    110c:	01140000 	tsteq	r4, r0
    1110:	00040000 	andeq	r0, r4, r0
    1114:	9f5001f3 	svcls	0x005001f3
    1118:	00000114 	andeq	r0, r0, r4, lsl r1
    111c:	00000118 	andeq	r0, r0, r8, lsl r1
    1120:	18500001 	ldmdane	r0, {r0}^
    1124:	20000001 	andcs	r0, r0, r1
    1128:	04000001 	streq	r0, [r0], #-1
    112c:	5001f300 	andpl	pc, r1, r0, lsl #6
    1130:	0000009f 	muleq	r0, pc, r0	; <UNPREDICTABLE>
    1134:	00000000 	andeq	r0, r0, r0
    1138:	0000f800 	andeq	pc, r0, r0, lsl #16
    113c:	00010400 	andeq	r0, r1, r0, lsl #8
    1140:	70000b00 	andvc	r0, r0, r0, lsl #22
    1144:	23253500 	teqcs	r5, #0, 10
    1148:	818080b4 	strhhi	r8, [r0, r4]
    114c:	01049f02 	tsteq	r4, r2, lsl #30
    1150:	01070000 	mrseq	r0, (UNDEF: 7)
    1154:	00010000 	andeq	r0, r1, r0
    1158:	00010750 	andeq	r0, r1, r0, asr r7
    115c:	00011400 	andeq	r1, r1, r0, lsl #8
    1160:	f3000c00 			; <UNDEFINED> instruction: 0xf3000c00
    1164:	25355001 	ldrcs	r5, [r5, #-1]!
    1168:	8080b423 	addhi	fp, r0, r3, lsr #8
    116c:	009f0281 	addseq	r0, pc, r1, lsl #5
    1170:	00000000 	andeq	r0, r0, r0
    1174:	fc000000 	stc2	0, cr0, [r0], {-0}
    1178:	14000000 	strne	r0, [r0], #-0
    117c:	01000001 	tsteq	r0, r1
    1180:	00005400 	andeq	r5, r0, r0, lsl #8
    1184:	00000000 	andeq	r0, r0, r0
    1188:	00d00000 	sbcseq	r0, r0, r0
    118c:	00df0000 	sbcseq	r0, pc, r0
    1190:	00010000 	andeq	r0, r1, r0
    1194:	0000df50 	andeq	sp, r0, r0, asr pc
    1198:	0000e400 	andeq	lr, r0, r0, lsl #8
    119c:	f3000400 	vshl.u8	d0, d0, d0
    11a0:	e49f5001 	ldr	r5, [pc], #1	; 11a8 <_start-0x6e58>
    11a4:	e7000000 	str	r0, [r0, -r0]
    11a8:	01000000 	mrseq	r0, (UNDEF: 0)
    11ac:	00e75000 	rsceq	r5, r7, r0
    11b0:	00ec0000 	rsceq	r0, ip, r0
    11b4:	00040000 	andeq	r0, r4, r0
    11b8:	9f5001f3 	svcls	0x005001f3
	...
    11c4:	000000d0 	ldrdeq	r0, [r0], -r0	; <UNPREDICTABLE>
    11c8:	000000df 	ldrdeq	r0, [r0], -pc	; <UNPREDICTABLE>
    11cc:	df510001 	svcle	0x00510001
    11d0:	e4000000 	str	r0, [r0], #-0
    11d4:	04000000 	streq	r0, [r0], #-0
    11d8:	5101f300 	mrspl	pc, SP_irq	; <UNPREDICTABLE>
    11dc:	0000e49f 	muleq	r0, pc, r4	; <UNPREDICTABLE>
    11e0:	0000e700 	andeq	lr, r0, r0, lsl #14
    11e4:	51000100 	mrspl	r0, (UNDEF: 16)
    11e8:	000000e7 	andeq	r0, r0, r7, ror #1
    11ec:	000000ec 	andeq	r0, r0, ip, ror #1
    11f0:	01f30004 	mvnseq	r0, r4
    11f4:	00009f51 	andeq	r9, r0, r1, asr pc
    11f8:	00000000 	andeq	r0, r0, r0
    11fc:	00c00000 	sbceq	r0, r0, r0
    1200:	00cb0000 	sbceq	r0, fp, r0
    1204:	00010000 	andeq	r0, r1, r0
    1208:	0000cb50 	andeq	ip, r0, r0, asr fp
    120c:	0000d000 	andeq	sp, r0, r0
    1210:	f3000400 	vshl.u8	d0, d0, d0
    1214:	009f5001 	addseq	r5, pc, r1
    1218:	00000000 	andeq	r0, r0, r0
    121c:	9c000000 	stcls	0, cr0, [r0], {-0}
    1220:	b4000000 	strlt	r0, [r0], #-0
    1224:	01000000 	mrseq	r0, (UNDEF: 0)
    1228:	00b45000 	adcseq	r5, r4, r0
    122c:	00c00000 	sbceq	r0, r0, r0
    1230:	00040000 	andeq	r0, r4, r0
    1234:	9f5001f3 	svcls	0x005001f3
	...
    1240:	00000078 	andeq	r0, r0, r8, ror r0
    1244:	00000090 	muleq	r0, r0, r0
    1248:	90500001 	subsls	r0, r0, r1
    124c:	9c000000 	stcls	0, cr0, [r0], {-0}
    1250:	04000000 	streq	r0, [r0], #-0
    1254:	5001f300 	andpl	pc, r1, r0, lsl #6
    1258:	0000009f 	muleq	r0, pc, r0	; <UNPREDICTABLE>
    125c:	00000000 	andeq	r0, r0, r0
    1260:	00006800 	andeq	r6, r0, r0, lsl #16
    1264:	00007300 	andeq	r7, r0, r0, lsl #6
    1268:	50000100 	andpl	r0, r0, r0, lsl #2
    126c:	00000073 	andeq	r0, r0, r3, ror r0
    1270:	00000078 	andeq	r0, r0, r8, ror r0
    1274:	01f30004 	mvnseq	r0, r4
    1278:	00009f50 	andeq	r9, r0, r0, asr pc
	...
    1284:	00480000 	subeq	r0, r8, r0
    1288:	00010000 	andeq	r0, r1, r0
    128c:	00004850 	andeq	r4, r0, r0, asr r8
    1290:	00006800 	andeq	r6, r0, r0, lsl #16
    1294:	f3000400 	vshl.u8	d0, d0, d0
    1298:	009f5001 	addseq	r5, pc, r1
	...
    12a4:	4b000000 	blmi	12ac <_start-0x6d54>
    12a8:	01000000 	mrseq	r0, (UNDEF: 0)
    12ac:	004b5100 	subeq	r5, fp, r0, lsl #2
    12b0:	00680000 	rsbeq	r0, r8, r0
    12b4:	00040000 	andeq	r0, r4, r0
    12b8:	9f5101f3 	svcls	0x005101f3
	...
    12c4:	0000004c 	andeq	r0, r0, ip, asr #32
    12c8:	00000054 	andeq	r0, r0, r4, asr r0
    12cc:	54500001 	ldrbpl	r0, [r0], #-1
    12d0:	58000000 	stmdapl	r0, {}	; <UNPREDICTABLE>
    12d4:	09000000 	stmdbeq	r0, {}	; <UNPREDICTABLE>
    12d8:	74007500 	strvc	r7, [r0], #-1280	; 0x500
    12dc:	00712400 	rsbseq	r2, r1, r0, lsl #8
    12e0:	00589f21 	subseq	r9, r8, r1, lsr #30
    12e4:	005f0000 	subseq	r0, pc, r0
    12e8:	00010000 	andeq	r0, r1, r0
    12ec:	00000051 	andeq	r0, r0, r1, asr r0
    12f0:	00000000 	andeq	r0, r0, r0
    12f4:	0000e000 	andeq	lr, r0, r0
    12f8:	00011b00 	andeq	r1, r1, r0, lsl #22
    12fc:	50000100 	andpl	r0, r0, r0, lsl #2
    1300:	0000011b 	andeq	r0, r0, fp, lsl r1
    1304:	00000120 	andeq	r0, r0, r0, lsr #2
    1308:	01f30004 	mvnseq	r0, r4
    130c:	01209f50 	teqeq	r0, r0, asr pc
    1310:	01230000 	teqeq	r3, r0
    1314:	00010000 	andeq	r0, r1, r0
    1318:	00012350 	andeq	r2, r1, r0, asr r3
    131c:	00013c00 	andeq	r3, r1, r0, lsl #24
    1320:	f3000400 	vshl.u8	d0, d0, d0
    1324:	3c9f5001 	ldccc	0, cr5, [pc], {1}
    1328:	3f000001 	svccc	0x00000001
    132c:	01000001 	tsteq	r0, r1
    1330:	013f5000 	teqeq	pc, r0
    1334:	016c0000 	cmneq	ip, r0
    1338:	00040000 	andeq	r0, r4, r0
    133c:	9f5001f3 	svcls	0x005001f3
	...
    1348:	000000e0 	andeq	r0, r0, r0, ror #1
    134c:	00000108 	andeq	r0, r0, r8, lsl #2
    1350:	08510001 	ldmdaeq	r1, {r0}^
    1354:	1b000001 	blne	1360 <_start-0x6ca0>
    1358:	03000001 	movweq	r0, #1
    135c:	9f017100 	svcls	0x00017100
    1360:	0000011b 	andeq	r0, r0, fp, lsl r1
    1364:	00000120 	andeq	r0, r0, r0, lsr #2
    1368:	01f30004 	mvnseq	r0, r4
    136c:	01209f51 	teqeq	r0, r1, asr pc
    1370:	01230000 	teqeq	r3, r0
    1374:	00010000 	andeq	r0, r1, r0
    1378:	00012351 	andeq	r2, r1, r1, asr r3
    137c:	00016c00 	andeq	r6, r1, r0, lsl #24
    1380:	f3000400 	vshl.u8	d0, d0, d0
    1384:	009f5101 	addseq	r5, pc, r1, lsl #2
    1388:	00000000 	andeq	r0, r0, r0
    138c:	f8000000 			; <UNDEFINED> instruction: 0xf8000000
    1390:	fc000000 	stc2	0, cr0, [r0], {-0}
    1394:	01000000 	mrseq	r0, (UNDEF: 0)
    1398:	00fc5200 	rscseq	r5, ip, r0, lsl #4
    139c:	01040000 	mrseq	r0, (UNDEF: 4)
    13a0:	00050000 	andeq	r0, r5, r0
    13a4:	00951c03 	addseq	r1, r5, r3, lsl #24
    13a8:	00010400 	andeq	r0, r1, r0, lsl #8
    13ac:	00011b00 	andeq	r1, r1, r0, lsl #22
    13b0:	53000100 	movwpl	r0, #256	; 0x100
    13b4:	0000013c 	andeq	r0, r0, ip, lsr r1
    13b8:	0000013f 	andeq	r0, r0, pc, lsr r1
    13bc:	00530001 	subseq	r0, r3, r1
    13c0:	00000000 	andeq	r0, r0, r0
    13c4:	6c000000 	stcvs	0, cr0, [r0], {-0}
    13c8:	80000000 	andhi	r0, r0, r0
    13cc:	01000000 	mrseq	r0, (UNDEF: 0)
    13d0:	00805000 	addeq	r5, r0, r0
    13d4:	009b0000 	addseq	r0, fp, r0
    13d8:	00010000 	andeq	r0, r1, r0
    13dc:	00009b52 	andeq	r9, r0, r2, asr fp
    13e0:	0000a400 	andeq	sl, r0, r0, lsl #8
    13e4:	f3000900 	vmls.i8	d0, d0, d0
    13e8:	07235001 	streq	r5, [r3, -r1]!
    13ec:	9f1af809 	svcls	0x001af809
    13f0:	000000a4 	andeq	r0, r0, r4, lsr #1
    13f4:	000000a7 	andeq	r0, r0, r7, lsr #1
    13f8:	a7500001 	ldrbge	r0, [r0, -r1]
    13fc:	d0000000 	andle	r0, r0, r0
    1400:	04000000 	streq	r0, [r0], #-0
    1404:	5001f300 	andpl	pc, r1, r0, lsl #6
    1408:	0000009f 	muleq	r0, pc, r0	; <UNPREDICTABLE>
    140c:	00000000 	andeq	r0, r0, r0
    1410:	00008800 	andeq	r8, r0, r0, lsl #16
    1414:	0000a400 	andeq	sl, r0, r0, lsl #8
    1418:	54000100 	strpl	r0, [r0], #-256	; 0x100
	...
    1424:	0000001c 	andeq	r0, r0, ip, lsl r0
    1428:	00000043 	andeq	r0, r0, r3, asr #32
    142c:	43500001 	cmpmi	r0, #1
    1430:	6c000000 	stcvs	0, cr0, [r0], {-0}
    1434:	04000000 	streq	r0, [r0], #-0
    1438:	5001f300 	andpl	pc, r1, r0, lsl #6
    143c:	0000009f 	muleq	r0, pc, r0	; <UNPREDICTABLE>
    1440:	00000000 	andeq	r0, r0, r0
    1444:	00001c00 	andeq	r1, r0, r0, lsl #24
    1448:	00004300 	andeq	r4, r0, r0, lsl #6
    144c:	50000100 	andpl	r0, r0, r0, lsl #2
    1450:	00000043 	andeq	r0, r0, r3, asr #32
    1454:	0000006c 	andeq	r0, r0, ip, rrx
    1458:	01f30004 	mvnseq	r0, r4
    145c:	00009f50 	andeq	r9, r0, r0, asr pc
    1460:	00000000 	andeq	r0, r0, r0
	...

Disassembly of section .debug_aranges:

00000000 <.debug_aranges>:
   0:	0000001c 	andeq	r0, r0, ip, lsl r0
   4:	00000002 	andeq	r0, r0, r2
   8:	00040000 	andeq	r0, r4, r0
   c:	00000000 	andeq	r0, r0, r0
  10:	00008010 	andeq	r8, r0, r0, lsl r0
  14:	000000d0 	ldrdeq	r0, [r0], -r0	; <UNPREDICTABLE>
	...
  20:	0000001c 	andeq	r0, r0, ip, lsl r0
  24:	03050002 	movweq	r0, #20482	; 0x5002
  28:	00040000 	andeq	r0, r4, r0
  2c:	00000000 	andeq	r0, r0, r0
  30:	000080e0 	andeq	r8, r0, r0, ror #1
  34:	00000768 	andeq	r0, r0, r8, ror #14
	...
  40:	0000001c 	andeq	r0, r0, ip, lsl r0
  44:	119a0002 	orrsne	r0, sl, r2
  48:	00040000 	andeq	r0, r4, r0
  4c:	00000000 	andeq	r0, r0, r0
  50:	00008848 	andeq	r8, r0, r8, asr #16
  54:	000000f0 	strdeq	r0, [r0], -r0	; <UNPREDICTABLE>
	...
  60:	0000001c 	andeq	r0, r0, ip, lsl r0
  64:	12b00002 	adcsne	r0, r0, #2
  68:	00040000 	andeq	r0, r4, r0
  6c:	00000000 	andeq	r0, r0, r0
  70:	00008938 	andeq	r8, r0, r8, lsr r9
  74:	00000020 	andeq	r0, r0, r0, lsr #32
	...
  80:	0000001c 	andeq	r0, r0, ip, lsl r0
  84:	138f0002 	orrne	r0, pc, #2
  88:	00040000 	andeq	r0, r4, r0
  8c:	00000000 	andeq	r0, r0, r0
  90:	00008958 	andeq	r8, r0, r8, asr r9
  94:	00000058 	andeq	r0, r0, r8, asr r0
	...
  a0:	0000001c 	andeq	r0, r0, ip, lsl r0
  a4:	15240002 	strne	r0, [r4, #-2]!
  a8:	00040000 	andeq	r0, r4, r0
  ac:	00000000 	andeq	r0, r0, r0
  b0:	000089b0 			; <UNDEFINED> instruction: 0x000089b0
  b4:	0000003c 	andeq	r0, r0, ip, lsr r0
	...
  c0:	0000001c 	andeq	r0, r0, ip, lsl r0
  c4:	163b0002 	ldrtne	r0, [fp], -r2
  c8:	00040000 	andeq	r0, r4, r0
  cc:	00000000 	andeq	r0, r0, r0
  d0:	000089ec 	andeq	r8, r0, ip, ror #19
  d4:	00000034 	andeq	r0, r0, r4, lsr r0
	...
  e0:	0000001c 	andeq	r0, r0, ip, lsl r0
  e4:	172d0002 	strne	r0, [sp, -r2]!
  e8:	00040000 	andeq	r0, r4, r0
  ec:	00000000 	andeq	r0, r0, r0
  f0:	00008a20 	andeq	r8, r0, r0, lsr #20
  f4:	0000050c 	andeq	r0, r0, ip, lsl #10
	...
 100:	0000001c 	andeq	r0, r0, ip, lsl r0
 104:	1db20002 	ldcne	0, cr0, [r2, #8]!
 108:	00040000 	andeq	r0, r4, r0
 10c:	00000000 	andeq	r0, r0, r0
 110:	00008f2c 	andeq	r8, r0, ip, lsr #30
 114:	00000028 	andeq	r0, r0, r8, lsr #32
	...
 120:	0000001c 	andeq	r0, r0, ip, lsl r0
 124:	1eb50002 	cdpne	0, 11, cr0, cr5, cr2, {0}
 128:	00040000 	andeq	r0, r4, r0
 12c:	00000000 	andeq	r0, r0, r0
 130:	00008f54 	andeq	r8, r0, r4, asr pc
 134:	00000034 	andeq	r0, r0, r4, lsr r0
	...
 140:	0000001c 	andeq	r0, r0, ip, lsl r0
 144:	1fb80002 	svcne	0x00b80002
 148:	00040000 	andeq	r0, r4, r0
 14c:	00000000 	andeq	r0, r0, r0
 150:	00008f88 	andeq	r8, r0, r8, lsl #31
 154:	00000074 	andeq	r0, r0, r4, ror r0
	...
 160:	0000001c 	andeq	r0, r0, ip, lsl r0
 164:	21690002 	cmncs	r9, r2
 168:	00040000 	andeq	r0, r4, r0
 16c:	00000000 	andeq	r0, r0, r0
 170:	00008ffc 	strdeq	r8, [r0], -ip
 174:	00000088 	andeq	r0, r0, r8, lsl #1
	...
 180:	0000001c 	andeq	r0, r0, ip, lsl r0
 184:	23450002 	movtcs	r0, #20482	; 0x5002
 188:	00040000 	andeq	r0, r4, r0
 18c:	00000000 	andeq	r0, r0, r0
 190:	000090d0 	ldrdeq	r9, [r0], -r0
 194:	00000178 	andeq	r0, r0, r8, ror r1
	...
 1a0:	0000001c 	andeq	r0, r0, ip, lsl r0
 1a4:	300e0002 	andcc	r0, lr, r2
 1a8:	00040000 	andeq	r0, r4, r0
 1ac:	00000000 	andeq	r0, r0, r0
 1b0:	00009248 	andeq	r9, r0, r8, asr #4
 1b4:	00000120 	andeq	r0, r0, r0, lsr #2
	...
 1c0:	0000001c 	andeq	r0, r0, ip, lsl r0
 1c4:	3b820002 	blcc	fe0801d4 <__bss_end__+0xfe07620c>
 1c8:	00040000 	andeq	r0, r4, r0
 1cc:	00000000 	andeq	r0, r0, r0
 1d0:	00009368 	andeq	r9, r0, r8, ror #6
 1d4:	00000194 	muleq	r0, r4, r1
	...

Disassembly of section .debug_line:

00000000 <.debug_line>:
       0:	00000162 	andeq	r0, r0, r2, ror #2
       4:	01440002 	cmpeq	r4, r2
       8:	01020000 	mrseq	r0, (UNDEF: 2)
       c:	000d0efb 	strdeq	r0, [sp], -fp
      10:	01010101 	tsteq	r1, r1, lsl #2
      14:	01000000 	mrseq	r0, (UNDEF: 0)
      18:	2f010000 	svccs	0x00010000
      1c:	2f727375 	svccs	0x00727375
      20:	61636f6c 	cmnvs	r3, ip, ror #30
      24:	65432f6c 	strbvs	r2, [r3, #-3948]	; 0xf6c
      28:	72616c6c 	rsbvc	r6, r1, #108, 24	; 0x6c00
      2c:	6d72612f 	ldfvse	f6, [r2, #-188]!	; 0xffffff44
      30:	6e6f6e2d 	cdpvs	14, 6, cr6, cr15, cr13, {1}
      34:	61652d65 	cmnvs	r5, r5, ror #26
      38:	342f6962 	strtcc	r6, [pc], #-2402	; 40 <_start-0x7fc0>
      3c:	332e382e 	teqcc	lr, #3014656	; 0x2e0000
      40:	3173632d 	cmncc	r3, sp, lsr #6
      44:	2f653037 	svccs	0x00653037
      48:	2f62696c 	svccs	0x0062696c
      4c:	2f636367 	svccs	0x00636367
      50:	2d6d7261 	sfmcs	f7, 2, [sp, #-388]!	; 0xfffffe7c
      54:	656e6f6e 	strbvs	r6, [lr, #-3950]!	; 0xf6e
      58:	6261652d 	rsbvs	r6, r1, #188743680	; 0xb400000
      5c:	2e342f69 	cdpcs	15, 3, cr2, cr4, cr9, {3}
      60:	2f332e38 	svccs	0x00332e38
      64:	6c636e69 	stclvs	14, cr6, [r3], #-420	; 0xfffffe5c
      68:	00656475 	rsbeq	r6, r5, r5, ror r4
      6c:	6573552f 	ldrbvs	r5, [r3, #-1327]!	; 0x52f
      70:	622f7372 	eorvs	r7, pc, #-939524095	; 0xc8000001
      74:	6e616972 	mcrvs	9, 3, r6, cr1, cr2, {3}
      78:	2f6e756a 	svccs	0x006e756a
      7c:	6b736544 	blvs	1cd9594 <__bss_end__+0x1ccf5cc>
      80:	2f706f74 	svccs	0x00706f74
      84:	6f686373 	svcvs	0x00686373
      88:	532f6c6f 	teqpl	pc, #28416	; 0x6f00
      8c:	6e697270 	mcrvs	2, 3, r7, cr9, cr0, {3}
      90:	32393167 	eorscc	r3, r9, #-1073741799	; 0xc0000019
      94:	53432f30 	movtpl	r2, #16176	; 0x3f30
      98:	4c303432 	cfldrsmi	mvf3, [r0], #-200	; 0xffffff38
      9c:	73632f58 	cmnvc	r3, #88, 30	; 0x160
      a0:	6c303432 	cfldrsvs	mvf3, [r0], #-200	; 0xffffff38
      a4:	30322d78 	eorscc	r2, r2, r8, ror sp
      a8:	2f727073 	svccs	0x00727073
      ac:	7062696c 	rsbvc	r6, r2, ip, ror #18
      b0:	6e692f69 	cdpvs	15, 6, cr2, cr9, cr9, {3}
      b4:	64756c63 	ldrbtvs	r6, [r5], #-3171	; 0xc63
      b8:	752f0065 	strvc	r0, [pc, #-101]!	; 5b <_start-0x7fa5>
      bc:	6c2f7273 	sfmvs	f7, 4, [pc], #-460	; fffffef8 <__bss_end__+0xffff5f30>
      c0:	6c61636f 	stclvs	3, cr6, [r1], #-444	; 0xfffffe44
      c4:	6c65432f 	stclvs	3, cr4, [r5], #-188	; 0xffffff44
      c8:	2f72616c 	svccs	0x0072616c
      cc:	2d6d7261 	sfmcs	f7, 2, [sp, #-388]!	; 0xfffffe7c
      d0:	656e6f6e 	strbvs	r6, [lr, #-3950]!	; 0xf6e
      d4:	6261652d 	rsbvs	r6, r1, #188743680	; 0xb400000
      d8:	2e342f69 	cdpcs	15, 3, cr2, cr4, cr9, {3}
      dc:	2d332e38 	ldccs	14, cr2, [r3, #-224]!	; 0xffffff20
      e0:	37317363 	ldrcc	r7, [r1, -r3, ror #6]!
      e4:	612f6530 	teqvs	pc, r0, lsr r5	; <UNPREDICTABLE>
      e8:	6e2d6d72 	mcrvs	13, 1, r6, cr13, cr2, {3}
      ec:	2d656e6f 	stclcs	14, cr6, [r5, #-444]!	; 0xfffffe44
      f0:	69626165 	stmdbvs	r2!, {r0, r2, r5, r6, r8, sp, lr}^
      f4:	636e692f 	cmnvs	lr, #770048	; 0xbc000
      f8:	6564756c 	strbvs	r7, [r4, #-1388]!	; 0x56c
      fc:	61700000 	cmnvs	r0, r0
     100:	2d317472 	cfldrscs	mvf7, [r1, #-456]!	; 0xfffffe38
     104:	74736574 	ldrbtvc	r6, [r3], #-1396	; 0x574
     108:	00632e33 	rsbeq	r2, r3, r3, lsr lr
     10c:	73000000 	movwvc	r0, #0
     110:	65646474 	strbvs	r6, [r4, #-1140]!	; 0x474
     114:	00682e66 	rsbeq	r2, r8, r6, ror #28
     118:	73000001 	movwvc	r0, #1
     11c:	6e696474 	mcrvs	4, 3, r6, cr9, cr4, {3}
     120:	63672d74 	cmnvs	r7, #116, 26	; 0x1d00
     124:	00682e63 	rsbeq	r2, r8, r3, ror #28
     128:	72000001 	andvc	r0, r0, #1
     12c:	682e6970 	stmdavs	lr!, {r4, r5, r6, r8, fp, sp, lr}
     130:	00000200 	andeq	r0, r0, r0, lsl #4
     134:	6c616b63 	stclvs	11, cr6, [r1], #-396	; 0xfffffe74
     138:	2e636f6c 	cdpcs	15, 6, cr6, cr3, cr12, {3}
     13c:	00000068 	andeq	r0, r0, r8, rrx
     140:	72747300 	rsbsvc	r7, r4, #0, 6
     144:	2e676e69 	cdpcs	14, 6, cr6, cr7, cr9, {3}
     148:	00030068 	andeq	r0, r3, r8, rrx
     14c:	05000000 	streq	r0, [r0, #-0]
     150:	00801002 	addeq	r1, r0, r2
     154:	4d4b1600 	stclmi	6, cr1, [fp, #-0]
     158:	67f3844c 	ldrbvs	r8, [r3, ip, asr #8]!
     15c:	f4834ca0 	vst1.<illegal width 64>			; <UNDEFINED> instruction: 0xf4834ca0
     160:	00100283 	andseq	r0, r0, r3, lsl #5
     164:	028c0101 	addeq	r0, ip, #1073741824	; 0x40000000
     168:	00020000 	andeq	r0, r2, r0
     16c:	0000019b 	muleq	r0, fp, r1
     170:	0efb0102 	cdpeq	1, 15, cr0, cr11, cr2, {0}
     174:	0101000d 	tsteq	r1, sp
     178:	00000101 	andeq	r0, r0, r1, lsl #2
     17c:	00000100 	andeq	r0, r0, r0, lsl #2
     180:	73752f01 	cmnvc	r5, #1, 30
     184:	6f6c2f72 	svcvs	0x006c2f72
     188:	2f6c6163 	svccs	0x006c6163
     18c:	6c6c6543 	cfstr64vs	mvdx6, [ip], #-268	; 0xfffffef4
     190:	612f7261 	teqvs	pc, r1, ror #4
     194:	6e2d6d72 	mcrvs	13, 1, r6, cr13, cr2, {3}
     198:	2d656e6f 	stclcs	14, cr6, [r5, #-444]!	; 0xfffffe44
     19c:	69626165 	stmdbvs	r2!, {r0, r2, r5, r6, r8, sp, lr}^
     1a0:	382e342f 	stmdacc	lr!, {r0, r1, r2, r3, r5, sl, ip, sp}
     1a4:	632d332e 	teqvs	sp, #-1207959552	; 0xb8000000
     1a8:	30373173 	eorscc	r3, r7, r3, ror r1
     1ac:	696c2f65 	stmdbvs	ip!, {r0, r2, r5, r6, r8, r9, sl, fp, sp}^
     1b0:	63672f62 	cmnvs	r7, #392	; 0x188
     1b4:	72612f63 	rsbvc	r2, r1, #396	; 0x18c
     1b8:	6f6e2d6d 	svcvs	0x006e2d6d
     1bc:	652d656e 	strvs	r6, [sp, #-1390]!	; 0x56e
     1c0:	2f696261 	svccs	0x00696261
     1c4:	2e382e34 	mrccs	14, 1, r2, cr8, cr4, {1}
     1c8:	6e692f33 	mcrvs	15, 3, r2, cr9, cr3, {1}
     1cc:	64756c63 	ldrbtvs	r6, [r5], #-3171	; 0xc63
     1d0:	552f0065 	strpl	r0, [pc, #-101]!	; 173 <_start-0x7e8d>
     1d4:	73726573 	cmnvc	r2, #482344960	; 0x1cc00000
     1d8:	6972622f 	ldmdbvs	r2!, {r0, r1, r2, r3, r5, r9, sp, lr}^
     1dc:	756a6e61 	strbvc	r6, [sl, #-3681]!	; 0xe61
     1e0:	65442f6e 	strbvs	r2, [r4, #-3950]	; 0xf6e
     1e4:	6f746b73 	svcvs	0x00746b73
     1e8:	63732f70 	cmnvs	r3, #112, 30	; 0x1c0
     1ec:	6c6f6f68 	stclvs	15, cr6, [pc], #-416	; 54 <_start-0x7fac>
     1f0:	7270532f 	rsbsvc	r5, r0, #-1140850688	; 0xbc000000
     1f4:	31676e69 	cmncc	r7, r9, ror #28
     1f8:	2f303239 	svccs	0x00303239
     1fc:	34325343 	ldrtcc	r5, [r2], #-835	; 0x343
     200:	2f584c30 	svccs	0x00584c30
     204:	34327363 	ldrtcc	r7, [r2], #-867	; 0x363
     208:	2d786c30 	ldclcs	12, cr6, [r8, #-192]!	; 0xffffff40
     20c:	70733032 	rsbsvc	r3, r3, r2, lsr r0
     210:	696c2f72 	stmdbvs	ip!, {r1, r4, r5, r6, r8, r9, sl, fp, sp}^
     214:	2f697062 	svccs	0x00697062
     218:	6c636e69 	stclvs	14, cr6, [r3], #-420	; 0xfffffe5c
     21c:	00656475 	rsbeq	r6, r5, r5, ror r4
     220:	7273752f 	rsbsvc	r7, r3, #197132288	; 0xbc00000
     224:	636f6c2f 	cmnvs	pc, #12032	; 0x2f00
     228:	432f6c61 	teqmi	pc, #24832	; 0x6100
     22c:	616c6c65 	cmnvs	ip, r5, ror #24
     230:	72612f72 	rsbvc	r2, r1, #456	; 0x1c8
     234:	6f6e2d6d 	svcvs	0x006e2d6d
     238:	652d656e 	strvs	r6, [sp, #-1390]!	; 0x56e
     23c:	2f696261 	svccs	0x00696261
     240:	2e382e34 	mrccs	14, 1, r2, cr8, cr4, {1}
     244:	73632d33 	cmnvc	r3, #3264	; 0xcc0
     248:	65303731 	ldrvs	r3, [r0, #-1841]!	; 0x731
     24c:	6d72612f 	ldfvse	f6, [r2, #-188]!	; 0xffffff44
     250:	6e6f6e2d 	cdpvs	14, 6, cr6, cr15, cr13, {1}
     254:	61652d65 	cmnvs	r5, r5, ror #26
     258:	692f6962 	stmdbvs	pc!, {r1, r5, r6, r8, fp, sp, lr}	; <UNPREDICTABLE>
     25c:	756c636e 	strbvc	r6, [ip, #-878]!	; 0x36e
     260:	2f006564 	svccs	0x00006564
     264:	72657355 	rsbvc	r7, r5, #1409286145	; 0x54000001
     268:	72622f73 	rsbvc	r2, r2, #460	; 0x1cc
     26c:	6a6e6169 	bvs	1b98818 <__bss_end__+0x1b8e850>
     270:	442f6e75 	strtmi	r6, [pc], #-3701	; 278 <_start-0x7d88>
     274:	746b7365 	strbtvc	r7, [fp], #-869	; 0x365
     278:	732f706f 	teqvc	pc, #111	; 0x6f
     27c:	6f6f6863 	svcvs	0x006f6863
     280:	70532f6c 	subsvc	r2, r3, ip, ror #30
     284:	676e6972 			; <UNDEFINED> instruction: 0x676e6972
     288:	30323931 	eorscc	r3, r2, r1, lsr r9
     28c:	3253432f 	subscc	r4, r3, #-1140850688	; 0xbc000000
     290:	584c3034 	stmdapl	ip, {r2, r4, r5, ip, sp}^
     294:	3273632f 	rsbscc	r6, r3, #-1140850688	; 0xbc000000
     298:	786c3034 	stmdavc	ip!, {r2, r4, r5, ip, sp}^
     29c:	7330322d 	teqvc	r0, #-805306366	; 0xd0000002
     2a0:	6c2f7270 	sfmvs	f7, 4, [pc], #-448	; e8 <_start-0x7f18>
     2a4:	69706269 	ldmdbvs	r0!, {r0, r3, r5, r6, r9, sp, lr}^
     2a8:	62696c2f 	rsbvs	r6, r9, #12032	; 0x2f00
     2ac:	63000063 	movwvs	r0, #99	; 0x63
     2b0:	6c6c616b 	stfvse	f6, [ip], #-428	; 0xfffffe54
     2b4:	632e636f 	teqvs	lr, #-1140850687	; 0xbc000001
     2b8:	00000000 	andeq	r0, r0, r0
     2bc:	6c616b63 	stclvs	11, cr6, [r1], #-396	; 0xfffffe74
     2c0:	2e636f6c 	cdpcs	15, 6, cr6, cr3, cr12, {3}
     2c4:	00000068 	andeq	r0, r0, r8, rrx
     2c8:	64747300 	ldrbtvs	r7, [r4], #-768	; 0x300
     2cc:	2e666564 	cdpcs	5, 6, cr6, cr6, cr4, {3}
     2d0:	00010068 	andeq	r0, r1, r8, rrx
     2d4:	64747300 	ldrbtvs	r7, [r4], #-768	; 0x300
     2d8:	2d746e69 	ldclcs	14, cr6, [r4, #-420]!	; 0xfffffe5c
     2dc:	2e636367 	cdpcs	3, 6, cr6, cr3, cr7, {3}
     2e0:	00010068 	andeq	r0, r1, r8, rrx
     2e4:	69707200 	ldmdbvs	r0!, {r9, ip, sp, lr}^
     2e8:	0200682e 	andeq	r6, r0, #3014656	; 0x2e0000
     2ec:	74730000 	ldrbtvc	r0, [r3], #-0
     2f0:	676e6972 			; <UNDEFINED> instruction: 0x676e6972
     2f4:	0300682e 	movweq	r6, #2094	; 0x82e
     2f8:	696c0000 	stmdbvs	ip!, {}^	; <UNPREDICTABLE>
     2fc:	652d6362 	strvs	r6, [sp, #-866]!	; 0x362
     300:	61727478 	cmnvs	r2, r8, ror r4
     304:	0400682e 	streq	r6, [r0], #-2094	; 0x82e
     308:	00000000 	andeq	r0, r0, r0
     30c:	80e00205 	rschi	r0, r0, r5, lsl #4
     310:	12030000 	andne	r0, r3, #0
     314:	2e4c0101 	dvfcse	f0, f4, f1
     318:	01844a68 	orreq	r4, r4, r8, ror #20
     31c:	15031469 	strne	r1, [r3, #-1129]	; 0x469
     320:	834b4c4a 	movthi	r4, #48202	; 0xbc4a
     324:	02042f67 	andeq	r2, r4, #412	; 0x19c
     328:	20081d03 	andcs	r1, r8, r3, lsl #26
     32c:	bbd967a0 	bllt	ff65a1b4 <__bss_end__+0xff6501ec>
     330:	5d030104 	stfpls	f0, [r3, #-16]
     334:	020045d6 	andeq	r4, r0, #897581056	; 0x35800000
     338:	2e060104 	adfcss	f0, f6, f4
     33c:	6a475206 	bvs	11d4b5c <__bss_end__+0x11cab94>
     340:	61034bd7 	ldrdvs	r4, [r3, -r7]
     344:	4b2f4b66 	blmi	bd30e4 <__bss_end__+0xbc911c>
     348:	4b31304b 	blmi	c4c47c <__bss_end__+0xc424b4>
     34c:	0067674b 	rsbeq	r6, r7, fp, asr #14
     350:	06010402 	streq	r0, [r1], -r2, lsl #8
     354:	00d70666 	sbcseq	r0, r7, r6, ror #12
     358:	06010402 	streq	r0, [r1], -r2, lsl #8
     35c:	03d80682 	bicseq	r0, r8, #136314880	; 0x8200000
     360:	304cf218 	subcc	pc, ip, r8, lsl r2	; <UNPREDICTABLE>
     364:	2402f349 	strcs	pc, [r2], #-841	; 0x349
     368:	7fbb0313 	svcvc	0x00bb0313
     36c:	0200672e 	andeq	r6, r0, #12058624	; 0xb80000
     370:	82060104 	andhi	r0, r6, #4, 2
     374:	6783d706 	strvs	sp, [r3, r6, lsl #14]
     378:	f200c803 	vadd.i8	d12, d0, d3
     37c:	040200a0 	streq	r0, [r2], #-160	; 0xa0
     380:	06820601 	streq	r0, [r2], r1, lsl #12
     384:	6968a0d7 	stmdbvs	r8!, {r0, r1, r2, r4, r6, r7, sp, pc}^
     388:	2f684c6a 	svccs	0x00684c6a
     38c:	4008302f 	andmi	r3, r8, pc, lsr #32
     390:	040200be 	streq	r0, [r2], #-190	; 0xbe
     394:	06820601 	streq	r0, [r2], r1, lsl #12
     398:	314ba0d7 	ldrdcc	sl, [fp, #-7]
     39c:	bb92084b 	bllt	fe4824d0 <__bss_end__+0xfe478508>
     3a0:	2f182a02 	svccs	0x00182a02
     3a4:	2f2f4c4b 	svccs	0x002f4c4b
     3a8:	302f4b30 	eorcc	r4, pc, r0, lsr fp	; <UNPREDICTABLE>
     3ac:	83f48368 	mvnshi	r8, #104, 6	; 0xa0000001
     3b0:	04020068 	streq	r0, [r2], #-104	; 0x68
     3b4:	06820601 	streq	r0, [r2], r1, lsl #12
     3b8:	040200d7 	streq	r0, [r2], #-215	; 0xd7
     3bc:	06820601 	streq	r0, [r2], r1, lsl #12
     3c0:	2202d8d7 	andcs	sp, r2, #14090240	; 0xd70000
     3c4:	4c832f17 	stcmi	15, cr2, [r3], {23}
     3c8:	322d2cbf 	eorcc	r2, sp, #48896	; 0xbf00
     3cc:	032e0b03 	teqeq	lr, #3072	; 0xc00
     3d0:	83304a75 	teqhi	r0, #479232	; 0x75000
     3d4:	00302f83 	eorseq	r2, r0, r3, lsl #31
     3d8:	06010402 	streq	r0, [r1], -r2, lsl #8
     3dc:	67300666 	ldrvs	r0, [r0, -r6, ror #12]!
     3e0:	9f3283f3 	svcls	0x003283f3
     3e4:	01040200 	mrseq	r0, R12_usr
     3e8:	032e6f03 	teqeq	lr, #3, 30
     3ec:	d84b6615 	stmdale	fp, {r0, r2, r4, r9, sl, sp, lr}^
     3f0:	001202a0 	andseq	r0, r2, r0, lsr #5
     3f4:	00de0101 	sbcseq	r0, lr, r1, lsl #2
     3f8:	00020000 	andeq	r0, r2, r0
     3fc:	00000083 	andeq	r0, r0, r3, lsl #1
     400:	0efb0102 	cdpeq	1, 15, cr0, cr11, cr2, {0}
     404:	0101000d 	tsteq	r1, sp
     408:	00000101 	andeq	r0, r0, r1, lsl #2
     40c:	00000100 	andeq	r0, r0, r0, lsl #2
     410:	62696c01 	rsbvs	r6, r9, #256	; 0x100
     414:	752f0063 	strvc	r0, [pc, #-99]!	; 3b9 <_start-0x7c47>
     418:	6c2f7273 	sfmvs	f7, 4, [pc], #-460	; 254 <_start-0x7dac>
     41c:	6c61636f 	stclvs	3, cr6, [r1], #-444	; 0xfffffe44
     420:	6c65432f 	stclvs	3, cr4, [r5], #-188	; 0xffffff44
     424:	2f72616c 	svccs	0x0072616c
     428:	2d6d7261 	sfmcs	f7, 2, [sp, #-388]!	; 0xfffffe7c
     42c:	656e6f6e 	strbvs	r6, [lr, #-3950]!	; 0xf6e
     430:	6261652d 	rsbvs	r6, r1, #188743680	; 0xb400000
     434:	2e342f69 	cdpcs	15, 3, cr2, cr4, cr9, {3}
     438:	2d332e38 	ldccs	14, cr2, [r3, #-224]!	; 0xffffff20
     43c:	37317363 	ldrcc	r7, [r1, -r3, ror #6]!
     440:	6c2f6530 	cfstr32vs	mvfx6, [pc], #-192	; 388 <_start-0x7c78>
     444:	672f6269 	strvs	r6, [pc, -r9, ror #4]!
     448:	612f6363 	teqvs	pc, r3, ror #6
     44c:	6e2d6d72 	mcrvs	13, 1, r6, cr13, cr2, {3}
     450:	2d656e6f 	stclcs	14, cr6, [r5, #-444]!	; 0xfffffe44
     454:	69626165 	stmdbvs	r2!, {r0, r2, r5, r6, r8, sp, lr}^
     458:	382e342f 	stmdacc	lr!, {r0, r1, r2, r3, r5, sl, ip, sp}
     45c:	692f332e 	stmdbvs	pc!, {r1, r2, r3, r5, r8, r9, ip, sp}	; <UNPREDICTABLE>
     460:	756c636e 	strbvc	r6, [ip, #-878]!	; 0x36e
     464:	00006564 	andeq	r6, r0, r4, ror #10
     468:	68736168 	ldmdavs	r3!, {r3, r5, r6, r8, sp, lr}^
     46c:	0100632e 	tsteq	r0, lr, lsr #6
     470:	74730000 	ldrbtvc	r0, [r3], #-0
     474:	746e6964 	strbtvc	r6, [lr], #-2404	; 0x964
     478:	6363672d 	cmnvs	r3, #11796480	; 0xb40000
     47c:	0200682e 	andeq	r6, r0, #3014656	; 0x2e0000
     480:	00000000 	andeq	r0, r0, r0
     484:	88480205 	stmdahi	r8, {r0, r2, r9}^
     488:	0e030000 	cdpeq	0, 0, cr0, cr3, cr0, {0}
     48c:	84313001 	ldrthi	r3, [r1], #-1
     490:	0200312f 	andeq	r3, r0, #-1073741813	; 0xc000000b
     494:	002f0204 	eoreq	r0, pc, r4, lsl #4
     498:	83020402 	movwhi	r0, #9218	; 0x2402
     49c:	02040200 	andeq	r0, r4, #0, 4
     4a0:	04020083 	streq	r0, [r2], #-131	; 0x83
     4a4:	02002f02 	andeq	r2, r0, #2, 30
     4a8:	002f0204 	eoreq	r0, pc, r4, lsl #4
     4ac:	29020402 	stmdbcs	r2, {r1, sl}
     4b0:	01040200 	mrseq	r0, R12_usr
     4b4:	03062e06 	movweq	r2, #28166	; 0x6e06
     4b8:	83d74a09 	bicshi	r4, r7, #36864	; 0x9000
     4bc:	2f2f4b2f 	svccs	0x002f4b2f
     4c0:	2f2f2f83 	svccs	0x002f2f83
     4c4:	2f322f4b 	svccs	0x00322f4b
     4c8:	2f2f2f2f 	svccs	0x002f2f2f
     4cc:	2e5a0330 	mrccs	3, 2, r0, cr10, cr0, {1}
     4d0:	022e2703 	eoreq	r2, lr, #786432	; 0xc0000
     4d4:	01010004 	tsteq	r1, r4
     4d8:	000000ec 	andeq	r0, r0, ip, ror #1
     4dc:	00d00002 	sbcseq	r0, r0, r2
     4e0:	01020000 	mrseq	r0, (UNDEF: 2)
     4e4:	000d0efb 	strdeq	r0, [sp], -fp
     4e8:	01010101 	tsteq	r1, r1, lsl #2
     4ec:	01000000 	mrseq	r0, (UNDEF: 0)
     4f0:	6c010000 	stcvs	0, cr0, [r1], {-0}
     4f4:	00636269 	rsbeq	r6, r3, r9, ror #4
     4f8:	7273752f 	rsbsvc	r7, r3, #197132288	; 0xbc00000
     4fc:	636f6c2f 	cmnvs	pc, #12032	; 0x2f00
     500:	432f6c61 	teqmi	pc, #24832	; 0x6100
     504:	616c6c65 	cmnvs	ip, r5, ror #24
     508:	72612f72 	rsbvc	r2, r1, #456	; 0x1c8
     50c:	6f6e2d6d 	svcvs	0x006e2d6d
     510:	652d656e 	strvs	r6, [sp, #-1390]!	; 0x56e
     514:	2f696261 	svccs	0x00696261
     518:	2e382e34 	mrccs	14, 1, r2, cr8, cr4, {1}
     51c:	73632d33 	cmnvc	r3, #3264	; 0xcc0
     520:	65303731 	ldrvs	r3, [r0, #-1841]!	; 0x731
     524:	62696c2f 	rsbvs	r6, r9, #12032	; 0x2f00
     528:	6363672f 	cmnvs	r3, #12320768	; 0xbc0000
     52c:	6d72612f 	ldfvse	f6, [r2, #-188]!	; 0xffffff44
     530:	6e6f6e2d 	cdpvs	14, 6, cr6, cr15, cr13, {1}
     534:	61652d65 	cmnvs	r5, r5, ror #26
     538:	342f6962 	strtcc	r6, [pc], #-2402	; 540 <_start-0x7ac0>
     53c:	332e382e 	teqcc	lr, #3014656	; 0x2e0000
     540:	636e692f 	cmnvs	lr, #770048	; 0xbc000
     544:	6564756c 	strbvs	r7, [r4, #-1388]!	; 0x56c
     548:	73752f00 	cmnvc	r5, #0, 30
     54c:	6f6c2f72 	svcvs	0x006c2f72
     550:	2f6c6163 	svccs	0x006c6163
     554:	6c6c6543 	cfstr64vs	mvdx6, [ip], #-268	; 0xfffffef4
     558:	612f7261 	teqvs	pc, r1, ror #4
     55c:	6e2d6d72 	mcrvs	13, 1, r6, cr13, cr2, {3}
     560:	2d656e6f 	stclcs	14, cr6, [r5, #-444]!	; 0xfffffe44
     564:	69626165 	stmdbvs	r2!, {r0, r2, r5, r6, r8, sp, lr}^
     568:	382e342f 	stmdacc	lr!, {r0, r1, r2, r3, r5, sl, ip, sp}
     56c:	632d332e 	teqvs	sp, #-1207959552	; 0xb8000000
     570:	30373173 	eorscc	r3, r7, r3, ror r1
     574:	72612f65 	rsbvc	r2, r1, #404	; 0x194
     578:	6f6e2d6d 	svcvs	0x006e2d6d
     57c:	652d656e 	strvs	r6, [sp, #-1390]!	; 0x56e
     580:	2f696261 	svccs	0x00696261
     584:	6c636e69 	stclvs	14, cr6, [r3], #-420	; 0xfffffe5c
     588:	00656475 	rsbeq	r6, r5, r5, ror r4
     58c:	6d656d00 	stclvs	13, cr6, [r5, #-0]
     590:	2e746573 	mrccs	5, 3, r6, cr4, cr3, {3}
     594:	00010063 	andeq	r0, r1, r3, rrx
     598:	64747300 	ldrbtvs	r7, [r4], #-768	; 0x300
     59c:	2e666564 	cdpcs	5, 6, cr6, cr6, cr4, {3}
     5a0:	00020068 	andeq	r0, r2, r8, rrx
     5a4:	72747300 	rsbsvc	r7, r4, #0, 6
     5a8:	2e676e69 	cdpcs	14, 6, cr6, cr7, cr9, {3}
     5ac:	00030068 	andeq	r0, r3, r8, rrx
     5b0:	05000000 	streq	r0, [r0, #-0]
     5b4:	00893802 	addeq	r3, r9, r2, lsl #16
     5b8:	4c131400 	cfldrsmi	mvf1, [r3], {-0}
     5bc:	0402002f 	streq	r0, [r2], #-47	; 0x2f
     5c0:	024d4901 	subeq	r4, sp, #16384	; 0x4000
     5c4:	01010002 	tsteq	r1, r2
     5c8:	0000010c 	andeq	r0, r0, ip, lsl #2
     5cc:	00f50002 	rscseq	r0, r5, r2
     5d0:	01020000 	mrseq	r0, (UNDEF: 2)
     5d4:	000d0efb 	strdeq	r0, [sp], -fp
     5d8:	01010101 	tsteq	r1, r1, lsl #2
     5dc:	01000000 	mrseq	r0, (UNDEF: 0)
     5e0:	6c010000 	stcvs	0, cr0, [r1], {-0}
     5e4:	00636269 	rsbeq	r6, r3, r9, ror #4
     5e8:	7273752f 	rsbsvc	r7, r3, #197132288	; 0xbc00000
     5ec:	636f6c2f 	cmnvs	pc, #12032	; 0x2f00
     5f0:	432f6c61 	teqmi	pc, #24832	; 0x6100
     5f4:	616c6c65 	cmnvs	ip, r5, ror #24
     5f8:	72612f72 	rsbvc	r2, r1, #456	; 0x1c8
     5fc:	6f6e2d6d 	svcvs	0x006e2d6d
     600:	652d656e 	strvs	r6, [sp, #-1390]!	; 0x56e
     604:	2f696261 	svccs	0x00696261
     608:	2e382e34 	mrccs	14, 1, r2, cr8, cr4, {1}
     60c:	73632d33 	cmnvc	r3, #3264	; 0xcc0
     610:	65303731 	ldrvs	r3, [r0, #-1841]!	; 0x731
     614:	62696c2f 	rsbvs	r6, r9, #12032	; 0x2f00
     618:	6363672f 	cmnvs	r3, #12320768	; 0xbc0000
     61c:	6d72612f 	ldfvse	f6, [r2, #-188]!	; 0xffffff44
     620:	6e6f6e2d 	cdpvs	14, 6, cr6, cr15, cr13, {1}
     624:	61652d65 	cmnvs	r5, r5, ror #26
     628:	342f6962 	strtcc	r6, [pc], #-2402	; 630 <_start-0x79d0>
     62c:	332e382e 	teqcc	lr, #3014656	; 0x2e0000
     630:	636e692f 	cmnvs	lr, #770048	; 0xbc000
     634:	6564756c 	strbvs	r7, [r4, #-1388]!	; 0x56c
     638:	73552f00 	cmpvc	r5, #0, 30
     63c:	2f737265 	svccs	0x00737265
     640:	61697262 	cmnvs	r9, r2, ror #4
     644:	6e756a6e 	vsubvs.f32	s13, s10, s29
     648:	7365442f 	cmnvc	r5, #788529152	; 0x2f000000
     64c:	706f746b 	rsbvc	r7, pc, fp, ror #8
     650:	6863732f 	stmdavs	r3!, {r0, r1, r2, r3, r5, r8, r9, ip, sp, lr}^
     654:	2f6c6f6f 	svccs	0x006c6f6f
     658:	69727053 	ldmdbvs	r2!, {r0, r1, r4, r6, ip, sp, lr}^
     65c:	3931676e 	ldmdbcc	r1!, {r1, r2, r3, r5, r6, r8, r9, sl, sp, lr}
     660:	432f3032 	teqmi	pc, #50	; 0x32
     664:	30343253 	eorscc	r3, r4, r3, asr r2
     668:	632f584c 	teqvs	pc, #76, 16	; 0x4c0000
     66c:	30343273 	eorscc	r3, r4, r3, ror r2
     670:	322d786c 	eorcc	r7, sp, #108, 16	; 0x6c0000
     674:	72707330 	rsbsvc	r7, r0, #48, 6	; 0xc0000000
     678:	62696c2f 	rsbvs	r6, r9, #12032	; 0x2f00
     67c:	692f6970 	stmdbvs	pc!, {r4, r5, r6, r8, fp, sp, lr}	; <UNPREDICTABLE>
     680:	756c636e 	strbvc	r6, [ip, #-878]!	; 0x36e
     684:	00006564 	andeq	r6, r0, r4, ror #10
     688:	6e697270 	mcrvs	2, 3, r7, cr9, cr0, {3}
     68c:	632e6b74 	teqvs	lr, #116, 22	; 0x1d000
     690:	00000100 	andeq	r0, r0, r0, lsl #2
     694:	61647473 	smcvs	18243	; 0x4743
     698:	682e6772 	stmdavs	lr!, {r1, r4, r5, r6, r8, r9, sl, sp, lr}
     69c:	00000200 	andeq	r0, r0, r0, lsl #4
     6a0:	6975623c 	ldmdbvs	r5!, {r2, r3, r4, r5, r9, sp, lr}^
     6a4:	692d746c 	pushvs	{r2, r3, r5, r6, sl, ip, sp, lr}
     6a8:	00003e6e 	andeq	r3, r0, lr, ror #28
     6ac:	70720000 	rsbsvc	r0, r2, r0
     6b0:	00682e69 	rsbeq	r2, r8, r9, ror #28
     6b4:	76000003 	strvc	r0, [r0], -r3
     6b8:	72702d61 	rsbsvc	r2, r0, #6208	; 0x1840
     6bc:	6b746e69 	blvs	1d1c068 <__bss_end__+0x1d120a0>
     6c0:	0100682e 	tsteq	r0, lr, lsr #16
     6c4:	00000000 	andeq	r0, r0, r0
     6c8:	89580205 	ldmdbhi	r8, {r0, r2, r9}^
     6cc:	6b170000 	blvs	5c06d4 <__bss_end__+0x5b670c>
     6d0:	0289bf4b 	addeq	fp, r9, #300	; 0x12c
     6d4:	0101000e 	tsteq	r1, lr
     6d8:	00000094 	muleq	r0, r4, r0
     6dc:	007c0002 	rsbseq	r0, ip, r2
     6e0:	01020000 	mrseq	r0, (UNDEF: 2)
     6e4:	000d0efb 	strdeq	r0, [sp], -fp
     6e8:	01010101 	tsteq	r1, r1, lsl #2
     6ec:	01000000 	mrseq	r0, (UNDEF: 0)
     6f0:	6c010000 	stcvs	0, cr0, [r1], {-0}
     6f4:	00636269 	rsbeq	r6, r3, r9, ror #4
     6f8:	6573552f 	ldrbvs	r5, [r3, #-1327]!	; 0x52f
     6fc:	622f7372 	eorvs	r7, pc, #-939524095	; 0xc8000001
     700:	6e616972 	mcrvs	9, 3, r6, cr1, cr2, {3}
     704:	2f6e756a 	svccs	0x006e756a
     708:	6b736544 	blvs	1cd9c20 <__bss_end__+0x1ccfc58>
     70c:	2f706f74 	svccs	0x00706f74
     710:	6f686373 	svcvs	0x00686373
     714:	532f6c6f 	teqpl	pc, #28416	; 0x6f00
     718:	6e697270 	mcrvs	2, 3, r7, cr9, cr0, {3}
     71c:	32393167 	eorscc	r3, r9, #-1073741799	; 0xc0000019
     720:	53432f30 	movtpl	r2, #16176	; 0x3f30
     724:	4c303432 	cfldrsmi	mvf3, [r0], #-200	; 0xffffff38
     728:	73632f58 	cmnvc	r3, #88, 30	; 0x160
     72c:	6c303432 	cfldrsvs	mvf3, [r0], #-200	; 0xffffff38
     730:	30322d78 	eorscc	r2, r2, r8, ror sp
     734:	2f727073 	svccs	0x00727073
     738:	7062696c 	rsbvc	r6, r2, ip, ror #18
     73c:	6e692f69 	cdpvs	15, 6, cr2, cr9, cr9, {3}
     740:	64756c63 	ldrbtvs	r6, [r5], #-3171	; 0xc63
     744:	70000065 	andvc	r0, r0, r5, rrx
     748:	68637475 	stmdavs	r3!, {r0, r2, r4, r5, r6, sl, ip, sp, lr}^
     74c:	632e7261 	teqvs	lr, #268435462	; 0x10000006
     750:	00000100 	andeq	r0, r0, r0, lsl #2
     754:	2e697072 	mcrcs	0, 3, r7, cr9, cr2, {3}
     758:	00020068 	andeq	r0, r2, r8, rrx
     75c:	05000000 	streq	r0, [r0, #-0]
     760:	0089b002 	addeq	fp, r9, r2
     764:	6b4a1400 	blvs	128576c <__bss_end__+0x127b7a4>
     768:	0213bc13 	andseq	fp, r3, #4864	; 0x1300
     76c:	01010008 	tsteq	r1, r8
     770:	000000a0 	andeq	r0, r0, r0, lsr #1
     774:	00790002 	rsbseq	r0, r9, r2
     778:	01020000 	mrseq	r0, (UNDEF: 2)
     77c:	000d0efb 	strdeq	r0, [sp], -fp
     780:	01010101 	tsteq	r1, r1, lsl #2
     784:	01000000 	mrseq	r0, (UNDEF: 0)
     788:	6c010000 	stcvs	0, cr0, [r1], {-0}
     78c:	00636269 	rsbeq	r6, r3, r9, ror #4
     790:	6573552f 	ldrbvs	r5, [r3, #-1327]!	; 0x52f
     794:	622f7372 	eorvs	r7, pc, #-939524095	; 0xc8000001
     798:	6e616972 	mcrvs	9, 3, r6, cr1, cr2, {3}
     79c:	2f6e756a 	svccs	0x006e756a
     7a0:	6b736544 	blvs	1cd9cb8 <__bss_end__+0x1ccfcf0>
     7a4:	2f706f74 	svccs	0x00706f74
     7a8:	6f686373 	svcvs	0x00686373
     7ac:	532f6c6f 	teqpl	pc, #28416	; 0x6f00
     7b0:	6e697270 	mcrvs	2, 3, r7, cr9, cr0, {3}
     7b4:	32393167 	eorscc	r3, r9, #-1073741799	; 0xc0000019
     7b8:	53432f30 	movtpl	r2, #16176	; 0x3f30
     7bc:	4c303432 	cfldrsmi	mvf3, [r0], #-200	; 0xffffff38
     7c0:	73632f58 	cmnvc	r3, #88, 30	; 0x160
     7c4:	6c303432 	cfldrsvs	mvf3, [r0], #-200	; 0xffffff38
     7c8:	30322d78 	eorscc	r2, r2, r8, ror sp
     7cc:	2f727073 	svccs	0x00727073
     7d0:	7062696c 	rsbvc	r6, r2, ip, ror #18
     7d4:	6e692f69 	cdpvs	15, 6, cr2, cr9, cr9, {3}
     7d8:	64756c63 	ldrbtvs	r6, [r5], #-3171	; 0xc63
     7dc:	70000065 	andvc	r0, r0, r5, rrx
     7e0:	2e6b7475 	mcrcs	4, 3, r7, cr11, cr5, {3}
     7e4:	00010063 	andeq	r0, r1, r3, rrx
     7e8:	69707200 	ldmdbvs	r0!, {r9, ip, sp, lr}^
     7ec:	0200682e 	andeq	r6, r0, #3014656	; 0x2e0000
     7f0:	00000000 	andeq	r0, r0, r0
     7f4:	89ec0205 	stmibhi	ip!, {r0, r2, r9}^
     7f8:	4c150000 	ldcmi	0, cr0, [r5], {-0}
     7fc:	0402002d 	streq	r0, [r2], #-45	; 0x2d
     800:	02002f02 	andeq	r2, r0, #2, 30
     804:	00490204 	subeq	r0, r9, r4, lsl #4
     808:	06010402 	streq	r0, [r1], -r2, lsl #8
     80c:	026b062e 	rsbeq	r0, fp, #48234496	; 0x2e00000
     810:	01010006 	tsteq	r1, r6
     814:	000001eb 	andeq	r0, r0, fp, ror #3
     818:	00e90002 	rsceq	r0, r9, r2
     81c:	01020000 	mrseq	r0, (UNDEF: 2)
     820:	000d0efb 	strdeq	r0, [sp], -fp
     824:	01010101 	tsteq	r1, r1, lsl #2
     828:	01000000 	mrseq	r0, (UNDEF: 0)
     82c:	6c010000 	stcvs	0, cr0, [r1], {-0}
     830:	00636269 	rsbeq	r6, r3, r9, ror #4
     834:	7273752f 	rsbsvc	r7, r3, #197132288	; 0xbc00000
     838:	636f6c2f 	cmnvs	pc, #12032	; 0x2f00
     83c:	432f6c61 	teqmi	pc, #24832	; 0x6100
     840:	616c6c65 	cmnvs	ip, r5, ror #24
     844:	72612f72 	rsbvc	r2, r1, #456	; 0x1c8
     848:	6f6e2d6d 	svcvs	0x006e2d6d
     84c:	652d656e 	strvs	r6, [sp, #-1390]!	; 0x56e
     850:	2f696261 	svccs	0x00696261
     854:	2e382e34 	mrccs	14, 1, r2, cr8, cr4, {1}
     858:	73632d33 	cmnvc	r3, #3264	; 0xcc0
     85c:	65303731 	ldrvs	r3, [r0, #-1841]!	; 0x731
     860:	62696c2f 	rsbvs	r6, r9, #12032	; 0x2f00
     864:	6363672f 	cmnvs	r3, #12320768	; 0xbc0000
     868:	6d72612f 	ldfvse	f6, [r2, #-188]!	; 0xffffff44
     86c:	6e6f6e2d 	cdpvs	14, 6, cr6, cr15, cr13, {1}
     870:	61652d65 	cmnvs	r5, r5, ror #26
     874:	342f6962 	strtcc	r6, [pc], #-2402	; 87c <_start-0x7784>
     878:	332e382e 	teqcc	lr, #3014656	; 0x2e0000
     87c:	636e692f 	cmnvs	lr, #770048	; 0xbc000
     880:	6564756c 	strbvs	r7, [r4, #-1388]!	; 0x56c
     884:	73552f00 	cmpvc	r5, #0, 30
     888:	2f737265 	svccs	0x00737265
     88c:	61697262 	cmnvs	r9, r2, ror #4
     890:	6e756a6e 	vsubvs.f32	s13, s10, s29
     894:	7365442f 	cmnvc	r5, #788529152	; 0x2f000000
     898:	706f746b 	rsbvc	r7, pc, fp, ror #8
     89c:	6863732f 	stmdavs	r3!, {r0, r1, r2, r3, r5, r8, r9, ip, sp, lr}^
     8a0:	2f6c6f6f 	svccs	0x006c6f6f
     8a4:	69727053 	ldmdbvs	r2!, {r0, r1, r4, r6, ip, sp, lr}^
     8a8:	3931676e 	ldmdbcc	r1!, {r1, r2, r3, r5, r6, r8, r9, sl, sp, lr}
     8ac:	432f3032 	teqmi	pc, #50	; 0x32
     8b0:	30343253 	eorscc	r3, r4, r3, asr r2
     8b4:	632f584c 	teqvs	pc, #76, 16	; 0x4c0000
     8b8:	30343273 	eorscc	r3, r4, r3, ror r2
     8bc:	322d786c 	eorcc	r7, sp, #108, 16	; 0x6c0000
     8c0:	72707330 	rsbsvc	r7, r0, #48, 6	; 0xc0000000
     8c4:	62696c2f 	rsbvs	r6, r9, #12032	; 0x2f00
     8c8:	692f6970 	stmdbvs	pc!, {r4, r5, r6, r8, fp, sp, lr}	; <UNPREDICTABLE>
     8cc:	756c636e 	strbvc	r6, [ip, #-878]!	; 0x36e
     8d0:	00006564 	andeq	r6, r0, r4, ror #10
     8d4:	702d6176 	eorvc	r6, sp, r6, ror r1
     8d8:	746e6972 	strbtvc	r6, [lr], #-2418	; 0x972
     8dc:	00632e6b 	rsbeq	r2, r3, fp, ror #28
     8e0:	73000001 	movwvc	r0, #1
     8e4:	72616474 	rsbvc	r6, r1, #116, 8	; 0x74000000
     8e8:	00682e67 	rsbeq	r2, r8, r7, ror #28
     8ec:	72000002 	andvc	r0, r0, #2
     8f0:	682e6970 	stmdavs	lr!, {r4, r5, r6, r8, fp, sp, lr}
     8f4:	00000300 	andeq	r0, r0, r0, lsl #6
     8f8:	6975623c 	ldmdbvs	r5!, {r2, r3, r4, r5, r9, sp, lr}^
     8fc:	692d746c 	pushvs	{r2, r3, r5, r6, sl, ip, sp, lr}
     900:	00003e6e 	andeq	r3, r0, lr, ror #28
     904:	00000000 	andeq	r0, r0, r0
     908:	8a200205 	bhi	801124 <__bss_end__+0x7f715c>
     90c:	26030000 	strcs	r0, [r3], -r0
     910:	13a50101 			; <UNDEFINED> instruction: 0x13a50101
     914:	02002d31 	andeq	r2, r0, #3136	; 0xc40
     918:	002f0204 	eoreq	r0, pc, r4, lsl #4
     91c:	2d020402 	cfstrscs	mvf0, [r2, #-8]
     920:	02040200 	andeq	r0, r4, #0, 4
     924:	0402002f 	streq	r0, [r2], #-47	; 0x2f
     928:	4c4c2d01 	mcrrmi	13, 0, r2, ip, cr1
     92c:	2f4b1430 	svccs	0x004b1430
     930:	0402004f 	streq	r0, [r2], #-79	; 0x4f
     934:	02006702 	andeq	r6, r0, #524288	; 0x80000
     938:	4c650104 	stfmie	f0, [r5], #-16
     93c:	2fa0304d 	svccs	0x00a0304d
     940:	26023031 			; <UNDEFINED> instruction: 0x26023031
     944:	2c2d8416 	cfstrscs	mvf8, [sp], #-88	; 0xffffffa8
     948:	01040200 	mrseq	r0, R12_usr
     94c:	04020030 	streq	r0, [r2], #-48	; 0x30
     950:	66063301 	strvs	r3, [r6], -r1, lsl #6
     954:	01040200 	mrseq	r0, R12_usr
     958:	0402002e 	streq	r0, [r2], #-46	; 0x2e
     95c:	21080601 	tstcs	r8, r1, lsl #12
     960:	73032f67 	movwvc	r2, #16231	; 0x3f67
     964:	2e130382 	cdpcs	3, 1, cr0, cr3, cr2, {4}
     968:	01040200 	mrseq	r0, R12_usr
     96c:	02006606 	andeq	r6, r0, #6291456	; 0x600000
     970:	83060104 	movwhi	r0, #24836	; 0x6104
     974:	31674b4b 	cmncc	r7, fp, asr #22
     978:	2e65034b 	cdpcs	3, 6, cr0, cr5, cr11, {2}
     97c:	002e2303 	eoreq	r2, lr, r3, lsl #6
     980:	06010402 	streq	r0, [r1], -r2, lsl #8
     984:	0402002e 	streq	r0, [r2], #-46	; 0x2e
     988:	009f0601 	addseq	r0, pc, r1, lsl #12
     98c:	6a010402 	bvs	4199c <__bss_end__+0x379d4>
     990:	a403d7d9 	strge	sp, [r3], #-2009	; 0x7d9
     994:	2f20087f 	svccs	0x0020087f
     998:	01040200 	mrseq	r0, R12_usr
     99c:	d7064a06 	strle	r4, [r6, -r6, lsl #20]
     9a0:	dc032f4b 	stcle	15, cr2, [r3], {75}	; 0x4b
     9a4:	4c83f200 	sfmmi	f7, 1, [r3], {0}
     9a8:	2e0e0348 	cdpcs	3, 0, cr0, cr14, cr8, {2}
     9ac:	2f2e7503 	svccs	0x002e7503
     9b0:	2f4b842f 	svccs	0x004b842f
     9b4:	30314d2d 	eorscc	r4, r1, sp, lsr #26
     9b8:	0200832f 	andeq	r8, r0, #-1140850688	; 0xbc000000
     9bc:	a22c0104 	eorge	r0, ip, #4, 2
     9c0:	01040200 	mrseq	r0, R12_usr
     9c4:	d8064a06 	stmdale	r6, {r1, r2, r9, fp, lr}
     9c8:	03163602 	tsteq	r6, #2097152	; 0x200000
     9cc:	2108d60e 	tstcs	r8, lr, lsl #12
     9d0:	f331f330 	vcge.u<illegal width 64>	d15, d1, d16
     9d4:	4b30f330 	blmi	c3d69c <__bss_end__+0xc336d4>
     9d8:	0830f330 	ldmdaeq	r0!, {r4, r5, r8, r9, ip, sp, lr, pc}
     9dc:	002f3123 	eoreq	r3, pc, r3, lsr #2
     9e0:	65010402 	strvs	r0, [r1, #-1026]	; 0x402
     9e4:	02040200 	andeq	r0, r4, #0, 4
     9e8:	02004a06 	andeq	r4, r0, #24576	; 0x6000
     9ec:	03060104 	movweq	r0, #24836	; 0x6104
     9f0:	02006642 	andeq	r6, r0, #69206016	; 0x4200000
     9f4:	66060204 	strvs	r0, [r6], -r4, lsl #4
     9f8:	00c20306 	sbceq	r0, r2, r6, lsl #6
     9fc:	1002684a 	andne	r6, r2, sl, asr #16
     a00:	9c010100 	stflss	f0, [r1], {-0}
     a04:	02000000 	andeq	r0, r0, #0
     a08:	00008600 	andeq	r8, r0, r0, lsl #12
     a0c:	fb010200 	blx	41216 <__bss_end__+0x3724e>
     a10:	01000d0e 	tsteq	r0, lr, lsl #26
     a14:	00010101 	andeq	r0, r1, r1, lsl #2
     a18:	00010000 	andeq	r0, r1, r0
     a1c:	74730100 	ldrbtvc	r0, [r3], #-256	; 0x100
     a20:	2d666661 	stclcs	6, cr6, [r6, #-388]!	; 0xfffffe7c
     a24:	00637273 	rsbeq	r7, r3, r3, ror r2
     a28:	6573552f 	ldrbvs	r5, [r3, #-1327]!	; 0x52f
     a2c:	622f7372 	eorvs	r7, pc, #-939524095	; 0xc8000001
     a30:	6e616972 	mcrvs	9, 3, r6, cr1, cr2, {3}
     a34:	2f6e756a 	svccs	0x006e756a
     a38:	6b736544 	blvs	1cd9f50 <__bss_end__+0x1ccff88>
     a3c:	2f706f74 	svccs	0x00706f74
     a40:	6f686373 	svcvs	0x00686373
     a44:	532f6c6f 	teqpl	pc, #28416	; 0x6f00
     a48:	6e697270 	mcrvs	2, 3, r7, cr9, cr0, {3}
     a4c:	32393167 	eorscc	r3, r9, #-1073741799	; 0xc0000019
     a50:	53432f30 	movtpl	r2, #16176	; 0x3f30
     a54:	4c303432 	cfldrsmi	mvf3, [r0], #-200	; 0xffffff38
     a58:	73632f58 	cmnvc	r3, #88, 30	; 0x160
     a5c:	6c303432 	cfldrsvs	mvf3, [r0], #-200	; 0xffffff38
     a60:	30322d78 	eorscc	r2, r2, r8, ror sp
     a64:	2f727073 	svccs	0x00727073
     a68:	7062696c 	rsbvc	r6, r2, ip, ror #18
     a6c:	6e692f69 	cdpvs	15, 6, cr2, cr9, cr9, {3}
     a70:	64756c63 	ldrbtvs	r6, [r5], #-3171	; 0xc63
     a74:	63000065 	movwvs	r0, #101	; 0x65
     a78:	6e61656c 	cdpvs	5, 6, cr6, cr1, cr12, {3}
     a7c:	6265722d 	rsbvs	r7, r5, #-805306366	; 0xd0000002
     a80:	2e746f6f 	cdpcs	15, 7, cr6, cr4, cr15, {3}
     a84:	00010063 	andeq	r0, r1, r3, rrx
     a88:	69707200 	ldmdbvs	r0!, {r9, ip, sp, lr}^
     a8c:	0200682e 	andeq	r6, r0, #3014656	; 0x2e0000
     a90:	00000000 	andeq	r0, r0, r0
     a94:	8f2c0205 	svchi	0x002c0205
     a98:	2f150000 	svccs	0x00150000
     a9c:	06024b83 	streq	r4, [r2], -r3, lsl #23
     aa0:	a3010100 	movwge	r0, #4352	; 0x1100
     aa4:	02000000 	andeq	r0, r0, #0
     aa8:	00008000 	andeq	r8, r0, r0
     aac:	fb010200 	blx	412b6 <__bss_end__+0x372ee>
     ab0:	01000d0e 	tsteq	r0, lr, lsl #26
     ab4:	00010101 	andeq	r0, r1, r1, lsl #2
     ab8:	00010000 	andeq	r0, r1, r0
     abc:	74730100 	ldrbtvc	r0, [r3], #-256	; 0x100
     ac0:	2d666661 	stclcs	6, cr6, [r6, #-388]!	; 0xfffffe7c
     ac4:	00637273 	rsbeq	r7, r3, r3, ror r2
     ac8:	6573552f 	ldrbvs	r5, [r3, #-1327]!	; 0x52f
     acc:	622f7372 	eorvs	r7, pc, #-939524095	; 0xc8000001
     ad0:	6e616972 	mcrvs	9, 3, r6, cr1, cr2, {3}
     ad4:	2f6e756a 	svccs	0x006e756a
     ad8:	6b736544 	blvs	1cd9ff0 <__bss_end__+0x1cd0028>
     adc:	2f706f74 	svccs	0x00706f74
     ae0:	6f686373 	svcvs	0x00686373
     ae4:	532f6c6f 	teqpl	pc, #28416	; 0x6f00
     ae8:	6e697270 	mcrvs	2, 3, r7, cr9, cr0, {3}
     aec:	32393167 	eorscc	r3, r9, #-1073741799	; 0xc0000019
     af0:	53432f30 	movtpl	r2, #16176	; 0x3f30
     af4:	4c303432 	cfldrsmi	mvf3, [r0], #-200	; 0xffffff38
     af8:	73632f58 	cmnvc	r3, #88, 30	; 0x160
     afc:	6c303432 	cfldrsvs	mvf3, [r0], #-200	; 0xffffff38
     b00:	30322d78 	eorscc	r2, r2, r8, ror sp
     b04:	2f727073 	svccs	0x00727073
     b08:	7062696c 	rsbvc	r6, r2, ip, ror #18
     b0c:	6e692f69 	cdpvs	15, 6, cr2, cr9, cr9, {3}
     b10:	64756c63 	ldrbtvs	r6, [r5], #-3171	; 0xc63
     b14:	63000065 	movwvs	r0, #101	; 0x65
     b18:	72617473 	rsbvc	r7, r1, #1929379840	; 0x73000000
     b1c:	00632e74 	rsbeq	r2, r3, r4, ror lr
     b20:	72000001 	andvc	r0, r0, #1
     b24:	682e6970 	stmdavs	lr!, {r4, r5, r6, r8, fp, sp, lr}
     b28:	00000200 	andeq	r0, r0, r0, lsl #4
     b2c:	02050000 	andeq	r0, r5, #0
     b30:	00008f54 	andeq	r8, r0, r4, asr pc
     b34:	32010c03 	andcc	r0, r1, #768	; 0x300
     b38:	2f2d2f31 	svccs	0x002d2f31
     b3c:	01040200 	mrseq	r0, R12_usr
     b40:	4a150349 	bmi	54186c <__bss_end__+0x5378a4>
     b44:	0006022f 	andeq	r0, r6, pc, lsr #4
     b48:	00a20101 	adceq	r0, r2, r1, lsl #2
     b4c:	00020000 	andeq	r0, r2, r0
     b50:	00000080 	andeq	r0, r0, r0, lsl #1
     b54:	0efb0102 	cdpeq	1, 15, cr0, cr11, cr2, {0}
     b58:	0101000d 	tsteq	r1, sp
     b5c:	00000101 	andeq	r0, r0, r1, lsl #2
     b60:	00000100 	andeq	r0, r0, r0, lsl #2
     b64:	61747301 	cmnvs	r4, r1, lsl #6
     b68:	732d6666 	teqvc	sp, #106954752	; 0x6600000
     b6c:	2f006372 	svccs	0x00006372
     b70:	72657355 	rsbvc	r7, r5, #1409286145	; 0x54000001
     b74:	72622f73 	rsbvc	r2, r2, #460	; 0x1cc
     b78:	6a6e6169 	bvs	1b99124 <__bss_end__+0x1b8f15c>
     b7c:	442f6e75 	strtmi	r6, [pc], #-3701	; b84 <_start-0x747c>
     b80:	746b7365 	strbtvc	r7, [fp], #-869	; 0x365
     b84:	732f706f 	teqvc	pc, #111	; 0x6f
     b88:	6f6f6863 	svcvs	0x006f6863
     b8c:	70532f6c 	subsvc	r2, r3, ip, ror #30
     b90:	676e6972 			; <UNDEFINED> instruction: 0x676e6972
     b94:	30323931 	eorscc	r3, r2, r1, lsr r9
     b98:	3253432f 	subscc	r4, r3, #-1140850688	; 0xbc000000
     b9c:	584c3034 	stmdapl	ip, {r2, r4, r5, ip, sp}^
     ba0:	3273632f 	rsbscc	r6, r3, #-1140850688	; 0xbc000000
     ba4:	786c3034 	stmdavc	ip!, {r2, r4, r5, ip, sp}^
     ba8:	7330322d 	teqvc	r0, #-805306366	; 0xd0000002
     bac:	6c2f7270 	sfmvs	f7, 4, [pc], #-448	; 9f4 <_start-0x760c>
     bb0:	69706269 	ldmdbvs	r0!, {r0, r3, r5, r6, r9, sp, lr}^
     bb4:	636e692f 	cmnvs	lr, #770048	; 0xbc000
     bb8:	6564756c 	strbvs	r7, [r4, #-1388]!	; 0x56c
     bbc:	65720000 	ldrbvs	r0, [r2, #-0]!
     bc0:	746f6f62 	strbtvc	r6, [pc], #-3938	; bc8 <_start-0x7438>
     bc4:	0100632e 	tsteq	r0, lr, lsr #6
     bc8:	70720000 	rsbsvc	r0, r2, r0
     bcc:	00682e69 	rsbeq	r2, r8, r9, ror #28
     bd0:	00000002 	andeq	r0, r0, r2
     bd4:	88020500 	stmdahi	r2, {r8, sl}
     bd8:	0300008f 	movweq	r0, #143	; 0x8f
     bdc:	3114010d 	tstcc	r4, sp, lsl #2
     be0:	2f15852f 	svccs	0x0015852f
     be4:	672f4d4b 	strvs	r4, [pc, -fp, asr #26]!
     be8:	02675235 	rsbeq	r5, r7, #1342177283	; 0x50000003
     bec:	01010010 	tsteq	r1, r0, lsl r0
     bf0:	000000ac 	andeq	r0, r0, ip, lsr #1
     bf4:	007f0002 	rsbseq	r0, pc, r2
     bf8:	01020000 	mrseq	r0, (UNDEF: 2)
     bfc:	000d0efb 	strdeq	r0, [sp], -fp
     c00:	01010101 	tsteq	r1, r1, lsl #2
     c04:	01000000 	mrseq	r0, (UNDEF: 0)
     c08:	73010000 	movwvc	r0, #4096	; 0x1000
     c0c:	66666174 			; <UNDEFINED> instruction: 0x66666174
     c10:	6372732d 	cmnvs	r2, #-1275068416	; 0xb4000000
     c14:	73552f00 	cmpvc	r5, #0, 30
     c18:	2f737265 	svccs	0x00737265
     c1c:	61697262 	cmnvs	r9, r2, ror #4
     c20:	6e756a6e 	vsubvs.f32	s13, s10, s29
     c24:	7365442f 	cmnvc	r5, #788529152	; 0x2f000000
     c28:	706f746b 	rsbvc	r7, pc, fp, ror #8
     c2c:	6863732f 	stmdavs	r3!, {r0, r1, r2, r3, r5, r8, r9, ip, sp, lr}^
     c30:	2f6c6f6f 	svccs	0x006c6f6f
     c34:	69727053 	ldmdbvs	r2!, {r0, r1, r4, r6, ip, sp, lr}^
     c38:	3931676e 	ldmdbcc	r1!, {r1, r2, r3, r5, r6, r8, r9, sl, sp, lr}
     c3c:	432f3032 	teqmi	pc, #50	; 0x32
     c40:	30343253 	eorscc	r3, r4, r3, asr r2
     c44:	632f584c 	teqvs	pc, #76, 16	; 0x4c0000
     c48:	30343273 	eorscc	r3, r4, r3, ror r2
     c4c:	322d786c 	eorcc	r7, sp, #108, 16	; 0x6c0000
     c50:	72707330 	rsbsvc	r7, r0, #48, 6	; 0xc0000000
     c54:	62696c2f 	rsbvs	r6, r9, #12032	; 0x2f00
     c58:	692f6970 	stmdbvs	pc!, {r4, r5, r6, r8, fp, sp, lr}	; <UNPREDICTABLE>
     c5c:	756c636e 	strbvc	r6, [ip, #-878]!	; 0x36e
     c60:	00006564 	andeq	r6, r0, r4, ror #10
     c64:	656d6974 	strbvs	r6, [sp, #-2420]!	; 0x974
     c68:	00632e72 	rsbeq	r2, r3, r2, ror lr
     c6c:	72000001 	andvc	r0, r0, #1
     c70:	682e6970 	stmdavs	lr!, {r4, r5, r6, r8, fp, sp, lr}
     c74:	00000200 	andeq	r0, r0, r0, lsl #4
     c78:	02050000 	andeq	r0, r5, #0
     c7c:	00008ffc 	strdeq	r8, [r0], -ip
     c80:	2d2f1416 	cfstrscs	mvf1, [pc, #-88]!	; c30 <_start-0x73d0>
     c84:	01040200 	mrseq	r0, R12_usr
     c88:	6d062e06 	stcvs	14, cr2, [r6, #-24]	; 0xffffffe8
     c8c:	4d4b2f31 	stclmi	15, cr2, [fp, #-196]	; 0xffffff3c
     c90:	4b303132 	blmi	c0d160 <__bss_end__+0xc03198>
     c94:	2f6a2f4c 	svccs	0x006a2f4c
     c98:	022f842f 	eoreq	r8, pc, #788529152	; 0x2f000000
     c9c:	01010008 	tsteq	r1, r8
     ca0:	00000148 	andeq	r0, r0, r8, asr #2
     ca4:	01020002 	tsteq	r2, r2
     ca8:	01020000 	mrseq	r0, (UNDEF: 2)
     cac:	000d0efb 	strdeq	r0, [sp], -fp
     cb0:	01010101 	tsteq	r1, r1, lsl #2
     cb4:	01000000 	mrseq	r0, (UNDEF: 0)
     cb8:	2f010000 	svccs	0x00010000
     cbc:	2f727375 	svccs	0x00727375
     cc0:	6c636e69 	stclvs	14, cr6, [r3], #-420	; 0xfffffe5c
     cc4:	2f656475 	svccs	0x00656475
     cc8:	6c77656e 	cfldr64vs	mvdx6, [r7], #-440	; 0xfffffe48
     ccc:	732f6269 	teqvc	pc, #-1879048186	; 0x90000006
     cd0:	2f007379 	svccs	0x00007379
     cd4:	2f727375 	svccs	0x00727375
     cd8:	2f62696c 	svccs	0x0062696c
     cdc:	2f636367 	svccs	0x00636367
     ce0:	2d6d7261 	sfmcs	f7, 2, [sp, #-388]!	; 0xfffffe7c
     ce4:	656e6f6e 	strbvs	r6, [lr, #-3950]!	; 0xf6e
     ce8:	6261652d 	rsbvs	r6, r1, #188743680	; 0xb400000
     cec:	2e362f69 	cdpcs	15, 3, cr2, cr6, cr9, {3}
     cf0:	2f312e33 	svccs	0x00312e33
     cf4:	6c636e69 	stclvs	14, cr6, [r3], #-420	; 0xfffffe5c
     cf8:	00656475 	rsbeq	r6, r5, r5, ror r4
     cfc:	6d6f682f 	stclvs	8, cr6, [pc, #-188]!	; c48 <_start-0x73b8>
     d00:	6e652f65 	cdpvs	15, 6, cr2, cr5, cr5, {3}
     d04:	72656c67 	rsbvc	r6, r5, #26368	; 0x6700
     d08:	616c632f 	cmnvs	ip, pc, lsr #6
     d0c:	632f7373 	teqvs	pc, #-872415231	; 0xcc000001
     d10:	30343273 	eorscc	r3, r4, r3, ror r2
     d14:	322d786c 	eorcc	r7, sp, #108, 16	; 0x6c0000
     d18:	72707330 	rsbsvc	r7, r0, #48, 6	; 0xc0000000
     d1c:	696c2f2f 	stmdbvs	ip!, {r0, r1, r2, r3, r5, r8, r9, sl, fp, sp}^
     d20:	00697062 	rsbeq	r7, r9, r2, rrx
     d24:	6d6f682f 	stclvs	8, cr6, [pc, #-188]!	; c70 <_start-0x7390>
     d28:	6e652f65 	cdpvs	15, 6, cr2, cr5, cr5, {3}
     d2c:	72656c67 	rsbvc	r6, r5, #26368	; 0x6700
     d30:	616c632f 	cmnvs	ip, pc, lsr #6
     d34:	632f7373 	teqvs	pc, #-872415231	; 0xcc000001
     d38:	30343273 	eorscc	r3, r4, r3, ror r2
     d3c:	322d786c 	eorcc	r7, sp, #108, 16	; 0x6c0000
     d40:	72707330 	rsbsvc	r7, r0, #48, 6	; 0xc0000000
     d44:	696c2f2f 	stmdbvs	ip!, {r0, r1, r2, r3, r5, r8, r9, sl, fp, sp}^
     d48:	2f697062 	svccs	0x00697062
     d4c:	66617473 			; <UNDEFINED> instruction: 0x66617473
     d50:	72732d66 	rsbsvc	r2, r3, #6528	; 0x1980
     d54:	75000063 	strvc	r0, [r0, #-99]	; 0x63
     d58:	2e747261 	cdpcs	2, 7, cr7, cr4, cr1, {3}
     d5c:	00000063 	andeq	r0, r0, r3, rrx
     d60:	636f6c00 	cmnvs	pc, #0, 24
     d64:	00682e6b 	rsbeq	r2, r8, fp, ror #28
     d68:	5f000001 	svcpl	0x00000001
     d6c:	65707974 	ldrbvs	r7, [r0, #-2420]!	; 0x974
     d70:	00682e73 	rsbeq	r2, r8, r3, ror lr
     d74:	73000001 	movwvc	r0, #1
     d78:	65646474 	strbvs	r6, [r4, #-1140]!	; 0x474
     d7c:	00682e66 	rsbeq	r2, r8, r6, ror #28
     d80:	72000002 	andvc	r0, r0, #2
     d84:	746e6565 	strbtvc	r6, [lr], #-1381	; 0x565
     d88:	0100682e 	tsteq	r0, lr, lsr #16
     d8c:	70720000 	rsbsvc	r0, r2, r0
     d90:	00682e69 	rsbeq	r2, r8, r9, ror #28
     d94:	75000003 	strvc	r0, [r0, #-3]
     d98:	2e747261 	cdpcs	2, 7, cr7, cr4, cr1, {3}
     d9c:	00040068 	andeq	r0, r4, r8, rrx
     da0:	69706700 	ldmdbvs	r0!, {r8, r9, sl, sp, lr}^
     da4:	00682e6f 	rsbeq	r2, r8, pc, ror #28
     da8:	00000004 	andeq	r0, r0, r4
     dac:	d0020500 	andle	r0, r2, r0, lsl #10
     db0:	03000090 	movweq	r0, #144	; 0x90
     db4:	0367012c 	cmneq	r7, #44, 2
     db8:	67359e0c 	ldrvs	r9, [r5, -ip, lsl #28]!
     dbc:	03683568 	cmneq	r8, #104, 10	; 0x1a000000
     dc0:	6b852e0c 	blvs	fe14c5f8 <__bss_end__+0xfe142630>
     dc4:	0c036969 	stceq	9, cr6, [r3], {105}	; 0x69
     dc8:	08676b66 	stmdaeq	r7!, {r1, r2, r5, r6, r8, r9, fp, sp, lr}^
     dcc:	4b683442 	blmi	1a0dedc <__bss_end__+0x1a03f14>
     dd0:	2f876836 	svccs	0x00876836
     dd4:	01040200 	mrseq	r0, R12_usr
     dd8:	3067682f 	rsbcc	r6, r7, pc, lsr #16
     ddc:	02004b67 	andeq	r4, r0, #105472	; 0x19c00
     de0:	682f0104 	stmdavs	pc!, {r2, r8}	; <UNPREDICTABLE>
     de4:	022e6967 	eoreq	r6, lr, #1687552	; 0x19c000
     de8:	01010006 	tsteq	r1, r6
     dec:	0000012b 	andeq	r0, r0, fp, lsr #2
     df0:	00f80002 	rscseq	r0, r8, r2
     df4:	01020000 	mrseq	r0, (UNDEF: 2)
     df8:	000d0efb 	strdeq	r0, [sp], -fp
     dfc:	01010101 	tsteq	r1, r1, lsl #2
     e00:	01000000 	mrseq	r0, (UNDEF: 0)
     e04:	2f010000 	svccs	0x00010000
     e08:	2f727375 	svccs	0x00727375
     e0c:	6c636e69 	stclvs	14, cr6, [r3], #-420	; 0xfffffe5c
     e10:	2f656475 	svccs	0x00656475
     e14:	6c77656e 	cfldr64vs	mvdx6, [r7], #-440	; 0xfffffe48
     e18:	732f6269 	teqvc	pc, #-1879048186	; 0x90000006
     e1c:	2f007379 	svccs	0x00007379
     e20:	2f727375 	svccs	0x00727375
     e24:	2f62696c 	svccs	0x0062696c
     e28:	2f636367 	svccs	0x00636367
     e2c:	2d6d7261 	sfmcs	f7, 2, [sp, #-388]!	; 0xfffffe7c
     e30:	656e6f6e 	strbvs	r6, [lr, #-3950]!	; 0xf6e
     e34:	6261652d 	rsbvs	r6, r1, #188743680	; 0xb400000
     e38:	2e362f69 	cdpcs	15, 3, cr2, cr6, cr9, {3}
     e3c:	2f312e33 	svccs	0x00312e33
     e40:	6c636e69 	stclvs	14, cr6, [r3], #-420	; 0xfffffe5c
     e44:	00656475 	rsbeq	r6, r5, r5, ror r4
     e48:	6d6f682f 	stclvs	8, cr6, [pc, #-188]!	; d94 <_start-0x726c>
     e4c:	6e652f65 	cdpvs	15, 6, cr2, cr5, cr5, {3}
     e50:	72656c67 	rsbvc	r6, r5, #26368	; 0x6700
     e54:	616c632f 	cmnvs	ip, pc, lsr #6
     e58:	632f7373 	teqvs	pc, #-872415231	; 0xcc000001
     e5c:	30343273 	eorscc	r3, r4, r3, ror r2
     e60:	322d786c 	eorcc	r7, sp, #108, 16	; 0x6c0000
     e64:	72707330 	rsbsvc	r7, r0, #48, 6	; 0xc0000000
     e68:	696c2f2f 	stmdbvs	ip!, {r0, r1, r2, r3, r5, r8, r9, sl, fp, sp}^
     e6c:	00697062 	rsbeq	r7, r9, r2, rrx
     e70:	6d6f682f 	stclvs	8, cr6, [pc, #-188]!	; dbc <_start-0x7244>
     e74:	6e652f65 	cdpvs	15, 6, cr2, cr5, cr5, {3}
     e78:	72656c67 	rsbvc	r6, r5, #26368	; 0x6700
     e7c:	616c632f 	cmnvs	ip, pc, lsr #6
     e80:	632f7373 	teqvs	pc, #-872415231	; 0xcc000001
     e84:	30343273 	eorscc	r3, r4, r3, ror r2
     e88:	322d786c 	eorcc	r7, sp, #108, 16	; 0x6c0000
     e8c:	72707330 	rsbsvc	r7, r0, #48, 6	; 0xc0000000
     e90:	696c2f2f 	stmdbvs	ip!, {r0, r1, r2, r3, r5, r8, r9, sl, fp, sp}^
     e94:	2f697062 	svccs	0x00697062
     e98:	66617473 			; <UNDEFINED> instruction: 0x66617473
     e9c:	72732d66 	rsbsvc	r2, r3, #6528	; 0x1980
     ea0:	67000063 	strvs	r0, [r0, -r3, rrx]
     ea4:	2e6f6970 	mcrcs	9, 3, r6, cr15, cr0, {3}
     ea8:	00000063 	andeq	r0, r0, r3, rrx
     eac:	636f6c00 	cmnvs	pc, #0, 24
     eb0:	00682e6b 	rsbeq	r2, r8, fp, ror #28
     eb4:	5f000001 	svcpl	0x00000001
     eb8:	65707974 	ldrbvs	r7, [r0, #-2420]!	; 0x974
     ebc:	00682e73 	rsbeq	r2, r8, r3, ror lr
     ec0:	73000001 	movwvc	r0, #1
     ec4:	65646474 	strbvs	r6, [r4, #-1140]!	; 0x474
     ec8:	00682e66 	rsbeq	r2, r8, r6, ror #28
     ecc:	72000002 	andvc	r0, r0, #2
     ed0:	746e6565 	strbtvc	r6, [lr], #-1381	; 0x565
     ed4:	0100682e 	tsteq	r0, lr, lsr #16
     ed8:	70720000 	rsbsvc	r0, r2, r0
     edc:	00682e69 	rsbeq	r2, r8, r9, ror #28
     ee0:	67000003 	strvs	r0, [r0, -r3]
     ee4:	2e6f6970 	mcrcs	9, 3, r6, cr15, cr0, {3}
     ee8:	00040068 	andeq	r0, r4, r8, rrx
     eec:	05000000 	streq	r0, [r0, #-0]
     ef0:	00924802 	addseq	r4, r2, r2, lsl #16
     ef4:	01270300 	teqeq	r7, r0, lsl #6
     ef8:	4f474c13 	svcmi	0x00474c13
     efc:	4c4b68f4 	mcrrmi	8, 15, r6, fp, cr4
     f00:	136a2fa1 	cmnne	sl, #644	; 0x284
     f04:	13be3149 			; <UNDEFINED> instruction: 0x13be3149
     f08:	2fbe3149 	svccs	0x00be3149
     f0c:	484d2f6a 	stmdami	sp, {r1, r3, r5, r6, r8, r9, sl, fp, sp}^
     f10:	3249134f 	subcc	r1, r9, #1006632961	; 0x3c000001
     f14:	0602b72f 	streq	fp, [r2], -pc, lsr #14
     f18:	34010100 	strcc	r0, [r1], #-256	; 0x100
     f1c:	02000001 	andeq	r0, r0, #1
     f20:	0000df00 	andeq	sp, r0, r0, lsl #30
     f24:	fb010200 	blx	4172e <__bss_end__+0x37766>
     f28:	01000d0e 	tsteq	r0, lr, lsl #26
     f2c:	00010101 	andeq	r0, r1, r1, lsl #2
     f30:	00010000 	andeq	r0, r1, r0
     f34:	752f0100 	strvc	r0, [pc, #-256]!	; e3c <_start-0x71c4>
     f38:	692f7273 	stmdbvs	pc!, {r0, r1, r4, r5, r6, r9, ip, sp, lr}	; <UNPREDICTABLE>
     f3c:	756c636e 	strbvc	r6, [ip, #-878]!	; 0x36e
     f40:	6e2f6564 	cfsh64vs	mvdx6, mvdx15, #52
     f44:	696c7765 	stmdbvs	ip!, {r0, r2, r5, r6, r8, r9, sl, ip, sp, lr}^
     f48:	79732f62 	ldmdbvc	r3!, {r1, r5, r6, r8, r9, sl, fp, sp}^
     f4c:	752f0073 	strvc	r0, [pc, #-115]!	; ee1 <_start-0x711f>
     f50:	6c2f7273 	sfmvs	f7, 4, [pc], #-460	; d8c <_start-0x7274>
     f54:	672f6269 	strvs	r6, [pc, -r9, ror #4]!
     f58:	612f6363 	teqvs	pc, r3, ror #6
     f5c:	6e2d6d72 	mcrvs	13, 1, r6, cr13, cr2, {3}
     f60:	2d656e6f 	stclcs	14, cr6, [r5, #-444]!	; 0xfffffe44
     f64:	69626165 	stmdbvs	r2!, {r0, r2, r5, r6, r8, sp, lr}^
     f68:	332e362f 	teqcc	lr, #49283072	; 0x2f00000
     f6c:	692f312e 	stmdbvs	pc!, {r1, r2, r3, r5, r8, ip, sp}	; <UNPREDICTABLE>
     f70:	756c636e 	strbvc	r6, [ip, #-878]!	; 0x36e
     f74:	2f006564 	svccs	0x00006564
     f78:	656d6f68 	strbvs	r6, [sp, #-3944]!	; 0xf68
     f7c:	676e652f 	strbvs	r6, [lr, -pc, lsr #10]!
     f80:	2f72656c 	svccs	0x0072656c
     f84:	73616c63 	cmnvc	r1, #25344	; 0x6300
     f88:	73632f73 	cmnvc	r3, #460	; 0x1cc
     f8c:	6c303432 	cfldrsvs	mvf3, [r0], #-200	; 0xffffff38
     f90:	30322d78 	eorscc	r2, r2, r8, ror sp
     f94:	2f727073 	svccs	0x00727073
     f98:	62696c2f 	rsbvs	r6, r9, #12032	; 0x2f00
     f9c:	2f006970 	svccs	0x00006970
     fa0:	2f727375 	svccs	0x00727375
     fa4:	6c636e69 	stclvs	14, cr6, [r3], #-420	; 0xfffffe5c
     fa8:	2f656475 	svccs	0x00656475
     fac:	6c77656e 	cfldr64vs	mvdx6, [r7], #-440	; 0xfffffe48
     fb0:	00006269 	andeq	r6, r0, r9, ror #4
     fb4:	6c616d6b 	stclvs	13, cr6, [r1], #-428	; 0xfffffe54
     fb8:	2e636f6c 	cdpcs	15, 6, cr6, cr3, cr12, {3}
     fbc:	00000063 	andeq	r0, r0, r3, rrx
     fc0:	636f6c00 	cmnvs	pc, #0, 24
     fc4:	00682e6b 	rsbeq	r2, r8, fp, ror #28
     fc8:	5f000001 	svcpl	0x00000001
     fcc:	65707974 	ldrbvs	r7, [r0, #-2420]!	; 0x974
     fd0:	00682e73 	rsbeq	r2, r8, r3, ror lr
     fd4:	73000001 	movwvc	r0, #1
     fd8:	65646474 	strbvs	r6, [r4, #-1140]!	; 0x474
     fdc:	00682e66 	rsbeq	r2, r8, r6, ror #28
     fe0:	72000002 	andvc	r0, r0, #2
     fe4:	746e6565 	strbtvc	r6, [lr], #-1381	; 0x565
     fe8:	0100682e 	tsteq	r0, lr, lsr #16
     fec:	70720000 	rsbsvc	r0, r2, r0
     ff0:	00682e69 	rsbeq	r2, r8, r9, ror #28
     ff4:	73000003 	movwvc	r0, #3
     ff8:	6e697274 	mcrvs	2, 3, r7, cr9, cr4, {3}
     ffc:	00682e67 	rsbeq	r2, r8, r7, ror #28
    1000:	00000004 	andeq	r0, r0, r4
    1004:	68020500 	stmdavs	r2, {r8, sl}
    1008:	03000093 	movweq	r0, #147	; 0x93
    100c:	83010110 	movwhi	r0, #4368	; 0x1110
    1010:	83146801 	tsthi	r4, #65536	; 0x10000
    1014:	01040200 	mrseq	r0, R12_usr
    1018:	0402007f 	streq	r0, [r2], #-127	; 0x7f
    101c:	5c083001 	stcpl	0, cr3, [r8], {1}
    1020:	4b4c4b2f 	blmi	1313ce4 <__bss_end__+0x1309d1c>
    1024:	0200684b 	andeq	r6, r0, #4915200	; 0x4b0000
    1028:	79030104 	stmdbvc	r3, {r2, r8}
    102c:	0809034a 	stmdaeq	r9, {r1, r3, r6, r8, r9}
    1030:	2e012f58 	mcrcs	15, 0, r2, cr1, cr8, {2}
    1034:	4b6a2f4e 	blmi	1a8cd74 <__bss_end__+0x1a82dac>
    1038:	2f4c6767 	svccs	0x004c6767
    103c:	01040200 	mrseq	r0, R12_usr
    1040:	002e7603 	eoreq	r7, lr, r3, lsl #12
    1044:	dc010402 	cfstrsle	mvf0, [r1], {2}
    1048:	012f7a08 	teqeq	pc, r8, lsl #20
    104c:	0802019f 	stmdaeq	r2, {r0, r1, r2, r3, r4, r7, r8}
    1050:	Address 0x0000000000001050 is out of bounds.


Disassembly of section .debug_str:

00000000 <.debug_str>:
   0:	657a6973 	ldrbvs	r6, [sl, #-2419]!	; 0x973
   4:	6300745f 	movwvs	r7, #1119	; 0x45f
   8:	6c6c616b 	stfvse	f6, [ip], #-428	; 0xfffffe54
   c:	4700636f 	strmi	r6, [r0, -pc, ror #6]
  10:	4320554e 	teqmi	r0, #327155712	; 0x13800000
  14:	382e3420 	stmdacc	lr!, {r5, sl, ip, sp}
  18:	2d20332e 	stccs	3, cr3, [r0, #-184]!	; 0xffffff48
  1c:	7570636d 	ldrbvc	r6, [r0, #-877]!	; 0x36d
  20:	6d72613d 	ldfvse	f6, [r2, #-244]!	; 0xffffff0c
  24:	36373131 			; <UNDEFINED> instruction: 0x36373131
  28:	2d667a6a 	vstmdbcs	r6!, {s15-s120}
  2c:	6d2d2073 	stcvs	0, cr2, [sp, #-460]!	; 0xfffffe34
  30:	656e7574 	strbvs	r7, [lr, #-1396]!	; 0x574
  34:	6d72613d 	ldfvse	f6, [r2, #-244]!	; 0xffffff0c
  38:	36373131 			; <UNDEFINED> instruction: 0x36373131
  3c:	2d667a6a 	vstmdbcs	r6!, {s15-s120}
  40:	672d2073 			; <UNDEFINED> instruction: 0x672d2073
  44:	20626467 	rsbcs	r6, r2, r7, ror #8
  48:	20674f2d 	rsbcs	r4, r7, sp, lsr #30
  4c:	6474732d 	ldrbtvs	r7, [r4], #-813	; 0x32d
  50:	756e673d 	strbvc	r6, [lr, #-1853]!	; 0x73d
  54:	2d203939 	stccs	9, cr3, [r0, #-228]!	; 0xffffff1c
  58:	65726666 	ldrbvs	r6, [r2, #-1638]!	; 0x666
  5c:	61747365 	cmnvs	r4, r5, ror #6
  60:	6e69646e 	cdpvs	4, 6, cr6, cr9, cr14, {3}
  64:	6f6e0067 	svcvs	0x006e0067
  68:	69616d74 	stmdbvs	r1!, {r2, r4, r5, r6, r8, sl, fp, sp, lr}^
  6c:	6b63006e 	blvs	18c022c <__bss_end__+0x18b6264>
  70:	6165685f 	cmnvs	r5, pc, asr r8
  74:	72655f70 	rsbvc	r5, r5, #112, 30	; 0x1c0
  78:	73726f72 	cmnvc	r2, #456	; 0x1c8
  7c:	736e7500 	cmnvc	lr, #0, 10
  80:	656e6769 	strbvs	r6, [lr, #-1897]!	; 0x769
  84:	68632064 	stmdavs	r3!, {r2, r5, r6, sp}^
  88:	70007261 	andvc	r7, r0, r1, ror #4
  8c:	31747261 	cmncc	r4, r1, ror #4
  90:	7365742d 	cmnvc	r5, #754974720	; 0x2d000000
  94:	632e3374 	teqvs	lr, #116, 6	; 0xd0000001
  98:	73552f00 	cmpvc	r5, #0, 30
  9c:	2f737265 	svccs	0x00737265
  a0:	61697262 	cmnvs	r9, r2, ror #4
  a4:	6e756a6e 	vsubvs.f32	s13, s10, s29
  a8:	7365442f 	cmnvc	r5, #788529152	; 0x2f000000
  ac:	706f746b 	rsbvc	r7, pc, fp, ror #8
  b0:	6863732f 	stmdavs	r3!, {r0, r1, r2, r3, r5, r8, r9, ip, sp, lr}^
  b4:	2f6c6f6f 	svccs	0x006c6f6f
  b8:	69727053 	ldmdbvs	r2!, {r0, r1, r4, r6, ip, sp, lr}^
  bc:	3931676e 	ldmdbcc	r1!, {r1, r2, r3, r5, r6, r8, r9, sl, sp, lr}
  c0:	432f3032 	teqmi	pc, #50	; 0x32
  c4:	30343253 	eorscc	r3, r4, r3, asr r2
  c8:	632f584c 	teqvs	pc, #76, 16	; 0x4c0000
  cc:	30343273 	eorscc	r3, r4, r3, ror r2
  d0:	322d786c 	eorcc	r7, sp, #108, 16	; 0x6c0000
  d4:	72707330 	rsbsvc	r7, r0, #48, 6	; 0xc0000000
  d8:	62616c2f 	rsbvs	r6, r1, #12032	; 0x2f00
  dc:	30312f73 	eorscc	r2, r1, r3, ror pc
  e0:	6d656d2d 	stclvs	13, cr6, [r5, #-180]!	; 0xffffff4c
  e4:	63656863 	cmnvs	r5, #6488064	; 0x630000
  e8:	74732d6b 	ldrbtvc	r2, [r3], #-3435	; 0xd6b
  ec:	632f7461 	teqvs	pc, #1627389952	; 0x61000000
  f0:	0065646f 	rsbeq	r6, r5, pc, ror #8
  f4:	726f6873 	rsbvc	r6, pc, #7536640	; 0x730000
  f8:	6e752074 	mrcvs	0, 3, r2, cr5, cr4, {3}
  fc:	6e676973 	mcrvs	9, 3, r6, cr7, cr3, {3}
 100:	69206465 	stmdbvs	r0!, {r0, r2, r5, r6, sl, sp, lr}
 104:	7500746e 	strvc	r7, [r0, #-1134]	; 0x46e
 108:	33746e69 	cmncc	r4, #1680	; 0x690
 10c:	00745f32 	rsbseq	r5, r4, r2, lsr pc
 110:	6c616d6b 	stclvs	13, cr6, [r1], #-428	; 0xfffffe54
 114:	00636f6c 	rsbeq	r6, r3, ip, ror #30
 118:	736d656d 	cmnvc	sp, #457179136	; 0x1b400000
 11c:	5f007465 	svcpl	0x00007465
 120:	4e55465f 	mrcmi	6, 2, r4, cr5, cr15, {2}
 124:	4f495443 	svcmi	0x00495443
 128:	005f5f4e 	subseq	r5, pc, lr, asr #30
 12c:	695f6b63 	ldmdbvs	pc, {r0, r1, r5, r6, r8, r9, fp, sp, lr}^	; <UNPREDICTABLE>
 130:	0074696e 	rsbseq	r6, r4, lr, ror #18
 134:	676e6f6c 	strbvs	r6, [lr, -ip, ror #30]!
 138:	6e6f6c20 	cdpvs	12, 6, cr6, cr15, cr0, {1}
 13c:	6e752067 	cdpvs	0, 7, cr2, cr5, cr7, {3}
 140:	6e676973 	mcrvs	9, 3, r6, cr7, cr3, {3}
 144:	69206465 	stmdbvs	r0!, {r0, r2, r5, r6, sl, sp, lr}
 148:	6300746e 	movwvs	r7, #1134	; 0x46e
 14c:	6e61656c 	cdpvs	5, 6, cr6, cr1, cr12, {3}
 150:	6265725f 	rsbvs	r7, r5, #-268435451	; 0xf0000005
 154:	00746f6f 	rsbseq	r6, r4, pc, ror #30
 158:	657a6973 	ldrbvs	r6, [sl, #-2419]!	; 0x973
 15c:	65707974 	ldrbvs	r7, [r0, #-2420]!	; 0x974
 160:	6e6f6c00 	cdpvs	12, 6, cr6, cr15, cr0, {0}
 164:	6f6c2067 	svcvs	0x006c2067
 168:	6920676e 	stmdbvs	r0!, {r1, r2, r3, r5, r6, r8, r9, sl, sp, lr}
 16c:	6300746e 	movwvs	r7, #1134	; 0x46e
 170:	6572666b 	ldrbvs	r6, [r2, #-1643]!	; 0x66b
 174:	68730065 	ldmdavs	r3!, {r0, r2, r5, r6}^
 178:	2074726f 	rsbscs	r7, r4, pc, ror #4
 17c:	00746e69 	rsbseq	r6, r4, r9, ror #28
 180:	7272656e 	rsbsvc	r6, r2, #461373440	; 0x1b800000
 184:	616d6b00 	cmnvs	sp, r0, lsl #22
 188:	636f6c6c 	cmnvs	pc, #108, 24	; 0x6c00
 18c:	696e695f 	stmdbvs	lr!, {r0, r1, r2, r3, r4, r6, r8, fp, sp, lr}^
 190:	65735f74 	ldrbvs	r5, [r3, #-3956]!	; 0xf74
 194:	74735f74 	ldrbtvc	r5, [r3], #-3956	; 0xf74
 198:	00747261 	rsbseq	r7, r4, r1, ror #4
 19c:	5f697072 	svcpl	0x00697072
 1a0:	65736572 	ldrbvs	r6, [r3, #-1394]!	; 0x572
 1a4:	75705f74 	ldrbvc	r5, [r0, #-3956]!	; 0xf74
 1a8:	70006374 	andvc	r6, r0, r4, ror r3
 1ac:	69646461 	stmdbvs	r4!, {r0, r5, r6, sl, sp, lr}^
 1b0:	7000676e 	andvc	r6, r0, lr, ror #14
 1b4:	00766572 	rsbseq	r6, r6, r2, ror r5
 1b8:	64615f68 	strbtvs	r5, [r1], #-3944	; 0xf68
 1bc:	66007264 	strvs	r7, [r0], -r4, ror #4
 1c0:	5f747361 	svcpl	0x00747361
 1c4:	68736168 	ldmdavs	r3!, {r3, r5, r6, r8, sp, lr}^
 1c8:	746f7400 	strbtvc	r7, [pc], #-1024	; 1d0 <_start-0x7e30>
 1cc:	735f6c61 	cmpvc	pc, #24832	; 0x6100
 1d0:	00657a69 	rsbeq	r7, r5, r9, ror #20
 1d4:	7a725f62 	bvc	1c97f64 <__bss_end__+0x1c8df9c>
 1d8:	74705f31 	ldrbtvc	r5, [r0], #-3889	; 0xf31
 1dc:	52460072 	subpl	r0, r6, #114	; 0x72
 1e0:	00444545 	subeq	r4, r4, r5, asr #10
 1e4:	4f4c4c41 	svcmi	0x004c4c41
 1e8:	00444543 	subeq	r4, r4, r3, asr #10
 1ec:	73666572 	cmnvc	r6, #478150656	; 0x1c800000
 1f0:	64696d5f 	strbtvs	r6, [r9], #-3423	; 0xd5f
 1f4:	00656c64 	rsbeq	r6, r5, r4, ror #24
 1f8:	64615f62 	strbtvs	r5, [r1], #-3938	; 0xf62
 1fc:	745f7264 	ldrbvc	r7, [pc], #-612	; 204 <_start-0x7dfc>
 200:	64685f6f 	strbtvs	r5, [r8], #-3951	; 0xf6f
 204:	65720072 	ldrbvs	r0, [r2, #-114]!	; 0x72
 208:	735f7366 	cmpvc	pc, #-1744830463	; 0x98000001
 20c:	74726174 	ldrbtvc	r6, [r2], #-372	; 0x174
 210:	6c6c6100 	stfvse	f6, [ip], #-0
 214:	6465636f 	strbtvs	r6, [r5], #-879	; 0x36f
 218:	45564f00 	ldrbmi	r4, [r6, #-3840]	; 0xf00
 21c:	41454852 	cmpmi	r5, r2, asr r8
 220:	424e5f44 	submi	r5, lr, #68, 30	; 0x110
 224:	53455459 	movtpl	r5, #21593	; 0x5459
 228:	4c4c4100 	stfmie	f4, [ip], {-0}
 22c:	4f5f434f 	svcmi	0x005f434f
 230:	45534646 	ldrbmi	r4, [r3, #-1606]	; 0x646
 234:	68630054 	stmdavs	r3!, {r2, r4, r6}^
 238:	5f6b6365 	svcpl	0x006b6365
 23c:	00727470 	rsbseq	r7, r2, r0, ror r4
 240:	6c616b63 	stclvs	11, cr6, [r1], #-396	; 0xfffffe74
 244:	2e636f6c 	cdpcs	15, 6, cr6, cr3, cr12, {3}
 248:	6c610063 	stclvs	0, cr0, [r1], #-396	; 0xfffffe74
 24c:	5f636f6c 	svcpl	0x00636f6c
 250:	00636f6c 	rsbeq	r6, r3, ip, ror #30
 254:	5f726468 	svcpl	0x00726468
 258:	75736b63 	ldrbvc	r6, [r3, #-2915]!	; 0xb63
 25c:	4552006d 	ldrbmi	r0, [r2, #-109]	; 0x6d
 260:	4e4f5a44 	vmlsmi.f32	s11, s30, s8
 264:	626e0045 	rsbvs	r0, lr, #69	; 0x45
 268:	00736b6c 	rsbseq	r6, r3, ip, ror #22
 26c:	7479626e 	ldrbtvc	r6, [r9], #-622	; 0x26e
 270:	615f7365 	cmpvs	pc, r5, ror #6
 274:	636f6c6c 	cmnvs	pc, #108, 24	; 0x6c00
 278:	65726600 	ldrbvs	r6, [r2, #-1536]!	; 0x600
 27c:	6f6c5f65 	svcvs	0x006c5f65
 280:	5f620063 	svcpl	0x00620063
 284:	6f6c6c61 	svcvs	0x006c6c61
 288:	74705f63 	ldrbtvc	r5, [r0], #-3939	; 0xf63
 28c:	72730072 	rsbsvc	r0, r3, #114	; 0x72
 290:	6f6c5f63 	svcvs	0x006c5f63
 294:	00745f63 	rsbseq	r5, r4, r3, ror #30
 298:	70616568 	rsbvc	r6, r1, r8, ror #10
 29c:	65686300 	strbvs	r6, [r8, #-768]!	; 0x300
 2a0:	685f6b63 	ldmdavs	pc, {r0, r1, r5, r6, r8, r9, fp, sp, lr}^	; <UNPREDICTABLE>
 2a4:	62007264 	andvs	r7, r0, #100, 4	; 0x40000006
 2a8:	327a725f 	rsbscc	r7, sl, #-268435451	; 0xf0000005
 2ac:	7274705f 	rsbsvc	r7, r4, #95	; 0x5f
 2b0:	72656e00 	rsbvc	r6, r5, #0, 28
 2b4:	73726f72 	cmnvc	r2, #456	; 0x1c8
 2b8:	72646800 	rsbvc	r6, r4, #0, 16
 2bc:	6972705f 	ldmdbvs	r2!, {r0, r1, r2, r3, r4, r6, ip, sp, lr}^
 2c0:	5300746e 	movwpl	r7, #1134	; 0x46e
 2c4:	49544e45 	ldmdbmi	r4, {r0, r2, r6, r9, sl, fp, lr}^
 2c8:	004c414e 	subeq	r4, ip, lr, asr #2
 2cc:	6b72616d 	blvs	1c98888 <__bss_end__+0x1c8e8c0>
 2d0:	6d656d5f 	stclvs	13, cr6, [r5, #-380]!	; 0xfffffe84
 2d4:	65686300 	strbvs	r6, [r8, #-768]!	; 0x300
 2d8:	625f6b63 	subsvs	r6, pc, #101376	; 0x18c00
 2dc:	6b636f6c 	blvs	18dc094 <__bss_end__+0x18d20cc>
 2e0:	6e696c00 	cdpvs	12, 6, cr6, cr9, cr0, {0}
 2e4:	006f6e65 	rsbeq	r6, pc, r5, ror #28
 2e8:	7a725f62 	bvc	1c98078 <__bss_end__+0x1c8e0b0>
 2ec:	626e5f32 	rsbvs	r5, lr, #50, 30	; 0xc8
 2f0:	73657479 	cmnvc	r5, #2030043136	; 0x79000000
 2f4:	72646800 	rsbvc	r6, r4, #0, 16
 2f8:	736b635f 	cmnvc	fp, #2080374785	; 0x7c000001
 2fc:	765f6d75 			; <UNDEFINED> instruction: 0x765f6d75
 300:	75006c61 	strvc	r6, [r0, #-3169]	; 0xc61
 304:	38746e69 	ldmdacc	r4!, {r0, r3, r5, r6, r9, sl, fp, sp, lr}^
 308:	6800745f 	stmdavs	r0, {r0, r1, r2, r3, r4, r6, sl, ip, sp, lr}
 30c:	745f7264 	ldrbvc	r7, [pc], #-612	; 314 <_start-0x7cec>
 310:	79626e00 	stmdbvc	r2!, {r9, sl, fp, sp, lr}^
 314:	5f736574 	svcpl	0x00736574
 318:	006d6572 	rsbeq	r6, sp, r2, ror r5
 31c:	7466656c 	strbtvc	r6, [r6], #-1388	; 0x56c
 320:	65686300 	strbvs	r6, [r8, #-768]!	; 0x300
 324:	6d5f6b63 	vldrvs	d22, [pc, #-396]	; 1a0 <_start-0x7e60>
 328:	68006d65 	stmdavs	r0, {r0, r2, r5, r6, r8, sl, fp, sp, lr}
 32c:	65646165 	strbvs	r6, [r4, #-357]!	; 0x165
 330:	696c0072 	stmdbvs	ip!, {r1, r4, r5, r6}^
 334:	682f6362 	stmdavs	pc!, {r1, r5, r6, r8, r9, sp, lr}	; <UNPREDICTABLE>
 338:	2e687361 	cdpcs	3, 6, cr7, cr8, cr1, {3}
 33c:	552f0063 	strpl	r0, [pc, #-99]!	; 2e1 <_start-0x7d1f>
 340:	73726573 	cmnvc	r2, #482344960	; 0x1cc00000
 344:	6972622f 	ldmdbvs	r2!, {r0, r1, r2, r3, r5, r9, sp, lr}^
 348:	756a6e61 	strbvc	r6, [sl, #-3681]!	; 0xe61
 34c:	65442f6e 	strbvs	r2, [r4, #-3950]	; 0xf6e
 350:	6f746b73 	svcvs	0x00746b73
 354:	63732f70 	cmnvs	r3, #112, 30	; 0x1c0
 358:	6c6f6f68 	stclvs	15, cr6, [pc], #-416	; 1c0 <_start-0x7e40>
 35c:	7270532f 	rsbsvc	r5, r0, #-1140850688	; 0xbc000000
 360:	31676e69 	cmncc	r7, r9, ror #28
 364:	2f303239 	svccs	0x00303239
 368:	34325343 	ldrtcc	r5, [r2], #-835	; 0x343
 36c:	2f584c30 	svccs	0x00584c30
 370:	34327363 	ldrtcc	r7, [r2], #-867	; 0x363
 374:	2d786c30 	ldclcs	12, cr6, [r8, #-192]!	; 0xffffff40
 378:	70733032 	rsbsvc	r3, r3, r2, lsr r0
 37c:	696c2f72 	stmdbvs	ip!, {r1, r4, r5, r6, r8, r9, sl, fp, sp}^
 380:	00697062 	rsbeq	r7, r9, r2, rrx
 384:	6362696c 	cmnvs	r2, #108, 18	; 0x1b0000
 388:	6d656d2f 	stclvs	13, cr6, [r5, #-188]!	; 0xffffff44
 38c:	2e746573 	mrccs	5, 3, r6, cr4, cr3, {3}
 390:	5f5f0063 	svcpl	0x005f0063
 394:	63756e67 	cmnvs	r5, #1648	; 0x670
 398:	5f61765f 	svcpl	0x0061765f
 39c:	7473696c 	ldrbtvc	r6, [r3], #-2412	; 0x96c
 3a0:	62696c00 	rsbvs	r6, r9, #0, 24
 3a4:	72702f63 	rsbsvc	r2, r0, #396	; 0x18c
 3a8:	6b746e69 	blvs	1d1bd54 <__bss_end__+0x1d11d8c>
 3ac:	7600632e 	strvc	r6, [r0], -lr, lsr #6
 3b0:	72705f61 	rsbsvc	r5, r0, #388	; 0x184
 3b4:	6b746e69 	blvs	1d1bd60 <__bss_end__+0x1d11d98>
 3b8:	765f5f00 	ldrbvc	r5, [pc], -r0, lsl #30
 3bc:	696c5f61 	stmdbvs	ip!, {r0, r5, r6, r8, r9, sl, fp, ip, lr}^
 3c0:	5f007473 	svcpl	0x00007473
 3c4:	0070615f 	rsbseq	r6, r0, pc, asr r1
 3c8:	74726175 	ldrbtvc	r6, [r2], #-373	; 0x175
 3cc:	7475705f 	ldrbtvc	r7, [r5], #-95	; 0x5f
 3d0:	6e690063 	cdpvs	0, 6, cr0, cr9, cr3, {3}
 3d4:	6e726574 	mrcvs	5, 3, r6, cr2, cr4, {3}
 3d8:	705f6c61 	subsvc	r6, pc, r1, ror #24
 3dc:	68637475 	stmdavs	r3!, {r0, r2, r4, r5, r6, sl, ip, sp, lr}^
 3e0:	72007261 	andvc	r7, r0, #268435462	; 0x10000006
 3e4:	705f6970 	subsvc	r6, pc, r0, ror r9	; <UNPREDICTABLE>
 3e8:	68637475 	stmdavs	r3!, {r0, r2, r4, r5, r6, sl, ip, sp, lr}^
 3ec:	6c007261 	sfmvs	f7, 4, [r0], {97}	; 0x61
 3f0:	2f636269 	svccs	0x00636269
 3f4:	63747570 	cmnvs	r4, #112, 10	; 0x1c000000
 3f8:	2e726168 	rpwcssz	f6, f2, #0.0
 3fc:	70720063 	rsbsvc	r0, r2, r3, rrx
 400:	65735f69 	ldrbvs	r5, [r3, #-3945]!	; 0xf69
 404:	75705f74 	ldrbvc	r5, [r0, #-3956]!	; 0xf74
 408:	6c006374 	stcvs	3, cr6, [r0], {116}	; 0x74
 40c:	2f636269 	svccs	0x00636269
 410:	6b747570 	blvs	1d1d9d8 <__bss_end__+0x1d13a10>
 414:	6900632e 	stmdbvs	r0, {r1, r2, r3, r5, r8, r9, sp, lr}
 418:	7265746e 	rsbvc	r7, r5, #1845493760	; 0x6e000000
 41c:	5f6c616e 	svcpl	0x006c616e
 420:	6b747570 	blvs	1d1d9e8 <__bss_end__+0x1d13a20>
 424:	67656e00 	strbvs	r6, [r5, -r0, lsl #28]!
 428:	7200705f 	andvc	r7, r0, #95	; 0x5f
 42c:	72657665 	rsbvc	r7, r5, #105906176	; 0x6500000
 430:	69006573 	stmdbvs	r0, {r0, r1, r4, r5, r6, r8, sl, sp, lr}
 434:	67696473 			; <UNDEFINED> instruction: 0x67696473
 438:	70007469 	andvc	r7, r0, r9, ror #8
 43c:	5f737475 	svcpl	0x00737475
 440:	73007066 	movwvc	r7, #102	; 0x66
 444:	656e6769 	strbvs	r6, [lr, #-1897]!	; 0x769
 448:	00705f64 	rsbseq	r5, r0, r4, ror #30
 44c:	6362696c 	cmnvs	r2, #108, 18	; 0x1b0000
 450:	2d61762f 	stclcs	6, cr7, [r1, #-188]!	; 0xffffff44
 454:	6e697270 	mcrvs	2, 3, r7, cr9, cr0, {3}
 458:	632e6b74 	teqvs	lr, #116, 22	; 0x1d000
 45c:	69707200 	ldmdbvs	r0!, {r9, ip, sp, lr}^
 460:	7465735f 	strbtvc	r7, [r5], #-863	; 0x35f
 464:	74756f5f 	ldrbtvc	r6, [r5], #-3935	; 0xf5f
 468:	00747570 	rsbseq	r7, r4, r0, ror r5
 46c:	74646977 	strbtvc	r6, [r4], #-2423	; 0x977
 470:	75700068 	ldrbvc	r0, [r0, #-104]!	; 0x68
 474:	665f6374 			; <UNDEFINED> instruction: 0x665f6374
 478:	6d650070 	stclvs	0, cr0, [r5, #-448]!	; 0xfffffe40
 47c:	73007469 	movwvc	r7, #1129	; 0x469
 480:	66666174 			; <UNDEFINED> instruction: 0x66666174
 484:	6372732d 	cmnvs	r2, #-1275068416	; 0xb4000000
 488:	656c632f 	strbvs	r6, [ip, #-815]!	; 0x32f
 48c:	722d6e61 	eorvc	r6, sp, #1552	; 0x610
 490:	6f6f6265 	svcvs	0x006f6265
 494:	00632e74 	rsbeq	r2, r3, r4, ror lr
 498:	5f697072 	svcpl	0x00697072
 49c:	6f626572 	svcvs	0x00626572
 4a0:	6400746f 	strvs	r7, [r0], #-1135	; 0x46f
 4a4:	79616c65 	stmdbvc	r1!, {r0, r2, r5, r6, sl, fp, sp, lr}^
 4a8:	00736d5f 	rsbseq	r6, r3, pc, asr sp
 4ac:	73625f5f 	cmnvc	r2, #380	; 0x17c
 4b0:	74735f73 	ldrbtvc	r5, [r3], #-3955	; 0xf73
 4b4:	5f747261 	svcpl	0x00747261
 4b8:	5f5f005f 	svcpl	0x005f005f
 4bc:	5f737362 	svcpl	0x00737362
 4c0:	5f646e65 	svcpl	0x00646e65
 4c4:	7362005f 	cmnvc	r2, #95	; 0x5f
 4c8:	6e655f73 	mcrvs	15, 3, r5, cr5, cr3, {3}
 4cc:	635f0064 	cmpvs	pc, #100	; 0x64
 4d0:	72617473 	rsbvc	r7, r1, #1929379840	; 0x73000000
 4d4:	74730074 	ldrbtvc	r0, [r3], #-116	; 0x74
 4d8:	2d666661 	stclcs	6, cr6, [r6, #-388]!	; 0xfffffe7c
 4dc:	2f637273 	svccs	0x00637273
 4e0:	61747363 	cmnvs	r4, r3, ror #6
 4e4:	632e7472 	teqvs	lr, #1912602624	; 0x72000000
 4e8:	5f746100 	svcpl	0x00746100
 4ec:	72657375 	rsbvc	r7, r5, #-738197503	; 0xd4000001
 4f0:	76656c5f 			; <UNDEFINED> instruction: 0x76656c5f
 4f4:	73006c65 	movwvc	r6, #3173	; 0xc65
 4f8:	66666174 			; <UNDEFINED> instruction: 0x66666174
 4fc:	6372732d 	cmnvs	r2, #-1275068416	; 0xb4000000
 500:	6265722f 	rsbvs	r7, r5, #-268435454	; 0xf0000002
 504:	2e746f6f 	cdpcs	15, 7, cr6, cr4, cr15, {3}
 508:	4d500063 	ldclmi	0, cr0, [r0, #-396]	; 0xfffffe74
 50c:	5453525f 	ldrbpl	r5, [r3], #-607	; 0x25f
 510:	52575f43 	subspl	r5, r7, #268	; 0x10c
 514:	5f474643 	svcpl	0x00474643
 518:	4c4c5546 	cfstr64mi	mvdx5, [ip], {70}	; 0x46
 51c:	5345525f 	movtpl	r5, #21087	; 0x525f
 520:	50005445 	andpl	r5, r0, r5, asr #8
 524:	44575f4d 	ldrbmi	r5, [r7], #-3917	; 0xf4d
 528:	7300474f 	movwvc	r4, #1871	; 0x74f
 52c:	755f7465 	ldrbvc	r7, [pc, #-1125]	; cf <_start-0x7f31>
 530:	5f726573 	svcpl	0x00726573
 534:	6576656c 	ldrbvs	r6, [r6, #-1388]!	; 0x56c
 538:	5550006c 	ldrbpl	r0, [r0, #-108]	; 0x6c
 53c:	00323354 	eorseq	r3, r2, r4, asr r3
 540:	505f4d50 	subspl	r4, pc, r0, asr sp	; <UNPREDICTABLE>
 544:	57535341 	ldrbpl	r5, [r3, -r1, asr #6]
 548:	0044524f 	subeq	r5, r4, pc, asr #4
 54c:	525f4d50 	subspl	r4, pc, #80, 26	; 0x1400
 550:	00435453 	subeq	r5, r3, r3, asr r4
 554:	72737063 	rsbsvc	r7, r3, #99	; 0x63
 558:	6d697400 	cfstrdvs	mvd7, [r9, #-0]
 55c:	675f7265 	ldrbvs	r7, [pc, -r5, ror #4]
 560:	755f7465 	ldrbvc	r7, [pc, #-1125]	; 103 <_start-0x7efd>
 564:	5f636573 	svcpl	0x00636573
 568:	00776172 	rsbseq	r6, r7, r2, ror r1
 56c:	616c6564 	cmnvs	ip, r4, ror #10
 570:	65735f79 	ldrbvs	r5, [r3, #-3961]!	; 0xf79
 574:	74730063 	ldrbtvc	r0, [r3], #-99	; 0x63
 578:	2d666661 	stclcs	6, cr6, [r6, #-388]!	; 0xfffffe7c
 57c:	2f637273 	svccs	0x00637273
 580:	656d6974 	strbvs	r6, [sp, #-2420]!	; 0x974
 584:	00632e72 	rsbeq	r2, r3, r2, ror lr
 588:	33544547 	cmpcc	r4, #297795584	; 0x11c00000
 58c:	69740032 	ldmdbvs	r4!, {r1, r4, r5}^
 590:	00736b63 	rsbseq	r6, r3, r3, ror #22
 594:	616c6564 	cmnvs	ip, r4, ror #10
 598:	79635f79 	stmdbvc	r3!, {r0, r3, r4, r5, r6, r8, r9, sl, fp, ip, lr}^
 59c:	73656c63 	cmnvc	r5, #25344	; 0x6300
 5a0:	6c656400 	cfstrdvs	mvd6, [r5], #-0
 5a4:	755f7961 	ldrbvc	r7, [pc, #-2401]	; fffffc4b <__bss_end__+0xffff5c83>
 5a8:	69740073 	ldmdbvs	r4!, {r0, r1, r4, r5, r6}^
 5ac:	5f72656d 	svcpl	0x0072656d
 5b0:	5f746567 	svcpl	0x00746567
 5b4:	63657375 	cmnvs	r5, #-738197503	; 0xd4000001
 5b8:	73645f00 	cmnvc	r4, #0, 30
 5bc:	61685f6f 	cmnvs	r8, pc, ror #30
 5c0:	656c646e 	strbvs	r6, [ip, #-1134]!	; 0x46e
 5c4:	61725f00 	cmnvs	r2, r0, lsl #30
 5c8:	3834646e 	ldmdacc	r4!, {r1, r2, r3, r5, r6, sl, sp, lr}
 5cc:	6d655f00 	stclvs	15, cr5, [r5, #-0]
 5d0:	65677265 	strbvs	r7, [r7, #-613]!	; 0x265
 5d4:	0079636e 	rsbseq	r6, r9, lr, ror #6
 5d8:	74726175 	ldrbtvc	r6, [r2], #-373	; 0x175
 5dc:	696e695f 	stmdbvs	lr!, {r0, r1, r2, r3, r4, r6, r8, fp, sp, lr}^
 5e0:	775f0074 			; <UNDEFINED> instruction: 0x775f0074
 5e4:	6f747263 	svcvs	0x00747263
 5e8:	735f626d 	cmpvc	pc, #-805306362	; 0xd0000006
 5ec:	65746174 	ldrbvs	r6, [r4, #-372]!	; 0x174
 5f0:	63775f00 	cmnvs	r7, #0, 30
 5f4:	6f747273 	svcvs	0x00747273
 5f8:	5f73626d 	svcpl	0x0073626d
 5fc:	74617473 	strbtvc	r7, [r1], #-1139	; 0x473
 600:	6c5f0065 	mrrcvs	0, 6, r0, pc, cr5	; <UNPREDICTABLE>
 604:	69736662 	ldmdbvs	r3!, {r1, r5, r6, r9, sl, sp, lr}^
 608:	4700657a 	smlsdxmi	r0, sl, r5, r6
 60c:	5f4f4950 	svcpl	0x004f4950
 610:	434e5546 	movtmi	r5, #58694	; 0xe546
 614:	504e495f 	subpl	r4, lr, pc, asr r9
 618:	5f005455 	svcpl	0x00005455
 61c:	7472626d 	ldrbtvc	r6, [r2], #-621	; 0x26d
 620:	5f63776f 	svcpl	0x0063776f
 624:	74617473 	strbtvc	r7, [r1], #-1139	; 0x473
 628:	775f0065 	ldrbvc	r0, [pc, -r5, rrx]
 62c:	6d6f7463 	cfstrdvs	mvd7, [pc, #-396]!	; 4a8 <_start-0x7b58>
 630:	74735f62 	ldrbtvc	r5, [r3], #-3938	; 0xf62
 634:	00657461 	rsbeq	r7, r5, r1, ror #8
 638:	6d745f5f 	ldclvs	15, cr5, [r4, #-380]!	; 0xfffffe84
 63c:	6365735f 	cmnvs	r5, #2080374785	; 0x7c000001
 640:	61747300 	cmnvs	r4, r0, lsl #6
 644:	755f0074 	ldrbvc	r0, [pc, #-116]	; 5d8 <_start-0x7a28>
 648:	00667562 	rsbeq	r7, r6, r2, ror #10
 64c:	4f495047 	svcmi	0x00495047
 650:	4e55465f 	mrcmi	6, 2, r4, cr5, cr15, {2}
 654:	4c415f43 	mcrrmi	15, 4, r5, r1, cr3
 658:	5f003154 	svcpl	0x00003154
 65c:	65736162 	ldrbvs	r6, [r3, #-354]!	; 0x162
 660:	746e6300 	strbtvc	r6, [lr], #-768	; 0x300
 664:	5f5f006c 	svcpl	0x005f006c
 668:	685f6d74 	ldmdavs	pc, {r2, r4, r5, r6, r8, sl, fp, sp, lr}^	; <UNPREDICTABLE>
 66c:	0072756f 	rsbseq	r7, r2, pc, ror #10
 670:	66735f5f 	uhsaxvs	r5, r3, pc	; <UNPREDICTABLE>
 674:	6e6f5f00 	cdpvs	15, 6, cr5, cr15, cr0, {0}
 678:	6978655f 	ldmdbvs	r8!, {r0, r1, r2, r3, r4, r6, r8, sl, sp, lr}^
 67c:	72615f74 	rsbvc	r5, r1, #116, 30	; 0x1d0
 680:	5f007367 	svcpl	0x00007367
 684:	6b6f6f63 	blvs	1bdc418 <__bss_end__+0x1bd2450>
 688:	5f006569 	svcpl	0x00006569
 68c:	6c67735f 	stclvs	3, cr7, [r7], #-380	; 0xfffffe84
 690:	5f006575 	svcpl	0x00006575
 694:	67616c66 	strbvs	r6, [r1, -r6, ror #24]!
 698:	695f0073 	ldmdbvs	pc, {r0, r1, r4, r5, r6}^	; <UNPREDICTABLE>
 69c:	78635f73 	stmdavc	r3!, {r0, r1, r4, r5, r6, r8, r9, sl, fp, ip, lr}^
 6a0:	735f0061 	cmpvc	pc, #97	; 0x61
 6a4:	6e696474 	mcrvs	4, 3, r6, cr9, cr4, {3}
 6a8:	6c625f00 	stclvs	15, cr5, [r2], #-0
 6ac:	7a69736b 	bvc	1a5d460 <__bss_end__+0x1a53498>
 6b0:	61750065 	cmnvs	r5, r5, rrx
 6b4:	632e7472 	teqvs	lr, #1912602624	; 0x72000000
 6b8:	78756100 	ldmdavc	r5!, {r8, sp, lr}^
 6bc:	7265705f 	rsbvc	r7, r5, #95	; 0x5f
 6c0:	73687069 	cmnvc	r8, #105	; 0x69
 6c4:	76635f00 	strbtvc	r5, [r3], -r0, lsl #30
 6c8:	66756274 			; <UNDEFINED> instruction: 0x66756274
 6cc:	6f682f00 	svcvs	0x00682f00
 6d0:	652f656d 	strvs	r6, [pc, #-1389]!	; 16b <_start-0x7e95>
 6d4:	656c676e 	strbvs	r6, [ip, #-1902]!	; 0x76e
 6d8:	6c632f72 	stclvs	15, cr2, [r3], #-456	; 0xfffffe38
 6dc:	2f737361 	svccs	0x00737361
 6e0:	34327363 	ldrtcc	r7, [r2], #-867	; 0x363
 6e4:	2d786c30 	ldclcs	12, cr6, [r8, #-192]!	; 0xffffff40
 6e8:	70733032 	rsbsvc	r3, r3, r2, lsr r0
 6ec:	696c2f72 	stmdbvs	ip!, {r1, r4, r5, r6, r8, r9, sl, fp, sp}^
 6f0:	2f697062 	svccs	0x00697062
 6f4:	66617473 			; <UNDEFINED> instruction: 0x66617473
 6f8:	72702d66 	rsbsvc	r2, r0, #6528	; 0x1980
 6fc:	74617669 	strbtvc	r7, [r1], #-1641	; 0x669
 700:	6d5f0065 	ldclvs	0, cr0, [pc, #-404]	; 574 <_start-0x7a8c>
 704:	74727362 	ldrbtvc	r7, [r2], #-866	; 0x362
 708:	7363776f 	cmnvc	r3, #29097984	; 0x1bc0000
 70c:	6174735f 	cmnvs	r4, pc, asr r3
 710:	5f006574 	svcpl	0x00006574
 714:	6c72626d 	lfmvs	f6, 2, [r2], #-436	; 0xfffffe4c
 718:	735f6e65 	cmpvc	pc, #1616	; 0x650
 71c:	65746174 	ldrbvs	r6, [r4, #-372]!	; 0x174
 720:	6e665f00 	cdpvs	15, 6, cr5, cr6, cr0, {0}
 724:	73677261 	cmnvc	r7, #268435462	; 0x10000006
 728:	78756100 	ldmdavc	r5!, {r8, sp, lr}^
 72c:	616e655f 	cmnvs	lr, pc, asr r5
 730:	73656c62 	cmnvc	r5, #25088	; 0x6200
 734:	6e665f00 	cdpvs	15, 6, cr5, cr6, cr0, {0}
 738:	735f0073 	cmpvc	pc, #115	; 0x73
 73c:	006e6769 	rsbeq	r6, lr, r9, ror #14
 740:	74726175 	ldrbtvc	r6, [r2], #-373	; 0x175
 744:	6e61635f 	mcrvs	3, 3, r6, cr1, cr15, {2}
 748:	7475705f 	ldrbtvc	r7, [r5], #-95	; 0x5f
 74c:	665f0063 	ldrbvs	r0, [pc], -r3, rrx
 750:	6b636f6c 	blvs	18dc508 <__bss_end__+0x18d2540>
 754:	5f00745f 	svcpl	0x0000745f
 758:	65647473 	strbvs	r7, [r4, #-1139]!	; 0x473
 75c:	5f007272 	svcpl	0x00007272
 760:	69676942 	stmdbvs	r7!, {r1, r6, r8, fp, sp, lr}^
 764:	5f00746e 	svcpl	0x0000746e
 768:	6d6d6167 	stfvse	f6, [sp, #-412]!	; 0xfffffe64
 76c:	69735f61 	ldmdbvs	r3!, {r0, r5, r6, r8, r9, sl, fp, ip, lr}^
 770:	61676e67 	cmnvs	r7, r7, ror #28
 774:	725f006d 	subsvc	r0, pc, #109	; 0x6d
 778:	6c757365 	ldclvs	3, cr7, [r5], #-404	; 0xfffffe6c
 77c:	006b5f74 	rsbeq	r5, fp, r4, ror pc
 780:	6d745f5f 	ldclvs	15, cr5, [r4, #-380]!	; 0xfffffe84
 784:	775f5f00 	ldrbvc	r5, [pc, -r0, lsl #30]
 788:	00626863 	rsbeq	r6, r2, r3, ror #16
 78c:	74726175 	ldrbtvc	r6, [r2], #-373	; 0x175
 790:	7465675f 	strbtvc	r6, [r5], #-1887	; 0x75f
 794:	735f0063 	cmpvc	pc, #99	; 0x63
 798:	756f6474 	strbvc	r6, [pc, #-1140]!	; 32c <_start-0x7cd4>
 79c:	635f0074 	cmpvs	pc, #116	; 0x74
 7a0:	656c7476 	strbvs	r7, [ip, #-1142]!	; 0x476
 7a4:	665f006e 	ldrbvs	r0, [pc], -lr, rrx
 7a8:	00656c69 	rsbeq	r6, r5, r9, ror #24
 7ac:	6f696e5f 	svcvs	0x00696e5f
 7b0:	5f007362 	svcpl	0x00007362
 7b4:	78657461 	stmdavc	r5!, {r0, r5, r6, sl, ip, sp, lr}^
 7b8:	00307469 	eorseq	r7, r0, r9, ror #8
 7bc:	6769735f 			; <UNDEFINED> instruction: 0x6769735f
 7c0:	5f6c616e 	svcpl	0x006c616e
 7c4:	00667562 	rsbeq	r7, r6, r2, ror #10
 7c8:	6373615f 	cmnvs	r3, #-1073741801	; 0xc0000017
 7cc:	656d6974 	strbvs	r6, [sp, #-2420]!	; 0x974
 7d0:	6675625f 			; <UNDEFINED> instruction: 0x6675625f
 7d4:	76656400 	strbtvc	r6, [r5], -r0, lsl #8
 7d8:	7261625f 	rsbvc	r6, r1, #-268435451	; 0xf0000005
 7dc:	72656972 	rsbvc	r6, r5, #1867776	; 0x1c8000
 7e0:	65725f00 	ldrbvs	r5, [r2, #-3840]!	; 0xf00
 7e4:	746c7573 	strbtvc	r7, [ip], #-1395	; 0x573
 7e8:	775f5f00 	ldrbvc	r5, [pc, -r0, lsl #30]
 7ec:	47006863 	strmi	r6, [r0, -r3, ror #16]
 7f0:	5f4f4950 	svcpl	0x004f4950
 7f4:	434e5546 	movtmi	r5, #58694	; 0xe546
 7f8:	544c415f 	strbpl	r4, [ip], #-351	; 0x15f
 7fc:	69770032 	ldmdbvs	r7!, {r1, r4, r5}^
 800:	745f746e 	ldrbvc	r7, [pc], #-1134	; 808 <_start-0x77f8>
 804:	6f6c5f00 	svcvs	0x006c5f00
 808:	5f006b63 	svcpl	0x00006b63
 80c:	67616c66 	strbvs	r6, [r1, -r6, ror #24]!
 810:	5f003273 	svcpl	0x00003273
 814:	5f6d745f 	svcpl	0x006d745f
 818:	72616579 	rsbvc	r6, r1, #507510784	; 0x1e400000
 81c:	666f5f00 	strbtvs	r5, [pc], -r0, lsl #30
 820:	74657366 	strbtvc	r7, [r5], #-870	; 0x366
 824:	69706700 	ldmdbvs	r0!, {r8, r9, sl, sp, lr}^
 828:	65735f6f 	ldrbvs	r5, [r3, #-3951]!	; 0xf6f
 82c:	75665f74 	strbvc	r5, [r6, #-3956]!	; 0xf74
 830:	6974636e 	ldmdbvs	r4!, {r1, r2, r3, r5, r6, r8, r9, sp, lr}^
 834:	5f006e6f 	svcpl	0x00006e6f
 838:	7478656e 	ldrbtvc	r6, [r8], #-1390	; 0x56e
 83c:	5f5f0066 	svcpl	0x005f0066
 840:	6d5f6d74 	ldclvs	13, cr6, [pc, #-464]	; 678 <_start-0x7988>
 844:	5f006e6f 	svcpl	0x00006e6f
 848:	78657461 	stmdavc	r5!, {r0, r5, r6, sl, ip, sp, lr}^
 84c:	5f007469 	svcpl	0x00007469
 850:	6964735f 	stmdbvs	r4!, {r0, r1, r2, r3, r4, r6, r8, r9, ip, sp, lr}^
 854:	696e6964 	stmdbvs	lr!, {r2, r5, r6, r8, fp, sp, lr}^
 858:	6f5f0074 	svcvs	0x005f0074
 85c:	745f6666 	ldrbvc	r6, [pc], #-1638	; 864 <_start-0x779c>
 860:	72617500 	rsbvc	r7, r1, #0, 10
 864:	665f0074 			; <UNDEFINED> instruction: 0x665f0074
 868:	6c656572 	cfstr64vs	mvdx6, [r5], #-456	; 0xfffffe38
 86c:	00747369 	rsbseq	r7, r4, r9, ror #6
 870:	434f4c5f 	movtmi	r4, #64607	; 0xfc5f
 874:	45525f4b 	ldrbmi	r5, [r2, #-3915]	; 0xf4b
 878:	53525543 	cmppl	r2, #281018368	; 0x10c00000
 87c:	5f455649 	svcpl	0x00455649
 880:	6e5f0054 	mrcvs	0, 2, r0, cr15, cr4, {2}
 884:	5f007765 	svcpl	0x00007765
 888:	72655f68 	rsbvc	r5, r5, #104, 30	; 0x1a0
 88c:	006f6e72 	rsbeq	r6, pc, r2, ror lr	; <UNPREDICTABLE>
 890:	6d745f5f 	ldclvs	15, cr5, [r4, #-380]!	; 0xfffffe84
 894:	6164795f 	cmnvs	r4, pc, asr r9
 898:	5f5f0079 	svcpl	0x005f0079
 89c:	66756273 			; <UNDEFINED> instruction: 0x66756273
 8a0:	6f695f00 	svcvs	0x00695f00
 8a4:	5f007362 	svcpl	0x00007362
 8a8:	4c49465f 	mcrrmi	6, 5, r4, r9, cr15
 8ac:	6d5f0045 	ldclvs	0, cr0, [pc, #-276]	; 7a0 <_start-0x7860>
 8b0:	61747362 	cmnvs	r4, r2, ror #6
 8b4:	745f6574 	ldrbvc	r6, [pc], #-1396	; 8bc <_start-0x7744>
 8b8:	735f5f00 	cmpvc	pc, #0, 30
 8bc:	454c4946 	strbmi	r4, [ip, #-2374]	; 0x946
 8c0:	626d5f00 	rsbvs	r5, sp, #0, 30
 8c4:	74617473 	strbtvc	r7, [r1], #-1139	; 0x473
 8c8:	725f0065 	subsvc	r0, pc, #101	; 0x65
 8cc:	5f646e61 	svcpl	0x00646e61
 8d0:	7478656e 	ldrbtvc	r6, [r8], #-1390	; 0x56e
 8d4:	626d5f00 	rsbvs	r5, sp, #0, 30
 8d8:	5f6e656c 	svcpl	0x006e656c
 8dc:	74617473 	strbtvc	r7, [r1], #-1139	; 0x473
 8e0:	695f0065 	ldmdbvs	pc, {r0, r2, r5, r6}^	; <UNPREDICTABLE>
 8e4:	5f00636e 	svcpl	0x0000636e
 8e8:	00646e69 	rsbeq	r6, r4, r9, ror #28
 8ec:	7275635f 	rsbsvc	r6, r5, #2080374785	; 0x7c000001
 8f0:	746e6572 	strbtvc	r6, [lr], #-1394	; 0x572
 8f4:	636f6c5f 	cmnvs	pc, #24320	; 0x5f00
 8f8:	00656c61 	rsbeq	r6, r5, r1, ror #24
 8fc:	6c635f5f 	stclvs	15, cr5, [r3], #-380	; 0xfffffe84
 900:	756e6165 	strbvc	r6, [lr, #-357]!	; 0x165
 904:	6d5f0070 	ldclvs	0, cr0, [pc, #-448]	; 74c <_start-0x78b4>
 908:	64777861 	ldrbtvs	r7, [r7], #-2145	; 0x861
 90c:	725f0073 	subsvc	r0, pc, #115	; 0x73
 910:	746e6565 	strbtvc	r6, [lr], #-1381	; 0x565
 914:	65735f00 	ldrbvs	r5, [r3, #-3840]!	; 0xf00
 918:	5f006465 	svcpl	0x00006465
 91c:	756f635f 	strbvc	r6, [pc, #-863]!	; 5c5 <_start-0x7a3b>
 920:	5f00746e 	svcpl	0x0000746e
 924:	6c61765f 	stclvs	6, cr7, [r1], #-380	; 0xfffffe84
 928:	5f006575 	svcpl	0x00006575
 92c:	6b656573 	blvs	1959f00 <__bss_end__+0x194ff38>
 930:	75616200 	strbvc	r6, [r1, #-512]!	; 0x200
 934:	665f0064 	ldrbvs	r0, [pc], -r4, rrx
 938:	5f736f70 	svcpl	0x00736f70
 93c:	5f5f0074 	svcpl	0x005f0074
 940:	6d5f6d74 	ldclvs	13, cr6, [pc, #-464]	; 778 <_start-0x7888>
 944:	73006e69 	movwvc	r6, #3689	; 0xe69
 948:	74617263 	strbtvc	r7, [r1], #-611	; 0x263
 94c:	5f006863 	svcpl	0x00006863
 950:	746c756d 	strbtvc	r7, [ip], #-1389	; 0x56d
 954:	74757000 	ldrbtvc	r7, [r5], #-0
 958:	47003233 	smladxmi	r0, r3, r2, r3
 95c:	4320554e 	teqmi	r0, #327155712	; 0x13800000
 960:	36203939 			; <UNDEFINED> instruction: 0x36203939
 964:	312e332e 	teqcc	lr, lr, lsr #6
 968:	31303220 	teqcc	r0, r0, lsr #4
 96c:	32363037 	eorscc	r3, r6, #55	; 0x37
 970:	6d2d2030 	stcvs	0, cr2, [sp, #-192]!	; 0xffffff40
 974:	3d757063 	ldclcc	0, cr7, [r5, #-396]!	; 0xfffffe74
 978:	316d7261 	cmncc	sp, r1, ror #4
 97c:	6a363731 	bvs	d8e648 <__bss_end__+0xd84680>
 980:	732d667a 	teqvc	sp, #127926272	; 0x7a00000
 984:	746d2d20 	strbtvc	r2, [sp], #-3360	; 0xd20
 988:	3d656e75 	stclcc	14, cr6, [r5, #-468]!	; 0xfffffe2c
 98c:	316d7261 	cmncc	sp, r1, ror #4
 990:	6a363731 	bvs	d8e65c <__bss_end__+0xd84694>
 994:	732d667a 	teqvc	sp, #127926272	; 0x7a00000
 998:	67672d20 	strbvs	r2, [r7, -r0, lsr #26]!
 99c:	2d206264 	sfmcs	f6, 4, [r0, #-400]!	; 0xfffffe70
 9a0:	2d20674f 	stccs	7, cr6, [r0, #-316]!	; 0xfffffec4
 9a4:	3d647473 	cfstrdcc	mvd7, [r4, #-460]!	; 0xfffffe34
 9a8:	39756e67 	ldmdbcc	r5!, {r0, r1, r2, r5, r6, r9, sl, fp, sp, lr}^
 9ac:	662d2039 			; <UNDEFINED> instruction: 0x662d2039
 9b0:	65657266 	strbvs	r7, [r5, #-614]!	; 0x266
 9b4:	6e617473 	mcrvs	4, 3, r7, cr1, cr3, {3}
 9b8:	676e6964 	strbvs	r6, [lr, -r4, ror #18]!
 9bc:	74735f00 	ldrbtvc	r5, [r3], #-3840	; 0xf00
 9c0:	6b6f7472 	blvs	1bddb90 <__bss_end__+0x1bd3bc8>
 9c4:	73616c5f 	cmnvc	r1, #24320	; 0x5f00
 9c8:	665f0074 			; <UNDEFINED> instruction: 0x665f0074
 9cc:	7079746e 	rsbsvc	r7, r9, lr, ror #8
 9d0:	5f007365 	svcpl	0x00007365
 9d4:	00646461 	rsbeq	r6, r4, r1, ror #8
 9d8:	4c555f5f 	mrrcmi	15, 5, r5, r5, cr15	; <UNPREDICTABLE>
 9dc:	00676e6f 	rsbeq	r6, r7, pc, ror #28
 9e0:	7465675f 	strbtvc	r6, [r5], #-1887	; 0x75f
 9e4:	65746164 	ldrbvs	r6, [r4, #-356]!	; 0x164
 9e8:	7272655f 	rsbsvc	r6, r2, #398458880	; 0x17c00000
 9ec:	6c675f00 	stclvs	15, cr5, [r7], #-0
 9f0:	6c61626f 	sfmvs	f6, 2, [r1], #-444	; 0xfffffe44
 9f4:	706d695f 	rsbvc	r6, sp, pc, asr r9
 9f8:	5f657275 	svcpl	0x00657275
 9fc:	00727470 	rsbseq	r7, r2, r0, ror r4
 a00:	7275635f 	rsbsvc	r6, r5, #2080374785	; 0x7c000001
 a04:	746e6572 	strbtvc	r6, [lr], #-1394	; 0x572
 a08:	7461635f 	strbtvc	r6, [r1], #-863	; 0x35f
 a0c:	726f6765 	rsbvc	r6, pc, #26476544	; 0x1940000
 a10:	755f0079 	ldrbvc	r0, [pc, #-121]	; 99f <_start-0x7661>
 a14:	6573756e 	ldrbvs	r7, [r3, #-1390]!	; 0x56e
 a18:	61725f64 	cmnvs	r2, r4, ror #30
 a1c:	5f00646e 	svcpl	0x0000646e
 a20:	00736477 	rsbseq	r6, r3, r7, ror r4
 a24:	6d745f5f 	ldclvs	15, cr5, [r4, #-380]!	; 0xfffffe84
 a28:	6164775f 	cmnvs	r4, pc, asr r7
 a2c:	675f0079 			; <UNDEFINED> instruction: 0x675f0079
 a30:	0065756c 	rsbeq	r7, r5, ip, ror #10
 a34:	4f495047 	svcmi	0x00495047
 a38:	4e55465f 	mrcmi	6, 2, r4, cr5, cr15, {2}
 a3c:	554f5f43 	strbpl	r5, [pc, #-3907]	; fffffb01 <__bss_end__+0xffff5b39>
 a40:	54555054 	ldrbpl	r5, [r5], #-84	; 0x54
 a44:	6d6e5f00 	stclvs	15, cr5, [lr, #-0]
 a48:	6f6c6c61 	svcvs	0x006c6c61
 a4c:	6c5f0063 	mrrcvs	0, 6, r0, pc, cr3	; <UNPREDICTABLE>
 a50:	5f613436 	svcpl	0x00613436
 a54:	00667562 	rsbeq	r7, r6, r2, ror #10
 a58:	33746567 	cmncc	r4, #432013312	; 0x19c00000
 a5c:	61750032 	cmnvs	r5, r2, lsr r0
 a60:	635f7472 	cmpvs	pc, #1912602624	; 0x72000000
 a64:	675f6e61 	ldrbvs	r6, [pc, -r1, ror #28]
 a68:	00637465 	rsbeq	r7, r3, r5, ror #8
 a6c:	6769735f 			; <UNDEFINED> instruction: 0x6769735f
 a70:	6e75665f 	mrcvs	6, 3, r6, cr5, cr15, {2}
 a74:	726f0063 	rsbvc	r0, pc, #99	; 0x63
 a78:	336e695f 	cmncc	lr, #1556480	; 0x17c000
 a7c:	61750032 	cmnvs	r5, r2, lsr r0
 a80:	685f7472 	ldmdavs	pc, {r1, r4, r5, r6, sl, ip, sp, lr}^	; <UNPREDICTABLE>
 a84:	645f7361 	ldrbvs	r7, [pc], #-865	; a8c <_start-0x7574>
 a88:	00617461 	rsbeq	r7, r1, r1, ror #8
 a8c:	4f495047 	svcmi	0x00495047
 a90:	4e55465f 	mrcmi	6, 2, r4, cr5, cr15, {2}
 a94:	4c415f43 	mcrrmi	15, 4, r5, r1, cr3
 a98:	5f003054 	svcpl	0x00003054
 a9c:	6675626e 	ldrbtvs	r6, [r5], -lr, ror #4
 aa0:	6e755f00 	cdpvs	15, 7, cr5, cr5, cr0, {0}
 aa4:	64657375 	strbtvs	r7, [r5], #-885	; 0x375
 aa8:	49504700 	ldmdbmi	r0, {r8, r9, sl, lr}^
 aac:	55465f4f 	strbpl	r5, [r6, #-3919]	; 0xf4f
 ab0:	415f434e 	cmpmi	pc, lr, asr #6
 ab4:	0033544c 	eorseq	r5, r3, ip, asr #8
 ab8:	4f495047 	svcmi	0x00495047
 abc:	4e55465f 	mrcmi	6, 2, r4, cr5, cr15, {2}
 ac0:	4c415f43 	mcrrmi	15, 4, r5, r1, cr3
 ac4:	47003454 	smlsdmi	r0, r4, r4, r3
 ac8:	5f4f4950 	svcpl	0x004f4950
 acc:	434e5546 	movtmi	r5, #58694	; 0xe546
 ad0:	544c415f 	strbpl	r4, [ip], #-351	; 0x15f
 ad4:	5f5f0035 	svcpl	0x005f0035
 ad8:	695f6d74 	ldmdbvs	pc, {r2, r4, r5, r6, r8, sl, fp, sp, lr}^	; <UNPREDICTABLE>
 adc:	74736473 	ldrbtvc	r6, [r3], #-1139	; 0x473
 ae0:	6f6c5f00 	svcvs	0x006c5f00
 ae4:	746c6163 	strbtvc	r6, [ip], #-355	; 0x163
 ae8:	5f656d69 	svcpl	0x00656d69
 aec:	00667562 	rsbeq	r7, r6, r2, ror #10
 af0:	6f6c635f 	svcvs	0x006c635f
 af4:	5f006573 	svcpl	0x00006573
 af8:	00383472 	eorseq	r3, r8, r2, ror r4
 afc:	74626d5f 	strbtvc	r6, [r2], #-3423	; 0xd5f
 b00:	5f63776f 	svcpl	0x0063776f
 b04:	74617473 	strbtvc	r7, [r1], #-1139	; 0x473
 b08:	705f0065 	subsvc	r0, pc, r5, rrx
 b0c:	5f007335 	svcpl	0x00007335
 b10:	5f6d745f 	svcpl	0x006d745f
 b14:	7961646d 	stmdbvc	r1!, {r0, r2, r3, r5, r6, sl, sp, lr}^
 b18:	69706700 	ldmdbvs	r0!, {r8, r9, sl, sp, lr}^
 b1c:	65735f6f 	ldrbvs	r5, [r3, #-3951]!	; 0xf6f
 b20:	666f5f74 	uqsub16vs	r5, pc, r4	; <UNPREDICTABLE>
 b24:	61620066 	cmnvs	r2, r6, rrx
 b28:	67006b6e 	strvs	r6, [r0, -lr, ror #22]
 b2c:	2e6f6970 	mcrcs	9, 3, r6, cr15, cr0, {3}
 b30:	70670063 	rsbvc	r0, r7, r3, rrx
 b34:	725f6f69 	subsvc	r6, pc, #420	; 0x1a4
 b38:	00646165 	rsbeq	r6, r4, r5, ror #2
 b3c:	6f697067 	svcvs	0x00697067
 b40:	7465735f 	strbtvc	r7, [r5], #-863	; 0x35f
 b44:	74756f5f 	ldrbtvc	r6, [r5], #-3935	; 0xf5f
 b48:	00747570 	rsbseq	r7, r4, r0, ror r5
 b4c:	6f697067 	svcvs	0x00697067
 b50:	6972775f 	ldmdbvs	r2!, {r0, r1, r2, r3, r4, r6, r8, r9, sl, ip, sp, lr}^
 b54:	67006574 	smlsdxvs	r0, r4, r5, r6
 b58:	5f6f6970 	svcpl	0x006f6970
 b5c:	30746573 	rsbscc	r6, r4, r3, ror r5
 b60:	69706700 	ldmdbvs	r0!, {r8, r9, sl, sp, lr}^
 b64:	656c5f6f 	strbvs	r5, [ip, #-3951]!	; 0xf6f
 b68:	67003076 	smlsdxvs	r0, r6, r0, r3
 b6c:	5f6f6970 	svcpl	0x006f6970
 b70:	5f746573 	svcpl	0x00746573
 b74:	75706e69 	ldrbvc	r6, [r0, #-3689]!	; 0xe69
 b78:	70670074 	rsbvc	r0, r7, r4, ror r0
 b7c:	735f6f69 	cmpvc	pc, #420	; 0x1a4
 b80:	6f5f7465 	svcvs	0x005f7465
 b84:	7067006e 	rsbvc	r0, r7, lr, rrx
 b88:	665f6f69 	ldrbvs	r6, [pc], -r9, ror #30
 b8c:	5f636e75 	svcpl	0x00636e75
 b90:	70670074 	rsbvc	r0, r7, r4, ror r0
 b94:	635f6f69 	cmpvs	pc, #420	; 0x1a4
 b98:	0030726c 	eorseq	r7, r0, ip, ror #4
 b9c:	6c616d6b 	stclvs	13, cr6, [r1], #-428	; 0xfffffe54
 ba0:	2e636f6c 	cdpcs	15, 6, cr6, cr3, cr12, {3}
 ba4:	6d6b0063 	stclvs	0, cr0, [fp, #-396]!	; 0xfffffe74
 ba8:	6f6c6c61 	svcvs	0x006c6c61
 bac:	6e695f63 	cdpvs	15, 6, cr5, cr9, cr3, {3}
 bb0:	6b007469 	blvs	1dd5c <__bss_end__+0x13d94>
 bb4:	6c6c616d 	stfvse	f6, [ip], #-436	; 0xfffffe4c
 bb8:	615f636f 	cmpvs	pc, pc, ror #6
 bbc:	6e67696c 	cdpvs	9, 6, cr6, cr7, cr12, {3}
 bc0:	64006465 	strvs	r6, [r0], #-1125	; 0x465
 bc4:	6c62756f 	cfstr64vs	mvdx7, [r2], #-444	; 0xfffffe44
 bc8:	666b0065 	strbtvs	r0, [fp], -r5, rrx
 bcc:	5f656572 	svcpl	0x00656572
 bd0:	006c6c61 	rsbeq	r6, ip, r1, ror #24
 bd4:	6572666b 	ldrbvs	r6, [r2, #-1643]!	; 0x66b
 bd8:	66615f65 	strbtvs	r5, [r1], -r5, ror #30
 bdc:	00726574 	rsbseq	r6, r2, r4, ror r5
 be0:	6c616d6b 	stclvs	13, cr6, [r1], #-428	; 0xfffffe54
 be4:	5f636f6c 	svcpl	0x00636f6c
 be8:	70616568 	rsbvc	r6, r1, r8, ror #10
 bec:	7274705f 	rsbsvc	r7, r4, #95	; 0x5f
 bf0:	696c6100 	stmdbvs	ip!, {r8, sp, lr}^
 bf4:	656d6e67 	strbvs	r6, [sp, #-3687]!	; 0xe67
 bf8:	5f00746e 	svcpl	0x0000746e
 bfc:	6165685f 	cmnvs	r5, pc, asr r8
 c00:	74735f70 	ldrbtvc	r5, [r3], #-3952	; 0xf70
 c04:	5f747261 	svcpl	0x00747261
 c08:	6d6b005f 	stclvs	0, cr0, [fp, #-380]!	; 0xfffffe84
 c0c:	6f6c6c61 	svcvs	0x006c6c61
 c10:	65685f63 	strbvs	r5, [r8, #-3939]!	; 0xf63
 c14:	735f7061 	cmpvc	pc, #97	; 0x61
 c18:	74726174 	ldrbtvc	r6, [r2], #-372	; 0x174
 c1c:	616d6b00 	cmnvs	sp, r0, lsl #22
 c20:	636f6c6c 	cmnvs	pc, #108, 24	; 0x6c00
 c24:	6165685f 	cmnvs	r5, pc, asr r8
 c28:	6e655f70 	mcrvs	15, 3, r5, cr5, cr0, {3}
 c2c:	Address 0x0000000000000c2c is out of bounds.


Disassembly of section .debug_frame:

00000000 <.debug_frame>:
   0:	0000000c 	andeq	r0, r0, ip
   4:	ffffffff 			; <UNDEFINED> instruction: 0xffffffff
   8:	7c020001 	stcvc	0, cr0, [r2], {1}
   c:	000d0c0e 	andeq	r0, sp, lr, lsl #24
  10:	0000001c 	andeq	r0, r0, ip, lsl r0
  14:	00000000 	andeq	r0, r0, r0
  18:	00008010 	andeq	r8, r0, r0, lsl r0
  1c:	000000d0 	ldrdeq	r0, [r0], -r0	; <UNPREDICTABLE>
  20:	84100e42 	ldrhi	r0, [r0], #-3650	; 0xe42
  24:	86038504 	strhi	r8, [r3], -r4, lsl #10
  28:	42018e02 	andmi	r8, r1, #2, 28
  2c:	0000180e 	andeq	r1, r0, lr, lsl #16
  30:	0000000c 	andeq	r0, r0, ip
  34:	ffffffff 			; <UNDEFINED> instruction: 0xffffffff
  38:	7c020001 	stcvc	0, cr0, [r2], {1}
  3c:	000d0c0e 	andeq	r0, sp, lr, lsl #24
  40:	0000000c 	andeq	r0, r0, ip
  44:	00000030 	andeq	r0, r0, r0, lsr r0
  48:	000080e0 	andeq	r8, r0, r0, ror #1
  4c:	00000008 	andeq	r0, r0, r8
  50:	00000014 	andeq	r0, r0, r4, lsl r0
  54:	00000030 	andeq	r0, r0, r0, lsr r0
  58:	000080e8 	andeq	r8, r0, r8, ror #1
  5c:	00000010 	andeq	r0, r0, r0, lsl r0
  60:	83080e42 	movwhi	r0, #36418	; 0x8e42
  64:	00018e02 	andeq	r8, r1, r2, lsl #28
  68:	00000014 	andeq	r0, r0, r4, lsl r0
  6c:	00000030 	andeq	r0, r0, r0, lsr r0
  70:	000080f8 	strdeq	r8, [r0], -r8	; <UNPREDICTABLE>
  74:	00000018 	andeq	r0, r0, r8, lsl r0
  78:	84080e42 	strhi	r0, [r8], #-3650	; 0xe42
  7c:	00018e02 	andeq	r8, r1, r2, lsl #28
  80:	0000000c 	andeq	r0, r0, ip
  84:	00000030 	andeq	r0, r0, r0, lsr r0
  88:	00008110 	andeq	r8, r0, r0, lsl r1
  8c:	0000000c 	andeq	r0, r0, ip
  90:	0000000c 	andeq	r0, r0, ip
  94:	00000030 	andeq	r0, r0, r0, lsr r0
  98:	0000811c 	andeq	r8, r0, ip, lsl r1
  9c:	00000008 	andeq	r0, r0, r8
  a0:	0000001c 	andeq	r0, r0, ip, lsl r0
  a4:	00000030 	andeq	r0, r0, r0, lsr r0
  a8:	00008124 	andeq	r8, r0, r4, lsr #2
  ac:	00000108 	andeq	r0, r0, r8, lsl #2
  b0:	83180e42 	tsthi	r8, #1056	; 0x420
  b4:	85058406 	strhi	r8, [r5, #-1030]	; 0x406
  b8:	87038604 	strhi	r8, [r3, -r4, lsl #12]
  bc:	00018e02 	andeq	r8, r1, r2, lsl #28
  c0:	00000014 	andeq	r0, r0, r4, lsl r0
  c4:	00000030 	andeq	r0, r0, r0, lsr r0
  c8:	0000822c 	andeq	r8, r0, ip, lsr #4
  cc:	00000014 	andeq	r0, r0, r4, lsl r0
  d0:	83080e42 	movwhi	r0, #36418	; 0x8e42
  d4:	00018e02 	andeq	r8, r1, r2, lsl #28
  d8:	00000018 	andeq	r0, r0, r8, lsl r0
  dc:	00000030 	andeq	r0, r0, r0, lsr r0
  e0:	00008240 	andeq	r8, r0, r0, asr #4
  e4:	00000024 	andeq	r0, r0, r4, lsr #32
  e8:	83100e42 	tsthi	r0, #1056	; 0x420
  ec:	85038404 	strhi	r8, [r3, #-1028]	; 0x404
  f0:	00018e02 	andeq	r8, r1, r2, lsl #28
  f4:	00000018 	andeq	r0, r0, r8, lsl r0
  f8:	00000030 	andeq	r0, r0, r0, lsr r0
  fc:	00008264 	andeq	r8, r0, r4, ror #4
 100:	0000009c 	muleq	r0, ip, r0
 104:	83100e42 	tsthi	r0, #1056	; 0x420
 108:	85038404 	strhi	r8, [r3, #-1028]	; 0x404
 10c:	00018e02 	andeq	r8, r1, r2, lsl #28
 110:	00000018 	andeq	r0, r0, r8, lsl r0
 114:	00000030 	andeq	r0, r0, r0, lsr r0
 118:	00008300 	andeq	r8, r0, r0, lsl #6
 11c:	00000080 	andeq	r0, r0, r0, lsl #1
 120:	83100e42 	tsthi	r0, #1056	; 0x420
 124:	85038404 	strhi	r8, [r3, #-1028]	; 0x404
 128:	00018e02 	andeq	r8, r1, r2, lsl #28
 12c:	00000018 	andeq	r0, r0, r8, lsl r0
 130:	00000030 	andeq	r0, r0, r0, lsr r0
 134:	00008380 	andeq	r8, r0, r0, lsl #7
 138:	00000074 	andeq	r0, r0, r4, ror r0
 13c:	83100e42 	tsthi	r0, #1056	; 0x420
 140:	85038404 	strhi	r8, [r3, #-1028]	; 0x404
 144:	00018e02 	andeq	r8, r1, r2, lsl #28
 148:	0000001c 	andeq	r0, r0, ip, lsl r0
 14c:	00000030 	andeq	r0, r0, r0, lsr r0
 150:	000083f4 	strdeq	r8, [r0], -r4
 154:	000000c0 	andeq	r0, r0, r0, asr #1
 158:	84180e42 	ldrhi	r0, [r8], #-3650	; 0xe42
 15c:	86058506 	strhi	r8, [r5], -r6, lsl #10
 160:	88038704 	stmdahi	r3, {r2, r8, r9, sl, pc}
 164:	00018e02 	andeq	r8, r1, r2, lsl #28
 168:	00000020 	andeq	r0, r0, r0, lsr #32
 16c:	00000030 	andeq	r0, r0, r0, lsr r0
 170:	000084b4 			; <UNDEFINED> instruction: 0x000084b4
 174:	0000024c 	andeq	r0, r0, ip, asr #4
 178:	841c0e42 	ldrhi	r0, [ip], #-3650	; 0xe42
 17c:	86068507 	strhi	r8, [r6], -r7, lsl #10
 180:	88048705 	stmdahi	r4, {r0, r2, r8, r9, sl, pc}
 184:	8e028903 	cdphi	9, 0, cr8, cr2, cr3, {0}
 188:	280e4201 	stmdacs	lr, {r0, r9, lr}
 18c:	00000020 	andeq	r0, r0, r0, lsr #32
 190:	00000030 	andeq	r0, r0, r0, lsr r0
 194:	00008700 	andeq	r8, r0, r0, lsl #14
 198:	00000148 	andeq	r0, r0, r8, asr #2
 19c:	83200e42 	teqhi	r0, #1056	; 0x420
 1a0:	85078408 	strhi	r8, [r7, #-1032]	; 0x408
 1a4:	87058606 	strhi	r8, [r5, -r6, lsl #12]
 1a8:	89038804 	stmdbhi	r3, {r2, fp, pc}
 1ac:	00018e02 	andeq	r8, r1, r2, lsl #28
 1b0:	0000000c 	andeq	r0, r0, ip
 1b4:	ffffffff 			; <UNDEFINED> instruction: 0xffffffff
 1b8:	7c020001 	stcvc	0, cr0, [r2], {1}
 1bc:	000d0c0e 	andeq	r0, sp, lr, lsl #24
 1c0:	00000014 	andeq	r0, r0, r4, lsl r0
 1c4:	000001b0 			; <UNDEFINED> instruction: 0x000001b0
 1c8:	00008848 	andeq	r8, r0, r8, asr #16
 1cc:	000000f0 	strdeq	r0, [r0], -r0	; <UNPREDICTABLE>
 1d0:	84040e42 	strhi	r0, [r4], #-3650	; 0xe42
 1d4:	00000001 	andeq	r0, r0, r1
 1d8:	0000000c 	andeq	r0, r0, ip
 1dc:	ffffffff 			; <UNDEFINED> instruction: 0xffffffff
 1e0:	7c020001 	stcvc	0, cr0, [r2], {1}
 1e4:	000d0c0e 	andeq	r0, sp, lr, lsl #24
 1e8:	0000000c 	andeq	r0, r0, ip
 1ec:	000001d8 	ldrdeq	r0, [r0], -r8
 1f0:	00008938 	andeq	r8, r0, r8, lsr r9
 1f4:	00000020 	andeq	r0, r0, r0, lsr #32
 1f8:	0000000c 	andeq	r0, r0, ip
 1fc:	ffffffff 			; <UNDEFINED> instruction: 0xffffffff
 200:	7c020001 	stcvc	0, cr0, [r2], {1}
 204:	000d0c0e 	andeq	r0, sp, lr, lsl #24
 208:	00000024 	andeq	r0, r0, r4, lsr #32
 20c:	000001f8 	strdeq	r0, [r0], -r8
 210:	00008958 	andeq	r8, r0, r8, asr r9
 214:	00000058 	andeq	r0, r0, r8, asr r0
 218:	80100e42 	andshi	r0, r0, r2, asr #28
 21c:	82038104 	andhi	r8, r3, #4, 2
 220:	42018302 	andmi	r8, r1, #134217728	; 0x8000000
 224:	07841c0e 	streq	r1, [r4, lr, lsl #24]
 228:	058e0685 	streq	r0, [lr, #1669]	; 0x685
 22c:	00280e42 	eoreq	r0, r8, r2, asr #28
 230:	0000000c 	andeq	r0, r0, ip
 234:	ffffffff 			; <UNDEFINED> instruction: 0xffffffff
 238:	7c020001 	stcvc	0, cr0, [r2], {1}
 23c:	000d0c0e 	andeq	r0, sp, lr, lsl #24
 240:	00000014 	andeq	r0, r0, r4, lsl r0
 244:	00000230 	andeq	r0, r0, r0, lsr r2
 248:	000089b0 			; <UNDEFINED> instruction: 0x000089b0
 24c:	00000014 	andeq	r0, r0, r4, lsl r0
 250:	84080e42 	strhi	r0, [r8], #-3650	; 0xe42
 254:	00018e02 	andeq	r8, r1, r2, lsl #28
 258:	0000000c 	andeq	r0, r0, ip
 25c:	00000230 	andeq	r0, r0, r0, lsr r2
 260:	000089c4 	andeq	r8, r0, r4, asr #19
 264:	00000018 	andeq	r0, r0, r8, lsl r0
 268:	0000000c 	andeq	r0, r0, ip
 26c:	00000230 	andeq	r0, r0, r0, lsr r2
 270:	000089dc 	ldrdeq	r8, [r0], -ip
 274:	00000010 	andeq	r0, r0, r0, lsl r0
 278:	0000000c 	andeq	r0, r0, ip
 27c:	ffffffff 			; <UNDEFINED> instruction: 0xffffffff
 280:	7c020001 	stcvc	0, cr0, [r2], {1}
 284:	000d0c0e 	andeq	r0, sp, lr, lsl #24
 288:	00000018 	andeq	r0, r0, r8, lsl r0
 28c:	00000278 	andeq	r0, r0, r8, ror r2
 290:	000089ec 	andeq	r8, r0, ip, ror #19
 294:	00000034 	andeq	r0, r0, r4, lsr r0
 298:	83100e42 	tsthi	r0, #1056	; 0x420
 29c:	85038404 	strhi	r8, [r3, #-1028]	; 0x404
 2a0:	00018e02 	andeq	r8, r1, r2, lsl #28
 2a4:	0000000c 	andeq	r0, r0, ip
 2a8:	ffffffff 			; <UNDEFINED> instruction: 0xffffffff
 2ac:	7c020001 	stcvc	0, cr0, [r2], {1}
 2b0:	000d0c0e 	andeq	r0, sp, lr, lsl #24
 2b4:	0000000c 	andeq	r0, r0, ip
 2b8:	000002a4 	andeq	r0, r0, r4, lsr #5
 2bc:	00008a20 	andeq	r8, r0, r0, lsr #20
 2c0:	00000014 	andeq	r0, r0, r4, lsl r0
 2c4:	0000000c 	andeq	r0, r0, ip
 2c8:	000002a4 	andeq	r0, r0, r4, lsr #5
 2cc:	00008a34 	andeq	r8, r0, r4, lsr sl
 2d0:	0000002c 	andeq	r0, r0, ip, lsr #32
 2d4:	0000000c 	andeq	r0, r0, ip
 2d8:	000002a4 	andeq	r0, r0, r4, lsr #5
 2dc:	00008a60 	andeq	r8, r0, r0, ror #20
 2e0:	00000040 	andeq	r0, r0, r0, asr #32
 2e4:	00000020 	andeq	r0, r0, r0, lsr #32
 2e8:	000002a4 	andeq	r0, r0, r4, lsr #5
 2ec:	00008aa0 	andeq	r8, r0, r0, lsr #21
 2f0:	000001b0 			; <UNDEFINED> instruction: 0x000001b0
 2f4:	84180e42 	ldrhi	r0, [r8], #-3650	; 0xe42
 2f8:	86058506 	strhi	r8, [r5], -r6, lsl #10
 2fc:	88038704 	stmdahi	r3, {r2, r8, r9, sl, pc}
 300:	42018e02 	andmi	r8, r1, #2, 28
 304:	0000580e 	andeq	r5, r0, lr, lsl #16
 308:	00000014 	andeq	r0, r0, r4, lsl r0
 30c:	000002a4 	andeq	r0, r0, r4, lsr #5
 310:	00008c50 	andeq	r8, r0, r0, asr ip
 314:	00000054 	andeq	r0, r0, r4, asr r0
 318:	83080e42 	movwhi	r0, #36418	; 0x8e42
 31c:	00018e02 	andeq	r8, r1, r2, lsl #28
 320:	00000028 	andeq	r0, r0, r8, lsr #32
 324:	000002a4 	andeq	r0, r0, r4, lsr #5
 328:	00008ca4 	andeq	r8, r0, r4, lsr #25
 32c:	00000288 	andeq	r0, r0, r8, lsl #5
 330:	84240e42 	strthi	r0, [r4], #-3650	; 0xe42
 334:	86088509 	strhi	r8, [r8], -r9, lsl #10
 338:	88068707 	stmdahi	r6, {r0, r1, r2, r8, r9, sl, pc}
 33c:	8a048905 	bhi	122758 <__bss_end__+0x118790>
 340:	8e028b03 	vmlahi.f64	d8, d2, d3
 344:	b00e4201 	andlt	r4, lr, r1, lsl #4
 348:	00000001 	andeq	r0, r0, r1
 34c:	0000000c 	andeq	r0, r0, ip
 350:	ffffffff 			; <UNDEFINED> instruction: 0xffffffff
 354:	7c020001 	stcvc	0, cr0, [r2], {1}
 358:	000d0c0e 	andeq	r0, sp, lr, lsl #24
 35c:	00000014 	andeq	r0, r0, r4, lsl r0
 360:	0000034c 	andeq	r0, r0, ip, asr #6
 364:	00008f2c 	andeq	r8, r0, ip, lsr #30
 368:	00000028 	andeq	r0, r0, r8, lsr #32
 36c:	83080e42 	movwhi	r0, #36418	; 0x8e42
 370:	00018e02 	andeq	r8, r1, r2, lsl #28
 374:	0000000c 	andeq	r0, r0, ip
 378:	ffffffff 			; <UNDEFINED> instruction: 0xffffffff
 37c:	7c020001 	stcvc	0, cr0, [r2], {1}
 380:	000d0c0e 	andeq	r0, sp, lr, lsl #24
 384:	00000014 	andeq	r0, r0, r4, lsl r0
 388:	00000374 	andeq	r0, r0, r4, ror r3
 38c:	00008f54 	andeq	r8, r0, r4, asr pc
 390:	00000034 	andeq	r0, r0, r4, lsr r0
 394:	83080e42 	movwhi	r0, #36418	; 0x8e42
 398:	00018e02 	andeq	r8, r1, r2, lsl #28
 39c:	0000000c 	andeq	r0, r0, ip
 3a0:	ffffffff 			; <UNDEFINED> instruction: 0xffffffff
 3a4:	7c020001 	stcvc	0, cr0, [r2], {1}
 3a8:	000d0c0e 	andeq	r0, sp, lr, lsl #24
 3ac:	0000000c 	andeq	r0, r0, ip
 3b0:	0000039c 	muleq	r0, ip, r3
 3b4:	00008f88 	andeq	r8, r0, r8, lsl #31
 3b8:	00000018 	andeq	r0, r0, r8, lsl r0
 3bc:	0000000c 	andeq	r0, r0, ip
 3c0:	0000039c 	muleq	r0, ip, r3
 3c4:	00008fa0 	andeq	r8, r0, r0, lsr #31
 3c8:	00000014 	andeq	r0, r0, r4, lsl r0
 3cc:	00000014 	andeq	r0, r0, r4, lsl r0
 3d0:	0000039c 	muleq	r0, ip, r3
 3d4:	00008fb4 			; <UNDEFINED> instruction: 0x00008fb4
 3d8:	00000048 	andeq	r0, r0, r8, asr #32
 3dc:	83080e42 	movwhi	r0, #36418	; 0x8e42
 3e0:	00018e02 	andeq	r8, r1, r2, lsl #28
 3e4:	0000000c 	andeq	r0, r0, ip
 3e8:	ffffffff 			; <UNDEFINED> instruction: 0xffffffff
 3ec:	7c020001 	stcvc	0, cr0, [r2], {1}
 3f0:	000d0c0e 	andeq	r0, sp, lr, lsl #24
 3f4:	0000000c 	andeq	r0, r0, ip
 3f8:	000003e4 	andeq	r0, r0, r4, ror #7
 3fc:	00008ffc 	strdeq	r8, [r0], -ip
 400:	0000001c 	andeq	r0, r0, ip, lsl r0
 404:	00000014 	andeq	r0, r0, r4, lsl r0
 408:	000003e4 	andeq	r0, r0, r4, ror #7
 40c:	00009018 	andeq	r9, r0, r8, lsl r0
 410:	00000014 	andeq	r0, r0, r4, lsl r0
 414:	83080e42 	movwhi	r0, #36418	; 0x8e42
 418:	00018e02 	andeq	r8, r1, r2, lsl #28
 41c:	00000014 	andeq	r0, r0, r4, lsl r0
 420:	000003e4 	andeq	r0, r0, r4, ror #7
 424:	0000902c 	andeq	r9, r0, ip, lsr #32
 428:	0000000c 	andeq	r0, r0, ip
 42c:	83080e42 	movwhi	r0, #36418	; 0x8e42
 430:	00018e02 	andeq	r8, r1, r2, lsl #28
 434:	00000018 	andeq	r0, r0, r8, lsl r0
 438:	000003e4 	andeq	r0, r0, r4, ror #7
 43c:	00009038 	andeq	r9, r0, r8, lsr r0
 440:	00000024 	andeq	r0, r0, r4, lsr #32
 444:	83100e42 	tsthi	r0, #1056	; 0x420
 448:	85038404 	strhi	r8, [r3, #-1028]	; 0x404
 44c:	00018e02 	andeq	r8, r1, r2, lsl #28
 450:	00000014 	andeq	r0, r0, r4, lsl r0
 454:	000003e4 	andeq	r0, r0, r4, ror #7
 458:	0000905c 	andeq	r9, r0, ip, asr r0
 45c:	00000014 	andeq	r0, r0, r4, lsl r0
 460:	83080e42 	movwhi	r0, #36418	; 0x8e42
 464:	00018e02 	andeq	r8, r1, r2, lsl #28
 468:	00000014 	andeq	r0, r0, r4, lsl r0
 46c:	000003e4 	andeq	r0, r0, r4, ror #7
 470:	00009070 	andeq	r9, r0, r0, ror r0
 474:	00000014 	andeq	r0, r0, r4, lsl r0
 478:	83080e42 	movwhi	r0, #36418	; 0x8e42
 47c:	00018e02 	andeq	r8, r1, r2, lsl #28
 480:	0000000c 	andeq	r0, r0, ip
 484:	ffffffff 			; <UNDEFINED> instruction: 0xffffffff
 488:	7c020001 	stcvc	0, cr0, [r2], {1}
 48c:	000d0c0e 	andeq	r0, sp, lr, lsl #24
 490:	00000018 	andeq	r0, r0, r8, lsl r0
 494:	00000480 	andeq	r0, r0, r0, lsl #9
 498:	000090d0 	ldrdeq	r9, [r0], -r0
 49c:	00000020 	andeq	r0, r0, r0, lsr #32
 4a0:	84100e42 	ldrhi	r0, [r0], #-3650	; 0xe42
 4a4:	86038504 	strhi	r8, [r3], -r4, lsl #10
 4a8:	00018e02 	andeq	r8, r1, r2, lsl #28
 4ac:	00000014 	andeq	r0, r0, r4, lsl r0
 4b0:	00000480 	andeq	r0, r0, r0, lsl #9
 4b4:	000090f0 	strdeq	r9, [r0], -r0
 4b8:	000000b0 	strheq	r0, [r0], -r0	; <UNPREDICTABLE>
 4bc:	84080e42 	strhi	r0, [r8], #-3650	; 0xe42
 4c0:	00018e02 	andeq	r8, r1, r2, lsl #28
 4c4:	00000014 	andeq	r0, r0, r4, lsl r0
 4c8:	00000480 	andeq	r0, r0, r0, lsl #9
 4cc:	000091a0 	andeq	r9, r0, r0, lsr #3
 4d0:	00000018 	andeq	r0, r0, r8, lsl r0
 4d4:	84080e42 	strhi	r0, [r8], #-3650	; 0xe42
 4d8:	00018e02 	andeq	r8, r1, r2, lsl #28
 4dc:	00000014 	andeq	r0, r0, r4, lsl r0
 4e0:	00000480 	andeq	r0, r0, r0, lsl #9
 4e4:	000091b8 			; <UNDEFINED> instruction: 0x000091b8
 4e8:	00000020 	andeq	r0, r0, r0, lsr #32
 4ec:	84080e42 	strhi	r0, [r8], #-3650	; 0xe42
 4f0:	00018e02 	andeq	r8, r1, r2, lsl #28
 4f4:	00000014 	andeq	r0, r0, r4, lsl r0
 4f8:	00000480 	andeq	r0, r0, r0, lsl #9
 4fc:	000091d8 	ldrdeq	r9, [r0], -r8
 500:	00000030 	andeq	r0, r0, r0, lsr r0
 504:	84080e42 	strhi	r0, [r8], #-3650	; 0xe42
 508:	00018e02 	andeq	r8, r1, r2, lsl #28
 50c:	00000014 	andeq	r0, r0, r4, lsl r0
 510:	00000480 	andeq	r0, r0, r0, lsl #9
 514:	00009208 	andeq	r9, r0, r8, lsl #4
 518:	00000030 	andeq	r0, r0, r0, lsr r0
 51c:	84080e42 	strhi	r0, [r8], #-3650	; 0xe42
 520:	00018e02 	andeq	r8, r1, r2, lsl #28
 524:	00000014 	andeq	r0, r0, r4, lsl r0
 528:	00000480 	andeq	r0, r0, r0, lsl #9
 52c:	00009238 	andeq	r9, r0, r8, lsr r2
 530:	00000010 	andeq	r0, r0, r0, lsl r0
 534:	84080e42 	strhi	r0, [r8], #-3650	; 0xe42
 538:	00018e02 	andeq	r8, r1, r2, lsl #28
 53c:	0000000c 	andeq	r0, r0, ip
 540:	ffffffff 			; <UNDEFINED> instruction: 0xffffffff
 544:	7c020001 	stcvc	0, cr0, [r2], {1}
 548:	000d0c0e 	andeq	r0, sp, lr, lsl #24
 54c:	00000018 	andeq	r0, r0, r8, lsl r0
 550:	0000053c 	andeq	r0, r0, ip, lsr r5
 554:	00009248 	andeq	r9, r0, r8, asr #4
 558:	00000068 	andeq	r0, r0, r8, rrx
 55c:	84100e4a 	ldrhi	r0, [r0], #-3658	; 0xe4a
 560:	86038504 	strhi	r8, [r3], -r4, lsl #10
 564:	00018e02 	andeq	r8, r1, r2, lsl #28
 568:	00000014 	andeq	r0, r0, r4, lsl r0
 56c:	0000053c 	andeq	r0, r0, ip, lsr r5
 570:	000092b0 			; <UNDEFINED> instruction: 0x000092b0
 574:	00000010 	andeq	r0, r0, r0, lsl r0
 578:	84080e42 	strhi	r0, [r8], #-3650	; 0xe42
 57c:	00018e02 	andeq	r8, r1, r2, lsl #28
 580:	00000014 	andeq	r0, r0, r4, lsl r0
 584:	0000053c 	andeq	r0, r0, ip, lsr r5
 588:	000092c0 	andeq	r9, r0, r0, asr #5
 58c:	00000024 	andeq	r0, r0, r4, lsr #32
 590:	84080e46 	strhi	r0, [r8], #-3654	; 0xe46
 594:	00018e02 	andeq	r8, r1, r2, lsl #28
 598:	00000014 	andeq	r0, r0, r4, lsl r0
 59c:	0000053c 	andeq	r0, r0, ip, lsr r5
 5a0:	000092e4 	andeq	r9, r0, r4, ror #5
 5a4:	00000024 	andeq	r0, r0, r4, lsr #32
 5a8:	84080e46 	strhi	r0, [r8], #-3654	; 0xe46
 5ac:	00018e02 	andeq	r8, r1, r2, lsl #28
 5b0:	00000014 	andeq	r0, r0, r4, lsl r0
 5b4:	0000053c 	andeq	r0, r0, ip, lsr r5
 5b8:	00009308 	andeq	r9, r0, r8, lsl #6
 5bc:	00000010 	andeq	r0, r0, r0, lsl r0
 5c0:	84080e42 	strhi	r0, [r8], #-3650	; 0xe42
 5c4:	00018e02 	andeq	r8, r1, r2, lsl #28
 5c8:	00000014 	andeq	r0, r0, r4, lsl r0
 5cc:	0000053c 	andeq	r0, r0, ip, lsr r5
 5d0:	00009318 	andeq	r9, r0, r8, lsl r3
 5d4:	0000001c 	andeq	r0, r0, ip, lsl r0
 5d8:	84080e42 	strhi	r0, [r8], #-3650	; 0xe42
 5dc:	00018e02 	andeq	r8, r1, r2, lsl #28
 5e0:	00000018 	andeq	r0, r0, r8, lsl r0
 5e4:	0000053c 	andeq	r0, r0, ip, lsr r5
 5e8:	00009334 	andeq	r9, r0, r4, lsr r3
 5ec:	00000034 	andeq	r0, r0, r4, lsr r0
 5f0:	84080e46 	strhi	r0, [r8], #-3654	; 0xe46
 5f4:	4e018e02 	cdpmi	14, 0, cr8, cr1, cr2, {0}
 5f8:	cec4000e 	cdpgt	0, 12, cr0, cr4, cr14, {0}
 5fc:	0000000c 	andeq	r0, r0, ip
 600:	ffffffff 			; <UNDEFINED> instruction: 0xffffffff
 604:	7c020001 	stcvc	0, cr0, [r2], {1}
 608:	000d0c0e 	andeq	r0, sp, lr, lsl #24
 60c:	0000000c 	andeq	r0, r0, ip
 610:	000005fc 	strdeq	r0, [r0], -ip
 614:	00009368 	andeq	r9, r0, r8, ror #6
 618:	00000010 	andeq	r0, r0, r0, lsl r0
 61c:	0000000c 	andeq	r0, r0, ip
 620:	000005fc 	strdeq	r0, [r0], -ip
 624:	00009378 	andeq	r9, r0, r8, ror r3
 628:	0000000c 	andeq	r0, r0, ip
 62c:	00000014 	andeq	r0, r0, r4, lsl r0
 630:	000005fc 	strdeq	r0, [r0], -ip
 634:	00009384 	andeq	r9, r0, r4, lsl #7
 638:	00000050 	andeq	r0, r0, r0, asr r0
 63c:	84080e52 	strhi	r0, [r8], #-3666	; 0xe52
 640:	00018e02 	andeq	r8, r1, r2, lsl #28
 644:	00000014 	andeq	r0, r0, r4, lsl r0
 648:	000005fc 	strdeq	r0, [r0], -ip
 64c:	000093d4 	ldrdeq	r9, [r0], -r4
 650:	00000064 	andeq	r0, r0, r4, rrx
 654:	84080e42 	strhi	r0, [r8], #-3650	; 0xe42
 658:	00018e02 	andeq	r8, r1, r2, lsl #28
 65c:	0000000c 	andeq	r0, r0, ip
 660:	000005fc 	strdeq	r0, [r0], -ip
 664:	00009438 	andeq	r9, r0, r8, lsr r4
 668:	00000004 	andeq	r0, r0, r4
 66c:	00000014 	andeq	r0, r0, r4, lsl r0
 670:	000005fc 	strdeq	r0, [r0], -ip
 674:	0000943c 	andeq	r9, r0, ip, lsr r4
 678:	0000000c 	andeq	r0, r0, ip
 67c:	84080e42 	strhi	r0, [r8], #-3650	; 0xe42
 680:	00018e02 	andeq	r8, r1, r2, lsl #28
 684:	00000014 	andeq	r0, r0, r4, lsl r0
 688:	000005fc 	strdeq	r0, [r0], -ip
 68c:	00009448 	andeq	r9, r0, r8, asr #8
 690:	0000008c 	andeq	r0, r0, ip, lsl #1
 694:	84080e42 	strhi	r0, [r8], #-3650	; 0xe42
 698:	00018e02 	andeq	r8, r1, r2, lsl #28
 69c:	0000000c 	andeq	r0, r0, ip
 6a0:	000005fc 	strdeq	r0, [r0], -ip
 6a4:	000094d4 	ldrdeq	r9, [r0], -r4
 6a8:	00000004 	andeq	r0, r0, r4
 6ac:	0000000c 	andeq	r0, r0, ip
 6b0:	000005fc 	strdeq	r0, [r0], -ip
 6b4:	000094d8 	ldrdeq	r9, [r0], -r8
 6b8:	00000014 	andeq	r0, r0, r4, lsl r0
 6bc:	0000000c 	andeq	r0, r0, ip
 6c0:	000005fc 	strdeq	r0, [r0], -ip
 6c4:	000094ec 	andeq	r9, r0, ip, ror #9
 6c8:	00000010 	andeq	r0, r0, r0, lsl r0

Disassembly of section .debug_ranges:

00000000 <.debug_ranges>:
   0:	00000064 	andeq	r0, r0, r4, rrx
   4:	00000110 	andeq	r0, r0, r0, lsl r1
   8:	00000124 	andeq	r0, r0, r4, lsr #2
   c:	00000130 	andeq	r0, r0, r0, lsr r1
	...
  18:	00000664 	andeq	r0, r0, r4, ror #12
  1c:	0000066c 	andeq	r0, r0, ip, ror #12
  20:	00000670 	andeq	r0, r0, r0, ror r6
  24:	00000700 	andeq	r0, r0, r0, lsl #14
	...
  30:	000002a8 	andeq	r0, r0, r8, lsr #5
  34:	000002ac 	andeq	r0, r0, ip, lsr #5
  38:	000002dc 	ldrdeq	r0, [r0], -ip
  3c:	000004cc 	andeq	r0, r0, ip, asr #9
	...
  48:	00008f88 	andeq	r8, r0, r8, lsl #31
  4c:	00008ffc 	strdeq	r8, [r0], -ip
	...
