
part1-test6.elf:     file format elf32-littlearm


Disassembly of section .text:

00008000 <_start>:
    8000:	e3a0d302 	mov	sp, #134217728	; 0x8000000
    8004:	e3a0b000 	mov	fp, #0
    8008:	eb000424 	bl	90a0 <_cstart>
    800c:	eb00043b 	bl	9100 <rpi_reboot>

00008010 <notmain>:
    8010:	e92d41f0 	push	{r4, r5, r6, r7, r8, lr}
    8014:	e24dd030 	sub	sp, sp, #48	; 0x30
    8018:	e59f017c 	ldr	r0, [pc, #380]	; 819c <notmain+0x18c>
    801c:	eb000286 	bl	8a3c <printk>
    8020:	e3a00601 	mov	r0, #1048576	; 0x100000
    8024:	eb000529 	bl	94d0 <kmalloc_init_set_start>
    8028:	e3a00601 	mov	r0, #1048576	; 0x100000
    802c:	eb00053b 	bl	9520 <kmalloc>
    8030:	e3a01601 	mov	r1, #1048576	; 0x100000
    8034:	eb00010a 	bl	8464 <ck_init>
    8038:	e3a04000 	mov	r4, #0
    803c:	e59f815c 	ldr	r8, [pc, #348]	; 81a0 <notmain+0x190>
    8040:	e59f715c 	ldr	r7, [pc, #348]	; 81a4 <notmain+0x194>
    8044:	e3a06014 	mov	r6, #20
    8048:	ea00000b 	b	807c <notmain+0x6c>
    804c:	eb0002ba 	bl	8b3c <rpi_rand32>
    8050:	e1a00b00 	lsl	r0, r0, #22
    8054:	e1a00b20 	lsr	r0, r0, #22
    8058:	e28d2030 	add	r2, sp, #48	; 0x30
    805c:	e0825104 	add	r5, r2, r4, lsl #2
    8060:	e5050030 	str	r0, [r5, #-48]	; 0x30
    8064:	e1a01008 	mov	r1, r8
    8068:	e1a02007 	mov	r2, r7
    806c:	e1a03006 	mov	r3, r6
    8070:	eb000148 	bl	8598 <ckalloc>
    8074:	e5050018 	str	r0, [r5, #-24]
    8078:	e2844001 	add	r4, r4, #1
    807c:	e3540005 	cmp	r4, #5
    8080:	dafffff1 	ble	804c <notmain+0x3c>
    8084:	e3a04000 	mov	r4, #0
    8088:	e59f7110 	ldr	r7, [pc, #272]	; 81a0 <notmain+0x190>
    808c:	e59f6110 	ldr	r6, [pc, #272]	; 81a4 <notmain+0x194>
    8090:	e3a05018 	mov	r5, #24
    8094:	ea000007 	b	80b8 <notmain+0xa8>
    8098:	e28d3030 	add	r3, sp, #48	; 0x30
    809c:	e0830104 	add	r0, r3, r4, lsl #2
    80a0:	e5100018 	ldr	r0, [r0, #-24]
    80a4:	e1a01007 	mov	r1, r7
    80a8:	e1a02006 	mov	r2, r6
    80ac:	e1a03005 	mov	r3, r5
    80b0:	eb000108 	bl	84d8 <ckfree>
    80b4:	e2844001 	add	r4, r4, #1
    80b8:	e3540005 	cmp	r4, #5
    80bc:	dafffff5 	ble	8098 <notmain+0x88>
    80c0:	eb0001c7 	bl	87e4 <ck_heap_errors>
    80c4:	e3500000 	cmp	r0, #0
    80c8:	0a000006 	beq	80e8 <notmain+0xd8>
    80cc:	eb000275 	bl	8aa8 <rpi_reset_putc>
    80d0:	e59f00d0 	ldr	r0, [pc, #208]	; 81a8 <notmain+0x198>
    80d4:	e59f10c4 	ldr	r1, [pc, #196]	; 81a0 <notmain+0x190>
    80d8:	e59f20c4 	ldr	r2, [pc, #196]	; 81a4 <notmain+0x194>
    80dc:	e3a0301b 	mov	r3, #27
    80e0:	eb000255 	bl	8a3c <printk>
    80e4:	eb0003e3 	bl	9078 <clean_reboot>
    80e8:	e59f60bc 	ldr	r6, [pc, #188]	; 81ac <notmain+0x19c>
    80ec:	e1a00006 	mov	r0, r6
    80f0:	eb000251 	bl	8a3c <printk>
    80f4:	e59f00b4 	ldr	r0, [pc, #180]	; 81b0 <notmain+0x1a0>
    80f8:	eb00024f 	bl	8a3c <printk>
    80fc:	eb00028e 	bl	8b3c <rpi_rand32>
    8100:	e59f30ac 	ldr	r3, [pc, #172]	; 81b4 <notmain+0x1a4>
    8104:	e0832093 	umull	r2, r3, r3, r0
    8108:	e1a03123 	lsr	r3, r3, #2
    810c:	e0833083 	add	r3, r3, r3, lsl #1
    8110:	e1a03083 	lsl	r3, r3, #1
    8114:	e0633000 	rsb	r3, r3, r0
    8118:	e28d2030 	add	r2, sp, #48	; 0x30
    811c:	e0823103 	add	r3, r2, r3, lsl #2
    8120:	e5135018 	ldr	r5, [r3, #-24]
    8124:	e5134030 	ldr	r4, [r3, #-48]	; 0x30
    8128:	eb000283 	bl	8b3c <rpi_rand32>
    812c:	e200001f 	and	r0, r0, #31
    8130:	e0844000 	add	r4, r4, r0
    8134:	e0857004 	add	r7, r5, r4
    8138:	e3a03001 	mov	r3, #1
    813c:	e7c53004 	strb	r3, [r5, r4]
    8140:	e1a00006 	mov	r0, r6
    8144:	eb00023c 	bl	8a3c <printk>
    8148:	e59f0068 	ldr	r0, [pc, #104]	; 81b8 <notmain+0x1a8>
    814c:	e1a01005 	mov	r1, r5
    8150:	e1a02004 	mov	r2, r4
    8154:	e1a03007 	mov	r3, r7
    8158:	eb000237 	bl	8a3c <printk>
    815c:	eb0001a0 	bl	87e4 <ck_heap_errors>
    8160:	e3500000 	cmp	r0, #0
    8164:	1a000006 	bne	8184 <notmain+0x174>
    8168:	eb00024e 	bl	8aa8 <rpi_reset_putc>
    816c:	e59f0048 	ldr	r0, [pc, #72]	; 81bc <notmain+0x1ac>
    8170:	e59f1028 	ldr	r1, [pc, #40]	; 81a0 <notmain+0x190>
    8174:	e59f2028 	ldr	r2, [pc, #40]	; 81a4 <notmain+0x194>
    8178:	e3a03026 	mov	r3, #38	; 0x26
    817c:	eb00022e 	bl	8a3c <printk>
    8180:	eb0003bc 	bl	9078 <clean_reboot>
    8184:	e59f0020 	ldr	r0, [pc, #32]	; 81ac <notmain+0x19c>
    8188:	eb00022b 	bl	8a3c <printk>
    818c:	e59f002c 	ldr	r0, [pc, #44]	; 81c0 <notmain+0x1b0>
    8190:	eb000229 	bl	8a3c <printk>
    8194:	e28dd030 	add	sp, sp, #48	; 0x30
    8198:	e8bd81f0 	pop	{r4, r5, r6, r7, r8, pc}
    819c:	0000967c 	andeq	r9, r0, ip, ror r6
    81a0:	00009694 	muleq	r0, r4, r6
    81a4:	00009674 	andeq	r9, r0, r4, ror r6
    81a8:	000096a4 	andeq	r9, r0, r4, lsr #13
    81ac:	000096c8 	andeq	r9, r0, r8, asr #13
    81b0:	000096d0 	ldrdeq	r9, [r0], -r0
    81b4:	aaaaaaab 	bge	feab2c68 <__bss_end__+0xfeaa8b10>
    81b8:	000096ec 	andeq	r9, r0, ip, ror #13
    81bc:	00009710 	andeq	r9, r0, r0, lsl r7
    81c0:	00009730 	andeq	r9, r0, r0, lsr r7

000081c4 <b_rz1_ptr>:
    81c4:	e2800038 	add	r0, r0, #56	; 0x38
    81c8:	e12fff1e 	bx	lr

000081cc <b_alloc_ptr>:
    81cc:	e92d4008 	push	{r3, lr}
    81d0:	ebfffffb 	bl	81c4 <b_rz1_ptr>
    81d4:	e2800080 	add	r0, r0, #128	; 0x80
    81d8:	e8bd8008 	pop	{r3, pc}

000081dc <b_rz2_ptr>:
    81dc:	e92d4010 	push	{r4, lr}
    81e0:	e1a04000 	mov	r4, r0
    81e4:	ebfffff8 	bl	81cc <b_alloc_ptr>
    81e8:	e5943000 	ldr	r3, [r4]
    81ec:	e0800003 	add	r0, r0, r3
    81f0:	e8bd8010 	pop	{r4, pc}

000081f4 <b_rz2_nbytes>:
    81f4:	e5900004 	ldr	r0, [r0, #4]
    81f8:	e2800080 	add	r0, r0, #128	; 0x80
    81fc:	e12fff1e 	bx	lr

00008200 <b_addr_to_hdr>:
    8200:	e24000b8 	sub	r0, r0, #184	; 0xb8
    8204:	e12fff1e 	bx	lr

00008208 <check_mem>:
    8208:	e92d40f8 	push	{r3, r4, r5, r6, r7, lr}
    820c:	e1a05000 	mov	r5, r0
    8210:	e3a03000 	mov	r3, #0
    8214:	ea00002f 	b	82d8 <check_mem+0xd0>
    8218:	e0814003 	add	r4, r1, r3
    821c:	e7d1c003 	ldrb	ip, [r1, r3]
    8220:	e35c00fe 	cmp	ip, #254	; 0xfe
    8224:	0a00002a 	beq	82d4 <check_mem+0xcc>
    8228:	e1a00005 	mov	r0, r5
    822c:	ebffffe6 	bl	81cc <b_alloc_ptr>
    8230:	e1a07000 	mov	r7, r0
    8234:	e0604004 	rsb	r4, r0, r4
    8238:	e59f60b8 	ldr	r6, [pc, #184]	; 82f8 <check_mem+0xf0>
    823c:	e1a00006 	mov	r0, r6
    8240:	eb0001fd 	bl	8a3c <printk>
    8244:	e59f00b0 	ldr	r0, [pc, #176]	; 82fc <check_mem+0xf4>
    8248:	eb0001fb 	bl	8a3c <printk>
    824c:	e59f00ac 	ldr	r0, [pc, #172]	; 8300 <check_mem+0xf8>
    8250:	e1a01007 	mov	r1, r7
    8254:	e1a02004 	mov	r2, r4
    8258:	eb0001f7 	bl	8a3c <printk>
    825c:	e1a00006 	mov	r0, r6
    8260:	eb0001f5 	bl	8a3c <printk>
    8264:	e59f0098 	ldr	r0, [pc, #152]	; 8304 <check_mem+0xfc>
    8268:	e5951000 	ldr	r1, [r5]
    826c:	eb0001f2 	bl	8a3c <printk>
    8270:	e5953010 	ldr	r3, [r5, #16]
    8274:	e3530000 	cmp	r3, #0
    8278:	0a000006 	beq	8298 <check_mem+0x90>
    827c:	e1a00006 	mov	r0, r6
    8280:	eb0001ed 	bl	8a3c <printk>
    8284:	e59f007c 	ldr	r0, [pc, #124]	; 8308 <check_mem+0x100>
    8288:	e5951010 	ldr	r1, [r5, #16]
    828c:	e5952014 	ldr	r2, [r5, #20]
    8290:	e5953018 	ldr	r3, [r5, #24]
    8294:	eb0001e8 	bl	8a3c <printk>
    8298:	e5953008 	ldr	r3, [r5, #8]
    829c:	e353000c 	cmp	r3, #12
    82a0:	1a000010 	bne	82e8 <check_mem+0xe0>
    82a4:	e595301c 	ldr	r3, [r5, #28]
    82a8:	e3530000 	cmp	r3, #0
    82ac:	0a00000f 	beq	82f0 <check_mem+0xe8>
    82b0:	e59f0040 	ldr	r0, [pc, #64]	; 82f8 <check_mem+0xf0>
    82b4:	eb0001e0 	bl	8a3c <printk>
    82b8:	e59f004c 	ldr	r0, [pc, #76]	; 830c <check_mem+0x104>
    82bc:	e595101c 	ldr	r1, [r5, #28]
    82c0:	e5952020 	ldr	r2, [r5, #32]
    82c4:	e5953024 	ldr	r3, [r5, #36]	; 0x24
    82c8:	eb0001db 	bl	8a3c <printk>
    82cc:	e3a00000 	mov	r0, #0
    82d0:	e8bd80f8 	pop	{r3, r4, r5, r6, r7, pc}
    82d4:	e2833001 	add	r3, r3, #1
    82d8:	e1530002 	cmp	r3, r2
    82dc:	3affffcd 	bcc	8218 <check_mem+0x10>
    82e0:	e3a00001 	mov	r0, #1
    82e4:	e8bd80f8 	pop	{r3, r4, r5, r6, r7, pc}
    82e8:	e3a00000 	mov	r0, #0
    82ec:	e8bd80f8 	pop	{r3, r4, r5, r6, r7, pc}
    82f0:	e3a00000 	mov	r0, #0
    82f4:	e8bd80f8 	pop	{r3, r4, r5, r6, r7, pc}
    82f8:	000096c8 	andeq	r9, r0, r8, asr #13
    82fc:	0000976c 	andeq	r9, r0, ip, ror #14
    8300:	00009774 	andeq	r9, r0, r4, ror r7
    8304:	00009798 	muleq	r0, r8, r7
    8308:	000097a4 	andeq	r9, r0, r4, lsr #15
    830c:	000097c4 	andeq	r9, r0, r4, asr #15

00008310 <mark_mem>:
    8310:	e92d4008 	push	{r3, lr}
    8314:	e1a02001 	mov	r2, r1
    8318:	e3a010fe 	mov	r1, #254	; 0xfe
    831c:	eb0001be 	bl	8a1c <memset>
    8320:	e8bd8008 	pop	{r3, pc}

00008324 <hdr_cksum>:
    8324:	e92d4038 	push	{r3, r4, r5, lr}
    8328:	e1a04000 	mov	r4, r0
    832c:	e590500c 	ldr	r5, [r0, #12]
    8330:	e3a03000 	mov	r3, #0
    8334:	e580300c 	str	r3, [r0, #12]
    8338:	e3a01038 	mov	r1, #56	; 0x38
    833c:	eb00017a 	bl	892c <fast_hash>
    8340:	e584500c 	str	r5, [r4, #12]
    8344:	e8bd8038 	pop	{r3, r4, r5, pc}

00008348 <check_hdr>:
    8348:	e92d4038 	push	{r3, r4, r5, lr}
    834c:	e1a04000 	mov	r4, r0
    8350:	ebfffff3 	bl	8324 <hdr_cksum>
    8354:	e1a05000 	mov	r5, r0
    8358:	e59f006c 	ldr	r0, [pc, #108]	; 83cc <check_hdr+0x84>
    835c:	e1a01005 	mov	r1, r5
    8360:	eb0001b5 	bl	8a3c <printk>
    8364:	e59f0064 	ldr	r0, [pc, #100]	; 83d0 <check_hdr+0x88>
    8368:	e594100c 	ldr	r1, [r4, #12]
    836c:	eb0001b2 	bl	8a3c <printk>
    8370:	e594300c 	ldr	r3, [r4, #12]
    8374:	e1530005 	cmp	r3, r5
    8378:	0a000006 	beq	8398 <check_hdr+0x50>
    837c:	eb0001c9 	bl	8aa8 <rpi_reset_putc>
    8380:	e59f004c 	ldr	r0, [pc, #76]	; 83d4 <check_hdr+0x8c>
    8384:	e59f104c 	ldr	r1, [pc, #76]	; 83d8 <check_hdr+0x90>
    8388:	e59f204c 	ldr	r2, [pc, #76]	; 83dc <check_hdr+0x94>
    838c:	e3a0302e 	mov	r3, #46	; 0x2e
    8390:	eb0001a9 	bl	8a3c <printk>
    8394:	eb000337 	bl	9078 <clean_reboot>
    8398:	e5943008 	ldr	r3, [r4, #8]
    839c:	e243300b 	sub	r3, r3, #11
    83a0:	e3530001 	cmp	r3, #1
    83a4:	9a000006 	bls	83c4 <check_hdr+0x7c>
    83a8:	eb0001be 	bl	8aa8 <rpi_reset_putc>
    83ac:	e59f002c 	ldr	r0, [pc, #44]	; 83e0 <check_hdr+0x98>
    83b0:	e59f1020 	ldr	r1, [pc, #32]	; 83d8 <check_hdr+0x90>
    83b4:	e59f2020 	ldr	r2, [pc, #32]	; 83dc <check_hdr+0x94>
    83b8:	e3a0302f 	mov	r3, #47	; 0x2f
    83bc:	eb00019e 	bl	8a3c <printk>
    83c0:	eb00032c 	bl	9078 <clean_reboot>
    83c4:	e3a00001 	mov	r0, #1
    83c8:	e8bd8038 	pop	{r3, r4, r5, pc}
    83cc:	000097e0 	andeq	r9, r0, r0, ror #15
    83d0:	000097f4 	strdeq	r9, [r0], -r4
    83d4:	00009804 	andeq	r9, r0, r4, lsl #16
    83d8:	00009830 	andeq	r9, r0, r0, lsr r8
    83dc:	00009748 	andeq	r9, r0, r8, asr #14
    83e0:	0000983c 	andeq	r9, r0, ip, lsr r8

000083e4 <check_block>:
    83e4:	e92d4038 	push	{r3, r4, r5, lr}
    83e8:	e1a04000 	mov	r4, r0
    83ec:	ebffffd5 	bl	8348 <check_hdr>
    83f0:	e3500000 	cmp	r0, #0
    83f4:	0a000014 	beq	844c <check_block+0x68>
    83f8:	e1a00004 	mov	r0, r4
    83fc:	ebffff70 	bl	81c4 <b_rz1_ptr>
    8400:	e1a01000 	mov	r1, r0
    8404:	e1a00004 	mov	r0, r4
    8408:	e3a02080 	mov	r2, #128	; 0x80
    840c:	ebffff7d 	bl	8208 <check_mem>
    8410:	e3500000 	cmp	r0, #0
    8414:	0a00000e 	beq	8454 <check_block+0x70>
    8418:	e1a00004 	mov	r0, r4
    841c:	ebffff6e 	bl	81dc <b_rz2_ptr>
    8420:	e1a05000 	mov	r5, r0
    8424:	e1a00004 	mov	r0, r4
    8428:	ebffff71 	bl	81f4 <b_rz2_nbytes>
    842c:	e1a02000 	mov	r2, r0
    8430:	e1a00004 	mov	r0, r4
    8434:	e1a01005 	mov	r1, r5
    8438:	ebffff72 	bl	8208 <check_mem>
    843c:	e3500000 	cmp	r0, #0
    8440:	0a000005 	beq	845c <check_block+0x78>
    8444:	e3a00001 	mov	r0, #1
    8448:	e8bd8038 	pop	{r3, r4, r5, pc}
    844c:	e3a00000 	mov	r0, #0
    8450:	e8bd8038 	pop	{r3, r4, r5, pc}
    8454:	e3a00000 	mov	r0, #0
    8458:	e8bd8038 	pop	{r3, r4, r5, pc}
    845c:	e3a00000 	mov	r0, #0
    8460:	e8bd8038 	pop	{r3, r4, r5, pc}

00008464 <ck_init>:
    8464:	e92d4038 	push	{r3, r4, r5, lr}
    8468:	e1a04000 	mov	r4, r0
    846c:	e1a05001 	mov	r5, r1
    8470:	e59f304c 	ldr	r3, [pc, #76]	; 84c4 <ck_init+0x60>
    8474:	e5933000 	ldr	r3, [r3]
    8478:	e3130007 	tst	r3, #7
    847c:	0a000006 	beq	849c <ck_init+0x38>
    8480:	eb000188 	bl	8aa8 <rpi_reset_putc>
    8484:	e59f003c 	ldr	r0, [pc, #60]	; 84c8 <ck_init+0x64>
    8488:	e59f103c 	ldr	r1, [pc, #60]	; 84cc <ck_init+0x68>
    848c:	e59f203c 	ldr	r2, [pc, #60]	; 84d0 <ck_init+0x6c>
    8490:	e3a0300a 	mov	r3, #10
    8494:	eb000168 	bl	8a3c <printk>
    8498:	eb0002f6 	bl	9078 <clean_reboot>
    849c:	e59f0030 	ldr	r0, [pc, #48]	; 84d4 <ck_init+0x70>
    84a0:	e3a01038 	mov	r1, #56	; 0x38
    84a4:	e3a02080 	mov	r2, #128	; 0x80
    84a8:	eb000163 	bl	8a3c <printk>
    84ac:	e59f3010 	ldr	r3, [pc, #16]	; 84c4 <ck_init+0x60>
    84b0:	e5834000 	str	r4, [r3]
    84b4:	e5834004 	str	r4, [r3, #4]
    84b8:	e0844005 	add	r4, r4, r5
    84bc:	e5834008 	str	r4, [r3, #8]
    84c0:	e8bd8038 	pop	{r3, r4, r5, pc}
    84c4:	00009d48 	andeq	r9, r0, r8, asr #26
    84c8:	00009878 	andeq	r9, r0, r8, ror r8
    84cc:	00009830 	andeq	r9, r0, r0, lsr r8
    84d0:	00009754 	andeq	r9, r0, r4, asr r7
    84d4:	000098a0 	andeq	r9, r0, r0, lsr #17

000084d8 <ckfree>:
    84d8:	e92d41f0 	push	{r4, r5, r6, r7, r8, lr}
    84dc:	e1a05000 	mov	r5, r0
    84e0:	e1a08001 	mov	r8, r1
    84e4:	e1a07002 	mov	r7, r2
    84e8:	e1a06003 	mov	r6, r3
    84ec:	e59f008c 	ldr	r0, [pc, #140]	; 8580 <ckfree+0xa8>
    84f0:	e5900004 	ldr	r0, [r0, #4]
    84f4:	e3500000 	cmp	r0, #0
    84f8:	1a000006 	bne	8518 <ckfree+0x40>
    84fc:	eb000169 	bl	8aa8 <rpi_reset_putc>
    8500:	e59f007c 	ldr	r0, [pc, #124]	; 8584 <ckfree+0xac>
    8504:	e59f107c 	ldr	r1, [pc, #124]	; 8588 <ckfree+0xb0>
    8508:	e59f207c 	ldr	r2, [pc, #124]	; 858c <ckfree+0xb4>
    850c:	e3a03057 	mov	r3, #87	; 0x57
    8510:	eb000149 	bl	8a3c <printk>
    8514:	eb0002d7 	bl	9078 <clean_reboot>
    8518:	e59f0070 	ldr	r0, [pc, #112]	; 8590 <ckfree+0xb8>
    851c:	eb000146 	bl	8a3c <printk>
    8520:	e59f006c 	ldr	r0, [pc, #108]	; 8594 <ckfree+0xbc>
    8524:	e1a01005 	mov	r1, r5
    8528:	eb000143 	bl	8a3c <printk>
    852c:	e1a00005 	mov	r0, r5
    8530:	ebffff32 	bl	8200 <b_addr_to_hdr>
    8534:	e1a04000 	mov	r4, r0
    8538:	ebffffa9 	bl	83e4 <check_block>
    853c:	e3500000 	cmp	r0, #0
    8540:	08bd81f0 	popeq	{r4, r5, r6, r7, r8, pc}
    8544:	e5943008 	ldr	r3, [r4, #8]
    8548:	e353000c 	cmp	r3, #12
    854c:	08bd81f0 	popeq	{r4, r5, r6, r7, r8, pc}
    8550:	e3a0300c 	mov	r3, #12
    8554:	e5843008 	str	r3, [r4, #8]
    8558:	e1a00005 	mov	r0, r5
    855c:	e5941000 	ldr	r1, [r4]
    8560:	ebffff6a 	bl	8310 <mark_mem>
    8564:	e584801c 	str	r8, [r4, #28]
    8568:	e5847020 	str	r7, [r4, #32]
    856c:	e5846024 	str	r6, [r4, #36]	; 0x24
    8570:	e1a00004 	mov	r0, r4
    8574:	ebffff6a 	bl	8324 <hdr_cksum>
    8578:	e584000c 	str	r0, [r4, #12]
    857c:	e8bd81f0 	pop	{r4, r5, r6, r7, r8, pc}
    8580:	00009d48 	andeq	r9, r0, r8, asr #26
    8584:	000098bc 			; <UNDEFINED> instruction: 0x000098bc
    8588:	00009830 	andeq	r9, r0, r0, lsr r8
    858c:	0000975c 	andeq	r9, r0, ip, asr r7
    8590:	000096c8 	andeq	r9, r0, r8, asr #13
    8594:	000098f0 	strdeq	r9, [r0], -r0

00008598 <ckalloc>:
    8598:	e92d43f0 	push	{r4, r5, r6, r7, r8, r9, lr}
    859c:	e24dd00c 	sub	sp, sp, #12
    85a0:	e1a05000 	mov	r5, r0
    85a4:	e1a09001 	mov	r9, r1
    85a8:	e1a08002 	mov	r8, r2
    85ac:	e1a07003 	mov	r7, r3
    85b0:	e59f31f4 	ldr	r3, [pc, #500]	; 87ac <ckalloc+0x214>
    85b4:	e5933004 	ldr	r3, [r3, #4]
    85b8:	e3530000 	cmp	r3, #0
    85bc:	1a000006 	bne	85dc <ckalloc+0x44>
    85c0:	eb000138 	bl	8aa8 <rpi_reset_putc>
    85c4:	e59f01e4 	ldr	r0, [pc, #484]	; 87b0 <ckalloc+0x218>
    85c8:	e59f11e4 	ldr	r1, [pc, #484]	; 87b4 <ckalloc+0x21c>
    85cc:	e59f21e4 	ldr	r2, [pc, #484]	; 87b8 <ckalloc+0x220>
    85d0:	e3a03073 	mov	r3, #115	; 0x73
    85d4:	eb000118 	bl	8a3c <printk>
    85d8:	eb0002a6 	bl	9078 <clean_reboot>
    85dc:	e59f01d8 	ldr	r0, [pc, #472]	; 87bc <ckalloc+0x224>
    85e0:	eb000115 	bl	8a3c <printk>
    85e4:	e59f01d4 	ldr	r0, [pc, #468]	; 87c0 <ckalloc+0x228>
    85e8:	e1a01005 	mov	r1, r5
    85ec:	eb000112 	bl	8a3c <printk>
    85f0:	e285c007 	add	ip, r5, #7
    85f4:	e3ccc007 	bic	ip, ip, #7
    85f8:	e28c6f4e 	add	r6, ip, #312	; 0x138
    85fc:	e1560005 	cmp	r6, r5
    8600:	2a00000c 	bcs	8638 <ckalloc+0xa0>
    8604:	e59f01b8 	ldr	r0, [pc, #440]	; 87c4 <ckalloc+0x22c>
    8608:	eb00010b 	bl	8a3c <printk>
    860c:	e59f01b4 	ldr	r0, [pc, #436]	; 87c8 <ckalloc+0x230>
    8610:	e1a01005 	mov	r1, r5
    8614:	eb000108 	bl	8a3c <printk>
    8618:	eb000122 	bl	8aa8 <rpi_reset_putc>
    861c:	e58d5000 	str	r5, [sp]
    8620:	e59f01a4 	ldr	r0, [pc, #420]	; 87cc <ckalloc+0x234>
    8624:	e59f1188 	ldr	r1, [pc, #392]	; 87b4 <ckalloc+0x21c>
    8628:	e59f2188 	ldr	r2, [pc, #392]	; 87b8 <ckalloc+0x220>
    862c:	e3a0307b 	mov	r3, #123	; 0x7b
    8630:	eb000101 	bl	8a3c <printk>
    8634:	eb00028f 	bl	9078 <clean_reboot>
    8638:	e59f016c 	ldr	r0, [pc, #364]	; 87ac <ckalloc+0x214>
    863c:	e5904004 	ldr	r4, [r0, #4]
    8640:	e0842006 	add	r2, r4, r6
    8644:	e5903008 	ldr	r3, [r0, #8]
    8648:	e1520003 	cmp	r2, r3
    864c:	3a000014 	bcc	86a4 <ckalloc+0x10c>
    8650:	e59f016c 	ldr	r0, [pc, #364]	; 87c4 <ckalloc+0x22c>
    8654:	eb0000f8 	bl	8a3c <printk>
    8658:	e59f414c 	ldr	r4, [pc, #332]	; 87ac <ckalloc+0x214>
    865c:	e5941008 	ldr	r1, [r4, #8]
    8660:	e5943004 	ldr	r3, [r4, #4]
    8664:	e59f0164 	ldr	r0, [pc, #356]	; 87d0 <ckalloc+0x238>
    8668:	e0631001 	rsb	r1, r3, r1
    866c:	e1a02006 	mov	r2, r6
    8670:	eb0000f1 	bl	8a3c <printk>
    8674:	eb00010b 	bl	8aa8 <rpi_reset_putc>
    8678:	e5942008 	ldr	r2, [r4, #8]
    867c:	e5943004 	ldr	r3, [r4, #4]
    8680:	e0633002 	rsb	r3, r3, r2
    8684:	e58d3000 	str	r3, [sp]
    8688:	e58d6004 	str	r6, [sp, #4]
    868c:	e59f0140 	ldr	r0, [pc, #320]	; 87d4 <ckalloc+0x23c>
    8690:	e59f111c 	ldr	r1, [pc, #284]	; 87b4 <ckalloc+0x21c>
    8694:	e59f211c 	ldr	r2, [pc, #284]	; 87b8 <ckalloc+0x220>
    8698:	e3a0307f 	mov	r3, #127	; 0x7f
    869c:	eb0000e6 	bl	8a3c <printk>
    86a0:	eb000274 	bl	9078 <clean_reboot>
    86a4:	e5845000 	str	r5, [r4]
    86a8:	e065c00c 	rsb	ip, r5, ip
    86ac:	e584c004 	str	ip, [r4, #4]
    86b0:	e3a0300b 	mov	r3, #11
    86b4:	e5843008 	str	r3, [r4, #8]
    86b8:	e5849010 	str	r9, [r4, #16]
    86bc:	e5848014 	str	r8, [r4, #20]
    86c0:	e5847018 	str	r7, [r4, #24]
    86c4:	e3a03000 	mov	r3, #0
    86c8:	e584301c 	str	r3, [r4, #28]
    86cc:	e5843020 	str	r3, [r4, #32]
    86d0:	e5843024 	str	r3, [r4, #36]	; 0x24
    86d4:	e1a00004 	mov	r0, r4
    86d8:	ebffff11 	bl	8324 <hdr_cksum>
    86dc:	e584000c 	str	r0, [r4, #12]
    86e0:	e1a00004 	mov	r0, r4
    86e4:	ebfffeb6 	bl	81c4 <b_rz1_ptr>
    86e8:	e3a01080 	mov	r1, #128	; 0x80
    86ec:	ebffff07 	bl	8310 <mark_mem>
    86f0:	e1a00004 	mov	r0, r4
    86f4:	ebfffeb8 	bl	81dc <b_rz2_ptr>
    86f8:	e1a07000 	mov	r7, r0
    86fc:	e1a00004 	mov	r0, r4
    8700:	ebfffebb 	bl	81f4 <b_rz2_nbytes>
    8704:	e1a01000 	mov	r1, r0
    8708:	e1a00007 	mov	r0, r7
    870c:	ebfffeff 	bl	8310 <mark_mem>
    8710:	e59f3094 	ldr	r3, [pc, #148]	; 87ac <ckalloc+0x214>
    8714:	e5932004 	ldr	r2, [r3, #4]
    8718:	e0822006 	add	r2, r2, r6
    871c:	e5832004 	str	r2, [r3, #4]
    8720:	e1a00004 	mov	r0, r4
    8724:	ebfffea8 	bl	81cc <b_alloc_ptr>
    8728:	e1a07000 	mov	r7, r0
    872c:	e1a00004 	mov	r0, r4
    8730:	ebffff04 	bl	8348 <check_hdr>
    8734:	e3500000 	cmp	r0, #0
    8738:	1a000006 	bne	8758 <ckalloc+0x1c0>
    873c:	eb0000d9 	bl	8aa8 <rpi_reset_putc>
    8740:	e59f0090 	ldr	r0, [pc, #144]	; 87d8 <ckalloc+0x240>
    8744:	e59f1068 	ldr	r1, [pc, #104]	; 87b4 <ckalloc+0x21c>
    8748:	e59f2068 	ldr	r2, [pc, #104]	; 87b8 <ckalloc+0x220>
    874c:	e3a03098 	mov	r3, #152	; 0x98
    8750:	eb0000b9 	bl	8a3c <printk>
    8754:	eb000247 	bl	9078 <clean_reboot>
    8758:	e1a00004 	mov	r0, r4
    875c:	ebffff20 	bl	83e4 <check_block>
    8760:	e3500000 	cmp	r0, #0
    8764:	1a000006 	bne	8784 <ckalloc+0x1ec>
    8768:	eb0000ce 	bl	8aa8 <rpi_reset_putc>
    876c:	e59f0068 	ldr	r0, [pc, #104]	; 87dc <ckalloc+0x244>
    8770:	e59f103c 	ldr	r1, [pc, #60]	; 87b4 <ckalloc+0x21c>
    8774:	e59f203c 	ldr	r2, [pc, #60]	; 87b8 <ckalloc+0x220>
    8778:	e3a03099 	mov	r3, #153	; 0x99
    877c:	eb0000ae 	bl	8a3c <printk>
    8780:	eb00023c 	bl	9078 <clean_reboot>
    8784:	e59f0030 	ldr	r0, [pc, #48]	; 87bc <ckalloc+0x224>
    8788:	eb0000ab 	bl	8a3c <printk>
    878c:	e59f004c 	ldr	r0, [pc, #76]	; 87e0 <ckalloc+0x248>
    8790:	e1a01005 	mov	r1, r5
    8794:	e1a02006 	mov	r2, r6
    8798:	e1a03007 	mov	r3, r7
    879c:	eb0000a6 	bl	8a3c <printk>
    87a0:	e1a00007 	mov	r0, r7
    87a4:	e28dd00c 	add	sp, sp, #12
    87a8:	e8bd83f0 	pop	{r4, r5, r6, r7, r8, r9, pc}
    87ac:	00009d48 	andeq	r9, r0, r8, asr #26
    87b0:	000098bc 			; <UNDEFINED> instruction: 0x000098bc
    87b4:	00009830 	andeq	r9, r0, r0, lsr r8
    87b8:	00009764 	andeq	r9, r0, r4, ror #14
    87bc:	000096c8 	andeq	r9, r0, r8, asr #13
    87c0:	000098fc 	strdeq	r9, [r0], -ip
    87c4:	00009914 	andeq	r9, r0, r4, lsl r9
    87c8:	00009920 	andeq	r9, r0, r0, lsr #18
    87cc:	00009948 	andeq	r9, r0, r8, asr #18
    87d0:	00009980 	andeq	r9, r0, r0, lsl #19
    87d4:	000099ac 	andeq	r9, r0, ip, lsr #19
    87d8:	000099e8 	andeq	r9, r0, r8, ror #19
    87dc:	00009a08 	andeq	r9, r0, r8, lsl #20
    87e0:	00009a28 	andeq	r9, r0, r8, lsr #20

000087e4 <ck_heap_errors>:
    87e4:	e92d43f8 	push	{r3, r4, r5, r6, r7, r8, r9, lr}
    87e8:	e59f4120 	ldr	r4, [pc, #288]	; 8910 <ck_heap_errors+0x12c>
    87ec:	e5943004 	ldr	r3, [r4, #4]
    87f0:	e5946000 	ldr	r6, [r4]
    87f4:	e0666003 	rsb	r6, r6, r3
    87f8:	e5945008 	ldr	r5, [r4, #8]
    87fc:	e0635005 	rsb	r5, r3, r5
    8800:	e59f010c 	ldr	r0, [pc, #268]	; 8914 <ck_heap_errors+0x130>
    8804:	eb00008c 	bl	8a3c <printk>
    8808:	e59f0108 	ldr	r0, [pc, #264]	; 8918 <ck_heap_errors+0x134>
    880c:	e1a01006 	mov	r1, r6
    8810:	e1a02005 	mov	r2, r5
    8814:	eb000088 	bl	8a3c <printk>
    8818:	e5944000 	ldr	r4, [r4]
    881c:	e3a05000 	mov	r5, #0
    8820:	e1a06005 	mov	r6, r5
    8824:	e59f70e4 	ldr	r7, [pc, #228]	; 8910 <ck_heap_errors+0x12c>
    8828:	e59f90e4 	ldr	r9, [pc, #228]	; 8914 <ck_heap_errors+0x130>
    882c:	e59f80e8 	ldr	r8, [pc, #232]	; 891c <ck_heap_errors+0x138>
    8830:	ea000023 	b	88c4 <ck_heap_errors+0xe0>
    8834:	e1a00004 	mov	r0, r4
    8838:	ebfffec2 	bl	8348 <check_hdr>
    883c:	e3500000 	cmp	r0, #0
    8840:	1a000005 	bne	885c <ck_heap_errors+0x78>
    8844:	e59f00c8 	ldr	r0, [pc, #200]	; 8914 <ck_heap_errors+0x130>
    8848:	eb00007b 	bl	8a3c <printk>
    884c:	e59f00cc 	ldr	r0, [pc, #204]	; 8920 <ck_heap_errors+0x13c>
    8850:	eb000079 	bl	8a3c <printk>
    8854:	e2866001 	add	r6, r6, #1
    8858:	ea00001c 	b	88d0 <ck_heap_errors+0xec>
    885c:	e1a00004 	mov	r0, r4
    8860:	ebfffedf 	bl	83e4 <check_block>
    8864:	e3500000 	cmp	r0, #0
    8868:	02866001 	addeq	r6, r6, #1
    886c:	e5943008 	ldr	r3, [r4, #8]
    8870:	e353000c 	cmp	r3, #12
    8874:	1a00000c 	bne	88ac <ck_heap_errors+0xc8>
    8878:	e1a00004 	mov	r0, r4
    887c:	ebfffe52 	bl	81cc <b_alloc_ptr>
    8880:	e1a01000 	mov	r1, r0
    8884:	e1a00004 	mov	r0, r4
    8888:	e5942000 	ldr	r2, [r4]
    888c:	ebfffe5d 	bl	8208 <check_mem>
    8890:	e3500000 	cmp	r0, #0
    8894:	1a000004 	bne	88ac <ck_heap_errors+0xc8>
    8898:	e1a00009 	mov	r0, r9
    889c:	eb000066 	bl	8a3c <printk>
    88a0:	e1a00008 	mov	r0, r8
    88a4:	eb000064 	bl	8a3c <printk>
    88a8:	e2866001 	add	r6, r6, #1
    88ac:	e5942000 	ldr	r2, [r4]
    88b0:	e5943004 	ldr	r3, [r4, #4]
    88b4:	e0823003 	add	r3, r2, r3
    88b8:	e2833f4e 	add	r3, r3, #312	; 0x138
    88bc:	e0844003 	add	r4, r4, r3
    88c0:	e2855001 	add	r5, r5, #1
    88c4:	e5973004 	ldr	r3, [r7, #4]
    88c8:	e1530004 	cmp	r3, r4
    88cc:	1affffd8 	bne	8834 <ck_heap_errors+0x50>
    88d0:	e3560000 	cmp	r6, #0
    88d4:	0a000006 	beq	88f4 <ck_heap_errors+0x110>
    88d8:	e59f0034 	ldr	r0, [pc, #52]	; 8914 <ck_heap_errors+0x130>
    88dc:	eb000056 	bl	8a3c <printk>
    88e0:	e59f003c 	ldr	r0, [pc, #60]	; 8924 <ck_heap_errors+0x140>
    88e4:	e1a01005 	mov	r1, r5
    88e8:	e1a02006 	mov	r2, r6
    88ec:	eb000052 	bl	8a3c <printk>
    88f0:	ea000004 	b	8908 <ck_heap_errors+0x124>
    88f4:	e59f0018 	ldr	r0, [pc, #24]	; 8914 <ck_heap_errors+0x130>
    88f8:	eb00004f 	bl	8a3c <printk>
    88fc:	e59f0024 	ldr	r0, [pc, #36]	; 8928 <ck_heap_errors+0x144>
    8900:	e1a01005 	mov	r1, r5
    8904:	eb00004c 	bl	8a3c <printk>
    8908:	e1a00006 	mov	r0, r6
    890c:	e8bd83f8 	pop	{r3, r4, r5, r6, r7, r8, r9, pc}
    8910:	00009d48 	andeq	r9, r0, r8, asr #26
    8914:	000096c8 	andeq	r9, r0, r8, asr #13
    8918:	00009a58 	andeq	r9, r0, r8, asr sl
    891c:	00009aa4 	andeq	r9, r0, r4, lsr #21
    8920:	00009a90 	muleq	r0, r0, sl
    8924:	00009ac0 	andeq	r9, r0, r0, asr #21
    8928:	00009ae8 	andeq	r9, r0, r8, ror #21

0000892c <fast_hash>:
    892c:	e52d4004 	push	{r4}		; (str r4, [sp, #-4]!)
    8930:	e1a02001 	mov	r2, r1
    8934:	e1a03000 	mov	r3, r0
    8938:	e3500000 	cmp	r0, #0
    893c:	13510000 	cmpne	r1, #0
    8940:	da000032 	ble	8a10 <fast_hash+0xe4>
    8944:	e2014003 	and	r4, r1, #3
    8948:	e1a01141 	asr	r1, r1, #2
    894c:	ea00000b 	b	8980 <fast_hash+0x54>
    8950:	e5d3c001 	ldrb	ip, [r3, #1]
    8954:	e5d30000 	ldrb	r0, [r3]
    8958:	e080040c 	add	r0, r0, ip, lsl #8
    895c:	e0800002 	add	r0, r0, r2
    8960:	e5d3c003 	ldrb	ip, [r3, #3]
    8964:	e5d32002 	ldrb	r2, [r3, #2]
    8968:	e082240c 	add	r2, r2, ip, lsl #8
    896c:	e0202582 	eor	r2, r0, r2, lsl #11
    8970:	e0222800 	eor	r2, r2, r0, lsl #16
    8974:	e2833004 	add	r3, r3, #4
    8978:	e08225a2 	add	r2, r2, r2, lsr #11
    897c:	e2411001 	sub	r1, r1, #1
    8980:	e3510000 	cmp	r1, #0
    8984:	cafffff1 	bgt	8950 <fast_hash+0x24>
    8988:	e3540002 	cmp	r4, #2
    898c:	0a00000d 	beq	89c8 <fast_hash+0x9c>
    8990:	e3540003 	cmp	r4, #3
    8994:	0a000002 	beq	89a4 <fast_hash+0x78>
    8998:	e3540001 	cmp	r4, #1
    899c:	1a000014 	bne	89f4 <fast_hash+0xc8>
    89a0:	ea00000f 	b	89e4 <fast_hash+0xb8>
    89a4:	e5d30001 	ldrb	r0, [r3, #1]
    89a8:	e5d31000 	ldrb	r1, [r3]
    89ac:	e0811400 	add	r1, r1, r0, lsl #8
    89b0:	e0812002 	add	r2, r1, r2
    89b4:	e0222802 	eor	r2, r2, r2, lsl #16
    89b8:	e1d330d2 	ldrsb	r3, [r3, #2]
    89bc:	e0222903 	eor	r2, r2, r3, lsl #18
    89c0:	e08225a2 	add	r2, r2, r2, lsr #11
    89c4:	ea00000a 	b	89f4 <fast_hash+0xc8>
    89c8:	e5d31001 	ldrb	r1, [r3, #1]
    89cc:	e5d33000 	ldrb	r3, [r3]
    89d0:	e0833401 	add	r3, r3, r1, lsl #8
    89d4:	e0832002 	add	r2, r3, r2
    89d8:	e0222582 	eor	r2, r2, r2, lsl #11
    89dc:	e08228a2 	add	r2, r2, r2, lsr #17
    89e0:	ea000003 	b	89f4 <fast_hash+0xc8>
    89e4:	e1d330d0 	ldrsb	r3, [r3]
    89e8:	e0832002 	add	r2, r3, r2
    89ec:	e0222502 	eor	r2, r2, r2, lsl #10
    89f0:	e08220a2 	add	r2, r2, r2, lsr #1
    89f4:	e0220182 	eor	r0, r2, r2, lsl #3
    89f8:	e08002a0 	add	r0, r0, r0, lsr #5
    89fc:	e0200200 	eor	r0, r0, r0, lsl #4
    8a00:	e08008a0 	add	r0, r0, r0, lsr #17
    8a04:	e0200c80 	eor	r0, r0, r0, lsl #25
    8a08:	e0800320 	add	r0, r0, r0, lsr #6
    8a0c:	ea000000 	b	8a14 <fast_hash+0xe8>
    8a10:	e3a00000 	mov	r0, #0
    8a14:	e49d4004 	pop	{r4}		; (ldr r4, [sp], #4)
    8a18:	e12fff1e 	bx	lr

00008a1c <memset>:
    8a1c:	e0802002 	add	r2, r0, r2
    8a20:	e1a03000 	mov	r3, r0
    8a24:	ea000001 	b	8a30 <memset+0x14>
    8a28:	e5c31000 	strb	r1, [r3]
    8a2c:	e2833001 	add	r3, r3, #1
    8a30:	e1530002 	cmp	r3, r2
    8a34:	3afffffb 	bcc	8a28 <memset+0xc>
    8a38:	e12fff1e 	bx	lr

00008a3c <printk>:
    8a3c:	e92d000f 	push	{r0, r1, r2, r3}
    8a40:	e92d4030 	push	{r4, r5, lr}
    8a44:	e24dd00c 	sub	sp, sp, #12
    8a48:	e28d301c 	add	r3, sp, #28
    8a4c:	e58d3004 	str	r3, [sp, #4]
    8a50:	e59f4034 	ldr	r4, [pc, #52]	; 8a8c <printk+0x50>
    8a54:	e1a00004 	mov	r0, r4
    8a58:	e3a01b01 	mov	r1, #1024	; 0x400
    8a5c:	e59d2018 	ldr	r2, [sp, #24]
    8a60:	eb0000e2 	bl	8df0 <va_printk>
    8a64:	e1a05000 	mov	r5, r0
    8a68:	e59f3020 	ldr	r3, [pc, #32]	; 8a90 <printk+0x54>
    8a6c:	e5933000 	ldr	r3, [r3]
    8a70:	e1a00004 	mov	r0, r4
    8a74:	e12fff33 	blx	r3
    8a78:	e1a00005 	mov	r0, r5
    8a7c:	e28dd00c 	add	sp, sp, #12
    8a80:	e8bd4030 	pop	{r4, r5, lr}
    8a84:	e28dd010 	add	sp, sp, #16
    8a88:	e12fff1e 	bx	lr
    8a8c:	00009d54 	andeq	r9, r0, r4, asr sp
    8a90:	00009664 	andeq	r9, r0, r4, ror #12

00008a94 <internal_putchar>:
    8a94:	e92d4010 	push	{r4, lr}
    8a98:	e1a04000 	mov	r4, r0
    8a9c:	eb00022c 	bl	9354 <uart_putc>
    8aa0:	e1a00004 	mov	r0, r4
    8aa4:	e8bd8010 	pop	{r4, pc}

00008aa8 <rpi_reset_putc>:
    8aa8:	e59f2008 	ldr	r2, [pc, #8]	; 8ab8 <rpi_reset_putc+0x10>
    8aac:	e59f3008 	ldr	r3, [pc, #8]	; 8abc <rpi_reset_putc+0x14>
    8ab0:	e5832000 	str	r2, [r3]
    8ab4:	e12fff1e 	bx	lr
    8ab8:	00008a94 	muleq	r0, r4, sl
    8abc:	00009660 	andeq	r9, r0, r0, ror #12

00008ac0 <rpi_set_putc>:
    8ac0:	e59f3004 	ldr	r3, [pc, #4]	; 8acc <rpi_set_putc+0xc>
    8ac4:	e5830000 	str	r0, [r3]
    8ac8:	e12fff1e 	bx	lr
    8acc:	00009660 	andeq	r9, r0, r0, ror #12

00008ad0 <internal_putk>:
    8ad0:	e92d4038 	push	{r3, r4, r5, lr}
    8ad4:	e1a04000 	mov	r4, r0
    8ad8:	e59f5020 	ldr	r5, [pc, #32]	; 8b00 <internal_putk+0x30>
    8adc:	ea000002 	b	8aec <internal_putk+0x1c>
    8ae0:	e5953000 	ldr	r3, [r5]
    8ae4:	e12fff33 	blx	r3
    8ae8:	e2844001 	add	r4, r4, #1
    8aec:	e5d40000 	ldrb	r0, [r4]
    8af0:	e3500000 	cmp	r0, #0
    8af4:	1afffff9 	bne	8ae0 <internal_putk+0x10>
    8af8:	e3a00001 	mov	r0, #1
    8afc:	e8bd8038 	pop	{r3, r4, r5, pc}
    8b00:	00009660 	andeq	r9, r0, r0, ror #12

00008b04 <rpi_rand16>:
    8b04:	e59f2028 	ldr	r2, [pc, #40]	; 8b34 <rpi_rand16+0x30>
    8b08:	e1d230b0 	ldrh	r3, [r2]
    8b0c:	e0230123 	eor	r0, r3, r3, lsr #2
    8b10:	e02001a3 	eor	r0, r0, r3, lsr #3
    8b14:	e02002a3 	eor	r0, r0, r3, lsr #5
    8b18:	e2000001 	and	r0, r0, #1
    8b1c:	e59f1014 	ldr	r1, [pc, #20]	; 8b38 <rpi_rand16+0x34>
    8b20:	e5810000 	str	r0, [r1]
    8b24:	e1a00780 	lsl	r0, r0, #15
    8b28:	e18000a3 	orr	r0, r0, r3, lsr #1
    8b2c:	e1c200b0 	strh	r0, [r2]
    8b30:	e12fff1e 	bx	lr
    8b34:	00009668 	andeq	r9, r0, r8, ror #12
    8b38:	0000a154 	andeq	sl, r0, r4, asr r1

00008b3c <rpi_rand32>:
    8b3c:	e92d4010 	push	{r4, lr}
    8b40:	ebffffef 	bl	8b04 <rpi_rand16>
    8b44:	e1a04800 	lsl	r4, r0, #16
    8b48:	ebffffed 	bl	8b04 <rpi_rand16>
    8b4c:	e1840000 	orr	r0, r4, r0
    8b50:	e8bd8010 	pop	{r4, pc}

00008b54 <rpi_reset>:
    8b54:	e59f2008 	ldr	r2, [pc, #8]	; 8b64 <rpi_reset+0x10>
    8b58:	e59f3008 	ldr	r3, [pc, #8]	; 8b68 <rpi_reset+0x14>
    8b5c:	e1c320b0 	strh	r2, [r3]
    8b60:	e12fff1e 	bx	lr
    8b64:	fffface1 			; <UNDEFINED> instruction: 0xfffface1
    8b68:	00009668 	andeq	r9, r0, r8, ror #12

00008b6c <isdigit>:
    8b6c:	e2400030 	sub	r0, r0, #48	; 0x30
    8b70:	e3500009 	cmp	r0, #9
    8b74:	83a00000 	movhi	r0, #0
    8b78:	93a00001 	movls	r0, #1
    8b7c:	e12fff1e 	bx	lr

00008b80 <pad>:
    8b80:	e0611000 	rsb	r1, r1, r0
    8b84:	e3a03020 	mov	r3, #32
    8b88:	ea000002 	b	8b98 <pad+0x18>
    8b8c:	e5c03000 	strb	r3, [r0]
    8b90:	e2811001 	add	r1, r1, #1
    8b94:	e2800001 	add	r0, r0, #1
    8b98:	e1510002 	cmp	r1, r2
    8b9c:	bafffffa 	blt	8b8c <pad+0xc>
    8ba0:	e3a03000 	mov	r3, #0
    8ba4:	e5c03000 	strb	r3, [r0]
    8ba8:	e12fff1e 	bx	lr

00008bac <reverse>:
    8bac:	e063c002 	rsb	ip, r3, r2
    8bb0:	e28cc001 	add	ip, ip, #1
    8bb4:	e15c0001 	cmp	ip, r1
    8bb8:	c061100c 	rsbgt	r1, r1, ip
    8bbc:	c0833001 	addgt	r3, r3, r1
    8bc0:	e2422001 	sub	r2, r2, #1
    8bc4:	e1a01000 	mov	r1, r0
    8bc8:	ea000002 	b	8bd8 <reverse+0x2c>
    8bcc:	e452c001 	ldrb	ip, [r2], #-1
    8bd0:	e5c1c000 	strb	ip, [r1]
    8bd4:	e2811001 	add	r1, r1, #1
    8bd8:	e1520003 	cmp	r2, r3
    8bdc:	2afffffa 	bcs	8bcc <reverse+0x20>
    8be0:	e3a03000 	mov	r3, #0
    8be4:	e5c13000 	strb	r3, [r1]
    8be8:	e12fff1e 	bx	lr

00008bec <emit>:
    8bec:	e92d41f0 	push	{r4, r5, r6, r7, r8, lr}
    8bf0:	e24dd040 	sub	sp, sp, #64	; 0x40
    8bf4:	e1a05001 	mov	r5, r1
    8bf8:	e1a04002 	mov	r4, r2
    8bfc:	e59d2058 	ldr	r2, [sp, #88]	; 0x58
    8c00:	e1520004 	cmp	r2, r4
    8c04:	c2442001 	subgt	r2, r4, #1
    8c08:	e1a0c003 	mov	ip, r3
    8c0c:	e2400002 	sub	r0, r0, #2
    8c10:	e350000e 	cmp	r0, #14
    8c14:	979ff100 	ldrls	pc, [pc, r0, lsl #2]
    8c18:	ea000048 	b	8d40 <emit+0x154>
    8c1c:	00008d18 	andeq	r8, r0, r8, lsl sp
    8c20:	00008d40 	andeq	r8, r0, r0, asr #26
    8c24:	00008d40 	andeq	r8, r0, r0, asr #26
    8c28:	00008d40 	andeq	r8, r0, r0, asr #26
    8c2c:	00008d40 	andeq	r8, r0, r0, asr #26
    8c30:	00008d40 	andeq	r8, r0, r0, asr #26
    8c34:	00008d0c 	andeq	r8, r0, ip, lsl #26
    8c38:	00008d40 	andeq	r8, r0, r0, asr #26
    8c3c:	00008c58 	andeq	r8, r0, r8, asr ip
    8c40:	00008d40 	andeq	r8, r0, r0, asr #26
    8c44:	00008d40 	andeq	r8, r0, r0, asr #26
    8c48:	00008d40 	andeq	r8, r0, r0, asr #26
    8c4c:	00008d40 	andeq	r8, r0, r0, asr #26
    8c50:	00008d40 	andeq	r8, r0, r0, asr #26
    8c54:	00008ccc 	andeq	r8, r0, ip, asr #25
    8c58:	e59d105c 	ldr	r1, [sp, #92]	; 0x5c
    8c5c:	e2911000 	adds	r1, r1, #0
    8c60:	13a01001 	movne	r1, #1
    8c64:	e0111fa3 	ands	r1, r1, r3, lsr #31
    8c68:	1263c000 	rsbne	ip, r3, #0
    8c6c:	13a08001 	movne	r8, #1
    8c70:	03a08000 	moveq	r8, #0
    8c74:	e1a0100d 	mov	r1, sp
    8c78:	e59f7100 	ldr	r7, [pc, #256]	; 8d80 <emit+0x194>
    8c7c:	e59f6100 	ldr	r6, [pc, #256]	; 8d84 <emit+0x198>
    8c80:	ea000000 	b	8c88 <emit+0x9c>
    8c84:	e1a01000 	mov	r1, r0
    8c88:	e2810001 	add	r0, r1, #1
    8c8c:	e083ec97 	umull	lr, r3, r7, ip
    8c90:	e1a031a3 	lsr	r3, r3, #3
    8c94:	e1a0e003 	mov	lr, r3
    8c98:	e0833103 	add	r3, r3, r3, lsl #2
    8c9c:	e1a03083 	lsl	r3, r3, #1
    8ca0:	e063300c 	rsb	r3, r3, ip
    8ca4:	e7d63003 	ldrb	r3, [r6, r3]
    8ca8:	e5c13000 	strb	r3, [r1]
    8cac:	e1a0c00e 	mov	ip, lr
    8cb0:	e35e0000 	cmp	lr, #0
    8cb4:	1afffff2 	bne	8c84 <emit+0x98>
    8cb8:	e3580000 	cmp	r8, #0
    8cbc:	12810002 	addne	r0, r1, #2
    8cc0:	13a0302d 	movne	r3, #45	; 0x2d
    8cc4:	15c13001 	strbne	r3, [r1, #1]
    8cc8:	ea000023 	b	8d5c <emit+0x170>
    8ccc:	e1a0300d 	mov	r3, sp
    8cd0:	e59fe0b0 	ldr	lr, [pc, #176]	; 8d88 <emit+0x19c>
    8cd4:	ea000000 	b	8cdc <emit+0xf0>
    8cd8:	e1a03000 	mov	r3, r0
    8cdc:	e2830001 	add	r0, r3, #1
    8ce0:	e20c100f 	and	r1, ip, #15
    8ce4:	e7de1001 	ldrb	r1, [lr, r1]
    8ce8:	e5c31000 	strb	r1, [r3]
    8cec:	e1b0c22c 	lsrs	ip, ip, #4
    8cf0:	1afffff8 	bne	8cd8 <emit+0xec>
    8cf4:	e3a01078 	mov	r1, #120	; 0x78
    8cf8:	e5c31001 	strb	r1, [r3, #1]
    8cfc:	e2830003 	add	r0, r3, #3
    8d00:	e3a01030 	mov	r1, #48	; 0x30
    8d04:	e5c31002 	strb	r1, [r3, #2]
    8d08:	ea000013 	b	8d5c <emit+0x170>
    8d0c:	e5cd3000 	strb	r3, [sp]
    8d10:	e28d0001 	add	r0, sp, #1
    8d14:	ea000010 	b	8d5c <emit+0x170>
    8d18:	e1a0300d 	mov	r3, sp
    8d1c:	e59fe068 	ldr	lr, [pc, #104]	; 8d8c <emit+0x1a0>
    8d20:	e2830001 	add	r0, r3, #1
    8d24:	e20c1001 	and	r1, ip, #1
    8d28:	e7de1001 	ldrb	r1, [lr, r1]
    8d2c:	e5c31000 	strb	r1, [r3]
    8d30:	e1a03000 	mov	r3, r0
    8d34:	e1b0c0ac 	lsrs	ip, ip, #1
    8d38:	1afffff8 	bne	8d20 <emit+0x134>
    8d3c:	ea000006 	b	8d5c <emit+0x170>
    8d40:	ebffff58 	bl	8aa8 <rpi_reset_putc>
    8d44:	e59f0044 	ldr	r0, [pc, #68]	; 8d90 <emit+0x1a4>
    8d48:	e59f1044 	ldr	r1, [pc, #68]	; 8d94 <emit+0x1a8>
    8d4c:	e59f2044 	ldr	r2, [pc, #68]	; 8d98 <emit+0x1ac>
    8d50:	e3a03077 	mov	r3, #119	; 0x77
    8d54:	ebffff38 	bl	8a3c <printk>
    8d58:	eb0000c6 	bl	9078 <clean_reboot>
    8d5c:	e1a0100d 	mov	r1, sp
    8d60:	ebffff86 	bl	8b80 <pad>
    8d64:	e1a02000 	mov	r2, r0
    8d68:	e1a00005 	mov	r0, r5
    8d6c:	e1a01004 	mov	r1, r4
    8d70:	e1a0300d 	mov	r3, sp
    8d74:	ebffff8c 	bl	8bac <reverse>
    8d78:	e28dd040 	add	sp, sp, #64	; 0x40
    8d7c:	e8bd81f0 	pop	{r4, r5, r6, r7, r8, pc}
    8d80:	cccccccd 	stclgt	12, cr12, [ip], {205}	; 0xcd
    8d84:	00009b64 	andeq	r9, r0, r4, ror #22
    8d88:	00009b70 	andeq	r9, r0, r0, ror fp
    8d8c:	00009b84 	andeq	r9, r0, r4, lsl #23
    8d90:	00009b3c 	andeq	r9, r0, ip, lsr fp
    8d94:	00009b50 	andeq	r9, r0, r0, asr fp
    8d98:	00009b18 	andeq	r9, r0, r8, lsl fp

00008d9c <rpi_set_output>:
    8d9c:	e92d4008 	push	{r3, lr}
    8da0:	e3500000 	cmp	r0, #0
    8da4:	1a000006 	bne	8dc4 <rpi_set_output+0x28>
    8da8:	ebffff3e 	bl	8aa8 <rpi_reset_putc>
    8dac:	e59f0028 	ldr	r0, [pc, #40]	; 8ddc <rpi_set_output+0x40>
    8db0:	e59f1028 	ldr	r1, [pc, #40]	; 8de0 <rpi_set_output+0x44>
    8db4:	e59f2028 	ldr	r2, [pc, #40]	; 8de4 <rpi_set_output+0x48>
    8db8:	e3a03020 	mov	r3, #32
    8dbc:	ebffff1e 	bl	8a3c <printk>
    8dc0:	eb0000ac 	bl	9078 <clean_reboot>
    8dc4:	e59f301c 	ldr	r3, [pc, #28]	; 8de8 <rpi_set_output+0x4c>
    8dc8:	e5830000 	str	r0, [r3]
    8dcc:	e3510000 	cmp	r1, #0
    8dd0:	159f3014 	ldrne	r3, [pc, #20]	; 8dec <rpi_set_output+0x50>
    8dd4:	15831000 	strne	r1, [r3]
    8dd8:	e8bd8008 	pop	{r3, pc}
    8ddc:	00009b88 	andeq	r9, r0, r8, lsl #23
    8de0:	00009b50 	andeq	r9, r0, r0, asr fp
    8de4:	00009b20 	andeq	r9, r0, r0, lsr #22
    8de8:	00009660 	andeq	r9, r0, r0, ror #12
    8dec:	00009664 	andeq	r9, r0, r4, ror #12

00008df0 <va_printk>:
    8df0:	e92d4ff0 	push	{r4, r5, r6, r7, r8, r9, sl, fp, lr}
    8df4:	e24dd08c 	sub	sp, sp, #140	; 0x8c
    8df8:	e1a0a000 	mov	sl, r0
    8dfc:	e1a09003 	mov	r9, r3
    8e00:	e2411001 	sub	r1, r1, #1
    8e04:	e0808001 	add	r8, r0, r1
    8e08:	e3a03000 	mov	r3, #0
    8e0c:	e5c03000 	strb	r3, [r0]
    8e10:	e1a04000 	mov	r4, r0
    8e14:	e1a0b003 	mov	fp, r3
    8e18:	ea000086 	b	9038 <va_printk+0x248>
    8e1c:	e3530025 	cmp	r3, #37	; 0x25
    8e20:	12822001 	addne	r2, r2, #1
    8e24:	15c43000 	strbne	r3, [r4]
    8e28:	12844001 	addne	r4, r4, #1
    8e2c:	1a000081 	bne	9038 <va_printk+0x248>
    8e30:	e5d21001 	ldrb	r1, [r2, #1]
    8e34:	e3510025 	cmp	r1, #37	; 0x25
    8e38:	05c43000 	strbeq	r3, [r4]
    8e3c:	02822002 	addeq	r2, r2, #2
    8e40:	02844001 	addeq	r4, r4, #1
    8e44:	0a00007b 	beq	9038 <va_printk+0x248>
    8e48:	e2826001 	add	r6, r2, #1
    8e4c:	e1a0700b 	mov	r7, fp
    8e50:	ea000004 	b	8e68 <va_printk+0x78>
    8e54:	e0877107 	add	r7, r7, r7, lsl #2
    8e58:	e1a07087 	lsl	r7, r7, #1
    8e5c:	e0877005 	add	r7, r7, r5
    8e60:	e2477030 	sub	r7, r7, #48	; 0x30
    8e64:	e2866001 	add	r6, r6, #1
    8e68:	e5d65000 	ldrb	r5, [r6]
    8e6c:	e1a00005 	mov	r0, r5
    8e70:	ebffff3d 	bl	8b6c <isdigit>
    8e74:	e3500000 	cmp	r0, #0
    8e78:	1afffff5 	bne	8e54 <va_printk+0x64>
    8e7c:	e357001f 	cmp	r7, #31
    8e80:	9a000006 	bls	8ea0 <va_printk+0xb0>
    8e84:	ebffff07 	bl	8aa8 <rpi_reset_putc>
    8e88:	e59f01d4 	ldr	r0, [pc, #468]	; 9064 <va_printk+0x274>
    8e8c:	e59f11d4 	ldr	r1, [pc, #468]	; 9068 <va_printk+0x278>
    8e90:	e59f21d4 	ldr	r2, [pc, #468]	; 906c <va_printk+0x27c>
    8e94:	e3a03094 	mov	r3, #148	; 0x94
    8e98:	ebfffee7 	bl	8a3c <printk>
    8e9c:	eb000075 	bl	9078 <clean_reboot>
    8ea0:	e2455062 	sub	r5, r5, #98	; 0x62
    8ea4:	e3550016 	cmp	r5, #22
    8ea8:	979ff105 	ldrls	pc, [pc, r5, lsl #2]
    8eac:	ea00004e 	b	8fec <va_printk+0x1fc>
    8eb0:	00008f98 	muleq	r0, r8, pc	; <UNPREDICTABLE>
    8eb4:	00008fc8 	andeq	r8, r0, r8, asr #31
    8eb8:	00008f28 	andeq	r8, r0, r8, lsr #30
    8ebc:	00008fec 	andeq	r8, r0, ip, ror #31
    8ec0:	00008f0c 	andeq	r8, r0, ip, lsl #30
    8ec4:	00008fec 	andeq	r8, r0, ip, ror #31
    8ec8:	00008fec 	andeq	r8, r0, ip, ror #31
    8ecc:	00008fec 	andeq	r8, r0, ip, ror #31
    8ed0:	00008fec 	andeq	r8, r0, ip, ror #31
    8ed4:	00008fec 	andeq	r8, r0, ip, ror #31
    8ed8:	00008fec 	andeq	r8, r0, ip, ror #31
    8edc:	00008fec 	andeq	r8, r0, ip, ror #31
    8ee0:	00008fec 	andeq	r8, r0, ip, ror #31
    8ee4:	00008fec 	andeq	r8, r0, ip, ror #31
    8ee8:	00008f74 	andeq	r8, r0, r4, ror pc
    8eec:	00008fec 	andeq	r8, r0, ip, ror #31
    8ef0:	00008fec 	andeq	r8, r0, ip, ror #31
    8ef4:	00008fbc 			; <UNDEFINED> instruction: 0x00008fbc
    8ef8:	00008fec 	andeq	r8, r0, ip, ror #31
    8efc:	00008f50 	andeq	r8, r0, r0, asr pc
    8f00:	00008fec 	andeq	r8, r0, ip, ror #31
    8f04:	00008fec 	andeq	r8, r0, ip, ror #31
    8f08:	00008f74 	andeq	r8, r0, r4, ror pc
    8f0c:	ebfffee5 	bl	8aa8 <rpi_reset_putc>
    8f10:	e59f0158 	ldr	r0, [pc, #344]	; 9070 <va_printk+0x280>
    8f14:	e59f114c 	ldr	r1, [pc, #332]	; 9068 <va_printk+0x278>
    8f18:	e59f214c 	ldr	r2, [pc, #332]	; 906c <va_printk+0x27c>
    8f1c:	e3a0309a 	mov	r3, #154	; 0x9a
    8f20:	ebfffec5 	bl	8a3c <printk>
    8f24:	eb000053 	bl	9078 <clean_reboot>
    8f28:	e5993000 	ldr	r3, [r9]
    8f2c:	e2899004 	add	r9, r9, #4
    8f30:	e58d7000 	str	r7, [sp]
    8f34:	e3a02001 	mov	r2, #1
    8f38:	e58d2004 	str	r2, [sp, #4]
    8f3c:	e3a0000a 	mov	r0, #10
    8f40:	e28d1008 	add	r1, sp, #8
    8f44:	e3a02080 	mov	r2, #128	; 0x80
    8f48:	ebffff27 	bl	8bec <emit>
    8f4c:	ea00002f 	b	9010 <va_printk+0x220>
    8f50:	e5993000 	ldr	r3, [r9]
    8f54:	e2899004 	add	r9, r9, #4
    8f58:	e58d7000 	str	r7, [sp]
    8f5c:	e58db004 	str	fp, [sp, #4]
    8f60:	e3a0000a 	mov	r0, #10
    8f64:	e28d1008 	add	r1, sp, #8
    8f68:	e3a02080 	mov	r2, #128	; 0x80
    8f6c:	ebffff1e 	bl	8bec <emit>
    8f70:	ea000026 	b	9010 <va_printk+0x220>
    8f74:	e5993000 	ldr	r3, [r9]
    8f78:	e2899004 	add	r9, r9, #4
    8f7c:	e58d7000 	str	r7, [sp]
    8f80:	e58db004 	str	fp, [sp, #4]
    8f84:	e3a00010 	mov	r0, #16
    8f88:	e28d1008 	add	r1, sp, #8
    8f8c:	e3a02080 	mov	r2, #128	; 0x80
    8f90:	ebffff15 	bl	8bec <emit>
    8f94:	ea00001d 	b	9010 <va_printk+0x220>
    8f98:	e5993000 	ldr	r3, [r9]
    8f9c:	e2899004 	add	r9, r9, #4
    8fa0:	e58d7000 	str	r7, [sp]
    8fa4:	e58db004 	str	fp, [sp, #4]
    8fa8:	e3a00002 	mov	r0, #2
    8fac:	e28d1008 	add	r1, sp, #8
    8fb0:	e3a02080 	mov	r2, #128	; 0x80
    8fb4:	ebffff0c 	bl	8bec <emit>
    8fb8:	ea000014 	b	9010 <va_printk+0x220>
    8fbc:	e5990000 	ldr	r0, [r9]
    8fc0:	e2899004 	add	r9, r9, #4
    8fc4:	ea000011 	b	9010 <va_printk+0x220>
    8fc8:	e5993000 	ldr	r3, [r9]
    8fcc:	e2899004 	add	r9, r9, #4
    8fd0:	e58d7000 	str	r7, [sp]
    8fd4:	e58db004 	str	fp, [sp, #4]
    8fd8:	e3a00008 	mov	r0, #8
    8fdc:	e08d1000 	add	r1, sp, r0
    8fe0:	e3a02080 	mov	r2, #128	; 0x80
    8fe4:	ebffff00 	bl	8bec <emit>
    8fe8:	ea000008 	b	9010 <va_printk+0x220>
    8fec:	ebfffead 	bl	8aa8 <rpi_reset_putc>
    8ff0:	e5d63000 	ldrb	r3, [r6]
    8ff4:	e58d3000 	str	r3, [sp]
    8ff8:	e59f0074 	ldr	r0, [pc, #116]	; 9074 <va_printk+0x284>
    8ffc:	e59f1064 	ldr	r1, [pc, #100]	; 9068 <va_printk+0x278>
    9000:	e59f2064 	ldr	r2, [pc, #100]	; 906c <va_printk+0x27c>
    9004:	e3a030bb 	mov	r3, #187	; 0xbb
    9008:	ebfffe8b 	bl	8a3c <printk>
    900c:	eb000019 	bl	9078 <clean_reboot>
    9010:	e2862001 	add	r2, r6, #1
    9014:	ea000002 	b	9024 <va_printk+0x234>
    9018:	e2800001 	add	r0, r0, #1
    901c:	e5c43000 	strb	r3, [r4]
    9020:	e2844001 	add	r4, r4, #1
    9024:	e1540008 	cmp	r4, r8
    9028:	2a000002 	bcs	9038 <va_printk+0x248>
    902c:	e5d03000 	ldrb	r3, [r0]
    9030:	e3530000 	cmp	r3, #0
    9034:	1afffff7 	bne	9018 <va_printk+0x228>
    9038:	e5d23000 	ldrb	r3, [r2]
    903c:	e3530000 	cmp	r3, #0
    9040:	0a000001 	beq	904c <va_printk+0x25c>
    9044:	e1540008 	cmp	r4, r8
    9048:	3affff73 	bcc	8e1c <va_printk+0x2c>
    904c:	e2840001 	add	r0, r4, #1
    9050:	e3a03000 	mov	r3, #0
    9054:	e5c43000 	strb	r3, [r4]
    9058:	e06a0000 	rsb	r0, sl, r0
    905c:	e28dd08c 	add	sp, sp, #140	; 0x8c
    9060:	e8bd8ff0 	pop	{r4, r5, r6, r7, r8, r9, sl, fp, pc}
    9064:	00009ba0 	andeq	r9, r0, r0, lsr #23
    9068:	00009b50 	andeq	r9, r0, r0, asr fp
    906c:	00009b30 	andeq	r9, r0, r0, lsr fp
    9070:	00009bbc 			; <UNDEFINED> instruction: 0x00009bbc
    9074:	00009be4 	andeq	r9, r0, r4, ror #23

00009078 <clean_reboot>:
    9078:	e92d4008 	push	{r3, lr}
    907c:	e59f3014 	ldr	r3, [pc, #20]	; 9098 <clean_reboot+0x20>
    9080:	e5933000 	ldr	r3, [r3]
    9084:	e59f0010 	ldr	r0, [pc, #16]	; 909c <clean_reboot+0x24>
    9088:	e12fff33 	blx	r3
    908c:	e3a00064 	mov	r0, #100	; 0x64
    9090:	eb000044 	bl	91a8 <delay_ms>
    9094:	eb000019 	bl	9100 <rpi_reboot>
    9098:	00009664 	andeq	r9, r0, r4, ror #12
    909c:	00009c1c 	andeq	r9, r0, ip, lsl ip

000090a0 <_cstart>:
    90a0:	e92d4008 	push	{r3, lr}
    90a4:	e59f3020 	ldr	r3, [pc, #32]	; 90cc <_cstart+0x2c>
    90a8:	e59f2020 	ldr	r2, [pc, #32]	; 90d0 <_cstart+0x30>
    90ac:	e3a01000 	mov	r1, #0
    90b0:	ea000001 	b	90bc <_cstart+0x1c>
    90b4:	e5831000 	str	r1, [r3]
    90b8:	e2833004 	add	r3, r3, #4
    90bc:	e1530002 	cmp	r3, r2
    90c0:	3afffffb 	bcc	90b4 <_cstart+0x14>
    90c4:	ebfffbd1 	bl	8010 <notmain>
    90c8:	ebffffea 	bl	9078 <clean_reboot>
    90cc:	00009d48 	andeq	r9, r0, r8, asr #26
    90d0:	0000a158 	andeq	sl, r0, r8, asr r1

000090d4 <at_user_level>:
    90d4:	e10f0000 	mrs	r0, CPSR
    90d8:	e200001f 	and	r0, r0, #31
    90dc:	e3500010 	cmp	r0, #16
    90e0:	13a00000 	movne	r0, #0
    90e4:	03a00001 	moveq	r0, #1
    90e8:	e12fff1e 	bx	lr

000090ec <set_user_level>:
    90ec:	e10f3000 	mrs	r3, CPSR
    90f0:	e3c3301f 	bic	r3, r3, #31
    90f4:	e3833010 	orr	r3, r3, #16
    90f8:	e129f003 	msr	CPSR_fc, r3
    90fc:	e12fff1e 	bx	lr

00009100 <rpi_reboot>:
    9100:	e92d4008 	push	{r3, lr}
    9104:	ebfffff2 	bl	90d4 <at_user_level>
    9108:	e3500000 	cmp	r0, #0
    910c:	0a000000 	beq	9114 <rpi_reboot+0x14>
    9110:	ebfffff5 	bl	90ec <set_user_level>
    9114:	e3a0001e 	mov	r0, #30
    9118:	eb000022 	bl	91a8 <delay_ms>
    911c:	e59f0014 	ldr	r0, [pc, #20]	; 9138 <rpi_reboot+0x38>
    9120:	e59f1014 	ldr	r1, [pc, #20]	; 913c <rpi_reboot+0x3c>
    9124:	eb00002b 	bl	91d8 <PUT32>
    9128:	e59f0010 	ldr	r0, [pc, #16]	; 9140 <rpi_reboot+0x40>
    912c:	e59f1010 	ldr	r1, [pc, #16]	; 9144 <rpi_reboot+0x44>
    9130:	eb000028 	bl	91d8 <PUT32>
    9134:	eafffffe 	b	9134 <rpi_reboot+0x34>
    9138:	20100024 	andscs	r0, r0, r4, lsr #32
    913c:	5a000001 	bpl	9148 <delay_cycles>
    9140:	2010001c 	andscs	r0, r0, ip, lsl r0
    9144:	5a000020 	bpl	91cc <delay_sec+0x10>

00009148 <delay_cycles>:
    9148:	ea000001 	b	9154 <delay_cycles+0xc>
    914c:	e2811000 	add	r1, r1, #0
    9150:	e1a00003 	mov	r0, r3
    9154:	e2403001 	sub	r3, r0, #1
    9158:	e3500000 	cmp	r0, #0
    915c:	1afffffa 	bne	914c <delay_cycles+0x4>
    9160:	e12fff1e 	bx	lr

00009164 <timer_get_usec_raw>:
    9164:	e92d4008 	push	{r3, lr}
    9168:	e59f0004 	ldr	r0, [pc, #4]	; 9174 <timer_get_usec_raw+0x10>
    916c:	eb000025 	bl	9208 <GET32>
    9170:	e8bd8008 	pop	{r3, pc}
    9174:	20003004 	andcs	r3, r0, r4

00009178 <timer_get_usec>:
    9178:	e92d4008 	push	{r3, lr}
    917c:	ebfffff8 	bl	9164 <timer_get_usec_raw>
    9180:	e8bd8008 	pop	{r3, pc}

00009184 <delay_us>:
    9184:	e92d4038 	push	{r3, r4, r5, lr}
    9188:	e1a05000 	mov	r5, r0
    918c:	ebfffff9 	bl	9178 <timer_get_usec>
    9190:	e1a04000 	mov	r4, r0
    9194:	ebfffff7 	bl	9178 <timer_get_usec>
    9198:	e0640000 	rsb	r0, r4, r0
    919c:	e1500005 	cmp	r0, r5
    91a0:	3afffffb 	bcc	9194 <delay_us+0x10>
    91a4:	e8bd8038 	pop	{r3, r4, r5, pc}

000091a8 <delay_ms>:
    91a8:	e92d4008 	push	{r3, lr}
    91ac:	e3a03ffa 	mov	r3, #1000	; 0x3e8
    91b0:	e0000093 	mul	r0, r3, r0
    91b4:	ebfffff2 	bl	9184 <delay_us>
    91b8:	e8bd8008 	pop	{r3, pc}

000091bc <delay_sec>:
    91bc:	e92d4008 	push	{r3, lr}
    91c0:	e3a03ffa 	mov	r3, #1000	; 0x3e8
    91c4:	e0000093 	mul	r0, r3, r0
    91c8:	ebfffff6 	bl	91a8 <delay_ms>
    91cc:	e8bd8008 	pop	{r3, pc}

000091d0 <put32>:
    91d0:	e5801000 	str	r1, [r0]
    91d4:	e12fff1e 	bx	lr

000091d8 <PUT32>:
    91d8:	e5801000 	str	r1, [r0]
    91dc:	e12fff1e 	bx	lr

000091e0 <put16>:
    91e0:	e1c010b0 	strh	r1, [r0]
    91e4:	e12fff1e 	bx	lr

000091e8 <PUT16>:
    91e8:	e1c010b0 	strh	r1, [r0]
    91ec:	e12fff1e 	bx	lr

000091f0 <put8>:
    91f0:	e5c01000 	strb	r1, [r0]
    91f4:	e12fff1e 	bx	lr

000091f8 <PUT8>:
    91f8:	e5c01000 	strb	r1, [r0]
    91fc:	e12fff1e 	bx	lr

00009200 <get32>:
    9200:	e5900000 	ldr	r0, [r0]
    9204:	e12fff1e 	bx	lr

00009208 <GET32>:
    9208:	e5900000 	ldr	r0, [r0]
    920c:	e12fff1e 	bx	lr

00009210 <GETPC>:
    9210:	e1a0000e 	mov	r0, lr
    9214:	e12fff1e 	bx	lr

00009218 <dummy>:
    9218:	e12fff1e 	bx	lr

0000921c <or_in32>:
    921c:	e92d4070 	push	{r4, r5, r6, lr}
    9220:	e1a04000 	mov	r4, r0
    9224:	e1a05001 	mov	r5, r1
    9228:	ebfffff4 	bl	9200 <get32>
    922c:	e1801005 	orr	r1, r0, r5
    9230:	e1a00004 	mov	r0, r4
    9234:	ebffffe5 	bl	91d0 <put32>
    9238:	e8bd8070 	pop	{r4, r5, r6, pc}

0000923c <uart_init>:
    923c:	e92d4010 	push	{r4, lr}
    9240:	e3a01002 	mov	r1, #2
    9244:	e3a0000e 	mov	r0, #14
    9248:	eb000051 	bl	9394 <gpio_set_function>
    924c:	e3a01002 	mov	r1, #2
    9250:	e3a0000f 	mov	r0, #15
    9254:	eb00004e 	bl	9394 <gpio_set_function>
    9258:	eb0000fa 	bl	9648 <dev_barrier>
    925c:	e3a01001 	mov	r1, #1
    9260:	e59f0064 	ldr	r0, [pc, #100]	; 92cc <uart_init+0x90>
    9264:	ebffffec 	bl	921c <or_in32>
    9268:	eb0000f6 	bl	9648 <dev_barrier>
    926c:	e59f405c 	ldr	r4, [pc, #92]	; 92d0 <uart_init+0x94>
    9270:	e3a01000 	mov	r1, #0
    9274:	e1a00004 	mov	r0, r4
    9278:	ebffffd4 	bl	91d0 <put32>
    927c:	e3a01000 	mov	r1, #0
    9280:	e59f004c 	ldr	r0, [pc, #76]	; 92d4 <uart_init+0x98>
    9284:	ebffffd1 	bl	91d0 <put32>
    9288:	e3a01003 	mov	r1, #3
    928c:	e59f0044 	ldr	r0, [pc, #68]	; 92d8 <uart_init+0x9c>
    9290:	ebffffce 	bl	91d0 <put32>
    9294:	e3a01000 	mov	r1, #0
    9298:	e59f003c 	ldr	r0, [pc, #60]	; 92dc <uart_init+0xa0>
    929c:	ebffffcb 	bl	91d0 <put32>
    92a0:	e3a010c7 	mov	r1, #199	; 0xc7
    92a4:	e59f0034 	ldr	r0, [pc, #52]	; 92e0 <uart_init+0xa4>
    92a8:	ebffffc8 	bl	91d0 <put32>
    92ac:	e59f1030 	ldr	r1, [pc, #48]	; 92e4 <uart_init+0xa8>
    92b0:	e59f0030 	ldr	r0, [pc, #48]	; 92e8 <uart_init+0xac>
    92b4:	ebffffc5 	bl	91d0 <put32>
    92b8:	e3a01003 	mov	r1, #3
    92bc:	e1a00004 	mov	r0, r4
    92c0:	ebffffc2 	bl	91d0 <put32>
    92c4:	eb0000df 	bl	9648 <dev_barrier>
    92c8:	e8bd8010 	pop	{r4, pc}
    92cc:	20215004 	eorcs	r5, r1, r4
    92d0:	20215060 	eorcs	r5, r1, r0, rrx
    92d4:	20215044 	eorcs	r5, r1, r4, asr #32
    92d8:	2021504c 	eorcs	r5, r1, ip, asr #32
    92dc:	20215050 	eorcs	r5, r1, r0, asr r0
    92e0:	20215048 	eorcs	r5, r1, r8, asr #32
    92e4:	0000010e 	andeq	r0, r0, lr, lsl #2
    92e8:	20215068 	eorcs	r5, r1, r8, rrx

000092ec <uart_can_getc>:
    92ec:	e92d4010 	push	{r4, lr}
    92f0:	e59f0008 	ldr	r0, [pc, #8]	; 9300 <uart_can_getc+0x14>
    92f4:	ebffffc1 	bl	9200 <get32>
    92f8:	e2000001 	and	r0, r0, #1
    92fc:	e8bd8010 	pop	{r4, pc}
    9300:	20215064 	eorcs	r5, r1, r4, rrx

00009304 <uart_can_putc>:
    9304:	e92d4010 	push	{r4, lr}
    9308:	e59f0010 	ldr	r0, [pc, #16]	; 9320 <uart_can_putc+0x1c>
    930c:	ebffffbb 	bl	9200 <get32>
    9310:	e3100002 	tst	r0, #2
    9314:	13a00001 	movne	r0, #1
    9318:	03a00000 	moveq	r0, #0
    931c:	e8bd8010 	pop	{r4, pc}
    9320:	20215064 	eorcs	r5, r1, r4, rrx

00009324 <uart_getc>:
    9324:	e92d4010 	push	{r4, lr}
    9328:	eb0000c6 	bl	9648 <dev_barrier>
    932c:	ebffffee 	bl	92ec <uart_can_getc>
    9330:	e3500000 	cmp	r0, #0
    9334:	0afffffc 	beq	932c <uart_getc+0x8>
    9338:	e59f0010 	ldr	r0, [pc, #16]	; 9350 <uart_getc+0x2c>
    933c:	ebffffaf 	bl	9200 <get32>
    9340:	e6ef4070 	uxtb	r4, r0
    9344:	eb0000bf 	bl	9648 <dev_barrier>
    9348:	e1a00004 	mov	r0, r4
    934c:	e8bd8010 	pop	{r4, pc}
    9350:	20215040 	eorcs	r5, r1, r0, asr #32

00009354 <uart_putc>:
    9354:	e92d4010 	push	{r4, lr}
    9358:	e1a04000 	mov	r4, r0
    935c:	eb0000b9 	bl	9648 <dev_barrier>
    9360:	ebffffe7 	bl	9304 <uart_can_putc>
    9364:	e3500000 	cmp	r0, #0
    9368:	0afffffc 	beq	9360 <uart_putc+0xc>
    936c:	e6ef1074 	uxtb	r1, r4
    9370:	e59f0008 	ldr	r0, [pc, #8]	; 9380 <uart_putc+0x2c>
    9374:	ebffff95 	bl	91d0 <put32>
    9378:	eb0000b2 	bl	9648 <dev_barrier>
    937c:	e8bd8010 	pop	{r4, pc}
    9380:	20215040 	eorcs	r5, r1, r0, asr #32

00009384 <uart_has_data>:
    9384:	e92d4010 	push	{r4, lr}
    9388:	eb0000ae 	bl	9648 <dev_barrier>
    938c:	ebffffd6 	bl	92ec <uart_can_getc>
    9390:	e8bd8010 	pop	{r4, pc}

00009394 <gpio_set_function>:
    9394:	e350001f 	cmp	r0, #31
    9398:	812fff1e 	bxhi	lr
    939c:	e3d13007 	bics	r3, r1, #7
    93a0:	112fff1e 	bxne	lr
    93a4:	e92d4070 	push	{r4, r5, r6, lr}
    93a8:	e1a05001 	mov	r5, r1
    93ac:	e59f3044 	ldr	r3, [pc, #68]	; 93f8 <gpio_set_function+0x64>
    93b0:	e0832093 	umull	r2, r3, r3, r0
    93b4:	e1a031a3 	lsr	r3, r3, #3
    93b8:	e1a06003 	mov	r6, r3
    93bc:	e0833103 	add	r3, r3, r3, lsl #2
    93c0:	e1a02083 	lsl	r2, r3, #1
    93c4:	e0403002 	sub	r3, r0, r2
    93c8:	e0834083 	add	r4, r3, r3, lsl #1
    93cc:	e2866302 	add	r6, r6, #134217728	; 0x8000000
    93d0:	e2866702 	add	r6, r6, #524288	; 0x80000
    93d4:	e1a06106 	lsl	r6, r6, #2
    93d8:	e1a00006 	mov	r0, r6
    93dc:	ebffff89 	bl	9208 <GET32>
    93e0:	e3a01007 	mov	r1, #7
    93e4:	e1c01411 	bic	r1, r0, r1, lsl r4
    93e8:	e1811415 	orr	r1, r1, r5, lsl r4
    93ec:	e1a00006 	mov	r0, r6
    93f0:	ebffff78 	bl	91d8 <PUT32>
    93f4:	e8bd8070 	pop	{r4, r5, r6, pc}
    93f8:	cccccccd 	stclgt	12, cr12, [ip], {205}	; 0xcd

000093fc <gpio_set_output>:
    93fc:	e92d4010 	push	{r4, lr}
    9400:	e3a01001 	mov	r1, #1
    9404:	ebffffe2 	bl	9394 <gpio_set_function>
    9408:	e8bd8010 	pop	{r4, pc}

0000940c <gpio_set_on>:
    940c:	e350001f 	cmp	r0, #31
    9410:	812fff1e 	bxhi	lr
    9414:	e92d4010 	push	{r4, lr}
    9418:	e3a01001 	mov	r1, #1
    941c:	e1a01011 	lsl	r1, r1, r0
    9420:	e59f0004 	ldr	r0, [pc, #4]	; 942c <gpio_set_on+0x20>
    9424:	ebffff6b 	bl	91d8 <PUT32>
    9428:	e8bd8010 	pop	{r4, pc}
    942c:	2020001c 	eorcs	r0, r0, ip, lsl r0

00009430 <gpio_set_off>:
    9430:	e350001f 	cmp	r0, #31
    9434:	812fff1e 	bxhi	lr
    9438:	e92d4010 	push	{r4, lr}
    943c:	e3a01001 	mov	r1, #1
    9440:	e1a01011 	lsl	r1, r1, r0
    9444:	e59f0004 	ldr	r0, [pc, #4]	; 9450 <gpio_set_off+0x20>
    9448:	ebffff62 	bl	91d8 <PUT32>
    944c:	e8bd8010 	pop	{r4, pc}
    9450:	20200028 	eorcs	r0, r0, r8, lsr #32

00009454 <gpio_set_input>:
    9454:	e92d4010 	push	{r4, lr}
    9458:	e3a01000 	mov	r1, #0
    945c:	ebffffcc 	bl	9394 <gpio_set_function>
    9460:	e8bd8010 	pop	{r4, pc}

00009464 <gpio_write>:
    9464:	e92d4010 	push	{r4, lr}
    9468:	e3510000 	cmp	r1, #0
    946c:	1a000001 	bne	9478 <gpio_write+0x14>
    9470:	ebffffee 	bl	9430 <gpio_set_off>
    9474:	e8bd8010 	pop	{r4, pc}
    9478:	ebffffe3 	bl	940c <gpio_set_on>
    947c:	e8bd8010 	pop	{r4, pc}

00009480 <gpio_read>:
    9480:	e350001f 	cmp	r0, #31
    9484:	8a000007 	bhi	94a8 <gpio_read+0x28>
    9488:	e92d4010 	push	{r4, lr}
    948c:	e200401f 	and	r4, r0, #31
    9490:	e59f3018 	ldr	r3, [pc, #24]	; 94b0 <gpio_read+0x30>
    9494:	e08302a0 	add	r0, r3, r0, lsr #5
    9498:	ebffff5a 	bl	9208 <GET32>
    949c:	e1a00430 	lsr	r0, r0, r4
    94a0:	e2000001 	and	r0, r0, #1
    94a4:	e8bd8010 	pop	{r4, pc}
    94a8:	e3e00000 	mvn	r0, #0
    94ac:	e12fff1e 	bx	lr
    94b0:	20200034 	eorcs	r0, r0, r4, lsr r0

000094b4 <kmalloc_heap_end>:
    94b4:	e59f3004 	ldr	r3, [pc, #4]	; 94c0 <kmalloc_heap_end+0xc>
    94b8:	e5930000 	ldr	r0, [r3]
    94bc:	e12fff1e 	bx	lr
    94c0:	0000966c 	andeq	r9, r0, ip, ror #12

000094c4 <kmalloc_heap_start>:
    94c4:	e59f0000 	ldr	r0, [pc]	; 94cc <kmalloc_heap_start+0x8>
    94c8:	e12fff1e 	bx	lr
    94cc:	0000a158 	andeq	sl, r0, r8, asr r1

000094d0 <kmalloc_init_set_start>:
    94d0:	e59f3038 	ldr	r3, [pc, #56]	; 9510 <kmalloc_init_set_start+0x40>
    94d4:	e5933000 	ldr	r3, [r3]
    94d8:	e1500003 	cmp	r0, r3
    94dc:	9a000003 	bls	94f0 <kmalloc_init_set_start+0x20>
    94e0:	e59f3028 	ldr	r3, [pc, #40]	; 9510 <kmalloc_init_set_start+0x40>
    94e4:	e5830000 	str	r0, [r3]
    94e8:	e5830004 	str	r0, [r3, #4]
    94ec:	e12fff1e 	bx	lr
    94f0:	e92d4010 	push	{r4, lr}
    94f4:	ebfffd6b 	bl	8aa8 <rpi_reset_putc>
    94f8:	e3a03016 	mov	r3, #22
    94fc:	e59f2010 	ldr	r2, [pc, #16]	; 9514 <kmalloc_init_set_start+0x44>
    9500:	e59f1010 	ldr	r1, [pc, #16]	; 9518 <kmalloc_init_set_start+0x48>
    9504:	e59f0010 	ldr	r0, [pc, #16]	; 951c <kmalloc_init_set_start+0x4c>
    9508:	ebfffd4b 	bl	8a3c <printk>
    950c:	ebfffed9 	bl	9078 <clean_reboot>
    9510:	0000966c 	andeq	r9, r0, ip, ror #12
    9514:	00009c28 	andeq	r9, r0, r8, lsr #24
    9518:	00009c58 	andeq	r9, r0, r8, asr ip
    951c:	00009c64 	andeq	r9, r0, r4, ror #24

00009520 <kmalloc>:
    9520:	e92d4010 	push	{r4, lr}
    9524:	e3500000 	cmp	r0, #0
    9528:	0a00000a 	beq	9558 <kmalloc+0x38>
    952c:	e2802007 	add	r2, r0, #7
    9530:	e3c22007 	bic	r2, r2, #7
    9534:	e59f3038 	ldr	r3, [pc, #56]	; 9574 <kmalloc+0x54>
    9538:	e5934000 	ldr	r4, [r3]
    953c:	e0841002 	add	r1, r4, r2
    9540:	e5831000 	str	r1, [r3]
    9544:	e3a01000 	mov	r1, #0
    9548:	e1a00004 	mov	r0, r4
    954c:	ebfffd32 	bl	8a1c <memset>
    9550:	e1a00004 	mov	r0, r4
    9554:	e8bd8010 	pop	{r4, pc}
    9558:	ebfffd52 	bl	8aa8 <rpi_reset_putc>
    955c:	e3a0301b 	mov	r3, #27
    9560:	e59f2010 	ldr	r2, [pc, #16]	; 9578 <kmalloc+0x58>
    9564:	e59f1010 	ldr	r1, [pc, #16]	; 957c <kmalloc+0x5c>
    9568:	e59f0010 	ldr	r0, [pc, #16]	; 9580 <kmalloc+0x60>
    956c:	ebfffd32 	bl	8a3c <printk>
    9570:	ebfffec0 	bl	9078 <clean_reboot>
    9574:	0000966c 	andeq	r9, r0, ip, ror #12
    9578:	00009c40 	andeq	r9, r0, r0, asr #24
    957c:	00009c58 	andeq	r9, r0, r8, asr ip
    9580:	00009c80 	andeq	r9, r0, r0, lsl #25

00009584 <kmalloc_init>:
    9584:	e12fff1e 	bx	lr

00009588 <kmalloc_heap_ptr>:
    9588:	e92d4010 	push	{r4, lr}
    958c:	ebffffcc 	bl	94c4 <kmalloc_heap_start>
    9590:	e8bd8010 	pop	{r4, pc}

00009594 <kmalloc_aligned>:
    9594:	e92d4010 	push	{r4, lr}
    9598:	e2613000 	rsb	r3, r1, #0
    959c:	e1d12003 	bics	r2, r1, r3
    95a0:	1a00000b 	bne	95d4 <kmalloc_aligned+0x40>
    95a4:	e59f2060 	ldr	r2, [pc, #96]	; 960c <kmalloc_aligned+0x78>
    95a8:	e5922000 	ldr	r2, [r2]
    95ac:	e0812002 	add	r2, r1, r2
    95b0:	e2422001 	sub	r2, r2, #1
    95b4:	e0033002 	and	r3, r3, r2
    95b8:	e2411001 	sub	r1, r1, #1
    95bc:	e1130001 	tst	r3, r1
    95c0:	1a00000a 	bne	95f0 <kmalloc_aligned+0x5c>
    95c4:	e59f2040 	ldr	r2, [pc, #64]	; 960c <kmalloc_aligned+0x78>
    95c8:	e5823000 	str	r3, [r2]
    95cc:	ebffffd3 	bl	9520 <kmalloc>
    95d0:	e8bd8010 	pop	{r4, pc}
    95d4:	ebfffd33 	bl	8aa8 <rpi_reset_putc>
    95d8:	e3a0302a 	mov	r3, #42	; 0x2a
    95dc:	e59f202c 	ldr	r2, [pc, #44]	; 9610 <kmalloc_aligned+0x7c>
    95e0:	e59f102c 	ldr	r1, [pc, #44]	; 9614 <kmalloc_aligned+0x80>
    95e4:	e59f002c 	ldr	r0, [pc, #44]	; 9618 <kmalloc_aligned+0x84>
    95e8:	ebfffd13 	bl	8a3c <printk>
    95ec:	ebfffea1 	bl	9078 <clean_reboot>
    95f0:	ebfffd2c 	bl	8aa8 <rpi_reset_putc>
    95f4:	e3a03030 	mov	r3, #48	; 0x30
    95f8:	e59f2010 	ldr	r2, [pc, #16]	; 9610 <kmalloc_aligned+0x7c>
    95fc:	e59f1010 	ldr	r1, [pc, #16]	; 9614 <kmalloc_aligned+0x80>
    9600:	e59f0014 	ldr	r0, [pc, #20]	; 961c <kmalloc_aligned+0x88>
    9604:	ebfffd0c 	bl	8a3c <printk>
    9608:	ebfffe9a 	bl	9078 <clean_reboot>
    960c:	0000966c 	andeq	r9, r0, ip, ror #12
    9610:	00009c48 	andeq	r9, r0, r8, asr #24
    9614:	00009c58 	andeq	r9, r0, r8, asr ip
    9618:	00009c94 	muleq	r0, r4, ip
    961c:	00009cf4 	strdeq	r9, [r0], -r4

00009620 <kfree>:
    9620:	e12fff1e 	bx	lr

00009624 <kfree_all>:
    9624:	e59f3008 	ldr	r3, [pc, #8]	; 9634 <kfree_all+0x10>
    9628:	e5932004 	ldr	r2, [r3, #4]
    962c:	e5832000 	str	r2, [r3]
    9630:	e12fff1e 	bx	lr
    9634:	0000966c 	andeq	r9, r0, ip, ror #12

00009638 <kfree_after>:
    9638:	e59f3004 	ldr	r3, [pc, #4]	; 9644 <kfree_after+0xc>
    963c:	e5830000 	str	r0, [r3]
    9640:	e12fff1e 	bx	lr
    9644:	0000966c 	andeq	r9, r0, ip, ror #12

00009648 <dev_barrier>:
    9648:	ea000002 	b	9658 <dsb>

0000964c <dmb>:
    964c:	e3a00000 	mov	r0, #0
    9650:	ee070fba 	mcr	15, 0, r0, cr7, cr10, {5}
    9654:	e12fff1e 	bx	lr

00009658 <dsb>:
    9658:	ee070f9a 	mcr	15, 0, r0, cr7, cr10, {4}
    965c:	e12fff1e 	bx	lr

Disassembly of section .data:

00009660 <rpi_putchar>:
    9660:	00008a94 	muleq	r0, r4, sl

00009664 <putk>:
    9664:	00008ad0 	ldrdeq	r8, [r0], -r0

00009668 <lfsr>:
    9668:	0000ace1 	andeq	sl, r0, r1, ror #25

0000966c <heap>:
    966c:	0000a158 	andeq	sl, r0, r8, asr r1

00009670 <heap_start>:
    9670:	0000a158 	andeq	sl, r0, r8, asr r1

Disassembly of section .rodata:

00009674 <__FUNCTION__.4229>:
    9674:	6d746f6e 	ldclvs	15, cr6, [r4, #-440]!	; 0xfffffe48
    9678:	006e6961 	rsbeq	r6, lr, r1, ror #18
    967c:	74736574 	ldrbtvc	r6, [r3], #-1396	; 0x574
    9680:	75203a34 	strvc	r3, [r0, #-2612]!	; 0xa34
    9684:	61206573 	teqvs	r0, r3, ror r5
    9688:	72657466 	rsbvc	r7, r5, #1711276032	; 0x66000000
    968c:	65726620 	ldrbvs	r6, [r2, #-1568]!	; 0x620
    9690:	00000a65 	andeq	r0, r0, r5, ror #20
    9694:	74726170 	ldrbtvc	r6, [r2], #-368	; 0x170
    9698:	65742d31 	ldrbvs	r2, [r4, #-3377]!	; 0xd31
    969c:	2e367473 	mrccs	4, 1, r7, cr6, cr3, {3}
    96a0:	00000063 	andeq	r0, r0, r3, rrx
    96a4:	494e4150 	stmdbmi	lr, {r4, r6, r8, lr}^
    96a8:	73253a43 	teqvc	r5, #274432	; 0x43000
    96ac:	3a73253a 	bcc	1cd2b9c <__bss_end__+0x1cc8a44>
    96b0:	693a6425 	ldmdbvs	sl!, {r0, r2, r5, sl, sp, lr}
    96b4:	6c61766e 	stclvs	6, cr7, [r1], #-440	; 0xfffffe48
    96b8:	65206469 	strvs	r6, [r0, #-1129]!	; 0x469
    96bc:	726f7272 	rsbvc	r7, pc, #536870919	; 0x20000007
    96c0:	0a0a2121 	beq	291b4c <__bss_end__+0x2879f4>
    96c4:	00000000 	andeq	r0, r0, r0
    96c8:	43415254 	movtmi	r5, #4692	; 0x1254
    96cc:	00003a45 	andeq	r3, r0, r5, asr #20
    96d0:	43435553 	movtmi	r5, #13651	; 0x3553
    96d4:	20535345 	subscs	r5, r3, r5, asr #6
    96d8:	70616568 	rsbvc	r6, r1, r8, ror #10
    96dc:	65686320 	strbvs	r6, [r8, #-800]!	; 0x320
    96e0:	64656b63 	strbtvs	r6, [r5], #-2915	; 0xb63
    96e4:	74756f20 	ldrbtvc	r6, [r5], #-3872	; 0xf20
    96e8:	0000000a 	andeq	r0, r0, sl
    96ec:	72726f63 	rsbsvc	r6, r2, #396	; 0x18c
    96f0:	69747075 	ldmdbvs	r4!, {r0, r2, r4, r5, r6, ip, sp, lr}^
    96f4:	2520676e 	strcs	r6, [r0, #-1902]!	; 0x76e
    96f8:	74612070 	strbtvc	r2, [r1], #-112	; 0x70
    96fc:	66666f20 	strbtvs	r6, [r6], -r0, lsr #30
    9700:	20746573 	rsbscs	r6, r4, r3, ror r5
    9704:	28206425 	stmdacs	r0!, {r0, r2, r5, sl, sp, lr}
    9708:	0a297025 	beq	a657a4 <__bss_end__+0xa5b64c>
    970c:	00000000 	andeq	r0, r0, r0
    9710:	494e4150 	stmdbmi	lr, {r4, r6, r8, lr}^
    9714:	73253a43 	teqvc	r5, #274432	; 0x43000
    9718:	3a73253a 	bcc	1cd2c08 <__bss_end__+0x1cc8ab0>
    971c:	6d3a6425 	cfldrsvs	mvf6, [sl, #-148]!	; 0xffffff6c
    9720:	65737369 	ldrbvs	r7, [r3, #-873]!	; 0x369
    9724:	72652064 	rsbvc	r2, r5, #100	; 0x64
    9728:	21726f72 	cmncs	r2, r2, ror pc
    972c:	00000a0a 	andeq	r0, r0, sl, lsl #20
    9730:	43435553 	movtmi	r5, #13651	; 0x3553
    9734:	20535345 	subscs	r5, r3, r5, asr #6
    9738:	6e756f66 	cdpvs	15, 7, cr6, cr5, cr6, {3}
    973c:	72652064 	rsbvc	r2, r5, #100	; 0x64
    9740:	0a726f72 	beq	1ca5510 <__bss_end__+0x1c9b3b8>
    9744:	00000000 	andeq	r0, r0, r0

00009748 <__FUNCTION__.4252>:
    9748:	63656863 	cmnvs	r5, #6488064	; 0x630000
    974c:	64685f6b 	strbtvs	r5, [r8], #-3947	; 0xf6b
    9750:	00000072 	andeq	r0, r0, r2, ror r0

00009754 <__FUNCTION__.4227>:
    9754:	695f6b63 	ldmdbvs	pc, {r0, r1, r5, r6, r8, r9, fp, sp, lr}^	; <UNPREDICTABLE>
    9758:	0074696e 	rsbseq	r6, r4, lr, ror #18

0000975c <__FUNCTION__.4278>:
    975c:	72666b63 	rsbvc	r6, r6, #101376	; 0x18c00
    9760:	00006565 	andeq	r6, r0, r5, ror #10

00009764 <__FUNCTION__.4287>:
    9764:	6c616b63 	stclvs	11, cr6, [r1], #-396	; 0xfffffe74
    9768:	00636f6c 	rsbeq	r6, r3, ip, ror #30
    976c:	4f525245 	svcmi	0x00525245
    9770:	00003a52 	andeq	r3, r0, r2, asr sl
    9774:	636f6c62 	cmnvs	pc, #25088	; 0x6200
    9778:	7025206b 	eorvc	r2, r5, fp, rrx
    977c:	726f6320 	rsbvc	r6, pc, #32, 6	; 0x80000000
    9780:	74707572 	ldrbtvc	r7, [r0], #-1394	; 0x572
    9784:	61206465 	teqvs	r0, r5, ror #8
    9788:	666f2074 			; <UNDEFINED> instruction: 0x666f2074
    978c:	74657366 	strbtvc	r7, [r5], #-870	; 0x366
    9790:	0a642520 	beq	1912c18 <__bss_end__+0x1908ac0>
    9794:	00000000 	andeq	r0, r0, r0
    9798:	79626e09 	stmdbvc	r2!, {r0, r3, r9, sl, fp, sp, lr}^
    979c:	3d736574 	cfldr64cc	mvdx6, [r3, #-464]!	; 0xfffffe30
    97a0:	000a6425 	andeq	r6, sl, r5, lsr #8
    97a4:	6f6c4209 	svcvs	0x006c4209
    97a8:	61206b63 	teqvs	r0, r3, ror #22
    97ac:	636f6c6c 	cmnvs	pc, #108, 24	; 0x6c00
    97b0:	64657461 	strbtvs	r7, [r5], #-1121	; 0x461
    97b4:	3a746120 	bcc	1d21c3c <__bss_end__+0x1d17ae4>
    97b8:	3a732520 	bcc	1cd2c40 <__bss_end__+0x1cc8ae8>
    97bc:	253a7325 	ldrcs	r7, [sl, #-805]!	; 0x325
    97c0:	00000a64 	andeq	r0, r0, r4, ror #20
    97c4:	6f6c4209 	svcvs	0x006c4209
    97c8:	66206b63 	strtvs	r6, [r0], -r3, ror #22
    97cc:	64656572 	strbtvs	r6, [r5], #-1394	; 0x572
    97d0:	3a746120 	bcc	1d21c58 <__bss_end__+0x1d17b00>
    97d4:	3a732520 	bcc	1cd2c5c <__bss_end__+0x1cc8b04>
    97d8:	253a7325 	ldrcs	r7, [sl, #-805]!	; 0x325
    97dc:	00000a64 	andeq	r0, r0, r4, ror #20
    97e0:	5f726468 	svcpl	0x00726468
    97e4:	75736b63 	ldrbvc	r6, [r3, #-2915]!	; 0xb63
    97e8:	61765f6d 	cmnvs	r6, sp, ror #30
    97ec:	203d206c 	eorscs	r2, sp, ip, rrx
    97f0:	000a7825 	andeq	r7, sl, r5, lsr #16
    97f4:	633e2d68 	teqvs	lr, #104, 26	; 0x1a00
    97f8:	6d75736b 	ldclvs	3, cr7, [r5, #-428]!	; 0xfffffe54
    97fc:	25203d20 	strcs	r3, [r0, #-3360]!	; 0xd20
    9800:	00000a78 	andeq	r0, r0, r8, ror sl
    9804:	494e4150 	stmdbmi	lr, {r4, r6, r8, lr}^
    9808:	73253a43 	teqvc	r5, #274432	; 0x43000
    980c:	3a73253a 	bcc	1cd2cfc <__bss_end__+0x1cc8ba4>
    9810:	683a6425 	ldmdavs	sl!, {r0, r2, r5, sl, sp, lr}
    9814:	635f7264 	cmpvs	pc, #100, 4	; 0x40000006
    9818:	6d75736b 	ldclvs	3, cr7, [r5, #-428]!	; 0xfffffe54
    981c:	6c61765f 	stclvs	6, cr7, [r1], #-380	; 0xfffffe84
    9820:	203d3d20 	eorscs	r3, sp, r0, lsr #26
    9824:	633e2d68 	teqvs	lr, #104, 26	; 0x1a00
    9828:	6d75736b 	ldclvs	3, cr7, [r5, #-428]!	; 0xfffffe54
    982c:	0000000a 	andeq	r0, r0, sl
    9830:	6c616b63 	stclvs	11, cr6, [r1], #-396	; 0xfffffe74
    9834:	2e636f6c 	cdpcs	15, 6, cr6, cr3, cr12, {3}
    9838:	00000063 	andeq	r0, r0, r3, rrx
    983c:	494e4150 	stmdbmi	lr, {r4, r6, r8, lr}^
    9840:	73253a43 	teqvc	r5, #274432	; 0x43000
    9844:	3a73253a 	bcc	1cd2d34 <__bss_end__+0x1cc8bdc>
    9848:	683a6425 	ldmdavs	sl!, {r0, r2, r5, sl, sp, lr}
    984c:	74733e2d 	ldrbtvc	r3, [r3], #-3629	; 0xe2d
    9850:	20657461 	rsbcs	r7, r5, r1, ror #8
    9854:	41203d3d 	teqmi	r0, sp, lsr sp
    9858:	434f4c4c 	movtmi	r4, #64588	; 0xfc4c
    985c:	7c204445 	cfstrsvc	mvf4, [r0], #-276	; 0xfffffeec
    9860:	2d68207c 	stclcs	0, cr2, [r8, #-496]!	; 0xfffffe10
    9864:	6174733e 	cmnvs	r4, lr, lsr r3
    9868:	3d206574 	cfstr32cc	mvfx6, [r0, #-464]!	; 0xfffffe30
    986c:	5246203d 	subpl	r2, r6, #61	; 0x3d
    9870:	0a444545 	beq	111ad8c <__bss_end__+0x1110c34>
    9874:	00000000 	andeq	r0, r0, r0
    9878:	494e4150 	stmdbmi	lr, {r4, r6, r8, lr}^
    987c:	73253a43 	teqvc	r5, #274432	; 0x43000
    9880:	3a73253a 	bcc	1cd2d70 <__bss_end__+0x1cc8c18>
    9884:	613a6425 	teqvs	sl, r5, lsr #8
    9888:	6e67696c 	cdpvs	9, 6, cr6, cr7, cr12, {3}
    988c:	68286465 	stmdavs	r8!, {r0, r2, r5, r6, sl, sp, lr}
    9890:	5f706165 	svcpl	0x00706165
    9894:	72617473 	rsbvc	r7, r1, #1929379840	; 0x73000000
    9898:	38202c74 	stmdacc	r0!, {r2, r4, r5, r6, sl, fp, sp}
    989c:	00000a29 	andeq	r0, r0, r9, lsr #20
    98a0:	657a6973 	ldrbvs	r6, [sl, #-2419]!	; 0x973
    98a4:	6820666f 	stmdavs	r0!, {r0, r1, r2, r3, r5, r6, r9, sl, sp, lr}
    98a8:	253d7264 	ldrcs	r7, [sp, #-612]!	; 0x264
    98ac:	72202c64 	eorvc	r2, r0, #100, 24	; 0x6400
    98b0:	6f7a6465 	svcvs	0x007a6465
    98b4:	253d656e 	ldrcs	r6, [sp, #-1390]!	; 0x56e
    98b8:	00000a64 	andeq	r0, r0, r4, ror #20
    98bc:	4f525245 	svcmi	0x00525245
    98c0:	73253a52 	teqvc	r5, #335872	; 0x52000
    98c4:	3a73253a 	bcc	1cd2db4 <__bss_end__+0x1cc8c5c>
    98c8:	203a6425 	eorscs	r6, sl, r5, lsr #8
    98cc:	534c4146 	movtpl	r4, #49478	; 0xc146
    98d0:	683c2845 	ldmdavs	ip!, {r0, r2, r6, fp, sp}
    98d4:	3e706165 	rpwccsz	f6, f0, f5
    98d8:	6e203a29 	vmulvs.f32	s6, s0, s19
    98dc:	6920746f 	stmdbvs	r0!, {r0, r1, r2, r3, r5, r6, sl, ip, sp, lr}
    98e0:	6974696e 	ldmdbvs	r4!, {r1, r2, r3, r5, r6, r8, fp, sp, lr}^
    98e4:	7a696c61 	bvc	1a64a70 <__bss_end__+0x1a5a918>
    98e8:	0a3f6465 	beq	fe2a84 <__bss_end__+0xfd892c>
    98ec:	00000000 	andeq	r0, r0, r0
    98f0:	65657266 	strbvs	r7, [r5, #-614]!	; 0x266
    98f4:	20676e69 	rsbcs	r6, r7, r9, ror #28
    98f8:	000a7025 	andeq	r7, sl, r5, lsr #32
    98fc:	6f6c6c61 	svcvs	0x006c6c61
    9900:	69746163 	ldmdbvs	r4!, {r0, r1, r5, r6, r8, sp, lr}^
    9904:	2520676e 	strcs	r6, [r0, #-1902]!	; 0x76e
    9908:	79622064 	stmdbvc	r2!, {r2, r5, r6, sp}^
    990c:	0a736574 	beq	1ce2ee4 <__bss_end__+0x1cd8d8c>
    9910:	00000000 	andeq	r0, r0, r0
    9914:	43415254 	movtmi	r5, #4692	; 0x1254
    9918:	52453a45 	subpl	r3, r5, #282624	; 0x45000
    991c:	00524f52 	subseq	r4, r2, r2, asr pc
    9920:	657a6973 	ldrbvs	r6, [sl, #-2419]!	; 0x973
    9924:	65766f20 	ldrbvs	r6, [r6, #-3872]!	; 0xf20
    9928:	6f6c6672 	svcvs	0x006c6672
    992c:	3a646577 	bcc	1922f10 <__bss_end__+0x1918db8>
    9930:	20642520 	rsbcs	r2, r4, r0, lsr #10
    9934:	65747962 	ldrbvs	r7, [r4, #-2402]!	; 0x962
    9938:	73692073 	cmnvc	r9, #115	; 0x73
    993c:	6f6f7420 	svcvs	0x006f7420
    9940:	72616c20 	rsbvc	r6, r1, #32, 24	; 0x2000
    9944:	000a6567 	andeq	r6, sl, r7, ror #10
    9948:	494e4150 	stmdbmi	lr, {r4, r6, r8, lr}^
    994c:	73253a43 	teqvc	r5, #274432	; 0x43000
    9950:	3a73253a 	bcc	1cd2e40 <__bss_end__+0x1cc8ce8>
    9954:	733a6425 	teqvc	sl, #620756992	; 0x25000000
    9958:	20657a69 	rsbcs	r7, r5, r9, ror #20
    995c:	7265766f 	rsbvc	r7, r5, #116391936	; 0x6f00000
    9960:	776f6c66 	strbvc	r6, [pc, -r6, ror #24]!
    9964:	203a6465 	eorscs	r6, sl, r5, ror #8
    9968:	62206425 	eorvs	r6, r0, #620756992	; 0x25000000
    996c:	73657479 	cmnvc	r5, #2030043136	; 0x79000000
    9970:	20736920 	rsbscs	r6, r3, r0, lsr #18
    9974:	206f6f74 	rsbcs	r6, pc, r4, ror pc	; <UNPREDICTABLE>
    9978:	6772616c 	ldrbvs	r6, [r2, -ip, ror #2]!
    997c:	000a0a65 	andeq	r0, sl, r5, ror #20
    9980:	2074756f 	rsbscs	r7, r4, pc, ror #10
    9984:	6d20666f 	stcvs	6, cr6, [r0, #-444]!	; 0xfffffe44
    9988:	726f6d65 	rsbvc	r6, pc, #6464	; 0x1940
    998c:	20202179 	eorcs	r2, r0, r9, ror r1
    9990:	65766168 	ldrbvs	r6, [r6, #-360]!	; 0x168
    9994:	6c6e6f20 	stclvs	15, cr6, [lr], #-128	; 0xffffff80
    9998:	64252079 	strtvs	r2, [r5], #-121	; 0x79
    999c:	66656c20 	strbtvs	r6, [r5], -r0, lsr #24
    99a0:	6e202c74 	mcrvs	12, 1, r2, cr0, cr4, {3}
    99a4:	20646565 	rsbcs	r6, r4, r5, ror #10
    99a8:	000a6425 	andeq	r6, sl, r5, lsr #8
    99ac:	494e4150 	stmdbmi	lr, {r4, r6, r8, lr}^
    99b0:	73253a43 	teqvc	r5, #274432	; 0x43000
    99b4:	3a73253a 	bcc	1cd2ea4 <__bss_end__+0x1cc8d4c>
    99b8:	6f3a6425 	svcvs	0x003a6425
    99bc:	6f207475 	svcvs	0x00207475
    99c0:	656d2066 	strbvs	r2, [sp, #-102]!	; 0x66
    99c4:	79726f6d 	ldmdbvc	r2!, {r0, r2, r3, r5, r6, r8, r9, sl, fp, sp, lr}^
    99c8:	68202021 	stmdavs	r0!, {r0, r5, sp}
    99cc:	20657661 	rsbcs	r7, r5, r1, ror #12
    99d0:	796c6e6f 	stmdbvc	ip!, {r0, r1, r2, r3, r5, r6, r9, sl, fp, sp, lr}^
    99d4:	20642520 	rsbcs	r2, r4, r0, lsr #10
    99d8:	7466656c 	strbtvc	r6, [r6], #-1388	; 0x56c
    99dc:	656e202c 	strbvs	r2, [lr, #-44]!	; 0x2c
    99e0:	25206465 	strcs	r6, [r0, #-1125]!	; 0x465
    99e4:	000a0a64 	andeq	r0, sl, r4, ror #20
    99e8:	494e4150 	stmdbmi	lr, {r4, r6, r8, lr}^
    99ec:	73253a43 	teqvc	r5, #274432	; 0x43000
    99f0:	3a73253a 	bcc	1cd2ee0 <__bss_end__+0x1cc8d88>
    99f4:	633a6425 	teqvs	sl, #620756992	; 0x25000000
    99f8:	6b636568 	blvs	18e2fa0 <__bss_end__+0x18d8e48>
    99fc:	7264685f 	rsbvc	r6, r4, #6225920	; 0x5f0000
    9a00:	0a296828 	beq	a63aa8 <__bss_end__+0xa59950>
    9a04:	00000000 	andeq	r0, r0, r0
    9a08:	494e4150 	stmdbmi	lr, {r4, r6, r8, lr}^
    9a0c:	73253a43 	teqvc	r5, #274432	; 0x43000
    9a10:	3a73253a 	bcc	1cd2f00 <__bss_end__+0x1cc8da8>
    9a14:	633a6425 	teqvs	sl, #620756992	; 0x25000000
    9a18:	6b636568 	blvs	18e2fc0 <__bss_end__+0x18d8e68>
    9a1c:	6f6c625f 	svcvs	0x006c625f
    9a20:	68286b63 	stmdavs	r8!, {r0, r1, r5, r6, r8, r9, fp, sp, lr}
    9a24:	00000a29 	andeq	r0, r0, r9, lsr #20
    9a28:	6c616b63 	stclvs	11, cr6, [r1], #-396	; 0xfffffe74
    9a2c:	3a636f6c 	bcc	18e57e4 <__bss_end__+0x18db68c>
    9a30:	6f6c6c61 	svcvs	0x006c6c61
    9a34:	65746163 	ldrbvs	r6, [r4, #-355]!	; 0x163
    9a38:	64252064 	strtvs	r2, [r5], #-100	; 0x64
    9a3c:	74796220 	ldrbtvc	r6, [r9], #-544	; 0x220
    9a40:	202c7365 	eorcs	r7, ip, r5, ror #6
    9a44:	746f7428 	strbtvc	r7, [pc], #-1064	; 9a4c <__FUNCTION__.4287+0x2e8>
    9a48:	253d6c61 	ldrcs	r6, [sp, #-3169]!	; 0xc61
    9a4c:	202c2964 	eorcs	r2, ip, r4, ror #18
    9a50:	3d727470 	cfldrdcc	mvd7, [r2, #-448]!	; 0xfffffe40
    9a54:	000a7025 	andeq	r7, sl, r5, lsr #32
    9a58:	6e696f67 	cdpvs	15, 6, cr6, cr9, cr7, {3}
    9a5c:	6f742067 	svcvs	0x00742067
    9a60:	65686320 	strbvs	r6, [r8, #-800]!	; 0x320
    9a64:	68206b63 	stmdavs	r0!, {r0, r1, r5, r6, r8, r9, fp, sp, lr}
    9a68:	3a706165 	bcc	1c22004 <__bss_end__+0x1c17eac>
    9a6c:	20642520 	rsbcs	r2, r4, r0, lsr #10
    9a70:	65747962 	ldrbvs	r7, [r4, #-2402]!	; 0x962
    9a74:	6c612073 	stclvs	0, cr2, [r1], #-460	; 0xfffffe34
    9a78:	61636f6c 	cmnvs	r3, ip, ror #30
    9a7c:	2c646574 	cfstr64cs	mvdx6, [r4], #-464	; 0xfffffe30
    9a80:	20642520 	rsbcs	r2, r4, r0, lsr #10
    9a84:	65747962 	ldrbvs	r7, [r4, #-2402]!	; 0x962
    9a88:	656c2073 	strbvs	r2, [ip, #-115]!	; 0x73
    9a8c:	000a7466 	andeq	r7, sl, r6, ror #8
    9a90:	64616568 	strbtvs	r6, [r1], #-1384	; 0x568
    9a94:	69207265 	stmdbvs	r0!, {r0, r2, r5, r6, r9, ip, sp, lr}
    9a98:	6f632073 	svcvs	0x00632073
    9a9c:	70757272 	rsbsvc	r7, r5, r2, ror r2
    9aa0:	00646574 	rsbeq	r6, r4, r4, ror r5
    9aa4:	6f725709 	svcvs	0x00725709
    9aa8:	62206574 	eorvs	r6, r0, #116, 10	; 0x1d000000
    9aac:	6b636f6c 	blvs	18e5864 <__bss_end__+0x18db70c>
    9ab0:	74666120 	strbtvc	r6, [r6], #-288	; 0x120
    9ab4:	66207265 	strtvs	r7, [r0], -r5, ror #4
    9ab8:	21656572 	smccs	22098	; 0x5652
    9abc:	0000000a 	andeq	r0, r0, sl
    9ac0:	63656863 	cmnvs	r5, #6488064	; 0x630000
    9ac4:	2064656b 	rsbcs	r6, r4, fp, ror #10
    9ac8:	62206425 	eorvs	r6, r0, #620756992	; 0x25000000
    9acc:	6b636f6c 	blvs	18e5884 <__bss_end__+0x18db72c>
    9ad0:	64202c73 	strtvs	r2, [r0], #-3187	; 0xc73
    9ad4:	63657465 	cmnvs	r5, #1694498816	; 0x65000000
    9ad8:	20646574 	rsbcs	r6, r4, r4, ror r5
    9adc:	65206425 	strvs	r6, [r0, #-1061]!	; 0x425
    9ae0:	726f7272 	rsbvc	r7, pc, #536870919	; 0x20000007
    9ae4:	00000a73 	andeq	r0, r0, r3, ror sl
    9ae8:	43435553 	movtmi	r5, #13651	; 0x3553
    9aec:	3a535345 	bcc	14de808 <__bss_end__+0x14d46b0>
    9af0:	65686320 	strbvs	r6, [r8, #-800]!	; 0x320
    9af4:	64656b63 	strbtvs	r6, [r5], #-2915	; 0xb63
    9af8:	20642520 	rsbcs	r2, r4, r0, lsr #10
    9afc:	636f6c62 	cmnvs	pc, #25088	; 0x6200
    9b00:	202c736b 	eorcs	r7, ip, fp, ror #6
    9b04:	65746564 	ldrbvs	r6, [r4, #-1380]!	; 0x564
    9b08:	64657463 	strbtvs	r7, [r5], #-1123	; 0x463
    9b0c:	206f6e20 	rsbcs	r6, pc, r0, lsr #28
    9b10:	6f727265 	svcvs	0x00727265
    9b14:	000a7372 	andeq	r7, sl, r2, ror r3

00009b18 <__FUNCTION__.4237>:
    9b18:	74696d65 	strbtvc	r6, [r9], #-3429	; 0xd65
    9b1c:	00000000 	andeq	r0, r0, r0

00009b20 <__FUNCTION__.4185>:
    9b20:	5f697072 	svcpl	0x00697072
    9b24:	5f746573 	svcpl	0x00746573
    9b28:	7074756f 	rsbsvc	r7, r4, pc, ror #10
    9b2c:	00007475 	andeq	r7, r0, r5, ror r4

00009b30 <__FUNCTION__.4259>:
    9b30:	705f6176 	subsvc	r6, pc, r6, ror r1	; <UNPREDICTABLE>
    9b34:	746e6972 	strbtvc	r6, [lr], #-2418	; 0x972
    9b38:	0000006b 	andeq	r0, r0, fp, rrx
    9b3c:	494e4150 	stmdbmi	lr, {r4, r6, r8, lr}^
    9b40:	73253a43 	teqvc	r5, #274432	; 0x43000
    9b44:	3a73253a 	bcc	1cd3034 <__bss_end__+0x1cc8edc>
    9b48:	303a6425 	eorscc	r6, sl, r5, lsr #8
    9b4c:	0000000a 	andeq	r0, r0, sl
    9b50:	6362696c 	cmnvs	r2, #108, 18	; 0x1b0000
    9b54:	2d61762f 	stclcs	6, cr7, [r1, #-188]!	; 0xffffff44
    9b58:	6e697270 	mcrvs	2, 3, r7, cr9, cr0, {3}
    9b5c:	632e6b74 	teqvs	lr, #116, 22	; 0x1d000
    9b60:	00000000 	andeq	r0, r0, r0
    9b64:	33323130 	teqcc	r2, #48, 2
    9b68:	37363534 			; <UNDEFINED> instruction: 0x37363534
    9b6c:	00003938 	andeq	r3, r0, r8, lsr r9
    9b70:	33323130 	teqcc	r2, #48, 2
    9b74:	37363534 			; <UNDEFINED> instruction: 0x37363534
    9b78:	62613938 	rsbvs	r3, r1, #56, 18	; 0xe0000
    9b7c:	66656463 	strbtvs	r6, [r5], -r3, ror #8
    9b80:	00000000 	andeq	r0, r0, r0
    9b84:	00003130 	andeq	r3, r0, r0, lsr r1
    9b88:	494e4150 	stmdbmi	lr, {r4, r6, r8, lr}^
    9b8c:	73253a43 	teqvc	r5, #274432	; 0x43000
    9b90:	3a73253a 	bcc	1cd3080 <__bss_end__+0x1cc8f28>
    9b94:	703a6425 	eorsvc	r6, sl, r5, lsr #8
    9b98:	5f637475 	svcpl	0x00637475
    9b9c:	000a7066 	andeq	r7, sl, r6, rrx
    9ba0:	494e4150 	stmdbmi	lr, {r4, r6, r8, lr}^
    9ba4:	73253a43 	teqvc	r5, #274432	; 0x43000
    9ba8:	3a73253a 	bcc	1cd3098 <__bss_end__+0x1cc8f40>
    9bac:	773a6425 	ldrvc	r6, [sl, -r5, lsr #8]!
    9bb0:	68746469 	ldmdavs	r4!, {r0, r3, r5, r6, sl, sp, lr}^
    9bb4:	33203c20 	teqcc	r0, #32, 24	; 0x2000
    9bb8:	00000a32 	andeq	r0, r0, r2, lsr sl
    9bbc:	494e4150 	stmdbmi	lr, {r4, r6, r8, lr}^
    9bc0:	73253a43 	teqvc	r5, #274432	; 0x43000
    9bc4:	3a73253a 	bcc	1cd30b4 <__bss_end__+0x1cc8f5c>
    9bc8:	663a6425 	ldrtvs	r6, [sl], -r5, lsr #8
    9bcc:	74616f6c 	strbtvc	r6, [r1], #-3948	; 0xf6c
    9bd0:	746f6e20 	strbtvc	r6, [pc], #-3616	; 9bd8 <__FUNCTION__.4259+0xa8>
    9bd4:	616e6520 	cmnvs	lr, r0, lsr #10
    9bd8:	64656c62 	strbtvs	r6, [r5], #-3170	; 0xc62
    9bdc:	0a212121 	beq	852068 <__bss_end__+0x847f10>
    9be0:	00000000 	andeq	r0, r0, r0
    9be4:	494e4150 	stmdbmi	lr, {r4, r6, r8, lr}^
    9be8:	73253a43 	teqvc	r5, #274432	; 0x43000
    9bec:	3a73253a 	bcc	1cd30dc <__bss_end__+0x1cc8f84>
    9bf0:	703a6425 	eorsvc	r6, sl, r5, lsr #8
    9bf4:	746e6972 	strbtvc	r6, [lr], #-2418	; 0x972
    9bf8:	6e203a6b 	vnmulvs.f32	s6, s0, s23
    9bfc:	6820746f 	stmdavs	r0!, {r0, r1, r2, r3, r5, r6, sl, ip, sp, lr}
    9c00:	6c646e61 	stclvs	14, cr6, [r4], #-388	; 0xfffffe7c
    9c04:	20676e69 	rsbcs	r6, r7, r9, ror #28
    9c08:	63657073 	cmnvs	r5, #115	; 0x73
    9c0c:	65696669 	strbvs	r6, [r9, #-1641]!	; 0x669
    9c10:	25272072 	strcs	r2, [r7, #-114]!	; 0x72
    9c14:	0a0a2763 	beq	2939a8 <__bss_end__+0x289850>
    9c18:	00000000 	andeq	r0, r0, r0
    9c1c:	454e4f44 	strbmi	r4, [lr, #-3908]	; 0xf44
    9c20:	0a212121 	beq	8520ac <__bss_end__+0x847f54>
    9c24:	00000000 	andeq	r0, r0, r0

00009c28 <__FUNCTION__.4237>:
    9c28:	6c616d6b 	stclvs	13, cr6, [r1], #-428	; 0xfffffe54
    9c2c:	5f636f6c 	svcpl	0x00636f6c
    9c30:	74696e69 	strbtvc	r6, [r9], #-3689	; 0xe69
    9c34:	7465735f 	strbtvc	r7, [r5], #-863	; 0x35f
    9c38:	6174735f 	cmnvs	r4, pc, asr r3
    9c3c:	00007472 	andeq	r7, r0, r2, ror r4

00009c40 <__FUNCTION__.4241>:
    9c40:	6c616d6b 	stclvs	13, cr6, [r1], #-428	; 0xfffffe54
    9c44:	00636f6c 	rsbeq	r6, r3, ip, ror #30

00009c48 <__FUNCTION__.4253>:
    9c48:	6c616d6b 	stclvs	13, cr6, [r1], #-428	; 0xfffffe54
    9c4c:	5f636f6c 	svcpl	0x00636f6c
    9c50:	67696c61 	strbvs	r6, [r9, -r1, ror #24]!
    9c54:	0064656e 	rsbeq	r6, r4, lr, ror #10
    9c58:	6c616d6b 	stclvs	13, cr6, [r1], #-428	; 0xfffffe54
    9c5c:	2e636f6c 	cdpcs	15, 6, cr6, cr3, cr12, {3}
    9c60:	00000063 	andeq	r0, r0, r3, rrx
    9c64:	494e4150 	stmdbmi	lr, {r4, r6, r8, lr}^
    9c68:	73253a43 	teqvc	r5, #274432	; 0x43000
    9c6c:	3a73253a 	bcc	1cd315c <__bss_end__+0x1cc9004>
    9c70:	613a6425 	teqvs	sl, r5, lsr #8
    9c74:	20726464 	rsbscs	r6, r2, r4, ror #8
    9c78:	6568203e 	strbvs	r2, [r8, #-62]!	; 0x3e
    9c7c:	000a7061 	andeq	r7, sl, r1, rrx
    9c80:	494e4150 	stmdbmi	lr, {r4, r6, r8, lr}^
    9c84:	73253a43 	teqvc	r5, #274432	; 0x43000
    9c88:	3a73253a 	bcc	1cd3178 <__bss_end__+0x1cc9020>
    9c8c:	733a6425 	teqvc	sl, #620756992	; 0x25000000
    9c90:	00000a7a 	andeq	r0, r0, sl, ror sl
    9c94:	4f525245 	svcmi	0x00525245
    9c98:	73253a52 	teqvc	r5, #335872	; 0x52000
    9c9c:	3a73253a 	bcc	1cd318c <__bss_end__+0x1cc9034>
    9ca0:	203a6425 	eorscs	r6, sl, r5, lsr #8
    9ca4:	534c4146 	movtpl	r4, #49478	; 0xc146
    9ca8:	283c2845 	ldmdacs	ip!, {r0, r2, r6, fp, sp}
    9cac:	6c612828 	stclvs	8, cr2, [r1], #-160	; 0xffffff60
    9cb0:	6d6e6769 	stclvs	7, cr6, [lr, #-420]!	; 0xfffffe5c
    9cb4:	29746e65 	ldmdbcs	r4!, {r0, r2, r5, r6, r9, sl, fp, sp, lr}^
    9cb8:	61282d26 	teqvs	r8, r6, lsr #26
    9cbc:	6e67696c 	cdpvs	9, 6, cr6, cr7, cr12, {3}
    9cc0:	746e656d 	strbtvc	r6, [lr], #-1389	; 0x56d
    9cc4:	3d202929 	stccc	9, cr2, [r0, #-164]!	; 0xffffff5c
    9cc8:	6128203d 	teqvs	r8, sp, lsr r0
    9ccc:	6e67696c 	cdpvs	9, 6, cr6, cr7, cr12, {3}
    9cd0:	746e656d 	strbtvc	r6, [lr], #-1389	; 0x56d
    9cd4:	293e2929 	ldmdbcs	lr!, {r0, r3, r5, r8, fp, sp}
    9cd8:	7361203a 	cmnvc	r1, #58	; 0x3a
    9cdc:	696d7573 	stmdbvs	sp!, {r0, r1, r4, r5, r6, r8, sl, ip, sp, lr}^
    9ce0:	7020676e 	eorvc	r6, r0, lr, ror #14
    9ce4:	7265776f 	rsbvc	r7, r5, #29097984	; 0x1bc0000
    9ce8:	20666f20 	rsbcs	r6, r6, r0, lsr #30
    9cec:	0a6f7774 	beq	1be7ac4 <__bss_end__+0x1bdd96c>
    9cf0:	00000000 	andeq	r0, r0, r0
    9cf4:	4f525245 	svcmi	0x00525245
    9cf8:	73253a52 	teqvc	r5, #335872	; 0x52000
    9cfc:	3a73253a 	bcc	1cd31ec <__bss_end__+0x1cc9094>
    9d00:	203a6425 	eorscs	r6, sl, r5, lsr #8
    9d04:	534c4146 	movtpl	r4, #49478	; 0xc146
    9d08:	283c2845 	ldmdacs	ip!, {r0, r2, r6, fp, sp}
    9d0c:	29682828 	stmdbcs	r8!, {r3, r5, fp, sp}^
    9d10:	28202620 	stmdacs	r0!, {r5, r9, sl, sp}
    9d14:	70797428 	rsbsvc	r7, r9, r8, lsr #8
    9d18:	28666f65 	stmdacs	r6!, {r0, r2, r5, r6, r8, r9, sl, fp, sp, lr}^
    9d1c:	28292968 	stmdacs	r9!, {r3, r5, r6, r8, fp, sp}
    9d20:	67696c61 	strbvs	r6, [r9, -r1, ror #24]!
    9d24:	6e656d6e 	cdpvs	13, 6, cr6, cr5, cr14, {3}
    9d28:	2d202974 	stccs	9, cr2, [r0, #-464]!	; 0xfffffe30
    9d2c:	29293120 	stmdbcs	r9!, {r5, r8, ip, sp}
    9d30:	203d3d20 	eorscs	r3, sp, r0, lsr #26
    9d34:	293e2930 	ldmdbcs	lr!, {r4, r5, r8, fp, sp}
    9d38:	6d69203a 	stclvs	0, cr2, [r9, #-232]!	; 0xffffff18
    9d3c:	73736f70 	cmnvc	r3, #112, 30	; 0x1c0
    9d40:	656c6269 	strbvs	r6, [ip, #-617]!	; 0x269
    9d44:	0000000a 	andeq	r0, r0, sl

Disassembly of section .bss:

00009d48 <__bss_start__>:
    9d48:	00000000 	andeq	r0, r0, r0

00009d4c <heap>:
    9d4c:	00000000 	andeq	r0, r0, r0

00009d50 <heap_end>:
    9d50:	00000000 	andeq	r0, r0, r0

00009d54 <buf.4185>:
	...

0000a154 <bit>:
    a154:	00000000 	andeq	r0, r0, r0

Disassembly of section .ARM.attributes:

00000000 <.ARM.attributes>:
   0:	00002a41 	andeq	r2, r0, r1, asr #20
   4:	61656100 	cmnvs	r5, r0, lsl #2
   8:	01006962 	tsteq	r0, r2, ror #18
   c:	00000020 	andeq	r0, r0, r0, lsr #32
  10:	4b5a3605 	blmi	168d82c <__bss_end__+0x16836d4>
  14:	08070600 	stmdaeq	r7, {r9, sl}
  18:	12010901 	andne	r0, r1, #16384	; 0x4000
  1c:	15011404 	strne	r1, [r1, #-1028]	; 0x404
  20:	18031701 	stmdane	r3, {r0, r8, r9, sl, ip}
  24:	22011a01 	andcs	r1, r1, #4096	; 0x1000
  28:	Address 0x0000000000000028 is out of bounds.


Disassembly of section .comment:

00000000 <.comment>:
   0:	3a434347 	bcc	10d0d24 <__bss_end__+0x10c6bcc>
   4:	4e472820 	cdpmi	8, 4, cr2, cr7, cr0, {1}
   8:	34202955 	strtcc	r2, [r0], #-2389	; 0x955
   c:	332e382e 	teqcc	lr, #3014656	; 0x2e0000
  10:	43434700 	movtmi	r4, #14080	; 0x3700
  14:	3128203a 	teqcc	r8, sl, lsr r0
  18:	2e363a35 	mrccs	10, 1, r3, cr6, cr5, {1}
  1c:	2b312e33 	blcs	c4b8f0 <__bss_end__+0xc41798>
  20:	326e7673 	rsbcc	r7, lr, #120586240	; 0x7300000
  24:	33303335 	teqcc	r0, #-738197504	; 0xd4000000
  28:	62312d39 	eorsvs	r2, r1, #3648	; 0xe40
  2c:	646c6975 	strbtvs	r6, [ip], #-2421	; 0x975
  30:	36202931 			; <UNDEFINED> instruction: 0x36202931
  34:	312e332e 	teqcc	lr, lr, lsr #6
  38:	31303220 	teqcc	r0, r0, lsr #4
  3c:	32363037 	eorscc	r3, r6, #55	; 0x37
  40:	Address 0x0000000000000040 is out of bounds.


Disassembly of section .debug_info:

00000000 <.debug_info>:
       0:	00000406 	andeq	r0, r0, r6, lsl #8
       4:	00000004 	andeq	r0, r0, r4
       8:	01040000 	mrseq	r0, (UNDEF: 4)
       c:	00000008 	andeq	r0, r0, r8
      10:	00007601 	andeq	r7, r0, r1, lsl #12
      14:	00009f00 	andeq	r9, r0, r0, lsl #30
      18:	00801000 	addeq	r1, r0, r0
      1c:	0001b400 	andeq	fp, r1, r0, lsl #8
      20:	00000000 	andeq	r0, r0, r0
      24:	07080200 	streq	r0, [r8, -r0, lsl #4]
      28:	00000135 	andeq	r0, r0, r5, lsr r1
      2c:	3f070402 	svccc	0x00070402
      30:	03000001 	movweq	r0, #1
      34:	6e690504 	cdpvs	5, 6, cr0, cr9, cr4, {0}
      38:	01020074 	tsteq	r2, r4, ror r0
      3c:	00008606 	andeq	r8, r0, r6, lsl #12
      40:	05020200 	streq	r0, [r2, #-512]	; 0x200
      44:	0000016a 	andeq	r0, r0, sl, ror #2
      48:	5a050402 	bpl	141058 <__bss_end__+0x136f00>
      4c:	02000001 	andeq	r0, r0, #1
      50:	01550508 	cmpeq	r5, r8, lsl #10
      54:	01020000 	mrseq	r0, (UNDEF: 2)
      58:	00008408 	andeq	r8, r0, r8, lsl #8
      5c:	07020200 	streq	r0, [r2, -r0, lsl #4]
      60:	000000fa 	strdeq	r0, [r0], -sl
      64:	00017404 	andeq	r7, r1, r4, lsl #8
      68:	6f340400 	svcvs	0x00340400
      6c:	02000000 	andeq	r0, r0, #0
      70:	013a0704 	teqeq	sl, r4, lsl #14
      74:	04020000 	streq	r0, [r2], #-0
      78:	00014c07 	andeq	r4, r1, r7, lsl #24
      7c:	06040500 	streq	r0, [r4], -r0, lsl #10
      80:	00008504 	andeq	r8, r0, r4, lsl #10
      84:	08010200 	stmdaeq	r1, {r9}
      88:	0000008d 	andeq	r0, r0, sp, lsl #1
      8c:	00920406 	addseq	r0, r2, r6, lsl #8
      90:	85070000 	strhi	r0, [r7, #-0]
      94:	08000000 	stmdaeq	r0, {}	; <UNPREDICTABLE>
      98:	00000085 	andeq	r0, r0, r5, lsl #1
      9c:	000000a7 	andeq	r0, r0, r7, lsr #1
      a0:	00007609 	andeq	r7, r0, r9, lsl #12
      a4:	0a000700 	beq	1cac <_start-0x6354>
      a8:	0000005f 	andeq	r0, r0, pc, asr r0
      ac:	80100501 	andshi	r0, r0, r1, lsl #10
      b0:	01b40000 			; <UNDEFINED> instruction: 0x01b40000
      b4:	9c010000 	stcls	0, cr0, [r1], {-0}
      b8:	0000032a 	andeq	r0, r0, sl, lsr #6
      bc:	01006e0b 	tsteq	r0, fp, lsl #28
      c0:	00002c0a 	andeq	r2, r0, sl, lsl #24
      c4:	10000000 	andne	r0, r0, r0
      c8:	00700c00 	rsbseq	r0, r0, r0, lsl #24
      cc:	032a0f01 	teqeq	sl, #1, 30
      d0:	91020000 	mrsls	r0, (UNDEF: 2)
      d4:	7a730c50 	bvc	1cc321c <__bss_end__+0x1cb90c4>
      d8:	3a100100 	bcc	4004e0 <__bss_end__+0x3f6388>
      dc:	03000003 	movweq	r0, #3
      e0:	0d7fb891 	ldcleq	8, cr11, [pc, #-580]!	; fffffea4 <__bss_end__+0xffff5d4c>
      e4:	00000120 	andeq	r0, r0, r0, lsr #2
      e8:	0000034a 	andeq	r0, r0, sl, asr #6
      ec:	96740305 	ldrbtls	r0, [r4], -r5, lsl #6
      f0:	690e0000 	stmdbvs	lr, {}	; <UNPREDICTABLE>
      f4:	331f0100 	tstcc	pc, #0, 2
      f8:	00000000 	andeq	r0, r0, r0
      fc:	0e000000 	cdpeq	0, 0, cr0, cr0, cr0, {0}
     100:	20010078 	andcs	r0, r1, r8, ror r0
     104:	0000007f 	andeq	r0, r0, pc, ror r0
     108:	00000040 	andeq	r0, r0, r0, asr #32
     10c:	66666f0e 	strbtvs	r6, [r6], -lr, lsl #30
     110:	2c210100 	stfcss	f0, [r1], #-0
     114:	53000000 	movwpl	r0, #0
     118:	0f000000 	svceq	0x00000000
     11c:	00008038 	andeq	r8, r0, r8, lsr r0
     120:	00000050 	andeq	r0, r0, r0, asr r0
     124:	00000162 	andeq	r0, r0, r2, ror #2
     128:	0100690e 	tsteq	r0, lr, lsl #18
     12c:	00003312 	andeq	r3, r0, r2, lsl r3
     130:	00006600 	andeq	r6, r0, r0, lsl #12
     134:	80501000 	subshi	r1, r0, r0
     138:	034f0000 	movteq	r0, #61440	; 0xf000
     13c:	74110000 	ldrvc	r0, [r1], #-0
     140:	5a000080 	bpl	348 <_start-0x7cb8>
     144:	12000003 	andne	r0, r0, #3
     148:	76025301 	strvc	r5, [r2], -r1, lsl #6
     14c:	52011200 	andpl	r1, r1, #0, 4
     150:	12007702 	andne	r7, r0, #524288	; 0x80000
     154:	78025101 	stmdavc	r2, {r0, r8, ip, lr}
     158:	50011200 	andpl	r1, r1, r0, lsl #4
     15c:	06507503 	ldrbeq	r7, [r0], -r3, lsl #10
     160:	880f0000 	stmdahi	pc, {}	; <UNPREDICTABLE>
     164:	38000080 	stmdacc	r0, {r7}
     168:	a8000000 	stmdage	r0, {}	; <UNPREDICTABLE>
     16c:	0e000001 	cdpeq	0, 0, cr0, cr0, cr1, {0}
     170:	17010069 	strne	r0, [r1, -r9, rrx]
     174:	00000033 	andeq	r0, r0, r3, lsr r0
     178:	00000085 	andeq	r0, r0, r5, lsl #1
     17c:	0080b411 	addeq	fp, r0, r1, lsl r4
     180:	00037e00 	andeq	r7, r3, r0, lsl #28
     184:	53011200 	movwpl	r1, #4608	; 0x1200
     188:	12007502 	andne	r7, r0, #8388608	; 0x800000
     18c:	76025201 	strvc	r5, [r2], -r1, lsl #4
     190:	51011200 	mrspl	r1, R9_usr
     194:	12007702 	andne	r7, r0, #524288	; 0x80000
     198:	740b5001 	strvc	r5, [fp], #-1
     19c:	91243200 	teqls	r4, r0, lsl #4
     1a0:	3408227c 	strcc	r2, [r8], #-636	; 0x27c
     1a4:	0000061c 	andeq	r0, r0, ip, lsl r6
     1a8:	00802013 	addeq	r2, r0, r3, lsl r0
     1ac:	00039e00 	andeq	r9, r3, r0, lsl #28
     1b0:	0001bf00 	andeq	fp, r1, r0, lsl #30
     1b4:	50011200 	andpl	r1, r1, r0, lsl #4
     1b8:	967c0305 	ldrbtls	r0, [ip], -r5, lsl #6
     1bc:	13000000 	movwne	r0, #0
     1c0:	00008028 	andeq	r8, r0, r8, lsr #32
     1c4:	000003b4 			; <UNDEFINED> instruction: 0x000003b4
     1c8:	000001d4 	ldrdeq	r0, [r0], -r4
     1cc:	03500112 	cmpeq	r0, #-2147483644	; 0x80000004
     1d0:	00244040 	eoreq	r4, r4, r0, asr #32
     1d4:	00803013 	addeq	r3, r0, r3, lsl r0
     1d8:	0003c500 	andeq	ip, r3, r0, lsl #10
     1dc:	0001e900 	andeq	lr, r1, r0, lsl #18
     1e0:	50011200 	andpl	r1, r1, r0, lsl #4
     1e4:	24404003 	strbcs	r4, [r0], #-3
     1e8:	80381300 	eorshi	r1, r8, r0, lsl #6
     1ec:	03da0000 	bicseq	r0, sl, #0
     1f0:	01fe0000 	mvnseq	r0, r0
     1f4:	01120000 	tsteq	r2, r0
     1f8:	40400351 	submi	r0, r0, r1, asr r3
     1fc:	c4100024 	ldrgt	r0, [r0], #-36	; 0x24
     200:	f0000080 			; <UNDEFINED> instruction: 0xf0000080
     204:	10000003 	andne	r0, r0, r3
     208:	000080d0 	ldrdeq	r8, [r0], -r0
     20c:	000003fb 	strdeq	r0, [r0], -fp
     210:	0080e413 	addeq	lr, r0, r3, lsl r4
     214:	00039e00 	andeq	r9, r3, r0, lsl #28
     218:	00023800 	andeq	r3, r2, r0, lsl #16
     21c:	53011200 	movwpl	r1, #4608	; 0x1200
     220:	01124b01 	tsteq	r2, r1, lsl #22
     224:	00760252 	rsbseq	r0, r6, r2, asr r2
     228:	02510112 	subseq	r0, r1, #-2147483644	; 0x80000004
     22c:	01120077 	tsteq	r2, r7, ror r0
     230:	a4030550 	strge	r0, [r3], #-1360	; 0x550
     234:	00000096 	muleq	r0, r6, r0
     238:	0080e810 	addeq	lr, r0, r0, lsl r8
     23c:	00040200 	andeq	r0, r4, r0, lsl #4
     240:	80f41300 	rscshi	r1, r4, r0, lsl #6
     244:	039e0000 	orrseq	r0, lr, #0
     248:	02550000 	subseq	r0, r5, #0
     24c:	01120000 	tsteq	r2, r0
     250:	00760250 	rsbseq	r0, r6, r0, asr r2
     254:	80fc1300 	rscshi	r1, ip, r0, lsl #6
     258:	039e0000 	orrseq	r0, lr, #0
     25c:	026c0000 	rsbeq	r0, ip, #0
     260:	01120000 	tsteq	r2, r0
     264:	d0030550 	andle	r0, r3, r0, asr r5
     268:	00000096 	muleq	r0, r6, r0
     26c:	00810010 	addeq	r0, r1, r0, lsl r0
     270:	00034f00 	andeq	r4, r3, r0, lsl #30
     274:	812c1000 	teqhi	ip, r0
     278:	034f0000 	movteq	r0, #61440	; 0xf000
     27c:	48130000 	ldmdami	r3, {}	; <UNPREDICTABLE>
     280:	9e000081 	cdpls	0, 0, cr0, cr0, cr1, {4}
     284:	92000003 	andls	r0, r0, #3
     288:	12000002 	andne	r0, r0, #2
     28c:	76025001 	strvc	r5, [r2], -r1
     290:	5c130000 	ldcpl	0, cr0, [r3], {-0}
     294:	9e000081 	cdpls	0, 0, cr0, cr0, cr1, {4}
     298:	bb000003 	bllt	2ac <_start-0x7d54>
     29c:	12000002 	andne	r0, r0, #2
     2a0:	77025301 	strvc	r5, [r2, -r1, lsl #6]
     2a4:	52011200 	andpl	r1, r1, #0, 4
     2a8:	12007402 	andne	r7, r0, #33554432	; 0x2000000
     2ac:	75025101 	strvc	r5, [r2, #-257]	; 0x101
     2b0:	50011200 	andpl	r1, r1, r0, lsl #4
     2b4:	96ec0305 	strbtls	r0, [ip], r5, lsl #6
     2b8:	10000000 	andne	r0, r0, r0
     2bc:	00008160 	andeq	r8, r0, r0, ror #2
     2c0:	000003f0 	strdeq	r0, [r0], -r0	; <UNPREDICTABLE>
     2c4:	00816c10 	addeq	r6, r1, r0, lsl ip
     2c8:	0003fb00 	andeq	pc, r3, r0, lsl #22
     2cc:	81801300 	orrhi	r1, r0, r0, lsl #6
     2d0:	039e0000 	orrseq	r0, lr, #0
     2d4:	02f90000 	rscseq	r0, r9, #0
     2d8:	01120000 	tsteq	r2, r0
     2dc:	26080253 			; <UNDEFINED> instruction: 0x26080253
     2e0:	05520112 	ldrbeq	r0, [r2, #-274]	; 0x112
     2e4:	00967403 	addseq	r7, r6, r3, lsl #8
     2e8:	51011200 	mrspl	r1, R9_usr
     2ec:	12007802 	andne	r7, r0, #131072	; 0x20000
     2f0:	03055001 	movweq	r5, #20481	; 0x5001
     2f4:	00009710 	andeq	r9, r0, r0, lsl r7
     2f8:	81841000 	orrhi	r1, r4, r0
     2fc:	04020000 	streq	r0, [r2], #-0
     300:	8c130000 	ldchi	0, cr0, [r3], {-0}
     304:	9e000081 	cdpls	0, 0, cr0, cr0, cr1, {4}
     308:	16000003 	strne	r0, [r0], -r3
     30c:	12000003 	andne	r0, r0, #3
     310:	76025001 	strvc	r5, [r2], -r1
     314:	94110000 	ldrls	r0, [r1], #-0
     318:	9e000081 	cdpls	0, 0, cr0, cr0, cr1, {4}
     31c:	12000003 	andne	r0, r0, #3
     320:	03055001 	movweq	r5, #20481	; 0x5001
     324:	00009730 	andeq	r9, r0, r0, lsr r7
     328:	7d080000 	stcvc	0, cr0, [r8, #-0]
     32c:	3a000000 	bcc	334 <_start-0x7ccc>
     330:	09000003 	stmdbeq	r0, {r0, r1}
     334:	00000076 	andeq	r0, r0, r6, ror r0
     338:	2c080005 	stccs	0, cr0, [r8], {5}
     33c:	4a000000 	bmi	344 <_start-0x7cbc>
     340:	09000003 	stmdbeq	r0, {r0, r1}
     344:	00000076 	andeq	r0, r0, r6, ror r0
     348:	97070005 	strls	r0, [r7, -r5]
     34c:	14000000 	strne	r0, [r0], #-0
     350:	00000115 	andeq	r0, r0, r5, lsl r1
     354:	006f3203 	rsbeq	r3, pc, r3, lsl #4
     358:	00150000 	andseq	r0, r5, r0
     35c:	02000000 	andeq	r0, r0, #0
     360:	00007d74 	andeq	r7, r0, r4, ror sp
     364:	00037e00 	andeq	r7, r3, r0, lsl #28
     368:	00641600 	rsbeq	r1, r4, r0, lsl #12
     36c:	8c160000 	ldchi	0, cr0, [r6], {-0}
     370:	16000000 	strne	r0, [r0], -r0
     374:	0000008c 	andeq	r0, r0, ip, lsl #1
     378:	00002c16 	andeq	r2, r0, r6, lsl ip
     37c:	63170000 	tstvs	r7, #0
     380:	02000001 	andeq	r0, r0, #1
     384:	00039e75 	andeq	r9, r3, r5, ror lr
     388:	007d1600 	rsbseq	r1, sp, r0, lsl #12
     38c:	8c160000 	ldchi	0, cr0, [r6], {-0}
     390:	16000000 	strne	r0, [r0], -r0
     394:	0000008c 	andeq	r0, r0, ip, lsl #1
     398:	00002c16 	andeq	r2, r0, r6, lsl ip
     39c:	b8150000 	ldmdalt	r5, {}	; <UNPREDICTABLE>
     3a0:	03000003 	movweq	r0, #3
     3a4:	00003329 	andeq	r3, r0, r9, lsr #6
     3a8:	0003b400 	andeq	fp, r3, r0, lsl #8
     3ac:	008c1600 	addeq	r1, ip, r0, lsl #12
     3b0:	00180000 	andseq	r0, r8, r0
     3b4:	00017d17 	andeq	r7, r1, r7, lsl sp
     3b8:	c5720300 	ldrbgt	r0, [r2, #-768]!	; 0x300
     3bc:	16000003 	strne	r0, [r0], -r3
     3c0:	0000002c 	andeq	r0, r0, ip, lsr #32
     3c4:	010d1500 	tsteq	sp, r0, lsl #10
     3c8:	6c030000 	stcvs	0, cr0, [r3], {-0}
     3cc:	0000007d 	andeq	r0, r0, sp, ror r0
     3d0:	000003da 	ldrdeq	r0, [r0], -sl
     3d4:	00002c16 	andeq	r2, r0, r6, lsl ip
     3d8:	2d170000 	ldccs	0, cr0, [r7, #-0]
     3dc:	02000001 	andeq	r0, r0, #1
     3e0:	0003f077 	andeq	pc, r3, r7, ror r0	; <UNPREDICTABLE>
     3e4:	007d1600 	rsbseq	r1, sp, r0, lsl #12
     3e8:	2c160000 	ldccs	0, cr0, [r6], {-0}
     3ec:	00000000 	andeq	r0, r0, r0
     3f0:	00006714 	andeq	r6, r0, r4, lsl r7
     3f4:	337d0200 	cmncc	sp, #0, 4
     3f8:	19000000 	stmdbne	r0, {}	; <UNPREDICTABLE>
     3fc:	00000194 	muleq	r0, r4, r1
     400:	92191e03 	andsls	r1, r9, #3, 28	; 0x30
     404:	03000000 	movweq	r0, #0
     408:	0e910065 	cdpeq	0, 9, cr0, cr1, cr5, {3}
     40c:	00040000 	andeq	r0, r4, r0
     410:	00000146 	andeq	r0, r0, r6, asr #2
     414:	00080104 	andeq	r0, r8, r4, lsl #2
     418:	3f010000 	svccc	0x00010000
     41c:	9f000002 	svcls	0x00000002
     420:	c4000000 	strgt	r0, [r0], #-0
     424:	68000081 	stmdavs	r0, {r0, r7}
     428:	3c000007 	stccc	0, cr0, [r0], {7}
     42c:	02000001 	andeq	r0, r0, #1
     430:	6e690504 	cdpvs	5, 6, cr0, cr9, cr4, {0}
     434:	ab030074 	blge	c060c <__bss_end__+0xb64b4>
     438:	03000001 	movweq	r0, #1
     43c:	000037d4 	ldrdeq	r3, [r0], -r4
     440:	07040400 	streq	r0, [r4, -r0, lsl #8]
     444:	0000013f 	andeq	r0, r0, pc, lsr r1
     448:	86060104 	strhi	r0, [r6], -r4, lsl #2
     44c:	04000000 	streq	r0, [r0], #-0
     450:	016a0502 	cmneq	sl, r2, lsl #10
     454:	04040000 	streq	r0, [r4], #-0
     458:	00015a05 	andeq	r5, r1, r5, lsl #20
     45c:	05080400 	streq	r0, [r8, #-1024]	; 0x400
     460:	00000155 	andeq	r0, r0, r5, asr r1
     464:	00030903 	andeq	r0, r3, r3, lsl #18
     468:	652e0400 	strvs	r0, [lr, #-1024]!	; 0x400
     46c:	04000000 	streq	r0, [r0], #-0
     470:	00840801 	addeq	r0, r4, r1, lsl #16
     474:	02040000 	andeq	r0, r4, #0
     478:	0000fa07 	andeq	pc, r0, r7, lsl #20
     47c:	01740300 	cmneq	r4, r0, lsl #6
     480:	34040000 	strcc	r0, [r4], #-0
     484:	0000007e 	andeq	r0, r0, lr, ror r0
     488:	3a070404 	bcc	1c14a0 <__bss_end__+0x1b7348>
     48c:	04000001 	streq	r0, [r0], #-1
     490:	01350708 	teqeq	r5, r8, lsl #14
     494:	04040000 	streq	r0, [r4], #-0
     498:	00014c07 	andeq	r4, r1, r7, lsl #24
     49c:	06040500 	streq	r0, [r4], -r0, lsl #10
     4a0:	00009b04 	andeq	r9, r0, r4, lsl #22
     4a4:	08010400 	stmdaeq	r1, {sl}
     4a8:	0000008d 	andeq	r0, r0, sp, lsl #1
     4ac:	00a80406 	adceq	r0, r8, r6, lsl #8
     4b0:	9b070000 	blls	1c04b8 <__bss_end__+0x1b6360>
     4b4:	08000000 	stmdaeq	r0, {}	; <UNPREDICTABLE>
     4b8:	0000009b 	muleq	r0, fp, r0
     4bc:	000000bd 	strheq	r0, [r0], -sp
     4c0:	00008c09 	andeq	r8, r0, r9, lsl #24
     4c4:	0a000700 	beq	20cc <_start-0x5f34>
     4c8:	d2240201 	eorle	r0, r4, #268435456	; 0x10000000
     4cc:	0b000000 	bleq	4d4 <_start-0x7b2c>
     4d0:	000001e3 	andeq	r0, r0, r3, ror #3
     4d4:	01dd0b0b 	bicseq	r0, sp, fp, lsl #22
     4d8:	000c0000 	andeq	r0, ip, r0
     4dc:	26020c0c 	strcs	r0, [r2], -ip, lsl #24
     4e0:	000000ff 	strdeq	r0, [r0], -pc	; <UNPREDICTABLE>
     4e4:	0007d70d 	andeq	sp, r7, sp, lsl #14
     4e8:	a2270200 	eorge	r0, r7, #0, 4
     4ec:	00000000 	andeq	r0, r0, r0
     4f0:	000aa10d 	andeq	sl, sl, sp, lsl #2
     4f4:	a2280200 	eorge	r0, r8, #0, 4
     4f8:	04000000 	streq	r0, [r0], #-0
     4fc:	0002e00d 	andeq	lr, r2, sp
     500:	37290200 	strcc	r0, [r9, -r0, lsl #4]!
     504:	08000000 	stmdaeq	r0, {}	; <UNPREDICTABLE>
     508:	028d0300 	addeq	r0, sp, #0, 6
     50c:	2a020000 	bcs	80514 <__bss_end__+0x763bc>
     510:	000000d2 	ldrdeq	r0, [r0], -r2
     514:	0003310e 	andeq	r3, r3, lr, lsl #2
     518:	2d023800 	stccs	8, cr3, [r2, #-0]
     51c:	0000018f 	andeq	r0, r0, pc, lsl #3
     520:	00026b0d 	andeq	r6, r2, sp, lsl #22
     524:	732e0200 	teqvc	lr, #0, 4
     528:	00000000 	andeq	r0, r0, r0
     52c:	0003170d 	andeq	r1, r3, sp, lsl #14
     530:	732f0200 	teqvc	pc, #0, 4
     534:	04000000 	streq	r0, [r0], #-0
     538:	0006620d 	andeq	r6, r6, sp, lsl #4
     53c:	73300200 	teqvc	r0, #0, 4
     540:	08000000 	stmdaeq	r0, {}	; <UNPREDICTABLE>
     544:	0002570d 	andeq	r5, r2, sp, lsl #14
     548:	73340200 	teqvc	r4, #0, 4
     54c:	0c000000 	stceq	0, cr0, [r0], {-0}
     550:	0002490d 	andeq	r4, r2, sp, lsl #18
     554:	ff360200 			; <UNDEFINED> instruction: 0xff360200
     558:	10000000 	andne	r0, r0, r0
     55c:	0002780d 	andeq	r7, r2, sp, lsl #16
     560:	ff370200 			; <UNDEFINED> instruction: 0xff370200
     564:	1c000000 	stcne	0, cr0, [r0], {-0}
     568:	0002050d 	andeq	r0, r2, sp, lsl #10
     56c:	733b0200 	teqvc	fp, #0, 4
     570:	28000000 	stmdacs	r0, {}	; <UNPREDICTABLE>
     574:	0001eb0d 	andeq	lr, r1, sp, lsl #22
     578:	733c0200 	teqvc	ip, #0, 4
     57c:	2c000000 	stccs	0, cr0, [r0], {-0}
     580:	0001b20d 	andeq	fp, r1, sp, lsl #4
     584:	8f3f0200 	svchi	0x003f0200
     588:	30000001 	andcc	r0, r0, r1
     58c:	0001a30d 	andeq	sl, r1, sp, lsl #6
     590:	73410200 	movtvc	r0, #4608	; 0x1200
     594:	34000000 	strcc	r0, [r0], #-0
     598:	0a040600 	beq	101da0 <__bss_end__+0xf7c48>
     59c:	03000001 	movweq	r0, #1
     5a0:	00000311 	andeq	r0, r0, r1, lsl r3
     5a4:	010a4202 	tsteq	sl, r2, lsl #4
     5a8:	020a0000 	andeq	r0, sl, #0
     5ac:	01c56202 	biceq	r6, r5, r2, lsl #4
     5b0:	c20b0000 	andgt	r0, fp, #0
     5b4:	fe000002 	cdp2	0, 0, cr0, cr0, cr2, {0}
     5b8:	025d0b01 	subseq	r0, sp, #1024	; 0x400
     5bc:	01800000 	orreq	r0, r0, r0
     5c0:	0002280b 	andeq	r2, r2, fp, lsl #16
     5c4:	0b01b800 	bleq	6e5cc <__bss_end__+0x64474>
     5c8:	00000218 	andeq	r0, r0, r8, lsl r2
     5cc:	0f0002b8 	svceq	0x000002b8
     5d0:	000001d3 	ldrdeq	r0, [r0], -r3
     5d4:	00931301 	addseq	r1, r3, r1, lsl #6
     5d8:	81c40000 	bichi	r0, r4, r0
     5dc:	00080000 	andeq	r0, r8, r0
     5e0:	9c010000 	stcls	0, cr0, [r1], {-0}
     5e4:	000001ec 	andeq	r0, r0, ip, ror #3
     5e8:	01006810 	tsteq	r0, r0, lsl r8
     5ec:	0001ec13 	andeq	lr, r1, r3, lsl ip
     5f0:	00009800 	andeq	r9, r0, r0, lsl #16
     5f4:	04060000 	streq	r0, [r6], #-0
     5f8:	00000195 	muleq	r0, r5, r1
     5fc:	0002810f 	andeq	r8, r2, pc, lsl #2
     600:	93150100 	tstls	r5, #0, 2
     604:	cc000000 	stcgt	0, cr0, [r0], {-0}
     608:	10000081 	andne	r0, r0, r1, lsl #1
     60c:	01000000 	mrseq	r0, (UNDEF: 0)
     610:	00022a9c 	muleq	r2, ip, sl
     614:	00681000 	rsbeq	r1, r8, r0
     618:	01ec1501 	mvneq	r1, r1, lsl #10
     61c:	00b80000 	adcseq	r0, r8, r0
     620:	d4110000 	ldrle	r0, [r1], #-0
     624:	c5000081 	strgt	r0, [r0, #-129]	; 0x81
     628:	12000001 	andne	r0, r0, #1
     62c:	f3035001 	vhadd.u8	d5, d3, d1
     630:	00005001 	andeq	r5, r0, r1
     634:	0002a60f 	andeq	sl, r2, pc, lsl #12
     638:	93170100 	tstls	r7, #0, 2
     63c:	dc000000 	stcle	0, cr0, [r0], {-0}
     640:	18000081 	stmdane	r0, {r0, r7}
     644:	01000000 	mrseq	r0, (UNDEF: 0)
     648:	0002619c 	muleq	r2, ip, r1
     64c:	00681000 	rsbeq	r1, r8, r0
     650:	01ec1701 	mvneq	r1, r1, lsl #14
     654:	00d90000 	sbcseq	r0, r9, r0
     658:	e8110000 	ldmda	r1, {}	; <UNPREDICTABLE>
     65c:	f2000081 	vhadd.s8	d0, d16, d1
     660:	12000001 	andne	r0, r0, #1
     664:	74025001 	strvc	r5, [r2], #-1
     668:	0f000000 	svceq	0x00000000
     66c:	000002ee 	andeq	r0, r0, lr, ror #5
     670:	00371901 	eorseq	r1, r7, r1, lsl #18
     674:	81f40000 	mvnshi	r0, r0
     678:	000c0000 	andeq	r0, ip, r0
     67c:	9c010000 	stcls	0, cr0, [r1], {-0}
     680:	00000288 	andeq	r0, r0, r8, lsl #5
     684:	01006810 	tsteq	r0, r0, lsl r8
     688:	0001ec19 	andeq	lr, r1, r9, lsl ip
     68c:	0000f700 	andeq	pc, r0, r0, lsl #14
     690:	f70f0000 			; <UNDEFINED> instruction: 0xf70f0000
     694:	01000001 	tsteq	r0, r1
     698:	0001ec1c 	andeq	lr, r1, ip, lsl ip
     69c:	00820000 	addeq	r0, r2, r0
     6a0:	00000800 	andeq	r0, r0, r0, lsl #16
     6a4:	b19c0100 	orrslt	r0, ip, r0, lsl #2
     6a8:	13000002 	movwne	r0, #2
     6ac:	000001b9 			; <UNDEFINED> instruction: 0x000001b9
     6b0:	00931c01 	addseq	r1, r3, r1, lsl #24
     6b4:	01180000 	tsteq	r8, r0
     6b8:	14000000 	strne	r0, [r0], #-0
     6bc:	000002b8 			; <UNDEFINED> instruction: 0x000002b8
     6c0:	d0035502 	andle	r5, r3, r2, lsl #10
     6c4:	15000002 	strne	r0, [r0, #-2]
     6c8:	55020068 	strpl	r0, [r2, #-104]	; 0x68
     6cc:	000001ec 	andeq	r0, r0, ip, ror #3
     6d0:	02006c16 	andeq	r6, r0, #5632	; 0x1600
     6d4:	0002d057 	andeq	sp, r2, r7, asr r0
     6d8:	04060000 	streq	r0, [r6], #-0
     6dc:	000000ff 	strdeq	r0, [r0], -pc	; <UNPREDICTABLE>
     6e0:	0003270f 	andeq	r2, r3, pc, lsl #14
     6e4:	25330100 	ldrcs	r0, [r3, #-256]!	; 0x100
     6e8:	08000000 	stmdaeq	r0, {}	; <UNPREDICTABLE>
     6ec:	08000082 	stmdaeq	r0, {r1, r7}
     6f0:	01000001 	tsteq	r0, r1
     6f4:	0004559c 	muleq	r4, ip, r5
     6f8:	00681000 	rsbeq	r1, r8, r0
     6fc:	01ec3301 	mvneq	r3, r1, lsl #6
     700:	01390000 	teqeq	r9, r0
     704:	70100000 	andsvc	r0, r0, r0
     708:	95330100 	ldrls	r0, [r3, #-256]!	; 0x100
     70c:	6d000000 	stcvs	0, cr0, [r0, #-0]
     710:	13000001 	movwne	r0, #1
     714:	000002f4 	strdeq	r0, [r0], -r4
     718:	00373301 	eorseq	r3, r7, r1, lsl #6
     71c:	01a70000 			; <UNDEFINED> instruction: 0x01a70000
     720:	69170000 	ldmdbvs	r7, {}	; <UNPREDICTABLE>
     724:	25340100 	ldrcs	r0, [r4, #-256]!	; 0x100
     728:	e1000000 	mrs	r0, (UNDEF: 0)
     72c:	18000001 	stmdane	r0, {r0}
     730:	00000000 	andeq	r0, r0, r0
     734:	0001b719 	andeq	fp, r1, r9, lsl r7
     738:	95370100 	ldrls	r0, [r7, #-256]!	; 0x100
     73c:	0b000000 	bleq	744 <_start-0x78bc>
     740:	19000002 	stmdbne	r0, {r1}
     744:	0000084e 	andeq	r0, r0, lr, asr #16
     748:	00253801 	eoreq	r3, r5, r1, lsl #16
     74c:	02340000 	eorseq	r0, r4, #0
     750:	b11a0000 	tstlt	sl, r0
     754:	5c000002 	stcpl	0, cr0, [r0], {2}
     758:	70000082 	andvc	r0, r0, r2, lsl #1
     75c:	01000000 	mrseq	r0, (UNDEF: 0)
     760:	0003f539 	andeq	pc, r3, r9, lsr r5	; <UNPREDICTABLE>
     764:	02bd1b00 	adcseq	r1, sp, #0, 22
     768:	02520000 	subseq	r0, r2, #0
     76c:	5c1c0000 	ldcpl	0, cr0, [ip], {-0}
     770:	70000082 	andvc	r0, r0, r2, lsl #1
     774:	1d000000 	stcne	0, cr0, [r0, #-0]
     778:	000002c6 	andeq	r0, r0, r6, asr #5
     77c:	00000270 	andeq	r0, r0, r0, ror r2
     780:	0082641e 	addeq	r6, r2, lr, lsl r4
     784:	000e3000 	andeq	r3, lr, r0
     788:	00038a00 	andeq	r8, r3, r0, lsl #20
     78c:	50011200 	andpl	r1, r1, r0, lsl #4
     790:	00007602 	andeq	r7, r0, r2, lsl #12
     794:	0082701e 	addeq	r7, r2, lr, lsl r0
     798:	000e3000 	andeq	r3, lr, r0
     79c:	0003a100 	andeq	sl, r3, r0, lsl #2
     7a0:	50011200 	andpl	r1, r1, r0, lsl #4
     7a4:	97980305 	ldrls	r0, [r8, r5, lsl #6]
     7a8:	1e000000 	cdpne	0, 0, cr0, cr0, cr0, {0}
     7ac:	00008284 	andeq	r8, r0, r4, lsl #5
     7b0:	00000e30 	andeq	r0, r0, r0, lsr lr
     7b4:	000003b5 			; <UNDEFINED> instruction: 0x000003b5
     7b8:	02500112 	subseq	r0, r0, #-2147483644	; 0x80000004
     7bc:	1e000076 	mcrne	0, 0, r0, cr0, cr6, {3}
     7c0:	00008298 	muleq	r0, r8, r2
     7c4:	00000e30 	andeq	r0, r0, r0, lsr lr
     7c8:	000003cc 	andeq	r0, r0, ip, asr #7
     7cc:	05500112 	ldrbeq	r0, [r0, #-274]	; 0x112
     7d0:	0097a403 	addseq	sl, r7, r3, lsl #8
     7d4:	b81e0000 	ldmdalt	lr, {}	; <UNPREDICTABLE>
     7d8:	30000082 	andcc	r0, r0, r2, lsl #1
     7dc:	e000000e 	and	r0, r0, lr
     7e0:	12000003 	andne	r0, r0, #3
     7e4:	76025001 	strvc	r5, [r2], -r1
     7e8:	cc110000 	ldcgt	0, cr0, [r1], {-0}
     7ec:	30000082 	andcc	r0, r0, r2, lsl #1
     7f0:	1200000e 	andne	r0, r0, #14
     7f4:	03055001 	movweq	r5, #20481	; 0x5001
     7f8:	000097c4 	andeq	r9, r0, r4, asr #15
     7fc:	1e000000 	cdpne	0, 0, cr0, cr0, cr0, {0}
     800:	00008230 	andeq	r8, r0, r0, lsr r2
     804:	000001f2 	strdeq	r0, [r0], -r2
     808:	00000409 	andeq	r0, r0, r9, lsl #8
     80c:	02500112 	subseq	r0, r0, #-2147483644	; 0x80000004
     810:	1e000075 	mcrne	0, 0, r0, cr0, cr5, {3}
     814:	00008244 	andeq	r8, r0, r4, asr #4
     818:	00000e30 	andeq	r0, r0, r0, lsr lr
     81c:	0000041d 	andeq	r0, r0, sp, lsl r4
     820:	02500112 	subseq	r0, r0, #-2147483644	; 0x80000004
     824:	1e000076 	mcrne	0, 0, r0, cr0, cr6, {3}
     828:	0000824c 	andeq	r8, r0, ip, asr #4
     82c:	00000e30 	andeq	r0, r0, r0, lsr lr
     830:	00000434 	andeq	r0, r0, r4, lsr r4
     834:	05500112 	ldrbeq	r0, [r0, #-274]	; 0x112
     838:	00976c03 	addseq	r6, r7, r3, lsl #24
     83c:	5c110000 	ldcpl	0, cr0, [r1], {-0}
     840:	30000082 	andcc	r0, r0, r2, lsl #1
     844:	1200000e 	andne	r0, r0, #14
     848:	74025201 	strvc	r5, [r2], #-513	; 0x201
     84c:	51011200 	mrspl	r1, R9_usr
     850:	12007702 	andne	r7, r0, #524288	; 0x80000
     854:	03055001 	movweq	r5, #20481	; 0x5001
     858:	00009774 	andeq	r9, r0, r4, ror r7
     85c:	1f000000 	svcne	0x00000000
     860:	000002cb 	andeq	r0, r0, fp, asr #5
     864:	83103f01 	tsthi	r0, #1, 30
     868:	00140000 	andseq	r0, r4, r0
     86c:	9c010000 	stcls	0, cr0, [r1], {-0}
     870:	000004a5 	andeq	r0, r0, r5, lsr #9
     874:	01007010 	tsteq	r0, r0, lsl r0
     878:	0000933f 	andeq	r9, r0, pc, lsr r3
     87c:	00029f00 	andeq	r9, r2, r0, lsl #30
     880:	02f41300 	rscseq	r1, r4, #0, 6
     884:	3f010000 	svccc	0x00010000
     888:	00000037 	andeq	r0, r0, r7, lsr r0
     88c:	000002c0 	andeq	r0, r0, r0, asr #5
     890:	00832011 	addeq	r2, r3, r1, lsl r0
     894:	000e4600 	andeq	r4, lr, r0, lsl #12
     898:	52011200 	andpl	r1, r1, #0, 4
     89c:	5101f303 	tstpl	r1, r3, lsl #6
     8a0:	02510112 	subseq	r0, r1, #-2147483644	; 0x80000004
     8a4:	0112fe08 	tsteq	r2, r8, lsl #28
     8a8:	01f30350 	mvnseq	r0, r0, asr r3
     8ac:	0f000050 	svceq	0x00000050
     8b0:	00000253 	andeq	r0, r0, r3, asr r2
     8b4:	00732101 	rsbseq	r2, r3, r1, lsl #2
     8b8:	83240000 	teqhi	r4, #0
     8bc:	00240000 	eoreq	r0, r4, r0
     8c0:	9c010000 	stcls	0, cr0, [r1], {-0}
     8c4:	000004fc 	strdeq	r0, [r0], -ip
     8c8:	01006810 	tsteq	r0, r0, lsl r8
     8cc:	0001ec21 	andeq	lr, r1, r1, lsr #24
     8d0:	0002ec00 	andeq	lr, r2, r0, lsl #24
     8d4:	6c6f2000 	stclvs	0, cr2, [pc], #-0	; 8dc <_start-0x7724>
     8d8:	22010064 	andcs	r0, r1, #100	; 0x64
     8dc:	00000037 	andeq	r0, r0, r7, lsr r0
     8e0:	57215501 	strpl	r5, [r1, -r1, lsl #10]!
     8e4:	01000002 	tsteq	r0, r2
     8e8:	00007324 	andeq	r7, r0, r4, lsr #6
     8ec:	11500100 	cmpne	r0, r0, lsl #2
     8f0:	00008340 	andeq	r8, r0, r0, asr #6
     8f4:	00000e65 	andeq	r0, r0, r5, ror #28
     8f8:	02510112 	subseq	r0, r1, #-2147483644	; 0x80000004
     8fc:	01123808 	tsteq	r2, r8, lsl #16
     900:	00740250 	rsbseq	r0, r4, r0, asr r2
     904:	9c0f0000 	stcls	0, cr0, [pc], {-0}
     908:	01000002 	tsteq	r0, r2
     90c:	0000252a 	andeq	r2, r0, sl, lsr #10
     910:	00834800 	addeq	r4, r3, r0, lsl #16
     914:	00009c00 	andeq	r9, r0, r0, lsl #24
     918:	0b9c0100 	bleq	fe700d20 <__bss_end__+0xfe6f6bc8>
     91c:	10000006 	andne	r0, r0, r6
     920:	2a010068 	bcs	40ac8 <__bss_end__+0x36970>
     924:	000001ec 	andeq	r0, r0, ip, ror #3
     928:	0000030a 	andeq	r0, r0, sl, lsl #6
     92c:	0002fb19 	andeq	pc, r2, r9, lsl fp	; <UNPREDICTABLE>
     930:	732b0100 	teqvc	fp, #0, 2
     934:	28000000 	stmdacs	r0, {}	; <UNPREDICTABLE>
     938:	22000003 	andcs	r0, r0, #3
     93c:	00000120 	andeq	r0, r0, r0, lsr #2
     940:	0000061b 	andeq	r0, r0, fp, lsl r6
     944:	97480305 	strbls	r0, [r8, -r5, lsl #6]
     948:	541e0000 	ldrpl	r0, [lr], #-0
     94c:	a5000083 	strge	r0, [r0, #-131]	; 0x83
     950:	54000004 	strpl	r0, [r0], #-4
     954:	12000005 	andne	r0, r0, #5
     958:	74025001 	strvc	r5, [r2], #-1
     95c:	641e0000 	ldrvs	r0, [lr], #-0
     960:	30000083 	andcc	r0, r0, r3, lsl #1
     964:	7100000e 	tstvc	r0, lr
     968:	12000005 	andne	r0, r0, #5
     96c:	75025101 	strvc	r5, [r2, #-257]	; 0x101
     970:	50011200 	andpl	r1, r1, r0, lsl #4
     974:	97e00305 	strbls	r0, [r0, r5, lsl #6]!
     978:	1e000000 	cdpne	0, 0, cr0, cr0, cr0, {0}
     97c:	00008370 	andeq	r8, r0, r0, ror r3
     980:	00000e30 	andeq	r0, r0, r0, lsr lr
     984:	00000588 	andeq	r0, r0, r8, lsl #11
     988:	05500112 	ldrbeq	r0, [r0, #-274]	; 0x112
     98c:	0097f403 	addseq	pc, r7, r3, lsl #8
     990:	80230000 	eorhi	r0, r3, r0
     994:	86000083 	strhi	r0, [r0], -r3, lsl #1
     998:	1e00000e 	cdpne	0, 0, cr0, cr0, cr14, {0}
     99c:	00008394 	muleq	r0, r4, r3
     9a0:	00000e30 	andeq	r0, r0, r0, lsr lr
     9a4:	000005c0 	andeq	r0, r0, r0, asr #11
     9a8:	02530112 	subseq	r0, r3, #-2147483644	; 0x80000004
     9ac:	01122e08 	tsteq	r2, r8, lsl #28
     9b0:	48030552 	stmdami	r3, {r1, r4, r6, r8, sl}
     9b4:	12000097 	andne	r0, r0, #151	; 0x97
     9b8:	03055101 	movweq	r5, #20737	; 0x5101
     9bc:	00009830 	andeq	r9, r0, r0, lsr r8
     9c0:	05500112 	ldrbeq	r0, [r0, #-274]	; 0x112
     9c4:	00980403 	addseq	r0, r8, r3, lsl #8
     9c8:	98230000 	stmdals	r3!, {}	; <UNPREDICTABLE>
     9cc:	8d000083 	stchi	0, cr0, [r0, #-524]	; 0xfffffdf4
     9d0:	2300000e 	movwcs	r0, #14
     9d4:	000083ac 	andeq	r8, r0, ip, lsr #7
     9d8:	00000e86 	andeq	r0, r0, r6, lsl #29
     9dc:	0083c01e 	addeq	ip, r3, lr, lsl r0
     9e0:	000e3000 	andeq	r3, lr, r0
     9e4:	00060100 	andeq	r0, r6, r0, lsl #2
     9e8:	53011200 	movwpl	r1, #4608	; 0x1200
     9ec:	122f0802 	eorne	r0, pc, #131072	; 0x20000
     9f0:	03055201 	movweq	r5, #20993	; 0x5201
     9f4:	00009748 	andeq	r9, r0, r8, asr #14
     9f8:	05510112 	ldrbeq	r0, [r1, #-274]	; 0x112
     9fc:	00983003 	addseq	r3, r8, r3
     a00:	50011200 	andpl	r1, r1, r0, lsl #4
     a04:	983c0305 	ldmdals	ip!, {r0, r2, r8, r9}
     a08:	23000000 	movwcs	r0, #0
     a0c:	000083c4 	andeq	r8, r0, r4, asr #7
     a10:	00000e8d 	andeq	r0, r0, sp, lsl #29
     a14:	009b0800 	addseq	r0, fp, r0, lsl #16
     a18:	061b0000 	ldreq	r0, [fp], -r0
     a1c:	8c090000 	stchi	0, cr0, [r9], {-0}
     a20:	09000000 	stmdbeq	r0, {}	; <UNPREDICTABLE>
     a24:	060b0700 	streq	r0, [fp], -r0, lsl #14
     a28:	d40f0000 	strle	r0, [pc], #-0	; a30 <_start-0x75d0>
     a2c:	01000002 	tsteq	r0, r2
     a30:	00002549 	andeq	r2, r0, r9, asr #10
     a34:	0083e400 	addeq	lr, r3, r0, lsl #8
     a38:	00008000 	andeq	r8, r0, r0
     a3c:	c79c0100 	ldrgt	r0, [ip, r0, lsl #2]
     a40:	10000006 	andne	r0, r0, r6
     a44:	49010068 	stmdbmi	r1, {r3, r5, r6}
     a48:	000001ec 	andeq	r0, r0, ip, ror #3
     a4c:	00000346 	andeq	r0, r0, r6, asr #6
     a50:	0083f01e 	addeq	pc, r3, lr, lsl r0	; <UNPREDICTABLE>
     a54:	0004fc00 	andeq	pc, r4, r0, lsl #24
     a58:	00065a00 	andeq	r5, r6, r0, lsl #20
     a5c:	50011200 	andpl	r1, r1, r0, lsl #4
     a60:	00007402 	andeq	r7, r0, r2, lsl #8
     a64:	0084001e 	addeq	r0, r4, lr, lsl r0
     a68:	0001c500 	andeq	ip, r1, r0, lsl #10
     a6c:	00066e00 	andeq	r6, r6, r0, lsl #28
     a70:	50011200 	andpl	r1, r1, r0, lsl #4
     a74:	00007402 	andeq	r7, r0, r2, lsl #8
     a78:	0084101e 	addeq	r1, r4, lr, lsl r0
     a7c:	0002d600 	andeq	sp, r2, r0, lsl #12
     a80:	00068800 	andeq	r8, r6, r0, lsl #16
     a84:	52011200 	andpl	r1, r1, #0, 4
     a88:	12800802 	addne	r0, r0, #131072	; 0x20000
     a8c:	74025001 	strvc	r5, [r2], #-1
     a90:	201e0000 	andscs	r0, lr, r0
     a94:	2a000084 	bcs	cac <_start-0x7354>
     a98:	9c000002 	stcls	0, cr0, [r0], {2}
     a9c:	12000006 	andne	r0, r0, #6
     aa0:	74025001 	strvc	r5, [r2], #-1
     aa4:	2c1e0000 	ldccs	0, cr0, [lr], {-0}
     aa8:	61000084 	smlabbvs	r0, r4, r0, r0
     aac:	b0000002 	andlt	r0, r0, r2
     ab0:	12000006 	andne	r0, r0, #6
     ab4:	74025001 	strvc	r5, [r2], #-1
     ab8:	3c110000 	ldccc	0, cr0, [r1], {-0}
     abc:	d6000084 	strle	r0, [r0], -r4, lsl #1
     ac0:	12000002 	andne	r0, r0, #2
     ac4:	75025101 	strvc	r5, [r2, #-257]	; 0x101
     ac8:	50011200 	andpl	r1, r1, r0, lsl #4
     acc:	00007402 	andeq	r7, r0, r2, lsl #8
     ad0:	012d2400 	teqeq	sp, r0, lsl #8
     ad4:	09010000 	stmdbeq	r1, {}	; <UNPREDICTABLE>
     ad8:	00008464 	andeq	r8, r0, r4, ror #8
     adc:	00000074 	andeq	r0, r0, r4, ror r0
     ae0:	07679c01 	strbeq	r9, [r7, -r1, lsl #24]!
     ae4:	47130000 	ldrmi	r0, [r3, -r0]
     ae8:	0100000c 	tsteq	r0, ip
     aec:	00009309 	andeq	r9, r0, r9, lsl #6
     af0:	00036400 	andeq	r6, r3, r0, lsl #8
     af4:	006e1000 	rsbeq	r1, lr, r0
     af8:	00370901 	eorseq	r0, r7, r1, lsl #18
     afc:	03a70000 			; <UNDEFINED> instruction: 0x03a70000
     b00:	20220000 	eorcs	r0, r2, r0
     b04:	67000001 	strvs	r0, [r0, -r1]
     b08:	05000007 	streq	r0, [r0, #-7]
     b0c:	00975403 	addseq	r5, r7, r3, lsl #8
     b10:	84842300 	strhi	r2, [r4], #768	; 0x300
     b14:	0e860000 	cdpeq	0, 8, cr0, cr6, cr0, {0}
     b18:	981e0000 	ldmdals	lr, {}	; <UNPREDICTABLE>
     b1c:	30000084 	andcc	r0, r0, r4, lsl #1
     b20:	3e00000e 	cdpcc	0, 0, cr0, cr0, cr14, {0}
     b24:	12000007 	andne	r0, r0, #7
     b28:	3a015301 	bcc	55734 <__bss_end__+0x4b5dc>
     b2c:	05520112 	ldrbeq	r0, [r2, #-274]	; 0x112
     b30:	00975403 	addseq	r5, r7, r3, lsl #8
     b34:	51011200 	mrspl	r1, R9_usr
     b38:	98300305 	ldmdals	r0!, {r0, r2, r8, r9}
     b3c:	01120000 	tsteq	r2, r0
     b40:	78030550 	stmdavc	r3, {r4, r6, r8, sl}
     b44:	00000098 	muleq	r0, r8, r0
     b48:	00849c23 	addeq	r9, r4, r3, lsr #24
     b4c:	000e8d00 	andeq	r8, lr, r0, lsl #26
     b50:	84ac1100 	strthi	r1, [ip], #256	; 0x100
     b54:	0e300000 	cdpeq	0, 3, cr0, cr0, cr0, {0}
     b58:	01120000 	tsteq	r2, r0
     b5c:	80080252 	andhi	r0, r8, r2, asr r2
     b60:	02510112 	subseq	r0, r1, #-2147483644	; 0x80000004
     b64:	01123808 	tsteq	r2, r8, lsl #16
     b68:	a0030550 	andge	r0, r3, r0, asr r5
     b6c:	00000098 	muleq	r0, r8, r0
     b70:	00ad0700 	adceq	r0, sp, r0, lsl #14
     b74:	63240000 	teqvs	r4, #0
     b78:	01000001 	tsteq	r0, r1
     b7c:	0084d855 	addeq	sp, r4, r5, asr r8
     b80:	0000c000 	andeq	ip, r0, r0
     b84:	9b9c0100 	blls	fe700f8c <__bss_end__+0xfe6f6e34>
     b88:	13000008 	movwne	r0, #8
     b8c:	000001b9 			; <UNDEFINED> instruction: 0x000001b9
     b90:	00935501 	addseq	r5, r3, r1, lsl #10
     b94:	03db0000 	bicseq	r0, fp, #0
     b98:	d7130000 	ldrle	r0, [r3, -r0]
     b9c:	01000007 	tsteq	r0, r7
     ba0:	0000a255 	andeq	sl, r0, r5, asr r2
     ba4:	0003f900 	andeq	pc, r3, r0, lsl #18
     ba8:	0aa11300 	beq	fe8457b0 <__bss_end__+0xfe83b658>
     bac:	55010000 	strpl	r0, [r1, #-0]
     bb0:	000000a2 	andeq	r0, r0, r2, lsr #1
     bb4:	0000042d 	andeq	r0, r0, sp, lsr #8
     bb8:	0002e013 	andeq	lr, r2, r3, lsl r0
     bbc:	37550100 	ldrbcc	r0, [r5, -r0, lsl #2]
     bc0:	61000000 	mrsvs	r0, (UNDEF: 0)
     bc4:	17000004 	strne	r0, [r0, -r4]
     bc8:	56010068 	strpl	r0, [r1], -r8, rrx
     bcc:	000001ec 	andeq	r0, r0, ip, ror #3
     bd0:	00000495 	muleq	r0, r5, r4
     bd4:	00012022 	andeq	r2, r1, r2, lsr #32
     bd8:	0008ab00 	andeq	sl, r8, r0, lsl #22
     bdc:	5c030500 	cfstr32pl	mvfx0, [r3], {-0}
     be0:	23000097 	movwcs	r0, #151	; 0x97
     be4:	00008500 	andeq	r8, r0, r0, lsl #10
     be8:	00000e86 	andeq	r0, r0, r6, lsl #29
     bec:	0085141e 	addeq	r1, r5, lr, lsl r4
     bf0:	000e3000 	andeq	r3, lr, r0
     bf4:	00081100 	andeq	r1, r8, r0, lsl #2
     bf8:	53011200 	movwpl	r1, #4608	; 0x1200
     bfc:	12570802 	subsne	r0, r7, #131072	; 0x20000
     c00:	03055201 	movweq	r5, #20993	; 0x5201
     c04:	0000975c 	andeq	r9, r0, ip, asr r7
     c08:	05510112 	ldrbeq	r0, [r1, #-274]	; 0x112
     c0c:	00983003 	addseq	r3, r8, r3
     c10:	50011200 	andpl	r1, r1, r0, lsl #4
     c14:	98bc0305 	ldmls	ip!, {r0, r2, r8, r9}
     c18:	23000000 	movwcs	r0, #0
     c1c:	00008518 	andeq	r8, r0, r8, lsl r5
     c20:	00000e8d 	andeq	r0, r0, sp, lsl #29
     c24:	0085201e 	addeq	r2, r5, lr, lsl r0
     c28:	000e3000 	andeq	r3, lr, r0
     c2c:	00083100 	andeq	r3, r8, r0, lsl #2
     c30:	50011200 	andpl	r1, r1, r0, lsl #4
     c34:	96c80305 	strbls	r0, [r8], r5, lsl #6
     c38:	1e000000 	cdpne	0, 0, cr0, cr0, cr0, {0}
     c3c:	0000852c 	andeq	r8, r0, ip, lsr #10
     c40:	00000e30 	andeq	r0, r0, r0, lsr lr
     c44:	0000084e 	andeq	r0, r0, lr, asr #16
     c48:	02510112 	subseq	r0, r1, #-2147483644	; 0x80000004
     c4c:	01120075 	tsteq	r2, r5, ror r0
     c50:	f0030550 			; <UNDEFINED> instruction: 0xf0030550
     c54:	00000098 	muleq	r0, r8, r0
     c58:	0085341e 	addeq	r3, r5, lr, lsl r4
     c5c:	00028800 	andeq	r8, r2, r0, lsl #16
     c60:	00086200 	andeq	r6, r8, r0, lsl #4
     c64:	50011200 	andpl	r1, r1, r0, lsl #4
     c68:	00007502 	andeq	r7, r0, r2, lsl #10
     c6c:	00853c1e 	addeq	r3, r5, lr, lsl ip
     c70:	00062000 	andeq	r2, r6, r0
     c74:	00087600 	andeq	r7, r8, r0, lsl #12
     c78:	50011200 	andpl	r1, r1, r0, lsl #4
     c7c:	00007402 	andeq	r7, r0, r2, lsl #8
     c80:	0085641e 	addeq	r6, r5, lr, lsl r4
     c84:	00045500 	andeq	r5, r4, r0, lsl #10
     c88:	00088a00 	andeq	r8, r8, r0, lsl #20
     c8c:	50011200 	andpl	r1, r1, r0, lsl #4
     c90:	00007502 	andeq	r7, r0, r2, lsl #10
     c94:	00857811 	addeq	r7, r5, r1, lsl r8
     c98:	0004a500 	andeq	sl, r4, r0, lsl #10
     c9c:	50011200 	andpl	r1, r1, r0, lsl #4
     ca0:	00007402 	andeq	r7, r0, r2, lsl #8
     ca4:	009b0800 	addseq	r0, fp, r0, lsl #16
     ca8:	08ab0000 	stmiaeq	fp!, {}	; <UNPREDICTABLE>
     cac:	8c090000 	stchi	0, cr0, [r9], {-0}
     cb0:	06000000 	streq	r0, [r0], -r0
     cb4:	089b0700 	ldmeq	fp, {r8, r9, sl}
     cb8:	00250000 	eoreq	r0, r5, r0
     cbc:	01000000 	mrseq	r0, (UNDEF: 0)
     cc0:	0000936f 	andeq	r9, r0, pc, ror #6
     cc4:	00859800 	addeq	r9, r5, r0, lsl #16
     cc8:	00024c00 	andeq	r4, r2, r0, lsl #24
     ccc:	3b9c0100 	blcc	fe7010d4 <__bss_end__+0xfe6f6f7c>
     cd0:	1300000c 	movwne	r0, #12
     cd4:	000002f4 	strdeq	r0, [r0], -r4
     cd8:	00736f01 	rsbseq	r6, r3, r1, lsl #30
     cdc:	04bf0000 	ldrteq	r0, [pc], #0	; ce4 <_start-0x731c>
     ce0:	d7130000 	ldrle	r0, [r3, -r0]
     ce4:	01000007 	tsteq	r0, r7
     ce8:	0000a26f 	andeq	sl, r0, pc, ror #4
     cec:	00050100 	andeq	r0, r5, r0, lsl #2
     cf0:	0aa11300 	beq	fe8458f8 <__bss_end__+0xfe83b7a0>
     cf4:	6f010000 	svcvs	0x00010000
     cf8:	000000a2 	andeq	r0, r0, r2, lsr #1
     cfc:	00000543 	andeq	r0, r0, r3, asr #10
     d00:	0002e013 	andeq	lr, r2, r3, lsl r0
     d04:	376f0100 	strbcc	r0, [pc, -r0, lsl #2]!
     d08:	85000000 	strhi	r0, [r0, #-0]
     d0c:	17000005 	strne	r0, [r0, -r5]
     d10:	70010068 	andvc	r0, r1, r8, rrx
     d14:	000001ec 	andeq	r0, r0, ip, ror #3
     d18:	000005b1 			; <UNDEFINED> instruction: 0x000005b1
     d1c:	72747017 	rsbsvc	r7, r4, #23
     d20:	93710100 	cmnls	r1, #0, 2
     d24:	d0000000 	andle	r0, r0, r0
     d28:	22000005 	andcs	r0, r0, #5
     d2c:	00000120 	andeq	r0, r0, r0, lsr #2
     d30:	00000c3b 	andeq	r0, r0, fp, lsr ip
     d34:	97640305 	strbls	r0, [r4, -r5, lsl #6]!
     d38:	74170000 	ldrvc	r0, [r7], #-0
     d3c:	0100746f 	tsteq	r0, pc, ror #8
     d40:	00003776 	andeq	r3, r0, r6, ror r7
     d44:	00060500 	andeq	r0, r6, r0, lsl #10
     d48:	006e1700 	rsbeq	r1, lr, r0, lsl #14
     d4c:	00377701 	eorseq	r7, r7, r1, lsl #14
     d50:	066b0000 	strbteq	r0, [fp], -r0
     d54:	c8190000 	ldmdagt	r9, {}	; <UNPREDICTABLE>
     d58:	01000001 	tsteq	r0, r1
     d5c:	00007382 	andeq	r7, r0, r2, lsl #7
     d60:	00069400 	andeq	r9, r6, r0, lsl #8
     d64:	85c42300 	strbhi	r2, [r4, #768]	; 0x300
     d68:	0e860000 	cdpeq	0, 8, cr0, cr6, cr0, {0}
     d6c:	d81e0000 	ldmdale	lr, {}	; <UNPREDICTABLE>
     d70:	30000085 	andcc	r0, r0, r5, lsl #1
     d74:	9300000e 	movwls	r0, #14
     d78:	12000009 	andne	r0, r0, #9
     d7c:	08025301 	stmdaeq	r2, {r0, r8, r9, ip, lr}
     d80:	52011273 	andpl	r1, r1, #805306375	; 0x30000007
     d84:	97640305 	strbls	r0, [r4, -r5, lsl #6]!
     d88:	01120000 	tsteq	r2, r0
     d8c:	30030551 	andcc	r0, r3, r1, asr r5
     d90:	12000098 	andne	r0, r0, #152	; 0x98
     d94:	03055001 	movweq	r5, #20481	; 0x5001
     d98:	000098bc 			; <UNDEFINED> instruction: 0x000098bc
     d9c:	85dc2300 	ldrbhi	r2, [ip, #768]	; 0x300
     da0:	0e8d0000 	cdpeq	0, 8, cr0, cr13, cr0, {0}
     da4:	e41e0000 	ldr	r0, [lr], #-0
     da8:	30000085 	andcc	r0, r0, r5, lsl #1
     dac:	b300000e 	movwlt	r0, #14
     db0:	12000009 	andne	r0, r0, #9
     db4:	03055001 	movweq	r5, #20481	; 0x5001
     db8:	000096c8 	andeq	r9, r0, r8, asr #13
     dbc:	85f01e00 	ldrbhi	r1, [r0, #3584]!	; 0xe00
     dc0:	0e300000 	cdpeq	0, 3, cr0, cr0, cr0, {0}
     dc4:	09d00000 	ldmibeq	r0, {}^	; <UNPREDICTABLE>
     dc8:	01120000 	tsteq	r2, r0
     dcc:	00750251 	rsbseq	r0, r5, r1, asr r2
     dd0:	05500112 	ldrbeq	r0, [r0, #-274]	; 0x112
     dd4:	0098fc03 	addseq	pc, r8, r3, lsl #24
     dd8:	0c1e0000 	ldceq	0, cr0, [lr], {-0}
     ddc:	30000086 	andcc	r0, r0, r6, lsl #1
     de0:	e700000e 	str	r0, [r0, -lr]
     de4:	12000009 	andne	r0, r0, #9
     de8:	03055001 	movweq	r5, #20481	; 0x5001
     dec:	00009914 	andeq	r9, r0, r4, lsl r9
     df0:	86181e00 	ldrhi	r1, [r8], -r0, lsl #28
     df4:	0e300000 	cdpeq	0, 3, cr0, cr0, cr0, {0}
     df8:	0a040000 	beq	100e00 <__bss_end__+0xf6ca8>
     dfc:	01120000 	tsteq	r2, r0
     e00:	00750251 	rsbseq	r0, r5, r1, asr r2
     e04:	05500112 	ldrbeq	r0, [r0, #-274]	; 0x112
     e08:	00992003 	addseq	r2, r9, r3
     e0c:	1c230000 	stcne	0, cr0, [r3], #-0
     e10:	86000086 	strhi	r0, [r0], -r6, lsl #1
     e14:	1e00000e 	cdpne	0, 0, cr0, cr0, cr14, {0}
     e18:	00008634 	andeq	r8, r0, r4, lsr r6
     e1c:	00000e30 	andeq	r0, r0, r0, lsr lr
     e20:	00000a43 	andeq	r0, r0, r3, asr #20
     e24:	02530112 	subseq	r0, r3, #-2147483644	; 0x80000004
     e28:	01127b08 	tsteq	r2, r8, lsl #22
     e2c:	64030552 	strvs	r0, [r3], #-1362	; 0x552
     e30:	12000097 	andne	r0, r0, #151	; 0x97
     e34:	03055101 	movweq	r5, #20737	; 0x5101
     e38:	00009830 	andeq	r9, r0, r0, lsr r8
     e3c:	05500112 	ldrbeq	r0, [r0, #-274]	; 0x112
     e40:	00994803 	addseq	r4, r9, r3, lsl #16
     e44:	7d021200 	sfmvc	f1, 4, [r2, #-0]
     e48:	00750200 	rsbseq	r0, r5, r0, lsl #4
     e4c:	86382300 	ldrthi	r2, [r8], -r0, lsl #6
     e50:	0e8d0000 	cdpeq	0, 8, cr0, cr13, cr0, {0}
     e54:	581e0000 	ldmdapl	lr, {}	; <UNPREDICTABLE>
     e58:	30000086 	andcc	r0, r0, r6, lsl #1
     e5c:	6300000e 	movwvs	r0, #14
     e60:	1200000a 	andne	r0, r0, #10
     e64:	03055001 	movweq	r5, #20481	; 0x5001
     e68:	00009914 	andeq	r9, r0, r4, lsl r9
     e6c:	86741e00 	ldrbthi	r1, [r4], -r0, lsl #28
     e70:	0e300000 	cdpeq	0, 3, cr0, cr0, cr0, {0}
     e74:	0a800000 	beq	fe000e7c <__bss_end__+0xfdff6d24>
     e78:	01120000 	tsteq	r2, r0
     e7c:	00760252 	rsbseq	r0, r6, r2, asr r2
     e80:	05500112 	ldrbeq	r0, [r0, #-274]	; 0x112
     e84:	00998003 	addseq	r8, r9, r3
     e88:	78230000 	stmdavc	r3!, {}	; <UNPREDICTABLE>
     e8c:	86000086 	strhi	r0, [r0], -r6, lsl #1
     e90:	1e00000e 	cdpne	0, 0, cr0, cr0, cr14, {0}
     e94:	000086a0 	andeq	r8, r0, r0, lsr #13
     e98:	00000e30 	andeq	r0, r0, r0, lsr lr
     e9c:	00000abf 			; <UNDEFINED> instruction: 0x00000abf
     ea0:	02530112 	subseq	r0, r3, #-2147483644	; 0x80000004
     ea4:	01127f08 	tsteq	r2, r8, lsl #30
     ea8:	64030552 	strvs	r0, [r3], #-1362	; 0x552
     eac:	12000097 	andne	r0, r0, #151	; 0x97
     eb0:	03055101 	movweq	r5, #20737	; 0x5101
     eb4:	00009830 	andeq	r9, r0, r0, lsr r8
     eb8:	05500112 	ldrbeq	r0, [r0, #-274]	; 0x112
     ebc:	0099ac03 	addseq	sl, r9, r3, lsl #24
     ec0:	7d021200 	sfmvc	f1, 4, [r2, #-0]
     ec4:	00760204 	rsbseq	r0, r6, r4, lsl #4
     ec8:	86a42300 	strthi	r2, [r4], r0, lsl #6
     ecc:	0e8d0000 	cdpeq	0, 8, cr0, cr13, cr0, {0}
     ed0:	dc1e0000 	ldcle	0, cr0, [lr], {-0}
     ed4:	a5000086 	strge	r0, [r0, #-134]	; 0x86
     ed8:	dc000004 	stcle	0, cr0, [r0], {4}
     edc:	1200000a 	andne	r0, r0, #10
     ee0:	74025001 	strvc	r5, [r2], #-1
     ee4:	e81e0000 	ldmda	lr, {}	; <UNPREDICTABLE>
     ee8:	c5000086 	strgt	r0, [r0, #-134]	; 0x86
     eec:	f0000001 			; <UNDEFINED> instruction: 0xf0000001
     ef0:	1200000a 	andne	r0, r0, #10
     ef4:	74025001 	strvc	r5, [r2], #-1
     ef8:	f01e0000 			; <UNDEFINED> instruction: 0xf01e0000
     efc:	55000086 	strpl	r0, [r0, #-134]	; 0x86
     f00:	04000004 	streq	r0, [r0], #-4
     f04:	1200000b 	andne	r0, r0, #11
     f08:	08025101 	stmdaeq	r2, {r0, r8, ip, lr}
     f0c:	f81e0080 			; <UNDEFINED> instruction: 0xf81e0080
     f10:	2a000086 	bcs	1130 <_start-0x6ed0>
     f14:	18000002 	stmdane	r0, {r1}
     f18:	1200000b 	andne	r0, r0, #11
     f1c:	74025001 	strvc	r5, [r2], #-1
     f20:	041e0000 	ldreq	r0, [lr], #-0
     f24:	61000087 	smlabbvs	r0, r7, r0, r0
     f28:	2c000002 	stccs	0, cr0, [r0], {2}
     f2c:	1200000b 	andne	r0, r0, #11
     f30:	74025001 	strvc	r5, [r2], #-1
     f34:	101e0000 	andsne	r0, lr, r0
     f38:	55000087 	strpl	r0, [r0, #-135]	; 0x87
     f3c:	40000004 	andmi	r0, r0, r4
     f40:	1200000b 	andne	r0, r0, #11
     f44:	77025001 	strvc	r5, [r2, -r1]
     f48:	281e0000 	ldmdacs	lr, {}	; <UNPREDICTABLE>
     f4c:	f2000087 	vhadd.s8	d0, d16, d7
     f50:	54000001 	strpl	r0, [r0], #-1
     f54:	1200000b 	andne	r0, r0, #11
     f58:	74025001 	strvc	r5, [r2], #-1
     f5c:	341e0000 	ldrcc	r0, [lr], #-0
     f60:	fc000087 	stc2	0, cr0, [r0], {135}	; 0x87
     f64:	68000004 	stmdavs	r0, {r2}
     f68:	1200000b 	andne	r0, r0, #11
     f6c:	74025001 	strvc	r5, [r2], #-1
     f70:	40230000 	eormi	r0, r3, r0
     f74:	86000087 	strhi	r0, [r0], -r7, lsl #1
     f78:	1e00000e 	cdpne	0, 0, cr0, cr0, cr14, {0}
     f7c:	00008754 	andeq	r8, r0, r4, asr r7
     f80:	00000e30 	andeq	r0, r0, r0, lsr lr
     f84:	00000ba0 	andeq	r0, r0, r0, lsr #23
     f88:	02530112 	subseq	r0, r3, #-2147483644	; 0x80000004
     f8c:	01129808 	tsteq	r2, r8, lsl #16
     f90:	64030552 	strvs	r0, [r3], #-1362	; 0x552
     f94:	12000097 	andne	r0, r0, #151	; 0x97
     f98:	03055101 	movweq	r5, #20737	; 0x5101
     f9c:	00009830 	andeq	r9, r0, r0, lsr r8
     fa0:	05500112 	ldrbeq	r0, [r0, #-274]	; 0x112
     fa4:	0099e803 	addseq	lr, r9, r3, lsl #16
     fa8:	58230000 	stmdapl	r3!, {}	; <UNPREDICTABLE>
     fac:	8d000087 	stchi	0, cr0, [r0, #-540]	; 0xfffffde4
     fb0:	1e00000e 	cdpne	0, 0, cr0, cr0, cr14, {0}
     fb4:	00008760 	andeq	r8, r0, r0, ror #14
     fb8:	00000620 	andeq	r0, r0, r0, lsr #12
     fbc:	00000bbd 			; <UNDEFINED> instruction: 0x00000bbd
     fc0:	02500112 	subseq	r0, r0, #-2147483644	; 0x80000004
     fc4:	23000074 	movwcs	r0, #116	; 0x74
     fc8:	0000876c 	andeq	r8, r0, ip, ror #14
     fcc:	00000e86 	andeq	r0, r0, r6, lsl #29
     fd0:	0087801e 	addeq	r8, r7, lr, lsl r0
     fd4:	000e3000 	andeq	r3, lr, r0
     fd8:	000bf500 	andeq	pc, fp, r0, lsl #10
     fdc:	53011200 	movwpl	r1, #4608	; 0x1200
     fe0:	12990802 	addsne	r0, r9, #131072	; 0x20000
     fe4:	03055201 	movweq	r5, #20993	; 0x5201
     fe8:	00009764 	andeq	r9, r0, r4, ror #14
     fec:	05510112 	ldrbeq	r0, [r1, #-274]	; 0x112
     ff0:	00983003 	addseq	r3, r8, r3
     ff4:	50011200 	andpl	r1, r1, r0, lsl #4
     ff8:	9a080305 	bls	201c14 <__bss_end__+0x1f7abc>
     ffc:	23000000 	movwcs	r0, #0
    1000:	00008784 	andeq	r8, r0, r4, lsl #15
    1004:	00000e8d 	andeq	r0, r0, sp, lsl #29
    1008:	00878c1e 	addeq	r8, r7, lr, lsl ip
    100c:	000e3000 	andeq	r3, lr, r0
    1010:	000c1500 	andeq	r1, ip, r0, lsl #10
    1014:	50011200 	andpl	r1, r1, r0, lsl #4
    1018:	96c80305 	strbls	r0, [r8], r5, lsl #6
    101c:	11000000 	mrsne	r0, (UNDEF: 0)
    1020:	000087a0 	andeq	r8, r0, r0, lsr #15
    1024:	00000e30 	andeq	r0, r0, r0, lsr lr
    1028:	02530112 	subseq	r0, r3, #-2147483644	; 0x80000004
    102c:	01120077 	tsteq	r2, r7, ror r0
    1030:	00760252 	rsbseq	r0, r6, r2, asr r2
    1034:	02510112 	subseq	r0, r1, #-2147483644	; 0x80000004
    1038:	01120075 	tsteq	r2, r5, ror r0
    103c:	28030550 	stmdacs	r3, {r4, r6, r8, sl}
    1040:	0000009a 	muleq	r0, sl, r0
    1044:	00ad0700 	adceq	r0, sp, r0, lsl #14
    1048:	67250000 	strvs	r0, [r5, -r0]!
    104c:	01000000 	mrseq	r0, (UNDEF: 0)
    1050:	000025a1 	andeq	r2, r0, r1, lsr #11
    1054:	0087e400 	addeq	lr, r7, r0, lsl #8
    1058:	00014800 	andeq	r4, r1, r0, lsl #16
    105c:	f79c0100 			; <UNDEFINED> instruction: 0xf79c0100
    1060:	1900000d 	stmdbne	r0, {r0, r2, r3}
    1064:	00000210 	andeq	r0, r0, r0, lsl r2
    1068:	0037a201 	eorseq	sl, r7, r1, lsl #4
    106c:	06c00000 	strbeq	r0, [r0], r0
    1070:	22190000 	andscs	r0, r9, #0
    1074:	01000003 	tsteq	r0, r3
    1078:	000037a3 	andeq	r3, r0, r3, lsr #15
    107c:	0006d300 	andeq	sp, r6, r0, lsl #6
    1080:	02b01900 	adcseq	r1, r0, #0, 18
    1084:	a7010000 	strge	r0, [r1, -r0]
    1088:	00000037 	andeq	r0, r0, r7, lsr r0
    108c:	000006e6 	andeq	r0, r0, r6, ror #13
    1090:	00026519 	andeq	r6, r2, r9, lsl r5
    1094:	37a80100 	strcc	r0, [r8, r0, lsl #2]!
    1098:	05000000 	streq	r0, [r0, #-0]
    109c:	21000007 	tstcs	r0, r7
    10a0:	00000235 	andeq	r0, r0, r5, lsr r2
    10a4:	0df7aa01 	ldcleq	10, cr10, [r7, #4]!
    10a8:	54010000 	strpl	r0, [r1], #-0
    10ac:	00001826 	andeq	r1, r0, r6, lsr #16
    10b0:	000d5800 	andeq	r5, sp, r0, lsl #16
    10b4:	00681700 	rsbeq	r1, r8, r0, lsl #14
    10b8:	01ecac01 	mvneq	sl, r1, lsl #24
    10bc:	07240000 	streq	r0, [r4, -r0]!
    10c0:	3c1e0000 	ldccc	0, cr0, [lr], {-0}
    10c4:	fc000088 	stc2	0, cr0, [r0], {136}	; 0x88
    10c8:	cc000004 	stcgt	0, cr0, [r0], {4}
    10cc:	1200000c 	andne	r0, r0, #12
    10d0:	74025001 	strvc	r5, [r2], #-1
    10d4:	4c1e0000 	ldcmi	0, cr0, [lr], {-0}
    10d8:	30000088 	andcc	r0, r0, r8, lsl #1
    10dc:	e000000e 	and	r0, r0, lr
    10e0:	1200000c 	andne	r0, r0, #12
    10e4:	79025001 	stmdbvc	r2, {r0, ip, lr}
    10e8:	541e0000 	ldrpl	r0, [lr], #-0
    10ec:	30000088 	andcc	r0, r0, r8, lsl #1
    10f0:	f700000e 			; <UNDEFINED> instruction: 0xf700000e
    10f4:	1200000c 	andne	r0, r0, #12
    10f8:	03055001 	movweq	r5, #20481	; 0x5001
    10fc:	00009a90 	muleq	r0, r0, sl
    1100:	88641e00 	stmdahi	r4!, {r9, sl, fp, ip}^
    1104:	06200000 	strteq	r0, [r0], -r0
    1108:	0d0b0000 	stceq	0, cr0, [fp, #-0]
    110c:	01120000 	tsteq	r2, r0
    1110:	00740250 	rsbseq	r0, r4, r0, asr r2
    1114:	88801e00 	stmhi	r0, {r9, sl, fp, ip}
    1118:	01f20000 	mvnseq	r0, r0
    111c:	0d1f0000 	ldceq	0, cr0, [pc, #-0]	; 1124 <_start-0x6edc>
    1120:	01120000 	tsteq	r2, r0
    1124:	00740250 	rsbseq	r0, r4, r0, asr r2
    1128:	88901e00 	ldmhi	r0, {r9, sl, fp, ip}
    112c:	02d60000 	sbcseq	r0, r6, #0
    1130:	0d330000 	ldceq	0, cr0, [r3, #-0]
    1134:	01120000 	tsteq	r2, r0
    1138:	00740250 	rsbseq	r0, r4, r0, asr r2
    113c:	88a01e00 	stmiahi	r0!, {r9, sl, fp, ip}
    1140:	0e300000 	cdpeq	0, 3, cr0, cr0, cr0, {0}
    1144:	0d470000 	stcleq	0, cr0, [r7, #-0]
    1148:	01120000 	tsteq	r2, r0
    114c:	00790250 	rsbseq	r0, r9, r0, asr r2
    1150:	88a81100 	stmiahi	r8!, {r8, ip}
    1154:	0e300000 	cdpeq	0, 3, cr0, cr0, cr0, {0}
    1158:	01120000 	tsteq	r2, r0
    115c:	00780250 	rsbseq	r0, r8, r0, asr r2
    1160:	081e0000 	ldmdaeq	lr, {}	; <UNPREDICTABLE>
    1164:	30000088 	andcc	r0, r0, r8, lsl #1
    1168:	6f00000e 	svcvs	0x0000000e
    116c:	1200000d 	andne	r0, r0, #13
    1170:	03055001 	movweq	r5, #20481	; 0x5001
    1174:	000096c8 	andeq	r9, r0, r8, asr #13
    1178:	88181e00 	ldmdahi	r8, {r9, sl, fp, ip}
    117c:	0e300000 	cdpeq	0, 3, cr0, cr0, cr0, {0}
    1180:	0d920000 	ldceq	0, cr0, [r2]
    1184:	01120000 	tsteq	r2, r0
    1188:	00750252 	rsbseq	r0, r5, r2, asr r2
    118c:	02510112 	subseq	r0, r1, #-2147483644	; 0x80000004
    1190:	01120076 	tsteq	r2, r6, ror r0
    1194:	58030550 	stmdapl	r3, {r4, r6, r8, sl}
    1198:	0000009a 	muleq	r0, sl, r0
    119c:	0088e01e 	addeq	lr, r8, lr, lsl r0
    11a0:	000e3000 	andeq	r3, lr, r0
    11a4:	000da600 	andeq	sl, sp, r0, lsl #12
    11a8:	50011200 	andpl	r1, r1, r0, lsl #4
    11ac:	00007902 	andeq	r7, r0, r2, lsl #18
    11b0:	0088f01e 	addeq	pc, r8, lr, lsl r0	; <UNPREDICTABLE>
    11b4:	000e3000 	andeq	r3, lr, r0
    11b8:	000dc900 	andeq	ip, sp, r0, lsl #18
    11bc:	52011200 	andpl	r1, r1, #0, 4
    11c0:	12007602 	andne	r7, r0, #2097152	; 0x200000
    11c4:	75025101 	strvc	r5, [r2, #-257]	; 0x101
    11c8:	50011200 	andpl	r1, r1, r0, lsl #4
    11cc:	9ac00305 	bls	ff001de8 <__bss_end__+0xfeff7c90>
    11d0:	1e000000 	cdpne	0, 0, cr0, cr0, cr0, {0}
    11d4:	000088fc 	strdeq	r8, [r0], -ip
    11d8:	00000e30 	andeq	r0, r0, r0, lsr lr
    11dc:	00000ddd 	ldrdeq	r0, [r0], -sp
    11e0:	02500112 	subseq	r0, r0, #-2147483644	; 0x80000004
    11e4:	11000079 	tstne	r0, r9, ror r0
    11e8:	00008908 	andeq	r8, r0, r8, lsl #18
    11ec:	00000e30 	andeq	r0, r0, r0, lsr lr
    11f0:	02510112 	subseq	r0, r1, #-2147483644	; 0x80000004
    11f4:	01120075 	tsteq	r2, r5, ror r0
    11f8:	e8030550 	stmda	r3, {r4, r6, r8, sl}
    11fc:	0000009a 	muleq	r0, sl, r0
    1200:	5a040600 	bpl	102a08 <__bss_end__+0xf88b0>
    1204:	21000000 	mrscs	r0, (UNDEF: 0)
    1208:	00000297 	muleq	r0, r7, r2
    120c:	0df70701 	ldcleq	7, cr0, [r7, #4]!
    1210:	03050000 	movweq	r0, #20480	; 0x5000
    1214:	00009d4c 	andeq	r9, r0, ip, asr #26
    1218:	000c5521 	andeq	r5, ip, r1, lsr #10
    121c:	f7070100 			; <UNDEFINED> instruction: 0xf7070100
    1220:	0500000d 	streq	r0, [r0, #-13]
    1224:	009d5003 	addseq	r5, sp, r3
    1228:	0c422100 	stfeqe	f2, [r2], {-0}
    122c:	07010000 	streq	r0, [r1, -r0]
    1230:	00000df7 	strdeq	r0, [r0], -r7
    1234:	9d480305 	stclls	3, cr0, [r8, #-20]	; 0xffffffec
    1238:	b8270000 	stmdalt	r7!, {}	; <UNPREDICTABLE>
    123c:	05000003 	streq	r0, [r0, #-3]
    1240:	00002529 	andeq	r2, r0, r9, lsr #10
    1244:	000e4600 	andeq	r4, lr, r0, lsl #12
    1248:	00a22800 	adceq	r2, r2, r0, lsl #16
    124c:	00290000 	eoreq	r0, r9, r0
    1250:	0002e727 	andeq	lr, r2, r7, lsr #14
    1254:	931b0600 	tstls	fp, #0, 12
    1258:	65000000 	strvs	r0, [r0, #-0]
    125c:	2800000e 	stmdacs	r0, {r1, r2, r3}
    1260:	00000093 	muleq	r0, r3, r0
    1264:	00002528 	andeq	r2, r0, r8, lsr #10
    1268:	002c2800 	eoreq	r2, ip, r0, lsl #16
    126c:	27000000 	strcs	r0, [r0, -r0]
    1270:	000001be 			; <UNDEFINED> instruction: 0x000001be
    1274:	00730507 	rsbseq	r0, r3, r7, lsl #10
    1278:	0e7f0000 	cdpeq	0, 7, cr0, cr15, cr0, {0}
    127c:	7f280000 	svcvc	0x00280000
    1280:	2800000e 	stmdacs	r0, {r1, r2, r3}
    1284:	00000025 	andeq	r0, r0, r5, lsr #32
    1288:	85040600 	strhi	r0, [r4, #-1536]	; 0x600
    128c:	2a00000e 	bcs	12cc <_start-0x6d34>
    1290:	0001942b 	andeq	r9, r1, fp, lsr #8
    1294:	2b1e0500 	blcs	78269c <__bss_end__+0x778544>
    1298:	00000092 	muleq	r0, r2, r0
    129c:	12006505 	andne	r6, r0, #20971520	; 0x1400000
    12a0:	04000001 	streq	r0, [r0], #-1
    12a4:	00038300 	andeq	r8, r3, r0, lsl #6
    12a8:	08010400 	stmdaeq	r1, {sl}
    12ac:	01000000 	mrseq	r0, (UNDEF: 0)
    12b0:	00000338 	andeq	r0, r0, r8, lsr r3
    12b4:	00000344 	andeq	r0, r0, r4, asr #6
    12b8:	0000892c 	andeq	r8, r0, ip, lsr #18
    12bc:	000000f0 	strdeq	r0, [r0], -r0	; <UNPREDICTABLE>
    12c0:	000003cc 	andeq	r0, r0, ip, asr #7
    12c4:	69050402 	stmdbvs	r5, {r1, sl}
    12c8:	0300746e 	movweq	r7, #1134	; 0x46e
    12cc:	013f0704 	teqeq	pc, r4, lsl #14
    12d0:	01030000 	mrseq	r0, (UNDEF: 3)
    12d4:	00008606 	andeq	r8, r0, r6, lsl #12
    12d8:	05020300 	streq	r0, [r2, #-768]	; 0x300
    12dc:	0000016a 	andeq	r0, r0, sl, ror #2
    12e0:	5a050403 	bpl	1422f4 <__bss_end__+0x13819c>
    12e4:	03000001 	movweq	r0, #1
    12e8:	01550508 	cmpeq	r5, r8, lsl #10
    12ec:	09040000 	stmdbeq	r4, {}	; <UNPREDICTABLE>
    12f0:	02000003 	andeq	r0, r0, #3
    12f4:	00005a2e 	andeq	r5, r0, lr, lsr #20
    12f8:	08010300 	stmdaeq	r1, {r8, r9}
    12fc:	00000084 	andeq	r0, r0, r4, lsl #1
    1300:	fa070203 	blx	1c1b14 <__bss_end__+0x1b79bc>
    1304:	04000000 	streq	r0, [r0], #-0
    1308:	00000174 	andeq	r0, r0, r4, ror r1
    130c:	00733402 	rsbseq	r3, r3, r2, lsl #8
    1310:	04030000 	streq	r0, [r3], #-0
    1314:	00013a07 	andeq	r3, r1, r7, lsl #20
    1318:	07080300 	streq	r0, [r8, -r0, lsl #6]
    131c:	00000135 	andeq	r0, r0, r5, lsr r1
    1320:	4c070403 	cfstrsmi	mvf0, [r7], {3}
    1324:	03000001 	movweq	r0, #1
    1328:	008d0801 	addeq	r0, sp, r1, lsl #16
    132c:	04050000 	streq	r0, [r5], #-0
    1330:	00000095 	muleq	r0, r5, r0
    1334:	00008806 	andeq	r8, r0, r6, lsl #16
    1338:	01be0700 			; <UNDEFINED> instruction: 0x01be0700
    133c:	0f010000 	svceq	0x00010000
    1340:	00000068 	andeq	r0, r0, r8, rrx
    1344:	0000892c 	andeq	r8, r0, ip, lsr #18
    1348:	000000f0 	strdeq	r0, [r0], -r0	; <UNPREDICTABLE>
    134c:	010e9c01 	tsteq	lr, r1, lsl #24
    1350:	b6080000 	strlt	r0, [r8], -r0
    1354:	0100000a 	tsteq	r0, sl
    1358:	00010e0f 	andeq	r0, r1, pc, lsl #28
    135c:	00073700 	andeq	r3, r7, r0, lsl #14
    1360:	656c0900 	strbvs	r0, [ip, #-2304]!	; 0x900
    1364:	0f01006e 	svceq	0x0001006e
    1368:	00000025 	andeq	r0, r0, r5, lsr #32
    136c:	00000771 	andeq	r0, r0, r1, ror r7
    1370:	000ab70a 	andeq	fp, sl, sl, lsl #14
    1374:	8f100100 	svchi	0x00100100
    1378:	b0000000 	andlt	r0, r0, r0
    137c:	0a000007 	beq	13a0 <_start-0x6c60>
    1380:	000001c3 	andeq	r0, r0, r3, asr #3
    1384:	00681101 	rsbeq	r1, r8, r1, lsl #2
    1388:	07ef0000 	strbeq	r0, [pc, r0]!
    138c:	740b0000 	strvc	r0, [fp], #-0
    1390:	0100706d 	tsteq	r0, sp, rrx
    1394:	00006811 	andeq	r6, r0, r1, lsl r8
    1398:	00083900 	andeq	r3, r8, r0, lsl #18
    139c:	65720b00 	ldrbvs	r0, [r2, #-2816]!	; 0xb00
    13a0:	1201006d 	andne	r0, r1, #109	; 0x6d
    13a4:	00000025 	andeq	r0, r0, r5, lsr #32
    13a8:	00000884 	andeq	r0, r0, r4, lsl #17
    13ac:	14040500 	strne	r0, [r4], #-1280	; 0x500
    13b0:	0c000001 	stceq	0, cr0, [r0], {1}
    13b4:	0000db00 	andeq	sp, r0, r0, lsl #22
    13b8:	27000400 	strcs	r0, [r0, -r0, lsl #8]
    13bc:	04000004 	streq	r0, [r0], #-4
    13c0:	00000801 	andeq	r0, r0, r1, lsl #16
    13c4:	038a0100 	orreq	r0, sl, #0, 2
    13c8:	03440000 	movteq	r0, #16384	; 0x4000
    13cc:	8a1c0000 	bhi	7013d4 <__bss_end__+0x6f727c>
    13d0:	00200000 	eoreq	r0, r0, r0
    13d4:	04ae0000 	strteq	r0, [lr], #0
    13d8:	01020000 	mrseq	r0, (UNDEF: 2)
    13dc:	00008606 	andeq	r8, r0, r6, lsl #12
    13e0:	08010200 	stmdaeq	r1, {r9}
    13e4:	00000084 	andeq	r0, r0, r4, lsl #1
    13e8:	6a050202 	bvs	141bf8 <__bss_end__+0x137aa0>
    13ec:	02000001 	andeq	r0, r0, #1
    13f0:	00fa0702 	rscseq	r0, sl, r2, lsl #14
    13f4:	04030000 	streq	r0, [r3], #-0
    13f8:	746e6905 	strbtvc	r6, [lr], #-2309	; 0x905
    13fc:	07040200 	streq	r0, [r4, -r0, lsl #4]
    1400:	0000013f 	andeq	r0, r0, pc, lsr r1
    1404:	55050802 	strpl	r0, [r5, #-2050]	; 0x802
    1408:	02000001 	andeq	r0, r0, #1
    140c:	01350708 	teqeq	r5, r8, lsl #14
    1410:	04020000 	streq	r0, [r2], #-0
    1414:	00015a05 	andeq	r5, r1, r5, lsl #20
    1418:	07040200 	streq	r0, [r4, -r0, lsl #4]
    141c:	0000014c 	andeq	r0, r0, ip, asr #2
    1420:	04020404 	streq	r0, [r2], #-1028	; 0x404
    1424:	00013a07 	andeq	r3, r1, r7, lsl #20
    1428:	7a040500 	bvc	102830 <__bss_end__+0xf86d8>
    142c:	02000000 	andeq	r0, r0, #0
    1430:	008d0801 	addeq	r0, sp, r1, lsl #16
    1434:	ab060000 	blge	18143c <__bss_end__+0x1772e4>
    1438:	02000001 	andeq	r0, r0, #1
    143c:	000048d4 	ldrdeq	r4, [r0], -r4	; <UNPREDICTABLE>
    1440:	02e70700 	rsceq	r0, r7, #0, 14
    1444:	1b030000 	blne	c144c <__bss_end__+0xb72f4>
    1448:	0000006b 	andeq	r0, r0, fp, rrx
    144c:	00008a1c 	andeq	r8, r0, ip, lsl sl
    1450:	00000020 	andeq	r0, r0, r0, lsr #32
    1454:	5f089c01 	svcpl	0x00089c01
    1458:	03010070 	movweq	r0, #4208	; 0x1070
    145c:	0000006b 	andeq	r0, r0, fp, rrx
    1460:	63085001 	movwvs	r5, #32769	; 0x8001
    1464:	41030100 	mrsmi	r0, (UNDEF: 19)
    1468:	01000000 	mrseq	r0, (UNDEF: 0)
    146c:	006e0951 	rsbeq	r0, lr, r1, asr r9
    1470:	00810301 	addeq	r0, r1, r1, lsl #6
    1474:	08970000 	ldmeq	r7, {}	; <UNPREDICTABLE>
    1478:	700a0000 	andvc	r0, sl, r0
    147c:	74040100 	strvc	r0, [r4], #-256	; 0x100
    1480:	b8000000 	stmdalt	r0, {}	; <UNPREDICTABLE>
    1484:	0b000008 	bleq	14ac <_start-0x6b54>
    1488:	04010065 	streq	r0, [r1], #-101	; 0x65
    148c:	00000074 	andeq	r0, r0, r4, ror r0
    1490:	00005201 	andeq	r5, r0, r1, lsl #4
    1494:	00000191 	muleq	r0, r1, r1
    1498:	04c40004 	strbeq	r0, [r4], #4
    149c:	01040000 	mrseq	r0, (UNDEF: 4)
    14a0:	00000008 	andeq	r0, r0, r8
    14a4:	0003a701 	andeq	sl, r3, r1, lsl #14
    14a8:	00034400 	andeq	r4, r3, r0, lsl #8
    14ac:	008a3c00 	addeq	r3, sl, r0, lsl #24
    14b0:	00005800 	andeq	r5, r0, r0, lsl #16
    14b4:	00059e00 	andeq	r9, r5, r0, lsl #28
    14b8:	03980200 	orrseq	r0, r8, #0, 4
    14bc:	28020000 	stmdacs	r2, {}	; <UNPREDICTABLE>
    14c0:	00000030 	andeq	r0, r0, r0, lsr r0
    14c4:	0003bf03 	andeq	fp, r3, r3, lsl #30
    14c8:	00030400 	andeq	r0, r3, r0, lsl #8
    14cc:	00000047 	andeq	r0, r0, r7, asr #32
    14d0:	0003c904 	andeq	ip, r3, r4, lsl #18
    14d4:	00004700 	andeq	r4, r0, r0, lsl #14
    14d8:	05000000 	streq	r0, [r0, #-0]
    14dc:	03c10204 	biceq	r0, r1, #4, 4	; 0x40000000
    14e0:	62020000 	andvs	r0, r2, #0
    14e4:	00000025 	andeq	r0, r0, r5, lsr #32
    14e8:	69050406 	stmdbvs	r5, {r1, r2, sl}
    14ec:	0700746e 	streq	r7, [r0, -lr, ror #8]
    14f0:	013f0704 	teqeq	pc, r4, lsl #14
    14f4:	01070000 	mrseq	r0, (UNDEF: 7)
    14f8:	00008606 	andeq	r8, r0, r6, lsl #12
    14fc:	05020700 	streq	r0, [r2, #-1792]	; 0x700
    1500:	0000016a 	andeq	r0, r0, sl, ror #2
    1504:	5a050407 	bpl	142528 <__bss_end__+0x1383d0>
    1508:	07000001 	streq	r0, [r0, -r1]
    150c:	01550508 	cmpeq	r5, r8, lsl #10
    1510:	01070000 	mrseq	r0, (UNDEF: 7)
    1514:	00008408 	andeq	r8, r0, r8, lsl #8
    1518:	07020700 	streq	r0, [r2, -r0, lsl #14]
    151c:	000000fa 	strdeq	r0, [r0], -sl
    1520:	3a070407 	bcc	1c2544 <__bss_end__+0x1b83ec>
    1524:	07000001 	streq	r0, [r0, -r1]
    1528:	01350708 	teqeq	r5, r8, lsl #14
    152c:	04070000 	streq	r0, [r7], #-0
    1530:	00014c07 	andeq	r4, r1, r7, lsl #24
    1534:	a7040800 	strge	r0, [r4, -r0, lsl #16]
    1538:	07000000 	streq	r0, [r0, -r0]
    153c:	008d0801 	addeq	r0, sp, r1, lsl #16
    1540:	04080000 	streq	r0, [r8], #-0
    1544:	000000b4 	strheq	r0, [r0], -r4
    1548:	0000a709 	andeq	sl, r0, r9, lsl #14
    154c:	03b80a00 			; <UNDEFINED> instruction: 0x03b80a00
    1550:	06010000 	streq	r0, [r1], -r0
    1554:	00000054 	andeq	r0, r0, r4, asr r0
    1558:	00008a3c 	andeq	r8, r0, ip, lsr sl
    155c:	00000058 	andeq	r0, r0, r8, asr r0
    1560:	01439c01 	cmpeq	r3, r1, lsl #24
    1564:	660b0000 	strvs	r0, [fp], -r0
    1568:	0100746d 	tsteq	r0, sp, ror #8
    156c:	0000ae06 	andeq	sl, r0, r6, lsl #28
    1570:	70910200 	addsvc	r0, r1, r0, lsl #4
    1574:	75620d0c 	strbvc	r0, [r2, #-3340]!	; 0xd0c
    1578:	08010066 	stmdaeq	r1, {r1, r2, r5, r6}
    157c:	00000143 	andeq	r0, r0, r3, asr #2
    1580:	9d540305 	ldclls	3, cr0, [r4, #-20]	; 0xffffffec
    1584:	ae0e0000 	cdpge	0, 0, cr0, cr14, cr0, {0}
    1588:	01000006 	tsteq	r0, r6
    158c:	00004909 	andeq	r4, r0, r9, lsl #18
    1590:	5c910200 	lfmpl	f0, 4, [r1], {0}
    1594:	007a730f 	rsbseq	r7, sl, pc, lsl #6
    1598:	00540c01 	subseq	r0, r4, r1, lsl #24
    159c:	08e30000 	stmiaeq	r3!, {}^	; <UNPREDICTABLE>
    15a0:	64100000 	ldrvs	r0, [r0], #-0
    15a4:	7400008a 	strvc	r0, [r0], #-138	; 0x8a
    15a8:	36000001 	strcc	r0, [r0], -r1
    15ac:	11000001 	tstne	r0, r1
    15b0:	91025301 	tstls	r2, r1, lsl #6
    15b4:	5201114c 	andpl	r1, r1, #76, 2
    15b8:	06489103 	strbeq	r9, [r8], -r3, lsl #2
    15bc:	03510111 	cmpeq	r1, #1073741828	; 0x40000004
    15c0:	1104000a 	tstne	r4, sl
    15c4:	74025001 	strvc	r5, [r2], #-1
    15c8:	78120000 	ldmdavc	r2, {}	; <UNPREDICTABLE>
    15cc:	1100008a 	smlabbne	r0, sl, r0, r0
    15d0:	74025001 	strvc	r5, [r2], #-1
    15d4:	13000000 	movwne	r0, #0
    15d8:	000000a7 	andeq	r0, r0, r7, lsr #1
    15dc:	00000154 	andeq	r0, r0, r4, asr r1
    15e0:	00009a14 	andeq	r9, r0, r4, lsl sl
    15e4:	0003ff00 	andeq	pc, r3, r0, lsl #30
    15e8:	00005415 	andeq	r5, r0, r5, lsl r4
    15ec:	00016300 	andeq	r6, r1, r0, lsl #6
    15f0:	00ae1600 	adceq	r1, lr, r0, lsl #12
    15f4:	17000000 	strne	r0, [r0, -r0]
    15f8:	00000426 	andeq	r0, r0, r6, lsr #8
    15fc:	016e2204 	cmneq	lr, r4, lsl #4
    1600:	04080000 	streq	r0, [r8], #-0
    1604:	00000154 	andeq	r0, r0, r4, asr r1
    1608:	0003b518 	andeq	fp, r3, r8, lsl r5
    160c:	54020500 	strpl	r0, [r2], #-1280	; 0x500
    1610:	16000000 	strne	r0, [r0], -r0
    1614:	000000a1 	andeq	r0, r0, r1, lsr #1
    1618:	00005416 	andeq	r5, r0, r6, lsl r4
    161c:	00ae1600 	adceq	r1, lr, r0, lsl #12
    1620:	49160000 	ldmdbmi	r6, {}	; <UNPREDICTABLE>
    1624:	00000000 	andeq	r0, r0, r0
    1628:	00011300 	andeq	r1, r1, r0, lsl #6
    162c:	f5000400 			; <UNDEFINED> instruction: 0xf5000400
    1630:	04000005 	streq	r0, [r0], #-5
    1634:	00000801 	andeq	r0, r0, r1, lsl #16
    1638:	03f50100 	mvnseq	r0, #0, 2
    163c:	03440000 	movteq	r0, #16384	; 0x4000
    1640:	8a940000 	bhi	fe501648 <__bss_end__+0xfe4f74f0>
    1644:	003c0000 	eorseq	r0, ip, r0
    1648:	06ae0000 	strteq	r0, [lr], r0
    164c:	04020000 	streq	r0, [r2], #-0
    1650:	746e6905 	strbtvc	r6, [lr], #-2309	; 0x905
    1654:	07040300 	streq	r0, [r4, -r0, lsl #6]
    1658:	0000013f 	andeq	r0, r0, pc, lsr r1
    165c:	86060103 	strhi	r0, [r6], -r3, lsl #2
    1660:	03000000 	movweq	r0, #0
    1664:	016a0502 	cmneq	sl, r2, lsl #10
    1668:	04030000 	streq	r0, [r3], #-0
    166c:	00015a05 	andeq	r5, r1, r5, lsl #20
    1670:	05080300 	streq	r0, [r8, #-768]	; 0x300
    1674:	00000155 	andeq	r0, r0, r5, asr r1
    1678:	84080103 	strhi	r0, [r8], #-259	; 0x103
    167c:	03000000 	movweq	r0, #0
    1680:	00fa0702 	rscseq	r0, sl, r2, lsl #14
    1684:	04030000 	streq	r0, [r3], #-0
    1688:	00013a07 	andeq	r3, r1, r7, lsl #20
    168c:	07080300 	streq	r0, [r8, -r0, lsl #6]
    1690:	00000135 	andeq	r0, r0, r5, lsr r1
    1694:	4c070403 	cfstrsmi	mvf0, [r7], {3}
    1698:	03000001 	movweq	r0, #1
    169c:	008d0801 	addeq	r0, sp, r1, lsl #16
    16a0:	d8040000 	stmdale	r4, {}	; <UNPREDICTABLE>
    16a4:	01000003 	tsteq	r0, r3
    16a8:	00002503 	andeq	r2, r0, r3, lsl #10
    16ac:	008a9400 	addeq	r9, sl, r0, lsl #8
    16b0:	00001400 	andeq	r1, r0, r0, lsl #8
    16b4:	b09c0100 	addslt	r0, ip, r0, lsl #2
    16b8:	05000000 	streq	r0, [r0, #-0]
    16bc:	03010063 	movweq	r0, #4195	; 0x1063
    16c0:	00000025 	andeq	r0, r0, r5, lsr #32
    16c4:	0000090c 	andeq	r0, r0, ip, lsl #18
    16c8:	008aa006 	addeq	sl, sl, r6
    16cc:	00010900 	andeq	r0, r1, r0, lsl #18
    16d0:	50010700 	andpl	r0, r1, r0, lsl #14
    16d4:	00007402 	andeq	r7, r0, r2, lsl #8
    16d8:	01940800 	orrseq	r0, r4, r0, lsl #16
    16dc:	08010000 	stmdaeq	r1, {}	; <UNPREDICTABLE>
    16e0:	00008aa8 	andeq	r8, r0, r8, lsr #21
    16e4:	00000018 	andeq	r0, r0, r8, lsl r0
    16e8:	04099c01 	streq	r9, [r9], #-3073	; 0xc01
    16ec:	01000004 	tsteq	r0, r4
    16f0:	008ac00b 	addeq	ip, sl, fp
    16f4:	00001000 	andeq	r1, r0, r0
    16f8:	e39c0100 	orrs	r0, ip, #0, 2
    16fc:	0a000000 	beq	1704 <_start-0x68fc>
    1700:	01007066 	tsteq	r0, r6, rrx
    1704:	0000f20b 	andeq	pc, r0, fp, lsl #4
    1708:	00500100 	subseq	r0, r0, r0, lsl #2
    170c:	0000250b 	andeq	r2, r0, fp, lsl #10
    1710:	0000f200 	andeq	pc, r0, r0, lsl #4
    1714:	00250c00 	eoreq	r0, r5, r0, lsl #24
    1718:	0d000000 	stceq	0, cr0, [r0, #-0]
    171c:	0000e304 	andeq	lr, r0, r4, lsl #6
    1720:	03e90e00 	mvneq	r0, #0, 28
    1724:	06010000 	streq	r0, [r1], -r0
    1728:	000000f2 	strdeq	r0, [r0], -r2
    172c:	96600305 	strbtls	r0, [r0], -r5, lsl #6
    1730:	ce0f0000 	cdpgt	0, 0, cr0, cr15, cr0, {0}
    1734:	02000003 	andeq	r0, r0, #3
    1738:	002c0c3c 	eoreq	r0, ip, ip, lsr ip
    173c:	00000000 	andeq	r0, r0, r0
    1740:	000000ee 	andeq	r0, r0, lr, ror #1
    1744:	06dd0004 	ldrbeq	r0, [sp], r4
    1748:	01040000 	mrseq	r0, (UNDEF: 4)
    174c:	00000008 	andeq	r0, r0, r8
    1750:	00041101 	andeq	r1, r4, r1, lsl #2
    1754:	00034400 	andeq	r4, r3, r0, lsl #8
    1758:	008ad000 	addeq	sp, sl, r0
    175c:	00003400 	andeq	r3, r0, r0, lsl #8
    1760:	00074600 	andeq	r4, r7, r0, lsl #12
    1764:	05040200 	streq	r0, [r4, #-512]	; 0x200
    1768:	00746e69 	rsbseq	r6, r4, r9, ror #28
    176c:	3f070403 	svccc	0x00070403
    1770:	03000001 	movweq	r0, #1
    1774:	00860601 	addeq	r0, r6, r1, lsl #12
    1778:	02030000 	andeq	r0, r3, #0
    177c:	00016a05 	andeq	r6, r1, r5, lsl #20
    1780:	05040300 	streq	r0, [r4, #-768]	; 0x300
    1784:	0000015a 	andeq	r0, r0, sl, asr r1
    1788:	55050803 	strpl	r0, [r5, #-2051]	; 0x803
    178c:	03000001 	movweq	r0, #1
    1790:	00840801 	addeq	r0, r4, r1, lsl #16
    1794:	02030000 	andeq	r0, r3, #0
    1798:	0000fa07 	andeq	pc, r0, r7, lsl #20
    179c:	07040300 	streq	r0, [r4, -r0, lsl #6]
    17a0:	0000013a 	andeq	r0, r0, sl, lsr r1
    17a4:	35070803 	strcc	r0, [r7, #-2051]	; 0x803
    17a8:	03000001 	movweq	r0, #1
    17ac:	014c0704 	cmpeq	ip, r4, lsl #14
    17b0:	01030000 	mrseq	r0, (UNDEF: 3)
    17b4:	00008d08 	andeq	r8, r0, r8, lsl #26
    17b8:	7f040400 	svcvc	0x00040400
    17bc:	05000000 	streq	r0, [r0, #-0]
    17c0:	00000072 	andeq	r0, r0, r2, ror r0
    17c4:	00041d06 	andeq	r1, r4, r6, lsl #26
    17c8:	25040100 	strcs	r0, [r4, #-256]	; 0x100
    17cc:	d0000000 	andle	r0, r0, r0
    17d0:	3400008a 	strcc	r0, [r0], #-138	; 0x8a
    17d4:	01000000 	mrseq	r0, (UNDEF: 0)
    17d8:	0000ab9c 	muleq	r0, ip, fp
    17dc:	00700700 	rsbseq	r0, r0, r0, lsl #14
    17e0:	00790401 	rsbseq	r0, r9, r1, lsl #8
    17e4:	092a0000 	stmdbeq	sl!, {}	; <UNPREDICTABLE>
    17e8:	08000000 	stmdaeq	r0, {}	; <UNPREDICTABLE>
    17ec:	00000025 	andeq	r0, r0, r5, lsr #32
    17f0:	000000ba 	strheq	r0, [r0], -sl
    17f4:	00002509 	andeq	r2, r0, r9, lsl #10
    17f8:	e90a0000 	stmdb	sl, {}	; <UNPREDICTABLE>
    17fc:	02000003 	andeq	r0, r0, #3
    1800:	0000c51d 	andeq	ip, r0, sp, lsl r5
    1804:	ab040400 	blge	10280c <__bss_end__+0xf86b4>
    1808:	08000000 	stmdaeq	r0, {}	; <UNPREDICTABLE>
    180c:	00000025 	andeq	r0, r0, r5, lsr #32
    1810:	000000da 	ldrdeq	r0, [r0], -sl
    1814:	00007909 	andeq	r7, r0, r9, lsl #18
    1818:	260b0000 	strcs	r0, [fp], -r0
    181c:	01000004 	tsteq	r0, r4
    1820:	0000eb0c 	andeq	lr, r0, ip, lsl #22
    1824:	64030500 	strvs	r0, [r3], #-1280	; 0x500
    1828:	04000096 	streq	r0, [r0], #-150	; 0x96
    182c:	0000cb04 	andeq	ip, r0, r4, lsl #22
    1830:	00fc0000 	rscseq	r0, ip, r0
    1834:	00040000 	andeq	r0, r4, r0
    1838:	00000776 	andeq	r0, r0, r6, ror r7
    183c:	00080104 	andeq	r0, r8, r4, lsl #2
    1840:	2b010000 	blcs	41848 <__bss_end__+0x376f0>
    1844:	44000004 	strmi	r0, [r0], #-4
    1848:	04000003 	streq	r0, [r0], #-3
    184c:	6800008b 	stmdavs	r0, {r0, r1, r3, r7}
    1850:	ea000000 	b	1858 <_start-0x67a8>
    1854:	02000007 	andeq	r0, r0, #7
    1858:	6e690504 	cdpvs	5, 6, cr0, cr9, cr4, {0}
    185c:	04030074 	streq	r0, [r3], #-116	; 0x74
    1860:	00013f07 	andeq	r3, r1, r7, lsl #30
    1864:	06010300 	streq	r0, [r1], -r0, lsl #6
    1868:	00000086 	andeq	r0, r0, r6, lsl #1
    186c:	6a050203 	bvs	142080 <__bss_end__+0x137f28>
    1870:	03000001 	movweq	r0, #1
    1874:	015a0504 	cmpeq	sl, r4, lsl #10
    1878:	08030000 	stmdaeq	r3, {}	; <UNPREDICTABLE>
    187c:	00015505 	andeq	r5, r1, r5, lsl #10
    1880:	08010300 	stmdaeq	r1, {r8, r9}
    1884:	00000084 	andeq	r0, r0, r4, lsl #1
    1888:	fa070203 	blx	1c209c <__bss_end__+0x1b7f44>
    188c:	03000000 	movweq	r0, #0
    1890:	013a0704 	teqeq	sl, r4, lsl #14
    1894:	08030000 	stmdaeq	r3, {}	; <UNPREDICTABLE>
    1898:	00013507 	andeq	r3, r1, r7, lsl #10
    189c:	07040300 	streq	r0, [r4, -r0, lsl #6]
    18a0:	0000014c 	andeq	r0, r0, ip, asr #2
    18a4:	8d080103 	stfhis	f0, [r8, #-12]
    18a8:	04000000 	streq	r0, [r0], #-0
    18ac:	0000043b 	andeq	r0, r0, fp, lsr r4
    18b0:	00560b01 	subseq	r0, r6, r1, lsl #22
    18b4:	8b040000 	blhi	1018bc <__bss_end__+0xf7764>
    18b8:	00380000 	eorseq	r0, r8, r0
    18bc:	9c010000 	stcls	0, cr0, [r1], {-0}
    18c0:	00011505 	andeq	r1, r1, r5, lsl #10
    18c4:	5d110100 	ldfpls	f0, [r1, #-0]
    18c8:	3c000000 	stccc	0, cr0, [r0], {-0}
    18cc:	1800008b 	stmdane	r0, {r0, r1, r3, r7}
    18d0:	01000000 	mrseq	r0, (UNDEF: 0)
    18d4:	0000ba9c 	muleq	r0, ip, sl
    18d8:	8b440600 	blhi	11030e0 <__bss_end__+0x10f8f88>
    18dc:	00790000 	rsbseq	r0, r9, r0
    18e0:	4c060000 	stcmi	0, cr0, [r6], {-0}
    18e4:	7900008b 	stmdbvc	r0, {r0, r1, r3, r7}
    18e8:	00000000 	andeq	r0, r0, r0
    18ec:	00044607 	andeq	r4, r4, r7, lsl #12
    18f0:	54160100 	ldrpl	r0, [r6], #-256	; 0x100
    18f4:	1800008b 	stmdane	r0, {r0, r1, r3, r7}
    18f8:	01000000 	mrseq	r0, (UNDEF: 0)
    18fc:	0000dd9c 	muleq	r0, ip, sp
    1900:	09460800 	stmdbeq	r6, {fp}^
    1904:	16010000 	strne	r0, [r1], -r0
    1908:	0000002c 	andeq	r0, r0, ip, lsr #32
    190c:	09005001 	stmdbeq	r0, {r0, ip, lr}
    1910:	00000450 	andeq	r0, r0, r0, asr r4
    1914:	00560801 	subseq	r0, r6, r1, lsl #16
    1918:	03050000 	movweq	r0, #20480	; 0x5000
    191c:	00009668 	andeq	r9, r0, r8, ror #12
    1920:	7469620a 	strbtvc	r6, [r9], #-522	; 0x20a
    1924:	2c090100 	stfcss	f0, [r9], {-0}
    1928:	05000000 	streq	r0, [r0, #-0]
    192c:	00a15403 	adceq	r5, r1, r3, lsl #8
    1930:	06810000 	streq	r0, [r1], r0
    1934:	00040000 	andeq	r0, r4, r0
    1938:	00000828 	andeq	r0, r0, r8, lsr #16
    193c:	00080104 	andeq	r0, r8, r4, lsl #2
    1940:	7c010000 	stcvc	0, cr0, [r1], {-0}
    1944:	44000004 	strmi	r0, [r0], #-4
    1948:	6c000003 	stcvs	0, cr0, [r0], {3}
    194c:	0c00008b 	stceq	0, cr0, [r0], {139}	; 0x8b
    1950:	31000005 	tstcc	r0, r5
    1954:	02000008 	andeq	r0, r0, #8
    1958:	6e690504 	cdpvs	5, 6, cr0, cr9, cr4, {0}
    195c:	04030074 	streq	r0, [r3], #-116	; 0x74
    1960:	00013f07 	andeq	r3, r1, r7, lsl #30
    1964:	06010300 	streq	r0, [r1], -r0, lsl #6
    1968:	00000086 	andeq	r0, r0, r6, lsl #1
    196c:	6a050203 	bvs	142180 <__bss_end__+0x138028>
    1970:	03000001 	movweq	r0, #1
    1974:	015a0504 	cmpeq	sl, r4, lsl #10
    1978:	08030000 	stmdaeq	r3, {}	; <UNPREDICTABLE>
    197c:	00015505 	andeq	r5, r1, r5, lsl #10
    1980:	08010300 	stmdaeq	r1, {r8, r9}
    1984:	00000084 	andeq	r0, r0, r4, lsl #1
    1988:	fa070203 	blx	1c219c <__bss_end__+0x1b8044>
    198c:	03000000 	movweq	r0, #0
    1990:	013a0704 	teqeq	sl, r4, lsl #14
    1994:	08030000 	stmdaeq	r3, {}	; <UNPREDICTABLE>
    1998:	00013507 	andeq	r3, r1, r7, lsl #10
    199c:	07040300 	streq	r0, [r4, -r0, lsl #6]
    19a0:	0000014c 	andeq	r0, r0, ip, asr #2
    19a4:	04050404 	streq	r0, [r5], #-1028	; 0x404
    19a8:	0000007a 	andeq	r0, r0, sl, ror r0
    19ac:	8d080103 	stfhis	f0, [r8, #-12]
    19b0:	05000000 	streq	r0, [r0, #-0]
    19b4:	00008704 	andeq	r8, r0, r4, lsl #14
    19b8:	007a0600 	rsbseq	r0, sl, r0, lsl #12
    19bc:	98070000 	stmdals	r7, {}	; <UNPREDICTABLE>
    19c0:	02000003 	andeq	r0, r0, #3
    19c4:	00009728 	andeq	r9, r0, r8, lsr #14
    19c8:	03bf0800 			; <UNDEFINED> instruction: 0x03bf0800
    19cc:	04040000 	streq	r0, [r4], #-0
    19d0:	0000ae00 	andeq	sl, r0, r0, lsl #28
    19d4:	03c90900 	biceq	r0, r9, #0, 18
    19d8:	00720000 	rsbseq	r0, r2, r0
    19dc:	00000000 	andeq	r0, r0, r0
    19e0:	0003c107 	andeq	ip, r3, r7, lsl #2
    19e4:	8c620200 	sfmhi	f0, 2, [r2], #-0
    19e8:	0a000000 	beq	19f0 <_start-0x6610>
    19ec:	00000463 	andeq	r0, r0, r3, ror #8
    19f0:	00252701 	eoreq	r2, r5, r1, lsl #14
    19f4:	8b6c0000 	blhi	1b019fc <__bss_end__+0x1af78a4>
    19f8:	00140000 	andseq	r0, r4, r0
    19fc:	9c010000 	stcls	0, cr0, [r1], {-0}
    1a00:	000000e0 	andeq	r0, r0, r0, ror #1
    1a04:	0100630b 	tsteq	r0, fp, lsl #6
    1a08:	00002527 	andeq	r2, r0, r7, lsr #10
    1a0c:	00094800 	andeq	r4, r9, r0, lsl #16
    1a10:	700c0000 	andvc	r0, ip, r0
    1a14:	01006461 	tsteq	r0, r1, ror #8
    1a18:	0000742e 	andeq	r7, r0, lr, lsr #8
    1a1c:	008b8000 	addeq	r8, fp, r0
    1a20:	00002c00 	andeq	r2, r0, r0, lsl #24
    1a24:	309c0100 	addscc	r0, ip, r0, lsl #2
    1a28:	0b000001 	bleq	1a34 <_start-0x65cc>
    1a2c:	2e010070 	mcrcs	0, 0, r0, cr1, cr0, {3}
    1a30:	00000074 	andeq	r0, r0, r4, ror r0
    1a34:	00000976 	andeq	r0, r0, r6, ror r9
    1a38:	00068c0d 	andeq	r8, r6, sp, lsl #24
    1a3c:	742e0100 	strtvc	r0, [lr], #-256	; 0x100
    1a40:	a1000000 	mrsge	r0, (UNDEF: 0)
    1a44:	0e000009 	cdpeq	0, 0, cr0, cr0, cr9, {0}
    1a48:	0000049c 	muleq	r0, ip, r4
    1a4c:	00252e01 	eoreq	r2, r5, r1, lsl #28
    1a50:	52010000 	andpl	r0, r1, #0
    1a54:	6e656c0f 	cdpvs	12, 6, cr6, cr5, cr15, {0}
    1a58:	252f0100 	strcs	r0, [pc, #-256]!	; 1960 <_start-0x66a0>
    1a5c:	01000000 	mrseq	r0, (UNDEF: 0)
    1a60:	5b0a0051 	blpl	281bac <__bss_end__+0x277a54>
    1a64:	01000004 	tsteq	r0, r4
    1a68:	00007437 	andeq	r7, r0, r7, lsr r4
    1a6c:	008bac00 	addeq	sl, fp, r0, lsl #24
    1a70:	00004000 	andeq	r4, r0, r0
    1a74:	9c9c0100 	ldflss	f0, [ip], {0}
    1a78:	0b000001 	bleq	1a84 <_start-0x657c>
    1a7c:	00747364 	rsbseq	r7, r4, r4, ror #6
    1a80:	00743701 	rsbseq	r3, r4, r1, lsl #14
    1a84:	09c20000 	stmibeq	r2, {}^	; <UNPREDICTABLE>
    1a88:	6e0b0000 	cdpvs	0, 0, cr0, cr11, cr0, {0}
    1a8c:	25370100 	ldrcs	r0, [r7, #-256]!	; 0x100
    1a90:	fa000000 	blx	1a98 <_start-0x6568>
    1a94:	0b000009 	bleq	1ac0 <_start-0x6540>
    1a98:	37010070 	smlsdxcc	r1, r0, r0, r0
    1a9c:	00000074 	andeq	r0, r0, r4, ror r0
    1aa0:	00000a1b 	andeq	r0, r0, fp, lsl sl
    1aa4:	000c470d 	andeq	r4, ip, sp, lsl #14
    1aa8:	74370100 	ldrtvc	r0, [r7], #-256	; 0x100
    1aac:	51000000 	mrspl	r0, (UNDEF: 0)
    1ab0:	1000000a 	andne	r0, r0, sl
    1ab4:	006e656c 	rsbeq	r6, lr, ip, ror #10
    1ab8:	00253901 	eoreq	r3, r5, r1, lsl #18
    1abc:	0a6f0000 	beq	1bc1ac4 <__bss_end__+0x1bb796c>
    1ac0:	730f0000 	movwvc	r0, #61440	; 0xf000
    1ac4:	743d0100 	ldrtvc	r0, [sp], #-256	; 0x100
    1ac8:	01000000 	mrseq	r0, (UNDEF: 0)
    1acc:	aa0a0050 	bge	281c14 <__bss_end__+0x277abc>
    1ad0:	01000004 	tsteq	r0, r4
    1ad4:	00007447 	andeq	r7, r0, r7, asr #8
    1ad8:	008bec00 	addeq	lr, fp, r0, lsl #24
    1adc:	0001b000 	andeq	fp, r1, r0
    1ae0:	d39c0100 	orrsle	r0, ip, #0, 2
    1ae4:	0d000002 	stceq	0, cr0, [r0, #-8]
    1ae8:	0000068c 	andeq	r0, r0, ip, lsl #13
    1aec:	002c4701 	eoreq	r4, ip, r1, lsl #14
    1af0:	0a960000 	beq	fe581af8 <__bss_end__+0xfe5779a0>
    1af4:	640b0000 	strvs	r0, [fp], #-0
    1af8:	01007473 	tsteq	r0, r3, ror r4
    1afc:	00007447 	andeq	r7, r0, r7, asr #8
    1b00:	000ac400 	andeq	ip, sl, r0, lsl #8
    1b04:	006e0b00 	rsbeq	r0, lr, r0, lsl #22
    1b08:	00254701 	eoreq	r4, r5, r1, lsl #14
    1b0c:	0b320000 	bleq	c81b14 <__bss_end__+0xc779bc>
    1b10:	760b0000 	strvc	r0, [fp], -r0
    1b14:	01006c61 	tsteq	r0, r1, ror #24
    1b18:	00002547 	andeq	r2, r0, r7, asr #10
    1b1c:	000b5e00 	andeq	r5, fp, r0, lsl #28
    1b20:	049c0d00 	ldreq	r0, [ip], #3328	; 0xd00
    1b24:	47010000 	strmi	r0, [r1, -r0]
    1b28:	00000025 	andeq	r0, r0, r5, lsr #32
    1b2c:	00000bdd 	ldrdeq	r0, [r0], -sp
    1b30:	0004730e 	andeq	r7, r4, lr, lsl #6
    1b34:	25470100 	strbcs	r0, [r7, #-256]	; 0x100
    1b38:	02000000 	andeq	r0, r0, #0
    1b3c:	620f0491 	andvs	r0, pc, #-1862270976	; 0x91000000
    1b40:	01006675 	tsteq	r0, r5, ror r6
    1b44:	0002d34c 	andeq	sp, r2, ip, asr #6
    1b48:	a8910300 	ldmge	r1, {r8, r9}
    1b4c:	0070107f 	rsbseq	r1, r0, pc, ror r0
    1b50:	00744c01 	rsbseq	r4, r4, r1, lsl #24
    1b54:	0c070000 	stceq	0, cr0, [r7], {-0}
    1b58:	75100000 	ldrvc	r0, [r0, #-0]
    1b5c:	2c4d0100 	stfcse	f0, [sp], {-0}
    1b60:	cf000000 	svcgt	0x00000000
    1b64:	1100000c 	tstne	r0, ip
    1b68:	00000120 	andeq	r0, r0, r0, lsr #2
    1b6c:	000002f3 	strdeq	r0, [r0], -r3
    1b70:	9b180305 	blls	60278c <__bss_end__+0x5f8634>
    1b74:	58120000 	ldmdapl	r2, {}	; <UNPREDICTABLE>
    1b78:	7400008c 	strvc	r0, [r0], #-140	; 0x8c
    1b7c:	61000000 	mrsvs	r0, (UNDEF: 0)
    1b80:	13000002 	movwne	r0, #2
    1b84:	00000455 	andeq	r0, r0, r5, asr r4
    1b88:	002c5201 	eoreq	r5, ip, r1, lsl #4
    1b8c:	0d920000 	ldceq	0, cr0, [r2]
    1b90:	14000000 	strne	r0, [r0], #-0
    1b94:	00008d44 	andeq	r8, r0, r4, asr #26
    1b98:	00000660 	andeq	r0, r0, r0, ror #12
    1b9c:	008d5815 	addeq	r5, sp, r5, lsl r8
    1ba0:	00066700 	andeq	r6, r6, r0, lsl #14
    1ba4:	00029900 	andeq	r9, r2, r0, lsl #18
    1ba8:	53011600 	movwpl	r1, #5632	; 0x1600
    1bac:	16770802 	ldrbtne	r0, [r7], -r2, lsl #16
    1bb0:	03055201 	movweq	r5, #20993	; 0x5201
    1bb4:	00009b18 	andeq	r9, r0, r8, lsl fp
    1bb8:	05510116 	ldrbeq	r0, [r1, #-278]	; 0x116
    1bbc:	009b5003 	addseq	r5, fp, r3
    1bc0:	50011600 	andpl	r1, r1, r0, lsl #12
    1bc4:	9b3c0305 	blls	f027e0 <__bss_end__+0xef8688>
    1bc8:	14000000 	strne	r0, [r0], #-0
    1bcc:	00008d5c 	andeq	r8, r0, ip, asr sp
    1bd0:	0000067d 	andeq	r0, r0, sp, ror r6
    1bd4:	008d6415 	addeq	r6, sp, r5, lsl r4
    1bd8:	0000e000 	andeq	lr, r0, r0
    1bdc:	0002b600 	andeq	fp, r2, r0, lsl #12
    1be0:	51011600 	tstpl	r1, r0, lsl #12
    1be4:	00007d02 	andeq	r7, r0, r2, lsl #26
    1be8:	008d7817 	addeq	r7, sp, r7, lsl r8
    1bec:	00013000 	andeq	r3, r1, r0
    1bf0:	53011600 	movwpl	r1, #5632	; 0x1600
    1bf4:	16007d02 	strne	r7, [r0], -r2, lsl #26
    1bf8:	74025101 	strvc	r5, [r2], #-257	; 0x101
    1bfc:	50011600 	andpl	r1, r1, r0, lsl #12
    1c00:	00007502 	andeq	r7, r0, r2, lsl #10
    1c04:	007a1800 	rsbseq	r1, sl, r0, lsl #16
    1c08:	02e30000 	rsceq	r0, r3, #0
    1c0c:	6b190000 	blvs	641c14 <__bss_end__+0x637abc>
    1c10:	3f000000 	svccc	0x00000000
    1c14:	007a1800 	rsbseq	r1, sl, r0, lsl #16
    1c18:	02f30000 	rscseq	r0, r3, #0
    1c1c:	6b190000 	blvs	641c24 <__bss_end__+0x637acc>
    1c20:	04000000 	streq	r0, [r0], #-0
    1c24:	02e30600 	rsceq	r0, r3, #0, 12
    1c28:	8d1a0000 	ldchi	0, cr0, [sl, #-0]
    1c2c:	01000004 	tsteq	r0, r4
    1c30:	008d9c1f 	addeq	r9, sp, pc, lsl ip
    1c34:	00005400 	andeq	r5, r0, r0, lsl #8
    1c38:	7c9c0100 	ldfvcs	f0, [ip], {0}
    1c3c:	0d000003 	stceq	0, cr0, [r0, #-12]
    1c40:	000004a2 	andeq	r0, r0, r2, lsr #9
    1c44:	038b1f01 	orreq	r1, fp, #1, 30
    1c48:	0dbe0000 	ldceq	0, cr0, [lr]
    1c4c:	6b0d0000 	blvs	341c54 <__bss_end__+0x337afc>
    1c50:	01000004 	tsteq	r0, r4
    1c54:	0003a01f 	andeq	sl, r3, pc, lsl r0
    1c58:	000dea00 	andeq	lr, sp, r0, lsl #20
    1c5c:	01201100 	teqeq	r0, r0, lsl #2
    1c60:	03b60000 			; <UNDEFINED> instruction: 0x03b60000
    1c64:	03050000 	movweq	r0, #20480	; 0x5000
    1c68:	00009b20 	andeq	r9, r0, r0, lsr #22
    1c6c:	008dac14 	addeq	sl, sp, r4, lsl ip
    1c70:	00066000 	andeq	r6, r6, r0
    1c74:	8dc01500 	cfstr64hi	mvdx1, [r0]
    1c78:	06670000 	strbteq	r0, [r7], -r0
    1c7c:	03720000 	cmneq	r2, #0
    1c80:	01160000 	tsteq	r6, r0
    1c84:	20080253 	andcs	r0, r8, r3, asr r2
    1c88:	05520116 	ldrbeq	r0, [r2, #-278]	; 0x116
    1c8c:	009b2003 	addseq	r2, fp, r3
    1c90:	51011600 	tstpl	r1, r0, lsl #12
    1c94:	9b500305 	blls	14028b0 <__bss_end__+0x13f8758>
    1c98:	01160000 	tsteq	r6, r0
    1c9c:	88030550 	stmdahi	r3, {r4, r6, r8, sl}
    1ca0:	0000009b 	muleq	r0, fp, r0
    1ca4:	008dc414 	addeq	ip, sp, r4, lsl r4
    1ca8:	00067d00 	andeq	r7, r6, r0, lsl #26
    1cac:	251b0000 	ldrcs	r0, [fp, #-0]
    1cb0:	8b000000 	blhi	1cb8 <_start-0x6348>
    1cb4:	1c000003 	stcne	0, cr0, [r0], {3}
    1cb8:	00000025 	andeq	r0, r0, r5, lsr #32
    1cbc:	7c040500 	cfstr32vc	mvfx0, [r4], {-0}
    1cc0:	1b000003 	blne	1cd4 <_start-0x632c>
    1cc4:	00000025 	andeq	r0, r0, r5, lsr #32
    1cc8:	000003a0 	andeq	r0, r0, r0, lsr #7
    1ccc:	0000811c 	andeq	r8, r0, ip, lsl r1
    1cd0:	04050000 	streq	r0, [r5], #-0
    1cd4:	00000391 	muleq	r0, r1, r3
    1cd8:	00007a18 	andeq	r7, r0, r8, lsl sl
    1cdc:	0003b600 	andeq	fp, r3, r0, lsl #12
    1ce0:	006b1900 	rsbeq	r1, fp, r0, lsl #18
    1ce4:	000e0000 	andeq	r0, lr, r0
    1ce8:	0003a606 	andeq	sl, r3, r6, lsl #12
    1cec:	03b51d00 			; <UNDEFINED> instruction: 0x03b51d00
    1cf0:	7f010000 	svcvc	0x00010000
    1cf4:	00000025 	andeq	r0, r0, r5, lsr #32
    1cf8:	00008df0 	strdeq	r8, [r0], -r0
    1cfc:	00000288 	andeq	r0, r0, r8, lsl #5
    1d00:	06259c01 	strteq	r9, [r5], -r1, lsl #24
    1d04:	620b0000 	andvs	r0, fp, #0
    1d08:	01006675 	tsteq	r0, r5, ror r6
    1d0c:	0000747f 	andeq	r7, r0, pc, ror r4
    1d10:	000e1600 	andeq	r1, lr, r0, lsl #12
    1d14:	006e0b00 	rsbeq	r0, lr, r0, lsl #22
    1d18:	00257f01 	eoreq	r7, r5, r1, lsl #30
    1d1c:	0e420000 	cdpeq	0, 4, cr0, cr2, cr0, {0}
    1d20:	660b0000 	strvs	r0, [fp], -r0
    1d24:	0100746d 	tsteq	r0, sp, ror #8
    1d28:	0000817f 	andeq	r8, r0, pc, ror r1
    1d2c:	000e7000 	andeq	r7, lr, r0
    1d30:	06ae0d00 	strteq	r0, [lr], r0, lsl #26
    1d34:	7f010000 	svcvc	0x00010000
    1d38:	000000ae 	andeq	r0, r0, lr, lsr #1
    1d3c:	00000ea4 	andeq	r0, r0, r4, lsr #29
    1d40:	01007010 	tsteq	r0, r0, lsl r0
    1d44:	00007480 	andeq	r7, r0, r0, lsl #9
    1d48:	000eb700 	andeq	fp, lr, r0, lsl #14
    1d4c:	00651000 	rsbeq	r1, r5, r0
    1d50:	00748001 	rsbseq	r8, r4, r1
    1d54:	0f350000 	svceq	0x00350000
    1d58:	20110000 	andscs	r0, r1, r0
    1d5c:	35000001 	strcc	r0, [r0, #-1]
    1d60:	05000006 	streq	r0, [r0, #-6]
    1d64:	009b3003 	addseq	r3, fp, r3
    1d68:	00301e00 	eorseq	r1, r0, r0, lsl #28
    1d6c:	73100000 	tstvc	r0, #0
    1d70:	748d0100 	strvc	r0, [sp], #256	; 0x100
    1d74:	5c000000 	stcpl	0, cr0, [r0], {-0}
    1d78:	0f00000f 	svceq	0x0000000f
    1d7c:	006d756e 	rsbeq	r7, sp, lr, ror #10
    1d80:	063a8d01 	ldrteq	r8, [sl], -r1, lsl #26
    1d84:	91030000 	mrsls	r0, (UNDEF: 3)
    1d88:	9c137ed8 	ldcls	14, cr7, [r3], {216}	; 0xd8
    1d8c:	01000004 	tsteq	r0, r4
    1d90:	00002c8e 	andeq	r2, r0, lr, lsl #25
    1d94:	000fb100 	andeq	fp, pc, r0, lsl #2
    1d98:	8e741500 	cdphi	5, 7, cr1, cr4, cr0, {0}
    1d9c:	00b90000 	adcseq	r0, r9, r0
    1da0:	047b0000 	ldrbteq	r0, [fp], #-0
    1da4:	01160000 	tsteq	r6, r0
    1da8:	00750250 	rsbseq	r0, r5, r0, asr r2
    1dac:	8e881400 	cdphi	4, 8, cr1, cr8, cr0, {0}
    1db0:	06600000 	strbteq	r0, [r0], -r0
    1db4:	9c150000 	ldcls	0, cr0, [r5], {-0}
    1db8:	6700008e 	strvs	r0, [r0, -lr, lsl #1]
    1dbc:	b3000006 	movwlt	r0, #6
    1dc0:	16000004 	strne	r0, [r0], -r4
    1dc4:	08025301 	stmdaeq	r2, {r0, r8, r9, ip, lr}
    1dc8:	52011694 	andpl	r1, r1, #148, 12	; 0x9400000
    1dcc:	9b300305 	blls	c029e8 <__bss_end__+0xbf8890>
    1dd0:	01160000 	tsteq	r6, r0
    1dd4:	50030551 	andpl	r0, r3, r1, asr r5
    1dd8:	1600009b 			; <UNDEFINED> instruction: 0x1600009b
    1ddc:	03055001 	movweq	r5, #20481	; 0x5001
    1de0:	00009ba0 	andeq	r9, r0, r0, lsr #23
    1de4:	8ea01400 	cdphi	4, 10, cr1, cr0, cr0, {0}
    1de8:	067d0000 	ldrbteq	r0, [sp], -r0
    1dec:	10140000 	andsne	r0, r4, r0
    1df0:	6000008f 	andvs	r0, r0, pc, lsl #1
    1df4:	15000006 	strne	r0, [r0, #-6]
    1df8:	00008f24 	andeq	r8, r0, r4, lsr #30
    1dfc:	00000667 	andeq	r0, r0, r7, ror #12
    1e00:	000004f4 	strdeq	r0, [r0], -r4
    1e04:	02530116 	subseq	r0, r3, #-2147483643	; 0x80000005
    1e08:	01169a08 	tsteq	r6, r8, lsl #20
    1e0c:	30030552 	andcc	r0, r3, r2, asr r5
    1e10:	1600009b 			; <UNDEFINED> instruction: 0x1600009b
    1e14:	03055101 	movweq	r5, #20737	; 0x5101
    1e18:	00009b50 	andeq	r9, r0, r0, asr fp
    1e1c:	05500116 	ldrbeq	r0, [r0, #-278]	; 0x116
    1e20:	009bbc03 	addseq	fp, fp, r3, lsl #24
    1e24:	28140000 	ldmdacs	r4, {}	; <UNPREDICTABLE>
    1e28:	7d00008f 	stcvc	0, cr0, [r0, #-572]	; 0xfffffdc4
    1e2c:	15000006 	strne	r0, [r0, #-6]
    1e30:	00008f4c 	andeq	r8, r0, ip, asr #30
    1e34:	0000019c 	muleq	r0, ip, r1
    1e38:	0000052a 	andeq	r0, r0, sl, lsr #10
    1e3c:	02520116 	subseq	r0, r2, #-2147483643	; 0x80000005
    1e40:	01168008 	tsteq	r6, r8
    1e44:	d0910351 	addsle	r0, r1, r1, asr r3
    1e48:	5001167e 	andpl	r1, r1, lr, ror r6
    1e4c:	02163a01 	andseq	r3, r6, #4096	; 0x1000
    1e50:	3101047d 	tstcc	r1, sp, ror r4
    1e54:	007d0216 	rsbseq	r0, sp, r6, lsl r2
    1e58:	00007702 	andeq	r7, r0, r2, lsl #14
    1e5c:	008f7015 	addeq	r7, pc, r5, lsl r0	; <UNPREDICTABLE>
    1e60:	00019c00 	andeq	r9, r1, r0, lsl #24
    1e64:	00055800 	andeq	r5, r5, r0, lsl #16
    1e68:	52011600 	andpl	r1, r1, #0, 12
    1e6c:	16800802 	strne	r0, [r0], r2, lsl #16
    1e70:	91035101 	tstls	r3, r1, lsl #2
    1e74:	01167ed0 			; <UNDEFINED> instruction: 0x01167ed0
    1e78:	163a0150 			; <UNDEFINED> instruction: 0x163a0150
    1e7c:	02047d02 	andeq	r7, r4, #2, 26	; 0x80
    1e80:	0216007b 	andseq	r0, r6, #123	; 0x7b
    1e84:	7702007d 	smlsdxvc	r2, sp, r0, r0
    1e88:	94150000 	ldrls	r0, [r5], #-0
    1e8c:	9c00008f 	stcls	0, cr0, [r0], {143}	; 0x8f
    1e90:	86000001 	strhi	r0, [r0], -r1
    1e94:	16000005 	strne	r0, [r0], -r5
    1e98:	08025201 	stmdaeq	r2, {r0, r9, ip, lr}
    1e9c:	51011680 	smlabbpl	r1, r0, r6, r1
    1ea0:	7ed09103 	atnvcs	f1, f3
    1ea4:	01500116 	cmpeq	r0, r6, lsl r1
    1ea8:	7d021640 	stcvc	6, cr1, [r2, #-256]	; 0xffffff00
    1eac:	007b0204 	rsbseq	r0, fp, r4, lsl #4
    1eb0:	007d0216 	rsbseq	r0, sp, r6, lsl r2
    1eb4:	00007702 	andeq	r7, r0, r2, lsl #14
    1eb8:	008fb815 	addeq	fp, pc, r5, lsl r8	; <UNPREDICTABLE>
    1ebc:	00019c00 	andeq	r9, r1, r0, lsl #24
    1ec0:	0005b400 	andeq	fp, r5, r0, lsl #8
    1ec4:	52011600 	andpl	r1, r1, #0, 12
    1ec8:	16800802 	strne	r0, [r0], r2, lsl #16
    1ecc:	91035101 	tstls	r3, r1, lsl #2
    1ed0:	01167ed0 			; <UNDEFINED> instruction: 0x01167ed0
    1ed4:	16320150 			; <UNDEFINED> instruction: 0x16320150
    1ed8:	02047d02 	andeq	r7, r4, #2, 26	; 0x80
    1edc:	0216007b 	andseq	r0, r6, #123	; 0x7b
    1ee0:	7702007d 	smlsdxvc	r2, sp, r0, r0
    1ee4:	e8150000 	ldmda	r5, {}	; <UNPREDICTABLE>
    1ee8:	9c00008f 	stcls	0, cr0, [r0], {143}	; 0x8f
    1eec:	e2000001 	and	r0, r0, #1
    1ef0:	16000005 	strne	r0, [r0], -r5
    1ef4:	08025201 	stmdaeq	r2, {r0, r9, ip, lr}
    1ef8:	51011680 	smlabbpl	r1, r0, r6, r1
    1efc:	7ed09103 	atnvcs	f1, f3
    1f00:	01500116 	cmpeq	r0, r6, lsl r1
    1f04:	7d021638 	stcvc	6, cr1, [r2, #-224]	; 0xffffff20
    1f08:	007b0204 	rsbseq	r0, fp, r4, lsl #4
    1f0c:	007d0216 	rsbseq	r0, sp, r6, lsl r2
    1f10:	00007702 	andeq	r7, r0, r2, lsl #14
    1f14:	008ff014 	addeq	pc, pc, r4, lsl r0	; <UNPREDICTABLE>
    1f18:	00066000 	andeq	r6, r6, r0
    1f1c:	900c1500 	andls	r1, ip, r0, lsl #10
    1f20:	06670000 	strbteq	r0, [r7], -r0
    1f24:	061a0000 	ldreq	r0, [sl], -r0
    1f28:	01160000 	tsteq	r6, r0
    1f2c:	bb080253 	bllt	202880 <__bss_end__+0x1f8728>
    1f30:	05520116 	ldrbeq	r0, [r2, #-278]	; 0x116
    1f34:	009b3003 	addseq	r3, fp, r3
    1f38:	51011600 	tstpl	r1, r0, lsl #12
    1f3c:	9b500305 	blls	1402b58 <__bss_end__+0x13f8a00>
    1f40:	01160000 	tsteq	r6, r0
    1f44:	e4030550 	str	r0, [r3], #-1360	; 0x550
    1f48:	0000009b 	muleq	r0, fp, r0
    1f4c:	00901014 	addseq	r1, r0, r4, lsl r0
    1f50:	00067d00 	andeq	r7, r6, r0, lsl #26
    1f54:	18000000 	stmdane	r0, {}	; <UNPREDICTABLE>
    1f58:	0000007a 	andeq	r0, r0, sl, ror r0
    1f5c:	00000635 	andeq	r0, r0, r5, lsr r6
    1f60:	00006b19 	andeq	r6, r0, r9, lsl fp
    1f64:	06000900 	streq	r0, [r0], -r0, lsl #18
    1f68:	00000625 	andeq	r0, r0, r5, lsr #12
    1f6c:	00007a18 	andeq	r7, r0, r8, lsl sl
    1f70:	00064a00 	andeq	r4, r6, r0, lsl #20
    1f74:	006b1900 	rsbeq	r1, fp, r0, lsl #18
    1f78:	007f0000 	rsbseq	r0, pc, r0
    1f7c:	0003e91f 	andeq	lr, r3, pc, lsl r9
    1f80:	8b1d0300 	blhi	742b88 <__bss_end__+0x738a30>
    1f84:	1f000003 	svcne	0x00000003
    1f88:	00000426 	andeq	r0, r0, r6, lsr #8
    1f8c:	03a02203 	moveq	r2, #805306368	; 0x30000000
    1f90:	94200000 	strtls	r0, [r0], #-0
    1f94:	03000001 	movweq	r0, #1
    1f98:	03b8211e 			; <UNDEFINED> instruction: 0x03b8211e
    1f9c:	29030000 	stmdbcs	r3, {}	; <UNPREDICTABLE>
    1fa0:	00000025 	andeq	r0, r0, r5, lsr #32
    1fa4:	0000067d 	andeq	r0, r0, sp, ror r6
    1fa8:	0000811c 	andeq	r8, r0, ip, lsl r1
    1fac:	20002200 	andcs	r2, r0, r0, lsl #4
    1fb0:	00000092 	muleq	r0, r2, r0
    1fb4:	ff006503 			; <UNDEFINED> instruction: 0xff006503
    1fb8:	04000000 	streq	r0, [r0], #-0
    1fbc:	000a0400 	andeq	r0, sl, r0, lsl #8
    1fc0:	08010400 	stmdaeq	r1, {sl}
    1fc4:	01000000 	mrseq	r0, (UNDEF: 0)
    1fc8:	000004af 	andeq	r0, r0, pc, lsr #9
    1fcc:	00000344 	andeq	r0, r0, r4, asr #6
    1fd0:	00009078 	andeq	r9, r0, r8, ror r0
    1fd4:	00000028 	andeq	r0, r0, r8, lsr #32
    1fd8:	00000a20 	andeq	r0, r0, r0, lsr #20
    1fdc:	69050402 	stmdbvs	r5, {r1, sl}
    1fe0:	0300746e 	movweq	r7, #1134	; 0x46e
    1fe4:	013f0704 	teqeq	pc, r4, lsl #14
    1fe8:	01030000 	mrseq	r0, (UNDEF: 3)
    1fec:	00008606 	andeq	r8, r0, r6, lsl #12
    1ff0:	05020300 	streq	r0, [r2, #-768]	; 0x300
    1ff4:	0000016a 	andeq	r0, r0, sl, ror #2
    1ff8:	5a050403 	bpl	14300c <__bss_end__+0x138eb4>
    1ffc:	03000001 	movweq	r0, #1
    2000:	01550508 	cmpeq	r5, r8, lsl #10
    2004:	01030000 	mrseq	r0, (UNDEF: 3)
    2008:	00008408 	andeq	r8, r0, r8, lsl #8
    200c:	07020300 	streq	r0, [r2, -r0, lsl #6]
    2010:	000000fa 	strdeq	r0, [r0], -sl
    2014:	3a070403 	bcc	1c3028 <__bss_end__+0x1b8ed0>
    2018:	03000001 	movweq	r0, #1
    201c:	01350708 	teqeq	r5, r8, lsl #14
    2020:	04030000 	streq	r0, [r3], #-0
    2024:	00014c07 	andeq	r4, r1, r7, lsl #24
    2028:	08010300 	stmdaeq	r1, {r8, r9}
    202c:	0000008d 	andeq	r0, r0, sp, lsl #1
    2030:	007f0404 	rsbseq	r0, pc, r4, lsl #8
    2034:	72050000 	andvc	r0, r5, #0
    2038:	06000000 	streq	r0, [r0], -r0
    203c:	00000092 	muleq	r0, r2, r0
    2040:	90780401 	rsbsls	r0, r8, r1, lsl #8
    2044:	00280000 	eoreq	r0, r8, r0
    2048:	9c010000 	stcls	0, cr0, [r1], {-0}
    204c:	000000ca 	andeq	r0, r0, sl, asr #1
    2050:	00908c07 	addseq	r8, r0, r7, lsl #24
    2054:	0000ac00 	andeq	sl, r0, r0, lsl #24
    2058:	50010800 	andpl	r0, r1, r0, lsl #16
    205c:	9c1c0305 	ldcls	3, cr0, [ip], {5}
    2060:	09000000 	stmdbeq	r0, {}	; <UNPREDICTABLE>
    2064:	00009094 	muleq	r0, r4, r0
    2068:	000000ea 	andeq	r0, r0, sl, ror #1
    206c:	000000c0 	andeq	r0, r0, r0, asr #1
    2070:	02500108 	subseq	r0, r0, #8, 2
    2074:	0a006408 	beq	1b09c <__bss_end__+0x10f44>
    2078:	00009098 	muleq	r0, r8, r0
    207c:	000000fb 	strdeq	r0, [r0], -fp
    2080:	00250b00 	eoreq	r0, r5, r0, lsl #22
    2084:	00d90000 	sbcseq	r0, r9, r0
    2088:	790c0000 	stmdbvc	ip, {}	; <UNPREDICTABLE>
    208c:	00000000 	andeq	r0, r0, r0
    2090:	0004260d 	andeq	r2, r4, sp, lsl #12
    2094:	e4220200 	strt	r0, [r2], #-512	; 0x200
    2098:	04000000 	streq	r0, [r0], #-0
    209c:	0000ca04 	andeq	ip, r0, r4, lsl #20
    20a0:	04d30e00 	ldrbeq	r0, [r3], #3584	; 0xe00
    20a4:	4f020000 	svcmi	0x00020000
    20a8:	000000fb 	strdeq	r0, [r0], -fp
    20ac:	00002c0c 	andeq	r2, r0, ip, lsl #24
    20b0:	c80f0000 	stmdagt	pc, {}	; <UNPREDICTABLE>
    20b4:	02000004 	andeq	r0, r0, #4
    20b8:	00ff0062 	rscseq	r0, pc, r2, rrx
    20bc:	00040000 	andeq	r0, r4, r0
    20c0:	00000ace 	andeq	r0, r0, lr, asr #21
    20c4:	00080104 	andeq	r0, r8, r4, lsl #2
    20c8:	06010000 	streq	r0, [r1], -r0
    20cc:	44000005 	strmi	r0, [r0], #-5
    20d0:	a0000003 	andge	r0, r0, r3
    20d4:	34000090 	strcc	r0, [r0], #-144	; 0x90
    20d8:	c0000000 	andgt	r0, r0, r0
    20dc:	0200000a 	andeq	r0, r0, #10
    20e0:	6e690504 	cdpvs	5, 6, cr0, cr9, cr4, {0}
    20e4:	04030074 	streq	r0, [r3], #-116	; 0x74
    20e8:	00013f07 	andeq	r3, r1, r7, lsl #30
    20ec:	06010300 	streq	r0, [r1], -r0, lsl #6
    20f0:	00000086 	andeq	r0, r0, r6, lsl #1
    20f4:	6a050203 	bvs	142908 <__bss_end__+0x1387b0>
    20f8:	03000001 	movweq	r0, #1
    20fc:	015a0504 	cmpeq	sl, r4, lsl #10
    2100:	08030000 	stmdaeq	r3, {}	; <UNPREDICTABLE>
    2104:	00015505 	andeq	r5, r1, r5, lsl #10
    2108:	08010300 	stmdaeq	r1, {r8, r9}
    210c:	00000084 	andeq	r0, r0, r4, lsl #1
    2110:	fa070203 	blx	1c2924 <__bss_end__+0x1b87cc>
    2114:	03000000 	movweq	r0, #0
    2118:	013a0704 	teqeq	sl, r4, lsl #14
    211c:	08030000 	stmdaeq	r3, {}	; <UNPREDICTABLE>
    2120:	00013507 	andeq	r3, r1, r7, lsl #10
    2124:	07040300 	streq	r0, [r4, -r0, lsl #6]
    2128:	0000014c 	andeq	r0, r0, ip, asr #2
    212c:	8d080103 	stfhis	f0, [r8, #-12]
    2130:	04000000 	streq	r0, [r0], #-0
    2134:	000004fe 	strdeq	r0, [r0], -lr
    2138:	90a00d01 	adcls	r0, r0, r1, lsl #26
    213c:	00340000 	eorseq	r0, r4, r0
    2140:	9c010000 	stcls	0, cr0, [r1], {-0}
    2144:	000000d8 	ldrdeq	r0, [r0], -r8
    2148:	0004dc05 	andeq	sp, r4, r5, lsl #24
    214c:	250e0100 	strcs	r0, [lr, #-256]	; 0x100
    2150:	05000000 	streq	r0, [r0, #-0]
    2154:	000004ea 	andeq	r0, r0, sl, ror #9
    2158:	00250e01 	eoreq	r0, r5, r1, lsl #28
    215c:	5f060000 	svcpl	0x00060000
    2160:	01000000 	mrseq	r0, (UNDEF: 0)
    2164:	7362070f 	cmnvc	r2, #3932160	; 0x3c0000
    2168:	11010073 	tstne	r1, r3, ror r0
    216c:	000000d8 	ldrdeq	r0, [r0], -r8
    2170:	00000fdb 	ldrdeq	r0, [r0], -fp
    2174:	0004f608 	andeq	pc, r4, r8, lsl #12
    2178:	d8120100 	ldmdale	r2, {r8}
    217c:	09000000 	stmdbeq	r0, {}	; <UNPREDICTABLE>
    2180:	000090c8 	andeq	r9, r0, r8, asr #1
    2184:	000000f4 	strdeq	r0, [r0], -r4
    2188:	0090cc09 	addseq	ip, r0, r9, lsl #24
    218c:	0000fb00 	andeq	pc, r0, r0, lsl #22
    2190:	040a0000 	streq	r0, [sl], #-0
    2194:	00000025 	andeq	r0, r0, r5, lsr #32
    2198:	0004dc05 	andeq	sp, r4, r5, lsl #24
    219c:	250e0100 	strcs	r0, [lr, #-256]	; 0x100
    21a0:	05000000 	streq	r0, [r0, #-0]
    21a4:	000004ea 	andeq	r0, r0, sl, ror #9
    21a8:	00250e01 	eoreq	r0, r5, r1, lsl #28
    21ac:	5f060000 	svcpl	0x00060000
    21b0:	02000000 	andeq	r0, r0, #0
    21b4:	009206d7 			; <UNDEFINED> instruction: 0x009206d7
    21b8:	65020000 	strvs	r0, [r2, #-0]
    21bc:	0001ad00 	andeq	sl, r1, r0, lsl #26
    21c0:	62000400 	andvs	r0, r0, #0, 8
    21c4:	0400000b 	streq	r0, [r0], #-11
    21c8:	00000801 	andeq	r0, r0, r1, lsl #16
    21cc:	05270100 	streq	r0, [r7, #-256]!	; 0x100
    21d0:	03440000 	movteq	r0, #16384	; 0x4000
    21d4:	00480000 	subeq	r0, r8, r0
    21d8:	00000000 	andeq	r0, r0, r0
    21dc:	0b670000 	bleq	19c21e4 <__bss_end__+0x19b808c>
    21e0:	04020000 	streq	r0, [r2], #-0
    21e4:	746e6905 	strbtvc	r6, [lr], #-2309	; 0x905
    21e8:	07040300 	streq	r0, [r4, -r0, lsl #6]
    21ec:	0000013f 	andeq	r0, r0, pc, lsr r1
    21f0:	86060103 	strhi	r0, [r6], -r3, lsl #2
    21f4:	03000000 	movweq	r0, #0
    21f8:	016a0502 	cmneq	sl, r2, lsl #10
    21fc:	04030000 	streq	r0, [r3], #-0
    2200:	00015a05 	andeq	r5, r1, r5, lsl #20
    2204:	05080300 	streq	r0, [r8, #-768]	; 0x300
    2208:	00000155 	andeq	r0, r0, r5, asr r1
    220c:	84080103 	strhi	r0, [r8], #-259	; 0x103
    2210:	03000000 	movweq	r0, #0
    2214:	00fa0702 	rscseq	r0, sl, r2, lsl #14
    2218:	04030000 	streq	r0, [r3], #-0
    221c:	00013a07 	andeq	r3, r1, r7, lsl #20
    2220:	07080300 	streq	r0, [r8, -r0, lsl #6]
    2224:	00000135 	andeq	r0, r0, r5, lsr r1
    2228:	4c070403 	cfstrsmi	mvf0, [r7], {3}
    222c:	03000001 	movweq	r0, #1
    2230:	008d0801 	addeq	r0, sp, r1, lsl #16
    2234:	19040000 	stmdbne	r4, {}	; <UNPREDICTABLE>
    2238:	01000005 	tsteq	r0, r5
    223c:	0000250e 	andeq	r2, r0, lr, lsl #10
    2240:	0090d400 	addseq	sp, r0, r0, lsl #8
    2244:	00001800 	andeq	r1, r0, r0, lsl #16
    2248:	a29c0100 	addsge	r0, ip, #0, 2
    224c:	05000000 	streq	r0, [r0, #-0]
    2250:	00000584 	andeq	r0, r0, r4, lsl #11
    2254:	002c0f01 	eoreq	r0, ip, r1, lsl #30
    2258:	0ffb0000 	svceq	0x00fb0000
    225c:	06000000 	streq	r0, [r0], -r0
    2260:	0000055b 	andeq	r0, r0, fp, asr r5
    2264:	90ec1701 	rscls	r1, ip, r1, lsl #14
    2268:	00140000 	andseq	r0, r4, r0
    226c:	9c010000 	stcls	0, cr0, [r1], {-0}
    2270:	000000c7 	andeq	r0, r0, r7, asr #1
    2274:	00058405 	andeq	r8, r5, r5, lsl #8
    2278:	2c180100 	ldfcss	f0, [r8], {-0}
    227c:	1a000000 	bne	2284 <_start-0x5d7c>
    2280:	00000010 	andeq	r0, r0, r0, lsl r0
    2284:	0004c806 	andeq	ip, r4, r6, lsl #16
    2288:	001f0100 	andseq	r0, pc, r0, lsl #2
    228c:	48000091 	stmdami	r0, {r0, r4, r7}
    2290:	01000000 	mrseq	r0, (UNDEF: 0)
    2294:	0001779c 	muleq	r1, ip, r7
    2298:	057c0700 	ldrbeq	r0, [ip, #-1792]!	; 0x700
    229c:	2a010000 	bcs	422a4 <__bss_end__+0x3814c>
    22a0:	00000177 	andeq	r0, r0, r7, ror r1
    22a4:	2010001c 	andscs	r0, r0, ip, lsl r0
    22a8:	00055307 	andeq	r5, r5, r7, lsl #6
    22ac:	772b0100 	strvc	r0, [fp, -r0, lsl #2]!
    22b0:	24000001 	strcs	r0, [r0], #-1
    22b4:	07201000 	streq	r1, [r0, -r0]!
    22b8:	00000570 	andeq	r0, r0, r0, ror r5
    22bc:	01772c01 	cmneq	r7, r1, lsl #24
    22c0:	00000000 	andeq	r0, r0, r0
    22c4:	3a085a00 	bcc	218acc <__bss_end__+0x20e974>
    22c8:	01000005 	tsteq	r0, r5
    22cc:	0001772d 	andeq	r7, r1, sp, lsr #14
    22d0:	08092000 	stmdaeq	r9, {sp}
    22d4:	79000091 	stmdbvc	r0, {r0, r4, r7}
    22d8:	09000000 	stmdbeq	r0, {}	; <UNPREDICTABLE>
    22dc:	00009114 	andeq	r9, r0, r4, lsl r1
    22e0:	000000a2 	andeq	r0, r0, r2, lsr #1
    22e4:	00911c0a 	addseq	r1, r1, sl, lsl #24
    22e8:	00018d00 	andeq	r8, r1, r0, lsl #26
    22ec:	00013a00 	andeq	r3, r1, r0, lsl #20
    22f0:	50010b00 	andpl	r0, r1, r0, lsl #22
    22f4:	0a004e01 	beq	15b00 <__bss_end__+0xb9a8>
    22f8:	00009128 	andeq	r9, r0, r8, lsr #2
    22fc:	0000019e 	muleq	r0, lr, r1
    2300:	0000015a 	andeq	r0, r0, sl, asr r1
    2304:	0551010b 	ldrbeq	r0, [r1, #-267]	; 0x10b
    2308:	0000010c 	andeq	r0, r0, ip, lsl #2
    230c:	50010b5a 	andpl	r0, r1, sl, asr fp
    2310:	00240c05 	eoreq	r0, r4, r5, lsl #24
    2314:	0c002010 	stceq	0, cr2, [r0], {16}
    2318:	00009134 	andeq	r9, r0, r4, lsr r1
    231c:	0000019e 	muleq	r0, lr, r1
    2320:	0551010b 	ldrbeq	r0, [r1, #-267]	; 0x10b
    2324:	0000200c 	andeq	r2, r0, ip
    2328:	50010b5a 	andpl	r0, r1, sl, asr fp
    232c:	001c0c05 	andseq	r0, ip, r5, lsl #24
    2330:	00002010 	andeq	r2, r0, r0, lsl r0
    2334:	0000250d 	andeq	r2, r0, sp, lsl #10
    2338:	051c0800 	ldreq	r0, [ip, #-2048]	; 0x800
    233c:	0d010000 	stceq	0, cr0, [r1, #-0]
    2340:	00000188 	andeq	r0, r0, r8, lsl #3
    2344:	002c0d10 	eoreq	r0, ip, r0, lsl sp
    2348:	d30e0000 	movwle	r0, #57344	; 0xe000
    234c:	02000004 	andeq	r0, r0, #4
    2350:	00019e4f 	andeq	r9, r1, pc, asr #28
    2354:	002c0f00 	eoreq	r0, ip, r0, lsl #30
    2358:	10000000 	andne	r0, r0, r0
    235c:	0000056a 	andeq	r0, r0, sl, ror #10
    2360:	2c0f9b02 	stccs	11, cr9, [pc], {2}
    2364:	0f000000 	svceq	0x00000000
    2368:	0000002c 	andeq	r0, r0, ip, lsr #32
    236c:	01d80000 	bicseq	r0, r8, r0
    2370:	00040000 	andeq	r0, r4, r0
    2374:	00000c50 	andeq	r0, r0, r0, asr ip
    2378:	00080104 	andeq	r0, r8, r4, lsl #2
    237c:	a6010000 	strge	r0, [r1], -r0
    2380:	44000005 	strmi	r0, [r0], #-5
    2384:	48000003 	stmdami	r0, {r0, r1}
    2388:	88000091 	stmdahi	r0, {r0, r4, r7}
    238c:	0d000000 	stceq	0, cr0, [r0, #-0]
    2390:	0200000c 	andeq	r0, r0, #12
    2394:	6e690504 	cdpvs	5, 6, cr0, cr9, cr4, {0}
    2398:	04030074 	streq	r0, [r3], #-116	; 0x74
    239c:	00013f07 	andeq	r3, r1, r7, lsl #30
    23a0:	06010300 	streq	r0, [r1], -r0, lsl #6
    23a4:	00000086 	andeq	r0, r0, r6, lsl #1
    23a8:	6a050203 	bvs	142bbc <__bss_end__+0x138a64>
    23ac:	03000001 	movweq	r0, #1
    23b0:	015a0504 	cmpeq	sl, r4, lsl #10
    23b4:	08030000 	stmdaeq	r3, {}	; <UNPREDICTABLE>
    23b8:	00015505 	andeq	r5, r1, r5, lsl #10
    23bc:	08010300 	stmdaeq	r1, {r8, r9}
    23c0:	00000084 	andeq	r0, r0, r4, lsl #1
    23c4:	fa070203 	blx	1c2bd8 <__bss_end__+0x1b8a80>
    23c8:	03000000 	movweq	r0, #0
    23cc:	013a0704 	teqeq	sl, r4, lsl #14
    23d0:	08030000 	stmdaeq	r3, {}	; <UNPREDICTABLE>
    23d4:	00013507 	andeq	r3, r1, r7, lsl #10
    23d8:	07040300 	streq	r0, [r4, -r0, lsl #6]
    23dc:	0000014c 	andeq	r0, r0, ip, asr #2
    23e0:	8d080103 	stfhis	f0, [r8, #-12]
    23e4:	04000000 	streq	r0, [r0], #-0
    23e8:	000005c4 	andeq	r0, r0, r4, asr #11
    23ec:	91480501 	cmpls	r8, r1, lsl #10
    23f0:	001c0000 	andseq	r0, ip, r0
    23f4:	9c010000 	stcls	0, cr0, [r1], {-0}
    23f8:	0000009e 	muleq	r0, lr, r0
    23fc:	0005be05 	andeq	fp, r5, r5, lsl #28
    2400:	2c050100 	stfcss	f0, [r5], {-0}
    2404:	44000000 	strmi	r0, [r0], #-0
    2408:	00000010 	andeq	r0, r0, r0, lsl r0
    240c:	00058906 	andeq	r8, r5, r6, lsl #18
    2410:	2c110100 	ldfcss	f0, [r1], {-0}
    2414:	64000000 	strvs	r0, [r0], #-0
    2418:	14000091 	strne	r0, [r0], #-145	; 0x91
    241c:	01000000 	mrseq	r0, (UNDEF: 0)
    2420:	0000cb9c 	muleq	r0, ip, fp
    2424:	91700700 	cmnls	r0, r0, lsl #14
    2428:	01ca0000 	biceq	r0, sl, r0
    242c:	01080000 	mrseq	r0, (UNDEF: 8)
    2430:	040c0550 	streq	r0, [ip], #-1360	; 0x550
    2434:	00200030 	eoreq	r0, r0, r0, lsr r0
    2438:	05da0600 	ldrbeq	r0, [sl, #1536]	; 0x600
    243c:	16010000 	strne	r0, [r1], -r0
    2440:	0000002c 	andeq	r0, r0, ip, lsr #32
    2444:	00009178 	andeq	r9, r0, r8, ror r1
    2448:	0000000c 	andeq	r0, r0, ip
    244c:	00f99c01 	rscseq	r9, r9, r1, lsl #24
    2450:	75090000 	strvc	r0, [r9, #-0]
    2454:	2c1a0100 	ldfcss	f0, [sl], {-0}
    2458:	01000000 	mrseq	r0, (UNDEF: 0)
    245c:	91800a50 	orrls	r0, r0, r0, asr sl
    2460:	009e0000 	addseq	r0, lr, r0
    2464:	04000000 	streq	r0, [r0], #-0
    2468:	000005d1 	ldrdeq	r0, [r0], -r1
    246c:	91841f01 	orrls	r1, r4, r1, lsl #30
    2470:	00240000 	eoreq	r0, r4, r0
    2474:	9c010000 	stcls	0, cr0, [r1], {-0}
    2478:	00000157 	andeq	r0, r0, r7, asr r1
    247c:	0073750b 	rsbseq	r7, r3, fp, lsl #10
    2480:	002c1f01 	eoreq	r1, ip, r1, lsl #30
    2484:	10780000 	rsbsne	r0, r8, r0
    2488:	72090000 	andvc	r0, r9, #0
    248c:	20010062 	andcs	r0, r1, r2, rrx
    2490:	0000002c 	andeq	r0, r0, ip, lsr #32
    2494:	940c5401 	strls	r5, [ip], #-1025	; 0x401
    2498:	10000091 	mulne	r0, r1, r0
    249c:	4d000000 	stcmi	0, cr0, [r0, #-0]
    24a0:	0d000001 	stceq	0, cr0, [r0, #-4]
    24a4:	01006172 	tsteq	r0, r2, ror r1
    24a8:	00002c22 	andeq	r2, r0, r2, lsr #24
    24ac:	00109600 	andseq	r9, r0, r0, lsl #12
    24b0:	91980a00 	orrsls	r0, r8, r0, lsl #20
    24b4:	00cb0000 	sbceq	r0, fp, r0
    24b8:	0a000000 	beq	24c0 <_start-0x5b40>
    24bc:	00009190 	muleq	r0, r0, r1
    24c0:	000000cb 	andeq	r0, r0, fp, asr #1
    24c4:	04d30400 	ldrbeq	r0, [r3], #1024	; 0x400
    24c8:	28010000 	stmdacs	r1, {}	; <UNPREDICTABLE>
    24cc:	000091a8 	andeq	r9, r0, r8, lsr #3
    24d0:	00000014 	andeq	r0, r0, r4, lsl r0
    24d4:	01909c01 	orrseq	r9, r0, r1, lsl #24
    24d8:	6d0b0000 	stcvs	0, cr0, [fp, #-0]
    24dc:	28010073 	stmdacs	r1, {r0, r1, r4, r5, r6}
    24e0:	0000002c 	andeq	r0, r0, ip, lsr #32
    24e4:	000010a9 	andeq	r1, r0, r9, lsr #1
    24e8:	0091b807 	addseq	fp, r1, r7, lsl #16
    24ec:	0000f900 	andeq	pc, r0, r0, lsl #18
    24f0:	50010800 	andpl	r0, r1, r0, lsl #16
    24f4:	5001f307 	andpl	pc, r1, r7, lsl #6
    24f8:	1e03e80a 	cdpne	8, 0, cr14, cr3, cr10, {0}
    24fc:	9c040000 	stcls	0, cr0, [r4], {-0}
    2500:	01000005 	tsteq	r0, r5
    2504:	0091bc2b 	addseq	fp, r1, fp, lsr #24
    2508:	00001400 	andeq	r1, r0, r0, lsl #8
    250c:	ca9c0100 	bgt	fe702914 <__bss_end__+0xfe6f87bc>
    2510:	0b000001 	bleq	251c <_start-0x5ae4>
    2514:	00636573 	rsbeq	r6, r3, r3, ror r5
    2518:	002c2b01 	eoreq	r2, ip, r1, lsl #22
    251c:	10ca0000 	sbcne	r0, sl, r0
    2520:	cc070000 	stcgt	0, cr0, [r7], {-0}
    2524:	57000091 			; <UNDEFINED> instruction: 0x57000091
    2528:	08000001 	stmdaeq	r0, {r0}
    252c:	f3075001 	vhadd.u8	d5, d7, d1
    2530:	e80a5001 	stmda	sl, {r0, ip, lr}
    2534:	00001e03 	andeq	r1, r0, r3, lsl #28
    2538:	0005b80e 	andeq	fp, r5, lr, lsl #16
    253c:	2ca70200 	sfmcs	f0, 4, [r7]
    2540:	0f000000 	svceq	0x00000000
    2544:	0000002c 	andeq	r0, r0, ip, lsr #32
    2548:	0cc50000 	stcleq	0, cr0, [r5], {0}
    254c:	00040000 	andeq	r0, r4, r0
    2550:	00000d33 	andeq	r0, r0, r3, lsr sp
    2554:	098b0104 	stmibeq	fp, {r2, r8}
    2558:	e20c0000 	and	r0, ip, #0
    255c:	fd000006 	stc2	0, cr0, [r0, #-24]	; 0xffffffe8
    2560:	1c000006 	stcne	0, cr0, [r0], {6}
    2564:	78000092 	stmdavc	r0, {r1, r4, r7}
    2568:	bd000001 	stclt	0, cr0, [r0, #-4]
    256c:	0200000c 	andeq	r0, r0, #12
    2570:	6e690504 	cdpvs	5, 6, cr0, cr9, cr4, {0}
    2574:	04030074 	streq	r0, [r3], #-116	; 0x74
    2578:	00013f07 	andeq	r3, r1, r7, lsl #30
    257c:	002c0400 	eoreq	r0, ip, r0, lsl #8
    2580:	01030000 	mrseq	r0, (UNDEF: 3)
    2584:	00008606 	andeq	r8, r0, r6, lsl #12
    2588:	05020300 	streq	r0, [r2, #-768]	; 0x300
    258c:	0000016a 	andeq	r0, r0, sl, ror #2
    2590:	5a050403 	bpl	1435a4 <__bss_end__+0x13944c>
    2594:	03000001 	movweq	r0, #1
    2598:	01550508 	cmpeq	r5, r8, lsl #10
    259c:	01030000 	mrseq	r0, (UNDEF: 3)
    25a0:	00008408 	andeq	r8, r0, r8, lsl #8
    25a4:	07020300 	streq	r0, [r2, -r0, lsl #6]
    25a8:	000000fa 	strdeq	r0, [r0], -sl
    25ac:	3a070403 	bcc	1c35c0 <__bss_end__+0x1b9468>
    25b0:	03000001 	movweq	r0, #1
    25b4:	01350708 	teqeq	r5, r8, lsl #14
    25b8:	a0050000 	andge	r0, r5, r0
    25bc:	02000008 	andeq	r0, r0, #8
    25c0:	00002507 	andeq	r2, r0, r7, lsl #10
    25c4:	088a0500 	stmeq	sl, {r8, sl}
    25c8:	2c030000 	stccs	0, cr0, [r3], {-0}
    25cc:	00000046 	andeq	r0, r0, r6, asr #32
    25d0:	00096605 	andeq	r6, r9, r5, lsl #12
    25d4:	46720300 	ldrbtmi	r0, [r2], -r0, lsl #6
    25d8:	06000000 	streq	r0, [r0], -r0
    25dc:	0000082e 	andeq	r0, r0, lr, lsr #16
    25e0:	2c016504 	cfstr32cs	mvfx6, [r1], {4}
    25e4:	07000000 	streq	r0, [r0, -r0]
    25e8:	bca60304 	stclt	3, cr0, [r6], #16
    25ec:	08000000 	stmdaeq	r0, {}	; <UNPREDICTABLE>
    25f0:	00000819 	andeq	r0, r0, r9, lsl r8
    25f4:	0091a803 	addseq	sl, r1, r3, lsl #16
    25f8:	b5080000 	strlt	r0, [r8, #-0]
    25fc:	03000007 	movweq	r0, #7
    2600:	0000bca9 	andeq	fp, r0, r9, lsr #25
    2604:	54090000 	strpl	r0, [r9], #-0
    2608:	cc000000 	stcgt	0, cr0, [r0], {-0}
    260c:	0a000000 	beq	2614 <_start-0x59ec>
    2610:	000000cc 	andeq	r0, r0, ip, asr #1
    2614:	04030003 	streq	r0, [r3], #-3
    2618:	00014c07 	andeq	r4, r1, r7, lsl #24
    261c:	03080b00 	movweq	r0, #35584	; 0x8b00
    2620:	0000f4a3 	andeq	pc, r0, r3, lsr #9
    2624:	094b0c00 	stmdbeq	fp, {sl, fp}^
    2628:	a5030000 	strge	r0, [r3, #-0]
    262c:	00000025 	andeq	r0, r0, r5, lsr #32
    2630:	09530c00 	ldmdbeq	r3, {sl, fp}^
    2634:	aa030000 	bge	c263c <__bss_end__+0xb84e4>
    2638:	0000009d 	muleq	r0, sp, r0
    263c:	de050004 	cdple	0, 0, cr0, cr5, cr4, {0}
    2640:	03000008 	movweq	r0, #8
    2644:	0000d3ab 	andeq	sp, r0, fp, lsr #7
    2648:	077e0500 	ldrbeq	r0, [lr, -r0, lsl #10]!
    264c:	af030000 	svcge	0x00030000
    2650:	00000070 	andeq	r0, r0, r0, ror r0
    2654:	040e040d 	streq	r0, [lr], #-1037	; 0x40d
    2658:	00000112 	andeq	r0, r0, r2, lsl r1
    265c:	8d080103 	stfhis	f0, [r8, #-12]
    2660:	0f000000 	svceq	0x00000000
    2664:	00000112 	andeq	r0, r0, r2, lsl r1
    2668:	000a0805 	andeq	r0, sl, r5, lsl #16
    266c:	62160500 	andsvs	r0, r6, #0, 10
    2670:	10000000 	andne	r0, r0, r0
    2674:	0000078f 	andeq	r0, r0, pc, lsl #15
    2678:	7c2d0518 	cfstr32vc	mvfx0, [sp], #-96	; 0xffffffa0
    267c:	0c000001 	stceq	0, cr0, [r0], {1}
    2680:	000008ff 	strdeq	r0, [r0], -pc	; <UNPREDICTABLE>
    2684:	017c2f05 	cmneq	ip, r5, lsl #30
    2688:	11000000 	mrsne	r0, (UNDEF: 0)
    268c:	05006b5f 	streq	r6, [r0, #-2911]	; 0xb5f
    2690:	00002530 	andeq	r2, r0, r0, lsr r5
    2694:	360c0400 	strcc	r0, [ip], -r0, lsl #8
    2698:	05000009 	streq	r0, [r0, #-9]
    269c:	00002530 	andeq	r2, r0, r0, lsr r5
    26a0:	6a0c0800 	bvs	3046a8 <__bss_end__+0x2fa550>
    26a4:	05000007 	streq	r0, [r0, #-7]
    26a8:	00002530 	andeq	r2, r0, r0, lsr r5
    26ac:	4f0c0c00 	svcmi	0x000c0c00
    26b0:	0500000a 	streq	r0, [r0, #-10]
    26b4:	00002530 	andeq	r2, r0, r0, lsr r5
    26b8:	5f111000 	svcpl	0x00111000
    26bc:	31050078 	tstcc	r5, r8, ror r0
    26c0:	00000182 	andeq	r0, r0, r2, lsl #3
    26c4:	040e0014 	streq	r0, [lr], #-20
    26c8:	00000129 	andeq	r0, r0, r9, lsr #2
    26cc:	00011e09 	andeq	r1, r1, r9, lsl #28
    26d0:	00019200 	andeq	r9, r1, r0, lsl #4
    26d4:	00cc0a00 	sbceq	r0, ip, r0, lsl #20
    26d8:	00000000 	andeq	r0, r0, r0
    26dc:	0007b010 	andeq	fp, r7, r0, lsl r0
    26e0:	35052400 	strcc	r2, [r5, #-1024]	; 0x400
    26e4:	0000020b 	andeq	r0, r0, fp, lsl #4
    26e8:	0006680c 	andeq	r6, r6, ip, lsl #16
    26ec:	25370500 	ldrcs	r0, [r7, #-1280]!	; 0x500
    26f0:	00000000 	andeq	r0, r0, r0
    26f4:	00096e0c 	andeq	r6, r9, ip, lsl #28
    26f8:	25380500 	ldrcs	r0, [r8, #-1280]!	; 0x500
    26fc:	04000000 	streq	r0, [r0], #-0
    2700:	0006960c 	andeq	r9, r6, ip, lsl #12
    2704:	25390500 	ldrcs	r0, [r9, #-1280]!	; 0x500
    2708:	08000000 	stmdaeq	r0, {}	; <UNPREDICTABLE>
    270c:	000b3f0c 	andeq	r3, fp, ip, lsl #30
    2710:	253a0500 	ldrcs	r0, [sl, #-1280]!	; 0x500
    2714:	0c000000 	stceq	0, cr0, [r0], {-0}
    2718:	00086e0c 	andeq	r6, r8, ip, lsl #28
    271c:	253b0500 	ldrcs	r0, [fp, #-1280]!	; 0x500
    2720:	10000000 	andne	r0, r0, r0
    2724:	0008430c 	andeq	r4, r8, ip, lsl #6
    2728:	253c0500 	ldrcs	r0, [ip, #-1280]!	; 0x500
    272c:	14000000 	strne	r0, [r0], #-0
    2730:	000a540c 	andeq	r5, sl, ip, lsl #8
    2734:	253d0500 	ldrcs	r0, [sp, #-1280]!	; 0x500
    2738:	18000000 	stmdane	r0, {}	; <UNPREDICTABLE>
    273c:	0008c00c 	andeq	ip, r8, ip
    2740:	253e0500 	ldrcs	r0, [lr, #-1280]!	; 0x500
    2744:	1c000000 	stcne	0, cr0, [r0], {-0}
    2748:	000b060c 	andeq	r0, fp, ip, lsl #12
    274c:	253f0500 	ldrcs	r0, [pc, #-1280]!	; 2254 <_start-0x5dac>
    2750:	20000000 	andcs	r0, r0, r0
    2754:	06a51200 	strteq	r1, [r5], r0, lsl #4
    2758:	01080000 	mrseq	r0, (UNDEF: 8)
    275c:	024b4805 	subeq	r4, fp, #327680	; 0x50000
    2760:	510c0000 	mrspl	r0, (UNDEF: 12)
    2764:	05000007 	streq	r0, [r0, #-7]
    2768:	00024b49 	andeq	r4, r2, r9, asr #22
    276c:	e90c0000 	stmdb	ip, {}	; <UNPREDICTABLE>
    2770:	05000005 	streq	r0, [r0, #-5]
    2774:	00024b4a 	andeq	r4, r2, sl, asr #22
    2778:	fa138000 	blx	4e2780 <__bss_end__+0x4d8628>
    277c:	05000009 	streq	r0, [r0, #-9]
    2780:	00011e4c 	andeq	r1, r1, ip, asr #28
    2784:	13010000 	movwne	r0, #4096	; 0x1000
    2788:	000006ca 	andeq	r0, r0, sl, asr #13
    278c:	011e4f05 	tsteq	lr, r5, lsl #30
    2790:	01040000 	mrseq	r0, (UNDEF: 4)
    2794:	010a0900 	tsteq	sl, r0, lsl #18
    2798:	025b0000 	subseq	r0, fp, #0
    279c:	cc0a0000 	stcgt	0, cr0, [sl], {-0}
    27a0:	1f000000 	svcne	0x00000000
    27a4:	08771200 	ldmdaeq	r7!, {r9, ip}^
    27a8:	01900000 	orrseq	r0, r0, r0
    27ac:	02995b05 	addseq	r5, r9, #5120	; 0x1400
    27b0:	ff0c0000 			; <UNDEFINED> instruction: 0xff0c0000
    27b4:	05000008 	streq	r0, [r0, #-8]
    27b8:	0002995c 	andeq	r9, r2, ip, asr r9
    27bc:	170c0000 	strne	r0, [ip, -r0]
    27c0:	05000009 	streq	r0, [r0, #-9]
    27c4:	0000255d 	andeq	r2, r0, sp, asr r5
    27c8:	650c0400 	strvs	r0, [ip, #-1024]	; 0x400
    27cc:	05000007 	streq	r0, [r0, #-7]
    27d0:	00029f5f 	andeq	r9, r2, pc, asr pc
    27d4:	a50c0800 	strge	r0, [ip, #-2048]	; 0x800
    27d8:	05000006 	streq	r0, [r0, #-6]
    27dc:	00020b60 	andeq	r0, r2, r0, ror #22
    27e0:	0e008800 	cdpeq	8, 0, cr8, cr0, cr0, {0}
    27e4:	00025b04 	andeq	r5, r2, r4, lsl #22
    27e8:	02af0900 	adceq	r0, pc, #0, 18
    27ec:	02af0000 	adceq	r0, pc, #0
    27f0:	cc0a0000 	stcgt	0, cr0, [sl], {-0}
    27f4:	1f000000 	svcne	0x00000000
    27f8:	b5040e00 	strlt	r0, [r4, #-3584]	; 0xe00
    27fc:	14000002 	strne	r0, [r0], #-2
    2800:	0008ca10 	andeq	ip, r8, r0, lsl sl
    2804:	73050800 	movwvc	r0, #22528	; 0x5800
    2808:	000002db 	ldrdeq	r0, [r0], -fp
    280c:	00068b0c 	andeq	r8, r6, ip, lsl #22
    2810:	db740500 	blle	1d03c18 <__bss_end__+0x1cf9ac0>
    2814:	00000002 	andeq	r0, r0, r2
    2818:	0001cd0c 	andeq	ip, r1, ip, lsl #26
    281c:	25750500 	ldrbcs	r0, [r5, #-1280]!	; 0x500
    2820:	04000000 	streq	r0, [r0], #-0
    2824:	54040e00 	strpl	r0, [r4], #-3584	; 0xe00
    2828:	10000000 	andne	r0, r0, r0
    282c:	000008e9 	andeq	r0, r0, r9, ror #17
    2830:	0bb30568 	bleq	fecc3dd8 <__bss_end__+0xfecb9c80>
    2834:	11000004 	tstne	r0, r4
    2838:	0500705f 	streq	r7, [r0, #-95]	; 0x5f
    283c:	0002dbb4 			; <UNDEFINED> instruction: 0x0002dbb4
    2840:	5f110000 	svcpl	0x00110000
    2844:	b5050072 	strlt	r0, [r5, #-114]	; 0x72
    2848:	00000025 	andeq	r0, r0, r5, lsr #32
    284c:	775f1104 	ldrbvc	r1, [pc, -r4, lsl #2]
    2850:	25b60500 	ldrcs	r0, [r6, #1280]!	; 0x500
    2854:	08000000 	stmdaeq	r0, {}	; <UNPREDICTABLE>
    2858:	0006c30c 	andeq	ip, r6, ip, lsl #6
    285c:	3fb70500 	svccc	0x00b70500
    2860:	0c000000 	stceq	0, cr0, [r0], {-0}
    2864:	0007d60c 	andeq	sp, r7, ip, lsl #12
    2868:	3fb80500 	svccc	0x00b80500
    286c:	0e000000 	cdpeq	0, 0, cr0, cr0, cr0, {0}
    2870:	66625f11 	uqadd16vs	r5, r2, r1
    2874:	b6b90500 	ldrtlt	r0, [r9], r0, lsl #10
    2878:	10000002 	andne	r0, r0, r2
    287c:	0006320c 	andeq	r3, r6, ip, lsl #4
    2880:	25ba0500 	ldrcs	r0, [sl, #1280]!	; 0x500
    2884:	18000000 	stmdane	r0, {}	; <UNPREDICTABLE>
    2888:	0006b30c 	andeq	fp, r6, ip, lsl #6
    288c:	0ac10500 	beq	ff043c94 <__bss_end__+0xff039b3c>
    2890:	1c000001 	stcne	0, cr0, [r0], {1}
    2894:	000b660c 	andeq	r6, fp, ip, lsl #12
    2898:	66c30500 	strbvs	r0, [r3], r0, lsl #10
    289c:	20000005 	andcs	r0, r0, r5
    28a0:	000b800c 	andeq	r8, fp, ip
    28a4:	90c50500 	sbcls	r0, r5, r0, lsl #10
    28a8:	24000005 	strcs	r0, [r0], #-5
    28ac:	00095b0c 	andeq	r5, r9, ip, lsl #22
    28b0:	b4c80500 	strblt	r0, [r8], #1280	; 0x500
    28b4:	28000005 	stmdacs	r0, {r0, r2}
    28b8:	000b200c 	andeq	r2, fp, ip
    28bc:	cec90500 	cdpgt	5, 12, cr0, cr9, cr0, {0}
    28c0:	2c000005 	stccs	0, cr0, [r0], {5}
    28c4:	62755f11 	rsbsvs	r5, r5, #17, 30	; 0x44
    28c8:	b6cc0500 	strblt	r0, [ip], r0, lsl #10
    28cc:	30000002 	andcc	r0, r0, r2
    28d0:	70755f11 	rsbsvc	r5, r5, r1, lsl pc
    28d4:	dbcd0500 	blle	ff343cdc <__bss_end__+0xff339b84>
    28d8:	38000002 	stmdacc	r0, {r1}
    28dc:	72755f11 	rsbsvc	r5, r5, #17, 30	; 0x44
    28e0:	25ce0500 	strbcs	r0, [lr, #1280]	; 0x500
    28e4:	3c000000 	stccc	0, cr0, [r0], {-0}
    28e8:	0006760c 	andeq	r7, r6, ip, lsl #12
    28ec:	d4d10500 	ldrble	r0, [r1], #1280	; 0x500
    28f0:	40000005 	andmi	r0, r0, r5
    28f4:	000acb0c 	andeq	ip, sl, ip, lsl #22
    28f8:	e4d20500 	ldrb	r0, [r2], #1280	; 0x500
    28fc:	43000005 	movwmi	r0, #5
    2900:	626c5f11 	rsbvs	r5, ip, #17, 30	; 0x44
    2904:	b6d50500 	ldrblt	r0, [r5], r0, lsl #10
    2908:	44000002 	strmi	r0, [r0], #-2
    290c:	0006d90c 	andeq	sp, r6, ip, lsl #18
    2910:	25d80500 	ldrbcs	r0, [r8, #1280]	; 0x500
    2914:	4c000000 	stcmi	0, cr0, [r0], {-0}
    2918:	00084d0c 	andeq	r4, r8, ip, lsl #26
    291c:	7bd90500 	blvc	ff643d24 <__bss_end__+0xff639bcc>
    2920:	50000000 	andpl	r0, r0, r0
    2924:	000ab60c 	andeq	fp, sl, ip, lsl #12
    2928:	29dc0500 	ldmibcs	ip, {r8, sl}^
    292c:	54000004 	strpl	r0, [r0], #-4
    2930:	0008350c 	andeq	r3, r8, ip, lsl #10
    2934:	ffe00500 			; <UNDEFINED> instruction: 0xffe00500
    2938:	58000000 	stmdapl	r0, {}	; <UNPREDICTABLE>
    293c:	0008f10c 	andeq	pc, r8, ip, lsl #2
    2940:	f4e20500 	vld2.16	{d16[0],d17[0]}, [r2], r0
    2944:	5c000000 	stcpl	0, cr0, [r0], {-0}
    2948:	00083b0c 	andeq	r3, r8, ip, lsl #22
    294c:	25e30500 	strbcs	r0, [r3, #1280]!	; 0x500
    2950:	64000000 	strvs	r0, [r0], #-0
    2954:	00251500 	eoreq	r1, r5, r0, lsl #10
    2958:	04290000 	strteq	r0, [r9], #-0
    295c:	29160000 	ldmdbcs	r6, {}	; <UNPREDICTABLE>
    2960:	16000004 	strne	r0, [r0], -r4
    2964:	0000010a 	andeq	r0, r0, sl, lsl #2
    2968:	00010c16 	andeq	r0, r1, r6, lsl ip
    296c:	00251600 	eoreq	r1, r5, r0, lsl #12
    2970:	0e000000 	cdpeq	0, 0, cr0, cr0, cr0, {0}
    2974:	00043404 	andeq	r3, r4, r4, lsl #8
    2978:	04290f00 	strteq	r0, [r9], #-3840	; 0xf00
    297c:	3e170000 	cdpcc	0, 1, cr0, cr7, cr0, {0}
    2980:	28000009 	stmdacs	r0, {r0, r3}
    2984:	02380504 	eorseq	r0, r8, #4, 10	; 0x1000000
    2988:	00000566 	andeq	r0, r0, r6, ror #10
    298c:	0008b918 	andeq	fp, r8, r8, lsl r9
    2990:	023a0500 	eorseq	r0, sl, #0, 10
    2994:	00000025 	andeq	r0, r0, r5, lsr #32
    2998:	06d21800 	ldrbeq	r1, [r2], r0, lsl #16
    299c:	3f050000 	svccc	0x00050000
    29a0:	00063b02 	andeq	r3, r6, r2, lsl #22
    29a4:	c6180400 	ldrgt	r0, [r8], -r0, lsl #8
    29a8:	05000007 	streq	r0, [r0, #-7]
    29ac:	063b023f 			; <UNDEFINED> instruction: 0x063b023f
    29b0:	18080000 	stmdane	r8, {}	; <UNPREDICTABLE>
    29b4:	00000787 	andeq	r0, r0, r7, lsl #15
    29b8:	3b023f05 	blcc	925d4 <__bss_end__+0x8847c>
    29bc:	0c000006 	stceq	0, cr0, [r0], {6}
    29c0:	00091218 	andeq	r1, r9, r8, lsl r2
    29c4:	02410500 	subeq	r0, r1, #0, 10
    29c8:	00000025 	andeq	r0, r0, r5, lsr #32
    29cc:	05fd1810 	ldrbeq	r1, [sp, #2064]!	; 0x810
    29d0:	42050000 	andmi	r0, r5, #0
    29d4:	00081d02 	andeq	r1, r8, r2, lsl #26
    29d8:	30181400 	andscc	r1, r8, r0, lsl #8
    29dc:	0500000a 	streq	r0, [r0, #-10]
    29e0:	00250244 	eoreq	r0, r5, r4, asr #4
    29e4:	18300000 	ldmdane	r0!, {}	; <UNPREDICTABLE>
    29e8:	0000091c 	andeq	r0, r0, ip, lsl r9
    29ec:	8a024505 	bhi	93e08 <__bss_end__+0x89cb0>
    29f0:	34000005 	strcc	r0, [r0], #-5
    29f4:	00087f18 	andeq	r7, r8, r8, lsl pc
    29f8:	02470500 	subeq	r0, r7, #0, 10
    29fc:	00000025 	andeq	r0, r0, r5, lsr #32
    2a00:	092c1838 	stmdbeq	ip!, {r3, r4, r5, fp, ip}
    2a04:	49050000 	stmdbmi	r5, {}	; <UNPREDICTABLE>
    2a08:	00083802 	andeq	r3, r8, r2, lsl #16
    2a0c:	11183c00 	tstne	r8, r0, lsl #24
    2a10:	05000008 	streq	r0, [r0, #-8]
    2a14:	017c024c 	cmneq	ip, ip, asr #4
    2a18:	18400000 	stmdane	r0, {}^	; <UNPREDICTABLE>
    2a1c:	000007a6 	andeq	r0, r0, r6, lsr #15
    2a20:	25024d05 	strcs	r4, [r2, #-3333]	; 0xd05
    2a24:	44000000 	strmi	r0, [r0], #-0
    2a28:	000b3a18 	andeq	r3, fp, r8, lsl sl
    2a2c:	024e0500 	subeq	r0, lr, #0, 10
    2a30:	0000017c 	andeq	r0, r0, ip, ror r1
    2a34:	08961848 	ldmeq	r6, {r3, r6, fp, ip}
    2a38:	4f050000 	svcmi	0x00050000
    2a3c:	00083e02 	andeq	r3, r8, r2, lsl #28
    2a40:	ce184c00 	cdpgt	12, 1, cr4, cr8, cr0, {0}
    2a44:	05000007 	streq	r0, [r0, #-7]
    2a48:	00250252 	eoreq	r0, r5, r2, asr r2
    2a4c:	18500000 	ldmdane	r0, {}^	; <UNPREDICTABLE>
    2a50:	000006f5 	strdeq	r0, [r0], -r5
    2a54:	0c025305 	stceq	3, cr5, [r2], {5}
    2a58:	54000001 	strpl	r0, [r0], #-1
    2a5c:	0008b218 	andeq	fp, r8, r8, lsl r2
    2a60:	02760500 	rsbseq	r0, r6, #0, 10
    2a64:	000007fb 	strdeq	r0, [r0], -fp
    2a68:	08771958 	ldmdaeq	r7!, {r3, r4, r6, r8, fp, ip}^
    2a6c:	7a050000 	bvc	142a74 <__bss_end__+0x13891c>
    2a70:	00029902 	andeq	r9, r2, r2, lsl #18
    2a74:	19014800 	stmdbne	r1, {fp, lr}
    2a78:	000007e3 	andeq	r0, r0, r3, ror #15
    2a7c:	5b027b05 	blpl	a1698 <__bss_end__+0x97540>
    2a80:	4c000002 	stcmi	0, cr0, [r0], {2}
    2a84:	0a9c1901 	beq	fe708e90 <__bss_end__+0xfe6fed38>
    2a88:	7f050000 	svcvc	0x00050000
    2a8c:	00084f02 	andeq	r4, r8, r2, lsl #30
    2a90:	1902dc00 	stmdbne	r2, {sl, fp, ip, lr, pc}
    2a94:	000006bb 			; <UNDEFINED> instruction: 0x000006bb
    2a98:	00028405 	andeq	r8, r2, r5, lsl #8
    2a9c:	e0000006 	and	r0, r0, r6
    2aa0:	06a01902 	strteq	r1, [r0], r2, lsl #18
    2aa4:	85050000 	strhi	r0, [r5, #-0]
    2aa8:	00085b02 	andeq	r5, r8, r2, lsl #22
    2aac:	0002ec00 	andeq	lr, r2, r0, lsl #24
    2ab0:	040b040e 	streq	r0, [fp], #-1038	; 0x40e
    2ab4:	25150000 	ldrcs	r0, [r5, #-0]
    2ab8:	8a000000 	bhi	2ac0 <_start-0x5540>
    2abc:	16000005 	strne	r0, [r0], -r5
    2ac0:	00000429 	andeq	r0, r0, r9, lsr #8
    2ac4:	00010a16 	andeq	r0, r1, r6, lsl sl
    2ac8:	058a1600 	streq	r1, [sl, #1536]	; 0x600
    2acc:	25160000 	ldrcs	r0, [r6, #-0]
    2ad0:	00000000 	andeq	r0, r0, r0
    2ad4:	0119040e 	tsteq	r9, lr, lsl #8
    2ad8:	040e0000 	streq	r0, [lr], #-0
    2adc:	0000056c 	andeq	r0, r0, ip, ror #10
    2ae0:	00008615 	andeq	r8, r0, r5, lsl r6
    2ae4:	0005b400 	andeq	fp, r5, r0, lsl #8
    2ae8:	04291600 	strteq	r1, [r9], #-1536	; 0x600
    2aec:	0a160000 	beq	582af4 <__bss_end__+0x57899c>
    2af0:	16000001 	strne	r0, [r0], -r1
    2af4:	00000086 	andeq	r0, r0, r6, lsl #1
    2af8:	00002516 	andeq	r2, r0, r6, lsl r5
    2afc:	040e0000 	streq	r0, [lr], #-0
    2b00:	00000596 	muleq	r0, r6, r5
    2b04:	00002515 	andeq	r2, r0, r5, lsl r5
    2b08:	0005ce00 	andeq	ip, r5, r0, lsl #28
    2b0c:	04291600 	strteq	r1, [r9], #-1536	; 0x600
    2b10:	0a160000 	beq	582b18 <__bss_end__+0x5789c0>
    2b14:	00000001 	andeq	r0, r0, r1
    2b18:	05ba040e 	ldreq	r0, [sl, #1038]!	; 0x40e
    2b1c:	54090000 	strpl	r0, [r9], #-0
    2b20:	e4000000 	str	r0, [r0], #-0
    2b24:	0a000005 	beq	2b40 <_start-0x54c0>
    2b28:	000000cc 	andeq	r0, r0, ip, asr #1
    2b2c:	54090002 	strpl	r0, [r9], #-2
    2b30:	f4000000 	vst4.8	{d0-d3}, [r0], r0
    2b34:	0a000005 	beq	2b50 <_start-0x54b0>
    2b38:	000000cc 	andeq	r0, r0, ip, asr #1
    2b3c:	d7060000 	strle	r0, [r6, -r0]
    2b40:	05000008 	streq	r0, [r0, #-8]
    2b44:	02e1011d 	rsceq	r0, r1, #1073741831	; 0x40000007
    2b48:	5e1a0000 	cdppl	0, 1, cr0, cr10, cr0, {0}
    2b4c:	0c00000a 	stceq	0, cr0, [r0], {10}
    2b50:	35012105 	strcc	r2, [r1, #-261]	; 0x105
    2b54:	18000006 	stmdane	r0, {r1, r2}
    2b58:	000008ff 	strdeq	r0, [r0], -pc	; <UNPREDICTABLE>
    2b5c:	35012305 	strcc	r2, [r1, #-773]	; 0x305
    2b60:	00000006 	andeq	r0, r0, r6
    2b64:	0007dc18 	andeq	sp, r7, r8, lsl ip
    2b68:	01240500 	teqeq	r4, r0, lsl #10
    2b6c:	00000025 	andeq	r0, r0, r5, lsr #32
    2b70:	08d11804 	ldmeq	r1, {r2, fp, ip}^
    2b74:	25050000 	strcs	r0, [r5, #-0]
    2b78:	00063b01 	andeq	r3, r6, r1, lsl #22
    2b7c:	0e000800 	cdpeq	8, 0, cr0, cr0, cr0, {0}
    2b80:	00060004 	andeq	r0, r6, r4
    2b84:	f4040e00 			; <UNDEFINED> instruction: 0xf4040e00
    2b88:	1a000005 	bne	2ba4 <_start-0x545c>
    2b8c:	000005f5 	strdeq	r0, [r0], -r5
    2b90:	013d050e 	teqeq	sp, lr, lsl #10
    2b94:	00000676 	andeq	r0, r0, r6, ror r6
    2b98:	00094518 	andeq	r4, r9, r8, lsl r5
    2b9c:	013e0500 	teqeq	lr, r0, lsl #10
    2ba0:	00000676 	andeq	r0, r0, r6, ror r6
    2ba4:	097f1800 	ldmdbeq	pc!, {fp, ip}^	; <UNPREDICTABLE>
    2ba8:	3f050000 	svccc	0x00050000
    2bac:	00067601 	andeq	r7, r6, r1, lsl #12
    2bb0:	03180600 	tsteq	r8, #0, 12
    2bb4:	0500000a 	streq	r0, [r0, #-10]
    2bb8:	005b0140 	subseq	r0, fp, r0, asr #2
    2bbc:	000c0000 	andeq	r0, ip, r0
    2bc0:	00005b09 	andeq	r5, r0, r9, lsl #22
    2bc4:	00068600 	andeq	r8, r6, r0, lsl #12
    2bc8:	00cc0a00 	sbceq	r0, ip, r0, lsl #20
    2bcc:	00020000 	andeq	r0, r2, r0
    2bd0:	5705d01b 	smladpl	r5, fp, r0, sp
    2bd4:	00078702 	andeq	r8, r7, r2, lsl #14
    2bd8:	0a421800 	beq	1088be0 <__bss_end__+0x107ea88>
    2bdc:	59050000 	stmdbpl	r5, {}	; <UNPREDICTABLE>
    2be0:	00002c02 	andeq	r2, r0, r2, lsl #24
    2be4:	ed180000 	ldc	0, cr0, [r8, #-0]
    2be8:	05000009 	streq	r0, [r0, #-9]
    2bec:	010c025a 	tsteq	ip, sl, asr r2
    2bf0:	18040000 	stmdane	r4, {}	; <UNPREDICTABLE>
    2bf4:	000007f8 	strdeq	r0, [r0], -r8
    2bf8:	87025b05 	strhi	r5, [r2, -r5, lsl #22]
    2bfc:	08000007 	stmdaeq	r0, {r0, r1, r2}
    2c00:	000b1118 	andeq	r1, fp, r8, lsl r1
    2c04:	025c0500 	subseq	r0, ip, #0, 10
    2c08:	00000192 	muleq	r0, r2, r1
    2c0c:	07971824 	ldreq	r1, [r7, r4, lsr #16]
    2c10:	5d050000 	stcpl	0, cr0, [r5, #-0]
    2c14:	00002502 	andeq	r2, r0, r2, lsl #10
    2c18:	fa184800 	blx	614c20 <__bss_end__+0x60aac8>
    2c1c:	05000008 	streq	r0, [r0, #-8]
    2c20:	0069025e 	rsbeq	r0, r9, lr, asr r2
    2c24:	18500000 	ldmdane	r0, {}^	; <UNPREDICTABLE>
    2c28:	00000b27 	andeq	r0, r0, r7, lsr #22
    2c2c:	41025f05 	tstmi	r2, r5, lsl #30
    2c30:	58000006 	stmdapl	r0, {r1, r2}
    2c34:	00090518 	andeq	r0, r9, r8, lsl r5
    2c38:	02600500 	rsbeq	r0, r0, #0, 10
    2c3c:	000000f4 	strdeq	r0, [r0], -r4
    2c40:	0b2c1868 	bleq	b08de8 <__bss_end__+0xafec90>
    2c44:	61050000 	mrsvs	r0, (UNDEF: 5)
    2c48:	0000f402 	andeq	pc, r0, r2, lsl #8
    2c4c:	5a187000 	bpl	61ec54 <__bss_end__+0x614afc>
    2c50:	05000006 	streq	r0, [r0, #-6]
    2c54:	00f40262 	rscseq	r0, r4, r2, ror #4
    2c58:	18780000 	ldmdane	r8!, {}^	; <UNPREDICTABLE>
    2c5c:	00000a7e 	andeq	r0, r0, lr, ror sl
    2c60:	97026305 	strls	r6, [r2, -r5, lsl #6]
    2c64:	80000007 	andhi	r0, r0, r7
    2c68:	0007ec18 	andeq	lr, r7, r8, lsl ip
    2c6c:	02640500 	rsbeq	r0, r4, #0, 10
    2c70:	000007a7 	andeq	r0, r0, r7, lsr #15
    2c74:	0a101888 	beq	408e9c <__bss_end__+0x3fed44>
    2c78:	65050000 	strvs	r0, [r5, #-0]
    2c7c:	00002502 	andeq	r2, r0, r2, lsl #10
    2c80:	4318a000 	tstmi	r8, #0
    2c84:	05000007 	streq	r0, [r0, #-7]
    2c88:	00f40266 	rscseq	r0, r4, r6, ror #4
    2c8c:	18a40000 	stmiane	r4!, {}	; <UNPREDICTABLE>
    2c90:	0000064b 	andeq	r0, r0, fp, asr #12
    2c94:	f4026705 	vst1.8	{d6}, [r2], r5
    2c98:	ac000000 	stcge	0, cr0, [r0], {-0}
    2c9c:	00073218 	andeq	r3, r7, r8, lsl r2
    2ca0:	02680500 	rsbeq	r0, r8, #0, 10
    2ca4:	000000f4 	strdeq	r0, [r0], -r4
    2ca8:	061218b4 			; <UNDEFINED> instruction: 0x061218b4
    2cac:	69050000 	stmdbvs	r5, {}	; <UNPREDICTABLE>
    2cb0:	0000f402 	andeq	pc, r0, r2, lsl #8
    2cb4:	2118bc00 	tstcs	r8, r0, lsl #24
    2cb8:	05000006 	streq	r0, [r0, #-6]
    2cbc:	00f4026a 	rscseq	r0, r4, sl, ror #4
    2cc0:	18c40000 	stmiane	r4, {}^	; <UNPREDICTABLE>
    2cc4:	000008b7 			; <UNDEFINED> instruction: 0x000008b7
    2cc8:	25026b05 	strcs	r6, [r2, #-2821]	; 0xb05
    2ccc:	cc000000 	stcgt	0, cr0, [r0], {-0}
    2cd0:	01120900 	tsteq	r2, r0, lsl #18
    2cd4:	07970000 	ldreq	r0, [r7, r0]
    2cd8:	cc0a0000 	stcgt	0, cr0, [sl], {-0}
    2cdc:	19000000 	stmdbne	r0, {}	; <UNPREDICTABLE>
    2ce0:	01120900 	tsteq	r2, r0, lsl #18
    2ce4:	07a70000 	streq	r0, [r7, r0]!
    2ce8:	cc0a0000 	stcgt	0, cr0, [sl], {-0}
    2cec:	07000000 	streq	r0, [r0, -r0]
    2cf0:	01120900 	tsteq	r2, r0, lsl #18
    2cf4:	07b70000 	ldreq	r0, [r7, r0]!
    2cf8:	cc0a0000 	stcgt	0, cr0, [sl], {-0}
    2cfc:	17000000 	strne	r0, [r0, -r0]
    2d00:	05f01b00 	ldrbeq	r1, [r0, #2816]!	; 0xb00
    2d04:	07db0270 			; <UNDEFINED> instruction: 0x07db0270
    2d08:	67180000 	ldrvs	r0, [r8, -r0]
    2d0c:	05000008 	streq	r0, [r0, #-8]
    2d10:	07db0273 			; <UNDEFINED> instruction: 0x07db0273
    2d14:	18000000 	stmdane	r0, {}	; <UNPREDICTABLE>
    2d18:	00000a75 	andeq	r0, r0, r5, ror sl
    2d1c:	eb027405 	bl	9fd38 <__bss_end__+0x95be0>
    2d20:	78000007 	stmdavc	r0, {r0, r1, r2}
    2d24:	02db0900 	sbcseq	r0, fp, #0, 18
    2d28:	07eb0000 	strbeq	r0, [fp, r0]!
    2d2c:	cc0a0000 	stcgt	0, cr0, [sl], {-0}
    2d30:	1d000000 	stcne	0, cr0, [r0, #-0]
    2d34:	002c0900 	eoreq	r0, ip, r0, lsl #18
    2d38:	07fb0000 	ldrbeq	r0, [fp, r0]!
    2d3c:	cc0a0000 	stcgt	0, cr0, [sl], {-0}
    2d40:	1d000000 	stcne	0, cr0, [r0, #-0]
    2d44:	05f01c00 	ldrbeq	r1, [r0, #3072]!	; 0xc00
    2d48:	081d0255 	ldmdaeq	sp, {r0, r2, r4, r6, r9}
    2d4c:	3e1d0000 	cdpcc	0, 1, cr0, cr13, cr0, {0}
    2d50:	05000009 	streq	r0, [r0, #-9]
    2d54:	0686026c 	streq	r0, [r6], ip, ror #4
    2d58:	d11d0000 	tstle	sp, r0
    2d5c:	0500000a 	streq	r0, [r0, #-10]
    2d60:	07b70275 			; <UNDEFINED> instruction: 0x07b70275
    2d64:	09000000 	stmdbeq	r0, {}	; <UNPREDICTABLE>
    2d68:	00000112 	andeq	r0, r0, r2, lsl r1
    2d6c:	0000082d 	andeq	r0, r0, sp, lsr #16
    2d70:	0000cc0a 	andeq	ip, r0, sl, lsl #24
    2d74:	1e001800 	cdpne	8, 0, cr1, cr0, cr0, {0}
    2d78:	00000838 	andeq	r0, r0, r8, lsr r8
    2d7c:	00042916 	andeq	r2, r4, r6, lsl r9
    2d80:	040e0000 	streq	r0, [lr], #-0
    2d84:	0000082d 	andeq	r0, r0, sp, lsr #16
    2d88:	017c040e 	cmneq	ip, lr, lsl #8
    2d8c:	4f1e0000 	svcmi	0x001e0000
    2d90:	16000008 	strne	r0, [r0], -r8
    2d94:	00000025 	andeq	r0, r0, r5, lsr #32
    2d98:	55040e00 	strpl	r0, [r4, #-3584]	; 0xe00
    2d9c:	0e000008 	cdpeq	0, 0, cr0, cr0, cr8, {0}
    2da0:	00084404 	andeq	r4, r8, r4, lsl #8
    2da4:	05f40900 	ldrbeq	r0, [r4, #2304]!	; 0x900
    2da8:	086b0000 	stmdaeq	fp!, {}^	; <UNPREDICTABLE>
    2dac:	cc0a0000 	stcgt	0, cr0, [sl], {-0}
    2db0:	02000000 	andeq	r0, r0, #0
    2db4:	0a241f00 	beq	90a9bc <__bss_end__+0x900864>
    2db8:	fd050000 	stc2	0, cr0, [r5, #-0]
    2dbc:	00042902 	andeq	r2, r4, r2, lsl #18
    2dc0:	0a1d1f00 	beq	74a9c8 <__bss_end__+0x740870>
    2dc4:	fe050000 	cdp2	0, 0, cr0, cr5, cr0, {0}
    2dc8:	00042f02 	andeq	r2, r4, r2, lsl #30
    2dcc:	00251500 	eoreq	r1, r5, r0, lsl #10
    2dd0:	08920000 	ldmeq	r2, {}	; <UNPREDICTABLE>
    2dd4:	25160000 	ldrcs	r0, [r6, #-0]
    2dd8:	00000000 	andeq	r0, r0, r0
    2ddc:	0003e920 	andeq	lr, r3, r0, lsr #18
    2de0:	9d1d0600 	ldcls	6, cr0, [sp, #-0]
    2de4:	0e000008 	cdpeq	0, 0, cr0, cr0, cr8, {0}
    2de8:	00088304 	andeq	r8, r8, r4, lsl #6
    2dec:	00251500 	eoreq	r1, r5, r0, lsl #10
    2df0:	08b20000 	ldmeq	r2!, {}	; <UNPREDICTABLE>
    2df4:	8a160000 	bhi	582dfc <__bss_end__+0x578ca4>
    2df8:	00000005 	andeq	r0, r0, r5
    2dfc:	00042620 	andeq	r2, r4, r0, lsr #12
    2e00:	bd220600 	stclt	6, cr0, [r2, #-0]
    2e04:	0e000008 	cdpeq	0, 0, cr0, cr0, cr8, {0}
    2e08:	0008a304 	andeq	sl, r8, r4, lsl #6
    2e0c:	54012100 	strpl	r2, [r1], #-256	; 0x100
    2e10:	08000000 	stmdaeq	r0, {}	; <UNPREDICTABLE>
    2e14:	0009000c 	andeq	r0, r9, ip
    2e18:	063b2200 	ldrteq	r2, [fp], -r0, lsl #4
    2e1c:	22000000 	andcs	r0, r0, #0
    2e20:	00000a64 	andeq	r0, r0, r4, ror #20
    2e24:	0abc2201 	beq	fef0b630 <__bss_end__+0xfef014d8>
    2e28:	22040000 	andcs	r0, r4, #0
    2e2c:	0000067c 	andeq	r0, r0, ip, ror r6
    2e30:	081f2205 	ldmdaeq	pc, {r0, r2, r9, sp}	; <UNPREDICTABLE>
    2e34:	22060000 	andcs	r0, r6, #0
    2e38:	00000ad9 	ldrdeq	r0, [r0], -r9
    2e3c:	0ae82207 	beq	ffa0b660 <__bss_end__+0xffa01508>
    2e40:	22030000 	andcs	r0, r3, #0
    2e44:	00000af7 	strdeq	r0, [r0], -r7
    2e48:	e9100002 	ldmdb	r0, {r1}
    2e4c:	2c000006 	stccs	0, cr0, [r0], {6}
    2e50:	09900607 	ldmibeq	r0, {r0, r1, r2, r9, sl}
    2e54:	69110000 	ldmdbvs	r1, {}	; <UNPREDICTABLE>
    2e58:	0907006f 	stmdbeq	r7, {r0, r1, r2, r3, r5, r6}
    2e5c:	00000033 	andeq	r0, r0, r3, lsr r0
    2e60:	65691100 	strbvs	r1, [r9, #-256]!	; 0x100
    2e64:	0a070072 	beq	1c3034 <__bss_end__+0x1b8edc>
    2e68:	00000033 	andeq	r0, r0, r3, lsr r0
    2e6c:	69691104 	stmdbvs	r9!, {r2, r8, ip}^
    2e70:	11070072 	tstne	r7, r2, ror r0
    2e74:	00000033 	andeq	r0, r0, r3, lsr r0
    2e78:	636c1108 	cmnvs	ip, #8, 2
    2e7c:	13070072 	movwne	r0, #28786	; 0x7072
    2e80:	00000033 	andeq	r0, r0, r3, lsr r0
    2e84:	636d110c 	cmnvs	sp, #12, 2
    2e88:	14070072 	strne	r0, [r7], #-114	; 0x72
    2e8c:	00000033 	andeq	r0, r0, r3, lsr r0
    2e90:	736c1110 	cmnvc	ip, #16, 2
    2e94:	15070072 	strne	r0, [r7, #-114]	; 0x72
    2e98:	00000033 	andeq	r0, r0, r3, lsr r0
    2e9c:	736d1114 	cmnvc	sp, #20, 2
    2ea0:	16070072 			; <UNDEFINED> instruction: 0x16070072
    2ea4:	00000033 	andeq	r0, r0, r3, lsr r0
    2ea8:	09770c18 	ldmdbeq	r7!, {r3, r4, sl, fp}^
    2eac:	17070000 	strne	r0, [r7, -r0]
    2eb0:	00000033 	andeq	r0, r0, r3, lsr r0
    2eb4:	06910c1c 			; <UNDEFINED> instruction: 0x06910c1c
    2eb8:	1b070000 	blne	1c2ec0 <__bss_end__+0x1b8d68>
    2ebc:	00000033 	andeq	r0, r0, r3, lsr r0
    2ec0:	06710c20 	ldrbteq	r0, [r1], -r0, lsr #24
    2ec4:	1d070000 	stcne	0, cr0, [r7, #-0]
    2ec8:	00000033 	andeq	r0, r0, r3, lsr r0
    2ecc:	09610c24 	stmdbeq	r1!, {r2, r5, sl, fp}^
    2ed0:	1e070000 	cdpne	0, 0, cr0, cr7, cr0, {0}
    2ed4:	00000033 	andeq	r0, r0, r3, lsr r0
    2ed8:	59230028 	stmdbpl	r3!, {r3, r5}
    2edc:	01000007 	tsteq	r0, r7
    2ee0:	0009a507 	andeq	sl, r9, r7, lsl #10
    2ee4:	21500400 	cmpcs	r0, r0, lsl #8
    2ee8:	33040e20 	movwcc	r0, #20000	; 0x4e20
    2eec:	0f000000 	svceq	0x00000000
    2ef0:	0000099f 	muleq	r0, pc, r9	; <UNPREDICTABLE>
    2ef4:	00089123 	andeq	r9, r8, r3, lsr #2
    2ef8:	bf280100 	svclt	0x00280100
    2efc:	40000009 	andmi	r0, r0, r9
    2f00:	0e202150 	mcreq	1, 1, r2, cr0, cr0, {2}
    2f04:	00090004 	andeq	r0, r9, r4
    2f08:	09b90f00 	ldmibeq	r9!, {r8, r9, sl, fp}
    2f0c:	ae240000 	cdpge	0, 2, cr0, cr4, cr0, {0}
    2f10:	0100000a 	tsteq	r0, sl
    2f14:	000025a7 	andeq	r2, r0, r7, lsr #11
    2f18:	00938400 	addseq	r8, r3, r0, lsl #8
    2f1c:	00001000 	andeq	r1, r0, r0
    2f20:	f09c0100 			; <UNDEFINED> instruction: 0xf09c0100
    2f24:	25000009 	strcs	r0, [r0, #-9]
    2f28:	0000938c 	andeq	r9, r0, ip, lsl #7
    2f2c:	00000c9c 	muleq	r0, ip, ip
    2f30:	00939025 	addseq	r9, r3, r5, lsr #32
    2f34:	000ad200 	andeq	sp, sl, r0, lsl #4
    2f38:	ce260000 	cdpgt	0, 2, cr0, cr6, cr0, {0}
    2f3c:	01000003 	tsteq	r0, r3
    2f40:	0093549f 	umullseq	r5, r3, pc, r4	; <UNPREDICTABLE>
    2f44:	00003000 	andeq	r3, r0, r0
    2f48:	4e9c0100 	fmlmie	f0, f4, f0
    2f4c:	2700000a 	strcs	r0, [r0, -sl]
    2f50:	9f010063 	svcls	0x00010063
    2f54:	0000002c 	andeq	r0, r0, ip, lsr #32
    2f58:	000010eb 	andeq	r1, r0, fp, ror #1
    2f5c:	00936025 	addseq	r6, r3, r5, lsr #32
    2f60:	000c9c00 	andeq	r9, ip, r0, lsl #24
    2f64:	93642500 	cmnls	r4, #0, 10
    2f68:	0aa50000 	beq	fe942f70 <__bss_end__+0xfe938e18>
    2f6c:	78280000 	stmdavc	r8!, {}	; <UNPREDICTABLE>
    2f70:	a7000093 			; <UNDEFINED> instruction: 0xa7000093
    2f74:	4400000c 	strmi	r0, [r0], #-12
    2f78:	2900000a 	stmdbcs	r0, {r1, r3}
    2f7c:	0c055001 	stceq	0, cr5, [r5], {1}
    2f80:	20215040 	eorcs	r5, r1, r0, asr #32
    2f84:	05510129 	ldrbeq	r0, [r1, #-297]	; 0x129
    2f88:	ff080074 			; <UNDEFINED> instruction: 0xff080074
    2f8c:	7c25001a 	stcvc	0, cr0, [r5], #-104	; 0xffffff98
    2f90:	9c000093 	stcls	0, cr0, [r0], {147}	; 0x93
    2f94:	0000000c 	andeq	r0, r0, ip
    2f98:	0007bc24 	andeq	fp, r7, r4, lsr #24
    2f9c:	25970100 	ldrcs	r0, [r7, #256]	; 0x100
    2fa0:	24000000 	strcs	r0, [r0], #-0
    2fa4:	30000093 	mulcc	r0, r3, r0
    2fa8:	01000000 	mrseq	r0, (UNDEF: 0)
    2fac:	000aa59c 	muleq	sl, ip, r5
    2fb0:	00632a00 	rsbeq	r2, r3, r0, lsl #20
    2fb4:	00259b01 	eoreq	r9, r5, r1, lsl #22
    2fb8:	54010000 	strpl	r0, [r1], #-0
    2fbc:	00932c25 	addseq	r2, r3, r5, lsr #24
    2fc0:	000c9c00 	andeq	r9, ip, r0, lsl #24
    2fc4:	93302500 	teqls	r0, #0, 10
    2fc8:	0ad20000 	beq	ff482fd0 <__bss_end__+0xff478e78>
    2fcc:	40280000 	eormi	r0, r8, r0
    2fd0:	b2000093 	andlt	r0, r0, #147	; 0x93
    2fd4:	9b00000c 	blls	300c <_start-0x4ff4>
    2fd8:	2900000a 	stmdbcs	r0, {r1, r3}
    2fdc:	0c055001 	stceq	0, cr5, [r5], {1}
    2fe0:	20215040 	eorcs	r5, r1, r0, asr #32
    2fe4:	93482500 	movtls	r2, #34048	; 0x8500
    2fe8:	0c9c0000 	ldceq	0, cr0, [ip], {0}
    2fec:	24000000 	strcs	r0, [r0], #-0
    2ff0:	00000770 	andeq	r0, r0, r0, ror r7
    2ff4:	00258801 	eoreq	r8, r5, r1, lsl #16
    2ff8:	93040000 	movwls	r0, #16384	; 0x4000
    2ffc:	00200000 	eoreq	r0, r0, r0
    3000:	9c010000 	stcls	0, cr0, [r1], {-0}
    3004:	00000ad2 	ldrdeq	r0, [r0], -r2
    3008:	0093102b 	addseq	r1, r3, fp, lsr #32
    300c:	000cb200 	andeq	fp, ip, r0, lsl #4
    3010:	50012900 	andpl	r2, r1, r0, lsl #18
    3014:	50640c05 	rsbpl	r0, r4, r5, lsl #24
    3018:	00002021 	andeq	r2, r0, r1, lsr #32
    301c:	000a8e24 	andeq	r8, sl, r4, lsr #28
    3020:	257f0100 	ldrbcs	r0, [pc, #-256]!	; 2f28 <_start-0x50d8>
    3024:	ec000000 	stc	0, cr0, [r0], {-0}
    3028:	18000092 	stmdane	r0, {r1, r4, r7}
    302c:	01000000 	mrseq	r0, (UNDEF: 0)
    3030:	000aff9c 	muleq	sl, ip, pc	; <UNPREDICTABLE>
    3034:	92f82b00 	rscsls	r2, r8, #0, 22
    3038:	0cb20000 	ldceq	0, cr0, [r2]
    303c:	01290000 	teqeq	r9, r0
    3040:	640c0550 	strvs	r0, [ip], #-1360	; 0x550
    3044:	00202150 	eoreq	r2, r0, r0, asr r1
    3048:	06082600 	streq	r2, [r8], -r0, lsl #12
    304c:	3a010000 	bcc	43054 <__bss_end__+0x38efc>
    3050:	0000923c 	andeq	r9, r0, ip, lsr r2
    3054:	000000b0 	strheq	r0, [r0], -r0	; <UNPREDICTABLE>
    3058:	0c3d9c01 	ldceq	12, cr9, [sp], #-4
    305c:	4c280000 	stcmi	0, cr0, [r8], #-0
    3060:	bd000092 	stclt	0, cr0, [r0, #-584]	; 0xfffffdb8
    3064:	2c00000c 	stccs	0, cr0, [r0], {12}
    3068:	2900000b 	stmdbcs	r0, {r0, r1, r3}
    306c:	3e015001 	cdpcc	0, 0, cr5, cr1, cr1, {0}
    3070:	01510129 	cmpeq	r1, r9, lsr #2
    3074:	58280032 	stmdapl	r8!, {r1, r4, r5}
    3078:	bd000092 	stclt	0, cr0, [r0, #-584]	; 0xfffffdb8
    307c:	4400000c 	strmi	r0, [r0], #-12
    3080:	2900000b 	stmdbcs	r0, {r0, r1, r3}
    3084:	3f015001 	svccc	0x00015001
    3088:	01510129 	cmpeq	r1, r9, lsr #2
    308c:	5c250032 	stcpl	0, cr0, [r5], #-200	; 0xffffff38
    3090:	9c000092 	stcls	0, cr0, [r0], {146}	; 0x92
    3094:	2800000c 	stmdacs	r0, {r2, r3}
    3098:	00009268 	andeq	r9, r0, r8, ror #4
    309c:	00000c3d 	andeq	r0, r0, sp, lsr ip
    30a0:	00000b69 	andeq	r0, r0, r9, ror #22
    30a4:	05500129 	ldrbeq	r0, [r0, #-297]	; 0x129
    30a8:	2150040c 	cmpcs	r0, ip, lsl #8
    30ac:	51012920 	tstpl	r1, r0, lsr #18
    30b0:	25003101 	strcs	r3, [r0, #-257]	; 0x101
    30b4:	0000926c 	andeq	r9, r0, ip, ror #4
    30b8:	00000c9c 	muleq	r0, ip, ip
    30bc:	00927c28 	addseq	r7, r2, r8, lsr #24
    30c0:	000ca700 	andeq	sl, ip, r0, lsl #14
    30c4:	000b8b00 	andeq	r8, fp, r0, lsl #22
    30c8:	50012900 	andpl	r2, r1, r0, lsl #18
    30cc:	29007402 	stmdbcs	r0, {r1, sl, ip, sp, lr}
    30d0:	30015101 	andcc	r5, r1, r1, lsl #2
    30d4:	92882800 	addls	r2, r8, #0, 16
    30d8:	0ca70000 	stceq	0, cr0, [r7]
    30dc:	0ba70000 	bleq	fe9c30e4 <__bss_end__+0xfe9b8f8c>
    30e0:	01290000 	teqeq	r9, r0
    30e4:	440c0550 	strmi	r0, [ip], #-1360	; 0x550
    30e8:	29202150 	stmdbcs	r0!, {r4, r6, r8, sp}
    30ec:	30015101 	andcc	r5, r1, r1, lsl #2
    30f0:	92942800 	addsls	r2, r4, #0, 16
    30f4:	0ca70000 	stceq	0, cr0, [r7]
    30f8:	0bc30000 	bleq	ff0c3100 <__bss_end__+0xff0b8fa8>
    30fc:	01290000 	teqeq	r9, r0
    3100:	4c0c0550 	cfstr32mi	mvfx0, [ip], {80}	; 0x50
    3104:	29202150 	stmdbcs	r0!, {r4, r6, r8, sp}
    3108:	33015101 	movwcc	r5, #4353	; 0x1101
    310c:	92a02800 	adcls	r2, r0, #0, 16
    3110:	0ca70000 	stceq	0, cr0, [r7]
    3114:	0bdf0000 	bleq	ff7c311c <__bss_end__+0xff7b8fc4>
    3118:	01290000 	teqeq	r9, r0
    311c:	500c0550 	andpl	r0, ip, r0, asr r5
    3120:	29202150 	stmdbcs	r0!, {r4, r6, r8, sp}
    3124:	30015101 	andcc	r5, r1, r1, lsl #2
    3128:	92ac2800 	adcls	r2, ip, #0, 16
    312c:	0ca70000 	stceq	0, cr0, [r7]
    3130:	0bfc0000 	bleq	fff03138 <__bss_end__+0xffef8fe0>
    3134:	01290000 	teqeq	r9, r0
    3138:	480c0550 	stmdami	ip, {r4, r6, r8, sl}
    313c:	29202150 	stmdbcs	r0!, {r4, r6, r8, sp}
    3140:	08025101 	stmdaeq	r2, {r0, r8, ip, lr}
    3144:	b82800c7 	stmdalt	r8!, {r0, r1, r2, r6, r7}
    3148:	a7000092 			; <UNDEFINED> instruction: 0xa7000092
    314c:	1a00000c 	bne	3184 <_start-0x4e7c>
    3150:	2900000c 	stmdbcs	r0, {r2, r3}
    3154:	0c055001 	stceq	0, cr5, [r5], {1}
    3158:	20215068 	eorcs	r5, r1, r8, rrx
    315c:	03510129 	cmpeq	r1, #1073741834	; 0x4000000a
    3160:	00010e0a 	andeq	r0, r1, sl, lsl #28
    3164:	0092c428 	addseq	ip, r2, r8, lsr #8
    3168:	000ca700 	andeq	sl, ip, r0, lsl #14
    316c:	000c3300 	andeq	r3, ip, r0, lsl #6
    3170:	50012900 	andpl	r2, r1, r0, lsl #18
    3174:	29007402 	stmdbcs	r0, {r1, sl, ip, sp, lr}
    3178:	33015101 	movwcc	r5, #4353	; 0x1101
    317c:	92c82500 	sbcls	r2, r8, #0, 10
    3180:	0c9c0000 	ldceq	0, cr0, [ip], {0}
    3184:	2c000000 	stccs	0, cr0, [r0], {-0}
    3188:	00000aa6 	andeq	r0, r0, r6, lsr #21
    318c:	921c2d01 	andsls	r2, ip, #1, 26	; 0x40
    3190:	00200000 	eoreq	r0, r0, r0
    3194:	9c010000 	stcls	0, cr0, [r1], {-0}
    3198:	00000c95 	muleq	r0, r5, ip
    319c:	0001b92d 	andeq	fp, r1, sp, lsr #18
    31a0:	952d0100 	strls	r0, [sp, #-256]!	; 0x100
    31a4:	0900000c 	stmdbeq	r0, {r2, r3}
    31a8:	27000011 	smladcs	r0, r1, r0, r0
    31ac:	006c6176 	rsbeq	r6, ip, r6, ror r1
    31b0:	002c2d01 	eoreq	r2, ip, r1, lsl #26
    31b4:	11270000 	teqne	r7, r0
    31b8:	2c280000 	stccs	0, cr0, [r8], #-0
    31bc:	b2000092 	andlt	r0, r0, #146	; 0x92
    31c0:	8400000c 	strhi	r0, [r0], #-12
    31c4:	2900000c 	stmdbcs	r0, {r2, r3}
    31c8:	74025001 	strvc	r5, [r2], #-1
    31cc:	382b0000 	stmdacc	fp!, {}	; <UNPREDICTABLE>
    31d0:	a7000092 			; <UNDEFINED> instruction: 0xa7000092
    31d4:	2900000c 	stmdbcs	r0, {r2, r3}
    31d8:	74025001 	strvc	r5, [r2], #-1
    31dc:	0e000000 	cdpeq	0, 0, cr0, cr0, cr0, {0}
    31e0:	000c9b04 	andeq	r9, ip, r4, lsl #22
    31e4:	052f2e00 	streq	r2, [pc, #-3584]!	; 23ec <_start-0x5c14>
    31e8:	05000008 	streq	r0, [r0, #-8]
    31ec:	06000008 	streq	r0, [r0], -r8
    31f0:	09852f89 	stmibeq	r5, {r0, r3, r7, r8, r9, sl, fp, sp}
    31f4:	09850000 	stmibeq	r5, {}	; <UNPREDICTABLE>
    31f8:	9c060000 	stcls	0, cr0, [r6], {-0}
    31fc:	000a882f 	andeq	r8, sl, pc, lsr #16
    3200:	000a8800 	andeq	r8, sl, r0, lsl #16
    3204:	2fa80600 	svccs	0x00a80600
    3208:	00000855 	andeq	r0, r0, r5, asr r8
    320c:	00000855 	andeq	r0, r0, r5, asr r8
    3210:	70001908 	andvc	r1, r0, r8, lsl #18
    3214:	0400000b 	streq	r0, [r0], #-11
    3218:	000fa700 	andeq	sl, pc, r0, lsl #14
    321c:	8b010400 	blhi	44224 <__bss_end__+0x3a0cc>
    3220:	0c000009 	stceq	0, cr0, [r0], {9}
    3224:	00000b5b 	andeq	r0, r0, fp, asr fp
    3228:	000006fd 	strdeq	r0, [r0], -sp
    322c:	00009394 	muleq	r0, r4, r3
    3230:	00000120 	andeq	r0, r0, r0, lsr #2
    3234:	00000e09 	andeq	r0, r0, r9, lsl #28
    3238:	69050402 	stmdbvs	r5, {r1, sl}
    323c:	0300746e 	movweq	r7, #1134	; 0x46e
    3240:	013f0704 	teqeq	pc, r4, lsl #14
    3244:	2c040000 	stccs	0, cr0, [r4], {-0}
    3248:	03000000 	movweq	r0, #0
    324c:	00860601 	addeq	r0, r6, r1, lsl #12
    3250:	02030000 	andeq	r0, r3, #0
    3254:	00016a05 	andeq	r6, r1, r5, lsl #20
    3258:	05040300 	streq	r0, [r4, #-768]	; 0x300
    325c:	0000015a 	andeq	r0, r0, sl, asr r1
    3260:	55050803 	strpl	r0, [r5, #-2051]	; 0x803
    3264:	03000001 	movweq	r0, #1
    3268:	00840801 	addeq	r0, r4, r1, lsl #16
    326c:	02030000 	andeq	r0, r3, #0
    3270:	0000fa07 	andeq	pc, r0, r7, lsl #20
    3274:	07040300 	streq	r0, [r4, -r0, lsl #6]
    3278:	0000013a 	andeq	r0, r0, sl, lsr r1
    327c:	35070803 	strcc	r0, [r7, #-2051]	; 0x803
    3280:	05000001 	streq	r0, [r0, #-1]
    3284:	000008a0 	andeq	r0, r0, r0, lsr #17
    3288:	00250702 	eoreq	r0, r5, r2, lsl #14
    328c:	8a050000 	bhi	143294 <__bss_end__+0x13913c>
    3290:	03000008 	movweq	r0, #8
    3294:	0000462c 	andeq	r4, r0, ip, lsr #12
    3298:	09660500 	stmdbeq	r6!, {r8, sl}^
    329c:	72030000 	andvc	r0, r3, #0
    32a0:	00000046 	andeq	r0, r0, r6, asr #32
    32a4:	00082e06 	andeq	r2, r8, r6, lsl #28
    32a8:	01650400 	cmneq	r5, r0, lsl #8
    32ac:	0000002c 	andeq	r0, r0, ip, lsr #32
    32b0:	a6030407 	strge	r0, [r3], -r7, lsl #8
    32b4:	000000bc 	strheq	r0, [r0], -ip
    32b8:	00081908 	andeq	r1, r8, r8, lsl #18
    32bc:	91a80300 			; <UNDEFINED> instruction: 0x91a80300
    32c0:	08000000 	stmdaeq	r0, {}	; <UNPREDICTABLE>
    32c4:	000007b5 			; <UNDEFINED> instruction: 0x000007b5
    32c8:	00bca903 	adcseq	sl, ip, r3, lsl #18
    32cc:	09000000 	stmdbeq	r0, {}	; <UNPREDICTABLE>
    32d0:	00000054 	andeq	r0, r0, r4, asr r0
    32d4:	000000cc 	andeq	r0, r0, ip, asr #1
    32d8:	0000cc0a 	andeq	ip, r0, sl, lsl #24
    32dc:	03000300 	movweq	r0, #768	; 0x300
    32e0:	014c0704 	cmpeq	ip, r4, lsl #14
    32e4:	080b0000 	stmdaeq	fp, {}	; <UNPREDICTABLE>
    32e8:	00f4a303 	rscseq	sl, r4, r3, lsl #6
    32ec:	4b0c0000 	blmi	3032f4 <__bss_end__+0x2f919c>
    32f0:	03000009 	movweq	r0, #9
    32f4:	000025a5 	andeq	r2, r0, r5, lsr #11
    32f8:	530c0000 	movwpl	r0, #49152	; 0xc000
    32fc:	03000009 	movweq	r0, #9
    3300:	00009daa 	andeq	r9, r0, sl, lsr #27
    3304:	05000400 	streq	r0, [r0, #-1024]	; 0x400
    3308:	000008de 	ldrdeq	r0, [r0], -lr
    330c:	00d3ab03 	sbcseq	sl, r3, r3, lsl #22
    3310:	7e050000 	cdpvc	0, 0, cr0, cr5, cr0, {0}
    3314:	03000007 	movweq	r0, #7
    3318:	000070af 	andeq	r7, r0, pc, lsr #1
    331c:	0e040d00 	cdpeq	13, 0, cr0, cr4, cr0, {0}
    3320:	00011204 	andeq	r1, r1, r4, lsl #4
    3324:	08010300 	stmdaeq	r1, {r8, r9}
    3328:	0000008d 	andeq	r0, r0, sp, lsl #1
    332c:	00011204 	andeq	r1, r1, r4, lsl #4
    3330:	0a080500 	beq	204738 <__bss_end__+0x1fa5e0>
    3334:	16050000 	strne	r0, [r5], -r0
    3338:	00000062 	andeq	r0, r0, r2, rrx
    333c:	00078f0f 	andeq	r8, r7, pc, lsl #30
    3340:	2d051800 	stccs	8, cr1, [r5, #-0]
    3344:	0000017c 	andeq	r0, r0, ip, ror r1
    3348:	0008ff0c 	andeq	pc, r8, ip, lsl #30
    334c:	7c2f0500 	cfstr32vc	mvfx0, [pc], #-0	; 3354 <_start-0x4cac>
    3350:	00000001 	andeq	r0, r0, r1
    3354:	006b5f10 	rsbeq	r5, fp, r0, lsl pc
    3358:	00253005 	eoreq	r3, r5, r5
    335c:	0c040000 	stceq	0, cr0, [r4], {-0}
    3360:	00000936 	andeq	r0, r0, r6, lsr r9
    3364:	00253005 	eoreq	r3, r5, r5
    3368:	0c080000 	stceq	0, cr0, [r8], {-0}
    336c:	0000076a 	andeq	r0, r0, sl, ror #14
    3370:	00253005 	eoreq	r3, r5, r5
    3374:	0c0c0000 	stceq	0, cr0, [ip], {-0}
    3378:	00000a4f 	andeq	r0, r0, pc, asr #20
    337c:	00253005 	eoreq	r3, r5, r5
    3380:	10100000 	andsne	r0, r0, r0
    3384:	0500785f 	streq	r7, [r0, #-2143]	; 0x85f
    3388:	00018231 	andeq	r8, r1, r1, lsr r2
    338c:	0e001400 	cfcpyseq	mvf1, mvf0
    3390:	00012904 	andeq	r2, r1, r4, lsl #18
    3394:	011e0900 	tsteq	lr, r0, lsl #18
    3398:	01920000 	orrseq	r0, r2, r0
    339c:	cc0a0000 	stcgt	0, cr0, [sl], {-0}
    33a0:	00000000 	andeq	r0, r0, r0
    33a4:	07b00f00 	ldreq	r0, [r0, r0, lsl #30]!
    33a8:	05240000 	streq	r0, [r4, #-0]!
    33ac:	00020b35 	andeq	r0, r2, r5, lsr fp
    33b0:	06680c00 	strbteq	r0, [r8], -r0, lsl #24
    33b4:	37050000 	strcc	r0, [r5, -r0]
    33b8:	00000025 	andeq	r0, r0, r5, lsr #32
    33bc:	096e0c00 	stmdbeq	lr!, {sl, fp}^
    33c0:	38050000 	stmdacc	r5, {}	; <UNPREDICTABLE>
    33c4:	00000025 	andeq	r0, r0, r5, lsr #32
    33c8:	06960c04 	ldreq	r0, [r6], r4, lsl #24
    33cc:	39050000 	stmdbcc	r5, {}	; <UNPREDICTABLE>
    33d0:	00000025 	andeq	r0, r0, r5, lsr #32
    33d4:	0b3f0c08 	bleq	fc63fc <__bss_end__+0xfbc2a4>
    33d8:	3a050000 	bcc	1433e0 <__bss_end__+0x139288>
    33dc:	00000025 	andeq	r0, r0, r5, lsr #32
    33e0:	086e0c0c 	stmdaeq	lr!, {r2, r3, sl, fp}^
    33e4:	3b050000 	blcc	1433ec <__bss_end__+0x139294>
    33e8:	00000025 	andeq	r0, r0, r5, lsr #32
    33ec:	08430c10 	stmdaeq	r3, {r4, sl, fp}^
    33f0:	3c050000 	stccc	0, cr0, [r5], {-0}
    33f4:	00000025 	andeq	r0, r0, r5, lsr #32
    33f8:	0a540c14 	beq	1506450 <__bss_end__+0x14fc2f8>
    33fc:	3d050000 	stccc	0, cr0, [r5, #-0]
    3400:	00000025 	andeq	r0, r0, r5, lsr #32
    3404:	08c00c18 	stmiaeq	r0, {r3, r4, sl, fp}^
    3408:	3e050000 	cdpcc	0, 0, cr0, cr5, cr0, {0}
    340c:	00000025 	andeq	r0, r0, r5, lsr #32
    3410:	0b060c1c 	bleq	186488 <__bss_end__+0x17c330>
    3414:	3f050000 	svccc	0x00050000
    3418:	00000025 	andeq	r0, r0, r5, lsr #32
    341c:	a5110020 	ldrge	r0, [r1, #-32]
    3420:	08000006 	stmdaeq	r0, {r1, r2}
    3424:	4b480501 	blmi	1204830 <__bss_end__+0x11fa6d8>
    3428:	0c000002 	stceq	0, cr0, [r0], {2}
    342c:	00000751 	andeq	r0, r0, r1, asr r7
    3430:	024b4905 	subeq	r4, fp, #81920	; 0x14000
    3434:	0c000000 	stceq	0, cr0, [r0], {-0}
    3438:	000005e9 	andeq	r0, r0, r9, ror #11
    343c:	024b4a05 	subeq	r4, fp, #20480	; 0x5000
    3440:	12800000 	addne	r0, r0, #0
    3444:	000009fa 	strdeq	r0, [r0], -sl
    3448:	011e4c05 	tsteq	lr, r5, lsl #24
    344c:	01000000 	mrseq	r0, (UNDEF: 0)
    3450:	0006ca12 	andeq	ip, r6, r2, lsl sl
    3454:	1e4f0500 	cdpne	5, 4, cr0, cr15, cr0, {0}
    3458:	04000001 	streq	r0, [r0], #-1
    345c:	0a090001 	beq	243468 <__bss_end__+0x239310>
    3460:	5b000001 	blpl	346c <_start-0x4b94>
    3464:	0a000002 	beq	3474 <_start-0x4b8c>
    3468:	000000cc 	andeq	r0, r0, ip, asr #1
    346c:	7711001f 			; <UNDEFINED> instruction: 0x7711001f
    3470:	90000008 	andls	r0, r0, r8
    3474:	995b0501 	ldmdbls	fp, {r0, r8, sl}^
    3478:	0c000002 	stceq	0, cr0, [r0], {2}
    347c:	000008ff 	strdeq	r0, [r0], -pc	; <UNPREDICTABLE>
    3480:	02995c05 	addseq	r5, r9, #1280	; 0x500
    3484:	0c000000 	stceq	0, cr0, [r0], {-0}
    3488:	00000917 	andeq	r0, r0, r7, lsl r9
    348c:	00255d05 	eoreq	r5, r5, r5, lsl #26
    3490:	0c040000 	stceq	0, cr0, [r4], {-0}
    3494:	00000765 	andeq	r0, r0, r5, ror #14
    3498:	029f5f05 	addseq	r5, pc, #5, 30
    349c:	0c080000 	stceq	0, cr0, [r8], {-0}
    34a0:	000006a5 	andeq	r0, r0, r5, lsr #13
    34a4:	020b6005 	andeq	r6, fp, #5
    34a8:	00880000 	addeq	r0, r8, r0
    34ac:	025b040e 	subseq	r0, fp, #234881024	; 0xe000000
    34b0:	af090000 	svcge	0x00090000
    34b4:	af000002 	svcge	0x00000002
    34b8:	0a000002 	beq	34c8 <_start-0x4b38>
    34bc:	000000cc 	andeq	r0, r0, ip, asr #1
    34c0:	040e001f 	streq	r0, [lr], #-31
    34c4:	000002b5 			; <UNDEFINED> instruction: 0x000002b5
    34c8:	08ca0f13 	stmiaeq	sl, {r0, r1, r4, r8, r9, sl, fp}^
    34cc:	05080000 	streq	r0, [r8, #-0]
    34d0:	0002db73 	andeq	sp, r2, r3, ror fp
    34d4:	068b0c00 	streq	r0, [fp], r0, lsl #24
    34d8:	74050000 	strvc	r0, [r5], #-0
    34dc:	000002db 	ldrdeq	r0, [r0], -fp
    34e0:	01cd0c00 	biceq	r0, sp, r0, lsl #24
    34e4:	75050000 	strvc	r0, [r5, #-0]
    34e8:	00000025 	andeq	r0, r0, r5, lsr #32
    34ec:	040e0004 	streq	r0, [lr], #-4
    34f0:	00000054 	andeq	r0, r0, r4, asr r0
    34f4:	0008e90f 	andeq	lr, r8, pc, lsl #18
    34f8:	b3056800 	movwlt	r6, #22528	; 0x5800
    34fc:	0000040b 	andeq	r0, r0, fp, lsl #8
    3500:	00705f10 	rsbseq	r5, r0, r0, lsl pc
    3504:	02dbb405 	sbcseq	fp, fp, #83886080	; 0x5000000
    3508:	10000000 	andne	r0, r0, r0
    350c:	0500725f 	streq	r7, [r0, #-607]	; 0x25f
    3510:	000025b5 			; <UNDEFINED> instruction: 0x000025b5
    3514:	5f100400 	svcpl	0x00100400
    3518:	b6050077 			; <UNDEFINED> instruction: 0xb6050077
    351c:	00000025 	andeq	r0, r0, r5, lsr #32
    3520:	06c30c08 	strbeq	r0, [r3], r8, lsl #24
    3524:	b7050000 	strlt	r0, [r5, -r0]
    3528:	0000003f 	andeq	r0, r0, pc, lsr r0
    352c:	07d60c0c 	ldrbeq	r0, [r6, ip, lsl #24]
    3530:	b8050000 	stmdalt	r5, {}	; <UNPREDICTABLE>
    3534:	0000003f 	andeq	r0, r0, pc, lsr r0
    3538:	625f100e 	subsvs	r1, pc, #14
    353c:	b9050066 	stmdblt	r5, {r1, r2, r5, r6}
    3540:	000002b6 			; <UNDEFINED> instruction: 0x000002b6
    3544:	06320c10 			; <UNDEFINED> instruction: 0x06320c10
    3548:	ba050000 	blt	143550 <__bss_end__+0x1393f8>
    354c:	00000025 	andeq	r0, r0, r5, lsr #32
    3550:	06b30c18 	ssateq	r0, #20, r8, lsl #24
    3554:	c1050000 	mrsgt	r0, (UNDEF: 5)
    3558:	0000010a 	andeq	r0, r0, sl, lsl #2
    355c:	0b660c1c 	bleq	19865d4 <__bss_end__+0x197c47c>
    3560:	c3050000 	movwgt	r0, #20480	; 0x5000
    3564:	00000566 	andeq	r0, r0, r6, ror #10
    3568:	0b800c20 	bleq	fe0065f0 <__bss_end__+0xfdffc498>
    356c:	c5050000 	strgt	r0, [r5, #-0]
    3570:	00000590 	muleq	r0, r0, r5
    3574:	095b0c24 	ldmdbeq	fp, {r2, r5, sl, fp}^
    3578:	c8050000 	stmdagt	r5, {}	; <UNPREDICTABLE>
    357c:	000005b4 			; <UNDEFINED> instruction: 0x000005b4
    3580:	0b200c28 	bleq	806628 <__bss_end__+0x7fc4d0>
    3584:	c9050000 	stmdbgt	r5, {}	; <UNPREDICTABLE>
    3588:	000005ce 	andeq	r0, r0, lr, asr #11
    358c:	755f102c 	ldrbvc	r1, [pc, #-44]	; 3568 <_start-0x4a98>
    3590:	cc050062 	stcgt	0, cr0, [r5], {98}	; 0x62
    3594:	000002b6 			; <UNDEFINED> instruction: 0x000002b6
    3598:	755f1030 	ldrbvc	r1, [pc, #-48]	; 3570 <_start-0x4a90>
    359c:	cd050070 	stcgt	0, cr0, [r5, #-448]	; 0xfffffe40
    35a0:	000002db 	ldrdeq	r0, [r0], -fp
    35a4:	755f1038 	ldrbvc	r1, [pc, #-56]	; 3574 <_start-0x4a8c>
    35a8:	ce050072 	mcrgt	0, 0, r0, cr5, cr2, {3}
    35ac:	00000025 	andeq	r0, r0, r5, lsr #32
    35b0:	06760c3c 			; <UNDEFINED> instruction: 0x06760c3c
    35b4:	d1050000 	mrsle	r0, (UNDEF: 5)
    35b8:	000005d4 	ldrdeq	r0, [r0], -r4
    35bc:	0acb0c40 	beq	ff2c66c4 <__bss_end__+0xff2bc56c>
    35c0:	d2050000 	andle	r0, r5, #0
    35c4:	000005e4 	andeq	r0, r0, r4, ror #11
    35c8:	6c5f1043 	mrrcvs	0, 4, r1, pc, cr3	; <UNPREDICTABLE>
    35cc:	d5050062 	strle	r0, [r5, #-98]	; 0x62
    35d0:	000002b6 			; <UNDEFINED> instruction: 0x000002b6
    35d4:	06d90c44 	ldrbeq	r0, [r9], r4, asr #24
    35d8:	d8050000 	stmdale	r5, {}	; <UNPREDICTABLE>
    35dc:	00000025 	andeq	r0, r0, r5, lsr #32
    35e0:	084d0c4c 	stmdaeq	sp, {r2, r3, r6, sl, fp}^
    35e4:	d9050000 	stmdble	r5, {}	; <UNPREDICTABLE>
    35e8:	0000007b 	andeq	r0, r0, fp, ror r0
    35ec:	0ab60c50 	beq	fed86734 <__bss_end__+0xfed7c5dc>
    35f0:	dc050000 	stcle	0, cr0, [r5], {-0}
    35f4:	00000429 	andeq	r0, r0, r9, lsr #8
    35f8:	08350c54 	ldmdaeq	r5!, {r2, r4, r6, sl, fp}
    35fc:	e0050000 	and	r0, r5, r0
    3600:	000000ff 	strdeq	r0, [r0], -pc	; <UNPREDICTABLE>
    3604:	08f10c58 	ldmeq	r1!, {r3, r4, r6, sl, fp}^
    3608:	e2050000 	and	r0, r5, #0
    360c:	000000f4 	strdeq	r0, [r0], -r4
    3610:	083b0c5c 	ldmdaeq	fp!, {r2, r3, r4, r6, sl, fp}
    3614:	e3050000 	movw	r0, #20480	; 0x5000
    3618:	00000025 	andeq	r0, r0, r5, lsr #32
    361c:	25140064 	ldrcs	r0, [r4, #-100]	; 0x64
    3620:	29000000 	stmdbcs	r0, {}	; <UNPREDICTABLE>
    3624:	15000004 	strne	r0, [r0, #-4]
    3628:	00000429 	andeq	r0, r0, r9, lsr #8
    362c:	00010a15 	andeq	r0, r1, r5, lsl sl
    3630:	010c1500 	tsteq	ip, r0, lsl #10
    3634:	25150000 	ldrcs	r0, [r5, #-0]
    3638:	00000000 	andeq	r0, r0, r0
    363c:	0434040e 	ldrteq	r0, [r4], #-1038	; 0x40e
    3640:	29040000 	stmdbcs	r4, {}	; <UNPREDICTABLE>
    3644:	16000004 	strne	r0, [r0], -r4
    3648:	0000093e 	andeq	r0, r0, lr, lsr r9
    364c:	38050428 	stmdacc	r5, {r3, r5, sl}
    3650:	00056602 	andeq	r6, r5, r2, lsl #12
    3654:	08b91700 	ldmeq	r9!, {r8, r9, sl, ip}
    3658:	3a050000 	bcc	143660 <__bss_end__+0x139508>
    365c:	00002502 	andeq	r2, r0, r2, lsl #10
    3660:	d2170000 	andsle	r0, r7, #0
    3664:	05000006 	streq	r0, [r0, #-6]
    3668:	063b023f 			; <UNDEFINED> instruction: 0x063b023f
    366c:	17040000 	strne	r0, [r4, -r0]
    3670:	000007c6 	andeq	r0, r0, r6, asr #15
    3674:	3b023f05 	blcc	93290 <__bss_end__+0x89138>
    3678:	08000006 	stmdaeq	r0, {r1, r2}
    367c:	00078717 	andeq	r8, r7, r7, lsl r7
    3680:	023f0500 	eorseq	r0, pc, #0, 10
    3684:	0000063b 	andeq	r0, r0, fp, lsr r6
    3688:	0912170c 	ldmdbeq	r2, {r2, r3, r8, r9, sl, ip}
    368c:	41050000 	mrsmi	r0, (UNDEF: 5)
    3690:	00002502 	andeq	r2, r0, r2, lsl #10
    3694:	fd171000 	ldc2	0, cr1, [r7, #-0]
    3698:	05000005 	streq	r0, [r0, #-5]
    369c:	081d0242 	ldmdaeq	sp, {r1, r6, r9}
    36a0:	17140000 	ldrne	r0, [r4, -r0]
    36a4:	00000a30 	andeq	r0, r0, r0, lsr sl
    36a8:	25024405 	strcs	r4, [r2, #-1029]	; 0x405
    36ac:	30000000 	andcc	r0, r0, r0
    36b0:	00091c17 	andeq	r1, r9, r7, lsl ip
    36b4:	02450500 	subeq	r0, r5, #0, 10
    36b8:	0000058a 	andeq	r0, r0, sl, lsl #11
    36bc:	087f1734 	ldmdaeq	pc!, {r2, r4, r5, r8, r9, sl, ip}^	; <UNPREDICTABLE>
    36c0:	47050000 	strmi	r0, [r5, -r0]
    36c4:	00002502 	andeq	r2, r0, r2, lsl #10
    36c8:	2c173800 	ldccs	8, cr3, [r7], {-0}
    36cc:	05000009 	streq	r0, [r0, #-9]
    36d0:	08380249 	ldmdaeq	r8!, {r0, r3, r6, r9}
    36d4:	173c0000 	ldrne	r0, [ip, -r0]!
    36d8:	00000811 	andeq	r0, r0, r1, lsl r8
    36dc:	7c024c05 	stcvc	12, cr4, [r2], {5}
    36e0:	40000001 	andmi	r0, r0, r1
    36e4:	0007a617 	andeq	sl, r7, r7, lsl r6
    36e8:	024d0500 	subeq	r0, sp, #0, 10
    36ec:	00000025 	andeq	r0, r0, r5, lsr #32
    36f0:	0b3a1744 	bleq	e89408 <__bss_end__+0xe7f2b0>
    36f4:	4e050000 	cdpmi	0, 0, cr0, cr5, cr0, {0}
    36f8:	00017c02 	andeq	r7, r1, r2, lsl #24
    36fc:	96174800 	ldrls	r4, [r7], -r0, lsl #16
    3700:	05000008 	streq	r0, [r0, #-8]
    3704:	083e024f 	ldmdaeq	lr!, {r0, r1, r2, r3, r6, r9}
    3708:	174c0000 	strbne	r0, [ip, -r0]
    370c:	000007ce 	andeq	r0, r0, lr, asr #15
    3710:	25025205 	strcs	r5, [r2, #-517]	; 0x205
    3714:	50000000 	andpl	r0, r0, r0
    3718:	0006f517 	andeq	pc, r6, r7, lsl r5	; <UNPREDICTABLE>
    371c:	02530500 	subseq	r0, r3, #0, 10
    3720:	0000010c 	andeq	r0, r0, ip, lsl #2
    3724:	08b21754 	ldmeq	r2!, {r2, r4, r6, r8, r9, sl, ip}
    3728:	76050000 	strvc	r0, [r5], -r0
    372c:	0007fb02 	andeq	pc, r7, r2, lsl #22
    3730:	77185800 	ldrvc	r5, [r8, -r0, lsl #16]
    3734:	05000008 	streq	r0, [r0, #-8]
    3738:	0299027a 	addseq	r0, r9, #-1610612729	; 0xa0000007
    373c:	01480000 	mrseq	r0, (UNDEF: 72)
    3740:	0007e318 	andeq	lr, r7, r8, lsl r3
    3744:	027b0500 	rsbseq	r0, fp, #0, 10
    3748:	0000025b 	andeq	r0, r0, fp, asr r2
    374c:	9c18014c 	ldflss	f0, [r8], {76}	; 0x4c
    3750:	0500000a 	streq	r0, [r0, #-10]
    3754:	084f027f 	stmdaeq	pc, {r0, r1, r2, r3, r4, r5, r6, r9}^	; <UNPREDICTABLE>
    3758:	02dc0000 	sbcseq	r0, ip, #0
    375c:	0006bb18 	andeq	fp, r6, r8, lsl fp
    3760:	02840500 	addeq	r0, r4, #0, 10
    3764:	00000600 	andeq	r0, r0, r0, lsl #12
    3768:	a01802e0 	andsge	r0, r8, r0, ror #5
    376c:	05000006 	streq	r0, [r0, #-6]
    3770:	085b0285 	ldmdaeq	fp, {r0, r2, r7, r9}^
    3774:	02ec0000 	rsceq	r0, ip, #0
    3778:	0b040e00 	bleq	106f80 <__bss_end__+0xfce28>
    377c:	14000004 	strne	r0, [r0], #-4
    3780:	00000025 	andeq	r0, r0, r5, lsr #32
    3784:	0000058a 	andeq	r0, r0, sl, lsl #11
    3788:	00042915 	andeq	r2, r4, r5, lsl r9
    378c:	010a1500 	tsteq	sl, r0, lsl #10
    3790:	8a150000 	bhi	543798 <__bss_end__+0x539640>
    3794:	15000005 	strne	r0, [r0, #-5]
    3798:	00000025 	andeq	r0, r0, r5, lsr #32
    379c:	19040e00 	stmdbne	r4, {r9, sl, fp}
    37a0:	0e000001 	cdpeq	0, 0, cr0, cr0, cr1, {0}
    37a4:	00056c04 	andeq	r6, r5, r4, lsl #24
    37a8:	00861400 	addeq	r1, r6, r0, lsl #8
    37ac:	05b40000 	ldreq	r0, [r4, #0]!
    37b0:	29150000 	ldmdbcs	r5, {}	; <UNPREDICTABLE>
    37b4:	15000004 	strne	r0, [r0, #-4]
    37b8:	0000010a 	andeq	r0, r0, sl, lsl #2
    37bc:	00008615 	andeq	r8, r0, r5, lsl r6
    37c0:	00251500 	eoreq	r1, r5, r0, lsl #10
    37c4:	0e000000 	cdpeq	0, 0, cr0, cr0, cr0, {0}
    37c8:	00059604 	andeq	r9, r5, r4, lsl #12
    37cc:	00251400 	eoreq	r1, r5, r0, lsl #8
    37d0:	05ce0000 	strbeq	r0, [lr]
    37d4:	29150000 	ldmdbcs	r5, {}	; <UNPREDICTABLE>
    37d8:	15000004 	strne	r0, [r0, #-4]
    37dc:	0000010a 	andeq	r0, r0, sl, lsl #2
    37e0:	ba040e00 	blt	106fe8 <__bss_end__+0xfce90>
    37e4:	09000005 	stmdbeq	r0, {r0, r2}
    37e8:	00000054 	andeq	r0, r0, r4, asr r0
    37ec:	000005e4 	andeq	r0, r0, r4, ror #11
    37f0:	0000cc0a 	andeq	ip, r0, sl, lsl #24
    37f4:	09000200 	stmdbeq	r0, {r9}
    37f8:	00000054 	andeq	r0, r0, r4, asr r0
    37fc:	000005f4 	strdeq	r0, [r0], -r4
    3800:	0000cc0a 	andeq	ip, r0, sl, lsl #24
    3804:	06000000 	streq	r0, [r0], -r0
    3808:	000008d7 	ldrdeq	r0, [r0], -r7
    380c:	e1011d05 	tst	r1, r5, lsl #26
    3810:	19000002 	stmdbne	r0, {r1}
    3814:	00000a5e 	andeq	r0, r0, lr, asr sl
    3818:	0121050c 	teqeq	r1, ip, lsl #10
    381c:	00000635 	andeq	r0, r0, r5, lsr r6
    3820:	0008ff17 	andeq	pc, r8, r7, lsl pc	; <UNPREDICTABLE>
    3824:	01230500 	teqeq	r3, r0, lsl #10
    3828:	00000635 	andeq	r0, r0, r5, lsr r6
    382c:	07dc1700 	ldrbeq	r1, [ip, r0, lsl #14]
    3830:	24050000 	strcs	r0, [r5], #-0
    3834:	00002501 	andeq	r2, r0, r1, lsl #10
    3838:	d1170400 	tstle	r7, r0, lsl #8
    383c:	05000008 	streq	r0, [r0, #-8]
    3840:	063b0125 	ldrteq	r0, [fp], -r5, lsr #2
    3844:	00080000 	andeq	r0, r8, r0
    3848:	0600040e 	streq	r0, [r0], -lr, lsl #8
    384c:	040e0000 	streq	r0, [lr], #-0
    3850:	000005f4 	strdeq	r0, [r0], -r4
    3854:	0005f519 	andeq	pc, r5, r9, lsl r5	; <UNPREDICTABLE>
    3858:	3d050e00 	stccc	14, cr0, [r5, #-0]
    385c:	00067601 	andeq	r7, r6, r1, lsl #12
    3860:	09451700 	stmdbeq	r5, {r8, r9, sl, ip}^
    3864:	3e050000 	cdpcc	0, 0, cr0, cr5, cr0, {0}
    3868:	00067601 	andeq	r7, r6, r1, lsl #12
    386c:	7f170000 	svcvc	0x00170000
    3870:	05000009 	streq	r0, [r0, #-9]
    3874:	0676013f 			; <UNDEFINED> instruction: 0x0676013f
    3878:	17060000 	strne	r0, [r6, -r0]
    387c:	00000a03 	andeq	r0, r0, r3, lsl #20
    3880:	5b014005 	blpl	5389c <__bss_end__+0x49744>
    3884:	0c000000 	stceq	0, cr0, [r0], {-0}
    3888:	005b0900 	subseq	r0, fp, r0, lsl #18
    388c:	06860000 	streq	r0, [r6], r0
    3890:	cc0a0000 	stcgt	0, cr0, [sl], {-0}
    3894:	02000000 	andeq	r0, r0, #0
    3898:	05d01a00 	ldrbeq	r1, [r0, #2560]	; 0xa00
    389c:	07870257 			; <UNDEFINED> instruction: 0x07870257
    38a0:	42170000 	andsmi	r0, r7, #0
    38a4:	0500000a 	streq	r0, [r0, #-10]
    38a8:	002c0259 	eoreq	r0, ip, r9, asr r2
    38ac:	17000000 	strne	r0, [r0, -r0]
    38b0:	000009ed 	andeq	r0, r0, sp, ror #19
    38b4:	0c025a05 	stceq	10, cr5, [r2], {5}
    38b8:	04000001 	streq	r0, [r0], #-1
    38bc:	0007f817 	andeq	pc, r7, r7, lsl r8	; <UNPREDICTABLE>
    38c0:	025b0500 	subseq	r0, fp, #0, 10
    38c4:	00000787 	andeq	r0, r0, r7, lsl #15
    38c8:	0b111708 	bleq	4494f0 <__bss_end__+0x43f398>
    38cc:	5c050000 	stcpl	0, cr0, [r5], {-0}
    38d0:	00019202 	andeq	r9, r1, r2, lsl #4
    38d4:	97172400 	ldrls	r2, [r7, -r0, lsl #8]
    38d8:	05000007 	streq	r0, [r0, #-7]
    38dc:	0025025d 	eoreq	r0, r5, sp, asr r2
    38e0:	17480000 	strbne	r0, [r8, -r0]
    38e4:	000008fa 	strdeq	r0, [r0], -sl
    38e8:	69025e05 	stmdbvs	r2, {r0, r2, r9, sl, fp, ip, lr}
    38ec:	50000000 	andpl	r0, r0, r0
    38f0:	000b2717 	andeq	r2, fp, r7, lsl r7
    38f4:	025f0500 	subseq	r0, pc, #0, 10
    38f8:	00000641 	andeq	r0, r0, r1, asr #12
    38fc:	09051758 	stmdbeq	r5, {r3, r4, r6, r8, r9, sl, ip}
    3900:	60050000 	andvs	r0, r5, r0
    3904:	0000f402 	andeq	pc, r0, r2, lsl #8
    3908:	2c176800 	ldccs	8, cr6, [r7], {-0}
    390c:	0500000b 	streq	r0, [r0, #-11]
    3910:	00f40261 	rscseq	r0, r4, r1, ror #4
    3914:	17700000 	ldrbne	r0, [r0, -r0]!
    3918:	0000065a 	andeq	r0, r0, sl, asr r6
    391c:	f4026205 	vst1.8	{d6-d9}, [r2], r5
    3920:	78000000 	stmdavc	r0, {}	; <UNPREDICTABLE>
    3924:	000a7e17 	andeq	r7, sl, r7, lsl lr
    3928:	02630500 	rsbeq	r0, r3, #0, 10
    392c:	00000797 	muleq	r0, r7, r7
    3930:	07ec1780 	strbeq	r1, [ip, r0, lsl #15]!
    3934:	64050000 	strvs	r0, [r5], #-0
    3938:	0007a702 	andeq	sl, r7, r2, lsl #14
    393c:	10178800 	andsne	r8, r7, r0, lsl #16
    3940:	0500000a 	streq	r0, [r0, #-10]
    3944:	00250265 	eoreq	r0, r5, r5, ror #4
    3948:	17a00000 	strne	r0, [r0, r0]!
    394c:	00000743 	andeq	r0, r0, r3, asr #14
    3950:	f4026605 	vst1.8	{d6-d8}, [r2], r5
    3954:	a4000000 	strge	r0, [r0], #-0
    3958:	00064b17 	andeq	r4, r6, r7, lsl fp
    395c:	02670500 	rsbeq	r0, r7, #0, 10
    3960:	000000f4 	strdeq	r0, [r0], -r4
    3964:	073217ac 	ldreq	r1, [r2, -ip, lsr #15]!
    3968:	68050000 	stmdavs	r5, {}	; <UNPREDICTABLE>
    396c:	0000f402 	andeq	pc, r0, r2, lsl #8
    3970:	1217b400 	andsne	fp, r7, #0, 8
    3974:	05000006 	streq	r0, [r0, #-6]
    3978:	00f40269 	rscseq	r0, r4, r9, ror #4
    397c:	17bc0000 	ldrne	r0, [ip, r0]!
    3980:	00000621 	andeq	r0, r0, r1, lsr #12
    3984:	f4026a05 	vst1.8	{d6-d7}, [r2], r5
    3988:	c4000000 	strgt	r0, [r0], #-0
    398c:	0008b717 	andeq	fp, r8, r7, lsl r7
    3990:	026b0500 	rsbeq	r0, fp, #0, 10
    3994:	00000025 	andeq	r0, r0, r5, lsr #32
    3998:	120900cc 	andne	r0, r9, #204	; 0xcc
    399c:	97000001 	strls	r0, [r0, -r1]
    39a0:	0a000007 	beq	39c4 <_start-0x463c>
    39a4:	000000cc 	andeq	r0, r0, ip, asr #1
    39a8:	12090019 	andne	r0, r9, #25
    39ac:	a7000001 	strge	r0, [r0, -r1]
    39b0:	0a000007 	beq	39d4 <_start-0x462c>
    39b4:	000000cc 	andeq	r0, r0, ip, asr #1
    39b8:	12090007 	andne	r0, r9, #7
    39bc:	b7000001 	strlt	r0, [r0, -r1]
    39c0:	0a000007 	beq	39e4 <_start-0x461c>
    39c4:	000000cc 	andeq	r0, r0, ip, asr #1
    39c8:	f01a0017 			; <UNDEFINED> instruction: 0xf01a0017
    39cc:	db027005 	blle	9f9e8 <__bss_end__+0x95890>
    39d0:	17000007 	strne	r0, [r0, -r7]
    39d4:	00000867 	andeq	r0, r0, r7, ror #16
    39d8:	db027305 	blle	a05f4 <__bss_end__+0x9649c>
    39dc:	00000007 	andeq	r0, r0, r7
    39e0:	000a7517 	andeq	r7, sl, r7, lsl r5
    39e4:	02740500 	rsbseq	r0, r4, #0, 10
    39e8:	000007eb 	andeq	r0, r0, fp, ror #15
    39ec:	db090078 	blle	243bd4 <__bss_end__+0x239a7c>
    39f0:	eb000002 	bl	3a00 <_start-0x4600>
    39f4:	0a000007 	beq	3a18 <_start-0x45e8>
    39f8:	000000cc 	andeq	r0, r0, ip, asr #1
    39fc:	2c09001d 	stccs	0, cr0, [r9], {29}
    3a00:	fb000000 	blx	3a0a <_start-0x45f6>
    3a04:	0a000007 	beq	3a28 <_start-0x45d8>
    3a08:	000000cc 	andeq	r0, r0, ip, asr #1
    3a0c:	f01b001d 			; <UNDEFINED> instruction: 0xf01b001d
    3a10:	1d025505 	cfstr32ne	mvfx5, [r2, #-20]	; 0xffffffec
    3a14:	1c000008 	stcne	0, cr0, [r0], {8}
    3a18:	0000093e 	andeq	r0, r0, lr, lsr r9
    3a1c:	86026c05 	strhi	r6, [r2], -r5, lsl #24
    3a20:	1c000006 	stcne	0, cr0, [r0], {6}
    3a24:	00000ad1 	ldrdeq	r0, [r0], -r1
    3a28:	b7027505 	strlt	r7, [r2, -r5, lsl #10]
    3a2c:	00000007 	andeq	r0, r0, r7
    3a30:	00011209 	andeq	r1, r1, r9, lsl #4
    3a34:	00082d00 	andeq	r2, r8, r0, lsl #26
    3a38:	00cc0a00 	sbceq	r0, ip, r0, lsl #20
    3a3c:	00180000 	andseq	r0, r8, r0
    3a40:	0008381d 	andeq	r3, r8, sp, lsl r8
    3a44:	04291500 	strteq	r1, [r9], #-1280	; 0x500
    3a48:	0e000000 	cdpeq	0, 0, cr0, cr0, cr0, {0}
    3a4c:	00082d04 	andeq	r2, r8, r4, lsl #26
    3a50:	7c040e00 	stcvc	14, cr0, [r4], {-0}
    3a54:	1d000001 	stcne	0, cr0, [r0, #-4]
    3a58:	0000084f 	andeq	r0, r0, pc, asr #16
    3a5c:	00002515 	andeq	r2, r0, r5, lsl r5
    3a60:	040e0000 	streq	r0, [lr], #-0
    3a64:	00000855 	andeq	r0, r0, r5, asr r8
    3a68:	0844040e 	stmdaeq	r4, {r1, r2, r3, sl}^
    3a6c:	f4090000 	vst4.8	{d0-d3}, [r9], r0
    3a70:	6b000005 	blvs	3a8c <_start-0x4574>
    3a74:	0a000008 	beq	3a9c <_start-0x4564>
    3a78:	000000cc 	andeq	r0, r0, ip, asr #1
    3a7c:	241e0002 	ldrcs	r0, [lr], #-2
    3a80:	0500000a 	streq	r0, [r0, #-10]
    3a84:	042902fd 	strteq	r0, [r9], #-765	; 0x2fd
    3a88:	1d1e0000 	ldcne	0, cr0, [lr, #-0]
    3a8c:	0500000a 	streq	r0, [r0, #-10]
    3a90:	042f02fe 	strteq	r0, [pc], #-766	; 3a98 <_start-0x4568>
    3a94:	25140000 	ldrcs	r0, [r4, #-0]
    3a98:	92000000 	andls	r0, r0, #0
    3a9c:	15000008 	strne	r0, [r0, #-8]
    3aa0:	00000025 	andeq	r0, r0, r5, lsr #32
    3aa4:	03e91f00 	mvneq	r1, #0, 30
    3aa8:	1d060000 	stcne	0, cr0, [r6, #-0]
    3aac:	0000089d 	muleq	r0, sp, r8
    3ab0:	0883040e 	stmeq	r3, {r1, r2, r3, sl}
    3ab4:	25140000 	ldrcs	r0, [r4, #-0]
    3ab8:	b2000000 	andlt	r0, r0, #0
    3abc:	15000008 	strne	r0, [r0, #-8]
    3ac0:	0000058a 	andeq	r0, r0, sl, lsl #11
    3ac4:	04261f00 	strteq	r1, [r6], #-3840	; 0xf00
    3ac8:	22060000 	andcs	r0, r6, #0
    3acc:	000008bd 			; <UNDEFINED> instruction: 0x000008bd
    3ad0:	08a3040e 	stmiaeq	r3!, {r1, r2, r3, sl}
    3ad4:	01200000 	teqeq	r0, r0
    3ad8:	00000054 	andeq	r0, r0, r4, asr r0
    3adc:	09000c07 	stmdbeq	r0, {r0, r1, r2, sl, fp}
    3ae0:	3b210000 	blcc	843ae8 <__bss_end__+0x839990>
    3ae4:	00000006 	andeq	r0, r0, r6
    3ae8:	000a6421 	andeq	r6, sl, r1, lsr #8
    3aec:	bc210100 	stflts	f0, [r1], #-0
    3af0:	0400000a 	streq	r0, [r0], #-10
    3af4:	00067c21 	andeq	r7, r6, r1, lsr #24
    3af8:	1f210500 	svcne	0x00210500
    3afc:	06000008 	streq	r0, [r0], -r8
    3b00:	000ad921 	andeq	sp, sl, r1, lsr #18
    3b04:	e8210700 	stmda	r1!, {r8, r9, sl}
    3b08:	0300000a 	movweq	r0, #10
    3b0c:	000af721 	andeq	pc, sl, r1, lsr #14
    3b10:	05000200 	streq	r0, [r0, #-512]	; 0x200
    3b14:	00000bb6 			; <UNDEFINED> instruction: 0x00000bb6
    3b18:	08c31507 	stmiaeq	r3, {r0, r1, r2, r8, sl, ip}^
    3b1c:	87220000 	strhi	r0, [r2, -r0]!
    3b20:	0100000b 	tsteq	r0, fp
    3b24:	0000331d 	andeq	r3, r0, sp, lsl r3
    3b28:	20001c00 	andcs	r1, r0, r0, lsl #24
    3b2c:	0bc22220 	bleq	ff08c3b4 <__bss_end__+0xff08225c>
    3b30:	1e010000 	cdpne	0, 0, cr0, cr1, cr0, {0}
    3b34:	00000033 	andeq	r0, r0, r3, lsr r0
    3b38:	20200028 	eorcs	r0, r0, r8, lsr #32
    3b3c:	000b9122 	andeq	r9, fp, r2, lsr #2
    3b40:	331f0100 	tstcc	pc, #0, 2
    3b44:	34000000 	strcc	r0, [r0], #-0
    3b48:	23202000 	teqcs	r0, #0
    3b4c:	00000b62 	andeq	r0, r0, r2, ror #22
    3b50:	00255601 	eoreq	r5, r5, r1, lsl #12
    3b54:	94800000 	strls	r0, [r0], #0
    3b58:	00340000 	eorseq	r0, r4, r0
    3b5c:	9c010000 	stcls	0, cr0, [r1], {-0}
    3b60:	00000998 	muleq	r0, r8, r9
    3b64:	6e697024 	cdpvs	0, 6, cr7, cr9, cr4, {1}
    3b68:	2c560100 	ldfcse	f0, [r6], {-0}
    3b6c:	45000000 	strmi	r0, [r0, #-0]
    3b70:	25000011 	strcs	r0, [r0, #-17]
    3b74:	00000b56 	andeq	r0, r0, r6, asr fp
    3b78:	002c5901 	eoreq	r5, ip, r1, lsl #18
    3b7c:	117f0000 	cmnne	pc, r0
    3b80:	6f260000 	svcvs	0x00260000
    3b84:	01006666 	tsteq	r0, r6, ror #12
    3b88:	00002c5a 	andeq	r2, r0, sl, asr ip
    3b8c:	0011bd00 	andseq	fp, r1, r0, lsl #26
    3b90:	949c2700 	ldrls	r2, [ip], #1792	; 0x700
    3b94:	0b5d0000 	bleq	1743b9c <__bss_end__+0x1739a44>
    3b98:	01280000 	teqeq	r8, r0
    3b9c:	01f30b50 	mvnseq	r0, r0, asr fp
    3ba0:	23253550 	teqcs	r5, #80, 10	; 0x14000000
    3ba4:	818080b4 	strhhi	r8, [r0, r4]
    3ba8:	29000002 	stmdbcs	r0, {r1}
    3bac:	00000b7c 	andeq	r0, r0, ip, ror fp
    3bb0:	94644f01 	strbtls	r4, [r4], #-3841	; 0xf01
    3bb4:	001c0000 	andseq	r0, ip, r0
    3bb8:	9c010000 	stcls	0, cr0, [r1], {-0}
    3bbc:	000009e8 	andeq	r0, r0, r8, ror #19
    3bc0:	6e697024 	cdpvs	0, 6, cr7, cr9, cr4, {1}
    3bc4:	2c4f0100 	stfcse	f0, [pc], {-0}
    3bc8:	d0000000 	andle	r0, r0, r0
    3bcc:	24000011 	strcs	r0, [r0], #-17
    3bd0:	4f010076 	svcmi	0x00010076
    3bd4:	0000002c 	andeq	r0, r0, ip, lsr #32
    3bd8:	0000120a 	andeq	r1, r0, sl, lsl #4
    3bdc:	0094742a 	addseq	r7, r4, sl, lsr #8
    3be0:	000a2300 	andeq	r2, sl, r0, lsl #6
    3be4:	0009de00 	andeq	sp, r9, r0, lsl #28
    3be8:	50012800 	andpl	r2, r1, r0, lsl #16
    3bec:	5001f303 	andpl	pc, r1, r3, lsl #6
    3bf0:	947c2b00 	ldrbtls	r2, [ip], #-2816	; 0xb00
    3bf4:	0a640000 	beq	1903bfc <__bss_end__+0x18f9aa4>
    3bf8:	29000000 	stmdbcs	r0, {}	; <UNPREDICTABLE>
    3bfc:	00000b9b 	muleq	r0, fp, fp
    3c00:	94544a01 	ldrbls	r4, [r4], #-2561	; 0xa01
    3c04:	00100000 	andseq	r0, r0, r0
    3c08:	9c010000 	stcls	0, cr0, [r1], {-0}
    3c0c:	00000a23 	andeq	r0, r0, r3, lsr #20
    3c10:	6e697024 	cdpvs	0, 6, cr7, cr9, cr4, {1}
    3c14:	2c4a0100 	stfcse	f0, [sl], {-0}
    3c18:	44000000 	strmi	r0, [r0], #-0
    3c1c:	27000012 	smladcs	r0, r2, r0, r0
    3c20:	00009460 	andeq	r9, r0, r0, ror #8
    3c24:	00000ae0 	andeq	r0, r0, r0, ror #21
    3c28:	03500128 	cmpeq	r0, #40, 2
    3c2c:	285001f3 	ldmdacs	r0, {r0, r1, r4, r5, r6, r7, r8}^
    3c30:	30015101 	andcc	r5, r1, r1, lsl #2
    3c34:	49290000 	stmdbmi	r9!, {}	; <UNPREDICTABLE>
    3c38:	0100000b 	tsteq	r0, fp
    3c3c:	00943043 	addseq	r3, r4, r3, asr #32
    3c40:	00002400 	andeq	r2, r0, r0, lsl #8
    3c44:	649c0100 	ldrvs	r0, [ip], #256	; 0x100
    3c48:	2400000a 	strcs	r0, [r0], #-10
    3c4c:	006e6970 	rsbeq	r6, lr, r0, ror r9
    3c50:	002c4301 	eoreq	r4, ip, r1, lsl #6
    3c54:	12650000 	rsbne	r0, r5, #0
    3c58:	4c270000 	stcmi	0, cr0, [r7], #-0
    3c5c:	68000094 	stmdavs	r0, {r2, r4, r7}
    3c60:	2800000b 	stmdacs	r0, {r0, r1, r3}
    3c64:	0c055001 	stceq	0, cr5, [r5], {1}
    3c68:	20200028 	eorcs	r0, r0, r8, lsr #32
    3c6c:	05510128 	ldrbeq	r0, [r1, #-296]	; 0x128
    3c70:	5001f331 	andpl	pc, r1, r1, lsr r3	; <UNPREDICTABLE>
    3c74:	29000024 	stmdbcs	r0, {r2, r5}
    3c78:	00000baa 	andeq	r0, r0, sl, lsr #23
    3c7c:	940c3c01 	strls	r3, [ip], #-3073	; 0xc01
    3c80:	00240000 	eoreq	r0, r4, r0
    3c84:	9c010000 	stcls	0, cr0, [r1], {-0}
    3c88:	00000aa5 	andeq	r0, r0, r5, lsr #21
    3c8c:	6e697024 	cdpvs	0, 6, cr7, cr9, cr4, {1}
    3c90:	2c3c0100 	ldfcss	f0, [ip], #-0
    3c94:	86000000 	strhi	r0, [r0], -r0
    3c98:	27000012 	smladcs	r0, r2, r0, r0
    3c9c:	00009428 	andeq	r9, r0, r8, lsr #8
    3ca0:	00000b68 	andeq	r0, r0, r8, ror #22
    3ca4:	05500128 	ldrbeq	r0, [r0, #-296]	; 0x128
    3ca8:	20001c0c 	andcs	r1, r0, ip, lsl #24
    3cac:	51012820 	tstpl	r1, r0, lsr #16
    3cb0:	01f33105 	mvnseq	r3, r5, lsl #2
    3cb4:	00002450 	andeq	r2, r0, r0, asr r4
    3cb8:	000b6c29 	andeq	r6, fp, r9, lsr #24
    3cbc:	fc370100 	ldc2	1, cr0, [r7], #-0
    3cc0:	10000093 	mulne	r0, r3, r0
    3cc4:	01000000 	mrseq	r0, (UNDEF: 0)
    3cc8:	000ae09c 	muleq	sl, ip, r0
    3ccc:	69702400 	ldmdbvs	r0!, {sl, sp}^
    3cd0:	3701006e 	strcc	r0, [r1, -lr, rrx]
    3cd4:	0000002c 	andeq	r0, r0, ip, lsr #32
    3cd8:	000012a7 	andeq	r1, r0, r7, lsr #5
    3cdc:	00940827 	addseq	r0, r4, r7, lsr #16
    3ce0:	000ae000 	andeq	lr, sl, r0
    3ce4:	50012800 	andpl	r2, r1, r0, lsl #16
    3ce8:	5001f303 	andpl	pc, r1, r3, lsl #6
    3cec:	01510128 	cmpeq	r1, r8, lsr #2
    3cf0:	29000031 	stmdbcs	r0, {r0, r4, r5}
    3cf4:	00000855 	andeq	r0, r0, r5, asr r8
    3cf8:	93942801 	orrsls	r2, r4, #65536	; 0x10000
    3cfc:	00680000 	rsbeq	r0, r8, r0
    3d00:	9c010000 	stcls	0, cr0, [r1], {-0}
    3d04:	00000b5d 	andeq	r0, r0, sp, asr fp
    3d08:	6e697024 	cdpvs	0, 6, cr7, cr9, cr4, {1}
    3d0c:	2c280100 	stfcss	f0, [r8], #-0
    3d10:	c8000000 	stmdagt	r0, {}	; <UNPREDICTABLE>
    3d14:	2c000012 	stccs	0, cr0, [r0], {18}
    3d18:	00000aa1 	andeq	r0, r0, r1, lsr #21
    3d1c:	09002801 	stmdbeq	r0, {r0, fp, sp}
    3d20:	12e90000 	rscne	r0, r9, #0
    3d24:	6f2d0000 	svcvs	0x002d0000
    3d28:	01006666 	tsteq	r0, r6, ror #12
    3d2c:	00002c2d 	andeq	r2, r0, sp, lsr #24
    3d30:	2d540100 	ldfcse	f0, [r4, #-0]
    3d34:	2f010067 	svccs	0x00010067
    3d38:	0000002c 	andeq	r0, r0, ip, lsr #32
    3d3c:	76265601 	strtvc	r5, [r6], -r1, lsl #12
    3d40:	2c310100 	ldfcss	f0, [r1], #-0
    3d44:	0a000000 	beq	3d4c <_start-0x42b4>
    3d48:	2a000013 	bcs	3d9c <_start-0x4264>
    3d4c:	000093e0 	andeq	r9, r0, r0, ror #7
    3d50:	00000b5d 	andeq	r0, r0, sp, asr fp
    3d54:	00000b4c 	andeq	r0, r0, ip, asr #22
    3d58:	02500128 	subseq	r0, r0, #40, 2
    3d5c:	27000076 	smlsdxcs	r0, r6, r0, r0
    3d60:	000093f4 	strdeq	r9, [r0], -r4
    3d64:	00000b68 	andeq	r0, r0, r8, ror #22
    3d68:	02500128 	subseq	r0, r0, #40, 2
    3d6c:	00000076 	andeq	r0, r0, r6, ror r0
    3d70:	0005b82e 	andeq	fp, r5, lr, lsr #16
    3d74:	0005b800 	andeq	fp, r5, r0, lsl #16
    3d78:	2ea70600 	cdpcs	6, 10, cr0, cr7, cr0, {0}
    3d7c:	0000056a 	andeq	r0, r0, sl, ror #10
    3d80:	0000056a 	andeq	r0, r0, sl, ror #10
    3d84:	24009b06 	strcs	r9, [r0], #-2822	; 0xb06
    3d88:	0400000c 	streq	r0, [r0], #-12
    3d8c:	00121500 	andseq	r1, r2, r0, lsl #10
    3d90:	8b010400 	blhi	44d98 <__bss_end__+0x3ac40>
    3d94:	0c000009 	stceq	0, cr0, [r0], {9}
    3d98:	00000bcc 	andeq	r0, r0, ip, asr #23
    3d9c:	000006fd 	strdeq	r0, [r0], -sp
    3da0:	000094b4 			; <UNDEFINED> instruction: 0x000094b4
    3da4:	00000194 	muleq	r0, r4, r1
    3da8:	00000f38 	andeq	r0, r0, r8, lsr pc
    3dac:	69050402 	stmdbvs	r5, {r1, sl}
    3db0:	0300746e 	movweq	r7, #1134	; 0x46e
    3db4:	013f0704 	teqeq	pc, r4, lsl #14
    3db8:	01030000 	mrseq	r0, (UNDEF: 3)
    3dbc:	00008606 	andeq	r8, r0, r6, lsl #12
    3dc0:	05020300 	streq	r0, [r2, #-768]	; 0x300
    3dc4:	0000016a 	andeq	r0, r0, sl, ror #2
    3dc8:	5a050403 	bpl	144ddc <__bss_end__+0x13ac84>
    3dcc:	03000001 	movweq	r0, #1
    3dd0:	01550508 	cmpeq	r5, r8, lsl #10
    3dd4:	01030000 	mrseq	r0, (UNDEF: 3)
    3dd8:	00008408 	andeq	r8, r0, r8, lsl #8
    3ddc:	07020300 	streq	r0, [r2, -r0, lsl #6]
    3de0:	000000fa 	strdeq	r0, [r0], -sl
    3de4:	3a070403 	bcc	1c4df8 <__bss_end__+0x1baca0>
    3de8:	03000001 	movweq	r0, #1
    3dec:	01350708 	teqeq	r5, r8, lsl #14
    3df0:	a0040000 	andge	r0, r4, r0
    3df4:	02000008 	andeq	r0, r0, #8
    3df8:	00002507 	andeq	r2, r0, r7, lsl #10
    3dfc:	088a0400 	stmeq	sl, {sl}
    3e00:	2c030000 	stccs	0, cr0, [r3], {-0}
    3e04:	00000041 	andeq	r0, r0, r1, asr #32
    3e08:	00096604 	andeq	r6, r9, r4, lsl #12
    3e0c:	41720300 	cmnmi	r2, r0, lsl #6
    3e10:	05000000 	streq	r0, [r0, #-0]
    3e14:	0000082e 	andeq	r0, r0, lr, lsr #16
    3e18:	2c016504 	cfstr32cs	mvfx6, [r1], {4}
    3e1c:	06000000 	streq	r0, [r0], -r0
    3e20:	b7a60304 	strlt	r0, [r6, r4, lsl #6]!
    3e24:	07000000 	streq	r0, [r0, -r0]
    3e28:	00000819 	andeq	r0, r0, r9, lsl r8
    3e2c:	008ca803 	addeq	sl, ip, r3, lsl #16
    3e30:	b5070000 	strlt	r0, [r7, #-0]
    3e34:	03000007 	movweq	r0, #7
    3e38:	0000b7a9 	andeq	fp, r0, r9, lsr #15
    3e3c:	4f080000 	svcmi	0x00080000
    3e40:	c7000000 	strgt	r0, [r0, -r0]
    3e44:	09000000 	stmdbeq	r0, {}	; <UNPREDICTABLE>
    3e48:	000000c7 	andeq	r0, r0, r7, asr #1
    3e4c:	04030003 	streq	r0, [r3], #-3
    3e50:	00014c07 	andeq	r4, r1, r7, lsl #24
    3e54:	03080a00 	movweq	r0, #35328	; 0x8a00
    3e58:	0000efa3 	andeq	lr, r0, r3, lsr #31
    3e5c:	094b0b00 	stmdbeq	fp, {r8, r9, fp}^
    3e60:	a5030000 	strge	r0, [r3, #-0]
    3e64:	00000025 	andeq	r0, r0, r5, lsr #32
    3e68:	09530b00 	ldmdbeq	r3, {r8, r9, fp}^
    3e6c:	aa030000 	bge	c3e74 <__bss_end__+0xb9d1c>
    3e70:	00000098 	muleq	r0, r8, r0
    3e74:	de040004 	cdple	0, 0, cr0, cr4, cr4, {0}
    3e78:	03000008 	movweq	r0, #8
    3e7c:	0000ceab 	andeq	ip, r0, fp, lsr #29
    3e80:	077e0400 	ldrbeq	r0, [lr, -r0, lsl #8]!
    3e84:	af030000 	svcge	0x00030000
    3e88:	0000006b 	andeq	r0, r0, fp, rrx
    3e8c:	040d040c 	streq	r0, [sp], #-1036	; 0x40c
    3e90:	0000010d 	andeq	r0, r0, sp, lsl #2
    3e94:	8d080103 	stfhis	f0, [r8, #-12]
    3e98:	0e000000 	cdpeq	0, 0, cr0, cr0, cr0, {0}
    3e9c:	0000010d 	andeq	r0, r0, sp, lsl #2
    3ea0:	000a0804 	andeq	r0, sl, r4, lsl #16
    3ea4:	5d160500 	cfldr32pl	mvfx0, [r6, #-0]
    3ea8:	0f000000 	svceq	0x00000000
    3eac:	0000078f 	andeq	r0, r0, pc, lsl #15
    3eb0:	772d0518 			; <UNDEFINED> instruction: 0x772d0518
    3eb4:	0b000001 	bleq	3ec0 <_start-0x4140>
    3eb8:	000008ff 	strdeq	r0, [r0], -pc	; <UNPREDICTABLE>
    3ebc:	01772f05 	cmneq	r7, r5, lsl #30
    3ec0:	10000000 	andne	r0, r0, r0
    3ec4:	05006b5f 	streq	r6, [r0, #-2911]	; 0xb5f
    3ec8:	00002530 	andeq	r2, r0, r0, lsr r5
    3ecc:	360b0400 	strcc	r0, [fp], -r0, lsl #8
    3ed0:	05000009 	streq	r0, [r0, #-9]
    3ed4:	00002530 	andeq	r2, r0, r0, lsr r5
    3ed8:	6a0b0800 	bvs	2c5ee0 <__bss_end__+0x2bbd88>
    3edc:	05000007 	streq	r0, [r0, #-7]
    3ee0:	00002530 	andeq	r2, r0, r0, lsr r5
    3ee4:	4f0b0c00 	svcmi	0x000b0c00
    3ee8:	0500000a 	streq	r0, [r0, #-10]
    3eec:	00002530 	andeq	r2, r0, r0, lsr r5
    3ef0:	5f101000 	svcpl	0x00101000
    3ef4:	31050078 	tstcc	r5, r8, ror r0
    3ef8:	0000017d 	andeq	r0, r0, sp, ror r1
    3efc:	040d0014 	streq	r0, [sp], #-20
    3f00:	00000124 	andeq	r0, r0, r4, lsr #2
    3f04:	00011908 	andeq	r1, r1, r8, lsl #18
    3f08:	00018d00 	andeq	r8, r1, r0, lsl #26
    3f0c:	00c70900 	sbceq	r0, r7, r0, lsl #18
    3f10:	00000000 	andeq	r0, r0, r0
    3f14:	0007b00f 	andeq	fp, r7, pc
    3f18:	35052400 	strcc	r2, [r5, #-1024]	; 0x400
    3f1c:	00000206 	andeq	r0, r0, r6, lsl #4
    3f20:	0006680b 	andeq	r6, r6, fp, lsl #16
    3f24:	25370500 	ldrcs	r0, [r7, #-1280]!	; 0x500
    3f28:	00000000 	andeq	r0, r0, r0
    3f2c:	00096e0b 	andeq	r6, r9, fp, lsl #28
    3f30:	25380500 	ldrcs	r0, [r8, #-1280]!	; 0x500
    3f34:	04000000 	streq	r0, [r0], #-0
    3f38:	0006960b 	andeq	r9, r6, fp, lsl #12
    3f3c:	25390500 	ldrcs	r0, [r9, #-1280]!	; 0x500
    3f40:	08000000 	stmdaeq	r0, {}	; <UNPREDICTABLE>
    3f44:	000b3f0b 	andeq	r3, fp, fp, lsl #30
    3f48:	253a0500 	ldrcs	r0, [sl, #-1280]!	; 0x500
    3f4c:	0c000000 	stceq	0, cr0, [r0], {-0}
    3f50:	00086e0b 	andeq	r6, r8, fp, lsl #28
    3f54:	253b0500 	ldrcs	r0, [fp, #-1280]!	; 0x500
    3f58:	10000000 	andne	r0, r0, r0
    3f5c:	0008430b 	andeq	r4, r8, fp, lsl #6
    3f60:	253c0500 	ldrcs	r0, [ip, #-1280]!	; 0x500
    3f64:	14000000 	strne	r0, [r0], #-0
    3f68:	000a540b 	andeq	r5, sl, fp, lsl #8
    3f6c:	253d0500 	ldrcs	r0, [sp, #-1280]!	; 0x500
    3f70:	18000000 	stmdane	r0, {}	; <UNPREDICTABLE>
    3f74:	0008c00b 	andeq	ip, r8, fp
    3f78:	253e0500 	ldrcs	r0, [lr, #-1280]!	; 0x500
    3f7c:	1c000000 	stcne	0, cr0, [r0], {-0}
    3f80:	000b060b 	andeq	r0, fp, fp, lsl #12
    3f84:	253f0500 	ldrcs	r0, [pc, #-1280]!	; 3a8c <_start-0x4574>
    3f88:	20000000 	andcs	r0, r0, r0
    3f8c:	06a51100 	strteq	r1, [r5], r0, lsl #2
    3f90:	01080000 	mrseq	r0, (UNDEF: 8)
    3f94:	02464805 	subeq	r4, r6, #327680	; 0x50000
    3f98:	510b0000 	mrspl	r0, (UNDEF: 11)
    3f9c:	05000007 	streq	r0, [r0, #-7]
    3fa0:	00024649 	andeq	r4, r2, r9, asr #12
    3fa4:	e90b0000 	stmdb	fp, {}	; <UNPREDICTABLE>
    3fa8:	05000005 	streq	r0, [r0, #-5]
    3fac:	0002464a 	andeq	r4, r2, sl, asr #12
    3fb0:	fa128000 	blx	4a3fb8 <__bss_end__+0x499e60>
    3fb4:	05000009 	streq	r0, [r0, #-9]
    3fb8:	0001194c 	andeq	r1, r1, ip, asr #18
    3fbc:	12010000 	andne	r0, r1, #0
    3fc0:	000006ca 	andeq	r0, r0, sl, asr #13
    3fc4:	01194f05 	tsteq	r9, r5, lsl #30
    3fc8:	01040000 	mrseq	r0, (UNDEF: 4)
    3fcc:	01050800 	tsteq	r5, r0, lsl #16
    3fd0:	02560000 	subseq	r0, r6, #0
    3fd4:	c7090000 	strgt	r0, [r9, -r0]
    3fd8:	1f000000 	svcne	0x00000000
    3fdc:	08771100 	ldmdaeq	r7!, {r8, ip}^
    3fe0:	01900000 	orrseq	r0, r0, r0
    3fe4:	02945b05 	addseq	r5, r4, #5120	; 0x1400
    3fe8:	ff0b0000 			; <UNDEFINED> instruction: 0xff0b0000
    3fec:	05000008 	streq	r0, [r0, #-8]
    3ff0:	0002945c 	andeq	r9, r2, ip, asr r4
    3ff4:	170b0000 	strne	r0, [fp, -r0]
    3ff8:	05000009 	streq	r0, [r0, #-9]
    3ffc:	0000255d 	andeq	r2, r0, sp, asr r5
    4000:	650b0400 	strvs	r0, [fp, #-1024]	; 0x400
    4004:	05000007 	streq	r0, [r0, #-7]
    4008:	00029a5f 	andeq	r9, r2, pc, asr sl
    400c:	a50b0800 	strge	r0, [fp, #-2048]	; 0x800
    4010:	05000006 	streq	r0, [r0, #-6]
    4014:	00020660 	andeq	r0, r2, r0, ror #12
    4018:	0d008800 	stceq	8, cr8, [r0, #-0]
    401c:	00025604 	andeq	r5, r2, r4, lsl #12
    4020:	02aa0800 	adceq	r0, sl, #0, 16
    4024:	02aa0000 	adceq	r0, sl, #0
    4028:	c7090000 	strgt	r0, [r9, -r0]
    402c:	1f000000 	svcne	0x00000000
    4030:	b0040d00 	andlt	r0, r4, r0, lsl #26
    4034:	13000002 	movwne	r0, #2
    4038:	0008ca0f 	andeq	ip, r8, pc, lsl #20
    403c:	73050800 	movwvc	r0, #22528	; 0x5800
    4040:	000002d6 	ldrdeq	r0, [r0], -r6
    4044:	00068b0b 	andeq	r8, r6, fp, lsl #22
    4048:	d6740500 	ldrbtle	r0, [r4], -r0, lsl #10
    404c:	00000002 	andeq	r0, r0, r2
    4050:	0001cd0b 	andeq	ip, r1, fp, lsl #26
    4054:	25750500 	ldrbcs	r0, [r5, #-1280]!	; 0x500
    4058:	04000000 	streq	r0, [r0], #-0
    405c:	4f040d00 	svcmi	0x00040d00
    4060:	0f000000 	svceq	0x00000000
    4064:	000008e9 	andeq	r0, r0, r9, ror #17
    4068:	06b30568 	ldrteq	r0, [r3], r8, ror #10
    406c:	10000004 	andne	r0, r0, r4
    4070:	0500705f 	streq	r7, [r0, #-95]	; 0x5f
    4074:	0002d6b4 			; <UNDEFINED> instruction: 0x0002d6b4
    4078:	5f100000 	svcpl	0x00100000
    407c:	b5050072 	strlt	r0, [r5, #-114]	; 0x72
    4080:	00000025 	andeq	r0, r0, r5, lsr #32
    4084:	775f1004 	ldrbvc	r1, [pc, -r4]
    4088:	25b60500 	ldrcs	r0, [r6, #1280]!	; 0x500
    408c:	08000000 	stmdaeq	r0, {}	; <UNPREDICTABLE>
    4090:	0006c30b 	andeq	ip, r6, fp, lsl #6
    4094:	3ab70500 	bcc	fedc549c <__bss_end__+0xfedbb344>
    4098:	0c000000 	stceq	0, cr0, [r0], {-0}
    409c:	0007d60b 	andeq	sp, r7, fp, lsl #12
    40a0:	3ab80500 	bcc	fee054a8 <__bss_end__+0xfedfb350>
    40a4:	0e000000 	cdpeq	0, 0, cr0, cr0, cr0, {0}
    40a8:	66625f10 	uqadd16vs	r5, r2, r0
    40ac:	b1b90500 			; <UNDEFINED> instruction: 0xb1b90500
    40b0:	10000002 	andne	r0, r0, r2
    40b4:	0006320b 	andeq	r3, r6, fp, lsl #4
    40b8:	25ba0500 	ldrcs	r0, [sl, #1280]!	; 0x500
    40bc:	18000000 	stmdane	r0, {}	; <UNPREDICTABLE>
    40c0:	0006b30b 	andeq	fp, r6, fp, lsl #6
    40c4:	05c10500 	strbeq	r0, [r1, #1280]	; 0x500
    40c8:	1c000001 	stcne	0, cr0, [r0], {1}
    40cc:	000b660b 	andeq	r6, fp, fp, lsl #12
    40d0:	61c30500 	bicvs	r0, r3, r0, lsl #10
    40d4:	20000005 	andcs	r0, r0, r5
    40d8:	000b800b 	andeq	r8, fp, fp
    40dc:	8bc50500 	blhi	ff1454e4 <__bss_end__+0xff13b38c>
    40e0:	24000005 	strcs	r0, [r0], #-5
    40e4:	00095b0b 	andeq	r5, r9, fp, lsl #22
    40e8:	afc80500 	svcge	0x00c80500
    40ec:	28000005 	stmdacs	r0, {r0, r2}
    40f0:	000b200b 	andeq	r2, fp, fp
    40f4:	c9c90500 	stmibgt	r9, {r8, sl}^
    40f8:	2c000005 	stccs	0, cr0, [r0], {5}
    40fc:	62755f10 	rsbsvs	r5, r5, #16, 30	; 0x40
    4100:	b1cc0500 	biclt	r0, ip, r0, lsl #10
    4104:	30000002 	andcc	r0, r0, r2
    4108:	70755f10 	rsbsvc	r5, r5, r0, lsl pc
    410c:	d6cd0500 	strble	r0, [sp], r0, lsl #10
    4110:	38000002 	stmdacc	r0, {r1}
    4114:	72755f10 	rsbsvc	r5, r5, #16, 30	; 0x40
    4118:	25ce0500 	strbcs	r0, [lr, #1280]	; 0x500
    411c:	3c000000 	stccc	0, cr0, [r0], {-0}
    4120:	0006760b 	andeq	r7, r6, fp, lsl #12
    4124:	cfd10500 	svcgt	0x00d10500
    4128:	40000005 	andmi	r0, r0, r5
    412c:	000acb0b 	andeq	ip, sl, fp, lsl #22
    4130:	dfd20500 	svcle	0x00d20500
    4134:	43000005 	movwmi	r0, #5
    4138:	626c5f10 	rsbvs	r5, ip, #16, 30	; 0x40
    413c:	b1d50500 	bicslt	r0, r5, r0, lsl #10
    4140:	44000002 	strmi	r0, [r0], #-2
    4144:	0006d90b 	andeq	sp, r6, fp, lsl #18
    4148:	25d80500 	ldrbcs	r0, [r8, #1280]	; 0x500
    414c:	4c000000 	stcmi	0, cr0, [r0], {-0}
    4150:	00084d0b 	andeq	r4, r8, fp, lsl #26
    4154:	76d90500 	ldrbvc	r0, [r9], r0, lsl #10
    4158:	50000000 	andpl	r0, r0, r0
    415c:	000ab60b 	andeq	fp, sl, fp, lsl #12
    4160:	24dc0500 	ldrbcs	r0, [ip], #1280	; 0x500
    4164:	54000004 	strpl	r0, [r0], #-4
    4168:	0008350b 	andeq	r3, r8, fp, lsl #10
    416c:	fae00500 	blx	ff805574 <__bss_end__+0xff7fb41c>
    4170:	58000000 	stmdapl	r0, {}	; <UNPREDICTABLE>
    4174:	0008f10b 	andeq	pc, r8, fp, lsl #2
    4178:	efe20500 	svc	0x00e20500
    417c:	5c000000 	stcpl	0, cr0, [r0], {-0}
    4180:	00083b0b 	andeq	r3, r8, fp, lsl #22
    4184:	25e30500 	strbcs	r0, [r3, #1280]!	; 0x500
    4188:	64000000 	strvs	r0, [r0], #-0
    418c:	00251400 	eoreq	r1, r5, r0, lsl #8
    4190:	04240000 	strteq	r0, [r4], #-0
    4194:	24150000 	ldrcs	r0, [r5], #-0
    4198:	15000004 	strne	r0, [r0, #-4]
    419c:	00000105 	andeq	r0, r0, r5, lsl #2
    41a0:	00010715 	andeq	r0, r1, r5, lsl r7
    41a4:	00251500 	eoreq	r1, r5, r0, lsl #10
    41a8:	0d000000 	stceq	0, cr0, [r0, #-0]
    41ac:	00042f04 	andeq	r2, r4, r4, lsl #30
    41b0:	04240e00 	strteq	r0, [r4], #-3584	; 0xe00
    41b4:	3e160000 	cdpcc	0, 1, cr0, cr6, cr0, {0}
    41b8:	28000009 	stmdacs	r0, {r0, r3}
    41bc:	02380504 	eorseq	r0, r8, #4, 10	; 0x1000000
    41c0:	00000561 	andeq	r0, r0, r1, ror #10
    41c4:	0008b917 	andeq	fp, r8, r7, lsl r9
    41c8:	023a0500 	eorseq	r0, sl, #0, 10
    41cc:	00000025 	andeq	r0, r0, r5, lsr #32
    41d0:	06d21700 	ldrbeq	r1, [r2], r0, lsl #14
    41d4:	3f050000 	svccc	0x00050000
    41d8:	00063602 	andeq	r3, r6, r2, lsl #12
    41dc:	c6170400 	ldrgt	r0, [r7], -r0, lsl #8
    41e0:	05000007 	streq	r0, [r0, #-7]
    41e4:	0636023f 			; <UNDEFINED> instruction: 0x0636023f
    41e8:	17080000 	strne	r0, [r8, -r0]
    41ec:	00000787 	andeq	r0, r0, r7, lsl #15
    41f0:	36023f05 	strcc	r3, [r2], -r5, lsl #30
    41f4:	0c000006 	stceq	0, cr0, [r0], {6}
    41f8:	00091217 	andeq	r1, r9, r7, lsl r2
    41fc:	02410500 	subeq	r0, r1, #0, 10
    4200:	00000025 	andeq	r0, r0, r5, lsr #32
    4204:	05fd1710 	ldrbeq	r1, [sp, #1808]!	; 0x710
    4208:	42050000 	andmi	r0, r5, #0
    420c:	00081802 	andeq	r1, r8, r2, lsl #16
    4210:	30171400 	andscc	r1, r7, r0, lsl #8
    4214:	0500000a 	streq	r0, [r0, #-10]
    4218:	00250244 	eoreq	r0, r5, r4, asr #4
    421c:	17300000 	ldrne	r0, [r0, -r0]!
    4220:	0000091c 	andeq	r0, r0, ip, lsl r9
    4224:	85024505 	strhi	r4, [r2, #-1285]	; 0x505
    4228:	34000005 	strcc	r0, [r0], #-5
    422c:	00087f17 	andeq	r7, r8, r7, lsl pc
    4230:	02470500 	subeq	r0, r7, #0, 10
    4234:	00000025 	andeq	r0, r0, r5, lsr #32
    4238:	092c1738 	stmdbeq	ip!, {r3, r4, r5, r8, r9, sl, ip}
    423c:	49050000 	stmdbmi	r5, {}	; <UNPREDICTABLE>
    4240:	00083302 	andeq	r3, r8, r2, lsl #6
    4244:	11173c00 	tstne	r7, r0, lsl #24
    4248:	05000008 	streq	r0, [r0, #-8]
    424c:	0177024c 	cmneq	r7, ip, asr #4
    4250:	17400000 	strbne	r0, [r0, -r0]
    4254:	000007a6 	andeq	r0, r0, r6, lsr #15
    4258:	25024d05 	strcs	r4, [r2, #-3333]	; 0xd05
    425c:	44000000 	strmi	r0, [r0], #-0
    4260:	000b3a17 	andeq	r3, fp, r7, lsl sl
    4264:	024e0500 	subeq	r0, lr, #0, 10
    4268:	00000177 	andeq	r0, r0, r7, ror r1
    426c:	08961748 	ldmeq	r6, {r3, r6, r8, r9, sl, ip}
    4270:	4f050000 	svcmi	0x00050000
    4274:	00083902 	andeq	r3, r8, r2, lsl #18
    4278:	ce174c00 	cdpgt	12, 1, cr4, cr7, cr0, {0}
    427c:	05000007 	streq	r0, [r0, #-7]
    4280:	00250252 	eoreq	r0, r5, r2, asr r2
    4284:	17500000 	ldrbne	r0, [r0, -r0]
    4288:	000006f5 	strdeq	r0, [r0], -r5
    428c:	07025305 	streq	r5, [r2, -r5, lsl #6]
    4290:	54000001 	strpl	r0, [r0], #-1
    4294:	0008b217 	andeq	fp, r8, r7, lsl r2
    4298:	02760500 	rsbseq	r0, r6, #0, 10
    429c:	000007f6 	strdeq	r0, [r0], -r6
    42a0:	08771858 	ldmdaeq	r7!, {r3, r4, r6, fp, ip}^
    42a4:	7a050000 	bvc	1442ac <__bss_end__+0x13a154>
    42a8:	00029402 	andeq	r9, r2, r2, lsl #8
    42ac:	18014800 	stmdane	r1, {fp, lr}
    42b0:	000007e3 	andeq	r0, r0, r3, ror #15
    42b4:	56027b05 	strpl	r7, [r2], -r5, lsl #22
    42b8:	4c000002 	stcmi	0, cr0, [r0], {2}
    42bc:	0a9c1801 	beq	fe70a2c8 <__bss_end__+0xfe700170>
    42c0:	7f050000 	svcvc	0x00050000
    42c4:	00084a02 	andeq	r4, r8, r2, lsl #20
    42c8:	1802dc00 	stmdane	r2, {sl, fp, ip, lr, pc}
    42cc:	000006bb 			; <UNDEFINED> instruction: 0x000006bb
    42d0:	fb028405 	blx	a52ee <__bss_end__+0x9b196>
    42d4:	e0000005 	and	r0, r0, r5
    42d8:	06a01802 	strteq	r1, [r0], r2, lsl #16
    42dc:	85050000 	strhi	r0, [r5, #-0]
    42e0:	00085602 	andeq	r5, r8, r2, lsl #12
    42e4:	0002ec00 	andeq	lr, r2, r0, lsl #24
    42e8:	0406040d 	streq	r0, [r6], #-1037	; 0x40d
    42ec:	25140000 	ldrcs	r0, [r4, #-0]
    42f0:	85000000 	strhi	r0, [r0, #-0]
    42f4:	15000005 	strne	r0, [r0, #-5]
    42f8:	00000424 	andeq	r0, r0, r4, lsr #8
    42fc:	00010515 	andeq	r0, r1, r5, lsl r5
    4300:	05851500 	streq	r1, [r5, #1280]	; 0x500
    4304:	25150000 	ldrcs	r0, [r5, #-0]
    4308:	00000000 	andeq	r0, r0, r0
    430c:	0114040d 	tsteq	r4, sp, lsl #8
    4310:	040d0000 	streq	r0, [sp], #-0
    4314:	00000567 	andeq	r0, r0, r7, ror #10
    4318:	00008114 	andeq	r8, r0, r4, lsl r1
    431c:	0005af00 	andeq	sl, r5, r0, lsl #30
    4320:	04241500 	strteq	r1, [r4], #-1280	; 0x500
    4324:	05150000 	ldreq	r0, [r5, #-0]
    4328:	15000001 	strne	r0, [r0, #-1]
    432c:	00000081 	andeq	r0, r0, r1, lsl #1
    4330:	00002515 	andeq	r2, r0, r5, lsl r5
    4334:	040d0000 	streq	r0, [sp], #-0
    4338:	00000591 	muleq	r0, r1, r5
    433c:	00002514 	andeq	r2, r0, r4, lsl r5
    4340:	0005c900 	andeq	ip, r5, r0, lsl #18
    4344:	04241500 	strteq	r1, [r4], #-1280	; 0x500
    4348:	05150000 	ldreq	r0, [r5, #-0]
    434c:	00000001 	andeq	r0, r0, r1
    4350:	05b5040d 	ldreq	r0, [r5, #1037]!	; 0x40d
    4354:	4f080000 	svcmi	0x00080000
    4358:	df000000 	svcle	0x00000000
    435c:	09000005 	stmdbeq	r0, {r0, r2}
    4360:	000000c7 	andeq	r0, r0, r7, asr #1
    4364:	4f080002 	svcmi	0x00080002
    4368:	ef000000 	svc	0x00000000
    436c:	09000005 	stmdbeq	r0, {r0, r2}
    4370:	000000c7 	andeq	r0, r0, r7, asr #1
    4374:	d7050000 	strle	r0, [r5, -r0]
    4378:	05000008 	streq	r0, [r0, #-8]
    437c:	02dc011d 	sbcseq	r0, ip, #1073741831	; 0x40000007
    4380:	5e190000 	cdppl	0, 1, cr0, cr9, cr0, {0}
    4384:	0c00000a 	stceq	0, cr0, [r0], {10}
    4388:	30012105 	andcc	r2, r1, r5, lsl #2
    438c:	17000006 	strne	r0, [r0, -r6]
    4390:	000008ff 	strdeq	r0, [r0], -pc	; <UNPREDICTABLE>
    4394:	30012305 	andcc	r2, r1, r5, lsl #6
    4398:	00000006 	andeq	r0, r0, r6
    439c:	0007dc17 	andeq	sp, r7, r7, lsl ip
    43a0:	01240500 	teqeq	r4, r0, lsl #10
    43a4:	00000025 	andeq	r0, r0, r5, lsr #32
    43a8:	08d11704 	ldmeq	r1, {r2, r8, r9, sl, ip}^
    43ac:	25050000 	strcs	r0, [r5, #-0]
    43b0:	00063601 	andeq	r3, r6, r1, lsl #12
    43b4:	0d000800 	stceq	8, cr0, [r0, #-0]
    43b8:	0005fb04 	andeq	pc, r5, r4, lsl #22
    43bc:	ef040d00 	svc	0x00040d00
    43c0:	19000005 	stmdbne	r0, {r0, r2}
    43c4:	000005f5 	strdeq	r0, [r0], -r5
    43c8:	013d050e 	teqeq	sp, lr, lsl #10
    43cc:	00000671 	andeq	r0, r0, r1, ror r6
    43d0:	00094517 	andeq	r4, r9, r7, lsl r5
    43d4:	013e0500 	teqeq	lr, r0, lsl #10
    43d8:	00000671 	andeq	r0, r0, r1, ror r6
    43dc:	097f1700 	ldmdbeq	pc!, {r8, r9, sl, ip}^	; <UNPREDICTABLE>
    43e0:	3f050000 	svccc	0x00050000
    43e4:	00067101 	andeq	r7, r6, r1, lsl #2
    43e8:	03170600 	tsteq	r7, #0, 12
    43ec:	0500000a 	streq	r0, [r0, #-10]
    43f0:	00560140 	subseq	r0, r6, r0, asr #2
    43f4:	000c0000 	andeq	r0, ip, r0
    43f8:	00005608 	andeq	r5, r0, r8, lsl #12
    43fc:	00068100 	andeq	r8, r6, r0, lsl #2
    4400:	00c70900 	sbceq	r0, r7, r0, lsl #18
    4404:	00020000 	andeq	r0, r2, r0
    4408:	5705d01a 	smladpl	r5, sl, r0, sp
    440c:	00078202 	andeq	r8, r7, r2, lsl #4
    4410:	0a421700 	beq	108a018 <__bss_end__+0x107fec0>
    4414:	59050000 	stmdbpl	r5, {}	; <UNPREDICTABLE>
    4418:	00002c02 	andeq	r2, r0, r2, lsl #24
    441c:	ed170000 	ldc	0, cr0, [r7, #-0]
    4420:	05000009 	streq	r0, [r0, #-9]
    4424:	0107025a 	tsteq	r7, sl, asr r2
    4428:	17040000 	strne	r0, [r4, -r0]
    442c:	000007f8 	strdeq	r0, [r0], -r8
    4430:	82025b05 	andhi	r5, r2, #5120	; 0x1400
    4434:	08000007 	stmdaeq	r0, {r0, r1, r2}
    4438:	000b1117 	andeq	r1, fp, r7, lsl r1
    443c:	025c0500 	subseq	r0, ip, #0, 10
    4440:	0000018d 	andeq	r0, r0, sp, lsl #3
    4444:	07971724 	ldreq	r1, [r7, r4, lsr #14]
    4448:	5d050000 	stcpl	0, cr0, [r5, #-0]
    444c:	00002502 	andeq	r2, r0, r2, lsl #10
    4450:	fa174800 	blx	5d6458 <__bss_end__+0x5cc300>
    4454:	05000008 	streq	r0, [r0, #-8]
    4458:	0064025e 	rsbeq	r0, r4, lr, asr r2
    445c:	17500000 	ldrbne	r0, [r0, -r0]
    4460:	00000b27 	andeq	r0, r0, r7, lsr #22
    4464:	3c025f05 	stccc	15, cr5, [r2], {5}
    4468:	58000006 	stmdapl	r0, {r1, r2}
    446c:	00090517 	andeq	r0, r9, r7, lsl r5
    4470:	02600500 	rsbeq	r0, r0, #0, 10
    4474:	000000ef 	andeq	r0, r0, pc, ror #1
    4478:	0b2c1768 	bleq	b0a220 <__bss_end__+0xb000c8>
    447c:	61050000 	mrsvs	r0, (UNDEF: 5)
    4480:	0000ef02 	andeq	lr, r0, r2, lsl #30
    4484:	5a177000 	bpl	5e048c <__bss_end__+0x5d6334>
    4488:	05000006 	streq	r0, [r0, #-6]
    448c:	00ef0262 	rsceq	r0, pc, r2, ror #4
    4490:	17780000 	ldrbne	r0, [r8, -r0]!
    4494:	00000a7e 	andeq	r0, r0, lr, ror sl
    4498:	92026305 	andls	r6, r2, #335544320	; 0x14000000
    449c:	80000007 	andhi	r0, r0, r7
    44a0:	0007ec17 	andeq	lr, r7, r7, lsl ip
    44a4:	02640500 	rsbeq	r0, r4, #0, 10
    44a8:	000007a2 	andeq	r0, r0, r2, lsr #15
    44ac:	0a101788 	beq	40a2d4 <__bss_end__+0x40017c>
    44b0:	65050000 	strvs	r0, [r5, #-0]
    44b4:	00002502 	andeq	r2, r0, r2, lsl #10
    44b8:	4317a000 	tstmi	r7, #0
    44bc:	05000007 	streq	r0, [r0, #-7]
    44c0:	00ef0266 	rsceq	r0, pc, r6, ror #4
    44c4:	17a40000 	strne	r0, [r4, r0]!
    44c8:	0000064b 	andeq	r0, r0, fp, asr #12
    44cc:	ef026705 	svc	0x00026705
    44d0:	ac000000 	stcge	0, cr0, [r0], {-0}
    44d4:	00073217 	andeq	r3, r7, r7, lsl r2
    44d8:	02680500 	rsbeq	r0, r8, #0, 10
    44dc:	000000ef 	andeq	r0, r0, pc, ror #1
    44e0:	061217b4 			; <UNDEFINED> instruction: 0x061217b4
    44e4:	69050000 	stmdbvs	r5, {}	; <UNPREDICTABLE>
    44e8:	0000ef02 	andeq	lr, r0, r2, lsl #30
    44ec:	2117bc00 	tstcs	r7, r0, lsl #24
    44f0:	05000006 	streq	r0, [r0, #-6]
    44f4:	00ef026a 	rsceq	r0, pc, sl, ror #4
    44f8:	17c40000 	strbne	r0, [r4, r0]
    44fc:	000008b7 			; <UNDEFINED> instruction: 0x000008b7
    4500:	25026b05 	strcs	r6, [r2, #-2821]	; 0xb05
    4504:	cc000000 	stcgt	0, cr0, [r0], {-0}
    4508:	010d0800 	tsteq	sp, r0, lsl #16
    450c:	07920000 	ldreq	r0, [r2, r0]
    4510:	c7090000 	strgt	r0, [r9, -r0]
    4514:	19000000 	stmdbne	r0, {}	; <UNPREDICTABLE>
    4518:	010d0800 	tsteq	sp, r0, lsl #16
    451c:	07a20000 	streq	r0, [r2, r0]!
    4520:	c7090000 	strgt	r0, [r9, -r0]
    4524:	07000000 	streq	r0, [r0, -r0]
    4528:	010d0800 	tsteq	sp, r0, lsl #16
    452c:	07b20000 	ldreq	r0, [r2, r0]!
    4530:	c7090000 	strgt	r0, [r9, -r0]
    4534:	17000000 	strne	r0, [r0, -r0]
    4538:	05f01a00 	ldrbeq	r1, [r0, #2560]!	; 0xa00
    453c:	07d60270 			; <UNDEFINED> instruction: 0x07d60270
    4540:	67170000 	ldrvs	r0, [r7, -r0]
    4544:	05000008 	streq	r0, [r0, #-8]
    4548:	07d60273 			; <UNDEFINED> instruction: 0x07d60273
    454c:	17000000 	strne	r0, [r0, -r0]
    4550:	00000a75 	andeq	r0, r0, r5, ror sl
    4554:	e6027405 	str	r7, [r2], -r5, lsl #8
    4558:	78000007 	stmdavc	r0, {r0, r1, r2}
    455c:	02d60800 	sbcseq	r0, r6, #0, 16
    4560:	07e60000 	strbeq	r0, [r6, r0]!
    4564:	c7090000 	strgt	r0, [r9, -r0]
    4568:	1d000000 	stcne	0, cr0, [r0, #-0]
    456c:	002c0800 	eoreq	r0, ip, r0, lsl #16
    4570:	07f60000 	ldrbeq	r0, [r6, r0]!
    4574:	c7090000 	strgt	r0, [r9, -r0]
    4578:	1d000000 	stcne	0, cr0, [r0, #-0]
    457c:	05f01b00 	ldrbeq	r1, [r0, #2816]!	; 0xb00
    4580:	08180255 	ldmdaeq	r8, {r0, r2, r4, r6, r9}
    4584:	3e1c0000 	cdpcc	0, 1, cr0, cr12, cr0, {0}
    4588:	05000009 	streq	r0, [r0, #-9]
    458c:	0681026c 	streq	r0, [r1], ip, ror #4
    4590:	d11c0000 	tstle	ip, r0
    4594:	0500000a 	streq	r0, [r0, #-10]
    4598:	07b20275 			; <UNDEFINED> instruction: 0x07b20275
    459c:	08000000 	stmdaeq	r0, {}	; <UNPREDICTABLE>
    45a0:	0000010d 	andeq	r0, r0, sp, lsl #2
    45a4:	00000828 	andeq	r0, r0, r8, lsr #16
    45a8:	0000c709 	andeq	ip, r0, r9, lsl #14
    45ac:	1d001800 	stcne	8, cr1, [r0, #-0]
    45b0:	00000833 	andeq	r0, r0, r3, lsr r8
    45b4:	00042415 	andeq	r2, r4, r5, lsl r4
    45b8:	040d0000 	streq	r0, [sp], #-0
    45bc:	00000828 	andeq	r0, r0, r8, lsr #16
    45c0:	0177040d 	cmneq	r7, sp, lsl #8
    45c4:	4a1d0000 	bmi	7445cc <__bss_end__+0x73a474>
    45c8:	15000008 	strne	r0, [r0, #-8]
    45cc:	00000025 	andeq	r0, r0, r5, lsr #32
    45d0:	50040d00 	andpl	r0, r4, r0, lsl #26
    45d4:	0d000008 	stceq	0, cr0, [r0, #-32]	; 0xffffffe0
    45d8:	00083f04 	andeq	r3, r8, r4, lsl #30
    45dc:	05ef0800 	strbeq	r0, [pc, #2048]!	; 4de4 <_start-0x321c>
    45e0:	08660000 	stmdaeq	r6!, {}^	; <UNPREDICTABLE>
    45e4:	c7090000 	strgt	r0, [r9, -r0]
    45e8:	02000000 	andeq	r0, r0, #0
    45ec:	0a241e00 	beq	90bdf4 <__bss_end__+0x901c9c>
    45f0:	fd050000 	stc2	0, cr0, [r5, #-0]
    45f4:	00042402 	andeq	r2, r4, r2, lsl #8
    45f8:	0a1d1e00 	beq	74be00 <__bss_end__+0x741ca8>
    45fc:	fe050000 	cdp2	0, 0, cr0, cr5, cr0, {0}
    4600:	00042a02 	andeq	r2, r4, r2, lsl #20
    4604:	00251400 	eoreq	r1, r5, r0, lsl #8
    4608:	088d0000 	stmeq	sp, {}	; <UNPREDICTABLE>
    460c:	25150000 	ldrcs	r0, [r5, #-0]
    4610:	00000000 	andeq	r0, r0, r0
    4614:	0003e91f 	andeq	lr, r3, pc, lsl r9
    4618:	981d0600 	ldmdals	sp, {r9, sl}
    461c:	0d000008 	stceq	0, cr0, [r0, #-32]	; 0xffffffe0
    4620:	00087e04 	andeq	r7, r8, r4, lsl #28
    4624:	00251400 	eoreq	r1, r5, r0, lsl #8
    4628:	08ad0000 	stmiaeq	sp!, {}	; <UNPREDICTABLE>
    462c:	85150000 	ldrhi	r0, [r5, #-0]
    4630:	00000005 	andeq	r0, r0, r5
    4634:	0004261f 	andeq	r2, r4, pc, lsl r6
    4638:	b8220600 	stmdalt	r2!, {r9, sl}
    463c:	0d000008 	stceq	0, cr0, [r0, #-32]	; 0xffffffe0
    4640:	00089e04 	andeq	r9, r8, r4, lsl #28
    4644:	04080300 	streq	r0, [r8], #-768	; 0x300
    4648:	00000bf3 	strdeq	r0, [r0], -r3
    464c:	000c2b1f 	andeq	r2, ip, pc, lsl fp
    4650:	0d0d0100 	stfeqs	f0, [sp, #-0]
    4654:	20000001 	andcs	r0, r0, r1
    4658:	00000297 	muleq	r0, r7, r2
    465c:	01070e01 	tsteq	r7, r1, lsl #28
    4660:	03050000 	movweq	r0, #20480	; 0x5000
    4664:	0000966c 	andeq	r9, r0, ip, ror #12
    4668:	000c4220 	andeq	r4, ip, r0, lsr #4
    466c:	070f0100 	streq	r0, [pc, -r0, lsl #2]
    4670:	05000001 	streq	r0, [r0, #-1]
    4674:	00967003 	addseq	r7, r6, r3
    4678:	0c042100 	stfeqs	f2, [r4], {-0}
    467c:	38010000 	stmdacc	r1, {}	; <UNPREDICTABLE>
    4680:	00009638 	andeq	r9, r0, r8, lsr r6
    4684:	00000010 	andeq	r0, r0, r0, lsl r0
    4688:	09139c01 	ldmdbeq	r3, {r0, sl, fp, ip, pc}
    468c:	70220000 	eorvc	r0, r2, r0
    4690:	05380100 	ldreq	r0, [r8, #-256]!	; 0x100
    4694:	01000001 	tsteq	r0, r1
    4698:	fa230050 	blx	8c47e0 <__bss_end__+0x8ba688>
    469c:	0100000b 	tsteq	r0, fp
    46a0:	00962437 	addseq	r2, r6, r7, lsr r4
    46a4:	00001400 	andeq	r1, r0, r0, lsl #8
    46a8:	219c0100 	orrscs	r0, ip, r0, lsl #2
    46ac:	00000164 	andeq	r0, r0, r4, ror #2
    46b0:	96203601 	strtls	r3, [r0], -r1, lsl #12
    46b4:	00040000 	andeq	r0, r4, r0
    46b8:	9c010000 	stcls	0, cr0, [r1], {-0}
    46bc:	00000945 	andeq	r0, r0, r5, asr #18
    46c0:	01007022 	tsteq	r0, r2, lsr #32
    46c4:	00010536 	andeq	r0, r1, r6, lsr r5
    46c8:	00500100 	subseq	r0, r0, r0, lsl #2
    46cc:	000be324 	andeq	lr, fp, r4, lsr #6
    46d0:	05290100 	streq	r0, [r9, #-256]!	; 0x100
    46d4:	94000001 	strls	r0, [r0], #-1
    46d8:	8c000095 	stchi	0, cr0, [r0], {149}	; 0x95
    46dc:	01000000 	mrseq	r0, (UNDEF: 0)
    46e0:	000a309c 	muleq	sl, ip, r0
    46e4:	02f42500 	rscseq	r2, r4, #0, 10
    46e8:	29010000 	stmdbcs	r1, {}	; <UNPREDICTABLE>
    46ec:	0000002c 	andeq	r0, r0, ip, lsr #32
    46f0:	0000133b 	andeq	r1, r0, fp, lsr r3
    46f4:	000c2125 	andeq	r2, ip, r5, lsr #2
    46f8:	2c290100 	stfcss	f0, [r9], #-0
    46fc:	8e000000 	cdphi	0, 0, cr0, cr0, cr0, {0}
    4700:	26000013 			; <UNDEFINED> instruction: 0x26000013
    4704:	00000120 	andeq	r0, r0, r0, lsr #2
    4708:	00000a40 	andeq	r0, r0, r0, asr #20
    470c:	9c480305 	mcrrls	3, 0, r0, r8, cr5
    4710:	68270000 	stmdavs	r7!, {}	; <UNPREDICTABLE>
    4714:	2c2e0100 	stfcss	f0, [lr], #-0
    4718:	d5000000 	strle	r0, [r0, #-0]
    471c:	28000013 	stmdacs	r0, {r0, r1, r4}
    4720:	000095d0 	ldrdeq	r9, [r0], -r0
    4724:	00000a79 	andeq	r0, r0, r9, ror sl
    4728:	000009ad 	andeq	r0, r0, sp, lsr #19
    472c:	03500129 	cmpeq	r0, #1073741834	; 0x4000000a
    4730:	005001f3 	ldrsheq	r0, [r0], #-19	; 0xffffffed
    4734:	0095d82a 	addseq	sp, r5, sl, lsr #16
    4738:	000bfb00 	andeq	pc, fp, r0, lsl #22
    473c:	95ec2800 	strbls	r2, [ip, #2048]!	; 0x800
    4740:	0c060000 	stceq	0, cr0, [r6], {-0}
    4744:	09e50000 	stmibeq	r5!, {}^	; <UNPREDICTABLE>
    4748:	01290000 	teqeq	r9, r0
    474c:	94030550 	strls	r0, [r3], #-1360	; 0x550
    4750:	2900009c 	stmdbcs	r0, {r2, r3, r4, r7}
    4754:	03055101 	movweq	r5, #20737	; 0x5101
    4758:	00009c58 	andeq	r9, r0, r8, asr ip
    475c:	05520129 	ldrbeq	r0, [r2, #-297]	; 0x129
    4760:	009c4803 	addseq	r4, ip, r3, lsl #16
    4764:	53012900 	movwpl	r2, #6400	; 0x1900
    4768:	002a0802 	eoreq	r0, sl, r2, lsl #16
    476c:	0095f02a 	addseq	pc, r5, sl, lsr #32
    4770:	000c1100 	andeq	r1, ip, r0, lsl #2
    4774:	95f42a00 	ldrbls	r2, [r4, #2560]!	; 0xa00
    4778:	0bfb0000 	bleq	ffec4780 <__bss_end__+0xffeba628>
    477c:	08280000 	stmdaeq	r8!, {}	; <UNPREDICTABLE>
    4780:	06000096 			; <UNDEFINED> instruction: 0x06000096
    4784:	2600000c 	strcs	r0, [r0], -ip
    4788:	2900000a 	stmdbcs	r0, {r1, r3}
    478c:	03055001 	movweq	r5, #20481	; 0x5001
    4790:	00009cf4 	strdeq	r9, [r0], -r4
    4794:	05510129 	ldrbeq	r0, [r1, #-297]	; 0x129
    4798:	009c5803 	addseq	r5, ip, r3, lsl #16
    479c:	52012900 	andpl	r2, r1, #0, 18
    47a0:	9c480305 	mcrrls	3, 0, r0, r8, cr5
    47a4:	01290000 	teqeq	r9, r0
    47a8:	30080253 	andcc	r0, r8, r3, asr r2
    47ac:	960c2a00 	strls	r2, [ip], -r0, lsl #20
    47b0:	0c110000 	ldceq	0, cr0, [r1], {-0}
    47b4:	08000000 	stmdaeq	r0, {}	; <UNPREDICTABLE>
    47b8:	00000114 	andeq	r0, r0, r4, lsl r1
    47bc:	00000a40 	andeq	r0, r0, r0, asr #20
    47c0:	0000c709 	andeq	ip, r0, r9, lsl #14
    47c4:	0e000f00 	cdpeq	15, 0, cr0, cr0, cr0, {0}
    47c8:	00000a30 	andeq	r0, r0, r0, lsr sl
    47cc:	000c1024 	andeq	r1, ip, r4, lsr #32
    47d0:	05250100 	streq	r0, [r5, #-256]!	; 0x100
    47d4:	88000001 	stmdahi	r0, {r0}
    47d8:	0c000095 	stceq	0, cr0, [r0], {149}	; 0x95
    47dc:	01000000 	mrseq	r0, (UNDEF: 0)
    47e0:	000a689c 	muleq	sl, ip, r8
    47e4:	95902a00 	ldrls	r2, [r0, #2560]	; 0xa00
    47e8:	0bd10000 	bleq	ff4447f0 <__bss_end__+0xff43a698>
    47ec:	23000000 	movwcs	r0, #0
    47f0:	00000bd6 	ldrdeq	r0, [r0], -r6
    47f4:	95842401 	strls	r2, [r4, #1025]	; 0x401
    47f8:	00040000 	andeq	r0, r4, r0
    47fc:	9c010000 	stcls	0, cr0, [r1], {-0}
    4800:	00010d24 	andeq	r0, r1, r4, lsr #26
    4804:	051a0100 	ldreq	r0, [sl, #-256]	; 0x100
    4808:	20000001 	andcs	r0, r0, r1
    480c:	64000095 	strvs	r0, [r0], #-149	; 0x95
    4810:	01000000 	mrseq	r0, (UNDEF: 0)
    4814:	000b249c 	muleq	fp, ip, r4
    4818:	7a732b00 	bvc	1ccf420 <__bss_end__+0x1cc52c8>
    481c:	2c1a0100 	ldfcss	f0, [sl], {-0}
    4820:	0d000000 	stceq	0, cr0, [r0, #-0]
    4824:	26000014 			; <UNDEFINED> instruction: 0x26000014
    4828:	00000120 	andeq	r0, r0, r0, lsr #2
    482c:	00000b34 	andeq	r0, r0, r4, lsr fp
    4830:	9c400305 	mcrrls	3, 0, r0, r0, cr5
    4834:	b92c0000 	stmdblt	ip!, {}	; <UNPREDICTABLE>
    4838:	01000001 	tsteq	r0, r1
    483c:	0001051e 	andeq	r0, r1, lr, lsl r5
    4840:	00145700 	andseq	r5, r4, r0, lsl #14
    4844:	95502800 	ldrbls	r2, [r0, #-2048]	; 0x800
    4848:	0c1c0000 	ldceq	0, cr0, [ip], {-0}
    484c:	0ae30000 	beq	ff8c4854 <__bss_end__+0xff8ba6fc>
    4850:	01290000 	teqeq	r9, r0
    4854:	00740250 	rsbseq	r0, r4, r0, asr r2
    4858:	01510129 	cmpeq	r1, r9, lsr #2
    485c:	52012930 	andpl	r2, r1, #48, 18	; 0xc0000
    4860:	5001f308 	andpl	pc, r1, r8, lsl #6
    4864:	f8090723 			; <UNDEFINED> instruction: 0xf8090723
    4868:	5c2a001a 	stcpl	0, cr0, [sl], #-104	; 0xffffff98
    486c:	fb000095 	blx	4aca <_start-0x3536>
    4870:	2800000b 	stmdacs	r0, {r0, r1, r3}
    4874:	00009570 	andeq	r9, r0, r0, ror r5
    4878:	00000c06 	andeq	r0, r0, r6, lsl #24
    487c:	00000b1a 	andeq	r0, r0, sl, lsl fp
    4880:	05500129 	ldrbeq	r0, [r0, #-297]	; 0x129
    4884:	009c8003 	addseq	r8, ip, r3
    4888:	51012900 	tstpl	r1, r0, lsl #18
    488c:	9c580305 	mrrcls	3, 0, r0, r8, cr5
    4890:	01290000 	teqeq	r9, r0
    4894:	40030552 	andmi	r0, r3, r2, asr r5
    4898:	2900009c 	stmdbcs	r0, {r2, r3, r4, r7}
    489c:	4b015301 	blmi	594a8 <__bss_end__+0x4f350>
    48a0:	95742a00 	ldrbls	r2, [r4, #-2560]!	; 0xa00
    48a4:	0c110000 	ldceq	0, cr0, [r1], {-0}
    48a8:	08000000 	stmdaeq	r0, {}	; <UNPREDICTABLE>
    48ac:	00000114 	andeq	r0, r0, r4, lsl r1
    48b0:	00000b34 	andeq	r0, r0, r4, lsr fp
    48b4:	0000c709 	andeq	ip, r0, r9, lsl #14
    48b8:	0e000700 	cdpeq	7, 0, cr0, cr0, cr0, {0}
    48bc:	00000b24 	andeq	r0, r0, r4, lsr #22
    48c0:	00017d21 	andeq	r7, r1, r1, lsr #26
    48c4:	d0140100 	andsle	r0, r4, r0, lsl #2
    48c8:	50000094 	mulpl	r0, r4, r0
    48cc:	01000000 	mrseq	r0, (UNDEF: 0)
    48d0:	000bbc9c 	muleq	fp, ip, ip
    48d4:	01b82500 			; <UNDEFINED> instruction: 0x01b82500
    48d8:	14010000 	strne	r0, [r1], #-0
    48dc:	0000002c 	andeq	r0, r0, ip, lsr #32
    48e0:	0000146a 	andeq	r1, r0, sl, ror #8
    48e4:	0001b92c 	andeq	fp, r1, ip, lsr #18
    48e8:	07150100 	ldreq	r0, [r5, -r0, lsl #2]
    48ec:	8b000001 	blhi	48f8 <_start-0x3708>
    48f0:	26000014 			; <UNDEFINED> instruction: 0x26000014
    48f4:	00000120 	andeq	r0, r0, r0, lsr #2
    48f8:	00000bcc 	andeq	r0, r0, ip, asr #23
    48fc:	9c280305 	stcls	3, cr0, [r8], #-20	; 0xffffffec
    4900:	f82a0000 			; <UNDEFINED> instruction: 0xf82a0000
    4904:	fb000094 	blx	4b5e <_start-0x34a2>
    4908:	2800000b 	stmdacs	r0, {r0, r1, r3}
    490c:	0000950c 	andeq	r9, r0, ip, lsl #10
    4910:	00000c06 	andeq	r0, r0, r6, lsl #24
    4914:	00000bb2 			; <UNDEFINED> instruction: 0x00000bb2
    4918:	05500129 	ldrbeq	r0, [r0, #-297]	; 0x129
    491c:	009c6403 	addseq	r6, ip, r3, lsl #8
    4920:	51012900 	tstpl	r1, r0, lsl #18
    4924:	9c580305 	mrrcls	3, 0, r0, r8, cr5
    4928:	01290000 	teqeq	r9, r0
    492c:	28030552 	stmdacs	r3, {r1, r4, r6, r8, sl}
    4930:	2900009c 	stmdbcs	r0, {r2, r3, r4, r7}
    4934:	46015301 	strmi	r5, [r1], -r1, lsl #6
    4938:	95102a00 	ldrls	r2, [r0, #-2560]	; 0xa00
    493c:	0c110000 	ldceq	0, cr0, [r1], {-0}
    4940:	08000000 	stmdaeq	r0, {}	; <UNPREDICTABLE>
    4944:	00000114 	andeq	r0, r0, r4, lsl r1
    4948:	00000bcc 	andeq	r0, r0, ip, asr #23
    494c:	0000c709 	andeq	ip, r0, r9, lsl #14
    4950:	0e001600 	cfmadd32eq	mvax0, mvfx1, mvfx0, mvfx0
    4954:	00000bbc 			; <UNDEFINED> instruction: 0x00000bbc
    4958:	000c3a2d 	andeq	r3, ip, sp, lsr #20
    495c:	05120100 	ldreq	r0, [r2, #-256]	; 0x100
    4960:	c4000001 	strgt	r0, [r0], #-1
    4964:	0c000094 	stceq	0, cr0, [r0], {148}	; 0x94
    4968:	01000000 	mrseq	r0, (UNDEF: 0)
    496c:	0c4d2d9c 	mcrreq	13, 9, r2, sp, cr12
    4970:	11010000 	mrsne	r0, (UNDEF: 1)
    4974:	00000105 	andeq	r0, r0, r5, lsl #2
    4978:	000094b4 			; <UNDEFINED> instruction: 0x000094b4
    497c:	00000010 	andeq	r0, r0, r0, lsl r0
    4980:	942e9c01 	strtls	r9, [lr], #-3073	; 0xc01
    4984:	94000001 	strls	r0, [r0], #-1
    4988:	06000001 	streq	r0, [r0], -r1
    498c:	03b82e1e 			; <UNDEFINED> instruction: 0x03b82e1e
    4990:	03b80000 			; <UNDEFINED> instruction: 0x03b80000
    4994:	29060000 	stmdbcs	r6, {}	; <UNPREDICTABLE>
    4998:	0000922e 	andeq	r9, r0, lr, lsr #4
    499c:	00009200 	andeq	r9, r0, r0, lsl #4
    49a0:	2e650600 	cdpcs	6, 6, cr0, cr5, cr0, {0}
    49a4:	000002e7 	andeq	r0, r0, r7, ror #5
    49a8:	000002e7 	andeq	r0, r0, r7, ror #5
    49ac:	Address 0x00000000000049ac is out of bounds.


Disassembly of section .debug_abbrev:

00000000 <.debug_abbrev>:
       0:	25011101 	strcs	r1, [r1, #-257]	; 0x101
       4:	030b130e 	movweq	r1, #45838	; 0xb30e
       8:	110e1b0e 	tstne	lr, lr, lsl #22
       c:	10061201 	andne	r1, r6, r1, lsl #4
      10:	02000017 	andeq	r0, r0, #23
      14:	0b0b0024 	bleq	2c00ac <__bss_end__+0x2b5f54>
      18:	0e030b3e 	vmoveq.16	d3[0], r0
      1c:	24030000 	strcs	r0, [r3], #-0
      20:	3e0b0b00 	vmlacc.f64	d0, d11, d0
      24:	0008030b 	andeq	r0, r8, fp, lsl #6
      28:	00160400 	andseq	r0, r6, r0, lsl #8
      2c:	0b3a0e03 	bleq	e83840 <__bss_end__+0xe796e8>
      30:	13490b3b 	movtne	r0, #39739	; 0x9b3b
      34:	0f050000 	svceq	0x00050000
      38:	000b0b00 	andeq	r0, fp, r0, lsl #22
      3c:	000f0600 	andeq	r0, pc, r0, lsl #12
      40:	13490b0b 	movtne	r0, #39691	; 0x9b0b
      44:	26070000 	strcs	r0, [r7], -r0
      48:	00134900 	andseq	r4, r3, r0, lsl #18
      4c:	01010800 	tsteq	r1, r0, lsl #16
      50:	13011349 	movwne	r1, #4937	; 0x1349
      54:	21090000 	mrscs	r0, (UNDEF: 9)
      58:	2f134900 	svccs	0x00134900
      5c:	0a00000b 	beq	90 <_start-0x7f70>
      60:	193f012e 	ldmdbne	pc!, {r1, r2, r3, r5, r8}	; <UNPREDICTABLE>
      64:	0b3a0e03 	bleq	e83878 <__bss_end__+0xe79720>
      68:	19270b3b 	stmdbne	r7!, {r0, r1, r3, r4, r5, r8, r9, fp}
      6c:	06120111 			; <UNDEFINED> instruction: 0x06120111
      70:	42971840 	addsmi	r1, r7, #64, 16	; 0x400000
      74:	00130119 	andseq	r0, r3, r9, lsl r1
      78:	00340b00 	eorseq	r0, r4, r0, lsl #22
      7c:	0b3a0803 	bleq	e82090 <__bss_end__+0xe77f38>
      80:	13490b3b 	movtne	r0, #39739	; 0x9b3b
      84:	0000061c 	andeq	r0, r0, ip, lsl r6
      88:	0300340c 	movweq	r3, #1036	; 0x40c
      8c:	3b0b3a08 	blcc	2ce8b4 <__bss_end__+0x2c475c>
      90:	0213490b 	andseq	r4, r3, #180224	; 0x2c000
      94:	0d000018 	stceq	0, cr0, [r0, #-96]	; 0xffffffa0
      98:	0e030034 	mcreq	0, 0, r0, cr3, cr4, {1}
      9c:	19341349 	ldmdbne	r4!, {r0, r3, r6, r8, r9, ip}
      a0:	00001802 	andeq	r1, r0, r2, lsl #16
      a4:	0300340e 	movweq	r3, #1038	; 0x40e
      a8:	3b0b3a08 	blcc	2ce8d0 <__bss_end__+0x2c4778>
      ac:	0213490b 	andseq	r4, r3, #180224	; 0x2c000
      b0:	0f000017 	svceq	0x00000017
      b4:	0111010b 	tsteq	r1, fp, lsl #2
      b8:	13010612 	movwne	r0, #5650	; 0x1612
      bc:	89100000 	ldmdbhi	r0, {}	; <UNPREDICTABLE>
      c0:	11000182 	smlabbne	r0, r2, r1, r0
      c4:	00133101 	andseq	r3, r3, r1, lsl #2
      c8:	82891100 	addhi	r1, r9, #0, 2
      cc:	01110101 	tsteq	r1, r1, lsl #2
      d0:	00001331 	andeq	r1, r0, r1, lsr r3
      d4:	01828a12 	orreq	r8, r2, r2, lsl sl
      d8:	91180200 	tstls	r8, r0, lsl #4
      dc:	00001842 	andeq	r1, r0, r2, asr #16
      e0:	01828913 	orreq	r8, r2, r3, lsl r9
      e4:	31011101 	tstcc	r1, r1, lsl #2
      e8:	00130113 	andseq	r0, r3, r3, lsl r1
      ec:	002e1400 	eoreq	r1, lr, r0, lsl #8
      f0:	0e03193f 	mcreq	9, 0, r1, cr3, cr15, {1}
      f4:	0b3b0b3a 	bleq	ec2de4 <__bss_end__+0xeb8c8c>
      f8:	13491927 	movtne	r1, #39207	; 0x9927
      fc:	0000193c 	andeq	r1, r0, ip, lsr r9
     100:	3f012e15 	svccc	0x00012e15
     104:	3a0e0319 	bcc	380d70 <__bss_end__+0x376c18>
     108:	270b3b0b 	strcs	r3, [fp, -fp, lsl #22]
     10c:	3c134919 	ldccc	9, cr4, [r3], {25}
     110:	00130119 	andseq	r0, r3, r9, lsl r1
     114:	00051600 	andeq	r1, r5, r0, lsl #12
     118:	00001349 	andeq	r1, r0, r9, asr #6
     11c:	3f012e17 	svccc	0x00012e17
     120:	3a0e0319 	bcc	380d8c <__bss_end__+0x376c34>
     124:	270b3b0b 	strcs	r3, [fp, -fp, lsl #22]
     128:	01193c19 	tsteq	r9, r9, lsl ip
     12c:	18000013 	stmdane	r0, {r0, r1, r4}
     130:	00000018 	andeq	r0, r0, r8, lsl r0
     134:	3f002e19 	svccc	0x00002e19
     138:	3a0e0319 	bcc	380da4 <__bss_end__+0x376c4c>
     13c:	270b3b0b 	strcs	r3, [fp, -fp, lsl #22]
     140:	00193c19 	andseq	r3, r9, r9, lsl ip
     144:	11010000 	mrsne	r0, (UNDEF: 1)
     148:	130e2501 	movwne	r2, #58625	; 0xe501
     14c:	1b0e030b 	blne	380d80 <__bss_end__+0x376c28>
     150:	1201110e 	andne	r1, r1, #-2147483645	; 0x80000003
     154:	00171006 	andseq	r1, r7, r6
     158:	00240200 	eoreq	r0, r4, r0, lsl #4
     15c:	0b3e0b0b 	bleq	f82d90 <__bss_end__+0xf78c38>
     160:	00000803 	andeq	r0, r0, r3, lsl #16
     164:	03001603 	movweq	r1, #1539	; 0x603
     168:	3b0b3a0e 	blcc	2ce9a8 <__bss_end__+0x2c4850>
     16c:	0013490b 	andseq	r4, r3, fp, lsl #18
     170:	00240400 	eoreq	r0, r4, r0, lsl #8
     174:	0b3e0b0b 	bleq	f82da8 <__bss_end__+0xf78c50>
     178:	00000e03 	andeq	r0, r0, r3, lsl #28
     17c:	0b000f05 	bleq	3d98 <_start-0x4268>
     180:	0600000b 	streq	r0, [r0], -fp
     184:	0b0b000f 	bleq	2c01c8 <__bss_end__+0x2b6070>
     188:	00001349 	andeq	r1, r0, r9, asr #6
     18c:	49002607 	stmdbmi	r0, {r0, r1, r2, r9, sl, sp}
     190:	08000013 	stmdaeq	r0, {r0, r1, r4}
     194:	13490101 	movtne	r0, #37121	; 0x9101
     198:	00001301 	andeq	r1, r0, r1, lsl #6
     19c:	49002109 	stmdbmi	r0, {r0, r3, r8, sp}
     1a0:	000b2f13 	andeq	r2, fp, r3, lsl pc
     1a4:	01040a00 	tsteq	r4, r0, lsl #20
     1a8:	0b3a0b0b 	bleq	e82ddc <__bss_end__+0xe78c84>
     1ac:	13010b3b 	movwne	r0, #6971	; 0x1b3b
     1b0:	280b0000 	stmdacs	fp, {}	; <UNPREDICTABLE>
     1b4:	1c0e0300 	stcne	3, cr0, [lr], {-0}
     1b8:	0c00000d 	stceq	0, cr0, [r0], {13}
     1bc:	0b0b0113 	bleq	2c0610 <__bss_end__+0x2b64b8>
     1c0:	0b3b0b3a 	bleq	ec2eb0 <__bss_end__+0xeb8d58>
     1c4:	00001301 	andeq	r1, r0, r1, lsl #6
     1c8:	03000d0d 	movweq	r0, #3341	; 0xd0d
     1cc:	3b0b3a0e 	blcc	2cea0c <__bss_end__+0x2c48b4>
     1d0:	3813490b 	ldmdacc	r3, {r0, r1, r3, r8, fp, lr}
     1d4:	0e00000b 	cdpeq	0, 0, cr0, cr0, cr11, {0}
     1d8:	0e030113 	mcreq	1, 0, r0, cr3, cr3, {0}
     1dc:	0b3a0b0b 	bleq	e82e10 <__bss_end__+0xe78cb8>
     1e0:	13010b3b 	movwne	r0, #6971	; 0x1b3b
     1e4:	2e0f0000 	cdpcs	0, 0, cr0, cr15, cr0, {0}
     1e8:	3a0e0301 	bcc	380df4 <__bss_end__+0x376c9c>
     1ec:	270b3b0b 	strcs	r3, [fp, -fp, lsl #22]
     1f0:	11134919 	tstne	r3, r9, lsl r9
     1f4:	40061201 	andmi	r1, r6, r1, lsl #4
     1f8:	19429718 	stmdbne	r2, {r3, r4, r8, r9, sl, ip, pc}^
     1fc:	00001301 	andeq	r1, r0, r1, lsl #6
     200:	03000510 	movweq	r0, #1296	; 0x510
     204:	3b0b3a08 	blcc	2cea2c <__bss_end__+0x2c48d4>
     208:	0213490b 	andseq	r4, r3, #180224	; 0x2c000
     20c:	11000017 	tstne	r0, r7, lsl r0
     210:	01018289 	smlabbeq	r1, r9, r2, r8
     214:	13310111 	teqne	r1, #1073741828	; 0x40000004
     218:	8a120000 	bhi	480220 <__bss_end__+0x4760c8>
     21c:	02000182 	andeq	r0, r0, #-2147483616	; 0x80000020
     220:	18429118 	stmdane	r2, {r3, r4, r8, ip, pc}^
     224:	05130000 	ldreq	r0, [r3, #-0]
     228:	3a0e0300 	bcc	380e30 <__bss_end__+0x376cd8>
     22c:	490b3b0b 	stmdbmi	fp, {r0, r1, r3, r8, r9, fp, ip, sp}
     230:	00170213 	andseq	r0, r7, r3, lsl r2
     234:	012e1400 	teqeq	lr, r0, lsl #8
     238:	0b3a0e03 	bleq	e83a4c <__bss_end__+0xe798f4>
     23c:	19270b3b 	stmdbne	r7!, {r0, r1, r3, r4, r5, r8, r9, fp}
     240:	13010b20 	movwne	r0, #6944	; 0x1b20
     244:	05150000 	ldreq	r0, [r5, #-0]
     248:	3a080300 	bcc	200e50 <__bss_end__+0x1f6cf8>
     24c:	490b3b0b 	stmdbmi	fp, {r0, r1, r3, r8, r9, fp, ip, sp}
     250:	16000013 			; <UNDEFINED> instruction: 0x16000013
     254:	08030034 	stmdaeq	r3, {r2, r4, r5}
     258:	0b3b0b3a 	bleq	ec2f48 <__bss_end__+0xeb8df0>
     25c:	00001349 	andeq	r1, r0, r9, asr #6
     260:	03003417 	movweq	r3, #1047	; 0x417
     264:	3b0b3a08 	blcc	2cea8c <__bss_end__+0x2c4934>
     268:	0213490b 	andseq	r4, r3, #180224	; 0x2c000
     26c:	18000017 	stmdane	r0, {r0, r1, r2, r4}
     270:	1755010b 	ldrbne	r0, [r5, -fp, lsl #2]
     274:	34190000 	ldrcc	r0, [r9], #-0
     278:	3a0e0300 	bcc	380e80 <__bss_end__+0x376d28>
     27c:	490b3b0b 	stmdbmi	fp, {r0, r1, r3, r8, r9, fp, ip, sp}
     280:	00170213 	andseq	r0, r7, r3, lsl r2
     284:	011d1a00 	tsteq	sp, r0, lsl #20
     288:	01111331 	tsteq	r1, r1, lsr r3
     28c:	0b580612 	bleq	1601adc <__bss_end__+0x15f7984>
     290:	13010b59 	movwne	r0, #7001	; 0x1b59
     294:	051b0000 	ldreq	r0, [fp, #-0]
     298:	02133100 	andseq	r3, r3, #0, 2
     29c:	1c000017 	stcne	0, cr0, [r0], {23}
     2a0:	0111010b 	tsteq	r1, fp, lsl #2
     2a4:	00000612 	andeq	r0, r0, r2, lsl r6
     2a8:	3100341d 	tstcc	r0, sp, lsl r4
     2ac:	00170213 	andseq	r0, r7, r3, lsl r2
     2b0:	82891e00 	addhi	r1, r9, #0, 28
     2b4:	01110101 	tsteq	r1, r1, lsl #2
     2b8:	13011331 	movwne	r1, #4913	; 0x1331
     2bc:	2e1f0000 	cdpcs	0, 1, cr0, cr15, cr0, {0}
     2c0:	3a0e0301 	bcc	380ecc <__bss_end__+0x376d74>
     2c4:	270b3b0b 	strcs	r3, [fp, -fp, lsl #22]
     2c8:	12011119 	andne	r1, r1, #1073741830	; 0x40000006
     2cc:	97184006 	ldrls	r4, [r8, -r6]
     2d0:	13011942 	movwne	r1, #6466	; 0x1942
     2d4:	34200000 	strtcc	r0, [r0], #-0
     2d8:	3a080300 	bcc	200ee0 <__bss_end__+0x1f6d88>
     2dc:	490b3b0b 	stmdbmi	fp, {r0, r1, r3, r8, r9, fp, ip, sp}
     2e0:	00180213 	andseq	r0, r8, r3, lsl r2
     2e4:	00342100 	eorseq	r2, r4, r0, lsl #2
     2e8:	0b3a0e03 	bleq	e83afc <__bss_end__+0xe799a4>
     2ec:	13490b3b 	movtne	r0, #39739	; 0x9b3b
     2f0:	00001802 	andeq	r1, r0, r2, lsl #16
     2f4:	03003422 	movweq	r3, #1058	; 0x422
     2f8:	3413490e 	ldrcc	r4, [r3], #-2318	; 0x90e
     2fc:	00180219 	andseq	r0, r8, r9, lsl r2
     300:	82892300 	addhi	r2, r9, #0, 6
     304:	01110001 	tsteq	r1, r1
     308:	00001331 	andeq	r1, r0, r1, lsr r3
     30c:	3f012e24 	svccc	0x00012e24
     310:	3a0e0319 	bcc	380f7c <__bss_end__+0x376e24>
     314:	270b3b0b 	strcs	r3, [fp, -fp, lsl #22]
     318:	12011119 	andne	r1, r1, #1073741830	; 0x40000006
     31c:	97184006 	ldrls	r4, [r8, -r6]
     320:	13011942 	movwne	r1, #6466	; 0x1942
     324:	2e250000 	cdpcs	0, 2, cr0, cr5, cr0, {0}
     328:	03193f01 	tsteq	r9, #1, 30
     32c:	3b0b3a0e 	blcc	2ceb6c <__bss_end__+0x2c4a14>
     330:	4919270b 	ldmdbmi	r9, {r0, r1, r3, r8, r9, sl, sp}
     334:	12011113 	andne	r1, r1, #-1073741820	; 0xc0000004
     338:	97184006 	ldrls	r4, [r8, -r6]
     33c:	13011942 	movwne	r1, #6466	; 0x1942
     340:	0b260000 	bleq	980348 <__bss_end__+0x9761f0>
     344:	01175501 	tsteq	r7, r1, lsl #10
     348:	27000013 	smladcs	r0, r3, r0, r0
     34c:	193f012e 	ldmdbne	pc!, {r1, r2, r3, r5, r8}	; <UNPREDICTABLE>
     350:	0b3a0e03 	bleq	e83b64 <__bss_end__+0xe79a0c>
     354:	19270b3b 	stmdbne	r7!, {r0, r1, r3, r4, r5, r8, r9, fp}
     358:	193c1349 	ldmdbne	ip!, {r0, r3, r6, r8, r9, ip}
     35c:	00001301 	andeq	r1, r0, r1, lsl #6
     360:	49000528 	stmdbmi	r0, {r3, r5, r8, sl}
     364:	29000013 	stmdbcs	r0, {r0, r1, r4}
     368:	00000018 	andeq	r0, r0, r8, lsl r0
     36c:	0000262a 	andeq	r2, r0, sl, lsr #12
     370:	002e2b00 	eoreq	r2, lr, r0, lsl #22
     374:	0e03193f 	mcreq	9, 0, r1, cr3, cr15, {1}
     378:	0b3b0b3a 	bleq	ec3068 <__bss_end__+0xeb8f10>
     37c:	193c1927 	ldmdbne	ip!, {r0, r1, r2, r5, r8, fp, ip}
     380:	01000000 	mrseq	r0, (UNDEF: 0)
     384:	0e250111 	mcreq	1, 1, r0, cr5, cr1, {0}
     388:	0e030b13 	vmoveq.32	d3[0], r0
     38c:	01110e1b 	tsteq	r1, fp, lsl lr
     390:	17100612 			; <UNDEFINED> instruction: 0x17100612
     394:	24020000 	strcs	r0, [r2], #-0
     398:	3e0b0b00 	vmlacc.f64	d0, d11, d0
     39c:	0008030b 	andeq	r0, r8, fp, lsl #6
     3a0:	00240300 	eoreq	r0, r4, r0, lsl #6
     3a4:	0b3e0b0b 	bleq	f82fd8 <__bss_end__+0xf78e80>
     3a8:	00000e03 	andeq	r0, r0, r3, lsl #28
     3ac:	03001604 	movweq	r1, #1540	; 0x604
     3b0:	3b0b3a0e 	blcc	2cebf0 <__bss_end__+0x2c4a98>
     3b4:	0013490b 	andseq	r4, r3, fp, lsl #18
     3b8:	000f0500 	andeq	r0, pc, r0, lsl #10
     3bc:	13490b0b 	movtne	r0, #39691	; 0x9b0b
     3c0:	26060000 	strcs	r0, [r6], -r0
     3c4:	00134900 	andseq	r4, r3, r0, lsl #18
     3c8:	012e0700 	teqeq	lr, r0, lsl #14
     3cc:	0e03193f 	mcreq	9, 0, r1, cr3, cr15, {1}
     3d0:	0b3b0b3a 	bleq	ec30c0 <__bss_end__+0xeb8f68>
     3d4:	13491927 	movtne	r1, #39207	; 0x9927
     3d8:	06120111 			; <UNDEFINED> instruction: 0x06120111
     3dc:	42971840 	addsmi	r1, r7, #64, 16	; 0x400000
     3e0:	00130119 	andseq	r0, r3, r9, lsl r1
     3e4:	00050800 	andeq	r0, r5, r0, lsl #16
     3e8:	0b3a0e03 	bleq	e83bfc <__bss_end__+0xe79aa4>
     3ec:	13490b3b 	movtne	r0, #39739	; 0x9b3b
     3f0:	00001702 	andeq	r1, r0, r2, lsl #14
     3f4:	03000509 	movweq	r0, #1289	; 0x509
     3f8:	3b0b3a08 	blcc	2cec20 <__bss_end__+0x2c4ac8>
     3fc:	0213490b 	andseq	r4, r3, #180224	; 0x2c000
     400:	0a000017 	beq	464 <_start-0x7b9c>
     404:	0e030034 	mcreq	0, 0, r0, cr3, cr4, {1}
     408:	0b3b0b3a 	bleq	ec30f8 <__bss_end__+0xeb8fa0>
     40c:	17021349 	strne	r1, [r2, -r9, asr #6]
     410:	340b0000 	strcc	r0, [fp], #-0
     414:	3a080300 	bcc	20101c <__bss_end__+0x1f6ec4>
     418:	490b3b0b 	stmdbmi	fp, {r0, r1, r3, r8, r9, fp, ip, sp}
     41c:	00170213 	andseq	r0, r7, r3, lsl r2
     420:	00260c00 	eoreq	r0, r6, r0, lsl #24
     424:	01000000 	mrseq	r0, (UNDEF: 0)
     428:	0e250111 	mcreq	1, 1, r0, cr5, cr1, {0}
     42c:	0e030b13 	vmoveq.32	d3[0], r0
     430:	01110e1b 	tsteq	r1, fp, lsl lr
     434:	17100612 			; <UNDEFINED> instruction: 0x17100612
     438:	24020000 	strcs	r0, [r2], #-0
     43c:	3e0b0b00 	vmlacc.f64	d0, d11, d0
     440:	000e030b 	andeq	r0, lr, fp, lsl #6
     444:	00240300 	eoreq	r0, r4, r0, lsl #6
     448:	0b3e0b0b 	bleq	f8307c <__bss_end__+0xf78f24>
     44c:	00000803 	andeq	r0, r0, r3, lsl #16
     450:	0b000f04 	bleq	4068 <_start-0x3f98>
     454:	0500000b 	streq	r0, [r0, #-11]
     458:	0b0b000f 	bleq	2c049c <__bss_end__+0x2b6344>
     45c:	00001349 	andeq	r1, r0, r9, asr #6
     460:	03001606 	movweq	r1, #1542	; 0x606
     464:	3b0b3a0e 	blcc	2ceca4 <__bss_end__+0x2c4b4c>
     468:	0013490b 	andseq	r4, r3, fp, lsl #18
     46c:	012e0700 	teqeq	lr, r0, lsl #14
     470:	0e03193f 	mcreq	9, 0, r1, cr3, cr15, {1}
     474:	0b3b0b3a 	bleq	ec3164 <__bss_end__+0xeb900c>
     478:	13491927 	movtne	r1, #39207	; 0x9927
     47c:	06120111 			; <UNDEFINED> instruction: 0x06120111
     480:	42971840 	addsmi	r1, r7, #64, 16	; 0x400000
     484:	08000019 	stmdaeq	r0, {r0, r3, r4}
     488:	08030005 	stmdaeq	r3, {r0, r2}
     48c:	0b3b0b3a 	bleq	ec317c <__bss_end__+0xeb9024>
     490:	18021349 	stmdane	r2, {r0, r3, r6, r8, r9, ip}
     494:	05090000 	streq	r0, [r9, #-0]
     498:	3a080300 	bcc	2010a0 <__bss_end__+0x1f6f48>
     49c:	490b3b0b 	stmdbmi	fp, {r0, r1, r3, r8, r9, fp, ip, sp}
     4a0:	00170213 	andseq	r0, r7, r3, lsl r2
     4a4:	00340a00 	eorseq	r0, r4, r0, lsl #20
     4a8:	0b3a0803 	bleq	e824bc <__bss_end__+0xe78364>
     4ac:	13490b3b 	movtne	r0, #39739	; 0x9b3b
     4b0:	00001702 	andeq	r1, r0, r2, lsl #14
     4b4:	0300340b 	movweq	r3, #1035	; 0x40b
     4b8:	3b0b3a08 	blcc	2cece0 <__bss_end__+0x2c4b88>
     4bc:	0213490b 	andseq	r4, r3, #180224	; 0x2c000
     4c0:	00000018 	andeq	r0, r0, r8, lsl r0
     4c4:	25011101 	strcs	r1, [r1, #-257]	; 0x101
     4c8:	030b130e 	movweq	r1, #45838	; 0xb30e
     4cc:	110e1b0e 	tstne	lr, lr, lsl #22
     4d0:	10061201 	andne	r1, r6, r1, lsl #4
     4d4:	02000017 	andeq	r0, r0, #23
     4d8:	0e030016 	mcreq	0, 0, r0, cr3, cr6, {0}
     4dc:	0b3b0b3a 	bleq	ec31cc <__bss_end__+0xeb9074>
     4e0:	00001349 	andeq	r1, r0, r9, asr #6
     4e4:	03011303 	movweq	r1, #4867	; 0x1303
     4e8:	3a0b0b0e 	bcc	2c3128 <__bss_end__+0x2b8fd0>
     4ec:	010b3b0b 	tsteq	fp, fp, lsl #22
     4f0:	04000013 	streq	r0, [r0], #-19
     4f4:	0e03000d 	cdpeq	0, 0, cr0, cr3, cr13, {0}
     4f8:	0b381349 	bleq	e05224 <__bss_end__+0xdfb0cc>
     4fc:	00001934 	andeq	r1, r0, r4, lsr r9
     500:	0b000f05 	bleq	411c <_start-0x3ee4>
     504:	0600000b 	streq	r0, [r0], -fp
     508:	0b0b0024 	bleq	2c05a0 <__bss_end__+0x2b6448>
     50c:	08030b3e 	stmdaeq	r3, {r1, r2, r3, r4, r5, r8, r9, fp}
     510:	24070000 	strcs	r0, [r7], #-0
     514:	3e0b0b00 	vmlacc.f64	d0, d11, d0
     518:	000e030b 	andeq	r0, lr, fp, lsl #6
     51c:	000f0800 	andeq	r0, pc, r0, lsl #16
     520:	13490b0b 	movtne	r0, #39691	; 0x9b0b
     524:	26090000 	strcs	r0, [r9], -r0
     528:	00134900 	andseq	r4, r3, r0, lsl #18
     52c:	012e0a00 	teqeq	lr, r0, lsl #20
     530:	0e03193f 	mcreq	9, 0, r1, cr3, cr15, {1}
     534:	0b3b0b3a 	bleq	ec3224 <__bss_end__+0xeb90cc>
     538:	13491927 	movtne	r1, #39207	; 0x9927
     53c:	06120111 			; <UNDEFINED> instruction: 0x06120111
     540:	42971840 	addsmi	r1, r7, #64, 16	; 0x400000
     544:	00130119 	andseq	r0, r3, r9, lsl r1
     548:	00050b00 	andeq	r0, r5, r0, lsl #22
     54c:	0b3a0803 	bleq	e82560 <__bss_end__+0xe78408>
     550:	13490b3b 	movtne	r0, #39739	; 0x9b3b
     554:	00001802 	andeq	r1, r0, r2, lsl #16
     558:	0000180c 	andeq	r1, r0, ip, lsl #16
     55c:	00340d00 	eorseq	r0, r4, r0, lsl #26
     560:	0b3a0803 	bleq	e82574 <__bss_end__+0xe7841c>
     564:	13490b3b 	movtne	r0, #39739	; 0x9b3b
     568:	00001802 	andeq	r1, r0, r2, lsl #16
     56c:	0300340e 	movweq	r3, #1038	; 0x40e
     570:	3b0b3a0e 	blcc	2cedb0 <__bss_end__+0x2c4c58>
     574:	0213490b 	andseq	r4, r3, #180224	; 0x2c000
     578:	0f000018 	svceq	0x00000018
     57c:	08030034 	stmdaeq	r3, {r2, r4, r5}
     580:	0b3b0b3a 	bleq	ec3270 <__bss_end__+0xeb9118>
     584:	17021349 	strne	r1, [r2, -r9, asr #6]
     588:	89100000 	ldmdbhi	r0, {}	; <UNPREDICTABLE>
     58c:	11010182 	smlabbne	r1, r2, r1, r0
     590:	01133101 	tsteq	r3, r1, lsl #2
     594:	11000013 	tstne	r0, r3, lsl r0
     598:	0001828a 	andeq	r8, r1, sl, lsl #5
     59c:	42911802 	addsmi	r1, r1, #131072	; 0x20000
     5a0:	12000018 	andne	r0, r0, #24
     5a4:	01018289 	smlabbeq	r1, r9, r2, r8
     5a8:	00000111 	andeq	r0, r0, r1, lsl r1
     5ac:	49010113 	stmdbmi	r1, {r0, r1, r4, r8}
     5b0:	00130113 	andseq	r0, r3, r3, lsl r1
     5b4:	00211400 	eoreq	r1, r1, r0, lsl #8
     5b8:	052f1349 	streq	r1, [pc, #-841]!	; 277 <_start-0x7d89>
     5bc:	15150000 	ldrne	r0, [r5, #-0]
     5c0:	49192701 	ldmdbmi	r9, {r0, r8, r9, sl, sp}
     5c4:	00130113 	andseq	r0, r3, r3, lsl r1
     5c8:	00051600 	andeq	r1, r5, r0, lsl #12
     5cc:	00001349 	andeq	r1, r0, r9, asr #6
     5d0:	03003417 	movweq	r3, #1047	; 0x417
     5d4:	3b0b3a0e 	blcc	2cee14 <__bss_end__+0x2c4cbc>
     5d8:	3f13490b 	svccc	0x0013490b
     5dc:	00193c19 	andseq	r3, r9, r9, lsl ip
     5e0:	012e1800 	teqeq	lr, r0, lsl #16
     5e4:	0e03193f 	mcreq	9, 0, r1, cr3, cr15, {1}
     5e8:	0b3b0b3a 	bleq	ec32d8 <__bss_end__+0xeb9180>
     5ec:	13491927 	movtne	r1, #39207	; 0x9927
     5f0:	0000193c 	andeq	r1, r0, ip, lsr r9
     5f4:	01110100 	tsteq	r1, r0, lsl #2
     5f8:	0b130e25 	bleq	4c3e94 <__bss_end__+0x4b9d3c>
     5fc:	0e1b0e03 	cdpeq	14, 1, cr0, cr11, cr3, {0}
     600:	06120111 			; <UNDEFINED> instruction: 0x06120111
     604:	00001710 	andeq	r1, r0, r0, lsl r7
     608:	0b002402 	bleq	9618 <kmalloc_aligned+0x84>
     60c:	030b3e0b 	movweq	r3, #48651	; 0xbe0b
     610:	03000008 	movweq	r0, #8
     614:	0b0b0024 	bleq	2c06ac <__bss_end__+0x2b6554>
     618:	0e030b3e 	vmoveq.16	d3[0], r0
     61c:	2e040000 	cdpcs	0, 0, cr0, cr4, cr0, {0}
     620:	3a0e0301 	bcc	38122c <__bss_end__+0x3770d4>
     624:	270b3b0b 	strcs	r3, [fp, -fp, lsl #22]
     628:	11134919 	tstne	r3, r9, lsl r9
     62c:	40061201 	andmi	r1, r6, r1, lsl #4
     630:	19429718 	stmdbne	r2, {r3, r4, r8, r9, sl, ip, pc}^
     634:	00001301 	andeq	r1, r0, r1, lsl #6
     638:	03000505 	movweq	r0, #1285	; 0x505
     63c:	3b0b3a08 	blcc	2cee64 <__bss_end__+0x2c4d0c>
     640:	0213490b 	andseq	r4, r3, #180224	; 0x2c000
     644:	06000017 			; <UNDEFINED> instruction: 0x06000017
     648:	01018289 	smlabbeq	r1, r9, r2, r8
     64c:	13310111 	teqne	r1, #1073741828	; 0x40000004
     650:	8a070000 	bhi	1c0658 <__bss_end__+0x1b6500>
     654:	02000182 	andeq	r0, r0, #-2147483616	; 0x80000020
     658:	18429118 	stmdane	r2, {r3, r4, r8, ip, pc}^
     65c:	2e080000 	cdpcs	0, 0, cr0, cr8, cr0, {0}
     660:	03193f00 	tsteq	r9, #0, 30
     664:	3b0b3a0e 	blcc	2ceea4 <__bss_end__+0x2c4d4c>
     668:	1119270b 	tstne	r9, fp, lsl #14
     66c:	40061201 	andmi	r1, r6, r1, lsl #4
     670:	19429718 	stmdbne	r2, {r3, r4, r8, r9, sl, ip, pc}^
     674:	2e090000 	cdpcs	0, 0, cr0, cr9, cr0, {0}
     678:	03193f01 	tsteq	r9, #1, 30
     67c:	3b0b3a0e 	blcc	2ceebc <__bss_end__+0x2c4d64>
     680:	1119270b 	tstne	r9, fp, lsl #14
     684:	40061201 	andmi	r1, r6, r1, lsl #4
     688:	19429718 	stmdbne	r2, {r3, r4, r8, r9, sl, ip, pc}^
     68c:	00001301 	andeq	r1, r0, r1, lsl #6
     690:	0300050a 	movweq	r0, #1290	; 0x50a
     694:	3b0b3a08 	blcc	2ceebc <__bss_end__+0x2c4d64>
     698:	0213490b 	andseq	r4, r3, #180224	; 0x2c000
     69c:	0b000018 	bleq	704 <_start-0x78fc>
     6a0:	19270115 	stmdbne	r7!, {r0, r2, r4, r8}
     6a4:	13011349 	movwne	r1, #4937	; 0x1349
     6a8:	050c0000 	streq	r0, [ip, #-0]
     6ac:	00134900 	andseq	r4, r3, r0, lsl #18
     6b0:	000f0d00 	andeq	r0, pc, r0, lsl #26
     6b4:	13490b0b 	movtne	r0, #39691	; 0x9b0b
     6b8:	340e0000 	strcc	r0, [lr], #-0
     6bc:	3a0e0300 	bcc	3812c4 <__bss_end__+0x37716c>
     6c0:	490b3b0b 	stmdbmi	fp, {r0, r1, r3, r8, r9, fp, ip, sp}
     6c4:	02193f13 	andseq	r3, r9, #19, 30	; 0x4c
     6c8:	0f000018 	svceq	0x00000018
     6cc:	193f012e 	ldmdbne	pc!, {r1, r2, r3, r5, r8}	; <UNPREDICTABLE>
     6d0:	0b3a0e03 	bleq	e83ee4 <__bss_end__+0xe79d8c>
     6d4:	19270b3b 	stmdbne	r7!, {r0, r1, r3, r4, r5, r8, r9, fp}
     6d8:	0000193c 	andeq	r1, r0, ip, lsr r9
     6dc:	01110100 	tsteq	r1, r0, lsl #2
     6e0:	0b130e25 	bleq	4c3f7c <__bss_end__+0x4b9e24>
     6e4:	0e1b0e03 	cdpeq	14, 1, cr0, cr11, cr3, {0}
     6e8:	06120111 			; <UNDEFINED> instruction: 0x06120111
     6ec:	00001710 	andeq	r1, r0, r0, lsl r7
     6f0:	0b002402 	bleq	9700 <__FUNCTION__.4229+0x8c>
     6f4:	030b3e0b 	movweq	r3, #48651	; 0xbe0b
     6f8:	03000008 	movweq	r0, #8
     6fc:	0b0b0024 	bleq	2c0794 <__bss_end__+0x2b663c>
     700:	0e030b3e 	vmoveq.16	d3[0], r0
     704:	0f040000 	svceq	0x00040000
     708:	490b0b00 	stmdbmi	fp, {r8, r9, fp}
     70c:	05000013 	streq	r0, [r0, #-19]
     710:	13490026 	movtne	r0, #36902	; 0x9026
     714:	2e060000 	cdpcs	0, 0, cr0, cr6, cr0, {0}
     718:	03193f01 	tsteq	r9, #1, 30
     71c:	3b0b3a0e 	blcc	2cef5c <__bss_end__+0x2c4e04>
     720:	4919270b 	ldmdbmi	r9, {r0, r1, r3, r8, r9, sl, sp}
     724:	12011113 	andne	r1, r1, #-1073741820	; 0xc0000004
     728:	96184006 	ldrls	r4, [r8], -r6
     72c:	13011942 	movwne	r1, #6466	; 0x1942
     730:	05070000 	streq	r0, [r7, #-0]
     734:	3a080300 	bcc	20133c <__bss_end__+0x1f71e4>
     738:	490b3b0b 	stmdbmi	fp, {r0, r1, r3, r8, r9, fp, ip, sp}
     73c:	00170213 	andseq	r0, r7, r3, lsl r2
     740:	01150800 	tsteq	r5, r0, lsl #16
     744:	13491927 	movtne	r1, #39207	; 0x9927
     748:	00001301 	andeq	r1, r0, r1, lsl #6
     74c:	49000509 	stmdbmi	r0, {r0, r3, r8, sl}
     750:	0a000013 	beq	7a4 <_start-0x785c>
     754:	0e030034 	mcreq	0, 0, r0, cr3, cr4, {1}
     758:	0b3b0b3a 	bleq	ec3448 <__bss_end__+0xeb92f0>
     75c:	193f1349 	ldmdbne	pc!, {r0, r3, r6, r8, r9, ip}	; <UNPREDICTABLE>
     760:	0000193c 	andeq	r1, r0, ip, lsr r9
     764:	0300340b 	movweq	r3, #1035	; 0x40b
     768:	3b0b3a0e 	blcc	2cefa8 <__bss_end__+0x2c4e50>
     76c:	3f13490b 	svccc	0x0013490b
     770:	00180219 	andseq	r0, r8, r9, lsl r2
     774:	11010000 	mrsne	r0, (UNDEF: 1)
     778:	130e2501 	movwne	r2, #58625	; 0xe501
     77c:	1b0e030b 	blne	3813b0 <__bss_end__+0x377258>
     780:	1201110e 	andne	r1, r1, #-2147483645	; 0x80000003
     784:	00171006 	andseq	r1, r7, r6
     788:	00240200 	eoreq	r0, r4, r0, lsl #4
     78c:	0b3e0b0b 	bleq	f833c0 <__bss_end__+0xf79268>
     790:	00000803 	andeq	r0, r0, r3, lsl #16
     794:	0b002403 	bleq	97a8 <__FUNCTION__.4287+0x44>
     798:	030b3e0b 	movweq	r3, #48651	; 0xbe0b
     79c:	0400000e 	streq	r0, [r0], #-14
     7a0:	193f002e 	ldmdbne	pc!, {r1, r2, r3, r5}	; <UNPREDICTABLE>
     7a4:	0b3a0e03 	bleq	e83fb8 <__bss_end__+0xe79e60>
     7a8:	19270b3b 	stmdbne	r7!, {r0, r1, r3, r4, r5, r8, r9, fp}
     7ac:	01111349 	tsteq	r1, r9, asr #6
     7b0:	18400612 	stmdane	r0, {r1, r4, r9, sl}^
     7b4:	00194297 	mulseq	r9, r7, r2
     7b8:	012e0500 	teqeq	lr, r0, lsl #10
     7bc:	0e03193f 	mcreq	9, 0, r1, cr3, cr15, {1}
     7c0:	0b3b0b3a 	bleq	ec34b0 <__bss_end__+0xeb9358>
     7c4:	13491927 	movtne	r1, #39207	; 0x9927
     7c8:	06120111 			; <UNDEFINED> instruction: 0x06120111
     7cc:	42971840 	addsmi	r1, r7, #64, 16	; 0x400000
     7d0:	00130119 	andseq	r0, r3, r9, lsl r1
     7d4:	82890600 	addhi	r0, r9, #0, 12
     7d8:	01110001 	tsteq	r1, r1
     7dc:	00001331 	andeq	r1, r0, r1, lsr r3
     7e0:	3f012e07 	svccc	0x00012e07
     7e4:	3a0e0319 	bcc	381450 <__bss_end__+0x3772f8>
     7e8:	270b3b0b 	strcs	r3, [fp, -fp, lsl #22]
     7ec:	12011119 	andne	r1, r1, #1073741830	; 0x40000006
     7f0:	97184006 	ldrls	r4, [r8, -r6]
     7f4:	13011942 	movwne	r1, #6466	; 0x1942
     7f8:	05080000 	streq	r0, [r8, #-0]
     7fc:	3a0e0300 	bcc	381404 <__bss_end__+0x3772ac>
     800:	490b3b0b 	stmdbmi	fp, {r0, r1, r3, r8, r9, fp, ip, sp}
     804:	00180213 	andseq	r0, r8, r3, lsl r2
     808:	00340900 	eorseq	r0, r4, r0, lsl #18
     80c:	0b3a0e03 	bleq	e84020 <__bss_end__+0xe79ec8>
     810:	13490b3b 	movtne	r0, #39739	; 0x9b3b
     814:	00001802 	andeq	r1, r0, r2, lsl #16
     818:	0300340a 	movweq	r3, #1034	; 0x40a
     81c:	3b0b3a08 	blcc	2cf044 <__bss_end__+0x2c4eec>
     820:	0213490b 	andseq	r4, r3, #180224	; 0x2c000
     824:	00000018 	andeq	r0, r0, r8, lsl r0
     828:	25011101 	strcs	r1, [r1, #-257]	; 0x101
     82c:	030b130e 	movweq	r1, #45838	; 0xb30e
     830:	110e1b0e 	tstne	lr, lr, lsl #22
     834:	10061201 	andne	r1, r6, r1, lsl #4
     838:	02000017 	andeq	r0, r0, #23
     83c:	0b0b0024 	bleq	2c08d4 <__bss_end__+0x2b677c>
     840:	08030b3e 	stmdaeq	r3, {r1, r2, r3, r4, r5, r8, r9, fp}
     844:	24030000 	strcs	r0, [r3], #-0
     848:	3e0b0b00 	vmlacc.f64	d0, d11, d0
     84c:	000e030b 	andeq	r0, lr, fp, lsl #6
     850:	000f0400 	andeq	r0, pc, r0, lsl #8
     854:	00000b0b 	andeq	r0, r0, fp, lsl #22
     858:	0b000f05 	bleq	4474 <_start-0x3b8c>
     85c:	0013490b 	andseq	r4, r3, fp, lsl #18
     860:	00260600 	eoreq	r0, r6, r0, lsl #12
     864:	00001349 	andeq	r1, r0, r9, asr #6
     868:	03001607 	movweq	r1, #1543	; 0x607
     86c:	3b0b3a0e 	blcc	2cf0ac <__bss_end__+0x2c4f54>
     870:	0013490b 	andseq	r4, r3, fp, lsl #18
     874:	01130800 	tsteq	r3, r0, lsl #16
     878:	0b0b0e03 	bleq	2c408c <__bss_end__+0x2b9f34>
     87c:	0b3b0b3a 	bleq	ec356c <__bss_end__+0xeb9414>
     880:	00001301 	andeq	r1, r0, r1, lsl #6
     884:	03000d09 	movweq	r0, #3337	; 0xd09
     888:	3813490e 	ldmdacc	r3, {r1, r2, r3, r8, fp, lr}
     88c:	0019340b 	andseq	r3, r9, fp, lsl #8
     890:	012e0a00 	teqeq	lr, r0, lsl #20
     894:	0b3a0e03 	bleq	e840a8 <__bss_end__+0xe79f50>
     898:	19270b3b 	stmdbne	r7!, {r0, r1, r3, r4, r5, r8, r9, fp}
     89c:	01111349 	tsteq	r1, r9, asr #6
     8a0:	18400612 	stmdane	r0, {r1, r4, r9, sl}^
     8a4:	01194297 			; <UNDEFINED> instruction: 0x01194297
     8a8:	0b000013 	bleq	8fc <_start-0x7704>
     8ac:	08030005 	stmdaeq	r3, {r0, r2}
     8b0:	0b3b0b3a 	bleq	ec35a0 <__bss_end__+0xeb9448>
     8b4:	17021349 	strne	r1, [r2, -r9, asr #6]
     8b8:	2e0c0000 	cdpcs	0, 0, cr0, cr12, cr0, {0}
     8bc:	3a080301 	bcc	2014c8 <__bss_end__+0x1f7370>
     8c0:	270b3b0b 	strcs	r3, [fp, -fp, lsl #22]
     8c4:	11134919 	tstne	r3, r9, lsl r9
     8c8:	40061201 	andmi	r1, r6, r1, lsl #4
     8cc:	19429718 	stmdbne	r2, {r3, r4, r8, r9, sl, ip, pc}^
     8d0:	00001301 	andeq	r1, r0, r1, lsl #6
     8d4:	0300050d 	movweq	r0, #1293	; 0x50d
     8d8:	3b0b3a0e 	blcc	2cf118 <__bss_end__+0x2c4fc0>
     8dc:	0213490b 	andseq	r4, r3, #180224	; 0x2c000
     8e0:	0e000017 	mcreq	0, 0, r0, cr0, cr7, {0}
     8e4:	0e030005 	cdpeq	0, 0, cr0, cr3, cr5, {0}
     8e8:	0b3b0b3a 	bleq	ec35d8 <__bss_end__+0xeb9480>
     8ec:	18021349 	stmdane	r2, {r0, r3, r6, r8, r9, ip}
     8f0:	340f0000 	strcc	r0, [pc], #-0	; 8f8 <_start-0x7708>
     8f4:	3a080300 	bcc	2014fc <__bss_end__+0x1f73a4>
     8f8:	490b3b0b 	stmdbmi	fp, {r0, r1, r3, r8, r9, fp, ip, sp}
     8fc:	00180213 	andseq	r0, r8, r3, lsl r2
     900:	00341000 	eorseq	r1, r4, r0
     904:	0b3a0803 	bleq	e82918 <__bss_end__+0xe787c0>
     908:	13490b3b 	movtne	r0, #39739	; 0x9b3b
     90c:	00001702 	andeq	r1, r0, r2, lsl #14
     910:	03003411 	movweq	r3, #1041	; 0x411
     914:	3413490e 	ldrcc	r4, [r3], #-2318	; 0x90e
     918:	00180219 	andseq	r0, r8, r9, lsl r2
     91c:	010b1200 	mrseq	r1, R11_fiq
     920:	06120111 			; <UNDEFINED> instruction: 0x06120111
     924:	00001301 	andeq	r1, r0, r1, lsl #6
     928:	03003413 	movweq	r3, #1043	; 0x413
     92c:	3b0b3a0e 	blcc	2cf16c <__bss_end__+0x2c5014>
     930:	0213490b 	andseq	r4, r3, #180224	; 0x2c000
     934:	14000017 	strne	r0, [r0], #-23
     938:	00018289 	andeq	r8, r1, r9, lsl #5
     93c:	13310111 	teqne	r1, #1073741828	; 0x40000004
     940:	89150000 	ldmdbhi	r5, {}	; <UNPREDICTABLE>
     944:	11010182 	smlabbne	r1, r2, r1, r0
     948:	01133101 	tsteq	r3, r1, lsl #2
     94c:	16000013 			; <UNDEFINED> instruction: 0x16000013
     950:	0001828a 	andeq	r8, r1, sl, lsl #5
     954:	42911802 	addsmi	r1, r1, #131072	; 0x20000
     958:	17000018 	smladne	r0, r8, r0, r0
     95c:	01018289 	smlabbeq	r1, r9, r2, r8
     960:	13310111 	teqne	r1, #1073741828	; 0x40000004
     964:	01180000 	tsteq	r8, r0
     968:	01134901 	tsteq	r3, r1, lsl #18
     96c:	19000013 	stmdbne	r0, {r0, r1, r4}
     970:	13490021 	movtne	r0, #36897	; 0x9021
     974:	00000b2f 	andeq	r0, r0, pc, lsr #22
     978:	3f012e1a 	svccc	0x00012e1a
     97c:	3a0e0319 	bcc	3815e8 <__bss_end__+0x377490>
     980:	270b3b0b 	strcs	r3, [fp, -fp, lsl #22]
     984:	12011119 	andne	r1, r1, #1073741830	; 0x40000006
     988:	97184006 	ldrls	r4, [r8, -r6]
     98c:	13011942 	movwne	r1, #6466	; 0x1942
     990:	151b0000 	ldrne	r0, [fp, #-0]
     994:	49192701 	ldmdbmi	r9, {r0, r8, r9, sl, sp}
     998:	00130113 	andseq	r0, r3, r3, lsl r1
     99c:	00051c00 	andeq	r1, r5, r0, lsl #24
     9a0:	00001349 	andeq	r1, r0, r9, asr #6
     9a4:	3f012e1d 	svccc	0x00012e1d
     9a8:	3a0e0319 	bcc	381614 <__bss_end__+0x3774bc>
     9ac:	270b3b0b 	strcs	r3, [fp, -fp, lsl #22]
     9b0:	11134919 	tstne	r3, r9, lsl r9
     9b4:	40061201 	andmi	r1, r6, r1, lsl #4
     9b8:	19429718 	stmdbne	r2, {r3, r4, r8, r9, sl, ip, pc}^
     9bc:	00001301 	andeq	r1, r0, r1, lsl #6
     9c0:	55010b1e 	strpl	r0, [r1, #-2846]	; 0xb1e
     9c4:	1f000017 	svcne	0x00000017
     9c8:	0e030034 	mcreq	0, 0, r0, cr3, cr4, {1}
     9cc:	0b3b0b3a 	bleq	ec36bc <__bss_end__+0xeb9564>
     9d0:	193f1349 	ldmdbne	pc!, {r0, r3, r6, r8, r9, ip}	; <UNPREDICTABLE>
     9d4:	0000193c 	andeq	r1, r0, ip, lsr r9
     9d8:	3f002e20 	svccc	0x00002e20
     9dc:	3a0e0319 	bcc	381648 <__bss_end__+0x3774f0>
     9e0:	270b3b0b 	strcs	r3, [fp, -fp, lsl #22]
     9e4:	00193c19 	andseq	r3, r9, r9, lsl ip
     9e8:	012e2100 	teqeq	lr, r0, lsl #2
     9ec:	0e03193f 	mcreq	9, 0, r1, cr3, cr15, {1}
     9f0:	0b3b0b3a 	bleq	ec36e0 <__bss_end__+0xeb9588>
     9f4:	13491927 	movtne	r1, #39207	; 0x9927
     9f8:	1301193c 	movwne	r1, #6460	; 0x193c
     9fc:	18220000 	stmdane	r2!, {}	; <UNPREDICTABLE>
     a00:	00000000 	andeq	r0, r0, r0
     a04:	25011101 	strcs	r1, [r1, #-257]	; 0x101
     a08:	030b130e 	movweq	r1, #45838	; 0xb30e
     a0c:	110e1b0e 	tstne	lr, lr, lsl #22
     a10:	10061201 	andne	r1, r6, r1, lsl #4
     a14:	02000017 	andeq	r0, r0, #23
     a18:	0b0b0024 	bleq	2c0ab0 <__bss_end__+0x2b6958>
     a1c:	08030b3e 	stmdaeq	r3, {r1, r2, r3, r4, r5, r8, r9, fp}
     a20:	24030000 	strcs	r0, [r3], #-0
     a24:	3e0b0b00 	vmlacc.f64	d0, d11, d0
     a28:	000e030b 	andeq	r0, lr, fp, lsl #6
     a2c:	000f0400 	andeq	r0, pc, r0, lsl #8
     a30:	13490b0b 	movtne	r0, #39691	; 0x9b0b
     a34:	26050000 	strcs	r0, [r5], -r0
     a38:	00134900 	andseq	r4, r3, r0, lsl #18
     a3c:	012e0600 	teqeq	lr, r0, lsl #12
     a40:	0e03193f 	mcreq	9, 0, r1, cr3, cr15, {1}
     a44:	0b3b0b3a 	bleq	ec3734 <__bss_end__+0xeb95dc>
     a48:	01111927 	tsteq	r1, r7, lsr #18
     a4c:	18400612 	stmdane	r0, {r1, r4, r9, sl}^
     a50:	01194297 			; <UNDEFINED> instruction: 0x01194297
     a54:	07000013 	smladeq	r0, r3, r0, r0
     a58:	01018289 	smlabbeq	r1, r9, r2, r8
     a5c:	13010111 	movwne	r0, #4369	; 0x1111
     a60:	8a080000 	bhi	200a68 <__bss_end__+0x1f6910>
     a64:	02000182 	andeq	r0, r0, #-2147483616	; 0x80000020
     a68:	18429118 	stmdane	r2, {r3, r4, r8, ip, pc}^
     a6c:	89090000 	stmdbhi	r9, {}	; <UNPREDICTABLE>
     a70:	11010182 	smlabbne	r1, r2, r1, r0
     a74:	01133101 	tsteq	r3, r1, lsl #2
     a78:	0a000013 	beq	acc <_start-0x7534>
     a7c:	00018289 	andeq	r8, r1, r9, lsl #5
     a80:	13310111 	teqne	r1, #1073741828	; 0x40000004
     a84:	150b0000 	strne	r0, [fp, #-0]
     a88:	49192701 	ldmdbmi	r9, {r0, r8, r9, sl, sp}
     a8c:	00130113 	andseq	r0, r3, r3, lsl r1
     a90:	00050c00 	andeq	r0, r5, r0, lsl #24
     a94:	00001349 	andeq	r1, r0, r9, asr #6
     a98:	0300340d 	movweq	r3, #1037	; 0x40d
     a9c:	3b0b3a0e 	blcc	2cf2dc <__bss_end__+0x2c5184>
     aa0:	3f13490b 	svccc	0x0013490b
     aa4:	00193c19 	andseq	r3, r9, r9, lsl ip
     aa8:	012e0e00 	teqeq	lr, r0, lsl #28
     aac:	0e03193f 	mcreq	9, 0, r1, cr3, cr15, {1}
     ab0:	0b3b0b3a 	bleq	ec37a0 <__bss_end__+0xeb9648>
     ab4:	193c1927 	ldmdbne	ip!, {r0, r1, r2, r5, r8, fp, ip}
     ab8:	00001301 	andeq	r1, r0, r1, lsl #6
     abc:	3f002e0f 	svccc	0x00002e0f
     ac0:	3a0e0319 	bcc	38172c <__bss_end__+0x3775d4>
     ac4:	270b3b0b 	strcs	r3, [fp, -fp, lsl #22]
     ac8:	00193c19 	andseq	r3, r9, r9, lsl ip
     acc:	11010000 	mrsne	r0, (UNDEF: 1)
     ad0:	130e2501 	movwne	r2, #58625	; 0xe501
     ad4:	1b0e030b 	blne	381708 <__bss_end__+0x3775b0>
     ad8:	1201110e 	andne	r1, r1, #-2147483645	; 0x80000003
     adc:	00171006 	andseq	r1, r7, r6
     ae0:	00240200 	eoreq	r0, r4, r0, lsl #4
     ae4:	0b3e0b0b 	bleq	f83718 <__bss_end__+0xf795c0>
     ae8:	00000803 	andeq	r0, r0, r3, lsl #16
     aec:	0b002403 	bleq	9b00 <__FUNCTION__.4287+0x39c>
     af0:	030b3e0b 	movweq	r3, #48651	; 0xbe0b
     af4:	0400000e 	streq	r0, [r0], #-14
     af8:	193f012e 	ldmdbne	pc!, {r1, r2, r3, r5, r8}	; <UNPREDICTABLE>
     afc:	0b3a0e03 	bleq	e84310 <__bss_end__+0xe7a1b8>
     b00:	01110b3b 	tsteq	r1, fp, lsr fp
     b04:	18400612 	stmdane	r0, {r1, r4, r9, sl}^
     b08:	01194297 			; <UNDEFINED> instruction: 0x01194297
     b0c:	05000013 	streq	r0, [r0, #-19]
     b10:	0e030034 	mcreq	0, 0, r0, cr3, cr4, {1}
     b14:	0b3b0b3a 	bleq	ec3804 <__bss_end__+0xeb96ac>
     b18:	193f1349 	ldmdbne	pc!, {r0, r3, r6, r8, r9, ip}	; <UNPREDICTABLE>
     b1c:	0000193c 	andeq	r1, r0, ip, lsr r9
     b20:	3f002e06 	svccc	0x00002e06
     b24:	3a0e0319 	bcc	381790 <__bss_end__+0x377638>
     b28:	270b3b0b 	strcs	r3, [fp, -fp, lsl #22]
     b2c:	00193c19 	andseq	r3, r9, r9, lsl ip
     b30:	00340700 	eorseq	r0, r4, r0, lsl #14
     b34:	0b3a0803 	bleq	e82b48 <__bss_end__+0xe789f0>
     b38:	13490b3b 	movtne	r0, #39739	; 0x9b3b
     b3c:	00001702 	andeq	r1, r0, r2, lsl #14
     b40:	03003408 	movweq	r3, #1032	; 0x408
     b44:	3b0b3a0e 	blcc	2cf384 <__bss_end__+0x2c522c>
     b48:	0013490b 	andseq	r4, r3, fp, lsl #18
     b4c:	82890900 	addhi	r0, r9, #0, 18
     b50:	01110001 	tsteq	r1, r1
     b54:	00001331 	andeq	r1, r0, r1, lsr r3
     b58:	0b000f0a 	bleq	4788 <_start-0x3878>
     b5c:	0013490b 	andseq	r4, r3, fp, lsl #18
     b60:	11010000 	mrsne	r0, (UNDEF: 1)
     b64:	130e2501 	movwne	r2, #58625	; 0xe501
     b68:	1b0e030b 	blne	38179c <__bss_end__+0x377644>
     b6c:	1117550e 	tstne	r7, lr, lsl #10
     b70:	00171001 	andseq	r1, r7, r1
     b74:	00240200 	eoreq	r0, r4, r0, lsl #4
     b78:	0b3e0b0b 	bleq	f837ac <__bss_end__+0xf79654>
     b7c:	00000803 	andeq	r0, r0, r3, lsl #16
     b80:	0b002403 	bleq	9b94 <__FUNCTION__.4259+0x64>
     b84:	030b3e0b 	movweq	r3, #48651	; 0xbe0b
     b88:	0400000e 	streq	r0, [r0], #-14
     b8c:	193f012e 	ldmdbne	pc!, {r1, r2, r3, r5, r8}	; <UNPREDICTABLE>
     b90:	0b3a0e03 	bleq	e843a4 <__bss_end__+0xe7a24c>
     b94:	19270b3b 	stmdbne	r7!, {r0, r1, r3, r4, r5, r8, r9, fp}
     b98:	01111349 	tsteq	r1, r9, asr #6
     b9c:	18400612 	stmdane	r0, {r1, r4, r9, sl}^
     ba0:	01194297 			; <UNDEFINED> instruction: 0x01194297
     ba4:	05000013 	streq	r0, [r0, #-19]
     ba8:	0e030034 	mcreq	0, 0, r0, cr3, cr4, {1}
     bac:	0b3b0b3a 	bleq	ec389c <__bss_end__+0xeb9744>
     bb0:	17021349 	strne	r1, [r2, -r9, asr #6]
     bb4:	2e060000 	cdpcs	0, 0, cr0, cr6, cr0, {0}
     bb8:	03193f01 	tsteq	r9, #1, 30
     bbc:	3b0b3a0e 	blcc	2cf3fc <__bss_end__+0x2c52a4>
     bc0:	1119270b 	tstne	r9, fp, lsl #14
     bc4:	40061201 	andmi	r1, r6, r1, lsl #4
     bc8:	19429718 	stmdbne	r2, {r3, r4, r8, r9, sl, ip, pc}^
     bcc:	00001301 	andeq	r1, r0, r1, lsl #6
     bd0:	03003407 	movweq	r3, #1031	; 0x407
     bd4:	3b0b3a0e 	blcc	2cf414 <__bss_end__+0x2c52bc>
     bd8:	1c13490b 	ldcne	9, cr4, [r3], {11}
     bdc:	08000006 	stmdaeq	r0, {r1, r2}
     be0:	0e030034 	mcreq	0, 0, r0, cr3, cr4, {1}
     be4:	0b3b0b3a 	bleq	ec38d4 <__bss_end__+0xeb977c>
     be8:	0b1c1349 	bleq	705914 <__bss_end__+0x6fb7bc>
     bec:	89090000 	stmdbhi	r9, {}	; <UNPREDICTABLE>
     bf0:	11000182 	smlabbne	r0, r2, r1, r0
     bf4:	00133101 	andseq	r3, r3, r1, lsl #2
     bf8:	82890a00 	addhi	r0, r9, #0, 20
     bfc:	01110101 	tsteq	r1, r1, lsl #2
     c00:	13011331 	movwne	r1, #4913	; 0x1331
     c04:	8a0b0000 	bhi	2c0c0c <__bss_end__+0x2b6ab4>
     c08:	02000182 	andeq	r0, r0, #-2147483616	; 0x80000020
     c0c:	18429118 	stmdane	r2, {r3, r4, r8, ip, pc}^
     c10:	890c0000 	stmdbhi	ip, {}	; <UNPREDICTABLE>
     c14:	11010182 	smlabbne	r1, r2, r1, r0
     c18:	00133101 	andseq	r3, r3, r1, lsl #2
     c1c:	00260d00 	eoreq	r0, r6, r0, lsl #26
     c20:	00001349 	andeq	r1, r0, r9, asr #6
     c24:	3f012e0e 	svccc	0x00012e0e
     c28:	3a0e0319 	bcc	381894 <__bss_end__+0x37773c>
     c2c:	270b3b0b 	strcs	r3, [fp, -fp, lsl #22]
     c30:	01193c19 	tsteq	r9, r9, lsl ip
     c34:	0f000013 	svceq	0x00000013
     c38:	13490005 	movtne	r0, #36869	; 0x9005
     c3c:	2e100000 	cdpcs	0, 1, cr0, cr0, cr0, {0}
     c40:	03193f01 	tsteq	r9, #1, 30
     c44:	3b0b3a0e 	blcc	2cf484 <__bss_end__+0x2c532c>
     c48:	3c19270b 	ldccc	7, cr2, [r9], {11}
     c4c:	00000019 	andeq	r0, r0, r9, lsl r0
     c50:	25011101 	strcs	r1, [r1, #-257]	; 0x101
     c54:	030b130e 	movweq	r1, #45838	; 0xb30e
     c58:	110e1b0e 	tstne	lr, lr, lsl #22
     c5c:	10061201 	andne	r1, r6, r1, lsl #4
     c60:	02000017 	andeq	r0, r0, #23
     c64:	0b0b0024 	bleq	2c0cfc <__bss_end__+0x2b6ba4>
     c68:	08030b3e 	stmdaeq	r3, {r1, r2, r3, r4, r5, r8, r9, fp}
     c6c:	24030000 	strcs	r0, [r3], #-0
     c70:	3e0b0b00 	vmlacc.f64	d0, d11, d0
     c74:	000e030b 	andeq	r0, lr, fp, lsl #6
     c78:	012e0400 	teqeq	lr, r0, lsl #8
     c7c:	0e03193f 	mcreq	9, 0, r1, cr3, cr15, {1}
     c80:	0b3b0b3a 	bleq	ec3970 <__bss_end__+0xeb9818>
     c84:	01111927 	tsteq	r1, r7, lsr #18
     c88:	18400612 	stmdane	r0, {r1, r4, r9, sl}^
     c8c:	01194297 			; <UNDEFINED> instruction: 0x01194297
     c90:	05000013 	streq	r0, [r0, #-19]
     c94:	0e030005 	cdpeq	0, 0, cr0, cr3, cr5, {0}
     c98:	0b3b0b3a 	bleq	ec3988 <__bss_end__+0xeb9830>
     c9c:	17021349 	strne	r1, [r2, -r9, asr #6]
     ca0:	2e060000 	cdpcs	0, 0, cr0, cr6, cr0, {0}
     ca4:	03193f01 	tsteq	r9, #1, 30
     ca8:	3b0b3a0e 	blcc	2cf4e8 <__bss_end__+0x2c5390>
     cac:	4919270b 	ldmdbmi	r9, {r0, r1, r3, r8, r9, sl, sp}
     cb0:	12011113 	andne	r1, r1, #-1073741820	; 0xc0000004
     cb4:	97184006 	ldrls	r4, [r8, -r6]
     cb8:	13011942 	movwne	r1, #6466	; 0x1942
     cbc:	89070000 	stmdbhi	r7, {}	; <UNPREDICTABLE>
     cc0:	11010182 	smlabbne	r1, r2, r1, r0
     cc4:	00133101 	andseq	r3, r3, r1, lsl #2
     cc8:	828a0800 	addhi	r0, sl, #0, 16
     ccc:	18020001 	stmdane	r2, {r0}
     cd0:	00184291 	mulseq	r8, r1, r2
     cd4:	00340900 	eorseq	r0, r4, r0, lsl #18
     cd8:	0b3a0803 	bleq	e82cec <__bss_end__+0xe78b94>
     cdc:	13490b3b 	movtne	r0, #39739	; 0x9b3b
     ce0:	00001802 	andeq	r1, r0, r2, lsl #16
     ce4:	0182890a 	orreq	r8, r2, sl, lsl #18
     ce8:	31011100 	mrscc	r1, (UNDEF: 17)
     cec:	0b000013 	bleq	d40 <_start-0x72c0>
     cf0:	08030005 	stmdaeq	r3, {r0, r2}
     cf4:	0b3b0b3a 	bleq	ec39e4 <__bss_end__+0xeb988c>
     cf8:	17021349 	strne	r1, [r2, -r9, asr #6]
     cfc:	0b0c0000 	bleq	300d04 <__bss_end__+0x2f6bac>
     d00:	12011101 	andne	r1, r1, #1073741824	; 0x40000000
     d04:	00130106 	andseq	r0, r3, r6, lsl #2
     d08:	00340d00 	eorseq	r0, r4, r0, lsl #26
     d0c:	0b3a0803 	bleq	e82d20 <__bss_end__+0xe78bc8>
     d10:	13490b3b 	movtne	r0, #39739	; 0x9b3b
     d14:	00001702 	andeq	r1, r0, r2, lsl #14
     d18:	3f012e0e 	svccc	0x00012e0e
     d1c:	3a0e0319 	bcc	381988 <__bss_end__+0x377830>
     d20:	270b3b0b 	strcs	r3, [fp, -fp, lsl #22]
     d24:	3c134919 	ldccc	9, cr4, [r3], {25}
     d28:	0f000019 	svceq	0x00000019
     d2c:	13490005 	movtne	r0, #36869	; 0x9005
     d30:	01000000 	mrseq	r0, (UNDEF: 0)
     d34:	0e250111 	mcreq	1, 1, r0, cr5, cr1, {0}
     d38:	0e030b13 	vmoveq.32	d3[0], r0
     d3c:	01110e1b 	tsteq	r1, fp, lsl lr
     d40:	17100612 			; <UNDEFINED> instruction: 0x17100612
     d44:	24020000 	strcs	r0, [r2], #-0
     d48:	3e0b0b00 	vmlacc.f64	d0, d11, d0
     d4c:	0008030b 	andeq	r0, r8, fp, lsl #6
     d50:	00240300 	eoreq	r0, r4, r0, lsl #6
     d54:	0b3e0b0b 	bleq	f83988 <__bss_end__+0xf79830>
     d58:	00000e03 	andeq	r0, r0, r3, lsl #28
     d5c:	49003504 	stmdbmi	r0, {r2, r8, sl, ip, sp}
     d60:	05000013 	streq	r0, [r0, #-19]
     d64:	0e030016 	mcreq	0, 0, r0, cr3, cr6, {0}
     d68:	0b3b0b3a 	bleq	ec3a58 <__bss_end__+0xeb9900>
     d6c:	00001349 	andeq	r1, r0, r9, asr #6
     d70:	03001606 	movweq	r1, #1542	; 0x606
     d74:	3b0b3a0e 	blcc	2cf5b4 <__bss_end__+0x2c545c>
     d78:	00134905 	andseq	r4, r3, r5, lsl #18
     d7c:	01170700 	tsteq	r7, r0, lsl #14
     d80:	0b3a0b0b 	bleq	e839b4 <__bss_end__+0xe7985c>
     d84:	13010b3b 	movwne	r0, #6971	; 0x1b3b
     d88:	0d080000 	stceq	0, cr0, [r8, #-0]
     d8c:	3a0e0300 	bcc	381994 <__bss_end__+0x37783c>
     d90:	490b3b0b 	stmdbmi	fp, {r0, r1, r3, r8, r9, fp, ip, sp}
     d94:	09000013 	stmdbeq	r0, {r0, r1, r4}
     d98:	13490101 	movtne	r0, #37121	; 0x9101
     d9c:	00001301 	andeq	r1, r0, r1, lsl #6
     da0:	4900210a 	stmdbmi	r0, {r1, r3, r8, sp}
     da4:	000b2f13 	andeq	r2, fp, r3, lsl pc
     da8:	01130b00 	tsteq	r3, r0, lsl #22
     dac:	0b3a0b0b 	bleq	e839e0 <__bss_end__+0xe79888>
     db0:	13010b3b 	movwne	r0, #6971	; 0x1b3b
     db4:	0d0c0000 	stceq	0, cr0, [ip, #-0]
     db8:	3a0e0300 	bcc	3819c0 <__bss_end__+0x377868>
     dbc:	490b3b0b 	stmdbmi	fp, {r0, r1, r3, r8, r9, fp, ip, sp}
     dc0:	000b3813 	andeq	r3, fp, r3, lsl r8
     dc4:	000f0d00 	andeq	r0, pc, r0, lsl #26
     dc8:	00000b0b 	andeq	r0, r0, fp, lsl #22
     dcc:	0b000f0e 	bleq	4a0c <_start-0x35f4>
     dd0:	0013490b 	andseq	r4, r3, fp, lsl #18
     dd4:	00260f00 	eoreq	r0, r6, r0, lsl #30
     dd8:	00001349 	andeq	r1, r0, r9, asr #6
     ddc:	03011310 	movweq	r1, #4880	; 0x1310
     de0:	3a0b0b0e 	bcc	2c3a20 <__bss_end__+0x2b98c8>
     de4:	010b3b0b 	tsteq	fp, fp, lsl #22
     de8:	11000013 	tstne	r0, r3, lsl r0
     dec:	0803000d 	stmdaeq	r3, {r0, r2, r3}
     df0:	0b3b0b3a 	bleq	ec3ae0 <__bss_end__+0xeb9988>
     df4:	0b381349 	bleq	e05b20 <__bss_end__+0xdfb9c8>
     df8:	13120000 	tstne	r2, #0
     dfc:	0b0e0301 	bleq	381a08 <__bss_end__+0x3778b0>
     e00:	3b0b3a05 	blcc	2cf61c <__bss_end__+0x2c54c4>
     e04:	0013010b 	andseq	r0, r3, fp, lsl #2
     e08:	000d1300 	andeq	r1, sp, r0, lsl #6
     e0c:	0b3a0e03 	bleq	e84620 <__bss_end__+0xe7a4c8>
     e10:	13490b3b 	movtne	r0, #39739	; 0x9b3b
     e14:	00000538 	andeq	r0, r0, r8, lsr r5
     e18:	27001514 	smladcs	r0, r4, r5, r1
     e1c:	15000019 	strne	r0, [r0, #-25]
     e20:	19270115 	stmdbne	r7!, {r0, r2, r4, r8}
     e24:	13011349 	movwne	r1, #4937	; 0x1349
     e28:	05160000 	ldreq	r0, [r6, #-0]
     e2c:	00134900 	andseq	r4, r3, r0, lsl #18
     e30:	01131700 	tsteq	r3, r0, lsl #14
     e34:	050b0e03 	streq	r0, [fp, #-3587]	; 0xe03
     e38:	053b0b3a 	ldreq	r0, [fp, #-2874]!	; 0xb3a
     e3c:	00001301 	andeq	r1, r0, r1, lsl #6
     e40:	03000d18 	movweq	r0, #3352	; 0xd18
     e44:	3b0b3a0e 	blcc	2cf684 <__bss_end__+0x2c552c>
     e48:	38134905 	ldmdacc	r3, {r0, r2, r8, fp, lr}
     e4c:	1900000b 	stmdbne	r0, {r0, r1, r3}
     e50:	0e03000d 	cdpeq	0, 0, cr0, cr3, cr13, {0}
     e54:	053b0b3a 	ldreq	r0, [fp, #-2874]!	; 0xb3a
     e58:	05381349 	ldreq	r1, [r8, #-841]!	; 0x349
     e5c:	131a0000 	tstne	sl, #0
     e60:	0b0e0301 	bleq	381a6c <__bss_end__+0x377914>
     e64:	3b0b3a0b 	blcc	2cf698 <__bss_end__+0x2c5540>
     e68:	00130105 	andseq	r0, r3, r5, lsl #2
     e6c:	01131b00 	tsteq	r3, r0, lsl #22
     e70:	0b3a0b0b 	bleq	e83aa4 <__bss_end__+0xe7994c>
     e74:	1301053b 	movwne	r0, #5435	; 0x153b
     e78:	171c0000 	ldrne	r0, [ip, -r0]
     e7c:	3a0b0b01 	bcc	2c3a88 <__bss_end__+0x2b9930>
     e80:	01053b0b 	tsteq	r5, fp, lsl #22
     e84:	1d000013 	stcne	0, cr0, [r0, #-76]	; 0xffffffb4
     e88:	0e03000d 	cdpeq	0, 0, cr0, cr3, cr13, {0}
     e8c:	053b0b3a 	ldreq	r0, [fp, #-2874]!	; 0xb3a
     e90:	00001349 	andeq	r1, r0, r9, asr #6
     e94:	2701151e 	smladcs	r1, lr, r5, r1
     e98:	00130119 	andseq	r0, r3, r9, lsl r1
     e9c:	00341f00 	eorseq	r1, r4, r0, lsl #30
     ea0:	0b3a0e03 	bleq	e846b4 <__bss_end__+0xe7a55c>
     ea4:	1349053b 	movtne	r0, #38203	; 0x953b
     ea8:	193c193f 	ldmdbne	ip!, {r0, r1, r2, r3, r4, r5, r8, fp, ip}
     eac:	34200000 	strtcc	r0, [r0], #-0
     eb0:	3a0e0300 	bcc	381ab8 <__bss_end__+0x377960>
     eb4:	490b3b0b 	stmdbmi	fp, {r0, r1, r3, r8, r9, fp, ip, sp}
     eb8:	3c193f13 	ldccc	15, cr3, [r9], {19}
     ebc:	21000019 	tstcs	r0, r9, lsl r0
     ec0:	0b0b0104 	bleq	2c12d8 <__bss_end__+0x2b7180>
     ec4:	0b3a1349 	bleq	e85bf0 <__bss_end__+0xe7ba98>
     ec8:	13010b3b 	movwne	r0, #6971	; 0x1b3b
     ecc:	28220000 	stmdacs	r2!, {}	; <UNPREDICTABLE>
     ed0:	1c0e0300 	stcne	3, cr0, [lr], {-0}
     ed4:	2300000b 	movwcs	r0, #11
     ed8:	0e030034 	mcreq	0, 0, r0, cr3, cr4, {1}
     edc:	0b3b0b3a 	bleq	ec3bcc <__bss_end__+0xeb9a74>
     ee0:	061c1349 	ldreq	r1, [ip], -r9, asr #6
     ee4:	2e240000 	cdpcs	0, 2, cr0, cr4, cr0, {0}
     ee8:	03193f01 	tsteq	r9, #1, 30
     eec:	3b0b3a0e 	blcc	2cf72c <__bss_end__+0x2c55d4>
     ef0:	4919270b 	ldmdbmi	r9, {r0, r1, r3, r8, r9, sl, sp}
     ef4:	12011113 	andne	r1, r1, #-1073741820	; 0xc0000004
     ef8:	97184006 	ldrls	r4, [r8, -r6]
     efc:	13011942 	movwne	r1, #6466	; 0x1942
     f00:	89250000 	stmdbhi	r5!, {}	; <UNPREDICTABLE>
     f04:	11000182 	smlabbne	r0, r2, r1, r0
     f08:	00133101 	andseq	r3, r3, r1, lsl #2
     f0c:	012e2600 	teqeq	lr, r0, lsl #12
     f10:	0e03193f 	mcreq	9, 0, r1, cr3, cr15, {1}
     f14:	0b3b0b3a 	bleq	ec3c04 <__bss_end__+0xeb9aac>
     f18:	01111927 	tsteq	r1, r7, lsr #18
     f1c:	18400612 	stmdane	r0, {r1, r4, r9, sl}^
     f20:	01194297 			; <UNDEFINED> instruction: 0x01194297
     f24:	27000013 	smladcs	r0, r3, r0, r0
     f28:	08030005 	stmdaeq	r3, {r0, r2}
     f2c:	0b3b0b3a 	bleq	ec3c1c <__bss_end__+0xeb9ac4>
     f30:	17021349 	strne	r1, [r2, -r9, asr #6]
     f34:	89280000 	stmdbhi	r8!, {}	; <UNPREDICTABLE>
     f38:	11010182 	smlabbne	r1, r2, r1, r0
     f3c:	01133101 	tsteq	r3, r1, lsl #2
     f40:	29000013 	stmdbcs	r0, {r0, r1, r4}
     f44:	0001828a 	andeq	r8, r1, sl, lsl #5
     f48:	42911802 	addsmi	r1, r1, #131072	; 0x20000
     f4c:	2a000018 	bcs	fb4 <_start-0x704c>
     f50:	08030034 	stmdaeq	r3, {r2, r4, r5}
     f54:	0b3b0b3a 	bleq	ec3c44 <__bss_end__+0xeb9aec>
     f58:	18021349 	stmdane	r2, {r0, r3, r6, r8, r9, ip}
     f5c:	892b0000 	stmdbhi	fp!, {}	; <UNPREDICTABLE>
     f60:	11010182 	smlabbne	r1, r2, r1, r0
     f64:	00133101 	andseq	r3, r3, r1, lsl #2
     f68:	012e2c00 	teqeq	lr, r0, lsl #24
     f6c:	0b3a0e03 	bleq	e84780 <__bss_end__+0xe7a628>
     f70:	19270b3b 	stmdbne	r7!, {r0, r1, r3, r4, r5, r8, r9, fp}
     f74:	06120111 			; <UNDEFINED> instruction: 0x06120111
     f78:	42971840 	addsmi	r1, r7, #64, 16	; 0x400000
     f7c:	00130119 	andseq	r0, r3, r9, lsl r1
     f80:	00052d00 	andeq	r2, r5, r0, lsl #26
     f84:	0b3a0e03 	bleq	e84798 <__bss_end__+0xe7a640>
     f88:	13490b3b 	movtne	r0, #39739	; 0x9b3b
     f8c:	00001702 	andeq	r1, r0, r2, lsl #14
     f90:	0000352e 	andeq	r3, r0, lr, lsr #10
     f94:	002e2f00 	eoreq	r2, lr, r0, lsl #30
     f98:	193c193f 	ldmdbne	ip!, {r0, r1, r2, r3, r4, r5, r8, fp, ip}
     f9c:	0e030e6e 	cdpeq	14, 0, cr0, cr3, cr14, {3}
     fa0:	0b3b0b3a 	bleq	ec3c90 <__bss_end__+0xeb9b38>
     fa4:	01000000 	mrseq	r0, (UNDEF: 0)
     fa8:	0e250111 	mcreq	1, 1, r0, cr5, cr1, {0}
     fac:	0e030b13 	vmoveq.32	d3[0], r0
     fb0:	01110e1b 	tsteq	r1, fp, lsl lr
     fb4:	17100612 			; <UNDEFINED> instruction: 0x17100612
     fb8:	24020000 	strcs	r0, [r2], #-0
     fbc:	3e0b0b00 	vmlacc.f64	d0, d11, d0
     fc0:	0008030b 	andeq	r0, r8, fp, lsl #6
     fc4:	00240300 	eoreq	r0, r4, r0, lsl #6
     fc8:	0b3e0b0b 	bleq	f83bfc <__bss_end__+0xf79aa4>
     fcc:	00000e03 	andeq	r0, r0, r3, lsl #28
     fd0:	49002604 	stmdbmi	r0, {r2, r9, sl, sp}
     fd4:	05000013 	streq	r0, [r0, #-19]
     fd8:	0e030016 	mcreq	0, 0, r0, cr3, cr6, {0}
     fdc:	0b3b0b3a 	bleq	ec3ccc <__bss_end__+0xeb9b74>
     fe0:	00001349 	andeq	r1, r0, r9, asr #6
     fe4:	03001606 	movweq	r1, #1542	; 0x606
     fe8:	3b0b3a0e 	blcc	2cf828 <__bss_end__+0x2c56d0>
     fec:	00134905 	andseq	r4, r3, r5, lsl #18
     ff0:	01170700 	tsteq	r7, r0, lsl #14
     ff4:	0b3a0b0b 	bleq	e83c28 <__bss_end__+0xe79ad0>
     ff8:	13010b3b 	movwne	r0, #6971	; 0x1b3b
     ffc:	0d080000 	stceq	0, cr0, [r8, #-0]
    1000:	3a0e0300 	bcc	381c08 <__bss_end__+0x377ab0>
    1004:	490b3b0b 	stmdbmi	fp, {r0, r1, r3, r8, r9, fp, ip, sp}
    1008:	09000013 	stmdbeq	r0, {r0, r1, r4}
    100c:	13490101 	movtne	r0, #37121	; 0x9101
    1010:	00001301 	andeq	r1, r0, r1, lsl #6
    1014:	4900210a 	stmdbmi	r0, {r1, r3, r8, sp}
    1018:	000b2f13 	andeq	r2, fp, r3, lsl pc
    101c:	01130b00 	tsteq	r3, r0, lsl #22
    1020:	0b3a0b0b 	bleq	e83c54 <__bss_end__+0xe79afc>
    1024:	13010b3b 	movwne	r0, #6971	; 0x1b3b
    1028:	0d0c0000 	stceq	0, cr0, [ip, #-0]
    102c:	3a0e0300 	bcc	381c34 <__bss_end__+0x377adc>
    1030:	490b3b0b 	stmdbmi	fp, {r0, r1, r3, r8, r9, fp, ip, sp}
    1034:	000b3813 	andeq	r3, fp, r3, lsl r8
    1038:	000f0d00 	andeq	r0, pc, r0, lsl #26
    103c:	00000b0b 	andeq	r0, r0, fp, lsl #22
    1040:	0b000f0e 	bleq	4c80 <_start-0x3380>
    1044:	0013490b 	andseq	r4, r3, fp, lsl #18
    1048:	01130f00 	tsteq	r3, r0, lsl #30
    104c:	0b0b0e03 	bleq	2c4860 <__bss_end__+0x2ba708>
    1050:	0b3b0b3a 	bleq	ec3d40 <__bss_end__+0xeb9be8>
    1054:	00001301 	andeq	r1, r0, r1, lsl #6
    1058:	03000d10 	movweq	r0, #3344	; 0xd10
    105c:	3b0b3a08 	blcc	2cf884 <__bss_end__+0x2c572c>
    1060:	3813490b 	ldmdacc	r3, {r0, r1, r3, r8, fp, lr}
    1064:	1100000b 	tstne	r0, fp
    1068:	0e030113 	mcreq	1, 0, r0, cr3, cr3, {0}
    106c:	0b3a050b 	bleq	e824a0 <__bss_end__+0xe78348>
    1070:	13010b3b 	movwne	r0, #6971	; 0x1b3b
    1074:	0d120000 	ldceq	0, cr0, [r2, #-0]
    1078:	3a0e0300 	bcc	381c80 <__bss_end__+0x377b28>
    107c:	490b3b0b 	stmdbmi	fp, {r0, r1, r3, r8, r9, fp, ip, sp}
    1080:	00053813 	andeq	r3, r5, r3, lsl r8
    1084:	00151300 	andseq	r1, r5, r0, lsl #6
    1088:	00001927 	andeq	r1, r0, r7, lsr #18
    108c:	27011514 	smladcs	r1, r4, r5, r1
    1090:	01134919 	tsteq	r3, r9, lsl r9
    1094:	15000013 	strne	r0, [r0, #-19]
    1098:	13490005 	movtne	r0, #36869	; 0x9005
    109c:	13160000 	tstne	r6, #0
    10a0:	0b0e0301 	bleq	381cac <__bss_end__+0x377b54>
    10a4:	3b0b3a05 	blcc	2cf8c0 <__bss_end__+0x2c5768>
    10a8:	00130105 	andseq	r0, r3, r5, lsl #2
    10ac:	000d1700 	andeq	r1, sp, r0, lsl #14
    10b0:	0b3a0e03 	bleq	e848c4 <__bss_end__+0xe7a76c>
    10b4:	1349053b 	movtne	r0, #38203	; 0x953b
    10b8:	00000b38 	andeq	r0, r0, r8, lsr fp
    10bc:	03000d18 	movweq	r0, #3352	; 0xd18
    10c0:	3b0b3a0e 	blcc	2cf900 <__bss_end__+0x2c57a8>
    10c4:	38134905 	ldmdacc	r3, {r0, r2, r8, fp, lr}
    10c8:	19000005 	stmdbne	r0, {r0, r2}
    10cc:	0e030113 	mcreq	1, 0, r0, cr3, cr3, {0}
    10d0:	0b3a0b0b 	bleq	e83d04 <__bss_end__+0xe79bac>
    10d4:	1301053b 	movwne	r0, #5435	; 0x153b
    10d8:	131a0000 	tstne	sl, #0
    10dc:	3a0b0b01 	bcc	2c3ce8 <__bss_end__+0x2b9b90>
    10e0:	01053b0b 	tsteq	r5, fp, lsl #22
    10e4:	1b000013 	blne	1138 <_start-0x6ec8>
    10e8:	0b0b0117 	bleq	2c154c <__bss_end__+0x2b73f4>
    10ec:	053b0b3a 	ldreq	r0, [fp, #-2874]!	; 0xb3a
    10f0:	00001301 	andeq	r1, r0, r1, lsl #6
    10f4:	03000d1c 	movweq	r0, #3356	; 0xd1c
    10f8:	3b0b3a0e 	blcc	2cf938 <__bss_end__+0x2c57e0>
    10fc:	00134905 	andseq	r4, r3, r5, lsl #18
    1100:	01151d00 	tsteq	r5, r0, lsl #26
    1104:	13011927 	movwne	r1, #6439	; 0x1927
    1108:	341e0000 	ldrcc	r0, [lr], #-0
    110c:	3a0e0300 	bcc	381d14 <__bss_end__+0x377bbc>
    1110:	49053b0b 	stmdbmi	r5, {r0, r1, r3, r8, r9, fp, ip, sp}
    1114:	3c193f13 	ldccc	15, cr3, [r9], {19}
    1118:	1f000019 	svcne	0x00000019
    111c:	0e030034 	mcreq	0, 0, r0, cr3, cr4, {1}
    1120:	0b3b0b3a 	bleq	ec3e10 <__bss_end__+0xeb9cb8>
    1124:	193f1349 	ldmdbne	pc!, {r0, r3, r6, r8, r9, ip}	; <UNPREDICTABLE>
    1128:	0000193c 	andeq	r1, r0, ip, lsr r9
    112c:	0b010420 	bleq	421b4 <__bss_end__+0x3805c>
    1130:	3a13490b 	bcc	4d3564 <__bss_end__+0x4c940c>
    1134:	010b3b0b 	tsteq	fp, fp, lsl #22
    1138:	21000013 	tstcs	r0, r3, lsl r0
    113c:	0e030028 	cdpeq	0, 0, cr0, cr3, cr8, {1}
    1140:	00000b1c 	andeq	r0, r0, ip, lsl fp
    1144:	03003422 	movweq	r3, #1058	; 0x422
    1148:	3b0b3a0e 	blcc	2cf988 <__bss_end__+0x2c5830>
    114c:	1c13490b 	ldcne	9, cr4, [r3], {11}
    1150:	23000006 	movwcs	r0, #6
    1154:	193f012e 	ldmdbne	pc!, {r1, r2, r3, r5, r8}	; <UNPREDICTABLE>
    1158:	0b3a0e03 	bleq	e8496c <__bss_end__+0xe7a814>
    115c:	19270b3b 	stmdbne	r7!, {r0, r1, r3, r4, r5, r8, r9, fp}
    1160:	01111349 	tsteq	r1, r9, asr #6
    1164:	18400612 	stmdane	r0, {r1, r4, r9, sl}^
    1168:	01194297 			; <UNDEFINED> instruction: 0x01194297
    116c:	24000013 	strcs	r0, [r0], #-19
    1170:	08030005 	stmdaeq	r3, {r0, r2}
    1174:	0b3b0b3a 	bleq	ec3e64 <__bss_end__+0xeb9d0c>
    1178:	17021349 	strne	r1, [r2, -r9, asr #6]
    117c:	34250000 	strtcc	r0, [r5], #-0
    1180:	3a0e0300 	bcc	381d88 <__bss_end__+0x377c30>
    1184:	490b3b0b 	stmdbmi	fp, {r0, r1, r3, r8, r9, fp, ip, sp}
    1188:	00170213 	andseq	r0, r7, r3, lsl r2
    118c:	00342600 	eorseq	r2, r4, r0, lsl #12
    1190:	0b3a0803 	bleq	e831a4 <__bss_end__+0xe7904c>
    1194:	13490b3b 	movtne	r0, #39739	; 0x9b3b
    1198:	00001702 	andeq	r1, r0, r2, lsl #14
    119c:	01828927 	orreq	r8, r2, r7, lsr #18
    11a0:	31011101 	tstcc	r1, r1, lsl #2
    11a4:	28000013 	stmdacs	r0, {r0, r1, r4}
    11a8:	0001828a 	andeq	r8, r1, sl, lsl #5
    11ac:	42911802 	addsmi	r1, r1, #131072	; 0x20000
    11b0:	29000018 	stmdbcs	r0, {r3, r4}
    11b4:	193f012e 	ldmdbne	pc!, {r1, r2, r3, r5, r8}	; <UNPREDICTABLE>
    11b8:	0b3a0e03 	bleq	e849cc <__bss_end__+0xe7a874>
    11bc:	19270b3b 	stmdbne	r7!, {r0, r1, r3, r4, r5, r8, r9, fp}
    11c0:	06120111 			; <UNDEFINED> instruction: 0x06120111
    11c4:	42971840 	addsmi	r1, r7, #64, 16	; 0x400000
    11c8:	00130119 	andseq	r0, r3, r9, lsl r1
    11cc:	82892a00 	addhi	r2, r9, #0, 20
    11d0:	01110101 	tsteq	r1, r1, lsl #2
    11d4:	13011331 	movwne	r1, #4913	; 0x1331
    11d8:	892b0000 	stmdbhi	fp!, {}	; <UNPREDICTABLE>
    11dc:	11000182 	smlabbne	r0, r2, r1, r0
    11e0:	00133101 	andseq	r3, r3, r1, lsl #2
    11e4:	00052c00 	andeq	r2, r5, r0, lsl #24
    11e8:	0b3a0e03 	bleq	e849fc <__bss_end__+0xe7a8a4>
    11ec:	13490b3b 	movtne	r0, #39739	; 0x9b3b
    11f0:	00001702 	andeq	r1, r0, r2, lsl #14
    11f4:	0300342d 	movweq	r3, #1069	; 0x42d
    11f8:	3b0b3a08 	blcc	2cfa20 <__bss_end__+0x2c58c8>
    11fc:	0213490b 	andseq	r4, r3, #180224	; 0x2c000
    1200:	2e000018 	mcrcs	0, 0, r0, cr0, cr8, {0}
    1204:	193f002e 	ldmdbne	pc!, {r1, r2, r3, r5}	; <UNPREDICTABLE>
    1208:	0e6e193c 	mcreq	9, 3, r1, cr14, cr12, {1}
    120c:	0b3a0e03 	bleq	e84a20 <__bss_end__+0xe7a8c8>
    1210:	00000b3b 	andeq	r0, r0, fp, lsr fp
    1214:	01110100 	tsteq	r1, r0, lsl #2
    1218:	0b130e25 	bleq	4c4ab4 <__bss_end__+0x4ba95c>
    121c:	0e1b0e03 	cdpeq	14, 1, cr0, cr11, cr3, {0}
    1220:	06120111 			; <UNDEFINED> instruction: 0x06120111
    1224:	00001710 	andeq	r1, r0, r0, lsl r7
    1228:	0b002402 	bleq	a238 <__bss_end__+0xe0>
    122c:	030b3e0b 	movweq	r3, #48651	; 0xbe0b
    1230:	03000008 	movweq	r0, #8
    1234:	0b0b0024 	bleq	2c12cc <__bss_end__+0x2b7174>
    1238:	0e030b3e 	vmoveq.16	d3[0], r0
    123c:	16040000 	strne	r0, [r4], -r0
    1240:	3a0e0300 	bcc	381e48 <__bss_end__+0x377cf0>
    1244:	490b3b0b 	stmdbmi	fp, {r0, r1, r3, r8, r9, fp, ip, sp}
    1248:	05000013 	streq	r0, [r0, #-19]
    124c:	0e030016 	mcreq	0, 0, r0, cr3, cr6, {0}
    1250:	053b0b3a 	ldreq	r0, [fp, #-2874]!	; 0xb3a
    1254:	00001349 	andeq	r1, r0, r9, asr #6
    1258:	0b011706 	bleq	46e78 <__bss_end__+0x3cd20>
    125c:	3b0b3a0b 	blcc	2cfa90 <__bss_end__+0x2c5938>
    1260:	0013010b 	andseq	r0, r3, fp, lsl #2
    1264:	000d0700 	andeq	r0, sp, r0, lsl #14
    1268:	0b3a0e03 	bleq	e84a7c <__bss_end__+0xe7a924>
    126c:	13490b3b 	movtne	r0, #39739	; 0x9b3b
    1270:	01080000 	mrseq	r0, (UNDEF: 8)
    1274:	01134901 	tsteq	r3, r1, lsl #18
    1278:	09000013 	stmdbeq	r0, {r0, r1, r4}
    127c:	13490021 	movtne	r0, #36897	; 0x9021
    1280:	00000b2f 	andeq	r0, r0, pc, lsr #22
    1284:	0b01130a 	bleq	45eb4 <__bss_end__+0x3bd5c>
    1288:	3b0b3a0b 	blcc	2cfabc <__bss_end__+0x2c5964>
    128c:	0013010b 	andseq	r0, r3, fp, lsl #2
    1290:	000d0b00 	andeq	r0, sp, r0, lsl #22
    1294:	0b3a0e03 	bleq	e84aa8 <__bss_end__+0xe7a950>
    1298:	13490b3b 	movtne	r0, #39739	; 0x9b3b
    129c:	00000b38 	andeq	r0, r0, r8, lsr fp
    12a0:	0b000f0c 	bleq	4ed8 <_start-0x3128>
    12a4:	0d00000b 	stceq	0, cr0, [r0, #-44]	; 0xffffffd4
    12a8:	0b0b000f 	bleq	2c12ec <__bss_end__+0x2b7194>
    12ac:	00001349 	andeq	r1, r0, r9, asr #6
    12b0:	4900260e 	stmdbmi	r0, {r1, r2, r3, r9, sl, sp}
    12b4:	0f000013 	svceq	0x00000013
    12b8:	0e030113 	mcreq	1, 0, r0, cr3, cr3, {0}
    12bc:	0b3a0b0b 	bleq	e83ef0 <__bss_end__+0xe79d98>
    12c0:	13010b3b 	movwne	r0, #6971	; 0x1b3b
    12c4:	0d100000 	ldceq	0, cr0, [r0, #-0]
    12c8:	3a080300 	bcc	201ed0 <__bss_end__+0x1f7d78>
    12cc:	490b3b0b 	stmdbmi	fp, {r0, r1, r3, r8, r9, fp, ip, sp}
    12d0:	000b3813 	andeq	r3, fp, r3, lsl r8
    12d4:	01131100 	tsteq	r3, r0, lsl #2
    12d8:	050b0e03 	streq	r0, [fp, #-3587]	; 0xe03
    12dc:	0b3b0b3a 	bleq	ec3fcc <__bss_end__+0xeb9e74>
    12e0:	00001301 	andeq	r1, r0, r1, lsl #6
    12e4:	03000d12 	movweq	r0, #3346	; 0xd12
    12e8:	3b0b3a0e 	blcc	2cfb28 <__bss_end__+0x2c59d0>
    12ec:	3813490b 	ldmdacc	r3, {r0, r1, r3, r8, fp, lr}
    12f0:	13000005 	movwne	r0, #5
    12f4:	19270015 	stmdbne	r7!, {r0, r2, r4}
    12f8:	15140000 	ldrne	r0, [r4, #-0]
    12fc:	49192701 	ldmdbmi	r9, {r0, r8, r9, sl, sp}
    1300:	00130113 	andseq	r0, r3, r3, lsl r1
    1304:	00051500 	andeq	r1, r5, r0, lsl #10
    1308:	00001349 	andeq	r1, r0, r9, asr #6
    130c:	03011316 	movweq	r1, #4886	; 0x1316
    1310:	3a050b0e 	bcc	143f50 <__bss_end__+0x139df8>
    1314:	01053b0b 	tsteq	r5, fp, lsl #22
    1318:	17000013 	smladne	r0, r3, r0, r0
    131c:	0e03000d 	cdpeq	0, 0, cr0, cr3, cr13, {0}
    1320:	053b0b3a 	ldreq	r0, [fp, #-2874]!	; 0xb3a
    1324:	0b381349 	bleq	e06050 <__bss_end__+0xdfbef8>
    1328:	0d180000 	ldceq	0, cr0, [r8, #-0]
    132c:	3a0e0300 	bcc	381f34 <__bss_end__+0x377ddc>
    1330:	49053b0b 	stmdbmi	r5, {r0, r1, r3, r8, r9, fp, ip, sp}
    1334:	00053813 	andeq	r3, r5, r3, lsl r8
    1338:	01131900 	tsteq	r3, r0, lsl #18
    133c:	0b0b0e03 	bleq	2c4b50 <__bss_end__+0x2ba9f8>
    1340:	053b0b3a 	ldreq	r0, [fp, #-2874]!	; 0xb3a
    1344:	00001301 	andeq	r1, r0, r1, lsl #6
    1348:	0b01131a 	bleq	45fb8 <__bss_end__+0x3be60>
    134c:	3b0b3a0b 	blcc	2cfb80 <__bss_end__+0x2c5a28>
    1350:	00130105 	andseq	r0, r3, r5, lsl #2
    1354:	01171b00 	tsteq	r7, r0, lsl #22
    1358:	0b3a0b0b 	bleq	e83f8c <__bss_end__+0xe79e34>
    135c:	1301053b 	movwne	r0, #5435	; 0x153b
    1360:	0d1c0000 	ldceq	0, cr0, [ip, #-0]
    1364:	3a0e0300 	bcc	381f6c <__bss_end__+0x377e14>
    1368:	49053b0b 	stmdbmi	r5, {r0, r1, r3, r8, r9, fp, ip, sp}
    136c:	1d000013 	stcne	0, cr0, [r0, #-76]	; 0xffffffb4
    1370:	19270115 	stmdbne	r7!, {r0, r2, r4, r8}
    1374:	00001301 	andeq	r1, r0, r1, lsl #6
    1378:	0300341e 	movweq	r3, #1054	; 0x41e
    137c:	3b0b3a0e 	blcc	2cfbbc <__bss_end__+0x2c5a64>
    1380:	3f134905 	svccc	0x00134905
    1384:	00193c19 	andseq	r3, r9, r9, lsl ip
    1388:	00341f00 	eorseq	r1, r4, r0, lsl #30
    138c:	0b3a0e03 	bleq	e84ba0 <__bss_end__+0xe7aa48>
    1390:	13490b3b 	movtne	r0, #39739	; 0x9b3b
    1394:	193c193f 	ldmdbne	ip!, {r0, r1, r2, r3, r4, r5, r8, fp, ip}
    1398:	34200000 	strtcc	r0, [r0], #-0
    139c:	3a0e0300 	bcc	381fa4 <__bss_end__+0x377e4c>
    13a0:	490b3b0b 	stmdbmi	fp, {r0, r1, r3, r8, r9, fp, ip, sp}
    13a4:	00180213 	andseq	r0, r8, r3, lsl r2
    13a8:	012e2100 	teqeq	lr, r0, lsl #2
    13ac:	0e03193f 	mcreq	9, 0, r1, cr3, cr15, {1}
    13b0:	0b3b0b3a 	bleq	ec40a0 <__bss_end__+0xeb9f48>
    13b4:	01111927 	tsteq	r1, r7, lsr #18
    13b8:	18400612 	stmdane	r0, {r1, r4, r9, sl}^
    13bc:	01194297 			; <UNDEFINED> instruction: 0x01194297
    13c0:	22000013 	andcs	r0, r0, #19
    13c4:	08030005 	stmdaeq	r3, {r0, r2}
    13c8:	0b3b0b3a 	bleq	ec40b8 <__bss_end__+0xeb9f60>
    13cc:	18021349 	stmdane	r2, {r0, r3, r6, r8, r9, ip}
    13d0:	2e230000 	cdpcs	0, 2, cr0, cr3, cr0, {0}
    13d4:	03193f00 	tsteq	r9, #0, 30
    13d8:	3b0b3a0e 	blcc	2cfc18 <__bss_end__+0x2c5ac0>
    13dc:	1119270b 	tstne	r9, fp, lsl #14
    13e0:	40061201 	andmi	r1, r6, r1, lsl #4
    13e4:	19429718 	stmdbne	r2, {r3, r4, r8, r9, sl, ip, pc}^
    13e8:	2e240000 	cdpcs	0, 2, cr0, cr4, cr0, {0}
    13ec:	03193f01 	tsteq	r9, #1, 30
    13f0:	3b0b3a0e 	blcc	2cfc30 <__bss_end__+0x2c5ad8>
    13f4:	4919270b 	ldmdbmi	r9, {r0, r1, r3, r8, r9, sl, sp}
    13f8:	12011113 	andne	r1, r1, #-1073741820	; 0xc0000004
    13fc:	97184006 	ldrls	r4, [r8, -r6]
    1400:	13011942 	movwne	r1, #6466	; 0x1942
    1404:	05250000 	streq	r0, [r5, #-0]!
    1408:	3a0e0300 	bcc	382010 <__bss_end__+0x377eb8>
    140c:	490b3b0b 	stmdbmi	fp, {r0, r1, r3, r8, r9, fp, ip, sp}
    1410:	00170213 	andseq	r0, r7, r3, lsl r2
    1414:	00342600 	eorseq	r2, r4, r0, lsl #12
    1418:	13490e03 	movtne	r0, #40451	; 0x9e03
    141c:	18021934 	stmdane	r2, {r2, r4, r5, r8, fp, ip}
    1420:	34270000 	strtcc	r0, [r7], #-0
    1424:	3a080300 	bcc	20202c <__bss_end__+0x1f7ed4>
    1428:	490b3b0b 	stmdbmi	fp, {r0, r1, r3, r8, r9, fp, ip, sp}
    142c:	00170213 	andseq	r0, r7, r3, lsl r2
    1430:	82892800 	addhi	r2, r9, #0, 16
    1434:	01110101 	tsteq	r1, r1, lsl #2
    1438:	13011331 	movwne	r1, #4913	; 0x1331
    143c:	8a290000 	bhi	a41444 <__bss_end__+0xa372ec>
    1440:	02000182 	andeq	r0, r0, #-2147483616	; 0x80000020
    1444:	18429118 	stmdane	r2, {r3, r4, r8, ip, pc}^
    1448:	892a0000 	stmdbhi	sl!, {}	; <UNPREDICTABLE>
    144c:	11000182 	smlabbne	r0, r2, r1, r0
    1450:	00133101 	andseq	r3, r3, r1, lsl #2
    1454:	00052b00 	andeq	r2, r5, r0, lsl #22
    1458:	0b3a0803 	bleq	e8346c <__bss_end__+0xe79314>
    145c:	13490b3b 	movtne	r0, #39739	; 0x9b3b
    1460:	00001702 	andeq	r1, r0, r2, lsl #14
    1464:	0300342c 	movweq	r3, #1068	; 0x42c
    1468:	3b0b3a0e 	blcc	2cfca8 <__bss_end__+0x2c5b50>
    146c:	0213490b 	andseq	r4, r3, #180224	; 0x2c000
    1470:	2d000017 	stccs	0, cr0, [r0, #-92]	; 0xffffffa4
    1474:	193f002e 	ldmdbne	pc!, {r1, r2, r3, r5}	; <UNPREDICTABLE>
    1478:	0b3a0e03 	bleq	e84c8c <__bss_end__+0xe7ab34>
    147c:	19270b3b 	stmdbne	r7!, {r0, r1, r3, r4, r5, r8, r9, fp}
    1480:	01111349 	tsteq	r1, r9, asr #6
    1484:	18400612 	stmdane	r0, {r1, r4, r9, sl}^
    1488:	00194297 	mulseq	r9, r7, r2
    148c:	002e2e00 	eoreq	r2, lr, r0, lsl #28
    1490:	193c193f 	ldmdbne	ip!, {r0, r1, r2, r3, r4, r5, r8, fp, ip}
    1494:	0e030e6e 	cdpeq	14, 0, cr0, cr3, cr14, {3}
    1498:	0b3b0b3a 	bleq	ec4188 <__bss_end__+0xeba030>
    149c:	Address 0x000000000000149c is out of bounds.


Disassembly of section .debug_loc:

00000000 <.debug_loc>:
       0:	00000108 	andeq	r0, r0, r8, lsl #2
       4:	00000110 	andeq	r0, r0, r0, lsl r1
       8:	10530001 	subsne	r0, r3, r1
       c:	1b000001 	blne	18 <_start-0x7fe8>
      10:	23000001 	movwcs	r0, #1
      14:	70007000 	andvc	r7, r0, r0
      18:	f72cf700 			; <UNDEFINED> instruction: 0xf72cf700
      1c:	0825f425 	stmdaeq	r5!, {r0, r2, r5, sl, ip, sp, lr, pc}
      20:	aaaaaaab 	bge	feaaaad4 <__bss_end__+0xfeaa097c>
      24:	00000000 	andeq	r0, r0, r0
      28:	f720081e 			; <UNDEFINED> instruction: 0xf720081e
      2c:	2cf72525 	cfldr64cs	mvdx2, [r7], #148	; 0x94
      30:	1e332532 	mrcne	5, 1, r2, cr3, cr2, {1}
      34:	9f1c2431 	svcls	0x001c2431
	...
      40:	00000114 	andeq	r0, r0, r4, lsl r1
      44:	0000018c 	andeq	r0, r0, ip, lsl #3
      48:	00550001 	subseq	r0, r5, r1
      4c:	00000000 	andeq	r0, r0, r0
      50:	24000000 	strcs	r0, [r0], #-0
      54:	8c000001 	stchi	0, cr0, [r0], {1}
      58:	01000001 	tsteq	r0, r1
      5c:	00005400 	andeq	r5, r0, r0, lsl #8
      60:	00000000 	andeq	r0, r0, r0
      64:	00280000 	eoreq	r0, r8, r0
      68:	003c0000 	eorseq	r0, ip, r0
      6c:	00020000 	andeq	r0, r2, r0
      70:	003c9f30 	eorseq	r9, ip, r0, lsr pc
      74:	00780000 	rsbseq	r0, r8, r0
      78:	00010000 	andeq	r0, r1, r0
      7c:	00000054 	andeq	r0, r0, r4, asr r0
      80:	00000000 	andeq	r0, r0, r0
      84:	00008800 	andeq	r8, r0, r0, lsl #16
      88:	00011800 	andeq	r1, r1, r0, lsl #16
      8c:	54000100 	strpl	r0, [r0], #-256	; 0x100
	...
      9c:	00000004 	andeq	r0, r0, r4
      a0:	04500001 	ldrbeq	r0, [r0], #-1
      a4:	08000000 	stmdaeq	r0, {}	; <UNPREDICTABLE>
      a8:	03000000 	movweq	r0, #0
      ac:	9f487000 	svcls	0x00487000
	...
      b8:	00000008 	andeq	r0, r0, r8
      bc:	0000000f 	andeq	r0, r0, pc
      c0:	0f500001 	svceq	0x00500001
      c4:	18000000 	stmdane	r0, {}	; <UNPREDICTABLE>
      c8:	04000000 	streq	r0, [r0], #-0
      cc:	5001f300 	andpl	pc, r1, r0, lsl #6
      d0:	0000009f 	muleq	r0, pc, r0	; <UNPREDICTABLE>
      d4:	00000000 	andeq	r0, r0, r0
      d8:	00001800 	andeq	r1, r0, r0, lsl #16
      dc:	00002300 	andeq	r2, r0, r0, lsl #6
      e0:	50000100 	andpl	r0, r0, r0, lsl #2
      e4:	00000023 	andeq	r0, r0, r3, lsr #32
      e8:	00000030 	andeq	r0, r0, r0, lsr r0
      ec:	00540001 	subseq	r0, r4, r1
      f0:	00000000 	andeq	r0, r0, r0
      f4:	30000000 	andcc	r0, r0, r0
      f8:	34000000 	strcc	r0, [r0], #-0
      fc:	01000000 	mrseq	r0, (UNDEF: 0)
     100:	00345000 	eorseq	r5, r4, r0
     104:	003c0000 	eorseq	r0, ip, r0
     108:	00040000 	andeq	r0, r4, r0
     10c:	9f5001f3 	svcls	0x005001f3
	...
     118:	0000003c 	andeq	r0, r0, ip, lsr r0
     11c:	00000040 	andeq	r0, r0, r0, asr #32
     120:	40500001 	subsmi	r0, r0, r1
     124:	44000000 	strmi	r0, [r0], #-0
     128:	04000000 	streq	r0, [r0], #-0
     12c:	01b87000 			; <UNDEFINED> instruction: 0x01b87000
     130:	0000009f 	muleq	r0, pc, r0	; <UNPREDICTABLE>
     134:	00000000 	andeq	r0, r0, r0
     138:	00004400 	andeq	r4, r0, r0, lsl #8
     13c:	00006800 	andeq	r6, r0, r0, lsl #16
     140:	50000100 	andpl	r0, r0, r0, lsl #2
     144:	00000068 	andeq	r0, r0, r8, rrx
     148:	00000110 	andeq	r0, r0, r0, lsl r1
     14c:	10550001 	subsne	r0, r5, r1
     150:	20000001 	andcs	r0, r0, r1
     154:	01000001 	tsteq	r0, r1
     158:	01205000 	teqeq	r0, r0
     15c:	014c0000 	mrseq	r0, (UNDEF: 76)
     160:	00010000 	andeq	r0, r1, r0
     164:	00000055 	andeq	r0, r0, r5, asr r0
     168:	00000000 	andeq	r0, r0, r0
     16c:	00004400 	andeq	r4, r0, r0, lsl #8
     170:	00006b00 	andeq	r6, r0, r0, lsl #22
     174:	51000100 	mrspl	r0, (UNDEF: 16)
     178:	0000006b 	andeq	r0, r0, fp, rrx
     17c:	00000110 	andeq	r0, r0, r0, lsl r1
     180:	01f30004 	mvnseq	r0, r4
     184:	01109f51 	tsteq	r0, r1, asr pc
     188:	01240000 	teqeq	r4, r0
     18c:	00010000 	andeq	r0, r1, r0
     190:	00012451 	andeq	r2, r1, r1, asr r4
     194:	00014c00 	andeq	r4, r1, r0, lsl #24
     198:	f3000400 	vshl.u8	d0, d0, d0
     19c:	009f5101 	addseq	r5, pc, r1, lsl #2
     1a0:	00000000 	andeq	r0, r0, r0
     1a4:	44000000 	strmi	r0, [r0], #-0
     1a8:	6b000000 	blvs	1b0 <_start-0x7e50>
     1ac:	01000000 	mrseq	r0, (UNDEF: 0)
     1b0:	006b5200 	rsbeq	r5, fp, r0, lsl #4
     1b4:	01100000 	tsteq	r0, r0
     1b8:	00040000 	andeq	r0, r4, r0
     1bc:	9f5201f3 	svcls	0x005201f3
     1c0:	00000110 	andeq	r0, r0, r0, lsl r1
     1c4:	00000124 	andeq	r0, r0, r4, lsr #2
     1c8:	24520001 	ldrbcs	r0, [r2], #-1
     1cc:	4c000001 	stcmi	0, cr0, [r0], {1}
     1d0:	04000001 	streq	r0, [r0], #-1
     1d4:	5201f300 	andpl	pc, r1, #0, 6
     1d8:	0000009f 	muleq	r0, pc, r0	; <UNPREDICTABLE>
     1dc:	00000000 	andeq	r0, r0, r0
     1e0:	00004c00 	andeq	r4, r0, r0, lsl #24
     1e4:	00005400 	andeq	r5, r0, r0, lsl #8
     1e8:	30000200 	andcc	r0, r0, r0, lsl #4
     1ec:	0000549f 	muleq	r0, pc, r4	; <UNPREDICTABLE>
     1f0:	00006b00 	andeq	r6, r0, r0, lsl #22
     1f4:	53000100 	movwpl	r0, #256	; 0x100
     1f8:	00000110 	andeq	r0, r0, r0, lsl r1
     1fc:	00000124 	andeq	r0, r0, r4, lsr #2
     200:	00530001 	subseq	r0, r3, r1
     204:	00000000 	andeq	r0, r0, r0
     208:	70000000 	andvc	r0, r0, r0
     20c:	7c000000 	stcvc	0, cr0, [r0], {-0}
     210:	01000000 	mrseq	r0, (UNDEF: 0)
     214:	007c5000 	rsbseq	r5, ip, r0
     218:	01100000 	tsteq	r0, r0
     21c:	00010000 	andeq	r0, r1, r0
     220:	00012457 	andeq	r2, r1, r7, asr r4
     224:	00014c00 	andeq	r4, r1, r0, lsl #24
     228:	57000100 	strpl	r0, [r0, -r0, lsl #2]
	...
     234:	00000074 	andeq	r0, r0, r4, ror r0
     238:	00000110 	andeq	r0, r0, r0, lsl r1
     23c:	24540001 	ldrbcs	r0, [r4], #-1
     240:	4c000001 	stcmi	0, cr0, [r0], {1}
     244:	01000001 	tsteq	r0, r1
     248:	00005400 	andeq	r5, r0, r0, lsl #8
     24c:	00000000 	andeq	r0, r0, r0
     250:	00980000 	addseq	r0, r8, r0
     254:	01100000 	tsteq	r0, r0
     258:	00010000 	andeq	r0, r1, r0
     25c:	00012455 	andeq	r2, r1, r5, asr r4
     260:	00014c00 	andeq	r4, r1, r0, lsl #24
     264:	55000100 	strpl	r0, [r0, #-256]	; 0x100
	...
     270:	000000ac 	andeq	r0, r0, ip, lsr #1
     274:	000000d4 	ldrdeq	r0, [r0], -r4
     278:	10750003 	rsbsne	r0, r5, r3
     27c:	0000d49f 	muleq	r0, pc, r4	; <UNPREDICTABLE>
     280:	00011000 	andeq	r1, r1, r0
     284:	75000300 	strvc	r0, [r0, #-768]	; 0x300
     288:	01249f1c 	teqeq	r4, ip, lsl pc
     28c:	014c0000 	mrseq	r0, (UNDEF: 76)
     290:	00030000 	andeq	r0, r3, r0
     294:	009f1c75 	addseq	r1, pc, r5, ror ip	; <UNPREDICTABLE>
     298:	00000000 	andeq	r0, r0, r0
     29c:	4c000000 	stcmi	0, cr0, [r0], {-0}
     2a0:	5b000001 	blpl	2ac <_start-0x7d54>
     2a4:	01000001 	tsteq	r0, r1
     2a8:	015b5000 	cmpeq	fp, r0
     2ac:	01600000 	cmneq	r0, r0
     2b0:	00040000 	andeq	r0, r4, r0
     2b4:	9f5001f3 	svcls	0x005001f3
	...
     2c0:	0000014c 	andeq	r0, r0, ip, asr #2
     2c4:	00000158 	andeq	r0, r0, r8, asr r1
     2c8:	58510001 	ldmdapl	r1, {r0}^
     2cc:	5b000001 	blpl	2d8 <_start-0x7d28>
     2d0:	01000001 	tsteq	r0, r1
     2d4:	015b5200 	cmpeq	fp, r0, lsl #4
     2d8:	01600000 	cmneq	r0, r0
     2dc:	00040000 	andeq	r0, r4, r0
     2e0:	9f5101f3 	svcls	0x005101f3
	...
     2ec:	00000160 	andeq	r0, r0, r0, ror #2
     2f0:	0000017b 	andeq	r0, r0, fp, ror r1
     2f4:	7b500001 	blvc	1400300 <__bss_end__+0x13f61a8>
     2f8:	84000001 	strhi	r0, [r0], #-1
     2fc:	01000001 	tsteq	r0, r1
     300:	00005400 	andeq	r5, r0, r0, lsl #8
     304:	00000000 	andeq	r0, r0, r0
     308:	01840000 	orreq	r0, r4, r0
     30c:	018f0000 	orreq	r0, pc, r0
     310:	00010000 	andeq	r0, r1, r0
     314:	00018f50 	andeq	r8, r1, r0, asr pc
     318:	00022000 	andeq	r2, r2, r0
     31c:	54000100 	strpl	r0, [r0], #-256	; 0x100
	...
     328:	00000194 	muleq	r0, r4, r1
     32c:	00000198 	muleq	r0, r8, r1
     330:	98500001 	ldmdals	r0, {r0}^
     334:	20000001 	andcs	r0, r0, r1
     338:	01000002 	tsteq	r0, r2
     33c:	00005500 	andeq	r5, r0, r0, lsl #10
     340:	00000000 	andeq	r0, r0, r0
     344:	02200000 	eoreq	r0, r0, #0
     348:	022b0000 	eoreq	r0, fp, #0
     34c:	00010000 	andeq	r0, r1, r0
     350:	00022b50 	andeq	r2, r2, r0, asr fp
     354:	0002a000 	andeq	sl, r2, r0
     358:	54000100 	strpl	r0, [r0], #-256	; 0x100
	...
     364:	000002a0 	andeq	r0, r0, r0, lsr #5
     368:	000002bf 			; <UNDEFINED> instruction: 0x000002bf
     36c:	bf500001 	svclt	0x00500001
     370:	d8000002 	stmdale	r0, {r1}
     374:	01000002 	tsteq	r0, r2
     378:	02d85400 	sbcseq	r5, r8, #0, 8
     37c:	02dc0000 	sbcseq	r0, ip, #0
     380:	00010000 	andeq	r0, r1, r0
     384:	0002dc50 	andeq	sp, r2, r0, asr ip
     388:	0002f800 	andeq	pc, r2, r0, lsl #16
     38c:	54000100 	strpl	r0, [r0], #-256	; 0x100
     390:	000002f8 	strdeq	r0, [r0], -r8
     394:	00000314 	andeq	r0, r0, r4, lsl r3
     398:	48030005 	stmdami	r3, {r0, r2}
     39c:	0000009d 	muleq	r0, sp, r0
     3a0:	00000000 	andeq	r0, r0, r0
     3a4:	a0000000 	andge	r0, r0, r0
     3a8:	bf000002 	svclt	0x00000002
     3ac:	01000002 	tsteq	r0, r2
     3b0:	02bf5100 	adcseq	r5, pc, #0, 2
     3b4:	02d80000 	sbcseq	r0, r8, #0
     3b8:	00010000 	andeq	r0, r1, r0
     3bc:	0002d855 	andeq	sp, r2, r5, asr r8
     3c0:	0002e000 	andeq	lr, r2, r0
     3c4:	51000100 	mrspl	r0, (UNDEF: 16)
     3c8:	000002e0 	andeq	r0, r0, r0, ror #5
     3cc:	00000314 	andeq	r0, r0, r4, lsl r3
     3d0:	00550001 	subseq	r0, r5, r1
     3d4:	00000000 	andeq	r0, r0, r0
     3d8:	14000000 	strne	r0, [r0], #-0
     3dc:	2c000003 	stccs	0, cr0, [r0], {3}
     3e0:	01000003 	tsteq	r0, r3
     3e4:	032c5000 	teqeq	ip, #0
     3e8:	03d40000 	bicseq	r0, r4, #0
     3ec:	00010000 	andeq	r0, r1, r0
     3f0:	00000055 	andeq	r0, r0, r5, asr r0
     3f4:	00000000 	andeq	r0, r0, r0
     3f8:	00031400 	andeq	r1, r3, r0, lsl #8
     3fc:	00033b00 	andeq	r3, r3, r0, lsl #22
     400:	51000100 	mrspl	r0, (UNDEF: 16)
     404:	0000033b 	andeq	r0, r0, fp, lsr r3
     408:	00000354 	andeq	r0, r0, r4, asr r3
     40c:	54580001 	ldrbpl	r0, [r8], #-1
     410:	5b000003 	blpl	424 <_start-0x7bdc>
     414:	01000003 	tsteq	r0, r3
     418:	035b5100 	cmpeq	fp, #0, 2
     41c:	03d40000 	bicseq	r0, r4, #0
     420:	00010000 	andeq	r0, r1, r0
     424:	00000058 	andeq	r0, r0, r8, asr r0
     428:	00000000 	andeq	r0, r0, r0
     42c:	00031400 	andeq	r1, r3, r0, lsl #8
     430:	00033b00 	andeq	r3, r3, r0, lsl #22
     434:	52000100 	andpl	r0, r0, #0, 2
     438:	0000033b 	andeq	r0, r0, fp, lsr r3
     43c:	00000354 	andeq	r0, r0, r4, asr r3
     440:	54570001 	ldrbpl	r0, [r7], #-1
     444:	5b000003 	blpl	458 <_start-0x7ba8>
     448:	01000003 	tsteq	r0, r3
     44c:	035b5200 	cmpeq	fp, #0, 4
     450:	03d40000 	bicseq	r0, r4, #0
     454:	00010000 	andeq	r0, r1, r0
     458:	00000057 	andeq	r0, r0, r7, asr r0
     45c:	00000000 	andeq	r0, r0, r0
     460:	00031400 	andeq	r1, r3, r0, lsl #8
     464:	00033b00 	andeq	r3, r3, r0, lsl #22
     468:	53000100 	movwpl	r0, #256	; 0x100
     46c:	0000033b 	andeq	r0, r0, fp, lsr r3
     470:	00000354 	andeq	r0, r0, r4, asr r3
     474:	54560001 	ldrbpl	r0, [r6], #-1
     478:	5b000003 	blpl	48c <_start-0x7b74>
     47c:	01000003 	tsteq	r0, r3
     480:	035b5300 	cmpeq	fp, #0, 6
     484:	03d40000 	bicseq	r0, r4, #0
     488:	00010000 	andeq	r0, r1, r0
     48c:	00000056 	andeq	r0, r0, r6, asr r0
     490:	00000000 	andeq	r0, r0, r0
     494:	00032800 	andeq	r2, r3, r0, lsl #16
     498:	00037400 	andeq	r7, r3, r0, lsl #8
     49c:	30000200 	andcc	r0, r0, r0, lsl #4
     4a0:	0003749f 	muleq	r3, pc, r4	; <UNPREDICTABLE>
     4a4:	00037700 	andeq	r7, r3, r0, lsl #14
     4a8:	50000100 	andpl	r0, r0, r0, lsl #2
     4ac:	00000377 	andeq	r0, r0, r7, ror r3
     4b0:	000003d4 	ldrdeq	r0, [r0], -r4
     4b4:	00540001 	subseq	r0, r4, r1
     4b8:	00000000 	andeq	r0, r0, r0
     4bc:	d4000000 	strle	r0, [r0], #-0
     4c0:	ff000003 			; <UNDEFINED> instruction: 0xff000003
     4c4:	01000003 	tsteq	r0, r3
     4c8:	03ff5000 	mvnseq	r5, #0
     4cc:	04180000 	ldreq	r0, [r8], #-0
     4d0:	00010000 	andeq	r0, r1, r0
     4d4:	00041855 	andeq	r1, r4, r5, asr r8
     4d8:	00041c00 	andeq	r1, r4, r0, lsl #24
     4dc:	50000100 	andpl	r0, r0, r0, lsl #2
     4e0:	0000041c 	andeq	r0, r0, ip, lsl r4
     4e4:	000005e8 	andeq	r0, r0, r8, ror #11
     4e8:	e8550001 	ldmda	r5, {r0}^
     4ec:	20000005 	andcs	r0, r0, r5
     4f0:	04000006 	streq	r0, [r0], #-6
     4f4:	5001f300 	andpl	pc, r1, r0, lsl #6
     4f8:	0000009f 	muleq	r0, pc, r0	; <UNPREDICTABLE>
     4fc:	00000000 	andeq	r0, r0, r0
     500:	0003d400 	andeq	sp, r3, r0, lsl #8
     504:	0003ff00 	andeq	pc, r3, r0, lsl #30
     508:	51000100 	mrspl	r0, (UNDEF: 16)
     50c:	000003ff 	strdeq	r0, [r0], -pc	; <UNPREDICTABLE>
     510:	00000418 	andeq	r0, r0, r8, lsl r4
     514:	18590001 	ldmdane	r9, {r0}^
     518:	1f000004 	svcne	0x00000004
     51c:	01000004 	tsteq	r0, r4
     520:	041f5100 	ldreq	r5, [pc], #-256	; 528 <_start-0x7ad8>
     524:	05e80000 	strbeq	r0, [r8, #0]!
     528:	00010000 	andeq	r0, r1, r0
     52c:	0005e859 	andeq	lr, r5, r9, asr r8
     530:	00062000 	andeq	r2, r6, r0
     534:	f3000400 	vshl.u8	d0, d0, d0
     538:	009f5101 	addseq	r5, pc, r1, lsl #2
     53c:	00000000 	andeq	r0, r0, r0
     540:	d4000000 	strle	r0, [r0], #-0
     544:	ff000003 			; <UNDEFINED> instruction: 0xff000003
     548:	01000003 	tsteq	r0, r3
     54c:	03ff5200 	mvnseq	r5, #0, 4
     550:	04180000 	ldreq	r0, [r8], #-0
     554:	00010000 	andeq	r0, r1, r0
     558:	00041858 	andeq	r1, r4, r8, asr r8
     55c:	00041f00 	andeq	r1, r4, r0, lsl #30
     560:	52000100 	andpl	r0, r0, #0, 2
     564:	0000041f 	andeq	r0, r0, pc, lsl r4
     568:	000005e8 	andeq	r0, r0, r8, ror #11
     56c:	e8580001 	ldmda	r8, {r0}^
     570:	20000005 	andcs	r0, r0, r5
     574:	04000006 	streq	r0, [r0], #-6
     578:	5201f300 	andpl	pc, r1, #0, 6
     57c:	0000009f 	muleq	r0, pc, r0	; <UNPREDICTABLE>
     580:	00000000 	andeq	r0, r0, r0
     584:	0003d400 	andeq	sp, r3, r0, lsl #8
     588:	0003f000 	andeq	pc, r3, r0
     58c:	53000100 	movwpl	r0, #256	; 0x100
     590:	000003f0 	strdeq	r0, [r0], -r0	; <UNPREDICTABLE>
     594:	00000538 	andeq	r0, r0, r8, lsr r5
     598:	38570001 	ldmdacc	r7, {r0}^
     59c:	20000005 	andcs	r0, r0, r5
     5a0:	04000006 	streq	r0, [r0], #-6
     5a4:	5301f300 	movwpl	pc, #4864	; 0x1300	; <UNPREDICTABLE>
     5a8:	0000009f 	muleq	r0, pc, r0	; <UNPREDICTABLE>
     5ac:	00000000 	andeq	r0, r0, r0
     5b0:	0003ec00 	andeq	lr, r3, r0, lsl #24
     5b4:	0004e000 	andeq	lr, r4, r0
     5b8:	30000200 	andcc	r0, r0, r0, lsl #4
     5bc:	0004e09f 	muleq	r4, pc, r0	; <UNPREDICTABLE>
     5c0:	0005e800 	andeq	lr, r5, r0, lsl #16
     5c4:	54000100 	strpl	r0, [r0], #-256	; 0x100
	...
     5d0:	000003ec 	andeq	r0, r0, ip, ror #7
     5d4:	00000568 	andeq	r0, r0, r8, ror #10
     5d8:	9f300002 	svcls	0x00300002
     5dc:	00000568 	andeq	r0, r0, r8, ror #10
     5e0:	0000056c 	andeq	r0, r0, ip, ror #10
     5e4:	6c500001 	mrrcvs	0, 0, r0, r0, cr1	; <UNPREDICTABLE>
     5e8:	e8000005 	stmda	r0, {r0, r2}
     5ec:	01000005 	tsteq	r0, r5
     5f0:	05e85700 	strbeq	r5, [r8, #1792]!	; 0x700
     5f4:	06200000 	strteq	r0, [r0], -r0
     5f8:	00010000 	andeq	r0, r1, r0
     5fc:	00000050 	andeq	r0, r0, r0, asr r0
     600:	00000000 	andeq	r0, r0, r0
     604:	00043400 	andeq	r3, r4, r0, lsl #8
     608:	00044700 	andeq	r4, r4, r0, lsl #14
     60c:	5c000100 	stfpls	f0, [r0], {-0}
     610:	00000447 	andeq	r0, r0, r7, asr #8
     614:	00000474 	andeq	r0, r0, r4, ror r4
     618:	c8760004 	ldmdagt	r6!, {r2}^
     61c:	04749f7d 	ldrbteq	r9, [r4], #-3965	; 0xf7d
     620:	04930000 	ldreq	r0, [r3], #0
     624:	00010000 	andeq	r0, r1, r0
     628:	0004935c 	andeq	r9, r4, ip, asr r3
     62c:	0004e000 	andeq	lr, r4, r0
     630:	76000400 	strvc	r0, [r0], -r0, lsl #8
     634:	e09f7dc8 	adds	r7, pc, r8, asr #27
     638:	e8000004 	stmda	r0, {r2}
     63c:	01000004 	tsteq	r0, r4
     640:	04e85c00 	strbteq	r5, [r8], #3072	; 0xc00
     644:	05e80000 	strbeq	r0, [r8, #0]!
     648:	00040000 	andeq	r0, r4, r0
     64c:	9f7dc876 	svcls	0x007dc876
     650:	000005e8 	andeq	r0, r0, r8, ror #11
     654:	00000620 	andeq	r0, r0, r0, lsr #12
     658:	01f30009 	mvnseq	r0, r9
     65c:	09072350 	stmdbeq	r7, {r4, r6, r8, r9, sp}
     660:	009f1af8 			; <UNDEFINED> instruction: 0x009f1af8
     664:	00000000 	andeq	r0, r0, r0
     668:	38000000 	stmdacc	r0, {}	; <UNPREDICTABLE>
     66c:	e8000004 	stmda	r0, {r2}
     670:	01000005 	tsteq	r0, r5
     674:	05e85600 	strbeq	r5, [r8, #1536]!	; 0x600
     678:	06200000 	strteq	r0, [r0], -r0
     67c:	000c0000 	andeq	r0, ip, r0
     680:	235001f3 	cmpcs	r0, #-1073741764	; 0xc000003c
     684:	1af80907 	bne	ffe02aa8 <__bss_end__+0xffdf8950>
     688:	9f02b823 	svcls	0x0002b823
	...
     694:	000004e0 	andeq	r0, r0, r0, ror #9
     698:	000005e8 	andeq	r0, r0, r8, ror #11
     69c:	b8760004 	ldmdalt	r6!, {r2}^
     6a0:	05e89f01 	strbeq	r9, [r8, #3841]!	; 0xf01
     6a4:	06200000 	strteq	r0, [r0], -r0
     6a8:	000c0000 	andeq	r0, ip, r0
     6ac:	235001f3 	cmpcs	r0, #-1073741764	; 0xc000003c
     6b0:	1af80907 	bne	ffe02ad4 <__bss_end__+0xffdf897c>
     6b4:	9f03f023 	svcls	0x0003f023
	...
     6c0:	00000634 	andeq	r0, r0, r4, lsr r6
     6c4:	00000660 	andeq	r0, r0, r0, ror #12
     6c8:	00560001 	subseq	r0, r6, r1
     6cc:	00000000 	andeq	r0, r0, r0
     6d0:	3c000000 	stccc	0, cr0, [r0], {-0}
     6d4:	5c000006 	stcpl	0, cr0, [r0], {6}
     6d8:	01000006 	tsteq	r0, r6
     6dc:	00005500 	andeq	r5, r0, r0, lsl #10
     6e0:	00000000 	andeq	r0, r0, r0
     6e4:	06540000 	ldrbeq	r0, [r4], -r0
     6e8:	06700000 	ldrbteq	r0, [r0], -r0
     6ec:	00020000 	andeq	r0, r2, r0
     6f0:	06709f30 	uhasxeq	r9, r0, r0
     6f4:	07680000 	strbeq	r0, [r8, -r0]!
     6f8:	00010000 	andeq	r0, r1, r0
     6fc:	00000056 	andeq	r0, r0, r6, asr r0
     700:	00000000 	andeq	r0, r0, r0
     704:	00065400 	andeq	r5, r6, r0, lsl #8
     708:	00067000 	andeq	r7, r6, r0
     70c:	30000200 	andcc	r0, r0, r0, lsl #4
     710:	0006709f 	muleq	r6, pc, r0	; <UNPREDICTABLE>
     714:	00076800 	andeq	r6, r7, r0, lsl #16
     718:	55000100 	strpl	r0, [r0, #-256]	; 0x100
	...
     724:	00000670 	andeq	r0, r0, r0, ror r6
     728:	000006fc 	strdeq	r0, [r0], -ip
     72c:	00540001 	subseq	r0, r4, r1
	...
     738:	24000000 	strcs	r0, [r0], #-0
     73c:	01000000 	mrseq	r0, (UNDEF: 0)
     740:	00245000 	eoreq	r5, r4, r0
     744:	00e40000 	rsceq	r0, r4, r0
     748:	00040000 	andeq	r0, r4, r0
     74c:	9f5001f3 	svcls	0x005001f3
     750:	000000e4 	andeq	r0, r0, r4, ror #1
     754:	000000e8 	andeq	r0, r0, r8, ror #1
     758:	e8500001 	ldmda	r0, {r0}^
     75c:	f0000000 			; <UNDEFINED> instruction: 0xf0000000
     760:	04000000 	streq	r0, [r0], #-0
     764:	5001f300 	andpl	pc, r1, r0, lsl #6
     768:	0000009f 	muleq	r0, pc, r0	; <UNPREDICTABLE>
	...
     774:	00002000 	andeq	r2, r0, r0
     778:	51000100 	mrspl	r0, (UNDEF: 16)
     77c:	00000020 	andeq	r0, r0, r0, lsr #32
     780:	00000080 	andeq	r0, r0, r0, lsl #1
     784:	9c510001 	mrrcls	0, 0, r0, r1, cr1
     788:	a0000000 	andge	r0, r0, r0
     78c:	01000000 	mrseq	r0, (UNDEF: 0)
     790:	00b85100 	adcseq	r5, r8, r0, lsl #2
     794:	00c80000 	sbceq	r0, r8, r0
     798:	00010000 	andeq	r0, r1, r0
     79c:	0000e451 	andeq	lr, r0, r1, asr r4
     7a0:	0000e800 	andeq	lr, r0, r0, lsl #16
     7a4:	51000100 	mrspl	r0, (UNDEF: 16)
	...
     7b0:	00000004 	andeq	r0, r0, r4
     7b4:	00000024 	andeq	r0, r0, r4, lsr #32
     7b8:	24500001 	ldrbcs	r0, [r0], #-1
     7bc:	90000000 	andls	r0, r0, r0
     7c0:	01000000 	mrseq	r0, (UNDEF: 0)
     7c4:	009c5300 	addseq	r5, ip, r0, lsl #6
     7c8:	00a40000 	adceq	r0, r4, r0
     7cc:	00010000 	andeq	r0, r1, r0
     7d0:	0000b853 	andeq	fp, r0, r3, asr r8
     7d4:	0000bc00 	andeq	fp, r0, r0, lsl #24
     7d8:	53000100 	movwpl	r0, #256	; 0x100
     7dc:	000000e4 	andeq	r0, r0, r4, ror #1
     7e0:	000000e8 	andeq	r0, r0, r8, ror #1
     7e4:	00500001 	subseq	r0, r0, r1
     7e8:	00000000 	andeq	r0, r0, r0
     7ec:	08000000 	stmdaeq	r0, {}	; <UNPREDICTABLE>
     7f0:	20000000 	andcs	r0, r0, r0
     7f4:	01000000 	mrseq	r0, (UNDEF: 0)
     7f8:	00205100 	eoreq	r5, r0, r0, lsl #2
     7fc:	00340000 	eorseq	r0, r4, r0
     800:	00010000 	andeq	r0, r1, r0
     804:	00003452 	andeq	r3, r0, r2, asr r4
     808:	00004800 	andeq	r4, r0, r0, lsl #16
     80c:	50000100 	andpl	r0, r0, r0, lsl #2
     810:	00000048 	andeq	r0, r0, r8, asr #32
     814:	000000cc 	andeq	r0, r0, ip, asr #1
     818:	cc520001 	mrrcgt	0, 0, r0, r2, cr1
     81c:	e0000000 	and	r0, r0, r0
     820:	01000000 	mrseq	r0, (UNDEF: 0)
     824:	00e45000 	rsceq	r5, r4, r0
     828:	00e80000 	rsceq	r0, r8, r0
     82c:	00010000 	andeq	r0, r1, r0
     830:	00000051 	andeq	r0, r0, r1, asr r0
     834:	00000000 	andeq	r0, r0, r0
     838:	00004400 	andeq	r4, r0, r0, lsl #8
     83c:	00004800 	andeq	r4, r0, r0, lsl #16
     840:	52000100 	andpl	r0, r0, #0, 2
     844:	00000048 	andeq	r0, r0, r8, asr #32
     848:	0000004c 	andeq	r0, r0, ip, asr #32
     84c:	007c0012 	rsbseq	r0, ip, r2, lsl r0
     850:	02732438 	rsbseq	r2, r3, #56, 8	; 0x38000000
     854:	ff080194 			; <UNDEFINED> instruction: 0xff080194
     858:	243b221a 	ldrtcs	r2, [fp], #-538	; 0x21a
     85c:	9f270070 	svcls	0x00270070
     860:	0000004c 	andeq	r0, r0, ip, asr #32
     864:	00000054 	andeq	r0, r0, r4, asr r0
     868:	007c0012 	rsbseq	r0, ip, r2, lsl r0
     86c:	7e732438 	mrcvc	4, 3, r2, cr3, cr8, {1}
     870:	ff080194 			; <UNDEFINED> instruction: 0xff080194
     874:	243b221a 	ldrtcs	r2, [fp], #-538	; 0x21a
     878:	9f270070 	svcls	0x00270070
	...
     884:	0000001c 	andeq	r0, r0, ip, lsl r0
     888:	000000e4 	andeq	r0, r0, r4, ror #1
     88c:	00540001 	subseq	r0, r4, r1
	...
     898:	04000000 	streq	r0, [r0], #-0
     89c:	01000000 	mrseq	r0, (UNDEF: 0)
     8a0:	00045200 	andeq	r5, r4, r0, lsl #4
     8a4:	00200000 	eoreq	r0, r0, r0
     8a8:	00040000 	andeq	r0, r4, r0
     8ac:	9f5201f3 	svcls	0x005201f3
	...
     8bc:	0000000c 	andeq	r0, r0, ip
     8c0:	0c500001 	mrrceq	0, 0, r0, r0, cr1	; <UNPREDICTABLE>
     8c4:	14000000 	strne	r0, [r0], #-0
     8c8:	03000000 	movweq	r0, #0
     8cc:	9f017300 	svcls	0x00017300
     8d0:	00000014 	andeq	r0, r0, r4, lsl r0
     8d4:	00000020 	andeq	r0, r0, r0, lsr #32
     8d8:	00530001 	subseq	r0, r3, r1
     8dc:	00000000 	andeq	r0, r0, r0
     8e0:	2c000000 	stccs	0, cr0, [r0], {-0}
     8e4:	38000000 	stmdacc	r0, {}	; <UNPREDICTABLE>
     8e8:	01000000 	mrseq	r0, (UNDEF: 0)
     8ec:	00385000 	eorseq	r5, r8, r0
     8f0:	00480000 	subeq	r0, r8, r0
     8f4:	00010000 	andeq	r0, r1, r0
     8f8:	00004855 	andeq	r4, r0, r5, asr r8
     8fc:	00005800 	andeq	r5, r0, r0, lsl #16
     900:	50000100 	andpl	r0, r0, r0, lsl #2
	...
     910:	0000000b 	andeq	r0, r0, fp
     914:	0b500001 	bleq	1400920 <__bss_end__+0x13f67c8>
     918:	14000000 	strne	r0, [r0], #-0
     91c:	01000000 	mrseq	r0, (UNDEF: 0)
     920:	00005400 	andeq	r5, r0, r0, lsl #8
	...
     92c:	00100000 	andseq	r0, r0, r0
     930:	00010000 	andeq	r0, r1, r0
     934:	00001050 	andeq	r1, r0, r0, asr r0
     938:	00003400 	andeq	r3, r0, r0, lsl #8
     93c:	54000100 	strpl	r0, [r0], #-256	; 0x100
	...
     94c:	00000004 	andeq	r0, r0, r4
     950:	04500001 	ldrbeq	r0, [r0], #-1
     954:	0c000000 	stceq	0, cr0, [r0], {-0}
     958:	03000000 	movweq	r0, #0
     95c:	9f307000 	svcls	0x00307000
     960:	0000000c 	andeq	r0, r0, ip
     964:	00000014 	andeq	r0, r0, r4, lsl r0
     968:	01f30004 	mvnseq	r0, r4
     96c:	00009f50 	andeq	r9, r0, r0, asr pc
     970:	00000000 	andeq	r0, r0, r0
     974:	00140000 	andseq	r0, r4, r0
     978:	00200000 	eoreq	r0, r0, r0
     97c:	00010000 	andeq	r0, r1, r0
     980:	00002050 	andeq	r2, r0, r0, asr r0
     984:	00002c00 	andeq	r2, r0, r0, lsl #24
     988:	70000300 	andvc	r0, r0, r0, lsl #6
     98c:	002c9f01 	eoreq	r9, ip, r1, lsl #30
     990:	00400000 	subeq	r0, r0, r0
     994:	00010000 	andeq	r0, r1, r0
     998:	00000050 	andeq	r0, r0, r0, asr r0
     99c:	00000000 	andeq	r0, r0, r0
     9a0:	00001400 	andeq	r1, r0, r0, lsl #8
     9a4:	00001800 	andeq	r1, r0, r0, lsl #16
     9a8:	51000100 	mrspl	r0, (UNDEF: 16)
     9ac:	00000018 	andeq	r0, r0, r8, lsl r0
     9b0:	00000040 	andeq	r0, r0, r0, asr #32
     9b4:	01f30004 	mvnseq	r0, r4
     9b8:	00009f51 	andeq	r9, r0, r1, asr pc
     9bc:	00000000 	andeq	r0, r0, r0
     9c0:	00400000 	subeq	r0, r0, r0
     9c4:	00600000 	rsbeq	r0, r0, r0
     9c8:	00010000 	andeq	r0, r1, r0
     9cc:	00006050 	andeq	r6, r0, r0, asr r0
     9d0:	00006c00 	andeq	r6, r0, r0, lsl #24
     9d4:	71000300 	mrsvc	r0, LR_irq
     9d8:	006c9f01 	rsbeq	r9, ip, r1, lsl #30
     9dc:	00740000 	rsbseq	r0, r4, r0
     9e0:	00010000 	andeq	r0, r1, r0
     9e4:	00007451 	andeq	r7, r0, r1, asr r4
     9e8:	00008000 	andeq	r8, r0, r0
     9ec:	71000300 	mrsvc	r0, LR_irq
     9f0:	00009f01 	andeq	r9, r0, r1, lsl #30
     9f4:	00000000 	andeq	r0, r0, r0
     9f8:	00400000 	subeq	r0, r0, r0
     9fc:	00500000 	subseq	r0, r0, r0
     a00:	00010000 	andeq	r0, r1, r0
     a04:	00005051 	andeq	r5, r0, r1, asr r0
     a08:	00008000 	andeq	r8, r0, r0
     a0c:	f3000400 	vshl.u8	d0, d0, d0
     a10:	009f5101 	addseq	r5, pc, r1, lsl #2
     a14:	00000000 	andeq	r0, r0, r0
     a18:	40000000 	andmi	r0, r0, r0
     a1c:	58000000 	stmdapl	r0, {}	; <UNPREDICTABLE>
     a20:	01000000 	mrseq	r0, (UNDEF: 0)
     a24:	00585200 	subseq	r5, r8, r0, lsl #4
     a28:	00640000 	rsbeq	r0, r4, r0
     a2c:	00010000 	andeq	r0, r1, r0
     a30:	00006452 	andeq	r6, r0, r2, asr r4
     a34:	00006800 	andeq	r6, r0, r0, lsl #16
     a38:	72000300 	andvc	r0, r0, #0, 6
     a3c:	00689f01 	rsbeq	r9, r8, r1, lsl #30
     a40:	00800000 	addeq	r0, r0, r0
     a44:	00010000 	andeq	r0, r1, r0
     a48:	00000052 	andeq	r0, r0, r2, asr r0
     a4c:	00000000 	andeq	r0, r0, r0
     a50:	00004000 	andeq	r4, r0, r0
     a54:	00005400 	andeq	r5, r0, r0, lsl #8
     a58:	53000100 	movwpl	r0, #256	; 0x100
     a5c:	00000054 	andeq	r0, r0, r4, asr r0
     a60:	00000078 	andeq	r0, r0, r8, ror r0
     a64:	00530001 	subseq	r0, r3, r1
     a68:	00000000 	andeq	r0, r0, r0
     a6c:	48000000 	stmdami	r0, {}	; <UNPREDICTABLE>
     a70:	60000000 	andvs	r0, r0, r0
     a74:	01000000 	mrseq	r0, (UNDEF: 0)
     a78:	00605c00 	rsbeq	r5, r0, r0, lsl #24
     a7c:	00800000 	addeq	r0, r0, r0
     a80:	000a0000 	andeq	r0, sl, r0
     a84:	f35201f3 	vbsl	q8, q9, <illegal reg q9.5>
     a88:	231c5301 	tstcs	ip, #67108864	; 0x4000000
     a8c:	00009f01 	andeq	r9, r0, r1, lsl #30
     a90:	00000000 	andeq	r0, r0, r0
     a94:	00800000 	addeq	r0, r0, r0
     a98:	00a40000 	adceq	r0, r4, r0
     a9c:	00010000 	andeq	r0, r1, r0
     aa0:	0000a450 	andeq	sl, r0, r0, asr r4
     aa4:	00011800 	andeq	r1, r1, r0, lsl #16
     aa8:	70000300 	andvc	r0, r0, r0, lsl #6
     aac:	01189f02 	tsteq	r8, r2, lsl #30
     ab0:	02300000 	eorseq	r0, r0, #0
     ab4:	00040000 	andeq	r0, r4, r0
     ab8:	9f5001f3 	svcls	0x005001f3
	...
     ac4:	00000080 	andeq	r0, r0, r0, lsl #1
     ac8:	000000f0 	strdeq	r0, [r0], -r0	; <UNPREDICTABLE>
     acc:	f0510001 			; <UNDEFINED> instruction: 0xf0510001
     ad0:	60000000 	andvs	r0, r0, r0
     ad4:	01000001 	tsteq	r0, r1
     ad8:	01605500 	cmneq	r0, r0, lsl #10
     adc:	016c0000 	cmneq	ip, r0
     ae0:	00010000 	andeq	r0, r1, r0
     ae4:	00016c51 	andeq	r6, r1, r1, asr ip
     ae8:	0001a000 	andeq	sl, r1, r0
     aec:	55000100 	strpl	r0, [r0, #-256]	; 0x100
     af0:	000001a0 	andeq	r0, r0, r0, lsr #3
     af4:	000001b4 			; <UNDEFINED> instruction: 0x000001b4
     af8:	b4510001 	ldrblt	r0, [r1], #-1
     afc:	d4000001 	strle	r0, [r0], #-1
     b00:	01000001 	tsteq	r0, r1
     b04:	01d45500 	bicseq	r5, r4, r0, lsl #10
     b08:	01d70000 	bicseq	r0, r7, r0
     b0c:	00010000 	andeq	r0, r1, r0
     b10:	0001d751 	andeq	sp, r1, r1, asr r7
     b14:	00021400 	andeq	r1, r2, r0, lsl #8
     b18:	55000100 	strpl	r0, [r0, #-256]	; 0x100
     b1c:	00000214 	andeq	r0, r0, r4, lsl r2
     b20:	00000230 	andeq	r0, r0, r0, lsr r2
     b24:	01f30004 	mvnseq	r0, r4
     b28:	00009f51 	andeq	r9, r0, r1, asr pc
     b2c:	00000000 	andeq	r0, r0, r0
     b30:	00800000 	addeq	r0, r0, r0
     b34:	00940000 	addseq	r0, r4, r0
     b38:	00010000 	andeq	r0, r1, r0
     b3c:	00009452 	andeq	r9, r0, r2, asr r4
     b40:	00021400 	andeq	r1, r2, r0, lsl #8
     b44:	54000100 	strpl	r0, [r0], #-256	; 0x100
     b48:	00000214 	andeq	r0, r0, r4, lsl r2
     b4c:	00000230 	andeq	r0, r0, r0, lsr r2
     b50:	01f30004 	mvnseq	r0, r4
     b54:	00009f52 	andeq	r9, r0, r2, asr pc
     b58:	00000000 	andeq	r0, r0, r0
     b5c:	00800000 	addeq	r0, r0, r0
     b60:	01000000 	mrseq	r0, (UNDEF: 0)
     b64:	00010000 	andeq	r0, r1, r0
     b68:	00010453 	andeq	r0, r1, r3, asr r4
     b6c:	00010800 	andeq	r0, r1, r0, lsl #16
     b70:	53000100 	movwpl	r0, #256	; 0x100
     b74:	00000160 	andeq	r0, r0, r0, ror #2
     b78:	00000164 	andeq	r0, r0, r4, ror #2
     b7c:	64530001 	ldrbvs	r0, [r3], #-1
     b80:	6c000001 	stcvs	0, cr0, [r0], {1}
     b84:	01000001 	tsteq	r0, r1
     b88:	016c5c00 	cmneq	ip, r0, lsl #24
     b8c:	01a00000 	moveq	r0, r0
     b90:	00040000 	andeq	r0, r4, r0
     b94:	9f5301f3 	svcls	0x005301f3
     b98:	000001a0 	andeq	r0, r0, r0, lsr #3
     b9c:	000001b0 			; <UNDEFINED> instruction: 0x000001b0
     ba0:	b0530001 	subslt	r0, r3, r1
     ba4:	b4000001 	strlt	r0, [r0], #-1
     ba8:	01000001 	tsteq	r0, r1
     bac:	01b45c00 			; <UNDEFINED> instruction: 0x01b45c00
     bb0:	01d40000 	bicseq	r0, r4, r0
     bb4:	00040000 	andeq	r0, r4, r0
     bb8:	9f5301f3 	svcls	0x005301f3
     bbc:	000001d4 	ldrdeq	r0, [r0], -r4
     bc0:	000001d7 	ldrdeq	r0, [r0], -r7
     bc4:	d7530001 	ldrble	r0, [r3, -r1]
     bc8:	f0000001 			; <UNDEFINED> instruction: 0xf0000001
     bcc:	04000001 	streq	r0, [r0], #-1
     bd0:	5301f300 	movwpl	pc, #4864	; 0x1300	; <UNPREDICTABLE>
     bd4:	0000009f 	muleq	r0, pc, r0	; <UNPREDICTABLE>
     bd8:	00000000 	andeq	r0, r0, r0
     bdc:	00008000 	andeq	r8, r0, r0
     be0:	00009c00 	andeq	r9, r0, r0, lsl #24
     be4:	91000200 	mrsls	r0, R8_usr
     be8:	00009c00 	andeq	r9, r0, r0, lsl #24
     bec:	0001d700 	andeq	sp, r1, r0, lsl #14
     bf0:	52000100 	andpl	r0, r0, #0, 2
     bf4:	000001f0 	strdeq	r0, [r0], -r0	; <UNPREDICTABLE>
     bf8:	000001f7 	strdeq	r0, [r0], -r7
     bfc:	00520001 	subseq	r0, r2, r1
     c00:	00000000 	andeq	r0, r0, r0
     c04:	9c000000 	stcls	0, cr0, [r0], {-0}
     c08:	18000000 	stmdane	r0, {}	; <UNPREDICTABLE>
     c0c:	01000001 	tsteq	r0, r1
     c10:	01185d00 	tsteq	r8, r0, lsl #26
     c14:	011c0000 	tsteq	ip, r0
     c18:	00010000 	andeq	r0, r1, r0
     c1c:	00011c50 	andeq	r1, r1, r0, asr ip
     c20:	00012000 	andeq	r2, r1, r0
     c24:	51000100 	mrspl	r0, (UNDEF: 16)
     c28:	00000120 	andeq	r0, r0, r0, lsr #2
     c2c:	00000160 	andeq	r0, r0, r0, ror #2
     c30:	60500001 	subsvs	r0, r0, r1
     c34:	6c000001 	stcvs	0, cr0, [r0], {1}
     c38:	01000001 	tsteq	r0, r1
     c3c:	016c5d00 	cmneq	ip, r0, lsl #26
     c40:	01700000 	cmneq	r0, r0
     c44:	00010000 	andeq	r0, r1, r0
     c48:	00017050 	andeq	r7, r1, r0, asr r0
     c4c:	00017400 	andeq	r7, r1, r0, lsl #8
     c50:	53000100 	movwpl	r0, #256	; 0x100
     c54:	00000174 	andeq	r0, r0, r4, ror r1
     c58:	00000188 	andeq	r0, r0, r8, lsl #3
     c5c:	88500001 	ldmdahi	r0, {r0}^
     c60:	94000001 	strls	r0, [r0], #-1
     c64:	03000001 	movweq	r0, #1
     c68:	9f017000 	svcls	0x00017000
     c6c:	00000194 	muleq	r0, r4, r1
     c70:	000001a0 	andeq	r0, r0, r0, lsr #3
     c74:	a0500001 	subsge	r0, r0, r1
     c78:	a8000001 	stmdage	r0, {r0}
     c7c:	04000001 	streq	r0, [r0], #-1
     c80:	7fa19100 	svcvc	0x00a19100
     c84:	0001a89f 	muleq	r1, pc, r8	; <UNPREDICTABLE>
     c88:	0001ac00 	andeq	sl, r1, r0, lsl #24
     c8c:	50000100 	andpl	r0, r0, r0, lsl #2
     c90:	000001ac 	andeq	r0, r0, ip, lsr #3
     c94:	000001b4 			; <UNDEFINED> instruction: 0x000001b4
     c98:	b45d0001 	ldrblt	r0, [sp], #-1
     c9c:	b8000001 	stmdalt	r0, {r0}
     ca0:	01000001 	tsteq	r0, r1
     ca4:	01b85300 			; <UNDEFINED> instruction: 0x01b85300
     ca8:	01d40000 	bicseq	r0, r4, r0
     cac:	00010000 	andeq	r0, r1, r0
     cb0:	0001d450 	andeq	sp, r1, r0, asr r4
     cb4:	0001f000 	andeq	pc, r1, r0
     cb8:	5d000100 	stfpls	f0, [r0, #-0]
     cbc:	000001f0 	strdeq	r0, [r0], -r0	; <UNPREDICTABLE>
     cc0:	000001f7 	strdeq	r0, [r0], -r7
     cc4:	00500001 	subseq	r0, r0, r1
     cc8:	00000000 	andeq	r0, r0, r0
     ccc:	a0000000 	andge	r0, r0, r0
     cd0:	ec000000 	stc	0, cr0, [r0], {-0}
     cd4:	01000000 	mrseq	r0, (UNDEF: 0)
     cd8:	00ec5c00 	rsceq	r5, ip, r0, lsl #24
     cdc:	01000000 	mrseq	r0, (UNDEF: 0)
     ce0:	00010000 	andeq	r0, r1, r0
     ce4:	00010053 	andeq	r0, r1, r3, asr r0
     ce8:	00010400 	andeq	r0, r1, r0, lsl #8
     cec:	5c000100 	stfpls	f0, [r0], {-0}
     cf0:	00000104 	andeq	r0, r0, r4, lsl #2
     cf4:	00000108 	andeq	r0, r0, r8, lsl #2
     cf8:	08530001 	ldmdaeq	r3, {r0}^
     cfc:	60000001 	andvs	r0, r0, r1
     d00:	01000001 	tsteq	r0, r1
     d04:	01605c00 	cmneq	r0, r0, lsl #24
     d08:	01640000 	cmneq	r4, r0
     d0c:	00010000 	andeq	r0, r1, r0
     d10:	00016453 	andeq	r6, r1, r3, asr r4
     d14:	00018000 	andeq	r8, r1, r0
     d18:	5c000100 	stfpls	f0, [r0], {-0}
     d1c:	00000180 	andeq	r0, r0, r0, lsl #3
     d20:	00000184 	andeq	r0, r0, r4, lsl #3
     d24:	007c0005 	rsbseq	r0, ip, r5
     d28:	849f2534 	ldrhi	r2, [pc], #1332	; d30 <_start-0x72d0>
     d2c:	a0000001 	andge	r0, r0, r1
     d30:	01000001 	tsteq	r0, r1
     d34:	01a05c00 	lsleq	r5, r0, #24
     d38:	01b00000 	movseq	r0, r0
     d3c:	00010000 	andeq	r0, r1, r0
     d40:	0001b053 	andeq	fp, r1, r3, asr r0
     d44:	0001c400 	andeq	ip, r1, r0, lsl #8
     d48:	5c000100 	stfpls	f0, [r0], {-0}
     d4c:	000001c4 	andeq	r0, r0, r4, asr #3
     d50:	000001cc 	andeq	r0, r0, ip, asr #3
     d54:	007c0005 	rsbseq	r0, ip, r5
     d58:	cc9f2531 	cfldr32gt	mvfx2, [pc], {49}	; 0x31
     d5c:	d4000001 	strle	r0, [r0], #-1
     d60:	01000001 	tsteq	r0, r1
     d64:	01d45c00 	bicseq	r5, r4, r0, lsl #24
     d68:	01d70000 	bicseq	r0, r7, r0
     d6c:	00010000 	andeq	r0, r1, r0
     d70:	0001d753 	andeq	sp, r1, r3, asr r7
     d74:	0001f000 	andeq	pc, r1, r0
     d78:	f3000400 	vshl.u8	d0, d0, d0
     d7c:	f09f5301 			; <UNDEFINED> instruction: 0xf09f5301
     d80:	f7000001 			; <UNDEFINED> instruction: 0xf7000001
     d84:	01000001 	tsteq	r0, r1
     d88:	00005c00 	andeq	r5, r0, r0, lsl #24
     d8c:	00000000 	andeq	r0, r0, r0
     d90:	00ec0000 	rsceq	r0, ip, r0
     d94:	00fc0000 	rscseq	r0, ip, r0
     d98:	00020000 	andeq	r0, r2, r0
     d9c:	00fc9f30 	rscseq	r9, ip, r0, lsr pc
     da0:	01040000 	mrseq	r0, (UNDEF: 4)
     da4:	00020000 	andeq	r0, r2, r0
     da8:	01049f31 	tsteq	r4, r1, lsr pc
     dac:	01080000 	mrseq	r0, (UNDEF: 8)
     db0:	00020000 	andeq	r0, r2, r0
     db4:	00009f30 	andeq	r9, r0, r0, lsr pc
     db8:	00000000 	andeq	r0, r0, r0
     dbc:	02300000 	eorseq	r0, r0, #0
     dc0:	023f0000 	eorseq	r0, pc, #0
     dc4:	00010000 	andeq	r0, r1, r0
     dc8:	00023f50 	andeq	r3, r2, r0, asr pc
     dcc:	00025800 	andeq	r5, r2, r0, lsl #16
     dd0:	f3000400 	vshl.u8	d0, d0, d0
     dd4:	589f5001 	ldmpl	pc, {r0, ip, lr}	; <UNPREDICTABLE>
     dd8:	84000002 	strhi	r0, [r0], #-2
     ddc:	01000002 	tsteq	r0, r2
     de0:	00005000 	andeq	r5, r0, r0
     de4:	00000000 	andeq	r0, r0, r0
     de8:	02300000 	eorseq	r0, r0, #0
     dec:	023f0000 	eorseq	r0, pc, #0
     df0:	00010000 	andeq	r0, r1, r0
     df4:	00023f51 	andeq	r3, r2, r1, asr pc
     df8:	00025800 	andeq	r5, r2, r0, lsl #16
     dfc:	f3000400 	vshl.u8	d0, d0, d0
     e00:	589f5101 	ldmpl	pc, {r0, r8, ip, lr}	; <UNPREDICTABLE>
     e04:	84000002 	strhi	r0, [r0], #-2
     e08:	01000002 	tsteq	r0, r2
     e0c:	00005100 	andeq	r5, r0, r0, lsl #2
     e10:	00000000 	andeq	r0, r0, r0
     e14:	02840000 	addeq	r0, r4, #0
     e18:	02b00000 	adcseq	r0, r0, #0
     e1c:	00010000 	andeq	r0, r1, r0
     e20:	0002b050 	andeq	fp, r2, r0, asr r0
     e24:	0004f800 	andeq	pc, r4, r0, lsl #16
     e28:	5a000100 	bpl	1230 <_start-0x6dd0>
     e2c:	000004f8 	strdeq	r0, [r0], -r8
     e30:	0000050c 	andeq	r0, r0, ip, lsl #10
     e34:	01f30004 	mvnseq	r0, r4
     e38:	00009f50 	andeq	r9, r0, r0, asr pc
     e3c:	00000000 	andeq	r0, r0, r0
     e40:	02840000 	addeq	r0, r4, #0
     e44:	02980000 	addseq	r0, r8, #0
     e48:	00010000 	andeq	r0, r1, r0
     e4c:	00029851 	andeq	r9, r2, r1, asr r8
     e50:	0002b000 	andeq	fp, r2, r0
     e54:	71000300 	mrsvc	r0, LR_irq
     e58:	02b09f01 	adcseq	r9, r0, #1, 30
     e5c:	050c0000 	streq	r0, [ip, #-0]
     e60:	00040000 	andeq	r0, r4, r0
     e64:	9f5101f3 	svcls	0x005101f3
	...
     e70:	00000284 	andeq	r0, r0, r4, lsl #5
     e74:	000002b8 			; <UNDEFINED> instruction: 0x000002b8
     e78:	b8520001 	ldmdalt	r2, {r0}^
     e7c:	e0000002 	and	r0, r0, r2
     e80:	01000002 	tsteq	r0, r2
     e84:	02e05200 	rsceq	r5, r0, #0, 4
     e88:	04a80000 	strteq	r0, [r8], #0
     e8c:	00010000 	andeq	r0, r1, r0
     e90:	0004a856 	andeq	sl, r4, r6, asr r8
     e94:	00050c00 	andeq	r0, r5, r0, lsl #24
     e98:	52000100 	andpl	r0, r0, #0, 2
	...
     ea4:	00000284 	andeq	r0, r0, r4, lsl #5
     ea8:	000002a0 	andeq	r0, r0, r0, lsr #5
     eac:	00530001 	subseq	r0, r3, r1
     eb0:	00000000 	andeq	r0, r0, r0
     eb4:	94000000 	strls	r0, [r0], #-0
     eb8:	b0000002 	andlt	r0, r0, r2
     ebc:	01000002 	tsteq	r0, r2
     ec0:	02b05000 	adcseq	r5, r0, #0
     ec4:	02b40000 	adcseq	r0, r4, #0
     ec8:	00010000 	andeq	r0, r1, r0
     ecc:	0002b454 	andeq	fp, r2, r4, asr r4
     ed0:	0002c000 	andeq	ip, r2, r0
     ed4:	74000300 	strvc	r0, [r0], #-768	; 0x300
     ed8:	02c09f01 	sbceq	r9, r0, #1, 30
     edc:	02cc0000 	sbceq	r0, ip, #0
     ee0:	00010000 	andeq	r0, r1, r0
     ee4:	0002cc54 	andeq	ip, r2, r4, asr ip
     ee8:	0002d800 	andeq	sp, r2, r0, lsl #16
     eec:	74000300 	strvc	r0, [r0], #-768	; 0x300
     ef0:	02d89f01 	sbcseq	r9, r8, #1, 30
     ef4:	04ac0000 	strteq	r0, [ip], #0
     ef8:	00010000 	andeq	r0, r1, r0
     efc:	0004ac54 	andeq	sl, r4, r4, asr ip
     f00:	0004b800 	andeq	fp, r4, r0, lsl #16
     f04:	74000300 	strvc	r0, [r0], #-768	; 0x300
     f08:	04b89f01 	ldrteq	r9, [r8], #3841	; 0xf01
     f0c:	04e40000 	strbteq	r0, [r4], #0
     f10:	00010000 	andeq	r0, r1, r0
     f14:	0004e454 	andeq	lr, r4, r4, asr r4
     f18:	0004f000 	andeq	pc, r4, r0
     f1c:	50000100 	andpl	r0, r0, r0, lsl #2
     f20:	000004f0 	strdeq	r0, [r0], -r0	; <UNPREDICTABLE>
     f24:	000004f8 	strdeq	r0, [r0], -r8
     f28:	01740003 	cmneq	r4, r3
     f2c:	0000009f 	muleq	r0, pc, r0	; <UNPREDICTABLE>
     f30:	00000000 	andeq	r0, r0, r0
     f34:	00029c00 	andeq	r9, r2, r0, lsl #24
     f38:	0004f800 	andeq	pc, r4, r0, lsl #16
     f3c:	58000100 	stmdapl	r0, {r8}
     f40:	000004f8 	strdeq	r0, [r0], -r8
     f44:	0000050c 	andeq	r0, r0, ip, lsl #10
     f48:	01f3000a 	mvnseq	r0, sl
     f4c:	5001f351 	andpl	pc, r1, r1, asr r3	; <UNPREDICTABLE>
     f50:	9f1c3122 	svcls	0x001c3122
	...
     f5c:	000003e0 	andeq	r0, r0, r0, ror #7
     f60:	000003e4 	andeq	r0, r0, r4, ror #7
     f64:	04500001 	ldrbeq	r0, [r0], #-1
     f68:	08000004 	stmdaeq	r0, {r2}
     f6c:	01000004 	tsteq	r0, r4
     f70:	04285000 	strteq	r5, [r8], #-0
     f74:	042c0000 	strteq	r0, [ip], #-0
     f78:	00010000 	andeq	r0, r1, r0
     f7c:	00044c50 	andeq	r4, r4, r0, asr ip
     f80:	00045000 	andeq	r5, r4, r0
     f84:	50000100 	andpl	r0, r0, r0, lsl #2
     f88:	00000458 	andeq	r0, r0, r8, asr r4
     f8c:	0000045c 	andeq	r0, r0, ip, asr r4
     f90:	7c500001 	mrrcvc	0, 0, r0, r0, cr1	; <UNPREDICTABLE>
     f94:	80000004 	andhi	r0, r0, r4
     f98:	01000004 	tsteq	r0, r4
     f9c:	04a45000 	strteq	r5, [r4], #0
     fa0:	04cc0000 	strbeq	r0, [ip], #0
     fa4:	00010000 	andeq	r0, r1, r0
     fa8:	00000050 	andeq	r0, r0, r0, asr r0
     fac:	00000000 	andeq	r0, r0, r0
     fb0:	0002e000 	andeq	lr, r2, r0
     fb4:	0002e800 	andeq	lr, r2, r0, lsl #16
     fb8:	30000200 	andcc	r0, r0, r0, lsl #4
     fbc:	0002e89f 	muleq	r2, pc, r8	; <UNPREDICTABLE>
     fc0:	0002ec00 	andeq	lr, r2, r0, lsl #24
     fc4:	57000100 	strpl	r0, [r0, -r0, lsl #2]
     fc8:	000002f8 	strdeq	r0, [r0], -r8
     fcc:	000004cc 	andeq	r0, r0, ip, asr #9
     fd0:	00570001 	subseq	r0, r7, r1
     fd4:	00000000 	andeq	r0, r0, r0
     fd8:	14000000 	strne	r0, [r0], #-0
     fdc:	1c000000 	stcne	0, cr0, [r0], {-0}
     fe0:	03000000 	movweq	r0, #0
     fe4:	9f047300 	svcls	0x00047300
     fe8:	0000001c 	andeq	r0, r0, ip, lsl r0
     fec:	00000027 	andeq	r0, r0, r7, lsr #32
     ff0:	00530001 	subseq	r0, r3, r1
     ff4:	00000000 	andeq	r0, r0, r0
     ff8:	d4000000 	strle	r0, [r0], #-0
     ffc:	d8000090 	stmdale	r0, {r4, r7}
    1000:	02000090 	andeq	r0, r0, #144	; 0x90
    1004:	d89f3000 	ldmle	pc, {ip, sp}	; <UNPREDICTABLE>
    1008:	dc000090 	stcle	0, cr0, [r0], {144}	; 0x90
    100c:	01000090 	swpeq	r0, r0, [r0]	; <UNPREDICTABLE>
    1010:	00005000 	andeq	r5, r0, r0
    1014:	00000000 	andeq	r0, r0, r0
    1018:	90ec0000 	rscls	r0, ip, r0
    101c:	90f00000 	rscsls	r0, r0, r0
    1020:	00020000 	andeq	r0, r2, r0
    1024:	90f09f30 	rscsls	r9, r0, r0, lsr pc
    1028:	90f40000 	rscsls	r0, r4, r0
    102c:	00010000 	andeq	r0, r1, r0
    1030:	0090f853 	addseq	pc, r0, r3, asr r8	; <UNPREDICTABLE>
    1034:	00910000 	addseq	r0, r1, r0
    1038:	53000100 	movwpl	r0, #256	; 0x100
	...
    1048:	00000004 	andeq	r0, r0, r4
    104c:	04500001 	ldrbeq	r0, [r0], #-1
    1050:	0c000000 	stceq	0, cr0, [r0], {-0}
    1054:	01000000 	mrseq	r0, (UNDEF: 0)
    1058:	000c5300 	andeq	r5, ip, r0, lsl #6
    105c:	00100000 	andseq	r0, r0, r0
    1060:	00010000 	andeq	r0, r1, r0
    1064:	00001050 	andeq	r1, r0, r0, asr r0
    1068:	00001c00 	andeq	r1, r0, r0, lsl #24
    106c:	53000100 	movwpl	r0, #256	; 0x100
	...
    1078:	0000003c 	andeq	r0, r0, ip, lsr r0
    107c:	00000047 	andeq	r0, r0, r7, asr #32
    1080:	47500001 	ldrbmi	r0, [r0, -r1]
    1084:	60000000 	andvs	r0, r0, r0
    1088:	01000000 	mrseq	r0, (UNDEF: 0)
    108c:	00005500 	andeq	r5, r0, r0, lsl #10
    1090:	00000000 	andeq	r0, r0, r0
    1094:	00500000 	subseq	r0, r0, r0
    1098:	00540000 	subseq	r0, r4, r0
    109c:	00010000 	andeq	r0, r1, r0
    10a0:	00000050 	andeq	r0, r0, r0, asr r0
    10a4:	00000000 	andeq	r0, r0, r0
    10a8:	00006000 	andeq	r6, r0, r0
    10ac:	00006c00 	andeq	r6, r0, r0, lsl #24
    10b0:	50000100 	andpl	r0, r0, r0, lsl #2
    10b4:	0000006c 	andeq	r0, r0, ip, rrx
    10b8:	00000074 	andeq	r0, r0, r4, ror r0
    10bc:	01f30004 	mvnseq	r0, r4
    10c0:	00009f50 	andeq	r9, r0, r0, asr pc
    10c4:	00000000 	andeq	r0, r0, r0
    10c8:	00740000 	rsbseq	r0, r4, r0
    10cc:	00800000 	addeq	r0, r0, r0
    10d0:	00010000 	andeq	r0, r1, r0
    10d4:	00008050 	andeq	r8, r0, r0, asr r0
    10d8:	00008800 	andeq	r8, r0, r0, lsl #16
    10dc:	f3000400 	vshl.u8	d0, d0, d0
    10e0:	009f5001 	addseq	r5, pc, r1
    10e4:	00000000 	andeq	r0, r0, r0
    10e8:	38000000 	stmdacc	r0, {}	; <UNPREDICTABLE>
    10ec:	43000001 	movwmi	r0, #1
    10f0:	01000001 	tsteq	r0, r1
    10f4:	01435000 	mrseq	r5, (UNDEF: 67)
    10f8:	01680000 	cmneq	r8, r0
    10fc:	00010000 	andeq	r0, r1, r0
    1100:	00000054 	andeq	r0, r0, r4, asr r0
	...
    110c:	00000f00 	andeq	r0, r0, r0, lsl #30
    1110:	50000100 	andpl	r0, r0, r0, lsl #2
    1114:	0000000f 	andeq	r0, r0, pc
    1118:	00000020 	andeq	r0, r0, r0, lsr #32
    111c:	00540001 	subseq	r0, r4, r1
	...
    1128:	0f000000 	svceq	0x00000000
    112c:	01000000 	mrseq	r0, (UNDEF: 0)
    1130:	000f5100 	andeq	r5, pc, r0, lsl #2
    1134:	00200000 	eoreq	r0, r0, r0
    1138:	00010000 	andeq	r0, r1, r0
    113c:	00000055 	andeq	r0, r0, r5, asr r0
    1140:	00000000 	andeq	r0, r0, r0
    1144:	0000ec00 	andeq	lr, r0, r0, lsl #24
    1148:	00010400 	andeq	r0, r1, r0, lsl #8
    114c:	50000100 	andpl	r0, r0, r0, lsl #2
    1150:	00000104 	andeq	r0, r0, r4, lsl #2
    1154:	00000114 	andeq	r0, r0, r4, lsl r1
    1158:	01f30004 	mvnseq	r0, r4
    115c:	01149f50 	tsteq	r4, r0, asr pc
    1160:	01180000 	tsteq	r8, r0
    1164:	00010000 	andeq	r0, r1, r0
    1168:	00011850 	andeq	r1, r1, r0, asr r8
    116c:	00012000 	andeq	r2, r1, r0
    1170:	f3000400 	vshl.u8	d0, d0, d0
    1174:	009f5001 	addseq	r5, pc, r1
    1178:	00000000 	andeq	r0, r0, r0
    117c:	f8000000 			; <UNDEFINED> instruction: 0xf8000000
    1180:	04000000 	streq	r0, [r0], #-0
    1184:	0b000001 	bleq	1190 <_start-0x6e70>
    1188:	35007000 	strcc	r7, [r0, #-0]
    118c:	80b42325 	adcshi	r2, r4, r5, lsr #6
    1190:	9f028180 	svcls	0x00028180
    1194:	00000104 	andeq	r0, r0, r4, lsl #2
    1198:	00000107 	andeq	r0, r0, r7, lsl #2
    119c:	07500001 	ldrbeq	r0, [r0, -r1]
    11a0:	14000001 	strne	r0, [r0], #-1
    11a4:	0c000001 	stceq	0, cr0, [r0], {1}
    11a8:	5001f300 	andpl	pc, r1, r0, lsl #6
    11ac:	b4232535 	strtlt	r2, [r3], #-1333	; 0x535
    11b0:	02818080 	addeq	r8, r1, #128	; 0x80
    11b4:	0000009f 	muleq	r0, pc, r0	; <UNPREDICTABLE>
    11b8:	00000000 	andeq	r0, r0, r0
    11bc:	0000fc00 	andeq	pc, r0, r0, lsl #24
    11c0:	00011400 	andeq	r1, r1, r0, lsl #8
    11c4:	54000100 	strpl	r0, [r0], #-256	; 0x100
	...
    11d0:	000000d0 	ldrdeq	r0, [r0], -r0	; <UNPREDICTABLE>
    11d4:	000000df 	ldrdeq	r0, [r0], -pc	; <UNPREDICTABLE>
    11d8:	df500001 	svcle	0x00500001
    11dc:	e4000000 	str	r0, [r0], #-0
    11e0:	04000000 	streq	r0, [r0], #-0
    11e4:	5001f300 	andpl	pc, r1, r0, lsl #6
    11e8:	0000e49f 	muleq	r0, pc, r4	; <UNPREDICTABLE>
    11ec:	0000e700 	andeq	lr, r0, r0, lsl #14
    11f0:	50000100 	andpl	r0, r0, r0, lsl #2
    11f4:	000000e7 	andeq	r0, r0, r7, ror #1
    11f8:	000000ec 	andeq	r0, r0, ip, ror #1
    11fc:	01f30004 	mvnseq	r0, r4
    1200:	00009f50 	andeq	r9, r0, r0, asr pc
    1204:	00000000 	andeq	r0, r0, r0
    1208:	00d00000 	sbcseq	r0, r0, r0
    120c:	00df0000 	sbcseq	r0, pc, r0
    1210:	00010000 	andeq	r0, r1, r0
    1214:	0000df51 	andeq	sp, r0, r1, asr pc
    1218:	0000e400 	andeq	lr, r0, r0, lsl #8
    121c:	f3000400 	vshl.u8	d0, d0, d0
    1220:	e49f5101 	ldr	r5, [pc], #257	; 1228 <_start-0x6dd8>
    1224:	e7000000 	str	r0, [r0, -r0]
    1228:	01000000 	mrseq	r0, (UNDEF: 0)
    122c:	00e75100 	rsceq	r5, r7, r0, lsl #2
    1230:	00ec0000 	rsceq	r0, ip, r0
    1234:	00040000 	andeq	r0, r4, r0
    1238:	9f5101f3 	svcls	0x005101f3
	...
    1244:	000000c0 	andeq	r0, r0, r0, asr #1
    1248:	000000cb 	andeq	r0, r0, fp, asr #1
    124c:	cb500001 	blgt	1401258 <__bss_end__+0x13f7100>
    1250:	d0000000 	andle	r0, r0, r0
    1254:	04000000 	streq	r0, [r0], #-0
    1258:	5001f300 	andpl	pc, r1, r0, lsl #6
    125c:	0000009f 	muleq	r0, pc, r0	; <UNPREDICTABLE>
    1260:	00000000 	andeq	r0, r0, r0
    1264:	00009c00 	andeq	r9, r0, r0, lsl #24
    1268:	0000b400 	andeq	fp, r0, r0, lsl #8
    126c:	50000100 	andpl	r0, r0, r0, lsl #2
    1270:	000000b4 	strheq	r0, [r0], -r4
    1274:	000000c0 	andeq	r0, r0, r0, asr #1
    1278:	01f30004 	mvnseq	r0, r4
    127c:	00009f50 	andeq	r9, r0, r0, asr pc
    1280:	00000000 	andeq	r0, r0, r0
    1284:	00780000 	rsbseq	r0, r8, r0
    1288:	00900000 	addseq	r0, r0, r0
    128c:	00010000 	andeq	r0, r1, r0
    1290:	00009050 	andeq	r9, r0, r0, asr r0
    1294:	00009c00 	andeq	r9, r0, r0, lsl #24
    1298:	f3000400 	vshl.u8	d0, d0, d0
    129c:	009f5001 	addseq	r5, pc, r1
    12a0:	00000000 	andeq	r0, r0, r0
    12a4:	68000000 	stmdavs	r0, {}	; <UNPREDICTABLE>
    12a8:	73000000 	movwvc	r0, #0
    12ac:	01000000 	mrseq	r0, (UNDEF: 0)
    12b0:	00735000 	rsbseq	r5, r3, r0
    12b4:	00780000 	rsbseq	r0, r8, r0
    12b8:	00040000 	andeq	r0, r4, r0
    12bc:	9f5001f3 	svcls	0x005001f3
	...
    12cc:	00000048 	andeq	r0, r0, r8, asr #32
    12d0:	48500001 	ldmdami	r0, {r0}^
    12d4:	68000000 	stmdavs	r0, {}	; <UNPREDICTABLE>
    12d8:	04000000 	streq	r0, [r0], #-0
    12dc:	5001f300 	andpl	pc, r1, r0, lsl #6
    12e0:	0000009f 	muleq	r0, pc, r0	; <UNPREDICTABLE>
	...
    12ec:	00004b00 	andeq	r4, r0, r0, lsl #22
    12f0:	51000100 	mrspl	r0, (UNDEF: 16)
    12f4:	0000004b 	andeq	r0, r0, fp, asr #32
    12f8:	00000068 	andeq	r0, r0, r8, rrx
    12fc:	01f30004 	mvnseq	r0, r4
    1300:	00009f51 	andeq	r9, r0, r1, asr pc
    1304:	00000000 	andeq	r0, r0, r0
    1308:	004c0000 	subeq	r0, ip, r0
    130c:	00540000 	subseq	r0, r4, r0
    1310:	00010000 	andeq	r0, r1, r0
    1314:	00005450 	andeq	r5, r0, r0, asr r4
    1318:	00005800 	andeq	r5, r0, r0, lsl #16
    131c:	75000900 	strvc	r0, [r0, #-2304]	; 0x900
    1320:	24007400 	strcs	r7, [r0], #-1024	; 0x400
    1324:	9f210071 	svcls	0x00210071
    1328:	00000058 	andeq	r0, r0, r8, asr r0
    132c:	0000005f 	andeq	r0, r0, pc, asr r0
    1330:	00510001 	subseq	r0, r1, r1
    1334:	00000000 	andeq	r0, r0, r0
    1338:	e0000000 	and	r0, r0, r0
    133c:	1b000000 	blne	1344 <_start-0x6cbc>
    1340:	01000001 	tsteq	r0, r1
    1344:	011b5000 	tsteq	fp, r0
    1348:	01200000 	teqeq	r0, r0
    134c:	00040000 	andeq	r0, r4, r0
    1350:	9f5001f3 	svcls	0x005001f3
    1354:	00000120 	andeq	r0, r0, r0, lsr #2
    1358:	00000123 	andeq	r0, r0, r3, lsr #2
    135c:	23500001 	cmpcs	r0, #1
    1360:	3c000001 	stccc	0, cr0, [r0], {1}
    1364:	04000001 	streq	r0, [r0], #-1
    1368:	5001f300 	andpl	pc, r1, r0, lsl #6
    136c:	00013c9f 	muleq	r1, pc, ip	; <UNPREDICTABLE>
    1370:	00013f00 	andeq	r3, r1, r0, lsl #30
    1374:	50000100 	andpl	r0, r0, r0, lsl #2
    1378:	0000013f 	andeq	r0, r0, pc, lsr r1
    137c:	0000016c 	andeq	r0, r0, ip, ror #2
    1380:	01f30004 	mvnseq	r0, r4
    1384:	00009f50 	andeq	r9, r0, r0, asr pc
    1388:	00000000 	andeq	r0, r0, r0
    138c:	00e00000 	rsceq	r0, r0, r0
    1390:	01080000 	mrseq	r0, (UNDEF: 8)
    1394:	00010000 	andeq	r0, r1, r0
    1398:	00010851 	andeq	r0, r1, r1, asr r8
    139c:	00011b00 	andeq	r1, r1, r0, lsl #22
    13a0:	71000300 	mrsvc	r0, LR_irq
    13a4:	011b9f01 	tsteq	fp, r1, lsl #30
    13a8:	01200000 	teqeq	r0, r0
    13ac:	00040000 	andeq	r0, r4, r0
    13b0:	9f5101f3 	svcls	0x005101f3
    13b4:	00000120 	andeq	r0, r0, r0, lsr #2
    13b8:	00000123 	andeq	r0, r0, r3, lsr #2
    13bc:	23510001 	cmpcs	r1, #1
    13c0:	6c000001 	stcvs	0, cr0, [r0], {1}
    13c4:	04000001 	streq	r0, [r0], #-1
    13c8:	5101f300 	mrspl	pc, SP_irq	; <UNPREDICTABLE>
    13cc:	0000009f 	muleq	r0, pc, r0	; <UNPREDICTABLE>
    13d0:	00000000 	andeq	r0, r0, r0
    13d4:	0000f800 	andeq	pc, r0, r0, lsl #16
    13d8:	0000fc00 	andeq	pc, r0, r0, lsl #24
    13dc:	52000100 	andpl	r0, r0, #0, 2
    13e0:	000000fc 	strdeq	r0, [r0], -ip
    13e4:	00000104 	andeq	r0, r0, r4, lsl #2
    13e8:	6c030005 	stcvs	0, cr0, [r3], {5}
    13ec:	04000096 	streq	r0, [r0], #-150	; 0x96
    13f0:	1b000001 	blne	13fc <_start-0x6c04>
    13f4:	01000001 	tsteq	r0, r1
    13f8:	013c5300 	teqeq	ip, r0, lsl #6
    13fc:	013f0000 	teqeq	pc, r0
    1400:	00010000 	andeq	r0, r1, r0
    1404:	00000053 	andeq	r0, r0, r3, asr r0
    1408:	00000000 	andeq	r0, r0, r0
    140c:	00006c00 	andeq	r6, r0, r0, lsl #24
    1410:	00008000 	andeq	r8, r0, r0
    1414:	50000100 	andpl	r0, r0, r0, lsl #2
    1418:	00000080 	andeq	r0, r0, r0, lsl #1
    141c:	0000009b 	muleq	r0, fp, r0
    1420:	9b520001 	blls	148142c <__bss_end__+0x14772d4>
    1424:	a4000000 	strge	r0, [r0], #-0
    1428:	09000000 	stmdbeq	r0, {}	; <UNPREDICTABLE>
    142c:	5001f300 	andpl	pc, r1, r0, lsl #6
    1430:	f8090723 			; <UNDEFINED> instruction: 0xf8090723
    1434:	00a49f1a 	adceq	r9, r4, sl, lsl pc
    1438:	00a70000 	adceq	r0, r7, r0
    143c:	00010000 	andeq	r0, r1, r0
    1440:	0000a750 	andeq	sl, r0, r0, asr r7
    1444:	0000d000 	andeq	sp, r0, r0
    1448:	f3000400 	vshl.u8	d0, d0, d0
    144c:	009f5001 	addseq	r5, pc, r1
    1450:	00000000 	andeq	r0, r0, r0
    1454:	88000000 	stmdahi	r0, {}	; <UNPREDICTABLE>
    1458:	a4000000 	strge	r0, [r0], #-0
    145c:	01000000 	mrseq	r0, (UNDEF: 0)
    1460:	00005400 	andeq	r5, r0, r0, lsl #8
    1464:	00000000 	andeq	r0, r0, r0
    1468:	001c0000 	andseq	r0, ip, r0
    146c:	00430000 	subeq	r0, r3, r0
    1470:	00010000 	andeq	r0, r1, r0
    1474:	00004350 	andeq	r4, r0, r0, asr r3
    1478:	00006c00 	andeq	r6, r0, r0, lsl #24
    147c:	f3000400 	vshl.u8	d0, d0, d0
    1480:	009f5001 	addseq	r5, pc, r1
    1484:	00000000 	andeq	r0, r0, r0
    1488:	1c000000 	stcne	0, cr0, [r0], {-0}
    148c:	43000000 	movwmi	r0, #0
    1490:	01000000 	mrseq	r0, (UNDEF: 0)
    1494:	00435000 	subeq	r5, r3, r0
    1498:	006c0000 	rsbeq	r0, ip, r0
    149c:	00040000 	andeq	r0, r4, r0
    14a0:	9f5001f3 	svcls	0x005001f3
	...

Disassembly of section .debug_aranges:

00000000 <.debug_aranges>:
   0:	0000001c 	andeq	r0, r0, ip, lsl r0
   4:	00000002 	andeq	r0, r0, r2
   8:	00040000 	andeq	r0, r4, r0
   c:	00000000 	andeq	r0, r0, r0
  10:	00008010 	andeq	r8, r0, r0, lsl r0
  14:	000001b4 			; <UNDEFINED> instruction: 0x000001b4
	...
  20:	0000001c 	andeq	r0, r0, ip, lsl r0
  24:	040a0002 	streq	r0, [sl], #-2
  28:	00040000 	andeq	r0, r4, r0
  2c:	00000000 	andeq	r0, r0, r0
  30:	000081c4 	andeq	r8, r0, r4, asr #3
  34:	00000768 	andeq	r0, r0, r8, ror #14
	...
  40:	0000001c 	andeq	r0, r0, ip, lsl r0
  44:	129f0002 	addsne	r0, pc, #2
  48:	00040000 	andeq	r0, r4, r0
  4c:	00000000 	andeq	r0, r0, r0
  50:	0000892c 	andeq	r8, r0, ip, lsr #18
  54:	000000f0 	strdeq	r0, [r0], -r0	; <UNPREDICTABLE>
	...
  60:	0000001c 	andeq	r0, r0, ip, lsl r0
  64:	13b50002 			; <UNDEFINED> instruction: 0x13b50002
  68:	00040000 	andeq	r0, r4, r0
  6c:	00000000 	andeq	r0, r0, r0
  70:	00008a1c 	andeq	r8, r0, ip, lsl sl
  74:	00000020 	andeq	r0, r0, r0, lsr #32
	...
  80:	0000001c 	andeq	r0, r0, ip, lsl r0
  84:	14940002 	ldrne	r0, [r4], #2
  88:	00040000 	andeq	r0, r4, r0
  8c:	00000000 	andeq	r0, r0, r0
  90:	00008a3c 	andeq	r8, r0, ip, lsr sl
  94:	00000058 	andeq	r0, r0, r8, asr r0
	...
  a0:	0000001c 	andeq	r0, r0, ip, lsl r0
  a4:	16290002 	strtne	r0, [r9], -r2
  a8:	00040000 	andeq	r0, r4, r0
  ac:	00000000 	andeq	r0, r0, r0
  b0:	00008a94 	muleq	r0, r4, sl
  b4:	0000003c 	andeq	r0, r0, ip, lsr r0
	...
  c0:	0000001c 	andeq	r0, r0, ip, lsl r0
  c4:	17400002 	strbne	r0, [r0, -r2]
  c8:	00040000 	andeq	r0, r4, r0
  cc:	00000000 	andeq	r0, r0, r0
  d0:	00008ad0 	ldrdeq	r8, [r0], -r0
  d4:	00000034 	andeq	r0, r0, r4, lsr r0
	...
  e0:	0000001c 	andeq	r0, r0, ip, lsl r0
  e4:	18320002 	ldmdane	r2!, {r1}
  e8:	00040000 	andeq	r0, r4, r0
  ec:	00000000 	andeq	r0, r0, r0
  f0:	00008b04 	andeq	r8, r0, r4, lsl #22
  f4:	00000068 	andeq	r0, r0, r8, rrx
	...
 100:	0000001c 	andeq	r0, r0, ip, lsl r0
 104:	19320002 	ldmdbne	r2!, {r1}
 108:	00040000 	andeq	r0, r4, r0
 10c:	00000000 	andeq	r0, r0, r0
 110:	00008b6c 	andeq	r8, r0, ip, ror #22
 114:	0000050c 	andeq	r0, r0, ip, lsl #10
	...
 120:	0000001c 	andeq	r0, r0, ip, lsl r0
 124:	1fb70002 	svcne	0x00b70002
 128:	00040000 	andeq	r0, r4, r0
 12c:	00000000 	andeq	r0, r0, r0
 130:	00009078 	andeq	r9, r0, r8, ror r0
 134:	00000028 	andeq	r0, r0, r8, lsr #32
	...
 140:	0000001c 	andeq	r0, r0, ip, lsl r0
 144:	20ba0002 	adcscs	r0, sl, r2
 148:	00040000 	andeq	r0, r4, r0
 14c:	00000000 	andeq	r0, r0, r0
 150:	000090a0 	andeq	r9, r0, r0, lsr #1
 154:	00000034 	andeq	r0, r0, r4, lsr r0
	...
 160:	0000001c 	andeq	r0, r0, ip, lsl r0
 164:	21bd0002 			; <UNDEFINED> instruction: 0x21bd0002
 168:	00040000 	andeq	r0, r4, r0
 16c:	00000000 	andeq	r0, r0, r0
 170:	000090d4 	ldrdeq	r9, [r0], -r4
 174:	00000074 	andeq	r0, r0, r4, ror r0
	...
 180:	0000001c 	andeq	r0, r0, ip, lsl r0
 184:	236e0002 	cmncs	lr, #2
 188:	00040000 	andeq	r0, r4, r0
 18c:	00000000 	andeq	r0, r0, r0
 190:	00009148 	andeq	r9, r0, r8, asr #2
 194:	00000088 	andeq	r0, r0, r8, lsl #1
	...
 1a0:	0000001c 	andeq	r0, r0, ip, lsl r0
 1a4:	254a0002 	strbcs	r0, [sl, #-2]
 1a8:	00040000 	andeq	r0, r4, r0
 1ac:	00000000 	andeq	r0, r0, r0
 1b0:	0000921c 	andeq	r9, r0, ip, lsl r2
 1b4:	00000178 	andeq	r0, r0, r8, ror r1
	...
 1c0:	0000001c 	andeq	r0, r0, ip, lsl r0
 1c4:	32130002 	andscc	r0, r3, #2
 1c8:	00040000 	andeq	r0, r4, r0
 1cc:	00000000 	andeq	r0, r0, r0
 1d0:	00009394 	muleq	r0, r4, r3
 1d4:	00000120 	andeq	r0, r0, r0, lsr #2
	...
 1e0:	0000001c 	andeq	r0, r0, ip, lsl r0
 1e4:	3d870002 	stccc	0, cr0, [r7, #8]
 1e8:	00040000 	andeq	r0, r4, r0
 1ec:	00000000 	andeq	r0, r0, r0
 1f0:	000094b4 			; <UNDEFINED> instruction: 0x000094b4
 1f4:	00000194 	muleq	r0, r4, r1
	...

Disassembly of section .debug_line:

00000000 <.debug_line>:
       0:	00000138 	andeq	r0, r0, r8, lsr r1
       4:	00e90002 	rsceq	r0, r9, r2
       8:	01020000 	mrseq	r0, (UNDEF: 2)
       c:	000d0efb 	strdeq	r0, [sp], -fp
      10:	01010101 	tsteq	r1, r1, lsl #2
      14:	01000000 	mrseq	r0, (UNDEF: 0)
      18:	2f010000 	svccs	0x00010000
      1c:	72657355 	rsbvc	r7, r5, #1409286145	; 0x54000001
      20:	72622f73 	rsbvc	r2, r2, #460	; 0x1cc
      24:	6a6e6169 	bvs	1b985d0 <__bss_end__+0x1b8e478>
      28:	442f6e75 	strtmi	r6, [pc], #-3701	; 30 <_start-0x7fd0>
      2c:	746b7365 	strbtvc	r7, [fp], #-869	; 0x365
      30:	732f706f 	teqvc	pc, #111	; 0x6f
      34:	6f6f6863 	svcvs	0x006f6863
      38:	70532f6c 	subsvc	r2, r3, ip, ror #30
      3c:	676e6972 			; <UNDEFINED> instruction: 0x676e6972
      40:	30323931 	eorscc	r3, r2, r1, lsr r9
      44:	3253432f 	subscc	r4, r3, #-1140850688	; 0xbc000000
      48:	584c3034 	stmdapl	ip, {r2, r4, r5, ip, sp}^
      4c:	3273632f 	rsbscc	r6, r3, #-1140850688	; 0xbc000000
      50:	786c3034 	stmdavc	ip!, {r2, r4, r5, ip, sp}^
      54:	7330322d 	teqvc	r0, #-805306366	; 0xd0000002
      58:	6c2f7270 	sfmvs	f7, 4, [pc], #-448	; fffffea0 <__bss_end__+0xffff5d48>
      5c:	69706269 	ldmdbvs	r0!, {r0, r3, r5, r6, r9, sp, lr}^
      60:	636e692f 	cmnvs	lr, #770048	; 0xbc000
      64:	6564756c 	strbvs	r7, [r4, #-1388]!	; 0x56c
      68:	73752f00 	cmnvc	r5, #0, 30
      6c:	6f6c2f72 	svcvs	0x006c2f72
      70:	2f6c6163 	svccs	0x006c6163
      74:	6c6c6543 	cfstr64vs	mvdx6, [ip], #-268	; 0xfffffef4
      78:	612f7261 	teqvs	pc, r1, ror #4
      7c:	6e2d6d72 	mcrvs	13, 1, r6, cr13, cr2, {3}
      80:	2d656e6f 	stclcs	14, cr6, [r5, #-444]!	; 0xfffffe44
      84:	69626165 	stmdbvs	r2!, {r0, r2, r5, r6, r8, sp, lr}^
      88:	382e342f 	stmdacc	lr!, {r0, r1, r2, r3, r5, sl, ip, sp}
      8c:	632d332e 	teqvs	sp, #-1207959552	; 0xb8000000
      90:	30373173 	eorscc	r3, r7, r3, ror r1
      94:	696c2f65 	stmdbvs	ip!, {r0, r2, r5, r6, r8, r9, sl, fp, sp}^
      98:	63672f62 	cmnvs	r7, #392	; 0x188
      9c:	72612f63 	rsbvc	r2, r1, #396	; 0x18c
      a0:	6f6e2d6d 	svcvs	0x006e2d6d
      a4:	652d656e 	strvs	r6, [sp, #-1390]!	; 0x56e
      a8:	2f696261 	svccs	0x00696261
      ac:	2e382e34 	mrccs	14, 1, r2, cr8, cr4, {1}
      b0:	6e692f33 	mcrvs	15, 3, r2, cr9, cr3, {1}
      b4:	64756c63 	ldrbtvs	r6, [r5], #-3171	; 0xc63
      b8:	70000065 	andvc	r0, r0, r5, rrx
      bc:	31747261 	cmncc	r4, r1, ror #4
      c0:	7365742d 	cmnvc	r5, #754974720	; 0x2d000000
      c4:	632e3674 	teqvs	lr, #116, 12	; 0x7400000
      c8:	00000000 	andeq	r0, r0, r0
      cc:	6c616b63 	stclvs	11, cr6, [r1], #-396	; 0xfffffe74
      d0:	2e636f6c 	cdpcs	15, 6, cr6, cr3, cr12, {3}
      d4:	00000068 	andeq	r0, r0, r8, rrx
      d8:	69707200 	ldmdbvs	r0!, {r9, ip, sp, lr}^
      dc:	0100682e 	tsteq	r0, lr, lsr #16
      e0:	74730000 	ldrbtvc	r0, [r3], #-0
      e4:	746e6964 	strbtvc	r6, [lr], #-2404	; 0x964
      e8:	6363672d 	cmnvs	r3, #11796480	; 0xb40000
      ec:	0200682e 	andeq	r6, r0, #3014656	; 0x2e0000
      f0:	00000000 	andeq	r0, r0, r0
      f4:	80100205 	andshi	r0, r0, r5, lsl #4
      f8:	4b160000 	blmi	580100 <__bss_end__+0x575fa8>
      fc:	30894c4d 	addcc	r4, r9, sp, asr #24
     100:	04020064 	streq	r0, [r2], #-100	; 0x64
     104:	02002f02 	andeq	r2, r0, #2, 30
     108:	00bb0204 	adcseq	r0, fp, r4, lsl #4
     10c:	9c020402 	cfstrsls	mvf0, [r2], {2}
     110:	01040200 	mrseq	r0, R12_usr
     114:	6c062e06 	stcvs	14, cr2, [r6], {6}
     118:	02040200 	andeq	r0, r4, #0, 4
     11c:	02008206 	andeq	r8, r0, #1610612736	; 0x60000000
     120:	d5060204 	strle	r0, [r6, #-516]	; 0x204
     124:	01040200 	mrseq	r0, R12_usr
     128:	4d062e06 	stcmi	14, cr2, [r6, #-24]	; 0xffffffe8
     12c:	d7a0d867 	strle	sp, [r0, r7, ror #16]!
     130:	d8678367 	stmdale	r7!, {r0, r1, r2, r5, r6, r8, r9, pc}^
     134:	0283d867 	addeq	sp, r3, #6750208	; 0x670000
     138:	01010018 	tsteq	r1, r8, lsl r0
     13c:	0000028c 	andeq	r0, r0, ip, lsl #5
     140:	019b0002 	orrseq	r0, fp, r2
     144:	01020000 	mrseq	r0, (UNDEF: 2)
     148:	000d0efb 	strdeq	r0, [sp], -fp
     14c:	01010101 	tsteq	r1, r1, lsl #2
     150:	01000000 	mrseq	r0, (UNDEF: 0)
     154:	2f010000 	svccs	0x00010000
     158:	2f727375 	svccs	0x00727375
     15c:	61636f6c 	cmnvs	r3, ip, ror #30
     160:	65432f6c 	strbvs	r2, [r3, #-3948]	; 0xf6c
     164:	72616c6c 	rsbvc	r6, r1, #108, 24	; 0x6c00
     168:	6d72612f 	ldfvse	f6, [r2, #-188]!	; 0xffffff44
     16c:	6e6f6e2d 	cdpvs	14, 6, cr6, cr15, cr13, {1}
     170:	61652d65 	cmnvs	r5, r5, ror #26
     174:	342f6962 	strtcc	r6, [pc], #-2402	; 17c <_start-0x7e84>
     178:	332e382e 	teqcc	lr, #3014656	; 0x2e0000
     17c:	3173632d 	cmncc	r3, sp, lsr #6
     180:	2f653037 	svccs	0x00653037
     184:	2f62696c 	svccs	0x0062696c
     188:	2f636367 	svccs	0x00636367
     18c:	2d6d7261 	sfmcs	f7, 2, [sp, #-388]!	; 0xfffffe7c
     190:	656e6f6e 	strbvs	r6, [lr, #-3950]!	; 0xf6e
     194:	6261652d 	rsbvs	r6, r1, #188743680	; 0xb400000
     198:	2e342f69 	cdpcs	15, 3, cr2, cr4, cr9, {3}
     19c:	2f332e38 	svccs	0x00332e38
     1a0:	6c636e69 	stclvs	14, cr6, [r3], #-420	; 0xfffffe5c
     1a4:	00656475 	rsbeq	r6, r5, r5, ror r4
     1a8:	6573552f 	ldrbvs	r5, [r3, #-1327]!	; 0x52f
     1ac:	622f7372 	eorvs	r7, pc, #-939524095	; 0xc8000001
     1b0:	6e616972 	mcrvs	9, 3, r6, cr1, cr2, {3}
     1b4:	2f6e756a 	svccs	0x006e756a
     1b8:	6b736544 	blvs	1cd96d0 <__bss_end__+0x1ccf578>
     1bc:	2f706f74 	svccs	0x00706f74
     1c0:	6f686373 	svcvs	0x00686373
     1c4:	532f6c6f 	teqpl	pc, #28416	; 0x6f00
     1c8:	6e697270 	mcrvs	2, 3, r7, cr9, cr0, {3}
     1cc:	32393167 	eorscc	r3, r9, #-1073741799	; 0xc0000019
     1d0:	53432f30 	movtpl	r2, #16176	; 0x3f30
     1d4:	4c303432 	cfldrsmi	mvf3, [r0], #-200	; 0xffffff38
     1d8:	73632f58 	cmnvc	r3, #88, 30	; 0x160
     1dc:	6c303432 	cfldrsvs	mvf3, [r0], #-200	; 0xffffff38
     1e0:	30322d78 	eorscc	r2, r2, r8, ror sp
     1e4:	2f727073 	svccs	0x00727073
     1e8:	7062696c 	rsbvc	r6, r2, ip, ror #18
     1ec:	6e692f69 	cdpvs	15, 6, cr2, cr9, cr9, {3}
     1f0:	64756c63 	ldrbtvs	r6, [r5], #-3171	; 0xc63
     1f4:	752f0065 	strvc	r0, [pc, #-101]!	; 197 <_start-0x7e69>
     1f8:	6c2f7273 	sfmvs	f7, 4, [pc], #-460	; 34 <_start-0x7fcc>
     1fc:	6c61636f 	stclvs	3, cr6, [r1], #-444	; 0xfffffe44
     200:	6c65432f 	stclvs	3, cr4, [r5], #-188	; 0xffffff44
     204:	2f72616c 	svccs	0x0072616c
     208:	2d6d7261 	sfmcs	f7, 2, [sp, #-388]!	; 0xfffffe7c
     20c:	656e6f6e 	strbvs	r6, [lr, #-3950]!	; 0xf6e
     210:	6261652d 	rsbvs	r6, r1, #188743680	; 0xb400000
     214:	2e342f69 	cdpcs	15, 3, cr2, cr4, cr9, {3}
     218:	2d332e38 	ldccs	14, cr2, [r3, #-224]!	; 0xffffff20
     21c:	37317363 	ldrcc	r7, [r1, -r3, ror #6]!
     220:	612f6530 	teqvs	pc, r0, lsr r5	; <UNPREDICTABLE>
     224:	6e2d6d72 	mcrvs	13, 1, r6, cr13, cr2, {3}
     228:	2d656e6f 	stclcs	14, cr6, [r5, #-444]!	; 0xfffffe44
     22c:	69626165 	stmdbvs	r2!, {r0, r2, r5, r6, r8, sp, lr}^
     230:	636e692f 	cmnvs	lr, #770048	; 0xbc000
     234:	6564756c 	strbvs	r7, [r4, #-1388]!	; 0x56c
     238:	73552f00 	cmpvc	r5, #0, 30
     23c:	2f737265 	svccs	0x00737265
     240:	61697262 	cmnvs	r9, r2, ror #4
     244:	6e756a6e 	vsubvs.f32	s13, s10, s29
     248:	7365442f 	cmnvc	r5, #788529152	; 0x2f000000
     24c:	706f746b 	rsbvc	r7, pc, fp, ror #8
     250:	6863732f 	stmdavs	r3!, {r0, r1, r2, r3, r5, r8, r9, ip, sp, lr}^
     254:	2f6c6f6f 	svccs	0x006c6f6f
     258:	69727053 	ldmdbvs	r2!, {r0, r1, r4, r6, ip, sp, lr}^
     25c:	3931676e 	ldmdbcc	r1!, {r1, r2, r3, r5, r6, r8, r9, sl, sp, lr}
     260:	432f3032 	teqmi	pc, #50	; 0x32
     264:	30343253 	eorscc	r3, r4, r3, asr r2
     268:	632f584c 	teqvs	pc, #76, 16	; 0x4c0000
     26c:	30343273 	eorscc	r3, r4, r3, ror r2
     270:	322d786c 	eorcc	r7, sp, #108, 16	; 0x6c0000
     274:	72707330 	rsbsvc	r7, r0, #48, 6	; 0xc0000000
     278:	62696c2f 	rsbvs	r6, r9, #12032	; 0x2f00
     27c:	6c2f6970 	stcvs	9, cr6, [pc], #-448	; c4 <_start-0x7f3c>
     280:	00636269 	rsbeq	r6, r3, r9, ror #4
     284:	616b6300 	cmnvs	fp, r0, lsl #6
     288:	636f6c6c 	cmnvs	pc, #108, 24	; 0x6c00
     28c:	0000632e 	andeq	r6, r0, lr, lsr #6
     290:	6b630000 	blvs	18c0298 <__bss_end__+0x18b6140>
     294:	6f6c6c61 	svcvs	0x006c6c61
     298:	00682e63 	rsbeq	r2, r8, r3, ror #28
     29c:	73000000 	movwvc	r0, #0
     2a0:	65646474 	strbvs	r6, [r4, #-1140]!	; 0x474
     2a4:	00682e66 	rsbeq	r2, r8, r6, ror #28
     2a8:	73000001 	movwvc	r0, #1
     2ac:	6e696474 	mcrvs	4, 3, r6, cr9, cr4, {3}
     2b0:	63672d74 	cmnvs	r7, #116, 26	; 0x1d00
     2b4:	00682e63 	rsbeq	r2, r8, r3, ror #28
     2b8:	72000001 	andvc	r0, r0, #1
     2bc:	682e6970 	stmdavs	lr!, {r4, r5, r6, r8, fp, sp, lr}
     2c0:	00000200 	andeq	r0, r0, r0, lsl #4
     2c4:	69727473 	ldmdbvs	r2!, {r0, r1, r4, r5, r6, sl, ip, sp, lr}^
     2c8:	682e676e 	stmdavs	lr!, {r1, r2, r3, r5, r6, r8, r9, sl, sp, lr}
     2cc:	00000300 	andeq	r0, r0, r0, lsl #6
     2d0:	6362696c 	cmnvs	r2, #108, 18	; 0x1b0000
     2d4:	7478652d 	ldrbtvc	r6, [r8], #-1325	; 0x52d
     2d8:	682e6172 	stmdavs	lr!, {r1, r4, r5, r6, r8, sp, lr}
     2dc:	00000400 	andeq	r0, r0, r0, lsl #8
     2e0:	02050000 	andeq	r0, r5, #0
     2e4:	000081c4 	andeq	r8, r0, r4, asr #3
     2e8:	01011203 	tsteq	r1, r3, lsl #4
     2ec:	4a682e4c 	bmi	1a0bc24 <__bss_end__+0x1a01acc>
     2f0:	14690184 	strbtne	r0, [r9], #-388	; 0x184
     2f4:	4c4a1503 	cfstr64mi	mvdx1, [sl], {3}
     2f8:	2f67834b 	svccs	0x0067834b
     2fc:	1d030204 	sfmne	f0, 4, [r3, #-16]
     300:	67a02008 	strvs	r2, [r0, r8]!
     304:	0104bbd9 	ldrdeq	fp, [r4, -r9]
     308:	45d65d03 	ldrbmi	r5, [r6, #3331]	; 0xd03
     30c:	01040200 	mrseq	r0, R12_usr
     310:	52062e06 	andpl	r2, r6, #6, 28	; 0x60
     314:	4bd76a47 	blmi	ff5dac38 <__bss_end__+0xff5d0ae0>
     318:	4b666103 	blmi	199872c <__bss_end__+0x198e5d4>
     31c:	304b4b2f 	subcc	r4, fp, pc, lsr #22
     320:	674b4b31 	smlaldxvs	r4, fp, r1, fp
     324:	04020067 	streq	r0, [r2], #-103	; 0x67
     328:	06660601 	strbteq	r0, [r6], -r1, lsl #12
     32c:	040200d7 	streq	r0, [r2], #-215	; 0xd7
     330:	06820601 	streq	r0, [r2], r1, lsl #12
     334:	f21803d8 	vcge.s16	q0, q12, q4
     338:	f349304c 	vhadd.u8	<illegal reg q9.5>, <illegal reg q4.5>, q6
     33c:	03132402 	tsteq	r3, #33554432	; 0x2000000
     340:	672e7fbb 			; <UNDEFINED> instruction: 0x672e7fbb
     344:	01040200 	mrseq	r0, R12_usr
     348:	d7068206 	strle	r8, [r6, -r6, lsl #4]
     34c:	c8036783 	stmdagt	r3, {r0, r1, r7, r8, r9, sl, sp, lr}
     350:	00a0f200 	adceq	pc, r0, r0, lsl #4
     354:	06010402 	streq	r0, [r1], -r2, lsl #8
     358:	a0d70682 	sbcsge	r0, r7, r2, lsl #13
     35c:	4c6a6968 	stclmi	9, cr6, [sl], #-416	; 0xfffffe60
     360:	302f2f68 	eorcc	r2, pc, r8, ror #30
     364:	00be4008 	adcseq	r4, lr, r8
     368:	06010402 	streq	r0, [r1], -r2, lsl #8
     36c:	a0d70682 	sbcsge	r0, r7, r2, lsl #13
     370:	084b314b 	stmdaeq	fp, {r0, r1, r3, r6, r8, ip, sp}^
     374:	2a02bb92 	bcs	af1c4 <__bss_end__+0xa506c>
     378:	4c4b2f18 	mcrrmi	15, 1, r2, fp, cr8
     37c:	4b302f2f 	blmi	c0c040 <__bss_end__+0xc01ee8>
     380:	8368302f 	cmnhi	r8, #47	; 0x2f
     384:	006883f4 	strdeq	r8, [r8], #-52	; 0xffffffcc	; <UNPREDICTABLE>
     388:	06010402 	streq	r0, [r1], -r2, lsl #8
     38c:	00d70682 	sbcseq	r0, r7, r2, lsl #13
     390:	06010402 	streq	r0, [r1], -r2, lsl #8
     394:	d8d70682 	ldmle	r7, {r1, r7, r9, sl}^
     398:	2f172202 	svccs	0x00172202
     39c:	2cbf4c83 	ldccs	12, cr4, [pc], #524	; 5b0 <_start-0x7a50>
     3a0:	0b03322d 	bleq	ccc5c <__bss_end__+0xc2b04>
     3a4:	4a75032e 	bmi	1d41064 <__bss_end__+0x1d36f0c>
     3a8:	2f838330 	svccs	0x00838330
     3ac:	04020030 	streq	r0, [r2], #-48	; 0x30
     3b0:	06660601 	strbteq	r0, [r6], -r1, lsl #12
     3b4:	83f36730 	mvnshi	r6, #48, 14	; 0xc00000
     3b8:	02009f32 	andeq	r9, r0, #50, 30	; 0xc8
     3bc:	6f030104 	svcvs	0x00030104
     3c0:	6615032e 	ldrvs	r0, [r5], -lr, lsr #6
     3c4:	02a0d84b 	adceq	sp, r0, #4915200	; 0x4b0000
     3c8:	01010012 	tsteq	r1, r2, lsl r0
     3cc:	000000de 	ldrdeq	r0, [r0], -lr
     3d0:	00830002 	addeq	r0, r3, r2
     3d4:	01020000 	mrseq	r0, (UNDEF: 2)
     3d8:	000d0efb 	strdeq	r0, [sp], -fp
     3dc:	01010101 	tsteq	r1, r1, lsl #2
     3e0:	01000000 	mrseq	r0, (UNDEF: 0)
     3e4:	6c010000 	stcvs	0, cr0, [r1], {-0}
     3e8:	00636269 	rsbeq	r6, r3, r9, ror #4
     3ec:	7273752f 	rsbsvc	r7, r3, #197132288	; 0xbc00000
     3f0:	636f6c2f 	cmnvs	pc, #12032	; 0x2f00
     3f4:	432f6c61 	teqmi	pc, #24832	; 0x6100
     3f8:	616c6c65 	cmnvs	ip, r5, ror #24
     3fc:	72612f72 	rsbvc	r2, r1, #456	; 0x1c8
     400:	6f6e2d6d 	svcvs	0x006e2d6d
     404:	652d656e 	strvs	r6, [sp, #-1390]!	; 0x56e
     408:	2f696261 	svccs	0x00696261
     40c:	2e382e34 	mrccs	14, 1, r2, cr8, cr4, {1}
     410:	73632d33 	cmnvc	r3, #3264	; 0xcc0
     414:	65303731 	ldrvs	r3, [r0, #-1841]!	; 0x731
     418:	62696c2f 	rsbvs	r6, r9, #12032	; 0x2f00
     41c:	6363672f 	cmnvs	r3, #12320768	; 0xbc0000
     420:	6d72612f 	ldfvse	f6, [r2, #-188]!	; 0xffffff44
     424:	6e6f6e2d 	cdpvs	14, 6, cr6, cr15, cr13, {1}
     428:	61652d65 	cmnvs	r5, r5, ror #26
     42c:	342f6962 	strtcc	r6, [pc], #-2402	; 434 <_start-0x7bcc>
     430:	332e382e 	teqcc	lr, #3014656	; 0x2e0000
     434:	636e692f 	cmnvs	lr, #770048	; 0xbc000
     438:	6564756c 	strbvs	r7, [r4, #-1388]!	; 0x56c
     43c:	61680000 	cmnvs	r8, r0
     440:	632e6873 	teqvs	lr, #7536640	; 0x730000
     444:	00000100 	andeq	r0, r0, r0, lsl #2
     448:	69647473 	stmdbvs	r4!, {r0, r1, r4, r5, r6, sl, ip, sp, lr}^
     44c:	672d746e 	strvs	r7, [sp, -lr, ror #8]!
     450:	682e6363 	stmdavs	lr!, {r0, r1, r5, r6, r8, r9, sp, lr}
     454:	00000200 	andeq	r0, r0, r0, lsl #4
     458:	02050000 	andeq	r0, r5, #0
     45c:	0000892c 	andeq	r8, r0, ip, lsr #18
     460:	30010e03 	andcc	r0, r1, r3, lsl #28
     464:	312f8431 	teqcc	pc, r1, lsr r4	; <UNPREDICTABLE>
     468:	02040200 	andeq	r0, r4, #0, 4
     46c:	0402002f 	streq	r0, [r2], #-47	; 0x2f
     470:	02008302 	andeq	r8, r0, #134217728	; 0x8000000
     474:	00830204 	addeq	r0, r3, r4, lsl #4
     478:	2f020402 	svccs	0x00020402
     47c:	02040200 	andeq	r0, r4, #0, 4
     480:	0402002f 	streq	r0, [r2], #-47	; 0x2f
     484:	02002902 	andeq	r2, r0, #32768	; 0x8000
     488:	2e060104 	adfcss	f0, f6, f4
     48c:	4a090306 	bmi	2410ac <__bss_end__+0x236f54>
     490:	4b2f83d7 	blmi	be13f4 <__bss_end__+0xbd729c>
     494:	2f832f2f 	svccs	0x00832f2f
     498:	2f4b2f2f 	svccs	0x004b2f2f
     49c:	2f2f2f32 	svccs	0x002f2f32
     4a0:	03302f2f 	teqeq	r0, #47, 30	; 0xbc
     4a4:	27032e5a 	smlsdcs	r3, sl, lr, r2
     4a8:	0004022e 	andeq	r0, r4, lr, lsr #4
     4ac:	00ec0101 	rsceq	r0, ip, r1, lsl #2
     4b0:	00020000 	andeq	r0, r2, r0
     4b4:	000000d0 	ldrdeq	r0, [r0], -r0	; <UNPREDICTABLE>
     4b8:	0efb0102 	cdpeq	1, 15, cr0, cr11, cr2, {0}
     4bc:	0101000d 	tsteq	r1, sp
     4c0:	00000101 	andeq	r0, r0, r1, lsl #2
     4c4:	00000100 	andeq	r0, r0, r0, lsl #2
     4c8:	62696c01 	rsbvs	r6, r9, #256	; 0x100
     4cc:	752f0063 	strvc	r0, [pc, #-99]!	; 471 <_start-0x7b8f>
     4d0:	6c2f7273 	sfmvs	f7, 4, [pc], #-460	; 30c <_start-0x7cf4>
     4d4:	6c61636f 	stclvs	3, cr6, [r1], #-444	; 0xfffffe44
     4d8:	6c65432f 	stclvs	3, cr4, [r5], #-188	; 0xffffff44
     4dc:	2f72616c 	svccs	0x0072616c
     4e0:	2d6d7261 	sfmcs	f7, 2, [sp, #-388]!	; 0xfffffe7c
     4e4:	656e6f6e 	strbvs	r6, [lr, #-3950]!	; 0xf6e
     4e8:	6261652d 	rsbvs	r6, r1, #188743680	; 0xb400000
     4ec:	2e342f69 	cdpcs	15, 3, cr2, cr4, cr9, {3}
     4f0:	2d332e38 	ldccs	14, cr2, [r3, #-224]!	; 0xffffff20
     4f4:	37317363 	ldrcc	r7, [r1, -r3, ror #6]!
     4f8:	6c2f6530 	cfstr32vs	mvfx6, [pc], #-192	; 440 <_start-0x7bc0>
     4fc:	672f6269 	strvs	r6, [pc, -r9, ror #4]!
     500:	612f6363 	teqvs	pc, r3, ror #6
     504:	6e2d6d72 	mcrvs	13, 1, r6, cr13, cr2, {3}
     508:	2d656e6f 	stclcs	14, cr6, [r5, #-444]!	; 0xfffffe44
     50c:	69626165 	stmdbvs	r2!, {r0, r2, r5, r6, r8, sp, lr}^
     510:	382e342f 	stmdacc	lr!, {r0, r1, r2, r3, r5, sl, ip, sp}
     514:	692f332e 	stmdbvs	pc!, {r1, r2, r3, r5, r8, r9, ip, sp}	; <UNPREDICTABLE>
     518:	756c636e 	strbvc	r6, [ip, #-878]!	; 0x36e
     51c:	2f006564 	svccs	0x00006564
     520:	2f727375 	svccs	0x00727375
     524:	61636f6c 	cmnvs	r3, ip, ror #30
     528:	65432f6c 	strbvs	r2, [r3, #-3948]	; 0xf6c
     52c:	72616c6c 	rsbvc	r6, r1, #108, 24	; 0x6c00
     530:	6d72612f 	ldfvse	f6, [r2, #-188]!	; 0xffffff44
     534:	6e6f6e2d 	cdpvs	14, 6, cr6, cr15, cr13, {1}
     538:	61652d65 	cmnvs	r5, r5, ror #26
     53c:	342f6962 	strtcc	r6, [pc], #-2402	; 544 <_start-0x7abc>
     540:	332e382e 	teqcc	lr, #3014656	; 0x2e0000
     544:	3173632d 	cmncc	r3, sp, lsr #6
     548:	2f653037 	svccs	0x00653037
     54c:	2d6d7261 	sfmcs	f7, 2, [sp, #-388]!	; 0xfffffe7c
     550:	656e6f6e 	strbvs	r6, [lr, #-3950]!	; 0xf6e
     554:	6261652d 	rsbvs	r6, r1, #188743680	; 0xb400000
     558:	6e692f69 	cdpvs	15, 6, cr2, cr9, cr9, {3}
     55c:	64756c63 	ldrbtvs	r6, [r5], #-3171	; 0xc63
     560:	6d000065 	stcvs	0, cr0, [r0, #-404]	; 0xfffffe6c
     564:	65736d65 	ldrbvs	r6, [r3, #-3429]!	; 0xd65
     568:	00632e74 	rsbeq	r2, r3, r4, ror lr
     56c:	73000001 	movwvc	r0, #1
     570:	65646474 	strbvs	r6, [r4, #-1140]!	; 0x474
     574:	00682e66 	rsbeq	r2, r8, r6, ror #28
     578:	73000002 	movwvc	r0, #2
     57c:	6e697274 	mcrvs	2, 3, r7, cr9, cr4, {3}
     580:	00682e67 	rsbeq	r2, r8, r7, ror #28
     584:	00000003 	andeq	r0, r0, r3
     588:	1c020500 	cfstr32ne	mvfx0, [r2], {-0}
     58c:	1400008a 	strne	r0, [r0], #-138	; 0x8a
     590:	002f4c13 	eoreq	r4, pc, r3, lsl ip	; <UNPREDICTABLE>
     594:	49010402 	stmdbmi	r1, {r1, sl}
     598:	0002024d 	andeq	r0, r2, sp, asr #4
     59c:	010c0101 	tsteq	ip, r1, lsl #2
     5a0:	00020000 	andeq	r0, r2, r0
     5a4:	000000f5 	strdeq	r0, [r0], -r5
     5a8:	0efb0102 	cdpeq	1, 15, cr0, cr11, cr2, {0}
     5ac:	0101000d 	tsteq	r1, sp
     5b0:	00000101 	andeq	r0, r0, r1, lsl #2
     5b4:	00000100 	andeq	r0, r0, r0, lsl #2
     5b8:	62696c01 	rsbvs	r6, r9, #256	; 0x100
     5bc:	752f0063 	strvc	r0, [pc, #-99]!	; 561 <_start-0x7a9f>
     5c0:	6c2f7273 	sfmvs	f7, 4, [pc], #-460	; 3fc <_start-0x7c04>
     5c4:	6c61636f 	stclvs	3, cr6, [r1], #-444	; 0xfffffe44
     5c8:	6c65432f 	stclvs	3, cr4, [r5], #-188	; 0xffffff44
     5cc:	2f72616c 	svccs	0x0072616c
     5d0:	2d6d7261 	sfmcs	f7, 2, [sp, #-388]!	; 0xfffffe7c
     5d4:	656e6f6e 	strbvs	r6, [lr, #-3950]!	; 0xf6e
     5d8:	6261652d 	rsbvs	r6, r1, #188743680	; 0xb400000
     5dc:	2e342f69 	cdpcs	15, 3, cr2, cr4, cr9, {3}
     5e0:	2d332e38 	ldccs	14, cr2, [r3, #-224]!	; 0xffffff20
     5e4:	37317363 	ldrcc	r7, [r1, -r3, ror #6]!
     5e8:	6c2f6530 	cfstr32vs	mvfx6, [pc], #-192	; 530 <_start-0x7ad0>
     5ec:	672f6269 	strvs	r6, [pc, -r9, ror #4]!
     5f0:	612f6363 	teqvs	pc, r3, ror #6
     5f4:	6e2d6d72 	mcrvs	13, 1, r6, cr13, cr2, {3}
     5f8:	2d656e6f 	stclcs	14, cr6, [r5, #-444]!	; 0xfffffe44
     5fc:	69626165 	stmdbvs	r2!, {r0, r2, r5, r6, r8, sp, lr}^
     600:	382e342f 	stmdacc	lr!, {r0, r1, r2, r3, r5, sl, ip, sp}
     604:	692f332e 	stmdbvs	pc!, {r1, r2, r3, r5, r8, r9, ip, sp}	; <UNPREDICTABLE>
     608:	756c636e 	strbvc	r6, [ip, #-878]!	; 0x36e
     60c:	2f006564 	svccs	0x00006564
     610:	72657355 	rsbvc	r7, r5, #1409286145	; 0x54000001
     614:	72622f73 	rsbvc	r2, r2, #460	; 0x1cc
     618:	6a6e6169 	bvs	1b98bc4 <__bss_end__+0x1b8ea6c>
     61c:	442f6e75 	strtmi	r6, [pc], #-3701	; 624 <_start-0x79dc>
     620:	746b7365 	strbtvc	r7, [fp], #-869	; 0x365
     624:	732f706f 	teqvc	pc, #111	; 0x6f
     628:	6f6f6863 	svcvs	0x006f6863
     62c:	70532f6c 	subsvc	r2, r3, ip, ror #30
     630:	676e6972 			; <UNDEFINED> instruction: 0x676e6972
     634:	30323931 	eorscc	r3, r2, r1, lsr r9
     638:	3253432f 	subscc	r4, r3, #-1140850688	; 0xbc000000
     63c:	584c3034 	stmdapl	ip, {r2, r4, r5, ip, sp}^
     640:	3273632f 	rsbscc	r6, r3, #-1140850688	; 0xbc000000
     644:	786c3034 	stmdavc	ip!, {r2, r4, r5, ip, sp}^
     648:	7330322d 	teqvc	r0, #-805306366	; 0xd0000002
     64c:	6c2f7270 	sfmvs	f7, 4, [pc], #-448	; 494 <_start-0x7b6c>
     650:	69706269 	ldmdbvs	r0!, {r0, r3, r5, r6, r9, sp, lr}^
     654:	636e692f 	cmnvs	lr, #770048	; 0xbc000
     658:	6564756c 	strbvs	r7, [r4, #-1388]!	; 0x56c
     65c:	72700000 	rsbsvc	r0, r0, #0
     660:	6b746e69 	blvs	1d1c00c <__bss_end__+0x1d11eb4>
     664:	0100632e 	tsteq	r0, lr, lsr #6
     668:	74730000 	ldrbtvc	r0, [r3], #-0
     66c:	67726164 	ldrbvs	r6, [r2, -r4, ror #2]!
     670:	0200682e 	andeq	r6, r0, #3014656	; 0x2e0000
     674:	623c0000 	eorsvs	r0, ip, #0
     678:	746c6975 	strbtvc	r6, [ip], #-2421	; 0x975
     67c:	3e6e692d 	cdpcc	9, 6, cr6, cr14, cr13, {1}
     680:	00000000 	andeq	r0, r0, r0
     684:	2e697072 	mcrcs	0, 3, r7, cr9, cr2, {3}
     688:	00030068 	andeq	r0, r3, r8, rrx
     68c:	2d617600 	stclcs	6, cr7, [r1, #-0]
     690:	6e697270 	mcrvs	2, 3, r7, cr9, cr0, {3}
     694:	682e6b74 	stmdavs	lr!, {r2, r4, r5, r6, r8, r9, fp, sp, lr}
     698:	00000100 	andeq	r0, r0, r0, lsl #2
     69c:	02050000 	andeq	r0, r5, #0
     6a0:	00008a3c 	andeq	r8, r0, ip, lsr sl
     6a4:	bf4b6b17 	svclt	0x004b6b17
     6a8:	000e0289 	andeq	r0, lr, r9, lsl #5
     6ac:	00940101 	addseq	r0, r4, r1, lsl #2
     6b0:	00020000 	andeq	r0, r2, r0
     6b4:	0000007c 	andeq	r0, r0, ip, ror r0
     6b8:	0efb0102 	cdpeq	1, 15, cr0, cr11, cr2, {0}
     6bc:	0101000d 	tsteq	r1, sp
     6c0:	00000101 	andeq	r0, r0, r1, lsl #2
     6c4:	00000100 	andeq	r0, r0, r0, lsl #2
     6c8:	62696c01 	rsbvs	r6, r9, #256	; 0x100
     6cc:	552f0063 	strpl	r0, [pc, #-99]!	; 671 <_start-0x798f>
     6d0:	73726573 	cmnvc	r2, #482344960	; 0x1cc00000
     6d4:	6972622f 	ldmdbvs	r2!, {r0, r1, r2, r3, r5, r9, sp, lr}^
     6d8:	756a6e61 	strbvc	r6, [sl, #-3681]!	; 0xe61
     6dc:	65442f6e 	strbvs	r2, [r4, #-3950]	; 0xf6e
     6e0:	6f746b73 	svcvs	0x00746b73
     6e4:	63732f70 	cmnvs	r3, #112, 30	; 0x1c0
     6e8:	6c6f6f68 	stclvs	15, cr6, [pc], #-416	; 550 <_start-0x7ab0>
     6ec:	7270532f 	rsbsvc	r5, r0, #-1140850688	; 0xbc000000
     6f0:	31676e69 	cmncc	r7, r9, ror #28
     6f4:	2f303239 	svccs	0x00303239
     6f8:	34325343 	ldrtcc	r5, [r2], #-835	; 0x343
     6fc:	2f584c30 	svccs	0x00584c30
     700:	34327363 	ldrtcc	r7, [r2], #-867	; 0x363
     704:	2d786c30 	ldclcs	12, cr6, [r8, #-192]!	; 0xffffff40
     708:	70733032 	rsbsvc	r3, r3, r2, lsr r0
     70c:	696c2f72 	stmdbvs	ip!, {r1, r4, r5, r6, r8, r9, sl, fp, sp}^
     710:	2f697062 	svccs	0x00697062
     714:	6c636e69 	stclvs	14, cr6, [r3], #-420	; 0xfffffe5c
     718:	00656475 	rsbeq	r6, r5, r5, ror r4
     71c:	74757000 	ldrbtvc	r7, [r5], #-0
     720:	72616863 	rsbvc	r6, r1, #6488064	; 0x630000
     724:	0100632e 	tsteq	r0, lr, lsr #6
     728:	70720000 	rsbsvc	r0, r2, r0
     72c:	00682e69 	rsbeq	r2, r8, r9, ror #28
     730:	00000002 	andeq	r0, r0, r2
     734:	94020500 	strls	r0, [r2], #-1280	; 0x500
     738:	1400008a 	strne	r0, [r0], #-138	; 0x8a
     73c:	bc136b4a 	ldclt	11, cr6, [r3], {74}	; 0x4a
     740:	00080213 	andeq	r0, r8, r3, lsl r2
     744:	00a00101 	adceq	r0, r0, r1, lsl #2
     748:	00020000 	andeq	r0, r2, r0
     74c:	00000079 	andeq	r0, r0, r9, ror r0
     750:	0efb0102 	cdpeq	1, 15, cr0, cr11, cr2, {0}
     754:	0101000d 	tsteq	r1, sp
     758:	00000101 	andeq	r0, r0, r1, lsl #2
     75c:	00000100 	andeq	r0, r0, r0, lsl #2
     760:	62696c01 	rsbvs	r6, r9, #256	; 0x100
     764:	552f0063 	strpl	r0, [pc, #-99]!	; 709 <_start-0x78f7>
     768:	73726573 	cmnvc	r2, #482344960	; 0x1cc00000
     76c:	6972622f 	ldmdbvs	r2!, {r0, r1, r2, r3, r5, r9, sp, lr}^
     770:	756a6e61 	strbvc	r6, [sl, #-3681]!	; 0xe61
     774:	65442f6e 	strbvs	r2, [r4, #-3950]	; 0xf6e
     778:	6f746b73 	svcvs	0x00746b73
     77c:	63732f70 	cmnvs	r3, #112, 30	; 0x1c0
     780:	6c6f6f68 	stclvs	15, cr6, [pc], #-416	; 5e8 <_start-0x7a18>
     784:	7270532f 	rsbsvc	r5, r0, #-1140850688	; 0xbc000000
     788:	31676e69 	cmncc	r7, r9, ror #28
     78c:	2f303239 	svccs	0x00303239
     790:	34325343 	ldrtcc	r5, [r2], #-835	; 0x343
     794:	2f584c30 	svccs	0x00584c30
     798:	34327363 	ldrtcc	r7, [r2], #-867	; 0x363
     79c:	2d786c30 	ldclcs	12, cr6, [r8, #-192]!	; 0xffffff40
     7a0:	70733032 	rsbsvc	r3, r3, r2, lsr r0
     7a4:	696c2f72 	stmdbvs	ip!, {r1, r4, r5, r6, r8, r9, sl, fp, sp}^
     7a8:	2f697062 	svccs	0x00697062
     7ac:	6c636e69 	stclvs	14, cr6, [r3], #-420	; 0xfffffe5c
     7b0:	00656475 	rsbeq	r6, r5, r5, ror r4
     7b4:	74757000 	ldrbtvc	r7, [r5], #-0
     7b8:	00632e6b 	rsbeq	r2, r3, fp, ror #28
     7bc:	72000001 	andvc	r0, r0, #1
     7c0:	682e6970 	stmdavs	lr!, {r4, r5, r6, r8, fp, sp, lr}
     7c4:	00000200 	andeq	r0, r0, r0, lsl #4
     7c8:	02050000 	andeq	r0, r5, #0
     7cc:	00008ad0 	ldrdeq	r8, [r0], -r0
     7d0:	002d4c15 	eoreq	r4, sp, r5, lsl ip
     7d4:	2f020402 	svccs	0x00020402
     7d8:	02040200 	andeq	r0, r4, #0, 4
     7dc:	04020049 	streq	r0, [r2], #-73	; 0x49
     7e0:	062e0601 	strteq	r0, [lr], -r1, lsl #12
     7e4:	0006026b 	andeq	r0, r6, fp, ror #4
     7e8:	00430101 	subeq	r0, r3, r1, lsl #2
     7ec:	00020000 	andeq	r0, r2, r0
     7f0:	00000026 	andeq	r0, r0, r6, lsr #32
     7f4:	0efb0102 	cdpeq	1, 15, cr0, cr11, cr2, {0}
     7f8:	0101000d 	tsteq	r1, sp
     7fc:	00000101 	andeq	r0, r0, r1, lsl #2
     800:	00000100 	andeq	r0, r0, r0, lsl #2
     804:	62696c01 	rsbvs	r6, r9, #256	; 0x100
     808:	72000063 	andvc	r0, r0, #99	; 0x63
     80c:	722d6970 	eorvc	r6, sp, #112, 18	; 0x1c0000
     810:	2e646e61 	cdpcs	14, 6, cr6, cr4, cr1, {3}
     814:	00010063 	andeq	r0, r1, r3, rrx
     818:	05000000 	streq	r0, [r0, #-0]
     81c:	008b0402 	addeq	r0, fp, r2, lsl #8
     820:	010a0300 	mrseq	r0, (UNDEF: 58)
     824:	6868f313 	stmdavs	r8!, {r0, r1, r4, r8, r9, ip, sp, lr, pc}^
     828:	134d672f 	movtne	r6, #55087	; 0xd72f
     82c:	01000c02 	tsteq	r0, r2, lsl #24
     830:	0001eb01 	andeq	lr, r1, r1, lsl #22
     834:	e9000200 	stmdb	r0, {r9}
     838:	02000000 	andeq	r0, r0, #0
     83c:	0d0efb01 	vstreq	d15, [lr, #-4]
     840:	01010100 	mrseq	r0, (UNDEF: 17)
     844:	00000001 	andeq	r0, r0, r1
     848:	01000001 	tsteq	r0, r1
     84c:	6362696c 	cmnvs	r2, #108, 18	; 0x1b0000
     850:	73752f00 	cmnvc	r5, #0, 30
     854:	6f6c2f72 	svcvs	0x006c2f72
     858:	2f6c6163 	svccs	0x006c6163
     85c:	6c6c6543 	cfstr64vs	mvdx6, [ip], #-268	; 0xfffffef4
     860:	612f7261 	teqvs	pc, r1, ror #4
     864:	6e2d6d72 	mcrvs	13, 1, r6, cr13, cr2, {3}
     868:	2d656e6f 	stclcs	14, cr6, [r5, #-444]!	; 0xfffffe44
     86c:	69626165 	stmdbvs	r2!, {r0, r2, r5, r6, r8, sp, lr}^
     870:	382e342f 	stmdacc	lr!, {r0, r1, r2, r3, r5, sl, ip, sp}
     874:	632d332e 	teqvs	sp, #-1207959552	; 0xb8000000
     878:	30373173 	eorscc	r3, r7, r3, ror r1
     87c:	696c2f65 	stmdbvs	ip!, {r0, r2, r5, r6, r8, r9, sl, fp, sp}^
     880:	63672f62 	cmnvs	r7, #392	; 0x188
     884:	72612f63 	rsbvc	r2, r1, #396	; 0x18c
     888:	6f6e2d6d 	svcvs	0x006e2d6d
     88c:	652d656e 	strvs	r6, [sp, #-1390]!	; 0x56e
     890:	2f696261 	svccs	0x00696261
     894:	2e382e34 	mrccs	14, 1, r2, cr8, cr4, {1}
     898:	6e692f33 	mcrvs	15, 3, r2, cr9, cr3, {1}
     89c:	64756c63 	ldrbtvs	r6, [r5], #-3171	; 0xc63
     8a0:	552f0065 	strpl	r0, [pc, #-101]!	; 843 <_start-0x77bd>
     8a4:	73726573 	cmnvc	r2, #482344960	; 0x1cc00000
     8a8:	6972622f 	ldmdbvs	r2!, {r0, r1, r2, r3, r5, r9, sp, lr}^
     8ac:	756a6e61 	strbvc	r6, [sl, #-3681]!	; 0xe61
     8b0:	65442f6e 	strbvs	r2, [r4, #-3950]	; 0xf6e
     8b4:	6f746b73 	svcvs	0x00746b73
     8b8:	63732f70 	cmnvs	r3, #112, 30	; 0x1c0
     8bc:	6c6f6f68 	stclvs	15, cr6, [pc], #-416	; 724 <_start-0x78dc>
     8c0:	7270532f 	rsbsvc	r5, r0, #-1140850688	; 0xbc000000
     8c4:	31676e69 	cmncc	r7, r9, ror #28
     8c8:	2f303239 	svccs	0x00303239
     8cc:	34325343 	ldrtcc	r5, [r2], #-835	; 0x343
     8d0:	2f584c30 	svccs	0x00584c30
     8d4:	34327363 	ldrtcc	r7, [r2], #-867	; 0x363
     8d8:	2d786c30 	ldclcs	12, cr6, [r8, #-192]!	; 0xffffff40
     8dc:	70733032 	rsbsvc	r3, r3, r2, lsr r0
     8e0:	696c2f72 	stmdbvs	ip!, {r1, r4, r5, r6, r8, r9, sl, fp, sp}^
     8e4:	2f697062 	svccs	0x00697062
     8e8:	6c636e69 	stclvs	14, cr6, [r3], #-420	; 0xfffffe5c
     8ec:	00656475 	rsbeq	r6, r5, r5, ror r4
     8f0:	2d617600 	stclcs	6, cr7, [r1, #-0]
     8f4:	6e697270 	mcrvs	2, 3, r7, cr9, cr0, {3}
     8f8:	632e6b74 	teqvs	lr, #116, 22	; 0x1d000
     8fc:	00000100 	andeq	r0, r0, r0, lsl #2
     900:	61647473 	smcvs	18243	; 0x4743
     904:	682e6772 	stmdavs	lr!, {r1, r4, r5, r6, r8, r9, sl, sp, lr}
     908:	00000200 	andeq	r0, r0, r0, lsl #4
     90c:	2e697072 	mcrcs	0, 3, r7, cr9, cr2, {3}
     910:	00030068 	andeq	r0, r3, r8, rrx
     914:	75623c00 	strbvc	r3, [r2, #-3072]!	; 0xc00
     918:	2d746c69 	ldclcs	12, cr6, [r4, #-420]!	; 0xfffffe5c
     91c:	003e6e69 	eorseq	r6, lr, r9, ror #28
     920:	00000000 	andeq	r0, r0, r0
     924:	6c020500 	cfstr32vs	mvfx0, [r2], {-0}
     928:	0300008b 	movweq	r0, #139	; 0x8b
     92c:	a5010126 	strge	r0, [r1, #-294]	; 0x126
     930:	002d3113 	eoreq	r3, sp, r3, lsl r1
     934:	2f020402 	svccs	0x00020402
     938:	02040200 	andeq	r0, r4, #0, 4
     93c:	0402002d 	streq	r0, [r2], #-45	; 0x2d
     940:	02002f02 	andeq	r2, r0, #2, 30
     944:	4c2d0104 	stfmis	f0, [sp], #-16
     948:	4b14304c 	blmi	50ca80 <__bss_end__+0x502928>
     94c:	02004f2f 	andeq	r4, r0, #47, 30	; 0xbc
     950:	00670204 	rsbeq	r0, r7, r4, lsl #4
     954:	65010402 	strvs	r0, [r1, #-1026]	; 0x402
     958:	a0304d4c 	eorsge	r4, r0, ip, asr #26
     95c:	0230312f 	eorseq	r3, r0, #-1073741813	; 0xc000000b
     960:	2d841626 	stccs	6, cr1, [r4, #152]	; 0x98
     964:	0402002c 	streq	r0, [r2], #-44	; 0x2c
     968:	02003001 	andeq	r3, r0, #1
     96c:	06330104 	ldrteq	r0, [r3], -r4, lsl #2
     970:	04020066 	streq	r0, [r2], #-102	; 0x66
     974:	02002e01 	andeq	r2, r0, #1, 28
     978:	08060104 	stmdaeq	r6, {r2, r8}
     97c:	032f6721 	teqeq	pc, #8650752	; 0x840000
     980:	13038273 	movwne	r8, #12915	; 0x3273
     984:	0402002e 	streq	r0, [r2], #-46	; 0x2e
     988:	00660601 	rsbeq	r0, r6, r1, lsl #12
     98c:	06010402 	streq	r0, [r1], -r2, lsl #8
     990:	674b4b83 	strbvs	r4, [fp, -r3, lsl #23]
     994:	65034b31 	strvs	r4, [r3, #-2865]	; 0xb31
     998:	2e23032e 	cdpcs	3, 2, cr0, cr3, cr14, {1}
     99c:	01040200 	mrseq	r0, R12_usr
     9a0:	02002e06 	andeq	r2, r0, #6, 28	; 0x60
     9a4:	9f060104 	svcls	0x00060104
     9a8:	01040200 	mrseq	r0, R12_usr
     9ac:	03d7d96a 	bicseq	sp, r7, #1736704	; 0x1a8000
     9b0:	20087fa4 	andcs	r7, r8, r4, lsr #31
     9b4:	0402002f 	streq	r0, [r2], #-47	; 0x2f
     9b8:	064a0601 	strbeq	r0, [sl], -r1, lsl #12
     9bc:	032f4bd7 	teqeq	pc, #220160	; 0x35c00
     9c0:	83f200dc 	mvnshi	r0, #220	; 0xdc
     9c4:	0e03484c 	cdpeq	8, 0, cr4, cr3, cr12, {2}
     9c8:	2e75032e 	cdpcs	3, 7, cr0, cr5, cr14, {1}
     9cc:	4b842f2f 	blmi	fe10c690 <__bss_end__+0xfe102538>
     9d0:	314d2d2f 	cmpcc	sp, pc, lsr #26
     9d4:	00832f30 	addeq	r2, r3, r0, lsr pc
     9d8:	2c010402 	cfstrscs	mvf0, [r1], {2}
     9dc:	040200a2 	streq	r0, [r2], #-162	; 0xa2
     9e0:	064a0601 	strbeq	r0, [sl], -r1, lsl #12
     9e4:	163602d8 			; <UNDEFINED> instruction: 0x163602d8
     9e8:	08d60e03 	ldmeq	r6, {r0, r1, r9, sl, fp}^
     9ec:	31f33021 	mvnscc	r3, r1, lsr #32
     9f0:	30f330f3 	ldrshtcc	r3, [r3], #3
     9f4:	30f3304b 	rscscc	r3, r3, fp, asr #32
     9f8:	2f312308 	svccs	0x00312308
     9fc:	01040200 	mrseq	r0, R12_usr
     a00:	04020065 	streq	r0, [r2], #-101	; 0x65
     a04:	004a0602 	subeq	r0, sl, r2, lsl #12
     a08:	06010402 	streq	r0, [r1], -r2, lsl #8
     a0c:	00664203 	rsbeq	r4, r6, r3, lsl #4
     a10:	06020402 	streq	r0, [r2], -r2, lsl #8
     a14:	c2030666 	andgt	r0, r3, #106954752	; 0x6600000
     a18:	02684a00 	rsbeq	r4, r8, #0, 20
     a1c:	01010010 	tsteq	r1, r0, lsl r0
     a20:	0000009c 	muleq	r0, ip, r0
     a24:	00860002 	addeq	r0, r6, r2
     a28:	01020000 	mrseq	r0, (UNDEF: 2)
     a2c:	000d0efb 	strdeq	r0, [sp], -fp
     a30:	01010101 	tsteq	r1, r1, lsl #2
     a34:	01000000 	mrseq	r0, (UNDEF: 0)
     a38:	73010000 	movwvc	r0, #4096	; 0x1000
     a3c:	66666174 			; <UNDEFINED> instruction: 0x66666174
     a40:	6372732d 	cmnvs	r2, #-1275068416	; 0xb4000000
     a44:	73552f00 	cmpvc	r5, #0, 30
     a48:	2f737265 	svccs	0x00737265
     a4c:	61697262 	cmnvs	r9, r2, ror #4
     a50:	6e756a6e 	vsubvs.f32	s13, s10, s29
     a54:	7365442f 	cmnvc	r5, #788529152	; 0x2f000000
     a58:	706f746b 	rsbvc	r7, pc, fp, ror #8
     a5c:	6863732f 	stmdavs	r3!, {r0, r1, r2, r3, r5, r8, r9, ip, sp, lr}^
     a60:	2f6c6f6f 	svccs	0x006c6f6f
     a64:	69727053 	ldmdbvs	r2!, {r0, r1, r4, r6, ip, sp, lr}^
     a68:	3931676e 	ldmdbcc	r1!, {r1, r2, r3, r5, r6, r8, r9, sl, sp, lr}
     a6c:	432f3032 	teqmi	pc, #50	; 0x32
     a70:	30343253 	eorscc	r3, r4, r3, asr r2
     a74:	632f584c 	teqvs	pc, #76, 16	; 0x4c0000
     a78:	30343273 	eorscc	r3, r4, r3, ror r2
     a7c:	322d786c 	eorcc	r7, sp, #108, 16	; 0x6c0000
     a80:	72707330 	rsbsvc	r7, r0, #48, 6	; 0xc0000000
     a84:	62696c2f 	rsbvs	r6, r9, #12032	; 0x2f00
     a88:	692f6970 	stmdbvs	pc!, {r4, r5, r6, r8, fp, sp, lr}	; <UNPREDICTABLE>
     a8c:	756c636e 	strbvc	r6, [ip, #-878]!	; 0x36e
     a90:	00006564 	andeq	r6, r0, r4, ror #10
     a94:	61656c63 	cmnvs	r5, r3, ror #24
     a98:	65722d6e 	ldrbvs	r2, [r2, #-3438]!	; 0xd6e
     a9c:	746f6f62 	strbtvc	r6, [pc], #-3938	; aa4 <_start-0x755c>
     aa0:	0100632e 	tsteq	r0, lr, lsr #6
     aa4:	70720000 	rsbsvc	r0, r2, r0
     aa8:	00682e69 	rsbeq	r2, r8, r9, ror #28
     aac:	00000002 	andeq	r0, r0, r2
     ab0:	78020500 	stmdavc	r2, {r8, sl}
     ab4:	15000090 	strne	r0, [r0, #-144]	; 0x90
     ab8:	024b832f 	subeq	r8, fp, #-1140850688	; 0xbc000000
     abc:	01010006 	tsteq	r1, r6
     ac0:	000000a3 	andeq	r0, r0, r3, lsr #1
     ac4:	00800002 	addeq	r0, r0, r2
     ac8:	01020000 	mrseq	r0, (UNDEF: 2)
     acc:	000d0efb 	strdeq	r0, [sp], -fp
     ad0:	01010101 	tsteq	r1, r1, lsl #2
     ad4:	01000000 	mrseq	r0, (UNDEF: 0)
     ad8:	73010000 	movwvc	r0, #4096	; 0x1000
     adc:	66666174 			; <UNDEFINED> instruction: 0x66666174
     ae0:	6372732d 	cmnvs	r2, #-1275068416	; 0xb4000000
     ae4:	73552f00 	cmpvc	r5, #0, 30
     ae8:	2f737265 	svccs	0x00737265
     aec:	61697262 	cmnvs	r9, r2, ror #4
     af0:	6e756a6e 	vsubvs.f32	s13, s10, s29
     af4:	7365442f 	cmnvc	r5, #788529152	; 0x2f000000
     af8:	706f746b 	rsbvc	r7, pc, fp, ror #8
     afc:	6863732f 	stmdavs	r3!, {r0, r1, r2, r3, r5, r8, r9, ip, sp, lr}^
     b00:	2f6c6f6f 	svccs	0x006c6f6f
     b04:	69727053 	ldmdbvs	r2!, {r0, r1, r4, r6, ip, sp, lr}^
     b08:	3931676e 	ldmdbcc	r1!, {r1, r2, r3, r5, r6, r8, r9, sl, sp, lr}
     b0c:	432f3032 	teqmi	pc, #50	; 0x32
     b10:	30343253 	eorscc	r3, r4, r3, asr r2
     b14:	632f584c 	teqvs	pc, #76, 16	; 0x4c0000
     b18:	30343273 	eorscc	r3, r4, r3, ror r2
     b1c:	322d786c 	eorcc	r7, sp, #108, 16	; 0x6c0000
     b20:	72707330 	rsbsvc	r7, r0, #48, 6	; 0xc0000000
     b24:	62696c2f 	rsbvs	r6, r9, #12032	; 0x2f00
     b28:	692f6970 	stmdbvs	pc!, {r4, r5, r6, r8, fp, sp, lr}	; <UNPREDICTABLE>
     b2c:	756c636e 	strbvc	r6, [ip, #-878]!	; 0x36e
     b30:	00006564 	andeq	r6, r0, r4, ror #10
     b34:	61747363 	cmnvs	r4, r3, ror #6
     b38:	632e7472 	teqvs	lr, #1912602624	; 0x72000000
     b3c:	00000100 	andeq	r0, r0, r0, lsl #2
     b40:	2e697072 	mcrcs	0, 3, r7, cr9, cr2, {3}
     b44:	00020068 	andeq	r0, r2, r8, rrx
     b48:	05000000 	streq	r0, [r0, #-0]
     b4c:	0090a002 	addseq	sl, r0, r2
     b50:	010c0300 	mrseq	r0, LR_mon
     b54:	2d2f3132 	stfcss	f3, [pc, #-200]!	; a94 <_start-0x756c>
     b58:	0402002f 	streq	r0, [r2], #-47	; 0x2f
     b5c:	15034901 	strne	r4, [r3, #-2305]	; 0x901
     b60:	06022f4a 	streq	r2, [r2], -sl, asr #30
     b64:	a2010100 	andge	r0, r1, #0, 2
     b68:	02000000 	andeq	r0, r0, #0
     b6c:	00008000 	andeq	r8, r0, r0
     b70:	fb010200 	blx	4137a <__bss_end__+0x37222>
     b74:	01000d0e 	tsteq	r0, lr, lsl #26
     b78:	00010101 	andeq	r0, r1, r1, lsl #2
     b7c:	00010000 	andeq	r0, r1, r0
     b80:	74730100 	ldrbtvc	r0, [r3], #-256	; 0x100
     b84:	2d666661 	stclcs	6, cr6, [r6, #-388]!	; 0xfffffe7c
     b88:	00637273 	rsbeq	r7, r3, r3, ror r2
     b8c:	6573552f 	ldrbvs	r5, [r3, #-1327]!	; 0x52f
     b90:	622f7372 	eorvs	r7, pc, #-939524095	; 0xc8000001
     b94:	6e616972 	mcrvs	9, 3, r6, cr1, cr2, {3}
     b98:	2f6e756a 	svccs	0x006e756a
     b9c:	6b736544 	blvs	1cda0b4 <__bss_end__+0x1ccff5c>
     ba0:	2f706f74 	svccs	0x00706f74
     ba4:	6f686373 	svcvs	0x00686373
     ba8:	532f6c6f 	teqpl	pc, #28416	; 0x6f00
     bac:	6e697270 	mcrvs	2, 3, r7, cr9, cr0, {3}
     bb0:	32393167 	eorscc	r3, r9, #-1073741799	; 0xc0000019
     bb4:	53432f30 	movtpl	r2, #16176	; 0x3f30
     bb8:	4c303432 	cfldrsmi	mvf3, [r0], #-200	; 0xffffff38
     bbc:	73632f58 	cmnvc	r3, #88, 30	; 0x160
     bc0:	6c303432 	cfldrsvs	mvf3, [r0], #-200	; 0xffffff38
     bc4:	30322d78 	eorscc	r2, r2, r8, ror sp
     bc8:	2f727073 	svccs	0x00727073
     bcc:	7062696c 	rsbvc	r6, r2, ip, ror #18
     bd0:	6e692f69 	cdpvs	15, 6, cr2, cr9, cr9, {3}
     bd4:	64756c63 	ldrbtvs	r6, [r5], #-3171	; 0xc63
     bd8:	72000065 	andvc	r0, r0, #101	; 0x65
     bdc:	6f6f6265 	svcvs	0x006f6265
     be0:	00632e74 	rsbeq	r2, r3, r4, ror lr
     be4:	72000001 	andvc	r0, r0, #1
     be8:	682e6970 	stmdavs	lr!, {r4, r5, r6, r8, fp, sp, lr}
     bec:	00000200 	andeq	r0, r0, r0, lsl #4
     bf0:	02050000 	andeq	r0, r5, #0
     bf4:	000090d4 	ldrdeq	r9, [r0], -r4
     bf8:	14010d03 	strne	r0, [r1], #-3331	; 0xd03
     bfc:	15852f31 	strne	r2, [r5, #3889]	; 0xf31
     c00:	2f4d4b2f 	svccs	0x004d4b2f
     c04:	67523567 	ldrbvs	r3, [r2, -r7, ror #10]
     c08:	01001002 	tsteq	r0, r2
     c0c:	0000ac01 	andeq	sl, r0, r1, lsl #24
     c10:	7f000200 	svcvc	0x00000200
     c14:	02000000 	andeq	r0, r0, #0
     c18:	0d0efb01 	vstreq	d15, [lr, #-4]
     c1c:	01010100 	mrseq	r0, (UNDEF: 17)
     c20:	00000001 	andeq	r0, r0, r1
     c24:	01000001 	tsteq	r0, r1
     c28:	66617473 			; <UNDEFINED> instruction: 0x66617473
     c2c:	72732d66 	rsbsvc	r2, r3, #6528	; 0x1980
     c30:	552f0063 	strpl	r0, [pc, #-99]!	; bd5 <_start-0x742b>
     c34:	73726573 	cmnvc	r2, #482344960	; 0x1cc00000
     c38:	6972622f 	ldmdbvs	r2!, {r0, r1, r2, r3, r5, r9, sp, lr}^
     c3c:	756a6e61 	strbvc	r6, [sl, #-3681]!	; 0xe61
     c40:	65442f6e 	strbvs	r2, [r4, #-3950]	; 0xf6e
     c44:	6f746b73 	svcvs	0x00746b73
     c48:	63732f70 	cmnvs	r3, #112, 30	; 0x1c0
     c4c:	6c6f6f68 	stclvs	15, cr6, [pc], #-416	; ab4 <_start-0x754c>
     c50:	7270532f 	rsbsvc	r5, r0, #-1140850688	; 0xbc000000
     c54:	31676e69 	cmncc	r7, r9, ror #28
     c58:	2f303239 	svccs	0x00303239
     c5c:	34325343 	ldrtcc	r5, [r2], #-835	; 0x343
     c60:	2f584c30 	svccs	0x00584c30
     c64:	34327363 	ldrtcc	r7, [r2], #-867	; 0x363
     c68:	2d786c30 	ldclcs	12, cr6, [r8, #-192]!	; 0xffffff40
     c6c:	70733032 	rsbsvc	r3, r3, r2, lsr r0
     c70:	696c2f72 	stmdbvs	ip!, {r1, r4, r5, r6, r8, r9, sl, fp, sp}^
     c74:	2f697062 	svccs	0x00697062
     c78:	6c636e69 	stclvs	14, cr6, [r3], #-420	; 0xfffffe5c
     c7c:	00656475 	rsbeq	r6, r5, r5, ror r4
     c80:	6d697400 	cfstrdvs	mvd7, [r9, #-0]
     c84:	632e7265 	teqvs	lr, #1342177286	; 0x50000006
     c88:	00000100 	andeq	r0, r0, r0, lsl #2
     c8c:	2e697072 	mcrcs	0, 3, r7, cr9, cr2, {3}
     c90:	00020068 	andeq	r0, r2, r8, rrx
     c94:	05000000 	streq	r0, [r0, #-0]
     c98:	00914802 	addseq	r4, r1, r2, lsl #16
     c9c:	2f141600 	svccs	0x00141600
     ca0:	0402002d 	streq	r0, [r2], #-45	; 0x2d
     ca4:	062e0601 	strteq	r0, [lr], -r1, lsl #12
     ca8:	4b2f316d 	blmi	bcd264 <__bss_end__+0xbc310c>
     cac:	3031324d 	eorscc	r3, r1, sp, asr #4
     cb0:	6a2f4c4b 	bvs	bd3de4 <__bss_end__+0xbc9c8c>
     cb4:	2f842f2f 	svccs	0x00842f2f
     cb8:	01000802 	tsteq	r0, r2, lsl #16
     cbc:	00014801 	andeq	r4, r1, r1, lsl #16
     cc0:	02000200 	andeq	r0, r0, #0, 4
     cc4:	02000001 	andeq	r0, r0, #1
     cc8:	0d0efb01 	vstreq	d15, [lr, #-4]
     ccc:	01010100 	mrseq	r0, (UNDEF: 17)
     cd0:	00000001 	andeq	r0, r0, r1
     cd4:	01000001 	tsteq	r0, r1
     cd8:	7273752f 	rsbsvc	r7, r3, #197132288	; 0xbc00000
     cdc:	636e692f 	cmnvs	lr, #770048	; 0xbc000
     ce0:	6564756c 	strbvs	r7, [r4, #-1388]!	; 0x56c
     ce4:	77656e2f 	strbvc	r6, [r5, -pc, lsr #28]!
     ce8:	2f62696c 	svccs	0x0062696c
     cec:	00737973 	rsbseq	r7, r3, r3, ror r9
     cf0:	7273752f 	rsbsvc	r7, r3, #197132288	; 0xbc00000
     cf4:	62696c2f 	rsbvs	r6, r9, #12032	; 0x2f00
     cf8:	6363672f 	cmnvs	r3, #12320768	; 0xbc0000
     cfc:	6d72612f 	ldfvse	f6, [r2, #-188]!	; 0xffffff44
     d00:	6e6f6e2d 	cdpvs	14, 6, cr6, cr15, cr13, {1}
     d04:	61652d65 	cmnvs	r5, r5, ror #26
     d08:	362f6962 	strtcc	r6, [pc], -r2, ror #18
     d0c:	312e332e 	teqcc	lr, lr, lsr #6
     d10:	636e692f 	cmnvs	lr, #770048	; 0xbc000
     d14:	6564756c 	strbvs	r7, [r4, #-1388]!	; 0x56c
     d18:	6f682f00 	svcvs	0x00682f00
     d1c:	652f656d 	strvs	r6, [pc, #-1389]!	; 7b7 <_start-0x7849>
     d20:	656c676e 	strbvs	r6, [ip, #-1902]!	; 0x76e
     d24:	6c632f72 	stclvs	15, cr2, [r3], #-456	; 0xfffffe38
     d28:	2f737361 	svccs	0x00737361
     d2c:	34327363 	ldrtcc	r7, [r2], #-867	; 0x363
     d30:	2d786c30 	ldclcs	12, cr6, [r8, #-192]!	; 0xffffff40
     d34:	70733032 	rsbsvc	r3, r3, r2, lsr r0
     d38:	6c2f2f72 	stcvs	15, cr2, [pc], #-456	; b78 <_start-0x7488>
     d3c:	69706269 	ldmdbvs	r0!, {r0, r3, r5, r6, r9, sp, lr}^
     d40:	6f682f00 	svcvs	0x00682f00
     d44:	652f656d 	strvs	r6, [pc, #-1389]!	; 7df <_start-0x7821>
     d48:	656c676e 	strbvs	r6, [ip, #-1902]!	; 0x76e
     d4c:	6c632f72 	stclvs	15, cr2, [r3], #-456	; 0xfffffe38
     d50:	2f737361 	svccs	0x00737361
     d54:	34327363 	ldrtcc	r7, [r2], #-867	; 0x363
     d58:	2d786c30 	ldclcs	12, cr6, [r8, #-192]!	; 0xffffff40
     d5c:	70733032 	rsbsvc	r3, r3, r2, lsr r0
     d60:	6c2f2f72 	stcvs	15, cr2, [pc], #-456	; ba0 <_start-0x7460>
     d64:	69706269 	ldmdbvs	r0!, {r0, r3, r5, r6, r9, sp, lr}^
     d68:	6174732f 	cmnvs	r4, pc, lsr #6
     d6c:	732d6666 	teqvc	sp, #106954752	; 0x6600000
     d70:	00006372 	andeq	r6, r0, r2, ror r3
     d74:	74726175 	ldrbtvc	r6, [r2], #-373	; 0x175
     d78:	0000632e 	andeq	r6, r0, lr, lsr #6
     d7c:	6f6c0000 	svcvs	0x006c0000
     d80:	682e6b63 	stmdavs	lr!, {r0, r1, r5, r6, r8, r9, fp, sp, lr}
     d84:	00000100 	andeq	r0, r0, r0, lsl #2
     d88:	7079745f 	rsbsvc	r7, r9, pc, asr r4
     d8c:	682e7365 	stmdavs	lr!, {r0, r2, r5, r6, r8, r9, ip, sp, lr}
     d90:	00000100 	andeq	r0, r0, r0, lsl #2
     d94:	64647473 	strbtvs	r7, [r4], #-1139	; 0x473
     d98:	682e6665 	stmdavs	lr!, {r0, r2, r5, r6, r9, sl, sp, lr}
     d9c:	00000200 	andeq	r0, r0, r0, lsl #4
     da0:	6e656572 	mcrvs	5, 3, r6, cr5, cr2, {3}
     da4:	00682e74 	rsbeq	r2, r8, r4, ror lr
     da8:	72000001 	andvc	r0, r0, #1
     dac:	682e6970 	stmdavs	lr!, {r4, r5, r6, r8, fp, sp, lr}
     db0:	00000300 	andeq	r0, r0, r0, lsl #6
     db4:	74726175 	ldrbtvc	r6, [r2], #-373	; 0x175
     db8:	0400682e 	streq	r6, [r0], #-2094	; 0x82e
     dbc:	70670000 	rsbvc	r0, r7, r0
     dc0:	682e6f69 	stmdavs	lr!, {r0, r3, r5, r6, r8, r9, sl, fp, sp, lr}
     dc4:	00000400 	andeq	r0, r0, r0, lsl #8
     dc8:	02050000 	andeq	r0, r5, #0
     dcc:	0000921c 	andeq	r9, r0, ip, lsl r2
     dd0:	67012c03 	strvs	r2, [r1, -r3, lsl #24]
     dd4:	359e0c03 	ldrcc	r0, [lr, #3075]	; 0xc03
     dd8:	68356867 	ldmdavs	r5!, {r0, r1, r2, r5, r6, fp, sp, lr}
     ddc:	852e0c03 	strhi	r0, [lr, #-3075]!	; 0xc03
     de0:	0369696b 	cmneq	r9, #1753088	; 0x1ac000
     de4:	676b660c 	strbvs	r6, [fp, -ip, lsl #12]!
     de8:	68344208 	ldmdavs	r4!, {r3, r9, lr}
     dec:	8768364b 	strbhi	r3, [r8, -fp, asr #12]!
     df0:	0402002f 	streq	r0, [r2], #-47	; 0x2f
     df4:	67682f01 	strbvs	r2, [r8, -r1, lsl #30]!
     df8:	004b6730 	subeq	r6, fp, r0, lsr r7
     dfc:	2f010402 	svccs	0x00010402
     e00:	2e696768 	cdpcs	7, 6, cr6, cr9, cr8, {3}
     e04:	01000602 	tsteq	r0, r2, lsl #12
     e08:	00012b01 	andeq	r2, r1, r1, lsl #22
     e0c:	f8000200 			; <UNDEFINED> instruction: 0xf8000200
     e10:	02000000 	andeq	r0, r0, #0
     e14:	0d0efb01 	vstreq	d15, [lr, #-4]
     e18:	01010100 	mrseq	r0, (UNDEF: 17)
     e1c:	00000001 	andeq	r0, r0, r1
     e20:	01000001 	tsteq	r0, r1
     e24:	7273752f 	rsbsvc	r7, r3, #197132288	; 0xbc00000
     e28:	636e692f 	cmnvs	lr, #770048	; 0xbc000
     e2c:	6564756c 	strbvs	r7, [r4, #-1388]!	; 0x56c
     e30:	77656e2f 	strbvc	r6, [r5, -pc, lsr #28]!
     e34:	2f62696c 	svccs	0x0062696c
     e38:	00737973 	rsbseq	r7, r3, r3, ror r9
     e3c:	7273752f 	rsbsvc	r7, r3, #197132288	; 0xbc00000
     e40:	62696c2f 	rsbvs	r6, r9, #12032	; 0x2f00
     e44:	6363672f 	cmnvs	r3, #12320768	; 0xbc0000
     e48:	6d72612f 	ldfvse	f6, [r2, #-188]!	; 0xffffff44
     e4c:	6e6f6e2d 	cdpvs	14, 6, cr6, cr15, cr13, {1}
     e50:	61652d65 	cmnvs	r5, r5, ror #26
     e54:	362f6962 	strtcc	r6, [pc], -r2, ror #18
     e58:	312e332e 	teqcc	lr, lr, lsr #6
     e5c:	636e692f 	cmnvs	lr, #770048	; 0xbc000
     e60:	6564756c 	strbvs	r7, [r4, #-1388]!	; 0x56c
     e64:	6f682f00 	svcvs	0x00682f00
     e68:	652f656d 	strvs	r6, [pc, #-1389]!	; 903 <_start-0x76fd>
     e6c:	656c676e 	strbvs	r6, [ip, #-1902]!	; 0x76e
     e70:	6c632f72 	stclvs	15, cr2, [r3], #-456	; 0xfffffe38
     e74:	2f737361 	svccs	0x00737361
     e78:	34327363 	ldrtcc	r7, [r2], #-867	; 0x363
     e7c:	2d786c30 	ldclcs	12, cr6, [r8, #-192]!	; 0xffffff40
     e80:	70733032 	rsbsvc	r3, r3, r2, lsr r0
     e84:	6c2f2f72 	stcvs	15, cr2, [pc], #-456	; cc4 <_start-0x733c>
     e88:	69706269 	ldmdbvs	r0!, {r0, r3, r5, r6, r9, sp, lr}^
     e8c:	6f682f00 	svcvs	0x00682f00
     e90:	652f656d 	strvs	r6, [pc, #-1389]!	; 92b <_start-0x76d5>
     e94:	656c676e 	strbvs	r6, [ip, #-1902]!	; 0x76e
     e98:	6c632f72 	stclvs	15, cr2, [r3], #-456	; 0xfffffe38
     e9c:	2f737361 	svccs	0x00737361
     ea0:	34327363 	ldrtcc	r7, [r2], #-867	; 0x363
     ea4:	2d786c30 	ldclcs	12, cr6, [r8, #-192]!	; 0xffffff40
     ea8:	70733032 	rsbsvc	r3, r3, r2, lsr r0
     eac:	6c2f2f72 	stcvs	15, cr2, [pc], #-456	; cec <_start-0x7314>
     eb0:	69706269 	ldmdbvs	r0!, {r0, r3, r5, r6, r9, sp, lr}^
     eb4:	6174732f 	cmnvs	r4, pc, lsr #6
     eb8:	732d6666 	teqvc	sp, #106954752	; 0x6600000
     ebc:	00006372 	andeq	r6, r0, r2, ror r3
     ec0:	6f697067 	svcvs	0x00697067
     ec4:	0000632e 	andeq	r6, r0, lr, lsr #6
     ec8:	6f6c0000 	svcvs	0x006c0000
     ecc:	682e6b63 	stmdavs	lr!, {r0, r1, r5, r6, r8, r9, fp, sp, lr}
     ed0:	00000100 	andeq	r0, r0, r0, lsl #2
     ed4:	7079745f 	rsbsvc	r7, r9, pc, asr r4
     ed8:	682e7365 	stmdavs	lr!, {r0, r2, r5, r6, r8, r9, ip, sp, lr}
     edc:	00000100 	andeq	r0, r0, r0, lsl #2
     ee0:	64647473 	strbtvs	r7, [r4], #-1139	; 0x473
     ee4:	682e6665 	stmdavs	lr!, {r0, r2, r5, r6, r9, sl, sp, lr}
     ee8:	00000200 	andeq	r0, r0, r0, lsl #4
     eec:	6e656572 	mcrvs	5, 3, r6, cr5, cr2, {3}
     ef0:	00682e74 	rsbeq	r2, r8, r4, ror lr
     ef4:	72000001 	andvc	r0, r0, #1
     ef8:	682e6970 	stmdavs	lr!, {r4, r5, r6, r8, fp, sp, lr}
     efc:	00000300 	andeq	r0, r0, r0, lsl #6
     f00:	6f697067 	svcvs	0x00697067
     f04:	0400682e 	streq	r6, [r0], #-2094	; 0x82e
     f08:	00000000 	andeq	r0, r0, r0
     f0c:	93940205 	orrsls	r0, r4, #1342177280	; 0x50000000
     f10:	27030000 	strcs	r0, [r3, -r0]
     f14:	474c1301 	strbmi	r1, [ip, -r1, lsl #6]
     f18:	4b68f44f 	blmi	1a3e05c <__bss_end__+0x1a33f04>
     f1c:	6a2fa14c 	bvs	be9454 <__bss_end__+0xbdf2fc>
     f20:	be314913 	mrclt	9, 1, r4, cr1, cr3, {0}
     f24:	be314913 	mrclt	9, 1, r4, cr1, cr3, {0}
     f28:	4d2f6a2f 	vstmdbmi	pc!, {s12-s58}
     f2c:	49134f48 	ldmdbmi	r3, {r3, r6, r8, r9, sl, fp, lr}
     f30:	02b72f32 	adcseq	r2, r7, #50, 30	; 0xc8
     f34:	01010006 	tsteq	r1, r6
     f38:	00000134 	andeq	r0, r0, r4, lsr r1
     f3c:	00df0002 	sbcseq	r0, pc, r2
     f40:	01020000 	mrseq	r0, (UNDEF: 2)
     f44:	000d0efb 	strdeq	r0, [sp], -fp
     f48:	01010101 	tsteq	r1, r1, lsl #2
     f4c:	01000000 	mrseq	r0, (UNDEF: 0)
     f50:	2f010000 	svccs	0x00010000
     f54:	2f727375 	svccs	0x00727375
     f58:	6c636e69 	stclvs	14, cr6, [r3], #-420	; 0xfffffe5c
     f5c:	2f656475 	svccs	0x00656475
     f60:	6c77656e 	cfldr64vs	mvdx6, [r7], #-440	; 0xfffffe48
     f64:	732f6269 	teqvc	pc, #-1879048186	; 0x90000006
     f68:	2f007379 	svccs	0x00007379
     f6c:	2f727375 	svccs	0x00727375
     f70:	2f62696c 	svccs	0x0062696c
     f74:	2f636367 	svccs	0x00636367
     f78:	2d6d7261 	sfmcs	f7, 2, [sp, #-388]!	; 0xfffffe7c
     f7c:	656e6f6e 	strbvs	r6, [lr, #-3950]!	; 0xf6e
     f80:	6261652d 	rsbvs	r6, r1, #188743680	; 0xb400000
     f84:	2e362f69 	cdpcs	15, 3, cr2, cr6, cr9, {3}
     f88:	2f312e33 	svccs	0x00312e33
     f8c:	6c636e69 	stclvs	14, cr6, [r3], #-420	; 0xfffffe5c
     f90:	00656475 	rsbeq	r6, r5, r5, ror r4
     f94:	6d6f682f 	stclvs	8, cr6, [pc, #-188]!	; ee0 <_start-0x7120>
     f98:	6e652f65 	cdpvs	15, 6, cr2, cr5, cr5, {3}
     f9c:	72656c67 	rsbvc	r6, r5, #26368	; 0x6700
     fa0:	616c632f 	cmnvs	ip, pc, lsr #6
     fa4:	632f7373 	teqvs	pc, #-872415231	; 0xcc000001
     fa8:	30343273 	eorscc	r3, r4, r3, ror r2
     fac:	322d786c 	eorcc	r7, sp, #108, 16	; 0x6c0000
     fb0:	72707330 	rsbsvc	r7, r0, #48, 6	; 0xc0000000
     fb4:	696c2f2f 	stmdbvs	ip!, {r0, r1, r2, r3, r5, r8, r9, sl, fp, sp}^
     fb8:	00697062 	rsbeq	r7, r9, r2, rrx
     fbc:	7273752f 	rsbsvc	r7, r3, #197132288	; 0xbc00000
     fc0:	636e692f 	cmnvs	lr, #770048	; 0xbc000
     fc4:	6564756c 	strbvs	r7, [r4, #-1388]!	; 0x56c
     fc8:	77656e2f 	strbvc	r6, [r5, -pc, lsr #28]!
     fcc:	0062696c 	rsbeq	r6, r2, ip, ror #18
     fd0:	616d6b00 	cmnvs	sp, r0, lsl #22
     fd4:	636f6c6c 	cmnvs	pc, #108, 24	; 0x6c00
     fd8:	0000632e 	andeq	r6, r0, lr, lsr #6
     fdc:	6f6c0000 	svcvs	0x006c0000
     fe0:	682e6b63 	stmdavs	lr!, {r0, r1, r5, r6, r8, r9, fp, sp, lr}
     fe4:	00000100 	andeq	r0, r0, r0, lsl #2
     fe8:	7079745f 	rsbsvc	r7, r9, pc, asr r4
     fec:	682e7365 	stmdavs	lr!, {r0, r2, r5, r6, r8, r9, ip, sp, lr}
     ff0:	00000100 	andeq	r0, r0, r0, lsl #2
     ff4:	64647473 	strbtvs	r7, [r4], #-1139	; 0x473
     ff8:	682e6665 	stmdavs	lr!, {r0, r2, r5, r6, r9, sl, sp, lr}
     ffc:	00000200 	andeq	r0, r0, r0, lsl #4
    1000:	6e656572 	mcrvs	5, 3, r6, cr5, cr2, {3}
    1004:	00682e74 	rsbeq	r2, r8, r4, ror lr
    1008:	72000001 	andvc	r0, r0, #1
    100c:	682e6970 	stmdavs	lr!, {r4, r5, r6, r8, fp, sp, lr}
    1010:	00000300 	andeq	r0, r0, r0, lsl #6
    1014:	69727473 	ldmdbvs	r2!, {r0, r1, r4, r5, r6, sl, ip, sp, lr}^
    1018:	682e676e 	stmdavs	lr!, {r1, r2, r3, r5, r6, r8, r9, sl, sp, lr}
    101c:	00000400 	andeq	r0, r0, r0, lsl #8
    1020:	02050000 	andeq	r0, r5, #0
    1024:	000094b4 			; <UNDEFINED> instruction: 0x000094b4
    1028:	01011003 	tsteq	r1, r3
    102c:	14680183 	strbtne	r0, [r8], #-387	; 0x183
    1030:	04020083 	streq	r0, [r2], #-131	; 0x83
    1034:	02007f01 	andeq	r7, r0, #1, 30
    1038:	08300104 	ldmdaeq	r0!, {r2, r8}
    103c:	4c4b2f5c 	mcrrmi	15, 5, r2, fp, cr12
    1040:	00684b4b 	rsbeq	r4, r8, fp, asr #22
    1044:	03010402 	movweq	r0, #5122	; 0x1402
    1048:	09034a79 	stmdbeq	r3, {r0, r3, r4, r5, r6, r9, fp, lr}
    104c:	012f5808 	teqeq	pc, r8, lsl #16
    1050:	6a2f4e2e 	bvs	bd4910 <__bss_end__+0xbca7b8>
    1054:	4c67674b 	stclmi	7, cr6, [r7], #-300	; 0xfffffed4
    1058:	0402002f 	streq	r0, [r2], #-47	; 0x2f
    105c:	2e760301 	cdpcs	3, 7, cr0, cr6, cr1, {0}
    1060:	01040200 	mrseq	r0, R12_usr
    1064:	2f7a08dc 	svccs	0x007a08dc
    1068:	02019f01 	andeq	r9, r1, #1, 30
    106c:	01010008 	tsteq	r1, r8

Disassembly of section .debug_str:

00000000 <.debug_str>:
   0:	6c616b63 	stclvs	11, cr6, [r1], #-396	; 0xfffffe74
   4:	00636f6c 	rsbeq	r6, r3, ip, ror #30
   8:	20554e47 	subscs	r4, r5, r7, asr #28
   c:	2e342043 	cdpcs	0, 3, cr2, cr4, cr3, {2}
  10:	20332e38 	eorscs	r2, r3, r8, lsr lr
  14:	70636d2d 	rsbvc	r6, r3, sp, lsr #26
  18:	72613d75 	rsbvc	r3, r1, #7488	; 0x1d40
  1c:	3731316d 	ldrcc	r3, [r1, -sp, ror #2]!
  20:	667a6a36 			; <UNDEFINED> instruction: 0x667a6a36
  24:	2d20732d 	stccs	3, cr7, [r0, #-180]!	; 0xffffff4c
  28:	6e75746d 	cdpvs	4, 7, cr7, cr5, cr13, {3}
  2c:	72613d65 	rsbvc	r3, r1, #6464	; 0x1940
  30:	3731316d 	ldrcc	r3, [r1, -sp, ror #2]!
  34:	667a6a36 			; <UNDEFINED> instruction: 0x667a6a36
  38:	2d20732d 	stccs	3, cr7, [r0, #-180]!	; 0xffffff4c
  3c:	62646767 	rsbvs	r6, r4, #27000832	; 0x19c0000
  40:	674f2d20 	strbvs	r2, [pc, -r0, lsr #26]
  44:	74732d20 	ldrbtvc	r2, [r3], #-3360	; 0xd20
  48:	6e673d64 	cdpvs	13, 6, cr3, cr7, cr4, {3}
  4c:	20393975 	eorscs	r3, r9, r5, ror r9
  50:	7266662d 	rsbvc	r6, r6, #47185920	; 0x2d00000
  54:	74736565 	ldrbtvc	r6, [r3], #-1381	; 0x565
  58:	69646e61 	stmdbvs	r4!, {r0, r5, r6, r9, sl, fp, sp, lr}^
  5c:	6e00676e 	cdpvs	7, 0, cr6, cr0, cr14, {3}
  60:	616d746f 	cmnvs	sp, pc, ror #8
  64:	63006e69 	movwvs	r6, #3689	; 0xe69
  68:	65685f6b 	strbvs	r5, [r8, #-3947]!	; 0xf6b
  6c:	655f7061 	ldrbvs	r7, [pc, #-97]	; 13 <_start-0x7fed>
  70:	726f7272 	rsbvc	r7, pc, #536870919	; 0x20000007
  74:	61700073 	cmnvs	r0, r3, ror r0
  78:	2d317472 	cfldrscs	mvf7, [r1, #-456]!	; 0xfffffe38
  7c:	74736574 	ldrbtvc	r6, [r3], #-1396	; 0x574
  80:	00632e36 	rsbeq	r2, r3, r6, lsr lr
  84:	69736e75 	ldmdbvs	r3!, {r0, r2, r4, r5, r6, r9, sl, fp, sp, lr}^
  88:	64656e67 	strbtvs	r6, [r5], #-3687	; 0xe67
  8c:	61686320 	cmnvs	r8, r0, lsr #6
  90:	6c630072 	stclvs	0, cr0, [r3], #-456	; 0xfffffe38
  94:	5f6e6165 	svcpl	0x006e6165
  98:	6f626572 	svcvs	0x00626572
  9c:	2f00746f 	svccs	0x0000746f
  a0:	72657355 	rsbvc	r7, r5, #1409286145	; 0x54000001
  a4:	72622f73 	rsbvc	r2, r2, #460	; 0x1cc
  a8:	6a6e6169 	bvs	1b98654 <__bss_end__+0x1b8e4fc>
  ac:	442f6e75 	strtmi	r6, [pc], #-3701	; b4 <_start-0x7f4c>
  b0:	746b7365 	strbtvc	r7, [fp], #-869	; 0x365
  b4:	732f706f 	teqvc	pc, #111	; 0x6f
  b8:	6f6f6863 	svcvs	0x006f6863
  bc:	70532f6c 	subsvc	r2, r3, ip, ror #30
  c0:	676e6972 			; <UNDEFINED> instruction: 0x676e6972
  c4:	30323931 	eorscc	r3, r2, r1, lsr r9
  c8:	3253432f 	subscc	r4, r3, #-1140850688	; 0xbc000000
  cc:	584c3034 	stmdapl	ip, {r2, r4, r5, ip, sp}^
  d0:	3273632f 	rsbscc	r6, r3, #-1140850688	; 0xbc000000
  d4:	786c3034 	stmdavc	ip!, {r2, r4, r5, ip, sp}^
  d8:	7330322d 	teqvc	r0, #-805306366	; 0xd0000002
  dc:	6c2f7270 	sfmvs	f7, 4, [pc], #-448	; ffffff24 <__bss_end__+0xffff5dcc>
  e0:	2f736261 	svccs	0x00736261
  e4:	6d2d3031 	stcvs	0, cr3, [sp, #-196]!	; 0xffffff3c
  e8:	68636d65 	stmdavs	r3!, {r0, r2, r5, r6, r8, sl, fp, sp, lr}^
  ec:	2d6b6365 	stclcs	3, cr6, [fp, #-404]!	; 0xfffffe6c
  f0:	74617473 	strbtvc	r7, [r1], #-1139	; 0x473
  f4:	646f632f 	strbtvs	r6, [pc], #-815	; fc <_start-0x7f04>
  f8:	68730065 	ldmdavs	r3!, {r0, r2, r5, r6}^
  fc:	2074726f 	rsbscs	r7, r4, pc, ror #4
 100:	69736e75 	ldmdbvs	r3!, {r0, r2, r4, r5, r6, r9, sl, fp, sp, lr}^
 104:	64656e67 	strbtvs	r6, [r5], #-3687	; 0xe67
 108:	746e6920 	strbtvc	r6, [lr], #-2336	; 0x920
 10c:	616d6b00 	cmnvs	sp, r0, lsl #22
 110:	636f6c6c 	cmnvs	pc, #108, 24	; 0x6c00
 114:	69707200 	ldmdbvs	r0!, {r9, ip, sp, lr}^
 118:	6e61725f 	mcrvs	2, 3, r7, cr1, cr15, {2}
 11c:	00323364 	eorseq	r3, r2, r4, ror #6
 120:	55465f5f 	strbpl	r5, [r6, #-3935]	; 0xf5f
 124:	4954434e 	ldmdbmi	r4, {r1, r2, r3, r6, r8, r9, lr}^
 128:	5f5f4e4f 	svcpl	0x005f4e4f
 12c:	5f6b6300 	svcpl	0x006b6300
 130:	74696e69 	strbtvc	r6, [r9], #-3689	; 0xe69
 134:	6e6f6c00 	cdpvs	12, 6, cr6, cr15, cr0, {0}
 138:	6f6c2067 	svcvs	0x006c2067
 13c:	7520676e 	strvc	r6, [r0, #-1902]!	; 0x76e
 140:	6769736e 	strbvs	r7, [r9, -lr, ror #6]!
 144:	2064656e 	rsbcs	r6, r4, lr, ror #10
 148:	00746e69 	rsbseq	r6, r4, r9, ror #28
 14c:	657a6973 	ldrbvs	r6, [sl, #-2419]!	; 0x973
 150:	65707974 	ldrbvs	r7, [r0, #-2420]!	; 0x974
 154:	6e6f6c00 	cdpvs	12, 6, cr6, cr15, cr0, {0}
 158:	6f6c2067 	svcvs	0x006c2067
 15c:	6920676e 	stmdbvs	r0!, {r1, r2, r3, r5, r6, r8, r9, sl, sp, lr}
 160:	6300746e 	movwvs	r7, #1134	; 0x46e
 164:	6572666b 	ldrbvs	r6, [r2, #-1643]!	; 0x66b
 168:	68730065 	ldmdavs	r3!, {r0, r2, r5, r6}^
 16c:	2074726f 	rsbscs	r7, r4, pc, ror #4
 170:	00746e69 	rsbseq	r6, r4, r9, ror #28
 174:	746e6975 	strbtvc	r6, [lr], #-2421	; 0x975
 178:	745f3233 	ldrbvc	r3, [pc], #-563	; 180 <_start-0x7e80>
 17c:	616d6b00 	cmnvs	sp, r0, lsl #22
 180:	636f6c6c 	cmnvs	pc, #108, 24	; 0x6c00
 184:	696e695f 	stmdbvs	lr!, {r0, r1, r2, r3, r4, r6, r8, fp, sp, lr}^
 188:	65735f74 	ldrbvs	r5, [r3, #-3956]!	; 0xf74
 18c:	74735f74 	ldrbtvc	r5, [r3], #-3956	; 0xf74
 190:	00747261 	rsbseq	r7, r4, r1, ror #4
 194:	5f697072 	svcpl	0x00697072
 198:	65736572 	ldrbvs	r6, [r3, #-1394]!	; 0x572
 19c:	75705f74 	ldrbvc	r5, [r0, #-3956]!	; 0xf74
 1a0:	70006374 	andvc	r6, r0, r4, ror r3
 1a4:	69646461 	stmdbvs	r4!, {r0, r5, r6, sl, sp, lr}^
 1a8:	7300676e 	movwvc	r6, #1902	; 0x76e
 1ac:	5f657a69 	svcpl	0x00657a69
 1b0:	72700074 	rsbsvc	r0, r0, #116	; 0x74
 1b4:	68007665 	stmdavs	r0, {r0, r2, r5, r6, r9, sl, ip, sp, lr}
 1b8:	6464615f 	strbtvs	r6, [r4], #-351	; 0x15f
 1bc:	61660072 	smcvs	24578	; 0x6002
 1c0:	685f7473 	ldmdavs	pc, {r0, r1, r4, r5, r6, sl, ip, sp, lr}^	; <UNPREDICTABLE>
 1c4:	00687361 	rsbeq	r7, r8, r1, ror #6
 1c8:	61746f74 	cmnvs	r4, r4, ror pc
 1cc:	69735f6c 	ldmdbvs	r3!, {r2, r3, r5, r6, r8, r9, sl, fp, ip, lr}^
 1d0:	6200657a 	andvs	r6, r0, #511705088	; 0x1e800000
 1d4:	317a725f 	cmncc	sl, pc, asr r2
 1d8:	7274705f 	rsbsvc	r7, r4, #95	; 0x5f
 1dc:	45524600 	ldrbmi	r4, [r2, #-1536]	; 0x600
 1e0:	41004445 	tstmi	r0, r5, asr #8
 1e4:	434f4c4c 	movtmi	r4, #64588	; 0xfc4c
 1e8:	72004445 	andvc	r4, r0, #1157627904	; 0x45000000
 1ec:	5f736665 	svcpl	0x00736665
 1f0:	6464696d 	strbtvs	r6, [r4], #-2413	; 0x96d
 1f4:	6200656c 	andvs	r6, r0, #108, 10	; 0x1b000000
 1f8:	6464615f 	strbtvs	r6, [r4], #-351	; 0x15f
 1fc:	6f745f72 	svcvs	0x00745f72
 200:	7264685f 	rsbvc	r6, r4, #6225920	; 0x5f0000
 204:	66657200 	strbtvs	r7, [r5], -r0, lsl #4
 208:	74735f73 	ldrbtvc	r5, [r3], #-3955	; 0xf73
 20c:	00747261 	rsbseq	r7, r4, r1, ror #4
 210:	6f6c6c61 	svcvs	0x006c6c61
 214:	00646563 	rsbeq	r6, r4, r3, ror #10
 218:	5245564f 	subpl	r5, r5, #82837504	; 0x4f00000
 21c:	44414548 	strbmi	r4, [r1], #-1352	; 0x548
 220:	59424e5f 	stmdbpl	r2, {r0, r1, r2, r3, r4, r6, r9, sl, fp, lr}^
 224:	00534554 	subseq	r4, r3, r4, asr r5
 228:	4f4c4c41 	svcmi	0x004c4c41
 22c:	464f5f43 	strbmi	r5, [pc], -r3, asr #30
 230:	54455346 	strbpl	r5, [r5], #-838	; 0x346
 234:	65686300 	strbvs	r6, [r8, #-768]!	; 0x300
 238:	705f6b63 	subsvc	r6, pc, r3, ror #22
 23c:	63007274 	movwvs	r7, #628	; 0x274
 240:	6c6c616b 	stfvse	f6, [ip], #-428	; 0xfffffe54
 244:	632e636f 	teqvs	lr, #-1140850687	; 0xbc000001
 248:	6c6c6100 	stfvse	f6, [ip], #-0
 24c:	6c5f636f 	mrrcvs	3, 6, r6, pc, cr15	; <UNPREDICTABLE>
 250:	6800636f 	stmdavs	r0, {r0, r1, r2, r3, r5, r6, r8, r9, sp, lr}
 254:	635f7264 	cmpvs	pc, #100, 4	; 0x40000006
 258:	6d75736b 	ldclvs	3, cr7, [r5, #-428]!	; 0xfffffe54
 25c:	44455200 	strbmi	r5, [r5], #-512	; 0x200
 260:	454e4f5a 	strbmi	r4, [lr, #-3930]	; 0xf5a
 264:	6c626e00 	stclvs	14, cr6, [r2], #-0
 268:	6e00736b 	cdpvs	3, 0, cr7, cr0, cr11, {3}
 26c:	65747962 	ldrbvs	r7, [r4, #-2402]!	; 0x962
 270:	6c615f73 	stclvs	15, cr5, [r1], #-460	; 0xfffffe34
 274:	00636f6c 	rsbeq	r6, r3, ip, ror #30
 278:	65657266 	strbvs	r7, [r5, #-614]!	; 0x266
 27c:	636f6c5f 	cmnvs	pc, #24320	; 0x5f00
 280:	615f6200 	cmpvs	pc, r0, lsl #4
 284:	636f6c6c 	cmnvs	pc, #108, 24	; 0x6c00
 288:	7274705f 	rsbsvc	r7, r4, #95	; 0x5f
 28c:	63727300 	cmnvs	r2, #0, 6
 290:	636f6c5f 	cmnvs	pc, #24320	; 0x5f00
 294:	6800745f 	stmdavs	r0, {r0, r1, r2, r3, r4, r6, sl, ip, sp, lr}
 298:	00706165 	rsbseq	r6, r0, r5, ror #2
 29c:	63656863 	cmnvs	r5, #6488064	; 0x630000
 2a0:	64685f6b 	strbtvs	r5, [r8], #-3947	; 0xf6b
 2a4:	5f620072 	svcpl	0x00620072
 2a8:	5f327a72 	svcpl	0x00327a72
 2ac:	00727470 	rsbseq	r7, r2, r0, ror r4
 2b0:	7272656e 	rsbsvc	r6, r2, #461373440	; 0x1b800000
 2b4:	0073726f 	rsbseq	r7, r3, pc, ror #4
 2b8:	5f726468 	svcpl	0x00726468
 2bc:	6e697270 	mcrvs	2, 3, r7, cr9, cr0, {3}
 2c0:	45530074 	ldrbmi	r0, [r3, #-116]	; 0x74
 2c4:	4e49544e 	cdpmi	4, 4, cr5, cr9, cr14, {2}
 2c8:	6d004c41 	stcvs	12, cr4, [r0, #-260]	; 0xfffffefc
 2cc:	5f6b7261 	svcpl	0x006b7261
 2d0:	006d656d 	rsbeq	r6, sp, sp, ror #10
 2d4:	63656863 	cmnvs	r5, #6488064	; 0x630000
 2d8:	6c625f6b 	stclvs	15, cr5, [r2], #-428	; 0xfffffe54
 2dc:	006b636f 	rsbeq	r6, fp, pc, ror #6
 2e0:	656e696c 	strbvs	r6, [lr, #-2412]!	; 0x96c
 2e4:	6d006f6e 	stcvs	15, cr6, [r0, #-440]	; 0xfffffe48
 2e8:	65736d65 	ldrbvs	r6, [r3, #-3429]!	; 0xd65
 2ec:	5f620074 	svcpl	0x00620074
 2f0:	5f327a72 	svcpl	0x00327a72
 2f4:	7479626e 	ldrbtvc	r6, [r9], #-622	; 0x26e
 2f8:	68007365 	stmdavs	r0, {r0, r2, r5, r6, r8, r9, ip, sp, lr}
 2fc:	635f7264 	cmpvs	pc, #100, 4	; 0x40000006
 300:	6d75736b 	ldclvs	3, cr7, [r5, #-428]!	; 0xfffffe54
 304:	6c61765f 	stclvs	6, cr7, [r1], #-380	; 0xfffffe84
 308:	6e697500 	cdpvs	5, 6, cr7, cr9, cr0, {0}
 30c:	745f3874 	ldrbvc	r3, [pc], #-2164	; 314 <_start-0x7cec>
 310:	72646800 	rsbvc	r6, r4, #0, 16
 314:	6e00745f 	cfmvsrvs	mvf0, r7
 318:	65747962 	ldrbvs	r7, [r4, #-2402]!	; 0x962
 31c:	65725f73 	ldrbvs	r5, [r2, #-3955]!	; 0xf73
 320:	656c006d 	strbvs	r0, [ip, #-109]!	; 0x6d
 324:	63007466 	movwvs	r7, #1126	; 0x466
 328:	6b636568 	blvs	18d98d0 <__bss_end__+0x18cf778>
 32c:	6d656d5f 	stclvs	13, cr6, [r5, #-380]!	; 0xfffffe84
 330:	61656800 	cmnvs	r5, r0, lsl #16
 334:	00726564 	rsbseq	r6, r2, r4, ror #10
 338:	6362696c 	cmnvs	r2, #108, 18	; 0x1b0000
 33c:	7361682f 	cmnvc	r1, #3080192	; 0x2f0000
 340:	00632e68 	rsbeq	r2, r3, r8, ror #28
 344:	6573552f 	ldrbvs	r5, [r3, #-1327]!	; 0x52f
 348:	622f7372 	eorvs	r7, pc, #-939524095	; 0xc8000001
 34c:	6e616972 	mcrvs	9, 3, r6, cr1, cr2, {3}
 350:	2f6e756a 	svccs	0x006e756a
 354:	6b736544 	blvs	1cd986c <__bss_end__+0x1ccf714>
 358:	2f706f74 	svccs	0x00706f74
 35c:	6f686373 	svcvs	0x00686373
 360:	532f6c6f 	teqpl	pc, #28416	; 0x6f00
 364:	6e697270 	mcrvs	2, 3, r7, cr9, cr0, {3}
 368:	32393167 	eorscc	r3, r9, #-1073741799	; 0xc0000019
 36c:	53432f30 	movtpl	r2, #16176	; 0x3f30
 370:	4c303432 	cfldrsmi	mvf3, [r0], #-200	; 0xffffff38
 374:	73632f58 	cmnvc	r3, #88, 30	; 0x160
 378:	6c303432 	cfldrsvs	mvf3, [r0], #-200	; 0xffffff38
 37c:	30322d78 	eorscc	r2, r2, r8, ror sp
 380:	2f727073 	svccs	0x00727073
 384:	7062696c 	rsbvc	r6, r2, ip, ror #18
 388:	696c0069 	stmdbvs	ip!, {r0, r3, r5, r6}^
 38c:	6d2f6362 	stcvs	3, cr6, [pc, #-392]!	; 20c <_start-0x7df4>
 390:	65736d65 	ldrbvs	r6, [r3, #-3429]!	; 0xd65
 394:	00632e74 	rsbeq	r2, r3, r4, ror lr
 398:	6e675f5f 	mcrvs	15, 3, r5, cr7, cr15, {2}
 39c:	765f6375 			; <UNDEFINED> instruction: 0x765f6375
 3a0:	696c5f61 	stmdbvs	ip!, {r0, r5, r6, r8, r9, sl, fp, ip, lr}^
 3a4:	6c007473 	cfstrsvs	mvf7, [r0], {115}	; 0x73
 3a8:	2f636269 	svccs	0x00636269
 3ac:	6e697270 	mcrvs	2, 3, r7, cr9, cr0, {3}
 3b0:	632e6b74 	teqvs	lr, #116, 22	; 0x1d000
 3b4:	5f617600 	svcpl	0x00617600
 3b8:	6e697270 	mcrvs	2, 3, r7, cr9, cr0, {3}
 3bc:	5f006b74 	svcpl	0x00006b74
 3c0:	5f61765f 	svcpl	0x0061765f
 3c4:	7473696c 	ldrbtvc	r6, [r3], #-2412	; 0x96c
 3c8:	615f5f00 	cmpvs	pc, r0, lsl #30
 3cc:	61750070 	cmnvs	r5, r0, ror r0
 3d0:	705f7472 	subsvc	r7, pc, r2, ror r4	; <UNPREDICTABLE>
 3d4:	00637475 	rsbeq	r7, r3, r5, ror r4
 3d8:	65746e69 	ldrbvs	r6, [r4, #-3689]!	; 0xe69
 3dc:	6c616e72 	stclvs	14, cr6, [r1], #-456	; 0xfffffe38
 3e0:	7475705f 	ldrbtvc	r7, [r5], #-95	; 0x5f
 3e4:	72616863 	rsbvc	r6, r1, #6488064	; 0x630000
 3e8:	69707200 	ldmdbvs	r0!, {r9, ip, sp, lr}^
 3ec:	7475705f 	ldrbtvc	r7, [r5], #-95	; 0x5f
 3f0:	72616863 	rsbvc	r6, r1, #6488064	; 0x630000
 3f4:	62696c00 	rsbvs	r6, r9, #0, 24
 3f8:	75702f63 	ldrbvc	r2, [r0, #-3939]!	; 0xf63
 3fc:	61686374 	smcvs	34356	; 0x8634
 400:	00632e72 	rsbeq	r2, r3, r2, ror lr
 404:	5f697072 	svcpl	0x00697072
 408:	5f746573 	svcpl	0x00746573
 40c:	63747570 	cmnvs	r4, #112, 10	; 0x1c000000
 410:	62696c00 	rsbvs	r6, r9, #0, 24
 414:	75702f63 	ldrbvc	r2, [r0, #-3939]!	; 0xf63
 418:	632e6b74 	teqvs	lr, #116, 22	; 0x1d000
 41c:	746e6900 	strbtvc	r6, [lr], #-2304	; 0x900
 420:	616e7265 	cmnvs	lr, r5, ror #4
 424:	75705f6c 	ldrbvc	r5, [r0, #-3948]!	; 0xf6c
 428:	6c006b74 	stcvs	11, cr6, [r0], {116}	; 0x74
 42c:	2f636269 	svccs	0x00636269
 430:	2d697072 	stclcs	0, cr7, [r9, #-456]!	; 0xfffffe38
 434:	646e6172 	strbtvs	r6, [lr], #-370	; 0x172
 438:	7200632e 	andvc	r6, r0, #-1207959552	; 0xb8000000
 43c:	725f6970 	subsvc	r6, pc, #112, 18	; 0x1c0000
 440:	31646e61 	cmncc	r4, r1, ror #28
 444:	70720036 	rsbsvc	r0, r2, r6, lsr r0
 448:	65725f69 	ldrbvs	r5, [r2, #-3945]!	; 0xf69
 44c:	00746573 	rsbseq	r6, r4, r3, ror r5
 450:	7273666c 	rsbsvc	r6, r3, #108, 12	; 0x6c00000
 454:	67656e00 	strbvs	r6, [r5, -r0, lsl #28]!
 458:	7200705f 	andvc	r7, r0, #95	; 0x5f
 45c:	72657665 	rsbvc	r7, r5, #105906176	; 0x6500000
 460:	69006573 	stmdbvs	r0, {r0, r1, r4, r5, r6, r8, sl, sp, lr}
 464:	67696473 			; <UNDEFINED> instruction: 0x67696473
 468:	70007469 	andvc	r7, r0, r9, ror #8
 46c:	5f737475 	svcpl	0x00737475
 470:	73007066 	movwvc	r7, #102	; 0x66
 474:	656e6769 	strbvs	r6, [lr, #-1897]!	; 0x769
 478:	00705f64 	rsbseq	r5, r0, r4, ror #30
 47c:	6362696c 	cmnvs	r2, #108, 18	; 0x1b0000
 480:	2d61762f 	stclcs	6, cr7, [r1, #-188]!	; 0xffffff44
 484:	6e697270 	mcrvs	2, 3, r7, cr9, cr0, {3}
 488:	632e6b74 	teqvs	lr, #116, 22	; 0x1d000
 48c:	69707200 	ldmdbvs	r0!, {r9, ip, sp, lr}^
 490:	7465735f 	strbtvc	r7, [r5], #-863	; 0x35f
 494:	74756f5f 	ldrbtvc	r6, [r5], #-3935	; 0xf5f
 498:	00747570 	rsbseq	r7, r4, r0, ror r5
 49c:	74646977 	strbtvc	r6, [r4], #-2423	; 0x977
 4a0:	75700068 	ldrbvc	r0, [r0, #-104]!	; 0x68
 4a4:	665f6374 			; <UNDEFINED> instruction: 0x665f6374
 4a8:	6d650070 	stclvs	0, cr0, [r5, #-448]!	; 0xfffffe40
 4ac:	73007469 	movwvc	r7, #1129	; 0x469
 4b0:	66666174 			; <UNDEFINED> instruction: 0x66666174
 4b4:	6372732d 	cmnvs	r2, #-1275068416	; 0xb4000000
 4b8:	656c632f 	strbvs	r6, [ip, #-815]!	; 0x32f
 4bc:	722d6e61 	eorvc	r6, sp, #1552	; 0x610
 4c0:	6f6f6265 	svcvs	0x006f6265
 4c4:	00632e74 	rsbeq	r2, r3, r4, ror lr
 4c8:	5f697072 	svcpl	0x00697072
 4cc:	6f626572 	svcvs	0x00626572
 4d0:	6400746f 	strvs	r7, [r0], #-1135	; 0x46f
 4d4:	79616c65 	stmdbvc	r1!, {r0, r2, r5, r6, sl, fp, sp, lr}^
 4d8:	00736d5f 	rsbseq	r6, r3, pc, asr sp
 4dc:	73625f5f 	cmnvc	r2, #380	; 0x17c
 4e0:	74735f73 	ldrbtvc	r5, [r3], #-3955	; 0xf73
 4e4:	5f747261 	svcpl	0x00747261
 4e8:	5f5f005f 	svcpl	0x005f005f
 4ec:	5f737362 	svcpl	0x00737362
 4f0:	5f646e65 	svcpl	0x00646e65
 4f4:	7362005f 	cmnvc	r2, #95	; 0x5f
 4f8:	6e655f73 	mcrvs	15, 3, r5, cr5, cr3, {3}
 4fc:	635f0064 	cmpvs	pc, #100	; 0x64
 500:	72617473 	rsbvc	r7, r1, #1929379840	; 0x73000000
 504:	74730074 	ldrbtvc	r0, [r3], #-116	; 0x74
 508:	2d666661 	stclcs	6, cr6, [r6, #-388]!	; 0xfffffe7c
 50c:	2f637273 	svccs	0x00637273
 510:	61747363 	cmnvs	r4, r3, ror #6
 514:	632e7472 	teqvs	lr, #1912602624	; 0x72000000
 518:	5f746100 	svcpl	0x00746100
 51c:	72657375 	rsbvc	r7, r5, #-738197503	; 0xd4000001
 520:	76656c5f 			; <UNDEFINED> instruction: 0x76656c5f
 524:	73006c65 	movwvc	r6, #3173	; 0xc65
 528:	66666174 			; <UNDEFINED> instruction: 0x66666174
 52c:	6372732d 	cmnvs	r2, #-1275068416	; 0xb4000000
 530:	6265722f 	rsbvs	r7, r5, #-268435454	; 0xf0000002
 534:	2e746f6f 	cdpcs	15, 7, cr6, cr4, cr15, {3}
 538:	4d500063 	ldclmi	0, cr0, [r0, #-396]	; 0xfffffe74
 53c:	5453525f 	ldrbpl	r5, [r3], #-607	; 0x25f
 540:	52575f43 	subspl	r5, r7, #268	; 0x10c
 544:	5f474643 	svcpl	0x00474643
 548:	4c4c5546 	cfstr64mi	mvdx5, [ip], {70}	; 0x46
 54c:	5345525f 	movtpl	r5, #21087	; 0x525f
 550:	50005445 	andpl	r5, r0, r5, asr #8
 554:	44575f4d 	ldrbmi	r5, [r7], #-3917	; 0xf4d
 558:	7300474f 	movwvc	r4, #1871	; 0x74f
 55c:	755f7465 	ldrbvc	r7, [pc, #-1125]	; ff <_start-0x7f01>
 560:	5f726573 	svcpl	0x00726573
 564:	6576656c 	ldrbvs	r6, [r6, #-1388]!	; 0x56c
 568:	5550006c 	ldrbpl	r0, [r0, #-108]	; 0x6c
 56c:	00323354 	eorseq	r3, r2, r4, asr r3
 570:	505f4d50 	subspl	r4, pc, r0, asr sp	; <UNPREDICTABLE>
 574:	57535341 	ldrbpl	r5, [r3, -r1, asr #6]
 578:	0044524f 	subeq	r5, r4, pc, asr #4
 57c:	525f4d50 	subspl	r4, pc, #80, 26	; 0x1400
 580:	00435453 	subeq	r5, r3, r3, asr r4
 584:	72737063 	rsbsvc	r7, r3, #99	; 0x63
 588:	6d697400 	cfstrdvs	mvd7, [r9, #-0]
 58c:	675f7265 	ldrbvs	r7, [pc, -r5, ror #4]
 590:	755f7465 	ldrbvc	r7, [pc, #-1125]	; 133 <_start-0x7ecd>
 594:	5f636573 	svcpl	0x00636573
 598:	00776172 	rsbseq	r6, r7, r2, ror r1
 59c:	616c6564 	cmnvs	ip, r4, ror #10
 5a0:	65735f79 	ldrbvs	r5, [r3, #-3961]!	; 0xf79
 5a4:	74730063 	ldrbtvc	r0, [r3], #-99	; 0x63
 5a8:	2d666661 	stclcs	6, cr6, [r6, #-388]!	; 0xfffffe7c
 5ac:	2f637273 	svccs	0x00637273
 5b0:	656d6974 	strbvs	r6, [sp, #-2420]!	; 0x974
 5b4:	00632e72 	rsbeq	r2, r3, r2, ror lr
 5b8:	33544547 	cmpcc	r4, #297795584	; 0x11c00000
 5bc:	69740032 	ldmdbvs	r4!, {r1, r4, r5}^
 5c0:	00736b63 	rsbseq	r6, r3, r3, ror #22
 5c4:	616c6564 	cmnvs	ip, r4, ror #10
 5c8:	79635f79 	stmdbvc	r3!, {r0, r3, r4, r5, r6, r8, r9, sl, fp, ip, lr}^
 5cc:	73656c63 	cmnvc	r5, #25344	; 0x6300
 5d0:	6c656400 	cfstrdvs	mvd6, [r5], #-0
 5d4:	755f7961 	ldrbvc	r7, [pc, #-2401]	; fffffc7b <__bss_end__+0xffff5b23>
 5d8:	69740073 	ldmdbvs	r4!, {r0, r1, r4, r5, r6}^
 5dc:	5f72656d 	svcpl	0x0072656d
 5e0:	5f746567 	svcpl	0x00746567
 5e4:	63657375 	cmnvs	r5, #-738197503	; 0xd4000001
 5e8:	73645f00 	cmnvc	r4, #0, 30
 5ec:	61685f6f 	cmnvs	r8, pc, ror #30
 5f0:	656c646e 	strbvs	r6, [ip, #-1134]!	; 0x46e
 5f4:	61725f00 	cmnvs	r2, r0, lsl #30
 5f8:	3834646e 	ldmdacc	r4!, {r1, r2, r3, r5, r6, sl, sp, lr}
 5fc:	6d655f00 	stclvs	15, cr5, [r5, #-0]
 600:	65677265 	strbvs	r7, [r7, #-613]!	; 0x265
 604:	0079636e 	rsbseq	r6, r9, lr, ror #6
 608:	74726175 	ldrbtvc	r6, [r2], #-373	; 0x175
 60c:	696e695f 	stmdbvs	lr!, {r0, r1, r2, r3, r4, r6, r8, fp, sp, lr}^
 610:	775f0074 			; <UNDEFINED> instruction: 0x775f0074
 614:	6f747263 	svcvs	0x00747263
 618:	735f626d 	cmpvc	pc, #-805306362	; 0xd0000006
 61c:	65746174 	ldrbvs	r6, [r4, #-372]!	; 0x174
 620:	63775f00 	cmnvs	r7, #0, 30
 624:	6f747273 	svcvs	0x00747273
 628:	5f73626d 	svcpl	0x0073626d
 62c:	74617473 	strbtvc	r7, [r1], #-1139	; 0x473
 630:	6c5f0065 	mrrcvs	0, 6, r0, pc, cr5	; <UNPREDICTABLE>
 634:	69736662 	ldmdbvs	r3!, {r1, r5, r6, r9, sl, sp, lr}^
 638:	4700657a 	smlsdxmi	r0, sl, r5, r6
 63c:	5f4f4950 	svcpl	0x004f4950
 640:	434e5546 	movtmi	r5, #58694	; 0xe546
 644:	504e495f 	subpl	r4, lr, pc, asr r9
 648:	5f005455 	svcpl	0x00005455
 64c:	7472626d 	ldrbtvc	r6, [r2], #-621	; 0x26d
 650:	5f63776f 	svcpl	0x0063776f
 654:	74617473 	strbtvc	r7, [r1], #-1139	; 0x473
 658:	775f0065 	ldrbvc	r0, [pc, -r5, rrx]
 65c:	6d6f7463 	cfstrdvs	mvd7, [pc, #-396]!	; 4d8 <_start-0x7b28>
 660:	74735f62 	ldrbtvc	r5, [r3], #-3938	; 0xf62
 664:	00657461 	rsbeq	r7, r5, r1, ror #8
 668:	6d745f5f 	ldclvs	15, cr5, [r4, #-380]!	; 0xfffffe84
 66c:	6365735f 	cmnvs	r5, #2080374785	; 0x7c000001
 670:	61747300 	cmnvs	r4, r0, lsl #6
 674:	755f0074 	ldrbvc	r0, [pc, #-116]	; 608 <_start-0x79f8>
 678:	00667562 	rsbeq	r7, r6, r2, ror #10
 67c:	4f495047 	svcmi	0x00495047
 680:	4e55465f 	mrcmi	6, 2, r4, cr5, cr15, {2}
 684:	4c415f43 	mcrrmi	15, 4, r5, r1, cr3
 688:	5f003154 	svcpl	0x00003154
 68c:	65736162 	ldrbvs	r6, [r3, #-354]!	; 0x162
 690:	746e6300 	strbtvc	r6, [lr], #-768	; 0x300
 694:	5f5f006c 	svcpl	0x005f006c
 698:	685f6d74 	ldmdavs	pc, {r2, r4, r5, r6, r8, sl, fp, sp, lr}^	; <UNPREDICTABLE>
 69c:	0072756f 	rsbseq	r7, r2, pc, ror #10
 6a0:	66735f5f 	uhsaxvs	r5, r3, pc	; <UNPREDICTABLE>
 6a4:	6e6f5f00 	cdpvs	15, 6, cr5, cr15, cr0, {0}
 6a8:	6978655f 	ldmdbvs	r8!, {r0, r1, r2, r3, r4, r6, r8, sl, sp, lr}^
 6ac:	72615f74 	rsbvc	r5, r1, #116, 30	; 0x1d0
 6b0:	5f007367 	svcpl	0x00007367
 6b4:	6b6f6f63 	blvs	1bdc448 <__bss_end__+0x1bd22f0>
 6b8:	5f006569 	svcpl	0x00006569
 6bc:	6c67735f 	stclvs	3, cr7, [r7], #-380	; 0xfffffe84
 6c0:	5f006575 	svcpl	0x00006575
 6c4:	67616c66 	strbvs	r6, [r1, -r6, ror #24]!
 6c8:	695f0073 	ldmdbvs	pc, {r0, r1, r4, r5, r6}^	; <UNPREDICTABLE>
 6cc:	78635f73 	stmdavc	r3!, {r0, r1, r4, r5, r6, r8, r9, sl, fp, ip, lr}^
 6d0:	735f0061 	cmpvc	pc, #97	; 0x61
 6d4:	6e696474 	mcrvs	4, 3, r6, cr9, cr4, {3}
 6d8:	6c625f00 	stclvs	15, cr5, [r2], #-0
 6dc:	7a69736b 	bvc	1a5d490 <__bss_end__+0x1a53338>
 6e0:	61750065 	cmnvs	r5, r5, rrx
 6e4:	632e7472 	teqvs	lr, #1912602624	; 0x72000000
 6e8:	78756100 	ldmdavc	r5!, {r8, sp, lr}^
 6ec:	7265705f 	rsbvc	r7, r5, #95	; 0x5f
 6f0:	73687069 	cmnvc	r8, #105	; 0x69
 6f4:	76635f00 	strbtvc	r5, [r3], -r0, lsl #30
 6f8:	66756274 			; <UNDEFINED> instruction: 0x66756274
 6fc:	6f682f00 	svcvs	0x00682f00
 700:	652f656d 	strvs	r6, [pc, #-1389]!	; 19b <_start-0x7e65>
 704:	656c676e 	strbvs	r6, [ip, #-1902]!	; 0x76e
 708:	6c632f72 	stclvs	15, cr2, [r3], #-456	; 0xfffffe38
 70c:	2f737361 	svccs	0x00737361
 710:	34327363 	ldrtcc	r7, [r2], #-867	; 0x363
 714:	2d786c30 	ldclcs	12, cr6, [r8, #-192]!	; 0xffffff40
 718:	70733032 	rsbsvc	r3, r3, r2, lsr r0
 71c:	696c2f72 	stmdbvs	ip!, {r1, r4, r5, r6, r8, r9, sl, fp, sp}^
 720:	2f697062 	svccs	0x00697062
 724:	66617473 			; <UNDEFINED> instruction: 0x66617473
 728:	72702d66 	rsbsvc	r2, r0, #6528	; 0x1980
 72c:	74617669 	strbtvc	r7, [r1], #-1641	; 0x669
 730:	6d5f0065 	ldclvs	0, cr0, [pc, #-404]	; 5a4 <_start-0x7a5c>
 734:	74727362 	ldrbtvc	r7, [r2], #-866	; 0x362
 738:	7363776f 	cmnvc	r3, #29097984	; 0x1bc0000
 73c:	6174735f 	cmnvs	r4, pc, asr r3
 740:	5f006574 	svcpl	0x00006574
 744:	6c72626d 	lfmvs	f6, 2, [r2], #-436	; 0xfffffe4c
 748:	735f6e65 	cmpvc	pc, #1616	; 0x650
 74c:	65746174 	ldrbvs	r6, [r4, #-372]!	; 0x174
 750:	6e665f00 	cdpvs	15, 6, cr5, cr6, cr0, {0}
 754:	73677261 	cmnvc	r7, #268435462	; 0x10000006
 758:	78756100 	ldmdavc	r5!, {r8, sp, lr}^
 75c:	616e655f 	cmnvs	lr, pc, asr r5
 760:	73656c62 	cmnvc	r5, #25088	; 0x6200
 764:	6e665f00 	cdpvs	15, 6, cr5, cr6, cr0, {0}
 768:	735f0073 	cmpvc	pc, #115	; 0x73
 76c:	006e6769 	rsbeq	r6, lr, r9, ror #14
 770:	74726175 	ldrbtvc	r6, [r2], #-373	; 0x175
 774:	6e61635f 	mcrvs	3, 3, r6, cr1, cr15, {2}
 778:	7475705f 	ldrbtvc	r7, [r5], #-95	; 0x5f
 77c:	665f0063 	ldrbvs	r0, [pc], -r3, rrx
 780:	6b636f6c 	blvs	18dc538 <__bss_end__+0x18d23e0>
 784:	5f00745f 	svcpl	0x0000745f
 788:	65647473 	strbvs	r7, [r4, #-1139]!	; 0x473
 78c:	5f007272 	svcpl	0x00007272
 790:	69676942 	stmdbvs	r7!, {r1, r6, r8, fp, sp, lr}^
 794:	5f00746e 	svcpl	0x0000746e
 798:	6d6d6167 	stfvse	f6, [sp, #-412]!	; 0xfffffe64
 79c:	69735f61 	ldmdbvs	r3!, {r0, r5, r6, r8, r9, sl, fp, ip, lr}^
 7a0:	61676e67 	cmnvs	r7, r7, ror #28
 7a4:	725f006d 	subsvc	r0, pc, #109	; 0x6d
 7a8:	6c757365 	ldclvs	3, cr7, [r5], #-404	; 0xfffffe6c
 7ac:	006b5f74 	rsbeq	r5, fp, r4, ror pc
 7b0:	6d745f5f 	ldclvs	15, cr5, [r4, #-380]!	; 0xfffffe84
 7b4:	775f5f00 	ldrbvc	r5, [pc, -r0, lsl #30]
 7b8:	00626863 	rsbeq	r6, r2, r3, ror #16
 7bc:	74726175 	ldrbtvc	r6, [r2], #-373	; 0x175
 7c0:	7465675f 	strbtvc	r6, [r5], #-1887	; 0x75f
 7c4:	735f0063 	cmpvc	pc, #99	; 0x63
 7c8:	756f6474 	strbvc	r6, [pc, #-1140]!	; 35c <_start-0x7ca4>
 7cc:	635f0074 	cmpvs	pc, #116	; 0x74
 7d0:	656c7476 	strbvs	r7, [ip, #-1142]!	; 0x476
 7d4:	665f006e 	ldrbvs	r0, [pc], -lr, rrx
 7d8:	00656c69 	rsbeq	r6, r5, r9, ror #24
 7dc:	6f696e5f 	svcvs	0x00696e5f
 7e0:	5f007362 	svcpl	0x00007362
 7e4:	78657461 	stmdavc	r5!, {r0, r5, r6, sl, ip, sp, lr}^
 7e8:	00307469 	eorseq	r7, r0, r9, ror #8
 7ec:	6769735f 			; <UNDEFINED> instruction: 0x6769735f
 7f0:	5f6c616e 	svcpl	0x006c616e
 7f4:	00667562 	rsbeq	r7, r6, r2, ror #10
 7f8:	6373615f 	cmnvs	r3, #-1073741801	; 0xc0000017
 7fc:	656d6974 	strbvs	r6, [sp, #-2420]!	; 0x974
 800:	6675625f 			; <UNDEFINED> instruction: 0x6675625f
 804:	76656400 	strbtvc	r6, [r5], -r0, lsl #8
 808:	7261625f 	rsbvc	r6, r1, #-268435451	; 0xf0000005
 80c:	72656972 	rsbvc	r6, r5, #1867776	; 0x1c8000
 810:	65725f00 	ldrbvs	r5, [r2, #-3840]!	; 0xf00
 814:	746c7573 	strbtvc	r7, [ip], #-1395	; 0x573
 818:	775f5f00 	ldrbvc	r5, [pc, -r0, lsl #30]
 81c:	47006863 	strmi	r6, [r0, -r3, ror #16]
 820:	5f4f4950 	svcpl	0x004f4950
 824:	434e5546 	movtmi	r5, #58694	; 0xe546
 828:	544c415f 	strbpl	r4, [ip], #-351	; 0x15f
 82c:	69770032 	ldmdbvs	r7!, {r1, r4, r5}^
 830:	745f746e 	ldrbvc	r7, [pc], #-1134	; 838 <_start-0x77c8>
 834:	6f6c5f00 	svcvs	0x006c5f00
 838:	5f006b63 	svcpl	0x00006b63
 83c:	67616c66 	strbvs	r6, [r1, -r6, ror #24]!
 840:	5f003273 	svcpl	0x00003273
 844:	5f6d745f 	svcpl	0x006d745f
 848:	72616579 	rsbvc	r6, r1, #507510784	; 0x1e400000
 84c:	666f5f00 	strbtvs	r5, [pc], -r0, lsl #30
 850:	74657366 	strbtvc	r7, [r5], #-870	; 0x366
 854:	69706700 	ldmdbvs	r0!, {r8, r9, sl, sp, lr}^
 858:	65735f6f 	ldrbvs	r5, [r3, #-3951]!	; 0xf6f
 85c:	75665f74 	strbvc	r5, [r6, #-3956]!	; 0xf74
 860:	6974636e 	ldmdbvs	r4!, {r1, r2, r3, r5, r6, r8, r9, sp, lr}^
 864:	5f006e6f 	svcpl	0x00006e6f
 868:	7478656e 	ldrbtvc	r6, [r8], #-1390	; 0x56e
 86c:	5f5f0066 	svcpl	0x005f0066
 870:	6d5f6d74 	ldclvs	13, cr6, [pc, #-464]	; 6a8 <_start-0x7958>
 874:	5f006e6f 	svcpl	0x00006e6f
 878:	78657461 	stmdavc	r5!, {r0, r5, r6, sl, ip, sp, lr}^
 87c:	5f007469 	svcpl	0x00007469
 880:	6964735f 	stmdbvs	r4!, {r0, r1, r2, r3, r4, r6, r8, r9, ip, sp, lr}^
 884:	696e6964 	stmdbvs	lr!, {r2, r5, r6, r8, fp, sp, lr}^
 888:	6f5f0074 	svcvs	0x005f0074
 88c:	745f6666 	ldrbvc	r6, [pc], #-1638	; 894 <_start-0x776c>
 890:	72617500 	rsbvc	r7, r1, #0, 10
 894:	665f0074 			; <UNDEFINED> instruction: 0x665f0074
 898:	6c656572 	cfstr64vs	mvdx6, [r5], #-456	; 0xfffffe38
 89c:	00747369 	rsbseq	r7, r4, r9, ror #6
 8a0:	434f4c5f 	movtmi	r4, #64607	; 0xfc5f
 8a4:	45525f4b 	ldrbmi	r5, [r2, #-3915]	; 0xf4b
 8a8:	53525543 	cmppl	r2, #281018368	; 0x10c00000
 8ac:	5f455649 	svcpl	0x00455649
 8b0:	6e5f0054 	mrcvs	0, 2, r0, cr15, cr4, {2}
 8b4:	5f007765 	svcpl	0x00007765
 8b8:	72655f68 	rsbvc	r5, r5, #104, 30	; 0x1a0
 8bc:	006f6e72 	rsbeq	r6, pc, r2, ror lr	; <UNPREDICTABLE>
 8c0:	6d745f5f 	ldclvs	15, cr5, [r4, #-380]!	; 0xfffffe84
 8c4:	6164795f 	cmnvs	r4, pc, asr r9
 8c8:	5f5f0079 	svcpl	0x005f0079
 8cc:	66756273 			; <UNDEFINED> instruction: 0x66756273
 8d0:	6f695f00 	svcvs	0x00695f00
 8d4:	5f007362 	svcpl	0x00007362
 8d8:	4c49465f 	mcrrmi	6, 5, r4, r9, cr15
 8dc:	6d5f0045 	ldclvs	0, cr0, [pc, #-276]	; 7d0 <_start-0x7830>
 8e0:	61747362 	cmnvs	r4, r2, ror #6
 8e4:	745f6574 	ldrbvc	r6, [pc], #-1396	; 8ec <_start-0x7714>
 8e8:	735f5f00 	cmpvc	pc, #0, 30
 8ec:	454c4946 	strbmi	r4, [ip, #-2374]	; 0x946
 8f0:	626d5f00 	rsbvs	r5, sp, #0, 30
 8f4:	74617473 	strbtvc	r7, [r1], #-1139	; 0x473
 8f8:	725f0065 	subsvc	r0, pc, #101	; 0x65
 8fc:	5f646e61 	svcpl	0x00646e61
 900:	7478656e 	ldrbtvc	r6, [r8], #-1390	; 0x56e
 904:	626d5f00 	rsbvs	r5, sp, #0, 30
 908:	5f6e656c 	svcpl	0x006e656c
 90c:	74617473 	strbtvc	r7, [r1], #-1139	; 0x473
 910:	695f0065 	ldmdbvs	pc, {r0, r2, r5, r6}^	; <UNPREDICTABLE>
 914:	5f00636e 	svcpl	0x0000636e
 918:	00646e69 	rsbeq	r6, r4, r9, ror #28
 91c:	7275635f 	rsbsvc	r6, r5, #2080374785	; 0x7c000001
 920:	746e6572 	strbtvc	r6, [lr], #-1394	; 0x572
 924:	636f6c5f 	cmnvs	pc, #24320	; 0x5f00
 928:	00656c61 	rsbeq	r6, r5, r1, ror #24
 92c:	6c635f5f 	stclvs	15, cr5, [r3], #-380	; 0xfffffe84
 930:	756e6165 	strbvc	r6, [lr, #-357]!	; 0x165
 934:	6d5f0070 	ldclvs	0, cr0, [pc, #-448]	; 77c <_start-0x7884>
 938:	64777861 	ldrbtvs	r7, [r7], #-2145	; 0x861
 93c:	725f0073 	subsvc	r0, pc, #115	; 0x73
 940:	746e6565 	strbtvc	r6, [lr], #-1381	; 0x565
 944:	65735f00 	ldrbvs	r5, [r3, #-3840]!	; 0xf00
 948:	5f006465 	svcpl	0x00006465
 94c:	756f635f 	strbvc	r6, [pc, #-863]!	; 5f5 <_start-0x7a0b>
 950:	5f00746e 	svcpl	0x0000746e
 954:	6c61765f 	stclvs	6, cr7, [r1], #-380	; 0xfffffe84
 958:	5f006575 	svcpl	0x00006575
 95c:	6b656573 	blvs	1959f30 <__bss_end__+0x194fdd8>
 960:	75616200 	strbvc	r6, [r1, #-512]!	; 0x200
 964:	665f0064 	ldrbvs	r0, [pc], -r4, rrx
 968:	5f736f70 	svcpl	0x00736f70
 96c:	5f5f0074 	svcpl	0x005f0074
 970:	6d5f6d74 	ldclvs	13, cr6, [pc, #-464]	; 7a8 <_start-0x7858>
 974:	73006e69 	movwvc	r6, #3689	; 0xe69
 978:	74617263 	strbtvc	r7, [r1], #-611	; 0x263
 97c:	5f006863 	svcpl	0x00006863
 980:	746c756d 	strbtvc	r7, [ip], #-1389	; 0x56d
 984:	74757000 	ldrbtvc	r7, [r5], #-0
 988:	47003233 	smladxmi	r0, r3, r2, r3
 98c:	4320554e 	teqmi	r0, #327155712	; 0x13800000
 990:	36203939 			; <UNDEFINED> instruction: 0x36203939
 994:	312e332e 	teqcc	lr, lr, lsr #6
 998:	31303220 	teqcc	r0, r0, lsr #4
 99c:	32363037 	eorscc	r3, r6, #55	; 0x37
 9a0:	6d2d2030 	stcvs	0, cr2, [sp, #-192]!	; 0xffffff40
 9a4:	3d757063 	ldclcc	0, cr7, [r5, #-396]!	; 0xfffffe74
 9a8:	316d7261 	cmncc	sp, r1, ror #4
 9ac:	6a363731 	bvs	d8e678 <__bss_end__+0xd84520>
 9b0:	732d667a 	teqvc	sp, #127926272	; 0x7a00000
 9b4:	746d2d20 	strbtvc	r2, [sp], #-3360	; 0xd20
 9b8:	3d656e75 	stclcc	14, cr6, [r5, #-468]!	; 0xfffffe2c
 9bc:	316d7261 	cmncc	sp, r1, ror #4
 9c0:	6a363731 	bvs	d8e68c <__bss_end__+0xd84534>
 9c4:	732d667a 	teqvc	sp, #127926272	; 0x7a00000
 9c8:	67672d20 	strbvs	r2, [r7, -r0, lsr #26]!
 9cc:	2d206264 	sfmcs	f6, 4, [r0, #-400]!	; 0xfffffe70
 9d0:	2d20674f 	stccs	7, cr6, [r0, #-316]!	; 0xfffffec4
 9d4:	3d647473 	cfstrdcc	mvd7, [r4, #-460]!	; 0xfffffe34
 9d8:	39756e67 	ldmdbcc	r5!, {r0, r1, r2, r5, r6, r9, sl, fp, sp, lr}^
 9dc:	662d2039 			; <UNDEFINED> instruction: 0x662d2039
 9e0:	65657266 	strbvs	r7, [r5, #-614]!	; 0x266
 9e4:	6e617473 	mcrvs	4, 3, r7, cr1, cr3, {3}
 9e8:	676e6964 	strbvs	r6, [lr, -r4, ror #18]!
 9ec:	74735f00 	ldrbtvc	r5, [r3], #-3840	; 0xf00
 9f0:	6b6f7472 	blvs	1bddbc0 <__bss_end__+0x1bd3a68>
 9f4:	73616c5f 	cmnvc	r1, #24320	; 0x5f00
 9f8:	665f0074 			; <UNDEFINED> instruction: 0x665f0074
 9fc:	7079746e 	rsbsvc	r7, r9, lr, ror #8
 a00:	5f007365 	svcpl	0x00007365
 a04:	00646461 	rsbeq	r6, r4, r1, ror #8
 a08:	4c555f5f 	mrrcmi	15, 5, r5, r5, cr15	; <UNPREDICTABLE>
 a0c:	00676e6f 	rsbeq	r6, r7, pc, ror #28
 a10:	7465675f 	strbtvc	r6, [r5], #-1887	; 0x75f
 a14:	65746164 	ldrbvs	r6, [r4, #-356]!	; 0x164
 a18:	7272655f 	rsbsvc	r6, r2, #398458880	; 0x17c00000
 a1c:	6c675f00 	stclvs	15, cr5, [r7], #-0
 a20:	6c61626f 	sfmvs	f6, 2, [r1], #-444	; 0xfffffe44
 a24:	706d695f 	rsbvc	r6, sp, pc, asr r9
 a28:	5f657275 	svcpl	0x00657275
 a2c:	00727470 	rsbseq	r7, r2, r0, ror r4
 a30:	7275635f 	rsbsvc	r6, r5, #2080374785	; 0x7c000001
 a34:	746e6572 	strbtvc	r6, [lr], #-1394	; 0x572
 a38:	7461635f 	strbtvc	r6, [r1], #-863	; 0x35f
 a3c:	726f6765 	rsbvc	r6, pc, #26476544	; 0x1940000
 a40:	755f0079 	ldrbvc	r0, [pc, #-121]	; 9cf <_start-0x7631>
 a44:	6573756e 	ldrbvs	r7, [r3, #-1390]!	; 0x56e
 a48:	61725f64 	cmnvs	r2, r4, ror #30
 a4c:	5f00646e 	svcpl	0x0000646e
 a50:	00736477 	rsbseq	r6, r3, r7, ror r4
 a54:	6d745f5f 	ldclvs	15, cr5, [r4, #-380]!	; 0xfffffe84
 a58:	6164775f 	cmnvs	r4, pc, asr r7
 a5c:	675f0079 			; <UNDEFINED> instruction: 0x675f0079
 a60:	0065756c 	rsbeq	r7, r5, ip, ror #10
 a64:	4f495047 	svcmi	0x00495047
 a68:	4e55465f 	mrcmi	6, 2, r4, cr5, cr15, {2}
 a6c:	554f5f43 	strbpl	r5, [pc, #-3907]	; fffffb31 <__bss_end__+0xffff59d9>
 a70:	54555054 	ldrbpl	r5, [r5], #-84	; 0x54
 a74:	6d6e5f00 	stclvs	15, cr5, [lr, #-0]
 a78:	6f6c6c61 	svcvs	0x006c6c61
 a7c:	6c5f0063 	mrrcvs	0, 6, r0, pc, cr3	; <UNPREDICTABLE>
 a80:	5f613436 	svcpl	0x00613436
 a84:	00667562 	rsbeq	r7, r6, r2, ror #10
 a88:	33746567 	cmncc	r4, #432013312	; 0x19c00000
 a8c:	61750032 	cmnvs	r5, r2, lsr r0
 a90:	635f7472 	cmpvs	pc, #1912602624	; 0x72000000
 a94:	675f6e61 	ldrbvs	r6, [pc, -r1, ror #28]
 a98:	00637465 	rsbeq	r7, r3, r5, ror #8
 a9c:	6769735f 			; <UNDEFINED> instruction: 0x6769735f
 aa0:	6e75665f 	mrcvs	6, 3, r6, cr5, cr15, {2}
 aa4:	726f0063 	rsbvc	r0, pc, #99	; 0x63
 aa8:	336e695f 	cmncc	lr, #1556480	; 0x17c000
 aac:	61750032 	cmnvs	r5, r2, lsr r0
 ab0:	685f7472 	ldmdavs	pc, {r1, r4, r5, r6, sl, ip, sp, lr}^	; <UNPREDICTABLE>
 ab4:	645f7361 	ldrbvs	r7, [pc], #-865	; abc <_start-0x7544>
 ab8:	00617461 	rsbeq	r7, r1, r1, ror #8
 abc:	4f495047 	svcmi	0x00495047
 ac0:	4e55465f 	mrcmi	6, 2, r4, cr5, cr15, {2}
 ac4:	4c415f43 	mcrrmi	15, 4, r5, r1, cr3
 ac8:	5f003054 	svcpl	0x00003054
 acc:	6675626e 	ldrbtvs	r6, [r5], -lr, ror #4
 ad0:	6e755f00 	cdpvs	15, 7, cr5, cr5, cr0, {0}
 ad4:	64657375 	strbtvs	r7, [r5], #-885	; 0x375
 ad8:	49504700 	ldmdbmi	r0, {r8, r9, sl, lr}^
 adc:	55465f4f 	strbpl	r5, [r6, #-3919]	; 0xf4f
 ae0:	415f434e 	cmpmi	pc, lr, asr #6
 ae4:	0033544c 	eorseq	r5, r3, ip, asr #8
 ae8:	4f495047 	svcmi	0x00495047
 aec:	4e55465f 	mrcmi	6, 2, r4, cr5, cr15, {2}
 af0:	4c415f43 	mcrrmi	15, 4, r5, r1, cr3
 af4:	47003454 	smlsdmi	r0, r4, r4, r3
 af8:	5f4f4950 	svcpl	0x004f4950
 afc:	434e5546 	movtmi	r5, #58694	; 0xe546
 b00:	544c415f 	strbpl	r4, [ip], #-351	; 0x15f
 b04:	5f5f0035 	svcpl	0x005f0035
 b08:	695f6d74 	ldmdbvs	pc, {r2, r4, r5, r6, r8, sl, fp, sp, lr}^	; <UNPREDICTABLE>
 b0c:	74736473 	ldrbtvc	r6, [r3], #-1139	; 0x473
 b10:	6f6c5f00 	svcvs	0x006c5f00
 b14:	746c6163 	strbtvc	r6, [ip], #-355	; 0x163
 b18:	5f656d69 	svcpl	0x00656d69
 b1c:	00667562 	rsbeq	r7, r6, r2, ror #10
 b20:	6f6c635f 	svcvs	0x006c635f
 b24:	5f006573 	svcpl	0x00006573
 b28:	00383472 	eorseq	r3, r8, r2, ror r4
 b2c:	74626d5f 	strbtvc	r6, [r2], #-3423	; 0xd5f
 b30:	5f63776f 	svcpl	0x0063776f
 b34:	74617473 	strbtvc	r7, [r1], #-1139	; 0x473
 b38:	705f0065 	subsvc	r0, pc, r5, rrx
 b3c:	5f007335 	svcpl	0x00007335
 b40:	5f6d745f 	svcpl	0x006d745f
 b44:	7961646d 	stmdbvc	r1!, {r0, r2, r3, r5, r6, sl, sp, lr}^
 b48:	69706700 	ldmdbvs	r0!, {r8, r9, sl, sp, lr}^
 b4c:	65735f6f 	ldrbvs	r5, [r3, #-3951]!	; 0xf6f
 b50:	666f5f74 	uqsub16vs	r5, pc, r4	; <UNPREDICTABLE>
 b54:	61620066 	cmnvs	r2, r6, rrx
 b58:	67006b6e 	strvs	r6, [r0, -lr, ror #22]
 b5c:	2e6f6970 	mcrcs	9, 3, r6, cr15, cr0, {3}
 b60:	70670063 	rsbvc	r0, r7, r3, rrx
 b64:	725f6f69 	subsvc	r6, pc, #420	; 0x1a4
 b68:	00646165 	rsbeq	r6, r4, r5, ror #2
 b6c:	6f697067 	svcvs	0x00697067
 b70:	7465735f 	strbtvc	r7, [r5], #-863	; 0x35f
 b74:	74756f5f 	ldrbtvc	r6, [r5], #-3935	; 0xf5f
 b78:	00747570 	rsbseq	r7, r4, r0, ror r5
 b7c:	6f697067 	svcvs	0x00697067
 b80:	6972775f 	ldmdbvs	r2!, {r0, r1, r2, r3, r4, r6, r8, r9, sl, ip, sp, lr}^
 b84:	67006574 	smlsdxvs	r0, r4, r5, r6
 b88:	5f6f6970 	svcpl	0x006f6970
 b8c:	30746573 	rsbscc	r6, r4, r3, ror r5
 b90:	69706700 	ldmdbvs	r0!, {r8, r9, sl, sp, lr}^
 b94:	656c5f6f 	strbvs	r5, [ip, #-3951]!	; 0xf6f
 b98:	67003076 	smlsdxvs	r0, r6, r0, r3
 b9c:	5f6f6970 	svcpl	0x006f6970
 ba0:	5f746573 	svcpl	0x00746573
 ba4:	75706e69 	ldrbvc	r6, [r0, #-3689]!	; 0xe69
 ba8:	70670074 	rsbvc	r0, r7, r4, ror r0
 bac:	735f6f69 	cmpvc	pc, #420	; 0x1a4
 bb0:	6f5f7465 	svcvs	0x005f7465
 bb4:	7067006e 	rsbvc	r0, r7, lr, rrx
 bb8:	665f6f69 	ldrbvs	r6, [pc], -r9, ror #30
 bbc:	5f636e75 	svcpl	0x00636e75
 bc0:	70670074 	rsbvc	r0, r7, r4, ror r0
 bc4:	635f6f69 	cmpvs	pc, #420	; 0x1a4
 bc8:	0030726c 	eorseq	r7, r0, ip, ror #4
 bcc:	6c616d6b 	stclvs	13, cr6, [r1], #-428	; 0xfffffe54
 bd0:	2e636f6c 	cdpcs	15, 6, cr6, cr3, cr12, {3}
 bd4:	6d6b0063 	stclvs	0, cr0, [fp, #-396]!	; 0xfffffe74
 bd8:	6f6c6c61 	svcvs	0x006c6c61
 bdc:	6e695f63 	cdpvs	15, 6, cr5, cr9, cr3, {3}
 be0:	6b007469 	blvs	1dd8c <__bss_end__+0x13c34>
 be4:	6c6c616d 	stfvse	f6, [ip], #-436	; 0xfffffe4c
 be8:	615f636f 	cmpvs	pc, pc, ror #6
 bec:	6e67696c 	cdpvs	9, 6, cr6, cr7, cr12, {3}
 bf0:	64006465 	strvs	r6, [r0], #-1125	; 0x465
 bf4:	6c62756f 	cfstr64vs	mvdx7, [r2], #-444	; 0xfffffe44
 bf8:	666b0065 	strbtvs	r0, [fp], -r5, rrx
 bfc:	5f656572 	svcpl	0x00656572
 c00:	006c6c61 	rsbeq	r6, ip, r1, ror #24
 c04:	6572666b 	ldrbvs	r6, [r2, #-1643]!	; 0x66b
 c08:	66615f65 	strbtvs	r5, [r1], -r5, ror #30
 c0c:	00726574 	rsbseq	r6, r2, r4, ror r5
 c10:	6c616d6b 	stclvs	13, cr6, [r1], #-428	; 0xfffffe54
 c14:	5f636f6c 	svcpl	0x00636f6c
 c18:	70616568 	rsbvc	r6, r1, r8, ror #10
 c1c:	7274705f 	rsbsvc	r7, r4, #95	; 0x5f
 c20:	696c6100 	stmdbvs	ip!, {r8, sp, lr}^
 c24:	656d6e67 	strbvs	r6, [sp, #-3687]!	; 0xe67
 c28:	5f00746e 	svcpl	0x0000746e
 c2c:	6165685f 	cmnvs	r5, pc, asr r8
 c30:	74735f70 	ldrbtvc	r5, [r3], #-3952	; 0xf70
 c34:	5f747261 	svcpl	0x00747261
 c38:	6d6b005f 	stclvs	0, cr0, [fp, #-380]!	; 0xfffffe84
 c3c:	6f6c6c61 	svcvs	0x006c6c61
 c40:	65685f63 	strbvs	r5, [r8, #-3939]!	; 0xf63
 c44:	735f7061 	cmpvc	pc, #97	; 0x61
 c48:	74726174 	ldrbtvc	r6, [r2], #-372	; 0x174
 c4c:	616d6b00 	cmnvs	sp, r0, lsl #22
 c50:	636f6c6c 	cmnvs	pc, #108, 24	; 0x6c00
 c54:	6165685f 	cmnvs	r5, pc, asr r8
 c58:	6e655f70 	mcrvs	15, 3, r5, cr5, cr0, {3}
 c5c:	Address 0x0000000000000c5c is out of bounds.


Disassembly of section .debug_frame:

00000000 <.debug_frame>:
   0:	0000000c 	andeq	r0, r0, ip
   4:	ffffffff 			; <UNDEFINED> instruction: 0xffffffff
   8:	7c020001 	stcvc	0, cr0, [r2], {1}
   c:	000d0c0e 	andeq	r0, sp, lr, lsl #24
  10:	00000020 	andeq	r0, r0, r0, lsr #32
  14:	00000000 	andeq	r0, r0, r0
  18:	00008010 	andeq	r8, r0, r0, lsl r0
  1c:	000001b4 			; <UNDEFINED> instruction: 0x000001b4
  20:	84180e42 	ldrhi	r0, [r8], #-3650	; 0xe42
  24:	86058506 	strhi	r8, [r5], -r6, lsl #10
  28:	88038704 	stmdahi	r3, {r2, r8, r9, sl, pc}
  2c:	42018e02 	andmi	r8, r1, #2, 28
  30:	0000480e 	andeq	r4, r0, lr, lsl #16
  34:	0000000c 	andeq	r0, r0, ip
  38:	ffffffff 			; <UNDEFINED> instruction: 0xffffffff
  3c:	7c020001 	stcvc	0, cr0, [r2], {1}
  40:	000d0c0e 	andeq	r0, sp, lr, lsl #24
  44:	0000000c 	andeq	r0, r0, ip
  48:	00000034 	andeq	r0, r0, r4, lsr r0
  4c:	000081c4 	andeq	r8, r0, r4, asr #3
  50:	00000008 	andeq	r0, r0, r8
  54:	00000014 	andeq	r0, r0, r4, lsl r0
  58:	00000034 	andeq	r0, r0, r4, lsr r0
  5c:	000081cc 	andeq	r8, r0, ip, asr #3
  60:	00000010 	andeq	r0, r0, r0, lsl r0
  64:	83080e42 	movwhi	r0, #36418	; 0x8e42
  68:	00018e02 	andeq	r8, r1, r2, lsl #28
  6c:	00000014 	andeq	r0, r0, r4, lsl r0
  70:	00000034 	andeq	r0, r0, r4, lsr r0
  74:	000081dc 	ldrdeq	r8, [r0], -ip
  78:	00000018 	andeq	r0, r0, r8, lsl r0
  7c:	84080e42 	strhi	r0, [r8], #-3650	; 0xe42
  80:	00018e02 	andeq	r8, r1, r2, lsl #28
  84:	0000000c 	andeq	r0, r0, ip
  88:	00000034 	andeq	r0, r0, r4, lsr r0
  8c:	000081f4 	strdeq	r8, [r0], -r4
  90:	0000000c 	andeq	r0, r0, ip
  94:	0000000c 	andeq	r0, r0, ip
  98:	00000034 	andeq	r0, r0, r4, lsr r0
  9c:	00008200 	andeq	r8, r0, r0, lsl #4
  a0:	00000008 	andeq	r0, r0, r8
  a4:	0000001c 	andeq	r0, r0, ip, lsl r0
  a8:	00000034 	andeq	r0, r0, r4, lsr r0
  ac:	00008208 	andeq	r8, r0, r8, lsl #4
  b0:	00000108 	andeq	r0, r0, r8, lsl #2
  b4:	83180e42 	tsthi	r8, #1056	; 0x420
  b8:	85058406 	strhi	r8, [r5, #-1030]	; 0x406
  bc:	87038604 	strhi	r8, [r3, -r4, lsl #12]
  c0:	00018e02 	andeq	r8, r1, r2, lsl #28
  c4:	00000014 	andeq	r0, r0, r4, lsl r0
  c8:	00000034 	andeq	r0, r0, r4, lsr r0
  cc:	00008310 	andeq	r8, r0, r0, lsl r3
  d0:	00000014 	andeq	r0, r0, r4, lsl r0
  d4:	83080e42 	movwhi	r0, #36418	; 0x8e42
  d8:	00018e02 	andeq	r8, r1, r2, lsl #28
  dc:	00000018 	andeq	r0, r0, r8, lsl r0
  e0:	00000034 	andeq	r0, r0, r4, lsr r0
  e4:	00008324 	andeq	r8, r0, r4, lsr #6
  e8:	00000024 	andeq	r0, r0, r4, lsr #32
  ec:	83100e42 	tsthi	r0, #1056	; 0x420
  f0:	85038404 	strhi	r8, [r3, #-1028]	; 0x404
  f4:	00018e02 	andeq	r8, r1, r2, lsl #28
  f8:	00000018 	andeq	r0, r0, r8, lsl r0
  fc:	00000034 	andeq	r0, r0, r4, lsr r0
 100:	00008348 	andeq	r8, r0, r8, asr #6
 104:	0000009c 	muleq	r0, ip, r0
 108:	83100e42 	tsthi	r0, #1056	; 0x420
 10c:	85038404 	strhi	r8, [r3, #-1028]	; 0x404
 110:	00018e02 	andeq	r8, r1, r2, lsl #28
 114:	00000018 	andeq	r0, r0, r8, lsl r0
 118:	00000034 	andeq	r0, r0, r4, lsr r0
 11c:	000083e4 	andeq	r8, r0, r4, ror #7
 120:	00000080 	andeq	r0, r0, r0, lsl #1
 124:	83100e42 	tsthi	r0, #1056	; 0x420
 128:	85038404 	strhi	r8, [r3, #-1028]	; 0x404
 12c:	00018e02 	andeq	r8, r1, r2, lsl #28
 130:	00000018 	andeq	r0, r0, r8, lsl r0
 134:	00000034 	andeq	r0, r0, r4, lsr r0
 138:	00008464 	andeq	r8, r0, r4, ror #8
 13c:	00000074 	andeq	r0, r0, r4, ror r0
 140:	83100e42 	tsthi	r0, #1056	; 0x420
 144:	85038404 	strhi	r8, [r3, #-1028]	; 0x404
 148:	00018e02 	andeq	r8, r1, r2, lsl #28
 14c:	0000001c 	andeq	r0, r0, ip, lsl r0
 150:	00000034 	andeq	r0, r0, r4, lsr r0
 154:	000084d8 	ldrdeq	r8, [r0], -r8	; <UNPREDICTABLE>
 158:	000000c0 	andeq	r0, r0, r0, asr #1
 15c:	84180e42 	ldrhi	r0, [r8], #-3650	; 0xe42
 160:	86058506 	strhi	r8, [r5], -r6, lsl #10
 164:	88038704 	stmdahi	r3, {r2, r8, r9, sl, pc}
 168:	00018e02 	andeq	r8, r1, r2, lsl #28
 16c:	00000020 	andeq	r0, r0, r0, lsr #32
 170:	00000034 	andeq	r0, r0, r4, lsr r0
 174:	00008598 	muleq	r0, r8, r5
 178:	0000024c 	andeq	r0, r0, ip, asr #4
 17c:	841c0e42 	ldrhi	r0, [ip], #-3650	; 0xe42
 180:	86068507 	strhi	r8, [r6], -r7, lsl #10
 184:	88048705 	stmdahi	r4, {r0, r2, r8, r9, sl, pc}
 188:	8e028903 	cdphi	9, 0, cr8, cr2, cr3, {0}
 18c:	280e4201 	stmdacs	lr, {r0, r9, lr}
 190:	00000020 	andeq	r0, r0, r0, lsr #32
 194:	00000034 	andeq	r0, r0, r4, lsr r0
 198:	000087e4 	andeq	r8, r0, r4, ror #15
 19c:	00000148 	andeq	r0, r0, r8, asr #2
 1a0:	83200e42 	teqhi	r0, #1056	; 0x420
 1a4:	85078408 	strhi	r8, [r7, #-1032]	; 0x408
 1a8:	87058606 	strhi	r8, [r5, -r6, lsl #12]
 1ac:	89038804 	stmdbhi	r3, {r2, fp, pc}
 1b0:	00018e02 	andeq	r8, r1, r2, lsl #28
 1b4:	0000000c 	andeq	r0, r0, ip
 1b8:	ffffffff 			; <UNDEFINED> instruction: 0xffffffff
 1bc:	7c020001 	stcvc	0, cr0, [r2], {1}
 1c0:	000d0c0e 	andeq	r0, sp, lr, lsl #24
 1c4:	00000014 	andeq	r0, r0, r4, lsl r0
 1c8:	000001b4 			; <UNDEFINED> instruction: 0x000001b4
 1cc:	0000892c 	andeq	r8, r0, ip, lsr #18
 1d0:	000000f0 	strdeq	r0, [r0], -r0	; <UNPREDICTABLE>
 1d4:	84040e42 	strhi	r0, [r4], #-3650	; 0xe42
 1d8:	00000001 	andeq	r0, r0, r1
 1dc:	0000000c 	andeq	r0, r0, ip
 1e0:	ffffffff 			; <UNDEFINED> instruction: 0xffffffff
 1e4:	7c020001 	stcvc	0, cr0, [r2], {1}
 1e8:	000d0c0e 	andeq	r0, sp, lr, lsl #24
 1ec:	0000000c 	andeq	r0, r0, ip
 1f0:	000001dc 	ldrdeq	r0, [r0], -ip
 1f4:	00008a1c 	andeq	r8, r0, ip, lsl sl
 1f8:	00000020 	andeq	r0, r0, r0, lsr #32
 1fc:	0000000c 	andeq	r0, r0, ip
 200:	ffffffff 			; <UNDEFINED> instruction: 0xffffffff
 204:	7c020001 	stcvc	0, cr0, [r2], {1}
 208:	000d0c0e 	andeq	r0, sp, lr, lsl #24
 20c:	00000024 	andeq	r0, r0, r4, lsr #32
 210:	000001fc 	strdeq	r0, [r0], -ip
 214:	00008a3c 	andeq	r8, r0, ip, lsr sl
 218:	00000058 	andeq	r0, r0, r8, asr r0
 21c:	80100e42 	andshi	r0, r0, r2, asr #28
 220:	82038104 	andhi	r8, r3, #4, 2
 224:	42018302 	andmi	r8, r1, #134217728	; 0x8000000
 228:	07841c0e 	streq	r1, [r4, lr, lsl #24]
 22c:	058e0685 	streq	r0, [lr, #1669]	; 0x685
 230:	00280e42 	eoreq	r0, r8, r2, asr #28
 234:	0000000c 	andeq	r0, r0, ip
 238:	ffffffff 			; <UNDEFINED> instruction: 0xffffffff
 23c:	7c020001 	stcvc	0, cr0, [r2], {1}
 240:	000d0c0e 	andeq	r0, sp, lr, lsl #24
 244:	00000014 	andeq	r0, r0, r4, lsl r0
 248:	00000234 	andeq	r0, r0, r4, lsr r2
 24c:	00008a94 	muleq	r0, r4, sl
 250:	00000014 	andeq	r0, r0, r4, lsl r0
 254:	84080e42 	strhi	r0, [r8], #-3650	; 0xe42
 258:	00018e02 	andeq	r8, r1, r2, lsl #28
 25c:	0000000c 	andeq	r0, r0, ip
 260:	00000234 	andeq	r0, r0, r4, lsr r2
 264:	00008aa8 	andeq	r8, r0, r8, lsr #21
 268:	00000018 	andeq	r0, r0, r8, lsl r0
 26c:	0000000c 	andeq	r0, r0, ip
 270:	00000234 	andeq	r0, r0, r4, lsr r2
 274:	00008ac0 	andeq	r8, r0, r0, asr #21
 278:	00000010 	andeq	r0, r0, r0, lsl r0
 27c:	0000000c 	andeq	r0, r0, ip
 280:	ffffffff 			; <UNDEFINED> instruction: 0xffffffff
 284:	7c020001 	stcvc	0, cr0, [r2], {1}
 288:	000d0c0e 	andeq	r0, sp, lr, lsl #24
 28c:	00000018 	andeq	r0, r0, r8, lsl r0
 290:	0000027c 	andeq	r0, r0, ip, ror r2
 294:	00008ad0 	ldrdeq	r8, [r0], -r0
 298:	00000034 	andeq	r0, r0, r4, lsr r0
 29c:	83100e42 	tsthi	r0, #1056	; 0x420
 2a0:	85038404 	strhi	r8, [r3, #-1028]	; 0x404
 2a4:	00018e02 	andeq	r8, r1, r2, lsl #28
 2a8:	0000000c 	andeq	r0, r0, ip
 2ac:	ffffffff 			; <UNDEFINED> instruction: 0xffffffff
 2b0:	7c020001 	stcvc	0, cr0, [r2], {1}
 2b4:	000d0c0e 	andeq	r0, sp, lr, lsl #24
 2b8:	0000000c 	andeq	r0, r0, ip
 2bc:	000002a8 	andeq	r0, r0, r8, lsr #5
 2c0:	00008b04 	andeq	r8, r0, r4, lsl #22
 2c4:	00000038 	andeq	r0, r0, r8, lsr r0
 2c8:	00000014 	andeq	r0, r0, r4, lsl r0
 2cc:	000002a8 	andeq	r0, r0, r8, lsr #5
 2d0:	00008b3c 	andeq	r8, r0, ip, lsr fp
 2d4:	00000018 	andeq	r0, r0, r8, lsl r0
 2d8:	84080e42 	strhi	r0, [r8], #-3650	; 0xe42
 2dc:	00018e02 	andeq	r8, r1, r2, lsl #28
 2e0:	0000000c 	andeq	r0, r0, ip
 2e4:	000002a8 	andeq	r0, r0, r8, lsr #5
 2e8:	00008b54 	andeq	r8, r0, r4, asr fp
 2ec:	00000018 	andeq	r0, r0, r8, lsl r0
 2f0:	0000000c 	andeq	r0, r0, ip
 2f4:	ffffffff 			; <UNDEFINED> instruction: 0xffffffff
 2f8:	7c020001 	stcvc	0, cr0, [r2], {1}
 2fc:	000d0c0e 	andeq	r0, sp, lr, lsl #24
 300:	0000000c 	andeq	r0, r0, ip
 304:	000002f0 	strdeq	r0, [r0], -r0	; <UNPREDICTABLE>
 308:	00008b6c 	andeq	r8, r0, ip, ror #22
 30c:	00000014 	andeq	r0, r0, r4, lsl r0
 310:	0000000c 	andeq	r0, r0, ip
 314:	000002f0 	strdeq	r0, [r0], -r0	; <UNPREDICTABLE>
 318:	00008b80 	andeq	r8, r0, r0, lsl #23
 31c:	0000002c 	andeq	r0, r0, ip, lsr #32
 320:	0000000c 	andeq	r0, r0, ip
 324:	000002f0 	strdeq	r0, [r0], -r0	; <UNPREDICTABLE>
 328:	00008bac 	andeq	r8, r0, ip, lsr #23
 32c:	00000040 	andeq	r0, r0, r0, asr #32
 330:	00000020 	andeq	r0, r0, r0, lsr #32
 334:	000002f0 	strdeq	r0, [r0], -r0	; <UNPREDICTABLE>
 338:	00008bec 	andeq	r8, r0, ip, ror #23
 33c:	000001b0 			; <UNDEFINED> instruction: 0x000001b0
 340:	84180e42 	ldrhi	r0, [r8], #-3650	; 0xe42
 344:	86058506 	strhi	r8, [r5], -r6, lsl #10
 348:	88038704 	stmdahi	r3, {r2, r8, r9, sl, pc}
 34c:	42018e02 	andmi	r8, r1, #2, 28
 350:	0000580e 	andeq	r5, r0, lr, lsl #16
 354:	00000014 	andeq	r0, r0, r4, lsl r0
 358:	000002f0 	strdeq	r0, [r0], -r0	; <UNPREDICTABLE>
 35c:	00008d9c 	muleq	r0, ip, sp
 360:	00000054 	andeq	r0, r0, r4, asr r0
 364:	83080e42 	movwhi	r0, #36418	; 0x8e42
 368:	00018e02 	andeq	r8, r1, r2, lsl #28
 36c:	00000028 	andeq	r0, r0, r8, lsr #32
 370:	000002f0 	strdeq	r0, [r0], -r0	; <UNPREDICTABLE>
 374:	00008df0 	strdeq	r8, [r0], -r0
 378:	00000288 	andeq	r0, r0, r8, lsl #5
 37c:	84240e42 	strthi	r0, [r4], #-3650	; 0xe42
 380:	86088509 	strhi	r8, [r8], -r9, lsl #10
 384:	88068707 	stmdahi	r6, {r0, r1, r2, r8, r9, sl, pc}
 388:	8a048905 	bhi	1227a4 <__bss_end__+0x11864c>
 38c:	8e028b03 	vmlahi.f64	d8, d2, d3
 390:	b00e4201 	andlt	r4, lr, r1, lsl #4
 394:	00000001 	andeq	r0, r0, r1
 398:	0000000c 	andeq	r0, r0, ip
 39c:	ffffffff 			; <UNDEFINED> instruction: 0xffffffff
 3a0:	7c020001 	stcvc	0, cr0, [r2], {1}
 3a4:	000d0c0e 	andeq	r0, sp, lr, lsl #24
 3a8:	00000014 	andeq	r0, r0, r4, lsl r0
 3ac:	00000398 	muleq	r0, r8, r3
 3b0:	00009078 	andeq	r9, r0, r8, ror r0
 3b4:	00000028 	andeq	r0, r0, r8, lsr #32
 3b8:	83080e42 	movwhi	r0, #36418	; 0x8e42
 3bc:	00018e02 	andeq	r8, r1, r2, lsl #28
 3c0:	0000000c 	andeq	r0, r0, ip
 3c4:	ffffffff 			; <UNDEFINED> instruction: 0xffffffff
 3c8:	7c020001 	stcvc	0, cr0, [r2], {1}
 3cc:	000d0c0e 	andeq	r0, sp, lr, lsl #24
 3d0:	00000014 	andeq	r0, r0, r4, lsl r0
 3d4:	000003c0 	andeq	r0, r0, r0, asr #7
 3d8:	000090a0 	andeq	r9, r0, r0, lsr #1
 3dc:	00000034 	andeq	r0, r0, r4, lsr r0
 3e0:	83080e42 	movwhi	r0, #36418	; 0x8e42
 3e4:	00018e02 	andeq	r8, r1, r2, lsl #28
 3e8:	0000000c 	andeq	r0, r0, ip
 3ec:	ffffffff 			; <UNDEFINED> instruction: 0xffffffff
 3f0:	7c020001 	stcvc	0, cr0, [r2], {1}
 3f4:	000d0c0e 	andeq	r0, sp, lr, lsl #24
 3f8:	0000000c 	andeq	r0, r0, ip
 3fc:	000003e8 	andeq	r0, r0, r8, ror #7
 400:	000090d4 	ldrdeq	r9, [r0], -r4
 404:	00000018 	andeq	r0, r0, r8, lsl r0
 408:	0000000c 	andeq	r0, r0, ip
 40c:	000003e8 	andeq	r0, r0, r8, ror #7
 410:	000090ec 	andeq	r9, r0, ip, ror #1
 414:	00000014 	andeq	r0, r0, r4, lsl r0
 418:	00000014 	andeq	r0, r0, r4, lsl r0
 41c:	000003e8 	andeq	r0, r0, r8, ror #7
 420:	00009100 	andeq	r9, r0, r0, lsl #2
 424:	00000048 	andeq	r0, r0, r8, asr #32
 428:	83080e42 	movwhi	r0, #36418	; 0x8e42
 42c:	00018e02 	andeq	r8, r1, r2, lsl #28
 430:	0000000c 	andeq	r0, r0, ip
 434:	ffffffff 			; <UNDEFINED> instruction: 0xffffffff
 438:	7c020001 	stcvc	0, cr0, [r2], {1}
 43c:	000d0c0e 	andeq	r0, sp, lr, lsl #24
 440:	0000000c 	andeq	r0, r0, ip
 444:	00000430 	andeq	r0, r0, r0, lsr r4
 448:	00009148 	andeq	r9, r0, r8, asr #2
 44c:	0000001c 	andeq	r0, r0, ip, lsl r0
 450:	00000014 	andeq	r0, r0, r4, lsl r0
 454:	00000430 	andeq	r0, r0, r0, lsr r4
 458:	00009164 	andeq	r9, r0, r4, ror #2
 45c:	00000014 	andeq	r0, r0, r4, lsl r0
 460:	83080e42 	movwhi	r0, #36418	; 0x8e42
 464:	00018e02 	andeq	r8, r1, r2, lsl #28
 468:	00000014 	andeq	r0, r0, r4, lsl r0
 46c:	00000430 	andeq	r0, r0, r0, lsr r4
 470:	00009178 	andeq	r9, r0, r8, ror r1
 474:	0000000c 	andeq	r0, r0, ip
 478:	83080e42 	movwhi	r0, #36418	; 0x8e42
 47c:	00018e02 	andeq	r8, r1, r2, lsl #28
 480:	00000018 	andeq	r0, r0, r8, lsl r0
 484:	00000430 	andeq	r0, r0, r0, lsr r4
 488:	00009184 	andeq	r9, r0, r4, lsl #3
 48c:	00000024 	andeq	r0, r0, r4, lsr #32
 490:	83100e42 	tsthi	r0, #1056	; 0x420
 494:	85038404 	strhi	r8, [r3, #-1028]	; 0x404
 498:	00018e02 	andeq	r8, r1, r2, lsl #28
 49c:	00000014 	andeq	r0, r0, r4, lsl r0
 4a0:	00000430 	andeq	r0, r0, r0, lsr r4
 4a4:	000091a8 	andeq	r9, r0, r8, lsr #3
 4a8:	00000014 	andeq	r0, r0, r4, lsl r0
 4ac:	83080e42 	movwhi	r0, #36418	; 0x8e42
 4b0:	00018e02 	andeq	r8, r1, r2, lsl #28
 4b4:	00000014 	andeq	r0, r0, r4, lsl r0
 4b8:	00000430 	andeq	r0, r0, r0, lsr r4
 4bc:	000091bc 			; <UNDEFINED> instruction: 0x000091bc
 4c0:	00000014 	andeq	r0, r0, r4, lsl r0
 4c4:	83080e42 	movwhi	r0, #36418	; 0x8e42
 4c8:	00018e02 	andeq	r8, r1, r2, lsl #28
 4cc:	0000000c 	andeq	r0, r0, ip
 4d0:	ffffffff 			; <UNDEFINED> instruction: 0xffffffff
 4d4:	7c020001 	stcvc	0, cr0, [r2], {1}
 4d8:	000d0c0e 	andeq	r0, sp, lr, lsl #24
 4dc:	00000018 	andeq	r0, r0, r8, lsl r0
 4e0:	000004cc 	andeq	r0, r0, ip, asr #9
 4e4:	0000921c 	andeq	r9, r0, ip, lsl r2
 4e8:	00000020 	andeq	r0, r0, r0, lsr #32
 4ec:	84100e42 	ldrhi	r0, [r0], #-3650	; 0xe42
 4f0:	86038504 	strhi	r8, [r3], -r4, lsl #10
 4f4:	00018e02 	andeq	r8, r1, r2, lsl #28
 4f8:	00000014 	andeq	r0, r0, r4, lsl r0
 4fc:	000004cc 	andeq	r0, r0, ip, asr #9
 500:	0000923c 	andeq	r9, r0, ip, lsr r2
 504:	000000b0 	strheq	r0, [r0], -r0	; <UNPREDICTABLE>
 508:	84080e42 	strhi	r0, [r8], #-3650	; 0xe42
 50c:	00018e02 	andeq	r8, r1, r2, lsl #28
 510:	00000014 	andeq	r0, r0, r4, lsl r0
 514:	000004cc 	andeq	r0, r0, ip, asr #9
 518:	000092ec 	andeq	r9, r0, ip, ror #5
 51c:	00000018 	andeq	r0, r0, r8, lsl r0
 520:	84080e42 	strhi	r0, [r8], #-3650	; 0xe42
 524:	00018e02 	andeq	r8, r1, r2, lsl #28
 528:	00000014 	andeq	r0, r0, r4, lsl r0
 52c:	000004cc 	andeq	r0, r0, ip, asr #9
 530:	00009304 	andeq	r9, r0, r4, lsl #6
 534:	00000020 	andeq	r0, r0, r0, lsr #32
 538:	84080e42 	strhi	r0, [r8], #-3650	; 0xe42
 53c:	00018e02 	andeq	r8, r1, r2, lsl #28
 540:	00000014 	andeq	r0, r0, r4, lsl r0
 544:	000004cc 	andeq	r0, r0, ip, asr #9
 548:	00009324 	andeq	r9, r0, r4, lsr #6
 54c:	00000030 	andeq	r0, r0, r0, lsr r0
 550:	84080e42 	strhi	r0, [r8], #-3650	; 0xe42
 554:	00018e02 	andeq	r8, r1, r2, lsl #28
 558:	00000014 	andeq	r0, r0, r4, lsl r0
 55c:	000004cc 	andeq	r0, r0, ip, asr #9
 560:	00009354 	andeq	r9, r0, r4, asr r3
 564:	00000030 	andeq	r0, r0, r0, lsr r0
 568:	84080e42 	strhi	r0, [r8], #-3650	; 0xe42
 56c:	00018e02 	andeq	r8, r1, r2, lsl #28
 570:	00000014 	andeq	r0, r0, r4, lsl r0
 574:	000004cc 	andeq	r0, r0, ip, asr #9
 578:	00009384 	andeq	r9, r0, r4, lsl #7
 57c:	00000010 	andeq	r0, r0, r0, lsl r0
 580:	84080e42 	strhi	r0, [r8], #-3650	; 0xe42
 584:	00018e02 	andeq	r8, r1, r2, lsl #28
 588:	0000000c 	andeq	r0, r0, ip
 58c:	ffffffff 			; <UNDEFINED> instruction: 0xffffffff
 590:	7c020001 	stcvc	0, cr0, [r2], {1}
 594:	000d0c0e 	andeq	r0, sp, lr, lsl #24
 598:	00000018 	andeq	r0, r0, r8, lsl r0
 59c:	00000588 	andeq	r0, r0, r8, lsl #11
 5a0:	00009394 	muleq	r0, r4, r3
 5a4:	00000068 	andeq	r0, r0, r8, rrx
 5a8:	84100e4a 	ldrhi	r0, [r0], #-3658	; 0xe4a
 5ac:	86038504 	strhi	r8, [r3], -r4, lsl #10
 5b0:	00018e02 	andeq	r8, r1, r2, lsl #28
 5b4:	00000014 	andeq	r0, r0, r4, lsl r0
 5b8:	00000588 	andeq	r0, r0, r8, lsl #11
 5bc:	000093fc 	strdeq	r9, [r0], -ip
 5c0:	00000010 	andeq	r0, r0, r0, lsl r0
 5c4:	84080e42 	strhi	r0, [r8], #-3650	; 0xe42
 5c8:	00018e02 	andeq	r8, r1, r2, lsl #28
 5cc:	00000014 	andeq	r0, r0, r4, lsl r0
 5d0:	00000588 	andeq	r0, r0, r8, lsl #11
 5d4:	0000940c 	andeq	r9, r0, ip, lsl #8
 5d8:	00000024 	andeq	r0, r0, r4, lsr #32
 5dc:	84080e46 	strhi	r0, [r8], #-3654	; 0xe46
 5e0:	00018e02 	andeq	r8, r1, r2, lsl #28
 5e4:	00000014 	andeq	r0, r0, r4, lsl r0
 5e8:	00000588 	andeq	r0, r0, r8, lsl #11
 5ec:	00009430 	andeq	r9, r0, r0, lsr r4
 5f0:	00000024 	andeq	r0, r0, r4, lsr #32
 5f4:	84080e46 	strhi	r0, [r8], #-3654	; 0xe46
 5f8:	00018e02 	andeq	r8, r1, r2, lsl #28
 5fc:	00000014 	andeq	r0, r0, r4, lsl r0
 600:	00000588 	andeq	r0, r0, r8, lsl #11
 604:	00009454 	andeq	r9, r0, r4, asr r4
 608:	00000010 	andeq	r0, r0, r0, lsl r0
 60c:	84080e42 	strhi	r0, [r8], #-3650	; 0xe42
 610:	00018e02 	andeq	r8, r1, r2, lsl #28
 614:	00000014 	andeq	r0, r0, r4, lsl r0
 618:	00000588 	andeq	r0, r0, r8, lsl #11
 61c:	00009464 	andeq	r9, r0, r4, ror #8
 620:	0000001c 	andeq	r0, r0, ip, lsl r0
 624:	84080e42 	strhi	r0, [r8], #-3650	; 0xe42
 628:	00018e02 	andeq	r8, r1, r2, lsl #28
 62c:	00000018 	andeq	r0, r0, r8, lsl r0
 630:	00000588 	andeq	r0, r0, r8, lsl #11
 634:	00009480 	andeq	r9, r0, r0, lsl #9
 638:	00000034 	andeq	r0, r0, r4, lsr r0
 63c:	84080e46 	strhi	r0, [r8], #-3654	; 0xe46
 640:	4e018e02 	cdpmi	14, 0, cr8, cr1, cr2, {0}
 644:	cec4000e 	cdpgt	0, 12, cr0, cr4, cr14, {0}
 648:	0000000c 	andeq	r0, r0, ip
 64c:	ffffffff 			; <UNDEFINED> instruction: 0xffffffff
 650:	7c020001 	stcvc	0, cr0, [r2], {1}
 654:	000d0c0e 	andeq	r0, sp, lr, lsl #24
 658:	0000000c 	andeq	r0, r0, ip
 65c:	00000648 	andeq	r0, r0, r8, asr #12
 660:	000094b4 			; <UNDEFINED> instruction: 0x000094b4
 664:	00000010 	andeq	r0, r0, r0, lsl r0
 668:	0000000c 	andeq	r0, r0, ip
 66c:	00000648 	andeq	r0, r0, r8, asr #12
 670:	000094c4 	andeq	r9, r0, r4, asr #9
 674:	0000000c 	andeq	r0, r0, ip
 678:	00000014 	andeq	r0, r0, r4, lsl r0
 67c:	00000648 	andeq	r0, r0, r8, asr #12
 680:	000094d0 	ldrdeq	r9, [r0], -r0
 684:	00000050 	andeq	r0, r0, r0, asr r0
 688:	84080e52 	strhi	r0, [r8], #-3666	; 0xe52
 68c:	00018e02 	andeq	r8, r1, r2, lsl #28
 690:	00000014 	andeq	r0, r0, r4, lsl r0
 694:	00000648 	andeq	r0, r0, r8, asr #12
 698:	00009520 	andeq	r9, r0, r0, lsr #10
 69c:	00000064 	andeq	r0, r0, r4, rrx
 6a0:	84080e42 	strhi	r0, [r8], #-3650	; 0xe42
 6a4:	00018e02 	andeq	r8, r1, r2, lsl #28
 6a8:	0000000c 	andeq	r0, r0, ip
 6ac:	00000648 	andeq	r0, r0, r8, asr #12
 6b0:	00009584 	andeq	r9, r0, r4, lsl #11
 6b4:	00000004 	andeq	r0, r0, r4
 6b8:	00000014 	andeq	r0, r0, r4, lsl r0
 6bc:	00000648 	andeq	r0, r0, r8, asr #12
 6c0:	00009588 	andeq	r9, r0, r8, lsl #11
 6c4:	0000000c 	andeq	r0, r0, ip
 6c8:	84080e42 	strhi	r0, [r8], #-3650	; 0xe42
 6cc:	00018e02 	andeq	r8, r1, r2, lsl #28
 6d0:	00000014 	andeq	r0, r0, r4, lsl r0
 6d4:	00000648 	andeq	r0, r0, r8, asr #12
 6d8:	00009594 	muleq	r0, r4, r5
 6dc:	0000008c 	andeq	r0, r0, ip, lsl #1
 6e0:	84080e42 	strhi	r0, [r8], #-3650	; 0xe42
 6e4:	00018e02 	andeq	r8, r1, r2, lsl #28
 6e8:	0000000c 	andeq	r0, r0, ip
 6ec:	00000648 	andeq	r0, r0, r8, asr #12
 6f0:	00009620 	andeq	r9, r0, r0, lsr #12
 6f4:	00000004 	andeq	r0, r0, r4
 6f8:	0000000c 	andeq	r0, r0, ip
 6fc:	00000648 	andeq	r0, r0, r8, asr #12
 700:	00009624 	andeq	r9, r0, r4, lsr #12
 704:	00000014 	andeq	r0, r0, r4, lsl r0
 708:	0000000c 	andeq	r0, r0, ip
 70c:	00000648 	andeq	r0, r0, r8, asr #12
 710:	00009638 	andeq	r9, r0, r8, lsr r6
 714:	00000010 	andeq	r0, r0, r0, lsl r0

Disassembly of section .debug_ranges:

00000000 <.debug_ranges>:
   0:	00000064 	andeq	r0, r0, r4, rrx
   4:	00000110 	andeq	r0, r0, r0, lsl r1
   8:	00000124 	andeq	r0, r0, r4, lsr #2
   c:	00000130 	andeq	r0, r0, r0, lsr r1
	...
  18:	00000664 	andeq	r0, r0, r4, ror #12
  1c:	0000066c 	andeq	r0, r0, ip, ror #12
  20:	00000670 	andeq	r0, r0, r0, ror r6
  24:	00000700 	andeq	r0, r0, r0, lsl #14
	...
  30:	000002a8 	andeq	r0, r0, r8, lsr #5
  34:	000002ac 	andeq	r0, r0, ip, lsr #5
  38:	000002dc 	ldrdeq	r0, [r0], -ip
  3c:	000004cc 	andeq	r0, r0, ip, asr #9
	...
  48:	000090d4 	ldrdeq	r9, [r0], -r4
  4c:	00009148 	andeq	r9, r0, r8, asr #2
	...
