
main.elf:     file format elf32-littlearm


Disassembly of section .text:

00008000 <__code_start__>:
    8000:	e3a00013 	mov	r0, #19
    8004:	e129f000 	msr	CPSR_fc, r0
    8008:	e3a01000 	mov	r1, #0
    800c:	ee073f95 	mcr	15, 0, r3, cr7, cr5, {4}
    8010:	e3a0d302 	mov	sp, #134217728	; 0x8000000
    8014:	e3a0b000 	mov	fp, #0
    8018:	eb00027e 	bl	8a18 <_cstart>
    801c:	eb000319 	bl	8c88 <rpi_reboot>

00008020 <interrupt_vector>:

// Q: if you make not volatile?
static volatile unsigned cnt, period, period_sum;

// client has to define this.
void interrupt_vector(unsigned pc) {
    8020:	e92d4010 	push	{r4, lr}
    dev_barrier();
    8024:	eb000357 	bl	8d88 <dev_barrier>
    unsigned pending = GET32(IRQ_basic_pending);
    8028:	e59f005c 	ldr	r0, [pc, #92]	; 808c <interrupt_vector+0x6c>
    802c:	eb000369 	bl	8dd8 <GET32>

    // if this isn't true, could be a GPU interrupt (as discussed in Broadcom):
    // just return.  [confusing, since we didn't enable!]
    if((pending & RPI_BASIC_ARM_TIMER_IRQ) == 0)
    8030:	e3100001 	tst	r0, #1
    8034:	08bd8010 	popeq	{r4, pc}
     * enabled, so we don't have to work out which interrupt source
     * caused us to interrupt 
     *
     * Q: what happens, exactly, if we delete?
     */
    PUT32(arm_timer_IRQClear, 1);
    8038:	e59f0050 	ldr	r0, [pc, #80]	; 8090 <interrupt_vector+0x70>
    803c:	e3a01001 	mov	r1, #1
    8040:	eb000358 	bl	8da8 <PUT32>
     * different device, then the broadcom doc states we need to have a
     * memory barrier.   NOTE: we have largely been living in sin and completely
     * ignoring this requirement for UART.   (And also the GPIO overall.)  
     * This is probably not a good idea and we should be more careful.
     */
    dev_barrier();    
    8044:	eb00034f 	bl	8d88 <dev_barrier>
    cnt++;
    8048:	e59f4044 	ldr	r4, [pc, #68]	; 8094 <interrupt_vector+0x74>
    804c:	e5943000 	ldr	r3, [r4]
    8050:	e2833001 	add	r3, r3, #1
    8054:	e5843000 	str	r3, [r4]

    // compute time since the last interrupt.
    static unsigned last_clk = 0;
    unsigned clk = timer_get_usec();
    8058:	eb000328 	bl	8d00 <timer_get_usec>
    period = last_clk ? clk - last_clk : 0;
    805c:	e5943004 	ldr	r3, [r4, #4]
    8060:	e3530000 	cmp	r3, #0
    8064:	10632000 	rsbne	r2, r3, r0
    8068:	03a02000 	moveq	r2, #0
    806c:	e59f3020 	ldr	r3, [pc, #32]	; 8094 <interrupt_vector+0x74>
    8070:	e5832008 	str	r2, [r3, #8]
    period_sum += period;
    8074:	e593100c 	ldr	r1, [r3, #12]
    8078:	e5932008 	ldr	r2, [r3, #8]
    807c:	e0812002 	add	r2, r1, r2
    8080:	e583200c 	str	r2, [r3, #12]
    last_clk = clk;
    8084:	e5830004 	str	r0, [r3, #4]
    8088:	e8bd8010 	pop	{r4, pc}
    808c:	2000b200 	andcs	fp, r0, r0, lsl #4
    8090:	2000b40c 	andcs	fp, r0, ip, lsl #8
    8094:	0000975c 	andeq	r9, r0, ip, asr r7

00008098 <notmain>:

    // Q: what happens (&why) if you uncomment the print statement?
    // printk("In interrupt handler at time: %d\n", clk);
}

void notmain() {
    8098:	e92d40f0 	push	{r4, r5, r6, r7, lr}
    809c:	e24dd00c 	sub	sp, sp, #12
    uart_init();
    80a0:	eb000359 	bl	8e0c <uart_init>
	
    printk("about to install handlers\n");
    80a4:	e59f01d8 	ldr	r0, [pc, #472]	; 8284 <notmain+0x1ec>
    80a8:	eb0000ce 	bl	83e8 <printk>
    int_init();
    80ac:	eb0002cf 	bl	8bf0 <int_init>

    printk("setting up timer interrupts\n");
    80b0:	e59f01d0 	ldr	r0, [pc, #464]	; 8288 <notmain+0x1f0>
    80b4:	eb0000cb 	bl	83e8 <printk>
    // Q: if you change 0x100?
    timer_interrupt_init(0x100);
    80b8:	e3a00c01 	mov	r0, #256	; 0x100
    80bc:	eb0000b9 	bl	83a8 <timer_interrupt_init>

    printk("gonna enable ints globally!\n");
    80c0:	e59f01c4 	ldr	r0, [pc, #452]	; 828c <notmain+0x1f4>
    80c4:	eb0000c7 	bl	83e8 <printk>
    // Q: what happens (&why) if you don't do?
    system_enable_interrupts();
    80c8:	eb000326 	bl	8d68 <system_enable_interrupts>
    printk("enabled!\n");
    80cc:	e59f01bc 	ldr	r0, [pc, #444]	; 8290 <notmain+0x1f8>
    80d0:	eb0000c4 	bl	83e8 <printk>

    unsigned start = timer_get_usec();
    80d4:	eb000309 	bl	8d00 <timer_get_usec>
    80d8:	e1a07000 	mov	r7, r0

    // Q: what happens if you enable cache?  Why are some parts
    // the same, some change?
    //enable_cache(); 	
    unsigned iter = 0, sum = 0;
    80dc:	e3a05000 	mov	r5, #0
#   define N 20
    while(cnt < N) {
    80e0:	e59f41ac 	ldr	r4, [pc, #428]	; 8294 <notmain+0x1fc>
        // Q: if you comment this out?  why do #'s change?
        printk("iter=%d: cnt = %d, time between interrupts = %d usec (%x)\n", 
    80e4:	e59f61ac 	ldr	r6, [pc, #428]	; 8298 <notmain+0x200>
    // Q: what happens if you enable cache?  Why are some parts
    // the same, some change?
    //enable_cache(); 	
    unsigned iter = 0, sum = 0;
#   define N 20
    while(cnt < N) {
    80e8:	ea000007 	b	810c <notmain+0x74>
        // Q: if you comment this out?  why do #'s change?
        printk("iter=%d: cnt = %d, time between interrupts = %d usec (%x)\n", 
    80ec:	e5942000 	ldr	r2, [r4]
    80f0:	e5943008 	ldr	r3, [r4, #8]
    80f4:	e5941008 	ldr	r1, [r4, #8]
    80f8:	e58d1000 	str	r1, [sp]
    80fc:	e1a00006 	mov	r0, r6
    8100:	e1a01005 	mov	r1, r5
    8104:	eb0000b7 	bl	83e8 <printk>
                                    iter,cnt, period,period);
        iter++;
    8108:	e2855001 	add	r5, r5, #1
    // Q: what happens if you enable cache?  Why are some parts
    // the same, some change?
    //enable_cache(); 	
    unsigned iter = 0, sum = 0;
#   define N 20
    while(cnt < N) {
    810c:	e5943000 	ldr	r3, [r4]
    8110:	e3530013 	cmp	r3, #19
    8114:	9afffff4 	bls	80ec <notmain+0x54>


    // overly complicated calculation of sec/ms/usec breakdown
    // make it easier to tell the overhead of different changes.
    // not really specific to interrupt handling.
    unsigned tot = timer_get_usec() - start,
    8118:	eb0002f8 	bl	8d00 <timer_get_usec>
    811c:	e0670000 	rsb	r0, r7, r0
             tot_sec    = tot / (1000*1000),
    8120:	e59f7174 	ldr	r7, [pc, #372]	; 829c <notmain+0x204>
    8124:	e0871097 	umull	r1, r7, r7, r0
    8128:	e1a07927 	lsr	r7, r7, #18
             tot_ms     = (tot / 1000) % 1000,
    812c:	e59f416c 	ldr	r4, [pc, #364]	; 82a0 <notmain+0x208>
    8130:	e08c2094 	umull	r2, ip, r4, r0
    8134:	e1a0c32c 	lsr	ip, ip, #6
    8138:	e0843c94 	umull	r3, r4, r4, ip
    813c:	e1a04324 	lsr	r4, r4, #6
    8140:	e3a03ffa 	mov	r3, #1000	; 0x3e8
    8144:	e0040493 	mul	r4, r3, r4
    8148:	e064400c 	rsb	r4, r4, ip
             tot_usec   = (tot % 1000);
    814c:	e00c0c93 	mul	ip, r3, ip
    8150:	e06c6000 	rsb	r6, ip, r0
    printk("-----------------------------------------\n");
    8154:	e59f0148 	ldr	r0, [pc, #328]	; 82a4 <notmain+0x20c>
    8158:	eb0000a2 	bl	83e8 <printk>
    printk("summary:\n");
    815c:	e59f0144 	ldr	r0, [pc, #324]	; 82a8 <notmain+0x210>
    8160:	eb0000a0 	bl	83e8 <printk>
    printk("\t%10d: total iterations\n", iter);
    8164:	e59f0140 	ldr	r0, [pc, #320]	; 82ac <notmain+0x214>
    8168:	e1a01005 	mov	r1, r5
    816c:	eb00009d 	bl	83e8 <printk>
    printk("\t%10d: tot interrupts\n", N);
    8170:	e59f0138 	ldr	r0, [pc, #312]	; 82b0 <notmain+0x218>
    8174:	e3a01014 	mov	r1, #20
    8178:	eb00009a 	bl	83e8 <printk>
    printk("\t%10d: iterations / interrupt\n", iter/N);
    817c:	e59f3130 	ldr	r3, [pc, #304]	; 82b4 <notmain+0x21c>
    8180:	e0812593 	umull	r2, r1, r3, r5
    8184:	e59f012c 	ldr	r0, [pc, #300]	; 82b8 <notmain+0x220>
    8188:	e1a01221 	lsr	r1, r1, #4
    818c:	eb000095 	bl	83e8 <printk>
    printk("\t%10d: average period\n\n", period_sum/(N-1));
    8190:	e59f30fc 	ldr	r3, [pc, #252]	; 8294 <notmain+0x1fc>
    8194:	e593200c 	ldr	r2, [r3, #12]
    8198:	e59f311c 	ldr	r3, [pc, #284]	; 82bc <notmain+0x224>
    819c:	e0831293 	umull	r1, r3, r3, r2
    81a0:	e0632002 	rsb	r2, r3, r2
    81a4:	e08310a2 	add	r1, r3, r2, lsr #1
    81a8:	e59f0110 	ldr	r0, [pc, #272]	; 82c0 <notmain+0x228>
    81ac:	e1a01221 	lsr	r1, r1, #4
    81b0:	eb00008c 	bl	83e8 <printk>
    printk("total execution time: %dsec.%dms.%dusec\n", 
    81b4:	e59f0108 	ldr	r0, [pc, #264]	; 82c4 <notmain+0x22c>
    81b8:	e1a01007 	mov	r1, r7
    81bc:	e1a02004 	mov	r2, r4
    81c0:	e1a03006 	mov	r3, r6
    81c4:	eb000087 	bl	83e8 <printk>
                    tot_sec, tot_ms, tot_usec);

    printk("\nmeasuring cost of different operations (pi A+ = 700 cyc / usec)\n");
    81c8:	e59f00f8 	ldr	r0, [pc, #248]	; 82c8 <notmain+0x230>
    81cc:	eb000085 	bl	83e8 <printk>
    cycle_cnt_init();
    81d0:	e3a03001 	mov	r3, #1
    81d4:	ee0f3f1c 	mcr	15, 0, r3, cr15, cr12, {0}
    TIME_CYC_PRINT("\tread/write barrier", dev_barrier());
    81d8:	ee1f5f3c 	mrc	15, 0, r5, cr15, cr12, {1}
    81dc:	eb0002e9 	bl	8d88 <dev_barrier>
    81e0:	ee1f2f3c 	mrc	15, 0, r2, cr15, cr12, {1}
    81e4:	e59f40e0 	ldr	r4, [pc, #224]	; 82cc <notmain+0x234>
    81e8:	e1a00004 	mov	r0, r4
    81ec:	e59f10dc 	ldr	r1, [pc, #220]	; 82d0 <notmain+0x238>
    81f0:	e0652002 	rsb	r2, r5, r2
    81f4:	e59f30d8 	ldr	r3, [pc, #216]	; 82d4 <notmain+0x23c>
    81f8:	eb00007a 	bl	83e8 <printk>
    TIME_CYC_PRINT("\tread barrier", dmb());
    81fc:	ee1f5f3c 	mrc	15, 0, r5, cr15, cr12, {1}
    8200:	eb0002e1 	bl	8d8c <dmb>
    8204:	ee1f2f3c 	mrc	15, 0, r2, cr15, cr12, {1}
    8208:	e1a00004 	mov	r0, r4
    820c:	e59f10c4 	ldr	r1, [pc, #196]	; 82d8 <notmain+0x240>
    8210:	e0652002 	rsb	r2, r5, r2
    8214:	e59f30c0 	ldr	r3, [pc, #192]	; 82dc <notmain+0x244>
    8218:	eb000072 	bl	83e8 <printk>
    TIME_CYC_PRINT("\tsafe timer", timer_get_usec());
    821c:	ee1f5f3c 	mrc	15, 0, r5, cr15, cr12, {1}
    8220:	eb0002b6 	bl	8d00 <timer_get_usec>
    8224:	ee1f2f3c 	mrc	15, 0, r2, cr15, cr12, {1}
    8228:	e1a00004 	mov	r0, r4
    822c:	e59f10ac 	ldr	r1, [pc, #172]	; 82e0 <notmain+0x248>
    8230:	e0652002 	rsb	r2, r5, r2
    8234:	e59f30a8 	ldr	r3, [pc, #168]	; 82e4 <notmain+0x24c>
    8238:	eb00006a 	bl	83e8 <printk>
    TIME_CYC_PRINT("\tunsafe timer", timer_get_usec_raw());
    823c:	ee1f5f3c 	mrc	15, 0, r5, cr15, cr12, {1}
    8240:	eb0002a9 	bl	8cec <timer_get_usec_raw>
    8244:	ee1f2f3c 	mrc	15, 0, r2, cr15, cr12, {1}
    8248:	e1a00004 	mov	r0, r4
    824c:	e59f1094 	ldr	r1, [pc, #148]	; 82e8 <notmain+0x250>
    8250:	e0652002 	rsb	r2, r5, r2
    8254:	e59f3090 	ldr	r3, [pc, #144]	; 82ec <notmain+0x254>
    8258:	eb000062 	bl	83e8 <printk>
    // macro expansion messes up the printk
    printk("\t<cycle_cnt_read()>: %d\n", TIME_CYC(cycle_cnt_read()));
    825c:	ee1f3f3c 	mrc	15, 0, r3, cr15, cr12, {1}
    8260:	ee1f2f3c 	mrc	15, 0, r2, cr15, cr12, {1}
    8264:	ee1f1f3c 	mrc	15, 0, r1, cr15, cr12, {1}
    8268:	e59f0080 	ldr	r0, [pc, #128]	; 82f0 <notmain+0x258>
    826c:	e0631001 	rsb	r1, r3, r1
    8270:	eb00005c 	bl	83e8 <printk>
    printk("-----------------------------------------\n");
    8274:	e59f0028 	ldr	r0, [pc, #40]	; 82a4 <notmain+0x20c>
    8278:	eb00005a 	bl	83e8 <printk>
}
    827c:	e28dd00c 	add	sp, sp, #12
    8280:	e8bd80f0 	pop	{r4, r5, r6, r7, pc}
    8284:	000090c8 	andeq	r9, r0, r8, asr #1
    8288:	000090e4 	andeq	r9, r0, r4, ror #1
    828c:	00009104 	andeq	r9, r0, r4, lsl #2
    8290:	00009124 	andeq	r9, r0, r4, lsr #2
    8294:	0000975c 	andeq	r9, r0, ip, asr r7
    8298:	00009130 	andeq	r9, r0, r0, lsr r1
    829c:	431bde83 	tstmi	fp, #2096	; 0x830
    82a0:	10624dd3 	ldrdne	r4, [r2], #-211	; 0xffffff2d	; <UNPREDICTABLE>
    82a4:	0000916c 	andeq	r9, r0, ip, ror #2
    82a8:	00009198 	muleq	r0, r8, r1
    82ac:	000091a4 	andeq	r9, r0, r4, lsr #3
    82b0:	000091c0 	andeq	r9, r0, r0, asr #3
    82b4:	cccccccd 	stclgt	12, cr12, [ip], {205}	; 0xcd
    82b8:	000091d8 	ldrdeq	r9, [r0], -r8
    82bc:	af286bcb 	svcge	0x00286bcb
    82c0:	000091f8 	strdeq	r9, [r0], -r8
    82c4:	00009210 	andeq	r9, r0, r0, lsl r2
    82c8:	0000923c 	andeq	r9, r0, ip, lsr r2
    82cc:	00009280 	andeq	r9, r0, r0, lsl #5
    82d0:	00009294 	muleq	r0, r4, r2
    82d4:	000092a8 	andeq	r9, r0, r8, lsr #5
    82d8:	000092b8 			; <UNDEFINED> instruction: 0x000092b8
    82dc:	000092c8 	andeq	r9, r0, r8, asr #5
    82e0:	000092d0 	ldrdeq	r9, [r0], -r0
    82e4:	000092dc 	ldrdeq	r9, [r0], -ip
    82e8:	000092f0 	strdeq	r9, [r0], -r0
    82ec:	00009300 	andeq	r9, r0, r0, lsl #6
    82f0:	00009318 	andeq	r9, r0, r8, lsl r3

000082f4 <_interrupt_table>:
    82f4:	e59ff020 	ldr	pc, [pc, #32]	; 831c <_reset_asm>
    82f8:	e59ff020 	ldr	pc, [pc, #32]	; 8320 <_undefined_instruction_asm>
    82fc:	e59ff020 	ldr	pc, [pc, #32]	; 8324 <_software_interrupt_asm>
    8300:	e59ff020 	ldr	pc, [pc, #32]	; 8328 <_prefetch_abort_asm>
    8304:	e59ff020 	ldr	pc, [pc, #32]	; 832c <_data_abort_asm>
    8308:	e59ff00c 	ldr	pc, [pc, #12]	; 831c <_reset_asm>
    830c:	e59ff01c 	ldr	pc, [pc, #28]	; 8330 <_interrupt_asm>

00008310 <fast_interrupt_asm>:
    8310:	e3a0d409 	mov	sp, #150994944	; 0x9000000
    8314:	e24ee004 	sub	lr, lr, #4
    8318:	eb0001dd 	bl	8a94 <fast_interrupt_vector>

0000831c <_reset_asm>:
    831c:	00008350 	andeq	r8, r0, r0, asr r3

00008320 <_undefined_instruction_asm>:
    8320:	0000835c 	andeq	r8, r0, ip, asr r3

00008324 <_software_interrupt_asm>:
    8324:	00008368 	andeq	r8, r0, r8, ror #6

00008328 <_prefetch_abort_asm>:
    8328:	00008374 	andeq	r8, r0, r4, ror r3

0000832c <_data_abort_asm>:
    832c:	00008380 	andeq	r8, r0, r0, lsl #7

00008330 <_interrupt_asm>:
    8330:	00008334 	andeq	r8, r0, r4, lsr r3

00008334 <_interrupt_table_end>:
    8334:	e3a0d409 	mov	sp, #150994944	; 0x9000000
    8338:	e24ee004 	sub	lr, lr, #4
    833c:	e92d5fff 	push	{r0, r1, r2, r3, r4, r5, r6, r7, r8, r9, sl, fp, ip, lr}
    8340:	e1a0000e 	mov	r0, lr
    8344:	ebffff35 	bl	8020 <interrupt_vector>
    8348:	e8bd5fff 	pop	{r0, r1, r2, r3, r4, r5, r6, r7, r8, r9, sl, fp, ip, lr}
    834c:	e1b0f00e 	movs	pc, lr

00008350 <reset_asm>:
    8350:	e3a0d409 	mov	sp, #150994944	; 0x9000000
    8354:	e24ee004 	sub	lr, lr, #4
    8358:	eb0001ef 	bl	8b1c <reset_vector>

0000835c <undefined_instruction_asm>:
    835c:	e3a0d409 	mov	sp, #150994944	; 0x9000000
    8360:	e24ee004 	sub	lr, lr, #4
    8364:	eb00020e 	bl	8ba4 <undefined_instruction_vector>

00008368 <software_interrupt_asm>:
    8368:	e3a0d409 	mov	sp, #150994944	; 0x9000000
    836c:	e24ee004 	sub	lr, lr, #4
    8370:	eb0001fa 	bl	8b60 <software_interrupt_vector>

00008374 <prefetch_abort_asm>:
    8374:	e3a0d409 	mov	sp, #150994944	; 0x9000000
    8378:	e24ee004 	sub	lr, lr, #4
    837c:	eb0001d5 	bl	8ad8 <prefetch_abort_vector>

00008380 <data_abort_asm>:
    8380:	e3a0d409 	mov	sp, #150994944	; 0x9000000
    8384:	e24ee004 	sub	lr, lr, #4
    8388:	eb0001b0 	bl	8a50 <data_abort_vector>

0000838c <timer_check_offsets>:
    // ready.
}

// Q: how does the libpi/libc/assert.h:AssertNow macro work?
// Q: what happens / why when you change some of these constants?
static void timer_check_offsets(void) {
    838c:	e52de004 	push	{lr}		; (str lr, [sp, #-4]!)
    8390:	e24dd01c 	sub	sp, sp, #28
    check_bitfield(rpi_arm_timer_ctrl_t, int_enabled,        5, 1);
    check_bitfield(rpi_arm_timer_ctrl_t, timer_enabled,      7, 1);
    check_bitfield(rpi_arm_timer_ctrl_t, counter_enabled,    9, 1);
    check_bitfield(rpi_arm_timer_ctrl_t, counter_prescaler,          16, 7);
    AssertNow(sizeof(rpi_arm_timer_ctrl_t) == 4);
    printk("offsets checked out!\n");
    8394:	e59f0008 	ldr	r0, [pc, #8]	; 83a4 <timer_check_offsets+0x18>
    8398:	eb000012 	bl	83e8 <printk>
}
    839c:	e28dd01c 	add	sp, sp, #28
    83a0:	e49df004 	pop	{pc}		; (ldr pc, [sp], #4)
    83a4:	0000945c 	andeq	r9, r0, ip, asr r4

000083a8 <timer_interrupt_init>:
#include "libc/helper-macros.h"

static void timer_check_offsets(void);

// what's a clean way for people to mess w/ prescale?
void timer_interrupt_init(unsigned ncycles) {
    83a8:	e92d4010 	push	{r4, lr}
    83ac:	e1a04000 	mov	r4, r0
    timer_check_offsets();
    83b0:	ebfffff5 	bl	838c <timer_check_offsets>

    // from valvers:
    //	 Enable the timer interrupt IRQ
    PUT32(Enable_Basic_IRQs, RPI_BASIC_ARM_TIMER_IRQ);
    83b4:	e59f0020 	ldr	r0, [pc, #32]	; 83dc <timer_interrupt_init+0x34>
    83b8:	e3a01001 	mov	r1, #1
    83bc:	eb000279 	bl	8da8 <PUT32>

    /* Setup the system timer interrupt */
    /* Timer frequency = Clk/256 * Load --- so smaller = more frequent. */
    PUT32(arm_timer_Load, ncycles);
    83c0:	e59f0018 	ldr	r0, [pc, #24]	; 83e0 <timer_interrupt_init+0x38>
    83c4:	e1a01004 	mov	r1, r4
    83c8:	eb000276 	bl	8da8 <PUT32>

    // Setup the ARM Timer: experiment by changing the prescale [defined on p197]
#if 1
    PUT32(arm_timer_Control,
    83cc:	e59f0010 	ldr	r0, [pc, #16]	; 83e4 <timer_interrupt_init+0x3c>
    83d0:	e3a010aa 	mov	r1, #170	; 0xaa
    83d4:	eb000273 	bl	8da8 <PUT32>
    83d8:	e8bd8010 	pop	{r4, pc}
    83dc:	2000b218 	andcs	fp, r0, r8, lsl r2
    83e0:	2000b400 	andcs	fp, r0, r0, lsl #8
    83e4:	2000b408 	andcs	fp, r0, r8, lsl #8

000083e8 <printk>:
#include <stdarg.h>

#include "rpi.h"
#include "va-printk.h"

int printk(const char *fmt, ...) {
    83e8:	e92d000f 	push	{r0, r1, r2, r3}
    83ec:	e92d4030 	push	{r4, r5, lr}
    83f0:	e24dd00c 	sub	sp, sp, #12
    // this is a really huge buffer for a pi.   could do this better.
    static char buf[1024];
    va_list args;

    va_start(args, fmt);
    83f4:	e28d301c 	add	r3, sp, #28
    83f8:	e58d3004 	str	r3, [sp, #4]
        int sz = va_printk(buf, sizeof buf, fmt, args);
    83fc:	e59f4034 	ldr	r4, [pc, #52]	; 8438 <printk+0x50>
    8400:	e1a00004 	mov	r0, r4
    8404:	e3a01b01 	mov	r1, #1024	; 0x400
    8408:	e59d2018 	ldr	r2, [sp, #24]
    840c:	eb0000c1 	bl	8718 <va_printk>
    8410:	e1a05000 	mov	r5, r0
    va_end(args);


#if 1
    putk(buf);
    8414:	e59f3020 	ldr	r3, [pc, #32]	; 843c <printk+0x54>
    8418:	e5933000 	ldr	r3, [r3]
    841c:	e1a00004 	mov	r0, r4
    8420:	e12fff33 	blx	r3
    int i;
    for(i = 0; buf[i]; i++)
        rpi_putchar(buf[i]);
#endif
    return sz;
}
    8424:	e1a00005 	mov	r0, r5
    8428:	e28dd00c 	add	sp, sp, #12
    842c:	e8bd4030 	pop	{r4, r5, lr}
    8430:	e28dd010 	add	sp, sp, #16
    8434:	e12fff1e 	bx	lr
    8438:	0000976c 	andeq	r9, r0, ip, ror #14
    843c:	000090c0 	andeq	r9, r0, r0, asr #1

00008440 <internal_putk>:
#include "rpi.h"

// much faster to send this as an entire string using the esp.
int internal_putk(const char *p) {
    8440:	e92d4038 	push	{r3, r4, r5, lr}
    8444:	e1a04000 	mov	r4, r0
    for(; *p; p++)
        rpi_putchar(*p);
    8448:	e59f5020 	ldr	r5, [pc, #32]	; 8470 <internal_putk+0x30>
#include "rpi.h"

// much faster to send this as an entire string using the esp.
int internal_putk(const char *p) {
    for(; *p; p++)
    844c:	ea000002 	b	845c <internal_putk+0x1c>
        rpi_putchar(*p);
    8450:	e5953000 	ldr	r3, [r5]
    8454:	e12fff33 	blx	r3
#include "rpi.h"

// much faster to send this as an entire string using the esp.
int internal_putk(const char *p) {
    for(; *p; p++)
    8458:	e2844001 	add	r4, r4, #1
    845c:	e5d40000 	ldrb	r0, [r4]
    8460:	e3500000 	cmp	r0, #0
    8464:	1afffff9 	bne	8450 <internal_putk+0x10>
        rpi_putchar(*p);
//  we were adding this.
//  rpi_putchar('\n');
    return 1;
}
    8468:	e3a00001 	mov	r0, #1
    846c:	e8bd8038 	pop	{r3, r4, r5, pc}
    8470:	000090c4 	andeq	r9, r0, r4, asr #1

00008474 <isdigit>:
    if(puts_fp)
        putk = puts_fp;
}

// XXX: check sign promotion.
static int isdigit(int c) { return c >= '0' && c <= '9'; }
    8474:	e2400030 	sub	r0, r0, #48	; 0x30
    8478:	e3500009 	cmp	r0, #9
    847c:	83a00000 	movhi	r0, #0
    8480:	93a00001 	movls	r0, #1
    8484:	e12fff1e 	bx	lr

00008488 <pad>:

// don't move: can't be inlined, gcc seems to have a bug.
char * __emit_float(char *num, double d, unsigned wdith);

static char* pad(char *p,  char *base, int width) {
	int len = p - base;
    8488:	e0611000 	rsb	r1, r1, r0
	// pad with leading spaces
	for(; len < width; len++)
		*p++ = ' ';
    848c:	e3a03020 	mov	r3, #32
char * __emit_float(char *num, double d, unsigned wdith);

static char* pad(char *p,  char *base, int width) {
	int len = p - base;
	// pad with leading spaces
	for(; len < width; len++)
    8490:	ea000002 	b	84a0 <pad+0x18>
		*p++ = ' ';
    8494:	e5c03000 	strb	r3, [r0]
char * __emit_float(char *num, double d, unsigned wdith);

static char* pad(char *p,  char *base, int width) {
	int len = p - base;
	// pad with leading spaces
	for(; len < width; len++)
    8498:	e2811001 	add	r1, r1, #1
		*p++ = ' ';
    849c:	e2800001 	add	r0, r0, #1
char * __emit_float(char *num, double d, unsigned wdith);

static char* pad(char *p,  char *base, int width) {
	int len = p - base;
	// pad with leading spaces
	for(; len < width; len++)
    84a0:	e1510002 	cmp	r1, r2
    84a4:	bafffffa 	blt	8494 <pad+0xc>
		*p++ = ' ';
	*p = 0;
    84a8:	e3a03000 	mov	r3, #0
    84ac:	e5c03000 	strb	r3, [r0]
	return p;
}
    84b0:	e12fff1e 	bx	lr

000084b4 <reverse>:

static char* reverse(char *dst, int n, char *p, char *start) {
	// drop the lower chars if the string is too big.
	int len = p - start + 1; // include \0
    84b4:	e063c002 	rsb	ip, r3, r2
    84b8:	e28cc001 	add	ip, ip, #1
	if(len > n)
    84bc:	e15c0001 	cmp	ip, r1
		start += (len - n);
    84c0:	c061100c 	rsbgt	r1, r1, ip
    84c4:	c0833001 	addgt	r3, r3, r1

	char *s = dst;
	
	// p starts at end.
	for(p--; p >= start; p--)
    84c8:	e2422001 	sub	r2, r2, #1
    84cc:	e1a01000 	mov	r1, r0
    84d0:	ea000002 	b	84e0 <reverse+0x2c>
		*dst++ = *p;
    84d4:	e452c001 	ldrb	ip, [r2], #-1
    84d8:	e5c1c000 	strb	ip, [r1]
    84dc:	e2811001 	add	r1, r1, #1
		start += (len - n);

	char *s = dst;
	
	// p starts at end.
	for(p--; p >= start; p--)
    84e0:	e1520003 	cmp	r2, r3
    84e4:	2afffffa 	bcs	84d4 <reverse+0x20>
		*dst++ = *p;
	*dst++ = 0;
    84e8:	e3a03000 	mov	r3, #0
    84ec:	e5c13000 	strb	r3, [r1]

	return s;
}
    84f0:	e12fff1e 	bx	lr

000084f4 <emit>:

static char* emit(unsigned base, char *dst, int n, int val, int width, int signed_p) {
    84f4:	e92d41f0 	push	{r4, r5, r6, r7, r8, lr}
    84f8:	e24dd048 	sub	sp, sp, #72	; 0x48
    84fc:	e1a05001 	mov	r5, r1
    8500:	e1a04002 	mov	r4, r2
    8504:	e59d2060 	ldr	r2, [sp, #96]	; 0x60
	// XXX: constrain width to be >= bit size: can change this.
	if(width > n)
    8508:	e1520004 	cmp	r2, r4
		width = n - 1;
    850c:	c2442001 	subgt	r2, r4, #1

	char buf[64], *p = buf; 
	unsigned u = val;
    8510:	e1a0c003 	mov	ip, r3

	switch(base) { 
    8514:	e2400002 	sub	r0, r0, #2
    8518:	e350000e 	cmp	r0, #14
    851c:	979ff100 	ldrls	pc, [pc, r0, lsl #2]
    8520:	ea000048 	b	8648 <emit+0x154>
    8524:	00008620 	andeq	r8, r0, r0, lsr #12
    8528:	00008648 	andeq	r8, r0, r8, asr #12
    852c:	00008648 	andeq	r8, r0, r8, asr #12
    8530:	00008648 	andeq	r8, r0, r8, asr #12
    8534:	00008648 	andeq	r8, r0, r8, asr #12
    8538:	00008648 	andeq	r8, r0, r8, asr #12
    853c:	00008614 	andeq	r8, r0, r4, lsl r6
    8540:	00008648 	andeq	r8, r0, r8, asr #12
    8544:	00008560 	andeq	r8, r0, r0, ror #10
    8548:	00008648 	andeq	r8, r0, r8, asr #12
    854c:	00008648 	andeq	r8, r0, r8, asr #12
    8550:	00008648 	andeq	r8, r0, r8, asr #12
    8554:	00008648 	andeq	r8, r0, r8, asr #12
    8558:	00008648 	andeq	r8, r0, r8, asr #12
    855c:	000085d4 	ldrdeq	r8, [r0], -r4
		case 10: 
		{
			unsigned neg_p = 0;
			if(val < 0 && signed_p) {
    8560:	e59d1064 	ldr	r1, [sp, #100]	; 0x64
    8564:	e2911000 	adds	r1, r1, #0
    8568:	13a01001 	movne	r1, #1
    856c:	e0111fa3 	ands	r1, r1, r3, lsr #31
				neg_p = 1;
				val = -val;
    8570:	1263c000 	rsbne	ip, r3, #0
	switch(base) { 
		case 10: 
		{
			unsigned neg_p = 0;
			if(val < 0 && signed_p) {
				neg_p = 1;
    8574:	13a08001 	movne	r8, #1
	unsigned u = val;

	switch(base) { 
		case 10: 
		{
			unsigned neg_p = 0;
    8578:	03a08000 	moveq	r8, #0
			if(val < 0 && signed_p) {
				neg_p = 1;
    857c:	e28d1008 	add	r1, sp, #8
				val = -val;
				u = val;
			}
			do { 
				*p++ = "0123456789"[u % 10];
    8580:	e59f7108 	ldr	r7, [pc, #264]	; 8690 <emit+0x19c>
    8584:	e59f6108 	ldr	r6, [pc, #264]	; 8694 <emit+0x1a0>
    8588:	ea000000 	b	8590 <emit+0x9c>
    858c:	e1a01000 	mov	r1, r0
    8590:	e2810001 	add	r0, r1, #1
    8594:	e083ec97 	umull	lr, r3, r7, ip
    8598:	e1a031a3 	lsr	r3, r3, #3
    859c:	e1a0e003 	mov	lr, r3
    85a0:	e0833103 	add	r3, r3, r3, lsl #2
    85a4:	e1a03083 	lsl	r3, r3, #1
    85a8:	e063300c 	rsb	r3, r3, ip
    85ac:	e7d63003 	ldrb	r3, [r6, r3]
    85b0:	e5c13000 	strb	r3, [r1]
			} while(u /= 10); 
    85b4:	e1a0c00e 	mov	ip, lr
    85b8:	e35e0000 	cmp	lr, #0
    85bc:	1afffff2 	bne	858c <emit+0x98>
			if(neg_p)
    85c0:	e3580000 	cmp	r8, #0
				*p++ = '-';
    85c4:	12810002 	addne	r0, r1, #2
    85c8:	13a0302d 	movne	r3, #45	; 0x2d
    85cc:	15c13001 	strbne	r3, [r1, #1]
    85d0:	ea000025 	b	866c <emit+0x178>
		width = n - 1;

	char buf[64], *p = buf; 
	unsigned u = val;

	switch(base) { 
    85d4:	e28d3008 	add	r3, sp, #8
			break;
		}
		case 16:
			u = val;
            do {
                *p++ = "0123456789abcdef"[u % 16];
    85d8:	e59fe0b8 	ldr	lr, [pc, #184]	; 8698 <emit+0x1a4>
    85dc:	ea000000 	b	85e4 <emit+0xf0>
    85e0:	e1a03000 	mov	r3, r0
    85e4:	e2830001 	add	r0, r3, #1
    85e8:	e20c100f 	and	r1, ip, #15
    85ec:	e7de1001 	ldrb	r1, [lr, r1]
    85f0:	e5c31000 	strb	r1, [r3]
            } while(u /= 16);
    85f4:	e1b0c22c 	lsrs	ip, ip, #4
    85f8:	1afffff8 	bne	85e0 <emit+0xec>
            *p++ = 'x';
    85fc:	e3a01078 	mov	r1, #120	; 0x78
    8600:	e5c31001 	strb	r1, [r3, #1]
            *p++ = '0';
    8604:	e2830003 	add	r0, r3, #3
    8608:	e3a01030 	mov	r1, #48	; 0x30
    860c:	e5c31002 	strb	r1, [r3, #2]
                        break;
    8610:	ea000015 	b	866c <emit+0x178>
		// just a single char
		case 8:
			*p++ = val;
    8614:	e5cd3008 	strb	r3, [sp, #8]
    8618:	e28d0009 	add	r0, sp, #9
			break;
    861c:	ea000012 	b	866c <emit+0x178>
		width = n - 1;

	char buf[64], *p = buf; 
	unsigned u = val;

	switch(base) { 
    8620:	e28d3008 	add	r3, sp, #8
#if 0
			for(int i = 0; i < 32; i++)
				*p++ = "01"[(u & (1<<i)) != 0];
#else
                        do {
                        	*p++ = "01"[u % 2];
    8624:	e59fe070 	ldr	lr, [pc, #112]	; 869c <emit+0x1a8>
    8628:	e2830001 	add	r0, r3, #1
    862c:	e20c1001 	and	r1, ip, #1
    8630:	e7de1001 	ldrb	r1, [lr, r1]
    8634:	e5c31000 	strb	r1, [r3]
    8638:	e1a03000 	mov	r3, r0
			} while(u /= 2);
    863c:	e1b0c0ac 	lsrs	ip, ip, #1
    8640:	1afffff8 	bne	8628 <emit+0x134>
    8644:	ea000008 	b	866c <emit+0x178>
#endif
			break;
		default:
			assert(0);
    8648:	eb000292 	bl	9098 <rpi_reset_putc>
    864c:	e59f304c 	ldr	r3, [pc, #76]	; 86a0 <emit+0x1ac>
    8650:	e58d3000 	str	r3, [sp]
    8654:	e59f0048 	ldr	r0, [pc, #72]	; 86a4 <emit+0x1b0>
    8658:	e59f1048 	ldr	r1, [pc, #72]	; 86a8 <emit+0x1b4>
    865c:	e59f2048 	ldr	r2, [pc, #72]	; 86ac <emit+0x1b8>
    8660:	e3a03077 	mov	r3, #119	; 0x77
    8664:	ebffff5f 	bl	83e8 <printk>
    8668:	eb0000df 	bl	89ec <clean_reboot>
	}
	// number string is reversed, so re-reverse it.
	return reverse(dst, n, pad(p, buf, width), buf);
    866c:	e28d1008 	add	r1, sp, #8
    8670:	ebffff84 	bl	8488 <pad>
    8674:	e1a02000 	mov	r2, r0
    8678:	e1a00005 	mov	r0, r5
    867c:	e1a01004 	mov	r1, r4
    8680:	e28d3008 	add	r3, sp, #8
    8684:	ebffff8a 	bl	84b4 <reverse>
}
    8688:	e28dd048 	add	sp, sp, #72	; 0x48
    868c:	e8bd81f0 	pop	{r4, r5, r6, r7, r8, pc}
    8690:	cccccccd 	stclgt	12, cr12, [ip], {205}	; 0xcd
    8694:	000094b0 			; <UNDEFINED> instruction: 0x000094b0
    8698:	000094bc 			; <UNDEFINED> instruction: 0x000094bc
    869c:	000094d0 	ldrdeq	r9, [r0], -r0
    86a0:	000094ac 	andeq	r9, r0, ip, lsr #9
    86a4:	000093b8 			; <UNDEFINED> instruction: 0x000093b8
    86a8:	00009498 	muleq	r0, r8, r4
    86ac:	00009474 	andeq	r9, r0, r4, ror r4

000086b0 <rpi_set_output>:
// override this is going through the network.
int (*rpi_putchar)(int c) = internal_putchar;
#endif


void rpi_set_output(int (*putc_fp)(int), int (*puts_fp)(const char *)) {
    86b0:	e52de004 	push	{lr}		; (str lr, [sp, #-4]!)
    86b4:	e24dd00c 	sub	sp, sp, #12
    assert(putc_fp);
    86b8:	e3500000 	cmp	r0, #0
    86bc:	1a000008 	bne	86e4 <rpi_set_output+0x34>
    86c0:	eb000274 	bl	9098 <rpi_reset_putc>
    86c4:	e59f3034 	ldr	r3, [pc, #52]	; 8700 <rpi_set_output+0x50>
    86c8:	e58d3000 	str	r3, [sp]
    86cc:	e59f0030 	ldr	r0, [pc, #48]	; 8704 <rpi_set_output+0x54>
    86d0:	e59f1030 	ldr	r1, [pc, #48]	; 8708 <rpi_set_output+0x58>
    86d4:	e59f2030 	ldr	r2, [pc, #48]	; 870c <rpi_set_output+0x5c>
    86d8:	e3a03020 	mov	r3, #32
    86dc:	ebffff41 	bl	83e8 <printk>
    86e0:	eb0000c1 	bl	89ec <clean_reboot>
    rpi_putchar = putc_fp;
    86e4:	e59f3024 	ldr	r3, [pc, #36]	; 8710 <rpi_set_output+0x60>
    86e8:	e5830000 	str	r0, [r3]
    if(puts_fp)
    86ec:	e3510000 	cmp	r1, #0
        putk = puts_fp;
    86f0:	159f301c 	ldrne	r3, [pc, #28]	; 8714 <rpi_set_output+0x64>
    86f4:	15831000 	strne	r1, [r3]
}
    86f8:	e28dd00c 	add	sp, sp, #12
    86fc:	e49df004 	pop	{pc}		; (ldr pc, [sp], #4)
    8700:	000094d4 	ldrdeq	r9, [r0], -r4
    8704:	000093b8 			; <UNDEFINED> instruction: 0x000093b8
    8708:	00009498 	muleq	r0, r8, r4
    870c:	0000947c 	andeq	r9, r0, ip, ror r4
    8710:	000090c4 	andeq	r9, r0, r4, asr #1
    8714:	000090c0 	andeq	r9, r0, r0, asr #1

00008718 <va_printk>:
	return reverse(dst, n, pad(p, buf, width), buf);
}

#include "va-printk.h"

int va_printk(char *buf, int n, const char *fmt, va_list args) {
    8718:	e92d4ff0 	push	{r4, r5, r6, r7, r8, r9, sl, fp, lr}
    871c:	e24dd094 	sub	sp, sp, #148	; 0x94
    8720:	e1a0b000 	mov	fp, r0
    8724:	e58d200c 	str	r2, [sp, #12]
    8728:	e1a0a003 	mov	sl, r3
	char *p = buf, *e = buf + n - 1;
    872c:	e2411001 	sub	r1, r1, #1
    8730:	e0808001 	add	r8, r0, r1

	buf[0] = 0;
    8734:	e3a03000 	mov	r3, #0
    8738:	e5c03000 	strb	r3, [r0]
}

#include "va-printk.h"

int va_printk(char *buf, int n, const char *fmt, va_list args) {
	char *p = buf, *e = buf + n - 1;
    873c:	e1a04000 	mov	r4, r0

	buf[0] = 0;
    const char *fmt_start = fmt;
	for(; *fmt && p < e; ) {
    8740:	e1a06002 	mov	r6, r2
    8744:	ea000095 	b	89a0 <va_printk+0x288>
		if(*fmt != '%')
    8748:	e3530025 	cmp	r3, #37	; 0x25
			*p++ = *fmt++;
    874c:	12866001 	addne	r6, r6, #1
    8750:	15c43000 	strbne	r3, [r4]
    8754:	12844001 	addne	r4, r4, #1
    8758:	1a000090 	bne	89a0 <va_printk+0x288>
		
		else if(fmt[1] == '%') {
    875c:	e5d62001 	ldrb	r2, [r6, #1]
    8760:	e3520025 	cmp	r2, #37	; 0x25
			*p++ = *fmt;
    8764:	05c43000 	strbeq	r3, [r4]
			fmt+=2;
    8768:	02866002 	addeq	r6, r6, #2
	for(; *fmt && p < e; ) {
		if(*fmt != '%')
			*p++ = *fmt++;
		
		else if(fmt[1] == '%') {
			*p++ = *fmt;
    876c:	02844001 	addeq	r4, r4, #1
    8770:	0a00008a 	beq	89a0 <va_printk+0x288>
			fmt+=2;
		} else {	
			fmt++;
    8774:	e2866001 	add	r6, r6, #1

			char *s, num[128];
			unsigned width = 0;
    8778:	e3a07000 	mov	r7, #0

			while(isdigit(*fmt)) {
    877c:	ea000004 	b	8794 <va_printk+0x7c>
				width = width*10 + *fmt - '0';
    8780:	e0877107 	add	r7, r7, r7, lsl #2
    8784:	e1a07087 	lsl	r7, r7, #1
    8788:	e0877005 	add	r7, r7, r5
    878c:	e2477030 	sub	r7, r7, #48	; 0x30
				fmt++;
    8790:	e2866001 	add	r6, r6, #1
			fmt++;

			char *s, num[128];
			unsigned width = 0;

			while(isdigit(*fmt)) {
    8794:	e5d65000 	ldrb	r5, [r6]
    8798:	e1a09005 	mov	r9, r5
    879c:	e1a00005 	mov	r0, r5
    87a0:	ebffff33 	bl	8474 <isdigit>
    87a4:	e3500000 	cmp	r0, #0
    87a8:	1afffff4 	bne	8780 <va_printk+0x68>
				width = width*10 + *fmt - '0';
				fmt++;
			}
			assert(width < 32);
    87ac:	e357001f 	cmp	r7, #31
    87b0:	9a000008 	bls	87d8 <va_printk+0xc0>
    87b4:	eb000237 	bl	9098 <rpi_reset_putc>
    87b8:	e59f320c 	ldr	r3, [pc, #524]	; 89cc <va_printk+0x2b4>
    87bc:	e58d3000 	str	r3, [sp]
    87c0:	e59f0208 	ldr	r0, [pc, #520]	; 89d0 <va_printk+0x2b8>
    87c4:	e59f1208 	ldr	r1, [pc, #520]	; 89d4 <va_printk+0x2bc>
    87c8:	e59f2208 	ldr	r2, [pc, #520]	; 89d8 <va_printk+0x2c0>
    87cc:	e3a03095 	mov	r3, #149	; 0x95
    87d0:	ebffff04 	bl	83e8 <printk>
    87d4:	eb000084 	bl	89ec <clean_reboot>
			
			switch(*fmt) {
    87d8:	e2455062 	sub	r5, r5, #98	; 0x62
    87dc:	e3550016 	cmp	r5, #22
    87e0:	979ff105 	ldrls	pc, [pc, r5, lsl #2]
    87e4:	ea000052 	b	8934 <va_printk+0x21c>
    87e8:	000088d8 	ldrdeq	r8, [r0], -r8	; <UNPREDICTABLE>
    87ec:	0000890c 	andeq	r8, r0, ip, lsl #18
    87f0:	00008860 	andeq	r8, r0, r0, ror #16
    87f4:	00008934 	andeq	r8, r0, r4, lsr r9
    87f8:	00008844 	andeq	r8, r0, r4, asr #16
    87fc:	00008934 	andeq	r8, r0, r4, lsr r9
    8800:	00008934 	andeq	r8, r0, r4, lsr r9
    8804:	00008934 	andeq	r8, r0, r4, lsr r9
    8808:	00008934 	andeq	r8, r0, r4, lsr r9
    880c:	00008934 	andeq	r8, r0, r4, lsr r9
    8810:	00008934 	andeq	r8, r0, r4, lsr r9
    8814:	00008934 	andeq	r8, r0, r4, lsr r9
    8818:	00008934 	andeq	r8, r0, r4, lsr r9
    881c:	00008934 	andeq	r8, r0, r4, lsr r9
    8820:	000088b0 			; <UNDEFINED> instruction: 0x000088b0
    8824:	00008934 	andeq	r8, r0, r4, lsr r9
    8828:	00008934 	andeq	r8, r0, r4, lsr r9
    882c:	00008900 	andeq	r8, r0, r0, lsl #18
    8830:	00008934 	andeq	r8, r0, r4, lsr r9
    8834:	00008888 	andeq	r8, r0, r8, lsl #17
    8838:	00008934 	andeq	r8, r0, r4, lsr r9
    883c:	00008934 	andeq	r8, r0, r4, lsr r9
    8840:	000088b0 			; <UNDEFINED> instruction: 0x000088b0
			case 'f':
			{
#ifndef RPI_FP_ENABLED
				panic("float not enabled!!!");
    8844:	eb000213 	bl	9098 <rpi_reset_putc>
    8848:	e59f018c 	ldr	r0, [pc, #396]	; 89dc <va_printk+0x2c4>
    884c:	e59f1180 	ldr	r1, [pc, #384]	; 89d4 <va_printk+0x2bc>
    8850:	e59f2180 	ldr	r2, [pc, #384]	; 89d8 <va_printk+0x2c0>
    8854:	e3a0309b 	mov	r3, #155	; 0x9b
    8858:	ebfffee2 	bl	83e8 <printk>
    885c:	eb000062 	bl	89ec <clean_reboot>

				break;
#endif
			}
			case 'd':
				s = emit(10, num, 128, va_arg(args, int), width, 1);
    8860:	e59a3000 	ldr	r3, [sl]
    8864:	e28aa004 	add	sl, sl, #4
    8868:	e58d7000 	str	r7, [sp]
    886c:	e3a02001 	mov	r2, #1
    8870:	e58d2004 	str	r2, [sp, #4]
    8874:	e3a0000a 	mov	r0, #10
    8878:	e28d1010 	add	r1, sp, #16
    887c:	e3a02080 	mov	r2, #128	; 0x80
    8880:	ebffff1b 	bl	84f4 <emit>
				break;
    8884:	ea00003b 	b	8978 <va_printk+0x260>
			case 'u':
				s = emit(10, num, 128, va_arg(args, unsigned), width, 0);
    8888:	e59a3000 	ldr	r3, [sl]
    888c:	e28aa004 	add	sl, sl, #4
    8890:	e58d7000 	str	r7, [sp]
    8894:	e3a02000 	mov	r2, #0
    8898:	e58d2004 	str	r2, [sp, #4]
    889c:	e3a0000a 	mov	r0, #10
    88a0:	e28d1010 	add	r1, sp, #16
    88a4:	e3a02080 	mov	r2, #128	; 0x80
    88a8:	ebffff11 	bl	84f4 <emit>
				break;
    88ac:	ea000031 	b	8978 <va_printk+0x260>
			case 'p':
			case 'x':
				s = emit(16, num, 128, va_arg(args, unsigned), width, 0);
    88b0:	e59a3000 	ldr	r3, [sl]
    88b4:	e28aa004 	add	sl, sl, #4
    88b8:	e58d7000 	str	r7, [sp]
    88bc:	e3a02000 	mov	r2, #0
    88c0:	e58d2004 	str	r2, [sp, #4]
    88c4:	e3a00010 	mov	r0, #16
    88c8:	e08d1000 	add	r1, sp, r0
    88cc:	e3a02080 	mov	r2, #128	; 0x80
    88d0:	ebffff07 	bl	84f4 <emit>
				break;
    88d4:	ea000027 	b	8978 <va_printk+0x260>
			case 'b':
				s = emit(2, num, 128, va_arg(args, unsigned), width, 0);
    88d8:	e59a3000 	ldr	r3, [sl]
    88dc:	e28aa004 	add	sl, sl, #4
    88e0:	e58d7000 	str	r7, [sp]
    88e4:	e3a02000 	mov	r2, #0
    88e8:	e58d2004 	str	r2, [sp, #4]
    88ec:	e3a00002 	mov	r0, #2
    88f0:	e28d1010 	add	r1, sp, #16
    88f4:	e3a02080 	mov	r2, #128	; 0x80
    88f8:	ebfffefd 	bl	84f4 <emit>
				break;
    88fc:	ea00001d 	b	8978 <va_printk+0x260>
			case 's':
				s = va_arg(args, char *);
    8900:	e59a0000 	ldr	r0, [sl]
    8904:	e28aa004 	add	sl, sl, #4
				break;
    8908:	ea00001a 	b	8978 <va_printk+0x260>
			case 'c':
				s = emit(8, num, 128, va_arg(args, int),width,0);
    890c:	e59a3000 	ldr	r3, [sl]
    8910:	e28aa004 	add	sl, sl, #4
    8914:	e58d7000 	str	r7, [sp]
    8918:	e3a02000 	mov	r2, #0
    891c:	e58d2004 	str	r2, [sp, #4]
    8920:	e3a00008 	mov	r0, #8
    8924:	e28d1010 	add	r1, sp, #16
    8928:	e3a02080 	mov	r2, #128	; 0x80
    892c:	ebfffef0 	bl	84f4 <emit>
				break;
    8930:	ea000010 	b	8978 <va_printk+0x260>
			default: 
                ((char *)fmt)[1] = 0;
    8934:	e3a03000 	mov	r3, #0
    8938:	e5c63001 	strb	r3, [r6, #1]
				printk("printk: not handling specifier '%c' (ascii=%d)\n", *fmt, *fmt);
    893c:	e59f009c 	ldr	r0, [pc, #156]	; 89e0 <va_printk+0x2c8>
    8940:	e1a01009 	mov	r1, r9
    8944:	e1a02009 	mov	r2, r9
    8948:	ebfffea6 	bl	83e8 <printk>
                putk((char*)fmt_start);
    894c:	e59f3090 	ldr	r3, [pc, #144]	; 89e4 <va_printk+0x2cc>
    8950:	e5933000 	ldr	r3, [r3]
    8954:	e59d000c 	ldr	r0, [sp, #12]
    8958:	e12fff33 	blx	r3
				panic("printk error\n");
    895c:	eb0001cd 	bl	9098 <rpi_reset_putc>
    8960:	e59f0080 	ldr	r0, [pc, #128]	; 89e8 <va_printk+0x2d0>
    8964:	e59f1068 	ldr	r1, [pc, #104]	; 89d4 <va_printk+0x2bc>
    8968:	e59f2068 	ldr	r2, [pc, #104]	; 89d8 <va_printk+0x2c0>
    896c:	e3a030bf 	mov	r3, #191	; 0xbf
    8970:	ebfffe9c 	bl	83e8 <printk>
    8974:	eb00001c 	bl	89ec <clean_reboot>
				return 0;   // ugh
			}
			fmt++;
    8978:	e2866001 	add	r6, r6, #1

			// safe string copy
			for(; p < e && *s; )
    897c:	ea000002 	b	898c <va_printk+0x274>
				*p++ = *s++;
    8980:	e2800001 	add	r0, r0, #1
    8984:	e5c43000 	strb	r3, [r4]
    8988:	e2844001 	add	r4, r4, #1
				return 0;   // ugh
			}
			fmt++;

			// safe string copy
			for(; p < e && *s; )
    898c:	e1540008 	cmp	r4, r8
    8990:	2a000002 	bcs	89a0 <va_printk+0x288>
    8994:	e5d03000 	ldrb	r3, [r0]
    8998:	e3530000 	cmp	r3, #0
    899c:	1afffff7 	bne	8980 <va_printk+0x268>
int va_printk(char *buf, int n, const char *fmt, va_list args) {
	char *p = buf, *e = buf + n - 1;

	buf[0] = 0;
    const char *fmt_start = fmt;
	for(; *fmt && p < e; ) {
    89a0:	e5d63000 	ldrb	r3, [r6]
    89a4:	e3530000 	cmp	r3, #0
    89a8:	0a000001 	beq	89b4 <va_printk+0x29c>
    89ac:	e1540008 	cmp	r4, r8
    89b0:	3affff64 	bcc	8748 <va_printk+0x30>
			// safe string copy
			for(; p < e && *s; )
				*p++ = *s++;
		}
	}
	*p++ = 0;
    89b4:	e2840001 	add	r0, r4, #1
    89b8:	e3a03000 	mov	r3, #0
    89bc:	e5c43000 	strb	r3, [r4]
	return p - buf;
}
    89c0:	e06b0000 	rsb	r0, fp, r0
    89c4:	e28dd094 	add	sp, sp, #148	; 0x94
    89c8:	e8bd8ff0 	pop	{r4, r5, r6, r7, r8, r9, sl, fp, pc}
    89cc:	000094dc 	ldrdeq	r9, [r0], -ip
    89d0:	000093b8 			; <UNDEFINED> instruction: 0x000093b8
    89d4:	00009498 	muleq	r0, r8, r4
    89d8:	0000948c 	andeq	r9, r0, ip, lsl #9
    89dc:	000094e8 	andeq	r9, r0, r8, ror #9
    89e0:	00009510 	andeq	r9, r0, r0, lsl r5
    89e4:	000090c0 	andeq	r9, r0, r0, asr #1
    89e8:	00009540 	andeq	r9, r0, r0, asr #10

000089ec <clean_reboot>:
#include "rpi.h"

// print out a special message so bootloader exits
void clean_reboot(void) {
    89ec:	e92d4008 	push	{r3, lr}
    reboot_handler();
    89f0:	eb00007d 	bl	8bec <reboot_handler>
    putk("DONE!!!\n");
    89f4:	e59f3014 	ldr	r3, [pc, #20]	; 8a10 <clean_reboot+0x24>
    89f8:	e5933000 	ldr	r3, [r3]
    89fc:	e59f0010 	ldr	r0, [pc, #16]	; 8a14 <clean_reboot+0x28>
    8a00:	e12fff33 	blx	r3
    delay_ms(100);       // (hopefully) enough time for message to get flushed.
    8a04:	e3a00064 	mov	r0, #100	; 0x64
    8a08:	eb0000cc 	bl	8d40 <delay_ms>
    rpi_reboot();
    8a0c:	eb00009d 	bl	8c88 <rpi_reboot>
    8a10:	000090c0 	andeq	r9, r0, r0, asr #1
    8a14:	00009560 	andeq	r9, r0, r0, ror #10

00008a18 <_cstart>:
    sw_uart_putc(&console_uart, c);
    return c;
}
#endif

void _cstart() {
    8a18:	e92d4008 	push	{r3, lr}
    extern int __bss_start__, __bss_end__;
	void notmain();

    int* bss = &__bss_start__;
    8a1c:	e59f3024 	ldr	r3, [pc, #36]	; 8a48 <_cstart+0x30>
    int* bss_end = &__bss_end__;
 
    while( bss < bss_end )
    8a20:	e59f2024 	ldr	r2, [pc, #36]	; 8a4c <_cstart+0x34>
        *bss++ = 0;
    8a24:	e3a01000 	mov	r1, #0
	void notmain();

    int* bss = &__bss_start__;
    int* bss_end = &__bss_end__;
 
    while( bss < bss_end )
    8a28:	ea000001 	b	8a34 <_cstart+0x1c>
        *bss++ = 0;
    8a2c:	e5831000 	str	r1, [r3]
    8a30:	e2833004 	add	r3, r3, #4
	void notmain();

    int* bss = &__bss_start__;
    int* bss_end = &__bss_end__;
 
    while( bss < bss_end )
    8a34:	e1530002 	cmp	r3, r2
    8a38:	3afffffb 	bcc	8a2c <_cstart+0x14>
#   include "rpi-fp.h"
    enable_fpu();
    assert(fp_is_enabled);
#   endif

    cstart_handler();
    8a3c:	eb000069 	bl	8be8 <cstart_handler>
            sw_uart_printk(&console_uart, "about to print on regular printf\n");
            printk("success!\n");
        }
    }
#endif
    notmain(); 
    8a40:	ebfffd94 	bl	8098 <notmain>
	clean_reboot();
    8a44:	ebffffe8 	bl	89ec <clean_reboot>
    8a48:	0000975c 	andeq	r9, r0, ip, asr r7
    8a4c:	00009b70 	andeq	r9, r0, r0, ror fp

00008a50 <data_abort_vector>:
#include "rpi-interrupts.h"
void data_abort_vector(unsigned pc) { INT_UNHANDLED("data abort", pc); }
    8a50:	e52de004 	push	{lr}		; (str lr, [sp, #-4]!)
    8a54:	e24dd00c 	sub	sp, sp, #12
    8a58:	e1a04000 	mov	r4, r0
    8a5c:	eb00018d 	bl	9098 <rpi_reset_putc>
    8a60:	e59f301c 	ldr	r3, [pc, #28]	; 8a84 <data_abort_vector+0x34>
    8a64:	e58d3000 	str	r3, [sp]
    8a68:	e58d4004 	str	r4, [sp, #4]
    8a6c:	e59f0014 	ldr	r0, [pc, #20]	; 8a88 <data_abort_vector+0x38>
    8a70:	e59f1014 	ldr	r1, [pc, #20]	; 8a8c <data_abort_vector+0x3c>
    8a74:	e59f2014 	ldr	r2, [pc, #20]	; 8a90 <data_abort_vector+0x40>
    8a78:	e3a03002 	mov	r3, #2
    8a7c:	ebfffe59 	bl	83e8 <printk>
    8a80:	ebffffd9 	bl	89ec <clean_reboot>
    8a84:	000095e4 	andeq	r9, r0, r4, ror #11
    8a88:	00009580 	andeq	r9, r0, r0, lsl #11
    8a8c:	000095bc 			; <UNDEFINED> instruction: 0x000095bc
    8a90:	0000956c 	andeq	r9, r0, ip, ror #10

00008a94 <fast_interrupt_vector>:
#include "rpi-interrupts.h"
void fast_interrupt_vector(unsigned pc) { INT_UNHANDLED("fast", pc); }
    8a94:	e52de004 	push	{lr}		; (str lr, [sp, #-4]!)
    8a98:	e24dd00c 	sub	sp, sp, #12
    8a9c:	e1a04000 	mov	r4, r0
    8aa0:	eb00017c 	bl	9098 <rpi_reset_putc>
    8aa4:	e59f301c 	ldr	r3, [pc, #28]	; 8ac8 <fast_interrupt_vector+0x34>
    8aa8:	e58d3000 	str	r3, [sp]
    8aac:	e58d4004 	str	r4, [sp, #4]
    8ab0:	e59f0014 	ldr	r0, [pc, #20]	; 8acc <fast_interrupt_vector+0x38>
    8ab4:	e59f1014 	ldr	r1, [pc, #20]	; 8ad0 <fast_interrupt_vector+0x3c>
    8ab8:	e59f2014 	ldr	r2, [pc, #20]	; 8ad4 <fast_interrupt_vector+0x40>
    8abc:	e3a03002 	mov	r3, #2
    8ac0:	ebfffe48 	bl	83e8 <printk>
    8ac4:	ebffffc8 	bl	89ec <clean_reboot>
    8ac8:	0000962c 	andeq	r9, r0, ip, lsr #12
    8acc:	00009580 	andeq	r9, r0, r0, lsl #11
    8ad0:	00009608 	andeq	r9, r0, r8, lsl #12
    8ad4:	000095f0 	strdeq	r9, [r0], -r0

00008ad8 <prefetch_abort_vector>:
#include "rpi-interrupts.h"
void prefetch_abort_vector(unsigned pc) { INT_UNHANDLED("prefetch abort", pc); }
    8ad8:	e52de004 	push	{lr}		; (str lr, [sp, #-4]!)
    8adc:	e24dd00c 	sub	sp, sp, #12
    8ae0:	e1a04000 	mov	r4, r0
    8ae4:	eb00016b 	bl	9098 <rpi_reset_putc>
    8ae8:	e59f301c 	ldr	r3, [pc, #28]	; 8b0c <prefetch_abort_vector+0x34>
    8aec:	e58d3000 	str	r3, [sp]
    8af0:	e58d4004 	str	r4, [sp, #4]
    8af4:	e59f0014 	ldr	r0, [pc, #20]	; 8b10 <prefetch_abort_vector+0x38>
    8af8:	e59f1014 	ldr	r1, [pc, #20]	; 8b14 <prefetch_abort_vector+0x3c>
    8afc:	e59f2014 	ldr	r2, [pc, #20]	; 8b18 <prefetch_abort_vector+0x40>
    8b00:	e3a03002 	mov	r3, #2
    8b04:	ebfffe37 	bl	83e8 <printk>
    8b08:	ebffffb7 	bl	89ec <clean_reboot>
    8b0c:	00009674 	andeq	r9, r0, r4, ror r6
    8b10:	00009580 	andeq	r9, r0, r0, lsl #11
    8b14:	0000964c 	andeq	r9, r0, ip, asr #12
    8b18:	00009634 	andeq	r9, r0, r4, lsr r6

00008b1c <reset_vector>:
#include "rpi-interrupts.h"
void reset_vector(unsigned pc) { INT_UNHANDLED("reset", pc); }
    8b1c:	e52de004 	push	{lr}		; (str lr, [sp, #-4]!)
    8b20:	e24dd00c 	sub	sp, sp, #12
    8b24:	e1a04000 	mov	r4, r0
    8b28:	eb00015a 	bl	9098 <rpi_reset_putc>
    8b2c:	e59f301c 	ldr	r3, [pc, #28]	; 8b50 <reset_vector+0x34>
    8b30:	e58d3000 	str	r3, [sp]
    8b34:	e58d4004 	str	r4, [sp, #4]
    8b38:	e59f0014 	ldr	r0, [pc, #20]	; 8b54 <reset_vector+0x38>
    8b3c:	e59f1014 	ldr	r1, [pc, #20]	; 8b58 <reset_vector+0x3c>
    8b40:	e59f2014 	ldr	r2, [pc, #20]	; 8b5c <reset_vector+0x40>
    8b44:	e3a03002 	mov	r3, #2
    8b48:	ebfffe26 	bl	83e8 <printk>
    8b4c:	ebffffa6 	bl	89ec <clean_reboot>
    8b50:	000096b8 			; <UNDEFINED> instruction: 0x000096b8
    8b54:	00009580 	andeq	r9, r0, r0, lsl #11
    8b58:	00009694 	muleq	r0, r4, r6
    8b5c:	00009684 	andeq	r9, r0, r4, lsl #13

00008b60 <software_interrupt_vector>:
#include "rpi-interrupts.h"
void software_interrupt_vector(unsigned pc) { INT_UNHANDLED("swi", pc); }
    8b60:	e52de004 	push	{lr}		; (str lr, [sp, #-4]!)
    8b64:	e24dd00c 	sub	sp, sp, #12
    8b68:	e1a04000 	mov	r4, r0
    8b6c:	eb000149 	bl	9098 <rpi_reset_putc>
    8b70:	e59f301c 	ldr	r3, [pc, #28]	; 8b94 <software_interrupt_vector+0x34>
    8b74:	e58d3000 	str	r3, [sp]
    8b78:	e58d4004 	str	r4, [sp, #4]
    8b7c:	e59f0014 	ldr	r0, [pc, #20]	; 8b98 <software_interrupt_vector+0x38>
    8b80:	e59f1014 	ldr	r1, [pc, #20]	; 8b9c <software_interrupt_vector+0x3c>
    8b84:	e59f2014 	ldr	r2, [pc, #20]	; 8ba0 <software_interrupt_vector+0x40>
    8b88:	e3a03002 	mov	r3, #2
    8b8c:	ebfffe15 	bl	83e8 <printk>
    8b90:	ebffff95 	bl	89ec <clean_reboot>
    8b94:	000096fc 	strdeq	r9, [r0], -ip
    8b98:	00009580 	andeq	r9, r0, r0, lsl #11
    8b9c:	000096dc 	ldrdeq	r9, [r0], -ip
    8ba0:	000096c0 	andeq	r9, r0, r0, asr #13

00008ba4 <undefined_instruction_vector>:
#include "rpi-interrupts.h"
void undefined_instruction_vector(unsigned pc) { INT_UNHANDLED("undefined inst", pc); }
    8ba4:	e52de004 	push	{lr}		; (str lr, [sp, #-4]!)
    8ba8:	e24dd00c 	sub	sp, sp, #12
    8bac:	e1a04000 	mov	r4, r0
    8bb0:	eb000138 	bl	9098 <rpi_reset_putc>
    8bb4:	e59f301c 	ldr	r3, [pc, #28]	; 8bd8 <undefined_instruction_vector+0x34>
    8bb8:	e58d3000 	str	r3, [sp]
    8bbc:	e58d4004 	str	r4, [sp, #4]
    8bc0:	e59f0014 	ldr	r0, [pc, #20]	; 8bdc <undefined_instruction_vector+0x38>
    8bc4:	e59f1014 	ldr	r1, [pc, #20]	; 8be0 <undefined_instruction_vector+0x3c>
    8bc8:	e59f2014 	ldr	r2, [pc, #20]	; 8be4 <undefined_instruction_vector+0x40>
    8bcc:	e3a03002 	mov	r3, #2
    8bd0:	ebfffe04 	bl	83e8 <printk>
    8bd4:	ebffff84 	bl	89ec <clean_reboot>
    8bd8:	0000974c 	andeq	r9, r0, ip, asr #14
    8bdc:	00009580 	andeq	r9, r0, r0, lsl #11
    8be0:	00009720 	andeq	r9, r0, r0, lsr #14
    8be4:	00009700 	andeq	r9, r0, r0, lsl #14

00008be8 <cstart_handler>:
#include "rpi.h"

// default: do nothing.
void cstart_handler(void) { }
    8be8:	e12fff1e 	bx	lr

00008bec <reboot_handler>:
void reboot_handler(void) { }
    8bec:	e12fff1e 	bx	lr

00008bf0 <int_init>:
    v[INT_handler_id] = handler;
}
#endif

// initialize global interrupt state.
void int_init(void) {
    8bf0:	e92d4008 	push	{r3, lr}
    // put interrupt flags in known state. 
    //  BCM2835 manual, section 7.5
    dev_barrier();
    8bf4:	eb000063 	bl	8d88 <dev_barrier>
    PUT32(Disable_IRQs_1, 0xffffffff);
    8bf8:	e59f004c 	ldr	r0, [pc, #76]	; 8c4c <int_init+0x5c>
    8bfc:	e3e01000 	mvn	r1, #0
    8c00:	eb000068 	bl	8da8 <PUT32>
    PUT32(Disable_IRQs_2, 0xffffffff);
    8c04:	e59f0044 	ldr	r0, [pc, #68]	; 8c50 <int_init+0x60>
    8c08:	e3e01000 	mvn	r1, #0
    8c0c:	eb000065 	bl	8da8 <PUT32>
    dev_barrier();
    8c10:	eb00005c 	bl	8d88 <dev_barrier>
    extern unsigned _interrupt_table_end;
    // where the interrupt handlers go.
#   define RPI_VECTOR_START  0
    unsigned *dst = (void*)RPI_VECTOR_START,
                 *src = &_interrupt_table,
                 n = &_interrupt_table_end - src;
    8c14:	e59f3038 	ldr	r3, [pc, #56]	; 8c54 <int_init+0x64>
    8c18:	e59f0038 	ldr	r0, [pc, #56]	; 8c58 <int_init+0x68>
    8c1c:	e0630000 	rsb	r0, r3, r0
    8c20:	e1a00140 	asr	r0, r0, #2
    for(int i = 0; i < n; i++)
    8c24:	e3a03000 	mov	r3, #0
        dst[i] = src[i];
    8c28:	e59fc024 	ldr	ip, [pc, #36]	; 8c54 <int_init+0x64>
    // where the interrupt handlers go.
#   define RPI_VECTOR_START  0
    unsigned *dst = (void*)RPI_VECTOR_START,
                 *src = &_interrupt_table,
                 n = &_interrupt_table_end - src;
    for(int i = 0; i < n; i++)
    8c2c:	ea000003 	b	8c40 <int_init+0x50>
        dst[i] = src[i];
    8c30:	e1a02103 	lsl	r2, r3, #2
    8c34:	e79c1103 	ldr	r1, [ip, r3, lsl #2]
    8c38:	e5821000 	str	r1, [r2]
    // where the interrupt handlers go.
#   define RPI_VECTOR_START  0
    unsigned *dst = (void*)RPI_VECTOR_START,
                 *src = &_interrupt_table,
                 n = &_interrupt_table_end - src;
    for(int i = 0; i < n; i++)
    8c3c:	e2833001 	add	r3, r3, #1
    8c40:	e1530000 	cmp	r3, r0
    8c44:	3afffff9 	bcc	8c30 <int_init+0x40>
        dst[i] = src[i];
}
    8c48:	e8bd8008 	pop	{r3, pc}
    8c4c:	2000b21c 	andcs	fp, r0, ip, lsl r2
    8c50:	2000b220 	andcs	fp, r0, r0, lsr #4
    8c54:	000082f4 	strdeq	r8, [r0], -r4
    8c58:	00008334 	andeq	r8, r0, r4, lsr r3

00008c5c <at_user_level>:
 * works if we have a trashed stack pointer?
 */
static unsigned user_level = 0b10000;
int at_user_level(void) {
    unsigned cpsr = 0;
    asm volatile("mrs %0,cpsr" : "=r"(cpsr));
    8c5c:	e10f0000 	mrs	r0, CPSR

    // user level = lower 5 bits = 0b10000);
    return (cpsr  & 0b11111)  == user_level;
    8c60:	e200001f 	and	r0, r0, #31
}
    8c64:	e3500010 	cmp	r0, #16
    8c68:	13a00000 	movne	r0, #0
    8c6c:	03a00001 	moveq	r0, #1
    8c70:	e12fff1e 	bx	lr

00008c74 <set_user_level>:

// this is just used by the reboot code.
void set_user_level(void) {
    unsigned cpsr = 0;
    // XXX: shouldn't we just set the one bit?
    asm volatile("mrs %0,cpsr" : "=r"(cpsr));
    8c74:	e10f3000 	mrs	r3, CPSR
        cpsr = (cpsr & ~0b11111) | user_level;
    8c78:	e3c3301f 	bic	r3, r3, #31
    8c7c:	e3833010 	orr	r3, r3, #16
    asm volatile("msr cpsr, %0" :: "r"(cpsr));
    8c80:	e129f003 	msr	CPSR_fc, r3
    8c84:	e12fff1e 	bx	lr

00008c88 <rpi_reboot>:
}

void rpi_reboot(void) {
    8c88:	e92d4008 	push	{r3, lr}
    if(at_user_level()) {
    8c8c:	ebfffff2 	bl	8c5c <at_user_level>
    8c90:	e3500000 	cmp	r0, #0
    8c94:	0a000000 	beq	8c9c <rpi_reboot+0x14>
        set_user_level();
    8c98:	ebfffff5 	bl	8c74 <set_user_level>
        // of stuff.
        // assert(!at_user_level());
    }

    // gives uart time to flush: should just call flush directly.
    delay_ms(30);
    8c9c:	e3a0001e 	mov	r0, #30
    8ca0:	eb000026 	bl	8d40 <delay_ms>
    const int PM_WDOG = 0x20100024;
    const int PM_PASSWORD = 0x5a000000;
    const int PM_RSTC_WRCFG_FULL_RESET = 0x00000020;

    // timeout = 1/16th of a second? (whatever)
    PUT32(PM_WDOG, PM_PASSWORD | 1);
    8ca4:	e59f0014 	ldr	r0, [pc, #20]	; 8cc0 <rpi_reboot+0x38>
    8ca8:	e59f1014 	ldr	r1, [pc, #20]	; 8cc4 <rpi_reboot+0x3c>
    8cac:	eb00003d 	bl	8da8 <PUT32>
    PUT32(PM_RSTC, PM_PASSWORD | PM_RSTC_WRCFG_FULL_RESET);
    8cb0:	e59f0010 	ldr	r0, [pc, #16]	; 8cc8 <rpi_reboot+0x40>
    8cb4:	e59f1010 	ldr	r1, [pc, #16]	; 8ccc <rpi_reboot+0x44>
    8cb8:	eb00003a 	bl	8da8 <PUT32>
    8cbc:	eafffffe 	b	8cbc <rpi_reboot+0x34>
    8cc0:	20100024 	andscs	r0, r0, r4, lsr #32
    8cc4:	5a000001 	bpl	8cd0 <delay_cycles>
    8cc8:	2010001c 	andscs	r0, r0, ip, lsl r0
    8ccc:	5a000020 	bpl	8d54 <delay_sec>

00008cd0 <delay_cycles>:

// roughly 2-3x the number of cyles.  dunno if we care.  can read cycle count from
// cp15 iirc.
void delay_cycles(unsigned ticks) {
#ifndef RPI_UNIX
    while(ticks-- > 0)
    8cd0:	ea000001 	b	8cdc <delay_cycles+0xc>
        asm("add r1, r1, #0");
    8cd4:	e2811000 	add	r1, r1, #0

// roughly 2-3x the number of cyles.  dunno if we care.  can read cycle count from
// cp15 iirc.
void delay_cycles(unsigned ticks) {
#ifndef RPI_UNIX
    while(ticks-- > 0)
    8cd8:	e1a00003 	mov	r0, r3
    8cdc:	e2403001 	sub	r3, r0, #1
    8ce0:	e3500000 	cmp	r0, #0
    8ce4:	1afffffa 	bne	8cd4 <delay_cycles+0x4>
#else
    void dummy_fn(void);
    while(ticks-- > 0)
        dummy_fn();
#endif
}
    8ce8:	e12fff1e 	bx	lr

00008cec <timer_get_usec_raw>:

// no dev barrier.
unsigned timer_get_usec_raw(void) {
    8cec:	e92d4008 	push	{r3, lr}
    return GET32(0x20003004);
    8cf0:	e59f0004 	ldr	r0, [pc, #4]	; 8cfc <timer_get_usec_raw+0x10>
    8cf4:	eb000037 	bl	8dd8 <GET32>
}
    8cf8:	e8bd8008 	pop	{r3, pc}
    8cfc:	20003004 	andcs	r3, r0, r4

00008d00 <timer_get_usec>:

// in usec
unsigned timer_get_usec(void) {
    8d00:	e92d4010 	push	{r4, lr}
// comment these out for this lab (8) so student
// code does not get hit by weird timing issues.
    dev_barrier();
    8d04:	eb00001f 	bl	8d88 <dev_barrier>
    unsigned u = timer_get_usec_raw();
    8d08:	ebfffff7 	bl	8cec <timer_get_usec_raw>
    8d0c:	e1a04000 	mov	r4, r0
    dev_barrier();
    8d10:	eb00001c 	bl	8d88 <dev_barrier>
    return u;
}
    8d14:	e1a00004 	mov	r0, r4
    8d18:	e8bd8010 	pop	{r4, pc}

00008d1c <delay_us>:

void delay_us(unsigned us) {
    8d1c:	e92d4038 	push	{r3, r4, r5, lr}
    8d20:	e1a05000 	mov	r5, r0
    unsigned rb = timer_get_usec();
    8d24:	ebfffff5 	bl	8d00 <timer_get_usec>
    8d28:	e1a04000 	mov	r4, r0
    while (1) {
        unsigned ra = timer_get_usec();
    8d2c:	ebfffff3 	bl	8d00 <timer_get_usec>
        if ((ra - rb) >= us) {
    8d30:	e0640000 	rsb	r0, r4, r0
    8d34:	e1500005 	cmp	r0, r5
    8d38:	3afffffb 	bcc	8d2c <delay_us+0x10>
            break;
        }
    }
}
    8d3c:	e8bd8038 	pop	{r3, r4, r5, pc}

00008d40 <delay_ms>:
void delay_ms(unsigned ms) {
    8d40:	e92d4008 	push	{r3, lr}
    delay_us(ms*1000);
    8d44:	e3a03ffa 	mov	r3, #1000	; 0x3e8
    8d48:	e0000093 	mul	r0, r3, r0
    8d4c:	ebfffff2 	bl	8d1c <delay_us>
    8d50:	e8bd8008 	pop	{r3, pc}

00008d54 <delay_sec>:
}
void delay_sec(unsigned sec) {
    8d54:	e92d4008 	push	{r3, lr}
    delay_ms(sec*1000);
    8d58:	e3a03ffa 	mov	r3, #1000	; 0x3e8
    8d5c:	e0000093 	mul	r0, r3, r0
    8d60:	ebfffff6 	bl	8d40 <delay_ms>
    8d64:	e8bd8008 	pop	{r3, pc}

00008d68 <system_enable_interrupts>:
    8d68:	e10f0000 	mrs	r0, CPSR
    8d6c:	e3c00080 	bic	r0, r0, #128	; 0x80
    8d70:	e121f000 	msr	CPSR_c, r0
    8d74:	e12fff1e 	bx	lr

00008d78 <system_disable_interrupts>:
    8d78:	e10f0000 	mrs	r0, CPSR
    8d7c:	e3800080 	orr	r0, r0, #128	; 0x80
    8d80:	e121f000 	msr	CPSR_c, r0
    8d84:	e12fff1e 	bx	lr

00008d88 <dev_barrier>:
    8d88:	ea000002 	b	8d98 <dsb>

00008d8c <dmb>:
    8d8c:	e3a00000 	mov	r0, #0
    8d90:	ee070fba 	mcr	15, 0, r0, cr7, cr10, {5}
    8d94:	e12fff1e 	bx	lr

00008d98 <dsb>:
    8d98:	ee070f9a 	mcr	15, 0, r0, cr7, cr10, {4}
    8d9c:	e12fff1e 	bx	lr

00008da0 <put32>:
    8da0:	e5801000 	str	r1, [r0]
    8da4:	e12fff1e 	bx	lr

00008da8 <PUT32>:
    8da8:	e5801000 	str	r1, [r0]
    8dac:	e12fff1e 	bx	lr

00008db0 <put16>:
    8db0:	e1c010b0 	strh	r1, [r0]
    8db4:	e12fff1e 	bx	lr

00008db8 <PUT16>:
    8db8:	e1c010b0 	strh	r1, [r0]
    8dbc:	e12fff1e 	bx	lr

00008dc0 <put8>:
    8dc0:	e5c01000 	strb	r1, [r0]
    8dc4:	e12fff1e 	bx	lr

00008dc8 <PUT8>:
    8dc8:	e5c01000 	strb	r1, [r0]
    8dcc:	e12fff1e 	bx	lr

00008dd0 <get32>:
    8dd0:	e5900000 	ldr	r0, [r0]
    8dd4:	e12fff1e 	bx	lr

00008dd8 <GET32>:
    8dd8:	e5900000 	ldr	r0, [r0]
    8ddc:	e12fff1e 	bx	lr

00008de0 <GETPC>:
    8de0:	e1a0000e 	mov	r0, lr
    8de4:	e12fff1e 	bx	lr

00008de8 <dummy>:
    8de8:	e12fff1e 	bx	lr

00008dec <or_in32>:
    8dec:	e92d4070 	push	{r4, r5, r6, lr}
    8df0:	e1a04000 	mov	r4, r0
    8df4:	e1a05001 	mov	r5, r1
    8df8:	ebfffff4 	bl	8dd0 <get32>
    8dfc:	e1801005 	orr	r1, r0, r5
    8e00:	e1a00004 	mov	r0, r4
    8e04:	ebffffe5 	bl	8da0 <put32>
    8e08:	e8bd8070 	pop	{r4, r5, r6, pc}

00008e0c <uart_init>:
    8e0c:	e92d4010 	push	{r4, lr}
    8e10:	e3a01002 	mov	r1, #2
    8e14:	e3a0000e 	mov	r0, #14
    8e18:	eb000051 	bl	8f64 <gpio_set_function>
    8e1c:	e3a01002 	mov	r1, #2
    8e20:	e3a0000f 	mov	r0, #15
    8e24:	eb00004e 	bl	8f64 <gpio_set_function>
    8e28:	ebffffd6 	bl	8d88 <dev_barrier>
    8e2c:	e3a01001 	mov	r1, #1
    8e30:	e59f0064 	ldr	r0, [pc, #100]	; 8e9c <uart_init+0x90>
    8e34:	ebffffec 	bl	8dec <or_in32>
    8e38:	ebffffd2 	bl	8d88 <dev_barrier>
    8e3c:	e59f405c 	ldr	r4, [pc, #92]	; 8ea0 <uart_init+0x94>
    8e40:	e3a01000 	mov	r1, #0
    8e44:	e1a00004 	mov	r0, r4
    8e48:	ebffffd4 	bl	8da0 <put32>
    8e4c:	e3a01000 	mov	r1, #0
    8e50:	e59f004c 	ldr	r0, [pc, #76]	; 8ea4 <uart_init+0x98>
    8e54:	ebffffd1 	bl	8da0 <put32>
    8e58:	e3a01003 	mov	r1, #3
    8e5c:	e59f0044 	ldr	r0, [pc, #68]	; 8ea8 <uart_init+0x9c>
    8e60:	ebffffce 	bl	8da0 <put32>
    8e64:	e3a01000 	mov	r1, #0
    8e68:	e59f003c 	ldr	r0, [pc, #60]	; 8eac <uart_init+0xa0>
    8e6c:	ebffffcb 	bl	8da0 <put32>
    8e70:	e3a010c7 	mov	r1, #199	; 0xc7
    8e74:	e59f0034 	ldr	r0, [pc, #52]	; 8eb0 <uart_init+0xa4>
    8e78:	ebffffc8 	bl	8da0 <put32>
    8e7c:	e59f1030 	ldr	r1, [pc, #48]	; 8eb4 <uart_init+0xa8>
    8e80:	e59f0030 	ldr	r0, [pc, #48]	; 8eb8 <uart_init+0xac>
    8e84:	ebffffc5 	bl	8da0 <put32>
    8e88:	e3a01003 	mov	r1, #3
    8e8c:	e1a00004 	mov	r0, r4
    8e90:	ebffffc2 	bl	8da0 <put32>
    8e94:	ebffffbb 	bl	8d88 <dev_barrier>
    8e98:	e8bd8010 	pop	{r4, pc}
    8e9c:	20215004 	eorcs	r5, r1, r4
    8ea0:	20215060 	eorcs	r5, r1, r0, rrx
    8ea4:	20215044 	eorcs	r5, r1, r4, asr #32
    8ea8:	2021504c 	eorcs	r5, r1, ip, asr #32
    8eac:	20215050 	eorcs	r5, r1, r0, asr r0
    8eb0:	20215048 	eorcs	r5, r1, r8, asr #32
    8eb4:	0000010e 	andeq	r0, r0, lr, lsl #2
    8eb8:	20215068 	eorcs	r5, r1, r8, rrx

00008ebc <uart_can_getc>:
    8ebc:	e92d4010 	push	{r4, lr}
    8ec0:	e59f0008 	ldr	r0, [pc, #8]	; 8ed0 <uart_can_getc+0x14>
    8ec4:	ebffffc1 	bl	8dd0 <get32>
    8ec8:	e2000001 	and	r0, r0, #1
    8ecc:	e8bd8010 	pop	{r4, pc}
    8ed0:	20215064 	eorcs	r5, r1, r4, rrx

00008ed4 <uart_can_putc>:
    8ed4:	e92d4010 	push	{r4, lr}
    8ed8:	e59f0010 	ldr	r0, [pc, #16]	; 8ef0 <uart_can_putc+0x1c>
    8edc:	ebffffbb 	bl	8dd0 <get32>
    8ee0:	e3100002 	tst	r0, #2
    8ee4:	13a00001 	movne	r0, #1
    8ee8:	03a00000 	moveq	r0, #0
    8eec:	e8bd8010 	pop	{r4, pc}
    8ef0:	20215064 	eorcs	r5, r1, r4, rrx

00008ef4 <uart_getc>:
    8ef4:	e92d4010 	push	{r4, lr}
    8ef8:	ebffffa2 	bl	8d88 <dev_barrier>
    8efc:	ebffffee 	bl	8ebc <uart_can_getc>
    8f00:	e3500000 	cmp	r0, #0
    8f04:	0afffffc 	beq	8efc <uart_getc+0x8>
    8f08:	e59f0010 	ldr	r0, [pc, #16]	; 8f20 <uart_getc+0x2c>
    8f0c:	ebffffaf 	bl	8dd0 <get32>
    8f10:	e6ef4070 	uxtb	r4, r0
    8f14:	ebffff9b 	bl	8d88 <dev_barrier>
    8f18:	e1a00004 	mov	r0, r4
    8f1c:	e8bd8010 	pop	{r4, pc}
    8f20:	20215040 	eorcs	r5, r1, r0, asr #32

00008f24 <uart_putc>:
    8f24:	e92d4010 	push	{r4, lr}
    8f28:	e1a04000 	mov	r4, r0
    8f2c:	ebffff95 	bl	8d88 <dev_barrier>
    8f30:	ebffffe7 	bl	8ed4 <uart_can_putc>
    8f34:	e3500000 	cmp	r0, #0
    8f38:	0afffffc 	beq	8f30 <uart_putc+0xc>
    8f3c:	e6ef1074 	uxtb	r1, r4
    8f40:	e59f0008 	ldr	r0, [pc, #8]	; 8f50 <uart_putc+0x2c>
    8f44:	ebffff95 	bl	8da0 <put32>
    8f48:	ebffff8e 	bl	8d88 <dev_barrier>
    8f4c:	e8bd8010 	pop	{r4, pc}
    8f50:	20215040 	eorcs	r5, r1, r0, asr #32

00008f54 <uart_has_data>:
    8f54:	e92d4010 	push	{r4, lr}
    8f58:	ebffff8a 	bl	8d88 <dev_barrier>
    8f5c:	ebffffd6 	bl	8ebc <uart_can_getc>
    8f60:	e8bd8010 	pop	{r4, pc}

00008f64 <gpio_set_function>:
    8f64:	e350001f 	cmp	r0, #31
    8f68:	812fff1e 	bxhi	lr
    8f6c:	e3d13007 	bics	r3, r1, #7
    8f70:	112fff1e 	bxne	lr
    8f74:	e92d4070 	push	{r4, r5, r6, lr}
    8f78:	e1a05001 	mov	r5, r1
    8f7c:	e59f3044 	ldr	r3, [pc, #68]	; 8fc8 <gpio_set_function+0x64>
    8f80:	e0832093 	umull	r2, r3, r3, r0
    8f84:	e1a031a3 	lsr	r3, r3, #3
    8f88:	e1a06003 	mov	r6, r3
    8f8c:	e0833103 	add	r3, r3, r3, lsl #2
    8f90:	e1a02083 	lsl	r2, r3, #1
    8f94:	e0403002 	sub	r3, r0, r2
    8f98:	e0834083 	add	r4, r3, r3, lsl #1
    8f9c:	e2866302 	add	r6, r6, #134217728	; 0x8000000
    8fa0:	e2866702 	add	r6, r6, #524288	; 0x80000
    8fa4:	e1a06106 	lsl	r6, r6, #2
    8fa8:	e1a00006 	mov	r0, r6
    8fac:	ebffff89 	bl	8dd8 <GET32>
    8fb0:	e3a01007 	mov	r1, #7
    8fb4:	e1c01411 	bic	r1, r0, r1, lsl r4
    8fb8:	e1811415 	orr	r1, r1, r5, lsl r4
    8fbc:	e1a00006 	mov	r0, r6
    8fc0:	ebffff78 	bl	8da8 <PUT32>
    8fc4:	e8bd8070 	pop	{r4, r5, r6, pc}
    8fc8:	cccccccd 	stclgt	12, cr12, [ip], {205}	; 0xcd

00008fcc <gpio_set_output>:
    8fcc:	e92d4010 	push	{r4, lr}
    8fd0:	e3a01001 	mov	r1, #1
    8fd4:	ebffffe2 	bl	8f64 <gpio_set_function>
    8fd8:	e8bd8010 	pop	{r4, pc}

00008fdc <gpio_set_on>:
    8fdc:	e350001f 	cmp	r0, #31
    8fe0:	812fff1e 	bxhi	lr
    8fe4:	e92d4010 	push	{r4, lr}
    8fe8:	e3a01001 	mov	r1, #1
    8fec:	e1a01011 	lsl	r1, r1, r0
    8ff0:	e59f0004 	ldr	r0, [pc, #4]	; 8ffc <gpio_set_on+0x20>
    8ff4:	ebffff6b 	bl	8da8 <PUT32>
    8ff8:	e8bd8010 	pop	{r4, pc}
    8ffc:	2020001c 	eorcs	r0, r0, ip, lsl r0

00009000 <gpio_set_off>:
    9000:	e350001f 	cmp	r0, #31
    9004:	812fff1e 	bxhi	lr
    9008:	e92d4010 	push	{r4, lr}
    900c:	e3a01001 	mov	r1, #1
    9010:	e1a01011 	lsl	r1, r1, r0
    9014:	e59f0004 	ldr	r0, [pc, #4]	; 9020 <gpio_set_off+0x20>
    9018:	ebffff62 	bl	8da8 <PUT32>
    901c:	e8bd8010 	pop	{r4, pc}
    9020:	20200028 	eorcs	r0, r0, r8, lsr #32

00009024 <gpio_set_input>:
    9024:	e92d4010 	push	{r4, lr}
    9028:	e3a01000 	mov	r1, #0
    902c:	ebffffcc 	bl	8f64 <gpio_set_function>
    9030:	e8bd8010 	pop	{r4, pc}

00009034 <gpio_write>:
    9034:	e92d4010 	push	{r4, lr}
    9038:	e3510000 	cmp	r1, #0
    903c:	1a000001 	bne	9048 <gpio_write+0x14>
    9040:	ebffffee 	bl	9000 <gpio_set_off>
    9044:	e8bd8010 	pop	{r4, pc}
    9048:	ebffffe3 	bl	8fdc <gpio_set_on>
    904c:	e8bd8010 	pop	{r4, pc}

00009050 <gpio_read>:
    9050:	e350001f 	cmp	r0, #31
    9054:	8a000007 	bhi	9078 <gpio_read+0x28>
    9058:	e92d4010 	push	{r4, lr}
    905c:	e200401f 	and	r4, r0, #31
    9060:	e59f3018 	ldr	r3, [pc, #24]	; 9080 <gpio_read+0x30>
    9064:	e08302a0 	add	r0, r3, r0, lsr #5
    9068:	ebffff5a 	bl	8dd8 <GET32>
    906c:	e1a00430 	lsr	r0, r0, r4
    9070:	e2000001 	and	r0, r0, #1
    9074:	e8bd8010 	pop	{r4, pc}
    9078:	e3e00000 	mvn	r0, #0
    907c:	e12fff1e 	bx	lr
    9080:	20200034 	eorcs	r0, r0, r4, lsr r0

00009084 <internal_putchar>:
#include "rpi.h"

static int internal_putchar(int c) { uart_putc(c); return c; }
    9084:	e92d4010 	push	{r4, lr}
    9088:	e1a04000 	mov	r4, r0
    908c:	ebffffa4 	bl	8f24 <uart_putc>
    9090:	e1a00004 	mov	r0, r4
    9094:	e8bd8010 	pop	{r4, pc}

00009098 <rpi_reset_putc>:

// override this is going through the network.
int (*rpi_putchar)(int c) = internal_putchar;

void rpi_reset_putc(void) {
    rpi_putchar = internal_putchar;
    9098:	e59f2008 	ldr	r2, [pc, #8]	; 90a8 <rpi_reset_putc+0x10>
    909c:	e59f3008 	ldr	r3, [pc, #8]	; 90ac <rpi_reset_putc+0x14>
    90a0:	e5832000 	str	r2, [r3]
    90a4:	e12fff1e 	bx	lr
    90a8:	00009084 	andeq	r9, r0, r4, lsl #1
    90ac:	000090c4 	andeq	r9, r0, r4, asr #1

000090b0 <rpi_set_putc>:
}
void rpi_set_putc(int (*fp)(int)) {
    rpi_putchar = fp;
    90b0:	e59f3004 	ldr	r3, [pc, #4]	; 90bc <rpi_set_putc+0xc>
    90b4:	e5830000 	str	r0, [r3]
    90b8:	e12fff1e 	bx	lr
    90bc:	000090c4 	andeq	r9, r0, r4, asr #1

Disassembly of section .data:

000090c0 <__data_start__>:
    90c0:	00008440 	andeq	r8, r0, r0, asr #8

000090c4 <rpi_putchar>:
    90c4:	00009084 	andeq	r9, r0, r4, lsl #1

Disassembly of section .rodata:

000090c8 <__FUNCTION__.4262-0x26c>:
    90c8:	756f6261 	strbvc	r6, [pc, #-609]!	; 8e6f <uart_init+0x63>
    90cc:	6f742074 	svcvs	0x00742074
    90d0:	736e6920 	cmnvc	lr, #32, 18	; 0x80000
    90d4:	6c6c6174 	stfvse	f6, [ip], #-464	; 0xfffffe30
    90d8:	6e616820 	cdpvs	8, 6, cr6, cr1, cr0, {1}
    90dc:	72656c64 	rsbvc	r6, r5, #100, 24	; 0x6400
    90e0:	00000a73 	andeq	r0, r0, r3, ror sl
    90e4:	74746573 	ldrbtvc	r6, [r4], #-1395	; 0x573
    90e8:	20676e69 	rsbcs	r6, r7, r9, ror #28
    90ec:	74207075 	strtvc	r7, [r0], #-117	; 0x75
    90f0:	72656d69 	rsbvc	r6, r5, #6720	; 0x1a40
    90f4:	746e6920 	strbtvc	r6, [lr], #-2336	; 0x920
    90f8:	75727265 	ldrbvc	r7, [r2, #-613]!	; 0x265
    90fc:	0a737470 	beq	1ce62c4 <__bss_end__+0x1cdc754>
    9100:	00000000 	andeq	r0, r0, r0
    9104:	6e6e6f67 	cdpvs	15, 6, cr6, cr14, cr7, {3}
    9108:	6e652061 	cdpvs	0, 6, cr2, cr5, cr1, {3}
    910c:	656c6261 	strbvs	r6, [ip, #-609]!	; 0x261
    9110:	746e6920 	strbtvc	r6, [lr], #-2336	; 0x920
    9114:	6c672073 	stclvs	0, cr2, [r7], #-460	; 0xfffffe34
    9118:	6c61626f 	sfmvs	f6, 2, [r1], #-444	; 0xfffffe44
    911c:	0a21796c 	beq	8676d4 <__bss_end__+0x85db64>
    9120:	00000000 	andeq	r0, r0, r0
    9124:	62616e65 	rsbvs	r6, r1, #1616	; 0x650
    9128:	2164656c 	cmncs	r4, ip, ror #10
    912c:	0000000a 	andeq	r0, r0, sl
    9130:	72657469 	rsbvc	r7, r5, #1761607680	; 0x69000000
    9134:	3a64253d 	bcc	1912630 <__bss_end__+0x1908ac0>
    9138:	746e6320 	strbtvc	r6, [lr], #-800	; 0x320
    913c:	25203d20 	strcs	r3, [r0, #-3360]!	; 0xd20
    9140:	74202c64 	strtvc	r2, [r0], #-3172	; 0xc64
    9144:	20656d69 	rsbcs	r6, r5, r9, ror #26
    9148:	77746562 	ldrbvc	r6, [r4, -r2, ror #10]!
    914c:	206e6565 	rsbcs	r6, lr, r5, ror #10
    9150:	65746e69 	ldrbvs	r6, [r4, #-3689]!	; 0xe69
    9154:	70757272 	rsbsvc	r7, r5, r2, ror r2
    9158:	3d207374 	stccc	3, cr7, [r0, #-464]!	; 0xfffffe30
    915c:	20642520 	rsbcs	r2, r4, r0, lsr #10
    9160:	63657375 	cmnvs	r5, #-738197503	; 0xd4000001
    9164:	78252820 	stmdavc	r5!, {r5, fp, sp}
    9168:	00000a29 	andeq	r0, r0, r9, lsr #20
    916c:	2d2d2d2d 	stccs	13, cr2, [sp, #-180]!	; 0xffffff4c
    9170:	2d2d2d2d 	stccs	13, cr2, [sp, #-180]!	; 0xffffff4c
    9174:	2d2d2d2d 	stccs	13, cr2, [sp, #-180]!	; 0xffffff4c
    9178:	2d2d2d2d 	stccs	13, cr2, [sp, #-180]!	; 0xffffff4c
    917c:	2d2d2d2d 	stccs	13, cr2, [sp, #-180]!	; 0xffffff4c
    9180:	2d2d2d2d 	stccs	13, cr2, [sp, #-180]!	; 0xffffff4c
    9184:	2d2d2d2d 	stccs	13, cr2, [sp, #-180]!	; 0xffffff4c
    9188:	2d2d2d2d 	stccs	13, cr2, [sp, #-180]!	; 0xffffff4c
    918c:	2d2d2d2d 	stccs	13, cr2, [sp, #-180]!	; 0xffffff4c
    9190:	2d2d2d2d 	stccs	13, cr2, [sp, #-180]!	; 0xffffff4c
    9194:	00000a2d 	andeq	r0, r0, sp, lsr #20
    9198:	6d6d7573 	cfstr64vs	mvdx7, [sp, #-460]!	; 0xfffffe34
    919c:	3a797261 	bcc	1e65b28 <__bss_end__+0x1e5bfb8>
    91a0:	0000000a 	andeq	r0, r0, sl
    91a4:	30312509 	eorscc	r2, r1, r9, lsl #10
    91a8:	74203a64 	strtvc	r3, [r0], #-2660	; 0xa64
    91ac:	6c61746f 	cfstrdvs	mvd7, [r1], #-444	; 0xfffffe44
    91b0:	65746920 	ldrbvs	r6, [r4, #-2336]!	; 0x920
    91b4:	69746172 	ldmdbvs	r4!, {r1, r4, r5, r6, r8, sp, lr}^
    91b8:	0a736e6f 	beq	1ce4b7c <__bss_end__+0x1cdb00c>
    91bc:	00000000 	andeq	r0, r0, r0
    91c0:	30312509 	eorscc	r2, r1, r9, lsl #10
    91c4:	74203a64 	strtvc	r3, [r0], #-2660	; 0xa64
    91c8:	6920746f 	stmdbvs	r0!, {r0, r1, r2, r3, r5, r6, sl, ip, sp, lr}
    91cc:	7265746e 	rsbvc	r7, r5, #1845493760	; 0x6e000000
    91d0:	74707572 	ldrbtvc	r7, [r0], #-1394	; 0x572
    91d4:	00000a73 	andeq	r0, r0, r3, ror sl
    91d8:	30312509 	eorscc	r2, r1, r9, lsl #10
    91dc:	69203a64 	stmdbvs	r0!, {r2, r5, r6, r9, fp, ip, sp}
    91e0:	61726574 	cmnvs	r2, r4, ror r5
    91e4:	6e6f6974 	mcrvs	9, 3, r6, cr15, cr4, {3}
    91e8:	202f2073 	eorcs	r2, pc, r3, ror r0	; <UNPREDICTABLE>
    91ec:	65746e69 	ldrbvs	r6, [r4, #-3689]!	; 0xe69
    91f0:	70757272 	rsbsvc	r7, r5, r2, ror r2
    91f4:	00000a74 	andeq	r0, r0, r4, ror sl
    91f8:	30312509 	eorscc	r2, r1, r9, lsl #10
    91fc:	61203a64 	teqvs	r0, r4, ror #20
    9200:	61726576 	cmnvs	r2, r6, ror r5
    9204:	70206567 	eorvc	r6, r0, r7, ror #10
    9208:	6f697265 	svcvs	0x00697265
    920c:	000a0a64 	andeq	r0, sl, r4, ror #20
    9210:	61746f74 	cmnvs	r4, r4, ror pc
    9214:	7865206c 	stmdavc	r5!, {r2, r3, r5, r6, sp}^
    9218:	74756365 	ldrbtvc	r6, [r5], #-869	; 0x365
    921c:	206e6f69 	rsbcs	r6, lr, r9, ror #30
    9220:	656d6974 	strbvs	r6, [sp, #-2420]!	; 0x974
    9224:	6425203a 	strtvs	r2, [r5], #-58	; 0x3a
    9228:	2e636573 	mcrcs	5, 3, r6, cr3, cr3, {3}
    922c:	736d6425 	cmnvc	sp, #620756992	; 0x25000000
    9230:	7564252e 	strbvc	r2, [r4, #-1326]!	; 0x52e
    9234:	0a636573 	beq	18e2808 <__bss_end__+0x18d8c98>
    9238:	00000000 	andeq	r0, r0, r0
    923c:	61656d0a 	cmnvs	r5, sl, lsl #26
    9240:	69727573 	ldmdbvs	r2!, {r0, r1, r4, r5, r6, r8, sl, ip, sp, lr}^
    9244:	6320676e 	teqvs	r0, #28835840	; 0x1b80000
    9248:	2074736f 	rsbscs	r7, r4, pc, ror #6
    924c:	6420666f 	strtvs	r6, [r0], #-1647	; 0x66f
    9250:	65666669 	strbvs	r6, [r6, #-1641]!	; 0x669
    9254:	746e6572 	strbtvc	r6, [lr], #-1394	; 0x572
    9258:	65706f20 	ldrbvs	r6, [r0, #-3872]!	; 0xf20
    925c:	69746172 	ldmdbvs	r4!, {r1, r4, r5, r6, r8, sp, lr}^
    9260:	20736e6f 	rsbscs	r6, r3, pc, ror #28
    9264:	20697028 	rsbcs	r7, r9, r8, lsr #32
    9268:	3d202b41 	fstmdbxcc	r0!, {d2-d33}	;@ Deprecated
    926c:	30303720 	eorscc	r3, r0, r0, lsr #14
    9270:	63796320 	cmnvs	r9, #32, 6	; 0x80000000
    9274:	75202f20 	strvc	r2, [r0, #-3872]!	; 0xf20
    9278:	29636573 	stmdbcs	r3!, {r0, r1, r4, r5, r6, r8, sl, sp, lr}^
    927c:	0000000a 	andeq	r0, r0, sl
    9280:	203a7325 	eorscs	r7, sl, r5, lsr #6
    9284:	63206425 	teqvs	r0, #620756992	; 0x25000000
    9288:	656c6379 	strbvs	r6, [ip, #-889]!	; 0x379
    928c:	253c2073 	ldrcs	r2, [ip, #-115]!	; 0x73
    9290:	000a3e73 	andeq	r3, sl, r3, ror lr
    9294:	61657209 	cmnvs	r5, r9, lsl #4
    9298:	72772f64 	rsbsvc	r2, r7, #100, 30	; 0x190
    929c:	20657469 	rsbcs	r7, r5, r9, ror #8
    92a0:	72726162 	rsbsvc	r6, r2, #-2147483624	; 0x80000018
    92a4:	00726569 	rsbseq	r6, r2, r9, ror #10
    92a8:	5f766564 	svcpl	0x00766564
    92ac:	72726162 	rsbsvc	r6, r2, #-2147483624	; 0x80000018
    92b0:	28726569 	ldmdacs	r2!, {r0, r3, r5, r6, r8, sl, sp, lr}^
    92b4:	00000029 	andeq	r0, r0, r9, lsr #32
    92b8:	61657209 	cmnvs	r5, r9, lsl #4
    92bc:	61622064 	cmnvs	r2, r4, rrx
    92c0:	65697272 	strbvs	r7, [r9, #-626]!	; 0x272
    92c4:	00000072 	andeq	r0, r0, r2, ror r0
    92c8:	28626d64 	stmdacs	r2!, {r2, r5, r6, r8, sl, fp, sp, lr}^
    92cc:	00000029 	andeq	r0, r0, r9, lsr #32
    92d0:	66617309 	strbtvs	r7, [r1], -r9, lsl #6
    92d4:	69742065 	ldmdbvs	r4!, {r0, r2, r5, r6, sp}^
    92d8:	0072656d 	rsbseq	r6, r2, sp, ror #10
    92dc:	656d6974 	strbvs	r6, [sp, #-2420]!	; 0x974
    92e0:	65675f72 	strbvs	r5, [r7, #-3954]!	; 0xf72
    92e4:	73755f74 	cmnvc	r5, #116, 30	; 0x1d0
    92e8:	29286365 	stmdbcs	r8!, {r0, r2, r5, r6, r8, r9, sp, lr}
    92ec:	00000000 	andeq	r0, r0, r0
    92f0:	736e7509 	cmnvc	lr, #37748736	; 0x2400000
    92f4:	20656661 	rsbcs	r6, r5, r1, ror #12
    92f8:	656d6974 	strbvs	r6, [sp, #-2420]!	; 0x974
    92fc:	00000072 	andeq	r0, r0, r2, ror r0
    9300:	656d6974 	strbvs	r6, [sp, #-2420]!	; 0x974
    9304:	65675f72 	strbvs	r5, [r7, #-3954]!	; 0xf72
    9308:	73755f74 	cmnvc	r5, #116, 30	; 0x1d0
    930c:	725f6365 	subsvc	r6, pc, #-1811939327	; 0x94000001
    9310:	29287761 	stmdbcs	r8!, {r0, r5, r6, r8, r9, sl, ip, sp, lr}
    9314:	00000000 	andeq	r0, r0, r0
    9318:	79633c09 	stmdbvc	r3!, {r0, r3, sl, fp, ip, sp}^
    931c:	5f656c63 	svcpl	0x00656c63
    9320:	5f746e63 	svcpl	0x00746e63
    9324:	64616572 	strbtvs	r6, [r1], #-1394	; 0x572
    9328:	3a3e2928 	bcc	f937d0 <__bss_end__+0xf89c60>
    932c:	0a642520 	beq	19127b4 <__bss_end__+0x1908c44>
    9330:	00000000 	andeq	r0, r0, r0

00009334 <__FUNCTION__.4262>:
    9334:	656d6974 	strbvs	r6, [sp, #-2420]!	; 0x974
    9338:	68635f72 	stmdavs	r3!, {r1, r4, r5, r6, r8, r9, sl, fp, ip, lr}^
    933c:	5f6b6365 	svcpl	0x006b6365
    9340:	7366666f 	cmnvc	r6, #116391936	; 0x6f00000
    9344:	00737465 	rsbseq	r7, r3, r5, ror #8
    9348:	494e4150 	stmdbmi	lr, {r4, r6, r8, lr}^
    934c:	73253a43 	teqvc	r5, #274432	; 0x43000
    9350:	3a73253a 	bcc	1cd2840 <__bss_end__+0x1cc8cd0>
    9354:	6f3a6425 	svcvs	0x003a6425
    9358:	65736666 	ldrbvs	r6, [r3, #-1638]!	; 0x666
    935c:	72772074 	rsbsvc	r2, r7, #116	; 0x74
    9360:	3a676e6f 	bcc	19e4d24 <__bss_end__+0x19db1b4>
    9364:	70786520 	rsbsvc	r6, r8, r0, lsr #10
    9368:	20746365 	rsbscs	r6, r4, r5, ror #6
    936c:	67207825 	strvs	r7, [r0, -r5, lsr #16]!
    9370:	2520746f 	strcs	r7, [r0, #-1135]!	; 0x46f
    9374:	73252078 	teqvc	r5, #120	; 0x78
    9378:	666f5b20 	strbtvs	r5, [pc], -r0, lsr #22
    937c:	64253d66 	strtvs	r3, [r5], #-3430	; 0xd66
    9380:	69626e2c 	stmdbvs	r2!, {r2, r3, r5, r9, sl, fp, sp, lr}^
    9384:	253d7374 	ldrcs	r7, [sp, #-884]!	; 0x374
    9388:	0a0a5d64 	beq	2a0920 <__bss_end__+0x296db0>
    938c:	00000000 	andeq	r0, r0, r0
    9390:	656d6974 	strbvs	r6, [sp, #-2420]!	; 0x974
    9394:	6e692d72 	mcrvs	13, 3, r2, cr9, cr2, {3}
    9398:	72726574 	rsbsvc	r6, r2, #116, 10	; 0x1d000000
    939c:	2e747075 	mrccs	0, 3, r7, cr4, cr5, {3}
    93a0:	00000063 	andeq	r0, r0, r3, rrx
    93a4:	5f657375 	svcpl	0x00657375
    93a8:	69623233 	stmdbvs	r2!, {r0, r1, r4, r5, r9, ip, sp}^
    93ac:	6f635f74 	svcvs	0x00635f74
    93b0:	65746e75 	ldrbvs	r6, [r4, #-3701]!	; 0xe75
    93b4:	00000072 	andeq	r0, r0, r2, ror r0
    93b8:	494e4150 	stmdbmi	lr, {r4, r6, r8, lr}^
    93bc:	73253a43 	teqvc	r5, #274432	; 0x43000
    93c0:	3a73253a 	bcc	1cd28b0 <__bss_end__+0x1cc8d40>
    93c4:	253a6425 	ldrcs	r6, [sl, #-1061]!	; 0x425
    93c8:	00000a73 	andeq	r0, r0, r3, ror sl
    93cc:	20752e78 	rsbscs	r2, r5, r8, ror lr
    93d0:	65203d3d 	strvs	r3, [r0, #-3389]!	; 0xd3d
    93d4:	00007078 	andeq	r7, r0, r8, ror r0
    93d8:	494e4150 	stmdbmi	lr, {r4, r6, r8, lr}^
    93dc:	73253a43 	teqvc	r5, #274432	; 0x43000
    93e0:	3a73253a 	bcc	1cd28d0 <__bss_end__+0x1cc8d60>
    93e4:	773a6425 	ldrvc	r6, [sl, -r5, lsr #8]!
    93e8:	68746469 	ldmdavs	r4!, {r0, r3, r5, r6, sl, sp, lr}^
    93ec:	6f727720 	svcvs	0x00727720
    93f0:	203a676e 	eorscs	r6, sl, lr, ror #14
    93f4:	65707865 	ldrbvs	r7, [r0, #-2149]!	; 0x865
    93f8:	25207463 	strcs	r7, [r0, #-1123]!	; 0x463
    93fc:	6f672078 	svcvs	0x00672078
    9400:	78252074 	stmdavc	r5!, {r2, r4, r5, r6, sp}
    9404:	20732520 	rsbscs	r2, r3, r0, lsr #10
    9408:	66666f5b 	uqsaxvs	r6, r6, fp
    940c:	2c64253d 	cfstr64cs	mvdx2, [r4], #-244	; 0xffffff0c
    9410:	7469626e 	strbtvc	r6, [r9], #-622	; 0x26e
    9414:	64253d73 	strtvs	r3, [r5], #-3443	; 0xd73
    9418:	000a0a5d 	andeq	r0, sl, sp, asr sl
    941c:	5f746e69 	svcpl	0x00746e69
    9420:	62616e65 	rsbvs	r6, r1, #1616	; 0x650
    9424:	0064656c 	rsbeq	r6, r4, ip, ror #10
    9428:	656d6974 	strbvs	r6, [sp, #-2420]!	; 0x974
    942c:	6e655f72 	mcrvs	15, 3, r5, cr5, cr2, {3}
    9430:	656c6261 	strbvs	r6, [ip, #-609]!	; 0x261
    9434:	00000064 	andeq	r0, r0, r4, rrx
    9438:	6e756f63 	cdpvs	15, 7, cr6, cr5, cr3, {3}
    943c:	5f726574 	svcpl	0x00726574
    9440:	62616e65 	rsbvs	r6, r1, #1616	; 0x650
    9444:	0064656c 	rsbeq	r6, r4, ip, ror #10
    9448:	6e756f63 	cdpvs	15, 7, cr6, cr5, cr3, {3}
    944c:	5f726574 	svcpl	0x00726574
    9450:	73657270 	cmnvc	r5, #112, 4
    9454:	656c6163 	strbvs	r6, [ip, #-355]!	; 0x163
    9458:	00000072 	andeq	r0, r0, r2, ror r0
    945c:	7366666f 	cmnvc	r6, #116391936	; 0x6f00000
    9460:	20737465 	rsbscs	r7, r3, r5, ror #8
    9464:	63656863 	cmnvs	r5, #6488064	; 0x630000
    9468:	2064656b 	rsbcs	r6, r4, fp, ror #10
    946c:	2174756f 	cmncs	r4, pc, ror #10
    9470:	0000000a 	andeq	r0, r0, sl

00009474 <__FUNCTION__.4249>:
    9474:	74696d65 	strbtvc	r6, [r9], #-3429	; 0xd65
    9478:	00000000 	andeq	r0, r0, r0

0000947c <__FUNCTION__.4197>:
    947c:	5f697072 	svcpl	0x00697072
    9480:	5f746573 	svcpl	0x00746573
    9484:	7074756f 	rsbsvc	r7, r4, pc, ror #10
    9488:	00007475 	andeq	r7, r0, r5, ror r4

0000948c <__FUNCTION__.4272>:
    948c:	705f6176 	subsvc	r6, pc, r6, ror r1	; <UNPREDICTABLE>
    9490:	746e6972 	strbtvc	r6, [lr], #-2418	; 0x972
    9494:	0000006b 	andeq	r0, r0, fp, rrx
    9498:	6362696c 	cmnvs	r2, #108, 18	; 0x1b0000
    949c:	2d61762f 	stclcs	6, cr7, [r1, #-188]!	; 0xffffff44
    94a0:	6e697270 	mcrvs	2, 3, r7, cr9, cr0, {3}
    94a4:	632e6b74 	teqvs	lr, #116, 22	; 0x1d000
    94a8:	00000000 	andeq	r0, r0, r0
    94ac:	00000030 	andeq	r0, r0, r0, lsr r0
    94b0:	33323130 	teqcc	r2, #48, 2
    94b4:	37363534 			; <UNDEFINED> instruction: 0x37363534
    94b8:	00003938 	andeq	r3, r0, r8, lsr r9
    94bc:	33323130 	teqcc	r2, #48, 2
    94c0:	37363534 			; <UNDEFINED> instruction: 0x37363534
    94c4:	62613938 	rsbvs	r3, r1, #56, 18	; 0xe0000
    94c8:	66656463 	strbtvs	r6, [r5], -r3, ror #8
    94cc:	00000000 	andeq	r0, r0, r0
    94d0:	00003130 	andeq	r3, r0, r0, lsr r1
    94d4:	63747570 	cmnvs	r4, #112, 10	; 0x1c000000
    94d8:	0070665f 	rsbseq	r6, r0, pc, asr r6
    94dc:	74646977 	strbtvc	r6, [r4], #-2423	; 0x977
    94e0:	203c2068 	eorscs	r2, ip, r8, rrx
    94e4:	00003233 	andeq	r3, r0, r3, lsr r2
    94e8:	494e4150 	stmdbmi	lr, {r4, r6, r8, lr}^
    94ec:	73253a43 	teqvc	r5, #274432	; 0x43000
    94f0:	3a73253a 	bcc	1cd29e0 <__bss_end__+0x1cc8e70>
    94f4:	663a6425 	ldrtvs	r6, [sl], -r5, lsr #8
    94f8:	74616f6c 	strbtvc	r6, [r1], #-3948	; 0xf6c
    94fc:	746f6e20 	strbtvc	r6, [pc], #-3616	; 9504 <__FUNCTION__.4272+0x78>
    9500:	616e6520 	cmnvs	lr, r0, lsr #10
    9504:	64656c62 	strbtvs	r6, [r5], #-3170	; 0xc62
    9508:	0a212121 	beq	851994 <__bss_end__+0x847e24>
    950c:	00000000 	andeq	r0, r0, r0
    9510:	6e697270 	mcrvs	2, 3, r7, cr9, cr0, {3}
    9514:	203a6b74 	eorscs	r6, sl, r4, ror fp
    9518:	20746f6e 	rsbscs	r6, r4, lr, ror #30
    951c:	646e6168 	strbtvs	r6, [lr], #-360	; 0x168
    9520:	676e696c 	strbvs	r6, [lr, -ip, ror #18]!
    9524:	65707320 	ldrbvs	r7, [r0, #-800]!	; 0x320
    9528:	69666963 	stmdbvs	r6!, {r0, r1, r5, r6, r8, fp, sp, lr}^
    952c:	27207265 	strcs	r7, [r0, -r5, ror #4]!
    9530:	20276325 	eorcs	r6, r7, r5, lsr #6
    9534:	63736128 	cmnvs	r3, #40, 2
    9538:	253d6969 	ldrcs	r6, [sp, #-2409]!	; 0x969
    953c:	000a2964 	andeq	r2, sl, r4, ror #18
    9540:	494e4150 	stmdbmi	lr, {r4, r6, r8, lr}^
    9544:	73253a43 	teqvc	r5, #274432	; 0x43000
    9548:	3a73253a 	bcc	1cd2a38 <__bss_end__+0x1cc8ec8>
    954c:	703a6425 	eorsvc	r6, sl, r5, lsr #8
    9550:	746e6972 	strbtvc	r6, [lr], #-2418	; 0x972
    9554:	7265206b 	rsbvc	r2, r5, #107	; 0x6b
    9558:	0a726f72 	beq	1ca5328 <__bss_end__+0x1c9b7b8>
    955c:	0000000a 	andeq	r0, r0, sl
    9560:	454e4f44 	strbmi	r4, [lr, #-3908]	; 0xf44
    9564:	0a212121 	beq	8519f0 <__bss_end__+0x847e80>
    9568:	00000000 	andeq	r0, r0, r0

0000956c <__FUNCTION__.4220>:
    956c:	61746164 	cmnvs	r4, r4, ror #2
    9570:	6f62615f 	svcvs	0x0062615f
    9574:	765f7472 			; <UNDEFINED> instruction: 0x765f7472
    9578:	6f746365 	svcvs	0x00746365
    957c:	00000072 	andeq	r0, r0, r2, ror r0
    9580:	494e4150 	stmdbmi	lr, {r4, r6, r8, lr}^
    9584:	73253a43 	teqvc	r5, #274432	; 0x43000
    9588:	3a73253a 	bcc	1cd2a78 <__bss_end__+0x1cc8f08>
    958c:	453a6425 	ldrmi	r6, [sl, #-1061]!	; 0x425
    9590:	524f5252 	subpl	r5, pc, #536870917	; 0x20000005
    9594:	6e75203a 	mrcvs	0, 3, r2, cr5, cr10, {1}
    9598:	646e6168 	strbtvs	r6, [lr], #-360	; 0x168
    959c:	2064656c 	rsbcs	r6, r4, ip, ror #10
    95a0:	65637865 	strbvs	r7, [r3, #-2149]!	; 0x865
    95a4:	6f697470 	svcvs	0x00697470
    95a8:	253c206e 	ldrcs	r2, [ip, #-110]!	; 0x6e
    95ac:	61203e73 	teqvs	r0, r3, ror lr
    95b0:	43502074 	cmpmi	r0, #116	; 0x74
    95b4:	0a78253d 	beq	1e12ab0 <__bss_end__+0x1e08f40>
    95b8:	0000000a 	andeq	r0, r0, sl
    95bc:	66617473 			; <UNDEFINED> instruction: 0x66617473
    95c0:	72732d66 	rsbsvc	r2, r3, #6528	; 0x1980
    95c4:	65642f63 	strbvs	r2, [r4, #-3939]!	; 0xf63
    95c8:	6c756166 	ldfvse	f6, [r5], #-408	; 0xfffffe68
    95cc:	61682d74 	smcvs	33492	; 0x82d4
    95d0:	656c646e 	strbvs	r6, [ip, #-1134]!	; 0x46e
    95d4:	61642d72 	smcvs	17106	; 0x42d2
    95d8:	612d6174 	teqvs	sp, r4, ror r1
    95dc:	74726f62 	ldrbtvc	r6, [r2], #-3938	; 0xf62
    95e0:	0000632e 	andeq	r6, r0, lr, lsr #6
    95e4:	61746164 	cmnvs	r4, r4, ror #2
    95e8:	6f626120 	svcvs	0x00626120
    95ec:	00007472 	andeq	r7, r0, r2, ror r4

000095f0 <__FUNCTION__.4220>:
    95f0:	74736166 	ldrbtvc	r6, [r3], #-358	; 0x166
    95f4:	746e695f 	strbtvc	r6, [lr], #-2399	; 0x95f
    95f8:	75727265 	ldrbvc	r7, [r2, #-613]!	; 0x265
    95fc:	765f7470 			; <UNDEFINED> instruction: 0x765f7470
    9600:	6f746365 	svcvs	0x00746365
    9604:	00000072 	andeq	r0, r0, r2, ror r0
    9608:	66617473 			; <UNDEFINED> instruction: 0x66617473
    960c:	72732d66 	rsbsvc	r2, r3, #6528	; 0x1980
    9610:	65642f63 	strbvs	r2, [r4, #-3939]!	; 0xf63
    9614:	6c756166 	ldfvse	f6, [r5], #-408	; 0xfffffe68
    9618:	61682d74 	smcvs	33492	; 0x82d4
    961c:	656c646e 	strbvs	r6, [ip, #-1134]!	; 0x46e
    9620:	61662d72 	smcvs	25298	; 0x62d2
    9624:	632e7473 	teqvs	lr, #1929379840	; 0x73000000
    9628:	00000000 	andeq	r0, r0, r0
    962c:	74736166 	ldrbtvc	r6, [r3], #-358	; 0x166
    9630:	00000000 	andeq	r0, r0, r0

00009634 <__FUNCTION__.4220>:
    9634:	66657270 			; <UNDEFINED> instruction: 0x66657270
    9638:	68637465 	stmdavs	r3!, {r0, r2, r5, r6, sl, ip, sp, lr}^
    963c:	6f62615f 	svcvs	0x0062615f
    9640:	765f7472 			; <UNDEFINED> instruction: 0x765f7472
    9644:	6f746365 	svcvs	0x00746365
    9648:	00000072 	andeq	r0, r0, r2, ror r0
    964c:	66617473 			; <UNDEFINED> instruction: 0x66617473
    9650:	72732d66 	rsbsvc	r2, r3, #6528	; 0x1980
    9654:	65642f63 	strbvs	r2, [r4, #-3939]!	; 0xf63
    9658:	6c756166 	ldfvse	f6, [r5], #-408	; 0xfffffe68
    965c:	61682d74 	smcvs	33492	; 0x82d4
    9660:	656c646e 	strbvs	r6, [ip, #-1134]!	; 0x46e
    9664:	72702d72 	rsbsvc	r2, r0, #7296	; 0x1c80
    9668:	74656665 	strbtvc	r6, [r5], #-1637	; 0x665
    966c:	632e6863 	teqvs	lr, #6488064	; 0x630000
    9670:	00000000 	andeq	r0, r0, r0
    9674:	66657270 			; <UNDEFINED> instruction: 0x66657270
    9678:	68637465 	stmdavs	r3!, {r0, r2, r5, r6, sl, ip, sp, lr}^
    967c:	6f626120 	svcvs	0x00626120
    9680:	00007472 	andeq	r7, r0, r2, ror r4

00009684 <__FUNCTION__.4220>:
    9684:	65736572 	ldrbvs	r6, [r3, #-1394]!	; 0x572
    9688:	65765f74 	ldrbvs	r5, [r6, #-3956]!	; 0xf74
    968c:	726f7463 	rsbvc	r7, pc, #1660944384	; 0x63000000
    9690:	00000000 	andeq	r0, r0, r0
    9694:	66617473 			; <UNDEFINED> instruction: 0x66617473
    9698:	72732d66 	rsbsvc	r2, r3, #6528	; 0x1980
    969c:	65642f63 	strbvs	r2, [r4, #-3939]!	; 0xf63
    96a0:	6c756166 	ldfvse	f6, [r5], #-408	; 0xfffffe68
    96a4:	61682d74 	smcvs	33492	; 0x82d4
    96a8:	656c646e 	strbvs	r6, [ip, #-1134]!	; 0x46e
    96ac:	65722d72 	ldrbvs	r2, [r2, #-3442]!	; 0xd72
    96b0:	2e746573 	mrccs	5, 3, r6, cr4, cr3, {3}
    96b4:	00000063 	andeq	r0, r0, r3, rrx
    96b8:	65736572 	ldrbvs	r6, [r3, #-1394]!	; 0x572
    96bc:	00000074 	andeq	r0, r0, r4, ror r0

000096c0 <__FUNCTION__.4220>:
    96c0:	74666f73 	strbtvc	r6, [r6], #-3955	; 0xf73
    96c4:	65726177 	ldrbvs	r6, [r2, #-375]!	; 0x177
    96c8:	746e695f 	strbtvc	r6, [lr], #-2399	; 0x95f
    96cc:	75727265 	ldrbvc	r7, [r2, #-613]!	; 0x265
    96d0:	765f7470 			; <UNDEFINED> instruction: 0x765f7470
    96d4:	6f746365 	svcvs	0x00746365
    96d8:	00000072 	andeq	r0, r0, r2, ror r0
    96dc:	66617473 			; <UNDEFINED> instruction: 0x66617473
    96e0:	72732d66 	rsbsvc	r2, r3, #6528	; 0x1980
    96e4:	65642f63 	strbvs	r2, [r4, #-3939]!	; 0xf63
    96e8:	6c756166 	ldfvse	f6, [r5], #-408	; 0xfffffe68
    96ec:	61682d74 	smcvs	33492	; 0x82d4
    96f0:	656c646e 	strbvs	r6, [ip, #-1134]!	; 0x46e
    96f4:	77732d72 			; <UNDEFINED> instruction: 0x77732d72
    96f8:	00632e69 	rsbeq	r2, r3, r9, ror #28
    96fc:	00697773 	rsbeq	r7, r9, r3, ror r7

00009700 <__FUNCTION__.4220>:
    9700:	65646e75 	strbvs	r6, [r4, #-3701]!	; 0xe75
    9704:	656e6966 	strbvs	r6, [lr, #-2406]!	; 0x966
    9708:	6e695f64 	cdpvs	15, 6, cr5, cr9, cr4, {3}
    970c:	75727473 	ldrbvc	r7, [r2, #-1139]!	; 0x473
    9710:	6f697463 	svcvs	0x00697463
    9714:	65765f6e 	ldrbvs	r5, [r6, #-3950]!	; 0xf6e
    9718:	726f7463 	rsbvc	r7, pc, #1660944384	; 0x63000000
    971c:	00000000 	andeq	r0, r0, r0
    9720:	66617473 			; <UNDEFINED> instruction: 0x66617473
    9724:	72732d66 	rsbsvc	r2, r3, #6528	; 0x1980
    9728:	65642f63 	strbvs	r2, [r4, #-3939]!	; 0xf63
    972c:	6c756166 	ldfvse	f6, [r5], #-408	; 0xfffffe68
    9730:	61682d74 	smcvs	33492	; 0x82d4
    9734:	656c646e 	strbvs	r6, [ip, #-1134]!	; 0x46e
    9738:	6e752d72 	mrcvs	13, 3, r2, cr5, cr2, {3}
    973c:	69666564 	stmdbvs	r6!, {r2, r5, r6, r8, sl, sp, lr}^
    9740:	2d64656e 	cfstr64cs	mvdx6, [r4, #-440]!	; 0xfffffe48
    9744:	74736e69 	ldrbtvc	r6, [r3], #-3689	; 0xe69
    9748:	0000632e 	andeq	r6, r0, lr, lsr #6
    974c:	65646e75 	strbvs	r6, [r4, #-3701]!	; 0xe75
    9750:	656e6966 	strbvs	r6, [lr, #-2406]!	; 0x966
    9754:	6e692064 	cdpvs	0, 6, cr2, cr9, cr4, {3}
    9758:	00007473 	andeq	r7, r0, r3, ror r4

Disassembly of section .bss:

0000975c <__bss_start__>:
    975c:	00000000 	andeq	r0, r0, r0

00009760 <last_clk.4254>:
    9760:	00000000 	andeq	r0, r0, r0

00009764 <period>:
    9764:	00000000 	andeq	r0, r0, r0

00009768 <period_sum>:
    9768:	00000000 	andeq	r0, r0, r0

0000976c <buf.4189>:
	...

Disassembly of section .ARM.attributes:

00000000 <.ARM.attributes>:
   0:	00002a41 	andeq	r2, r0, r1, asr #20
   4:	61656100 	cmnvs	r5, r0, lsl #2
   8:	01006962 	tsteq	r0, r2, ror #18
   c:	00000020 	andeq	r0, r0, r0, lsr #32
  10:	4b5a3605 	blmi	168d82c <__bss_end__+0x1683cbc>
  14:	08070600 	stmdaeq	r7, {r9, sl}
  18:	12010901 	andne	r0, r1, #16384	; 0x4000
  1c:	15011404 	strne	r1, [r1, #-1028]	; 0x404
  20:	18031701 	stmdane	r3, {r0, r8, r9, sl, ip}
  24:	22011a01 	andcs	r1, r1, #4096	; 0x1000
  28:	Address 0x0000000000000028 is out of bounds.


Disassembly of section .comment:

00000000 <.comment>:
   0:	3a434347 	bcc	10d0d24 <__bss_end__+0x10c71b4>
   4:	4e472820 	cdpmi	8, 4, cr2, cr7, cr0, {1}
   8:	34202955 	strtcc	r2, [r0], #-2389	; 0x955
   c:	332e382e 	teqcc	lr, #3014656	; 0x2e0000
  10:	43434700 	movtmi	r4, #14080	; 0x3700
  14:	3128203a 	teqcc	r8, sl, lsr r0
  18:	2e363a35 	mrccs	10, 1, r3, cr6, cr5, {1}
  1c:	2b312e33 	blcs	c4b8f0 <__bss_end__+0xc41d80>
  20:	326e7673 	rsbcc	r7, lr, #120586240	; 0x7300000
  24:	33303335 	teqcc	r0, #-738197504	; 0xd4000000
  28:	62312d39 	eorsvs	r2, r1, #3648	; 0xe40
  2c:	646c6975 	strbtvs	r6, [ip], #-2421	; 0x975
  30:	36202931 			; <UNDEFINED> instruction: 0x36202931
  34:	312e332e 	teqcc	lr, lr, lsr #6
  38:	31303220 	teqcc	r0, r0, lsr #4
  3c:	32363037 	eorscc	r3, r6, #55	; 0x37
  40:	Address 0x0000000000000040 is out of bounds.


Disassembly of section .debug_info:

00000000 <.debug_info>:
       0:	000007f7 	strdeq	r0, [r0], -r7
       4:	00000004 	andeq	r0, r0, r4
       8:	01040000 	mrseq	r0, (UNDEF: 4)
       c:	0000023b 	andeq	r0, r0, fp, lsr r2
      10:	00014d01 	andeq	r4, r1, r1, lsl #26
      14:	0001d200 	andeq	sp, r1, r0, lsl #4
      18:	00802000 	addeq	r2, r0, r0
      1c:	0002d400 	andeq	sp, r2, r0, lsl #8
      20:	00000000 	andeq	r0, r0, r0
      24:	07080200 	streq	r0, [r8, -r0, lsl #4]
      28:	00000033 	andeq	r0, r0, r3, lsr r0
      2c:	3d070402 	cfstrscc	mvf0, [r7, #-8]
      30:	03000000 	movweq	r0, #0
      34:	6e690504 	cdpvs	5, 6, cr0, cr9, cr4, {0}
      38:	01020074 	tsteq	r2, r4, ror r0
      3c:	0001bc06 	andeq	fp, r1, r6, lsl #24
      40:	05020200 	streq	r0, [r2, #-512]	; 0x200
      44:	000001c8 	andeq	r0, r0, r8, asr #3
      48:	6d050402 	cfstrsvs	mvf0, [r5, #-8]
      4c:	02000000 	andeq	r0, r0, #0
      50:	00680508 	rsbeq	r0, r8, r8, lsl #10
      54:	01020000 	mrseq	r0, (UNDEF: 2)
      58:	0001ba08 	andeq	fp, r1, r8, lsl #20
      5c:	07020200 	streq	r0, [r2, -r0, lsl #4]
      60:	00000112 	andeq	r0, r0, r2, lsl r1
      64:	38070402 	stmdacc	r7, {r1, sl}
      68:	02000000 	andeq	r0, r0, #0
      6c:	01590704 	cmpeq	r9, r4, lsl #14
      70:	01020000 	mrseq	r0, (UNDEF: 2)
      74:	0001c308 	andeq	ip, r1, r8, lsl #6
      78:	7f040400 	svcvc	0x00040400
      7c:	05000000 	streq	r0, [r0, #-0]
      80:	00000072 	andeq	r0, r0, r2, ror r0
      84:	34020406 	strcc	r0, [r2], #-1030	; 0x406
      88:	000000f1 	strdeq	r0, [r0], -r1
      8c:	0000b707 	andeq	fp, r0, r7, lsl #14
      90:	82e88000 	rschi	r8, r8, #0
      94:	a8070280 	stmdage	r7, {r7, r9}
      98:	80000000 	andhi	r0, r0, r0
      9c:	028082e8 	addeq	r8, r0, #232, 4	; 0x8000000e
      a0:	0002cb07 	andeq	ip, r2, r7, lsl #22
      a4:	82e88400 	rschi	r8, r8, #0, 8
      a8:	96070280 	strls	r0, [r7], -r0, lsl #5
      ac:	88000000 	stmdahi	r0, {}	; <UNPREDICTABLE>
      b0:	028082e8 	addeq	r8, r0, #232, 4	; 0x8000000e
      b4:	0002db07 	andeq	sp, r2, r7, lsl #22
      b8:	82e88c00 	rschi	r8, r8, #0, 24
      bc:	11070280 	smlabbne	r7, r0, r2, r0
      c0:	90000000 	andls	r0, r0, r0
      c4:	028082e8 	addeq	r8, r0, #232, 4	; 0x8000000e
      c8:	0000cf07 	andeq	ip, r0, r7, lsl #30
      cc:	82e89400 	rschi	r9, r8, #0, 8
      d0:	69070280 	stmdbvs	r7, {r7, r9}
      d4:	98000001 	stmdals	r0, {r0}
      d8:	028082e8 	addeq	r8, r0, #232, 4	; 0x8000000e
      dc:	00029207 	andeq	r9, r2, r7, lsl #4
      e0:	82e89c00 	rschi	r9, r8, #0, 24
      e4:	20070280 	andcs	r0, r7, r0, lsl #5
      e8:	a0000003 	andge	r0, r0, r3
      ec:	028082e8 	addeq	r8, r0, #232, 4	; 0x8000000e
      f0:	03040600 	movweq	r0, #17920	; 0x4600
      f4:	00016814 	andeq	r6, r1, r4, lsl r8
      f8:	00c60700 	sbceq	r0, r6, r0, lsl #14
      fc:	e4800000 	str	r0, [r0], #0
     100:	07028082 	streq	r8, [r2, -r2, lsl #1]
     104:	000002a7 	andeq	r0, r0, r7, lsr #5
     108:	8082e480 	addhi	lr, r2, r0, lsl #9
     10c:	00e30702 	rsceq	r0, r3, r2, lsl #14
     110:	e4840000 	str	r0, [r4], #0
     114:	07028082 	streq	r8, [r2, -r2, lsl #1]
     118:	000000f1 	strdeq	r0, [r0], -r1
     11c:	8082e488 	addhi	lr, r2, r8, lsl #9
     120:	02fd0702 	rscseq	r0, sp, #524288	; 0x80000
     124:	e48c0000 	str	r0, [ip], #0
     128:	07028082 	streq	r8, [r2, -r2, lsl #1]
     12c:	00000131 	andeq	r0, r0, r1, lsr r1
     130:	8082e490 	umullhi	lr, r2, r0, r4
     134:	013f0702 	teqeq	pc, r2, lsl #14
     138:	e4940000 	ldr	r0, [r4], #0
     13c:	07028082 	streq	r8, [r2, -r2, lsl #1]
     140:	000002b9 			; <UNDEFINED> instruction: 0x000002b9
     144:	8082e498 	umullhi	lr, r2, r8, r4
     148:	004a0702 	subeq	r0, sl, r2, lsl #14
     14c:	e49c0000 	ldr	r0, [ip], #0
     150:	07028082 	streq	r8, [r2, -r2, lsl #1]
     154:	00000059 	andeq	r0, r0, r9, asr r0
     158:	8082e4a0 	addhi	lr, r2, r0, lsr #9
     15c:	00ff0702 	rscseq	r0, pc, r2, lsl #14
     160:	e4a40000 	strt	r0, [r4], #0
     164:	00028082 	andeq	r8, r2, r2, lsl #1
     168:	00069108 	andeq	r9, r6, r8, lsl #2
     16c:	20100100 	andscs	r0, r0, r0, lsl #2
     170:	78000080 	stmdavc	r0, {r7}
     174:	01000000 	mrseq	r0, (UNDEF: 0)
     178:	0002079c 	muleq	r2, ip, r7
     17c:	63700900 	cmnvs	r0, #0, 18
     180:	2c100100 	ldfcss	f0, [r0], {-0}
     184:	00000000 	andeq	r0, r0, r0
     188:	0a000000 	beq	190 <__code_start__-0x7e70>
     18c:	000002b1 			; <UNDEFINED> instruction: 0x000002b1
     190:	002c1201 	eoreq	r1, ip, r1, lsl #4
     194:	00210000 	eoreq	r0, r1, r0
     198:	110b0000 	mrsne	r0, (UNDEF: 11)
     19c:	01000003 	tsteq	r0, r3
     1a0:	00002c32 	andeq	r2, r0, r2, lsr ip
     1a4:	60030500 	andvs	r0, r3, r0, lsl #10
     1a8:	0c000097 	stceq	0, cr0, [r0], {151}	; 0x97
     1ac:	006b6c63 	rsbeq	r6, fp, r3, ror #24
     1b0:	002c3301 	eoreq	r3, ip, r1, lsl #6
     1b4:	50010000 	andpl	r0, r1, r0
     1b8:	0080280d 	addeq	r2, r0, sp, lsl #16
     1bc:	00076f00 	andeq	r6, r7, r0, lsl #30
     1c0:	80300e00 	eorshi	r0, r0, r0, lsl #28
     1c4:	07760000 	ldrbeq	r0, [r6, -r0]!
     1c8:	01d80000 	bicseq	r0, r8, r0
     1cc:	010f0000 	mrseq	r0, CPSR
     1d0:	000c0550 	andeq	r0, ip, r0, asr r5
     1d4:	002000b2 	strhteq	r0, [r0], -r2
     1d8:	0080440e 	addeq	r4, r0, lr, lsl #8
     1dc:	00078b00 	andeq	r8, r7, r0, lsl #22
     1e0:	0001f400 	andeq	pc, r1, r0, lsl #8
     1e4:	51010f00 	tstpl	r1, r0, lsl #30
     1e8:	010f3101 	tsteq	pc, r1, lsl #2
     1ec:	0c0c0550 	cfstr32eq	mvfx0, [ip], {80}	; 0x50
     1f0:	002000b4 	strhteq	r0, [r0], -r4
     1f4:	0080480d 	addeq	r4, r0, sp, lsl #16
     1f8:	00076f00 	andeq	r6, r7, r0, lsl #30
     1fc:	805c0d00 	subshi	r0, ip, r0, lsl #26
     200:	07a10000 	streq	r0, [r1, r0]!
     204:	08000000 	stmdaeq	r0, {}	; <UNPREDICTABLE>
     208:	00000009 	andeq	r0, r0, r9
     20c:	80983c01 	addshi	r3, r8, r1, lsl #24
     210:	025c0000 	subseq	r0, ip, #0
     214:	9c010000 	stcls	0, cr0, [r1], {-0}
     218:	00000737 	andeq	r0, r0, r7, lsr r7
     21c:	00048a0a 	andeq	r8, r4, sl, lsl #20
     220:	2c4b0100 	stfcse	f0, [fp], {-0}
     224:	34000000 	strcc	r0, [r0], #-0
     228:	0a000000 	beq	230 <__code_start__-0x7dd0>
     22c:	00000154 	andeq	r0, r0, r4, asr r1
     230:	002c5001 	eoreq	r5, ip, r1
     234:	00520000 	subseq	r0, r2, r0
     238:	73100000 	tstvc	r0, #0
     23c:	01006d75 	tsteq	r0, r5, ror sp
     240:	00002c50 	andeq	r2, r0, r0, asr ip
     244:	74110000 	ldrvc	r0, [r1], #-0
     248:	0100746f 	tsteq	r0, pc, ror #8
     24c:	00002c5d 	andeq	r2, r0, sp, asr ip
     250:	00007100 	andeq	r7, r0, r0, lsl #2
     254:	03090a00 	movweq	r0, #39424	; 0x9a00
     258:	5e010000 	cdppl	0, 0, cr0, cr1, cr0, {0}
     25c:	0000002c 	andeq	r0, r0, ip, lsr #32
     260:	00000084 	andeq	r0, r0, r4, lsl #1
     264:	0001620a 	andeq	r6, r1, sl, lsl #4
     268:	2c5f0100 	ldfcse	f0, [pc], {-0}
     26c:	97000000 	strls	r0, [r0, -r0]
     270:	0a000000 	beq	278 <__code_start__-0x7d88>
     274:	00000000 	andeq	r0, r0, r0
     278:	002c6001 	eoreq	r6, ip, r1
     27c:	00aa0000 	adceq	r0, sl, r0
     280:	d0120000 	andsle	r0, r2, r0
     284:	08000081 	stmdaeq	r0, {r0, r7}
     288:	9b000000 	blls	290 <__code_start__-0x7d70>
     28c:	10000002 	andne	r0, r0, r2
     290:	01006e69 	tsteq	r0, r9, ror #28
     294:	00002c6b 	andeq	r2, r0, fp, ror #24
     298:	12000100 	andne	r0, r0, #0, 2
     29c:	000081d8 	ldrdeq	r8, [r0], -r8	; <UNPREDICTABLE>
     2a0:	00000024 	andeq	r0, r0, r4, lsr #32
     2a4:	00000332 	andeq	r0, r0, r2, lsr r3
     2a8:	00745f13 	rsbseq	r5, r4, r3, lsl pc
     2ac:	002c6c01 	eoreq	r6, ip, r1, lsl #24
     2b0:	d8120000 	ldmdale	r2, {}	; <UNPREDICTABLE>
     2b4:	0c000081 	stceq	0, cr0, [r0], {129}	; 0x81
     2b8:	0f000000 	svceq	0x00000000
     2bc:	13000003 	movwne	r0, #3
     2c0:	0100735f 	tsteq	r0, pc, asr r3
     2c4:	00002c6c 	andeq	r2, r0, ip, ror #24
     2c8:	655f1300 	ldrbvs	r1, [pc, #-768]	; ffffffd0 <__bss_end__+0xffff6460>
     2cc:	2c6c0100 	stfcse	f0, [ip], #-0
     2d0:	12000000 	andne	r0, r0, #0
     2d4:	000081d8 	ldrdeq	r8, [r0], -r8	; <UNPREDICTABLE>
     2d8:	00000004 	andeq	r0, r0, r4
     2dc:	000002ec 	andeq	r0, r0, ip, ror #5
     2e0:	00018914 	andeq	r8, r1, r4, lsl r9
     2e4:	2c6c0100 	stfcse	f0, [ip], #-0
     2e8:	00000000 	andeq	r0, r0, r0
     2ec:	0081e012 	addeq	lr, r1, r2, lsl r0
     2f0:	00000400 	andeq	r0, r0, r0, lsl #8
     2f4:	00030500 	andeq	r0, r3, r0, lsl #10
     2f8:	01891400 	orreq	r1, r9, r0, lsl #8
     2fc:	6c010000 	stcvs	0, cr0, [r1], {-0}
     300:	0000002c 	andeq	r0, r0, ip, lsr #32
     304:	81e00d00 	mvnhi	r0, r0, lsl #26
     308:	076f0000 	strbeq	r0, [pc, -r0]!
     30c:	15000000 	strne	r0, [r0, #-0]
     310:	000081fc 	strdeq	r8, [r0], -ip
     314:	000007ac 	andeq	r0, r0, ip, lsr #15
     318:	0553010f 	ldrbeq	r0, [r3, #-271]	; 0x10f
     31c:	0092a803 	addseq	sl, r2, r3, lsl #16
     320:	51010f00 	tstpl	r1, r0, lsl #30
     324:	92940305 	addsls	r0, r4, #335544320	; 0x14000000
     328:	010f0000 	mrseq	r0, CPSR
     32c:	00740250 	rsbseq	r0, r4, r0, asr r2
     330:	fc120000 	ldc2	0, cr0, [r2], {-0}
     334:	20000081 	andcs	r0, r0, r1, lsl #1
     338:	c9000000 	stmdbgt	r0, {}	; <UNPREDICTABLE>
     33c:	13000003 	movwne	r0, #3
     340:	0100745f 	tsteq	r0, pc, asr r4
     344:	00002c6d 	andeq	r2, r0, sp, ror #24
     348:	81fc1200 	mvnshi	r1, r0, lsl #4
     34c:	000c0000 	andeq	r0, ip, r0
     350:	03a60000 			; <UNDEFINED> instruction: 0x03a60000
     354:	5f130000 	svcpl	0x00130000
     358:	6d010073 	stcvs	0, cr0, [r1, #-460]	; 0xfffffe34
     35c:	0000002c 	andeq	r0, r0, ip, lsr #32
     360:	00655f13 	rsbeq	r5, r5, r3, lsl pc
     364:	002c6d01 	eoreq	r6, ip, r1, lsl #26
     368:	fc120000 	ldc2	0, cr0, [r2], {-0}
     36c:	04000081 	streq	r0, [r0], #-129	; 0x81
     370:	83000000 	movwhi	r0, #0
     374:	14000003 	strne	r0, [r0], #-3
     378:	00000189 	andeq	r0, r0, r9, lsl #3
     37c:	002c6d01 	eoreq	r6, ip, r1, lsl #26
     380:	12000000 	andne	r0, r0, #0
     384:	00008204 	andeq	r8, r0, r4, lsl #4
     388:	00000004 	andeq	r0, r0, r4
     38c:	0000039c 	muleq	r0, ip, r3
     390:	00018914 	andeq	r8, r1, r4, lsl r9
     394:	2c6d0100 	stfcse	f0, [sp], #-0
     398:	00000000 	andeq	r0, r0, r0
     39c:	0082040d 	addeq	r0, r2, sp, lsl #8
     3a0:	0007c200 	andeq	ip, r7, r0, lsl #4
     3a4:	1c150000 	ldcne	0, cr0, [r5], {-0}
     3a8:	ac000082 	stcge	0, cr0, [r0], {130}	; 0x82
     3ac:	0f000007 	svceq	0x00000007
     3b0:	03055301 	movweq	r5, #21249	; 0x5301
     3b4:	000092c8 	andeq	r9, r0, r8, asr #5
     3b8:	0551010f 	ldrbeq	r0, [r1, #-271]	; 0x10f
     3bc:	0092b803 	addseq	fp, r2, r3, lsl #16
     3c0:	50010f00 	andpl	r0, r1, r0, lsl #30
     3c4:	00007402 	andeq	r7, r0, r2, lsl #8
     3c8:	821c1200 	andshi	r1, ip, #0, 4
     3cc:	00200000 	eoreq	r0, r0, r0
     3d0:	04600000 	strbteq	r0, [r0], #-0
     3d4:	5f130000 	svcpl	0x00130000
     3d8:	6e010074 	mcrvs	0, 0, r0, cr1, cr4, {3}
     3dc:	0000002c 	andeq	r0, r0, ip, lsr #32
     3e0:	00821c12 	addeq	r1, r2, r2, lsl ip
     3e4:	00000c00 	andeq	r0, r0, r0, lsl #24
     3e8:	00043d00 	andeq	r3, r4, r0, lsl #26
     3ec:	735f1300 	cmpvc	pc, #0, 6
     3f0:	2c6e0100 	stfcse	f0, [lr], #-0
     3f4:	13000000 	movwne	r0, #0
     3f8:	0100655f 	tsteq	r0, pc, asr r5
     3fc:	00002c6e 	andeq	r2, r0, lr, ror #24
     400:	821c1200 	andshi	r1, ip, #0, 4
     404:	00040000 	andeq	r0, r4, r0
     408:	041a0000 	ldreq	r0, [sl], #-0
     40c:	89140000 	ldmdbhi	r4, {}	; <UNPREDICTABLE>
     410:	01000001 	tsteq	r0, r1
     414:	00002c6e 	andeq	r2, r0, lr, ror #24
     418:	24120000 	ldrcs	r0, [r2], #-0
     41c:	04000082 	streq	r0, [r0], #-130	; 0x82
     420:	33000000 	movwcc	r0, #0
     424:	14000004 	strne	r0, [r0], #-4
     428:	00000189 	andeq	r0, r0, r9, lsl #3
     42c:	002c6e01 	eoreq	r6, ip, r1, lsl #28
     430:	0d000000 	stceq	0, cr0, [r0, #-0]
     434:	00008224 	andeq	r8, r0, r4, lsr #4
     438:	000007a1 	andeq	r0, r0, r1, lsr #15
     43c:	823c1500 	eorshi	r1, ip, #0, 10
     440:	07ac0000 	streq	r0, [ip, r0]!
     444:	010f0000 	mrseq	r0, CPSR
     448:	dc030553 	cfstr32le	mvfx0, [r3], {83}	; 0x53
     44c:	0f000092 	svceq	0x00000092
     450:	03055101 	movweq	r5, #20737	; 0x5101
     454:	000092d0 	ldrdeq	r9, [r0], -r0
     458:	0250010f 	subseq	r0, r0, #-1073741821	; 0xc0000003
     45c:	00000074 	andeq	r0, r0, r4, ror r0
     460:	00823c12 	addeq	r3, r2, r2, lsl ip
     464:	00002000 	andeq	r2, r0, r0
     468:	0004f700 	andeq	pc, r4, r0, lsl #14
     46c:	745f1300 	ldrbvc	r1, [pc], #-768	; 474 <__code_start__-0x7b8c>
     470:	2c6f0100 	stfcse	f0, [pc], #-0	; 478 <__code_start__-0x7b88>
     474:	12000000 	andne	r0, r0, #0
     478:	0000823c 	andeq	r8, r0, ip, lsr r2
     47c:	0000000c 	andeq	r0, r0, ip
     480:	000004d4 	ldrdeq	r0, [r0], -r4
     484:	00735f13 	rsbseq	r5, r3, r3, lsl pc
     488:	002c6f01 	eoreq	r6, ip, r1, lsl #30
     48c:	5f130000 	svcpl	0x00130000
     490:	6f010065 	svcvs	0x00010065
     494:	0000002c 	andeq	r0, r0, ip, lsr #32
     498:	00823c12 	addeq	r3, r2, r2, lsl ip
     49c:	00000400 	andeq	r0, r0, r0, lsl #8
     4a0:	0004b100 	andeq	fp, r4, r0, lsl #2
     4a4:	01891400 	orreq	r1, r9, r0, lsl #8
     4a8:	6f010000 	svcvs	0x00010000
     4ac:	0000002c 	andeq	r0, r0, ip, lsr #32
     4b0:	82441200 	subhi	r1, r4, #0, 4
     4b4:	00040000 	andeq	r0, r4, r0
     4b8:	04ca0000 	strbeq	r0, [sl], #0
     4bc:	89140000 	ldmdbhi	r4, {}	; <UNPREDICTABLE>
     4c0:	01000001 	tsteq	r0, r1
     4c4:	00002c6f 	andeq	r2, r0, pc, ror #24
     4c8:	440d0000 	strmi	r0, [sp], #-0
     4cc:	c9000082 	stmdbgt	r0, {r1, r7}
     4d0:	00000007 	andeq	r0, r0, r7
     4d4:	00825c15 	addeq	r5, r2, r5, lsl ip
     4d8:	0007ac00 	andeq	sl, r7, r0, lsl #24
     4dc:	53010f00 	movwpl	r0, #7936	; 0x1f00
     4e0:	93000305 	movwls	r0, #773	; 0x305
     4e4:	010f0000 	mrseq	r0, CPSR
     4e8:	f0030551 			; <UNDEFINED> instruction: 0xf0030551
     4ec:	0f000092 	svceq	0x00000092
     4f0:	74025001 	strvc	r5, [r2], #-1
     4f4:	12000000 	andne	r0, r0, #0
     4f8:	0000825c 	andeq	r8, r0, ip, asr r2
     4fc:	0000000c 	andeq	r0, r0, ip
     500:	00000560 	andeq	r0, r0, r0, ror #10
     504:	00735f13 	rsbseq	r5, r3, r3, lsl pc
     508:	002c7101 	eoreq	r7, ip, r1, lsl #2
     50c:	5f130000 	svcpl	0x00130000
     510:	71010065 	tstvc	r1, r5, rrx
     514:	0000002c 	andeq	r0, r0, ip, lsr #32
     518:	00825c12 	addeq	r5, r2, r2, lsl ip
     51c:	00000400 	andeq	r0, r0, r0, lsl #8
     520:	00053100 	andeq	r3, r5, r0, lsl #2
     524:	01891400 	orreq	r1, r9, r0, lsl #8
     528:	71010000 	mrsvc	r0, (UNDEF: 1)
     52c:	0000002c 	andeq	r0, r0, ip, lsr #32
     530:	82601200 	rsbhi	r1, r0, #0, 4
     534:	00040000 	andeq	r0, r4, r0
     538:	054a0000 	strbeq	r0, [sl, #-0]
     53c:	89140000 	ldmdbhi	r4, {}	; <UNPREDICTABLE>
     540:	01000001 	tsteq	r0, r1
     544:	00002c71 	andeq	r2, r0, r1, ror ip
     548:	64160000 	ldrvs	r0, [r6], #-0
     54c:	04000082 	streq	r0, [r0], #-130	; 0x82
     550:	14000000 	strne	r0, [r0], #-0
     554:	00000189 	andeq	r0, r0, r9, lsl #3
     558:	002c7101 	eoreq	r7, ip, r1, lsl #2
     55c:	00000000 	andeq	r0, r0, r0
     560:	0080a40d 	addeq	sl, r0, sp, lsl #8
     564:	0007d400 	andeq	sp, r7, r0, lsl #8
     568:	80ac0e00 	adchi	r0, ip, r0, lsl #28
     56c:	07ac0000 	streq	r0, [ip, r0]!
     570:	05800000 	streq	r0, [r0]
     574:	010f0000 	mrseq	r0, CPSR
     578:	c8030550 	stmdagt	r3, {r4, r6, r8, sl}
     57c:	00000090 	muleq	r0, r0, r0
     580:	0080b00d 	addeq	fp, r0, sp
     584:	0007db00 	andeq	sp, r7, r0, lsl #22
     588:	80b80e00 	adcshi	r0, r8, r0, lsl #28
     58c:	07ac0000 	streq	r0, [ip, r0]!
     590:	05a00000 	streq	r0, [r0, #0]!
     594:	010f0000 	mrseq	r0, CPSR
     598:	e4030550 	str	r0, [r3], #-1360	; 0x550
     59c:	00000090 	muleq	r0, r0, r0
     5a0:	0080c00e 	addeq	ip, r0, lr
     5a4:	0007e200 	andeq	lr, r7, r0, lsl #4
     5a8:	0005b500 	andeq	fp, r5, r0, lsl #10
     5ac:	50010f00 	andpl	r0, r1, r0, lsl #30
     5b0:	01000a03 	tsteq	r0, r3, lsl #20
     5b4:	80c80e00 	sbchi	r0, r8, r0, lsl #28
     5b8:	07ac0000 	streq	r0, [ip, r0]!
     5bc:	05cc0000 	strbeq	r0, [ip]
     5c0:	010f0000 	mrseq	r0, CPSR
     5c4:	04030550 	streq	r0, [r3], #-1360	; 0x550
     5c8:	00000091 	muleq	r0, r1, r0
     5cc:	0080cc0d 	addeq	ip, r0, sp, lsl #24
     5d0:	0007f300 	andeq	pc, r7, r0, lsl #6
     5d4:	80d40e00 	sbcshi	r0, r4, r0, lsl #28
     5d8:	07ac0000 	streq	r0, [ip, r0]!
     5dc:	05ec0000 	strbeq	r0, [ip, #0]!
     5e0:	010f0000 	mrseq	r0, CPSR
     5e4:	24030550 	strcs	r0, [r3], #-1360	; 0x550
     5e8:	00000091 	muleq	r0, r1, r0
     5ec:	0080d80d 	addeq	sp, r0, sp, lsl #16
     5f0:	0007a100 	andeq	sl, r7, r0, lsl #2
     5f4:	81080e00 	tsthi	r8, r0, lsl #28
     5f8:	07ac0000 	streq	r0, [ip, r0]!
     5fc:	060f0000 	streq	r0, [pc], -r0
     600:	010f0000 	mrseq	r0, CPSR
     604:	00750251 	rsbseq	r0, r5, r1, asr r2
     608:	0250010f 	subseq	r0, r0, #-1073741821	; 0xc0000003
     60c:	0d000076 	stceq	0, cr0, [r0, #-472]	; 0xfffffe28
     610:	0000811c 	andeq	r8, r0, ip, lsl r1
     614:	000007a1 	andeq	r0, r0, r1, lsr #15
     618:	00815c0e 	addeq	r5, r1, lr, lsl #24
     61c:	0007ac00 	andeq	sl, r7, r0, lsl #24
     620:	00062f00 	andeq	r2, r6, r0, lsl #30
     624:	50010f00 	andpl	r0, r1, r0, lsl #30
     628:	916c0305 	cmnls	ip, r5, lsl #6
     62c:	0e000000 	cdpeq	0, 0, cr0, cr0, cr0, {0}
     630:	00008164 	andeq	r8, r0, r4, ror #2
     634:	000007ac 	andeq	r0, r0, ip, lsr #15
     638:	00000646 	andeq	r0, r0, r6, asr #12
     63c:	0550010f 	ldrbeq	r0, [r0, #-271]	; 0x10f
     640:	00919803 	addseq	r9, r1, r3, lsl #16
     644:	700e0000 	andvc	r0, lr, r0
     648:	ac000081 	stcge	0, cr0, [r0], {129}	; 0x81
     64c:	63000007 	movwvs	r0, #7
     650:	0f000006 	svceq	0x00000006
     654:	75025101 	strvc	r5, [r2, #-257]	; 0x101
     658:	50010f00 	andpl	r0, r1, r0, lsl #30
     65c:	91a40305 			; <UNDEFINED> instruction: 0x91a40305
     660:	0e000000 	cdpeq	0, 0, cr0, cr0, cr0, {0}
     664:	0000817c 	andeq	r8, r0, ip, ror r1
     668:	000007ac 	andeq	r0, r0, ip, lsr #15
     66c:	0000067f 	andeq	r0, r0, pc, ror r6
     670:	0151010f 	cmpeq	r1, pc, lsl #2
     674:	50010f44 	andpl	r0, r1, r4, asr #30
     678:	91c00305 	bicls	r0, r0, r5, lsl #6
     67c:	0e000000 	cdpeq	0, 0, cr0, cr0, cr0, {0}
     680:	00008190 	muleq	r0, r0, r1
     684:	000007ac 	andeq	r0, r0, ip, lsr #15
     688:	000006b5 			; <UNDEFINED> instruction: 0x000006b5
     68c:	1b51010f 	blne	1440ad0 <__bss_end__+0x1436f60>
     690:	2cf70075 	ldclcs	0, cr0, [r7], #468	; 0x1d4
     694:	25f425f7 	ldrbcs	r2, [r4, #1527]!	; 0x5f7
     698:	cccccd08 	stclgt	13, cr12, [ip], {8}
     69c:	000000cc 	andeq	r0, r0, ip, asr #1
     6a0:	20081e00 	andcs	r1, r8, r0, lsl #28
     6a4:	f72525f7 			; <UNDEFINED> instruction: 0xf72525f7
     6a8:	0f25342c 	svceq	0x0025342c
     6ac:	03055001 	movweq	r5, #20481	; 0x5001
     6b0:	000091d8 	ldrdeq	r9, [r0], -r8
     6b4:	81b40e00 			; <UNDEFINED> instruction: 0x81b40e00
     6b8:	07ac0000 	streq	r0, [ip, r0]!
     6bc:	06cc0000 	strbeq	r0, [ip], r0
     6c0:	010f0000 	mrseq	r0, CPSR
     6c4:	f8030550 			; <UNDEFINED> instruction: 0xf8030550
     6c8:	00000091 	muleq	r0, r1, r0
     6cc:	0081c80e 	addeq	ip, r1, lr, lsl #16
     6d0:	0007ac00 	andeq	sl, r7, r0, lsl #24
     6d4:	0006f500 	andeq	pc, r6, r0, lsl #10
     6d8:	53010f00 	movwpl	r0, #7936	; 0x1f00
     6dc:	0f007602 	svceq	0x00007602
     6e0:	74025201 	strvc	r5, [r2], #-513	; 0x201
     6e4:	51010f00 	tstpl	r1, r0, lsl #30
     6e8:	0f007702 	svceq	0x00007702
     6ec:	03055001 	movweq	r5, #20481	; 0x5001
     6f0:	00009210 	andeq	r9, r0, r0, lsl r2
     6f4:	81d00e00 	bicshi	r0, r0, r0, lsl #28
     6f8:	07ac0000 	streq	r0, [ip, r0]!
     6fc:	070c0000 	streq	r0, [ip, -r0]
     700:	010f0000 	mrseq	r0, CPSR
     704:	3c030550 	cfstr32cc	mvfx0, [r3], {80}	; 0x50
     708:	00000092 	muleq	r0, r2, r0
     70c:	0082740e 	addeq	r7, r2, lr, lsl #8
     710:	0007ac00 	andeq	sl, r7, r0, lsl #24
     714:	00072300 	andeq	r2, r7, r0, lsl #6
     718:	50010f00 	andpl	r0, r1, r0, lsl #30
     71c:	93180305 	tstls	r8, #335544320	; 0x14000000
     720:	15000000 	strne	r0, [r0, #-0]
     724:	0000827c 	andeq	r8, r0, ip, ror r2
     728:	000007ac 	andeq	r0, r0, ip, lsr #15
     72c:	0550010f 	ldrbeq	r0, [r0, #-271]	; 0x10f
     730:	00916c03 	addseq	r6, r1, r3, lsl #24
     734:	0c000000 	stceq	0, cr0, [r0], {-0}
     738:	00746e63 	rsbseq	r6, r4, r3, ror #28
     73c:	07480d01 	strbeq	r0, [r8, -r1, lsl #26]
     740:	03050000 	movweq	r0, #20480	; 0x5000
     744:	0000975c 	andeq	r9, r0, ip, asr r7
     748:	00002c17 	andeq	r2, r0, r7, lsl ip
     74c:	002c0b00 	eoreq	r0, ip, r0, lsl #22
     750:	0d010000 	stceq	0, cr0, [r1, #-0]
     754:	00000748 	andeq	r0, r0, r8, asr #14
     758:	97640305 	strbls	r0, [r4, -r5, lsl #6]!
     75c:	8b0b0000 	blhi	2c0764 <__bss_end__+0x2b6bf4>
     760:	01000000 	mrseq	r0, (UNDEF: 0)
     764:	0007480d 	andeq	r4, r7, sp, lsl #16
     768:	68030500 	stmdavs	r3, {r8, sl}
     76c:	18000097 	stmdane	r0, {r0, r1, r2, r4, r7}
     770:	00000125 	andeq	r0, r0, r5, lsr #2
     774:	7a198904 	bvc	662b8c <__bss_end__+0x65901c>
     778:	04000001 	streq	r0, [r0], #-1
     77c:	00002ca7 	andeq	r2, r0, r7, lsr #25
     780:	00078b00 	andeq	r8, r7, r0, lsl #22
     784:	002c1a00 	eoreq	r1, ip, r0, lsl #20
     788:	1b000000 	blne	790 <__code_start__-0x7870>
     78c:	0000031a 	andeq	r0, r0, sl, lsl r3
     790:	07a19b04 	streq	r9, [r1, r4, lsl #22]!
     794:	2c1a0000 	ldccs	0, cr0, [sl], {-0}
     798:	1a000000 	bne	7a0 <__code_start__-0x7860>
     79c:	0000002c 	andeq	r0, r0, ip, lsr #32
     7a0:	02ee1c00 	rsceq	r1, lr, #0, 24
     7a4:	54040000 	strpl	r0, [r4], #-0
     7a8:	0000002c 	andeq	r0, r0, ip, lsr #32
     7ac:	00040419 	andeq	r0, r4, r9, lsl r4
     7b0:	33290400 	teqcc	r9, #0, 8
     7b4:	c2000000 	andgt	r0, r0, #0
     7b8:	1a000007 	bne	7dc <__code_start__-0x7824>
     7bc:	00000079 	andeq	r0, r0, r9, ror r0
     7c0:	641e001d 	ldrvs	r0, [lr], #-29
     7c4:	0400626d 	streq	r6, [r0], #-621	; 0x26d
     7c8:	018e1c84 	orreq	r1, lr, r4, lsl #25
     7cc:	56040000 	strpl	r0, [r4], -r0
     7d0:	0000002c 	andeq	r0, r0, ip, lsr #32
     7d4:	00002218 	andeq	r2, r0, r8, lsl r2
     7d8:	183a0400 	ldmdane	sl!, {sl}
     7dc:	00000180 	andeq	r0, r0, r0, lsl #3
     7e0:	761b3603 	ldrvc	r3, [fp], -r3, lsl #12
     7e4:	05000000 	streq	r0, [r0, #-0]
     7e8:	0007f308 	andeq	pc, r7, r8, lsl #6
     7ec:	002c1a00 	eoreq	r1, ip, r0, lsl #20
     7f0:	18000000 	stmdane	r0, {}	; <UNPREDICTABLE>
     7f4:	000001a1 	andeq	r0, r0, r1, lsr #3
     7f8:	d3003403 	movwle	r3, #1027	; 0x403
     7fc:	04000002 	streq	r0, [r0], #-2
     800:	00019100 	andeq	r9, r1, r0, lsl #2
     804:	3b010400 	blcc	4180c <__bss_end__+0x37c9c>
     808:	01000002 	tsteq	r0, r2
     80c:	0000037c 	andeq	r0, r0, ip, ror r3
     810:	000001d2 	ldrdeq	r0, [r0], -r2
     814:	0000838c 	andeq	r8, r0, ip, lsl #7
     818:	0000005c 	andeq	r0, r0, ip, asr r0
     81c:	00000118 	andeq	r0, r0, r8, lsl r1
     820:	69050402 	stmdbvs	r5, {r1, sl}
     824:	0300746e 	movweq	r7, #1134	; 0x46e
     828:	003d0704 	eorseq	r0, sp, r4, lsl #14
     82c:	01030000 	mrseq	r0, (UNDEF: 3)
     830:	0001bc06 	andeq	fp, r1, r6, lsl #24
     834:	05020300 	streq	r0, [r2, #-768]	; 0x300
     838:	000001c8 	andeq	r0, r0, r8, asr #3
     83c:	6d050403 	cfstrsvs	mvf0, [r5, #-12]
     840:	03000000 	movweq	r0, #0
     844:	00680508 	rsbeq	r0, r8, r8, lsl #10
     848:	01030000 	mrseq	r0, (UNDEF: 3)
     84c:	0001ba08 	andeq	fp, r1, r8, lsl #20
     850:	07020300 	streq	r0, [r2, -r0, lsl #6]
     854:	00000112 	andeq	r0, r0, r2, lsl r1
     858:	0003db04 	andeq	sp, r3, r4, lsl #22
     85c:	68340300 	ldmdavs	r4!, {r8, r9}
     860:	03000000 	movweq	r0, #0
     864:	00380704 	eorseq	r0, r8, r4, lsl #14
     868:	08030000 	stmdaeq	r3, {}	; <UNPREDICTABLE>
     86c:	00003307 	andeq	r3, r0, r7, lsl #6
     870:	07040300 	streq	r0, [r4, -r0, lsl #6]
     874:	00000159 	andeq	r0, r0, r9, asr r1
     878:	c3080103 	movwgt	r0, #33027	; 0x8103
     87c:	05000001 	streq	r0, [r0, #-1]
     880:	00008a04 	andeq	r8, r0, r4, lsl #20
     884:	007d0600 	rsbseq	r0, sp, r0, lsl #12
     888:	04070000 	streq	r0, [r7], #-0
     88c:	00f21e02 	rscseq	r1, r2, r2, lsl #28
     890:	8e080000 	cdphi	0, 0, cr0, cr8, cr0, {0}
     894:	02000003 	andeq	r0, r0, #3
     898:	00005d21 	andeq	r5, r0, r1, lsr #26
     89c:	1e010400 	cfcpysne	mvf0, mvf1
     8a0:	03d10800 	bicseq	r0, r1, #0, 16
     8a4:	22020000 	andcs	r0, r2, #0
     8a8:	0000005d 	andeq	r0, r0, sp, asr r0
     8ac:	001c0204 	andseq	r0, ip, r4, lsl #4
     8b0:	0003a008 	andeq	sl, r3, r8
     8b4:	5d270200 	sfmpl	f0, 4, [r7, #-0]
     8b8:	04000000 	streq	r0, [r0], #-0
     8bc:	08001a01 	stmdaeq	r0, {r0, r9, fp, ip}
     8c0:	0000033d 	andeq	r0, r0, sp, lsr r3
     8c4:	005d2902 	subseq	r2, sp, r2, lsl #18
     8c8:	01040000 	mrseq	r0, (UNDEF: 4)
     8cc:	b9080018 	stmdblt	r8, {r3, r4}
     8d0:	02000003 	andeq	r0, r0, #3
     8d4:	00005d2b 	andeq	r5, r0, fp, lsr #26
     8d8:	16010400 	strne	r0, [r1], -r0, lsl #8
     8dc:	03c90800 	biceq	r0, r9, #0, 16
     8e0:	2d020000 	stccs	0, cr0, [r2, #-0]
     8e4:	0000005d 	andeq	r0, r0, sp, asr r0
     8e8:	00090704 	andeq	r0, r9, r4, lsl #14
     8ec:	035f0400 	cmpeq	pc, #0, 8
     8f0:	2f020000 	svccs	0x00020000
     8f4:	0000008f 	andeq	r0, r0, pc, lsl #1
     8f8:	34020409 	strcc	r0, [r2], #-1033	; 0x409
     8fc:	0000016a 	andeq	r0, r0, sl, ror #2
     900:	0000b70a 	andeq	fp, r0, sl, lsl #14
     904:	82e88000 	rschi	r8, r8, #0
     908:	a80a0280 	stmdage	sl, {r7, r9}
     90c:	80000000 	andhi	r0, r0, r0
     910:	028082e8 	addeq	r8, r0, #232, 4	; 0x8000000e
     914:	0002cb0a 	andeq	ip, r2, sl, lsl #22
     918:	82e88400 	rschi	r8, r8, #0, 8
     91c:	960a0280 	strls	r0, [sl], -r0, lsl #5
     920:	88000000 	stmdahi	r0, {}	; <UNPREDICTABLE>
     924:	028082e8 	addeq	r8, r0, #232, 4	; 0x8000000e
     928:	0002db0a 	andeq	sp, r2, sl, lsl #22
     92c:	82e88c00 	rschi	r8, r8, #0, 24
     930:	110a0280 	smlabbne	sl, r0, r2, r0
     934:	90000000 	andls	r0, r0, r0
     938:	028082e8 	addeq	r8, r0, #232, 4	; 0x8000000e
     93c:	0000cf0a 	andeq	ip, r0, sl, lsl #30
     940:	82e89400 	rschi	r9, r8, #0, 8
     944:	690a0280 	stmdbvs	sl, {r7, r9}
     948:	98000001 	stmdals	r0, {r0}
     94c:	028082e8 	addeq	r8, r0, #232, 4	; 0x8000000e
     950:	0002920a 	andeq	r9, r2, sl, lsl #4
     954:	82e89c00 	rschi	r9, r8, #0, 24
     958:	200a0280 	andcs	r0, sl, r0, lsl #5
     95c:	a0000003 	andge	r0, r0, r3
     960:	028082e8 	addeq	r8, r0, #232, 4	; 0x8000000e
     964:	04040900 	streq	r0, [r4], #-2304	; 0x900
     968:	0001e114 	andeq	lr, r1, r4, lsl r1
     96c:	00c60a00 	sbceq	r0, r6, r0, lsl #20
     970:	e4800000 	str	r0, [r0], #0
     974:	0a028082 	beq	a0b84 <__bss_end__+0x97014>
     978:	000002a7 	andeq	r0, r0, r7, lsr #5
     97c:	8082e480 	addhi	lr, r2, r0, lsl #9
     980:	00e30a02 	rsceq	r0, r3, r2, lsl #20
     984:	e4840000 	str	r0, [r4], #0
     988:	0a028082 	beq	a0b98 <__bss_end__+0x97028>
     98c:	000000f1 	strdeq	r0, [r0], -r1
     990:	8082e488 	addhi	lr, r2, r8, lsl #9
     994:	02fd0a02 	rscseq	r0, sp, #8192	; 0x2000
     998:	e48c0000 	str	r0, [ip], #0
     99c:	0a028082 	beq	a0bac <__bss_end__+0x9703c>
     9a0:	00000131 	andeq	r0, r0, r1, lsr r1
     9a4:	8082e490 	umullhi	lr, r2, r0, r4
     9a8:	013f0a02 	teqeq	pc, r2, lsl #20
     9ac:	e4940000 	ldr	r0, [r4], #0
     9b0:	0a028082 	beq	a0bc0 <__bss_end__+0x97050>
     9b4:	000002b9 			; <UNDEFINED> instruction: 0x000002b9
     9b8:	8082e498 	umullhi	lr, r2, r8, r4
     9bc:	004a0a02 	subeq	r0, sl, r2, lsl #20
     9c0:	e49c0000 	ldr	r0, [ip], #0
     9c4:	0a028082 	beq	a0bd4 <__bss_end__+0x97064>
     9c8:	00000059 	andeq	r0, r0, r9, asr r0
     9cc:	8082e4a0 	addhi	lr, r2, r0, lsr #9
     9d0:	00ff0a02 	rscseq	r0, pc, r2, lsl #20
     9d4:	e4a40000 	strt	r0, [r4], #0
     9d8:	00028082 	andeq	r8, r2, r2, lsl #1
     9dc:	00034b0b 	andeq	r4, r3, fp, lsl #22
     9e0:	8c400100 	stfhie	f0, [r0], {-0}
     9e4:	1c000083 	stcne	0, cr0, [r0], {131}	; 0x83
     9e8:	01000000 	mrseq	r0, (UNDEF: 0)
     9ec:	0002199c 	muleq	r2, ip, r9
     9f0:	03ac0c00 			; <UNDEFINED> instruction: 0x03ac0c00
     9f4:	02290000 	eoreq	r0, r9, #0
     9f8:	03050000 	movweq	r0, #20480	; 0x5000
     9fc:	00009334 	andeq	r9, r0, r4, lsr r3
     a00:	00839c0d 	addeq	r9, r3, sp, lsl #24
     a04:	0002ae00 	andeq	sl, r2, r0, lsl #28
     a08:	50010e00 	andpl	r0, r1, r0, lsl #28
     a0c:	945c0305 	ldrbls	r0, [ip], #-773	; 0x305
     a10:	00000000 	andeq	r0, r0, r0
     a14:	00007d0f 	andeq	r7, r0, pc, lsl #26
     a18:	00022900 	andeq	r2, r2, r0, lsl #18
     a1c:	00761000 	rsbseq	r1, r6, r0
     a20:	00130000 	andseq	r0, r3, r0
     a24:	00021906 	andeq	r1, r2, r6, lsl #18
     a28:	00761100 	rsbseq	r1, r6, r0, lsl #2
     a2c:	12010000 	andne	r0, r1, #0
     a30:	000083a8 	andeq	r8, r0, r8, lsr #7
     a34:	00000040 	andeq	r0, r0, r0, asr #32
     a38:	02ae9c01 	adceq	r9, lr, #256	; 0x100
     a3c:	74120000 	ldrvc	r0, [r2], #-0
     a40:	01000003 	tsteq	r0, r3
     a44:	00002c12 	andeq	r2, r0, r2, lsl ip
     a48:	0000bd00 	andeq	fp, r0, r0, lsl #26
     a4c:	83b41300 			; <UNDEFINED> instruction: 0x83b41300
     a50:	01e10000 	mvneq	r0, r0
     a54:	c0140000 	andsgt	r0, r4, r0
     a58:	c4000083 	strgt	r0, [r0], #-131	; 0x83
     a5c:	77000002 	strvc	r0, [r0, -r2]
     a60:	0e000002 	cdpeq	0, 0, cr0, cr0, cr2, {0}
     a64:	31015101 	tstcc	r1, r1, lsl #2
     a68:	0550010e 	ldrbeq	r0, [r0, #-270]	; 0x10e
     a6c:	00b2180c 	adcseq	r1, r2, ip, lsl #16
     a70:	cc140020 	ldcgt	0, cr0, [r4], {32}
     a74:	c4000083 	strgt	r0, [r0], #-131	; 0x83
     a78:	94000002 	strls	r0, [r0], #-2
     a7c:	0e000002 	cdpeq	0, 0, cr0, cr0, cr2, {0}
     a80:	74025101 	strvc	r5, [r2], #-257	; 0x101
     a84:	50010e00 	andpl	r0, r1, r0, lsl #28
     a88:	b4000c05 	strlt	r0, [r0], #-3077	; 0xc05
     a8c:	0d002000 	stceq	0, cr2, [r0, #-0]
     a90:	000083d8 	ldrdeq	r8, [r0], -r8	; <UNPREDICTABLE>
     a94:	000002c4 	andeq	r0, r0, r4, asr #5
     a98:	0251010e 	subseq	r0, r1, #-2147483645	; 0x80000003
     a9c:	010eaa08 	tsteq	lr, r8, lsl #20
     aa0:	080c0550 	stmdaeq	ip, {r4, r6, r8, sl}
     aa4:	002000b4 	strhteq	r0, [r0], -r4
     aa8:	04041500 	streq	r1, [r4], #-1280	; 0x500
     aac:	29050000 	stmdbcs	r5, {}	; <UNPREDICTABLE>
     ab0:	00000025 	andeq	r0, r0, r5, lsr #32
     ab4:	000002c4 	andeq	r0, r0, r4, asr #5
     ab8:	00008416 	andeq	r8, r0, r6, lsl r4
     abc:	18001700 	stmdane	r0, {r8, r9, sl, ip}
     ac0:	0000031a 	andeq	r0, r0, sl, lsl r3
     ac4:	2c169b05 	ldccs	11, cr9, [r6], {5}
     ac8:	16000000 	strne	r0, [r0], -r0
     acc:	0000002c 	andeq	r0, r0, ip, lsr #32
     ad0:	01910000 	orrseq	r0, r1, r0
     ad4:	00040000 	andeq	r0, r4, r0
     ad8:	000002d1 	ldrdeq	r0, [r0], -r1
     adc:	023b0104 	eorseq	r0, fp, #4, 2
     ae0:	f3010000 	vhadd.u8	d0, d1, d0
     ae4:	15000003 	strne	r0, [r0, #-3]
     ae8:	e8000004 	stmda	r0, {r2}
     aec:	58000083 	stmdapl	r0, {r0, r1, r7}
     af0:	42000000 	andmi	r0, r0, #0
     af4:	02000002 	andeq	r0, r0, #2
     af8:	000003e4 	andeq	r0, r0, r4, ror #7
     afc:	00302802 	eorseq	r2, r0, r2, lsl #16
     b00:	0b030000 	bleq	c0b08 <__bss_end__+0xb6f98>
     b04:	04000004 	streq	r0, [r0], #-4
     b08:	00470003 	subeq	r0, r7, r3
     b0c:	5b040000 	blpl	100b14 <__bss_end__+0xf6fa4>
     b10:	47000004 	strmi	r0, [r0, -r4]
     b14:	00000000 	andeq	r0, r0, r0
     b18:	02040500 	andeq	r0, r4, #0, 10
     b1c:	0000040d 	andeq	r0, r0, sp, lsl #8
     b20:	00256202 	eoreq	r6, r5, r2, lsl #4
     b24:	04060000 	streq	r0, [r6], #-0
     b28:	746e6905 	strbtvc	r6, [lr], #-2309	; 0x905
     b2c:	07040700 	streq	r0, [r4, -r0, lsl #14]
     b30:	0000003d 	andeq	r0, r0, sp, lsr r0
     b34:	bc060107 	stflts	f0, [r6], {7}
     b38:	07000001 	streq	r0, [r0, -r1]
     b3c:	01c80502 	biceq	r0, r8, r2, lsl #10
     b40:	04070000 	streq	r0, [r7], #-0
     b44:	00006d05 	andeq	r6, r0, r5, lsl #26
     b48:	05080700 	streq	r0, [r8, #-1792]	; 0x700
     b4c:	00000068 	andeq	r0, r0, r8, rrx
     b50:	ba080107 	blt	200f74 <__bss_end__+0x1f7404>
     b54:	07000001 	streq	r0, [r0, -r1]
     b58:	01120702 	tsteq	r2, r2, lsl #14
     b5c:	04070000 	streq	r0, [r7], #-0
     b60:	00003807 	andeq	r3, r0, r7, lsl #16
     b64:	07080700 	streq	r0, [r8, -r0, lsl #14]
     b68:	00000033 	andeq	r0, r0, r3, lsr r0
     b6c:	59070407 	stmdbpl	r7, {r0, r1, r2, sl}
     b70:	08000001 	stmdaeq	r0, {r0}
     b74:	0000a704 	andeq	sl, r0, r4, lsl #14
     b78:	08010700 	stmdaeq	r1, {r8, r9, sl}
     b7c:	000001c3 	andeq	r0, r0, r3, asr #3
     b80:	00b40408 	adcseq	r0, r4, r8, lsl #8
     b84:	a7090000 	strge	r0, [r9, -r0]
     b88:	0a000000 	beq	b90 <__code_start__-0x7470>
     b8c:	00000404 	andeq	r0, r0, r4, lsl #8
     b90:	00540601 	subseq	r0, r4, r1, lsl #12
     b94:	83e80000 	mvnhi	r0, #0
     b98:	00580000 	subseq	r0, r8, r0
     b9c:	9c010000 	stcls	0, cr0, [r1], {-0}
     ba0:	00000143 	andeq	r0, r0, r3, asr #2
     ba4:	746d660b 	strbtvc	r6, [sp], #-1547	; 0x60b
     ba8:	ae060100 	adfges	f0, f6, f0
     bac:	02000000 	andeq	r0, r0, #0
     bb0:	0d0c7091 	stceq	0, cr7, [ip, #-580]	; 0xfffffdbc
     bb4:	00667562 	rsbeq	r7, r6, r2, ror #10
     bb8:	01430801 	cmpeq	r3, r1, lsl #16
     bbc:	03050000 	movweq	r0, #20480	; 0x5000
     bc0:	0000976c 	andeq	r9, r0, ip, ror #14
     bc4:	0008ae0e 	andeq	sl, r8, lr, lsl #28
     bc8:	49090100 	stmdbmi	r9, {r8}
     bcc:	02000000 	andeq	r0, r0, #0
     bd0:	730f5c91 	movwvc	r5, #64657	; 0xfc91
     bd4:	0c01007a 	stceq	0, cr0, [r1], {122}	; 0x7a
     bd8:	00000054 	andeq	r0, r0, r4, asr r0
     bdc:	000000db 	ldrdeq	r0, [r0], -fp
     be0:	00841010 	addeq	r1, r4, r0, lsl r0
     be4:	00017400 	andeq	r7, r1, r0, lsl #8
     be8:	00013600 	andeq	r3, r1, r0, lsl #12
     bec:	53011100 	movwpl	r1, #4352	; 0x1100
     bf0:	114c9102 	cmpne	ip, r2, lsl #2
     bf4:	91035201 	tstls	r3, r1, lsl #4
     bf8:	01110648 	tsteq	r1, r8, asr #12
     bfc:	000a0351 	andeq	r0, sl, r1, asr r3
     c00:	50011104 	andpl	r1, r1, r4, lsl #2
     c04:	00007402 	andeq	r7, r0, r2, lsl #8
     c08:	00842412 	addeq	r2, r4, r2, lsl r4
     c0c:	50011100 	andpl	r1, r1, r0, lsl #2
     c10:	00007402 	andeq	r7, r0, r2, lsl #8
     c14:	00a71300 	adceq	r1, r7, r0, lsl #6
     c18:	01540000 	cmpeq	r4, r0
     c1c:	9a140000 	bls	500c24 <__bss_end__+0x4f70b4>
     c20:	ff000000 			; <UNDEFINED> instruction: 0xff000000
     c24:	54150003 	ldrpl	r0, [r5], #-3
     c28:	63000000 	movwvs	r0, #0
     c2c:	16000001 	strne	r0, [r0], -r1
     c30:	000000ae 	andeq	r0, r0, lr, lsr #1
     c34:	04751700 	ldrbteq	r1, [r5], #-1792	; 0x700
     c38:	22040000 	andcs	r0, r4, #0
     c3c:	0000016e 	andeq	r0, r0, lr, ror #2
     c40:	01540408 	cmpeq	r4, r8, lsl #8
     c44:	01180000 	tsteq	r8, r0
     c48:	05000004 	streq	r0, [r0, #-4]
     c4c:	00005402 	andeq	r5, r0, r2, lsl #8
     c50:	00a11600 	adceq	r1, r1, r0, lsl #12
     c54:	54160000 	ldrpl	r0, [r6], #-0
     c58:	16000000 	strne	r0, [r0], -r0
     c5c:	000000ae 	andeq	r0, r0, lr, lsr #1
     c60:	00004916 	andeq	r4, r0, r6, lsl r9
     c64:	ee000000 	cdp	0, 0, cr0, cr0, cr0, {0}
     c68:	04000000 	streq	r0, [r0], #-0
     c6c:	00040200 	andeq	r0, r4, r0, lsl #4
     c70:	3b010400 	blcc	41c78 <__bss_end__+0x38108>
     c74:	01000002 	tsteq	r0, r2
     c78:	00000460 	andeq	r0, r0, r0, ror #8
     c7c:	00000415 	andeq	r0, r0, r5, lsl r4
     c80:	00008440 	andeq	r8, r0, r0, asr #8
     c84:	00000034 	andeq	r0, r0, r4, lsr r0
     c88:	00000352 	andeq	r0, r0, r2, asr r3
     c8c:	69050402 	stmdbvs	r5, {r1, sl}
     c90:	0300746e 	movweq	r7, #1134	; 0x46e
     c94:	003d0704 	eorseq	r0, sp, r4, lsl #14
     c98:	01030000 	mrseq	r0, (UNDEF: 3)
     c9c:	0001bc06 	andeq	fp, r1, r6, lsl #24
     ca0:	05020300 	streq	r0, [r2, #-768]	; 0x300
     ca4:	000001c8 	andeq	r0, r0, r8, asr #3
     ca8:	6d050403 	cfstrsvs	mvf0, [r5, #-12]
     cac:	03000000 	movweq	r0, #0
     cb0:	00680508 	rsbeq	r0, r8, r8, lsl #10
     cb4:	01030000 	mrseq	r0, (UNDEF: 3)
     cb8:	0001ba08 	andeq	fp, r1, r8, lsl #20
     cbc:	07020300 	streq	r0, [r2, -r0, lsl #6]
     cc0:	00000112 	andeq	r0, r0, r2, lsl r1
     cc4:	38070403 	stmdacc	r7, {r0, r1, sl}
     cc8:	03000000 	movweq	r0, #0
     ccc:	00330708 	eorseq	r0, r3, r8, lsl #14
     cd0:	04030000 	streq	r0, [r3], #-0
     cd4:	00015907 	andeq	r5, r1, r7, lsl #18
     cd8:	08010300 	stmdaeq	r1, {r8, r9}
     cdc:	000001c3 	andeq	r0, r0, r3, asr #3
     ce0:	007f0404 	rsbseq	r0, pc, r4, lsl #8
     ce4:	72050000 	andvc	r0, r5, #0
     ce8:	06000000 	streq	r0, [r0], -r0
     cec:	0000046c 	andeq	r0, r0, ip, ror #8
     cf0:	00250401 	eoreq	r0, r5, r1, lsl #8
     cf4:	84400000 	strbhi	r0, [r0], #-0
     cf8:	00340000 	eorseq	r0, r4, r0
     cfc:	9c010000 	stcls	0, cr0, [r1], {-0}
     d00:	000000ab 	andeq	r0, r0, fp, lsr #1
     d04:	01007007 	tsteq	r0, r7
     d08:	00007904 	andeq	r7, r0, r4, lsl #18
     d0c:	00010400 	andeq	r0, r1, r0, lsl #8
     d10:	25080000 	strcs	r0, [r8, #-0]
     d14:	ba000000 	blt	d1c <__code_start__-0x72e4>
     d18:	09000000 	stmdbeq	r0, {}	; <UNPREDICTABLE>
     d1c:	00000025 	andeq	r0, r0, r5, lsr #32
     d20:	047a0a00 	ldrbteq	r0, [sl], #-2560	; 0xa00
     d24:	1d020000 	stcne	0, cr0, [r2, #-0]
     d28:	000000c5 	andeq	r0, r0, r5, asr #1
     d2c:	00ab0404 	adceq	r0, fp, r4, lsl #8
     d30:	25080000 	strcs	r0, [r8, #-0]
     d34:	da000000 	ble	d3c <__code_start__-0x72c4>
     d38:	09000000 	stmdbeq	r0, {}	; <UNPREDICTABLE>
     d3c:	00000079 	andeq	r0, r0, r9, ror r0
     d40:	04750b00 	ldrbteq	r0, [r5], #-2816	; 0xb00
     d44:	0c010000 	stceq	0, cr0, [r1], {-0}
     d48:	000000eb 	andeq	r0, r0, fp, ror #1
     d4c:	90c00305 	sbcls	r0, r0, r5, lsl #6
     d50:	04040000 	streq	r0, [r4], #-0
     d54:	000000cb 	andeq	r0, r0, fp, asr #1
     d58:	0006e500 	andeq	lr, r6, r0, lsl #10
     d5c:	9b000400 	blls	1d64 <__code_start__-0x629c>
     d60:	04000004 	streq	r0, [r0], #-4
     d64:	00023b01 	andeq	r3, r2, r1, lsl #22
     d68:	04b70100 	ldrteq	r0, [r7], #256	; 0x100
     d6c:	04150000 	ldreq	r0, [r5], #-0
     d70:	84740000 	ldrbthi	r0, [r4], #-0
     d74:	05780000 	ldrbeq	r0, [r8, #-0]!
     d78:	03f60000 	mvnseq	r0, #0
     d7c:	04020000 	streq	r0, [r2], #-0
     d80:	746e6905 	strbtvc	r6, [lr], #-2309	; 0x905
     d84:	07040300 	streq	r0, [r4, -r0, lsl #6]
     d88:	0000003d 	andeq	r0, r0, sp, lsr r0
     d8c:	bc060103 	stflts	f0, [r6], {3}
     d90:	03000001 	movweq	r0, #1
     d94:	01c80502 	biceq	r0, r8, r2, lsl #10
     d98:	04030000 	streq	r0, [r3], #-0
     d9c:	00006d05 	andeq	r6, r0, r5, lsl #26
     da0:	05080300 	streq	r0, [r8, #-768]	; 0x300
     da4:	00000068 	andeq	r0, r0, r8, rrx
     da8:	ba080103 	blt	2011bc <__bss_end__+0x1f764c>
     dac:	03000001 	movweq	r0, #1
     db0:	01120702 	tsteq	r2, r2, lsl #14
     db4:	04030000 	streq	r0, [r3], #-0
     db8:	00003807 	andeq	r3, r0, r7, lsl #16
     dbc:	07080300 	streq	r0, [r8, -r0, lsl #6]
     dc0:	00000033 	andeq	r0, r0, r3, lsr r0
     dc4:	59070403 	stmdbpl	r7, {r0, r1, sl}
     dc8:	04000001 	streq	r0, [r0], #-1
     dcc:	7a040504 	bvc	1021e4 <__bss_end__+0xf8674>
     dd0:	03000000 	movweq	r0, #0
     dd4:	01c30801 	biceq	r0, r3, r1, lsl #16
     dd8:	04050000 	streq	r0, [r5], #-0
     ddc:	00000087 	andeq	r0, r0, r7, lsl #1
     de0:	00007a06 	andeq	r7, r0, r6, lsl #20
     de4:	03e40700 	mvneq	r0, #0, 14
     de8:	28020000 	stmdacs	r2, {}	; <UNPREDICTABLE>
     dec:	00000097 	muleq	r0, r7, r0
     df0:	00040b08 	andeq	r0, r4, r8, lsl #22
     df4:	00040400 	andeq	r0, r4, r0, lsl #8
     df8:	000000ae 	andeq	r0, r0, lr, lsr #1
     dfc:	00045b09 	andeq	r5, r4, r9, lsl #22
     e00:	00007200 	andeq	r7, r0, r0, lsl #4
     e04:	07000000 	streq	r0, [r0, -r0]
     e08:	0000040d 	andeq	r0, r0, sp, lsl #8
     e0c:	008c6202 	addeq	r6, ip, r2, lsl #4
     e10:	9e0a0000 	cdpls	0, 0, cr0, cr10, cr0, {0}
     e14:	01000004 	tsteq	r0, r4
     e18:	00002527 	andeq	r2, r0, r7, lsr #10
     e1c:	00847400 	addeq	r7, r4, r0, lsl #8
     e20:	00001400 	andeq	r1, r0, r0, lsl #8
     e24:	e09c0100 	adds	r0, ip, r0, lsl #2
     e28:	0b000000 	bleq	e30 <__code_start__-0x71d0>
     e2c:	27010063 	strcs	r0, [r1, -r3, rrx]
     e30:	00000025 	andeq	r0, r0, r5, lsr #32
     e34:	00000122 	andeq	r0, r0, r2, lsr #2
     e38:	61700c00 	cmnvs	r0, r0, lsl #24
     e3c:	2e010064 	cdpcs	0, 0, cr0, cr1, cr4, {3}
     e40:	00000074 	andeq	r0, r0, r4, ror r0
     e44:	00008488 	andeq	r8, r0, r8, lsl #9
     e48:	0000002c 	andeq	r0, r0, ip, lsr #32
     e4c:	01309c01 	teqeq	r0, r1, lsl #24
     e50:	700b0000 	andvc	r0, fp, r0
     e54:	742e0100 	strtvc	r0, [lr], #-256	; 0x100
     e58:	50000000 	andpl	r0, r0, r0
     e5c:	0d000001 	stceq	0, cr0, [r0, #-4]
     e60:	0000088c 	andeq	r0, r0, ip, lsl #17
     e64:	00742e01 	rsbseq	r2, r4, r1, lsl #28
     e68:	017b0000 	cmneq	fp, r0
     e6c:	e40e0000 	str	r0, [lr], #-0
     e70:	01000004 	tsteq	r0, r4
     e74:	0000252e 	andeq	r2, r0, lr, lsr #10
     e78:	0f520100 	svceq	0x00520100
     e7c:	006e656c 	rsbeq	r6, lr, ip, ror #10
     e80:	00252f01 	eoreq	r2, r5, r1, lsl #30
     e84:	51010000 	mrspl	r0, (UNDEF: 1)
     e88:	04960a00 	ldreq	r0, [r6], #2560	; 0xa00
     e8c:	37010000 	strcc	r0, [r1, -r0]
     e90:	00000074 	andeq	r0, r0, r4, ror r0
     e94:	000084b4 			; <UNDEFINED> instruction: 0x000084b4
     e98:	00000040 	andeq	r0, r0, r0, asr #32
     e9c:	019c9c01 	orrseq	r9, ip, r1, lsl #24
     ea0:	640b0000 	strvs	r0, [fp], #-0
     ea4:	01007473 	tsteq	r0, r3, ror r4
     ea8:	00007437 	andeq	r7, r0, r7, lsr r4
     eac:	00019c00 	andeq	r9, r1, r0, lsl #24
     eb0:	006e0b00 	rsbeq	r0, lr, r0, lsl #22
     eb4:	00253701 	eoreq	r3, r5, r1, lsl #14
     eb8:	01d40000 	bicseq	r0, r4, r0
     ebc:	700b0000 	andvc	r0, fp, r0
     ec0:	74370100 	ldrtvc	r0, [r7], #-256	; 0x100
     ec4:	f5000000 			; <UNDEFINED> instruction: 0xf5000000
     ec8:	0d000001 	stceq	0, cr0, [r0, #-4]
     ecc:	0000048a 	andeq	r0, r0, sl, lsl #9
     ed0:	00743701 	rsbseq	r3, r4, r1, lsl #14
     ed4:	022b0000 	eoreq	r0, fp, #0
     ed8:	6c100000 	ldcvs	0, cr0, [r0], {-0}
     edc:	01006e65 	tsteq	r0, r5, ror #28
     ee0:	00002539 	andeq	r2, r0, r9, lsr r5
     ee4:	00024900 	andeq	r4, r2, r0, lsl #18
     ee8:	00730f00 	rsbseq	r0, r3, r0, lsl #30
     eec:	00743d01 	rsbseq	r3, r4, r1, lsl #26
     ef0:	50010000 	andpl	r0, r1, r0
     ef4:	05010a00 	streq	r0, [r1, #-2560]	; 0xa00
     ef8:	47010000 	strmi	r0, [r1, -r0]
     efc:	00000074 	andeq	r0, r0, r4, ror r0
     f00:	000084f4 	strdeq	r8, [r0], -r4
     f04:	000001bc 			; <UNDEFINED> instruction: 0x000001bc
     f08:	02df9c01 	sbcseq	r9, pc, #256	; 0x100
     f0c:	8c0d0000 	stchi	0, cr0, [sp], {-0}
     f10:	01000008 	tsteq	r0, r8
     f14:	00002c47 	andeq	r2, r0, r7, asr #24
     f18:	00027000 	andeq	r7, r2, r0
     f1c:	73640b00 	cmnvc	r4, #0, 22
     f20:	47010074 	smlsdxmi	r1, r4, r0, r0
     f24:	00000074 	andeq	r0, r0, r4, ror r0
     f28:	0000029e 	muleq	r0, lr, r2
     f2c:	01006e0b 	tsteq	r0, fp, lsl #28
     f30:	00002547 	andeq	r2, r0, r7, asr #10
     f34:	00030c00 	andeq	r0, r3, r0, lsl #24
     f38:	61760b00 	cmnvs	r6, r0, lsl #22
     f3c:	4701006c 	strmi	r0, [r1, -ip, rrx]
     f40:	00000025 	andeq	r0, r0, r5, lsr #32
     f44:	00000338 	andeq	r0, r0, r8, lsr r3
     f48:	0004e40d 	andeq	lr, r4, sp, lsl #8
     f4c:	25470100 	strbcs	r0, [r7, #-256]	; 0x100
     f50:	b7000000 	strlt	r0, [r0, -r0]
     f54:	0e000003 	cdpeq	0, 0, cr0, cr0, cr3, {0}
     f58:	000004ae 	andeq	r0, r0, lr, lsr #9
     f5c:	00254701 	eoreq	r4, r5, r1, lsl #14
     f60:	91020000 	mrsls	r0, (UNDEF: 2)
     f64:	75620f04 	strbvc	r0, [r2, #-3844]!	; 0xf04
     f68:	4c010066 	stcmi	0, cr0, [r1], {102}	; 0x66
     f6c:	000002df 	ldrdeq	r0, [r0], -pc	; <UNPREDICTABLE>
     f70:	7fa89103 	svcvc	0x00a89103
     f74:	01007010 	tsteq	r0, r0, lsl r0
     f78:	0000744c 	andeq	r7, r0, ip, asr #8
     f7c:	0003e100 	andeq	lr, r3, r0, lsl #2
     f80:	00751000 	rsbseq	r1, r5, r0
     f84:	002c4d01 	eoreq	r4, ip, r1, lsl #26
     f88:	04cb0000 	strbeq	r0, [fp], #0
     f8c:	ac110000 	ldcge	0, cr0, [r1], {-0}
     f90:	ff000003 			; <UNDEFINED> instruction: 0xff000003
     f94:	05000002 	streq	r0, [r0, #-2]
     f98:	00947403 	addseq	r7, r4, r3, lsl #8
     f9c:	85601200 	strbhi	r1, [r0, #-512]!	; 0x200
     fa0:	00740000 	rsbseq	r0, r4, r0
     fa4:	02610000 	rsbeq	r0, r1, #0
     fa8:	90130000 	andsls	r0, r3, r0
     fac:	01000004 	tsteq	r0, r4
     fb0:	00002c52 	andeq	r2, r0, r2, asr ip
     fb4:	00058e00 	andeq	r8, r5, r0, lsl #28
     fb8:	4c140000 	ldcmi	0, cr0, [r4], {-0}
     fbc:	c4000086 	strgt	r0, [r0], #-134	; 0x86
     fc0:	15000006 	strne	r0, [r0, #-6]
     fc4:	00008668 	andeq	r8, r0, r8, ror #12
     fc8:	000006cb 	andeq	r0, r0, fp, asr #13
     fcc:	000002a3 	andeq	r0, r0, r3, lsr #5
     fd0:	02530116 	subseq	r0, r3, #-2147483643	; 0x80000005
     fd4:	01167708 	tsteq	r6, r8, lsl #14
     fd8:	74030552 	strvc	r0, [r3], #-1362	; 0x552
     fdc:	16000094 			; <UNDEFINED> instruction: 0x16000094
     fe0:	03055101 	movweq	r5, #20737	; 0x5101
     fe4:	00009498 	muleq	r0, r8, r4
     fe8:	05500116 	ldrbeq	r0, [r0, #-278]	; 0x116
     fec:	0093b803 	addseq	fp, r3, r3, lsl #16
     ff0:	7d021600 	stcvc	6, cr1, [r2, #-0]
     ff4:	ac030500 	cfstr32ge	mvfx0, [r3], {-0}
     ff8:	00000094 	muleq	r0, r4, r0
     ffc:	00866c14 	addeq	r6, r6, r4, lsl ip
    1000:	0006e100 	andeq	lr, r6, r0, lsl #2
    1004:	86741500 	ldrbthi	r1, [r4], -r0, lsl #10
    1008:	00e00000 	rsceq	r0, r0, r0
    100c:	02c10000 	sbceq	r0, r1, #0
    1010:	01160000 	tsteq	r6, r0
    1014:	a0910351 	addsge	r0, r1, r1, asr r3
    1018:	8817007f 	ldmdahi	r7, {r0, r1, r2, r3, r4, r5, r6}
    101c:	30000086 	andcc	r0, r0, r6, lsl #1
    1020:	16000001 	strne	r0, [r0], -r1
    1024:	91035301 	tstls	r3, r1, lsl #6
    1028:	01167fa0 	tsteq	r6, r0, lsr #31
    102c:	00740251 	rsbseq	r0, r4, r1, asr r2
    1030:	02500116 	subseq	r0, r0, #-2147483643	; 0x80000005
    1034:	00000075 	andeq	r0, r0, r5, ror r0
    1038:	00007a18 	andeq	r7, r0, r8, lsl sl
    103c:	0002ef00 	andeq	lr, r2, r0, lsl #30
    1040:	006b1900 	rsbeq	r1, fp, r0, lsl #18
    1044:	003f0000 	eorseq	r0, pc, r0
    1048:	00007a18 	andeq	r7, r0, r8, lsl sl
    104c:	0002ff00 	andeq	pc, r2, r0, lsl #30
    1050:	006b1900 	rsbeq	r1, fp, r0, lsl #18
    1054:	00040000 	andeq	r0, r4, r0
    1058:	0002ef06 	andeq	lr, r2, r6, lsl #30
    105c:	04d51a00 	ldrbeq	r1, [r5], #2560	; 0xa00
    1060:	1f010000 	svcne	0x00010000
    1064:	000086b0 			; <UNDEFINED> instruction: 0x000086b0
    1068:	00000068 	andeq	r0, r0, r8, rrx
    106c:	03929c01 	orrseq	r9, r2, #256	; 0x100
    1070:	ea0d0000 	b	341078 <__bss_end__+0x337508>
    1074:	01000004 	tsteq	r0, r4
    1078:	0003a11f 	andeq	sl, r3, pc, lsl r1
    107c:	0005ba00 	andeq	fp, r5, r0, lsl #20
    1080:	04a60d00 	strteq	r0, [r6], #3328	; 0xd00
    1084:	1f010000 	svcne	0x00010000
    1088:	000003b6 			; <UNDEFINED> instruction: 0x000003b6
    108c:	000005e6 	andeq	r0, r0, r6, ror #11
    1090:	0003ac11 	andeq	sl, r3, r1, lsl ip
    1094:	0003cc00 	andeq	ip, r3, r0, lsl #24
    1098:	7c030500 	cfstr32vc	mvfx0, [r3], {-0}
    109c:	14000094 	strne	r0, [r0], #-148	; 0x94
    10a0:	000086c4 	andeq	r8, r0, r4, asr #13
    10a4:	000006c4 	andeq	r0, r0, r4, asr #13
    10a8:	0086e015 	addeq	lr, r6, r5, lsl r0
    10ac:	0006cb00 	andeq	ip, r6, r0, lsl #22
    10b0:	00038800 	andeq	r8, r3, r0, lsl #16
    10b4:	53011600 	movwpl	r1, #5632	; 0x1600
    10b8:	16200802 	strtne	r0, [r0], -r2, lsl #16
    10bc:	03055201 	movweq	r5, #20993	; 0x5201
    10c0:	0000947c 	andeq	r9, r0, ip, ror r4
    10c4:	05510116 	ldrbeq	r0, [r1, #-278]	; 0x116
    10c8:	00949803 	addseq	r9, r4, r3, lsl #16
    10cc:	50011600 	andpl	r1, r1, r0, lsl #12
    10d0:	93b80305 			; <UNDEFINED> instruction: 0x93b80305
    10d4:	02160000 	andseq	r0, r6, #0
    10d8:	0305007d 	movweq	r0, #20605	; 0x507d
    10dc:	000094d4 	ldrdeq	r9, [r0], -r4
    10e0:	86e41400 	strbthi	r1, [r4], r0, lsl #8
    10e4:	06e10000 	strbteq	r0, [r1], r0
    10e8:	1b000000 	blne	10f0 <__code_start__-0x6f10>
    10ec:	00000025 	andeq	r0, r0, r5, lsr #32
    10f0:	000003a1 	andeq	r0, r0, r1, lsr #7
    10f4:	0000251c 	andeq	r2, r0, ip, lsl r5
    10f8:	04050000 	streq	r0, [r5], #-0
    10fc:	00000392 	muleq	r0, r2, r3
    1100:	0000251b 	andeq	r2, r0, fp, lsl r5
    1104:	0003b600 	andeq	fp, r3, r0, lsl #12
    1108:	00811c00 	addeq	r1, r1, r0, lsl #24
    110c:	05000000 	streq	r0, [r0, #-0]
    1110:	0003a704 	andeq	sl, r3, r4, lsl #14
    1114:	007a1800 	rsbseq	r1, sl, r0, lsl #16
    1118:	03cc0000 	biceq	r0, ip, #0
    111c:	6b190000 	blvs	641124 <__bss_end__+0x6375b4>
    1120:	0e000000 	cdpeq	0, 0, cr0, cr0, cr0, {0}
    1124:	03bc0600 			; <UNDEFINED> instruction: 0x03bc0600
    1128:	011d0000 	tsteq	sp, r0
    112c:	01000004 	tsteq	r0, r4
    1130:	0000257f 	andeq	r2, r0, pc, ror r5
    1134:	00871800 	addeq	r1, r7, r0, lsl #16
    1138:	0002d400 	andeq	sp, r2, r0, lsl #8
    113c:	899c0100 	ldmibhi	ip, {r8}
    1140:	0b000006 	bleq	1160 <__code_start__-0x6ea0>
    1144:	00667562 	rsbeq	r7, r6, r2, ror #10
    1148:	00747f01 	rsbseq	r7, r4, r1, lsl #30
    114c:	06120000 	ldreq	r0, [r2], -r0
    1150:	6e0b0000 	cdpvs	0, 0, cr0, cr11, cr0, {0}
    1154:	257f0100 	ldrbcs	r0, [pc, #-256]!	; 105c <__code_start__-0x6fa4>
    1158:	3e000000 	cdpcc	0, 0, cr0, cr0, cr0, {0}
    115c:	0b000006 	bleq	117c <__code_start__-0x6e84>
    1160:	00746d66 	rsbseq	r6, r4, r6, ror #26
    1164:	00817f01 	addeq	r7, r1, r1, lsl #30
    1168:	066c0000 	strbteq	r0, [ip], -r0
    116c:	ae0d0000 	cdpge	0, 0, cr0, cr13, cr0, {0}
    1170:	01000008 	tsteq	r0, r8
    1174:	0000ae7f 	andeq	sl, r0, pc, ror lr
    1178:	00068a00 	andeq	r8, r6, r0, lsl #20
    117c:	00701000 	rsbseq	r1, r0, r0
    1180:	00748001 	rsbseq	r8, r4, r1
    1184:	069d0000 	ldreq	r0, [sp], r0
    1188:	65100000 	ldrvs	r0, [r0, #-0]
    118c:	74800100 	strvc	r0, [r0], #256	; 0x100
    1190:	1b000000 	blne	1198 <__code_start__-0x6e68>
    1194:	13000007 	movwne	r0, #7
    1198:	00000486 	andeq	r0, r0, r6, lsl #9
    119c:	00818301 	addeq	r8, r1, r1, lsl #6
    11a0:	07420000 	strbeq	r0, [r2, -r0]
    11a4:	ac110000 	ldcge	0, cr0, [r1], {-0}
    11a8:	99000003 	stmdbls	r0, {r0, r1}
    11ac:	05000006 	streq	r0, [r0, #-6]
    11b0:	00948c03 	addseq	r8, r4, r3, lsl #24
    11b4:	87741e00 	ldrbhi	r1, [r4, -r0, lsl #28]!
    11b8:	022c0000 	eoreq	r0, ip, #0
    11bc:	73100000 	tstvc	r0, #0
    11c0:	748e0100 	strvc	r0, [lr], #256	; 0x100
    11c4:	62000000 	andvs	r0, r0, #0
    11c8:	0f000007 	svceq	0x00000007
    11cc:	006d756e 	rsbeq	r7, sp, lr, ror #10
    11d0:	069e8e01 	ldreq	r8, [lr], r1, lsl #28
    11d4:	91030000 	mrsls	r0, (UNDEF: 3)
    11d8:	e4137ed8 	ldr	r7, [r3], #-3800	; 0xed8
    11dc:	01000004 	tsteq	r0, r4
    11e0:	00002c8f 	andeq	r2, r0, pc, lsl #25
    11e4:	0007b700 	andeq	fp, r7, r0, lsl #14
    11e8:	87a41500 	strhi	r1, [r4, r0, lsl #10]!
    11ec:	00b90000 	adcseq	r0, r9, r0
    11f0:	04a40000 	strteq	r0, [r4], #0
    11f4:	01160000 	tsteq	r6, r0
    11f8:	00750250 	rsbseq	r0, r5, r0, asr r2
    11fc:	87b81400 	ldrhi	r1, [r8, r0, lsl #8]!
    1200:	06c40000 	strbeq	r0, [r4], r0
    1204:	d4150000 	ldrle	r0, [r5], #-0
    1208:	cb000087 	blgt	142c <__code_start__-0x6bd4>
    120c:	e6000006 	str	r0, [r0], -r6
    1210:	16000004 	strne	r0, [r0], -r4
    1214:	08025301 	stmdaeq	r2, {r0, r8, r9, ip, lr}
    1218:	52011695 	andpl	r1, r1, #156237824	; 0x9500000
    121c:	948c0305 	strls	r0, [ip], #773	; 0x305
    1220:	01160000 	tsteq	r6, r0
    1224:	98030551 	stmdals	r3, {r0, r4, r6, r8, sl}
    1228:	16000094 			; <UNDEFINED> instruction: 0x16000094
    122c:	03055001 	movweq	r5, #20481	; 0x5001
    1230:	000093b8 			; <UNDEFINED> instruction: 0x000093b8
    1234:	007d0216 	rsbseq	r0, sp, r6, lsl r2
    1238:	94dc0305 	ldrbls	r0, [ip], #773	; 0x305
    123c:	14000000 	strne	r0, [r0], #-0
    1240:	000087d8 	ldrdeq	r8, [r0], -r8	; <UNPREDICTABLE>
    1244:	000006e1 	andeq	r0, r0, r1, ror #13
    1248:	00884814 	addeq	r4, r8, r4, lsl r8
    124c:	0006c400 	andeq	ip, r6, r0, lsl #8
    1250:	885c1500 	ldmdahi	ip, {r8, sl, ip}^
    1254:	06cb0000 	strbeq	r0, [fp], r0
    1258:	05270000 	streq	r0, [r7, #-0]!
    125c:	01160000 	tsteq	r6, r0
    1260:	9b080253 	blls	201bb4 <__bss_end__+0x1f8044>
    1264:	05520116 	ldrbeq	r0, [r2, #-278]	; 0x116
    1268:	00948c03 	addseq	r8, r4, r3, lsl #24
    126c:	51011600 	tstpl	r1, r0, lsl #12
    1270:	94980305 	ldrls	r0, [r8], #773	; 0x305
    1274:	01160000 	tsteq	r6, r0
    1278:	e8030550 	stmda	r3, {r4, r6, r8, sl}
    127c:	00000094 	muleq	r0, r4, r0
    1280:	00886014 	addeq	r6, r8, r4, lsl r0
    1284:	0006e100 	andeq	lr, r6, r0, lsl #2
    1288:	88841500 	stmhi	r4, {r8, sl, ip}
    128c:	019c0000 	orrseq	r0, ip, r0
    1290:	055d0000 	ldrbeq	r0, [sp, #-0]
    1294:	01160000 	tsteq	r6, r0
    1298:	80080252 	andhi	r0, r8, r2, asr r2
    129c:	03510116 	cmpeq	r1, #-2147483643	; 0x80000005
    12a0:	167ed091 			; <UNDEFINED> instruction: 0x167ed091
    12a4:	3a015001 	bcc	552b0 <__bss_end__+0x4b740>
    12a8:	047d0216 	ldrbteq	r0, [sp], #-534	; 0x216
    12ac:	02163101 	andseq	r3, r6, #1073741824	; 0x40000000
    12b0:	7702007d 	smlsdxvc	r2, sp, r0, r0
    12b4:	ac150000 	ldcge	0, cr0, [r5], {-0}
    12b8:	9c000088 	stcls	0, cr0, [r0], {136}	; 0x88
    12bc:	8a000001 	bhi	12c8 <__code_start__-0x6d38>
    12c0:	16000005 	strne	r0, [r0], -r5
    12c4:	08025201 	stmdaeq	r2, {r0, r9, ip, lr}
    12c8:	51011680 	smlabbpl	r1, r0, r6, r1
    12cc:	7ed09103 	atnvcs	f1, f3
    12d0:	01500116 	cmpeq	r0, r6, lsl r1
    12d4:	7d02163a 	stcvc	6, cr1, [r2, #-232]	; 0xffffff18
    12d8:	16300104 	ldrtne	r0, [r0], -r4, lsl #2
    12dc:	02007d02 	andeq	r7, r0, #2, 26	; 0x80
    12e0:	15000077 	strne	r0, [r0, #-119]	; 0x77
    12e4:	000088d4 	ldrdeq	r8, [r0], -r4
    12e8:	0000019c 	muleq	r0, ip, r1
    12ec:	000005b7 			; <UNDEFINED> instruction: 0x000005b7
    12f0:	02520116 	subseq	r0, r2, #-2147483643	; 0x80000005
    12f4:	01168008 	tsteq	r6, r8
    12f8:	d0910351 	addsle	r0, r1, r1, asr r3
    12fc:	5001167e 	andpl	r1, r1, lr, ror r6
    1300:	02164001 	andseq	r4, r6, #1
    1304:	3001047d 	andcc	r0, r1, sp, ror r4
    1308:	007d0216 	rsbseq	r0, sp, r6, lsl r2
    130c:	00007702 	andeq	r7, r0, r2, lsl #14
    1310:	0088fc15 	addeq	pc, r8, r5, lsl ip	; <UNPREDICTABLE>
    1314:	00019c00 	andeq	r9, r1, r0, lsl #24
    1318:	0005e400 	andeq	lr, r5, r0, lsl #8
    131c:	52011600 	andpl	r1, r1, #0, 12
    1320:	16800802 	strne	r0, [r0], r2, lsl #16
    1324:	91035101 	tstls	r3, r1, lsl #2
    1328:	01167ed0 			; <UNDEFINED> instruction: 0x01167ed0
    132c:	16320150 			; <UNDEFINED> instruction: 0x16320150
    1330:	01047d02 	tsteq	r4, r2, lsl #26
    1334:	7d021630 	stcvc	6, cr1, [r2, #-192]	; 0xffffff40
    1338:	00770200 	rsbseq	r0, r7, r0, lsl #4
    133c:	89301500 	ldmdbhi	r0!, {r8, sl, ip}
    1340:	019c0000 	orrseq	r0, ip, r0
    1344:	06110000 	ldreq	r0, [r1], -r0
    1348:	01160000 	tsteq	r6, r0
    134c:	80080252 	andhi	r0, r8, r2, asr r2
    1350:	03510116 	cmpeq	r1, #-2147483643	; 0x80000005
    1354:	167ed091 			; <UNDEFINED> instruction: 0x167ed091
    1358:	38015001 	stmdacc	r1, {r0, ip, lr}
    135c:	047d0216 	ldrbteq	r0, [sp], #-534	; 0x216
    1360:	02163001 	andseq	r3, r6, #1
    1364:	7702007d 	smlsdxvc	r2, sp, r0, r0
    1368:	4c150000 	ldcmi	0, cr0, [r5], {-0}
    136c:	cb000089 	blgt	1598 <__code_start__-0x6a68>
    1370:	34000006 	strcc	r0, [r0], #-6
    1374:	16000006 	strne	r0, [r0], -r6
    1378:	79025201 	stmdbvc	r2, {r0, r9, ip, lr}
    137c:	51011600 	tstpl	r1, r0, lsl #12
    1380:	16007902 	strne	r7, [r0], -r2, lsl #18
    1384:	03055001 	movweq	r5, #20481	; 0x5001
    1388:	00009510 	andeq	r9, r0, r0, lsl r5
    138c:	895c1f00 	ldmdbhi	ip, {r8, r9, sl, fp, ip}^
    1390:	06460000 	strbeq	r0, [r6], -r0
    1394:	01160000 	tsteq	r6, r0
    1398:	cc910450 	cfldrsgt	mvf0, [r1], {80}	; 0x50
    139c:	1400067e 	strne	r0, [r0], #-1662	; 0x67e
    13a0:	00008960 	andeq	r8, r0, r0, ror #18
    13a4:	000006c4 	andeq	r0, r0, r4, asr #13
    13a8:	00897415 	addeq	r7, r9, r5, lsl r4
    13ac:	0006cb00 	andeq	ip, r6, r0, lsl #22
    13b0:	00067e00 	andeq	r7, r6, r0, lsl #28
    13b4:	53011600 	movwpl	r1, #5632	; 0x1600
    13b8:	16bf0802 	ldrtne	r0, [pc], r2, lsl #16
    13bc:	03055201 	movweq	r5, #20993	; 0x5201
    13c0:	0000948c 	andeq	r9, r0, ip, lsl #9
    13c4:	05510116 	ldrbeq	r0, [r1, #-278]	; 0x116
    13c8:	00949803 	addseq	r9, r4, r3, lsl #16
    13cc:	50011600 	andpl	r1, r1, r0, lsl #12
    13d0:	95400305 	strbls	r0, [r0, #-773]	; 0x305
    13d4:	14000000 	strne	r0, [r0], #-0
    13d8:	00008978 	andeq	r8, r0, r8, ror r9
    13dc:	000006e1 	andeq	r0, r0, r1, ror #13
    13e0:	7a180000 	bvc	6013e8 <__bss_end__+0x5f7878>
    13e4:	99000000 	stmdbls	r0, {}	; <UNPREDICTABLE>
    13e8:	19000006 	stmdbne	r0, {r1, r2}
    13ec:	0000006b 	andeq	r0, r0, fp, rrx
    13f0:	89060009 	stmdbhi	r6, {r0, r3}
    13f4:	18000006 	stmdane	r0, {r1, r2}
    13f8:	0000007a 	andeq	r0, r0, sl, ror r0
    13fc:	000006ae 	andeq	r0, r0, lr, lsr #13
    1400:	00006b19 	andeq	r6, r0, r9, lsl fp
    1404:	20007f00 	andcs	r7, r0, r0, lsl #30
    1408:	0000047a 	andeq	r0, r0, sl, ror r4
    140c:	03a11d03 			; <UNDEFINED> instruction: 0x03a11d03
    1410:	75200000 	strvc	r0, [r0, #-0]!
    1414:	03000004 	movweq	r0, #4
    1418:	0003b622 	andeq	fp, r3, r2, lsr #12
    141c:	04f22100 	ldrbteq	r2, [r2], #256	; 0x100
    1420:	1e030000 	cdpne	0, 0, cr0, cr3, cr0, {0}
    1424:	00040422 	andeq	r0, r4, r2, lsr #8
    1428:	25290300 	strcs	r0, [r9, #-768]!	; 0x300
    142c:	e1000000 	mrs	r0, (UNDEF: 0)
    1430:	1c000006 	stcne	0, cr0, [r0], {6}
    1434:	00000081 	andeq	r0, r0, r1, lsl #1
    1438:	c8210023 	stmdagt	r1!, {r0, r1, r5}
    143c:	03000004 	movweq	r0, #4
    1440:	010f0065 	tsteq	pc, r5, rrx
    1444:	00040000 	andeq	r0, r4, r0
    1448:	00000684 	andeq	r0, r0, r4, lsl #13
    144c:	023b0104 	eorseq	r0, fp, #4, 2
    1450:	15010000 	strne	r0, [r1, #-0]
    1454:	15000005 	strne	r0, [r0, #-5]
    1458:	ec000004 	stc	0, cr0, [r0], {4}
    145c:	2c000089 	stccs	0, cr0, [r0], {137}	; 0x89
    1460:	eb000000 	bl	1468 <__code_start__-0x6b98>
    1464:	02000005 	andeq	r0, r0, #5
    1468:	6e690504 	cdpvs	5, 6, cr0, cr9, cr4, {0}
    146c:	04030074 	streq	r0, [r3], #-116	; 0x74
    1470:	00003d07 	andeq	r3, r0, r7, lsl #26
    1474:	06010300 	streq	r0, [r1], -r0, lsl #6
    1478:	000001bc 			; <UNDEFINED> instruction: 0x000001bc
    147c:	c8050203 	stmdagt	r5, {r0, r1, r9}
    1480:	03000001 	movweq	r0, #1
    1484:	006d0504 	rsbeq	r0, sp, r4, lsl #10
    1488:	08030000 	stmdaeq	r3, {}	; <UNPREDICTABLE>
    148c:	00006805 	andeq	r6, r0, r5, lsl #16
    1490:	08010300 	stmdaeq	r1, {r8, r9}
    1494:	000001ba 			; <UNDEFINED> instruction: 0x000001ba
    1498:	12070203 	andne	r0, r7, #805306368	; 0x30000000
    149c:	03000001 	movweq	r0, #1
    14a0:	00380704 	eorseq	r0, r8, r4, lsl #14
    14a4:	08030000 	stmdaeq	r3, {}	; <UNPREDICTABLE>
    14a8:	00003307 	andeq	r3, r0, r7, lsl #6
    14ac:	07040300 	streq	r0, [r4, -r0, lsl #6]
    14b0:	00000159 	andeq	r0, r0, r9, asr r1
    14b4:	c3080103 	movwgt	r0, #33027	; 0x8103
    14b8:	04000001 	streq	r0, [r0], #-1
    14bc:	00007f04 	andeq	r7, r0, r4, lsl #30
    14c0:	00720500 	rsbseq	r0, r2, r0, lsl #10
    14c4:	c8060000 	stmdagt	r6, {}	; <UNPREDICTABLE>
    14c8:	01000004 	tsteq	r0, r4
    14cc:	0089ec04 	addeq	lr, r9, r4, lsl #24
    14d0:	00002c00 	andeq	r2, r0, r0, lsl #24
    14d4:	d39c0100 	orrsle	r0, ip, #0, 2
    14d8:	07000000 	streq	r0, [r0, -r0]
    14dc:	000089f4 	strdeq	r8, [r0], -r4
    14e0:	000000f3 	strdeq	r0, [r0], -r3
    14e4:	008a0408 	addeq	r0, sl, r8, lsl #8
    14e8:	0000b500 	andeq	fp, r0, r0, lsl #10
    14ec:	50010900 	andpl	r0, r1, r0, lsl #18
    14f0:	95600305 	strbls	r0, [r0, #-773]!	; 0x305
    14f4:	0a000000 	beq	14fc <__code_start__-0x6b04>
    14f8:	00008a0c 	andeq	r8, r0, ip, lsl #20
    14fc:	000000fa 	strdeq	r0, [r0], -sl
    1500:	000000c9 	andeq	r0, r0, r9, asr #1
    1504:	02500109 	subseq	r0, r0, #1073741826	; 0x40000002
    1508:	07006408 	streq	r6, [r0, -r8, lsl #8]
    150c:	00008a10 	andeq	r8, r0, r0, lsl sl
    1510:	0000010b 	andeq	r0, r0, fp, lsl #2
    1514:	00250b00 	eoreq	r0, r5, r0, lsl #22
    1518:	00e20000 	rsceq	r0, r2, r0
    151c:	790c0000 	stmdbvc	ip, {}	; <UNPREDICTABLE>
    1520:	00000000 	andeq	r0, r0, r0
    1524:	0004750d 	andeq	r7, r4, sp, lsl #10
    1528:	ed220200 	sfm	f0, 4, [r2, #-0]
    152c:	04000000 	streq	r0, [r0], #-0
    1530:	0000d304 	andeq	sp, r0, r4, lsl #6
    1534:	05060e00 	streq	r0, [r6, #-3584]	; 0xe00
    1538:	dc020000 	stcle	0, cr0, [r2], {-0}
    153c:	0005390f 	andeq	r3, r5, pc, lsl #18
    1540:	0b4f0200 	bleq	13c1d48 <__bss_end__+0x13b81d8>
    1544:	0c000001 	stceq	0, cr0, [r0], {1}
    1548:	0000002c 	andeq	r0, r0, ip, lsr #32
    154c:	052e0e00 	streq	r0, [lr, #-3584]!	; 0xe00
    1550:	62020000 	andvs	r0, r2, #0
    1554:	00010f00 	andeq	r0, r1, r0, lsl #30
    1558:	4e000400 	cfcpysmi	mvf0, mvf0
    155c:	04000007 	streq	r0, [r0], #-7
    1560:	00023b01 	andeq	r3, r2, r1, lsl #22
    1564:	057b0100 	ldrbeq	r0, [fp, #-256]!	; 0x100
    1568:	04150000 	ldreq	r0, [r5], #-0
    156c:	8a180000 	bhi	601574 <__bss_end__+0x5f7a04>
    1570:	00380000 	eorseq	r0, r8, r0
    1574:	068c0000 	streq	r0, [ip], r0
    1578:	04020000 	streq	r0, [r2], #-0
    157c:	746e6905 	strbtvc	r6, [lr], #-2309	; 0x905
    1580:	07040300 	streq	r0, [r4, -r0, lsl #6]
    1584:	0000003d 	andeq	r0, r0, sp, lsr r0
    1588:	bc060103 	stflts	f0, [r6], {3}
    158c:	03000001 	movweq	r0, #1
    1590:	01c80502 	biceq	r0, r8, r2, lsl #10
    1594:	04030000 	streq	r0, [r3], #-0
    1598:	00006d05 	andeq	r6, r0, r5, lsl #26
    159c:	05080300 	streq	r0, [r8, #-768]	; 0x300
    15a0:	00000068 	andeq	r0, r0, r8, rrx
    15a4:	ba080103 	blt	2019b8 <__bss_end__+0x1f7e48>
    15a8:	03000001 	movweq	r0, #1
    15ac:	01120702 	tsteq	r2, r2, lsl #14
    15b0:	04030000 	streq	r0, [r3], #-0
    15b4:	00003807 	andeq	r3, r0, r7, lsl #16
    15b8:	07080300 	streq	r0, [r8, -r0, lsl #6]
    15bc:	00000033 	andeq	r0, r0, r3, lsr r0
    15c0:	59070403 	stmdbpl	r7, {r0, r1, sl}
    15c4:	03000001 	movweq	r0, #1
    15c8:	01c30801 	biceq	r0, r3, r1, lsl #16
    15cc:	73040000 	movwvc	r0, #16384	; 0x4000
    15d0:	01000005 	tsteq	r0, r5
    15d4:	008a180d 	addeq	r1, sl, sp, lsl #16
    15d8:	00003800 	andeq	r3, r0, r0, lsl #16
    15dc:	e19c0100 	orrs	r0, ip, r0, lsl #2
    15e0:	05000000 	streq	r0, [r0, #-0]
    15e4:	00000542 	andeq	r0, r0, r2, asr #10
    15e8:	00250e01 	eoreq	r0, r5, r1, lsl #28
    15ec:	50050000 	andpl	r0, r5, r0
    15f0:	01000005 	tsteq	r0, r5
    15f4:	0000250e 	andeq	r2, r0, lr, lsl #10
    15f8:	00090600 	andeq	r0, r9, r0, lsl #12
    15fc:	0f010000 	svceq	0x00010000
    1600:	73736207 	cmnvc	r3, #1879048192	; 0x70000000
    1604:	e1110100 	tst	r1, r0, lsl #2
    1608:	e1000000 	mrs	r0, (UNDEF: 0)
    160c:	08000007 	stmdaeq	r0, {r0, r1, r2}
    1610:	0000056b 	andeq	r0, r0, fp, ror #10
    1614:	00e11201 	rsceq	r1, r1, r1, lsl #4
    1618:	40090000 	andmi	r0, r9, r0
    161c:	fd00008a 	stc2	0, cr0, [r0, #-552]	; 0xfffffdd8
    1620:	09000000 	stmdbeq	r0, {}	; <UNPREDICTABLE>
    1624:	00008a44 	andeq	r8, r0, r4, asr #20
    1628:	00000104 	andeq	r0, r0, r4, lsl #2
    162c:	008a4809 	addeq	r4, sl, r9, lsl #16
    1630:	00010b00 	andeq	r0, r1, r0, lsl #22
    1634:	040a0000 	streq	r0, [sl], #-0
    1638:	00000025 	andeq	r0, r0, r5, lsr #32
    163c:	00054205 	andeq	r4, r5, r5, lsl #4
    1640:	250e0100 	strcs	r0, [lr, #-256]	; 0x100
    1644:	05000000 	streq	r0, [r0, #-0]
    1648:	00000550 	andeq	r0, r0, r0, asr r5
    164c:	00250e01 	eoreq	r0, r5, r1, lsl #28
    1650:	5c060000 	stcpl	0, cr0, [r6], {-0}
    1654:	02000005 	andeq	r0, r0, #5
    1658:	000906da 	ldrdeq	r0, [r9], -sl
    165c:	d7020000 	strle	r0, [r2, -r0]
    1660:	0004c806 	andeq	ip, r4, r6, lsl #16
    1664:	00650200 	rsbeq	r0, r5, r0, lsl #4
    1668:	0000013e 	andeq	r0, r0, lr, lsr r1
    166c:	07e20004 	strbeq	r0, [r2, r4]!
    1670:	01040000 	mrseq	r0, (UNDEF: 4)
    1674:	0000023b 	andeq	r0, r0, fp, lsr r2
    1678:	00058e01 	andeq	r8, r5, r1, lsl #28
    167c:	00041500 	andeq	r1, r4, r0, lsl #10
    1680:	008a5000 	addeq	r5, sl, r0
    1684:	00004400 	andeq	r4, r0, r0, lsl #8
    1688:	00073600 	andeq	r3, r7, r0, lsl #12
    168c:	05040200 	streq	r0, [r4, #-512]	; 0x200
    1690:	00746e69 	rsbseq	r6, r4, r9, ror #28
    1694:	3d070403 	cfstrscc	mvf0, [r7, #-12]
    1698:	03000000 	movweq	r0, #0
    169c:	01bc0601 			; <UNDEFINED> instruction: 0x01bc0601
    16a0:	02030000 	andeq	r0, r3, #0
    16a4:	0001c805 	andeq	ip, r1, r5, lsl #16
    16a8:	05040300 	streq	r0, [r4, #-768]	; 0x300
    16ac:	0000006d 	andeq	r0, r0, sp, rrx
    16b0:	68050803 	stmdavs	r5, {r0, r1, fp}
    16b4:	03000000 	movweq	r0, #0
    16b8:	01ba0801 			; <UNDEFINED> instruction: 0x01ba0801
    16bc:	02030000 	andeq	r0, r3, #0
    16c0:	00011207 	andeq	r1, r1, r7, lsl #4
    16c4:	07040300 	streq	r0, [r4, -r0, lsl #6]
    16c8:	00000038 	andeq	r0, r0, r8, lsr r0
    16cc:	33070803 	movwcc	r0, #30723	; 0x7803
    16d0:	03000000 	movweq	r0, #0
    16d4:	01590704 	cmpeq	r9, r4, lsl #14
    16d8:	01030000 	mrseq	r0, (UNDEF: 3)
    16dc:	0001c308 	andeq	ip, r1, r8, lsl #6
    16e0:	7f040400 	svcvc	0x00040400
    16e4:	05000000 	streq	r0, [r0, #-0]
    16e8:	00000072 	andeq	r0, r0, r2, ror r0
    16ec:	0005b506 	andeq	fp, r5, r6, lsl #10
    16f0:	50020100 	andpl	r0, r2, r0, lsl #2
    16f4:	4400008a 	strmi	r0, [r0], #-138	; 0x8a
    16f8:	01000000 	mrseq	r0, (UNDEF: 0)
    16fc:	0001089c 	muleq	r1, ip, r8
    1700:	63700700 	cmnvs	r0, #0, 14
    1704:	2c020100 	stfcss	f0, [r2], {-0}
    1708:	01000000 	mrseq	r0, (UNDEF: 0)
    170c:	08000008 	stmdaeq	r0, {r3}
    1710:	000003ac 	andeq	r0, r0, ip, lsr #7
    1714:	00000118 	andeq	r0, r0, r8, lsl r1
    1718:	956c0305 	strbls	r0, [ip, #-773]!	; 0x305
    171c:	60090000 	andvs	r0, r9, r0
    1720:	1d00008a 	stcne	0, cr0, [r0, #-552]	; 0xfffffdd8
    1724:	0a000001 	beq	1730 <__code_start__-0x68d0>
    1728:	00008a80 	andeq	r8, r0, r0, lsl #21
    172c:	00000124 	andeq	r0, r0, r4, lsr #2
    1730:	000000fe 	strdeq	r0, [r0], -lr
    1734:	0153010b 	cmpeq	r3, fp, lsl #2
    1738:	52010b32 	andpl	r0, r1, #51200	; 0xc800
    173c:	956c0305 	strbls	r0, [ip, #-773]!	; 0x305
    1740:	010b0000 	mrseq	r0, (UNDEF: 11)
    1744:	bc030551 	cfstr32lt	mvfx0, [r3], {81}	; 0x51
    1748:	0b000095 	bleq	19a4 <__code_start__-0x665c>
    174c:	03055001 	movweq	r5, #20481	; 0x5001
    1750:	00009580 	andeq	r9, r0, r0, lsl #11
    1754:	047d020b 	ldrbteq	r0, [sp], #-523	; 0x20b
    1758:	0b007402 	bleq	1e768 <__bss_end__+0x14bf8>
    175c:	05007d02 	streq	r7, [r0, #-3330]	; 0xd02
    1760:	0095e403 	addseq	lr, r5, r3, lsl #8
    1764:	84090000 	strhi	r0, [r9], #-0
    1768:	3a00008a 	bcc	1998 <__code_start__-0x6668>
    176c:	00000001 	andeq	r0, r0, r1
    1770:	0000720c 	andeq	r7, r0, ip, lsl #4
    1774:	00011800 	andeq	r1, r1, r0, lsl #16
    1778:	006b0d00 	rsbeq	r0, fp, r0, lsl #26
    177c:	00110000 	andseq	r0, r1, r0
    1780:	00010805 	andeq	r0, r1, r5, lsl #16
    1784:	04f20e00 	ldrbteq	r0, [r2], #3584	; 0xe00
    1788:	1e020000 	cdpne	0, 0, cr0, cr2, cr0, {0}
    178c:	0004040f 	andeq	r0, r4, pc, lsl #8
    1790:	25290200 	strcs	r0, [r9, #-512]!	; 0x200
    1794:	3a000000 	bcc	179c <__code_start__-0x6864>
    1798:	10000001 	andne	r0, r0, r1
    179c:	00000079 	andeq	r0, r0, r9, ror r0
    17a0:	c80e0011 	stmdagt	lr, {r0, r4}
    17a4:	02000004 	andeq	r0, r0, #4
    17a8:	013e0065 	teqeq	lr, r5, rrx
    17ac:	00040000 	andeq	r0, r4, r0
    17b0:	000008ba 			; <UNDEFINED> instruction: 0x000008ba
    17b4:	023b0104 	eorseq	r0, fp, #4, 2
    17b8:	c7010000 	strgt	r0, [r1, -r0]
    17bc:	15000005 	strne	r0, [r0, #-5]
    17c0:	94000004 	strls	r0, [r0], #-4
    17c4:	4400008a 	strmi	r0, [r0], #-138	; 0x8a
    17c8:	e2000000 	and	r0, r0, #0
    17cc:	02000007 	andeq	r0, r0, #7
    17d0:	6e690504 	cdpvs	5, 6, cr0, cr9, cr4, {0}
    17d4:	04030074 	streq	r0, [r3], #-116	; 0x74
    17d8:	00003d07 	andeq	r3, r0, r7, lsl #26
    17dc:	06010300 	streq	r0, [r1], -r0, lsl #6
    17e0:	000001bc 			; <UNDEFINED> instruction: 0x000001bc
    17e4:	c8050203 	stmdagt	r5, {r0, r1, r9}
    17e8:	03000001 	movweq	r0, #1
    17ec:	006d0504 	rsbeq	r0, sp, r4, lsl #10
    17f0:	08030000 	stmdaeq	r3, {}	; <UNPREDICTABLE>
    17f4:	00006805 	andeq	r6, r0, r5, lsl #16
    17f8:	08010300 	stmdaeq	r1, {r8, r9}
    17fc:	000001ba 			; <UNDEFINED> instruction: 0x000001ba
    1800:	12070203 	andne	r0, r7, #805306368	; 0x30000000
    1804:	03000001 	movweq	r0, #1
    1808:	00380704 	eorseq	r0, r8, r4, lsl #14
    180c:	08030000 	stmdaeq	r3, {}	; <UNPREDICTABLE>
    1810:	00003307 	andeq	r3, r0, r7, lsl #6
    1814:	07040300 	streq	r0, [r4, -r0, lsl #6]
    1818:	00000159 	andeq	r0, r0, r9, asr r1
    181c:	c3080103 	movwgt	r0, #33027	; 0x8103
    1820:	04000001 	streq	r0, [r0], #-1
    1824:	00007f04 	andeq	r7, r0, r4, lsl #30
    1828:	00720500 	rsbseq	r0, r2, r0, lsl #10
    182c:	e8060000 	stmda	r6, {}	; <UNPREDICTABLE>
    1830:	01000005 	tsteq	r0, r5
    1834:	008a9402 	addeq	r9, sl, r2, lsl #8
    1838:	00004400 	andeq	r4, r0, r0, lsl #8
    183c:	089c0100 	ldmeq	ip, {r8}
    1840:	07000001 	streq	r0, [r0, -r1]
    1844:	01006370 	tsteq	r0, r0, ror r3
    1848:	00002c02 	andeq	r2, r0, r2, lsl #24
    184c:	00081f00 	andeq	r1, r8, r0, lsl #30
    1850:	03ac0800 			; <UNDEFINED> instruction: 0x03ac0800
    1854:	01180000 	tsteq	r8, r0
    1858:	03050000 	movweq	r0, #20480	; 0x5000
    185c:	000095f0 	strdeq	r9, [r0], -r0
    1860:	008aa409 	addeq	sl, sl, r9, lsl #8
    1864:	00011d00 	andeq	r1, r1, r0, lsl #26
    1868:	8ac40a00 	bhi	ff104070 <__bss_end__+0xff0fa500>
    186c:	01240000 	teqeq	r4, r0
    1870:	00fe0000 	rscseq	r0, lr, r0
    1874:	010b0000 	mrseq	r0, (UNDEF: 11)
    1878:	0b320153 	bleq	c81dcc <__bss_end__+0xc7825c>
    187c:	03055201 	movweq	r5, #20993	; 0x5201
    1880:	000095f0 	strdeq	r9, [r0], -r0
    1884:	0551010b 	ldrbeq	r0, [r1, #-267]	; 0x10b
    1888:	00960803 	addseq	r0, r6, r3, lsl #16
    188c:	50010b00 	andpl	r0, r1, r0, lsl #22
    1890:	95800305 	strls	r0, [r0, #773]	; 0x305
    1894:	020b0000 	andeq	r0, fp, #0
    1898:	7402047d 	strvc	r0, [r2], #-1149	; 0x47d
    189c:	7d020b00 	vstrvc	d0, [r2, #-0]
    18a0:	2c030500 	cfstr32cs	mvfx0, [r3], {-0}
    18a4:	00000096 	muleq	r0, r6, r0
    18a8:	008ac809 	addeq	ip, sl, r9, lsl #16
    18ac:	00013a00 	andeq	r3, r1, r0, lsl #20
    18b0:	720c0000 	andvc	r0, ip, #0
    18b4:	18000000 	stmdane	r0, {}	; <UNPREDICTABLE>
    18b8:	0d000001 	stceq	0, cr0, [r0, #-4]
    18bc:	0000006b 	andeq	r0, r0, fp, rrx
    18c0:	08050015 	stmdaeq	r5, {r0, r2, r4}
    18c4:	0e000001 	cdpeq	0, 0, cr0, cr0, cr1, {0}
    18c8:	000004f2 	strdeq	r0, [r0], -r2
    18cc:	040f1e02 	streq	r1, [pc], #-3586	; 18d4 <__code_start__-0x672c>
    18d0:	02000004 	andeq	r0, r0, #4
    18d4:	00002529 	andeq	r2, r0, r9, lsr #10
    18d8:	00013a00 	andeq	r3, r1, r0, lsl #20
    18dc:	00791000 	rsbseq	r1, r9, r0
    18e0:	00110000 	andseq	r0, r1, r0
    18e4:	0004c80e 	andeq	ip, r4, lr, lsl #16
    18e8:	00650200 	rsbeq	r0, r5, r0, lsl #4
    18ec:	0000013e 	andeq	r0, r0, lr, lsr r1
    18f0:	09920004 	ldmibeq	r2, {r2}
    18f4:	01040000 	mrseq	r0, (UNDEF: 4)
    18f8:	0000023b 	andeq	r0, r0, fp, lsr r2
    18fc:	0005fe01 	andeq	pc, r5, r1, lsl #28
    1900:	00041500 	andeq	r1, r4, r0, lsl #10
    1904:	008ad800 	addeq	sp, sl, r0, lsl #16
    1908:	00004400 	andeq	r4, r0, r0, lsl #8
    190c:	00088800 	andeq	r8, r8, r0, lsl #16
    1910:	05040200 	streq	r0, [r4, #-512]	; 0x200
    1914:	00746e69 	rsbseq	r6, r4, r9, ror #28
    1918:	3d070403 	cfstrscc	mvf0, [r7, #-12]
    191c:	03000000 	movweq	r0, #0
    1920:	01bc0601 			; <UNDEFINED> instruction: 0x01bc0601
    1924:	02030000 	andeq	r0, r3, #0
    1928:	0001c805 	andeq	ip, r1, r5, lsl #16
    192c:	05040300 	streq	r0, [r4, #-768]	; 0x300
    1930:	0000006d 	andeq	r0, r0, sp, rrx
    1934:	68050803 	stmdavs	r5, {r0, r1, fp}
    1938:	03000000 	movweq	r0, #0
    193c:	01ba0801 			; <UNDEFINED> instruction: 0x01ba0801
    1940:	02030000 	andeq	r0, r3, #0
    1944:	00011207 	andeq	r1, r1, r7, lsl #4
    1948:	07040300 	streq	r0, [r4, -r0, lsl #6]
    194c:	00000038 	andeq	r0, r0, r8, lsr r0
    1950:	33070803 	movwcc	r0, #30723	; 0x7803
    1954:	03000000 	movweq	r0, #0
    1958:	01590704 	cmpeq	r9, r4, lsl #14
    195c:	01030000 	mrseq	r0, (UNDEF: 3)
    1960:	0001c308 	andeq	ip, r1, r8, lsl #6
    1964:	7f040400 	svcvc	0x00040400
    1968:	05000000 	streq	r0, [r0, #-0]
    196c:	00000072 	andeq	r0, r0, r2, ror r0
    1970:	00062306 	andeq	r2, r6, r6, lsl #6
    1974:	d8020100 	stmdale	r2, {r8}
    1978:	4400008a 	strmi	r0, [r0], #-138	; 0x8a
    197c:	01000000 	mrseq	r0, (UNDEF: 0)
    1980:	0001089c 	muleq	r1, ip, r8
    1984:	63700700 	cmnvs	r0, #0, 14
    1988:	2c020100 	stfcss	f0, [r2], {-0}
    198c:	3d000000 	stccc	0, cr0, [r0, #-0]
    1990:	08000008 	stmdaeq	r0, {r3}
    1994:	000003ac 	andeq	r0, r0, ip, lsr #7
    1998:	00000118 	andeq	r0, r0, r8, lsl r1
    199c:	96340305 	ldrtls	r0, [r4], -r5, lsl #6
    19a0:	e8090000 	stmda	r9, {}	; <UNPREDICTABLE>
    19a4:	1d00008a 	stcne	0, cr0, [r0, #-552]	; 0xfffffdd8
    19a8:	0a000001 	beq	19b4 <__code_start__-0x664c>
    19ac:	00008b08 	andeq	r8, r0, r8, lsl #22
    19b0:	00000124 	andeq	r0, r0, r4, lsr #2
    19b4:	000000fe 	strdeq	r0, [r0], -lr
    19b8:	0153010b 	cmpeq	r3, fp, lsl #2
    19bc:	52010b32 	andpl	r0, r1, #51200	; 0xc800
    19c0:	96340305 	ldrtls	r0, [r4], -r5, lsl #6
    19c4:	010b0000 	mrseq	r0, (UNDEF: 11)
    19c8:	4c030551 	cfstr32mi	mvfx0, [r3], {81}	; 0x51
    19cc:	0b000096 	bleq	1c2c <__code_start__-0x63d4>
    19d0:	03055001 	movweq	r5, #20481	; 0x5001
    19d4:	00009580 	andeq	r9, r0, r0, lsl #11
    19d8:	047d020b 	ldrbteq	r0, [sp], #-523	; 0x20b
    19dc:	0b007402 	bleq	1e9ec <__bss_end__+0x14e7c>
    19e0:	05007d02 	streq	r7, [r0, #-3330]	; 0xd02
    19e4:	00967403 	addseq	r7, r6, r3, lsl #8
    19e8:	0c090000 	stceq	0, cr0, [r9], {-0}
    19ec:	3a00008b 	bcc	1c20 <__code_start__-0x63e0>
    19f0:	00000001 	andeq	r0, r0, r1
    19f4:	0000720c 	andeq	r7, r0, ip, lsl #4
    19f8:	00011800 	andeq	r1, r1, r0, lsl #16
    19fc:	006b0d00 	rsbeq	r0, fp, r0, lsl #26
    1a00:	00150000 	andseq	r0, r5, r0
    1a04:	00010805 	andeq	r0, r1, r5, lsl #16
    1a08:	04f20e00 	ldrbteq	r0, [r2], #3584	; 0xe00
    1a0c:	1e020000 	cdpne	0, 0, cr0, cr2, cr0, {0}
    1a10:	0004040f 	andeq	r0, r4, pc, lsl #8
    1a14:	25290200 	strcs	r0, [r9, #-512]!	; 0x200
    1a18:	3a000000 	bcc	1a20 <__code_start__-0x65e0>
    1a1c:	10000001 	andne	r0, r0, r1
    1a20:	00000079 	andeq	r0, r0, r9, ror r0
    1a24:	c80e0011 	stmdagt	lr, {r0, r4}
    1a28:	02000004 	andeq	r0, r0, #4
    1a2c:	013e0065 	teqeq	lr, r5, rrx
    1a30:	00040000 	andeq	r0, r4, r0
    1a34:	00000a6a 	andeq	r0, r0, sl, ror #20
    1a38:	023b0104 	eorseq	r0, fp, #4, 2
    1a3c:	46010000 	strmi	r0, [r1], -r0
    1a40:	15000006 	strne	r0, [r0, #-6]
    1a44:	1c000004 	stcne	0, cr0, [r0], {4}
    1a48:	4400008b 	strmi	r0, [r0], #-139	; 0x8b
    1a4c:	32000000 	andcc	r0, r0, #0
    1a50:	02000009 	andeq	r0, r0, #9
    1a54:	6e690504 	cdpvs	5, 6, cr0, cr9, cr4, {0}
    1a58:	04030074 	streq	r0, [r3], #-116	; 0x74
    1a5c:	00003d07 	andeq	r3, r0, r7, lsl #26
    1a60:	06010300 	streq	r0, [r1], -r0, lsl #6
    1a64:	000001bc 			; <UNDEFINED> instruction: 0x000001bc
    1a68:	c8050203 	stmdagt	r5, {r0, r1, r9}
    1a6c:	03000001 	movweq	r0, #1
    1a70:	006d0504 	rsbeq	r0, sp, r4, lsl #10
    1a74:	08030000 	stmdaeq	r3, {}	; <UNPREDICTABLE>
    1a78:	00006805 	andeq	r6, r0, r5, lsl #16
    1a7c:	08010300 	stmdaeq	r1, {r8, r9}
    1a80:	000001ba 			; <UNDEFINED> instruction: 0x000001ba
    1a84:	12070203 	andne	r0, r7, #805306368	; 0x30000000
    1a88:	03000001 	movweq	r0, #1
    1a8c:	00380704 	eorseq	r0, r8, r4, lsl #14
    1a90:	08030000 	stmdaeq	r3, {}	; <UNPREDICTABLE>
    1a94:	00003307 	andeq	r3, r0, r7, lsl #6
    1a98:	07040300 	streq	r0, [r4, -r0, lsl #6]
    1a9c:	00000159 	andeq	r0, r0, r9, asr r1
    1aa0:	c3080103 	movwgt	r0, #33027	; 0x8103
    1aa4:	04000001 	streq	r0, [r0], #-1
    1aa8:	00007f04 	andeq	r7, r0, r4, lsl #30
    1aac:	00720500 	rsbseq	r0, r2, r0, lsl #10
    1ab0:	39060000 	stmdbcc	r6, {}	; <UNPREDICTABLE>
    1ab4:	01000006 	tsteq	r0, r6
    1ab8:	008b1c02 	addeq	r1, fp, r2, lsl #24
    1abc:	00004400 	andeq	r4, r0, r0, lsl #8
    1ac0:	089c0100 	ldmeq	ip, {r8}
    1ac4:	07000001 	streq	r0, [r0, -r1]
    1ac8:	01006370 	tsteq	r0, r0, ror r3
    1acc:	00002c02 	andeq	r2, r0, r2, lsl #24
    1ad0:	00085b00 	andeq	r5, r8, r0, lsl #22
    1ad4:	03ac0800 			; <UNDEFINED> instruction: 0x03ac0800
    1ad8:	01180000 	tsteq	r8, r0
    1adc:	03050000 	movweq	r0, #20480	; 0x5000
    1ae0:	00009684 	andeq	r9, r0, r4, lsl #13
    1ae4:	008b2c09 	addeq	r2, fp, r9, lsl #24
    1ae8:	00011d00 	andeq	r1, r1, r0, lsl #26
    1aec:	8b4c0a00 	blhi	13042f4 <__bss_end__+0x12fa784>
    1af0:	01240000 	teqeq	r4, r0
    1af4:	00fe0000 	rscseq	r0, lr, r0
    1af8:	010b0000 	mrseq	r0, (UNDEF: 11)
    1afc:	0b320153 	bleq	c82050 <__bss_end__+0xc784e0>
    1b00:	03055201 	movweq	r5, #20993	; 0x5201
    1b04:	00009684 	andeq	r9, r0, r4, lsl #13
    1b08:	0551010b 	ldrbeq	r0, [r1, #-267]	; 0x10b
    1b0c:	00969403 	addseq	r9, r6, r3, lsl #8
    1b10:	50010b00 	andpl	r0, r1, r0, lsl #22
    1b14:	95800305 	strls	r0, [r0, #773]	; 0x305
    1b18:	020b0000 	andeq	r0, fp, #0
    1b1c:	7402047d 	strvc	r0, [r2], #-1149	; 0x47d
    1b20:	7d020b00 	vstrvc	d0, [r2, #-0]
    1b24:	b8030500 	stmdalt	r3, {r8, sl}
    1b28:	00000096 	muleq	r0, r6, r0
    1b2c:	008b5009 	addeq	r5, fp, r9
    1b30:	00013a00 	andeq	r3, r1, r0, lsl #20
    1b34:	720c0000 	andvc	r0, ip, #0
    1b38:	18000000 	stmdane	r0, {}	; <UNPREDICTABLE>
    1b3c:	0d000001 	stceq	0, cr0, [r0, #-4]
    1b40:	0000006b 	andeq	r0, r0, fp, rrx
    1b44:	0805000c 	stmdaeq	r5, {r2, r3}
    1b48:	0e000001 	cdpeq	0, 0, cr0, cr0, cr1, {0}
    1b4c:	000004f2 	strdeq	r0, [r0], -r2
    1b50:	040f1e02 	streq	r1, [pc], #-3586	; 1b58 <__code_start__-0x64a8>
    1b54:	02000004 	andeq	r0, r0, #4
    1b58:	00002529 	andeq	r2, r0, r9, lsr #10
    1b5c:	00013a00 	andeq	r3, r1, r0, lsl #20
    1b60:	00791000 	rsbseq	r1, r9, r0
    1b64:	00110000 	andseq	r0, r1, r0
    1b68:	0004c80e 	andeq	ip, r4, lr, lsl #16
    1b6c:	00650200 	rsbeq	r0, r5, r0, lsl #4
    1b70:	0000013e 	andeq	r0, r0, lr, lsr r1
    1b74:	0b420004 	bleq	1081b8c <__bss_end__+0x107801c>
    1b78:	01040000 	mrseq	r0, (UNDEF: 4)
    1b7c:	0000023b 	andeq	r0, r0, fp, lsr r2
    1b80:	00066801 	andeq	r6, r6, r1, lsl #16
    1b84:	00041500 	andeq	r1, r4, r0, lsl #10
    1b88:	008b6000 	addeq	r6, fp, r0
    1b8c:	00004400 	andeq	r4, r0, r0, lsl #8
    1b90:	0009d900 	andeq	sp, r9, r0, lsl #18
    1b94:	05040200 	streq	r0, [r4, #-512]	; 0x200
    1b98:	00746e69 	rsbseq	r6, r4, r9, ror #28
    1b9c:	3d070403 	cfstrscc	mvf0, [r7, #-12]
    1ba0:	03000000 	movweq	r0, #0
    1ba4:	01bc0601 			; <UNDEFINED> instruction: 0x01bc0601
    1ba8:	02030000 	andeq	r0, r3, #0
    1bac:	0001c805 	andeq	ip, r1, r5, lsl #16
    1bb0:	05040300 	streq	r0, [r4, #-768]	; 0x300
    1bb4:	0000006d 	andeq	r0, r0, sp, rrx
    1bb8:	68050803 	stmdavs	r5, {r0, r1, fp}
    1bbc:	03000000 	movweq	r0, #0
    1bc0:	01ba0801 			; <UNDEFINED> instruction: 0x01ba0801
    1bc4:	02030000 	andeq	r0, r3, #0
    1bc8:	00011207 	andeq	r1, r1, r7, lsl #4
    1bcc:	07040300 	streq	r0, [r4, -r0, lsl #6]
    1bd0:	00000038 	andeq	r0, r0, r8, lsr r0
    1bd4:	33070803 	movwcc	r0, #30723	; 0x7803
    1bd8:	03000000 	movweq	r0, #0
    1bdc:	01590704 	cmpeq	r9, r4, lsl #14
    1be0:	01030000 	mrseq	r0, (UNDEF: 3)
    1be4:	0001c308 	andeq	ip, r1, r8, lsl #6
    1be8:	7f040400 	svcvc	0x00040400
    1bec:	05000000 	streq	r0, [r0, #-0]
    1bf0:	00000072 	andeq	r0, r0, r2, ror r0
    1bf4:	00007206 	andeq	r7, r0, r6, lsl #4
    1bf8:	00009400 	andeq	r9, r0, r0, lsl #8
    1bfc:	006b0700 	rsbeq	r0, fp, r0, lsl #14
    1c00:	00190000 	andseq	r0, r9, r0
    1c04:	00068808 	andeq	r8, r6, r8, lsl #16
    1c08:	60020100 	andvs	r0, r2, r0, lsl #2
    1c0c:	4400008b 	strmi	r0, [r0], #-139	; 0x8b
    1c10:	01000000 	mrseq	r0, (UNDEF: 0)
    1c14:	0001189c 	muleq	r1, ip, r8
    1c18:	63700900 	cmnvs	r0, #0, 18
    1c1c:	2c020100 	stfcss	f0, [r2], {-0}
    1c20:	79000000 	stmdbvc	r0, {}	; <UNPREDICTABLE>
    1c24:	0a000008 	beq	1c4c <__code_start__-0x63b4>
    1c28:	000003ac 	andeq	r0, r0, ip, lsr #7
    1c2c:	00000118 	andeq	r0, r0, r8, lsl r1
    1c30:	96c00305 	strbls	r0, [r0], r5, lsl #6
    1c34:	700b0000 	andvc	r0, fp, r0
    1c38:	1d00008b 	stcne	0, cr0, [r0, #-556]	; 0xfffffdd4
    1c3c:	0c000001 	stceq	0, cr0, [r0], {1}
    1c40:	00008b90 	muleq	r0, r0, fp
    1c44:	00000124 	andeq	r0, r0, r4, lsr #2
    1c48:	0000010e 	andeq	r0, r0, lr, lsl #2
    1c4c:	0153010d 	cmpeq	r3, sp, lsl #2
    1c50:	52010d32 	andpl	r0, r1, #3200	; 0xc80
    1c54:	96c00305 	strbls	r0, [r0], r5, lsl #6
    1c58:	010d0000 	mrseq	r0, (UNDEF: 13)
    1c5c:	dc030551 	cfstr32le	mvfx0, [r3], {81}	; 0x51
    1c60:	0d000096 	stceq	0, cr0, [r0, #-600]	; 0xfffffda8
    1c64:	03055001 	movweq	r5, #20481	; 0x5001
    1c68:	00009580 	andeq	r9, r0, r0, lsl #11
    1c6c:	047d020d 	ldrbteq	r0, [sp], #-525	; 0x20d
    1c70:	0d007402 	cfstrseq	mvf7, [r0, #-8]
    1c74:	05007d02 	streq	r7, [r0, #-3330]	; 0xd02
    1c78:	0096fc03 	addseq	pc, r6, r3, lsl #24
    1c7c:	940b0000 	strls	r0, [fp], #-0
    1c80:	3a00008b 	bcc	1eb4 <__code_start__-0x614c>
    1c84:	00000001 	andeq	r0, r0, r1
    1c88:	00008405 	andeq	r8, r0, r5, lsl #8
    1c8c:	04f20e00 	ldrbteq	r0, [r2], #3584	; 0xe00
    1c90:	1e020000 	cdpne	0, 0, cr0, cr2, cr0, {0}
    1c94:	0004040f 	andeq	r0, r4, pc, lsl #8
    1c98:	25290200 	strcs	r0, [r9, #-512]!	; 0x200
    1c9c:	3a000000 	bcc	1ca4 <__code_start__-0x635c>
    1ca0:	10000001 	andne	r0, r0, r1
    1ca4:	00000079 	andeq	r0, r0, r9, ror r0
    1ca8:	c80e0011 	stmdagt	lr, {r0, r4}
    1cac:	02000004 	andeq	r0, r0, #4
    1cb0:	013e0065 	teqeq	lr, r5, rrx
    1cb4:	00040000 	andeq	r0, r4, r0
    1cb8:	00000c1a 	andeq	r0, r0, sl, lsl ip
    1cbc:	023b0104 	eorseq	r0, fp, #4, 2
    1cc0:	a2010000 	andge	r0, r1, #0
    1cc4:	15000006 	strne	r0, [r0, #-6]
    1cc8:	a4000004 	strge	r0, [r0], #-4
    1ccc:	4400008b 	strmi	r0, [r0], #-139	; 0x8b
    1cd0:	7e000000 	cdpvc	0, 0, cr0, cr0, cr0, {0}
    1cd4:	0200000a 	andeq	r0, r0, #10
    1cd8:	6e690504 	cdpvs	5, 6, cr0, cr9, cr4, {0}
    1cdc:	04030074 	streq	r0, [r3], #-116	; 0x74
    1ce0:	00003d07 	andeq	r3, r0, r7, lsl #26
    1ce4:	06010300 	streq	r0, [r1], -r0, lsl #6
    1ce8:	000001bc 			; <UNDEFINED> instruction: 0x000001bc
    1cec:	c8050203 	stmdagt	r5, {r0, r1, r9}
    1cf0:	03000001 	movweq	r0, #1
    1cf4:	006d0504 	rsbeq	r0, sp, r4, lsl #10
    1cf8:	08030000 	stmdaeq	r3, {}	; <UNPREDICTABLE>
    1cfc:	00006805 	andeq	r6, r0, r5, lsl #16
    1d00:	08010300 	stmdaeq	r1, {r8, r9}
    1d04:	000001ba 			; <UNDEFINED> instruction: 0x000001ba
    1d08:	12070203 	andne	r0, r7, #805306368	; 0x30000000
    1d0c:	03000001 	movweq	r0, #1
    1d10:	00380704 	eorseq	r0, r8, r4, lsl #14
    1d14:	08030000 	stmdaeq	r3, {}	; <UNPREDICTABLE>
    1d18:	00003307 	andeq	r3, r0, r7, lsl #6
    1d1c:	07040300 	streq	r0, [r4, -r0, lsl #6]
    1d20:	00000159 	andeq	r0, r0, r9, asr r1
    1d24:	c3080103 	movwgt	r0, #33027	; 0x8103
    1d28:	04000001 	streq	r0, [r0], #-1
    1d2c:	00007f04 	andeq	r7, r0, r4, lsl #30
    1d30:	00720500 	rsbseq	r0, r2, r0, lsl #10
    1d34:	cd060000 	stcgt	0, cr0, [r6, #-0]
    1d38:	01000006 	tsteq	r0, r6
    1d3c:	008ba402 	addeq	sl, fp, r2, lsl #8
    1d40:	00004400 	andeq	r4, r0, r0, lsl #8
    1d44:	089c0100 	ldmeq	ip, {r8}
    1d48:	07000001 	streq	r0, [r0, -r1]
    1d4c:	01006370 	tsteq	r0, r0, ror r3
    1d50:	00002c02 	andeq	r2, r0, r2, lsl #24
    1d54:	00089700 	andeq	r9, r8, r0, lsl #14
    1d58:	03ac0800 			; <UNDEFINED> instruction: 0x03ac0800
    1d5c:	01180000 	tsteq	r8, r0
    1d60:	03050000 	movweq	r0, #20480	; 0x5000
    1d64:	00009700 	andeq	r9, r0, r0, lsl #14
    1d68:	008bb409 	addeq	fp, fp, r9, lsl #8
    1d6c:	00011d00 	andeq	r1, r1, r0, lsl #26
    1d70:	8bd40a00 	blhi	ff504578 <__bss_end__+0xff4faa08>
    1d74:	01240000 	teqeq	r4, r0
    1d78:	00fe0000 	rscseq	r0, lr, r0
    1d7c:	010b0000 	mrseq	r0, (UNDEF: 11)
    1d80:	0b320153 	bleq	c822d4 <__bss_end__+0xc78764>
    1d84:	03055201 	movweq	r5, #20993	; 0x5201
    1d88:	00009700 	andeq	r9, r0, r0, lsl #14
    1d8c:	0551010b 	ldrbeq	r0, [r1, #-267]	; 0x10b
    1d90:	00972003 	addseq	r2, r7, r3
    1d94:	50010b00 	andpl	r0, r1, r0, lsl #22
    1d98:	95800305 	strls	r0, [r0, #773]	; 0x305
    1d9c:	020b0000 	andeq	r0, fp, #0
    1da0:	7402047d 	strvc	r0, [r2], #-1149	; 0x47d
    1da4:	7d020b00 	vstrvc	d0, [r2, #-0]
    1da8:	4c030500 	cfstr32mi	mvfx0, [r3], {-0}
    1dac:	00000097 	muleq	r0, r7, r0
    1db0:	008bd809 	addeq	sp, fp, r9, lsl #16
    1db4:	00013a00 	andeq	r3, r1, r0, lsl #20
    1db8:	720c0000 	andvc	r0, ip, #0
    1dbc:	18000000 	stmdane	r0, {}	; <UNPREDICTABLE>
    1dc0:	0d000001 	stceq	0, cr0, [r0, #-4]
    1dc4:	0000006b 	andeq	r0, r0, fp, rrx
    1dc8:	0805001c 	stmdaeq	r5, {r2, r3, r4}
    1dcc:	0e000001 	cdpeq	0, 0, cr0, cr0, cr1, {0}
    1dd0:	000004f2 	strdeq	r0, [r0], -r2
    1dd4:	040f1e02 	streq	r1, [pc], #-3586	; 1ddc <__code_start__-0x6224>
    1dd8:	02000004 	andeq	r0, r0, #4
    1ddc:	00002529 	andeq	r2, r0, r9, lsr #10
    1de0:	00013a00 	andeq	r3, r1, r0, lsl #20
    1de4:	00791000 	rsbseq	r1, r9, r0
    1de8:	00110000 	andseq	r0, r1, r0
    1dec:	0004c80e 	andeq	ip, r4, lr, lsl #16
    1df0:	00650200 	rsbeq	r0, r5, r0, lsl #4
    1df4:	00000098 	muleq	r0, r8, r0
    1df8:	0cf20004 	ldcleq	0, cr0, [r2], #16
    1dfc:	01040000 	mrseq	r0, (UNDEF: 4)
    1e00:	0000023b 	andeq	r0, r0, fp, lsr r2
    1e04:	0006ea01 	andeq	lr, r6, r1, lsl #20
    1e08:	00041500 	andeq	r1, r4, r0, lsl #10
    1e0c:	008be800 	addeq	lr, fp, r0, lsl #16
    1e10:	00000800 	andeq	r0, r0, r0, lsl #16
    1e14:	000b2e00 	andeq	r2, fp, r0, lsl #28
    1e18:	05040200 	streq	r0, [r4, #-512]	; 0x200
    1e1c:	00746e69 	rsbseq	r6, r4, r9, ror #28
    1e20:	3d070403 	cfstrscc	mvf0, [r7, #-12]
    1e24:	03000000 	movweq	r0, #0
    1e28:	01bc0601 			; <UNDEFINED> instruction: 0x01bc0601
    1e2c:	02030000 	andeq	r0, r3, #0
    1e30:	0001c805 	andeq	ip, r1, r5, lsl #16
    1e34:	05040300 	streq	r0, [r4, #-768]	; 0x300
    1e38:	0000006d 	andeq	r0, r0, sp, rrx
    1e3c:	68050803 	stmdavs	r5, {r0, r1, fp}
    1e40:	03000000 	movweq	r0, #0
    1e44:	01ba0801 			; <UNDEFINED> instruction: 0x01ba0801
    1e48:	02030000 	andeq	r0, r3, #0
    1e4c:	00011207 	andeq	r1, r1, r7, lsl #4
    1e50:	07040300 	streq	r0, [r4, -r0, lsl #6]
    1e54:	00000038 	andeq	r0, r0, r8, lsr r0
    1e58:	33070803 	movwcc	r0, #30723	; 0x7803
    1e5c:	03000000 	movweq	r0, #0
    1e60:	01590704 	cmpeq	r9, r4, lsl #14
    1e64:	01030000 	mrseq	r0, (UNDEF: 3)
    1e68:	0001c308 	andeq	ip, r1, r8, lsl #6
    1e6c:	055c0400 	ldrbeq	r0, [ip, #-1024]	; 0x400
    1e70:	04010000 	streq	r0, [r1], #-0
    1e74:	00008be8 	andeq	r8, r0, r8, ror #23
    1e78:	00000004 	andeq	r0, r0, r4
    1e7c:	06049c01 	streq	r9, [r4], -r1, lsl #24
    1e80:	01000005 	tsteq	r0, r5
    1e84:	008bec05 	addeq	lr, fp, r5, lsl #24
    1e88:	00000400 	andeq	r0, r0, r0, lsl #8
    1e8c:	009c0100 	addseq	r0, ip, r0, lsl #2
    1e90:	000001d7 	ldrdeq	r0, [r0], -r7
    1e94:	0d340004 	ldceq	0, cr0, [r4, #-16]!
    1e98:	01040000 	mrseq	r0, (UNDEF: 4)
    1e9c:	0000023b 	andeq	r0, r0, fp, lsr r2
    1ea0:	00072d01 	andeq	r2, r7, r1, lsl #26
    1ea4:	00041500 	andeq	r1, r4, r0, lsl #10
    1ea8:	008bf000 	addeq	pc, fp, r0
    1eac:	00006c00 	andeq	r6, r0, r0, lsl #24
    1eb0:	000b7900 	andeq	r7, fp, r0, lsl #18
    1eb4:	05040200 	streq	r0, [r4, #-512]	; 0x200
    1eb8:	00746e69 	rsbseq	r6, r4, r9, ror #28
    1ebc:	3d070403 	cfstrscc	mvf0, [r7, #-12]
    1ec0:	03000000 	movweq	r0, #0
    1ec4:	01bc0601 			; <UNDEFINED> instruction: 0x01bc0601
    1ec8:	02030000 	andeq	r0, r3, #0
    1ecc:	0001c805 	andeq	ip, r1, r5, lsl #16
    1ed0:	05040300 	streq	r0, [r4, #-768]	; 0x300
    1ed4:	0000006d 	andeq	r0, r0, sp, rrx
    1ed8:	68050803 	stmdavs	r5, {r0, r1, fp}
    1edc:	03000000 	movweq	r0, #0
    1ee0:	01ba0801 			; <UNDEFINED> instruction: 0x01ba0801
    1ee4:	02030000 	andeq	r0, r3, #0
    1ee8:	00011207 	andeq	r1, r1, r7, lsl #4
    1eec:	07040300 	streq	r0, [r4, -r0, lsl #6]
    1ef0:	00000038 	andeq	r0, r0, r8, lsr r0
    1ef4:	33070803 	movwcc	r0, #30723	; 0x7803
    1ef8:	03000000 	movweq	r0, #0
    1efc:	01590704 	cmpeq	r9, r4, lsl #14
    1f00:	01030000 	mrseq	r0, (UNDEF: 3)
    1f04:	0001c308 	andeq	ip, r1, r8, lsl #6
    1f08:	02040400 	andeq	r0, r4, #0, 8
    1f0c:	0000f014 	andeq	pc, r0, r4, lsl r0	; <UNPREDICTABLE>
    1f10:	00c60500 	sbceq	r0, r6, r0, lsl #10
    1f14:	e4800000 	str	r0, [r0], #0
    1f18:	05028082 	streq	r8, [r2, #-130]	; 0x82
    1f1c:	000002a7 	andeq	r0, r0, r7, lsr #5
    1f20:	8082e480 	addhi	lr, r2, r0, lsl #9
    1f24:	00e30502 	rsceq	r0, r3, r2, lsl #10
    1f28:	e4840000 	str	r0, [r4], #0
    1f2c:	05028082 	streq	r8, [r2, #-130]	; 0x82
    1f30:	000000f1 	strdeq	r0, [r0], -r1
    1f34:	8082e488 	addhi	lr, r2, r8, lsl #9
    1f38:	02fd0502 	rscseq	r0, sp, #8388608	; 0x800000
    1f3c:	e48c0000 	str	r0, [ip], #0
    1f40:	05028082 	streq	r8, [r2, #-130]	; 0x82
    1f44:	00000131 	andeq	r0, r0, r1, lsr r1
    1f48:	8082e490 	umullhi	lr, r2, r0, r4
    1f4c:	013f0502 	teqeq	pc, r2, lsl #10
    1f50:	e4940000 	ldr	r0, [r4], #0
    1f54:	05028082 	streq	r8, [r2, #-130]	; 0x82
    1f58:	000002b9 			; <UNDEFINED> instruction: 0x000002b9
    1f5c:	8082e498 	umullhi	lr, r2, r8, r4
    1f60:	004a0502 	subeq	r0, sl, r2, lsl #10
    1f64:	e49c0000 	ldr	r0, [ip], #0
    1f68:	05028082 	streq	r8, [r2, #-130]	; 0x82
    1f6c:	00000059 	andeq	r0, r0, r9, asr r0
    1f70:	8082e4a0 	addhi	lr, r2, r0, lsr #9
    1f74:	00ff0502 	rscseq	r0, pc, r2, lsl #10
    1f78:	e4a40000 	strt	r0, [r4], #0
    1f7c:	00028082 	andeq	r8, r2, r2, lsl #1
    1f80:	00018006 	andeq	r8, r1, r6
    1f84:	f01b0100 			; <UNDEFINED> instruction: 0xf01b0100
    1f88:	6c00008b 	stcvs	0, cr0, [r0], {139}	; 0x8b
    1f8c:	01000000 	mrseq	r0, (UNDEF: 0)
    1f90:	0001a59c 	muleq	r1, ip, r5
    1f94:	07070700 	streq	r0, [r7, -r0, lsl #14]
    1f98:	23010000 	movwcs	r0, #4096	; 0x1000
    1f9c:	0000002c 	andeq	r0, r0, ip, lsr #32
    1fa0:	00071807 	andeq	r1, r7, r7, lsl #16
    1fa4:	2c240100 	stfcss	f0, [r4], #-0
    1fa8:	08000000 	stmdaeq	r0, {}	; <UNPREDICTABLE>
    1fac:	00747364 	rsbseq	r7, r4, r4, ror #6
    1fb0:	01a52701 			; <UNDEFINED> instruction: 0x01a52701
    1fb4:	09000000 	stmdbeq	r0, {}	; <UNPREDICTABLE>
    1fb8:	00637273 	rsbeq	r7, r3, r3, ror r2
    1fbc:	01a52801 			; <UNDEFINED> instruction: 0x01a52801
    1fc0:	6e0a0000 	cdpvs	0, 0, cr0, cr10, cr0, {0}
    1fc4:	2c290100 	stfcss	f0, [r9], #-0
    1fc8:	01000000 	mrseq	r0, (UNDEF: 0)
    1fcc:	8c240b50 	stchi	11, cr0, [r4], #-320	; 0xfffffec0
    1fd0:	00240000 	eoreq	r0, r4, r0
    1fd4:	01580000 	cmpeq	r8, r0
    1fd8:	690c0000 	stmdbvs	ip, {}	; <UNPREDICTABLE>
    1fdc:	252a0100 	strcs	r0, [sl, #-256]!	; 0x100
    1fe0:	b5000000 	strlt	r0, [r0, #-0]
    1fe4:	00000008 	andeq	r0, r0, r8
    1fe8:	008bf80d 	addeq	pc, fp, sp, lsl #16
    1fec:	0001c100 	andeq	ip, r1, r0, lsl #2
    1ff0:	8c040e00 	stchi	14, cr0, [r4], {-0}
    1ff4:	01c80000 	biceq	r0, r8, r0
    1ff8:	017e0000 	cmneq	lr, r0
    1ffc:	010f0000 	mrseq	r0, CPSR
    2000:	ff090251 			; <UNDEFINED> instruction: 0xff090251
    2004:	0550010f 	ldrbeq	r0, [r0, #-271]	; 0x10f
    2008:	00b21c0c 	adcseq	r1, r2, ip, lsl #24
    200c:	100e0020 	andne	r0, lr, r0, lsr #32
    2010:	c800008c 	stmdagt	r0, {r2, r3, r7}
    2014:	9b000001 	blls	2020 <__code_start__-0x5fe0>
    2018:	0f000001 	svceq	0x00000001
    201c:	09025101 	stmdbeq	r2, {r0, r8, ip, lr}
    2020:	50010fff 	strdpl	r0, [r1], -pc	; <UNPREDICTABLE>
    2024:	b2200c05 	eorlt	r0, r0, #1280	; 0x500
    2028:	0d002000 	stceq	0, cr2, [r0, #-0]
    202c:	00008c14 	andeq	r8, r0, r4, lsl ip
    2030:	000001c1 	andeq	r0, r0, r1, asr #3
    2034:	2c041000 	stccs	0, cr1, [r4], {-0}
    2038:	07000000 	streq	r0, [r0, -r0]
    203c:	00000707 	andeq	r0, r0, r7, lsl #14
    2040:	002c2301 	eoreq	r2, ip, r1, lsl #6
    2044:	18070000 	stmdane	r7, {}	; <UNPREDICTABLE>
    2048:	01000007 	tsteq	r0, r7
    204c:	00002c24 	andeq	r2, r0, r4, lsr #24
    2050:	01251100 	teqeq	r5, r0, lsl #2
    2054:	89030000 	stmdbhi	r3, {}	; <UNPREDICTABLE>
    2058:	00031a12 	andeq	r1, r3, r2, lsl sl
    205c:	139b0300 	orrsne	r0, fp, #0, 6
    2060:	0000002c 	andeq	r0, r0, ip, lsr #32
    2064:	00002c13 	andeq	r2, r0, r3, lsl ip
    2068:	ad000000 	stcge	0, cr0, [r0, #-0]
    206c:	04000001 	streq	r0, [r0], #-1
    2070:	000e3a00 	andeq	r3, lr, r0, lsl #20
    2074:	3b010400 	blcc	4307c <__bss_end__+0x3950c>
    2078:	01000002 	tsteq	r0, r2
    207c:	00000754 	andeq	r0, r0, r4, asr r7
    2080:	00000415 	andeq	r0, r0, r5, lsl r4
	...
    208c:	00000c46 	andeq	r0, r0, r6, asr #24
    2090:	69050402 	stmdbvs	r5, {r1, sl}
    2094:	0300746e 	movweq	r7, #1134	; 0x46e
    2098:	003d0704 	eorseq	r0, sp, r4, lsl #14
    209c:	01030000 	mrseq	r0, (UNDEF: 3)
    20a0:	0001bc06 	andeq	fp, r1, r6, lsl #24
    20a4:	05020300 	streq	r0, [r2, #-768]	; 0x300
    20a8:	000001c8 	andeq	r0, r0, r8, asr #3
    20ac:	6d050403 	cfstrsvs	mvf0, [r5, #-12]
    20b0:	03000000 	movweq	r0, #0
    20b4:	00680508 	rsbeq	r0, r8, r8, lsl #10
    20b8:	01030000 	mrseq	r0, (UNDEF: 3)
    20bc:	0001ba08 	andeq	fp, r1, r8, lsl #20
    20c0:	07020300 	streq	r0, [r2, -r0, lsl #6]
    20c4:	00000112 	andeq	r0, r0, r2, lsl r1
    20c8:	38070403 	stmdacc	r7, {r0, r1, sl}
    20cc:	03000000 	movweq	r0, #0
    20d0:	00330708 	eorseq	r0, r3, r8, lsl #14
    20d4:	04030000 	streq	r0, [r3], #-0
    20d8:	00015907 	andeq	r5, r1, r7, lsl #18
    20dc:	08010300 	stmdaeq	r1, {r8, r9}
    20e0:	000001c3 	andeq	r0, r0, r3, asr #3
    20e4:	00074604 	andeq	r4, r7, r4, lsl #12
    20e8:	250e0100 	strcs	r0, [lr, #-256]	; 0x100
    20ec:	5c000000 	stcpl	0, cr0, [r0], {-0}
    20f0:	1800008c 	stmdane	r0, {r2, r3, r7}
    20f4:	01000000 	mrseq	r0, (UNDEF: 0)
    20f8:	0000a29c 	muleq	r0, ip, r2
    20fc:	07ab0500 	streq	r0, [fp, r0, lsl #10]!
    2100:	0f010000 	svceq	0x00010000
    2104:	0000002c 	andeq	r0, r0, ip, lsr #32
    2108:	000008d4 	ldrdeq	r0, [r0], -r4
    210c:	07880600 	streq	r0, [r8, r0, lsl #12]
    2110:	17010000 	strne	r0, [r1, -r0]
    2114:	00008c74 	andeq	r8, r0, r4, ror ip
    2118:	00000014 	andeq	r0, r0, r4, lsl r0
    211c:	00c79c01 	sbceq	r9, r7, r1, lsl #24
    2120:	ab050000 	blge	142128 <__bss_end__+0x1385b8>
    2124:	01000007 	tsteq	r0, r7
    2128:	00002c18 	andeq	r2, r0, r8, lsl ip
    212c:	0008f300 	andeq	pc, r8, r0, lsl #6
    2130:	2e060000 	cdpcs	0, 0, cr0, cr6, cr0, {0}
    2134:	01000005 	tsteq	r0, r5
    2138:	008c881f 	addeq	r8, ip, pc, lsl r8
    213c:	00004800 	andeq	r4, r0, r0, lsl #16
    2140:	779c0100 	ldrvc	r0, [ip, r0, lsl #2]
    2144:	07000001 	streq	r0, [r0, -r1]
    2148:	000007a3 	andeq	r0, r0, r3, lsr #15
    214c:	01772a01 	cmneq	r7, r1, lsl #20
    2150:	001c0000 	andseq	r0, ip, r0
    2154:	80072010 	andhi	r2, r7, r0, lsl r0
    2158:	01000007 	tsteq	r0, r7
    215c:	0001772b 	andeq	r7, r1, fp, lsr #14
    2160:	10002400 	andne	r2, r0, r0, lsl #8
    2164:	07970720 	ldreq	r0, [r7, r0, lsr #14]
    2168:	2c010000 	stccs	0, cr0, [r1], {-0}
    216c:	00000177 	andeq	r0, r0, r7, ror r1
    2170:	5a000000 	bpl	2178 <__code_start__-0x5e88>
    2174:	00076708 	andeq	r6, r7, r8, lsl #14
    2178:	772d0100 	strvc	r0, [sp, -r0, lsl #2]!
    217c:	20000001 	andcs	r0, r0, r1
    2180:	008c9009 	addeq	r9, ip, r9
    2184:	00007900 	andeq	r7, r0, r0, lsl #18
    2188:	8c9c0900 	ldchi	9, cr0, [ip], {0}
    218c:	00a20000 	adceq	r0, r2, r0
    2190:	a40a0000 	strge	r0, [sl], #-0
    2194:	8d00008c 	stchi	0, cr0, [r0, #-560]	; 0xfffffdd0
    2198:	3a000001 	bcc	21a4 <__code_start__-0x5e5c>
    219c:	0b000001 	bleq	21a8 <__code_start__-0x5e58>
    21a0:	4e015001 	cdpmi	0, 0, cr5, cr1, cr1, {0}
    21a4:	8cb00a00 	vldmiahi	r0!, {s0-s-1}
    21a8:	019e0000 	orrseq	r0, lr, r0
    21ac:	015a0000 	cmpeq	sl, r0
    21b0:	010b0000 	mrseq	r0, (UNDEF: 11)
    21b4:	010c0551 	tsteq	ip, r1, asr r5
    21b8:	0b5a0000 	bleq	16821c0 <__bss_end__+0x1678650>
    21bc:	0c055001 	stceq	0, cr5, [r5], {1}
    21c0:	20100024 	andscs	r0, r0, r4, lsr #32
    21c4:	8cbc0c00 	ldchi	12, cr0, [ip]
    21c8:	019e0000 	orrseq	r0, lr, r0
    21cc:	010b0000 	mrseq	r0, (UNDEF: 11)
    21d0:	200c0551 	andcs	r0, ip, r1, asr r5
    21d4:	0b5a0000 	bleq	16821dc <__bss_end__+0x167866c>
    21d8:	0c055001 	stceq	0, cr5, [r5], {1}
    21dc:	2010001c 	andscs	r0, r0, ip, lsl r0
    21e0:	250d0000 	strcs	r0, [sp, #-0]
    21e4:	08000000 	stmdaeq	r0, {}	; <UNPREDICTABLE>
    21e8:	00000749 	andeq	r0, r0, r9, asr #14
    21ec:	01880d01 	orreq	r0, r8, r1, lsl #26
    21f0:	0d100000 	ldceq	0, cr0, [r0, #-0]
    21f4:	0000002c 	andeq	r0, r0, ip, lsr #32
    21f8:	0005390e 	andeq	r3, r5, lr, lsl #18
    21fc:	9e4f0200 	cdpls	2, 4, cr0, cr15, cr0, {0}
    2200:	0f000001 	svceq	0x00000001
    2204:	0000002c 	andeq	r0, r0, ip, lsr #32
    2208:	031a1000 	tsteq	sl, #0
    220c:	9b020000 	blls	82214 <__bss_end__+0x786a4>
    2210:	00002c0f 	andeq	r2, r0, pc, lsl #24
    2214:	002c0f00 	eoreq	r0, ip, r0, lsl #30
    2218:	00000000 	andeq	r0, r0, r0
    221c:	000001f7 	strdeq	r0, [r0], -r7
    2220:	0f280004 	svceq	0x00280004
    2224:	01040000 	mrseq	r0, (UNDEF: 4)
    2228:	0000023b 	andeq	r0, r0, fp, lsr r2
    222c:	0007ba01 	andeq	fp, r7, r1, lsl #20
    2230:	00041500 	andeq	r1, r4, r0, lsl #10
    2234:	008cd000 	addeq	sp, ip, r0
    2238:	00009800 	andeq	r9, r0, r0, lsl #16
    223c:	000cec00 	andeq	lr, ip, r0, lsl #24
    2240:	05040200 	streq	r0, [r4, #-512]	; 0x200
    2244:	00746e69 	rsbseq	r6, r4, r9, ror #28
    2248:	3d070403 	cfstrscc	mvf0, [r7, #-12]
    224c:	03000000 	movweq	r0, #0
    2250:	01bc0601 			; <UNDEFINED> instruction: 0x01bc0601
    2254:	02030000 	andeq	r0, r3, #0
    2258:	0001c805 	andeq	ip, r1, r5, lsl #16
    225c:	05040300 	streq	r0, [r4, #-768]	; 0x300
    2260:	0000006d 	andeq	r0, r0, sp, rrx
    2264:	68050803 	stmdavs	r5, {r0, r1, fp}
    2268:	03000000 	movweq	r0, #0
    226c:	01ba0801 			; <UNDEFINED> instruction: 0x01ba0801
    2270:	02030000 	andeq	r0, r3, #0
    2274:	00011207 	andeq	r1, r1, r7, lsl #4
    2278:	07040300 	streq	r0, [r4, -r0, lsl #6]
    227c:	00000038 	andeq	r0, r0, r8, lsr r0
    2280:	33070803 	movwcc	r0, #30723	; 0x7803
    2284:	03000000 	movweq	r0, #0
    2288:	01590704 	cmpeq	r9, r4, lsl #14
    228c:	01030000 	mrseq	r0, (UNDEF: 3)
    2290:	0001c308 	andeq	ip, r1, r8, lsl #6
    2294:	07d20400 	ldrbeq	r0, [r2, r0, lsl #8]
    2298:	05010000 	streq	r0, [r1, #-0]
    229c:	00008cd0 	ldrdeq	r8, [r0], -r0
    22a0:	0000001c 	andeq	r0, r0, ip, lsl r0
    22a4:	009e9c01 	addseq	r9, lr, r1, lsl #24
    22a8:	cc050000 	stcgt	0, cr0, [r5], {-0}
    22ac:	01000007 	tsteq	r0, r7
    22b0:	00002c05 	andeq	r2, r0, r5, lsl #24
    22b4:	00091d00 	andeq	r1, r9, r0, lsl #26
    22b8:	8e060000 	cdphi	0, 0, cr0, cr6, cr0, {0}
    22bc:	01000001 	tsteq	r0, r1
    22c0:	00002c11 	andeq	r2, r0, r1, lsl ip
    22c4:	008cec00 	addeq	lr, ip, r0, lsl #24
    22c8:	00001400 	andeq	r1, r0, r0, lsl #8
    22cc:	cb9c0100 	blgt	fe7026d4 <__bss_end__+0xfe6f8b64>
    22d0:	07000000 	streq	r0, [r0, -r0]
    22d4:	00008cf8 	strdeq	r8, [r0], -r8	; <UNPREDICTABLE>
    22d8:	000001de 	ldrdeq	r0, [r0], -lr
    22dc:	05500108 	ldrbeq	r0, [r0, #-264]	; 0x108
    22e0:	0030040c 	eorseq	r0, r0, ip, lsl #8
    22e4:	06000020 	streq	r0, [r0], -r0, lsr #32
    22e8:	000002ee 	andeq	r0, r0, lr, ror #5
    22ec:	002c1601 	eoreq	r1, ip, r1, lsl #12
    22f0:	8d000000 	stchi	0, cr0, [r0, #-0]
    22f4:	001c0000 	andseq	r0, ip, r0
    22f8:	9c010000 	stcls	0, cr0, [r1], {-0}
    22fc:	0000010d 	andeq	r0, r0, sp, lsl #2
    2300:	01007509 	tsteq	r0, r9, lsl #10
    2304:	00002c1a 	andeq	r2, r0, sl, lsl ip
    2308:	00095100 	andeq	r5, r9, r0, lsl #2
    230c:	8d080a00 	vstrhi	s0, [r8, #-0]
    2310:	01f30000 	mvnseq	r0, r0
    2314:	0c0a0000 	stceq	0, cr0, [sl], {-0}
    2318:	9e00008d 	cdpls	0, 0, cr0, cr0, cr13, {4}
    231c:	0a000000 	beq	2324 <__code_start__-0x5cdc>
    2320:	00008d14 	andeq	r8, r0, r4, lsl sp
    2324:	000001f3 	strdeq	r0, [r0], -r3
    2328:	07df0400 	ldrbeq	r0, [pc, r0, lsl #8]
    232c:	1f010000 	svcne	0x00010000
    2330:	00008d1c 	andeq	r8, r0, ip, lsl sp
    2334:	00000024 	andeq	r0, r0, r4, lsr #32
    2338:	016b9c01 	cmneq	fp, r1, lsl #24
    233c:	750b0000 	strvc	r0, [fp, #-0]
    2340:	1f010073 	svcne	0x00010073
    2344:	0000002c 	andeq	r0, r0, ip, lsr #32
    2348:	0000096f 	andeq	r0, r0, pc, ror #18
    234c:	0062720c 	rsbeq	r7, r2, ip, lsl #4
    2350:	002c2001 	eoreq	r2, ip, r1
    2354:	54010000 	strpl	r0, [r1], #-0
    2358:	008d2c0d 	addeq	r2, sp, sp, lsl #24
    235c:	00001000 	andeq	r1, r0, r0
    2360:	00016100 	andeq	r6, r1, r0, lsl #2
    2364:	61720900 	cmnvs	r2, r0, lsl #18
    2368:	2c220100 	stfcss	f0, [r2], #-0
    236c:	8d000000 	stchi	0, cr0, [r0, #-0]
    2370:	0a000009 	beq	239c <__code_start__-0x5c64>
    2374:	00008d30 	andeq	r8, r0, r0, lsr sp
    2378:	000000cb 	andeq	r0, r0, fp, asr #1
    237c:	8d280a00 	vstmdbhi	r8!, {s0-s-1}
    2380:	00cb0000 	sbceq	r0, fp, r0
    2384:	04000000 	streq	r0, [r0], #-0
    2388:	00000539 	andeq	r0, r0, r9, lsr r5
    238c:	8d402801 	stclhi	8, cr2, [r0, #-4]
    2390:	00140000 	andseq	r0, r4, r0
    2394:	9c010000 	stcls	0, cr0, [r1], {-0}
    2398:	000001a4 	andeq	r0, r0, r4, lsr #3
    239c:	00736d0b 	rsbseq	r6, r3, fp, lsl #26
    23a0:	002c2801 	eoreq	r2, ip, r1, lsl #16
    23a4:	09a00000 	stmibeq	r0!, {}	; <UNPREDICTABLE>
    23a8:	50070000 	andpl	r0, r7, r0
    23ac:	0d00008d 	stceq	0, cr0, [r0, #-564]	; 0xfffffdcc
    23b0:	08000001 	stmdaeq	r0, {r0}
    23b4:	f3075001 	vhadd.u8	d5, d7, d1
    23b8:	e80a5001 	stmda	sl, {r0, ip, lr}
    23bc:	00001e03 	andeq	r1, r0, r3, lsl #28
    23c0:	0007b004 	andeq	fp, r7, r4
    23c4:	542b0100 	strtpl	r0, [fp], #-256	; 0x100
    23c8:	1400008d 	strne	r0, [r0], #-141	; 0x8d
    23cc:	01000000 	mrseq	r0, (UNDEF: 0)
    23d0:	0001de9c 	muleq	r1, ip, lr
    23d4:	65730b00 	ldrbvs	r0, [r3, #-2816]!	; 0xb00
    23d8:	2b010063 	blcs	4256c <__bss_end__+0x389fc>
    23dc:	0000002c 	andeq	r0, r0, ip, lsr #32
    23e0:	000009c1 	andeq	r0, r0, r1, asr #19
    23e4:	008d6407 	addeq	r6, sp, r7, lsl #8
    23e8:	00016b00 	andeq	r6, r1, r0, lsl #22
    23ec:	50010800 	andpl	r0, r1, r0, lsl #16
    23f0:	5001f307 	andpl	pc, r1, r7, lsl #6
    23f4:	1e03e80a 	cdpne	8, 0, cr14, cr3, cr10, {0}
    23f8:	7a0e0000 	bvc	382400 <__bss_end__+0x378890>
    23fc:	02000001 	andeq	r0, r0, #1
    2400:	00002ca7 	andeq	r2, r0, r7, lsr #25
    2404:	0001f300 	andeq	pc, r1, r0, lsl #6
    2408:	002c0f00 	eoreq	r0, ip, r0, lsl #30
    240c:	10000000 	andne	r0, r0, r0
    2410:	00000125 	andeq	r0, r0, r5, lsr #2
    2414:	c5008902 	strgt	r8, [r0, #-2306]	; 0x902
    2418:	0400000c 	streq	r0, [r0], #-12
    241c:	00101e00 	andseq	r1, r0, r0, lsl #28
    2420:	89010400 	stmdbhi	r1, {sl}
    2424:	0c00000b 	stceq	0, cr0, [r0], {11}
    2428:	000008e2 	andeq	r0, r0, r2, ror #17
    242c:	000008fd 	strdeq	r0, [r0], -sp
    2430:	00008dec 	andeq	r8, r0, ip, ror #27
    2434:	00000178 	andeq	r0, r0, r8, ror r1
    2438:	00000d9e 	muleq	r0, lr, sp
    243c:	69050402 	stmdbvs	r5, {r1, sl}
    2440:	0300746e 	movweq	r7, #1134	; 0x46e
    2444:	003d0704 	eorseq	r0, sp, r4, lsl #14
    2448:	2c040000 	stccs	0, cr0, [r4], {-0}
    244c:	03000000 	movweq	r0, #0
    2450:	01bc0601 			; <UNDEFINED> instruction: 0x01bc0601
    2454:	02030000 	andeq	r0, r3, #0
    2458:	0001c805 	andeq	ip, r1, r5, lsl #16
    245c:	05040300 	streq	r0, [r4, #-768]	; 0x300
    2460:	0000006d 	andeq	r0, r0, sp, rrx
    2464:	68050803 	stmdavs	r5, {r0, r1, fp}
    2468:	03000000 	movweq	r0, #0
    246c:	01ba0801 			; <UNDEFINED> instruction: 0x01ba0801
    2470:	02030000 	andeq	r0, r3, #0
    2474:	00011207 	andeq	r1, r1, r7, lsl #4
    2478:	07040300 	streq	r0, [r4, -r0, lsl #6]
    247c:	00000038 	andeq	r0, r0, r8, lsr r0
    2480:	33070803 	movwcc	r0, #30723	; 0x7803
    2484:	05000000 	streq	r0, [r0, #-0]
    2488:	00000a9e 	muleq	r0, lr, sl
    248c:	00250702 	eoreq	r0, r5, r2, lsl #14
    2490:	88050000 	stmdahi	r5, {}	; <UNPREDICTABLE>
    2494:	0300000a 	movweq	r0, #10
    2498:	0000462c 	andeq	r4, r0, ip, lsr #12
    249c:	0b640500 	bleq	19038a4 <__bss_end__+0x18f9d34>
    24a0:	72030000 	andvc	r0, r3, #0
    24a4:	00000046 	andeq	r0, r0, r6, asr #32
    24a8:	000a2206 	andeq	r2, sl, r6, lsl #4
    24ac:	01650400 	cmneq	r5, r0, lsl #8
    24b0:	0000002c 	andeq	r0, r0, ip, lsr #32
    24b4:	a6030407 	strge	r0, [r3], -r7, lsl #8
    24b8:	000000bc 	strheq	r0, [r0], -ip
    24bc:	000a0d08 	andeq	r0, sl, r8, lsl #26
    24c0:	91a80300 			; <UNDEFINED> instruction: 0x91a80300
    24c4:	08000000 	stmdaeq	r0, {}	; <UNPREDICTABLE>
    24c8:	000009b5 			; <UNDEFINED> instruction: 0x000009b5
    24cc:	00bca903 	adcseq	sl, ip, r3, lsl #18
    24d0:	09000000 	stmdbeq	r0, {}	; <UNPREDICTABLE>
    24d4:	00000054 	andeq	r0, r0, r4, asr r0
    24d8:	000000cc 	andeq	r0, r0, ip, asr #1
    24dc:	0000cc0a 	andeq	ip, r0, sl, lsl #24
    24e0:	03000300 	movweq	r0, #768	; 0x300
    24e4:	01590704 	cmpeq	r9, r4, lsl #14
    24e8:	080b0000 	stmdaeq	fp, {}	; <UNPREDICTABLE>
    24ec:	00f4a303 	rscseq	sl, r4, r3, lsl #6
    24f0:	490c0000 	stmdbmi	ip, {}	; <UNPREDICTABLE>
    24f4:	0300000b 	movweq	r0, #11
    24f8:	000025a5 	andeq	r2, r0, r5, lsr #11
    24fc:	510c0000 	mrspl	r0, (UNDEF: 12)
    2500:	0300000b 	movweq	r0, #11
    2504:	00009daa 	andeq	r9, r0, sl, lsr #27
    2508:	05000400 	streq	r0, [r0, #-1024]	; 0x400
    250c:	00000adc 	ldrdeq	r0, [r0], -ip
    2510:	00d3ab03 	sbcseq	sl, r3, r3, lsl #22
    2514:	7e050000 	cdpvc	0, 0, cr0, cr5, cr0, {0}
    2518:	03000009 	movweq	r0, #9
    251c:	000070af 	andeq	r7, r0, pc, lsr #1
    2520:	0e040d00 	cdpeq	13, 0, cr0, cr4, cr0, {0}
    2524:	00011204 	andeq	r1, r1, r4, lsl #4
    2528:	08010300 	stmdaeq	r1, {r8, r9}
    252c:	000001c3 	andeq	r0, r0, r3, asr #3
    2530:	0001120f 	andeq	r1, r1, pc, lsl #4
    2534:	0c060500 	cfstr32eq	mvfx0, [r6], {-0}
    2538:	16050000 	strne	r0, [r5], -r0
    253c:	00000062 	andeq	r0, r0, r2, rrx
    2540:	00098f10 	andeq	r8, r9, r0, lsl pc
    2544:	2d051800 	stccs	8, cr1, [r5, #-0]
    2548:	0000017c 	andeq	r0, r0, ip, ror r1
    254c:	000afd0c 	andeq	pc, sl, ip, lsl #26
    2550:	7c2f0500 	cfstr32vc	mvfx0, [pc], #-0	; 2558 <__code_start__-0x5aa8>
    2554:	00000001 	andeq	r0, r0, r1
    2558:	006b5f11 	rsbeq	r5, fp, r1, lsl pc
    255c:	00253005 	eoreq	r3, r5, r5
    2560:	0c040000 	stceq	0, cr0, [r4], {-0}
    2564:	00000b34 	andeq	r0, r0, r4, lsr fp
    2568:	00253005 	eoreq	r3, r5, r5
    256c:	0c080000 	stceq	0, cr0, [r8], {-0}
    2570:	0000096a 	andeq	r0, r0, sl, ror #18
    2574:	00253005 	eoreq	r3, r5, r5
    2578:	0c0c0000 	stceq	0, cr0, [ip], {-0}
    257c:	00000c4d 	andeq	r0, r0, sp, asr #24
    2580:	00253005 	eoreq	r3, r5, r5
    2584:	11100000 	tstne	r0, r0
    2588:	0500785f 	streq	r7, [r0, #-2143]	; 0x85f
    258c:	00018231 	andeq	r8, r1, r1, lsr r2
    2590:	0e001400 	cfcpyseq	mvf1, mvf0
    2594:	00012904 	andeq	r2, r1, r4, lsl #18
    2598:	011e0900 	tsteq	lr, r0, lsl #18
    259c:	01920000 	orrseq	r0, r2, r0
    25a0:	cc0a0000 	stcgt	0, cr0, [sl], {-0}
    25a4:	00000000 	andeq	r0, r0, r0
    25a8:	09b01000 	ldmibeq	r0!, {ip}
    25ac:	05240000 	streq	r0, [r4, #-0]!
    25b0:	00020b35 	andeq	r0, r2, r5, lsr fp
    25b4:	08680c00 	stmdaeq	r8!, {sl, fp}^
    25b8:	37050000 	strcc	r0, [r5, -r0]
    25bc:	00000025 	andeq	r0, r0, r5, lsr #32
    25c0:	0b6c0c00 	bleq	1b055c8 <__bss_end__+0x1afba58>
    25c4:	38050000 	stmdacc	r5, {}	; <UNPREDICTABLE>
    25c8:	00000025 	andeq	r0, r0, r5, lsr #32
    25cc:	08960c04 	ldmeq	r6, {r2, sl, fp}
    25d0:	39050000 	stmdbcc	r5, {}	; <UNPREDICTABLE>
    25d4:	00000025 	andeq	r0, r0, r5, lsr #32
    25d8:	0d3d0c08 	ldceq	12, cr0, [sp, #-32]!	; 0xffffffe0
    25dc:	3a050000 	bcc	1425e4 <__bss_end__+0x138a74>
    25e0:	00000025 	andeq	r0, r0, r5, lsr #32
    25e4:	0a6c0c0c 	beq	1b0561c <__bss_end__+0x1afbaac>
    25e8:	3b050000 	blcc	1425f0 <__bss_end__+0x138a80>
    25ec:	00000025 	andeq	r0, r0, r5, lsr #32
    25f0:	0a410c10 	beq	1045638 <__bss_end__+0x103bac8>
    25f4:	3c050000 	stccc	0, cr0, [r5], {-0}
    25f8:	00000025 	andeq	r0, r0, r5, lsr #32
    25fc:	0c520c14 	mrrceq	12, 1, r0, r2, cr4
    2600:	3d050000 	stccc	0, cr0, [r5, #-0]
    2604:	00000025 	andeq	r0, r0, r5, lsr #32
    2608:	0abe0c18 	beq	fef85670 <__bss_end__+0xfef7bb00>
    260c:	3e050000 	cdpcc	0, 0, cr0, cr5, cr0, {0}
    2610:	00000025 	andeq	r0, r0, r5, lsr #32
    2614:	0d040c1c 	stceq	12, cr0, [r4, #-112]	; 0xffffff90
    2618:	3f050000 	svccc	0x00050000
    261c:	00000025 	andeq	r0, r0, r5, lsr #32
    2620:	a5120020 	ldrge	r0, [r2, #-32]
    2624:	08000008 	stmdaeq	r0, {r3}
    2628:	4b480501 	blmi	1203a34 <__bss_end__+0x11f9ec4>
    262c:	0c000002 	stceq	0, cr0, [r0], {2}
    2630:	00000951 	andeq	r0, r0, r1, asr r9
    2634:	024b4905 	subeq	r4, fp, #81920	; 0x14000
    2638:	0c000000 	stceq	0, cr0, [r0], {-0}
    263c:	000007e8 	andeq	r0, r0, r8, ror #15
    2640:	024b4a05 	subeq	r4, fp, #20480	; 0x5000
    2644:	13800000 	orrne	r0, r0, #0
    2648:	00000bf8 	strdeq	r0, [r0], -r8
    264c:	011e4c05 	tsteq	lr, r5, lsl #24
    2650:	01000000 	mrseq	r0, (UNDEF: 0)
    2654:	0008ca13 	andeq	ip, r8, r3, lsl sl
    2658:	1e4f0500 	cdpne	5, 4, cr0, cr15, cr0, {0}
    265c:	04000001 	streq	r0, [r0], #-1
    2660:	0a090001 	beq	24266c <__bss_end__+0x238afc>
    2664:	5b000001 	blpl	2670 <__code_start__-0x5990>
    2668:	0a000002 	beq	2678 <__code_start__-0x5988>
    266c:	000000cc 	andeq	r0, r0, ip, asr #1
    2670:	7512001f 	ldrvc	r0, [r2, #-31]
    2674:	9000000a 	andls	r0, r0, sl
    2678:	995b0501 	ldmdbls	fp, {r0, r8, sl}^
    267c:	0c000002 	stceq	0, cr0, [r0], {2}
    2680:	00000afd 	strdeq	r0, [r0], -sp
    2684:	02995c05 	addseq	r5, r9, #1280	; 0x500
    2688:	0c000000 	stceq	0, cr0, [r0], {-0}
    268c:	00000b15 	andeq	r0, r0, r5, lsl fp
    2690:	00255d05 	eoreq	r5, r5, r5, lsl #26
    2694:	0c040000 	stceq	0, cr0, [r4], {-0}
    2698:	00000965 	andeq	r0, r0, r5, ror #18
    269c:	029f5f05 	addseq	r5, pc, #5, 30
    26a0:	0c080000 	stceq	0, cr0, [r8], {-0}
    26a4:	000008a5 	andeq	r0, r0, r5, lsr #17
    26a8:	020b6005 	andeq	r6, fp, #5
    26ac:	00880000 	addeq	r0, r8, r0
    26b0:	025b040e 	subseq	r0, fp, #234881024	; 0xe000000
    26b4:	af090000 	svcge	0x00090000
    26b8:	af000002 	svcge	0x00000002
    26bc:	0a000002 	beq	26cc <__code_start__-0x5934>
    26c0:	000000cc 	andeq	r0, r0, ip, asr #1
    26c4:	040e001f 	streq	r0, [lr], #-31
    26c8:	000002b5 			; <UNDEFINED> instruction: 0x000002b5
    26cc:	0ac81014 	beq	ff206724 <__bss_end__+0xff1fcbb4>
    26d0:	05080000 	streq	r0, [r8, #-0]
    26d4:	0002db73 	andeq	sp, r2, r3, ror fp
    26d8:	088b0c00 	stmeq	fp, {sl, fp}
    26dc:	74050000 	strvc	r0, [r5], #-0
    26e0:	000002db 	ldrdeq	r0, [r0], -fp
    26e4:	07f40c00 	ldrbeq	r0, [r4, r0, lsl #24]!
    26e8:	75050000 	strvc	r0, [r5, #-0]
    26ec:	00000025 	andeq	r0, r0, r5, lsr #32
    26f0:	040e0004 	streq	r0, [lr], #-4
    26f4:	00000054 	andeq	r0, r0, r4, asr r0
    26f8:	000ae710 	andeq	lr, sl, r0, lsl r7
    26fc:	b3056800 	movwlt	r6, #22528	; 0x5800
    2700:	0000040b 	andeq	r0, r0, fp, lsl #8
    2704:	00705f11 	rsbseq	r5, r0, r1, lsl pc
    2708:	02dbb405 	sbcseq	fp, fp, #83886080	; 0x5000000
    270c:	11000000 	mrsne	r0, (UNDEF: 0)
    2710:	0500725f 	streq	r7, [r0, #-607]	; 0x25f
    2714:	000025b5 			; <UNDEFINED> instruction: 0x000025b5
    2718:	5f110400 	svcpl	0x00110400
    271c:	b6050077 			; <UNDEFINED> instruction: 0xb6050077
    2720:	00000025 	andeq	r0, r0, r5, lsr #32
    2724:	08c30c08 	stmiaeq	r3, {r3, sl, fp}^
    2728:	b7050000 	strlt	r0, [r5, -r0]
    272c:	0000003f 	andeq	r0, r0, pc, lsr r0
    2730:	09d60c0c 	ldmibeq	r6, {r2, r3, sl, fp}^
    2734:	b8050000 	stmdalt	r5, {}	; <UNPREDICTABLE>
    2738:	0000003f 	andeq	r0, r0, pc, lsr r0
    273c:	625f110e 	subsvs	r1, pc, #-2147483645	; 0x80000003
    2740:	b9050066 	stmdblt	r5, {r1, r2, r5, r6}
    2744:	000002b6 			; <UNDEFINED> instruction: 0x000002b6
    2748:	082d0c10 	stmdaeq	sp!, {r4, sl, fp}
    274c:	ba050000 	blt	142754 <__bss_end__+0x138be4>
    2750:	00000025 	andeq	r0, r0, r5, lsr #32
    2754:	08b30c18 	ldmeq	r3!, {r3, r4, sl, fp}
    2758:	c1050000 	mrsgt	r0, (UNDEF: 5)
    275c:	0000010a 	andeq	r0, r0, sl, lsl #2
    2760:	0d640c1c 	stcleq	12, cr0, [r4, #-112]!	; 0xffffff90
    2764:	c3050000 	movwgt	r0, #20480	; 0x5000
    2768:	00000566 	andeq	r0, r0, r6, ror #10
    276c:	0d7e0c20 	ldcleq	12, cr0, [lr, #-128]!	; 0xffffff80
    2770:	c5050000 	strgt	r0, [r5, #-0]
    2774:	00000590 	muleq	r0, r0, r5
    2778:	0b590c24 	bleq	1645810 <__bss_end__+0x163bca0>
    277c:	c8050000 	stmdagt	r5, {}	; <UNPREDICTABLE>
    2780:	000005b4 			; <UNDEFINED> instruction: 0x000005b4
    2784:	0d1e0c28 	ldceq	12, cr0, [lr, #-160]	; 0xffffff60
    2788:	c9050000 	stmdbgt	r5, {}	; <UNPREDICTABLE>
    278c:	000005ce 	andeq	r0, r0, lr, asr #11
    2790:	755f112c 	ldrbvc	r1, [pc, #-300]	; 266c <__code_start__-0x5994>
    2794:	cc050062 	stcgt	0, cr0, [r5], {98}	; 0x62
    2798:	000002b6 			; <UNDEFINED> instruction: 0x000002b6
    279c:	755f1130 	ldrbvc	r1, [pc, #-304]	; 2674 <__code_start__-0x598c>
    27a0:	cd050070 	stcgt	0, cr0, [r5, #-448]	; 0xfffffe40
    27a4:	000002db 	ldrdeq	r0, [r0], -fp
    27a8:	755f1138 	ldrbvc	r1, [pc, #-312]	; 2678 <__code_start__-0x5988>
    27ac:	ce050072 	mcrgt	0, 0, r0, cr5, cr2, {3}
    27b0:	00000025 	andeq	r0, r0, r5, lsr #32
    27b4:	08760c3c 	ldmdaeq	r6!, {r2, r3, r4, r5, sl, fp}^
    27b8:	d1050000 	mrsle	r0, (UNDEF: 5)
    27bc:	000005d4 	ldrdeq	r0, [r0], -r4
    27c0:	0cc90c40 	stcleq	12, cr0, [r9], {64}	; 0x40
    27c4:	d2050000 	andle	r0, r5, #0
    27c8:	000005e4 	andeq	r0, r0, r4, ror #11
    27cc:	6c5f1143 	ldfvse	f1, [pc], {67}	; 0x43
    27d0:	d5050062 	strle	r0, [r5, #-98]	; 0x62
    27d4:	000002b6 			; <UNDEFINED> instruction: 0x000002b6
    27d8:	08d90c44 	ldmeq	r9, {r2, r6, sl, fp}^
    27dc:	d8050000 	stmdale	r5, {}	; <UNPREDICTABLE>
    27e0:	00000025 	andeq	r0, r0, r5, lsr #32
    27e4:	0a4b0c4c 	beq	12c591c <__bss_end__+0x12bbdac>
    27e8:	d9050000 	stmdble	r5, {}	; <UNPREDICTABLE>
    27ec:	0000007b 	andeq	r0, r0, fp, ror r0
    27f0:	0cb40c50 	ldceq	12, cr0, [r4], #320	; 0x140
    27f4:	dc050000 	stcle	0, cr0, [r5], {-0}
    27f8:	00000429 	andeq	r0, r0, r9, lsr #8
    27fc:	0a290c54 	beq	a45954 <__bss_end__+0xa3bde4>
    2800:	e0050000 	and	r0, r5, r0
    2804:	000000ff 	strdeq	r0, [r0], -pc	; <UNPREDICTABLE>
    2808:	0aef0c58 	beq	ffbc5970 <__bss_end__+0xffbbbe00>
    280c:	e2050000 	and	r0, r5, #0
    2810:	000000f4 	strdeq	r0, [r0], -r4
    2814:	0a2f0c5c 	beq	bc598c <__bss_end__+0xbbbe1c>
    2818:	e3050000 	movw	r0, #20480	; 0x5000
    281c:	00000025 	andeq	r0, r0, r5, lsr #32
    2820:	25150064 	ldrcs	r0, [r5, #-100]	; 0x64
    2824:	29000000 	stmdbcs	r0, {}	; <UNPREDICTABLE>
    2828:	16000004 	strne	r0, [r0], -r4
    282c:	00000429 	andeq	r0, r0, r9, lsr #8
    2830:	00010a16 	andeq	r0, r1, r6, lsl sl
    2834:	010c1600 	tsteq	ip, r0, lsl #12
    2838:	25160000 	ldrcs	r0, [r6, #-0]
    283c:	00000000 	andeq	r0, r0, r0
    2840:	0434040e 	ldrteq	r0, [r4], #-1038	; 0x40e
    2844:	290f0000 	stmdbcs	pc, {}	; <UNPREDICTABLE>
    2848:	17000004 	strne	r0, [r0, -r4]
    284c:	00000b3c 	andeq	r0, r0, ip, lsr fp
    2850:	38050428 	stmdacc	r5, {r3, r5, sl}
    2854:	00056602 	andeq	r6, r5, r2, lsl #12
    2858:	0ab71800 	beq	fedc8860 <__bss_end__+0xfedbecf0>
    285c:	3a050000 	bcc	142864 <__bss_end__+0x138cf4>
    2860:	00002502 	andeq	r2, r0, r2, lsl #10
    2864:	d2180000 	andsle	r0, r8, #0
    2868:	05000008 	streq	r0, [r0, #-8]
    286c:	063b023f 			; <UNDEFINED> instruction: 0x063b023f
    2870:	18040000 	stmdane	r4, {}	; <UNPREDICTABLE>
    2874:	000009c6 	andeq	r0, r0, r6, asr #19
    2878:	3b023f05 	blcc	92494 <__bss_end__+0x88924>
    287c:	08000006 	stmdaeq	r0, {r1, r2}
    2880:	00098718 	andeq	r8, r9, r8, lsl r7
    2884:	023f0500 	eorseq	r0, pc, #0, 10
    2888:	0000063b 	andeq	r0, r0, fp, lsr r6
    288c:	0b10180c 	bleq	4088c4 <__bss_end__+0x3fed54>
    2890:	41050000 	mrsmi	r0, (UNDEF: 5)
    2894:	00002502 	andeq	r2, r0, r2, lsl #10
    2898:	02181000 	andseq	r1, r8, #0
    289c:	05000008 	streq	r0, [r0, #-8]
    28a0:	081d0242 	ldmdaeq	sp, {r1, r6, r9}
    28a4:	18140000 	ldmdane	r4, {}	; <UNPREDICTABLE>
    28a8:	00000c2e 	andeq	r0, r0, lr, lsr #24
    28ac:	25024405 	strcs	r4, [r2, #-1029]	; 0x405
    28b0:	30000000 	andcc	r0, r0, r0
    28b4:	000b1a18 	andeq	r1, fp, r8, lsl sl
    28b8:	02450500 	subeq	r0, r5, #0, 10
    28bc:	0000058a 	andeq	r0, r0, sl, lsl #11
    28c0:	0a7d1834 	beq	1f48998 <__bss_end__+0x1f3ee28>
    28c4:	47050000 	strmi	r0, [r5, -r0]
    28c8:	00002502 	andeq	r2, r0, r2, lsl #10
    28cc:	2a183800 	bcs	6108d4 <__bss_end__+0x606d64>
    28d0:	0500000b 	streq	r0, [r0, #-11]
    28d4:	08380249 	ldmdaeq	r8!, {r0, r3, r6, r9}
    28d8:	183c0000 	ldmdane	ip!, {}	; <UNPREDICTABLE>
    28dc:	00000a05 	andeq	r0, r0, r5, lsl #20
    28e0:	7c024c05 	stcvc	12, cr4, [r2], {5}
    28e4:	40000001 	andmi	r0, r0, r1
    28e8:	0009a618 	andeq	sl, r9, r8, lsl r6
    28ec:	024d0500 	subeq	r0, sp, #0, 10
    28f0:	00000025 	andeq	r0, r0, r5, lsr #32
    28f4:	0d381844 	ldceq	8, cr1, [r8, #-272]!	; 0xfffffef0
    28f8:	4e050000 	cdpmi	0, 0, cr0, cr5, cr0, {0}
    28fc:	00017c02 	andeq	r7, r1, r2, lsl #24
    2900:	94184800 	ldrls	r4, [r8], #-2048	; 0x800
    2904:	0500000a 	streq	r0, [r0, #-10]
    2908:	083e024f 	ldmdaeq	lr!, {r0, r1, r2, r3, r6, r9}
    290c:	184c0000 	stmdane	ip, {}^	; <UNPREDICTABLE>
    2910:	000009ce 	andeq	r0, r0, lr, asr #19
    2914:	25025205 	strcs	r5, [r2, #-517]	; 0x205
    2918:	50000000 	andpl	r0, r0, r0
    291c:	0008f518 	andeq	pc, r8, r8, lsl r5	; <UNPREDICTABLE>
    2920:	02530500 	subseq	r0, r3, #0, 10
    2924:	0000010c 	andeq	r0, r0, ip, lsl #2
    2928:	0ab01854 	beq	fec08a80 <__bss_end__+0xfebfef10>
    292c:	76050000 	strvc	r0, [r5], -r0
    2930:	0007fb02 	andeq	pc, r7, r2, lsl #22
    2934:	75195800 	ldrvc	r5, [r9, #-2048]	; 0x800
    2938:	0500000a 	streq	r0, [r0, #-10]
    293c:	0299027a 	addseq	r0, r9, #-1610612729	; 0xa0000007
    2940:	01480000 	mrseq	r0, (UNDEF: 72)
    2944:	0009e319 	andeq	lr, r9, r9, lsl r3
    2948:	027b0500 	rsbseq	r0, fp, #0, 10
    294c:	0000025b 	andeq	r0, r0, fp, asr r2
    2950:	9a19014c 	bls	642e88 <__bss_end__+0x639318>
    2954:	0500000c 	streq	r0, [r0, #-12]
    2958:	084f027f 	stmdaeq	pc, {r0, r1, r2, r3, r4, r5, r6, r9}^	; <UNPREDICTABLE>
    295c:	02dc0000 	sbcseq	r0, ip, #0
    2960:	0008bb19 	andeq	fp, r8, r9, lsl fp
    2964:	02840500 	addeq	r0, r4, #0, 10
    2968:	00000600 	andeq	r0, r0, r0, lsl #12
    296c:	a01902e0 	andsge	r0, r9, r0, ror #5
    2970:	05000008 	streq	r0, [r0, #-8]
    2974:	085b0285 	ldmdaeq	fp, {r0, r2, r7, r9}^
    2978:	02ec0000 	rsceq	r0, ip, #0
    297c:	0b040e00 	bleq	106184 <__bss_end__+0xfc614>
    2980:	15000004 	strne	r0, [r0, #-4]
    2984:	00000025 	andeq	r0, r0, r5, lsr #32
    2988:	0000058a 	andeq	r0, r0, sl, lsl #11
    298c:	00042916 	andeq	r2, r4, r6, lsl r9
    2990:	010a1600 	tsteq	sl, r0, lsl #12
    2994:	8a160000 	bhi	58299c <__bss_end__+0x578e2c>
    2998:	16000005 	strne	r0, [r0], -r5
    299c:	00000025 	andeq	r0, r0, r5, lsr #32
    29a0:	19040e00 	stmdbne	r4, {r9, sl, fp}
    29a4:	0e000001 	cdpeq	0, 0, cr0, cr0, cr1, {0}
    29a8:	00056c04 	andeq	r6, r5, r4, lsl #24
    29ac:	00861500 	addeq	r1, r6, r0, lsl #10
    29b0:	05b40000 	ldreq	r0, [r4, #0]!
    29b4:	29160000 	ldmdbcs	r6, {}	; <UNPREDICTABLE>
    29b8:	16000004 	strne	r0, [r0], -r4
    29bc:	0000010a 	andeq	r0, r0, sl, lsl #2
    29c0:	00008616 	andeq	r8, r0, r6, lsl r6
    29c4:	00251600 	eoreq	r1, r5, r0, lsl #12
    29c8:	0e000000 	cdpeq	0, 0, cr0, cr0, cr0, {0}
    29cc:	00059604 	andeq	r9, r5, r4, lsl #12
    29d0:	00251500 	eoreq	r1, r5, r0, lsl #10
    29d4:	05ce0000 	strbeq	r0, [lr]
    29d8:	29160000 	ldmdbcs	r6, {}	; <UNPREDICTABLE>
    29dc:	16000004 	strne	r0, [r0], -r4
    29e0:	0000010a 	andeq	r0, r0, sl, lsl #2
    29e4:	ba040e00 	blt	1061ec <__bss_end__+0xfc67c>
    29e8:	09000005 	stmdbeq	r0, {r0, r2}
    29ec:	00000054 	andeq	r0, r0, r4, asr r0
    29f0:	000005e4 	andeq	r0, r0, r4, ror #11
    29f4:	0000cc0a 	andeq	ip, r0, sl, lsl #24
    29f8:	09000200 	stmdbeq	r0, {r9}
    29fc:	00000054 	andeq	r0, r0, r4, asr r0
    2a00:	000005f4 	strdeq	r0, [r0], -r4
    2a04:	0000cc0a 	andeq	ip, r0, sl, lsl #24
    2a08:	06000000 	streq	r0, [r0], -r0
    2a0c:	00000ad5 	ldrdeq	r0, [r0], -r5
    2a10:	e1011d05 	tst	r1, r5, lsl #26
    2a14:	1a000002 	bne	2a24 <__code_start__-0x55dc>
    2a18:	00000c5c 	andeq	r0, r0, ip, asr ip
    2a1c:	0121050c 	teqeq	r1, ip, lsl #10
    2a20:	00000635 	andeq	r0, r0, r5, lsr r6
    2a24:	000afd18 	andeq	pc, sl, r8, lsl sp	; <UNPREDICTABLE>
    2a28:	01230500 	teqeq	r3, r0, lsl #10
    2a2c:	00000635 	andeq	r0, r0, r5, lsr r6
    2a30:	09dc1800 	ldmibeq	ip, {fp, ip}^
    2a34:	24050000 	strcs	r0, [r5], #-0
    2a38:	00002501 	andeq	r2, r0, r1, lsl #10
    2a3c:	cf180400 	svcgt	0x00180400
    2a40:	0500000a 	streq	r0, [r0, #-10]
    2a44:	063b0125 	ldrteq	r0, [fp], -r5, lsr #2
    2a48:	00080000 	andeq	r0, r8, r0
    2a4c:	0600040e 	streq	r0, [r0], -lr, lsl #8
    2a50:	040e0000 	streq	r0, [lr], #-0
    2a54:	000005f4 	strdeq	r0, [r0], -r4
    2a58:	0007fa1a 	andeq	pc, r7, sl, lsl sl	; <UNPREDICTABLE>
    2a5c:	3d050e00 	stccc	14, cr0, [r5, #-0]
    2a60:	00067601 	andeq	r7, r6, r1, lsl #12
    2a64:	0b431800 	bleq	10c8a6c <__bss_end__+0x10beefc>
    2a68:	3e050000 	cdpcc	0, 0, cr0, cr5, cr0, {0}
    2a6c:	00067601 	andeq	r7, r6, r1, lsl #12
    2a70:	7d180000 	ldcvc	0, cr0, [r8, #-0]
    2a74:	0500000b 	streq	r0, [r0, #-11]
    2a78:	0676013f 			; <UNDEFINED> instruction: 0x0676013f
    2a7c:	18060000 	stmdane	r6, {}	; <UNPREDICTABLE>
    2a80:	00000c01 	andeq	r0, r0, r1, lsl #24
    2a84:	5b014005 	blpl	52aa0 <__bss_end__+0x48f30>
    2a88:	0c000000 	stceq	0, cr0, [r0], {-0}
    2a8c:	005b0900 	subseq	r0, fp, r0, lsl #18
    2a90:	06860000 	streq	r0, [r6], r0
    2a94:	cc0a0000 	stcgt	0, cr0, [sl], {-0}
    2a98:	02000000 	andeq	r0, r0, #0
    2a9c:	05d01b00 	ldrbeq	r1, [r0, #2816]	; 0xb00
    2aa0:	07870257 			; <UNDEFINED> instruction: 0x07870257
    2aa4:	40180000 	andsmi	r0, r8, r0
    2aa8:	0500000c 	streq	r0, [r0, #-12]
    2aac:	002c0259 	eoreq	r0, ip, r9, asr r2
    2ab0:	18000000 	stmdane	r0, {}	; <UNPREDICTABLE>
    2ab4:	00000beb 	andeq	r0, r0, fp, ror #23
    2ab8:	0c025a05 	stceq	10, cr5, [r2], {5}
    2abc:	04000001 	streq	r0, [r0], #-1
    2ac0:	0009f818 	andeq	pc, r9, r8, lsl r8	; <UNPREDICTABLE>
    2ac4:	025b0500 	subseq	r0, fp, #0, 10
    2ac8:	00000787 	andeq	r0, r0, r7, lsl #15
    2acc:	0d0f1808 	stceq	8, cr1, [pc, #-32]	; 2ab4 <__code_start__-0x554c>
    2ad0:	5c050000 	stcpl	0, cr0, [r5], {-0}
    2ad4:	00019202 	andeq	r9, r1, r2, lsl #4
    2ad8:	97182400 	ldrls	r2, [r8, -r0, lsl #8]
    2adc:	05000009 	streq	r0, [r0, #-9]
    2ae0:	0025025d 	eoreq	r0, r5, sp, asr r2
    2ae4:	18480000 	stmdane	r8, {}^	; <UNPREDICTABLE>
    2ae8:	00000af8 	strdeq	r0, [r0], -r8
    2aec:	69025e05 	stmdbvs	r2, {r0, r2, r9, sl, fp, ip, lr}
    2af0:	50000000 	andpl	r0, r0, r0
    2af4:	000d2518 	andeq	r2, sp, r8, lsl r5
    2af8:	025f0500 	subseq	r0, pc, #0, 10
    2afc:	00000641 	andeq	r0, r0, r1, asr #12
    2b00:	0b031858 	bleq	c8c68 <__bss_end__+0xbf0f8>
    2b04:	60050000 	andvs	r0, r5, r0
    2b08:	0000f402 	andeq	pc, r0, r2, lsl #8
    2b0c:	2a186800 	bcs	61cb14 <__bss_end__+0x612fa4>
    2b10:	0500000d 	streq	r0, [r0, #-13]
    2b14:	00f40261 	rscseq	r0, r4, r1, ror #4
    2b18:	18700000 	ldmdane	r0!, {}^	; <UNPREDICTABLE>
    2b1c:	0000085a 	andeq	r0, r0, sl, asr r8
    2b20:	f4026205 	vst1.8	{d6-d9}, [r2], r5
    2b24:	78000000 	stmdavc	r0, {}	; <UNPREDICTABLE>
    2b28:	000c7c18 	andeq	r7, ip, r8, lsl ip
    2b2c:	02630500 	rsbeq	r0, r3, #0, 10
    2b30:	00000797 	muleq	r0, r7, r7
    2b34:	09ec1880 	stmibeq	ip!, {r7, fp, ip}^
    2b38:	64050000 	strvs	r0, [r5], #-0
    2b3c:	0007a702 	andeq	sl, r7, r2, lsl #14
    2b40:	0e188800 	cdpeq	8, 1, cr8, cr8, cr0, {0}
    2b44:	0500000c 	streq	r0, [r0, #-12]
    2b48:	00250265 	eoreq	r0, r5, r5, ror #4
    2b4c:	18a00000 	stmiane	r0!, {}	; <UNPREDICTABLE>
    2b50:	00000943 	andeq	r0, r0, r3, asr #18
    2b54:	f4026605 	vst1.8	{d6-d8}, [r2], r5
    2b58:	a4000000 	strge	r0, [r0], #-0
    2b5c:	00084b18 	andeq	r4, r8, r8, lsl fp
    2b60:	02670500 	rsbeq	r0, r7, #0, 10
    2b64:	000000f4 	strdeq	r0, [r0], -r4
    2b68:	093218ac 	ldmdbeq	r2!, {r2, r3, r5, r7, fp, ip}
    2b6c:	68050000 	stmdavs	r5, {}	; <UNPREDICTABLE>
    2b70:	0000f402 	andeq	pc, r0, r2, lsl #8
    2b74:	0d18b400 	cfldrseq	mvf11, [r8, #-0]
    2b78:	05000008 	streq	r0, [r0, #-8]
    2b7c:	00f40269 	rscseq	r0, r4, r9, ror #4
    2b80:	18bc0000 	ldmne	ip!, {}	; <UNPREDICTABLE>
    2b84:	0000081c 	andeq	r0, r0, ip, lsl r8
    2b88:	f4026a05 	vst1.8	{d6-d7}, [r2], r5
    2b8c:	c4000000 	strgt	r0, [r0], #-0
    2b90:	000ab518 	andeq	fp, sl, r8, lsl r5
    2b94:	026b0500 	rsbeq	r0, fp, #0, 10
    2b98:	00000025 	andeq	r0, r0, r5, lsr #32
    2b9c:	120900cc 	andne	r0, r9, #204	; 0xcc
    2ba0:	97000001 	strls	r0, [r0, -r1]
    2ba4:	0a000007 	beq	2bc8 <__code_start__-0x5438>
    2ba8:	000000cc 	andeq	r0, r0, ip, asr #1
    2bac:	12090019 	andne	r0, r9, #25
    2bb0:	a7000001 	strge	r0, [r0, -r1]
    2bb4:	0a000007 	beq	2bd8 <__code_start__-0x5428>
    2bb8:	000000cc 	andeq	r0, r0, ip, asr #1
    2bbc:	12090007 	andne	r0, r9, #7
    2bc0:	b7000001 	strlt	r0, [r0, -r1]
    2bc4:	0a000007 	beq	2be8 <__code_start__-0x5418>
    2bc8:	000000cc 	andeq	r0, r0, ip, asr #1
    2bcc:	f01b0017 			; <UNDEFINED> instruction: 0xf01b0017
    2bd0:	db027005 	blle	9ebec <__bss_end__+0x9507c>
    2bd4:	18000007 	stmdane	r0, {r0, r1, r2}
    2bd8:	00000a65 	andeq	r0, r0, r5, ror #20
    2bdc:	db027305 	blle	9f7f8 <__bss_end__+0x95c88>
    2be0:	00000007 	andeq	r0, r0, r7
    2be4:	000c7318 	andeq	r7, ip, r8, lsl r3
    2be8:	02740500 	rsbseq	r0, r4, #0, 10
    2bec:	000007eb 	andeq	r0, r0, fp, ror #15
    2bf0:	db090078 	blle	242dd8 <__bss_end__+0x239268>
    2bf4:	eb000002 	bl	2c04 <__code_start__-0x53fc>
    2bf8:	0a000007 	beq	2c1c <__code_start__-0x53e4>
    2bfc:	000000cc 	andeq	r0, r0, ip, asr #1
    2c00:	2c09001d 	stccs	0, cr0, [r9], {29}
    2c04:	fb000000 	blx	2c0e <__code_start__-0x53f2>
    2c08:	0a000007 	beq	2c2c <__code_start__-0x53d4>
    2c0c:	000000cc 	andeq	r0, r0, ip, asr #1
    2c10:	f01c001d 			; <UNDEFINED> instruction: 0xf01c001d
    2c14:	1d025505 	cfstr32ne	mvfx5, [r2, #-20]	; 0xffffffec
    2c18:	1d000008 	stcne	0, cr0, [r0, #-32]	; 0xffffffe0
    2c1c:	00000b3c 	andeq	r0, r0, ip, lsr fp
    2c20:	86026c05 	strhi	r6, [r2], -r5, lsl #24
    2c24:	1d000006 	stcne	0, cr0, [r0, #-24]	; 0xffffffe8
    2c28:	00000ccf 	andeq	r0, r0, pc, asr #25
    2c2c:	b7027505 	strlt	r7, [r2, -r5, lsl #10]
    2c30:	00000007 	andeq	r0, r0, r7
    2c34:	00011209 	andeq	r1, r1, r9, lsl #4
    2c38:	00082d00 	andeq	r2, r8, r0, lsl #26
    2c3c:	00cc0a00 	sbceq	r0, ip, r0, lsl #20
    2c40:	00180000 	andseq	r0, r8, r0
    2c44:	0008381e 	andeq	r3, r8, lr, lsl r8
    2c48:	04291600 	strteq	r1, [r9], #-1536	; 0x600
    2c4c:	0e000000 	cdpeq	0, 0, cr0, cr0, cr0, {0}
    2c50:	00082d04 	andeq	r2, r8, r4, lsl #26
    2c54:	7c040e00 	stcvc	14, cr0, [r4], {-0}
    2c58:	1e000001 	cdpne	0, 0, cr0, cr0, cr1, {0}
    2c5c:	0000084f 	andeq	r0, r0, pc, asr #16
    2c60:	00002516 	andeq	r2, r0, r6, lsl r5
    2c64:	040e0000 	streq	r0, [lr], #-0
    2c68:	00000855 	andeq	r0, r0, r5, asr r8
    2c6c:	0844040e 	stmdaeq	r4, {r1, r2, r3, sl}^
    2c70:	f4090000 	vst4.8	{d0-d3}, [r9], r0
    2c74:	6b000005 	blvs	2c90 <__code_start__-0x5370>
    2c78:	0a000008 	beq	2ca0 <__code_start__-0x5360>
    2c7c:	000000cc 	andeq	r0, r0, ip, asr #1
    2c80:	221f0002 	andscs	r0, pc, #2
    2c84:	0500000c 	streq	r0, [r0, #-12]
    2c88:	042902fd 	strteq	r0, [r9], #-765	; 0x2fd
    2c8c:	1b1f0000 	blne	7c2c94 <__bss_end__+0x7b9124>
    2c90:	0500000c 	streq	r0, [r0, #-12]
    2c94:	042f02fe 	strteq	r0, [pc], #-766	; 2c9c <__code_start__-0x5364>
    2c98:	25150000 	ldrcs	r0, [r5, #-0]
    2c9c:	92000000 	andls	r0, r0, #0
    2ca0:	16000008 	strne	r0, [r0], -r8
    2ca4:	00000025 	andeq	r0, r0, r5, lsr #32
    2ca8:	047a2000 	ldrbteq	r2, [sl], #-0
    2cac:	1d060000 	stcne	0, cr0, [r6, #-0]
    2cb0:	0000089d 	muleq	r0, sp, r8
    2cb4:	0883040e 	stmeq	r3, {r1, r2, r3, sl}
    2cb8:	25150000 	ldrcs	r0, [r5, #-0]
    2cbc:	b2000000 	andlt	r0, r0, #0
    2cc0:	16000008 	strne	r0, [r0], -r8
    2cc4:	0000058a 	andeq	r0, r0, sl, lsl #11
    2cc8:	04752000 	ldrbteq	r2, [r5], #-0
    2ccc:	22060000 	andcs	r0, r6, #0
    2cd0:	000008bd 			; <UNDEFINED> instruction: 0x000008bd
    2cd4:	08a3040e 	stmiaeq	r3!, {r1, r2, r3, sl}
    2cd8:	01210000 	teqeq	r1, r0
    2cdc:	00000054 	andeq	r0, r0, r4, asr r0
    2ce0:	09000c08 	stmdbeq	r0, {r3, sl, fp}
    2ce4:	3b220000 	blcc	882cec <__bss_end__+0x87917c>
    2ce8:	00000008 	andeq	r0, r0, r8
    2cec:	000c6222 	andeq	r6, ip, r2, lsr #4
    2cf0:	ba220100 	blt	8830f8 <__bss_end__+0x879588>
    2cf4:	0400000c 	streq	r0, [r0], #-12
    2cf8:	00087c22 	andeq	r7, r8, r2, lsr #24
    2cfc:	13220500 	teqne	r2, #0, 10
    2d00:	0600000a 	streq	r0, [r0], -sl
    2d04:	000cd722 	andeq	sp, ip, r2, lsr #14
    2d08:	e6220700 	strt	r0, [r2], -r0, lsl #14
    2d0c:	0300000c 	movweq	r0, #12
    2d10:	000cf522 	andeq	pc, ip, r2, lsr #10
    2d14:	10000200 	andne	r0, r0, r0, lsl #4
    2d18:	000008e9 	andeq	r0, r0, r9, ror #17
    2d1c:	9006072c 	andls	r0, r6, ip, lsr #14
    2d20:	11000009 	tstne	r0, r9
    2d24:	07006f69 	streq	r6, [r0, -r9, ror #30]
    2d28:	00003309 	andeq	r3, r0, r9, lsl #6
    2d2c:	69110000 	ldmdbvs	r1, {}	; <UNPREDICTABLE>
    2d30:	07007265 	streq	r7, [r0, -r5, ror #4]
    2d34:	0000330a 	andeq	r3, r0, sl, lsl #6
    2d38:	69110400 	ldmdbvs	r1, {sl}
    2d3c:	07007269 	streq	r7, [r0, -r9, ror #4]
    2d40:	00003311 	andeq	r3, r0, r1, lsl r3
    2d44:	6c110800 	ldcvs	8, cr0, [r1], {-0}
    2d48:	07007263 	streq	r7, [r0, -r3, ror #4]
    2d4c:	00003313 	andeq	r3, r0, r3, lsl r3
    2d50:	6d110c00 	ldcvs	12, cr0, [r1, #-0]
    2d54:	07007263 	streq	r7, [r0, -r3, ror #4]
    2d58:	00003314 	andeq	r3, r0, r4, lsl r3
    2d5c:	6c111000 	ldcvs	0, cr1, [r1], {-0}
    2d60:	07007273 	smlsdxeq	r0, r3, r2, r7
    2d64:	00003315 	andeq	r3, r0, r5, lsl r3
    2d68:	6d111400 	cfldrsvs	mvf1, [r1, #-0]
    2d6c:	07007273 	smlsdxeq	r0, r3, r2, r7
    2d70:	00003316 	andeq	r3, r0, r6, lsl r3
    2d74:	750c1800 	strvc	r1, [ip, #-2048]	; 0x800
    2d78:	0700000b 	streq	r0, [r0, -fp]
    2d7c:	00003317 	andeq	r3, r0, r7, lsl r3
    2d80:	910c1c00 	tstls	ip, r0, lsl #24
    2d84:	07000008 	streq	r0, [r0, -r8]
    2d88:	0000331b 	andeq	r3, r0, fp, lsl r3
    2d8c:	710c2000 	mrsvc	r2, (UNDEF: 12)
    2d90:	07000008 	streq	r0, [r0, -r8]
    2d94:	0000331d 	andeq	r3, r0, sp, lsl r3
    2d98:	5f0c2400 	svcpl	0x000c2400
    2d9c:	0700000b 	streq	r0, [r0, -fp]
    2da0:	0000331e 	andeq	r3, r0, lr, lsl r3
    2da4:	23002800 	movwcs	r2, #2048	; 0x800
    2da8:	00000959 	andeq	r0, r0, r9, asr r9
    2dac:	09a50701 	stmibeq	r5!, {r0, r8, r9, sl}
    2db0:	50040000 	andpl	r0, r4, r0
    2db4:	040e2021 	streq	r2, [lr], #-33	; 0x21
    2db8:	00000033 	andeq	r0, r0, r3, lsr r0
    2dbc:	00099f0f 	andeq	r9, r9, pc, lsl #30
    2dc0:	0a8f2300 	beq	fe3cb9c8 <__bss_end__+0xfe3c1e58>
    2dc4:	28010000 	stmdacs	r1, {}	; <UNPREDICTABLE>
    2dc8:	000009bf 			; <UNDEFINED> instruction: 0x000009bf
    2dcc:	20215040 	eorcs	r5, r1, r0, asr #32
    2dd0:	0900040e 	stmdbeq	r0, {r1, r2, r3, sl}
    2dd4:	b90f0000 	stmdblt	pc, {}	; <UNPREDICTABLE>
    2dd8:	24000009 	strcs	r0, [r0], #-9
    2ddc:	00000cac 	andeq	r0, r0, ip, lsr #25
    2de0:	0025a701 	eoreq	sl, r5, r1, lsl #14
    2de4:	8f540000 	svchi	0x00540000
    2de8:	00100000 	andseq	r0, r0, r0
    2dec:	9c010000 	stcls	0, cr0, [r1], {-0}
    2df0:	000009f0 	strdeq	r0, [r0], -r0	; <UNPREDICTABLE>
    2df4:	008f5c25 	addeq	r5, pc, r5, lsr #24
    2df8:	000c9c00 	andeq	r9, ip, r0, lsl #24
    2dfc:	8f602500 	svchi	0x00602500
    2e00:	0ad20000 	beq	ff482e08 <__bss_end__+0xff479298>
    2e04:	26000000 	strcs	r0, [r0], -r0
    2e08:	00000a37 	andeq	r0, r0, r7, lsr sl
    2e0c:	8f249f01 	svchi	0x00249f01
    2e10:	00300000 	eorseq	r0, r0, r0
    2e14:	9c010000 	stcls	0, cr0, [r1], {-0}
    2e18:	00000a4e 	andeq	r0, r0, lr, asr #20
    2e1c:	01006327 	tsteq	r0, r7, lsr #6
    2e20:	00002c9f 	muleq	r0, pc, ip	; <UNPREDICTABLE>
    2e24:	0009e200 	andeq	lr, r9, r0, lsl #4
    2e28:	8f302500 	svchi	0x00302500
    2e2c:	0c9c0000 	ldceq	0, cr0, [ip], {0}
    2e30:	34250000 	strtcc	r0, [r5], #-0
    2e34:	a500008f 	strge	r0, [r0, #-143]	; 0x8f
    2e38:	2800000a 	stmdacs	r0, {r1, r3}
    2e3c:	00008f48 	andeq	r8, r0, r8, asr #30
    2e40:	00000ca7 	andeq	r0, r0, r7, lsr #25
    2e44:	00000a44 	andeq	r0, r0, r4, asr #20
    2e48:	05500129 	ldrbeq	r0, [r0, #-297]	; 0x129
    2e4c:	2150400c 	cmpcs	r0, ip
    2e50:	51012920 	tstpl	r1, r0, lsr #18
    2e54:	08007405 	stmdaeq	r0, {r0, r2, sl, ip, sp, lr}
    2e58:	25001aff 	strcs	r1, [r0, #-2815]	; 0xaff
    2e5c:	00008f4c 	andeq	r8, r0, ip, asr #30
    2e60:	00000c9c 	muleq	r0, ip, ip
    2e64:	09bc2400 	ldmibeq	ip!, {sl, sp}
    2e68:	97010000 	strls	r0, [r1, -r0]
    2e6c:	00000025 	andeq	r0, r0, r5, lsr #32
    2e70:	00008ef4 	strdeq	r8, [r0], -r4
    2e74:	00000030 	andeq	r0, r0, r0, lsr r0
    2e78:	0aa59c01 	beq	fe969e84 <__bss_end__+0xfe960314>
    2e7c:	632a0000 	teqvs	sl, #0
    2e80:	259b0100 	ldrcs	r0, [fp, #256]	; 0x100
    2e84:	01000000 	mrseq	r0, (UNDEF: 0)
    2e88:	8efc2554 	mrchi	5, 7, r2, cr12, cr4, {2}
    2e8c:	0c9c0000 	ldceq	0, cr0, [ip], {0}
    2e90:	00250000 	eoreq	r0, r5, r0
    2e94:	d200008f 	andle	r0, r0, #143	; 0x8f
    2e98:	2800000a 	stmdacs	r0, {r1, r3}
    2e9c:	00008f10 	andeq	r8, r0, r0, lsl pc
    2ea0:	00000cb2 			; <UNDEFINED> instruction: 0x00000cb2
    2ea4:	00000a9b 	muleq	r0, fp, sl
    2ea8:	05500129 	ldrbeq	r0, [r0, #-297]	; 0x129
    2eac:	2150400c 	cmpcs	r0, ip
    2eb0:	18250020 	stmdane	r5!, {r5}
    2eb4:	9c00008f 	stcls	0, cr0, [r0], {143}	; 0x8f
    2eb8:	0000000c 	andeq	r0, r0, ip
    2ebc:	00097024 	andeq	r7, r9, r4, lsr #32
    2ec0:	25880100 	strcs	r0, [r8, #256]	; 0x100
    2ec4:	d4000000 	strle	r0, [r0], #-0
    2ec8:	2000008e 	andcs	r0, r0, lr, lsl #1
    2ecc:	01000000 	mrseq	r0, (UNDEF: 0)
    2ed0:	000ad29c 	muleq	sl, ip, r2
    2ed4:	8ee02b00 	vfmahi.f64	d18, d0, d0
    2ed8:	0cb20000 	ldceq	0, cr0, [r2]
    2edc:	01290000 	teqeq	r9, r0
    2ee0:	640c0550 	strvs	r0, [ip], #-1360	; 0x550
    2ee4:	00202150 	eoreq	r2, r0, r0, asr r1
    2ee8:	0c8c2400 	cfstrseq	mvf2, [ip], {0}
    2eec:	7f010000 	svcvc	0x00010000
    2ef0:	00000025 	andeq	r0, r0, r5, lsr #32
    2ef4:	00008ebc 			; <UNDEFINED> instruction: 0x00008ebc
    2ef8:	00000018 	andeq	r0, r0, r8, lsl r0
    2efc:	0aff9c01 	beq	fffe9f08 <__bss_end__+0xfffe0398>
    2f00:	c82b0000 	stmdagt	fp!, {}	; <UNPREDICTABLE>
    2f04:	b200008e 	andlt	r0, r0, #142	; 0x8e
    2f08:	2900000c 	stmdbcs	r0, {r2, r3}
    2f0c:	0c055001 	stceq	0, cr5, [r5], {1}
    2f10:	20215064 	eorcs	r5, r1, r4, rrx
    2f14:	22260000 	eorcs	r0, r6, #0
    2f18:	01000000 	mrseq	r0, (UNDEF: 0)
    2f1c:	008e0c3a 	addeq	r0, lr, sl, lsr ip
    2f20:	0000b000 	andeq	fp, r0, r0
    2f24:	3d9c0100 	ldfccs	f0, [ip]
    2f28:	2800000c 	stmdacs	r0, {r2, r3}
    2f2c:	00008e1c 	andeq	r8, r0, ip, lsl lr
    2f30:	00000cbd 			; <UNDEFINED> instruction: 0x00000cbd
    2f34:	00000b2c 	andeq	r0, r0, ip, lsr #22
    2f38:	01500129 	cmpeq	r0, r9, lsr #2
    2f3c:	5101293e 	tstpl	r1, lr, lsr r9
    2f40:	28003201 	stmdacs	r0, {r0, r9, ip, sp}
    2f44:	00008e28 	andeq	r8, r0, r8, lsr #28
    2f48:	00000cbd 			; <UNDEFINED> instruction: 0x00000cbd
    2f4c:	00000b44 	andeq	r0, r0, r4, asr #22
    2f50:	01500129 	cmpeq	r0, r9, lsr #2
    2f54:	5101293f 	tstpl	r1, pc, lsr r9
    2f58:	25003201 	strcs	r3, [r0, #-513]	; 0x201
    2f5c:	00008e2c 	andeq	r8, r0, ip, lsr #28
    2f60:	00000c9c 	muleq	r0, ip, ip
    2f64:	008e3828 	addeq	r3, lr, r8, lsr #16
    2f68:	000c3d00 	andeq	r3, ip, r0, lsl #26
    2f6c:	000b6900 	andeq	r6, fp, r0, lsl #18
    2f70:	50012900 	andpl	r2, r1, r0, lsl #18
    2f74:	50040c05 	andpl	r0, r4, r5, lsl #24
    2f78:	01292021 	teqeq	r9, r1, lsr #32
    2f7c:	00310151 	eorseq	r0, r1, r1, asr r1
    2f80:	008e3c25 	addeq	r3, lr, r5, lsr #24
    2f84:	000c9c00 	andeq	r9, ip, r0, lsl #24
    2f88:	8e4c2800 	cdphi	8, 4, cr2, cr12, cr0, {0}
    2f8c:	0ca70000 	stceq	0, cr0, [r7]
    2f90:	0b8b0000 	bleq	fe2c2f98 <__bss_end__+0xfe2b9428>
    2f94:	01290000 	teqeq	r9, r0
    2f98:	00740250 	rsbseq	r0, r4, r0, asr r2
    2f9c:	01510129 	cmpeq	r1, r9, lsr #2
    2fa0:	58280030 	stmdapl	r8!, {r4, r5}
    2fa4:	a700008e 	strge	r0, [r0, -lr, lsl #1]
    2fa8:	a700000c 	strge	r0, [r0, -ip]
    2fac:	2900000b 	stmdbcs	r0, {r0, r1, r3}
    2fb0:	0c055001 	stceq	0, cr5, [r5], {1}
    2fb4:	20215044 	eorcs	r5, r1, r4, asr #32
    2fb8:	01510129 	cmpeq	r1, r9, lsr #2
    2fbc:	64280030 	strtvs	r0, [r8], #-48	; 0x30
    2fc0:	a700008e 	strge	r0, [r0, -lr, lsl #1]
    2fc4:	c300000c 	movwgt	r0, #12
    2fc8:	2900000b 	stmdbcs	r0, {r0, r1, r3}
    2fcc:	0c055001 	stceq	0, cr5, [r5], {1}
    2fd0:	2021504c 	eorcs	r5, r1, ip, asr #32
    2fd4:	01510129 	cmpeq	r1, r9, lsr #2
    2fd8:	70280033 	eorvc	r0, r8, r3, lsr r0
    2fdc:	a700008e 	strge	r0, [r0, -lr, lsl #1]
    2fe0:	df00000c 	svcle	0x0000000c
    2fe4:	2900000b 	stmdbcs	r0, {r0, r1, r3}
    2fe8:	0c055001 	stceq	0, cr5, [r5], {1}
    2fec:	20215050 	eorcs	r5, r1, r0, asr r0
    2ff0:	01510129 	cmpeq	r1, r9, lsr #2
    2ff4:	7c280030 	stcvc	0, cr0, [r8], #-192	; 0xffffff40
    2ff8:	a700008e 	strge	r0, [r0, -lr, lsl #1]
    2ffc:	fc00000c 	stc2	0, cr0, [r0], {12}
    3000:	2900000b 	stmdbcs	r0, {r0, r1, r3}
    3004:	0c055001 	stceq	0, cr5, [r5], {1}
    3008:	20215048 	eorcs	r5, r1, r8, asr #32
    300c:	02510129 	subseq	r0, r1, #1073741834	; 0x4000000a
    3010:	2800c708 	stmdacs	r0, {r3, r8, r9, sl, lr, pc}
    3014:	00008e88 	andeq	r8, r0, r8, lsl #29
    3018:	00000ca7 	andeq	r0, r0, r7, lsr #25
    301c:	00000c1a 	andeq	r0, r0, sl, lsl ip
    3020:	05500129 	ldrbeq	r0, [r0, #-297]	; 0x129
    3024:	2150680c 	cmpcs	r0, ip, lsl #16
    3028:	51012920 	tstpl	r1, r0, lsr #18
    302c:	010e0a03 	tsteq	lr, r3, lsl #20
    3030:	8e942800 	cdphi	8, 9, cr2, cr4, cr0, {0}
    3034:	0ca70000 	stceq	0, cr0, [r7]
    3038:	0c330000 	ldceq	0, cr0, [r3], #-0
    303c:	01290000 	teqeq	r9, r0
    3040:	00740250 	rsbseq	r0, r4, r0, asr r2
    3044:	01510129 	cmpeq	r1, r9, lsr #2
    3048:	98250033 	stmdals	r5!, {r0, r1, r4, r5}
    304c:	9c00008e 	stcls	0, cr0, [r0], {142}	; 0x8e
    3050:	0000000c 	andeq	r0, r0, ip
    3054:	000ca42c 	andeq	sl, ip, ip, lsr #8
    3058:	ec2d0100 	stfs	f0, [sp], #-0
    305c:	2000008d 	andcs	r0, r0, sp, lsl #1
    3060:	01000000 	mrseq	r0, (UNDEF: 0)
    3064:	000c959c 	muleq	ip, ip, r5
    3068:	08362d00 	ldmdaeq	r6!, {r8, sl, fp, sp}
    306c:	2d010000 	stccs	0, cr0, [r1, #-0]
    3070:	00000c95 	muleq	r0, r5, ip
    3074:	00000a00 	andeq	r0, r0, r0, lsl #20
    3078:	6c617627 	stclvs	6, cr7, [r1], #-156	; 0xffffff64
    307c:	2c2d0100 	stfcss	f0, [sp], #-0
    3080:	1e000000 	cdpne	0, 0, cr0, cr0, cr0, {0}
    3084:	2800000a 	stmdacs	r0, {r1, r3}
    3088:	00008dfc 	strdeq	r8, [r0], -ip
    308c:	00000cb2 			; <UNDEFINED> instruction: 0x00000cb2
    3090:	00000c84 	andeq	r0, r0, r4, lsl #25
    3094:	02500129 	subseq	r0, r0, #1073741834	; 0x4000000a
    3098:	2b000074 	blcs	3270 <__code_start__-0x4d90>
    309c:	00008e08 	andeq	r8, r0, r8, lsl #28
    30a0:	00000ca7 	andeq	r0, r0, r7, lsr #25
    30a4:	02500129 	subseq	r0, r0, #1073741834	; 0x4000000a
    30a8:	00000074 	andeq	r0, r0, r4, ror r0
    30ac:	0c9b040e 	cfldrseq	mvf0, [fp], {14}
    30b0:	2f2e0000 	svccs	0x002e0000
    30b4:	00000125 	andeq	r0, r0, r5, lsr #2
    30b8:	00000125 	andeq	r0, r0, r5, lsr #2
    30bc:	832f8906 	teqhi	pc, #98304	; 0x18000
    30c0:	8300000b 	movwhi	r0, #11
    30c4:	0600000b 	streq	r0, [r0], -fp
    30c8:	0c862f9c 	stceq	15, cr2, [r6], {156}	; 0x9c
    30cc:	0c860000 	stceq	0, cr0, [r6], {0}
    30d0:	a8060000 	stmdage	r6, {}	; <UNPREDICTABLE>
    30d4:	000a532f 	andeq	r5, sl, pc, lsr #6
    30d8:	000a5300 	andeq	r5, sl, r0, lsl #6
    30dc:	00190800 	andseq	r0, r9, r0, lsl #16
    30e0:	00000b70 	andeq	r0, r0, r0, ror fp
    30e4:	12920004 	addsne	r0, r2, #4
    30e8:	01040000 	mrseq	r0, (UNDEF: 4)
    30ec:	00000b89 	andeq	r0, r0, r9, lsl #23
    30f0:	000d590c 	andeq	r5, sp, ip, lsl #18
    30f4:	0008fd00 	andeq	pc, r8, r0, lsl #26
    30f8:	008f6400 	addeq	r6, pc, r0, lsl #8
    30fc:	00012000 	andeq	r2, r1, r0
    3100:	000eea00 	andeq	lr, lr, r0, lsl #20
    3104:	05040200 	streq	r0, [r4, #-512]	; 0x200
    3108:	00746e69 	rsbseq	r6, r4, r9, ror #28
    310c:	3d070403 	cfstrscc	mvf0, [r7, #-12]
    3110:	04000000 	streq	r0, [r0], #-0
    3114:	0000002c 	andeq	r0, r0, ip, lsr #32
    3118:	bc060103 	stflts	f0, [r6], {3}
    311c:	03000001 	movweq	r0, #1
    3120:	01c80502 	biceq	r0, r8, r2, lsl #10
    3124:	04030000 	streq	r0, [r3], #-0
    3128:	00006d05 	andeq	r6, r0, r5, lsl #26
    312c:	05080300 	streq	r0, [r8, #-768]	; 0x300
    3130:	00000068 	andeq	r0, r0, r8, rrx
    3134:	ba080103 	blt	203548 <__bss_end__+0x1f99d8>
    3138:	03000001 	movweq	r0, #1
    313c:	01120702 	tsteq	r2, r2, lsl #14
    3140:	04030000 	streq	r0, [r3], #-0
    3144:	00003807 	andeq	r3, r0, r7, lsl #16
    3148:	07080300 	streq	r0, [r8, -r0, lsl #6]
    314c:	00000033 	andeq	r0, r0, r3, lsr r0
    3150:	000a9e05 	andeq	r9, sl, r5, lsl #28
    3154:	25070200 	strcs	r0, [r7, #-512]	; 0x200
    3158:	05000000 	streq	r0, [r0, #-0]
    315c:	00000a88 	andeq	r0, r0, r8, lsl #21
    3160:	00462c03 	subeq	r2, r6, r3, lsl #24
    3164:	64050000 	strvs	r0, [r5], #-0
    3168:	0300000b 	movweq	r0, #11
    316c:	00004672 	andeq	r4, r0, r2, ror r6
    3170:	0a220600 	beq	884978 <__bss_end__+0x87ae08>
    3174:	65040000 	strvs	r0, [r4, #-0]
    3178:	00002c01 	andeq	r2, r0, r1, lsl #24
    317c:	03040700 	movweq	r0, #18176	; 0x4700
    3180:	0000bca6 	andeq	fp, r0, r6, lsr #25
    3184:	0a0d0800 	beq	34518c <__bss_end__+0x33b61c>
    3188:	a8030000 	stmdage	r3, {}	; <UNPREDICTABLE>
    318c:	00000091 	muleq	r0, r1, r0
    3190:	0009b508 	andeq	fp, r9, r8, lsl #10
    3194:	bca90300 	stclt	3, cr0, [r9]
    3198:	00000000 	andeq	r0, r0, r0
    319c:	00005409 	andeq	r5, r0, r9, lsl #8
    31a0:	0000cc00 	andeq	ip, r0, r0, lsl #24
    31a4:	00cc0a00 	sbceq	r0, ip, r0, lsl #20
    31a8:	00030000 	andeq	r0, r3, r0
    31ac:	59070403 	stmdbpl	r7, {r0, r1, sl}
    31b0:	0b000001 	bleq	31bc <__code_start__-0x4e44>
    31b4:	f4a30308 	vld4.8	{d0[0],d1[0],d2[0],d3[0]}, [r3], r8
    31b8:	0c000000 	stceq	0, cr0, [r0], {-0}
    31bc:	00000b49 	andeq	r0, r0, r9, asr #22
    31c0:	0025a503 	eoreq	sl, r5, r3, lsl #10
    31c4:	0c000000 	stceq	0, cr0, [r0], {-0}
    31c8:	00000b51 	andeq	r0, r0, r1, asr fp
    31cc:	009daa03 	addseq	sl, sp, r3, lsl #20
    31d0:	00040000 	andeq	r0, r4, r0
    31d4:	000adc05 	andeq	sp, sl, r5, lsl #24
    31d8:	d3ab0300 			; <UNDEFINED> instruction: 0xd3ab0300
    31dc:	05000000 	streq	r0, [r0, #-0]
    31e0:	0000097e 	andeq	r0, r0, lr, ror r9
    31e4:	0070af03 	rsbseq	sl, r0, r3, lsl #30
    31e8:	040d0000 	streq	r0, [sp], #-0
    31ec:	0112040e 	tsteq	r2, lr, lsl #8
    31f0:	01030000 	mrseq	r0, (UNDEF: 3)
    31f4:	0001c308 	andeq	ip, r1, r8, lsl #6
    31f8:	01120400 	tsteq	r2, r0, lsl #8
    31fc:	06050000 	streq	r0, [r5], -r0
    3200:	0500000c 	streq	r0, [r0, #-12]
    3204:	00006216 	andeq	r6, r0, r6, lsl r2
    3208:	098f0f00 	stmibeq	pc, {r8, r9, sl, fp}	; <UNPREDICTABLE>
    320c:	05180000 	ldreq	r0, [r8, #-0]
    3210:	00017c2d 	andeq	r7, r1, sp, lsr #24
    3214:	0afd0c00 	beq	fff4621c <__bss_end__+0xfff3c6ac>
    3218:	2f050000 	svccs	0x00050000
    321c:	0000017c 	andeq	r0, r0, ip, ror r1
    3220:	6b5f1000 	blvs	17c7228 <__bss_end__+0x17bd6b8>
    3224:	25300500 	ldrcs	r0, [r0, #-1280]!	; 0x500
    3228:	04000000 	streq	r0, [r0], #-0
    322c:	000b340c 	andeq	r3, fp, ip, lsl #8
    3230:	25300500 	ldrcs	r0, [r0, #-1280]!	; 0x500
    3234:	08000000 	stmdaeq	r0, {}	; <UNPREDICTABLE>
    3238:	00096a0c 	andeq	r6, r9, ip, lsl #20
    323c:	25300500 	ldrcs	r0, [r0, #-1280]!	; 0x500
    3240:	0c000000 	stceq	0, cr0, [r0], {-0}
    3244:	000c4d0c 	andeq	r4, ip, ip, lsl #26
    3248:	25300500 	ldrcs	r0, [r0, #-1280]!	; 0x500
    324c:	10000000 	andne	r0, r0, r0
    3250:	00785f10 	rsbseq	r5, r8, r0, lsl pc
    3254:	01823105 	orreq	r3, r2, r5, lsl #2
    3258:	00140000 	andseq	r0, r4, r0
    325c:	0129040e 	teqeq	r9, lr, lsl #8
    3260:	1e090000 	cdpne	0, 0, cr0, cr9, cr0, {0}
    3264:	92000001 	andls	r0, r0, #1
    3268:	0a000001 	beq	3274 <__code_start__-0x4d8c>
    326c:	000000cc 	andeq	r0, r0, ip, asr #1
    3270:	b00f0000 	andlt	r0, pc, r0
    3274:	24000009 	strcs	r0, [r0], #-9
    3278:	020b3505 	andeq	r3, fp, #20971520	; 0x1400000
    327c:	680c0000 	stmdavs	ip, {}	; <UNPREDICTABLE>
    3280:	05000008 	streq	r0, [r0, #-8]
    3284:	00002537 	andeq	r2, r0, r7, lsr r5
    3288:	6c0c0000 	stcvs	0, cr0, [ip], {-0}
    328c:	0500000b 	streq	r0, [r0, #-11]
    3290:	00002538 	andeq	r2, r0, r8, lsr r5
    3294:	960c0400 	strls	r0, [ip], -r0, lsl #8
    3298:	05000008 	streq	r0, [r0, #-8]
    329c:	00002539 	andeq	r2, r0, r9, lsr r5
    32a0:	3d0c0800 	stccc	8, cr0, [ip, #-0]
    32a4:	0500000d 	streq	r0, [r0, #-13]
    32a8:	0000253a 	andeq	r2, r0, sl, lsr r5
    32ac:	6c0c0c00 	stcvs	12, cr0, [ip], {-0}
    32b0:	0500000a 	streq	r0, [r0, #-10]
    32b4:	0000253b 	andeq	r2, r0, fp, lsr r5
    32b8:	410c1000 	mrsmi	r1, (UNDEF: 12)
    32bc:	0500000a 	streq	r0, [r0, #-10]
    32c0:	0000253c 	andeq	r2, r0, ip, lsr r5
    32c4:	520c1400 	andpl	r1, ip, #0, 8
    32c8:	0500000c 	streq	r0, [r0, #-12]
    32cc:	0000253d 	andeq	r2, r0, sp, lsr r5
    32d0:	be0c1800 	cdplt	8, 0, cr1, cr12, cr0, {0}
    32d4:	0500000a 	streq	r0, [r0, #-10]
    32d8:	0000253e 	andeq	r2, r0, lr, lsr r5
    32dc:	040c1c00 	streq	r1, [ip], #-3072	; 0xc00
    32e0:	0500000d 	streq	r0, [r0, #-13]
    32e4:	0000253f 	andeq	r2, r0, pc, lsr r5
    32e8:	11002000 	mrsne	r2, (UNDEF: 0)
    32ec:	000008a5 	andeq	r0, r0, r5, lsr #17
    32f0:	48050108 	stmdami	r5, {r3, r8}
    32f4:	0000024b 	andeq	r0, r0, fp, asr #4
    32f8:	0009510c 	andeq	r5, r9, ip, lsl #2
    32fc:	4b490500 	blmi	1244704 <__bss_end__+0x123ab94>
    3300:	00000002 	andeq	r0, r0, r2
    3304:	0007e80c 	andeq	lr, r7, ip, lsl #16
    3308:	4b4a0500 	blmi	1284710 <__bss_end__+0x127aba0>
    330c:	80000002 	andhi	r0, r0, r2
    3310:	000bf812 	andeq	pc, fp, r2, lsl r8	; <UNPREDICTABLE>
    3314:	1e4c0500 	cdpne	5, 4, cr0, cr12, cr0, {0}
    3318:	00000001 	andeq	r0, r0, r1
    331c:	08ca1201 	stmiaeq	sl, {r0, r9, ip}^
    3320:	4f050000 	svcmi	0x00050000
    3324:	0000011e 	andeq	r0, r0, lr, lsl r1
    3328:	09000104 	stmdbeq	r0, {r2, r8}
    332c:	0000010a 	andeq	r0, r0, sl, lsl #2
    3330:	0000025b 	andeq	r0, r0, fp, asr r2
    3334:	0000cc0a 	andeq	ip, r0, sl, lsl #24
    3338:	11001f00 	tstne	r0, r0, lsl #30
    333c:	00000a75 	andeq	r0, r0, r5, ror sl
    3340:	5b050190 	blpl	143988 <__bss_end__+0x139e18>
    3344:	00000299 	muleq	r0, r9, r2
    3348:	000afd0c 	andeq	pc, sl, ip, lsl #26
    334c:	995c0500 	ldmdbls	ip, {r8, sl}^
    3350:	00000002 	andeq	r0, r0, r2
    3354:	000b150c 	andeq	r1, fp, ip, lsl #10
    3358:	255d0500 	ldrbcs	r0, [sp, #-1280]	; 0x500
    335c:	04000000 	streq	r0, [r0], #-0
    3360:	0009650c 	andeq	r6, r9, ip, lsl #10
    3364:	9f5f0500 	svcls	0x005f0500
    3368:	08000002 	stmdaeq	r0, {r1}
    336c:	0008a50c 	andeq	sl, r8, ip, lsl #10
    3370:	0b600500 	bleq	1804778 <__bss_end__+0x17fac08>
    3374:	88000002 	stmdahi	r0, {r1}
    3378:	5b040e00 	blpl	106b80 <__bss_end__+0xfd010>
    337c:	09000002 	stmdbeq	r0, {r1}
    3380:	000002af 	andeq	r0, r0, pc, lsr #5
    3384:	000002af 	andeq	r0, r0, pc, lsr #5
    3388:	0000cc0a 	andeq	ip, r0, sl, lsl #24
    338c:	0e001f00 	cdpeq	15, 0, cr1, cr0, cr0, {0}
    3390:	0002b504 	andeq	fp, r2, r4, lsl #10
    3394:	c80f1300 	stmdagt	pc, {r8, r9, ip}	; <UNPREDICTABLE>
    3398:	0800000a 	stmdaeq	r0, {r1, r3}
    339c:	02db7305 	sbcseq	r7, fp, #335544320	; 0x14000000
    33a0:	8b0c0000 	blhi	3033a8 <__bss_end__+0x2f9838>
    33a4:	05000008 	streq	r0, [r0, #-8]
    33a8:	0002db74 	andeq	sp, r2, r4, ror fp
    33ac:	f40c0000 	vst4.8	{d0-d3}, [ip], r0
    33b0:	05000007 	streq	r0, [r0, #-7]
    33b4:	00002575 	andeq	r2, r0, r5, ror r5
    33b8:	0e000400 	cfcpyseq	mvf0, mvf0
    33bc:	00005404 	andeq	r5, r0, r4, lsl #8
    33c0:	0ae70f00 	beq	ff9c6fc8 <__bss_end__+0xff9bd458>
    33c4:	05680000 	strbeq	r0, [r8, #-0]!
    33c8:	00040bb3 			; <UNDEFINED> instruction: 0x00040bb3
    33cc:	705f1000 	subsvc	r1, pc, r0
    33d0:	dbb40500 	blle	fed047d8 <__bss_end__+0xfecfac68>
    33d4:	00000002 	andeq	r0, r0, r2
    33d8:	00725f10 	rsbseq	r5, r2, r0, lsl pc
    33dc:	0025b505 	eoreq	fp, r5, r5, lsl #10
    33e0:	10040000 	andne	r0, r4, r0
    33e4:	0500775f 	streq	r7, [r0, #-1887]	; 0x75f
    33e8:	000025b6 			; <UNDEFINED> instruction: 0x000025b6
    33ec:	c30c0800 	movwgt	r0, #51200	; 0xc800
    33f0:	05000008 	streq	r0, [r0, #-8]
    33f4:	00003fb7 			; <UNDEFINED> instruction: 0x00003fb7
    33f8:	d60c0c00 	strle	r0, [ip], -r0, lsl #24
    33fc:	05000009 	streq	r0, [r0, #-9]
    3400:	00003fb8 			; <UNDEFINED> instruction: 0x00003fb8
    3404:	5f100e00 	svcpl	0x00100e00
    3408:	05006662 	streq	r6, [r0, #-1634]	; 0x662
    340c:	0002b6b9 			; <UNDEFINED> instruction: 0x0002b6b9
    3410:	2d0c1000 	stccs	0, cr1, [ip, #-0]
    3414:	05000008 	streq	r0, [r0, #-8]
    3418:	000025ba 			; <UNDEFINED> instruction: 0x000025ba
    341c:	b30c1800 	movwlt	r1, #51200	; 0xc800
    3420:	05000008 	streq	r0, [r0, #-8]
    3424:	00010ac1 	andeq	r0, r1, r1, asr #21
    3428:	640c1c00 	strvs	r1, [ip], #-3072	; 0xc00
    342c:	0500000d 	streq	r0, [r0, #-13]
    3430:	000566c3 	andeq	r6, r5, r3, asr #13
    3434:	7e0c2000 	cdpvc	0, 0, cr2, cr12, cr0, {0}
    3438:	0500000d 	streq	r0, [r0, #-13]
    343c:	000590c5 	andeq	r9, r5, r5, asr #1
    3440:	590c2400 	stmdbpl	ip, {sl, sp}
    3444:	0500000b 	streq	r0, [r0, #-11]
    3448:	0005b4c8 	andeq	fp, r5, r8, asr #9
    344c:	1e0c2800 	cdpne	8, 0, cr2, cr12, cr0, {0}
    3450:	0500000d 	streq	r0, [r0, #-13]
    3454:	0005cec9 	andeq	ip, r5, r9, asr #29
    3458:	5f102c00 	svcpl	0x00102c00
    345c:	05006275 	streq	r6, [r0, #-629]	; 0x275
    3460:	0002b6cc 	andeq	fp, r2, ip, asr #13
    3464:	5f103000 	svcpl	0x00103000
    3468:	05007075 	streq	r7, [r0, #-117]	; 0x75
    346c:	0002dbcd 	andeq	sp, r2, sp, asr #23
    3470:	5f103800 	svcpl	0x00103800
    3474:	05007275 	streq	r7, [r0, #-629]	; 0x275
    3478:	000025ce 	andeq	r2, r0, lr, asr #11
    347c:	760c3c00 	strvc	r3, [ip], -r0, lsl #24
    3480:	05000008 	streq	r0, [r0, #-8]
    3484:	0005d4d1 	ldrdeq	sp, [r5], -r1
    3488:	c90c4000 	stmdbgt	ip, {lr}
    348c:	0500000c 	streq	r0, [r0, #-12]
    3490:	0005e4d2 	ldrdeq	lr, [r5], -r2
    3494:	5f104300 	svcpl	0x00104300
    3498:	0500626c 	streq	r6, [r0, #-620]	; 0x26c
    349c:	0002b6d5 	ldrdeq	fp, [r2], -r5
    34a0:	d90c4400 	stmdble	ip, {sl, lr}
    34a4:	05000008 	streq	r0, [r0, #-8]
    34a8:	000025d8 	ldrdeq	r2, [r0], -r8
    34ac:	4b0c4c00 	blmi	3164b4 <__bss_end__+0x30c944>
    34b0:	0500000a 	streq	r0, [r0, #-10]
    34b4:	00007bd9 	ldrdeq	r7, [r0], -r9
    34b8:	b40c5000 	strlt	r5, [ip], #-0
    34bc:	0500000c 	streq	r0, [r0, #-12]
    34c0:	000429dc 	ldrdeq	r2, [r4], -ip
    34c4:	290c5400 	stmdbcs	ip, {sl, ip, lr}
    34c8:	0500000a 	streq	r0, [r0, #-10]
    34cc:	0000ffe0 	andeq	pc, r0, r0, ror #31
    34d0:	ef0c5800 	svc	0x000c5800
    34d4:	0500000a 	streq	r0, [r0, #-10]
    34d8:	0000f4e2 	andeq	pc, r0, r2, ror #9
    34dc:	2f0c5c00 	svccs	0x000c5c00
    34e0:	0500000a 	streq	r0, [r0, #-10]
    34e4:	000025e3 	andeq	r2, r0, r3, ror #11
    34e8:	14006400 	strne	r6, [r0], #-1024	; 0x400
    34ec:	00000025 	andeq	r0, r0, r5, lsr #32
    34f0:	00000429 	andeq	r0, r0, r9, lsr #8
    34f4:	00042915 	andeq	r2, r4, r5, lsl r9
    34f8:	010a1500 	tsteq	sl, r0, lsl #10
    34fc:	0c150000 	ldceq	0, cr0, [r5], {-0}
    3500:	15000001 	strne	r0, [r0, #-1]
    3504:	00000025 	andeq	r0, r0, r5, lsr #32
    3508:	34040e00 	strcc	r0, [r4], #-3584	; 0xe00
    350c:	04000004 	streq	r0, [r0], #-4
    3510:	00000429 	andeq	r0, r0, r9, lsr #8
    3514:	000b3c16 	andeq	r3, fp, r6, lsl ip
    3518:	05042800 	streq	r2, [r4, #-2048]	; 0x800
    351c:	05660238 	strbeq	r0, [r6, #-568]!	; 0x238
    3520:	b7170000 	ldrlt	r0, [r7, -r0]
    3524:	0500000a 	streq	r0, [r0, #-10]
    3528:	0025023a 	eoreq	r0, r5, sl, lsr r2
    352c:	17000000 	strne	r0, [r0, -r0]
    3530:	000008d2 	ldrdeq	r0, [r0], -r2
    3534:	3b023f05 	blcc	93150 <__bss_end__+0x895e0>
    3538:	04000006 	streq	r0, [r0], #-6
    353c:	0009c617 	andeq	ip, r9, r7, lsl r6
    3540:	023f0500 	eorseq	r0, pc, #0, 10
    3544:	0000063b 	andeq	r0, r0, fp, lsr r6
    3548:	09871708 	stmibeq	r7, {r3, r8, r9, sl, ip}
    354c:	3f050000 	svccc	0x00050000
    3550:	00063b02 	andeq	r3, r6, r2, lsl #22
    3554:	10170c00 	andsne	r0, r7, r0, lsl #24
    3558:	0500000b 	streq	r0, [r0, #-11]
    355c:	00250241 	eoreq	r0, r5, r1, asr #4
    3560:	17100000 	ldrne	r0, [r0, -r0]
    3564:	00000802 	andeq	r0, r0, r2, lsl #16
    3568:	1d024205 	sfmne	f4, 4, [r2, #-20]	; 0xffffffec
    356c:	14000008 	strne	r0, [r0], #-8
    3570:	000c2e17 	andeq	r2, ip, r7, lsl lr
    3574:	02440500 	subeq	r0, r4, #0, 10
    3578:	00000025 	andeq	r0, r0, r5, lsr #32
    357c:	0b1a1730 	bleq	689244 <__bss_end__+0x67f6d4>
    3580:	45050000 	strmi	r0, [r5, #-0]
    3584:	00058a02 	andeq	r8, r5, r2, lsl #20
    3588:	7d173400 	cfldrsvc	mvf3, [r7, #-0]
    358c:	0500000a 	streq	r0, [r0, #-10]
    3590:	00250247 	eoreq	r0, r5, r7, asr #4
    3594:	17380000 	ldrne	r0, [r8, -r0]!
    3598:	00000b2a 	andeq	r0, r0, sl, lsr #22
    359c:	38024905 	stmdacc	r2, {r0, r2, r8, fp, lr}
    35a0:	3c000008 	stccc	0, cr0, [r0], {8}
    35a4:	000a0517 	andeq	r0, sl, r7, lsl r5
    35a8:	024c0500 	subeq	r0, ip, #0, 10
    35ac:	0000017c 	andeq	r0, r0, ip, ror r1
    35b0:	09a61740 	stmibeq	r6!, {r6, r8, r9, sl, ip}
    35b4:	4d050000 	stcmi	0, cr0, [r5, #-0]
    35b8:	00002502 	andeq	r2, r0, r2, lsl #10
    35bc:	38174400 	ldmdacc	r7, {sl, lr}
    35c0:	0500000d 	streq	r0, [r0, #-13]
    35c4:	017c024e 	cmneq	ip, lr, asr #4
    35c8:	17480000 	strbne	r0, [r8, -r0]
    35cc:	00000a94 	muleq	r0, r4, sl
    35d0:	3e024f05 	cdpcc	15, 0, cr4, cr2, cr5, {0}
    35d4:	4c000008 	stcmi	0, cr0, [r0], {8}
    35d8:	0009ce17 	andeq	ip, r9, r7, lsl lr
    35dc:	02520500 	subseq	r0, r2, #0, 10
    35e0:	00000025 	andeq	r0, r0, r5, lsr #32
    35e4:	08f51750 	ldmeq	r5!, {r4, r6, r8, r9, sl, ip}^
    35e8:	53050000 	movwpl	r0, #20480	; 0x5000
    35ec:	00010c02 	andeq	r0, r1, r2, lsl #24
    35f0:	b0175400 	andslt	r5, r7, r0, lsl #8
    35f4:	0500000a 	streq	r0, [r0, #-10]
    35f8:	07fb0276 			; <UNDEFINED> instruction: 0x07fb0276
    35fc:	18580000 	ldmdane	r8, {}^	; <UNPREDICTABLE>
    3600:	00000a75 	andeq	r0, r0, r5, ror sl
    3604:	99027a05 	stmdbls	r2, {r0, r2, r9, fp, ip, sp, lr}
    3608:	48000002 	stmdami	r0, {r1}
    360c:	09e31801 	stmibeq	r3!, {r0, fp, ip}^
    3610:	7b050000 	blvc	143618 <__bss_end__+0x139aa8>
    3614:	00025b02 	andeq	r5, r2, r2, lsl #22
    3618:	18014c00 	stmdane	r1, {sl, fp, lr}
    361c:	00000c9a 	muleq	r0, sl, ip
    3620:	4f027f05 	svcmi	0x00027f05
    3624:	dc000008 	stcle	0, cr0, [r0], {8}
    3628:	08bb1802 	ldmeq	fp!, {r1, fp, ip}
    362c:	84050000 	strhi	r0, [r5], #-0
    3630:	00060002 	andeq	r0, r6, r2
    3634:	1802e000 	stmdane	r2, {sp, lr, pc}
    3638:	000008a0 	andeq	r0, r0, r0, lsr #17
    363c:	5b028505 	blpl	a4a58 <__bss_end__+0x9aee8>
    3640:	ec000008 	stc	0, cr0, [r0], {8}
    3644:	040e0002 	streq	r0, [lr], #-2
    3648:	0000040b 	andeq	r0, r0, fp, lsl #8
    364c:	00002514 	andeq	r2, r0, r4, lsl r5
    3650:	00058a00 	andeq	r8, r5, r0, lsl #20
    3654:	04291500 	strteq	r1, [r9], #-1280	; 0x500
    3658:	0a150000 	beq	543660 <__bss_end__+0x539af0>
    365c:	15000001 	strne	r0, [r0, #-1]
    3660:	0000058a 	andeq	r0, r0, sl, lsl #11
    3664:	00002515 	andeq	r2, r0, r5, lsl r5
    3668:	040e0000 	streq	r0, [lr], #-0
    366c:	00000119 	andeq	r0, r0, r9, lsl r1
    3670:	056c040e 	strbeq	r0, [ip, #-1038]!	; 0x40e
    3674:	86140000 	ldrhi	r0, [r4], -r0
    3678:	b4000000 	strlt	r0, [r0], #-0
    367c:	15000005 	strne	r0, [r0, #-5]
    3680:	00000429 	andeq	r0, r0, r9, lsr #8
    3684:	00010a15 	andeq	r0, r1, r5, lsl sl
    3688:	00861500 	addeq	r1, r6, r0, lsl #10
    368c:	25150000 	ldrcs	r0, [r5, #-0]
    3690:	00000000 	andeq	r0, r0, r0
    3694:	0596040e 	ldreq	r0, [r6, #1038]	; 0x40e
    3698:	25140000 	ldrcs	r0, [r4, #-0]
    369c:	ce000000 	cdpgt	0, 0, cr0, cr0, cr0, {0}
    36a0:	15000005 	strne	r0, [r0, #-5]
    36a4:	00000429 	andeq	r0, r0, r9, lsr #8
    36a8:	00010a15 	andeq	r0, r1, r5, lsl sl
    36ac:	040e0000 	streq	r0, [lr], #-0
    36b0:	000005ba 			; <UNDEFINED> instruction: 0x000005ba
    36b4:	00005409 	andeq	r5, r0, r9, lsl #8
    36b8:	0005e400 	andeq	lr, r5, r0, lsl #8
    36bc:	00cc0a00 	sbceq	r0, ip, r0, lsl #20
    36c0:	00020000 	andeq	r0, r2, r0
    36c4:	00005409 	andeq	r5, r0, r9, lsl #8
    36c8:	0005f400 	andeq	pc, r5, r0, lsl #8
    36cc:	00cc0a00 	sbceq	r0, ip, r0, lsl #20
    36d0:	00000000 	andeq	r0, r0, r0
    36d4:	000ad506 	andeq	sp, sl, r6, lsl #10
    36d8:	011d0500 	tsteq	sp, r0, lsl #10
    36dc:	000002e1 	andeq	r0, r0, r1, ror #5
    36e0:	000c5c19 	andeq	r5, ip, r9, lsl ip
    36e4:	21050c00 	tstcs	r5, r0, lsl #24
    36e8:	00063501 	andeq	r3, r6, r1, lsl #10
    36ec:	0afd1700 	beq	fff492f4 <__bss_end__+0xfff3f784>
    36f0:	23050000 	movwcs	r0, #20480	; 0x5000
    36f4:	00063501 	andeq	r3, r6, r1, lsl #10
    36f8:	dc170000 	ldcle	0, cr0, [r7], {-0}
    36fc:	05000009 	streq	r0, [r0, #-9]
    3700:	00250124 	eoreq	r0, r5, r4, lsr #2
    3704:	17040000 	strne	r0, [r4, -r0]
    3708:	00000acf 	andeq	r0, r0, pc, asr #21
    370c:	3b012505 	blcc	4cb28 <__bss_end__+0x42fb8>
    3710:	08000006 	stmdaeq	r0, {r1, r2}
    3714:	00040e00 	andeq	r0, r4, r0, lsl #28
    3718:	0e000006 	cdpeq	0, 0, cr0, cr0, cr6, {0}
    371c:	0005f404 	andeq	pc, r5, r4, lsl #8
    3720:	07fa1900 	ldrbeq	r1, [sl, r0, lsl #18]!
    3724:	050e0000 	streq	r0, [lr, #-0]
    3728:	0676013d 			; <UNDEFINED> instruction: 0x0676013d
    372c:	43170000 	tstmi	r7, #0
    3730:	0500000b 	streq	r0, [r0, #-11]
    3734:	0676013e 			; <UNDEFINED> instruction: 0x0676013e
    3738:	17000000 	strne	r0, [r0, -r0]
    373c:	00000b7d 	andeq	r0, r0, sp, ror fp
    3740:	76013f05 	strvc	r3, [r1], -r5, lsl #30
    3744:	06000006 	streq	r0, [r0], -r6
    3748:	000c0117 	andeq	r0, ip, r7, lsl r1
    374c:	01400500 	cmpeq	r0, r0, lsl #10
    3750:	0000005b 	andeq	r0, r0, fp, asr r0
    3754:	5b09000c 	blpl	24378c <__bss_end__+0x239c1c>
    3758:	86000000 	strhi	r0, [r0], -r0
    375c:	0a000006 	beq	377c <__code_start__-0x4884>
    3760:	000000cc 	andeq	r0, r0, ip, asr #1
    3764:	d01a0002 	andsle	r0, sl, r2
    3768:	87025705 	strhi	r5, [r2, -r5, lsl #14]
    376c:	17000007 	strne	r0, [r0, -r7]
    3770:	00000c40 	andeq	r0, r0, r0, asr #24
    3774:	2c025905 	stccs	9, cr5, [r2], {5}
    3778:	00000000 	andeq	r0, r0, r0
    377c:	000beb17 	andeq	lr, fp, r7, lsl fp
    3780:	025a0500 	subseq	r0, sl, #0, 10
    3784:	0000010c 	andeq	r0, r0, ip, lsl #2
    3788:	09f81704 	ldmibeq	r8!, {r2, r8, r9, sl, ip}^
    378c:	5b050000 	blpl	143794 <__bss_end__+0x139c24>
    3790:	00078702 	andeq	r8, r7, r2, lsl #14
    3794:	0f170800 	svceq	0x00170800
    3798:	0500000d 	streq	r0, [r0, #-13]
    379c:	0192025c 	orrseq	r0, r2, ip, asr r2
    37a0:	17240000 	strne	r0, [r4, -r0]!
    37a4:	00000997 	muleq	r0, r7, r9
    37a8:	25025d05 	strcs	r5, [r2, #-3333]	; 0xd05
    37ac:	48000000 	stmdami	r0, {}	; <UNPREDICTABLE>
    37b0:	000af817 	andeq	pc, sl, r7, lsl r8	; <UNPREDICTABLE>
    37b4:	025e0500 	subseq	r0, lr, #0, 10
    37b8:	00000069 	andeq	r0, r0, r9, rrx
    37bc:	0d251750 	stceq	7, cr1, [r5, #-320]!	; 0xfffffec0
    37c0:	5f050000 	svcpl	0x00050000
    37c4:	00064102 	andeq	r4, r6, r2, lsl #2
    37c8:	03175800 	tsteq	r7, #0, 16
    37cc:	0500000b 	streq	r0, [r0, #-11]
    37d0:	00f40260 	rscseq	r0, r4, r0, ror #4
    37d4:	17680000 	strbne	r0, [r8, -r0]!
    37d8:	00000d2a 	andeq	r0, r0, sl, lsr #26
    37dc:	f4026105 	vst4.8	{d6,d8,d10,d12}, [r2], r5
    37e0:	70000000 	andvc	r0, r0, r0
    37e4:	00085a17 	andeq	r5, r8, r7, lsl sl
    37e8:	02620500 	rsbeq	r0, r2, #0, 10
    37ec:	000000f4 	strdeq	r0, [r0], -r4
    37f0:	0c7c1778 	ldcleq	7, cr1, [ip], #-480	; 0xfffffe20
    37f4:	63050000 	movwvs	r0, #20480	; 0x5000
    37f8:	00079702 	andeq	r9, r7, r2, lsl #14
    37fc:	ec178000 	ldc	0, cr8, [r7], {-0}
    3800:	05000009 	streq	r0, [r0, #-9]
    3804:	07a70264 	streq	r0, [r7, r4, ror #4]!
    3808:	17880000 	strne	r0, [r8, r0]
    380c:	00000c0e 	andeq	r0, r0, lr, lsl #24
    3810:	25026505 	strcs	r6, [r2, #-1285]	; 0x505
    3814:	a0000000 	andge	r0, r0, r0
    3818:	00094317 	andeq	r4, r9, r7, lsl r3
    381c:	02660500 	rsbeq	r0, r6, #0, 10
    3820:	000000f4 	strdeq	r0, [r0], -r4
    3824:	084b17a4 	stmdaeq	fp, {r2, r5, r7, r8, r9, sl, ip}^
    3828:	67050000 	strvs	r0, [r5, -r0]
    382c:	0000f402 	andeq	pc, r0, r2, lsl #8
    3830:	3217ac00 	andscc	sl, r7, #0, 24
    3834:	05000009 	streq	r0, [r0, #-9]
    3838:	00f40268 	rscseq	r0, r4, r8, ror #4
    383c:	17b40000 	ldrne	r0, [r4, r0]!
    3840:	0000080d 	andeq	r0, r0, sp, lsl #16
    3844:	f4026905 	vst2.8	{d6,d8}, [r2], r5
    3848:	bc000000 	stclt	0, cr0, [r0], {-0}
    384c:	00081c17 	andeq	r1, r8, r7, lsl ip
    3850:	026a0500 	rsbeq	r0, sl, #0, 10
    3854:	000000f4 	strdeq	r0, [r0], -r4
    3858:	0ab517c4 	beq	fed49770 <__bss_end__+0xfed3fc00>
    385c:	6b050000 	blvs	143864 <__bss_end__+0x139cf4>
    3860:	00002502 	andeq	r2, r0, r2, lsl #10
    3864:	0900cc00 	stmdbeq	r0, {sl, fp, lr, pc}
    3868:	00000112 	andeq	r0, r0, r2, lsl r1
    386c:	00000797 	muleq	r0, r7, r7
    3870:	0000cc0a 	andeq	ip, r0, sl, lsl #24
    3874:	09001900 	stmdbeq	r0, {r8, fp, ip}
    3878:	00000112 	andeq	r0, r0, r2, lsl r1
    387c:	000007a7 	andeq	r0, r0, r7, lsr #15
    3880:	0000cc0a 	andeq	ip, r0, sl, lsl #24
    3884:	09000700 	stmdbeq	r0, {r8, r9, sl}
    3888:	00000112 	andeq	r0, r0, r2, lsl r1
    388c:	000007b7 			; <UNDEFINED> instruction: 0x000007b7
    3890:	0000cc0a 	andeq	ip, r0, sl, lsl #24
    3894:	1a001700 	bne	949c <__FUNCTION__.4272+0x10>
    3898:	027005f0 	rsbseq	r0, r0, #240, 10	; 0x3c000000
    389c:	000007db 	ldrdeq	r0, [r0], -fp
    38a0:	000a6517 	andeq	r6, sl, r7, lsl r5
    38a4:	02730500 	rsbseq	r0, r3, #0, 10
    38a8:	000007db 	ldrdeq	r0, [r0], -fp
    38ac:	0c731700 	ldcleq	7, cr1, [r3], #-0
    38b0:	74050000 	strvc	r0, [r5], #-0
    38b4:	0007eb02 	andeq	lr, r7, r2, lsl #22
    38b8:	09007800 	stmdbeq	r0, {fp, ip, sp, lr}
    38bc:	000002db 	ldrdeq	r0, [r0], -fp
    38c0:	000007eb 	andeq	r0, r0, fp, ror #15
    38c4:	0000cc0a 	andeq	ip, r0, sl, lsl #24
    38c8:	09001d00 	stmdbeq	r0, {r8, sl, fp, ip}
    38cc:	0000002c 	andeq	r0, r0, ip, lsr #32
    38d0:	000007fb 	strdeq	r0, [r0], -fp
    38d4:	0000cc0a 	andeq	ip, r0, sl, lsl #24
    38d8:	1b001d00 	blne	ace0 <__bss_end__+0x1170>
    38dc:	025505f0 	subseq	r0, r5, #240, 10	; 0x3c000000
    38e0:	0000081d 	andeq	r0, r0, sp, lsl r8
    38e4:	000b3c1c 	andeq	r3, fp, ip, lsl ip
    38e8:	026c0500 	rsbeq	r0, ip, #0, 10
    38ec:	00000686 	andeq	r0, r0, r6, lsl #13
    38f0:	000ccf1c 	andeq	ip, ip, ip, lsl pc
    38f4:	02750500 	rsbseq	r0, r5, #0, 10
    38f8:	000007b7 			; <UNDEFINED> instruction: 0x000007b7
    38fc:	01120900 	tsteq	r2, r0, lsl #18
    3900:	082d0000 	stmdaeq	sp!, {}	; <UNPREDICTABLE>
    3904:	cc0a0000 	stcgt	0, cr0, [sl], {-0}
    3908:	18000000 	stmdane	r0, {}	; <UNPREDICTABLE>
    390c:	08381d00 	ldmdaeq	r8!, {r8, sl, fp, ip}
    3910:	29150000 	ldmdbcs	r5, {}	; <UNPREDICTABLE>
    3914:	00000004 	andeq	r0, r0, r4
    3918:	082d040e 	stmdaeq	sp!, {r1, r2, r3, sl}
    391c:	040e0000 	streq	r0, [lr], #-0
    3920:	0000017c 	andeq	r0, r0, ip, ror r1
    3924:	00084f1d 	andeq	r4, r8, sp, lsl pc
    3928:	00251500 	eoreq	r1, r5, r0, lsl #10
    392c:	0e000000 	cdpeq	0, 0, cr0, cr0, cr0, {0}
    3930:	00085504 	andeq	r5, r8, r4, lsl #10
    3934:	44040e00 	strmi	r0, [r4], #-3584	; 0xe00
    3938:	09000008 	stmdbeq	r0, {r3}
    393c:	000005f4 	strdeq	r0, [r0], -r4
    3940:	0000086b 	andeq	r0, r0, fp, ror #16
    3944:	0000cc0a 	andeq	ip, r0, sl, lsl #24
    3948:	1e000200 	cdpne	2, 0, cr0, cr0, cr0, {0}
    394c:	00000c22 	andeq	r0, r0, r2, lsr #24
    3950:	2902fd05 	stmdbcs	r2, {r0, r2, r8, sl, fp, ip, sp, lr, pc}
    3954:	1e000004 	cdpne	0, 0, cr0, cr0, cr4, {0}
    3958:	00000c1b 	andeq	r0, r0, fp, lsl ip
    395c:	2f02fe05 	svccs	0x0002fe05
    3960:	14000004 	strne	r0, [r0], #-4
    3964:	00000025 	andeq	r0, r0, r5, lsr #32
    3968:	00000892 	muleq	r0, r2, r8
    396c:	00002515 	andeq	r2, r0, r5, lsl r5
    3970:	7a1f0000 	bvc	7c3978 <__bss_end__+0x7b9e08>
    3974:	06000004 	streq	r0, [r0], -r4
    3978:	00089d1d 	andeq	r9, r8, sp, lsl sp
    397c:	83040e00 	movwhi	r0, #19968	; 0x4e00
    3980:	14000008 	strne	r0, [r0], #-8
    3984:	00000025 	andeq	r0, r0, r5, lsr #32
    3988:	000008b2 			; <UNDEFINED> instruction: 0x000008b2
    398c:	00058a15 	andeq	r8, r5, r5, lsl sl
    3990:	751f0000 	ldrvc	r0, [pc, #-0]	; 3998 <__code_start__-0x4668>
    3994:	06000004 	streq	r0, [r0], -r4
    3998:	0008bd22 	andeq	fp, r8, r2, lsr #26
    399c:	a3040e00 	movwge	r0, #19968	; 0x4e00
    39a0:	20000008 	andcs	r0, r0, r8
    39a4:	00005401 	andeq	r5, r0, r1, lsl #8
    39a8:	000c0700 	andeq	r0, ip, r0, lsl #14
    39ac:	21000009 	tstcs	r0, r9
    39b0:	0000083b 	andeq	r0, r0, fp, lsr r8
    39b4:	0c622100 	stfeqe	f2, [r2], #-0
    39b8:	21010000 	mrscs	r0, (UNDEF: 1)
    39bc:	00000cba 			; <UNDEFINED> instruction: 0x00000cba
    39c0:	087c2104 	ldmdaeq	ip!, {r2, r8, sp}^
    39c4:	21050000 	mrscs	r0, (UNDEF: 5)
    39c8:	00000a13 	andeq	r0, r0, r3, lsl sl
    39cc:	0cd72106 	ldfeqe	f2, [r7], {6}
    39d0:	21070000 	mrscs	r0, (UNDEF: 7)
    39d4:	00000ce6 	andeq	r0, r0, r6, ror #25
    39d8:	0cf52103 	ldfeqe	f2, [r5], #12
    39dc:	00020000 	andeq	r0, r2, r0
    39e0:	000db405 	andeq	fp, sp, r5, lsl #8
    39e4:	c3150700 	tstgt	r5, #0, 14
    39e8:	22000008 	andcs	r0, r0, #8
    39ec:	00000d85 	andeq	r0, r0, r5, lsl #27
    39f0:	00331d01 	eorseq	r1, r3, r1, lsl #26
    39f4:	001c0000 	andseq	r0, ip, r0
    39f8:	c0222020 	eorgt	r2, r2, r0, lsr #32
    39fc:	0100000d 	tsteq	r0, sp
    3a00:	0000331e 	andeq	r3, r0, lr, lsl r3
    3a04:	20002800 	andcs	r2, r0, r0, lsl #16
    3a08:	0d8f2220 	sfmeq	f2, 4, [pc, #128]	; 3a90 <__code_start__-0x4570>
    3a0c:	1f010000 	svcne	0x00010000
    3a10:	00000033 	andeq	r0, r0, r3, lsr r0
    3a14:	20200034 	eorcs	r0, r0, r4, lsr r0
    3a18:	000d6023 	andeq	r6, sp, r3, lsr #32
    3a1c:	25560100 	ldrbcs	r0, [r6, #-256]	; 0x100
    3a20:	50000000 	andpl	r0, r0, r0
    3a24:	34000090 	strcc	r0, [r0], #-144	; 0x90
    3a28:	01000000 	mrseq	r0, (UNDEF: 0)
    3a2c:	0009989c 	muleq	r9, ip, r8
    3a30:	69702400 	ldmdbvs	r0!, {sl, sp}^
    3a34:	5601006e 	strpl	r0, [r1], -lr, rrx
    3a38:	0000002c 	andeq	r0, r0, ip, lsr #32
    3a3c:	00000a3c 	andeq	r0, r0, ip, lsr sl
    3a40:	000d5425 	andeq	r5, sp, r5, lsr #8
    3a44:	2c590100 	ldfcse	f0, [r9], {-0}
    3a48:	76000000 	strvc	r0, [r0], -r0
    3a4c:	2600000a 	strcs	r0, [r0], -sl
    3a50:	0066666f 	rsbeq	r6, r6, pc, ror #12
    3a54:	002c5a01 	eoreq	r5, ip, r1, lsl #20
    3a58:	0ab40000 	beq	fed03a60 <__bss_end__+0xfecf9ef0>
    3a5c:	6c270000 	stcvs	0, cr0, [r7], #-0
    3a60:	5d000090 	stcpl	0, cr0, [r0, #-576]	; 0xfffffdc0
    3a64:	2800000b 	stmdacs	r0, {r0, r1, r3}
    3a68:	f30b5001 	vhadd.u8	d5, d11, d1
    3a6c:	25355001 	ldrcs	r5, [r5, #-1]!
    3a70:	8080b423 	addhi	fp, r0, r3, lsr #8
    3a74:	00000281 	andeq	r0, r0, r1, lsl #5
    3a78:	000d7a29 	andeq	r7, sp, r9, lsr #20
    3a7c:	344f0100 	strbcc	r0, [pc], #-256	; 3a84 <__code_start__-0x457c>
    3a80:	1c000090 	stcne	0, cr0, [r0], {144}	; 0x90
    3a84:	01000000 	mrseq	r0, (UNDEF: 0)
    3a88:	0009e89c 	muleq	r9, ip, r8
    3a8c:	69702400 	ldmdbvs	r0!, {sl, sp}^
    3a90:	4f01006e 	svcmi	0x0001006e
    3a94:	0000002c 	andeq	r0, r0, ip, lsr #32
    3a98:	00000ac7 	andeq	r0, r0, r7, asr #21
    3a9c:	01007624 	tsteq	r0, r4, lsr #12
    3aa0:	00002c4f 	andeq	r2, r0, pc, asr #24
    3aa4:	000b0100 	andeq	r0, fp, r0, lsl #2
    3aa8:	90442a00 	subls	r2, r4, r0, lsl #20
    3aac:	0a230000 	beq	8c3ab4 <__bss_end__+0x8b9f44>
    3ab0:	09de0000 	ldmibeq	lr, {}^	; <UNPREDICTABLE>
    3ab4:	01280000 	teqeq	r8, r0
    3ab8:	01f30350 	mvnseq	r0, r0, asr r3
    3abc:	4c2b0050 	stcmi	0, cr0, [fp], #-320	; 0xfffffec0
    3ac0:	64000090 	strvs	r0, [r0], #-144	; 0x90
    3ac4:	0000000a 	andeq	r0, r0, sl
    3ac8:	000d9929 	andeq	r9, sp, r9, lsr #18
    3acc:	244a0100 	strbcs	r0, [sl], #-256	; 0x100
    3ad0:	10000090 	mulne	r0, r0, r0
    3ad4:	01000000 	mrseq	r0, (UNDEF: 0)
    3ad8:	000a239c 	muleq	sl, ip, r3
    3adc:	69702400 	ldmdbvs	r0!, {sl, sp}^
    3ae0:	4a01006e 	bmi	43ca0 <__bss_end__+0x3a130>
    3ae4:	0000002c 	andeq	r0, r0, ip, lsr #32
    3ae8:	00000b3b 	andeq	r0, r0, fp, lsr fp
    3aec:	00903027 	addseq	r3, r0, r7, lsr #32
    3af0:	000ae000 	andeq	lr, sl, r0
    3af4:	50012800 	andpl	r2, r1, r0, lsl #16
    3af8:	5001f303 	andpl	pc, r1, r3, lsl #6
    3afc:	01510128 	cmpeq	r1, r8, lsr #2
    3b00:	29000030 	stmdbcs	r0, {r4, r5}
    3b04:	00000d47 	andeq	r0, r0, r7, asr #26
    3b08:	90004301 	andls	r4, r0, r1, lsl #6
    3b0c:	00240000 	eoreq	r0, r4, r0
    3b10:	9c010000 	stcls	0, cr0, [r1], {-0}
    3b14:	00000a64 	andeq	r0, r0, r4, ror #20
    3b18:	6e697024 	cdpvs	0, 6, cr7, cr9, cr4, {1}
    3b1c:	2c430100 	stfcse	f0, [r3], {-0}
    3b20:	5c000000 	stcpl	0, cr0, [r0], {-0}
    3b24:	2700000b 	strcs	r0, [r0, -fp]
    3b28:	0000901c 	andeq	r9, r0, ip, lsl r0
    3b2c:	00000b68 	andeq	r0, r0, r8, ror #22
    3b30:	05500128 	ldrbeq	r0, [r0, #-296]	; 0x128
    3b34:	2000280c 	andcs	r2, r0, ip, lsl #16
    3b38:	51012820 	tstpl	r1, r0, lsr #16
    3b3c:	01f33105 	mvnseq	r3, r5, lsl #2
    3b40:	00002450 	andeq	r2, r0, r0, asr r4
    3b44:	000da829 	andeq	sl, sp, r9, lsr #16
    3b48:	dc3c0100 	ldfles	f0, [ip], #-0
    3b4c:	2400008f 	strcs	r0, [r0], #-143	; 0x8f
    3b50:	01000000 	mrseq	r0, (UNDEF: 0)
    3b54:	000aa59c 	muleq	sl, ip, r5
    3b58:	69702400 	ldmdbvs	r0!, {sl, sp}^
    3b5c:	3c01006e 	stccc	0, cr0, [r1], {110}	; 0x6e
    3b60:	0000002c 	andeq	r0, r0, ip, lsr #32
    3b64:	00000b7d 	andeq	r0, r0, sp, ror fp
    3b68:	008ff827 	addeq	pc, pc, r7, lsr #16
    3b6c:	000b6800 	andeq	r6, fp, r0, lsl #16
    3b70:	50012800 	andpl	r2, r1, r0, lsl #16
    3b74:	001c0c05 	andseq	r0, ip, r5, lsl #24
    3b78:	01282020 	teqeq	r8, r0, lsr #32
    3b7c:	f3310551 	vqrshl.u64	q0, <illegal reg q0.5>, <illegal reg q0.5>
    3b80:	00245001 	eoreq	r5, r4, r1
    3b84:	0d6a2900 	stcleq	9, cr2, [sl, #-0]
    3b88:	37010000 	strcc	r0, [r1, -r0]
    3b8c:	00008fcc 	andeq	r8, r0, ip, asr #31
    3b90:	00000010 	andeq	r0, r0, r0, lsl r0
    3b94:	0ae09c01 	beq	ff82aba0 <__bss_end__+0xff821030>
    3b98:	70240000 	eorvc	r0, r4, r0
    3b9c:	01006e69 	tsteq	r0, r9, ror #28
    3ba0:	00002c37 	andeq	r2, r0, r7, lsr ip
    3ba4:	000b9e00 	andeq	r9, fp, r0, lsl #28
    3ba8:	8fd82700 	svchi	0x00d82700
    3bac:	0ae00000 	beq	ff803bb4 <__bss_end__+0xff7fa044>
    3bb0:	01280000 	teqeq	r8, r0
    3bb4:	01f30350 	mvnseq	r0, r0, asr r3
    3bb8:	51012850 	tstpl	r1, r0, asr r8
    3bbc:	00003101 	andeq	r3, r0, r1, lsl #2
    3bc0:	000a5329 	andeq	r5, sl, r9, lsr #6
    3bc4:	64280100 	strtvs	r0, [r8], #-256	; 0x100
    3bc8:	6800008f 	stmdavs	r0, {r0, r1, r2, r3, r7}
    3bcc:	01000000 	mrseq	r0, (UNDEF: 0)
    3bd0:	000b5d9c 	muleq	fp, ip, sp
    3bd4:	69702400 	ldmdbvs	r0!, {sl, sp}^
    3bd8:	2801006e 	stmdacs	r1, {r1, r2, r3, r5, r6}
    3bdc:	0000002c 	andeq	r0, r0, ip, lsr #32
    3be0:	00000bbf 			; <UNDEFINED> instruction: 0x00000bbf
    3be4:	000c9f2c 	andeq	r9, ip, ip, lsr #30
    3be8:	00280100 	eoreq	r0, r8, r0, lsl #2
    3bec:	e0000009 	and	r0, r0, r9
    3bf0:	2d00000b 	stccs	0, cr0, [r0, #-44]	; 0xffffffd4
    3bf4:	0066666f 	rsbeq	r6, r6, pc, ror #12
    3bf8:	002c2d01 	eoreq	r2, ip, r1, lsl #26
    3bfc:	54010000 	strpl	r0, [r1], #-0
    3c00:	0100672d 	tsteq	r0, sp, lsr #14
    3c04:	00002c2f 	andeq	r2, r0, pc, lsr #24
    3c08:	26560100 	ldrbcs	r0, [r6], -r0, lsl #2
    3c0c:	31010076 	tstcc	r1, r6, ror r0
    3c10:	0000002c 	andeq	r0, r0, ip, lsr #32
    3c14:	00000c01 	andeq	r0, r0, r1, lsl #24
    3c18:	008fb02a 	addeq	fp, pc, sl, lsr #32
    3c1c:	000b5d00 	andeq	r5, fp, r0, lsl #26
    3c20:	000b4c00 	andeq	r4, fp, r0, lsl #24
    3c24:	50012800 	andpl	r2, r1, r0, lsl #16
    3c28:	00007602 	andeq	r7, r0, r2, lsl #12
    3c2c:	008fc427 	addeq	ip, pc, r7, lsr #8
    3c30:	000b6800 	andeq	r6, fp, r0, lsl #16
    3c34:	50012800 	andpl	r2, r1, r0, lsl #16
    3c38:	00007602 	andeq	r7, r0, r2, lsl #12
    3c3c:	017a2e00 	cmneq	sl, r0, lsl #28
    3c40:	017a0000 	cmneq	sl, r0
    3c44:	a7060000 	strge	r0, [r6, -r0]
    3c48:	00031a2e 	andeq	r1, r3, lr, lsr #20
    3c4c:	00031a00 	andeq	r1, r3, r0, lsl #20
    3c50:	009b0600 	addseq	r0, fp, r0, lsl #12
    3c54:	00000113 	andeq	r0, r0, r3, lsl r1
    3c58:	15000004 	strne	r0, [r0, #-4]
    3c5c:	01040000 	mrseq	r0, (UNDEF: 4)
    3c60:	0000023b 	andeq	r0, r0, fp, lsr r2
    3c64:	000ddb01 	andeq	sp, sp, r1, lsl #22
    3c68:	00041500 	andeq	r1, r4, r0, lsl #10
    3c6c:	00908400 	addseq	r8, r0, r0, lsl #8
    3c70:	00003c00 	andeq	r3, r0, r0, lsl #24
    3c74:	00101900 	andseq	r1, r0, r0, lsl #18
    3c78:	05040200 	streq	r0, [r4, #-512]	; 0x200
    3c7c:	00746e69 	rsbseq	r6, r4, r9, ror #28
    3c80:	3d070403 	cfstrscc	mvf0, [r7, #-12]
    3c84:	03000000 	movweq	r0, #0
    3c88:	01bc0601 			; <UNDEFINED> instruction: 0x01bc0601
    3c8c:	02030000 	andeq	r0, r3, #0
    3c90:	0001c805 	andeq	ip, r1, r5, lsl #16
    3c94:	05040300 	streq	r0, [r4, #-768]	; 0x300
    3c98:	0000006d 	andeq	r0, r0, sp, rrx
    3c9c:	68050803 	stmdavs	r5, {r0, r1, fp}
    3ca0:	03000000 	movweq	r0, #0
    3ca4:	01ba0801 			; <UNDEFINED> instruction: 0x01ba0801
    3ca8:	02030000 	andeq	r0, r3, #0
    3cac:	00011207 	andeq	r1, r1, r7, lsl #4
    3cb0:	07040300 	streq	r0, [r4, -r0, lsl #6]
    3cb4:	00000038 	andeq	r0, r0, r8, lsr r0
    3cb8:	33070803 	movwcc	r0, #30723	; 0x7803
    3cbc:	03000000 	movweq	r0, #0
    3cc0:	01590704 	cmpeq	r9, r4, lsl #14
    3cc4:	01030000 	mrseq	r0, (UNDEF: 3)
    3cc8:	0001c308 	andeq	ip, r1, r8, lsl #6
    3ccc:	0dca0400 	cfstrdeq	mvd0, [sl]
    3cd0:	03010000 	movweq	r0, #4096	; 0x1000
    3cd4:	00000025 	andeq	r0, r0, r5, lsr #32
    3cd8:	00009084 	andeq	r9, r0, r4, lsl #1
    3cdc:	00000014 	andeq	r0, r0, r4, lsl r0
    3ce0:	00b09c01 	adcseq	r9, r0, r1, lsl #24
    3ce4:	63050000 	movwvs	r0, #20480	; 0x5000
    3ce8:	25030100 	strcs	r0, [r3, #-256]	; 0x100
    3cec:	32000000 	andcc	r0, r0, #0
    3cf0:	0600000c 	streq	r0, [r0], -ip
    3cf4:	00009090 	muleq	r0, r0, r0
    3cf8:	00000109 	andeq	r0, r0, r9, lsl #2
    3cfc:	02500107 	subseq	r0, r0, #-1073741823	; 0xc0000001
    3d00:	00000074 	andeq	r0, r0, r4, ror r0
    3d04:	0004f208 	andeq	pc, r4, r8, lsl #4
    3d08:	98080100 	stmdals	r8, {r8}
    3d0c:	18000090 	stmdane	r0, {r4, r7}
    3d10:	01000000 	mrseq	r0, (UNDEF: 0)
    3d14:	0dea099c 	stcleq	9, cr0, [sl, #624]!	; 0x270
    3d18:	0b010000 	bleq	43d20 <__bss_end__+0x3a1b0>
    3d1c:	000090b0 	strheq	r9, [r0], -r0
    3d20:	00000010 	andeq	r0, r0, r0, lsl r0
    3d24:	00e39c01 	rsceq	r9, r3, r1, lsl #24
    3d28:	660a0000 	strvs	r0, [sl], -r0
    3d2c:	0b010070 	bleq	43ef4 <__bss_end__+0x3a384>
    3d30:	000000f2 	strdeq	r0, [r0], -r2
    3d34:	0b005001 	bleq	17d40 <__bss_end__+0xe1d0>
    3d38:	00000025 	andeq	r0, r0, r5, lsr #32
    3d3c:	000000f2 	strdeq	r0, [r0], -r2
    3d40:	0000250c 	andeq	r2, r0, ip, lsl #10
    3d44:	040d0000 	streq	r0, [sp], #-0
    3d48:	000000e3 	andeq	r0, r0, r3, ror #1
    3d4c:	00047a0e 	andeq	r7, r4, lr, lsl #20
    3d50:	f2060100 	vrhadd.s8	d0, d6, d0
    3d54:	05000000 	streq	r0, [r0, #-0]
    3d58:	0090c403 	addseq	ip, r0, r3, lsl #8
    3d5c:	0a370f00 	beq	dc7964 <__bss_end__+0xdbddf4>
    3d60:	3c020000 	stccc	0, cr0, [r2], {-0}
    3d64:	00002c0c 	andeq	r2, r0, ip, lsl #24
    3d68:	Address 0x0000000000003d68 is out of bounds.


Disassembly of section .debug_abbrev:

00000000 <.debug_abbrev>:
       0:	25011101 	strcs	r1, [r1, #-257]	; 0x101
       4:	030b130e 	movweq	r1, #45838	; 0xb30e
       8:	110e1b0e 	tstne	lr, lr, lsl #22
       c:	10061201 	andne	r1, r6, r1, lsl #4
      10:	02000017 	andeq	r0, r0, #23
      14:	0b0b0024 	bleq	2c00ac <__bss_end__+0x2b653c>
      18:	0e030b3e 	vmoveq.16	d3[0], r0
      1c:	24030000 	strcs	r0, [r3], #-0
      20:	3e0b0b00 	vmlacc.f64	d0, d11, d0
      24:	0008030b 	andeq	r0, r8, fp, lsl #6
      28:	000f0400 	andeq	r0, pc, r0, lsl #8
      2c:	13490b0b 	movtne	r0, #39691	; 0x9b0b
      30:	26050000 	strcs	r0, [r5], -r0
      34:	00134900 	andseq	r4, r3, r0, lsl #18
      38:	01040600 	tsteq	r4, r0, lsl #12
      3c:	0b3a0b0b 	bleq	e82c70 <__bss_end__+0xe79100>
      40:	13010b3b 	movwne	r0, #6971	; 0x1b3b
      44:	28070000 	stmdacs	r7, {}	; <UNPREDICTABLE>
      48:	1c0e0300 	stcne	3, cr0, [lr], {-0}
      4c:	0800000d 	stmdaeq	r0, {r0, r2, r3}
      50:	193f012e 	ldmdbne	pc!, {r1, r2, r3, r5, r8}	; <UNPREDICTABLE>
      54:	0b3a0e03 	bleq	e83868 <__bss_end__+0xe79cf8>
      58:	19270b3b 	stmdbne	r7!, {r0, r1, r3, r4, r5, r8, r9, fp}
      5c:	06120111 			; <UNDEFINED> instruction: 0x06120111
      60:	42971840 	addsmi	r1, r7, #64, 16	; 0x400000
      64:	00130119 	andseq	r0, r3, r9, lsl r1
      68:	00050900 	andeq	r0, r5, r0, lsl #18
      6c:	0b3a0803 	bleq	e82080 <__bss_end__+0xe78510>
      70:	13490b3b 	movtne	r0, #39739	; 0x9b3b
      74:	00001702 	andeq	r1, r0, r2, lsl #14
      78:	0300340a 	movweq	r3, #1034	; 0x40a
      7c:	3b0b3a0e 	blcc	2ce8bc <__bss_end__+0x2c4d4c>
      80:	0213490b 	andseq	r4, r3, #180224	; 0x2c000
      84:	0b000017 	bleq	e8 <__code_start__-0x7f18>
      88:	0e030034 	mcreq	0, 0, r0, cr3, cr4, {1}
      8c:	0b3b0b3a 	bleq	ec2d7c <__bss_end__+0xeb920c>
      90:	18021349 	stmdane	r2, {r0, r3, r6, r8, r9, ip}
      94:	340c0000 	strcc	r0, [ip], #-0
      98:	3a080300 	bcc	200ca0 <__bss_end__+0x1f7130>
      9c:	490b3b0b 	stmdbmi	fp, {r0, r1, r3, r8, r9, fp, ip, sp}
      a0:	00180213 	andseq	r0, r8, r3, lsl r2
      a4:	82890d00 	addhi	r0, r9, #0, 26
      a8:	01110001 	tsteq	r1, r1
      ac:	00001331 	andeq	r1, r0, r1, lsr r3
      b0:	0182890e 	orreq	r8, r2, lr, lsl #18
      b4:	31011101 	tstcc	r1, r1, lsl #2
      b8:	00130113 	andseq	r0, r3, r3, lsl r1
      bc:	828a0f00 	addhi	r0, sl, #0, 30
      c0:	18020001 	stmdane	r2, {r0}
      c4:	00184291 	mulseq	r8, r1, r2
      c8:	00341000 	eorseq	r1, r4, r0
      cc:	0b3a0803 	bleq	e820e0 <__bss_end__+0xe78570>
      d0:	13490b3b 	movtne	r0, #39739	; 0x9b3b
      d4:	00000b1c 	andeq	r0, r0, ip, lsl fp
      d8:	03003411 	movweq	r3, #1041	; 0x411
      dc:	3b0b3a08 	blcc	2ce904 <__bss_end__+0x2c4d94>
      e0:	0213490b 	andseq	r4, r3, #180224	; 0x2c000
      e4:	12000017 	andne	r0, r0, #23
      e8:	0111010b 	tsteq	r1, fp, lsl #2
      ec:	13010612 	movwne	r0, #5650	; 0x1612
      f0:	34130000 	ldrcc	r0, [r3], #-0
      f4:	3a080300 	bcc	200cfc <__bss_end__+0x1f718c>
      f8:	490b3b0b 	stmdbmi	fp, {r0, r1, r3, r8, r9, fp, ip, sp}
      fc:	14000013 	strne	r0, [r0], #-19
     100:	0e030034 	mcreq	0, 0, r0, cr3, cr4, {1}
     104:	0b3b0b3a 	bleq	ec2df4 <__bss_end__+0xeb9284>
     108:	00001349 	andeq	r1, r0, r9, asr #6
     10c:	01828915 	orreq	r8, r2, r5, lsl r9
     110:	31011101 	tstcc	r1, r1, lsl #2
     114:	16000013 			; <UNDEFINED> instruction: 0x16000013
     118:	0111010b 	tsteq	r1, fp, lsl #2
     11c:	00000612 	andeq	r0, r0, r2, lsl r6
     120:	49003517 	stmdbmi	r0, {r0, r1, r2, r4, r8, sl, ip, sp}
     124:	18000013 	stmdane	r0, {r0, r1, r4}
     128:	193f002e 	ldmdbne	pc!, {r1, r2, r3, r5}	; <UNPREDICTABLE>
     12c:	0b3a0e03 	bleq	e83940 <__bss_end__+0xe79dd0>
     130:	19270b3b 	stmdbne	r7!, {r0, r1, r3, r4, r5, r8, r9, fp}
     134:	0000193c 	andeq	r1, r0, ip, lsr r9
     138:	3f012e19 	svccc	0x00012e19
     13c:	3a0e0319 	bcc	380da8 <__bss_end__+0x377238>
     140:	270b3b0b 	strcs	r3, [fp, -fp, lsl #22]
     144:	3c134919 	ldccc	9, cr4, [r3], {25}
     148:	00130119 	andseq	r0, r3, r9, lsl r1
     14c:	00051a00 	andeq	r1, r5, r0, lsl #20
     150:	00001349 	andeq	r1, r0, r9, asr #6
     154:	3f012e1b 	svccc	0x00012e1b
     158:	3a0e0319 	bcc	380dc4 <__bss_end__+0x377254>
     15c:	270b3b0b 	strcs	r3, [fp, -fp, lsl #22]
     160:	01193c19 	tsteq	r9, r9, lsl ip
     164:	1c000013 	stcne	0, cr0, [r0], {19}
     168:	193f002e 	ldmdbne	pc!, {r1, r2, r3, r5}	; <UNPREDICTABLE>
     16c:	0b3a0e03 	bleq	e83980 <__bss_end__+0xe79e10>
     170:	19270b3b 	stmdbne	r7!, {r0, r1, r3, r4, r5, r8, r9, fp}
     174:	193c1349 	ldmdbne	ip!, {r0, r3, r6, r8, r9, ip}
     178:	181d0000 	ldmdane	sp, {}	; <UNPREDICTABLE>
     17c:	1e000000 	cdpne	0, 0, cr0, cr0, cr0, {0}
     180:	193f002e 	ldmdbne	pc!, {r1, r2, r3, r5}	; <UNPREDICTABLE>
     184:	0b3a0803 	bleq	e82198 <__bss_end__+0xe78628>
     188:	19270b3b 	stmdbne	r7!, {r0, r1, r3, r4, r5, r8, r9, fp}
     18c:	0000193c 	andeq	r1, r0, ip, lsr r9
     190:	01110100 	tsteq	r1, r0, lsl #2
     194:	0b130e25 	bleq	4c3a30 <__bss_end__+0x4b9ec0>
     198:	0e1b0e03 	cdpeq	14, 1, cr0, cr11, cr3, {0}
     19c:	06120111 			; <UNDEFINED> instruction: 0x06120111
     1a0:	00001710 	andeq	r1, r0, r0, lsl r7
     1a4:	0b002402 	bleq	91b4 <__data_end__+0xec>
     1a8:	030b3e0b 	movweq	r3, #48651	; 0xbe0b
     1ac:	03000008 	movweq	r0, #8
     1b0:	0b0b0024 	bleq	2c0248 <__bss_end__+0x2b66d8>
     1b4:	0e030b3e 	vmoveq.16	d3[0], r0
     1b8:	16040000 	strne	r0, [r4], -r0
     1bc:	3a0e0300 	bcc	380dc4 <__bss_end__+0x377254>
     1c0:	490b3b0b 	stmdbmi	fp, {r0, r1, r3, r8, r9, fp, ip, sp}
     1c4:	05000013 	streq	r0, [r0, #-19]
     1c8:	0b0b000f 	bleq	2c020c <__bss_end__+0x2b669c>
     1cc:	00001349 	andeq	r1, r0, r9, asr #6
     1d0:	49002606 	stmdbmi	r0, {r1, r2, r9, sl, sp}
     1d4:	07000013 	smladeq	r0, r3, r0, r0
     1d8:	0b0b0113 	bleq	2c062c <__bss_end__+0x2b6abc>
     1dc:	0b3b0b3a 	bleq	ec2ecc <__bss_end__+0xeb935c>
     1e0:	00001301 	andeq	r1, r0, r1, lsl #6
     1e4:	03000d08 	movweq	r0, #3336	; 0xd08
     1e8:	3b0b3a0e 	blcc	2cea28 <__bss_end__+0x2c4eb8>
     1ec:	0b13490b 	bleq	4d2620 <__bss_end__+0x4c8ab0>
     1f0:	0c0b0d0b 	stceq	13, cr0, [fp], {11}
     1f4:	000b380b 	andeq	r3, fp, fp, lsl #16
     1f8:	01040900 	tsteq	r4, r0, lsl #18
     1fc:	0b3a0b0b 	bleq	e82e30 <__bss_end__+0xe792c0>
     200:	13010b3b 	movwne	r0, #6971	; 0x1b3b
     204:	280a0000 	stmdacs	sl, {}	; <UNPREDICTABLE>
     208:	1c0e0300 	stcne	3, cr0, [lr], {-0}
     20c:	0b00000d 	bleq	248 <__code_start__-0x7db8>
     210:	0e03012e 	adfeqsp	f0, f3, #0.5
     214:	0b3b0b3a 	bleq	ec2f04 <__bss_end__+0xeb9394>
     218:	01111927 	tsteq	r1, r7, lsr #18
     21c:	18400612 	stmdane	r0, {r1, r4, r9, sl}^
     220:	01194297 			; <UNDEFINED> instruction: 0x01194297
     224:	0c000013 	stceq	0, cr0, [r0], {19}
     228:	0e030034 	mcreq	0, 0, r0, cr3, cr4, {1}
     22c:	19341349 	ldmdbne	r4!, {r0, r3, r6, r8, r9, ip}
     230:	00001802 	andeq	r1, r0, r2, lsl #16
     234:	0182890d 	orreq	r8, r2, sp, lsl #18
     238:	31011101 	tstcc	r1, r1, lsl #2
     23c:	0e000013 	mcreq	0, 0, r0, cr0, cr3, {0}
     240:	0001828a 	andeq	r8, r1, sl, lsl #5
     244:	42911802 	addsmi	r1, r1, #131072	; 0x20000
     248:	0f000018 	svceq	0x00000018
     24c:	13490101 	movtne	r0, #37121	; 0x9101
     250:	00001301 	andeq	r1, r0, r1, lsl #6
     254:	49002110 	stmdbmi	r0, {r4, r8, sp}
     258:	000b2f13 	andeq	r2, fp, r3, lsl pc
     25c:	012e1100 	teqeq	lr, r0, lsl #2
     260:	0e03193f 	mcreq	9, 0, r1, cr3, cr15, {1}
     264:	0b3b0b3a 	bleq	ec2f54 <__bss_end__+0xeb93e4>
     268:	01111927 	tsteq	r1, r7, lsr #18
     26c:	18400612 	stmdane	r0, {r1, r4, r9, sl}^
     270:	01194297 			; <UNDEFINED> instruction: 0x01194297
     274:	12000013 	andne	r0, r0, #19
     278:	0e030005 	cdpeq	0, 0, cr0, cr3, cr5, {0}
     27c:	0b3b0b3a 	bleq	ec2f6c <__bss_end__+0xeb93fc>
     280:	17021349 	strne	r1, [r2, -r9, asr #6]
     284:	89130000 	ldmdbhi	r3, {}	; <UNPREDICTABLE>
     288:	11000182 	smlabbne	r0, r2, r1, r0
     28c:	00133101 	andseq	r3, r3, r1, lsl #2
     290:	82891400 	addhi	r1, r9, #0, 8
     294:	01110101 	tsteq	r1, r1, lsl #2
     298:	13011331 	movwne	r1, #4913	; 0x1331
     29c:	2e150000 	cdpcs	0, 1, cr0, cr5, cr0, {0}
     2a0:	03193f01 	tsteq	r9, #1, 30
     2a4:	3b0b3a0e 	blcc	2ceae4 <__bss_end__+0x2c4f74>
     2a8:	4919270b 	ldmdbmi	r9, {r0, r1, r3, r8, r9, sl, sp}
     2ac:	01193c13 	tsteq	r9, r3, lsl ip
     2b0:	16000013 			; <UNDEFINED> instruction: 0x16000013
     2b4:	13490005 	movtne	r0, #36869	; 0x9005
     2b8:	18170000 	ldmdane	r7, {}	; <UNPREDICTABLE>
     2bc:	18000000 	stmdane	r0, {}	; <UNPREDICTABLE>
     2c0:	193f012e 	ldmdbne	pc!, {r1, r2, r3, r5, r8}	; <UNPREDICTABLE>
     2c4:	0b3a0e03 	bleq	e83ad8 <__bss_end__+0xe79f68>
     2c8:	19270b3b 	stmdbne	r7!, {r0, r1, r3, r4, r5, r8, r9, fp}
     2cc:	0000193c 	andeq	r1, r0, ip, lsr r9
     2d0:	01110100 	tsteq	r1, r0, lsl #2
     2d4:	0b130e25 	bleq	4c3b70 <__bss_end__+0x4ba000>
     2d8:	0e1b0e03 	cdpeq	14, 1, cr0, cr11, cr3, {0}
     2dc:	06120111 			; <UNDEFINED> instruction: 0x06120111
     2e0:	00001710 	andeq	r1, r0, r0, lsl r7
     2e4:	03001602 	movweq	r1, #1538	; 0x602
     2e8:	3b0b3a0e 	blcc	2ceb28 <__bss_end__+0x2c4fb8>
     2ec:	0013490b 	andseq	r4, r3, fp, lsl #18
     2f0:	01130300 	tsteq	r3, r0, lsl #6
     2f4:	0b0b0e03 	bleq	2c3b08 <__bss_end__+0x2b9f98>
     2f8:	0b3b0b3a 	bleq	ec2fe8 <__bss_end__+0xeb9478>
     2fc:	00001301 	andeq	r1, r0, r1, lsl #6
     300:	03000d04 	movweq	r0, #3332	; 0xd04
     304:	3813490e 	ldmdacc	r3, {r1, r2, r3, r8, fp, lr}
     308:	0019340b 	andseq	r3, r9, fp, lsl #8
     30c:	000f0500 	andeq	r0, pc, r0, lsl #10
     310:	00000b0b 	andeq	r0, r0, fp, lsl #22
     314:	0b002406 	bleq	9334 <__FUNCTION__.4262>
     318:	030b3e0b 	movweq	r3, #48651	; 0xbe0b
     31c:	07000008 	streq	r0, [r0, -r8]
     320:	0b0b0024 	bleq	2c03b8 <__bss_end__+0x2b6848>
     324:	0e030b3e 	vmoveq.16	d3[0], r0
     328:	0f080000 	svceq	0x00080000
     32c:	490b0b00 	stmdbmi	fp, {r8, r9, fp}
     330:	09000013 	stmdbeq	r0, {r0, r1, r4}
     334:	13490026 	movtne	r0, #36902	; 0x9026
     338:	2e0a0000 	cdpcs	0, 0, cr0, cr10, cr0, {0}
     33c:	03193f01 	tsteq	r9, #1, 30
     340:	3b0b3a0e 	blcc	2ceb80 <__bss_end__+0x2c5010>
     344:	4919270b 	ldmdbmi	r9, {r0, r1, r3, r8, r9, sl, sp}
     348:	12011113 	andne	r1, r1, #-1073741820	; 0xc0000004
     34c:	97184006 	ldrls	r4, [r8, -r6]
     350:	13011942 	movwne	r1, #6466	; 0x1942
     354:	050b0000 	streq	r0, [fp, #-0]
     358:	3a080300 	bcc	200f60 <__bss_end__+0x1f73f0>
     35c:	490b3b0b 	stmdbmi	fp, {r0, r1, r3, r8, r9, fp, ip, sp}
     360:	00180213 	andseq	r0, r8, r3, lsl r2
     364:	00180c00 	andseq	r0, r8, r0, lsl #24
     368:	340d0000 	strcc	r0, [sp], #-0
     36c:	3a080300 	bcc	200f74 <__bss_end__+0x1f7404>
     370:	490b3b0b 	stmdbmi	fp, {r0, r1, r3, r8, r9, fp, ip, sp}
     374:	00180213 	andseq	r0, r8, r3, lsl r2
     378:	00340e00 	eorseq	r0, r4, r0, lsl #28
     37c:	0b3a0e03 	bleq	e83b90 <__bss_end__+0xe7a020>
     380:	13490b3b 	movtne	r0, #39739	; 0x9b3b
     384:	00001802 	andeq	r1, r0, r2, lsl #16
     388:	0300340f 	movweq	r3, #1039	; 0x40f
     38c:	3b0b3a08 	blcc	2cebb4 <__bss_end__+0x2c5044>
     390:	0213490b 	andseq	r4, r3, #180224	; 0x2c000
     394:	10000017 	andne	r0, r0, r7, lsl r0
     398:	01018289 	smlabbeq	r1, r9, r2, r8
     39c:	13310111 	teqne	r1, #1073741828	; 0x40000004
     3a0:	00001301 	andeq	r1, r0, r1, lsl #6
     3a4:	01828a11 	orreq	r8, r2, r1, lsl sl
     3a8:	91180200 	tstls	r8, r0, lsl #4
     3ac:	00001842 	andeq	r1, r0, r2, asr #16
     3b0:	01828912 	orreq	r8, r2, r2, lsl r9
     3b4:	00011101 	andeq	r1, r1, r1, lsl #2
     3b8:	01011300 	mrseq	r1, SP_irq
     3bc:	13011349 	movwne	r1, #4937	; 0x1349
     3c0:	21140000 	tstcs	r4, r0
     3c4:	2f134900 	svccs	0x00134900
     3c8:	15000005 	strne	r0, [r0, #-5]
     3cc:	19270115 	stmdbne	r7!, {r0, r2, r4, r8}
     3d0:	13011349 	movwne	r1, #4937	; 0x1349
     3d4:	05160000 	ldreq	r0, [r6, #-0]
     3d8:	00134900 	andseq	r4, r3, r0, lsl #18
     3dc:	00341700 	eorseq	r1, r4, r0, lsl #14
     3e0:	0b3a0e03 	bleq	e83bf4 <__bss_end__+0xe7a084>
     3e4:	13490b3b 	movtne	r0, #39739	; 0x9b3b
     3e8:	193c193f 	ldmdbne	ip!, {r0, r1, r2, r3, r4, r5, r8, fp, ip}
     3ec:	2e180000 	cdpcs	0, 1, cr0, cr8, cr0, {0}
     3f0:	03193f01 	tsteq	r9, #1, 30
     3f4:	3b0b3a0e 	blcc	2cec34 <__bss_end__+0x2c50c4>
     3f8:	4919270b 	ldmdbmi	r9, {r0, r1, r3, r8, r9, sl, sp}
     3fc:	00193c13 	andseq	r3, r9, r3, lsl ip
     400:	11010000 	mrsne	r0, (UNDEF: 1)
     404:	130e2501 	movwne	r2, #58625	; 0xe501
     408:	1b0e030b 	blne	38103c <__bss_end__+0x3774cc>
     40c:	1201110e 	andne	r1, r1, #-2147483645	; 0x80000003
     410:	00171006 	andseq	r1, r7, r6
     414:	00240200 	eoreq	r0, r4, r0, lsl #4
     418:	0b3e0b0b 	bleq	f8304c <__bss_end__+0xf794dc>
     41c:	00000803 	andeq	r0, r0, r3, lsl #16
     420:	0b002403 	bleq	9434 <__FUNCTION__.4262+0x100>
     424:	030b3e0b 	movweq	r3, #48651	; 0xbe0b
     428:	0400000e 	streq	r0, [r0], #-14
     42c:	0b0b000f 	bleq	2c0470 <__bss_end__+0x2b6900>
     430:	00001349 	andeq	r1, r0, r9, asr #6
     434:	49002605 	stmdbmi	r0, {r0, r2, r9, sl, sp}
     438:	06000013 			; <UNDEFINED> instruction: 0x06000013
     43c:	193f012e 	ldmdbne	pc!, {r1, r2, r3, r5, r8}	; <UNPREDICTABLE>
     440:	0b3a0e03 	bleq	e83c54 <__bss_end__+0xe7a0e4>
     444:	19270b3b 	stmdbne	r7!, {r0, r1, r3, r4, r5, r8, r9, fp}
     448:	01111349 	tsteq	r1, r9, asr #6
     44c:	18400612 	stmdane	r0, {r1, r4, r9, sl}^
     450:	01194296 			; <UNDEFINED> instruction: 0x01194296
     454:	07000013 	smladeq	r0, r3, r0, r0
     458:	08030005 	stmdaeq	r3, {r0, r2}
     45c:	0b3b0b3a 	bleq	ec314c <__bss_end__+0xeb95dc>
     460:	17021349 	strne	r1, [r2, -r9, asr #6]
     464:	15080000 	strne	r0, [r8, #-0]
     468:	49192701 	ldmdbmi	r9, {r0, r8, r9, sl, sp}
     46c:	00130113 	andseq	r0, r3, r3, lsl r1
     470:	00050900 	andeq	r0, r5, r0, lsl #18
     474:	00001349 	andeq	r1, r0, r9, asr #6
     478:	0300340a 	movweq	r3, #1034	; 0x40a
     47c:	3b0b3a0e 	blcc	2cecbc <__bss_end__+0x2c514c>
     480:	3f13490b 	svccc	0x0013490b
     484:	00193c19 	andseq	r3, r9, r9, lsl ip
     488:	00340b00 	eorseq	r0, r4, r0, lsl #22
     48c:	0b3a0e03 	bleq	e83ca0 <__bss_end__+0xe7a130>
     490:	13490b3b 	movtne	r0, #39739	; 0x9b3b
     494:	1802193f 	stmdane	r2, {r0, r1, r2, r3, r4, r5, r8, fp, ip}
     498:	01000000 	mrseq	r0, (UNDEF: 0)
     49c:	0e250111 	mcreq	1, 1, r0, cr5, cr1, {0}
     4a0:	0e030b13 	vmoveq.32	d3[0], r0
     4a4:	01110e1b 	tsteq	r1, fp, lsl lr
     4a8:	17100612 			; <UNDEFINED> instruction: 0x17100612
     4ac:	24020000 	strcs	r0, [r2], #-0
     4b0:	3e0b0b00 	vmlacc.f64	d0, d11, d0
     4b4:	0008030b 	andeq	r0, r8, fp, lsl #6
     4b8:	00240300 	eoreq	r0, r4, r0, lsl #6
     4bc:	0b3e0b0b 	bleq	f830f0 <__bss_end__+0xf79580>
     4c0:	00000e03 	andeq	r0, r0, r3, lsl #28
     4c4:	0b000f04 	bleq	40dc <__code_start__-0x3f24>
     4c8:	0500000b 	streq	r0, [r0, #-11]
     4cc:	0b0b000f 	bleq	2c0510 <__bss_end__+0x2b69a0>
     4d0:	00001349 	andeq	r1, r0, r9, asr #6
     4d4:	49002606 	stmdbmi	r0, {r1, r2, r9, sl, sp}
     4d8:	07000013 	smladeq	r0, r3, r0, r0
     4dc:	0e030016 	mcreq	0, 0, r0, cr3, cr6, {0}
     4e0:	0b3b0b3a 	bleq	ec31d0 <__bss_end__+0xeb9660>
     4e4:	00001349 	andeq	r1, r0, r9, asr #6
     4e8:	03011308 	movweq	r1, #4872	; 0x1308
     4ec:	3a0b0b0e 	bcc	2c312c <__bss_end__+0x2b95bc>
     4f0:	010b3b0b 	tsteq	fp, fp, lsl #22
     4f4:	09000013 	stmdbeq	r0, {r0, r1, r4}
     4f8:	0e03000d 	cdpeq	0, 0, cr0, cr3, cr13, {0}
     4fc:	0b381349 	bleq	e05228 <__bss_end__+0xdfb6b8>
     500:	00001934 	andeq	r1, r0, r4, lsr r9
     504:	03012e0a 	movweq	r2, #7690	; 0x1e0a
     508:	3b0b3a0e 	blcc	2ced48 <__bss_end__+0x2c51d8>
     50c:	4919270b 	ldmdbmi	r9, {r0, r1, r3, r8, r9, sl, sp}
     510:	12011113 	andne	r1, r1, #-1073741820	; 0xc0000004
     514:	97184006 	ldrls	r4, [r8, -r6]
     518:	13011942 	movwne	r1, #6466	; 0x1942
     51c:	050b0000 	streq	r0, [fp, #-0]
     520:	3a080300 	bcc	201128 <__bss_end__+0x1f75b8>
     524:	490b3b0b 	stmdbmi	fp, {r0, r1, r3, r8, r9, fp, ip, sp}
     528:	00170213 	andseq	r0, r7, r3, lsl r2
     52c:	012e0c00 	teqeq	lr, r0, lsl #24
     530:	0b3a0803 	bleq	e82544 <__bss_end__+0xe789d4>
     534:	19270b3b 	stmdbne	r7!, {r0, r1, r3, r4, r5, r8, r9, fp}
     538:	01111349 	tsteq	r1, r9, asr #6
     53c:	18400612 	stmdane	r0, {r1, r4, r9, sl}^
     540:	01194297 			; <UNDEFINED> instruction: 0x01194297
     544:	0d000013 	stceq	0, cr0, [r0, #-76]	; 0xffffffb4
     548:	0e030005 	cdpeq	0, 0, cr0, cr3, cr5, {0}
     54c:	0b3b0b3a 	bleq	ec323c <__bss_end__+0xeb96cc>
     550:	17021349 	strne	r1, [r2, -r9, asr #6]
     554:	050e0000 	streq	r0, [lr, #-0]
     558:	3a0e0300 	bcc	381160 <__bss_end__+0x3775f0>
     55c:	490b3b0b 	stmdbmi	fp, {r0, r1, r3, r8, r9, fp, ip, sp}
     560:	00180213 	andseq	r0, r8, r3, lsl r2
     564:	00340f00 	eorseq	r0, r4, r0, lsl #30
     568:	0b3a0803 	bleq	e8257c <__bss_end__+0xe78a0c>
     56c:	13490b3b 	movtne	r0, #39739	; 0x9b3b
     570:	00001802 	andeq	r1, r0, r2, lsl #16
     574:	03003410 	movweq	r3, #1040	; 0x410
     578:	3b0b3a08 	blcc	2ceda0 <__bss_end__+0x2c5230>
     57c:	0213490b 	andseq	r4, r3, #180224	; 0x2c000
     580:	11000017 	tstne	r0, r7, lsl r0
     584:	0e030034 	mcreq	0, 0, r0, cr3, cr4, {1}
     588:	19341349 	ldmdbne	r4!, {r0, r3, r6, r8, r9, ip}
     58c:	00001802 	andeq	r1, r0, r2, lsl #16
     590:	11010b12 	tstne	r1, r2, lsl fp
     594:	01061201 	tsteq	r6, r1, lsl #4
     598:	13000013 	movwne	r0, #19
     59c:	0e030034 	mcreq	0, 0, r0, cr3, cr4, {1}
     5a0:	0b3b0b3a 	bleq	ec3290 <__bss_end__+0xeb9720>
     5a4:	17021349 	strne	r1, [r2, -r9, asr #6]
     5a8:	89140000 	ldmdbhi	r4, {}	; <UNPREDICTABLE>
     5ac:	11000182 	smlabbne	r0, r2, r1, r0
     5b0:	00133101 	andseq	r3, r3, r1, lsl #2
     5b4:	82891500 	addhi	r1, r9, #0, 10
     5b8:	01110101 	tsteq	r1, r1, lsl #2
     5bc:	13011331 	movwne	r1, #4913	; 0x1331
     5c0:	8a160000 	bhi	5805c8 <__bss_end__+0x576a58>
     5c4:	02000182 	andeq	r0, r0, #-2147483616	; 0x80000020
     5c8:	18429118 	stmdane	r2, {r3, r4, r8, ip, pc}^
     5cc:	89170000 	ldmdbhi	r7, {}	; <UNPREDICTABLE>
     5d0:	11010182 	smlabbne	r1, r2, r1, r0
     5d4:	00133101 	andseq	r3, r3, r1, lsl #2
     5d8:	01011800 	tsteq	r1, r0, lsl #16
     5dc:	13011349 	movwne	r1, #4937	; 0x1349
     5e0:	21190000 	tstcs	r9, r0
     5e4:	2f134900 	svccs	0x00134900
     5e8:	1a00000b 	bne	61c <__code_start__-0x79e4>
     5ec:	193f012e 	ldmdbne	pc!, {r1, r2, r3, r5, r8}	; <UNPREDICTABLE>
     5f0:	0b3a0e03 	bleq	e83e04 <__bss_end__+0xe7a294>
     5f4:	19270b3b 	stmdbne	r7!, {r0, r1, r3, r4, r5, r8, r9, fp}
     5f8:	06120111 			; <UNDEFINED> instruction: 0x06120111
     5fc:	42971840 	addsmi	r1, r7, #64, 16	; 0x400000
     600:	00130119 	andseq	r0, r3, r9, lsl r1
     604:	01151b00 	tsteq	r5, r0, lsl #22
     608:	13491927 	movtne	r1, #39207	; 0x9927
     60c:	00001301 	andeq	r1, r0, r1, lsl #6
     610:	4900051c 	stmdbmi	r0, {r2, r3, r4, r8, sl}
     614:	1d000013 	stcne	0, cr0, [r0, #-76]	; 0xffffffb4
     618:	193f012e 	ldmdbne	pc!, {r1, r2, r3, r5, r8}	; <UNPREDICTABLE>
     61c:	0b3a0e03 	bleq	e83e30 <__bss_end__+0xe7a2c0>
     620:	19270b3b 	stmdbne	r7!, {r0, r1, r3, r4, r5, r8, r9, fp}
     624:	01111349 	tsteq	r1, r9, asr #6
     628:	18400612 	stmdane	r0, {r1, r4, r9, sl}^
     62c:	01194297 			; <UNDEFINED> instruction: 0x01194297
     630:	1e000013 	mcrne	0, 0, r0, cr0, cr3, {0}
     634:	0111010b 	tsteq	r1, fp, lsl #2
     638:	00000612 	andeq	r0, r0, r2, lsl r6
     63c:	0182891f 	orreq	r8, r2, pc, lsl r9
     640:	01011101 	tsteq	r1, r1, lsl #2
     644:	20000013 	andcs	r0, r0, r3, lsl r0
     648:	0e030034 	mcreq	0, 0, r0, cr3, cr4, {1}
     64c:	0b3b0b3a 	bleq	ec333c <__bss_end__+0xeb97cc>
     650:	193f1349 	ldmdbne	pc!, {r0, r3, r6, r8, r9, ip}	; <UNPREDICTABLE>
     654:	0000193c 	andeq	r1, r0, ip, lsr r9
     658:	3f002e21 	svccc	0x00002e21
     65c:	3a0e0319 	bcc	3812c8 <__bss_end__+0x377758>
     660:	270b3b0b 	strcs	r3, [fp, -fp, lsl #22]
     664:	00193c19 	andseq	r3, r9, r9, lsl ip
     668:	012e2200 	teqeq	lr, r0, lsl #4
     66c:	0e03193f 	mcreq	9, 0, r1, cr3, cr15, {1}
     670:	0b3b0b3a 	bleq	ec3360 <__bss_end__+0xeb97f0>
     674:	13491927 	movtne	r1, #39207	; 0x9927
     678:	1301193c 	movwne	r1, #6460	; 0x193c
     67c:	18230000 	stmdane	r3!, {}	; <UNPREDICTABLE>
     680:	00000000 	andeq	r0, r0, r0
     684:	25011101 	strcs	r1, [r1, #-257]	; 0x101
     688:	030b130e 	movweq	r1, #45838	; 0xb30e
     68c:	110e1b0e 	tstne	lr, lr, lsl #22
     690:	10061201 	andne	r1, r6, r1, lsl #4
     694:	02000017 	andeq	r0, r0, #23
     698:	0b0b0024 	bleq	2c0730 <__bss_end__+0x2b6bc0>
     69c:	08030b3e 	stmdaeq	r3, {r1, r2, r3, r4, r5, r8, r9, fp}
     6a0:	24030000 	strcs	r0, [r3], #-0
     6a4:	3e0b0b00 	vmlacc.f64	d0, d11, d0
     6a8:	000e030b 	andeq	r0, lr, fp, lsl #6
     6ac:	000f0400 	andeq	r0, pc, r0, lsl #8
     6b0:	13490b0b 	movtne	r0, #39691	; 0x9b0b
     6b4:	26050000 	strcs	r0, [r5], -r0
     6b8:	00134900 	andseq	r4, r3, r0, lsl #18
     6bc:	012e0600 	teqeq	lr, r0, lsl #12
     6c0:	0e03193f 	mcreq	9, 0, r1, cr3, cr15, {1}
     6c4:	0b3b0b3a 	bleq	ec33b4 <__bss_end__+0xeb9844>
     6c8:	01111927 	tsteq	r1, r7, lsr #18
     6cc:	18400612 	stmdane	r0, {r1, r4, r9, sl}^
     6d0:	01194297 			; <UNDEFINED> instruction: 0x01194297
     6d4:	07000013 	smladeq	r0, r3, r0, r0
     6d8:	00018289 	andeq	r8, r1, r9, lsl #5
     6dc:	13310111 	teqne	r1, #1073741828	; 0x40000004
     6e0:	89080000 	stmdbhi	r8, {}	; <UNPREDICTABLE>
     6e4:	11010182 	smlabbne	r1, r2, r1, r0
     6e8:	00130101 	andseq	r0, r3, r1, lsl #2
     6ec:	828a0900 	addhi	r0, sl, #0, 18
     6f0:	18020001 	stmdane	r2, {r0}
     6f4:	00184291 	mulseq	r8, r1, r2
     6f8:	82890a00 	addhi	r0, r9, #0, 20
     6fc:	01110101 	tsteq	r1, r1, lsl #2
     700:	13011331 	movwne	r1, #4913	; 0x1331
     704:	150b0000 	strne	r0, [fp, #-0]
     708:	49192701 	ldmdbmi	r9, {r0, r8, r9, sl, sp}
     70c:	00130113 	andseq	r0, r3, r3, lsl r1
     710:	00050c00 	andeq	r0, r5, r0, lsl #24
     714:	00001349 	andeq	r1, r0, r9, asr #6
     718:	0300340d 	movweq	r3, #1037	; 0x40d
     71c:	3b0b3a0e 	blcc	2cef5c <__bss_end__+0x2c53ec>
     720:	3f13490b 	svccc	0x0013490b
     724:	00193c19 	andseq	r3, r9, r9, lsl ip
     728:	002e0e00 	eoreq	r0, lr, r0, lsl #28
     72c:	0e03193f 	mcreq	9, 0, r1, cr3, cr15, {1}
     730:	0b3b0b3a 	bleq	ec3420 <__bss_end__+0xeb98b0>
     734:	193c1927 	ldmdbne	ip!, {r0, r1, r2, r5, r8, fp, ip}
     738:	2e0f0000 	cdpcs	0, 0, cr0, cr15, cr0, {0}
     73c:	03193f01 	tsteq	r9, #1, 30
     740:	3b0b3a0e 	blcc	2cef80 <__bss_end__+0x2c5410>
     744:	3c19270b 	ldccc	7, cr2, [r9], {11}
     748:	00130119 	andseq	r0, r3, r9, lsl r1
     74c:	11010000 	mrsne	r0, (UNDEF: 1)
     750:	130e2501 	movwne	r2, #58625	; 0xe501
     754:	1b0e030b 	blne	381388 <__bss_end__+0x377818>
     758:	1201110e 	andne	r1, r1, #-2147483645	; 0x80000003
     75c:	00171006 	andseq	r1, r7, r6
     760:	00240200 	eoreq	r0, r4, r0, lsl #4
     764:	0b3e0b0b 	bleq	f83398 <__bss_end__+0xf79828>
     768:	00000803 	andeq	r0, r0, r3, lsl #16
     76c:	0b002403 	bleq	9780 <buf.4189+0x14>
     770:	030b3e0b 	movweq	r3, #48651	; 0xbe0b
     774:	0400000e 	streq	r0, [r0], #-14
     778:	193f012e 	ldmdbne	pc!, {r1, r2, r3, r5, r8}	; <UNPREDICTABLE>
     77c:	0b3a0e03 	bleq	e83f90 <__bss_end__+0xe7a420>
     780:	01110b3b 	tsteq	r1, fp, lsr fp
     784:	18400612 	stmdane	r0, {r1, r4, r9, sl}^
     788:	01194297 			; <UNDEFINED> instruction: 0x01194297
     78c:	05000013 	streq	r0, [r0, #-19]
     790:	0e030034 	mcreq	0, 0, r0, cr3, cr4, {1}
     794:	0b3b0b3a 	bleq	ec3484 <__bss_end__+0xeb9914>
     798:	193f1349 	ldmdbne	pc!, {r0, r3, r6, r8, r9, ip}	; <UNPREDICTABLE>
     79c:	0000193c 	andeq	r1, r0, ip, lsr r9
     7a0:	3f002e06 	svccc	0x00002e06
     7a4:	3a0e0319 	bcc	381410 <__bss_end__+0x3778a0>
     7a8:	270b3b0b 	strcs	r3, [fp, -fp, lsl #22]
     7ac:	00193c19 	andseq	r3, r9, r9, lsl ip
     7b0:	00340700 	eorseq	r0, r4, r0, lsl #14
     7b4:	0b3a0803 	bleq	e827c8 <__bss_end__+0xe78c58>
     7b8:	13490b3b 	movtne	r0, #39739	; 0x9b3b
     7bc:	00001702 	andeq	r1, r0, r2, lsl #14
     7c0:	03003408 	movweq	r3, #1032	; 0x408
     7c4:	3b0b3a0e 	blcc	2cf004 <__bss_end__+0x2c5494>
     7c8:	0013490b 	andseq	r4, r3, fp, lsl #18
     7cc:	82890900 	addhi	r0, r9, #0, 18
     7d0:	01110001 	tsteq	r1, r1
     7d4:	00001331 	andeq	r1, r0, r1, lsr r3
     7d8:	0b000f0a 	bleq	4408 <__code_start__-0x3bf8>
     7dc:	0013490b 	andseq	r4, r3, fp, lsl #18
     7e0:	11010000 	mrsne	r0, (UNDEF: 1)
     7e4:	130e2501 	movwne	r2, #58625	; 0xe501
     7e8:	1b0e030b 	blne	38141c <__bss_end__+0x3778ac>
     7ec:	1201110e 	andne	r1, r1, #-2147483645	; 0x80000003
     7f0:	00171006 	andseq	r1, r7, r6
     7f4:	00240200 	eoreq	r0, r4, r0, lsl #4
     7f8:	0b3e0b0b 	bleq	f8342c <__bss_end__+0xf798bc>
     7fc:	00000803 	andeq	r0, r0, r3, lsl #16
     800:	0b002403 	bleq	9814 <buf.4189+0xa8>
     804:	030b3e0b 	movweq	r3, #48651	; 0xbe0b
     808:	0400000e 	streq	r0, [r0], #-14
     80c:	0b0b000f 	bleq	2c0850 <__bss_end__+0x2b6ce0>
     810:	00001349 	andeq	r1, r0, r9, asr #6
     814:	49002605 	stmdbmi	r0, {r0, r2, r9, sl, sp}
     818:	06000013 			; <UNDEFINED> instruction: 0x06000013
     81c:	193f012e 	ldmdbne	pc!, {r1, r2, r3, r5, r8}	; <UNPREDICTABLE>
     820:	0b3a0e03 	bleq	e84034 <__bss_end__+0xe7a4c4>
     824:	19270b3b 	stmdbne	r7!, {r0, r1, r3, r4, r5, r8, r9, fp}
     828:	06120111 			; <UNDEFINED> instruction: 0x06120111
     82c:	42971840 	addsmi	r1, r7, #64, 16	; 0x400000
     830:	00130119 	andseq	r0, r3, r9, lsl r1
     834:	00050700 	andeq	r0, r5, r0, lsl #14
     838:	0b3a0803 	bleq	e8284c <__bss_end__+0xe78cdc>
     83c:	13490b3b 	movtne	r0, #39739	; 0x9b3b
     840:	00001702 	andeq	r1, r0, r2, lsl #14
     844:	03003408 	movweq	r3, #1032	; 0x408
     848:	3413490e 	ldrcc	r4, [r3], #-2318	; 0x90e
     84c:	00180219 	andseq	r0, r8, r9, lsl r2
     850:	82890900 	addhi	r0, r9, #0, 18
     854:	01110001 	tsteq	r1, r1
     858:	00001331 	andeq	r1, r0, r1, lsr r3
     85c:	0182890a 	orreq	r8, r2, sl, lsl #18
     860:	31011101 	tstcc	r1, r1, lsl #2
     864:	00130113 	andseq	r0, r3, r3, lsl r1
     868:	828a0b00 	addhi	r0, sl, #0, 22
     86c:	18020001 	stmdane	r2, {r0}
     870:	00184291 	mulseq	r8, r1, r2
     874:	01010c00 	tsteq	r1, r0, lsl #24
     878:	13011349 	movwne	r1, #4937	; 0x1349
     87c:	210d0000 	mrscs	r0, (UNDEF: 13)
     880:	2f134900 	svccs	0x00134900
     884:	0e00000b 	cdpeq	0, 0, cr0, cr0, cr11, {0}
     888:	193f002e 	ldmdbne	pc!, {r1, r2, r3, r5}	; <UNPREDICTABLE>
     88c:	0b3a0e03 	bleq	e840a0 <__bss_end__+0xe7a530>
     890:	19270b3b 	stmdbne	r7!, {r0, r1, r3, r4, r5, r8, r9, fp}
     894:	0000193c 	andeq	r1, r0, ip, lsr r9
     898:	3f012e0f 	svccc	0x00012e0f
     89c:	3a0e0319 	bcc	381508 <__bss_end__+0x377998>
     8a0:	270b3b0b 	strcs	r3, [fp, -fp, lsl #22]
     8a4:	3c134919 	ldccc	9, cr4, [r3], {25}
     8a8:	00130119 	andseq	r0, r3, r9, lsl r1
     8ac:	00051000 	andeq	r1, r5, r0
     8b0:	00001349 	andeq	r1, r0, r9, asr #6
     8b4:	00001811 	andeq	r1, r0, r1, lsl r8
     8b8:	11010000 	mrsne	r0, (UNDEF: 1)
     8bc:	130e2501 	movwne	r2, #58625	; 0xe501
     8c0:	1b0e030b 	blne	3814f4 <__bss_end__+0x377984>
     8c4:	1201110e 	andne	r1, r1, #-2147483645	; 0x80000003
     8c8:	00171006 	andseq	r1, r7, r6
     8cc:	00240200 	eoreq	r0, r4, r0, lsl #4
     8d0:	0b3e0b0b 	bleq	f83504 <__bss_end__+0xf79994>
     8d4:	00000803 	andeq	r0, r0, r3, lsl #16
     8d8:	0b002403 	bleq	98ec <buf.4189+0x180>
     8dc:	030b3e0b 	movweq	r3, #48651	; 0xbe0b
     8e0:	0400000e 	streq	r0, [r0], #-14
     8e4:	0b0b000f 	bleq	2c0928 <__bss_end__+0x2b6db8>
     8e8:	00001349 	andeq	r1, r0, r9, asr #6
     8ec:	49002605 	stmdbmi	r0, {r0, r2, r9, sl, sp}
     8f0:	06000013 			; <UNDEFINED> instruction: 0x06000013
     8f4:	193f012e 	ldmdbne	pc!, {r1, r2, r3, r5, r8}	; <UNPREDICTABLE>
     8f8:	0b3a0e03 	bleq	e8410c <__bss_end__+0xe7a59c>
     8fc:	19270b3b 	stmdbne	r7!, {r0, r1, r3, r4, r5, r8, r9, fp}
     900:	06120111 			; <UNDEFINED> instruction: 0x06120111
     904:	42971840 	addsmi	r1, r7, #64, 16	; 0x400000
     908:	00130119 	andseq	r0, r3, r9, lsl r1
     90c:	00050700 	andeq	r0, r5, r0, lsl #14
     910:	0b3a0803 	bleq	e82924 <__bss_end__+0xe78db4>
     914:	13490b3b 	movtne	r0, #39739	; 0x9b3b
     918:	00001702 	andeq	r1, r0, r2, lsl #14
     91c:	03003408 	movweq	r3, #1032	; 0x408
     920:	3413490e 	ldrcc	r4, [r3], #-2318	; 0x90e
     924:	00180219 	andseq	r0, r8, r9, lsl r2
     928:	82890900 	addhi	r0, r9, #0, 18
     92c:	01110001 	tsteq	r1, r1
     930:	00001331 	andeq	r1, r0, r1, lsr r3
     934:	0182890a 	orreq	r8, r2, sl, lsl #18
     938:	31011101 	tstcc	r1, r1, lsl #2
     93c:	00130113 	andseq	r0, r3, r3, lsl r1
     940:	828a0b00 	addhi	r0, sl, #0, 22
     944:	18020001 	stmdane	r2, {r0}
     948:	00184291 	mulseq	r8, r1, r2
     94c:	01010c00 	tsteq	r1, r0, lsl #24
     950:	13011349 	movwne	r1, #4937	; 0x1349
     954:	210d0000 	mrscs	r0, (UNDEF: 13)
     958:	2f134900 	svccs	0x00134900
     95c:	0e00000b 	cdpeq	0, 0, cr0, cr0, cr11, {0}
     960:	193f002e 	ldmdbne	pc!, {r1, r2, r3, r5}	; <UNPREDICTABLE>
     964:	0b3a0e03 	bleq	e84178 <__bss_end__+0xe7a608>
     968:	19270b3b 	stmdbne	r7!, {r0, r1, r3, r4, r5, r8, r9, fp}
     96c:	0000193c 	andeq	r1, r0, ip, lsr r9
     970:	3f012e0f 	svccc	0x00012e0f
     974:	3a0e0319 	bcc	3815e0 <__bss_end__+0x377a70>
     978:	270b3b0b 	strcs	r3, [fp, -fp, lsl #22]
     97c:	3c134919 	ldccc	9, cr4, [r3], {25}
     980:	00130119 	andseq	r0, r3, r9, lsl r1
     984:	00051000 	andeq	r1, r5, r0
     988:	00001349 	andeq	r1, r0, r9, asr #6
     98c:	00001811 	andeq	r1, r0, r1, lsl r8
     990:	11010000 	mrsne	r0, (UNDEF: 1)
     994:	130e2501 	movwne	r2, #58625	; 0xe501
     998:	1b0e030b 	blne	3815cc <__bss_end__+0x377a5c>
     99c:	1201110e 	andne	r1, r1, #-2147483645	; 0x80000003
     9a0:	00171006 	andseq	r1, r7, r6
     9a4:	00240200 	eoreq	r0, r4, r0, lsl #4
     9a8:	0b3e0b0b 	bleq	f835dc <__bss_end__+0xf79a6c>
     9ac:	00000803 	andeq	r0, r0, r3, lsl #16
     9b0:	0b002403 	bleq	99c4 <buf.4189+0x258>
     9b4:	030b3e0b 	movweq	r3, #48651	; 0xbe0b
     9b8:	0400000e 	streq	r0, [r0], #-14
     9bc:	0b0b000f 	bleq	2c0a00 <__bss_end__+0x2b6e90>
     9c0:	00001349 	andeq	r1, r0, r9, asr #6
     9c4:	49002605 	stmdbmi	r0, {r0, r2, r9, sl, sp}
     9c8:	06000013 			; <UNDEFINED> instruction: 0x06000013
     9cc:	193f012e 	ldmdbne	pc!, {r1, r2, r3, r5, r8}	; <UNPREDICTABLE>
     9d0:	0b3a0e03 	bleq	e841e4 <__bss_end__+0xe7a674>
     9d4:	19270b3b 	stmdbne	r7!, {r0, r1, r3, r4, r5, r8, r9, fp}
     9d8:	06120111 			; <UNDEFINED> instruction: 0x06120111
     9dc:	42971840 	addsmi	r1, r7, #64, 16	; 0x400000
     9e0:	00130119 	andseq	r0, r3, r9, lsl r1
     9e4:	00050700 	andeq	r0, r5, r0, lsl #14
     9e8:	0b3a0803 	bleq	e829fc <__bss_end__+0xe78e8c>
     9ec:	13490b3b 	movtne	r0, #39739	; 0x9b3b
     9f0:	00001702 	andeq	r1, r0, r2, lsl #14
     9f4:	03003408 	movweq	r3, #1032	; 0x408
     9f8:	3413490e 	ldrcc	r4, [r3], #-2318	; 0x90e
     9fc:	00180219 	andseq	r0, r8, r9, lsl r2
     a00:	82890900 	addhi	r0, r9, #0, 18
     a04:	01110001 	tsteq	r1, r1
     a08:	00001331 	andeq	r1, r0, r1, lsr r3
     a0c:	0182890a 	orreq	r8, r2, sl, lsl #18
     a10:	31011101 	tstcc	r1, r1, lsl #2
     a14:	00130113 	andseq	r0, r3, r3, lsl r1
     a18:	828a0b00 	addhi	r0, sl, #0, 22
     a1c:	18020001 	stmdane	r2, {r0}
     a20:	00184291 	mulseq	r8, r1, r2
     a24:	01010c00 	tsteq	r1, r0, lsl #24
     a28:	13011349 	movwne	r1, #4937	; 0x1349
     a2c:	210d0000 	mrscs	r0, (UNDEF: 13)
     a30:	2f134900 	svccs	0x00134900
     a34:	0e00000b 	cdpeq	0, 0, cr0, cr0, cr11, {0}
     a38:	193f002e 	ldmdbne	pc!, {r1, r2, r3, r5}	; <UNPREDICTABLE>
     a3c:	0b3a0e03 	bleq	e84250 <__bss_end__+0xe7a6e0>
     a40:	19270b3b 	stmdbne	r7!, {r0, r1, r3, r4, r5, r8, r9, fp}
     a44:	0000193c 	andeq	r1, r0, ip, lsr r9
     a48:	3f012e0f 	svccc	0x00012e0f
     a4c:	3a0e0319 	bcc	3816b8 <__bss_end__+0x377b48>
     a50:	270b3b0b 	strcs	r3, [fp, -fp, lsl #22]
     a54:	3c134919 	ldccc	9, cr4, [r3], {25}
     a58:	00130119 	andseq	r0, r3, r9, lsl r1
     a5c:	00051000 	andeq	r1, r5, r0
     a60:	00001349 	andeq	r1, r0, r9, asr #6
     a64:	00001811 	andeq	r1, r0, r1, lsl r8
     a68:	11010000 	mrsne	r0, (UNDEF: 1)
     a6c:	130e2501 	movwne	r2, #58625	; 0xe501
     a70:	1b0e030b 	blne	3816a4 <__bss_end__+0x377b34>
     a74:	1201110e 	andne	r1, r1, #-2147483645	; 0x80000003
     a78:	00171006 	andseq	r1, r7, r6
     a7c:	00240200 	eoreq	r0, r4, r0, lsl #4
     a80:	0b3e0b0b 	bleq	f836b4 <__bss_end__+0xf79b44>
     a84:	00000803 	andeq	r0, r0, r3, lsl #16
     a88:	0b002403 	bleq	9a9c <buf.4189+0x330>
     a8c:	030b3e0b 	movweq	r3, #48651	; 0xbe0b
     a90:	0400000e 	streq	r0, [r0], #-14
     a94:	0b0b000f 	bleq	2c0ad8 <__bss_end__+0x2b6f68>
     a98:	00001349 	andeq	r1, r0, r9, asr #6
     a9c:	49002605 	stmdbmi	r0, {r0, r2, r9, sl, sp}
     aa0:	06000013 			; <UNDEFINED> instruction: 0x06000013
     aa4:	193f012e 	ldmdbne	pc!, {r1, r2, r3, r5, r8}	; <UNPREDICTABLE>
     aa8:	0b3a0e03 	bleq	e842bc <__bss_end__+0xe7a74c>
     aac:	19270b3b 	stmdbne	r7!, {r0, r1, r3, r4, r5, r8, r9, fp}
     ab0:	06120111 			; <UNDEFINED> instruction: 0x06120111
     ab4:	42971840 	addsmi	r1, r7, #64, 16	; 0x400000
     ab8:	00130119 	andseq	r0, r3, r9, lsl r1
     abc:	00050700 	andeq	r0, r5, r0, lsl #14
     ac0:	0b3a0803 	bleq	e82ad4 <__bss_end__+0xe78f64>
     ac4:	13490b3b 	movtne	r0, #39739	; 0x9b3b
     ac8:	00001702 	andeq	r1, r0, r2, lsl #14
     acc:	03003408 	movweq	r3, #1032	; 0x408
     ad0:	3413490e 	ldrcc	r4, [r3], #-2318	; 0x90e
     ad4:	00180219 	andseq	r0, r8, r9, lsl r2
     ad8:	82890900 	addhi	r0, r9, #0, 18
     adc:	01110001 	tsteq	r1, r1
     ae0:	00001331 	andeq	r1, r0, r1, lsr r3
     ae4:	0182890a 	orreq	r8, r2, sl, lsl #18
     ae8:	31011101 	tstcc	r1, r1, lsl #2
     aec:	00130113 	andseq	r0, r3, r3, lsl r1
     af0:	828a0b00 	addhi	r0, sl, #0, 22
     af4:	18020001 	stmdane	r2, {r0}
     af8:	00184291 	mulseq	r8, r1, r2
     afc:	01010c00 	tsteq	r1, r0, lsl #24
     b00:	13011349 	movwne	r1, #4937	; 0x1349
     b04:	210d0000 	mrscs	r0, (UNDEF: 13)
     b08:	2f134900 	svccs	0x00134900
     b0c:	0e00000b 	cdpeq	0, 0, cr0, cr0, cr11, {0}
     b10:	193f002e 	ldmdbne	pc!, {r1, r2, r3, r5}	; <UNPREDICTABLE>
     b14:	0b3a0e03 	bleq	e84328 <__bss_end__+0xe7a7b8>
     b18:	19270b3b 	stmdbne	r7!, {r0, r1, r3, r4, r5, r8, r9, fp}
     b1c:	0000193c 	andeq	r1, r0, ip, lsr r9
     b20:	3f012e0f 	svccc	0x00012e0f
     b24:	3a0e0319 	bcc	381790 <__bss_end__+0x377c20>
     b28:	270b3b0b 	strcs	r3, [fp, -fp, lsl #22]
     b2c:	3c134919 	ldccc	9, cr4, [r3], {25}
     b30:	00130119 	andseq	r0, r3, r9, lsl r1
     b34:	00051000 	andeq	r1, r5, r0
     b38:	00001349 	andeq	r1, r0, r9, asr #6
     b3c:	00001811 	andeq	r1, r0, r1, lsl r8
     b40:	11010000 	mrsne	r0, (UNDEF: 1)
     b44:	130e2501 	movwne	r2, #58625	; 0xe501
     b48:	1b0e030b 	blne	38177c <__bss_end__+0x377c0c>
     b4c:	1201110e 	andne	r1, r1, #-2147483645	; 0x80000003
     b50:	00171006 	andseq	r1, r7, r6
     b54:	00240200 	eoreq	r0, r4, r0, lsl #4
     b58:	0b3e0b0b 	bleq	f8378c <__bss_end__+0xf79c1c>
     b5c:	00000803 	andeq	r0, r0, r3, lsl #16
     b60:	0b002403 	bleq	9b74 <__bss_end__+0x4>
     b64:	030b3e0b 	movweq	r3, #48651	; 0xbe0b
     b68:	0400000e 	streq	r0, [r0], #-14
     b6c:	0b0b000f 	bleq	2c0bb0 <__bss_end__+0x2b7040>
     b70:	00001349 	andeq	r1, r0, r9, asr #6
     b74:	49002605 	stmdbmi	r0, {r0, r2, r9, sl, sp}
     b78:	06000013 			; <UNDEFINED> instruction: 0x06000013
     b7c:	13490101 	movtne	r0, #37121	; 0x9101
     b80:	00001301 	andeq	r1, r0, r1, lsl #6
     b84:	49002107 	stmdbmi	r0, {r0, r1, r2, r8, sp}
     b88:	000b2f13 	andeq	r2, fp, r3, lsl pc
     b8c:	012e0800 	teqeq	lr, r0, lsl #16
     b90:	0e03193f 	mcreq	9, 0, r1, cr3, cr15, {1}
     b94:	0b3b0b3a 	bleq	ec3884 <__bss_end__+0xeb9d14>
     b98:	01111927 	tsteq	r1, r7, lsr #18
     b9c:	18400612 	stmdane	r0, {r1, r4, r9, sl}^
     ba0:	01194297 			; <UNDEFINED> instruction: 0x01194297
     ba4:	09000013 	stmdbeq	r0, {r0, r1, r4}
     ba8:	08030005 	stmdaeq	r3, {r0, r2}
     bac:	0b3b0b3a 	bleq	ec389c <__bss_end__+0xeb9d2c>
     bb0:	17021349 	strne	r1, [r2, -r9, asr #6]
     bb4:	340a0000 	strcc	r0, [sl], #-0
     bb8:	490e0300 	stmdbmi	lr, {r8, r9}
     bbc:	02193413 	andseq	r3, r9, #318767104	; 0x13000000
     bc0:	0b000018 	bleq	c28 <__code_start__-0x73d8>
     bc4:	00018289 	andeq	r8, r1, r9, lsl #5
     bc8:	13310111 	teqne	r1, #1073741828	; 0x40000004
     bcc:	890c0000 	stmdbhi	ip, {}	; <UNPREDICTABLE>
     bd0:	11010182 	smlabbne	r1, r2, r1, r0
     bd4:	01133101 	tsteq	r3, r1, lsl #2
     bd8:	0d000013 	stceq	0, cr0, [r0, #-76]	; 0xffffffb4
     bdc:	0001828a 	andeq	r8, r1, sl, lsl #5
     be0:	42911802 	addsmi	r1, r1, #131072	; 0x20000
     be4:	0e000018 	mcreq	0, 0, r0, cr0, cr8, {0}
     be8:	193f002e 	ldmdbne	pc!, {r1, r2, r3, r5}	; <UNPREDICTABLE>
     bec:	0b3a0e03 	bleq	e84400 <__bss_end__+0xe7a890>
     bf0:	19270b3b 	stmdbne	r7!, {r0, r1, r3, r4, r5, r8, r9, fp}
     bf4:	0000193c 	andeq	r1, r0, ip, lsr r9
     bf8:	3f012e0f 	svccc	0x00012e0f
     bfc:	3a0e0319 	bcc	381868 <__bss_end__+0x377cf8>
     c00:	270b3b0b 	strcs	r3, [fp, -fp, lsl #22]
     c04:	3c134919 	ldccc	9, cr4, [r3], {25}
     c08:	00130119 	andseq	r0, r3, r9, lsl r1
     c0c:	00051000 	andeq	r1, r5, r0
     c10:	00001349 	andeq	r1, r0, r9, asr #6
     c14:	00001811 	andeq	r1, r0, r1, lsl r8
     c18:	11010000 	mrsne	r0, (UNDEF: 1)
     c1c:	130e2501 	movwne	r2, #58625	; 0xe501
     c20:	1b0e030b 	blne	381854 <__bss_end__+0x377ce4>
     c24:	1201110e 	andne	r1, r1, #-2147483645	; 0x80000003
     c28:	00171006 	andseq	r1, r7, r6
     c2c:	00240200 	eoreq	r0, r4, r0, lsl #4
     c30:	0b3e0b0b 	bleq	f83864 <__bss_end__+0xf79cf4>
     c34:	00000803 	andeq	r0, r0, r3, lsl #16
     c38:	0b002403 	bleq	9c4c <__bss_end__+0xdc>
     c3c:	030b3e0b 	movweq	r3, #48651	; 0xbe0b
     c40:	0400000e 	streq	r0, [r0], #-14
     c44:	0b0b000f 	bleq	2c0c88 <__bss_end__+0x2b7118>
     c48:	00001349 	andeq	r1, r0, r9, asr #6
     c4c:	49002605 	stmdbmi	r0, {r0, r2, r9, sl, sp}
     c50:	06000013 			; <UNDEFINED> instruction: 0x06000013
     c54:	193f012e 	ldmdbne	pc!, {r1, r2, r3, r5, r8}	; <UNPREDICTABLE>
     c58:	0b3a0e03 	bleq	e8446c <__bss_end__+0xe7a8fc>
     c5c:	19270b3b 	stmdbne	r7!, {r0, r1, r3, r4, r5, r8, r9, fp}
     c60:	06120111 			; <UNDEFINED> instruction: 0x06120111
     c64:	42971840 	addsmi	r1, r7, #64, 16	; 0x400000
     c68:	00130119 	andseq	r0, r3, r9, lsl r1
     c6c:	00050700 	andeq	r0, r5, r0, lsl #14
     c70:	0b3a0803 	bleq	e82c84 <__bss_end__+0xe79114>
     c74:	13490b3b 	movtne	r0, #39739	; 0x9b3b
     c78:	00001702 	andeq	r1, r0, r2, lsl #14
     c7c:	03003408 	movweq	r3, #1032	; 0x408
     c80:	3413490e 	ldrcc	r4, [r3], #-2318	; 0x90e
     c84:	00180219 	andseq	r0, r8, r9, lsl r2
     c88:	82890900 	addhi	r0, r9, #0, 18
     c8c:	01110001 	tsteq	r1, r1
     c90:	00001331 	andeq	r1, r0, r1, lsr r3
     c94:	0182890a 	orreq	r8, r2, sl, lsl #18
     c98:	31011101 	tstcc	r1, r1, lsl #2
     c9c:	00130113 	andseq	r0, r3, r3, lsl r1
     ca0:	828a0b00 	addhi	r0, sl, #0, 22
     ca4:	18020001 	stmdane	r2, {r0}
     ca8:	00184291 	mulseq	r8, r1, r2
     cac:	01010c00 	tsteq	r1, r0, lsl #24
     cb0:	13011349 	movwne	r1, #4937	; 0x1349
     cb4:	210d0000 	mrscs	r0, (UNDEF: 13)
     cb8:	2f134900 	svccs	0x00134900
     cbc:	0e00000b 	cdpeq	0, 0, cr0, cr0, cr11, {0}
     cc0:	193f002e 	ldmdbne	pc!, {r1, r2, r3, r5}	; <UNPREDICTABLE>
     cc4:	0b3a0e03 	bleq	e844d8 <__bss_end__+0xe7a968>
     cc8:	19270b3b 	stmdbne	r7!, {r0, r1, r3, r4, r5, r8, r9, fp}
     ccc:	0000193c 	andeq	r1, r0, ip, lsr r9
     cd0:	3f012e0f 	svccc	0x00012e0f
     cd4:	3a0e0319 	bcc	381940 <__bss_end__+0x377dd0>
     cd8:	270b3b0b 	strcs	r3, [fp, -fp, lsl #22]
     cdc:	3c134919 	ldccc	9, cr4, [r3], {25}
     ce0:	00130119 	andseq	r0, r3, r9, lsl r1
     ce4:	00051000 	andeq	r1, r5, r0
     ce8:	00001349 	andeq	r1, r0, r9, asr #6
     cec:	00001811 	andeq	r1, r0, r1, lsl r8
     cf0:	11010000 	mrsne	r0, (UNDEF: 1)
     cf4:	130e2501 	movwne	r2, #58625	; 0xe501
     cf8:	1b0e030b 	blne	38192c <__bss_end__+0x377dbc>
     cfc:	1201110e 	andne	r1, r1, #-2147483645	; 0x80000003
     d00:	00171006 	andseq	r1, r7, r6
     d04:	00240200 	eoreq	r0, r4, r0, lsl #4
     d08:	0b3e0b0b 	bleq	f8393c <__bss_end__+0xf79dcc>
     d0c:	00000803 	andeq	r0, r0, r3, lsl #16
     d10:	0b002403 	bleq	9d24 <__bss_end__+0x1b4>
     d14:	030b3e0b 	movweq	r3, #48651	; 0xbe0b
     d18:	0400000e 	streq	r0, [r0], #-14
     d1c:	193f002e 	ldmdbne	pc!, {r1, r2, r3, r5}	; <UNPREDICTABLE>
     d20:	0b3a0e03 	bleq	e84534 <__bss_end__+0xe7a9c4>
     d24:	19270b3b 	stmdbne	r7!, {r0, r1, r3, r4, r5, r8, r9, fp}
     d28:	06120111 			; <UNDEFINED> instruction: 0x06120111
     d2c:	42971840 	addsmi	r1, r7, #64, 16	; 0x400000
     d30:	00000019 	andeq	r0, r0, r9, lsl r0
     d34:	25011101 	strcs	r1, [r1, #-257]	; 0x101
     d38:	030b130e 	movweq	r1, #45838	; 0xb30e
     d3c:	110e1b0e 	tstne	lr, lr, lsl #22
     d40:	10061201 	andne	r1, r6, r1, lsl #4
     d44:	02000017 	andeq	r0, r0, #23
     d48:	0b0b0024 	bleq	2c0de0 <__bss_end__+0x2b7270>
     d4c:	08030b3e 	stmdaeq	r3, {r1, r2, r3, r4, r5, r8, r9, fp}
     d50:	24030000 	strcs	r0, [r3], #-0
     d54:	3e0b0b00 	vmlacc.f64	d0, d11, d0
     d58:	000e030b 	andeq	r0, lr, fp, lsl #6
     d5c:	01040400 	tsteq	r4, r0, lsl #8
     d60:	0b3a0b0b 	bleq	e83994 <__bss_end__+0xe79e24>
     d64:	13010b3b 	movwne	r0, #6971	; 0x1b3b
     d68:	28050000 	stmdacs	r5, {}	; <UNPREDICTABLE>
     d6c:	1c0e0300 	stcne	3, cr0, [lr], {-0}
     d70:	0600000d 	streq	r0, [r0], -sp
     d74:	193f012e 	ldmdbne	pc!, {r1, r2, r3, r5, r8}	; <UNPREDICTABLE>
     d78:	0b3a0e03 	bleq	e8458c <__bss_end__+0xe7aa1c>
     d7c:	19270b3b 	stmdbne	r7!, {r0, r1, r3, r4, r5, r8, r9, fp}
     d80:	06120111 			; <UNDEFINED> instruction: 0x06120111
     d84:	42971840 	addsmi	r1, r7, #64, 16	; 0x400000
     d88:	00130119 	andseq	r0, r3, r9, lsl r1
     d8c:	00340700 	eorseq	r0, r4, r0, lsl #14
     d90:	0b3a0e03 	bleq	e845a4 <__bss_end__+0xe7aa34>
     d94:	13490b3b 	movtne	r0, #39739	; 0x9b3b
     d98:	193c193f 	ldmdbne	ip!, {r0, r1, r2, r3, r4, r5, r8, fp, ip}
     d9c:	34080000 	strcc	r0, [r8], #-0
     da0:	3a080300 	bcc	2019a8 <__bss_end__+0x1f7e38>
     da4:	490b3b0b 	stmdbmi	fp, {r0, r1, r3, r8, r9, fp, ip, sp}
     da8:	000b1c13 	andeq	r1, fp, r3, lsl ip
     dac:	00340900 	eorseq	r0, r4, r0, lsl #18
     db0:	0b3a0803 	bleq	e82dc4 <__bss_end__+0xe79254>
     db4:	13490b3b 	movtne	r0, #39739	; 0x9b3b
     db8:	340a0000 	strcc	r0, [sl], #-0
     dbc:	3a080300 	bcc	2019c4 <__bss_end__+0x1f7e54>
     dc0:	490b3b0b 	stmdbmi	fp, {r0, r1, r3, r8, r9, fp, ip, sp}
     dc4:	00180213 	andseq	r0, r8, r3, lsl r2
     dc8:	010b0b00 	tsteq	fp, r0, lsl #22
     dcc:	06120111 			; <UNDEFINED> instruction: 0x06120111
     dd0:	00001301 	andeq	r1, r0, r1, lsl #6
     dd4:	0300340c 	movweq	r3, #1036	; 0x40c
     dd8:	3b0b3a08 	blcc	2cf600 <__bss_end__+0x2c5a90>
     ddc:	0213490b 	andseq	r4, r3, #180224	; 0x2c000
     de0:	0d000017 	stceq	0, cr0, [r0, #-92]	; 0xffffffa4
     de4:	00018289 	andeq	r8, r1, r9, lsl #5
     de8:	13310111 	teqne	r1, #1073741828	; 0x40000004
     dec:	890e0000 	stmdbhi	lr, {}	; <UNPREDICTABLE>
     df0:	11010182 	smlabbne	r1, r2, r1, r0
     df4:	01133101 	tsteq	r3, r1, lsl #2
     df8:	0f000013 	svceq	0x00000013
     dfc:	0001828a 	andeq	r8, r1, sl, lsl #5
     e00:	42911802 	addsmi	r1, r1, #131072	; 0x20000
     e04:	10000018 	andne	r0, r0, r8, lsl r0
     e08:	0b0b000f 	bleq	2c0e4c <__bss_end__+0x2b72dc>
     e0c:	00001349 	andeq	r1, r0, r9, asr #6
     e10:	3f002e11 	svccc	0x00002e11
     e14:	3a0e0319 	bcc	381a80 <__bss_end__+0x377f10>
     e18:	270b3b0b 	strcs	r3, [fp, -fp, lsl #22]
     e1c:	00193c19 	andseq	r3, r9, r9, lsl ip
     e20:	012e1200 	teqeq	lr, r0, lsl #4
     e24:	0e03193f 	mcreq	9, 0, r1, cr3, cr15, {1}
     e28:	0b3b0b3a 	bleq	ec3b18 <__bss_end__+0xeb9fa8>
     e2c:	193c1927 	ldmdbne	ip!, {r0, r1, r2, r5, r8, fp, ip}
     e30:	05130000 	ldreq	r0, [r3, #-0]
     e34:	00134900 	andseq	r4, r3, r0, lsl #18
     e38:	11010000 	mrsne	r0, (UNDEF: 1)
     e3c:	130e2501 	movwne	r2, #58625	; 0xe501
     e40:	1b0e030b 	blne	381a74 <__bss_end__+0x377f04>
     e44:	1117550e 	tstne	r7, lr, lsl #10
     e48:	00171001 	andseq	r1, r7, r1
     e4c:	00240200 	eoreq	r0, r4, r0, lsl #4
     e50:	0b3e0b0b 	bleq	f83a84 <__bss_end__+0xf79f14>
     e54:	00000803 	andeq	r0, r0, r3, lsl #16
     e58:	0b002403 	bleq	9e6c <__bss_end__+0x2fc>
     e5c:	030b3e0b 	movweq	r3, #48651	; 0xbe0b
     e60:	0400000e 	streq	r0, [r0], #-14
     e64:	193f012e 	ldmdbne	pc!, {r1, r2, r3, r5, r8}	; <UNPREDICTABLE>
     e68:	0b3a0e03 	bleq	e8467c <__bss_end__+0xe7ab0c>
     e6c:	19270b3b 	stmdbne	r7!, {r0, r1, r3, r4, r5, r8, r9, fp}
     e70:	01111349 	tsteq	r1, r9, asr #6
     e74:	18400612 	stmdane	r0, {r1, r4, r9, sl}^
     e78:	01194297 			; <UNDEFINED> instruction: 0x01194297
     e7c:	05000013 	streq	r0, [r0, #-19]
     e80:	0e030034 	mcreq	0, 0, r0, cr3, cr4, {1}
     e84:	0b3b0b3a 	bleq	ec3b74 <__bss_end__+0xeba004>
     e88:	17021349 	strne	r1, [r2, -r9, asr #6]
     e8c:	2e060000 	cdpcs	0, 0, cr0, cr6, cr0, {0}
     e90:	03193f01 	tsteq	r9, #1, 30
     e94:	3b0b3a0e 	blcc	2cf6d4 <__bss_end__+0x2c5b64>
     e98:	1119270b 	tstne	r9, fp, lsl #14
     e9c:	40061201 	andmi	r1, r6, r1, lsl #4
     ea0:	19429718 	stmdbne	r2, {r3, r4, r8, r9, sl, ip, pc}^
     ea4:	00001301 	andeq	r1, r0, r1, lsl #6
     ea8:	03003407 	movweq	r3, #1031	; 0x407
     eac:	3b0b3a0e 	blcc	2cf6ec <__bss_end__+0x2c5b7c>
     eb0:	1c13490b 	ldcne	9, cr4, [r3], {11}
     eb4:	08000006 	stmdaeq	r0, {r1, r2}
     eb8:	0e030034 	mcreq	0, 0, r0, cr3, cr4, {1}
     ebc:	0b3b0b3a 	bleq	ec3bac <__bss_end__+0xeba03c>
     ec0:	0b1c1349 	bleq	705bec <__bss_end__+0x6fc07c>
     ec4:	89090000 	stmdbhi	r9, {}	; <UNPREDICTABLE>
     ec8:	11000182 	smlabbne	r0, r2, r1, r0
     ecc:	00133101 	andseq	r3, r3, r1, lsl #2
     ed0:	82890a00 	addhi	r0, r9, #0, 20
     ed4:	01110101 	tsteq	r1, r1, lsl #2
     ed8:	13011331 	movwne	r1, #4913	; 0x1331
     edc:	8a0b0000 	bhi	2c0ee4 <__bss_end__+0x2b7374>
     ee0:	02000182 	andeq	r0, r0, #-2147483616	; 0x80000020
     ee4:	18429118 	stmdane	r2, {r3, r4, r8, ip, pc}^
     ee8:	890c0000 	stmdbhi	ip, {}	; <UNPREDICTABLE>
     eec:	11010182 	smlabbne	r1, r2, r1, r0
     ef0:	00133101 	andseq	r3, r3, r1, lsl #2
     ef4:	00260d00 	eoreq	r0, r6, r0, lsl #26
     ef8:	00001349 	andeq	r1, r0, r9, asr #6
     efc:	3f012e0e 	svccc	0x00012e0e
     f00:	3a0e0319 	bcc	381b6c <__bss_end__+0x377ffc>
     f04:	270b3b0b 	strcs	r3, [fp, -fp, lsl #22]
     f08:	01193c19 	tsteq	r9, r9, lsl ip
     f0c:	0f000013 	svceq	0x00000013
     f10:	13490005 	movtne	r0, #36869	; 0x9005
     f14:	2e100000 	cdpcs	0, 1, cr0, cr0, cr0, {0}
     f18:	03193f01 	tsteq	r9, #1, 30
     f1c:	3b0b3a0e 	blcc	2cf75c <__bss_end__+0x2c5bec>
     f20:	3c19270b 	ldccc	7, cr2, [r9], {11}
     f24:	00000019 	andeq	r0, r0, r9, lsl r0
     f28:	25011101 	strcs	r1, [r1, #-257]	; 0x101
     f2c:	030b130e 	movweq	r1, #45838	; 0xb30e
     f30:	110e1b0e 	tstne	lr, lr, lsl #22
     f34:	10061201 	andne	r1, r6, r1, lsl #4
     f38:	02000017 	andeq	r0, r0, #23
     f3c:	0b0b0024 	bleq	2c0fd4 <__bss_end__+0x2b7464>
     f40:	08030b3e 	stmdaeq	r3, {r1, r2, r3, r4, r5, r8, r9, fp}
     f44:	24030000 	strcs	r0, [r3], #-0
     f48:	3e0b0b00 	vmlacc.f64	d0, d11, d0
     f4c:	000e030b 	andeq	r0, lr, fp, lsl #6
     f50:	012e0400 	teqeq	lr, r0, lsl #8
     f54:	0e03193f 	mcreq	9, 0, r1, cr3, cr15, {1}
     f58:	0b3b0b3a 	bleq	ec3c48 <__bss_end__+0xeba0d8>
     f5c:	01111927 	tsteq	r1, r7, lsr #18
     f60:	18400612 	stmdane	r0, {r1, r4, r9, sl}^
     f64:	01194297 			; <UNDEFINED> instruction: 0x01194297
     f68:	05000013 	streq	r0, [r0, #-19]
     f6c:	0e030005 	cdpeq	0, 0, cr0, cr3, cr5, {0}
     f70:	0b3b0b3a 	bleq	ec3c60 <__bss_end__+0xeba0f0>
     f74:	17021349 	strne	r1, [r2, -r9, asr #6]
     f78:	2e060000 	cdpcs	0, 0, cr0, cr6, cr0, {0}
     f7c:	03193f01 	tsteq	r9, #1, 30
     f80:	3b0b3a0e 	blcc	2cf7c0 <__bss_end__+0x2c5c50>
     f84:	4919270b 	ldmdbmi	r9, {r0, r1, r3, r8, r9, sl, sp}
     f88:	12011113 	andne	r1, r1, #-1073741820	; 0xc0000004
     f8c:	97184006 	ldrls	r4, [r8, -r6]
     f90:	13011942 	movwne	r1, #6466	; 0x1942
     f94:	89070000 	stmdbhi	r7, {}	; <UNPREDICTABLE>
     f98:	11010182 	smlabbne	r1, r2, r1, r0
     f9c:	00133101 	andseq	r3, r3, r1, lsl #2
     fa0:	828a0800 	addhi	r0, sl, #0, 16
     fa4:	18020001 	stmdane	r2, {r0}
     fa8:	00184291 	mulseq	r8, r1, r2
     fac:	00340900 	eorseq	r0, r4, r0, lsl #18
     fb0:	0b3a0803 	bleq	e82fc4 <__bss_end__+0xe79454>
     fb4:	13490b3b 	movtne	r0, #39739	; 0x9b3b
     fb8:	00001702 	andeq	r1, r0, r2, lsl #14
     fbc:	0182890a 	orreq	r8, r2, sl, lsl #18
     fc0:	31011100 	mrscc	r1, (UNDEF: 17)
     fc4:	0b000013 	bleq	1018 <__code_start__-0x6fe8>
     fc8:	08030005 	stmdaeq	r3, {r0, r2}
     fcc:	0b3b0b3a 	bleq	ec3cbc <__bss_end__+0xeba14c>
     fd0:	17021349 	strne	r1, [r2, -r9, asr #6]
     fd4:	340c0000 	strcc	r0, [ip], #-0
     fd8:	3a080300 	bcc	201be0 <__bss_end__+0x1f8070>
     fdc:	490b3b0b 	stmdbmi	fp, {r0, r1, r3, r8, r9, fp, ip, sp}
     fe0:	00180213 	andseq	r0, r8, r3, lsl r2
     fe4:	010b0d00 	tsteq	fp, r0, lsl #26
     fe8:	06120111 			; <UNDEFINED> instruction: 0x06120111
     fec:	00001301 	andeq	r1, r0, r1, lsl #6
     ff0:	3f012e0e 	svccc	0x00012e0e
     ff4:	3a0e0319 	bcc	381c60 <__bss_end__+0x3780f0>
     ff8:	270b3b0b 	strcs	r3, [fp, -fp, lsl #22]
     ffc:	3c134919 	ldccc	9, cr4, [r3], {25}
    1000:	00130119 	andseq	r0, r3, r9, lsl r1
    1004:	00050f00 	andeq	r0, r5, r0, lsl #30
    1008:	00001349 	andeq	r1, r0, r9, asr #6
    100c:	3f002e10 	svccc	0x00002e10
    1010:	3a0e0319 	bcc	381c7c <__bss_end__+0x37810c>
    1014:	270b3b0b 	strcs	r3, [fp, -fp, lsl #22]
    1018:	00193c19 	andseq	r3, r9, r9, lsl ip
    101c:	11010000 	mrsne	r0, (UNDEF: 1)
    1020:	130e2501 	movwne	r2, #58625	; 0xe501
    1024:	1b0e030b 	blne	381c58 <__bss_end__+0x3780e8>
    1028:	1201110e 	andne	r1, r1, #-2147483645	; 0x80000003
    102c:	00171006 	andseq	r1, r7, r6
    1030:	00240200 	eoreq	r0, r4, r0, lsl #4
    1034:	0b3e0b0b 	bleq	f83c68 <__bss_end__+0xf7a0f8>
    1038:	00000803 	andeq	r0, r0, r3, lsl #16
    103c:	0b002403 	bleq	a050 <__bss_end__+0x4e0>
    1040:	030b3e0b 	movweq	r3, #48651	; 0xbe0b
    1044:	0400000e 	streq	r0, [r0], #-14
    1048:	13490035 	movtne	r0, #36917	; 0x9035
    104c:	16050000 	strne	r0, [r5], -r0
    1050:	3a0e0300 	bcc	381c58 <__bss_end__+0x3780e8>
    1054:	490b3b0b 	stmdbmi	fp, {r0, r1, r3, r8, r9, fp, ip, sp}
    1058:	06000013 			; <UNDEFINED> instruction: 0x06000013
    105c:	0e030016 	mcreq	0, 0, r0, cr3, cr6, {0}
    1060:	053b0b3a 	ldreq	r0, [fp, #-2874]!	; 0xb3a
    1064:	00001349 	andeq	r1, r0, r9, asr #6
    1068:	0b011707 	bleq	46c8c <__bss_end__+0x3d11c>
    106c:	3b0b3a0b 	blcc	2cf8a0 <__bss_end__+0x2c5d30>
    1070:	0013010b 	andseq	r0, r3, fp, lsl #2
    1074:	000d0800 	andeq	r0, sp, r0, lsl #16
    1078:	0b3a0e03 	bleq	e8488c <__bss_end__+0xe7ad1c>
    107c:	13490b3b 	movtne	r0, #39739	; 0x9b3b
    1080:	01090000 	mrseq	r0, (UNDEF: 9)
    1084:	01134901 	tsteq	r3, r1, lsl #18
    1088:	0a000013 	beq	10dc <__code_start__-0x6f24>
    108c:	13490021 	movtne	r0, #36897	; 0x9021
    1090:	00000b2f 	andeq	r0, r0, pc, lsr #22
    1094:	0b01130b 	bleq	45cc8 <__bss_end__+0x3c158>
    1098:	3b0b3a0b 	blcc	2cf8cc <__bss_end__+0x2c5d5c>
    109c:	0013010b 	andseq	r0, r3, fp, lsl #2
    10a0:	000d0c00 	andeq	r0, sp, r0, lsl #24
    10a4:	0b3a0e03 	bleq	e848b8 <__bss_end__+0xe7ad48>
    10a8:	13490b3b 	movtne	r0, #39739	; 0x9b3b
    10ac:	00000b38 	andeq	r0, r0, r8, lsr fp
    10b0:	0b000f0d 	bleq	4cec <__code_start__-0x3314>
    10b4:	0e00000b 	cdpeq	0, 0, cr0, cr0, cr11, {0}
    10b8:	0b0b000f 	bleq	2c10fc <__bss_end__+0x2b758c>
    10bc:	00001349 	andeq	r1, r0, r9, asr #6
    10c0:	4900260f 	stmdbmi	r0, {r0, r1, r2, r3, r9, sl, sp}
    10c4:	10000013 	andne	r0, r0, r3, lsl r0
    10c8:	0e030113 	mcreq	1, 0, r0, cr3, cr3, {0}
    10cc:	0b3a0b0b 	bleq	e83d00 <__bss_end__+0xe7a190>
    10d0:	13010b3b 	movwne	r0, #6971	; 0x1b3b
    10d4:	0d110000 	ldceq	0, cr0, [r1, #-0]
    10d8:	3a080300 	bcc	201ce0 <__bss_end__+0x1f8170>
    10dc:	490b3b0b 	stmdbmi	fp, {r0, r1, r3, r8, r9, fp, ip, sp}
    10e0:	000b3813 	andeq	r3, fp, r3, lsl r8
    10e4:	01131200 	tsteq	r3, r0, lsl #4
    10e8:	050b0e03 	streq	r0, [fp, #-3587]	; 0xe03
    10ec:	0b3b0b3a 	bleq	ec3ddc <__bss_end__+0xeba26c>
    10f0:	00001301 	andeq	r1, r0, r1, lsl #6
    10f4:	03000d13 	movweq	r0, #3347	; 0xd13
    10f8:	3b0b3a0e 	blcc	2cf938 <__bss_end__+0x2c5dc8>
    10fc:	3813490b 	ldmdacc	r3, {r0, r1, r3, r8, fp, lr}
    1100:	14000005 	strne	r0, [r0], #-5
    1104:	19270015 	stmdbne	r7!, {r0, r2, r4}
    1108:	15150000 	ldrne	r0, [r5, #-0]
    110c:	49192701 	ldmdbmi	r9, {r0, r8, r9, sl, sp}
    1110:	00130113 	andseq	r0, r3, r3, lsl r1
    1114:	00051600 	andeq	r1, r5, r0, lsl #12
    1118:	00001349 	andeq	r1, r0, r9, asr #6
    111c:	03011317 	movweq	r1, #4887	; 0x1317
    1120:	3a050b0e 	bcc	143d60 <__bss_end__+0x13a1f0>
    1124:	01053b0b 	tsteq	r5, fp, lsl #22
    1128:	18000013 	stmdane	r0, {r0, r1, r4}
    112c:	0e03000d 	cdpeq	0, 0, cr0, cr3, cr13, {0}
    1130:	053b0b3a 	ldreq	r0, [fp, #-2874]!	; 0xb3a
    1134:	0b381349 	bleq	e05e60 <__bss_end__+0xdfc2f0>
    1138:	0d190000 	ldceq	0, cr0, [r9, #-0]
    113c:	3a0e0300 	bcc	381d44 <__bss_end__+0x3781d4>
    1140:	49053b0b 	stmdbmi	r5, {r0, r1, r3, r8, r9, fp, ip, sp}
    1144:	00053813 	andeq	r3, r5, r3, lsl r8
    1148:	01131a00 	tsteq	r3, r0, lsl #20
    114c:	0b0b0e03 	bleq	2c4960 <__bss_end__+0x2badf0>
    1150:	053b0b3a 	ldreq	r0, [fp, #-2874]!	; 0xb3a
    1154:	00001301 	andeq	r1, r0, r1, lsl #6
    1158:	0b01131b 	bleq	45dcc <__bss_end__+0x3c25c>
    115c:	3b0b3a0b 	blcc	2cf990 <__bss_end__+0x2c5e20>
    1160:	00130105 	andseq	r0, r3, r5, lsl #2
    1164:	01171c00 	tsteq	r7, r0, lsl #24
    1168:	0b3a0b0b 	bleq	e83d9c <__bss_end__+0xe7a22c>
    116c:	1301053b 	movwne	r0, #5435	; 0x153b
    1170:	0d1d0000 	ldceq	0, cr0, [sp, #-0]
    1174:	3a0e0300 	bcc	381d7c <__bss_end__+0x37820c>
    1178:	49053b0b 	stmdbmi	r5, {r0, r1, r3, r8, r9, fp, ip, sp}
    117c:	1e000013 	mcrne	0, 0, r0, cr0, cr3, {0}
    1180:	19270115 	stmdbne	r7!, {r0, r2, r4, r8}
    1184:	00001301 	andeq	r1, r0, r1, lsl #6
    1188:	0300341f 	movweq	r3, #1055	; 0x41f
    118c:	3b0b3a0e 	blcc	2cf9cc <__bss_end__+0x2c5e5c>
    1190:	3f134905 	svccc	0x00134905
    1194:	00193c19 	andseq	r3, r9, r9, lsl ip
    1198:	00342000 	eorseq	r2, r4, r0
    119c:	0b3a0e03 	bleq	e849b0 <__bss_end__+0xe7ae40>
    11a0:	13490b3b 	movtne	r0, #39739	; 0x9b3b
    11a4:	193c193f 	ldmdbne	ip!, {r0, r1, r2, r3, r4, r5, r8, fp, ip}
    11a8:	04210000 	strteq	r0, [r1], #-0
    11ac:	490b0b01 	stmdbmi	fp, {r0, r8, r9, fp}
    11b0:	3b0b3a13 	blcc	2cfa04 <__bss_end__+0x2c5e94>
    11b4:	0013010b 	andseq	r0, r3, fp, lsl #2
    11b8:	00282200 	eoreq	r2, r8, r0, lsl #4
    11bc:	0b1c0e03 	bleq	7049d0 <__bss_end__+0x6fae60>
    11c0:	34230000 	strtcc	r0, [r3], #-0
    11c4:	3a0e0300 	bcc	381dcc <__bss_end__+0x37825c>
    11c8:	490b3b0b 	stmdbmi	fp, {r0, r1, r3, r8, r9, fp, ip, sp}
    11cc:	00061c13 	andeq	r1, r6, r3, lsl ip
    11d0:	012e2400 	teqeq	lr, r0, lsl #8
    11d4:	0e03193f 	mcreq	9, 0, r1, cr3, cr15, {1}
    11d8:	0b3b0b3a 	bleq	ec3ec8 <__bss_end__+0xeba358>
    11dc:	13491927 	movtne	r1, #39207	; 0x9927
    11e0:	06120111 			; <UNDEFINED> instruction: 0x06120111
    11e4:	42971840 	addsmi	r1, r7, #64, 16	; 0x400000
    11e8:	00130119 	andseq	r0, r3, r9, lsl r1
    11ec:	82892500 	addhi	r2, r9, #0, 10
    11f0:	01110001 	tsteq	r1, r1
    11f4:	00001331 	andeq	r1, r0, r1, lsr r3
    11f8:	3f012e26 	svccc	0x00012e26
    11fc:	3a0e0319 	bcc	381e68 <__bss_end__+0x3782f8>
    1200:	270b3b0b 	strcs	r3, [fp, -fp, lsl #22]
    1204:	12011119 	andne	r1, r1, #1073741830	; 0x40000006
    1208:	97184006 	ldrls	r4, [r8, -r6]
    120c:	13011942 	movwne	r1, #6466	; 0x1942
    1210:	05270000 	streq	r0, [r7, #-0]!
    1214:	3a080300 	bcc	201e1c <__bss_end__+0x1f82ac>
    1218:	490b3b0b 	stmdbmi	fp, {r0, r1, r3, r8, r9, fp, ip, sp}
    121c:	00170213 	andseq	r0, r7, r3, lsl r2
    1220:	82892800 	addhi	r2, r9, #0, 16
    1224:	01110101 	tsteq	r1, r1, lsl #2
    1228:	13011331 	movwne	r1, #4913	; 0x1331
    122c:	8a290000 	bhi	a41234 <__bss_end__+0xa376c4>
    1230:	02000182 	andeq	r0, r0, #-2147483616	; 0x80000020
    1234:	18429118 	stmdane	r2, {r3, r4, r8, ip, pc}^
    1238:	342a0000 	strtcc	r0, [sl], #-0
    123c:	3a080300 	bcc	201e44 <__bss_end__+0x1f82d4>
    1240:	490b3b0b 	stmdbmi	fp, {r0, r1, r3, r8, r9, fp, ip, sp}
    1244:	00180213 	andseq	r0, r8, r3, lsl r2
    1248:	82892b00 	addhi	r2, r9, #0, 22
    124c:	01110101 	tsteq	r1, r1, lsl #2
    1250:	00001331 	andeq	r1, r0, r1, lsr r3
    1254:	03012e2c 	movweq	r2, #7724	; 0x1e2c
    1258:	3b0b3a0e 	blcc	2cfa98 <__bss_end__+0x2c5f28>
    125c:	1119270b 	tstne	r9, fp, lsl #14
    1260:	40061201 	andmi	r1, r6, r1, lsl #4
    1264:	19429718 	stmdbne	r2, {r3, r4, r8, r9, sl, ip, pc}^
    1268:	00001301 	andeq	r1, r0, r1, lsl #6
    126c:	0300052d 	movweq	r0, #1325	; 0x52d
    1270:	3b0b3a0e 	blcc	2cfab0 <__bss_end__+0x2c5f40>
    1274:	0213490b 	andseq	r4, r3, #180224	; 0x2c000
    1278:	2e000017 	mcrcs	0, 0, r0, cr0, cr7, {0}
    127c:	00000035 	andeq	r0, r0, r5, lsr r0
    1280:	3f002e2f 	svccc	0x00002e2f
    1284:	6e193c19 	mrcvs	12, 0, r3, cr9, cr9, {0}
    1288:	3a0e030e 	bcc	381ec8 <__bss_end__+0x378358>
    128c:	000b3b0b 	andeq	r3, fp, fp, lsl #22
    1290:	11010000 	mrsne	r0, (UNDEF: 1)
    1294:	130e2501 	movwne	r2, #58625	; 0xe501
    1298:	1b0e030b 	blne	381ecc <__bss_end__+0x37835c>
    129c:	1201110e 	andne	r1, r1, #-2147483645	; 0x80000003
    12a0:	00171006 	andseq	r1, r7, r6
    12a4:	00240200 	eoreq	r0, r4, r0, lsl #4
    12a8:	0b3e0b0b 	bleq	f83edc <__bss_end__+0xf7a36c>
    12ac:	00000803 	andeq	r0, r0, r3, lsl #16
    12b0:	0b002403 	bleq	a2c4 <__bss_end__+0x754>
    12b4:	030b3e0b 	movweq	r3, #48651	; 0xbe0b
    12b8:	0400000e 	streq	r0, [r0], #-14
    12bc:	13490026 	movtne	r0, #36902	; 0x9026
    12c0:	16050000 	strne	r0, [r5], -r0
    12c4:	3a0e0300 	bcc	381ecc <__bss_end__+0x37835c>
    12c8:	490b3b0b 	stmdbmi	fp, {r0, r1, r3, r8, r9, fp, ip, sp}
    12cc:	06000013 			; <UNDEFINED> instruction: 0x06000013
    12d0:	0e030016 	mcreq	0, 0, r0, cr3, cr6, {0}
    12d4:	053b0b3a 	ldreq	r0, [fp, #-2874]!	; 0xb3a
    12d8:	00001349 	andeq	r1, r0, r9, asr #6
    12dc:	0b011707 	bleq	46f00 <__bss_end__+0x3d390>
    12e0:	3b0b3a0b 	blcc	2cfb14 <__bss_end__+0x2c5fa4>
    12e4:	0013010b 	andseq	r0, r3, fp, lsl #2
    12e8:	000d0800 	andeq	r0, sp, r0, lsl #16
    12ec:	0b3a0e03 	bleq	e84b00 <__bss_end__+0xe7af90>
    12f0:	13490b3b 	movtne	r0, #39739	; 0x9b3b
    12f4:	01090000 	mrseq	r0, (UNDEF: 9)
    12f8:	01134901 	tsteq	r3, r1, lsl #18
    12fc:	0a000013 	beq	1350 <__code_start__-0x6cb0>
    1300:	13490021 	movtne	r0, #36897	; 0x9021
    1304:	00000b2f 	andeq	r0, r0, pc, lsr #22
    1308:	0b01130b 	bleq	45f3c <__bss_end__+0x3c3cc>
    130c:	3b0b3a0b 	blcc	2cfb40 <__bss_end__+0x2c5fd0>
    1310:	0013010b 	andseq	r0, r3, fp, lsl #2
    1314:	000d0c00 	andeq	r0, sp, r0, lsl #24
    1318:	0b3a0e03 	bleq	e84b2c <__bss_end__+0xe7afbc>
    131c:	13490b3b 	movtne	r0, #39739	; 0x9b3b
    1320:	00000b38 	andeq	r0, r0, r8, lsr fp
    1324:	0b000f0d 	bleq	4f60 <__code_start__-0x30a0>
    1328:	0e00000b 	cdpeq	0, 0, cr0, cr0, cr11, {0}
    132c:	0b0b000f 	bleq	2c1370 <__bss_end__+0x2b7800>
    1330:	00001349 	andeq	r1, r0, r9, asr #6
    1334:	0301130f 	movweq	r1, #4879	; 0x130f
    1338:	3a0b0b0e 	bcc	2c3f78 <__bss_end__+0x2ba408>
    133c:	010b3b0b 	tsteq	fp, fp, lsl #22
    1340:	10000013 	andne	r0, r0, r3, lsl r0
    1344:	0803000d 	stmdaeq	r3, {r0, r2, r3}
    1348:	0b3b0b3a 	bleq	ec4038 <__bss_end__+0xeba4c8>
    134c:	0b381349 	bleq	e06078 <__bss_end__+0xdfc508>
    1350:	13110000 	tstne	r1, #0
    1354:	0b0e0301 	bleq	381f60 <__bss_end__+0x3783f0>
    1358:	3b0b3a05 	blcc	2cfb74 <__bss_end__+0x2c6004>
    135c:	0013010b 	andseq	r0, r3, fp, lsl #2
    1360:	000d1200 	andeq	r1, sp, r0, lsl #4
    1364:	0b3a0e03 	bleq	e84b78 <__bss_end__+0xe7b008>
    1368:	13490b3b 	movtne	r0, #39739	; 0x9b3b
    136c:	00000538 	andeq	r0, r0, r8, lsr r5
    1370:	27001513 	smladcs	r0, r3, r5, r1
    1374:	14000019 	strne	r0, [r0], #-25
    1378:	19270115 	stmdbne	r7!, {r0, r2, r4, r8}
    137c:	13011349 	movwne	r1, #4937	; 0x1349
    1380:	05150000 	ldreq	r0, [r5, #-0]
    1384:	00134900 	andseq	r4, r3, r0, lsl #18
    1388:	01131600 	tsteq	r3, r0, lsl #12
    138c:	050b0e03 	streq	r0, [fp, #-3587]	; 0xe03
    1390:	053b0b3a 	ldreq	r0, [fp, #-2874]!	; 0xb3a
    1394:	00001301 	andeq	r1, r0, r1, lsl #6
    1398:	03000d17 	movweq	r0, #3351	; 0xd17
    139c:	3b0b3a0e 	blcc	2cfbdc <__bss_end__+0x2c606c>
    13a0:	38134905 	ldmdacc	r3, {r0, r2, r8, fp, lr}
    13a4:	1800000b 	stmdane	r0, {r0, r1, r3}
    13a8:	0e03000d 	cdpeq	0, 0, cr0, cr3, cr13, {0}
    13ac:	053b0b3a 	ldreq	r0, [fp, #-2874]!	; 0xb3a
    13b0:	05381349 	ldreq	r1, [r8, #-841]!	; 0x349
    13b4:	13190000 	tstne	r9, #0
    13b8:	0b0e0301 	bleq	381fc4 <__bss_end__+0x378454>
    13bc:	3b0b3a0b 	blcc	2cfbf0 <__bss_end__+0x2c6080>
    13c0:	00130105 	andseq	r0, r3, r5, lsl #2
    13c4:	01131a00 	tsteq	r3, r0, lsl #20
    13c8:	0b3a0b0b 	bleq	e83ffc <__bss_end__+0xe7a48c>
    13cc:	1301053b 	movwne	r0, #5435	; 0x153b
    13d0:	171b0000 	ldrne	r0, [fp, -r0]
    13d4:	3a0b0b01 	bcc	2c3fe0 <__bss_end__+0x2ba470>
    13d8:	01053b0b 	tsteq	r5, fp, lsl #22
    13dc:	1c000013 	stcne	0, cr0, [r0], {19}
    13e0:	0e03000d 	cdpeq	0, 0, cr0, cr3, cr13, {0}
    13e4:	053b0b3a 	ldreq	r0, [fp, #-2874]!	; 0xb3a
    13e8:	00001349 	andeq	r1, r0, r9, asr #6
    13ec:	2701151d 	smladcs	r1, sp, r5, r1
    13f0:	00130119 	andseq	r0, r3, r9, lsl r1
    13f4:	00341e00 	eorseq	r1, r4, r0, lsl #28
    13f8:	0b3a0e03 	bleq	e84c0c <__bss_end__+0xe7b09c>
    13fc:	1349053b 	movtne	r0, #38203	; 0x953b
    1400:	193c193f 	ldmdbne	ip!, {r0, r1, r2, r3, r4, r5, r8, fp, ip}
    1404:	341f0000 	ldrcc	r0, [pc], #-0	; 140c <__code_start__-0x6bf4>
    1408:	3a0e0300 	bcc	382010 <__bss_end__+0x3784a0>
    140c:	490b3b0b 	stmdbmi	fp, {r0, r1, r3, r8, r9, fp, ip, sp}
    1410:	3c193f13 	ldccc	15, cr3, [r9], {19}
    1414:	20000019 	andcs	r0, r0, r9, lsl r0
    1418:	0b0b0104 	bleq	2c1830 <__bss_end__+0x2b7cc0>
    141c:	0b3a1349 	bleq	e86148 <__bss_end__+0xe7c5d8>
    1420:	13010b3b 	movwne	r0, #6971	; 0x1b3b
    1424:	28210000 	stmdacs	r1!, {}	; <UNPREDICTABLE>
    1428:	1c0e0300 	stcne	3, cr0, [lr], {-0}
    142c:	2200000b 	andcs	r0, r0, #11
    1430:	0e030034 	mcreq	0, 0, r0, cr3, cr4, {1}
    1434:	0b3b0b3a 	bleq	ec4124 <__bss_end__+0xeba5b4>
    1438:	061c1349 	ldreq	r1, [ip], -r9, asr #6
    143c:	2e230000 	cdpcs	0, 2, cr0, cr3, cr0, {0}
    1440:	03193f01 	tsteq	r9, #1, 30
    1444:	3b0b3a0e 	blcc	2cfc84 <__bss_end__+0x2c6114>
    1448:	4919270b 	ldmdbmi	r9, {r0, r1, r3, r8, r9, sl, sp}
    144c:	12011113 	andne	r1, r1, #-1073741820	; 0xc0000004
    1450:	97184006 	ldrls	r4, [r8, -r6]
    1454:	13011942 	movwne	r1, #6466	; 0x1942
    1458:	05240000 	streq	r0, [r4, #-0]!
    145c:	3a080300 	bcc	202064 <__bss_end__+0x1f84f4>
    1460:	490b3b0b 	stmdbmi	fp, {r0, r1, r3, r8, r9, fp, ip, sp}
    1464:	00170213 	andseq	r0, r7, r3, lsl r2
    1468:	00342500 	eorseq	r2, r4, r0, lsl #10
    146c:	0b3a0e03 	bleq	e84c80 <__bss_end__+0xe7b110>
    1470:	13490b3b 	movtne	r0, #39739	; 0x9b3b
    1474:	00001702 	andeq	r1, r0, r2, lsl #14
    1478:	03003426 	movweq	r3, #1062	; 0x426
    147c:	3b0b3a08 	blcc	2cfca4 <__bss_end__+0x2c6134>
    1480:	0213490b 	andseq	r4, r3, #180224	; 0x2c000
    1484:	27000017 	smladcs	r0, r7, r0, r0
    1488:	01018289 	smlabbeq	r1, r9, r2, r8
    148c:	13310111 	teqne	r1, #1073741828	; 0x40000004
    1490:	8a280000 	bhi	a01498 <__bss_end__+0x9f7928>
    1494:	02000182 	andeq	r0, r0, #-2147483616	; 0x80000020
    1498:	18429118 	stmdane	r2, {r3, r4, r8, ip, pc}^
    149c:	2e290000 	cdpcs	0, 2, cr0, cr9, cr0, {0}
    14a0:	03193f01 	tsteq	r9, #1, 30
    14a4:	3b0b3a0e 	blcc	2cfce4 <__bss_end__+0x2c6174>
    14a8:	1119270b 	tstne	r9, fp, lsl #14
    14ac:	40061201 	andmi	r1, r6, r1, lsl #4
    14b0:	19429718 	stmdbne	r2, {r3, r4, r8, r9, sl, ip, pc}^
    14b4:	00001301 	andeq	r1, r0, r1, lsl #6
    14b8:	0182892a 	orreq	r8, r2, sl, lsr #18
    14bc:	31011101 	tstcc	r1, r1, lsl #2
    14c0:	00130113 	andseq	r0, r3, r3, lsl r1
    14c4:	82892b00 	addhi	r2, r9, #0, 22
    14c8:	01110001 	tsteq	r1, r1
    14cc:	00001331 	andeq	r1, r0, r1, lsr r3
    14d0:	0300052c 	movweq	r0, #1324	; 0x52c
    14d4:	3b0b3a0e 	blcc	2cfd14 <__bss_end__+0x2c61a4>
    14d8:	0213490b 	andseq	r4, r3, #180224	; 0x2c000
    14dc:	2d000017 	stccs	0, cr0, [r0, #-92]	; 0xffffffa4
    14e0:	08030034 	stmdaeq	r3, {r2, r4, r5}
    14e4:	0b3b0b3a 	bleq	ec41d4 <__bss_end__+0xeba664>
    14e8:	18021349 	stmdane	r2, {r0, r3, r6, r8, r9, ip}
    14ec:	2e2e0000 	cdpcs	0, 2, cr0, cr14, cr0, {0}
    14f0:	3c193f00 	ldccc	15, cr3, [r9], {-0}
    14f4:	030e6e19 	movweq	r6, #60953	; 0xee19
    14f8:	3b0b3a0e 	blcc	2cfd38 <__bss_end__+0x2c61c8>
    14fc:	0000000b 	andeq	r0, r0, fp
    1500:	25011101 	strcs	r1, [r1, #-257]	; 0x101
    1504:	030b130e 	movweq	r1, #45838	; 0xb30e
    1508:	110e1b0e 	tstne	lr, lr, lsl #22
    150c:	10061201 	andne	r1, r6, r1, lsl #4
    1510:	02000017 	andeq	r0, r0, #23
    1514:	0b0b0024 	bleq	2c15ac <__bss_end__+0x2b7a3c>
    1518:	08030b3e 	stmdaeq	r3, {r1, r2, r3, r4, r5, r8, r9, fp}
    151c:	24030000 	strcs	r0, [r3], #-0
    1520:	3e0b0b00 	vmlacc.f64	d0, d11, d0
    1524:	000e030b 	andeq	r0, lr, fp, lsl #6
    1528:	012e0400 	teqeq	lr, r0, lsl #8
    152c:	0b3a0e03 	bleq	e84d40 <__bss_end__+0xe7b1d0>
    1530:	19270b3b 	stmdbne	r7!, {r0, r1, r3, r4, r5, r8, r9, fp}
    1534:	01111349 	tsteq	r1, r9, asr #6
    1538:	18400612 	stmdane	r0, {r1, r4, r9, sl}^
    153c:	01194297 			; <UNDEFINED> instruction: 0x01194297
    1540:	05000013 	streq	r0, [r0, #-19]
    1544:	08030005 	stmdaeq	r3, {r0, r2}
    1548:	0b3b0b3a 	bleq	ec4238 <__bss_end__+0xeba6c8>
    154c:	17021349 	strne	r1, [r2, -r9, asr #6]
    1550:	89060000 	stmdbhi	r6, {}	; <UNPREDICTABLE>
    1554:	11010182 	smlabbne	r1, r2, r1, r0
    1558:	00133101 	andseq	r3, r3, r1, lsl #2
    155c:	828a0700 	addhi	r0, sl, #0, 14
    1560:	18020001 	stmdane	r2, {r0}
    1564:	00184291 	mulseq	r8, r1, r2
    1568:	002e0800 	eoreq	r0, lr, r0, lsl #16
    156c:	0e03193f 	mcreq	9, 0, r1, cr3, cr15, {1}
    1570:	0b3b0b3a 	bleq	ec4260 <__bss_end__+0xeba6f0>
    1574:	01111927 	tsteq	r1, r7, lsr #18
    1578:	18400612 	stmdane	r0, {r1, r4, r9, sl}^
    157c:	00194297 	mulseq	r9, r7, r2
    1580:	012e0900 	teqeq	lr, r0, lsl #18
    1584:	0e03193f 	mcreq	9, 0, r1, cr3, cr15, {1}
    1588:	0b3b0b3a 	bleq	ec4278 <__bss_end__+0xeba708>
    158c:	01111927 	tsteq	r1, r7, lsr #18
    1590:	18400612 	stmdane	r0, {r1, r4, r9, sl}^
    1594:	01194297 			; <UNDEFINED> instruction: 0x01194297
    1598:	0a000013 	beq	15ec <__code_start__-0x6a14>
    159c:	08030005 	stmdaeq	r3, {r0, r2}
    15a0:	0b3b0b3a 	bleq	ec4290 <__bss_end__+0xeba720>
    15a4:	18021349 	stmdane	r2, {r0, r3, r6, r8, r9, ip}
    15a8:	150b0000 	strne	r0, [fp, #-0]
    15ac:	49192701 	ldmdbmi	r9, {r0, r8, r9, sl, sp}
    15b0:	00130113 	andseq	r0, r3, r3, lsl r1
    15b4:	00050c00 	andeq	r0, r5, r0, lsl #24
    15b8:	00001349 	andeq	r1, r0, r9, asr #6
    15bc:	0b000f0d 	bleq	51f8 <__code_start__-0x2e08>
    15c0:	0013490b 	andseq	r4, r3, fp, lsl #18
    15c4:	00340e00 	eorseq	r0, r4, r0, lsl #28
    15c8:	0b3a0e03 	bleq	e84ddc <__bss_end__+0xe7b26c>
    15cc:	13490b3b 	movtne	r0, #39739	; 0x9b3b
    15d0:	1802193f 	stmdane	r2, {r0, r1, r2, r3, r4, r5, r8, fp, ip}
    15d4:	2e0f0000 	cdpcs	0, 0, cr0, cr15, cr0, {0}
    15d8:	03193f01 	tsteq	r9, #1, 30
    15dc:	3b0b3a0e 	blcc	2cfe1c <__bss_end__+0x2c62ac>
    15e0:	3c19270b 	ldccc	7, cr2, [r9], {11}
    15e4:	00000019 	andeq	r0, r0, r9, lsl r0

Disassembly of section .debug_loc:

00000000 <.debug_loc>:
   0:	00000000 	andeq	r0, r0, r0
   4:	00000007 	andeq	r0, r0, r7
   8:	07500001 	ldrbeq	r0, [r0, -r1]
   c:	78000000 	stmdavc	r0, {}	; <UNPREDICTABLE>
  10:	04000000 	streq	r0, [r0], #-0
  14:	5001f300 	andpl	pc, r1, r0, lsl #6
  18:	0000009f 	muleq	r0, pc, r0	; <UNPREDICTABLE>
  1c:	00000000 	andeq	r0, r0, r0
  20:	00001000 	andeq	r1, r0, r0
  24:	00001c00 	andeq	r1, r0, r0, lsl #24
  28:	50000100 	andpl	r0, r0, r0, lsl #2
	...
  34:	000000bc 	strheq	r0, [r0], -ip
  38:	000000cc 	andeq	r0, r0, ip, asr #1
  3c:	cc500001 	mrrcgt	0, 0, r0, r0, cr1	; <UNPREDICTABLE>
  40:	04000000 	streq	r0, [r0], #-0
  44:	01000001 	tsteq	r0, r1
  48:	00005700 	andeq	r5, r0, r0, lsl #14
  4c:	00000000 	andeq	r0, r0, r0
  50:	00bc0000 	adcseq	r0, ip, r0
  54:	00cc0000 	sbceq	r0, ip, r0
  58:	00020000 	andeq	r0, r2, r0
  5c:	00cc9f30 	sbceq	r9, ip, r0, lsr pc
  60:	01bc0000 			; <UNDEFINED> instruction: 0x01bc0000
  64:	00010000 	andeq	r0, r1, r0
  68:	00000055 	andeq	r0, r0, r5, asr r0
  6c:	00000000 	andeq	r0, r0, r0
  70:	00010000 	andeq	r0, r1, r0
  74:	00013800 	andeq	r3, r1, r0, lsl #16
  78:	50000100 	andpl	r0, r0, r0, lsl #2
	...
  84:	0000010c 	andeq	r0, r0, ip, lsl #2
  88:	00000264 	andeq	r0, r0, r4, ror #4
  8c:	00570001 	subseq	r0, r7, r1
  90:	00000000 	andeq	r0, r0, r0
  94:	2c000000 	stccs	0, cr0, [r0], {-0}
  98:	c8000001 	stmdagt	r0, {r0}
  9c:	01000001 	tsteq	r0, r1
  a0:	00005400 	andeq	r5, r0, r0, lsl #8
  a4:	00000000 	andeq	r0, r0, r0
  a8:	01340000 	teqeq	r4, r0
  ac:	02640000 	rsbeq	r0, r4, #0
  b0:	00010000 	andeq	r0, r1, r0
  b4:	00000056 	andeq	r0, r0, r6, asr r0
  b8:	00000000 	andeq	r0, r0, r0
  bc:	00001c00 	andeq	r1, r0, r0, lsl #24
  c0:	00002700 	andeq	r2, r0, r0, lsl #14
  c4:	50000100 	andpl	r0, r0, r0, lsl #2
  c8:	00000027 	andeq	r0, r0, r7, lsr #32
  cc:	0000005c 	andeq	r0, r0, ip, asr r0
  d0:	00540001 	subseq	r0, r4, r1
  d4:	00000000 	andeq	r0, r0, r0
  d8:	2c000000 	stccs	0, cr0, [r0], {-0}
  dc:	38000000 	stmdacc	r0, {}	; <UNPREDICTABLE>
  e0:	01000000 	mrseq	r0, (UNDEF: 0)
  e4:	00385000 	eorseq	r5, r8, r0
  e8:	00480000 	subeq	r0, r8, r0
  ec:	00010000 	andeq	r0, r1, r0
  f0:	00004855 	andeq	r4, r0, r5, asr r8
  f4:	00005800 	andeq	r5, r0, r0, lsl #16
  f8:	50000100 	andpl	r0, r0, r0, lsl #2
	...
 108:	00000010 	andeq	r0, r0, r0, lsl r0
 10c:	10500001 	subsne	r0, r0, r1
 110:	34000000 	strcc	r0, [r0], #-0
 114:	01000000 	mrseq	r0, (UNDEF: 0)
 118:	00005400 	andeq	r5, r0, r0, lsl #8
	...
 124:	00040000 	andeq	r0, r4, r0
 128:	00010000 	andeq	r0, r1, r0
 12c:	00000450 	andeq	r0, r0, r0, asr r4
 130:	00000c00 	andeq	r0, r0, r0, lsl #24
 134:	70000300 	andvc	r0, r0, r0, lsl #6
 138:	000c9f30 	andeq	r9, ip, r0, lsr pc
 13c:	00140000 	andseq	r0, r4, r0
 140:	00040000 	andeq	r0, r4, r0
 144:	9f5001f3 	svcls	0x005001f3
	...
 150:	00000014 	andeq	r0, r0, r4, lsl r0
 154:	00000020 	andeq	r0, r0, r0, lsr #32
 158:	20500001 	subscs	r0, r0, r1
 15c:	2c000000 	stccs	0, cr0, [r0], {-0}
 160:	03000000 	movweq	r0, #0
 164:	9f017000 	svcls	0x00017000
 168:	0000002c 	andeq	r0, r0, ip, lsr #32
 16c:	00000040 	andeq	r0, r0, r0, asr #32
 170:	00500001 	subseq	r0, r0, r1
 174:	00000000 	andeq	r0, r0, r0
 178:	14000000 	strne	r0, [r0], #-0
 17c:	18000000 	stmdane	r0, {}	; <UNPREDICTABLE>
 180:	01000000 	mrseq	r0, (UNDEF: 0)
 184:	00185100 	andseq	r5, r8, r0, lsl #2
 188:	00400000 	subeq	r0, r0, r0
 18c:	00040000 	andeq	r0, r4, r0
 190:	9f5101f3 	svcls	0x005101f3
	...
 19c:	00000040 	andeq	r0, r0, r0, asr #32
 1a0:	00000060 	andeq	r0, r0, r0, rrx
 1a4:	60500001 	subsvs	r0, r0, r1
 1a8:	6c000000 	stcvs	0, cr0, [r0], {-0}
 1ac:	03000000 	movweq	r0, #0
 1b0:	9f017100 	svcls	0x00017100
 1b4:	0000006c 	andeq	r0, r0, ip, rrx
 1b8:	00000074 	andeq	r0, r0, r4, ror r0
 1bc:	74510001 	ldrbvc	r0, [r1], #-1
 1c0:	80000000 	andhi	r0, r0, r0
 1c4:	03000000 	movweq	r0, #0
 1c8:	9f017100 	svcls	0x00017100
	...
 1d4:	00000040 	andeq	r0, r0, r0, asr #32
 1d8:	00000050 	andeq	r0, r0, r0, asr r0
 1dc:	50510001 	subspl	r0, r1, r1
 1e0:	80000000 	andhi	r0, r0, r0
 1e4:	04000000 	streq	r0, [r0], #-0
 1e8:	5101f300 	mrspl	pc, SP_irq	; <UNPREDICTABLE>
 1ec:	0000009f 	muleq	r0, pc, r0	; <UNPREDICTABLE>
 1f0:	00000000 	andeq	r0, r0, r0
 1f4:	00004000 	andeq	r4, r0, r0
 1f8:	00005800 	andeq	r5, r0, r0, lsl #16
 1fc:	52000100 	andpl	r0, r0, #0, 2
 200:	00000058 	andeq	r0, r0, r8, asr r0
 204:	00000064 	andeq	r0, r0, r4, rrx
 208:	64520001 	ldrbvs	r0, [r2], #-1
 20c:	68000000 	stmdavs	r0, {}	; <UNPREDICTABLE>
 210:	03000000 	movweq	r0, #0
 214:	9f017200 	svcls	0x00017200
 218:	00000068 	andeq	r0, r0, r8, rrx
 21c:	00000080 	andeq	r0, r0, r0, lsl #1
 220:	00520001 	subseq	r0, r2, r1
 224:	00000000 	andeq	r0, r0, r0
 228:	40000000 	andmi	r0, r0, r0
 22c:	54000000 	strpl	r0, [r0], #-0
 230:	01000000 	mrseq	r0, (UNDEF: 0)
 234:	00545300 	subseq	r5, r4, r0, lsl #6
 238:	00780000 	rsbseq	r0, r8, r0
 23c:	00010000 	andeq	r0, r1, r0
 240:	00000053 	andeq	r0, r0, r3, asr r0
 244:	00000000 	andeq	r0, r0, r0
 248:	00004800 	andeq	r4, r0, r0, lsl #16
 24c:	00006000 	andeq	r6, r0, r0
 250:	5c000100 	stfpls	f0, [r0], {-0}
 254:	00000060 	andeq	r0, r0, r0, rrx
 258:	00000080 	andeq	r0, r0, r0, lsl #1
 25c:	01f3000a 	mvnseq	r0, sl
 260:	5301f352 	movwpl	pc, #4946	; 0x1352	; <UNPREDICTABLE>
 264:	9f01231c 	svcls	0x0001231c
	...
 270:	00000080 	andeq	r0, r0, r0, lsl #1
 274:	000000a4 	andeq	r0, r0, r4, lsr #1
 278:	a4500001 	ldrbge	r0, [r0], #-1
 27c:	18000000 	stmdane	r0, {}	; <UNPREDICTABLE>
 280:	03000001 	movweq	r0, #1
 284:	9f027000 	svcls	0x00027000
 288:	00000118 	andeq	r0, r0, r8, lsl r1
 28c:	0000023c 	andeq	r0, r0, ip, lsr r2
 290:	01f30004 	mvnseq	r0, r4
 294:	00009f50 	andeq	r9, r0, r0, asr pc
 298:	00000000 	andeq	r0, r0, r0
 29c:	00800000 	addeq	r0, r0, r0
 2a0:	00f00000 	rscseq	r0, r0, r0
 2a4:	00010000 	andeq	r0, r1, r0
 2a8:	0000f051 	andeq	pc, r0, r1, asr r0	; <UNPREDICTABLE>
 2ac:	00016000 	andeq	r6, r1, r0
 2b0:	55000100 	strpl	r0, [r0, #-256]	; 0x100
 2b4:	00000160 	andeq	r0, r0, r0, ror #2
 2b8:	0000016c 	andeq	r0, r0, ip, ror #2
 2bc:	6c510001 	mrrcvs	0, 0, r0, r1, cr1
 2c0:	a0000001 	andge	r0, r0, r1
 2c4:	01000001 	tsteq	r0, r1
 2c8:	01a05500 	lsleq	r5, r0, #10
 2cc:	01b40000 			; <UNDEFINED> instruction: 0x01b40000
 2d0:	00010000 	andeq	r0, r1, r0
 2d4:	0001b451 	andeq	fp, r1, r1, asr r4
 2d8:	0001d400 	andeq	sp, r1, r0, lsl #8
 2dc:	55000100 	strpl	r0, [r0, #-256]	; 0x100
 2e0:	000001d4 	ldrdeq	r0, [r0], -r4
 2e4:	000001d7 	ldrdeq	r0, [r0], -r7
 2e8:	d7510001 	ldrble	r0, [r1, -r1]
 2ec:	1c000001 	stcne	0, cr0, [r0], {1}
 2f0:	01000002 	tsteq	r0, r2
 2f4:	021c5500 	andseq	r5, ip, #0, 10
 2f8:	023c0000 	eorseq	r0, ip, #0
 2fc:	00040000 	andeq	r0, r4, r0
 300:	9f5101f3 	svcls	0x005101f3
	...
 30c:	00000080 	andeq	r0, r0, r0, lsl #1
 310:	00000094 	muleq	r0, r4, r0
 314:	94520001 	ldrbls	r0, [r2], #-1
 318:	1c000000 	stcne	0, cr0, [r0], {-0}
 31c:	01000002 	tsteq	r0, r2
 320:	021c5400 	andseq	r5, ip, #0, 8
 324:	023c0000 	eorseq	r0, ip, #0
 328:	00040000 	andeq	r0, r4, r0
 32c:	9f5201f3 	svcls	0x005201f3
	...
 338:	00000080 	andeq	r0, r0, r0, lsl #1
 33c:	00000100 	andeq	r0, r0, r0, lsl #2
 340:	04530001 	ldrbeq	r0, [r3], #-1
 344:	08000001 	stmdaeq	r0, {r0}
 348:	01000001 	tsteq	r0, r1
 34c:	01605300 	cmneq	r0, r0, lsl #6
 350:	01640000 	cmneq	r4, r0
 354:	00010000 	andeq	r0, r1, r0
 358:	00016453 	andeq	r6, r1, r3, asr r4
 35c:	00016c00 	andeq	r6, r1, r0, lsl #24
 360:	5c000100 	stfpls	f0, [r0], {-0}
 364:	0000016c 	andeq	r0, r0, ip, ror #2
 368:	000001a0 	andeq	r0, r0, r0, lsr #3
 36c:	01f30004 	mvnseq	r0, r4
 370:	01a09f53 	asreq	r9, r3, pc
 374:	01b00000 	movseq	r0, r0
 378:	00010000 	andeq	r0, r1, r0
 37c:	0001b053 	andeq	fp, r1, r3, asr r0
 380:	0001b400 	andeq	fp, r1, r0, lsl #8
 384:	5c000100 	stfpls	f0, [r0], {-0}
 388:	000001b4 			; <UNDEFINED> instruction: 0x000001b4
 38c:	000001d4 	ldrdeq	r0, [r0], -r4
 390:	01f30004 	mvnseq	r0, r4
 394:	01d49f53 	bicseq	r9, r4, r3, asr pc
 398:	01d70000 	bicseq	r0, r7, r0
 39c:	00010000 	andeq	r0, r1, r0
 3a0:	0001d753 	andeq	sp, r1, r3, asr r7
 3a4:	0001f800 	andeq	pc, r1, r0, lsl #16
 3a8:	f3000400 	vshl.u8	d0, d0, d0
 3ac:	009f5301 	addseq	r5, pc, r1, lsl #6
 3b0:	00000000 	andeq	r0, r0, r0
 3b4:	80000000 	andhi	r0, r0, r0
 3b8:	9c000000 	stcls	0, cr0, [r0], {-0}
 3bc:	02000000 	andeq	r0, r0, #0
 3c0:	9c009100 	stflsd	f1, [r0], {-0}
 3c4:	d7000000 	strle	r0, [r0, -r0]
 3c8:	01000001 	tsteq	r0, r1
 3cc:	01f85200 	mvnseq	r5, r0, lsl #4
 3d0:	01ff0000 	mvnseq	r0, r0
 3d4:	00010000 	andeq	r0, r1, r0
 3d8:	00000052 	andeq	r0, r0, r2, asr r0
 3dc:	00000000 	andeq	r0, r0, r0
 3e0:	00009c00 	andeq	r9, r0, r0, lsl #24
 3e4:	00010c00 	andeq	r0, r1, r0, lsl #24
 3e8:	91000400 	tstls	r0, r0, lsl #8
 3ec:	0c9f7fa0 	ldceq	15, cr7, [pc], {160}	; 0xa0
 3f0:	18000001 	stmdane	r0, {r0}
 3f4:	01000001 	tsteq	r0, r1
 3f8:	01185100 	tsteq	r8, r0, lsl #2
 3fc:	011c0000 	tsteq	ip, r0
 400:	00010000 	andeq	r0, r1, r0
 404:	00011c50 	andeq	r1, r1, r0, asr ip
 408:	00012000 	andeq	r2, r1, r0
 40c:	51000100 	mrspl	r0, (UNDEF: 16)
 410:	00000120 	andeq	r0, r0, r0, lsr #2
 414:	00000160 	andeq	r0, r0, r0, ror #2
 418:	60500001 	subsvs	r0, r0, r1
 41c:	64000001 	strvs	r0, [r0], #-1
 420:	04000001 	streq	r0, [r0], #-1
 424:	7fa09100 	svcvc	0x00a09100
 428:	0001649f 	muleq	r1, pc, r4	; <UNPREDICTABLE>
 42c:	00016c00 	andeq	r6, r1, r0, lsl #24
 430:	53000100 	movwpl	r0, #256	; 0x100
 434:	0000016c 	andeq	r0, r0, ip, ror #2
 438:	00000170 	andeq	r0, r0, r0, ror r1
 43c:	70500001 	subsvc	r0, r0, r1
 440:	74000001 	strvc	r0, [r0], #-1
 444:	01000001 	tsteq	r0, r1
 448:	01745300 	cmneq	r4, r0, lsl #6
 44c:	01880000 	orreq	r0, r8, r0
 450:	00010000 	andeq	r0, r1, r0
 454:	00018850 	andeq	r8, r1, r0, asr r8
 458:	00019400 	andeq	r9, r1, r0, lsl #8
 45c:	70000300 	andvc	r0, r0, r0, lsl #6
 460:	01949f01 	orrseq	r9, r4, r1, lsl #30
 464:	01a00000 	moveq	r0, r0
 468:	00010000 	andeq	r0, r1, r0
 46c:	0001a050 	andeq	sl, r1, r0, asr r0
 470:	0001a800 	andeq	sl, r1, r0, lsl #16
 474:	91000400 	tstls	r0, r0, lsl #8
 478:	a89f7fa1 	ldmge	pc, {r0, r5, r7, r8, r9, sl, fp, ip, sp, lr}	; <UNPREDICTABLE>
 47c:	ac000001 	stcge	0, cr0, [r0], {1}
 480:	01000001 	tsteq	r0, r1
 484:	01ac5000 			; <UNDEFINED> instruction: 0x01ac5000
 488:	01b00000 	movseq	r0, r0
 48c:	00040000 	andeq	r0, r4, r0
 490:	9f7fa091 	svcls	0x007fa091
 494:	000001b0 			; <UNDEFINED> instruction: 0x000001b0
 498:	000001b8 			; <UNDEFINED> instruction: 0x000001b8
 49c:	b8530001 	ldmdalt	r3, {r0}^
 4a0:	d4000001 	strle	r0, [r0], #-1
 4a4:	01000001 	tsteq	r0, r1
 4a8:	01d45000 	bicseq	r5, r4, r0
 4ac:	01f80000 	mvnseq	r0, r0
 4b0:	00040000 	andeq	r0, r4, r0
 4b4:	9f7fa091 	svcls	0x007fa091
 4b8:	000001f8 	strdeq	r0, [r0], -r8
 4bc:	000001ff 	strdeq	r0, [r0], -pc	; <UNPREDICTABLE>
 4c0:	00500001 	subseq	r0, r0, r1
 4c4:	00000000 	andeq	r0, r0, r0
 4c8:	a0000000 	andge	r0, r0, r0
 4cc:	ec000000 	stc	0, cr0, [r0], {-0}
 4d0:	01000000 	mrseq	r0, (UNDEF: 0)
 4d4:	00ec5c00 	rsceq	r5, ip, r0, lsl #24
 4d8:	01000000 	mrseq	r0, (UNDEF: 0)
 4dc:	00010000 	andeq	r0, r1, r0
 4e0:	00010053 	andeq	r0, r1, r3, asr r0
 4e4:	00010400 	andeq	r0, r1, r0, lsl #8
 4e8:	5c000100 	stfpls	f0, [r0], {-0}
 4ec:	00000104 	andeq	r0, r0, r4, lsl #2
 4f0:	00000108 	andeq	r0, r0, r8, lsl #2
 4f4:	08530001 	ldmdaeq	r3, {r0}^
 4f8:	60000001 	andvs	r0, r0, r1
 4fc:	01000001 	tsteq	r0, r1
 500:	01605c00 	cmneq	r0, r0, lsl #24
 504:	01640000 	cmneq	r4, r0
 508:	00010000 	andeq	r0, r1, r0
 50c:	00016453 	andeq	r6, r1, r3, asr r4
 510:	00018000 	andeq	r8, r1, r0
 514:	5c000100 	stfpls	f0, [r0], {-0}
 518:	00000180 	andeq	r0, r0, r0, lsl #3
 51c:	00000184 	andeq	r0, r0, r4, lsl #3
 520:	007c0005 	rsbseq	r0, ip, r5
 524:	849f2534 	ldrhi	r2, [pc], #1332	; 52c <__code_start__-0x7ad4>
 528:	a0000001 	andge	r0, r0, r1
 52c:	01000001 	tsteq	r0, r1
 530:	01a05c00 	lsleq	r5, r0, #24
 534:	01b00000 	movseq	r0, r0
 538:	00010000 	andeq	r0, r1, r0
 53c:	0001b053 	andeq	fp, r1, r3, asr r0
 540:	0001c400 	andeq	ip, r1, r0, lsl #8
 544:	5c000100 	stfpls	f0, [r0], {-0}
 548:	000001c4 	andeq	r0, r0, r4, asr #3
 54c:	000001cc 	andeq	r0, r0, ip, asr #3
 550:	007c0005 	rsbseq	r0, ip, r5
 554:	cc9f2531 	cfldr32gt	mvfx2, [pc], {49}	; 0x31
 558:	d4000001 	strle	r0, [r0], #-1
 55c:	01000001 	tsteq	r0, r1
 560:	01d45c00 	bicseq	r5, r4, r0, lsl #24
 564:	01d70000 	bicseq	r0, r7, r0
 568:	00010000 	andeq	r0, r1, r0
 56c:	0001d753 	andeq	sp, r1, r3, asr r7
 570:	0001f800 	andeq	pc, r1, r0, lsl #16
 574:	f3000400 	vshl.u8	d0, d0, d0
 578:	f89f5301 			; <UNDEFINED> instruction: 0xf89f5301
 57c:	ff000001 			; <UNDEFINED> instruction: 0xff000001
 580:	01000001 	tsteq	r0, r1
 584:	00005c00 	andeq	r5, r0, r0, lsl #24
 588:	00000000 	andeq	r0, r0, r0
 58c:	00ec0000 	rsceq	r0, ip, r0
 590:	00fc0000 	rscseq	r0, ip, r0
 594:	00020000 	andeq	r0, r2, r0
 598:	00fc9f30 	rscseq	r9, ip, r0, lsr pc
 59c:	01040000 	mrseq	r0, (UNDEF: 4)
 5a0:	00020000 	andeq	r0, r2, r0
 5a4:	01049f31 	tsteq	r4, r1, lsr pc
 5a8:	01080000 	mrseq	r0, (UNDEF: 8)
 5ac:	00020000 	andeq	r0, r2, r0
 5b0:	00009f30 	andeq	r9, r0, r0, lsr pc
 5b4:	00000000 	andeq	r0, r0, r0
 5b8:	023c0000 	eorseq	r0, ip, #0
 5bc:	024f0000 	subeq	r0, pc, #0
 5c0:	00010000 	andeq	r0, r1, r0
 5c4:	00024f50 	andeq	r4, r2, r0, asr pc
 5c8:	00027000 	andeq	r7, r2, r0
 5cc:	f3000400 	vshl.u8	d0, d0, d0
 5d0:	709f5001 	addsvc	r5, pc, r1
 5d4:	a4000002 	strge	r0, [r0], #-2
 5d8:	01000002 	tsteq	r0, r2
 5dc:	00005000 	andeq	r5, r0, r0
 5e0:	00000000 	andeq	r0, r0, r0
 5e4:	023c0000 	eorseq	r0, ip, #0
 5e8:	024f0000 	subeq	r0, pc, #0
 5ec:	00010000 	andeq	r0, r1, r0
 5f0:	00024f51 	andeq	r4, r2, r1, asr pc
 5f4:	00027000 	andeq	r7, r2, r0
 5f8:	f3000400 	vshl.u8	d0, d0, d0
 5fc:	709f5101 	addsvc	r5, pc, r1, lsl #2
 600:	a4000002 	strge	r0, [r0], #-2
 604:	01000002 	tsteq	r0, r2
 608:	00005100 	andeq	r5, r0, r0, lsl #2
 60c:	00000000 	andeq	r0, r0, r0
 610:	02a40000 	adceq	r0, r4, #0
 614:	02d40000 	sbcseq	r0, r4, #0
 618:	00010000 	andeq	r0, r1, r0
 61c:	0002d450 	andeq	sp, r2, r0, asr r4
 620:	00055800 	andeq	r5, r5, r0, lsl #16
 624:	5b000100 	blpl	a2c <__code_start__-0x75d4>
 628:	00000558 	andeq	r0, r0, r8, asr r5
 62c:	00000578 	andeq	r0, r0, r8, ror r5
 630:	01f30004 	mvnseq	r0, r4
 634:	00009f50 	andeq	r9, r0, r0, asr pc
 638:	00000000 	andeq	r0, r0, r0
 63c:	02a40000 	adceq	r0, r4, #0
 640:	02bc0000 	adcseq	r0, ip, #0
 644:	00010000 	andeq	r0, r1, r0
 648:	0002bc51 	andeq	fp, r2, r1, asr ip
 64c:	0002d400 	andeq	sp, r2, r0, lsl #8
 650:	71000300 	mrsvc	r0, LR_irq
 654:	02d49f01 	sbcseq	r9, r4, #1, 30
 658:	05780000 	ldrbeq	r0, [r8, #-0]!
 65c:	00040000 	andeq	r0, r4, r0
 660:	9f5101f3 	svcls	0x005101f3
	...
 66c:	000002a4 	andeq	r0, r0, r4, lsr #5
 670:	000002d4 	ldrdeq	r0, [r0], -r4
 674:	d4520001 	ldrble	r0, [r2], #-1
 678:	58000002 	stmdapl	r0, {r1}
 67c:	01000005 	tsteq	r0, r5
 680:	00005600 	andeq	r5, r0, r0, lsl #12
 684:	00000000 	andeq	r0, r0, r0
 688:	02a40000 	adceq	r0, r4, #0
 68c:	02c40000 	sbceq	r0, r4, #0
 690:	00010000 	andeq	r0, r1, r0
 694:	00000053 	andeq	r0, r0, r3, asr r0
 698:	00000000 	andeq	r0, r0, r0
 69c:	0002b800 	andeq	fp, r2, r0, lsl #16
 6a0:	0002d400 	andeq	sp, r2, r0, lsl #8
 6a4:	50000100 	andpl	r0, r0, r0, lsl #2
 6a8:	000002d4 	ldrdeq	r0, [r0], -r4
 6ac:	000002d8 	ldrdeq	r0, [r0], -r8
 6b0:	d8540001 	ldmdale	r4, {r0}^
 6b4:	e4000002 	str	r0, [r0], #-2
 6b8:	03000002 	movweq	r0, #2
 6bc:	9f017400 	svcls	0x00017400
 6c0:	000002e4 	andeq	r0, r0, r4, ror #5
 6c4:	000002f0 	strdeq	r0, [r0], -r0	; <UNPREDICTABLE>
 6c8:	f0540001 			; <UNDEFINED> instruction: 0xf0540001
 6cc:	fc000002 	stc2	0, cr0, [r0], {2}
 6d0:	03000002 	movweq	r0, #2
 6d4:	9f017400 	svcls	0x00017400
 6d8:	000002fc 	strdeq	r0, [r0], -ip
 6dc:	0000050c 	andeq	r0, r0, ip, lsl #10
 6e0:	0c540001 	mrrceq	0, 0, r0, r4, cr1
 6e4:	18000005 	stmdane	r0, {r0, r2}
 6e8:	03000005 	movweq	r0, #5
 6ec:	9f017400 	svcls	0x00017400
 6f0:	00000518 	andeq	r0, r0, r8, lsl r5
 6f4:	00000544 	andeq	r0, r0, r4, asr #10
 6f8:	44540001 	ldrbmi	r0, [r4], #-1
 6fc:	50000005 	andpl	r0, r0, r5
 700:	01000005 	tsteq	r0, r5
 704:	05505000 	ldrbeq	r5, [r0, #-0]
 708:	05580000 	ldrbeq	r0, [r8, #-0]
 70c:	00030000 	andeq	r0, r3, r0
 710:	009f0174 	addseq	r0, pc, r4, ror r1	; <UNPREDICTABLE>
 714:	00000000 	andeq	r0, r0, r0
 718:	c0000000 	andgt	r0, r0, r0
 71c:	58000002 	stmdapl	r0, {r1}
 720:	01000005 	tsteq	r0, r5
 724:	05585800 	ldrbeq	r5, [r8, #-2048]	; 0x800
 728:	05780000 	ldrbeq	r0, [r8, #-0]!
 72c:	000a0000 	andeq	r0, sl, r0
 730:	f35101f3 	vbsl	q8, <illegal reg q8.5>, <illegal reg q9.5>
 734:	31225001 	teqcc	r2, r1
 738:	00009f1c 	andeq	r9, r0, ip, lsl pc
 73c:	00000000 	andeq	r0, r0, r0
 740:	02c80000 	sbceq	r0, r8, #0
 744:	02d40000 	sbcseq	r0, r4, #0
 748:	00010000 	andeq	r0, r1, r0
 74c:	0002d452 	andeq	sp, r2, r2, asr r4
 750:	00057800 	andeq	r7, r5, r0, lsl #16
 754:	91000300 	mrsls	r0, LR_irq
 758:	00007ecc 	andeq	r7, r0, ip, asr #29
 75c:	00000000 	andeq	r0, r0, r0
 760:	04100000 	ldreq	r0, [r0], #-0
 764:	04140000 	ldreq	r0, [r4], #-0
 768:	00010000 	andeq	r0, r1, r0
 76c:	00043850 	andeq	r3, r4, r0, asr r8
 770:	00043c00 	andeq	r3, r4, r0, lsl #24
 774:	50000100 	andpl	r0, r0, r0, lsl #2
 778:	00000460 	andeq	r0, r0, r0, ror #8
 77c:	00000464 	andeq	r0, r0, r4, ror #8
 780:	88500001 	ldmdahi	r0, {r0}^
 784:	8c000004 	stchi	0, cr0, [r0], {4}
 788:	01000004 	tsteq	r0, r4
 78c:	04945000 	ldreq	r5, [r4], #0
 790:	04980000 	ldreq	r0, [r8], #0
 794:	00010000 	andeq	r0, r1, r0
 798:	0004bc50 	andeq	fp, r4, r0, asr ip
 79c:	0004c000 	andeq	ip, r4, r0
 7a0:	50000100 	andpl	r0, r0, r0, lsl #2
 7a4:	00000504 	andeq	r0, r0, r4, lsl #10
 7a8:	0000052c 	andeq	r0, r0, ip, lsr #10
 7ac:	00500001 	subseq	r0, r0, r1
 7b0:	00000000 	andeq	r0, r0, r0
 7b4:	04000000 	streq	r0, [r0], #-0
 7b8:	0c000003 	stceq	0, cr0, [r0], {3}
 7bc:	02000003 	andeq	r0, r0, #3
 7c0:	0c9f3000 	ldceq	0, cr3, [pc], {0}
 7c4:	10000003 	andne	r0, r0, r3
 7c8:	01000003 	tsteq	r0, r3
 7cc:	031c5700 	tsteq	ip, #0, 14
 7d0:	052c0000 	streq	r0, [ip, #-0]!
 7d4:	00010000 	andeq	r0, r1, r0
 7d8:	00000057 	andeq	r0, r0, r7, asr r0
 7dc:	00000000 	andeq	r0, r0, r0
 7e0:	00001400 	andeq	r1, r0, r0, lsl #8
 7e4:	00001c00 	andeq	r1, r0, r0, lsl #24
 7e8:	73000300 	movwvc	r0, #768	; 0x300
 7ec:	001c9f04 	andseq	r9, ip, r4, lsl #30
 7f0:	00270000 	eoreq	r0, r7, r0
 7f4:	00010000 	andeq	r0, r1, r0
 7f8:	00000053 	andeq	r0, r0, r3, asr r0
	...
 804:	00000f00 	andeq	r0, r0, r0, lsl #30
 808:	50000100 	andpl	r0, r0, r0, lsl #2
 80c:	0000000f 	andeq	r0, r0, pc
 810:	00000044 	andeq	r0, r0, r4, asr #32
 814:	00540001 	subseq	r0, r4, r1
	...
 820:	0f000000 	svceq	0x00000000
 824:	01000000 	mrseq	r0, (UNDEF: 0)
 828:	000f5000 	andeq	r5, pc, r0
 82c:	00440000 	subeq	r0, r4, r0
 830:	00010000 	andeq	r0, r1, r0
 834:	00000054 	andeq	r0, r0, r4, asr r0
	...
 840:	00000f00 	andeq	r0, r0, r0, lsl #30
 844:	50000100 	andpl	r0, r0, r0, lsl #2
 848:	0000000f 	andeq	r0, r0, pc
 84c:	00000044 	andeq	r0, r0, r4, asr #32
 850:	00540001 	subseq	r0, r4, r1
	...
 85c:	0f000000 	svceq	0x00000000
 860:	01000000 	mrseq	r0, (UNDEF: 0)
 864:	000f5000 	andeq	r5, pc, r0
 868:	00440000 	subeq	r0, r4, r0
 86c:	00010000 	andeq	r0, r1, r0
 870:	00000054 	andeq	r0, r0, r4, asr r0
	...
 87c:	00000f00 	andeq	r0, r0, r0, lsl #30
 880:	50000100 	andpl	r0, r0, r0, lsl #2
 884:	0000000f 	andeq	r0, r0, pc
 888:	00000044 	andeq	r0, r0, r4, asr #32
 88c:	00540001 	subseq	r0, r4, r1
	...
 898:	0f000000 	svceq	0x00000000
 89c:	01000000 	mrseq	r0, (UNDEF: 0)
 8a0:	000f5000 	andeq	r5, pc, r0
 8a4:	00440000 	subeq	r0, r4, r0
 8a8:	00010000 	andeq	r0, r1, r0
 8ac:	00000054 	andeq	r0, r0, r4, asr r0
 8b0:	00000000 	andeq	r0, r0, r0
 8b4:	00003400 	andeq	r3, r0, r0, lsl #8
 8b8:	00004000 	andeq	r4, r0, r0
 8bc:	30000200 	andcc	r0, r0, r0, lsl #4
 8c0:	0000409f 	muleq	r0, pc, r0	; <UNPREDICTABLE>
 8c4:	00006c00 	andeq	r6, r0, r0, lsl #24
 8c8:	53000100 	movwpl	r0, #256	; 0x100
	...
 8d4:	00008c5c 	andeq	r8, r0, ip, asr ip
 8d8:	00008c60 	andeq	r8, r0, r0, ror #24
 8dc:	9f300002 	svcls	0x00300002
 8e0:	00008c60 	andeq	r8, r0, r0, ror #24
 8e4:	00008c64 	andeq	r8, r0, r4, ror #24
 8e8:	00500001 	subseq	r0, r0, r1
 8ec:	00000000 	andeq	r0, r0, r0
 8f0:	74000000 	strvc	r0, [r0], #-0
 8f4:	7800008c 	stmdavc	r0, {r2, r3, r7}
 8f8:	0200008c 	andeq	r0, r0, #140	; 0x8c
 8fc:	789f3000 	ldmvc	pc, {ip, sp}	; <UNPREDICTABLE>
 900:	7c00008c 	stcvc	0, cr0, [r0], {140}	; 0x8c
 904:	0100008c 	smlabbeq	r0, ip, r0, r0
 908:	8c805300 	stchi	3, cr5, [r0], {0}
 90c:	8c880000 	stchi	0, cr0, [r8], {0}
 910:	00010000 	andeq	r0, r1, r0
 914:	00000053 	andeq	r0, r0, r3, asr r0
	...
 920:	00000400 	andeq	r0, r0, r0, lsl #8
 924:	50000100 	andpl	r0, r0, r0, lsl #2
 928:	00000004 	andeq	r0, r0, r4
 92c:	0000000c 	andeq	r0, r0, ip
 930:	0c530001 	mrrceq	0, 0, r0, r3, cr1
 934:	10000000 	andne	r0, r0, r0
 938:	01000000 	mrseq	r0, (UNDEF: 0)
 93c:	00105000 	andseq	r5, r0, r0
 940:	001c0000 	andseq	r0, ip, r0
 944:	00010000 	andeq	r0, r1, r0
 948:	00000053 	andeq	r0, r0, r3, asr r0
 94c:	00000000 	andeq	r0, r0, r0
 950:	00004000 	andeq	r4, r0, r0
 954:	00004300 	andeq	r4, r0, r0, lsl #6
 958:	50000100 	andpl	r0, r0, r0, lsl #2
 95c:	00000043 	andeq	r0, r0, r3, asr #32
 960:	0000004c 	andeq	r0, r0, ip, asr #32
 964:	00540001 	subseq	r0, r4, r1
 968:	00000000 	andeq	r0, r0, r0
 96c:	4c000000 	stcmi	0, cr0, [r0], {-0}
 970:	57000000 	strpl	r0, [r0, -r0]
 974:	01000000 	mrseq	r0, (UNDEF: 0)
 978:	00575000 	subseq	r5, r7, r0
 97c:	00700000 	rsbseq	r0, r0, r0
 980:	00010000 	andeq	r0, r1, r0
 984:	00000055 	andeq	r0, r0, r5, asr r0
 988:	00000000 	andeq	r0, r0, r0
 98c:	00006000 	andeq	r6, r0, r0
 990:	00006400 	andeq	r6, r0, r0, lsl #8
 994:	50000100 	andpl	r0, r0, r0, lsl #2
	...
 9a0:	00000070 	andeq	r0, r0, r0, ror r0
 9a4:	0000007c 	andeq	r0, r0, ip, ror r0
 9a8:	7c500001 	mrrcvc	0, 0, r0, r0, cr1	; <UNPREDICTABLE>
 9ac:	84000000 	strhi	r0, [r0], #-0
 9b0:	04000000 	streq	r0, [r0], #-0
 9b4:	5001f300 	andpl	pc, r1, r0, lsl #6
 9b8:	0000009f 	muleq	r0, pc, r0	; <UNPREDICTABLE>
 9bc:	00000000 	andeq	r0, r0, r0
 9c0:	00008400 	andeq	r8, r0, r0, lsl #8
 9c4:	00009000 	andeq	r9, r0, r0
 9c8:	50000100 	andpl	r0, r0, r0, lsl #2
 9cc:	00000090 	muleq	r0, r0, r0
 9d0:	00000098 	muleq	r0, r8, r0
 9d4:	01f30004 	mvnseq	r0, r4
 9d8:	00009f50 	andeq	r9, r0, r0, asr pc
 9dc:	00000000 	andeq	r0, r0, r0
 9e0:	01380000 	teqeq	r8, r0
 9e4:	01430000 	mrseq	r0, (UNDEF: 67)
 9e8:	00010000 	andeq	r0, r1, r0
 9ec:	00014350 	andeq	r4, r1, r0, asr r3
 9f0:	00016800 	andeq	r6, r1, r0, lsl #16
 9f4:	54000100 	strpl	r0, [r0], #-256	; 0x100
	...
 a04:	0000000f 	andeq	r0, r0, pc
 a08:	0f500001 	svceq	0x00500001
 a0c:	20000000 	andcs	r0, r0, r0
 a10:	01000000 	mrseq	r0, (UNDEF: 0)
 a14:	00005400 	andeq	r5, r0, r0, lsl #8
	...
 a20:	000f0000 	andeq	r0, pc, r0
 a24:	00010000 	andeq	r0, r1, r0
 a28:	00000f51 	andeq	r0, r0, r1, asr pc
 a2c:	00002000 	andeq	r2, r0, r0
 a30:	55000100 	strpl	r0, [r0, #-256]	; 0x100
	...
 a3c:	000000ec 	andeq	r0, r0, ip, ror #1
 a40:	00000104 	andeq	r0, r0, r4, lsl #2
 a44:	04500001 	ldrbeq	r0, [r0], #-1
 a48:	14000001 	strne	r0, [r0], #-1
 a4c:	04000001 	streq	r0, [r0], #-1
 a50:	5001f300 	andpl	pc, r1, r0, lsl #6
 a54:	0001149f 	muleq	r1, pc, r4	; <UNPREDICTABLE>
 a58:	00011800 	andeq	r1, r1, r0, lsl #16
 a5c:	50000100 	andpl	r0, r0, r0, lsl #2
 a60:	00000118 	andeq	r0, r0, r8, lsl r1
 a64:	00000120 	andeq	r0, r0, r0, lsr #2
 a68:	01f30004 	mvnseq	r0, r4
 a6c:	00009f50 	andeq	r9, r0, r0, asr pc
 a70:	00000000 	andeq	r0, r0, r0
 a74:	00f80000 	rscseq	r0, r8, r0
 a78:	01040000 	mrseq	r0, (UNDEF: 4)
 a7c:	000b0000 	andeq	r0, fp, r0
 a80:	25350070 	ldrcs	r0, [r5, #-112]!	; 0x70
 a84:	8080b423 	addhi	fp, r0, r3, lsr #8
 a88:	049f0281 	ldreq	r0, [pc], #641	; a90 <__code_start__-0x7570>
 a8c:	07000001 	streq	r0, [r0, -r1]
 a90:	01000001 	tsteq	r0, r1
 a94:	01075000 	mrseq	r5, (UNDEF: 7)
 a98:	01140000 	tsteq	r4, r0
 a9c:	000c0000 	andeq	r0, ip, r0
 aa0:	355001f3 	ldrbcc	r0, [r0, #-499]	; 0x1f3
 aa4:	80b42325 	adcshi	r2, r4, r5, lsr #6
 aa8:	9f028180 	svcls	0x00028180
	...
 ab4:	000000fc 	strdeq	r0, [r0], -ip
 ab8:	00000114 	andeq	r0, r0, r4, lsl r1
 abc:	00540001 	subseq	r0, r4, r1
 ac0:	00000000 	andeq	r0, r0, r0
 ac4:	d0000000 	andle	r0, r0, r0
 ac8:	df000000 	svcle	0x00000000
 acc:	01000000 	mrseq	r0, (UNDEF: 0)
 ad0:	00df5000 	sbcseq	r5, pc, r0
 ad4:	00e40000 	rsceq	r0, r4, r0
 ad8:	00040000 	andeq	r0, r4, r0
 adc:	9f5001f3 	svcls	0x005001f3
 ae0:	000000e4 	andeq	r0, r0, r4, ror #1
 ae4:	000000e7 	andeq	r0, r0, r7, ror #1
 ae8:	e7500001 	ldrb	r0, [r0, -r1]
 aec:	ec000000 	stc	0, cr0, [r0], {-0}
 af0:	04000000 	streq	r0, [r0], #-0
 af4:	5001f300 	andpl	pc, r1, r0, lsl #6
 af8:	0000009f 	muleq	r0, pc, r0	; <UNPREDICTABLE>
 afc:	00000000 	andeq	r0, r0, r0
 b00:	0000d000 	andeq	sp, r0, r0
 b04:	0000df00 	andeq	sp, r0, r0, lsl #30
 b08:	51000100 	mrspl	r0, (UNDEF: 16)
 b0c:	000000df 	ldrdeq	r0, [r0], -pc	; <UNPREDICTABLE>
 b10:	000000e4 	andeq	r0, r0, r4, ror #1
 b14:	01f30004 	mvnseq	r0, r4
 b18:	00e49f51 	rsceq	r9, r4, r1, asr pc
 b1c:	00e70000 	rsceq	r0, r7, r0
 b20:	00010000 	andeq	r0, r1, r0
 b24:	0000e751 	andeq	lr, r0, r1, asr r7
 b28:	0000ec00 	andeq	lr, r0, r0, lsl #24
 b2c:	f3000400 	vshl.u8	d0, d0, d0
 b30:	009f5101 	addseq	r5, pc, r1, lsl #2
 b34:	00000000 	andeq	r0, r0, r0
 b38:	c0000000 	andgt	r0, r0, r0
 b3c:	cb000000 	blgt	b44 <__code_start__-0x74bc>
 b40:	01000000 	mrseq	r0, (UNDEF: 0)
 b44:	00cb5000 	sbceq	r5, fp, r0
 b48:	00d00000 	sbcseq	r0, r0, r0
 b4c:	00040000 	andeq	r0, r4, r0
 b50:	9f5001f3 	svcls	0x005001f3
	...
 b5c:	0000009c 	muleq	r0, ip, r0
 b60:	000000b4 	strheq	r0, [r0], -r4
 b64:	b4500001 	ldrblt	r0, [r0], #-1
 b68:	c0000000 	andgt	r0, r0, r0
 b6c:	04000000 	streq	r0, [r0], #-0
 b70:	5001f300 	andpl	pc, r1, r0, lsl #6
 b74:	0000009f 	muleq	r0, pc, r0	; <UNPREDICTABLE>
 b78:	00000000 	andeq	r0, r0, r0
 b7c:	00007800 	andeq	r7, r0, r0, lsl #16
 b80:	00009000 	andeq	r9, r0, r0
 b84:	50000100 	andpl	r0, r0, r0, lsl #2
 b88:	00000090 	muleq	r0, r0, r0
 b8c:	0000009c 	muleq	r0, ip, r0
 b90:	01f30004 	mvnseq	r0, r4
 b94:	00009f50 	andeq	r9, r0, r0, asr pc
 b98:	00000000 	andeq	r0, r0, r0
 b9c:	00680000 	rsbeq	r0, r8, r0
 ba0:	00730000 	rsbseq	r0, r3, r0
 ba4:	00010000 	andeq	r0, r1, r0
 ba8:	00007350 	andeq	r7, r0, r0, asr r3
 bac:	00007800 	andeq	r7, r0, r0, lsl #16
 bb0:	f3000400 	vshl.u8	d0, d0, d0
 bb4:	009f5001 	addseq	r5, pc, r1
	...
 bc0:	48000000 	stmdami	r0, {}	; <UNPREDICTABLE>
 bc4:	01000000 	mrseq	r0, (UNDEF: 0)
 bc8:	00485000 	subeq	r5, r8, r0
 bcc:	00680000 	rsbeq	r0, r8, r0
 bd0:	00040000 	andeq	r0, r4, r0
 bd4:	9f5001f3 	svcls	0x005001f3
	...
 be4:	0000004b 	andeq	r0, r0, fp, asr #32
 be8:	4b510001 	blmi	1440bf4 <__bss_end__+0x1437084>
 bec:	68000000 	stmdavs	r0, {}	; <UNPREDICTABLE>
 bf0:	04000000 	streq	r0, [r0], #-0
 bf4:	5101f300 	mrspl	pc, SP_irq	; <UNPREDICTABLE>
 bf8:	0000009f 	muleq	r0, pc, r0	; <UNPREDICTABLE>
 bfc:	00000000 	andeq	r0, r0, r0
 c00:	00004c00 	andeq	r4, r0, r0, lsl #24
 c04:	00005400 	andeq	r5, r0, r0, lsl #8
 c08:	50000100 	andpl	r0, r0, r0, lsl #2
 c0c:	00000054 	andeq	r0, r0, r4, asr r0
 c10:	00000058 	andeq	r0, r0, r8, asr r0
 c14:	00750009 	rsbseq	r0, r5, r9
 c18:	71240074 	teqvc	r4, r4, ror r0
 c1c:	589f2100 	ldmpl	pc, {r8, sp}	; <UNPREDICTABLE>
 c20:	5f000000 	svcpl	0x00000000
 c24:	01000000 	mrseq	r0, (UNDEF: 0)
 c28:	00005100 	andeq	r5, r0, r0, lsl #2
	...
 c34:	000b0000 	andeq	r0, fp, r0
 c38:	00010000 	andeq	r0, r1, r0
 c3c:	00000b50 	andeq	r0, r0, r0, asr fp
 c40:	00001400 	andeq	r1, r0, r0, lsl #8
 c44:	54000100 	strpl	r0, [r0], #-256	; 0x100
	...

Disassembly of section .debug_aranges:

00000000 <.debug_aranges>:
   0:	0000001c 	andeq	r0, r0, ip, lsl r0
   4:	00000002 	andeq	r0, r0, r2
   8:	00040000 	andeq	r0, r4, r0
   c:	00000000 	andeq	r0, r0, r0
  10:	00008020 	andeq	r8, r0, r0, lsr #32
  14:	000002d4 	ldrdeq	r0, [r0], -r4
	...
  20:	0000001c 	andeq	r0, r0, ip, lsl r0
  24:	07fb0002 	ldrbeq	r0, [fp, r2]!
  28:	00040000 	andeq	r0, r4, r0
  2c:	00000000 	andeq	r0, r0, r0
  30:	0000838c 	andeq	r8, r0, ip, lsl #7
  34:	0000005c 	andeq	r0, r0, ip, asr r0
	...
  40:	0000001c 	andeq	r0, r0, ip, lsl r0
  44:	0ad20002 	beq	ff480054 <__bss_end__+0xff4764e4>
  48:	00040000 	andeq	r0, r4, r0
  4c:	00000000 	andeq	r0, r0, r0
  50:	000083e8 	andeq	r8, r0, r8, ror #7
  54:	00000058 	andeq	r0, r0, r8, asr r0
	...
  60:	0000001c 	andeq	r0, r0, ip, lsl r0
  64:	0c670002 	stcleq	0, cr0, [r7], #-8
  68:	00040000 	andeq	r0, r4, r0
  6c:	00000000 	andeq	r0, r0, r0
  70:	00008440 	andeq	r8, r0, r0, asr #8
  74:	00000034 	andeq	r0, r0, r4, lsr r0
	...
  80:	0000001c 	andeq	r0, r0, ip, lsl r0
  84:	0d590002 	ldcleq	0, cr0, [r9, #-8]
  88:	00040000 	andeq	r0, r4, r0
  8c:	00000000 	andeq	r0, r0, r0
  90:	00008474 	andeq	r8, r0, r4, ror r4
  94:	00000578 	andeq	r0, r0, r8, ror r5
	...
  a0:	0000001c 	andeq	r0, r0, ip, lsl r0
  a4:	14420002 	strbne	r0, [r2], #-2
  a8:	00040000 	andeq	r0, r4, r0
  ac:	00000000 	andeq	r0, r0, r0
  b0:	000089ec 	andeq	r8, r0, ip, ror #19
  b4:	0000002c 	andeq	r0, r0, ip, lsr #32
	...
  c0:	0000001c 	andeq	r0, r0, ip, lsl r0
  c4:	15550002 	ldrbne	r0, [r5, #-2]
  c8:	00040000 	andeq	r0, r4, r0
  cc:	00000000 	andeq	r0, r0, r0
  d0:	00008a18 	andeq	r8, r0, r8, lsl sl
  d4:	00000038 	andeq	r0, r0, r8, lsr r0
	...
  e0:	0000001c 	andeq	r0, r0, ip, lsl r0
  e4:	16680002 	strbtne	r0, [r8], -r2
  e8:	00040000 	andeq	r0, r4, r0
  ec:	00000000 	andeq	r0, r0, r0
  f0:	00008a50 	andeq	r8, r0, r0, asr sl
  f4:	00000044 	andeq	r0, r0, r4, asr #32
	...
 100:	0000001c 	andeq	r0, r0, ip, lsl r0
 104:	17aa0002 	strne	r0, [sl, r2]!
 108:	00040000 	andeq	r0, r4, r0
 10c:	00000000 	andeq	r0, r0, r0
 110:	00008a94 	muleq	r0, r4, sl
 114:	00000044 	andeq	r0, r0, r4, asr #32
	...
 120:	0000001c 	andeq	r0, r0, ip, lsl r0
 124:	18ec0002 	stmiane	ip!, {r1}^
 128:	00040000 	andeq	r0, r4, r0
 12c:	00000000 	andeq	r0, r0, r0
 130:	00008ad8 	ldrdeq	r8, [r0], -r8	; <UNPREDICTABLE>
 134:	00000044 	andeq	r0, r0, r4, asr #32
	...
 140:	0000001c 	andeq	r0, r0, ip, lsl r0
 144:	1a2e0002 	bne	b80154 <__bss_end__+0xb765e4>
 148:	00040000 	andeq	r0, r4, r0
 14c:	00000000 	andeq	r0, r0, r0
 150:	00008b1c 	andeq	r8, r0, ip, lsl fp
 154:	00000044 	andeq	r0, r0, r4, asr #32
	...
 160:	0000001c 	andeq	r0, r0, ip, lsl r0
 164:	1b700002 	blne	1c00174 <__bss_end__+0x1bf6604>
 168:	00040000 	andeq	r0, r4, r0
 16c:	00000000 	andeq	r0, r0, r0
 170:	00008b60 	andeq	r8, r0, r0, ror #22
 174:	00000044 	andeq	r0, r0, r4, asr #32
	...
 180:	0000001c 	andeq	r0, r0, ip, lsl r0
 184:	1cb20002 	ldcne	0, cr0, [r2], #8
 188:	00040000 	andeq	r0, r4, r0
 18c:	00000000 	andeq	r0, r0, r0
 190:	00008ba4 	andeq	r8, r0, r4, lsr #23
 194:	00000044 	andeq	r0, r0, r4, asr #32
	...
 1a0:	0000001c 	andeq	r0, r0, ip, lsl r0
 1a4:	1df40002 	ldclne	0, cr0, [r4, #8]!
 1a8:	00040000 	andeq	r0, r4, r0
 1ac:	00000000 	andeq	r0, r0, r0
 1b0:	00008be8 	andeq	r8, r0, r8, ror #23
 1b4:	00000008 	andeq	r0, r0, r8
	...
 1c0:	0000001c 	andeq	r0, r0, ip, lsl r0
 1c4:	1e900002 	cdpne	0, 9, cr0, cr0, cr2, {0}
 1c8:	00040000 	andeq	r0, r4, r0
 1cc:	00000000 	andeq	r0, r0, r0
 1d0:	00008bf0 	strdeq	r8, [r0], -r0
 1d4:	0000006c 	andeq	r0, r0, ip, rrx
	...
 1e0:	0000001c 	andeq	r0, r0, ip, lsl r0
 1e4:	206b0002 	rsbcs	r0, fp, r2
 1e8:	00040000 	andeq	r0, r4, r0
 1ec:	00000000 	andeq	r0, r0, r0
 1f0:	00008c5c 	andeq	r8, r0, ip, asr ip
 1f4:	00000074 	andeq	r0, r0, r4, ror r0
	...
 200:	0000001c 	andeq	r0, r0, ip, lsl r0
 204:	221c0002 	andscs	r0, ip, #2
 208:	00040000 	andeq	r0, r4, r0
 20c:	00000000 	andeq	r0, r0, r0
 210:	00008cd0 	ldrdeq	r8, [r0], -r0
 214:	00000098 	muleq	r0, r8, r0
	...
 220:	0000001c 	andeq	r0, r0, ip, lsl r0
 224:	24170002 	ldrcs	r0, [r7], #-2
 228:	00040000 	andeq	r0, r4, r0
 22c:	00000000 	andeq	r0, r0, r0
 230:	00008dec 	andeq	r8, r0, ip, ror #27
 234:	00000178 	andeq	r0, r0, r8, ror r1
	...
 240:	0000001c 	andeq	r0, r0, ip, lsl r0
 244:	30e00002 	rsccc	r0, r0, r2
 248:	00040000 	andeq	r0, r4, r0
 24c:	00000000 	andeq	r0, r0, r0
 250:	00008f64 	andeq	r8, r0, r4, ror #30
 254:	00000120 	andeq	r0, r0, r0, lsr #2
	...
 260:	0000001c 	andeq	r0, r0, ip, lsl r0
 264:	3c540002 	mrrccc	0, 0, r0, r4, cr2
 268:	00040000 	andeq	r0, r4, r0
 26c:	00000000 	andeq	r0, r0, r0
 270:	00009084 	andeq	r9, r0, r4, lsl #1
 274:	0000003c 	andeq	r0, r0, ip, lsr r0
	...

Disassembly of section .debug_line:

00000000 <.debug_line>:
       0:	00000114 	andeq	r0, r0, r4, lsl r1
       4:	00af0002 	adceq	r0, pc, r2
       8:	01020000 	mrseq	r0, (UNDEF: 2)
       c:	000d0efb 	strdeq	r0, [sp], -fp
      10:	01010101 	tsteq	r1, r1, lsl #2
      14:	01000000 	mrseq	r0, (UNDEF: 0)
      18:	2f010000 	svccs	0x00010000
      1c:	72657355 	rsbvc	r7, r5, #1409286145	; 0x54000001
      20:	72622f73 	rsbvc	r2, r2, #460	; 0x1cc
      24:	6a6e6169 	bvs	1b985d0 <__bss_end__+0x1b8ea60>
      28:	442f6e75 	strtmi	r6, [pc], #-3701	; 30 <__code_start__-0x7fd0>
      2c:	746b7365 	strbtvc	r7, [fp], #-869	; 0x365
      30:	732f706f 	teqvc	pc, #111	; 0x6f
      34:	6f6f6863 	svcvs	0x006f6863
      38:	70532f6c 	subsvc	r2, r3, ip, ror #30
      3c:	676e6972 			; <UNDEFINED> instruction: 0x676e6972
      40:	30323931 	eorscc	r3, r2, r1, lsr r9
      44:	3253432f 	subscc	r4, r3, #-1140850688	; 0xbc000000
      48:	584c3034 	stmdapl	ip, {r2, r4, r5, ip, sp}^
      4c:	3273632f 	rsbscc	r6, r3, #-1140850688	; 0xbc000000
      50:	786c3034 	stmdavc	ip!, {r2, r4, r5, ip, sp}^
      54:	7330322d 	teqvc	r0, #-805306366	; 0xd0000002
      58:	6c2f7270 	sfmvs	f7, 4, [pc], #-448	; fffffea0 <__bss_end__+0xffff6330>
      5c:	69706269 	ldmdbvs	r0!, {r0, r3, r5, r6, r9, sp, lr}^
      60:	636e692f 	cmnvs	lr, #770048	; 0xbc000
      64:	6564756c 	strbvs	r7, [r4, #-1388]!	; 0x56c
      68:	616d0000 	cmnvs	sp, r0
      6c:	632e6e69 	teqvs	lr, #1680	; 0x690
      70:	00000000 	andeq	r0, r0, r0
      74:	2d697072 	stclcs	0, cr7, [r9, #-456]!	; 0xfffffe38
      78:	746d7261 	strbtvc	r7, [sp], #-609	; 0x261
      7c:	72656d69 	rsbvc	r6, r5, #6720	; 0x1a40
      80:	0100682e 	tsteq	r0, lr, lsr #16
      84:	70720000 	rsbsvc	r0, r2, r0
      88:	6e692d69 	cdpvs	13, 6, cr2, cr9, cr9, {3}
      8c:	72726574 	rsbsvc	r6, r2, #116, 10	; 0x1d000000
      90:	73747075 	cmnvc	r4, #117	; 0x75
      94:	0100682e 	tsteq	r0, lr, lsr #16
      98:	70720000 	rsbsvc	r0, r2, r0
      9c:	00682e69 	rsbeq	r2, r8, r9, ror #28
      a0:	74000001 	strvc	r0, [r0], #-1
      a4:	72656d69 	rsbvc	r6, r5, #6720	; 0x1a40
      a8:	746e692d 	strbtvc	r6, [lr], #-2349	; 0x92d
      ac:	75727265 	ldrbvc	r7, [r2, #-613]!	; 0x265
      b0:	682e7470 	stmdavs	lr!, {r4, r5, r6, sl, ip, sp, lr}
      b4:	00000100 	andeq	r0, r0, r0, lsl #2
      b8:	02050000 	andeq	r0, r5, #0
      bc:	00008020 	andeq	r8, r0, r0, lsr #32
      c0:	2f010f03 	svccs	0x00010f03
      c4:	0d034e2f 	stceq	14, cr4, [r3, #-188]	; 0xffffff44
      c8:	660b034a 	strvs	r0, [fp], -sl, asr #6
      cc:	002f862f 	eoreq	r8, pc, pc, lsr #12
      d0:	06010402 	streq	r0, [r1], -r2, lsl #8
      d4:	02002e4a 	andeq	r2, r0, #1184	; 0x4a0
      d8:	002e0304 	eoreq	r0, lr, r4, lsl #6
      dc:	06030402 	streq	r0, [r3], -r2, lsl #8
      e0:	0402004b 	streq	r0, [r2], #-75	; 0x4b
      e4:	4ba48303 	blmi	fe920cf8 <__bss_end__+0xfe917188>
      e8:	4c304b30 	ldcmi	11, cr4, [r0], #-192	; 0xffffff40
      ec:	4c2f4c4c 	stcmi	12, cr4, [pc], #-304	; ffffffc4 <__bss_end__+0xffff6454>
      f0:	2c30304f 	ldccs	0, cr3, [r0], #-316	; 0xfffffec4
      f4:	0200d830 	andeq	sp, r0, #48, 16	; 0x300000
      f8:	032a0104 	teqeq	sl, #4, 2
      fc:	674b660b 	strbvs	r6, [fp, -fp, lsl #12]
     100:	4b4b4bf3 	blmi	12d30d4 <__bss_end__+0x12c9564>
     104:	089f6767 	ldmeq	pc, {r0, r1, r2, r5, r6, r8, r9, sl, sp, lr}	; <UNPREDICTABLE>
     108:	4b4ba121 	blmi	12e8594 <__bss_end__+0x12dea24>
     10c:	f3f32108 	vaddw.u<illegal width 64>	q9, <illegal reg q1.5>, d8
     110:	024bbbf4 	subeq	fp, fp, #244, 22	; 0x3d000
     114:	0101003c 	tsteq	r1, ip, lsr r0
     118:	00000126 	andeq	r0, r0, r6, lsr #2
     11c:	01060002 	tsteq	r6, r2
     120:	01020000 	mrseq	r0, (UNDEF: 2)
     124:	000d0efb 	strdeq	r0, [sp], -fp
     128:	01010101 	tsteq	r1, r1, lsl #2
     12c:	01000000 	mrseq	r0, (UNDEF: 0)
     130:	2f010000 	svccs	0x00010000
     134:	72657355 	rsbvc	r7, r5, #1409286145	; 0x54000001
     138:	72622f73 	rsbvc	r2, r2, #460	; 0x1cc
     13c:	6a6e6169 	bvs	1b986e8 <__bss_end__+0x1b8eb78>
     140:	442f6e75 	strtmi	r6, [pc], #-3701	; 148 <__code_start__-0x7eb8>
     144:	746b7365 	strbtvc	r7, [fp], #-869	; 0x365
     148:	732f706f 	teqvc	pc, #111	; 0x6f
     14c:	6f6f6863 	svcvs	0x006f6863
     150:	70532f6c 	subsvc	r2, r3, ip, ror #30
     154:	676e6972 			; <UNDEFINED> instruction: 0x676e6972
     158:	30323931 	eorscc	r3, r2, r1, lsr r9
     15c:	3253432f 	subscc	r4, r3, #-1140850688	; 0xbc000000
     160:	584c3034 	stmdapl	ip, {r2, r4, r5, ip, sp}^
     164:	3273632f 	rsbscc	r6, r3, #-1140850688	; 0xbc000000
     168:	786c3034 	stmdavc	ip!, {r2, r4, r5, ip, sp}^
     16c:	7330322d 	teqvc	r0, #-805306366	; 0xd0000002
     170:	6c2f7270 	sfmvs	f7, 4, [pc], #-448	; ffffffb8 <__bss_end__+0xffff6448>
     174:	69706269 	ldmdbvs	r0!, {r0, r3, r5, r6, r9, sp, lr}^
     178:	636e692f 	cmnvs	lr, #770048	; 0xbc000
     17c:	6564756c 	strbvs	r7, [r4, #-1388]!	; 0x56c
     180:	73752f00 	cmnvc	r5, #0, 30
     184:	6f6c2f72 	svcvs	0x006c2f72
     188:	2f6c6163 	svccs	0x006c6163
     18c:	6c6c6543 	cfstr64vs	mvdx6, [ip], #-268	; 0xfffffef4
     190:	612f7261 	teqvs	pc, r1, ror #4
     194:	6e2d6d72 	mcrvs	13, 1, r6, cr13, cr2, {3}
     198:	2d656e6f 	stclcs	14, cr6, [r5, #-444]!	; 0xfffffe44
     19c:	69626165 	stmdbvs	r2!, {r0, r2, r5, r6, r8, sp, lr}^
     1a0:	382e342f 	stmdacc	lr!, {r0, r1, r2, r3, r5, sl, ip, sp}
     1a4:	632d332e 	teqvs	sp, #-1207959552	; 0xb8000000
     1a8:	30373173 	eorscc	r3, r7, r3, ror r1
     1ac:	696c2f65 	stmdbvs	ip!, {r0, r2, r5, r6, r8, r9, sl, fp, sp}^
     1b0:	63672f62 	cmnvs	r7, #392	; 0x188
     1b4:	72612f63 	rsbvc	r2, r1, #396	; 0x18c
     1b8:	6f6e2d6d 	svcvs	0x006e2d6d
     1bc:	652d656e 	strvs	r6, [sp, #-1390]!	; 0x56e
     1c0:	2f696261 	svccs	0x00696261
     1c4:	2e382e34 	mrccs	14, 1, r2, cr8, cr4, {1}
     1c8:	6e692f33 	mcrvs	15, 3, r2, cr9, cr3, {1}
     1cc:	64756c63 	ldrbtvs	r6, [r5], #-3171	; 0xc63
     1d0:	74000065 	strvc	r0, [r0], #-101	; 0x65
     1d4:	72656d69 	rsbvc	r6, r5, #6720	; 0x1a40
     1d8:	746e692d 	strbtvc	r6, [lr], #-2349	; 0x92d
     1dc:	75727265 	ldrbvc	r7, [r2, #-613]!	; 0x265
     1e0:	632e7470 	teqvs	lr, #112, 8	; 0x70000000
     1e4:	00000000 	andeq	r0, r0, r0
     1e8:	2d697072 	stclcs	0, cr7, [r9, #-456]!	; 0xfffffe38
     1ec:	746d7261 	strbtvc	r7, [sp], #-609	; 0x261
     1f0:	72656d69 	rsbvc	r6, r5, #6720	; 0x1a40
     1f4:	0100682e 	tsteq	r0, lr, lsr #16
     1f8:	74730000 	ldrbtvc	r0, [r3], #-0
     1fc:	746e6964 	strbtvc	r6, [lr], #-2404	; 0x964
     200:	6363672d 	cmnvs	r3, #11796480	; 0xb40000
     204:	0200682e 	andeq	r6, r0, #3014656	; 0x2e0000
     208:	70720000 	rsbsvc	r0, r2, r0
     20c:	6e692d69 	cdpvs	13, 6, cr2, cr9, cr9, {3}
     210:	72726574 	rsbsvc	r6, r2, #116, 10	; 0x1d000000
     214:	73747075 	cmnvc	r4, #117	; 0x75
     218:	0100682e 	tsteq	r0, lr, lsr #16
     21c:	70720000 	rsbsvc	r0, r2, r0
     220:	00682e69 	rsbeq	r2, r8, r9, ror #28
     224:	00000001 	andeq	r0, r0, r1
     228:	8c020500 	cfstr32hi	mvfx0, [r2], {-0}
     22c:	03000083 	movweq	r0, #131	; 0x83
     230:	0b03013f 	bleq	c0734 <__bss_end__+0xb6bc4>
     234:	46034b4a 	strmi	r4, [r3], -sl, asr #22
     238:	6a324b66 	bvs	c92fd8 <__bss_end__+0xc89468>
     23c:	000e026a 	andeq	r0, lr, sl, ror #4
     240:	010c0101 	tsteq	ip, r1, lsl #2
     244:	00020000 	andeq	r0, r2, r0
     248:	000000f5 	strdeq	r0, [r0], -r5
     24c:	0efb0102 	cdpeq	1, 15, cr0, cr11, cr2, {0}
     250:	0101000d 	tsteq	r1, sp
     254:	00000101 	andeq	r0, r0, r1, lsl #2
     258:	00000100 	andeq	r0, r0, r0, lsl #2
     25c:	62696c01 	rsbvs	r6, r9, #256	; 0x100
     260:	752f0063 	strvc	r0, [pc, #-99]!	; 205 <__code_start__-0x7dfb>
     264:	6c2f7273 	sfmvs	f7, 4, [pc], #-460	; a0 <__code_start__-0x7f60>
     268:	6c61636f 	stclvs	3, cr6, [r1], #-444	; 0xfffffe44
     26c:	6c65432f 	stclvs	3, cr4, [r5], #-188	; 0xffffff44
     270:	2f72616c 	svccs	0x0072616c
     274:	2d6d7261 	sfmcs	f7, 2, [sp, #-388]!	; 0xfffffe7c
     278:	656e6f6e 	strbvs	r6, [lr, #-3950]!	; 0xf6e
     27c:	6261652d 	rsbvs	r6, r1, #188743680	; 0xb400000
     280:	2e342f69 	cdpcs	15, 3, cr2, cr4, cr9, {3}
     284:	2d332e38 	ldccs	14, cr2, [r3, #-224]!	; 0xffffff20
     288:	37317363 	ldrcc	r7, [r1, -r3, ror #6]!
     28c:	6c2f6530 	cfstr32vs	mvfx6, [pc], #-192	; 1d4 <__code_start__-0x7e2c>
     290:	672f6269 	strvs	r6, [pc, -r9, ror #4]!
     294:	612f6363 	teqvs	pc, r3, ror #6
     298:	6e2d6d72 	mcrvs	13, 1, r6, cr13, cr2, {3}
     29c:	2d656e6f 	stclcs	14, cr6, [r5, #-444]!	; 0xfffffe44
     2a0:	69626165 	stmdbvs	r2!, {r0, r2, r5, r6, r8, sp, lr}^
     2a4:	382e342f 	stmdacc	lr!, {r0, r1, r2, r3, r5, sl, ip, sp}
     2a8:	692f332e 	stmdbvs	pc!, {r1, r2, r3, r5, r8, r9, ip, sp}	; <UNPREDICTABLE>
     2ac:	756c636e 	strbvc	r6, [ip, #-878]!	; 0x36e
     2b0:	2f006564 	svccs	0x00006564
     2b4:	72657355 	rsbvc	r7, r5, #1409286145	; 0x54000001
     2b8:	72622f73 	rsbvc	r2, r2, #460	; 0x1cc
     2bc:	6a6e6169 	bvs	1b98868 <__bss_end__+0x1b8ecf8>
     2c0:	442f6e75 	strtmi	r6, [pc], #-3701	; 2c8 <__code_start__-0x7d38>
     2c4:	746b7365 	strbtvc	r7, [fp], #-869	; 0x365
     2c8:	732f706f 	teqvc	pc, #111	; 0x6f
     2cc:	6f6f6863 	svcvs	0x006f6863
     2d0:	70532f6c 	subsvc	r2, r3, ip, ror #30
     2d4:	676e6972 			; <UNDEFINED> instruction: 0x676e6972
     2d8:	30323931 	eorscc	r3, r2, r1, lsr r9
     2dc:	3253432f 	subscc	r4, r3, #-1140850688	; 0xbc000000
     2e0:	584c3034 	stmdapl	ip, {r2, r4, r5, ip, sp}^
     2e4:	3273632f 	rsbscc	r6, r3, #-1140850688	; 0xbc000000
     2e8:	786c3034 	stmdavc	ip!, {r2, r4, r5, ip, sp}^
     2ec:	7330322d 	teqvc	r0, #-805306366	; 0xd0000002
     2f0:	6c2f7270 	sfmvs	f7, 4, [pc], #-448	; 138 <__code_start__-0x7ec8>
     2f4:	69706269 	ldmdbvs	r0!, {r0, r3, r5, r6, r9, sp, lr}^
     2f8:	636e692f 	cmnvs	lr, #770048	; 0xbc000
     2fc:	6564756c 	strbvs	r7, [r4, #-1388]!	; 0x56c
     300:	72700000 	rsbsvc	r0, r0, #0
     304:	6b746e69 	blvs	1d1bcb0 <__bss_end__+0x1d12140>
     308:	0100632e 	tsteq	r0, lr, lsr #6
     30c:	74730000 	ldrbtvc	r0, [r3], #-0
     310:	67726164 	ldrbvs	r6, [r2, -r4, ror #2]!
     314:	0200682e 	andeq	r6, r0, #3014656	; 0x2e0000
     318:	623c0000 	eorsvs	r0, ip, #0
     31c:	746c6975 	strbtvc	r6, [ip], #-2421	; 0x975
     320:	3e6e692d 	cdpcc	9, 6, cr6, cr14, cr13, {1}
     324:	00000000 	andeq	r0, r0, r0
     328:	2e697072 	mcrcs	0, 3, r7, cr9, cr2, {3}
     32c:	00030068 	andeq	r0, r3, r8, rrx
     330:	2d617600 	stclcs	6, cr7, [r1, #-0]
     334:	6e697270 	mcrvs	2, 3, r7, cr9, cr0, {3}
     338:	682e6b74 	stmdavs	lr!, {r2, r4, r5, r6, r8, r9, fp, sp, lr}
     33c:	00000100 	andeq	r0, r0, r0, lsl #2
     340:	02050000 	andeq	r0, r5, #0
     344:	000083e8 	andeq	r8, r0, r8, ror #7
     348:	bf4b6b17 	svclt	0x004b6b17
     34c:	000e0289 	andeq	r0, lr, r9, lsl #5
     350:	00a00101 	adceq	r0, r0, r1, lsl #2
     354:	00020000 	andeq	r0, r2, r0
     358:	00000079 	andeq	r0, r0, r9, ror r0
     35c:	0efb0102 	cdpeq	1, 15, cr0, cr11, cr2, {0}
     360:	0101000d 	tsteq	r1, sp
     364:	00000101 	andeq	r0, r0, r1, lsl #2
     368:	00000100 	andeq	r0, r0, r0, lsl #2
     36c:	62696c01 	rsbvs	r6, r9, #256	; 0x100
     370:	552f0063 	strpl	r0, [pc, #-99]!	; 315 <__code_start__-0x7ceb>
     374:	73726573 	cmnvc	r2, #482344960	; 0x1cc00000
     378:	6972622f 	ldmdbvs	r2!, {r0, r1, r2, r3, r5, r9, sp, lr}^
     37c:	756a6e61 	strbvc	r6, [sl, #-3681]!	; 0xe61
     380:	65442f6e 	strbvs	r2, [r4, #-3950]	; 0xf6e
     384:	6f746b73 	svcvs	0x00746b73
     388:	63732f70 	cmnvs	r3, #112, 30	; 0x1c0
     38c:	6c6f6f68 	stclvs	15, cr6, [pc], #-416	; 1f4 <__code_start__-0x7e0c>
     390:	7270532f 	rsbsvc	r5, r0, #-1140850688	; 0xbc000000
     394:	31676e69 	cmncc	r7, r9, ror #28
     398:	2f303239 	svccs	0x00303239
     39c:	34325343 	ldrtcc	r5, [r2], #-835	; 0x343
     3a0:	2f584c30 	svccs	0x00584c30
     3a4:	34327363 	ldrtcc	r7, [r2], #-867	; 0x363
     3a8:	2d786c30 	ldclcs	12, cr6, [r8, #-192]!	; 0xffffff40
     3ac:	70733032 	rsbsvc	r3, r3, r2, lsr r0
     3b0:	696c2f72 	stmdbvs	ip!, {r1, r4, r5, r6, r8, r9, sl, fp, sp}^
     3b4:	2f697062 	svccs	0x00697062
     3b8:	6c636e69 	stclvs	14, cr6, [r3], #-420	; 0xfffffe5c
     3bc:	00656475 	rsbeq	r6, r5, r5, ror r4
     3c0:	74757000 	ldrbtvc	r7, [r5], #-0
     3c4:	00632e6b 	rsbeq	r2, r3, fp, ror #28
     3c8:	72000001 	andvc	r0, r0, #1
     3cc:	682e6970 	stmdavs	lr!, {r4, r5, r6, r8, fp, sp, lr}
     3d0:	00000200 	andeq	r0, r0, r0, lsl #4
     3d4:	02050000 	andeq	r0, r5, #0
     3d8:	00008440 	andeq	r8, r0, r0, asr #8
     3dc:	002d4c15 	eoreq	r4, sp, r5, lsl ip
     3e0:	2f020402 	svccs	0x00020402
     3e4:	02040200 	andeq	r0, r4, #0, 4
     3e8:	04020049 	streq	r0, [r2], #-73	; 0x49
     3ec:	062e0601 	strteq	r0, [lr], -r1, lsl #12
     3f0:	0006026b 	andeq	r0, r6, fp, ror #4
     3f4:	01f10101 	mvnseq	r0, r1, lsl #2
     3f8:	00020000 	andeq	r0, r2, r0
     3fc:	000000e9 	andeq	r0, r0, r9, ror #1
     400:	0efb0102 	cdpeq	1, 15, cr0, cr11, cr2, {0}
     404:	0101000d 	tsteq	r1, sp
     408:	00000101 	andeq	r0, r0, r1, lsl #2
     40c:	00000100 	andeq	r0, r0, r0, lsl #2
     410:	62696c01 	rsbvs	r6, r9, #256	; 0x100
     414:	752f0063 	strvc	r0, [pc, #-99]!	; 3b9 <__code_start__-0x7c47>
     418:	6c2f7273 	sfmvs	f7, 4, [pc], #-460	; 254 <__code_start__-0x7dac>
     41c:	6c61636f 	stclvs	3, cr6, [r1], #-444	; 0xfffffe44
     420:	6c65432f 	stclvs	3, cr4, [r5], #-188	; 0xffffff44
     424:	2f72616c 	svccs	0x0072616c
     428:	2d6d7261 	sfmcs	f7, 2, [sp, #-388]!	; 0xfffffe7c
     42c:	656e6f6e 	strbvs	r6, [lr, #-3950]!	; 0xf6e
     430:	6261652d 	rsbvs	r6, r1, #188743680	; 0xb400000
     434:	2e342f69 	cdpcs	15, 3, cr2, cr4, cr9, {3}
     438:	2d332e38 	ldccs	14, cr2, [r3, #-224]!	; 0xffffff20
     43c:	37317363 	ldrcc	r7, [r1, -r3, ror #6]!
     440:	6c2f6530 	cfstr32vs	mvfx6, [pc], #-192	; 388 <__code_start__-0x7c78>
     444:	672f6269 	strvs	r6, [pc, -r9, ror #4]!
     448:	612f6363 	teqvs	pc, r3, ror #6
     44c:	6e2d6d72 	mcrvs	13, 1, r6, cr13, cr2, {3}
     450:	2d656e6f 	stclcs	14, cr6, [r5, #-444]!	; 0xfffffe44
     454:	69626165 	stmdbvs	r2!, {r0, r2, r5, r6, r8, sp, lr}^
     458:	382e342f 	stmdacc	lr!, {r0, r1, r2, r3, r5, sl, ip, sp}
     45c:	692f332e 	stmdbvs	pc!, {r1, r2, r3, r5, r8, r9, ip, sp}	; <UNPREDICTABLE>
     460:	756c636e 	strbvc	r6, [ip, #-878]!	; 0x36e
     464:	2f006564 	svccs	0x00006564
     468:	72657355 	rsbvc	r7, r5, #1409286145	; 0x54000001
     46c:	72622f73 	rsbvc	r2, r2, #460	; 0x1cc
     470:	6a6e6169 	bvs	1b98a1c <__bss_end__+0x1b8eeac>
     474:	442f6e75 	strtmi	r6, [pc], #-3701	; 47c <__code_start__-0x7b84>
     478:	746b7365 	strbtvc	r7, [fp], #-869	; 0x365
     47c:	732f706f 	teqvc	pc, #111	; 0x6f
     480:	6f6f6863 	svcvs	0x006f6863
     484:	70532f6c 	subsvc	r2, r3, ip, ror #30
     488:	676e6972 			; <UNDEFINED> instruction: 0x676e6972
     48c:	30323931 	eorscc	r3, r2, r1, lsr r9
     490:	3253432f 	subscc	r4, r3, #-1140850688	; 0xbc000000
     494:	584c3034 	stmdapl	ip, {r2, r4, r5, ip, sp}^
     498:	3273632f 	rsbscc	r6, r3, #-1140850688	; 0xbc000000
     49c:	786c3034 	stmdavc	ip!, {r2, r4, r5, ip, sp}^
     4a0:	7330322d 	teqvc	r0, #-805306366	; 0xd0000002
     4a4:	6c2f7270 	sfmvs	f7, 4, [pc], #-448	; 2ec <__code_start__-0x7d14>
     4a8:	69706269 	ldmdbvs	r0!, {r0, r3, r5, r6, r9, sp, lr}^
     4ac:	636e692f 	cmnvs	lr, #770048	; 0xbc000
     4b0:	6564756c 	strbvs	r7, [r4, #-1388]!	; 0x56c
     4b4:	61760000 	cmnvs	r6, r0
     4b8:	6972702d 	ldmdbvs	r2!, {r0, r2, r3, r5, ip, sp, lr}^
     4bc:	2e6b746e 	cdpcs	4, 6, cr7, cr11, cr14, {3}
     4c0:	00010063 	andeq	r0, r1, r3, rrx
     4c4:	64747300 	ldrbtvs	r7, [r4], #-768	; 0x300
     4c8:	2e677261 	cdpcs	2, 6, cr7, cr7, cr1, {3}
     4cc:	00020068 	andeq	r0, r2, r8, rrx
     4d0:	69707200 	ldmdbvs	r0!, {r9, ip, sp, lr}^
     4d4:	0300682e 	movweq	r6, #2094	; 0x82e
     4d8:	623c0000 	eorsvs	r0, ip, #0
     4dc:	746c6975 	strbtvc	r6, [ip], #-2421	; 0x975
     4e0:	3e6e692d 	cdpcc	9, 6, cr6, cr14, cr13, {1}
     4e4:	00000000 	andeq	r0, r0, r0
     4e8:	02050000 	andeq	r0, r5, #0
     4ec:	00008474 	andeq	r8, r0, r4, ror r4
     4f0:	01012603 	tsteq	r1, r3, lsl #12
     4f4:	2d3113a5 	ldccs	3, cr1, [r1, #-660]!	; 0xfffffd6c
     4f8:	02040200 	andeq	r0, r4, #0, 4
     4fc:	0402002f 	streq	r0, [r2], #-47	; 0x2f
     500:	02002d02 	andeq	r2, r0, #2, 26	; 0x80
     504:	002f0204 	eoreq	r0, pc, r4, lsl #4
     508:	2d010402 	cfstrscs	mvf0, [r1, #-8]
     50c:	14304c4c 	ldrtne	r4, [r0], #-3148	; 0xc4c
     510:	004f2f4b 	subeq	r2, pc, fp, asr #30
     514:	67020402 	strvs	r0, [r2, -r2, lsl #8]
     518:	01040200 	mrseq	r0, R12_usr
     51c:	304d4c65 	subcc	r4, sp, r5, ror #24
     520:	30312fa0 	eorscc	r2, r1, r0, lsr #31
     524:	84162602 	ldrhi	r2, [r6], #-1538	; 0x602
     528:	02002c2d 	andeq	r2, r0, #11520	; 0x2d00
     52c:	00300104 	eorseq	r0, r0, r4, lsl #2
     530:	33010402 	movwcc	r0, #5122	; 0x1402
     534:	02006606 	andeq	r6, r0, #6291456	; 0x600000
     538:	002e0104 	eoreq	r0, lr, r4, lsl #2
     53c:	06010402 	streq	r0, [r1], -r2, lsl #8
     540:	2f672108 	svccs	0x00672108
     544:	03827303 	orreq	r7, r2, #201326592	; 0xc000000
     548:	02002e13 	andeq	r2, r0, #304	; 0x130
     54c:	66060104 	strvs	r0, [r6], -r4, lsl #2
     550:	01040200 	mrseq	r0, R12_usr
     554:	4b4b8306 	blmi	12e1174 <__bss_end__+0x12d7604>
     558:	034b3167 	movteq	r3, #45415	; 0xb167
     55c:	23032e65 	movwcs	r2, #15973	; 0x3e65
     560:	0402002e 	streq	r0, [r2], #-46	; 0x2e
     564:	002e0601 	eoreq	r0, lr, r1, lsl #12
     568:	06010402 	streq	r0, [r1], -r2, lsl #8
     56c:	0402009f 	streq	r0, [r2], #-159	; 0x9f
     570:	23086a01 	movwcs	r6, #35329	; 0x8a01
     574:	7fa403d7 	svcvc	0x00a403d7
     578:	004b3c08 	subeq	r3, fp, r8, lsl #24
     57c:	06010402 	streq	r0, [r1], -r2, lsl #8
     580:	2108064a 	tstcs	r8, sl, asr #12
     584:	034b2f4b 	movteq	r2, #48971	; 0xbf4b
     588:	9ff200db 	svcls	0x00f200db
     58c:	4b32484c 	blmi	c926c4 <__bss_end__+0xc88b54>
     590:	2f4b842f 	svccs	0x004b842f
     594:	30314d2d 	eorscc	r4, r1, sp, lsr #26
     598:	0200832f 	andeq	r8, r0, #-1140850688	; 0xbc000000
     59c:	be2c0104 	suflte	f0, f4, f4
     5a0:	01040200 	mrseq	r0, R12_usr
     5a4:	08064a06 	stmdaeq	r6, {r1, r2, r9, fp, lr}
     5a8:	16360222 	ldrtne	r0, [r6], -r2, lsr #4
     5ac:	08d60e03 	ldmeq	r6, {r0, r1, r9, sl, fp}^
     5b0:	21083021 	tstcs	r8, r1, lsr #32
     5b4:	30210831 	eorcc	r0, r1, r1, lsr r8
     5b8:	4b302108 	blmi	c089e0 <__bss_end__+0xbfee70>
     5bc:	30210830 	eorcc	r0, r1, r0, lsr r8
     5c0:	d983834b 	stmible	r3, {r0, r1, r3, r6, r8, r9, pc}
     5c4:	02002f31 	andeq	r2, r0, #49, 30	; 0xc4
     5c8:	00650104 	rsbeq	r0, r5, r4, lsl #2
     5cc:	06020402 	streq	r0, [r2], -r2, lsl #8
     5d0:	0402004a 	streq	r0, [r2], #-74	; 0x4a
     5d4:	bf030601 	svclt	0x00030601
     5d8:	0200667f 	andeq	r6, r0, #133169152	; 0x7f00000
     5dc:	66060204 	strvs	r0, [r6], -r4, lsl #4
     5e0:	00c50306 	sbceq	r0, r5, r6, lsl #6
     5e4:	1602684a 	strne	r6, [r2], -sl, asr #16
     5e8:	9d010100 	stflss	f0, [r1, #-0]
     5ec:	02000000 	andeq	r0, r0, #0
     5f0:	00008600 	andeq	r8, r0, r0, lsl #12
     5f4:	fb010200 	blx	40dfe <__bss_end__+0x3728e>
     5f8:	01000d0e 	tsteq	r0, lr, lsl #26
     5fc:	00010101 	andeq	r0, r1, r1, lsl #2
     600:	00010000 	andeq	r0, r1, r0
     604:	74730100 	ldrbtvc	r0, [r3], #-256	; 0x100
     608:	2d666661 	stclcs	6, cr6, [r6, #-388]!	; 0xfffffe7c
     60c:	00637273 	rsbeq	r7, r3, r3, ror r2
     610:	6573552f 	ldrbvs	r5, [r3, #-1327]!	; 0x52f
     614:	622f7372 	eorvs	r7, pc, #-939524095	; 0xc8000001
     618:	6e616972 	mcrvs	9, 3, r6, cr1, cr2, {3}
     61c:	2f6e756a 	svccs	0x006e756a
     620:	6b736544 	blvs	1cd9b38 <__bss_end__+0x1ccffc8>
     624:	2f706f74 	svccs	0x00706f74
     628:	6f686373 	svcvs	0x00686373
     62c:	532f6c6f 	teqpl	pc, #28416	; 0x6f00
     630:	6e697270 	mcrvs	2, 3, r7, cr9, cr0, {3}
     634:	32393167 	eorscc	r3, r9, #-1073741799	; 0xc0000019
     638:	53432f30 	movtpl	r2, #16176	; 0x3f30
     63c:	4c303432 	cfldrsmi	mvf3, [r0], #-200	; 0xffffff38
     640:	73632f58 	cmnvc	r3, #88, 30	; 0x160
     644:	6c303432 	cfldrsvs	mvf3, [r0], #-200	; 0xffffff38
     648:	30322d78 	eorscc	r2, r2, r8, ror sp
     64c:	2f727073 	svccs	0x00727073
     650:	7062696c 	rsbvc	r6, r2, ip, ror #18
     654:	6e692f69 	cdpvs	15, 6, cr2, cr9, cr9, {3}
     658:	64756c63 	ldrbtvs	r6, [r5], #-3171	; 0xc63
     65c:	63000065 	movwvs	r0, #101	; 0x65
     660:	6e61656c 	cdpvs	5, 6, cr6, cr1, cr12, {3}
     664:	6265722d 	rsbvs	r7, r5, #-805306366	; 0xd0000002
     668:	2e746f6f 	cdpcs	15, 7, cr6, cr4, cr15, {3}
     66c:	00010063 	andeq	r0, r1, r3, rrx
     670:	69707200 	ldmdbvs	r0!, {r9, ip, sp, lr}^
     674:	0200682e 	andeq	r6, r0, #3014656	; 0x2e0000
     678:	00000000 	andeq	r0, r0, r0
     67c:	89ec0205 	stmibhi	ip!, {r0, r2, r9}^
     680:	2f150000 	svccs	0x00150000
     684:	024b832f 	subeq	r8, fp, #-1140850688	; 0xbc000000
     688:	01010006 	tsteq	r1, r6
     68c:	000000a6 	andeq	r0, r0, r6, lsr #1
     690:	00800002 	addeq	r0, r0, r2
     694:	01020000 	mrseq	r0, (UNDEF: 2)
     698:	000d0efb 	strdeq	r0, [sp], -fp
     69c:	01010101 	tsteq	r1, r1, lsl #2
     6a0:	01000000 	mrseq	r0, (UNDEF: 0)
     6a4:	73010000 	movwvc	r0, #4096	; 0x1000
     6a8:	66666174 			; <UNDEFINED> instruction: 0x66666174
     6ac:	6372732d 	cmnvs	r2, #-1275068416	; 0xb4000000
     6b0:	73552f00 	cmpvc	r5, #0, 30
     6b4:	2f737265 	svccs	0x00737265
     6b8:	61697262 	cmnvs	r9, r2, ror #4
     6bc:	6e756a6e 	vsubvs.f32	s13, s10, s29
     6c0:	7365442f 	cmnvc	r5, #788529152	; 0x2f000000
     6c4:	706f746b 	rsbvc	r7, pc, fp, ror #8
     6c8:	6863732f 	stmdavs	r3!, {r0, r1, r2, r3, r5, r8, r9, ip, sp, lr}^
     6cc:	2f6c6f6f 	svccs	0x006c6f6f
     6d0:	69727053 	ldmdbvs	r2!, {r0, r1, r4, r6, ip, sp, lr}^
     6d4:	3931676e 	ldmdbcc	r1!, {r1, r2, r3, r5, r6, r8, r9, sl, sp, lr}
     6d8:	432f3032 	teqmi	pc, #50	; 0x32
     6dc:	30343253 	eorscc	r3, r4, r3, asr r2
     6e0:	632f584c 	teqvs	pc, #76, 16	; 0x4c0000
     6e4:	30343273 	eorscc	r3, r4, r3, ror r2
     6e8:	322d786c 	eorcc	r7, sp, #108, 16	; 0x6c0000
     6ec:	72707330 	rsbsvc	r7, r0, #48, 6	; 0xc0000000
     6f0:	62696c2f 	rsbvs	r6, r9, #12032	; 0x2f00
     6f4:	692f6970 	stmdbvs	pc!, {r4, r5, r6, r8, fp, sp, lr}	; <UNPREDICTABLE>
     6f8:	756c636e 	strbvc	r6, [ip, #-878]!	; 0x36e
     6fc:	00006564 	andeq	r6, r0, r4, ror #10
     700:	61747363 	cmnvs	r4, r3, ror #6
     704:	632e7472 	teqvs	lr, #1912602624	; 0x72000000
     708:	00000100 	andeq	r0, r0, r0, lsl #2
     70c:	2e697072 	mcrcs	0, 3, r7, cr9, cr2, {3}
     710:	00020068 	andeq	r0, r2, r8, rrx
     714:	05000000 	streq	r0, [r0, #-0]
     718:	008a1802 	addeq	r1, sl, r2, lsl #16
     71c:	010c0300 	mrseq	r0, LR_mon
     720:	2d2f3132 	stfcss	f3, [pc, #-200]!	; 660 <__code_start__-0x79a0>
     724:	0402002f 	streq	r0, [r2], #-47	; 0x2f
     728:	09034901 	stmdbeq	r3, {r0, r8, fp, lr}
     72c:	2e0d034a 	cdpcs	3, 0, cr0, cr13, cr10, {2}
     730:	0006022f 	andeq	r0, r6, pc, lsr #4
     734:	00a80101 	adceq	r0, r8, r1, lsl #2
     738:	00020000 	andeq	r0, r2, r0
     73c:	00000094 	muleq	r0, r4, r0
     740:	0efb0102 	cdpeq	1, 15, cr0, cr11, cr2, {0}
     744:	0101000d 	tsteq	r1, sp
     748:	00000101 	andeq	r0, r0, r1, lsl #2
     74c:	00000100 	andeq	r0, r0, r0, lsl #2
     750:	61747301 	cmnvs	r4, r1, lsl #6
     754:	732d6666 	teqvc	sp, #106954752	; 0x6600000
     758:	2f006372 	svccs	0x00006372
     75c:	72657355 	rsbvc	r7, r5, #1409286145	; 0x54000001
     760:	72622f73 	rsbvc	r2, r2, #460	; 0x1cc
     764:	6a6e6169 	bvs	1b98d10 <__bss_end__+0x1b8f1a0>
     768:	442f6e75 	strtmi	r6, [pc], #-3701	; 770 <__code_start__-0x7890>
     76c:	746b7365 	strbtvc	r7, [fp], #-869	; 0x365
     770:	732f706f 	teqvc	pc, #111	; 0x6f
     774:	6f6f6863 	svcvs	0x006f6863
     778:	70532f6c 	subsvc	r2, r3, ip, ror #30
     77c:	676e6972 			; <UNDEFINED> instruction: 0x676e6972
     780:	30323931 	eorscc	r3, r2, r1, lsr r9
     784:	3253432f 	subscc	r4, r3, #-1140850688	; 0xbc000000
     788:	584c3034 	stmdapl	ip, {r2, r4, r5, ip, sp}^
     78c:	3273632f 	rsbscc	r6, r3, #-1140850688	; 0xbc000000
     790:	786c3034 	stmdavc	ip!, {r2, r4, r5, ip, sp}^
     794:	7330322d 	teqvc	r0, #-805306366	; 0xd0000002
     798:	6c2f7270 	sfmvs	f7, 4, [pc], #-448	; 5e0 <__code_start__-0x7a20>
     79c:	69706269 	ldmdbvs	r0!, {r0, r3, r5, r6, r9, sp, lr}^
     7a0:	636e692f 	cmnvs	lr, #770048	; 0xbc000
     7a4:	6564756c 	strbvs	r7, [r4, #-1388]!	; 0x56c
     7a8:	65640000 	strbvs	r0, [r4, #-0]!
     7ac:	6c756166 	ldfvse	f6, [r5], #-408	; 0xfffffe68
     7b0:	61682d74 	smcvs	33492	; 0x82d4
     7b4:	656c646e 	strbvs	r6, [ip, #-1134]!	; 0x46e
     7b8:	61642d72 	smcvs	17106	; 0x42d2
     7bc:	612d6174 	teqvs	sp, r4, ror r1
     7c0:	74726f62 	ldrbtvc	r6, [r2], #-3938	; 0xf62
     7c4:	0100632e 	tsteq	r0, lr, lsr #6
     7c8:	70720000 	rsbsvc	r0, r2, r0
     7cc:	00682e69 	rsbeq	r2, r8, r9, ror #28
     7d0:	00000002 	andeq	r0, r0, r2
     7d4:	50020500 	andpl	r0, r2, r0, lsl #10
     7d8:	1300008a 	movwne	r0, #138	; 0x8a
     7dc:	001c0266 	andseq	r0, ip, r6, ror #4
     7e0:	00a20101 	adceq	r0, r2, r1, lsl #2
     7e4:	00020000 	andeq	r0, r2, r0
     7e8:	0000008e 	andeq	r0, r0, lr, lsl #1
     7ec:	0efb0102 	cdpeq	1, 15, cr0, cr11, cr2, {0}
     7f0:	0101000d 	tsteq	r1, sp
     7f4:	00000101 	andeq	r0, r0, r1, lsl #2
     7f8:	00000100 	andeq	r0, r0, r0, lsl #2
     7fc:	61747301 	cmnvs	r4, r1, lsl #6
     800:	732d6666 	teqvc	sp, #106954752	; 0x6600000
     804:	2f006372 	svccs	0x00006372
     808:	72657355 	rsbvc	r7, r5, #1409286145	; 0x54000001
     80c:	72622f73 	rsbvc	r2, r2, #460	; 0x1cc
     810:	6a6e6169 	bvs	1b98dbc <__bss_end__+0x1b8f24c>
     814:	442f6e75 	strtmi	r6, [pc], #-3701	; 81c <__code_start__-0x77e4>
     818:	746b7365 	strbtvc	r7, [fp], #-869	; 0x365
     81c:	732f706f 	teqvc	pc, #111	; 0x6f
     820:	6f6f6863 	svcvs	0x006f6863
     824:	70532f6c 	subsvc	r2, r3, ip, ror #30
     828:	676e6972 			; <UNDEFINED> instruction: 0x676e6972
     82c:	30323931 	eorscc	r3, r2, r1, lsr r9
     830:	3253432f 	subscc	r4, r3, #-1140850688	; 0xbc000000
     834:	584c3034 	stmdapl	ip, {r2, r4, r5, ip, sp}^
     838:	3273632f 	rsbscc	r6, r3, #-1140850688	; 0xbc000000
     83c:	786c3034 	stmdavc	ip!, {r2, r4, r5, ip, sp}^
     840:	7330322d 	teqvc	r0, #-805306366	; 0xd0000002
     844:	6c2f7270 	sfmvs	f7, 4, [pc], #-448	; 68c <__code_start__-0x7974>
     848:	69706269 	ldmdbvs	r0!, {r0, r3, r5, r6, r9, sp, lr}^
     84c:	636e692f 	cmnvs	lr, #770048	; 0xbc000
     850:	6564756c 	strbvs	r7, [r4, #-1388]!	; 0x56c
     854:	65640000 	strbvs	r0, [r4, #-0]!
     858:	6c756166 	ldfvse	f6, [r5], #-408	; 0xfffffe68
     85c:	61682d74 	smcvs	33492	; 0x82d4
     860:	656c646e 	strbvs	r6, [ip, #-1134]!	; 0x46e
     864:	61662d72 	smcvs	25298	; 0x62d2
     868:	632e7473 	teqvs	lr, #1929379840	; 0x73000000
     86c:	00000100 	andeq	r0, r0, r0, lsl #2
     870:	2e697072 	mcrcs	0, 3, r7, cr9, cr2, {3}
     874:	00020068 	andeq	r0, r2, r8, rrx
     878:	05000000 	streq	r0, [r0, #-0]
     87c:	008a9402 	addeq	r9, sl, r2, lsl #8
     880:	02661300 	rsbeq	r1, r6, #0, 6
     884:	0101001c 	tsteq	r1, ip, lsl r0
     888:	000000a6 	andeq	r0, r0, r6, lsr #1
     88c:	00920002 	addseq	r0, r2, r2
     890:	01020000 	mrseq	r0, (UNDEF: 2)
     894:	000d0efb 	strdeq	r0, [sp], -fp
     898:	01010101 	tsteq	r1, r1, lsl #2
     89c:	01000000 	mrseq	r0, (UNDEF: 0)
     8a0:	73010000 	movwvc	r0, #4096	; 0x1000
     8a4:	66666174 			; <UNDEFINED> instruction: 0x66666174
     8a8:	6372732d 	cmnvs	r2, #-1275068416	; 0xb4000000
     8ac:	73552f00 	cmpvc	r5, #0, 30
     8b0:	2f737265 	svccs	0x00737265
     8b4:	61697262 	cmnvs	r9, r2, ror #4
     8b8:	6e756a6e 	vsubvs.f32	s13, s10, s29
     8bc:	7365442f 	cmnvc	r5, #788529152	; 0x2f000000
     8c0:	706f746b 	rsbvc	r7, pc, fp, ror #8
     8c4:	6863732f 	stmdavs	r3!, {r0, r1, r2, r3, r5, r8, r9, ip, sp, lr}^
     8c8:	2f6c6f6f 	svccs	0x006c6f6f
     8cc:	69727053 	ldmdbvs	r2!, {r0, r1, r4, r6, ip, sp, lr}^
     8d0:	3931676e 	ldmdbcc	r1!, {r1, r2, r3, r5, r6, r8, r9, sl, sp, lr}
     8d4:	432f3032 	teqmi	pc, #50	; 0x32
     8d8:	30343253 	eorscc	r3, r4, r3, asr r2
     8dc:	632f584c 	teqvs	pc, #76, 16	; 0x4c0000
     8e0:	30343273 	eorscc	r3, r4, r3, ror r2
     8e4:	322d786c 	eorcc	r7, sp, #108, 16	; 0x6c0000
     8e8:	72707330 	rsbsvc	r7, r0, #48, 6	; 0xc0000000
     8ec:	62696c2f 	rsbvs	r6, r9, #12032	; 0x2f00
     8f0:	692f6970 	stmdbvs	pc!, {r4, r5, r6, r8, fp, sp, lr}	; <UNPREDICTABLE>
     8f4:	756c636e 	strbvc	r6, [ip, #-878]!	; 0x36e
     8f8:	00006564 	andeq	r6, r0, r4, ror #10
     8fc:	61666564 	cmnvs	r6, r4, ror #10
     900:	2d746c75 	ldclcs	12, cr6, [r4, #-468]!	; 0xfffffe2c
     904:	646e6168 	strbtvs	r6, [lr], #-360	; 0x168
     908:	2d72656c 	cfldr64cs	mvdx6, [r2, #-432]!	; 0xfffffe50
     90c:	66657270 			; <UNDEFINED> instruction: 0x66657270
     910:	68637465 	stmdavs	r3!, {r0, r2, r5, r6, sl, ip, sp, lr}^
     914:	0100632e 	tsteq	r0, lr, lsr #6
     918:	70720000 	rsbsvc	r0, r2, r0
     91c:	00682e69 	rsbeq	r2, r8, r9, ror #28
     920:	00000002 	andeq	r0, r0, r2
     924:	d8020500 	stmdale	r2, {r8, sl}
     928:	1300008a 	movwne	r0, #138	; 0x8a
     92c:	001c0266 	andseq	r0, ip, r6, ror #4
     930:	00a30101 	adceq	r0, r3, r1, lsl #2
     934:	00020000 	andeq	r0, r2, r0
     938:	0000008f 	andeq	r0, r0, pc, lsl #1
     93c:	0efb0102 	cdpeq	1, 15, cr0, cr11, cr2, {0}
     940:	0101000d 	tsteq	r1, sp
     944:	00000101 	andeq	r0, r0, r1, lsl #2
     948:	00000100 	andeq	r0, r0, r0, lsl #2
     94c:	61747301 	cmnvs	r4, r1, lsl #6
     950:	732d6666 	teqvc	sp, #106954752	; 0x6600000
     954:	2f006372 	svccs	0x00006372
     958:	72657355 	rsbvc	r7, r5, #1409286145	; 0x54000001
     95c:	72622f73 	rsbvc	r2, r2, #460	; 0x1cc
     960:	6a6e6169 	bvs	1b98f0c <__bss_end__+0x1b8f39c>
     964:	442f6e75 	strtmi	r6, [pc], #-3701	; 96c <__code_start__-0x7694>
     968:	746b7365 	strbtvc	r7, [fp], #-869	; 0x365
     96c:	732f706f 	teqvc	pc, #111	; 0x6f
     970:	6f6f6863 	svcvs	0x006f6863
     974:	70532f6c 	subsvc	r2, r3, ip, ror #30
     978:	676e6972 			; <UNDEFINED> instruction: 0x676e6972
     97c:	30323931 	eorscc	r3, r2, r1, lsr r9
     980:	3253432f 	subscc	r4, r3, #-1140850688	; 0xbc000000
     984:	584c3034 	stmdapl	ip, {r2, r4, r5, ip, sp}^
     988:	3273632f 	rsbscc	r6, r3, #-1140850688	; 0xbc000000
     98c:	786c3034 	stmdavc	ip!, {r2, r4, r5, ip, sp}^
     990:	7330322d 	teqvc	r0, #-805306366	; 0xd0000002
     994:	6c2f7270 	sfmvs	f7, 4, [pc], #-448	; 7dc <__code_start__-0x7824>
     998:	69706269 	ldmdbvs	r0!, {r0, r3, r5, r6, r9, sp, lr}^
     99c:	636e692f 	cmnvs	lr, #770048	; 0xbc000
     9a0:	6564756c 	strbvs	r7, [r4, #-1388]!	; 0x56c
     9a4:	65640000 	strbvs	r0, [r4, #-0]!
     9a8:	6c756166 	ldfvse	f6, [r5], #-408	; 0xfffffe68
     9ac:	61682d74 	smcvs	33492	; 0x82d4
     9b0:	656c646e 	strbvs	r6, [ip, #-1134]!	; 0x46e
     9b4:	65722d72 	ldrbvs	r2, [r2, #-3442]!	; 0xd72
     9b8:	2e746573 	mrccs	5, 3, r6, cr4, cr3, {3}
     9bc:	00010063 	andeq	r0, r1, r3, rrx
     9c0:	69707200 	ldmdbvs	r0!, {r9, ip, sp, lr}^
     9c4:	0200682e 	andeq	r6, r0, #3014656	; 0x2e0000
     9c8:	00000000 	andeq	r0, r0, r0
     9cc:	8b1c0205 	blhi	7011e8 <__bss_end__+0x6f7678>
     9d0:	66130000 	ldrvs	r0, [r3], -r0
     9d4:	01001c02 	tsteq	r0, r2, lsl #24
     9d8:	0000a101 	andeq	sl, r0, r1, lsl #2
     9dc:	8d000200 	sfmhi	f0, 4, [r0, #-0]
     9e0:	02000000 	andeq	r0, r0, #0
     9e4:	0d0efb01 	vstreq	d15, [lr, #-4]
     9e8:	01010100 	mrseq	r0, (UNDEF: 17)
     9ec:	00000001 	andeq	r0, r0, r1
     9f0:	01000001 	tsteq	r0, r1
     9f4:	66617473 			; <UNDEFINED> instruction: 0x66617473
     9f8:	72732d66 	rsbsvc	r2, r3, #6528	; 0x1980
     9fc:	552f0063 	strpl	r0, [pc, #-99]!	; 9a1 <__code_start__-0x765f>
     a00:	73726573 	cmnvc	r2, #482344960	; 0x1cc00000
     a04:	6972622f 	ldmdbvs	r2!, {r0, r1, r2, r3, r5, r9, sp, lr}^
     a08:	756a6e61 	strbvc	r6, [sl, #-3681]!	; 0xe61
     a0c:	65442f6e 	strbvs	r2, [r4, #-3950]	; 0xf6e
     a10:	6f746b73 	svcvs	0x00746b73
     a14:	63732f70 	cmnvs	r3, #112, 30	; 0x1c0
     a18:	6c6f6f68 	stclvs	15, cr6, [pc], #-416	; 880 <__code_start__-0x7780>
     a1c:	7270532f 	rsbsvc	r5, r0, #-1140850688	; 0xbc000000
     a20:	31676e69 	cmncc	r7, r9, ror #28
     a24:	2f303239 	svccs	0x00303239
     a28:	34325343 	ldrtcc	r5, [r2], #-835	; 0x343
     a2c:	2f584c30 	svccs	0x00584c30
     a30:	34327363 	ldrtcc	r7, [r2], #-867	; 0x363
     a34:	2d786c30 	ldclcs	12, cr6, [r8, #-192]!	; 0xffffff40
     a38:	70733032 	rsbsvc	r3, r3, r2, lsr r0
     a3c:	696c2f72 	stmdbvs	ip!, {r1, r4, r5, r6, r8, r9, sl, fp, sp}^
     a40:	2f697062 	svccs	0x00697062
     a44:	6c636e69 	stclvs	14, cr6, [r3], #-420	; 0xfffffe5c
     a48:	00656475 	rsbeq	r6, r5, r5, ror r4
     a4c:	66656400 	strbtvs	r6, [r5], -r0, lsl #8
     a50:	746c7561 	strbtvc	r7, [ip], #-1377	; 0x561
     a54:	6e61682d 	cdpvs	8, 6, cr6, cr1, cr13, {1}
     a58:	72656c64 	rsbvc	r6, r5, #100, 24	; 0x6400
     a5c:	6977732d 	ldmdbvs	r7!, {r0, r2, r3, r5, r8, r9, ip, sp, lr}^
     a60:	0100632e 	tsteq	r0, lr, lsr #6
     a64:	70720000 	rsbsvc	r0, r2, r0
     a68:	00682e69 	rsbeq	r2, r8, r9, ror #28
     a6c:	00000002 	andeq	r0, r0, r2
     a70:	60020500 	andvs	r0, r2, r0, lsl #10
     a74:	1300008b 	movwne	r0, #139	; 0x8b
     a78:	001c0266 	andseq	r0, ip, r6, ror #4
     a7c:	00ac0101 	adceq	r0, ip, r1, lsl #2
     a80:	00020000 	andeq	r0, r2, r0
     a84:	00000098 	muleq	r0, r8, r0
     a88:	0efb0102 	cdpeq	1, 15, cr0, cr11, cr2, {0}
     a8c:	0101000d 	tsteq	r1, sp
     a90:	00000101 	andeq	r0, r0, r1, lsl #2
     a94:	00000100 	andeq	r0, r0, r0, lsl #2
     a98:	61747301 	cmnvs	r4, r1, lsl #6
     a9c:	732d6666 	teqvc	sp, #106954752	; 0x6600000
     aa0:	2f006372 	svccs	0x00006372
     aa4:	72657355 	rsbvc	r7, r5, #1409286145	; 0x54000001
     aa8:	72622f73 	rsbvc	r2, r2, #460	; 0x1cc
     aac:	6a6e6169 	bvs	1b99058 <__bss_end__+0x1b8f4e8>
     ab0:	442f6e75 	strtmi	r6, [pc], #-3701	; ab8 <__code_start__-0x7548>
     ab4:	746b7365 	strbtvc	r7, [fp], #-869	; 0x365
     ab8:	732f706f 	teqvc	pc, #111	; 0x6f
     abc:	6f6f6863 	svcvs	0x006f6863
     ac0:	70532f6c 	subsvc	r2, r3, ip, ror #30
     ac4:	676e6972 			; <UNDEFINED> instruction: 0x676e6972
     ac8:	30323931 	eorscc	r3, r2, r1, lsr r9
     acc:	3253432f 	subscc	r4, r3, #-1140850688	; 0xbc000000
     ad0:	584c3034 	stmdapl	ip, {r2, r4, r5, ip, sp}^
     ad4:	3273632f 	rsbscc	r6, r3, #-1140850688	; 0xbc000000
     ad8:	786c3034 	stmdavc	ip!, {r2, r4, r5, ip, sp}^
     adc:	7330322d 	teqvc	r0, #-805306366	; 0xd0000002
     ae0:	6c2f7270 	sfmvs	f7, 4, [pc], #-448	; 928 <__code_start__-0x76d8>
     ae4:	69706269 	ldmdbvs	r0!, {r0, r3, r5, r6, r9, sp, lr}^
     ae8:	636e692f 	cmnvs	lr, #770048	; 0xbc000
     aec:	6564756c 	strbvs	r7, [r4, #-1388]!	; 0x56c
     af0:	65640000 	strbvs	r0, [r4, #-0]!
     af4:	6c756166 	ldfvse	f6, [r5], #-408	; 0xfffffe68
     af8:	61682d74 	smcvs	33492	; 0x82d4
     afc:	656c646e 	strbvs	r6, [ip, #-1134]!	; 0x46e
     b00:	6e752d72 	mrcvs	13, 3, r2, cr5, cr2, {3}
     b04:	69666564 	stmdbvs	r6!, {r2, r5, r6, r8, sl, sp, lr}^
     b08:	2d64656e 	cfstr64cs	mvdx6, [r4, #-440]!	; 0xfffffe48
     b0c:	74736e69 	ldrbtvc	r6, [r3], #-3689	; 0xe69
     b10:	0100632e 	tsteq	r0, lr, lsr #6
     b14:	70720000 	rsbsvc	r0, r2, r0
     b18:	00682e69 	rsbeq	r2, r8, r9, ror #28
     b1c:	00000002 	andeq	r0, r0, r2
     b20:	a4020500 	strge	r0, [r2], #-1280	; 0x500
     b24:	1300008b 	movwne	r0, #139	; 0x8b
     b28:	001c0266 	andseq	r0, ip, r6, ror #4
     b2c:	00470101 	subeq	r0, r7, r1, lsl #2
     b30:	00020000 	andeq	r0, r2, r0
     b34:	00000033 	andeq	r0, r0, r3, lsr r0
     b38:	0efb0102 	cdpeq	1, 15, cr0, cr11, cr2, {0}
     b3c:	0101000d 	tsteq	r1, sp
     b40:	00000101 	andeq	r0, r0, r1, lsl #2
     b44:	00000100 	andeq	r0, r0, r0, lsl #2
     b48:	61747301 	cmnvs	r4, r1, lsl #6
     b4c:	732d6666 	teqvc	sp, #106954752	; 0x6600000
     b50:	00006372 	andeq	r6, r0, r2, ror r3
     b54:	61666564 	cmnvs	r6, r4, ror #10
     b58:	2d746c75 	ldclcs	12, cr6, [r4, #-468]!	; 0xfffffe2c
     b5c:	646e6168 	strbtvs	r6, [lr], #-360	; 0x168
     b60:	7372656c 	cmnvc	r2, #108, 10	; 0x1b000000
     b64:	0100632e 	tsteq	r0, lr, lsr #6
     b68:	00000000 	andeq	r0, r0, r0
     b6c:	8be80205 	blhi	ffa01388 <__bss_end__+0xff9f7818>
     b70:	2f150000 	svccs	0x00150000
     b74:	01000202 	tsteq	r0, r2, lsl #4
     b78:	0000c901 	andeq	ip, r0, r1, lsl #18
     b7c:	9a000200 	bls	1384 <__code_start__-0x6c7c>
     b80:	02000000 	andeq	r0, r0, #0
     b84:	0d0efb01 	vstreq	d15, [lr, #-4]
     b88:	01010100 	mrseq	r0, (UNDEF: 17)
     b8c:	00000001 	andeq	r0, r0, r1
     b90:	01000001 	tsteq	r0, r1
     b94:	66617473 			; <UNDEFINED> instruction: 0x66617473
     b98:	72732d66 	rsbsvc	r2, r3, #6528	; 0x1980
     b9c:	552f0063 	strpl	r0, [pc, #-99]!	; b41 <__code_start__-0x74bf>
     ba0:	73726573 	cmnvc	r2, #482344960	; 0x1cc00000
     ba4:	6972622f 	ldmdbvs	r2!, {r0, r1, r2, r3, r5, r9, sp, lr}^
     ba8:	756a6e61 	strbvc	r6, [sl, #-3681]!	; 0xe61
     bac:	65442f6e 	strbvs	r2, [r4, #-3950]	; 0xf6e
     bb0:	6f746b73 	svcvs	0x00746b73
     bb4:	63732f70 	cmnvs	r3, #112, 30	; 0x1c0
     bb8:	6c6f6f68 	stclvs	15, cr6, [pc], #-416	; a20 <__code_start__-0x75e0>
     bbc:	7270532f 	rsbsvc	r5, r0, #-1140850688	; 0xbc000000
     bc0:	31676e69 	cmncc	r7, r9, ror #28
     bc4:	2f303239 	svccs	0x00303239
     bc8:	34325343 	ldrtcc	r5, [r2], #-835	; 0x343
     bcc:	2f584c30 	svccs	0x00584c30
     bd0:	34327363 	ldrtcc	r7, [r2], #-867	; 0x363
     bd4:	2d786c30 	ldclcs	12, cr6, [r8, #-192]!	; 0xffffff40
     bd8:	70733032 	rsbsvc	r3, r3, r2, lsr r0
     bdc:	696c2f72 	stmdbvs	ip!, {r1, r4, r5, r6, r8, r9, sl, fp, sp}^
     be0:	2f697062 	svccs	0x00697062
     be4:	6c636e69 	stclvs	14, cr6, [r3], #-420	; 0xfffffe5c
     be8:	00656475 	rsbeq	r6, r5, r5, ror r4
     bec:	746e6900 	strbtvc	r6, [lr], #-2304	; 0x900
     bf0:	75727265 	ldrbvc	r7, [r2, #-613]!	; 0x265
     bf4:	2d737470 	cfldrdcs	mvd7, [r3, #-448]!	; 0xfffffe40
     bf8:	00632e63 	rsbeq	r2, r3, r3, ror #28
     bfc:	72000001 	andvc	r0, r0, #1
     c00:	692d6970 	pushvs	{r4, r5, r6, r8, fp, sp, lr}
     c04:	7265746e 	rsbvc	r7, r5, #1845493760	; 0x6e000000
     c08:	74707572 	ldrbtvc	r7, [r0], #-1394	; 0x572
     c0c:	00682e73 	rsbeq	r2, r8, r3, ror lr
     c10:	72000002 	andvc	r0, r0, #2
     c14:	682e6970 	stmdavs	lr!, {r4, r5, r6, r8, fp, sp, lr}
     c18:	00000200 	andeq	r0, r0, r0, lsl #4
     c1c:	02050000 	andeq	r0, r5, #0
     c20:	00008bf0 	strdeq	r8, [r0], -r0
     c24:	31011a03 	tstcc	r1, r3, lsl #20
     c28:	3667672f 	strbtcc	r6, [r7], -pc, lsr #14
     c2c:	002d2f83 	eoreq	r2, sp, r3, lsl #31
     c30:	2f020402 	svccs	0x00020402
     c34:	02040200 	andeq	r0, r4, #0, 4
     c38:	04020065 	streq	r0, [r2], #-101	; 0x65
     c3c:	062e0601 	strteq	r0, [lr], -r1, lsl #12
     c40:	000a024c 	andeq	r0, sl, ip, asr #4
     c44:	00a20101 	adceq	r0, r2, r1, lsl #2
     c48:	00020000 	andeq	r0, r2, r0
     c4c:	00000080 	andeq	r0, r0, r0, lsl #1
     c50:	0efb0102 	cdpeq	1, 15, cr0, cr11, cr2, {0}
     c54:	0101000d 	tsteq	r1, sp
     c58:	00000101 	andeq	r0, r0, r1, lsl #2
     c5c:	00000100 	andeq	r0, r0, r0, lsl #2
     c60:	61747301 	cmnvs	r4, r1, lsl #6
     c64:	732d6666 	teqvc	sp, #106954752	; 0x6600000
     c68:	2f006372 	svccs	0x00006372
     c6c:	72657355 	rsbvc	r7, r5, #1409286145	; 0x54000001
     c70:	72622f73 	rsbvc	r2, r2, #460	; 0x1cc
     c74:	6a6e6169 	bvs	1b99220 <__bss_end__+0x1b8f6b0>
     c78:	442f6e75 	strtmi	r6, [pc], #-3701	; c80 <__code_start__-0x7380>
     c7c:	746b7365 	strbtvc	r7, [fp], #-869	; 0x365
     c80:	732f706f 	teqvc	pc, #111	; 0x6f
     c84:	6f6f6863 	svcvs	0x006f6863
     c88:	70532f6c 	subsvc	r2, r3, ip, ror #30
     c8c:	676e6972 			; <UNDEFINED> instruction: 0x676e6972
     c90:	30323931 	eorscc	r3, r2, r1, lsr r9
     c94:	3253432f 	subscc	r4, r3, #-1140850688	; 0xbc000000
     c98:	584c3034 	stmdapl	ip, {r2, r4, r5, ip, sp}^
     c9c:	3273632f 	rsbscc	r6, r3, #-1140850688	; 0xbc000000
     ca0:	786c3034 	stmdavc	ip!, {r2, r4, r5, ip, sp}^
     ca4:	7330322d 	teqvc	r0, #-805306366	; 0xd0000002
     ca8:	6c2f7270 	sfmvs	f7, 4, [pc], #-448	; af0 <__code_start__-0x7510>
     cac:	69706269 	ldmdbvs	r0!, {r0, r3, r5, r6, r9, sp, lr}^
     cb0:	636e692f 	cmnvs	lr, #770048	; 0xbc000
     cb4:	6564756c 	strbvs	r7, [r4, #-1388]!	; 0x56c
     cb8:	65720000 	ldrbvs	r0, [r2, #-0]!
     cbc:	746f6f62 	strbtvc	r6, [pc], #-3938	; cc4 <__code_start__-0x733c>
     cc0:	0100632e 	tsteq	r0, lr, lsr #6
     cc4:	70720000 	rsbsvc	r0, r2, r0
     cc8:	00682e69 	rsbeq	r2, r8, r9, ror #28
     ccc:	00000002 	andeq	r0, r0, r2
     cd0:	5c020500 	cfstr32pl	mvfx0, [r2], {-0}
     cd4:	0300008c 	movweq	r0, #140	; 0x8c
     cd8:	3114010d 	tstcc	r4, sp, lsl #2
     cdc:	2f15852f 	svccs	0x0015852f
     ce0:	672f4d4b 	strvs	r4, [pc, -fp, asr #26]!
     ce4:	02675235 	rsbeq	r5, r7, #1342177283	; 0x50000003
     ce8:	01010010 	tsteq	r1, r0, lsl r0
     cec:	000000ae 	andeq	r0, r0, lr, lsr #1
     cf0:	007f0002 	rsbseq	r0, pc, r2
     cf4:	01020000 	mrseq	r0, (UNDEF: 2)
     cf8:	000d0efb 	strdeq	r0, [sp], -fp
     cfc:	01010101 	tsteq	r1, r1, lsl #2
     d00:	01000000 	mrseq	r0, (UNDEF: 0)
     d04:	73010000 	movwvc	r0, #4096	; 0x1000
     d08:	66666174 			; <UNDEFINED> instruction: 0x66666174
     d0c:	6372732d 	cmnvs	r2, #-1275068416	; 0xb4000000
     d10:	73552f00 	cmpvc	r5, #0, 30
     d14:	2f737265 	svccs	0x00737265
     d18:	61697262 	cmnvs	r9, r2, ror #4
     d1c:	6e756a6e 	vsubvs.f32	s13, s10, s29
     d20:	7365442f 	cmnvc	r5, #788529152	; 0x2f000000
     d24:	706f746b 	rsbvc	r7, pc, fp, ror #8
     d28:	6863732f 	stmdavs	r3!, {r0, r1, r2, r3, r5, r8, r9, ip, sp, lr}^
     d2c:	2f6c6f6f 	svccs	0x006c6f6f
     d30:	69727053 	ldmdbvs	r2!, {r0, r1, r4, r6, ip, sp, lr}^
     d34:	3931676e 	ldmdbcc	r1!, {r1, r2, r3, r5, r6, r8, r9, sl, sp, lr}
     d38:	432f3032 	teqmi	pc, #50	; 0x32
     d3c:	30343253 	eorscc	r3, r4, r3, asr r2
     d40:	632f584c 	teqvs	pc, #76, 16	; 0x4c0000
     d44:	30343273 	eorscc	r3, r4, r3, ror r2
     d48:	322d786c 	eorcc	r7, sp, #108, 16	; 0x6c0000
     d4c:	72707330 	rsbsvc	r7, r0, #48, 6	; 0xc0000000
     d50:	62696c2f 	rsbvs	r6, r9, #12032	; 0x2f00
     d54:	692f6970 	stmdbvs	pc!, {r4, r5, r6, r8, fp, sp, lr}	; <UNPREDICTABLE>
     d58:	756c636e 	strbvc	r6, [ip, #-878]!	; 0x36e
     d5c:	00006564 	andeq	r6, r0, r4, ror #10
     d60:	656d6974 	strbvs	r6, [sp, #-2420]!	; 0x974
     d64:	00632e72 	rsbeq	r2, r3, r2, ror lr
     d68:	72000001 	andvc	r0, r0, #1
     d6c:	682e6970 	stmdavs	lr!, {r4, r5, r6, r8, fp, sp, lr}
     d70:	00000200 	andeq	r0, r0, r0, lsl #4
     d74:	02050000 	andeq	r0, r5, #0
     d78:	00008cd0 	ldrdeq	r8, [r0], -r0
     d7c:	2d2f1416 	cfstrscs	mvf1, [pc, #-88]!	; d2c <__code_start__-0x72d4>
     d80:	01040200 	mrseq	r0, R12_usr
     d84:	6d062e06 	stcvs	14, cr2, [r6, #-24]	; 0xffffffe8
     d88:	4d4b2f31 	stclmi	15, cr2, [fp, #-196]	; 0xffffff3c
     d8c:	304b2f31 	subcc	r2, fp, r1, lsr pc
     d90:	2f4c4b4c 	svccs	0x004c4b4c
     d94:	842f2f6a 	strthi	r2, [pc], #-3946	; d9c <__code_start__-0x7264>
     d98:	0008022f 	andeq	r0, r8, pc, lsr #4
     d9c:	01480101 	cmpeq	r8, r1, lsl #2
     da0:	00020000 	andeq	r0, r2, r0
     da4:	00000102 	andeq	r0, r0, r2, lsl #2
     da8:	0efb0102 	cdpeq	1, 15, cr0, cr11, cr2, {0}
     dac:	0101000d 	tsteq	r1, sp
     db0:	00000101 	andeq	r0, r0, r1, lsl #2
     db4:	00000100 	andeq	r0, r0, r0, lsl #2
     db8:	73752f01 	cmnvc	r5, #1, 30
     dbc:	6e692f72 	mcrvs	15, 3, r2, cr9, cr2, {3}
     dc0:	64756c63 	ldrbtvs	r6, [r5], #-3171	; 0xc63
     dc4:	656e2f65 	strbvs	r2, [lr, #-3941]!	; 0xf65
     dc8:	62696c77 	rsbvs	r6, r9, #30464	; 0x7700
     dcc:	7379732f 	cmnvc	r9, #-1140850688	; 0xbc000000
     dd0:	73752f00 	cmnvc	r5, #0, 30
     dd4:	696c2f72 	stmdbvs	ip!, {r1, r4, r5, r6, r8, r9, sl, fp, sp}^
     dd8:	63672f62 	cmnvs	r7, #392	; 0x188
     ddc:	72612f63 	rsbvc	r2, r1, #396	; 0x18c
     de0:	6f6e2d6d 	svcvs	0x006e2d6d
     de4:	652d656e 	strvs	r6, [sp, #-1390]!	; 0x56e
     de8:	2f696261 	svccs	0x00696261
     dec:	2e332e36 	mrccs	14, 1, r2, cr3, cr6, {1}
     df0:	6e692f31 	mcrvs	15, 3, r2, cr9, cr1, {1}
     df4:	64756c63 	ldrbtvs	r6, [r5], #-3171	; 0xc63
     df8:	682f0065 	stmdavs	pc!, {r0, r2, r5, r6}	; <UNPREDICTABLE>
     dfc:	2f656d6f 	svccs	0x00656d6f
     e00:	6c676e65 	stclvs	14, cr6, [r7], #-404	; 0xfffffe6c
     e04:	632f7265 	teqvs	pc, #1342177286	; 0x50000006
     e08:	7373616c 	cmnvc	r3, #108, 2
     e0c:	3273632f 	rsbscc	r6, r3, #-1140850688	; 0xbc000000
     e10:	786c3034 	stmdavc	ip!, {r2, r4, r5, ip, sp}^
     e14:	7330322d 	teqvc	r0, #-805306366	; 0xd0000002
     e18:	2f2f7270 	svccs	0x002f7270
     e1c:	7062696c 	rsbvc	r6, r2, ip, ror #18
     e20:	682f0069 	stmdavs	pc!, {r0, r3, r5, r6}	; <UNPREDICTABLE>
     e24:	2f656d6f 	svccs	0x00656d6f
     e28:	6c676e65 	stclvs	14, cr6, [r7], #-404	; 0xfffffe6c
     e2c:	632f7265 	teqvs	pc, #1342177286	; 0x50000006
     e30:	7373616c 	cmnvc	r3, #108, 2
     e34:	3273632f 	rsbscc	r6, r3, #-1140850688	; 0xbc000000
     e38:	786c3034 	stmdavc	ip!, {r2, r4, r5, ip, sp}^
     e3c:	7330322d 	teqvc	r0, #-805306366	; 0xd0000002
     e40:	2f2f7270 	svccs	0x002f7270
     e44:	7062696c 	rsbvc	r6, r2, ip, ror #18
     e48:	74732f69 	ldrbtvc	r2, [r3], #-3945	; 0xf69
     e4c:	2d666661 	stclcs	6, cr6, [r6, #-388]!	; 0xfffffe7c
     e50:	00637273 	rsbeq	r7, r3, r3, ror r2
     e54:	72617500 	rsbvc	r7, r1, #0, 10
     e58:	00632e74 	rsbeq	r2, r3, r4, ror lr
     e5c:	6c000000 	stcvs	0, cr0, [r0], {-0}
     e60:	2e6b636f 	cdpcs	3, 6, cr6, cr11, cr15, {3}
     e64:	00010068 	andeq	r0, r1, r8, rrx
     e68:	79745f00 	ldmdbvc	r4!, {r8, r9, sl, fp, ip, lr}^
     e6c:	2e736570 	mrccs	5, 3, r6, cr3, cr0, {3}
     e70:	00010068 	andeq	r0, r1, r8, rrx
     e74:	64747300 	ldrbtvs	r7, [r4], #-768	; 0x300
     e78:	2e666564 	cdpcs	5, 6, cr6, cr6, cr4, {3}
     e7c:	00020068 	andeq	r0, r2, r8, rrx
     e80:	65657200 	strbvs	r7, [r5, #-512]!	; 0x200
     e84:	682e746e 	stmdavs	lr!, {r1, r2, r3, r5, r6, sl, ip, sp, lr}
     e88:	00000100 	andeq	r0, r0, r0, lsl #2
     e8c:	2e697072 	mcrcs	0, 3, r7, cr9, cr2, {3}
     e90:	00030068 	andeq	r0, r3, r8, rrx
     e94:	72617500 	rsbvc	r7, r1, #0, 10
     e98:	00682e74 	rsbeq	r2, r8, r4, ror lr
     e9c:	67000004 	strvs	r0, [r0, -r4]
     ea0:	2e6f6970 	mcrcs	9, 3, r6, cr15, cr0, {3}
     ea4:	00040068 	andeq	r0, r4, r8, rrx
     ea8:	05000000 	streq	r0, [r0, #-0]
     eac:	008dec02 	addeq	lr, sp, r2, lsl #24
     eb0:	012c0300 	teqeq	ip, r0, lsl #6
     eb4:	9e0c0367 	cdpls	3, 0, cr0, cr12, cr7, {3}
     eb8:	35686735 	strbcc	r6, [r8, #-1845]!	; 0x735
     ebc:	2e0c0368 	cdpcs	3, 0, cr0, cr12, cr8, {3}
     ec0:	69696b85 	stmdbvs	r9!, {r0, r2, r7, r8, r9, fp, sp, lr}^
     ec4:	6b660c03 	blvs	1983ed8 <__bss_end__+0x197a368>
     ec8:	34420867 	strbcc	r0, [r2], #-2151	; 0x867
     ecc:	68364b68 	ldmdavs	r6!, {r3, r5, r6, r8, r9, fp, lr}
     ed0:	02002f87 	andeq	r2, r0, #540	; 0x21c
     ed4:	682f0104 	stmdavs	pc!, {r2, r8}	; <UNPREDICTABLE>
     ed8:	4b673067 	blmi	19cd07c <__bss_end__+0x19c350c>
     edc:	01040200 	mrseq	r0, R12_usr
     ee0:	6967682f 	stmdbvs	r7!, {r0, r1, r2, r3, r5, fp, sp, lr}^
     ee4:	0006022e 	andeq	r0, r6, lr, lsr #4
     ee8:	012b0101 	teqeq	fp, r1, lsl #2
     eec:	00020000 	andeq	r0, r2, r0
     ef0:	000000f8 	strdeq	r0, [r0], -r8
     ef4:	0efb0102 	cdpeq	1, 15, cr0, cr11, cr2, {0}
     ef8:	0101000d 	tsteq	r1, sp
     efc:	00000101 	andeq	r0, r0, r1, lsl #2
     f00:	00000100 	andeq	r0, r0, r0, lsl #2
     f04:	73752f01 	cmnvc	r5, #1, 30
     f08:	6e692f72 	mcrvs	15, 3, r2, cr9, cr2, {3}
     f0c:	64756c63 	ldrbtvs	r6, [r5], #-3171	; 0xc63
     f10:	656e2f65 	strbvs	r2, [lr, #-3941]!	; 0xf65
     f14:	62696c77 	rsbvs	r6, r9, #30464	; 0x7700
     f18:	7379732f 	cmnvc	r9, #-1140850688	; 0xbc000000
     f1c:	73752f00 	cmnvc	r5, #0, 30
     f20:	696c2f72 	stmdbvs	ip!, {r1, r4, r5, r6, r8, r9, sl, fp, sp}^
     f24:	63672f62 	cmnvs	r7, #392	; 0x188
     f28:	72612f63 	rsbvc	r2, r1, #396	; 0x18c
     f2c:	6f6e2d6d 	svcvs	0x006e2d6d
     f30:	652d656e 	strvs	r6, [sp, #-1390]!	; 0x56e
     f34:	2f696261 	svccs	0x00696261
     f38:	2e332e36 	mrccs	14, 1, r2, cr3, cr6, {1}
     f3c:	6e692f31 	mcrvs	15, 3, r2, cr9, cr1, {1}
     f40:	64756c63 	ldrbtvs	r6, [r5], #-3171	; 0xc63
     f44:	682f0065 	stmdavs	pc!, {r0, r2, r5, r6}	; <UNPREDICTABLE>
     f48:	2f656d6f 	svccs	0x00656d6f
     f4c:	6c676e65 	stclvs	14, cr6, [r7], #-404	; 0xfffffe6c
     f50:	632f7265 	teqvs	pc, #1342177286	; 0x50000006
     f54:	7373616c 	cmnvc	r3, #108, 2
     f58:	3273632f 	rsbscc	r6, r3, #-1140850688	; 0xbc000000
     f5c:	786c3034 	stmdavc	ip!, {r2, r4, r5, ip, sp}^
     f60:	7330322d 	teqvc	r0, #-805306366	; 0xd0000002
     f64:	2f2f7270 	svccs	0x002f7270
     f68:	7062696c 	rsbvc	r6, r2, ip, ror #18
     f6c:	682f0069 	stmdavs	pc!, {r0, r3, r5, r6}	; <UNPREDICTABLE>
     f70:	2f656d6f 	svccs	0x00656d6f
     f74:	6c676e65 	stclvs	14, cr6, [r7], #-404	; 0xfffffe6c
     f78:	632f7265 	teqvs	pc, #1342177286	; 0x50000006
     f7c:	7373616c 	cmnvc	r3, #108, 2
     f80:	3273632f 	rsbscc	r6, r3, #-1140850688	; 0xbc000000
     f84:	786c3034 	stmdavc	ip!, {r2, r4, r5, ip, sp}^
     f88:	7330322d 	teqvc	r0, #-805306366	; 0xd0000002
     f8c:	2f2f7270 	svccs	0x002f7270
     f90:	7062696c 	rsbvc	r6, r2, ip, ror #18
     f94:	74732f69 	ldrbtvc	r2, [r3], #-3945	; 0xf69
     f98:	2d666661 	stclcs	6, cr6, [r6, #-388]!	; 0xfffffe7c
     f9c:	00637273 	rsbeq	r7, r3, r3, ror r2
     fa0:	69706700 	ldmdbvs	r0!, {r8, r9, sl, sp, lr}^
     fa4:	00632e6f 	rsbeq	r2, r3, pc, ror #28
     fa8:	6c000000 	stcvs	0, cr0, [r0], {-0}
     fac:	2e6b636f 	cdpcs	3, 6, cr6, cr11, cr15, {3}
     fb0:	00010068 	andeq	r0, r1, r8, rrx
     fb4:	79745f00 	ldmdbvc	r4!, {r8, r9, sl, fp, ip, lr}^
     fb8:	2e736570 	mrccs	5, 3, r6, cr3, cr0, {3}
     fbc:	00010068 	andeq	r0, r1, r8, rrx
     fc0:	64747300 	ldrbtvs	r7, [r4], #-768	; 0x300
     fc4:	2e666564 	cdpcs	5, 6, cr6, cr6, cr4, {3}
     fc8:	00020068 	andeq	r0, r2, r8, rrx
     fcc:	65657200 	strbvs	r7, [r5, #-512]!	; 0x200
     fd0:	682e746e 	stmdavs	lr!, {r1, r2, r3, r5, r6, sl, ip, sp, lr}
     fd4:	00000100 	andeq	r0, r0, r0, lsl #2
     fd8:	2e697072 	mcrcs	0, 3, r7, cr9, cr2, {3}
     fdc:	00030068 	andeq	r0, r3, r8, rrx
     fe0:	69706700 	ldmdbvs	r0!, {r8, r9, sl, sp, lr}^
     fe4:	00682e6f 	rsbeq	r2, r8, pc, ror #28
     fe8:	00000004 	andeq	r0, r0, r4
     fec:	64020500 	strvs	r0, [r2], #-1280	; 0x500
     ff0:	0300008f 	movweq	r0, #143	; 0x8f
     ff4:	4c130127 	ldfmis	f0, [r3], {39}	; 0x27
     ff8:	68f44f47 	ldmvs	r4!, {r0, r1, r2, r6, r8, r9, sl, fp, lr}^
     ffc:	2fa14c4b 	svccs	0x00a14c4b
    1000:	3149136a 	cmpcc	r9, sl, ror #6
    1004:	314913be 	strhcc	r1, [r9, #-62]	; 0xffffffc2
    1008:	2f6a2fbe 	svccs	0x006a2fbe
    100c:	134f484d 	movtne	r4, #63565	; 0xf84d
    1010:	b72f3249 	strlt	r3, [pc, -r9, asr #4]!
    1014:	01000602 	tsteq	r0, r2, lsl #12
    1018:	00009401 	andeq	r9, r0, r1, lsl #8
    101c:	7c000200 	sfmvc	f0, 4, [r0], {-0}
    1020:	02000000 	andeq	r0, r0, #0
    1024:	0d0efb01 	vstreq	d15, [lr, #-4]
    1028:	01010100 	mrseq	r0, (UNDEF: 17)
    102c:	00000001 	andeq	r0, r0, r1
    1030:	01000001 	tsteq	r0, r1
    1034:	6362696c 	cmnvs	r2, #108, 18	; 0x1b0000
    1038:	73552f00 	cmpvc	r5, #0, 30
    103c:	2f737265 	svccs	0x00737265
    1040:	61697262 	cmnvs	r9, r2, ror #4
    1044:	6e756a6e 	vsubvs.f32	s13, s10, s29
    1048:	7365442f 	cmnvc	r5, #788529152	; 0x2f000000
    104c:	706f746b 	rsbvc	r7, pc, fp, ror #8
    1050:	6863732f 	stmdavs	r3!, {r0, r1, r2, r3, r5, r8, r9, ip, sp, lr}^
    1054:	2f6c6f6f 	svccs	0x006c6f6f
    1058:	69727053 	ldmdbvs	r2!, {r0, r1, r4, r6, ip, sp, lr}^
    105c:	3931676e 	ldmdbcc	r1!, {r1, r2, r3, r5, r6, r8, r9, sl, sp, lr}
    1060:	432f3032 	teqmi	pc, #50	; 0x32
    1064:	30343253 	eorscc	r3, r4, r3, asr r2
    1068:	632f584c 	teqvs	pc, #76, 16	; 0x4c0000
    106c:	30343273 	eorscc	r3, r4, r3, ror r2
    1070:	322d786c 	eorcc	r7, sp, #108, 16	; 0x6c0000
    1074:	72707330 	rsbsvc	r7, r0, #48, 6	; 0xc0000000
    1078:	62696c2f 	rsbvs	r6, r9, #12032	; 0x2f00
    107c:	692f6970 	stmdbvs	pc!, {r4, r5, r6, r8, fp, sp, lr}	; <UNPREDICTABLE>
    1080:	756c636e 	strbvc	r6, [ip, #-878]!	; 0x36e
    1084:	00006564 	andeq	r6, r0, r4, ror #10
    1088:	63747570 	cmnvs	r4, #112, 10	; 0x1c000000
    108c:	2e726168 	rpwcssz	f6, f2, #0.0
    1090:	00010063 	andeq	r0, r1, r3, rrx
    1094:	69707200 	ldmdbvs	r0!, {r9, ip, sp, lr}^
    1098:	0200682e 	andeq	r6, r0, #3014656	; 0x2e0000
    109c:	00000000 	andeq	r0, r0, r0
    10a0:	90840205 	addls	r0, r4, r5, lsl #4
    10a4:	4a140000 	bmi	5010ac <__bss_end__+0x4f753c>
    10a8:	13bc136b 			; <UNDEFINED> instruction: 0x13bc136b
    10ac:	01000802 	tsteq	r0, r2, lsl #16
    10b0:	Address 0x00000000000010b0 is out of bounds.


Disassembly of section .debug_str:

00000000 <.debug_str>:
   0:	5f746f74 	svcpl	0x00746f74
   4:	63657375 	cmnvs	r5, #-738197503	; 0xd4000001
   8:	746f6e00 	strbtvc	r6, [pc], #-3584	; 10 <__code_start__-0x7ff0>
   c:	6e69616d 	powvsez	f6, f1, #5.0
  10:	6d726100 	ldfvse	f6, [r2, #-0]
  14:	6d69745f 	cfstrdvs	mvd7, [r9, #-380]!	; 0xfffffe84
  18:	525f7265 	subspl	r7, pc, #1342177286	; 0x50000006
  1c:	52495741 	subpl	r5, r9, #17039360	; 0x1040000
  20:	61750051 	cmnvs	r5, r1, asr r0
  24:	695f7472 	ldmdbvs	pc, {r1, r4, r5, r6, sl, ip, sp, lr}^	; <UNPREDICTABLE>
  28:	0074696e 	rsbseq	r6, r4, lr, ror #18
  2c:	69726570 	ldmdbvs	r2!, {r4, r5, r6, r8, sl, sp, lr}^
  30:	6c00646f 	cfstrsvs	mvf6, [r0], {111}	; 0x6f
  34:	20676e6f 	rsbcs	r6, r7, pc, ror #28
  38:	676e6f6c 	strbvs	r6, [lr, -ip, ror #30]!
  3c:	736e7520 	cmnvc	lr, #32, 10	; 0x8000000
  40:	656e6769 	strbvs	r6, [lr, #-1897]!	; 0x769
  44:	6e692064 	cdpvs	0, 6, cr2, cr9, cr4, {3}
  48:	69440074 	stmdbvs	r4, {r2, r4, r5, r6}^
  4c:	6c626173 	stfvse	f6, [r2], #-460	; 0xfffffe34
  50:	52495f65 	subpl	r5, r9, #404	; 0x194
  54:	315f7351 	cmpcc	pc, r1, asr r3	; <UNPREDICTABLE>
  58:	73694400 	cmnvc	r9, #0, 8
  5c:	656c6261 	strbvs	r6, [ip, #-609]!	; 0x261
  60:	5152495f 	cmppl	r2, pc, asr r9
  64:	00325f73 	eorseq	r5, r2, r3, ror pc
  68:	676e6f6c 	strbvs	r6, [lr, -ip, ror #30]!
  6c:	6e6f6c20 	cdpvs	12, 6, cr6, cr15, cr0, {1}
  70:	6e692067 	cdpvs	0, 6, cr2, cr9, cr7, {3}
  74:	69740074 	ldmdbvs	r4!, {r2, r4, r5, r6}^
  78:	5f72656d 	svcpl	0x0072656d
  7c:	65746e69 	ldrbvs	r6, [r4, #-3689]!	; 0xe69
  80:	70757272 	rsbsvc	r7, r5, r2, ror r2
  84:	6e695f74 	mcrvs	15, 3, r5, cr9, cr4, {3}
  88:	70007469 	andvc	r7, r0, r9, ror #8
  8c:	6f697265 	svcvs	0x00697265
  90:	75735f64 	ldrbvc	r5, [r3, #-3940]!	; 0xf64
  94:	7261006d 	rsbvc	r0, r1, #109	; 0x6d
  98:	69745f6d 	ldmdbvs	r4!, {r0, r2, r3, r5, r6, r8, r9, sl, fp, ip, lr}^
  9c:	5f72656d 	svcpl	0x0072656d
  a0:	746e6f43 	strbtvc	r6, [lr], #-3907	; 0xf43
  a4:	006c6f72 	rsbeq	r6, ip, r2, ror pc
  a8:	5f6d7261 	svcpl	0x006d7261
  ac:	656d6974 	strbvs	r6, [sp, #-2420]!	; 0x974
  b0:	6f4c5f72 	svcvs	0x004c5f72
  b4:	61006461 	tstvs	r0, r1, ror #8
  b8:	745f6d72 	ldrbvc	r6, [pc], #-3442	; c0 <__code_start__-0x7f40>
  bc:	72656d69 	rsbvc	r6, r5, #6720	; 0x1a40
  c0:	7361425f 	cmnvc	r1, #-268435451	; 0xf0000005
  c4:	52490065 	subpl	r0, r9, #101	; 0x65
  c8:	61425f51 	cmpvs	r2, r1, asr pc
  cc:	61006573 	tstvs	r0, r3, ror r5
  d0:	745f6d72 	ldrbvc	r6, [pc], #-3442	; d8 <__code_start__-0x7f28>
  d4:	72656d69 	rsbvc	r6, r5, #6720	; 0x1a40
  d8:	73614d5f 	cmnvc	r1, #6080	; 0x17c0
  dc:	4964656b 	stmdbmi	r4!, {r0, r1, r3, r5, r6, r8, sl, sp, lr}^
  e0:	49005152 	stmdbmi	r0, {r1, r4, r6, r8, ip, lr}
  e4:	705f5152 	subsvc	r5, pc, r2, asr r1	; <UNPREDICTABLE>
  e8:	69646e65 	stmdbvs	r4!, {r0, r2, r5, r6, r9, sl, fp, sp, lr}^
  ec:	315f676e 	cmpcc	pc, lr, ror #14
  f0:	51524900 	cmppl	r2, r0, lsl #18
  f4:	6e65705f 	mcrvs	0, 3, r7, cr5, cr15, {2}
  f8:	676e6964 	strbvs	r6, [lr, -r4, ror #18]!
  fc:	4400325f 	strmi	r3, [r0], #-607	; 0x25f
 100:	62617369 	rsbvs	r7, r1, #-1543503871	; 0xa4000001
 104:	425f656c 	subsmi	r6, pc, #108, 10	; 0x1b000000
 108:	63697361 	cmnvs	r9, #-2080374783	; 0x84000001
 10c:	5152495f 	cmppl	r2, pc, asr r9
 110:	68730073 	ldmdavs	r3!, {r0, r1, r4, r5, r6}^
 114:	2074726f 	rsbscs	r7, r4, pc, ror #4
 118:	69736e75 	ldmdbvs	r3!, {r0, r2, r4, r5, r6, r9, sl, fp, sp, lr}^
 11c:	64656e67 	strbtvs	r6, [r5], #-3687	; 0xe67
 120:	746e6920 	strbtvc	r6, [lr], #-2336	; 0x920
 124:	76656400 	strbtvc	r6, [r5], -r0, lsl #8
 128:	7261625f 	rsbvc	r6, r1, #-268435451	; 0xf0000005
 12c:	72656972 	rsbvc	r6, r5, #1867776	; 0x1c8000
 130:	616e4500 	cmnvs	lr, r0, lsl #10
 134:	5f656c62 	svcpl	0x00656c62
 138:	73515249 	cmpvc	r1, #-1879048188	; 0x90000004
 13c:	4500315f 	strmi	r3, [r0, #-351]	; 0x15f
 140:	6c62616e 	stfvse	f6, [r2], #-440	; 0xfffffe48
 144:	52495f65 	subpl	r5, r9, #404	; 0x194
 148:	325f7351 	subscc	r7, pc, #1140850689	; 0x44000001
 14c:	69616d00 	stmdbvs	r1!, {r8, sl, fp, sp, lr}^
 150:	00632e6e 	rsbeq	r2, r3, lr, ror #28
 154:	72657469 	rsbvc	r7, r5, #1761607680	; 0x69000000
 158:	7a697300 	bvc	1a5cd60 <__bss_end__+0x1a531f0>
 15c:	70797465 	rsbsvc	r7, r9, r5, ror #8
 160:	6f740065 	svcvs	0x00740065
 164:	736d5f74 	cmnvc	sp, #116, 30	; 0x1d0
 168:	6d726100 	ldfvse	f6, [r2, #-0]
 16c:	6d69745f 	cfstrdvs	mvd7, [r9, #-380]!	; 0xfffffe84
 170:	525f7265 	subspl	r7, pc, #1342177286	; 0x50000006
 174:	616f6c65 	cmnvs	pc, r5, ror #24
 178:	45470064 	strbmi	r0, [r7, #-100]	; 0x64
 17c:	00323354 	eorseq	r3, r2, r4, asr r3
 180:	5f746e69 	svcpl	0x00746e69
 184:	74696e69 	strbtvc	r6, [r9], #-3689	; 0xe69
 188:	756f5f00 	strbvc	r5, [pc, #-3840]!	; fffff290 <__bss_end__+0xffff5720>
 18c:	69740074 	ldmdbvs	r4!, {r2, r4, r5, r6}^
 190:	5f72656d 	svcpl	0x0072656d
 194:	5f746567 	svcpl	0x00746567
 198:	63657375 	cmnvs	r5, #-738197503	; 0xd4000001
 19c:	7761725f 			; <UNDEFINED> instruction: 0x7761725f
 1a0:	73797300 	cmnvc	r9, #0, 6
 1a4:	5f6d6574 	svcpl	0x006d6574
 1a8:	62616e65 	rsbvs	r6, r1, #1616	; 0x650
 1ac:	695f656c 	ldmdbvs	pc, {r2, r3, r5, r6, r8, sl, sp, lr}^	; <UNPREDICTABLE>
 1b0:	7265746e 	rsbvc	r7, r5, #1845493760	; 0x6e000000
 1b4:	74707572 	ldrbtvc	r7, [r0], #-1394	; 0x572
 1b8:	6e750073 	mrcvs	0, 3, r0, cr5, cr3, {3}
 1bc:	6e676973 	mcrvs	9, 3, r6, cr7, cr3, {3}
 1c0:	63206465 	teqvs	r0, #1694498816	; 0x65000000
 1c4:	00726168 	rsbseq	r6, r2, r8, ror #2
 1c8:	726f6873 	rsbvc	r6, pc, #7536640	; 0x730000
 1cc:	6e692074 	mcrvs	0, 3, r2, cr9, cr4, {3}
 1d0:	552f0074 	strpl	r0, [pc, #-116]!	; 164 <__code_start__-0x7e9c>
 1d4:	73726573 	cmnvc	r2, #482344960	; 0x1cc00000
 1d8:	6972622f 	ldmdbvs	r2!, {r0, r1, r2, r3, r5, r9, sp, lr}^
 1dc:	756a6e61 	strbvc	r6, [sl, #-3681]!	; 0xe61
 1e0:	65442f6e 	strbvs	r2, [r4, #-3950]	; 0xf6e
 1e4:	6f746b73 	svcvs	0x00746b73
 1e8:	63732f70 	cmnvs	r3, #112, 30	; 0x1c0
 1ec:	6c6f6f68 	stclvs	15, cr6, [pc], #-416	; 54 <__code_start__-0x7fac>
 1f0:	7270532f 	rsbsvc	r5, r0, #-1140850688	; 0xbc000000
 1f4:	31676e69 	cmncc	r7, r9, ror #28
 1f8:	2f303239 	svccs	0x00303239
 1fc:	34325343 	ldrtcc	r5, [r2], #-835	; 0x343
 200:	2f584c30 	svccs	0x00584c30
 204:	34327363 	ldrtcc	r7, [r2], #-867	; 0x363
 208:	2d786c30 	ldclcs	12, cr6, [r8, #-192]!	; 0xffffff40
 20c:	70733032 	rsbsvc	r3, r3, r2, lsr r0
 210:	616c2f72 	smcvs	49906	; 0xc2f2
 214:	312f7362 	teqcc	pc, r2, ror #6
 218:	6e692d32 	mcrvs	13, 3, r2, cr9, cr2, {1}
 21c:	72726574 	rsbsvc	r6, r2, #116, 10	; 0x1d000000
 220:	2d747075 	ldclcs	0, cr7, [r4, #-468]!	; 0xfffffe2c
 224:	65736162 	ldrbvs	r6, [r3, #-354]!	; 0x162
 228:	68632d64 	stmdavs	r3!, {r2, r5, r6, r8, sl, fp, sp}^
 22c:	736b6365 	cmnvc	fp, #-1811939327	; 0x94000001
 230:	6d69742f 	cfstrdvs	mvd7, [r9, #-188]!	; 0xffffff44
 234:	692d7265 	pushvs	{r0, r2, r5, r6, r9, ip, sp, lr}
 238:	4700746e 	strmi	r7, [r0, -lr, ror #8]
 23c:	4320554e 	teqmi	r0, #327155712	; 0x13800000
 240:	382e3420 	stmdacc	lr!, {r5, sl, ip, sp}
 244:	2d20332e 	stccs	3, cr3, [r0, #-184]!	; 0xffffff48
 248:	7570636d 	ldrbvc	r6, [r0, #-877]!	; 0x36d
 24c:	6d72613d 	ldfvse	f6, [r2, #-244]!	; 0xffffff0c
 250:	36373131 			; <UNDEFINED> instruction: 0x36373131
 254:	2d667a6a 	vstmdbcs	r6!, {s15-s120}
 258:	6d2d2073 	stcvs	0, cr2, [sp, #-460]!	; 0xfffffe34
 25c:	656e7574 	strbvs	r7, [lr, #-1396]!	; 0x574
 260:	6d72613d 	ldfvse	f6, [r2, #-244]!	; 0xffffff0c
 264:	36373131 			; <UNDEFINED> instruction: 0x36373131
 268:	2d667a6a 	vstmdbcs	r6!, {s15-s120}
 26c:	672d2073 			; <UNDEFINED> instruction: 0x672d2073
 270:	20626467 	rsbcs	r6, r2, r7, ror #8
 274:	20674f2d 	rsbcs	r4, r7, sp, lsr #30
 278:	6474732d 	ldrbtvs	r7, [r4], #-813	; 0x32d
 27c:	756e673d 	strbvc	r6, [lr, #-1853]!	; 0x73d
 280:	2d203939 	stccs	9, cr3, [r0, #-228]!	; 0xffffff1c
 284:	65726666 	ldrbvs	r6, [r2, #-1638]!	; 0x666
 288:	61747365 	cmnvs	r4, r5, ror #6
 28c:	6e69646e 	cdpvs	4, 6, cr6, cr9, cr14, {3}
 290:	72610067 	rsbvc	r0, r1, #103	; 0x67
 294:	69745f6d 	ldmdbvs	r4!, {r0, r2, r3, r5, r6, r8, r9, sl, fp, ip, lr}^
 298:	5f72656d 	svcpl	0x0072656d
 29c:	44657250 	strbtmi	r7, [r5], #-592	; 0x250
 2a0:	64697669 	strbtvs	r7, [r9], #-1641	; 0x669
 2a4:	49007265 	stmdbmi	r0, {r0, r2, r5, r6, r9, ip, sp, lr}
 2a8:	625f5152 	subsvs	r5, pc, #-2147483628	; 0x80000014
 2ac:	63697361 	cmnvs	r9, #-2080374783	; 0x84000001
 2b0:	6e65705f 	mcrvs	0, 3, r7, cr5, cr15, {2}
 2b4:	676e6964 	strbvs	r6, [lr, -r4, ror #18]!
 2b8:	616e4500 	cmnvs	lr, r0, lsl #10
 2bc:	5f656c62 	svcpl	0x00656c62
 2c0:	69736142 	ldmdbvs	r3!, {r1, r6, r8, sp, lr}^
 2c4:	52495f63 	subpl	r5, r9, #396	; 0x18c
 2c8:	61007351 	tstvs	r0, r1, asr r3
 2cc:	745f6d72 	ldrbvc	r6, [pc], #-3442	; 2d4 <__code_start__-0x7d2c>
 2d0:	72656d69 	rsbvc	r6, r5, #6720	; 0x1a40
 2d4:	6c61565f 	stclvs	6, cr5, [r1], #-380	; 0xfffffe84
 2d8:	61006575 	tstvs	r0, r5, ror r5
 2dc:	745f6d72 	ldrbvc	r6, [pc], #-3442	; 2e4 <__code_start__-0x7d1c>
 2e0:	72656d69 	rsbvc	r6, r5, #6720	; 0x1a40
 2e4:	5152495f 	cmppl	r2, pc, asr r9
 2e8:	61656c43 	cmnvs	r5, r3, asr #24
 2ec:	69740072 	ldmdbvs	r4!, {r1, r4, r5, r6}^
 2f0:	5f72656d 	svcpl	0x0072656d
 2f4:	5f746567 	svcpl	0x00746567
 2f8:	63657375 	cmnvs	r5, #-738197503	; 0xd4000001
 2fc:	51494600 	cmppl	r9, r0, lsl #12
 300:	6e6f635f 	mcrvs	3, 3, r6, cr15, cr15, {2}
 304:	6c6f7274 	sfmvs	f7, 2, [pc], #-464	; 13c <__code_start__-0x7ec4>
 308:	746f7400 	strbtvc	r7, [pc], #-1024	; 310 <__code_start__-0x7cf0>
 30c:	6365735f 	cmnvs	r5, #2080374785	; 0x7c000001
 310:	73616c00 	cmnvc	r1, #0, 24
 314:	6c635f74 	stclvs	15, cr5, [r3], #-464	; 0xfffffe30
 318:	5550006b 	ldrbpl	r0, [r0, #-107]	; 0x6b
 31c:	00323354 	eorseq	r3, r2, r4, asr r3
 320:	5f6d7261 	svcpl	0x006d7261
 324:	656d6974 	strbvs	r6, [sp, #-2420]!	; 0x974
 328:	72465f72 	subvc	r5, r6, #456	; 0x1c8
 32c:	75526565 	ldrbvc	r6, [r2, #-1381]	; 0x565
 330:	6e696e6e 	cdpvs	14, 6, cr6, cr9, cr14, {3}
 334:	756f4367 	strbvc	r4, [pc, #-871]!	; ffffffd5 <__bss_end__+0xffff6465>
 338:	7265746e 	rsbvc	r7, r5, #1845493760	; 0x6e000000
 33c:	6d697400 	cfstrdvs	mvd7, [r9, #-0]
 340:	655f7265 	ldrbvs	r7, [pc, #-613]	; e3 <__code_start__-0x7f1d>
 344:	6c62616e 	stfvse	f6, [r2], #-440	; 0xfffffe48
 348:	74006465 	strvc	r6, [r0], #-1125	; 0x465
 34c:	72656d69 	rsbvc	r6, r5, #6720	; 0x1a40
 350:	6568635f 	strbvs	r6, [r8, #-863]!	; 0x35f
 354:	6f5f6b63 	svcvs	0x005f6b63
 358:	65736666 	ldrbvs	r6, [r3, #-1638]!	; 0x666
 35c:	72007374 	andvc	r7, r0, #116, 6	; 0xd0000001
 360:	615f6970 	cmpvs	pc, r0, ror r9	; <UNPREDICTABLE>
 364:	745f6d72 	ldrbvc	r6, [pc], #-3442	; 36c <__code_start__-0x7c94>
 368:	72656d69 	rsbvc	r6, r5, #6720	; 0x1a40
 36c:	7274635f 	rsbsvc	r6, r4, #2080374785	; 0x7c000001
 370:	00745f6c 	rsbseq	r5, r4, ip, ror #30
 374:	6379636e 	cmnvs	r9, #-1207959551	; 0xb8000001
 378:	0073656c 	rsbseq	r6, r3, ip, ror #10
 37c:	656d6974 	strbvs	r6, [sp, #-2420]!	; 0x974
 380:	6e692d72 	mcrvs	13, 3, r2, cr9, cr2, {3}
 384:	72726574 	rsbsvc	r6, r2, #116, 10	; 0x1d000000
 388:	2e747075 	mrccs	0, 3, r7, cr4, cr5, {3}
 38c:	73750063 	cmnvc	r5, #99	; 0x63
 390:	32335f65 	eorscc	r5, r3, #404	; 0x194
 394:	5f746962 	svcpl	0x00746962
 398:	6e756f63 	cdpvs	15, 7, cr6, cr5, cr3, {3}
 39c:	00726574 	rsbseq	r6, r2, r4, ror r5
 3a0:	5f746e69 	svcpl	0x00746e69
 3a4:	62616e65 	rsbvs	r6, r1, #1616	; 0x650
 3a8:	0064656c 	rsbeq	r6, r4, ip, ror #10
 3ac:	55465f5f 	strbpl	r5, [r6, #-3935]	; 0xf5f
 3b0:	4954434e 	ldmdbmi	r4, {r1, r2, r3, r6, r8, r9, lr}^
 3b4:	5f5f4e4f 	svcpl	0x005f4e4f
 3b8:	756f6300 	strbvc	r6, [pc, #-768]!	; c0 <__code_start__-0x7f40>
 3bc:	7265746e 	rsbvc	r7, r5, #1845493760	; 0x6e000000
 3c0:	616e655f 	cmnvs	lr, pc, asr r5
 3c4:	64656c62 	strbtvs	r6, [r5], #-3170	; 0xc62
 3c8:	756f6300 	strbvc	r6, [pc, #-768]!	; d0 <__code_start__-0x7f30>
 3cc:	7265746e 	rsbvc	r7, r5, #1845493760	; 0x6e000000
 3d0:	6572705f 	ldrbvs	r7, [r2, #-95]!	; 0x5f
 3d4:	6c616373 	stclvs	3, cr6, [r1], #-460	; 0xfffffe34
 3d8:	75007265 	strvc	r7, [r0, #-613]	; 0x265
 3dc:	33746e69 	cmncc	r4, #1680	; 0x690
 3e0:	00745f32 	rsbseq	r5, r4, r2, lsr pc
 3e4:	6e675f5f 	mcrvs	15, 3, r5, cr7, cr15, {2}
 3e8:	765f6375 			; <UNDEFINED> instruction: 0x765f6375
 3ec:	696c5f61 	stmdbvs	ip!, {r0, r5, r6, r8, r9, sl, fp, ip, lr}^
 3f0:	6c007473 	cfstrsvs	mvf7, [r0], {115}	; 0x73
 3f4:	2f636269 	svccs	0x00636269
 3f8:	6e697270 	mcrvs	2, 3, r7, cr9, cr0, {3}
 3fc:	632e6b74 	teqvs	lr, #116, 22	; 0x1d000
 400:	5f617600 	svcpl	0x00617600
 404:	6e697270 	mcrvs	2, 3, r7, cr9, cr0, {3}
 408:	5f006b74 	svcpl	0x00006b74
 40c:	5f61765f 	svcpl	0x0061765f
 410:	7473696c 	ldrbtvc	r6, [r3], #-2412	; 0x96c
 414:	73552f00 	cmpvc	r5, #0, 30
 418:	2f737265 	svccs	0x00737265
 41c:	61697262 	cmnvs	r9, r2, ror #4
 420:	6e756a6e 	vsubvs.f32	s13, s10, s29
 424:	7365442f 	cmnvc	r5, #788529152	; 0x2f000000
 428:	706f746b 	rsbvc	r7, pc, fp, ror #8
 42c:	6863732f 	stmdavs	r3!, {r0, r1, r2, r3, r5, r8, r9, ip, sp, lr}^
 430:	2f6c6f6f 	svccs	0x006c6f6f
 434:	69727053 	ldmdbvs	r2!, {r0, r1, r4, r6, ip, sp, lr}^
 438:	3931676e 	ldmdbcc	r1!, {r1, r2, r3, r5, r6, r8, r9, sl, sp, lr}
 43c:	432f3032 	teqmi	pc, #50	; 0x32
 440:	30343253 	eorscc	r3, r4, r3, asr r2
 444:	632f584c 	teqvs	pc, #76, 16	; 0x4c0000
 448:	30343273 	eorscc	r3, r4, r3, ror r2
 44c:	322d786c 	eorcc	r7, sp, #108, 16	; 0x6c0000
 450:	72707330 	rsbsvc	r7, r0, #48, 6	; 0xc0000000
 454:	62696c2f 	rsbvs	r6, r9, #12032	; 0x2f00
 458:	5f006970 	svcpl	0x00006970
 45c:	0070615f 	rsbseq	r6, r0, pc, asr r1
 460:	6362696c 	cmnvs	r2, #108, 18	; 0x1b0000
 464:	7475702f 	ldrbtvc	r7, [r5], #-47	; 0x2f
 468:	00632e6b 	rsbeq	r2, r3, fp, ror #28
 46c:	65746e69 	ldrbvs	r6, [r4, #-3689]!	; 0xe69
 470:	6c616e72 	stclvs	14, cr6, [r1], #-456	; 0xfffffe38
 474:	7475705f 	ldrbtvc	r7, [r5], #-95	; 0x5f
 478:	7072006b 	rsbsvc	r0, r2, fp, rrx
 47c:	75705f69 	ldrbvc	r5, [r0, #-3945]!	; 0xf69
 480:	61686374 	smcvs	34356	; 0x8634
 484:	6d660072 	stclvs	0, cr0, [r6, #-456]!	; 0xfffffe38
 488:	74735f74 	ldrbtvc	r5, [r3], #-3956	; 0xf74
 48c:	00747261 	rsbseq	r7, r4, r1, ror #4
 490:	5f67656e 	svcpl	0x0067656e
 494:	65720070 	ldrbvs	r0, [r2, #-112]!	; 0x70
 498:	73726576 	cmnvc	r2, #494927872	; 0x1d800000
 49c:	73690065 	cmnvc	r9, #101	; 0x65
 4a0:	69676964 	stmdbvs	r7!, {r2, r5, r6, r8, fp, sp, lr}^
 4a4:	75700074 	ldrbvc	r0, [r0, #-116]!	; 0x74
 4a8:	665f7374 			; <UNDEFINED> instruction: 0x665f7374
 4ac:	69730070 	ldmdbvs	r3!, {r4, r5, r6}^
 4b0:	64656e67 	strbtvs	r6, [r5], #-3687	; 0xe67
 4b4:	6c00705f 	stcvs	0, cr7, [r0], {95}	; 0x5f
 4b8:	2f636269 	svccs	0x00636269
 4bc:	702d6176 	eorvc	r6, sp, r6, ror r1
 4c0:	746e6972 	strbtvc	r6, [lr], #-2418	; 0x972
 4c4:	00632e6b 	rsbeq	r2, r3, fp, ror #28
 4c8:	61656c63 	cmnvs	r5, r3, ror #24
 4cc:	65725f6e 	ldrbvs	r5, [r2, #-3950]!	; 0xf6e
 4d0:	746f6f62 	strbtvc	r6, [pc], #-3938	; 4d8 <__code_start__-0x7b28>
 4d4:	69707200 	ldmdbvs	r0!, {r9, ip, sp, lr}^
 4d8:	7465735f 	strbtvc	r7, [r5], #-863	; 0x35f
 4dc:	74756f5f 	ldrbtvc	r6, [r5], #-3935	; 0xf5f
 4e0:	00747570 	rsbseq	r7, r4, r0, ror r5
 4e4:	74646977 	strbtvc	r6, [r4], #-2423	; 0x977
 4e8:	75700068 	ldrbvc	r0, [r0, #-104]!	; 0x68
 4ec:	665f6374 			; <UNDEFINED> instruction: 0x665f6374
 4f0:	70720070 	rsbsvc	r0, r2, r0, ror r0
 4f4:	65725f69 	ldrbvs	r5, [r2, #-3945]!	; 0xf69
 4f8:	5f746573 	svcpl	0x00746573
 4fc:	63747570 	cmnvs	r4, #112, 10	; 0x1c000000
 500:	696d6500 	stmdbvs	sp!, {r8, sl, sp, lr}^
 504:	65720074 	ldrbvs	r0, [r2, #-116]!	; 0x74
 508:	746f6f62 	strbtvc	r6, [pc], #-3938	; 510 <__code_start__-0x7af0>
 50c:	6e61685f 	mcrvs	8, 3, r6, cr1, cr15, {2}
 510:	72656c64 	rsbvc	r6, r5, #100, 24	; 0x6400
 514:	61747300 	cmnvs	r4, r0, lsl #6
 518:	732d6666 	teqvc	sp, #106954752	; 0x6600000
 51c:	632f6372 	teqvs	pc, #-939524095	; 0xc8000001
 520:	6e61656c 	cdpvs	5, 6, cr6, cr1, cr12, {3}
 524:	6265722d 	rsbvs	r7, r5, #-805306366	; 0xd0000002
 528:	2e746f6f 	cdpcs	15, 7, cr6, cr4, cr15, {3}
 52c:	70720063 	rsbsvc	r0, r2, r3, rrx
 530:	65725f69 	ldrbvs	r5, [r2, #-3945]!	; 0xf69
 534:	746f6f62 	strbtvc	r6, [pc], #-3938	; 53c <__code_start__-0x7ac4>
 538:	6c656400 	cfstrdvs	mvd6, [r5], #-0
 53c:	6d5f7961 	ldclvs	9, cr7, [pc, #-388]	; 3c0 <__code_start__-0x7c40>
 540:	5f5f0073 	svcpl	0x005f0073
 544:	5f737362 	svcpl	0x00737362
 548:	72617473 	rsbvc	r7, r1, #1929379840	; 0x73000000
 54c:	005f5f74 	subseq	r5, pc, r4, ror pc	; <UNPREDICTABLE>
 550:	73625f5f 	cmnvc	r2, #380	; 0x17c
 554:	6e655f73 	mcrvs	15, 3, r5, cr5, cr3, {3}
 558:	005f5f64 	subseq	r5, pc, r4, ror #30
 55c:	61747363 	cmnvs	r4, r3, ror #6
 560:	685f7472 	ldmdavs	pc, {r1, r4, r5, r6, sl, ip, sp, lr}^	; <UNPREDICTABLE>
 564:	6c646e61 	stclvs	14, cr6, [r4], #-388	; 0xfffffe7c
 568:	62007265 	andvs	r7, r0, #1342177286	; 0x50000006
 56c:	655f7373 	ldrbvs	r7, [pc, #-883]	; 201 <__code_start__-0x7dff>
 570:	5f00646e 	svcpl	0x0000646e
 574:	61747363 	cmnvs	r4, r3, ror #6
 578:	73007472 	movwvc	r7, #1138	; 0x472
 57c:	66666174 			; <UNDEFINED> instruction: 0x66666174
 580:	6372732d 	cmnvs	r2, #-1275068416	; 0xb4000000
 584:	7473632f 	ldrbtvc	r6, [r3], #-815	; 0x32f
 588:	2e747261 	cdpcs	2, 7, cr7, cr4, cr1, {3}
 58c:	74730063 	ldrbtvc	r0, [r3], #-99	; 0x63
 590:	2d666661 	stclcs	6, cr6, [r6, #-388]!	; 0xfffffe7c
 594:	2f637273 	svccs	0x00637273
 598:	61666564 	cmnvs	r6, r4, ror #10
 59c:	2d746c75 	ldclcs	12, cr6, [r4, #-468]!	; 0xfffffe2c
 5a0:	646e6168 	strbtvs	r6, [lr], #-360	; 0x168
 5a4:	2d72656c 	cfldr64cs	mvdx6, [r2, #-432]!	; 0xfffffe50
 5a8:	61746164 	cmnvs	r4, r4, ror #2
 5ac:	6f62612d 	svcvs	0x0062612d
 5b0:	632e7472 	teqvs	lr, #1912602624	; 0x72000000
 5b4:	74616400 	strbtvc	r6, [r1], #-1024	; 0x400
 5b8:	62615f61 	rsbvs	r5, r1, #388	; 0x184
 5bc:	5f74726f 	svcpl	0x0074726f
 5c0:	74636576 	strbtvc	r6, [r3], #-1398	; 0x576
 5c4:	7300726f 	movwvc	r7, #623	; 0x26f
 5c8:	66666174 			; <UNDEFINED> instruction: 0x66666174
 5cc:	6372732d 	cmnvs	r2, #-1275068416	; 0xb4000000
 5d0:	6665642f 	strbtvs	r6, [r5], -pc, lsr #8
 5d4:	746c7561 	strbtvc	r7, [ip], #-1377	; 0x561
 5d8:	6e61682d 	cdpvs	8, 6, cr6, cr1, cr13, {1}
 5dc:	72656c64 	rsbvc	r6, r5, #100, 24	; 0x6400
 5e0:	7361662d 	cmnvc	r1, #47185920	; 0x2d00000
 5e4:	00632e74 	rsbeq	r2, r3, r4, ror lr
 5e8:	74736166 	ldrbtvc	r6, [r3], #-358	; 0x166
 5ec:	746e695f 	strbtvc	r6, [lr], #-2399	; 0x95f
 5f0:	75727265 	ldrbvc	r7, [r2, #-613]!	; 0x265
 5f4:	765f7470 			; <UNDEFINED> instruction: 0x765f7470
 5f8:	6f746365 	svcvs	0x00746365
 5fc:	74730072 	ldrbtvc	r0, [r3], #-114	; 0x72
 600:	2d666661 	stclcs	6, cr6, [r6, #-388]!	; 0xfffffe7c
 604:	2f637273 	svccs	0x00637273
 608:	61666564 	cmnvs	r6, r4, ror #10
 60c:	2d746c75 	ldclcs	12, cr6, [r4, #-468]!	; 0xfffffe2c
 610:	646e6168 	strbtvs	r6, [lr], #-360	; 0x168
 614:	2d72656c 	cfldr64cs	mvdx6, [r2, #-432]!	; 0xfffffe50
 618:	66657270 			; <UNDEFINED> instruction: 0x66657270
 61c:	68637465 	stmdavs	r3!, {r0, r2, r5, r6, sl, ip, sp, lr}^
 620:	7000632e 	andvc	r6, r0, lr, lsr #6
 624:	65666572 	strbvs	r6, [r6, #-1394]!	; 0x572
 628:	5f686374 	svcpl	0x00686374
 62c:	726f6261 	rsbvc	r6, pc, #268435462	; 0x10000006
 630:	65765f74 	ldrbvs	r5, [r6, #-3956]!	; 0xf74
 634:	726f7463 	rsbvc	r7, pc, #1660944384	; 0x63000000
 638:	73657200 	cmnvc	r5, #0, 4
 63c:	765f7465 	ldrbvc	r7, [pc], -r5, ror #8
 640:	6f746365 	svcvs	0x00746365
 644:	74730072 	ldrbtvc	r0, [r3], #-114	; 0x72
 648:	2d666661 	stclcs	6, cr6, [r6, #-388]!	; 0xfffffe7c
 64c:	2f637273 	svccs	0x00637273
 650:	61666564 	cmnvs	r6, r4, ror #10
 654:	2d746c75 	ldclcs	12, cr6, [r4, #-468]!	; 0xfffffe2c
 658:	646e6168 	strbtvs	r6, [lr], #-360	; 0x168
 65c:	2d72656c 	cfldr64cs	mvdx6, [r2, #-432]!	; 0xfffffe50
 660:	65736572 	ldrbvs	r6, [r3, #-1394]!	; 0x572
 664:	00632e74 	rsbeq	r2, r3, r4, ror lr
 668:	66617473 			; <UNDEFINED> instruction: 0x66617473
 66c:	72732d66 	rsbsvc	r2, r3, #6528	; 0x1980
 670:	65642f63 	strbvs	r2, [r4, #-3939]!	; 0xf63
 674:	6c756166 	ldfvse	f6, [r5], #-408	; 0xfffffe68
 678:	61682d74 	smcvs	33492	; 0x82d4
 67c:	656c646e 	strbvs	r6, [ip, #-1134]!	; 0x46e
 680:	77732d72 			; <UNDEFINED> instruction: 0x77732d72
 684:	00632e69 	rsbeq	r2, r3, r9, ror #28
 688:	74666f73 	strbtvc	r6, [r6], #-3955	; 0xf73
 68c:	65726177 	ldrbvs	r6, [r2, #-375]!	; 0x177
 690:	746e695f 	strbtvc	r6, [lr], #-2399	; 0x95f
 694:	75727265 	ldrbvc	r7, [r2, #-613]!	; 0x265
 698:	765f7470 			; <UNDEFINED> instruction: 0x765f7470
 69c:	6f746365 	svcvs	0x00746365
 6a0:	74730072 	ldrbtvc	r0, [r3], #-114	; 0x72
 6a4:	2d666661 	stclcs	6, cr6, [r6, #-388]!	; 0xfffffe7c
 6a8:	2f637273 	svccs	0x00637273
 6ac:	61666564 	cmnvs	r6, r4, ror #10
 6b0:	2d746c75 	ldclcs	12, cr6, [r4, #-468]!	; 0xfffffe2c
 6b4:	646e6168 	strbtvs	r6, [lr], #-360	; 0x168
 6b8:	2d72656c 	cfldr64cs	mvdx6, [r2, #-432]!	; 0xfffffe50
 6bc:	65646e75 	strbvs	r6, [r4, #-3701]!	; 0xe75
 6c0:	656e6966 	strbvs	r6, [lr, #-2406]!	; 0x966
 6c4:	6e692d64 	cdpvs	13, 6, cr2, cr9, cr4, {3}
 6c8:	632e7473 	teqvs	lr, #1929379840	; 0x73000000
 6cc:	646e7500 	strbtvs	r7, [lr], #-1280	; 0x500
 6d0:	6e696665 	cdpvs	6, 6, cr6, cr9, cr5, {3}
 6d4:	695f6465 	ldmdbvs	pc, {r0, r2, r5, r6, sl, sp, lr}^	; <UNPREDICTABLE>
 6d8:	7274736e 	rsbsvc	r7, r4, #-1207959551	; 0xb8000001
 6dc:	69746375 	ldmdbvs	r4!, {r0, r2, r4, r5, r6, r8, r9, sp, lr}^
 6e0:	765f6e6f 	ldrbvc	r6, [pc], -pc, ror #28
 6e4:	6f746365 	svcvs	0x00746365
 6e8:	74730072 	ldrbtvc	r0, [r3], #-114	; 0x72
 6ec:	2d666661 	stclcs	6, cr6, [r6, #-388]!	; 0xfffffe7c
 6f0:	2f637273 	svccs	0x00637273
 6f4:	61666564 	cmnvs	r6, r4, ror #10
 6f8:	2d746c75 	ldclcs	12, cr6, [r4, #-468]!	; 0xfffffe2c
 6fc:	646e6168 	strbtvs	r6, [lr], #-360	; 0x168
 700:	7372656c 	cmnvc	r2, #108, 10	; 0x1b000000
 704:	5f00632e 	svcpl	0x0000632e
 708:	65746e69 	ldrbvs	r6, [r4, #-3689]!	; 0xe69
 70c:	70757272 	rsbsvc	r7, r5, r2, ror r2
 710:	61745f74 	cmnvs	r4, r4, ror pc
 714:	00656c62 	rsbeq	r6, r5, r2, ror #24
 718:	746e695f 	strbtvc	r6, [lr], #-2399	; 0x95f
 71c:	75727265 	ldrbvc	r7, [r2, #-613]!	; 0x265
 720:	745f7470 	ldrbvc	r7, [pc], #-1136	; 728 <__code_start__-0x78d8>
 724:	656c6261 	strbvs	r6, [ip, #-609]!	; 0x261
 728:	646e655f 	strbtvs	r6, [lr], #-1375	; 0x55f
 72c:	61747300 	cmnvs	r4, r0, lsl #6
 730:	732d6666 	teqvc	sp, #106954752	; 0x6600000
 734:	692f6372 	stmdbvs	pc!, {r1, r4, r5, r6, r8, r9, sp, lr}	; <UNPREDICTABLE>
 738:	7265746e 	rsbvc	r7, r5, #1845493760	; 0x6e000000
 73c:	74707572 	ldrbtvc	r7, [r0], #-1394	; 0x572
 740:	2e632d73 	mcrcs	13, 3, r2, cr3, cr3, {3}
 744:	74610063 	strbtvc	r0, [r1], #-99	; 0x63
 748:	6573755f 	ldrbvs	r7, [r3, #-1375]!	; 0x55f
 74c:	656c5f72 	strbvs	r5, [ip, #-3954]!	; 0xf72
 750:	006c6576 	rsbeq	r6, ip, r6, ror r5
 754:	66617473 			; <UNDEFINED> instruction: 0x66617473
 758:	72732d66 	rsbsvc	r2, r3, #6528	; 0x1980
 75c:	65722f63 	ldrbvs	r2, [r2, #-3939]!	; 0xf63
 760:	746f6f62 	strbtvc	r6, [pc], #-3938	; 768 <__code_start__-0x7898>
 764:	5000632e 	andpl	r6, r0, lr, lsr #6
 768:	53525f4d 	cmppl	r2, #308	; 0x134
 76c:	575f4354 			; <UNDEFINED> instruction: 0x575f4354
 770:	47464352 	smlsldmi	r4, r6, r2, r3
 774:	4c55465f 	mrrcmi	6, 5, r4, r5, cr15
 778:	45525f4c 	ldrbmi	r5, [r2, #-3916]	; 0xf4c
 77c:	00544553 	subseq	r4, r4, r3, asr r5
 780:	575f4d50 			; <UNDEFINED> instruction: 0x575f4d50
 784:	00474f44 	subeq	r4, r7, r4, asr #30
 788:	5f746573 	svcpl	0x00746573
 78c:	72657375 	rsbvc	r7, r5, #-738197503	; 0xd4000001
 790:	76656c5f 			; <UNDEFINED> instruction: 0x76656c5f
 794:	50006c65 	andpl	r6, r0, r5, ror #24
 798:	41505f4d 	cmpmi	r0, sp, asr #30
 79c:	4f575353 	svcmi	0x00575353
 7a0:	50004452 	andpl	r4, r0, r2, asr r4
 7a4:	53525f4d 	cmppl	r2, #308	; 0x134
 7a8:	63004354 	movwvs	r4, #852	; 0x354
 7ac:	00727370 	rsbseq	r7, r2, r0, ror r3
 7b0:	616c6564 	cmnvs	ip, r4, ror #10
 7b4:	65735f79 	ldrbvs	r5, [r3, #-3961]!	; 0xf79
 7b8:	74730063 	ldrbtvc	r0, [r3], #-99	; 0x63
 7bc:	2d666661 	stclcs	6, cr6, [r6, #-388]!	; 0xfffffe7c
 7c0:	2f637273 	svccs	0x00637273
 7c4:	656d6974 	strbvs	r6, [sp, #-2420]!	; 0x974
 7c8:	00632e72 	rsbeq	r2, r3, r2, ror lr
 7cc:	6b636974 	blvs	18dada4 <__bss_end__+0x18d1234>
 7d0:	65640073 	strbvs	r0, [r4, #-115]!	; 0x73
 7d4:	5f79616c 	svcpl	0x0079616c
 7d8:	6c637963 	stclvs	9, cr7, [r3], #-396	; 0xfffffe74
 7dc:	64007365 	strvs	r7, [r0], #-869	; 0x365
 7e0:	79616c65 	stmdbvc	r1!, {r0, r2, r5, r6, sl, fp, sp, lr}^
 7e4:	0073755f 	rsbseq	r7, r3, pc, asr r5
 7e8:	6f73645f 	svcvs	0x0073645f
 7ec:	6e61685f 	mcrvs	8, 3, r6, cr1, cr15, {2}
 7f0:	00656c64 	rsbeq	r6, r5, r4, ror #24
 7f4:	7a69735f 	bvc	1a5d578 <__bss_end__+0x1a53a08>
 7f8:	725f0065 	subsvc	r0, pc, #101	; 0x65
 7fc:	34646e61 	strbtcc	r6, [r4], #-3681	; 0xe61
 800:	655f0038 	ldrbvs	r0, [pc, #-56]	; 7d0 <__code_start__-0x7830>
 804:	6772656d 	ldrbvs	r6, [r2, -sp, ror #10]!
 808:	79636e65 	stmdbvc	r3!, {r0, r2, r5, r6, r9, sl, fp, sp, lr}^
 80c:	63775f00 	cmnvs	r7, #0, 30
 810:	6d6f7472 	cfstrdvs	mvd7, [pc, #-456]!	; 650 <__code_start__-0x79b0>
 814:	74735f62 	ldrbtvc	r5, [r3], #-3938	; 0xf62
 818:	00657461 	rsbeq	r7, r5, r1, ror #8
 81c:	7363775f 	cmnvc	r3, #24903680	; 0x17c0000
 820:	6d6f7472 	cfstrdvs	mvd7, [pc, #-456]!	; 660 <__code_start__-0x79a0>
 824:	735f7362 	cmpvc	pc, #-2013265919	; 0x88000001
 828:	65746174 	ldrbvs	r6, [r4, #-372]!	; 0x174
 82c:	626c5f00 	rsbvs	r5, ip, #0, 30
 830:	7a697366 	bvc	1a5d5d0 <__bss_end__+0x1a53a60>
 834:	64610065 	strbtvs	r0, [r1], #-101	; 0x65
 838:	47007264 	strmi	r7, [r0, -r4, ror #4]
 83c:	5f4f4950 	svcpl	0x004f4950
 840:	434e5546 	movtmi	r5, #58694	; 0xe546
 844:	504e495f 	subpl	r4, lr, pc, asr r9
 848:	5f005455 	svcpl	0x00005455
 84c:	7472626d 	ldrbtvc	r6, [r2], #-621	; 0x26d
 850:	5f63776f 	svcpl	0x0063776f
 854:	74617473 	strbtvc	r7, [r1], #-1139	; 0x473
 858:	775f0065 	ldrbvc	r0, [pc, -r5, rrx]
 85c:	6d6f7463 	cfstrdvs	mvd7, [pc, #-396]!	; 6d8 <__code_start__-0x7928>
 860:	74735f62 	ldrbtvc	r5, [r3], #-3938	; 0xf62
 864:	00657461 	rsbeq	r7, r5, r1, ror #8
 868:	6d745f5f 	ldclvs	15, cr5, [r4, #-380]!	; 0xfffffe84
 86c:	6365735f 	cmnvs	r5, #2080374785	; 0x7c000001
 870:	61747300 	cmnvs	r4, r0, lsl #6
 874:	755f0074 	ldrbvc	r0, [pc, #-116]	; 808 <__code_start__-0x77f8>
 878:	00667562 	rsbeq	r7, r6, r2, ror #10
 87c:	4f495047 	svcmi	0x00495047
 880:	4e55465f 	mrcmi	6, 2, r4, cr5, cr15, {2}
 884:	4c415f43 	mcrrmi	15, 4, r5, r1, cr3
 888:	5f003154 	svcpl	0x00003154
 88c:	65736162 	ldrbvs	r6, [r3, #-354]!	; 0x162
 890:	746e6300 	strbtvc	r6, [lr], #-768	; 0x300
 894:	5f5f006c 	svcpl	0x005f006c
 898:	685f6d74 	ldmdavs	pc, {r2, r4, r5, r6, r8, sl, fp, sp, lr}^	; <UNPREDICTABLE>
 89c:	0072756f 	rsbseq	r7, r2, pc, ror #10
 8a0:	66735f5f 	uhsaxvs	r5, r3, pc	; <UNPREDICTABLE>
 8a4:	6e6f5f00 	cdpvs	15, 6, cr5, cr15, cr0, {0}
 8a8:	6978655f 	ldmdbvs	r8!, {r0, r1, r2, r3, r4, r6, r8, sl, sp, lr}^
 8ac:	72615f74 	rsbvc	r5, r1, #116, 30	; 0x1d0
 8b0:	5f007367 	svcpl	0x00007367
 8b4:	6b6f6f63 	blvs	1bdc648 <__bss_end__+0x1bd2ad8>
 8b8:	5f006569 	svcpl	0x00006569
 8bc:	6c67735f 	stclvs	3, cr7, [r7], #-380	; 0xfffffe84
 8c0:	5f006575 	svcpl	0x00006575
 8c4:	67616c66 	strbvs	r6, [r1, -r6, ror #24]!
 8c8:	695f0073 	ldmdbvs	pc, {r0, r1, r4, r5, r6}^	; <UNPREDICTABLE>
 8cc:	78635f73 	stmdavc	r3!, {r0, r1, r4, r5, r6, r8, r9, sl, fp, ip, lr}^
 8d0:	735f0061 	cmpvc	pc, #97	; 0x61
 8d4:	6e696474 	mcrvs	4, 3, r6, cr9, cr4, {3}
 8d8:	6c625f00 	stclvs	15, cr5, [r2], #-0
 8dc:	7a69736b 	bvc	1a5d690 <__bss_end__+0x1a53b20>
 8e0:	61750065 	cmnvs	r5, r5, rrx
 8e4:	632e7472 	teqvs	lr, #1912602624	; 0x72000000
 8e8:	78756100 	ldmdavc	r5!, {r8, sp, lr}^
 8ec:	7265705f 	rsbvc	r7, r5, #95	; 0x5f
 8f0:	73687069 	cmnvc	r8, #105	; 0x69
 8f4:	76635f00 	strbtvc	r5, [r3], -r0, lsl #30
 8f8:	66756274 			; <UNDEFINED> instruction: 0x66756274
 8fc:	6f682f00 	svcvs	0x00682f00
 900:	652f656d 	strvs	r6, [pc, #-1389]!	; 39b <__code_start__-0x7c65>
 904:	656c676e 	strbvs	r6, [ip, #-1902]!	; 0x76e
 908:	6c632f72 	stclvs	15, cr2, [r3], #-456	; 0xfffffe38
 90c:	2f737361 	svccs	0x00737361
 910:	34327363 	ldrtcc	r7, [r2], #-867	; 0x363
 914:	2d786c30 	ldclcs	12, cr6, [r8, #-192]!	; 0xffffff40
 918:	70733032 	rsbsvc	r3, r3, r2, lsr r0
 91c:	696c2f72 	stmdbvs	ip!, {r1, r4, r5, r6, r8, r9, sl, fp, sp}^
 920:	2f697062 	svccs	0x00697062
 924:	66617473 			; <UNDEFINED> instruction: 0x66617473
 928:	72702d66 	rsbsvc	r2, r0, #6528	; 0x1980
 92c:	74617669 	strbtvc	r7, [r1], #-1641	; 0x669
 930:	6d5f0065 	ldclvs	0, cr0, [pc, #-404]	; 7a4 <__code_start__-0x785c>
 934:	74727362 	ldrbtvc	r7, [r2], #-866	; 0x362
 938:	7363776f 	cmnvc	r3, #29097984	; 0x1bc0000
 93c:	6174735f 	cmnvs	r4, pc, asr r3
 940:	5f006574 	svcpl	0x00006574
 944:	6c72626d 	lfmvs	f6, 2, [r2], #-436	; 0xfffffe4c
 948:	735f6e65 	cmpvc	pc, #1616	; 0x650
 94c:	65746174 	ldrbvs	r6, [r4, #-372]!	; 0x174
 950:	6e665f00 	cdpvs	15, 6, cr5, cr6, cr0, {0}
 954:	73677261 	cmnvc	r7, #268435462	; 0x10000006
 958:	78756100 	ldmdavc	r5!, {r8, sp, lr}^
 95c:	616e655f 	cmnvs	lr, pc, asr r5
 960:	73656c62 	cmnvc	r5, #25088	; 0x6200
 964:	6e665f00 	cdpvs	15, 6, cr5, cr6, cr0, {0}
 968:	735f0073 	cmpvc	pc, #115	; 0x73
 96c:	006e6769 	rsbeq	r6, lr, r9, ror #14
 970:	74726175 	ldrbtvc	r6, [r2], #-373	; 0x175
 974:	6e61635f 	mcrvs	3, 3, r6, cr1, cr15, {2}
 978:	7475705f 	ldrbtvc	r7, [r5], #-95	; 0x5f
 97c:	665f0063 	ldrbvs	r0, [pc], -r3, rrx
 980:	6b636f6c 	blvs	18dc738 <__bss_end__+0x18d2bc8>
 984:	5f00745f 	svcpl	0x0000745f
 988:	65647473 	strbvs	r7, [r4, #-1139]!	; 0x473
 98c:	5f007272 	svcpl	0x00007272
 990:	69676942 	stmdbvs	r7!, {r1, r6, r8, fp, sp, lr}^
 994:	5f00746e 	svcpl	0x0000746e
 998:	6d6d6167 	stfvse	f6, [sp, #-412]!	; 0xfffffe64
 99c:	69735f61 	ldmdbvs	r3!, {r0, r5, r6, r8, r9, sl, fp, ip, lr}^
 9a0:	61676e67 	cmnvs	r7, r7, ror #28
 9a4:	725f006d 	subsvc	r0, pc, #109	; 0x6d
 9a8:	6c757365 	ldclvs	3, cr7, [r5], #-404	; 0xfffffe6c
 9ac:	006b5f74 	rsbeq	r5, fp, r4, ror pc
 9b0:	6d745f5f 	ldclvs	15, cr5, [r4, #-380]!	; 0xfffffe84
 9b4:	775f5f00 	ldrbvc	r5, [pc, -r0, lsl #30]
 9b8:	00626863 	rsbeq	r6, r2, r3, ror #16
 9bc:	74726175 	ldrbtvc	r6, [r2], #-373	; 0x175
 9c0:	7465675f 	strbtvc	r6, [r5], #-1887	; 0x75f
 9c4:	735f0063 	cmpvc	pc, #99	; 0x63
 9c8:	756f6474 	strbvc	r6, [pc, #-1140]!	; 55c <__code_start__-0x7aa4>
 9cc:	635f0074 	cmpvs	pc, #116	; 0x74
 9d0:	656c7476 	strbvs	r7, [ip, #-1142]!	; 0x476
 9d4:	665f006e 	ldrbvs	r0, [pc], -lr, rrx
 9d8:	00656c69 	rsbeq	r6, r5, r9, ror #24
 9dc:	6f696e5f 	svcvs	0x00696e5f
 9e0:	5f007362 	svcpl	0x00007362
 9e4:	78657461 	stmdavc	r5!, {r0, r5, r6, sl, ip, sp, lr}^
 9e8:	00307469 	eorseq	r7, r0, r9, ror #8
 9ec:	6769735f 			; <UNDEFINED> instruction: 0x6769735f
 9f0:	5f6c616e 	svcpl	0x006c616e
 9f4:	00667562 	rsbeq	r7, r6, r2, ror #10
 9f8:	6373615f 	cmnvs	r3, #-1073741801	; 0xc0000017
 9fc:	656d6974 	strbvs	r6, [sp, #-2420]!	; 0x974
 a00:	6675625f 			; <UNDEFINED> instruction: 0x6675625f
 a04:	65725f00 	ldrbvs	r5, [r2, #-3840]!	; 0xf00
 a08:	746c7573 	strbtvc	r7, [ip], #-1395	; 0x573
 a0c:	775f5f00 	ldrbvc	r5, [pc, -r0, lsl #30]
 a10:	47006863 	strmi	r6, [r0, -r3, ror #16]
 a14:	5f4f4950 	svcpl	0x004f4950
 a18:	434e5546 	movtmi	r5, #58694	; 0xe546
 a1c:	544c415f 	strbpl	r4, [ip], #-351	; 0x15f
 a20:	69770032 	ldmdbvs	r7!, {r1, r4, r5}^
 a24:	745f746e 	ldrbvc	r7, [pc], #-1134	; a2c <__code_start__-0x75d4>
 a28:	6f6c5f00 	svcvs	0x006c5f00
 a2c:	5f006b63 	svcpl	0x00006b63
 a30:	67616c66 	strbvs	r6, [r1, -r6, ror #24]!
 a34:	75003273 	strvc	r3, [r0, #-627]	; 0x273
 a38:	5f747261 	svcpl	0x00747261
 a3c:	63747570 	cmnvs	r4, #112, 10	; 0x1c000000
 a40:	745f5f00 	ldrbvc	r5, [pc], #-3840	; a48 <__code_start__-0x75b8>
 a44:	65795f6d 	ldrbvs	r5, [r9, #-3949]!	; 0xf6d
 a48:	5f007261 	svcpl	0x00007261
 a4c:	7366666f 	cmnvc	r6, #116391936	; 0x6f00000
 a50:	67007465 	strvs	r7, [r0, -r5, ror #8]
 a54:	5f6f6970 	svcpl	0x006f6970
 a58:	5f746573 	svcpl	0x00746573
 a5c:	636e7566 	cmnvs	lr, #427819008	; 0x19800000
 a60:	6e6f6974 	mcrvs	9, 3, r6, cr15, cr4, {3}
 a64:	656e5f00 	strbvs	r5, [lr, #-3840]!	; 0xf00
 a68:	00667478 	rsbeq	r7, r6, r8, ror r4
 a6c:	6d745f5f 	ldclvs	15, cr5, [r4, #-380]!	; 0xfffffe84
 a70:	6e6f6d5f 	mcrvs	13, 3, r6, cr15, cr15, {2}
 a74:	74615f00 	strbtvc	r5, [r1], #-3840	; 0xf00
 a78:	74697865 	strbtvc	r7, [r9], #-2149	; 0x865
 a7c:	735f5f00 	cmpvc	pc, #0, 30
 a80:	69646964 	stmdbvs	r4!, {r2, r5, r6, r8, fp, sp, lr}^
 a84:	0074696e 	rsbseq	r6, r4, lr, ror #18
 a88:	66666f5f 	uqsaxvs	r6, r6, pc	; <UNPREDICTABLE>
 a8c:	7500745f 	strvc	r7, [r0, #-1119]	; 0x45f
 a90:	00747261 	rsbseq	r7, r4, r1, ror #4
 a94:	6572665f 	ldrbvs	r6, [r2, #-1631]!	; 0x65f
 a98:	73696c65 	cmnvc	r9, #25856	; 0x6500
 a9c:	4c5f0074 	mrrcmi	0, 7, r0, pc, cr4	; <UNPREDICTABLE>
 aa0:	5f4b434f 	svcpl	0x004b434f
 aa4:	55434552 	strbpl	r4, [r3, #-1362]	; 0x552
 aa8:	56495352 			; <UNDEFINED> instruction: 0x56495352
 aac:	00545f45 	subseq	r5, r4, r5, asr #30
 ab0:	77656e5f 			; <UNDEFINED> instruction: 0x77656e5f
 ab4:	5f685f00 	svcpl	0x00685f00
 ab8:	6e727265 	cdpvs	2, 7, cr7, cr2, cr5, {3}
 abc:	5f5f006f 	svcpl	0x005f006f
 ac0:	795f6d74 	ldmdbvc	pc, {r2, r4, r5, r6, r8, sl, fp, sp, lr}^	; <UNPREDICTABLE>
 ac4:	00796164 	rsbseq	r6, r9, r4, ror #2
 ac8:	62735f5f 	rsbsvs	r5, r3, #380	; 0x17c
 acc:	5f006675 	svcpl	0x00006675
 ad0:	73626f69 	cmnvc	r2, #420	; 0x1a4
 ad4:	465f5f00 	ldrbmi	r5, [pc], -r0, lsl #30
 ad8:	00454c49 	subeq	r4, r5, r9, asr #24
 adc:	73626d5f 	cmnvc	r2, #6080	; 0x17c0
 ae0:	65746174 	ldrbvs	r6, [r4, #-372]!	; 0x174
 ae4:	5f00745f 	svcpl	0x0000745f
 ae8:	4946735f 	stmdbmi	r6, {r0, r1, r2, r3, r4, r6, r8, r9, ip, sp, lr}^
 aec:	5f00454c 	svcpl	0x0000454c
 af0:	7473626d 	ldrbtvc	r6, [r3], #-621	; 0x26d
 af4:	00657461 	rsbeq	r7, r5, r1, ror #8
 af8:	6e61725f 	mcrvs	2, 3, r7, cr1, cr15, {2}
 afc:	656e5f64 	strbvs	r5, [lr, #-3940]!	; 0xf64
 b00:	5f007478 	svcpl	0x00007478
 b04:	656c626d 	strbvs	r6, [ip, #-621]!	; 0x26d
 b08:	74735f6e 	ldrbtvc	r5, [r3], #-3950	; 0xf6e
 b0c:	00657461 	rsbeq	r7, r5, r1, ror #8
 b10:	636e695f 	cmnvs	lr, #1556480	; 0x17c000
 b14:	6e695f00 	cdpvs	15, 6, cr5, cr9, cr0, {0}
 b18:	635f0064 	cmpvs	pc, #100	; 0x64
 b1c:	65727275 	ldrbvs	r7, [r2, #-629]!	; 0x275
 b20:	6c5f746e 	cfldrdvs	mvd7, [pc], {110}	; 0x6e
 b24:	6c61636f 	stclvs	3, cr6, [r1], #-444	; 0xfffffe44
 b28:	5f5f0065 	svcpl	0x005f0065
 b2c:	61656c63 	cmnvs	r5, r3, ror #24
 b30:	0070756e 	rsbseq	r7, r0, lr, ror #10
 b34:	78616d5f 	stmdavc	r1!, {r0, r1, r2, r3, r4, r6, r8, sl, fp, sp, lr}^
 b38:	00736477 	rsbseq	r6, r3, r7, ror r4
 b3c:	6565725f 	strbvs	r7, [r5, #-607]!	; 0x25f
 b40:	5f00746e 	svcpl	0x0000746e
 b44:	64656573 	strbtvs	r6, [r5], #-1395	; 0x573
 b48:	635f5f00 	cmpvs	pc, #0, 30
 b4c:	746e756f 	strbtvc	r7, [lr], #-1391	; 0x56f
 b50:	765f5f00 	ldrbvc	r5, [pc], -r0, lsl #30
 b54:	65756c61 	ldrbvs	r6, [r5, #-3169]!	; 0xc61
 b58:	65735f00 	ldrbvs	r5, [r3, #-3840]!	; 0xf00
 b5c:	62006b65 	andvs	r6, r0, #103424	; 0x19400
 b60:	00647561 	rsbeq	r7, r4, r1, ror #10
 b64:	6f70665f 	svcvs	0x0070665f
 b68:	00745f73 	rsbseq	r5, r4, r3, ror pc
 b6c:	6d745f5f 	ldclvs	15, cr5, [r4, #-380]!	; 0xfffffe84
 b70:	6e696d5f 	mcrvs	13, 3, r6, cr9, cr15, {2}
 b74:	72637300 	rsbvc	r7, r3, #0, 6
 b78:	68637461 	stmdavs	r3!, {r0, r5, r6, sl, ip, sp, lr}^
 b7c:	756d5f00 	strbvc	r5, [sp, #-3840]!	; 0xf00
 b80:	7000746c 	andvc	r7, r0, ip, ror #8
 b84:	32337475 	eorscc	r7, r3, #1962934272	; 0x75000000
 b88:	554e4700 	strbpl	r4, [lr, #-1792]	; 0x700
 b8c:	39394320 	ldmdbcc	r9!, {r5, r8, r9, lr}
 b90:	332e3620 	teqcc	lr, #32, 12	; 0x2000000
 b94:	3220312e 	eorcc	r3, r0, #-2147483637	; 0x8000000b
 b98:	30373130 	eorscc	r3, r7, r0, lsr r1
 b9c:	20303236 	eorscs	r3, r0, r6, lsr r2
 ba0:	70636d2d 	rsbvc	r6, r3, sp, lsr #26
 ba4:	72613d75 	rsbvc	r3, r1, #7488	; 0x1d40
 ba8:	3731316d 	ldrcc	r3, [r1, -sp, ror #2]!
 bac:	667a6a36 			; <UNDEFINED> instruction: 0x667a6a36
 bb0:	2d20732d 	stccs	3, cr7, [r0, #-180]!	; 0xffffff4c
 bb4:	6e75746d 	cdpvs	4, 7, cr7, cr5, cr13, {3}
 bb8:	72613d65 	rsbvc	r3, r1, #6464	; 0x1940
 bbc:	3731316d 	ldrcc	r3, [r1, -sp, ror #2]!
 bc0:	667a6a36 			; <UNDEFINED> instruction: 0x667a6a36
 bc4:	2d20732d 	stccs	3, cr7, [r0, #-180]!	; 0xffffff4c
 bc8:	62646767 	rsbvs	r6, r4, #27000832	; 0x19c0000
 bcc:	674f2d20 	strbvs	r2, [pc, -r0, lsr #26]
 bd0:	74732d20 	ldrbtvc	r2, [r3], #-3360	; 0xd20
 bd4:	6e673d64 	cdpvs	13, 6, cr3, cr7, cr4, {3}
 bd8:	20393975 	eorscs	r3, r9, r5, ror r9
 bdc:	7266662d 	rsbvc	r6, r6, #47185920	; 0x2d00000
 be0:	74736565 	ldrbtvc	r6, [r3], #-1381	; 0x565
 be4:	69646e61 	stmdbvs	r4!, {r0, r5, r6, r9, sl, fp, sp, lr}^
 be8:	5f00676e 	svcpl	0x0000676e
 bec:	74727473 	ldrbtvc	r7, [r2], #-1139	; 0x473
 bf0:	6c5f6b6f 	mrrcvs	11, 6, r6, pc, cr15	; <UNPREDICTABLE>
 bf4:	00747361 	rsbseq	r7, r4, r1, ror #6
 bf8:	746e665f 	strbtvc	r6, [lr], #-1631	; 0x65f
 bfc:	73657079 	cmnvc	r5, #121	; 0x79
 c00:	64615f00 	strbtvs	r5, [r1], #-3840	; 0xf00
 c04:	5f5f0064 	svcpl	0x005f0064
 c08:	6e6f4c55 	mcrvs	12, 3, r4, cr15, cr5, {2}
 c0c:	675f0067 	ldrbvs	r0, [pc, -r7, rrx]
 c10:	61647465 	cmnvs	r4, r5, ror #8
 c14:	655f6574 	ldrbvs	r6, [pc, #-1396]	; 6a8 <__code_start__-0x7958>
 c18:	5f007272 	svcpl	0x00007272
 c1c:	626f6c67 	rsbvs	r6, pc, #26368	; 0x6700
 c20:	695f6c61 	ldmdbvs	pc, {r0, r5, r6, sl, fp, sp, lr}^	; <UNPREDICTABLE>
 c24:	7275706d 	rsbsvc	r7, r5, #109	; 0x6d
 c28:	74705f65 	ldrbtvc	r5, [r0], #-3941	; 0xf65
 c2c:	635f0072 	cmpvs	pc, #114	; 0x72
 c30:	65727275 	ldrbvs	r7, [r2, #-629]!	; 0x275
 c34:	635f746e 	cmpvs	pc, #1845493760	; 0x6e000000
 c38:	67657461 	strbvs	r7, [r5, -r1, ror #8]!
 c3c:	0079726f 	rsbseq	r7, r9, pc, ror #4
 c40:	756e755f 	strbvc	r7, [lr, #-1375]!	; 0x55f
 c44:	5f646573 	svcpl	0x00646573
 c48:	646e6172 	strbtvs	r6, [lr], #-370	; 0x172
 c4c:	64775f00 	ldrbtvs	r5, [r7], #-3840	; 0xf00
 c50:	5f5f0073 	svcpl	0x005f0073
 c54:	775f6d74 			; <UNDEFINED> instruction: 0x775f6d74
 c58:	00796164 	rsbseq	r6, r9, r4, ror #2
 c5c:	756c675f 	strbvc	r6, [ip, #-1887]!	; 0x75f
 c60:	50470065 	subpl	r0, r7, r5, rrx
 c64:	465f4f49 	ldrbmi	r4, [pc], -r9, asr #30
 c68:	5f434e55 	svcpl	0x00434e55
 c6c:	5054554f 	subspl	r5, r4, pc, asr #10
 c70:	5f005455 	svcpl	0x00005455
 c74:	6c616d6e 	stclvs	13, cr6, [r1], #-440	; 0xfffffe48
 c78:	00636f6c 	rsbeq	r6, r3, ip, ror #30
 c7c:	34366c5f 	ldrtcc	r6, [r6], #-3167	; 0xc5f
 c80:	75625f61 	strbvc	r5, [r2, #-3937]!	; 0xf61
 c84:	65670066 	strbvs	r0, [r7, #-102]!	; 0x66
 c88:	00323374 	eorseq	r3, r2, r4, ror r3
 c8c:	74726175 	ldrbtvc	r6, [r2], #-373	; 0x175
 c90:	6e61635f 	mcrvs	3, 3, r6, cr1, cr15, {2}
 c94:	7465675f 	strbtvc	r6, [r5], #-1887	; 0x75f
 c98:	735f0063 	cmpvc	pc, #99	; 0x63
 c9c:	665f6769 	ldrbvs	r6, [pc], -r9, ror #14
 ca0:	00636e75 	rsbeq	r6, r3, r5, ror lr
 ca4:	695f726f 	ldmdbvs	pc, {r0, r1, r2, r3, r5, r6, r9, ip, sp, lr}^	; <UNPREDICTABLE>
 ca8:	0032336e 	eorseq	r3, r2, lr, ror #6
 cac:	74726175 	ldrbtvc	r6, [r2], #-373	; 0x175
 cb0:	7361685f 	cmnvc	r1, #6225920	; 0x5f0000
 cb4:	7461645f 	strbtvc	r6, [r1], #-1119	; 0x45f
 cb8:	50470061 	subpl	r0, r7, r1, rrx
 cbc:	465f4f49 	ldrbmi	r4, [pc], -r9, asr #30
 cc0:	5f434e55 	svcpl	0x00434e55
 cc4:	30544c41 	subscc	r4, r4, r1, asr #24
 cc8:	626e5f00 	rsbvs	r5, lr, #0, 30
 ccc:	5f006675 	svcpl	0x00006675
 cd0:	73756e75 	cmnvc	r5, #1872	; 0x750
 cd4:	47006465 	strmi	r6, [r0, -r5, ror #8]
 cd8:	5f4f4950 	svcpl	0x004f4950
 cdc:	434e5546 	movtmi	r5, #58694	; 0xe546
 ce0:	544c415f 	strbpl	r4, [ip], #-351	; 0x15f
 ce4:	50470033 	subpl	r0, r7, r3, lsr r0
 ce8:	465f4f49 	ldrbmi	r4, [pc], -r9, asr #30
 cec:	5f434e55 	svcpl	0x00434e55
 cf0:	34544c41 	ldrbcc	r4, [r4], #-3137	; 0xc41
 cf4:	49504700 	ldmdbmi	r0, {r8, r9, sl, lr}^
 cf8:	55465f4f 	strbpl	r5, [r6, #-3919]	; 0xf4f
 cfc:	415f434e 	cmpmi	pc, lr, asr #6
 d00:	0035544c 	eorseq	r5, r5, ip, asr #8
 d04:	6d745f5f 	ldclvs	15, cr5, [r4, #-380]!	; 0xfffffe84
 d08:	6473695f 	ldrbtvs	r6, [r3], #-2399	; 0x95f
 d0c:	5f007473 	svcpl	0x00007473
 d10:	61636f6c 	cmnvs	r3, ip, ror #30
 d14:	6d69746c 	cfstrdvs	mvd7, [r9, #-432]!	; 0xfffffe50
 d18:	75625f65 	strbvc	r5, [r2, #-3941]!	; 0xf65
 d1c:	635f0066 	cmpvs	pc, #102	; 0x66
 d20:	65736f6c 	ldrbvs	r6, [r3, #-3948]!	; 0xf6c
 d24:	34725f00 	ldrbtcc	r5, [r2], #-3840	; 0xf00
 d28:	6d5f0038 	ldclvs	0, cr0, [pc, #-224]	; c50 <__code_start__-0x73b0>
 d2c:	776f7462 	strbvc	r7, [pc, -r2, ror #8]!
 d30:	74735f63 	ldrbtvc	r5, [r3], #-3939	; 0xf63
 d34:	00657461 	rsbeq	r7, r5, r1, ror #8
 d38:	7335705f 	teqvc	r5, #95	; 0x5f
 d3c:	745f5f00 	ldrbvc	r5, [pc], #-3840	; d44 <__code_start__-0x72bc>
 d40:	646d5f6d 	strbtvs	r5, [sp], #-3949	; 0xf6d
 d44:	67007961 	strvs	r7, [r0, -r1, ror #18]
 d48:	5f6f6970 	svcpl	0x006f6970
 d4c:	5f746573 	svcpl	0x00746573
 d50:	0066666f 	rsbeq	r6, r6, pc, ror #12
 d54:	6b6e6162 	blvs	1b992e4 <__bss_end__+0x1b8f774>
 d58:	69706700 	ldmdbvs	r0!, {r8, r9, sl, sp, lr}^
 d5c:	00632e6f 	rsbeq	r2, r3, pc, ror #28
 d60:	6f697067 	svcvs	0x00697067
 d64:	6165725f 	cmnvs	r5, pc, asr r2
 d68:	70670064 	rsbvc	r0, r7, r4, rrx
 d6c:	735f6f69 	cmpvc	pc, #420	; 0x1a4
 d70:	6f5f7465 	svcvs	0x005f7465
 d74:	75707475 	ldrbvc	r7, [r0, #-1141]!	; 0x475
 d78:	70670074 	rsbvc	r0, r7, r4, ror r0
 d7c:	775f6f69 	ldrbvc	r6, [pc, -r9, ror #30]
 d80:	65746972 	ldrbvs	r6, [r4, #-2418]!	; 0x972
 d84:	69706700 	ldmdbvs	r0!, {r8, r9, sl, sp, lr}^
 d88:	65735f6f 	ldrbvs	r5, [r3, #-3951]!	; 0xf6f
 d8c:	67003074 	smlsdxvs	r0, r4, r0, r3
 d90:	5f6f6970 	svcpl	0x006f6970
 d94:	3076656c 	rsbscc	r6, r6, ip, ror #10
 d98:	69706700 	ldmdbvs	r0!, {r8, r9, sl, sp, lr}^
 d9c:	65735f6f 	ldrbvs	r5, [r3, #-3951]!	; 0xf6f
 da0:	6e695f74 	mcrvs	15, 3, r5, cr9, cr4, {3}
 da4:	00747570 	rsbseq	r7, r4, r0, ror r5
 da8:	6f697067 	svcvs	0x00697067
 dac:	7465735f 	strbtvc	r7, [r5], #-863	; 0x35f
 db0:	006e6f5f 	rsbeq	r6, lr, pc, asr pc
 db4:	6f697067 	svcvs	0x00697067
 db8:	6e75665f 	mrcvs	6, 3, r6, cr5, cr15, {2}
 dbc:	00745f63 	rsbseq	r5, r4, r3, ror #30
 dc0:	6f697067 	svcvs	0x00697067
 dc4:	726c635f 	rsbvc	r6, ip, #2080374785	; 0x7c000001
 dc8:	6e690030 	mcrvs	0, 3, r0, cr9, cr0, {1}
 dcc:	6e726574 	mrcvs	5, 3, r6, cr2, cr4, {3}
 dd0:	705f6c61 	subsvc	r6, pc, r1, ror #24
 dd4:	68637475 	stmdavs	r3!, {r0, r2, r4, r5, r6, sl, ip, sp, lr}^
 dd8:	6c007261 	sfmvs	f7, 4, [r0], {97}	; 0x61
 ddc:	2f636269 	svccs	0x00636269
 de0:	63747570 	cmnvs	r4, #112, 10	; 0x1c000000
 de4:	2e726168 	rpwcssz	f6, f2, #0.0
 de8:	70720063 	rsbsvc	r0, r2, r3, rrx
 dec:	65735f69 	ldrbvs	r5, [r3, #-3945]!	; 0xf69
 df0:	75705f74 	ldrbvc	r5, [r0, #-3956]!	; 0xf74
 df4:	Address 0x0000000000000df4 is out of bounds.


Disassembly of section .debug_frame:

00000000 <.debug_frame>:
   0:	0000000c 	andeq	r0, r0, ip
   4:	ffffffff 			; <UNDEFINED> instruction: 0xffffffff
   8:	7c020001 	stcvc	0, cr0, [r2], {1}
   c:	000d0c0e 	andeq	r0, sp, lr, lsl #24
  10:	00000014 	andeq	r0, r0, r4, lsl r0
  14:	00000000 	andeq	r0, r0, r0
  18:	00008020 	andeq	r8, r0, r0, lsr #32
  1c:	00000078 	andeq	r0, r0, r8, ror r0
  20:	84080e42 	strhi	r0, [r8], #-3650	; 0xe42
  24:	00018e02 	andeq	r8, r1, r2, lsl #28
  28:	0000001c 	andeq	r0, r0, ip, lsl r0
  2c:	00000000 	andeq	r0, r0, r0
  30:	00008098 	muleq	r0, r8, r0
  34:	0000025c 	andeq	r0, r0, ip, asr r2
  38:	84140e42 	ldrhi	r0, [r4], #-3650	; 0xe42
  3c:	86048505 	strhi	r8, [r4], -r5, lsl #10
  40:	8e028703 	cdphi	7, 0, cr8, cr2, cr3, {0}
  44:	200e4201 	andcs	r4, lr, r1, lsl #4
  48:	0000000c 	andeq	r0, r0, ip
  4c:	ffffffff 			; <UNDEFINED> instruction: 0xffffffff
  50:	7c020001 	stcvc	0, cr0, [r2], {1}
  54:	000d0c0e 	andeq	r0, sp, lr, lsl #24
  58:	00000014 	andeq	r0, r0, r4, lsl r0
  5c:	00000048 	andeq	r0, r0, r8, asr #32
  60:	0000838c 	andeq	r8, r0, ip, lsl #7
  64:	0000001c 	andeq	r0, r0, ip, lsl r0
  68:	8e040e42 	cdphi	14, 0, cr0, cr4, cr2, {2}
  6c:	200e4201 	andcs	r4, lr, r1, lsl #4
  70:	00000014 	andeq	r0, r0, r4, lsl r0
  74:	00000048 	andeq	r0, r0, r8, asr #32
  78:	000083a8 	andeq	r8, r0, r8, lsr #7
  7c:	00000040 	andeq	r0, r0, r0, asr #32
  80:	84080e42 	strhi	r0, [r8], #-3650	; 0xe42
  84:	00018e02 	andeq	r8, r1, r2, lsl #28
  88:	0000000c 	andeq	r0, r0, ip
  8c:	ffffffff 			; <UNDEFINED> instruction: 0xffffffff
  90:	7c020001 	stcvc	0, cr0, [r2], {1}
  94:	000d0c0e 	andeq	r0, sp, lr, lsl #24
  98:	00000024 	andeq	r0, r0, r4, lsr #32
  9c:	00000088 	andeq	r0, r0, r8, lsl #1
  a0:	000083e8 	andeq	r8, r0, r8, ror #7
  a4:	00000058 	andeq	r0, r0, r8, asr r0
  a8:	80100e42 	andshi	r0, r0, r2, asr #28
  ac:	82038104 	andhi	r8, r3, #4, 2
  b0:	42018302 	andmi	r8, r1, #134217728	; 0x8000000
  b4:	07841c0e 	streq	r1, [r4, lr, lsl #24]
  b8:	058e0685 	streq	r0, [lr, #1669]	; 0x685
  bc:	00280e42 	eoreq	r0, r8, r2, asr #28
  c0:	0000000c 	andeq	r0, r0, ip
  c4:	ffffffff 			; <UNDEFINED> instruction: 0xffffffff
  c8:	7c020001 	stcvc	0, cr0, [r2], {1}
  cc:	000d0c0e 	andeq	r0, sp, lr, lsl #24
  d0:	00000018 	andeq	r0, r0, r8, lsl r0
  d4:	000000c0 	andeq	r0, r0, r0, asr #1
  d8:	00008440 	andeq	r8, r0, r0, asr #8
  dc:	00000034 	andeq	r0, r0, r4, lsr r0
  e0:	83100e42 	tsthi	r0, #1056	; 0x420
  e4:	85038404 	strhi	r8, [r3, #-1028]	; 0x404
  e8:	00018e02 	andeq	r8, r1, r2, lsl #28
  ec:	0000000c 	andeq	r0, r0, ip
  f0:	ffffffff 			; <UNDEFINED> instruction: 0xffffffff
  f4:	7c020001 	stcvc	0, cr0, [r2], {1}
  f8:	000d0c0e 	andeq	r0, sp, lr, lsl #24
  fc:	0000000c 	andeq	r0, r0, ip
 100:	000000ec 	andeq	r0, r0, ip, ror #1
 104:	00008474 	andeq	r8, r0, r4, ror r4
 108:	00000014 	andeq	r0, r0, r4, lsl r0
 10c:	0000000c 	andeq	r0, r0, ip
 110:	000000ec 	andeq	r0, r0, ip, ror #1
 114:	00008488 	andeq	r8, r0, r8, lsl #9
 118:	0000002c 	andeq	r0, r0, ip, lsr #32
 11c:	0000000c 	andeq	r0, r0, ip
 120:	000000ec 	andeq	r0, r0, ip, ror #1
 124:	000084b4 			; <UNDEFINED> instruction: 0x000084b4
 128:	00000040 	andeq	r0, r0, r0, asr #32
 12c:	00000020 	andeq	r0, r0, r0, lsr #32
 130:	000000ec 	andeq	r0, r0, ip, ror #1
 134:	000084f4 	strdeq	r8, [r0], -r4
 138:	000001bc 			; <UNDEFINED> instruction: 0x000001bc
 13c:	84180e42 	ldrhi	r0, [r8], #-3650	; 0xe42
 140:	86058506 	strhi	r8, [r5], -r6, lsl #10
 144:	88038704 	stmdahi	r3, {r2, r8, r9, sl, pc}
 148:	42018e02 	andmi	r8, r1, #2, 28
 14c:	0000600e 	andeq	r6, r0, lr
 150:	00000014 	andeq	r0, r0, r4, lsl r0
 154:	000000ec 	andeq	r0, r0, ip, ror #1
 158:	000086b0 			; <UNDEFINED> instruction: 0x000086b0
 15c:	00000068 	andeq	r0, r0, r8, rrx
 160:	8e040e42 	cdphi	14, 0, cr0, cr4, cr2, {2}
 164:	100e4201 	andne	r4, lr, r1, lsl #4
 168:	00000028 	andeq	r0, r0, r8, lsr #32
 16c:	000000ec 	andeq	r0, r0, ip, ror #1
 170:	00008718 	andeq	r8, r0, r8, lsl r7
 174:	000002d4 	ldrdeq	r0, [r0], -r4
 178:	84240e42 	strthi	r0, [r4], #-3650	; 0xe42
 17c:	86088509 	strhi	r8, [r8], -r9, lsl #10
 180:	88068707 	stmdahi	r6, {r0, r1, r2, r8, r9, sl, pc}
 184:	8a048905 	bhi	1225a0 <__bss_end__+0x118a30>
 188:	8e028b03 	vmlahi.f64	d8, d2, d3
 18c:	b80e4201 	stmdalt	lr, {r0, r9, lr}
 190:	00000001 	andeq	r0, r0, r1
 194:	0000000c 	andeq	r0, r0, ip
 198:	ffffffff 			; <UNDEFINED> instruction: 0xffffffff
 19c:	7c020001 	stcvc	0, cr0, [r2], {1}
 1a0:	000d0c0e 	andeq	r0, sp, lr, lsl #24
 1a4:	00000014 	andeq	r0, r0, r4, lsl r0
 1a8:	00000194 	muleq	r0, r4, r1
 1ac:	000089ec 	andeq	r8, r0, ip, ror #19
 1b0:	0000002c 	andeq	r0, r0, ip, lsr #32
 1b4:	83080e42 	movwhi	r0, #36418	; 0x8e42
 1b8:	00018e02 	andeq	r8, r1, r2, lsl #28
 1bc:	0000000c 	andeq	r0, r0, ip
 1c0:	ffffffff 			; <UNDEFINED> instruction: 0xffffffff
 1c4:	7c020001 	stcvc	0, cr0, [r2], {1}
 1c8:	000d0c0e 	andeq	r0, sp, lr, lsl #24
 1cc:	00000014 	andeq	r0, r0, r4, lsl r0
 1d0:	000001bc 			; <UNDEFINED> instruction: 0x000001bc
 1d4:	00008a18 	andeq	r8, r0, r8, lsl sl
 1d8:	00000038 	andeq	r0, r0, r8, lsr r0
 1dc:	83080e42 	movwhi	r0, #36418	; 0x8e42
 1e0:	00018e02 	andeq	r8, r1, r2, lsl #28
 1e4:	0000000c 	andeq	r0, r0, ip
 1e8:	ffffffff 			; <UNDEFINED> instruction: 0xffffffff
 1ec:	7c020001 	stcvc	0, cr0, [r2], {1}
 1f0:	000d0c0e 	andeq	r0, sp, lr, lsl #24
 1f4:	00000014 	andeq	r0, r0, r4, lsl r0
 1f8:	000001e4 	andeq	r0, r0, r4, ror #3
 1fc:	00008a50 	andeq	r8, r0, r0, asr sl
 200:	00000044 	andeq	r0, r0, r4, asr #32
 204:	8e040e42 	cdphi	14, 0, cr0, cr4, cr2, {2}
 208:	100e4201 	andne	r4, lr, r1, lsl #4
 20c:	0000000c 	andeq	r0, r0, ip
 210:	ffffffff 			; <UNDEFINED> instruction: 0xffffffff
 214:	7c020001 	stcvc	0, cr0, [r2], {1}
 218:	000d0c0e 	andeq	r0, sp, lr, lsl #24
 21c:	00000014 	andeq	r0, r0, r4, lsl r0
 220:	0000020c 	andeq	r0, r0, ip, lsl #4
 224:	00008a94 	muleq	r0, r4, sl
 228:	00000044 	andeq	r0, r0, r4, asr #32
 22c:	8e040e42 	cdphi	14, 0, cr0, cr4, cr2, {2}
 230:	100e4201 	andne	r4, lr, r1, lsl #4
 234:	0000000c 	andeq	r0, r0, ip
 238:	ffffffff 			; <UNDEFINED> instruction: 0xffffffff
 23c:	7c020001 	stcvc	0, cr0, [r2], {1}
 240:	000d0c0e 	andeq	r0, sp, lr, lsl #24
 244:	00000014 	andeq	r0, r0, r4, lsl r0
 248:	00000234 	andeq	r0, r0, r4, lsr r2
 24c:	00008ad8 	ldrdeq	r8, [r0], -r8	; <UNPREDICTABLE>
 250:	00000044 	andeq	r0, r0, r4, asr #32
 254:	8e040e42 	cdphi	14, 0, cr0, cr4, cr2, {2}
 258:	100e4201 	andne	r4, lr, r1, lsl #4
 25c:	0000000c 	andeq	r0, r0, ip
 260:	ffffffff 			; <UNDEFINED> instruction: 0xffffffff
 264:	7c020001 	stcvc	0, cr0, [r2], {1}
 268:	000d0c0e 	andeq	r0, sp, lr, lsl #24
 26c:	00000014 	andeq	r0, r0, r4, lsl r0
 270:	0000025c 	andeq	r0, r0, ip, asr r2
 274:	00008b1c 	andeq	r8, r0, ip, lsl fp
 278:	00000044 	andeq	r0, r0, r4, asr #32
 27c:	8e040e42 	cdphi	14, 0, cr0, cr4, cr2, {2}
 280:	100e4201 	andne	r4, lr, r1, lsl #4
 284:	0000000c 	andeq	r0, r0, ip
 288:	ffffffff 			; <UNDEFINED> instruction: 0xffffffff
 28c:	7c020001 	stcvc	0, cr0, [r2], {1}
 290:	000d0c0e 	andeq	r0, sp, lr, lsl #24
 294:	00000014 	andeq	r0, r0, r4, lsl r0
 298:	00000284 	andeq	r0, r0, r4, lsl #5
 29c:	00008b60 	andeq	r8, r0, r0, ror #22
 2a0:	00000044 	andeq	r0, r0, r4, asr #32
 2a4:	8e040e42 	cdphi	14, 0, cr0, cr4, cr2, {2}
 2a8:	100e4201 	andne	r4, lr, r1, lsl #4
 2ac:	0000000c 	andeq	r0, r0, ip
 2b0:	ffffffff 			; <UNDEFINED> instruction: 0xffffffff
 2b4:	7c020001 	stcvc	0, cr0, [r2], {1}
 2b8:	000d0c0e 	andeq	r0, sp, lr, lsl #24
 2bc:	00000014 	andeq	r0, r0, r4, lsl r0
 2c0:	000002ac 	andeq	r0, r0, ip, lsr #5
 2c4:	00008ba4 	andeq	r8, r0, r4, lsr #23
 2c8:	00000044 	andeq	r0, r0, r4, asr #32
 2cc:	8e040e42 	cdphi	14, 0, cr0, cr4, cr2, {2}
 2d0:	100e4201 	andne	r4, lr, r1, lsl #4
 2d4:	0000000c 	andeq	r0, r0, ip
 2d8:	ffffffff 			; <UNDEFINED> instruction: 0xffffffff
 2dc:	7c020001 	stcvc	0, cr0, [r2], {1}
 2e0:	000d0c0e 	andeq	r0, sp, lr, lsl #24
 2e4:	0000000c 	andeq	r0, r0, ip
 2e8:	000002d4 	ldrdeq	r0, [r0], -r4
 2ec:	00008be8 	andeq	r8, r0, r8, ror #23
 2f0:	00000004 	andeq	r0, r0, r4
 2f4:	0000000c 	andeq	r0, r0, ip
 2f8:	000002d4 	ldrdeq	r0, [r0], -r4
 2fc:	00008bec 	andeq	r8, r0, ip, ror #23
 300:	00000004 	andeq	r0, r0, r4
 304:	0000000c 	andeq	r0, r0, ip
 308:	ffffffff 			; <UNDEFINED> instruction: 0xffffffff
 30c:	7c020001 	stcvc	0, cr0, [r2], {1}
 310:	000d0c0e 	andeq	r0, sp, lr, lsl #24
 314:	00000014 	andeq	r0, r0, r4, lsl r0
 318:	00000304 	andeq	r0, r0, r4, lsl #6
 31c:	00008bf0 	strdeq	r8, [r0], -r0
 320:	0000006c 	andeq	r0, r0, ip, rrx
 324:	83080e42 	movwhi	r0, #36418	; 0x8e42
 328:	00018e02 	andeq	r8, r1, r2, lsl #28
 32c:	0000000c 	andeq	r0, r0, ip
 330:	ffffffff 			; <UNDEFINED> instruction: 0xffffffff
 334:	7c020001 	stcvc	0, cr0, [r2], {1}
 338:	000d0c0e 	andeq	r0, sp, lr, lsl #24
 33c:	0000000c 	andeq	r0, r0, ip
 340:	0000032c 	andeq	r0, r0, ip, lsr #6
 344:	00008c5c 	andeq	r8, r0, ip, asr ip
 348:	00000018 	andeq	r0, r0, r8, lsl r0
 34c:	0000000c 	andeq	r0, r0, ip
 350:	0000032c 	andeq	r0, r0, ip, lsr #6
 354:	00008c74 	andeq	r8, r0, r4, ror ip
 358:	00000014 	andeq	r0, r0, r4, lsl r0
 35c:	00000014 	andeq	r0, r0, r4, lsl r0
 360:	0000032c 	andeq	r0, r0, ip, lsr #6
 364:	00008c88 	andeq	r8, r0, r8, lsl #25
 368:	00000048 	andeq	r0, r0, r8, asr #32
 36c:	83080e42 	movwhi	r0, #36418	; 0x8e42
 370:	00018e02 	andeq	r8, r1, r2, lsl #28
 374:	0000000c 	andeq	r0, r0, ip
 378:	ffffffff 			; <UNDEFINED> instruction: 0xffffffff
 37c:	7c020001 	stcvc	0, cr0, [r2], {1}
 380:	000d0c0e 	andeq	r0, sp, lr, lsl #24
 384:	0000000c 	andeq	r0, r0, ip
 388:	00000374 	andeq	r0, r0, r4, ror r3
 38c:	00008cd0 	ldrdeq	r8, [r0], -r0
 390:	0000001c 	andeq	r0, r0, ip, lsl r0
 394:	00000014 	andeq	r0, r0, r4, lsl r0
 398:	00000374 	andeq	r0, r0, r4, ror r3
 39c:	00008cec 	andeq	r8, r0, ip, ror #25
 3a0:	00000014 	andeq	r0, r0, r4, lsl r0
 3a4:	83080e42 	movwhi	r0, #36418	; 0x8e42
 3a8:	00018e02 	andeq	r8, r1, r2, lsl #28
 3ac:	00000014 	andeq	r0, r0, r4, lsl r0
 3b0:	00000374 	andeq	r0, r0, r4, ror r3
 3b4:	00008d00 	andeq	r8, r0, r0, lsl #26
 3b8:	0000001c 	andeq	r0, r0, ip, lsl r0
 3bc:	84080e42 	strhi	r0, [r8], #-3650	; 0xe42
 3c0:	00018e02 	andeq	r8, r1, r2, lsl #28
 3c4:	00000018 	andeq	r0, r0, r8, lsl r0
 3c8:	00000374 	andeq	r0, r0, r4, ror r3
 3cc:	00008d1c 	andeq	r8, r0, ip, lsl sp
 3d0:	00000024 	andeq	r0, r0, r4, lsr #32
 3d4:	83100e42 	tsthi	r0, #1056	; 0x420
 3d8:	85038404 	strhi	r8, [r3, #-1028]	; 0x404
 3dc:	00018e02 	andeq	r8, r1, r2, lsl #28
 3e0:	00000014 	andeq	r0, r0, r4, lsl r0
 3e4:	00000374 	andeq	r0, r0, r4, ror r3
 3e8:	00008d40 	andeq	r8, r0, r0, asr #26
 3ec:	00000014 	andeq	r0, r0, r4, lsl r0
 3f0:	83080e42 	movwhi	r0, #36418	; 0x8e42
 3f4:	00018e02 	andeq	r8, r1, r2, lsl #28
 3f8:	00000014 	andeq	r0, r0, r4, lsl r0
 3fc:	00000374 	andeq	r0, r0, r4, ror r3
 400:	00008d54 	andeq	r8, r0, r4, asr sp
 404:	00000014 	andeq	r0, r0, r4, lsl r0
 408:	83080e42 	movwhi	r0, #36418	; 0x8e42
 40c:	00018e02 	andeq	r8, r1, r2, lsl #28
 410:	0000000c 	andeq	r0, r0, ip
 414:	ffffffff 			; <UNDEFINED> instruction: 0xffffffff
 418:	7c020001 	stcvc	0, cr0, [r2], {1}
 41c:	000d0c0e 	andeq	r0, sp, lr, lsl #24
 420:	00000018 	andeq	r0, r0, r8, lsl r0
 424:	00000410 	andeq	r0, r0, r0, lsl r4
 428:	00008dec 	andeq	r8, r0, ip, ror #27
 42c:	00000020 	andeq	r0, r0, r0, lsr #32
 430:	84100e42 	ldrhi	r0, [r0], #-3650	; 0xe42
 434:	86038504 	strhi	r8, [r3], -r4, lsl #10
 438:	00018e02 	andeq	r8, r1, r2, lsl #28
 43c:	00000014 	andeq	r0, r0, r4, lsl r0
 440:	00000410 	andeq	r0, r0, r0, lsl r4
 444:	00008e0c 	andeq	r8, r0, ip, lsl #28
 448:	000000b0 	strheq	r0, [r0], -r0	; <UNPREDICTABLE>
 44c:	84080e42 	strhi	r0, [r8], #-3650	; 0xe42
 450:	00018e02 	andeq	r8, r1, r2, lsl #28
 454:	00000014 	andeq	r0, r0, r4, lsl r0
 458:	00000410 	andeq	r0, r0, r0, lsl r4
 45c:	00008ebc 			; <UNDEFINED> instruction: 0x00008ebc
 460:	00000018 	andeq	r0, r0, r8, lsl r0
 464:	84080e42 	strhi	r0, [r8], #-3650	; 0xe42
 468:	00018e02 	andeq	r8, r1, r2, lsl #28
 46c:	00000014 	andeq	r0, r0, r4, lsl r0
 470:	00000410 	andeq	r0, r0, r0, lsl r4
 474:	00008ed4 	ldrdeq	r8, [r0], -r4
 478:	00000020 	andeq	r0, r0, r0, lsr #32
 47c:	84080e42 	strhi	r0, [r8], #-3650	; 0xe42
 480:	00018e02 	andeq	r8, r1, r2, lsl #28
 484:	00000014 	andeq	r0, r0, r4, lsl r0
 488:	00000410 	andeq	r0, r0, r0, lsl r4
 48c:	00008ef4 	strdeq	r8, [r0], -r4
 490:	00000030 	andeq	r0, r0, r0, lsr r0
 494:	84080e42 	strhi	r0, [r8], #-3650	; 0xe42
 498:	00018e02 	andeq	r8, r1, r2, lsl #28
 49c:	00000014 	andeq	r0, r0, r4, lsl r0
 4a0:	00000410 	andeq	r0, r0, r0, lsl r4
 4a4:	00008f24 	andeq	r8, r0, r4, lsr #30
 4a8:	00000030 	andeq	r0, r0, r0, lsr r0
 4ac:	84080e42 	strhi	r0, [r8], #-3650	; 0xe42
 4b0:	00018e02 	andeq	r8, r1, r2, lsl #28
 4b4:	00000014 	andeq	r0, r0, r4, lsl r0
 4b8:	00000410 	andeq	r0, r0, r0, lsl r4
 4bc:	00008f54 	andeq	r8, r0, r4, asr pc
 4c0:	00000010 	andeq	r0, r0, r0, lsl r0
 4c4:	84080e42 	strhi	r0, [r8], #-3650	; 0xe42
 4c8:	00018e02 	andeq	r8, r1, r2, lsl #28
 4cc:	0000000c 	andeq	r0, r0, ip
 4d0:	ffffffff 			; <UNDEFINED> instruction: 0xffffffff
 4d4:	7c020001 	stcvc	0, cr0, [r2], {1}
 4d8:	000d0c0e 	andeq	r0, sp, lr, lsl #24
 4dc:	00000018 	andeq	r0, r0, r8, lsl r0
 4e0:	000004cc 	andeq	r0, r0, ip, asr #9
 4e4:	00008f64 	andeq	r8, r0, r4, ror #30
 4e8:	00000068 	andeq	r0, r0, r8, rrx
 4ec:	84100e4a 	ldrhi	r0, [r0], #-3658	; 0xe4a
 4f0:	86038504 	strhi	r8, [r3], -r4, lsl #10
 4f4:	00018e02 	andeq	r8, r1, r2, lsl #28
 4f8:	00000014 	andeq	r0, r0, r4, lsl r0
 4fc:	000004cc 	andeq	r0, r0, ip, asr #9
 500:	00008fcc 	andeq	r8, r0, ip, asr #31
 504:	00000010 	andeq	r0, r0, r0, lsl r0
 508:	84080e42 	strhi	r0, [r8], #-3650	; 0xe42
 50c:	00018e02 	andeq	r8, r1, r2, lsl #28
 510:	00000014 	andeq	r0, r0, r4, lsl r0
 514:	000004cc 	andeq	r0, r0, ip, asr #9
 518:	00008fdc 	ldrdeq	r8, [r0], -ip
 51c:	00000024 	andeq	r0, r0, r4, lsr #32
 520:	84080e46 	strhi	r0, [r8], #-3654	; 0xe46
 524:	00018e02 	andeq	r8, r1, r2, lsl #28
 528:	00000014 	andeq	r0, r0, r4, lsl r0
 52c:	000004cc 	andeq	r0, r0, ip, asr #9
 530:	00009000 	andeq	r9, r0, r0
 534:	00000024 	andeq	r0, r0, r4, lsr #32
 538:	84080e46 	strhi	r0, [r8], #-3654	; 0xe46
 53c:	00018e02 	andeq	r8, r1, r2, lsl #28
 540:	00000014 	andeq	r0, r0, r4, lsl r0
 544:	000004cc 	andeq	r0, r0, ip, asr #9
 548:	00009024 	andeq	r9, r0, r4, lsr #32
 54c:	00000010 	andeq	r0, r0, r0, lsl r0
 550:	84080e42 	strhi	r0, [r8], #-3650	; 0xe42
 554:	00018e02 	andeq	r8, r1, r2, lsl #28
 558:	00000014 	andeq	r0, r0, r4, lsl r0
 55c:	000004cc 	andeq	r0, r0, ip, asr #9
 560:	00009034 	andeq	r9, r0, r4, lsr r0
 564:	0000001c 	andeq	r0, r0, ip, lsl r0
 568:	84080e42 	strhi	r0, [r8], #-3650	; 0xe42
 56c:	00018e02 	andeq	r8, r1, r2, lsl #28
 570:	00000018 	andeq	r0, r0, r8, lsl r0
 574:	000004cc 	andeq	r0, r0, ip, asr #9
 578:	00009050 	andeq	r9, r0, r0, asr r0
 57c:	00000034 	andeq	r0, r0, r4, lsr r0
 580:	84080e46 	strhi	r0, [r8], #-3654	; 0xe46
 584:	4e018e02 	cdpmi	14, 0, cr8, cr1, cr2, {0}
 588:	cec4000e 	cdpgt	0, 12, cr0, cr4, cr14, {0}
 58c:	0000000c 	andeq	r0, r0, ip
 590:	ffffffff 			; <UNDEFINED> instruction: 0xffffffff
 594:	7c020001 	stcvc	0, cr0, [r2], {1}
 598:	000d0c0e 	andeq	r0, sp, lr, lsl #24
 59c:	00000014 	andeq	r0, r0, r4, lsl r0
 5a0:	0000058c 	andeq	r0, r0, ip, lsl #11
 5a4:	00009084 	andeq	r9, r0, r4, lsl #1
 5a8:	00000014 	andeq	r0, r0, r4, lsl r0
 5ac:	84080e42 	strhi	r0, [r8], #-3650	; 0xe42
 5b0:	00018e02 	andeq	r8, r1, r2, lsl #28
 5b4:	0000000c 	andeq	r0, r0, ip
 5b8:	0000058c 	andeq	r0, r0, ip, lsl #11
 5bc:	00009098 	muleq	r0, r8, r0
 5c0:	00000018 	andeq	r0, r0, r8, lsl r0
 5c4:	0000000c 	andeq	r0, r0, ip
 5c8:	0000058c 	andeq	r0, r0, ip, lsl #11
 5cc:	000090b0 	strheq	r9, [r0], -r0
 5d0:	00000010 	andeq	r0, r0, r0, lsl r0

Disassembly of section .debug_ranges:

00000000 <.debug_ranges>:
   0:	00008c5c 	andeq	r8, r0, ip, asr ip
   4:	00008cd0 	ldrdeq	r8, [r0], -r0
	...
