
test-gen.elf:     file format elf32-littlearm


Disassembly of section .text:

00008000 <_start>:
    8000:	e3a0d302 	mov	sp, #134217728	; 0x8000000
    8004:	e3a0b000 	mov	fp, #0
    8008:	eb00035a 	bl	8d78 <_cstart>
    800c:	eb000371 	bl	8dd8 <rpi_reboot>

00008010 <cycles_per_sec>:
    8010:	e3500001 	cmp	r0, #1
    8014:	e92d4010 	push	{r4, lr}
    8018:	8a000006 	bhi	8038 <cycles_per_sec+0x28>
    801c:	ee1f4f3c 	mrc	15, 0, r4, cr15, cr12, {1}
    8020:	e3a03ffa 	mov	r3, #1000	; 0x3e8
    8024:	e0000093 	mul	r0, r3, r0
    8028:	eb000394 	bl	8e80 <delay_ms>
    802c:	ee1f0f3c 	mrc	15, 0, r0, cr15, cr12, {1}
    8030:	e0640000 	rsb	r0, r4, r0
    8034:	e8bd8010 	pop	{r4, pc}
    8038:	eb0001e7 	bl	87dc <rpi_reset_putc>
    803c:	e59f1010 	ldr	r1, [pc, #16]	; 8054 <cycles_per_sec+0x44>
    8040:	e59f2010 	ldr	r2, [pc, #16]	; 8058 <cycles_per_sec+0x48>
    8044:	e3a03042 	mov	r3, #66	; 0x42
    8048:	e59f000c 	ldr	r0, [pc, #12]	; 805c <cycles_per_sec+0x4c>
    804c:	eb0001c7 	bl	8770 <printk>
    8050:	eb00033e 	bl	8d50 <clean_reboot>
    8054:	000096dc 	ldrdeq	r9, [r0], -ip
    8058:	0000969c 	muleq	r0, ip, r6
    805c:	000096ac 	andeq	r9, r0, ip, lsr #13

00008060 <sw_uart_get8>:
    8060:	e5902004 	ldr	r2, [r0, #4]
    8064:	e3a01001 	mov	r1, #1
    8068:	e1a01211 	lsl	r1, r1, r2
    806c:	e590c00c 	ldr	ip, [r0, #12]
    8070:	e59f01a0 	ldr	r0, [pc, #416]	; 8218 <sw_uart_get8+0x1b8>
    8074:	e92d07f0 	push	{r4, r5, r6, r7, r8, r9, sl}
    8078:	e1a0a0ac 	lsr	sl, ip, #1
    807c:	e5903034 	ldr	r3, [r0, #52]	; 0x34
    8080:	e0013003 	and	r3, r1, r3
    8084:	e1b03233 	lsrs	r3, r3, r2
    8088:	1afffffb 	bne	807c <sw_uart_get8+0x1c>
    808c:	ee1f3f3c 	mrc	15, 0, r3, cr15, cr12, {1}
    8090:	ee1f2f3c 	mrc	15, 0, r2, cr15, cr12, {1}
    8094:	e0632002 	rsb	r2, r3, r2
    8098:	e15a0002 	cmp	sl, r2
    809c:	8afffffb 	bhi	8090 <sw_uart_get8+0x30>
    80a0:	e08aa00c 	add	sl, sl, ip
    80a4:	ee1f2f3c 	mrc	15, 0, r2, cr15, cr12, {1}
    80a8:	e0632002 	rsb	r2, r3, r2
    80ac:	e152000a 	cmp	r2, sl
    80b0:	3afffffb 	bcc	80a4 <sw_uart_get8+0x44>
    80b4:	e59f215c 	ldr	r2, [pc, #348]	; 8218 <sw_uart_get8+0x1b8>
    80b8:	e08aa00c 	add	sl, sl, ip
    80bc:	e5928034 	ldr	r8, [r2, #52]	; 0x34
    80c0:	e0088001 	and	r8, r8, r1
    80c4:	e1a08a28 	lsr	r8, r8, #20
    80c8:	e1a08388 	lsl	r8, r8, #7
    80cc:	e6ef8078 	uxtb	r8, r8
    80d0:	ee1f2f3c 	mrc	15, 0, r2, cr15, cr12, {1}
    80d4:	e0632002 	rsb	r2, r3, r2
    80d8:	e152000a 	cmp	r2, sl
    80dc:	3afffffb 	bcc	80d0 <sw_uart_get8+0x70>
    80e0:	e59f2130 	ldr	r2, [pc, #304]	; 8218 <sw_uart_get8+0x1b8>
    80e4:	e08aa00c 	add	sl, sl, ip
    80e8:	e5927034 	ldr	r7, [r2, #52]	; 0x34
    80ec:	e0077001 	and	r7, r7, r1
    80f0:	e1a07727 	lsr	r7, r7, #14
    80f4:	e2077040 	and	r7, r7, #64	; 0x40
    80f8:	ee1f2f3c 	mrc	15, 0, r2, cr15, cr12, {1}
    80fc:	e0632002 	rsb	r2, r3, r2
    8100:	e152000a 	cmp	r2, sl
    8104:	3afffffb 	bcc	80f8 <sw_uart_get8+0x98>
    8108:	e59f2108 	ldr	r2, [pc, #264]	; 8218 <sw_uart_get8+0x1b8>
    810c:	e08aa00c 	add	sl, sl, ip
    8110:	e5926034 	ldr	r6, [r2, #52]	; 0x34
    8114:	e0066001 	and	r6, r6, r1
    8118:	e1a067a6 	lsr	r6, r6, #15
    811c:	e2066020 	and	r6, r6, #32
    8120:	ee1f2f3c 	mrc	15, 0, r2, cr15, cr12, {1}
    8124:	e0632002 	rsb	r2, r3, r2
    8128:	e152000a 	cmp	r2, sl
    812c:	3afffffb 	bcc	8120 <sw_uart_get8+0xc0>
    8130:	e59f20e0 	ldr	r2, [pc, #224]	; 8218 <sw_uart_get8+0x1b8>
    8134:	e08aa00c 	add	sl, sl, ip
    8138:	e5925034 	ldr	r5, [r2, #52]	; 0x34
    813c:	e0055001 	and	r5, r5, r1
    8140:	e1a05825 	lsr	r5, r5, #16
    8144:	e2055010 	and	r5, r5, #16
    8148:	ee1f2f3c 	mrc	15, 0, r2, cr15, cr12, {1}
    814c:	e0632002 	rsb	r2, r3, r2
    8150:	e152000a 	cmp	r2, sl
    8154:	3afffffb 	bcc	8148 <sw_uart_get8+0xe8>
    8158:	e59f20b8 	ldr	r2, [pc, #184]	; 8218 <sw_uart_get8+0x1b8>
    815c:	e08aa00c 	add	sl, sl, ip
    8160:	e5924034 	ldr	r4, [r2, #52]	; 0x34
    8164:	e0044001 	and	r4, r4, r1
    8168:	e1a048a4 	lsr	r4, r4, #17
    816c:	e2044008 	and	r4, r4, #8
    8170:	ee1f2f3c 	mrc	15, 0, r2, cr15, cr12, {1}
    8174:	e0632002 	rsb	r2, r3, r2
    8178:	e152000a 	cmp	r2, sl
    817c:	3afffffb 	bcc	8170 <sw_uart_get8+0x110>
    8180:	e59f2090 	ldr	r2, [pc, #144]	; 8218 <sw_uart_get8+0x1b8>
    8184:	e08aa00c 	add	sl, sl, ip
    8188:	e5929034 	ldr	r9, [r2, #52]	; 0x34
    818c:	e0099001 	and	r9, r9, r1
    8190:	e1a09929 	lsr	r9, r9, #18
    8194:	e2099004 	and	r9, r9, #4
    8198:	ee1f2f3c 	mrc	15, 0, r2, cr15, cr12, {1}
    819c:	e0632002 	rsb	r2, r3, r2
    81a0:	e152000a 	cmp	r2, sl
    81a4:	3afffffb 	bcc	8198 <sw_uart_get8+0x138>
    81a8:	e59f2068 	ldr	r2, [pc, #104]	; 8218 <sw_uart_get8+0x1b8>
    81ac:	e08aa00c 	add	sl, sl, ip
    81b0:	e5920034 	ldr	r0, [r2, #52]	; 0x34
    81b4:	e0000001 	and	r0, r0, r1
    81b8:	e1a009a0 	lsr	r0, r0, #19
    81bc:	e2000002 	and	r0, r0, #2
    81c0:	ee1f2f3c 	mrc	15, 0, r2, cr15, cr12, {1}
    81c4:	e0632002 	rsb	r2, r3, r2
    81c8:	e152000a 	cmp	r2, sl
    81cc:	3afffffb 	bcc	81c0 <sw_uart_get8+0x160>
    81d0:	e59f2040 	ldr	r2, [pc, #64]	; 8218 <sw_uart_get8+0x1b8>
    81d4:	e1888007 	orr	r8, r8, r7
    81d8:	e5927034 	ldr	r7, [r2, #52]	; 0x34
    81dc:	e08ac00c 	add	ip, sl, ip
    81e0:	e0077001 	and	r7, r7, r1
    81e4:	e1a07587 	lsl	r7, r7, #11
    81e8:	e1887fa7 	orr	r7, r8, r7, lsr #31
    81ec:	e1876006 	orr	r6, r7, r6
    81f0:	e1865005 	orr	r5, r6, r5
    81f4:	e1854004 	orr	r4, r5, r4
    81f8:	e1849009 	orr	r9, r4, r9
    81fc:	e1890000 	orr	r0, r9, r0
    8200:	ee1f2f3c 	mrc	15, 0, r2, cr15, cr12, {1}
    8204:	e0632002 	rsb	r2, r3, r2
    8208:	e152000c 	cmp	r2, ip
    820c:	3afffffb 	bcc	8200 <sw_uart_get8+0x1a0>
    8210:	e8bd07f0 	pop	{r4, r5, r6, r7, r8, r9, sl}
    8214:	e12fff1e 	bx	lr
    8218:	20200000 	eorcs	r0, r0, r0

0000821c <sw_uart_put8>:
    821c:	e92d0070 	push	{r4, r5, r6}
    8220:	ee1f3f3c 	mrc	15, 0, r3, cr15, cr12, {1}
    8224:	e5905000 	ldr	r5, [r0]
    8228:	e3a04001 	mov	r4, #1
    822c:	e1a04514 	lsl	r4, r4, r5
    8230:	e59f6270 	ldr	r6, [pc, #624]	; 84a8 <sw_uart_put8+0x28c>
    8234:	e5962034 	ldr	r2, [r6, #52]	; 0x34
    8238:	e59fc268 	ldr	ip, [pc, #616]	; 84a8 <sw_uart_put8+0x28c>
    823c:	e0042002 	and	r2, r4, r2
    8240:	e1b02532 	lsrs	r2, r2, r5
    8244:	0afffffa 	beq	8234 <sw_uart_put8+0x18>
    8248:	e59c2028 	ldr	r2, [ip, #40]	; 0x28
    824c:	e1824004 	orr	r4, r2, r4
    8250:	e58c4028 	str	r4, [ip, #40]	; 0x28
    8254:	e590c00c 	ldr	ip, [r0, #12]
    8258:	ee1f2f3c 	mrc	15, 0, r2, cr15, cr12, {1}
    825c:	e0632002 	rsb	r2, r3, r2
    8260:	e152000c 	cmp	r2, ip
    8264:	3afffffb 	bcc	8258 <sw_uart_put8+0x3c>
    8268:	e59fc238 	ldr	ip, [pc, #568]	; 84a8 <sw_uart_put8+0x28c>
    826c:	e3110001 	tst	r1, #1
    8270:	e5902000 	ldr	r2, [r0]
    8274:	159c401c 	ldrne	r4, [ip, #28]
    8278:	059c4028 	ldreq	r4, [ip, #40]	; 0x28
    827c:	e3a05001 	mov	r5, #1
    8280:	11842215 	orrne	r2, r4, r5, lsl r2
    8284:	01842215 	orreq	r2, r4, r5, lsl r2
    8288:	158c201c 	strne	r2, [ip, #28]
    828c:	058c2028 	streq	r2, [ip, #40]	; 0x28
    8290:	e590c00c 	ldr	ip, [r0, #12]
    8294:	e1a0c08c 	lsl	ip, ip, #1
    8298:	ee1f2f3c 	mrc	15, 0, r2, cr15, cr12, {1}
    829c:	e0632002 	rsb	r2, r3, r2
    82a0:	e152000c 	cmp	r2, ip
    82a4:	3afffffb 	bcc	8298 <sw_uart_put8+0x7c>
    82a8:	e59fc1f8 	ldr	ip, [pc, #504]	; 84a8 <sw_uart_put8+0x28c>
    82ac:	e3110002 	tst	r1, #2
    82b0:	e5902000 	ldr	r2, [r0]
    82b4:	159c401c 	ldrne	r4, [ip, #28]
    82b8:	059c4028 	ldreq	r4, [ip, #40]	; 0x28
    82bc:	e3a05001 	mov	r5, #1
    82c0:	11842215 	orrne	r2, r4, r5, lsl r2
    82c4:	01842215 	orreq	r2, r4, r5, lsl r2
    82c8:	158c201c 	strne	r2, [ip, #28]
    82cc:	058c2028 	streq	r2, [ip, #40]	; 0x28
    82d0:	e590c00c 	ldr	ip, [r0, #12]
    82d4:	e08cc08c 	add	ip, ip, ip, lsl #1
    82d8:	ee1f2f3c 	mrc	15, 0, r2, cr15, cr12, {1}
    82dc:	e0632002 	rsb	r2, r3, r2
    82e0:	e152000c 	cmp	r2, ip
    82e4:	3afffffb 	bcc	82d8 <sw_uart_put8+0xbc>
    82e8:	e59fc1b8 	ldr	ip, [pc, #440]	; 84a8 <sw_uart_put8+0x28c>
    82ec:	e3110004 	tst	r1, #4
    82f0:	e5902000 	ldr	r2, [r0]
    82f4:	159c401c 	ldrne	r4, [ip, #28]
    82f8:	059c4028 	ldreq	r4, [ip, #40]	; 0x28
    82fc:	e3a05001 	mov	r5, #1
    8300:	11842215 	orrne	r2, r4, r5, lsl r2
    8304:	01842215 	orreq	r2, r4, r5, lsl r2
    8308:	158c201c 	strne	r2, [ip, #28]
    830c:	058c2028 	streq	r2, [ip, #40]	; 0x28
    8310:	e590c00c 	ldr	ip, [r0, #12]
    8314:	e1a0c10c 	lsl	ip, ip, #2
    8318:	ee1f2f3c 	mrc	15, 0, r2, cr15, cr12, {1}
    831c:	e0632002 	rsb	r2, r3, r2
    8320:	e152000c 	cmp	r2, ip
    8324:	3afffffb 	bcc	8318 <sw_uart_put8+0xfc>
    8328:	e59fc178 	ldr	ip, [pc, #376]	; 84a8 <sw_uart_put8+0x28c>
    832c:	e3110008 	tst	r1, #8
    8330:	e5902000 	ldr	r2, [r0]
    8334:	159c401c 	ldrne	r4, [ip, #28]
    8338:	059c4028 	ldreq	r4, [ip, #40]	; 0x28
    833c:	e3a05001 	mov	r5, #1
    8340:	11842215 	orrne	r2, r4, r5, lsl r2
    8344:	01842215 	orreq	r2, r4, r5, lsl r2
    8348:	158c201c 	strne	r2, [ip, #28]
    834c:	058c2028 	streq	r2, [ip, #40]	; 0x28
    8350:	e590c00c 	ldr	ip, [r0, #12]
    8354:	e08cc10c 	add	ip, ip, ip, lsl #2
    8358:	ee1f2f3c 	mrc	15, 0, r2, cr15, cr12, {1}
    835c:	e0632002 	rsb	r2, r3, r2
    8360:	e152000c 	cmp	r2, ip
    8364:	3afffffb 	bcc	8358 <sw_uart_put8+0x13c>
    8368:	e59fc138 	ldr	ip, [pc, #312]	; 84a8 <sw_uart_put8+0x28c>
    836c:	e3110010 	tst	r1, #16
    8370:	e5902000 	ldr	r2, [r0]
    8374:	159c401c 	ldrne	r4, [ip, #28]
    8378:	059c4028 	ldreq	r4, [ip, #40]	; 0x28
    837c:	e3a05001 	mov	r5, #1
    8380:	11842215 	orrne	r2, r4, r5, lsl r2
    8384:	01842215 	orreq	r2, r4, r5, lsl r2
    8388:	158c201c 	strne	r2, [ip, #28]
    838c:	058c2028 	streq	r2, [ip, #40]	; 0x28
    8390:	e590c00c 	ldr	ip, [r0, #12]
    8394:	e08cc08c 	add	ip, ip, ip, lsl #1
    8398:	e1a0c08c 	lsl	ip, ip, #1
    839c:	ee1f2f3c 	mrc	15, 0, r2, cr15, cr12, {1}
    83a0:	e0632002 	rsb	r2, r3, r2
    83a4:	e152000c 	cmp	r2, ip
    83a8:	3afffffb 	bcc	839c <sw_uart_put8+0x180>
    83ac:	e59fc0f4 	ldr	ip, [pc, #244]	; 84a8 <sw_uart_put8+0x28c>
    83b0:	e3110020 	tst	r1, #32
    83b4:	e5902000 	ldr	r2, [r0]
    83b8:	159c401c 	ldrne	r4, [ip, #28]
    83bc:	059c4028 	ldreq	r4, [ip, #40]	; 0x28
    83c0:	e3a05001 	mov	r5, #1
    83c4:	11842215 	orrne	r2, r4, r5, lsl r2
    83c8:	01842215 	orreq	r2, r4, r5, lsl r2
    83cc:	158c201c 	strne	r2, [ip, #28]
    83d0:	058c2028 	streq	r2, [ip, #40]	; 0x28
    83d4:	e590c00c 	ldr	ip, [r0, #12]
    83d8:	e06cc18c 	rsb	ip, ip, ip, lsl #3
    83dc:	ee1f2f3c 	mrc	15, 0, r2, cr15, cr12, {1}
    83e0:	e0632002 	rsb	r2, r3, r2
    83e4:	e152000c 	cmp	r2, ip
    83e8:	3afffffb 	bcc	83dc <sw_uart_put8+0x1c0>
    83ec:	e59fc0b4 	ldr	ip, [pc, #180]	; 84a8 <sw_uart_put8+0x28c>
    83f0:	e3110040 	tst	r1, #64	; 0x40
    83f4:	e5902000 	ldr	r2, [r0]
    83f8:	159c401c 	ldrne	r4, [ip, #28]
    83fc:	059c4028 	ldreq	r4, [ip, #40]	; 0x28
    8400:	e3a05001 	mov	r5, #1
    8404:	11842215 	orrne	r2, r4, r5, lsl r2
    8408:	01842215 	orreq	r2, r4, r5, lsl r2
    840c:	158c201c 	strne	r2, [ip, #28]
    8410:	058c2028 	streq	r2, [ip, #40]	; 0x28
    8414:	e590c00c 	ldr	ip, [r0, #12]
    8418:	e1a0c18c 	lsl	ip, ip, #3
    841c:	ee1f2f3c 	mrc	15, 0, r2, cr15, cr12, {1}
    8420:	e0632002 	rsb	r2, r3, r2
    8424:	e152000c 	cmp	r2, ip
    8428:	3afffffb 	bcc	841c <sw_uart_put8+0x200>
    842c:	e3110080 	tst	r1, #128	; 0x80
    8430:	e59f1070 	ldr	r1, [pc, #112]	; 84a8 <sw_uart_put8+0x28c>
    8434:	e5902000 	ldr	r2, [r0]
    8438:	1591c01c 	ldrne	ip, [r1, #28]
    843c:	0591c028 	ldreq	ip, [r1, #40]	; 0x28
    8440:	e3a04001 	mov	r4, #1
    8444:	118c2214 	orrne	r2, ip, r4, lsl r2
    8448:	018c2214 	orreq	r2, ip, r4, lsl r2
    844c:	1581201c 	strne	r2, [r1, #28]
    8450:	05812028 	streq	r2, [r1, #40]	; 0x28
    8454:	e590100c 	ldr	r1, [r0, #12]
    8458:	e0811181 	add	r1, r1, r1, lsl #3
    845c:	ee1f2f3c 	mrc	15, 0, r2, cr15, cr12, {1}
    8460:	e0632002 	rsb	r2, r3, r2
    8464:	e1520001 	cmp	r2, r1
    8468:	3afffffb 	bcc	845c <sw_uart_put8+0x240>
    846c:	e59f2034 	ldr	r2, [pc, #52]	; 84a8 <sw_uart_put8+0x28c>
    8470:	e5901000 	ldr	r1, [r0]
    8474:	e592c01c 	ldr	ip, [r2, #28]
    8478:	e3a04001 	mov	r4, #1
    847c:	e18c1114 	orr	r1, ip, r4, lsl r1
    8480:	e582101c 	str	r1, [r2, #28]
    8484:	e590100c 	ldr	r1, [r0, #12]
    8488:	e0811101 	add	r1, r1, r1, lsl #2
    848c:	e1a01411 	lsl	r1, r1, r4
    8490:	ee1f2f3c 	mrc	15, 0, r2, cr15, cr12, {1}
    8494:	e0632002 	rsb	r2, r3, r2
    8498:	e1520001 	cmp	r2, r1
    849c:	3afffffb 	bcc	8490 <sw_uart_put8+0x274>
    84a0:	e8bd0070 	pop	{r4, r5, r6}
    84a4:	e12fff1e 	bx	lr
    84a8:	20200000 	eorcs	r0, r0, r0

000084ac <notmain>:
    84ac:	e92d40f8 	push	{r3, r4, r5, r6, r7, lr}
    84b0:	e59f12a4 	ldr	r1, [pc, #676]	; 875c <notmain+0x2b0>
    84b4:	e3a03015 	mov	r3, #21
    84b8:	e59f22a0 	ldr	r2, [pc, #672]	; 8760 <notmain+0x2b4>
    84bc:	e59f52a0 	ldr	r5, [pc, #672]	; 8764 <notmain+0x2b8>
    84c0:	e1a00003 	mov	r0, r3
    84c4:	e3a04014 	mov	r4, #20
    84c8:	e8850018 	stm	r5, {r3, r4}
    84cc:	e5851008 	str	r1, [r5, #8]
    84d0:	e585200c 	str	r2, [r5, #12]
    84d4:	eb000273 	bl	8ea8 <gpio_set_output>
    84d8:	e1a00004 	mov	r0, r4
    84dc:	eb0002c2 	bl	8fec <gpio_set_input>
    84e0:	eb000212 	bl	8d30 <enable_cache>
    84e4:	e3a03001 	mov	r3, #1
    84e8:	ee0f3f1c 	mcr	15, 0, r3, cr15, cr12, {0}
    84ec:	e59f3274 	ldr	r3, [pc, #628]	; 8768 <notmain+0x2bc>
    84f0:	e59f0274 	ldr	r0, [pc, #628]	; 876c <notmain+0x2c0>
    84f4:	e593201c 	ldr	r2, [r3, #28]
    84f8:	e1a04003 	mov	r4, r3
    84fc:	e3822602 	orr	r2, r2, #2097152	; 0x200000
    8500:	e583201c 	str	r2, [r3, #28]
    8504:	eb000099 	bl	8770 <printk>
    8508:	e3a06000 	mov	r6, #0
    850c:	e3a07001 	mov	r7, #1
    8510:	ee1f3f3c 	mrc	15, 0, r3, cr15, cr12, {1}
    8514:	e595c000 	ldr	ip, [r5]
    8518:	e1a00c17 	lsl	r0, r7, ip
    851c:	e5942034 	ldr	r2, [r4, #52]	; 0x34
    8520:	e59f1240 	ldr	r1, [pc, #576]	; 8768 <notmain+0x2bc>
    8524:	e0002002 	and	r2, r0, r2
    8528:	e1b02c32 	lsrs	r2, r2, ip
    852c:	0afffffa 	beq	851c <notmain+0x70>
    8530:	e5912028 	ldr	r2, [r1, #40]	; 0x28
    8534:	e595c00c 	ldr	ip, [r5, #12]
    8538:	e1820000 	orr	r0, r2, r0
    853c:	e5810028 	str	r0, [r1, #40]	; 0x28
    8540:	ee1f2f3c 	mrc	15, 0, r2, cr15, cr12, {1}
    8544:	e0632002 	rsb	r2, r3, r2
    8548:	e152000c 	cmp	r2, ip
    854c:	3afffffb 	bcc	8540 <notmain+0x94>
    8550:	e3160001 	tst	r6, #1
    8554:	e5952000 	ldr	r2, [r5]
    8558:	1594101c 	ldrne	r1, [r4, #28]
    855c:	05941028 	ldreq	r1, [r4, #40]	; 0x28
    8560:	11812217 	orrne	r2, r1, r7, lsl r2
    8564:	01812217 	orreq	r2, r1, r7, lsl r2
    8568:	1584201c 	strne	r2, [r4, #28]
    856c:	05842028 	streq	r2, [r4, #40]	; 0x28
    8570:	e595100c 	ldr	r1, [r5, #12]
    8574:	e1a01081 	lsl	r1, r1, #1
    8578:	ee1f2f3c 	mrc	15, 0, r2, cr15, cr12, {1}
    857c:	e0632002 	rsb	r2, r3, r2
    8580:	e1510002 	cmp	r1, r2
    8584:	8afffffb 	bhi	8578 <notmain+0xcc>
    8588:	e3160002 	tst	r6, #2
    858c:	e5952000 	ldr	r2, [r5]
    8590:	1594101c 	ldrne	r1, [r4, #28]
    8594:	05941028 	ldreq	r1, [r4, #40]	; 0x28
    8598:	11812217 	orrne	r2, r1, r7, lsl r2
    859c:	01812217 	orreq	r2, r1, r7, lsl r2
    85a0:	1584201c 	strne	r2, [r4, #28]
    85a4:	05842028 	streq	r2, [r4, #40]	; 0x28
    85a8:	e595100c 	ldr	r1, [r5, #12]
    85ac:	e0811081 	add	r1, r1, r1, lsl #1
    85b0:	ee1f2f3c 	mrc	15, 0, r2, cr15, cr12, {1}
    85b4:	e0632002 	rsb	r2, r3, r2
    85b8:	e1520001 	cmp	r2, r1
    85bc:	3afffffb 	bcc	85b0 <notmain+0x104>
    85c0:	e3160004 	tst	r6, #4
    85c4:	e5952000 	ldr	r2, [r5]
    85c8:	1594101c 	ldrne	r1, [r4, #28]
    85cc:	05941028 	ldreq	r1, [r4, #40]	; 0x28
    85d0:	11812217 	orrne	r2, r1, r7, lsl r2
    85d4:	01812217 	orreq	r2, r1, r7, lsl r2
    85d8:	1584201c 	strne	r2, [r4, #28]
    85dc:	05842028 	streq	r2, [r4, #40]	; 0x28
    85e0:	e595100c 	ldr	r1, [r5, #12]
    85e4:	e1a01101 	lsl	r1, r1, #2
    85e8:	ee1f2f3c 	mrc	15, 0, r2, cr15, cr12, {1}
    85ec:	e0632002 	rsb	r2, r3, r2
    85f0:	e1520001 	cmp	r2, r1
    85f4:	3afffffb 	bcc	85e8 <notmain+0x13c>
    85f8:	e3160008 	tst	r6, #8
    85fc:	e5952000 	ldr	r2, [r5]
    8600:	1594101c 	ldrne	r1, [r4, #28]
    8604:	05941028 	ldreq	r1, [r4, #40]	; 0x28
    8608:	11812217 	orrne	r2, r1, r7, lsl r2
    860c:	01812217 	orreq	r2, r1, r7, lsl r2
    8610:	1584201c 	strne	r2, [r4, #28]
    8614:	05842028 	streq	r2, [r4, #40]	; 0x28
    8618:	e595100c 	ldr	r1, [r5, #12]
    861c:	e0811101 	add	r1, r1, r1, lsl #2
    8620:	ee1f2f3c 	mrc	15, 0, r2, cr15, cr12, {1}
    8624:	e0632002 	rsb	r2, r3, r2
    8628:	e1520001 	cmp	r2, r1
    862c:	3afffffb 	bcc	8620 <notmain+0x174>
    8630:	e3160010 	tst	r6, #16
    8634:	e5952000 	ldr	r2, [r5]
    8638:	1594101c 	ldrne	r1, [r4, #28]
    863c:	05941028 	ldreq	r1, [r4, #40]	; 0x28
    8640:	11812217 	orrne	r2, r1, r7, lsl r2
    8644:	01812217 	orreq	r2, r1, r7, lsl r2
    8648:	1584201c 	strne	r2, [r4, #28]
    864c:	05842028 	streq	r2, [r4, #40]	; 0x28
    8650:	e595100c 	ldr	r1, [r5, #12]
    8654:	e0811081 	add	r1, r1, r1, lsl #1
    8658:	e1a01081 	lsl	r1, r1, #1
    865c:	ee1f2f3c 	mrc	15, 0, r2, cr15, cr12, {1}
    8660:	e0632002 	rsb	r2, r3, r2
    8664:	e1520001 	cmp	r2, r1
    8668:	3afffffb 	bcc	865c <notmain+0x1b0>
    866c:	e3160020 	tst	r6, #32
    8670:	e5952000 	ldr	r2, [r5]
    8674:	1594101c 	ldrne	r1, [r4, #28]
    8678:	05941028 	ldreq	r1, [r4, #40]	; 0x28
    867c:	11812217 	orrne	r2, r1, r7, lsl r2
    8680:	01812217 	orreq	r2, r1, r7, lsl r2
    8684:	1584201c 	strne	r2, [r4, #28]
    8688:	05842028 	streq	r2, [r4, #40]	; 0x28
    868c:	e595100c 	ldr	r1, [r5, #12]
    8690:	e0611181 	rsb	r1, r1, r1, lsl #3
    8694:	ee1f2f3c 	mrc	15, 0, r2, cr15, cr12, {1}
    8698:	e0632002 	rsb	r2, r3, r2
    869c:	e1520001 	cmp	r2, r1
    86a0:	3afffffb 	bcc	8694 <notmain+0x1e8>
    86a4:	e3160040 	tst	r6, #64	; 0x40
    86a8:	e5952000 	ldr	r2, [r5]
    86ac:	1594101c 	ldrne	r1, [r4, #28]
    86b0:	05941028 	ldreq	r1, [r4, #40]	; 0x28
    86b4:	11812217 	orrne	r2, r1, r7, lsl r2
    86b8:	01812217 	orreq	r2, r1, r7, lsl r2
    86bc:	1584201c 	strne	r2, [r4, #28]
    86c0:	05842028 	streq	r2, [r4, #40]	; 0x28
    86c4:	e595100c 	ldr	r1, [r5, #12]
    86c8:	e1a01181 	lsl	r1, r1, #3
    86cc:	ee1f2f3c 	mrc	15, 0, r2, cr15, cr12, {1}
    86d0:	e0632002 	rsb	r2, r3, r2
    86d4:	e1520001 	cmp	r2, r1
    86d8:	3afffffb 	bcc	86cc <notmain+0x220>
    86dc:	e3160080 	tst	r6, #128	; 0x80
    86e0:	e5952000 	ldr	r2, [r5]
    86e4:	1594101c 	ldrne	r1, [r4, #28]
    86e8:	05941028 	ldreq	r1, [r4, #40]	; 0x28
    86ec:	11812217 	orrne	r2, r1, r7, lsl r2
    86f0:	01812217 	orreq	r2, r1, r7, lsl r2
    86f4:	1584201c 	strne	r2, [r4, #28]
    86f8:	05842028 	streq	r2, [r4, #40]	; 0x28
    86fc:	e595100c 	ldr	r1, [r5, #12]
    8700:	e0811181 	add	r1, r1, r1, lsl #3
    8704:	ee1f2f3c 	mrc	15, 0, r2, cr15, cr12, {1}
    8708:	e0632002 	rsb	r2, r3, r2
    870c:	e1520001 	cmp	r2, r1
    8710:	3afffffb 	bcc	8704 <notmain+0x258>
    8714:	e594201c 	ldr	r2, [r4, #28]
    8718:	e5950000 	ldr	r0, [r5]
    871c:	e595100c 	ldr	r1, [r5, #12]
    8720:	e1822017 	orr	r2, r2, r7, lsl r0
    8724:	e0811101 	add	r1, r1, r1, lsl #2
    8728:	e584201c 	str	r2, [r4, #28]
    872c:	e1a01081 	lsl	r1, r1, #1
    8730:	ee1f2f3c 	mrc	15, 0, r2, cr15, cr12, {1}
    8734:	e0632002 	rsb	r2, r3, r2
    8738:	e1520001 	cmp	r2, r1
    873c:	3afffffb 	bcc	8730 <notmain+0x284>
    8740:	e2866001 	add	r6, r6, #1
    8744:	e6ef6076 	uxtb	r6, r6
    8748:	e3a00001 	mov	r0, #1
    874c:	eb0001cb 	bl	8e80 <delay_ms>
    8750:	e35600ff 	cmp	r6, #255	; 0xff
    8754:	03a06000 	moveq	r6, #0
    8758:	eaffff6c 	b	8510 <notmain+0x64>
    875c:	00009470 	andeq	r9, r0, r0, ror r4
    8760:	000047f5 	strdeq	r4, [r0], -r5
    8764:	00009808 	andeq	r9, r0, r8, lsl #16
    8768:	20200000 	eorcs	r0, r0, r0
    876c:	000096e8 	andeq	r9, r0, r8, ror #13

00008770 <printk>:
    8770:	e92d000f 	push	{r0, r1, r2, r3}
    8774:	e92d4030 	push	{r4, r5, lr}
    8778:	e24dd00c 	sub	sp, sp, #12
    877c:	e28d301c 	add	r3, sp, #28
    8780:	e58d3004 	str	r3, [sp, #4]
    8784:	e59f4034 	ldr	r4, [pc, #52]	; 87c0 <printk+0x50>
    8788:	e1a00004 	mov	r0, r4
    878c:	e3a01b01 	mov	r1, #1024	; 0x400
    8790:	e59d2018 	ldr	r2, [sp, #24]
    8794:	eb0000c3 	bl	8aa8 <va_printk>
    8798:	e1a05000 	mov	r5, r0
    879c:	e59f3020 	ldr	r3, [pc, #32]	; 87c4 <printk+0x54>
    87a0:	e5933000 	ldr	r3, [r3]
    87a4:	e1a00004 	mov	r0, r4
    87a8:	e12fff33 	blx	r3
    87ac:	e1a00005 	mov	r0, r5
    87b0:	e28dd00c 	add	sp, sp, #12
    87b4:	e8bd4030 	pop	{r4, r5, lr}
    87b8:	e28dd010 	add	sp, sp, #16
    87bc:	e12fff1e 	bx	lr
    87c0:	00009818 	andeq	r9, r0, r8, lsl r8
    87c4:	00009604 	andeq	r9, r0, r4, lsl #12

000087c8 <internal_putchar>:
    87c8:	e92d4010 	push	{r4, lr}
    87cc:	e1a04000 	mov	r4, r0
    87d0:	eb00035b 	bl	9544 <uart_putc>
    87d4:	e1a00004 	mov	r0, r4
    87d8:	e8bd8010 	pop	{r4, pc}

000087dc <rpi_reset_putc>:
    87dc:	e59f2008 	ldr	r2, [pc, #8]	; 87ec <rpi_reset_putc+0x10>
    87e0:	e59f3008 	ldr	r3, [pc, #8]	; 87f0 <rpi_reset_putc+0x14>
    87e4:	e5832000 	str	r2, [r3]
    87e8:	e12fff1e 	bx	lr
    87ec:	000087c8 	andeq	r8, r0, r8, asr #15
    87f0:	00009600 	andeq	r9, r0, r0, lsl #12

000087f4 <rpi_set_putc>:
    87f4:	e59f3004 	ldr	r3, [pc, #4]	; 8800 <rpi_set_putc+0xc>
    87f8:	e5830000 	str	r0, [r3]
    87fc:	e12fff1e 	bx	lr
    8800:	00009600 	andeq	r9, r0, r0, lsl #12

00008804 <internal_putk>:
    8804:	e92d4038 	push	{r3, r4, r5, lr}
    8808:	e1a04000 	mov	r4, r0
    880c:	e59f5020 	ldr	r5, [pc, #32]	; 8834 <internal_putk+0x30>
    8810:	ea000002 	b	8820 <internal_putk+0x1c>
    8814:	e5953000 	ldr	r3, [r5]
    8818:	e12fff33 	blx	r3
    881c:	e2844001 	add	r4, r4, #1
    8820:	e5d40000 	ldrb	r0, [r4]
    8824:	e3500000 	cmp	r0, #0
    8828:	1afffff9 	bne	8814 <internal_putk+0x10>
    882c:	e3a00001 	mov	r0, #1
    8830:	e8bd8038 	pop	{r3, r4, r5, pc}
    8834:	00009600 	andeq	r9, r0, r0, lsl #12

00008838 <isdigit>:
    8838:	e2400030 	sub	r0, r0, #48	; 0x30
    883c:	e3500009 	cmp	r0, #9
    8840:	83a00000 	movhi	r0, #0
    8844:	93a00001 	movls	r0, #1
    8848:	e12fff1e 	bx	lr

0000884c <pad>:
    884c:	e0611000 	rsb	r1, r1, r0
    8850:	e3a03020 	mov	r3, #32
    8854:	ea000002 	b	8864 <pad+0x18>
    8858:	e5c03000 	strb	r3, [r0]
    885c:	e2811001 	add	r1, r1, #1
    8860:	e2800001 	add	r0, r0, #1
    8864:	e1510002 	cmp	r1, r2
    8868:	bafffffa 	blt	8858 <pad+0xc>
    886c:	e3a03000 	mov	r3, #0
    8870:	e5c03000 	strb	r3, [r0]
    8874:	e12fff1e 	bx	lr

00008878 <reverse>:
    8878:	e063c002 	rsb	ip, r3, r2
    887c:	e28cc001 	add	ip, ip, #1
    8880:	e15c0001 	cmp	ip, r1
    8884:	c061100c 	rsbgt	r1, r1, ip
    8888:	c0833001 	addgt	r3, r3, r1
    888c:	e2422001 	sub	r2, r2, #1
    8890:	e1a01000 	mov	r1, r0
    8894:	ea000002 	b	88a4 <reverse+0x2c>
    8898:	e452c001 	ldrb	ip, [r2], #-1
    889c:	e5c1c000 	strb	ip, [r1]
    88a0:	e2811001 	add	r1, r1, #1
    88a4:	e1520003 	cmp	r2, r3
    88a8:	2afffffa 	bcs	8898 <reverse+0x20>
    88ac:	e3a03000 	mov	r3, #0
    88b0:	e5c13000 	strb	r3, [r1]
    88b4:	e12fff1e 	bx	lr

000088b8 <emit>:
    88b8:	e92d41f0 	push	{r4, r5, r6, r7, r8, lr}
    88bc:	e24dd040 	sub	sp, sp, #64	; 0x40
    88c0:	e1a05001 	mov	r5, r1
    88c4:	e1a04002 	mov	r4, r2
    88c8:	e59d2058 	ldr	r2, [sp, #88]	; 0x58
    88cc:	e1520004 	cmp	r2, r4
    88d0:	c2442001 	subgt	r2, r4, #1
    88d4:	e1a0c003 	mov	ip, r3
    88d8:	e2400002 	sub	r0, r0, #2
    88dc:	e350000e 	cmp	r0, #14
    88e0:	979ff100 	ldrls	pc, [pc, r0, lsl #2]
    88e4:	ea000042 	b	89f4 <emit+0x13c>
    88e8:	000089cc 	andeq	r8, r0, ip, asr #19
    88ec:	000089f4 	strdeq	r8, [r0], -r4
    88f0:	000089f4 	strdeq	r8, [r0], -r4
    88f4:	000089f4 	strdeq	r8, [r0], -r4
    88f8:	000089f4 	strdeq	r8, [r0], -r4
    88fc:	000089f4 	strdeq	r8, [r0], -r4
    8900:	000089c0 	andeq	r8, r0, r0, asr #19
    8904:	000089f4 	strdeq	r8, [r0], -r4
    8908:	00008924 	andeq	r8, r0, r4, lsr #18
    890c:	000089f4 	strdeq	r8, [r0], -r4
    8910:	000089f4 	strdeq	r8, [r0], -r4
    8914:	000089f4 	strdeq	r8, [r0], -r4
    8918:	000089f4 	strdeq	r8, [r0], -r4
    891c:	000089f4 	strdeq	r8, [r0], -r4
    8920:	00008998 	muleq	r0, r8, r9
    8924:	e59d105c 	ldr	r1, [sp, #92]	; 0x5c
    8928:	e2911000 	adds	r1, r1, #0
    892c:	13a01001 	movne	r1, #1
    8930:	e0111fa3 	ands	r1, r1, r3, lsr #31
    8934:	1263c000 	rsbne	ip, r3, #0
    8938:	13a08001 	movne	r8, #1
    893c:	03a08000 	moveq	r8, #0
    8940:	e1a0100d 	mov	r1, sp
    8944:	e59f70ec 	ldr	r7, [pc, #236]	; 8a38 <emit+0x180>
    8948:	e59f60ec 	ldr	r6, [pc, #236]	; 8a3c <emit+0x184>
    894c:	ea000000 	b	8954 <emit+0x9c>
    8950:	e1a01003 	mov	r1, r3
    8954:	e2813001 	add	r3, r1, #1
    8958:	e08e0c97 	umull	r0, lr, r7, ip
    895c:	e1a0e1ae 	lsr	lr, lr, #3
    8960:	e1a0000e 	mov	r0, lr
    8964:	e08ee10e 	add	lr, lr, lr, lsl #2
    8968:	e1a0e08e 	lsl	lr, lr, #1
    896c:	e06ee00c 	rsb	lr, lr, ip
    8970:	e7d6c00e 	ldrb	ip, [r6, lr]
    8974:	e5c1c000 	strb	ip, [r1]
    8978:	e1a0c000 	mov	ip, r0
    897c:	e3500000 	cmp	r0, #0
    8980:	1afffff2 	bne	8950 <emit+0x98>
    8984:	e3580000 	cmp	r8, #0
    8988:	12813002 	addne	r3, r1, #2
    898c:	13a0002d 	movne	r0, #45	; 0x2d
    8990:	15c10001 	strbne	r0, [r1, #1]
    8994:	ea00001d 	b	8a10 <emit+0x158>
    8998:	e1a0e00d 	mov	lr, sp
    899c:	e59f009c 	ldr	r0, [pc, #156]	; 8a40 <emit+0x188>
    89a0:	e28e3001 	add	r3, lr, #1
    89a4:	e20c100f 	and	r1, ip, #15
    89a8:	e7d01001 	ldrb	r1, [r0, r1]
    89ac:	e5ce1000 	strb	r1, [lr]
    89b0:	e1a0e003 	mov	lr, r3
    89b4:	e1b0c22c 	lsrs	ip, ip, #4
    89b8:	1afffff8 	bne	89a0 <emit+0xe8>
    89bc:	ea000013 	b	8a10 <emit+0x158>
    89c0:	e5cd3000 	strb	r3, [sp]
    89c4:	e28d3001 	add	r3, sp, #1
    89c8:	ea000010 	b	8a10 <emit+0x158>
    89cc:	e1a0e00d 	mov	lr, sp
    89d0:	e59f006c 	ldr	r0, [pc, #108]	; 8a44 <emit+0x18c>
    89d4:	e28e3001 	add	r3, lr, #1
    89d8:	e20c1001 	and	r1, ip, #1
    89dc:	e7d01001 	ldrb	r1, [r0, r1]
    89e0:	e5ce1000 	strb	r1, [lr]
    89e4:	e1a0e003 	mov	lr, r3
    89e8:	e1b0c0ac 	lsrs	ip, ip, #1
    89ec:	1afffff8 	bne	89d4 <emit+0x11c>
    89f0:	ea000006 	b	8a10 <emit+0x158>
    89f4:	ebffff78 	bl	87dc <rpi_reset_putc>
    89f8:	e59f0048 	ldr	r0, [pc, #72]	; 8a48 <emit+0x190>
    89fc:	e59f1048 	ldr	r1, [pc, #72]	; 8a4c <emit+0x194>
    8a00:	e59f2048 	ldr	r2, [pc, #72]	; 8a50 <emit+0x198>
    8a04:	e3a03075 	mov	r3, #117	; 0x75
    8a08:	ebffff58 	bl	8770 <printk>
    8a0c:	eb0000cf 	bl	8d50 <clean_reboot>
    8a10:	e1a00003 	mov	r0, r3
    8a14:	e1a0100d 	mov	r1, sp
    8a18:	ebffff8b 	bl	884c <pad>
    8a1c:	e1a02000 	mov	r2, r0
    8a20:	e1a00005 	mov	r0, r5
    8a24:	e1a01004 	mov	r1, r4
    8a28:	e1a0300d 	mov	r3, sp
    8a2c:	ebffff91 	bl	8878 <reverse>
    8a30:	e28dd040 	add	sp, sp, #64	; 0x40
    8a34:	e8bd81f0 	pop	{r4, r5, r6, r7, r8, pc}
    8a38:	cccccccd 	stclgt	12, cr12, [ip], {205}	; 0xcd
    8a3c:	00009744 	andeq	r9, r0, r4, asr #14
    8a40:	00009750 	andeq	r9, r0, r0, asr r7
    8a44:	00009764 	andeq	r9, r0, r4, ror #14
    8a48:	0000971c 	andeq	r9, r0, ip, lsl r7
    8a4c:	00009730 	andeq	r9, r0, r0, lsr r7
    8a50:	000096f8 	strdeq	r9, [r0], -r8

00008a54 <rpi_set_output>:
    8a54:	e92d4008 	push	{r3, lr}
    8a58:	e3500000 	cmp	r0, #0
    8a5c:	1a000006 	bne	8a7c <rpi_set_output+0x28>
    8a60:	ebffff5d 	bl	87dc <rpi_reset_putc>
    8a64:	e59f0028 	ldr	r0, [pc, #40]	; 8a94 <rpi_set_output+0x40>
    8a68:	e59f1028 	ldr	r1, [pc, #40]	; 8a98 <rpi_set_output+0x44>
    8a6c:	e59f2028 	ldr	r2, [pc, #40]	; 8a9c <rpi_set_output+0x48>
    8a70:	e3a03020 	mov	r3, #32
    8a74:	ebffff3d 	bl	8770 <printk>
    8a78:	eb0000b4 	bl	8d50 <clean_reboot>
    8a7c:	e59f301c 	ldr	r3, [pc, #28]	; 8aa0 <rpi_set_output+0x4c>
    8a80:	e5830000 	str	r0, [r3]
    8a84:	e3510000 	cmp	r1, #0
    8a88:	159f3014 	ldrne	r3, [pc, #20]	; 8aa4 <rpi_set_output+0x50>
    8a8c:	15831000 	strne	r1, [r3]
    8a90:	e8bd8008 	pop	{r3, pc}
    8a94:	00009768 	andeq	r9, r0, r8, ror #14
    8a98:	00009730 	andeq	r9, r0, r0, lsr r7
    8a9c:	00009700 	andeq	r9, r0, r0, lsl #14
    8aa0:	00009600 	andeq	r9, r0, r0, lsl #12
    8aa4:	00009604 	andeq	r9, r0, r4, lsl #12

00008aa8 <va_printk>:
    8aa8:	e92d4ff0 	push	{r4, r5, r6, r7, r8, r9, sl, fp, lr}
    8aac:	e24dd08c 	sub	sp, sp, #140	; 0x8c
    8ab0:	e1a0a000 	mov	sl, r0
    8ab4:	e1a09003 	mov	r9, r3
    8ab8:	e2411001 	sub	r1, r1, #1
    8abc:	e0808001 	add	r8, r0, r1
    8ac0:	e3a03000 	mov	r3, #0
    8ac4:	e5c03000 	strb	r3, [r0]
    8ac8:	e1a04000 	mov	r4, r0
    8acc:	e1a0b003 	mov	fp, r3
    8ad0:	ea000086 	b	8cf0 <va_printk+0x248>
    8ad4:	e3530025 	cmp	r3, #37	; 0x25
    8ad8:	12822001 	addne	r2, r2, #1
    8adc:	15c43000 	strbne	r3, [r4]
    8ae0:	12844001 	addne	r4, r4, #1
    8ae4:	1a000081 	bne	8cf0 <va_printk+0x248>
    8ae8:	e5d21001 	ldrb	r1, [r2, #1]
    8aec:	e3510025 	cmp	r1, #37	; 0x25
    8af0:	05c43000 	strbeq	r3, [r4]
    8af4:	02822002 	addeq	r2, r2, #2
    8af8:	02844001 	addeq	r4, r4, #1
    8afc:	0a00007b 	beq	8cf0 <va_printk+0x248>
    8b00:	e2826001 	add	r6, r2, #1
    8b04:	e1a0700b 	mov	r7, fp
    8b08:	ea000004 	b	8b20 <va_printk+0x78>
    8b0c:	e0877107 	add	r7, r7, r7, lsl #2
    8b10:	e1a07087 	lsl	r7, r7, #1
    8b14:	e0877005 	add	r7, r7, r5
    8b18:	e2477030 	sub	r7, r7, #48	; 0x30
    8b1c:	e2866001 	add	r6, r6, #1
    8b20:	e5d65000 	ldrb	r5, [r6]
    8b24:	e1a00005 	mov	r0, r5
    8b28:	ebffff42 	bl	8838 <isdigit>
    8b2c:	e3500000 	cmp	r0, #0
    8b30:	1afffff5 	bne	8b0c <va_printk+0x64>
    8b34:	e357001f 	cmp	r7, #31
    8b38:	9a000006 	bls	8b58 <va_printk+0xb0>
    8b3c:	ebffff26 	bl	87dc <rpi_reset_putc>
    8b40:	e59f01d4 	ldr	r0, [pc, #468]	; 8d1c <va_printk+0x274>
    8b44:	e59f11d4 	ldr	r1, [pc, #468]	; 8d20 <va_printk+0x278>
    8b48:	e59f21d4 	ldr	r2, [pc, #468]	; 8d24 <va_printk+0x27c>
    8b4c:	e3a03092 	mov	r3, #146	; 0x92
    8b50:	ebffff06 	bl	8770 <printk>
    8b54:	eb00007d 	bl	8d50 <clean_reboot>
    8b58:	e2455062 	sub	r5, r5, #98	; 0x62
    8b5c:	e3550016 	cmp	r5, #22
    8b60:	979ff105 	ldrls	pc, [pc, r5, lsl #2]
    8b64:	ea00004e 	b	8ca4 <va_printk+0x1fc>
    8b68:	00008c50 	andeq	r8, r0, r0, asr ip
    8b6c:	00008c80 	andeq	r8, r0, r0, lsl #25
    8b70:	00008be0 	andeq	r8, r0, r0, ror #23
    8b74:	00008ca4 	andeq	r8, r0, r4, lsr #25
    8b78:	00008bc4 	andeq	r8, r0, r4, asr #23
    8b7c:	00008ca4 	andeq	r8, r0, r4, lsr #25
    8b80:	00008ca4 	andeq	r8, r0, r4, lsr #25
    8b84:	00008ca4 	andeq	r8, r0, r4, lsr #25
    8b88:	00008ca4 	andeq	r8, r0, r4, lsr #25
    8b8c:	00008ca4 	andeq	r8, r0, r4, lsr #25
    8b90:	00008ca4 	andeq	r8, r0, r4, lsr #25
    8b94:	00008ca4 	andeq	r8, r0, r4, lsr #25
    8b98:	00008ca4 	andeq	r8, r0, r4, lsr #25
    8b9c:	00008ca4 	andeq	r8, r0, r4, lsr #25
    8ba0:	00008c2c 	andeq	r8, r0, ip, lsr #24
    8ba4:	00008ca4 	andeq	r8, r0, r4, lsr #25
    8ba8:	00008ca4 	andeq	r8, r0, r4, lsr #25
    8bac:	00008c74 	andeq	r8, r0, r4, ror ip
    8bb0:	00008ca4 	andeq	r8, r0, r4, lsr #25
    8bb4:	00008c08 	andeq	r8, r0, r8, lsl #24
    8bb8:	00008ca4 	andeq	r8, r0, r4, lsr #25
    8bbc:	00008ca4 	andeq	r8, r0, r4, lsr #25
    8bc0:	00008c2c 	andeq	r8, r0, ip, lsr #24
    8bc4:	ebffff04 	bl	87dc <rpi_reset_putc>
    8bc8:	e59f0158 	ldr	r0, [pc, #344]	; 8d28 <va_printk+0x280>
    8bcc:	e59f114c 	ldr	r1, [pc, #332]	; 8d20 <va_printk+0x278>
    8bd0:	e59f214c 	ldr	r2, [pc, #332]	; 8d24 <va_printk+0x27c>
    8bd4:	e3a03098 	mov	r3, #152	; 0x98
    8bd8:	ebfffee4 	bl	8770 <printk>
    8bdc:	eb00005b 	bl	8d50 <clean_reboot>
    8be0:	e5993000 	ldr	r3, [r9]
    8be4:	e2899004 	add	r9, r9, #4
    8be8:	e58d7000 	str	r7, [sp]
    8bec:	e3a02001 	mov	r2, #1
    8bf0:	e58d2004 	str	r2, [sp, #4]
    8bf4:	e3a0000a 	mov	r0, #10
    8bf8:	e28d1008 	add	r1, sp, #8
    8bfc:	e3a02080 	mov	r2, #128	; 0x80
    8c00:	ebffff2c 	bl	88b8 <emit>
    8c04:	ea00002f 	b	8cc8 <va_printk+0x220>
    8c08:	e5993000 	ldr	r3, [r9]
    8c0c:	e2899004 	add	r9, r9, #4
    8c10:	e58d7000 	str	r7, [sp]
    8c14:	e58db004 	str	fp, [sp, #4]
    8c18:	e3a0000a 	mov	r0, #10
    8c1c:	e28d1008 	add	r1, sp, #8
    8c20:	e3a02080 	mov	r2, #128	; 0x80
    8c24:	ebffff23 	bl	88b8 <emit>
    8c28:	ea000026 	b	8cc8 <va_printk+0x220>
    8c2c:	e5993000 	ldr	r3, [r9]
    8c30:	e2899004 	add	r9, r9, #4
    8c34:	e58d7000 	str	r7, [sp]
    8c38:	e58db004 	str	fp, [sp, #4]
    8c3c:	e3a00010 	mov	r0, #16
    8c40:	e28d1008 	add	r1, sp, #8
    8c44:	e3a02080 	mov	r2, #128	; 0x80
    8c48:	ebffff1a 	bl	88b8 <emit>
    8c4c:	ea00001d 	b	8cc8 <va_printk+0x220>
    8c50:	e5993000 	ldr	r3, [r9]
    8c54:	e2899004 	add	r9, r9, #4
    8c58:	e58d7000 	str	r7, [sp]
    8c5c:	e58db004 	str	fp, [sp, #4]
    8c60:	e3a00002 	mov	r0, #2
    8c64:	e28d1008 	add	r1, sp, #8
    8c68:	e3a02080 	mov	r2, #128	; 0x80
    8c6c:	ebffff11 	bl	88b8 <emit>
    8c70:	ea000014 	b	8cc8 <va_printk+0x220>
    8c74:	e5990000 	ldr	r0, [r9]
    8c78:	e2899004 	add	r9, r9, #4
    8c7c:	ea000011 	b	8cc8 <va_printk+0x220>
    8c80:	e5993000 	ldr	r3, [r9]
    8c84:	e2899004 	add	r9, r9, #4
    8c88:	e58d7000 	str	r7, [sp]
    8c8c:	e58db004 	str	fp, [sp, #4]
    8c90:	e3a00008 	mov	r0, #8
    8c94:	e08d1000 	add	r1, sp, r0
    8c98:	e3a02080 	mov	r2, #128	; 0x80
    8c9c:	ebffff05 	bl	88b8 <emit>
    8ca0:	ea000008 	b	8cc8 <va_printk+0x220>
    8ca4:	ebfffecc 	bl	87dc <rpi_reset_putc>
    8ca8:	e5d63000 	ldrb	r3, [r6]
    8cac:	e58d3000 	str	r3, [sp]
    8cb0:	e59f0074 	ldr	r0, [pc, #116]	; 8d2c <va_printk+0x284>
    8cb4:	e59f1064 	ldr	r1, [pc, #100]	; 8d20 <va_printk+0x278>
    8cb8:	e59f2064 	ldr	r2, [pc, #100]	; 8d24 <va_printk+0x27c>
    8cbc:	e3a030b9 	mov	r3, #185	; 0xb9
    8cc0:	ebfffeaa 	bl	8770 <printk>
    8cc4:	eb000021 	bl	8d50 <clean_reboot>
    8cc8:	e2862001 	add	r2, r6, #1
    8ccc:	ea000002 	b	8cdc <va_printk+0x234>
    8cd0:	e2800001 	add	r0, r0, #1
    8cd4:	e5c43000 	strb	r3, [r4]
    8cd8:	e2844001 	add	r4, r4, #1
    8cdc:	e1540008 	cmp	r4, r8
    8ce0:	2a000002 	bcs	8cf0 <va_printk+0x248>
    8ce4:	e5d03000 	ldrb	r3, [r0]
    8ce8:	e3530000 	cmp	r3, #0
    8cec:	1afffff7 	bne	8cd0 <va_printk+0x228>
    8cf0:	e5d23000 	ldrb	r3, [r2]
    8cf4:	e3530000 	cmp	r3, #0
    8cf8:	0a000001 	beq	8d04 <va_printk+0x25c>
    8cfc:	e1540008 	cmp	r4, r8
    8d00:	3affff73 	bcc	8ad4 <va_printk+0x2c>
    8d04:	e2840001 	add	r0, r4, #1
    8d08:	e3a03000 	mov	r3, #0
    8d0c:	e5c43000 	strb	r3, [r4]
    8d10:	e06a0000 	rsb	r0, sl, r0
    8d14:	e28dd08c 	add	sp, sp, #140	; 0x8c
    8d18:	e8bd8ff0 	pop	{r4, r5, r6, r7, r8, r9, sl, fp, pc}
    8d1c:	00009780 	andeq	r9, r0, r0, lsl #15
    8d20:	00009730 	andeq	r9, r0, r0, lsr r7
    8d24:	00009710 	andeq	r9, r0, r0, lsl r7
    8d28:	0000979c 	muleq	r0, ip, r7
    8d2c:	000097c4 	andeq	r9, r0, r4, asr #15

00008d30 <enable_cache>:
    8d30:	ee113f10 	mrc	15, 0, r3, cr1, cr0, {0}
    8d34:	e3833b06 	orr	r3, r3, #6144	; 0x1800
    8d38:	ee013f10 	mcr	15, 0, r3, cr1, cr0, {0}
    8d3c:	e12fff1e 	bx	lr

00008d40 <disable_cache>:
    8d40:	ee113f10 	mrc	15, 0, r3, cr1, cr0, {0}
    8d44:	e3c33b06 	bic	r3, r3, #6144	; 0x1800
    8d48:	ee013f10 	mcr	15, 0, r3, cr1, cr0, {0}
    8d4c:	e12fff1e 	bx	lr

00008d50 <clean_reboot>:
    8d50:	e92d4008 	push	{r3, lr}
    8d54:	e59f3014 	ldr	r3, [pc, #20]	; 8d70 <clean_reboot+0x20>
    8d58:	e5933000 	ldr	r3, [r3]
    8d5c:	e59f0010 	ldr	r0, [pc, #16]	; 8d74 <clean_reboot+0x24>
    8d60:	e12fff33 	blx	r3
    8d64:	e3a00064 	mov	r0, #100	; 0x64
    8d68:	eb000044 	bl	8e80 <delay_ms>
    8d6c:	eb000019 	bl	8dd8 <rpi_reboot>
    8d70:	00009604 	andeq	r9, r0, r4, lsl #12
    8d74:	000097fc 	strdeq	r9, [r0], -ip

00008d78 <_cstart>:
    8d78:	e92d4008 	push	{r3, lr}
    8d7c:	e59f3020 	ldr	r3, [pc, #32]	; 8da4 <_cstart+0x2c>
    8d80:	e59f2020 	ldr	r2, [pc, #32]	; 8da8 <_cstart+0x30>
    8d84:	e3a01000 	mov	r1, #0
    8d88:	ea000001 	b	8d94 <_cstart+0x1c>
    8d8c:	e5831000 	str	r1, [r3]
    8d90:	e2833004 	add	r3, r3, #4
    8d94:	e1530002 	cmp	r3, r2
    8d98:	3afffffb 	bcc	8d8c <_cstart+0x14>
    8d9c:	ebfffdc2 	bl	84ac <notmain>
    8da0:	eb00000c 	bl	8dd8 <rpi_reboot>
    8da4:	00009808 	andeq	r9, r0, r8, lsl #16
    8da8:	00009c18 	andeq	r9, r0, r8, lsl ip

00008dac <at_user_level>:
    8dac:	e10f0000 	mrs	r0, CPSR
    8db0:	e200001f 	and	r0, r0, #31
    8db4:	e3500010 	cmp	r0, #16
    8db8:	13a00000 	movne	r0, #0
    8dbc:	03a00001 	moveq	r0, #1
    8dc0:	e12fff1e 	bx	lr

00008dc4 <set_user_level>:
    8dc4:	e10f3000 	mrs	r3, CPSR
    8dc8:	e3c3301f 	bic	r3, r3, #31
    8dcc:	e3833010 	orr	r3, r3, #16
    8dd0:	e129f003 	msr	CPSR_fc, r3
    8dd4:	e12fff1e 	bx	lr

00008dd8 <rpi_reboot>:
    8dd8:	e92d4008 	push	{r3, lr}
    8ddc:	ebfffff2 	bl	8dac <at_user_level>
    8de0:	e3500000 	cmp	r0, #0
    8de4:	0a000000 	beq	8dec <rpi_reboot+0x14>
    8de8:	ebfffff5 	bl	8dc4 <set_user_level>
    8dec:	e3a0001e 	mov	r0, #30
    8df0:	eb000022 	bl	8e80 <delay_ms>
    8df4:	e59f0014 	ldr	r0, [pc, #20]	; 8e10 <rpi_reboot+0x38>
    8df8:	e59f1014 	ldr	r1, [pc, #20]	; 8e14 <rpi_reboot+0x3c>
    8dfc:	eb0001ee 	bl	95bc <PUT32>
    8e00:	e59f0010 	ldr	r0, [pc, #16]	; 8e18 <rpi_reboot+0x40>
    8e04:	e59f1010 	ldr	r1, [pc, #16]	; 8e1c <rpi_reboot+0x44>
    8e08:	eb0001eb 	bl	95bc <PUT32>
    8e0c:	eafffffe 	b	8e0c <rpi_reboot+0x34>
    8e10:	20100024 	andscs	r0, r0, r4, lsr #32
    8e14:	5a000001 	bpl	8e20 <delay_cycles>
    8e18:	2010001c 	andscs	r0, r0, ip, lsl r0
    8e1c:	5a000020 	bpl	8ea4 <delay_sec+0x10>

00008e20 <delay_cycles>:
    8e20:	ea000001 	b	8e2c <delay_cycles+0xc>
    8e24:	e2811000 	add	r1, r1, #0
    8e28:	e1a00003 	mov	r0, r3
    8e2c:	e2403001 	sub	r3, r0, #1
    8e30:	e3500000 	cmp	r0, #0
    8e34:	1afffffa 	bne	8e24 <delay_cycles+0x4>
    8e38:	e12fff1e 	bx	lr

00008e3c <timer_get_usec_raw>:
    8e3c:	e92d4008 	push	{r3, lr}
    8e40:	e59f0004 	ldr	r0, [pc, #4]	; 8e4c <timer_get_usec_raw+0x10>
    8e44:	eb0001e8 	bl	95ec <GET32>
    8e48:	e8bd8008 	pop	{r3, pc}
    8e4c:	20003004 	andcs	r3, r0, r4

00008e50 <timer_get_usec>:
    8e50:	e92d4008 	push	{r3, lr}
    8e54:	ebfffff8 	bl	8e3c <timer_get_usec_raw>
    8e58:	e8bd8008 	pop	{r3, pc}

00008e5c <delay_us>:
    8e5c:	e92d4038 	push	{r3, r4, r5, lr}
    8e60:	e1a05000 	mov	r5, r0
    8e64:	ebfffff9 	bl	8e50 <timer_get_usec>
    8e68:	e1a04000 	mov	r4, r0
    8e6c:	ebfffff7 	bl	8e50 <timer_get_usec>
    8e70:	e0640000 	rsb	r0, r4, r0
    8e74:	e1500005 	cmp	r0, r5
    8e78:	3afffffb 	bcc	8e6c <delay_us+0x10>
    8e7c:	e8bd8038 	pop	{r3, r4, r5, pc}

00008e80 <delay_ms>:
    8e80:	e92d4008 	push	{r3, lr}
    8e84:	e3a03ffa 	mov	r3, #1000	; 0x3e8
    8e88:	e0000093 	mul	r0, r3, r0
    8e8c:	ebfffff2 	bl	8e5c <delay_us>
    8e90:	e8bd8008 	pop	{r3, pc}

00008e94 <delay_sec>:
    8e94:	e92d4008 	push	{r3, lr}
    8e98:	e3a03ffa 	mov	r3, #1000	; 0x3e8
    8e9c:	e0000093 	mul	r0, r3, r0
    8ea0:	ebfffff6 	bl	8e80 <delay_ms>
    8ea4:	e8bd8008 	pop	{r3, pc}

00008ea8 <gpio_set_output>:
    8ea8:	e92d4038 	push	{r3, r4, r5, lr}
    8eac:	e1a04000 	mov	r4, r0
    8eb0:	e350001f 	cmp	r0, #31
    8eb4:	88bd8038 	pophi	{r3, r4, r5, pc}
    8eb8:	e59f30b4 	ldr	r3, [pc, #180]	; 8f74 <gpio_set_output+0xcc>
    8ebc:	e0832093 	umull	r2, r3, r3, r0
    8ec0:	e1a031a3 	lsr	r3, r3, #3
    8ec4:	e3530005 	cmp	r3, #5
    8ec8:	979ff103 	ldrls	pc, [pc, r3, lsl #2]
    8ecc:	ea000017 	b	8f30 <gpio_set_output+0x88>
    8ed0:	00008ee8 	andeq	r8, r0, r8, ror #29
    8ed4:	00008ef4 	strdeq	r8, [r0], -r4
    8ed8:	00008f00 	andeq	r8, r0, r0, lsl #30
    8edc:	00008f0c 	andeq	r8, r0, ip, lsl #30
    8ee0:	00008f18 	andeq	r8, r0, r8, lsl pc
    8ee4:	00008f24 	andeq	r8, r0, r4, lsr #30
    8ee8:	e59f3088 	ldr	r3, [pc, #136]	; 8f78 <gpio_set_output+0xd0>
    8eec:	e5935000 	ldr	r5, [r3]
    8ef0:	ea00000f 	b	8f34 <gpio_set_output+0x8c>
    8ef4:	e59f307c 	ldr	r3, [pc, #124]	; 8f78 <gpio_set_output+0xd0>
    8ef8:	e5935004 	ldr	r5, [r3, #4]
    8efc:	ea00000c 	b	8f34 <gpio_set_output+0x8c>
    8f00:	e59f3070 	ldr	r3, [pc, #112]	; 8f78 <gpio_set_output+0xd0>
    8f04:	e5935008 	ldr	r5, [r3, #8]
    8f08:	ea000009 	b	8f34 <gpio_set_output+0x8c>
    8f0c:	e59f3064 	ldr	r3, [pc, #100]	; 8f78 <gpio_set_output+0xd0>
    8f10:	e593500c 	ldr	r5, [r3, #12]
    8f14:	ea000006 	b	8f34 <gpio_set_output+0x8c>
    8f18:	e59f3058 	ldr	r3, [pc, #88]	; 8f78 <gpio_set_output+0xd0>
    8f1c:	e5935010 	ldr	r5, [r3, #16]
    8f20:	ea000003 	b	8f34 <gpio_set_output+0x8c>
    8f24:	e59f304c 	ldr	r3, [pc, #76]	; 8f78 <gpio_set_output+0xd0>
    8f28:	e5935014 	ldr	r5, [r3, #20]
    8f2c:	ea000000 	b	8f34 <gpio_set_output+0x8c>
    8f30:	e3a05000 	mov	r5, #0
    8f34:	e1a00005 	mov	r0, r5
    8f38:	eb0001a9 	bl	95e4 <get32>
    8f3c:	e59f1030 	ldr	r1, [pc, #48]	; 8f74 <gpio_set_output+0xcc>
    8f40:	e0813491 	umull	r3, r1, r1, r4
    8f44:	e1a011a1 	lsr	r1, r1, #3
    8f48:	e0811101 	add	r1, r1, r1, lsl #2
    8f4c:	e1a01081 	lsl	r1, r1, #1
    8f50:	e0611004 	rsb	r1, r1, r4
    8f54:	e0811081 	add	r1, r1, r1, lsl #1
    8f58:	e3a03007 	mov	r3, #7
    8f5c:	e1c03113 	bic	r3, r0, r3, lsl r1
    8f60:	e1a00005 	mov	r0, r5
    8f64:	e3a02001 	mov	r2, #1
    8f68:	e1831112 	orr	r1, r3, r2, lsl r1
    8f6c:	eb000190 	bl	95b4 <put32>
    8f70:	e8bd8038 	pop	{r3, r4, r5, pc}
    8f74:	cccccccd 	stclgt	12, cr12, [ip], {205}	; 0xcd
    8f78:	00009608 	andeq	r9, r0, r8, lsl #12

00008f7c <gpio_set_on>:
    8f7c:	e92d4008 	push	{r3, lr}
    8f80:	e350001f 	cmp	r0, #31
    8f84:	88bd8008 	pophi	{r3, pc}
    8f88:	959f3020 	ldrls	r3, [pc, #32]	; 8fb0 <gpio_set_on+0x34>
    8f8c:	95932018 	ldrls	r2, [r3, #24]
    8f90:	859f3018 	ldrhi	r3, [pc, #24]	; 8fb0 <gpio_set_on+0x34>
    8f94:	8593201c 	ldrhi	r2, [r3, #28]
    8f98:	e200301f 	and	r3, r0, #31
    8f9c:	e1a00002 	mov	r0, r2
    8fa0:	e3a01001 	mov	r1, #1
    8fa4:	e1a01311 	lsl	r1, r1, r3
    8fa8:	eb000181 	bl	95b4 <put32>
    8fac:	e8bd8008 	pop	{r3, pc}
    8fb0:	00009608 	andeq	r9, r0, r8, lsl #12

00008fb4 <gpio_set_off>:
    8fb4:	e92d4008 	push	{r3, lr}
    8fb8:	e350001f 	cmp	r0, #31
    8fbc:	88bd8008 	pophi	{r3, pc}
    8fc0:	959f3020 	ldrls	r3, [pc, #32]	; 8fe8 <gpio_set_off+0x34>
    8fc4:	95932020 	ldrls	r2, [r3, #32]
    8fc8:	859f3018 	ldrhi	r3, [pc, #24]	; 8fe8 <gpio_set_off+0x34>
    8fcc:	85932024 	ldrhi	r2, [r3, #36]	; 0x24
    8fd0:	e200301f 	and	r3, r0, #31
    8fd4:	e1a00002 	mov	r0, r2
    8fd8:	e3a01001 	mov	r1, #1
    8fdc:	e1a01311 	lsl	r1, r1, r3
    8fe0:	eb000173 	bl	95b4 <put32>
    8fe4:	e8bd8008 	pop	{r3, pc}
    8fe8:	00009608 	andeq	r9, r0, r8, lsl #12

00008fec <gpio_set_input>:
    8fec:	e92d4038 	push	{r3, r4, r5, lr}
    8ff0:	e1a04000 	mov	r4, r0
    8ff4:	e350001f 	cmp	r0, #31
    8ff8:	88bd8038 	pophi	{r3, r4, r5, pc}
    8ffc:	e59f30ac 	ldr	r3, [pc, #172]	; 90b0 <gpio_set_input+0xc4>
    9000:	e0832093 	umull	r2, r3, r3, r0
    9004:	e1a031a3 	lsr	r3, r3, #3
    9008:	e3530005 	cmp	r3, #5
    900c:	979ff103 	ldrls	pc, [pc, r3, lsl #2]
    9010:	ea000017 	b	9074 <gpio_set_input+0x88>
    9014:	0000902c 	andeq	r9, r0, ip, lsr #32
    9018:	00009038 	andeq	r9, r0, r8, lsr r0
    901c:	00009044 	andeq	r9, r0, r4, asr #32
    9020:	00009050 	andeq	r9, r0, r0, asr r0
    9024:	0000905c 	andeq	r9, r0, ip, asr r0
    9028:	00009068 	andeq	r9, r0, r8, rrx
    902c:	e59f3080 	ldr	r3, [pc, #128]	; 90b4 <gpio_set_input+0xc8>
    9030:	e5935000 	ldr	r5, [r3]
    9034:	ea00000f 	b	9078 <gpio_set_input+0x8c>
    9038:	e59f3074 	ldr	r3, [pc, #116]	; 90b4 <gpio_set_input+0xc8>
    903c:	e5935004 	ldr	r5, [r3, #4]
    9040:	ea00000c 	b	9078 <gpio_set_input+0x8c>
    9044:	e59f3068 	ldr	r3, [pc, #104]	; 90b4 <gpio_set_input+0xc8>
    9048:	e5935008 	ldr	r5, [r3, #8]
    904c:	ea000009 	b	9078 <gpio_set_input+0x8c>
    9050:	e59f305c 	ldr	r3, [pc, #92]	; 90b4 <gpio_set_input+0xc8>
    9054:	e593500c 	ldr	r5, [r3, #12]
    9058:	ea000006 	b	9078 <gpio_set_input+0x8c>
    905c:	e59f3050 	ldr	r3, [pc, #80]	; 90b4 <gpio_set_input+0xc8>
    9060:	e5935010 	ldr	r5, [r3, #16]
    9064:	ea000003 	b	9078 <gpio_set_input+0x8c>
    9068:	e59f3044 	ldr	r3, [pc, #68]	; 90b4 <gpio_set_input+0xc8>
    906c:	e5935014 	ldr	r5, [r3, #20]
    9070:	ea000000 	b	9078 <gpio_set_input+0x8c>
    9074:	e3a05000 	mov	r5, #0
    9078:	e1a00005 	mov	r0, r5
    907c:	eb000158 	bl	95e4 <get32>
    9080:	e59f1028 	ldr	r1, [pc, #40]	; 90b0 <gpio_set_input+0xc4>
    9084:	e0813491 	umull	r3, r1, r1, r4
    9088:	e1a011a1 	lsr	r1, r1, #3
    908c:	e0811101 	add	r1, r1, r1, lsl #2
    9090:	e1a01081 	lsl	r1, r1, #1
    9094:	e0611004 	rsb	r1, r1, r4
    9098:	e0811081 	add	r1, r1, r1, lsl #1
    909c:	e3a03007 	mov	r3, #7
    90a0:	e1c01113 	bic	r1, r0, r3, lsl r1
    90a4:	e1a00005 	mov	r0, r5
    90a8:	eb000141 	bl	95b4 <put32>
    90ac:	e8bd8038 	pop	{r3, r4, r5, pc}
    90b0:	cccccccd 	stclgt	12, cr12, [ip], {205}	; 0xcd
    90b4:	00009608 	andeq	r9, r0, r8, lsl #12

000090b8 <gpio_read>:
    90b8:	e92d4010 	push	{r4, lr}
    90bc:	e1a04000 	mov	r4, r0
    90c0:	e350001f 	cmp	r0, #31
    90c4:	8a00000b 	bhi	90f8 <gpio_read+0x40>
    90c8:	8a000003 	bhi	90dc <gpio_read+0x24>
    90cc:	e59f302c 	ldr	r3, [pc, #44]	; 9100 <gpio_read+0x48>
    90d0:	e5930028 	ldr	r0, [r3, #40]	; 0x28
    90d4:	eb000142 	bl	95e4 <get32>
    90d8:	ea000002 	b	90e8 <gpio_read+0x30>
    90dc:	e59f301c 	ldr	r3, [pc, #28]	; 9100 <gpio_read+0x48>
    90e0:	e593002c 	ldr	r0, [r3, #44]	; 0x2c
    90e4:	eb00013e 	bl	95e4 <get32>
    90e8:	e204401f 	and	r4, r4, #31
    90ec:	e3a03001 	mov	r3, #1
    90f0:	e0000413 	and	r0, r0, r3, lsl r4
    90f4:	e8bd8010 	pop	{r4, pc}
    90f8:	e3e00000 	mvn	r0, #0
    90fc:	e8bd8010 	pop	{r4, pc}
    9100:	00009608 	andeq	r9, r0, r8, lsl #12

00009104 <gpio_write>:
    9104:	e92d4008 	push	{r3, lr}
    9108:	e350001f 	cmp	r0, #31
    910c:	88bd8008 	pophi	{r3, pc}
    9110:	e3510000 	cmp	r1, #0
    9114:	0a000001 	beq	9120 <gpio_write+0x1c>
    9118:	ebffff97 	bl	8f7c <gpio_set_on>
    911c:	e8bd8008 	pop	{r3, pc}
    9120:	ebffffa3 	bl	8fb4 <gpio_set_off>
    9124:	e8bd8008 	pop	{r3, pc}

00009128 <gpio_set_function>:
    9128:	e92d4070 	push	{r4, r5, r6, lr}
    912c:	e1a04000 	mov	r4, r0
    9130:	e1a05001 	mov	r5, r1
    9134:	e3510007 	cmp	r1, #7
    9138:	9350001f 	cmpls	r0, #31
    913c:	88bd8070 	pophi	{r4, r5, r6, pc}
    9140:	e59f30b0 	ldr	r3, [pc, #176]	; 91f8 <gpio_set_function+0xd0>
    9144:	e0832093 	umull	r2, r3, r3, r0
    9148:	e1a031a3 	lsr	r3, r3, #3
    914c:	e3530005 	cmp	r3, #5
    9150:	979ff103 	ldrls	pc, [pc, r3, lsl #2]
    9154:	ea000017 	b	91b8 <gpio_set_function+0x90>
    9158:	00009170 	andeq	r9, r0, r0, ror r1
    915c:	0000917c 	andeq	r9, r0, ip, ror r1
    9160:	00009188 	andeq	r9, r0, r8, lsl #3
    9164:	00009194 	muleq	r0, r4, r1
    9168:	000091a0 	andeq	r9, r0, r0, lsr #3
    916c:	000091ac 	andeq	r9, r0, ip, lsr #3
    9170:	e59f3084 	ldr	r3, [pc, #132]	; 91fc <gpio_set_function+0xd4>
    9174:	e5936000 	ldr	r6, [r3]
    9178:	ea00000f 	b	91bc <gpio_set_function+0x94>
    917c:	e59f3078 	ldr	r3, [pc, #120]	; 91fc <gpio_set_function+0xd4>
    9180:	e5936004 	ldr	r6, [r3, #4]
    9184:	ea00000c 	b	91bc <gpio_set_function+0x94>
    9188:	e59f306c 	ldr	r3, [pc, #108]	; 91fc <gpio_set_function+0xd4>
    918c:	e5936008 	ldr	r6, [r3, #8]
    9190:	ea000009 	b	91bc <gpio_set_function+0x94>
    9194:	e59f3060 	ldr	r3, [pc, #96]	; 91fc <gpio_set_function+0xd4>
    9198:	e593600c 	ldr	r6, [r3, #12]
    919c:	ea000006 	b	91bc <gpio_set_function+0x94>
    91a0:	e59f3054 	ldr	r3, [pc, #84]	; 91fc <gpio_set_function+0xd4>
    91a4:	e5936010 	ldr	r6, [r3, #16]
    91a8:	ea000003 	b	91bc <gpio_set_function+0x94>
    91ac:	e59f3048 	ldr	r3, [pc, #72]	; 91fc <gpio_set_function+0xd4>
    91b0:	e5936014 	ldr	r6, [r3, #20]
    91b4:	ea000000 	b	91bc <gpio_set_function+0x94>
    91b8:	e3a06000 	mov	r6, #0
    91bc:	e1a00006 	mov	r0, r6
    91c0:	eb000107 	bl	95e4 <get32>
    91c4:	e59f302c 	ldr	r3, [pc, #44]	; 91f8 <gpio_set_function+0xd0>
    91c8:	e0832493 	umull	r2, r3, r3, r4
    91cc:	e1a031a3 	lsr	r3, r3, #3
    91d0:	e0833103 	add	r3, r3, r3, lsl #2
    91d4:	e1a03083 	lsl	r3, r3, #1
    91d8:	e0633004 	rsb	r3, r3, r4
    91dc:	e0833083 	add	r3, r3, r3, lsl #1
    91e0:	e3a01007 	mov	r1, #7
    91e4:	e1c01311 	bic	r1, r0, r1, lsl r3
    91e8:	e1a00006 	mov	r0, r6
    91ec:	e1811315 	orr	r1, r1, r5, lsl r3
    91f0:	eb0000ef 	bl	95b4 <put32>
    91f4:	e8bd8070 	pop	{r4, r5, r6, pc}
    91f8:	cccccccd 	stclgt	12, cr12, [ip], {205}	; 0xcd
    91fc:	00009608 	andeq	r9, r0, r8, lsl #12

00009200 <gpio_toggle>:
    9200:	e92d4008 	push	{r3, lr}
    9204:	e350001f 	cmp	r0, #31
    9208:	88bd8008 	pophi	{r3, pc}
    920c:	959f3020 	ldrls	r3, [pc, #32]	; 9234 <gpio_toggle+0x34>
    9210:	95932018 	ldrls	r2, [r3, #24]
    9214:	859f3018 	ldrhi	r3, [pc, #24]	; 9234 <gpio_toggle+0x34>
    9218:	8593201c 	ldrhi	r2, [r3, #28]
    921c:	e200301f 	and	r3, r0, #31
    9220:	e1a00002 	mov	r0, r2
    9224:	e3a01001 	mov	r1, #1
    9228:	e1a01311 	lsl	r1, r1, r3
    922c:	eb0000e0 	bl	95b4 <put32>
    9230:	e8bd8008 	pop	{r3, pc}
    9234:	00009608 	andeq	r9, r0, r8, lsl #12

00009238 <is_gpio_int>:
    9238:	e92d4008 	push	{r3, lr}
    923c:	e59f301c 	ldr	r3, [pc, #28]	; 9260 <is_gpio_int+0x28>
    9240:	e5930030 	ldr	r0, [r3, #48]	; 0x30
    9244:	eb0000e6 	bl	95e4 <get32>
    9248:	e3500000 	cmp	r0, #0
    924c:	0a000001 	beq	9258 <is_gpio_int+0x20>
    9250:	e3a00001 	mov	r0, #1
    9254:	e8bd8008 	pop	{r3, pc}
    9258:	e3a00000 	mov	r0, #0
    925c:	e8bd8008 	pop	{r3, pc}
    9260:	00009608 	andeq	r9, r0, r8, lsl #12

00009264 <gpio_int_rising_edge>:
    9264:	e92d4038 	push	{r3, r4, r5, lr}
    9268:	e1a04000 	mov	r4, r0
    926c:	e350001f 	cmp	r0, #31
    9270:	88bd8038 	pophi	{r3, r4, r5, pc}
    9274:	eb0000c8 	bl	959c <dev_barrier>
    9278:	e354001f 	cmp	r4, #31
    927c:	8a000007 	bhi	92a0 <gpio_int_rising_edge+0x3c>
    9280:	e59f505c 	ldr	r5, [pc, #92]	; 92e4 <gpio_int_rising_edge+0x80>
    9284:	e5950034 	ldr	r0, [r5, #52]	; 0x34
    9288:	eb0000d5 	bl	95e4 <get32>
    928c:	e3a01001 	mov	r1, #1
    9290:	e1801411 	orr	r1, r0, r1, lsl r4
    9294:	e5950034 	ldr	r0, [r5, #52]	; 0x34
    9298:	eb0000c5 	bl	95b4 <put32>
    929c:	ea000007 	b	92c0 <gpio_int_rising_edge+0x5c>
    92a0:	e59f503c 	ldr	r5, [pc, #60]	; 92e4 <gpio_int_rising_edge+0x80>
    92a4:	e5950038 	ldr	r0, [r5, #56]	; 0x38
    92a8:	eb0000cd 	bl	95e4 <get32>
    92ac:	e204401f 	and	r4, r4, #31
    92b0:	e3a01001 	mov	r1, #1
    92b4:	e1801411 	orr	r1, r0, r1, lsl r4
    92b8:	e5950038 	ldr	r0, [r5, #56]	; 0x38
    92bc:	eb0000bc 	bl	95b4 <put32>
    92c0:	eb0000b5 	bl	959c <dev_barrier>
    92c4:	e59f4018 	ldr	r4, [pc, #24]	; 92e4 <gpio_int_rising_edge+0x80>
    92c8:	e594003c 	ldr	r0, [r4, #60]	; 0x3c
    92cc:	eb0000c4 	bl	95e4 <get32>
    92d0:	e3801802 	orr	r1, r0, #131072	; 0x20000
    92d4:	e594003c 	ldr	r0, [r4, #60]	; 0x3c
    92d8:	eb0000b5 	bl	95b4 <put32>
    92dc:	eb0000ae 	bl	959c <dev_barrier>
    92e0:	e8bd8038 	pop	{r3, r4, r5, pc}
    92e4:	00009608 	andeq	r9, r0, r8, lsl #12

000092e8 <gpio_int_falling_edge>:
    92e8:	e92d4038 	push	{r3, r4, r5, lr}
    92ec:	e1a04000 	mov	r4, r0
    92f0:	e350001f 	cmp	r0, #31
    92f4:	88bd8038 	pophi	{r3, r4, r5, pc}
    92f8:	eb0000a7 	bl	959c <dev_barrier>
    92fc:	e354001f 	cmp	r4, #31
    9300:	8a000007 	bhi	9324 <gpio_int_falling_edge+0x3c>
    9304:	e59f505c 	ldr	r5, [pc, #92]	; 9368 <gpio_int_falling_edge+0x80>
    9308:	e5950040 	ldr	r0, [r5, #64]	; 0x40
    930c:	eb0000b4 	bl	95e4 <get32>
    9310:	e3a01001 	mov	r1, #1
    9314:	e1801411 	orr	r1, r0, r1, lsl r4
    9318:	e5950040 	ldr	r0, [r5, #64]	; 0x40
    931c:	eb0000a4 	bl	95b4 <put32>
    9320:	ea000007 	b	9344 <gpio_int_falling_edge+0x5c>
    9324:	e59f503c 	ldr	r5, [pc, #60]	; 9368 <gpio_int_falling_edge+0x80>
    9328:	e5950044 	ldr	r0, [r5, #68]	; 0x44
    932c:	eb0000ac 	bl	95e4 <get32>
    9330:	e204401f 	and	r4, r4, #31
    9334:	e3a01001 	mov	r1, #1
    9338:	e1801411 	orr	r1, r0, r1, lsl r4
    933c:	e5950044 	ldr	r0, [r5, #68]	; 0x44
    9340:	eb00009b 	bl	95b4 <put32>
    9344:	eb000094 	bl	959c <dev_barrier>
    9348:	e59f4018 	ldr	r4, [pc, #24]	; 9368 <gpio_int_falling_edge+0x80>
    934c:	e594003c 	ldr	r0, [r4, #60]	; 0x3c
    9350:	eb0000a3 	bl	95e4 <get32>
    9354:	e3801601 	orr	r1, r0, #1048576	; 0x100000
    9358:	e594003c 	ldr	r0, [r4, #60]	; 0x3c
    935c:	eb000094 	bl	95b4 <put32>
    9360:	eb00008d 	bl	959c <dev_barrier>
    9364:	e8bd8038 	pop	{r3, r4, r5, pc}
    9368:	00009608 	andeq	r9, r0, r8, lsl #12

0000936c <gpio_event_detected>:
    936c:	e92d4010 	push	{r4, lr}
    9370:	e1a04000 	mov	r4, r0
    9374:	e350001f 	cmp	r0, #31
    9378:	8a000019 	bhi	93e4 <gpio_event_detected+0x78>
    937c:	eb000086 	bl	959c <dev_barrier>
    9380:	e354001f 	cmp	r4, #31
    9384:	8a000008 	bhi	93ac <gpio_event_detected+0x40>
    9388:	e59f305c 	ldr	r3, [pc, #92]	; 93ec <gpio_event_detected+0x80>
    938c:	e5930048 	ldr	r0, [r3, #72]	; 0x48
    9390:	eb000093 	bl	95e4 <get32>
    9394:	e3a03001 	mov	r3, #1
    9398:	e0103413 	ands	r3, r0, r3, lsl r4
    939c:	0a00000d 	beq	93d8 <gpio_event_detected+0x6c>
    93a0:	eb00007d 	bl	959c <dev_barrier>
    93a4:	e3a00001 	mov	r0, #1
    93a8:	e8bd8010 	pop	{r4, pc}
    93ac:	e59f3038 	ldr	r3, [pc, #56]	; 93ec <gpio_event_detected+0x80>
    93b0:	e593004c 	ldr	r0, [r3, #76]	; 0x4c
    93b4:	eb00008a 	bl	95e4 <get32>
    93b8:	e3a03001 	mov	r3, #1
    93bc:	e0004413 	and	r4, r0, r3, lsl r4
    93c0:	eb000075 	bl	959c <dev_barrier>
    93c4:	e3540000 	cmp	r4, #0
    93c8:	0a000002 	beq	93d8 <gpio_event_detected+0x6c>
    93cc:	eb000072 	bl	959c <dev_barrier>
    93d0:	e3a00001 	mov	r0, #1
    93d4:	e8bd8010 	pop	{r4, pc}
    93d8:	eb00006f 	bl	959c <dev_barrier>
    93dc:	e3a00000 	mov	r0, #0
    93e0:	e8bd8010 	pop	{r4, pc}
    93e4:	e3e00000 	mvn	r0, #0
    93e8:	e8bd8010 	pop	{r4, pc}
    93ec:	00009608 	andeq	r9, r0, r8, lsl #12

000093f0 <gpio_event_clear>:
    93f0:	e92d4010 	push	{r4, lr}
    93f4:	e1a04000 	mov	r4, r0
    93f8:	e350001f 	cmp	r0, #31
    93fc:	88bd8010 	pophi	{r4, pc}
    9400:	eb000065 	bl	959c <dev_barrier>
    9404:	e354001f 	cmp	r4, #31
    9408:	8a000005 	bhi	9424 <gpio_event_clear+0x34>
    940c:	e59f3030 	ldr	r3, [pc, #48]	; 9444 <gpio_event_clear+0x54>
    9410:	e5930048 	ldr	r0, [r3, #72]	; 0x48
    9414:	e3a01001 	mov	r1, #1
    9418:	e1a01411 	lsl	r1, r1, r4
    941c:	eb000064 	bl	95b4 <put32>
    9420:	ea000005 	b	943c <gpio_event_clear+0x4c>
    9424:	e204401f 	and	r4, r4, #31
    9428:	e59f3014 	ldr	r3, [pc, #20]	; 9444 <gpio_event_clear+0x54>
    942c:	e593004c 	ldr	r0, [r3, #76]	; 0x4c
    9430:	e3a01001 	mov	r1, #1
    9434:	e1a01411 	lsl	r1, r1, r4
    9438:	eb00005d 	bl	95b4 <put32>
    943c:	eb000056 	bl	959c <dev_barrier>
    9440:	e8bd8010 	pop	{r4, pc}
    9444:	00009608 	andeq	r9, r0, r8, lsl #12

00009448 <uart_init>:
    9448:	e92d4038 	push	{r3, r4, r5, lr}
    944c:	eb000052 	bl	959c <dev_barrier>
    9450:	e3a0000e 	mov	r0, #14
    9454:	e3a01002 	mov	r1, #2
    9458:	ebffff32 	bl	9128 <gpio_set_function>
    945c:	e3a0000f 	mov	r0, #15
    9460:	e3a01002 	mov	r1, #2
    9464:	ebffff2f 	bl	9128 <gpio_set_function>
    9468:	eb00004b 	bl	959c <dev_barrier>
    946c:	e59f4068 	ldr	r4, [pc, #104]	; 94dc <uart_init+0x94>
    9470:	e5945000 	ldr	r5, [r4]
    9474:	e1a00005 	mov	r0, r5
    9478:	eb000059 	bl	95e4 <get32>
    947c:	e3801001 	orr	r1, r0, #1
    9480:	e1a00005 	mov	r0, r5
    9484:	eb00004a 	bl	95b4 <put32>
    9488:	eb000043 	bl	959c <dev_barrier>
    948c:	e5940004 	ldr	r0, [r4, #4]
    9490:	e3a01000 	mov	r1, #0
    9494:	eb000046 	bl	95b4 <put32>
    9498:	e5940008 	ldr	r0, [r4, #8]
    949c:	e3a01000 	mov	r1, #0
    94a0:	eb000043 	bl	95b4 <put32>
    94a4:	e594000c 	ldr	r0, [r4, #12]
    94a8:	e3a01006 	mov	r1, #6
    94ac:	eb000040 	bl	95b4 <put32>
    94b0:	e5940010 	ldr	r0, [r4, #16]
    94b4:	e3a01003 	mov	r1, #3
    94b8:	eb00003d 	bl	95b4 <put32>
    94bc:	e5940014 	ldr	r0, [r4, #20]
    94c0:	e59f1018 	ldr	r1, [pc, #24]	; 94e0 <uart_init+0x98>
    94c4:	eb00003a 	bl	95b4 <put32>
    94c8:	e5940004 	ldr	r0, [r4, #4]
    94cc:	e3a01003 	mov	r1, #3
    94d0:	eb000037 	bl	95b4 <put32>
    94d4:	eb000030 	bl	959c <dev_barrier>
    94d8:	e8bd8038 	pop	{r3, r4, r5, pc}
    94dc:	00009668 	andeq	r9, r0, r8, ror #12
    94e0:	0000010e 	andeq	r0, r0, lr, lsl #2

000094e4 <uart_can_getc>:
    94e4:	e92d4008 	push	{r3, lr}
    94e8:	e59f300c 	ldr	r3, [pc, #12]	; 94fc <uart_can_getc+0x18>
    94ec:	e5930018 	ldr	r0, [r3, #24]
    94f0:	eb00003b 	bl	95e4 <get32>
    94f4:	e2000001 	and	r0, r0, #1
    94f8:	e8bd8008 	pop	{r3, pc}
    94fc:	00009668 	andeq	r9, r0, r8, ror #12

00009500 <uart_getc>:
    9500:	e92d4008 	push	{r3, lr}
    9504:	ebfffff6 	bl	94e4 <uart_can_getc>
    9508:	e3500000 	cmp	r0, #0
    950c:	0afffffc 	beq	9504 <uart_getc+0x4>
    9510:	e59f300c 	ldr	r3, [pc, #12]	; 9524 <uart_getc+0x24>
    9514:	e593001c 	ldr	r0, [r3, #28]
    9518:	eb000031 	bl	95e4 <get32>
    951c:	e6ef0070 	uxtb	r0, r0
    9520:	e8bd8008 	pop	{r3, pc}
    9524:	00009668 	andeq	r9, r0, r8, ror #12

00009528 <uart_can_putc>:
    9528:	e92d4008 	push	{r3, lr}
    952c:	e59f300c 	ldr	r3, [pc, #12]	; 9540 <uart_can_putc+0x18>
    9530:	e5930018 	ldr	r0, [r3, #24]
    9534:	eb00002a 	bl	95e4 <get32>
    9538:	e2000020 	and	r0, r0, #32
    953c:	e8bd8008 	pop	{r3, pc}
    9540:	00009668 	andeq	r9, r0, r8, ror #12

00009544 <uart_putc>:
    9544:	e92d4010 	push	{r4, lr}
    9548:	e1a04000 	mov	r4, r0
    954c:	ebfffff5 	bl	9528 <uart_can_putc>
    9550:	e3500000 	cmp	r0, #0
    9554:	0afffffc 	beq	954c <uart_putc+0x8>
    9558:	e59f300c 	ldr	r3, [pc, #12]	; 956c <uart_putc+0x28>
    955c:	e593001c 	ldr	r0, [r3, #28]
    9560:	e1a01004 	mov	r1, r4
    9564:	eb000012 	bl	95b4 <put32>
    9568:	e8bd8010 	pop	{r4, pc}
    956c:	00009668 	andeq	r9, r0, r8, ror #12

00009570 <uart_has_data>:
    9570:	e92d4008 	push	{r3, lr}
    9574:	ebffffda 	bl	94e4 <uart_can_getc>
    9578:	e8bd8008 	pop	{r3, pc}

0000957c <uart_getc_async>:
    957c:	e92d4008 	push	{r3, lr}
    9580:	ebfffffa 	bl	9570 <uart_has_data>
    9584:	e3500000 	cmp	r0, #0
    9588:	0a000001 	beq	9594 <uart_getc_async+0x18>
    958c:	ebffffdb 	bl	9500 <uart_getc>
    9590:	e8bd8008 	pop	{r3, pc}
    9594:	e3e00000 	mvn	r0, #0
    9598:	e8bd8008 	pop	{r3, pc}

0000959c <dev_barrier>:
    959c:	ea000002 	b	95ac <dsb>

000095a0 <dmb>:
    95a0:	e3a00000 	mov	r0, #0
    95a4:	ee070fba 	mcr	15, 0, r0, cr7, cr10, {5}
    95a8:	e12fff1e 	bx	lr

000095ac <dsb>:
    95ac:	ee070f9a 	mcr	15, 0, r0, cr7, cr10, {4}
    95b0:	e12fff1e 	bx	lr

000095b4 <put32>:
    95b4:	e5801000 	str	r1, [r0]
    95b8:	e12fff1e 	bx	lr

000095bc <PUT32>:
    95bc:	e5801000 	str	r1, [r0]
    95c0:	e12fff1e 	bx	lr

000095c4 <put16>:
    95c4:	e1c010b0 	strh	r1, [r0]
    95c8:	e12fff1e 	bx	lr

000095cc <PUT16>:
    95cc:	e1c010b0 	strh	r1, [r0]
    95d0:	e12fff1e 	bx	lr

000095d4 <put8>:
    95d4:	e5c01000 	strb	r1, [r0]
    95d8:	e12fff1e 	bx	lr

000095dc <PUT8>:
    95dc:	e5c01000 	strb	r1, [r0]
    95e0:	e12fff1e 	bx	lr

000095e4 <get32>:
    95e4:	e5900000 	ldr	r0, [r0]
    95e8:	e12fff1e 	bx	lr

000095ec <GET32>:
    95ec:	e5900000 	ldr	r0, [r0]
    95f0:	e12fff1e 	bx	lr

000095f4 <GETPC>:
    95f4:	e1a0000e 	mov	r0, lr
    95f8:	e12fff1e 	bx	lr

000095fc <dummy>:
    95fc:	e12fff1e 	bx	lr

Disassembly of section .data:

00009600 <rpi_putchar>:
    9600:	000087c8 	andeq	r8, r0, r8, asr #15

00009604 <putk>:
    9604:	00008804 	andeq	r8, r0, r4, lsl #16

00009608 <GPFSEL0>:
    9608:	20200000 	eorcs	r0, r0, r0

0000960c <GPFSEL1>:
    960c:	20200004 	eorcs	r0, r0, r4

00009610 <GPFSEL2>:
    9610:	20200008 	eorcs	r0, r0, r8

00009614 <GPFSEL3>:
    9614:	2020000c 	eorcs	r0, r0, ip

00009618 <GPFSEL4>:
    9618:	20200010 	eorcs	r0, r0, r0, lsl r0

0000961c <GPFSEL5>:
    961c:	20200014 	eorcs	r0, r0, r4, lsl r0

00009620 <GPSET0>:
    9620:	2020001c 	eorcs	r0, r0, ip, lsl r0

00009624 <GPSET1>:
    9624:	20200020 	eorcs	r0, r0, r0, lsr #32

00009628 <GPCLR0>:
    9628:	20200028 	eorcs	r0, r0, r8, lsr #32

0000962c <GPCLR1>:
    962c:	2020002c 	eorcs	r0, r0, ip, lsr #32

00009630 <GPLEV0>:
    9630:	20200034 	eorcs	r0, r0, r4, lsr r0

00009634 <GPLEV1>:
    9634:	20200038 	eorcs	r0, r0, r8, lsr r0

00009638 <IRQ_PENDING_2>:
    9638:	2000b208 	andcs	fp, r0, r8, lsl #4

0000963c <GPREN0>:
    963c:	2020004c 	eorcs	r0, r0, ip, asr #32

00009640 <GPREN1>:
    9640:	20200050 	eorcs	r0, r0, r0, asr r0

00009644 <ENABLE_IRQS_2>:
    9644:	2000b214 	andcs	fp, r0, r4, lsl r2

00009648 <GPFEN0>:
    9648:	20200058 	eorcs	r0, r0, r8, asr r0

0000964c <GPFEN1>:
    964c:	2020005c 	eorcs	r0, r0, ip, asr r0

00009650 <GPEDS0>:
    9650:	20200040 	eorcs	r0, r0, r0, asr #32

00009654 <GPEDS1>:
    9654:	20200044 	eorcs	r0, r0, r4, asr #32

00009658 <IRQ_PENDING_1>:
    9658:	2000b204 	andcs	fp, r0, r4, lsl #4

0000965c <gpio_clr0>:
    965c:	20200028 	eorcs	r0, r0, r8, lsr #32

00009660 <gpio_set0>:
    9660:	2020001c 	eorcs	r0, r0, ip, lsl r0

00009664 <gpio_fsel0>:
    9664:	20200000 	eorcs	r0, r0, r0

00009668 <AUX_ENABLES>:
    9668:	20215004 	eorcs	r5, r1, r4

0000966c <AUX_MU_CNTL_REG>:
    966c:	20215060 	eorcs	r5, r1, r0, rrx

00009670 <AUX_MU_IER_REG>:
    9670:	20215044 	eorcs	r5, r1, r4, asr #32

00009674 <AUX_MU_IIR_REG>:
    9674:	20215048 	eorcs	r5, r1, r8, asr #32

00009678 <AUX_MU_LCR_REG>:
    9678:	2021504c 	eorcs	r5, r1, ip, asr #32

0000967c <AUX_MU_BAUD_REG>:
    967c:	20215068 	eorcs	r5, r1, r8, rrx

00009680 <AUX_MU_LSR_REG>:
    9680:	20215054 	eorcs	r5, r1, r4, asr r0

00009684 <AUX_MU_IO_REG>:
    9684:	20215040 	eorcs	r5, r1, r0, asr #32

00009688 <AUX_MU_STAT_REG>:
    9688:	20215064 	eorcs	r5, r1, r4, rrx

0000968c <AUX_MU_SCRATCH>:
    968c:	2021505c 	eorcs	r5, r1, ip, asr r0

00009690 <AUX_MU_MSR_REG>:
    9690:	20215058 	eorcs	r5, r1, r8, asr r0

00009694 <AUX_MU_MCR_REG>:
    9694:	20215050 	eorcs	r5, r1, r0, asr r0

00009698 <AUX_IRQ>:
    9698:	20215000 	eorcs	r5, r1, r0

Disassembly of section .rodata:

0000969c <__FUNCTION__.4271>:
    969c:	6c637963 	stclvs	9, cr7, [r3], #-396	; 0xfffffe74
    96a0:	705f7365 	subsvc	r7, pc, r5, ror #6
    96a4:	735f7265 	cmpvc	pc, #1342177286	; 0x50000006
    96a8:	00006365 	andeq	r6, r0, r5, ror #6
    96ac:	4f525245 	svcmi	0x00525245
    96b0:	73253a52 	teqvc	r5, #335872	; 0x52000
    96b4:	3a73253a 	bcc	1cd2ba4 <__bss_end__+0x1cc8f8c>
    96b8:	203a6425 	eorscs	r6, sl, r5, lsr #8
    96bc:	534c4146 	movtpl	r4, #49478	; 0xc146
    96c0:	733c2845 	teqvc	ip, #4521984	; 0x450000
    96c4:	32203c20 	eorcc	r3, r0, #32, 24	; 0x2000
    96c8:	203a293e 	eorscs	r2, sl, lr, lsr r9
    96cc:	6c6c6977 	stclvs	9, cr6, [ip], #-476	; 0xfffffe24
    96d0:	65766f20 	ldrbvs	r6, [r6, #-3872]!	; 0xf20
    96d4:	6f6c6672 	svcvs	0x006c6672
    96d8:	00000a77 	andeq	r0, r0, r7, ror sl
    96dc:	74736574 	ldrbtvc	r6, [r3], #-1396	; 0x574
    96e0:	6e65672d 	cdpvs	7, 6, cr6, cr5, cr13, {1}
    96e4:	0000632e 	andeq	r6, r0, lr, lsr #6
    96e8:	61206d41 	teqvs	r0, r1, asr #26
    96ec:	72657320 	rsbvc	r7, r5, #32, 6	; 0x80000000
    96f0:	0a726576 	beq	1ca2cd0 <__bss_end__+0x1c990b8>
    96f4:	00000000 	andeq	r0, r0, r0

000096f8 <__FUNCTION__.4271>:
    96f8:	74696d65 	strbtvc	r6, [r9], #-3429	; 0xd65
    96fc:	00000000 	andeq	r0, r0, r0

00009700 <__FUNCTION__.4219>:
    9700:	5f697072 	svcpl	0x00697072
    9704:	5f746573 	svcpl	0x00746573
    9708:	7074756f 	rsbsvc	r7, r4, pc, ror #10
    970c:	00007475 	andeq	r7, r0, r5, ror r4

00009710 <__FUNCTION__.4293>:
    9710:	705f6176 	subsvc	r6, pc, r6, ror r1	; <UNPREDICTABLE>
    9714:	746e6972 	strbtvc	r6, [lr], #-2418	; 0x972
    9718:	0000006b 	andeq	r0, r0, fp, rrx
    971c:	494e4150 	stmdbmi	lr, {r4, r6, r8, lr}^
    9720:	73253a43 	teqvc	r5, #274432	; 0x43000
    9724:	3a73253a 	bcc	1cd2c14 <__bss_end__+0x1cc8ffc>
    9728:	303a6425 	eorscc	r6, sl, r5, lsr #8
    972c:	0000000a 	andeq	r0, r0, sl
    9730:	6362696c 	cmnvs	r2, #108, 18	; 0x1b0000
    9734:	2d61762f 	stclcs	6, cr7, [r1, #-188]!	; 0xffffff44
    9738:	6e697270 	mcrvs	2, 3, r7, cr9, cr0, {3}
    973c:	632e6b74 	teqvs	lr, #116, 22	; 0x1d000
    9740:	00000000 	andeq	r0, r0, r0
    9744:	33323130 	teqcc	r2, #48, 2
    9748:	37363534 			; <UNDEFINED> instruction: 0x37363534
    974c:	00003938 	andeq	r3, r0, r8, lsr r9
    9750:	33323130 	teqcc	r2, #48, 2
    9754:	37363534 			; <UNDEFINED> instruction: 0x37363534
    9758:	62613938 	rsbvs	r3, r1, #56, 18	; 0xe0000
    975c:	66656463 	strbtvs	r6, [r5], -r3, ror #8
    9760:	00000000 	andeq	r0, r0, r0
    9764:	00003130 	andeq	r3, r0, r0, lsr r1
    9768:	494e4150 	stmdbmi	lr, {r4, r6, r8, lr}^
    976c:	73253a43 	teqvc	r5, #274432	; 0x43000
    9770:	3a73253a 	bcc	1cd2c60 <__bss_end__+0x1cc9048>
    9774:	703a6425 	eorsvc	r6, sl, r5, lsr #8
    9778:	5f637475 	svcpl	0x00637475
    977c:	000a7066 	andeq	r7, sl, r6, rrx
    9780:	494e4150 	stmdbmi	lr, {r4, r6, r8, lr}^
    9784:	73253a43 	teqvc	r5, #274432	; 0x43000
    9788:	3a73253a 	bcc	1cd2c78 <__bss_end__+0x1cc9060>
    978c:	773a6425 	ldrvc	r6, [sl, -r5, lsr #8]!
    9790:	68746469 	ldmdavs	r4!, {r0, r3, r5, r6, sl, sp, lr}^
    9794:	33203c20 	teqcc	r0, #32, 24	; 0x2000
    9798:	00000a32 	andeq	r0, r0, r2, lsr sl
    979c:	494e4150 	stmdbmi	lr, {r4, r6, r8, lr}^
    97a0:	73253a43 	teqvc	r5, #274432	; 0x43000
    97a4:	3a73253a 	bcc	1cd2c94 <__bss_end__+0x1cc907c>
    97a8:	663a6425 	ldrtvs	r6, [sl], -r5, lsr #8
    97ac:	74616f6c 	strbtvc	r6, [r1], #-3948	; 0xf6c
    97b0:	746f6e20 	strbtvc	r6, [pc], #-3616	; 97b8 <__FUNCTION__.4293+0xa8>
    97b4:	616e6520 	cmnvs	lr, r0, lsr #10
    97b8:	64656c62 	strbtvs	r6, [r5], #-3170	; 0xc62
    97bc:	0a212121 	beq	851c48 <__bss_end__+0x848030>
    97c0:	00000000 	andeq	r0, r0, r0
    97c4:	494e4150 	stmdbmi	lr, {r4, r6, r8, lr}^
    97c8:	73253a43 	teqvc	r5, #274432	; 0x43000
    97cc:	3a73253a 	bcc	1cd2cbc <__bss_end__+0x1cc90a4>
    97d0:	703a6425 	eorsvc	r6, sl, r5, lsr #8
    97d4:	746e6972 	strbtvc	r6, [lr], #-2418	; 0x972
    97d8:	6e203a6b 	vnmulvs.f32	s6, s0, s23
    97dc:	6820746f 	stmdavs	r0!, {r0, r1, r2, r3, r5, r6, sl, ip, sp, lr}
    97e0:	6c646e61 	stclvs	14, cr6, [r4], #-388	; 0xfffffe7c
    97e4:	20676e69 	rsbcs	r6, r7, r9, ror #28
    97e8:	63657073 	cmnvs	r5, #115	; 0x73
    97ec:	65696669 	strbvs	r6, [r9, #-1641]!	; 0x669
    97f0:	25272072 	strcs	r2, [r7, #-114]!	; 0x72
    97f4:	0a0a2763 	beq	293588 <__bss_end__+0x289970>
    97f8:	00000000 	andeq	r0, r0, r0
    97fc:	454e4f44 	strbmi	r4, [lr, #-3908]	; 0xf44
    9800:	0a212121 	beq	851c8c <__bss_end__+0x848074>
    9804:	00000000 	andeq	r0, r0, r0

Disassembly of section .bss:

00009808 <__bss_start__>:
	...

00009818 <buf.4219>:
	...

Disassembly of section .ARM.attributes:

00000000 <.ARM.attributes>:
   0:	00002a41 	andeq	r2, r0, r1, asr #20
   4:	61656100 	cmnvs	r5, r0, lsl #2
   8:	01006962 	tsteq	r0, r2, ror #18
   c:	00000020 	andeq	r0, r0, r0, lsr #32
  10:	4b5a3605 	blmi	168d82c <__bss_end__+0x1683c14>
  14:	08070600 	stmdaeq	r7, {r9, sl}
  18:	12010901 	andne	r0, r1, #16384	; 0x4000
  1c:	15011404 	strne	r1, [r1, #-1028]	; 0x404
  20:	18031701 	stmdane	r3, {r0, r8, r9, sl, ip}
  24:	22011a01 	andcs	r1, r1, #4096	; 0x1000
  28:	Address 0x0000000000000028 is out of bounds.


Disassembly of section .comment:

00000000 <.comment>:
   0:	3a434347 	bcc	10d0d24 <__bss_end__+0x10c710c>
   4:	4e472820 	cdpmi	8, 4, cr2, cr7, cr0, {1}
   8:	34202955 	strtcc	r2, [r0], #-2389	; 0x955
   c:	332e382e 	teqcc	lr, #3014656	; 0x2e0000
	...

Disassembly of section .debug_info:

00000000 <.debug_info>:
       0:	000010db 	ldrdeq	r1, [r0], -fp
       4:	00000004 	andeq	r0, r0, r4
       8:	01040000 	mrseq	r0, (UNDEF: 4)
       c:	000000ad 	andeq	r0, r0, sp, lsr #1
      10:	00027901 	andeq	r7, r2, r1, lsl #18
      14:	00019000 	andeq	r9, r1, r0
      18:	00801000 	addeq	r1, r0, r0
      1c:	00076000 	andeq	r6, r7, r0
      20:	00000000 	andeq	r0, r0, r0
      24:	05040200 	streq	r0, [r4, #-512]	; 0x200
      28:	00746e69 	rsbseq	r6, r4, r9, ror #28
      2c:	3e070403 	cdpcc	4, 0, cr0, cr7, cr3, {0}
      30:	03000000 	movweq	r0, #0
      34:	01fd0601 	mvnseq	r0, r1, lsl #12
      38:	02030000 	andeq	r0, r3, #0
      3c:	00020905 	andeq	r0, r2, r5, lsl #18
      40:	05040300 	streq	r0, [r4, #-768]	; 0x300
      44:	00000061 	andeq	r0, r0, r1, rrx
      48:	5c050803 	stcpl	8, cr0, [r5], {3}
      4c:	04000000 	streq	r0, [r0], #-0
      50:	00000271 	andeq	r0, r0, r1, ror r2
      54:	005a2e02 	subseq	r2, sl, r2, lsl #28
      58:	01030000 	mrseq	r0, (UNDEF: 3)
      5c:	0001fb08 	andeq	pc, r1, r8, lsl #22
      60:	07020300 	streq	r0, [r2, -r0, lsl #6]
      64:	00000155 	andeq	r0, r0, r5, asr r1
      68:	39070403 	stmdbcc	r7, {r0, r1, sl}
      6c:	03000000 	movweq	r0, #0
      70:	00340708 	eorseq	r0, r4, r8, lsl #14
      74:	04030000 	streq	r0, [r3], #-0
      78:	00018707 	andeq	r8, r1, r7, lsl #14
      7c:	08010300 	stmdaeq	r1, {r8, r9}
      80:	00000204 	andeq	r0, r0, r4, lsl #4
      84:	008a0405 	addeq	r0, sl, r5, lsl #8
      88:	7d060000 	stcvc	0, cr0, [r6, #-0]
      8c:	07000000 	streq	r0, [r0, -r0]
      90:	c61c0110 			; <UNDEFINED> instruction: 0xc61c0110
      94:	08000000 	stmdaeq	r0, {}	; <UNPREDICTABLE>
      98:	01007874 	tsteq	r0, r4, ror r8
      9c:	0000251d 	andeq	r2, r0, sp, lsl r5
      a0:	72080000 	andvc	r0, r8, #0
      a4:	1d010078 	stcne	0, cr0, [r1, #-480]	; 0xfffffe20
      a8:	00000025 	andeq	r0, r0, r5, lsr #32
      ac:	022b0904 	eoreq	r0, fp, #4, 18	; 0x10000
      b0:	1e010000 	cdpne	0, 0, cr0, cr1, cr0, {0}
      b4:	0000002c 	andeq	r0, r0, ip, lsr #32
      b8:	02840908 	addeq	r0, r4, #8, 18	; 0x20000
      bc:	1f010000 	svcne	0x00010000
      c0:	0000002c 	andeq	r0, r0, ip, lsr #32
      c4:	ee04000c 	cdp	0, 0, cr0, cr4, cr12, {0}
      c8:	01000001 	tsteq	r0, r1
      cc:	00008f20 	andeq	r8, r0, r0, lsr #30
      d0:	004b0a00 	subeq	r0, fp, r0, lsl #20
      d4:	29010000 	stmdbcs	r1, {}	; <UNPREDICTABLE>
      d8:	0000e903 	andeq	lr, r0, r3, lsl #18
      dc:	69700b00 	ldmdbvs	r0!, {r8, r9, fp}^
      e0:	2901006e 	stmdbcs	r1, {r1, r2, r3, r5, r6}
      e4:	0000002c 	andeq	r0, r0, ip, lsr #32
      e8:	009b0a00 	addseq	r0, fp, r0, lsl #20
      ec:	2e010000 	cdpcs	0, 0, cr0, cr1, cr0, {0}
      f0:	00010103 	andeq	r0, r1, r3, lsl #2
      f4:	69700b00 	ldmdbvs	r0!, {r8, r9, fp}^
      f8:	2e01006e 	cdpcs	0, 0, cr0, cr1, cr14, {3}
      fc:	0000002c 	andeq	r0, r0, ip, lsr #32
     100:	00190a00 	andseq	r0, r9, r0, lsl #20
     104:	33010000 	movwcc	r0, #4096	; 0x1000
     108:	00012203 	andeq	r2, r1, r3, lsl #4
     10c:	69700b00 	ldmdbvs	r0!, {r8, r9, fp}^
     110:	3301006e 	movwcc	r0, #4206	; 0x106e
     114:	0000002c 	andeq	r0, r0, ip, lsr #32
     118:	0100760b 	tsteq	r0, fp, lsl #12
     11c:	00002c33 	andeq	r2, r0, r3, lsr ip
     120:	040c0000 	streq	r0, [ip], #-0
     124:	01000001 	tsteq	r0, r1
     128:	02100174 	andseq	r0, r0, #116, 2
     12c:	e90d0000 	stmdb	sp, {}	; <UNPREDICTABLE>
     130:	01000001 	tsteq	r0, r1
     134:	00021074 	andeq	r1, r2, r4, ror r0
     138:	07890d00 	streq	r0, [r9, r0, lsl #26]
     13c:	74010000 	strvc	r0, [r1], #-0
     140:	0000004f 	andeq	r0, r0, pc, asr #32
     144:	0100690e 	tsteq	r0, lr, lsl #18
     148:	00002c75 	andeq	r2, r0, r5, ror ip
     14c:	04a20f00 	strteq	r0, [r2], #3840	; 0xf00
     150:	76010000 	strvc	r0, [r1], -r0
     154:	0000002c 	andeq	r0, r0, ip, lsr #32
     158:	00016910 	andeq	r6, r1, r0, lsl r9
     15c:	01e40f00 	mvneq	r0, r0, lsl #30
     160:	76010000 	strvc	r0, [r1], -r0
     164:	0000002c 	andeq	r0, r0, ip, lsr #32
     168:	017a1000 	cmneq	sl, r0
     16c:	e40f0000 	str	r0, [pc], #-0	; 174 <_start-0x7e8c>
     170:	01000001 	tsteq	r0, r1
     174:	00002c7d 	andeq	r2, r0, sp, ror ip
     178:	8b100000 	blhi	400180 <__bss_end__+0x3f6568>
     17c:	0f000001 	svceq	0x00000001
     180:	000001e4 	andeq	r0, r0, r4, ror #3
     184:	002c7f01 	eoreq	r7, ip, r1, lsl #30
     188:	10000000 	andne	r0, r0, r0
     18c:	0000019c 	muleq	r0, ip, r1
     190:	0001e40f 	andeq	lr, r1, pc, lsl #8
     194:	2c810100 	stfcss	f0, [r1], {0}
     198:	00000000 	andeq	r0, r0, r0
     19c:	0001ad10 	andeq	sl, r1, r0, lsl sp
     1a0:	01e40f00 	mvneq	r0, r0, lsl #30
     1a4:	83010000 	movwhi	r0, #4096	; 0x1000
     1a8:	0000002c 	andeq	r0, r0, ip, lsr #32
     1ac:	01be1000 			; <UNDEFINED> instruction: 0x01be1000
     1b0:	e40f0000 	str	r0, [pc], #-0	; 1b8 <_start-0x7e48>
     1b4:	01000001 	tsteq	r0, r1
     1b8:	00002c85 	andeq	r2, r0, r5, lsl #25
     1bc:	cf100000 	svcgt	0x00100000
     1c0:	0f000001 	svceq	0x00000001
     1c4:	000001e4 	andeq	r0, r0, r4, ror #3
     1c8:	002c8701 	eoreq	r8, ip, r1, lsl #14
     1cc:	10000000 	andne	r0, r0, r0
     1d0:	000001e0 	andeq	r0, r0, r0, ror #3
     1d4:	0001e40f 	andeq	lr, r1, pc, lsl #8
     1d8:	2c890100 	stfcss	f0, [r9], {0}
     1dc:	00000000 	andeq	r0, r0, r0
     1e0:	0001f110 	andeq	pc, r1, r0, lsl r1	; <UNPREDICTABLE>
     1e4:	01e40f00 	mvneq	r0, r0, lsl #30
     1e8:	8b010000 	blhi	401f0 <__bss_end__+0x365d8>
     1ec:	0000002c 	andeq	r0, r0, ip, lsr #32
     1f0:	02021000 	andeq	r1, r2, #0
     1f4:	e40f0000 	str	r0, [pc], #-0	; 1fc <_start-0x7e04>
     1f8:	01000001 	tsteq	r0, r1
     1fc:	00002c8d 	andeq	r2, r0, sp, lsl #25
     200:	0f110000 	svceq	0x00110000
     204:	000001e4 	andeq	r0, r0, r4, ror #3
     208:	002c8f01 	eoreq	r8, ip, r1, lsl #30
     20c:	00000000 	andeq	r0, r0, r0
     210:	00c60405 	sbceq	r0, r6, r5, lsl #8
     214:	1c120000 	ldcne	0, cr0, [r2], {-0}
     218:	01000002 	tsteq	r0, r2
     21c:	00002c41 	andeq	r2, r0, r1, asr #24
     220:	00801000 	addeq	r1, r0, r0
     224:	00005000 	andeq	r5, r0, r0
     228:	f69c0100 			; <UNDEFINED> instruction: 0xf69c0100
     22c:	13000002 	movwne	r0, #2
     230:	41010073 	tstmi	r1, r3, ror r0
     234:	0000002c 	andeq	r0, r0, ip, lsr #32
     238:	00000000 	andeq	r0, r0, r0
     23c:	00014814 	andeq	r4, r1, r4, lsl r8
     240:	00030600 	andeq	r0, r3, r0, lsl #12
     244:	9c030500 	cfstr32ls	mvfx0, [r3], {-0}
     248:	0f000096 	svceq	0x00000096
     24c:	0000023a 	andeq	r0, r0, sl, lsr r2
     250:	002c4301 	eoreq	r4, ip, r1, lsl #6
     254:	4f150000 	svcmi	0x00150000
     258:	01000002 	tsteq	r0, r2
     25c:	00002c45 	andeq	r2, r0, r5, asr #24
     260:	00003a00 	andeq	r3, r0, r0, lsl #20
     264:	801c1600 	andshi	r1, ip, r0, lsl #12
     268:	00040000 	andeq	r0, r4, r0
     26c:	027e0000 	rsbseq	r0, lr, #0
     270:	e40f0000 	str	r0, [pc], #-0	; 278 <_start-0x7d88>
     274:	01000001 	tsteq	r0, r1
     278:	00002c43 	andeq	r2, r0, r3, asr #24
     27c:	2c160000 	ldccs	0, cr0, [r6], {-0}
     280:	04000080 	streq	r0, [r0], #-128	; 0x80
     284:	9b000000 	blls	28c <_start-0x7d74>
     288:	15000002 	strne	r0, [r0, #-2]
     28c:	000001e4 	andeq	r0, r0, r4, ror #3
     290:	002c4501 	eoreq	r4, ip, r1, lsl #10
     294:	003a0000 	eorseq	r0, sl, r0
     298:	17000000 	strne	r0, [r0, -r0]
     29c:	0000802c 	andeq	r8, r0, ip, lsr #32
     2a0:	00001080 	andeq	r1, r0, r0, lsl #1
     2a4:	000002b4 			; <UNDEFINED> instruction: 0x000002b4
     2a8:	07500118 	smmlaeq	r0, r8, r1, r0
     2ac:	0a5001f3 	beq	1400a80 <__bss_end__+0x13f6e68>
     2b0:	001e03e8 	andseq	r0, lr, r8, ror #7
     2b4:	00803c19 	addeq	r3, r0, r9, lsl ip
     2b8:	00109100 	andseq	r9, r0, r0, lsl #2
     2bc:	80501700 	subshi	r1, r0, r0, lsl #14
     2c0:	10980000 	addsne	r0, r8, r0
     2c4:	02ec0000 	rsceq	r0, ip, #0
     2c8:	01180000 	tsteq	r8, r0
     2cc:	42080253 	andmi	r0, r8, #805306373	; 0x30000005
     2d0:	05520118 	ldrbeq	r0, [r2, #-280]	; 0x118
     2d4:	00969c03 	addseq	r9, r6, r3, lsl #24
     2d8:	51011800 	tstpl	r1, r0, lsl #16
     2dc:	96dc0305 	ldrbls	r0, [ip], r5, lsl #6
     2e0:	01180000 	tsteq	r8, r0
     2e4:	ac030550 	cfstr32ge	mvfx0, [r3], {80}	; 0x50
     2e8:	00000096 	muleq	r0, r6, r0
     2ec:	00805419 	addeq	r5, r0, r9, lsl r4
     2f0:	0010ae00 	andseq	sl, r0, r0, lsl #28
     2f4:	7d1a0000 	ldcvc	0, cr0, [sl, #-0]
     2f8:	06000000 	streq	r0, [r0], -r0
     2fc:	1b000003 	blne	310 <_start-0x7cf0>
     300:	00000076 	andeq	r0, r0, r6, ror r0
     304:	f606000e 			; <UNDEFINED> instruction: 0xf606000e
     308:	12000002 	andne	r0, r0, #2
     30c:	0000006a 	andeq	r0, r0, sl, rrx
     310:	002c4a01 	eoreq	r4, ip, r1, lsl #20
     314:	80600000 	rsbhi	r0, r0, r0
     318:	01bc0000 			; <UNDEFINED> instruction: 0x01bc0000
     31c:	9c010000 	stcls	0, cr0, [r1], {-0}
     320:	000004a2 	andeq	r0, r0, r2, lsr #9
     324:	0001e91c 	andeq	lr, r1, ip, lsl r9
     328:	104a0100 	subne	r0, sl, r0, lsl #2
     32c:	4d000002 	stcmi	0, cr0, [r0, #-8]
     330:	15000000 	strne	r0, [r0, #-0]
     334:	00000309 	andeq	r0, r0, r9, lsl #6
     338:	002c4c01 	eoreq	r4, ip, r1, lsl #24
     33c:	006e0000 	rsbeq	r0, lr, r0
     340:	691d0000 	ldmdbvs	sp, {}	; <UNPREDICTABLE>
     344:	2c4d0100 	stfcse	f0, [sp], {-0}
     348:	01000000 	mrseq	r0, (UNDEF: 0)
     34c:	00002915 	andeq	r2, r0, r5, lsl r9
     350:	2c4e0100 	stfcse	f0, [lr], {-0}
     354:	25000000 	strcs	r0, [r0, #-0]
     358:	1e000001 	cdpne	0, 0, cr0, cr0, cr1, {0}
     35c:	000004a2 	andeq	r0, r0, r2, lsr #9
     360:	002c5201 	eoreq	r5, ip, r1, lsl #4
     364:	53010000 	movwpl	r0, #4096	; 0x1000
     368:	00808c16 	addeq	r8, r0, r6, lsl ip
     36c:	00000400 	andeq	r0, r0, r0, lsl #8
     370:	00038300 	andeq	r8, r3, r0, lsl #6
     374:	01e41e00 	mvneq	r1, r0, lsl #28
     378:	52010000 	andpl	r0, r1, #0
     37c:	0000002c 	andeq	r0, r0, ip, lsr #32
     380:	16005301 	strne	r5, [r0], -r1, lsl #6
     384:	00008090 	muleq	r0, r0, r0
     388:	00000004 	andeq	r0, r0, r4
     38c:	000003a0 	andeq	r0, r0, r0, lsr #7
     390:	0001e415 	andeq	lr, r1, r5, lsl r4
     394:	2c530100 	ldfcse	f0, [r3], {-0}
     398:	5a000000 	bpl	3a0 <_start-0x7c60>
     39c:	00000001 	andeq	r0, r0, r1
     3a0:	0080a416 	addeq	sl, r0, r6, lsl r4
     3a4:	00000400 	andeq	r0, r0, r0, lsl #8
     3a8:	0003bd00 	andeq	fp, r3, r0, lsl #26
     3ac:	01e41500 	mvneq	r1, r0, lsl #10
     3b0:	55010000 	strpl	r0, [r1, #-0]
     3b4:	0000002c 	andeq	r0, r0, ip, lsr #32
     3b8:	0000016d 	andeq	r0, r0, sp, ror #2
     3bc:	80d01600 	sbcshi	r1, r0, r0, lsl #12
     3c0:	00040000 	andeq	r0, r4, r0
     3c4:	03da0000 	bicseq	r0, sl, #0
     3c8:	e4150000 	ldr	r0, [r5], #-0
     3cc:	01000001 	tsteq	r0, r1
     3d0:	00002c57 	andeq	r2, r0, r7, asr ip
     3d4:	00018000 	andeq	r8, r1, r0
     3d8:	f8160000 			; <UNDEFINED> instruction: 0xf8160000
     3dc:	04000080 	streq	r0, [r0], #-128	; 0x80
     3e0:	f7000000 			; <UNDEFINED> instruction: 0xf7000000
     3e4:	15000003 	strne	r0, [r0, #-3]
     3e8:	000001e4 	andeq	r0, r0, r4, ror #3
     3ec:	002c5901 	eoreq	r5, ip, r1, lsl #18
     3f0:	01930000 	orrseq	r0, r3, r0
     3f4:	16000000 	strne	r0, [r0], -r0
     3f8:	00008120 	andeq	r8, r0, r0, lsr #2
     3fc:	00000004 	andeq	r0, r0, r4
     400:	00000414 	andeq	r0, r0, r4, lsl r4
     404:	0001e415 	andeq	lr, r1, r5, lsl r4
     408:	2c5b0100 	ldfcse	f0, [fp], {-0}
     40c:	a6000000 	strge	r0, [r0], -r0
     410:	00000001 	andeq	r0, r0, r1
     414:	00814816 	addeq	r4, r1, r6, lsl r8
     418:	00000400 	andeq	r0, r0, r0, lsl #8
     41c:	00043100 	andeq	r3, r4, r0, lsl #2
     420:	01e41500 	mvneq	r1, r0, lsl #10
     424:	5d010000 	stcpl	0, cr0, [r1, #-0]
     428:	0000002c 	andeq	r0, r0, ip, lsr #32
     42c:	000001b9 			; <UNDEFINED> instruction: 0x000001b9
     430:	81701600 	cmnhi	r0, r0, lsl #12
     434:	00040000 	andeq	r0, r4, r0
     438:	044e0000 	strbeq	r0, [lr], #-0
     43c:	e4150000 	ldr	r0, [r5], #-0
     440:	01000001 	tsteq	r0, r1
     444:	00002c5f 	andeq	r2, r0, pc, asr ip
     448:	0001cc00 	andeq	ip, r1, r0, lsl #24
     44c:	98160000 	ldmdals	r6, {}	; <UNPREDICTABLE>
     450:	04000081 	streq	r0, [r0], #-129	; 0x81
     454:	6b000000 	blvs	45c <_start-0x7ba4>
     458:	15000004 	strne	r0, [r0, #-4]
     45c:	000001e4 	andeq	r0, r0, r4, ror #3
     460:	002c6101 	eoreq	r6, ip, r1, lsl #2
     464:	01df0000 	bicseq	r0, pc, r0
     468:	16000000 	strne	r0, [r0], -r0
     46c:	000081c0 	andeq	r8, r0, r0, asr #3
     470:	00000004 	andeq	r0, r0, r4
     474:	00000488 	andeq	r0, r0, r8, lsl #9
     478:	0001e415 	andeq	lr, r1, r5, lsl r4
     47c:	2c630100 	stfcse	f0, [r3], #-0
     480:	f2000000 	vhadd.s8	d0, d0, d0
     484:	00000001 	andeq	r0, r0, r1
     488:	0082001f 	addeq	r0, r2, pc, lsl r0
     48c:	00000400 	andeq	r0, r0, r0, lsl #8
     490:	01e41500 	mvneq	r1, r0, lsl #10
     494:	65010000 	strvs	r0, [r1, #-0]
     498:	0000002c 	andeq	r0, r0, ip, lsr #32
     49c:	00000205 	andeq	r0, r0, r5, lsl #4
     4a0:	22200000 	eorcs	r0, r0, #0
     4a4:	1c000001 	stcne	0, cr0, [r0], {1}
     4a8:	90000082 	andls	r0, r0, r2, lsl #1
     4ac:	01000002 	tsteq	r0, r2
     4b0:	00099c9c 	muleq	r9, ip, ip
     4b4:	012e2100 	teqeq	lr, r0, lsl #2
     4b8:	50010000 	andpl	r0, r1, r0
     4bc:	00013922 	andeq	r3, r1, r2, lsr #18
     4c0:	00021800 	andeq	r1, r2, r0, lsl #16
     4c4:	01442300 	mrseq	r2, SPSR_abt
     4c8:	24010000 	strcs	r0, [r1], #-0
     4cc:	0000014d 	andeq	r0, r0, sp, asr #2
     4d0:	20165301 	andscs	r5, r6, r1, lsl #6
     4d4:	10000082 	andne	r0, r0, r2, lsl #1
     4d8:	e7000000 	str	r0, [r0, -r0]
     4dc:	24000004 	strcs	r0, [r0], #-4
     4e0:	0000015d 	andeq	r0, r0, sp, asr r1
     4e4:	25005301 	strcs	r5, [r0, #-769]	; 0x301
     4e8:	000000e9 	andeq	r0, r0, r9, ror #1
     4ec:	00008248 	andeq	r8, r0, r8, asr #4
     4f0:	00000010 	andeq	r0, r0, r0, lsl r0
     4f4:	05047c01 	streq	r7, [r4, #-3073]	; 0xc01
     4f8:	f5220000 			; <UNDEFINED> instruction: 0xf5220000
     4fc:	39000000 	stmdbcc	r0, {}	; <UNPREDICTABLE>
     500:	00000002 	andeq	r0, r0, r2
     504:	00825816 	addeq	r5, r2, r6, lsl r8
     508:	00000400 	andeq	r0, r0, r0, lsl #8
     50c:	00051b00 	andeq	r1, r5, r0, lsl #22
     510:	016e2600 	cmneq	lr, r0, lsl #12
     514:	024c0000 	subeq	r0, ip, #0
     518:	27000000 	strcs	r0, [r0, -r0]
     51c:	00000101 	andeq	r0, r0, r1, lsl #2
     520:	00008268 	andeq	r8, r0, r8, ror #4
     524:	00000000 	andeq	r0, r0, r0
     528:	058f7e01 	streq	r7, [pc, #3585]	; 1331 <_start-0x6ccf>
     52c:	18220000 	stmdane	r2!, {}	; <UNPREDICTABLE>
     530:	5f000001 	svcpl	0x00000001
     534:	22000002 	andcs	r0, r0, #2
     538:	0000010d 	andeq	r0, r0, sp, lsl #2
     53c:	00000279 	andeq	r0, r0, r9, ror r2
     540:	00001828 	andeq	r1, r0, r8, lsr #16
     544:	00057500 	andeq	r7, r5, r0, lsl #10
     548:	01182200 	tsteq	r8, r0, lsl #4
     54c:	02980000 	addseq	r0, r8, #0
     550:	0d220000 	stceq	0, cr0, [r2, #-0]
     554:	79000001 	stmdbvc	r0, {r0}
     558:	29000002 	stmdbcs	r0, {r1}
     55c:	000000d1 	ldrdeq	r0, [r0], -r1
     560:	00008268 	andeq	r8, r0, r8, ror #4
     564:	00000018 	andeq	r0, r0, r8, lsl r0
     568:	dd223601 	stcle	6, cr3, [r2, #-4]!
     56c:	79000000 	stmdbvc	r0, {}	; <UNPREDICTABLE>
     570:	00000002 	andeq	r0, r0, r2
     574:	00e92900 	rsceq	r2, r9, r0, lsl #18
     578:	82780000 	rsbshi	r0, r8, #0
     57c:	00400000 	subeq	r0, r0, r0
     580:	38010000 	stmdacc	r1, {}	; <UNPREDICTABLE>
     584:	0000f522 	andeq	pc, r0, r2, lsr #10
     588:	00027900 	andeq	r7, r2, r0, lsl #18
     58c:	16000000 	strne	r0, [r0], -r0
     590:	00008298 	muleq	r0, r8, r2
     594:	00000004 	andeq	r0, r0, r4
     598:	000005a6 	andeq	r0, r0, r6, lsr #11
     59c:	00017f26 	andeq	r7, r1, r6, lsr #30
     5a0:	00032000 	andeq	r2, r3, r0
     5a4:	01270000 	teqeq	r7, r0
     5a8:	a8000001 	stmdage	r0, {r0}
     5ac:	60000082 	andvs	r0, r0, r2, lsl #1
     5b0:	01000000 	mrseq	r0, (UNDEF: 0)
     5b4:	00061a80 	andeq	r1, r6, r0, lsl #21
     5b8:	01182200 	tsteq	r8, r0, lsl #4
     5bc:	03330000 	teqeq	r3, #0
     5c0:	0d220000 	stceq	0, cr0, [r2, #-0]
     5c4:	4d000001 	stcmi	0, cr0, [r0, #-4]
     5c8:	28000003 	stmdacs	r0, {r0, r1}
     5cc:	00000078 	andeq	r0, r0, r8, ror r0
     5d0:	00000600 	andeq	r0, r0, r0, lsl #12
     5d4:	00011822 	andeq	r1, r1, r2, lsr #16
     5d8:	00036c00 	andeq	r6, r3, r0, lsl #24
     5dc:	010d2200 	mrseq	r2, SP_fiq
     5e0:	034d0000 	movteq	r0, #53248	; 0xd000
     5e4:	d1290000 	teqle	r9, r0
     5e8:	a8000000 	stmdage	r0, {}	; <UNPREDICTABLE>
     5ec:	78000082 	stmdavc	r0, {r1, r7}
     5f0:	01000000 	mrseq	r0, (UNDEF: 0)
     5f4:	00dd2236 	sbcseq	r2, sp, r6, lsr r2
     5f8:	034d0000 	movteq	r0, #53248	; 0xd000
     5fc:	00000000 	andeq	r0, r0, r0
     600:	0000e929 	andeq	lr, r0, r9, lsr #18
     604:	0082b800 	addeq	fp, r2, r0, lsl #16
     608:	0000a000 	andeq	sl, r0, r0
     60c:	22380100 	eorscs	r0, r8, #0, 2
     610:	000000f5 	strdeq	r0, [r0], -r5
     614:	0000034d 	andeq	r0, r0, sp, asr #6
     618:	d8160000 	ldmdale	r6, {}	; <UNPREDICTABLE>
     61c:	04000082 	streq	r0, [r0], #-130	; 0x82
     620:	31000000 	mrscc	r0, (UNDEF: 0)
     624:	26000006 	strcs	r0, [r0], -r6
     628:	00000190 	muleq	r0, r0, r1
     62c:	000003e2 	andeq	r0, r0, r2, ror #7
     630:	01012700 	tsteq	r1, r0, lsl #14
     634:	82e80000 	rschi	r0, r8, #0
     638:	00c00000 	sbceq	r0, r0, r0
     63c:	82010000 	andhi	r0, r1, #0
     640:	000006a5 	andeq	r0, r0, r5, lsr #13
     644:	00011822 	andeq	r1, r1, r2, lsr #16
     648:	0003f500 	andeq	pc, r3, r0, lsl #10
     64c:	010d2200 	mrseq	r2, SP_fiq
     650:	040f0000 	streq	r0, [pc], #-0	; 658 <_start-0x79a8>
     654:	d8280000 	stmdale	r8!, {}	; <UNPREDICTABLE>
     658:	8b000000 	blhi	660 <_start-0x79a0>
     65c:	22000006 	andcs	r0, r0, #6
     660:	00000118 	andeq	r0, r0, r8, lsl r1
     664:	0000042e 	andeq	r0, r0, lr, lsr #8
     668:	00010d22 	andeq	r0, r1, r2, lsr #26
     66c:	00040f00 	andeq	r0, r4, r0, lsl #30
     670:	00d12900 	sbcseq	r2, r1, r0, lsl #18
     674:	82e80000 	rschi	r0, r8, #0
     678:	00d80000 	sbcseq	r0, r8, r0
     67c:	36010000 	strcc	r0, [r1], -r0
     680:	0000dd22 	andeq	sp, r0, r2, lsr #26
     684:	00040f00 	andeq	r0, r4, r0, lsl #30
     688:	29000000 	stmdbcs	r0, {}	; <UNPREDICTABLE>
     68c:	000000e9 	andeq	r0, r0, r9, ror #1
     690:	000082f8 	strdeq	r8, [r0], -r8	; <UNPREDICTABLE>
     694:	00000100 	andeq	r0, r0, r0, lsl #2
     698:	f5223801 			; <UNDEFINED> instruction: 0xf5223801
     69c:	0f000000 	svceq	0x00000000
     6a0:	00000004 	andeq	r0, r0, r4
     6a4:	83181600 	tsthi	r8, #0, 12
     6a8:	00040000 	andeq	r0, r4, r0
     6ac:	06bc0000 	ldrteq	r0, [ip], r0
     6b0:	a1260000 	teqge	r6, r0
     6b4:	92000001 	andls	r0, r0, #1
     6b8:	00000004 	andeq	r0, r0, r4
     6bc:	00010127 	andeq	r0, r1, r7, lsr #2
     6c0:	00832800 	addeq	r2, r3, r0, lsl #16
     6c4:	00012000 	andeq	r2, r1, r0
     6c8:	30840100 	addcc	r0, r4, r0, lsl #2
     6cc:	22000007 	andcs	r0, r0, #7
     6d0:	00000118 	andeq	r0, r0, r8, lsl r1
     6d4:	000004a5 	andeq	r0, r0, r5, lsr #9
     6d8:	00010d22 	andeq	r0, r1, r2, lsr #26
     6dc:	0004bf00 	andeq	fp, r4, r0, lsl #30
     6e0:	01382800 	teqeq	r8, r0, lsl #16
     6e4:	07160000 	ldreq	r0, [r6, -r0]
     6e8:	18220000 	stmdane	r2!, {}	; <UNPREDICTABLE>
     6ec:	de000001 	cdple	0, 0, cr0, cr0, cr1, {0}
     6f0:	22000004 	andcs	r0, r0, #4
     6f4:	0000010d 	andeq	r0, r0, sp, lsl #2
     6f8:	000004bf 			; <UNDEFINED> instruction: 0x000004bf
     6fc:	0000d129 	andeq	sp, r0, r9, lsr #2
     700:	00832800 	addeq	r2, r3, r0, lsl #16
     704:	00013800 	andeq	r3, r1, r0, lsl #16
     708:	22360100 	eorscs	r0, r6, #0, 2
     70c:	000000dd 	ldrdeq	r0, [r0], -sp
     710:	000004bf 			; <UNDEFINED> instruction: 0x000004bf
     714:	e9290000 	stmdb	r9!, {}	; <UNPREDICTABLE>
     718:	38000000 	stmdacc	r0, {}	; <UNPREDICTABLE>
     71c:	60000083 	andvs	r0, r0, r3, lsl #1
     720:	01000001 	tsteq	r0, r1
     724:	00f52238 	rscseq	r2, r5, r8, lsr r2
     728:	04bf0000 	ldrteq	r0, [pc], #0	; 730 <_start-0x78d0>
     72c:	00000000 	andeq	r0, r0, r0
     730:	00835816 	addeq	r5, r3, r6, lsl r8
     734:	00000400 	andeq	r0, r0, r0, lsl #8
     738:	00074700 	andeq	r4, r7, r0, lsl #14
     73c:	01b22600 			; <UNDEFINED> instruction: 0x01b22600
     740:	05300000 	ldreq	r0, [r0, #-0]!
     744:	27000000 	strcs	r0, [r0, -r0]
     748:	00000101 	andeq	r0, r0, r1, lsl #2
     74c:	00008368 	andeq	r8, r0, r8, ror #6
     750:	00000180 	andeq	r0, r0, r0, lsl #3
     754:	07bb8601 	ldreq	r8, [fp, r1, lsl #12]!
     758:	18220000 	stmdane	r2!, {}	; <UNPREDICTABLE>
     75c:	43000001 	movwmi	r0, #1
     760:	22000005 	andcs	r0, r0, #5
     764:	0000010d 	andeq	r0, r0, sp, lsl #2
     768:	0000055d 	andeq	r0, r0, sp, asr r5
     76c:	00019828 	andeq	r9, r1, r8, lsr #16
     770:	0007a100 	andeq	sl, r7, r0, lsl #2
     774:	01182200 	tsteq	r8, r0, lsl #4
     778:	057c0000 	ldrbeq	r0, [ip, #-0]!
     77c:	0d220000 	stceq	0, cr0, [r2, #-0]
     780:	5d000001 	stcpl	0, cr0, [r0, #-4]
     784:	29000005 	stmdbcs	r0, {r0, r2}
     788:	000000d1 	ldrdeq	r0, [r0], -r1
     78c:	00008368 	andeq	r8, r0, r8, ror #6
     790:	00000198 	muleq	r0, r8, r1
     794:	dd223601 	stcle	6, cr3, [r2, #-4]!
     798:	5d000000 	stcpl	0, cr0, [r0, #-0]
     79c:	00000005 	andeq	r0, r0, r5
     7a0:	00e92900 	rsceq	r2, r9, r0, lsl #18
     7a4:	83780000 	cmnhi	r8, #0
     7a8:	01c00000 	biceq	r0, r0, r0
     7ac:	38010000 	stmdacc	r1, {}	; <UNPREDICTABLE>
     7b0:	0000f522 	andeq	pc, r0, r2, lsr #10
     7b4:	00055d00 	andeq	r5, r5, r0, lsl #26
     7b8:	16000000 	strne	r0, [r0], -r0
     7bc:	0000839c 	muleq	r0, ip, r3
     7c0:	00000004 	andeq	r0, r0, r4
     7c4:	000007d2 	ldrdeq	r0, [r0], -r2
     7c8:	0001c326 	andeq	ip, r1, r6, lsr #6
     7cc:	0005bc00 	andeq	fp, r5, r0, lsl #24
     7d0:	01270000 	teqeq	r7, r0
     7d4:	ac000001 	stcge	0, cr0, [r0], {1}
     7d8:	e0000083 	and	r0, r0, r3, lsl #1
     7dc:	01000001 	tsteq	r0, r1
     7e0:	00084688 	andeq	r4, r8, r8, lsl #13
     7e4:	01182200 	tsteq	r8, r0, lsl #4
     7e8:	05cf0000 	strbeq	r0, [pc]	; 7f0 <_start-0x7810>
     7ec:	0d220000 	stceq	0, cr0, [r2, #-0]
     7f0:	ea000001 	b	7fc <_start-0x7804>
     7f4:	28000005 	stmdacs	r0, {r0, r2}
     7f8:	000001f8 	strdeq	r0, [r0], -r8
     7fc:	0000082c 	andeq	r0, r0, ip, lsr #16
     800:	00011822 	andeq	r1, r1, r2, lsr #16
     804:	00060900 	andeq	r0, r6, r0, lsl #18
     808:	010d2200 	mrseq	r2, SP_fiq
     80c:	05ea0000 	strbeq	r0, [sl, #0]!
     810:	d1290000 	teqle	r9, r0
     814:	ac000000 	stcge	0, cr0, [r0], {-0}
     818:	f8000083 			; <UNDEFINED> instruction: 0xf8000083
     81c:	01000001 	tsteq	r0, r1
     820:	00dd2236 	sbcseq	r2, sp, r6, lsr r2
     824:	05ea0000 	strbeq	r0, [sl, #0]!
     828:	00000000 	andeq	r0, r0, r0
     82c:	0000e929 	andeq	lr, r0, r9, lsr #18
     830:	0083bc00 	addeq	fp, r3, r0, lsl #24
     834:	00022000 	andeq	r2, r2, r0
     838:	22380100 	eorscs	r0, r8, #0, 2
     83c:	000000f5 	strdeq	r0, [r0], -r5
     840:	000005ea 	andeq	r0, r0, sl, ror #11
     844:	dc160000 	ldcle	0, cr0, [r6], {-0}
     848:	04000083 	streq	r0, [r0], #-131	; 0x83
     84c:	5d000000 	stcpl	0, cr0, [r0, #-0]
     850:	26000008 	strcs	r0, [r0], -r8
     854:	000001d4 	ldrdeq	r0, [r0], -r4
     858:	00000637 	andeq	r0, r0, r7, lsr r6
     85c:	01012700 	tsteq	r1, r0, lsl #14
     860:	83ec0000 	mvnhi	r0, #0
     864:	02400000 	subeq	r0, r0, #0
     868:	8a010000 	bhi	40870 <__bss_end__+0x36c58>
     86c:	000008d1 	ldrdeq	r0, [r0], -r1
     870:	00011822 	andeq	r1, r1, r2, lsr #16
     874:	00064a00 	andeq	r4, r6, r0, lsl #20
     878:	010d2200 	mrseq	r2, SP_fiq
     87c:	06650000 	strbteq	r0, [r5], -r0
     880:	58280000 	stmdapl	r8!, {}	; <UNPREDICTABLE>
     884:	b7000002 	strlt	r0, [r0, -r2]
     888:	22000008 	andcs	r0, r0, #8
     88c:	00000118 	andeq	r0, r0, r8, lsl r1
     890:	0000064a 	andeq	r0, r0, sl, asr #12
     894:	00010d22 	andeq	r0, r1, r2, lsr #26
     898:	00066500 	andeq	r6, r6, r0, lsl #10
     89c:	00d12900 	sbcseq	r2, r1, r0, lsl #18
     8a0:	83ec0000 	mvnhi	r0, #0
     8a4:	02580000 	subseq	r0, r8, #0
     8a8:	36010000 	strcc	r0, [r1], -r0
     8ac:	0000dd22 	andeq	sp, r0, r2, lsr #26
     8b0:	00066500 	andeq	r6, r6, r0, lsl #10
     8b4:	29000000 	stmdbcs	r0, {}	; <UNPREDICTABLE>
     8b8:	000000e9 	andeq	r0, r0, r9, ror #1
     8bc:	000083fc 	strdeq	r8, [r0], -ip
     8c0:	00000280 	andeq	r0, r0, r0, lsl #5
     8c4:	f5223801 			; <UNDEFINED> instruction: 0xf5223801
     8c8:	65000000 	strvs	r0, [r0, #-0]
     8cc:	00000006 	andeq	r0, r0, r6
     8d0:	841c1600 	ldrhi	r1, [ip], #-1536	; 0x600
     8d4:	00040000 	andeq	r0, r4, r0
     8d8:	08e80000 	stmiaeq	r8!, {}^	; <UNPREDICTABLE>
     8dc:	e5260000 	str	r0, [r6, #-0]!
     8e0:	84000001 	strhi	r0, [r0], #-1
     8e4:	00000006 	andeq	r0, r0, r6
     8e8:	00010127 	andeq	r0, r1, r7, lsr #2
     8ec:	00842c00 	addeq	r2, r4, r0, lsl #24
     8f0:	0002a000 	andeq	sl, r2, r0
     8f4:	548c0100 	strpl	r0, [ip], #256	; 0x100
     8f8:	2a000009 	bcs	924 <_start-0x76dc>
     8fc:	00000118 	andeq	r0, r0, r8, lsl r1
     900:	00010d22 	andeq	r0, r1, r2, lsr #26
     904:	00069700 	andeq	r9, r6, r0, lsl #14
     908:	02b82800 	adcseq	r2, r8, #0, 16
     90c:	093a0000 	ldmdbeq	sl!, {}	; <UNPREDICTABLE>
     910:	182a0000 	stmdane	sl!, {}	; <UNPREDICTABLE>
     914:	22000001 	andcs	r0, r0, #1
     918:	0000010d 	andeq	r0, r0, sp, lsl #2
     91c:	00000697 	muleq	r0, r7, r6
     920:	0000d129 	andeq	sp, r0, r9, lsr #2
     924:	00843000 	addeq	r3, r4, r0
     928:	0002b800 	andeq	fp, r2, r0, lsl #16
     92c:	22360100 	eorscs	r0, r6, #0, 2
     930:	000000dd 	ldrdeq	r0, [r0], -sp
     934:	00000697 	muleq	r0, r7, r6
     938:	e9290000 	stmdb	r9!, {}	; <UNPREDICTABLE>
     93c:	3c000000 	stccc	0, cr0, [r0], {-0}
     940:	e0000084 	and	r0, r0, r4, lsl #1
     944:	01000002 	tsteq	r0, r2
     948:	00f52238 	rscseq	r2, r5, r8, lsr r2
     94c:	06970000 	ldreq	r0, [r7], r0
     950:	00000000 	andeq	r0, r0, r0
     954:	00845c16 	addeq	r5, r4, r6, lsl ip
     958:	00000400 	andeq	r0, r0, r0, lsl #8
     95c:	00096b00 	andeq	r6, r9, r0, lsl #22
     960:	01f62600 	mvnseq	r2, r0, lsl #12
     964:	06b60000 	ldrteq	r0, [r6], r0
     968:	25000000 	strcs	r0, [r0, #-0]
     96c:	000000d1 	ldrdeq	r0, [r0], -r1
     970:	0000846c 	andeq	r8, r0, ip, ror #8
     974:	00000024 	andeq	r0, r0, r4, lsr #32
     978:	09888e01 	stmibeq	r8, {r0, r9, sl, fp, pc}
     97c:	dd220000 	stcle	0, cr0, [r2, #-0]
     980:	c9000000 	stmdbgt	r0, {}	; <UNPREDICTABLE>
     984:	00000006 	andeq	r0, r0, r6
     988:	0084901f 	addeq	r9, r4, pc, lsl r0
     98c:	00000400 	andeq	r0, r0, r0, lsl #8
     990:	02032600 	andeq	r2, r3, #0, 12
     994:	06dd0000 	ldrbeq	r0, [sp], r0
     998:	00000000 	andeq	r0, r0, r0
     99c:	0000932b 	andeq	r9, r0, fp, lsr #6
     9a0:	acb10100 	ldfges	f0, [r1]
     9a4:	c4000084 	strgt	r0, [r0], #-132	; 0x84
     9a8:	01000002 	tsteq	r0, r2
     9ac:	000f769c 	muleq	pc, ip, r6	; <UNPREDICTABLE>
     9b0:	78721d00 	ldmdavc	r2!, {r8, sl, fp, ip}^
     9b4:	25b20100 	ldrcs	r0, [r2, #256]!	; 0x100
     9b8:	14000000 	strne	r0, [r0], #-0
     9bc:	0078741d 	rsbseq	r7, r8, sp, lsl r4
     9c0:	0025b301 	eoreq	fp, r5, r1, lsl #6
     9c4:	16150000 	ldrne	r0, [r5], -r0
     9c8:	000084e4 	andeq	r8, r0, r4, ror #9
     9cc:	00000008 	andeq	r0, r0, r8
     9d0:	000009e0 	andeq	r0, r0, r0, ror #19
     9d4:	006e691d 	rsbeq	r6, lr, sp, lsl r9
     9d8:	002cb801 	eoreq	fp, ip, r1, lsl #16
     9dc:	00010000 	andeq	r0, r1, r0
     9e0:	0000d127 	andeq	sp, r0, r7, lsr #2
     9e4:	0084ec00 	addeq	lr, r4, r0, lsl #24
     9e8:	00030000 	andeq	r0, r3, r0
     9ec:	faba0100 	blx	fee80df4 <__bss_end__+0xfee771dc>
     9f0:	2c000009 	stccs	0, cr0, [r0], {9}
     9f4:	000000dd 	ldrdeq	r0, [r0], -sp
     9f8:	20280015 	eorcs	r0, r8, r5, lsl r0
     9fc:	32000003 	andcc	r0, r0, #3
     a00:	2d00000f 	stccs	0, cr0, [r0, #-60]	; 0xffffffc4
     a04:	bd010069 	stclt	0, cr0, [r1, #-420]	; 0xfffffe5c
     a08:	0000004f 	andeq	r0, r0, pc, asr #32
     a0c:	000006f0 	strdeq	r0, [r0], -r0	; <UNPREDICTABLE>
     a10:	00012227 	andeq	r2, r1, r7, lsr #4
     a14:	0084f800 	addeq	pc, r4, r0, lsl #16
     a18:	00033800 	andeq	r3, r3, r0, lsl #16
     a1c:	21be0100 			; <UNDEFINED> instruction: 0x21be0100
     a20:	2100000f 	tstcs	r0, pc
     a24:	0000012e 	andeq	r0, r0, lr, lsr #2
     a28:	98080306 	stmdals	r8, {r1, r2, r8, r9}
     a2c:	229f0000 	addscs	r0, pc, #0
     a30:	00000139 	andeq	r0, r0, r9, lsr r1
     a34:	0000070f 	andeq	r0, r0, pc, lsl #14
     a38:	0003382e 	andeq	r3, r3, lr, lsr #16
     a3c:	01442300 	mrseq	r2, SPSR_abt
     a40:	26010000 	strcs	r0, [r1], -r0
     a44:	0000014d 	andeq	r0, r0, sp, asr #2
     a48:	0000072f 	andeq	r0, r0, pc, lsr #14
     a4c:	00851016 	addeq	r1, r5, r6, lsl r0
     a50:	00000c00 	andeq	r0, r0, r0, lsl #24
     a54:	000a6300 	andeq	r6, sl, r0, lsl #6
     a58:	015d2600 	cmpeq	sp, r0, lsl #12
     a5c:	072f0000 	streq	r0, [pc, -r0]!
     a60:	25000000 	strcs	r0, [r0, #-0]
     a64:	000000e9 	andeq	r0, r0, r9, ror #1
     a68:	00008530 	andeq	r8, r0, r0, lsr r5
     a6c:	00000010 	andeq	r0, r0, r0, lsl r0
     a70:	0a807c01 	beq	fe01fa7c <__bss_end__+0xfe015e64>
     a74:	f5220000 			; <UNDEFINED> instruction: 0xf5220000
     a78:	42000000 	andmi	r0, r0, #0
     a7c:	00000007 	andeq	r0, r0, r7
     a80:	00854016 	addeq	r4, r5, r6, lsl r0
     a84:	00000400 	andeq	r0, r0, r0, lsl #8
     a88:	000a9700 	andeq	r9, sl, r0, lsl #14
     a8c:	016e2600 	cmneq	lr, r0, lsl #12
     a90:	07640000 	strbeq	r0, [r4, -r0]!
     a94:	27000000 	strcs	r0, [r0, -r0]
     a98:	00000101 	andeq	r0, r0, r1, lsl #2
     a9c:	00008550 	andeq	r8, r0, r0, asr r5
     aa0:	00000350 	andeq	r0, r0, r0, asr r3
     aa4:	0b0b7e01 	bleq	2e02b0 <__bss_end__+0x2d6698>
     aa8:	18220000 	stmdane	r2!, {}	; <UNPREDICTABLE>
     aac:	77000001 	strvc	r0, [r0, -r1]
     ab0:	22000007 	andcs	r0, r0, #7
     ab4:	0000010d 	andeq	r0, r0, sp, lsl #2
     ab8:	000007a3 	andeq	r0, r0, r3, lsr #15
     abc:	00036828 	andeq	r6, r3, r8, lsr #16
     ac0:	000af100 	andeq	pc, sl, r0, lsl #2
     ac4:	01182200 	tsteq	r8, r0, lsl #4
     ac8:	07c50000 	strbeq	r0, [r5, r0]
     acc:	0d220000 	stceq	0, cr0, [r2, #-0]
     ad0:	a3000001 	movwge	r0, #1
     ad4:	29000007 	stmdbcs	r0, {r0, r1, r2}
     ad8:	000000d1 	ldrdeq	r0, [r0], -r1
     adc:	00008558 	andeq	r8, r0, r8, asr r5
     ae0:	00000368 	andeq	r0, r0, r8, ror #6
     ae4:	dd223601 	stcle	6, cr3, [r2, #-4]!
     ae8:	a3000000 	movwge	r0, #0
     aec:	00000007 	andeq	r0, r0, r7
     af0:	00e92900 	rsceq	r2, r9, r0, lsl #18
     af4:	855c0000 	ldrbhi	r0, [ip, #-0]
     af8:	03880000 	orreq	r0, r8, #0
     afc:	38010000 	stmdacc	r1, {}	; <UNPREDICTABLE>
     b00:	0000f522 	andeq	pc, r0, r2, lsr #10
     b04:	0007a300 	andeq	sl, r7, r0, lsl #6
     b08:	16000000 	strne	r0, [r0], -r0
     b0c:	00008578 	andeq	r8, r0, r8, ror r5
     b10:	00000004 	andeq	r0, r0, r4
     b14:	00000b22 	andeq	r0, r0, r2, lsr #22
     b18:	00017f26 	andeq	r7, r1, r6, lsr #30
     b1c:	00087300 	andeq	r7, r8, r0, lsl #6
     b20:	01270000 	teqeq	r7, r0
     b24:	88000001 	stmdahi	r0, {r0}
     b28:	a8000085 	stmdage	r0, {r0, r2, r7}
     b2c:	01000003 	tsteq	r0, r3
     b30:	000b9680 	andeq	r9, fp, r0, lsl #13
     b34:	01182200 	tsteq	r8, r0, lsl #4
     b38:	08860000 	stmeq	r6, {}	; <UNPREDICTABLE>
     b3c:	0d220000 	stceq	0, cr0, [r2, #-0]
     b40:	b2000001 	andlt	r0, r0, #1
     b44:	28000008 	stmdacs	r0, {r3}
     b48:	000003c0 	andeq	r0, r0, r0, asr #7
     b4c:	00000b7c 	andeq	r0, r0, ip, ror fp
     b50:	00011822 	andeq	r1, r1, r2, lsr #16
     b54:	0008d400 	andeq	sp, r8, r0, lsl #8
     b58:	010d2200 	mrseq	r2, SP_fiq
     b5c:	08b20000 	ldmeq	r2!, {}	; <UNPREDICTABLE>
     b60:	d1290000 	teqle	r9, r0
     b64:	90000000 	andls	r0, r0, r0
     b68:	c0000085 	andgt	r0, r0, r5, lsl #1
     b6c:	01000003 	tsteq	r0, r3
     b70:	00dd2236 	sbcseq	r2, sp, r6, lsr r2
     b74:	08b20000 	ldmeq	r2!, {}	; <UNPREDICTABLE>
     b78:	00000000 	andeq	r0, r0, r0
     b7c:	0000e929 	andeq	lr, r0, r9, lsr #18
     b80:	00859400 	addeq	r9, r5, r0, lsl #8
     b84:	0003e000 	andeq	lr, r3, r0
     b88:	22380100 	eorscs	r0, r8, #0, 2
     b8c:	000000f5 	strdeq	r0, [r0], -r5
     b90:	000008b2 			; <UNDEFINED> instruction: 0x000008b2
     b94:	b0160000 	andslt	r0, r6, r0
     b98:	04000085 	streq	r0, [r0], #-133	; 0x85
     b9c:	ad000000 	stcge	0, cr0, [r0, #-0]
     ba0:	2600000b 	strcs	r0, [r0], -fp
     ba4:	00000190 	muleq	r0, r0, r1
     ba8:	00000970 	andeq	r0, r0, r0, ror r9
     bac:	01012700 	tsteq	r1, r0, lsl #14
     bb0:	85c00000 	strbhi	r0, [r0]
     bb4:	04000000 	streq	r0, [r0], #-0
     bb8:	82010000 	andhi	r0, r1, #0
     bbc:	00000c21 	andeq	r0, r0, r1, lsr #24
     bc0:	00011822 	andeq	r1, r1, r2, lsr #16
     bc4:	00098300 	andeq	r8, r9, r0, lsl #6
     bc8:	010d2200 	mrseq	r2, SP_fiq
     bcc:	09af0000 	stmibeq	pc!, {}	; <UNPREDICTABLE>
     bd0:	18280000 	stmdane	r8!, {}	; <UNPREDICTABLE>
     bd4:	07000004 	streq	r0, [r0, -r4]
     bd8:	2200000c 	andcs	r0, r0, #12
     bdc:	00000118 	andeq	r0, r0, r8, lsl r1
     be0:	000009d1 	ldrdeq	r0, [r0], -r1
     be4:	00010d22 	andeq	r0, r1, r2, lsr #26
     be8:	0009af00 	andeq	sl, r9, r0, lsl #30
     bec:	00d12900 	sbcseq	r2, r1, r0, lsl #18
     bf0:	85c80000 	strbhi	r0, [r8]
     bf4:	04180000 	ldreq	r0, [r8], #-0
     bf8:	36010000 	strcc	r0, [r1], -r0
     bfc:	0000dd22 	andeq	sp, r0, r2, lsr #26
     c00:	0009af00 	andeq	sl, r9, r0, lsl #30
     c04:	29000000 	stmdbcs	r0, {}	; <UNPREDICTABLE>
     c08:	000000e9 	andeq	r0, r0, r9, ror #1
     c0c:	000085cc 	andeq	r8, r0, ip, asr #11
     c10:	00000438 	andeq	r0, r0, r8, lsr r4
     c14:	f5223801 			; <UNDEFINED> instruction: 0xf5223801
     c18:	af000000 	svcge	0x00000000
     c1c:	00000009 	andeq	r0, r0, r9
     c20:	85e81600 	strbhi	r1, [r8, #1536]!	; 0x600
     c24:	00040000 	andeq	r0, r4, r0
     c28:	0c380000 	ldceq	0, cr0, [r8], #-0
     c2c:	a1260000 	teqge	r6, r0
     c30:	5b000001 	blpl	c3c <_start-0x73c4>
     c34:	0000000a 	andeq	r0, r0, sl
     c38:	00010127 	andeq	r0, r1, r7, lsr #2
     c3c:	0085f800 	addeq	pc, r5, r0, lsl #16
     c40:	00045800 	andeq	r5, r4, r0, lsl #16
     c44:	ac840100 	stfges	f0, [r4], {0}
     c48:	2200000c 	andcs	r0, r0, #12
     c4c:	00000118 	andeq	r0, r0, r8, lsl r1
     c50:	00000a6e 	andeq	r0, r0, lr, ror #20
     c54:	00010d22 	andeq	r0, r1, r2, lsr #26
     c58:	000a9a00 	andeq	r9, sl, r0, lsl #20
     c5c:	04702800 	ldrbteq	r2, [r0], #-2048	; 0x800
     c60:	0c920000 	ldceq	0, cr0, [r2], {0}
     c64:	18220000 	stmdane	r2!, {}	; <UNPREDICTABLE>
     c68:	bc000001 	stclt	0, cr0, [r0], {1}
     c6c:	2200000a 	andcs	r0, r0, #10
     c70:	0000010d 	andeq	r0, r0, sp, lsl #2
     c74:	00000a9a 	muleq	r0, sl, sl
     c78:	0000d129 	andeq	sp, r0, r9, lsr #2
     c7c:	00860000 	addeq	r0, r6, r0
     c80:	00047000 	andeq	r7, r4, r0
     c84:	22360100 	eorscs	r0, r6, #0, 2
     c88:	000000dd 	ldrdeq	r0, [r0], -sp
     c8c:	00000a9a 	muleq	r0, sl, sl
     c90:	e9290000 	stmdb	r9!, {}	; <UNPREDICTABLE>
     c94:	04000000 	streq	r0, [r0], #-0
     c98:	90000086 	andls	r0, r0, r6, lsl #1
     c9c:	01000004 	tsteq	r0, r4
     ca0:	00f52238 	rscseq	r2, r5, r8, lsr r2
     ca4:	0a9a0000 	beq	fe680cac <__bss_end__+0xfe677094>
     ca8:	00000000 	andeq	r0, r0, r0
     cac:	00862016 	addeq	r2, r6, r6, lsl r0
     cb0:	00000400 	andeq	r0, r0, r0, lsl #8
     cb4:	000cc300 	andeq	ip, ip, r0, lsl #6
     cb8:	01b22600 			; <UNDEFINED> instruction: 0x01b22600
     cbc:	0b340000 	bleq	d00cc4 <__bss_end__+0xcf70ac>
     cc0:	27000000 	strcs	r0, [r0, -r0]
     cc4:	00000101 	andeq	r0, r0, r1, lsl #2
     cc8:	00008630 	andeq	r8, r0, r0, lsr r6
     ccc:	000004b0 			; <UNDEFINED> instruction: 0x000004b0
     cd0:	0d378601 	ldceq	6, cr8, [r7, #-4]!
     cd4:	18220000 	stmdane	r2!, {}	; <UNPREDICTABLE>
     cd8:	47000001 	strmi	r0, [r0, -r1]
     cdc:	2200000b 	andcs	r0, r0, #11
     ce0:	0000010d 	andeq	r0, r0, sp, lsl #2
     ce4:	00000b73 	andeq	r0, r0, r3, ror fp
     ce8:	0004c828 	andeq	ip, r4, r8, lsr #16
     cec:	000d1d00 	andeq	r1, sp, r0, lsl #26
     cf0:	01182200 	tsteq	r8, r0, lsl #4
     cf4:	0b950000 	bleq	fe540cfc <__bss_end__+0xfe5370e4>
     cf8:	0d220000 	stceq	0, cr0, [r2, #-0]
     cfc:	73000001 	movwvc	r0, #1
     d00:	2900000b 	stmdbcs	r0, {r0, r1, r3}
     d04:	000000d1 	ldrdeq	r0, [r0], -r1
     d08:	00008638 	andeq	r8, r0, r8, lsr r6
     d0c:	000004c8 	andeq	r0, r0, r8, asr #9
     d10:	dd223601 	stcle	6, cr3, [r2, #-4]!
     d14:	73000000 	movwvc	r0, #0
     d18:	0000000b 	andeq	r0, r0, fp
     d1c:	00e92900 	rsceq	r2, r9, r0, lsl #18
     d20:	863c0000 	ldrthi	r0, [ip], -r0
     d24:	04e80000 	strbteq	r0, [r8], #0
     d28:	38010000 	stmdacc	r1, {}	; <UNPREDICTABLE>
     d2c:	0000f522 	andeq	pc, r0, r2, lsr #10
     d30:	000b7300 	andeq	r7, fp, r0, lsl #6
     d34:	16000000 	strne	r0, [r0], -r0
     d38:	0000865c 	andeq	r8, r0, ip, asr r6
     d3c:	00000004 	andeq	r0, r0, r4
     d40:	00000d4e 	andeq	r0, r0, lr, asr #26
     d44:	0001c326 	andeq	ip, r1, r6, lsr #6
     d48:	000bfb00 	andeq	pc, fp, r0, lsl #22
     d4c:	01270000 	teqeq	r7, r0
     d50:	6c000001 	stcvs	0, cr0, [r0], {1}
     d54:	08000086 	stmdaeq	r0, {r1, r2, r7}
     d58:	01000005 	tsteq	r0, r5
     d5c:	000dc288 	andeq	ip, sp, r8, lsl #5
     d60:	01182200 	tsteq	r8, r0, lsl #4
     d64:	0c0e0000 	stceq	0, cr0, [lr], {-0}
     d68:	0d220000 	stceq	0, cr0, [r2, #-0]
     d6c:	3c000001 	stccc	0, cr0, [r0], {1}
     d70:	2800000c 	stmdacs	r0, {r2, r3}
     d74:	00000520 	andeq	r0, r0, r0, lsr #10
     d78:	00000da8 	andeq	r0, r0, r8, lsr #27
     d7c:	00011822 	andeq	r1, r1, r2, lsr #16
     d80:	000c5e00 	andeq	r5, ip, r0, lsl #28
     d84:	010d2200 	mrseq	r2, SP_fiq
     d88:	0c3c0000 	ldceq	0, cr0, [ip], #-0
     d8c:	d1290000 	teqle	r9, r0
     d90:	74000000 	strvc	r0, [r0], #-0
     d94:	20000086 	andcs	r0, r0, r6, lsl #1
     d98:	01000005 	tsteq	r0, r5
     d9c:	00dd2236 	sbcseq	r2, sp, r6, lsr r2
     da0:	0c3c0000 	ldceq	0, cr0, [ip], #-0
     da4:	00000000 	andeq	r0, r0, r0
     da8:	0000e929 	andeq	lr, r0, r9, lsr #18
     dac:	00867800 	addeq	r7, r6, r0, lsl #16
     db0:	00054000 	andeq	r4, r5, r0
     db4:	22380100 	eorscs	r0, r8, #0, 2
     db8:	000000f5 	strdeq	r0, [r0], -r5
     dbc:	00000c3c 	andeq	r0, r0, ip, lsr ip
     dc0:	94160000 	ldrls	r0, [r6], #-0
     dc4:	04000086 	streq	r0, [r0], #-134	; 0x86
     dc8:	d9000000 	stmdble	r0, {}	; <UNPREDICTABLE>
     dcc:	2600000d 	strcs	r0, [r0], -sp
     dd0:	000001d4 	ldrdeq	r0, [r0], -r4
     dd4:	00000cb2 			; <UNDEFINED> instruction: 0x00000cb2
     dd8:	01012700 	tsteq	r1, r0, lsl #14
     ddc:	86a40000 	strthi	r0, [r4], r0
     de0:	05600000 	strbeq	r0, [r0, #-0]!
     de4:	8a010000 	bhi	40dec <__bss_end__+0x371d4>
     de8:	00000e4d 	andeq	r0, r0, sp, asr #28
     dec:	00011822 	andeq	r1, r1, r2, lsr #16
     df0:	000cc500 	andeq	ip, ip, r0, lsl #10
     df4:	010d2200 	mrseq	r2, SP_fiq
     df8:	0cf30000 	ldcleq	0, cr0, [r3]
     dfc:	78280000 	stmdavc	r8!, {}	; <UNPREDICTABLE>
     e00:	33000005 	movwcc	r0, #5
     e04:	2200000e 	andcs	r0, r0, #14
     e08:	00000118 	andeq	r0, r0, r8, lsl r1
     e0c:	00000d15 	andeq	r0, r0, r5, lsl sp
     e10:	00010d22 	andeq	r0, r1, r2, lsr #26
     e14:	000cf300 	andeq	pc, ip, r0, lsl #6
     e18:	00d12900 	sbcseq	r2, r1, r0, lsl #18
     e1c:	86ac0000 	strthi	r0, [ip], r0
     e20:	05780000 	ldrbeq	r0, [r8, #-0]!
     e24:	36010000 	strcc	r0, [r1], -r0
     e28:	0000dd22 	andeq	sp, r0, r2, lsr #26
     e2c:	000cf300 	andeq	pc, ip, r0, lsl #6
     e30:	29000000 	stmdbcs	r0, {}	; <UNPREDICTABLE>
     e34:	000000e9 	andeq	r0, r0, r9, ror #1
     e38:	000086b0 			; <UNDEFINED> instruction: 0x000086b0
     e3c:	00000598 	muleq	r0, r8, r5
     e40:	f5223801 			; <UNDEFINED> instruction: 0xf5223801
     e44:	f3000000 	vhadd.u8	d0, d0, d0
     e48:	0000000c 	andeq	r0, r0, ip
     e4c:	86cc1600 	strbhi	r1, [ip], r0, lsl #12
     e50:	00040000 	andeq	r0, r4, r0
     e54:	0e640000 	cdpeq	0, 6, cr0, cr4, cr0, {0}
     e58:	e5260000 	str	r0, [r6, #-0]!
     e5c:	56000001 	strpl	r0, [r0], -r1
     e60:	0000000d 	andeq	r0, r0, sp
     e64:	00010127 	andeq	r0, r1, r7, lsr #2
     e68:	0086dc00 	addeq	sp, r6, r0, lsl #24
     e6c:	0005b800 	andeq	fp, r5, r0, lsl #16
     e70:	d88c0100 	stmle	ip, {r8}
     e74:	2200000e 	andcs	r0, r0, #14
     e78:	00000118 	andeq	r0, r0, r8, lsl r1
     e7c:	00000d69 	andeq	r0, r0, r9, ror #26
     e80:	00010d22 	andeq	r0, r1, r2, lsr #26
     e84:	000d9700 	andeq	r9, sp, r0, lsl #14
     e88:	05d02800 	ldrbeq	r2, [r0, #2048]	; 0x800
     e8c:	0ebe0000 	cdpeq	0, 11, cr0, cr14, cr0, {0}
     e90:	18220000 	stmdane	r2!, {}	; <UNPREDICTABLE>
     e94:	69000001 	stmdbvs	r0, {r0}
     e98:	2200000d 	andcs	r0, r0, #13
     e9c:	0000010d 	andeq	r0, r0, sp, lsl #2
     ea0:	00000d97 	muleq	r0, r7, sp
     ea4:	0000d129 	andeq	sp, r0, r9, lsr #2
     ea8:	0086e400 	addeq	lr, r6, r0, lsl #8
     eac:	0005d000 	andeq	sp, r5, r0
     eb0:	22360100 	eorscs	r0, r6, #0, 2
     eb4:	000000dd 	ldrdeq	r0, [r0], -sp
     eb8:	00000d97 	muleq	r0, r7, sp
     ebc:	e9290000 	stmdb	r9!, {}	; <UNPREDICTABLE>
     ec0:	e8000000 	stmda	r0, {}	; <UNPREDICTABLE>
     ec4:	f0000086 			; <UNDEFINED> instruction: 0xf0000086
     ec8:	01000005 	tsteq	r0, r5
     ecc:	00f52238 	rscseq	r2, r5, r8, lsr r2
     ed0:	0d970000 	ldceq	0, cr0, [r7]
     ed4:	00000000 	andeq	r0, r0, r0
     ed8:	00870416 	addeq	r0, r7, r6, lsl r4
     edc:	00000400 	andeq	r0, r0, r0, lsl #8
     ee0:	000eef00 	andeq	lr, lr, r0, lsl #30
     ee4:	01f62600 	mvnseq	r2, r0, lsl #12
     ee8:	0db90000 	ldceq	0, cr0, [r9]
     eec:	25000000 	strcs	r0, [r0, #-0]
     ef0:	000000d1 	ldrdeq	r0, [r0], -r1
     ef4:	00008714 	andeq	r8, r0, r4, lsl r7
     ef8:	0000001c 	andeq	r0, r0, ip, lsl r0
     efc:	0f0c8e01 	svceq	0x000c8e01
     f00:	dd220000 	stcle	0, cr0, [r2, #-0]
     f04:	cc000000 	stcgt	0, cr0, [r0], {-0}
     f08:	0000000d 	andeq	r0, r0, sp
     f0c:	0087301f 	addeq	r3, r7, pc, lsl r0
     f10:	00000400 	andeq	r0, r0, r0, lsl #8
     f14:	02032600 	andeq	r2, r3, #0, 12
     f18:	0dee0000 	stcleq	0, cr0, [lr]
     f1c:	00000000 	andeq	r0, r0, r0
     f20:	87502f00 	ldrbhi	r2, [r0, -r0, lsl #30]
     f24:	10800000 	addne	r0, r0, r0
     f28:	01180000 	tsteq	r8, r0
     f2c:	00770250 	rsbseq	r0, r7, r0, asr r2
     f30:	d8170000 	ldmdale	r7, {}	; <UNPREDICTABLE>
     f34:	b5000084 	strlt	r0, [r0, #-132]	; 0x84
     f38:	45000010 	strmi	r0, [r0, #-16]
     f3c:	1800000f 	stmdane	r0, {r0, r1, r2, r3}
     f40:	45015001 	strmi	r5, [r1, #-1]
     f44:	84e01700 	strbthi	r1, [r0], #1792	; 0x700
     f48:	10c60000 	sbcne	r0, r6, r0
     f4c:	0f590000 	svceq	0x00590000
     f50:	01180000 	tsteq	r8, r0
     f54:	00740250 	rsbseq	r0, r4, r0, asr r2
     f58:	84e41900 	strbthi	r1, [r4], #2304	; 0x900
     f5c:	10d70000 	sbcsne	r0, r7, r0
     f60:	082f0000 	stmdaeq	pc!, {}	; <UNPREDICTABLE>
     f64:	98000085 	stmdals	r0, {r0, r2, r7}
     f68:	18000010 	stmdane	r0, {r4}
     f6c:	03055001 	movweq	r5, #20481	; 0x5001
     f70:	000096e8 	andeq	r9, r0, r8, ror #13
     f74:	68300000 	ldmdavs	r0!, {}	; <UNPREDICTABLE>
     f78:	01000001 	tsteq	r0, r1
     f7c:	000f8508 	andeq	r8, pc, r8, lsl #10
     f80:	20000000 	andcs	r0, r0, r0
     f84:	8b040520 	blhi	10240c <__bss_end__+0xf87f4>
     f88:	3100000f 	tstcc	r0, pc
     f8c:	0000002c 	andeq	r0, r0, ip, lsr #32
     f90:	00023030 	andeq	r3, r2, r0, lsr r0
     f94:	85090100 	strhi	r0, [r9, #-256]	; 0x100
     f98:	1c00000f 	stcne	0, cr0, [r0], {15}
     f9c:	30202000 	eorcc	r2, r0, r0
     fa0:	00000008 	andeq	r0, r0, r8
     fa4:	0f850a01 	svceq	0x00850a01
     fa8:	00280000 	eoreq	r0, r8, r0
     fac:	20302020 	eorscs	r2, r0, r0, lsr #32
     fb0:	01000001 	tsteq	r0, r1
     fb4:	000f850c 	andeq	r8, pc, ip, lsl #10
     fb8:	20000000 	andcs	r0, r0, r0
     fbc:	01283020 	teqeq	r8, r0, lsr #32
     fc0:	0d010000 	stceq	0, cr0, [r1, #-0]
     fc4:	00000f85 	andeq	r0, r0, r5, lsl #31
     fc8:	20200004 	eorcs	r0, r0, r4
     fcc:	00000030 	andeq	r0, r0, r0, lsr r0
     fd0:	850e0100 	strhi	r0, [lr, #-256]	; 0x100
     fd4:	0800000f 	stmdaeq	r0, {r0, r1, r2, r3}
     fd8:	30202000 	eorcc	r2, r0, r0
     fdc:	00000130 	andeq	r0, r0, r0, lsr r1
     fe0:	0f850f01 	svceq	0x00850f01
     fe4:	000c0000 	andeq	r0, ip, r0
     fe8:	38302020 	ldmdacc	r0!, {r5, sp}
     fec:	01000001 	tsteq	r0, r1
     ff0:	000f8510 	andeq	r8, pc, r0, lsl r5	; <UNPREDICTABLE>
     ff4:	20001000 	andcs	r1, r0, r0
     ff8:	01403020 	cmpeq	r0, r0, lsr #32
     ffc:	11010000 	mrsne	r0, (UNDEF: 1)
    1000:	00000f85 	andeq	r0, r0, r5, lsl #31
    1004:	20200014 	eorcs	r0, r0, r4, lsl r0
    1008:	00007730 	andeq	r7, r0, r0, lsr r7
    100c:	17130100 	ldrne	r0, [r3, -r0, lsl #2]
    1010:	1c000010 	stcne	0, cr0, [r0], {16}
    1014:	06202000 	strteq	r2, [r0], -r0
    1018:	00000f85 	andeq	r0, r0, r5, lsl #31
    101c:	00007e30 	andeq	r7, r0, r0, lsr lr
    1020:	85140100 	ldrhi	r0, [r4, #-256]	; 0x100
    1024:	2000000f 	andcs	r0, r0, pc
    1028:	30202000 	eorcc	r2, r0, r0
    102c:	00000012 	andeq	r0, r0, r2, lsl r0
    1030:	103a1601 	eorsne	r1, sl, r1, lsl #12
    1034:	00280000 	eoreq	r0, r8, r0
    1038:	85062020 	strhi	r2, [r6, #-32]
    103c:	3000000f 	andcc	r0, r0, pc
    1040:	00000173 	andeq	r0, r0, r3, ror r1
    1044:	0f851701 	svceq	0x00851701
    1048:	002c0000 	eoreq	r0, ip, r0
    104c:	85302020 	ldrhi	r2, [r0, #-32]!
    1050:	01000000 	mrseq	r0, (UNDEF: 0)
    1054:	00105d19 	andseq	r5, r0, r9, lsl sp
    1058:	20003400 	andcs	r3, r0, r0, lsl #8
    105c:	0f850620 	svceq	0x00850620
    1060:	8c300000 	ldchi	0, cr0, [r0], #-0
    1064:	01000000 	mrseq	r0, (UNDEF: 0)
    1068:	000f851a 	andeq	r8, pc, sl, lsl r5	; <UNPREDICTABLE>
    106c:	20003800 	andcs	r3, r0, r0, lsl #16
    1070:	00753220 	rsbseq	r3, r5, r0, lsr #4
    1074:	00c62201 	sbceq	r2, r6, r1, lsl #4
    1078:	03050000 	movweq	r0, #20480	; 0x5000
    107c:	00009808 	andeq	r9, r0, r8, lsl #16
    1080:	00021333 	andeq	r1, r2, r3, lsr r3
    1084:	91500300 	cmpls	r0, r0, lsl #6
    1088:	34000010 	strcc	r0, [r0], #-16
    108c:	0000002c 	andeq	r0, r0, ip, lsr #32
    1090:	01113500 	tsteq	r1, r0, lsl #10
    1094:	1e030000 	cdpne	0, 0, cr0, cr3, cr0, {0}
    1098:	00030936 	andeq	r0, r3, r6, lsr r9
    109c:	25290300 	strcs	r0, [r9, #-768]!	; 0x300
    10a0:	ae000000 	cdpge	0, 0, cr0, cr0, cr0, {0}
    10a4:	34000010 	strcc	r0, [r0], #-16
    10a8:	00000084 	andeq	r0, r0, r4, lsl #1
    10ac:	7a350037 	bvc	d41190 <__bss_end__+0xd37578>
    10b0:	03000001 	movweq	r0, #1
    10b4:	02543366 	subseq	r3, r4, #-1744830463	; 0x98000001
    10b8:	1d040000 	stcne	0, cr0, [r4, #-0]
    10bc:	000010c6 	andeq	r1, r0, r6, asr #1
    10c0:	00002c34 	andeq	r2, r0, r4, lsr ip
    10c4:	40330000 	eorsmi	r0, r3, r0
    10c8:	04000002 	streq	r0, [r0], #-2
    10cc:	0010d71c 	andseq	sp, r0, ip, lsl r7
    10d0:	002c3400 	eoreq	r3, ip, r0, lsl #8
    10d4:	35000000 	strcc	r0, [r0, #-0]
    10d8:	00000264 	andeq	r0, r0, r4, ror #4
    10dc:	91008e03 	tstls	r0, r3, lsl #28
    10e0:	04000001 	streq	r0, [r0], #-1
    10e4:	0002c200 	andeq	ip, r2, r0, lsl #4
    10e8:	af010400 	svcge	0x00010400
    10ec:	01000002 	tsteq	r0, r2
    10f0:	000002a1 	andeq	r0, r0, r1, lsr #5
    10f4:	0000031a 	andeq	r0, r0, sl, lsl r3
    10f8:	00008770 	andeq	r8, r0, r0, ror r7
    10fc:	00000058 	andeq	r0, r0, r8, asr r0
    1100:	0000039a 	muleq	r0, sl, r3
    1104:	00029202 	andeq	r9, r2, r2, lsl #4
    1108:	30280200 	eorcc	r0, r8, r0, lsl #4
    110c:	03000000 	movweq	r0, #0
    1110:	00000310 	andeq	r0, r0, r0, lsl r3
    1114:	47000304 	strmi	r0, [r0, -r4, lsl #6]
    1118:	04000000 	streq	r0, [r0], #-0
    111c:	00000363 	andeq	r0, r0, r3, ror #6
    1120:	00000047 	andeq	r0, r0, r7, asr #32
    1124:	04050000 	streq	r0, [r5], #-0
    1128:	00031202 	andeq	r1, r3, r2, lsl #4
    112c:	25620200 	strbcs	r0, [r2, #-512]!	; 0x200
    1130:	06000000 	streq	r0, [r0], -r0
    1134:	6e690504 	cdpvs	5, 6, cr0, cr9, cr4, {0}
    1138:	04070074 	streq	r0, [r7], #-116	; 0x74
    113c:	00003e07 	andeq	r3, r0, r7, lsl #28
    1140:	06010700 	streq	r0, [r1], -r0, lsl #14
    1144:	000001fd 	strdeq	r0, [r0], -sp
    1148:	09050207 	stmdbeq	r5, {r0, r1, r2, r9}
    114c:	07000002 	streq	r0, [r0, -r2]
    1150:	00610504 	rsbeq	r0, r1, r4, lsl #10
    1154:	08070000 	stmdaeq	r7, {}	; <UNPREDICTABLE>
    1158:	00005c05 	andeq	r5, r0, r5, lsl #24
    115c:	08010700 	stmdaeq	r1, {r8, r9, sl}
    1160:	000001fb 	strdeq	r0, [r0], -fp
    1164:	55070207 	strpl	r0, [r7, #-519]	; 0x207
    1168:	07000001 	streq	r0, [r0, -r1]
    116c:	00390704 	eorseq	r0, r9, r4, lsl #14
    1170:	08070000 	stmdaeq	r7, {}	; <UNPREDICTABLE>
    1174:	00003407 	andeq	r3, r0, r7, lsl #8
    1178:	07040700 	streq	r0, [r4, -r0, lsl #14]
    117c:	00000187 	andeq	r0, r0, r7, lsl #3
    1180:	00a70408 	adceq	r0, r7, r8, lsl #8
    1184:	01070000 	mrseq	r0, (UNDEF: 7)
    1188:	00020408 	andeq	r0, r2, r8, lsl #8
    118c:	b4040800 	strlt	r0, [r4], #-2048	; 0x800
    1190:	09000000 	stmdbeq	r0, {}	; <UNPREDICTABLE>
    1194:	000000a7 	andeq	r0, r0, r7, lsr #1
    1198:	0003090a 	andeq	r0, r3, sl, lsl #18
    119c:	54060100 	strpl	r0, [r6], #-256	; 0x100
    11a0:	70000000 	andvc	r0, r0, r0
    11a4:	58000087 	stmdapl	r0, {r0, r1, r2, r7}
    11a8:	01000000 	mrseq	r0, (UNDEF: 0)
    11ac:	0001439c 	muleq	r1, ip, r3
    11b0:	6d660b00 	vstmdbvs	r6!, {d16-d15}
    11b4:	06010074 			; <UNDEFINED> instruction: 0x06010074
    11b8:	000000ae 	andeq	r0, r0, lr, lsr #1
    11bc:	0c709102 	ldfeqp	f1, [r0], #-8
    11c0:	6675620d 	ldrbtvs	r6, [r5], -sp, lsl #4
    11c4:	43080100 	movwmi	r0, #33024	; 0x8100
    11c8:	05000001 	streq	r0, [r0, #-1]
    11cc:	00981803 	addseq	r1, r8, r3, lsl #16
    11d0:	035e0e00 	cmpeq	lr, #0, 28
    11d4:	09010000 	stmdbeq	r1, {}	; <UNPREDICTABLE>
    11d8:	00000049 	andeq	r0, r0, r9, asr #32
    11dc:	0f5c9102 	svceq	0x005c9102
    11e0:	01007a73 	tsteq	r0, r3, ror sl
    11e4:	0000540c 	andeq	r5, r0, ip, lsl #8
    11e8:	000e0100 	andeq	r0, lr, r0, lsl #2
    11ec:	87981000 	ldrhi	r1, [r8, r0]
    11f0:	01740000 	cmneq	r4, r0
    11f4:	01360000 	teqeq	r6, r0
    11f8:	01110000 	tsteq	r1, r0
    11fc:	4c910253 	lfmmi	f0, 4, [r1], {83}	; 0x53
    1200:	03520111 	cmpeq	r2, #1073741828	; 0x40000004
    1204:	11064891 			; <UNDEFINED> instruction: 0x11064891
    1208:	0a035101 	beq	d5614 <__bss_end__+0xcb9fc>
    120c:	01110400 	tsteq	r1, r0, lsl #8
    1210:	00740250 	rsbseq	r0, r4, r0, asr r2
    1214:	87ac1200 	strhi	r1, [ip, r0, lsl #4]!
    1218:	01110000 	tsteq	r1, r0
    121c:	00740250 	rsbseq	r0, r4, r0, asr r2
    1220:	a7130000 	ldrge	r0, [r3, -r0]
    1224:	54000000 	strpl	r0, [r0], #-0
    1228:	14000001 	strne	r0, [r0], #-1
    122c:	0000009a 	muleq	r0, sl, r0
    1230:	150003ff 	strne	r0, [r0, #-1023]	; 0x3ff
    1234:	00000054 	andeq	r0, r0, r4, asr r0
    1238:	00000163 	andeq	r0, r0, r3, ror #2
    123c:	0000ae16 	andeq	sl, r0, r6, lsl lr
    1240:	c0170000 	andsgt	r0, r7, r0
    1244:	04000003 	streq	r0, [r0], #-3
    1248:	00016e22 	andeq	r6, r1, r2, lsr #28
    124c:	54040800 	strpl	r0, [r4], #-2048	; 0x800
    1250:	18000001 	stmdane	r0, {r0}
    1254:	00000306 	andeq	r0, r0, r6, lsl #6
    1258:	00540205 	subseq	r0, r4, r5, lsl #4
    125c:	a1160000 	tstge	r6, r0
    1260:	16000000 	strne	r0, [r0], -r0
    1264:	00000054 	andeq	r0, r0, r4, asr r0
    1268:	0000ae16 	andeq	sl, r0, r6, lsl lr
    126c:	00491600 	subeq	r1, r9, r0, lsl #12
    1270:	00000000 	andeq	r0, r0, r0
    1274:	00000113 	andeq	r0, r0, r3, lsl r1
    1278:	03f30004 	mvnseq	r0, #4
    127c:	01040000 	mrseq	r0, (UNDEF: 4)
    1280:	000002af 	andeq	r0, r0, pc, lsr #5
    1284:	00038f01 	andeq	r8, r3, r1, lsl #30
    1288:	00031a00 	andeq	r1, r3, r0, lsl #20
    128c:	0087c800 	addeq	ip, r7, r0, lsl #16
    1290:	00003c00 	andeq	r3, r0, r0, lsl #24
    1294:	0004a000 	andeq	sl, r4, r0
    1298:	05040200 	streq	r0, [r4, #-512]	; 0x200
    129c:	00746e69 	rsbseq	r6, r4, r9, ror #28
    12a0:	3e070403 	cdpcc	4, 0, cr0, cr7, cr3, {0}
    12a4:	03000000 	movweq	r0, #0
    12a8:	01fd0601 	mvnseq	r0, r1, lsl #12
    12ac:	02030000 	andeq	r0, r3, #0
    12b0:	00020905 	andeq	r0, r2, r5, lsl #18
    12b4:	05040300 	streq	r0, [r4, #-768]	; 0x300
    12b8:	00000061 	andeq	r0, r0, r1, rrx
    12bc:	5c050803 	stcpl	8, cr0, [r5], {3}
    12c0:	03000000 	movweq	r0, #0
    12c4:	01fb0801 	mvnseq	r0, r1, lsl #16
    12c8:	02030000 	andeq	r0, r3, #0
    12cc:	00015507 	andeq	r5, r1, r7, lsl #10
    12d0:	07040300 	streq	r0, [r4, -r0, lsl #6]
    12d4:	00000039 	andeq	r0, r0, r9, lsr r0
    12d8:	34070803 	strcc	r0, [r7], #-2051	; 0x803
    12dc:	03000000 	movweq	r0, #0
    12e0:	01870704 	orreq	r0, r7, r4, lsl #14
    12e4:	01030000 	mrseq	r0, (UNDEF: 3)
    12e8:	00020408 	andeq	r0, r2, r8, lsl #8
    12ec:	03720400 	cmneq	r2, #0, 8
    12f0:	03010000 	movweq	r0, #4096	; 0x1000
    12f4:	00000025 	andeq	r0, r0, r5, lsr #32
    12f8:	000087c8 	andeq	r8, r0, r8, asr #15
    12fc:	00000014 	andeq	r0, r0, r4, lsl r0
    1300:	00b09c01 	adcseq	r9, r0, r1, lsl #24
    1304:	63050000 	movwvs	r0, #20480	; 0x5000
    1308:	25030100 	strcs	r0, [r3, #-256]	; 0x100
    130c:	2a000000 	bcs	1314 <_start-0x6cec>
    1310:	0600000e 	streq	r0, [r0], -lr
    1314:	000087d4 	ldrdeq	r8, [r0], -r4
    1318:	00000109 	andeq	r0, r0, r9, lsl #2
    131c:	02500107 	subseq	r0, r0, #-1073741823	; 0xc0000001
    1320:	00000074 	andeq	r0, r0, r4, ror r0
    1324:	00011108 	andeq	r1, r1, r8, lsl #2
    1328:	dc080100 	stfles	f0, [r8], {-0}
    132c:	18000087 	stmdane	r0, {r0, r1, r2, r7}
    1330:	01000000 	mrseq	r0, (UNDEF: 0)
    1334:	039e099c 	orrseq	r0, lr, #156, 18	; 0x270000
    1338:	0b010000 	bleq	41340 <__bss_end__+0x37728>
    133c:	000087f4 	strdeq	r8, [r0], -r4
    1340:	00000010 	andeq	r0, r0, r0, lsl r0
    1344:	00e39c01 	rsceq	r9, r3, r1, lsl #24
    1348:	660a0000 	strvs	r0, [sl], -r0
    134c:	0b010070 	bleq	41514 <__bss_end__+0x378fc>
    1350:	000000f2 	strdeq	r0, [r0], -r2
    1354:	0b005001 	bleq	15360 <__bss_end__+0xb748>
    1358:	00000025 	andeq	r0, r0, r5, lsr #32
    135c:	000000f2 	strdeq	r0, [r0], -r2
    1360:	0000250c 	andeq	r2, r0, ip, lsl #10
    1364:	040d0000 	streq	r0, [sp], #-0
    1368:	000000e3 	andeq	r0, r0, r3, ror #1
    136c:	0003830e 	andeq	r8, r3, lr, lsl #6
    1370:	f2060100 	vrhadd.s8	d0, d6, d0
    1374:	05000000 	streq	r0, [r0, #-0]
    1378:	00960003 	addseq	r0, r6, r3
    137c:	03680f00 	cmneq	r8, #0, 30
    1380:	3c020000 	stccc	0, cr0, [r2], {-0}
    1384:	00002c0c 	andeq	r2, r0, ip, lsl #24
    1388:	ee000000 	cdp	0, 0, cr0, cr0, cr0, {0}
    138c:	04000000 	streq	r0, [r0], #-0
    1390:	0004db00 	andeq	sp, r4, r0, lsl #22
    1394:	af010400 	svcge	0x00010400
    1398:	01000002 	tsteq	r0, r2
    139c:	000003ab 	andeq	r0, r0, fp, lsr #7
    13a0:	0000031a 	andeq	r0, r0, sl, lsl r3
    13a4:	00008804 	andeq	r8, r0, r4, lsl #16
    13a8:	00000034 	andeq	r0, r0, r4, lsr r0
    13ac:	0000052e 	andeq	r0, r0, lr, lsr #10
    13b0:	69050402 	stmdbvs	r5, {r1, sl}
    13b4:	0300746e 	movweq	r7, #1134	; 0x46e
    13b8:	003e0704 	eorseq	r0, lr, r4, lsl #14
    13bc:	01030000 	mrseq	r0, (UNDEF: 3)
    13c0:	0001fd06 	andeq	pc, r1, r6, lsl #26
    13c4:	05020300 	streq	r0, [r2, #-768]	; 0x300
    13c8:	00000209 	andeq	r0, r0, r9, lsl #4
    13cc:	61050403 	tstvs	r5, r3, lsl #8
    13d0:	03000000 	movweq	r0, #0
    13d4:	005c0508 	subseq	r0, ip, r8, lsl #10
    13d8:	01030000 	mrseq	r0, (UNDEF: 3)
    13dc:	0001fb08 	andeq	pc, r1, r8, lsl #22
    13e0:	07020300 	streq	r0, [r2, -r0, lsl #6]
    13e4:	00000155 	andeq	r0, r0, r5, asr r1
    13e8:	39070403 	stmdbcc	r7, {r0, r1, sl}
    13ec:	03000000 	movweq	r0, #0
    13f0:	00340708 	eorseq	r0, r4, r8, lsl #14
    13f4:	04030000 	streq	r0, [r3], #-0
    13f8:	00018707 	andeq	r8, r1, r7, lsl #14
    13fc:	08010300 	stmdaeq	r1, {r8, r9}
    1400:	00000204 	andeq	r0, r0, r4, lsl #4
    1404:	007f0404 	rsbseq	r0, pc, r4, lsl #8
    1408:	72050000 	andvc	r0, r5, #0
    140c:	06000000 	streq	r0, [r0], -r0
    1410:	000003b7 			; <UNDEFINED> instruction: 0x000003b7
    1414:	00250401 	eoreq	r0, r5, r1, lsl #8
    1418:	88040000 	stmdahi	r4, {}	; <UNPREDICTABLE>
    141c:	00340000 	eorseq	r0, r4, r0
    1420:	9c010000 	stcls	0, cr0, [r1], {-0}
    1424:	000000ab 	andeq	r0, r0, fp, lsr #1
    1428:	01007007 	tsteq	r0, r7
    142c:	00007904 	andeq	r7, r0, r4, lsl #18
    1430:	000e4800 	andeq	r4, lr, r0, lsl #16
    1434:	25080000 	strcs	r0, [r8, #-0]
    1438:	ba000000 	blt	1440 <_start-0x6bc0>
    143c:	09000000 	stmdbeq	r0, {}	; <UNPREDICTABLE>
    1440:	00000025 	andeq	r0, r0, r5, lsr #32
    1444:	03830a00 	orreq	r0, r3, #0, 20
    1448:	1d020000 	stcne	0, cr0, [r2, #-0]
    144c:	000000c5 	andeq	r0, r0, r5, asr #1
    1450:	00ab0404 	adceq	r0, fp, r4, lsl #8
    1454:	25080000 	strcs	r0, [r8, #-0]
    1458:	da000000 	ble	1460 <_start-0x6ba0>
    145c:	09000000 	stmdbeq	r0, {}	; <UNPREDICTABLE>
    1460:	00000079 	andeq	r0, r0, r9, ror r0
    1464:	03c00b00 	biceq	r0, r0, #0, 22
    1468:	0c010000 	stceq	0, cr0, [r1], {-0}
    146c:	000000eb 	andeq	r0, r0, fp, ror #1
    1470:	96040305 	strls	r0, [r4], -r5, lsl #6
    1474:	04040000 	streq	r0, [r4], #-0
    1478:	000000cb 	andeq	r0, r0, fp, asr #1
    147c:	00068100 	andeq	r8, r6, r0, lsl #2
    1480:	74000400 	strvc	r0, [r0], #-1024	; 0x400
    1484:	04000005 	streq	r0, [r0], #-5
    1488:	0002af01 	andeq	sl, r2, r1, lsl #30
    148c:	03f10100 	mvnseq	r0, #0, 2
    1490:	031a0000 	tsteq	sl, #0
    1494:	88380000 	ldmdahi	r8!, {}	; <UNPREDICTABLE>
    1498:	04f80000 	ldrbteq	r0, [r8], #0
    149c:	05c80000 	strbeq	r0, [r8]
    14a0:	04020000 	streq	r0, [r2], #-0
    14a4:	746e6905 	strbtvc	r6, [lr], #-2309	; 0x905
    14a8:	07040300 	streq	r0, [r4, -r0, lsl #6]
    14ac:	0000003e 	andeq	r0, r0, lr, lsr r0
    14b0:	fd060103 	stc2	1, cr0, [r6, #-12]
    14b4:	03000001 	movweq	r0, #1
    14b8:	02090502 	andeq	r0, r9, #8388608	; 0x800000
    14bc:	04030000 	streq	r0, [r3], #-0
    14c0:	00006105 	andeq	r6, r0, r5, lsl #2
    14c4:	05080300 	streq	r0, [r8, #-768]	; 0x300
    14c8:	0000005c 	andeq	r0, r0, ip, asr r0
    14cc:	fb080103 	blx	2018e2 <__bss_end__+0x1f7cca>
    14d0:	03000001 	movweq	r0, #1
    14d4:	01550702 	cmpeq	r5, r2, lsl #14
    14d8:	04030000 	streq	r0, [r3], #-0
    14dc:	00003907 	andeq	r3, r0, r7, lsl #18
    14e0:	07080300 	streq	r0, [r8, -r0, lsl #6]
    14e4:	00000034 	andeq	r0, r0, r4, lsr r0
    14e8:	87070403 	strhi	r0, [r7, -r3, lsl #8]
    14ec:	04000001 	streq	r0, [r0], #-1
    14f0:	7a040504 	bvc	102908 <__bss_end__+0xf8cf0>
    14f4:	03000000 	movweq	r0, #0
    14f8:	02040801 	andeq	r0, r4, #65536	; 0x10000
    14fc:	04050000 	streq	r0, [r5], #-0
    1500:	00000087 	andeq	r0, r0, r7, lsl #1
    1504:	00007a06 	andeq	r7, r0, r6, lsl #20
    1508:	02920700 	addseq	r0, r2, #0, 14
    150c:	28020000 	stmdacs	r2, {}	; <UNPREDICTABLE>
    1510:	00000097 	muleq	r0, r7, r0
    1514:	00031008 	andeq	r1, r3, r8
    1518:	00040400 	andeq	r0, r4, r0, lsl #8
    151c:	000000ae 	andeq	r0, r0, lr, lsr #1
    1520:	00036309 	andeq	r6, r3, r9, lsl #6
    1524:	00007200 	andeq	r7, r0, r0, lsl #4
    1528:	07000000 	streq	r0, [r0, -r0]
    152c:	00000312 	andeq	r0, r0, r2, lsl r3
    1530:	008c6202 	addeq	r6, ip, r2, lsl #4
    1534:	d30a0000 	movwle	r0, #40960	; 0xa000
    1538:	01000003 	tsteq	r0, r3
    153c:	00002527 	andeq	r2, r0, r7, lsr #10
    1540:	00883800 	addeq	r3, r8, r0, lsl #16
    1544:	00001400 	andeq	r1, r0, r0, lsl #8
    1548:	e09c0100 	adds	r0, ip, r0, lsl #2
    154c:	0b000000 	bleq	1554 <_start-0x6aac>
    1550:	27010063 	strcs	r0, [r1, -r3, rrx]
    1554:	00000025 	andeq	r0, r0, r5, lsr #32
    1558:	00000e66 	andeq	r0, r0, r6, ror #28
    155c:	61700c00 	cmnvs	r0, r0, lsl #24
    1560:	2e010064 	cdpcs	0, 0, cr0, cr1, cr4, {3}
    1564:	00000074 	andeq	r0, r0, r4, ror r0
    1568:	0000884c 	andeq	r8, r0, ip, asr #16
    156c:	0000002c 	andeq	r0, r0, ip, lsr #32
    1570:	01309c01 	teqeq	r0, r1, lsl #24
    1574:	700b0000 	andvc	r0, fp, r0
    1578:	742e0100 	strtvc	r0, [lr], #-256	; 0x100
    157c:	94000000 	strls	r0, [r0], #-0
    1580:	0d00000e 	stceq	0, cr0, [r0, #-56]	; 0xffffffc8
    1584:	000003e3 	andeq	r0, r0, r3, ror #7
    1588:	00742e01 	rsbseq	r2, r4, r1, lsl #28
    158c:	0ebf0000 	cdpeq	0, 11, cr0, cr15, cr0, {0}
    1590:	110e0000 	mrsne	r0, (UNDEF: 14)
    1594:	01000004 	tsteq	r0, r4
    1598:	0000252e 	andeq	r2, r0, lr, lsr #10
    159c:	0f520100 	svceq	0x00520100
    15a0:	006e656c 	rsbeq	r6, lr, ip, ror #10
    15a4:	00252f01 	eoreq	r2, r5, r1, lsl #30
    15a8:	51010000 	mrspl	r0, (UNDEF: 1)
    15ac:	03cb0a00 	biceq	r0, fp, #0, 20
    15b0:	37010000 	strcc	r0, [r1, -r0]
    15b4:	00000074 	andeq	r0, r0, r4, ror r0
    15b8:	00008878 	andeq	r8, r0, r8, ror r8
    15bc:	00000040 	andeq	r0, r0, r0, asr #32
    15c0:	019c9c01 	orrseq	r9, ip, r1, lsl #24
    15c4:	640b0000 	strvs	r0, [fp], #-0
    15c8:	01007473 	tsteq	r0, r3, ror r4
    15cc:	00007437 	andeq	r7, r0, r7, lsr r4
    15d0:	000ee000 	andeq	lr, lr, r0
    15d4:	006e0b00 	rsbeq	r0, lr, r0, lsl #22
    15d8:	00253701 	eoreq	r3, r5, r1, lsl #14
    15dc:	0f180000 	svceq	0x00180000
    15e0:	700b0000 	andvc	r0, fp, r0
    15e4:	74370100 	ldrtvc	r0, [r7], #-256	; 0x100
    15e8:	39000000 	stmdbcc	r0, {}	; <UNPREDICTABLE>
    15ec:	0d00000f 	stceq	0, cr0, [r0, #-60]	; 0xffffffc4
    15f0:	000004a2 	andeq	r0, r0, r2, lsr #9
    15f4:	00743701 	rsbseq	r3, r4, r1, lsl #14
    15f8:	0f6f0000 	svceq	0x006f0000
    15fc:	6c100000 	ldcvs	0, cr0, [r0], {-0}
    1600:	01006e65 	tsteq	r0, r5, ror #28
    1604:	00002539 	andeq	r2, r0, r9, lsr r5
    1608:	000f8d00 	andeq	r8, pc, r0, lsl #26
    160c:	00730f00 	rsbseq	r0, r3, r0, lsl #30
    1610:	00743d01 	rsbseq	r3, r4, r1, lsl #26
    1614:	50010000 	andpl	r0, r1, r0
    1618:	041f0a00 	ldreq	r0, [pc], #-2560	; 1620 <_start-0x69e0>
    161c:	47010000 	strmi	r0, [r1, -r0]
    1620:	00000074 	andeq	r0, r0, r4, ror r0
    1624:	000088b8 			; <UNDEFINED> instruction: 0x000088b8
    1628:	0000019c 	muleq	r0, ip, r1
    162c:	02d39c01 	sbcseq	r9, r3, #256	; 0x100
    1630:	e30d0000 	movw	r0, #53248	; 0xd000
    1634:	01000003 	tsteq	r0, r3
    1638:	00002c47 	andeq	r2, r0, r7, asr #24
    163c:	000fb400 	andeq	fp, pc, r0, lsl #8
    1640:	73640b00 	cmnvc	r4, #0, 22
    1644:	47010074 	smlsdxmi	r1, r4, r0, r0
    1648:	00000074 	andeq	r0, r0, r4, ror r0
    164c:	00000fe2 	andeq	r0, r0, r2, ror #31
    1650:	01006e0b 	tsteq	r0, fp, lsl #28
    1654:	00002547 	andeq	r2, r0, r7, asr #10
    1658:	00105000 	andseq	r5, r0, r0
    165c:	61760b00 	cmnvs	r6, r0, lsl #22
    1660:	4701006c 	strmi	r0, [r1, -ip, rrx]
    1664:	00000025 	andeq	r0, r0, r5, lsr #32
    1668:	0000107c 	andeq	r1, r0, ip, ror r0
    166c:	0004110d 	andeq	r1, r4, sp, lsl #2
    1670:	25470100 	strbcs	r0, [r7, #-256]	; 0x100
    1674:	fb000000 	blx	167e <_start-0x6982>
    1678:	0e000010 	mcreq	0, 0, r0, cr0, cr0, {0}
    167c:	000003e8 	andeq	r0, r0, r8, ror #7
    1680:	00254701 	eoreq	r4, r5, r1, lsl #14
    1684:	91020000 	mrsls	r0, (UNDEF: 2)
    1688:	75620f04 	strbvc	r0, [r2, #-3844]!	; 0xf04
    168c:	4c010066 	stcmi	0, cr0, [r1], {102}	; 0x66
    1690:	000002d3 	ldrdeq	r0, [r0], -r3
    1694:	7fa89103 	svcvc	0x00a89103
    1698:	01007010 	tsteq	r0, r0, lsl r0
    169c:	0000744c 	andeq	r7, r0, ip, asr #8
    16a0:	00112500 	andseq	r2, r1, r0, lsl #10
    16a4:	00751000 	rsbseq	r1, r5, r0
    16a8:	002c4d01 	eoreq	r4, ip, r1, lsl #26
    16ac:	11ca0000 	bicne	r0, sl, r0
    16b0:	48110000 	ldmdami	r1, {}	; <UNPREDICTABLE>
    16b4:	f3000001 	vhadd.u8	d0, d0, d1
    16b8:	05000002 	streq	r0, [r0, #-2]
    16bc:	0096f803 	addseq	pc, r6, r3, lsl #16
    16c0:	89241200 	stmdbhi	r4!, {r9, ip}
    16c4:	00740000 	rsbseq	r0, r4, r0
    16c8:	02610000 	rsbeq	r0, r1, #0
    16cc:	c5130000 	ldrgt	r0, [r3, #-0]
    16d0:	01000003 	tsteq	r0, r3
    16d4:	00002c52 	andeq	r2, r0, r2, asr ip
    16d8:	0012cf00 	andseq	ip, r2, r0, lsl #30
    16dc:	f8140000 			; <UNDEFINED> instruction: 0xf8140000
    16e0:	60000089 	andvs	r0, r0, r9, lsl #1
    16e4:	15000006 	strne	r0, [r0, #-6]
    16e8:	00008a0c 	andeq	r8, r0, ip, lsl #20
    16ec:	00000667 	andeq	r0, r0, r7, ror #12
    16f0:	00000299 	muleq	r0, r9, r2
    16f4:	02530116 	subseq	r0, r3, #-2147483643	; 0x80000005
    16f8:	01167508 	tsteq	r6, r8, lsl #10
    16fc:	f8030552 			; <UNDEFINED> instruction: 0xf8030552
    1700:	16000096 			; <UNDEFINED> instruction: 0x16000096
    1704:	03055101 	movweq	r5, #20737	; 0x5101
    1708:	00009730 	andeq	r9, r0, r0, lsr r7
    170c:	05500116 	ldrbeq	r0, [r0, #-278]	; 0x116
    1710:	00971c03 	addseq	r1, r7, r3, lsl #24
    1714:	10140000 	andsne	r0, r4, r0
    1718:	7d00008a 	stcvc	0, cr0, [r0, #-552]	; 0xfffffdd8
    171c:	15000006 	strne	r0, [r0, #-6]
    1720:	00008a1c 	andeq	r8, r0, ip, lsl sl
    1724:	000000e0 	andeq	r0, r0, r0, ror #1
    1728:	000002b6 			; <UNDEFINED> instruction: 0x000002b6
    172c:	02510116 	subseq	r0, r1, #-2147483643	; 0x80000005
    1730:	1700007d 	smlsdxne	r0, sp, r0, r0
    1734:	00008a30 	andeq	r8, r0, r0, lsr sl
    1738:	00000130 	andeq	r0, r0, r0, lsr r1
    173c:	02530116 	subseq	r0, r3, #-2147483643	; 0x80000005
    1740:	0116007d 	tsteq	r6, sp, ror r0
    1744:	00740251 	rsbseq	r0, r4, r1, asr r2
    1748:	02500116 	subseq	r0, r0, #-2147483643	; 0x80000005
    174c:	00000075 	andeq	r0, r0, r5, ror r0
    1750:	00007a18 	andeq	r7, r0, r8, lsl sl
    1754:	0002e300 	andeq	lr, r2, r0, lsl #6
    1758:	006b1900 	rsbeq	r1, fp, r0, lsl #18
    175c:	003f0000 	eorseq	r0, pc, r0
    1760:	00007a18 	andeq	r7, r0, r8, lsl sl
    1764:	0002f300 	andeq	pc, r2, r0, lsl #6
    1768:	006b1900 	rsbeq	r1, fp, r0, lsl #18
    176c:	00040000 	andeq	r0, r4, r0
    1770:	0002e306 	andeq	lr, r2, r6, lsl #6
    1774:	04021a00 	streq	r1, [r2], #-2560	; 0xa00
    1778:	1f010000 	svcne	0x00010000
    177c:	00008a54 	andeq	r8, r0, r4, asr sl
    1780:	00000054 	andeq	r0, r0, r4, asr r0
    1784:	037c9c01 	cmneq	ip, #256	; 0x100
    1788:	170d0000 	strne	r0, [sp, -r0]
    178c:	01000004 	tsteq	r0, r4
    1790:	00038b1f 	andeq	r8, r3, pc, lsl fp
    1794:	0012fb00 	andseq	pc, r2, r0, lsl #22
    1798:	03db0d00 	bicseq	r0, fp, #0, 26
    179c:	1f010000 	svcne	0x00010000
    17a0:	000003a0 	andeq	r0, r0, r0, lsr #7
    17a4:	00001327 	andeq	r1, r0, r7, lsr #6
    17a8:	00014811 	andeq	r4, r1, r1, lsl r8
    17ac:	0003b600 	andeq	fp, r3, r0, lsl #12
    17b0:	00030500 	andeq	r0, r3, r0, lsl #10
    17b4:	14000097 	strne	r0, [r0], #-151	; 0x97
    17b8:	00008a64 	andeq	r8, r0, r4, ror #20
    17bc:	00000660 	andeq	r0, r0, r0, ror #12
    17c0:	008a7815 	addeq	r7, sl, r5, lsl r8
    17c4:	00066700 	andeq	r6, r6, r0, lsl #14
    17c8:	00037200 	andeq	r7, r3, r0, lsl #4
    17cc:	53011600 	movwpl	r1, #5632	; 0x1600
    17d0:	16200802 	strtne	r0, [r0], -r2, lsl #16
    17d4:	03055201 	movweq	r5, #20993	; 0x5201
    17d8:	00009700 	andeq	r9, r0, r0, lsl #14
    17dc:	05510116 	ldrbeq	r0, [r1, #-278]	; 0x116
    17e0:	00973003 	addseq	r3, r7, r3
    17e4:	50011600 	andpl	r1, r1, r0, lsl #12
    17e8:	97680305 	strbls	r0, [r8, -r5, lsl #6]!
    17ec:	14000000 	strne	r0, [r0], #-0
    17f0:	00008a7c 	andeq	r8, r0, ip, ror sl
    17f4:	0000067d 	andeq	r0, r0, sp, ror r6
    17f8:	00251b00 	eoreq	r1, r5, r0, lsl #22
    17fc:	038b0000 	orreq	r0, fp, #0
    1800:	251c0000 	ldrcs	r0, [ip, #-0]
    1804:	00000000 	andeq	r0, r0, r0
    1808:	037c0405 	cmneq	ip, #83886080	; 0x5000000
    180c:	251b0000 	ldrcs	r0, [fp, #-0]
    1810:	a0000000 	andge	r0, r0, r0
    1814:	1c000003 	stcne	0, cr0, [r0], {3}
    1818:	00000081 	andeq	r0, r0, r1, lsl #1
    181c:	91040500 	tstls	r4, r0, lsl #10
    1820:	18000003 	stmdane	r0, {r0, r1}
    1824:	0000007a 	andeq	r0, r0, sl, ror r0
    1828:	000003b6 			; <UNDEFINED> instruction: 0x000003b6
    182c:	00006b19 	andeq	r6, r0, r9, lsl fp
    1830:	06000e00 	streq	r0, [r0], -r0, lsl #28
    1834:	000003a6 	andeq	r0, r0, r6, lsr #7
    1838:	0003061d 	andeq	r0, r3, sp, lsl r6
    183c:	257d0100 	ldrbcs	r0, [sp, #-256]!	; 0x100
    1840:	a8000000 	stmdage	r0, {}	; <UNPREDICTABLE>
    1844:	8800008a 	stmdahi	r0, {r1, r3, r7}
    1848:	01000002 	tsteq	r0, r2
    184c:	0006259c 	muleq	r6, ip, r5
    1850:	75620b00 	strbvc	r0, [r2, #-2816]!	; 0xb00
    1854:	7d010066 	stcvc	0, cr0, [r1, #-408]	; 0xfffffe68
    1858:	00000074 	andeq	r0, r0, r4, ror r0
    185c:	00001353 	andeq	r1, r0, r3, asr r3
    1860:	01006e0b 	tsteq	r0, fp, lsl #28
    1864:	0000257d 	andeq	r2, r0, sp, ror r5
    1868:	00137f00 	andseq	r7, r3, r0, lsl #30
    186c:	6d660b00 	vstmdbvs	r6!, {d16-d15}
    1870:	7d010074 	stcvc	0, cr0, [r1, #-464]	; 0xfffffe30
    1874:	00000081 	andeq	r0, r0, r1, lsl #1
    1878:	000013ad 	andeq	r1, r0, sp, lsr #7
    187c:	00035e0d 	andeq	r5, r3, sp, lsl #28
    1880:	ae7d0100 	rpwgee	f0, f5, f0
    1884:	e1000000 	mrs	r0, (UNDEF: 0)
    1888:	10000013 	andne	r0, r0, r3, lsl r0
    188c:	7e010070 	mcrvc	0, 0, r0, cr1, cr0, {3}
    1890:	00000074 	andeq	r0, r0, r4, ror r0
    1894:	000013f4 	strdeq	r1, [r0], -r4
    1898:	01006510 	tsteq	r0, r0, lsl r5
    189c:	0000747e 	andeq	r7, r0, lr, ror r4
    18a0:	00147200 	andseq	r7, r4, r0, lsl #4
    18a4:	01481100 	mrseq	r1, (UNDEF: 88)
    18a8:	06350000 	ldrteq	r0, [r5], -r0
    18ac:	03050000 	movweq	r0, #20480	; 0x5000
    18b0:	00009710 	andeq	r9, r0, r0, lsl r7
    18b4:	0006101e 	andeq	r1, r6, lr, lsl r0
    18b8:	00731000 	rsbseq	r1, r3, r0
    18bc:	00748b01 	rsbseq	r8, r4, r1, lsl #22
    18c0:	14990000 	ldrne	r0, [r9], #0
    18c4:	6e0f0000 	cdpvs	0, 0, cr0, cr15, cr0, {0}
    18c8:	01006d75 	tsteq	r0, r5, ror sp
    18cc:	00063a8b 	andeq	r3, r6, fp, lsl #21
    18d0:	d8910300 	ldmle	r1, {r8, r9}
    18d4:	0411137e 	ldreq	r1, [r1], #-894	; 0x37e
    18d8:	8c010000 	stchi	0, cr0, [r1], {-0}
    18dc:	0000002c 	andeq	r0, r0, ip, lsr #32
    18e0:	000014ee 	andeq	r1, r0, lr, ror #9
    18e4:	008b2c15 	addeq	r2, fp, r5, lsl ip
    18e8:	0000b900 	andeq	fp, r0, r0, lsl #18
    18ec:	00047b00 	andeq	r7, r4, r0, lsl #22
    18f0:	50011600 	andpl	r1, r1, r0, lsl #12
    18f4:	00007502 	andeq	r7, r0, r2, lsl #10
    18f8:	008b4014 	addeq	r4, fp, r4, lsl r0
    18fc:	00066000 	andeq	r6, r6, r0
    1900:	8b541500 	blhi	1506d08 <__bss_end__+0x14fd0f0>
    1904:	06670000 	strbteq	r0, [r7], -r0
    1908:	04b30000 	ldrteq	r0, [r3], #0
    190c:	01160000 	tsteq	r6, r0
    1910:	92080253 	andls	r0, r8, #805306373	; 0x30000005
    1914:	05520116 	ldrbeq	r0, [r2, #-278]	; 0x116
    1918:	00971003 	addseq	r1, r7, r3
    191c:	51011600 	tstpl	r1, r0, lsl #12
    1920:	97300305 	ldrls	r0, [r0, -r5, lsl #6]!
    1924:	01160000 	tsteq	r6, r0
    1928:	80030550 	andhi	r0, r3, r0, asr r5
    192c:	00000097 	muleq	r0, r7, r0
    1930:	008b5814 	addeq	r5, fp, r4, lsl r8
    1934:	00067d00 	andeq	r7, r6, r0, lsl #26
    1938:	8bc81400 	blhi	ff206940 <__bss_end__+0xff1fcd28>
    193c:	06600000 	strbteq	r0, [r0], -r0
    1940:	dc150000 	ldcle	0, cr0, [r5], {-0}
    1944:	6700008b 	strvs	r0, [r0, -fp, lsl #1]
    1948:	f4000006 	vst4.8	{d0-d3}, [r0], r6
    194c:	16000004 	strne	r0, [r0], -r4
    1950:	08025301 	stmdaeq	r2, {r0, r8, r9, ip, lr}
    1954:	52011698 	andpl	r1, r1, #152, 12	; 0x9800000
    1958:	97100305 	ldrls	r0, [r0, -r5, lsl #6]
    195c:	01160000 	tsteq	r6, r0
    1960:	30030551 	andcc	r0, r3, r1, asr r5
    1964:	16000097 			; <UNDEFINED> instruction: 0x16000097
    1968:	03055001 	movweq	r5, #20481	; 0x5001
    196c:	0000979c 	muleq	r0, ip, r7
    1970:	8be01400 	blhi	ff806978 <__bss_end__+0xff7fcd60>
    1974:	067d0000 	ldrbteq	r0, [sp], -r0
    1978:	04150000 	ldreq	r0, [r5], #-0
    197c:	9c00008c 	stcls	0, cr0, [r0], {140}	; 0x8c
    1980:	2a000001 	bcs	198c <_start-0x6674>
    1984:	16000005 	strne	r0, [r0], -r5
    1988:	08025201 	stmdaeq	r2, {r0, r9, ip, lr}
    198c:	51011680 	smlabbpl	r1, r0, r6, r1
    1990:	7ed09103 	atnvcs	f1, f3
    1994:	01500116 	cmpeq	r0, r6, lsl r1
    1998:	7d02163a 	stcvc	6, cr1, [r2, #-232]	; 0xffffff18
    199c:	16310104 	ldrtne	r0, [r1], -r4, lsl #2
    19a0:	02007d02 	andeq	r7, r0, #2, 26	; 0x80
    19a4:	15000077 	strne	r0, [r0, #-119]	; 0x77
    19a8:	00008c28 	andeq	r8, r0, r8, lsr #24
    19ac:	0000019c 	muleq	r0, ip, r1
    19b0:	00000558 	andeq	r0, r0, r8, asr r5
    19b4:	02520116 	subseq	r0, r2, #-2147483643	; 0x80000005
    19b8:	01168008 	tsteq	r6, r8
    19bc:	d0910351 	addsle	r0, r1, r1, asr r3
    19c0:	5001167e 	andpl	r1, r1, lr, ror r6
    19c4:	02163a01 	andseq	r3, r6, #4096	; 0x1000
    19c8:	7b02047d 	blvc	82bc4 <__bss_end__+0x78fac>
    19cc:	7d021600 	stcvc	6, cr1, [r2, #-0]
    19d0:	00770200 	rsbseq	r0, r7, r0, lsl #4
    19d4:	8c4c1500 	cfstr64hi	mvdx1, [ip], {-0}
    19d8:	019c0000 	orrseq	r0, ip, r0
    19dc:	05860000 	streq	r0, [r6]
    19e0:	01160000 	tsteq	r6, r0
    19e4:	80080252 	andhi	r0, r8, r2, asr r2
    19e8:	03510116 	cmpeq	r1, #-2147483643	; 0x80000005
    19ec:	167ed091 			; <UNDEFINED> instruction: 0x167ed091
    19f0:	40015001 	andmi	r5, r1, r1
    19f4:	047d0216 	ldrbteq	r0, [sp], #-534	; 0x216
    19f8:	16007b02 	strne	r7, [r0], -r2, lsl #22
    19fc:	02007d02 	andeq	r7, r0, #2, 26	; 0x80
    1a00:	15000077 	strne	r0, [r0, #-119]	; 0x77
    1a04:	00008c70 	andeq	r8, r0, r0, ror ip
    1a08:	0000019c 	muleq	r0, ip, r1
    1a0c:	000005b4 			; <UNDEFINED> instruction: 0x000005b4
    1a10:	02520116 	subseq	r0, r2, #-2147483643	; 0x80000005
    1a14:	01168008 	tsteq	r6, r8
    1a18:	d0910351 	addsle	r0, r1, r1, asr r3
    1a1c:	5001167e 	andpl	r1, r1, lr, ror r6
    1a20:	02163201 	andseq	r3, r6, #268435456	; 0x10000000
    1a24:	7b02047d 	blvc	82c20 <__bss_end__+0x79008>
    1a28:	7d021600 	stcvc	6, cr1, [r2, #-0]
    1a2c:	00770200 	rsbseq	r0, r7, r0, lsl #4
    1a30:	8ca01500 	cfstr32hi	mvfx1, [r0]
    1a34:	019c0000 	orrseq	r0, ip, r0
    1a38:	05e20000 	strbeq	r0, [r2, #0]!
    1a3c:	01160000 	tsteq	r6, r0
    1a40:	80080252 	andhi	r0, r8, r2, asr r2
    1a44:	03510116 	cmpeq	r1, #-2147483643	; 0x80000005
    1a48:	167ed091 			; <UNDEFINED> instruction: 0x167ed091
    1a4c:	38015001 	stmdacc	r1, {r0, ip, lr}
    1a50:	047d0216 	ldrbteq	r0, [sp], #-534	; 0x216
    1a54:	16007b02 	strne	r7, [r0], -r2, lsl #22
    1a58:	02007d02 	andeq	r7, r0, #2, 26	; 0x80
    1a5c:	14000077 	strne	r0, [r0], #-119	; 0x77
    1a60:	00008ca8 	andeq	r8, r0, r8, lsr #25
    1a64:	00000660 	andeq	r0, r0, r0, ror #12
    1a68:	008cc415 	addeq	ip, ip, r5, lsl r4
    1a6c:	00066700 	andeq	r6, r6, r0, lsl #14
    1a70:	00061a00 	andeq	r1, r6, r0, lsl #20
    1a74:	53011600 	movwpl	r1, #5632	; 0x1600
    1a78:	16b90802 	ldrtne	r0, [r9], r2, lsl #16
    1a7c:	03055201 	movweq	r5, #20993	; 0x5201
    1a80:	00009710 	andeq	r9, r0, r0, lsl r7
    1a84:	05510116 	ldrbeq	r0, [r1, #-278]	; 0x116
    1a88:	00973003 	addseq	r3, r7, r3
    1a8c:	50011600 	andpl	r1, r1, r0, lsl #12
    1a90:	97c40305 	strbls	r0, [r4, r5, lsl #6]
    1a94:	14000000 	strne	r0, [r0], #-0
    1a98:	00008cc8 	andeq	r8, r0, r8, asr #25
    1a9c:	0000067d 	andeq	r0, r0, sp, ror r6
    1aa0:	7a180000 	bvc	601aa8 <__bss_end__+0x5f7e90>
    1aa4:	35000000 	strcc	r0, [r0, #-0]
    1aa8:	19000006 	stmdbne	r0, {r1, r2}
    1aac:	0000006b 	andeq	r0, r0, fp, rrx
    1ab0:	25060009 	strcs	r0, [r6, #-9]
    1ab4:	18000006 	stmdane	r0, {r1, r2}
    1ab8:	0000007a 	andeq	r0, r0, sl, ror r0
    1abc:	0000064a 	andeq	r0, r0, sl, asr #12
    1ac0:	00006b19 	andeq	r6, r0, r9, lsl fp
    1ac4:	1f007f00 	svcne	0x00007f00
    1ac8:	00000383 	andeq	r0, r0, r3, lsl #7
    1acc:	038b1d03 	orreq	r1, fp, #3, 26	; 0xc0
    1ad0:	c01f0000 	andsgt	r0, pc, r0
    1ad4:	03000003 	movweq	r0, #3
    1ad8:	0003a022 	andeq	sl, r3, r2, lsr #32
    1adc:	01112000 	tsteq	r1, r0
    1ae0:	1e030000 	cdpne	0, 0, cr0, cr3, cr0, {0}
    1ae4:	00030921 	andeq	r0, r3, r1, lsr #18
    1ae8:	25290300 	strcs	r0, [r9, #-768]!	; 0x300
    1aec:	7d000000 	stcvc	0, cr0, [r0, #-0]
    1af0:	1c000006 	stcne	0, cr0, [r0], {6}
    1af4:	00000081 	andeq	r0, r0, r1, lsl #1
    1af8:	7a200022 	bvc	801b88 <__bss_end__+0x7f7f70>
    1afc:	03000001 	movweq	r0, #1
    1b00:	00b80066 	adcseq	r0, r8, r6, rrx
    1b04:	00040000 	andeq	r0, r4, r0
    1b08:	00000750 	andeq	r0, r0, r0, asr r7
    1b0c:	02af0104 	adceq	r0, pc, #4, 2
    1b10:	32010000 	andcc	r0, r1, #0
    1b14:	1a000004 	bne	1b2c <_start-0x64d4>
    1b18:	30000003 	andcc	r0, r0, r3
    1b1c:	2000008d 	andcs	r0, r0, sp, lsl #1
    1b20:	aa000000 	bge	1b28 <_start-0x64d8>
    1b24:	02000007 	andeq	r0, r0, #7
    1b28:	6e690504 	cdpvs	5, 6, cr0, cr9, cr4, {0}
    1b2c:	04030074 	streq	r0, [r3], #-116	; 0x74
    1b30:	00003e07 	andeq	r3, r0, r7, lsl #28
    1b34:	06010300 	streq	r0, [r1], -r0, lsl #6
    1b38:	000001fd 	strdeq	r0, [r0], -sp
    1b3c:	09050203 	stmdbeq	r5, {r0, r1, r9}
    1b40:	03000002 	movweq	r0, #2
    1b44:	00610504 	rsbeq	r0, r1, r4, lsl #10
    1b48:	08030000 	stmdaeq	r3, {}	; <UNPREDICTABLE>
    1b4c:	00005c05 	andeq	r5, r0, r5, lsl #24
    1b50:	08010300 	stmdaeq	r1, {r8, r9}
    1b54:	000001fb 	strdeq	r0, [r0], -fp
    1b58:	55070203 	strpl	r0, [r7, #-515]	; 0x203
    1b5c:	03000001 	movweq	r0, #1
    1b60:	00390704 	eorseq	r0, r9, r4, lsl #14
    1b64:	08030000 	stmdaeq	r3, {}	; <UNPREDICTABLE>
    1b68:	00003407 	andeq	r3, r0, r7, lsl #8
    1b6c:	07040300 	streq	r0, [r4, -r0, lsl #6]
    1b70:	00000187 	andeq	r0, r0, r7, lsl #3
    1b74:	04080103 	streq	r0, [r8], #-259	; 0x103
    1b78:	04000002 	streq	r0, [r0], #-2
    1b7c:	00000264 	andeq	r0, r0, r4, ror #4
    1b80:	8d300301 	ldchi	3, cr0, [r0, #-4]!
    1b84:	00100000 	andseq	r0, r0, r0
    1b88:	9c010000 	stcls	0, cr0, [r1], {-0}
    1b8c:	0000009c 	muleq	r0, ip, r0
    1b90:	01007205 	tsteq	r0, r5, lsl #4
    1b94:	00002c04 	andeq	r2, r0, r4, lsl #24
    1b98:	00151800 	andseq	r1, r5, r0, lsl #16
    1b9c:	24060000 	strcs	r0, [r6], #-0
    1ba0:	01000004 	tsteq	r0, r4
    1ba4:	008d400c 	addeq	r4, sp, ip
    1ba8:	00001000 	andeq	r1, r0, r0
    1bac:	059c0100 	ldreq	r0, [ip, #256]	; 0x100
    1bb0:	0d010072 	stceq	0, cr0, [r1, #-456]	; 0xfffffe38
    1bb4:	0000002c 	andeq	r0, r0, ip, lsr #32
    1bb8:	0000153c 	andeq	r1, r0, ip, lsr r5
    1bbc:	00ff0000 	rscseq	r0, pc, r0
    1bc0:	00040000 	andeq	r0, r4, r0
    1bc4:	000007bb 			; <UNDEFINED> instruction: 0x000007bb
    1bc8:	02af0104 	adceq	r0, pc, #4, 2
    1bcc:	50010000 	andpl	r0, r1, r0
    1bd0:	1a000004 	bne	1be8 <_start-0x6418>
    1bd4:	50000003 	andpl	r0, r0, r3
    1bd8:	2800008d 	stmdacs	r0, {r0, r2, r3, r7}
    1bdc:	f1000000 	cps	#0
    1be0:	02000007 	andeq	r0, r0, #7
    1be4:	6e690504 	cdpvs	5, 6, cr0, cr9, cr4, {0}
    1be8:	04030074 	streq	r0, [r3], #-116	; 0x74
    1bec:	00003e07 	andeq	r3, r0, r7, lsl #28
    1bf0:	06010300 	streq	r0, [r1], -r0, lsl #6
    1bf4:	000001fd 	strdeq	r0, [r0], -sp
    1bf8:	09050203 	stmdbeq	r5, {r0, r1, r9}
    1bfc:	03000002 	movweq	r0, #2
    1c00:	00610504 	rsbeq	r0, r1, r4, lsl #10
    1c04:	08030000 	stmdaeq	r3, {}	; <UNPREDICTABLE>
    1c08:	00005c05 	andeq	r5, r0, r5, lsl #24
    1c0c:	08010300 	stmdaeq	r1, {r8, r9}
    1c10:	000001fb 	strdeq	r0, [r0], -fp
    1c14:	55070203 	strpl	r0, [r7, #-515]	; 0x203
    1c18:	03000001 	movweq	r0, #1
    1c1c:	00390704 	eorseq	r0, r9, r4, lsl #14
    1c20:	08030000 	stmdaeq	r3, {}	; <UNPREDICTABLE>
    1c24:	00003407 	andeq	r3, r0, r7, lsl #8
    1c28:	07040300 	streq	r0, [r4, -r0, lsl #6]
    1c2c:	00000187 	andeq	r0, r0, r7, lsl #3
    1c30:	04080103 	streq	r0, [r8], #-259	; 0x103
    1c34:	04000002 	streq	r0, [r0], #-2
    1c38:	00007f04 	andeq	r7, r0, r4, lsl #30
    1c3c:	00720500 	rsbseq	r0, r2, r0, lsl #10
    1c40:	7a060000 	bvc	181c48 <__bss_end__+0x178030>
    1c44:	01000001 	tsteq	r0, r1
    1c48:	008d5004 	addeq	r5, sp, r4
    1c4c:	00002800 	andeq	r2, r0, r0, lsl #16
    1c50:	ca9c0100 	bgt	fe702058 <__bss_end__+0xfe6f8440>
    1c54:	07000000 	streq	r0, [r0, -r0]
    1c58:	00008d64 	andeq	r8, r0, r4, ror #26
    1c5c:	000000ac 	andeq	r0, r0, ip, lsr #1
    1c60:	05500108 	ldrbeq	r0, [r0, #-264]	; 0x108
    1c64:	0097fc03 	addseq	pc, r7, r3, lsl #24
    1c68:	6c090000 	stcvs	0, cr0, [r9], {-0}
    1c6c:	ea00008d 	b	1ea8 <_start-0x6158>
    1c70:	c0000000 	andgt	r0, r0, r0
    1c74:	08000000 	stmdaeq	r0, {}	; <UNPREDICTABLE>
    1c78:	08025001 	stmdaeq	r2, {r0, ip, lr}
    1c7c:	700a0064 	andvc	r0, sl, r4, rrx
    1c80:	fb00008d 	blx	1ebe <_start-0x6142>
    1c84:	00000000 	andeq	r0, r0, r0
    1c88:	0000250b 	andeq	r2, r0, fp, lsl #10
    1c8c:	0000d900 	andeq	sp, r0, r0, lsl #18
    1c90:	00790c00 	rsbseq	r0, r9, r0, lsl #24
    1c94:	0d000000 	stceq	0, cr0, [r0, #-0]
    1c98:	000003c0 	andeq	r0, r0, r0, asr #7
    1c9c:	00e42202 	rsceq	r2, r4, r2, lsl #4
    1ca0:	04040000 	streq	r0, [r4], #-0
    1ca4:	000000ca 	andeq	r0, r0, sl, asr #1
    1ca8:	0002130e 	andeq	r1, r2, lr, lsl #6
    1cac:	fb500200 	blx	14024b6 <__bss_end__+0x13f889e>
    1cb0:	0c000000 	stceq	0, cr0, [r0], {-0}
    1cb4:	0000002c 	andeq	r0, r0, ip, lsr #32
    1cb8:	04450f00 	strbeq	r0, [r5], #-3840	; 0xf00
    1cbc:	63020000 	movwvs	r0, #8192	; 0x2000
    1cc0:	0000ff00 	andeq	pc, r0, r0, lsl #30
    1cc4:	85000400 	strhi	r0, [r0, #-1024]	; 0x400
    1cc8:	04000008 	streq	r0, [r0], #-8
    1ccc:	0002af01 	andeq	sl, r2, r1, lsl #30
    1cd0:	046a0100 	strbteq	r0, [sl], #-256	; 0x100
    1cd4:	031a0000 	tsteq	sl, #0
    1cd8:	8d780000 	ldclhi	0, cr0, [r8, #-0]
    1cdc:	00340000 	eorseq	r0, r4, r0
    1ce0:	08880000 	stmeq	r8, {}	; <UNPREDICTABLE>
    1ce4:	04020000 	streq	r0, [r2], #-0
    1ce8:	746e6905 	strbtvc	r6, [lr], #-2309	; 0x905
    1cec:	07040300 	streq	r0, [r4, -r0, lsl #6]
    1cf0:	0000003e 	andeq	r0, r0, lr, lsr r0
    1cf4:	fd060103 	stc2	1, cr0, [r6, #-12]
    1cf8:	03000001 	movweq	r0, #1
    1cfc:	02090502 	andeq	r0, r9, #8388608	; 0x800000
    1d00:	04030000 	streq	r0, [r3], #-0
    1d04:	00006105 	andeq	r6, r0, r5, lsl #2
    1d08:	05080300 	streq	r0, [r8, #-768]	; 0x300
    1d0c:	0000005c 	andeq	r0, r0, ip, asr r0
    1d10:	fb080103 	blx	202126 <__bss_end__+0x1f850e>
    1d14:	03000001 	movweq	r0, #1
    1d18:	01550702 	cmpeq	r5, r2, lsl #14
    1d1c:	04030000 	streq	r0, [r3], #-0
    1d20:	00003907 	andeq	r3, r0, r7, lsl #18
    1d24:	07080300 	streq	r0, [r8, -r0, lsl #6]
    1d28:	00000034 	andeq	r0, r0, r4, lsr r0
    1d2c:	87070403 	strhi	r0, [r7, -r3, lsl #8]
    1d30:	03000001 	movweq	r0, #1
    1d34:	02040801 	andeq	r0, r4, #65536	; 0x10000
    1d38:	a0040000 	andge	r0, r4, r0
    1d3c:	01000004 	tsteq	r0, r4
    1d40:	008d780d 	addeq	r7, sp, sp, lsl #16
    1d44:	00003400 	andeq	r3, r0, r0, lsl #8
    1d48:	d89c0100 	ldmle	ip, {r8}
    1d4c:	05000000 	streq	r0, [r0, #-0]
    1d50:	0000047e 	andeq	r0, r0, lr, ror r4
    1d54:	00250e01 	eoreq	r0, r5, r1, lsl #28
    1d58:	8c050000 	stchi	0, cr0, [r5], {-0}
    1d5c:	01000004 	tsteq	r0, r4
    1d60:	0000250e 	andeq	r2, r0, lr, lsl #10
    1d64:	00930600 	addseq	r0, r3, r0, lsl #12
    1d68:	0f010000 	svceq	0x00010000
    1d6c:	73736207 	cmnvc	r3, #1879048192	; 0x70000000
    1d70:	d8110100 	ldmdale	r1, {r8}
    1d74:	60000000 	andvs	r0, r0, r0
    1d78:	08000015 	stmdaeq	r0, {r0, r2, r4}
    1d7c:	00000498 	muleq	r0, r8, r4
    1d80:	00d81201 	sbcseq	r1, r8, r1, lsl #4
    1d84:	a0090000 	andge	r0, r9, r0
    1d88:	f400008d 	vst4.32	{d0-d3}, [r0]!
    1d8c:	09000000 	stmdbeq	r0, {}	; <UNPREDICTABLE>
    1d90:	00008da4 	andeq	r8, r0, r4, lsr #27
    1d94:	000000fb 	strdeq	r0, [r0], -fp
    1d98:	25040a00 	strcs	r0, [r4, #-2560]	; 0xa00
    1d9c:	05000000 	streq	r0, [r0, #-0]
    1da0:	0000047e 	andeq	r0, r0, lr, ror r4
    1da4:	00250e01 	eoreq	r0, r5, r1, lsl #28
    1da8:	8c050000 	stchi	0, cr0, [r5], {-0}
    1dac:	01000004 	tsteq	r0, r4
    1db0:	0000250e 	andeq	r2, r0, lr, lsl #10
    1db4:	00930600 	addseq	r0, r3, r0, lsl #12
    1db8:	d8020000 	stmdale	r2, {}	; <UNPREDICTABLE>
    1dbc:	00044506 	andeq	r4, r4, r6, lsl #10
    1dc0:	00630200 	rsbeq	r0, r3, r0, lsl #4
    1dc4:	000001ad 	andeq	r0, r0, sp, lsr #3
    1dc8:	09190004 	ldmdbeq	r9, {r2}
    1dcc:	01040000 	mrseq	r0, (UNDEF: 4)
    1dd0:	000002af 	andeq	r0, r0, pc, lsr #5
    1dd4:	0004c201 	andeq	ip, r4, r1, lsl #4
    1dd8:	00031a00 	andeq	r1, r3, r0, lsl #20
    1ddc:	00062800 	andeq	r2, r6, r0, lsl #16
    1de0:	00000000 	andeq	r0, r0, r0
    1de4:	00092600 	andeq	r2, r9, r0, lsl #12
    1de8:	05040200 	streq	r0, [r4, #-512]	; 0x200
    1dec:	00746e69 	rsbseq	r6, r4, r9, ror #28
    1df0:	3e070403 	cdpcc	4, 0, cr0, cr7, cr3, {0}
    1df4:	03000000 	movweq	r0, #0
    1df8:	01fd0601 	mvnseq	r0, r1, lsl #12
    1dfc:	02030000 	andeq	r0, r3, #0
    1e00:	00020905 	andeq	r0, r2, r5, lsl #18
    1e04:	05040300 	streq	r0, [r4, #-768]	; 0x300
    1e08:	00000061 	andeq	r0, r0, r1, rrx
    1e0c:	5c050803 	stcpl	8, cr0, [r5], {3}
    1e10:	03000000 	movweq	r0, #0
    1e14:	01fb0801 	mvnseq	r0, r1, lsl #16
    1e18:	02030000 	andeq	r0, r3, #0
    1e1c:	00015507 	andeq	r5, r1, r7, lsl #10
    1e20:	07040300 	streq	r0, [r4, -r0, lsl #6]
    1e24:	00000039 	andeq	r0, r0, r9, lsr r0
    1e28:	34070803 	strcc	r0, [r7], #-2051	; 0x803
    1e2c:	03000000 	movweq	r0, #0
    1e30:	01870704 	orreq	r0, r7, r4, lsl #14
    1e34:	01030000 	mrseq	r0, (UNDEF: 3)
    1e38:	00020408 	andeq	r0, r2, r8, lsl #8
    1e3c:	04a80400 	strteq	r0, [r8], #1024	; 0x400
    1e40:	0e010000 	cdpeq	0, 0, cr0, cr1, cr0, {0}
    1e44:	00000025 	andeq	r0, r0, r5, lsr #32
    1e48:	00008dac 	andeq	r8, r0, ip, lsr #27
    1e4c:	00000018 	andeq	r0, r0, r8, lsl r0
    1e50:	00a29c01 	adceq	r9, r2, r1, lsl #24
    1e54:	14050000 	strne	r0, [r5], #-0
    1e58:	01000005 	tsteq	r0, r5
    1e5c:	00002c0f 	andeq	r2, r0, pc, lsl #24
    1e60:	00158000 	andseq	r8, r5, r0
    1e64:	f7060000 			; <UNDEFINED> instruction: 0xf7060000
    1e68:	01000004 	tsteq	r0, r4
    1e6c:	008dc417 	addeq	ip, sp, r7, lsl r4
    1e70:	00001400 	andeq	r1, r0, r0, lsl #8
    1e74:	c79c0100 	ldrgt	r0, [ip, r0, lsl #2]
    1e78:	05000000 	streq	r0, [r0, #-0]
    1e7c:	00000514 	andeq	r0, r0, r4, lsl r5
    1e80:	002c1801 	eoreq	r1, ip, r1, lsl #16
    1e84:	159f0000 	ldrne	r0, [pc]	; 1e8c <_start-0x6174>
    1e88:	06000000 	streq	r0, [r0], -r0
    1e8c:	00000445 	andeq	r0, r0, r5, asr #8
    1e90:	8dd81f01 	ldclhi	15, cr1, [r8, #4]
    1e94:	00480000 	subeq	r0, r8, r0
    1e98:	9c010000 	stcls	0, cr0, [r1], {-0}
    1e9c:	00000177 	andeq	r0, r0, r7, ror r1
    1ea0:	00050c07 	andeq	r0, r5, r7, lsl #24
    1ea4:	772a0100 	strvc	r0, [sl, -r0, lsl #2]!
    1ea8:	1c000001 	stcne	0, cr0, [r0], {1}
    1eac:	07201000 	streq	r1, [r0, -r0]!
    1eb0:	000004ef 	andeq	r0, r0, pc, ror #9
    1eb4:	01772b01 	cmneq	r7, r1, lsl #22
    1eb8:	00240000 	eoreq	r0, r4, r0
    1ebc:	b6072010 			; <UNDEFINED> instruction: 0xb6072010
    1ec0:	01000004 	tsteq	r0, r4
    1ec4:	0001772c 	andeq	r7, r1, ip, lsr #14
    1ec8:	00000000 	andeq	r0, r0, r0
    1ecc:	04d6085a 	ldrbeq	r0, [r6], #2138	; 0x85a
    1ed0:	2d010000 	stccs	0, cr0, [r1, #-0]
    1ed4:	00000177 	andeq	r0, r0, r7, ror r1
    1ed8:	8de00920 	stclhi	9, cr0, [r0, #128]!	; 0x80
    1edc:	00790000 	rsbseq	r0, r9, r0
    1ee0:	ec090000 	stc	0, cr0, [r9], {-0}
    1ee4:	a200008d 	andge	r0, r0, #141	; 0x8d
    1ee8:	0a000000 	beq	1ef0 <_start-0x6110>
    1eec:	00008df4 	strdeq	r8, [r0], -r4
    1ef0:	0000018d 	andeq	r0, r0, sp, lsl #3
    1ef4:	0000013a 	andeq	r0, r0, sl, lsr r1
    1ef8:	0150010b 	cmpeq	r0, fp, lsl #2
    1efc:	000a004e 	andeq	r0, sl, lr, asr #32
    1f00:	9e00008e 	cdpls	0, 0, cr0, cr0, cr14, {4}
    1f04:	5a000001 	bpl	1f10 <_start-0x60f0>
    1f08:	0b000001 	bleq	1f14 <_start-0x60ec>
    1f0c:	0c055101 	stfeqs	f5, [r5], {1}
    1f10:	5a000001 	bpl	1f1c <_start-0x60e4>
    1f14:	0550010b 	ldrbeq	r0, [r0, #-267]	; 0x10b
    1f18:	1000240c 	andne	r2, r0, ip, lsl #8
    1f1c:	0c0c0020 	stceq	0, cr0, [ip], {32}
    1f20:	9e00008e 	cdpls	0, 0, cr0, cr0, cr14, {4}
    1f24:	0b000001 	bleq	1f30 <_start-0x60d0>
    1f28:	0c055101 	stfeqs	f5, [r5], {1}
    1f2c:	5a000020 	bpl	1fb4 <_start-0x604c>
    1f30:	0550010b 	ldrbeq	r0, [r0, #-267]	; 0x10b
    1f34:	10001c0c 	andne	r1, r0, ip, lsl #24
    1f38:	0d000020 	stceq	0, cr0, [r0, #-128]	; 0xffffff80
    1f3c:	00000025 	andeq	r0, r0, r5, lsr #32
    1f40:	0004ab08 	andeq	sl, r4, r8, lsl #22
    1f44:	880d0100 	stmdahi	sp, {r8}
    1f48:	10000001 	andne	r0, r0, r1
    1f4c:	00002c0d 	andeq	r2, r0, sp, lsl #24
    1f50:	02130e00 	andseq	r0, r3, #0, 28
    1f54:	50020000 	andpl	r0, r2, r0
    1f58:	0000019e 	muleq	r0, lr, r1
    1f5c:	00002c0f 	andeq	r2, r0, pc, lsl #24
    1f60:	06100000 	ldreq	r0, [r0], -r0
    1f64:	02000005 	andeq	r0, r0, #5
    1f68:	002c0f9c 	mlaeq	ip, ip, pc, r0	; <UNPREDICTABLE>
    1f6c:	2c0f0000 	stccs	0, cr0, [pc], {-0}
    1f70:	00000000 	andeq	r0, r0, r0
    1f74:	0001d800 	andeq	sp, r1, r0, lsl #16
    1f78:	07000400 	streq	r0, [r0, -r0, lsl #8]
    1f7c:	0400000a 	streq	r0, [r0], #-10
    1f80:	0002af01 	andeq	sl, r2, r1, lsl #30
    1f84:	05360100 	ldreq	r0, [r6, #-256]!	; 0x100
    1f88:	031a0000 	tsteq	sl, #0
    1f8c:	8e200000 	cdphi	0, 2, cr0, cr0, cr0, {0}
    1f90:	00880000 	addeq	r0, r8, r0
    1f94:	09c30000 	stmibeq	r3, {}^	; <UNPREDICTABLE>
    1f98:	04020000 	streq	r0, [r2], #-0
    1f9c:	746e6905 	strbtvc	r6, [lr], #-2309	; 0x905
    1fa0:	07040300 	streq	r0, [r4, -r0, lsl #6]
    1fa4:	0000003e 	andeq	r0, r0, lr, lsr r0
    1fa8:	fd060103 	stc2	1, cr0, [r6, #-12]
    1fac:	03000001 	movweq	r0, #1
    1fb0:	02090502 	andeq	r0, r9, #8388608	; 0x800000
    1fb4:	04030000 	streq	r0, [r3], #-0
    1fb8:	00006105 	andeq	r6, r0, r5, lsl #2
    1fbc:	05080300 	streq	r0, [r8, #-768]	; 0x300
    1fc0:	0000005c 	andeq	r0, r0, ip, asr r0
    1fc4:	fb080103 	blx	2023da <__bss_end__+0x1f87c2>
    1fc8:	03000001 	movweq	r0, #1
    1fcc:	01550702 	cmpeq	r5, r2, lsl #14
    1fd0:	04030000 	streq	r0, [r3], #-0
    1fd4:	00003907 	andeq	r3, r0, r7, lsl #18
    1fd8:	07080300 	streq	r0, [r8, -r0, lsl #6]
    1fdc:	00000034 	andeq	r0, r0, r4, lsr r0
    1fe0:	87070403 	strhi	r0, [r7, -r3, lsl #8]
    1fe4:	03000001 	movweq	r0, #1
    1fe8:	02040801 	andeq	r0, r4, #65536	; 0x10000
    1fec:	55040000 	strpl	r0, [r4, #-0]
    1ff0:	01000005 	tsteq	r0, r5
    1ff4:	008e2005 	addeq	r2, lr, r5
    1ff8:	00001c00 	andeq	r1, r0, r0, lsl #24
    1ffc:	9e9c0100 	fmllse	f0, f4, f0
    2000:	05000000 	streq	r0, [r0, #-0]
    2004:	0000054f 	andeq	r0, r0, pc, asr #10
    2008:	002c0501 	eoreq	r0, ip, r1, lsl #10
    200c:	15c90000 	strbne	r0, [r9]
    2010:	06000000 	streq	r0, [r0], -r0
    2014:	00000519 	andeq	r0, r0, r9, lsl r5
    2018:	002c1101 	eoreq	r1, ip, r1, lsl #2
    201c:	8e3c0000 	cdphi	0, 3, cr0, cr12, cr0, {0}
    2020:	00140000 	andseq	r0, r4, r0
    2024:	9c010000 	stcls	0, cr0, [r1], {-0}
    2028:	000000cb 	andeq	r0, r0, fp, asr #1
    202c:	008e4807 	addeq	r4, lr, r7, lsl #16
    2030:	0001ca00 	andeq	ip, r1, r0, lsl #20
    2034:	50010800 	andpl	r0, r1, r0, lsl #16
    2038:	30040c05 	andcc	r0, r4, r5, lsl #24
    203c:	00002000 	andeq	r2, r0, r0
    2040:	00056b06 	andeq	r6, r5, r6, lsl #22
    2044:	2c160100 	ldfcss	f0, [r6], {-0}
    2048:	50000000 	andpl	r0, r0, r0
    204c:	0c00008e 	stceq	0, cr0, [r0], {142}	; 0x8e
    2050:	01000000 	mrseq	r0, (UNDEF: 0)
    2054:	0000f99c 	muleq	r0, ip, r9
    2058:	00750900 	rsbseq	r0, r5, r0, lsl #18
    205c:	002c1a01 	eoreq	r1, ip, r1, lsl #20
    2060:	50010000 	andpl	r0, r1, r0
    2064:	008e580a 	addeq	r5, lr, sl, lsl #16
    2068:	00009e00 	andeq	r9, r0, r0, lsl #28
    206c:	62040000 	andvs	r0, r4, #0
    2070:	01000005 	tsteq	r0, r5
    2074:	008e5c1f 	addeq	r5, lr, pc, lsl ip
    2078:	00002400 	andeq	r2, r0, r0, lsl #8
    207c:	579c0100 	ldrpl	r0, [ip, r0, lsl #2]
    2080:	0b000001 	bleq	208c <_start-0x5f74>
    2084:	01007375 	tsteq	r0, r5, ror r3
    2088:	00002c1f 	andeq	r2, r0, pc, lsl ip
    208c:	0015fd00 	andseq	pc, r5, r0, lsl #26
    2090:	62720900 	rsbsvs	r0, r2, #0, 18
    2094:	2c200100 	stfcss	f0, [r0], #-0
    2098:	01000000 	mrseq	r0, (UNDEF: 0)
    209c:	8e6c0c54 	mcrhi	12, 3, r0, cr12, cr4, {2}
    20a0:	00100000 	andseq	r0, r0, r0
    20a4:	014d0000 	mrseq	r0, (UNDEF: 77)
    20a8:	720d0000 	andvc	r0, sp, #0
    20ac:	22010061 	andcs	r0, r1, #97	; 0x61
    20b0:	0000002c 	andeq	r0, r0, ip, lsr #32
    20b4:	0000161b 	andeq	r1, r0, fp, lsl r6
    20b8:	008e700a 	addeq	r7, lr, sl
    20bc:	0000cb00 	andeq	ip, r0, r0, lsl #22
    20c0:	680a0000 	stmdavs	sl, {}	; <UNPREDICTABLE>
    20c4:	cb00008e 	blgt	2304 <_start-0x5cfc>
    20c8:	00000000 	andeq	r0, r0, r0
    20cc:	00021304 	andeq	r1, r2, r4, lsl #6
    20d0:	80280100 	eorhi	r0, r8, r0, lsl #2
    20d4:	1400008e 	strne	r0, [r0], #-142	; 0x8e
    20d8:	01000000 	mrseq	r0, (UNDEF: 0)
    20dc:	0001909c 	muleq	r1, ip, r0
    20e0:	736d0b00 	cmnvc	sp, #0, 22
    20e4:	2c280100 	stfcss	f0, [r8], #-0
    20e8:	2e000000 	cdpcs	0, 0, cr0, cr0, cr0, {0}
    20ec:	07000016 	smladeq	r0, r6, r0, r0
    20f0:	00008e90 	muleq	r0, r0, lr
    20f4:	000000f9 	strdeq	r0, [r0], -r9
    20f8:	07500108 	ldrbeq	r0, [r0, -r8, lsl #2]
    20fc:	0a5001f3 	beq	14028d0 <__bss_end__+0x13f8cb8>
    2100:	001e03e8 	andseq	r0, lr, r8, ror #7
    2104:	052c0400 	streq	r0, [ip, #-1024]!	; 0x400
    2108:	2b010000 	blcs	42110 <__bss_end__+0x384f8>
    210c:	00008e94 	muleq	r0, r4, lr
    2110:	00000014 	andeq	r0, r0, r4, lsl r0
    2114:	01ca9c01 	biceq	r9, sl, r1, lsl #24
    2118:	730b0000 	movwvc	r0, #45056	; 0xb000
    211c:	01006365 	tsteq	r0, r5, ror #6
    2120:	00002c2b 	andeq	r2, r0, fp, lsr #24
    2124:	00164f00 	andseq	r4, r6, r0, lsl #30
    2128:	8ea40700 	cdphi	7, 10, cr0, cr4, cr0, {0}
    212c:	01570000 	cmpeq	r7, r0
    2130:	01080000 	mrseq	r0, (UNDEF: 8)
    2134:	01f30750 	mvnseq	r0, r0, asr r7
    2138:	03e80a50 	mvneq	r0, #80, 20	; 0x50000
    213c:	0e00001e 	mcreq	0, 0, r0, cr0, cr14, {0}
    2140:	00000549 	andeq	r0, r0, r9, asr #10
    2144:	002ca802 	eoreq	sl, ip, r2, lsl #16
    2148:	2c0f0000 	stccs	0, cr0, [pc], {-0}
    214c:	00000000 	andeq	r0, r0, r0
    2150:	00088200 	andeq	r8, r8, r0, lsl #4
    2154:	ea000400 	b	315c <_start-0x4ea4>
    2158:	0400000a 	streq	r0, [r0], #-10
    215c:	0002af01 	andeq	sl, r2, r1, lsl #30
    2160:	05ae0100 	streq	r0, [lr, #256]!	; 0x100
    2164:	031a0000 	tsteq	sl, #0
    2168:	8ea80000 	cdphi	0, 10, cr0, cr8, cr0, {0}
    216c:	05a00000 	streq	r0, [r0, #0]!
    2170:	0a6a0000 	beq	1a82178 <__bss_end__+0x1a78560>
    2174:	08020000 	stmdaeq	r2, {}	; <UNPREDICTABLE>
    2178:	00003407 	andeq	r3, r0, r7, lsl #8
    217c:	07040200 	streq	r0, [r4, -r0, lsl #4]
    2180:	0000003e 	andeq	r0, r0, lr, lsr r0
    2184:	fd060102 	stc2	1, cr0, [r6, #-8]
    2188:	02000001 	andeq	r0, r0, #1
    218c:	02090502 	andeq	r0, r9, #8388608	; 0x800000
    2190:	04020000 	streq	r0, [r2], #-0
    2194:	00006105 	andeq	r6, r0, r5, lsl #2
    2198:	05080200 	streq	r0, [r8, #-512]	; 0x200
    219c:	0000005c 	andeq	r0, r0, ip, asr r0
    21a0:	fb080102 	blx	2025b2 <__bss_end__+0x1f899a>
    21a4:	02000001 	andeq	r0, r0, #1
    21a8:	01550702 	cmpeq	r5, r2, lsl #14
    21ac:	04020000 	streq	r0, [r2], #-0
    21b0:	00003907 	andeq	r3, r0, r7, lsl #18
    21b4:	05040300 	streq	r0, [r4, #-768]	; 0x300
    21b8:	00746e69 	rsbseq	r6, r4, r9, ror #28
    21bc:	87070402 	strhi	r0, [r7, -r2, lsl #8]
    21c0:	02000001 	andeq	r0, r0, #1
    21c4:	02040801 	andeq	r0, r4, #65536	; 0x10000
    21c8:	01040000 	mrseq	r0, (UNDEF: 4)
    21cc:	00b20c02 	adcseq	r0, r2, r2, lsl #24
    21d0:	c0050000 	andgt	r0, r5, r0
    21d4:	00000005 	andeq	r0, r0, r5
    21d8:	00069805 	andeq	r9, r6, r5, lsl #16
    21dc:	d1050100 	mrsle	r0, (UNDEF: 21)
    21e0:	04000006 	streq	r0, [r0], #-6
    21e4:	0006e005 	andeq	lr, r6, r5
    21e8:	ef050500 	svc	0x00050500
    21ec:	06000006 	streq	r0, [r0], -r6
    21f0:	0006fe05 	andeq	pc, r6, r5, lsl #28
    21f4:	0d050700 	stceq	7, cr0, [r5, #-0]
    21f8:	03000007 	movweq	r0, #7
    21fc:	00071c05 	andeq	r1, r7, r5, lsl #24
    2200:	06000200 	streq	r0, [r0], -r0, lsl #4
    2204:	000006c5 	andeq	r0, r0, r5, asr #13
    2208:	00791502 	rsbseq	r1, r9, r2, lsl #10
    220c:	54070000 	strpl	r0, [r7], #-0
    2210:	01000002 	tsteq	r0, r2
    2214:	008ea83f 	addeq	sl, lr, pc, lsr r8
    2218:	0000d400 	andeq	sp, r0, r0, lsl #8
    221c:	339c0100 	orrscc	r0, ip, #0, 2
    2220:	08000001 	stmdaeq	r0, {r0}
    2224:	006e6970 	rsbeq	r6, lr, r0, ror r9
    2228:	002c3f01 	eoreq	r3, ip, r1, lsl #30
    222c:	16700000 	ldrbtne	r0, [r0], -r0
    2230:	e2090000 	and	r0, r9, #0
    2234:	01000005 	tsteq	r0, r5
    2238:	00013347 	andeq	r3, r1, r7, asr #6
    223c:	00168e00 	andseq	r8, r6, r0, lsl #28
    2240:	072b0900 	streq	r0, [fp, -r0, lsl #18]!
    2244:	49010000 	stmdbmi	r1, {}	; <UNPREDICTABLE>
    2248:	0000002c 	andeq	r0, r0, ip, lsr #32
    224c:	000016e3 	andeq	r1, r0, r3, ror #13
    2250:	00066309 	andeq	r6, r6, r9, lsl #6
    2254:	2c570100 	ldfcse	f0, [r7], {-0}
    2258:	af000000 	svcge	0x00000000
    225c:	0a000018 	beq	22c4 <_start-0x5d3c>
    2260:	00008f3c 	andeq	r8, r0, ip, lsr pc
    2264:	00000841 	andeq	r0, r0, r1, asr #16
    2268:	00000122 	andeq	r0, r0, r2, lsr #2
    226c:	0250010b 	subseq	r0, r0, #-1073741822	; 0xc0000002
    2270:	0c000075 	stceq	0, cr0, [r0], {117}	; 0x75
    2274:	00008f70 	andeq	r8, r0, r0, ror pc
    2278:	00000862 	andeq	r0, r0, r2, ror #16
    227c:	0250010b 	subseq	r0, r0, #-1073741822	; 0xc0000002
    2280:	00000075 	andeq	r0, r0, r5, ror r0
    2284:	0139040d 	teqeq	r9, sp, lsl #8
    2288:	2c0e0000 	stccs	0, cr0, [lr], {-0}
    228c:	07000000 	streq	r0, [r0, -r0]
    2290:	00000050 	andeq	r0, r0, r0, asr r0
    2294:	8f7c6001 	svchi	0x007c6001
    2298:	00380000 	eorseq	r0, r8, r0
    229c:	9c010000 	stcls	0, cr0, [r1], {-0}
    22a0:	00000196 	muleq	r0, r6, r1
    22a4:	6e697008 	cdpvs	0, 6, cr7, cr9, cr8, {0}
    22a8:	2c600100 	stfcse	f0, [r0], #-0
    22ac:	df000000 	svcle	0x00000000
    22b0:	09000018 	stmdbeq	r0, {r3, r4}
    22b4:	000005e2 	andeq	r0, r0, r2, ror #11
    22b8:	01336701 	teqeq	r3, r1, lsl #14
    22bc:	19000000 	stmdbne	r0, {}	; <UNPREDICTABLE>
    22c0:	63090000 	movwvs	r0, #36864	; 0x9000
    22c4:	01000006 	tsteq	r0, r6
    22c8:	00002c68 	andeq	r2, r0, r8, ror #24
    22cc:	00193600 	andseq	r3, r9, r0, lsl #12
    22d0:	8fac0c00 	svchi	0x00ac0c00
    22d4:	08620000 	stmdaeq	r2!, {}^	; <UNPREDICTABLE>
    22d8:	010b0000 	mrseq	r0, (UNDEF: 11)
    22dc:	f3310751 	vaba.u<illegal width 64>	q0, <illegal reg q0.5>, <illegal reg q0.5>
    22e0:	1a4f5001 	bne	13d62ec <__bss_end__+0x13cc6d4>
    22e4:	07000024 	streq	r0, [r0, -r4, lsr #32]
    22e8:	000000a0 	andeq	r0, r0, r0, lsr #1
    22ec:	8fb47b01 	svchi	0x00b47b01
    22f0:	00380000 	eorseq	r0, r8, r0
    22f4:	9c010000 	stcls	0, cr0, [r1], {-0}
    22f8:	000001ee 	andeq	r0, r0, lr, ror #3
    22fc:	6e697008 	cdpvs	0, 6, cr7, cr9, cr8, {0}
    2300:	2c7b0100 	ldfcse	f0, [fp], #-0
    2304:	76000000 	strvc	r0, [r0], -r0
    2308:	09000019 	stmdbeq	r0, {r0, r3, r4}
    230c:	000005e2 	andeq	r0, r0, r2, ror #11
    2310:	01338101 	teqeq	r3, r1, lsl #2
    2314:	19970000 	ldmibne	r7, {}	; <UNPREDICTABLE>
    2318:	63090000 	movwvs	r0, #36864	; 0x9000
    231c:	01000006 	tsteq	r0, r6
    2320:	00002c82 	andeq	r2, r0, r2, lsl #25
    2324:	0019cd00 	andseq	ip, r9, r0, lsl #26
    2328:	8fe40c00 	svchi	0x00e40c00
    232c:	08620000 	stmdaeq	r2!, {}^	; <UNPREDICTABLE>
    2330:	010b0000 	mrseq	r0, (UNDEF: 11)
    2334:	f3310751 	vaba.u<illegal width 64>	q0, <illegal reg q0.5>, <illegal reg q0.5>
    2338:	1a4f5001 	bne	13d6344 <__bss_end__+0x13cc72c>
    233c:	07000024 	streq	r0, [r0, -r4, lsr #32]
    2340:	00000240 	andeq	r0, r0, r0, asr #4
    2344:	8fec9501 	svchi	0x00ec9501
    2348:	00cc0000 	sbceq	r0, ip, r0
    234c:	9c010000 	stcls	0, cr0, [r1], {-0}
    2350:	00000264 	andeq	r0, r0, r4, ror #4
    2354:	6e697008 	cdpvs	0, 6, cr7, cr9, cr8, {0}
    2358:	2c950100 	ldfcss	f0, [r5], {0}
    235c:	0d000000 	stceq	0, cr0, [r0, #-0]
    2360:	0900001a 	stmdbeq	r0, {r1, r3, r4}
    2364:	000005e2 	andeq	r0, r0, r2, ror #11
    2368:	01339b01 	teqeq	r3, r1, lsl #22
    236c:	1a2b0000 	bne	ac2374 <__bss_end__+0xab875c>
    2370:	2b090000 	blcs	242378 <__bss_end__+0x238760>
    2374:	01000007 	tsteq	r0, r7
    2378:	00002c9d 	muleq	r0, sp, ip
    237c:	001a8000 	andseq	r8, sl, r0
    2380:	06630900 	strbteq	r0, [r3], -r0, lsl #18
    2384:	ab010000 	blge	4238c <__bss_end__+0x38774>
    2388:	0000002c 	andeq	r0, r0, ip, lsr #32
    238c:	00001c4c 	andeq	r1, r0, ip, asr #24
    2390:	0090800a 	addseq	r8, r0, sl
    2394:	00084100 	andeq	r4, r8, r0, lsl #2
    2398:	00025300 	andeq	r5, r2, r0, lsl #6
    239c:	50010b00 	andpl	r0, r1, r0, lsl #22
    23a0:	00007502 	andeq	r7, r0, r2, lsl #10
    23a4:	0090ac0c 	addseq	sl, r0, ip, lsl #24
    23a8:	00086200 	andeq	r6, r8, r0, lsl #4
    23ac:	50010b00 	andpl	r0, r1, r0, lsl #22
    23b0:	00007502 	andeq	r7, r0, r2, lsl #10
    23b4:	05f70f00 	ldrbeq	r0, [r7, #3840]!	; 0xf00
    23b8:	b2010000 	andlt	r0, r1, #0
    23bc:	00000064 	andeq	r0, r0, r4, rrx
    23c0:	000090b8 	strheq	r9, [r0], -r8
    23c4:	0000004c 	andeq	r0, r0, ip, asr #32
    23c8:	02ac9c01 	adceq	r9, ip, #256	; 0x100
    23cc:	70080000 	andvc	r0, r8, r0
    23d0:	01006e69 	tsteq	r0, r9, ror #28
    23d4:	00002cb2 			; <UNDEFINED> instruction: 0x00002cb2
    23d8:	001c6a00 	andseq	r6, ip, r0, lsl #20
    23dc:	00761000 	rsbseq	r1, r6, r0
    23e0:	002cb801 	eoreq	fp, ip, r1, lsl #16
    23e4:	1cc20000 	stclne	0, cr0, [r2], {0}
    23e8:	d8110000 	ldmdale	r1, {}	; <UNPREDICTABLE>
    23ec:	41000090 	swpmi	r0, r0, [r0]	; <UNPREDICTABLE>
    23f0:	11000008 	tstne	r0, r8
    23f4:	000090e8 	andeq	r9, r0, r8, ror #1
    23f8:	00000841 	andeq	r0, r0, r1, asr #16
    23fc:	001e0700 	andseq	r0, lr, r0, lsl #14
    2400:	c4010000 	strgt	r0, [r1], #-0
    2404:	00009104 	andeq	r9, r0, r4, lsl #2
    2408:	00000024 	andeq	r0, r0, r4, lsr #32
    240c:	02fc9c01 	rscseq	r9, ip, #256	; 0x100
    2410:	70080000 	andvc	r0, r8, r0
    2414:	01006e69 	tsteq	r0, r9, ror #28
    2418:	00002cc4 	andeq	r2, r0, r4, asr #25
    241c:	001cf800 	andseq	pc, ip, r0, lsl #16
    2420:	00760800 	rsbseq	r0, r6, r0, lsl #16
    2424:	002cc401 	eoreq	ip, ip, r1, lsl #8
    2428:	1d320000 	ldcne	0, cr0, [r2, #-0]
    242c:	1c0a0000 	stcne	0, cr0, [sl], {-0}
    2430:	3e000091 	mcrcc	0, 0, r0, cr0, cr1, {4}
    2434:	f2000001 	vhadd.s8	d0, d0, d1
    2438:	0b000002 	bleq	2448 <_start-0x5bb8>
    243c:	f3035001 	vhadd.u8	d5, d3, d1
    2440:	11005001 	tstne	r0, r1
    2444:	00009124 	andeq	r9, r0, r4, lsr #2
    2448:	00000196 	muleq	r0, r6, r1
    244c:	06160700 	ldreq	r0, [r6], -r0, lsl #14
    2450:	d0010000 	andle	r0, r1, r0
    2454:	00009128 	andeq	r9, r0, r8, lsr #2
    2458:	000000d8 	ldrdeq	r0, [r0], -r8
    245c:	03819c01 	orreq	r9, r1, #256	; 0x100
    2460:	70080000 	andvc	r0, r8, r0
    2464:	01006e69 	tsteq	r0, r9, ror #28
    2468:	00002cd0 	ldrdeq	r2, [r0], -r0
    246c:	001d6c00 	andseq	r6, sp, r0, lsl #24
    2470:	066b1200 	strbteq	r1, [fp], -r0, lsl #4
    2474:	d0010000 	andle	r0, r1, r0
    2478:	000000b2 	strheq	r0, [r0], -r2
    247c:	00001d8a 	andeq	r1, r0, sl, lsl #27
    2480:	0005e209 	andeq	lr, r5, r9, lsl #4
    2484:	33d80100 	bicscc	r0, r8, #0, 2
    2488:	ab000001 	blge	2494 <_start-0x5b6c>
    248c:	0900001d 	stmdbeq	r0, {r0, r2, r3, r4}
    2490:	0000072b 	andeq	r0, r0, fp, lsr #14
    2494:	002cd901 	eoreq	sp, ip, r1, lsl #18
    2498:	1e000000 	cdpne	0, 0, cr0, cr0, cr0, {0}
    249c:	63090000 	movwvs	r0, #36864	; 0x9000
    24a0:	01000006 	tsteq	r0, r6
    24a4:	00002ce7 	andeq	r2, r0, r7, ror #25
    24a8:	001fcc00 	andseq	ip, pc, r0, lsl #24
    24ac:	91c40a00 	bicls	r0, r4, r0, lsl #20
    24b0:	08410000 	stmdaeq	r1, {}^	; <UNPREDICTABLE>
    24b4:	03700000 	cmneq	r0, #0
    24b8:	010b0000 	mrseq	r0, (UNDEF: 11)
    24bc:	00760250 	rsbseq	r0, r6, r0, asr r2
    24c0:	91f40c00 	mvnsls	r0, r0, lsl #24
    24c4:	08620000 	stmdaeq	r2!, {}^	; <UNPREDICTABLE>
    24c8:	010b0000 	mrseq	r0, (UNDEF: 11)
    24cc:	00760250 	rsbseq	r0, r6, r0, asr r2
    24d0:	70070000 	andvc	r0, r7, r0
    24d4:	01000006 	tsteq	r0, r6
    24d8:	009200f0 	ldrsheq	r0, [r2], r0	; <UNPREDICTABLE>
    24dc:	00003800 	andeq	r3, r0, r0, lsl #16
    24e0:	d99c0100 	ldmible	ip, {r8}
    24e4:	08000003 	stmdaeq	r0, {r0, r1}
    24e8:	006e6970 	rsbeq	r6, lr, r0, ror r9
    24ec:	002cf001 	eoreq	pc, ip, r1
    24f0:	1ffd0000 	svcne	0x00fd0000
    24f4:	e2090000 	and	r0, r9, #0
    24f8:	01000005 	tsteq	r0, r5
    24fc:	000133f6 	strdeq	r3, [r1], -r6
    2500:	00201e00 	eoreq	r1, r0, r0, lsl #28
    2504:	06630900 	strbteq	r0, [r3], -r0, lsl #18
    2508:	f7010000 			; <UNDEFINED> instruction: 0xf7010000
    250c:	0000002c 	andeq	r0, r0, ip, lsr #32
    2510:	00002054 	andeq	r2, r0, r4, asr r0
    2514:	0092300c 	addseq	r3, r2, ip
    2518:	00086200 	andeq	r6, r8, r0, lsl #4
    251c:	51010b00 	tstpl	r1, r0, lsl #22
    2520:	01f33107 	mvnseq	r3, r7, lsl #2
    2524:	241a4f50 	ldrcs	r4, [sl], #-3920	; 0xf50
    2528:	a2130000 	andsge	r0, r3, #0
    252c:	01000005 	tsteq	r0, r5
    2530:	0064011e 	rsbeq	r0, r4, lr, lsl r1
    2534:	92380000 	eorsls	r0, r8, #0
    2538:	002c0000 	eoreq	r0, ip, r0
    253c:	9c010000 	stcls	0, cr0, [r1], {-0}
    2540:	0000040d 	andeq	r0, r0, sp, lsl #8
    2544:	0005a514 	andeq	sl, r5, r4, lsl r5
    2548:	011e0100 	tsteq	lr, r0, lsl #2
    254c:	0000002c 	andeq	r0, r0, ip, lsr #32
    2550:	00002094 	muleq	r0, r4, r0
    2554:	00924811 	addseq	r4, r2, r1, lsl r8
    2558:	00084100 	andeq	r4, r8, r0, lsl #2
    255c:	01150000 	tsteq	r5, r0
    2560:	01000006 	tsteq	r0, r6
    2564:	9264012d 	rsbls	r0, r4, #1073741835	; 0x4000000b
    2568:	00840000 	addeq	r0, r4, r0
    256c:	9c010000 	stcls	0, cr0, [r1], {-0}
    2570:	000004d1 	ldrdeq	r0, [r0], -r1
    2574:	6e697016 	mcrvs	0, 3, r7, cr9, cr6, {0}
    2578:	012d0100 	teqeq	sp, r0, lsl #2
    257c:	0000002c 	andeq	r0, r0, ip, lsr #32
    2580:	000020b5 	strheq	r2, [r0], -r5
    2584:	0005d017 	andeq	sp, r5, r7, lsl r0
    2588:	013f0100 	teqeq	pc, r0, lsl #2
    258c:	0000002c 	andeq	r0, r0, ip, lsr #32
    2590:	000020e1 	andeq	r2, r0, r1, ror #1
    2594:	00928018 	addseq	r8, r2, r8, lsl r0
    2598:	00001c00 	andeq	r1, r0, r0, lsl #24
    259c:	00047300 	andeq	r7, r4, r0, lsl #6
    25a0:	06631700 	strbteq	r1, [r3], -r0, lsl #14
    25a4:	36010000 	strcc	r0, [r1], -r0
    25a8:	00002c01 	andeq	r2, r0, r1, lsl #24
    25ac:	0020ff00 	eoreq	pc, r0, r0, lsl #30
    25b0:	928c1100 	addls	r1, ip, #0, 2
    25b4:	08410000 	stmdaeq	r1, {}^	; <UNPREDICTABLE>
    25b8:	9c110000 	ldcls	0, cr0, [r1], {-0}
    25bc:	62000092 	andvs	r0, r0, #146	; 0x92
    25c0:	00000008 	andeq	r0, r0, r8
    25c4:	0092a018 	addseq	sl, r2, r8, lsl r0
    25c8:	00002000 	andeq	r2, r0, r0
    25cc:	0004a300 	andeq	sl, r4, r0, lsl #6
    25d0:	06631700 	strbteq	r1, [r3], -r0, lsl #14
    25d4:	3a010000 	bcc	425dc <__bss_end__+0x389c4>
    25d8:	00002c01 	andeq	r2, r0, r1, lsl #24
    25dc:	00211d00 	eoreq	r1, r1, r0, lsl #26
    25e0:	92ac1100 	adcls	r1, ip, #0, 2
    25e4:	08410000 	stmdaeq	r1, {}^	; <UNPREDICTABLE>
    25e8:	c0110000 	andsgt	r0, r1, r0
    25ec:	62000092 	andvs	r0, r0, #146	; 0x92
    25f0:	00000008 	andeq	r0, r0, r8
    25f4:	00927811 	addseq	r7, r2, r1, lsl r8
    25f8:	00087e00 	andeq	r7, r8, r0, lsl #28
    25fc:	92c41100 	sbcls	r1, r4, #0, 2
    2600:	087e0000 	ldmdaeq	lr!, {}^	; <UNPREDICTABLE>
    2604:	d0110000 	andsle	r0, r1, r0
    2608:	41000092 	swpmi	r0, r2, [r0]	; <UNPREDICTABLE>
    260c:	11000008 	tstne	r0, r8
    2610:	000092dc 	ldrdeq	r9, [r0], -ip
    2614:	00000862 	andeq	r0, r0, r2, ror #16
    2618:	0092e011 	addseq	lr, r2, r1, lsl r0
    261c:	00087e00 	andeq	r7, r8, r0, lsl #28
    2620:	af150000 	svcge	0x00150000
    2624:	01000006 	tsteq	r0, r6
    2628:	92e8014a 	rscls	r0, r8, #-2147483630	; 0x80000012
    262c:	00840000 	addeq	r0, r4, r0
    2630:	9c010000 	stcls	0, cr0, [r1], {-0}
    2634:	00000595 	muleq	r0, r5, r5
    2638:	6e697016 	mcrvs	0, 3, r7, cr9, cr6, {0}
    263c:	014a0100 	mrseq	r0, (UNDEF: 90)
    2640:	0000002c 	andeq	r0, r0, ip, lsr #32
    2644:	0000213b 	andeq	r2, r0, fp, lsr r1
    2648:	0005d017 	andeq	sp, r5, r7, lsl r0
    264c:	015b0100 	cmpeq	fp, r0, lsl #2
    2650:	0000002c 	andeq	r0, r0, ip, lsr #32
    2654:	00002167 	andeq	r2, r0, r7, ror #2
    2658:	00930418 	addseq	r0, r3, r8, lsl r4
    265c:	00001c00 	andeq	r1, r0, r0, lsl #24
    2660:	00053700 	andeq	r3, r5, r0, lsl #14
    2664:	06631700 	strbteq	r1, [r3], -r0, lsl #14
    2668:	52010000 	andpl	r0, r1, #0
    266c:	00002c01 	andeq	r2, r0, r1, lsl #24
    2670:	00218500 	eoreq	r8, r1, r0, lsl #10
    2674:	93101100 	tstls	r0, #0, 2
    2678:	08410000 	stmdaeq	r1, {}^	; <UNPREDICTABLE>
    267c:	20110000 	andscs	r0, r1, r0
    2680:	62000093 	andvs	r0, r0, #147	; 0x93
    2684:	00000008 	andeq	r0, r0, r8
    2688:	00932418 	addseq	r2, r3, r8, lsl r4
    268c:	00002000 	andeq	r2, r0, r0
    2690:	00056700 	andeq	r6, r5, r0, lsl #14
    2694:	06631700 	strbteq	r1, [r3], -r0, lsl #14
    2698:	56010000 	strpl	r0, [r1], -r0
    269c:	00002c01 	andeq	r2, r0, r1, lsl #24
    26a0:	0021a300 	eoreq	sl, r1, r0, lsl #6
    26a4:	93301100 	teqls	r0, #0, 2
    26a8:	08410000 	stmdaeq	r1, {}^	; <UNPREDICTABLE>
    26ac:	44110000 	ldrmi	r0, [r1], #-0
    26b0:	62000093 	andvs	r0, r0, #147	; 0x93
    26b4:	00000008 	andeq	r0, r0, r8
    26b8:	0092fc11 	addseq	pc, r2, r1, lsl ip	; <UNPREDICTABLE>
    26bc:	00087e00 	andeq	r7, r8, r0, lsl #28
    26c0:	93481100 	movtls	r1, #33024	; 0x8100
    26c4:	087e0000 	ldmdaeq	lr!, {}^	; <UNPREDICTABLE>
    26c8:	54110000 	ldrpl	r0, [r1], #-0
    26cc:	41000093 	swpmi	r0, r3, [r0]	; <UNPREDICTABLE>
    26d0:	11000008 	tstne	r0, r8
    26d4:	00009360 	andeq	r9, r0, r0, ror #6
    26d8:	00000862 	andeq	r0, r0, r2, ror #16
    26dc:	00936411 	addseq	r6, r3, r1, lsl r4
    26e0:	00087e00 	andeq	r7, r8, r0, lsl #28
    26e4:	7a130000 	bvc	4c26ec <__bss_end__+0x4b8ad4>
    26e8:	01000005 	tsteq	r0, r5
    26ec:	00640165 	rsbeq	r0, r4, r5, ror #2
    26f0:	936c0000 	cmnls	ip, #0
    26f4:	00840000 	addeq	r0, r4, r0
    26f8:	9c010000 	stcls	0, cr0, [r1], {-0}
    26fc:	0000063b 	andeq	r0, r0, fp, lsr r6
    2700:	6e697016 	mcrvs	0, 3, r7, cr9, cr6, {0}
    2704:	01650100 	cmneq	r5, r0, lsl #2
    2708:	0000002c 	andeq	r0, r0, ip, lsr #32
    270c:	000021c1 	andeq	r2, r0, r1, asr #3
    2710:	00938818 	addseq	r8, r3, r8, lsl r8
    2714:	00002400 	andeq	r2, r0, r0, lsl #8
    2718:	0005ef00 	andeq	lr, r5, r0, lsl #30
    271c:	05d91700 	ldrbeq	r1, [r9, #1792]	; 0x700
    2720:	6c010000 	stcvs	0, cr0, [r1], {-0}
    2724:	00002c01 	andeq	r2, r0, r1, lsl #24
    2728:	00220300 	eoreq	r0, r2, r0, lsl #6
    272c:	93941100 	orrsls	r1, r4, #0, 2
    2730:	08410000 	stmdaeq	r1, {}^	; <UNPREDICTABLE>
    2734:	a4110000 	ldrge	r0, [r1], #-0
    2738:	7e000093 	mcrvc	0, 0, r0, cr0, cr3, {4}
    273c:	00000008 	andeq	r0, r0, r8
    2740:	0093ac18 	addseq	sl, r3, r8, lsl ip
    2744:	00002c00 	andeq	r2, r0, r0, lsl #24
    2748:	00062800 	andeq	r2, r6, r0, lsl #16
    274c:	05d91700 	ldrbeq	r1, [r9, #1792]	; 0x700
    2750:	6f010000 	svcvs	0x00010000
    2754:	00002c01 	andeq	r2, r0, r1, lsl #24
    2758:	00221d00 	eoreq	r1, r2, r0, lsl #26
    275c:	93b81100 			; <UNDEFINED> instruction: 0x93b81100
    2760:	08410000 	stmdaeq	r1, {}^	; <UNPREDICTABLE>
    2764:	c4110000 	ldrgt	r0, [r1], #-0
    2768:	7e000093 	mcrvc	0, 0, r0, cr0, cr3, {4}
    276c:	11000008 	tstne	r0, r8
    2770:	000093d0 	ldrdeq	r9, [r0], -r0
    2774:	0000087e 	andeq	r0, r0, lr, ror r8
    2778:	93801100 	orrls	r1, r0, #0, 2
    277c:	087e0000 	ldmdaeq	lr!, {}^	; <UNPREDICTABLE>
    2780:	dc110000 	ldcle	0, cr0, [r1], {-0}
    2784:	7e000093 	mcrvc	0, 0, r0, cr0, cr3, {4}
    2788:	00000008 	andeq	r0, r0, r8
    278c:	00063615 	andeq	r3, r6, r5, lsl r6
    2790:	01780100 	cmneq	r8, r0, lsl #2
    2794:	000093f0 	strdeq	r9, [r0], -r0
    2798:	00000058 	andeq	r0, r0, r8, asr r0
    279c:	06a09c01 	strteq	r9, [r0], r1, lsl #24
    27a0:	70160000 	andsvc	r0, r6, r0
    27a4:	01006e69 	tsteq	r0, r9, ror #28
    27a8:	002c0178 	eoreq	r0, ip, r8, ror r1
    27ac:	22300000 	eorscs	r0, r0, #0
    27b0:	04110000 	ldreq	r0, [r1], #-0
    27b4:	7e000094 	mcrvc	0, 0, r0, cr0, cr4, {4}
    27b8:	0a000008 	beq	27e0 <_start-0x5820>
    27bc:	00009420 	andeq	r9, r0, r0, lsr #8
    27c0:	00000862 	andeq	r0, r0, r2, ror #16
    27c4:	00000680 	andeq	r0, r0, r0, lsl #13
    27c8:	0451010b 	ldrbeq	r0, [r1], #-267	; 0x10b
    27cc:	24007431 	strcs	r7, [r0], #-1073	; 0x431
    27d0:	943c0a00 	ldrtls	r0, [ip], #-2560	; 0xa00
    27d4:	08620000 	stmdaeq	r2!, {}^	; <UNPREDICTABLE>
    27d8:	06960000 	ldreq	r0, [r6], r0
    27dc:	010b0000 	mrseq	r0, (UNDEF: 11)
    27e0:	74310451 	ldrtvc	r0, [r1], #-1105	; 0x451
    27e4:	11002400 	tstne	r0, r0, lsl #8
    27e8:	00009440 	andeq	r9, r0, r0, asr #8
    27ec:	0000087e 	andeq	r0, r0, lr, ror r8
    27f0:	01681900 	cmneq	r8, r0, lsl #18
    27f4:	28010000 	stmdacs	r1, {}	; <UNPREDICTABLE>
    27f8:	00000133 	andeq	r0, r0, r3, lsr r1
    27fc:	96640305 	strbtls	r0, [r4], -r5, lsl #6
    2800:	30190000 	andscc	r0, r9, r0
    2804:	01000002 	tsteq	r0, r2
    2808:	00013329 	andeq	r3, r1, r9, lsr #6
    280c:	60030500 	andvs	r0, r3, r0, lsl #10
    2810:	19000096 	stmdbne	r0, {r1, r2, r4, r7}
    2814:	00000008 	andeq	r0, r0, r8
    2818:	01332a01 	teqeq	r3, r1, lsl #20
    281c:	03050000 	movweq	r0, #20480	; 0x5000
    2820:	0000965c 	andeq	r9, r0, ip, asr r6
    2824:	00012019 	andeq	r2, r1, r9, lsl r0
    2828:	332c0100 	teqcc	ip, #0, 2
    282c:	05000001 	streq	r0, [r0, #-1]
    2830:	00960803 	addseq	r0, r6, r3, lsl #16
    2834:	01281900 	teqeq	r8, r0, lsl #18
    2838:	2d010000 	stccs	0, cr0, [r1, #-0]
    283c:	00000133 	andeq	r0, r0, r3, lsr r1
    2840:	960c0305 	strls	r0, [ip], -r5, lsl #6
    2844:	00190000 	andseq	r0, r9, r0
    2848:	01000000 	mrseq	r0, (UNDEF: 0)
    284c:	0001332e 	andeq	r3, r1, lr, lsr #6
    2850:	10030500 	andne	r0, r3, r0, lsl #10
    2854:	19000096 	stmdbne	r0, {r1, r2, r4, r7}
    2858:	00000130 	andeq	r0, r0, r0, lsr r1
    285c:	01332f01 	teqeq	r3, r1, lsl #30
    2860:	03050000 	movweq	r0, #20480	; 0x5000
    2864:	00009614 	andeq	r9, r0, r4, lsl r6
    2868:	00013819 	andeq	r3, r1, r9, lsl r8
    286c:	33300100 	teqcc	r0, #0, 2
    2870:	05000001 	streq	r0, [r0, #-1]
    2874:	00961803 	addseq	r1, r6, r3, lsl #16
    2878:	01401900 	cmpeq	r0, r0, lsl #18
    287c:	31010000 	mrscc	r0, (UNDEF: 1)
    2880:	00000133 	andeq	r0, r0, r3, lsr r1
    2884:	961c0305 	ldrls	r0, [ip], -r5, lsl #6
    2888:	77190000 	ldrvc	r0, [r9, -r0]
    288c:	01000000 	mrseq	r0, (UNDEF: 0)
    2890:	00013333 	andeq	r3, r1, r3, lsr r3
    2894:	20030500 	andcs	r0, r3, r0, lsl #10
    2898:	19000096 	stmdbne	r0, {r1, r2, r4, r7}
    289c:	0000007e 	andeq	r0, r0, lr, ror r0
    28a0:	01333401 	teqeq	r3, r1, lsl #8
    28a4:	03050000 	movweq	r0, #20480	; 0x5000
    28a8:	00009624 	andeq	r9, r0, r4, lsr #12
    28ac:	00001219 	andeq	r1, r0, r9, lsl r2
    28b0:	33360100 	teqcc	r6, #0, 2
    28b4:	05000001 	streq	r0, [r0, #-1]
    28b8:	00962803 	addseq	r2, r6, r3, lsl #16
    28bc:	01731900 	cmneq	r3, r0, lsl #18
    28c0:	37010000 	strcc	r0, [r1, -r0]
    28c4:	00000133 	andeq	r0, r0, r3, lsr r1
    28c8:	962c0305 	strtls	r0, [ip], -r5, lsl #6
    28cc:	85190000 	ldrhi	r0, [r9, #-0]
    28d0:	01000000 	mrseq	r0, (UNDEF: 0)
    28d4:	00013339 	andeq	r3, r1, r9, lsr r3
    28d8:	30030500 	andcc	r0, r3, r0, lsl #10
    28dc:	19000096 	stmdbne	r0, {r1, r2, r4, r7}
    28e0:	0000008c 	andeq	r0, r0, ip, lsl #1
    28e4:	01333a01 	teqeq	r3, r1, lsl #20
    28e8:	03050000 	movweq	r0, #20480	; 0x5000
    28ec:	00009634 	andeq	r9, r0, r4, lsr r6
    28f0:	0006471a 	andeq	r4, r6, sl, lsl r7
    28f4:	01090100 	mrseq	r0, (UNDEF: 25)
    28f8:	00000133 	andeq	r0, r0, r3, lsr r1
    28fc:	96580305 	ldrbls	r0, [r8], -r5, lsl #6
    2900:	551a0000 	ldrpl	r0, [sl, #-0]
    2904:	01000006 	tsteq	r0, r6
    2908:	0133010a 	teqeq	r3, sl, lsl #2
    290c:	03050000 	movweq	r0, #20480	; 0x5000
    2910:	00009638 	andeq	r9, r0, r8, lsr r6
    2914:	00067c1a 	andeq	r7, r6, sl, lsl ip
    2918:	010c0100 	mrseq	r0, (UNDEF: 28)
    291c:	00000133 	andeq	r0, r0, r3, lsr r1
    2920:	96500305 	ldrbls	r0, [r0], -r5, lsl #6
    2924:	831a0000 	tsthi	sl, #0
    2928:	01000006 	tsteq	r0, r6
    292c:	0133010d 	teqeq	r3, sp, lsl #2
    2930:	03050000 	movweq	r0, #20480	; 0x5000
    2934:	00009654 	andeq	r9, r0, r4, asr r6
    2938:	0006281a 	andeq	r2, r6, sl, lsl r8
    293c:	010f0100 	mrseq	r0, (UNDEF: 31)
    2940:	00000133 	andeq	r0, r0, r3, lsr r1
    2944:	963c0305 	ldrtls	r0, [ip], -r5, lsl #6
    2948:	2f1a0000 	svccs	0x001a0000
    294c:	01000006 	tsteq	r0, r6
    2950:	01330110 	teqeq	r3, r0, lsl r1
    2954:	03050000 	movweq	r0, #20480	; 0x5000
    2958:	00009640 	andeq	r9, r0, r0, asr #12
    295c:	00068a1a 	andeq	r8, r6, sl, lsl sl
    2960:	01120100 	tsteq	r2, r0, lsl #2
    2964:	00000133 	andeq	r0, r0, r3, lsr r1
    2968:	96480305 	strbls	r0, [r8], -r5, lsl #6
    296c:	911a0000 	tstls	sl, r0
    2970:	01000006 	tsteq	r0, r6
    2974:	01330113 	teqeq	r3, r3, lsl r1
    2978:	03050000 	movweq	r0, #20480	; 0x5000
    297c:	0000964c 	andeq	r9, r0, ip, asr #12
    2980:	0005941a 	andeq	r9, r5, sl, lsl r4
    2984:	01150100 	tsteq	r5, r0, lsl #2
    2988:	00000133 	andeq	r0, r0, r3, lsr r1
    298c:	96440305 	strbls	r0, [r4], -r5, lsl #6
    2990:	a91b0000 	ldmdbge	fp, {}	; <UNPREDICTABLE>
    2994:	01000006 	tsteq	r0, r6
    2998:	00002c20 	andeq	r2, r0, r0, lsr #24
    299c:	00085600 	andeq	r5, r8, r0, lsl #12
    29a0:	08561c00 	ldmdaeq	r6, {sl, fp, ip}^
    29a4:	0d000000 	stceq	0, cr0, [r0, #-0]
    29a8:	00085c04 	andeq	r5, r8, r4, lsl #24
    29ac:	08611d00 	stmdaeq	r1!, {r8, sl, fp, ip}^
    29b0:	1f1e0000 	svcne	0x001e0000
    29b4:	0000058e 	andeq	r0, r0, lr, lsl #11
    29b8:	08781e01 	ldmdaeq	r8!, {r0, r9, sl, fp, ip}^
    29bc:	781c0000 	ldmdavc	ip, {}	; <UNPREDICTABLE>
    29c0:	1c000008 	stcne	0, cr0, [r0], {8}
    29c4:	0000002c 	andeq	r0, r0, ip, lsr #32
    29c8:	61040d00 	tstvs	r4, r0, lsl #26
    29cc:	20000008 	andcs	r0, r0, r8
    29d0:	000005eb 	andeq	r0, r0, fp, ror #11
    29d4:	ff008a03 			; <UNDEFINED> instruction: 0xff008a03
    29d8:	04000003 	streq	r0, [r0], #-3
    29dc:	000cc400 	andeq	ip, ip, r0, lsl #8
    29e0:	af010400 	svcge	0x00010400
    29e4:	01000002 	tsteq	r0, r2
    29e8:	00000811 	andeq	r0, r0, r1, lsl r8
    29ec:	0000031a 	andeq	r0, r0, sl, lsl r3
    29f0:	00009448 	andeq	r9, r0, r8, asr #8
    29f4:	00000154 	andeq	r0, r0, r4, asr r1
    29f8:	00000bf1 	strdeq	r0, [r0], -r1
    29fc:	69050402 	stmdbvs	r5, {r1, sl}
    2a00:	0300746e 	movweq	r7, #1134	; 0x46e
    2a04:	003e0704 	eorseq	r0, lr, r4, lsl #14
    2a08:	01030000 	mrseq	r0, (UNDEF: 3)
    2a0c:	0001fd06 	andeq	pc, r1, r6, lsl #26
    2a10:	05020300 	streq	r0, [r2, #-768]	; 0x300
    2a14:	00000209 	andeq	r0, r0, r9, lsl #4
    2a18:	61050403 	tstvs	r5, r3, lsl #8
    2a1c:	03000000 	movweq	r0, #0
    2a20:	005c0508 	subseq	r0, ip, r8, lsl #10
    2a24:	01030000 	mrseq	r0, (UNDEF: 3)
    2a28:	0001fb08 	andeq	pc, r1, r8, lsl #22
    2a2c:	07020300 	streq	r0, [r2, -r0, lsl #6]
    2a30:	00000155 	andeq	r0, r0, r5, asr r1
    2a34:	39070403 	stmdbcc	r7, {r0, r1, sl}
    2a38:	03000000 	movweq	r0, #0
    2a3c:	00340708 	eorseq	r0, r4, r8, lsl #14
    2a40:	04030000 	streq	r0, [r3], #-0
    2a44:	00018707 	andeq	r8, r1, r7, lsl #14
    2a48:	08010300 	stmdaeq	r1, {r8, r9}
    2a4c:	00000204 	andeq	r0, r0, r4, lsl #4
    2a50:	0c020104 	stfeqs	f0, [r2], {4}
    2a54:	000000b2 	strheq	r0, [r0], -r2
    2a58:	0005c005 	andeq	ip, r5, r5
    2a5c:	98050000 	stmdals	r5, {}	; <UNPREDICTABLE>
    2a60:	01000006 	tsteq	r0, r6
    2a64:	0006d105 	andeq	sp, r6, r5, lsl #2
    2a68:	e0050400 	and	r0, r5, r0, lsl #8
    2a6c:	05000006 	streq	r0, [r0, #-6]
    2a70:	0006ef05 	andeq	lr, r6, r5, lsl #30
    2a74:	fe050600 	cdp2	6, 0, cr0, cr5, cr0, {0}
    2a78:	07000006 	streq	r0, [r0, -r6]
    2a7c:	00070d05 	andeq	r0, r7, r5, lsl #26
    2a80:	1c050300 	stcne	3, cr0, [r5], {-0}
    2a84:	02000007 	andeq	r0, r0, #7
    2a88:	06c50600 	strbeq	r0, [r5], r0, lsl #12
    2a8c:	15020000 	strne	r0, [r2, #-0]
    2a90:	00000079 	andeq	r0, r0, r9, ror r0
    2a94:	00078e07 	andeq	r8, r7, r7, lsl #28
    2a98:	48370100 	ldmdami	r7!, {r8}
    2a9c:	9c000094 	stcls	0, cr0, [r0], {148}	; 0x94
    2aa0:	01000000 	mrseq	r0, (UNDEF: 0)
    2aa4:	0001c39c 	muleq	r1, ip, r3
    2aa8:	94500800 	ldrbls	r0, [r0], #-2048	; 0x800
    2aac:	03a80000 			; <UNDEFINED> instruction: 0x03a80000
    2ab0:	5c090000 	stcpl	0, cr0, [r9], {-0}
    2ab4:	af000094 	svcge	0x00000094
    2ab8:	f3000003 	vhadd.u8	d0, d0, d3
    2abc:	0a000000 	beq	2ac4 <_start-0x553c>
    2ac0:	32015101 	andcc	r5, r1, #1073741824	; 0x40000000
    2ac4:	0150010a 	cmpeq	r0, sl, lsl #2
    2ac8:	6809003e 	stmdavs	r9, {r1, r2, r3, r4, r5}
    2acc:	af000094 	svcge	0x00000094
    2ad0:	0b000003 	bleq	2ae4 <_start-0x551c>
    2ad4:	0a000001 	beq	2ae0 <_start-0x5520>
    2ad8:	32015101 	andcc	r5, r1, #1073741824	; 0x40000000
    2adc:	0150010a 	cmpeq	r0, sl, lsl #2
    2ae0:	6c08003f 	stcvs	0, cr0, [r8], {63}	; 0x3f
    2ae4:	a8000094 	stmdage	r0, {r2, r4, r7}
    2ae8:	09000003 	stmdbeq	r0, {r0, r1}
    2aec:	0000947c 	andeq	r9, r0, ip, ror r4
    2af0:	000003c5 	andeq	r0, r0, r5, asr #7
    2af4:	00000128 	andeq	r0, r0, r8, lsr #2
    2af8:	0250010a 	subseq	r0, r0, #-2147483646	; 0x80000002
    2afc:	09000075 	stmdbeq	r0, {r0, r2, r4, r5, r6}
    2b00:	00009488 	andeq	r9, r0, r8, lsl #9
    2b04:	000003e6 	andeq	r0, r0, r6, ror #7
    2b08:	0000013c 	andeq	r0, r0, ip, lsr r1
    2b0c:	0250010a 	subseq	r0, r0, #-2147483646	; 0x80000002
    2b10:	08000075 	stmdaeq	r0, {r0, r2, r4, r5, r6}
    2b14:	0000948c 	andeq	r9, r0, ip, lsl #9
    2b18:	000003a8 	andeq	r0, r0, r8, lsr #7
    2b1c:	00949809 	addseq	r9, r4, r9, lsl #16
    2b20:	0003e600 	andeq	lr, r3, r0, lsl #12
    2b24:	00015800 	andeq	r5, r1, r0, lsl #16
    2b28:	51010a00 	tstpl	r1, r0, lsl #20
    2b2c:	09003001 	stmdbeq	r0, {r0, ip, sp}
    2b30:	000094a4 	andeq	r9, r0, r4, lsr #9
    2b34:	000003e6 	andeq	r0, r0, r6, ror #7
    2b38:	0000016b 	andeq	r0, r0, fp, ror #2
    2b3c:	0151010a 	cmpeq	r1, sl, lsl #2
    2b40:	b0090030 	andlt	r0, r9, r0, lsr r0
    2b44:	e6000094 			; <UNDEFINED> instruction: 0xe6000094
    2b48:	7e000003 	cdpvc	0, 0, cr0, cr0, cr3, {0}
    2b4c:	0a000001 	beq	2b58 <_start-0x54a8>
    2b50:	36015101 	strcc	r5, [r1], -r1, lsl #2
    2b54:	94bc0900 	ldrtls	r0, [ip], #2304	; 0x900
    2b58:	03e60000 	mvneq	r0, #0
    2b5c:	01910000 	orrseq	r0, r1, r0
    2b60:	010a0000 	mrseq	r0, (UNDEF: 10)
    2b64:	00330151 	eorseq	r0, r3, r1, asr r1
    2b68:	0094c809 	addseq	ip, r4, r9, lsl #16
    2b6c:	0003e600 	andeq	lr, r3, r0, lsl #12
    2b70:	0001a600 	andeq	sl, r1, r0, lsl #12
    2b74:	51010a00 	tstpl	r1, r0, lsl #20
    2b78:	010e0a03 	tsteq	lr, r3, lsl #20
    2b7c:	94d40900 	ldrbls	r0, [r4], #2304	; 0x900
    2b80:	03e60000 	mvneq	r0, #0
    2b84:	01b90000 			; <UNDEFINED> instruction: 0x01b90000
    2b88:	010a0000 	mrseq	r0, (UNDEF: 10)
    2b8c:	00330151 	eorseq	r0, r3, r1, asr r1
    2b90:	0094d808 	addseq	sp, r4, r8, lsl #16
    2b94:	0003a800 	andeq	sl, r3, r0, lsl #16
    2b98:	620b0000 	andvs	r0, fp, #0
    2b9c:	01000007 	tsteq	r0, r7
    2ba0:	00002557 	andeq	r2, r0, r7, asr r5
    2ba4:	0094e400 	addseq	lr, r4, r0, lsl #8
    2ba8:	00001c00 	andeq	r1, r0, r0, lsl #24
    2bac:	e69c0100 	ldr	r0, [ip], r0, lsl #2
    2bb0:	08000001 	stmdaeq	r0, {r0}
    2bb4:	000094f4 	strdeq	r9, [r0], -r4
    2bb8:	000003c5 	andeq	r0, r0, r5, asr #7
    2bbc:	07a70b00 	streq	r0, [r7, r0, lsl #22]!
    2bc0:	5d010000 	stcpl	0, cr0, [r1, #-0]
    2bc4:	00000025 	andeq	r0, r0, r5, lsr #32
    2bc8:	00009500 	andeq	r9, r0, r0, lsl #10
    2bcc:	00000028 	andeq	r0, r0, r8, lsr #32
    2bd0:	02129c01 	andseq	r9, r2, #256	; 0x100
    2bd4:	08080000 	stmdaeq	r8, {}	; <UNPREDICTABLE>
    2bd8:	c3000095 	movwgt	r0, #149	; 0x95
    2bdc:	08000001 	stmdaeq	r0, {r0}
    2be0:	0000951c 	andeq	r9, r0, ip, lsl r5
    2be4:	000003c5 	andeq	r0, r0, r5, asr #7
    2be8:	07c00b00 	strbeq	r0, [r0, r0, lsl #22]
    2bec:	64010000 	strvs	r0, [r1], #-0
    2bf0:	00000025 	andeq	r0, r0, r5, lsr #32
    2bf4:	00009528 	andeq	r9, r0, r8, lsr #10
    2bf8:	0000001c 	andeq	r0, r0, ip, lsl r0
    2bfc:	02359c01 	eorseq	r9, r5, #256	; 0x100
    2c00:	38080000 	stmdacc	r8, {}	; <UNPREDICTABLE>
    2c04:	c5000095 	strgt	r0, [r0, #-149]	; 0x95
    2c08:	00000003 	andeq	r0, r0, r3
    2c0c:	00036807 	andeq	r6, r3, r7, lsl #16
    2c10:	446a0100 	strbtmi	r0, [sl], #-256	; 0x100
    2c14:	2c000095 	stccs	0, cr0, [r0], {149}	; 0x95
    2c18:	01000000 	mrseq	r0, (UNDEF: 0)
    2c1c:	0002719c 	muleq	r2, ip, r1
    2c20:	00630c00 	rsbeq	r0, r3, r0, lsl #24
    2c24:	002c6a01 	eoreq	r6, ip, r1, lsl #20
    2c28:	225c0000 	subscs	r0, ip, #0
    2c2c:	50080000 	andpl	r0, r8, r0
    2c30:	12000095 	andne	r0, r0, #149	; 0x95
    2c34:	0d000002 	stceq	0, cr0, [r0, #-8]
    2c38:	00009568 	andeq	r9, r0, r8, ror #10
    2c3c:	000003e6 	andeq	r0, r0, r6, ror #7
    2c40:	0251010a 	subseq	r0, r1, #-2147483646	; 0x80000002
    2c44:	00000074 	andeq	r0, r0, r4, ror r0
    2c48:	0007800b 	andeq	r8, r7, fp
    2c4c:	25740100 	ldrbcs	r0, [r4, #-256]!	; 0x100
    2c50:	70000000 	andvc	r0, r0, r0
    2c54:	0c000095 	stceq	0, cr0, [r0], {149}	; 0x95
    2c58:	01000000 	mrseq	r0, (UNDEF: 0)
    2c5c:	0002949c 	muleq	r2, ip, r4
    2c60:	95780800 	ldrbls	r0, [r8, #-2048]!	; 0x800
    2c64:	01c30000 	biceq	r0, r3, r0
    2c68:	0b000000 	bleq	2c70 <_start-0x5390>
    2c6c:	0000083d 	andeq	r0, r0, sp, lsr r8
    2c70:	00257801 	eoreq	r7, r5, r1, lsl #16
    2c74:	957c0000 	ldrbls	r0, [ip, #-0]!
    2c78:	00200000 	eoreq	r0, r0, r0
    2c7c:	9c010000 	stcls	0, cr0, [r1], {-0}
    2c80:	000002c0 	andeq	r0, r0, r0, asr #5
    2c84:	00958408 	addseq	r8, r5, r8, lsl #8
    2c88:	00027100 	andeq	r7, r2, r0, lsl #2
    2c8c:	95900800 	ldrls	r0, [r0, #2048]	; 0x800
    2c90:	01e60000 	mvneq	r0, r0
    2c94:	0e000000 	cdpeq	0, 0, cr0, cr0, cr0, {0}
    2c98:	000007da 	ldrdeq	r0, [r0], -sl
    2c9c:	02d11601 	sbcseq	r1, r1, #1048576	; 0x100000
    2ca0:	03050000 	movweq	r0, #20480	; 0x5000
    2ca4:	00009698 	muleq	r0, r8, r6
    2ca8:	02d7040f 	sbcseq	r0, r7, #251658240	; 0xf000000
    2cac:	2c100000 	ldccs	0, cr0, [r0], {-0}
    2cb0:	0e000000 	cdpeq	0, 0, cr0, cr0, cr0, {0}
    2cb4:	000007ce 	andeq	r0, r0, lr, asr #15
    2cb8:	02d11701 	sbcseq	r1, r1, #262144	; 0x40000
    2cbc:	03050000 	movweq	r0, #20480	; 0x5000
    2cc0:	00009668 	andeq	r9, r0, r8, ror #12
    2cc4:	0007450e 	andeq	r4, r7, lr, lsl #10
    2cc8:	d11a0100 	tstle	sl, r0, lsl #2
    2ccc:	05000002 	streq	r0, [r0, #-2]
    2cd0:	00968403 	addseq	r8, r6, r3, lsl #8
    2cd4:	07980e00 	ldreq	r0, [r8, r0, lsl #28]
    2cd8:	1b010000 	blne	42ce0 <__bss_end__+0x390c8>
    2cdc:	000002d1 	ldrdeq	r0, [r0], -r1
    2ce0:	96700305 	ldrbtls	r0, [r0], -r5, lsl #6
    2ce4:	b10e0000 	mrslt	r0, (UNDEF: 14)
    2ce8:	01000007 	tsteq	r0, r7
    2cec:	0002d11c 	andeq	sp, r2, ip, lsl r1
    2cf0:	74030500 	strvc	r0, [r3], #-1280	; 0x500
    2cf4:	0e000096 	mcreq	0, 0, r0, cr0, cr6, {4}
    2cf8:	0000081f 	andeq	r0, r0, pc, lsl r8
    2cfc:	02d11d01 	sbcseq	r1, r1, #1, 26	; 0x40
    2d00:	03050000 	movweq	r0, #20480	; 0x5000
    2d04:	00009678 	andeq	r9, r0, r8, ror r6
    2d08:	0007360e 	andeq	r3, r7, lr, lsl #12
    2d0c:	d11e0100 	tstle	lr, r0, lsl #2
    2d10:	05000002 	streq	r0, [r0, #-2]
    2d14:	00969403 	addseq	r9, r6, r3, lsl #8
    2d18:	082e0e00 	stmdaeq	lr!, {r9, sl, fp}
    2d1c:	1f010000 	svcne	0x00010000
    2d20:	000002d1 	ldrdeq	r0, [r0], -r1
    2d24:	96800305 	strls	r0, [r0], r5, lsl #6
    2d28:	530e0000 	movwpl	r0, #57344	; 0xe000
    2d2c:	01000007 	tsteq	r0, r7
    2d30:	0002d120 	andeq	sp, r2, r0, lsr #2
    2d34:	90030500 	andls	r0, r3, r0, lsl #10
    2d38:	0e000096 	mcreq	0, 0, r0, cr0, cr6, {4}
    2d3c:	00000802 	andeq	r0, r0, r2, lsl #16
    2d40:	02d12101 	sbcseq	r2, r1, #1073741824	; 0x40000000
    2d44:	03050000 	movweq	r0, #20480	; 0x5000
    2d48:	0000968c 	andeq	r9, r0, ip, lsl #13
    2d4c:	0007700e 	andeq	r7, r7, lr
    2d50:	d1220100 	teqle	r2, r0, lsl #2
    2d54:	05000002 	streq	r0, [r0, #-2]
    2d58:	00966c03 	addseq	r6, r6, r3, lsl #24
    2d5c:	07f20e00 	ldrbeq	r0, [r2, r0, lsl #28]!
    2d60:	23010000 	movwcs	r0, #4096	; 0x1000
    2d64:	000002d1 	ldrdeq	r0, [r0], -r1
    2d68:	96880305 	strls	r0, [r8], r5, lsl #6
    2d6c:	e20e0000 	and	r0, lr, #0
    2d70:	01000007 	tsteq	r0, r7
    2d74:	0002d124 	andeq	sp, r2, r4, lsr #2
    2d78:	7c030500 	cfstr32vc	mvfx0, [r3], {-0}
    2d7c:	11000096 	swpne	r0, r6, [r0]	; <UNPREDICTABLE>
    2d80:	000005eb 	andeq	r0, r0, fp, ror #11
    2d84:	16128a03 	ldrne	r8, [r2], -r3, lsl #20
    2d88:	02000006 	andeq	r0, r0, #6
    2d8c:	0003c519 	andeq	ip, r3, r9, lsl r5
    2d90:	002c1300 	eoreq	r1, ip, r0, lsl #6
    2d94:	b2130000 	andslt	r0, r3, #0
    2d98:	00000000 	andeq	r0, r0, r0
    2d9c:	0006a914 	andeq	sl, r6, r4, lsl r9
    2da0:	2ca90300 	stccs	3, cr0, [r9]
    2da4:	da000000 	ble	2dac <_start-0x5254>
    2da8:	13000003 	movwne	r0, #3
    2dac:	000003da 	ldrdeq	r0, [r0], -sl
    2db0:	e0040f00 	and	r0, r4, r0, lsl #30
    2db4:	15000003 	strne	r0, [r0, #-3]
    2db8:	000003e5 	andeq	r0, r0, r5, ror #7
    2dbc:	058e1216 	streq	r1, [lr, #534]	; 0x216
    2dc0:	9d030000 	stcls	0, cr0, [r3, #-0]
    2dc4:	000003fc 	strdeq	r0, [r0], -ip
    2dc8:	0003fc13 	andeq	pc, r3, r3, lsl ip	; <UNPREDICTABLE>
    2dcc:	002c1300 	eoreq	r1, ip, r0, lsl #6
    2dd0:	0f000000 	svceq	0x00000000
    2dd4:	0003e504 	andeq	lr, r3, r4, lsl #10
	...

Disassembly of section .debug_abbrev:

00000000 <.debug_abbrev>:
   0:	25011101 	strcs	r1, [r1, #-257]	; 0x101
   4:	030b130e 	movweq	r1, #45838	; 0xb30e
   8:	110e1b0e 	tstne	lr, lr, lsl #22
   c:	10061201 	andne	r1, r6, r1, lsl #4
  10:	02000017 	andeq	r0, r0, #23
  14:	0b0b0024 	bleq	2c00ac <__bss_end__+0x2b6494>
  18:	08030b3e 	stmdaeq	r3, {r1, r2, r3, r4, r5, r8, r9, fp}
  1c:	24030000 	strcs	r0, [r3], #-0
  20:	3e0b0b00 	vmlacc.f64	d0, d11, d0
  24:	000e030b 	andeq	r0, lr, fp, lsl #6
  28:	00160400 	andseq	r0, r6, r0, lsl #8
  2c:	0b3a0e03 	bleq	e83840 <__bss_end__+0xe79c28>
  30:	13490b3b 	movtne	r0, #39739	; 0x9b3b
  34:	0f050000 	svceq	0x00050000
  38:	490b0b00 	stmdbmi	fp, {r8, r9, fp}
  3c:	06000013 			; <UNDEFINED> instruction: 0x06000013
  40:	13490026 	movtne	r0, #36902	; 0x9026
  44:	13070000 	movwne	r0, #28672	; 0x7000
  48:	3a0b0b01 	bcc	2c2c54 <__bss_end__+0x2b903c>
  4c:	010b3b0b 	tsteq	fp, fp, lsl #22
  50:	08000013 	stmdaeq	r0, {r0, r1, r4}
  54:	0803000d 	stmdaeq	r3, {r0, r2, r3}
  58:	0b3b0b3a 	bleq	ec2d48 <__bss_end__+0xeb9130>
  5c:	0b381349 	bleq	e04d88 <__bss_end__+0xdfb170>
  60:	0d090000 	stceq	0, cr0, [r9, #-0]
  64:	3a0e0300 	bcc	380c6c <__bss_end__+0x377054>
  68:	490b3b0b 	stmdbmi	fp, {r0, r1, r3, r8, r9, fp, ip, sp}
  6c:	000b3813 	andeq	r3, fp, r3, lsl r8
  70:	012e0a00 	teqeq	lr, r0, lsl #20
  74:	0b3a0e03 	bleq	e83888 <__bss_end__+0xe79c70>
  78:	19270b3b 	stmdbne	r7!, {r0, r1, r3, r4, r5, r8, r9, fp}
  7c:	13010b20 	movwne	r0, #6944	; 0x1b20
  80:	050b0000 	streq	r0, [fp, #-0]
  84:	3a080300 	bcc	200c8c <__bss_end__+0x1f7074>
  88:	490b3b0b 	stmdbmi	fp, {r0, r1, r3, r8, r9, fp, ip, sp}
  8c:	0c000013 	stceq	0, cr0, [r0], {19}
  90:	193f012e 	ldmdbne	pc!, {r1, r2, r3, r5, r8}	; <UNPREDICTABLE>
  94:	0b3a0e03 	bleq	e838a8 <__bss_end__+0xe79c90>
  98:	19270b3b 	stmdbne	r7!, {r0, r1, r3, r4, r5, r8, r9, fp}
  9c:	13010b20 	movwne	r0, #6944	; 0x1b20
  a0:	050d0000 	streq	r0, [sp, #-0]
  a4:	3a0e0300 	bcc	380cac <__bss_end__+0x377094>
  a8:	490b3b0b 	stmdbmi	fp, {r0, r1, r3, r8, r9, fp, ip, sp}
  ac:	0e000013 	mcreq	0, 0, r0, cr0, cr3, {0}
  b0:	08030034 	stmdaeq	r3, {r2, r4, r5}
  b4:	0b3b0b3a 	bleq	ec2da4 <__bss_end__+0xeb918c>
  b8:	00001349 	andeq	r1, r0, r9, asr #6
  bc:	0300340f 	movweq	r3, #1039	; 0x40f
  c0:	3b0b3a0e 	blcc	2ce900 <__bss_end__+0x2c4ce8>
  c4:	0013490b 	andseq	r4, r3, fp, lsl #18
  c8:	010b1000 	mrseq	r1, (UNDEF: 11)
  cc:	00001301 	andeq	r1, r0, r1, lsl #6
  d0:	00010b11 	andeq	r0, r1, r1, lsl fp
  d4:	012e1200 	teqeq	lr, r0, lsl #4
  d8:	0e03193f 	mcreq	9, 0, r1, cr3, cr15, {1}
  dc:	0b3b0b3a 	bleq	ec2dcc <__bss_end__+0xeb91b4>
  e0:	13491927 	movtne	r1, #39207	; 0x9927
  e4:	06120111 			; <UNDEFINED> instruction: 0x06120111
  e8:	42971840 	addsmi	r1, r7, #64, 16	; 0x400000
  ec:	00130119 	andseq	r0, r3, r9, lsl r1
  f0:	00051300 	andeq	r1, r5, r0, lsl #6
  f4:	0b3a0803 	bleq	e82108 <__bss_end__+0xe784f0>
  f8:	13490b3b 	movtne	r0, #39739	; 0x9b3b
  fc:	00001702 	andeq	r1, r0, r2, lsl #14
 100:	03003414 	movweq	r3, #1044	; 0x414
 104:	3413490e 	ldrcc	r4, [r3], #-2318	; 0x90e
 108:	00180219 	andseq	r0, r8, r9, lsl r2
 10c:	00341500 	eorseq	r1, r4, r0, lsl #10
 110:	0b3a0e03 	bleq	e83924 <__bss_end__+0xe79d0c>
 114:	13490b3b 	movtne	r0, #39739	; 0x9b3b
 118:	00001702 	andeq	r1, r0, r2, lsl #14
 11c:	11010b16 	tstne	r1, r6, lsl fp
 120:	01061201 	tsteq	r6, r1, lsl #4
 124:	17000013 	smladne	r0, r3, r0, r0
 128:	01018289 	smlabbeq	r1, r9, r2, r8
 12c:	13310111 	teqne	r1, #1073741828	; 0x40000004
 130:	00001301 	andeq	r1, r0, r1, lsl #6
 134:	01828a18 	orreq	r8, r2, r8, lsl sl
 138:	91180200 	tstls	r8, r0, lsl #4
 13c:	00001842 	andeq	r1, r0, r2, asr #16
 140:	01828919 	orreq	r8, r2, r9, lsl r9
 144:	31011100 	mrscc	r1, (UNDEF: 17)
 148:	1a000013 	bne	19c <_start-0x7e64>
 14c:	13490101 	movtne	r0, #37121	; 0x9101
 150:	00001301 	andeq	r1, r0, r1, lsl #6
 154:	4900211b 	stmdbmi	r0, {r0, r1, r3, r4, r8, sp}
 158:	000b2f13 	andeq	r2, fp, r3, lsl pc
 15c:	00051c00 	andeq	r1, r5, r0, lsl #24
 160:	0b3a0e03 	bleq	e83974 <__bss_end__+0xe79d5c>
 164:	13490b3b 	movtne	r0, #39739	; 0x9b3b
 168:	00001702 	andeq	r1, r0, r2, lsl #14
 16c:	0300341d 	movweq	r3, #1053	; 0x41d
 170:	3b0b3a08 	blcc	2ce998 <__bss_end__+0x2c4d80>
 174:	1c13490b 	ldcne	9, cr4, [r3], {11}
 178:	1e00000b 	cdpne	0, 0, cr0, cr0, cr11, {0}
 17c:	0e030034 	mcreq	0, 0, r0, cr3, cr4, {1}
 180:	0b3b0b3a 	bleq	ec2e70 <__bss_end__+0xeb9258>
 184:	18021349 	stmdane	r2, {r0, r3, r6, r8, r9, ip}
 188:	0b1f0000 	bleq	7c0190 <__bss_end__+0x7b6578>
 18c:	12011101 	andne	r1, r1, #1073741824	; 0x40000000
 190:	20000006 	andcs	r0, r0, r6
 194:	1331012e 	teqne	r1, #-2147483637	; 0x8000000b
 198:	06120111 			; <UNDEFINED> instruction: 0x06120111
 19c:	42971840 	addsmi	r1, r7, #64, 16	; 0x400000
 1a0:	00130119 	andseq	r0, r3, r9, lsl r1
 1a4:	00052100 	andeq	r2, r5, r0, lsl #2
 1a8:	18021331 	stmdane	r2, {r0, r4, r5, r8, r9, ip}
 1ac:	05220000 	streq	r0, [r2, #-0]!
 1b0:	02133100 	andseq	r3, r3, #0, 2
 1b4:	23000017 	movwcs	r0, #23
 1b8:	13310034 	teqne	r1, #52	; 0x34
 1bc:	00000b1c 	andeq	r0, r0, ip, lsl fp
 1c0:	31003424 	tstcc	r0, r4, lsr #8
 1c4:	00180213 	andseq	r0, r8, r3, lsl r2
 1c8:	011d2500 	tsteq	sp, r0, lsl #10
 1cc:	01111331 	tsteq	r1, r1, lsr r3
 1d0:	0b580612 	bleq	1601a20 <__bss_end__+0x15f7e08>
 1d4:	13010b59 	movwne	r0, #7001	; 0x1b59
 1d8:	34260000 	strtcc	r0, [r6], #-0
 1dc:	02133100 	andseq	r3, r3, #0, 2
 1e0:	27000017 	smladcs	r0, r7, r0, r0
 1e4:	1331011d 	teqne	r1, #1073741831	; 0x40000007
 1e8:	17550152 			; <UNDEFINED> instruction: 0x17550152
 1ec:	0b590b58 	bleq	1642f54 <__bss_end__+0x163933c>
 1f0:	00001301 	andeq	r1, r0, r1, lsl #6
 1f4:	55010b28 	strpl	r0, [r1, #-2856]	; 0xb28
 1f8:	00130117 	andseq	r0, r3, r7, lsl r1
 1fc:	011d2900 	tsteq	sp, r0, lsl #18
 200:	01521331 	cmpeq	r2, r1, lsr r3
 204:	0b581755 	bleq	1605f60 <__bss_end__+0x15fc348>
 208:	00000b59 	andeq	r0, r0, r9, asr fp
 20c:	3100052a 	tstcc	r0, sl, lsr #10
 210:	2b000013 	blcs	264 <_start-0x7d9c>
 214:	193f012e 	ldmdbne	pc!, {r1, r2, r3, r5, r8}	; <UNPREDICTABLE>
 218:	0b3a0e03 	bleq	e83a2c <__bss_end__+0xe79e14>
 21c:	19270b3b 	stmdbne	r7!, {r0, r1, r3, r4, r5, r8, r9, fp}
 220:	06120111 			; <UNDEFINED> instruction: 0x06120111
 224:	42971840 	addsmi	r1, r7, #64, 16	; 0x400000
 228:	00130119 	andseq	r0, r3, r9, lsl r1
 22c:	00052c00 	andeq	r2, r5, r0, lsl #24
 230:	0b1c1331 	bleq	704efc <__bss_end__+0x6fb2e4>
 234:	342d0000 	strtcc	r0, [sp], #-0
 238:	3a080300 	bcc	200e40 <__bss_end__+0x1f7228>
 23c:	490b3b0b 	stmdbmi	fp, {r0, r1, r3, r8, r9, fp, ip, sp}
 240:	00170213 	andseq	r0, r7, r3, lsl r2
 244:	010b2e00 	tsteq	fp, r0, lsl #28
 248:	00001755 	andeq	r1, r0, r5, asr r7
 24c:	0182892f 	orreq	r8, r2, pc, lsr #18
 250:	31011101 	tstcc	r1, r1, lsl #2
 254:	30000013 	andcc	r0, r0, r3, lsl r0
 258:	0e030034 	mcreq	0, 0, r0, cr3, cr4, {1}
 25c:	0b3b0b3a 	bleq	ec2f4c <__bss_end__+0xeb9334>
 260:	061c1349 	ldreq	r1, [ip], -r9, asr #6
 264:	35310000 	ldrcc	r0, [r1, #-0]!
 268:	00134900 	andseq	r4, r3, r0, lsl #18
 26c:	00343200 	eorseq	r3, r4, r0, lsl #4
 270:	0b3a0803 	bleq	e82284 <__bss_end__+0xe7866c>
 274:	13490b3b 	movtne	r0, #39739	; 0x9b3b
 278:	00001802 	andeq	r1, r0, r2, lsl #16
 27c:	3f012e33 	svccc	0x00012e33
 280:	3a0e0319 	bcc	380eec <__bss_end__+0x3772d4>
 284:	270b3b0b 	strcs	r3, [fp, -fp, lsl #22]
 288:	01193c19 	tsteq	r9, r9, lsl ip
 28c:	34000013 	strcc	r0, [r0], #-19
 290:	13490005 	movtne	r0, #36869	; 0x9005
 294:	2e350000 	cdpcs	0, 3, cr0, cr5, cr0, {0}
 298:	03193f00 	tsteq	r9, #0, 30
 29c:	3b0b3a0e 	blcc	2ceadc <__bss_end__+0x2c4ec4>
 2a0:	3c19270b 	ldccc	7, cr2, [r9], {11}
 2a4:	36000019 			; <UNDEFINED> instruction: 0x36000019
 2a8:	193f012e 	ldmdbne	pc!, {r1, r2, r3, r5, r8}	; <UNPREDICTABLE>
 2ac:	0b3a0e03 	bleq	e83ac0 <__bss_end__+0xe79ea8>
 2b0:	19270b3b 	stmdbne	r7!, {r0, r1, r3, r4, r5, r8, r9, fp}
 2b4:	193c1349 	ldmdbne	ip!, {r0, r3, r6, r8, r9, ip}
 2b8:	00001301 	andeq	r1, r0, r1, lsl #6
 2bc:	00001837 	andeq	r1, r0, r7, lsr r8
 2c0:	11010000 	mrsne	r0, (UNDEF: 1)
 2c4:	130e2501 	movwne	r2, #58625	; 0xe501
 2c8:	1b0e030b 	blne	380efc <__bss_end__+0x3772e4>
 2cc:	1201110e 	andne	r1, r1, #-2147483645	; 0x80000003
 2d0:	00171006 	andseq	r1, r7, r6
 2d4:	00160200 	andseq	r0, r6, r0, lsl #4
 2d8:	0b3a0e03 	bleq	e83aec <__bss_end__+0xe79ed4>
 2dc:	13490b3b 	movtne	r0, #39739	; 0x9b3b
 2e0:	13030000 	movwne	r0, #12288	; 0x3000
 2e4:	0b0e0301 	bleq	380ef0 <__bss_end__+0x3772d8>
 2e8:	3b0b3a0b 	blcc	2ceb1c <__bss_end__+0x2c4f04>
 2ec:	0013010b 	andseq	r0, r3, fp, lsl #2
 2f0:	000d0400 	andeq	r0, sp, r0, lsl #8
 2f4:	13490e03 	movtne	r0, #40451	; 0x9e03
 2f8:	19340b38 	ldmdbne	r4!, {r3, r4, r5, r8, r9, fp}
 2fc:	0f050000 	svceq	0x00050000
 300:	000b0b00 	andeq	r0, fp, r0, lsl #22
 304:	00240600 	eoreq	r0, r4, r0, lsl #12
 308:	0b3e0b0b 	bleq	f82f3c <__bss_end__+0xf79324>
 30c:	00000803 	andeq	r0, r0, r3, lsl #16
 310:	0b002407 	bleq	9334 <gpio_int_falling_edge+0x4c>
 314:	030b3e0b 	movweq	r3, #48651	; 0xbe0b
 318:	0800000e 	stmdaeq	r0, {r1, r2, r3}
 31c:	0b0b000f 	bleq	2c0360 <__bss_end__+0x2b6748>
 320:	00001349 	andeq	r1, r0, r9, asr #6
 324:	49002609 	stmdbmi	r0, {r0, r3, r9, sl, sp}
 328:	0a000013 	beq	37c <_start-0x7c84>
 32c:	193f012e 	ldmdbne	pc!, {r1, r2, r3, r5, r8}	; <UNPREDICTABLE>
 330:	0b3a0e03 	bleq	e83b44 <__bss_end__+0xe79f2c>
 334:	19270b3b 	stmdbne	r7!, {r0, r1, r3, r4, r5, r8, r9, fp}
 338:	01111349 	tsteq	r1, r9, asr #6
 33c:	18400612 	stmdane	r0, {r1, r4, r9, sl}^
 340:	01194297 			; <UNDEFINED> instruction: 0x01194297
 344:	0b000013 	bleq	398 <_start-0x7c68>
 348:	08030005 	stmdaeq	r3, {r0, r2}
 34c:	0b3b0b3a 	bleq	ec303c <__bss_end__+0xeb9424>
 350:	18021349 	stmdane	r2, {r0, r3, r6, r8, r9, ip}
 354:	180c0000 	stmdane	ip, {}	; <UNPREDICTABLE>
 358:	0d000000 	stceq	0, cr0, [r0, #-0]
 35c:	08030034 	stmdaeq	r3, {r2, r4, r5}
 360:	0b3b0b3a 	bleq	ec3050 <__bss_end__+0xeb9438>
 364:	18021349 	stmdane	r2, {r0, r3, r6, r8, r9, ip}
 368:	340e0000 	strcc	r0, [lr], #-0
 36c:	3a0e0300 	bcc	380f74 <__bss_end__+0x37735c>
 370:	490b3b0b 	stmdbmi	fp, {r0, r1, r3, r8, r9, fp, ip, sp}
 374:	00180213 	andseq	r0, r8, r3, lsl r2
 378:	00340f00 	eorseq	r0, r4, r0, lsl #30
 37c:	0b3a0803 	bleq	e82390 <__bss_end__+0xe78778>
 380:	13490b3b 	movtne	r0, #39739	; 0x9b3b
 384:	00001702 	andeq	r1, r0, r2, lsl #14
 388:	01828910 	orreq	r8, r2, r0, lsl r9
 38c:	31011101 	tstcc	r1, r1, lsl #2
 390:	00130113 	andseq	r0, r3, r3, lsl r1
 394:	828a1100 	addhi	r1, sl, #0, 2
 398:	18020001 	stmdane	r2, {r0}
 39c:	00184291 	mulseq	r8, r1, r2
 3a0:	82891200 	addhi	r1, r9, #0, 4
 3a4:	01110101 	tsteq	r1, r1, lsl #2
 3a8:	01130000 	tsteq	r3, r0
 3ac:	01134901 	tsteq	r3, r1, lsl #18
 3b0:	14000013 	strne	r0, [r0], #-19
 3b4:	13490021 	movtne	r0, #36897	; 0x9021
 3b8:	0000052f 	andeq	r0, r0, pc, lsr #10
 3bc:	27011515 	smladcs	r1, r5, r5, r1
 3c0:	01134919 	tsteq	r3, r9, lsl r9
 3c4:	16000013 			; <UNDEFINED> instruction: 0x16000013
 3c8:	13490005 	movtne	r0, #36869	; 0x9005
 3cc:	34170000 	ldrcc	r0, [r7], #-0
 3d0:	3a0e0300 	bcc	380fd8 <__bss_end__+0x3773c0>
 3d4:	490b3b0b 	stmdbmi	fp, {r0, r1, r3, r8, r9, fp, ip, sp}
 3d8:	3c193f13 	ldccc	15, cr3, [r9], {19}
 3dc:	18000019 	stmdane	r0, {r0, r3, r4}
 3e0:	193f012e 	ldmdbne	pc!, {r1, r2, r3, r5, r8}	; <UNPREDICTABLE>
 3e4:	0b3a0e03 	bleq	e83bf8 <__bss_end__+0xe79fe0>
 3e8:	19270b3b 	stmdbne	r7!, {r0, r1, r3, r4, r5, r8, r9, fp}
 3ec:	193c1349 	ldmdbne	ip!, {r0, r3, r6, r8, r9, ip}
 3f0:	01000000 	mrseq	r0, (UNDEF: 0)
 3f4:	0e250111 	mcreq	1, 1, r0, cr5, cr1, {0}
 3f8:	0e030b13 	vmoveq.32	d3[0], r0
 3fc:	01110e1b 	tsteq	r1, fp, lsl lr
 400:	17100612 			; <UNDEFINED> instruction: 0x17100612
 404:	24020000 	strcs	r0, [r2], #-0
 408:	3e0b0b00 	vmlacc.f64	d0, d11, d0
 40c:	0008030b 	andeq	r0, r8, fp, lsl #6
 410:	00240300 	eoreq	r0, r4, r0, lsl #6
 414:	0b3e0b0b 	bleq	f83048 <__bss_end__+0xf79430>
 418:	00000e03 	andeq	r0, r0, r3, lsl #28
 41c:	03012e04 	movweq	r2, #7684	; 0x1e04
 420:	3b0b3a0e 	blcc	2cec60 <__bss_end__+0x2c5048>
 424:	4919270b 	ldmdbmi	r9, {r0, r1, r3, r8, r9, sl, sp}
 428:	12011113 	andne	r1, r1, #-1073741820	; 0xc0000004
 42c:	97184006 	ldrls	r4, [r8, -r6]
 430:	13011942 	movwne	r1, #6466	; 0x1942
 434:	05050000 	streq	r0, [r5, #-0]
 438:	3a080300 	bcc	201040 <__bss_end__+0x1f7428>
 43c:	490b3b0b 	stmdbmi	fp, {r0, r1, r3, r8, r9, fp, ip, sp}
 440:	00170213 	andseq	r0, r7, r3, lsl r2
 444:	82890600 	addhi	r0, r9, #0, 12
 448:	01110101 	tsteq	r1, r1, lsl #2
 44c:	00001331 	andeq	r1, r0, r1, lsr r3
 450:	01828a07 	orreq	r8, r2, r7, lsl #20
 454:	91180200 	tstls	r8, r0, lsl #4
 458:	00001842 	andeq	r1, r0, r2, asr #16
 45c:	3f002e08 	svccc	0x00002e08
 460:	3a0e0319 	bcc	3810cc <__bss_end__+0x3774b4>
 464:	270b3b0b 	strcs	r3, [fp, -fp, lsl #22]
 468:	12011119 	andne	r1, r1, #1073741830	; 0x40000006
 46c:	97184006 	ldrls	r4, [r8, -r6]
 470:	00001942 	andeq	r1, r0, r2, asr #18
 474:	3f012e09 	svccc	0x00012e09
 478:	3a0e0319 	bcc	3810e4 <__bss_end__+0x3774cc>
 47c:	270b3b0b 	strcs	r3, [fp, -fp, lsl #22]
 480:	12011119 	andne	r1, r1, #1073741830	; 0x40000006
 484:	97184006 	ldrls	r4, [r8, -r6]
 488:	13011942 	movwne	r1, #6466	; 0x1942
 48c:	050a0000 	streq	r0, [sl, #-0]
 490:	3a080300 	bcc	201098 <__bss_end__+0x1f7480>
 494:	490b3b0b 	stmdbmi	fp, {r0, r1, r3, r8, r9, fp, ip, sp}
 498:	00180213 	andseq	r0, r8, r3, lsl r2
 49c:	01150b00 	tsteq	r5, r0, lsl #22
 4a0:	13491927 	movtne	r1, #39207	; 0x9927
 4a4:	00001301 	andeq	r1, r0, r1, lsl #6
 4a8:	4900050c 	stmdbmi	r0, {r2, r3, r8, sl}
 4ac:	0d000013 	stceq	0, cr0, [r0, #-76]	; 0xffffffb4
 4b0:	0b0b000f 	bleq	2c04f4 <__bss_end__+0x2b68dc>
 4b4:	00001349 	andeq	r1, r0, r9, asr #6
 4b8:	0300340e 	movweq	r3, #1038	; 0x40e
 4bc:	3b0b3a0e 	blcc	2cecfc <__bss_end__+0x2c50e4>
 4c0:	3f13490b 	svccc	0x0013490b
 4c4:	00180219 	andseq	r0, r8, r9, lsl r2
 4c8:	012e0f00 	teqeq	lr, r0, lsl #30
 4cc:	0e03193f 	mcreq	9, 0, r1, cr3, cr15, {1}
 4d0:	0b3b0b3a 	bleq	ec31c0 <__bss_end__+0xeb95a8>
 4d4:	193c1927 	ldmdbne	ip!, {r0, r1, r2, r5, r8, fp, ip}
 4d8:	01000000 	mrseq	r0, (UNDEF: 0)
 4dc:	0e250111 	mcreq	1, 1, r0, cr5, cr1, {0}
 4e0:	0e030b13 	vmoveq.32	d3[0], r0
 4e4:	01110e1b 	tsteq	r1, fp, lsl lr
 4e8:	17100612 			; <UNDEFINED> instruction: 0x17100612
 4ec:	24020000 	strcs	r0, [r2], #-0
 4f0:	3e0b0b00 	vmlacc.f64	d0, d11, d0
 4f4:	0008030b 	andeq	r0, r8, fp, lsl #6
 4f8:	00240300 	eoreq	r0, r4, r0, lsl #6
 4fc:	0b3e0b0b 	bleq	f83130 <__bss_end__+0xf79518>
 500:	00000e03 	andeq	r0, r0, r3, lsl #28
 504:	0b000f04 	bleq	411c <_start-0x3ee4>
 508:	0013490b 	andseq	r4, r3, fp, lsl #18
 50c:	00260500 	eoreq	r0, r6, r0, lsl #10
 510:	00001349 	andeq	r1, r0, r9, asr #6
 514:	3f012e06 	svccc	0x00012e06
 518:	3a0e0319 	bcc	381184 <__bss_end__+0x37756c>
 51c:	270b3b0b 	strcs	r3, [fp, -fp, lsl #22]
 520:	11134919 	tstne	r3, r9, lsl r9
 524:	40061201 	andmi	r1, r6, r1, lsl #4
 528:	19429618 	stmdbne	r2, {r3, r4, r9, sl, ip, pc}^
 52c:	00001301 	andeq	r1, r0, r1, lsl #6
 530:	03000507 	movweq	r0, #1287	; 0x507
 534:	3b0b3a08 	blcc	2ced5c <__bss_end__+0x2c5144>
 538:	0213490b 	andseq	r4, r3, #180224	; 0x2c000
 53c:	08000017 	stmdaeq	r0, {r0, r1, r2, r4}
 540:	19270115 	stmdbne	r7!, {r0, r2, r4, r8}
 544:	13011349 	movwne	r1, #4937	; 0x1349
 548:	05090000 	streq	r0, [r9, #-0]
 54c:	00134900 	andseq	r4, r3, r0, lsl #18
 550:	00340a00 	eorseq	r0, r4, r0, lsl #20
 554:	0b3a0e03 	bleq	e83d68 <__bss_end__+0xe7a150>
 558:	13490b3b 	movtne	r0, #39739	; 0x9b3b
 55c:	193c193f 	ldmdbne	ip!, {r0, r1, r2, r3, r4, r5, r8, fp, ip}
 560:	340b0000 	strcc	r0, [fp], #-0
 564:	3a0e0300 	bcc	38116c <__bss_end__+0x377554>
 568:	490b3b0b 	stmdbmi	fp, {r0, r1, r3, r8, r9, fp, ip, sp}
 56c:	02193f13 	andseq	r3, r9, #19, 30	; 0x4c
 570:	00000018 	andeq	r0, r0, r8, lsl r0
 574:	25011101 	strcs	r1, [r1, #-257]	; 0x101
 578:	030b130e 	movweq	r1, #45838	; 0xb30e
 57c:	110e1b0e 	tstne	lr, lr, lsl #22
 580:	10061201 	andne	r1, r6, r1, lsl #4
 584:	02000017 	andeq	r0, r0, #23
 588:	0b0b0024 	bleq	2c0620 <__bss_end__+0x2b6a08>
 58c:	08030b3e 	stmdaeq	r3, {r1, r2, r3, r4, r5, r8, r9, fp}
 590:	24030000 	strcs	r0, [r3], #-0
 594:	3e0b0b00 	vmlacc.f64	d0, d11, d0
 598:	000e030b 	andeq	r0, lr, fp, lsl #6
 59c:	000f0400 	andeq	r0, pc, r0, lsl #8
 5a0:	00000b0b 	andeq	r0, r0, fp, lsl #22
 5a4:	0b000f05 	bleq	41c0 <_start-0x3e40>
 5a8:	0013490b 	andseq	r4, r3, fp, lsl #18
 5ac:	00260600 	eoreq	r0, r6, r0, lsl #12
 5b0:	00001349 	andeq	r1, r0, r9, asr #6
 5b4:	03001607 	movweq	r1, #1543	; 0x607
 5b8:	3b0b3a0e 	blcc	2cedf8 <__bss_end__+0x2c51e0>
 5bc:	0013490b 	andseq	r4, r3, fp, lsl #18
 5c0:	01130800 	tsteq	r3, r0, lsl #16
 5c4:	0b0b0e03 	bleq	2c3dd8 <__bss_end__+0x2ba1c0>
 5c8:	0b3b0b3a 	bleq	ec32b8 <__bss_end__+0xeb96a0>
 5cc:	00001301 	andeq	r1, r0, r1, lsl #6
 5d0:	03000d09 	movweq	r0, #3337	; 0xd09
 5d4:	3813490e 	ldmdacc	r3, {r1, r2, r3, r8, fp, lr}
 5d8:	0019340b 	andseq	r3, r9, fp, lsl #8
 5dc:	012e0a00 	teqeq	lr, r0, lsl #20
 5e0:	0b3a0e03 	bleq	e83df4 <__bss_end__+0xe7a1dc>
 5e4:	19270b3b 	stmdbne	r7!, {r0, r1, r3, r4, r5, r8, r9, fp}
 5e8:	01111349 	tsteq	r1, r9, asr #6
 5ec:	18400612 	stmdane	r0, {r1, r4, r9, sl}^
 5f0:	01194297 			; <UNDEFINED> instruction: 0x01194297
 5f4:	0b000013 	bleq	648 <_start-0x79b8>
 5f8:	08030005 	stmdaeq	r3, {r0, r2}
 5fc:	0b3b0b3a 	bleq	ec32ec <__bss_end__+0xeb96d4>
 600:	17021349 	strne	r1, [r2, -r9, asr #6]
 604:	2e0c0000 	cdpcs	0, 0, cr0, cr12, cr0, {0}
 608:	3a080301 	bcc	201214 <__bss_end__+0x1f75fc>
 60c:	270b3b0b 	strcs	r3, [fp, -fp, lsl #22]
 610:	11134919 	tstne	r3, r9, lsl r9
 614:	40061201 	andmi	r1, r6, r1, lsl #4
 618:	19429718 	stmdbne	r2, {r3, r4, r8, r9, sl, ip, pc}^
 61c:	00001301 	andeq	r1, r0, r1, lsl #6
 620:	0300050d 	movweq	r0, #1293	; 0x50d
 624:	3b0b3a0e 	blcc	2cee64 <__bss_end__+0x2c524c>
 628:	0213490b 	andseq	r4, r3, #180224	; 0x2c000
 62c:	0e000017 	mcreq	0, 0, r0, cr0, cr7, {0}
 630:	0e030005 	cdpeq	0, 0, cr0, cr3, cr5, {0}
 634:	0b3b0b3a 	bleq	ec3324 <__bss_end__+0xeb970c>
 638:	18021349 	stmdane	r2, {r0, r3, r6, r8, r9, ip}
 63c:	340f0000 	strcc	r0, [pc], #-0	; 644 <_start-0x79bc>
 640:	3a080300 	bcc	201248 <__bss_end__+0x1f7630>
 644:	490b3b0b 	stmdbmi	fp, {r0, r1, r3, r8, r9, fp, ip, sp}
 648:	00180213 	andseq	r0, r8, r3, lsl r2
 64c:	00341000 	eorseq	r1, r4, r0
 650:	0b3a0803 	bleq	e82664 <__bss_end__+0xe78a4c>
 654:	13490b3b 	movtne	r0, #39739	; 0x9b3b
 658:	00001702 	andeq	r1, r0, r2, lsl #14
 65c:	03003411 	movweq	r3, #1041	; 0x411
 660:	3413490e 	ldrcc	r4, [r3], #-2318	; 0x90e
 664:	00180219 	andseq	r0, r8, r9, lsl r2
 668:	010b1200 	mrseq	r1, R11_fiq
 66c:	06120111 			; <UNDEFINED> instruction: 0x06120111
 670:	00001301 	andeq	r1, r0, r1, lsl #6
 674:	03003413 	movweq	r3, #1043	; 0x413
 678:	3b0b3a0e 	blcc	2ceeb8 <__bss_end__+0x2c52a0>
 67c:	0213490b 	andseq	r4, r3, #180224	; 0x2c000
 680:	14000017 	strne	r0, [r0], #-23
 684:	00018289 	andeq	r8, r1, r9, lsl #5
 688:	13310111 	teqne	r1, #1073741828	; 0x40000004
 68c:	89150000 	ldmdbhi	r5, {}	; <UNPREDICTABLE>
 690:	11010182 	smlabbne	r1, r2, r1, r0
 694:	01133101 	tsteq	r3, r1, lsl #2
 698:	16000013 			; <UNDEFINED> instruction: 0x16000013
 69c:	0001828a 	andeq	r8, r1, sl, lsl #5
 6a0:	42911802 	addsmi	r1, r1, #131072	; 0x20000
 6a4:	17000018 	smladne	r0, r8, r0, r0
 6a8:	01018289 	smlabbeq	r1, r9, r2, r8
 6ac:	13310111 	teqne	r1, #1073741828	; 0x40000004
 6b0:	01180000 	tsteq	r8, r0
 6b4:	01134901 	tsteq	r3, r1, lsl #18
 6b8:	19000013 	stmdbne	r0, {r0, r1, r4}
 6bc:	13490021 	movtne	r0, #36897	; 0x9021
 6c0:	00000b2f 	andeq	r0, r0, pc, lsr #22
 6c4:	3f012e1a 	svccc	0x00012e1a
 6c8:	3a0e0319 	bcc	381334 <__bss_end__+0x37771c>
 6cc:	270b3b0b 	strcs	r3, [fp, -fp, lsl #22]
 6d0:	12011119 	andne	r1, r1, #1073741830	; 0x40000006
 6d4:	97184006 	ldrls	r4, [r8, -r6]
 6d8:	13011942 	movwne	r1, #6466	; 0x1942
 6dc:	151b0000 	ldrne	r0, [fp, #-0]
 6e0:	49192701 	ldmdbmi	r9, {r0, r8, r9, sl, sp}
 6e4:	00130113 	andseq	r0, r3, r3, lsl r1
 6e8:	00051c00 	andeq	r1, r5, r0, lsl #24
 6ec:	00001349 	andeq	r1, r0, r9, asr #6
 6f0:	3f012e1d 	svccc	0x00012e1d
 6f4:	3a0e0319 	bcc	381360 <__bss_end__+0x377748>
 6f8:	270b3b0b 	strcs	r3, [fp, -fp, lsl #22]
 6fc:	11134919 	tstne	r3, r9, lsl r9
 700:	40061201 	andmi	r1, r6, r1, lsl #4
 704:	19429718 	stmdbne	r2, {r3, r4, r8, r9, sl, ip, pc}^
 708:	00001301 	andeq	r1, r0, r1, lsl #6
 70c:	55010b1e 	strpl	r0, [r1, #-2846]	; 0xb1e
 710:	1f000017 	svcne	0x00000017
 714:	0e030034 	mcreq	0, 0, r0, cr3, cr4, {1}
 718:	0b3b0b3a 	bleq	ec3408 <__bss_end__+0xeb97f0>
 71c:	193f1349 	ldmdbne	pc!, {r0, r3, r6, r8, r9, ip}	; <UNPREDICTABLE>
 720:	0000193c 	andeq	r1, r0, ip, lsr r9
 724:	3f002e20 	svccc	0x00002e20
 728:	3a0e0319 	bcc	381394 <__bss_end__+0x37777c>
 72c:	270b3b0b 	strcs	r3, [fp, -fp, lsl #22]
 730:	00193c19 	andseq	r3, r9, r9, lsl ip
 734:	012e2100 	teqeq	lr, r0, lsl #2
 738:	0e03193f 	mcreq	9, 0, r1, cr3, cr15, {1}
 73c:	0b3b0b3a 	bleq	ec342c <__bss_end__+0xeb9814>
 740:	13491927 	movtne	r1, #39207	; 0x9927
 744:	1301193c 	movwne	r1, #6460	; 0x193c
 748:	18220000 	stmdane	r2!, {}	; <UNPREDICTABLE>
 74c:	00000000 	andeq	r0, r0, r0
 750:	25011101 	strcs	r1, [r1, #-257]	; 0x101
 754:	030b130e 	movweq	r1, #45838	; 0xb30e
 758:	110e1b0e 	tstne	lr, lr, lsl #22
 75c:	10061201 	andne	r1, r6, r1, lsl #4
 760:	02000017 	andeq	r0, r0, #23
 764:	0b0b0024 	bleq	2c07fc <__bss_end__+0x2b6be4>
 768:	08030b3e 	stmdaeq	r3, {r1, r2, r3, r4, r5, r8, r9, fp}
 76c:	24030000 	strcs	r0, [r3], #-0
 770:	3e0b0b00 	vmlacc.f64	d0, d11, d0
 774:	000e030b 	andeq	r0, lr, fp, lsl #6
 778:	012e0400 	teqeq	lr, r0, lsl #8
 77c:	0e03193f 	mcreq	9, 0, r1, cr3, cr15, {1}
 780:	0b3b0b3a 	bleq	ec3470 <__bss_end__+0xeb9858>
 784:	01111927 	tsteq	r1, r7, lsr #18
 788:	18400612 	stmdane	r0, {r1, r4, r9, sl}^
 78c:	01194297 			; <UNDEFINED> instruction: 0x01194297
 790:	05000013 	streq	r0, [r0, #-19]
 794:	08030034 	stmdaeq	r3, {r2, r4, r5}
 798:	0b3b0b3a 	bleq	ec3488 <__bss_end__+0xeb9870>
 79c:	17021349 	strne	r1, [r2, -r9, asr #6]
 7a0:	2e060000 	cdpcs	0, 0, cr0, cr6, cr0, {0}
 7a4:	03193f01 	tsteq	r9, #1, 30
 7a8:	3b0b3a0e 	blcc	2cefe8 <__bss_end__+0x2c53d0>
 7ac:	1119270b 	tstne	r9, fp, lsl #14
 7b0:	40061201 	andmi	r1, r6, r1, lsl #4
 7b4:	19429718 	stmdbne	r2, {r3, r4, r8, r9, sl, ip, pc}^
 7b8:	01000000 	mrseq	r0, (UNDEF: 0)
 7bc:	0e250111 	mcreq	1, 1, r0, cr5, cr1, {0}
 7c0:	0e030b13 	vmoveq.32	d3[0], r0
 7c4:	01110e1b 	tsteq	r1, fp, lsl lr
 7c8:	17100612 			; <UNDEFINED> instruction: 0x17100612
 7cc:	24020000 	strcs	r0, [r2], #-0
 7d0:	3e0b0b00 	vmlacc.f64	d0, d11, d0
 7d4:	0008030b 	andeq	r0, r8, fp, lsl #6
 7d8:	00240300 	eoreq	r0, r4, r0, lsl #6
 7dc:	0b3e0b0b 	bleq	f83410 <__bss_end__+0xf797f8>
 7e0:	00000e03 	andeq	r0, r0, r3, lsl #28
 7e4:	0b000f04 	bleq	43fc <_start-0x3c04>
 7e8:	0013490b 	andseq	r4, r3, fp, lsl #18
 7ec:	00260500 	eoreq	r0, r6, r0, lsl #10
 7f0:	00001349 	andeq	r1, r0, r9, asr #6
 7f4:	3f012e06 	svccc	0x00012e06
 7f8:	3a0e0319 	bcc	381464 <__bss_end__+0x37784c>
 7fc:	270b3b0b 	strcs	r3, [fp, -fp, lsl #22]
 800:	12011119 	andne	r1, r1, #1073741830	; 0x40000006
 804:	97184006 	ldrls	r4, [r8, -r6]
 808:	13011942 	movwne	r1, #6466	; 0x1942
 80c:	89070000 	stmdbhi	r7, {}	; <UNPREDICTABLE>
 810:	11010182 	smlabbne	r1, r2, r1, r0
 814:	00130101 	andseq	r0, r3, r1, lsl #2
 818:	828a0800 	addhi	r0, sl, #0, 16
 81c:	18020001 	stmdane	r2, {r0}
 820:	00184291 	mulseq	r8, r1, r2
 824:	82890900 	addhi	r0, r9, #0, 18
 828:	01110101 	tsteq	r1, r1, lsl #2
 82c:	13011331 	movwne	r1, #4913	; 0x1331
 830:	890a0000 	stmdbhi	sl, {}	; <UNPREDICTABLE>
 834:	11000182 	smlabbne	r0, r2, r1, r0
 838:	00133101 	andseq	r3, r3, r1, lsl #2
 83c:	01150b00 	tsteq	r5, r0, lsl #22
 840:	13491927 	movtne	r1, #39207	; 0x9927
 844:	00001301 	andeq	r1, r0, r1, lsl #6
 848:	4900050c 	stmdbmi	r0, {r2, r3, r8, sl}
 84c:	0d000013 	stceq	0, cr0, [r0, #-76]	; 0xffffffb4
 850:	0e030034 	mcreq	0, 0, r0, cr3, cr4, {1}
 854:	0b3b0b3a 	bleq	ec3544 <__bss_end__+0xeb992c>
 858:	193f1349 	ldmdbne	pc!, {r0, r3, r6, r8, r9, ip}	; <UNPREDICTABLE>
 85c:	0000193c 	andeq	r1, r0, ip, lsr r9
 860:	3f012e0e 	svccc	0x00012e0e
 864:	3a0e0319 	bcc	3814d0 <__bss_end__+0x3778b8>
 868:	270b3b0b 	strcs	r3, [fp, -fp, lsl #22]
 86c:	01193c19 	tsteq	r9, r9, lsl ip
 870:	0f000013 	svceq	0x00000013
 874:	193f002e 	ldmdbne	pc!, {r1, r2, r3, r5}	; <UNPREDICTABLE>
 878:	0b3a0e03 	bleq	e8408c <__bss_end__+0xe7a474>
 87c:	19270b3b 	stmdbne	r7!, {r0, r1, r3, r4, r5, r8, r9, fp}
 880:	0000193c 	andeq	r1, r0, ip, lsr r9
 884:	01110100 	tsteq	r1, r0, lsl #2
 888:	0b130e25 	bleq	4c4124 <__bss_end__+0x4ba50c>
 88c:	0e1b0e03 	cdpeq	14, 1, cr0, cr11, cr3, {0}
 890:	06120111 			; <UNDEFINED> instruction: 0x06120111
 894:	00001710 	andeq	r1, r0, r0, lsl r7
 898:	0b002402 	bleq	98a8 <buf.4219+0x90>
 89c:	030b3e0b 	movweq	r3, #48651	; 0xbe0b
 8a0:	03000008 	movweq	r0, #8
 8a4:	0b0b0024 	bleq	2c093c <__bss_end__+0x2b6d24>
 8a8:	0e030b3e 	vmoveq.16	d3[0], r0
 8ac:	2e040000 	cdpcs	0, 0, cr0, cr4, cr0, {0}
 8b0:	03193f01 	tsteq	r9, #1, 30
 8b4:	3b0b3a0e 	blcc	2cf0f4 <__bss_end__+0x2c54dc>
 8b8:	1201110b 	andne	r1, r1, #-1073741822	; 0xc0000002
 8bc:	97184006 	ldrls	r4, [r8, -r6]
 8c0:	13011942 	movwne	r1, #6466	; 0x1942
 8c4:	34050000 	strcc	r0, [r5], #-0
 8c8:	3a0e0300 	bcc	3814d0 <__bss_end__+0x3778b8>
 8cc:	490b3b0b 	stmdbmi	fp, {r0, r1, r3, r8, r9, fp, ip, sp}
 8d0:	3c193f13 	ldccc	15, cr3, [r9], {19}
 8d4:	06000019 			; <UNDEFINED> instruction: 0x06000019
 8d8:	193f002e 	ldmdbne	pc!, {r1, r2, r3, r5}	; <UNPREDICTABLE>
 8dc:	0b3a0e03 	bleq	e840f0 <__bss_end__+0xe7a4d8>
 8e0:	19270b3b 	stmdbne	r7!, {r0, r1, r3, r4, r5, r8, r9, fp}
 8e4:	0000193c 	andeq	r1, r0, ip, lsr r9
 8e8:	03003407 	movweq	r3, #1031	; 0x407
 8ec:	3b0b3a08 	blcc	2cf114 <__bss_end__+0x2c54fc>
 8f0:	0213490b 	andseq	r4, r3, #180224	; 0x2c000
 8f4:	08000017 	stmdaeq	r0, {r0, r1, r2, r4}
 8f8:	0e030034 	mcreq	0, 0, r0, cr3, cr4, {1}
 8fc:	0b3b0b3a 	bleq	ec35ec <__bss_end__+0xeb99d4>
 900:	00001349 	andeq	r1, r0, r9, asr #6
 904:	01828909 	orreq	r8, r2, r9, lsl #18
 908:	31011100 	mrscc	r1, (UNDEF: 17)
 90c:	0a000013 	beq	960 <_start-0x76a0>
 910:	0b0b000f 	bleq	2c0954 <__bss_end__+0x2b6d3c>
 914:	00001349 	andeq	r1, r0, r9, asr #6
 918:	01110100 	tsteq	r1, r0, lsl #2
 91c:	0b130e25 	bleq	4c41b8 <__bss_end__+0x4ba5a0>
 920:	0e1b0e03 	cdpeq	14, 1, cr0, cr11, cr3, {0}
 924:	01111755 	tsteq	r1, r5, asr r7
 928:	00001710 	andeq	r1, r0, r0, lsl r7
 92c:	0b002402 	bleq	993c <buf.4219+0x124>
 930:	030b3e0b 	movweq	r3, #48651	; 0xbe0b
 934:	03000008 	movweq	r0, #8
 938:	0b0b0024 	bleq	2c09d0 <__bss_end__+0x2b6db8>
 93c:	0e030b3e 	vmoveq.16	d3[0], r0
 940:	2e040000 	cdpcs	0, 0, cr0, cr4, cr0, {0}
 944:	03193f01 	tsteq	r9, #1, 30
 948:	3b0b3a0e 	blcc	2cf188 <__bss_end__+0x2c5570>
 94c:	4919270b 	ldmdbmi	r9, {r0, r1, r3, r8, r9, sl, sp}
 950:	12011113 	andne	r1, r1, #-1073741820	; 0xc0000004
 954:	97184006 	ldrls	r4, [r8, -r6]
 958:	13011942 	movwne	r1, #6466	; 0x1942
 95c:	34050000 	strcc	r0, [r5], #-0
 960:	3a0e0300 	bcc	381568 <__bss_end__+0x377950>
 964:	490b3b0b 	stmdbmi	fp, {r0, r1, r3, r8, r9, fp, ip, sp}
 968:	00170213 	andseq	r0, r7, r3, lsl r2
 96c:	012e0600 	teqeq	lr, r0, lsl #12
 970:	0e03193f 	mcreq	9, 0, r1, cr3, cr15, {1}
 974:	0b3b0b3a 	bleq	ec3664 <__bss_end__+0xeb9a4c>
 978:	01111927 	tsteq	r1, r7, lsr #18
 97c:	18400612 	stmdane	r0, {r1, r4, r9, sl}^
 980:	01194297 			; <UNDEFINED> instruction: 0x01194297
 984:	07000013 	smladeq	r0, r3, r0, r0
 988:	0e030034 	mcreq	0, 0, r0, cr3, cr4, {1}
 98c:	0b3b0b3a 	bleq	ec367c <__bss_end__+0xeb9a64>
 990:	061c1349 	ldreq	r1, [ip], -r9, asr #6
 994:	34080000 	strcc	r0, [r8], #-0
 998:	3a0e0300 	bcc	3815a0 <__bss_end__+0x377988>
 99c:	490b3b0b 	stmdbmi	fp, {r0, r1, r3, r8, r9, fp, ip, sp}
 9a0:	000b1c13 	andeq	r1, fp, r3, lsl ip
 9a4:	82890900 	addhi	r0, r9, #0, 18
 9a8:	01110001 	tsteq	r1, r1
 9ac:	00001331 	andeq	r1, r0, r1, lsr r3
 9b0:	0182890a 	orreq	r8, r2, sl, lsl #18
 9b4:	31011101 	tstcc	r1, r1, lsl #2
 9b8:	00130113 	andseq	r0, r3, r3, lsl r1
 9bc:	828a0b00 	addhi	r0, sl, #0, 22
 9c0:	18020001 	stmdane	r2, {r0}
 9c4:	00184291 	mulseq	r8, r1, r2
 9c8:	82890c00 	addhi	r0, r9, #0, 24
 9cc:	01110101 	tsteq	r1, r1, lsl #2
 9d0:	00001331 	andeq	r1, r0, r1, lsr r3
 9d4:	4900260d 	stmdbmi	r0, {r0, r2, r3, r9, sl, sp}
 9d8:	0e000013 	mcreq	0, 0, r0, cr0, cr3, {0}
 9dc:	193f012e 	ldmdbne	pc!, {r1, r2, r3, r5, r8}	; <UNPREDICTABLE>
 9e0:	0b3a0e03 	bleq	e841f4 <__bss_end__+0xe7a5dc>
 9e4:	19270b3b 	stmdbne	r7!, {r0, r1, r3, r4, r5, r8, r9, fp}
 9e8:	1301193c 	movwne	r1, #6460	; 0x193c
 9ec:	050f0000 	streq	r0, [pc, #-0]	; 9f4 <_start-0x760c>
 9f0:	00134900 	andseq	r4, r3, r0, lsl #18
 9f4:	012e1000 	teqeq	lr, r0
 9f8:	0e03193f 	mcreq	9, 0, r1, cr3, cr15, {1}
 9fc:	0b3b0b3a 	bleq	ec36ec <__bss_end__+0xeb9ad4>
 a00:	193c1927 	ldmdbne	ip!, {r0, r1, r2, r5, r8, fp, ip}
 a04:	01000000 	mrseq	r0, (UNDEF: 0)
 a08:	0e250111 	mcreq	1, 1, r0, cr5, cr1, {0}
 a0c:	0e030b13 	vmoveq.32	d3[0], r0
 a10:	01110e1b 	tsteq	r1, fp, lsl lr
 a14:	17100612 			; <UNDEFINED> instruction: 0x17100612
 a18:	24020000 	strcs	r0, [r2], #-0
 a1c:	3e0b0b00 	vmlacc.f64	d0, d11, d0
 a20:	0008030b 	andeq	r0, r8, fp, lsl #6
 a24:	00240300 	eoreq	r0, r4, r0, lsl #6
 a28:	0b3e0b0b 	bleq	f8365c <__bss_end__+0xf79a44>
 a2c:	00000e03 	andeq	r0, r0, r3, lsl #28
 a30:	3f012e04 	svccc	0x00012e04
 a34:	3a0e0319 	bcc	3816a0 <__bss_end__+0x377a88>
 a38:	270b3b0b 	strcs	r3, [fp, -fp, lsl #22]
 a3c:	12011119 	andne	r1, r1, #1073741830	; 0x40000006
 a40:	97184006 	ldrls	r4, [r8, -r6]
 a44:	13011942 	movwne	r1, #6466	; 0x1942
 a48:	05050000 	streq	r0, [r5, #-0]
 a4c:	3a0e0300 	bcc	381654 <__bss_end__+0x377a3c>
 a50:	490b3b0b 	stmdbmi	fp, {r0, r1, r3, r8, r9, fp, ip, sp}
 a54:	00170213 	andseq	r0, r7, r3, lsl r2
 a58:	012e0600 	teqeq	lr, r0, lsl #12
 a5c:	0e03193f 	mcreq	9, 0, r1, cr3, cr15, {1}
 a60:	0b3b0b3a 	bleq	ec3750 <__bss_end__+0xeb9b38>
 a64:	13491927 	movtne	r1, #39207	; 0x9927
 a68:	06120111 			; <UNDEFINED> instruction: 0x06120111
 a6c:	42971840 	addsmi	r1, r7, #64, 16	; 0x400000
 a70:	00130119 	andseq	r0, r3, r9, lsl r1
 a74:	82890700 	addhi	r0, r9, #0, 14
 a78:	01110101 	tsteq	r1, r1, lsl #2
 a7c:	00001331 	andeq	r1, r0, r1, lsr r3
 a80:	01828a08 	orreq	r8, r2, r8, lsl #20
 a84:	91180200 	tstls	r8, r0, lsl #4
 a88:	00001842 	andeq	r1, r0, r2, asr #16
 a8c:	03003409 	movweq	r3, #1033	; 0x409
 a90:	3b0b3a08 	blcc	2cf2b8 <__bss_end__+0x2c56a0>
 a94:	0213490b 	andseq	r4, r3, #180224	; 0x2c000
 a98:	0a000018 	beq	b00 <_start-0x7500>
 a9c:	00018289 	andeq	r8, r1, r9, lsl #5
 aa0:	13310111 	teqne	r1, #1073741828	; 0x40000004
 aa4:	050b0000 	streq	r0, [fp, #-0]
 aa8:	3a080300 	bcc	2016b0 <__bss_end__+0x1f7a98>
 aac:	490b3b0b 	stmdbmi	fp, {r0, r1, r3, r8, r9, fp, ip, sp}
 ab0:	00170213 	andseq	r0, r7, r3, lsl r2
 ab4:	010b0c00 	tsteq	fp, r0, lsl #24
 ab8:	06120111 			; <UNDEFINED> instruction: 0x06120111
 abc:	00001301 	andeq	r1, r0, r1, lsl #6
 ac0:	0300340d 	movweq	r3, #1037	; 0x40d
 ac4:	3b0b3a08 	blcc	2cf2ec <__bss_end__+0x2c56d4>
 ac8:	0213490b 	andseq	r4, r3, #180224	; 0x2c000
 acc:	0e000017 	mcreq	0, 0, r0, cr0, cr7, {0}
 ad0:	193f012e 	ldmdbne	pc!, {r1, r2, r3, r5, r8}	; <UNPREDICTABLE>
 ad4:	0b3a0e03 	bleq	e842e8 <__bss_end__+0xe7a6d0>
 ad8:	19270b3b 	stmdbne	r7!, {r0, r1, r3, r4, r5, r8, r9, fp}
 adc:	193c1349 	ldmdbne	ip!, {r0, r3, r6, r8, r9, ip}
 ae0:	050f0000 	streq	r0, [pc, #-0]	; ae8 <_start-0x7518>
 ae4:	00134900 	andseq	r4, r3, r0, lsl #18
 ae8:	11010000 	mrsne	r0, (UNDEF: 1)
 aec:	130e2501 	movwne	r2, #58625	; 0xe501
 af0:	1b0e030b 	blne	381724 <__bss_end__+0x377b0c>
 af4:	1201110e 	andne	r1, r1, #-2147483645	; 0x80000003
 af8:	00171006 	andseq	r1, r7, r6
 afc:	00240200 	eoreq	r0, r4, r0, lsl #4
 b00:	0b3e0b0b 	bleq	f83734 <__bss_end__+0xf79b1c>
 b04:	00000e03 	andeq	r0, r0, r3, lsl #28
 b08:	0b002403 	bleq	9b1c <buf.4219+0x304>
 b0c:	030b3e0b 	movweq	r3, #48651	; 0xbe0b
 b10:	04000008 	streq	r0, [r0], #-8
 b14:	0b0b0104 	bleq	2c0f2c <__bss_end__+0x2b7314>
 b18:	0b3b0b3a 	bleq	ec3808 <__bss_end__+0xeb9bf0>
 b1c:	00001301 	andeq	r1, r0, r1, lsl #6
 b20:	03002805 	movweq	r2, #2053	; 0x805
 b24:	000d1c0e 	andeq	r1, sp, lr, lsl #24
 b28:	00160600 	andseq	r0, r6, r0, lsl #12
 b2c:	0b3a0e03 	bleq	e84340 <__bss_end__+0xe7a728>
 b30:	13490b3b 	movtne	r0, #39739	; 0x9b3b
 b34:	2e070000 	cdpcs	0, 0, cr0, cr7, cr0, {0}
 b38:	03193f01 	tsteq	r9, #1, 30
 b3c:	3b0b3a0e 	blcc	2cf37c <__bss_end__+0x2c5764>
 b40:	1119270b 	tstne	r9, fp, lsl #14
 b44:	40061201 	andmi	r1, r6, r1, lsl #4
 b48:	19429718 	stmdbne	r2, {r3, r4, r8, r9, sl, ip, pc}^
 b4c:	00001301 	andeq	r1, r0, r1, lsl #6
 b50:	03000508 	movweq	r0, #1288	; 0x508
 b54:	3b0b3a08 	blcc	2cf37c <__bss_end__+0x2c5764>
 b58:	0213490b 	andseq	r4, r3, #180224	; 0x2c000
 b5c:	09000017 	stmdbeq	r0, {r0, r1, r2, r4}
 b60:	0e030034 	mcreq	0, 0, r0, cr3, cr4, {1}
 b64:	0b3b0b3a 	bleq	ec3854 <__bss_end__+0xeb9c3c>
 b68:	17021349 	strne	r1, [r2, -r9, asr #6]
 b6c:	890a0000 	stmdbhi	sl, {}	; <UNPREDICTABLE>
 b70:	11010182 	smlabbne	r1, r2, r1, r0
 b74:	01133101 	tsteq	r3, r1, lsl #2
 b78:	0b000013 	bleq	bcc <_start-0x7434>
 b7c:	0001828a 	andeq	r8, r1, sl, lsl #5
 b80:	42911802 	addsmi	r1, r1, #131072	; 0x20000
 b84:	0c000018 	stceq	0, cr0, [r0], {24}
 b88:	01018289 	smlabbeq	r1, r9, r2, r8
 b8c:	13310111 	teqne	r1, #1073741828	; 0x40000004
 b90:	0f0d0000 	svceq	0x000d0000
 b94:	490b0b00 	stmdbmi	fp, {r8, r9, fp}
 b98:	0e000013 	mcreq	0, 0, r0, cr0, cr3, {0}
 b9c:	13490035 	movtne	r0, #36917	; 0x9035
 ba0:	2e0f0000 	cdpcs	0, 0, cr0, cr15, cr0, {0}
 ba4:	03193f01 	tsteq	r9, #1, 30
 ba8:	3b0b3a0e 	blcc	2cf3e8 <__bss_end__+0x2c57d0>
 bac:	4919270b 	ldmdbmi	r9, {r0, r1, r3, r8, r9, sl, sp}
 bb0:	12011113 	andne	r1, r1, #-1073741820	; 0xc0000004
 bb4:	97184006 	ldrls	r4, [r8, -r6]
 bb8:	13011942 	movwne	r1, #6466	; 0x1942
 bbc:	34100000 	ldrcc	r0, [r0], #-0
 bc0:	3a080300 	bcc	2017c8 <__bss_end__+0x1f7bb0>
 bc4:	490b3b0b 	stmdbmi	fp, {r0, r1, r3, r8, r9, fp, ip, sp}
 bc8:	00170213 	andseq	r0, r7, r3, lsl r2
 bcc:	82891100 	addhi	r1, r9, #0, 2
 bd0:	01110001 	tsteq	r1, r1
 bd4:	00001331 	andeq	r1, r0, r1, lsr r3
 bd8:	03000512 	movweq	r0, #1298	; 0x512
 bdc:	3b0b3a0e 	blcc	2cf41c <__bss_end__+0x2c5804>
 be0:	0213490b 	andseq	r4, r3, #180224	; 0x2c000
 be4:	13000017 	movwne	r0, #23
 be8:	193f012e 	ldmdbne	pc!, {r1, r2, r3, r5, r8}	; <UNPREDICTABLE>
 bec:	0b3a0e03 	bleq	e84400 <__bss_end__+0xe7a7e8>
 bf0:	1927053b 	stmdbne	r7!, {r0, r1, r3, r4, r5, r8, sl}
 bf4:	01111349 	tsteq	r1, r9, asr #6
 bf8:	18400612 	stmdane	r0, {r1, r4, r9, sl}^
 bfc:	01194297 			; <UNDEFINED> instruction: 0x01194297
 c00:	14000013 	strne	r0, [r0], #-19
 c04:	0e030005 	cdpeq	0, 0, cr0, cr3, cr5, {0}
 c08:	053b0b3a 	ldreq	r0, [fp, #-2874]!	; 0xb3a
 c0c:	17021349 	strne	r1, [r2, -r9, asr #6]
 c10:	2e150000 	cdpcs	0, 1, cr0, cr5, cr0, {0}
 c14:	03193f01 	tsteq	r9, #1, 30
 c18:	3b0b3a0e 	blcc	2cf458 <__bss_end__+0x2c5840>
 c1c:	11192705 	tstne	r9, r5, lsl #14
 c20:	40061201 	andmi	r1, r6, r1, lsl #4
 c24:	19429718 	stmdbne	r2, {r3, r4, r8, r9, sl, ip, pc}^
 c28:	00001301 	andeq	r1, r0, r1, lsl #6
 c2c:	03000516 	movweq	r0, #1302	; 0x516
 c30:	3b0b3a08 	blcc	2cf458 <__bss_end__+0x2c5840>
 c34:	02134905 	andseq	r4, r3, #81920	; 0x14000
 c38:	17000017 	smladne	r0, r7, r0, r0
 c3c:	0e030034 	mcreq	0, 0, r0, cr3, cr4, {1}
 c40:	053b0b3a 	ldreq	r0, [fp, #-2874]!	; 0xb3a
 c44:	17021349 	strne	r1, [r2, -r9, asr #6]
 c48:	0b180000 	bleq	600c50 <__bss_end__+0x5f7038>
 c4c:	12011101 	andne	r1, r1, #1073741824	; 0x40000000
 c50:	00130106 	andseq	r0, r3, r6, lsl #2
 c54:	00341900 	eorseq	r1, r4, r0, lsl #18
 c58:	0b3a0e03 	bleq	e8446c <__bss_end__+0xe7a854>
 c5c:	13490b3b 	movtne	r0, #39739	; 0x9b3b
 c60:	1802193f 	stmdane	r2, {r0, r1, r2, r3, r4, r5, r8, fp, ip}
 c64:	341a0000 	ldrcc	r0, [sl], #-0
 c68:	3a0e0300 	bcc	381870 <__bss_end__+0x377c58>
 c6c:	49053b0b 	stmdbmi	r5, {r0, r1, r3, r8, r9, fp, ip, sp}
 c70:	02193f13 	andseq	r3, r9, #19, 30	; 0x4c
 c74:	1b000018 	blne	cdc <_start-0x7324>
 c78:	193f012e 	ldmdbne	pc!, {r1, r2, r3, r5, r8}	; <UNPREDICTABLE>
 c7c:	0b3a0e03 	bleq	e84490 <__bss_end__+0xe7a878>
 c80:	19270b3b 	stmdbne	r7!, {r0, r1, r3, r4, r5, r8, r9, fp}
 c84:	193c1349 	ldmdbne	ip!, {r0, r3, r6, r8, r9, ip}
 c88:	00001301 	andeq	r1, r0, r1, lsl #6
 c8c:	4900051c 	stmdbmi	r0, {r2, r3, r4, r8, sl}
 c90:	1d000013 	stcne	0, cr0, [r0, #-76]	; 0xffffffb4
 c94:	13490026 	movtne	r0, #36902	; 0x9026
 c98:	351e0000 	ldrcc	r0, [lr, #-0]
 c9c:	1f000000 	svcne	0x00000000
 ca0:	193f012e 	ldmdbne	pc!, {r1, r2, r3, r5, r8}	; <UNPREDICTABLE>
 ca4:	0b3a0e03 	bleq	e844b8 <__bss_end__+0xe7a8a0>
 ca8:	19270b3b 	stmdbne	r7!, {r0, r1, r3, r4, r5, r8, r9, fp}
 cac:	1301193c 	movwne	r1, #6460	; 0x193c
 cb0:	2e200000 	cdpcs	0, 2, cr0, cr0, cr0, {0}
 cb4:	03193f00 	tsteq	r9, #0, 30
 cb8:	3b0b3a0e 	blcc	2cf4f8 <__bss_end__+0x2c58e0>
 cbc:	3c19270b 	ldccc	7, cr2, [r9], {11}
 cc0:	00000019 	andeq	r0, r0, r9, lsl r0
 cc4:	25011101 	strcs	r1, [r1, #-257]	; 0x101
 cc8:	030b130e 	movweq	r1, #45838	; 0xb30e
 ccc:	110e1b0e 	tstne	lr, lr, lsl #22
 cd0:	10061201 	andne	r1, r6, r1, lsl #4
 cd4:	02000017 	andeq	r0, r0, #23
 cd8:	0b0b0024 	bleq	2c0d70 <__bss_end__+0x2b7158>
 cdc:	08030b3e 	stmdaeq	r3, {r1, r2, r3, r4, r5, r8, r9, fp}
 ce0:	24030000 	strcs	r0, [r3], #-0
 ce4:	3e0b0b00 	vmlacc.f64	d0, d11, d0
 ce8:	000e030b 	andeq	r0, lr, fp, lsl #6
 cec:	01040400 	tsteq	r4, r0, lsl #8
 cf0:	0b3a0b0b 	bleq	e83924 <__bss_end__+0xe79d0c>
 cf4:	13010b3b 	movwne	r0, #6971	; 0x1b3b
 cf8:	28050000 	stmdacs	r5, {}	; <UNPREDICTABLE>
 cfc:	1c0e0300 	stcne	3, cr0, [lr], {-0}
 d00:	0600000d 	streq	r0, [r0], -sp
 d04:	0e030016 	mcreq	0, 0, r0, cr3, cr6, {0}
 d08:	0b3b0b3a 	bleq	ec39f8 <__bss_end__+0xeb9de0>
 d0c:	00001349 	andeq	r1, r0, r9, asr #6
 d10:	3f012e07 	svccc	0x00012e07
 d14:	3a0e0319 	bcc	381980 <__bss_end__+0x377d68>
 d18:	270b3b0b 	strcs	r3, [fp, -fp, lsl #22]
 d1c:	12011119 	andne	r1, r1, #1073741830	; 0x40000006
 d20:	97184006 	ldrls	r4, [r8, -r6]
 d24:	13011942 	movwne	r1, #6466	; 0x1942
 d28:	89080000 	stmdbhi	r8, {}	; <UNPREDICTABLE>
 d2c:	11000182 	smlabbne	r0, r2, r1, r0
 d30:	00133101 	andseq	r3, r3, r1, lsl #2
 d34:	82890900 	addhi	r0, r9, #0, 18
 d38:	01110101 	tsteq	r1, r1, lsl #2
 d3c:	13011331 	movwne	r1, #4913	; 0x1331
 d40:	8a0a0000 	bhi	280d48 <__bss_end__+0x277130>
 d44:	02000182 	andeq	r0, r0, #-2147483616	; 0x80000020
 d48:	18429118 	stmdane	r2, {r3, r4, r8, ip, pc}^
 d4c:	2e0b0000 	cdpcs	0, 0, cr0, cr11, cr0, {0}
 d50:	03193f01 	tsteq	r9, #1, 30
 d54:	3b0b3a0e 	blcc	2cf594 <__bss_end__+0x2c597c>
 d58:	4919270b 	ldmdbmi	r9, {r0, r1, r3, r8, r9, sl, sp}
 d5c:	12011113 	andne	r1, r1, #-1073741820	; 0xc0000004
 d60:	97184006 	ldrls	r4, [r8, -r6]
 d64:	13011942 	movwne	r1, #6466	; 0x1942
 d68:	050c0000 	streq	r0, [ip, #-0]
 d6c:	3a080300 	bcc	201974 <__bss_end__+0x1f7d5c>
 d70:	490b3b0b 	stmdbmi	fp, {r0, r1, r3, r8, r9, fp, ip, sp}
 d74:	00170213 	andseq	r0, r7, r3, lsl r2
 d78:	82890d00 	addhi	r0, r9, #0, 26
 d7c:	01110101 	tsteq	r1, r1, lsl #2
 d80:	00001331 	andeq	r1, r0, r1, lsr r3
 d84:	0300340e 	movweq	r3, #1038	; 0x40e
 d88:	3b0b3a0e 	blcc	2cf5c8 <__bss_end__+0x2c59b0>
 d8c:	3f13490b 	svccc	0x0013490b
 d90:	00180219 	andseq	r0, r8, r9, lsl r2
 d94:	000f0f00 	andeq	r0, pc, r0, lsl #30
 d98:	13490b0b 	movtne	r0, #39691	; 0x9b0b
 d9c:	35100000 	ldrcc	r0, [r0, #-0]
 da0:	00134900 	andseq	r4, r3, r0, lsl #18
 da4:	002e1100 	eoreq	r1, lr, r0, lsl #2
 da8:	0e03193f 	mcreq	9, 0, r1, cr3, cr15, {1}
 dac:	0b3b0b3a 	bleq	ec3a9c <__bss_end__+0xeb9e84>
 db0:	193c1927 	ldmdbne	ip!, {r0, r1, r2, r5, r8, fp, ip}
 db4:	2e120000 	cdpcs	0, 1, cr0, cr2, cr0, {0}
 db8:	03193f01 	tsteq	r9, #1, 30
 dbc:	3b0b3a0e 	blcc	2cf5fc <__bss_end__+0x2c59e4>
 dc0:	3c19270b 	ldccc	7, cr2, [r9], {11}
 dc4:	00130119 	andseq	r0, r3, r9, lsl r1
 dc8:	00051300 	andeq	r1, r5, r0, lsl #6
 dcc:	00001349 	andeq	r1, r0, r9, asr #6
 dd0:	3f012e14 	svccc	0x00012e14
 dd4:	3a0e0319 	bcc	381a40 <__bss_end__+0x377e28>
 dd8:	270b3b0b 	strcs	r3, [fp, -fp, lsl #22]
 ddc:	3c134919 	ldccc	9, cr4, [r3], {25}
 de0:	00130119 	andseq	r0, r3, r9, lsl r1
 de4:	00261500 	eoreq	r1, r6, r0, lsl #10
 de8:	00001349 	andeq	r1, r0, r9, asr #6
 dec:	00003516 	andeq	r3, r0, r6, lsl r5
	...

Disassembly of section .debug_loc:

00000000 <.debug_loc>:
       0:	00000000 	andeq	r0, r0, r0
       4:	00000018 	andeq	r0, r0, r8, lsl r0
       8:	18500001 	ldmdane	r0, {r0}^
       c:	28000000 	stmdacs	r0, {}	; <UNPREDICTABLE>
      10:	04000000 	streq	r0, [r0], #-0
      14:	5001f300 	andpl	pc, r1, r0, lsl #6
      18:	0000289f 	muleq	r0, pc, r8	; <UNPREDICTABLE>
      1c:	00002b00 	andeq	r2, r0, r0, lsl #22
      20:	50000100 	andpl	r0, r0, r0, lsl #2
      24:	0000002b 	andeq	r0, r0, fp, lsr #32
      28:	00000050 	andeq	r0, r0, r0, asr r0
      2c:	01f30004 	mvnseq	r0, r4
      30:	00009f50 	andeq	r9, r0, r0, asr pc
      34:	00000000 	andeq	r0, r0, r0
      38:	00200000 	eoreq	r0, r0, r0
      3c:	00240000 	eoreq	r0, r4, r0
      40:	00010000 	andeq	r0, r1, r0
      44:	00000050 	andeq	r0, r0, r0, asr r0
      48:	00000000 	andeq	r0, r0, r0
      4c:	00005000 	andeq	r5, r0, r0
      50:	00006400 	andeq	r6, r0, r0, lsl #8
      54:	50000100 	andpl	r0, r0, r0, lsl #2
      58:	00000064 	andeq	r0, r0, r4, rrx
      5c:	0000020c 	andeq	r0, r0, ip, lsl #4
      60:	01f30004 	mvnseq	r0, r4
      64:	00009f50 	andeq	r9, r0, r0, asr pc
      68:	00000000 	andeq	r0, r0, r0
      6c:	00500000 	subseq	r0, r0, r0
      70:	00c00000 	sbceq	r0, r0, r0
      74:	00020000 	andeq	r0, r2, r0
      78:	00c09f30 	sbceq	r9, r0, r0, lsr pc
      7c:	00e80000 	rsceq	r0, r8, r0
      80:	00010000 	andeq	r0, r1, r0
      84:	0000e858 	andeq	lr, r0, r8, asr r8
      88:	00011000 	andeq	r1, r1, r0
      8c:	78000600 	stmdavc	r0, {r9, sl}
      90:	21007700 	tstcs	r0, r0, lsl #14
      94:	0001109f 	muleq	r1, pc, r0	; <UNPREDICTABLE>
      98:	00013800 	andeq	r3, r1, r0, lsl #16
      9c:	78000900 	stmdavc	r0, {r8, fp}
      a0:	21007700 	tstcs	r0, r0, lsl #14
      a4:	9f210076 	svcls	0x00210076
      a8:	00000138 	andeq	r0, r0, r8, lsr r1
      ac:	00000160 	andeq	r0, r0, r0, ror #2
      b0:	0078000c 	rsbseq	r0, r8, ip
      b4:	76210077 			; <UNDEFINED> instruction: 0x76210077
      b8:	00752100 	rsbseq	r2, r5, r0, lsl #2
      bc:	01609f21 	cmneq	r0, r1, lsr #30
      c0:	01880000 	orreq	r0, r8, r0
      c4:	000f0000 	andeq	r0, pc, r0
      c8:	00770078 	rsbseq	r0, r7, r8, ror r0
      cc:	21007621 	tstcs	r0, r1, lsr #12
      d0:	74210075 	strtvc	r0, [r1], #-117	; 0x75
      d4:	889f2100 	ldmhi	pc, {r8, sp}	; <UNPREDICTABLE>
      d8:	b0000001 	andlt	r0, r0, r1
      dc:	12000001 	andne	r0, r0, #1
      e0:	77007800 	strvc	r7, [r0, -r0, lsl #16]
      e4:	00762100 	rsbseq	r2, r6, r0, lsl #2
      e8:	21007521 	tstcs	r0, r1, lsr #10
      ec:	79210074 	stmdbvc	r1!, {r2, r4, r5, r6}
      f0:	b09f2100 	addslt	r2, pc, r0, lsl #2
      f4:	c8000001 	stmdagt	r0, {r0}
      f8:	15000001 	strne	r0, [r0, #-1]
      fc:	77007800 	strvc	r7, [r0, -r0, lsl #16]
     100:	00762100 	rsbseq	r2, r6, r0, lsl #2
     104:	21007521 	tstcs	r0, r1, lsr #10
     108:	79210074 	stmdbvc	r1!, {r2, r4, r5, r6}
     10c:	00702100 	rsbseq	r2, r0, r0, lsl #2
     110:	01f09f21 	mvnseq	r9, r1, lsr #30
     114:	020c0000 	andeq	r0, ip, #0
     118:	00010000 	andeq	r0, r1, r0
     11c:	00000050 	andeq	r0, r0, r0, asr r0
     120:	00000000 	andeq	r0, r0, r0
     124:	00006c00 	andeq	r6, r0, r0, lsl #24
     128:	00009400 	andeq	r9, r0, r0, lsl #8
     12c:	5a000100 	bpl	534 <_start-0x7acc>
     130:	00000094 	muleq	r0, r4, r0
     134:	000001d0 	ldrdeq	r0, [r0], -r0	; <UNPREDICTABLE>
     138:	007c0005 	rsbseq	r0, ip, r5
     13c:	d09f2531 	addsle	r2, pc, r1, lsr r5	; <UNPREDICTABLE>
     140:	0c000001 	stceq	0, cr0, [r0], {1}
     144:	09000002 	stmdbeq	r0, {r1}
     148:	5001f300 	andpl	pc, r1, r0, lsl #6
     14c:	31060c23 	tstcc	r6, r3, lsr #24
     150:	00009f25 	andeq	r9, r0, r5, lsr #30
     154:	00000000 	andeq	r0, r0, r0
     158:	00840000 	addeq	r0, r4, r0
     15c:	00880000 	addeq	r0, r8, r0
     160:	00010000 	andeq	r0, r1, r0
     164:	00000052 	andeq	r0, r0, r2, asr r0
     168:	00000000 	andeq	r0, r0, r0
     16c:	00009800 	andeq	r9, r0, r0, lsl #16
     170:	00009c00 	andeq	r9, r0, r0, lsl #24
     174:	52000100 	andpl	r0, r0, #0, 2
	...
     180:	000000c4 	andeq	r0, r0, r4, asr #1
     184:	000000c8 	andeq	r0, r0, r8, asr #1
     188:	00520001 	subseq	r0, r2, r1
     18c:	00000000 	andeq	r0, r0, r0
     190:	ec000000 	stc	0, cr0, [r0], {-0}
     194:	f0000000 			; <UNDEFINED> instruction: 0xf0000000
     198:	01000000 	mrseq	r0, (UNDEF: 0)
     19c:	00005200 	andeq	r5, r0, r0, lsl #4
     1a0:	00000000 	andeq	r0, r0, r0
     1a4:	01140000 	tsteq	r4, r0
     1a8:	01180000 	tsteq	r8, r0
     1ac:	00010000 	andeq	r0, r1, r0
     1b0:	00000052 	andeq	r0, r0, r2, asr r0
     1b4:	00000000 	andeq	r0, r0, r0
     1b8:	00013c00 	andeq	r3, r1, r0, lsl #24
     1bc:	00014000 	andeq	r4, r1, r0
     1c0:	52000100 	andpl	r0, r0, #0, 2
	...
     1cc:	00000164 	andeq	r0, r0, r4, ror #2
     1d0:	00000168 	andeq	r0, r0, r8, ror #2
     1d4:	00520001 	subseq	r0, r2, r1
     1d8:	00000000 	andeq	r0, r0, r0
     1dc:	8c000000 	stchi	0, cr0, [r0], {-0}
     1e0:	90000001 	andls	r0, r0, r1
     1e4:	01000001 	tsteq	r0, r1
     1e8:	00005200 	andeq	r5, r0, r0, lsl #4
     1ec:	00000000 	andeq	r0, r0, r0
     1f0:	01b40000 			; <UNDEFINED> instruction: 0x01b40000
     1f4:	01b80000 			; <UNDEFINED> instruction: 0x01b80000
     1f8:	00010000 	andeq	r0, r1, r0
     1fc:	00000052 	andeq	r0, r0, r2, asr r0
     200:	00000000 	andeq	r0, r0, r0
     204:	0001f400 	andeq	pc, r1, r0, lsl #8
     208:	0001f800 	andeq	pc, r1, r0, lsl #16
     20c:	52000100 	andpl	r0, r0, #0, 2
	...
     218:	0000020c 	andeq	r0, r0, ip, lsl #4
     21c:	00000424 	andeq	r0, r0, r4, lsr #8
     220:	24510001 	ldrbcs	r0, [r1], #-1
     224:	9c000004 	stcls	0, cr0, [r0], {4}
     228:	04000004 	streq	r0, [r0], #-4
     22c:	5101f300 	mrspl	pc, SP_irq	; <UNPREDICTABLE>
     230:	0000009f 	muleq	r0, pc, r0	; <UNPREDICTABLE>
     234:	00000000 	andeq	r0, r0, r0
     238:	00023800 	andeq	r3, r2, r0, lsl #16
     23c:	00027000 	andeq	r7, r2, r0
     240:	55000100 	strpl	r0, [r0, #-256]	; 0x100
	...
     24c:	0000024c 	andeq	r0, r0, ip, asr #4
     250:	00000250 	andeq	r0, r0, r0, asr r2
     254:	00520001 	subseq	r0, r2, r1
     258:	00000000 	andeq	r0, r0, r0
     25c:	64000000 	strvs	r0, [r0], #-0
     260:	24000002 	strcs	r0, [r0], #-2
     264:	08000004 	stmdaeq	r0, {r2}
     268:	31007100 	mrscc	r7, (UNDEF: 16)
     26c:	1aff081a 	bne	fffc22dc <__bss_end__+0xfffb86c4>
     270:	0000009f 	muleq	r0, pc, r0	; <UNPREDICTABLE>
     274:	00000000 	andeq	r0, r0, r0
     278:	00026400 	andeq	r6, r2, r0, lsl #8
     27c:	00027400 	andeq	r7, r2, r0, lsl #8
     280:	52000100 	andpl	r0, r0, #0, 2
     284:	00000274 	andeq	r0, r0, r4, ror r2
     288:	00000474 	andeq	r0, r0, r4, ror r4
     28c:	00700002 	rsbseq	r0, r0, r2
	...
     298:	00000264 	andeq	r0, r0, r4, ror #4
     29c:	000002a4 	andeq	r0, r0, r4, lsr #5
     2a0:	00710008 	rsbseq	r0, r1, r8
     2a4:	ff081a31 			; <UNDEFINED> instruction: 0xff081a31
     2a8:	02a49f1a 	adceq	r9, r4, #26, 30	; 0x68
     2ac:	02e40000 	rsceq	r0, r4, #0
     2b0:	00080000 	andeq	r0, r8, r0
     2b4:	1a320071 	bne	c80480 <__bss_end__+0xc76868>
     2b8:	9f1aff08 	svcls	0x001aff08
     2bc:	000002e4 	andeq	r0, r0, r4, ror #5
     2c0:	00000324 	andeq	r0, r0, r4, lsr #6
     2c4:	00710008 	rsbseq	r0, r1, r8
     2c8:	ff081a34 			; <UNDEFINED> instruction: 0xff081a34
     2cc:	03249f1a 	teqeq	r4, #26, 30	; 0x68
     2d0:	03640000 	cmneq	r4, #0
     2d4:	00080000 	andeq	r0, r8, r0
     2d8:	1a380071 	bne	e004a4 <__bss_end__+0xdf688c>
     2dc:	9f1aff08 	svcls	0x001aff08
     2e0:	00000364 	andeq	r0, r0, r4, ror #6
     2e4:	000003a8 	andeq	r0, r0, r8, lsr #7
     2e8:	00710008 	rsbseq	r0, r1, r8
     2ec:	ff081a40 			; <UNDEFINED> instruction: 0xff081a40
     2f0:	03a89f1a 			; <UNDEFINED> instruction: 0x03a89f1a
     2f4:	03e80000 	mvneq	r0, #0
     2f8:	00090000 	andeq	r0, r9, r0
     2fc:	20080071 	andcs	r0, r8, r1, ror r0
     300:	1aff081a 	bne	fffc2370 <__bss_end__+0xfffb8758>
     304:	0003e89f 	muleq	r3, pc, r8	; <UNPREDICTABLE>
     308:	00042400 	andeq	r2, r4, r0, lsl #8
     30c:	71000900 	tstvc	r0, r0, lsl #18
     310:	1a400800 	bne	1002318 <__bss_end__+0xff8700>
     314:	9f1aff08 	svcls	0x001aff08
	...
     320:	0000028c 	andeq	r0, r0, ip, lsl #5
     324:	00000290 	muleq	r0, r0, r2
     328:	00520001 	subseq	r0, r2, r1
     32c:	00000000 	andeq	r0, r0, r0
     330:	a4000000 	strge	r0, [r0], #-0
     334:	24000002 	strcs	r0, [r0], #-2
     338:	08000004 	stmdaeq	r0, {r2}
     33c:	32007100 	andcc	r7, r0, #0, 2
     340:	1aff081a 	bne	fffc23b0 <__bss_end__+0xfffb8798>
     344:	0000009f 	muleq	r0, pc, r0	; <UNPREDICTABLE>
     348:	00000000 	andeq	r0, r0, r0
     34c:	0002a400 	andeq	sl, r2, r0, lsl #8
     350:	0002b400 	andeq	fp, r2, r0, lsl #8
     354:	52000100 	andpl	r0, r0, #0, 2
     358:	000002b4 			; <UNDEFINED> instruction: 0x000002b4
     35c:	00000474 	andeq	r0, r0, r4, ror r4
     360:	00700002 	rsbseq	r0, r0, r2
	...
     36c:	000002a4 	andeq	r0, r0, r4, lsr #5
     370:	000002e4 	andeq	r0, r0, r4, ror #5
     374:	00710008 	rsbseq	r0, r1, r8
     378:	ff081a32 			; <UNDEFINED> instruction: 0xff081a32
     37c:	02e49f1a 	rsceq	r9, r4, #26, 30	; 0x68
     380:	03240000 	teqeq	r4, #0
     384:	00080000 	andeq	r0, r8, r0
     388:	1a340071 	bne	d00554 <__bss_end__+0xcf693c>
     38c:	9f1aff08 	svcls	0x001aff08
     390:	00000324 	andeq	r0, r0, r4, lsr #6
     394:	00000364 	andeq	r0, r0, r4, ror #6
     398:	00710008 	rsbseq	r0, r1, r8
     39c:	ff081a38 			; <UNDEFINED> instruction: 0xff081a38
     3a0:	03649f1a 	cmneq	r4, #26, 30	; 0x68
     3a4:	03a80000 			; <UNDEFINED> instruction: 0x03a80000
     3a8:	00080000 	andeq	r0, r8, r0
     3ac:	1a400071 	bne	1000578 <__bss_end__+0xff6960>
     3b0:	9f1aff08 	svcls	0x001aff08
     3b4:	000003a8 	andeq	r0, r0, r8, lsr #7
     3b8:	000003e8 	andeq	r0, r0, r8, ror #7
     3bc:	00710009 	rsbseq	r0, r1, r9
     3c0:	081a2008 	ldmdaeq	sl, {r3, sp}
     3c4:	e89f1aff 	ldm	pc, {r0, r1, r2, r3, r4, r5, r6, r7, r9, fp, ip}	; <UNPREDICTABLE>
     3c8:	24000003 	strcs	r0, [r0], #-3
     3cc:	09000004 	stmdbeq	r0, {r2}
     3d0:	08007100 	stmdaeq	r0, {r8, ip, sp, lr}
     3d4:	ff081a40 			; <UNDEFINED> instruction: 0xff081a40
     3d8:	00009f1a 	andeq	r9, r0, sl, lsl pc
     3dc:	00000000 	andeq	r0, r0, r0
     3e0:	02cc0000 	sbceq	r0, ip, #0
     3e4:	02d00000 	sbcseq	r0, r0, #0
     3e8:	00010000 	andeq	r0, r1, r0
     3ec:	00000052 	andeq	r0, r0, r2, asr r0
     3f0:	00000000 	andeq	r0, r0, r0
     3f4:	0002e400 	andeq	lr, r2, r0, lsl #8
     3f8:	00042400 	andeq	r2, r4, r0, lsl #8
     3fc:	71000800 	tstvc	r0, r0, lsl #16
     400:	081a3400 	ldmdaeq	sl, {sl, ip, sp}
     404:	009f1aff 			; <UNDEFINED> instruction: 0x009f1aff
     408:	00000000 	andeq	r0, r0, r0
     40c:	e4000000 	str	r0, [r0], #-0
     410:	f4000002 	vst4.8	{d0-d3}, [r0], r2
     414:	01000002 	tsteq	r0, r2
     418:	02f45200 	rscseq	r5, r4, #0, 4
     41c:	04740000 	ldrbteq	r0, [r4], #-0
     420:	00020000 	andeq	r0, r2, r0
     424:	00000070 	andeq	r0, r0, r0, ror r0
     428:	00000000 	andeq	r0, r0, r0
     42c:	02e40000 	rsceq	r0, r4, #0
     430:	03240000 	teqeq	r4, #0
     434:	00080000 	andeq	r0, r8, r0
     438:	1a340071 	bne	d00604 <__bss_end__+0xcf69ec>
     43c:	9f1aff08 	svcls	0x001aff08
     440:	00000324 	andeq	r0, r0, r4, lsr #6
     444:	00000364 	andeq	r0, r0, r4, ror #6
     448:	00710008 	rsbseq	r0, r1, r8
     44c:	ff081a38 			; <UNDEFINED> instruction: 0xff081a38
     450:	03649f1a 	cmneq	r4, #26, 30	; 0x68
     454:	03a80000 			; <UNDEFINED> instruction: 0x03a80000
     458:	00080000 	andeq	r0, r8, r0
     45c:	1a400071 	bne	1000628 <__bss_end__+0xff6a10>
     460:	9f1aff08 	svcls	0x001aff08
     464:	000003a8 	andeq	r0, r0, r8, lsr #7
     468:	000003e8 	andeq	r0, r0, r8, ror #7
     46c:	00710009 	rsbseq	r0, r1, r9
     470:	081a2008 	ldmdaeq	sl, {r3, sp}
     474:	e89f1aff 	ldm	pc, {r0, r1, r2, r3, r4, r5, r6, r7, r9, fp, ip}	; <UNPREDICTABLE>
     478:	24000003 	strcs	r0, [r0], #-3
     47c:	09000004 	stmdbeq	r0, {r2}
     480:	08007100 	stmdaeq	r0, {r8, ip, sp, lr}
     484:	ff081a40 			; <UNDEFINED> instruction: 0xff081a40
     488:	00009f1a 	andeq	r9, r0, sl, lsl pc
     48c:	00000000 	andeq	r0, r0, r0
     490:	030c0000 	movweq	r0, #49152	; 0xc000
     494:	03100000 	tsteq	r0, #0
     498:	00010000 	andeq	r0, r1, r0
     49c:	00000052 	andeq	r0, r0, r2, asr r0
     4a0:	00000000 	andeq	r0, r0, r0
     4a4:	00032400 	andeq	r2, r3, r0, lsl #8
     4a8:	00042400 	andeq	r2, r4, r0, lsl #8
     4ac:	71000800 	tstvc	r0, r0, lsl #16
     4b0:	081a3800 	ldmdaeq	sl, {fp, ip, sp}
     4b4:	009f1aff 			; <UNDEFINED> instruction: 0x009f1aff
     4b8:	00000000 	andeq	r0, r0, r0
     4bc:	24000000 	strcs	r0, [r0], #-0
     4c0:	34000003 	strcc	r0, [r0], #-3
     4c4:	01000003 	tsteq	r0, r3
     4c8:	03345200 	teqeq	r4, #0, 4
     4cc:	04740000 	ldrbteq	r0, [r4], #-0
     4d0:	00020000 	andeq	r0, r2, r0
     4d4:	00000070 	andeq	r0, r0, r0, ror r0
     4d8:	00000000 	andeq	r0, r0, r0
     4dc:	03240000 	teqeq	r4, #0
     4e0:	03640000 	cmneq	r4, #0
     4e4:	00080000 	andeq	r0, r8, r0
     4e8:	1a380071 	bne	e006b4 <__bss_end__+0xdf6a9c>
     4ec:	9f1aff08 	svcls	0x001aff08
     4f0:	00000364 	andeq	r0, r0, r4, ror #6
     4f4:	000003a8 	andeq	r0, r0, r8, lsr #7
     4f8:	00710008 	rsbseq	r0, r1, r8
     4fc:	ff081a40 			; <UNDEFINED> instruction: 0xff081a40
     500:	03a89f1a 			; <UNDEFINED> instruction: 0x03a89f1a
     504:	03e80000 	mvneq	r0, #0
     508:	00090000 	andeq	r0, r9, r0
     50c:	20080071 	andcs	r0, r8, r1, ror r0
     510:	1aff081a 	bne	fffc2580 <__bss_end__+0xfffb8968>
     514:	0003e89f 	muleq	r3, pc, r8	; <UNPREDICTABLE>
     518:	00042400 	andeq	r2, r4, r0, lsl #8
     51c:	71000900 	tstvc	r0, r0, lsl #18
     520:	1a400800 	bne	1002528 <__bss_end__+0xff8910>
     524:	9f1aff08 	svcls	0x001aff08
	...
     530:	0000034c 	andeq	r0, r0, ip, asr #6
     534:	00000350 	andeq	r0, r0, r0, asr r3
     538:	00520001 	subseq	r0, r2, r1
     53c:	00000000 	andeq	r0, r0, r0
     540:	64000000 	strvs	r0, [r0], #-0
     544:	24000003 	strcs	r0, [r0], #-3
     548:	08000004 	stmdaeq	r0, {r2}
     54c:	40007100 	andmi	r7, r0, r0, lsl #2
     550:	1aff081a 	bne	fffc25c0 <__bss_end__+0xfffb89a8>
     554:	0000009f 	muleq	r0, pc, r0	; <UNPREDICTABLE>
     558:	00000000 	andeq	r0, r0, r0
     55c:	00036400 	andeq	r6, r3, r0, lsl #8
     560:	00037400 	andeq	r7, r3, r0, lsl #8
     564:	52000100 	andpl	r0, r0, #0, 2
     568:	00000374 	andeq	r0, r0, r4, ror r3
     56c:	00000474 	andeq	r0, r0, r4, ror r4
     570:	00700002 	rsbseq	r0, r0, r2
	...
     57c:	00000364 	andeq	r0, r0, r4, ror #6
     580:	000003a8 	andeq	r0, r0, r8, lsr #7
     584:	00710008 	rsbseq	r0, r1, r8
     588:	ff081a40 			; <UNDEFINED> instruction: 0xff081a40
     58c:	03a89f1a 			; <UNDEFINED> instruction: 0x03a89f1a
     590:	03e80000 	mvneq	r0, #0
     594:	00090000 	andeq	r0, r9, r0
     598:	20080071 	andcs	r0, r8, r1, ror r0
     59c:	1aff081a 	bne	fffc260c <__bss_end__+0xfffb89f4>
     5a0:	0003e89f 	muleq	r3, pc, r8	; <UNPREDICTABLE>
     5a4:	00042400 	andeq	r2, r4, r0, lsl #8
     5a8:	71000900 	tstvc	r0, r0, lsl #18
     5ac:	1a400800 	bne	10025b4 <__bss_end__+0xff899c>
     5b0:	9f1aff08 	svcls	0x001aff08
	...
     5bc:	00000390 	muleq	r0, r0, r3
     5c0:	00000394 	muleq	r0, r4, r3
     5c4:	00520001 	subseq	r0, r2, r1
     5c8:	00000000 	andeq	r0, r0, r0
     5cc:	a8000000 	stmdage	r0, {}	; <UNPREDICTABLE>
     5d0:	24000003 	strcs	r0, [r0], #-3
     5d4:	09000004 	stmdbeq	r0, {r2}
     5d8:	08007100 	stmdaeq	r0, {r8, ip, sp, lr}
     5dc:	ff081a20 			; <UNDEFINED> instruction: 0xff081a20
     5e0:	00009f1a 	andeq	r9, r0, sl, lsl pc
     5e4:	00000000 	andeq	r0, r0, r0
     5e8:	03a80000 			; <UNDEFINED> instruction: 0x03a80000
     5ec:	03b80000 			; <UNDEFINED> instruction: 0x03b80000
     5f0:	00010000 	andeq	r0, r1, r0
     5f4:	0003b852 	andeq	fp, r3, r2, asr r8
     5f8:	00047400 	andeq	r7, r4, r0, lsl #8
     5fc:	70000200 	andvc	r0, r0, r0, lsl #4
	...
     608:	0003a800 	andeq	sl, r3, r0, lsl #16
     60c:	0003e800 	andeq	lr, r3, r0, lsl #16
     610:	71000900 	tstvc	r0, r0, lsl #18
     614:	1a200800 	bne	80261c <__bss_end__+0x7f8a04>
     618:	9f1aff08 	svcls	0x001aff08
     61c:	000003e8 	andeq	r0, r0, r8, ror #7
     620:	00000424 	andeq	r0, r0, r4, lsr #8
     624:	00710009 	rsbseq	r0, r1, r9
     628:	081a4008 	ldmdaeq	sl, {r3, lr}
     62c:	009f1aff 			; <UNDEFINED> instruction: 0x009f1aff
     630:	00000000 	andeq	r0, r0, r0
     634:	d0000000 	andle	r0, r0, r0
     638:	d4000003 	strle	r0, [r0], #-3
     63c:	01000003 	tsteq	r0, r3
     640:	00005200 	andeq	r5, r0, r0, lsl #4
     644:	00000000 	andeq	r0, r0, r0
     648:	03e80000 	mvneq	r0, #0
     64c:	04240000 	strteq	r0, [r4], #-0
     650:	00090000 	andeq	r0, r9, r0
     654:	40080071 	andmi	r0, r8, r1, ror r0
     658:	1aff081a 	bne	fffc26c8 <__bss_end__+0xfffb8ab0>
     65c:	0000009f 	muleq	r0, pc, r0	; <UNPREDICTABLE>
     660:	00000000 	andeq	r0, r0, r0
     664:	0003e800 	andeq	lr, r3, r0, lsl #16
     668:	0003f800 	andeq	pc, r3, r0, lsl #16
     66c:	52000100 	andpl	r0, r0, #0, 2
     670:	000003f8 	strdeq	r0, [r0], -r8
     674:	00000474 	andeq	r0, r0, r4, ror r4
     678:	00700002 	rsbseq	r0, r0, r2
	...
     684:	00000410 	andeq	r0, r0, r0, lsl r4
     688:	00000414 	andeq	r0, r0, r4, lsl r4
     68c:	00520001 	subseq	r0, r2, r1
     690:	00000000 	andeq	r0, r0, r0
     694:	28000000 	stmdacs	r0, {}	; <UNPREDICTABLE>
     698:	38000004 	stmdacc	r0, {r2}
     69c:	01000004 	tsteq	r0, r4
     6a0:	04385200 	ldrteq	r5, [r8], #-512	; 0x200
     6a4:	04740000 	ldrbteq	r0, [r4], #-0
     6a8:	00020000 	andeq	r0, r2, r0
     6ac:	00000070 	andeq	r0, r0, r0, ror r0
     6b0:	00000000 	andeq	r0, r0, r0
     6b4:	04500000 	ldrbeq	r0, [r0], #-0
     6b8:	04540000 	ldrbeq	r0, [r4], #-0
     6bc:	00010000 	andeq	r0, r1, r0
     6c0:	00000052 	andeq	r0, r0, r2, asr r0
     6c4:	00000000 	andeq	r0, r0, r0
     6c8:	00045c00 	andeq	r5, r4, r0, lsl #24
     6cc:	00047400 	andeq	r7, r4, r0, lsl #8
     6d0:	70000200 	andvc	r0, r0, r0, lsl #4
	...
     6dc:	00048400 	andeq	r8, r4, r0, lsl #8
     6e0:	00048800 	andeq	r8, r4, r0, lsl #16
     6e4:	52000100 	andpl	r0, r0, #0, 2
	...
     6f0:	000004f8 	strdeq	r0, [r0], -r8
     6f4:	00000500 	andeq	r0, r0, r0, lsl #10
     6f8:	9f300002 	svcls	0x00300002
     6fc:	00000740 	andeq	r0, r0, r0, asr #14
     700:	00000748 	andeq	r0, r0, r8, asr #14
     704:	00560001 	subseq	r0, r6, r1
	...
     710:	34000005 	strcc	r0, [r0], #-5
     714:	01000007 	tsteq	r0, r7
     718:	07345600 	ldreq	r5, [r4, -r0, lsl #12]!
     71c:	07380000 	ldreq	r0, [r8, -r0]!
     720:	00030000 	andeq	r0, r3, r0
     724:	009f7f76 	addseq	r7, pc, r6, ror pc	; <UNPREDICTABLE>
     728:	00000000 	andeq	r0, r0, r0
     72c:	04000000 	streq	r0, [r0], #-0
     730:	3f000005 	svccc	0x00000005
     734:	01000007 	tsteq	r0, r7
     738:	00005300 	andeq	r5, r0, r0, lsl #6
     73c:	00000000 	andeq	r0, r0, r0
     740:	05200000 	streq	r0, [r0, #-0]!
     744:	05280000 	streq	r0, [r8, #-0]!
     748:	00010000 	andeq	r0, r1, r0
     74c:	0005285c 	andeq	r2, r5, ip, asr r8
     750:	00053000 	andeq	r3, r5, r0
     754:	03000500 	movweq	r0, #1280	; 0x500
     758:	00009808 	andeq	r9, r0, r8, lsl #16
	...
     764:	00000534 	andeq	r0, r0, r4, lsr r5
     768:	00000538 	andeq	r0, r0, r8, lsr r5
     76c:	00520001 	subseq	r0, r2, r1
     770:	00000000 	andeq	r0, r0, r0
     774:	48000000 	stmdami	r0, {}	; <UNPREDICTABLE>
     778:	34000005 	strcc	r0, [r0], #-5
     77c:	08000007 	stmdaeq	r0, {r0, r1, r2}
     780:	31007600 	tstcc	r0, r0, lsl #12
     784:	1aff081a 	bne	fffc27f4 <__bss_end__+0xfffb8bdc>
     788:	0007349f 	muleq	r7, pc, r4	; <UNPREDICTABLE>
     78c:	00073800 	andeq	r3, r7, r0, lsl #16
     790:	76000800 	strvc	r0, [r0], -r0, lsl #16
     794:	081a317f 	ldmdaeq	sl, {r0, r1, r2, r3, r4, r5, r6, r8, ip, sp}
     798:	009f1aff 			; <UNDEFINED> instruction: 0x009f1aff
     79c:	00000000 	andeq	r0, r0, r0
     7a0:	48000000 	stmdami	r0, {}	; <UNPREDICTABLE>
     7a4:	54000005 	strpl	r0, [r0], #-5
     7a8:	01000005 	tsteq	r0, r5
     7ac:	05545200 	ldrbeq	r5, [r4, #-512]	; 0x200
     7b0:	071c0000 	ldreq	r0, [ip, -r0]
     7b4:	00050000 	andeq	r0, r5, r0
     7b8:	00980803 	addseq	r0, r8, r3, lsl #16
	...
     7c4:	00054800 	andeq	r4, r5, r0, lsl #16
     7c8:	00058000 	andeq	r8, r5, r0
     7cc:	76000800 	strvc	r0, [r0], -r0, lsl #16
     7d0:	081a3100 	ldmdaeq	sl, {r8, ip, sp}
     7d4:	809f1aff 			; <UNDEFINED> instruction: 0x809f1aff
     7d8:	b8000005 	stmdalt	r0, {r0, r2}
     7dc:	08000005 	stmdaeq	r0, {r0, r2}
     7e0:	32007600 	andcc	r7, r0, #0, 12
     7e4:	1aff081a 	bne	fffc2854 <__bss_end__+0xfffb8c3c>
     7e8:	0005b89f 	muleq	r5, pc, r8	; <UNPREDICTABLE>
     7ec:	0005f000 	andeq	pc, r5, r0
     7f0:	76000800 	strvc	r0, [r0], -r0, lsl #16
     7f4:	081a3400 	ldmdaeq	sl, {sl, ip, sp}
     7f8:	f09f1aff 			; <UNDEFINED> instruction: 0xf09f1aff
     7fc:	28000005 	stmdacs	r0, {r0, r2}
     800:	08000006 	stmdaeq	r0, {r1, r2}
     804:	38007600 	stmdacc	r0, {r9, sl, ip, sp, lr}
     808:	1aff081a 	bne	fffc2878 <__bss_end__+0xfffb8c60>
     80c:	0006289f 	muleq	r6, pc, r8	; <UNPREDICTABLE>
     810:	00066400 	andeq	r6, r6, r0, lsl #8
     814:	76000800 	strvc	r0, [r0], -r0, lsl #16
     818:	081a4000 	ldmdaeq	sl, {lr}
     81c:	649f1aff 	ldrvs	r1, [pc], #2815	; 824 <_start-0x77dc>
     820:	9c000006 	stcls	0, cr0, [r0], {6}
     824:	09000006 	stmdbeq	r0, {r1, r2}
     828:	08007600 	stmdaeq	r0, {r9, sl, ip, sp, lr}
     82c:	ff081a20 			; <UNDEFINED> instruction: 0xff081a20
     830:	069c9f1a 			; <UNDEFINED> instruction: 0x069c9f1a
     834:	06d40000 	ldrbeq	r0, [r4], r0
     838:	00090000 	andeq	r0, r9, r0
     83c:	40080076 	andmi	r0, r8, r6, ror r0
     840:	1aff081a 	bne	fffc28b0 <__bss_end__+0xfffb8c98>
     844:	0006d49f 	muleq	r6, pc, r4	; <UNPREDICTABLE>
     848:	00073400 	andeq	r3, r7, r0, lsl #8
     84c:	76000900 	strvc	r0, [r0], -r0, lsl #18
     850:	1a800900 	bne	fe002c58 <__bss_end__+0xfdff9040>
     854:	9f1aff08 	svcls	0x001aff08
     858:	00000734 	andeq	r0, r0, r4, lsr r7
     85c:	00000738 	andeq	r0, r0, r8, lsr r7
     860:	7f760009 	svcvc	0x00760009
     864:	081a8009 	ldmdaeq	sl, {r0, r3, pc}
     868:	009f1aff 			; <UNDEFINED> instruction: 0x009f1aff
     86c:	00000000 	andeq	r0, r0, r0
     870:	6c000000 	stcvs	0, cr0, [r0], {-0}
     874:	70000005 	andvc	r0, r0, r5
     878:	01000005 	tsteq	r0, r5
     87c:	00005200 	andeq	r5, r0, r0, lsl #4
     880:	00000000 	andeq	r0, r0, r0
     884:	05800000 	streq	r0, [r0]
     888:	07340000 	ldreq	r0, [r4, -r0]!
     88c:	00080000 	andeq	r0, r8, r0
     890:	1a320076 	bne	c80a70 <__bss_end__+0xc76e58>
     894:	9f1aff08 	svcls	0x001aff08
     898:	00000734 	andeq	r0, r0, r4, lsr r7
     89c:	00000738 	andeq	r0, r0, r8, lsr r7
     8a0:	7f760008 	svcvc	0x00760008
     8a4:	ff081a32 			; <UNDEFINED> instruction: 0xff081a32
     8a8:	00009f1a 	andeq	r9, r0, sl, lsl pc
     8ac:	00000000 	andeq	r0, r0, r0
     8b0:	05800000 	streq	r0, [r0]
     8b4:	058c0000 	streq	r0, [ip]
     8b8:	00010000 	andeq	r0, r1, r0
     8bc:	00058c52 	andeq	r8, r5, r2, asr ip
     8c0:	00071c00 	andeq	r1, r7, r0, lsl #24
     8c4:	03000500 	movweq	r0, #1280	; 0x500
     8c8:	00009808 	andeq	r9, r0, r8, lsl #16
	...
     8d4:	00000580 	andeq	r0, r0, r0, lsl #11
     8d8:	000005b8 			; <UNDEFINED> instruction: 0x000005b8
     8dc:	00760008 	rsbseq	r0, r6, r8
     8e0:	ff081a32 			; <UNDEFINED> instruction: 0xff081a32
     8e4:	05b89f1a 	ldreq	r9, [r8, #3866]!	; 0xf1a
     8e8:	05f00000 	ldrbeq	r0, [r0, #0]!
     8ec:	00080000 	andeq	r0, r8, r0
     8f0:	1a340076 	bne	d00ad0 <__bss_end__+0xcf6eb8>
     8f4:	9f1aff08 	svcls	0x001aff08
     8f8:	000005f0 	strdeq	r0, [r0], -r0	; <UNPREDICTABLE>
     8fc:	00000628 	andeq	r0, r0, r8, lsr #12
     900:	00760008 	rsbseq	r0, r6, r8
     904:	ff081a38 			; <UNDEFINED> instruction: 0xff081a38
     908:	06289f1a 	qadd16eq	r9, r8, sl
     90c:	06640000 	strbteq	r0, [r4], -r0
     910:	00080000 	andeq	r0, r8, r0
     914:	1a400076 	bne	1000af4 <__bss_end__+0xff6edc>
     918:	9f1aff08 	svcls	0x001aff08
     91c:	00000664 	andeq	r0, r0, r4, ror #12
     920:	0000069c 	muleq	r0, ip, r6
     924:	00760009 	rsbseq	r0, r6, r9
     928:	081a2008 	ldmdaeq	sl, {r3, sp}
     92c:	9c9f1aff 	vldmials	pc, {s2-s256}
     930:	d4000006 	strle	r0, [r0], #-6
     934:	09000006 	stmdbeq	r0, {r1, r2}
     938:	08007600 	stmdaeq	r0, {r9, sl, ip, sp, lr}
     93c:	ff081a40 			; <UNDEFINED> instruction: 0xff081a40
     940:	06d49f1a 			; <UNDEFINED> instruction: 0x06d49f1a
     944:	07340000 	ldreq	r0, [r4, -r0]!
     948:	00090000 	andeq	r0, r9, r0
     94c:	80090076 	andhi	r0, r9, r6, ror r0
     950:	1aff081a 	bne	fffc29c0 <__bss_end__+0xfffb8da8>
     954:	0007349f 	muleq	r7, pc, r4	; <UNPREDICTABLE>
     958:	00073800 	andeq	r3, r7, r0, lsl #16
     95c:	76000900 	strvc	r0, [r0], -r0, lsl #18
     960:	1a80097f 	bne	fe002f64 <__bss_end__+0xfdff934c>
     964:	9f1aff08 	svcls	0x001aff08
	...
     970:	000005a4 	andeq	r0, r0, r4, lsr #11
     974:	000005a8 	andeq	r0, r0, r8, lsr #11
     978:	00520001 	subseq	r0, r2, r1
     97c:	00000000 	andeq	r0, r0, r0
     980:	b8000000 	stmdalt	r0, {}	; <UNPREDICTABLE>
     984:	34000005 	strcc	r0, [r0], #-5
     988:	08000007 	stmdaeq	r0, {r0, r1, r2}
     98c:	34007600 	strcc	r7, [r0], #-1536	; 0x600
     990:	1aff081a 	bne	fffc2a00 <__bss_end__+0xfffb8de8>
     994:	0007349f 	muleq	r7, pc, r4	; <UNPREDICTABLE>
     998:	00073800 	andeq	r3, r7, r0, lsl #16
     99c:	76000800 	strvc	r0, [r0], -r0, lsl #16
     9a0:	081a347f 	ldmdaeq	sl, {r0, r1, r2, r3, r4, r5, r6, sl, ip, sp}
     9a4:	009f1aff 			; <UNDEFINED> instruction: 0x009f1aff
     9a8:	00000000 	andeq	r0, r0, r0
     9ac:	b8000000 	stmdalt	r0, {}	; <UNPREDICTABLE>
     9b0:	c4000005 	strgt	r0, [r0], #-5
     9b4:	01000005 	tsteq	r0, r5
     9b8:	05c45200 	strbeq	r5, [r4, #512]	; 0x200
     9bc:	071c0000 	ldreq	r0, [ip, -r0]
     9c0:	00050000 	andeq	r0, r5, r0
     9c4:	00980803 	addseq	r0, r8, r3, lsl #16
	...
     9d0:	0005b800 	andeq	fp, r5, r0, lsl #16
     9d4:	0005f000 	andeq	pc, r5, r0
     9d8:	76000800 	strvc	r0, [r0], -r0, lsl #16
     9dc:	081a3400 	ldmdaeq	sl, {sl, ip, sp}
     9e0:	f09f1aff 			; <UNDEFINED> instruction: 0xf09f1aff
     9e4:	28000005 	stmdacs	r0, {r0, r2}
     9e8:	08000006 	stmdaeq	r0, {r1, r2}
     9ec:	38007600 	stmdacc	r0, {r9, sl, ip, sp, lr}
     9f0:	1aff081a 	bne	fffc2a60 <__bss_end__+0xfffb8e48>
     9f4:	0006289f 	muleq	r6, pc, r8	; <UNPREDICTABLE>
     9f8:	00066400 	andeq	r6, r6, r0, lsl #8
     9fc:	76000800 	strvc	r0, [r0], -r0, lsl #16
     a00:	081a4000 	ldmdaeq	sl, {lr}
     a04:	649f1aff 	ldrvs	r1, [pc], #2815	; a0c <_start-0x75f4>
     a08:	9c000006 	stcls	0, cr0, [r0], {6}
     a0c:	09000006 	stmdbeq	r0, {r1, r2}
     a10:	08007600 	stmdaeq	r0, {r9, sl, ip, sp, lr}
     a14:	ff081a20 			; <UNDEFINED> instruction: 0xff081a20
     a18:	069c9f1a 			; <UNDEFINED> instruction: 0x069c9f1a
     a1c:	06d40000 	ldrbeq	r0, [r4], r0
     a20:	00090000 	andeq	r0, r9, r0
     a24:	40080076 	andmi	r0, r8, r6, ror r0
     a28:	1aff081a 	bne	fffc2a98 <__bss_end__+0xfffb8e80>
     a2c:	0006d49f 	muleq	r6, pc, r4	; <UNPREDICTABLE>
     a30:	00073400 	andeq	r3, r7, r0, lsl #8
     a34:	76000900 	strvc	r0, [r0], -r0, lsl #18
     a38:	1a800900 	bne	fe002e40 <__bss_end__+0xfdff9228>
     a3c:	9f1aff08 	svcls	0x001aff08
     a40:	00000734 	andeq	r0, r0, r4, lsr r7
     a44:	00000738 	andeq	r0, r0, r8, lsr r7
     a48:	7f760009 	svcvc	0x00760009
     a4c:	081a8009 	ldmdaeq	sl, {r0, r3, pc}
     a50:	009f1aff 			; <UNDEFINED> instruction: 0x009f1aff
     a54:	00000000 	andeq	r0, r0, r0
     a58:	dc000000 	stcle	0, cr0, [r0], {-0}
     a5c:	e0000005 	and	r0, r0, r5
     a60:	01000005 	tsteq	r0, r5
     a64:	00005200 	andeq	r5, r0, r0, lsl #4
     a68:	00000000 	andeq	r0, r0, r0
     a6c:	05f00000 	ldrbeq	r0, [r0, #0]!
     a70:	07340000 	ldreq	r0, [r4, -r0]!
     a74:	00080000 	andeq	r0, r8, r0
     a78:	1a380076 	bne	e00c58 <__bss_end__+0xdf7040>
     a7c:	9f1aff08 	svcls	0x001aff08
     a80:	00000734 	andeq	r0, r0, r4, lsr r7
     a84:	00000738 	andeq	r0, r0, r8, lsr r7
     a88:	7f760008 	svcvc	0x00760008
     a8c:	ff081a38 			; <UNDEFINED> instruction: 0xff081a38
     a90:	00009f1a 	andeq	r9, r0, sl, lsl pc
     a94:	00000000 	andeq	r0, r0, r0
     a98:	05f00000 	ldrbeq	r0, [r0, #0]!
     a9c:	05fc0000 	ldrbeq	r0, [ip, #0]!
     aa0:	00010000 	andeq	r0, r1, r0
     aa4:	0005fc52 	andeq	pc, r5, r2, asr ip	; <UNPREDICTABLE>
     aa8:	00071c00 	andeq	r1, r7, r0, lsl #24
     aac:	03000500 	movweq	r0, #1280	; 0x500
     ab0:	00009808 	andeq	r9, r0, r8, lsl #16
	...
     abc:	000005f0 	strdeq	r0, [r0], -r0	; <UNPREDICTABLE>
     ac0:	00000628 	andeq	r0, r0, r8, lsr #12
     ac4:	00760008 	rsbseq	r0, r6, r8
     ac8:	ff081a38 			; <UNDEFINED> instruction: 0xff081a38
     acc:	06289f1a 	qadd16eq	r9, r8, sl
     ad0:	06640000 	strbteq	r0, [r4], -r0
     ad4:	00080000 	andeq	r0, r8, r0
     ad8:	1a400076 	bne	1000cb8 <__bss_end__+0xff70a0>
     adc:	9f1aff08 	svcls	0x001aff08
     ae0:	00000664 	andeq	r0, r0, r4, ror #12
     ae4:	0000069c 	muleq	r0, ip, r6
     ae8:	00760009 	rsbseq	r0, r6, r9
     aec:	081a2008 	ldmdaeq	sl, {r3, sp}
     af0:	9c9f1aff 	vldmials	pc, {s2-s256}
     af4:	d4000006 	strle	r0, [r0], #-6
     af8:	09000006 	stmdbeq	r0, {r1, r2}
     afc:	08007600 	stmdaeq	r0, {r9, sl, ip, sp, lr}
     b00:	ff081a40 			; <UNDEFINED> instruction: 0xff081a40
     b04:	06d49f1a 			; <UNDEFINED> instruction: 0x06d49f1a
     b08:	07340000 	ldreq	r0, [r4, -r0]!
     b0c:	00090000 	andeq	r0, r9, r0
     b10:	80090076 	andhi	r0, r9, r6, ror r0
     b14:	1aff081a 	bne	fffc2b84 <__bss_end__+0xfffb8f6c>
     b18:	0007349f 	muleq	r7, pc, r4	; <UNPREDICTABLE>
     b1c:	00073800 	andeq	r3, r7, r0, lsl #16
     b20:	76000900 	strvc	r0, [r0], -r0, lsl #18
     b24:	1a80097f 	bne	fe003128 <__bss_end__+0xfdff9510>
     b28:	9f1aff08 	svcls	0x001aff08
	...
     b34:	00000614 	andeq	r0, r0, r4, lsl r6
     b38:	00000618 	andeq	r0, r0, r8, lsl r6
     b3c:	00520001 	subseq	r0, r2, r1
     b40:	00000000 	andeq	r0, r0, r0
     b44:	28000000 	stmdacs	r0, {}	; <UNPREDICTABLE>
     b48:	34000006 	strcc	r0, [r0], #-6
     b4c:	08000007 	stmdaeq	r0, {r0, r1, r2}
     b50:	40007600 	andmi	r7, r0, r0, lsl #12
     b54:	1aff081a 	bne	fffc2bc4 <__bss_end__+0xfffb8fac>
     b58:	0007349f 	muleq	r7, pc, r4	; <UNPREDICTABLE>
     b5c:	00073800 	andeq	r3, r7, r0, lsl #16
     b60:	76000800 	strvc	r0, [r0], -r0, lsl #16
     b64:	081a407f 	ldmdaeq	sl, {r0, r1, r2, r3, r4, r5, r6, lr}
     b68:	009f1aff 			; <UNDEFINED> instruction: 0x009f1aff
     b6c:	00000000 	andeq	r0, r0, r0
     b70:	28000000 	stmdacs	r0, {}	; <UNPREDICTABLE>
     b74:	34000006 	strcc	r0, [r0], #-6
     b78:	01000006 	tsteq	r0, r6
     b7c:	06345200 	ldrteq	r5, [r4], -r0, lsl #4
     b80:	071c0000 	ldreq	r0, [ip, -r0]
     b84:	00050000 	andeq	r0, r5, r0
     b88:	00980803 	addseq	r0, r8, r3, lsl #16
	...
     b94:	00062800 	andeq	r2, r6, r0, lsl #16
     b98:	00066400 	andeq	r6, r6, r0, lsl #8
     b9c:	76000800 	strvc	r0, [r0], -r0, lsl #16
     ba0:	081a4000 	ldmdaeq	sl, {lr}
     ba4:	649f1aff 	ldrvs	r1, [pc], #2815	; bac <_start-0x7454>
     ba8:	9c000006 	stcls	0, cr0, [r0], {6}
     bac:	09000006 	stmdbeq	r0, {r1, r2}
     bb0:	08007600 	stmdaeq	r0, {r9, sl, ip, sp, lr}
     bb4:	ff081a20 			; <UNDEFINED> instruction: 0xff081a20
     bb8:	069c9f1a 			; <UNDEFINED> instruction: 0x069c9f1a
     bbc:	06d40000 	ldrbeq	r0, [r4], r0
     bc0:	00090000 	andeq	r0, r9, r0
     bc4:	40080076 	andmi	r0, r8, r6, ror r0
     bc8:	1aff081a 	bne	fffc2c38 <__bss_end__+0xfffb9020>
     bcc:	0006d49f 	muleq	r6, pc, r4	; <UNPREDICTABLE>
     bd0:	00073400 	andeq	r3, r7, r0, lsl #8
     bd4:	76000900 	strvc	r0, [r0], -r0, lsl #18
     bd8:	1a800900 	bne	fe002fe0 <__bss_end__+0xfdff93c8>
     bdc:	9f1aff08 	svcls	0x001aff08
     be0:	00000734 	andeq	r0, r0, r4, lsr r7
     be4:	00000738 	andeq	r0, r0, r8, lsr r7
     be8:	7f760009 	svcvc	0x00760009
     bec:	081a8009 	ldmdaeq	sl, {r0, r3, pc}
     bf0:	009f1aff 			; <UNDEFINED> instruction: 0x009f1aff
     bf4:	00000000 	andeq	r0, r0, r0
     bf8:	50000000 	andpl	r0, r0, r0
     bfc:	54000006 	strpl	r0, [r0], #-6
     c00:	01000006 	tsteq	r0, r6
     c04:	00005200 	andeq	r5, r0, r0, lsl #4
     c08:	00000000 	andeq	r0, r0, r0
     c0c:	06640000 	strbteq	r0, [r4], -r0
     c10:	07340000 	ldreq	r0, [r4, -r0]!
     c14:	00090000 	andeq	r0, r9, r0
     c18:	20080076 	andcs	r0, r8, r6, ror r0
     c1c:	1aff081a 	bne	fffc2c8c <__bss_end__+0xfffb9074>
     c20:	0007349f 	muleq	r7, pc, r4	; <UNPREDICTABLE>
     c24:	00073800 	andeq	r3, r7, r0, lsl #16
     c28:	76000900 	strvc	r0, [r0], -r0, lsl #18
     c2c:	1a20087f 	bne	802e30 <__bss_end__+0x7f9218>
     c30:	9f1aff08 	svcls	0x001aff08
	...
     c3c:	00000664 	andeq	r0, r0, r4, ror #12
     c40:	00000670 	andeq	r0, r0, r0, ror r6
     c44:	70520001 	subsvc	r0, r2, r1
     c48:	1c000006 	stcne	0, cr0, [r0], {6}
     c4c:	05000007 	streq	r0, [r0, #-7]
     c50:	98080300 	stmdals	r8, {r8, r9}
	...
     c5c:	06640000 	strbteq	r0, [r4], -r0
     c60:	069c0000 	ldreq	r0, [ip], r0
     c64:	00090000 	andeq	r0, r9, r0
     c68:	20080076 	andcs	r0, r8, r6, ror r0
     c6c:	1aff081a 	bne	fffc2cdc <__bss_end__+0xfffb90c4>
     c70:	00069c9f 	muleq	r6, pc, ip	; <UNPREDICTABLE>
     c74:	0006d400 	andeq	sp, r6, r0, lsl #8
     c78:	76000900 	strvc	r0, [r0], -r0, lsl #18
     c7c:	1a400800 	bne	1002c84 <__bss_end__+0xff906c>
     c80:	9f1aff08 	svcls	0x001aff08
     c84:	000006d4 	ldrdeq	r0, [r0], -r4
     c88:	00000734 	andeq	r0, r0, r4, lsr r7
     c8c:	00760009 	rsbseq	r0, r6, r9
     c90:	081a8009 	ldmdaeq	sl, {r0, r3, pc}
     c94:	349f1aff 	ldrcc	r1, [pc], #2815	; c9c <_start-0x7364>
     c98:	38000007 	stmdacc	r0, {r0, r1, r2}
     c9c:	09000007 	stmdbeq	r0, {r0, r1, r2}
     ca0:	097f7600 	ldmdbeq	pc!, {r9, sl, ip, sp, lr}^	; <UNPREDICTABLE>
     ca4:	ff081a80 			; <UNDEFINED> instruction: 0xff081a80
     ca8:	00009f1a 	andeq	r9, r0, sl, lsl pc
     cac:	00000000 	andeq	r0, r0, r0
     cb0:	06880000 	streq	r0, [r8], r0
     cb4:	068c0000 	streq	r0, [ip], r0
     cb8:	00010000 	andeq	r0, r1, r0
     cbc:	00000052 	andeq	r0, r0, r2, asr r0
     cc0:	00000000 	andeq	r0, r0, r0
     cc4:	00069c00 	andeq	r9, r6, r0, lsl #24
     cc8:	00073400 	andeq	r3, r7, r0, lsl #8
     ccc:	76000900 	strvc	r0, [r0], -r0, lsl #18
     cd0:	1a400800 	bne	1002cd8 <__bss_end__+0xff90c0>
     cd4:	9f1aff08 	svcls	0x001aff08
     cd8:	00000734 	andeq	r0, r0, r4, lsr r7
     cdc:	00000738 	andeq	r0, r0, r8, lsr r7
     ce0:	7f760009 	svcvc	0x00760009
     ce4:	081a4008 	ldmdaeq	sl, {r3, lr}
     ce8:	009f1aff 			; <UNDEFINED> instruction: 0x009f1aff
     cec:	00000000 	andeq	r0, r0, r0
     cf0:	9c000000 	stcls	0, cr0, [r0], {-0}
     cf4:	a8000006 	stmdage	r0, {r1, r2}
     cf8:	01000006 	tsteq	r0, r6
     cfc:	06a85200 	strteq	r5, [r8], r0, lsl #4
     d00:	071c0000 	ldreq	r0, [ip, -r0]
     d04:	00050000 	andeq	r0, r5, r0
     d08:	00980803 	addseq	r0, r8, r3, lsl #16
	...
     d14:	00069c00 	andeq	r9, r6, r0, lsl #24
     d18:	0006d400 	andeq	sp, r6, r0, lsl #8
     d1c:	76000900 	strvc	r0, [r0], -r0, lsl #18
     d20:	1a400800 	bne	1002d28 <__bss_end__+0xff9110>
     d24:	9f1aff08 	svcls	0x001aff08
     d28:	000006d4 	ldrdeq	r0, [r0], -r4
     d2c:	00000734 	andeq	r0, r0, r4, lsr r7
     d30:	00760009 	rsbseq	r0, r6, r9
     d34:	081a8009 	ldmdaeq	sl, {r0, r3, pc}
     d38:	349f1aff 	ldrcc	r1, [pc], #2815	; d40 <_start-0x72c0>
     d3c:	38000007 	stmdacc	r0, {r0, r1, r2}
     d40:	09000007 	stmdbeq	r0, {r0, r1, r2}
     d44:	097f7600 	ldmdbeq	pc!, {r9, sl, ip, sp, lr}^	; <UNPREDICTABLE>
     d48:	ff081a80 			; <UNDEFINED> instruction: 0xff081a80
     d4c:	00009f1a 	andeq	r9, r0, sl, lsl pc
     d50:	00000000 	andeq	r0, r0, r0
     d54:	06c00000 	strbeq	r0, [r0], r0
     d58:	06c40000 	strbeq	r0, [r4], r0
     d5c:	00010000 	andeq	r0, r1, r0
     d60:	00000052 	andeq	r0, r0, r2, asr r0
     d64:	00000000 	andeq	r0, r0, r0
     d68:	0006d400 	andeq	sp, r6, r0, lsl #8
     d6c:	00073400 	andeq	r3, r7, r0, lsl #8
     d70:	76000900 	strvc	r0, [r0], -r0, lsl #18
     d74:	1a800900 	bne	fe00317c <__bss_end__+0xfdff9564>
     d78:	9f1aff08 	svcls	0x001aff08
     d7c:	00000734 	andeq	r0, r0, r4, lsr r7
     d80:	00000738 	andeq	r0, r0, r8, lsr r7
     d84:	7f760009 	svcvc	0x00760009
     d88:	081a8009 	ldmdaeq	sl, {r0, r3, pc}
     d8c:	009f1aff 			; <UNDEFINED> instruction: 0x009f1aff
     d90:	00000000 	andeq	r0, r0, r0
     d94:	d4000000 	strle	r0, [r0], #-0
     d98:	e0000006 	and	r0, r0, r6
     d9c:	01000006 	tsteq	r0, r6
     da0:	06e05200 	strbteq	r5, [r0], r0, lsl #4
     da4:	071c0000 	ldreq	r0, [ip, -r0]
     da8:	00050000 	andeq	r0, r5, r0
     dac:	00980803 	addseq	r0, r8, r3, lsl #16
	...
     db8:	0006f800 	andeq	pc, r6, r0, lsl #16
     dbc:	0006fc00 	andeq	pc, r6, r0, lsl #24
     dc0:	52000100 	andpl	r0, r0, #0, 2
	...
     dcc:	00000704 	andeq	r0, r0, r4, lsl #14
     dd0:	0000071c 	andeq	r0, r0, ip, lsl r7
     dd4:	08030005 	stmdaeq	r3, {r0, r2}
     dd8:	1c000098 	stcne	0, cr0, [r0], {152}	; 0x98
     ddc:	3c000007 	stccc	0, cr0, [r0], {7}
     de0:	01000007 	tsteq	r0, r7
     de4:	00005000 	andeq	r5, r0, r0
     de8:	00000000 	andeq	r0, r0, r0
     dec:	07240000 	streq	r0, [r4, -r0]!
     df0:	07280000 	streq	r0, [r8, -r0]!
     df4:	00010000 	andeq	r0, r1, r0
     df8:	00000052 	andeq	r0, r0, r2, asr r0
     dfc:	00000000 	andeq	r0, r0, r0
     e00:	00002c00 	andeq	r2, r0, r0, lsl #24
     e04:	00003800 	andeq	r3, r0, r0, lsl #16
     e08:	50000100 	andpl	r0, r0, r0, lsl #2
     e0c:	00000038 	andeq	r0, r0, r8, lsr r0
     e10:	00000048 	andeq	r0, r0, r8, asr #32
     e14:	48550001 	ldmdami	r5, {r0}^
     e18:	58000000 	stmdapl	r0, {}	; <UNPREDICTABLE>
     e1c:	01000000 	mrseq	r0, (UNDEF: 0)
     e20:	00005000 	andeq	r5, r0, r0
	...
     e2c:	000b0000 	andeq	r0, fp, r0
     e30:	00010000 	andeq	r0, r1, r0
     e34:	00000b50 	andeq	r0, r0, r0, asr fp
     e38:	00001400 	andeq	r1, r0, r0, lsl #8
     e3c:	54000100 	strpl	r0, [r0], #-256	; 0x100
	...
     e4c:	00000010 	andeq	r0, r0, r0, lsl r0
     e50:	10500001 	subsne	r0, r0, r1
     e54:	34000000 	strcc	r0, [r0], #-0
     e58:	01000000 	mrseq	r0, (UNDEF: 0)
     e5c:	00005400 	andeq	r5, r0, r0, lsl #8
	...
     e68:	00040000 	andeq	r0, r4, r0
     e6c:	00010000 	andeq	r0, r1, r0
     e70:	00000450 	andeq	r0, r0, r0, asr r4
     e74:	00000c00 	andeq	r0, r0, r0, lsl #24
     e78:	70000300 	andvc	r0, r0, r0, lsl #6
     e7c:	000c9f30 	andeq	r9, ip, r0, lsr pc
     e80:	00140000 	andseq	r0, r4, r0
     e84:	00040000 	andeq	r0, r4, r0
     e88:	9f5001f3 	svcls	0x005001f3
	...
     e94:	00000014 	andeq	r0, r0, r4, lsl r0
     e98:	00000020 	andeq	r0, r0, r0, lsr #32
     e9c:	20500001 	subscs	r0, r0, r1
     ea0:	2c000000 	stccs	0, cr0, [r0], {-0}
     ea4:	03000000 	movweq	r0, #0
     ea8:	9f017000 	svcls	0x00017000
     eac:	0000002c 	andeq	r0, r0, ip, lsr #32
     eb0:	00000040 	andeq	r0, r0, r0, asr #32
     eb4:	00500001 	subseq	r0, r0, r1
     eb8:	00000000 	andeq	r0, r0, r0
     ebc:	14000000 	strne	r0, [r0], #-0
     ec0:	18000000 	stmdane	r0, {}	; <UNPREDICTABLE>
     ec4:	01000000 	mrseq	r0, (UNDEF: 0)
     ec8:	00185100 	andseq	r5, r8, r0, lsl #2
     ecc:	00400000 	subeq	r0, r0, r0
     ed0:	00040000 	andeq	r0, r4, r0
     ed4:	9f5101f3 	svcls	0x005101f3
	...
     ee0:	00000040 	andeq	r0, r0, r0, asr #32
     ee4:	00000060 	andeq	r0, r0, r0, rrx
     ee8:	60500001 	subsvs	r0, r0, r1
     eec:	6c000000 	stcvs	0, cr0, [r0], {-0}
     ef0:	03000000 	movweq	r0, #0
     ef4:	9f017100 	svcls	0x00017100
     ef8:	0000006c 	andeq	r0, r0, ip, rrx
     efc:	00000074 	andeq	r0, r0, r4, ror r0
     f00:	74510001 	ldrbvc	r0, [r1], #-1
     f04:	80000000 	andhi	r0, r0, r0
     f08:	03000000 	movweq	r0, #0
     f0c:	9f017100 	svcls	0x00017100
	...
     f18:	00000040 	andeq	r0, r0, r0, asr #32
     f1c:	00000050 	andeq	r0, r0, r0, asr r0
     f20:	50510001 	subspl	r0, r1, r1
     f24:	80000000 	andhi	r0, r0, r0
     f28:	04000000 	streq	r0, [r0], #-0
     f2c:	5101f300 	mrspl	pc, SP_irq	; <UNPREDICTABLE>
     f30:	0000009f 	muleq	r0, pc, r0	; <UNPREDICTABLE>
     f34:	00000000 	andeq	r0, r0, r0
     f38:	00004000 	andeq	r4, r0, r0
     f3c:	00005800 	andeq	r5, r0, r0, lsl #16
     f40:	52000100 	andpl	r0, r0, #0, 2
     f44:	00000058 	andeq	r0, r0, r8, asr r0
     f48:	00000064 	andeq	r0, r0, r4, rrx
     f4c:	64520001 	ldrbvs	r0, [r2], #-1
     f50:	68000000 	stmdavs	r0, {}	; <UNPREDICTABLE>
     f54:	03000000 	movweq	r0, #0
     f58:	9f017200 	svcls	0x00017200
     f5c:	00000068 	andeq	r0, r0, r8, rrx
     f60:	00000080 	andeq	r0, r0, r0, lsl #1
     f64:	00520001 	subseq	r0, r2, r1
     f68:	00000000 	andeq	r0, r0, r0
     f6c:	40000000 	andmi	r0, r0, r0
     f70:	54000000 	strpl	r0, [r0], #-0
     f74:	01000000 	mrseq	r0, (UNDEF: 0)
     f78:	00545300 	subseq	r5, r4, r0, lsl #6
     f7c:	00780000 	rsbseq	r0, r8, r0
     f80:	00010000 	andeq	r0, r1, r0
     f84:	00000053 	andeq	r0, r0, r3, asr r0
     f88:	00000000 	andeq	r0, r0, r0
     f8c:	00004800 	andeq	r4, r0, r0, lsl #16
     f90:	00006000 	andeq	r6, r0, r0
     f94:	5c000100 	stfpls	f0, [r0], {-0}
     f98:	00000060 	andeq	r0, r0, r0, rrx
     f9c:	00000080 	andeq	r0, r0, r0, lsl #1
     fa0:	01f3000a 	mvnseq	r0, sl
     fa4:	5301f352 	movwpl	pc, #4946	; 0x1352	; <UNPREDICTABLE>
     fa8:	9f01231c 	svcls	0x0001231c
	...
     fb4:	00000080 	andeq	r0, r0, r0, lsl #1
     fb8:	000000a4 	andeq	r0, r0, r4, lsr #1
     fbc:	a4500001 	ldrbge	r0, [r0], #-1
     fc0:	18000000 	stmdane	r0, {}	; <UNPREDICTABLE>
     fc4:	03000001 	movweq	r0, #1
     fc8:	9f027000 	svcls	0x00027000
     fcc:	00000118 	andeq	r0, r0, r8, lsl r1
     fd0:	0000021c 	andeq	r0, r0, ip, lsl r2
     fd4:	01f30004 	mvnseq	r0, r4
     fd8:	00009f50 	andeq	r9, r0, r0, asr pc
     fdc:	00000000 	andeq	r0, r0, r0
     fe0:	00800000 	addeq	r0, r0, r0
     fe4:	00f00000 	rscseq	r0, r0, r0
     fe8:	00010000 	andeq	r0, r1, r0
     fec:	0000f051 	andeq	pc, r0, r1, asr r0	; <UNPREDICTABLE>
     ff0:	00016000 	andeq	r6, r1, r0
     ff4:	55000100 	strpl	r0, [r0, #-256]	; 0x100
     ff8:	00000160 	andeq	r0, r0, r0, ror #2
     ffc:	00000168 	andeq	r0, r0, r8, ror #2
    1000:	68510001 	ldmdavs	r1, {r0}^
    1004:	88000001 	stmdahi	r0, {r0}
    1008:	01000001 	tsteq	r0, r1
    100c:	01885500 	orreq	r5, r8, r0, lsl #10
    1010:	019c0000 	orrseq	r0, ip, r0
    1014:	00010000 	andeq	r0, r1, r0
    1018:	00019c51 	andeq	r9, r1, r1, asr ip
    101c:	0001bc00 	andeq	fp, r1, r0, lsl #24
    1020:	55000100 	strpl	r0, [r0, #-256]	; 0x100
    1024:	000001bc 			; <UNDEFINED> instruction: 0x000001bc
    1028:	000001bf 			; <UNDEFINED> instruction: 0x000001bf
    102c:	bf510001 	svclt	0x00510001
    1030:	00000001 	andeq	r0, r0, r1
    1034:	01000002 	tsteq	r0, r2
    1038:	02005500 	andeq	r5, r0, #0, 10
    103c:	021c0000 	andseq	r0, ip, #0
    1040:	00040000 	andeq	r0, r4, r0
    1044:	9f5101f3 	svcls	0x005101f3
	...
    1050:	00000080 	andeq	r0, r0, r0, lsl #1
    1054:	00000094 	muleq	r0, r4, r0
    1058:	94520001 	ldrbls	r0, [r2], #-1
    105c:	00000000 	andeq	r0, r0, r0
    1060:	01000002 	tsteq	r0, r2
    1064:	02005400 	andeq	r5, r0, #0, 8
    1068:	021c0000 	andseq	r0, ip, #0
    106c:	00040000 	andeq	r0, r4, r0
    1070:	9f5201f3 	svcls	0x005201f3
	...
    107c:	00000080 	andeq	r0, r0, r0, lsl #1
    1080:	00000100 	andeq	r0, r0, r0, lsl #2
    1084:	04530001 	ldrbeq	r0, [r3], #-1
    1088:	08000001 	stmdaeq	r0, {r0}
    108c:	01000001 	tsteq	r0, r1
    1090:	01605300 	cmneq	r0, r0, lsl #6
    1094:	01680000 	cmneq	r8, r0
    1098:	00010000 	andeq	r0, r1, r0
    109c:	00016853 	andeq	r6, r1, r3, asr r8
    10a0:	00018800 	andeq	r8, r1, r0, lsl #16
    10a4:	f3000400 	vshl.u8	d0, d0, d0
    10a8:	889f5301 	ldmhi	pc, {r0, r8, r9, ip, lr}	; <UNPREDICTABLE>
    10ac:	90000001 	andls	r0, r0, r1
    10b0:	01000001 	tsteq	r0, r1
    10b4:	01905300 	orrseq	r5, r0, r0, lsl #6
    10b8:	01940000 	orrseq	r0, r4, r0
    10bc:	00010000 	andeq	r0, r1, r0
    10c0:	0001945c 	andeq	r9, r1, ip, asr r4
    10c4:	00019c00 	andeq	r9, r1, r0, lsl #24
    10c8:	53000100 	movwpl	r0, #256	; 0x100
    10cc:	0000019c 	muleq	r0, ip, r1
    10d0:	000001bc 			; <UNDEFINED> instruction: 0x000001bc
    10d4:	01f30004 	mvnseq	r0, r4
    10d8:	01bc9f53 			; <UNDEFINED> instruction: 0x01bc9f53
    10dc:	01bf0000 			; <UNDEFINED> instruction: 0x01bf0000
    10e0:	00010000 	andeq	r0, r1, r0
    10e4:	0001bf53 	andeq	fp, r1, r3, asr pc
    10e8:	0001d800 	andeq	sp, r1, r0, lsl #16
    10ec:	f3000400 	vshl.u8	d0, d0, d0
    10f0:	009f5301 	addseq	r5, pc, r1, lsl #6
    10f4:	00000000 	andeq	r0, r0, r0
    10f8:	80000000 	andhi	r0, r0, r0
    10fc:	9c000000 	stcls	0, cr0, [r0], {-0}
    1100:	02000000 	andeq	r0, r0, #0
    1104:	9c009100 	stflsd	f1, [r0], {-0}
    1108:	bf000000 	svclt	0x00000000
    110c:	01000001 	tsteq	r0, r1
    1110:	01d85200 	bicseq	r5, r8, r0, lsl #4
    1114:	01e30000 	mvneq	r0, r0
    1118:	00010000 	andeq	r0, r1, r0
    111c:	00000052 	andeq	r0, r0, r2, asr r0
    1120:	00000000 	andeq	r0, r0, r0
    1124:	00009c00 	andeq	r9, r0, r0, lsl #24
    1128:	00011800 	andeq	r1, r1, r0, lsl #16
    112c:	5d000100 	stfpls	f0, [r0, #-0]
    1130:	00000118 	andeq	r0, r0, r8, lsl r1
    1134:	0000011c 	andeq	r0, r0, ip, lsl r1
    1138:	1c530001 	mrrcne	0, 0, r0, r3, cr1
    113c:	20000001 	andcs	r0, r0, r1
    1140:	01000001 	tsteq	r0, r1
    1144:	01205100 	teqeq	r0, r0, lsl #2
    1148:	01600000 	cmneq	r0, r0
    114c:	00010000 	andeq	r0, r1, r0
    1150:	00016053 	andeq	r6, r1, r3, asr r0
    1154:	00016800 	andeq	r6, r1, r0, lsl #16
    1158:	5d000100 	stfpls	f0, [r0, #-0]
    115c:	00000168 	andeq	r0, r0, r8, ror #2
    1160:	0000016c 	andeq	r0, r0, ip, ror #2
    1164:	6c5e0001 	mrrcvs	0, 0, r0, lr, cr1
    1168:	88000001 	stmdahi	r0, {r0}
    116c:	01000001 	tsteq	r0, r1
    1170:	01885300 	orreq	r5, r8, r0, lsl #6
    1174:	01900000 	orrseq	r0, r0, r0
    1178:	00040000 	andeq	r0, r4, r0
    117c:	9f7fa191 	svcls	0x007fa191
    1180:	00000190 	muleq	r0, r0, r1
    1184:	00000194 	muleq	r0, r4, r1
    1188:	94530001 	ldrbls	r0, [r3], #-1
    118c:	9c000001 	stcls	0, cr0, [r0], {1}
    1190:	01000001 	tsteq	r0, r1
    1194:	019c5d00 	orrseq	r5, ip, r0, lsl #26
    1198:	01a00000 	moveq	r0, r0
    119c:	00010000 	andeq	r0, r1, r0
    11a0:	0001a05e 	andeq	sl, r1, lr, asr r0
    11a4:	0001bc00 	andeq	fp, r1, r0, lsl #24
    11a8:	53000100 	movwpl	r0, #256	; 0x100
    11ac:	000001bc 			; <UNDEFINED> instruction: 0x000001bc
    11b0:	000001d8 	ldrdeq	r0, [r0], -r8
    11b4:	d85d0001 	ldmdale	sp, {r0}^
    11b8:	e3000001 	movw	r0, #1
    11bc:	01000001 	tsteq	r0, r1
    11c0:	00005300 	andeq	r5, r0, r0, lsl #6
    11c4:	00000000 	andeq	r0, r0, r0
    11c8:	00a00000 	adceq	r0, r0, r0
    11cc:	00ec0000 	rsceq	r0, ip, r0
    11d0:	00010000 	andeq	r0, r1, r0
    11d4:	0000ec5c 	andeq	lr, r0, ip, asr ip
    11d8:	00010000 	andeq	r0, r1, r0
    11dc:	53000100 	movwpl	r0, #256	; 0x100
    11e0:	00000100 	andeq	r0, r0, r0, lsl #2
    11e4:	00000104 	andeq	r0, r0, r4, lsl #2
    11e8:	045c0001 	ldrbeq	r0, [ip], #-1
    11ec:	08000001 	stmdaeq	r0, {r0}
    11f0:	01000001 	tsteq	r0, r1
    11f4:	01085300 	mrseq	r5, (UNDEF: 56)
    11f8:	01180000 	tsteq	r8, r0
    11fc:	00010000 	andeq	r0, r1, r0
    1200:	0001185c 	andeq	r1, r1, ip, asr r8
    1204:	00011c00 	andeq	r1, r1, r0, lsl #24
    1208:	50000100 	andpl	r0, r0, r0, lsl #2
    120c:	0000011c 	andeq	r0, r0, ip, lsl r1
    1210:	0000013c 	andeq	r0, r0, ip, lsr r1
    1214:	445c0001 	ldrbmi	r0, [ip], #-1
    1218:	58000001 	stmdapl	r0, {r0}
    121c:	01000001 	tsteq	r0, r1
    1220:	01585000 	cmpeq	r8, r0
    1224:	01600000 	cmneq	r0, r0
    1228:	00010000 	andeq	r0, r1, r0
    122c:	0001605c 	andeq	r6, r1, ip, asr r0
    1230:	00016800 	andeq	r6, r1, r0, lsl #16
    1234:	53000100 	movwpl	r0, #256	; 0x100
    1238:	00000168 	andeq	r0, r0, r8, ror #2
    123c:	00000178 	andeq	r0, r0, r8, ror r1
    1240:	785c0001 	ldmdavc	ip, {r0}^
    1244:	80000001 	andhi	r0, r0, r1
    1248:	05000001 	streq	r0, [r0, #-1]
    124c:	34007c00 	strcc	r7, [r0], #-3072	; 0xc00
    1250:	01809f25 	orreq	r9, r0, r5, lsr #30
    1254:	01880000 	orreq	r0, r8, r0
    1258:	00010000 	andeq	r0, r1, r0
    125c:	0001885c 	andeq	r8, r1, ip, asr r8
    1260:	00019000 	andeq	r9, r1, r0
    1264:	53000100 	movwpl	r0, #256	; 0x100
    1268:	00000190 	muleq	r0, r0, r1
    126c:	00000194 	muleq	r0, r4, r1
    1270:	945c0001 	ldrbls	r0, [ip], #-1
    1274:	9c000001 	stcls	0, cr0, [r0], {1}
    1278:	01000001 	tsteq	r0, r1
    127c:	019c5300 	orrseq	r5, ip, r0, lsl #6
    1280:	01ac0000 			; <UNDEFINED> instruction: 0x01ac0000
    1284:	00010000 	andeq	r0, r1, r0
    1288:	0001ac5c 	andeq	sl, r1, ip, asr ip
    128c:	0001b400 	andeq	fp, r1, r0, lsl #8
    1290:	7c000500 	cfstr32vc	mvfx0, [r0], {-0}
    1294:	9f253100 	svcls	0x00253100
    1298:	000001b4 			; <UNDEFINED> instruction: 0x000001b4
    129c:	000001bc 			; <UNDEFINED> instruction: 0x000001bc
    12a0:	bc5c0001 	mrrclt	0, 0, r0, ip, cr1
    12a4:	bf000001 	svclt	0x00000001
    12a8:	01000001 	tsteq	r0, r1
    12ac:	01bf5300 			; <UNDEFINED> instruction: 0x01bf5300
    12b0:	01d80000 	bicseq	r0, r8, r0
    12b4:	00040000 	andeq	r0, r4, r0
    12b8:	9f5301f3 	svcls	0x005301f3
    12bc:	000001d8 	ldrdeq	r0, [r0], -r8
    12c0:	000001e3 	andeq	r0, r0, r3, ror #3
    12c4:	005c0001 	subseq	r0, ip, r1
    12c8:	00000000 	andeq	r0, r0, r0
    12cc:	ec000000 	stc	0, cr0, [r0], {-0}
    12d0:	fc000000 	stc2	0, cr0, [r0], {-0}
    12d4:	02000000 	andeq	r0, r0, #0
    12d8:	fc9f3000 	ldc2	0, cr3, [pc], {0}
    12dc:	04000000 	streq	r0, [r0], #-0
    12e0:	02000001 	andeq	r0, r0, #1
    12e4:	049f3100 	ldreq	r3, [pc], #256	; 12ec <_start-0x6d14>
    12e8:	08000001 	stmdaeq	r0, {r0}
    12ec:	02000001 	andeq	r0, r0, #1
    12f0:	009f3000 	addseq	r3, pc, r0
    12f4:	00000000 	andeq	r0, r0, r0
    12f8:	1c000000 	stcne	0, cr0, [r0], {-0}
    12fc:	2b000002 	blcs	130c <_start-0x6cf4>
    1300:	01000002 	tsteq	r0, r2
    1304:	022b5000 	eoreq	r5, fp, #0
    1308:	02440000 	subeq	r0, r4, #0
    130c:	00040000 	andeq	r0, r4, r0
    1310:	9f5001f3 	svcls	0x005001f3
    1314:	00000244 	andeq	r0, r0, r4, asr #4
    1318:	00000270 	andeq	r0, r0, r0, ror r2
    131c:	00500001 	subseq	r0, r0, r1
    1320:	00000000 	andeq	r0, r0, r0
    1324:	1c000000 	stcne	0, cr0, [r0], {-0}
    1328:	2b000002 	blcs	1338 <_start-0x6cc8>
    132c:	01000002 	tsteq	r0, r2
    1330:	022b5100 	eoreq	r5, fp, #0, 2
    1334:	02440000 	subeq	r0, r4, #0
    1338:	00040000 	andeq	r0, r4, r0
    133c:	9f5101f3 	svcls	0x005101f3
    1340:	00000244 	andeq	r0, r0, r4, asr #4
    1344:	00000270 	andeq	r0, r0, r0, ror r2
    1348:	00510001 	subseq	r0, r1, r1
    134c:	00000000 	andeq	r0, r0, r0
    1350:	70000000 	andvc	r0, r0, r0
    1354:	9c000002 	stcls	0, cr0, [r0], {2}
    1358:	01000002 	tsteq	r0, r2
    135c:	029c5000 	addseq	r5, ip, #0
    1360:	04e40000 	strbteq	r0, [r4], #0
    1364:	00010000 	andeq	r0, r1, r0
    1368:	0004e45a 	andeq	lr, r4, sl, asr r4
    136c:	0004f800 	andeq	pc, r4, r0, lsl #16
    1370:	f3000400 	vshl.u8	d0, d0, d0
    1374:	009f5001 	addseq	r5, pc, r1
    1378:	00000000 	andeq	r0, r0, r0
    137c:	70000000 	andvc	r0, r0, r0
    1380:	84000002 	strhi	r0, [r0], #-2
    1384:	01000002 	tsteq	r0, r2
    1388:	02845100 	addeq	r5, r4, #0, 2
    138c:	029c0000 	addseq	r0, ip, #0
    1390:	00030000 	andeq	r0, r3, r0
    1394:	9c9f0171 	ldflss	f0, [pc], {113}	; 0x71
    1398:	f8000002 			; <UNDEFINED> instruction: 0xf8000002
    139c:	04000004 	streq	r0, [r0], #-4
    13a0:	5101f300 	mrspl	pc, SP_irq	; <UNPREDICTABLE>
    13a4:	0000009f 	muleq	r0, pc, r0	; <UNPREDICTABLE>
    13a8:	00000000 	andeq	r0, r0, r0
    13ac:	00027000 	andeq	r7, r2, r0
    13b0:	0002a400 	andeq	sl, r2, r0, lsl #8
    13b4:	52000100 	andpl	r0, r0, #0, 2
    13b8:	000002a4 	andeq	r0, r0, r4, lsr #5
    13bc:	000002cc 	andeq	r0, r0, ip, asr #5
    13c0:	cc520001 	mrrcgt	0, 0, r0, r2, cr1
    13c4:	94000002 	strls	r0, [r0], #-2
    13c8:	01000004 	tsteq	r0, r4
    13cc:	04945600 	ldreq	r5, [r4], #1536	; 0x600
    13d0:	04f80000 	ldrbteq	r0, [r8], #0
    13d4:	00010000 	andeq	r0, r1, r0
    13d8:	00000052 	andeq	r0, r0, r2, asr r0
    13dc:	00000000 	andeq	r0, r0, r0
    13e0:	00027000 	andeq	r7, r2, r0
    13e4:	00028c00 	andeq	r8, r2, r0, lsl #24
    13e8:	53000100 	movwpl	r0, #256	; 0x100
	...
    13f4:	00000280 	andeq	r0, r0, r0, lsl #5
    13f8:	0000029c 	muleq	r0, ip, r2
    13fc:	9c500001 	mrrcls	0, 0, r0, r0, cr1	; <UNPREDICTABLE>
    1400:	a0000002 	andge	r0, r0, r2
    1404:	01000002 	tsteq	r0, r2
    1408:	02a05400 	adceq	r5, r0, #0, 8
    140c:	02ac0000 	adceq	r0, ip, #0
    1410:	00030000 	andeq	r0, r3, r0
    1414:	ac9f0174 	ldfges	f0, [pc], {116}	; 0x74
    1418:	b8000002 	stmdalt	r0, {r1}
    141c:	01000002 	tsteq	r0, r2
    1420:	02b85400 	adcseq	r5, r8, #0, 8
    1424:	02c40000 	sbceq	r0, r4, #0
    1428:	00030000 	andeq	r0, r3, r0
    142c:	c49f0174 	ldrgt	r0, [pc], #372	; 1434 <_start-0x6bcc>
    1430:	98000002 	stmdals	r0, {r1}
    1434:	01000004 	tsteq	r0, r4
    1438:	04985400 	ldreq	r5, [r8], #1024	; 0x400
    143c:	04a40000 	strteq	r0, [r4], #0
    1440:	00030000 	andeq	r0, r3, r0
    1444:	a49f0174 	ldrge	r0, [pc], #372	; 144c <_start-0x6bb4>
    1448:	d0000004 	andle	r0, r0, r4
    144c:	01000004 	tsteq	r0, r4
    1450:	04d05400 	ldrbeq	r5, [r0], #1024	; 0x400
    1454:	04dc0000 	ldrbeq	r0, [ip], #0
    1458:	00010000 	andeq	r0, r1, r0
    145c:	0004dc50 	andeq	sp, r4, r0, asr ip
    1460:	0004e400 	andeq	lr, r4, r0, lsl #8
    1464:	74000300 	strvc	r0, [r0], #-768	; 0x300
    1468:	00009f01 	andeq	r9, r0, r1, lsl #30
    146c:	00000000 	andeq	r0, r0, r0
    1470:	02880000 	addeq	r0, r8, #0
    1474:	04e40000 	strbteq	r0, [r4], #0
    1478:	00010000 	andeq	r0, r1, r0
    147c:	0004e458 	andeq	lr, r4, r8, asr r4
    1480:	0004f800 	andeq	pc, r4, r0, lsl #16
    1484:	f3000a00 	vpmax.u8	d0, d0, d0
    1488:	01f35101 	mvnseq	r5, r1, lsl #2
    148c:	1c312250 	lfmne	f2, 4, [r1], #-320	; 0xfffffec0
    1490:	0000009f 	muleq	r0, pc, r0	; <UNPREDICTABLE>
    1494:	00000000 	andeq	r0, r0, r0
    1498:	0003cc00 	andeq	ip, r3, r0, lsl #24
    149c:	0003d000 	andeq	sp, r3, r0
    14a0:	50000100 	andpl	r0, r0, r0, lsl #2
    14a4:	000003f0 	strdeq	r0, [r0], -r0	; <UNPREDICTABLE>
    14a8:	000003f4 	strdeq	r0, [r0], -r4
    14ac:	14500001 	ldrbne	r0, [r0], #-1
    14b0:	18000004 	stmdane	r0, {r2}
    14b4:	01000004 	tsteq	r0, r4
    14b8:	04385000 	ldrteq	r5, [r8], #-0
    14bc:	043c0000 	ldrteq	r0, [ip], #-0
    14c0:	00010000 	andeq	r0, r1, r0
    14c4:	00044450 	andeq	r4, r4, r0, asr r4
    14c8:	00044800 	andeq	r4, r4, r0, lsl #16
    14cc:	50000100 	andpl	r0, r0, r0, lsl #2
    14d0:	00000468 	andeq	r0, r0, r8, ror #8
    14d4:	0000046c 	andeq	r0, r0, ip, ror #8
    14d8:	90500001 	subsls	r0, r0, r1
    14dc:	b8000004 	stmdalt	r0, {r2}
    14e0:	01000004 	tsteq	r0, r4
    14e4:	00005000 	andeq	r5, r0, r0
    14e8:	00000000 	andeq	r0, r0, r0
    14ec:	02cc0000 	sbceq	r0, ip, #0
    14f0:	02d40000 	sbcseq	r0, r4, #0
    14f4:	00020000 	andeq	r0, r2, r0
    14f8:	02d49f30 	sbcseq	r9, r4, #48, 30	; 0xc0
    14fc:	02d80000 	sbcseq	r0, r8, #0
    1500:	00010000 	andeq	r0, r1, r0
    1504:	0002e457 	andeq	lr, r2, r7, asr r4
    1508:	0004b800 	andeq	fp, r4, r0, lsl #16
    150c:	57000100 	strpl	r0, [r0, -r0, lsl #2]
	...
    1518:	00000004 	andeq	r0, r0, r4
    151c:	00000008 	andeq	r0, r0, r8
    1520:	00730007 	rsbseq	r0, r3, r7
    1524:	2110000a 	tstcs	r0, sl
    1528:	0000089f 	muleq	r0, pc, r8	; <UNPREDICTABLE>
    152c:	00001000 	andeq	r1, r0, r0
    1530:	53000100 	movwpl	r0, #256	; 0x100
	...
    153c:	00000014 	andeq	r0, r0, r4, lsl r0
    1540:	00000018 	andeq	r0, r0, r8, lsl r0
    1544:	00730007 	rsbseq	r0, r3, r7
    1548:	1aefff0b 	bne	ffc0117c <__bss_end__+0xffbf7564>
    154c:	0000189f 	muleq	r0, pc, r8	; <UNPREDICTABLE>
    1550:	00002000 	andeq	r2, r0, r0
    1554:	53000100 	movwpl	r0, #256	; 0x100
	...
    1560:	00000014 	andeq	r0, r0, r4, lsl r0
    1564:	0000001c 	andeq	r0, r0, ip, lsl r0
    1568:	04730003 	ldrbteq	r0, [r3], #-3
    156c:	00001c9f 	muleq	r0, pc, ip	; <UNPREDICTABLE>
    1570:	00002700 	andeq	r2, r0, r0, lsl #14
    1574:	53000100 	movwpl	r0, #256	; 0x100
	...
    1580:	00008dac 	andeq	r8, r0, ip, lsr #27
    1584:	00008db0 			; <UNDEFINED> instruction: 0x00008db0
    1588:	9f300002 	svcls	0x00300002
    158c:	00008db0 			; <UNDEFINED> instruction: 0x00008db0
    1590:	00008db4 			; <UNDEFINED> instruction: 0x00008db4
    1594:	00500001 	subseq	r0, r0, r1
    1598:	00000000 	andeq	r0, r0, r0
    159c:	c4000000 	strgt	r0, [r0], #-0
    15a0:	c800008d 	stmdagt	r0, {r0, r2, r3, r7}
    15a4:	0200008d 	andeq	r0, r0, #141	; 0x8d
    15a8:	c89f3000 	ldmgt	pc, {ip, sp}	; <UNPREDICTABLE>
    15ac:	cc00008d 	stcgt	0, cr0, [r0], {141}	; 0x8d
    15b0:	0100008d 	smlabbeq	r0, sp, r0, r0
    15b4:	8dd05300 	ldclhi	3, cr5, [r0]
    15b8:	8dd80000 	ldclhi	0, cr0, [r8]
    15bc:	00010000 	andeq	r0, r1, r0
    15c0:	00000053 	andeq	r0, r0, r3, asr r0
	...
    15cc:	00000400 	andeq	r0, r0, r0, lsl #8
    15d0:	50000100 	andpl	r0, r0, r0, lsl #2
    15d4:	00000004 	andeq	r0, r0, r4
    15d8:	0000000c 	andeq	r0, r0, ip
    15dc:	0c530001 	mrrceq	0, 0, r0, r3, cr1
    15e0:	10000000 	andne	r0, r0, r0
    15e4:	01000000 	mrseq	r0, (UNDEF: 0)
    15e8:	00105000 	andseq	r5, r0, r0
    15ec:	001c0000 	andseq	r0, ip, r0
    15f0:	00010000 	andeq	r0, r1, r0
    15f4:	00000053 	andeq	r0, r0, r3, asr r0
    15f8:	00000000 	andeq	r0, r0, r0
    15fc:	00003c00 	andeq	r3, r0, r0, lsl #24
    1600:	00004700 	andeq	r4, r0, r0, lsl #14
    1604:	50000100 	andpl	r0, r0, r0, lsl #2
    1608:	00000047 	andeq	r0, r0, r7, asr #32
    160c:	00000060 	andeq	r0, r0, r0, rrx
    1610:	00550001 	subseq	r0, r5, r1
    1614:	00000000 	andeq	r0, r0, r0
    1618:	50000000 	andpl	r0, r0, r0
    161c:	54000000 	strpl	r0, [r0], #-0
    1620:	01000000 	mrseq	r0, (UNDEF: 0)
    1624:	00005000 	andeq	r5, r0, r0
    1628:	00000000 	andeq	r0, r0, r0
    162c:	00600000 	rsbeq	r0, r0, r0
    1630:	006c0000 	rsbeq	r0, ip, r0
    1634:	00010000 	andeq	r0, r1, r0
    1638:	00006c50 	andeq	r6, r0, r0, asr ip
    163c:	00007400 	andeq	r7, r0, r0, lsl #8
    1640:	f3000400 	vshl.u8	d0, d0, d0
    1644:	009f5001 	addseq	r5, pc, r1
    1648:	00000000 	andeq	r0, r0, r0
    164c:	74000000 	strvc	r0, [r0], #-0
    1650:	80000000 	andhi	r0, r0, r0
    1654:	01000000 	mrseq	r0, (UNDEF: 0)
    1658:	00805000 	addeq	r5, r0, r0
    165c:	00880000 	addeq	r0, r8, r0
    1660:	00040000 	andeq	r0, r4, r0
    1664:	9f5001f3 	svcls	0x005001f3
	...
    1674:	00000090 	muleq	r0, r0, r0
    1678:	90500001 	subsls	r0, r0, r1
    167c:	d4000000 	strle	r0, [r0], #-0
    1680:	01000000 	mrseq	r0, (UNDEF: 0)
    1684:	00005400 	andeq	r5, r0, r0, lsl #8
    1688:	00000000 	andeq	r0, r0, r0
    168c:	00480000 	subeq	r0, r8, r0
    1690:	004c0000 	subeq	r0, ip, r0
    1694:	00010000 	andeq	r0, r1, r0
    1698:	00005455 	andeq	r5, r0, r5, asr r4
    169c:	00005800 	andeq	r5, r0, r0, lsl #16
    16a0:	55000100 	strpl	r0, [r0, #-256]	; 0x100
    16a4:	00000060 	andeq	r0, r0, r0, rrx
    16a8:	00000064 	andeq	r0, r0, r4, rrx
    16ac:	6c550001 	mrrcvs	0, 0, r0, r5, cr1
    16b0:	70000000 	andvc	r0, r0, r0
    16b4:	01000000 	mrseq	r0, (UNDEF: 0)
    16b8:	00785500 	rsbseq	r5, r8, r0, lsl #10
    16bc:	007c0000 	rsbseq	r0, ip, r0
    16c0:	00010000 	andeq	r0, r1, r0
    16c4:	00008455 	andeq	r8, r0, r5, asr r4
    16c8:	00008800 	andeq	r8, r0, r0, lsl #16
    16cc:	55000100 	strpl	r0, [r0, #-256]	; 0x100
    16d0:	0000008c 	andeq	r0, r0, ip, lsl #1
    16d4:	000000d4 	ldrdeq	r0, [r0], -r4
    16d8:	00550001 	subseq	r0, r5, r1
    16dc:	00000000 	andeq	r0, r0, r0
    16e0:	1c000000 	stcne	0, cr0, [r0], {-0}
    16e4:	44000000 	strmi	r0, [r0], #-0
    16e8:	01000000 	mrseq	r0, (UNDEF: 0)
    16ec:	00445300 	subeq	r5, r4, r0, lsl #6
    16f0:	004c0000 	subeq	r0, ip, r0
    16f4:	001c0000 	andseq	r0, ip, r0
    16f8:	2cf70070 	ldclcs	0, cr0, [r7], #448	; 0x1c0
    16fc:	25f425f7 	ldrbcs	r2, [r4, #1527]!	; 0x5f7
    1700:	cccccd08 	stclgt	13, cr12, [ip], {8}
    1704:	000000cc 	andeq	r0, r0, ip, asr #1
    1708:	20081e00 	andcs	r1, r8, r0, lsl #28
    170c:	f72525f7 			; <UNDEFINED> instruction: 0xf72525f7
    1710:	9f25332c 	svcls	0x0025332c
    1714:	0000004c 	andeq	r0, r0, ip, asr #32
    1718:	00000050 	andeq	r0, r0, r0, asr r0
    171c:	50530001 	subspl	r0, r3, r1
    1720:	58000000 	stmdapl	r0, {}	; <UNPREDICTABLE>
    1724:	1c000000 	stcne	0, cr0, [r0], {-0}
    1728:	f7007000 			; <UNDEFINED> instruction: 0xf7007000
    172c:	f425f72c 	vld1.8	{d15}, [r5 :128], ip
    1730:	cccd0825 	stclgt	8, cr0, [sp], {37}	; 0x25
    1734:	0000cccc 	andeq	ip, r0, ip, asr #25
    1738:	081e0000 	ldmdaeq	lr, {}	; <UNPREDICTABLE>
    173c:	2525f720 	strcs	pc, [r5, #-1824]!	; 0x720
    1740:	25332cf7 	ldrcs	r2, [r3, #-3319]!	; 0xcf7
    1744:	0000589f 	muleq	r0, pc, r8	; <UNPREDICTABLE>
    1748:	00005c00 	andeq	r5, r0, r0, lsl #24
    174c:	53000100 	movwpl	r0, #256	; 0x100
    1750:	0000005c 	andeq	r0, r0, ip, asr r0
    1754:	00000064 	andeq	r0, r0, r4, rrx
    1758:	0070001c 	rsbseq	r0, r0, ip, lsl r0
    175c:	25f72cf7 	ldrbcs	r2, [r7, #3319]!	; 0xcf7
    1760:	cd0825f4 	cfstr32gt	mvfx2, [r8, #-976]	; 0xfffffc30
    1764:	00cccccc 	sbceq	ip, ip, ip, asr #25
    1768:	1e000000 	cdpne	0, 0, cr0, cr0, cr0, {0}
    176c:	25f72008 	ldrbcs	r2, [r7, #8]!
    1770:	332cf725 	msrcc	CPSR_fs, #9699328	; 0x940000
    1774:	00649f25 	rsbeq	r9, r4, r5, lsr #30
    1778:	00680000 	rsbeq	r0, r8, r0
    177c:	00010000 	andeq	r0, r1, r0
    1780:	00006853 	andeq	r6, r0, r3, asr r8
    1784:	00007000 	andeq	r7, r0, r0
    1788:	70001c00 	andvc	r1, r0, r0, lsl #24
    178c:	f72cf700 			; <UNDEFINED> instruction: 0xf72cf700
    1790:	0825f425 	stmdaeq	r5!, {r0, r2, r5, sl, ip, sp, lr, pc}
    1794:	cccccccd 	stclgt	12, cr12, [ip], {205}	; 0xcd
    1798:	00000000 	andeq	r0, r0, r0
    179c:	f720081e 			; <UNDEFINED> instruction: 0xf720081e
    17a0:	2cf72525 	cfldr64cs	mvdx2, [r7], #148	; 0x94
    17a4:	709f2533 	addsvc	r2, pc, r3, lsr r5	; <UNPREDICTABLE>
    17a8:	74000000 	strvc	r0, [r0], #-0
    17ac:	01000000 	mrseq	r0, (UNDEF: 0)
    17b0:	00745300 	rsbseq	r5, r4, r0, lsl #6
    17b4:	007c0000 	rsbseq	r0, ip, r0
    17b8:	001c0000 	andseq	r0, ip, r0
    17bc:	2cf70070 	ldclcs	0, cr0, [r7], #448	; 0x1c0
    17c0:	25f425f7 	ldrbcs	r2, [r4, #1527]!	; 0x5f7
    17c4:	cccccd08 	stclgt	13, cr12, [ip], {8}
    17c8:	000000cc 	andeq	r0, r0, ip, asr #1
    17cc:	20081e00 	andcs	r1, r8, r0, lsl #28
    17d0:	f72525f7 			; <UNDEFINED> instruction: 0xf72525f7
    17d4:	9f25332c 	svcls	0x0025332c
    17d8:	0000007c 	andeq	r0, r0, ip, ror r0
    17dc:	00000080 	andeq	r0, r0, r0, lsl #1
    17e0:	80530001 	subshi	r0, r3, r1
    17e4:	88000000 	stmdahi	r0, {}	; <UNPREDICTABLE>
    17e8:	1c000000 	stcne	0, cr0, [r0], {-0}
    17ec:	f7007000 			; <UNDEFINED> instruction: 0xf7007000
    17f0:	f425f72c 	vld1.8	{d15}, [r5 :128], ip
    17f4:	cccd0825 	stclgt	8, cr0, [sp], {37}	; 0x25
    17f8:	0000cccc 	andeq	ip, r0, ip, asr #25
    17fc:	081e0000 	ldmdaeq	lr, {}	; <UNPREDICTABLE>
    1800:	2525f720 	strcs	pc, [r5, #-1824]!	; 0x720
    1804:	25332cf7 	ldrcs	r2, [r3, #-3319]!	; 0xcf7
    1808:	0000889f 	muleq	r0, pc, r8	; <UNPREDICTABLE>
    180c:	00008c00 	andeq	r8, r0, r0, lsl #24
    1810:	53000100 	movwpl	r0, #256	; 0x100
    1814:	0000008c 	andeq	r0, r0, ip, lsl #1
    1818:	00000090 	muleq	r0, r0, r0
    181c:	0070001c 	rsbseq	r0, r0, ip, lsl r0
    1820:	25f72cf7 	ldrbcs	r2, [r7, #3319]!	; 0xcf7
    1824:	cd0825f4 	cfstr32gt	mvfx2, [r8, #-976]	; 0xfffffc30
    1828:	00cccccc 	sbceq	ip, ip, ip, asr #25
    182c:	1e000000 	cdpne	0, 0, cr0, cr0, cr0, {0}
    1830:	25f72008 	ldrbcs	r2, [r7, #8]!
    1834:	332cf725 	msrcc	CPSR_fs, #9699328	; 0x940000
    1838:	00909f25 	addseq	r9, r0, r5, lsr #30
    183c:	00980000 	addseq	r0, r8, r0
    1840:	001c0000 	andseq	r0, ip, r0
    1844:	2cf70074 	ldclcs	0, cr0, [r7], #464	; 0x1d0
    1848:	25f425f7 	ldrbcs	r2, [r4, #1527]!	; 0x5f7
    184c:	cccccd08 	stclgt	13, cr12, [ip], {8}
    1850:	000000cc 	andeq	r0, r0, ip, asr #1
    1854:	20081e00 	andcs	r1, r8, r0, lsl #28
    1858:	f72525f7 			; <UNDEFINED> instruction: 0xf72525f7
    185c:	9f25332c 	svcls	0x0025332c
    1860:	00000098 	muleq	r0, r8, r0
    1864:	0000009c 	muleq	r0, ip, r0
    1868:	00740017 	rsbseq	r0, r4, r7, lsl r0
    186c:	25f72cf7 	ldrbcs	r2, [r7, #3319]!	; 0xcf7
    1870:	2cf70071 	ldclcs	0, cr0, [r7], #452	; 0x1c4
    1874:	081e25f7 	ldmdaeq	lr, {r0, r1, r2, r4, r5, r6, r7, r8, sl, sp}
    1878:	2525f720 	strcs	pc, [r5, #-1824]!	; 0x720
    187c:	25332cf7 	ldrcs	r2, [r3, #-3319]!	; 0xcf7
    1880:	00009c9f 	muleq	r0, pc, ip	; <UNPREDICTABLE>
    1884:	0000d400 	andeq	sp, r0, r0, lsl #8
    1888:	74001c00 	strvc	r1, [r0], #-3072	; 0xc00
    188c:	f72cf700 			; <UNDEFINED> instruction: 0xf72cf700
    1890:	0825f425 	stmdaeq	r5!, {r0, r2, r5, sl, ip, sp, lr, pc}
    1894:	cccccccd 	stclgt	12, cr12, [ip], {205}	; 0xcd
    1898:	00000000 	andeq	r0, r0, r0
    189c:	f720081e 			; <UNDEFINED> instruction: 0xf720081e
    18a0:	2cf72525 	cfldr64cs	mvdx2, [r7], #148	; 0x94
    18a4:	009f2533 	addseq	r2, pc, r3, lsr r5	; <UNPREDICTABLE>
    18a8:	00000000 	andeq	r0, r0, r0
    18ac:	94000000 	strls	r0, [r0], #-0
    18b0:	b8000000 	stmdalt	r0, {}	; <UNPREDICTABLE>
    18b4:	01000000 	mrseq	r0, (UNDEF: 0)
    18b8:	00b85000 	adcseq	r5, r8, r0
    18bc:	00c40000 	sbceq	r0, r4, r0
    18c0:	00080000 	andeq	r0, r8, r0
    18c4:	24007131 	strcs	r7, [r0], #-305	; 0x131
    18c8:	9f210073 	svcls	0x00210073
    18cc:	000000c4 	andeq	r0, r0, r4, asr #1
    18d0:	000000c7 	andeq	r0, r0, r7, asr #1
    18d4:	00510001 	subseq	r0, r1, r1
    18d8:	00000000 	andeq	r0, r0, r0
    18dc:	d4000000 	strle	r0, [r0], #-0
    18e0:	f8000000 			; <UNDEFINED> instruction: 0xf8000000
    18e4:	01000000 	mrseq	r0, (UNDEF: 0)
    18e8:	00f85000 	rscseq	r5, r8, r0
    18ec:	010c0000 	mrseq	r0, (UNDEF: 12)
    18f0:	00040000 	andeq	r0, r4, r0
    18f4:	9f5001f3 	svcls	0x005001f3
	...
    1900:	000000e0 	andeq	r0, r0, r0, ror #1
    1904:	000000e8 	andeq	r0, r0, r8, ror #1
    1908:	9f300002 	svcls	0x00300002
    190c:	000000e8 	andeq	r0, r0, r8, ror #1
    1910:	000000e8 	andeq	r0, r0, r8, ror #1
    1914:	e8520001 	ldmda	r2, {r0}^
    1918:	f0000000 			; <UNDEFINED> instruction: 0xf0000000
    191c:	02000000 	andeq	r0, r0, #0
    1920:	f09f3000 			; <UNDEFINED> instruction: 0xf09f3000
    1924:	03000000 	movweq	r0, #0
    1928:	01000001 	tsteq	r0, r1
    192c:	00005200 	andeq	r5, r0, r0, lsl #4
    1930:	00000000 	andeq	r0, r0, r0
    1934:	00e00000 	rsceq	r0, r0, r0
    1938:	00f40000 	rscseq	r0, r4, r0
    193c:	00020000 	andeq	r0, r2, r0
    1940:	00f49f30 	rscseq	r9, r4, r0, lsr pc
    1944:	01000000 	mrseq	r0, (UNDEF: 0)
    1948:	00050000 	andeq	r0, r5, r0
    194c:	24007331 	strcs	r7, [r0], #-817	; 0x331
    1950:	0001009f 	muleq	r1, pc, r0	; <UNPREDICTABLE>
    1954:	00010300 	andeq	r0, r1, r0, lsl #6
    1958:	51000100 	mrspl	r0, (UNDEF: 16)
    195c:	00000103 	andeq	r0, r0, r3, lsl #2
    1960:	0000010c 	andeq	r0, r0, ip, lsl #2
    1964:	f3310008 	vhadd.u<illegal width 64>	d0, d1, d8
    1968:	1a4f5001 	bne	13d5974 <__bss_end__+0x13cbd5c>
    196c:	00009f24 	andeq	r9, r0, r4, lsr #30
    1970:	00000000 	andeq	r0, r0, r0
    1974:	010c0000 	mrseq	r0, (UNDEF: 12)
    1978:	01300000 	teqeq	r0, r0
    197c:	00010000 	andeq	r0, r1, r0
    1980:	00013050 	andeq	r3, r1, r0, asr r0
    1984:	00014400 	andeq	r4, r1, r0, lsl #8
    1988:	f3000400 	vshl.u8	d0, d0, d0
    198c:	009f5001 	addseq	r5, pc, r1
    1990:	00000000 	andeq	r0, r0, r0
    1994:	18000000 	stmdane	r0, {}	; <UNPREDICTABLE>
    1998:	20000001 	andcs	r0, r0, r1
    199c:	02000001 	andeq	r0, r0, #1
    19a0:	209f3000 	addscs	r3, pc, r0
    19a4:	20000001 	andcs	r0, r0, r1
    19a8:	01000001 	tsteq	r0, r1
    19ac:	01205200 	teqeq	r0, r0, lsl #4
    19b0:	01280000 	teqeq	r8, r0
    19b4:	00020000 	andeq	r0, r2, r0
    19b8:	01289f30 	teqeq	r8, r0, lsr pc
    19bc:	013b0000 	teqeq	fp, r0
    19c0:	00010000 	andeq	r0, r1, r0
    19c4:	00000052 	andeq	r0, r0, r2, asr r0
    19c8:	00000000 	andeq	r0, r0, r0
    19cc:	00011800 	andeq	r1, r1, r0, lsl #16
    19d0:	00012c00 	andeq	r2, r1, r0, lsl #24
    19d4:	30000200 	andcc	r0, r0, r0, lsl #4
    19d8:	00012c9f 	muleq	r1, pc, ip	; <UNPREDICTABLE>
    19dc:	00013800 	andeq	r3, r1, r0, lsl #16
    19e0:	31000500 	tstcc	r0, r0, lsl #10
    19e4:	9f240073 	svcls	0x00240073
    19e8:	00000138 	andeq	r0, r0, r8, lsr r1
    19ec:	0000013b 	andeq	r0, r0, fp, lsr r1
    19f0:	3b510001 	blcc	14419fc <__bss_end__+0x1437de4>
    19f4:	44000001 	strmi	r0, [r0], #-1
    19f8:	08000001 	stmdaeq	r0, {r0}
    19fc:	01f33100 	mvnseq	r3, r0, lsl #2
    1a00:	241a4f50 	ldrcs	r4, [sl], #-3920	; 0xf50
    1a04:	0000009f 	muleq	r0, pc, r0	; <UNPREDICTABLE>
    1a08:	00000000 	andeq	r0, r0, r0
    1a0c:	00014400 	andeq	r4, r1, r0, lsl #8
    1a10:	0001d400 	andeq	sp, r1, r0, lsl #8
    1a14:	50000100 	andpl	r0, r0, r0, lsl #2
    1a18:	000001d4 	ldrdeq	r0, [r0], -r4
    1a1c:	00000210 	andeq	r0, r0, r0, lsl r2
    1a20:	00540001 	subseq	r0, r4, r1
    1a24:	00000000 	andeq	r0, r0, r0
    1a28:	8c000000 	stchi	0, cr0, [r0], {-0}
    1a2c:	90000001 	andls	r0, r0, r1
    1a30:	01000001 	tsteq	r0, r1
    1a34:	01985500 	orrseq	r5, r8, r0, lsl #10
    1a38:	019c0000 	orrseq	r0, ip, r0
    1a3c:	00010000 	andeq	r0, r1, r0
    1a40:	0001a455 	andeq	sl, r1, r5, asr r4
    1a44:	0001a800 	andeq	sl, r1, r0, lsl #16
    1a48:	55000100 	strpl	r0, [r0, #-256]	; 0x100
    1a4c:	000001b0 			; <UNDEFINED> instruction: 0x000001b0
    1a50:	000001b4 			; <UNDEFINED> instruction: 0x000001b4
    1a54:	bc550001 	mrrclt	0, 0, r0, r5, cr1
    1a58:	c0000001 	andgt	r0, r0, r1
    1a5c:	01000001 	tsteq	r0, r1
    1a60:	01c85500 	biceq	r5, r8, r0, lsl #10
    1a64:	01cc0000 	biceq	r0, ip, r0
    1a68:	00010000 	andeq	r0, r1, r0
    1a6c:	0001d055 	andeq	sp, r1, r5, asr r0
    1a70:	00021000 	andeq	r1, r2, r0
    1a74:	55000100 	strpl	r0, [r0, #-256]	; 0x100
	...
    1a80:	00000160 	andeq	r0, r0, r0, ror #2
    1a84:	00000188 	andeq	r0, r0, r8, lsl #3
    1a88:	88530001 	ldmdahi	r3, {r0}^
    1a8c:	90000001 	andls	r0, r0, r1
    1a90:	1c000001 	stcne	0, cr0, [r0], {1}
    1a94:	f7007000 			; <UNDEFINED> instruction: 0xf7007000
    1a98:	f425f72c 	vld1.8	{d15}, [r5 :128], ip
    1a9c:	cccd0825 	stclgt	8, cr0, [sp], {37}	; 0x25
    1aa0:	0000cccc 	andeq	ip, r0, ip, asr #25
    1aa4:	081e0000 	ldmdaeq	lr, {}	; <UNPREDICTABLE>
    1aa8:	2525f720 	strcs	pc, [r5, #-1824]!	; 0x720
    1aac:	25332cf7 	ldrcs	r2, [r3, #-3319]!	; 0xcf7
    1ab0:	0001909f 	muleq	r1, pc, r0	; <UNPREDICTABLE>
    1ab4:	00019400 	andeq	r9, r1, r0, lsl #8
    1ab8:	53000100 	movwpl	r0, #256	; 0x100
    1abc:	00000194 	muleq	r0, r4, r1
    1ac0:	0000019c 	muleq	r0, ip, r1
    1ac4:	0070001c 	rsbseq	r0, r0, ip, lsl r0
    1ac8:	25f72cf7 	ldrbcs	r2, [r7, #3319]!	; 0xcf7
    1acc:	cd0825f4 	cfstr32gt	mvfx2, [r8, #-976]	; 0xfffffc30
    1ad0:	00cccccc 	sbceq	ip, ip, ip, asr #25
    1ad4:	1e000000 	cdpne	0, 0, cr0, cr0, cr0, {0}
    1ad8:	25f72008 	ldrbcs	r2, [r7, #8]!
    1adc:	332cf725 	msrcc	CPSR_fs, #9699328	; 0x940000
    1ae0:	019c9f25 	orrseq	r9, ip, r5, lsr #30
    1ae4:	01a00000 	moveq	r0, r0
    1ae8:	00010000 	andeq	r0, r1, r0
    1aec:	0001a053 	andeq	sl, r1, r3, asr r0
    1af0:	0001a800 	andeq	sl, r1, r0, lsl #16
    1af4:	70001c00 	andvc	r1, r0, r0, lsl #24
    1af8:	f72cf700 			; <UNDEFINED> instruction: 0xf72cf700
    1afc:	0825f425 	stmdaeq	r5!, {r0, r2, r5, sl, ip, sp, lr, pc}
    1b00:	cccccccd 	stclgt	12, cr12, [ip], {205}	; 0xcd
    1b04:	00000000 	andeq	r0, r0, r0
    1b08:	f720081e 			; <UNDEFINED> instruction: 0xf720081e
    1b0c:	2cf72525 	cfldr64cs	mvdx2, [r7], #148	; 0x94
    1b10:	a89f2533 	ldmge	pc, {r0, r1, r4, r5, r8, sl, sp}	; <UNPREDICTABLE>
    1b14:	ac000001 	stcge	0, cr0, [r0], {1}
    1b18:	01000001 	tsteq	r0, r1
    1b1c:	01ac5300 			; <UNDEFINED> instruction: 0x01ac5300
    1b20:	01b40000 			; <UNDEFINED> instruction: 0x01b40000
    1b24:	001c0000 	andseq	r0, ip, r0
    1b28:	2cf70070 	ldclcs	0, cr0, [r7], #448	; 0x1c0
    1b2c:	25f425f7 	ldrbcs	r2, [r4, #1527]!	; 0x5f7
    1b30:	cccccd08 	stclgt	13, cr12, [ip], {8}
    1b34:	000000cc 	andeq	r0, r0, ip, asr #1
    1b38:	20081e00 	andcs	r1, r8, r0, lsl #28
    1b3c:	f72525f7 			; <UNDEFINED> instruction: 0xf72525f7
    1b40:	9f25332c 	svcls	0x0025332c
    1b44:	000001b4 			; <UNDEFINED> instruction: 0x000001b4
    1b48:	000001b8 			; <UNDEFINED> instruction: 0x000001b8
    1b4c:	b8530001 	ldmdalt	r3, {r0}^
    1b50:	c0000001 	andgt	r0, r0, r1
    1b54:	1c000001 	stcne	0, cr0, [r0], {1}
    1b58:	f7007000 			; <UNDEFINED> instruction: 0xf7007000
    1b5c:	f425f72c 	vld1.8	{d15}, [r5 :128], ip
    1b60:	cccd0825 	stclgt	8, cr0, [sp], {37}	; 0x25
    1b64:	0000cccc 	andeq	ip, r0, ip, asr #25
    1b68:	081e0000 	ldmdaeq	lr, {}	; <UNPREDICTABLE>
    1b6c:	2525f720 	strcs	pc, [r5, #-1824]!	; 0x720
    1b70:	25332cf7 	ldrcs	r2, [r3, #-3319]!	; 0xcf7
    1b74:	0001c09f 	muleq	r1, pc, r0	; <UNPREDICTABLE>
    1b78:	0001c400 	andeq	ip, r1, r0, lsl #8
    1b7c:	53000100 	movwpl	r0, #256	; 0x100
    1b80:	000001c4 	andeq	r0, r0, r4, asr #3
    1b84:	000001cc 	andeq	r0, r0, ip, asr #3
    1b88:	0070001c 	rsbseq	r0, r0, ip, lsl r0
    1b8c:	25f72cf7 	ldrbcs	r2, [r7, #3319]!	; 0xcf7
    1b90:	cd0825f4 	cfstr32gt	mvfx2, [r8, #-976]	; 0xfffffc30
    1b94:	00cccccc 	sbceq	ip, ip, ip, asr #25
    1b98:	1e000000 	cdpne	0, 0, cr0, cr0, cr0, {0}
    1b9c:	25f72008 	ldrbcs	r2, [r7, #8]!
    1ba0:	332cf725 	msrcc	CPSR_fs, #9699328	; 0x940000
    1ba4:	01cc9f25 	biceq	r9, ip, r5, lsr #30
    1ba8:	01d00000 	bicseq	r0, r0, r0
    1bac:	00010000 	andeq	r0, r1, r0
    1bb0:	0001d053 	andeq	sp, r1, r3, asr r0
    1bb4:	0001d400 	andeq	sp, r1, r0, lsl #8
    1bb8:	70001c00 	andvc	r1, r0, r0, lsl #24
    1bbc:	f72cf700 			; <UNDEFINED> instruction: 0xf72cf700
    1bc0:	0825f425 	stmdaeq	r5!, {r0, r2, r5, sl, ip, sp, lr, pc}
    1bc4:	cccccccd 	stclgt	12, cr12, [ip], {205}	; 0xcd
    1bc8:	00000000 	andeq	r0, r0, r0
    1bcc:	f720081e 			; <UNDEFINED> instruction: 0xf720081e
    1bd0:	2cf72525 	cfldr64cs	mvdx2, [r7], #148	; 0x94
    1bd4:	d49f2533 	ldrle	r2, [pc], #1331	; 1bdc <_start-0x6424>
    1bd8:	dc000001 	stcle	0, cr0, [r0], {1}
    1bdc:	1c000001 	stcne	0, cr0, [r0], {1}
    1be0:	f7007400 			; <UNDEFINED> instruction: 0xf7007400
    1be4:	f425f72c 	vld1.8	{d15}, [r5 :128], ip
    1be8:	cccd0825 	stclgt	8, cr0, [sp], {37}	; 0x25
    1bec:	0000cccc 	andeq	ip, r0, ip, asr #25
    1bf0:	081e0000 	ldmdaeq	lr, {}	; <UNPREDICTABLE>
    1bf4:	2525f720 	strcs	pc, [r5, #-1824]!	; 0x720
    1bf8:	25332cf7 	ldrcs	r2, [r3, #-3319]!	; 0xcf7
    1bfc:	0001dc9f 	muleq	r1, pc, ip	; <UNPREDICTABLE>
    1c00:	0001e000 	andeq	lr, r1, r0
    1c04:	74001700 	strvc	r1, [r0], #-1792	; 0x700
    1c08:	f72cf700 			; <UNDEFINED> instruction: 0xf72cf700
    1c0c:	f7007125 			; <UNDEFINED> instruction: 0xf7007125
    1c10:	1e25f72c 	cdpne	7, 2, cr15, cr5, cr12, {1}
    1c14:	25f72008 	ldrbcs	r2, [r7, #8]!
    1c18:	332cf725 	msrcc	CPSR_fs, #9699328	; 0x940000
    1c1c:	01e09f25 	mvneq	r9, r5, lsr #30
    1c20:	02100000 	andseq	r0, r0, #0
    1c24:	001c0000 	andseq	r0, ip, r0
    1c28:	2cf70074 	ldclcs	0, cr0, [r7], #464	; 0x1d0
    1c2c:	25f425f7 	ldrbcs	r2, [r4, #1527]!	; 0x5f7
    1c30:	cccccd08 	stclgt	13, cr12, [ip], {8}
    1c34:	000000cc 	andeq	r0, r0, ip, asr #1
    1c38:	20081e00 	andcs	r1, r8, r0, lsl #28
    1c3c:	f72525f7 			; <UNDEFINED> instruction: 0xf72525f7
    1c40:	9f25332c 	svcls	0x0025332c
	...
    1c4c:	000001d8 	ldrdeq	r0, [r0], -r8
    1c50:	000001fc 	strdeq	r0, [r0], -ip
    1c54:	fc500001 	mrrc2	0, 0, r0, r0, cr1	; <UNPREDICTABLE>
    1c58:	03000001 	movweq	r0, #1
    1c5c:	01000002 	tsteq	r0, r2
    1c60:	00005100 	andeq	r5, r0, r0, lsl #2
    1c64:	00000000 	andeq	r0, r0, r0
    1c68:	02100000 	andseq	r0, r0, #0
    1c6c:	022c0000 	eoreq	r0, ip, #0
    1c70:	00010000 	andeq	r0, r1, r0
    1c74:	00022c50 	andeq	r2, r2, r0, asr ip
    1c78:	00023400 	andeq	r3, r2, r0, lsl #8
    1c7c:	54000100 	strpl	r0, [r0], #-256	; 0x100
    1c80:	00000234 	andeq	r0, r0, r4, lsr r2
    1c84:	0000023c 	andeq	r0, r0, ip, lsr r2
    1c88:	3c500001 	mrrccc	0, 0, r0, r0, cr1	; <UNPREDICTABLE>
    1c8c:	44000002 	strmi	r0, [r0], #-2
    1c90:	01000002 	tsteq	r0, r2
    1c94:	02445400 	subeq	r5, r4, #0, 8
    1c98:	02500000 	subseq	r0, r0, #0
    1c9c:	00040000 	andeq	r0, r4, r0
    1ca0:	9f5001f3 	svcls	0x005001f3
    1ca4:	00000250 	andeq	r0, r0, r0, asr r2
    1ca8:	00000254 	andeq	r0, r0, r4, asr r2
    1cac:	54500001 	ldrbpl	r0, [r0], #-1
    1cb0:	5c000002 	stcpl	0, cr0, [r0], {2}
    1cb4:	01000002 	tsteq	r0, r2
    1cb8:	00005400 	andeq	r5, r0, r0, lsl #8
    1cbc:	00000000 	andeq	r0, r0, r0
    1cc0:	02200000 	eoreq	r0, r0, #0
    1cc4:	02300000 	eorseq	r0, r0, #0
    1cc8:	00020000 	andeq	r0, r2, r0
    1ccc:	02309f30 	eorseq	r9, r0, #48, 30	; 0xc0
    1cd0:	02340000 	eorseq	r0, r4, #0
    1cd4:	00010000 	andeq	r0, r1, r0
    1cd8:	00023450 	andeq	r3, r2, r0, asr r4
    1cdc:	00024000 	andeq	r4, r2, r0
    1ce0:	30000200 	andcc	r0, r0, r0, lsl #4
    1ce4:	0002409f 	muleq	r2, pc, r0	; <UNPREDICTABLE>
    1ce8:	00024c00 	andeq	r4, r2, r0, lsl #24
    1cec:	50000100 	andpl	r0, r0, r0, lsl #2
	...
    1cf8:	0000025c 	andeq	r0, r0, ip, asr r2
    1cfc:	00000273 	andeq	r0, r0, r3, ror r2
    1d00:	73500001 	cmpvc	r0, #1
    1d04:	78000002 	stmdavc	r0, {r1}
    1d08:	04000002 	streq	r0, [r0], #-2
    1d0c:	5001f300 	andpl	pc, r1, r0, lsl #6
    1d10:	0002789f 	muleq	r2, pc, r8	; <UNPREDICTABLE>
    1d14:	00027b00 	andeq	r7, r2, r0, lsl #22
    1d18:	50000100 	andpl	r0, r0, r0, lsl #2
    1d1c:	0000027b 	andeq	r0, r0, fp, ror r2
    1d20:	00000280 	andeq	r0, r0, r0, lsl #5
    1d24:	01f30004 	mvnseq	r0, r4
    1d28:	00009f50 	andeq	r9, r0, r0, asr pc
    1d2c:	00000000 	andeq	r0, r0, r0
    1d30:	025c0000 	subseq	r0, ip, #0
    1d34:	02730000 	rsbseq	r0, r3, #0
    1d38:	00010000 	andeq	r0, r1, r0
    1d3c:	00027351 	andeq	r7, r2, r1, asr r3
    1d40:	00027800 	andeq	r7, r2, r0, lsl #16
    1d44:	f3000400 	vshl.u8	d0, d0, d0
    1d48:	789f5101 	ldmvc	pc, {r0, r8, ip, lr}	; <UNPREDICTABLE>
    1d4c:	7b000002 	blvc	1d5c <_start-0x62a4>
    1d50:	01000002 	tsteq	r0, r2
    1d54:	027b5100 	rsbseq	r5, fp, #0, 2
    1d58:	02800000 	addeq	r0, r0, #0
    1d5c:	00040000 	andeq	r0, r4, r0
    1d60:	9f5101f3 	svcls	0x005101f3
	...
    1d6c:	00000280 	andeq	r0, r0, r0, lsl #5
    1d70:	00000318 	andeq	r0, r0, r8, lsl r3
    1d74:	18500001 	ldmdane	r0, {r0}^
    1d78:	58000003 	stmdapl	r0, {r0, r1}
    1d7c:	01000003 	tsteq	r0, r3
    1d80:	00005400 	andeq	r5, r0, r0, lsl #8
    1d84:	00000000 	andeq	r0, r0, r0
    1d88:	02800000 	addeq	r0, r0, #0
    1d8c:	031b0000 	tsteq	fp, #0
    1d90:	00010000 	andeq	r0, r1, r0
    1d94:	00031b51 	andeq	r1, r3, r1, asr fp
    1d98:	00035800 	andeq	r5, r3, r0, lsl #16
    1d9c:	f3000400 	vshl.u8	d0, d0, d0
    1da0:	009f5101 	addseq	r5, pc, r1, lsl #2
    1da4:	00000000 	andeq	r0, r0, r0
    1da8:	d0000000 	andle	r0, r0, r0
    1dac:	d4000002 	strle	r0, [r0], #-2
    1db0:	01000002 	tsteq	r0, r2
    1db4:	02dc5600 	sbcseq	r5, ip, #0, 12
    1db8:	02e00000 	rsceq	r0, r0, #0
    1dbc:	00010000 	andeq	r0, r1, r0
    1dc0:	0002e856 	andeq	lr, r2, r6, asr r8
    1dc4:	0002ec00 	andeq	lr, r2, r0, lsl #24
    1dc8:	56000100 	strpl	r0, [r0], -r0, lsl #2
    1dcc:	000002f4 	strdeq	r0, [r0], -r4
    1dd0:	000002f8 	strdeq	r0, [r0], -r8
    1dd4:	00560001 	subseq	r0, r6, r1
    1dd8:	04000003 	streq	r0, [r0], #-3
    1ddc:	01000003 	tsteq	r0, r3
    1de0:	030c5600 	movweq	r5, #50688	; 0xc600
    1de4:	03100000 	tsteq	r0, #0
    1de8:	00010000 	andeq	r0, r1, r0
    1dec:	00031456 	andeq	r1, r3, r6, asr r4
    1df0:	00035800 	andeq	r5, r3, r0, lsl #16
    1df4:	56000100 	strpl	r0, [r0], -r0, lsl #2
	...
    1e00:	000002a4 	andeq	r0, r0, r4, lsr #5
    1e04:	000002cc 	andeq	r0, r0, ip, asr #5
    1e08:	cc530001 	mrrcgt	0, 0, r0, r3, cr1
    1e0c:	d4000002 	strle	r0, [r0], #-2
    1e10:	1c000002 	stcne	0, cr0, [r0], {2}
    1e14:	f7007000 			; <UNDEFINED> instruction: 0xf7007000
    1e18:	f425f72c 	vld1.8	{d15}, [r5 :128], ip
    1e1c:	cccd0825 	stclgt	8, cr0, [sp], {37}	; 0x25
    1e20:	0000cccc 	andeq	ip, r0, ip, asr #25
    1e24:	081e0000 	ldmdaeq	lr, {}	; <UNPREDICTABLE>
    1e28:	2525f720 	strcs	pc, [r5, #-1824]!	; 0x720
    1e2c:	25332cf7 	ldrcs	r2, [r3, #-3319]!	; 0xcf7
    1e30:	0002d49f 	muleq	r2, pc, r4	; <UNPREDICTABLE>
    1e34:	0002d800 	andeq	sp, r2, r0, lsl #16
    1e38:	53000100 	movwpl	r0, #256	; 0x100
    1e3c:	000002d8 	ldrdeq	r0, [r0], -r8
    1e40:	000002e0 	andeq	r0, r0, r0, ror #5
    1e44:	0070001c 	rsbseq	r0, r0, ip, lsl r0
    1e48:	25f72cf7 	ldrbcs	r2, [r7, #3319]!	; 0xcf7
    1e4c:	cd0825f4 	cfstr32gt	mvfx2, [r8, #-976]	; 0xfffffc30
    1e50:	00cccccc 	sbceq	ip, ip, ip, asr #25
    1e54:	1e000000 	cdpne	0, 0, cr0, cr0, cr0, {0}
    1e58:	25f72008 	ldrbcs	r2, [r7, #8]!
    1e5c:	332cf725 	msrcc	CPSR_fs, #9699328	; 0x940000
    1e60:	02e09f25 	rsceq	r9, r0, #37, 30	; 0x94
    1e64:	02e40000 	rsceq	r0, r4, #0
    1e68:	00010000 	andeq	r0, r1, r0
    1e6c:	0002e453 	andeq	lr, r2, r3, asr r4
    1e70:	0002ec00 	andeq	lr, r2, r0, lsl #24
    1e74:	70001c00 	andvc	r1, r0, r0, lsl #24
    1e78:	f72cf700 			; <UNDEFINED> instruction: 0xf72cf700
    1e7c:	0825f425 	stmdaeq	r5!, {r0, r2, r5, sl, ip, sp, lr, pc}
    1e80:	cccccccd 	stclgt	12, cr12, [ip], {205}	; 0xcd
    1e84:	00000000 	andeq	r0, r0, r0
    1e88:	f720081e 			; <UNDEFINED> instruction: 0xf720081e
    1e8c:	2cf72525 	cfldr64cs	mvdx2, [r7], #148	; 0x94
    1e90:	ec9f2533 	cfldr32	mvfx2, [pc], {51}	; 0x33
    1e94:	f0000002 			; <UNDEFINED> instruction: 0xf0000002
    1e98:	01000002 	tsteq	r0, r2
    1e9c:	02f05300 	rscseq	r5, r0, #0, 6
    1ea0:	02f80000 	rscseq	r0, r8, #0
    1ea4:	001c0000 	andseq	r0, ip, r0
    1ea8:	2cf70070 	ldclcs	0, cr0, [r7], #448	; 0x1c0
    1eac:	25f425f7 	ldrbcs	r2, [r4, #1527]!	; 0x5f7
    1eb0:	cccccd08 	stclgt	13, cr12, [ip], {8}
    1eb4:	000000cc 	andeq	r0, r0, ip, asr #1
    1eb8:	20081e00 	andcs	r1, r8, r0, lsl #28
    1ebc:	f72525f7 			; <UNDEFINED> instruction: 0xf72525f7
    1ec0:	9f25332c 	svcls	0x0025332c
    1ec4:	000002f8 	strdeq	r0, [r0], -r8
    1ec8:	000002fc 	strdeq	r0, [r0], -ip
    1ecc:	fc530001 	mrrc2	0, 0, r0, r3, cr1
    1ed0:	04000002 	streq	r0, [r0], #-2
    1ed4:	1c000003 	stcne	0, cr0, [r0], {3}
    1ed8:	f7007000 			; <UNDEFINED> instruction: 0xf7007000
    1edc:	f425f72c 	vld1.8	{d15}, [r5 :128], ip
    1ee0:	cccd0825 	stclgt	8, cr0, [sp], {37}	; 0x25
    1ee4:	0000cccc 	andeq	ip, r0, ip, asr #25
    1ee8:	081e0000 	ldmdaeq	lr, {}	; <UNPREDICTABLE>
    1eec:	2525f720 	strcs	pc, [r5, #-1824]!	; 0x720
    1ef0:	25332cf7 	ldrcs	r2, [r3, #-3319]!	; 0xcf7
    1ef4:	0003049f 	muleq	r3, pc, r4	; <UNPREDICTABLE>
    1ef8:	00030800 	andeq	r0, r3, r0, lsl #16
    1efc:	53000100 	movwpl	r0, #256	; 0x100
    1f00:	00000308 	andeq	r0, r0, r8, lsl #6
    1f04:	00000310 	andeq	r0, r0, r0, lsl r3
    1f08:	0070001c 	rsbseq	r0, r0, ip, lsl r0
    1f0c:	25f72cf7 	ldrbcs	r2, [r7, #3319]!	; 0xcf7
    1f10:	cd0825f4 	cfstr32gt	mvfx2, [r8, #-976]	; 0xfffffc30
    1f14:	00cccccc 	sbceq	ip, ip, ip, asr #25
    1f18:	1e000000 	cdpne	0, 0, cr0, cr0, cr0, {0}
    1f1c:	25f72008 	ldrbcs	r2, [r7, #8]!
    1f20:	332cf725 	msrcc	CPSR_fs, #9699328	; 0x940000
    1f24:	03109f25 	tsteq	r0, #37, 30	; 0x94
    1f28:	03140000 	tsteq	r4, #0
    1f2c:	00010000 	andeq	r0, r1, r0
    1f30:	00031453 	andeq	r1, r3, r3, asr r4
    1f34:	00031800 	andeq	r1, r3, r0, lsl #16
    1f38:	70001c00 	andvc	r1, r0, r0, lsl #24
    1f3c:	f72cf700 			; <UNDEFINED> instruction: 0xf72cf700
    1f40:	0825f425 	stmdaeq	r5!, {r0, r2, r5, sl, ip, sp, lr, pc}
    1f44:	cccccccd 	stclgt	12, cr12, [ip], {205}	; 0xcd
    1f48:	00000000 	andeq	r0, r0, r0
    1f4c:	f720081e 			; <UNDEFINED> instruction: 0xf720081e
    1f50:	2cf72525 	cfldr64cs	mvdx2, [r7], #148	; 0x94
    1f54:	189f2533 	ldmne	pc, {r0, r1, r4, r5, r8, sl, sp}	; <UNPREDICTABLE>
    1f58:	20000003 	andcs	r0, r0, r3
    1f5c:	1c000003 	stcne	0, cr0, [r0], {3}
    1f60:	f7007400 			; <UNDEFINED> instruction: 0xf7007400
    1f64:	f425f72c 	vld1.8	{d15}, [r5 :128], ip
    1f68:	cccd0825 	stclgt	8, cr0, [sp], {37}	; 0x25
    1f6c:	0000cccc 	andeq	ip, r0, ip, asr #25
    1f70:	081e0000 	ldmdaeq	lr, {}	; <UNPREDICTABLE>
    1f74:	2525f720 	strcs	pc, [r5, #-1824]!	; 0x720
    1f78:	25332cf7 	ldrcs	r2, [r3, #-3319]!	; 0xcf7
    1f7c:	0003209f 	muleq	r3, pc, r0	; <UNPREDICTABLE>
    1f80:	00032400 	andeq	r2, r3, r0, lsl #8
    1f84:	74001700 	strvc	r1, [r0], #-1792	; 0x700
    1f88:	f72cf700 			; <UNDEFINED> instruction: 0xf72cf700
    1f8c:	f7007325 			; <UNDEFINED> instruction: 0xf7007325
    1f90:	1e25f72c 	cdpne	7, 2, cr15, cr5, cr12, {1}
    1f94:	25f72008 	ldrbcs	r2, [r7, #8]!
    1f98:	332cf725 	msrcc	CPSR_fs, #9699328	; 0x940000
    1f9c:	03249f25 	teqeq	r4, #37, 30	; 0x94
    1fa0:	03580000 	cmpeq	r8, #0
    1fa4:	001c0000 	andseq	r0, ip, r0
    1fa8:	2cf70074 	ldclcs	0, cr0, [r7], #464	; 0x1d0
    1fac:	25f425f7 	ldrbcs	r2, [r4, #1527]!	; 0x5f7
    1fb0:	cccccd08 	stclgt	13, cr12, [ip], {8}
    1fb4:	000000cc 	andeq	r0, r0, ip, asr #1
    1fb8:	20081e00 	andcs	r1, r8, r0, lsl #28
    1fbc:	f72525f7 			; <UNDEFINED> instruction: 0xf72525f7
    1fc0:	9f25332c 	svcls	0x0025332c
	...
    1fcc:	0000031c 	andeq	r0, r0, ip, lsl r3
    1fd0:	00000340 	andeq	r0, r0, r0, asr #6
    1fd4:	40500001 	subsmi	r0, r0, r1
    1fd8:	48000003 	stmdami	r0, {r0, r1}
    1fdc:	09000003 	stmdbeq	r0, {r0, r1}
    1fe0:	73007500 	movwvc	r7, #1280	; 0x500
    1fe4:	00712400 	rsbseq	r2, r1, r0, lsl #8
    1fe8:	03489f21 	movteq	r9, #36641	; 0x8f21
    1fec:	034b0000 	movteq	r0, #45056	; 0xb000
    1ff0:	00010000 	andeq	r0, r1, r0
    1ff4:	00000051 	andeq	r0, r0, r1, asr r0
    1ff8:	00000000 	andeq	r0, r0, r0
    1ffc:	00035800 	andeq	r5, r3, r0, lsl #16
    2000:	00037c00 	andeq	r7, r3, r0, lsl #24
    2004:	50000100 	andpl	r0, r0, r0, lsl #2
    2008:	0000037c 	andeq	r0, r0, ip, ror r3
    200c:	00000390 	muleq	r0, r0, r3
    2010:	01f30004 	mvnseq	r0, r4
    2014:	00009f50 	andeq	r9, r0, r0, asr pc
    2018:	00000000 	andeq	r0, r0, r0
    201c:	03640000 	cmneq	r4, #0
    2020:	036c0000 	cmneq	ip, #0
    2024:	00020000 	andeq	r0, r2, r0
    2028:	036c9f30 	cmneq	ip, #48, 30	; 0xc0
    202c:	036c0000 	cmneq	ip, #0
    2030:	00010000 	andeq	r0, r1, r0
    2034:	00036c52 	andeq	r6, r3, r2, asr ip
    2038:	00037400 	andeq	r7, r3, r0, lsl #8
    203c:	30000200 	andcc	r0, r0, r0, lsl #4
    2040:	0003749f 	muleq	r3, pc, r4	; <UNPREDICTABLE>
    2044:	00038700 	andeq	r8, r3, r0, lsl #14
    2048:	52000100 	andpl	r0, r0, #0, 2
	...
    2054:	00000364 	andeq	r0, r0, r4, ror #6
    2058:	00000378 	andeq	r0, r0, r8, ror r3
    205c:	9f300002 	svcls	0x00300002
    2060:	00000378 	andeq	r0, r0, r8, ror r3
    2064:	00000384 	andeq	r0, r0, r4, lsl #7
    2068:	73310005 	teqvc	r1, #5
    206c:	849f2400 	ldrhi	r2, [pc], #1024	; 2074 <_start-0x5f8c>
    2070:	87000003 	strhi	r0, [r0, -r3]
    2074:	01000003 	tsteq	r0, r3
    2078:	03875100 	orreq	r5, r7, #0, 2
    207c:	03900000 	orrseq	r0, r0, #0
    2080:	00080000 	andeq	r0, r8, r0
    2084:	5001f331 	andpl	pc, r1, r1, lsr r3	; <UNPREDICTABLE>
    2088:	9f241a4f 	svcls	0x00241a4f
	...
    2094:	00000390 	muleq	r0, r0, r3
    2098:	0000039c 	muleq	r0, ip, r3
    209c:	9c500001 	mrrcls	0, 0, r0, r0, cr1	; <UNPREDICTABLE>
    20a0:	bc000003 	stclt	0, cr0, [r0], {3}
    20a4:	04000003 	streq	r0, [r0], #-3
    20a8:	5001f300 	andpl	pc, r1, r0, lsl #6
    20ac:	0000009f 	muleq	r0, pc, r0	; <UNPREDICTABLE>
    20b0:	00000000 	andeq	r0, r0, r0
    20b4:	0003bc00 	andeq	fp, r3, r0, lsl #24
    20b8:	0003cf00 	andeq	ip, r3, r0, lsl #30
    20bc:	50000100 	andpl	r0, r0, r0, lsl #2
    20c0:	000003cf 	andeq	r0, r0, pc, asr #7
    20c4:	00000408 	andeq	r0, r0, r8, lsl #8
    20c8:	08540001 	ldmdaeq	r4, {r0}^
    20cc:	40000004 	andmi	r0, r0, r4
    20d0:	04000004 	streq	r0, [r0], #-4
    20d4:	5001f300 	andpl	pc, r1, r0, lsl #6
    20d8:	0000009f 	muleq	r0, pc, r0	; <UNPREDICTABLE>
    20dc:	00000000 	andeq	r0, r0, r0
    20e0:	00042800 	andeq	r2, r4, r0, lsl #16
    20e4:	00042c00 	andeq	r2, r4, r0, lsl #24
    20e8:	50000100 	andpl	r0, r0, r0, lsl #2
    20ec:	0000042c 	andeq	r0, r0, ip, lsr #8
    20f0:	00000433 	andeq	r0, r0, r3, lsr r4
    20f4:	00510001 	subseq	r0, r1, r1
    20f8:	00000000 	andeq	r0, r0, r0
    20fc:	e4000000 	str	r0, [r0], #-0
    2100:	ec000003 	stc	0, cr0, [r0], {3}
    2104:	01000003 	tsteq	r0, r3
    2108:	03ec5000 	mvneq	r5, #0
    210c:	03f30000 	mvnseq	r0, #0
    2110:	00010000 	andeq	r0, r1, r0
    2114:	00000051 	andeq	r0, r0, r1, asr r0
    2118:	00000000 	andeq	r0, r0, r0
    211c:	00040400 	andeq	r0, r4, r0, lsl #8
    2120:	00041000 	andeq	r1, r4, r0
    2124:	50000100 	andpl	r0, r0, r0, lsl #2
    2128:	00000410 	andeq	r0, r0, r0, lsl r4
    212c:	00000417 	andeq	r0, r0, r7, lsl r4
    2130:	00510001 	subseq	r0, r1, r1
    2134:	00000000 	andeq	r0, r0, r0
    2138:	40000000 	andmi	r0, r0, r0
    213c:	53000004 	movwpl	r0, #4
    2140:	01000004 	tsteq	r0, r4
    2144:	04535000 	ldrbeq	r5, [r3], #-0
    2148:	048c0000 	streq	r0, [ip], #0
    214c:	00010000 	andeq	r0, r1, r0
    2150:	00048c54 	andeq	r8, r4, r4, asr ip
    2154:	0004c400 	andeq	ip, r4, r0, lsl #8
    2158:	f3000400 	vshl.u8	d0, d0, d0
    215c:	009f5001 	addseq	r5, pc, r1
    2160:	00000000 	andeq	r0, r0, r0
    2164:	ac000000 	stcge	0, cr0, [r0], {-0}
    2168:	b0000004 	andlt	r0, r0, r4
    216c:	01000004 	tsteq	r0, r4
    2170:	04b05000 	ldrteq	r5, [r0], #0
    2174:	04b70000 	ldrteq	r0, [r7], #0
    2178:	00010000 	andeq	r0, r1, r0
    217c:	00000051 	andeq	r0, r0, r1, asr r0
    2180:	00000000 	andeq	r0, r0, r0
    2184:	00046800 	andeq	r6, r4, r0, lsl #16
    2188:	00047000 	andeq	r7, r4, r0
    218c:	50000100 	andpl	r0, r0, r0, lsl #2
    2190:	00000470 	andeq	r0, r0, r0, ror r4
    2194:	00000477 	andeq	r0, r0, r7, ror r4
    2198:	00510001 	subseq	r0, r1, r1
    219c:	00000000 	andeq	r0, r0, r0
    21a0:	88000000 	stmdahi	r0, {}	; <UNPREDICTABLE>
    21a4:	94000004 	strls	r0, [r0], #-4
    21a8:	01000004 	tsteq	r0, r4
    21ac:	04945000 	ldreq	r5, [r4], #0
    21b0:	049b0000 	ldreq	r0, [fp], #0
    21b4:	00010000 	andeq	r0, r1, r0
    21b8:	00000051 	andeq	r0, r0, r1, asr r0
    21bc:	00000000 	andeq	r0, r0, r0
    21c0:	0004c400 	andeq	ip, r4, r0, lsl #8
    21c4:	0004d700 	andeq	sp, r4, r0, lsl #14
    21c8:	50000100 	andpl	r0, r0, r0, lsl #2
    21cc:	000004d7 	ldrdeq	r0, [r0], -r7
    21d0:	00000518 	andeq	r0, r0, r8, lsl r5
    21d4:	18540001 	ldmdane	r4, {r0}^
    21d8:	3c000005 	stccc	0, cr0, [r0], {5}
    21dc:	04000005 	streq	r0, [r0], #-5
    21e0:	5001f300 	andpl	pc, r1, r0, lsl #6
    21e4:	00053c9f 	muleq	r5, pc, ip	; <UNPREDICTABLE>
    21e8:	00054000 	andeq	r4, r5, r0
    21ec:	50000100 	andpl	r0, r0, r0, lsl #2
    21f0:	00000540 	andeq	r0, r0, r0, asr #10
    21f4:	00000548 	andeq	r0, r0, r8, asr #10
    21f8:	00540001 	subseq	r0, r4, r1
    21fc:	00000000 	andeq	r0, r0, r0
    2200:	ec000000 	stc	0, cr0, [r0], {-0}
    2204:	fb000004 	blx	221e <_start-0x5de2>
    2208:	08000004 	stmdaeq	r0, {r2}
    220c:	00743100 	rsbseq	r3, r4, r0, lsl #2
    2210:	1a007024 	bne	1e2a8 <__bss_end__+0x14690>
    2214:	0000009f 	muleq	r0, pc, r0	; <UNPREDICTABLE>
    2218:	00000000 	andeq	r0, r0, r0
    221c:	00051800 	andeq	r1, r5, r0, lsl #16
    2220:	00053000 	andeq	r3, r5, r0
    2224:	54000100 	strpl	r0, [r0], #-256	; 0x100
	...
    2230:	00000548 	andeq	r0, r0, r8, asr #10
    2234:	0000055b 	andeq	r0, r0, fp, asr r5
    2238:	5b500001 	blpl	1402244 <__bss_end__+0x13f862c>
    223c:	80000005 	andhi	r0, r0, r5
    2240:	01000005 	tsteq	r0, r5
    2244:	05805400 	streq	r5, [r0, #1024]	; 0x400
    2248:	05a00000 	streq	r0, [r0, #0]!
    224c:	00040000 	andeq	r0, r4, r0
    2250:	9f5001f3 	svcls	0x005001f3
	...
    225c:	000000fc 	strdeq	r0, [r0], -ip
    2260:	00000104 	andeq	r0, r0, r4, lsl #2
    2264:	04500001 	ldrbeq	r0, [r0], #-1
    2268:	28000001 	stmdacs	r0, {r0}
    226c:	01000001 	tsteq	r0, r1
    2270:	00005400 	andeq	r5, r0, r0, lsl #8
    2274:	00000000 	andeq	r0, r0, r0
	...

Disassembly of section .debug_aranges:

00000000 <.debug_aranges>:
   0:	0000001c 	andeq	r0, r0, ip, lsl r0
   4:	00000002 	andeq	r0, r0, r2
   8:	00040000 	andeq	r0, r4, r0
   c:	00000000 	andeq	r0, r0, r0
  10:	00008010 	andeq	r8, r0, r0, lsl r0
  14:	00000760 	andeq	r0, r0, r0, ror #14
	...
  20:	0000001c 	andeq	r0, r0, ip, lsl r0
  24:	10df0002 	sbcsne	r0, pc, r2
  28:	00040000 	andeq	r0, r4, r0
  2c:	00000000 	andeq	r0, r0, r0
  30:	00008770 	andeq	r8, r0, r0, ror r7
  34:	00000058 	andeq	r0, r0, r8, asr r0
	...
  40:	0000001c 	andeq	r0, r0, ip, lsl r0
  44:	12740002 	rsbsne	r0, r4, #2
  48:	00040000 	andeq	r0, r4, r0
  4c:	00000000 	andeq	r0, r0, r0
  50:	000087c8 	andeq	r8, r0, r8, asr #15
  54:	0000003c 	andeq	r0, r0, ip, lsr r0
	...
  60:	0000001c 	andeq	r0, r0, ip, lsl r0
  64:	138b0002 	orrne	r0, fp, #2
  68:	00040000 	andeq	r0, r4, r0
  6c:	00000000 	andeq	r0, r0, r0
  70:	00008804 	andeq	r8, r0, r4, lsl #16
  74:	00000034 	andeq	r0, r0, r4, lsr r0
	...
  80:	0000001c 	andeq	r0, r0, ip, lsl r0
  84:	147d0002 	ldrbtne	r0, [sp], #-2
  88:	00040000 	andeq	r0, r4, r0
  8c:	00000000 	andeq	r0, r0, r0
  90:	00008838 	andeq	r8, r0, r8, lsr r8
  94:	000004f8 	strdeq	r0, [r0], -r8
	...
  a0:	0000001c 	andeq	r0, r0, ip, lsl r0
  a4:	1b020002 	blne	800b4 <__bss_end__+0x7649c>
  a8:	00040000 	andeq	r0, r4, r0
  ac:	00000000 	andeq	r0, r0, r0
  b0:	00008d30 	andeq	r8, r0, r0, lsr sp
  b4:	00000020 	andeq	r0, r0, r0, lsr #32
	...
  c0:	0000001c 	andeq	r0, r0, ip, lsl r0
  c4:	1bbe0002 	blne	fef800d4 <__bss_end__+0xfef764bc>
  c8:	00040000 	andeq	r0, r4, r0
  cc:	00000000 	andeq	r0, r0, r0
  d0:	00008d50 	andeq	r8, r0, r0, asr sp
  d4:	00000028 	andeq	r0, r0, r8, lsr #32
	...
  e0:	0000001c 	andeq	r0, r0, ip, lsl r0
  e4:	1cc10002 	stclne	0, cr0, [r1], {2}
  e8:	00040000 	andeq	r0, r4, r0
  ec:	00000000 	andeq	r0, r0, r0
  f0:	00008d78 	andeq	r8, r0, r8, ror sp
  f4:	00000034 	andeq	r0, r0, r4, lsr r0
	...
 100:	0000001c 	andeq	r0, r0, ip, lsl r0
 104:	1dc40002 	stclne	0, cr0, [r4, #8]
 108:	00040000 	andeq	r0, r4, r0
 10c:	00000000 	andeq	r0, r0, r0
 110:	00008dac 	andeq	r8, r0, ip, lsr #27
 114:	00000074 	andeq	r0, r0, r4, ror r0
	...
 120:	0000001c 	andeq	r0, r0, ip, lsl r0
 124:	1f750002 	svcne	0x00750002
 128:	00040000 	andeq	r0, r4, r0
 12c:	00000000 	andeq	r0, r0, r0
 130:	00008e20 	andeq	r8, r0, r0, lsr #28
 134:	00000088 	andeq	r0, r0, r8, lsl #1
	...
 140:	0000001c 	andeq	r0, r0, ip, lsl r0
 144:	21510002 	cmpcs	r1, r2
 148:	00040000 	andeq	r0, r4, r0
 14c:	00000000 	andeq	r0, r0, r0
 150:	00008ea8 	andeq	r8, r0, r8, lsr #29
 154:	000005a0 	andeq	r0, r0, r0, lsr #11
	...
 160:	0000001c 	andeq	r0, r0, ip, lsl r0
 164:	29d70002 	ldmibcs	r7, {r1}^
 168:	00040000 	andeq	r0, r4, r0
 16c:	00000000 	andeq	r0, r0, r0
 170:	00009448 	andeq	r9, r0, r8, asr #8
 174:	00000154 	andeq	r0, r0, r4, asr r1
	...

Disassembly of section .debug_ranges:

00000000 <.debug_ranges>:
   0:	00000258 	andeq	r0, r0, r8, asr r2
   4:	00000260 	andeq	r0, r0, r0, ror #4
   8:	00000264 	andeq	r0, r0, r4, ror #4
   c:	00000288 	andeq	r0, r0, r8, lsl #5
	...
  18:	00000258 	andeq	r0, r0, r8, asr r2
  1c:	0000025c 	andeq	r0, r0, ip, asr r2
  20:	00000264 	andeq	r0, r0, r4, ror #4
  24:	00000268 	andeq	r0, r0, r8, ror #4
  28:	0000026c 	andeq	r0, r0, ip, ror #4
  2c:	00000274 	andeq	r0, r0, r4, ror r2
  30:	00000278 	andeq	r0, r0, r8, ror r2
  34:	0000027c 	andeq	r0, r0, ip, ror r2
	...
  40:	00000268 	andeq	r0, r0, r8, ror #4
  44:	0000026c 	andeq	r0, r0, ip, ror #4
  48:	00000274 	andeq	r0, r0, r4, ror r2
  4c:	00000278 	andeq	r0, r0, r8, ror r2
  50:	0000027c 	andeq	r0, r0, ip, ror r2
  54:	00000288 	andeq	r0, r0, r8, lsl #5
	...
  60:	00000298 	muleq	r0, r8, r2
  64:	000002a0 	andeq	r0, r0, r0, lsr #5
  68:	000002a4 	andeq	r0, r0, r4, lsr #5
  6c:	000002c8 	andeq	r0, r0, r8, asr #5
	...
  78:	00000298 	muleq	r0, r8, r2
  7c:	0000029c 	muleq	r0, ip, r2
  80:	000002a4 	andeq	r0, r0, r4, lsr #5
  84:	000002a8 	andeq	r0, r0, r8, lsr #5
  88:	000002ac 	andeq	r0, r0, ip, lsr #5
  8c:	000002b4 			; <UNDEFINED> instruction: 0x000002b4
  90:	000002b8 			; <UNDEFINED> instruction: 0x000002b8
  94:	000002bc 			; <UNDEFINED> instruction: 0x000002bc
	...
  a0:	000002a8 	andeq	r0, r0, r8, lsr #5
  a4:	000002ac 	andeq	r0, r0, ip, lsr #5
  a8:	000002b4 			; <UNDEFINED> instruction: 0x000002b4
  ac:	000002b8 			; <UNDEFINED> instruction: 0x000002b8
  b0:	000002bc 			; <UNDEFINED> instruction: 0x000002bc
  b4:	000002c8 	andeq	r0, r0, r8, asr #5
	...
  c0:	000002d8 	ldrdeq	r0, [r0], -r8
  c4:	000002e0 	andeq	r0, r0, r0, ror #5
  c8:	000002e4 	andeq	r0, r0, r4, ror #5
  cc:	00000308 	andeq	r0, r0, r8, lsl #6
	...
  d8:	000002d8 	ldrdeq	r0, [r0], -r8
  dc:	000002dc 	ldrdeq	r0, [r0], -ip
  e0:	000002e4 	andeq	r0, r0, r4, ror #5
  e4:	000002e8 	andeq	r0, r0, r8, ror #5
  e8:	000002ec 	andeq	r0, r0, ip, ror #5
  ec:	000002f4 	strdeq	r0, [r0], -r4
  f0:	000002f8 	strdeq	r0, [r0], -r8
  f4:	000002fc 	strdeq	r0, [r0], -ip
	...
 100:	000002e8 	andeq	r0, r0, r8, ror #5
 104:	000002ec 	andeq	r0, r0, ip, ror #5
 108:	000002f4 	strdeq	r0, [r0], -r4
 10c:	000002f8 	strdeq	r0, [r0], -r8
 110:	000002fc 	strdeq	r0, [r0], -ip
 114:	00000308 	andeq	r0, r0, r8, lsl #6
	...
 120:	00000318 	andeq	r0, r0, r8, lsl r3
 124:	00000320 	andeq	r0, r0, r0, lsr #6
 128:	00000324 	andeq	r0, r0, r4, lsr #6
 12c:	00000348 	andeq	r0, r0, r8, asr #6
	...
 138:	00000318 	andeq	r0, r0, r8, lsl r3
 13c:	0000031c 	andeq	r0, r0, ip, lsl r3
 140:	00000324 	andeq	r0, r0, r4, lsr #6
 144:	00000328 	andeq	r0, r0, r8, lsr #6
 148:	0000032c 	andeq	r0, r0, ip, lsr #6
 14c:	00000334 	andeq	r0, r0, r4, lsr r3
 150:	00000338 	andeq	r0, r0, r8, lsr r3
 154:	0000033c 	andeq	r0, r0, ip, lsr r3
	...
 160:	00000328 	andeq	r0, r0, r8, lsr #6
 164:	0000032c 	andeq	r0, r0, ip, lsr #6
 168:	00000334 	andeq	r0, r0, r4, lsr r3
 16c:	00000338 	andeq	r0, r0, r8, lsr r3
 170:	0000033c 	andeq	r0, r0, ip, lsr r3
 174:	00000348 	andeq	r0, r0, r8, asr #6
	...
 180:	00000358 	andeq	r0, r0, r8, asr r3
 184:	00000360 	andeq	r0, r0, r0, ror #6
 188:	00000364 	andeq	r0, r0, r4, ror #6
 18c:	0000038c 	andeq	r0, r0, ip, lsl #7
	...
 198:	00000358 	andeq	r0, r0, r8, asr r3
 19c:	0000035c 	andeq	r0, r0, ip, asr r3
 1a0:	00000364 	andeq	r0, r0, r4, ror #6
 1a4:	00000368 	andeq	r0, r0, r8, ror #6
 1a8:	0000036c 	andeq	r0, r0, ip, ror #6
 1ac:	00000374 	andeq	r0, r0, r4, ror r3
 1b0:	00000378 	andeq	r0, r0, r8, ror r3
 1b4:	0000037c 	andeq	r0, r0, ip, ror r3
	...
 1c0:	00000368 	andeq	r0, r0, r8, ror #6
 1c4:	0000036c 	andeq	r0, r0, ip, ror #6
 1c8:	00000374 	andeq	r0, r0, r4, ror r3
 1cc:	00000378 	andeq	r0, r0, r8, ror r3
 1d0:	0000037c 	andeq	r0, r0, ip, ror r3
 1d4:	0000038c 	andeq	r0, r0, ip, lsl #7
	...
 1e0:	0000039c 	muleq	r0, ip, r3
 1e4:	000003a4 	andeq	r0, r0, r4, lsr #7
 1e8:	000003a8 	andeq	r0, r0, r8, lsr #7
 1ec:	000003cc 	andeq	r0, r0, ip, asr #7
	...
 1f8:	0000039c 	muleq	r0, ip, r3
 1fc:	000003a0 	andeq	r0, r0, r0, lsr #7
 200:	000003a8 	andeq	r0, r0, r8, lsr #7
 204:	000003ac 	andeq	r0, r0, ip, lsr #7
 208:	000003b0 			; <UNDEFINED> instruction: 0x000003b0
 20c:	000003b8 			; <UNDEFINED> instruction: 0x000003b8
 210:	000003bc 			; <UNDEFINED> instruction: 0x000003bc
 214:	000003c0 	andeq	r0, r0, r0, asr #7
	...
 220:	000003ac 	andeq	r0, r0, ip, lsr #7
 224:	000003b0 			; <UNDEFINED> instruction: 0x000003b0
 228:	000003b8 			; <UNDEFINED> instruction: 0x000003b8
 22c:	000003bc 			; <UNDEFINED> instruction: 0x000003bc
 230:	000003c0 	andeq	r0, r0, r0, asr #7
 234:	000003cc 	andeq	r0, r0, ip, asr #7
	...
 240:	000003dc 	ldrdeq	r0, [r0], -ip
 244:	000003e4 	andeq	r0, r0, r4, ror #7
 248:	000003e8 	andeq	r0, r0, r8, ror #7
 24c:	0000040c 	andeq	r0, r0, ip, lsl #8
	...
 258:	000003dc 	ldrdeq	r0, [r0], -ip
 25c:	000003e0 	andeq	r0, r0, r0, ror #7
 260:	000003e8 	andeq	r0, r0, r8, ror #7
 264:	000003ec 	andeq	r0, r0, ip, ror #7
 268:	000003f0 	strdeq	r0, [r0], -r0	; <UNPREDICTABLE>
 26c:	000003f8 	strdeq	r0, [r0], -r8
 270:	000003fc 	strdeq	r0, [r0], -ip
 274:	00000400 	andeq	r0, r0, r0, lsl #8
	...
 280:	000003ec 	andeq	r0, r0, ip, ror #7
 284:	000003f0 	strdeq	r0, [r0], -r0	; <UNPREDICTABLE>
 288:	000003f8 	strdeq	r0, [r0], -r8
 28c:	000003fc 	strdeq	r0, [r0], -ip
 290:	00000400 	andeq	r0, r0, r0, lsl #8
 294:	0000040c 	andeq	r0, r0, ip, lsl #8
	...
 2a0:	0000041c 	andeq	r0, r0, ip, lsl r4
 2a4:	00000424 	andeq	r0, r0, r4, lsr #8
 2a8:	00000428 	andeq	r0, r0, r8, lsr #8
 2ac:	0000044c 	andeq	r0, r0, ip, asr #8
	...
 2b8:	00000420 	andeq	r0, r0, r0, lsr #8
 2bc:	00000424 	andeq	r0, r0, r4, lsr #8
 2c0:	00000428 	andeq	r0, r0, r8, lsr #8
 2c4:	0000042c 	andeq	r0, r0, ip, lsr #8
 2c8:	00000430 	andeq	r0, r0, r0, lsr r4
 2cc:	00000438 	andeq	r0, r0, r8, lsr r4
 2d0:	0000043c 	andeq	r0, r0, ip, lsr r4
 2d4:	00000440 	andeq	r0, r0, r0, asr #8
	...
 2e0:	0000042c 	andeq	r0, r0, ip, lsr #8
 2e4:	00000430 	andeq	r0, r0, r0, lsr r4
 2e8:	00000438 	andeq	r0, r0, r8, lsr r4
 2ec:	0000043c 	andeq	r0, r0, ip, lsr r4
 2f0:	00000440 	andeq	r0, r0, r0, asr #8
 2f4:	0000044c 	andeq	r0, r0, ip, asr #8
	...
 300:	000004dc 	ldrdeq	r0, [r0], -ip
 304:	000004e0 	andeq	r0, r0, r0, ror #9
 308:	000004e4 	andeq	r0, r0, r4, ror #9
 30c:	000004e8 	andeq	r0, r0, r8, ror #9
 310:	000004ec 	andeq	r0, r0, ip, ror #9
 314:	000004f4 	strdeq	r0, [r0], -r4
	...
 320:	000004e8 	andeq	r0, r0, r8, ror #9
 324:	000004ec 	andeq	r0, r0, ip, ror #9
 328:	000004f8 	strdeq	r0, [r0], -r8
 32c:	00000760 	andeq	r0, r0, r0, ror #14
	...
 338:	000004e8 	andeq	r0, r0, r8, ror #9
 33c:	000004ec 	andeq	r0, r0, ip, ror #9
 340:	00000500 	andeq	r0, r0, r0, lsl #10
 344:	00000730 	andeq	r0, r0, r0, lsr r7
	...
 350:	00000540 	andeq	r0, r0, r0, asr #10
 354:	00000544 	andeq	r0, r0, r4, asr #10
 358:	00000548 	andeq	r0, r0, r8, asr #10
 35c:	00000568 	andeq	r0, r0, r8, ror #10
	...
 368:	00000548 	andeq	r0, r0, r8, asr #10
 36c:	0000054c 	andeq	r0, r0, ip, asr #10
 370:	00000550 	andeq	r0, r0, r0, asr r5
 374:	00000554 	andeq	r0, r0, r4, asr r5
 378:	00000558 	andeq	r0, r0, r8, asr r5
 37c:	0000055c 	andeq	r0, r0, ip, asr r5
	...
 388:	0000054c 	andeq	r0, r0, ip, asr #10
 38c:	00000550 	andeq	r0, r0, r0, asr r5
 390:	00000554 	andeq	r0, r0, r4, asr r5
 394:	00000558 	andeq	r0, r0, r8, asr r5
 398:	0000055c 	andeq	r0, r0, ip, asr r5
 39c:	00000568 	andeq	r0, r0, r8, ror #10
	...
 3a8:	00000578 	andeq	r0, r0, r8, ror r5
 3ac:	0000057c 	andeq	r0, r0, ip, ror r5
 3b0:	00000580 	andeq	r0, r0, r0, lsl #11
 3b4:	000005a0 	andeq	r0, r0, r0, lsr #11
	...
 3c0:	00000580 	andeq	r0, r0, r0, lsl #11
 3c4:	00000584 	andeq	r0, r0, r4, lsl #11
 3c8:	00000588 	andeq	r0, r0, r8, lsl #11
 3cc:	0000058c 	andeq	r0, r0, ip, lsl #11
 3d0:	00000590 	muleq	r0, r0, r5
 3d4:	00000594 	muleq	r0, r4, r5
	...
 3e0:	00000584 	andeq	r0, r0, r4, lsl #11
 3e4:	00000588 	andeq	r0, r0, r8, lsl #11
 3e8:	0000058c 	andeq	r0, r0, ip, lsl #11
 3ec:	00000590 	muleq	r0, r0, r5
 3f0:	00000594 	muleq	r0, r4, r5
 3f4:	000005a0 	andeq	r0, r0, r0, lsr #11
	...
 400:	000005b0 			; <UNDEFINED> instruction: 0x000005b0
 404:	000005b4 			; <UNDEFINED> instruction: 0x000005b4
 408:	000005b8 			; <UNDEFINED> instruction: 0x000005b8
 40c:	000005d8 	ldrdeq	r0, [r0], -r8
	...
 418:	000005b8 			; <UNDEFINED> instruction: 0x000005b8
 41c:	000005bc 			; <UNDEFINED> instruction: 0x000005bc
 420:	000005c0 	andeq	r0, r0, r0, asr #11
 424:	000005c4 	andeq	r0, r0, r4, asr #11
 428:	000005c8 	andeq	r0, r0, r8, asr #11
 42c:	000005cc 	andeq	r0, r0, ip, asr #11
	...
 438:	000005bc 			; <UNDEFINED> instruction: 0x000005bc
 43c:	000005c0 	andeq	r0, r0, r0, asr #11
 440:	000005c4 	andeq	r0, r0, r4, asr #11
 444:	000005c8 	andeq	r0, r0, r8, asr #11
 448:	000005cc 	andeq	r0, r0, ip, asr #11
 44c:	000005d8 	ldrdeq	r0, [r0], -r8
	...
 458:	000005e8 	andeq	r0, r0, r8, ror #11
 45c:	000005ec 	andeq	r0, r0, ip, ror #11
 460:	000005f0 	strdeq	r0, [r0], -r0	; <UNPREDICTABLE>
 464:	00000610 	andeq	r0, r0, r0, lsl r6
	...
 470:	000005f0 	strdeq	r0, [r0], -r0	; <UNPREDICTABLE>
 474:	000005f4 	strdeq	r0, [r0], -r4
 478:	000005f8 	strdeq	r0, [r0], -r8
 47c:	000005fc 	strdeq	r0, [r0], -ip
 480:	00000600 	andeq	r0, r0, r0, lsl #12
 484:	00000604 	andeq	r0, r0, r4, lsl #12
	...
 490:	000005f4 	strdeq	r0, [r0], -r4
 494:	000005f8 	strdeq	r0, [r0], -r8
 498:	000005fc 	strdeq	r0, [r0], -ip
 49c:	00000600 	andeq	r0, r0, r0, lsl #12
 4a0:	00000604 	andeq	r0, r0, r4, lsl #12
 4a4:	00000610 	andeq	r0, r0, r0, lsl r6
	...
 4b0:	00000620 	andeq	r0, r0, r0, lsr #12
 4b4:	00000624 	andeq	r0, r0, r4, lsr #12
 4b8:	00000628 	andeq	r0, r0, r8, lsr #12
 4bc:	0000064c 	andeq	r0, r0, ip, asr #12
	...
 4c8:	00000628 	andeq	r0, r0, r8, lsr #12
 4cc:	0000062c 	andeq	r0, r0, ip, lsr #12
 4d0:	00000630 	andeq	r0, r0, r0, lsr r6
 4d4:	00000634 	andeq	r0, r0, r4, lsr r6
 4d8:	00000638 	andeq	r0, r0, r8, lsr r6
 4dc:	0000063c 	andeq	r0, r0, ip, lsr r6
	...
 4e8:	0000062c 	andeq	r0, r0, ip, lsr #12
 4ec:	00000630 	andeq	r0, r0, r0, lsr r6
 4f0:	00000634 	andeq	r0, r0, r4, lsr r6
 4f4:	00000638 	andeq	r0, r0, r8, lsr r6
 4f8:	0000063c 	andeq	r0, r0, ip, lsr r6
 4fc:	0000064c 	andeq	r0, r0, ip, asr #12
	...
 508:	0000065c 	andeq	r0, r0, ip, asr r6
 50c:	00000660 	andeq	r0, r0, r0, ror #12
 510:	00000664 	andeq	r0, r0, r4, ror #12
 514:	00000684 	andeq	r0, r0, r4, lsl #13
	...
 520:	00000664 	andeq	r0, r0, r4, ror #12
 524:	00000668 	andeq	r0, r0, r8, ror #12
 528:	0000066c 	andeq	r0, r0, ip, ror #12
 52c:	00000670 	andeq	r0, r0, r0, ror r6
 530:	00000674 	andeq	r0, r0, r4, ror r6
 534:	00000678 	andeq	r0, r0, r8, ror r6
	...
 540:	00000668 	andeq	r0, r0, r8, ror #12
 544:	0000066c 	andeq	r0, r0, ip, ror #12
 548:	00000670 	andeq	r0, r0, r0, ror r6
 54c:	00000674 	andeq	r0, r0, r4, ror r6
 550:	00000678 	andeq	r0, r0, r8, ror r6
 554:	00000684 	andeq	r0, r0, r4, lsl #13
	...
 560:	00000694 	muleq	r0, r4, r6
 564:	00000698 	muleq	r0, r8, r6
 568:	0000069c 	muleq	r0, ip, r6
 56c:	000006bc 			; <UNDEFINED> instruction: 0x000006bc
	...
 578:	0000069c 	muleq	r0, ip, r6
 57c:	000006a0 	andeq	r0, r0, r0, lsr #13
 580:	000006a4 	andeq	r0, r0, r4, lsr #13
 584:	000006a8 	andeq	r0, r0, r8, lsr #13
 588:	000006ac 	andeq	r0, r0, ip, lsr #13
 58c:	000006b0 			; <UNDEFINED> instruction: 0x000006b0
	...
 598:	000006a0 	andeq	r0, r0, r0, lsr #13
 59c:	000006a4 	andeq	r0, r0, r4, lsr #13
 5a0:	000006a8 	andeq	r0, r0, r8, lsr #13
 5a4:	000006ac 	andeq	r0, r0, ip, lsr #13
 5a8:	000006b0 			; <UNDEFINED> instruction: 0x000006b0
 5ac:	000006bc 			; <UNDEFINED> instruction: 0x000006bc
	...
 5b8:	000006cc 	andeq	r0, r0, ip, asr #13
 5bc:	000006d0 	ldrdeq	r0, [r0], -r0	; <UNPREDICTABLE>
 5c0:	000006d4 	ldrdeq	r0, [r0], -r4
 5c4:	000006f4 	strdeq	r0, [r0], -r4
	...
 5d0:	000006d4 	ldrdeq	r0, [r0], -r4
 5d4:	000006d8 	ldrdeq	r0, [r0], -r8
 5d8:	000006dc 	ldrdeq	r0, [r0], -ip
 5dc:	000006e0 	andeq	r0, r0, r0, ror #13
 5e0:	000006e4 	andeq	r0, r0, r4, ror #13
 5e4:	000006e8 	andeq	r0, r0, r8, ror #13
	...
 5f0:	000006d8 	ldrdeq	r0, [r0], -r8
 5f4:	000006dc 	ldrdeq	r0, [r0], -ip
 5f8:	000006e0 	andeq	r0, r0, r0, ror #13
 5fc:	000006e4 	andeq	r0, r0, r4, ror #13
 600:	000006e8 	andeq	r0, r0, r8, ror #13
 604:	000006f4 	strdeq	r0, [r0], -r4
	...
 610:	00000294 	muleq	r0, r4, r2
 614:	00000298 	muleq	r0, r8, r2
 618:	000002c8 	andeq	r0, r0, r8, asr #5
 61c:	000004b8 			; <UNDEFINED> instruction: 0x000004b8
	...
 628:	00008dac 	andeq	r8, r0, ip, lsr #27
 62c:	00008e20 	andeq	r8, r0, r0, lsr #28
	...

Disassembly of section .debug_line:

00000000 <.debug_line>:
   0:	00000396 	muleq	r0, r6, r3
   4:	01280002 	teqeq	r8, r2
   8:	01020000 	mrseq	r0, (UNDEF: 2)
   c:	000d0efb 	strdeq	r0, [sp], -fp
  10:	01010101 	tsteq	r1, r1, lsl #2
  14:	01000000 	mrseq	r0, (UNDEF: 0)
  18:	2f010000 	svccs	0x00010000
  1c:	2f727375 	svccs	0x00727375
  20:	61636f6c 	cmnvs	r3, ip, ror #30
  24:	65432f6c 	strbvs	r2, [r3, #-3948]	; 0xf6c
  28:	72616c6c 	rsbvc	r6, r1, #108, 24	; 0x6c00
  2c:	6d72612f 	ldfvse	f6, [r2, #-188]!	; 0xffffff44
  30:	6e6f6e2d 	cdpvs	14, 6, cr6, cr15, cr13, {1}
  34:	61652d65 	cmnvs	r5, r5, ror #26
  38:	342f6962 	strtcc	r6, [pc], #-2402	; 40 <_start-0x7fc0>
  3c:	332e382e 	teqcc	lr, #3014656	; 0x2e0000
  40:	3173632d 	cmncc	r3, sp, lsr #6
  44:	2f653037 	svccs	0x00653037
  48:	2f62696c 	svccs	0x0062696c
  4c:	2f636367 	svccs	0x00636367
  50:	2d6d7261 	sfmcs	f7, 2, [sp, #-388]!	; 0xfffffe7c
  54:	656e6f6e 	strbvs	r6, [lr, #-3950]!	; 0xf6e
  58:	6261652d 	rsbvs	r6, r1, #188743680	; 0xb400000
  5c:	2e342f69 	cdpcs	15, 3, cr2, cr4, cr9, {3}
  60:	2f332e38 	svccs	0x00332e38
  64:	6c636e69 	stclvs	14, cr6, [r3], #-420	; 0xfffffe5c
  68:	00656475 	rsbeq	r6, r5, r5, ror r4
  6c:	6573552f 	ldrbvs	r5, [r3, #-1327]!	; 0x52f
  70:	622f7372 	eorvs	r7, pc, #-939524095	; 0xc8000001
  74:	6e616972 	mcrvs	9, 3, r6, cr1, cr2, {3}
  78:	2f6e756a 	svccs	0x006e756a
  7c:	6b736544 	blvs	1cd9594 <__bss_end__+0x1ccf97c>
  80:	2f706f74 	svccs	0x00706f74
  84:	6f686373 	svcvs	0x00686373
  88:	572f6c6f 	strpl	r6, [pc, -pc, ror #24]!
  8c:	65746e69 	ldrbvs	r6, [r4, #-3689]!	; 0xe69
  90:	32393172 	eorscc	r3, r9, #-2147483620	; 0x8000001c
  94:	53432f30 	movtpl	r2, #16176	; 0x3f30
  98:	45303431 	ldrmi	r3, [r0, #-1073]!	; 0x431
  9c:	3173632f 	cmncc	r3, pc, lsr #6
  a0:	2d653034 	stclcs	0, cr3, [r5, #-208]!	; 0xffffff30
  a4:	69773032 	ldmdbvs	r7!, {r1, r4, r5, ip, sp}^
  a8:	696c2f6e 	stmdbvs	ip!, {r1, r2, r3, r5, r6, r8, r9, sl, fp, sp}^
  ac:	00697062 	rsbeq	r7, r9, r2, rrx
  b0:	6573552f 	ldrbvs	r5, [r3, #-1327]!	; 0x52f
  b4:	622f7372 	eorvs	r7, pc, #-939524095	; 0xc8000001
  b8:	6e616972 	mcrvs	9, 3, r6, cr1, cr2, {3}
  bc:	2f6e756a 	svccs	0x006e756a
  c0:	6b736544 	blvs	1cd95d8 <__bss_end__+0x1ccf9c0>
  c4:	2f706f74 	svccs	0x00706f74
  c8:	6f686373 	svcvs	0x00686373
  cc:	572f6c6f 	strpl	r6, [pc, -pc, ror #24]!
  d0:	65746e69 	ldrbvs	r6, [r4, #-3689]!	; 0xe69
  d4:	32393172 	eorscc	r3, r9, #-2147483620	; 0x8000001c
  d8:	53432f30 	movtpl	r2, #16176	; 0x3f30
  dc:	45303431 	ldrmi	r3, [r0, #-1073]!	; 0x431
  e0:	3173632f 	cmncc	r3, pc, lsr #6
  e4:	2d653034 	stclcs	0, cr3, [r5, #-208]!	; 0xffffff30
  e8:	69773032 	ldmdbvs	r7!, {r1, r4, r5, ip, sp}^
  ec:	696c2f6e 	stmdbvs	ip!, {r1, r2, r3, r5, r6, r8, r9, sl, fp, sp}^
  f0:	2f697062 	svccs	0x00697062
  f4:	34317363 	ldrtcc	r7, [r1], #-867	; 0x363
  f8:	732d6530 	teqvc	sp, #48, 10	; 0xc000000
  fc:	00006372 	andeq	r6, r0, r2, ror r3
 100:	74736574 	ldrbtvc	r6, [r3], #-1396	; 0x574
 104:	6e65672d 	cdpvs	7, 6, cr6, cr5, cr13, {1}
 108:	0000632e 	andeq	r6, r0, lr, lsr #6
 10c:	74730000 	ldrbtvc	r0, [r3], #-0
 110:	746e6964 	strbtvc	r6, [lr], #-2404	; 0x964
 114:	6363672d 	cmnvs	r3, #11796480	; 0xb40000
 118:	0100682e 	tsteq	r0, lr, lsr #16
 11c:	70720000 	rsbsvc	r0, r2, r0
 120:	00682e69 	rsbeq	r2, r8, r9, ror #28
 124:	67000002 	strvs	r0, [r0, -r2]
 128:	2e6f6970 	mcrcs	9, 3, r6, cr15, cr0, {3}
 12c:	00030068 	andeq	r0, r3, r8, rrx
 130:	05000000 	streq	r0, [r0, #-0]
 134:	00801002 	addeq	r1, r0, r2
 138:	00c00300 	sbceq	r0, r0, r0, lsl #6
 13c:	2f2d1301 	svccs	0x002d1301
 140:	30672f2f 	rsbcc	r2, r7, pc, lsr #30
 144:	01040200 	mrseq	r0, R12_usr
 148:	6a440845 	bvs	1102264 <__bss_end__+0x10f864c>
 14c:	0032292f 	eorseq	r2, r2, pc, lsr #18
 150:	2f010402 	svccs	0x00010402
 154:	04020085 	streq	r0, [r2], #-133	; 0x85
 158:	02002f01 	andeq	r2, r0, #1, 30
 15c:	83a00104 	movhi	r0, #4, 2
 160:	01040200 	mrseq	r0, R12_usr
 164:	020083d7 	andeq	r8, r0, #1543503875	; 0x5c000003
 168:	83bb0104 			; <UNDEFINED> instruction: 0x83bb0104
 16c:	01040200 	mrseq	r0, R12_usr
 170:	020083bb 	andeq	r8, r0, #-335544318	; 0xec000002
 174:	83bb0104 			; <UNDEFINED> instruction: 0x83bb0104
 178:	01040200 	mrseq	r0, R12_usr
 17c:	020083bb 	andeq	r8, r0, #-335544318	; 0xec000002
 180:	83bb0104 			; <UNDEFINED> instruction: 0x83bb0104
 184:	01040200 	mrseq	r0, R12_usr
 188:	740383bb 	strvc	r8, [r3], #-955	; 0x3bb
 18c:	2e0c032e 	cdpcs	3, 0, cr0, cr12, cr14, {1}
 190:	30827603 	addcc	r7, r2, r3, lsl #12
 194:	30303030 	eorscc	r3, r0, r0, lsr r0
 198:	01040200 	mrseq	r0, R12_usr
 19c:	820c032f 	andhi	r0, ip, #-1140850688	; 0xbc000000
 1a0:	00843069 	addeq	r3, r4, r9, rrx
 1a4:	06010402 	streq	r0, [r1], -r2, lsl #8
 1a8:	b703062e 	strlt	r0, [r3, -lr, lsr #12]
 1ac:	02009e7f 	andeq	r9, r0, #2032	; 0x7f0
 1b0:	ce030104 	adfgts	f0, f3, f4
 1b4:	ad038200 	sfmge	f0, 1, [r3, #-0]
 1b8:	0b03827f 	bleq	e0bbc <__bss_end__+0xd6fa4>
 1bc:	00c9032e 	sbceq	r0, r9, lr, lsr #6
 1c0:	7fac032e 	svcvc	0x00ac032e
 1c4:	4f29332e 	svcmi	0x0029332e
 1c8:	02003329 	andeq	r3, r0, #-1543503872	; 0xa4000000
 1cc:	d0030104 	andle	r0, r3, r4, lsl #2
 1d0:	ab036600 	blge	d99d8 <__bss_end__+0xcfdc0>
 1d4:	0b03827f 	bleq	e0bd8 <__bss_end__+0xd6fc0>
 1d8:	00cb032e 	sbceq	r0, fp, lr, lsr #6
 1dc:	7faa032e 	svcvc	0x00aa032e
 1e0:	4f29332e 	svcmi	0x0029332e
 1e4:	02003329 	andeq	r3, r0, #-1543503872	; 0xa4000000
 1e8:	d2030104 	andle	r0, r3, #4, 2
 1ec:	a9036600 	stmdbge	r3, {r9, sl, sp, lr}
 1f0:	0b03827f 	bleq	e0bf4 <__bss_end__+0xd6fdc>
 1f4:	00cd032e 	sbceq	r0, sp, lr, lsr #6
 1f8:	7fa8032e 	svcvc	0x00a8032e
 1fc:	4f29332e 	svcmi	0x0029332e
 200:	02003329 	andeq	r3, r0, #-1543503872	; 0xa4000000
 204:	d4030104 	strle	r0, [r3], #-260	; 0x104
 208:	a7036600 	strge	r6, [r3, -r0, lsl #12]
 20c:	0b03827f 	bleq	e0c10 <__bss_end__+0xd6ff8>
 210:	00cf032e 	sbceq	r0, pc, lr, lsr #6
 214:	7fa6032e 	svcvc	0x00a6032e
 218:	4f29332e 	svcmi	0x0029332e
 21c:	02003329 	andeq	r3, r0, #-1543503872	; 0xa4000000
 220:	d6030104 	strle	r0, [r3], -r4, lsl #2
 224:	a5036600 	strge	r6, [r3, #-1536]	; 0x600
 228:	0b03827f 	bleq	e0c2c <__bss_end__+0xd7014>
 22c:	00d1032e 	sbcseq	r0, r1, lr, lsr #6
 230:	7fa4032e 	svcvc	0x00a4032e
 234:	4f29332e 	svcmi	0x0029332e
 238:	02003329 	andeq	r3, r0, #-1543503872	; 0xa4000000
 23c:	d8030104 	stmdale	r3, {r2, r8}
 240:	a3038200 	movwge	r8, #12800	; 0x3200
 244:	0b03827f 	bleq	e0c48 <__bss_end__+0xd7030>
 248:	00d3032e 	sbcseq	r0, r3, lr, lsr #6
 24c:	7fa2032e 	svcvc	0x00a2032e
 250:	4f29332e 	svcmi	0x0029332e
 254:	02003329 	andeq	r3, r0, #-1543503872	; 0xa4000000
 258:	da030104 	ble	c0670 <__bss_end__+0xb6a58>
 25c:	a1036600 	tstge	r3, r0, lsl #12
 260:	0b03827f 	bleq	e0c64 <__bss_end__+0xd704c>
 264:	00d5032e 	sbcseq	r0, r5, lr, lsr #6
 268:	7fa0032e 	svcvc	0x00a0032e
 26c:	4f29332e 	svcmi	0x0029332e
 270:	02003329 	andeq	r3, r0, #-1543503872	; 0xa4000000
 274:	dc030104 	stfles	f0, [r3], {4}
 278:	aa036600 	bge	d9a80 <__bss_end__+0xcfe68>
 27c:	7503827f 	strvc	r8, [r3, #-639]	; 0x27f
 280:	00e2032e 	rsceq	r0, r2, lr, lsr #6
 284:	7f9e032e 	svcvc	0x009e032e
 288:	4f29332e 	svcmi	0x0029332e
 28c:	02003329 	andeq	r3, r0, #-1543503872	; 0xa4000000
 290:	de030104 	adfles	f0, f3, f4
 294:	9d036600 	stcls	6, cr6, [r3, #-0]
 298:	0200827f 	andeq	r8, r0, #-268435449	; 0xf0000007
 29c:	e5030104 	str	r0, [r3, #-260]	; 0x104
 2a0:	83200800 	teqhi	r0, #0, 16
 2a4:	31662103 	cmncc	r6, r3, lsl #2
 2a8:	2f832d83 	svccs	0x00832d83
 2ac:	f2032f4b 	vmax.f32	q1, <illegal reg q1.5>, <illegal reg q5.5>
 2b0:	91034a7e 	tstls	r3, lr, ror sl
 2b4:	ef032e01 	svc	0x00032e01
 2b8:	ce032e7e 	mcrgt	14, 0, r2, cr3, cr14, {3}
 2bc:	b2032e00 	andlt	r2, r3, #0, 28
 2c0:	91032e7f 	tstls	r3, pc, ror lr
 2c4:	03304a01 	teqeq	r0, #4096	; 0x1000
 2c8:	684a7fb9 	stmdavs	sl, {r0, r3, r4, r5, r7, r8, r9, sl, fp, ip, sp, lr}^
 2cc:	9e7fb703 	cdpls	7, 7, cr11, cr15, cr3, {0}
 2d0:	8200ce03 	andhi	ip, r0, #3, 28	; 0x30
 2d4:	827fb803 	rsbshi	fp, pc, #196608	; 0x30000
 2d8:	2e00c903 	cdpcs	9, 0, cr12, cr0, cr3, {0}
 2dc:	2e7fac03 	cdpcs	12, 7, cr10, cr15, cr3, {0}
 2e0:	29332933 	ldmdbcs	r3!, {r0, r1, r4, r5, r8, fp, sp}
 2e4:	00d00333 	sbcseq	r0, r0, r3, lsr r3
 2e8:	7fb60366 	svcvc	0x00b60366
 2ec:	00cb0382 	sbceq	r0, fp, r2, lsl #7
 2f0:	7faa032e 	svcvc	0x00aa032e
 2f4:	3329332e 	teqcc	r9, #-1207959552	; 0xb8000000
 2f8:	d2033329 	andle	r3, r3, #-1543503872	; 0xa4000000
 2fc:	b4036600 	strlt	r6, [r3], #-1536	; 0x600
 300:	cd03827f 	sfmgt	f0, 1, [r3, #-508]	; 0xfffffe04
 304:	a8032e00 	stmdage	r3, {r9, sl, fp, sp}
 308:	29332e7f 	ldmdbcs	r3!, {r0, r1, r2, r3, r4, r5, r6, r9, sl, fp, sp}
 30c:	03332933 	teqeq	r3, #835584	; 0xcc000
 310:	036600d4 	cmneq	r6, #212	; 0xd4
 314:	03827fb2 	orreq	r7, r2, #712	; 0x2c8
 318:	032e00cf 	teqeq	lr, #207	; 0xcf
 31c:	332e7fa6 	teqcc	lr, #664	; 0x298
 320:	33293329 	teqcc	r9, #-1543503872	; 0xa4000000
 324:	6600d603 	strvs	sp, [r0], -r3, lsl #12
 328:	827fb003 	rsbshi	fp, pc, #3
 32c:	2e00d103 	mvfcss	f5, f3
 330:	2e7fa403 	cdpcs	4, 7, cr10, cr15, cr3, {0}
 334:	29332933 	ldmdbcs	r3!, {r0, r1, r4, r5, r8, fp, sp}
 338:	00d80333 	sbcseq	r0, r8, r3, lsr r3
 33c:	7fae0382 	svcvc	0x00ae0382
 340:	00d30382 	sbcseq	r0, r3, r2, lsl #7
 344:	7fa2032e 	svcvc	0x00a2032e
 348:	3329332e 	teqcc	r9, #-1207959552	; 0xb8000000
 34c:	da033329 	ble	ccff8 <__bss_end__+0xc33e0>
 350:	ac036600 	stcge	6, cr6, [r3], {-0}
 354:	d503827f 	strle	r8, [r3, #-639]	; 0x27f
 358:	a0032e00 	andge	r2, r3, r0, lsl #28
 35c:	29332e7f 	ldmdbcs	r3!, {r0, r1, r2, r3, r4, r5, r6, r9, sl, fp, sp}
 360:	03332933 	teqeq	r3, #835584	; 0xcc000
 364:	036600dc 	cmneq	r6, #220	; 0xdc
 368:	03827faa 	orreq	r7, r2, #680	; 0x2a8
 36c:	032e00d7 	teqeq	lr, #215	; 0xd7
 370:	332e7f9e 	teqcc	lr, #632	; 0x278
 374:	33293329 	teqcc	r9, #-1543503872	; 0xa4000000
 378:	6600de03 	strvs	sp, [r0], -r3, lsl #28
 37c:	827f9d03 	rsbshi	r9, pc, #3, 26	; 0xc0
 380:	d600e503 	strle	lr, [r0], -r3, lsl #10
 384:	02040200 	andeq	r0, r4, #0, 4
 388:	00822e03 	addeq	r2, r2, r3, lsl #28
 38c:	4c020402 	cfstrsmi	mvf0, [r2], {2}
 390:	02040200 	andeq	r0, r4, #0, 4
 394:	00100248 	andseq	r0, r0, r8, asr #4
 398:	01020101 	tsteq	r2, r1, lsl #2
 39c:	00020000 	andeq	r0, r2, r0
 3a0:	000000eb 	andeq	r0, r0, fp, ror #1
 3a4:	0efb0102 	cdpeq	1, 15, cr0, cr11, cr2, {0}
 3a8:	0101000d 	tsteq	r1, sp
 3ac:	00000101 	andeq	r0, r0, r1, lsl #2
 3b0:	00000100 	andeq	r0, r0, r0, lsl #2
 3b4:	62696c01 	rsbvs	r6, r9, #256	; 0x100
 3b8:	752f0063 	strvc	r0, [pc, #-99]!	; 35d <_start-0x7ca3>
 3bc:	6c2f7273 	sfmvs	f7, 4, [pc], #-460	; 1f8 <_start-0x7e08>
 3c0:	6c61636f 	stclvs	3, cr6, [r1], #-444	; 0xfffffe44
 3c4:	6c65432f 	stclvs	3, cr4, [r5], #-188	; 0xffffff44
 3c8:	2f72616c 	svccs	0x0072616c
 3cc:	2d6d7261 	sfmcs	f7, 2, [sp, #-388]!	; 0xfffffe7c
 3d0:	656e6f6e 	strbvs	r6, [lr, #-3950]!	; 0xf6e
 3d4:	6261652d 	rsbvs	r6, r1, #188743680	; 0xb400000
 3d8:	2e342f69 	cdpcs	15, 3, cr2, cr4, cr9, {3}
 3dc:	2d332e38 	ldccs	14, cr2, [r3, #-224]!	; 0xffffff20
 3e0:	37317363 	ldrcc	r7, [r1, -r3, ror #6]!
 3e4:	6c2f6530 	cfstr32vs	mvfx6, [pc], #-192	; 32c <_start-0x7cd4>
 3e8:	672f6269 	strvs	r6, [pc, -r9, ror #4]!
 3ec:	612f6363 	teqvs	pc, r3, ror #6
 3f0:	6e2d6d72 	mcrvs	13, 1, r6, cr13, cr2, {3}
 3f4:	2d656e6f 	stclcs	14, cr6, [r5, #-444]!	; 0xfffffe44
 3f8:	69626165 	stmdbvs	r2!, {r0, r2, r5, r6, r8, sp, lr}^
 3fc:	382e342f 	stmdacc	lr!, {r0, r1, r2, r3, r5, sl, ip, sp}
 400:	692f332e 	stmdbvs	pc!, {r1, r2, r3, r5, r8, r9, ip, sp}	; <UNPREDICTABLE>
 404:	756c636e 	strbvc	r6, [ip, #-878]!	; 0x36e
 408:	2f006564 	svccs	0x00006564
 40c:	72657355 	rsbvc	r7, r5, #1409286145	; 0x54000001
 410:	72622f73 	rsbvc	r2, r2, #460	; 0x1cc
 414:	6a6e6169 	bvs	1b989c0 <__bss_end__+0x1b8eda8>
 418:	442f6e75 	strtmi	r6, [pc], #-3701	; 420 <_start-0x7be0>
 41c:	746b7365 	strbtvc	r7, [fp], #-869	; 0x365
 420:	732f706f 	teqvc	pc, #111	; 0x6f
 424:	6f6f6863 	svcvs	0x006f6863
 428:	69572f6c 	ldmdbvs	r7, {r2, r3, r5, r6, r8, r9, sl, fp, sp}^
 42c:	7265746e 	rsbvc	r7, r5, #1845493760	; 0x6e000000
 430:	30323931 	eorscc	r3, r2, r1, lsr r9
 434:	3153432f 	cmpcc	r3, pc, lsr #6
 438:	2f453034 	svccs	0x00453034
 43c:	34317363 	ldrtcc	r7, [r1], #-867	; 0x363
 440:	322d6530 	eorcc	r6, sp, #48, 10	; 0xc000000
 444:	6e697730 	mcrvs	7, 3, r7, cr9, cr0, {1}
 448:	62696c2f 	rsbvs	r6, r9, #12032	; 0x2f00
 44c:	00006970 	andeq	r6, r0, r0, ror r9
 450:	6e697270 	mcrvs	2, 3, r7, cr9, cr0, {3}
 454:	632e6b74 	teqvs	lr, #116, 22	; 0x1d000
 458:	00000100 	andeq	r0, r0, r0, lsl #2
 45c:	61647473 	smcvs	18243	; 0x4743
 460:	682e6772 	stmdavs	lr!, {r1, r4, r5, r6, r8, r9, sl, sp, lr}
 464:	00000200 	andeq	r0, r0, r0, lsl #4
 468:	6975623c 	ldmdbvs	r5!, {r2, r3, r4, r5, r9, sp, lr}^
 46c:	692d746c 	pushvs	{r2, r3, r5, r6, sl, ip, sp, lr}
 470:	00003e6e 	andeq	r3, r0, lr, ror #28
 474:	70720000 	rsbsvc	r0, r2, r0
 478:	00682e69 	rsbeq	r2, r8, r9, ror #28
 47c:	76000003 	strvc	r0, [r0], -r3
 480:	72702d61 	rsbsvc	r2, r0, #6208	; 0x1840
 484:	6b746e69 	blvs	1d1be30 <__bss_end__+0x1d12218>
 488:	0100682e 	tsteq	r0, lr, lsr #16
 48c:	00000000 	andeq	r0, r0, r0
 490:	87700205 	ldrbhi	r0, [r0, -r5, lsl #4]!
 494:	6b170000 	blvs	5c049c <__bss_end__+0x5b6884>
 498:	0289bf4b 	addeq	fp, r9, #300	; 0x12c
 49c:	0101000e 	tsteq	r1, lr
 4a0:	0000008a 	andeq	r0, r0, sl, lsl #1
 4a4:	00720002 	rsbseq	r0, r2, r2
 4a8:	01020000 	mrseq	r0, (UNDEF: 2)
 4ac:	000d0efb 	strdeq	r0, [sp], -fp
 4b0:	01010101 	tsteq	r1, r1, lsl #2
 4b4:	01000000 	mrseq	r0, (UNDEF: 0)
 4b8:	6c010000 	stcvs	0, cr0, [r1], {-0}
 4bc:	00636269 	rsbeq	r6, r3, r9, ror #4
 4c0:	6573552f 	ldrbvs	r5, [r3, #-1327]!	; 0x52f
 4c4:	622f7372 	eorvs	r7, pc, #-939524095	; 0xc8000001
 4c8:	6e616972 	mcrvs	9, 3, r6, cr1, cr2, {3}
 4cc:	2f6e756a 	svccs	0x006e756a
 4d0:	6b736544 	blvs	1cd99e8 <__bss_end__+0x1ccfdd0>
 4d4:	2f706f74 	svccs	0x00706f74
 4d8:	6f686373 	svcvs	0x00686373
 4dc:	572f6c6f 	strpl	r6, [pc, -pc, ror #24]!
 4e0:	65746e69 	ldrbvs	r6, [r4, #-3689]!	; 0xe69
 4e4:	32393172 	eorscc	r3, r9, #-2147483620	; 0x8000001c
 4e8:	53432f30 	movtpl	r2, #16176	; 0x3f30
 4ec:	45303431 	ldrmi	r3, [r0, #-1073]!	; 0x431
 4f0:	3173632f 	cmncc	r3, pc, lsr #6
 4f4:	2d653034 	stclcs	0, cr3, [r5, #-208]!	; 0xffffff30
 4f8:	69773032 	ldmdbvs	r7!, {r1, r4, r5, ip, sp}^
 4fc:	696c2f6e 	stmdbvs	ip!, {r1, r2, r3, r5, r6, r8, r9, sl, fp, sp}^
 500:	00697062 	rsbeq	r7, r9, r2, rrx
 504:	74757000 	ldrbtvc	r7, [r5], #-0
 508:	72616863 	rsbvc	r6, r1, #6488064	; 0x630000
 50c:	0100632e 	tsteq	r0, lr, lsr #6
 510:	70720000 	rsbsvc	r0, r2, r0
 514:	00682e69 	rsbeq	r2, r8, r9, ror #28
 518:	00000002 	andeq	r0, r0, r2
 51c:	c8020500 	stmdagt	r2, {r8, sl}
 520:	14000087 	strne	r0, [r0], #-135	; 0x87
 524:	bc136b4a 	ldclt	11, cr6, [r3], {74}	; 0x4a
 528:	00080213 	andeq	r0, r8, r3, lsl r2
 52c:	00960101 	addseq	r0, r6, r1, lsl #2
 530:	00020000 	andeq	r0, r2, r0
 534:	0000006f 	andeq	r0, r0, pc, rrx
 538:	0efb0102 	cdpeq	1, 15, cr0, cr11, cr2, {0}
 53c:	0101000d 	tsteq	r1, sp
 540:	00000101 	andeq	r0, r0, r1, lsl #2
 544:	00000100 	andeq	r0, r0, r0, lsl #2
 548:	62696c01 	rsbvs	r6, r9, #256	; 0x100
 54c:	552f0063 	strpl	r0, [pc, #-99]!	; 4f1 <_start-0x7b0f>
 550:	73726573 	cmnvc	r2, #482344960	; 0x1cc00000
 554:	6972622f 	ldmdbvs	r2!, {r0, r1, r2, r3, r5, r9, sp, lr}^
 558:	756a6e61 	strbvc	r6, [sl, #-3681]!	; 0xe61
 55c:	65442f6e 	strbvs	r2, [r4, #-3950]	; 0xf6e
 560:	6f746b73 	svcvs	0x00746b73
 564:	63732f70 	cmnvs	r3, #112, 30	; 0x1c0
 568:	6c6f6f68 	stclvs	15, cr6, [pc], #-416	; 3d0 <_start-0x7c30>
 56c:	6e69572f 	cdpvs	7, 6, cr5, cr9, cr15, {1}
 570:	31726574 	cmncc	r2, r4, ror r5
 574:	2f303239 	svccs	0x00303239
 578:	34315343 	ldrtcc	r5, [r1], #-835	; 0x343
 57c:	632f4530 	teqvs	pc, #48, 10	; 0xc000000
 580:	30343173 	eorscc	r3, r4, r3, ror r1
 584:	30322d65 	eorscc	r2, r2, r5, ror #26
 588:	2f6e6977 	svccs	0x006e6977
 58c:	7062696c 	rsbvc	r6, r2, ip, ror #18
 590:	70000069 	andvc	r0, r0, r9, rrx
 594:	2e6b7475 	mcrcs	4, 3, r7, cr11, cr5, {3}
 598:	00010063 	andeq	r0, r1, r3, rrx
 59c:	69707200 	ldmdbvs	r0!, {r9, ip, sp, lr}^
 5a0:	0200682e 	andeq	r6, r0, #3014656	; 0x2e0000
 5a4:	00000000 	andeq	r0, r0, r0
 5a8:	88040205 	stmdahi	r4, {r0, r2, r9}
 5ac:	4c150000 	ldcmi	0, cr0, [r5], {-0}
 5b0:	0402002d 	streq	r0, [r2], #-45	; 0x2d
 5b4:	02002f02 	andeq	r2, r0, #2, 30
 5b8:	00490204 	subeq	r0, r9, r4, lsl #4
 5bc:	06010402 	streq	r0, [r1], -r2, lsl #8
 5c0:	026b062e 	rsbeq	r0, fp, #48234496	; 0x2e00000
 5c4:	01010006 	tsteq	r1, r6
 5c8:	000001de 	ldrdeq	r0, [r0], -lr
 5cc:	00df0002 	sbcseq	r0, pc, r2
 5d0:	01020000 	mrseq	r0, (UNDEF: 2)
 5d4:	000d0efb 	strdeq	r0, [sp], -fp
 5d8:	01010101 	tsteq	r1, r1, lsl #2
 5dc:	01000000 	mrseq	r0, (UNDEF: 0)
 5e0:	6c010000 	stcvs	0, cr0, [r1], {-0}
 5e4:	00636269 	rsbeq	r6, r3, r9, ror #4
 5e8:	7273752f 	rsbsvc	r7, r3, #197132288	; 0xbc00000
 5ec:	636f6c2f 	cmnvs	pc, #12032	; 0x2f00
 5f0:	432f6c61 	teqmi	pc, #24832	; 0x6100
 5f4:	616c6c65 	cmnvs	ip, r5, ror #24
 5f8:	72612f72 	rsbvc	r2, r1, #456	; 0x1c8
 5fc:	6f6e2d6d 	svcvs	0x006e2d6d
 600:	652d656e 	strvs	r6, [sp, #-1390]!	; 0x56e
 604:	2f696261 	svccs	0x00696261
 608:	2e382e34 	mrccs	14, 1, r2, cr8, cr4, {1}
 60c:	73632d33 	cmnvc	r3, #3264	; 0xcc0
 610:	65303731 	ldrvs	r3, [r0, #-1841]!	; 0x731
 614:	62696c2f 	rsbvs	r6, r9, #12032	; 0x2f00
 618:	6363672f 	cmnvs	r3, #12320768	; 0xbc0000
 61c:	6d72612f 	ldfvse	f6, [r2, #-188]!	; 0xffffff44
 620:	6e6f6e2d 	cdpvs	14, 6, cr6, cr15, cr13, {1}
 624:	61652d65 	cmnvs	r5, r5, ror #26
 628:	342f6962 	strtcc	r6, [pc], #-2402	; 630 <_start-0x79d0>
 62c:	332e382e 	teqcc	lr, #3014656	; 0x2e0000
 630:	636e692f 	cmnvs	lr, #770048	; 0xbc000
 634:	6564756c 	strbvs	r7, [r4, #-1388]!	; 0x56c
 638:	73552f00 	cmpvc	r5, #0, 30
 63c:	2f737265 	svccs	0x00737265
 640:	61697262 	cmnvs	r9, r2, ror #4
 644:	6e756a6e 	vsubvs.f32	s13, s10, s29
 648:	7365442f 	cmnvc	r5, #788529152	; 0x2f000000
 64c:	706f746b 	rsbvc	r7, pc, fp, ror #8
 650:	6863732f 	stmdavs	r3!, {r0, r1, r2, r3, r5, r8, r9, ip, sp, lr}^
 654:	2f6c6f6f 	svccs	0x006c6f6f
 658:	746e6957 	strbtvc	r6, [lr], #-2391	; 0x957
 65c:	39317265 	ldmdbcc	r1!, {r0, r2, r5, r6, r9, ip, sp, lr}
 660:	432f3032 	teqmi	pc, #50	; 0x32
 664:	30343153 	eorscc	r3, r4, r3, asr r1
 668:	73632f45 	cmnvc	r3, #276	; 0x114
 66c:	65303431 	ldrvs	r3, [r0, #-1073]!	; 0x431
 670:	7730322d 	ldrvc	r3, [r0, -sp, lsr #4]!
 674:	6c2f6e69 	stcvs	14, cr6, [pc], #-420	; 4d8 <_start-0x7b28>
 678:	69706269 	ldmdbvs	r0!, {r0, r3, r5, r6, r9, sp, lr}^
 67c:	61760000 	cmnvs	r6, r0
 680:	6972702d 	ldmdbvs	r2!, {r0, r2, r3, r5, ip, sp, lr}^
 684:	2e6b746e 	cdpcs	4, 6, cr7, cr11, cr14, {3}
 688:	00010063 	andeq	r0, r1, r3, rrx
 68c:	64747300 	ldrbtvs	r7, [r4], #-768	; 0x300
 690:	2e677261 	cdpcs	2, 6, cr7, cr7, cr1, {3}
 694:	00020068 	andeq	r0, r2, r8, rrx
 698:	69707200 	ldmdbvs	r0!, {r9, ip, sp, lr}^
 69c:	0300682e 	movweq	r6, #2094	; 0x82e
 6a0:	623c0000 	eorsvs	r0, ip, #0
 6a4:	746c6975 	strbtvc	r6, [ip], #-2421	; 0x975
 6a8:	3e6e692d 	cdpcc	9, 6, cr6, cr14, cr13, {1}
 6ac:	00000000 	andeq	r0, r0, r0
 6b0:	02050000 	andeq	r0, r5, #0
 6b4:	00008838 	andeq	r8, r0, r8, lsr r8
 6b8:	01012603 	tsteq	r1, r3, lsl #12
 6bc:	2d3113a5 	ldccs	3, cr1, [r1, #-660]!	; 0xfffffd6c
 6c0:	02040200 	andeq	r0, r4, #0, 4
 6c4:	0402002f 	streq	r0, [r2], #-47	; 0x2f
 6c8:	02002d02 	andeq	r2, r0, #2, 26	; 0x80
 6cc:	002f0204 	eoreq	r0, pc, r4, lsl #4
 6d0:	2d010402 	cfstrscs	mvf0, [r1, #-8]
 6d4:	14304c4c 	ldrtne	r4, [r0], #-3148	; 0xc4c
 6d8:	004f2f4b 	subeq	r2, pc, fp, asr #30
 6dc:	67020402 	strvs	r0, [r2, -r2, lsl #8]
 6e0:	01040200 	mrseq	r0, R12_usr
 6e4:	304d4c65 	subcc	r4, sp, r5, ror #24
 6e8:	30312fa0 	eorscc	r2, r1, r0, lsr #31
 6ec:	84162602 	ldrhi	r2, [r6], #-1538	; 0x602
 6f0:	02002c2d 	andeq	r2, r0, #11520	; 0x2d00
 6f4:	00300104 	eorseq	r0, r0, r4, lsl #2
 6f8:	33010402 	movwcc	r0, #5122	; 0x1402
 6fc:	02006606 	andeq	r6, r0, #6291456	; 0x600000
 700:	002e0104 	eoreq	r0, lr, r4, lsl #2
 704:	06010402 	streq	r0, [r1], -r2, lsl #8
 708:	2f672108 	svccs	0x00672108
 70c:	03827303 	orreq	r7, r2, #201326592	; 0xc000000
 710:	02002e13 	andeq	r2, r0, #304	; 0x130
 714:	2e060104 	adfcss	f0, f6, f4
 718:	01040200 	mrseq	r0, R12_usr
 71c:	4b6a9f06 	blmi	1aa833c <__bss_end__+0x1a9e724>
 720:	032e6703 	teqeq	lr, #786432	; 0xc0000
 724:	02002e21 	andeq	r2, r0, #528	; 0x210
 728:	2e060104 	adfcss	f0, f6, f4
 72c:	01040200 	mrseq	r0, R12_usr
 730:	02009f06 	andeq	r9, r0, #6, 30
 734:	d96a0104 	stmdble	sl!, {r2, r8}^
 738:	7fa603f3 	svcvc	0x00a603f3
 73c:	002f2008 	eoreq	r2, pc, r8
 740:	06010402 	streq	r0, [r1], -r2, lsl #8
 744:	4bd7064a 	blmi	ff5c2074 <__bss_end__+0xff5b845c>
 748:	00da032f 	sbcseq	r0, sl, pc, lsr #6
 74c:	484c83f2 	stmdami	ip, {r1, r4, r5, r6, r7, r8, r9, pc}^
 750:	032e0e03 	teqeq	lr, #3, 28	; 0x30
 754:	2f2f2e75 	svccs	0x002f2e75
 758:	2d2f4b84 	vstmdbcs	pc!, {d4-d5}
 75c:	2f30314d 	svccs	0x0030314d
 760:	04020083 	streq	r0, [r2], #-131	; 0x83
 764:	00a22c01 	adceq	r2, r2, r1, lsl #24
 768:	06010402 	streq	r0, [r1], -r2, lsl #8
 76c:	02d8064a 	sbcseq	r0, r8, #77594624	; 0x4a00000
 770:	0e031636 	mcreq	6, 0, r1, cr3, cr6, {1}
 774:	302108d6 	ldrdcc	r0, [r1], -r6	; <UNPREDICTABLE>
 778:	30f331f3 	ldrshtcc	r3, [r3], #19
 77c:	304b30f3 	strdcc	r3, [fp], #-3
 780:	230830f3 	movwcs	r3, #33011	; 0x80f3
 784:	02002f31 	andeq	r2, r0, #49, 30	; 0xc4
 788:	00650104 	rsbeq	r0, r5, r4, lsl #2
 78c:	06020402 	streq	r0, [r2], -r2, lsl #8
 790:	0402004a 	streq	r0, [r2], #-74	; 0x4a
 794:	42030601 	andmi	r0, r3, #1048576	; 0x100000
 798:	04020066 	streq	r0, [r2], #-102	; 0x66
 79c:	06660602 	strbteq	r0, [r6], -r2, lsl #12
 7a0:	4a00c203 	bmi	30fb4 <__bss_end__+0x2739c>
 7a4:	00100268 	andseq	r0, r0, r8, ror #4
 7a8:	00430101 	subeq	r0, r3, r1, lsl #2
 7ac:	00020000 	andeq	r0, r2, r0
 7b0:	00000029 	andeq	r0, r0, r9, lsr #32
 7b4:	0efb0102 	cdpeq	1, 15, cr0, cr11, cr2, {0}
 7b8:	0101000d 	tsteq	r1, sp
 7bc:	00000101 	andeq	r0, r0, r1, lsl #2
 7c0:	00000100 	andeq	r0, r0, r0, lsl #2
 7c4:	31736301 	cmncc	r3, r1, lsl #6
 7c8:	2d653034 	stclcs	0, cr3, [r5, #-208]!	; 0xffffff30
 7cc:	00637273 	rsbeq	r7, r3, r3, ror r2
 7d0:	63616300 	cmnvs	r1, #0, 6
 7d4:	632e6568 	teqvs	lr, #104, 10	; 0x1a000000
 7d8:	00000100 	andeq	r0, r0, r0, lsl #2
 7dc:	02050000 	andeq	r0, r5, #0
 7e0:	00008d30 	andeq	r8, r0, r0, lsr sp
 7e4:	2f301414 	svccs	0x00301414
 7e8:	2f31144e 	svccs	0x0031144e
 7ec:	01000402 	tsteq	r0, r2, lsl #8
 7f0:	00009301 	andeq	r9, r0, r1, lsl #6
 7f4:	7d000200 	sfmvc	f0, 4, [r0, #-0]
 7f8:	02000000 	andeq	r0, r0, #0
 7fc:	0d0efb01 	vstreq	d15, [lr, #-4]
 800:	01010100 	mrseq	r0, (UNDEF: 17)
 804:	00000001 	andeq	r0, r0, r1
 808:	01000001 	tsteq	r0, r1
 80c:	34317363 	ldrtcc	r7, [r1], #-867	; 0x363
 810:	732d6530 	teqvc	sp, #48, 10	; 0xc000000
 814:	2f006372 	svccs	0x00006372
 818:	72657355 	rsbvc	r7, r5, #1409286145	; 0x54000001
 81c:	72622f73 	rsbvc	r2, r2, #460	; 0x1cc
 820:	6a6e6169 	bvs	1b98dcc <__bss_end__+0x1b8f1b4>
 824:	442f6e75 	strtmi	r6, [pc], #-3701	; 82c <_start-0x77d4>
 828:	746b7365 	strbtvc	r7, [fp], #-869	; 0x365
 82c:	732f706f 	teqvc	pc, #111	; 0x6f
 830:	6f6f6863 	svcvs	0x006f6863
 834:	69572f6c 	ldmdbvs	r7, {r2, r3, r5, r6, r8, r9, sl, fp, sp}^
 838:	7265746e 	rsbvc	r7, r5, #1845493760	; 0x6e000000
 83c:	30323931 	eorscc	r3, r2, r1, lsr r9
 840:	3153432f 	cmpcc	r3, pc, lsr #6
 844:	2f453034 	svccs	0x00453034
 848:	34317363 	ldrtcc	r7, [r1], #-867	; 0x363
 84c:	322d6530 	eorcc	r6, sp, #48, 10	; 0xc000000
 850:	6e697730 	mcrvs	7, 3, r7, cr9, cr0, {1}
 854:	62696c2f 	rsbvs	r6, r9, #12032	; 0x2f00
 858:	00006970 	andeq	r6, r0, r0, ror r9
 85c:	61656c63 	cmnvs	r5, r3, ror #24
 860:	65722d6e 	ldrbvs	r2, [r2, #-3438]!	; 0xd6e
 864:	746f6f62 	strbtvc	r6, [pc], #-3938	; 86c <_start-0x7794>
 868:	0100632e 	tsteq	r0, lr, lsr #6
 86c:	70720000 	rsbsvc	r0, r2, r0
 870:	00682e69 	rsbeq	r2, r8, r9, ror #28
 874:	00000002 	andeq	r0, r0, r2
 878:	50020500 	andpl	r0, r2, r0, lsl #10
 87c:	1500008d 	strne	r0, [r0, #-141]	; 0x8d
 880:	024b832f 	subeq	r8, fp, #-1140850688	; 0xbc000000
 884:	01010006 	tsteq	r1, r6
 888:	0000009a 	muleq	r0, sl, r0
 88c:	00770002 	rsbseq	r0, r7, r2
 890:	01020000 	mrseq	r0, (UNDEF: 2)
 894:	000d0efb 	strdeq	r0, [sp], -fp
 898:	01010101 	tsteq	r1, r1, lsl #2
 89c:	01000000 	mrseq	r0, (UNDEF: 0)
 8a0:	63010000 	movwvs	r0, #4096	; 0x1000
 8a4:	30343173 	eorscc	r3, r4, r3, ror r1
 8a8:	72732d65 	rsbsvc	r2, r3, #6464	; 0x1940
 8ac:	552f0063 	strpl	r0, [pc, #-99]!	; 851 <_start-0x77af>
 8b0:	73726573 	cmnvc	r2, #482344960	; 0x1cc00000
 8b4:	6972622f 	ldmdbvs	r2!, {r0, r1, r2, r3, r5, r9, sp, lr}^
 8b8:	756a6e61 	strbvc	r6, [sl, #-3681]!	; 0xe61
 8bc:	65442f6e 	strbvs	r2, [r4, #-3950]	; 0xf6e
 8c0:	6f746b73 	svcvs	0x00746b73
 8c4:	63732f70 	cmnvs	r3, #112, 30	; 0x1c0
 8c8:	6c6f6f68 	stclvs	15, cr6, [pc], #-416	; 730 <_start-0x78d0>
 8cc:	6e69572f 	cdpvs	7, 6, cr5, cr9, cr15, {1}
 8d0:	31726574 	cmncc	r2, r4, ror r5
 8d4:	2f303239 	svccs	0x00303239
 8d8:	34315343 	ldrtcc	r5, [r1], #-835	; 0x343
 8dc:	632f4530 	teqvs	pc, #48, 10	; 0xc000000
 8e0:	30343173 	eorscc	r3, r4, r3, ror r1
 8e4:	30322d65 	eorscc	r2, r2, r5, ror #26
 8e8:	2f6e6977 	svccs	0x006e6977
 8ec:	7062696c 	rsbvc	r6, r2, ip, ror #18
 8f0:	63000069 	movwvs	r0, #105	; 0x69
 8f4:	72617473 	rsbvc	r7, r1, #1929379840	; 0x73000000
 8f8:	00632e74 	rsbeq	r2, r3, r4, ror lr
 8fc:	72000001 	andvc	r0, r0, #1
 900:	682e6970 	stmdavs	lr!, {r4, r5, r6, r8, fp, sp, lr}
 904:	00000200 	andeq	r0, r0, r0, lsl #4
 908:	02050000 	andeq	r0, r5, #0
 90c:	00008d78 	andeq	r8, r0, r8, ror sp
 910:	32010c03 	andcc	r0, r1, #768	; 0x300
 914:	2f2d2f31 	svccs	0x002d2f31
 918:	01040200 	mrseq	r0, R12_usr
 91c:	4a0f0349 	bmi	3c1648 <__bss_end__+0x3b7a30>
 920:	0006022f 	andeq	r0, r6, pc, lsr #4
 924:	00990101 	addseq	r0, r9, r1, lsl #2
 928:	00020000 	andeq	r0, r2, r0
 92c:	00000077 	andeq	r0, r0, r7, ror r0
 930:	0efb0102 	cdpeq	1, 15, cr0, cr11, cr2, {0}
 934:	0101000d 	tsteq	r1, sp
 938:	00000101 	andeq	r0, r0, r1, lsl #2
 93c:	00000100 	andeq	r0, r0, r0, lsl #2
 940:	31736301 	cmncc	r3, r1, lsl #6
 944:	2d653034 	stclcs	0, cr3, [r5, #-208]!	; 0xffffff30
 948:	00637273 	rsbeq	r7, r3, r3, ror r2
 94c:	6573552f 	ldrbvs	r5, [r3, #-1327]!	; 0x52f
 950:	622f7372 	eorvs	r7, pc, #-939524095	; 0xc8000001
 954:	6e616972 	mcrvs	9, 3, r6, cr1, cr2, {3}
 958:	2f6e756a 	svccs	0x006e756a
 95c:	6b736544 	blvs	1cd9e74 <__bss_end__+0x1cd025c>
 960:	2f706f74 	svccs	0x00706f74
 964:	6f686373 	svcvs	0x00686373
 968:	572f6c6f 	strpl	r6, [pc, -pc, ror #24]!
 96c:	65746e69 	ldrbvs	r6, [r4, #-3689]!	; 0xe69
 970:	32393172 	eorscc	r3, r9, #-2147483620	; 0x8000001c
 974:	53432f30 	movtpl	r2, #16176	; 0x3f30
 978:	45303431 	ldrmi	r3, [r0, #-1073]!	; 0x431
 97c:	3173632f 	cmncc	r3, pc, lsr #6
 980:	2d653034 	stclcs	0, cr3, [r5, #-208]!	; 0xffffff30
 984:	69773032 	ldmdbvs	r7!, {r1, r4, r5, ip, sp}^
 988:	696c2f6e 	stmdbvs	ip!, {r1, r2, r3, r5, r6, r8, r9, sl, fp, sp}^
 98c:	00697062 	rsbeq	r7, r9, r2, rrx
 990:	62657200 	rsbvs	r7, r5, #0, 4
 994:	2e746f6f 	cdpcs	15, 7, cr6, cr4, cr15, {3}
 998:	00010063 	andeq	r0, r1, r3, rrx
 99c:	69707200 	ldmdbvs	r0!, {r9, ip, sp, lr}^
 9a0:	0200682e 	andeq	r6, r0, #3014656	; 0x2e0000
 9a4:	00000000 	andeq	r0, r0, r0
 9a8:	8dac0205 	sfmhi	f0, 4, [ip, #20]!
 9ac:	0d030000 	stceq	0, cr0, [r3, #-0]
 9b0:	2f311401 	svccs	0x00311401
 9b4:	4b2f1585 	blmi	bc5fd0 <__bss_end__+0xbbc3b8>
 9b8:	35672f4d 	strbcc	r2, [r7, #-3917]!	; 0xf4d
 9bc:	10026752 	andne	r6, r2, r2, asr r7
 9c0:	a3010100 	movwge	r0, #4352	; 0x1100
 9c4:	02000000 	andeq	r0, r0, #0
 9c8:	00007600 	andeq	r7, r0, r0, lsl #12
 9cc:	fb010200 	blx	411d6 <__bss_end__+0x375be>
 9d0:	01000d0e 	tsteq	r0, lr, lsl #26
 9d4:	00010101 	andeq	r0, r1, r1, lsl #2
 9d8:	00010000 	andeq	r0, r1, r0
 9dc:	73630100 	cmnvc	r3, #0, 2
 9e0:	65303431 	ldrvs	r3, [r0, #-1073]!	; 0x431
 9e4:	6372732d 	cmnvs	r2, #-1275068416	; 0xb4000000
 9e8:	73552f00 	cmpvc	r5, #0, 30
 9ec:	2f737265 	svccs	0x00737265
 9f0:	61697262 	cmnvs	r9, r2, ror #4
 9f4:	6e756a6e 	vsubvs.f32	s13, s10, s29
 9f8:	7365442f 	cmnvc	r5, #788529152	; 0x2f000000
 9fc:	706f746b 	rsbvc	r7, pc, fp, ror #8
 a00:	6863732f 	stmdavs	r3!, {r0, r1, r2, r3, r5, r8, r9, ip, sp, lr}^
 a04:	2f6c6f6f 	svccs	0x006c6f6f
 a08:	746e6957 	strbtvc	r6, [lr], #-2391	; 0x957
 a0c:	39317265 	ldmdbcc	r1!, {r0, r2, r5, r6, r9, ip, sp, lr}
 a10:	432f3032 	teqmi	pc, #50	; 0x32
 a14:	30343153 	eorscc	r3, r4, r3, asr r1
 a18:	73632f45 	cmnvc	r3, #276	; 0x114
 a1c:	65303431 	ldrvs	r3, [r0, #-1073]!	; 0x431
 a20:	7730322d 	ldrvc	r3, [r0, -sp, lsr #4]!
 a24:	6c2f6e69 	stcvs	14, cr6, [pc], #-420	; 888 <_start-0x7778>
 a28:	69706269 	ldmdbvs	r0!, {r0, r3, r5, r6, r9, sp, lr}^
 a2c:	69740000 	ldmdbvs	r4!, {}^	; <UNPREDICTABLE>
 a30:	2e72656d 	cdpcs	5, 7, cr6, cr2, cr13, {3}
 a34:	00010063 	andeq	r0, r1, r3, rrx
 a38:	69707200 	ldmdbvs	r0!, {r9, ip, sp, lr}^
 a3c:	0200682e 	andeq	r6, r0, #3014656	; 0x2e0000
 a40:	00000000 	andeq	r0, r0, r0
 a44:	8e200205 	cdphi	2, 2, cr0, cr0, cr5, {0}
 a48:	14160000 	ldrne	r0, [r6], #-0
 a4c:	02002d2f 	andeq	r2, r0, #3008	; 0xbc0
 a50:	2e060104 	adfcss	f0, f6, f4
 a54:	2f316d06 	svccs	0x00316d06
 a58:	31324d4b 	teqcc	r2, fp, asr #26
 a5c:	2f4c4b30 	svccs	0x004c4b30
 a60:	842f2f6a 	strthi	r2, [pc], #-3946	; a68 <_start-0x7598>
 a64:	0008022f 	andeq	r0, r8, pc, lsr #4
 a68:	01830101 	orreq	r0, r3, r1, lsl #2
 a6c:	00020000 	andeq	r0, r2, r0
 a70:	000000ce 	andeq	r0, r0, lr, asr #1
 a74:	0efb0102 	cdpeq	1, 15, cr0, cr11, cr2, {0}
 a78:	0101000d 	tsteq	r1, sp
 a7c:	00000101 	andeq	r0, r0, r1, lsl #2
 a80:	00000100 	andeq	r0, r0, r0, lsl #2
 a84:	31736301 	cmncc	r3, r1, lsl #6
 a88:	2d653034 	stclcs	0, cr3, [r5, #-208]!	; 0xffffff30
 a8c:	00637273 	rsbeq	r7, r3, r3, ror r2
 a90:	6573552f 	ldrbvs	r5, [r3, #-1327]!	; 0x52f
 a94:	622f7372 	eorvs	r7, pc, #-939524095	; 0xc8000001
 a98:	6e616972 	mcrvs	9, 3, r6, cr1, cr2, {3}
 a9c:	2f6e756a 	svccs	0x006e756a
 aa0:	6b736544 	blvs	1cd9fb8 <__bss_end__+0x1cd03a0>
 aa4:	2f706f74 	svccs	0x00706f74
 aa8:	6f686373 	svcvs	0x00686373
 aac:	572f6c6f 	strpl	r6, [pc, -pc, ror #24]!
 ab0:	65746e69 	ldrbvs	r6, [r4, #-3689]!	; 0xe69
 ab4:	32393172 	eorscc	r3, r9, #-2147483620	; 0x8000001c
 ab8:	53432f30 	movtpl	r2, #16176	; 0x3f30
 abc:	45303431 	ldrmi	r3, [r0, #-1073]!	; 0x431
 ac0:	3173632f 	cmncc	r3, pc, lsr #6
 ac4:	2d653034 	stclcs	0, cr3, [r5, #-208]!	; 0xffffff30
 ac8:	69773032 	ldmdbvs	r7!, {r1, r4, r5, ip, sp}^
 acc:	696c2f6e 	stmdbvs	ip!, {r1, r2, r3, r5, r6, r8, r9, sl, fp, sp}^
 ad0:	2f697062 	svccs	0x00697062
 ad4:	34317363 	ldrtcc	r7, [r1], #-867	; 0x363
 ad8:	732d6530 	teqvc	sp, #48, 10	; 0xc000000
 adc:	2f006372 	svccs	0x00006372
 ae0:	72657355 	rsbvc	r7, r5, #1409286145	; 0x54000001
 ae4:	72622f73 	rsbvc	r2, r2, #460	; 0x1cc
 ae8:	6a6e6169 	bvs	1b99094 <__bss_end__+0x1b8f47c>
 aec:	442f6e75 	strtmi	r6, [pc], #-3701	; af4 <_start-0x750c>
 af0:	746b7365 	strbtvc	r7, [fp], #-869	; 0x365
 af4:	732f706f 	teqvc	pc, #111	; 0x6f
 af8:	6f6f6863 	svcvs	0x006f6863
 afc:	69572f6c 	ldmdbvs	r7, {r2, r3, r5, r6, r8, r9, sl, fp, sp}^
 b00:	7265746e 	rsbvc	r7, r5, #1845493760	; 0x6e000000
 b04:	30323931 	eorscc	r3, r2, r1, lsr r9
 b08:	3153432f 	cmpcc	r3, pc, lsr #6
 b0c:	2f453034 	svccs	0x00453034
 b10:	34317363 	ldrtcc	r7, [r1], #-867	; 0x363
 b14:	322d6530 	eorcc	r6, sp, #48, 10	; 0xc000000
 b18:	6e697730 	mcrvs	7, 3, r7, cr9, cr0, {1}
 b1c:	62696c2f 	rsbvs	r6, r9, #12032	; 0x2f00
 b20:	00006970 	andeq	r6, r0, r0, ror r9
 b24:	6f697067 	svcvs	0x00697067
 b28:	0100632e 	tsteq	r0, lr, lsr #6
 b2c:	70670000 	rsbvc	r0, r7, r0
 b30:	682e6f69 	stmdavs	lr!, {r0, r3, r5, r6, r8, r9, sl, fp, sp, lr}
 b34:	00000200 	andeq	r0, r0, r0, lsl #4
 b38:	2e697072 	mcrcs	0, 3, r7, cr9, cr2, {3}
 b3c:	00030068 	andeq	r0, r3, r8, rrx
 b40:	05000000 	streq	r0, [r0, #-0]
 b44:	008ea802 	addeq	sl, lr, r2, lsl #16
 b48:	013e0300 	teqeq	lr, r0, lsl #6
 b4c:	0869504e 	stmdaeq	r9!, {r1, r2, r3, r6, ip, lr}^
 b50:	67676721 	strbvs	r6, [r7, -r1, lsr #14]!
 b54:	32676767 	rsbcc	r6, r7, #27000832	; 0x19c0000
 b58:	dc22084b 	stcle	8, cr0, [r2], #-300	; 0xfffffed4
 b5c:	4e135131 	mrcmi	1, 0, r5, cr3, cr1, {1}
 b60:	31be3050 			; <UNDEFINED> instruction: 0x31be3050
 b64:	4f4d1350 	svcmi	0x004d1350
 b68:	504cc030 	subpl	ip, ip, r0, lsr r0
 b6c:	67210869 	strvs	r0, [r1, -r9, ror #16]!
 b70:	67676767 	strbvs	r6, [r7, -r7, ror #14]!
 b74:	084b3267 	stmdaeq	fp, {r0, r1, r2, r5, r6, r9, ip, sp}^
 b78:	504ca321 	subpl	sl, ip, r1, lsr #6
 b7c:	0369842f 	cmneq	r9, #788529152	; 0x2f000000
 b80:	0c038275 	sfmeq	f0, 1, [r3], {117}	; 0x75
 b84:	4e304d2e 	cdpmi	13, 3, cr4, cr0, cr14, {1}
 b88:	6a4d4c4b 	bvs	1353cbc <__bss_end__+0x134a0a4>
 b8c:	2108696b 	tstcs	r8, fp, ror #18
 b90:	67676767 	strbvs	r6, [r7, -r7, ror #14]!
 b94:	4b326767 	blmi	c9a938 <__bss_end__+0xc90d20>
 b98:	30c02208 	sbccc	r2, r0, r8, lsl #4
 b9c:	504e1351 	subpl	r1, lr, r1, asr r3
 ba0:	ba180330 	blt	601868 <__bss_end__+0x5f7c50>
 ba4:	2f4c9f31 	svccs	0x004c9f31
 ba8:	2f4e4d52 	svccs	0x004e4d52
 bac:	684b674b 	stmdavs	fp, {r0, r1, r3, r6, r8, r9, sl, sp, lr}^
 bb0:	2f4c6767 	svccs	0x004c6767
 bb4:	6e4b2f67 	cdpvs	15, 4, cr2, cr11, cr7, {3}
 bb8:	4b2f4e4c 	blmi	bd44f0 <__bss_end__+0xbca8d8>
 bbc:	67684b67 	strbvs	r4, [r8, -r7, ror #22]!
 bc0:	672f4c67 	strvs	r4, [pc, -r7, ror #24]!
 bc4:	4b6d4b2f 	blmi	1b53888 <__bss_end__+0x1b49c70>
 bc8:	674b2f4e 	strbvs	r2, [fp, -lr, asr #30]
 bcc:	01040200 	mrseq	r0, R12_usr
 bd0:	68066606 	stmdavs	r6, {r1, r2, r9, sl, sp, lr}
 bd4:	02002f9f 	andeq	r2, r0, #636	; 0x27c
 bd8:	4a060104 	bmi	180ff0 <__bss_end__+0x1773d8>
 bdc:	032f6806 	teqeq	pc, #393216	; 0x60000
 be0:	0e034a73 	mcreq	10, 0, r4, cr3, cr3, {3}
 be4:	4e4c4d2e 	cdpmi	13, 4, cr4, cr12, cr14, {1}
 be8:	bcbc4b2f 	fldmiaxlt	ip!, {d4-d26}	;@ Deprecated
 bec:	01000602 	tsteq	r0, r2, lsl #12
 bf0:	00010101 	andeq	r0, r1, r1, lsl #2
 bf4:	ca000200 	bgt	13fc <_start-0x6c04>
 bf8:	02000000 	andeq	r0, r0, #0
 bfc:	0d0efb01 	vstreq	d15, [lr, #-4]
 c00:	01010100 	mrseq	r0, (UNDEF: 17)
 c04:	00000001 	andeq	r0, r0, r1
 c08:	01000001 	tsteq	r0, r1
 c0c:	732d796d 	teqvc	sp, #1785856	; 0x1b4000
 c10:	2f006372 	svccs	0x00006372
 c14:	72657355 	rsbvc	r7, r5, #1409286145	; 0x54000001
 c18:	72622f73 	rsbvc	r2, r2, #460	; 0x1cc
 c1c:	6a6e6169 	bvs	1b991c8 <__bss_end__+0x1b8f5b0>
 c20:	442f6e75 	strtmi	r6, [pc], #-3701	; c28 <_start-0x73d8>
 c24:	746b7365 	strbtvc	r7, [fp], #-869	; 0x365
 c28:	732f706f 	teqvc	pc, #111	; 0x6f
 c2c:	6f6f6863 	svcvs	0x006f6863
 c30:	69572f6c 	ldmdbvs	r7, {r2, r3, r5, r6, r8, r9, sl, fp, sp}^
 c34:	7265746e 	rsbvc	r7, r5, #1845493760	; 0x6e000000
 c38:	30323931 	eorscc	r3, r2, r1, lsr r9
 c3c:	3153432f 	cmpcc	r3, pc, lsr #6
 c40:	2f453034 	svccs	0x00453034
 c44:	34317363 	ldrtcc	r7, [r1], #-867	; 0x363
 c48:	322d6530 	eorcc	r6, sp, #48, 10	; 0xc000000
 c4c:	6e697730 	mcrvs	7, 3, r7, cr9, cr0, {1}
 c50:	62696c2f 	rsbvs	r6, r9, #12032	; 0x2f00
 c54:	632f6970 	teqvs	pc, #112, 18	; 0x1c0000
 c58:	30343173 	eorscc	r3, r4, r3, ror r1
 c5c:	72732d65 	rsbsvc	r2, r3, #6464	; 0x1940
 c60:	552f0063 	strpl	r0, [pc, #-99]!	; c05 <_start-0x73fb>
 c64:	73726573 	cmnvc	r2, #482344960	; 0x1cc00000
 c68:	6972622f 	ldmdbvs	r2!, {r0, r1, r2, r3, r5, r9, sp, lr}^
 c6c:	756a6e61 	strbvc	r6, [sl, #-3681]!	; 0xe61
 c70:	65442f6e 	strbvs	r2, [r4, #-3950]	; 0xf6e
 c74:	6f746b73 	svcvs	0x00746b73
 c78:	63732f70 	cmnvs	r3, #112, 30	; 0x1c0
 c7c:	6c6f6f68 	stclvs	15, cr6, [pc], #-416	; ae4 <_start-0x751c>
 c80:	6e69572f 	cdpvs	7, 6, cr5, cr9, cr15, {1}
 c84:	31726574 	cmncc	r2, r4, ror r5
 c88:	2f303239 	svccs	0x00303239
 c8c:	34315343 	ldrtcc	r5, [r1], #-835	; 0x343
 c90:	632f4530 	teqvs	pc, #48, 10	; 0xc000000
 c94:	30343173 	eorscc	r3, r4, r3, ror r1
 c98:	30322d65 	eorscc	r2, r2, r5, ror #26
 c9c:	2f6e6977 	svccs	0x006e6977
 ca0:	7062696c 	rsbvc	r6, r2, ip, ror #18
 ca4:	75000069 	strvc	r0, [r0, #-105]	; 0x69
 ca8:	2e747261 	cdpcs	2, 7, cr7, cr4, cr1, {3}
 cac:	00010063 	andeq	r0, r1, r3, rrx
 cb0:	69706700 	ldmdbvs	r0!, {r8, r9, sl, sp, lr}^
 cb4:	00682e6f 	rsbeq	r2, r8, pc, ror #28
 cb8:	72000002 	andvc	r0, r0, #2
 cbc:	682e6970 	stmdavs	lr!, {r4, r5, r6, r8, fp, sp, lr}
 cc0:	00000300 	andeq	r0, r0, r0, lsl #6
 cc4:	02050000 	andeq	r0, r5, #0
 cc8:	00009448 	andeq	r9, r0, r8, asr #8
 ccc:	30013603 	andcc	r3, r1, r3, lsl #12
 cd0:	306d6733 	rsbcc	r6, sp, r3, lsr r7
 cd4:	676730d8 			; <UNDEFINED> instruction: 0x676730d8
 cd8:	68676767 	stmdavs	r7!, {r0, r1, r2, r5, r6, r8, r9, sl, sp, lr}^
 cdc:	6a672f86 	bvs	19ccafc <__bss_end__+0x19c2ee4>
 ce0:	69676730 	stmdbvs	r7!, {r4, r5, r8, r9, sl, sp, lr}^
 ce4:	4c6a672f 	stclmi	7, cr6, [sl], #-188	; 0xffffff44
 ce8:	2f2fc167 	svccs	0x002fc167
 cec:	49682f30 	stmdbmi	r8!, {r4, r5, r8, r9, sl, fp, sp}^
 cf0:	00020230 	andeq	r0, r2, r0, lsr r2
 cf4:	Address 0x0000000000000cf4 is out of bounds.


Disassembly of section .debug_str:

00000000 <.debug_str>:
   0:	53465047 	movtpl	r5, #24647	; 0x6047
   4:	00324c45 	eorseq	r4, r2, r5, asr #24
   8:	6f697067 	svcvs	0x00697067
   c:	726c635f 	rsbvc	r6, ip, #2080374785	; 0x7c000001
  10:	50470030 	subpl	r0, r7, r0, lsr r0
  14:	30524c43 	subscc	r4, r2, r3, asr #24
  18:	73616600 	cmnvc	r1, #0, 12
  1c:	70675f74 	rsbvc	r5, r7, r4, ror pc
  20:	775f6f69 	ldrbvc	r6, [pc, -r9, ror #30]
  24:	65746972 	ldrbvs	r6, [r4, #-2418]!	; 0x972
  28:	6c616800 	stclvs	8, cr6, [r1], #-0
  2c:	65645f66 	strbvs	r5, [r4, #-3942]!	; 0xf66
  30:	0079616c 	rsbseq	r6, r9, ip, ror #2
  34:	676e6f6c 	strbvs	r6, [lr, -ip, ror #30]!
  38:	6e6f6c20 	cdpvs	12, 6, cr6, cr15, cr0, {1}
  3c:	6e752067 	cdpvs	0, 7, cr2, cr5, cr7, {3}
  40:	6e676973 	mcrvs	9, 3, r6, cr7, cr3, {3}
  44:	69206465 	stmdbvs	r0!, {r0, r2, r5, r6, sl, sp, lr}
  48:	6600746e 	strvs	r7, [r0], -lr, ror #8
  4c:	5f747361 	svcpl	0x00747361
  50:	6f697067 	svcvs	0x00697067
  54:	7465735f 	strbtvc	r7, [r5], #-863	; 0x35f
  58:	006e6f5f 	rsbeq	r6, lr, pc, asr pc
  5c:	676e6f6c 	strbvs	r6, [lr, -ip, ror #30]!
  60:	6e6f6c20 	cdpvs	12, 6, cr6, cr15, cr0, {1}
  64:	6e692067 	cdpvs	0, 6, cr2, cr9, cr7, {3}
  68:	77730074 			; <UNDEFINED> instruction: 0x77730074
  6c:	7261755f 	rsbvc	r7, r1, #398458880	; 0x17c00000
  70:	65675f74 	strbvs	r5, [r7, #-3956]!	; 0xf74
  74:	47003874 	smlsdxmi	r0, r4, r8, r3
  78:	54455350 	strbpl	r5, [r5], #-848	; 0x350
  7c:	50470030 	subpl	r0, r7, r0, lsr r0
  80:	31544553 	cmpcc	r4, r3, asr r5
  84:	4c504700 	mrrcmi	7, 0, r4, r0, cr0
  88:	00305645 	eorseq	r5, r0, r5, asr #12
  8c:	454c5047 	strbmi	r5, [ip, #-71]	; 0x47
  90:	6e003156 	mcrvs	1, 0, r3, cr0, cr6, {2}
  94:	616d746f 	cmnvs	sp, pc, ror #8
  98:	66006e69 	strvs	r6, [r0], -r9, ror #28
  9c:	5f747361 	svcpl	0x00747361
  a0:	6f697067 	svcvs	0x00697067
  a4:	7465735f 	strbtvc	r7, [r5], #-863	; 0x35f
  a8:	66666f5f 	uqsaxvs	r6, r6, pc	; <UNPREDICTABLE>
  ac:	554e4700 	strbpl	r4, [lr, #-1792]	; 0x700
  b0:	34204320 	strtcc	r4, [r0], #-800	; 0x320
  b4:	332e382e 	teqcc	lr, #3014656	; 0x2e0000
  b8:	636d2d20 	cmnvs	sp, #32, 26	; 0x800
  bc:	613d7570 	teqvs	sp, r0, ror r5
  c0:	31316d72 	teqcc	r1, r2, ror sp
  c4:	7a6a3637 	bvc	1a8d9a8 <__bss_end__+0x1a83d90>
  c8:	20732d66 	rsbscs	r2, r3, r6, ror #26
  cc:	75746d2d 	ldrbvc	r6, [r4, #-3373]!	; 0xd2d
  d0:	613d656e 	teqvs	sp, lr, ror #10
  d4:	31316d72 	teqcc	r1, r2, ror sp
  d8:	7a6a3637 	bvc	1a8d9bc <__bss_end__+0x1a83da4>
  dc:	20732d66 	rsbscs	r2, r3, r6, ror #26
  e0:	6467672d 	strbtvs	r6, [r7], #-1837	; 0x72d
  e4:	4f2d2062 	svcmi	0x002d2062
  e8:	732d2033 	teqvc	sp, #51	; 0x33
  ec:	673d6474 			; <UNDEFINED> instruction: 0x673d6474
  f0:	3939756e 	ldmdbcc	r9!, {r1, r2, r3, r5, r6, r8, sl, ip, sp, lr}
  f4:	66662d20 	strbtvs	r2, [r6], -r0, lsr #26
  f8:	73656572 	cmnvc	r5, #478150656	; 0x1c800000
  fc:	646e6174 	strbtvs	r6, [lr], #-372	; 0x174
 100:	00676e69 	rsbeq	r6, r7, r9, ror #28
 104:	755f7773 	ldrbvc	r7, [pc, #-1907]	; fffff999 <__bss_end__+0xffff5d81>
 108:	5f747261 	svcpl	0x00747261
 10c:	38747570 	ldmdacc	r4!, {r4, r5, r6, r8, sl, ip, sp, lr}^
 110:	69707200 	ldmdbvs	r0!, {r9, ip, sp, lr}^
 114:	7365725f 	cmnvc	r5, #-268435451	; 0xf0000005
 118:	705f7465 	subsvc	r7, pc, r5, ror #8
 11c:	00637475 	rsbeq	r7, r3, r5, ror r4
 120:	53465047 	movtpl	r5, #24647	; 0x6047
 124:	00304c45 	eorseq	r4, r0, r5, asr #24
 128:	53465047 	movtpl	r5, #24647	; 0x6047
 12c:	00314c45 	eorseq	r4, r1, r5, asr #24
 130:	53465047 	movtpl	r5, #24647	; 0x6047
 134:	00334c45 	eorseq	r4, r3, r5, asr #24
 138:	53465047 	movtpl	r5, #24647	; 0x6047
 13c:	00344c45 	eorseq	r4, r4, r5, asr #24
 140:	53465047 	movtpl	r5, #24647	; 0x6047
 144:	00354c45 	eorseq	r4, r5, r5, asr #24
 148:	55465f5f 	strbpl	r5, [r6, #-3935]	; 0xf5f
 14c:	4954434e 	ldmdbmi	r4, {r1, r2, r3, r6, r8, r9, lr}^
 150:	5f5f4e4f 	svcpl	0x005f4e4f
 154:	6f687300 	svcvs	0x00687300
 158:	75207472 	strvc	r7, [r0, #-1138]!	; 0x472
 15c:	6769736e 	strbvs	r7, [r9, -lr, ror #6]!
 160:	2064656e 	rsbcs	r6, r4, lr, ror #10
 164:	00746e69 	rsbseq	r6, r4, r9, ror #28
 168:	6f697067 	svcvs	0x00697067
 16c:	6573665f 	ldrbvs	r6, [r3, #-1631]!	; 0x65f
 170:	4700306c 	strmi	r3, [r0, -ip, rrx]
 174:	524c4350 	subpl	r4, ip, #80, 6	; 0x40000001
 178:	6c630031 	stclvs	0, cr0, [r3], #-196	; 0xffffff3c
 17c:	5f6e6165 	svcpl	0x006e6165
 180:	6f626572 	svcvs	0x00626572
 184:	7300746f 	movwvc	r7, #1135	; 0x46f
 188:	74657a69 	strbtvc	r7, [r5], #-2665	; 0xa69
 18c:	00657079 	rsbeq	r7, r5, r9, ror r0
 190:	6573552f 	ldrbvs	r5, [r3, #-1327]!	; 0x52f
 194:	622f7372 	eorvs	r7, pc, #-939524095	; 0xc8000001
 198:	6e616972 	mcrvs	9, 3, r6, cr1, cr2, {3}
 19c:	2f6e756a 	svccs	0x006e756a
 1a0:	6b736544 	blvs	1cd96b8 <__bss_end__+0x1ccfaa0>
 1a4:	2f706f74 	svccs	0x00706f74
 1a8:	6f686373 	svcvs	0x00686373
 1ac:	532f6c6f 	teqpl	pc, #28416	; 0x6f00
 1b0:	6e697270 	mcrvs	2, 3, r7, cr9, cr0, {3}
 1b4:	32393167 	eorscc	r3, r9, #-1073741799	; 0xc0000019
 1b8:	53432f30 	movtpl	r2, #16176	; 0x3f30
 1bc:	4c303432 	cfldrsmi	mvf3, [r0], #-200	; 0xffffff38
 1c0:	73632f58 	cmnvc	r3, #88, 30	; 0x160
 1c4:	6c303432 	cfldrsvs	mvf3, [r0], #-200	; 0xffffff38
 1c8:	30322d78 	eorscc	r2, r2, r8, ror sp
 1cc:	2f727073 	svccs	0x00727073
 1d0:	7362616c 	cmnvc	r2, #108, 2
 1d4:	2d72692f 	ldclcs	9, cr6, [r2, #-188]!	; 0xffffff44
 1d8:	74726175 	ldrbtvc	r6, [r2], #-373	; 0x175
 1dc:	7265732f 	rsbvc	r7, r5, #-1140850688	; 0xbc000000
 1e0:	00726576 	rsbseq	r6, r2, r6, ror r5
 1e4:	74756f5f 	ldrbtvc	r6, [r5], #-3935	; 0xf5f
 1e8:	72617500 	rsbvc	r7, r1, #0, 10
 1ec:	796d0074 	stmdbvc	sp!, {r2, r4, r5, r6}^
 1f0:	5f77735f 	svcpl	0x0077735f
 1f4:	74726175 	ldrbtvc	r6, [r2], #-373	; 0x175
 1f8:	7500745f 	strvc	r7, [r0, #-1119]	; 0x45f
 1fc:	6769736e 	strbvs	r7, [r9, -lr, ror #6]!
 200:	2064656e 	rsbcs	r6, r4, lr, ror #10
 204:	72616863 	rsbvc	r6, r1, #6488064	; 0x630000
 208:	6f687300 	svcvs	0x00687300
 20c:	69207472 	stmdbvs	r0!, {r1, r4, r5, r6, sl, ip, sp, lr}
 210:	6400746e 	strvs	r7, [r0], #-1134	; 0x46e
 214:	79616c65 	stmdbvc	r1!, {r0, r2, r5, r6, sl, fp, sp, lr}^
 218:	00736d5f 	rsbseq	r6, r3, pc, asr sp
 21c:	6c637963 	stclvs	9, cr7, [r3], #-396	; 0xfffffe74
 220:	705f7365 	subsvc	r7, pc, r5, ror #6
 224:	735f7265 	cmpvc	pc, #1342177286	; 0x50000006
 228:	62006365 	andvs	r6, r0, #-1811939327	; 0x94000001
 22c:	00647561 	rsbeq	r7, r4, r1, ror #10
 230:	6f697067 	svcvs	0x00697067
 234:	7465735f 	strbtvc	r7, [r5], #-863	; 0x35f
 238:	69660030 	stmdbvs	r6!, {r4, r5}^
 23c:	00747372 	rsbseq	r7, r4, r2, ror r3
 240:	6f697067 	svcvs	0x00697067
 244:	7465735f 	strbtvc	r7, [r5], #-863	; 0x35f
 248:	706e695f 	rsbvc	r6, lr, pc, asr r9
 24c:	6c007475 	cfstrsvs	mvf7, [r0], {117}	; 0x75
 250:	00747361 	rsbseq	r7, r4, r1, ror #6
 254:	6f697067 	svcvs	0x00697067
 258:	7465735f 	strbtvc	r7, [r5], #-863	; 0x35f
 25c:	74756f5f 	ldrbtvc	r6, [r5], #-3935	; 0xf5f
 260:	00747570 	rsbseq	r7, r4, r0, ror r5
 264:	62616e65 	rsbvs	r6, r1, #1616	; 0x650
 268:	635f656c 	cmpvs	pc, #108, 10	; 0x1b000000
 26c:	65686361 	strbvs	r6, [r8, #-865]!	; 0x361
 270:	6e697500 	cdpvs	5, 6, cr7, cr9, cr0, {0}
 274:	745f3874 	ldrbvc	r3, [pc], #-2164	; 27c <_start-0x7d84>
 278:	73657400 	cmnvc	r5, #0, 8
 27c:	65672d74 	strbvs	r2, [r7, #-3444]!	; 0xd74
 280:	00632e6e 	rsbeq	r2, r3, lr, ror #28
 284:	6c637963 	stclvs	9, cr7, [r3], #-396	; 0xfffffe74
 288:	65705f65 	ldrbvs	r5, [r0, #-3941]!	; 0xf65
 28c:	69625f72 	stmdbvs	r2!, {r1, r4, r5, r6, r8, r9, sl, fp, ip, lr}^
 290:	5f5f0074 	svcpl	0x005f0074
 294:	63756e67 	cmnvs	r5, #1648	; 0x670
 298:	5f61765f 	svcpl	0x0061765f
 29c:	7473696c 	ldrbtvc	r6, [r3], #-2412	; 0x96c
 2a0:	62696c00 	rsbvs	r6, r9, #0, 24
 2a4:	72702f63 	rsbsvc	r2, r0, #396	; 0x18c
 2a8:	6b746e69 	blvs	1d1bc54 <__bss_end__+0x1d1203c>
 2ac:	4700632e 	strmi	r6, [r0, -lr, lsr #6]
 2b0:	4320554e 	teqmi	r0, #327155712	; 0x13800000
 2b4:	382e3420 	stmdacc	lr!, {r5, sl, ip, sp}
 2b8:	2d20332e 	stccs	3, cr3, [r0, #-184]!	; 0xffffff48
 2bc:	7570636d 	ldrbvc	r6, [r0, #-877]!	; 0x36d
 2c0:	6d72613d 	ldfvse	f6, [r2, #-244]!	; 0xffffff0c
 2c4:	36373131 			; <UNDEFINED> instruction: 0x36373131
 2c8:	2d667a6a 	vstmdbcs	r6!, {s15-s120}
 2cc:	6d2d2073 	stcvs	0, cr2, [sp, #-460]!	; 0xfffffe34
 2d0:	656e7574 	strbvs	r7, [lr, #-1396]!	; 0x574
 2d4:	6d72613d 	ldfvse	f6, [r2, #-244]!	; 0xffffff0c
 2d8:	36373131 			; <UNDEFINED> instruction: 0x36373131
 2dc:	2d667a6a 	vstmdbcs	r6!, {s15-s120}
 2e0:	672d2073 			; <UNDEFINED> instruction: 0x672d2073
 2e4:	20626467 	rsbcs	r6, r2, r7, ror #8
 2e8:	20674f2d 	rsbcs	r4, r7, sp, lsr #30
 2ec:	6474732d 	ldrbtvs	r7, [r4], #-813	; 0x32d
 2f0:	756e673d 	strbvc	r6, [lr, #-1853]!	; 0x73d
 2f4:	2d203939 	stccs	9, cr3, [r0, #-228]!	; 0xffffff1c
 2f8:	65726666 	ldrbvs	r6, [r2, #-1638]!	; 0x666
 2fc:	61747365 	cmnvs	r4, r5, ror #6
 300:	6e69646e 	cdpvs	4, 6, cr6, cr9, cr14, {3}
 304:	61760067 	cmnvs	r6, r7, rrx
 308:	6972705f 	ldmdbvs	r2!, {r0, r1, r2, r3, r4, r6, ip, sp, lr}^
 30c:	006b746e 	rsbeq	r7, fp, lr, ror #8
 310:	61765f5f 	cmnvs	r6, pc, asr pc
 314:	73696c5f 	cmnvc	r9, #24320	; 0x5f00
 318:	552f0074 	strpl	r0, [pc, #-116]!	; 2ac <_start-0x7d54>
 31c:	73726573 	cmnvc	r2, #482344960	; 0x1cc00000
 320:	6972622f 	ldmdbvs	r2!, {r0, r1, r2, r3, r5, r9, sp, lr}^
 324:	756a6e61 	strbvc	r6, [sl, #-3681]!	; 0xe61
 328:	65442f6e 	strbvs	r2, [r4, #-3950]	; 0xf6e
 32c:	6f746b73 	svcvs	0x00746b73
 330:	63732f70 	cmnvs	r3, #112, 30	; 0x1c0
 334:	6c6f6f68 	stclvs	15, cr6, [pc], #-416	; 19c <_start-0x7e64>
 338:	6e69572f 	cdpvs	7, 6, cr5, cr9, cr15, {1}
 33c:	31726574 	cmncc	r2, r4, ror r5
 340:	2f303239 	svccs	0x00303239
 344:	34315343 	ldrtcc	r5, [r1], #-835	; 0x343
 348:	632f4530 	teqvs	pc, #48, 10	; 0xc000000
 34c:	30343173 	eorscc	r3, r4, r3, ror r1
 350:	30322d65 	eorscc	r2, r2, r5, ror #26
 354:	2f6e6977 	svccs	0x006e6977
 358:	7062696c 	rsbvc	r6, r2, ip, ror #18
 35c:	72610069 	rsbvc	r0, r1, #105	; 0x69
 360:	5f007367 	svcpl	0x00007367
 364:	0070615f 	rsbseq	r6, r0, pc, asr r1
 368:	74726175 	ldrbtvc	r6, [r2], #-373	; 0x175
 36c:	7475705f 	ldrbtvc	r7, [r5], #-95	; 0x5f
 370:	6e690063 	cdpvs	0, 6, cr0, cr9, cr3, {3}
 374:	6e726574 	mrcvs	5, 3, r6, cr2, cr4, {3}
 378:	705f6c61 	subsvc	r6, pc, r1, ror #24
 37c:	68637475 	stmdavs	r3!, {r0, r2, r4, r5, r6, sl, ip, sp, lr}^
 380:	72007261 	andvc	r7, r0, #268435462	; 0x10000006
 384:	705f6970 	subsvc	r6, pc, r0, ror r9	; <UNPREDICTABLE>
 388:	68637475 	stmdavs	r3!, {r0, r2, r4, r5, r6, sl, ip, sp, lr}^
 38c:	6c007261 	sfmvs	f7, 4, [r0], {97}	; 0x61
 390:	2f636269 	svccs	0x00636269
 394:	63747570 	cmnvs	r4, #112, 10	; 0x1c000000
 398:	2e726168 	rpwcssz	f6, f2, #0.0
 39c:	70720063 	rsbsvc	r0, r2, r3, rrx
 3a0:	65735f69 	ldrbvs	r5, [r3, #-3945]!	; 0xf69
 3a4:	75705f74 	ldrbvc	r5, [r0, #-3956]!	; 0xf74
 3a8:	6c006374 	stcvs	3, cr6, [r0], {116}	; 0x74
 3ac:	2f636269 	svccs	0x00636269
 3b0:	6b747570 	blvs	1d1d978 <__bss_end__+0x1d13d60>
 3b4:	6900632e 	stmdbvs	r0, {r1, r2, r3, r5, r8, r9, sp, lr}
 3b8:	7265746e 	rsbvc	r7, r5, #1845493760	; 0x6e000000
 3bc:	5f6c616e 	svcpl	0x006c616e
 3c0:	6b747570 	blvs	1d1d988 <__bss_end__+0x1d13d70>
 3c4:	67656e00 	strbvs	r6, [r5, -r0, lsl #28]!
 3c8:	7200705f 	andvc	r7, r0, #95	; 0x5f
 3cc:	72657665 	rsbvc	r7, r5, #105906176	; 0x6500000
 3d0:	69006573 	stmdbvs	r0, {r0, r1, r4, r5, r6, r8, sl, sp, lr}
 3d4:	67696473 			; <UNDEFINED> instruction: 0x67696473
 3d8:	70007469 	andvc	r7, r0, r9, ror #8
 3dc:	5f737475 	svcpl	0x00737475
 3e0:	62007066 	andvs	r7, r0, #102	; 0x66
 3e4:	00657361 	rsbeq	r7, r5, r1, ror #6
 3e8:	6e676973 	mcrvs	9, 3, r6, cr7, cr3, {3}
 3ec:	705f6465 	subsvc	r6, pc, r5, ror #8
 3f0:	62696c00 	rsbvs	r6, r9, #0, 24
 3f4:	61762f63 	cmnvs	r6, r3, ror #30
 3f8:	6972702d 	ldmdbvs	r2!, {r0, r2, r3, r5, ip, sp, lr}^
 3fc:	2e6b746e 	cdpcs	4, 6, cr7, cr11, cr14, {3}
 400:	70720063 	rsbsvc	r0, r2, r3, rrx
 404:	65735f69 	ldrbvs	r5, [r3, #-3945]!	; 0xf69
 408:	756f5f74 	strbvc	r5, [pc, #-3956]!	; fffff49c <__bss_end__+0xffff5884>
 40c:	74757074 	ldrbtvc	r7, [r5], #-116	; 0x74
 410:	64697700 	strbtvs	r7, [r9], #-1792	; 0x700
 414:	70006874 	andvc	r6, r0, r4, ror r8
 418:	5f637475 	svcpl	0x00637475
 41c:	65007066 	strvs	r7, [r0, #-102]	; 0x66
 420:	0074696d 	rsbseq	r6, r4, sp, ror #18
 424:	61736964 	cmnvs	r3, r4, ror #18
 428:	5f656c62 	svcpl	0x00656c62
 42c:	68636163 	stmdavs	r3!, {r0, r1, r5, r6, r8, sp, lr}^
 430:	73630065 	cmnvc	r3, #101	; 0x65
 434:	65303431 	ldrvs	r3, [r0, #-1073]!	; 0x431
 438:	6372732d 	cmnvs	r2, #-1275068416	; 0xb4000000
 43c:	6361632f 	cmnvs	r1, #-1140850688	; 0xbc000000
 440:	632e6568 	teqvs	lr, #104, 10	; 0x1a000000
 444:	69707200 	ldmdbvs	r0!, {r9, ip, sp, lr}^
 448:	6265725f 	rsbvs	r7, r5, #-268435451	; 0xf0000005
 44c:	00746f6f 	rsbseq	r6, r4, pc, ror #30
 450:	34317363 	ldrtcc	r7, [r1], #-867	; 0x363
 454:	732d6530 	teqvc	sp, #48, 10	; 0xc000000
 458:	632f6372 	teqvs	pc, #-939524095	; 0xc8000001
 45c:	6e61656c 	cdpvs	5, 6, cr6, cr1, cr12, {3}
 460:	6265722d 	rsbvs	r7, r5, #-805306366	; 0xd0000002
 464:	2e746f6f 	cdpcs	15, 7, cr6, cr4, cr15, {3}
 468:	73630063 	cmnvc	r3, #99	; 0x63
 46c:	65303431 	ldrvs	r3, [r0, #-1073]!	; 0x431
 470:	6372732d 	cmnvs	r2, #-1275068416	; 0xb4000000
 474:	7473632f 	ldrbtvc	r6, [r3], #-815	; 0x32f
 478:	2e747261 	cdpcs	2, 7, cr7, cr4, cr1, {3}
 47c:	5f5f0063 	svcpl	0x005f0063
 480:	5f737362 	svcpl	0x00737362
 484:	72617473 	rsbvc	r7, r1, #1929379840	; 0x73000000
 488:	005f5f74 	subseq	r5, pc, r4, ror pc	; <UNPREDICTABLE>
 48c:	73625f5f 	cmnvc	r2, #380	; 0x17c
 490:	6e655f73 	mcrvs	15, 3, r5, cr5, cr3, {3}
 494:	005f5f64 	subseq	r5, pc, r4, ror #30
 498:	5f737362 	svcpl	0x00737362
 49c:	00646e65 	rsbeq	r6, r4, r5, ror #28
 4a0:	7473635f 	ldrbtvc	r6, [r3], #-863	; 0x35f
 4a4:	00747261 	rsbseq	r7, r4, r1, ror #4
 4a8:	755f7461 	ldrbvc	r7, [pc, #-1121]	; 4f <_start-0x7fb1>
 4ac:	5f726573 	svcpl	0x00726573
 4b0:	6576656c 	ldrbvs	r6, [r6, #-1388]!	; 0x56c
 4b4:	4d50006c 	ldclmi	0, cr0, [r0, #-432]	; 0xfffffe50
 4b8:	5341505f 	movtpl	r5, #4191	; 0x105f
 4bc:	524f5753 	subpl	r5, pc, #21757952	; 0x14c0000
 4c0:	73630044 	cmnvc	r3, #68	; 0x44
 4c4:	65303431 	ldrvs	r3, [r0, #-1073]!	; 0x431
 4c8:	6372732d 	cmnvs	r2, #-1275068416	; 0xb4000000
 4cc:	6265722f 	rsbvs	r7, r5, #-268435454	; 0xf0000002
 4d0:	2e746f6f 	cdpcs	15, 7, cr6, cr4, cr15, {3}
 4d4:	4d500063 	ldclmi	0, cr0, [r0, #-396]	; 0xfffffe74
 4d8:	5453525f 	ldrbpl	r5, [r3], #-607	; 0x25f
 4dc:	52575f43 	subspl	r5, r7, #268	; 0x10c
 4e0:	5f474643 	svcpl	0x00474643
 4e4:	4c4c5546 	cfstr64mi	mvdx5, [ip], {70}	; 0x46
 4e8:	5345525f 	movtpl	r5, #21087	; 0x525f
 4ec:	50005445 	andpl	r5, r0, r5, asr #8
 4f0:	44575f4d 	ldrbmi	r5, [r7], #-3917	; 0xf4d
 4f4:	7300474f 	movwvc	r4, #1871	; 0x74f
 4f8:	755f7465 	ldrbvc	r7, [pc, #-1125]	; 9b <_start-0x7f65>
 4fc:	5f726573 	svcpl	0x00726573
 500:	6576656c 	ldrbvs	r6, [r6, #-1388]!	; 0x56c
 504:	5550006c 	ldrbpl	r0, [r0, #-108]	; 0x6c
 508:	00323354 	eorseq	r3, r2, r4, asr r3
 50c:	525f4d50 	subspl	r4, pc, #80, 26	; 0x1400
 510:	00435453 	subeq	r5, r3, r3, asr r4
 514:	72737063 	rsbsvc	r7, r3, #99	; 0x63
 518:	6d697400 	cfstrdvs	mvd7, [r9, #-0]
 51c:	675f7265 	ldrbvs	r7, [pc, -r5, ror #4]
 520:	755f7465 	ldrbvc	r7, [pc, #-1125]	; c3 <_start-0x7f3d>
 524:	5f636573 	svcpl	0x00636573
 528:	00776172 	rsbseq	r6, r7, r2, ror r1
 52c:	616c6564 	cmnvs	ip, r4, ror #10
 530:	65735f79 	ldrbvs	r5, [r3, #-3961]!	; 0xf79
 534:	73630063 	cmnvc	r3, #99	; 0x63
 538:	65303431 	ldrvs	r3, [r0, #-1073]!	; 0x431
 53c:	6372732d 	cmnvs	r2, #-1275068416	; 0xb4000000
 540:	6d69742f 	cfstrdvs	mvd7, [r9, #-188]!	; 0xffffff44
 544:	632e7265 	teqvs	lr, #1342177286	; 0x50000006
 548:	54454700 	strbpl	r4, [r5], #-1792	; 0x700
 54c:	74003233 	strvc	r3, [r0], #-563	; 0x233
 550:	736b6369 	cmnvc	fp, #-1543503871	; 0xa4000001
 554:	6c656400 	cfstrdvs	mvd6, [r5], #-0
 558:	635f7961 	cmpvs	pc, #1589248	; 0x184000
 55c:	656c6379 	strbvs	r6, [ip, #-889]!	; 0x379
 560:	65640073 	strbvs	r0, [r4, #-115]!	; 0x73
 564:	5f79616c 	svcpl	0x0079616c
 568:	74007375 	strvc	r7, [r0], #-885	; 0x375
 56c:	72656d69 	rsbvc	r6, r5, #6720	; 0x1a40
 570:	7465675f 	strbtvc	r6, [r5], #-1887	; 0x75f
 574:	6573755f 	ldrbvs	r7, [r3, #-1375]!	; 0x55f
 578:	70670063 	rsbvc	r0, r7, r3, rrx
 57c:	655f6f69 	ldrbvs	r6, [pc, #-3945]	; fffff61b <__bss_end__+0xffff5a03>
 580:	746e6576 	strbtvc	r6, [lr], #-1398	; 0x576
 584:	7465645f 	strbtvc	r6, [r5], #-1119	; 0x45f
 588:	65746365 	ldrbvs	r6, [r4, #-869]!	; 0x365
 58c:	75700064 	ldrbvc	r0, [r0, #-100]!	; 0x64
 590:	00323374 	eorseq	r3, r2, r4, ror r3
 594:	42414e45 	submi	r4, r1, #1104	; 0x450
 598:	495f454c 	ldmdbmi	pc, {r2, r3, r6, r8, sl, lr}^	; <UNPREDICTABLE>
 59c:	5f535152 	svcpl	0x00535152
 5a0:	73690032 	cmnvc	r9, #50	; 0x32
 5a4:	6970675f 	ldmdbvs	r0!, {r0, r1, r2, r3, r4, r6, r8, r9, sl, sp, lr}^
 5a8:	6e695f6f 	cdpvs	15, 6, cr5, cr9, cr15, {3}
 5ac:	73630074 	cmnvc	r3, #116	; 0x74
 5b0:	65303431 	ldrvs	r3, [r0, #-1073]!	; 0x431
 5b4:	6372732d 	cmnvs	r2, #-1275068416	; 0xb4000000
 5b8:	6970672f 	ldmdbvs	r0!, {r0, r1, r2, r3, r5, r8, r9, sl, sp, lr}^
 5bc:	00632e6f 	rsbeq	r2, r3, pc, ror #28
 5c0:	4f495047 	svcmi	0x00495047
 5c4:	4e55465f 	mrcmi	6, 2, r4, cr5, cr15, {2}
 5c8:	4e495f43 	cdpmi	15, 4, cr5, cr9, cr3, {2}
 5cc:	00545550 	subseq	r5, r4, r0, asr r5
 5d0:	5f746e69 	svcpl	0x00746e69
 5d4:	6b73616d 	blvs	1cd8b90 <__bss_end__+0x1ccef78>
 5d8:	67657200 	strbvs	r7, [r5, -r0, lsl #4]!
 5dc:	6174735f 	cmnvs	r4, pc, asr r3
 5e0:	70670074 	rsbvc	r0, r7, r4, ror r0
 5e4:	725f6f69 	subsvc	r6, pc, #420	; 0x1a4
 5e8:	64006765 	strvs	r6, [r0], #-1893	; 0x765
 5ec:	625f7665 	subsvs	r7, pc, #105906176	; 0x6500000
 5f0:	69727261 	ldmdbvs	r2!, {r0, r5, r6, r9, ip, sp, lr}^
 5f4:	67007265 	strvs	r7, [r0, -r5, ror #4]
 5f8:	5f6f6970 	svcpl	0x006f6970
 5fc:	64616572 	strbtvs	r6, [r1], #-1394	; 0x572
 600:	69706700 	ldmdbvs	r0!, {r8, r9, sl, sp, lr}^
 604:	6e695f6f 	cdpvs	15, 6, cr5, cr9, cr15, {3}
 608:	69725f74 	ldmdbvs	r2!, {r2, r4, r5, r6, r8, r9, sl, fp, ip, lr}^
 60c:	676e6973 			; <UNDEFINED> instruction: 0x676e6973
 610:	6764655f 			; <UNDEFINED> instruction: 0x6764655f
 614:	70670065 	rsbvc	r0, r7, r5, rrx
 618:	735f6f69 	cmpvc	pc, #420	; 0x1a4
 61c:	665f7465 	ldrbvs	r7, [pc], -r5, ror #8
 620:	74636e75 	strbtvc	r6, [r3], #-3701	; 0xe75
 624:	006e6f69 	rsbeq	r6, lr, r9, ror #30
 628:	45525047 	ldrbmi	r5, [r2, #-71]	; 0x47
 62c:	4700304e 	strmi	r3, [r0, -lr, asr #32]
 630:	4e455250 	mcrmi	2, 2, r5, cr5, cr0, {2}
 634:	70670031 	rsbvc	r0, r7, r1, lsr r0
 638:	655f6f69 	ldrbvs	r6, [pc, #-3945]	; fffff6d7 <__bss_end__+0xffff5abf>
 63c:	746e6576 	strbtvc	r6, [lr], #-1398	; 0x576
 640:	656c635f 	strbvs	r6, [ip, #-863]!	; 0x35f
 644:	49007261 	stmdbmi	r0, {r0, r5, r6, r9, ip, sp, lr}
 648:	505f5152 	subspl	r5, pc, r2, asr r1	; <UNPREDICTABLE>
 64c:	49444e45 	stmdbmi	r4, {r0, r2, r6, r9, sl, fp, lr}^
 650:	315f474e 	cmpcc	pc, lr, asr #14
 654:	51524900 	cmppl	r2, r0, lsl #18
 658:	4e45505f 	mcrmi	0, 2, r5, cr5, cr15, {2}
 65c:	474e4944 	strbmi	r4, [lr, -r4, asr #18]
 660:	6200325f 	andvs	r3, r0, #-268435451	; 0xf0000005
 664:	616d7469 	cmnvs	sp, r9, ror #8
 668:	66006b73 			; <UNDEFINED> instruction: 0x66006b73
 66c:	00636e75 	rsbeq	r6, r3, r5, ror lr
 670:	6f697067 	svcvs	0x00697067
 674:	676f745f 			; <UNDEFINED> instruction: 0x676f745f
 678:	00656c67 	rsbeq	r6, r5, r7, ror #24
 67c:	44455047 	strbmi	r5, [r5], #-71	; 0x47
 680:	47003053 	smlsdmi	r0, r3, r0, r3
 684:	53444550 	movtpl	r4, #17744	; 0x4550
 688:	50470031 	subpl	r0, r7, r1, lsr r0
 68c:	304e4546 	subcc	r4, lr, r6, asr #10
 690:	46504700 	ldrbmi	r4, [r0], -r0, lsl #14
 694:	00314e45 	eorseq	r4, r1, r5, asr #28
 698:	4f495047 	svcmi	0x00495047
 69c:	4e55465f 	mrcmi	6, 2, r4, cr5, cr15, {2}
 6a0:	554f5f43 	strbpl	r5, [pc, #-3907]	; fffff765 <__bss_end__+0xffff5b4d>
 6a4:	54555054 	ldrbpl	r5, [r5], #-84	; 0x54
 6a8:	74656700 	strbtvc	r6, [r5], #-1792	; 0x700
 6ac:	67003233 	smladxvs	r0, r3, r2, r3
 6b0:	5f6f6970 	svcpl	0x006f6970
 6b4:	5f746e69 	svcpl	0x00746e69
 6b8:	6c6c6166 	stfvse	f6, [ip], #-408	; 0xfffffe68
 6bc:	5f676e69 	svcpl	0x00676e69
 6c0:	65676465 	strbvs	r6, [r7, #-1125]!	; 0x465
 6c4:	69706700 	ldmdbvs	r0!, {r8, r9, sl, sp, lr}^
 6c8:	75665f6f 	strbvc	r5, [r6, #-3951]!	; 0xf6f
 6cc:	745f636e 	ldrbvc	r6, [pc], #-878	; 6d4 <_start-0x792c>
 6d0:	49504700 	ldmdbmi	r0, {r8, r9, sl, lr}^
 6d4:	55465f4f 	strbpl	r5, [r6, #-3919]	; 0xf4f
 6d8:	415f434e 	cmpmi	pc, lr, asr #6
 6dc:	0030544c 	eorseq	r5, r0, ip, asr #8
 6e0:	4f495047 	svcmi	0x00495047
 6e4:	4e55465f 	mrcmi	6, 2, r4, cr5, cr15, {2}
 6e8:	4c415f43 	mcrrmi	15, 4, r5, r1, cr3
 6ec:	47003154 	smlsdmi	r0, r4, r1, r3
 6f0:	5f4f4950 	svcpl	0x004f4950
 6f4:	434e5546 	movtmi	r5, #58694	; 0xe546
 6f8:	544c415f 	strbpl	r4, [ip], #-351	; 0x15f
 6fc:	50470032 	subpl	r0, r7, r2, lsr r0
 700:	465f4f49 	ldrbmi	r4, [pc], -r9, asr #30
 704:	5f434e55 	svcpl	0x00434e55
 708:	33544c41 	cmpcc	r4, #16640	; 0x4100
 70c:	49504700 	ldmdbmi	r0, {r8, r9, sl, lr}^
 710:	55465f4f 	strbpl	r5, [r6, #-3919]	; 0xf4f
 714:	415f434e 	cmpmi	pc, lr, asr #6
 718:	0034544c 	eorseq	r5, r4, ip, asr #8
 71c:	4f495047 	svcmi	0x00495047
 720:	4e55465f 	mrcmi	6, 2, r4, cr5, cr15, {2}
 724:	4c415f43 	mcrrmi	15, 4, r5, r1, cr3
 728:	72003554 	andvc	r3, r0, #84, 10	; 0x15000000
 72c:	735f6765 	cmpvc	pc, #26476544	; 0x1940000
 730:	63656c65 	cmnvs	r5, #25856	; 0x6500
 734:	55410074 	strbpl	r0, [r1, #-116]	; 0x74
 738:	554d5f58 	strbpl	r5, [sp, #-3928]	; 0xf58
 73c:	52434d5f 	subpl	r4, r3, #6080	; 0x17c0
 740:	4745525f 	smlsldmi	r5, r5, pc, r2	; <UNPREDICTABLE>
 744:	58554100 	ldmdapl	r5, {r8, lr}^
 748:	5f554d5f 	svcpl	0x00554d5f
 74c:	525f4f49 	subspl	r4, pc, #292	; 0x124
 750:	41004745 	tstmi	r0, r5, asr #14
 754:	4d5f5855 	ldclmi	8, cr5, [pc, #-340]	; 608 <_start-0x79f8>
 758:	534d5f55 	movtpl	r5, #57173	; 0xdf55
 75c:	45525f52 	ldrbmi	r5, [r2, #-3922]	; 0xf52
 760:	61750047 	cmnvs	r5, r7, asr #32
 764:	635f7472 	cmpvs	pc, #1912602624	; 0x72000000
 768:	675f6e61 	ldrbvs	r6, [pc, -r1, ror #28]
 76c:	00637465 	rsbeq	r7, r3, r5, ror #8
 770:	5f585541 	svcpl	0x00585541
 774:	435f554d 	cmpmi	pc, #322961408	; 0x13400000
 778:	5f4c544e 	svcpl	0x004c544e
 77c:	00474552 	subeq	r4, r7, r2, asr r5
 780:	74726175 	ldrbtvc	r6, [r2], #-373	; 0x175
 784:	7361685f 	cmnvc	r1, #6225920	; 0x5f0000
 788:	7461645f 	strbtvc	r6, [r1], #-1119	; 0x45f
 78c:	61750061 	cmnvs	r5, r1, rrx
 790:	695f7472 	ldmdbvs	pc, {r1, r4, r5, r6, sl, ip, sp, lr}^	; <UNPREDICTABLE>
 794:	0074696e 	rsbseq	r6, r4, lr, ror #18
 798:	5f585541 	svcpl	0x00585541
 79c:	495f554d 	ldmdbmi	pc, {r0, r2, r3, r6, r8, sl, ip, lr}^	; <UNPREDICTABLE>
 7a0:	525f5245 	subspl	r5, pc, #1342177284	; 0x50000004
 7a4:	75004745 	strvc	r4, [r0, #-1861]	; 0x745
 7a8:	5f747261 	svcpl	0x00747261
 7ac:	63746567 	cmnvs	r4, #432013312	; 0x19c00000
 7b0:	58554100 	ldmdapl	r5, {r8, lr}^
 7b4:	5f554d5f 	svcpl	0x00554d5f
 7b8:	5f524949 	svcpl	0x00524949
 7bc:	00474552 	subeq	r4, r7, r2, asr r5
 7c0:	74726175 	ldrbtvc	r6, [r2], #-373	; 0x175
 7c4:	6e61635f 	mcrvs	3, 3, r6, cr1, cr15, {2}
 7c8:	7475705f 	ldrbtvc	r7, [r5], #-95	; 0x5f
 7cc:	55410063 	strbpl	r0, [r1, #-99]	; 0x63
 7d0:	4e455f58 	mcrmi	15, 2, r5, cr5, cr8, {2}
 7d4:	454c4241 	strbmi	r4, [ip, #-577]	; 0x241
 7d8:	55410053 	strbpl	r0, [r1, #-83]	; 0x53
 7dc:	52495f58 	subpl	r5, r9, #88, 30	; 0x160
 7e0:	55410051 	strbpl	r0, [r1, #-81]	; 0x51
 7e4:	554d5f58 	strbpl	r5, [sp, #-3928]	; 0xf58
 7e8:	5541425f 	strbpl	r4, [r1, #-607]	; 0x25f
 7ec:	45525f44 	ldrbmi	r5, [r2, #-3908]	; 0xf44
 7f0:	55410047 	strbpl	r0, [r1, #-71]	; 0x47
 7f4:	554d5f58 	strbpl	r5, [sp, #-3928]	; 0xf58
 7f8:	4154535f 	cmpmi	r4, pc, asr r3
 7fc:	45525f54 	ldrbmi	r5, [r2, #-3924]	; 0xf54
 800:	55410047 	strbpl	r0, [r1, #-71]	; 0x47
 804:	554d5f58 	strbpl	r5, [sp, #-3928]	; 0xf58
 808:	5243535f 	subpl	r5, r3, #2080374785	; 0x7c000001
 80c:	48435441 	stmdami	r3, {r0, r6, sl, ip, lr}^
 810:	2d796d00 	ldclcs	13, cr6, [r9, #-0]
 814:	2f637273 	svccs	0x00637273
 818:	74726175 	ldrbtvc	r6, [r2], #-373	; 0x175
 81c:	4100632e 	tstmi	r0, lr, lsr #6
 820:	4d5f5855 	ldclmi	8, cr5, [pc, #-340]	; 6d4 <_start-0x792c>
 824:	434c5f55 	movtmi	r5, #53077	; 0xcf55
 828:	45525f52 	ldrbmi	r5, [r2, #-3922]	; 0xf52
 82c:	55410047 	strbpl	r0, [r1, #-71]	; 0x47
 830:	554d5f58 	strbpl	r5, [sp, #-3928]	; 0xf58
 834:	52534c5f 	subspl	r4, r3, #24320	; 0x5f00
 838:	4745525f 	smlsldmi	r5, r5, pc, r2	; <UNPREDICTABLE>
 83c:	72617500 	rsbvc	r7, r1, #0, 10
 840:	65675f74 	strbvs	r5, [r7, #-3956]!	; 0xf74
 844:	615f6374 	cmpvs	pc, r4, ror r3	; <UNPREDICTABLE>
 848:	636e7973 	cmnvs	lr, #1884160	; 0x1cc000
	...

Disassembly of section .debug_frame:

00000000 <.debug_frame>:
   0:	0000000c 	andeq	r0, r0, ip
   4:	ffffffff 			; <UNDEFINED> instruction: 0xffffffff
   8:	7c020001 	stcvc	0, cr0, [r2], {1}
   c:	000d0c0e 	andeq	r0, sp, lr, lsl #24
  10:	00000014 	andeq	r0, r0, r4, lsl r0
  14:	00000000 	andeq	r0, r0, r0
  18:	00008010 	andeq	r8, r0, r0, lsl r0
  1c:	00000050 	andeq	r0, r0, r0, asr r0
  20:	84080e44 	strhi	r0, [r8], #-3652	; 0xe44
  24:	00018e02 	andeq	r8, r1, r2, lsl #28
  28:	00000020 	andeq	r0, r0, r0, lsr #32
  2c:	00000000 	andeq	r0, r0, r0
  30:	00008060 	andeq	r8, r0, r0, rrx
  34:	000001bc 			; <UNDEFINED> instruction: 0x000001bc
  38:	841c0e4c 	ldrhi	r0, [ip], #-3660	; 0xe4c
  3c:	86068507 	strhi	r8, [r6], -r7, lsl #10
  40:	88048705 	stmdahi	r4, {r0, r2, r8, r9, sl, pc}
  44:	8a028903 	bhi	a2458 <__bss_end__+0x98840>
  48:	00000001 	andeq	r0, r0, r1
  4c:	00000018 	andeq	r0, r0, r8, lsl r0
  50:	00000000 	andeq	r0, r0, r0
  54:	0000821c 	andeq	r8, r0, ip, lsl r2
  58:	00000290 	muleq	r0, r0, r2
  5c:	840c0e42 	strhi	r0, [ip], #-3650	; 0xe42
  60:	86028503 	strhi	r8, [r2], -r3, lsl #10
  64:	00000001 	andeq	r0, r0, r1
  68:	0000001c 	andeq	r0, r0, ip, lsl r0
  6c:	00000000 	andeq	r0, r0, r0
  70:	000084ac 	andeq	r8, r0, ip, lsr #9
  74:	000002c4 	andeq	r0, r0, r4, asr #5
  78:	83180e42 	tsthi	r8, #1056	; 0x420
  7c:	85058406 	strhi	r8, [r5, #-1030]	; 0x406
  80:	87038604 	strhi	r8, [r3, -r4, lsl #12]
  84:	00018e02 	andeq	r8, r1, r2, lsl #28
  88:	0000000c 	andeq	r0, r0, ip
  8c:	ffffffff 			; <UNDEFINED> instruction: 0xffffffff
  90:	7c020001 	stcvc	0, cr0, [r2], {1}
  94:	000d0c0e 	andeq	r0, sp, lr, lsl #24
  98:	00000024 	andeq	r0, r0, r4, lsr #32
  9c:	00000088 	andeq	r0, r0, r8, lsl #1
  a0:	00008770 	andeq	r8, r0, r0, ror r7
  a4:	00000058 	andeq	r0, r0, r8, asr r0
  a8:	80100e42 	andshi	r0, r0, r2, asr #28
  ac:	82038104 	andhi	r8, r3, #4, 2
  b0:	42018302 	andmi	r8, r1, #134217728	; 0x8000000
  b4:	07841c0e 	streq	r1, [r4, lr, lsl #24]
  b8:	058e0685 	streq	r0, [lr, #1669]	; 0x685
  bc:	00280e42 	eoreq	r0, r8, r2, asr #28
  c0:	0000000c 	andeq	r0, r0, ip
  c4:	ffffffff 			; <UNDEFINED> instruction: 0xffffffff
  c8:	7c020001 	stcvc	0, cr0, [r2], {1}
  cc:	000d0c0e 	andeq	r0, sp, lr, lsl #24
  d0:	00000014 	andeq	r0, r0, r4, lsl r0
  d4:	000000c0 	andeq	r0, r0, r0, asr #1
  d8:	000087c8 	andeq	r8, r0, r8, asr #15
  dc:	00000014 	andeq	r0, r0, r4, lsl r0
  e0:	84080e42 	strhi	r0, [r8], #-3650	; 0xe42
  e4:	00018e02 	andeq	r8, r1, r2, lsl #28
  e8:	0000000c 	andeq	r0, r0, ip
  ec:	000000c0 	andeq	r0, r0, r0, asr #1
  f0:	000087dc 	ldrdeq	r8, [r0], -ip
  f4:	00000018 	andeq	r0, r0, r8, lsl r0
  f8:	0000000c 	andeq	r0, r0, ip
  fc:	000000c0 	andeq	r0, r0, r0, asr #1
 100:	000087f4 	strdeq	r8, [r0], -r4
 104:	00000010 	andeq	r0, r0, r0, lsl r0
 108:	0000000c 	andeq	r0, r0, ip
 10c:	ffffffff 			; <UNDEFINED> instruction: 0xffffffff
 110:	7c020001 	stcvc	0, cr0, [r2], {1}
 114:	000d0c0e 	andeq	r0, sp, lr, lsl #24
 118:	00000018 	andeq	r0, r0, r8, lsl r0
 11c:	00000108 	andeq	r0, r0, r8, lsl #2
 120:	00008804 	andeq	r8, r0, r4, lsl #16
 124:	00000034 	andeq	r0, r0, r4, lsr r0
 128:	83100e42 	tsthi	r0, #1056	; 0x420
 12c:	85038404 	strhi	r8, [r3, #-1028]	; 0x404
 130:	00018e02 	andeq	r8, r1, r2, lsl #28
 134:	0000000c 	andeq	r0, r0, ip
 138:	ffffffff 			; <UNDEFINED> instruction: 0xffffffff
 13c:	7c020001 	stcvc	0, cr0, [r2], {1}
 140:	000d0c0e 	andeq	r0, sp, lr, lsl #24
 144:	0000000c 	andeq	r0, r0, ip
 148:	00000134 	andeq	r0, r0, r4, lsr r1
 14c:	00008838 	andeq	r8, r0, r8, lsr r8
 150:	00000014 	andeq	r0, r0, r4, lsl r0
 154:	0000000c 	andeq	r0, r0, ip
 158:	00000134 	andeq	r0, r0, r4, lsr r1
 15c:	0000884c 	andeq	r8, r0, ip, asr #16
 160:	0000002c 	andeq	r0, r0, ip, lsr #32
 164:	0000000c 	andeq	r0, r0, ip
 168:	00000134 	andeq	r0, r0, r4, lsr r1
 16c:	00008878 	andeq	r8, r0, r8, ror r8
 170:	00000040 	andeq	r0, r0, r0, asr #32
 174:	00000020 	andeq	r0, r0, r0, lsr #32
 178:	00000134 	andeq	r0, r0, r4, lsr r1
 17c:	000088b8 			; <UNDEFINED> instruction: 0x000088b8
 180:	0000019c 	muleq	r0, ip, r1
 184:	84180e42 	ldrhi	r0, [r8], #-3650	; 0xe42
 188:	86058506 	strhi	r8, [r5], -r6, lsl #10
 18c:	88038704 	stmdahi	r3, {r2, r8, r9, sl, pc}
 190:	42018e02 	andmi	r8, r1, #2, 28
 194:	0000580e 	andeq	r5, r0, lr, lsl #16
 198:	00000014 	andeq	r0, r0, r4, lsl r0
 19c:	00000134 	andeq	r0, r0, r4, lsr r1
 1a0:	00008a54 	andeq	r8, r0, r4, asr sl
 1a4:	00000054 	andeq	r0, r0, r4, asr r0
 1a8:	83080e42 	movwhi	r0, #36418	; 0x8e42
 1ac:	00018e02 	andeq	r8, r1, r2, lsl #28
 1b0:	00000028 	andeq	r0, r0, r8, lsr #32
 1b4:	00000134 	andeq	r0, r0, r4, lsr r1
 1b8:	00008aa8 	andeq	r8, r0, r8, lsr #21
 1bc:	00000288 	andeq	r0, r0, r8, lsl #5
 1c0:	84240e42 	strthi	r0, [r4], #-3650	; 0xe42
 1c4:	86088509 	strhi	r8, [r8], -r9, lsl #10
 1c8:	88068707 	stmdahi	r6, {r0, r1, r2, r8, r9, sl, pc}
 1cc:	8a048905 	bhi	1225e8 <__bss_end__+0x1189d0>
 1d0:	8e028b03 	vmlahi.f64	d8, d2, d3
 1d4:	b00e4201 	andlt	r4, lr, r1, lsl #4
 1d8:	00000001 	andeq	r0, r0, r1
 1dc:	0000000c 	andeq	r0, r0, ip
 1e0:	ffffffff 			; <UNDEFINED> instruction: 0xffffffff
 1e4:	7c020001 	stcvc	0, cr0, [r2], {1}
 1e8:	000d0c0e 	andeq	r0, sp, lr, lsl #24
 1ec:	0000000c 	andeq	r0, r0, ip
 1f0:	000001dc 	ldrdeq	r0, [r0], -ip
 1f4:	00008d30 	andeq	r8, r0, r0, lsr sp
 1f8:	00000010 	andeq	r0, r0, r0, lsl r0
 1fc:	0000000c 	andeq	r0, r0, ip
 200:	000001dc 	ldrdeq	r0, [r0], -ip
 204:	00008d40 	andeq	r8, r0, r0, asr #26
 208:	00000010 	andeq	r0, r0, r0, lsl r0
 20c:	0000000c 	andeq	r0, r0, ip
 210:	ffffffff 			; <UNDEFINED> instruction: 0xffffffff
 214:	7c020001 	stcvc	0, cr0, [r2], {1}
 218:	000d0c0e 	andeq	r0, sp, lr, lsl #24
 21c:	00000014 	andeq	r0, r0, r4, lsl r0
 220:	0000020c 	andeq	r0, r0, ip, lsl #4
 224:	00008d50 	andeq	r8, r0, r0, asr sp
 228:	00000028 	andeq	r0, r0, r8, lsr #32
 22c:	83080e42 	movwhi	r0, #36418	; 0x8e42
 230:	00018e02 	andeq	r8, r1, r2, lsl #28
 234:	0000000c 	andeq	r0, r0, ip
 238:	ffffffff 			; <UNDEFINED> instruction: 0xffffffff
 23c:	7c020001 	stcvc	0, cr0, [r2], {1}
 240:	000d0c0e 	andeq	r0, sp, lr, lsl #24
 244:	00000014 	andeq	r0, r0, r4, lsl r0
 248:	00000234 	andeq	r0, r0, r4, lsr r2
 24c:	00008d78 	andeq	r8, r0, r8, ror sp
 250:	00000034 	andeq	r0, r0, r4, lsr r0
 254:	83080e42 	movwhi	r0, #36418	; 0x8e42
 258:	00018e02 	andeq	r8, r1, r2, lsl #28
 25c:	0000000c 	andeq	r0, r0, ip
 260:	ffffffff 			; <UNDEFINED> instruction: 0xffffffff
 264:	7c020001 	stcvc	0, cr0, [r2], {1}
 268:	000d0c0e 	andeq	r0, sp, lr, lsl #24
 26c:	0000000c 	andeq	r0, r0, ip
 270:	0000025c 	andeq	r0, r0, ip, asr r2
 274:	00008dac 	andeq	r8, r0, ip, lsr #27
 278:	00000018 	andeq	r0, r0, r8, lsl r0
 27c:	0000000c 	andeq	r0, r0, ip
 280:	0000025c 	andeq	r0, r0, ip, asr r2
 284:	00008dc4 	andeq	r8, r0, r4, asr #27
 288:	00000014 	andeq	r0, r0, r4, lsl r0
 28c:	00000014 	andeq	r0, r0, r4, lsl r0
 290:	0000025c 	andeq	r0, r0, ip, asr r2
 294:	00008dd8 	ldrdeq	r8, [r0], -r8	; <UNPREDICTABLE>
 298:	00000048 	andeq	r0, r0, r8, asr #32
 29c:	83080e42 	movwhi	r0, #36418	; 0x8e42
 2a0:	00018e02 	andeq	r8, r1, r2, lsl #28
 2a4:	0000000c 	andeq	r0, r0, ip
 2a8:	ffffffff 			; <UNDEFINED> instruction: 0xffffffff
 2ac:	7c020001 	stcvc	0, cr0, [r2], {1}
 2b0:	000d0c0e 	andeq	r0, sp, lr, lsl #24
 2b4:	0000000c 	andeq	r0, r0, ip
 2b8:	000002a4 	andeq	r0, r0, r4, lsr #5
 2bc:	00008e20 	andeq	r8, r0, r0, lsr #28
 2c0:	0000001c 	andeq	r0, r0, ip, lsl r0
 2c4:	00000014 	andeq	r0, r0, r4, lsl r0
 2c8:	000002a4 	andeq	r0, r0, r4, lsr #5
 2cc:	00008e3c 	andeq	r8, r0, ip, lsr lr
 2d0:	00000014 	andeq	r0, r0, r4, lsl r0
 2d4:	83080e42 	movwhi	r0, #36418	; 0x8e42
 2d8:	00018e02 	andeq	r8, r1, r2, lsl #28
 2dc:	00000014 	andeq	r0, r0, r4, lsl r0
 2e0:	000002a4 	andeq	r0, r0, r4, lsr #5
 2e4:	00008e50 	andeq	r8, r0, r0, asr lr
 2e8:	0000000c 	andeq	r0, r0, ip
 2ec:	83080e42 	movwhi	r0, #36418	; 0x8e42
 2f0:	00018e02 	andeq	r8, r1, r2, lsl #28
 2f4:	00000018 	andeq	r0, r0, r8, lsl r0
 2f8:	000002a4 	andeq	r0, r0, r4, lsr #5
 2fc:	00008e5c 	andeq	r8, r0, ip, asr lr
 300:	00000024 	andeq	r0, r0, r4, lsr #32
 304:	83100e42 	tsthi	r0, #1056	; 0x420
 308:	85038404 	strhi	r8, [r3, #-1028]	; 0x404
 30c:	00018e02 	andeq	r8, r1, r2, lsl #28
 310:	00000014 	andeq	r0, r0, r4, lsl r0
 314:	000002a4 	andeq	r0, r0, r4, lsr #5
 318:	00008e80 	andeq	r8, r0, r0, lsl #29
 31c:	00000014 	andeq	r0, r0, r4, lsl r0
 320:	83080e42 	movwhi	r0, #36418	; 0x8e42
 324:	00018e02 	andeq	r8, r1, r2, lsl #28
 328:	00000014 	andeq	r0, r0, r4, lsl r0
 32c:	000002a4 	andeq	r0, r0, r4, lsr #5
 330:	00008e94 	muleq	r0, r4, lr
 334:	00000014 	andeq	r0, r0, r4, lsl r0
 338:	83080e42 	movwhi	r0, #36418	; 0x8e42
 33c:	00018e02 	andeq	r8, r1, r2, lsl #28
 340:	0000000c 	andeq	r0, r0, ip
 344:	ffffffff 			; <UNDEFINED> instruction: 0xffffffff
 348:	7c020001 	stcvc	0, cr0, [r2], {1}
 34c:	000d0c0e 	andeq	r0, sp, lr, lsl #24
 350:	00000018 	andeq	r0, r0, r8, lsl r0
 354:	00000340 	andeq	r0, r0, r0, asr #6
 358:	00008ea8 	andeq	r8, r0, r8, lsr #29
 35c:	000000d4 	ldrdeq	r0, [r0], -r4
 360:	83100e42 	tsthi	r0, #1056	; 0x420
 364:	85038404 	strhi	r8, [r3, #-1028]	; 0x404
 368:	00018e02 	andeq	r8, r1, r2, lsl #28
 36c:	00000014 	andeq	r0, r0, r4, lsl r0
 370:	00000340 	andeq	r0, r0, r0, asr #6
 374:	00008f7c 	andeq	r8, r0, ip, ror pc
 378:	00000038 	andeq	r0, r0, r8, lsr r0
 37c:	83080e42 	movwhi	r0, #36418	; 0x8e42
 380:	00018e02 	andeq	r8, r1, r2, lsl #28
 384:	00000014 	andeq	r0, r0, r4, lsl r0
 388:	00000340 	andeq	r0, r0, r0, asr #6
 38c:	00008fb4 			; <UNDEFINED> instruction: 0x00008fb4
 390:	00000038 	andeq	r0, r0, r8, lsr r0
 394:	83080e42 	movwhi	r0, #36418	; 0x8e42
 398:	00018e02 	andeq	r8, r1, r2, lsl #28
 39c:	00000018 	andeq	r0, r0, r8, lsl r0
 3a0:	00000340 	andeq	r0, r0, r0, asr #6
 3a4:	00008fec 	andeq	r8, r0, ip, ror #31
 3a8:	000000cc 	andeq	r0, r0, ip, asr #1
 3ac:	83100e42 	tsthi	r0, #1056	; 0x420
 3b0:	85038404 	strhi	r8, [r3, #-1028]	; 0x404
 3b4:	00018e02 	andeq	r8, r1, r2, lsl #28
 3b8:	00000014 	andeq	r0, r0, r4, lsl r0
 3bc:	00000340 	andeq	r0, r0, r0, asr #6
 3c0:	000090b8 	strheq	r9, [r0], -r8
 3c4:	0000004c 	andeq	r0, r0, ip, asr #32
 3c8:	84080e42 	strhi	r0, [r8], #-3650	; 0xe42
 3cc:	00018e02 	andeq	r8, r1, r2, lsl #28
 3d0:	00000014 	andeq	r0, r0, r4, lsl r0
 3d4:	00000340 	andeq	r0, r0, r0, asr #6
 3d8:	00009104 	andeq	r9, r0, r4, lsl #2
 3dc:	00000024 	andeq	r0, r0, r4, lsr #32
 3e0:	83080e42 	movwhi	r0, #36418	; 0x8e42
 3e4:	00018e02 	andeq	r8, r1, r2, lsl #28
 3e8:	00000018 	andeq	r0, r0, r8, lsl r0
 3ec:	00000340 	andeq	r0, r0, r0, asr #6
 3f0:	00009128 	andeq	r9, r0, r8, lsr #2
 3f4:	000000d8 	ldrdeq	r0, [r0], -r8
 3f8:	84100e42 	ldrhi	r0, [r0], #-3650	; 0xe42
 3fc:	86038504 	strhi	r8, [r3], -r4, lsl #10
 400:	00018e02 	andeq	r8, r1, r2, lsl #28
 404:	00000014 	andeq	r0, r0, r4, lsl r0
 408:	00000340 	andeq	r0, r0, r0, asr #6
 40c:	00009200 	andeq	r9, r0, r0, lsl #4
 410:	00000038 	andeq	r0, r0, r8, lsr r0
 414:	83080e42 	movwhi	r0, #36418	; 0x8e42
 418:	00018e02 	andeq	r8, r1, r2, lsl #28
 41c:	00000014 	andeq	r0, r0, r4, lsl r0
 420:	00000340 	andeq	r0, r0, r0, asr #6
 424:	00009238 	andeq	r9, r0, r8, lsr r2
 428:	0000002c 	andeq	r0, r0, ip, lsr #32
 42c:	83080e42 	movwhi	r0, #36418	; 0x8e42
 430:	00018e02 	andeq	r8, r1, r2, lsl #28
 434:	00000018 	andeq	r0, r0, r8, lsl r0
 438:	00000340 	andeq	r0, r0, r0, asr #6
 43c:	00009264 	andeq	r9, r0, r4, ror #4
 440:	00000084 	andeq	r0, r0, r4, lsl #1
 444:	83100e42 	tsthi	r0, #1056	; 0x420
 448:	85038404 	strhi	r8, [r3, #-1028]	; 0x404
 44c:	00018e02 	andeq	r8, r1, r2, lsl #28
 450:	00000018 	andeq	r0, r0, r8, lsl r0
 454:	00000340 	andeq	r0, r0, r0, asr #6
 458:	000092e8 	andeq	r9, r0, r8, ror #5
 45c:	00000084 	andeq	r0, r0, r4, lsl #1
 460:	83100e42 	tsthi	r0, #1056	; 0x420
 464:	85038404 	strhi	r8, [r3, #-1028]	; 0x404
 468:	00018e02 	andeq	r8, r1, r2, lsl #28
 46c:	00000014 	andeq	r0, r0, r4, lsl r0
 470:	00000340 	andeq	r0, r0, r0, asr #6
 474:	0000936c 	andeq	r9, r0, ip, ror #6
 478:	00000084 	andeq	r0, r0, r4, lsl #1
 47c:	84080e42 	strhi	r0, [r8], #-3650	; 0xe42
 480:	00018e02 	andeq	r8, r1, r2, lsl #28
 484:	00000014 	andeq	r0, r0, r4, lsl r0
 488:	00000340 	andeq	r0, r0, r0, asr #6
 48c:	000093f0 	strdeq	r9, [r0], -r0
 490:	00000058 	andeq	r0, r0, r8, asr r0
 494:	84080e42 	strhi	r0, [r8], #-3650	; 0xe42
 498:	00018e02 	andeq	r8, r1, r2, lsl #28
 49c:	0000000c 	andeq	r0, r0, ip
 4a0:	ffffffff 			; <UNDEFINED> instruction: 0xffffffff
 4a4:	7c020001 	stcvc	0, cr0, [r2], {1}
 4a8:	000d0c0e 	andeq	r0, sp, lr, lsl #24
 4ac:	00000018 	andeq	r0, r0, r8, lsl r0
 4b0:	0000049c 	muleq	r0, ip, r4
 4b4:	00009448 	andeq	r9, r0, r8, asr #8
 4b8:	0000009c 	muleq	r0, ip, r0
 4bc:	83100e42 	tsthi	r0, #1056	; 0x420
 4c0:	85038404 	strhi	r8, [r3, #-1028]	; 0x404
 4c4:	00018e02 	andeq	r8, r1, r2, lsl #28
 4c8:	00000014 	andeq	r0, r0, r4, lsl r0
 4cc:	0000049c 	muleq	r0, ip, r4
 4d0:	000094e4 	andeq	r9, r0, r4, ror #9
 4d4:	0000001c 	andeq	r0, r0, ip, lsl r0
 4d8:	83080e42 	movwhi	r0, #36418	; 0x8e42
 4dc:	00018e02 	andeq	r8, r1, r2, lsl #28
 4e0:	00000014 	andeq	r0, r0, r4, lsl r0
 4e4:	0000049c 	muleq	r0, ip, r4
 4e8:	00009500 	andeq	r9, r0, r0, lsl #10
 4ec:	00000028 	andeq	r0, r0, r8, lsr #32
 4f0:	83080e42 	movwhi	r0, #36418	; 0x8e42
 4f4:	00018e02 	andeq	r8, r1, r2, lsl #28
 4f8:	00000014 	andeq	r0, r0, r4, lsl r0
 4fc:	0000049c 	muleq	r0, ip, r4
 500:	00009528 	andeq	r9, r0, r8, lsr #10
 504:	0000001c 	andeq	r0, r0, ip, lsl r0
 508:	83080e42 	movwhi	r0, #36418	; 0x8e42
 50c:	00018e02 	andeq	r8, r1, r2, lsl #28
 510:	00000014 	andeq	r0, r0, r4, lsl r0
 514:	0000049c 	muleq	r0, ip, r4
 518:	00009544 	andeq	r9, r0, r4, asr #10
 51c:	0000002c 	andeq	r0, r0, ip, lsr #32
 520:	84080e42 	strhi	r0, [r8], #-3650	; 0xe42
 524:	00018e02 	andeq	r8, r1, r2, lsl #28
 528:	00000014 	andeq	r0, r0, r4, lsl r0
 52c:	0000049c 	muleq	r0, ip, r4
 530:	00009570 	andeq	r9, r0, r0, ror r5
 534:	0000000c 	andeq	r0, r0, ip
 538:	83080e42 	movwhi	r0, #36418	; 0x8e42
 53c:	00018e02 	andeq	r8, r1, r2, lsl #28
 540:	00000014 	andeq	r0, r0, r4, lsl r0
 544:	0000049c 	muleq	r0, ip, r4
 548:	0000957c 	andeq	r9, r0, ip, ror r5
 54c:	00000020 	andeq	r0, r0, r0, lsr #32
 550:	83080e42 	movwhi	r0, #36418	; 0x8e42
 554:	00018e02 	andeq	r8, r1, r2, lsl #28
