
tests/part2-test6.elf:     file format elf32-littlearm


Disassembly of section .text:

00008000 <__code_start__>:
    8000:	e3a0d302 	mov	sp, #134217728	; 0x8000000
    8004:	e3a0b000 	mov	fp, #0
    8008:	eb0005d0 	bl	9750 <_cstart>
    800c:	eb0005e7 	bl	97b0 <rpi_reboot>

00008010 <test1>:
    8010:	e92d4010 	push	{r4, lr}
    8014:	e3a00004 	mov	r0, #4
    8018:	e59f1038 	ldr	r1, [pc, #56]	; 8058 <test1+0x48>
    801c:	e59f2038 	ldr	r2, [pc, #56]	; 805c <test1+0x4c>
    8020:	e3a03007 	mov	r3, #7
    8024:	eb000139 	bl	8510 <ckalloc>
    8028:	e1a04000 	mov	r4, r0
    802c:	e59f002c 	ldr	r0, [pc, #44]	; 8060 <test1+0x50>
    8030:	eb000447 	bl	9154 <printk>
    8034:	e59f0028 	ldr	r0, [pc, #40]	; 8064 <test1+0x54>
    8038:	e1a01004 	mov	r1, r4
    803c:	eb000444 	bl	9154 <printk>
    8040:	e1a00004 	mov	r0, r4
    8044:	e3a01000 	mov	r1, #0
    8048:	e3a02004 	mov	r2, #4
    804c:	eb000438 	bl	9134 <memset>
    8050:	e2840001 	add	r0, r4, #1
    8054:	e8bd8010 	pop	{r4, pc}
    8058:	00009d30 	andeq	r9, r0, r0, lsr sp
    805c:	00009d20 	andeq	r9, r0, r0, lsr #26
    8060:	00009d44 	andeq	r9, r0, r4, asr #26
    8064:	00009d4c 	andeq	r9, r0, ip, asr #26

00008068 <notmain>:
    8068:	e92d4010 	push	{r4, lr}
    806c:	e59f00d8 	ldr	r0, [pc, #216]	; 814c <notmain+0xe4>
    8070:	eb000437 	bl	9154 <printk>
    8074:	e3a00601 	mov	r0, #1048576	; 0x100000
    8078:	eb0006c0 	bl	9b80 <kmalloc_init_set_start>
    807c:	e3a00601 	mov	r0, #1048576	; 0x100000
    8080:	eb0006d2 	bl	9bd0 <kmalloc>
    8084:	e3a01601 	mov	r1, #1048576	; 0x100000
    8088:	eb0000ca 	bl	83b8 <ck_init>
    808c:	ebffffdf 	bl	8010 <test1>
    8090:	e1a04000 	mov	r4, r0
    8094:	e59f00b4 	ldr	r0, [pc, #180]	; 8150 <notmain+0xe8>
    8098:	eb00042d 	bl	9154 <printk>
    809c:	e59f00b0 	ldr	r0, [pc, #176]	; 8154 <notmain+0xec>
    80a0:	e1a01004 	mov	r1, r4
    80a4:	eb00042a 	bl	9154 <printk>
    80a8:	eb0001a3 	bl	873c <ck_heap_errors>
    80ac:	e3500000 	cmp	r0, #0
    80b0:	0a000006 	beq	80d0 <notmain+0x68>
    80b4:	eb000441 	bl	91c0 <rpi_reset_putc>
    80b8:	e59f0098 	ldr	r0, [pc, #152]	; 8158 <notmain+0xf0>
    80bc:	e59f1098 	ldr	r1, [pc, #152]	; 815c <notmain+0xf4>
    80c0:	e59f2098 	ldr	r2, [pc, #152]	; 8160 <notmain+0xf8>
    80c4:	e3a0301a 	mov	r3, #26
    80c8:	eb000421 	bl	9154 <printk>
    80cc:	eb000595 	bl	9728 <clean_reboot>
    80d0:	e59f0078 	ldr	r0, [pc, #120]	; 8150 <notmain+0xe8>
    80d4:	eb00041e 	bl	9154 <printk>
    80d8:	e59f0084 	ldr	r0, [pc, #132]	; 8164 <notmain+0xfc>
    80dc:	eb00041c 	bl	9154 <printk>
    80e0:	e3a00000 	mov	r0, #0
    80e4:	eb00036e 	bl	8ea4 <ck_find_leaks>
    80e8:	e3500000 	cmp	r0, #0
    80ec:	0a000006 	beq	810c <notmain+0xa4>
    80f0:	eb000432 	bl	91c0 <rpi_reset_putc>
    80f4:	e59f006c 	ldr	r0, [pc, #108]	; 8168 <notmain+0x100>
    80f8:	e59f105c 	ldr	r1, [pc, #92]	; 815c <notmain+0xf4>
    80fc:	e59f205c 	ldr	r2, [pc, #92]	; 8160 <notmain+0xf8>
    8100:	e3a03020 	mov	r3, #32
    8104:	eb000412 	bl	9154 <printk>
    8108:	eb000586 	bl	9728 <clean_reboot>
    810c:	e3a00001 	mov	r0, #1
    8110:	eb000363 	bl	8ea4 <ck_find_leaks>
    8114:	e3500000 	cmp	r0, #0
    8118:	0a000004 	beq	8130 <notmain+0xc8>
    811c:	e59f002c 	ldr	r0, [pc, #44]	; 8150 <notmain+0xe8>
    8120:	eb00040b 	bl	9154 <printk>
    8124:	e59f0040 	ldr	r0, [pc, #64]	; 816c <notmain+0x104>
    8128:	eb000409 	bl	9154 <printk>
    812c:	e8bd8010 	pop	{r4, pc}
    8130:	eb000422 	bl	91c0 <rpi_reset_putc>
    8134:	e59f0034 	ldr	r0, [pc, #52]	; 8170 <notmain+0x108>
    8138:	e59f101c 	ldr	r1, [pc, #28]	; 815c <notmain+0xf4>
    813c:	e59f201c 	ldr	r2, [pc, #28]	; 8160 <notmain+0xf8>
    8140:	e3a03026 	mov	r3, #38	; 0x26
    8144:	eb000402 	bl	9154 <printk>
    8148:	eb000576 	bl	9728 <clean_reboot>
    814c:	00009d60 	andeq	r9, r0, r0, ror #26
    8150:	00009d44 	andeq	r9, r0, r4, asr #26
    8154:	00009d6c 	andeq	r9, r0, ip, ror #26
    8158:	00009d80 	andeq	r9, r0, r0, lsl #27
    815c:	00009d30 	andeq	r9, r0, r0, lsr sp
    8160:	00009d28 	andeq	r9, r0, r8, lsr #26
    8164:	0000a584 	andeq	sl, r0, r4, lsl #11
    8168:	00009da4 	andeq	r9, r0, r4, lsr #27
    816c:	00009dd4 	ldrdeq	r9, [r0], -r4
    8170:	00009df8 	strdeq	r9, [r0], -r8

00008174 <check_mem>:
    8174:	e92d41f0 	push	{r4, r5, r6, r7, r8, lr}
    8178:	e1a05000 	mov	r5, r0
    817c:	e3a03000 	mov	r3, #0
    8180:	ea000030 	b	8248 <check_mem+0xd4>
    8184:	e0814003 	add	r4, r1, r3
    8188:	e7d1c003 	ldrb	ip, [r1, r3]
    818c:	e35c00fe 	cmp	ip, #254	; 0xfe
    8190:	0a00002b 	beq	8244 <check_mem+0xd0>
    8194:	e28570b8 	add	r7, r5, #184	; 0xb8
    8198:	e0678004 	rsb	r8, r7, r4
    819c:	e59f60b4 	ldr	r6, [pc, #180]	; 8258 <check_mem+0xe4>
    81a0:	e1a00006 	mov	r0, r6
    81a4:	eb0003ea 	bl	9154 <printk>
    81a8:	e59f00ac 	ldr	r0, [pc, #172]	; 825c <check_mem+0xe8>
    81ac:	eb0003e8 	bl	9154 <printk>
    81b0:	e59f00a8 	ldr	r0, [pc, #168]	; 8260 <check_mem+0xec>
    81b4:	e1a01007 	mov	r1, r7
    81b8:	e1a02008 	mov	r2, r8
    81bc:	eb0003e4 	bl	9154 <printk>
    81c0:	e1a00006 	mov	r0, r6
    81c4:	eb0003e2 	bl	9154 <printk>
    81c8:	e59f0094 	ldr	r0, [pc, #148]	; 8264 <check_mem+0xf0>
    81cc:	e5951000 	ldr	r1, [r5]
    81d0:	eb0003df 	bl	9154 <printk>
    81d4:	e5953010 	ldr	r3, [r5, #16]
    81d8:	e3530000 	cmp	r3, #0
    81dc:	0a000006 	beq	81fc <check_mem+0x88>
    81e0:	e1a00006 	mov	r0, r6
    81e4:	eb0003da 	bl	9154 <printk>
    81e8:	e59f0078 	ldr	r0, [pc, #120]	; 8268 <check_mem+0xf4>
    81ec:	e5951010 	ldr	r1, [r5, #16]
    81f0:	e5952014 	ldr	r2, [r5, #20]
    81f4:	e5953018 	ldr	r3, [r5, #24]
    81f8:	eb0003d5 	bl	9154 <printk>
    81fc:	e5953008 	ldr	r3, [r5, #8]
    8200:	e353000c 	cmp	r3, #12
    8204:	1a000009 	bne	8230 <check_mem+0xbc>
    8208:	e595301c 	ldr	r3, [r5, #28]
    820c:	e3530000 	cmp	r3, #0
    8210:	0a000006 	beq	8230 <check_mem+0xbc>
    8214:	e59f003c 	ldr	r0, [pc, #60]	; 8258 <check_mem+0xe4>
    8218:	eb0003cd 	bl	9154 <printk>
    821c:	e59f0048 	ldr	r0, [pc, #72]	; 826c <check_mem+0xf8>
    8220:	e595101c 	ldr	r1, [r5, #28]
    8224:	e5952020 	ldr	r2, [r5, #32]
    8228:	e5953024 	ldr	r3, [r5, #36]	; 0x24
    822c:	eb0003c8 	bl	9154 <printk>
    8230:	e59f0038 	ldr	r0, [pc, #56]	; 8270 <check_mem+0xfc>
    8234:	e5d41000 	ldrb	r1, [r4]
    8238:	eb0003c5 	bl	9154 <printk>
    823c:	e3a00000 	mov	r0, #0
    8240:	e8bd81f0 	pop	{r4, r5, r6, r7, r8, pc}
    8244:	e2833001 	add	r3, r3, #1
    8248:	e1530002 	cmp	r3, r2
    824c:	3affffcc 	bcc	8184 <check_mem+0x10>
    8250:	e3a00001 	mov	r0, #1
    8254:	e8bd81f0 	pop	{r4, r5, r6, r7, r8, pc}
    8258:	00009d44 	andeq	r9, r0, r4, asr #26
    825c:	00009e7c 	andeq	r9, r0, ip, ror lr
    8260:	00009e84 	andeq	r9, r0, r4, lsl #29
    8264:	00009ea8 	andeq	r9, r0, r8, lsr #29
    8268:	00009eb4 			; <UNDEFINED> instruction: 0x00009eb4
    826c:	00009ed4 	ldrdeq	r9, [r0], -r4
    8270:	00009ef0 	strdeq	r9, [r0], -r0

00008274 <mark_mem>:
    8274:	e92d4008 	push	{r3, lr}
    8278:	e1a02001 	mov	r2, r1
    827c:	e3a010fe 	mov	r1, #254	; 0xfe
    8280:	eb0003ab 	bl	9134 <memset>
    8284:	e8bd8008 	pop	{r3, pc}

00008288 <hdr_cksum>:
    8288:	e92d41f0 	push	{r4, r5, r6, r7, r8, lr}
    828c:	e1a04000 	mov	r4, r0
    8290:	e590800c 	ldr	r8, [r0, #12]
    8294:	e5907028 	ldr	r7, [r0, #40]	; 0x28
    8298:	e590602c 	ldr	r6, [r0, #44]	; 0x2c
    829c:	e1d053b4 	ldrh	r5, [r0, #52]	; 0x34
    82a0:	e3a03000 	mov	r3, #0
    82a4:	e580300c 	str	r3, [r0, #12]
    82a8:	e5803028 	str	r3, [r0, #40]	; 0x28
    82ac:	e580302c 	str	r3, [r0, #44]	; 0x2c
    82b0:	e1c033b4 	strh	r3, [r0, #52]	; 0x34
    82b4:	e3a01038 	mov	r1, #56	; 0x38
    82b8:	eb000361 	bl	9044 <fast_hash>
    82bc:	e584800c 	str	r8, [r4, #12]
    82c0:	e5847028 	str	r7, [r4, #40]	; 0x28
    82c4:	e584602c 	str	r6, [r4, #44]	; 0x2c
    82c8:	e1c453b4 	strh	r5, [r4, #52]	; 0x34
    82cc:	e8bd81f0 	pop	{r4, r5, r6, r7, r8, pc}

000082d0 <check_hdr>:
    82d0:	e92d4010 	push	{r4, lr}
    82d4:	e1a04000 	mov	r4, r0
    82d8:	ebffffea 	bl	8288 <hdr_cksum>
    82dc:	e594300c 	ldr	r3, [r4, #12]
    82e0:	e1530000 	cmp	r3, r0
    82e4:	0a000006 	beq	8304 <check_hdr+0x34>
    82e8:	eb0003b4 	bl	91c0 <rpi_reset_putc>
    82ec:	e59f0044 	ldr	r0, [pc, #68]	; 8338 <check_hdr+0x68>
    82f0:	e59f1044 	ldr	r1, [pc, #68]	; 833c <check_hdr+0x6c>
    82f4:	e59f2044 	ldr	r2, [pc, #68]	; 8340 <check_hdr+0x70>
    82f8:	e3a0302f 	mov	r3, #47	; 0x2f
    82fc:	eb000394 	bl	9154 <printk>
    8300:	eb000508 	bl	9728 <clean_reboot>
    8304:	e5943008 	ldr	r3, [r4, #8]
    8308:	e243300b 	sub	r3, r3, #11
    830c:	e3530001 	cmp	r3, #1
    8310:	9a000006 	bls	8330 <check_hdr+0x60>
    8314:	eb0003a9 	bl	91c0 <rpi_reset_putc>
    8318:	e59f0024 	ldr	r0, [pc, #36]	; 8344 <check_hdr+0x74>
    831c:	e59f1018 	ldr	r1, [pc, #24]	; 833c <check_hdr+0x6c>
    8320:	e59f2018 	ldr	r2, [pc, #24]	; 8340 <check_hdr+0x70>
    8324:	e3a03030 	mov	r3, #48	; 0x30
    8328:	eb000389 	bl	9154 <printk>
    832c:	eb0004fd 	bl	9728 <clean_reboot>
    8330:	e3a00001 	mov	r0, #1
    8334:	e8bd8010 	pop	{r4, pc}
    8338:	00009efc 	strdeq	r9, [r0], -ip
    833c:	00009f28 	andeq	r9, r0, r8, lsr #30
    8340:	00009e2c 	andeq	r9, r0, ip, lsr #28
    8344:	00009f34 	andeq	r9, r0, r4, lsr pc

00008348 <check_block>:
    8348:	e92d4010 	push	{r4, lr}
    834c:	e1a04000 	mov	r4, r0
    8350:	ebffffde 	bl	82d0 <check_hdr>
    8354:	e3500000 	cmp	r0, #0
    8358:	0a000010 	beq	83a0 <check_block+0x58>
    835c:	e1a00004 	mov	r0, r4
    8360:	e2841038 	add	r1, r4, #56	; 0x38
    8364:	e3a02080 	mov	r2, #128	; 0x80
    8368:	ebffff81 	bl	8174 <check_mem>
    836c:	e3500000 	cmp	r0, #0
    8370:	0a00000c 	beq	83a8 <check_block+0x60>
    8374:	e28410b8 	add	r1, r4, #184	; 0xb8
    8378:	e5943000 	ldr	r3, [r4]
    837c:	e5942004 	ldr	r2, [r4, #4]
    8380:	e1a00004 	mov	r0, r4
    8384:	e0811003 	add	r1, r1, r3
    8388:	e2822080 	add	r2, r2, #128	; 0x80
    838c:	ebffff78 	bl	8174 <check_mem>
    8390:	e3500000 	cmp	r0, #0
    8394:	0a000005 	beq	83b0 <check_block+0x68>
    8398:	e3a00001 	mov	r0, #1
    839c:	e8bd8010 	pop	{r4, pc}
    83a0:	e3a00000 	mov	r0, #0
    83a4:	e8bd8010 	pop	{r4, pc}
    83a8:	e3a00000 	mov	r0, #0
    83ac:	e8bd8010 	pop	{r4, pc}
    83b0:	e3a00000 	mov	r0, #0
    83b4:	e8bd8010 	pop	{r4, pc}

000083b8 <ck_init>:
    83b8:	e92d4038 	push	{r3, r4, r5, lr}
    83bc:	e1a04000 	mov	r4, r0
    83c0:	e1a05001 	mov	r5, r1
    83c4:	e59f3060 	ldr	r3, [pc, #96]	; 842c <ck_init+0x74>
    83c8:	e5933000 	ldr	r3, [r3]
    83cc:	e3130007 	tst	r3, #7
    83d0:	0a000006 	beq	83f0 <ck_init+0x38>
    83d4:	eb000379 	bl	91c0 <rpi_reset_putc>
    83d8:	e59f0050 	ldr	r0, [pc, #80]	; 8430 <ck_init+0x78>
    83dc:	e59f1050 	ldr	r1, [pc, #80]	; 8434 <ck_init+0x7c>
    83e0:	e59f2050 	ldr	r2, [pc, #80]	; 8438 <ck_init+0x80>
    83e4:	e3a0300d 	mov	r3, #13
    83e8:	eb000359 	bl	9154 <printk>
    83ec:	eb0004cd 	bl	9728 <clean_reboot>
    83f0:	e59f0044 	ldr	r0, [pc, #68]	; 843c <ck_init+0x84>
    83f4:	e3a01038 	mov	r1, #56	; 0x38
    83f8:	e3a02080 	mov	r2, #128	; 0x80
    83fc:	eb000354 	bl	9154 <printk>
    8400:	e59f3024 	ldr	r3, [pc, #36]	; 842c <ck_init+0x74>
    8404:	e5834000 	str	r4, [r3]
    8408:	e5834004 	str	r4, [r3, #4]
    840c:	e0845005 	add	r5, r4, r5
    8410:	e5835008 	str	r5, [r3, #8]
    8414:	e583400c 	str	r4, [r3, #12]
    8418:	e5834010 	str	r4, [r3, #16]
    841c:	e3a02000 	mov	r2, #0
    8420:	e5832014 	str	r2, [r3, #20]
    8424:	e5832018 	str	r2, [r3, #24]
    8428:	e8bd8038 	pop	{r3, r4, r5, pc}
    842c:	0000a88c 	andeq	sl, r0, ip, lsl #17
    8430:	00009f70 	andeq	r9, r0, r0, ror pc
    8434:	00009f28 	andeq	r9, r0, r8, lsr #30
    8438:	00009e38 	andeq	r9, r0, r8, lsr lr
    843c:	00009f98 	muleq	r0, r8, pc	; <UNPREDICTABLE>

00008440 <ckfree>:
    8440:	e92d41f0 	push	{r4, r5, r6, r7, r8, lr}
    8444:	e1a04000 	mov	r4, r0
    8448:	e1a08001 	mov	r8, r1
    844c:	e1a07002 	mov	r7, r2
    8450:	e1a06003 	mov	r6, r3
    8454:	e59f009c 	ldr	r0, [pc, #156]	; 84f8 <ckfree+0xb8>
    8458:	e5900004 	ldr	r0, [r0, #4]
    845c:	e3500000 	cmp	r0, #0
    8460:	1a000006 	bne	8480 <ckfree+0x40>
    8464:	eb000355 	bl	91c0 <rpi_reset_putc>
    8468:	e59f008c 	ldr	r0, [pc, #140]	; 84fc <ckfree+0xbc>
    846c:	e59f108c 	ldr	r1, [pc, #140]	; 8500 <ckfree+0xc0>
    8470:	e59f208c 	ldr	r2, [pc, #140]	; 8504 <ckfree+0xc4>
    8474:	e3a0305a 	mov	r3, #90	; 0x5a
    8478:	eb000335 	bl	9154 <printk>
    847c:	eb0004a9 	bl	9728 <clean_reboot>
    8480:	e59f0080 	ldr	r0, [pc, #128]	; 8508 <ckfree+0xc8>
    8484:	eb000332 	bl	9154 <printk>
    8488:	e59f007c 	ldr	r0, [pc, #124]	; 850c <ckfree+0xcc>
    848c:	e1a01004 	mov	r1, r4
    8490:	eb00032f 	bl	9154 <printk>
    8494:	e24450b8 	sub	r5, r4, #184	; 0xb8
    8498:	e1a00005 	mov	r0, r5
    849c:	ebffffa9 	bl	8348 <check_block>
    84a0:	e3500000 	cmp	r0, #0
    84a4:	08bd81f0 	popeq	{r4, r5, r6, r7, r8, pc}
    84a8:	e51430b0 	ldr	r3, [r4, #-176]	; 0xb0
    84ac:	e353000c 	cmp	r3, #12
    84b0:	08bd81f0 	popeq	{r4, r5, r6, r7, r8, pc}
    84b4:	e3a0300c 	mov	r3, #12
    84b8:	e50430b0 	str	r3, [r4, #-176]	; 0xb0
    84bc:	e1a00004 	mov	r0, r4
    84c0:	e51410b8 	ldr	r1, [r4, #-184]	; 0xb8
    84c4:	ebffff6a 	bl	8274 <mark_mem>
    84c8:	e504809c 	str	r8, [r4, #-156]	; 0x9c
    84cc:	e5047098 	str	r7, [r4, #-152]	; 0x98
    84d0:	e5046094 	str	r6, [r4, #-148]	; 0x94
    84d4:	e51420b8 	ldr	r2, [r4, #-184]	; 0xb8
    84d8:	e59f3018 	ldr	r3, [pc, #24]	; 84f8 <ckfree+0xb8>
    84dc:	e5931014 	ldr	r1, [r3, #20]
    84e0:	e0812002 	add	r2, r1, r2
    84e4:	e5832014 	str	r2, [r3, #20]
    84e8:	e1a00005 	mov	r0, r5
    84ec:	ebffff65 	bl	8288 <hdr_cksum>
    84f0:	e50400ac 	str	r0, [r4, #-172]	; 0xac
    84f4:	e8bd81f0 	pop	{r4, r5, r6, r7, r8, pc}
    84f8:	0000a88c 	andeq	sl, r0, ip, lsl #17
    84fc:	00009fb4 			; <UNDEFINED> instruction: 0x00009fb4
    8500:	00009f28 	andeq	r9, r0, r8, lsr #30
    8504:	00009e40 	andeq	r9, r0, r0, asr #28
    8508:	00009d44 	andeq	r9, r0, r4, asr #26
    850c:	00009fe8 	andeq	r9, r0, r8, ror #31

00008510 <ckalloc>:
    8510:	e92d43f0 	push	{r4, r5, r6, r7, r8, r9, lr}
    8514:	e24dd00c 	sub	sp, sp, #12
    8518:	e1a05000 	mov	r5, r0
    851c:	e1a09001 	mov	r9, r1
    8520:	e1a08002 	mov	r8, r2
    8524:	e1a07003 	mov	r7, r3
    8528:	e59f31d4 	ldr	r3, [pc, #468]	; 8704 <ckalloc+0x1f4>
    852c:	e5933004 	ldr	r3, [r3, #4]
    8530:	e3530000 	cmp	r3, #0
    8534:	1a000006 	bne	8554 <ckalloc+0x44>
    8538:	eb000320 	bl	91c0 <rpi_reset_putc>
    853c:	e59f01c4 	ldr	r0, [pc, #452]	; 8708 <ckalloc+0x1f8>
    8540:	e59f11c4 	ldr	r1, [pc, #452]	; 870c <ckalloc+0x1fc>
    8544:	e59f21c4 	ldr	r2, [pc, #452]	; 8710 <ckalloc+0x200>
    8548:	e3a03078 	mov	r3, #120	; 0x78
    854c:	eb000300 	bl	9154 <printk>
    8550:	eb000474 	bl	9728 <clean_reboot>
    8554:	e59f01b8 	ldr	r0, [pc, #440]	; 8714 <ckalloc+0x204>
    8558:	eb0002fd 	bl	9154 <printk>
    855c:	e59f01b4 	ldr	r0, [pc, #436]	; 8718 <ckalloc+0x208>
    8560:	e1a01005 	mov	r1, r5
    8564:	eb0002fa 	bl	9154 <printk>
    8568:	e2852007 	add	r2, r5, #7
    856c:	e3c22007 	bic	r2, r2, #7
    8570:	e2826f4e 	add	r6, r2, #312	; 0x138
    8574:	e1560005 	cmp	r6, r5
    8578:	2a00000c 	bcs	85b0 <ckalloc+0xa0>
    857c:	e59f0198 	ldr	r0, [pc, #408]	; 871c <ckalloc+0x20c>
    8580:	eb0002f3 	bl	9154 <printk>
    8584:	e59f0194 	ldr	r0, [pc, #404]	; 8720 <ckalloc+0x210>
    8588:	e1a01005 	mov	r1, r5
    858c:	eb0002f0 	bl	9154 <printk>
    8590:	eb00030a 	bl	91c0 <rpi_reset_putc>
    8594:	e58d5000 	str	r5, [sp]
    8598:	e59f0184 	ldr	r0, [pc, #388]	; 8724 <ckalloc+0x214>
    859c:	e59f1168 	ldr	r1, [pc, #360]	; 870c <ckalloc+0x1fc>
    85a0:	e59f2168 	ldr	r2, [pc, #360]	; 8710 <ckalloc+0x200>
    85a4:	e3a03080 	mov	r3, #128	; 0x80
    85a8:	eb0002e9 	bl	9154 <printk>
    85ac:	eb00045d 	bl	9728 <clean_reboot>
    85b0:	e59f314c 	ldr	r3, [pc, #332]	; 8704 <ckalloc+0x1f4>
    85b4:	e5934004 	ldr	r4, [r3, #4]
    85b8:	e084c006 	add	ip, r4, r6
    85bc:	e5933008 	ldr	r3, [r3, #8]
    85c0:	e15c0003 	cmp	ip, r3
    85c4:	3a000014 	bcc	861c <ckalloc+0x10c>
    85c8:	e59f014c 	ldr	r0, [pc, #332]	; 871c <ckalloc+0x20c>
    85cc:	eb0002e0 	bl	9154 <printk>
    85d0:	e59f412c 	ldr	r4, [pc, #300]	; 8704 <ckalloc+0x1f4>
    85d4:	e5941008 	ldr	r1, [r4, #8]
    85d8:	e5943004 	ldr	r3, [r4, #4]
    85dc:	e59f0144 	ldr	r0, [pc, #324]	; 8728 <ckalloc+0x218>
    85e0:	e0631001 	rsb	r1, r3, r1
    85e4:	e1a02006 	mov	r2, r6
    85e8:	eb0002d9 	bl	9154 <printk>
    85ec:	eb0002f3 	bl	91c0 <rpi_reset_putc>
    85f0:	e5942008 	ldr	r2, [r4, #8]
    85f4:	e5943004 	ldr	r3, [r4, #4]
    85f8:	e0633002 	rsb	r3, r3, r2
    85fc:	e58d3000 	str	r3, [sp]
    8600:	e58d6004 	str	r6, [sp, #4]
    8604:	e59f0120 	ldr	r0, [pc, #288]	; 872c <ckalloc+0x21c>
    8608:	e59f10fc 	ldr	r1, [pc, #252]	; 870c <ckalloc+0x1fc>
    860c:	e59f20fc 	ldr	r2, [pc, #252]	; 8710 <ckalloc+0x200>
    8610:	e3a03084 	mov	r3, #132	; 0x84
    8614:	eb0002ce 	bl	9154 <printk>
    8618:	eb000442 	bl	9728 <clean_reboot>
    861c:	e59f00e0 	ldr	r0, [pc, #224]	; 8704 <ckalloc+0x1f4>
    8620:	e580c004 	str	ip, [r0, #4]
    8624:	e5845000 	str	r5, [r4]
    8628:	e0652002 	rsb	r2, r5, r2
    862c:	e5842004 	str	r2, [r4, #4]
    8630:	e3a0300b 	mov	r3, #11
    8634:	e5843008 	str	r3, [r4, #8]
    8638:	e5903018 	ldr	r3, [r0, #24]
    863c:	e0833005 	add	r3, r3, r5
    8640:	e5803018 	str	r3, [r0, #24]
    8644:	e580c010 	str	ip, [r0, #16]
    8648:	e5849010 	str	r9, [r4, #16]
    864c:	e5848014 	str	r8, [r4, #20]
    8650:	e5847018 	str	r7, [r4, #24]
    8654:	e1a00004 	mov	r0, r4
    8658:	ebffff0a 	bl	8288 <hdr_cksum>
    865c:	e584000c 	str	r0, [r4, #12]
    8660:	e2840038 	add	r0, r4, #56	; 0x38
    8664:	e3a01080 	mov	r1, #128	; 0x80
    8668:	ebffff01 	bl	8274 <mark_mem>
    866c:	e28470b8 	add	r7, r4, #184	; 0xb8
    8670:	e5940000 	ldr	r0, [r4]
    8674:	e5941004 	ldr	r1, [r4, #4]
    8678:	e0870000 	add	r0, r7, r0
    867c:	e2811080 	add	r1, r1, #128	; 0x80
    8680:	ebfffefb 	bl	8274 <mark_mem>
    8684:	e1a00004 	mov	r0, r4
    8688:	ebffff10 	bl	82d0 <check_hdr>
    868c:	e3500000 	cmp	r0, #0
    8690:	1a000006 	bne	86b0 <ckalloc+0x1a0>
    8694:	eb0002c9 	bl	91c0 <rpi_reset_putc>
    8698:	e59f0090 	ldr	r0, [pc, #144]	; 8730 <ckalloc+0x220>
    869c:	e59f1068 	ldr	r1, [pc, #104]	; 870c <ckalloc+0x1fc>
    86a0:	e59f2068 	ldr	r2, [pc, #104]	; 8710 <ckalloc+0x200>
    86a4:	e3a0309b 	mov	r3, #155	; 0x9b
    86a8:	eb0002a9 	bl	9154 <printk>
    86ac:	eb00041d 	bl	9728 <clean_reboot>
    86b0:	e1a00004 	mov	r0, r4
    86b4:	ebffff23 	bl	8348 <check_block>
    86b8:	e3500000 	cmp	r0, #0
    86bc:	1a000006 	bne	86dc <ckalloc+0x1cc>
    86c0:	eb0002be 	bl	91c0 <rpi_reset_putc>
    86c4:	e59f0068 	ldr	r0, [pc, #104]	; 8734 <ckalloc+0x224>
    86c8:	e59f103c 	ldr	r1, [pc, #60]	; 870c <ckalloc+0x1fc>
    86cc:	e59f203c 	ldr	r2, [pc, #60]	; 8710 <ckalloc+0x200>
    86d0:	e3a0309c 	mov	r3, #156	; 0x9c
    86d4:	eb00029e 	bl	9154 <printk>
    86d8:	eb000412 	bl	9728 <clean_reboot>
    86dc:	e59f0030 	ldr	r0, [pc, #48]	; 8714 <ckalloc+0x204>
    86e0:	eb00029b 	bl	9154 <printk>
    86e4:	e59f004c 	ldr	r0, [pc, #76]	; 8738 <ckalloc+0x228>
    86e8:	e1a01005 	mov	r1, r5
    86ec:	e1a02006 	mov	r2, r6
    86f0:	e1a03007 	mov	r3, r7
    86f4:	eb000296 	bl	9154 <printk>
    86f8:	e1a00007 	mov	r0, r7
    86fc:	e28dd00c 	add	sp, sp, #12
    8700:	e8bd83f0 	pop	{r4, r5, r6, r7, r8, r9, pc}
    8704:	0000a88c 	andeq	sl, r0, ip, lsl #17
    8708:	00009fb4 			; <UNDEFINED> instruction: 0x00009fb4
    870c:	00009f28 	andeq	r9, r0, r8, lsr #30
    8710:	00009e48 	andeq	r9, r0, r8, asr #28
    8714:	00009d44 	andeq	r9, r0, r4, asr #26
    8718:	00009ff4 	strdeq	r9, [r0], -r4
    871c:	0000a00c 	andeq	sl, r0, ip
    8720:	0000a018 	andeq	sl, r0, r8, lsl r0
    8724:	0000a040 	andeq	sl, r0, r0, asr #32
    8728:	0000a078 	andeq	sl, r0, r8, ror r0
    872c:	0000a0a4 	andeq	sl, r0, r4, lsr #1
    8730:	0000a0e0 	andeq	sl, r0, r0, ror #1
    8734:	0000a100 	andeq	sl, r0, r0, lsl #2
    8738:	0000a120 	andeq	sl, r0, r0, lsr #2

0000873c <ck_heap_errors>:
    873c:	e92d43f8 	push	{r3, r4, r5, r6, r7, r8, r9, lr}
    8740:	e59f413c 	ldr	r4, [pc, #316]	; 8884 <ck_heap_errors+0x148>
    8744:	e5943004 	ldr	r3, [r4, #4]
    8748:	e5946000 	ldr	r6, [r4]
    874c:	e0666003 	rsb	r6, r6, r3
    8750:	e5945008 	ldr	r5, [r4, #8]
    8754:	e0635005 	rsb	r5, r3, r5
    8758:	e59f0128 	ldr	r0, [pc, #296]	; 8888 <ck_heap_errors+0x14c>
    875c:	eb00027c 	bl	9154 <printk>
    8760:	e59f0124 	ldr	r0, [pc, #292]	; 888c <ck_heap_errors+0x150>
    8764:	e1a01006 	mov	r1, r6
    8768:	e1a02005 	mov	r2, r5
    876c:	eb000278 	bl	9154 <printk>
    8770:	e5944000 	ldr	r4, [r4]
    8774:	e3a05000 	mov	r5, #0
    8778:	e1a06005 	mov	r6, r5
    877c:	e59f7100 	ldr	r7, [pc, #256]	; 8884 <ck_heap_errors+0x148>
    8780:	e59f9100 	ldr	r9, [pc, #256]	; 8888 <ck_heap_errors+0x14c>
    8784:	e59f8104 	ldr	r8, [pc, #260]	; 8890 <ck_heap_errors+0x154>
    8788:	ea00002a 	b	8838 <ck_heap_errors+0xfc>
    878c:	e1540003 	cmp	r4, r3
    8790:	3a000006 	bcc	87b0 <ck_heap_errors+0x74>
    8794:	eb000289 	bl	91c0 <rpi_reset_putc>
    8798:	e59f00f4 	ldr	r0, [pc, #244]	; 8894 <ck_heap_errors+0x158>
    879c:	e59f10f4 	ldr	r1, [pc, #244]	; 8898 <ck_heap_errors+0x15c>
    87a0:	e59f20f4 	ldr	r2, [pc, #244]	; 889c <ck_heap_errors+0x160>
    87a4:	e3a030af 	mov	r3, #175	; 0xaf
    87a8:	eb000269 	bl	9154 <printk>
    87ac:	eb0003dd 	bl	9728 <clean_reboot>
    87b0:	e1a00004 	mov	r0, r4
    87b4:	ebfffec5 	bl	82d0 <check_hdr>
    87b8:	e3500000 	cmp	r0, #0
    87bc:	1a000005 	bne	87d8 <ck_heap_errors+0x9c>
    87c0:	e59f00c0 	ldr	r0, [pc, #192]	; 8888 <ck_heap_errors+0x14c>
    87c4:	eb000262 	bl	9154 <printk>
    87c8:	e59f00d0 	ldr	r0, [pc, #208]	; 88a0 <ck_heap_errors+0x164>
    87cc:	eb000260 	bl	9154 <printk>
    87d0:	e2866001 	add	r6, r6, #1
    87d4:	ea00001a 	b	8844 <ck_heap_errors+0x108>
    87d8:	e1a00004 	mov	r0, r4
    87dc:	ebfffed9 	bl	8348 <check_block>
    87e0:	e3500000 	cmp	r0, #0
    87e4:	02866001 	addeq	r6, r6, #1
    87e8:	e5943008 	ldr	r3, [r4, #8]
    87ec:	e353000c 	cmp	r3, #12
    87f0:	1a00000a 	bne	8820 <ck_heap_errors+0xe4>
    87f4:	e1a00004 	mov	r0, r4
    87f8:	e28410b8 	add	r1, r4, #184	; 0xb8
    87fc:	e5942000 	ldr	r2, [r4]
    8800:	ebfffe5b 	bl	8174 <check_mem>
    8804:	e3500000 	cmp	r0, #0
    8808:	1a000004 	bne	8820 <ck_heap_errors+0xe4>
    880c:	e1a00009 	mov	r0, r9
    8810:	eb00024f 	bl	9154 <printk>
    8814:	e1a00008 	mov	r0, r8
    8818:	eb00024d 	bl	9154 <printk>
    881c:	e2866001 	add	r6, r6, #1
    8820:	e5942000 	ldr	r2, [r4]
    8824:	e5943004 	ldr	r3, [r4, #4]
    8828:	e0823003 	add	r3, r2, r3
    882c:	e2833f4e 	add	r3, r3, #312	; 0x138
    8830:	e0844003 	add	r4, r4, r3
    8834:	e2855001 	add	r5, r5, #1
    8838:	e5973004 	ldr	r3, [r7, #4]
    883c:	e1530004 	cmp	r3, r4
    8840:	1affffd1 	bne	878c <ck_heap_errors+0x50>
    8844:	e3560000 	cmp	r6, #0
    8848:	0a000006 	beq	8868 <ck_heap_errors+0x12c>
    884c:	e59f0034 	ldr	r0, [pc, #52]	; 8888 <ck_heap_errors+0x14c>
    8850:	eb00023f 	bl	9154 <printk>
    8854:	e59f0048 	ldr	r0, [pc, #72]	; 88a4 <ck_heap_errors+0x168>
    8858:	e1a01005 	mov	r1, r5
    885c:	e1a02006 	mov	r2, r6
    8860:	eb00023b 	bl	9154 <printk>
    8864:	ea000004 	b	887c <ck_heap_errors+0x140>
    8868:	e59f0018 	ldr	r0, [pc, #24]	; 8888 <ck_heap_errors+0x14c>
    886c:	eb000238 	bl	9154 <printk>
    8870:	e59f0030 	ldr	r0, [pc, #48]	; 88a8 <ck_heap_errors+0x16c>
    8874:	e1a01005 	mov	r1, r5
    8878:	eb000235 	bl	9154 <printk>
    887c:	e1a00006 	mov	r0, r6
    8880:	e8bd83f8 	pop	{r3, r4, r5, r6, r7, r8, r9, pc}
    8884:	0000a88c 	andeq	sl, r0, ip, lsl #17
    8888:	00009d44 	andeq	r9, r0, r4, asr #26
    888c:	0000a150 	andeq	sl, r0, r0, asr r1
    8890:	0000a1c0 	andeq	sl, r0, r0, asr #3
    8894:	0000a188 	andeq	sl, r0, r8, lsl #3
    8898:	00009f28 	andeq	r9, r0, r8, lsr #30
    889c:	00009e50 	andeq	r9, r0, r0, asr lr
    88a0:	0000a1ac 	andeq	sl, r0, ip, lsr #3
    88a4:	0000a1dc 	ldrdeq	sl, [r0], -ip
    88a8:	0000a204 	andeq	sl, r0, r4, lsl #4

000088ac <ck_first_hdr>:
    88ac:	e92d4010 	push	{r4, lr}
    88b0:	e59f3034 	ldr	r3, [pc, #52]	; 88ec <ck_first_hdr+0x40>
    88b4:	e5934000 	ldr	r4, [r3]
    88b8:	e1a00004 	mov	r0, r4
    88bc:	ebfffe83 	bl	82d0 <check_hdr>
    88c0:	e3500000 	cmp	r0, #0
    88c4:	1a000006 	bne	88e4 <ck_first_hdr+0x38>
    88c8:	eb00023c 	bl	91c0 <rpi_reset_putc>
    88cc:	e59f001c 	ldr	r0, [pc, #28]	; 88f0 <ck_first_hdr+0x44>
    88d0:	e59f101c 	ldr	r1, [pc, #28]	; 88f4 <ck_first_hdr+0x48>
    88d4:	e59f201c 	ldr	r2, [pc, #28]	; 88f8 <ck_first_hdr+0x4c>
    88d8:	e3a030d2 	mov	r3, #210	; 0xd2
    88dc:	eb00021c 	bl	9154 <printk>
    88e0:	eb000390 	bl	9728 <clean_reboot>
    88e4:	e1a00004 	mov	r0, r4
    88e8:	e8bd8010 	pop	{r4, pc}
    88ec:	0000a88c 	andeq	sl, r0, ip, lsl #17
    88f0:	0000a234 	andeq	sl, r0, r4, lsr r2
    88f4:	00009f28 	andeq	r9, r0, r8, lsr #30
    88f8:	00009e60 	andeq	r9, r0, r0, ror #28

000088fc <ck_next_hdr>:
    88fc:	e92d4010 	push	{r4, lr}
    8900:	e5904000 	ldr	r4, [r0]
    8904:	e5903004 	ldr	r3, [r0, #4]
    8908:	e0844003 	add	r4, r4, r3
    890c:	e2844f4e 	add	r4, r4, #312	; 0x138
    8910:	e0804004 	add	r4, r0, r4
    8914:	e59f3064 	ldr	r3, [pc, #100]	; 8980 <ck_next_hdr+0x84>
    8918:	e5933004 	ldr	r3, [r3, #4]
    891c:	e1540003 	cmp	r4, r3
    8920:	0a000012 	beq	8970 <ck_next_hdr+0x74>
    8924:	3a000006 	bcc	8944 <ck_next_hdr+0x48>
    8928:	eb000224 	bl	91c0 <rpi_reset_putc>
    892c:	e59f0050 	ldr	r0, [pc, #80]	; 8984 <ck_next_hdr+0x88>
    8930:	e59f1050 	ldr	r1, [pc, #80]	; 8988 <ck_next_hdr+0x8c>
    8934:	e59f2050 	ldr	r2, [pc, #80]	; 898c <ck_next_hdr+0x90>
    8938:	e3a030e1 	mov	r3, #225	; 0xe1
    893c:	eb000204 	bl	9154 <printk>
    8940:	eb000378 	bl	9728 <clean_reboot>
    8944:	e1a00004 	mov	r0, r4
    8948:	ebfffe60 	bl	82d0 <check_hdr>
    894c:	e3500000 	cmp	r0, #0
    8950:	1a000008 	bne	8978 <ck_next_hdr+0x7c>
    8954:	eb000219 	bl	91c0 <rpi_reset_putc>
    8958:	e59f0030 	ldr	r0, [pc, #48]	; 8990 <ck_next_hdr+0x94>
    895c:	e59f1024 	ldr	r1, [pc, #36]	; 8988 <ck_next_hdr+0x8c>
    8960:	e59f2024 	ldr	r2, [pc, #36]	; 898c <ck_next_hdr+0x90>
    8964:	e3a030e2 	mov	r3, #226	; 0xe2
    8968:	eb0001f9 	bl	9154 <printk>
    896c:	eb00036d 	bl	9728 <clean_reboot>
    8970:	e3a00000 	mov	r0, #0
    8974:	e8bd8010 	pop	{r4, pc}
    8978:	e1a00004 	mov	r0, r4
    897c:	e8bd8010 	pop	{r4, pc}
    8980:	0000a88c 	andeq	sl, r0, ip, lsl #17
    8984:	0000a258 	andeq	sl, r0, r8, asr r2
    8988:	00009f28 	andeq	r9, r0, r8, lsr #30
    898c:	00009e70 	andeq	r9, r0, r0, ror lr
    8990:	0000a284 	andeq	sl, r0, r4, lsl #5

00008994 <heap_info>:
    8994:	e1a0c000 	mov	ip, r0
    8998:	e59f300c 	ldr	r3, [pc, #12]	; 89ac <heap_info+0x18>
    899c:	e893000f 	ldm	r3, {r0, r1, r2, r3}
    89a0:	e88c000f 	stm	ip, {r0, r1, r2, r3}
    89a4:	e1a0000c 	mov	r0, ip
    89a8:	e12fff1e 	bx	lr
    89ac:	0000a898 	muleq	r0, r8, r8

000089b0 <in_heap>:
    89b0:	e59f3030 	ldr	r3, [pc, #48]	; 89e8 <in_heap+0x38>
    89b4:	e5933000 	ldr	r3, [r3]
    89b8:	e1530000 	cmp	r3, r0
    89bc:	8a000005 	bhi	89d8 <in_heap+0x28>
    89c0:	e59f3020 	ldr	r3, [pc, #32]	; 89e8 <in_heap+0x38>
    89c4:	e5933004 	ldr	r3, [r3, #4]
    89c8:	e1530000 	cmp	r3, r0
    89cc:	2a000003 	bcs	89e0 <in_heap+0x30>
    89d0:	e3a00000 	mov	r0, #0
    89d4:	e12fff1e 	bx	lr
    89d8:	e3a00000 	mov	r0, #0
    89dc:	e12fff1e 	bx	lr
    89e0:	e3a00001 	mov	r0, #1
    89e4:	e12fff1e 	bx	lr
    89e8:	0000a8a8 	andeq	sl, r0, r8, lsr #17

000089ec <is_ptr>:
    89ec:	e92d4010 	push	{r4, lr}
    89f0:	e1a04000 	mov	r4, r0
    89f4:	ebffffed 	bl	89b0 <in_heap>
    89f8:	e3500000 	cmp	r0, #0
    89fc:	0a000016 	beq	8a5c <is_ptr+0x70>
    8a00:	ebffffa9 	bl	88ac <ck_first_hdr>
    8a04:	ea000011 	b	8a50 <is_ptr+0x64>
    8a08:	e28030b8 	add	r3, r0, #184	; 0xb8
    8a0c:	e1530004 	cmp	r3, r4
    8a10:	1a000003 	bne	8a24 <is_ptr+0x38>
    8a14:	e5903028 	ldr	r3, [r0, #40]	; 0x28
    8a18:	e2833001 	add	r3, r3, #1
    8a1c:	e5803028 	str	r3, [r0, #40]	; 0x28
    8a20:	e8bd8010 	pop	{r4, pc}
    8a24:	e1540003 	cmp	r4, r3
    8a28:	9a000007 	bls	8a4c <is_ptr+0x60>
    8a2c:	e5902000 	ldr	r2, [r0]
    8a30:	e0833002 	add	r3, r3, r2
    8a34:	e1530004 	cmp	r3, r4
    8a38:	3a000003 	bcc	8a4c <is_ptr+0x60>
    8a3c:	e590302c 	ldr	r3, [r0, #44]	; 0x2c
    8a40:	e2833001 	add	r3, r3, #1
    8a44:	e580302c 	str	r3, [r0, #44]	; 0x2c
    8a48:	e8bd8010 	pop	{r4, pc}
    8a4c:	ebffffaa 	bl	88fc <ck_next_hdr>
    8a50:	e3500000 	cmp	r0, #0
    8a54:	1affffeb 	bne	8a08 <is_ptr+0x1c>
    8a58:	e8bd8010 	pop	{r4, pc}
    8a5c:	e3a00000 	mov	r0, #0
    8a60:	e8bd8010 	pop	{r4, pc}

00008a64 <sweep_leak>:
    8a64:	e92d4ff8 	push	{r3, r4, r5, r6, r7, r8, r9, sl, fp, lr}
    8a68:	e1a09000 	mov	r9, r0
    8a6c:	e59f0100 	ldr	r0, [pc, #256]	; 8b74 <sweep_leak+0x110>
    8a70:	eb0001b7 	bl	9154 <printk>
    8a74:	e59f00fc 	ldr	r0, [pc, #252]	; 8b78 <sweep_leak+0x114>
    8a78:	eb0001b5 	bl	9154 <printk>
    8a7c:	ebffff8a 	bl	88ac <ck_first_hdr>
    8a80:	e1a04000 	mov	r4, r0
    8a84:	e3a06000 	mov	r6, #0
    8a88:	e1a07006 	mov	r7, r6
    8a8c:	e1a05006 	mov	r5, r6
    8a90:	e1a08006 	mov	r8, r6
    8a94:	e59fa0e0 	ldr	sl, [pc, #224]	; 8b7c <sweep_leak+0x118>
    8a98:	e59fb0e0 	ldr	fp, [pc, #224]	; 8b80 <sweep_leak+0x11c>
    8a9c:	ea00001c 	b	8b14 <sweep_leak+0xb0>
    8aa0:	e5943008 	ldr	r3, [r4, #8]
    8aa4:	e353000b 	cmp	r3, #11
    8aa8:	1a000015 	bne	8b04 <sweep_leak+0xa0>
    8aac:	e1d433b4 	ldrh	r3, [r4, #52]	; 0x34
    8ab0:	e3530000 	cmp	r3, #0
    8ab4:	1a000006 	bne	8ad4 <sweep_leak+0x70>
    8ab8:	e1a0000a 	mov	r0, sl
    8abc:	eb0001a4 	bl	9154 <printk>
    8ac0:	e1a0000b 	mov	r0, fp
    8ac4:	e28410b8 	add	r1, r4, #184	; 0xb8
    8ac8:	eb0001a1 	bl	9154 <printk>
    8acc:	e2877001 	add	r7, r7, #1
    8ad0:	ea00000b 	b	8b04 <sweep_leak+0xa0>
    8ad4:	e1c483b4 	strh	r8, [r4, #52]	; 0x34
    8ad8:	e3590000 	cmp	r9, #0
    8adc:	0a000008 	beq	8b04 <sweep_leak+0xa0>
    8ae0:	e5943028 	ldr	r3, [r4, #40]	; 0x28
    8ae4:	e3530000 	cmp	r3, #0
    8ae8:	1a000005 	bne	8b04 <sweep_leak+0xa0>
    8aec:	e1a0000a 	mov	r0, sl
    8af0:	eb000197 	bl	9154 <printk>
    8af4:	e59f0088 	ldr	r0, [pc, #136]	; 8b84 <sweep_leak+0x120>
    8af8:	e28410b8 	add	r1, r4, #184	; 0xb8
    8afc:	eb000194 	bl	9154 <printk>
    8b00:	e2866001 	add	r6, r6, #1
    8b04:	e2855001 	add	r5, r5, #1
    8b08:	e1a00004 	mov	r0, r4
    8b0c:	ebffff7a 	bl	88fc <ck_next_hdr>
    8b10:	e1a04000 	mov	r4, r0
    8b14:	e3540000 	cmp	r4, #0
    8b18:	1affffe0 	bne	8aa0 <sweep_leak+0x3c>
    8b1c:	e59f0058 	ldr	r0, [pc, #88]	; 8b7c <sweep_leak+0x118>
    8b20:	eb00018b 	bl	9154 <printk>
    8b24:	e59f005c 	ldr	r0, [pc, #92]	; 8b88 <sweep_leak+0x124>
    8b28:	e1a01005 	mov	r1, r5
    8b2c:	eb000188 	bl	9154 <printk>
    8b30:	e1973006 	orrs	r3, r7, r6
    8b34:	1a000004 	bne	8b4c <sweep_leak+0xe8>
    8b38:	e59f003c 	ldr	r0, [pc, #60]	; 8b7c <sweep_leak+0x118>
    8b3c:	eb000184 	bl	9154 <printk>
    8b40:	e59f0044 	ldr	r0, [pc, #68]	; 8b8c <sweep_leak+0x128>
    8b44:	eb000182 	bl	9154 <printk>
    8b48:	ea000005 	b	8b64 <sweep_leak+0x100>
    8b4c:	e59f0028 	ldr	r0, [pc, #40]	; 8b7c <sweep_leak+0x118>
    8b50:	eb00017f 	bl	9154 <printk>
    8b54:	e59f0034 	ldr	r0, [pc, #52]	; 8b90 <sweep_leak+0x12c>
    8b58:	e1a01007 	mov	r1, r7
    8b5c:	e1a02006 	mov	r2, r6
    8b60:	eb00017b 	bl	9154 <printk>
    8b64:	e59f0028 	ldr	r0, [pc, #40]	; 8b94 <sweep_leak+0x130>
    8b68:	eb000179 	bl	9154 <printk>
    8b6c:	e0870006 	add	r0, r7, r6
    8b70:	e8bd8ff8 	pop	{r3, r4, r5, r6, r7, r8, r9, sl, fp, pc}
    8b74:	0000a2fc 	strdeq	sl, [r0], -ip
    8b78:	0000a338 	andeq	sl, r0, r8, lsr r3
    8b7c:	00009d44 	andeq	r9, r0, r4, asr #26
    8b80:	0000a350 	andeq	sl, r0, r0, asr r3
    8b84:	0000a370 	andeq	sl, r0, r0, ror r3
    8b88:	0000a3a8 	andeq	sl, r0, r8, lsr #7
    8b8c:	0000a3c0 	andeq	sl, r0, r0, asr #7
    8b90:	0000a3e0 	andeq	sl, r0, r0, ror #7
    8b94:	0000a40c 	andeq	sl, r0, ip, lsl #8

00008b98 <mark>:
    8b98:	e92d4070 	push	{r4, r5, r6, lr}
    8b9c:	e1a04000 	mov	r4, r0
    8ba0:	e1a05001 	mov	r5, r1
    8ba4:	e1500001 	cmp	r0, r1
    8ba8:	3a000006 	bcc	8bc8 <mark+0x30>
    8bac:	eb000183 	bl	91c0 <rpi_reset_putc>
    8bb0:	e59f00c4 	ldr	r0, [pc, #196]	; 8c7c <mark+0xe4>
    8bb4:	e59f10c4 	ldr	r1, [pc, #196]	; 8c80 <mark+0xe8>
    8bb8:	e59f20c4 	ldr	r2, [pc, #196]	; 8c84 <mark+0xec>
    8bbc:	e3a0305b 	mov	r3, #91	; 0x5b
    8bc0:	eb000163 	bl	9154 <printk>
    8bc4:	eb0002d7 	bl	9728 <clean_reboot>
    8bc8:	e3100003 	tst	r0, #3
    8bcc:	0a000006 	beq	8bec <mark+0x54>
    8bd0:	eb00017a 	bl	91c0 <rpi_reset_putc>
    8bd4:	e59f00ac 	ldr	r0, [pc, #172]	; 8c88 <mark+0xf0>
    8bd8:	e59f10a0 	ldr	r1, [pc, #160]	; 8c80 <mark+0xe8>
    8bdc:	e59f20a0 	ldr	r2, [pc, #160]	; 8c84 <mark+0xec>
    8be0:	e3a0305d 	mov	r3, #93	; 0x5d
    8be4:	eb00015a 	bl	9154 <printk>
    8be8:	eb0002ce 	bl	9728 <clean_reboot>
    8bec:	e3110003 	tst	r1, #3
    8bf0:	0a00001d 	beq	8c6c <mark+0xd4>
    8bf4:	eb000171 	bl	91c0 <rpi_reset_putc>
    8bf8:	e59f008c 	ldr	r0, [pc, #140]	; 8c8c <mark+0xf4>
    8bfc:	e59f107c 	ldr	r1, [pc, #124]	; 8c80 <mark+0xe8>
    8c00:	e59f207c 	ldr	r2, [pc, #124]	; 8c84 <mark+0xec>
    8c04:	e3a0305e 	mov	r3, #94	; 0x5e
    8c08:	eb000151 	bl	9154 <printk>
    8c0c:	eb0002c5 	bl	9728 <clean_reboot>
    8c10:	e5940000 	ldr	r0, [r4]
    8c14:	ebffff74 	bl	89ec <is_ptr>
    8c18:	e2503000 	subs	r3, r0, #0
    8c1c:	0a000010 	beq	8c64 <mark+0xcc>
    8c20:	e5940000 	ldr	r0, [r4]
    8c24:	e28320b8 	add	r2, r3, #184	; 0xb8
    8c28:	e1500002 	cmp	r0, r2
    8c2c:	05931028 	ldreq	r1, [r3, #40]	; 0x28
    8c30:	02811001 	addeq	r1, r1, #1
    8c34:	05831028 	streq	r1, [r3, #40]	; 0x28
    8c38:	1593102c 	ldrne	r1, [r3, #44]	; 0x2c
    8c3c:	12811001 	addne	r1, r1, #1
    8c40:	1583102c 	strne	r1, [r3, #44]	; 0x2c
    8c44:	e1d303b4 	ldrh	r0, [r3, #52]	; 0x34
    8c48:	e3500000 	cmp	r0, #0
    8c4c:	1a000004 	bne	8c64 <mark+0xcc>
    8c50:	e1c363b4 	strh	r6, [r3, #52]	; 0x34
    8c54:	e5931000 	ldr	r1, [r3]
    8c58:	e1a00002 	mov	r0, r2
    8c5c:	e0821001 	add	r1, r2, r1
    8c60:	ebffffcc 	bl	8b98 <mark>
    8c64:	e2844004 	add	r4, r4, #4
    8c68:	ea000000 	b	8c70 <mark+0xd8>
    8c6c:	e3a06001 	mov	r6, #1
    8c70:	e1540005 	cmp	r4, r5
    8c74:	1affffe5 	bne	8c10 <mark+0x78>
    8c78:	e8bd8070 	pop	{r4, r5, r6, pc}
    8c7c:	0000a448 	andeq	sl, r0, r8, asr #8
    8c80:	0000a45c 	andeq	sl, r0, ip, asr r4
    8c84:	0000a2a8 	andeq	sl, r0, r8, lsr #5
    8c88:	0000a464 	andeq	sl, r0, r4, ror #8
    8c8c:	0000a484 	andeq	sl, r0, r4, lsl #9

00008c90 <mark_all>:
    8c90:	e92d4010 	push	{r4, lr}
    8c94:	e24dd050 	sub	sp, sp, #80	; 0x50
    8c98:	ebffff03 	bl	88ac <ck_first_hdr>
    8c9c:	e3a04000 	mov	r4, #0
    8ca0:	ea000003 	b	8cb4 <mark_all+0x24>
    8ca4:	e580402c 	str	r4, [r0, #44]	; 0x2c
    8ca8:	e5804028 	str	r4, [r0, #40]	; 0x28
    8cac:	e1c043b4 	strh	r4, [r0, #52]	; 0x34
    8cb0:	ebffff11 	bl	88fc <ck_next_hdr>
    8cb4:	e3500000 	cmp	r0, #0
    8cb8:	1afffff9 	bne	8ca4 <mark_all+0x14>
    8cbc:	e28d4040 	add	r4, sp, #64	; 0x40
    8cc0:	e1a00004 	mov	r0, r4
    8cc4:	ebffff32 	bl	8994 <heap_info>
    8cc8:	e59fc094 	ldr	ip, [pc, #148]	; 8d64 <mark_all+0xd4>
    8ccc:	e894000f 	ldm	r4, {r0, r1, r2, r3}
    8cd0:	e88c000f 	stm	ip, {r0, r1, r2, r3}
    8cd4:	e1a0400d 	mov	r4, sp
    8cd8:	e1a0000d 	mov	r0, sp
    8cdc:	eb0000d6 	bl	903c <dump_regs>
    8ce0:	e59d3000 	ldr	r3, [sp]
    8ce4:	e1530004 	cmp	r3, r4
    8ce8:	0a00000b 	beq	8d1c <mark_all+0x8c>
    8cec:	eb000133 	bl	91c0 <rpi_reset_putc>
    8cf0:	e59f0070 	ldr	r0, [pc, #112]	; 8d68 <mark_all+0xd8>
    8cf4:	e59f1070 	ldr	r1, [pc, #112]	; 8d6c <mark_all+0xdc>
    8cf8:	e59f2070 	ldr	r2, [pc, #112]	; 8d70 <mark_all+0xe0>
    8cfc:	e3a030df 	mov	r3, #223	; 0xdf
    8d00:	eb000113 	bl	9154 <printk>
    8d04:	eb000287 	bl	9728 <clean_reboot>
    8d08:	e28d0050 	add	r0, sp, #80	; 0x50
    8d0c:	e0802103 	add	r2, r0, r3, lsl #2
    8d10:	e5021050 	str	r1, [r2, #-80]	; 0x50
    8d14:	e2833001 	add	r3, r3, #1
    8d18:	ea000001 	b	8d24 <mark_all+0x94>
    8d1c:	e3a03000 	mov	r3, #0
    8d20:	e1a01003 	mov	r1, r3
    8d24:	e3530003 	cmp	r3, #3
    8d28:	dafffff6 	ble	8d08 <mark_all+0x78>
    8d2c:	e28d0010 	add	r0, sp, #16
    8d30:	e28d1038 	add	r1, sp, #56	; 0x38
    8d34:	ebffff97 	bl	8b98 <mark>
    8d38:	e59d0034 	ldr	r0, [sp, #52]	; 0x34
    8d3c:	e3a01302 	mov	r1, #134217728	; 0x8000000
    8d40:	ebffff94 	bl	8b98 <mark>
    8d44:	e59f0028 	ldr	r0, [pc, #40]	; 8d74 <mark_all+0xe4>
    8d48:	e59f1028 	ldr	r1, [pc, #40]	; 8d78 <mark_all+0xe8>
    8d4c:	ebffff91 	bl	8b98 <mark>
    8d50:	e59f0024 	ldr	r0, [pc, #36]	; 8d7c <mark_all+0xec>
    8d54:	e59f1024 	ldr	r1, [pc, #36]	; 8d80 <mark_all+0xf0>
    8d58:	ebffff8e 	bl	8b98 <mark>
    8d5c:	e28dd050 	add	sp, sp, #80	; 0x50
    8d60:	e8bd8010 	pop	{r4, pc}
    8d64:	0000a8a8 	andeq	sl, r0, r8, lsr #17
    8d68:	0000a4a4 	andeq	sl, r0, r4, lsr #9
    8d6c:	0000a45c 	andeq	sl, r0, ip, asr r4
    8d70:	0000a2b0 			; <UNDEFINED> instruction: 0x0000a2b0
    8d74:	0000a88c 	andeq	sl, r0, ip, lsl #17
    8d78:	0000acb8 			; <UNDEFINED> instruction: 0x0000acb8
    8d7c:	00009d10 	andeq	r9, r0, r0, lsl sp
    8d80:	00009d20 	andeq	r9, r0, r0, lsr #26

00008d84 <sweep_free>:
    8d84:	e92d4ff0 	push	{r4, r5, r6, r7, r8, r9, sl, fp, lr}
    8d88:	e24dd014 	sub	sp, sp, #20
    8d8c:	e59f00e8 	ldr	r0, [pc, #232]	; 8e7c <sweep_free+0xf8>
    8d90:	eb0000ef 	bl	9154 <printk>
    8d94:	e59f00e4 	ldr	r0, [pc, #228]	; 8e80 <sweep_free+0xfc>
    8d98:	eb0000ed 	bl	9154 <printk>
    8d9c:	ebfffec2 	bl	88ac <ck_first_hdr>
    8da0:	e1a04000 	mov	r4, r0
    8da4:	e3a06000 	mov	r6, #0
    8da8:	e1a08006 	mov	r8, r6
    8dac:	e1a05006 	mov	r5, r6
    8db0:	e59fb0cc 	ldr	fp, [pc, #204]	; 8e84 <sweep_free+0x100>
    8db4:	e59fa0cc 	ldr	sl, [pc, #204]	; 8e88 <sweep_free+0x104>
    8db8:	e59f90cc 	ldr	r9, [pc, #204]	; 8e8c <sweep_free+0x108>
    8dbc:	ea000017 	b	8e20 <sweep_free+0x9c>
    8dc0:	e5943008 	ldr	r3, [r4, #8]
    8dc4:	e353000b 	cmp	r3, #11
    8dc8:	1a000010 	bne	8e10 <sweep_free+0x8c>
    8dcc:	e1d433b4 	ldrh	r3, [r4, #52]	; 0x34
    8dd0:	e3530000 	cmp	r3, #0
    8dd4:	1a00000d 	bne	8e10 <sweep_free+0x8c>
    8dd8:	e1a07004 	mov	r7, r4
    8ddc:	e49730b8 	ldr	r3, [r7], #184	; 0xb8
    8de0:	e0866003 	add	r6, r6, r3
    8de4:	e2888001 	add	r8, r8, #1
    8de8:	e1a0000b 	mov	r0, fp
    8dec:	eb0000d8 	bl	9154 <printk>
    8df0:	e1a0000a 	mov	r0, sl
    8df4:	e1a01007 	mov	r1, r7
    8df8:	eb0000d5 	bl	9154 <printk>
    8dfc:	e1a00007 	mov	r0, r7
    8e00:	e1a01009 	mov	r1, r9
    8e04:	e59f2084 	ldr	r2, [pc, #132]	; 8e90 <sweep_free+0x10c>
    8e08:	e59f3084 	ldr	r3, [pc, #132]	; 8e94 <sweep_free+0x110>
    8e0c:	ebfffd8b 	bl	8440 <ckfree>
    8e10:	e2855001 	add	r5, r5, #1
    8e14:	e1a00004 	mov	r0, r4
    8e18:	ebfffeb7 	bl	88fc <ck_next_hdr>
    8e1c:	e1a04000 	mov	r4, r0
    8e20:	e3540000 	cmp	r4, #0
    8e24:	1affffe5 	bne	8dc0 <sweep_free+0x3c>
    8e28:	e59f4054 	ldr	r4, [pc, #84]	; 8e84 <sweep_free+0x100>
    8e2c:	e1a00004 	mov	r0, r4
    8e30:	eb0000c7 	bl	9154 <printk>
    8e34:	e59f005c 	ldr	r0, [pc, #92]	; 8e98 <sweep_free+0x114>
    8e38:	e1a01005 	mov	r1, r5
    8e3c:	e1a02008 	mov	r2, r8
    8e40:	e1a03006 	mov	r3, r6
    8e44:	eb0000c2 	bl	9154 <printk>
    8e48:	e1a0000d 	mov	r0, sp
    8e4c:	ebfffed0 	bl	8994 <heap_info>
    8e50:	e1a00004 	mov	r0, r4
    8e54:	eb0000be 	bl	9154 <printk>
    8e58:	e59f003c 	ldr	r0, [pc, #60]	; 8e9c <sweep_free+0x118>
    8e5c:	e59d100c 	ldr	r1, [sp, #12]
    8e60:	e59d2008 	ldr	r2, [sp, #8]
    8e64:	eb0000ba 	bl	9154 <printk>
    8e68:	e59f0030 	ldr	r0, [pc, #48]	; 8ea0 <sweep_free+0x11c>
    8e6c:	eb0000b8 	bl	9154 <printk>
    8e70:	e1a00006 	mov	r0, r6
    8e74:	e28dd014 	add	sp, sp, #20
    8e78:	e8bd8ff0 	pop	{r4, r5, r6, r7, r8, r9, sl, fp, pc}
    8e7c:	0000a2fc 	strdeq	sl, [r0], -ip
    8e80:	0000a4d4 	ldrdeq	sl, [r0], -r4
    8e84:	00009d44 	andeq	r9, r0, r4, asr #26
    8e88:	0000a4e4 	andeq	sl, r0, r4, ror #9
    8e8c:	0000a45c 	andeq	sl, r0, ip, asr r4
    8e90:	0000a2bc 			; <UNDEFINED> instruction: 0x0000a2bc
    8e94:	0000013a 	andeq	r0, r0, sl, lsr r1
    8e98:	0000a4f8 	strdeq	sl, [r0], -r8
    8e9c:	0000a524 	andeq	sl, r0, r4, lsr #10
    8ea0:	0000a40c 	andeq	sl, r0, ip, lsl #8

00008ea4 <ck_find_leaks>:
    8ea4:	e92d4010 	push	{r4, lr}
    8ea8:	e1a04000 	mov	r4, r0
    8eac:	ebffff77 	bl	8c90 <mark_all>
    8eb0:	e1a00004 	mov	r0, r4
    8eb4:	ebfffeea 	bl	8a64 <sweep_leak>
    8eb8:	e8bd8010 	pop	{r4, pc}

00008ebc <check_no_leak>:
    8ebc:	e92d4008 	push	{r3, lr}
    8ec0:	ebfffe1d 	bl	873c <ck_heap_errors>
    8ec4:	e3500000 	cmp	r0, #0
    8ec8:	0a000006 	beq	8ee8 <check_no_leak+0x2c>
    8ecc:	eb0000bb 	bl	91c0 <rpi_reset_putc>
    8ed0:	e59f0060 	ldr	r0, [pc, #96]	; 8f38 <check_no_leak+0x7c>
    8ed4:	e59f1060 	ldr	r1, [pc, #96]	; 8f3c <check_no_leak+0x80>
    8ed8:	e59f2060 	ldr	r2, [pc, #96]	; 8f40 <check_no_leak+0x84>
    8edc:	e59f3060 	ldr	r3, [pc, #96]	; 8f44 <check_no_leak+0x88>
    8ee0:	eb00009b 	bl	9154 <printk>
    8ee4:	eb00020f 	bl	9728 <clean_reboot>
    8ee8:	e59f0058 	ldr	r0, [pc, #88]	; 8f48 <check_no_leak+0x8c>
    8eec:	eb000098 	bl	9154 <printk>
    8ef0:	e59f0054 	ldr	r0, [pc, #84]	; 8f4c <check_no_leak+0x90>
    8ef4:	eb000096 	bl	9154 <printk>
    8ef8:	e3a00001 	mov	r0, #1
    8efc:	ebffffe8 	bl	8ea4 <ck_find_leaks>
    8f00:	e3500000 	cmp	r0, #0
    8f04:	0a000006 	beq	8f24 <check_no_leak+0x68>
    8f08:	eb0000ac 	bl	91c0 <rpi_reset_putc>
    8f0c:	e59f003c 	ldr	r0, [pc, #60]	; 8f50 <check_no_leak+0x94>
    8f10:	e59f1024 	ldr	r1, [pc, #36]	; 8f3c <check_no_leak+0x80>
    8f14:	e59f2024 	ldr	r2, [pc, #36]	; 8f40 <check_no_leak+0x84>
    8f18:	e59f3034 	ldr	r3, [pc, #52]	; 8f54 <check_no_leak+0x98>
    8f1c:	eb00008c 	bl	9154 <printk>
    8f20:	eb000200 	bl	9728 <clean_reboot>
    8f24:	e59f001c 	ldr	r0, [pc, #28]	; 8f48 <check_no_leak+0x8c>
    8f28:	eb000089 	bl	9154 <printk>
    8f2c:	e59f0024 	ldr	r0, [pc, #36]	; 8f58 <check_no_leak+0x9c>
    8f30:	eb000087 	bl	9154 <printk>
    8f34:	e8bd8008 	pop	{r3, pc}
    8f38:	0000a558 	andeq	sl, r0, r8, asr r5
    8f3c:	0000a45c 	andeq	sl, r0, ip, asr r4
    8f40:	0000a2c8 	andeq	sl, r0, r8, asr #5
    8f44:	00000109 	andeq	r0, r0, r9, lsl #2
    8f48:	00009d44 	andeq	r9, r0, r4, asr #26
    8f4c:	0000a580 	andeq	sl, r0, r0, lsl #11
    8f50:	0000a5a0 	andeq	sl, r0, r0, lsr #11
    8f54:	0000010d 	andeq	r0, r0, sp, lsl #2
    8f58:	0000a5cc 	andeq	sl, r0, ip, asr #11

00008f5c <check_should_leak>:
    8f5c:	e92d4010 	push	{r4, lr}
    8f60:	ebfffdf5 	bl	873c <ck_heap_errors>
    8f64:	e3500000 	cmp	r0, #0
    8f68:	0a000006 	beq	8f88 <check_should_leak+0x2c>
    8f6c:	eb000093 	bl	91c0 <rpi_reset_putc>
    8f70:	e59f0068 	ldr	r0, [pc, #104]	; 8fe0 <check_should_leak+0x84>
    8f74:	e59f1068 	ldr	r1, [pc, #104]	; 8fe4 <check_should_leak+0x88>
    8f78:	e59f2068 	ldr	r2, [pc, #104]	; 8fe8 <check_should_leak+0x8c>
    8f7c:	e59f3068 	ldr	r3, [pc, #104]	; 8fec <check_should_leak+0x90>
    8f80:	eb000073 	bl	9154 <printk>
    8f84:	eb0001e7 	bl	9728 <clean_reboot>
    8f88:	e59f0060 	ldr	r0, [pc, #96]	; 8ff0 <check_should_leak+0x94>
    8f8c:	eb000070 	bl	9154 <printk>
    8f90:	e59f005c 	ldr	r0, [pc, #92]	; 8ff4 <check_should_leak+0x98>
    8f94:	eb00006e 	bl	9154 <printk>
    8f98:	e3a00001 	mov	r0, #1
    8f9c:	ebffffc0 	bl	8ea4 <ck_find_leaks>
    8fa0:	e2504000 	subs	r4, r0, #0
    8fa4:	1a000006 	bne	8fc4 <check_should_leak+0x68>
    8fa8:	eb000084 	bl	91c0 <rpi_reset_putc>
    8fac:	e59f0044 	ldr	r0, [pc, #68]	; 8ff8 <check_should_leak+0x9c>
    8fb0:	e59f102c 	ldr	r1, [pc, #44]	; 8fe4 <check_should_leak+0x88>
    8fb4:	e59f202c 	ldr	r2, [pc, #44]	; 8fe8 <check_should_leak+0x8c>
    8fb8:	e3a03e12 	mov	r3, #288	; 0x120
    8fbc:	eb000064 	bl	9154 <printk>
    8fc0:	eb0001d8 	bl	9728 <clean_reboot>
    8fc4:	e59f0024 	ldr	r0, [pc, #36]	; 8ff0 <check_should_leak+0x94>
    8fc8:	eb000061 	bl	9154 <printk>
    8fcc:	e59f0028 	ldr	r0, [pc, #40]	; 8ffc <check_should_leak+0xa0>
    8fd0:	e1a01004 	mov	r1, r4
    8fd4:	eb00005e 	bl	9154 <printk>
    8fd8:	e1a00004 	mov	r0, r4
    8fdc:	e8bd8010 	pop	{r4, pc}
    8fe0:	0000a558 	andeq	sl, r0, r8, asr r5
    8fe4:	0000a45c 	andeq	sl, r0, ip, asr r4
    8fe8:	0000a2d8 	ldrdeq	sl, [r0], -r8
    8fec:	0000011a 	andeq	r0, r0, sl, lsl r1
    8ff0:	00009d44 	andeq	r9, r0, r4, asr #26
    8ff4:	0000a580 	andeq	sl, r0, r0, lsl #11
    8ff8:	0000a5e4 	andeq	sl, r0, r4, ror #11
    8ffc:	0000a60c 	andeq	sl, r0, ip, lsl #12

00009000 <implement_this>:
    9000:	e92d4008 	push	{r3, lr}
    9004:	eb00006d 	bl	91c0 <rpi_reset_putc>
    9008:	e59f0010 	ldr	r0, [pc, #16]	; 9020 <implement_this+0x20>
    900c:	e59f1010 	ldr	r1, [pc, #16]	; 9024 <implement_this+0x24>
    9010:	e59f2010 	ldr	r2, [pc, #16]	; 9028 <implement_this+0x28>
    9014:	e3a03f4a 	mov	r3, #296	; 0x128
    9018:	eb00004d 	bl	9154 <printk>
    901c:	eb0001c1 	bl	9728 <clean_reboot>
    9020:	0000a62c 	andeq	sl, r0, ip, lsr #12
    9024:	0000a45c 	andeq	sl, r0, ip, asr r4
    9028:	0000a2ec 	andeq	sl, r0, ip, ror #5

0000902c <ck_gc>:
    902c:	e92d4008 	push	{r3, lr}
    9030:	ebffff16 	bl	8c90 <mark_all>
    9034:	ebffff52 	bl	8d84 <sweep_free>
    9038:	e8bd8008 	pop	{r3, pc}

0000903c <dump_regs>:
    903c:	e8807fff 	stm	r0, {r0, r1, r2, r3, r4, r5, r6, r7, r8, r9, sl, fp, ip, sp, lr}
    9040:	e12fff1e 	bx	lr

00009044 <fast_hash>:
    9044:	e52d4004 	push	{r4}		; (str r4, [sp, #-4]!)
    9048:	e1a02001 	mov	r2, r1
    904c:	e1a03000 	mov	r3, r0
    9050:	e3500000 	cmp	r0, #0
    9054:	13510000 	cmpne	r1, #0
    9058:	da000032 	ble	9128 <fast_hash+0xe4>
    905c:	e2014003 	and	r4, r1, #3
    9060:	e1a01141 	asr	r1, r1, #2
    9064:	ea00000b 	b	9098 <fast_hash+0x54>
    9068:	e5d3c001 	ldrb	ip, [r3, #1]
    906c:	e5d30000 	ldrb	r0, [r3]
    9070:	e080040c 	add	r0, r0, ip, lsl #8
    9074:	e0800002 	add	r0, r0, r2
    9078:	e5d3c003 	ldrb	ip, [r3, #3]
    907c:	e5d32002 	ldrb	r2, [r3, #2]
    9080:	e082240c 	add	r2, r2, ip, lsl #8
    9084:	e0202582 	eor	r2, r0, r2, lsl #11
    9088:	e0222800 	eor	r2, r2, r0, lsl #16
    908c:	e2833004 	add	r3, r3, #4
    9090:	e08225a2 	add	r2, r2, r2, lsr #11
    9094:	e2411001 	sub	r1, r1, #1
    9098:	e3510000 	cmp	r1, #0
    909c:	cafffff1 	bgt	9068 <fast_hash+0x24>
    90a0:	e3540002 	cmp	r4, #2
    90a4:	0a00000d 	beq	90e0 <fast_hash+0x9c>
    90a8:	e3540003 	cmp	r4, #3
    90ac:	0a000002 	beq	90bc <fast_hash+0x78>
    90b0:	e3540001 	cmp	r4, #1
    90b4:	1a000014 	bne	910c <fast_hash+0xc8>
    90b8:	ea00000f 	b	90fc <fast_hash+0xb8>
    90bc:	e5d30001 	ldrb	r0, [r3, #1]
    90c0:	e5d31000 	ldrb	r1, [r3]
    90c4:	e0811400 	add	r1, r1, r0, lsl #8
    90c8:	e0812002 	add	r2, r1, r2
    90cc:	e0222802 	eor	r2, r2, r2, lsl #16
    90d0:	e1d330d2 	ldrsb	r3, [r3, #2]
    90d4:	e0222903 	eor	r2, r2, r3, lsl #18
    90d8:	e08225a2 	add	r2, r2, r2, lsr #11
    90dc:	ea00000a 	b	910c <fast_hash+0xc8>
    90e0:	e5d31001 	ldrb	r1, [r3, #1]
    90e4:	e5d33000 	ldrb	r3, [r3]
    90e8:	e0833401 	add	r3, r3, r1, lsl #8
    90ec:	e0832002 	add	r2, r3, r2
    90f0:	e0222582 	eor	r2, r2, r2, lsl #11
    90f4:	e08228a2 	add	r2, r2, r2, lsr #17
    90f8:	ea000003 	b	910c <fast_hash+0xc8>
    90fc:	e1d330d0 	ldrsb	r3, [r3]
    9100:	e0832002 	add	r2, r3, r2
    9104:	e0222502 	eor	r2, r2, r2, lsl #10
    9108:	e08220a2 	add	r2, r2, r2, lsr #1
    910c:	e0220182 	eor	r0, r2, r2, lsl #3
    9110:	e08002a0 	add	r0, r0, r0, lsr #5
    9114:	e0200200 	eor	r0, r0, r0, lsl #4
    9118:	e08008a0 	add	r0, r0, r0, lsr #17
    911c:	e0200c80 	eor	r0, r0, r0, lsl #25
    9120:	e0800320 	add	r0, r0, r0, lsr #6
    9124:	ea000000 	b	912c <fast_hash+0xe8>
    9128:	e3a00000 	mov	r0, #0
    912c:	e49d4004 	pop	{r4}		; (ldr r4, [sp], #4)
    9130:	e12fff1e 	bx	lr

00009134 <memset>:
    9134:	e0802002 	add	r2, r0, r2
    9138:	e1a03000 	mov	r3, r0
    913c:	ea000001 	b	9148 <memset+0x14>
    9140:	e5c31000 	strb	r1, [r3]
    9144:	e2833001 	add	r3, r3, #1
    9148:	e1530002 	cmp	r3, r2
    914c:	3afffffb 	bcc	9140 <memset+0xc>
    9150:	e12fff1e 	bx	lr

00009154 <printk>:
    9154:	e92d000f 	push	{r0, r1, r2, r3}
    9158:	e92d4030 	push	{r4, r5, lr}
    915c:	e24dd00c 	sub	sp, sp, #12
    9160:	e28d301c 	add	r3, sp, #28
    9164:	e58d3004 	str	r3, [sp, #4]
    9168:	e59f4034 	ldr	r4, [pc, #52]	; 91a4 <printk+0x50>
    916c:	e1a00004 	mov	r0, r4
    9170:	e3a01b01 	mov	r1, #1024	; 0x400
    9174:	e59d2018 	ldr	r2, [sp, #24]
    9178:	eb0000c8 	bl	94a0 <va_printk>
    917c:	e1a05000 	mov	r5, r0
    9180:	e59f3020 	ldr	r3, [pc, #32]	; 91a8 <printk+0x54>
    9184:	e5933000 	ldr	r3, [r3]
    9188:	e1a00004 	mov	r0, r4
    918c:	e12fff33 	blx	r3
    9190:	e1a00005 	mov	r0, r5
    9194:	e28dd00c 	add	sp, sp, #12
    9198:	e8bd4030 	pop	{r4, r5, lr}
    919c:	e28dd010 	add	sp, sp, #16
    91a0:	e12fff1e 	bx	lr
    91a4:	0000a8b8 			; <UNDEFINED> instruction: 0x0000a8b8
    91a8:	00009d14 	andeq	r9, r0, r4, lsl sp

000091ac <internal_putchar>:
    91ac:	e92d4010 	push	{r4, lr}
    91b0:	e1a04000 	mov	r4, r0
    91b4:	eb000212 	bl	9a04 <uart_putc>
    91b8:	e1a00004 	mov	r0, r4
    91bc:	e8bd8010 	pop	{r4, pc}

000091c0 <rpi_reset_putc>:
    91c0:	e59f2008 	ldr	r2, [pc, #8]	; 91d0 <rpi_reset_putc+0x10>
    91c4:	e59f3008 	ldr	r3, [pc, #8]	; 91d4 <rpi_reset_putc+0x14>
    91c8:	e5832000 	str	r2, [r3]
    91cc:	e12fff1e 	bx	lr
    91d0:	000091ac 	andeq	r9, r0, ip, lsr #3
    91d4:	00009d10 	andeq	r9, r0, r0, lsl sp

000091d8 <rpi_set_putc>:
    91d8:	e59f3004 	ldr	r3, [pc, #4]	; 91e4 <rpi_set_putc+0xc>
    91dc:	e5830000 	str	r0, [r3]
    91e0:	e12fff1e 	bx	lr
    91e4:	00009d10 	andeq	r9, r0, r0, lsl sp

000091e8 <internal_putk>:
    91e8:	e92d4038 	push	{r3, r4, r5, lr}
    91ec:	e1a04000 	mov	r4, r0
    91f0:	e59f5020 	ldr	r5, [pc, #32]	; 9218 <internal_putk+0x30>
    91f4:	ea000002 	b	9204 <internal_putk+0x1c>
    91f8:	e5953000 	ldr	r3, [r5]
    91fc:	e12fff33 	blx	r3
    9200:	e2844001 	add	r4, r4, #1
    9204:	e5d40000 	ldrb	r0, [r4]
    9208:	e3500000 	cmp	r0, #0
    920c:	1afffff9 	bne	91f8 <internal_putk+0x10>
    9210:	e3a00001 	mov	r0, #1
    9214:	e8bd8038 	pop	{r3, r4, r5, pc}
    9218:	00009d10 	andeq	r9, r0, r0, lsl sp

0000921c <isdigit>:
    921c:	e2400030 	sub	r0, r0, #48	; 0x30
    9220:	e3500009 	cmp	r0, #9
    9224:	83a00000 	movhi	r0, #0
    9228:	93a00001 	movls	r0, #1
    922c:	e12fff1e 	bx	lr

00009230 <pad>:
    9230:	e0611000 	rsb	r1, r1, r0
    9234:	e3a03020 	mov	r3, #32
    9238:	ea000002 	b	9248 <pad+0x18>
    923c:	e5c03000 	strb	r3, [r0]
    9240:	e2811001 	add	r1, r1, #1
    9244:	e2800001 	add	r0, r0, #1
    9248:	e1510002 	cmp	r1, r2
    924c:	bafffffa 	blt	923c <pad+0xc>
    9250:	e3a03000 	mov	r3, #0
    9254:	e5c03000 	strb	r3, [r0]
    9258:	e12fff1e 	bx	lr

0000925c <reverse>:
    925c:	e063c002 	rsb	ip, r3, r2
    9260:	e28cc001 	add	ip, ip, #1
    9264:	e15c0001 	cmp	ip, r1
    9268:	c061100c 	rsbgt	r1, r1, ip
    926c:	c0833001 	addgt	r3, r3, r1
    9270:	e2422001 	sub	r2, r2, #1
    9274:	e1a01000 	mov	r1, r0
    9278:	ea000002 	b	9288 <reverse+0x2c>
    927c:	e452c001 	ldrb	ip, [r2], #-1
    9280:	e5c1c000 	strb	ip, [r1]
    9284:	e2811001 	add	r1, r1, #1
    9288:	e1520003 	cmp	r2, r3
    928c:	2afffffa 	bcs	927c <reverse+0x20>
    9290:	e3a03000 	mov	r3, #0
    9294:	e5c13000 	strb	r3, [r1]
    9298:	e12fff1e 	bx	lr

0000929c <emit>:
    929c:	e92d41f0 	push	{r4, r5, r6, r7, r8, lr}
    92a0:	e24dd040 	sub	sp, sp, #64	; 0x40
    92a4:	e1a05001 	mov	r5, r1
    92a8:	e1a04002 	mov	r4, r2
    92ac:	e59d2058 	ldr	r2, [sp, #88]	; 0x58
    92b0:	e1520004 	cmp	r2, r4
    92b4:	c2442001 	subgt	r2, r4, #1
    92b8:	e1a0c003 	mov	ip, r3
    92bc:	e2400002 	sub	r0, r0, #2
    92c0:	e350000e 	cmp	r0, #14
    92c4:	979ff100 	ldrls	pc, [pc, r0, lsl #2]
    92c8:	ea000048 	b	93f0 <emit+0x154>
    92cc:	000093c8 	andeq	r9, r0, r8, asr #7
    92d0:	000093f0 	strdeq	r9, [r0], -r0
    92d4:	000093f0 	strdeq	r9, [r0], -r0
    92d8:	000093f0 	strdeq	r9, [r0], -r0
    92dc:	000093f0 	strdeq	r9, [r0], -r0
    92e0:	000093f0 	strdeq	r9, [r0], -r0
    92e4:	000093bc 			; <UNDEFINED> instruction: 0x000093bc
    92e8:	000093f0 	strdeq	r9, [r0], -r0
    92ec:	00009308 	andeq	r9, r0, r8, lsl #6
    92f0:	000093f0 	strdeq	r9, [r0], -r0
    92f4:	000093f0 	strdeq	r9, [r0], -r0
    92f8:	000093f0 	strdeq	r9, [r0], -r0
    92fc:	000093f0 	strdeq	r9, [r0], -r0
    9300:	000093f0 	strdeq	r9, [r0], -r0
    9304:	0000937c 	andeq	r9, r0, ip, ror r3
    9308:	e59d105c 	ldr	r1, [sp, #92]	; 0x5c
    930c:	e2911000 	adds	r1, r1, #0
    9310:	13a01001 	movne	r1, #1
    9314:	e0111fa3 	ands	r1, r1, r3, lsr #31
    9318:	1263c000 	rsbne	ip, r3, #0
    931c:	13a08001 	movne	r8, #1
    9320:	03a08000 	moveq	r8, #0
    9324:	e1a0100d 	mov	r1, sp
    9328:	e59f7100 	ldr	r7, [pc, #256]	; 9430 <emit+0x194>
    932c:	e59f6100 	ldr	r6, [pc, #256]	; 9434 <emit+0x198>
    9330:	ea000000 	b	9338 <emit+0x9c>
    9334:	e1a01000 	mov	r1, r0
    9338:	e2810001 	add	r0, r1, #1
    933c:	e083ec97 	umull	lr, r3, r7, ip
    9340:	e1a031a3 	lsr	r3, r3, #3
    9344:	e1a0e003 	mov	lr, r3
    9348:	e0833103 	add	r3, r3, r3, lsl #2
    934c:	e1a03083 	lsl	r3, r3, #1
    9350:	e063300c 	rsb	r3, r3, ip
    9354:	e7d63003 	ldrb	r3, [r6, r3]
    9358:	e5c13000 	strb	r3, [r1]
    935c:	e1a0c00e 	mov	ip, lr
    9360:	e35e0000 	cmp	lr, #0
    9364:	1afffff2 	bne	9334 <emit+0x98>
    9368:	e3580000 	cmp	r8, #0
    936c:	12810002 	addne	r0, r1, #2
    9370:	13a0302d 	movne	r3, #45	; 0x2d
    9374:	15c13001 	strbne	r3, [r1, #1]
    9378:	ea000023 	b	940c <emit+0x170>
    937c:	e1a0300d 	mov	r3, sp
    9380:	e59fe0b0 	ldr	lr, [pc, #176]	; 9438 <emit+0x19c>
    9384:	ea000000 	b	938c <emit+0xf0>
    9388:	e1a03000 	mov	r3, r0
    938c:	e2830001 	add	r0, r3, #1
    9390:	e20c100f 	and	r1, ip, #15
    9394:	e7de1001 	ldrb	r1, [lr, r1]
    9398:	e5c31000 	strb	r1, [r3]
    939c:	e1b0c22c 	lsrs	ip, ip, #4
    93a0:	1afffff8 	bne	9388 <emit+0xec>
    93a4:	e3a01078 	mov	r1, #120	; 0x78
    93a8:	e5c31001 	strb	r1, [r3, #1]
    93ac:	e2830003 	add	r0, r3, #3
    93b0:	e3a01030 	mov	r1, #48	; 0x30
    93b4:	e5c31002 	strb	r1, [r3, #2]
    93b8:	ea000013 	b	940c <emit+0x170>
    93bc:	e5cd3000 	strb	r3, [sp]
    93c0:	e28d0001 	add	r0, sp, #1
    93c4:	ea000010 	b	940c <emit+0x170>
    93c8:	e1a0300d 	mov	r3, sp
    93cc:	e59fe068 	ldr	lr, [pc, #104]	; 943c <emit+0x1a0>
    93d0:	e2830001 	add	r0, r3, #1
    93d4:	e20c1001 	and	r1, ip, #1
    93d8:	e7de1001 	ldrb	r1, [lr, r1]
    93dc:	e5c31000 	strb	r1, [r3]
    93e0:	e1a03000 	mov	r3, r0
    93e4:	e1b0c0ac 	lsrs	ip, ip, #1
    93e8:	1afffff8 	bne	93d0 <emit+0x134>
    93ec:	ea000006 	b	940c <emit+0x170>
    93f0:	ebffff72 	bl	91c0 <rpi_reset_putc>
    93f4:	e59f0044 	ldr	r0, [pc, #68]	; 9440 <emit+0x1a4>
    93f8:	e59f1044 	ldr	r1, [pc, #68]	; 9444 <emit+0x1a8>
    93fc:	e59f2044 	ldr	r2, [pc, #68]	; 9448 <emit+0x1ac>
    9400:	e3a03077 	mov	r3, #119	; 0x77
    9404:	ebffff52 	bl	9154 <printk>
    9408:	eb0000c6 	bl	9728 <clean_reboot>
    940c:	e1a0100d 	mov	r1, sp
    9410:	ebffff86 	bl	9230 <pad>
    9414:	e1a02000 	mov	r2, r0
    9418:	e1a00005 	mov	r0, r5
    941c:	e1a01004 	mov	r1, r4
    9420:	e1a0300d 	mov	r3, sp
    9424:	ebffff8c 	bl	925c <reverse>
    9428:	e28dd040 	add	sp, sp, #64	; 0x40
    942c:	e8bd81f0 	pop	{r4, r5, r6, r7, r8, pc}
    9430:	cccccccd 	stclgt	12, cr12, [ip], {205}	; 0xcd
    9434:	0000a6a8 	andeq	sl, r0, r8, lsr #13
    9438:	0000a6b4 			; <UNDEFINED> instruction: 0x0000a6b4
    943c:	0000a6c8 	andeq	sl, r0, r8, asr #13
    9440:	0000a680 	andeq	sl, r0, r0, lsl #13
    9444:	0000a694 	muleq	r0, r4, r6
    9448:	0000a65c 	andeq	sl, r0, ip, asr r6

0000944c <rpi_set_output>:
    944c:	e92d4008 	push	{r3, lr}
    9450:	e3500000 	cmp	r0, #0
    9454:	1a000006 	bne	9474 <rpi_set_output+0x28>
    9458:	ebffff58 	bl	91c0 <rpi_reset_putc>
    945c:	e59f0028 	ldr	r0, [pc, #40]	; 948c <rpi_set_output+0x40>
    9460:	e59f1028 	ldr	r1, [pc, #40]	; 9490 <rpi_set_output+0x44>
    9464:	e59f2028 	ldr	r2, [pc, #40]	; 9494 <rpi_set_output+0x48>
    9468:	e3a03020 	mov	r3, #32
    946c:	ebffff38 	bl	9154 <printk>
    9470:	eb0000ac 	bl	9728 <clean_reboot>
    9474:	e59f301c 	ldr	r3, [pc, #28]	; 9498 <rpi_set_output+0x4c>
    9478:	e5830000 	str	r0, [r3]
    947c:	e3510000 	cmp	r1, #0
    9480:	159f3014 	ldrne	r3, [pc, #20]	; 949c <rpi_set_output+0x50>
    9484:	15831000 	strne	r1, [r3]
    9488:	e8bd8008 	pop	{r3, pc}
    948c:	0000a6cc 	andeq	sl, r0, ip, asr #13
    9490:	0000a694 	muleq	r0, r4, r6
    9494:	0000a664 	andeq	sl, r0, r4, ror #12
    9498:	00009d10 	andeq	r9, r0, r0, lsl sp
    949c:	00009d14 	andeq	r9, r0, r4, lsl sp

000094a0 <va_printk>:
    94a0:	e92d4ff0 	push	{r4, r5, r6, r7, r8, r9, sl, fp, lr}
    94a4:	e24dd08c 	sub	sp, sp, #140	; 0x8c
    94a8:	e1a0a000 	mov	sl, r0
    94ac:	e1a09003 	mov	r9, r3
    94b0:	e2411001 	sub	r1, r1, #1
    94b4:	e0808001 	add	r8, r0, r1
    94b8:	e3a03000 	mov	r3, #0
    94bc:	e5c03000 	strb	r3, [r0]
    94c0:	e1a04000 	mov	r4, r0
    94c4:	e1a0b003 	mov	fp, r3
    94c8:	ea000086 	b	96e8 <va_printk+0x248>
    94cc:	e3530025 	cmp	r3, #37	; 0x25
    94d0:	12822001 	addne	r2, r2, #1
    94d4:	15c43000 	strbne	r3, [r4]
    94d8:	12844001 	addne	r4, r4, #1
    94dc:	1a000081 	bne	96e8 <va_printk+0x248>
    94e0:	e5d21001 	ldrb	r1, [r2, #1]
    94e4:	e3510025 	cmp	r1, #37	; 0x25
    94e8:	05c43000 	strbeq	r3, [r4]
    94ec:	02822002 	addeq	r2, r2, #2
    94f0:	02844001 	addeq	r4, r4, #1
    94f4:	0a00007b 	beq	96e8 <va_printk+0x248>
    94f8:	e2826001 	add	r6, r2, #1
    94fc:	e1a0700b 	mov	r7, fp
    9500:	ea000004 	b	9518 <va_printk+0x78>
    9504:	e0877107 	add	r7, r7, r7, lsl #2
    9508:	e1a07087 	lsl	r7, r7, #1
    950c:	e0877005 	add	r7, r7, r5
    9510:	e2477030 	sub	r7, r7, #48	; 0x30
    9514:	e2866001 	add	r6, r6, #1
    9518:	e5d65000 	ldrb	r5, [r6]
    951c:	e1a00005 	mov	r0, r5
    9520:	ebffff3d 	bl	921c <isdigit>
    9524:	e3500000 	cmp	r0, #0
    9528:	1afffff5 	bne	9504 <va_printk+0x64>
    952c:	e357001f 	cmp	r7, #31
    9530:	9a000006 	bls	9550 <va_printk+0xb0>
    9534:	ebffff21 	bl	91c0 <rpi_reset_putc>
    9538:	e59f01d4 	ldr	r0, [pc, #468]	; 9714 <va_printk+0x274>
    953c:	e59f11d4 	ldr	r1, [pc, #468]	; 9718 <va_printk+0x278>
    9540:	e59f21d4 	ldr	r2, [pc, #468]	; 971c <va_printk+0x27c>
    9544:	e3a03094 	mov	r3, #148	; 0x94
    9548:	ebffff01 	bl	9154 <printk>
    954c:	eb000075 	bl	9728 <clean_reboot>
    9550:	e2455062 	sub	r5, r5, #98	; 0x62
    9554:	e3550016 	cmp	r5, #22
    9558:	979ff105 	ldrls	pc, [pc, r5, lsl #2]
    955c:	ea00004e 	b	969c <va_printk+0x1fc>
    9560:	00009648 	andeq	r9, r0, r8, asr #12
    9564:	00009678 	andeq	r9, r0, r8, ror r6
    9568:	000095d8 	ldrdeq	r9, [r0], -r8
    956c:	0000969c 	muleq	r0, ip, r6
    9570:	000095bc 			; <UNDEFINED> instruction: 0x000095bc
    9574:	0000969c 	muleq	r0, ip, r6
    9578:	0000969c 	muleq	r0, ip, r6
    957c:	0000969c 	muleq	r0, ip, r6
    9580:	0000969c 	muleq	r0, ip, r6
    9584:	0000969c 	muleq	r0, ip, r6
    9588:	0000969c 	muleq	r0, ip, r6
    958c:	0000969c 	muleq	r0, ip, r6
    9590:	0000969c 	muleq	r0, ip, r6
    9594:	0000969c 	muleq	r0, ip, r6
    9598:	00009624 	andeq	r9, r0, r4, lsr #12
    959c:	0000969c 	muleq	r0, ip, r6
    95a0:	0000969c 	muleq	r0, ip, r6
    95a4:	0000966c 	andeq	r9, r0, ip, ror #12
    95a8:	0000969c 	muleq	r0, ip, r6
    95ac:	00009600 	andeq	r9, r0, r0, lsl #12
    95b0:	0000969c 	muleq	r0, ip, r6
    95b4:	0000969c 	muleq	r0, ip, r6
    95b8:	00009624 	andeq	r9, r0, r4, lsr #12
    95bc:	ebfffeff 	bl	91c0 <rpi_reset_putc>
    95c0:	e59f0158 	ldr	r0, [pc, #344]	; 9720 <va_printk+0x280>
    95c4:	e59f114c 	ldr	r1, [pc, #332]	; 9718 <va_printk+0x278>
    95c8:	e59f214c 	ldr	r2, [pc, #332]	; 971c <va_printk+0x27c>
    95cc:	e3a0309a 	mov	r3, #154	; 0x9a
    95d0:	ebfffedf 	bl	9154 <printk>
    95d4:	eb000053 	bl	9728 <clean_reboot>
    95d8:	e5993000 	ldr	r3, [r9]
    95dc:	e2899004 	add	r9, r9, #4
    95e0:	e58d7000 	str	r7, [sp]
    95e4:	e3a02001 	mov	r2, #1
    95e8:	e58d2004 	str	r2, [sp, #4]
    95ec:	e3a0000a 	mov	r0, #10
    95f0:	e28d1008 	add	r1, sp, #8
    95f4:	e3a02080 	mov	r2, #128	; 0x80
    95f8:	ebffff27 	bl	929c <emit>
    95fc:	ea00002f 	b	96c0 <va_printk+0x220>
    9600:	e5993000 	ldr	r3, [r9]
    9604:	e2899004 	add	r9, r9, #4
    9608:	e58d7000 	str	r7, [sp]
    960c:	e58db004 	str	fp, [sp, #4]
    9610:	e3a0000a 	mov	r0, #10
    9614:	e28d1008 	add	r1, sp, #8
    9618:	e3a02080 	mov	r2, #128	; 0x80
    961c:	ebffff1e 	bl	929c <emit>
    9620:	ea000026 	b	96c0 <va_printk+0x220>
    9624:	e5993000 	ldr	r3, [r9]
    9628:	e2899004 	add	r9, r9, #4
    962c:	e58d7000 	str	r7, [sp]
    9630:	e58db004 	str	fp, [sp, #4]
    9634:	e3a00010 	mov	r0, #16
    9638:	e28d1008 	add	r1, sp, #8
    963c:	e3a02080 	mov	r2, #128	; 0x80
    9640:	ebffff15 	bl	929c <emit>
    9644:	ea00001d 	b	96c0 <va_printk+0x220>
    9648:	e5993000 	ldr	r3, [r9]
    964c:	e2899004 	add	r9, r9, #4
    9650:	e58d7000 	str	r7, [sp]
    9654:	e58db004 	str	fp, [sp, #4]
    9658:	e3a00002 	mov	r0, #2
    965c:	e28d1008 	add	r1, sp, #8
    9660:	e3a02080 	mov	r2, #128	; 0x80
    9664:	ebffff0c 	bl	929c <emit>
    9668:	ea000014 	b	96c0 <va_printk+0x220>
    966c:	e5990000 	ldr	r0, [r9]
    9670:	e2899004 	add	r9, r9, #4
    9674:	ea000011 	b	96c0 <va_printk+0x220>
    9678:	e5993000 	ldr	r3, [r9]
    967c:	e2899004 	add	r9, r9, #4
    9680:	e58d7000 	str	r7, [sp]
    9684:	e58db004 	str	fp, [sp, #4]
    9688:	e3a00008 	mov	r0, #8
    968c:	e08d1000 	add	r1, sp, r0
    9690:	e3a02080 	mov	r2, #128	; 0x80
    9694:	ebffff00 	bl	929c <emit>
    9698:	ea000008 	b	96c0 <va_printk+0x220>
    969c:	ebfffec7 	bl	91c0 <rpi_reset_putc>
    96a0:	e5d63000 	ldrb	r3, [r6]
    96a4:	e58d3000 	str	r3, [sp]
    96a8:	e59f0074 	ldr	r0, [pc, #116]	; 9724 <va_printk+0x284>
    96ac:	e59f1064 	ldr	r1, [pc, #100]	; 9718 <va_printk+0x278>
    96b0:	e59f2064 	ldr	r2, [pc, #100]	; 971c <va_printk+0x27c>
    96b4:	e3a030bb 	mov	r3, #187	; 0xbb
    96b8:	ebfffea5 	bl	9154 <printk>
    96bc:	eb000019 	bl	9728 <clean_reboot>
    96c0:	e2862001 	add	r2, r6, #1
    96c4:	ea000002 	b	96d4 <va_printk+0x234>
    96c8:	e2800001 	add	r0, r0, #1
    96cc:	e5c43000 	strb	r3, [r4]
    96d0:	e2844001 	add	r4, r4, #1
    96d4:	e1540008 	cmp	r4, r8
    96d8:	2a000002 	bcs	96e8 <va_printk+0x248>
    96dc:	e5d03000 	ldrb	r3, [r0]
    96e0:	e3530000 	cmp	r3, #0
    96e4:	1afffff7 	bne	96c8 <va_printk+0x228>
    96e8:	e5d23000 	ldrb	r3, [r2]
    96ec:	e3530000 	cmp	r3, #0
    96f0:	0a000001 	beq	96fc <va_printk+0x25c>
    96f4:	e1540008 	cmp	r4, r8
    96f8:	3affff73 	bcc	94cc <va_printk+0x2c>
    96fc:	e2840001 	add	r0, r4, #1
    9700:	e3a03000 	mov	r3, #0
    9704:	e5c43000 	strb	r3, [r4]
    9708:	e06a0000 	rsb	r0, sl, r0
    970c:	e28dd08c 	add	sp, sp, #140	; 0x8c
    9710:	e8bd8ff0 	pop	{r4, r5, r6, r7, r8, r9, sl, fp, pc}
    9714:	0000a6e4 	andeq	sl, r0, r4, ror #13
    9718:	0000a694 	muleq	r0, r4, r6
    971c:	0000a674 	andeq	sl, r0, r4, ror r6
    9720:	0000a700 	andeq	sl, r0, r0, lsl #14
    9724:	0000a728 	andeq	sl, r0, r8, lsr #14

00009728 <clean_reboot>:
    9728:	e92d4008 	push	{r3, lr}
    972c:	e59f3014 	ldr	r3, [pc, #20]	; 9748 <clean_reboot+0x20>
    9730:	e5933000 	ldr	r3, [r3]
    9734:	e59f0010 	ldr	r0, [pc, #16]	; 974c <clean_reboot+0x24>
    9738:	e12fff33 	blx	r3
    973c:	e3a00064 	mov	r0, #100	; 0x64
    9740:	eb000044 	bl	9858 <delay_ms>
    9744:	eb000019 	bl	97b0 <rpi_reboot>
    9748:	00009d14 	andeq	r9, r0, r4, lsl sp
    974c:	0000a760 	andeq	sl, r0, r0, ror #14

00009750 <_cstart>:
    9750:	e92d4008 	push	{r3, lr}
    9754:	e59f3020 	ldr	r3, [pc, #32]	; 977c <_cstart+0x2c>
    9758:	e59f2020 	ldr	r2, [pc, #32]	; 9780 <_cstart+0x30>
    975c:	e3a01000 	mov	r1, #0
    9760:	ea000001 	b	976c <_cstart+0x1c>
    9764:	e5831000 	str	r1, [r3]
    9768:	e2833004 	add	r3, r3, #4
    976c:	e1530002 	cmp	r3, r2
    9770:	3afffffb 	bcc	9764 <_cstart+0x14>
    9774:	ebfffa3b 	bl	8068 <notmain>
    9778:	ebffffea 	bl	9728 <clean_reboot>
    977c:	0000a88c 	andeq	sl, r0, ip, lsl #17
    9780:	0000acb8 			; <UNDEFINED> instruction: 0x0000acb8

00009784 <at_user_level>:
    9784:	e10f0000 	mrs	r0, CPSR
    9788:	e200001f 	and	r0, r0, #31
    978c:	e3500010 	cmp	r0, #16
    9790:	13a00000 	movne	r0, #0
    9794:	03a00001 	moveq	r0, #1
    9798:	e12fff1e 	bx	lr

0000979c <set_user_level>:
    979c:	e10f3000 	mrs	r3, CPSR
    97a0:	e3c3301f 	bic	r3, r3, #31
    97a4:	e3833010 	orr	r3, r3, #16
    97a8:	e129f003 	msr	CPSR_fc, r3
    97ac:	e12fff1e 	bx	lr

000097b0 <rpi_reboot>:
    97b0:	e92d4008 	push	{r3, lr}
    97b4:	ebfffff2 	bl	9784 <at_user_level>
    97b8:	e3500000 	cmp	r0, #0
    97bc:	0a000000 	beq	97c4 <rpi_reboot+0x14>
    97c0:	ebfffff5 	bl	979c <set_user_level>
    97c4:	e3a0001e 	mov	r0, #30
    97c8:	eb000022 	bl	9858 <delay_ms>
    97cc:	e59f0014 	ldr	r0, [pc, #20]	; 97e8 <rpi_reboot+0x38>
    97d0:	e59f1014 	ldr	r1, [pc, #20]	; 97ec <rpi_reboot+0x3c>
    97d4:	eb00002b 	bl	9888 <PUT32>
    97d8:	e59f0010 	ldr	r0, [pc, #16]	; 97f0 <rpi_reboot+0x40>
    97dc:	e59f1010 	ldr	r1, [pc, #16]	; 97f4 <rpi_reboot+0x44>
    97e0:	eb000028 	bl	9888 <PUT32>
    97e4:	eafffffe 	b	97e4 <rpi_reboot+0x34>
    97e8:	20100024 	andscs	r0, r0, r4, lsr #32
    97ec:	5a000001 	bpl	97f8 <delay_cycles>
    97f0:	2010001c 	andscs	r0, r0, ip, lsl r0
    97f4:	5a000020 	bpl	987c <delay_sec+0x10>

000097f8 <delay_cycles>:
    97f8:	ea000001 	b	9804 <delay_cycles+0xc>
    97fc:	e2811000 	add	r1, r1, #0
    9800:	e1a00003 	mov	r0, r3
    9804:	e2403001 	sub	r3, r0, #1
    9808:	e3500000 	cmp	r0, #0
    980c:	1afffffa 	bne	97fc <delay_cycles+0x4>
    9810:	e12fff1e 	bx	lr

00009814 <timer_get_usec_raw>:
    9814:	e92d4008 	push	{r3, lr}
    9818:	e59f0004 	ldr	r0, [pc, #4]	; 9824 <timer_get_usec_raw+0x10>
    981c:	eb000025 	bl	98b8 <GET32>
    9820:	e8bd8008 	pop	{r3, pc}
    9824:	20003004 	andcs	r3, r0, r4

00009828 <timer_get_usec>:
    9828:	e92d4008 	push	{r3, lr}
    982c:	ebfffff8 	bl	9814 <timer_get_usec_raw>
    9830:	e8bd8008 	pop	{r3, pc}

00009834 <delay_us>:
    9834:	e92d4038 	push	{r3, r4, r5, lr}
    9838:	e1a05000 	mov	r5, r0
    983c:	ebfffff9 	bl	9828 <timer_get_usec>
    9840:	e1a04000 	mov	r4, r0
    9844:	ebfffff7 	bl	9828 <timer_get_usec>
    9848:	e0640000 	rsb	r0, r4, r0
    984c:	e1500005 	cmp	r0, r5
    9850:	3afffffb 	bcc	9844 <delay_us+0x10>
    9854:	e8bd8038 	pop	{r3, r4, r5, pc}

00009858 <delay_ms>:
    9858:	e92d4008 	push	{r3, lr}
    985c:	e3a03ffa 	mov	r3, #1000	; 0x3e8
    9860:	e0000093 	mul	r0, r3, r0
    9864:	ebfffff2 	bl	9834 <delay_us>
    9868:	e8bd8008 	pop	{r3, pc}

0000986c <delay_sec>:
    986c:	e92d4008 	push	{r3, lr}
    9870:	e3a03ffa 	mov	r3, #1000	; 0x3e8
    9874:	e0000093 	mul	r0, r3, r0
    9878:	ebfffff6 	bl	9858 <delay_ms>
    987c:	e8bd8008 	pop	{r3, pc}

00009880 <put32>:
    9880:	e5801000 	str	r1, [r0]
    9884:	e12fff1e 	bx	lr

00009888 <PUT32>:
    9888:	e5801000 	str	r1, [r0]
    988c:	e12fff1e 	bx	lr

00009890 <put16>:
    9890:	e1c010b0 	strh	r1, [r0]
    9894:	e12fff1e 	bx	lr

00009898 <PUT16>:
    9898:	e1c010b0 	strh	r1, [r0]
    989c:	e12fff1e 	bx	lr

000098a0 <put8>:
    98a0:	e5c01000 	strb	r1, [r0]
    98a4:	e12fff1e 	bx	lr

000098a8 <PUT8>:
    98a8:	e5c01000 	strb	r1, [r0]
    98ac:	e12fff1e 	bx	lr

000098b0 <get32>:
    98b0:	e5900000 	ldr	r0, [r0]
    98b4:	e12fff1e 	bx	lr

000098b8 <GET32>:
    98b8:	e5900000 	ldr	r0, [r0]
    98bc:	e12fff1e 	bx	lr

000098c0 <GETPC>:
    98c0:	e1a0000e 	mov	r0, lr
    98c4:	e12fff1e 	bx	lr

000098c8 <dummy>:
    98c8:	e12fff1e 	bx	lr

000098cc <or_in32>:
    98cc:	e92d4070 	push	{r4, r5, r6, lr}
    98d0:	e1a04000 	mov	r4, r0
    98d4:	e1a05001 	mov	r5, r1
    98d8:	ebfffff4 	bl	98b0 <get32>
    98dc:	e1801005 	orr	r1, r0, r5
    98e0:	e1a00004 	mov	r0, r4
    98e4:	ebffffe5 	bl	9880 <put32>
    98e8:	e8bd8070 	pop	{r4, r5, r6, pc}

000098ec <uart_init>:
    98ec:	e92d4010 	push	{r4, lr}
    98f0:	e3a01002 	mov	r1, #2
    98f4:	e3a0000e 	mov	r0, #14
    98f8:	eb000051 	bl	9a44 <gpio_set_function>
    98fc:	e3a01002 	mov	r1, #2
    9900:	e3a0000f 	mov	r0, #15
    9904:	eb00004e 	bl	9a44 <gpio_set_function>
    9908:	eb0000fa 	bl	9cf8 <dev_barrier>
    990c:	e3a01001 	mov	r1, #1
    9910:	e59f0064 	ldr	r0, [pc, #100]	; 997c <uart_init+0x90>
    9914:	ebffffec 	bl	98cc <or_in32>
    9918:	eb0000f6 	bl	9cf8 <dev_barrier>
    991c:	e59f405c 	ldr	r4, [pc, #92]	; 9980 <uart_init+0x94>
    9920:	e3a01000 	mov	r1, #0
    9924:	e1a00004 	mov	r0, r4
    9928:	ebffffd4 	bl	9880 <put32>
    992c:	e3a01000 	mov	r1, #0
    9930:	e59f004c 	ldr	r0, [pc, #76]	; 9984 <uart_init+0x98>
    9934:	ebffffd1 	bl	9880 <put32>
    9938:	e3a01003 	mov	r1, #3
    993c:	e59f0044 	ldr	r0, [pc, #68]	; 9988 <uart_init+0x9c>
    9940:	ebffffce 	bl	9880 <put32>
    9944:	e3a01000 	mov	r1, #0
    9948:	e59f003c 	ldr	r0, [pc, #60]	; 998c <uart_init+0xa0>
    994c:	ebffffcb 	bl	9880 <put32>
    9950:	e3a010c7 	mov	r1, #199	; 0xc7
    9954:	e59f0034 	ldr	r0, [pc, #52]	; 9990 <uart_init+0xa4>
    9958:	ebffffc8 	bl	9880 <put32>
    995c:	e59f1030 	ldr	r1, [pc, #48]	; 9994 <uart_init+0xa8>
    9960:	e59f0030 	ldr	r0, [pc, #48]	; 9998 <uart_init+0xac>
    9964:	ebffffc5 	bl	9880 <put32>
    9968:	e3a01003 	mov	r1, #3
    996c:	e1a00004 	mov	r0, r4
    9970:	ebffffc2 	bl	9880 <put32>
    9974:	eb0000df 	bl	9cf8 <dev_barrier>
    9978:	e8bd8010 	pop	{r4, pc}
    997c:	20215004 	eorcs	r5, r1, r4
    9980:	20215060 	eorcs	r5, r1, r0, rrx
    9984:	20215044 	eorcs	r5, r1, r4, asr #32
    9988:	2021504c 	eorcs	r5, r1, ip, asr #32
    998c:	20215050 	eorcs	r5, r1, r0, asr r0
    9990:	20215048 	eorcs	r5, r1, r8, asr #32
    9994:	0000010e 	andeq	r0, r0, lr, lsl #2
    9998:	20215068 	eorcs	r5, r1, r8, rrx

0000999c <uart_can_getc>:
    999c:	e92d4010 	push	{r4, lr}
    99a0:	e59f0008 	ldr	r0, [pc, #8]	; 99b0 <uart_can_getc+0x14>
    99a4:	ebffffc1 	bl	98b0 <get32>
    99a8:	e2000001 	and	r0, r0, #1
    99ac:	e8bd8010 	pop	{r4, pc}
    99b0:	20215064 	eorcs	r5, r1, r4, rrx

000099b4 <uart_can_putc>:
    99b4:	e92d4010 	push	{r4, lr}
    99b8:	e59f0010 	ldr	r0, [pc, #16]	; 99d0 <uart_can_putc+0x1c>
    99bc:	ebffffbb 	bl	98b0 <get32>
    99c0:	e3100002 	tst	r0, #2
    99c4:	13a00001 	movne	r0, #1
    99c8:	03a00000 	moveq	r0, #0
    99cc:	e8bd8010 	pop	{r4, pc}
    99d0:	20215064 	eorcs	r5, r1, r4, rrx

000099d4 <uart_getc>:
    99d4:	e92d4010 	push	{r4, lr}
    99d8:	eb0000c6 	bl	9cf8 <dev_barrier>
    99dc:	ebffffee 	bl	999c <uart_can_getc>
    99e0:	e3500000 	cmp	r0, #0
    99e4:	0afffffc 	beq	99dc <uart_getc+0x8>
    99e8:	e59f0010 	ldr	r0, [pc, #16]	; 9a00 <uart_getc+0x2c>
    99ec:	ebffffaf 	bl	98b0 <get32>
    99f0:	e6ef4070 	uxtb	r4, r0
    99f4:	eb0000bf 	bl	9cf8 <dev_barrier>
    99f8:	e1a00004 	mov	r0, r4
    99fc:	e8bd8010 	pop	{r4, pc}
    9a00:	20215040 	eorcs	r5, r1, r0, asr #32

00009a04 <uart_putc>:
    9a04:	e92d4010 	push	{r4, lr}
    9a08:	e1a04000 	mov	r4, r0
    9a0c:	eb0000b9 	bl	9cf8 <dev_barrier>
    9a10:	ebffffe7 	bl	99b4 <uart_can_putc>
    9a14:	e3500000 	cmp	r0, #0
    9a18:	0afffffc 	beq	9a10 <uart_putc+0xc>
    9a1c:	e6ef1074 	uxtb	r1, r4
    9a20:	e59f0008 	ldr	r0, [pc, #8]	; 9a30 <uart_putc+0x2c>
    9a24:	ebffff95 	bl	9880 <put32>
    9a28:	eb0000b2 	bl	9cf8 <dev_barrier>
    9a2c:	e8bd8010 	pop	{r4, pc}
    9a30:	20215040 	eorcs	r5, r1, r0, asr #32

00009a34 <uart_has_data>:
    9a34:	e92d4010 	push	{r4, lr}
    9a38:	eb0000ae 	bl	9cf8 <dev_barrier>
    9a3c:	ebffffd6 	bl	999c <uart_can_getc>
    9a40:	e8bd8010 	pop	{r4, pc}

00009a44 <gpio_set_function>:
    9a44:	e350001f 	cmp	r0, #31
    9a48:	812fff1e 	bxhi	lr
    9a4c:	e3d13007 	bics	r3, r1, #7
    9a50:	112fff1e 	bxne	lr
    9a54:	e92d4070 	push	{r4, r5, r6, lr}
    9a58:	e1a05001 	mov	r5, r1
    9a5c:	e59f3044 	ldr	r3, [pc, #68]	; 9aa8 <gpio_set_function+0x64>
    9a60:	e0832093 	umull	r2, r3, r3, r0
    9a64:	e1a031a3 	lsr	r3, r3, #3
    9a68:	e1a06003 	mov	r6, r3
    9a6c:	e0833103 	add	r3, r3, r3, lsl #2
    9a70:	e1a02083 	lsl	r2, r3, #1
    9a74:	e0403002 	sub	r3, r0, r2
    9a78:	e0834083 	add	r4, r3, r3, lsl #1
    9a7c:	e2866302 	add	r6, r6, #134217728	; 0x8000000
    9a80:	e2866702 	add	r6, r6, #524288	; 0x80000
    9a84:	e1a06106 	lsl	r6, r6, #2
    9a88:	e1a00006 	mov	r0, r6
    9a8c:	ebffff89 	bl	98b8 <GET32>
    9a90:	e3a01007 	mov	r1, #7
    9a94:	e1c01411 	bic	r1, r0, r1, lsl r4
    9a98:	e1811415 	orr	r1, r1, r5, lsl r4
    9a9c:	e1a00006 	mov	r0, r6
    9aa0:	ebffff78 	bl	9888 <PUT32>
    9aa4:	e8bd8070 	pop	{r4, r5, r6, pc}
    9aa8:	cccccccd 	stclgt	12, cr12, [ip], {205}	; 0xcd

00009aac <gpio_set_output>:
    9aac:	e92d4010 	push	{r4, lr}
    9ab0:	e3a01001 	mov	r1, #1
    9ab4:	ebffffe2 	bl	9a44 <gpio_set_function>
    9ab8:	e8bd8010 	pop	{r4, pc}

00009abc <gpio_set_on>:
    9abc:	e350001f 	cmp	r0, #31
    9ac0:	812fff1e 	bxhi	lr
    9ac4:	e92d4010 	push	{r4, lr}
    9ac8:	e3a01001 	mov	r1, #1
    9acc:	e1a01011 	lsl	r1, r1, r0
    9ad0:	e59f0004 	ldr	r0, [pc, #4]	; 9adc <gpio_set_on+0x20>
    9ad4:	ebffff6b 	bl	9888 <PUT32>
    9ad8:	e8bd8010 	pop	{r4, pc}
    9adc:	2020001c 	eorcs	r0, r0, ip, lsl r0

00009ae0 <gpio_set_off>:
    9ae0:	e350001f 	cmp	r0, #31
    9ae4:	812fff1e 	bxhi	lr
    9ae8:	e92d4010 	push	{r4, lr}
    9aec:	e3a01001 	mov	r1, #1
    9af0:	e1a01011 	lsl	r1, r1, r0
    9af4:	e59f0004 	ldr	r0, [pc, #4]	; 9b00 <gpio_set_off+0x20>
    9af8:	ebffff62 	bl	9888 <PUT32>
    9afc:	e8bd8010 	pop	{r4, pc}
    9b00:	20200028 	eorcs	r0, r0, r8, lsr #32

00009b04 <gpio_set_input>:
    9b04:	e92d4010 	push	{r4, lr}
    9b08:	e3a01000 	mov	r1, #0
    9b0c:	ebffffcc 	bl	9a44 <gpio_set_function>
    9b10:	e8bd8010 	pop	{r4, pc}

00009b14 <gpio_write>:
    9b14:	e92d4010 	push	{r4, lr}
    9b18:	e3510000 	cmp	r1, #0
    9b1c:	1a000001 	bne	9b28 <gpio_write+0x14>
    9b20:	ebffffee 	bl	9ae0 <gpio_set_off>
    9b24:	e8bd8010 	pop	{r4, pc}
    9b28:	ebffffe3 	bl	9abc <gpio_set_on>
    9b2c:	e8bd8010 	pop	{r4, pc}

00009b30 <gpio_read>:
    9b30:	e350001f 	cmp	r0, #31
    9b34:	8a000007 	bhi	9b58 <gpio_read+0x28>
    9b38:	e92d4010 	push	{r4, lr}
    9b3c:	e200401f 	and	r4, r0, #31
    9b40:	e59f3018 	ldr	r3, [pc, #24]	; 9b60 <gpio_read+0x30>
    9b44:	e08302a0 	add	r0, r3, r0, lsr #5
    9b48:	ebffff5a 	bl	98b8 <GET32>
    9b4c:	e1a00430 	lsr	r0, r0, r4
    9b50:	e2000001 	and	r0, r0, #1
    9b54:	e8bd8010 	pop	{r4, pc}
    9b58:	e3e00000 	mvn	r0, #0
    9b5c:	e12fff1e 	bx	lr
    9b60:	20200034 	eorcs	r0, r0, r4, lsr r0

00009b64 <kmalloc_heap_end>:
    9b64:	e59f3004 	ldr	r3, [pc, #4]	; 9b70 <kmalloc_heap_end+0xc>
    9b68:	e5930000 	ldr	r0, [r3]
    9b6c:	e12fff1e 	bx	lr
    9b70:	00009d18 	andeq	r9, r0, r8, lsl sp

00009b74 <kmalloc_heap_start>:
    9b74:	e59f0000 	ldr	r0, [pc]	; 9b7c <kmalloc_heap_start+0x8>
    9b78:	e12fff1e 	bx	lr
    9b7c:	0000acb8 			; <UNDEFINED> instruction: 0x0000acb8

00009b80 <kmalloc_init_set_start>:
    9b80:	e59f3038 	ldr	r3, [pc, #56]	; 9bc0 <kmalloc_init_set_start+0x40>
    9b84:	e5933000 	ldr	r3, [r3]
    9b88:	e1500003 	cmp	r0, r3
    9b8c:	9a000003 	bls	9ba0 <kmalloc_init_set_start+0x20>
    9b90:	e59f3028 	ldr	r3, [pc, #40]	; 9bc0 <kmalloc_init_set_start+0x40>
    9b94:	e5830000 	str	r0, [r3]
    9b98:	e5830004 	str	r0, [r3, #4]
    9b9c:	e12fff1e 	bx	lr
    9ba0:	e92d4010 	push	{r4, lr}
    9ba4:	ebfffd85 	bl	91c0 <rpi_reset_putc>
    9ba8:	e3a03016 	mov	r3, #22
    9bac:	e59f2010 	ldr	r2, [pc, #16]	; 9bc4 <kmalloc_init_set_start+0x44>
    9bb0:	e59f1010 	ldr	r1, [pc, #16]	; 9bc8 <kmalloc_init_set_start+0x48>
    9bb4:	e59f0010 	ldr	r0, [pc, #16]	; 9bcc <kmalloc_init_set_start+0x4c>
    9bb8:	ebfffd65 	bl	9154 <printk>
    9bbc:	ebfffed9 	bl	9728 <clean_reboot>
    9bc0:	00009d18 	andeq	r9, r0, r8, lsl sp
    9bc4:	0000a76c 	andeq	sl, r0, ip, ror #14
    9bc8:	0000a79c 	muleq	r0, ip, r7
    9bcc:	0000a7a8 	andeq	sl, r0, r8, lsr #15

00009bd0 <kmalloc>:
    9bd0:	e92d4010 	push	{r4, lr}
    9bd4:	e3500000 	cmp	r0, #0
    9bd8:	0a00000a 	beq	9c08 <kmalloc+0x38>
    9bdc:	e2802007 	add	r2, r0, #7
    9be0:	e3c22007 	bic	r2, r2, #7
    9be4:	e59f3038 	ldr	r3, [pc, #56]	; 9c24 <kmalloc+0x54>
    9be8:	e5934000 	ldr	r4, [r3]
    9bec:	e0841002 	add	r1, r4, r2
    9bf0:	e5831000 	str	r1, [r3]
    9bf4:	e3a01000 	mov	r1, #0
    9bf8:	e1a00004 	mov	r0, r4
    9bfc:	ebfffd4c 	bl	9134 <memset>
    9c00:	e1a00004 	mov	r0, r4
    9c04:	e8bd8010 	pop	{r4, pc}
    9c08:	ebfffd6c 	bl	91c0 <rpi_reset_putc>
    9c0c:	e3a0301b 	mov	r3, #27
    9c10:	e59f2010 	ldr	r2, [pc, #16]	; 9c28 <kmalloc+0x58>
    9c14:	e59f1010 	ldr	r1, [pc, #16]	; 9c2c <kmalloc+0x5c>
    9c18:	e59f0010 	ldr	r0, [pc, #16]	; 9c30 <kmalloc+0x60>
    9c1c:	ebfffd4c 	bl	9154 <printk>
    9c20:	ebfffec0 	bl	9728 <clean_reboot>
    9c24:	00009d18 	andeq	r9, r0, r8, lsl sp
    9c28:	0000a784 	andeq	sl, r0, r4, lsl #15
    9c2c:	0000a79c 	muleq	r0, ip, r7
    9c30:	0000a7c4 	andeq	sl, r0, r4, asr #15

00009c34 <kmalloc_init>:
    9c34:	e12fff1e 	bx	lr

00009c38 <kmalloc_heap_ptr>:
    9c38:	e92d4010 	push	{r4, lr}
    9c3c:	ebffffcc 	bl	9b74 <kmalloc_heap_start>
    9c40:	e8bd8010 	pop	{r4, pc}

00009c44 <kmalloc_aligned>:
    9c44:	e92d4010 	push	{r4, lr}
    9c48:	e2613000 	rsb	r3, r1, #0
    9c4c:	e1d12003 	bics	r2, r1, r3
    9c50:	1a00000b 	bne	9c84 <kmalloc_aligned+0x40>
    9c54:	e59f2060 	ldr	r2, [pc, #96]	; 9cbc <kmalloc_aligned+0x78>
    9c58:	e5922000 	ldr	r2, [r2]
    9c5c:	e0812002 	add	r2, r1, r2
    9c60:	e2422001 	sub	r2, r2, #1
    9c64:	e0033002 	and	r3, r3, r2
    9c68:	e2411001 	sub	r1, r1, #1
    9c6c:	e1130001 	tst	r3, r1
    9c70:	1a00000a 	bne	9ca0 <kmalloc_aligned+0x5c>
    9c74:	e59f2040 	ldr	r2, [pc, #64]	; 9cbc <kmalloc_aligned+0x78>
    9c78:	e5823000 	str	r3, [r2]
    9c7c:	ebffffd3 	bl	9bd0 <kmalloc>
    9c80:	e8bd8010 	pop	{r4, pc}
    9c84:	ebfffd4d 	bl	91c0 <rpi_reset_putc>
    9c88:	e3a0302a 	mov	r3, #42	; 0x2a
    9c8c:	e59f202c 	ldr	r2, [pc, #44]	; 9cc0 <kmalloc_aligned+0x7c>
    9c90:	e59f102c 	ldr	r1, [pc, #44]	; 9cc4 <kmalloc_aligned+0x80>
    9c94:	e59f002c 	ldr	r0, [pc, #44]	; 9cc8 <kmalloc_aligned+0x84>
    9c98:	ebfffd2d 	bl	9154 <printk>
    9c9c:	ebfffea1 	bl	9728 <clean_reboot>
    9ca0:	ebfffd46 	bl	91c0 <rpi_reset_putc>
    9ca4:	e3a03030 	mov	r3, #48	; 0x30
    9ca8:	e59f2010 	ldr	r2, [pc, #16]	; 9cc0 <kmalloc_aligned+0x7c>
    9cac:	e59f1010 	ldr	r1, [pc, #16]	; 9cc4 <kmalloc_aligned+0x80>
    9cb0:	e59f0014 	ldr	r0, [pc, #20]	; 9ccc <kmalloc_aligned+0x88>
    9cb4:	ebfffd26 	bl	9154 <printk>
    9cb8:	ebfffe9a 	bl	9728 <clean_reboot>
    9cbc:	00009d18 	andeq	r9, r0, r8, lsl sp
    9cc0:	0000a78c 	andeq	sl, r0, ip, lsl #15
    9cc4:	0000a79c 	muleq	r0, ip, r7
    9cc8:	0000a7d8 	ldrdeq	sl, [r0], -r8
    9ccc:	0000a838 	andeq	sl, r0, r8, lsr r8

00009cd0 <kfree>:
    9cd0:	e12fff1e 	bx	lr

00009cd4 <kfree_all>:
    9cd4:	e59f3008 	ldr	r3, [pc, #8]	; 9ce4 <kfree_all+0x10>
    9cd8:	e5932004 	ldr	r2, [r3, #4]
    9cdc:	e5832000 	str	r2, [r3]
    9ce0:	e12fff1e 	bx	lr
    9ce4:	00009d18 	andeq	r9, r0, r8, lsl sp

00009ce8 <kfree_after>:
    9ce8:	e59f3004 	ldr	r3, [pc, #4]	; 9cf4 <kfree_after+0xc>
    9cec:	e5830000 	str	r0, [r3]
    9cf0:	e12fff1e 	bx	lr
    9cf4:	00009d18 	andeq	r9, r0, r8, lsl sp

00009cf8 <dev_barrier>:
    9cf8:	ea000002 	b	9d08 <dsb>

00009cfc <dmb>:
    9cfc:	e3a00000 	mov	r0, #0
    9d00:	ee070fba 	mcr	15, 0, r0, cr7, cr10, {5}
    9d04:	e12fff1e 	bx	lr

00009d08 <dsb>:
    9d08:	ee070f9a 	mcr	15, 0, r0, cr7, cr10, {4}
    9d0c:	e12fff1e 	bx	lr

Disassembly of section .data:

00009d10 <__data_start__>:
    9d10:	000091ac 	andeq	r9, r0, ip, lsr #3

00009d14 <putk>:
    9d14:	000091e8 	andeq	r9, r0, r8, ror #3

00009d18 <heap>:
    9d18:	0000acb8 			; <UNDEFINED> instruction: 0x0000acb8

00009d1c <heap_start>:
    9d1c:	0000acb8 			; <UNDEFINED> instruction: 0x0000acb8

Disassembly of section .rodata:

00009d20 <__FUNCTION__.4202>:
    9d20:	74736574 	ldrbtvc	r6, [r3], #-1396	; 0x574
    9d24:	00000031 	andeq	r0, r0, r1, lsr r0

00009d28 <__FUNCTION__.4208>:
    9d28:	6d746f6e 	ldclvs	15, cr6, [r4, #-440]!	; 0xfffffe48
    9d2c:	006e6961 	rsbeq	r6, lr, r1, ror #18
    9d30:	74736574 	ldrbtvc	r6, [r3], #-1396	; 0x574
    9d34:	61702f73 	cmnvs	r0, r3, ror pc
    9d38:	2d327472 	cfldrscs	mvf7, [r2, #-456]!	; 0xfffffe38
    9d3c:	74736574 	ldrbtvc	r6, [r3], #-1396	; 0x574
    9d40:	00632e36 	rsbeq	r2, r3, r6, lsr lr
    9d44:	43415254 	movtmi	r5, #4692	; 0x1254
    9d48:	00003a45 	andeq	r3, r0, r5, asr #20
    9d4c:	6f6c6c61 	svcvs	0x006c6c61
    9d50:	65722063 	ldrbvs	r2, [r2, #-99]!	; 0x63
    9d54:	6e727574 	mrcvs	5, 3, r7, cr2, cr4, {3}
    9d58:	25206465 	strcs	r6, [r0, #-1125]!	; 0x465
    9d5c:	00000a70 	andeq	r0, r0, r0, ror sl
    9d60:	74204347 	strtvc	r4, [r0], #-839	; 0x347
    9d64:	36747365 	ldrbtcc	r7, [r4], -r5, ror #6
    9d68:	0000000a 	andeq	r0, r0, sl
    9d6c:	74736574 	ldrbtvc	r6, [r3], #-1396	; 0x574
    9d70:	65722031 	ldrbvs	r2, [r2, #-49]!	; 0x31
    9d74:	6e727574 	mrcvs	5, 3, r7, cr2, cr4, {3}
    9d78:	25206465 	strcs	r6, [r0, #-1125]!	; 0x465
    9d7c:	00000a70 	andeq	r0, r0, r0, ror sl
    9d80:	494e4150 	stmdbmi	lr, {r4, r6, r8, lr}^
    9d84:	73253a43 	teqvc	r5, #274432	; 0x43000
    9d88:	3a73253a 	bcc	1cd3278 <__bss_end__+0x1cc85c0>
    9d8c:	693a6425 	ldmdbvs	sl!, {r0, r2, r5, sl, sp, lr}
    9d90:	6c61766e 	stclvs	6, cr7, [r1], #-440	; 0xfffffe48
    9d94:	65206469 	strvs	r6, [r0, #-1129]!	; 0x469
    9d98:	726f7272 	rsbvc	r7, pc, #536870919	; 0x20000007
    9d9c:	0a0a2121 	beq	292228 <__bss_end__+0x287570>
    9da0:	00000000 	andeq	r0, r0, r0
    9da4:	494e4150 	stmdbmi	lr, {r4, r6, r8, lr}^
    9da8:	73253a43 	teqvc	r5, #274432	; 0x43000
    9dac:	3a73253a 	bcc	1cd329c <__bss_end__+0x1cc85e4>
    9db0:	733a6425 	teqvc	sl, #620756992	; 0x25000000
    9db4:	6c756f68 	ldclvs	15, cr6, [r5], #-416	; 0xfffffe60
    9db8:	61682064 	cmnvs	r8, r4, rrx
    9dbc:	6e206576 	mcrvs	5, 1, r6, cr0, cr6, {3}
    9dc0:	6564206f 	strbvs	r2, [r4, #-111]!	; 0x6f
    9dc4:	696e6966 	stmdbvs	lr!, {r1, r2, r5, r6, r8, fp, sp, lr}^
    9dc8:	6c206574 	cfstr32vs	mvfx6, [r0], #-464	; 0xfffffe30
    9dcc:	736b6165 	cmnvc	fp, #1073741849	; 0x40000019
    9dd0:	000a0a21 	andeq	r0, sl, r1, lsr #20
    9dd4:	43435553 	movtmi	r5, #13651	; 0x3553
    9dd8:	3a535345 	bcc	14deaf4 <__bss_end__+0x14d3e3c>
    9ddc:	74656420 	strbtvc	r6, [r5], #-1056	; 0x420
    9de0:	65746365 	ldrbvs	r6, [r4, #-869]!	; 0x365
    9de4:	20612064 	rsbcs	r2, r1, r4, rrx
    9de8:	6279616d 	rsbsvs	r6, r9, #1073741851	; 0x4000001b
    9dec:	656c2065 	strbvs	r2, [ip, #-101]!	; 0x65
    9df0:	0a216b61 	beq	864b7c <__bss_end__+0x859ec4>
    9df4:	00000000 	andeq	r0, r0, r0
    9df8:	494e4150 	stmdbmi	lr, {r4, r6, r8, lr}^
    9dfc:	73253a43 	teqvc	r5, #274432	; 0x43000
    9e00:	3a73253a 	bcc	1cd32f0 <__bss_end__+0x1cc8638>
    9e04:	733a6425 	teqvc	sl, #620756992	; 0x25000000
    9e08:	6c756f68 	ldclvs	15, cr6, [r5], #-416	; 0xfffffe60
    9e0c:	61682064 	cmnvs	r8, r4, rrx
    9e10:	66206576 			; <UNDEFINED> instruction: 0x66206576
    9e14:	646e756f 	strbtvs	r7, [lr], #-1391	; 0x56f
    9e18:	6d206120 	stfvss	f6, [r0, #-128]!	; 0xffffff80
    9e1c:	65627961 	strbvs	r7, [r2, #-2401]!	; 0x961
    9e20:	61656c20 	cmnvs	r5, r0, lsr #24
    9e24:	0a0a216b 	beq	2923d8 <__bss_end__+0x287720>
    9e28:	00000000 	andeq	r0, r0, r0

00009e2c <__FUNCTION__.4278>:
    9e2c:	63656863 	cmnvs	r5, #6488064	; 0x630000
    9e30:	64685f6b 	strbtvs	r5, [r8], #-3947	; 0xf6b
    9e34:	00000072 	andeq	r0, r0, r2, ror r0

00009e38 <__FUNCTION__.4265>:
    9e38:	695f6b63 	ldmdbvs	pc, {r0, r1, r5, r6, r8, r9, fp, sp, lr}^	; <UNPREDICTABLE>
    9e3c:	0074696e 	rsbseq	r6, r4, lr, ror #18

00009e40 <__FUNCTION__.4304>:
    9e40:	72666b63 	rsbvc	r6, r6, #101376	; 0x18c00
    9e44:	00006565 	andeq	r6, r0, r5, ror #10

00009e48 <__FUNCTION__.4313>:
    9e48:	6c616b63 	stclvs	11, cr6, [r1], #-396	; 0xfffffe74
    9e4c:	00636f6c 	rsbeq	r6, r3, ip, ror #30

00009e50 <__FUNCTION__.4324>:
    9e50:	685f6b63 	ldmdavs	pc, {r0, r1, r5, r6, r8, r9, fp, sp, lr}^	; <UNPREDICTABLE>
    9e54:	5f706165 	svcpl	0x00706165
    9e58:	6f727265 	svcvs	0x00727265
    9e5c:	00007372 	andeq	r7, r0, r2, ror r3

00009e60 <__FUNCTION__.4333>:
    9e60:	665f6b63 	ldrbvs	r6, [pc], -r3, ror #22
    9e64:	74737269 	ldrbtvc	r7, [r3], #-617	; 0x269
    9e68:	7264685f 	rsbvc	r6, r4, #6225920	; 0x5f0000
    9e6c:	00000000 	andeq	r0, r0, r0

00009e70 <__FUNCTION__.4338>:
    9e70:	6e5f6b63 	vnmlavs.f64	d22, d15, d19
    9e74:	5f747865 	svcpl	0x00747865
    9e78:	00726468 	rsbseq	r6, r2, r8, ror #8
    9e7c:	4f525245 	svcmi	0x00525245
    9e80:	00003a52 	andeq	r3, r0, r2, asr sl
    9e84:	636f6c62 	cmnvs	pc, #25088	; 0x6200
    9e88:	7025206b 	eorvc	r2, r5, fp, rrx
    9e8c:	726f6320 	rsbvc	r6, pc, #32, 6	; 0x80000000
    9e90:	74707572 	ldrbtvc	r7, [r0], #-1394	; 0x572
    9e94:	61206465 	teqvs	r0, r5, ror #8
    9e98:	666f2074 			; <UNDEFINED> instruction: 0x666f2074
    9e9c:	74657366 	strbtvc	r7, [r5], #-870	; 0x366
    9ea0:	0a642520 	beq	1913328 <__bss_end__+0x1908670>
    9ea4:	00000000 	andeq	r0, r0, r0
    9ea8:	79626e09 	stmdbvc	r2!, {r0, r3, r9, sl, fp, sp, lr}^
    9eac:	3d736574 	cfldr64cc	mvdx6, [r3, #-464]!	; 0xfffffe30
    9eb0:	000a6425 	andeq	r6, sl, r5, lsr #8
    9eb4:	6f6c4209 	svcvs	0x006c4209
    9eb8:	61206b63 	teqvs	r0, r3, ror #22
    9ebc:	636f6c6c 	cmnvs	pc, #108, 24	; 0x6c00
    9ec0:	64657461 	strbtvs	r7, [r5], #-1121	; 0x461
    9ec4:	3a746120 	bcc	1d2234c <__bss_end__+0x1d17694>
    9ec8:	3a732520 	bcc	1cd3350 <__bss_end__+0x1cc8698>
    9ecc:	253a7325 	ldrcs	r7, [sl, #-805]!	; 0x325
    9ed0:	00000a64 	andeq	r0, r0, r4, ror #20
    9ed4:	6f6c4209 	svcvs	0x006c4209
    9ed8:	66206b63 	strtvs	r6, [r0], -r3, ror #22
    9edc:	64656572 	strbtvs	r6, [r5], #-1394	; 0x572
    9ee0:	3a746120 	bcc	1d22368 <__bss_end__+0x1d176b0>
    9ee4:	3a732520 	bcc	1cd336c <__bss_end__+0x1cc86b4>
    9ee8:	253a7325 	ldrcs	r7, [sl, #-805]!	; 0x325
    9eec:	00000a64 	andeq	r0, r0, r4, ror #20
    9ef0:	5d695b70 	vstmdbpl	r9!, {d21-<overflow reg d76>}
    9ef4:	7825203a 	stmdavc	r5!, {r1, r3, r4, r5, sp}
    9ef8:	0000000a 	andeq	r0, r0, sl
    9efc:	494e4150 	stmdbmi	lr, {r4, r6, r8, lr}^
    9f00:	73253a43 	teqvc	r5, #274432	; 0x43000
    9f04:	3a73253a 	bcc	1cd33f4 <__bss_end__+0x1cc873c>
    9f08:	683a6425 	ldmdavs	sl!, {r0, r2, r5, sl, sp, lr}
    9f0c:	635f7264 	cmpvs	pc, #100, 4	; 0x40000006
    9f10:	6d75736b 	ldclvs	3, cr7, [r5, #-428]!	; 0xfffffe54
    9f14:	6c61765f 	stclvs	6, cr7, [r1], #-380	; 0xfffffe84
    9f18:	203d3d20 	eorscs	r3, sp, r0, lsr #26
    9f1c:	633e2d68 	teqvs	lr, #104, 26	; 0x1a00
    9f20:	6d75736b 	ldclvs	3, cr7, [r5, #-428]!	; 0xfffffe54
    9f24:	0000000a 	andeq	r0, r0, sl
    9f28:	6c616b63 	stclvs	11, cr6, [r1], #-396	; 0xfffffe74
    9f2c:	2e636f6c 	cdpcs	15, 6, cr6, cr3, cr12, {3}
    9f30:	00000063 	andeq	r0, r0, r3, rrx
    9f34:	494e4150 	stmdbmi	lr, {r4, r6, r8, lr}^
    9f38:	73253a43 	teqvc	r5, #274432	; 0x43000
    9f3c:	3a73253a 	bcc	1cd342c <__bss_end__+0x1cc8774>
    9f40:	683a6425 	ldmdavs	sl!, {r0, r2, r5, sl, sp, lr}
    9f44:	74733e2d 	ldrbtvc	r3, [r3], #-3629	; 0xe2d
    9f48:	20657461 	rsbcs	r7, r5, r1, ror #8
    9f4c:	41203d3d 	teqmi	r0, sp, lsr sp
    9f50:	434f4c4c 	movtmi	r4, #64588	; 0xfc4c
    9f54:	7c204445 	cfstrsvc	mvf4, [r0], #-276	; 0xfffffeec
    9f58:	2d68207c 	stclcs	0, cr2, [r8, #-496]!	; 0xfffffe10
    9f5c:	6174733e 	cmnvs	r4, lr, lsr r3
    9f60:	3d206574 	cfstr32cc	mvfx6, [r0, #-464]!	; 0xfffffe30
    9f64:	5246203d 	subpl	r2, r6, #61	; 0x3d
    9f68:	0a444545 	beq	111b484 <__bss_end__+0x11107cc>
    9f6c:	00000000 	andeq	r0, r0, r0
    9f70:	494e4150 	stmdbmi	lr, {r4, r6, r8, lr}^
    9f74:	73253a43 	teqvc	r5, #274432	; 0x43000
    9f78:	3a73253a 	bcc	1cd3468 <__bss_end__+0x1cc87b0>
    9f7c:	613a6425 	teqvs	sl, r5, lsr #8
    9f80:	6e67696c 	cdpvs	9, 6, cr6, cr7, cr12, {3}
    9f84:	68286465 	stmdavs	r8!, {r0, r2, r5, r6, sl, sp, lr}
    9f88:	5f706165 	svcpl	0x00706165
    9f8c:	72617473 	rsbvc	r7, r1, #1929379840	; 0x73000000
    9f90:	38202c74 	stmdacc	r0!, {r2, r4, r5, r6, sl, fp, sp}
    9f94:	00000a29 	andeq	r0, r0, r9, lsr #20
    9f98:	657a6973 	ldrbvs	r6, [sl, #-2419]!	; 0x973
    9f9c:	6820666f 	stmdavs	r0!, {r0, r1, r2, r3, r5, r6, r9, sl, sp, lr}
    9fa0:	253d7264 	ldrcs	r7, [sp, #-612]!	; 0x264
    9fa4:	72202c64 	eorvc	r2, r0, #100, 24	; 0x6400
    9fa8:	6f7a6465 	svcvs	0x007a6465
    9fac:	253d656e 	ldrcs	r6, [sp, #-1390]!	; 0x56e
    9fb0:	00000a64 	andeq	r0, r0, r4, ror #20
    9fb4:	4f525245 	svcmi	0x00525245
    9fb8:	73253a52 	teqvc	r5, #335872	; 0x52000
    9fbc:	3a73253a 	bcc	1cd34ac <__bss_end__+0x1cc87f4>
    9fc0:	203a6425 	eorscs	r6, sl, r5, lsr #8
    9fc4:	534c4146 	movtpl	r4, #49478	; 0xc146
    9fc8:	683c2845 	ldmdavs	ip!, {r0, r2, r6, fp, sp}
    9fcc:	3e706165 	rpwccsz	f6, f0, f5
    9fd0:	6e203a29 	vmulvs.f32	s6, s0, s19
    9fd4:	6920746f 	stmdbvs	r0!, {r0, r1, r2, r3, r5, r6, sl, ip, sp, lr}
    9fd8:	6974696e 	ldmdbvs	r4!, {r1, r2, r3, r5, r6, r8, fp, sp, lr}^
    9fdc:	7a696c61 	bvc	1a65168 <__bss_end__+0x1a5a4b0>
    9fe0:	0a3f6465 	beq	fe317c <__bss_end__+0xfd84c4>
    9fe4:	00000000 	andeq	r0, r0, r0
    9fe8:	65657266 	strbvs	r7, [r5, #-614]!	; 0x266
    9fec:	20676e69 	rsbcs	r6, r7, r9, ror #28
    9ff0:	000a7025 	andeq	r7, sl, r5, lsr #32
    9ff4:	6f6c6c61 	svcvs	0x006c6c61
    9ff8:	69746163 	ldmdbvs	r4!, {r0, r1, r5, r6, r8, sp, lr}^
    9ffc:	2520676e 	strcs	r6, [r0, #-1902]!	; 0x76e
    a000:	79622064 	stmdbvc	r2!, {r2, r5, r6, sp}^
    a004:	0a736574 	beq	1ce35dc <__bss_end__+0x1cd8924>
    a008:	00000000 	andeq	r0, r0, r0
    a00c:	43415254 	movtmi	r5, #4692	; 0x1254
    a010:	52453a45 	subpl	r3, r5, #282624	; 0x45000
    a014:	00524f52 	subseq	r4, r2, r2, asr pc
    a018:	657a6973 	ldrbvs	r6, [sl, #-2419]!	; 0x973
    a01c:	65766f20 	ldrbvs	r6, [r6, #-3872]!	; 0xf20
    a020:	6f6c6672 	svcvs	0x006c6672
    a024:	3a646577 	bcc	1923608 <__bss_end__+0x1918950>
    a028:	20642520 	rsbcs	r2, r4, r0, lsr #10
    a02c:	65747962 	ldrbvs	r7, [r4, #-2402]!	; 0x962
    a030:	73692073 	cmnvc	r9, #115	; 0x73
    a034:	6f6f7420 	svcvs	0x006f7420
    a038:	72616c20 	rsbvc	r6, r1, #32, 24	; 0x2000
    a03c:	000a6567 	andeq	r6, sl, r7, ror #10
    a040:	494e4150 	stmdbmi	lr, {r4, r6, r8, lr}^
    a044:	73253a43 	teqvc	r5, #274432	; 0x43000
    a048:	3a73253a 	bcc	1cd3538 <__bss_end__+0x1cc8880>
    a04c:	733a6425 	teqvc	sl, #620756992	; 0x25000000
    a050:	20657a69 	rsbcs	r7, r5, r9, ror #20
    a054:	7265766f 	rsbvc	r7, r5, #116391936	; 0x6f00000
    a058:	776f6c66 	strbvc	r6, [pc, -r6, ror #24]!
    a05c:	203a6465 	eorscs	r6, sl, r5, ror #8
    a060:	62206425 	eorvs	r6, r0, #620756992	; 0x25000000
    a064:	73657479 	cmnvc	r5, #2030043136	; 0x79000000
    a068:	20736920 	rsbscs	r6, r3, r0, lsr #18
    a06c:	206f6f74 	rsbcs	r6, pc, r4, ror pc	; <UNPREDICTABLE>
    a070:	6772616c 	ldrbvs	r6, [r2, -ip, ror #2]!
    a074:	000a0a65 	andeq	r0, sl, r5, ror #20
    a078:	2074756f 	rsbscs	r7, r4, pc, ror #10
    a07c:	6d20666f 	stcvs	6, cr6, [r0, #-444]!	; 0xfffffe44
    a080:	726f6d65 	rsbvc	r6, pc, #6464	; 0x1940
    a084:	20202179 	eorcs	r2, r0, r9, ror r1
    a088:	65766168 	ldrbvs	r6, [r6, #-360]!	; 0x168
    a08c:	6c6e6f20 	stclvs	15, cr6, [lr], #-128	; 0xffffff80
    a090:	64252079 	strtvs	r2, [r5], #-121	; 0x79
    a094:	66656c20 	strbtvs	r6, [r5], -r0, lsr #24
    a098:	6e202c74 	mcrvs	12, 1, r2, cr0, cr4, {3}
    a09c:	20646565 	rsbcs	r6, r4, r5, ror #10
    a0a0:	000a6425 	andeq	r6, sl, r5, lsr #8
    a0a4:	494e4150 	stmdbmi	lr, {r4, r6, r8, lr}^
    a0a8:	73253a43 	teqvc	r5, #274432	; 0x43000
    a0ac:	3a73253a 	bcc	1cd359c <__bss_end__+0x1cc88e4>
    a0b0:	6f3a6425 	svcvs	0x003a6425
    a0b4:	6f207475 	svcvs	0x00207475
    a0b8:	656d2066 	strbvs	r2, [sp, #-102]!	; 0x66
    a0bc:	79726f6d 	ldmdbvc	r2!, {r0, r2, r3, r5, r6, r8, r9, sl, fp, sp, lr}^
    a0c0:	68202021 	stmdavs	r0!, {r0, r5, sp}
    a0c4:	20657661 	rsbcs	r7, r5, r1, ror #12
    a0c8:	796c6e6f 	stmdbvc	ip!, {r0, r1, r2, r3, r5, r6, r9, sl, fp, sp, lr}^
    a0cc:	20642520 	rsbcs	r2, r4, r0, lsr #10
    a0d0:	7466656c 	strbtvc	r6, [r6], #-1388	; 0x56c
    a0d4:	656e202c 	strbvs	r2, [lr, #-44]!	; 0x2c
    a0d8:	25206465 	strcs	r6, [r0, #-1125]!	; 0x465
    a0dc:	000a0a64 	andeq	r0, sl, r4, ror #20
    a0e0:	494e4150 	stmdbmi	lr, {r4, r6, r8, lr}^
    a0e4:	73253a43 	teqvc	r5, #274432	; 0x43000
    a0e8:	3a73253a 	bcc	1cd35d8 <__bss_end__+0x1cc8920>
    a0ec:	633a6425 	teqvs	sl, #620756992	; 0x25000000
    a0f0:	6b636568 	blvs	18e3698 <__bss_end__+0x18d89e0>
    a0f4:	7264685f 	rsbvc	r6, r4, #6225920	; 0x5f0000
    a0f8:	0a296828 	beq	a641a0 <__bss_end__+0xa594e8>
    a0fc:	00000000 	andeq	r0, r0, r0
    a100:	494e4150 	stmdbmi	lr, {r4, r6, r8, lr}^
    a104:	73253a43 	teqvc	r5, #274432	; 0x43000
    a108:	3a73253a 	bcc	1cd35f8 <__bss_end__+0x1cc8940>
    a10c:	633a6425 	teqvs	sl, #620756992	; 0x25000000
    a110:	6b636568 	blvs	18e36b8 <__bss_end__+0x18d8a00>
    a114:	6f6c625f 	svcvs	0x006c625f
    a118:	68286b63 	stmdavs	r8!, {r0, r1, r5, r6, r8, r9, fp, sp, lr}
    a11c:	00000a29 	andeq	r0, r0, r9, lsr #20
    a120:	6c616b63 	stclvs	11, cr6, [r1], #-396	; 0xfffffe74
    a124:	3a636f6c 	bcc	18e5edc <__bss_end__+0x18db224>
    a128:	6f6c6c61 	svcvs	0x006c6c61
    a12c:	65746163 	ldrbvs	r6, [r4, #-355]!	; 0x163
    a130:	64252064 	strtvs	r2, [r5], #-100	; 0x64
    a134:	74796220 	ldrbtvc	r6, [r9], #-544	; 0x220
    a138:	202c7365 	eorcs	r7, ip, r5, ror #6
    a13c:	746f7428 	strbtvc	r7, [pc], #-1064	; a144 <__FUNCTION__.4338+0x2d4>
    a140:	253d6c61 	ldrcs	r6, [sp, #-3169]!	; 0xc61
    a144:	202c2964 	eorcs	r2, ip, r4, ror #18
    a148:	3d727470 	cfldrdcc	mvd7, [r2, #-448]!	; 0xfffffe40
    a14c:	000a7025 	andeq	r7, sl, r5, lsr #32
    a150:	6e696f67 	cdpvs	15, 6, cr6, cr9, cr7, {3}
    a154:	6f742067 	svcvs	0x00742067
    a158:	65686320 	strbvs	r6, [r8, #-800]!	; 0x320
    a15c:	68206b63 	stmdavs	r0!, {r0, r1, r5, r6, r8, r9, fp, sp, lr}
    a160:	3a706165 	bcc	1c226fc <__bss_end__+0x1c17a44>
    a164:	20642520 	rsbcs	r2, r4, r0, lsr #10
    a168:	65747962 	ldrbvs	r7, [r4, #-2402]!	; 0x962
    a16c:	6c612073 	stclvs	0, cr2, [r1], #-460	; 0xfffffe34
    a170:	61636f6c 	cmnvs	r3, ip, ror #30
    a174:	2c646574 	cfstr64cs	mvdx6, [r4], #-464	; 0xfffffe30
    a178:	20642520 	rsbcs	r2, r4, r0, lsr #10
    a17c:	65747962 	ldrbvs	r7, [r4, #-2402]!	; 0x962
    a180:	656c2073 	strbvs	r2, [ip, #-115]!	; 0x73
    a184:	000a7466 	andeq	r7, sl, r6, ror #8
    a188:	494e4150 	stmdbmi	lr, {r4, r6, r8, lr}^
    a18c:	73253a43 	teqvc	r5, #274432	; 0x43000
    a190:	3a73253a 	bcc	1cd3680 <__bss_end__+0x1cc89c8>
    a194:	633a6425 	teqvs	sl, #620756992	; 0x25000000
    a198:	6b636568 	blvs	18e3740 <__bss_end__+0x18d8a88>
    a19c:	7274705f 	rsbsvc	r7, r4, #95	; 0x5f
    a1a0:	68203c20 	stmdavs	r0!, {r5, sl, fp, ip, sp}
    a1a4:	0a706165 	beq	1c22740 <__bss_end__+0x1c17a88>
    a1a8:	00000000 	andeq	r0, r0, r0
    a1ac:	64616568 	strbtvs	r6, [r1], #-1384	; 0x568
    a1b0:	69207265 	stmdbvs	r0!, {r0, r2, r5, r6, r9, ip, sp, lr}
    a1b4:	6f632073 	svcvs	0x00632073
    a1b8:	70757272 	rsbsvc	r7, r5, r2, ror r2
    a1bc:	00646574 	rsbeq	r6, r4, r4, ror r5
    a1c0:	6f725709 	svcvs	0x00725709
    a1c4:	62206574 	eorvs	r6, r0, #116, 10	; 0x1d000000
    a1c8:	6b636f6c 	blvs	18e5f80 <__bss_end__+0x18db2c8>
    a1cc:	74666120 	strbtvc	r6, [r6], #-288	; 0x120
    a1d0:	66207265 	strtvs	r7, [r0], -r5, ror #4
    a1d4:	21656572 	smccs	22098	; 0x5652
    a1d8:	0000000a 	andeq	r0, r0, sl
    a1dc:	63656863 	cmnvs	r5, #6488064	; 0x630000
    a1e0:	2064656b 	rsbcs	r6, r4, fp, ror #10
    a1e4:	62206425 	eorvs	r6, r0, #620756992	; 0x25000000
    a1e8:	6b636f6c 	blvs	18e5fa0 <__bss_end__+0x18db2e8>
    a1ec:	64202c73 	strtvs	r2, [r0], #-3187	; 0xc73
    a1f0:	63657465 	cmnvs	r5, #1694498816	; 0x65000000
    a1f4:	20646574 	rsbcs	r6, r4, r4, ror r5
    a1f8:	65206425 	strvs	r6, [r0, #-1061]!	; 0x425
    a1fc:	726f7272 	rsbvc	r7, pc, #536870919	; 0x20000007
    a200:	00000a73 	andeq	r0, r0, r3, ror sl
    a204:	43435553 	movtmi	r5, #13651	; 0x3553
    a208:	3a535345 	bcc	14def24 <__bss_end__+0x14d426c>
    a20c:	65686320 	strbvs	r6, [r8, #-800]!	; 0x320
    a210:	64656b63 	strbtvs	r6, [r5], #-2915	; 0xb63
    a214:	20642520 	rsbcs	r2, r4, r0, lsr #10
    a218:	636f6c62 	cmnvs	pc, #25088	; 0x6200
    a21c:	202c736b 	eorcs	r7, ip, fp, ror #6
    a220:	65746564 	ldrbvs	r6, [r4, #-1380]!	; 0x564
    a224:	64657463 	strbtvs	r7, [r5], #-1123	; 0x463
    a228:	206f6e20 	rsbcs	r6, pc, r0, lsr #28
    a22c:	6f727265 	svcvs	0x00727265
    a230:	000a7372 	andeq	r7, sl, r2, ror r3
    a234:	494e4150 	stmdbmi	lr, {r4, r6, r8, lr}^
    a238:	73253a43 	teqvc	r5, #274432	; 0x43000
    a23c:	3a73253a 	bcc	1cd372c <__bss_end__+0x1cc8a74>
    a240:	633a6425 	teqvs	sl, #620756992	; 0x25000000
    a244:	6b636568 	blvs	18e37ec <__bss_end__+0x18d8b34>
    a248:	7264685f 	rsbvc	r6, r4, #6225920	; 0x5f0000
    a24c:	72756328 	rsbsvc	r6, r5, #40, 6	; 0xa0000000
    a250:	64685f72 	strbtvs	r5, [r8], #-3954	; 0xf72
    a254:	000a2972 	andeq	r2, sl, r2, ror r9
    a258:	494e4150 	stmdbmi	lr, {r4, r6, r8, lr}^
    a25c:	73253a43 	teqvc	r5, #274432	; 0x43000
    a260:	3a73253a 	bcc	1cd3750 <__bss_end__+0x1cc8a98>
    a264:	283a6425 	ldmdacs	sl!, {r0, r2, r5, sl, sp, lr}
    a268:	746e6975 	strbtvc	r6, [lr], #-2421	; 0x975
    a26c:	2a745f38 	bcs	1d21f54 <__bss_end__+0x1d1729c>
    a270:	78656e29 	stmdavc	r5!, {r0, r3, r5, r9, sl, fp, sp, lr}^
    a274:	64685f74 	strbtvs	r5, [r8], #-3956	; 0xf74
    a278:	203c2072 	eorscs	r2, ip, r2, ror r0
    a27c:	70616568 	rsbvc	r6, r1, r8, ror #10
    a280:	0000000a 	andeq	r0, r0, sl
    a284:	494e4150 	stmdbmi	lr, {r4, r6, r8, lr}^
    a288:	73253a43 	teqvc	r5, #274432	; 0x43000
    a28c:	3a73253a 	bcc	1cd377c <__bss_end__+0x1cc8ac4>
    a290:	633a6425 	teqvs	sl, #620756992	; 0x25000000
    a294:	6b636568 	blvs	18e383c <__bss_end__+0x18d8b84>
    a298:	7264685f 	rsbvc	r6, r4, #6225920	; 0x5f0000
    a29c:	78656e28 	stmdavc	r5!, {r3, r5, r9, sl, fp, sp, lr}^
    a2a0:	64685f74 	strbtvs	r5, [r8], #-3956	; 0xf74
    a2a4:	000a2972 	andeq	r2, sl, r2, ror r9

0000a2a8 <__FUNCTION__.4279>:
    a2a8:	6b72616d 	blvs	1ca2864 <__bss_end__+0x1c97bac>
    a2ac:	00000000 	andeq	r0, r0, r0

0000a2b0 <__FUNCTION__.4307>:
    a2b0:	6b72616d 	blvs	1ca286c <__bss_end__+0x1c97bb4>
    a2b4:	6c6c615f 	stfvse	f6, [ip], #-380	; 0xfffffe84
    a2b8:	00000000 	andeq	r0, r0, r0

0000a2bc <__FUNCTION__.4345>:
    a2bc:	65657773 	strbvs	r7, [r5, #-1907]!	; 0x773
    a2c0:	72665f70 	rsbvc	r5, r6, #112, 30	; 0x1c0
    a2c4:	00006565 	andeq	r6, r0, r5, ror #10

0000a2c8 <__FUNCTION__.4327>:
    a2c8:	63656863 	cmnvs	r5, #6488064	; 0x630000
    a2cc:	6f6e5f6b 	svcvs	0x006e5f6b
    a2d0:	61656c5f 	cmnvs	r5, pc, asr ip
    a2d4:	0000006b 	andeq	r0, r0, fp, rrx

0000a2d8 <__FUNCTION__.4331>:
    a2d8:	63656863 	cmnvs	r5, #6488064	; 0x630000
    a2dc:	68735f6b 	ldmdavs	r3!, {r0, r1, r3, r5, r6, r8, r9, sl, fp, ip, lr}^
    a2e0:	646c756f 	strbtvs	r7, [ip], #-1391	; 0x56f
    a2e4:	61656c5f 	cmnvs	r5, pc, asr ip
    a2e8:	0000006b 	andeq	r0, r0, fp, rrx

0000a2ec <__FUNCTION__.4336>:
    a2ec:	6c706d69 	ldclvs	13, cr6, [r0], #-420	; 0xfffffe5c
    a2f0:	6e656d65 	cdpvs	13, 6, cr6, cr5, cr5, {3}
    a2f4:	68745f74 	ldmdavs	r4!, {r2, r4, r5, r6, r8, r9, sl, fp, ip, lr}^
    a2f8:	00007369 	andeq	r7, r0, r9, ror #6
    a2fc:	2d2d2d2d 	stccs	13, cr2, [sp, #-180]!	; 0xffffff4c
    a300:	2d2d2d2d 	stccs	13, cr2, [sp, #-180]!	; 0xffffff4c
    a304:	2d2d2d2d 	stccs	13, cr2, [sp, #-180]!	; 0xffffff4c
    a308:	2d2d2d2d 	stccs	13, cr2, [sp, #-180]!	; 0xffffff4c
    a30c:	2d2d2d2d 	stccs	13, cr2, [sp, #-180]!	; 0xffffff4c
    a310:	2d2d2d2d 	stccs	13, cr2, [sp, #-180]!	; 0xffffff4c
    a314:	2d2d2d2d 	stccs	13, cr2, [sp, #-180]!	; 0xffffff4c
    a318:	2d2d2d2d 	stccs	13, cr2, [sp, #-180]!	; 0xffffff4c
    a31c:	2d2d2d2d 	stccs	13, cr2, [sp, #-180]!	; 0xffffff4c
    a320:	2d2d2d2d 	stccs	13, cr2, [sp, #-180]!	; 0xffffff4c
    a324:	2d2d2d2d 	stccs	13, cr2, [sp, #-180]!	; 0xffffff4c
    a328:	2d2d2d2d 	stccs	13, cr2, [sp, #-180]!	; 0xffffff4c
    a32c:	2d2d2d2d 	stccs	13, cr2, [sp, #-180]!	; 0xffffff4c
    a330:	2d2d2d2d 	stccs	13, cr2, [sp, #-180]!	; 0xffffff4c
    a334:	00000a2d 	andeq	r0, r0, sp, lsr #20
    a338:	63656863 	cmnvs	r5, #6488064	; 0x630000
    a33c:	676e696b 	strbvs	r6, [lr, -fp, ror #18]!
    a340:	726f6620 	rsbvc	r6, pc, #32, 12	; 0x2000000
    a344:	61656c20 	cmnvs	r5, r0, lsr #24
    a348:	0a3a736b 	beq	ea70fc <__bss_end__+0xe9c444>
    a34c:	00000000 	andeq	r0, r0, r0
    a350:	4f525245 	svcmi	0x00525245
    a354:	43473a52 	movtmi	r3, #31314	; 0x7a52
    a358:	4645443a 			; <UNDEFINED> instruction: 0x4645443a
    a35c:	54494e49 	strbpl	r4, [r9], #-3657	; 0xe49
    a360:	454c2045 	strbmi	r2, [ip, #-69]	; 0x45
    a364:	6f204b41 	svcvs	0x00204b41
    a368:	78252066 	stmdavc	r5!, {r1, r2, r5, r6, sp}
    a36c:	0000000a 	andeq	r0, r0, sl
    a370:	4f525245 	svcmi	0x00525245
    a374:	43473a52 	movtmi	r3, #31314	; 0x7a52
    a378:	59414d3a 	stmdbpl	r1, {r1, r3, r4, r5, r8, sl, fp, lr}^
    a37c:	4c204542 	cfstr32mi	mvfx4, [r0], #-264	; 0xfffffef8
    a380:	204b4145 	subcs	r4, fp, r5, asr #2
    a384:	2520666f 	strcs	r6, [r0, #-1647]!	; 0x66f
    a388:	6e282078 	mcrvs	0, 1, r2, cr8, cr8, {3}
    a38c:	6f70206f 	svcvs	0x0070206f
    a390:	65746e69 	ldrbvs	r6, [r4, #-3689]!	; 0xe69
    a394:	6f742072 	svcvs	0x00742072
    a398:	65687420 	strbvs	r7, [r8, #-1056]!	; 0x420
    a39c:	61747320 	cmnvs	r4, r0, lsr #6
    a3a0:	0a297472 	beq	a67570 <__bss_end__+0xa5c8b8>
    a3a4:	00000000 	andeq	r0, r0, r0
    a3a8:	3a434709 	bcc	10dbfd4 <__bss_end__+0x10d131c>
    a3ac:	63656843 	cmnvs	r5, #4390912	; 0x430000
    a3b0:	2064656b 	rsbcs	r6, r4, fp, ror #10
    a3b4:	62206425 	eorvs	r6, r0, #620756992	; 0x25000000
    a3b8:	6b636f6c 	blvs	18e6170 <__bss_end__+0x18db4b8>
    a3bc:	000a2e73 	andeq	r2, sl, r3, ror lr
    a3c0:	43470909 	movtmi	r0, #30985	; 0x7909
    a3c4:	4355533a 	cmpmi	r5, #-402653184	; 0xe8000000
    a3c8:	53534543 	cmppl	r3, #281018368	; 0x10c00000
    a3cc:	6f4e203a 	svcvs	0x004e203a
    a3d0:	61656c20 	cmnvs	r5, r0, lsr #24
    a3d4:	6620736b 	strtvs	r7, [r0], -fp, ror #6
    a3d8:	646e756f 	strbtvs	r7, [lr], #-1391	; 0x56f
    a3dc:	00000a21 	andeq	r0, r0, r1, lsr #20
    a3e0:	43470909 	movtmi	r0, #30985	; 0x7909
    a3e4:	5252453a 	subspl	r4, r2, #243269632	; 0xe800000
    a3e8:	3a53524f 	bcc	14ded2c <__bss_end__+0x14d4074>
    a3ec:	20642520 	rsbcs	r2, r4, r0, lsr #10
    a3f0:	6f727265 	svcvs	0x00727265
    a3f4:	202c7372 	eorcs	r7, ip, r2, ror r3
    a3f8:	6d206425 	cfstrsvs	mvf6, [r0, #-148]!	; 0xffffff6c
    a3fc:	65627961 	strbvs	r7, [r2, #-2401]!	; 0x961
    a400:	7272655f 	rsbsvc	r6, r2, #398458880	; 0x17c00000
    a404:	0a73726f 	beq	1ce6dc8 <__bss_end__+0x1cdc110>
    a408:	00000000 	andeq	r0, r0, r0
    a40c:	2d2d2d2d 	stccs	13, cr2, [sp, #-180]!	; 0xffffff4c
    a410:	2d2d2d2d 	stccs	13, cr2, [sp, #-180]!	; 0xffffff4c
    a414:	2d2d2d2d 	stccs	13, cr2, [sp, #-180]!	; 0xffffff4c
    a418:	2d2d2d2d 	stccs	13, cr2, [sp, #-180]!	; 0xffffff4c
    a41c:	2d2d2d2d 	stccs	13, cr2, [sp, #-180]!	; 0xffffff4c
    a420:	2d2d2d2d 	stccs	13, cr2, [sp, #-180]!	; 0xffffff4c
    a424:	2d2d2d2d 	stccs	13, cr2, [sp, #-180]!	; 0xffffff4c
    a428:	2d2d2d2d 	stccs	13, cr2, [sp, #-180]!	; 0xffffff4c
    a42c:	2d2d2d2d 	stccs	13, cr2, [sp, #-180]!	; 0xffffff4c
    a430:	2d2d2d2d 	stccs	13, cr2, [sp, #-180]!	; 0xffffff4c
    a434:	2d2d2d2d 	stccs	13, cr2, [sp, #-180]!	; 0xffffff4c
    a438:	2d2d2d2d 	stccs	13, cr2, [sp, #-180]!	; 0xffffff4c
    a43c:	2d2d2d2d 	stccs	13, cr2, [sp, #-180]!	; 0xffffff4c
    a440:	2d2d2d2d 	stccs	13, cr2, [sp, #-180]!	; 0xffffff4c
    a444:	000a2d2d 	andeq	r2, sl, sp, lsr #26
    a448:	494e4150 	stmdbmi	lr, {r4, r6, r8, lr}^
    a44c:	73253a43 	teqvc	r5, #274432	; 0x43000
    a450:	3a73253a 	bcc	1cd3940 <__bss_end__+0x1cc8c88>
    a454:	703a6425 	eorsvc	r6, sl, r5, lsr #8
    a458:	000a653c 	andeq	r6, sl, ip, lsr r5
    a45c:	672d6b63 	strvs	r6, [sp, -r3, ror #22]!
    a460:	00632e63 	rsbeq	r2, r3, r3, ror #28
    a464:	494e4150 	stmdbmi	lr, {r4, r6, r8, lr}^
    a468:	73253a43 	teqvc	r5, #274432	; 0x43000
    a46c:	3a73253a 	bcc	1cd395c <__bss_end__+0x1cc8ca4>
    a470:	613a6425 	teqvs	sl, r5, lsr #8
    a474:	6e67696c 	cdpvs	9, 6, cr6, cr7, cr12, {3}
    a478:	70286465 	eorvc	r6, r8, r5, ror #8
    a47c:	0a29342c 	beq	a57534 <__bss_end__+0xa4c87c>
    a480:	00000000 	andeq	r0, r0, r0
    a484:	494e4150 	stmdbmi	lr, {r4, r6, r8, lr}^
    a488:	73253a43 	teqvc	r5, #274432	; 0x43000
    a48c:	3a73253a 	bcc	1cd397c <__bss_end__+0x1cc8cc4>
    a490:	613a6425 	teqvs	sl, r5, lsr #8
    a494:	6e67696c 	cdpvs	9, 6, cr6, cr7, cr12, {3}
    a498:	65286465 	strvs	r6, [r8, #-1125]!	; 0x465
    a49c:	0a29342c 	beq	a57554 <__bss_end__+0xa4c89c>
    a4a0:	00000000 	andeq	r0, r0, r0
    a4a4:	494e4150 	stmdbmi	lr, {r4, r6, r8, lr}^
    a4a8:	73253a43 	teqvc	r5, #274432	; 0x43000
    a4ac:	3a73253a 	bcc	1cd399c <__bss_end__+0x1cc8ce4>
    a4b0:	723a6425 	eorsvc	r6, sl, #620756992	; 0x25000000
    a4b4:	5b736765 	blpl	1ce4250 <__bss_end__+0x1cd9598>
    a4b8:	3d205d30 	stccc	13, cr5, [r0, #-192]!	; 0xffffff40
    a4bc:	7528203d 	strvc	r2, [r8, #-61]!	; 0x3d
    a4c0:	33746e69 	cmncc	r4, #1680	; 0x690
    a4c4:	29745f32 	ldmdbcs	r4!, {r1, r4, r5, r8, r9, sl, fp, ip, lr}^
    a4c8:	67657226 	strbvs	r7, [r5, -r6, lsr #4]!
    a4cc:	5d305b73 	fldmdbxpl	r0!, {d5-d61}	;@ Deprecated
    a4d0:	0000000a 	andeq	r0, r0, sl
    a4d4:	706d6f63 	rsbvc	r6, sp, r3, ror #30
    a4d8:	69746361 	ldmdbvs	r4!, {r0, r5, r6, r8, r9, sp, lr}^
    a4dc:	0a3a676e 	beq	ea429c <__bss_end__+0xe995e4>
    a4e0:	00000000 	andeq	r0, r0, r0
    a4e4:	463a4347 	ldrtmi	r4, [sl], -r7, asr #6
    a4e8:	69454552 	stmdbvs	r5, {r1, r4, r6, r8, sl, lr}^
    a4ec:	7020676e 	eorvc	r6, r0, lr, ror #14
    a4f0:	253d7274 	ldrcs	r7, [sp, #-628]!	; 0x274
    a4f4:	00000a78 	andeq	r0, r0, r8, ror sl
    a4f8:	3a434709 	bcc	10dc124 <__bss_end__+0x10d146c>
    a4fc:	63656843 	cmnvs	r5, #4390912	; 0x430000
    a500:	2064656b 	rsbcs	r6, r4, fp, ror #10
    a504:	62206425 	eorvs	r6, r0, #620756992	; 0x25000000
    a508:	6b636f6c 	blvs	18e62c0 <__bss_end__+0x18db608>
    a50c:	66202c73 			; <UNDEFINED> instruction: 0x66202c73
    a510:	64656572 	strbtvs	r6, [r5], #-1394	; 0x572
    a514:	2c642520 	cfstr64cs	mvdx2, [r4], #-128	; 0xffffff80
    a518:	20642520 	rsbcs	r2, r4, r0, lsr #10
    a51c:	65747962 	ldrbvs	r7, [r4, #-2402]!	; 0x962
    a520:	00000a73 	andeq	r0, r0, r3, ror sl
    a524:	3a434709 	bcc	10dc150 <__bss_end__+0x10d1498>
    a528:	61746f74 	cmnvs	r4, r4, ror pc
    a52c:	6c61206c 	stclvs	0, cr2, [r1], #-432	; 0xfffffe50
    a530:	61636f6c 	cmnvs	r3, ip, ror #30
    a534:	20646574 	rsbcs	r6, r4, r4, ror r5
    a538:	6425203d 	strtvs	r2, [r5], #-61	; 0x3d
    a53c:	6f74202c 	svcvs	0x0074202c
    a540:	206c6174 	rsbcs	r6, ip, r4, ror r1
    a544:	6c616564 	cfstr64vs	mvdx6, [r1], #-400	; 0xfffffe70
    a548:	61636f6c 	cmnvs	r3, ip, ror #30
    a54c:	20646574 	rsbcs	r6, r4, r4, ror r5
    a550:	6425203d 	strtvs	r2, [r5], #-61	; 0x3d
    a554:	0000000a 	andeq	r0, r0, sl
    a558:	494e4150 	stmdbmi	lr, {r4, r6, r8, lr}^
    a55c:	73253a43 	teqvc	r5, #274432	; 0x43000
    a560:	3a73253a 	bcc	1cd3a50 <__bss_end__+0x1cc8d98>
    a564:	473a6425 	ldrmi	r6, [sl, -r5, lsr #8]!
    a568:	69203a43 	stmdbvs	r0!, {r0, r1, r6, r9, fp, ip, sp}
    a56c:	6c61766e 	stclvs	6, cr7, [r1], #-440	; 0xfffffe48
    a570:	65206469 	strvs	r6, [r0, #-1129]!	; 0x469
    a574:	726f7272 	rsbvc	r7, pc, #536870919	; 0x20000007
    a578:	0a0a2121 	beq	292a04 <__bss_end__+0x287d4c>
    a57c:	00000000 	andeq	r0, r0, r0
    a580:	203a4347 	eorscs	r4, sl, r7, asr #6
    a584:	43435553 	movtmi	r5, #13651	; 0x3553
    a588:	20535345 	subscs	r5, r3, r5, asr #6
    a58c:	70616568 	rsbvc	r6, r1, r8, ror #10
    a590:	65686320 	strbvs	r6, [r8, #-800]!	; 0x320
    a594:	64656b63 	strbtvs	r6, [r5], #-2915	; 0xb63
    a598:	74756f20 	ldrbtvc	r6, [r5], #-3872	; 0xf20
    a59c:	0000000a 	andeq	r0, r0, sl
    a5a0:	494e4150 	stmdbmi	lr, {r4, r6, r8, lr}^
    a5a4:	73253a43 	teqvc	r5, #274432	; 0x43000
    a5a8:	3a73253a 	bcc	1cd3a98 <__bss_end__+0x1cc8de0>
    a5ac:	473a6425 	ldrmi	r6, [sl, -r5, lsr #8]!
    a5b0:	73203a43 	teqvc	r0, #274432	; 0x43000
    a5b4:	6c756f68 	ldclvs	15, cr6, [r5], #-416	; 0xfffffe60
    a5b8:	61682064 	cmnvs	r8, r4, rrx
    a5bc:	6e206576 	mcrvs	5, 1, r6, cr0, cr6, {3}
    a5c0:	656c206f 	strbvs	r2, [ip, #-111]!	; 0x6f
    a5c4:	21736b61 	cmncs	r3, r1, ror #22
    a5c8:	00000a0a 	andeq	r0, r0, sl, lsl #20
    a5cc:	203a4347 	eorscs	r4, sl, r7, asr #6
    a5d0:	43435553 	movtmi	r5, #13651	; 0x3553
    a5d4:	3a535345 	bcc	14df2f0 <__bss_end__+0x14d4638>
    a5d8:	206f6e20 	rsbcs	r6, pc, r0, lsr #28
    a5dc:	6b61656c 	blvs	1863b94 <__bss_end__+0x1858edc>
    a5e0:	000a2173 	andeq	r2, sl, r3, ror r1
    a5e4:	494e4150 	stmdbmi	lr, {r4, r6, r8, lr}^
    a5e8:	73253a43 	teqvc	r5, #274432	; 0x43000
    a5ec:	3a73253a 	bcc	1cd3adc <__bss_end__+0x1cc8e24>
    a5f0:	473a6425 	ldrmi	r6, [sl, -r5, lsr #8]!
    a5f4:	73203a43 	teqvc	r0, #274432	; 0x43000
    a5f8:	6c756f68 	ldclvs	15, cr6, [r5], #-416	; 0xfffffe60
    a5fc:	61682064 	cmnvs	r8, r4, rrx
    a600:	6c206576 	cfstr32vs	mvfx6, [r0], #-472	; 0xfffffe28
    a604:	736b6165 	cmnvc	fp, #1073741849	; 0x40000019
    a608:	000a0a21 	andeq	r0, sl, r1, lsr #20
    a60c:	203a4347 	eorscs	r4, sl, r7, asr #6
    a610:	43435553 	movtmi	r5, #13651	; 0x3553
    a614:	3a535345 	bcc	14df330 <__bss_end__+0x14d4678>
    a618:	756f6620 	strbvc	r6, [pc, #-1568]!	; a000 <__FUNCTION__.4338+0x190>
    a61c:	2520646e 	strcs	r6, [r0, #-1134]!	; 0x46e
    a620:	656c2064 	strbvs	r2, [ip, #-100]!	; 0x64
    a624:	21736b61 	cmncs	r3, r1, ror #22
    a628:	0000000a 	andeq	r0, r0, sl
    a62c:	494e4150 	stmdbmi	lr, {r4, r6, r8, lr}^
    a630:	73253a43 	teqvc	r5, #274432	; 0x43000
    a634:	3a73253a 	bcc	1cd3b24 <__bss_end__+0x1cc8e6c>
    a638:	643a6425 	ldrtvs	r6, [sl], #-1061	; 0x425
    a63c:	6e206469 	cdpvs	4, 2, cr6, cr0, cr9, {3}
    a640:	6920746f 	stmdbvs	r0!, {r0, r1, r2, r3, r5, r6, sl, ip, sp, lr}
    a644:	656c706d 	strbvs	r7, [ip, #-109]!	; 0x6d
    a648:	746e656d 	strbtvc	r6, [lr], #-1389	; 0x56d
    a64c:	6d756420 	cfldrdvs	mvd6, [r5, #-128]!	; 0xffffff80
    a650:	65725f70 	ldrbvs	r5, [r2, #-3952]!	; 0xf70
    a654:	0a217367 	beq	8673f8 <__bss_end__+0x85c740>
    a658:	0000000a 	andeq	r0, r0, sl

0000a65c <__FUNCTION__.4245>:
    a65c:	74696d65 	strbtvc	r6, [r9], #-3429	; 0xd65
    a660:	00000000 	andeq	r0, r0, r0

0000a664 <__FUNCTION__.4193>:
    a664:	5f697072 	svcpl	0x00697072
    a668:	5f746573 	svcpl	0x00746573
    a66c:	7074756f 	rsbsvc	r7, r4, pc, ror #10
    a670:	00007475 	andeq	r7, r0, r5, ror r4

0000a674 <__FUNCTION__.4267>:
    a674:	705f6176 	subsvc	r6, pc, r6, ror r1	; <UNPREDICTABLE>
    a678:	746e6972 	strbtvc	r6, [lr], #-2418	; 0x972
    a67c:	0000006b 	andeq	r0, r0, fp, rrx
    a680:	494e4150 	stmdbmi	lr, {r4, r6, r8, lr}^
    a684:	73253a43 	teqvc	r5, #274432	; 0x43000
    a688:	3a73253a 	bcc	1cd3b78 <__bss_end__+0x1cc8ec0>
    a68c:	303a6425 	eorscc	r6, sl, r5, lsr #8
    a690:	0000000a 	andeq	r0, r0, sl
    a694:	6362696c 	cmnvs	r2, #108, 18	; 0x1b0000
    a698:	2d61762f 	stclcs	6, cr7, [r1, #-188]!	; 0xffffff44
    a69c:	6e697270 	mcrvs	2, 3, r7, cr9, cr0, {3}
    a6a0:	632e6b74 	teqvs	lr, #116, 22	; 0x1d000
    a6a4:	00000000 	andeq	r0, r0, r0
    a6a8:	33323130 	teqcc	r2, #48, 2
    a6ac:	37363534 			; <UNDEFINED> instruction: 0x37363534
    a6b0:	00003938 	andeq	r3, r0, r8, lsr r9
    a6b4:	33323130 	teqcc	r2, #48, 2
    a6b8:	37363534 			; <UNDEFINED> instruction: 0x37363534
    a6bc:	62613938 	rsbvs	r3, r1, #56, 18	; 0xe0000
    a6c0:	66656463 	strbtvs	r6, [r5], -r3, ror #8
    a6c4:	00000000 	andeq	r0, r0, r0
    a6c8:	00003130 	andeq	r3, r0, r0, lsr r1
    a6cc:	494e4150 	stmdbmi	lr, {r4, r6, r8, lr}^
    a6d0:	73253a43 	teqvc	r5, #274432	; 0x43000
    a6d4:	3a73253a 	bcc	1cd3bc4 <__bss_end__+0x1cc8f0c>
    a6d8:	703a6425 	eorsvc	r6, sl, r5, lsr #8
    a6dc:	5f637475 	svcpl	0x00637475
    a6e0:	000a7066 	andeq	r7, sl, r6, rrx
    a6e4:	494e4150 	stmdbmi	lr, {r4, r6, r8, lr}^
    a6e8:	73253a43 	teqvc	r5, #274432	; 0x43000
    a6ec:	3a73253a 	bcc	1cd3bdc <__bss_end__+0x1cc8f24>
    a6f0:	773a6425 	ldrvc	r6, [sl, -r5, lsr #8]!
    a6f4:	68746469 	ldmdavs	r4!, {r0, r3, r5, r6, sl, sp, lr}^
    a6f8:	33203c20 	teqcc	r0, #32, 24	; 0x2000
    a6fc:	00000a32 	andeq	r0, r0, r2, lsr sl
    a700:	494e4150 	stmdbmi	lr, {r4, r6, r8, lr}^
    a704:	73253a43 	teqvc	r5, #274432	; 0x43000
    a708:	3a73253a 	bcc	1cd3bf8 <__bss_end__+0x1cc8f40>
    a70c:	663a6425 	ldrtvs	r6, [sl], -r5, lsr #8
    a710:	74616f6c 	strbtvc	r6, [r1], #-3948	; 0xf6c
    a714:	746f6e20 	strbtvc	r6, [pc], #-3616	; a71c <__FUNCTION__.4267+0xa8>
    a718:	616e6520 	cmnvs	lr, r0, lsr #10
    a71c:	64656c62 	strbtvs	r6, [r5], #-3170	; 0xc62
    a720:	0a212121 	beq	852bac <__bss_end__+0x847ef4>
    a724:	00000000 	andeq	r0, r0, r0
    a728:	494e4150 	stmdbmi	lr, {r4, r6, r8, lr}^
    a72c:	73253a43 	teqvc	r5, #274432	; 0x43000
    a730:	3a73253a 	bcc	1cd3c20 <__bss_end__+0x1cc8f68>
    a734:	703a6425 	eorsvc	r6, sl, r5, lsr #8
    a738:	746e6972 	strbtvc	r6, [lr], #-2418	; 0x972
    a73c:	6e203a6b 	vnmulvs.f32	s6, s0, s23
    a740:	6820746f 	stmdavs	r0!, {r0, r1, r2, r3, r5, r6, sl, ip, sp, lr}
    a744:	6c646e61 	stclvs	14, cr6, [r4], #-388	; 0xfffffe7c
    a748:	20676e69 	rsbcs	r6, r7, r9, ror #28
    a74c:	63657073 	cmnvs	r5, #115	; 0x73
    a750:	65696669 	strbvs	r6, [r9, #-1641]!	; 0x669
    a754:	25272072 	strcs	r2, [r7, #-114]!	; 0x72
    a758:	0a0a2763 	beq	2944ec <__bss_end__+0x289834>
    a75c:	00000000 	andeq	r0, r0, r0
    a760:	454e4f44 	strbmi	r4, [lr, #-3908]	; 0xf44
    a764:	0a212121 	beq	852bf0 <__bss_end__+0x847f38>
    a768:	00000000 	andeq	r0, r0, r0

0000a76c <__FUNCTION__.4237>:
    a76c:	6c616d6b 	stclvs	13, cr6, [r1], #-428	; 0xfffffe54
    a770:	5f636f6c 	svcpl	0x00636f6c
    a774:	74696e69 	strbtvc	r6, [r9], #-3689	; 0xe69
    a778:	7465735f 	strbtvc	r7, [r5], #-863	; 0x35f
    a77c:	6174735f 	cmnvs	r4, pc, asr r3
    a780:	00007472 	andeq	r7, r0, r2, ror r4

0000a784 <__FUNCTION__.4241>:
    a784:	6c616d6b 	stclvs	13, cr6, [r1], #-428	; 0xfffffe54
    a788:	00636f6c 	rsbeq	r6, r3, ip, ror #30

0000a78c <__FUNCTION__.4253>:
    a78c:	6c616d6b 	stclvs	13, cr6, [r1], #-428	; 0xfffffe54
    a790:	5f636f6c 	svcpl	0x00636f6c
    a794:	67696c61 	strbvs	r6, [r9, -r1, ror #24]!
    a798:	0064656e 	rsbeq	r6, r4, lr, ror #10
    a79c:	6c616d6b 	stclvs	13, cr6, [r1], #-428	; 0xfffffe54
    a7a0:	2e636f6c 	cdpcs	15, 6, cr6, cr3, cr12, {3}
    a7a4:	00000063 	andeq	r0, r0, r3, rrx
    a7a8:	494e4150 	stmdbmi	lr, {r4, r6, r8, lr}^
    a7ac:	73253a43 	teqvc	r5, #274432	; 0x43000
    a7b0:	3a73253a 	bcc	1cd3ca0 <__bss_end__+0x1cc8fe8>
    a7b4:	613a6425 	teqvs	sl, r5, lsr #8
    a7b8:	20726464 	rsbscs	r6, r2, r4, ror #8
    a7bc:	6568203e 	strbvs	r2, [r8, #-62]!	; 0x3e
    a7c0:	000a7061 	andeq	r7, sl, r1, rrx
    a7c4:	494e4150 	stmdbmi	lr, {r4, r6, r8, lr}^
    a7c8:	73253a43 	teqvc	r5, #274432	; 0x43000
    a7cc:	3a73253a 	bcc	1cd3cbc <__bss_end__+0x1cc9004>
    a7d0:	733a6425 	teqvc	sl, #620756992	; 0x25000000
    a7d4:	00000a7a 	andeq	r0, r0, sl, ror sl
    a7d8:	4f525245 	svcmi	0x00525245
    a7dc:	73253a52 	teqvc	r5, #335872	; 0x52000
    a7e0:	3a73253a 	bcc	1cd3cd0 <__bss_end__+0x1cc9018>
    a7e4:	203a6425 	eorscs	r6, sl, r5, lsr #8
    a7e8:	534c4146 	movtpl	r4, #49478	; 0xc146
    a7ec:	283c2845 	ldmdacs	ip!, {r0, r2, r6, fp, sp}
    a7f0:	6c612828 	stclvs	8, cr2, [r1], #-160	; 0xffffff60
    a7f4:	6d6e6769 	stclvs	7, cr6, [lr, #-420]!	; 0xfffffe5c
    a7f8:	29746e65 	ldmdbcs	r4!, {r0, r2, r5, r6, r9, sl, fp, sp, lr}^
    a7fc:	61282d26 	teqvs	r8, r6, lsr #26
    a800:	6e67696c 	cdpvs	9, 6, cr6, cr7, cr12, {3}
    a804:	746e656d 	strbtvc	r6, [lr], #-1389	; 0x56d
    a808:	3d202929 	stccc	9, cr2, [r0, #-164]!	; 0xffffff5c
    a80c:	6128203d 	teqvs	r8, sp, lsr r0
    a810:	6e67696c 	cdpvs	9, 6, cr6, cr7, cr12, {3}
    a814:	746e656d 	strbtvc	r6, [lr], #-1389	; 0x56d
    a818:	293e2929 	ldmdbcs	lr!, {r0, r3, r5, r8, fp, sp}
    a81c:	7361203a 	cmnvc	r1, #58	; 0x3a
    a820:	696d7573 	stmdbvs	sp!, {r0, r1, r4, r5, r6, r8, sl, ip, sp, lr}^
    a824:	7020676e 	eorvc	r6, r0, lr, ror #14
    a828:	7265776f 	rsbvc	r7, r5, #29097984	; 0x1bc0000
    a82c:	20666f20 	rsbcs	r6, r6, r0, lsr #30
    a830:	0a6f7774 	beq	1be8608 <__bss_end__+0x1bdd950>
    a834:	00000000 	andeq	r0, r0, r0
    a838:	4f525245 	svcmi	0x00525245
    a83c:	73253a52 	teqvc	r5, #335872	; 0x52000
    a840:	3a73253a 	bcc	1cd3d30 <__bss_end__+0x1cc9078>
    a844:	203a6425 	eorscs	r6, sl, r5, lsr #8
    a848:	534c4146 	movtpl	r4, #49478	; 0xc146
    a84c:	283c2845 	ldmdacs	ip!, {r0, r2, r6, fp, sp}
    a850:	29682828 	stmdbcs	r8!, {r3, r5, fp, sp}^
    a854:	28202620 	stmdacs	r0!, {r5, r9, sl, sp}
    a858:	70797428 	rsbsvc	r7, r9, r8, lsr #8
    a85c:	28666f65 	stmdacs	r6!, {r0, r2, r5, r6, r8, r9, sl, fp, sp, lr}^
    a860:	28292968 	stmdacs	r9!, {r3, r5, r6, r8, fp, sp}
    a864:	67696c61 	strbvs	r6, [r9, -r1, ror #24]!
    a868:	6e656d6e 	cdpvs	13, 6, cr6, cr5, cr14, {3}
    a86c:	2d202974 	stccs	9, cr2, [r0, #-464]!	; 0xfffffe30
    a870:	29293120 	stmdbcs	r9!, {r5, r8, ip, sp}
    a874:	203d3d20 	eorscs	r3, sp, r0, lsr #26
    a878:	293e2930 	ldmdbcs	lr!, {r4, r5, r8, fp, sp}
    a87c:	6d69203a 	stclvs	0, cr2, [r9, #-232]!	; 0xffffff18
    a880:	73736f70 	cmnvc	r3, #112, 30	; 0x1c0
    a884:	656c6269 	strbvs	r6, [ip, #-617]!	; 0x269
    a888:	0000000a 	andeq	r0, r0, sl

Disassembly of section .bss:

0000a88c <__bss_start__>:
    a88c:	00000000 	andeq	r0, r0, r0

0000a890 <heap>:
    a890:	00000000 	andeq	r0, r0, r0

0000a894 <heap_end>:
    a894:	00000000 	andeq	r0, r0, r0

0000a898 <my_info>:
	...

0000a8a8 <info>:
	...

0000a8b8 <buf.4185>:
	...

Disassembly of section .ARM.attributes:

00000000 <.ARM.attributes>:
   0:	00002a41 	andeq	r2, r0, r1, asr #20
   4:	61656100 	cmnvs	r5, r0, lsl #2
   8:	01006962 	tsteq	r0, r2, ror #18
   c:	00000020 	andeq	r0, r0, r0, lsr #32
  10:	4b5a3605 	blmi	168d82c <__bss_end__+0x1682b74>
  14:	08070600 	stmdaeq	r7, {r9, sl}
  18:	12010901 	andne	r0, r1, #16384	; 0x4000
  1c:	15011404 	strne	r1, [r1, #-1028]	; 0x404
  20:	18031701 	stmdane	r3, {r0, r8, r9, sl, ip}
  24:	22011a01 	andcs	r1, r1, #4096	; 0x1000
  28:	Address 0x0000000000000028 is out of bounds.


Disassembly of section .comment:

00000000 <.comment>:
   0:	3a434347 	bcc	10d0d24 <__bss_end__+0x10c606c>
   4:	4e472820 	cdpmi	8, 4, cr2, cr7, cr0, {1}
   8:	34202955 	strtcc	r2, [r0], #-2389	; 0x955
   c:	332e382e 	teqcc	lr, #3014656	; 0x2e0000
  10:	43434700 	movtmi	r4, #14080	; 0x3700
  14:	3128203a 	teqcc	r8, sl, lsr r0
  18:	2e363a35 	mrccs	10, 1, r3, cr6, cr5, {1}
  1c:	2b312e33 	blcs	c4b8f0 <__bss_end__+0xc40c38>
  20:	326e7673 	rsbcc	r7, lr, #120586240	; 0x7300000
  24:	33303335 	teqcc	r0, #-738197504	; 0xd4000000
  28:	62312d39 	eorsvs	r2, r1, #3648	; 0xe40
  2c:	646c6975 	strbtvs	r6, [ip], #-2421	; 0x975
  30:	36202931 			; <UNDEFINED> instruction: 0x36202931
  34:	312e332e 	teqcc	lr, lr, lsr #6
  38:	31303220 	teqcc	r0, r0, lsr #4
  3c:	32363037 	eorscc	r3, r6, #55	; 0x37
  40:	Address 0x0000000000000040 is out of bounds.


Disassembly of section .debug_info:

00000000 <.debug_info>:
       0:	00000455 	andeq	r0, r0, r5, asr r4
       4:	00000004 	andeq	r0, r0, r4
       8:	01040000 	mrseq	r0, (UNDEF: 4)
       c:	00000007 	andeq	r0, r0, r7
      10:	0000db01 	andeq	sp, r0, r1, lsl #22
      14:	00006600 	andeq	r6, r0, r0, lsl #12
      18:	00801000 	addeq	r1, r0, r0
      1c:	00016400 	andeq	r6, r1, r0, lsl #8
      20:	00000000 	andeq	r0, r0, r0
      24:	05040200 	streq	r0, [r4, #-512]	; 0x200
      28:	00746e69 	rsbseq	r6, r4, r9, ror #28
      2c:	00000003 	andeq	r0, r0, r3
      30:	37d40200 	ldrbcc	r0, [r4, r0, lsl #4]
      34:	04000000 	streq	r0, [r0], #-0
      38:	015a0704 	cmpeq	sl, r4, lsl #14
      3c:	01040000 	mrseq	r0, (UNDEF: 4)
      40:	00012806 	andeq	r2, r1, r6, lsl #16
      44:	05020400 	streq	r0, [r2, #-1024]	; 0x400
      48:	0000017e 	andeq	r0, r0, lr, ror r1
      4c:	75050404 	strvc	r0, [r5, #-1028]	; 0x404
      50:	04000001 	streq	r0, [r0], #-1
      54:	01700508 	cmneq	r0, r8, lsl #10
      58:	01040000 	mrseq	r0, (UNDEF: 4)
      5c:	00012608 	andeq	r2, r1, r8, lsl #12
      60:	07020400 	streq	r0, [r2, -r0, lsl #8]
      64:	000000fc 	strdeq	r0, [r0], -ip
      68:	00018803 	andeq	r8, r1, r3, lsl #16
      6c:	73340300 	teqvc	r4, #0, 6
      70:	04000000 	streq	r0, [r0], #-0
      74:	01550704 	cmpeq	r5, r4, lsl #14
      78:	08040000 	stmdaeq	r4, {}	; <UNPREDICTABLE>
      7c:	00015007 	andeq	r5, r1, r7
      80:	07040400 	streq	r0, [r4, -r0, lsl #8]
      84:	00000167 	andeq	r0, r0, r7, ror #2
      88:	04060405 	streq	r0, [r6], #-1029	; 0x405
      8c:	00000090 	muleq	r0, r0, r0
      90:	2f080104 	svccs	0x00080104
      94:	06000001 	streq	r0, [r0], -r1
      98:	00009d04 	andeq	r9, r0, r4, lsl #26
      9c:	00900700 	addseq	r0, r0, r0, lsl #14
      a0:	90080000 	andls	r0, r8, r0
      a4:	b2000000 	andlt	r0, r0, #0
      a8:	09000000 	stmdbeq	r0, {}	; <UNPREDICTABLE>
      ac:	00000081 	andeq	r0, r0, r1, lsl #1
      b0:	a80a0007 	stmdage	sl, {r0, r1, r2}
      b4:	01000001 	tsteq	r0, r1
      b8:	00008a05 	andeq	r8, r0, r5, lsl #20
      bc:	00801000 	addeq	r1, r0, r0
      c0:	00005800 	andeq	r5, r0, r0, lsl #16
      c4:	609c0100 	addsvs	r0, ip, r0, lsl #2
      c8:	0b000001 	bleq	d4 <__code_start__-0x7f2c>
      cc:	07010070 	smlsdxeq	r1, r0, r0, r0
      d0:	0000008a 	andeq	r0, r0, sl, lsl #1
      d4:	00000000 	andeq	r0, r0, r0
      d8:	00013b0c 	andeq	r3, r1, ip, lsl #22
      dc:	00017000 	andeq	r7, r1, r0
      e0:	20030500 	andcs	r0, r3, r0, lsl #10
      e4:	0d00009d 	stceq	0, cr0, [r0, #-628]	; 0xfffffd8c
      e8:	00008028 	andeq	r8, r0, r8, lsr #32
      ec:	00000399 	muleq	r0, r9, r3
      f0:	00000111 	andeq	r0, r0, r1, lsl r1
      f4:	0153010e 	cmpeq	r3, lr, lsl #2
      f8:	52010e37 	andpl	r0, r1, #880	; 0x370
      fc:	9d200305 	stcls	3, cr0, [r0, #-20]!	; 0xffffffec
     100:	010e0000 	mrseq	r0, (UNDEF: 14)
     104:	30030551 	andcc	r0, r3, r1, asr r5
     108:	0e00009d 	mcreq	0, 0, r0, cr0, cr13, {4}
     10c:	34015001 	strcc	r5, [r1], #-1
     110:	80340d00 	eorshi	r0, r4, r0, lsl #26
     114:	03bd0000 			; <UNDEFINED> instruction: 0x03bd0000
     118:	01280000 	teqeq	r8, r0
     11c:	010e0000 	mrseq	r0, (UNDEF: 14)
     120:	44030550 	strmi	r0, [r3], #-1360	; 0x550
     124:	0000009d 	muleq	r0, sp, r0
     128:	0080400d 	addeq	r4, r0, sp
     12c:	0003bd00 	andeq	fp, r3, r0, lsl #26
     130:	00014500 	andeq	r4, r1, r0, lsl #10
     134:	51010e00 	tstpl	r1, r0, lsl #28
     138:	0e007402 	cdpeq	4, 0, cr7, cr0, cr2, {0}
     13c:	03055001 	movweq	r5, #20481	; 0x5001
     140:	00009d4c 	andeq	r9, r0, ip, asr #26
     144:	80500f00 	subshi	r0, r0, r0, lsl #30
     148:	03d30000 	bicseq	r0, r3, #0
     14c:	010e0000 	mrseq	r0, (UNDEF: 14)
     150:	0e340152 	mrceq	1, 1, r0, cr4, cr2, {2}
     154:	30015101 	andcc	r5, r1, r1, lsl #2
     158:	0250010e 	subseq	r0, r0, #-2147483645	; 0x80000003
     15c:	00000074 	andeq	r0, r0, r4, ror r0
     160:	00009008 	andeq	r9, r0, r8
     164:	00017000 	andeq	r7, r1, r0
     168:	00810900 	addeq	r0, r1, r0, lsl #18
     16c:	00050000 	andeq	r0, r5, r0
     170:	00016007 	andeq	r6, r1, r7
     174:	00c41000 	sbceq	r1, r4, r0
     178:	0d010000 	stceq	0, cr0, [r1, #-0]
     17c:	00008068 	andeq	r8, r0, r8, rrx
     180:	0000010c 	andeq	r0, r0, ip, lsl #2
     184:	03949c01 	orrseq	r9, r4, #256	; 0x100
     188:	6e110000 	cdpvs	0, 1, cr0, cr1, cr0, {0}
     18c:	37120100 	ldrcc	r0, [r2, -r0, lsl #2]
     190:	00000000 	andeq	r0, r0, r0
     194:	0b001000 	bleq	419c <__code_start__-0x3e64>
     198:	15010070 	strne	r0, [r1, #-112]	; 0x70
     19c:	0000008a 	andeq	r0, r0, sl, lsl #1
     1a0:	0000001e 	andeq	r0, r0, lr, lsl r0
     1a4:	00013b0c 	andeq	r3, r1, ip, lsl #22
     1a8:	00039400 	andeq	r9, r3, r0, lsl #8
     1ac:	28030500 	stmdacs	r3, {r8, sl}
     1b0:	0d00009d 	stceq	0, cr0, [r0, #-628]	; 0xfffffd8c
     1b4:	00008074 	andeq	r8, r0, r4, ror r0
     1b8:	000003bd 			; <UNDEFINED> instruction: 0x000003bd
     1bc:	000001ca 	andeq	r0, r0, sl, asr #3
     1c0:	0550010e 	ldrbeq	r0, [r0, #-270]	; 0x10e
     1c4:	009d6003 	addseq	r6, sp, r3
     1c8:	7c0d0000 	stcvc	0, cr0, [sp], {-0}
     1cc:	f2000080 	vhadd.s8	d0, d16, d0
     1d0:	df000003 	svcle	0x00000003
     1d4:	0e000001 	cdpeq	0, 0, cr0, cr0, cr1, {0}
     1d8:	40035001 	andmi	r5, r3, r1
     1dc:	0d002440 	cfstrseq	mvf2, [r0, #-256]	; 0xffffff00
     1e0:	00008084 	andeq	r8, r0, r4, lsl #1
     1e4:	00000403 	andeq	r0, r0, r3, lsl #8
     1e8:	000001f4 	strdeq	r0, [r0], -r4
     1ec:	0350010e 	cmpeq	r0, #-2147483645	; 0x80000003
     1f0:	00244040 	eoreq	r4, r4, r0, asr #32
     1f4:	00808c0d 	addeq	r8, r0, sp, lsl #24
     1f8:	00041800 	andeq	r1, r4, r0, lsl #16
     1fc:	00020900 	andeq	r0, r2, r0, lsl #18
     200:	51010e00 	tstpl	r1, r0, lsl #28
     204:	24404003 	strbcs	r4, [r0], #-3
     208:	80901200 	addshi	r1, r0, r0, lsl #4
     20c:	00b20000 	adcseq	r0, r2, r0
     210:	9c0d0000 	stcls	0, cr0, [sp], {-0}
     214:	bd000080 	stclt	0, cr0, [r0, #-512]	; 0xfffffe00
     218:	29000003 	stmdbcs	r0, {r0, r1}
     21c:	0e000002 	cdpeq	0, 0, cr0, cr0, cr2, {0}
     220:	03055001 	movweq	r5, #20481	; 0x5001
     224:	00009d44 	andeq	r9, r0, r4, asr #26
     228:	80a80d00 	adchi	r0, r8, r0, lsl #26
     22c:	03bd0000 			; <UNDEFINED> instruction: 0x03bd0000
     230:	02460000 	subeq	r0, r6, #0
     234:	010e0000 	mrseq	r0, (UNDEF: 14)
     238:	00740251 	rsbseq	r0, r4, r1, asr r2
     23c:	0550010e 	ldrbeq	r0, [r0, #-270]	; 0x10e
     240:	009d6c03 	addseq	r6, sp, r3, lsl #24
     244:	ac120000 	ldcge	0, cr0, [r2], {-0}
     248:	2e000080 	cdpcs	0, 0, cr0, cr0, cr0, {4}
     24c:	12000004 	andne	r0, r0, #4
     250:	000080b8 	strheq	r8, [r0], -r8	; <UNPREDICTABLE>
     254:	00000439 	andeq	r0, r0, r9, lsr r4
     258:	0080cc0d 	addeq	ip, r0, sp, lsl #24
     25c:	0003bd00 	andeq	fp, r3, r0, lsl #26
     260:	00028600 	andeq	r8, r2, r0, lsl #12
     264:	53010e00 	movwpl	r0, #7680	; 0x1e00
     268:	010e4a01 	tsteq	lr, r1, lsl #20
     26c:	28030552 	stmdacs	r3, {r1, r4, r6, r8, sl}
     270:	0e00009d 	mcreq	0, 0, r0, cr0, cr13, {4}
     274:	03055101 	movweq	r5, #20737	; 0x5101
     278:	00009d30 	andeq	r9, r0, r0, lsr sp
     27c:	0550010e 	ldrbeq	r0, [r0, #-270]	; 0x10e
     280:	009d8003 	addseq	r8, sp, r3
     284:	d0120000 	andsle	r0, r2, r0
     288:	40000080 	andmi	r0, r0, r0, lsl #1
     28c:	0d000004 	stceq	0, cr0, [r0, #-16]
     290:	000080d8 	ldrdeq	r8, [r0], -r8	; <UNPREDICTABLE>
     294:	000003bd 			; <UNDEFINED> instruction: 0x000003bd
     298:	000002a6 	andeq	r0, r0, r6, lsr #5
     29c:	0550010e 	ldrbeq	r0, [r0, #-270]	; 0x10e
     2a0:	009d4403 	addseq	r4, sp, r3, lsl #8
     2a4:	e00d0000 	and	r0, sp, r0
     2a8:	bd000080 	stclt	0, cr0, [r0, #-512]	; 0xfffffe00
     2ac:	bd000003 	stclt	0, cr0, [r0, #-12]
     2b0:	0e000002 	cdpeq	0, 0, cr0, cr0, cr2, {0}
     2b4:	03055001 	movweq	r5, #20481	; 0x5001
     2b8:	0000a584 	andeq	sl, r0, r4, lsl #11
     2bc:	80e80d00 	rschi	r0, r8, r0, lsl #26
     2c0:	04470000 	strbeq	r0, [r7], #-0
     2c4:	02d00000 	sbcseq	r0, r0, #0
     2c8:	010e0000 	mrseq	r0, (UNDEF: 14)
     2cc:	00300150 	eorseq	r0, r0, r0, asr r1
     2d0:	0080f412 	addeq	pc, r0, r2, lsl r4	; <UNPREDICTABLE>
     2d4:	00043900 	andeq	r3, r4, r0, lsl #18
     2d8:	81080d00 	tsthi	r8, r0, lsl #26
     2dc:	03bd0000 			; <UNDEFINED> instruction: 0x03bd0000
     2e0:	03080000 	movweq	r0, #32768	; 0x8000
     2e4:	010e0000 	mrseq	r0, (UNDEF: 14)
     2e8:	20080253 	andcs	r0, r8, r3, asr r2
     2ec:	0552010e 	ldrbeq	r0, [r2, #-270]	; 0x10e
     2f0:	009d2803 	addseq	r2, sp, r3, lsl #16
     2f4:	51010e00 	tstpl	r1, r0, lsl #28
     2f8:	9d300305 	ldcls	3, cr0, [r0, #-20]!	; 0xffffffec
     2fc:	010e0000 	mrseq	r0, (UNDEF: 14)
     300:	a4030550 	strge	r0, [r3], #-1360	; 0x550
     304:	0000009d 	muleq	r0, sp, r0
     308:	00810c12 	addeq	r0, r1, r2, lsl ip
     30c:	00044000 	andeq	r4, r4, r0
     310:	81140d00 	tsthi	r4, r0, lsl #26
     314:	04470000 	strbeq	r0, [r7], #-0
     318:	03240000 	teqeq	r4, #0
     31c:	010e0000 	mrseq	r0, (UNDEF: 14)
     320:	00310150 	eorseq	r0, r1, r0, asr r1
     324:	0081240d 	addeq	r2, r1, sp, lsl #8
     328:	0003bd00 	andeq	fp, r3, r0, lsl #26
     32c:	00033b00 	andeq	r3, r3, r0, lsl #22
     330:	50010e00 	andpl	r0, r1, r0, lsl #28
     334:	9d440305 	stclls	3, cr0, [r4, #-20]	; 0xffffffec
     338:	0d000000 	stceq	0, cr0, [r0, #-0]
     33c:	0000812c 	andeq	r8, r0, ip, lsr #2
     340:	000003bd 			; <UNDEFINED> instruction: 0x000003bd
     344:	00000352 	andeq	r0, r0, r2, asr r3
     348:	0550010e 	ldrbeq	r0, [r0, #-270]	; 0x10e
     34c:	009dd403 	addseq	sp, sp, r3, lsl #8
     350:	34120000 	ldrcc	r0, [r2], #-0
     354:	39000081 	stmdbcc	r0, {r0, r7}
     358:	0d000004 	stceq	0, cr0, [r0, #-16]
     35c:	00008148 	andeq	r8, r0, r8, asr #2
     360:	000003bd 			; <UNDEFINED> instruction: 0x000003bd
     364:	0000038a 	andeq	r0, r0, sl, lsl #7
     368:	0253010e 	subseq	r0, r3, #-2147483645	; 0x80000003
     36c:	010e2608 	tsteq	lr, r8, lsl #12
     370:	28030552 	stmdacs	r3, {r1, r4, r6, r8, sl}
     374:	0e00009d 	mcreq	0, 0, r0, cr0, cr13, {4}
     378:	03055101 	movweq	r5, #20737	; 0x5101
     37c:	00009d30 	andeq	r9, r0, r0, lsr sp
     380:	0550010e 	ldrbeq	r0, [r0, #-270]	; 0x10e
     384:	009df803 	addseq	pc, sp, r3, lsl #16
     388:	4c120000 	ldcmi	0, cr0, [r2], {-0}
     38c:	40000081 	andmi	r0, r0, r1, lsl #1
     390:	00000004 	andeq	r0, r0, r4
     394:	0000a207 	andeq	sl, r0, r7, lsl #4
     398:	005e1300 	subseq	r1, lr, r0, lsl #6
     39c:	11040000 	mrsne	r0, (UNDEF: 4)
     3a0:	00000088 	andeq	r0, r0, r8, lsl #1
     3a4:	000003bd 			; <UNDEFINED> instruction: 0x000003bd
     3a8:	00006814 	andeq	r6, r0, r4, lsl r8
     3ac:	00971400 	addseq	r1, r7, r0, lsl #8
     3b0:	97140000 	ldrls	r0, [r4, -r0]
     3b4:	14000000 	strne	r0, [r0], #-0
     3b8:	00000037 	andeq	r0, r0, r7, lsr r0
     3bc:	050f1300 	streq	r1, [pc, #-768]	; c4 <__code_start__-0x7f3c>
     3c0:	29050000 	stmdbcs	r5, {}	; <UNPREDICTABLE>
     3c4:	00000025 	andeq	r0, r0, r5, lsr #32
     3c8:	000003d3 	ldrdeq	r0, [r0], -r3
     3cc:	00009714 	andeq	r9, r0, r4, lsl r7
     3d0:	13001500 	movwne	r1, #1280	; 0x500
     3d4:	00000134 	andeq	r0, r0, r4, lsr r1
     3d8:	00881b06 	addeq	r1, r8, r6, lsl #22
     3dc:	03f20000 	mvnseq	r0, #0
     3e0:	88140000 	ldmdahi	r4, {}	; <UNPREDICTABLE>
     3e4:	14000000 	strne	r0, [r0], #-0
     3e8:	00000025 	andeq	r0, r0, r5, lsr #32
     3ec:	00002c14 	andeq	r2, r0, r4, lsl ip
     3f0:	91160000 	tstls	r6, r0
     3f4:	05000001 	streq	r0, [r0, #-1]
     3f8:	00040372 	andeq	r0, r4, r2, ror r3
     3fc:	00371400 	eorseq	r1, r7, r0, lsl #8
     400:	13000000 	movwne	r0, #0
     404:	0000010f 	andeq	r0, r0, pc, lsl #2
     408:	00886c05 	addeq	r6, r8, r5, lsl #24
     40c:	04180000 	ldreq	r0, [r8], #-0
     410:	37140000 	ldrcc	r0, [r4, -r0]
     414:	00000000 	andeq	r0, r0, r0
     418:	00014816 	andeq	r4, r1, r6, lsl r8
     41c:	2e0b0400 	cfcpyscs	mvf0, mvf11
     420:	14000004 	strne	r0, [r0], #-4
     424:	00000088 	andeq	r0, r0, r8, lsl #1
     428:	00003714 	andeq	r3, r0, r4, lsl r7
     42c:	cc170000 	ldcgt	0, cr0, [r7], {-0}
     430:	04000000 	streq	r0, [r0], #-0
     434:	0000251e 	andeq	r2, r0, lr, lsl r5
     438:	01171800 	tsteq	r7, r0, lsl #16
     43c:	1e050000 	cdpne	0, 0, cr0, cr5, cr0, {0}
     440:	0000ef18 	andeq	lr, r0, r8, lsl pc
     444:	19650500 	stmdbne	r5!, {r8, sl}^
     448:	000000b6 	strheq	r0, [r0], -r6
     44c:	00372b04 	eorseq	r2, r7, r4, lsl #22
     450:	25140000 	ldrcs	r0, [r4, #-0]
     454:	00000000 	andeq	r0, r0, r0
     458:	00107800 	andseq	r7, r0, r0, lsl #16
     45c:	5b000400 	blpl	1464 <__code_start__-0x6b9c>
     460:	04000001 	streq	r0, [r0], #-1
     464:	00000701 	andeq	r0, r0, r1, lsl #14
     468:	025c0100 	subseq	r0, ip, #0, 2
     46c:	00660000 	rsbeq	r0, r6, r0
     470:	81740000 	cmnhi	r4, r0
     474:	083c0000 	ldmdaeq	ip!, {}	; <UNPREDICTABLE>
     478:	01750000 	cmneq	r5, r0
     47c:	04020000 	streq	r0, [r2], #-0
     480:	746e6905 	strbtvc	r6, [lr], #-2309	; 0x905
     484:	00000300 	andeq	r0, r0, r0, lsl #6
     488:	d4030000 	strle	r0, [r3], #-0
     48c:	00000037 	andeq	r0, r0, r7, lsr r0
     490:	5a070404 	bpl	1c14a8 <__bss_end__+0x1b67f0>
     494:	04000001 	streq	r0, [r0], #-1
     498:	01280601 	teqeq	r8, r1, lsl #12
     49c:	02040000 	andeq	r0, r4, #0
     4a0:	00017e05 	andeq	r7, r1, r5, lsl #28
     4a4:	05040400 	streq	r0, [r4, #-1024]	; 0x400
     4a8:	00000175 	andeq	r0, r0, r5, ror r1
     4ac:	70050804 	andvc	r0, r5, r4, lsl #16
     4b0:	03000001 	movweq	r0, #1
     4b4:	00000360 	andeq	r0, r0, r0, ror #6
     4b8:	00652e04 	rsbeq	r2, r5, r4, lsl #28
     4bc:	01040000 	mrseq	r0, (UNDEF: 4)
     4c0:	00012608 	andeq	r2, r1, r8, lsl #12
     4c4:	02150300 	andseq	r0, r5, #0, 6
     4c8:	31040000 	mrscc	r0, (UNDEF: 4)
     4cc:	00000077 	andeq	r0, r0, r7, ror r0
     4d0:	fc070204 	stc2	2, cr0, [r7], {4}
     4d4:	03000000 	movweq	r0, #0
     4d8:	00000188 	andeq	r0, r0, r8, lsl #3
     4dc:	00893404 	addeq	r3, r9, r4, lsl #8
     4e0:	04040000 	streq	r0, [r4], #-0
     4e4:	00015507 	andeq	r5, r1, r7, lsl #10
     4e8:	07080400 	streq	r0, [r8, -r0, lsl #8]
     4ec:	00000150 	andeq	r0, r0, r0, asr r1
     4f0:	67070404 	strvs	r0, [r7, -r4, lsl #8]
     4f4:	05000001 	streq	r0, [r0, #-1]
     4f8:	a6040604 	strge	r0, [r4], -r4, lsl #12
     4fc:	04000000 	streq	r0, [r0], #-0
     500:	012f0801 	teqeq	pc, r1, lsl #16
     504:	04060000 	streq	r0, [r6], #-0
     508:	000000b3 	strheq	r0, [r0], -r3
     50c:	0000a607 	andeq	sl, r0, r7, lsl #12
     510:	00a60800 	adceq	r0, r6, r0, lsl #16
     514:	00c80000 	sbceq	r0, r8, r0
     518:	97090000 	strls	r0, [r9, -r0]
     51c:	07000000 	streq	r0, [r0, -r0]
     520:	02010a00 	andeq	r0, r1, #0, 20
     524:	0000dd27 	andeq	sp, r0, r7, lsr #26
     528:	01f70b00 	mvnseq	r0, r0, lsl #22
     52c:	0b0b0000 	bleq	2c0534 <__bss_end__+0x2b587c>
     530:	000001f1 	strdeq	r0, [r0], -r1
     534:	0c0c000c 	stceq	0, cr0, [ip], {12}
     538:	010a2902 	tsteq	sl, r2, lsl #18
     53c:	f00d0000 			; <UNDEFINED> instruction: 0xf00d0000
     540:	02000008 	andeq	r0, r0, #8
     544:	0000ad2a 	andeq	sl, r0, sl, lsr #26
     548:	ba0d0000 	blt	340550 <__bss_end__+0x335898>
     54c:	0200000b 	andeq	r0, r0, #11
     550:	0000ad2b 	andeq	sl, r0, fp, lsr #26
     554:	3e0d0400 	cfcpyscc	mvf0, mvf13
     558:	02000003 	andeq	r0, r0, #3
     55c:	0000372c 	andeq	r3, r0, ip, lsr #14
     560:	03000800 	movweq	r0, #2048	; 0x800
     564:	000002cb 	andeq	r0, r0, fp, asr #5
     568:	00dd2d02 	sbcseq	r2, sp, r2, lsl #26
     56c:	970e0000 	strls	r0, [lr, -r0]
     570:	38000003 	stmdacc	r0, {r0, r1}
     574:	019a3002 	orrseq	r3, sl, r2
     578:	9f0d0000 	svcls	0x000d0000
     57c:	02000002 	andeq	r0, r0, #2
     580:	00007e31 	andeq	r7, r0, r1, lsr lr
     584:	7d0d0000 	stcvc	0, cr0, [sp, #-0]
     588:	02000003 	andeq	r0, r0, #3
     58c:	00007e32 	andeq	r7, r0, r2, lsr lr
     590:	7b0d0400 	blvc	341598 <__bss_end__+0x3368e0>
     594:	02000007 	andeq	r0, r0, #7
     598:	00007e33 	andeq	r7, r0, r3, lsr lr
     59c:	990d0800 	stmdbls	sp, {fp}
     5a0:	02000002 	andeq	r0, r0, #2
     5a4:	00007e37 	andeq	r7, r0, r7, lsr lr
     5a8:	790d0c00 	stmdbvc	sp, {sl, fp}
     5ac:	02000002 	andeq	r0, r0, #2
     5b0:	00010a39 	andeq	r0, r1, r9, lsr sl
     5b4:	ac0d1000 	stcge	0, cr1, [sp], {-0}
     5b8:	02000002 	andeq	r0, r0, #2
     5bc:	00010a3a 	andeq	r0, r1, sl, lsr sl
     5c0:	720d1c00 	andvc	r1, sp, #0, 24
     5c4:	02000003 	andeq	r0, r0, #3
     5c8:	00007e3e 	andeq	r7, r0, lr, lsr lr
     5cc:	170d2800 	strne	r2, [sp, -r0, lsl #16]
     5d0:	02000003 	andeq	r0, r0, #3
     5d4:	00007e3f 	andeq	r7, r0, pc, lsr lr
     5d8:	c80d2c00 	stmdagt	sp, {sl, fp, sp}
     5dc:	02000001 	andeq	r0, r0, #1
     5e0:	00019a42 	andeq	r9, r1, r2, asr #20
     5e4:	d10d3000 	mrsle	r3, (UNDEF: 13)
     5e8:	02000001 	andeq	r0, r0, #1
     5ec:	00006c45 	andeq	r6, r0, r5, asr #24
     5f0:	06003400 	streq	r3, [r0], -r0, lsl #8
     5f4:	00011504 	andeq	r1, r1, r4, lsl #10
     5f8:	03680300 	cmneq	r8, #0, 6
     5fc:	46020000 	strmi	r0, [r2], -r0
     600:	00000115 	andeq	r0, r0, r5, lsl r1
     604:	4902020a 	stmdbmi	r2, {r1, r3, r9}
     608:	000001d0 	ldrdeq	r0, [r0], -r0	; <UNPREDICTABLE>
     60c:	0003010b 	andeq	r0, r3, fp, lsl #2
     610:	0b01fe00 	bleq	7fe18 <__bss_end__+0x75160>
     614:	0000028d 	andeq	r0, r0, sp, lsl #5
     618:	2e0b0180 	adfcs<illegal precision>	f0, f3, f0
     61c:	b8000002 	stmdalt	r0, {r1}
     620:	021e0b01 	andseq	r0, lr, #1024	; 0x400
     624:	02b80000 	adcseq	r0, r8, #0
     628:	02c10e00 	sbceq	r0, r1, #0, 28
     62c:	02100000 	andseq	r0, r0, #0
     630:	00020d9b 	muleq	r2, fp, sp
     634:	0d5b0d00 	ldcleq	13, cr0, [fp, #-0]
     638:	9d020000 	stcls	0, cr0, [r2, #-0]
     63c:	0000009e 	muleq	r0, lr, r0
     640:	0d6e0d00 	stcleq	13, cr0, [lr, #-0]
     644:	9f020000 	svcls	0x00020000
     648:	0000009e 	muleq	r0, lr, r0
     64c:	01ae0d04 			; <UNDEFINED> instruction: 0x01ae0d04
     650:	a2020000 	andge	r0, r2, #0
     654:	00000037 	andeq	r0, r0, r7, lsr r0
     658:	03230d08 	teqeq	r3, #8, 26	; 0x200
     65c:	a4020000 	strge	r0, [r2], #-0
     660:	00000037 	andeq	r0, r0, r7, lsr r0
     664:	e70f000c 	str	r0, [pc, -ip]
     668:	02000001 	andeq	r0, r0, #1
     66c:	00009e57 	andeq	r9, r0, r7, asr lr
     670:	02270300 	eoreq	r0, r7, #0, 6
     674:	68100000 	ldmdavs	r0, {}	; <UNPREDICTABLE>
     678:	27570200 	ldrbcs	r0, [r7, -r0, lsl #4]
     67c:	00000002 	andeq	r0, r0, r2
     680:	01a00406 	lsleq	r0, r6, #8
     684:	b50f0000 	strlt	r0, [pc, #-0]	; 68c <__code_start__-0x7974>
     688:	02000002 	andeq	r0, r0, #2
     68c:	00009e59 	andeq	r9, r0, r9, asr lr
     690:	02470300 	subeq	r0, r7, #0, 6
     694:	68100000 	ldmdavs	r0, {}	; <UNPREDICTABLE>
     698:	27590200 	ldrbcs	r0, [r9, -r0, lsl #4]
     69c:	00000002 	andeq	r0, r0, r2
     6a0:	0002df0f 	andeq	sp, r2, pc, lsl #30
     6a4:	9e5b0200 	cdpls	2, 5, cr0, cr11, cr0, {0}
     6a8:	03000000 	movweq	r0, #0
     6ac:	00000261 	andeq	r0, r0, r1, ror #4
     6b0:	02006810 	andeq	r6, r0, #16, 16	; 0x100000
     6b4:	0002275b 	andeq	r2, r2, fp, asr r7
     6b8:	450f0000 	strmi	r0, [pc, #-0]	; 6c0 <__code_start__-0x7940>
     6bc:	02000003 	andeq	r0, r0, #3
     6c0:	0000375d 	andeq	r3, r0, sp, asr r7
     6c4:	027b0300 	rsbseq	r0, fp, #0, 6
     6c8:	68100000 	ldmdavs	r0, {}	; <UNPREDICTABLE>
     6cc:	275d0200 	ldrbcs	r0, [sp, -r0, lsl #4]
     6d0:	00000002 	andeq	r0, r0, r2
     6d4:	0001ff0f 	andeq	pc, r1, pc, lsl #30
     6d8:	275f0200 	ldrbcs	r0, [pc, -r0, lsl #4]
     6dc:	03000002 	movweq	r0, #2
     6e0:	00000297 	muleq	r0, r7, r2
     6e4:	0001d811 	andeq	sp, r1, r1, lsl r8
     6e8:	9e5f0200 	cdpls	2, 5, cr0, cr15, cr0, {0}
     6ec:	00000000 	andeq	r0, r0, r0
     6f0:	0002440f 	andeq	r4, r2, pc, lsl #8
     6f4:	37630200 	strbcc	r0, [r3, -r0, lsl #4]!
     6f8:	03000000 	movweq	r0, #0
     6fc:	000002b1 			; <UNDEFINED> instruction: 0x000002b1
     700:	02006810 	andeq	r6, r0, #16, 16	; 0x100000
     704:	00022763 	andeq	r2, r2, r3, ror #14
     708:	f1120000 			; <UNDEFINED> instruction: 0xf1120000
     70c:	02000002 	andeq	r0, r0, #2
     710:	02d00383 	sbcseq	r0, r0, #201326594	; 0xc000002
     714:	68100000 	ldmdavs	r0, {}	; <UNPREDICTABLE>
     718:	27830200 	strcs	r0, [r3, r0, lsl #4]
     71c:	13000002 	movwne	r0, #2
     720:	8502006c 	strhi	r0, [r2, #-108]	; 0x6c
     724:	000002d0 	ldrdeq	r0, [r0], -r0	; <UNPREDICTABLE>
     728:	0a040600 	beq	101f30 <__bss_end__+0xf7278>
     72c:	14000001 	strne	r0, [r0], #-1
     730:	0000038d 	andeq	r0, r0, sp, lsl #7
     734:	00253401 	eoreq	r3, r5, r1, lsl #8
     738:	81740000 	cmnhi	r4, r0
     73c:	01000000 	mrseq	r0, (UNDEF: 0)
     740:	9c010000 	stcls	0, cr0, [r1], {-0}
     744:	0000045a 	andeq	r0, r0, sl, asr r4
     748:	01006815 	tsteq	r0, r5, lsl r8
     74c:	00022734 	andeq	r2, r2, r4, lsr r7
     750:	00003c00 	andeq	r3, r0, r0, lsl #24
     754:	00701500 	rsbseq	r1, r0, r0, lsl #10
     758:	00a03401 	adceq	r3, r0, r1, lsl #8
     75c:	00700000 	rsbseq	r0, r0, r0
     760:	4b160000 	blmi	580768 <__bss_end__+0x575ab0>
     764:	01000003 	tsteq	r0, r3
     768:	00003734 	andeq	r3, r0, r4, lsr r7
     76c:	00009c00 	andeq	r9, r0, r0, lsl #24
     770:	00691700 	rsbeq	r1, r9, r0, lsl #14
     774:	00253501 	eoreq	r3, r5, r1, lsl #10
     778:	00c80000 	sbceq	r0, r8, r0
     77c:	94180000 	ldrls	r0, [r8], #-0
     780:	b0000081 	andlt	r0, r0, r1, lsl #1
     784:	19000000 	stmdbne	r0, {}	; <UNPREDICTABLE>
     788:	000001d6 	ldrdeq	r0, [r0], -r6
     78c:	00a03801 	adceq	r3, r0, r1, lsl #16
     790:	57010000 	strpl	r0, [r1, -r0]
     794:	0009671a 	andeq	r6, r9, sl, lsl r7
     798:	25390100 	ldrcs	r0, [r9, #-256]!	; 0x100
     79c:	f2000000 	vhadd.s8	d0, d0, d0
     7a0:	1b000000 	blne	7a8 <__code_start__-0x7858>
     7a4:	000002b1 			; <UNDEFINED> instruction: 0x000002b1
     7a8:	000081c0 	andeq	r8, r0, r0, asr #3
     7ac:	00000070 	andeq	r0, r0, r0, ror r0
     7b0:	03f73a01 	mvnseq	r3, #4096	; 0x1000
     7b4:	bd1c0000 	ldclt	0, cr0, [ip, #-0]
     7b8:	05000002 	streq	r0, [r0, #-2]
     7bc:	18000001 	stmdane	r0, {r0}
     7c0:	000081c0 	andeq	r8, r0, r0, asr #3
     7c4:	00000070 	andeq	r0, r0, r0, ror r0
     7c8:	0002c61d 	andeq	ip, r2, sp, lsl r6
     7cc:	00011800 	andeq	r1, r1, r0, lsl #16
     7d0:	81c81e00 	bichi	r1, r8, r0, lsl #28
     7d4:	10170000 	andsne	r0, r7, r0
     7d8:	038c0000 	orreq	r0, ip, #0
     7dc:	011f0000 	tsteq	pc, r0
     7e0:	00760250 	rsbseq	r0, r6, r0, asr r2
     7e4:	81d41e00 	bicshi	r1, r4, r0, lsl #28
     7e8:	10170000 	andsne	r0, r7, r0
     7ec:	03a30000 			; <UNDEFINED> instruction: 0x03a30000
     7f0:	011f0000 	tsteq	pc, r0
     7f4:	a8030550 	stmdage	r3, {r4, r6, r8, sl}
     7f8:	0000009e 	muleq	r0, lr, r0
     7fc:	0081e81e 	addeq	lr, r1, lr, lsl r8
     800:	00101700 	andseq	r1, r0, r0, lsl #14
     804:	0003b700 	andeq	fp, r3, r0, lsl #14
     808:	50011f00 	andpl	r1, r1, r0, lsl #30
     80c:	00007602 	andeq	r7, r0, r2, lsl #12
     810:	0081fc1e 	addeq	pc, r1, lr, lsl ip	; <UNPREDICTABLE>
     814:	00101700 	andseq	r1, r0, r0, lsl #14
     818:	0003ce00 	andeq	ip, r3, r0, lsl #28
     81c:	50011f00 	andpl	r1, r1, r0, lsl #30
     820:	9eb40305 	cdpls	3, 11, cr0, cr4, cr5, {0}
     824:	1e000000 	cdpne	0, 0, cr0, cr0, cr0, {0}
     828:	0000821c 	andeq	r8, r0, ip, lsl r2
     82c:	00001017 	andeq	r1, r0, r7, lsl r0
     830:	000003e2 	andeq	r0, r0, r2, ror #7
     834:	0250011f 	subseq	r0, r0, #-1073741817	; 0xc0000007
     838:	20000076 	andcs	r0, r0, r6, ror r0
     83c:	00008230 	andeq	r8, r0, r0, lsr r2
     840:	00001017 	andeq	r1, r0, r7, lsl r0
     844:	0550011f 	ldrbeq	r0, [r0, #-287]	; 0x11f
     848:	009ed403 	addseq	sp, lr, r3, lsl #8
     84c:	00000000 	andeq	r0, r0, r0
     850:	0081a81e 	addeq	sl, r1, lr, lsl r8
     854:	00101700 	andseq	r1, r0, r0, lsl #14
     858:	00040b00 	andeq	r0, r4, r0, lsl #22
     85c:	50011f00 	andpl	r1, r1, r0, lsl #30
     860:	00007602 	andeq	r7, r0, r2, lsl #12
     864:	0081b01e 	addeq	fp, r1, lr, lsl r0
     868:	00101700 	andseq	r1, r0, r0, lsl #14
     86c:	00042200 	andeq	r2, r4, r0, lsl #4
     870:	50011f00 	andpl	r1, r1, r0, lsl #30
     874:	9e7c0305 	cdpls	3, 7, cr0, cr12, cr5, {0}
     878:	1e000000 	cdpne	0, 0, cr0, cr0, cr0, {0}
     87c:	000081c0 	andeq	r8, r0, r0, asr #3
     880:	00001017 	andeq	r1, r0, r7, lsl r0
     884:	00000445 	andeq	r0, r0, r5, asr #8
     888:	0252011f 	subseq	r0, r2, #-1073741817	; 0xc0000007
     88c:	011f0078 	tsteq	pc, r8, ror r0	; <UNPREDICTABLE>
     890:	00770251 	rsbseq	r0, r7, r1, asr r2
     894:	0550011f 	ldrbeq	r0, [r0, #-287]	; 0x11f
     898:	009e8403 	addseq	r8, lr, r3, lsl #8
     89c:	3c200000 	stccc	0, cr0, [r0], #-0
     8a0:	17000082 	strne	r0, [r0, -r2, lsl #1]
     8a4:	1f000010 	svcne	0x00000010
     8a8:	03055001 	movweq	r5, #20481	; 0x5001
     8ac:	00009ef0 	strdeq	r9, [r0], -r0
     8b0:	21000000 	mrscs	r0, (UNDEF: 0)
     8b4:	0000030a 	andeq	r0, r0, sl, lsl #6
     8b8:	82744201 	rsbshi	r4, r4, #268435456	; 0x10000000
     8bc:	00140000 	andseq	r0, r4, r0
     8c0:	9c010000 	stcls	0, cr0, [r1], {-0}
     8c4:	000004aa 	andeq	r0, r0, sl, lsr #9
     8c8:	01007015 	tsteq	r0, r5, lsl r0
     8cc:	00009e42 	andeq	r9, r0, r2, asr #28
     8d0:	00013a00 	andeq	r3, r1, r0, lsl #20
     8d4:	034b1600 	movteq	r1, #46592	; 0xb600
     8d8:	42010000 	andmi	r0, r1, #0
     8dc:	00000037 	andeq	r0, r0, r7, lsr r0
     8e0:	0000015b 	andeq	r0, r0, fp, asr r1
     8e4:	00828420 	addeq	r8, r2, r0, lsr #8
     8e8:	00102d00 	andseq	r2, r0, r0, lsl #26
     8ec:	52011f00 	andpl	r1, r1, #0, 30
     8f0:	5101f303 	tstpl	r1, r3, lsl #6
     8f4:	0251011f 	subseq	r0, r1, #-1073741817	; 0xc0000007
     8f8:	011ffe08 	tsteq	pc, r8, lsl #28
     8fc:	01f30350 	mvnseq	r0, r0, asr r3
     900:	14000050 	strne	r0, [r0], #-80	; 0x50
     904:	00000283 	andeq	r0, r0, r3, lsl #5
     908:	007e1901 	rsbseq	r1, lr, r1, lsl #18
     90c:	82880000 	addhi	r0, r8, #0
     910:	00480000 	subeq	r0, r8, r0
     914:	9c010000 	stcls	0, cr0, [r1], {-0}
     918:	0000052e 	andeq	r0, r0, lr, lsr #10
     91c:	01006815 	tsteq	r0, r5, lsl r8
     920:	00022719 	andeq	r2, r2, r9, lsl r7
     924:	00018700 	andeq	r8, r1, r0, lsl #14
     928:	02951900 	addseq	r1, r5, #0, 18
     92c:	1a010000 	bne	40934 <__bss_end__+0x35c7c>
     930:	00000037 	andeq	r0, r0, r7, lsr r0
     934:	6e195801 	cdpvs	8, 1, cr5, cr9, cr1, {0}
     938:	01000003 	tsteq	r0, r3
     93c:	0000371b 	andeq	r3, r0, fp, lsl r7
     940:	19570100 	ldmdbne	r7, {r8}^
     944:	00000313 	andeq	r0, r0, r3, lsl r3
     948:	00371c01 	eorseq	r1, r7, r1, lsl #24
     94c:	56010000 	strpl	r0, [r1], -r0
     950:	0001cd19 	andeq	ip, r1, r9, lsl sp
     954:	371d0100 	ldrcc	r0, [sp, -r0, lsl #2]
     958:	07000000 	streq	r0, [r0, -r0]
     95c:	ff0a0075 			; <UNDEFINED> instruction: 0xff0a0075
     960:	199f1aff 	ldmibne	pc, {r0, r1, r2, r3, r4, r5, r6, r7, r9, fp, ip}	; <UNPREDICTABLE>
     964:	00000299 	muleq	r0, r9, r2
     968:	007e2201 	rsbseq	r2, lr, r1, lsl #4
     96c:	50010000 	andpl	r0, r1, r0
     970:	0082bc20 	addeq	fp, r2, r0, lsr #24
     974:	00104c00 	andseq	r4, r0, r0, lsl #24
     978:	51011f00 	tstpl	r1, r0, lsl #30
     97c:	1f380802 	svcne	0x00380802
     980:	74025001 	strvc	r5, [r2], #-1
     984:	14000000 	strne	r0, [r0], #-0
     988:	000002d5 	ldrdeq	r0, [r0], -r5
     98c:	00252b01 	eoreq	r2, r5, r1, lsl #22
     990:	82d00000 	sbcshi	r0, r0, #0
     994:	00780000 	rsbseq	r0, r8, r0
     998:	9c010000 	stcls	0, cr0, [r1], {-0}
     99c:	00000609 	andeq	r0, r0, r9, lsl #12
     9a0:	01006815 	tsteq	r0, r5, lsl r8
     9a4:	0002272b 	andeq	r2, r2, fp, lsr #14
     9a8:	0001a500 	andeq	sl, r1, r0, lsl #10
     9ac:	03521a00 	cmpeq	r2, #0, 20
     9b0:	2c010000 	stccs	0, cr0, [r1], {-0}
     9b4:	0000007e 	andeq	r0, r0, lr, ror r0
     9b8:	000001c3 	andeq	r0, r0, r3, asr #3
     9bc:	00013b22 	andeq	r3, r1, r2, lsr #22
     9c0:	00061900 	andeq	r1, r6, r0, lsl #18
     9c4:	2c030500 	cfstr32cs	mvfx0, [r3], {-0}
     9c8:	1e00009e 	mcrne	0, 0, r0, cr0, cr14, {4}
     9cc:	000082dc 	ldrdeq	r8, [r0], -ip
     9d0:	000004aa 	andeq	r0, r0, sl, lsr #9
     9d4:	00000586 	andeq	r0, r0, r6, lsl #11
     9d8:	0250011f 	subseq	r0, r0, #-1073741817	; 0xc0000007
     9dc:	23000074 	movwcs	r0, #116	; 0x74
     9e0:	000082ec 	andeq	r8, r0, ip, ror #5
     9e4:	0000106d 	andeq	r1, r0, sp, rrx
     9e8:	0083001e 	addeq	r0, r3, lr, lsl r0
     9ec:	00101700 	andseq	r1, r0, r0, lsl #14
     9f0:	0005be00 	andeq	fp, r5, r0, lsl #28
     9f4:	53011f00 	movwpl	r1, #7936	; 0x1f00
     9f8:	1f2f0802 	svcne	0x002f0802
     9fc:	03055201 	movweq	r5, #20993	; 0x5201
     a00:	00009e2c 	andeq	r9, r0, ip, lsr #28
     a04:	0551011f 	ldrbeq	r0, [r1, #-287]	; 0x11f
     a08:	009f2803 	addseq	r2, pc, r3, lsl #16
     a0c:	50011f00 	andpl	r1, r1, r0, lsl #30
     a10:	9efc0305 	cdpls	3, 15, cr0, cr12, cr5, {0}
     a14:	23000000 	movwcs	r0, #0
     a18:	00008304 	andeq	r8, r0, r4, lsl #6
     a1c:	00001074 	andeq	r1, r0, r4, ror r0
     a20:	00831823 	addeq	r1, r3, r3, lsr #16
     a24:	00106d00 	andseq	r6, r0, r0, lsl #26
     a28:	832c1e00 	teqhi	ip, #0, 28
     a2c:	10170000 	andsne	r0, r7, r0
     a30:	05ff0000 	ldrbeq	r0, [pc, #0]!	; a38 <__code_start__-0x75c8>
     a34:	011f0000 	tsteq	pc, r0
     a38:	30080253 	andcc	r0, r8, r3, asr r2
     a3c:	0552011f 	ldrbeq	r0, [r2, #-287]	; 0x11f
     a40:	009e2c03 	addseq	r2, lr, r3, lsl #24
     a44:	51011f00 	tstpl	r1, r0, lsl #30
     a48:	9f280305 	svcls	0x00280305
     a4c:	011f0000 	tsteq	pc, r0
     a50:	34030550 	strcc	r0, [r3], #-1360	; 0x550
     a54:	0000009f 	muleq	r0, pc, r0	; <UNPREDICTABLE>
     a58:	00833023 	addeq	r3, r3, r3, lsr #32
     a5c:	00107400 	andseq	r7, r0, r0, lsl #8
     a60:	a6080000 	strge	r0, [r8], -r0
     a64:	19000000 	stmdbne	r0, {}	; <UNPREDICTABLE>
     a68:	09000006 	stmdbeq	r0, {r1, r2}
     a6c:	00000097 	muleq	r0, r7, r0
     a70:	09070009 	stmdbeq	r7, {r0, r3}
     a74:	14000006 	strne	r0, [r0], #-6
     a78:	00000332 	andeq	r0, r0, r2, lsr r3
     a7c:	00254c01 	eoreq	r4, r5, r1, lsl #24
     a80:	83480000 	movthi	r0, #32768	; 0x8000
     a84:	00700000 	rsbseq	r0, r0, r0
     a88:	9c010000 	stcls	0, cr0, [r1], {-0}
     a8c:	000006c3 	andeq	r0, r0, r3, asr #13
     a90:	01006815 	tsteq	r0, r5, lsl r8
     a94:	0002274c 	andeq	r2, r2, ip, asr #14
     a98:	0001ec00 	andeq	lr, r1, r0, lsl #24
     a9c:	02471b00 	subeq	r1, r7, #0, 22
     aa0:	83740000 	cmnhi	r4, #0
     aa4:	00080000 	andeq	r0, r8, r0
     aa8:	50010000 	andpl	r0, r1, r0
     aac:	00000661 	andeq	r0, r0, r1, ror #12
     ab0:	0002571c 	andeq	r5, r2, ip, lsl r7
     ab4:	00020a00 	andeq	r0, r2, r0, lsl #20
     ab8:	611b0000 	tstvs	fp, r0
     abc:	7c000002 	stcvc	0, cr0, [r0], {2}
     ac0:	04000083 	streq	r0, [r0], #-131	; 0x83
     ac4:	01000000 	mrseq	r0, (UNDEF: 0)
     ac8:	00067e50 	andeq	r7, r6, r0, asr lr
     acc:	02711c00 	rsbseq	r1, r1, #0, 24
     ad0:	02280000 	eoreq	r0, r8, #0
     ad4:	1e000000 	cdpne	0, 0, cr0, cr0, cr0, {0}
     ad8:	00008354 	andeq	r8, r0, r4, asr r3
     adc:	0000052e 	andeq	r0, r0, lr, lsr #10
     ae0:	00000692 	muleq	r0, r2, r6
     ae4:	0250011f 	subseq	r0, r0, #-1073741817	; 0xc0000007
     ae8:	1e000074 	mcrne	0, 0, r0, cr0, cr4, {3}
     aec:	0000836c 	andeq	r8, r0, ip, ror #6
     af0:	000002d6 	ldrdeq	r0, [r0], -r6
     af4:	000006b2 			; <UNDEFINED> instruction: 0x000006b2
     af8:	0252011f 	subseq	r0, r2, #-1073741817	; 0xc0000007
     afc:	011f8008 	tsteq	pc, r8
     b00:	38740251 	ldmdacc	r4!, {r0, r4, r6, r9}^
     b04:	0250011f 	subseq	r0, r0, #-1073741817	; 0xc0000007
     b08:	20000074 	andcs	r0, r0, r4, ror r0
     b0c:	00008390 	muleq	r0, r0, r3
     b10:	000002d6 	ldrdeq	r0, [r0], -r6
     b14:	0250011f 	subseq	r0, r0, #-1073741817	; 0xc0000007
     b18:	00000074 	andeq	r0, r0, r4, ror r0
     b1c:	00014824 	andeq	r4, r1, r4, lsr #16
     b20:	b80c0100 	stmdalt	ip, {r8}
     b24:	88000083 	stmdahi	r0, {r0, r1, r7}
     b28:	01000000 	mrseq	r0, (UNDEF: 0)
     b2c:	0007639c 	muleq	r7, ip, r3
     b30:	0d601600 	stcleq	6, cr1, [r0, #-0]
     b34:	0c010000 	stceq	0, cr0, [r1], {-0}
     b38:	0000009e 	muleq	r0, lr, r0
     b3c:	00000246 	andeq	r0, r0, r6, asr #4
     b40:	01006e15 	tsteq	r0, r5, lsl lr
     b44:	0000370c 	andeq	r3, r0, ip, lsl #14
     b48:	00027a00 	andeq	r7, r2, r0, lsl #20
     b4c:	013b2200 	teqeq	fp, r0, lsl #4
     b50:	07630000 	strbeq	r0, [r3, -r0]!
     b54:	03050000 	movweq	r0, #20480	; 0x5000
     b58:	00009e38 	andeq	r9, r0, r8, lsr lr
     b5c:	0083d823 	addeq	sp, r3, r3, lsr #16
     b60:	00106d00 	andseq	r6, r0, r0, lsl #26
     b64:	83ec1e00 	mvnhi	r1, #0, 28
     b68:	10170000 	andsne	r0, r7, r0
     b6c:	073a0000 	ldreq	r0, [sl, -r0]!
     b70:	011f0000 	tsteq	pc, r0
     b74:	1f3d0153 	svcne	0x003d0153
     b78:	03055201 	movweq	r5, #20993	; 0x5201
     b7c:	00009e38 	andeq	r9, r0, r8, lsr lr
     b80:	0551011f 	ldrbeq	r0, [r1, #-287]	; 0x11f
     b84:	009f2803 	addseq	r2, pc, r3, lsl #16
     b88:	50011f00 	andpl	r1, r1, r0, lsl #30
     b8c:	9f700305 	svcls	0x00700305
     b90:	23000000 	movwcs	r0, #0
     b94:	000083f0 	strdeq	r8, [r0], -r0
     b98:	00001074 	andeq	r1, r0, r4, ror r0
     b9c:	00840020 	addeq	r0, r4, r0, lsr #32
     ba0:	00101700 	andseq	r1, r0, r0, lsl #14
     ba4:	52011f00 	andpl	r1, r1, #0, 30
     ba8:	1f800802 	svcne	0x00800802
     bac:	08025101 	stmdaeq	r2, {r0, r8, ip, lr}
     bb0:	50011f38 	andpl	r1, r1, r8, lsr pc
     bb4:	9f980305 	svcls	0x00980305
     bb8:	00000000 	andeq	r0, r0, r0
     bbc:	0000b807 	andeq	fp, r0, r7, lsl #16
     bc0:	02662400 	rsbeq	r2, r6, #0, 8
     bc4:	58010000 	stmdapl	r1, {}	; <UNPREDICTABLE>
     bc8:	00008440 	andeq	r8, r0, r0, asr #8
     bcc:	000000d0 	ldrdeq	r0, [r0], -r0	; <UNPREDICTABLE>
     bd0:	08839c01 	stmeq	r3, {r0, sl, fp, ip, pc}
     bd4:	d8160000 	ldmdale	r6, {}	; <UNPREDICTABLE>
     bd8:	01000001 	tsteq	r0, r1
     bdc:	00009e58 	andeq	r9, r0, r8, asr lr
     be0:	0002bc00 	andeq	fp, r2, r0, lsl #24
     be4:	08f01600 	ldmeq	r0!, {r9, sl, ip}^
     be8:	58010000 	stmdapl	r1, {}	; <UNPREDICTABLE>
     bec:	000000ad 	andeq	r0, r0, sp, lsr #1
     bf0:	000002da 	ldrdeq	r0, [r0], -sl
     bf4:	000bba16 	andeq	fp, fp, r6, lsl sl
     bf8:	ad580100 	ldfgee	f0, [r8, #-0]
     bfc:	0e000000 	cdpeq	0, 0, cr0, cr0, cr0, {0}
     c00:	16000003 	strne	r0, [r0], -r3
     c04:	0000033e 	andeq	r0, r0, lr, lsr r3
     c08:	00375801 	eorseq	r5, r7, r1, lsl #16
     c0c:	03420000 	movteq	r0, #8192	; 0x2000
     c10:	68170000 	ldmdavs	r7, {}	; <UNPREDICTABLE>
     c14:	27590100 	ldrbcs	r0, [r9, -r0, lsl #2]
     c18:	76000002 	strvc	r0, [r0], -r2
     c1c:	22000003 	andcs	r0, r0, #3
     c20:	0000013b 	andeq	r0, r0, fp, lsr r1
     c24:	00000893 	muleq	r0, r3, r8
     c28:	9e400305 	cdpls	3, 4, cr0, cr0, cr5, {0}
     c2c:	68230000 	stmdavs	r3!, {}	; <UNPREDICTABLE>
     c30:	6d000084 	stcvs	0, cr0, [r0, #-528]	; 0xfffffdf0
     c34:	1e000010 	mcrne	0, 0, r0, cr0, cr0, {0}
     c38:	0000847c 	andeq	r8, r0, ip, ror r4
     c3c:	00001017 	andeq	r1, r0, r7, lsl r0
     c40:	0000080d 	andeq	r0, r0, sp, lsl #16
     c44:	0253011f 	subseq	r0, r3, #-1073741817	; 0xc0000007
     c48:	011f5a08 	tsteq	pc, r8, lsl #20
     c4c:	40030552 	andmi	r0, r3, r2, asr r5
     c50:	1f00009e 	svcne	0x0000009e
     c54:	03055101 	movweq	r5, #20737	; 0x5101
     c58:	00009f28 	andeq	r9, r0, r8, lsr #30
     c5c:	0550011f 	ldrbeq	r0, [r0, #-287]	; 0x11f
     c60:	009fb403 	addseq	fp, pc, r3, lsl #8
     c64:	80230000 	eorhi	r0, r3, r0
     c68:	74000084 	strvc	r0, [r0], #-132	; 0x84
     c6c:	1e000010 	mcrne	0, 0, r0, cr0, cr0, {0}
     c70:	00008488 	andeq	r8, r0, r8, lsl #9
     c74:	00001017 	andeq	r1, r0, r7, lsl r0
     c78:	0000082d 	andeq	r0, r0, sp, lsr #16
     c7c:	0550011f 	ldrbeq	r0, [r0, #-287]	; 0x11f
     c80:	009d4403 	addseq	r4, sp, r3, lsl #8
     c84:	941e0000 	ldrls	r0, [lr], #-0
     c88:	17000084 	strne	r0, [r0, -r4, lsl #1]
     c8c:	4a000010 	bmi	cd4 <__code_start__-0x732c>
     c90:	1f000008 	svcne	0x00000008
     c94:	74025101 	strvc	r5, [r2], #-257	; 0x101
     c98:	50011f00 	andpl	r1, r1, r0, lsl #30
     c9c:	9fe80305 	svcls	0x00e80305
     ca0:	1e000000 	cdpne	0, 0, cr0, cr0, cr0, {0}
     ca4:	000084a0 	andeq	r8, r0, r0, lsr #9
     ca8:	0000061e 	andeq	r0, r0, lr, lsl r6
     cac:	0000085e 	andeq	r0, r0, lr, asr r8
     cb0:	0250011f 	subseq	r0, r0, #-1073741817	; 0xc0000007
     cb4:	1e000075 	mcrne	0, 0, r0, cr0, cr5, {3}
     cb8:	000084c8 	andeq	r8, r0, r8, asr #9
     cbc:	0000045a 	andeq	r0, r0, sl, asr r4
     cc0:	00000872 	andeq	r0, r0, r2, ror r8
     cc4:	0250011f 	subseq	r0, r0, #-1073741817	; 0xc0000007
     cc8:	20000074 	andcs	r0, r0, r4, ror r0
     ccc:	000084f0 	strdeq	r8, [r0], -r0
     cd0:	000004aa 	andeq	r0, r0, sl, lsr #9
     cd4:	0250011f 	subseq	r0, r0, #-1073741817	; 0xc0000007
     cd8:	00000075 	andeq	r0, r0, r5, ror r0
     cdc:	0000a608 	andeq	sl, r0, r8, lsl #12
     ce0:	00089300 	andeq	r9, r8, r0, lsl #6
     ce4:	00970900 	addseq	r0, r7, r0, lsl #18
     ce8:	00060000 	andeq	r0, r6, r0
     cec:	00088307 	andeq	r8, r8, r7, lsl #6
     cf0:	005e2500 	subseq	r2, lr, r0, lsl #10
     cf4:	74010000 	strvc	r0, [r1], #-0
     cf8:	0000009e 	muleq	r0, lr, r0
     cfc:	00008510 	andeq	r8, r0, r0, lsl r5
     d00:	0000022c 	andeq	r0, r0, ip, lsr #4
     d04:	0bf99c01 	bleq	ffe67d10 <__bss_end__+0xffe5d058>
     d08:	4b160000 	blmi	580d10 <__bss_end__+0x576058>
     d0c:	01000003 	tsteq	r0, r3
     d10:	00007e74 	andeq	r7, r0, r4, ror lr
     d14:	00038a00 	andeq	r8, r3, r0, lsl #20
     d18:	08f01600 	ldmeq	r0!, {r9, sl, ip}^
     d1c:	74010000 	strvc	r0, [r1], #-0
     d20:	000000ad 	andeq	r0, r0, sp, lsr #1
     d24:	000003cc 	andeq	r0, r0, ip, asr #7
     d28:	000bba16 	andeq	fp, fp, r6, lsl sl
     d2c:	ad740100 	ldfgee	f0, [r4, #-0]
     d30:	0e000000 	cdpeq	0, 0, cr0, cr0, cr0, {0}
     d34:	16000004 	strne	r0, [r0], -r4
     d38:	0000033e 	andeq	r0, r0, lr, lsr r3
     d3c:	00377401 	eorseq	r7, r7, r1, lsl #8
     d40:	04500000 	ldrbeq	r0, [r0], #-0
     d44:	68170000 	ldmdavs	r7, {}	; <UNPREDICTABLE>
     d48:	27750100 	ldrbcs	r0, [r5, -r0, lsl #2]!
     d4c:	7c000002 	stcvc	0, cr0, [r0], {2}
     d50:	17000004 	strne	r0, [r0, -r4]
     d54:	00727470 	rsbseq	r7, r2, r0, ror r4
     d58:	009e7601 	addseq	r7, lr, r1, lsl #12
     d5c:	04a90000 	strteq	r0, [r9], #0
     d60:	3b220000 	blcc	880d68 <__bss_end__+0x8760b0>
     d64:	f9000001 			; <UNDEFINED> instruction: 0xf9000001
     d68:	0500000b 	streq	r0, [r0, #-11]
     d6c:	009e4803 	addseq	r4, lr, r3, lsl #16
     d70:	6f741700 	svcvs	0x00741700
     d74:	7b010074 	blvc	40f4c <__bss_end__+0x36294>
     d78:	00000037 	andeq	r0, r0, r7, lsr r0
     d7c:	000004bd 			; <UNDEFINED> instruction: 0x000004bd
     d80:	01006e17 	tsteq	r0, r7, lsl lr
     d84:	0000377c 	andeq	r3, r0, ip, ror r7
     d88:	00052300 	andeq	r2, r5, r0, lsl #6
     d8c:	02471b00 	subeq	r1, r7, #0, 22
     d90:	866c0000 	strbthi	r0, [ip], -r0
     d94:	00080000 	andeq	r0, r8, r0
     d98:	97010000 	strls	r0, [r1, -r0]
     d9c:	00000951 	andeq	r0, r0, r1, asr r9
     da0:	0002571c 	andeq	r5, r2, ip, lsl r7
     da4:	00054c00 	andeq	r4, r5, r0, lsl #24
     da8:	611b0000 	tstvs	fp, r0
     dac:	74000002 	strvc	r0, [r0], #-2
     db0:	04000086 	streq	r0, [r0], #-134	; 0x86
     db4:	01000000 	mrseq	r0, (UNDEF: 0)
     db8:	00096e97 	muleq	r9, r7, lr
     dbc:	02711c00 	rsbseq	r1, r1, #0, 24
     dc0:	056d0000 	strbeq	r0, [sp, #-0]!
     dc4:	23000000 	movwcs	r0, #0
     dc8:	0000853c 	andeq	r8, r0, ip, lsr r5
     dcc:	0000106d 	andeq	r1, r0, sp, rrx
     dd0:	0085501e 	addeq	r5, r5, lr, lsl r0
     dd4:	00101700 	andseq	r1, r0, r0, lsl #14
     dd8:	0009a600 	andeq	sl, r9, r0, lsl #12
     ddc:	53011f00 	movwpl	r1, #7936	; 0x1f00
     de0:	1f780802 	svcne	0x00780802
     de4:	03055201 	movweq	r5, #20993	; 0x5201
     de8:	00009e48 	andeq	r9, r0, r8, asr #28
     dec:	0551011f 	ldrbeq	r0, [r1, #-287]	; 0x11f
     df0:	009f2803 	addseq	r2, pc, r3, lsl #16
     df4:	50011f00 	andpl	r1, r1, r0, lsl #30
     df8:	9fb40305 	svcls	0x00b40305
     dfc:	23000000 	movwcs	r0, #0
     e00:	00008554 	andeq	r8, r0, r4, asr r5
     e04:	00001074 	andeq	r1, r0, r4, ror r0
     e08:	00855c1e 	addeq	r5, r5, lr, lsl ip
     e0c:	00101700 	andseq	r1, r0, r0, lsl #14
     e10:	0009c600 	andeq	ip, r9, r0, lsl #12
     e14:	50011f00 	andpl	r1, r1, r0, lsl #30
     e18:	9d440305 	stclls	3, cr0, [r4, #-20]	; 0xffffffec
     e1c:	1e000000 	cdpne	0, 0, cr0, cr0, cr0, {0}
     e20:	00008568 	andeq	r8, r0, r8, ror #10
     e24:	00001017 	andeq	r1, r0, r7, lsl r0
     e28:	000009e3 	andeq	r0, r0, r3, ror #19
     e2c:	0251011f 	subseq	r0, r1, #-1073741817	; 0xc0000007
     e30:	011f0075 	tsteq	pc, r5, ror r0	; <UNPREDICTABLE>
     e34:	f4030550 	vst3.16	{d0,d2,d4}, [r3 :64], r0
     e38:	0000009f 	muleq	r0, pc, r0	; <UNPREDICTABLE>
     e3c:	0085841e 	addeq	r8, r5, lr, lsl r4
     e40:	00101700 	andseq	r1, r0, r0, lsl #14
     e44:	0009fa00 	andeq	pc, r9, r0, lsl #20
     e48:	50011f00 	andpl	r1, r1, r0, lsl #30
     e4c:	a00c0305 	andge	r0, ip, r5, lsl #6
     e50:	1e000000 	cdpne	0, 0, cr0, cr0, cr0, {0}
     e54:	00008590 	muleq	r0, r0, r5
     e58:	00001017 	andeq	r1, r0, r7, lsl r0
     e5c:	00000a17 	andeq	r0, r0, r7, lsl sl
     e60:	0251011f 	subseq	r0, r1, #-1073741817	; 0xc0000007
     e64:	011f0075 	tsteq	pc, r5, ror r0	; <UNPREDICTABLE>
     e68:	18030550 	stmdane	r3, {r4, r6, r8, sl}
     e6c:	000000a0 	andeq	r0, r0, r0, lsr #1
     e70:	00859423 	addeq	r9, r5, r3, lsr #8
     e74:	00106d00 	andseq	r6, r0, r0, lsl #26
     e78:	85ac1e00 	strhi	r1, [ip, #3584]!	; 0xe00
     e7c:	10170000 	andsne	r0, r7, r0
     e80:	0a560000 	beq	1580e88 <__bss_end__+0x15761d0>
     e84:	011f0000 	tsteq	pc, r0
     e88:	80080253 	andhi	r0, r8, r3, asr r2
     e8c:	0552011f 	ldrbeq	r0, [r2, #-287]	; 0x11f
     e90:	009e4803 	addseq	r4, lr, r3, lsl #16
     e94:	51011f00 	tstpl	r1, r0, lsl #30
     e98:	9f280305 	svcls	0x00280305
     e9c:	011f0000 	tsteq	pc, r0
     ea0:	40030550 	andmi	r0, r3, r0, asr r5
     ea4:	1f0000a0 	svcne	0x000000a0
     ea8:	02007d02 	andeq	r7, r0, #2, 26	; 0x80
     eac:	23000075 	movwcs	r0, #117	; 0x75
     eb0:	000085b0 			; <UNDEFINED> instruction: 0x000085b0
     eb4:	00001074 	andeq	r1, r0, r4, ror r0
     eb8:	0085d01e 	addeq	sp, r5, lr, lsl r0
     ebc:	00101700 	andseq	r1, r0, r0, lsl #14
     ec0:	000a7600 	andeq	r7, sl, r0, lsl #12
     ec4:	50011f00 	andpl	r1, r1, r0, lsl #30
     ec8:	a00c0305 	andge	r0, ip, r5, lsl #6
     ecc:	1e000000 	cdpne	0, 0, cr0, cr0, cr0, {0}
     ed0:	000085ec 	andeq	r8, r0, ip, ror #11
     ed4:	00001017 	andeq	r1, r0, r7, lsl r0
     ed8:	00000a93 	muleq	r0, r3, sl
     edc:	0252011f 	subseq	r0, r2, #-1073741817	; 0xc0000007
     ee0:	011f0076 	tsteq	pc, r6, ror r0	; <UNPREDICTABLE>
     ee4:	78030550 	stmdavc	r3, {r4, r6, r8, sl}
     ee8:	000000a0 	andeq	r0, r0, r0, lsr #1
     eec:	0085f023 	addeq	pc, r5, r3, lsr #32
     ef0:	00106d00 	andseq	r6, r0, r0, lsl #26
     ef4:	86181e00 	ldrhi	r1, [r8], -r0, lsl #28
     ef8:	10170000 	andsne	r0, r7, r0
     efc:	0ad20000 	beq	ff480f04 <__bss_end__+0xff47624c>
     f00:	011f0000 	tsteq	pc, r0
     f04:	84080253 	strhi	r0, [r8], #-595	; 0x253
     f08:	0552011f 	ldrbeq	r0, [r2, #-287]	; 0x11f
     f0c:	009e4803 	addseq	r4, lr, r3, lsl #16
     f10:	51011f00 	tstpl	r1, r0, lsl #30
     f14:	9f280305 	svcls	0x00280305
     f18:	011f0000 	tsteq	pc, r0
     f1c:	a4030550 	strge	r0, [r3], #-1360	; 0x550
     f20:	1f0000a0 	svcne	0x000000a0
     f24:	02047d02 	andeq	r7, r4, #2, 26	; 0x80
     f28:	23000076 	movwcs	r0, #118	; 0x76
     f2c:	0000861c 	andeq	r8, r0, ip, lsl r6
     f30:	00001074 	andeq	r1, r0, r4, ror r0
     f34:	00865c1e 	addeq	r5, r6, lr, lsl ip
     f38:	0004aa00 	andeq	sl, r4, r0, lsl #20
     f3c:	000aef00 	andeq	lr, sl, r0, lsl #30
     f40:	50011f00 	andpl	r1, r1, r0, lsl #30
     f44:	00007402 	andeq	r7, r0, r2, lsl #8
     f48:	00866c1e 	addeq	r6, r6, lr, lsl ip
     f4c:	00045a00 	andeq	r5, r4, r0, lsl #20
     f50:	000b0900 	andeq	r0, fp, r0, lsl #18
     f54:	51011f00 	tstpl	r1, r0, lsl #30
     f58:	1f800802 	svcne	0x00800802
     f5c:	74025001 	strvc	r5, [r2], #-1
     f60:	84230038 	strthi	r0, [r3], #-56	; 0x38
     f64:	5a000086 	bpl	1184 <__code_start__-0x6e7c>
     f68:	1e000004 	cdpne	0, 0, cr0, cr0, cr4, {0}
     f6c:	0000868c 	andeq	r8, r0, ip, lsl #13
     f70:	0000052e 	andeq	r0, r0, lr, lsr #10
     f74:	00000b26 	andeq	r0, r0, r6, lsr #22
     f78:	0250011f 	subseq	r0, r0, #-1073741817	; 0xc0000007
     f7c:	23000074 	movwcs	r0, #116	; 0x74
     f80:	00008698 	muleq	r0, r8, r6
     f84:	0000106d 	andeq	r1, r0, sp, rrx
     f88:	0086ac1e 	addeq	sl, r6, lr, lsl ip
     f8c:	00101700 	andseq	r1, r0, r0, lsl #14
     f90:	000b5e00 	andeq	r5, fp, r0, lsl #28
     f94:	53011f00 	movwpl	r1, #7936	; 0x1f00
     f98:	1f9b0802 	svcne	0x009b0802
     f9c:	03055201 	movweq	r5, #20993	; 0x5201
     fa0:	00009e48 	andeq	r9, r0, r8, asr #28
     fa4:	0551011f 	ldrbeq	r0, [r1, #-287]	; 0x11f
     fa8:	009f2803 	addseq	r2, pc, r3, lsl #16
     fac:	50011f00 	andpl	r1, r1, r0, lsl #30
     fb0:	a0e00305 	rscge	r0, r0, r5, lsl #6
     fb4:	23000000 	movwcs	r0, #0
     fb8:	000086b0 			; <UNDEFINED> instruction: 0x000086b0
     fbc:	00001074 	andeq	r1, r0, r4, ror r0
     fc0:	0086b81e 	addeq	fp, r6, lr, lsl r8
     fc4:	00061e00 	andeq	r1, r6, r0, lsl #28
     fc8:	000b7b00 	andeq	r7, fp, r0, lsl #22
     fcc:	50011f00 	andpl	r1, r1, r0, lsl #30
     fd0:	00007402 	andeq	r7, r0, r2, lsl #8
     fd4:	0086c423 	addeq	ip, r6, r3, lsr #8
     fd8:	00106d00 	andseq	r6, r0, r0, lsl #26
     fdc:	86d81e00 	ldrbhi	r1, [r8], r0, lsl #28
     fe0:	10170000 	andsne	r0, r7, r0
     fe4:	0bb30000 	bleq	fecc0fec <__bss_end__+0xfecb6334>
     fe8:	011f0000 	tsteq	pc, r0
     fec:	9c080253 	sfmls	f0, 4, [r8], {83}	; 0x53
     ff0:	0552011f 	ldrbeq	r0, [r2, #-287]	; 0x11f
     ff4:	009e4803 	addseq	r4, lr, r3, lsl #16
     ff8:	51011f00 	tstpl	r1, r0, lsl #30
     ffc:	9f280305 	svcls	0x00280305
    1000:	011f0000 	tsteq	pc, r0
    1004:	00030550 	andeq	r0, r3, r0, asr r5
    1008:	000000a1 	andeq	r0, r0, r1, lsr #1
    100c:	0086dc23 	addeq	sp, r6, r3, lsr #24
    1010:	00107400 	andseq	r7, r0, r0, lsl #8
    1014:	86e41e00 	strbthi	r1, [r4], r0, lsl #28
    1018:	10170000 	andsne	r0, r7, r0
    101c:	0bd30000 	bleq	ff4c1024 <__bss_end__+0xff4b636c>
    1020:	011f0000 	tsteq	pc, r0
    1024:	44030550 	strmi	r0, [r3], #-1360	; 0x550
    1028:	0000009d 	muleq	r0, sp, r0
    102c:	0086f820 	addeq	pc, r6, r0, lsr #16
    1030:	00101700 	andseq	r1, r0, r0, lsl #14
    1034:	53011f00 	movwpl	r1, #7936	; 0x1f00
    1038:	1f007702 	svcne	0x00007702
    103c:	76025201 	strvc	r5, [r2], -r1, lsl #4
    1040:	51011f00 	tstpl	r1, r0, lsl #30
    1044:	1f007502 	svcne	0x00007502
    1048:	03055001 	movweq	r5, #20481	; 0x5001
    104c:	0000a120 	andeq	sl, r0, r0, lsr #2
    1050:	b8070000 	stmdalt	r7, {}	; <UNPREDICTABLE>
    1054:	25000000 	strcs	r0, [r0, #-0]
    1058:	000000cc 	andeq	r0, r0, ip, asr #1
    105c:	0025a401 	eoreq	sl, r5, r1, lsl #8
    1060:	873c0000 	ldrhi	r0, [ip, -r0]!
    1064:	01700000 	cmneq	r0, r0
    1068:	9c010000 	stcls	0, cr0, [r1], {-0}
    106c:	00000df8 	strdeq	r0, [r0], -r8
    1070:	00032a1a 	andeq	r2, r3, sl, lsl sl
    1074:	37a50100 	strcc	r0, [r5, r0, lsl #2]!
    1078:	8e000000 	cdphi	0, 0, cr0, cr0, cr0, {0}
    107c:	1a000005 	bne	1098 <__code_start__-0x6f68>
    1080:	00000388 	andeq	r0, r0, r8, lsl #7
    1084:	0037a601 	eorseq	sl, r7, r1, lsl #12
    1088:	05a10000 	streq	r0, [r1, #0]!
    108c:	e91a0000 	ldmdb	sl, {}	; <UNPREDICTABLE>
    1090:	01000002 	tsteq	r0, r2
    1094:	000037aa 	andeq	r3, r0, sl, lsr #15
    1098:	0005b400 	andeq	fp, r5, r0, lsl #8
    109c:	02fb1a00 	rscseq	r1, fp, #0, 20
    10a0:	ab010000 	blge	410a8 <__bss_end__+0x363f0>
    10a4:	00000037 	andeq	r0, r0, r7, lsr r0
    10a8:	000005d3 	ldrdeq	r0, [r0], -r3
    10ac:	00025219 	andeq	r5, r2, r9, lsl r2
    10b0:	f8ad0100 			; <UNDEFINED> instruction: 0xf8ad0100
    10b4:	0100000d 	tsteq	r0, sp
    10b8:	013b2254 	teqeq	fp, r4, asr r2
    10bc:	0e0e0000 	cdpeq	0, 0, cr0, cr14, cr0, {0}
    10c0:	03050000 	movweq	r0, #20480	; 0x5000
    10c4:	00009e50 	andeq	r9, r0, r0, asr lr
    10c8:	00000026 	andeq	r0, r0, r6, lsr #32
    10cc:	000d5900 	andeq	r5, sp, r0, lsl #18
    10d0:	00681700 	rsbeq	r1, r8, r0, lsl #14
    10d4:	0227b001 	eoreq	fp, r7, #1
    10d8:	05f20000 	ldrbeq	r0, [r2, #0]!
    10dc:	98230000 	stmdals	r3!, {}	; <UNPREDICTABLE>
    10e0:	6d000087 	stcvs	0, cr0, [r0, #-540]	; 0xfffffde4
    10e4:	1e000010 	mcrne	0, 0, r0, cr0, cr0, {0}
    10e8:	000087ac 	andeq	r8, r0, ip, lsr #15
    10ec:	00001017 	andeq	r1, r0, r7, lsl r0
    10f0:	00000cbd 			; <UNDEFINED> instruction: 0x00000cbd
    10f4:	0253011f 	subseq	r0, r3, #-1073741817	; 0xc0000007
    10f8:	011faf08 	tsteq	pc, r8, lsl #30
    10fc:	50030552 	andpl	r0, r3, r2, asr r5
    1100:	1f00009e 	svcne	0x0000009e
    1104:	03055101 	movweq	r5, #20737	; 0x5101
    1108:	00009f28 	andeq	r9, r0, r8, lsr #30
    110c:	0550011f 	ldrbeq	r0, [r0, #-287]	; 0x11f
    1110:	00a18803 	adceq	r8, r1, r3, lsl #16
    1114:	b0230000 	eorlt	r0, r3, r0
    1118:	74000087 	strvc	r0, [r0], #-135	; 0x87
    111c:	1e000010 	mcrne	0, 0, r0, cr0, cr0, {0}
    1120:	000087b8 			; <UNDEFINED> instruction: 0x000087b8
    1124:	0000052e 	andeq	r0, r0, lr, lsr #10
    1128:	00000cda 	ldrdeq	r0, [r0], -sl
    112c:	0250011f 	subseq	r0, r0, #-1073741817	; 0xc0000007
    1130:	1e000074 	mcrne	0, 0, r0, cr0, cr4, {3}
    1134:	000087c8 	andeq	r8, r0, r8, asr #15
    1138:	00001017 	andeq	r1, r0, r7, lsl r0
    113c:	00000cee 	andeq	r0, r0, lr, ror #25
    1140:	0250011f 	subseq	r0, r0, #-1073741817	; 0xc0000007
    1144:	1e000079 	mcrne	0, 0, r0, cr0, cr9, {3}
    1148:	000087d0 	ldrdeq	r8, [r0], -r0
    114c:	00001017 	andeq	r1, r0, r7, lsl r0
    1150:	00000d05 	andeq	r0, r0, r5, lsl #26
    1154:	0550011f 	ldrbeq	r0, [r0, #-287]	; 0x11f
    1158:	00a1ac03 	adceq	sl, r1, r3, lsl #24
    115c:	e01e0000 	ands	r0, lr, r0
    1160:	1e000087 	cdpne	0, 0, cr0, cr0, cr7, {4}
    1164:	19000006 	stmdbne	r0, {r1, r2}
    1168:	1f00000d 	svcne	0x0000000d
    116c:	74025001 	strvc	r5, [r2], #-1
    1170:	041e0000 	ldreq	r0, [lr], #-0
    1174:	d6000088 	strle	r0, [r0], -r8, lsl #1
    1178:	34000002 	strcc	r0, [r0], #-2
    117c:	1f00000d 	svcne	0x0000000d
    1180:	74035101 	strvc	r5, [r3], #-257	; 0x101
    1184:	011f01b8 			; <UNDEFINED> instruction: 0x011f01b8
    1188:	00740250 	rsbseq	r0, r4, r0, asr r2
    118c:	88141e00 	ldmdahi	r4, {r9, sl, fp, ip}
    1190:	10170000 	andsne	r0, r7, r0
    1194:	0d480000 	stcleq	0, cr0, [r8, #-0]
    1198:	011f0000 	tsteq	pc, r0
    119c:	00790250 	rsbseq	r0, r9, r0, asr r2
    11a0:	881c2000 	ldmdahi	ip, {sp}
    11a4:	10170000 	andsne	r0, r7, r0
    11a8:	011f0000 	tsteq	pc, r0
    11ac:	00780250 	rsbseq	r0, r8, r0, asr r2
    11b0:	601e0000 	andsvs	r0, lr, r0
    11b4:	17000087 	strne	r0, [r0, -r7, lsl #1]
    11b8:	70000010 	andvc	r0, r0, r0, lsl r0
    11bc:	1f00000d 	svcne	0x0000000d
    11c0:	03055001 	movweq	r5, #20481	; 0x5001
    11c4:	00009d44 	andeq	r9, r0, r4, asr #26
    11c8:	87701e00 	ldrbhi	r1, [r0, -r0, lsl #28]!
    11cc:	10170000 	andsne	r0, r7, r0
    11d0:	0d930000 	ldceq	0, cr0, [r3]
    11d4:	011f0000 	tsteq	pc, r0
    11d8:	00750252 	rsbseq	r0, r5, r2, asr r2
    11dc:	0251011f 	subseq	r0, r1, #-1073741817	; 0xc0000007
    11e0:	011f0076 	tsteq	pc, r6, ror r0	; <UNPREDICTABLE>
    11e4:	50030550 	andpl	r0, r3, r0, asr r5
    11e8:	000000a1 	andeq	r0, r0, r1, lsr #1
    11ec:	0088541e 	addeq	r5, r8, lr, lsl r4
    11f0:	00101700 	andseq	r1, r0, r0, lsl #14
    11f4:	000da700 	andeq	sl, sp, r0, lsl #14
    11f8:	50011f00 	andpl	r1, r1, r0, lsl #30
    11fc:	00007902 	andeq	r7, r0, r2, lsl #18
    1200:	0088641e 	addeq	r6, r8, lr, lsl r4
    1204:	00101700 	andseq	r1, r0, r0, lsl #14
    1208:	000dca00 	andeq	ip, sp, r0, lsl #20
    120c:	52011f00 	andpl	r1, r1, #0, 30
    1210:	1f007602 	svcne	0x00007602
    1214:	75025101 	strvc	r5, [r2, #-257]	; 0x101
    1218:	50011f00 	andpl	r1, r1, r0, lsl #30
    121c:	a1dc0305 	bicsge	r0, ip, r5, lsl #6
    1220:	1e000000 	cdpne	0, 0, cr0, cr0, cr0, {0}
    1224:	00008870 	andeq	r8, r0, r0, ror r8
    1228:	00001017 	andeq	r1, r0, r7, lsl r0
    122c:	00000dde 	ldrdeq	r0, [r0], -lr
    1230:	0250011f 	subseq	r0, r0, #-1073741817	; 0xc0000007
    1234:	20000079 	andcs	r0, r0, r9, ror r0
    1238:	0000887c 	andeq	r8, r0, ip, ror r8
    123c:	00001017 	andeq	r1, r0, r7, lsl r0
    1240:	0251011f 	subseq	r0, r1, #-1073741817	; 0xc0000007
    1244:	011f0075 	tsteq	pc, r5, ror r0	; <UNPREDICTABLE>
    1248:	04030550 	streq	r0, [r3], #-1360	; 0x550
    124c:	000000a2 	andeq	r0, r0, r2, lsr #1
    1250:	5a040600 	bpl	102a58 <__bss_end__+0xf7da0>
    1254:	08000000 	stmdaeq	r0, {}	; <UNPREDICTABLE>
    1258:	000000a6 	andeq	r0, r0, r6, lsr #1
    125c:	00000e0e 	andeq	r0, r0, lr, lsl #28
    1260:	00009709 	andeq	r9, r0, r9, lsl #14
    1264:	07000e00 	streq	r0, [r0, -r0, lsl #28]
    1268:	00000dfe 	strdeq	r0, [r0], -lr
    126c:	0001bb25 	andeq	fp, r1, r5, lsr #22
    1270:	27ce0100 	strbcs	r0, [lr, r0, lsl #2]
    1274:	ac000002 	stcge	0, cr0, [r0], {2}
    1278:	50000088 	andpl	r0, r0, r8, lsl #1
    127c:	01000000 	mrseq	r0, (UNDEF: 0)
    1280:	000e9e9c 	muleq	lr, ip, lr
    1284:	023b1900 	eorseq	r1, fp, #0, 18
    1288:	cf010000 	svcgt	0x00010000
    128c:	00000227 	andeq	r0, r0, r7, lsr #4
    1290:	3b225401 	blcc	89629c <__bss_end__+0x88b5e4>
    1294:	ae000001 	cdpge	0, 0, cr0, cr0, cr1, {0}
    1298:	0500000e 	streq	r0, [r0, #-14]
    129c:	009e6003 	addseq	r6, lr, r3
    12a0:	88c01e00 	stmiahi	r0, {r9, sl, fp, ip}^
    12a4:	052e0000 	streq	r0, [lr, #-0]!
    12a8:	0e5c0000 	cdpeq	0, 5, cr0, cr12, cr0, {0}
    12ac:	011f0000 	tsteq	pc, r0
    12b0:	00740250 	rsbseq	r0, r4, r0, asr r2
    12b4:	88cc2300 	stmiahi	ip, {r8, r9, sp}^
    12b8:	106d0000 	rsbne	r0, sp, r0
    12bc:	e01e0000 	ands	r0, lr, r0
    12c0:	17000088 	strne	r0, [r0, -r8, lsl #1]
    12c4:	94000010 	strls	r0, [r0], #-16
    12c8:	1f00000e 	svcne	0x0000000e
    12cc:	08025301 	stmdaeq	r2, {r0, r8, r9, ip, lr}
    12d0:	52011fd2 	andpl	r1, r1, #840	; 0x348
    12d4:	9e600305 	cdpls	3, 6, cr0, cr0, cr5, {0}
    12d8:	011f0000 	tsteq	pc, r0
    12dc:	28030551 	stmdacs	r3, {r0, r4, r6, r8, sl}
    12e0:	1f00009f 	svcne	0x0000009f
    12e4:	03055001 	movweq	r5, #20481	; 0x5001
    12e8:	0000a234 	andeq	sl, r0, r4, lsr r2
    12ec:	88e42300 	stmiahi	r4!, {r8, r9, sp}^
    12f0:	10740000 	rsbsne	r0, r4, r0
    12f4:	08000000 	stmdaeq	r0, {}	; <UNPREDICTABLE>
    12f8:	000000a6 	andeq	r0, r0, r6, lsr #1
    12fc:	00000eae 	andeq	r0, r0, lr, lsr #29
    1300:	00009709 	andeq	r9, r0, r9, lsl #14
    1304:	07000c00 	streq	r0, [r0, -r0, lsl #24]
    1308:	00000e9e 	muleq	r0, lr, lr
    130c:	00026d25 	andeq	r6, r2, r5, lsr #26
    1310:	27d70100 	ldrbcs	r0, [r7, r0, lsl #2]
    1314:	fc000002 	stc2	0, cr0, [r0], {2}
    1318:	98000088 	stmdals	r0, {r3, r7}
    131c:	01000000 	mrseq	r0, (UNDEF: 0)
    1320:	000fa99c 	muleq	pc, ip, r9	; <UNPREDICTABLE>
    1324:	00701500 	rsbseq	r1, r0, r0, lsl #10
    1328:	0227d701 	eoreq	sp, r7, #262144	; 0x40000
    132c:	06050000 	streq	r0, [r5], -r0
    1330:	70190000 	andsvc	r0, r9, r0
    1334:	01000002 	tsteq	r0, r2
    1338:	000227d8 	ldrdeq	r2, [r2], -r8
    133c:	22540100 	subscs	r0, r4, #0, 2
    1340:	0000013b 	andeq	r0, r0, fp, lsr r1
    1344:	00000fb9 			; <UNDEFINED> instruction: 0x00000fb9
    1348:	9e700305 	cdpls	3, 7, cr0, cr0, cr5, {0}
    134c:	971b0000 	ldrls	r0, [fp, -r0]
    1350:	00000002 	andeq	r0, r0, r2
    1354:	10000089 	andne	r0, r0, r9, lsl #1
    1358:	01000000 	mrseq	r0, (UNDEF: 0)
    135c:	000f12d8 	ldrdeq	r1, [pc], -r8
    1360:	02a71c00 	adceq	r1, r7, #0, 24
    1364:	06580000 	ldrbeq	r0, [r8], -r0
    1368:	23000000 	movwcs	r0, #0
    136c:	0000892c 	andeq	r8, r0, ip, lsr #18
    1370:	0000106d 	andeq	r1, r0, sp, rrx
    1374:	0089401e 	addeq	r4, r9, lr, lsl r0
    1378:	00101700 	andseq	r1, r0, r0, lsl #14
    137c:	000f4a00 	andeq	r4, pc, r0, lsl #20
    1380:	53011f00 	movwpl	r1, #7936	; 0x1f00
    1384:	1fe10802 	svcne	0x00e10802
    1388:	03055201 	movweq	r5, #20993	; 0x5201
    138c:	00009e70 	andeq	r9, r0, r0, ror lr
    1390:	0551011f 	ldrbeq	r0, [r1, #-287]	; 0x11f
    1394:	009f2803 	addseq	r2, pc, r3, lsl #16
    1398:	50011f00 	andpl	r1, r1, r0, lsl #30
    139c:	a2580305 	subsge	r0, r8, #335544320	; 0x14000000
    13a0:	23000000 	movwcs	r0, #0
    13a4:	00008944 	andeq	r8, r0, r4, asr #18
    13a8:	00001074 	andeq	r1, r0, r4, ror r0
    13ac:	00894c1e 	addeq	r4, r9, lr, lsl ip
    13b0:	00052e00 	andeq	r2, r5, r0, lsl #28
    13b4:	000f6700 	andeq	r6, pc, r0, lsl #14
    13b8:	50011f00 	andpl	r1, r1, r0, lsl #30
    13bc:	00007402 	andeq	r7, r0, r2, lsl #8
    13c0:	00895823 	addeq	r5, r9, r3, lsr #16
    13c4:	00106d00 	andseq	r6, r0, r0, lsl #26
    13c8:	896c1e00 	stmdbhi	ip!, {r9, sl, fp, ip}^
    13cc:	10170000 	andsne	r0, r7, r0
    13d0:	0f9f0000 	svceq	0x009f0000
    13d4:	011f0000 	tsteq	pc, r0
    13d8:	e2080253 	and	r0, r8, #805306373	; 0x30000005
    13dc:	0552011f 	ldrbeq	r0, [r2, #-287]	; 0x11f
    13e0:	009e7003 	addseq	r7, lr, r3
    13e4:	51011f00 	tstpl	r1, r0, lsl #30
    13e8:	9f280305 	svcls	0x00280305
    13ec:	011f0000 	tsteq	pc, r0
    13f0:	84030550 	strhi	r0, [r3], #-1360	; 0x550
    13f4:	000000a2 	andeq	r0, r0, r2, lsr #1
    13f8:	00897023 	addeq	r7, r9, r3, lsr #32
    13fc:	00107400 	andseq	r7, r0, r0, lsl #8
    1400:	a6080000 	strge	r0, [r8], -r0
    1404:	b9000000 	stmdblt	r0, {}	; <UNPREDICTABLE>
    1408:	0900000f 	stmdbeq	r0, {r0, r1, r2, r3}
    140c:	00000097 	muleq	r0, r7, r0
    1410:	a907000b 	stmdbge	r7, {r0, r1, r3}
    1414:	2700000f 	strcs	r0, [r0, -pc]
    1418:	000002c1 	andeq	r0, r0, r1, asr #5
    141c:	01d0e601 	bicseq	lr, r0, r1, lsl #12
    1420:	89940000 	ldmibhi	r4, {}	; <UNPREDICTABLE>
    1424:	001c0000 	andseq	r0, ip, r0
    1428:	9c010000 	stcls	0, cr0, [r1], {-0}
    142c:	00042619 	andeq	r2, r4, r9, lsl r6
    1430:	f8080100 			; <UNDEFINED> instruction: 0xf8080100
    1434:	0500000d 	streq	r0, [r0, #-13]
    1438:	00a89003 	adceq	r9, r8, r3
    143c:	0d6e1900 	stcleq	9, cr1, [lr, #-0]
    1440:	08010000 	stmdaeq	r1, {}	; <UNPREDICTABLE>
    1444:	00000df8 	strdeq	r0, [r0], -r8
    1448:	a8940305 	ldmge	r4, {r0, r2, r8, r9}
    144c:	5b190000 	blpl	641454 <__bss_end__+0x63679c>
    1450:	0100000d 	tsteq	r0, sp
    1454:	000df808 	andeq	pc, sp, r8, lsl #16
    1458:	8c030500 	cfstr32hi	mvfx0, [r3], {-0}
    145c:	190000a8 	stmdbne	r0, {r3, r5, r7}
    1460:	0000020d 	andeq	r0, r0, sp, lsl #4
    1464:	01d00a01 	bicseq	r0, r0, r1, lsl #20
    1468:	03050000 	movweq	r0, #20480	; 0x5000
    146c:	0000a898 	muleq	r0, r8, r8
    1470:	00050f28 	andeq	r0, r5, r8, lsr #30
    1474:	25290500 	strcs	r0, [r9, #-1280]!	; 0x500
    1478:	2d000000 	stccs	0, cr0, [r0, #-0]
    147c:	29000010 	stmdbcs	r0, {r4}
    1480:	000000ad 	andeq	r0, r0, sp, lsr #1
    1484:	3428002a 	strtcc	r0, [r8], #-42	; 0x2a
    1488:	06000001 	streq	r0, [r0], -r1
    148c:	00009e1b 	andeq	r9, r0, fp, lsl lr
    1490:	00104c00 	andseq	r4, r0, r0, lsl #24
    1494:	009e2900 	addseq	r2, lr, r0, lsl #18
    1498:	25290000 	strcs	r0, [r9, #-0]!
    149c:	29000000 	stmdbcs	r0, {}	; <UNPREDICTABLE>
    14a0:	0000002c 	andeq	r0, r0, ip, lsr #32
    14a4:	01dd2800 	bicseq	r2, sp, r0, lsl #16
    14a8:	05070000 	streq	r0, [r7, #-0]
    14ac:	0000007e 	andeq	r0, r0, lr, ror r0
    14b0:	00001066 	andeq	r1, r0, r6, rrx
    14b4:	00106629 	andseq	r6, r0, r9, lsr #12
    14b8:	00252900 	eoreq	r2, r5, r0, lsl #18
    14bc:	06000000 	streq	r0, [r0], -r0
    14c0:	00106c04 	andseq	r6, r0, r4, lsl #24
    14c4:	172c2b00 	strne	r2, [ip, -r0, lsl #22]!
    14c8:	05000001 	streq	r0, [r0, #-1]
    14cc:	00ef2c1e 	rsceq	r2, pc, lr, lsl ip	; <UNPREDICTABLE>
    14d0:	65050000 	strvs	r0, [r5, #-0]
    14d4:	000d6d00 	andeq	r6, sp, r0, lsl #26
    14d8:	bc000400 	cfstrslt	mvf0, [r0], {-0}
    14dc:	04000003 	streq	r0, [r0], #-3
    14e0:	00000701 	andeq	r0, r0, r1, lsl #14
    14e4:	04620100 	strbteq	r0, [r2], #-256	; 0x100
    14e8:	00660000 	rsbeq	r0, r6, r0
    14ec:	89b00000 	ldmibhi	r0!, {}	; <UNPREDICTABLE>
    14f0:	068c0000 	streq	r0, [ip], r0
    14f4:	045d0000 	ldrbeq	r0, [sp], #-0
    14f8:	04020000 	streq	r0, [r2], #-0
    14fc:	746e6905 	strbtvc	r6, [lr], #-2309	; 0x905
    1500:	07040300 	streq	r0, [r4, -r0, lsl #6]
    1504:	0000015a 	andeq	r0, r0, sl, asr r1
    1508:	28060103 	stmdacs	r6, {r0, r1, r8}
    150c:	03000001 	movweq	r0, #1
    1510:	017e0502 	cmneq	lr, r2, lsl #10
    1514:	04030000 	streq	r0, [r3], #-0
    1518:	00017505 	andeq	r7, r1, r5, lsl #10
    151c:	05080300 	streq	r0, [r8, #-768]	; 0x300
    1520:	00000170 	andeq	r0, r0, r0, ror r1
    1524:	26080103 	strcs	r0, [r8], -r3, lsl #2
    1528:	04000001 	streq	r0, [r0], #-1
    152c:	00000215 	andeq	r0, r0, r5, lsl r2
    1530:	00613102 	rsbeq	r3, r1, r2, lsl #2
    1534:	02030000 	andeq	r0, r3, #0
    1538:	0000fc07 	andeq	pc, r0, r7, lsl #24
    153c:	01880400 	orreq	r0, r8, r0, lsl #8
    1540:	34020000 	strcc	r0, [r2], #-0
    1544:	00000073 	andeq	r0, r0, r3, ror r0
    1548:	55070403 	strpl	r0, [r7, #-1027]	; 0x403
    154c:	03000001 	movweq	r0, #1
    1550:	01500708 	cmpeq	r0, r8, lsl #14
    1554:	04030000 	streq	r0, [r3], #-0
    1558:	00016707 	andeq	r6, r1, r7, lsl #14
    155c:	03040500 	movweq	r0, #17664	; 0x4500
    1560:	012f0801 	teqeq	pc, r1, lsl #16
    1564:	04060000 	streq	r0, [r6], #-0
    1568:	00000097 	muleq	r0, r7, r0
    156c:	00008a07 	andeq	r8, r0, r7, lsl #20
    1570:	03010800 	movweq	r0, #6144	; 0x1800
    1574:	0000b127 	andeq	fp, r0, r7, lsr #2
    1578:	01f70900 	mvnseq	r0, r0, lsl #18
    157c:	090b0000 	stmdbeq	fp, {}	; <UNPREDICTABLE>
    1580:	000001f1 	strdeq	r0, [r0], -r1
    1584:	0c0a000c 	stceq	0, cr0, [sl], {12}
    1588:	00de2903 	sbcseq	r2, lr, r3, lsl #18
    158c:	f00b0000 			; <UNDEFINED> instruction: 0xf00b0000
    1590:	03000008 	movweq	r0, #8
    1594:	0000912a 	andeq	r9, r0, sl, lsr #2
    1598:	ba0b0000 	blt	2c15a0 <__bss_end__+0x2b68e8>
    159c:	0300000b 	movweq	r0, #11
    15a0:	0000912b 	andeq	r9, r0, fp, lsr #2
    15a4:	3e0b0400 	cfcpyscc	mvf0, mvf11
    15a8:	03000003 	movweq	r0, #3
    15ac:	00002c2c 	andeq	r2, r0, ip, lsr #24
    15b0:	04000800 	streq	r0, [r0], #-2048	; 0x800
    15b4:	000002cb 	andeq	r0, r0, fp, asr #5
    15b8:	00b12d03 	adcseq	r2, r1, r3, lsl #26
    15bc:	970c0000 	strls	r0, [ip, -r0]
    15c0:	38000003 	stmdacc	r0, {r0, r1}
    15c4:	016e3003 	cmneq	lr, r3
    15c8:	9f0b0000 	svcls	0x000b0000
    15cc:	03000002 	movweq	r0, #2
    15d0:	00006831 	andeq	r6, r0, r1, lsr r8
    15d4:	7d0b0000 	stcvc	0, cr0, [fp, #-0]
    15d8:	03000003 	movweq	r0, #3
    15dc:	00006832 	andeq	r6, r0, r2, lsr r8
    15e0:	7b0b0400 	blvc	2c25e8 <__bss_end__+0x2b7930>
    15e4:	03000007 	movweq	r0, #7
    15e8:	00006833 	andeq	r6, r0, r3, lsr r8
    15ec:	990b0800 	stmdbls	fp, {fp}
    15f0:	03000002 	movweq	r0, #2
    15f4:	00006837 	andeq	r6, r0, r7, lsr r8
    15f8:	790b0c00 	stmdbvc	fp, {sl, fp}
    15fc:	03000002 	movweq	r0, #2
    1600:	0000de39 	andeq	sp, r0, r9, lsr lr
    1604:	ac0b1000 	stcge	0, cr1, [fp], {-0}
    1608:	03000002 	movweq	r0, #2
    160c:	0000de3a 	andeq	sp, r0, sl, lsr lr
    1610:	720b1c00 	andvc	r1, fp, #0, 24
    1614:	03000003 	movweq	r0, #3
    1618:	0000683e 	andeq	r6, r0, lr, lsr r8
    161c:	170b2800 	strne	r2, [fp, -r0, lsl #16]
    1620:	03000003 	movweq	r0, #3
    1624:	0000683f 	andeq	r6, r0, pc, lsr r8
    1628:	c80b2c00 	stmdagt	fp, {sl, fp, sp}
    162c:	03000001 	movweq	r0, #1
    1630:	00016e42 	andeq	r6, r1, r2, asr #28
    1634:	d10b3000 	mrsle	r3, (UNDEF: 11)
    1638:	03000001 	movweq	r0, #1
    163c:	00005645 	andeq	r5, r0, r5, asr #12
    1640:	06003400 	streq	r3, [r0], -r0, lsl #8
    1644:	0000e904 	andeq	lr, r0, r4, lsl #18
    1648:	03680400 	cmneq	r8, #0, 8
    164c:	46030000 	strmi	r0, [r3], -r0
    1650:	000000e9 	andeq	r0, r0, r9, ror #1
    1654:	49030208 	stmdbmi	r3, {r3, r9}
    1658:	000001a4 	andeq	r0, r0, r4, lsr #3
    165c:	00030109 	andeq	r0, r3, r9, lsl #2
    1660:	0901fe00 	stmdbeq	r1, {r9, sl, fp, ip, sp, lr, pc}
    1664:	0000028d 	andeq	r0, r0, sp, lsl #5
    1668:	2e090180 	adfcs<illegal precision>	f0, f1, f0
    166c:	b8000002 	stmdalt	r0, {r1}
    1670:	021e0901 	andseq	r0, lr, #16384	; 0x4000
    1674:	02b80000 	adcseq	r0, r8, #0
    1678:	02c10c00 	sbceq	r0, r1, #0, 24
    167c:	03100000 	tsteq	r0, #0
    1680:	0001e19b 	muleq	r1, fp, r1
    1684:	0d5b0b00 	vldreq	d16, [fp, #-0]
    1688:	9d030000 	stcls	0, cr0, [r3, #-0]
    168c:	00000088 	andeq	r0, r0, r8, lsl #1
    1690:	0d6e0b00 	vstmdbeq	lr!, {d16-d15}
    1694:	9f030000 	svcls	0x00030000
    1698:	00000088 	andeq	r0, r0, r8, lsl #1
    169c:	01ae0b04 			; <UNDEFINED> instruction: 0x01ae0b04
    16a0:	a2030000 	andge	r0, r3, #0
    16a4:	0000002c 	andeq	r0, r0, ip, lsr #32
    16a8:	03230b08 	teqeq	r3, #8, 22	; 0x2000
    16ac:	a4030000 	strge	r0, [r3], #-0
    16b0:	0000002c 	andeq	r0, r0, ip, lsr #32
    16b4:	e70d000c 	str	r0, [sp, -ip]
    16b8:	03000001 	movweq	r0, #1
    16bc:	00008857 	andeq	r8, r0, r7, asr r8
    16c0:	01fb0300 	mvnseq	r0, r0, lsl #6
    16c4:	680e0000 	stmdavs	lr, {}	; <UNPREDICTABLE>
    16c8:	fb570300 	blx	15c22d2 <__bss_end__+0x15b761a>
    16cc:	00000001 	andeq	r0, r0, r1
    16d0:	01740406 	cmneq	r4, r6, lsl #8
    16d4:	b50d0000 	strlt	r0, [sp, #-0]
    16d8:	03000002 	movweq	r0, #2
    16dc:	00008859 	andeq	r8, r0, r9, asr r8
    16e0:	021b0300 	andseq	r0, fp, #0, 6
    16e4:	680e0000 	stmdavs	lr, {}	; <UNPREDICTABLE>
    16e8:	fb590300 	blx	16422f2 <__bss_end__+0x163763a>
    16ec:	00000001 	andeq	r0, r0, r1
    16f0:	0004230f 	andeq	r2, r4, pc, lsl #6
    16f4:	251c0100 	ldrcs	r0, [ip, #-256]	; 0x100
    16f8:	b0000000 	andlt	r0, r0, r0
    16fc:	3c000089 	stccc	0, cr0, [r0], {137}	; 0x89
    1700:	01000000 	mrseq	r0, (UNDEF: 0)
    1704:	0002429c 	muleq	r2, ip, r2
    1708:	00701000 	rsbseq	r1, r0, r0
    170c:	00881c01 	addeq	r1, r8, r1, lsl #24
    1710:	06ab0000 	strteq	r0, [fp], r0
    1714:	0f000000 	svceq	0x00000000
    1718:	00000480 	andeq	r0, r0, r0, lsl #9
    171c:	01fb3301 	mvnseq	r3, r1, lsl #6
    1720:	89ec0000 	stmibhi	ip!, {}^	; <UNPREDICTABLE>
    1724:	00780000 	rsbseq	r0, r8, r0
    1728:	9c010000 	stcls	0, cr0, [r1], {-0}
    172c:	000002ad 	andeq	r0, r0, sp, lsr #5
    1730:	0001d811 	andeq	sp, r1, r1, lsl r8
    1734:	68330100 	ldmdavs	r3!, {r8}
    1738:	fe000000 	cdp2	0, 0, cr0, cr0, cr0, {0}
    173c:	12000006 	andne	r0, r0, #6
    1740:	34010070 	strcc	r0, [r1], #-112	; 0x70
    1744:	00000088 	andeq	r0, r0, r8, lsl #1
    1748:	0000071c 	andeq	r0, r0, ip, lsl r7
    174c:	00023b13 	andeq	r3, r2, r3, lsl fp
    1750:	fb390100 	blx	e41b5a <__bss_end__+0xe36ea2>
    1754:	3a000001 	bcc	1760 <__code_start__-0x68a0>
    1758:	14000007 	strne	r0, [r0], #-7
    175c:	000089f8 	strdeq	r8, [r0], -r8	; <UNPREDICTABLE>
    1760:	0000021b 	andeq	r0, r0, fp, lsl r2
    1764:	0000029a 	muleq	r0, sl, r2
    1768:	02500115 	subseq	r0, r0, #1073741829	; 0x40000005
    176c:	16000074 			; <UNDEFINED> instruction: 0x16000074
    1770:	00008a04 	andeq	r8, r0, r4, lsl #20
    1774:	00000ce4 	andeq	r0, r0, r4, ror #25
    1778:	008a5016 	addeq	r5, sl, r6, lsl r0
    177c:	000cef00 	andeq	lr, ip, r0, lsl #30
    1780:	180f0000 	stmdane	pc, {}	; <UNPREDICTABLE>
    1784:	01000004 	tsteq	r0, r4
    1788:	00002c7e 	andeq	r2, r0, lr, ror ip
    178c:	008a6400 	addeq	r6, sl, r0, lsl #8
    1790:	00013400 	andeq	r3, r1, r0, lsl #8
    1794:	649c0100 	ldrvs	r0, [ip], #256	; 0x100
    1798:	11000004 	tstne	r0, r4
    179c:	000003a8 	andeq	r0, r0, r8, lsr #7
    17a0:	00257e01 	eoreq	r7, r5, r1, lsl #28
    17a4:	07580000 	ldrbeq	r0, [r8, -r0]
    17a8:	87130000 	ldrhi	r0, [r3, -r0]
    17ac:	01000004 	tsteq	r0, r4
    17b0:	00002c7f 	andeq	r2, r0, pc, ror ip
    17b4:	00077600 	andeq	r7, r7, r0, lsl #12
    17b8:	03f11300 	mvnseq	r1, #0, 6
    17bc:	7f010000 	svcvc	0x00010000
    17c0:	0000002c 	andeq	r0, r0, ip, lsr #32
    17c4:	00000795 	muleq	r0, r5, r7
    17c8:	0003eb13 	andeq	lr, r3, r3, lsl fp
    17cc:	2c7f0100 	ldfcse	f0, [pc], #-0	; 17d4 <__code_start__-0x682c>
    17d0:	b4000000 	strlt	r0, [r0], #-0
    17d4:	13000007 	movwne	r0, #7
    17d8:	0000023b 	andeq	r0, r0, fp, lsr r2
    17dc:	01fb8301 	mvnseq	r8, r1, lsl #6
    17e0:	07d30000 	ldrbeq	r0, [r3, r0]
    17e4:	74140000 	ldrvc	r0, [r4], #-0
    17e8:	0400008a 	streq	r0, [r0], #-138	; 0x8a
    17ec:	2800000d 	stmdacs	r0, {r0, r2, r3}
    17f0:	15000003 	strne	r0, [r0, #-3]
    17f4:	03055001 	movweq	r5, #20481	; 0x5001
    17f8:	0000a2fc 	strdeq	sl, [r0], -ip
    17fc:	8a7c1400 	bhi	1f06804 <__bss_end__+0x1efbb4c>
    1800:	0d040000 	stceq	0, cr0, [r4, #-0]
    1804:	033f0000 	teqeq	pc, #0
    1808:	01150000 	tsteq	r5, r0
    180c:	38030550 	stmdacc	r3, {r4, r6, r8, sl}
    1810:	000000a3 	andeq	r0, r0, r3, lsr #1
    1814:	008a8016 	addeq	r8, sl, r6, lsl r0
    1818:	000ce400 	andeq	lr, ip, r0, lsl #8
    181c:	8ac01400 	bhi	ff006824 <__bss_end__+0xfeffbb6c>
    1820:	0d040000 	stceq	0, cr0, [r4, #-0]
    1824:	035c0000 	cmpeq	ip, #0
    1828:	01150000 	tsteq	r5, r0
    182c:	007a0250 	rsbseq	r0, sl, r0, asr r2
    1830:	8acc1400 	bhi	ff306838 <__bss_end__+0xff2fbb80>
    1834:	0d040000 	stceq	0, cr0, [r4, #-0]
    1838:	03770000 	cmneq	r7, #0
    183c:	01150000 	tsteq	r5, r0
    1840:	b8740351 	ldmdalt	r4!, {r0, r4, r6, r8, r9}^
    1844:	50011501 	andpl	r1, r1, r1, lsl #10
    1848:	00007b02 	andeq	r7, r0, r2, lsl #22
    184c:	008af414 	addeq	pc, sl, r4, lsl r4	; <UNPREDICTABLE>
    1850:	000d0400 	andeq	r0, sp, r0, lsl #8
    1854:	00038b00 	andeq	r8, r3, r0, lsl #22
    1858:	50011500 	andpl	r1, r1, r0, lsl #10
    185c:	00007a02 	andeq	r7, r0, r2, lsl #20
    1860:	008b0014 	addeq	r0, fp, r4, lsl r0
    1864:	000d0400 	andeq	r0, sp, r0, lsl #8
    1868:	0003a900 	andeq	sl, r3, r0, lsl #18
    186c:	51011500 	tstpl	r1, r0, lsl #10
    1870:	01b87403 			; <UNDEFINED> instruction: 0x01b87403
    1874:	05500115 	ldrbeq	r0, [r0, #-277]	; 0x115
    1878:	00a37003 	adceq	r7, r3, r3
    187c:	10140000 	andsne	r0, r4, r0
    1880:	ef00008b 	svc	0x0000008b
    1884:	bd00000c 	stclt	0, cr0, [r0, #-48]	; 0xffffffd0
    1888:	15000003 	strne	r0, [r0, #-3]
    188c:	74025001 	strvc	r5, [r2], #-1
    1890:	24140000 	ldrcs	r0, [r4], #-0
    1894:	0400008b 	streq	r0, [r0], #-139	; 0x8b
    1898:	d100000d 	tstle	r0, sp
    189c:	15000003 	strne	r0, [r0, #-3]
    18a0:	7a025001 	bvc	958ac <__bss_end__+0x8abf4>
    18a4:	30140000 	andscc	r0, r4, r0
    18a8:	0400008b 	streq	r0, [r0], #-139	; 0x8b
    18ac:	ee00000d 	cdp	0, 0, cr0, cr0, cr13, {0}
    18b0:	15000003 	strne	r0, [r0, #-3]
    18b4:	75025101 	strvc	r5, [r2, #-257]	; 0x101
    18b8:	50011500 	andpl	r1, r1, r0, lsl #10
    18bc:	a3a80305 			; <UNDEFINED> instruction: 0xa3a80305
    18c0:	14000000 	strne	r0, [r0], #-0
    18c4:	00008b40 	andeq	r8, r0, r0, asr #22
    18c8:	00000d04 	andeq	r0, r0, r4, lsl #26
    18cc:	00000402 	andeq	r0, r0, r2, lsl #8
    18d0:	02500115 	subseq	r0, r0, #1073741829	; 0x40000005
    18d4:	1400007a 	strne	r0, [r0], #-122	; 0x7a
    18d8:	00008b48 	andeq	r8, r0, r8, asr #22
    18dc:	00000d04 	andeq	r0, r0, r4, lsl #26
    18e0:	00000419 	andeq	r0, r0, r9, lsl r4
    18e4:	05500115 	ldrbeq	r0, [r0, #-277]	; 0x115
    18e8:	00a3c003 	adceq	ip, r3, r3
    18ec:	54140000 	ldrpl	r0, [r4], #-0
    18f0:	0400008b 	streq	r0, [r0], #-139	; 0x8b
    18f4:	2d00000d 	stccs	0, cr0, [r0, #-52]	; 0xffffffcc
    18f8:	15000004 	strne	r0, [r0, #-4]
    18fc:	7a025001 	bvc	95908 <__bss_end__+0x8ac50>
    1900:	64140000 	ldrvs	r0, [r4], #-0
    1904:	0400008b 	streq	r0, [r0], #-139	; 0x8b
    1908:	5000000d 	andpl	r0, r0, sp
    190c:	15000004 	strne	r0, [r0, #-4]
    1910:	76025201 	strvc	r5, [r2], -r1, lsl #4
    1914:	51011500 	tstpl	r1, r0, lsl #10
    1918:	15007702 	strne	r7, [r0, #-1794]	; 0x702
    191c:	03055001 	movweq	r5, #20481	; 0x5001
    1920:	0000a3e0 	andeq	sl, r0, r0, ror #7
    1924:	8b6c1700 	blhi	1b0752c <__bss_end__+0x1afc874>
    1928:	0d040000 	stceq	0, cr0, [r4, #-0]
    192c:	01150000 	tsteq	r5, r0
    1930:	0c030550 	cfstr32eq	mvfx0, [r3], {80}	; 0x50
    1934:	000000a4 	andeq	r0, r0, r4, lsr #1
    1938:	01d11800 	bicseq	r1, r1, r0, lsl #16
    193c:	5a010000 	bpl	41944 <__bss_end__+0x36c8c>
    1940:	00008b98 	muleq	r0, r8, fp
    1944:	000000f8 	strdeq	r0, [r0], -r8
    1948:	05a19c01 	streq	r9, [r1, #3073]!	; 0xc01
    194c:	70100000 	andsvc	r0, r0, r0
    1950:	a15a0100 	cmpge	sl, r0, lsl #2
    1954:	1d000005 	stcne	0, cr0, [r0, #-20]	; 0xffffffec
    1958:	10000008 	andne	r0, r0, r8
    195c:	5a010065 	bpl	41af8 <__bss_end__+0x36e40>
    1960:	000005a1 	andeq	r0, r0, r1, lsr #11
    1964:	0000088e 	andeq	r0, r0, lr, lsl #17
    1968:	00013b19 	andeq	r3, r1, r9, lsl fp
    196c:	0005b700 	andeq	fp, r5, r0, lsl #14
    1970:	a8030500 	stmdage	r3, {r8, sl}
    1974:	1a0000a2 	bne	1c04 <__code_start__-0x63fc>
    1978:	00646e65 	rsbeq	r6, r4, r5, ror #28
    197c:	00686001 	rsbeq	r6, r8, r1
    1980:	2b130000 	blcs	4c1988 <__bss_end__+0x4b6cd0>
    1984:	01000004 	tsteq	r0, r4
    1988:	0005a161 	andeq	sl, r5, r1, ror #2
    198c:	0008ee00 	andeq	lr, r8, r0, lsl #28
    1990:	023b1300 	eorseq	r1, fp, #0, 6
    1994:	62010000 	andvs	r0, r1, #0
    1998:	000001fb 	strdeq	r0, [r0], -fp
    199c:	0000090c 	andeq	r0, r0, ip, lsl #18
    19a0:	008bb016 	addeq	fp, fp, r6, lsl r0
    19a4:	000d1a00 	andeq	r1, sp, r0, lsl #20
    19a8:	8bc41400 	blhi	ff1069b0 <__bss_end__+0xff0fbcf8>
    19ac:	0d040000 	stceq	0, cr0, [r4, #-0]
    19b0:	05030000 	streq	r0, [r3, #-0]
    19b4:	01150000 	tsteq	r5, r0
    19b8:	5b080253 	blpl	20230c <__bss_end__+0x1f7654>
    19bc:	05520115 	ldrbeq	r0, [r2, #-277]	; 0x115
    19c0:	00a2a803 	adceq	sl, r2, r3, lsl #16
    19c4:	51011500 	tstpl	r1, r0, lsl #10
    19c8:	a45c0305 	ldrbge	r0, [ip], #-773	; 0x305
    19cc:	01150000 	tsteq	r5, r0
    19d0:	48030550 	stmdami	r3, {r4, r6, r8, sl}
    19d4:	000000a4 	andeq	r0, r0, r4, lsr #1
    19d8:	008bc816 	addeq	ip, fp, r6, lsl r8
    19dc:	000d2100 	andeq	r2, sp, r0, lsl #2
    19e0:	8bd41600 	blhi	ff5071e8 <__bss_end__+0xff4fc530>
    19e4:	0d1a0000 	ldceq	0, cr0, [sl, #-0]
    19e8:	e8140000 	ldmda	r4, {}	; <UNPREDICTABLE>
    19ec:	0400008b 	streq	r0, [r0], #-139	; 0x8b
    19f0:	4400000d 	strmi	r0, [r0], #-13
    19f4:	15000005 	strne	r0, [r0, #-5]
    19f8:	08025301 	stmdaeq	r2, {r0, r8, r9, ip, lr}
    19fc:	5201155d 	andpl	r1, r1, #390070272	; 0x17400000
    1a00:	a2a80305 	adcge	r0, r8, #335544320	; 0x14000000
    1a04:	01150000 	tsteq	r5, r0
    1a08:	5c030551 	cfstr32pl	mvfx0, [r3], {81}	; 0x51
    1a0c:	150000a4 	strne	r0, [r0, #-164]	; 0xa4
    1a10:	03055001 	movweq	r5, #20481	; 0x5001
    1a14:	0000a464 	andeq	sl, r0, r4, ror #8
    1a18:	8bec1600 	blhi	ffb07220 <__bss_end__+0xffafc568>
    1a1c:	0d210000 	stceq	0, cr0, [r1, #-0]
    1a20:	f8160000 			; <UNDEFINED> instruction: 0xf8160000
    1a24:	1a00008b 	bne	1c58 <__code_start__-0x63a8>
    1a28:	1400000d 	strne	r0, [r0], #-13
    1a2c:	00008c0c 	andeq	r8, r0, ip, lsl #24
    1a30:	00000d04 	andeq	r0, r0, r4, lsl #26
    1a34:	00000585 	andeq	r0, r0, r5, lsl #11
    1a38:	02530115 	subseq	r0, r3, #1073741829	; 0x40000005
    1a3c:	01155e08 	tsteq	r5, r8, lsl #28
    1a40:	a8030552 	stmdage	r3, {r1, r4, r6, r8, sl}
    1a44:	150000a2 	strne	r0, [r0, #-162]	; 0xa2
    1a48:	03055101 	movweq	r5, #20737	; 0x5101
    1a4c:	0000a45c 	andeq	sl, r0, ip, asr r4
    1a50:	05500115 	ldrbeq	r0, [r0, #-277]	; 0x115
    1a54:	00a48403 	adceq	r8, r4, r3, lsl #8
    1a58:	10160000 	andsne	r0, r6, r0
    1a5c:	2100008c 	smlabbcs	r0, ip, r0, r0
    1a60:	1600000d 	strne	r0, [r0], -sp
    1a64:	00008c18 	andeq	r8, r0, r8, lsl ip
    1a68:	00000242 	andeq	r0, r0, r2, asr #4
    1a6c:	008c6416 	addeq	r6, ip, r6, lsl r4
    1a70:	00046400 	andeq	r6, r4, r0, lsl #8
    1a74:	04060000 	streq	r0, [r6], #-0
    1a78:	00000068 	andeq	r0, r0, r8, rrx
    1a7c:	00008a1b 	andeq	r8, r0, fp, lsl sl
    1a80:	0005b700 	andeq	fp, r5, r0, lsl #14
    1a84:	00811c00 	addeq	r1, r1, r0, lsl #24
    1a88:	00040000 	andeq	r0, r4, r0
    1a8c:	0005a707 	andeq	sl, r5, r7, lsl #14
    1a90:	04771800 	ldrbteq	r1, [r7], #-2048	; 0x800
    1a94:	ca010000 	bgt	41a9c <__bss_end__+0x36de4>
    1a98:	00008c90 	muleq	r0, r0, ip
    1a9c:	000000f4 	strdeq	r0, [r0], -r4
    1aa0:	07269c01 	streq	r9, [r6, -r1, lsl #24]!
    1aa4:	691d0000 	ldmdbvs	sp, {}	; <UNPREDICTABLE>
    1aa8:	a4d30100 	ldrbge	r0, [r3], #256	; 0x100
    1aac:	02000001 	andeq	r0, r0, #1
    1ab0:	561e6891 			; <UNDEFINED> instruction: 0x561e6891
    1ab4:	01000004 	tsteq	r0, r4
    1ab8:	000726dc 	ldrdeq	r2, [r7], -ip
    1abc:	a8910300 	ldmge	r1, {r8, r9}
    1ac0:	013b197f 	teqeq	fp, pc, ror r9
    1ac4:	07460000 	strbeq	r0, [r6, -r0]
    1ac8:	03050000 	movweq	r0, #20480	; 0x5000
    1acc:	0000a2b0 			; <UNDEFINED> instruction: 0x0000a2b0
    1ad0:	00039e1f 	andeq	r9, r3, pc, lsl lr
    1ad4:	a1ec0100 	mvnge	r0, r0, lsl #2
    1ad8:	00000005 	andeq	r0, r0, r5
    1adc:	20080000 	andcs	r0, r8, r0
    1ae0:	000003fe 	strdeq	r0, [r0], -lr
    1ae4:	0068f001 	rsbeq	pc, r8, r1
    1ae8:	0c200000 	stceq	0, cr0, [r0], #-0
    1aec:	01000004 	tsteq	r0, r4
    1af0:	000068f0 	strdeq	r6, [r0], -r0
    1af4:	04422000 	strbeq	r2, [r2], #-0
    1af8:	f3010000 	vhadd.u8	d0, d1, d0
    1afc:	00000068 	andeq	r0, r0, r8, rrx
    1b00:	00046a20 	andeq	r6, r4, r0, lsr #20
    1b04:	68f30100 	ldmvs	r3!, {r8}^
    1b08:	21000000 	mrscs	r0, (UNDEF: 0)
    1b0c:	00008c98 	muleq	r0, r8, ip
    1b10:	00000024 	andeq	r0, r0, r4, lsr #32
    1b14:	00000663 	andeq	r0, r0, r3, ror #12
    1b18:	01006812 	tsteq	r0, r2, lsl r8
    1b1c:	0001fbcd 	andeq	pc, r1, sp, asr #23
    1b20:	00092a00 	andeq	r2, r9, r0, lsl #20
    1b24:	8c9c1600 	ldchi	6, cr1, [ip], {0}
    1b28:	0ce40000 	stcleq	0, cr0, [r4]
    1b2c:	b4160000 	ldrlt	r0, [r6], #-0
    1b30:	ef00008c 	svc	0x0000008c
    1b34:	0000000c 	andeq	r0, r0, ip
    1b38:	00001822 	andeq	r1, r0, r2, lsr #16
    1b3c:	00067a00 	andeq	r7, r6, r0, lsl #20
    1b40:	00691200 	rsbeq	r1, r9, r0, lsl #4
    1b44:	0025e101 	eoreq	lr, r5, r1, lsl #2
    1b48:	09480000 	stmdbeq	r8, {}^	; <UNPREDICTABLE>
    1b4c:	14000000 	strne	r0, [r0], #-0
    1b50:	00008cc8 	andeq	r8, r0, r8, asr #25
    1b54:	00000d28 	andeq	r0, r0, r8, lsr #26
    1b58:	0000068e 	andeq	r0, r0, lr, lsl #13
    1b5c:	02500115 	subseq	r0, r0, #1073741829	; 0x40000005
    1b60:	14000074 	strne	r0, [r0], #-116	; 0x74
    1b64:	00008ce0 	andeq	r8, r0, r0, ror #25
    1b68:	00000d33 	andeq	r0, r0, r3, lsr sp
    1b6c:	000006a2 	andeq	r0, r0, r2, lsr #13
    1b70:	02500115 	subseq	r0, r0, #1073741829	; 0x40000005
    1b74:	16000074 			; <UNDEFINED> instruction: 0x16000074
    1b78:	00008cf0 	strdeq	r8, [r0], -r0
    1b7c:	00000d1a 	andeq	r0, r0, sl, lsl sp
    1b80:	008d0414 	addeq	r0, sp, r4, lsl r4
    1b84:	000d0400 	andeq	r0, sp, r0, lsl #8
    1b88:	0006da00 	andeq	sp, r6, r0, lsl #20
    1b8c:	53011500 	movwpl	r1, #5376	; 0x1500
    1b90:	15df0802 	ldrbne	r0, [pc, #2050]	; 239a <__code_start__-0x5c66>
    1b94:	03055201 	movweq	r5, #20993	; 0x5201
    1b98:	0000a2b0 			; <UNDEFINED> instruction: 0x0000a2b0
    1b9c:	05510115 	ldrbeq	r0, [r1, #-277]	; 0x115
    1ba0:	00a45c03 	adceq	r5, r4, r3, lsl #24
    1ba4:	50011500 	andpl	r1, r1, r0, lsl #10
    1ba8:	a4a40305 	strtge	r0, [r4], #773	; 0x305
    1bac:	16000000 	strne	r0, [r0], -r0
    1bb0:	00008d08 	andeq	r8, r0, r8, lsl #26
    1bb4:	00000d21 	andeq	r0, r0, r1, lsr #26
    1bb8:	008d3814 	addeq	r3, sp, r4, lsl r8
    1bbc:	00046400 	andeq	r6, r4, r0, lsl #8
    1bc0:	0006fe00 	andeq	pc, r6, r0, lsl #28
    1bc4:	51011500 	tstpl	r1, r0, lsl #10
    1bc8:	15589102 	ldrbne	r9, [r8, #-258]	; 0x102
    1bcc:	91035001 	tstls	r3, r1
    1bd0:	14007fb0 	strne	r7, [r0], #-4016	; 0xfb0
    1bd4:	00008d44 	andeq	r8, r0, r4, asr #26
    1bd8:	00000464 	andeq	r0, r0, r4, ror #8
    1bdc:	00000713 	andeq	r0, r0, r3, lsl r7
    1be0:	03510115 	cmpeq	r1, #1073741829	; 0x40000005
    1be4:	00244740 	eoreq	r4, r4, r0, asr #14
    1be8:	008d5016 	addeq	r5, sp, r6, lsl r0
    1bec:	00046400 	andeq	r6, r4, r0, lsl #8
    1bf0:	8d5c1600 	ldclhi	6, cr1, [ip, #-0]
    1bf4:	04640000 	strbteq	r0, [r4], #-0
    1bf8:	1b000000 	blne	1c00 <__code_start__-0x6400>
    1bfc:	00000068 	andeq	r0, r0, r8, rrx
    1c00:	00000736 	andeq	r0, r0, r6, lsr r7
    1c04:	0000811c 	andeq	r8, r0, ip, lsl r1
    1c08:	1b000f00 	blne	5810 <__code_start__-0x27f0>
    1c0c:	0000008a 	andeq	r0, r0, sl, lsl #1
    1c10:	00000746 	andeq	r0, r0, r6, asr #14
    1c14:	0000811c 	andeq	r8, r0, ip, lsl r1
    1c18:	07000800 	streq	r0, [r0, -r0, lsl #16]
    1c1c:	00000736 	andeq	r0, r0, r6, lsr r7
    1c20:	0003e023 	andeq	lr, r3, r3, lsr #32
    1c24:	012d0100 	teqeq	sp, r0, lsl #2
    1c28:	0000002c 	andeq	r0, r0, ip, lsr #32
    1c2c:	00008d84 	andeq	r8, r0, r4, lsl #27
    1c30:	00000120 	andeq	r0, r0, r0, lsr #2
    1c34:	09189c01 	ldmdbeq	r8, {r0, sl, fp, ip, pc}
    1c38:	87240000 	strhi	r0, [r4, -r0]!
    1c3c:	01000004 	tsteq	r0, r4
    1c40:	002c012e 	eoreq	r0, ip, lr, lsr #2
    1c44:	09660000 	stmdbeq	r6!, {}^	; <UNPREDICTABLE>
    1c48:	5b240000 	blpl	901c50 <__bss_end__+0x8f6f98>
    1c4c:	01000004 	tsteq	r0, r4
    1c50:	002c012e 	eoreq	r0, ip, lr, lsr #2
    1c54:	09850000 	stmibeq	r5, {}	; <UNPREDICTABLE>
    1c58:	ae240000 	cdpge	0, 2, cr0, cr4, cr0, {0}
    1c5c:	01000001 	tsteq	r0, r1
    1c60:	002c012e 	eoreq	r0, ip, lr, lsr #2
    1c64:	09a40000 	stmibeq	r4!, {}	; <UNPREDICTABLE>
    1c68:	3b240000 	blcc	901c70 <__bss_end__+0x8f6fb8>
    1c6c:	01000002 	tsteq	r0, r2
    1c70:	01fb0132 	mvnseq	r0, r2, lsr r1
    1c74:	09ce0000 	stmibeq	lr, {}^	; <UNPREDICTABLE>
    1c78:	3b190000 	blcc	641c80 <__bss_end__+0x636fc8>
    1c7c:	28000001 	stmdacs	r0, {r0}
    1c80:	05000009 	streq	r0, [r0, #-9]
    1c84:	00a2bc03 	adceq	fp, r2, r3, lsl #24
    1c88:	02c62500 	sbceq	r2, r6, #0, 10
    1c8c:	48010000 	stmdami	r1, {}	; <UNPREDICTABLE>
    1c90:	0001a401 	andeq	sl, r1, r1, lsl #8
    1c94:	48910200 	ldmmi	r1, {r9}
    1c98:	00003022 	andeq	r3, r0, r2, lsr #32
    1c9c:	00082f00 	andeq	r2, r8, r0, lsl #30
    1ca0:	74702600 	ldrbtvc	r2, [r0], #-1536	; 0x600
    1ca4:	38010072 	stmdacc	r1, {r1, r4, r5, r6}
    1ca8:	00008801 	andeq	r8, r0, r1, lsl #16
    1cac:	14570100 	ldrbne	r0, [r7], #-256	; 0x100
    1cb0:	00008df0 	strdeq	r8, [r0], -r0
    1cb4:	00000d04 	andeq	r0, r0, r4, lsl #26
    1cb8:	000007ee 	andeq	r0, r0, lr, ror #15
    1cbc:	02500115 	subseq	r0, r0, #1073741829	; 0x40000005
    1cc0:	1400007b 	strne	r0, [r0], #-123	; 0x7b
    1cc4:	00008dfc 	strdeq	r8, [r0], -ip
    1cc8:	00000d04 	andeq	r0, r0, r4, lsl #26
    1ccc:	00000808 	andeq	r0, r0, r8, lsl #16
    1cd0:	02510115 	subseq	r0, r1, #1073741829	; 0x40000005
    1cd4:	01150077 	tsteq	r5, r7, ror r0
    1cd8:	007a0250 	rsbseq	r0, sl, r0, asr r2
    1cdc:	8e101700 	cdphi	7, 1, cr1, cr0, cr0, {0}
    1ce0:	0d450000 	stcleq	0, cr0, [r5, #-0]
    1ce4:	01150000 	tsteq	r5, r0
    1ce8:	3a0a0353 	bcc	282a3c <__bss_end__+0x277d84>
    1cec:	52011501 	andpl	r1, r1, #4194304	; 0x400000
    1cf0:	a2bc0305 	adcsge	r0, ip, #335544320	; 0x14000000
    1cf4:	01150000 	tsteq	r5, r0
    1cf8:	00790251 	rsbseq	r0, r9, r1, asr r2
    1cfc:	02500115 	subseq	r0, r0, #1073741829	; 0x40000005
    1d00:	00000077 	andeq	r0, r0, r7, ror r0
    1d04:	008d9414 	addeq	r9, sp, r4, lsl r4
    1d08:	000d0400 	andeq	r0, sp, r0, lsl #8
    1d0c:	00084600 	andeq	r4, r8, r0, lsl #12
    1d10:	50011500 	andpl	r1, r1, r0, lsl #10
    1d14:	a2fc0305 	rscsge	r0, ip, #335544320	; 0x14000000
    1d18:	14000000 	strne	r0, [r0], #-0
    1d1c:	00008d9c 	muleq	r0, ip, sp
    1d20:	00000d04 	andeq	r0, r0, r4, lsl #26
    1d24:	0000085d 	andeq	r0, r0, sp, asr r8
    1d28:	05500115 	ldrbeq	r0, [r0, #-277]	; 0x115
    1d2c:	00a4d403 	adceq	sp, r4, r3, lsl #8
    1d30:	a0160000 	andsge	r0, r6, r0
    1d34:	e400008d 	str	r0, [r0], #-141	; 0x8d
    1d38:	1400000c 	strne	r0, [r0], #-12
    1d3c:	00008e1c 	andeq	r8, r0, ip, lsl lr
    1d40:	00000cef 	andeq	r0, r0, pc, ror #25
    1d44:	0000087a 	andeq	r0, r0, sl, ror r8
    1d48:	02500115 	subseq	r0, r0, #1073741829	; 0x40000005
    1d4c:	14000074 	strne	r0, [r0], #-116	; 0x74
    1d50:	00008e34 	andeq	r8, r0, r4, lsr lr
    1d54:	00000d04 	andeq	r0, r0, r4, lsl #26
    1d58:	0000088e 	andeq	r0, r0, lr, lsl #17
    1d5c:	02500115 	subseq	r0, r0, #1073741829	; 0x40000005
    1d60:	14000074 	strne	r0, [r0], #-116	; 0x74
    1d64:	00008e48 	andeq	r8, r0, r8, asr #28
    1d68:	00000d04 	andeq	r0, r0, r4, lsl #26
    1d6c:	000008b7 			; <UNDEFINED> instruction: 0x000008b7
    1d70:	02530115 	subseq	r0, r3, #1073741829	; 0x40000005
    1d74:	01150076 	tsteq	r5, r6, ror r0
    1d78:	00780252 	rsbseq	r0, r8, r2, asr r2
    1d7c:	02510115 	subseq	r0, r1, #1073741829	; 0x40000005
    1d80:	01150075 	tsteq	r5, r5, ror r0
    1d84:	f8030550 			; <UNDEFINED> instruction: 0xf8030550
    1d88:	000000a4 	andeq	r0, r0, r4, lsr #1
    1d8c:	008e5014 	addeq	r5, lr, r4, lsl r0
    1d90:	000d2800 	andeq	r2, sp, r0, lsl #16
    1d94:	0008cb00 	andeq	ip, r8, r0, lsl #22
    1d98:	50011500 	andpl	r1, r1, r0, lsl #10
    1d9c:	00007d02 	andeq	r7, r0, r2, lsl #26
    1da0:	008e5814 	addeq	r5, lr, r4, lsl r8
    1da4:	000d0400 	andeq	r0, sp, r0, lsl #8
    1da8:	0008df00 	andeq	sp, r8, r0, lsl #30
    1dac:	50011500 	andpl	r1, r1, r0, lsl #10
    1db0:	00007402 	andeq	r7, r0, r2, lsl #8
    1db4:	008e6814 	addeq	r6, lr, r4, lsl r8
    1db8:	000d0400 	andeq	r0, sp, r0, lsl #8
    1dbc:	00090400 	andeq	r0, r9, r0, lsl #8
    1dc0:	52011500 	andpl	r1, r1, #0, 10
    1dc4:	06489103 	strbeq	r9, [r8], -r3, lsl #2
    1dc8:	03510115 	cmpeq	r1, #1073741829	; 0x40000005
    1dcc:	15064c91 	strne	r4, [r6, #-3217]	; 0xc91
    1dd0:	03055001 	movweq	r5, #20481	; 0x5001
    1dd4:	0000a524 	andeq	sl, r0, r4, lsr #10
    1dd8:	8e701700 	cdphi	7, 7, cr1, cr0, cr0, {0}
    1ddc:	0d040000 	stceq	0, cr0, [r4, #-0]
    1de0:	01150000 	tsteq	r5, r0
    1de4:	0c030550 	cfstr32eq	mvfx0, [r3], {80}	; 0x50
    1de8:	000000a4 	andeq	r0, r0, r4, lsr #1
    1dec:	008a1b00 	addeq	r1, sl, r0, lsl #22
    1df0:	09280000 	stmdbeq	r8!, {}	; <UNPREDICTABLE>
    1df4:	811c0000 	tsthi	ip, r0
    1df8:	0a000000 	beq	1e00 <__code_start__-0x6200>
    1dfc:	09180700 	ldmdbeq	r8, {r8, r9, sl}
    1e00:	b6270000 	strtlt	r0, [r7], -r0
    1e04:	01000000 	mrseq	r0, (UNDEF: 0)
    1e08:	00002cfd 	strdeq	r2, [r0], -sp
    1e0c:	008ea400 	addeq	sl, lr, r0, lsl #8
    1e10:	00001800 	andeq	r1, r0, r0, lsl #16
    1e14:	6f9c0100 	svcvs	0x009c0100
    1e18:	11000009 	tstne	r0, r9
    1e1c:	000003a8 	andeq	r0, r0, r8, lsr #7
    1e20:	0025fd01 	eoreq	pc, r5, r1, lsl #26
    1e24:	09f70000 	ldmibeq	r7!, {}^	; <UNPREDICTABLE>
    1e28:	b0160000 	andslt	r0, r6, r0
    1e2c:	bc00008e 	stclt	0, cr0, [r0], {142}	; 0x8e
    1e30:	17000005 	strne	r0, [r0, -r5]
    1e34:	00008eb8 			; <UNDEFINED> instruction: 0x00008eb8
    1e38:	000002ad 	andeq	r0, r0, sp, lsr #5
    1e3c:	02500115 	subseq	r0, r0, #1073741829	; 0x40000005
    1e40:	00000074 	andeq	r0, r0, r4, ror r0
    1e44:	0003cb28 	andeq	ip, r3, r8, lsr #22
    1e48:	01030100 	mrseq	r0, (UNDEF: 19)
    1e4c:	00008ebc 			; <UNDEFINED> instruction: 0x00008ebc
    1e50:	000000a0 	andeq	r0, r0, r0, lsr #1
    1e54:	0a8d9c01 	beq	fe368e60 <__bss_end__+0xfe35e1a8>
    1e58:	3b190000 	blcc	641e60 <__bss_end__+0x6371a8>
    1e5c:	9d000001 	stcls	0, cr0, [r0, #-4]
    1e60:	0500000a 	streq	r0, [r0, #-10]
    1e64:	00a2c803 	adceq	ip, r2, r3, lsl #16
    1e68:	8ec41600 	cdphi	6, 12, cr1, cr4, cr0, {0}
    1e6c:	0d650000 	stcleq	0, cr0, [r5, #-0]
    1e70:	d0160000 	andsle	r0, r6, r0
    1e74:	1a00008e 	bne	20b4 <__code_start__-0x5f4c>
    1e78:	1400000d 	strne	r0, [r0], #-13
    1e7c:	00008ee4 	andeq	r8, r0, r4, ror #29
    1e80:	00000d04 	andeq	r0, r0, r4, lsl #26
    1e84:	000009d6 	ldrdeq	r0, [r0], -r6
    1e88:	03530115 	cmpeq	r3, #1073741829	; 0x40000005
    1e8c:	1501090a 	strne	r0, [r1, #-2314]	; 0x90a
    1e90:	03055201 	movweq	r5, #20993	; 0x5201
    1e94:	0000a2c8 	andeq	sl, r0, r8, asr #5
    1e98:	05510115 	ldrbeq	r0, [r1, #-277]	; 0x115
    1e9c:	00a45c03 	adceq	r5, r4, r3, lsl #24
    1ea0:	50011500 	andpl	r1, r1, r0, lsl #10
    1ea4:	a5580305 	ldrbge	r0, [r8, #-773]	; 0x305
    1ea8:	16000000 	strne	r0, [r0], -r0
    1eac:	00008ee8 	andeq	r8, r0, r8, ror #29
    1eb0:	00000d21 	andeq	r0, r0, r1, lsr #26
    1eb4:	008ef014 	addeq	pc, lr, r4, lsl r0	; <UNPREDICTABLE>
    1eb8:	000d0400 	andeq	r0, sp, r0, lsl #8
    1ebc:	0009f600 	andeq	pc, r9, r0, lsl #12
    1ec0:	50011500 	andpl	r1, r1, r0, lsl #10
    1ec4:	9d440305 	stclls	3, cr0, [r4, #-20]	; 0xffffffec
    1ec8:	14000000 	strne	r0, [r0], #-0
    1ecc:	00008ef8 	strdeq	r8, [r0], -r8	; <UNPREDICTABLE>
    1ed0:	00000d04 	andeq	r0, r0, r4, lsl #26
    1ed4:	00000a0d 	andeq	r0, r0, sp, lsl #20
    1ed8:	05500115 	ldrbeq	r0, [r0, #-277]	; 0x115
    1edc:	00a58003 	adceq	r8, r5, r3
    1ee0:	00140000 	andseq	r0, r4, r0
    1ee4:	2d00008f 	stccs	0, cr0, [r0, #-572]	; 0xfffffdc4
    1ee8:	20000009 	andcs	r0, r0, r9
    1eec:	1500000a 	strne	r0, [r0, #-10]
    1ef0:	31015001 	tstcc	r1, r1
    1ef4:	8f0c1600 	svchi	0x000c1600
    1ef8:	0d1a0000 	ldceq	0, cr0, [sl, #-0]
    1efc:	20140000 	andscs	r0, r4, r0
    1f00:	0400008f 	streq	r0, [r0], #-143	; 0x8f
    1f04:	5900000d 	stmdbpl	r0, {r0, r2, r3}
    1f08:	1500000a 	strne	r0, [r0, #-10]
    1f0c:	0a035301 	beq	d6b18 <__bss_end__+0xcbe60>
    1f10:	0115010d 	tsteq	r5, sp, lsl #2
    1f14:	c8030552 	stmdagt	r3, {r1, r4, r6, r8, sl}
    1f18:	150000a2 	strne	r0, [r0, #-162]	; 0xa2
    1f1c:	03055101 	movweq	r5, #20737	; 0x5101
    1f20:	0000a45c 	andeq	sl, r0, ip, asr r4
    1f24:	05500115 	ldrbeq	r0, [r0, #-277]	; 0x115
    1f28:	00a5a003 	adceq	sl, r5, r3
    1f2c:	24160000 	ldrcs	r0, [r6], #-0
    1f30:	2100008f 	smlabbcs	r0, pc, r0, r0	; <UNPREDICTABLE>
    1f34:	1400000d 	strne	r0, [r0], #-13
    1f38:	00008f2c 	andeq	r8, r0, ip, lsr #30
    1f3c:	00000d04 	andeq	r0, r0, r4, lsl #26
    1f40:	00000a79 	andeq	r0, r0, r9, ror sl
    1f44:	05500115 	ldrbeq	r0, [r0, #-277]	; 0x115
    1f48:	009d4403 	addseq	r4, sp, r3, lsl #8
    1f4c:	34170000 	ldrcc	r0, [r7], #-0
    1f50:	0400008f 	streq	r0, [r0], #-143	; 0x8f
    1f54:	1500000d 	strne	r0, [r0, #-13]
    1f58:	03055001 	movweq	r5, #20481	; 0x5001
    1f5c:	0000a5cc 	andeq	sl, r0, ip, asr #11
    1f60:	8a1b0000 	bhi	6c1f68 <__bss_end__+0x6b72b0>
    1f64:	9d000000 	stcls	0, cr0, [r0, #-0]
    1f68:	1c00000a 	stcne	0, cr0, [r0], {10}
    1f6c:	00000081 	andeq	r0, r0, r1, lsl #1
    1f70:	8d07000d 	stchi	0, cr0, [r7, #-52]	; 0xffffffcc
    1f74:	2900000a 	stmdbcs	r0, {r1, r3}
    1f78:	00000430 	andeq	r0, r0, r0, lsr r4
    1f7c:	2c011401 	cfstrscs	mvf1, [r1], {1}
    1f80:	5c000000 	stcpl	0, cr0, [r0], {-0}
    1f84:	a400008f 	strge	r0, [r0], #-143	; 0x8f
    1f88:	01000000 	mrseq	r0, (UNDEF: 0)
    1f8c:	000bda9c 	muleq	fp, ip, sl
    1f90:	013b1900 	teqeq	fp, r0, lsl #18
    1f94:	0bea0000 	bleq	ffa81f9c <__bss_end__+0xffa772e4>
    1f98:	03050000 	movweq	r0, #20480	; 0x5000
    1f9c:	0000a2d8 	ldrdeq	sl, [r0], -r8
    1fa0:	0003d924 	andeq	sp, r3, r4, lsr #18
    1fa4:	011e0100 	tsteq	lr, r0, lsl #2
    1fa8:	0000002c 	andeq	r0, r0, ip, lsr #32
    1fac:	00000a15 	andeq	r0, r0, r5, lsl sl
    1fb0:	008f6416 	addeq	r6, pc, r6, lsl r4	; <UNPREDICTABLE>
    1fb4:	000d6500 	andeq	r6, sp, r0, lsl #10
    1fb8:	8f701600 	svchi	0x00701600
    1fbc:	0d1a0000 	ldceq	0, cr0, [sl, #-0]
    1fc0:	84140000 	ldrhi	r0, [r4], #-0
    1fc4:	0400008f 	streq	r0, [r0], #-143	; 0x8f
    1fc8:	1d00000d 	stcne	0, cr0, [r0, #-52]	; 0xffffffcc
    1fcc:	1500000b 	strne	r0, [r0, #-11]
    1fd0:	0a035301 	beq	d6bdc <__bss_end__+0xcbf24>
    1fd4:	0115011a 	tsteq	r5, sl, lsl r1
    1fd8:	d8030552 	stmdale	r3, {r1, r4, r6, r8, sl}
    1fdc:	150000a2 	strne	r0, [r0, #-162]	; 0xa2
    1fe0:	03055101 	movweq	r5, #20737	; 0x5101
    1fe4:	0000a45c 	andeq	sl, r0, ip, asr r4
    1fe8:	05500115 	ldrbeq	r0, [r0, #-277]	; 0x115
    1fec:	00a55803 	adceq	r5, r5, r3, lsl #16
    1ff0:	88160000 	ldmdahi	r6, {}	; <UNPREDICTABLE>
    1ff4:	2100008f 	smlabbcs	r0, pc, r0, r0	; <UNPREDICTABLE>
    1ff8:	1400000d 	strne	r0, [r0], #-13
    1ffc:	00008f90 	muleq	r0, r0, pc	; <UNPREDICTABLE>
    2000:	00000d04 	andeq	r0, r0, r4, lsl #26
    2004:	00000b3d 	andeq	r0, r0, sp, lsr fp
    2008:	05500115 	ldrbeq	r0, [r0, #-277]	; 0x115
    200c:	009d4403 	addseq	r4, sp, r3, lsl #8
    2010:	98140000 	ldmdals	r4, {}	; <UNPREDICTABLE>
    2014:	0400008f 	streq	r0, [r0], #-143	; 0x8f
    2018:	5400000d 	strpl	r0, [r0], #-13
    201c:	1500000b 	strne	r0, [r0, #-11]
    2020:	03055001 	movweq	r5, #20481	; 0x5001
    2024:	0000a580 	andeq	sl, r0, r0, lsl #11
    2028:	8fa01400 	svchi	0x00a01400
    202c:	092d0000 	pusheq	{}	; <UNPREDICTABLE>
    2030:	0b670000 	bleq	19c2038 <__bss_end__+0x19b7380>
    2034:	01150000 	tsteq	r5, r0
    2038:	00310150 	eorseq	r0, r1, r0, asr r1
    203c:	008fac16 	addeq	sl, pc, r6, lsl ip	; <UNPREDICTABLE>
    2040:	000d1a00 	andeq	r1, sp, r0, lsl #20
    2044:	8fc01400 	svchi	0x00c01400
    2048:	0d040000 	stceq	0, cr0, [r4, #-0]
    204c:	0ba00000 	bleq	fe802054 <__bss_end__+0xfe7f739c>
    2050:	01150000 	tsteq	r5, r0
    2054:	200a0353 	andcs	r0, sl, r3, asr r3
    2058:	52011501 	andpl	r1, r1, #4194304	; 0x400000
    205c:	a2d80305 	sbcsge	r0, r8, #335544320	; 0x14000000
    2060:	01150000 	tsteq	r5, r0
    2064:	5c030551 	cfstr32pl	mvfx0, [r3], {81}	; 0x51
    2068:	150000a4 	strne	r0, [r0, #-164]	; 0xa4
    206c:	03055001 	movweq	r5, #20481	; 0x5001
    2070:	0000a5e4 	andeq	sl, r0, r4, ror #11
    2074:	8fc41600 	svchi	0x00c41600
    2078:	0d210000 	stceq	0, cr0, [r1, #-0]
    207c:	cc140000 	ldcgt	0, cr0, [r4], {-0}
    2080:	0400008f 	streq	r0, [r0], #-143	; 0x8f
    2084:	c000000d 	andgt	r0, r0, sp
    2088:	1500000b 	strne	r0, [r0, #-11]
    208c:	03055001 	movweq	r5, #20481	; 0x5001
    2090:	00009d44 	andeq	r9, r0, r4, asr #26
    2094:	8fd81700 	svchi	0x00d81700
    2098:	0d040000 	stceq	0, cr0, [r4, #-0]
    209c:	01150000 	tsteq	r5, r0
    20a0:	00740251 	rsbseq	r0, r4, r1, asr r2
    20a4:	05500115 	ldrbeq	r0, [r0, #-277]	; 0x115
    20a8:	00a60c03 	adceq	r0, r6, r3, lsl #24
    20ac:	1b000000 	blne	20b4 <__code_start__-0x5f4c>
    20b0:	0000008a 	andeq	r0, r0, sl, lsl #1
    20b4:	00000bea 	andeq	r0, r0, sl, ror #23
    20b8:	0000811c 	andeq	r8, r0, ip, lsl r1
    20bc:	07001100 	streq	r1, [r0, -r0, lsl #2]
    20c0:	00000bda 	ldrdeq	r0, [r0], -sl
    20c4:	0003bc28 	andeq	fp, r3, r8, lsr #24
    20c8:	01270100 	teqeq	r7, r0, lsl #2
    20cc:	00009000 	andeq	r9, r0, r0
    20d0:	0000002c 	andeq	r0, r0, ip, lsr #32
    20d4:	0c579c01 	mrrceq	12, 0, r9, r7, cr1
    20d8:	3b190000 	blcc	6420e0 <__bss_end__+0x637428>
    20dc:	67000001 	strvs	r0, [r0, -r1]
    20e0:	0500000c 	streq	r0, [r0, #-12]
    20e4:	00a2ec03 	adceq	lr, r2, r3, lsl #24
    20e8:	90081600 	andls	r1, r8, r0, lsl #12
    20ec:	0d1a0000 	ldceq	0, cr0, [sl, #-0]
    20f0:	1c140000 	ldcne	0, cr0, [r4], {-0}
    20f4:	04000090 	streq	r0, [r0], #-144	; 0x90
    20f8:	4d00000d 	stcmi	0, cr0, [r0, #-52]	; 0xffffffcc
    20fc:	1500000c 	strne	r0, [r0, #-12]
    2100:	0a035301 	beq	d6d0c <__bss_end__+0xcc054>
    2104:	01150128 	tsteq	r5, r8, lsr #2
    2108:	ec030552 	cfstr32	mvfx0, [r3], {82}	; 0x52
    210c:	150000a2 	strne	r0, [r0, #-162]	; 0xa2
    2110:	03055101 	movweq	r5, #20737	; 0x5101
    2114:	0000a45c 	andeq	sl, r0, ip, asr r4
    2118:	05500115 	ldrbeq	r0, [r0, #-277]	; 0x115
    211c:	00a62c03 	adceq	r2, r6, r3, lsl #24
    2120:	20160000 	andscs	r0, r6, r0
    2124:	21000090 	swpcs	r0, r0, [r0]	; <UNPREDICTABLE>
    2128:	0000000d 	andeq	r0, r0, sp
    212c:	00008a1b 	andeq	r8, r0, fp, lsl sl
    2130:	000c6700 	andeq	r6, ip, r0, lsl #14
    2134:	00811c00 	addeq	r1, r1, r0, lsl #24
    2138:	000e0000 	andeq	r0, lr, r0
    213c:	000c5707 	andeq	r5, ip, r7, lsl #14
    2140:	03f82900 	mvnseq	r2, #0, 18
    2144:	4f010000 	svcmi	0x00010000
    2148:	00002c01 	andeq	r2, r0, r1, lsl #24
    214c:	00902c00 	addseq	r2, r0, r0, lsl #24
    2150:	00001000 	andeq	r1, r0, r0
    2154:	a79c0100 	ldrge	r0, [ip, r0, lsl #2]
    2158:	2500000c 	strcs	r0, [r0, #-12]
    215c:	0000034b 	andeq	r0, r0, fp, asr #6
    2160:	2c015101 	stfcss	f5, [r1], {1}
    2164:	01000000 	mrseq	r0, (UNDEF: 0)
    2168:	90341650 	eorsls	r1, r4, r0, asr r6
    216c:	05bc0000 	ldreq	r0, [ip, #0]!
    2170:	38160000 	ldmdacc	r6, {}	; <UNPREDICTABLE>
    2174:	4b000090 	blmi	23bc <__code_start__-0x5c44>
    2178:	00000007 	andeq	r0, r0, r7
    217c:	0002c61e 	andeq	ip, r2, lr, lsl r6
    2180:	a4140100 	ldrge	r0, [r4], #-256	; 0x100
    2184:	05000001 	streq	r0, [r0, #-1]
    2188:	00a8a803 	adceq	sl, r8, r3, lsl #16
    218c:	03fe2000 	mvnseq	r2, #0
    2190:	f0010000 			; <UNDEFINED> instruction: 0xf0010000
    2194:	00000068 	andeq	r0, r0, r8, rrx
    2198:	00040c20 	andeq	r0, r4, r0, lsr #24
    219c:	68f00100 	ldmvs	r0!, {r8}^
    21a0:	20000000 	andcs	r0, r0, r0
    21a4:	00000442 	andeq	r0, r0, r2, asr #8
    21a8:	0068f301 	rsbeq	pc, r8, r1, lsl #6
    21ac:	6a200000 	bvs	8021b4 <__bss_end__+0x7f74fc>
    21b0:	01000004 	tsteq	r0, r4
    21b4:	000068f3 	strdeq	r6, [r0], -r3
    21b8:	01bb2a00 			; <UNDEFINED> instruction: 0x01bb2a00
    21bc:	94030000 	strls	r0, [r3], #-0
    21c0:	000001fb 	strdeq	r0, [r0], -fp
    21c4:	00026d2b 	andeq	r6, r2, fp, lsr #26
    21c8:	fb960300 	blx	fe582dd2 <__bss_end__+0xfe57811a>
    21cc:	04000001 	streq	r0, [r0], #-1
    21d0:	2c00000d 	stccs	0, cr0, [r0], {13}
    21d4:	000001fb 	strdeq	r0, [r0], -fp
    21d8:	050f2b00 	streq	r2, [pc, #-2816]	; 16e0 <__code_start__-0x6920>
    21dc:	29040000 	stmdbcs	r4, {}	; <UNPREDICTABLE>
    21e0:	00000025 	andeq	r0, r0, r5, lsr #32
    21e4:	00000d1a 	andeq	r0, r0, sl, lsl sp
    21e8:	0000912c 	andeq	r9, r0, ip, lsr #2
    21ec:	2e002d00 	cdpcs	13, 0, cr2, cr0, cr0, {0}
    21f0:	00000117 	andeq	r0, r0, r7, lsl r1
    21f4:	ef2e1e04 	svc	0x002e1e04
    21f8:	04000000 	streq	r0, [r0], #-0
    21fc:	02c12a65 	sbceq	r2, r1, #413696	; 0x65000
    2200:	a7030000 	strge	r0, [r3, -r0]
    2204:	000001a4 	andeq	r0, r0, r4, lsr #3
    2208:	0004512f 	andeq	r5, r4, pc, lsr #2
    220c:	45c70100 	strbmi	r0, [r7, #256]	; 0x100
    2210:	2c00000d 	stccs	0, cr0, [r0], {13}
    2214:	000005a1 	andeq	r0, r0, r1, lsr #11
    2218:	662f002d 	strtvs	r0, [pc], -sp, lsr #32
    221c:	05000002 	streq	r0, [r0, #-2]
    2220:	000d6512 	andeq	r6, sp, r2, lsl r5
    2224:	00882c00 	addeq	r2, r8, r0, lsl #24
    2228:	912c0000 	teqls	ip, r0
    222c:	2c000000 	stccs	0, cr0, [r0], {-0}
    2230:	00000091 	muleq	r0, r1, r0
    2234:	00002c2c 	andeq	r2, r0, ip, lsr #24
    2238:	cc2a0000 	stcgt	0, cr0, [sl], #-0
    223c:	05000000 	streq	r0, [r0, #-0]
    2240:	0000251e 	andeq	r2, r0, lr, lsl r5
    2244:	01120000 	tsteq	r2, r0
    2248:	00040000 	andeq	r0, r4, r0
    224c:	00000677 	andeq	r0, r0, r7, ror r6
    2250:	00070104 	andeq	r0, r7, r4, lsl #2
    2254:	8f010000 	svchi	0x00010000
    2258:	9b000004 	blls	2270 <__code_start__-0x5d90>
    225c:	44000004 	strmi	r0, [r0], #-4
    2260:	f0000090 			; <UNDEFINED> instruction: 0xf0000090
    2264:	7c000000 	stcvc	0, cr0, [r0], {-0}
    2268:	02000006 	andeq	r0, r0, #6
    226c:	6e690504 	cdpvs	5, 6, cr0, cr9, cr4, {0}
    2270:	04030074 	streq	r0, [r3], #-116	; 0x74
    2274:	00015a07 	andeq	r5, r1, r7, lsl #20
    2278:	06010300 	streq	r0, [r1], -r0, lsl #6
    227c:	00000128 	andeq	r0, r0, r8, lsr #2
    2280:	7e050203 	cdpvc	2, 0, cr0, cr5, cr3, {0}
    2284:	03000001 	movweq	r0, #1
    2288:	01750504 	cmneq	r5, r4, lsl #10
    228c:	08030000 	stmdaeq	r3, {}	; <UNPREDICTABLE>
    2290:	00017005 	andeq	r7, r1, r5
    2294:	03600400 	cmneq	r0, #0, 8
    2298:	2e020000 	cdpcs	0, 0, cr0, cr2, cr0, {0}
    229c:	0000005a 	andeq	r0, r0, sl, asr r0
    22a0:	26080103 	strcs	r0, [r8], -r3, lsl #2
    22a4:	03000001 	movweq	r0, #1
    22a8:	00fc0702 	rscseq	r0, ip, r2, lsl #14
    22ac:	88040000 	stmdahi	r4, {}	; <UNPREDICTABLE>
    22b0:	02000001 	andeq	r0, r0, #1
    22b4:	00007334 	andeq	r7, r0, r4, lsr r3
    22b8:	07040300 	streq	r0, [r4, -r0, lsl #6]
    22bc:	00000155 	andeq	r0, r0, r5, asr r1
    22c0:	50070803 	andpl	r0, r7, r3, lsl #16
    22c4:	03000001 	movweq	r0, #1
    22c8:	01670704 	cmneq	r7, r4, lsl #14
    22cc:	01030000 	mrseq	r0, (UNDEF: 3)
    22d0:	00012f08 	andeq	r2, r1, r8, lsl #30
    22d4:	95040500 	strls	r0, [r4, #-1280]	; 0x500
    22d8:	06000000 	streq	r0, [r0], -r0
    22dc:	00000088 	andeq	r0, r0, r8, lsl #1
    22e0:	0001dd07 	andeq	sp, r1, r7, lsl #26
    22e4:	680f0100 	stmdavs	pc, {r8}	; <UNPREDICTABLE>
    22e8:	44000000 	strmi	r0, [r0], #-0
    22ec:	f0000090 			; <UNDEFINED> instruction: 0xf0000090
    22f0:	01000000 	mrseq	r0, (UNDEF: 0)
    22f4:	00010e9c 	muleq	r1, ip, lr
    22f8:	0bcf0800 	bleq	ff3c4300 <__bss_end__+0xff3b9648>
    22fc:	0f010000 	svceq	0x00010000
    2300:	0000010e 	andeq	r0, r0, lr, lsl #2
    2304:	00000a49 	andeq	r0, r0, r9, asr #20
    2308:	6e656c09 	cdpvs	12, 6, cr6, cr5, cr9, {0}
    230c:	250f0100 	strcs	r0, [pc, #-256]	; 2214 <__code_start__-0x5dec>
    2310:	83000000 	movwhi	r0, #0
    2314:	0a00000a 	beq	2344 <__code_start__-0x5cbc>
    2318:	00000bd0 	ldrdeq	r0, [r0], -r0	; <UNPREDICTABLE>
    231c:	008f1001 	addeq	r1, pc, r1
    2320:	0ac20000 	beq	ff082328 <__bss_end__+0xff077670>
    2324:	e20a0000 	and	r0, sl, #0
    2328:	01000001 	tsteq	r0, r1
    232c:	00006811 	andeq	r6, r0, r1, lsl r8
    2330:	000b0100 	andeq	r0, fp, r0, lsl #2
    2334:	6d740b00 	vldmdbvs	r4!, {d16-d15}
    2338:	11010070 	tstne	r1, r0, ror r0
    233c:	00000068 	andeq	r0, r0, r8, rrx
    2340:	00000b4b 	andeq	r0, r0, fp, asr #22
    2344:	6d65720b 	sfmvs	f7, 2, [r5, #-44]!	; 0xffffffd4
    2348:	25120100 	ldrcs	r0, [r2, #-256]	; 0x100
    234c:	96000000 	strls	r0, [r0], -r0
    2350:	0000000b 	andeq	r0, r0, fp
    2354:	01140405 	tsteq	r4, r5, lsl #8
    2358:	000c0000 	andeq	r0, ip, r0
    235c:	000000db 	ldrdeq	r0, [r0], -fp
    2360:	071b0004 	ldreq	r0, [fp, -r4]
    2364:	01040000 	mrseq	r0, (UNDEF: 4)
    2368:	00000007 	andeq	r0, r0, r7
    236c:	0004e101 	andeq	lr, r4, r1, lsl #2
    2370:	00049b00 	andeq	r9, r4, r0, lsl #22
    2374:	00913400 	addseq	r3, r1, r0, lsl #8
    2378:	00002000 	andeq	r2, r0, r0
    237c:	00075e00 	andeq	r5, r7, r0, lsl #28
    2380:	06010200 	streq	r0, [r1], -r0, lsl #4
    2384:	00000128 	andeq	r0, r0, r8, lsr #2
    2388:	26080102 	strcs	r0, [r8], -r2, lsl #2
    238c:	02000001 	andeq	r0, r0, #1
    2390:	017e0502 	cmneq	lr, r2, lsl #10
    2394:	02020000 	andeq	r0, r2, #0
    2398:	0000fc07 	andeq	pc, r0, r7, lsl #24
    239c:	05040300 	streq	r0, [r4, #-768]	; 0x300
    23a0:	00746e69 	rsbseq	r6, r4, r9, ror #28
    23a4:	5a070402 	bpl	1c33b4 <__bss_end__+0x1b86fc>
    23a8:	02000001 	andeq	r0, r0, #1
    23ac:	01700508 	cmneq	r0, r8, lsl #10
    23b0:	08020000 	stmdaeq	r2, {}	; <UNPREDICTABLE>
    23b4:	00015007 	andeq	r5, r1, r7
    23b8:	05040200 	streq	r0, [r4, #-512]	; 0x200
    23bc:	00000175 	andeq	r0, r0, r5, ror r1
    23c0:	67070402 	strvs	r0, [r7, -r2, lsl #8]
    23c4:	04000001 	streq	r0, [r0], #-1
    23c8:	07040204 	streq	r0, [r4, -r4, lsl #4]
    23cc:	00000155 	andeq	r0, r0, r5, asr r1
    23d0:	007a0405 	rsbseq	r0, sl, r5, lsl #8
    23d4:	01020000 	mrseq	r0, (UNDEF: 2)
    23d8:	00012f08 	andeq	r2, r1, r8, lsl #30
    23dc:	00000600 	andeq	r0, r0, r0, lsl #12
    23e0:	d4020000 	strle	r0, [r2], #-0
    23e4:	00000048 	andeq	r0, r0, r8, asr #32
    23e8:	00013407 	andeq	r3, r1, r7, lsl #8
    23ec:	6b1b0300 	blvs	6c2ff4 <__bss_end__+0x6b833c>
    23f0:	34000000 	strcc	r0, [r0], #-0
    23f4:	20000091 	mulcs	r0, r1, r0
    23f8:	01000000 	mrseq	r0, (UNDEF: 0)
    23fc:	705f089c 			; <UNDEFINED> instruction: 0x705f089c
    2400:	6b030100 	blvs	c2808 <__bss_end__+0xb7b50>
    2404:	01000000 	mrseq	r0, (UNDEF: 0)
    2408:	00630850 	rsbeq	r0, r3, r0, asr r8
    240c:	00410301 	subeq	r0, r1, r1, lsl #6
    2410:	51010000 	mrspl	r0, (UNDEF: 1)
    2414:	01006e09 	tsteq	r0, r9, lsl #28
    2418:	00008103 	andeq	r8, r0, r3, lsl #2
    241c:	000ba900 	andeq	sl, fp, r0, lsl #18
    2420:	00700a00 	rsbseq	r0, r0, r0, lsl #20
    2424:	00740401 	rsbseq	r0, r4, r1, lsl #8
    2428:	0bca0000 	bleq	ff282430 <__bss_end__+0xff277778>
    242c:	650b0000 	strvs	r0, [fp, #-0]
    2430:	74040100 	strvc	r0, [r4], #-256	; 0x100
    2434:	01000000 	mrseq	r0, (UNDEF: 0)
    2438:	91000052 	qaddls	r0, r2, r0
    243c:	04000001 	streq	r0, [r0], #-1
    2440:	0007b800 	andeq	fp, r7, r0, lsl #16
    2444:	07010400 	streq	r0, [r1, -r0, lsl #8]
    2448:	01000000 	mrseq	r0, (UNDEF: 0)
    244c:	000004fe 	strdeq	r0, [r0], -lr
    2450:	0000049b 	muleq	r0, fp, r4
    2454:	00009154 	andeq	r9, r0, r4, asr r1
    2458:	00000058 	andeq	r0, r0, r8, asr r0
    245c:	0000084e 	andeq	r0, r0, lr, asr #16
    2460:	0004ef02 	andeq	lr, r4, r2, lsl #30
    2464:	30280200 	eorcc	r0, r8, r0, lsl #4
    2468:	03000000 	movweq	r0, #0
    246c:	00000516 	andeq	r0, r0, r6, lsl r5
    2470:	47000304 	strmi	r0, [r0, -r4, lsl #6]
    2474:	04000000 	streq	r0, [r0], #-0
    2478:	00000520 	andeq	r0, r0, r0, lsr #10
    247c:	00000047 	andeq	r0, r0, r7, asr #32
    2480:	04050000 	streq	r0, [r5], #-0
    2484:	00051802 	andeq	r1, r5, r2, lsl #16
    2488:	25620200 	strbcs	r0, [r2, #-512]!	; 0x200
    248c:	06000000 	streq	r0, [r0], -r0
    2490:	6e690504 	cdpvs	5, 6, cr0, cr9, cr4, {0}
    2494:	04070074 	streq	r0, [r7], #-116	; 0x74
    2498:	00015a07 	andeq	r5, r1, r7, lsl #20
    249c:	06010700 	streq	r0, [r1], -r0, lsl #14
    24a0:	00000128 	andeq	r0, r0, r8, lsr #2
    24a4:	7e050207 	cdpvc	2, 0, cr0, cr5, cr7, {0}
    24a8:	07000001 	streq	r0, [r0, -r1]
    24ac:	01750504 	cmneq	r5, r4, lsl #10
    24b0:	08070000 	stmdaeq	r7, {}	; <UNPREDICTABLE>
    24b4:	00017005 	andeq	r7, r1, r5
    24b8:	08010700 	stmdaeq	r1, {r8, r9, sl}
    24bc:	00000126 	andeq	r0, r0, r6, lsr #2
    24c0:	fc070207 	stc2	2, cr0, [r7], {7}
    24c4:	07000000 	streq	r0, [r0, -r0]
    24c8:	01550704 	cmpeq	r5, r4, lsl #14
    24cc:	08070000 	stmdaeq	r7, {}	; <UNPREDICTABLE>
    24d0:	00015007 	andeq	r5, r1, r7
    24d4:	07040700 	streq	r0, [r4, -r0, lsl #14]
    24d8:	00000167 	andeq	r0, r0, r7, ror #2
    24dc:	00a70408 	adceq	r0, r7, r8, lsl #8
    24e0:	01070000 	mrseq	r0, (UNDEF: 7)
    24e4:	00012f08 	andeq	r2, r1, r8, lsl #30
    24e8:	b4040800 	strlt	r0, [r4], #-2048	; 0x800
    24ec:	09000000 	stmdbeq	r0, {}	; <UNPREDICTABLE>
    24f0:	000000a7 	andeq	r0, r0, r7, lsr #1
    24f4:	00050f0a 	andeq	r0, r5, sl, lsl #30
    24f8:	54060100 	strpl	r0, [r6], #-256	; 0x100
    24fc:	54000000 	strpl	r0, [r0], #-0
    2500:	58000091 	stmdapl	r0, {r0, r4, r7}
    2504:	01000000 	mrseq	r0, (UNDEF: 0)
    2508:	0001439c 	muleq	r1, ip, r3
    250c:	6d660b00 	vstmdbvs	r6!, {d16-d15}
    2510:	06010074 			; <UNDEFINED> instruction: 0x06010074
    2514:	000000ae 	andeq	r0, r0, lr, lsr #1
    2518:	0c709102 	ldfeqp	f1, [r0], #-8
    251c:	6675620d 	ldrbtvs	r6, [r5], -sp, lsl #4
    2520:	43080100 	movwmi	r0, #33024	; 0x8100
    2524:	05000001 	streq	r0, [r0, #-1]
    2528:	00a8b803 	adceq	fp, r8, r3, lsl #16
    252c:	07c70e00 	strbeq	r0, [r7, r0, lsl #28]
    2530:	09010000 	stmdbeq	r1, {}	; <UNPREDICTABLE>
    2534:	00000049 	andeq	r0, r0, r9, asr #32
    2538:	0f5c9102 	svceq	0x005c9102
    253c:	01007a73 	tsteq	r0, r3, ror sl
    2540:	0000540c 	andeq	r5, r0, ip, lsl #8
    2544:	000bf500 	andeq	pc, fp, r0, lsl #10
    2548:	917c1000 	cmnls	ip, r0
    254c:	01740000 	cmneq	r4, r0
    2550:	01360000 	teqeq	r6, r0
    2554:	01110000 	tsteq	r1, r0
    2558:	4c910253 	lfmmi	f0, 4, [r1], {83}	; 0x53
    255c:	03520111 	cmpeq	r2, #1073741828	; 0x40000004
    2560:	11064891 			; <UNDEFINED> instruction: 0x11064891
    2564:	0a035101 	beq	d6970 <__bss_end__+0xcbcb8>
    2568:	01110400 	tsteq	r1, r0, lsl #8
    256c:	00740250 	rsbseq	r0, r4, r0, asr r2
    2570:	91901200 	orrsls	r1, r0, r0, lsl #4
    2574:	01110000 	tsteq	r1, r0
    2578:	00740250 	rsbseq	r0, r4, r0, asr r2
    257c:	a7130000 	ldrge	r0, [r3, -r0]
    2580:	54000000 	strpl	r0, [r0], #-0
    2584:	14000001 	strne	r0, [r0], #-1
    2588:	0000009a 	muleq	r0, sl, r0
    258c:	150003ff 	strne	r0, [r0, #-1023]	; 0x3ff
    2590:	00000054 	andeq	r0, r0, r4, asr r0
    2594:	00000163 	andeq	r0, r0, r3, ror #2
    2598:	0000ae16 	andeq	sl, r0, r6, lsl lr
    259c:	7d170000 	ldcvc	0, cr0, [r7, #-0]
    25a0:	04000005 	streq	r0, [r0], #-5
    25a4:	00016e22 	andeq	r6, r1, r2, lsr #28
    25a8:	54040800 	strpl	r0, [r4], #-2048	; 0x800
    25ac:	18000001 	stmdane	r0, {r0}
    25b0:	0000050c 	andeq	r0, r0, ip, lsl #10
    25b4:	00540205 	subseq	r0, r4, r5, lsl #4
    25b8:	a1160000 	tstge	r6, r0
    25bc:	16000000 	strne	r0, [r0], -r0
    25c0:	00000054 	andeq	r0, r0, r4, asr r0
    25c4:	0000ae16 	andeq	sl, r0, r6, lsl lr
    25c8:	00491600 	subeq	r1, r9, r0, lsl #12
    25cc:	00000000 	andeq	r0, r0, r0
    25d0:	00000113 	andeq	r0, r0, r3, lsl r1
    25d4:	08e90004 	stmiaeq	r9!, {r2}^
    25d8:	01040000 	mrseq	r0, (UNDEF: 4)
    25dc:	00000007 	andeq	r0, r0, r7
    25e0:	00054c01 	andeq	r4, r5, r1, lsl #24
    25e4:	00049b00 	andeq	r9, r4, r0, lsl #22
    25e8:	0091ac00 	addseq	sl, r1, r0, lsl #24
    25ec:	00003c00 	andeq	r3, r0, r0, lsl #24
    25f0:	00095e00 	andeq	r5, r9, r0, lsl #28
    25f4:	05040200 	streq	r0, [r4, #-512]	; 0x200
    25f8:	00746e69 	rsbseq	r6, r4, r9, ror #28
    25fc:	5a070403 	bpl	1c3610 <__bss_end__+0x1b8958>
    2600:	03000001 	movweq	r0, #1
    2604:	01280601 	teqeq	r8, r1, lsl #12
    2608:	02030000 	andeq	r0, r3, #0
    260c:	00017e05 	andeq	r7, r1, r5, lsl #28
    2610:	05040300 	streq	r0, [r4, #-768]	; 0x300
    2614:	00000175 	andeq	r0, r0, r5, ror r1
    2618:	70050803 	andvc	r0, r5, r3, lsl #16
    261c:	03000001 	movweq	r0, #1
    2620:	01260801 	teqeq	r6, r1, lsl #16
    2624:	02030000 	andeq	r0, r3, #0
    2628:	0000fc07 	andeq	pc, r0, r7, lsl #24
    262c:	07040300 	streq	r0, [r4, -r0, lsl #6]
    2630:	00000155 	andeq	r0, r0, r5, asr r1
    2634:	50070803 	andpl	r0, r7, r3, lsl #16
    2638:	03000001 	movweq	r0, #1
    263c:	01670704 	cmneq	r7, r4, lsl #14
    2640:	01030000 	mrseq	r0, (UNDEF: 3)
    2644:	00012f08 	andeq	r2, r1, r8, lsl #30
    2648:	052f0400 	streq	r0, [pc, #-1024]!	; 2250 <__code_start__-0x5db0>
    264c:	03010000 	movweq	r0, #4096	; 0x1000
    2650:	00000025 	andeq	r0, r0, r5, lsr #32
    2654:	000091ac 	andeq	r9, r0, ip, lsr #3
    2658:	00000014 	andeq	r0, r0, r4, lsl r0
    265c:	00b09c01 	adcseq	r9, r0, r1, lsl #24
    2660:	63050000 	movwvs	r0, #20480	; 0x5000
    2664:	25030100 	strcs	r0, [r3, #-256]	; 0x100
    2668:	1e000000 	cdpne	0, 0, cr0, cr0, cr0, {0}
    266c:	0600000c 	streq	r0, [r0], -ip
    2670:	000091b8 			; <UNDEFINED> instruction: 0x000091b8
    2674:	00000109 	andeq	r0, r0, r9, lsl #2
    2678:	02500107 	subseq	r0, r0, #-1073741823	; 0xc0000001
    267c:	00000074 	andeq	r0, r0, r4, ror r0
    2680:	00011708 	andeq	r1, r1, r8, lsl #14
    2684:	c0080100 	andgt	r0, r8, r0, lsl #2
    2688:	18000091 	stmdane	r0, {r0, r4, r7}
    268c:	01000000 	mrseq	r0, (UNDEF: 0)
    2690:	055b099c 	ldrbeq	r0, [fp, #-2460]	; 0x99c
    2694:	0b010000 	bleq	4269c <__bss_end__+0x379e4>
    2698:	000091d8 	ldrdeq	r9, [r0], -r8
    269c:	00000010 	andeq	r0, r0, r0, lsl r0
    26a0:	00e39c01 	rsceq	r9, r3, r1, lsl #24
    26a4:	660a0000 	strvs	r0, [sl], -r0
    26a8:	0b010070 	bleq	42870 <__bss_end__+0x37bb8>
    26ac:	000000f2 	strdeq	r0, [r0], -r2
    26b0:	0b005001 	bleq	166bc <__bss_end__+0xba04>
    26b4:	00000025 	andeq	r0, r0, r5, lsr #32
    26b8:	000000f2 	strdeq	r0, [r0], -r2
    26bc:	0000250c 	andeq	r2, r0, ip, lsl #10
    26c0:	040d0000 	streq	r0, [sp], #-0
    26c4:	000000e3 	andeq	r0, r0, r3, ror #1
    26c8:	0005400e 	andeq	r4, r5, lr
    26cc:	f2060100 	vrhadd.s8	d0, d6, d0
    26d0:	05000000 	streq	r0, [r0, #-0]
    26d4:	009d1003 	addseq	r1, sp, r3
    26d8:	05250f00 	streq	r0, [r5, #-3840]!	; 0xf00
    26dc:	3c020000 	stccc	0, cr0, [r2], {-0}
    26e0:	00002c0c 	andeq	r2, r0, ip, lsl #24
    26e4:	ee000000 	cdp	0, 0, cr0, cr0, cr0, {0}
    26e8:	04000000 	streq	r0, [r0], #-0
    26ec:	0009d100 	andeq	sp, r9, r0, lsl #2
    26f0:	07010400 	streq	r0, [r1, -r0, lsl #8]
    26f4:	01000000 	mrseq	r0, (UNDEF: 0)
    26f8:	00000568 	andeq	r0, r0, r8, ror #10
    26fc:	0000049b 	muleq	r0, fp, r4
    2700:	000091e8 	andeq	r9, r0, r8, ror #3
    2704:	00000034 	andeq	r0, r0, r4, lsr r0
    2708:	000009f6 	strdeq	r0, [r0], -r6
    270c:	69050402 	stmdbvs	r5, {r1, sl}
    2710:	0300746e 	movweq	r7, #1134	; 0x46e
    2714:	015a0704 	cmpeq	sl, r4, lsl #14
    2718:	01030000 	mrseq	r0, (UNDEF: 3)
    271c:	00012806 	andeq	r2, r1, r6, lsl #16
    2720:	05020300 	streq	r0, [r2, #-768]	; 0x300
    2724:	0000017e 	andeq	r0, r0, lr, ror r1
    2728:	75050403 	strvc	r0, [r5, #-1027]	; 0x403
    272c:	03000001 	movweq	r0, #1
    2730:	01700508 	cmneq	r0, r8, lsl #10
    2734:	01030000 	mrseq	r0, (UNDEF: 3)
    2738:	00012608 	andeq	r2, r1, r8, lsl #12
    273c:	07020300 	streq	r0, [r2, -r0, lsl #6]
    2740:	000000fc 	strdeq	r0, [r0], -ip
    2744:	55070403 	strpl	r0, [r7, #-1027]	; 0x403
    2748:	03000001 	movweq	r0, #1
    274c:	01500708 	cmpeq	r0, r8, lsl #14
    2750:	04030000 	streq	r0, [r3], #-0
    2754:	00016707 	andeq	r6, r1, r7, lsl #14
    2758:	08010300 	stmdaeq	r1, {r8, r9}
    275c:	0000012f 	andeq	r0, r0, pc, lsr #2
    2760:	007f0404 	rsbseq	r0, pc, r4, lsl #8
    2764:	72050000 	andvc	r0, r5, #0
    2768:	06000000 	streq	r0, [r0], -r0
    276c:	00000574 	andeq	r0, r0, r4, ror r5
    2770:	00250401 	eoreq	r0, r5, r1, lsl #8
    2774:	91e80000 	mvnls	r0, r0
    2778:	00340000 	eorseq	r0, r4, r0
    277c:	9c010000 	stcls	0, cr0, [r1], {-0}
    2780:	000000ab 	andeq	r0, r0, fp, lsr #1
    2784:	01007007 	tsteq	r0, r7
    2788:	00007904 	andeq	r7, r0, r4, lsl #18
    278c:	000c3c00 	andeq	r3, ip, r0, lsl #24
    2790:	25080000 	strcs	r0, [r8, #-0]
    2794:	ba000000 	blt	279c <__code_start__-0x5864>
    2798:	09000000 	stmdbeq	r0, {}	; <UNPREDICTABLE>
    279c:	00000025 	andeq	r0, r0, r5, lsr #32
    27a0:	05400a00 	strbeq	r0, [r0, #-2560]	; 0xa00
    27a4:	1d020000 	stcne	0, cr0, [r2, #-0]
    27a8:	000000c5 	andeq	r0, r0, r5, asr #1
    27ac:	00ab0404 	adceq	r0, fp, r4, lsl #8
    27b0:	25080000 	strcs	r0, [r8, #-0]
    27b4:	da000000 	ble	27bc <__code_start__-0x5844>
    27b8:	09000000 	stmdbeq	r0, {}	; <UNPREDICTABLE>
    27bc:	00000079 	andeq	r0, r0, r9, ror r0
    27c0:	057d0b00 	ldrbeq	r0, [sp, #-2816]!	; 0xb00
    27c4:	0c010000 	stceq	0, cr0, [r1], {-0}
    27c8:	000000eb 	andeq	r0, r0, fp, ror #1
    27cc:	9d140305 	ldcls	3, cr0, [r4, #-20]	; 0xffffffec
    27d0:	04040000 	streq	r0, [r4], #-0
    27d4:	000000cb 	andeq	r0, r0, fp, asr #1
    27d8:	00068100 	andeq	r8, r6, r0, lsl #2
    27dc:	6a000400 	bvs	37e4 <__code_start__-0x481c>
    27e0:	0400000a 	streq	r0, [r0], #-10
    27e4:	00000701 	andeq	r0, r0, r1, lsl #14
    27e8:	05a90100 	streq	r0, [r9, #256]!	; 0x100
    27ec:	049b0000 	ldreq	r0, [fp], #0
    27f0:	921c0000 	andsls	r0, ip, #0
    27f4:	050c0000 	streq	r0, [ip, #-0]
    27f8:	0a9a0000 	beq	fe682800 <__bss_end__+0xfe677b48>
    27fc:	04020000 	streq	r0, [r2], #-0
    2800:	746e6905 	strbtvc	r6, [lr], #-2309	; 0x905
    2804:	07040300 	streq	r0, [r4, -r0, lsl #6]
    2808:	0000015a 	andeq	r0, r0, sl, asr r1
    280c:	28060103 	stmdacs	r6, {r0, r1, r8}
    2810:	03000001 	movweq	r0, #1
    2814:	017e0502 	cmneq	lr, r2, lsl #10
    2818:	04030000 	streq	r0, [r3], #-0
    281c:	00017505 	andeq	r7, r1, r5, lsl #10
    2820:	05080300 	streq	r0, [r8, #-768]	; 0x300
    2824:	00000170 	andeq	r0, r0, r0, ror r1
    2828:	26080103 	strcs	r0, [r8], -r3, lsl #2
    282c:	03000001 	movweq	r0, #1
    2830:	00fc0702 	rscseq	r0, ip, r2, lsl #14
    2834:	04030000 	streq	r0, [r3], #-0
    2838:	00015507 	andeq	r5, r1, r7, lsl #10
    283c:	07080300 	streq	r0, [r8, -r0, lsl #6]
    2840:	00000150 	andeq	r0, r0, r0, asr r1
    2844:	67070403 	strvs	r0, [r7, -r3, lsl #8]
    2848:	04000001 	streq	r0, [r0], #-1
    284c:	7a040504 	bvc	103c64 <__bss_end__+0xf8fac>
    2850:	03000000 	movweq	r0, #0
    2854:	012f0801 	teqeq	pc, r1, lsl #16
    2858:	04050000 	streq	r0, [r5], #-0
    285c:	00000087 	andeq	r0, r0, r7, lsl #1
    2860:	00007a06 	andeq	r7, r0, r6, lsl #20
    2864:	04ef0700 	strbteq	r0, [pc], #1792	; 286c <__code_start__-0x5794>
    2868:	28020000 	stmdacs	r2, {}	; <UNPREDICTABLE>
    286c:	00000097 	muleq	r0, r7, r0
    2870:	00051608 	andeq	r1, r5, r8, lsl #12
    2874:	00040400 	andeq	r0, r4, r0, lsl #8
    2878:	000000ae 	andeq	r0, r0, lr, lsr #1
    287c:	00052009 	andeq	r2, r5, r9
    2880:	00007200 	andeq	r7, r0, r0, lsl #4
    2884:	07000000 	streq	r0, [r0, -r0]
    2888:	00000518 	andeq	r0, r0, r8, lsl r5
    288c:	008c6202 	addeq	r6, ip, r2, lsl #4
    2890:	900a0000 	andls	r0, sl, r0
    2894:	01000005 	tsteq	r0, r5
    2898:	00002527 	andeq	r2, r0, r7, lsr #10
    289c:	00921c00 	addseq	r1, r2, r0, lsl #24
    28a0:	00001400 	andeq	r1, r0, r0, lsl #8
    28a4:	e09c0100 	adds	r0, ip, r0, lsl #2
    28a8:	0b000000 	bleq	28b0 <__code_start__-0x5750>
    28ac:	27010063 	strcs	r0, [r1, -r3, rrx]
    28b0:	00000025 	andeq	r0, r0, r5, lsr #32
    28b4:	00000c5a 	andeq	r0, r0, sl, asr ip
    28b8:	61700c00 	cmnvs	r0, r0, lsl #24
    28bc:	2e010064 	cdpcs	0, 0, cr0, cr1, cr4, {3}
    28c0:	00000074 	andeq	r0, r0, r4, ror r0
    28c4:	00009230 	andeq	r9, r0, r0, lsr r2
    28c8:	0000002c 	andeq	r0, r0, ip, lsr #32
    28cc:	01309c01 	teqeq	r0, r1, lsl #24
    28d0:	700b0000 	andvc	r0, fp, r0
    28d4:	742e0100 	strtvc	r0, [lr], #-256	; 0x100
    28d8:	88000000 	stmdahi	r0, {}	; <UNPREDICTABLE>
    28dc:	0d00000c 	stceq	0, cr0, [r0, #-48]	; 0xffffffd0
    28e0:	000007a5 	andeq	r0, r0, r5, lsr #15
    28e4:	00742e01 	rsbseq	r2, r4, r1, lsl #28
    28e8:	0cb30000 	ldceq	0, cr0, [r3]
    28ec:	c90e0000 	stmdbgt	lr, {}	; <UNPREDICTABLE>
    28f0:	01000005 	tsteq	r0, r5
    28f4:	0000252e 	andeq	r2, r0, lr, lsr #10
    28f8:	0f520100 	svceq	0x00520100
    28fc:	006e656c 	rsbeq	r6, lr, ip, ror #10
    2900:	00252f01 	eoreq	r2, r5, r1, lsl #30
    2904:	51010000 	mrspl	r0, (UNDEF: 1)
    2908:	05880a00 	streq	r0, [r8, #2560]	; 0xa00
    290c:	37010000 	strcc	r0, [r1, -r0]
    2910:	00000074 	andeq	r0, r0, r4, ror r0
    2914:	0000925c 	andeq	r9, r0, ip, asr r2
    2918:	00000040 	andeq	r0, r0, r0, asr #32
    291c:	019c9c01 	orrseq	r9, ip, r1, lsl #24
    2920:	640b0000 	strvs	r0, [fp], #-0
    2924:	01007473 	tsteq	r0, r3, ror r4
    2928:	00007437 	andeq	r7, r0, r7, lsr r4
    292c:	000cd400 	andeq	sp, ip, r0, lsl #8
    2930:	006e0b00 	rsbeq	r0, lr, r0, lsl #22
    2934:	00253701 	eoreq	r3, r5, r1, lsl #14
    2938:	0d0c0000 	stceq	0, cr0, [ip, #-0]
    293c:	700b0000 	andvc	r0, fp, r0
    2940:	74370100 	ldrtvc	r0, [r7], #-256	; 0x100
    2944:	2d000000 	stccs	0, cr0, [r0, #-0]
    2948:	0d00000d 	stceq	0, cr0, [r0, #-52]	; 0xffffffcc
    294c:	00000d60 	andeq	r0, r0, r0, ror #26
    2950:	00743701 	rsbseq	r3, r4, r1, lsl #14
    2954:	0d630000 	stcleq	0, cr0, [r3, #-0]
    2958:	6c100000 	ldcvs	0, cr0, [r0], {-0}
    295c:	01006e65 	tsteq	r0, r5, ror #28
    2960:	00002539 	andeq	r2, r0, r9, lsr r5
    2964:	000d8100 	andeq	r8, sp, r0, lsl #2
    2968:	00730f00 	rsbseq	r0, r3, r0, lsl #30
    296c:	00743d01 	rsbseq	r3, r4, r1, lsl #26
    2970:	50010000 	andpl	r0, r1, r0
    2974:	05d70a00 	ldrbeq	r0, [r7, #2560]	; 0xa00
    2978:	47010000 	strmi	r0, [r1, -r0]
    297c:	00000074 	andeq	r0, r0, r4, ror r0
    2980:	0000929c 	muleq	r0, ip, r2
    2984:	000001b0 			; <UNDEFINED> instruction: 0x000001b0
    2988:	02d39c01 	sbcseq	r9, r3, #256	; 0x100
    298c:	a50d0000 	strge	r0, [sp, #-0]
    2990:	01000007 	tsteq	r0, r7
    2994:	00002c47 	andeq	r2, r0, r7, asr #24
    2998:	000da800 	andeq	sl, sp, r0, lsl #16
    299c:	73640b00 	cmnvc	r4, #0, 22
    29a0:	47010074 	smlsdxmi	r1, r4, r0, r0
    29a4:	00000074 	andeq	r0, r0, r4, ror r0
    29a8:	00000dd6 	ldrdeq	r0, [r0], -r6
    29ac:	01006e0b 	tsteq	r0, fp, lsl #28
    29b0:	00002547 	andeq	r2, r0, r7, asr #10
    29b4:	000e4400 	andeq	r4, lr, r0, lsl #8
    29b8:	61760b00 	cmnvs	r6, r0, lsl #22
    29bc:	4701006c 	strmi	r0, [r1, -ip, rrx]
    29c0:	00000025 	andeq	r0, r0, r5, lsr #32
    29c4:	00000e70 	andeq	r0, r0, r0, ror lr
    29c8:	0005c90d 	andeq	ip, r5, sp, lsl #18
    29cc:	25470100 	strbcs	r0, [r7, #-256]	; 0x100
    29d0:	ef000000 	svc	0x00000000
    29d4:	0e00000e 	cdpeq	0, 0, cr0, cr0, cr14, {0}
    29d8:	000005a0 	andeq	r0, r0, r0, lsr #11
    29dc:	00254701 	eoreq	r4, r5, r1, lsl #14
    29e0:	91020000 	mrsls	r0, (UNDEF: 2)
    29e4:	75620f04 	strbvc	r0, [r2, #-3844]!	; 0xf04
    29e8:	4c010066 	stcmi	0, cr0, [r1], {102}	; 0x66
    29ec:	000002d3 	ldrdeq	r0, [r0], -r3
    29f0:	7fa89103 	svcvc	0x00a89103
    29f4:	01007010 	tsteq	r0, r0, lsl r0
    29f8:	0000744c 	andeq	r7, r0, ip, asr #8
    29fc:	000f1900 	andeq	r1, pc, r0, lsl #18
    2a00:	00751000 	rsbseq	r1, r5, r0
    2a04:	002c4d01 	eoreq	r4, ip, r1, lsl #26
    2a08:	0fe10000 	svceq	0x00e10000
    2a0c:	3b110000 	blcc	442a14 <__bss_end__+0x437d5c>
    2a10:	f3000001 	vhadd.u8	d0, d0, d1
    2a14:	05000002 	streq	r0, [r0, #-2]
    2a18:	00a65c03 	adceq	r5, r6, r3, lsl #24
    2a1c:	93081200 	movwls	r1, #33280	; 0x8200
    2a20:	00740000 	rsbseq	r0, r4, r0
    2a24:	02610000 	rsbeq	r0, r1, #0
    2a28:	82130000 	andshi	r0, r3, #0
    2a2c:	01000005 	tsteq	r0, r5
    2a30:	00002c52 	andeq	r2, r0, r2, asr ip
    2a34:	0010a400 	andseq	sl, r0, r0, lsl #8
    2a38:	f4140000 			; <UNDEFINED> instruction: 0xf4140000
    2a3c:	60000093 	mulvs	r0, r3, r0
    2a40:	15000006 	strne	r0, [r0, #-6]
    2a44:	00009408 	andeq	r9, r0, r8, lsl #8
    2a48:	00000667 	andeq	r0, r0, r7, ror #12
    2a4c:	00000299 	muleq	r0, r9, r2
    2a50:	02530116 	subseq	r0, r3, #-2147483643	; 0x80000005
    2a54:	01167708 	tsteq	r6, r8, lsl #14
    2a58:	5c030552 	cfstr32pl	mvfx0, [r3], {82}	; 0x52
    2a5c:	160000a6 	strne	r0, [r0], -r6, lsr #1
    2a60:	03055101 	movweq	r5, #20737	; 0x5101
    2a64:	0000a694 	muleq	r0, r4, r6
    2a68:	05500116 	ldrbeq	r0, [r0, #-278]	; 0x116
    2a6c:	00a68003 	adceq	r8, r6, r3
    2a70:	0c140000 	ldceq	0, cr0, [r4], {-0}
    2a74:	7d000094 	stcvc	0, cr0, [r0, #-592]	; 0xfffffdb0
    2a78:	15000006 	strne	r0, [r0, #-6]
    2a7c:	00009414 	andeq	r9, r0, r4, lsl r4
    2a80:	000000e0 	andeq	r0, r0, r0, ror #1
    2a84:	000002b6 			; <UNDEFINED> instruction: 0x000002b6
    2a88:	02510116 	subseq	r0, r1, #-2147483643	; 0x80000005
    2a8c:	1700007d 	smlsdxne	r0, sp, r0, r0
    2a90:	00009428 	andeq	r9, r0, r8, lsr #8
    2a94:	00000130 	andeq	r0, r0, r0, lsr r1
    2a98:	02530116 	subseq	r0, r3, #-2147483643	; 0x80000005
    2a9c:	0116007d 	tsteq	r6, sp, ror r0
    2aa0:	00740251 	rsbseq	r0, r4, r1, asr r2
    2aa4:	02500116 	subseq	r0, r0, #-2147483643	; 0x80000005
    2aa8:	00000075 	andeq	r0, r0, r5, ror r0
    2aac:	00007a18 	andeq	r7, r0, r8, lsl sl
    2ab0:	0002e300 	andeq	lr, r2, r0, lsl #6
    2ab4:	006b1900 	rsbeq	r1, fp, r0, lsl #18
    2ab8:	003f0000 	eorseq	r0, pc, r0
    2abc:	00007a18 	andeq	r7, r0, r8, lsl sl
    2ac0:	0002f300 	andeq	pc, r2, r0, lsl #6
    2ac4:	006b1900 	rsbeq	r1, fp, r0, lsl #18
    2ac8:	00040000 	andeq	r0, r4, r0
    2acc:	0002e306 	andeq	lr, r2, r6, lsl #6
    2ad0:	05ba1a00 	ldreq	r1, [sl, #2560]!	; 0xa00
    2ad4:	1f010000 	svcne	0x00010000
    2ad8:	0000944c 	andeq	r9, r0, ip, asr #8
    2adc:	00000054 	andeq	r0, r0, r4, asr r0
    2ae0:	037c9c01 	cmneq	ip, #256	; 0x100
    2ae4:	cf0d0000 	svcgt	0x000d0000
    2ae8:	01000005 	tsteq	r0, r5
    2aec:	00038b1f 	andeq	r8, r3, pc, lsl fp
    2af0:	0010d000 	andseq	sp, r0, r0
    2af4:	05980d00 	ldreq	r0, [r8, #3328]	; 0xd00
    2af8:	1f010000 	svcne	0x00010000
    2afc:	000003a0 	andeq	r0, r0, r0, lsr #7
    2b00:	000010fc 	strdeq	r1, [r0], -ip
    2b04:	00013b11 	andeq	r3, r1, r1, lsl fp
    2b08:	0003b600 	andeq	fp, r3, r0, lsl #12
    2b0c:	64030500 	strvs	r0, [r3], #-1280	; 0x500
    2b10:	140000a6 	strne	r0, [r0], #-166	; 0xa6
    2b14:	0000945c 	andeq	r9, r0, ip, asr r4
    2b18:	00000660 	andeq	r0, r0, r0, ror #12
    2b1c:	00947015 	addseq	r7, r4, r5, lsl r0
    2b20:	00066700 	andeq	r6, r6, r0, lsl #14
    2b24:	00037200 	andeq	r7, r3, r0, lsl #4
    2b28:	53011600 	movwpl	r1, #5632	; 0x1600
    2b2c:	16200802 	strtne	r0, [r0], -r2, lsl #16
    2b30:	03055201 	movweq	r5, #20993	; 0x5201
    2b34:	0000a664 	andeq	sl, r0, r4, ror #12
    2b38:	05510116 	ldrbeq	r0, [r1, #-278]	; 0x116
    2b3c:	00a69403 	adceq	r9, r6, r3, lsl #8
    2b40:	50011600 	andpl	r1, r1, r0, lsl #12
    2b44:	a6cc0305 	strbge	r0, [ip], r5, lsl #6
    2b48:	14000000 	strne	r0, [r0], #-0
    2b4c:	00009474 	andeq	r9, r0, r4, ror r4
    2b50:	0000067d 	andeq	r0, r0, sp, ror r6
    2b54:	00251b00 	eoreq	r1, r5, r0, lsl #22
    2b58:	038b0000 	orreq	r0, fp, #0
    2b5c:	251c0000 	ldrcs	r0, [ip, #-0]
    2b60:	00000000 	andeq	r0, r0, r0
    2b64:	037c0405 	cmneq	ip, #83886080	; 0x5000000
    2b68:	251b0000 	ldrcs	r0, [fp, #-0]
    2b6c:	a0000000 	andge	r0, r0, r0
    2b70:	1c000003 	stcne	0, cr0, [r0], {3}
    2b74:	00000081 	andeq	r0, r0, r1, lsl #1
    2b78:	91040500 	tstls	r4, r0, lsl #10
    2b7c:	18000003 	stmdane	r0, {r0, r1}
    2b80:	0000007a 	andeq	r0, r0, sl, ror r0
    2b84:	000003b6 			; <UNDEFINED> instruction: 0x000003b6
    2b88:	00006b19 	andeq	r6, r0, r9, lsl fp
    2b8c:	06000e00 	streq	r0, [r0], -r0, lsl #28
    2b90:	000003a6 	andeq	r0, r0, r6, lsr #7
    2b94:	00050c1d 	andeq	r0, r5, sp, lsl ip
    2b98:	257f0100 	ldrbcs	r0, [pc, #-256]!	; 2aa0 <__code_start__-0x5560>
    2b9c:	a0000000 	andge	r0, r0, r0
    2ba0:	88000094 	stmdahi	r0, {r2, r4, r7}
    2ba4:	01000002 	tsteq	r0, r2
    2ba8:	0006259c 	muleq	r6, ip, r5
    2bac:	75620b00 	strbvc	r0, [r2, #-2816]!	; 0xb00
    2bb0:	7f010066 	svcvc	0x00010066
    2bb4:	00000074 	andeq	r0, r0, r4, ror r0
    2bb8:	00001128 	andeq	r1, r0, r8, lsr #2
    2bbc:	01006e0b 	tsteq	r0, fp, lsl #28
    2bc0:	0000257f 	andeq	r2, r0, pc, ror r5
    2bc4:	00115400 	andseq	r5, r1, r0, lsl #8
    2bc8:	6d660b00 	vstmdbvs	r6!, {d16-d15}
    2bcc:	7f010074 	svcvc	0x00010074
    2bd0:	00000081 	andeq	r0, r0, r1, lsl #1
    2bd4:	00001182 	andeq	r1, r0, r2, lsl #3
    2bd8:	0007c70d 	andeq	ip, r7, sp, lsl #14
    2bdc:	ae7f0100 	rpwgee	f0, f7, f0
    2be0:	b6000000 	strlt	r0, [r0], -r0
    2be4:	10000011 	andne	r0, r0, r1, lsl r0
    2be8:	80010070 	andhi	r0, r1, r0, ror r0
    2bec:	00000074 	andeq	r0, r0, r4, ror r0
    2bf0:	000011c9 	andeq	r1, r0, r9, asr #3
    2bf4:	01006510 	tsteq	r0, r0, lsl r5
    2bf8:	00007480 	andeq	r7, r0, r0, lsl #9
    2bfc:	00124700 	andseq	r4, r2, r0, lsl #14
    2c00:	013b1100 	teqeq	fp, r0, lsl #2
    2c04:	06350000 	ldrteq	r0, [r5], -r0
    2c08:	03050000 	movweq	r0, #20480	; 0x5000
    2c0c:	0000a674 	andeq	sl, r0, r4, ror r6
    2c10:	0000481e 	andeq	r4, r0, lr, lsl r8
    2c14:	00731000 	rsbseq	r1, r3, r0
    2c18:	00748d01 	rsbseq	r8, r4, r1, lsl #26
    2c1c:	126e0000 	rsbne	r0, lr, #0
    2c20:	6e0f0000 	cdpvs	0, 0, cr0, cr15, cr0, {0}
    2c24:	01006d75 	tsteq	r0, r5, ror sp
    2c28:	00063a8d 	andeq	r3, r6, sp, lsl #21
    2c2c:	d8910300 	ldmle	r1, {r8, r9}
    2c30:	05c9137e 	strbeq	r1, [r9, #894]	; 0x37e
    2c34:	8e010000 	cdphi	0, 0, cr0, cr1, cr0, {0}
    2c38:	0000002c 	andeq	r0, r0, ip, lsr #32
    2c3c:	000012c3 	andeq	r1, r0, r3, asr #5
    2c40:	00952415 	addseq	r2, r5, r5, lsl r4
    2c44:	0000b900 	andeq	fp, r0, r0, lsl #18
    2c48:	00047b00 	andeq	r7, r4, r0, lsl #22
    2c4c:	50011600 	andpl	r1, r1, r0, lsl #12
    2c50:	00007502 	andeq	r7, r0, r2, lsl #10
    2c54:	00953814 	addseq	r3, r5, r4, lsl r8
    2c58:	00066000 	andeq	r6, r6, r0
    2c5c:	954c1500 	strbls	r1, [ip, #-1280]	; 0x500
    2c60:	06670000 	strbteq	r0, [r7], -r0
    2c64:	04b30000 	ldrteq	r0, [r3], #0
    2c68:	01160000 	tsteq	r6, r0
    2c6c:	94080253 	strls	r0, [r8], #-595	; 0x253
    2c70:	05520116 	ldrbeq	r0, [r2, #-278]	; 0x116
    2c74:	00a67403 	adceq	r7, r6, r3, lsl #8
    2c78:	51011600 	tstpl	r1, r0, lsl #12
    2c7c:	a6940305 	ldrge	r0, [r4], r5, lsl #6
    2c80:	01160000 	tsteq	r6, r0
    2c84:	e4030550 	str	r0, [r3], #-1360	; 0x550
    2c88:	000000a6 	andeq	r0, r0, r6, lsr #1
    2c8c:	00955014 	addseq	r5, r5, r4, lsl r0
    2c90:	00067d00 	andeq	r7, r6, r0, lsl #26
    2c94:	95c01400 	strbls	r1, [r0, #1024]	; 0x400
    2c98:	06600000 	strbteq	r0, [r0], -r0
    2c9c:	d4150000 	ldrle	r0, [r5], #-0
    2ca0:	67000095 			; <UNDEFINED> instruction: 0x67000095
    2ca4:	f4000006 	vst4.8	{d0-d3}, [r0], r6
    2ca8:	16000004 	strne	r0, [r0], -r4
    2cac:	08025301 	stmdaeq	r2, {r0, r8, r9, ip, lr}
    2cb0:	5201169a 	andpl	r1, r1, #161480704	; 0x9a00000
    2cb4:	a6740305 	ldrbtge	r0, [r4], -r5, lsl #6
    2cb8:	01160000 	tsteq	r6, r0
    2cbc:	94030551 	strls	r0, [r3], #-1361	; 0x551
    2cc0:	160000a6 	strne	r0, [r0], -r6, lsr #1
    2cc4:	03055001 	movweq	r5, #20481	; 0x5001
    2cc8:	0000a700 	andeq	sl, r0, r0, lsl #14
    2ccc:	95d81400 	ldrbls	r1, [r8, #1024]	; 0x400
    2cd0:	067d0000 	ldrbteq	r0, [sp], -r0
    2cd4:	fc150000 	ldc2	0, cr0, [r5], {-0}
    2cd8:	9c000095 	stcls	0, cr0, [r0], {149}	; 0x95
    2cdc:	2a000001 	bcs	2ce8 <__code_start__-0x5318>
    2ce0:	16000005 	strne	r0, [r0], -r5
    2ce4:	08025201 	stmdaeq	r2, {r0, r9, ip, lr}
    2ce8:	51011680 	smlabbpl	r1, r0, r6, r1
    2cec:	7ed09103 	atnvcs	f1, f3
    2cf0:	01500116 	cmpeq	r0, r6, lsl r1
    2cf4:	7d02163a 	stcvc	6, cr1, [r2, #-232]	; 0xffffff18
    2cf8:	16310104 	ldrtne	r0, [r1], -r4, lsl #2
    2cfc:	02007d02 	andeq	r7, r0, #2, 26	; 0x80
    2d00:	15000077 	strne	r0, [r0, #-119]	; 0x77
    2d04:	00009620 	andeq	r9, r0, r0, lsr #12
    2d08:	0000019c 	muleq	r0, ip, r1
    2d0c:	00000558 	andeq	r0, r0, r8, asr r5
    2d10:	02520116 	subseq	r0, r2, #-2147483643	; 0x80000005
    2d14:	01168008 	tsteq	r6, r8
    2d18:	d0910351 	addsle	r0, r1, r1, asr r3
    2d1c:	5001167e 	andpl	r1, r1, lr, ror r6
    2d20:	02163a01 	andseq	r3, r6, #4096	; 0x1000
    2d24:	7b02047d 	blvc	83f20 <__bss_end__+0x79268>
    2d28:	7d021600 	stcvc	6, cr1, [r2, #-0]
    2d2c:	00770200 	rsbseq	r0, r7, r0, lsl #4
    2d30:	96441500 	strbls	r1, [r4], -r0, lsl #10
    2d34:	019c0000 	orrseq	r0, ip, r0
    2d38:	05860000 	streq	r0, [r6]
    2d3c:	01160000 	tsteq	r6, r0
    2d40:	80080252 	andhi	r0, r8, r2, asr r2
    2d44:	03510116 	cmpeq	r1, #-2147483643	; 0x80000005
    2d48:	167ed091 			; <UNDEFINED> instruction: 0x167ed091
    2d4c:	40015001 	andmi	r5, r1, r1
    2d50:	047d0216 	ldrbteq	r0, [sp], #-534	; 0x216
    2d54:	16007b02 	strne	r7, [r0], -r2, lsl #22
    2d58:	02007d02 	andeq	r7, r0, #2, 26	; 0x80
    2d5c:	15000077 	strne	r0, [r0, #-119]	; 0x77
    2d60:	00009668 	andeq	r9, r0, r8, ror #12
    2d64:	0000019c 	muleq	r0, ip, r1
    2d68:	000005b4 			; <UNDEFINED> instruction: 0x000005b4
    2d6c:	02520116 	subseq	r0, r2, #-2147483643	; 0x80000005
    2d70:	01168008 	tsteq	r6, r8
    2d74:	d0910351 	addsle	r0, r1, r1, asr r3
    2d78:	5001167e 	andpl	r1, r1, lr, ror r6
    2d7c:	02163201 	andseq	r3, r6, #268435456	; 0x10000000
    2d80:	7b02047d 	blvc	83f7c <__bss_end__+0x792c4>
    2d84:	7d021600 	stcvc	6, cr1, [r2, #-0]
    2d88:	00770200 	rsbseq	r0, r7, r0, lsl #4
    2d8c:	96981500 	ldrls	r1, [r8], r0, lsl #10
    2d90:	019c0000 	orrseq	r0, ip, r0
    2d94:	05e20000 	strbeq	r0, [r2, #0]!
    2d98:	01160000 	tsteq	r6, r0
    2d9c:	80080252 	andhi	r0, r8, r2, asr r2
    2da0:	03510116 	cmpeq	r1, #-2147483643	; 0x80000005
    2da4:	167ed091 			; <UNDEFINED> instruction: 0x167ed091
    2da8:	38015001 	stmdacc	r1, {r0, ip, lr}
    2dac:	047d0216 	ldrbteq	r0, [sp], #-534	; 0x216
    2db0:	16007b02 	strne	r7, [r0], -r2, lsl #22
    2db4:	02007d02 	andeq	r7, r0, #2, 26	; 0x80
    2db8:	14000077 	strne	r0, [r0], #-119	; 0x77
    2dbc:	000096a0 	andeq	r9, r0, r0, lsr #13
    2dc0:	00000660 	andeq	r0, r0, r0, ror #12
    2dc4:	0096bc15 	addseq	fp, r6, r5, lsl ip
    2dc8:	00066700 	andeq	r6, r6, r0, lsl #14
    2dcc:	00061a00 	andeq	r1, r6, r0, lsl #20
    2dd0:	53011600 	movwpl	r1, #5632	; 0x1600
    2dd4:	16bb0802 	ldrtne	r0, [fp], r2, lsl #16
    2dd8:	03055201 	movweq	r5, #20993	; 0x5201
    2ddc:	0000a674 	andeq	sl, r0, r4, ror r6
    2de0:	05510116 	ldrbeq	r0, [r1, #-278]	; 0x116
    2de4:	00a69403 	adceq	r9, r6, r3, lsl #8
    2de8:	50011600 	andpl	r1, r1, r0, lsl #12
    2dec:	a7280305 	strge	r0, [r8, -r5, lsl #6]!
    2df0:	14000000 	strne	r0, [r0], #-0
    2df4:	000096c0 	andeq	r9, r0, r0, asr #13
    2df8:	0000067d 	andeq	r0, r0, sp, ror r6
    2dfc:	7a180000 	bvc	602e04 <__bss_end__+0x5f814c>
    2e00:	35000000 	strcc	r0, [r0, #-0]
    2e04:	19000006 	stmdbne	r0, {r1, r2}
    2e08:	0000006b 	andeq	r0, r0, fp, rrx
    2e0c:	25060009 	strcs	r0, [r6, #-9]
    2e10:	18000006 	stmdane	r0, {r1, r2}
    2e14:	0000007a 	andeq	r0, r0, sl, ror r0
    2e18:	0000064a 	andeq	r0, r0, sl, asr #12
    2e1c:	00006b19 	andeq	r6, r0, r9, lsl fp
    2e20:	1f007f00 	svcne	0x00007f00
    2e24:	00000540 	andeq	r0, r0, r0, asr #10
    2e28:	038b1d03 	orreq	r1, fp, #3, 26	; 0xc0
    2e2c:	7d1f0000 	ldcvc	0, cr0, [pc, #-0]	; 2e34 <__code_start__-0x51cc>
    2e30:	03000005 	movweq	r0, #5
    2e34:	0003a022 	andeq	sl, r3, r2, lsr #32
    2e38:	01172000 	tsteq	r7, r0
    2e3c:	1e030000 	cdpne	0, 0, cr0, cr3, cr0, {0}
    2e40:	00050f21 	andeq	r0, r5, r1, lsr #30
    2e44:	25290300 	strcs	r0, [r9, #-768]!	; 0x300
    2e48:	7d000000 	stcvc	0, cr0, [r0, #-0]
    2e4c:	1c000006 	stcne	0, cr0, [r0], {6}
    2e50:	00000081 	andeq	r0, r0, r1, lsl #1
    2e54:	ef200022 	svc	0x00200022
    2e58:	03000000 	movweq	r0, #0
    2e5c:	00ff0065 	rscseq	r0, pc, r5, rrx
    2e60:	00040000 	andeq	r0, r4, r0
    2e64:	00000c46 	andeq	r0, r0, r6, asr #24
    2e68:	00070104 	andeq	r0, r7, r4, lsl #2
    2e6c:	dc010000 	stcle	0, cr0, [r1], {-0}
    2e70:	9b000005 	blls	2e8c <__code_start__-0x5174>
    2e74:	28000004 	stmdacs	r0, {r2}
    2e78:	28000097 	stmdacs	r0, {r0, r1, r2, r4, r7}
    2e7c:	89000000 	stmdbhi	r0, {}	; <UNPREDICTABLE>
    2e80:	0200000c 	andeq	r0, r0, #12
    2e84:	6e690504 	cdpvs	5, 6, cr0, cr9, cr4, {0}
    2e88:	04030074 	streq	r0, [r3], #-116	; 0x74
    2e8c:	00015a07 	andeq	r5, r1, r7, lsl #20
    2e90:	06010300 	streq	r0, [r1], -r0, lsl #6
    2e94:	00000128 	andeq	r0, r0, r8, lsr #2
    2e98:	7e050203 	cdpvc	2, 0, cr0, cr5, cr3, {0}
    2e9c:	03000001 	movweq	r0, #1
    2ea0:	01750504 	cmneq	r5, r4, lsl #10
    2ea4:	08030000 	stmdaeq	r3, {}	; <UNPREDICTABLE>
    2ea8:	00017005 	andeq	r7, r1, r5
    2eac:	08010300 	stmdaeq	r1, {r8, r9}
    2eb0:	00000126 	andeq	r0, r0, r6, lsr #2
    2eb4:	fc070203 	stc2	2, cr0, [r7], {3}
    2eb8:	03000000 	movweq	r0, #0
    2ebc:	01550704 	cmpeq	r5, r4, lsl #14
    2ec0:	08030000 	stmdaeq	r3, {}	; <UNPREDICTABLE>
    2ec4:	00015007 	andeq	r5, r1, r7
    2ec8:	07040300 	streq	r0, [r4, -r0, lsl #6]
    2ecc:	00000167 	andeq	r0, r0, r7, ror #2
    2ed0:	2f080103 	svccs	0x00080103
    2ed4:	04000001 	streq	r0, [r0], #-1
    2ed8:	00007f04 	andeq	r7, r0, r4, lsl #30
    2edc:	00720500 	rsbseq	r0, r2, r0, lsl #10
    2ee0:	ef060000 	svc	0x00060000
    2ee4:	01000000 	mrseq	r0, (UNDEF: 0)
    2ee8:	00972804 	addseq	r2, r7, r4, lsl #16
    2eec:	00002800 	andeq	r2, r0, r0, lsl #16
    2ef0:	ca9c0100 	bgt	fe7032f8 <__bss_end__+0xfe6f8640>
    2ef4:	07000000 	streq	r0, [r0, -r0]
    2ef8:	0000973c 	andeq	r9, r0, ip, lsr r7
    2efc:	000000ac 	andeq	r0, r0, ip, lsr #1
    2f00:	05500108 	ldrbeq	r0, [r0, #-264]	; 0x108
    2f04:	00a76003 	adceq	r6, r7, r3
    2f08:	44090000 	strmi	r0, [r9], #-0
    2f0c:	ea000097 	b	3170 <__code_start__-0x4e90>
    2f10:	c0000000 	andgt	r0, r0, r0
    2f14:	08000000 	stmdaeq	r0, {}	; <UNPREDICTABLE>
    2f18:	08025001 	stmdaeq	r2, {r0, ip, lr}
    2f1c:	480a0064 	stmdami	sl, {r2, r5, r6}
    2f20:	fb000097 	blx	3186 <__code_start__-0x4e7a>
    2f24:	00000000 	andeq	r0, r0, r0
    2f28:	0000250b 	andeq	r2, r0, fp, lsl #10
    2f2c:	0000d900 	andeq	sp, r0, r0, lsl #18
    2f30:	00790c00 	rsbseq	r0, r9, r0, lsl #24
    2f34:	0d000000 	stceq	0, cr0, [r0, #-0]
    2f38:	0000057d 	andeq	r0, r0, sp, ror r5
    2f3c:	00e42202 	rsceq	r2, r4, r2, lsl #4
    2f40:	04040000 	streq	r0, [r4], #-0
    2f44:	000000ca 	andeq	r0, r0, sl, asr #1
    2f48:	0006000e 	andeq	r0, r6, lr
    2f4c:	fb4f0200 	blx	13c3756 <__bss_end__+0x13b8a9e>
    2f50:	0c000000 	stceq	0, cr0, [r0], {-0}
    2f54:	0000002c 	andeq	r0, r0, ip, lsr #32
    2f58:	05f50f00 	ldrbeq	r0, [r5, #3840]!	; 0xf00
    2f5c:	62020000 	andvs	r0, r2, #0
    2f60:	0000ff00 	andeq	pc, r0, r0, lsl #30
    2f64:	10000400 	andne	r0, r0, r0, lsl #8
    2f68:	0400000d 	streq	r0, [r0], #-13
    2f6c:	00000701 	andeq	r0, r0, r1, lsl #14
    2f70:	06190100 	ldreq	r0, [r9], -r0, lsl #2
    2f74:	049b0000 	ldreq	r0, [fp], #0
    2f78:	97500000 	ldrbls	r0, [r0, -r0]
    2f7c:	00340000 	eorseq	r0, r4, r0
    2f80:	0d290000 	stceq	0, cr0, [r9, #-0]
    2f84:	04020000 	streq	r0, [r2], #-0
    2f88:	746e6905 	strbtvc	r6, [lr], #-2309	; 0x905
    2f8c:	07040300 	streq	r0, [r4, -r0, lsl #6]
    2f90:	0000015a 	andeq	r0, r0, sl, asr r1
    2f94:	28060103 	stmdacs	r6, {r0, r1, r8}
    2f98:	03000001 	movweq	r0, #1
    2f9c:	017e0502 	cmneq	lr, r2, lsl #10
    2fa0:	04030000 	streq	r0, [r3], #-0
    2fa4:	00017505 	andeq	r7, r1, r5, lsl #10
    2fa8:	05080300 	streq	r0, [r8, #-768]	; 0x300
    2fac:	00000170 	andeq	r0, r0, r0, ror r1
    2fb0:	26080103 	strcs	r0, [r8], -r3, lsl #2
    2fb4:	03000001 	movweq	r0, #1
    2fb8:	00fc0702 	rscseq	r0, ip, r2, lsl #14
    2fbc:	04030000 	streq	r0, [r3], #-0
    2fc0:	00015507 	andeq	r5, r1, r7, lsl #10
    2fc4:	07080300 	streq	r0, [r8, -r0, lsl #6]
    2fc8:	00000150 	andeq	r0, r0, r0, asr r1
    2fcc:	67070403 	strvs	r0, [r7, -r3, lsl #8]
    2fd0:	03000001 	movweq	r0, #1
    2fd4:	012f0801 	teqeq	pc, r1, lsl #16
    2fd8:	11040000 	mrsne	r0, (UNDEF: 4)
    2fdc:	01000006 	tsteq	r0, r6
    2fe0:	0097500d 	addseq	r5, r7, sp
    2fe4:	00003400 	andeq	r3, r0, r0, lsl #8
    2fe8:	d89c0100 	ldmle	ip, {r8}
    2fec:	05000000 	streq	r0, [r0, #-0]
    2ff0:	000003fe 	strdeq	r0, [r0], -lr
    2ff4:	00250e01 	eoreq	r0, r5, r1, lsl #28
    2ff8:	0c050000 	stceq	0, cr0, [r5], {-0}
    2ffc:	01000004 	tsteq	r0, r4
    3000:	0000250e 	andeq	r2, r0, lr, lsl #10
    3004:	00c40600 	sbceq	r0, r4, r0, lsl #12
    3008:	0f010000 	svceq	0x00010000
    300c:	73736207 	cmnvc	r3, #1879048192	; 0x70000000
    3010:	d8110100 	ldmdale	r1, {r8}
    3014:	ed000000 	stc	0, cr0, [r0, #-0]
    3018:	08000012 	stmdaeq	r0, {r1, r4}
    301c:	00000609 	andeq	r0, r0, r9, lsl #12
    3020:	00d81201 	sbcseq	r1, r8, r1, lsl #4
    3024:	78090000 	stmdavc	r9, {}	; <UNPREDICTABLE>
    3028:	f4000097 	vst4.32	{d0-d3}, [r0 :64], r7
    302c:	09000000 	stmdbeq	r0, {}	; <UNPREDICTABLE>
    3030:	0000977c 	andeq	r9, r0, ip, ror r7
    3034:	000000fb 	strdeq	r0, [r0], -fp
    3038:	25040a00 	strcs	r0, [r4, #-2560]	; 0xa00
    303c:	05000000 	streq	r0, [r0, #-0]
    3040:	000003fe 	strdeq	r0, [r0], -lr
    3044:	00250e01 	eoreq	r0, r5, r1, lsl #28
    3048:	0c050000 	stceq	0, cr0, [r5], {-0}
    304c:	01000004 	tsteq	r0, r4
    3050:	0000250e 	andeq	r2, r0, lr, lsl #10
    3054:	00c40600 	sbceq	r0, r4, r0, lsl #12
    3058:	d7020000 	strle	r0, [r2, -r0]
    305c:	0000ef06 	andeq	lr, r0, r6, lsl #30
    3060:	00650200 	rsbeq	r0, r5, r0, lsl #4
    3064:	000001ad 	andeq	r0, r0, sp, lsr #3
    3068:	0da40004 	stceq	0, cr0, [r4, #16]!
    306c:	01040000 	mrseq	r0, (UNDEF: 4)
    3070:	00000007 	andeq	r0, r0, r7
    3074:	00063a01 	andeq	r3, r6, r1, lsl #20
    3078:	00049b00 	andeq	r9, r4, r0, lsl #22
    307c:	00006000 	andeq	r6, r0, r0
    3080:	00000000 	andeq	r0, r0, r0
    3084:	000dd000 	andeq	sp, sp, r0
    3088:	05040200 	streq	r0, [r4, #-512]	; 0x200
    308c:	00746e69 	rsbseq	r6, r4, r9, ror #28
    3090:	5a070403 	bpl	1c40a4 <__bss_end__+0x1b93ec>
    3094:	03000001 	movweq	r0, #1
    3098:	01280601 	teqeq	r8, r1, lsl #12
    309c:	02030000 	andeq	r0, r3, #0
    30a0:	00017e05 	andeq	r7, r1, r5, lsl #28
    30a4:	05040300 	streq	r0, [r4, #-768]	; 0x300
    30a8:	00000175 	andeq	r0, r0, r5, ror r1
    30ac:	70050803 	andvc	r0, r5, r3, lsl #16
    30b0:	03000001 	movweq	r0, #1
    30b4:	01260801 	teqeq	r6, r1, lsl #16
    30b8:	02030000 	andeq	r0, r3, #0
    30bc:	0000fc07 	andeq	pc, r0, r7, lsl #24
    30c0:	07040300 	streq	r0, [r4, -r0, lsl #6]
    30c4:	00000155 	andeq	r0, r0, r5, asr r1
    30c8:	50070803 	andpl	r0, r7, r3, lsl #16
    30cc:	03000001 	movweq	r0, #1
    30d0:	01670704 	cmneq	r7, r4, lsl #14
    30d4:	01030000 	mrseq	r0, (UNDEF: 3)
    30d8:	00012f08 	andeq	r2, r1, r8, lsl #30
    30dc:	062c0400 	strteq	r0, [ip], -r0, lsl #8
    30e0:	0e010000 	cdpeq	0, 0, cr0, cr1, cr0, {0}
    30e4:	00000025 	andeq	r0, r0, r5, lsr #32
    30e8:	00009784 	andeq	r9, r0, r4, lsl #15
    30ec:	00000018 	andeq	r0, r0, r8, lsl r0
    30f0:	00a29c01 	adceq	r9, r2, r1, lsl #24
    30f4:	97050000 	strls	r0, [r5, -r0]
    30f8:	01000006 	tsteq	r0, r6
    30fc:	00002c0f 	andeq	r2, r0, pc, lsl #24
    3100:	00130d00 	andseq	r0, r3, r0, lsl #26
    3104:	6e060000 	cdpvs	0, 0, cr0, cr6, cr0, {0}
    3108:	01000006 	tsteq	r0, r6
    310c:	00979c17 	addseq	r9, r7, r7, lsl ip
    3110:	00001400 	andeq	r1, r0, r0, lsl #8
    3114:	c79c0100 	ldrgt	r0, [ip, r0, lsl #2]
    3118:	05000000 	streq	r0, [r0, #-0]
    311c:	00000697 	muleq	r0, r7, r6
    3120:	002c1801 	eoreq	r1, ip, r1, lsl #16
    3124:	132c0000 	teqne	ip, #0
    3128:	06000000 	streq	r0, [r0], -r0
    312c:	000005f5 	strdeq	r0, [r0], -r5
    3130:	97b01f01 	ldrls	r1, [r0, r1, lsl #30]!
    3134:	00480000 	subeq	r0, r8, r0
    3138:	9c010000 	stcls	0, cr0, [r1], {-0}
    313c:	00000177 	andeq	r0, r0, r7, ror r1
    3140:	00068f07 	andeq	r8, r6, r7, lsl #30
    3144:	772a0100 	strvc	r0, [sl, -r0, lsl #2]!
    3148:	1c000001 	stcne	0, cr0, [r0], {1}
    314c:	07201000 	streq	r1, [r0, -r0]!
    3150:	00000666 	andeq	r0, r0, r6, ror #12
    3154:	01772b01 	cmneq	r7, r1, lsl #22
    3158:	00240000 	eoreq	r0, r4, r0
    315c:	83072010 	movwhi	r2, #28688	; 0x7010
    3160:	01000006 	tsteq	r0, r6
    3164:	0001772c 	andeq	r7, r1, ip, lsr #14
    3168:	00000000 	andeq	r0, r0, r0
    316c:	064d085a 			; <UNDEFINED> instruction: 0x064d085a
    3170:	2d010000 	stccs	0, cr0, [r1, #-0]
    3174:	00000177 	andeq	r0, r0, r7, ror r1
    3178:	97b80920 	ldrls	r0, [r8, r0, lsr #18]!
    317c:	00790000 	rsbseq	r0, r9, r0
    3180:	c4090000 	strgt	r0, [r9], #-0
    3184:	a2000097 	andge	r0, r0, #151	; 0x97
    3188:	0a000000 	beq	3190 <__code_start__-0x4e70>
    318c:	000097cc 	andeq	r9, r0, ip, asr #15
    3190:	0000018d 	andeq	r0, r0, sp, lsl #3
    3194:	0000013a 	andeq	r0, r0, sl, lsr r1
    3198:	0150010b 	cmpeq	r0, fp, lsl #2
    319c:	d80a004e 	stmdale	sl, {r1, r2, r3, r6}
    31a0:	9e000097 	mcrls	0, 0, r0, cr0, cr7, {4}
    31a4:	5a000001 	bpl	31b0 <__code_start__-0x4e50>
    31a8:	0b000001 	bleq	31b4 <__code_start__-0x4e4c>
    31ac:	0c055101 	stfeqs	f5, [r5], {1}
    31b0:	5a000001 	bpl	31bc <__code_start__-0x4e44>
    31b4:	0550010b 	ldrbeq	r0, [r0, #-267]	; 0x10b
    31b8:	1000240c 	andne	r2, r0, ip, lsl #8
    31bc:	e40c0020 	str	r0, [ip], #-32
    31c0:	9e000097 	mcrls	0, 0, r0, cr0, cr7, {4}
    31c4:	0b000001 	bleq	31d0 <__code_start__-0x4e30>
    31c8:	0c055101 	stfeqs	f5, [r5], {1}
    31cc:	5a000020 	bpl	3254 <__code_start__-0x4dac>
    31d0:	0550010b 	ldrbeq	r0, [r0, #-267]	; 0x10b
    31d4:	10001c0c 	andne	r1, r0, ip, lsl #24
    31d8:	0d000020 	stceq	0, cr0, [r0, #-128]	; 0xffffff80
    31dc:	00000025 	andeq	r0, r0, r5, lsr #32
    31e0:	00062f08 	andeq	r2, r6, r8, lsl #30
    31e4:	880d0100 	stmdahi	sp, {r8}
    31e8:	10000001 	andne	r0, r0, r1
    31ec:	00002c0d 	andeq	r2, r0, sp, lsl #24
    31f0:	06000e00 	streq	r0, [r0], -r0, lsl #28
    31f4:	4f020000 	svcmi	0x00020000
    31f8:	0000019e 	muleq	r0, lr, r1
    31fc:	00002c0f 	andeq	r2, r0, pc, lsl #24
    3200:	7d100000 	ldcvc	0, cr0, [r0, #-0]
    3204:	02000006 	andeq	r0, r0, #6
    3208:	002c0f9b 	mlaeq	ip, fp, pc, r0	; <UNPREDICTABLE>
    320c:	2c0f0000 	stccs	0, cr0, [pc], {-0}
    3210:	00000000 	andeq	r0, r0, r0
    3214:	0001d800 	andeq	sp, r1, r0, lsl #16
    3218:	92000400 	andls	r0, r0, #0, 8
    321c:	0400000e 	streq	r0, [r0], #-14
    3220:	00000701 	andeq	r0, r0, r1, lsl #14
    3224:	06b90100 	ldrteq	r0, [r9], r0, lsl #2
    3228:	049b0000 	ldreq	r0, [fp], #0
    322c:	97f80000 	ldrbls	r0, [r8, r0]!
    3230:	00880000 	addeq	r0, r8, r0
    3234:	0e760000 	cdpeq	0, 7, cr0, cr6, cr0, {0}
    3238:	04020000 	streq	r0, [r2], #-0
    323c:	746e6905 	strbtvc	r6, [lr], #-2309	; 0x905
    3240:	07040300 	streq	r0, [r4, -r0, lsl #6]
    3244:	0000015a 	andeq	r0, r0, sl, asr r1
    3248:	28060103 	stmdacs	r6, {r0, r1, r8}
    324c:	03000001 	movweq	r0, #1
    3250:	017e0502 	cmneq	lr, r2, lsl #10
    3254:	04030000 	streq	r0, [r3], #-0
    3258:	00017505 	andeq	r7, r1, r5, lsl #10
    325c:	05080300 	streq	r0, [r8, #-768]	; 0x300
    3260:	00000170 	andeq	r0, r0, r0, ror r1
    3264:	26080103 	strcs	r0, [r8], -r3, lsl #2
    3268:	03000001 	movweq	r0, #1
    326c:	00fc0702 	rscseq	r0, ip, r2, lsl #14
    3270:	04030000 	streq	r0, [r3], #-0
    3274:	00015507 	andeq	r5, r1, r7, lsl #10
    3278:	07080300 	streq	r0, [r8, -r0, lsl #6]
    327c:	00000150 	andeq	r0, r0, r0, asr r1
    3280:	67070403 	strvs	r0, [r7, -r3, lsl #8]
    3284:	03000001 	movweq	r0, #1
    3288:	012f0801 	teqeq	pc, r1, lsl #16
    328c:	d7040000 	strle	r0, [r4, -r0]
    3290:	01000006 	tsteq	r0, r6
    3294:	0097f805 	addseq	pc, r7, r5, lsl #16
    3298:	00001c00 	andeq	r1, r0, r0, lsl #24
    329c:	9e9c0100 	fmllse	f0, f4, f0
    32a0:	05000000 	streq	r0, [r0, #-0]
    32a4:	000006d1 	ldrdeq	r0, [r0], -r1
    32a8:	002c0501 	eoreq	r0, ip, r1, lsl #10
    32ac:	13560000 	cmpne	r6, #0
    32b0:	06000000 	streq	r0, [r0], -r0
    32b4:	0000069c 	muleq	r0, ip, r6
    32b8:	002c1101 	eoreq	r1, ip, r1, lsl #2
    32bc:	98140000 	ldmdals	r4, {}	; <UNPREDICTABLE>
    32c0:	00140000 	andseq	r0, r4, r0
    32c4:	9c010000 	stcls	0, cr0, [r1], {-0}
    32c8:	000000cb 	andeq	r0, r0, fp, asr #1
    32cc:	00982007 	addseq	r2, r8, r7
    32d0:	0001ca00 	andeq	ip, r1, r0, lsl #20
    32d4:	50010800 	andpl	r0, r1, r0, lsl #16
    32d8:	30040c05 	andcc	r0, r4, r5, lsl #24
    32dc:	00002000 	andeq	r2, r0, r0
    32e0:	0006ed06 	andeq	lr, r6, r6, lsl #26
    32e4:	2c160100 	ldfcss	f0, [r6], {-0}
    32e8:	28000000 	stmdacs	r0, {}	; <UNPREDICTABLE>
    32ec:	0c000098 	stceq	0, cr0, [r0], {152}	; 0x98
    32f0:	01000000 	mrseq	r0, (UNDEF: 0)
    32f4:	0000f99c 	muleq	r0, ip, r9
    32f8:	00750900 	rsbseq	r0, r5, r0, lsl #18
    32fc:	002c1a01 	eoreq	r1, ip, r1, lsl #20
    3300:	50010000 	andpl	r0, r1, r0
    3304:	0098300a 	addseq	r3, r8, sl
    3308:	00009e00 	andeq	r9, r0, r0, lsl #28
    330c:	e4040000 	str	r0, [r4], #-0
    3310:	01000006 	tsteq	r0, r6
    3314:	0098341f 	addseq	r3, r8, pc, lsl r4
    3318:	00002400 	andeq	r2, r0, r0, lsl #8
    331c:	579c0100 	ldrpl	r0, [ip, r0, lsl #2]
    3320:	0b000001 	bleq	332c <__code_start__-0x4cd4>
    3324:	01007375 	tsteq	r0, r5, ror r3
    3328:	00002c1f 	andeq	r2, r0, pc, lsl ip
    332c:	00138a00 	andseq	r8, r3, r0, lsl #20
    3330:	62720900 	rsbsvs	r0, r2, #0, 18
    3334:	2c200100 	stfcss	f0, [r0], #-0
    3338:	01000000 	mrseq	r0, (UNDEF: 0)
    333c:	98440c54 	stmdals	r4, {r2, r4, r6, sl, fp}^
    3340:	00100000 	andseq	r0, r0, r0
    3344:	014d0000 	mrseq	r0, (UNDEF: 77)
    3348:	720d0000 	andvc	r0, sp, #0
    334c:	22010061 	andcs	r0, r1, #97	; 0x61
    3350:	0000002c 	andeq	r0, r0, ip, lsr #32
    3354:	000013a8 	andeq	r1, r0, r8, lsr #7
    3358:	0098480a 	addseq	r4, r8, sl, lsl #16
    335c:	0000cb00 	andeq	ip, r0, r0, lsl #22
    3360:	400a0000 	andmi	r0, sl, r0
    3364:	cb000098 	blgt	35cc <__code_start__-0x4a34>
    3368:	00000000 	andeq	r0, r0, r0
    336c:	00060004 	andeq	r0, r6, r4
    3370:	58280100 	stmdapl	r8!, {r8}
    3374:	14000098 	strne	r0, [r0], #-152	; 0x98
    3378:	01000000 	mrseq	r0, (UNDEF: 0)
    337c:	0001909c 	muleq	r1, ip, r0
    3380:	736d0b00 	cmnvc	sp, #0, 22
    3384:	2c280100 	stfcss	f0, [r8], #-0
    3388:	bb000000 	bllt	3390 <__code_start__-0x4c70>
    338c:	07000013 	smladeq	r0, r3, r0, r0
    3390:	00009868 	andeq	r9, r0, r8, ror #16
    3394:	000000f9 	strdeq	r0, [r0], -r9
    3398:	07500108 	ldrbeq	r0, [r0, -r8, lsl #2]
    339c:	0a5001f3 	beq	1403b70 <__bss_end__+0x13f8eb8>
    33a0:	001e03e8 	andseq	r0, lr, r8, ror #7
    33a4:	06af0400 	strteq	r0, [pc], r0, lsl #8
    33a8:	2b010000 	blcs	433b0 <__bss_end__+0x386f8>
    33ac:	0000986c 	andeq	r9, r0, ip, ror #16
    33b0:	00000014 	andeq	r0, r0, r4, lsl r0
    33b4:	01ca9c01 	biceq	r9, sl, r1, lsl #24
    33b8:	730b0000 	movwvc	r0, #45056	; 0xb000
    33bc:	01006365 	tsteq	r0, r5, ror #6
    33c0:	00002c2b 	andeq	r2, r0, fp, lsr #24
    33c4:	0013dc00 	andseq	sp, r3, r0, lsl #24
    33c8:	987c0700 	ldmdals	ip!, {r8, r9, sl}^
    33cc:	01570000 	cmpeq	r7, r0
    33d0:	01080000 	mrseq	r0, (UNDEF: 8)
    33d4:	01f30750 	mvnseq	r0, r0, asr r7
    33d8:	03e80a50 	mvneq	r0, #80, 20	; 0x50000
    33dc:	0e00001e 	mcreq	0, 0, r0, cr0, cr14, {0}
    33e0:	000006cb 	andeq	r0, r0, fp, asr #13
    33e4:	002ca702 	eoreq	sl, ip, r2, lsl #14
    33e8:	2c0f0000 	stccs	0, cr0, [pc], {-0}
    33ec:	00000000 	andeq	r0, r0, r0
    33f0:	000cc500 	andeq	ip, ip, r0, lsl #10
    33f4:	75000400 	strvc	r0, [r0, #-1024]	; 0x400
    33f8:	0400000f 	streq	r0, [r0], #-15
    33fc:	000aa401 	andeq	sl, sl, r1, lsl #8
    3400:	07fb0c00 	ldrbeq	r0, [fp, r0, lsl #24]!
    3404:	08160000 	ldmdaeq	r6, {}	; <UNPREDICTABLE>
    3408:	98cc0000 	stmials	ip, {}^	; <UNPREDICTABLE>
    340c:	01780000 	cmneq	r8, r0
    3410:	0f260000 	svceq	0x00260000
    3414:	04020000 	streq	r0, [r2], #-0
    3418:	746e6905 	strbtvc	r6, [lr], #-2309	; 0x905
    341c:	07040300 	streq	r0, [r4, -r0, lsl #6]
    3420:	0000015a 	andeq	r0, r0, sl, asr r1
    3424:	00002c04 	andeq	r2, r0, r4, lsl #24
    3428:	06010300 	streq	r0, [r1], -r0, lsl #6
    342c:	00000128 	andeq	r0, r0, r8, lsr #2
    3430:	7e050203 	cdpvc	2, 0, cr0, cr5, cr3, {0}
    3434:	03000001 	movweq	r0, #1
    3438:	01750504 	cmneq	r5, r4, lsl #10
    343c:	08030000 	stmdaeq	r3, {}	; <UNPREDICTABLE>
    3440:	00017005 	andeq	r7, r1, r5
    3444:	08010300 	stmdaeq	r1, {r8, r9}
    3448:	00000126 	andeq	r0, r0, r6, lsr #2
    344c:	fc070203 	stc2	2, cr0, [r7], {3}
    3450:	03000000 	movweq	r0, #0
    3454:	01550704 	cmpeq	r5, r4, lsl #14
    3458:	08030000 	stmdaeq	r3, {}	; <UNPREDICTABLE>
    345c:	00015007 	andeq	r5, r1, r7
    3460:	09b90500 	ldmibeq	r9!, {r8, sl}
    3464:	07020000 	streq	r0, [r2, -r0]
    3468:	00000025 	andeq	r0, r0, r5, lsr #32
    346c:	0009a305 	andeq	sl, r9, r5, lsl #6
    3470:	462c0300 	strtmi	r0, [ip], -r0, lsl #6
    3474:	05000000 	streq	r0, [r0, #-0]
    3478:	00000a7f 	andeq	r0, r0, pc, ror sl
    347c:	00467203 	subeq	r7, r6, r3, lsl #4
    3480:	47060000 	strmi	r0, [r6, -r0]
    3484:	04000009 	streq	r0, [r0], #-9
    3488:	002c0165 	eoreq	r0, ip, r5, ror #2
    348c:	04070000 	streq	r0, [r7], #-0
    3490:	00bca603 	adcseq	sl, ip, r3, lsl #12
    3494:	32080000 	andcc	r0, r8, #0
    3498:	03000009 	movweq	r0, #9
    349c:	000091a8 	andeq	r9, r0, r8, lsr #3
    34a0:	08ce0800 	stmiaeq	lr, {fp}^
    34a4:	a9030000 	stmdbge	r3, {}	; <UNPREDICTABLE>
    34a8:	000000bc 	strheq	r0, [r0], -ip
    34ac:	00540900 	subseq	r0, r4, r0, lsl #18
    34b0:	00cc0000 	sbceq	r0, ip, r0
    34b4:	cc0a0000 	stcgt	0, cr0, [sl], {-0}
    34b8:	03000000 	movweq	r0, #0
    34bc:	07040300 	streq	r0, [r4, -r0, lsl #6]
    34c0:	00000167 	andeq	r0, r0, r7, ror #2
    34c4:	a303080b 	movwge	r0, #14347	; 0x380b
    34c8:	000000f4 	strdeq	r0, [r0], -r4
    34cc:	000a640c 	andeq	r6, sl, ip, lsl #8
    34d0:	25a50300 	strcs	r0, [r5, #768]!	; 0x300
    34d4:	00000000 	andeq	r0, r0, r0
    34d8:	000a6c0c 	andeq	r6, sl, ip, lsl #24
    34dc:	9daa0300 	stcls	3, cr0, [sl]
    34e0:	04000000 	streq	r0, [r0], #-0
    34e4:	09f70500 	ldmibeq	r7!, {r8, sl}^
    34e8:	ab030000 	blge	c34f0 <__bss_end__+0xb8838>
    34ec:	000000d3 	ldrdeq	r0, [r0], -r3
    34f0:	00089705 	andeq	r9, r8, r5, lsl #14
    34f4:	70af0300 	adcvc	r0, pc, r0, lsl #6
    34f8:	0d000000 	stceq	0, cr0, [r0, #-0]
    34fc:	12040e04 	andne	r0, r4, #4, 28	; 0x40
    3500:	03000001 	movweq	r0, #1
    3504:	012f0801 	teqeq	pc, r1, lsl #16
    3508:	120f0000 	andne	r0, pc, #0
    350c:	05000001 	streq	r0, [r0, #-1]
    3510:	00000b21 	andeq	r0, r0, r1, lsr #22
    3514:	00621605 	rsbeq	r1, r2, r5, lsl #12
    3518:	a8100000 	ldmdage	r0, {}	; <UNPREDICTABLE>
    351c:	18000008 	stmdane	r0, {r3}
    3520:	017c2d05 	cmneq	ip, r5, lsl #26
    3524:	180c0000 	stmdane	ip, {}	; <UNPREDICTABLE>
    3528:	0500000a 	streq	r0, [r0, #-10]
    352c:	00017c2f 	andeq	r7, r1, pc, lsr #24
    3530:	5f110000 	svcpl	0x00110000
    3534:	3005006b 	andcc	r0, r5, fp, rrx
    3538:	00000025 	andeq	r0, r0, r5, lsr #32
    353c:	0a4f0c04 	beq	13c6554 <__bss_end__+0x13bb89c>
    3540:	30050000 	andcc	r0, r5, r0
    3544:	00000025 	andeq	r0, r0, r5, lsr #32
    3548:	08830c08 	stmeq	r3, {r3, sl, fp}
    354c:	30050000 	andcc	r0, r5, r0
    3550:	00000025 	andeq	r0, r0, r5, lsr #32
    3554:	0b680c0c 	bleq	1a0658c <__bss_end__+0x19fb8d4>
    3558:	30050000 	andcc	r0, r5, r0
    355c:	00000025 	andeq	r0, r0, r5, lsr #32
    3560:	785f1110 	ldmdavc	pc, {r4, r8, ip}^	; <UNPREDICTABLE>
    3564:	82310500 	eorshi	r0, r1, #0, 10
    3568:	14000001 	strne	r0, [r0], #-1
    356c:	29040e00 	stmdbcs	r4, {r9, sl, fp}
    3570:	09000001 	stmdbeq	r0, {r0}
    3574:	0000011e 	andeq	r0, r0, lr, lsl r1
    3578:	00000192 	muleq	r0, r2, r1
    357c:	0000cc0a 	andeq	ip, r0, sl, lsl #24
    3580:	10000000 	andne	r0, r0, r0
    3584:	000008c9 	andeq	r0, r0, r9, asr #17
    3588:	0b350524 	bleq	d44a20 <__bss_end__+0xd39d68>
    358c:	0c000002 	stceq	0, cr0, [r0], {2}
    3590:	00000781 	andeq	r0, r0, r1, lsl #15
    3594:	00253705 	eoreq	r3, r5, r5, lsl #14
    3598:	0c000000 	stceq	0, cr0, [r0], {-0}
    359c:	00000a87 	andeq	r0, r0, r7, lsl #21
    35a0:	00253805 	eoreq	r3, r5, r5, lsl #16
    35a4:	0c040000 	stceq	0, cr0, [r4], {-0}
    35a8:	000007af 	andeq	r0, r0, pc, lsr #15
    35ac:	00253905 	eoreq	r3, r5, r5, lsl #18
    35b0:	0c080000 	stceq	0, cr0, [r8], {-0}
    35b4:	00000c58 	andeq	r0, r0, r8, asr ip
    35b8:	00253a05 	eoreq	r3, r5, r5, lsl #20
    35bc:	0c0c0000 	stceq	0, cr0, [ip], {-0}
    35c0:	00000987 	andeq	r0, r0, r7, lsl #19
    35c4:	00253b05 	eoreq	r3, r5, r5, lsl #22
    35c8:	0c100000 	ldceq	0, cr0, [r0], {-0}
    35cc:	0000095c 	andeq	r0, r0, ip, asr r9
    35d0:	00253c05 	eoreq	r3, r5, r5, lsl #24
    35d4:	0c140000 	ldceq	0, cr0, [r4], {-0}
    35d8:	00000b6d 	andeq	r0, r0, sp, ror #22
    35dc:	00253d05 	eoreq	r3, r5, r5, lsl #26
    35e0:	0c180000 	ldceq	0, cr0, [r8], {-0}
    35e4:	000009d9 	ldrdeq	r0, [r0], -r9
    35e8:	00253e05 	eoreq	r3, r5, r5, lsl #28
    35ec:	0c1c0000 	ldceq	0, cr0, [ip], {-0}
    35f0:	00000c1f 	andeq	r0, r0, pc, lsl ip
    35f4:	00253f05 	eoreq	r3, r5, r5, lsl #30
    35f8:	00200000 	eoreq	r0, r0, r0
    35fc:	0007be12 	andeq	fp, r7, r2, lsl lr
    3600:	05010800 	streq	r0, [r1, #-2048]	; 0x800
    3604:	00024b48 	andeq	r4, r2, r8, asr #22
    3608:	086a0c00 	stmdaeq	sl!, {sl, fp}^
    360c:	49050000 	stmdbmi	r5, {}	; <UNPREDICTABLE>
    3610:	0000024b 	andeq	r0, r0, fp, asr #4
    3614:	06fc0c00 	ldrbteq	r0, [ip], r0, lsl #24
    3618:	4a050000 	bmi	143620 <__bss_end__+0x138968>
    361c:	0000024b 	andeq	r0, r0, fp, asr #4
    3620:	0b131380 	bleq	4c8428 <__bss_end__+0x4bd770>
    3624:	4c050000 	stcmi	0, cr0, [r5], {-0}
    3628:	0000011e 	andeq	r0, r0, lr, lsl r1
    362c:	e3130100 	tst	r3, #0, 2
    3630:	05000007 	streq	r0, [r0, #-7]
    3634:	00011e4f 	andeq	r1, r1, pc, asr #28
    3638:	00010400 	andeq	r0, r1, r0, lsl #8
    363c:	00010a09 	andeq	r0, r1, r9, lsl #20
    3640:	00025b00 	andeq	r5, r2, r0, lsl #22
    3644:	00cc0a00 	sbceq	r0, ip, r0, lsl #20
    3648:	001f0000 	andseq	r0, pc, r0
    364c:	00099012 	andeq	r9, r9, r2, lsl r0
    3650:	05019000 	streq	r9, [r1, #-0]
    3654:	0002995b 	andeq	r9, r2, fp, asr r9
    3658:	0a180c00 	beq	606660 <__bss_end__+0x5fb9a8>
    365c:	5c050000 	stcpl	0, cr0, [r5], {-0}
    3660:	00000299 	muleq	r0, r9, r2
    3664:	0a300c00 	beq	c0666c <__bss_end__+0xbfb9b4>
    3668:	5d050000 	stcpl	0, cr0, [r5, #-0]
    366c:	00000025 	andeq	r0, r0, r5, lsr #32
    3670:	087e0c04 	ldmdaeq	lr!, {r2, sl, fp}^
    3674:	5f050000 	svcpl	0x00050000
    3678:	0000029f 	muleq	r0, pc, r2	; <UNPREDICTABLE>
    367c:	07be0c08 	ldreq	r0, [lr, r8, lsl #24]!
    3680:	60050000 	andvs	r0, r5, r0
    3684:	0000020b 	andeq	r0, r0, fp, lsl #4
    3688:	040e0088 	streq	r0, [lr], #-136	; 0x88
    368c:	0000025b 	andeq	r0, r0, fp, asr r2
    3690:	0002af09 	andeq	sl, r2, r9, lsl #30
    3694:	0002af00 	andeq	sl, r2, r0, lsl #30
    3698:	00cc0a00 	sbceq	r0, ip, r0, lsl #20
    369c:	001f0000 	andseq	r0, pc, r0
    36a0:	02b5040e 	adcseq	r0, r5, #234881024	; 0xe000000
    36a4:	10140000 	andsne	r0, r4, r0
    36a8:	000009e3 	andeq	r0, r0, r3, ror #19
    36ac:	db730508 	blle	1cc4ad4 <__bss_end__+0x1cb9e1c>
    36b0:	0c000002 	stceq	0, cr0, [r0], {2}
    36b4:	000007a4 	andeq	r0, r0, r4, lsr #15
    36b8:	02db7405 	sbcseq	r7, fp, #83886080	; 0x5000000
    36bc:	0c000000 	stceq	0, cr0, [r0], {-0}
    36c0:	00000708 	andeq	r0, r0, r8, lsl #14
    36c4:	00257505 	eoreq	r7, r5, r5, lsl #10
    36c8:	00040000 	andeq	r0, r4, r0
    36cc:	0054040e 	subseq	r0, r4, lr, lsl #8
    36d0:	02100000 	andseq	r0, r0, #0
    36d4:	6800000a 	stmdavs	r0, {r1, r3}
    36d8:	040bb305 	streq	fp, [fp], #-773	; 0x305
    36dc:	5f110000 	svcpl	0x00110000
    36e0:	b4050070 	strlt	r0, [r5], #-112	; 0x70
    36e4:	000002db 	ldrdeq	r0, [r0], -fp
    36e8:	725f1100 	subsvc	r1, pc, #0, 2
    36ec:	25b50500 	ldrcs	r0, [r5, #1280]!	; 0x500
    36f0:	04000000 	streq	r0, [r0], #-0
    36f4:	00775f11 	rsbseq	r5, r7, r1, lsl pc
    36f8:	0025b605 	eoreq	fp, r5, r5, lsl #12
    36fc:	0c080000 	stceq	0, cr0, [r8], {-0}
    3700:	000007dc 	ldrdeq	r0, [r0], -ip
    3704:	003fb705 	eorseq	fp, pc, r5, lsl #14
    3708:	0c0c0000 	stceq	0, cr0, [ip], {-0}
    370c:	000008ef 	andeq	r0, r0, pc, ror #17
    3710:	003fb805 	eorseq	fp, pc, r5, lsl #16
    3714:	110e0000 	mrsne	r0, (UNDEF: 14)
    3718:	0066625f 	rsbeq	r6, r6, pc, asr r2
    371c:	02b6b905 	adcseq	fp, r6, #81920	; 0x14000
    3720:	0c100000 	ldceq	0, cr0, [r0], {-0}
    3724:	0000074b 	andeq	r0, r0, fp, asr #14
    3728:	0025ba05 	eoreq	fp, r5, r5, lsl #20
    372c:	0c180000 	ldceq	0, cr0, [r8], {-0}
    3730:	000007cc 	andeq	r0, r0, ip, asr #15
    3734:	010ac105 	tsteq	sl, r5, lsl #2
    3738:	0c1c0000 	ldceq	0, cr0, [ip], {-0}
    373c:	00000c7f 	andeq	r0, r0, pc, ror ip
    3740:	0566c305 	strbeq	ip, [r6, #-773]!	; 0x305
    3744:	0c200000 	stceq	0, cr0, [r0], #-0
    3748:	00000c99 	muleq	r0, r9, ip
    374c:	0590c505 	ldreq	ip, [r0, #1285]	; 0x505
    3750:	0c240000 	stceq	0, cr0, [r4], #-0
    3754:	00000a74 	andeq	r0, r0, r4, ror sl
    3758:	05b4c805 	ldreq	ip, [r4, #2053]!	; 0x805
    375c:	0c280000 	stceq	0, cr0, [r8], #-0
    3760:	00000c39 	andeq	r0, r0, r9, lsr ip
    3764:	05cec905 	strbeq	ip, [lr, #2309]	; 0x905
    3768:	112c0000 	teqne	ip, r0
    376c:	0062755f 	rsbeq	r7, r2, pc, asr r5
    3770:	02b6cc05 	adcseq	ip, r6, #1280	; 0x500
    3774:	11300000 	teqne	r0, r0
    3778:	0070755f 	rsbseq	r7, r0, pc, asr r5
    377c:	02dbcd05 	sbcseq	ip, fp, #320	; 0x140
    3780:	11380000 	teqne	r8, r0
    3784:	0072755f 	rsbseq	r7, r2, pc, asr r5
    3788:	0025ce05 	eoreq	ip, r5, r5, lsl #28
    378c:	0c3c0000 	ldceq	0, cr0, [ip], #-0
    3790:	0000078f 	andeq	r0, r0, pc, lsl #15
    3794:	05d4d105 	ldrbeq	sp, [r4, #261]	; 0x105
    3798:	0c400000 	mareq	acc0, r0, r0
    379c:	00000be4 	andeq	r0, r0, r4, ror #23
    37a0:	05e4d205 	strbeq	sp, [r4, #517]!	; 0x205
    37a4:	11430000 	mrsne	r0, (UNDEF: 67)
    37a8:	00626c5f 	rsbeq	r6, r2, pc, asr ip
    37ac:	02b6d505 	adcseq	sp, r6, #20971520	; 0x1400000
    37b0:	0c440000 	mareq	acc0, r0, r4
    37b4:	000007f2 	strdeq	r0, [r0], -r2
    37b8:	0025d805 	eoreq	sp, r5, r5, lsl #16
    37bc:	0c4c0000 	mareq	acc0, r0, ip
    37c0:	00000966 	andeq	r0, r0, r6, ror #18
    37c4:	007bd905 	rsbseq	sp, fp, r5, lsl #18
    37c8:	0c500000 	mraeq	r0, r0, acc0
    37cc:	00000bcf 	andeq	r0, r0, pc, asr #23
    37d0:	0429dc05 	strteq	sp, [r9], #-3077	; 0xc05
    37d4:	0c540000 	mraeq	r0, r4, acc0
    37d8:	0000094e 	andeq	r0, r0, lr, asr #18
    37dc:	00ffe005 	rscseq	lr, pc, r5
    37e0:	0c580000 	mraeq	r0, r8, acc0
    37e4:	00000a0a 	andeq	r0, r0, sl, lsl #20
    37e8:	00f4e205 	rscseq	lr, r4, r5, lsl #4
    37ec:	0c5c0000 	mraeq	r0, ip, acc0
    37f0:	00000954 	andeq	r0, r0, r4, asr r9
    37f4:	0025e305 	eoreq	lr, r5, r5, lsl #6
    37f8:	00640000 	rsbeq	r0, r4, r0
    37fc:	00002515 	andeq	r2, r0, r5, lsl r5
    3800:	00042900 	andeq	r2, r4, r0, lsl #18
    3804:	04291600 	strteq	r1, [r9], #-1536	; 0x600
    3808:	0a160000 	beq	583810 <__bss_end__+0x578b58>
    380c:	16000001 	strne	r0, [r0], -r1
    3810:	0000010c 	andeq	r0, r0, ip, lsl #2
    3814:	00002516 	andeq	r2, r0, r6, lsl r5
    3818:	040e0000 	streq	r0, [lr], #-0
    381c:	00000434 	andeq	r0, r0, r4, lsr r4
    3820:	0004290f 	andeq	r2, r4, pc, lsl #18
    3824:	0a571700 	beq	15c942c <__bss_end__+0x15be774>
    3828:	04280000 	strteq	r0, [r8], #-0
    382c:	66023805 	strvs	r3, [r2], -r5, lsl #16
    3830:	18000005 	stmdane	r0, {r0, r2}
    3834:	000009d2 	ldrdeq	r0, [r0], -r2
    3838:	25023a05 	strcs	r3, [r2, #-2565]	; 0xa05
    383c:	00000000 	andeq	r0, r0, r0
    3840:	0007eb18 	andeq	lr, r7, r8, lsl fp
    3844:	023f0500 	eorseq	r0, pc, #0, 10
    3848:	0000063b 	andeq	r0, r0, fp, lsr r6
    384c:	08df1804 	ldmeq	pc, {r2, fp, ip}^	; <UNPREDICTABLE>
    3850:	3f050000 	svccc	0x00050000
    3854:	00063b02 	andeq	r3, r6, r2, lsl #22
    3858:	a0180800 	andsge	r0, r8, r0, lsl #16
    385c:	05000008 	streq	r0, [r0, #-8]
    3860:	063b023f 			; <UNDEFINED> instruction: 0x063b023f
    3864:	180c0000 	stmdane	ip, {}	; <UNPREDICTABLE>
    3868:	00000a2b 	andeq	r0, r0, fp, lsr #20
    386c:	25024105 	strcs	r4, [r2, #-261]	; 0x105
    3870:	10000000 	andne	r0, r0, r0
    3874:	00071618 	andeq	r1, r7, r8, lsl r6
    3878:	02420500 	subeq	r0, r2, #0, 10
    387c:	0000081d 	andeq	r0, r0, sp, lsl r8
    3880:	0b491814 	bleq	12498d8 <__bss_end__+0x123ec20>
    3884:	44050000 	strmi	r0, [r5], #-0
    3888:	00002502 	andeq	r2, r0, r2, lsl #10
    388c:	35183000 	ldrcc	r3, [r8, #-0]
    3890:	0500000a 	streq	r0, [r0, #-10]
    3894:	058a0245 	streq	r0, [sl, #581]	; 0x245
    3898:	18340000 	ldmdane	r4!, {}	; <UNPREDICTABLE>
    389c:	00000998 	muleq	r0, r8, r9
    38a0:	25024705 	strcs	r4, [r2, #-1797]	; 0x705
    38a4:	38000000 	stmdacc	r0, {}	; <UNPREDICTABLE>
    38a8:	000a4518 	andeq	r4, sl, r8, lsl r5
    38ac:	02490500 	subeq	r0, r9, #0, 10
    38b0:	00000838 	andeq	r0, r0, r8, lsr r8
    38b4:	092a183c 	stmdbeq	sl!, {r2, r3, r4, r5, fp, ip}
    38b8:	4c050000 	stcmi	0, cr0, [r5], {-0}
    38bc:	00017c02 	andeq	r7, r1, r2, lsl #24
    38c0:	bf184000 	svclt	0x00184000
    38c4:	05000008 	streq	r0, [r0, #-8]
    38c8:	0025024d 	eoreq	r0, r5, sp, asr #4
    38cc:	18440000 	stmdane	r4, {}^	; <UNPREDICTABLE>
    38d0:	00000c53 	andeq	r0, r0, r3, asr ip
    38d4:	7c024e05 	stcvc	14, cr4, [r2], {5}
    38d8:	48000001 	stmdami	r0, {r0}
    38dc:	0009af18 	andeq	sl, r9, r8, lsl pc
    38e0:	024f0500 	subeq	r0, pc, #0, 10
    38e4:	0000083e 	andeq	r0, r0, lr, lsr r8
    38e8:	08e7184c 	stmiaeq	r7!, {r2, r3, r6, fp, ip}^
    38ec:	52050000 	andpl	r0, r5, #0
    38f0:	00002502 	andeq	r2, r0, r2, lsl #10
    38f4:	0e185000 	cdpeq	0, 1, cr5, cr8, cr0, {0}
    38f8:	05000008 	streq	r0, [r0, #-8]
    38fc:	010c0253 	tsteq	ip, r3, asr r2
    3900:	18540000 	ldmdane	r4, {}^	; <UNPREDICTABLE>
    3904:	000009cb 	andeq	r0, r0, fp, asr #19
    3908:	fb027605 	blx	a1126 <__bss_end__+0x9646e>
    390c:	58000007 	stmdapl	r0, {r0, r1, r2}
    3910:	00099019 	andeq	r9, r9, r9, lsl r0
    3914:	027a0500 	rsbseq	r0, sl, #0, 10
    3918:	00000299 	muleq	r0, r9, r2
    391c:	fc190148 	ldc2	1, cr0, [r9], {72}	; 0x48
    3920:	05000008 	streq	r0, [r0, #-8]
    3924:	025b027b 	subseq	r0, fp, #-1342177273	; 0xb0000007
    3928:	014c0000 	mrseq	r0, (UNDEF: 76)
    392c:	000bb519 	andeq	fp, fp, r9, lsl r5
    3930:	027f0500 	rsbseq	r0, pc, #0, 10
    3934:	0000084f 	andeq	r0, r0, pc, asr #16
    3938:	d41902dc 	ldrle	r0, [r9], #-732	; 0x2dc
    393c:	05000007 	streq	r0, [r0, #-7]
    3940:	06000284 	streq	r0, [r0], -r4, lsl #5
    3944:	02e00000 	rsceq	r0, r0, #0
    3948:	0007b919 	andeq	fp, r7, r9, lsl r9
    394c:	02850500 	addeq	r0, r5, #0, 10
    3950:	0000085b 	andeq	r0, r0, fp, asr r8
    3954:	0e0002ec 	cdpeq	2, 0, cr0, cr0, cr12, {7}
    3958:	00040b04 	andeq	r0, r4, r4, lsl #22
    395c:	00251500 	eoreq	r1, r5, r0, lsl #10
    3960:	058a0000 	streq	r0, [sl]
    3964:	29160000 	ldmdbcs	r6, {}	; <UNPREDICTABLE>
    3968:	16000004 	strne	r0, [r0], -r4
    396c:	0000010a 	andeq	r0, r0, sl, lsl #2
    3970:	00058a16 	andeq	r8, r5, r6, lsl sl
    3974:	00251600 	eoreq	r1, r5, r0, lsl #12
    3978:	0e000000 	cdpeq	0, 0, cr0, cr0, cr0, {0}
    397c:	00011904 	andeq	r1, r1, r4, lsl #18
    3980:	6c040e00 	stcvs	14, cr0, [r4], {-0}
    3984:	15000005 	strne	r0, [r0, #-5]
    3988:	00000086 	andeq	r0, r0, r6, lsl #1
    398c:	000005b4 			; <UNDEFINED> instruction: 0x000005b4
    3990:	00042916 	andeq	r2, r4, r6, lsl r9
    3994:	010a1600 	tsteq	sl, r0, lsl #12
    3998:	86160000 	ldrhi	r0, [r6], -r0
    399c:	16000000 	strne	r0, [r0], -r0
    39a0:	00000025 	andeq	r0, r0, r5, lsr #32
    39a4:	96040e00 	strls	r0, [r4], -r0, lsl #28
    39a8:	15000005 	strne	r0, [r0, #-5]
    39ac:	00000025 	andeq	r0, r0, r5, lsr #32
    39b0:	000005ce 	andeq	r0, r0, lr, asr #11
    39b4:	00042916 	andeq	r2, r4, r6, lsl r9
    39b8:	010a1600 	tsteq	sl, r0, lsl #12
    39bc:	0e000000 	cdpeq	0, 0, cr0, cr0, cr0, {0}
    39c0:	0005ba04 	andeq	fp, r5, r4, lsl #20
    39c4:	00540900 	subseq	r0, r4, r0, lsl #18
    39c8:	05e40000 	strbeq	r0, [r4, #0]!
    39cc:	cc0a0000 	stcgt	0, cr0, [sl], {-0}
    39d0:	02000000 	andeq	r0, r0, #0
    39d4:	00540900 	subseq	r0, r4, r0, lsl #18
    39d8:	05f40000 	ldrbeq	r0, [r4, #0]!
    39dc:	cc0a0000 	stcgt	0, cr0, [sl], {-0}
    39e0:	00000000 	andeq	r0, r0, r0
    39e4:	09f00600 	ldmibeq	r0!, {r9, sl}^
    39e8:	1d050000 	stcne	0, cr0, [r5, #-0]
    39ec:	0002e101 	andeq	lr, r2, r1, lsl #2
    39f0:	0b771a00 	bleq	1dca1f8 <__bss_end__+0x1dbf540>
    39f4:	050c0000 	streq	r0, [ip, #-0]
    39f8:	06350121 	ldrteq	r0, [r5], -r1, lsr #2
    39fc:	18180000 	ldmdane	r8, {}	; <UNPREDICTABLE>
    3a00:	0500000a 	streq	r0, [r0, #-10]
    3a04:	06350123 	ldrteq	r0, [r5], -r3, lsr #2
    3a08:	18000000 	stmdane	r0, {}	; <UNPREDICTABLE>
    3a0c:	000008f5 	strdeq	r0, [r0], -r5
    3a10:	25012405 	strcs	r2, [r1, #-1029]	; 0x405
    3a14:	04000000 	streq	r0, [r0], #-0
    3a18:	0009ea18 	andeq	lr, r9, r8, lsl sl
    3a1c:	01250500 	teqeq	r5, r0, lsl #10
    3a20:	0000063b 	andeq	r0, r0, fp, lsr r6
    3a24:	040e0008 	streq	r0, [lr], #-8
    3a28:	00000600 	andeq	r0, r0, r0, lsl #12
    3a2c:	05f4040e 	ldrbeq	r0, [r4, #1038]!	; 0x40e
    3a30:	0e1a0000 	cdpeq	0, 1, cr0, cr10, cr0, {0}
    3a34:	0e000007 	cdpeq	0, 0, cr0, cr0, cr7, {0}
    3a38:	76013d05 	strvc	r3, [r1], -r5, lsl #26
    3a3c:	18000006 	stmdane	r0, {r1, r2}
    3a40:	00000a5e 	andeq	r0, r0, lr, asr sl
    3a44:	76013e05 	strvc	r3, [r1], -r5, lsl #28
    3a48:	00000006 	andeq	r0, r0, r6
    3a4c:	000a9818 	andeq	r9, sl, r8, lsl r8
    3a50:	013f0500 	teqeq	pc, r0, lsl #10
    3a54:	00000676 	andeq	r0, r0, r6, ror r6
    3a58:	0b1c1806 	bleq	709a78 <__bss_end__+0x6fedc0>
    3a5c:	40050000 	andmi	r0, r5, r0
    3a60:	00005b01 	andeq	r5, r0, r1, lsl #22
    3a64:	09000c00 	stmdbeq	r0, {sl, fp}
    3a68:	0000005b 	andeq	r0, r0, fp, asr r0
    3a6c:	00000686 	andeq	r0, r0, r6, lsl #13
    3a70:	0000cc0a 	andeq	ip, r0, sl, lsl #24
    3a74:	1b000200 	blne	427c <__code_start__-0x3d84>
    3a78:	025705d0 	subseq	r0, r7, #208, 10	; 0x34000000
    3a7c:	00000787 	andeq	r0, r0, r7, lsl #15
    3a80:	000b5b18 	andeq	r5, fp, r8, lsl fp
    3a84:	02590500 	subseq	r0, r9, #0, 10
    3a88:	0000002c 	andeq	r0, r0, ip, lsr #32
    3a8c:	0b061800 	bleq	189a94 <__bss_end__+0x17eddc>
    3a90:	5a050000 	bpl	143a98 <__bss_end__+0x138de0>
    3a94:	00010c02 	andeq	r0, r1, r2, lsl #24
    3a98:	11180400 	tstne	r8, r0, lsl #8
    3a9c:	05000009 	streq	r0, [r0, #-9]
    3aa0:	0787025b 			; <UNDEFINED> instruction: 0x0787025b
    3aa4:	18080000 	stmdane	r8, {}	; <UNPREDICTABLE>
    3aa8:	00000c2a 	andeq	r0, r0, sl, lsr #24
    3aac:	92025c05 	andls	r5, r2, #1280	; 0x500
    3ab0:	24000001 	strcs	r0, [r0], #-1
    3ab4:	0008b018 	andeq	fp, r8, r8, lsl r0
    3ab8:	025d0500 	subseq	r0, sp, #0, 10
    3abc:	00000025 	andeq	r0, r0, r5, lsr #32
    3ac0:	0a131848 	beq	4c9be8 <__bss_end__+0x4bef30>
    3ac4:	5e050000 	cdppl	0, 0, cr0, cr5, cr0, {0}
    3ac8:	00006902 	andeq	r6, r0, r2, lsl #18
    3acc:	40185000 	andsmi	r5, r8, r0
    3ad0:	0500000c 	streq	r0, [r0, #-12]
    3ad4:	0641025f 			; <UNDEFINED> instruction: 0x0641025f
    3ad8:	18580000 	ldmdane	r8, {}^	; <UNPREDICTABLE>
    3adc:	00000a1e 	andeq	r0, r0, lr, lsl sl
    3ae0:	f4026005 	vst4.8	{d6-d9}, [r2], r5
    3ae4:	68000000 	stmdavs	r0, {}	; <UNPREDICTABLE>
    3ae8:	000c4518 	andeq	r4, ip, r8, lsl r5
    3aec:	02610500 	rsbeq	r0, r1, #0, 10
    3af0:	000000f4 	strdeq	r0, [r0], -r4
    3af4:	07731870 			; <UNDEFINED> instruction: 0x07731870
    3af8:	62050000 	andvs	r0, r5, #0
    3afc:	0000f402 	andeq	pc, r0, r2, lsl #8
    3b00:	97187800 	ldrls	r7, [r8, -r0, lsl #16]
    3b04:	0500000b 	streq	r0, [r0, #-11]
    3b08:	07970263 	ldreq	r0, [r7, r3, ror #4]
    3b0c:	18800000 	stmne	r0, {}	; <UNPREDICTABLE>
    3b10:	00000905 	andeq	r0, r0, r5, lsl #18
    3b14:	a7026405 	strge	r6, [r2, -r5, lsl #8]
    3b18:	88000007 	stmdahi	r0, {r0, r1, r2}
    3b1c:	000b2918 	andeq	r2, fp, r8, lsl r9
    3b20:	02650500 	rsbeq	r0, r5, #0, 10
    3b24:	00000025 	andeq	r0, r0, r5, lsr #32
    3b28:	085c18a0 	ldmdaeq	ip, {r5, r7, fp, ip}^
    3b2c:	66050000 	strvs	r0, [r5], -r0
    3b30:	0000f402 	andeq	pc, r0, r2, lsl #8
    3b34:	6418a400 	ldrvs	sl, [r8], #-1024	; 0x400
    3b38:	05000007 	streq	r0, [r0, #-7]
    3b3c:	00f40267 	rscseq	r0, r4, r7, ror #4
    3b40:	18ac0000 	stmiane	ip!, {}	; <UNPREDICTABLE>
    3b44:	0000084b 	andeq	r0, r0, fp, asr #16
    3b48:	f4026805 	vst2.8	{d6-d7}, [r2], r5
    3b4c:	b4000000 	strlt	r0, [r0], #-0
    3b50:	00072b18 	andeq	r2, r7, r8, lsl fp
    3b54:	02690500 	rsbeq	r0, r9, #0, 10
    3b58:	000000f4 	strdeq	r0, [r0], -r4
    3b5c:	073a18bc 			; <UNDEFINED> instruction: 0x073a18bc
    3b60:	6a050000 	bvs	143b68 <__bss_end__+0x138eb0>
    3b64:	0000f402 	andeq	pc, r0, r2, lsl #8
    3b68:	d018c400 	andsle	ip, r8, r0, lsl #8
    3b6c:	05000009 	streq	r0, [r0, #-9]
    3b70:	0025026b 	eoreq	r0, r5, fp, ror #4
    3b74:	00cc0000 	sbceq	r0, ip, r0
    3b78:	00011209 	andeq	r1, r1, r9, lsl #4
    3b7c:	00079700 	andeq	r9, r7, r0, lsl #14
    3b80:	00cc0a00 	sbceq	r0, ip, r0, lsl #20
    3b84:	00190000 	andseq	r0, r9, r0
    3b88:	00011209 	andeq	r1, r1, r9, lsl #4
    3b8c:	0007a700 	andeq	sl, r7, r0, lsl #14
    3b90:	00cc0a00 	sbceq	r0, ip, r0, lsl #20
    3b94:	00070000 	andeq	r0, r7, r0
    3b98:	00011209 	andeq	r1, r1, r9, lsl #4
    3b9c:	0007b700 	andeq	fp, r7, r0, lsl #14
    3ba0:	00cc0a00 	sbceq	r0, ip, r0, lsl #20
    3ba4:	00170000 	andseq	r0, r7, r0
    3ba8:	7005f01b 	andvc	pc, r5, fp, lsl r0	; <UNPREDICTABLE>
    3bac:	0007db02 	andeq	sp, r7, r2, lsl #22
    3bb0:	09801800 	stmibeq	r0, {fp, ip}
    3bb4:	73050000 	movwvc	r0, #20480	; 0x5000
    3bb8:	0007db02 	andeq	sp, r7, r2, lsl #22
    3bbc:	8e180000 	cdphi	0, 1, cr0, cr8, cr0, {0}
    3bc0:	0500000b 	streq	r0, [r0, #-11]
    3bc4:	07eb0274 			; <UNDEFINED> instruction: 0x07eb0274
    3bc8:	00780000 	rsbseq	r0, r8, r0
    3bcc:	0002db09 	andeq	sp, r2, r9, lsl #22
    3bd0:	0007eb00 	andeq	lr, r7, r0, lsl #22
    3bd4:	00cc0a00 	sbceq	r0, ip, r0, lsl #20
    3bd8:	001d0000 	andseq	r0, sp, r0
    3bdc:	00002c09 	andeq	r2, r0, r9, lsl #24
    3be0:	0007fb00 	andeq	pc, r7, r0, lsl #22
    3be4:	00cc0a00 	sbceq	r0, ip, r0, lsl #20
    3be8:	001d0000 	andseq	r0, sp, r0
    3bec:	5505f01c 	strpl	pc, [r5, #-28]
    3bf0:	00081d02 	andeq	r1, r8, r2, lsl #26
    3bf4:	0a571d00 	beq	15caffc <__bss_end__+0x15c0344>
    3bf8:	6c050000 	stcvs	0, cr0, [r5], {-0}
    3bfc:	00068602 	andeq	r8, r6, r2, lsl #12
    3c00:	0bea1d00 	bleq	ffa8b008 <__bss_end__+0xffa80350>
    3c04:	75050000 	strvc	r0, [r5, #-0]
    3c08:	0007b702 	andeq	fp, r7, r2, lsl #14
    3c0c:	12090000 	andne	r0, r9, #0
    3c10:	2d000001 	stccs	0, cr0, [r0, #-4]
    3c14:	0a000008 	beq	3c3c <__code_start__-0x43c4>
    3c18:	000000cc 	andeq	r0, r0, ip, asr #1
    3c1c:	381e0018 	ldmdacc	lr, {r3, r4}
    3c20:	16000008 	strne	r0, [r0], -r8
    3c24:	00000429 	andeq	r0, r0, r9, lsr #8
    3c28:	2d040e00 	stccs	14, cr0, [r4, #-0]
    3c2c:	0e000008 	cdpeq	0, 0, cr0, cr0, cr8, {0}
    3c30:	00017c04 	andeq	r7, r1, r4, lsl #24
    3c34:	084f1e00 	stmdaeq	pc, {r9, sl, fp, ip}^	; <UNPREDICTABLE>
    3c38:	25160000 	ldrcs	r0, [r6, #-0]
    3c3c:	00000000 	andeq	r0, r0, r0
    3c40:	0855040e 	ldmdaeq	r5, {r1, r2, r3, sl}^
    3c44:	040e0000 	streq	r0, [lr], #-0
    3c48:	00000844 	andeq	r0, r0, r4, asr #16
    3c4c:	0005f409 	andeq	pc, r5, r9, lsl #8
    3c50:	00086b00 	andeq	r6, r8, r0, lsl #22
    3c54:	00cc0a00 	sbceq	r0, ip, r0, lsl #20
    3c58:	00020000 	andeq	r0, r2, r0
    3c5c:	000b3d1f 	andeq	r3, fp, pc, lsl sp
    3c60:	02fd0500 	rscseq	r0, sp, #0, 10
    3c64:	00000429 	andeq	r0, r0, r9, lsr #8
    3c68:	000b361f 	andeq	r3, fp, pc, lsl r6
    3c6c:	02fe0500 	rscseq	r0, lr, #0, 10
    3c70:	0000042f 	andeq	r0, r0, pc, lsr #8
    3c74:	00002515 	andeq	r2, r0, r5, lsl r5
    3c78:	00089200 	andeq	r9, r8, r0, lsl #4
    3c7c:	00251600 	eoreq	r1, r5, r0, lsl #12
    3c80:	20000000 	andcs	r0, r0, r0
    3c84:	00000540 	andeq	r0, r0, r0, asr #10
    3c88:	089d1d06 	ldmeq	sp, {r1, r2, r8, sl, fp, ip}
    3c8c:	040e0000 	streq	r0, [lr], #-0
    3c90:	00000883 	andeq	r0, r0, r3, lsl #17
    3c94:	00002515 	andeq	r2, r0, r5, lsl r5
    3c98:	0008b200 	andeq	fp, r8, r0, lsl #4
    3c9c:	058a1600 	streq	r1, [sl, #1536]	; 0x600
    3ca0:	20000000 	andcs	r0, r0, r0
    3ca4:	0000057d 	andeq	r0, r0, sp, ror r5
    3ca8:	08bd2206 	popeq	{r1, r2, r9, sp}
    3cac:	040e0000 	streq	r0, [lr], #-0
    3cb0:	000008a3 	andeq	r0, r0, r3, lsr #17
    3cb4:	00540121 	subseq	r0, r4, r1, lsr #2
    3cb8:	0c080000 	stceq	0, cr0, [r8], {-0}
    3cbc:	00000900 	andeq	r0, r0, r0, lsl #18
    3cc0:	00075422 	andeq	r5, r7, r2, lsr #8
    3cc4:	7d220000 	stcvc	0, cr0, [r2, #-0]
    3cc8:	0100000b 	tsteq	r0, fp
    3ccc:	000bd522 	andeq	sp, fp, r2, lsr #10
    3cd0:	95220400 	strls	r0, [r2, #-1024]!	; 0x400
    3cd4:	05000007 	streq	r0, [r0, #-7]
    3cd8:	00093822 	andeq	r3, r9, r2, lsr #16
    3cdc:	f2220600 	vmax.s32	d0, d2, d0
    3ce0:	0700000b 	streq	r0, [r0, -fp]
    3ce4:	000c0122 	andeq	r0, ip, r2, lsr #2
    3ce8:	10220300 	eorne	r0, r2, r0, lsl #6
    3cec:	0200000c 	andeq	r0, r0, #12
    3cf0:	08021000 	stmdaeq	r2, {ip}
    3cf4:	072c0000 	streq	r0, [ip, -r0]!
    3cf8:	00099006 	andeq	r9, r9, r6
    3cfc:	6f691100 	svcvs	0x00691100
    3d00:	33090700 	movwcc	r0, #38656	; 0x9700
    3d04:	00000000 	andeq	r0, r0, r0
    3d08:	72656911 	rsbvc	r6, r5, #278528	; 0x44000
    3d0c:	330a0700 	movwcc	r0, #42752	; 0xa700
    3d10:	04000000 	streq	r0, [r0], #-0
    3d14:	72696911 	rsbvc	r6, r9, #278528	; 0x44000
    3d18:	33110700 	tstcc	r1, #0, 14
    3d1c:	08000000 	stmdaeq	r0, {}	; <UNPREDICTABLE>
    3d20:	72636c11 	rsbvc	r6, r3, #4352	; 0x1100
    3d24:	33130700 	tstcc	r3, #0, 14
    3d28:	0c000000 	stceq	0, cr0, [r0], {-0}
    3d2c:	72636d11 	rsbvc	r6, r3, #1088	; 0x440
    3d30:	33140700 	tstcc	r4, #0, 14
    3d34:	10000000 	andne	r0, r0, r0
    3d38:	72736c11 	rsbsvc	r6, r3, #4352	; 0x1100
    3d3c:	33150700 	tstcc	r5, #0, 14
    3d40:	14000000 	strne	r0, [r0], #-0
    3d44:	72736d11 	rsbsvc	r6, r3, #1088	; 0x440
    3d48:	33160700 	tstcc	r6, #0, 14
    3d4c:	18000000 	stmdane	r0, {}	; <UNPREDICTABLE>
    3d50:	000a900c 	andeq	r9, sl, ip
    3d54:	33170700 	tstcc	r7, #0, 14
    3d58:	1c000000 	stcne	0, cr0, [r0], {-0}
    3d5c:	0007aa0c 	andeq	sl, r7, ip, lsl #20
    3d60:	331b0700 	tstcc	fp, #0, 14
    3d64:	20000000 	andcs	r0, r0, r0
    3d68:	00078a0c 	andeq	r8, r7, ip, lsl #20
    3d6c:	331d0700 	tstcc	sp, #0, 14
    3d70:	24000000 	strcs	r0, [r0], #-0
    3d74:	000a7a0c 	andeq	r7, sl, ip, lsl #20
    3d78:	331e0700 	tstcc	lr, #0, 14
    3d7c:	28000000 	stmdacs	r0, {}	; <UNPREDICTABLE>
    3d80:	08722300 	ldmdaeq	r2!, {r8, r9, sp}^
    3d84:	07010000 	streq	r0, [r1, -r0]
    3d88:	000009a5 	andeq	r0, r0, r5, lsr #19
    3d8c:	20215004 	eorcs	r5, r1, r4
    3d90:	0033040e 	eorseq	r0, r3, lr, lsl #8
    3d94:	9f0f0000 	svcls	0x000f0000
    3d98:	23000009 	movwcs	r0, #9
    3d9c:	000009aa 	andeq	r0, r0, sl, lsr #19
    3da0:	09bf2801 	ldmibeq	pc!, {r0, fp, sp}	; <UNPREDICTABLE>
    3da4:	50400000 	subpl	r0, r0, r0
    3da8:	040e2021 	streq	r2, [lr], #-33	; 0x21
    3dac:	00000900 	andeq	r0, r0, r0, lsl #18
    3db0:	0009b90f 	andeq	fp, r9, pc, lsl #18
    3db4:	0bc72400 	bleq	ff1ccdbc <__bss_end__+0xff1c2104>
    3db8:	a7010000 	strge	r0, [r1, -r0]
    3dbc:	00000025 	andeq	r0, r0, r5, lsr #32
    3dc0:	00009a34 	andeq	r9, r0, r4, lsr sl
    3dc4:	00000010 	andeq	r0, r0, r0, lsl r0
    3dc8:	09f09c01 	ldmibeq	r0!, {r0, sl, fp, ip, pc}^
    3dcc:	3c250000 	stccc	0, cr0, [r5], #-0
    3dd0:	9c00009a 	stcls	0, cr0, [r0], {154}	; 0x9a
    3dd4:	2500000c 	strcs	r0, [r0, #-12]
    3dd8:	00009a40 	andeq	r9, r0, r0, asr #20
    3ddc:	00000ad2 	ldrdeq	r0, [r0], -r2
    3de0:	05252600 	streq	r2, [r5, #-1536]!	; 0x600
    3de4:	9f010000 	svcls	0x00010000
    3de8:	00009a04 	andeq	r9, r0, r4, lsl #20
    3dec:	00000030 	andeq	r0, r0, r0, lsr r0
    3df0:	0a4e9c01 	beq	13aadfc <__bss_end__+0x13a0144>
    3df4:	63270000 	teqvs	r7, #0
    3df8:	2c9f0100 	ldfcss	f0, [pc], {0}
    3dfc:	fd000000 	stc2	0, cr0, [r0, #-0]
    3e00:	25000013 	strcs	r0, [r0, #-19]
    3e04:	00009a10 	andeq	r9, r0, r0, lsl sl
    3e08:	00000c9c 	muleq	r0, ip, ip
    3e0c:	009a1425 	addseq	r1, sl, r5, lsr #8
    3e10:	000aa500 	andeq	sl, sl, r0, lsl #10
    3e14:	9a282800 	bls	a0de1c <__bss_end__+0xa03164>
    3e18:	0ca70000 	stceq	0, cr0, [r7]
    3e1c:	0a440000 	beq	1103e24 <__bss_end__+0x10f916c>
    3e20:	01290000 	teqeq	r9, r0
    3e24:	400c0550 	andmi	r0, ip, r0, asr r5
    3e28:	29202150 	stmdbcs	r0!, {r4, r6, r8, sp}
    3e2c:	74055101 	strvc	r5, [r5], #-257	; 0x101
    3e30:	1aff0800 	bne	fffc5e38 <__bss_end__+0xfffbb180>
    3e34:	9a2c2500 	bls	b0d23c <__bss_end__+0xb02584>
    3e38:	0c9c0000 	ldceq	0, cr0, [ip], {0}
    3e3c:	24000000 	strcs	r0, [r0], #-0
    3e40:	000008d5 	ldrdeq	r0, [r0], -r5
    3e44:	00259701 	eoreq	r9, r5, r1, lsl #14
    3e48:	99d40000 	ldmibls	r4, {}^	; <UNPREDICTABLE>
    3e4c:	00300000 	eorseq	r0, r0, r0
    3e50:	9c010000 	stcls	0, cr0, [r1], {-0}
    3e54:	00000aa5 	andeq	r0, r0, r5, lsr #21
    3e58:	0100632a 	tsteq	r0, sl, lsr #6
    3e5c:	0000259b 	muleq	r0, fp, r5
    3e60:	25540100 	ldrbcs	r0, [r4, #-256]	; 0x100
    3e64:	000099dc 	ldrdeq	r9, [r0], -ip
    3e68:	00000c9c 	muleq	r0, ip, ip
    3e6c:	0099e025 	addseq	lr, r9, r5, lsr #32
    3e70:	000ad200 	andeq	sp, sl, r0, lsl #4
    3e74:	99f02800 	ldmibls	r0!, {fp, sp}^
    3e78:	0cb20000 	ldceq	0, cr0, [r2]
    3e7c:	0a9b0000 	beq	fe6c3e84 <__bss_end__+0xfe6b91cc>
    3e80:	01290000 	teqeq	r9, r0
    3e84:	400c0550 	andmi	r0, ip, r0, asr r5
    3e88:	00202150 	eoreq	r2, r0, r0, asr r1
    3e8c:	0099f825 	addseq	pc, r9, r5, lsr #16
    3e90:	000c9c00 	andeq	r9, ip, r0, lsl #24
    3e94:	89240000 	stmdbhi	r4!, {}	; <UNPREDICTABLE>
    3e98:	01000008 	tsteq	r0, r8
    3e9c:	00002588 	andeq	r2, r0, r8, lsl #11
    3ea0:	0099b400 	addseq	fp, r9, r0, lsl #8
    3ea4:	00002000 	andeq	r2, r0, r0
    3ea8:	d29c0100 	addsle	r0, ip, #0, 2
    3eac:	2b00000a 	blcs	3edc <__code_start__-0x4124>
    3eb0:	000099c0 	andeq	r9, r0, r0, asr #19
    3eb4:	00000cb2 			; <UNDEFINED> instruction: 0x00000cb2
    3eb8:	05500129 	ldrbeq	r0, [r0, #-297]	; 0x129
    3ebc:	2150640c 	cmpcs	r0, ip, lsl #8
    3ec0:	24000020 	strcs	r0, [r0], #-32
    3ec4:	00000ba7 	andeq	r0, r0, r7, lsr #23
    3ec8:	00257f01 	eoreq	r7, r5, r1, lsl #30
    3ecc:	999c0000 	ldmibls	ip, {}	; <UNPREDICTABLE>
    3ed0:	00180000 	andseq	r0, r8, r0
    3ed4:	9c010000 	stcls	0, cr0, [r1], {-0}
    3ed8:	00000aff 	strdeq	r0, [r0], -pc	; <UNPREDICTABLE>
    3edc:	0099a82b 	addseq	sl, r9, fp, lsr #16
    3ee0:	000cb200 	andeq	fp, ip, r0, lsl #4
    3ee4:	50012900 	andpl	r2, r1, r0, lsl #18
    3ee8:	50640c05 	rsbpl	r0, r4, r5, lsl #24
    3eec:	00002021 	andeq	r2, r0, r1, lsr #32
    3ef0:	00072126 	andeq	r2, r7, r6, lsr #2
    3ef4:	ec3a0100 	ldfs	f0, [sl], #-0
    3ef8:	b0000098 	mullt	r0, r8, r0
    3efc:	01000000 	mrseq	r0, (UNDEF: 0)
    3f00:	000c3d9c 	muleq	ip, ip, sp
    3f04:	98fc2800 	ldmls	ip!, {fp, sp}^
    3f08:	0cbd0000 	ldceq	0, cr0, [sp]
    3f0c:	0b2c0000 	bleq	b03f14 <__bss_end__+0xaf925c>
    3f10:	01290000 	teqeq	r9, r0
    3f14:	293e0150 	ldmdbcs	lr!, {r4, r6, r8}
    3f18:	32015101 	andcc	r5, r1, #1073741824	; 0x40000000
    3f1c:	99082800 	stmdbls	r8, {fp, sp}
    3f20:	0cbd0000 	ldceq	0, cr0, [sp]
    3f24:	0b440000 	bleq	1103f2c <__bss_end__+0x10f9274>
    3f28:	01290000 	teqeq	r9, r0
    3f2c:	293f0150 	ldmdbcs	pc!, {r4, r6, r8}	; <UNPREDICTABLE>
    3f30:	32015101 	andcc	r5, r1, #1073741824	; 0x40000000
    3f34:	990c2500 	stmdbls	ip, {r8, sl, sp}
    3f38:	0c9c0000 	ldceq	0, cr0, [ip], {0}
    3f3c:	18280000 	stmdane	r8!, {}	; <UNPREDICTABLE>
    3f40:	3d000099 	stccc	0, cr0, [r0, #-612]	; 0xfffffd9c
    3f44:	6900000c 	stmdbvs	r0, {r2, r3}
    3f48:	2900000b 	stmdbcs	r0, {r0, r1, r3}
    3f4c:	0c055001 	stceq	0, cr5, [r5], {1}
    3f50:	20215004 	eorcs	r5, r1, r4
    3f54:	01510129 	cmpeq	r1, r9, lsr #2
    3f58:	1c250031 	stcne	0, cr0, [r5], #-196	; 0xffffff3c
    3f5c:	9c000099 	stcls	0, cr0, [r0], {153}	; 0x99
    3f60:	2800000c 	stmdacs	r0, {r2, r3}
    3f64:	0000992c 	andeq	r9, r0, ip, lsr #18
    3f68:	00000ca7 	andeq	r0, r0, r7, lsr #25
    3f6c:	00000b8b 	andeq	r0, r0, fp, lsl #23
    3f70:	02500129 	subseq	r0, r0, #1073741834	; 0x4000000a
    3f74:	01290074 	teqeq	r9, r4, ror r0
    3f78:	00300151 	eorseq	r0, r0, r1, asr r1
    3f7c:	00993828 	addseq	r3, r9, r8, lsr #16
    3f80:	000ca700 	andeq	sl, ip, r0, lsl #14
    3f84:	000ba700 	andeq	sl, fp, r0, lsl #14
    3f88:	50012900 	andpl	r2, r1, r0, lsl #18
    3f8c:	50440c05 	subpl	r0, r4, r5, lsl #24
    3f90:	01292021 	teqeq	r9, r1, lsr #32
    3f94:	00300151 	eorseq	r0, r0, r1, asr r1
    3f98:	00994428 	addseq	r4, r9, r8, lsr #8
    3f9c:	000ca700 	andeq	sl, ip, r0, lsl #14
    3fa0:	000bc300 	andeq	ip, fp, r0, lsl #6
    3fa4:	50012900 	andpl	r2, r1, r0, lsl #18
    3fa8:	504c0c05 	subpl	r0, ip, r5, lsl #24
    3fac:	01292021 	teqeq	r9, r1, lsr #32
    3fb0:	00330151 	eorseq	r0, r3, r1, asr r1
    3fb4:	00995028 	addseq	r5, r9, r8, lsr #32
    3fb8:	000ca700 	andeq	sl, ip, r0, lsl #14
    3fbc:	000bdf00 	andeq	sp, fp, r0, lsl #30
    3fc0:	50012900 	andpl	r2, r1, r0, lsl #18
    3fc4:	50500c05 	subspl	r0, r0, r5, lsl #24
    3fc8:	01292021 	teqeq	r9, r1, lsr #32
    3fcc:	00300151 	eorseq	r0, r0, r1, asr r1
    3fd0:	00995c28 	addseq	r5, r9, r8, lsr #24
    3fd4:	000ca700 	andeq	sl, ip, r0, lsl #14
    3fd8:	000bfc00 	andeq	pc, fp, r0, lsl #24
    3fdc:	50012900 	andpl	r2, r1, r0, lsl #18
    3fe0:	50480c05 	subpl	r0, r8, r5, lsl #24
    3fe4:	01292021 	teqeq	r9, r1, lsr #32
    3fe8:	c7080251 	smlsdgt	r8, r1, r2, r0
    3fec:	99682800 	stmdbls	r8!, {fp, sp}^
    3ff0:	0ca70000 	stceq	0, cr0, [r7]
    3ff4:	0c1a0000 	ldceq	0, cr0, [sl], {-0}
    3ff8:	01290000 	teqeq	r9, r0
    3ffc:	680c0550 	stmdavs	ip, {r4, r6, r8, sl}
    4000:	29202150 	stmdbcs	r0!, {r4, r6, r8, sp}
    4004:	0a035101 	beq	d8410 <__bss_end__+0xcd758>
    4008:	2800010e 	stmdacs	r0, {r1, r2, r3, r8}
    400c:	00009974 	andeq	r9, r0, r4, ror r9
    4010:	00000ca7 	andeq	r0, r0, r7, lsr #25
    4014:	00000c33 	andeq	r0, r0, r3, lsr ip
    4018:	02500129 	subseq	r0, r0, #1073741834	; 0x4000000a
    401c:	01290074 	teqeq	r9, r4, ror r0
    4020:	00330151 	eorseq	r0, r3, r1, asr r1
    4024:	00997825 	addseq	r7, r9, r5, lsr #16
    4028:	000c9c00 	andeq	r9, ip, r0, lsl #24
    402c:	bf2c0000 	svclt	0x002c0000
    4030:	0100000b 	tsteq	r0, fp
    4034:	0098cc2d 	addseq	ip, r8, sp, lsr #24
    4038:	00002000 	andeq	r2, r0, r0
    403c:	959c0100 	ldrls	r0, [ip, #256]	; 0x100
    4040:	2d00000c 	stccs	0, cr0, [r0, #-48]	; 0xffffffd0
    4044:	000001d8 	ldrdeq	r0, [r0], -r8
    4048:	0c952d01 	ldceq	13, cr2, [r5], {1}
    404c:	141b0000 	ldrne	r0, [fp], #-0
    4050:	76270000 	strtvc	r0, [r7], -r0
    4054:	01006c61 	tsteq	r0, r1, ror #24
    4058:	00002c2d 	andeq	r2, r0, sp, lsr #24
    405c:	00143900 	andseq	r3, r4, r0, lsl #18
    4060:	98dc2800 	ldmls	ip, {fp, sp}^
    4064:	0cb20000 	ldceq	0, cr0, [r2]
    4068:	0c840000 	stceq	0, cr0, [r4], {0}
    406c:	01290000 	teqeq	r9, r0
    4070:	00740250 	rsbseq	r0, r4, r0, asr r2
    4074:	98e82b00 	stmials	r8!, {r8, r9, fp, sp}^
    4078:	0ca70000 	stceq	0, cr0, [r7]
    407c:	01290000 	teqeq	r9, r0
    4080:	00740250 	rsbseq	r0, r4, r0, asr r2
    4084:	040e0000 	streq	r0, [lr], #-0
    4088:	00000c9b 	muleq	r0, fp, ip
    408c:	091e2f2e 	ldmdbeq	lr, {r1, r2, r3, r5, r8, r9, sl, fp, sp}
    4090:	091e0000 	ldmdbeq	lr, {}	; <UNPREDICTABLE>
    4094:	89060000 	stmdbhi	r6, {}	; <UNPREDICTABLE>
    4098:	000a9e2f 	andeq	r9, sl, pc, lsr #28
    409c:	000a9e00 	andeq	r9, sl, r0, lsl #28
    40a0:	2f9c0600 	svccs	0x009c0600
    40a4:	00000ba1 	andeq	r0, r0, r1, lsr #23
    40a8:	00000ba1 	andeq	r0, r0, r1, lsr #23
    40ac:	6e2fa806 	cdpvs	8, 2, cr10, cr15, cr6, {0}
    40b0:	6e000009 	cdpvs	0, 0, cr0, cr0, cr9, {0}
    40b4:	08000009 	stmdaeq	r0, {r0, r3}
    40b8:	0b700019 	bleq	1c04124 <__bss_end__+0x1bf946c>
    40bc:	00040000 	andeq	r0, r4, r0
    40c0:	000011e9 	andeq	r1, r0, r9, ror #3
    40c4:	0aa40104 	beq	fe9044dc <__bss_end__+0xfe8f9824>
    40c8:	740c0000 	strvc	r0, [ip], #-0
    40cc:	1600000c 	strne	r0, [r0], -ip
    40d0:	44000008 	strmi	r0, [r0], #-8
    40d4:	2000009a 	mulcs	r0, sl, r0
    40d8:	72000001 	andvc	r0, r0, #1
    40dc:	02000010 	andeq	r0, r0, #16
    40e0:	6e690504 	cdpvs	5, 6, cr0, cr9, cr4, {0}
    40e4:	04030074 	streq	r0, [r3], #-116	; 0x74
    40e8:	00015a07 	andeq	r5, r1, r7, lsl #20
    40ec:	002c0400 	eoreq	r0, ip, r0, lsl #8
    40f0:	01030000 	mrseq	r0, (UNDEF: 3)
    40f4:	00012806 	andeq	r2, r1, r6, lsl #16
    40f8:	05020300 	streq	r0, [r2, #-768]	; 0x300
    40fc:	0000017e 	andeq	r0, r0, lr, ror r1
    4100:	75050403 	strvc	r0, [r5, #-1027]	; 0x403
    4104:	03000001 	movweq	r0, #1
    4108:	01700508 	cmneq	r0, r8, lsl #10
    410c:	01030000 	mrseq	r0, (UNDEF: 3)
    4110:	00012608 	andeq	r2, r1, r8, lsl #12
    4114:	07020300 	streq	r0, [r2, -r0, lsl #6]
    4118:	000000fc 	strdeq	r0, [r0], -ip
    411c:	55070403 	strpl	r0, [r7, #-1027]	; 0x403
    4120:	03000001 	movweq	r0, #1
    4124:	01500708 	cmpeq	r0, r8, lsl #14
    4128:	b9050000 	stmdblt	r5, {}	; <UNPREDICTABLE>
    412c:	02000009 	andeq	r0, r0, #9
    4130:	00002507 	andeq	r2, r0, r7, lsl #10
    4134:	09a30500 	stmibeq	r3!, {r8, sl}
    4138:	2c030000 	stccs	0, cr0, [r3], {-0}
    413c:	00000046 	andeq	r0, r0, r6, asr #32
    4140:	000a7f05 	andeq	r7, sl, r5, lsl #30
    4144:	46720300 	ldrbtmi	r0, [r2], -r0, lsl #6
    4148:	06000000 	streq	r0, [r0], -r0
    414c:	00000947 	andeq	r0, r0, r7, asr #18
    4150:	2c016504 	cfstr32cs	mvfx6, [r1], {4}
    4154:	07000000 	streq	r0, [r0, -r0]
    4158:	bca60304 	stclt	3, cr0, [r6], #16
    415c:	08000000 	stmdaeq	r0, {}	; <UNPREDICTABLE>
    4160:	00000932 	andeq	r0, r0, r2, lsr r9
    4164:	0091a803 	addseq	sl, r1, r3, lsl #16
    4168:	ce080000 	cdpgt	0, 0, cr0, cr8, cr0, {0}
    416c:	03000008 	movweq	r0, #8
    4170:	0000bca9 	andeq	fp, r0, r9, lsr #25
    4174:	54090000 	strpl	r0, [r9], #-0
    4178:	cc000000 	stcgt	0, cr0, [r0], {-0}
    417c:	0a000000 	beq	4184 <__code_start__-0x3e7c>
    4180:	000000cc 	andeq	r0, r0, ip, asr #1
    4184:	04030003 	streq	r0, [r3], #-3
    4188:	00016707 	andeq	r6, r1, r7, lsl #14
    418c:	03080b00 	movweq	r0, #35584	; 0x8b00
    4190:	0000f4a3 	andeq	pc, r0, r3, lsr #9
    4194:	0a640c00 	beq	190719c <__bss_end__+0x18fc4e4>
    4198:	a5030000 	strge	r0, [r3, #-0]
    419c:	00000025 	andeq	r0, r0, r5, lsr #32
    41a0:	0a6c0c00 	beq	1b071a8 <__bss_end__+0x1afc4f0>
    41a4:	aa030000 	bge	c41ac <__bss_end__+0xb94f4>
    41a8:	0000009d 	muleq	r0, sp, r0
    41ac:	f7050004 			; <UNDEFINED> instruction: 0xf7050004
    41b0:	03000009 	movweq	r0, #9
    41b4:	0000d3ab 	andeq	sp, r0, fp, lsr #7
    41b8:	08970500 	ldmeq	r7, {r8, sl}
    41bc:	af030000 	svcge	0x00030000
    41c0:	00000070 	andeq	r0, r0, r0, ror r0
    41c4:	040e040d 	streq	r0, [lr], #-1037	; 0x40d
    41c8:	00000112 	andeq	r0, r0, r2, lsl r1
    41cc:	2f080103 	svccs	0x00080103
    41d0:	04000001 	streq	r0, [r0], #-1
    41d4:	00000112 	andeq	r0, r0, r2, lsl r1
    41d8:	000b2105 	andeq	r2, fp, r5, lsl #2
    41dc:	62160500 	andsvs	r0, r6, #0, 10
    41e0:	0f000000 	svceq	0x00000000
    41e4:	000008a8 	andeq	r0, r0, r8, lsr #17
    41e8:	7c2d0518 	cfstr32vc	mvfx0, [sp], #-96	; 0xffffffa0
    41ec:	0c000001 	stceq	0, cr0, [r0], {1}
    41f0:	00000a18 	andeq	r0, r0, r8, lsl sl
    41f4:	017c2f05 	cmneq	ip, r5, lsl #30
    41f8:	10000000 	andne	r0, r0, r0
    41fc:	05006b5f 	streq	r6, [r0, #-2911]	; 0xb5f
    4200:	00002530 	andeq	r2, r0, r0, lsr r5
    4204:	4f0c0400 	svcmi	0x000c0400
    4208:	0500000a 	streq	r0, [r0, #-10]
    420c:	00002530 	andeq	r2, r0, r0, lsr r5
    4210:	830c0800 	movwhi	r0, #51200	; 0xc800
    4214:	05000008 	streq	r0, [r0, #-8]
    4218:	00002530 	andeq	r2, r0, r0, lsr r5
    421c:	680c0c00 	stmdavs	ip, {sl, fp}
    4220:	0500000b 	streq	r0, [r0, #-11]
    4224:	00002530 	andeq	r2, r0, r0, lsr r5
    4228:	5f101000 	svcpl	0x00101000
    422c:	31050078 	tstcc	r5, r8, ror r0
    4230:	00000182 	andeq	r0, r0, r2, lsl #3
    4234:	040e0014 	streq	r0, [lr], #-20
    4238:	00000129 	andeq	r0, r0, r9, lsr #2
    423c:	00011e09 	andeq	r1, r1, r9, lsl #28
    4240:	00019200 	andeq	r9, r1, r0, lsl #4
    4244:	00cc0a00 	sbceq	r0, ip, r0, lsl #20
    4248:	00000000 	andeq	r0, r0, r0
    424c:	0008c90f 	andeq	ip, r8, pc, lsl #18
    4250:	35052400 	strcc	r2, [r5, #-1024]	; 0x400
    4254:	0000020b 	andeq	r0, r0, fp, lsl #4
    4258:	0007810c 	andeq	r8, r7, ip, lsl #2
    425c:	25370500 	ldrcs	r0, [r7, #-1280]!	; 0x500
    4260:	00000000 	andeq	r0, r0, r0
    4264:	000a870c 	andeq	r8, sl, ip, lsl #14
    4268:	25380500 	ldrcs	r0, [r8, #-1280]!	; 0x500
    426c:	04000000 	streq	r0, [r0], #-0
    4270:	0007af0c 	andeq	sl, r7, ip, lsl #30
    4274:	25390500 	ldrcs	r0, [r9, #-1280]!	; 0x500
    4278:	08000000 	stmdaeq	r0, {}	; <UNPREDICTABLE>
    427c:	000c580c 	andeq	r5, ip, ip, lsl #16
    4280:	253a0500 	ldrcs	r0, [sl, #-1280]!	; 0x500
    4284:	0c000000 	stceq	0, cr0, [r0], {-0}
    4288:	0009870c 	andeq	r8, r9, ip, lsl #14
    428c:	253b0500 	ldrcs	r0, [fp, #-1280]!	; 0x500
    4290:	10000000 	andne	r0, r0, r0
    4294:	00095c0c 	andeq	r5, r9, ip, lsl #24
    4298:	253c0500 	ldrcs	r0, [ip, #-1280]!	; 0x500
    429c:	14000000 	strne	r0, [r0], #-0
    42a0:	000b6d0c 	andeq	r6, fp, ip, lsl #26
    42a4:	253d0500 	ldrcs	r0, [sp, #-1280]!	; 0x500
    42a8:	18000000 	stmdane	r0, {}	; <UNPREDICTABLE>
    42ac:	0009d90c 	andeq	sp, r9, ip, lsl #18
    42b0:	253e0500 	ldrcs	r0, [lr, #-1280]!	; 0x500
    42b4:	1c000000 	stcne	0, cr0, [r0], {-0}
    42b8:	000c1f0c 	andeq	r1, ip, ip, lsl #30
    42bc:	253f0500 	ldrcs	r0, [pc, #-1280]!	; 3dc4 <__code_start__-0x423c>
    42c0:	20000000 	andcs	r0, r0, r0
    42c4:	07be1100 	ldreq	r1, [lr, r0, lsl #2]!
    42c8:	01080000 	mrseq	r0, (UNDEF: 8)
    42cc:	024b4805 	subeq	r4, fp, #327680	; 0x50000
    42d0:	6a0c0000 	bvs	3042d8 <__bss_end__+0x2f9620>
    42d4:	05000008 	streq	r0, [r0, #-8]
    42d8:	00024b49 	andeq	r4, r2, r9, asr #22
    42dc:	fc0c0000 	stc2	0, cr0, [ip], {-0}
    42e0:	05000006 	streq	r0, [r0, #-6]
    42e4:	00024b4a 	andeq	r4, r2, sl, asr #22
    42e8:	13128000 	tstne	r2, #0
    42ec:	0500000b 	streq	r0, [r0, #-11]
    42f0:	00011e4c 	andeq	r1, r1, ip, asr #28
    42f4:	12010000 	andne	r0, r1, #0
    42f8:	000007e3 	andeq	r0, r0, r3, ror #15
    42fc:	011e4f05 	tsteq	lr, r5, lsl #30
    4300:	01040000 	mrseq	r0, (UNDEF: 4)
    4304:	010a0900 	tsteq	sl, r0, lsl #18
    4308:	025b0000 	subseq	r0, fp, #0
    430c:	cc0a0000 	stcgt	0, cr0, [sl], {-0}
    4310:	1f000000 	svcne	0x00000000
    4314:	09901100 	ldmibeq	r0, {r8, ip}
    4318:	01900000 	orrseq	r0, r0, r0
    431c:	02995b05 	addseq	r5, r9, #5120	; 0x1400
    4320:	180c0000 	stmdane	ip, {}	; <UNPREDICTABLE>
    4324:	0500000a 	streq	r0, [r0, #-10]
    4328:	0002995c 	andeq	r9, r2, ip, asr r9
    432c:	300c0000 	andcc	r0, ip, r0
    4330:	0500000a 	streq	r0, [r0, #-10]
    4334:	0000255d 	andeq	r2, r0, sp, asr r5
    4338:	7e0c0400 	cfcpysvc	mvf0, mvf12
    433c:	05000008 	streq	r0, [r0, #-8]
    4340:	00029f5f 	andeq	r9, r2, pc, asr pc
    4344:	be0c0800 	cdplt	8, 0, cr0, cr12, cr0, {0}
    4348:	05000007 	streq	r0, [r0, #-7]
    434c:	00020b60 	andeq	r0, r2, r0, ror #22
    4350:	0e008800 	cdpeq	8, 0, cr8, cr0, cr0, {0}
    4354:	00025b04 	andeq	r5, r2, r4, lsl #22
    4358:	02af0900 	adceq	r0, pc, #0, 18
    435c:	02af0000 	adceq	r0, pc, #0
    4360:	cc0a0000 	stcgt	0, cr0, [sl], {-0}
    4364:	1f000000 	svcne	0x00000000
    4368:	b5040e00 	strlt	r0, [r4, #-3584]	; 0xe00
    436c:	13000002 	movwne	r0, #2
    4370:	0009e30f 	andeq	lr, r9, pc, lsl #6
    4374:	73050800 	movwvc	r0, #22528	; 0x5800
    4378:	000002db 	ldrdeq	r0, [r0], -fp
    437c:	0007a40c 	andeq	sl, r7, ip, lsl #8
    4380:	db740500 	blle	1d05788 <__bss_end__+0x1cfaad0>
    4384:	00000002 	andeq	r0, r0, r2
    4388:	0007080c 	andeq	r0, r7, ip, lsl #16
    438c:	25750500 	ldrbcs	r0, [r5, #-1280]!	; 0x500
    4390:	04000000 	streq	r0, [r0], #-0
    4394:	54040e00 	strpl	r0, [r4], #-3584	; 0xe00
    4398:	0f000000 	svceq	0x00000000
    439c:	00000a02 	andeq	r0, r0, r2, lsl #20
    43a0:	0bb30568 	bleq	fecc5948 <__bss_end__+0xfecbac90>
    43a4:	10000004 	andne	r0, r0, r4
    43a8:	0500705f 	streq	r7, [r0, #-95]	; 0x5f
    43ac:	0002dbb4 			; <UNDEFINED> instruction: 0x0002dbb4
    43b0:	5f100000 	svcpl	0x00100000
    43b4:	b5050072 	strlt	r0, [r5, #-114]	; 0x72
    43b8:	00000025 	andeq	r0, r0, r5, lsr #32
    43bc:	775f1004 	ldrbvc	r1, [pc, -r4]
    43c0:	25b60500 	ldrcs	r0, [r6, #1280]!	; 0x500
    43c4:	08000000 	stmdaeq	r0, {}	; <UNPREDICTABLE>
    43c8:	0007dc0c 	andeq	sp, r7, ip, lsl #24
    43cc:	3fb70500 	svccc	0x00b70500
    43d0:	0c000000 	stceq	0, cr0, [r0], {-0}
    43d4:	0008ef0c 	andeq	lr, r8, ip, lsl #30
    43d8:	3fb80500 	svccc	0x00b80500
    43dc:	0e000000 	cdpeq	0, 0, cr0, cr0, cr0, {0}
    43e0:	66625f10 	uqadd16vs	r5, r2, r0
    43e4:	b6b90500 	ldrtlt	r0, [r9], r0, lsl #10
    43e8:	10000002 	andne	r0, r0, r2
    43ec:	00074b0c 	andeq	r4, r7, ip, lsl #22
    43f0:	25ba0500 	ldrcs	r0, [sl, #1280]!	; 0x500
    43f4:	18000000 	stmdane	r0, {}	; <UNPREDICTABLE>
    43f8:	0007cc0c 	andeq	ip, r7, ip, lsl #24
    43fc:	0ac10500 	beq	ff045804 <__bss_end__+0xff03ab4c>
    4400:	1c000001 	stcne	0, cr0, [r0], {1}
    4404:	000c7f0c 	andeq	r7, ip, ip, lsl #30
    4408:	66c30500 	strbvs	r0, [r3], r0, lsl #10
    440c:	20000005 	andcs	r0, r0, r5
    4410:	000c990c 	andeq	r9, ip, ip, lsl #18
    4414:	90c50500 	sbcls	r0, r5, r0, lsl #10
    4418:	24000005 	strcs	r0, [r0], #-5
    441c:	000a740c 	andeq	r7, sl, ip, lsl #8
    4420:	b4c80500 	strblt	r0, [r8], #1280	; 0x500
    4424:	28000005 	stmdacs	r0, {r0, r2}
    4428:	000c390c 	andeq	r3, ip, ip, lsl #18
    442c:	cec90500 	cdpgt	5, 12, cr0, cr9, cr0, {0}
    4430:	2c000005 	stccs	0, cr0, [r0], {5}
    4434:	62755f10 	rsbsvs	r5, r5, #16, 30	; 0x40
    4438:	b6cc0500 	strblt	r0, [ip], r0, lsl #10
    443c:	30000002 	andcc	r0, r0, r2
    4440:	70755f10 	rsbsvc	r5, r5, r0, lsl pc
    4444:	dbcd0500 	blle	ff34584c <__bss_end__+0xff33ab94>
    4448:	38000002 	stmdacc	r0, {r1}
    444c:	72755f10 	rsbsvc	r5, r5, #16, 30	; 0x40
    4450:	25ce0500 	strbcs	r0, [lr, #1280]	; 0x500
    4454:	3c000000 	stccc	0, cr0, [r0], {-0}
    4458:	00078f0c 	andeq	r8, r7, ip, lsl #30
    445c:	d4d10500 	ldrble	r0, [r1], #1280	; 0x500
    4460:	40000005 	andmi	r0, r0, r5
    4464:	000be40c 	andeq	lr, fp, ip, lsl #8
    4468:	e4d20500 	ldrb	r0, [r2], #1280	; 0x500
    446c:	43000005 	movwmi	r0, #5
    4470:	626c5f10 	rsbvs	r5, ip, #16, 30	; 0x40
    4474:	b6d50500 	ldrblt	r0, [r5], r0, lsl #10
    4478:	44000002 	strmi	r0, [r0], #-2
    447c:	0007f20c 	andeq	pc, r7, ip, lsl #4
    4480:	25d80500 	ldrbcs	r0, [r8, #1280]	; 0x500
    4484:	4c000000 	stcmi	0, cr0, [r0], {-0}
    4488:	0009660c 	andeq	r6, r9, ip, lsl #12
    448c:	7bd90500 	blvc	ff645894 <__bss_end__+0xff63abdc>
    4490:	50000000 	andpl	r0, r0, r0
    4494:	000bcf0c 	andeq	ip, fp, ip, lsl #30
    4498:	29dc0500 	ldmibcs	ip, {r8, sl}^
    449c:	54000004 	strpl	r0, [r0], #-4
    44a0:	00094e0c 	andeq	r4, r9, ip, lsl #28
    44a4:	ffe00500 			; <UNDEFINED> instruction: 0xffe00500
    44a8:	58000000 	stmdapl	r0, {}	; <UNPREDICTABLE>
    44ac:	000a0a0c 	andeq	r0, sl, ip, lsl #20
    44b0:	f4e20500 	vld2.16	{d16[0],d17[0]}, [r2], r0
    44b4:	5c000000 	stcpl	0, cr0, [r0], {-0}
    44b8:	0009540c 	andeq	r5, r9, ip, lsl #8
    44bc:	25e30500 	strbcs	r0, [r3, #1280]!	; 0x500
    44c0:	64000000 	strvs	r0, [r0], #-0
    44c4:	00251400 	eoreq	r1, r5, r0, lsl #8
    44c8:	04290000 	strteq	r0, [r9], #-0
    44cc:	29150000 	ldmdbcs	r5, {}	; <UNPREDICTABLE>
    44d0:	15000004 	strne	r0, [r0, #-4]
    44d4:	0000010a 	andeq	r0, r0, sl, lsl #2
    44d8:	00010c15 	andeq	r0, r1, r5, lsl ip
    44dc:	00251500 	eoreq	r1, r5, r0, lsl #10
    44e0:	0e000000 	cdpeq	0, 0, cr0, cr0, cr0, {0}
    44e4:	00043404 	andeq	r3, r4, r4, lsl #8
    44e8:	04290400 	strteq	r0, [r9], #-1024	; 0x400
    44ec:	57160000 	ldrpl	r0, [r6, -r0]
    44f0:	2800000a 	stmdacs	r0, {r1, r3}
    44f4:	02380504 	eorseq	r0, r8, #4, 10	; 0x1000000
    44f8:	00000566 	andeq	r0, r0, r6, ror #10
    44fc:	0009d217 	andeq	sp, r9, r7, lsl r2
    4500:	023a0500 	eorseq	r0, sl, #0, 10
    4504:	00000025 	andeq	r0, r0, r5, lsr #32
    4508:	07eb1700 	strbeq	r1, [fp, r0, lsl #14]!
    450c:	3f050000 	svccc	0x00050000
    4510:	00063b02 	andeq	r3, r6, r2, lsl #22
    4514:	df170400 	svcle	0x00170400
    4518:	05000008 	streq	r0, [r0, #-8]
    451c:	063b023f 			; <UNDEFINED> instruction: 0x063b023f
    4520:	17080000 	strne	r0, [r8, -r0]
    4524:	000008a0 	andeq	r0, r0, r0, lsr #17
    4528:	3b023f05 	blcc	94144 <__bss_end__+0x8948c>
    452c:	0c000006 	stceq	0, cr0, [r0], {6}
    4530:	000a2b17 	andeq	r2, sl, r7, lsl fp
    4534:	02410500 	subeq	r0, r1, #0, 10
    4538:	00000025 	andeq	r0, r0, r5, lsr #32
    453c:	07161710 			; <UNDEFINED> instruction: 0x07161710
    4540:	42050000 	andmi	r0, r5, #0
    4544:	00081d02 	andeq	r1, r8, r2, lsl #26
    4548:	49171400 	ldmdbmi	r7, {sl, ip}
    454c:	0500000b 	streq	r0, [r0, #-11]
    4550:	00250244 	eoreq	r0, r5, r4, asr #4
    4554:	17300000 	ldrne	r0, [r0, -r0]!
    4558:	00000a35 	andeq	r0, r0, r5, lsr sl
    455c:	8a024505 	bhi	95978 <__bss_end__+0x8acc0>
    4560:	34000005 	strcc	r0, [r0], #-5
    4564:	00099817 	andeq	r9, r9, r7, lsl r8
    4568:	02470500 	subeq	r0, r7, #0, 10
    456c:	00000025 	andeq	r0, r0, r5, lsr #32
    4570:	0a451738 	beq	114a258 <__bss_end__+0x113f5a0>
    4574:	49050000 	stmdbmi	r5, {}	; <UNPREDICTABLE>
    4578:	00083802 	andeq	r3, r8, r2, lsl #16
    457c:	2a173c00 	bcs	5d3584 <__bss_end__+0x5c88cc>
    4580:	05000009 	streq	r0, [r0, #-9]
    4584:	017c024c 	cmneq	ip, ip, asr #4
    4588:	17400000 	strbne	r0, [r0, -r0]
    458c:	000008bf 			; <UNDEFINED> instruction: 0x000008bf
    4590:	25024d05 	strcs	r4, [r2, #-3333]	; 0xd05
    4594:	44000000 	strmi	r0, [r0], #-0
    4598:	000c5317 	andeq	r5, ip, r7, lsl r3
    459c:	024e0500 	subeq	r0, lr, #0, 10
    45a0:	0000017c 	andeq	r0, r0, ip, ror r1
    45a4:	09af1748 	stmibeq	pc!, {r3, r6, r8, r9, sl, ip}	; <UNPREDICTABLE>
    45a8:	4f050000 	svcmi	0x00050000
    45ac:	00083e02 	andeq	r3, r8, r2, lsl #28
    45b0:	e7174c00 	ldr	r4, [r7, -r0, lsl #24]
    45b4:	05000008 	streq	r0, [r0, #-8]
    45b8:	00250252 	eoreq	r0, r5, r2, asr r2
    45bc:	17500000 	ldrbne	r0, [r0, -r0]
    45c0:	0000080e 	andeq	r0, r0, lr, lsl #16
    45c4:	0c025305 	stceq	3, cr5, [r2], {5}
    45c8:	54000001 	strpl	r0, [r0], #-1
    45cc:	0009cb17 	andeq	ip, r9, r7, lsl fp
    45d0:	02760500 	rsbseq	r0, r6, #0, 10
    45d4:	000007fb 	strdeq	r0, [r0], -fp
    45d8:	09901858 	ldmibeq	r0, {r3, r4, r6, fp, ip}
    45dc:	7a050000 	bvc	1445e4 <__bss_end__+0x13992c>
    45e0:	00029902 	andeq	r9, r2, r2, lsl #18
    45e4:	18014800 	stmdane	r1, {fp, lr}
    45e8:	000008fc 	strdeq	r0, [r0], -ip
    45ec:	5b027b05 	blpl	a3208 <__bss_end__+0x98550>
    45f0:	4c000002 	stcmi	0, cr0, [r0], {2}
    45f4:	0bb51801 	bleq	fed4a600 <__bss_end__+0xfed3f948>
    45f8:	7f050000 	svcvc	0x00050000
    45fc:	00084f02 	andeq	r4, r8, r2, lsl #30
    4600:	1802dc00 	stmdane	r2, {sl, fp, ip, lr, pc}
    4604:	000007d4 	ldrdeq	r0, [r0], -r4
    4608:	00028405 	andeq	r8, r2, r5, lsl #8
    460c:	e0000006 	and	r0, r0, r6
    4610:	07b91802 	ldreq	r1, [r9, r2, lsl #16]!
    4614:	85050000 	strhi	r0, [r5, #-0]
    4618:	00085b02 	andeq	r5, r8, r2, lsl #22
    461c:	0002ec00 	andeq	lr, r2, r0, lsl #24
    4620:	040b040e 	streq	r0, [fp], #-1038	; 0x40e
    4624:	25140000 	ldrcs	r0, [r4, #-0]
    4628:	8a000000 	bhi	4630 <__code_start__-0x39d0>
    462c:	15000005 	strne	r0, [r0, #-5]
    4630:	00000429 	andeq	r0, r0, r9, lsr #8
    4634:	00010a15 	andeq	r0, r1, r5, lsl sl
    4638:	058a1500 	streq	r1, [sl, #1280]	; 0x500
    463c:	25150000 	ldrcs	r0, [r5, #-0]
    4640:	00000000 	andeq	r0, r0, r0
    4644:	0119040e 	tsteq	r9, lr, lsl #8
    4648:	040e0000 	streq	r0, [lr], #-0
    464c:	0000056c 	andeq	r0, r0, ip, ror #10
    4650:	00008614 	andeq	r8, r0, r4, lsl r6
    4654:	0005b400 	andeq	fp, r5, r0, lsl #8
    4658:	04291500 	strteq	r1, [r9], #-1280	; 0x500
    465c:	0a150000 	beq	544664 <__bss_end__+0x5399ac>
    4660:	15000001 	strne	r0, [r0, #-1]
    4664:	00000086 	andeq	r0, r0, r6, lsl #1
    4668:	00002515 	andeq	r2, r0, r5, lsl r5
    466c:	040e0000 	streq	r0, [lr], #-0
    4670:	00000596 	muleq	r0, r6, r5
    4674:	00002514 	andeq	r2, r0, r4, lsl r5
    4678:	0005ce00 	andeq	ip, r5, r0, lsl #28
    467c:	04291500 	strteq	r1, [r9], #-1280	; 0x500
    4680:	0a150000 	beq	544688 <__bss_end__+0x5399d0>
    4684:	00000001 	andeq	r0, r0, r1
    4688:	05ba040e 	ldreq	r0, [sl, #1038]!	; 0x40e
    468c:	54090000 	strpl	r0, [r9], #-0
    4690:	e4000000 	str	r0, [r0], #-0
    4694:	0a000005 	beq	46b0 <__code_start__-0x3950>
    4698:	000000cc 	andeq	r0, r0, ip, asr #1
    469c:	54090002 	strpl	r0, [r9], #-2
    46a0:	f4000000 	vst4.8	{d0-d3}, [r0], r0
    46a4:	0a000005 	beq	46c0 <__code_start__-0x3940>
    46a8:	000000cc 	andeq	r0, r0, ip, asr #1
    46ac:	f0060000 			; <UNDEFINED> instruction: 0xf0060000
    46b0:	05000009 	streq	r0, [r0, #-9]
    46b4:	02e1011d 	rsceq	r0, r1, #1073741831	; 0x40000007
    46b8:	77190000 	ldrvc	r0, [r9, -r0]
    46bc:	0c00000b 	stceq	0, cr0, [r0], {11}
    46c0:	35012105 	strcc	r2, [r1, #-261]	; 0x105
    46c4:	17000006 	strne	r0, [r0, -r6]
    46c8:	00000a18 	andeq	r0, r0, r8, lsl sl
    46cc:	35012305 	strcc	r2, [r1, #-773]	; 0x305
    46d0:	00000006 	andeq	r0, r0, r6
    46d4:	0008f517 	andeq	pc, r8, r7, lsl r5	; <UNPREDICTABLE>
    46d8:	01240500 	teqeq	r4, r0, lsl #10
    46dc:	00000025 	andeq	r0, r0, r5, lsr #32
    46e0:	09ea1704 	stmibeq	sl!, {r2, r8, r9, sl, ip}^
    46e4:	25050000 	strcs	r0, [r5, #-0]
    46e8:	00063b01 	andeq	r3, r6, r1, lsl #22
    46ec:	0e000800 	cdpeq	8, 0, cr0, cr0, cr0, {0}
    46f0:	00060004 	andeq	r0, r6, r4
    46f4:	f4040e00 			; <UNDEFINED> instruction: 0xf4040e00
    46f8:	19000005 	stmdbne	r0, {r0, r2}
    46fc:	0000070e 	andeq	r0, r0, lr, lsl #14
    4700:	013d050e 	teqeq	sp, lr, lsl #10
    4704:	00000676 	andeq	r0, r0, r6, ror r6
    4708:	000a5e17 	andeq	r5, sl, r7, lsl lr
    470c:	013e0500 	teqeq	lr, r0, lsl #10
    4710:	00000676 	andeq	r0, r0, r6, ror r6
    4714:	0a981700 	beq	fe60a31c <__bss_end__+0xfe5ff664>
    4718:	3f050000 	svccc	0x00050000
    471c:	00067601 	andeq	r7, r6, r1, lsl #12
    4720:	1c170600 	ldcne	6, cr0, [r7], {-0}
    4724:	0500000b 	streq	r0, [r0, #-11]
    4728:	005b0140 	subseq	r0, fp, r0, asr #2
    472c:	000c0000 	andeq	r0, ip, r0
    4730:	00005b09 	andeq	r5, r0, r9, lsl #22
    4734:	00068600 	andeq	r8, r6, r0, lsl #12
    4738:	00cc0a00 	sbceq	r0, ip, r0, lsl #20
    473c:	00020000 	andeq	r0, r2, r0
    4740:	5705d01a 	smladpl	r5, sl, r0, sp
    4744:	00078702 	andeq	r8, r7, r2, lsl #14
    4748:	0b5b1700 	bleq	16ca350 <__bss_end__+0x16bf698>
    474c:	59050000 	stmdbpl	r5, {}	; <UNPREDICTABLE>
    4750:	00002c02 	andeq	r2, r0, r2, lsl #24
    4754:	06170000 	ldreq	r0, [r7], -r0
    4758:	0500000b 	streq	r0, [r0, #-11]
    475c:	010c025a 	tsteq	ip, sl, asr r2
    4760:	17040000 	strne	r0, [r4, -r0]
    4764:	00000911 	andeq	r0, r0, r1, lsl r9
    4768:	87025b05 	strhi	r5, [r2, -r5, lsl #22]
    476c:	08000007 	stmdaeq	r0, {r0, r1, r2}
    4770:	000c2a17 	andeq	r2, ip, r7, lsl sl
    4774:	025c0500 	subseq	r0, ip, #0, 10
    4778:	00000192 	muleq	r0, r2, r1
    477c:	08b01724 	ldmeq	r0!, {r2, r5, r8, r9, sl, ip}
    4780:	5d050000 	stcpl	0, cr0, [r5, #-0]
    4784:	00002502 	andeq	r2, r0, r2, lsl #10
    4788:	13174800 	tstne	r7, #0, 16
    478c:	0500000a 	streq	r0, [r0, #-10]
    4790:	0069025e 	rsbeq	r0, r9, lr, asr r2
    4794:	17500000 	ldrbne	r0, [r0, -r0]
    4798:	00000c40 	andeq	r0, r0, r0, asr #24
    479c:	41025f05 	tstmi	r2, r5, lsl #30
    47a0:	58000006 	stmdapl	r0, {r1, r2}
    47a4:	000a1e17 	andeq	r1, sl, r7, lsl lr
    47a8:	02600500 	rsbeq	r0, r0, #0, 10
    47ac:	000000f4 	strdeq	r0, [r0], -r4
    47b0:	0c451768 	mcrreq	7, 6, r1, r5, cr8
    47b4:	61050000 	mrsvs	r0, (UNDEF: 5)
    47b8:	0000f402 	andeq	pc, r0, r2, lsl #8
    47bc:	73177000 	tstvc	r7, #0
    47c0:	05000007 	streq	r0, [r0, #-7]
    47c4:	00f40262 	rscseq	r0, r4, r2, ror #4
    47c8:	17780000 	ldrbne	r0, [r8, -r0]!
    47cc:	00000b97 	muleq	r0, r7, fp
    47d0:	97026305 	strls	r6, [r2, -r5, lsl #6]
    47d4:	80000007 	andhi	r0, r0, r7
    47d8:	00090517 	andeq	r0, r9, r7, lsl r5
    47dc:	02640500 	rsbeq	r0, r4, #0, 10
    47e0:	000007a7 	andeq	r0, r0, r7, lsr #15
    47e4:	0b291788 	bleq	a4a60c <__bss_end__+0xa3f954>
    47e8:	65050000 	strvs	r0, [r5, #-0]
    47ec:	00002502 	andeq	r2, r0, r2, lsl #10
    47f0:	5c17a000 	ldcpl	0, cr10, [r7], {-0}
    47f4:	05000008 	streq	r0, [r0, #-8]
    47f8:	00f40266 	rscseq	r0, r4, r6, ror #4
    47fc:	17a40000 	strne	r0, [r4, r0]!
    4800:	00000764 	andeq	r0, r0, r4, ror #14
    4804:	f4026705 	vst1.8	{d6}, [r2], r5
    4808:	ac000000 	stcge	0, cr0, [r0], {-0}
    480c:	00084b17 	andeq	r4, r8, r7, lsl fp
    4810:	02680500 	rsbeq	r0, r8, #0, 10
    4814:	000000f4 	strdeq	r0, [r0], -r4
    4818:	072b17b4 			; <UNDEFINED> instruction: 0x072b17b4
    481c:	69050000 	stmdbvs	r5, {}	; <UNPREDICTABLE>
    4820:	0000f402 	andeq	pc, r0, r2, lsl #8
    4824:	3a17bc00 	bcc	5f382c <__bss_end__+0x5e8b74>
    4828:	05000007 	streq	r0, [r0, #-7]
    482c:	00f4026a 	rscseq	r0, r4, sl, ror #4
    4830:	17c40000 	strbne	r0, [r4, r0]
    4834:	000009d0 	ldrdeq	r0, [r0], -r0	; <UNPREDICTABLE>
    4838:	25026b05 	strcs	r6, [r2, #-2821]	; 0xb05
    483c:	cc000000 	stcgt	0, cr0, [r0], {-0}
    4840:	01120900 	tsteq	r2, r0, lsl #18
    4844:	07970000 	ldreq	r0, [r7, r0]
    4848:	cc0a0000 	stcgt	0, cr0, [sl], {-0}
    484c:	19000000 	stmdbne	r0, {}	; <UNPREDICTABLE>
    4850:	01120900 	tsteq	r2, r0, lsl #18
    4854:	07a70000 	streq	r0, [r7, r0]!
    4858:	cc0a0000 	stcgt	0, cr0, [sl], {-0}
    485c:	07000000 	streq	r0, [r0, -r0]
    4860:	01120900 	tsteq	r2, r0, lsl #18
    4864:	07b70000 	ldreq	r0, [r7, r0]!
    4868:	cc0a0000 	stcgt	0, cr0, [sl], {-0}
    486c:	17000000 	strne	r0, [r0, -r0]
    4870:	05f01a00 	ldrbeq	r1, [r0, #2560]!	; 0xa00
    4874:	07db0270 			; <UNDEFINED> instruction: 0x07db0270
    4878:	80170000 	andshi	r0, r7, r0
    487c:	05000009 	streq	r0, [r0, #-9]
    4880:	07db0273 			; <UNDEFINED> instruction: 0x07db0273
    4884:	17000000 	strne	r0, [r0, -r0]
    4888:	00000b8e 	andeq	r0, r0, lr, lsl #23
    488c:	eb027405 	bl	a18a8 <__bss_end__+0x96bf0>
    4890:	78000007 	stmdavc	r0, {r0, r1, r2}
    4894:	02db0900 	sbcseq	r0, fp, #0, 18
    4898:	07eb0000 	strbeq	r0, [fp, r0]!
    489c:	cc0a0000 	stcgt	0, cr0, [sl], {-0}
    48a0:	1d000000 	stcne	0, cr0, [r0, #-0]
    48a4:	002c0900 	eoreq	r0, ip, r0, lsl #18
    48a8:	07fb0000 	ldrbeq	r0, [fp, r0]!
    48ac:	cc0a0000 	stcgt	0, cr0, [sl], {-0}
    48b0:	1d000000 	stcne	0, cr0, [r0, #-0]
    48b4:	05f01b00 	ldrbeq	r1, [r0, #2816]!	; 0xb00
    48b8:	081d0255 	ldmdaeq	sp, {r0, r2, r4, r6, r9}
    48bc:	571c0000 	ldrpl	r0, [ip, -r0]
    48c0:	0500000a 	streq	r0, [r0, #-10]
    48c4:	0686026c 	streq	r0, [r6], ip, ror #4
    48c8:	ea1c0000 	b	7048d0 <__bss_end__+0x6f9c18>
    48cc:	0500000b 	streq	r0, [r0, #-11]
    48d0:	07b70275 			; <UNDEFINED> instruction: 0x07b70275
    48d4:	09000000 	stmdbeq	r0, {}	; <UNPREDICTABLE>
    48d8:	00000112 	andeq	r0, r0, r2, lsl r1
    48dc:	0000082d 	andeq	r0, r0, sp, lsr #16
    48e0:	0000cc0a 	andeq	ip, r0, sl, lsl #24
    48e4:	1d001800 	stcne	8, cr1, [r0, #-0]
    48e8:	00000838 	andeq	r0, r0, r8, lsr r8
    48ec:	00042915 	andeq	r2, r4, r5, lsl r9
    48f0:	040e0000 	streq	r0, [lr], #-0
    48f4:	0000082d 	andeq	r0, r0, sp, lsr #16
    48f8:	017c040e 	cmneq	ip, lr, lsl #8
    48fc:	4f1d0000 	svcmi	0x001d0000
    4900:	15000008 	strne	r0, [r0, #-8]
    4904:	00000025 	andeq	r0, r0, r5, lsr #32
    4908:	55040e00 	strpl	r0, [r4, #-3584]	; 0xe00
    490c:	0e000008 	cdpeq	0, 0, cr0, cr0, cr8, {0}
    4910:	00084404 	andeq	r4, r8, r4, lsl #8
    4914:	05f40900 	ldrbeq	r0, [r4, #2304]!	; 0x900
    4918:	086b0000 	stmdaeq	fp!, {}^	; <UNPREDICTABLE>
    491c:	cc0a0000 	stcgt	0, cr0, [sl], {-0}
    4920:	02000000 	andeq	r0, r0, #0
    4924:	0b3d1e00 	bleq	f4c12c <__bss_end__+0xf41474>
    4928:	fd050000 	stc2	0, cr0, [r5, #-0]
    492c:	00042902 	andeq	r2, r4, r2, lsl #18
    4930:	0b361e00 	bleq	d8c138 <__bss_end__+0xd81480>
    4934:	fe050000 	cdp2	0, 0, cr0, cr5, cr0, {0}
    4938:	00042f02 	andeq	r2, r4, r2, lsl #30
    493c:	00251400 	eoreq	r1, r5, r0, lsl #8
    4940:	08920000 	ldmeq	r2, {}	; <UNPREDICTABLE>
    4944:	25150000 	ldrcs	r0, [r5, #-0]
    4948:	00000000 	andeq	r0, r0, r0
    494c:	0005401f 	andeq	r4, r5, pc, lsl r0
    4950:	9d1d0600 	ldcls	6, cr0, [sp, #-0]
    4954:	0e000008 	cdpeq	0, 0, cr0, cr0, cr8, {0}
    4958:	00088304 	andeq	r8, r8, r4, lsl #6
    495c:	00251400 	eoreq	r1, r5, r0, lsl #8
    4960:	08b20000 	ldmeq	r2!, {}	; <UNPREDICTABLE>
    4964:	8a150000 	bhi	54496c <__bss_end__+0x539cb4>
    4968:	00000005 	andeq	r0, r0, r5
    496c:	00057d1f 	andeq	r7, r5, pc, lsl sp
    4970:	bd220600 	stclt	6, cr0, [r2, #-0]
    4974:	0e000008 	cdpeq	0, 0, cr0, cr0, cr8, {0}
    4978:	0008a304 	andeq	sl, r8, r4, lsl #6
    497c:	54012000 	strpl	r2, [r1], #-0
    4980:	07000000 	streq	r0, [r0, -r0]
    4984:	0009000c 	andeq	r0, r9, ip
    4988:	07542100 	ldrbeq	r2, [r4, -r0, lsl #2]
    498c:	21000000 	mrscs	r0, (UNDEF: 0)
    4990:	00000b7d 	andeq	r0, r0, sp, ror fp
    4994:	0bd52101 	bleq	ff54cda0 <__bss_end__+0xff5420e8>
    4998:	21040000 	mrscs	r0, (UNDEF: 4)
    499c:	00000795 	muleq	r0, r5, r7
    49a0:	09382105 	ldmdbeq	r8!, {r0, r2, r8, sp}
    49a4:	21060000 	mrscs	r0, (UNDEF: 6)
    49a8:	00000bf2 	strdeq	r0, [r0], -r2
    49ac:	0c012107 	stfeqs	f2, [r1], {7}
    49b0:	21030000 	mrscs	r0, (UNDEF: 3)
    49b4:	00000c10 	andeq	r0, r0, r0, lsl ip
    49b8:	cf050002 	svcgt	0x00050002
    49bc:	0700000c 	streq	r0, [r0, -ip]
    49c0:	0008c315 	andeq	ip, r8, r5, lsl r3
    49c4:	0ca02200 	sfmeq	f2, 4, [r0]
    49c8:	1d010000 	stcne	0, cr0, [r1, #-0]
    49cc:	00000033 	andeq	r0, r0, r3, lsr r0
    49d0:	2020001c 	eorcs	r0, r0, ip, lsl r0
    49d4:	000cdb22 	andeq	sp, ip, r2, lsr #22
    49d8:	331e0100 	tstcc	lr, #0, 2
    49dc:	28000000 	stmdacs	r0, {}	; <UNPREDICTABLE>
    49e0:	22202000 	eorcs	r2, r0, #0
    49e4:	00000caa 	andeq	r0, r0, sl, lsr #25
    49e8:	00331f01 	eorseq	r1, r3, r1, lsl #30
    49ec:	00340000 	eorseq	r0, r4, r0
    49f0:	7b232020 	blvc	8cca78 <__bss_end__+0x8c1dc0>
    49f4:	0100000c 	tsteq	r0, ip
    49f8:	00002556 	andeq	r2, r0, r6, asr r5
    49fc:	009b3000 	addseq	r3, fp, r0
    4a00:	00003400 	andeq	r3, r0, r0, lsl #8
    4a04:	989c0100 	ldmls	ip, {r8}
    4a08:	24000009 	strcs	r0, [r0], #-9
    4a0c:	006e6970 	rsbeq	r6, lr, r0, ror r9
    4a10:	002c5601 	eoreq	r5, ip, r1, lsl #12
    4a14:	14570000 	ldrbne	r0, [r7], #-0
    4a18:	6f250000 	svcvs	0x00250000
    4a1c:	0100000c 	tsteq	r0, ip
    4a20:	00002c59 	andeq	r2, r0, r9, asr ip
    4a24:	00149100 	andseq	r9, r4, r0, lsl #2
    4a28:	666f2600 	strbtvs	r2, [pc], -r0, lsl #12
    4a2c:	5a010066 	bpl	44bcc <__bss_end__+0x39f14>
    4a30:	0000002c 	andeq	r0, r0, ip, lsr #32
    4a34:	000014cf 	andeq	r1, r0, pc, asr #9
    4a38:	009b4c27 	addseq	r4, fp, r7, lsr #24
    4a3c:	000b5d00 	andeq	r5, fp, r0, lsl #26
    4a40:	50012800 	andpl	r2, r1, r0, lsl #16
    4a44:	5001f30b 	andpl	pc, r1, fp, lsl #6
    4a48:	b4232535 	strtlt	r2, [r3], #-1333	; 0x535
    4a4c:	02818080 	addeq	r8, r1, #128	; 0x80
    4a50:	95290000 	strls	r0, [r9, #-0]!
    4a54:	0100000c 	tsteq	r0, ip
    4a58:	009b144f 	addseq	r1, fp, pc, asr #8
    4a5c:	00001c00 	andeq	r1, r0, r0, lsl #24
    4a60:	e89c0100 	ldm	ip, {r8}
    4a64:	24000009 	strcs	r0, [r0], #-9
    4a68:	006e6970 	rsbeq	r6, lr, r0, ror r9
    4a6c:	002c4f01 	eoreq	r4, ip, r1, lsl #30
    4a70:	14e20000 	strbtne	r0, [r2], #0
    4a74:	76240000 	strtvc	r0, [r4], -r0
    4a78:	2c4f0100 	stfcse	f0, [pc], {-0}
    4a7c:	1c000000 	stcne	0, cr0, [r0], {-0}
    4a80:	2a000015 	bcs	4adc <__code_start__-0x3524>
    4a84:	00009b24 	andeq	r9, r0, r4, lsr #22
    4a88:	00000a23 	andeq	r0, r0, r3, lsr #20
    4a8c:	000009de 	ldrdeq	r0, [r0], -lr
    4a90:	03500128 	cmpeq	r0, #40, 2
    4a94:	005001f3 	ldrsheq	r0, [r0], #-19	; 0xffffffed
    4a98:	009b2c2b 	addseq	r2, fp, fp, lsr #24
    4a9c:	000a6400 	andeq	r6, sl, r0, lsl #8
    4aa0:	b4290000 	strtlt	r0, [r9], #-0
    4aa4:	0100000c 	tsteq	r0, ip
    4aa8:	009b044a 	addseq	r0, fp, sl, asr #8
    4aac:	00001000 	andeq	r1, r0, r0
    4ab0:	239c0100 	orrscs	r0, ip, #0, 2
    4ab4:	2400000a 	strcs	r0, [r0], #-10
    4ab8:	006e6970 	rsbeq	r6, lr, r0, ror r9
    4abc:	002c4a01 	eoreq	r4, ip, r1, lsl #20
    4ac0:	15560000 	ldrbne	r0, [r6, #-0]
    4ac4:	10270000 	eorne	r0, r7, r0
    4ac8:	e000009b 	mul	r0, fp, r0
    4acc:	2800000a 	stmdacs	r0, {r1, r3}
    4ad0:	f3035001 	vhadd.u8	d5, d3, d1
    4ad4:	01285001 	teqeq	r8, r1
    4ad8:	00300151 	eorseq	r0, r0, r1, asr r1
    4adc:	0c622900 	stcleq	9, cr2, [r2], #-0
    4ae0:	43010000 	movwmi	r0, #4096	; 0x1000
    4ae4:	00009ae0 	andeq	r9, r0, r0, ror #21
    4ae8:	00000024 	andeq	r0, r0, r4, lsr #32
    4aec:	0a649c01 	beq	192baf8 <__bss_end__+0x1920e40>
    4af0:	70240000 	eorvc	r0, r4, r0
    4af4:	01006e69 	tsteq	r0, r9, ror #28
    4af8:	00002c43 	andeq	r2, r0, r3, asr #24
    4afc:	00157700 	andseq	r7, r5, r0, lsl #14
    4b00:	9afc2700 	bls	fff0e708 <__bss_end__+0xfff03a50>
    4b04:	0b680000 	bleq	1a04b0c <__bss_end__+0x19f9e54>
    4b08:	01280000 	teqeq	r8, r0
    4b0c:	280c0550 	stmdacs	ip, {r4, r6, r8, sl}
    4b10:	28202000 	stmdacs	r0!, {sp}
    4b14:	31055101 	tstcc	r5, r1, lsl #2
    4b18:	245001f3 	ldrbcs	r0, [r0], #-499	; 0x1f3
    4b1c:	c3290000 	teqgt	r9, #0
    4b20:	0100000c 	tsteq	r0, ip
    4b24:	009abc3c 	addseq	fp, sl, ip, lsr ip
    4b28:	00002400 	andeq	r2, r0, r0, lsl #8
    4b2c:	a59c0100 	ldrge	r0, [ip, #256]	; 0x100
    4b30:	2400000a 	strcs	r0, [r0], #-10
    4b34:	006e6970 	rsbeq	r6, lr, r0, ror r9
    4b38:	002c3c01 	eoreq	r3, ip, r1, lsl #24
    4b3c:	15980000 	ldrne	r0, [r8]
    4b40:	d8270000 	stmdale	r7!, {}	; <UNPREDICTABLE>
    4b44:	6800009a 	stmdavs	r0, {r1, r3, r4, r7}
    4b48:	2800000b 	stmdacs	r0, {r0, r1, r3}
    4b4c:	0c055001 	stceq	0, cr5, [r5], {1}
    4b50:	2020001c 	eorcs	r0, r0, ip, lsl r0
    4b54:	05510128 	ldrbeq	r0, [r1, #-296]	; 0x128
    4b58:	5001f331 	andpl	pc, r1, r1, lsr r3	; <UNPREDICTABLE>
    4b5c:	29000024 	stmdbcs	r0, {r2, r5}
    4b60:	00000c85 	andeq	r0, r0, r5, lsl #25
    4b64:	9aac3701 	bls	feb12770 <__bss_end__+0xfeb07ab8>
    4b68:	00100000 	andseq	r0, r0, r0
    4b6c:	9c010000 	stcls	0, cr0, [r1], {-0}
    4b70:	00000ae0 	andeq	r0, r0, r0, ror #21
    4b74:	6e697024 	cdpvs	0, 6, cr7, cr9, cr4, {1}
    4b78:	2c370100 	ldfcss	f0, [r7], #-0
    4b7c:	b9000000 	stmdblt	r0, {}	; <UNPREDICTABLE>
    4b80:	27000015 	smladcs	r0, r5, r0, r0
    4b84:	00009ab8 			; <UNDEFINED> instruction: 0x00009ab8
    4b88:	00000ae0 	andeq	r0, r0, r0, ror #21
    4b8c:	03500128 	cmpeq	r0, #40, 2
    4b90:	285001f3 	ldmdacs	r0, {r0, r1, r4, r5, r6, r7, r8}^
    4b94:	31015101 	tstcc	r1, r1, lsl #2
    4b98:	6e290000 	cdpvs	0, 2, cr0, cr9, cr0, {0}
    4b9c:	01000009 	tsteq	r0, r9
    4ba0:	009a4428 	addseq	r4, sl, r8, lsr #8
    4ba4:	00006800 	andeq	r6, r0, r0, lsl #16
    4ba8:	5d9c0100 	ldfpls	f0, [ip]
    4bac:	2400000b 	strcs	r0, [r0], #-11
    4bb0:	006e6970 	rsbeq	r6, lr, r0, ror r9
    4bb4:	002c2801 	eoreq	r2, ip, r1, lsl #16
    4bb8:	15da0000 	ldrbne	r0, [sl]
    4bbc:	ba2c0000 	blt	b04bc4 <__bss_end__+0xaf9f0c>
    4bc0:	0100000b 	tsteq	r0, fp
    4bc4:	00090028 	andeq	r0, r9, r8, lsr #32
    4bc8:	0015fb00 	andseq	pc, r5, r0, lsl #22
    4bcc:	666f2d00 	strbtvs	r2, [pc], -r0, lsl #26
    4bd0:	2d010066 	stccs	0, cr0, [r1, #-408]	; 0xfffffe68
    4bd4:	0000002c 	andeq	r0, r0, ip, lsr #32
    4bd8:	672d5401 	strvs	r5, [sp, -r1, lsl #8]!
    4bdc:	2c2f0100 	stfcss	f0, [pc], #-0	; 4be4 <__code_start__-0x341c>
    4be0:	01000000 	mrseq	r0, (UNDEF: 0)
    4be4:	00762656 	rsbseq	r2, r6, r6, asr r6
    4be8:	002c3101 	eoreq	r3, ip, r1, lsl #2
    4bec:	161c0000 	ldrne	r0, [ip], -r0
    4bf0:	902a0000 	eorls	r0, sl, r0
    4bf4:	5d00009a 	stcpl	0, cr0, [r0, #-616]	; 0xfffffd98
    4bf8:	4c00000b 	stcmi	0, cr0, [r0], {11}
    4bfc:	2800000b 	stmdacs	r0, {r0, r1, r3}
    4c00:	76025001 	strvc	r5, [r2], -r1
    4c04:	a4270000 	strtge	r0, [r7], #-0
    4c08:	6800009a 	stmdavs	r0, {r1, r3, r4, r7}
    4c0c:	2800000b 	stmdacs	r0, {r0, r1, r3}
    4c10:	76025001 	strvc	r5, [r2], -r1
    4c14:	2e000000 	cdpcs	0, 0, cr0, cr0, cr0, {0}
    4c18:	000006cb 	andeq	r0, r0, fp, asr #13
    4c1c:	000006cb 	andeq	r0, r0, fp, asr #13
    4c20:	7d2ea706 	stcvc	7, cr10, [lr, #-24]!	; 0xffffffe8
    4c24:	7d000006 	stcvc	0, cr0, [r0, #-24]	; 0xffffffe8
    4c28:	06000006 	streq	r0, [r0], -r6
    4c2c:	0c24009b 	stceq	0, cr0, [r4], #-620	; 0xfffffd94
    4c30:	00040000 	andeq	r0, r4, r0
    4c34:	00001457 	andeq	r1, r0, r7, asr r4
    4c38:	0aa40104 	beq	fe905050 <__bss_end__+0xfe8fa398>
    4c3c:	e50c0000 	str	r0, [ip, #-0]
    4c40:	1600000c 	strne	r0, [r0], -ip
    4c44:	64000008 	strvs	r0, [r0], #-8
    4c48:	9400009b 	strls	r0, [r0], #-155	; 0x9b
    4c4c:	a1000001 	tstge	r0, r1
    4c50:	02000011 	andeq	r0, r0, #17
    4c54:	6e690504 	cdpvs	5, 6, cr0, cr9, cr4, {0}
    4c58:	04030074 	streq	r0, [r3], #-116	; 0x74
    4c5c:	00015a07 	andeq	r5, r1, r7, lsl #20
    4c60:	06010300 	streq	r0, [r1], -r0, lsl #6
    4c64:	00000128 	andeq	r0, r0, r8, lsr #2
    4c68:	7e050203 	cdpvc	2, 0, cr0, cr5, cr3, {0}
    4c6c:	03000001 	movweq	r0, #1
    4c70:	01750504 	cmneq	r5, r4, lsl #10
    4c74:	08030000 	stmdaeq	r3, {}	; <UNPREDICTABLE>
    4c78:	00017005 	andeq	r7, r1, r5
    4c7c:	08010300 	stmdaeq	r1, {r8, r9}
    4c80:	00000126 	andeq	r0, r0, r6, lsr #2
    4c84:	fc070203 	stc2	2, cr0, [r7], {3}
    4c88:	03000000 	movweq	r0, #0
    4c8c:	01550704 	cmpeq	r5, r4, lsl #14
    4c90:	08030000 	stmdaeq	r3, {}	; <UNPREDICTABLE>
    4c94:	00015007 	andeq	r5, r1, r7
    4c98:	09b90400 	ldmibeq	r9!, {sl}
    4c9c:	07020000 	streq	r0, [r2, -r0]
    4ca0:	00000025 	andeq	r0, r0, r5, lsr #32
    4ca4:	0009a304 	andeq	sl, r9, r4, lsl #6
    4ca8:	412c0300 	teqmi	ip, r0, lsl #6
    4cac:	04000000 	streq	r0, [r0], #-0
    4cb0:	00000a7f 	andeq	r0, r0, pc, ror sl
    4cb4:	00417203 	subeq	r7, r1, r3, lsl #4
    4cb8:	47050000 	strmi	r0, [r5, -r0]
    4cbc:	04000009 	streq	r0, [r0], #-9
    4cc0:	002c0165 	eoreq	r0, ip, r5, ror #2
    4cc4:	04060000 	streq	r0, [r6], #-0
    4cc8:	00b7a603 	adcseq	sl, r7, r3, lsl #12
    4ccc:	32070000 	andcc	r0, r7, #0
    4cd0:	03000009 	movweq	r0, #9
    4cd4:	00008ca8 	andeq	r8, r0, r8, lsr #25
    4cd8:	08ce0700 	stmiaeq	lr, {r8, r9, sl}^
    4cdc:	a9030000 	stmdbge	r3, {}	; <UNPREDICTABLE>
    4ce0:	000000b7 	strheq	r0, [r0], -r7
    4ce4:	004f0800 	subeq	r0, pc, r0, lsl #16
    4ce8:	00c70000 	sbceq	r0, r7, r0
    4cec:	c7090000 	strgt	r0, [r9, -r0]
    4cf0:	03000000 	movweq	r0, #0
    4cf4:	07040300 	streq	r0, [r4, -r0, lsl #6]
    4cf8:	00000167 	andeq	r0, r0, r7, ror #2
    4cfc:	a303080a 	movwge	r0, #14346	; 0x380a
    4d00:	000000ef 	andeq	r0, r0, pc, ror #1
    4d04:	000a640b 	andeq	r6, sl, fp, lsl #8
    4d08:	25a50300 	strcs	r0, [r5, #768]!	; 0x300
    4d0c:	00000000 	andeq	r0, r0, r0
    4d10:	000a6c0b 	andeq	r6, sl, fp, lsl #24
    4d14:	98aa0300 	stmials	sl!, {r8, r9}
    4d18:	04000000 	streq	r0, [r0], #-0
    4d1c:	09f70400 	ldmibeq	r7!, {sl}^
    4d20:	ab030000 	blge	c4d28 <__bss_end__+0xba070>
    4d24:	000000ce 	andeq	r0, r0, lr, asr #1
    4d28:	00089704 	andeq	r9, r8, r4, lsl #14
    4d2c:	6baf0300 	blvs	febc5934 <__bss_end__+0xfebbac7c>
    4d30:	0c000000 	stceq	0, cr0, [r0], {-0}
    4d34:	0d040d04 	stceq	13, cr0, [r4, #-16]
    4d38:	03000001 	movweq	r0, #1
    4d3c:	012f0801 	teqeq	pc, r1, lsl #16
    4d40:	0d0e0000 	stceq	0, cr0, [lr, #-0]
    4d44:	04000001 	streq	r0, [r0], #-1
    4d48:	00000b21 	andeq	r0, r0, r1, lsr #22
    4d4c:	005d1605 	subseq	r1, sp, r5, lsl #12
    4d50:	a80f0000 	stmdage	pc, {}	; <UNPREDICTABLE>
    4d54:	18000008 	stmdane	r0, {r3}
    4d58:	01772d05 	cmneq	r7, r5, lsl #26
    4d5c:	180b0000 	stmdane	fp, {}	; <UNPREDICTABLE>
    4d60:	0500000a 	streq	r0, [r0, #-10]
    4d64:	0001772f 	andeq	r7, r1, pc, lsr #14
    4d68:	5f100000 	svcpl	0x00100000
    4d6c:	3005006b 	andcc	r0, r5, fp, rrx
    4d70:	00000025 	andeq	r0, r0, r5, lsr #32
    4d74:	0a4f0b04 	beq	13c798c <__bss_end__+0x13bccd4>
    4d78:	30050000 	andcc	r0, r5, r0
    4d7c:	00000025 	andeq	r0, r0, r5, lsr #32
    4d80:	08830b08 	stmeq	r3, {r3, r8, r9, fp}
    4d84:	30050000 	andcc	r0, r5, r0
    4d88:	00000025 	andeq	r0, r0, r5, lsr #32
    4d8c:	0b680b0c 	bleq	1a079c4 <__bss_end__+0x19fcd0c>
    4d90:	30050000 	andcc	r0, r5, r0
    4d94:	00000025 	andeq	r0, r0, r5, lsr #32
    4d98:	785f1010 	ldmdavc	pc, {r4, ip}^	; <UNPREDICTABLE>
    4d9c:	7d310500 	cfldr32vc	mvfx0, [r1, #-0]
    4da0:	14000001 	strne	r0, [r0], #-1
    4da4:	24040d00 	strcs	r0, [r4], #-3328	; 0xd00
    4da8:	08000001 	stmdaeq	r0, {r0}
    4dac:	00000119 	andeq	r0, r0, r9, lsl r1
    4db0:	0000018d 	andeq	r0, r0, sp, lsl #3
    4db4:	0000c709 	andeq	ip, r0, r9, lsl #14
    4db8:	0f000000 	svceq	0x00000000
    4dbc:	000008c9 	andeq	r0, r0, r9, asr #17
    4dc0:	06350524 	ldrteq	r0, [r5], -r4, lsr #10
    4dc4:	0b000002 	bleq	4dd4 <__code_start__-0x322c>
    4dc8:	00000781 	andeq	r0, r0, r1, lsl #15
    4dcc:	00253705 	eoreq	r3, r5, r5, lsl #14
    4dd0:	0b000000 	bleq	4dd8 <__code_start__-0x3228>
    4dd4:	00000a87 	andeq	r0, r0, r7, lsl #21
    4dd8:	00253805 	eoreq	r3, r5, r5, lsl #16
    4ddc:	0b040000 	bleq	104de4 <__bss_end__+0xfa12c>
    4de0:	000007af 	andeq	r0, r0, pc, lsr #15
    4de4:	00253905 	eoreq	r3, r5, r5, lsl #18
    4de8:	0b080000 	bleq	204df0 <__bss_end__+0x1fa138>
    4dec:	00000c58 	andeq	r0, r0, r8, asr ip
    4df0:	00253a05 	eoreq	r3, r5, r5, lsl #20
    4df4:	0b0c0000 	bleq	304dfc <__bss_end__+0x2fa144>
    4df8:	00000987 	andeq	r0, r0, r7, lsl #19
    4dfc:	00253b05 	eoreq	r3, r5, r5, lsl #22
    4e00:	0b100000 	bleq	404e08 <__bss_end__+0x3fa150>
    4e04:	0000095c 	andeq	r0, r0, ip, asr r9
    4e08:	00253c05 	eoreq	r3, r5, r5, lsl #24
    4e0c:	0b140000 	bleq	504e14 <__bss_end__+0x4fa15c>
    4e10:	00000b6d 	andeq	r0, r0, sp, ror #22
    4e14:	00253d05 	eoreq	r3, r5, r5, lsl #26
    4e18:	0b180000 	bleq	604e20 <__bss_end__+0x5fa168>
    4e1c:	000009d9 	ldrdeq	r0, [r0], -r9
    4e20:	00253e05 	eoreq	r3, r5, r5, lsl #28
    4e24:	0b1c0000 	bleq	704e2c <__bss_end__+0x6fa174>
    4e28:	00000c1f 	andeq	r0, r0, pc, lsl ip
    4e2c:	00253f05 	eoreq	r3, r5, r5, lsl #30
    4e30:	00200000 	eoreq	r0, r0, r0
    4e34:	0007be11 	andeq	fp, r7, r1, lsl lr
    4e38:	05010800 	streq	r0, [r1, #-2048]	; 0x800
    4e3c:	00024648 	andeq	r4, r2, r8, asr #12
    4e40:	086a0b00 	stmdaeq	sl!, {r8, r9, fp}^
    4e44:	49050000 	stmdbmi	r5, {}	; <UNPREDICTABLE>
    4e48:	00000246 	andeq	r0, r0, r6, asr #4
    4e4c:	06fc0b00 	ldrbteq	r0, [ip], r0, lsl #22
    4e50:	4a050000 	bmi	144e58 <__bss_end__+0x13a1a0>
    4e54:	00000246 	andeq	r0, r0, r6, asr #4
    4e58:	0b131280 	bleq	4c9860 <__bss_end__+0x4beba8>
    4e5c:	4c050000 	stcmi	0, cr0, [r5], {-0}
    4e60:	00000119 	andeq	r0, r0, r9, lsl r1
    4e64:	e3120100 	tst	r2, #0, 2
    4e68:	05000007 	streq	r0, [r0, #-7]
    4e6c:	0001194f 	andeq	r1, r1, pc, asr #18
    4e70:	00010400 	andeq	r0, r1, r0, lsl #8
    4e74:	00010508 	andeq	r0, r1, r8, lsl #10
    4e78:	00025600 	andeq	r5, r2, r0, lsl #12
    4e7c:	00c70900 	sbceq	r0, r7, r0, lsl #18
    4e80:	001f0000 	andseq	r0, pc, r0
    4e84:	00099011 	andeq	r9, r9, r1, lsl r0
    4e88:	05019000 	streq	r9, [r1, #-0]
    4e8c:	0002945b 	andeq	r9, r2, fp, asr r4
    4e90:	0a180b00 	beq	607a98 <__bss_end__+0x5fcde0>
    4e94:	5c050000 	stcpl	0, cr0, [r5], {-0}
    4e98:	00000294 	muleq	r0, r4, r2
    4e9c:	0a300b00 	beq	c07aa4 <__bss_end__+0xbfcdec>
    4ea0:	5d050000 	stcpl	0, cr0, [r5, #-0]
    4ea4:	00000025 	andeq	r0, r0, r5, lsr #32
    4ea8:	087e0b04 	ldmdaeq	lr!, {r2, r8, r9, fp}^
    4eac:	5f050000 	svcpl	0x00050000
    4eb0:	0000029a 	muleq	r0, sl, r2
    4eb4:	07be0b08 	ldreq	r0, [lr, r8, lsl #22]!
    4eb8:	60050000 	andvs	r0, r5, r0
    4ebc:	00000206 	andeq	r0, r0, r6, lsl #4
    4ec0:	040d0088 	streq	r0, [sp], #-136	; 0x88
    4ec4:	00000256 	andeq	r0, r0, r6, asr r2
    4ec8:	0002aa08 	andeq	sl, r2, r8, lsl #20
    4ecc:	0002aa00 	andeq	sl, r2, r0, lsl #20
    4ed0:	00c70900 	sbceq	r0, r7, r0, lsl #18
    4ed4:	001f0000 	andseq	r0, pc, r0
    4ed8:	02b0040d 	adcseq	r0, r0, #218103808	; 0xd000000
    4edc:	0f130000 	svceq	0x00130000
    4ee0:	000009e3 	andeq	r0, r0, r3, ror #19
    4ee4:	d6730508 	ldrbtle	r0, [r3], -r8, lsl #10
    4ee8:	0b000002 	bleq	4ef8 <__code_start__-0x3108>
    4eec:	000007a4 	andeq	r0, r0, r4, lsr #15
    4ef0:	02d67405 	sbcseq	r7, r6, #83886080	; 0x5000000
    4ef4:	0b000000 	bleq	4efc <__code_start__-0x3104>
    4ef8:	00000708 	andeq	r0, r0, r8, lsl #14
    4efc:	00257505 	eoreq	r7, r5, r5, lsl #10
    4f00:	00040000 	andeq	r0, r4, r0
    4f04:	004f040d 	subeq	r0, pc, sp, lsl #8
    4f08:	020f0000 	andeq	r0, pc, #0
    4f0c:	6800000a 	stmdavs	r0, {r1, r3}
    4f10:	0406b305 	streq	fp, [r6], #-773	; 0x305
    4f14:	5f100000 	svcpl	0x00100000
    4f18:	b4050070 	strlt	r0, [r5], #-112	; 0x70
    4f1c:	000002d6 	ldrdeq	r0, [r0], -r6
    4f20:	725f1000 	subsvc	r1, pc, #0
    4f24:	25b50500 	ldrcs	r0, [r5, #1280]!	; 0x500
    4f28:	04000000 	streq	r0, [r0], #-0
    4f2c:	00775f10 	rsbseq	r5, r7, r0, lsl pc
    4f30:	0025b605 	eoreq	fp, r5, r5, lsl #12
    4f34:	0b080000 	bleq	204f3c <__bss_end__+0x1fa284>
    4f38:	000007dc 	ldrdeq	r0, [r0], -ip
    4f3c:	003ab705 	eorseq	fp, sl, r5, lsl #14
    4f40:	0b0c0000 	bleq	304f48 <__bss_end__+0x2fa290>
    4f44:	000008ef 	andeq	r0, r0, pc, ror #17
    4f48:	003ab805 	eorseq	fp, sl, r5, lsl #16
    4f4c:	100e0000 	andne	r0, lr, r0
    4f50:	0066625f 	rsbeq	r6, r6, pc, asr r2
    4f54:	02b1b905 	adcseq	fp, r1, #81920	; 0x14000
    4f58:	0b100000 	bleq	404f60 <__bss_end__+0x3fa2a8>
    4f5c:	0000074b 	andeq	r0, r0, fp, asr #14
    4f60:	0025ba05 	eoreq	fp, r5, r5, lsl #20
    4f64:	0b180000 	bleq	604f6c <__bss_end__+0x5fa2b4>
    4f68:	000007cc 	andeq	r0, r0, ip, asr #15
    4f6c:	0105c105 	tsteq	r5, r5, lsl #2
    4f70:	0b1c0000 	bleq	704f78 <__bss_end__+0x6fa2c0>
    4f74:	00000c7f 	andeq	r0, r0, pc, ror ip
    4f78:	0561c305 	strbeq	ip, [r1, #-773]!	; 0x305
    4f7c:	0b200000 	bleq	804f84 <__bss_end__+0x7fa2cc>
    4f80:	00000c99 	muleq	r0, r9, ip
    4f84:	058bc505 	streq	ip, [fp, #1285]	; 0x505
    4f88:	0b240000 	bleq	904f90 <__bss_end__+0x8fa2d8>
    4f8c:	00000a74 	andeq	r0, r0, r4, ror sl
    4f90:	05afc805 	streq	ip, [pc, #2053]!	; 579d <__code_start__-0x2863>
    4f94:	0b280000 	bleq	a04f9c <__bss_end__+0x9fa2e4>
    4f98:	00000c39 	andeq	r0, r0, r9, lsr ip
    4f9c:	05c9c905 	strbeq	ip, [r9, #2309]	; 0x905
    4fa0:	102c0000 	eorne	r0, ip, r0
    4fa4:	0062755f 	rsbeq	r7, r2, pc, asr r5
    4fa8:	02b1cc05 	adcseq	ip, r1, #1280	; 0x500
    4fac:	10300000 	eorsne	r0, r0, r0
    4fb0:	0070755f 	rsbseq	r7, r0, pc, asr r5
    4fb4:	02d6cd05 	sbcseq	ip, r6, #320	; 0x140
    4fb8:	10380000 	eorsne	r0, r8, r0
    4fbc:	0072755f 	rsbseq	r7, r2, pc, asr r5
    4fc0:	0025ce05 	eoreq	ip, r5, r5, lsl #28
    4fc4:	0b3c0000 	bleq	f04fcc <__bss_end__+0xefa314>
    4fc8:	0000078f 	andeq	r0, r0, pc, lsl #15
    4fcc:	05cfd105 	strbeq	sp, [pc, #261]	; 50d9 <__code_start__-0x2f27>
    4fd0:	0b400000 	bleq	1004fd8 <__bss_end__+0xffa320>
    4fd4:	00000be4 	andeq	r0, r0, r4, ror #23
    4fd8:	05dfd205 	ldrbeq	sp, [pc, #517]	; 51e5 <__code_start__-0x2e1b>
    4fdc:	10430000 	subne	r0, r3, r0
    4fe0:	00626c5f 	rsbeq	r6, r2, pc, asr ip
    4fe4:	02b1d505 	adcseq	sp, r1, #20971520	; 0x1400000
    4fe8:	0b440000 	bleq	1104ff0 <__bss_end__+0x10fa338>
    4fec:	000007f2 	strdeq	r0, [r0], -r2
    4ff0:	0025d805 	eoreq	sp, r5, r5, lsl #16
    4ff4:	0b4c0000 	bleq	1304ffc <__bss_end__+0x12fa344>
    4ff8:	00000966 	andeq	r0, r0, r6, ror #18
    4ffc:	0076d905 	rsbseq	sp, r6, r5, lsl #18
    5000:	0b500000 	bleq	1405008 <__bss_end__+0x13fa350>
    5004:	00000bcf 	andeq	r0, r0, pc, asr #23
    5008:	0424dc05 	strteq	sp, [r4], #-3077	; 0xc05
    500c:	0b540000 	bleq	1505014 <__bss_end__+0x14fa35c>
    5010:	0000094e 	andeq	r0, r0, lr, asr #18
    5014:	00fae005 	rscseq	lr, sl, r5
    5018:	0b580000 	bleq	1605020 <__bss_end__+0x15fa368>
    501c:	00000a0a 	andeq	r0, r0, sl, lsl #20
    5020:	00efe205 	rsceq	lr, pc, r5, lsl #4
    5024:	0b5c0000 	bleq	170502c <__bss_end__+0x16fa374>
    5028:	00000954 	andeq	r0, r0, r4, asr r9
    502c:	0025e305 	eoreq	lr, r5, r5, lsl #6
    5030:	00640000 	rsbeq	r0, r4, r0
    5034:	00002514 	andeq	r2, r0, r4, lsl r5
    5038:	00042400 	andeq	r2, r4, r0, lsl #8
    503c:	04241500 	strteq	r1, [r4], #-1280	; 0x500
    5040:	05150000 	ldreq	r0, [r5, #-0]
    5044:	15000001 	strne	r0, [r0, #-1]
    5048:	00000107 	andeq	r0, r0, r7, lsl #2
    504c:	00002515 	andeq	r2, r0, r5, lsl r5
    5050:	040d0000 	streq	r0, [sp], #-0
    5054:	0000042f 	andeq	r0, r0, pc, lsr #8
    5058:	0004240e 	andeq	r2, r4, lr, lsl #8
    505c:	0a571600 	beq	15ca864 <__bss_end__+0x15bfbac>
    5060:	04280000 	strteq	r0, [r8], #-0
    5064:	61023805 	tstvs	r2, r5, lsl #16
    5068:	17000005 	strne	r0, [r0, -r5]
    506c:	000009d2 	ldrdeq	r0, [r0], -r2
    5070:	25023a05 	strcs	r3, [r2, #-2565]	; 0xa05
    5074:	00000000 	andeq	r0, r0, r0
    5078:	0007eb17 	andeq	lr, r7, r7, lsl fp
    507c:	023f0500 	eorseq	r0, pc, #0, 10
    5080:	00000636 	andeq	r0, r0, r6, lsr r6
    5084:	08df1704 	ldmeq	pc, {r2, r8, r9, sl, ip}^	; <UNPREDICTABLE>
    5088:	3f050000 	svccc	0x00050000
    508c:	00063602 	andeq	r3, r6, r2, lsl #12
    5090:	a0170800 	andsge	r0, r7, r0, lsl #16
    5094:	05000008 	streq	r0, [r0, #-8]
    5098:	0636023f 			; <UNDEFINED> instruction: 0x0636023f
    509c:	170c0000 	strne	r0, [ip, -r0]
    50a0:	00000a2b 	andeq	r0, r0, fp, lsr #20
    50a4:	25024105 	strcs	r4, [r2, #-261]	; 0x105
    50a8:	10000000 	andne	r0, r0, r0
    50ac:	00071617 	andeq	r1, r7, r7, lsl r6
    50b0:	02420500 	subeq	r0, r2, #0, 10
    50b4:	00000818 	andeq	r0, r0, r8, lsl r8
    50b8:	0b491714 	bleq	124ad10 <__bss_end__+0x1240058>
    50bc:	44050000 	strmi	r0, [r5], #-0
    50c0:	00002502 	andeq	r2, r0, r2, lsl #10
    50c4:	35173000 	ldrcc	r3, [r7, #-0]
    50c8:	0500000a 	streq	r0, [r0, #-10]
    50cc:	05850245 	streq	r0, [r5, #581]	; 0x245
    50d0:	17340000 	ldrne	r0, [r4, -r0]!
    50d4:	00000998 	muleq	r0, r8, r9
    50d8:	25024705 	strcs	r4, [r2, #-1797]	; 0x705
    50dc:	38000000 	stmdacc	r0, {}	; <UNPREDICTABLE>
    50e0:	000a4517 	andeq	r4, sl, r7, lsl r5
    50e4:	02490500 	subeq	r0, r9, #0, 10
    50e8:	00000833 	andeq	r0, r0, r3, lsr r8
    50ec:	092a173c 	stmdbeq	sl!, {r2, r3, r4, r5, r8, r9, sl, ip}
    50f0:	4c050000 	stcmi	0, cr0, [r5], {-0}
    50f4:	00017702 	andeq	r7, r1, r2, lsl #14
    50f8:	bf174000 	svclt	0x00174000
    50fc:	05000008 	streq	r0, [r0, #-8]
    5100:	0025024d 	eoreq	r0, r5, sp, asr #4
    5104:	17440000 	strbne	r0, [r4, -r0]
    5108:	00000c53 	andeq	r0, r0, r3, asr ip
    510c:	77024e05 	strvc	r4, [r2, -r5, lsl #28]
    5110:	48000001 	stmdami	r0, {r0}
    5114:	0009af17 	andeq	sl, r9, r7, lsl pc
    5118:	024f0500 	subeq	r0, pc, #0, 10
    511c:	00000839 	andeq	r0, r0, r9, lsr r8
    5120:	08e7174c 	stmiaeq	r7!, {r2, r3, r6, r8, r9, sl, ip}^
    5124:	52050000 	andpl	r0, r5, #0
    5128:	00002502 	andeq	r2, r0, r2, lsl #10
    512c:	0e175000 	cdpeq	0, 1, cr5, cr7, cr0, {0}
    5130:	05000008 	streq	r0, [r0, #-8]
    5134:	01070253 	tsteq	r7, r3, asr r2
    5138:	17540000 	ldrbne	r0, [r4, -r0]
    513c:	000009cb 	andeq	r0, r0, fp, asr #19
    5140:	f6027605 			; <UNDEFINED> instruction: 0xf6027605
    5144:	58000007 	stmdapl	r0, {r0, r1, r2}
    5148:	00099018 	andeq	r9, r9, r8, lsl r0
    514c:	027a0500 	rsbseq	r0, sl, #0, 10
    5150:	00000294 	muleq	r0, r4, r2
    5154:	fc180148 	ldc2	1, cr0, [r8], {72}	; 0x48
    5158:	05000008 	streq	r0, [r0, #-8]
    515c:	0256027b 	subseq	r0, r6, #-1342177273	; 0xb0000007
    5160:	014c0000 	mrseq	r0, (UNDEF: 76)
    5164:	000bb518 	andeq	fp, fp, r8, lsl r5
    5168:	027f0500 	rsbseq	r0, pc, #0, 10
    516c:	0000084a 	andeq	r0, r0, sl, asr #16
    5170:	d41802dc 	ldrle	r0, [r8], #-732	; 0x2dc
    5174:	05000007 	streq	r0, [r0, #-7]
    5178:	05fb0284 	ldrbeq	r0, [fp, #644]!	; 0x284
    517c:	02e00000 	rsceq	r0, r0, #0
    5180:	0007b918 	andeq	fp, r7, r8, lsl r9
    5184:	02850500 	addeq	r0, r5, #0, 10
    5188:	00000856 	andeq	r0, r0, r6, asr r8
    518c:	0d0002ec 	sfmeq	f0, 4, [r0, #-944]	; 0xfffffc50
    5190:	00040604 	andeq	r0, r4, r4, lsl #12
    5194:	00251400 	eoreq	r1, r5, r0, lsl #8
    5198:	05850000 	streq	r0, [r5]
    519c:	24150000 	ldrcs	r0, [r5], #-0
    51a0:	15000004 	strne	r0, [r0, #-4]
    51a4:	00000105 	andeq	r0, r0, r5, lsl #2
    51a8:	00058515 	andeq	r8, r5, r5, lsl r5
    51ac:	00251500 	eoreq	r1, r5, r0, lsl #10
    51b0:	0d000000 	stceq	0, cr0, [r0, #-0]
    51b4:	00011404 	andeq	r1, r1, r4, lsl #8
    51b8:	67040d00 	strvs	r0, [r4, -r0, lsl #26]
    51bc:	14000005 	strne	r0, [r0], #-5
    51c0:	00000081 	andeq	r0, r0, r1, lsl #1
    51c4:	000005af 	andeq	r0, r0, pc, lsr #11
    51c8:	00042415 	andeq	r2, r4, r5, lsl r4
    51cc:	01051500 	tsteq	r5, r0, lsl #10
    51d0:	81150000 	tsthi	r5, r0
    51d4:	15000000 	strne	r0, [r0, #-0]
    51d8:	00000025 	andeq	r0, r0, r5, lsr #32
    51dc:	91040d00 	tstls	r4, r0, lsl #26
    51e0:	14000005 	strne	r0, [r0], #-5
    51e4:	00000025 	andeq	r0, r0, r5, lsr #32
    51e8:	000005c9 	andeq	r0, r0, r9, asr #11
    51ec:	00042415 	andeq	r2, r4, r5, lsl r4
    51f0:	01051500 	tsteq	r5, r0, lsl #10
    51f4:	0d000000 	stceq	0, cr0, [r0, #-0]
    51f8:	0005b504 	andeq	fp, r5, r4, lsl #10
    51fc:	004f0800 	subeq	r0, pc, r0, lsl #16
    5200:	05df0000 	ldrbeq	r0, [pc]	; 5208 <__code_start__-0x2df8>
    5204:	c7090000 	strgt	r0, [r9, -r0]
    5208:	02000000 	andeq	r0, r0, #0
    520c:	004f0800 	subeq	r0, pc, r0, lsl #16
    5210:	05ef0000 	strbeq	r0, [pc, #0]!	; 5218 <__code_start__-0x2de8>
    5214:	c7090000 	strgt	r0, [r9, -r0]
    5218:	00000000 	andeq	r0, r0, r0
    521c:	09f00500 	ldmibeq	r0!, {r8, sl}^
    5220:	1d050000 	stcne	0, cr0, [r5, #-0]
    5224:	0002dc01 	andeq	sp, r2, r1, lsl #24
    5228:	0b771900 	bleq	1dcb630 <__bss_end__+0x1dc0978>
    522c:	050c0000 	streq	r0, [ip, #-0]
    5230:	06300121 	ldrteq	r0, [r0], -r1, lsr #2
    5234:	18170000 	ldmdane	r7, {}	; <UNPREDICTABLE>
    5238:	0500000a 	streq	r0, [r0, #-10]
    523c:	06300123 	ldrteq	r0, [r0], -r3, lsr #2
    5240:	17000000 	strne	r0, [r0, -r0]
    5244:	000008f5 	strdeq	r0, [r0], -r5
    5248:	25012405 	strcs	r2, [r1, #-1029]	; 0x405
    524c:	04000000 	streq	r0, [r0], #-0
    5250:	0009ea17 	andeq	lr, r9, r7, lsl sl
    5254:	01250500 	teqeq	r5, r0, lsl #10
    5258:	00000636 	andeq	r0, r0, r6, lsr r6
    525c:	040d0008 	streq	r0, [sp], #-8
    5260:	000005fb 	strdeq	r0, [r0], -fp
    5264:	05ef040d 	strbeq	r0, [pc, #1037]!	; 5679 <__code_start__-0x2987>
    5268:	0e190000 	cdpeq	0, 1, cr0, cr9, cr0, {0}
    526c:	0e000007 	cdpeq	0, 0, cr0, cr0, cr7, {0}
    5270:	71013d05 	tstvc	r1, r5, lsl #26
    5274:	17000006 	strne	r0, [r0, -r6]
    5278:	00000a5e 	andeq	r0, r0, lr, asr sl
    527c:	71013e05 	tstvc	r1, r5, lsl #28
    5280:	00000006 	andeq	r0, r0, r6
    5284:	000a9817 	andeq	r9, sl, r7, lsl r8
    5288:	013f0500 	teqeq	pc, r0, lsl #10
    528c:	00000671 	andeq	r0, r0, r1, ror r6
    5290:	0b1c1706 	bleq	70aeb0 <__bss_end__+0x7001f8>
    5294:	40050000 	andmi	r0, r5, r0
    5298:	00005601 	andeq	r5, r0, r1, lsl #12
    529c:	08000c00 	stmdaeq	r0, {sl, fp}
    52a0:	00000056 	andeq	r0, r0, r6, asr r0
    52a4:	00000681 	andeq	r0, r0, r1, lsl #13
    52a8:	0000c709 	andeq	ip, r0, r9, lsl #14
    52ac:	1a000200 	bne	5ab4 <__code_start__-0x254c>
    52b0:	025705d0 	subseq	r0, r7, #208, 10	; 0x34000000
    52b4:	00000782 	andeq	r0, r0, r2, lsl #15
    52b8:	000b5b17 	andeq	r5, fp, r7, lsl fp
    52bc:	02590500 	subseq	r0, r9, #0, 10
    52c0:	0000002c 	andeq	r0, r0, ip, lsr #32
    52c4:	0b061700 	bleq	18aecc <__bss_end__+0x180214>
    52c8:	5a050000 	bpl	1452d0 <__bss_end__+0x13a618>
    52cc:	00010702 	andeq	r0, r1, r2, lsl #14
    52d0:	11170400 	tstne	r7, r0, lsl #8
    52d4:	05000009 	streq	r0, [r0, #-9]
    52d8:	0782025b 			; <UNDEFINED> instruction: 0x0782025b
    52dc:	17080000 	strne	r0, [r8, -r0]
    52e0:	00000c2a 	andeq	r0, r0, sl, lsr #24
    52e4:	8d025c05 	stchi	12, cr5, [r2, #-20]	; 0xffffffec
    52e8:	24000001 	strcs	r0, [r0], #-1
    52ec:	0008b017 	andeq	fp, r8, r7, lsl r0
    52f0:	025d0500 	subseq	r0, sp, #0, 10
    52f4:	00000025 	andeq	r0, r0, r5, lsr #32
    52f8:	0a131748 	beq	4cb020 <__bss_end__+0x4c0368>
    52fc:	5e050000 	cdppl	0, 0, cr0, cr5, cr0, {0}
    5300:	00006402 	andeq	r6, r0, r2, lsl #8
    5304:	40175000 	andsmi	r5, r7, r0
    5308:	0500000c 	streq	r0, [r0, #-12]
    530c:	063c025f 			; <UNDEFINED> instruction: 0x063c025f
    5310:	17580000 	ldrbne	r0, [r8, -r0]
    5314:	00000a1e 	andeq	r0, r0, lr, lsl sl
    5318:	ef026005 	svc	0x00026005
    531c:	68000000 	stmdavs	r0, {}	; <UNPREDICTABLE>
    5320:	000c4517 	andeq	r4, ip, r7, lsl r5
    5324:	02610500 	rsbeq	r0, r1, #0, 10
    5328:	000000ef 	andeq	r0, r0, pc, ror #1
    532c:	07731770 			; <UNDEFINED> instruction: 0x07731770
    5330:	62050000 	andvs	r0, r5, #0
    5334:	0000ef02 	andeq	lr, r0, r2, lsl #30
    5338:	97177800 	ldrls	r7, [r7, -r0, lsl #16]
    533c:	0500000b 	streq	r0, [r0, #-11]
    5340:	07920263 	ldreq	r0, [r2, r3, ror #4]
    5344:	17800000 	strne	r0, [r0, r0]
    5348:	00000905 	andeq	r0, r0, r5, lsl #18
    534c:	a2026405 	andge	r6, r2, #83886080	; 0x5000000
    5350:	88000007 	stmdahi	r0, {r0, r1, r2}
    5354:	000b2917 	andeq	r2, fp, r7, lsl r9
    5358:	02650500 	rsbeq	r0, r5, #0, 10
    535c:	00000025 	andeq	r0, r0, r5, lsr #32
    5360:	085c17a0 	ldmdaeq	ip, {r5, r7, r8, r9, sl, ip}^
    5364:	66050000 	strvs	r0, [r5], -r0
    5368:	0000ef02 	andeq	lr, r0, r2, lsl #30
    536c:	6417a400 	ldrvs	sl, [r7], #-1024	; 0x400
    5370:	05000007 	streq	r0, [r0, #-7]
    5374:	00ef0267 	rsceq	r0, pc, r7, ror #4
    5378:	17ac0000 	strne	r0, [ip, r0]!
    537c:	0000084b 	andeq	r0, r0, fp, asr #16
    5380:	ef026805 	svc	0x00026805
    5384:	b4000000 	strlt	r0, [r0], #-0
    5388:	00072b17 	andeq	r2, r7, r7, lsl fp
    538c:	02690500 	rsbeq	r0, r9, #0, 10
    5390:	000000ef 	andeq	r0, r0, pc, ror #1
    5394:	073a17bc 			; <UNDEFINED> instruction: 0x073a17bc
    5398:	6a050000 	bvs	1453a0 <__bss_end__+0x13a6e8>
    539c:	0000ef02 	andeq	lr, r0, r2, lsl #30
    53a0:	d017c400 	andsle	ip, r7, r0, lsl #8
    53a4:	05000009 	streq	r0, [r0, #-9]
    53a8:	0025026b 	eoreq	r0, r5, fp, ror #4
    53ac:	00cc0000 	sbceq	r0, ip, r0
    53b0:	00010d08 	andeq	r0, r1, r8, lsl #26
    53b4:	00079200 	andeq	r9, r7, r0, lsl #4
    53b8:	00c70900 	sbceq	r0, r7, r0, lsl #18
    53bc:	00190000 	andseq	r0, r9, r0
    53c0:	00010d08 	andeq	r0, r1, r8, lsl #26
    53c4:	0007a200 	andeq	sl, r7, r0, lsl #4
    53c8:	00c70900 	sbceq	r0, r7, r0, lsl #18
    53cc:	00070000 	andeq	r0, r7, r0
    53d0:	00010d08 	andeq	r0, r1, r8, lsl #26
    53d4:	0007b200 	andeq	fp, r7, r0, lsl #4
    53d8:	00c70900 	sbceq	r0, r7, r0, lsl #18
    53dc:	00170000 	andseq	r0, r7, r0
    53e0:	7005f01a 	andvc	pc, r5, sl, lsl r0	; <UNPREDICTABLE>
    53e4:	0007d602 	andeq	sp, r7, r2, lsl #12
    53e8:	09801700 	stmibeq	r0, {r8, r9, sl, ip}
    53ec:	73050000 	movwvc	r0, #20480	; 0x5000
    53f0:	0007d602 	andeq	sp, r7, r2, lsl #12
    53f4:	8e170000 	cdphi	0, 1, cr0, cr7, cr0, {0}
    53f8:	0500000b 	streq	r0, [r0, #-11]
    53fc:	07e60274 			; <UNDEFINED> instruction: 0x07e60274
    5400:	00780000 	rsbseq	r0, r8, r0
    5404:	0002d608 	andeq	sp, r2, r8, lsl #12
    5408:	0007e600 	andeq	lr, r7, r0, lsl #12
    540c:	00c70900 	sbceq	r0, r7, r0, lsl #18
    5410:	001d0000 	andseq	r0, sp, r0
    5414:	00002c08 	andeq	r2, r0, r8, lsl #24
    5418:	0007f600 	andeq	pc, r7, r0, lsl #12
    541c:	00c70900 	sbceq	r0, r7, r0, lsl #18
    5420:	001d0000 	andseq	r0, sp, r0
    5424:	5505f01b 	strpl	pc, [r5, #-27]
    5428:	00081802 	andeq	r1, r8, r2, lsl #16
    542c:	0a571c00 	beq	15cc434 <__bss_end__+0x15c177c>
    5430:	6c050000 	stcvs	0, cr0, [r5], {-0}
    5434:	00068102 	andeq	r8, r6, r2, lsl #2
    5438:	0bea1c00 	bleq	ffa8c440 <__bss_end__+0xffa81788>
    543c:	75050000 	strvc	r0, [r5, #-0]
    5440:	0007b202 	andeq	fp, r7, r2, lsl #4
    5444:	0d080000 	stceq	0, cr0, [r8, #-0]
    5448:	28000001 	stmdacs	r0, {r0}
    544c:	09000008 	stmdbeq	r0, {r3}
    5450:	000000c7 	andeq	r0, r0, r7, asr #1
    5454:	331d0018 	tstcc	sp, #24
    5458:	15000008 	strne	r0, [r0, #-8]
    545c:	00000424 	andeq	r0, r0, r4, lsr #8
    5460:	28040d00 	stmdacs	r4, {r8, sl, fp}
    5464:	0d000008 	stceq	0, cr0, [r0, #-32]	; 0xffffffe0
    5468:	00017704 	andeq	r7, r1, r4, lsl #14
    546c:	084a1d00 	stmdaeq	sl, {r8, sl, fp, ip}^
    5470:	25150000 	ldrcs	r0, [r5, #-0]
    5474:	00000000 	andeq	r0, r0, r0
    5478:	0850040d 	ldmdaeq	r0, {r0, r2, r3, sl}^
    547c:	040d0000 	streq	r0, [sp], #-0
    5480:	0000083f 	andeq	r0, r0, pc, lsr r8
    5484:	0005ef08 	andeq	lr, r5, r8, lsl #30
    5488:	00086600 	andeq	r6, r8, r0, lsl #12
    548c:	00c70900 	sbceq	r0, r7, r0, lsl #18
    5490:	00020000 	andeq	r0, r2, r0
    5494:	000b3d1e 	andeq	r3, fp, lr, lsl sp
    5498:	02fd0500 	rscseq	r0, sp, #0, 10
    549c:	00000424 	andeq	r0, r0, r4, lsr #8
    54a0:	000b361e 	andeq	r3, fp, lr, lsl r6
    54a4:	02fe0500 	rscseq	r0, lr, #0, 10
    54a8:	0000042a 	andeq	r0, r0, sl, lsr #8
    54ac:	00002514 	andeq	r2, r0, r4, lsl r5
    54b0:	00088d00 	andeq	r8, r8, r0, lsl #26
    54b4:	00251500 	eoreq	r1, r5, r0, lsl #10
    54b8:	1f000000 	svcne	0x00000000
    54bc:	00000540 	andeq	r0, r0, r0, asr #10
    54c0:	08981d06 	ldmeq	r8, {r1, r2, r8, sl, fp, ip}
    54c4:	040d0000 	streq	r0, [sp], #-0
    54c8:	0000087e 	andeq	r0, r0, lr, ror r8
    54cc:	00002514 	andeq	r2, r0, r4, lsl r5
    54d0:	0008ad00 	andeq	sl, r8, r0, lsl #26
    54d4:	05851500 	streq	r1, [r5, #1280]	; 0x500
    54d8:	1f000000 	svcne	0x00000000
    54dc:	0000057d 	andeq	r0, r0, sp, ror r5
    54e0:	08b82206 	ldmeq	r8!, {r1, r2, r9, sp}
    54e4:	040d0000 	streq	r0, [sp], #-0
    54e8:	0000089e 	muleq	r0, lr, r8
    54ec:	0c040803 	stceq	8, cr0, [r4], {3}
    54f0:	1f00000d 	svcne	0x0000000d
    54f4:	00000d44 	andeq	r0, r0, r4, asr #26
    54f8:	010d0d01 	tsteq	sp, r1, lsl #26
    54fc:	26200000 	strtcs	r0, [r0], -r0
    5500:	01000004 	tsteq	r0, r4
    5504:	0001070e 	andeq	r0, r1, lr, lsl #14
    5508:	18030500 	stmdane	r3, {r8, sl}
    550c:	2000009d 	mulcs	r0, sp, r0
    5510:	00000d5b 	andeq	r0, r0, fp, asr sp
    5514:	01070f01 	tsteq	r7, r1, lsl #30
    5518:	03050000 	movweq	r0, #20480	; 0x5000
    551c:	00009d1c 	andeq	r9, r0, ip, lsl sp
    5520:	000d1d21 	andeq	r1, sp, r1, lsr #26
    5524:	e8380100 	ldmda	r8!, {r8}
    5528:	1000009c 	mulne	r0, ip, r0
    552c:	01000000 	mrseq	r0, (UNDEF: 0)
    5530:	0009139c 	muleq	r9, ip, r3
    5534:	00702200 	rsbseq	r2, r0, r0, lsl #4
    5538:	01053801 	tsteq	r5, r1, lsl #16
    553c:	50010000 	andpl	r0, r1, r0
    5540:	0d132300 	ldceq	3, cr2, [r3, #-0]
    5544:	37010000 	strcc	r0, [r1, -r0]
    5548:	00009cd4 	ldrdeq	r9, [r0], -r4
    554c:	00000014 	andeq	r0, r0, r4, lsl r0
    5550:	67219c01 	strvs	r9, [r1, -r1, lsl #24]!
    5554:	01000002 	tsteq	r0, r2
    5558:	009cd036 	addseq	sp, ip, r6, lsr r0
    555c:	00000400 	andeq	r0, r0, r0, lsl #8
    5560:	459c0100 	ldrmi	r0, [ip, #256]	; 0x100
    5564:	22000009 	andcs	r0, r0, #9
    5568:	36010070 			; <UNDEFINED> instruction: 0x36010070
    556c:	00000105 	andeq	r0, r0, r5, lsl #2
    5570:	24005001 	strcs	r5, [r0], #-1
    5574:	00000cfc 	strdeq	r0, [r0], -ip
    5578:	01052901 	tsteq	r5, r1, lsl #18
    557c:	9c440000 	marls	acc0, r0, r4
    5580:	008c0000 	addeq	r0, ip, r0
    5584:	9c010000 	stcls	0, cr0, [r1], {-0}
    5588:	00000a30 	andeq	r0, r0, r0, lsr sl
    558c:	00034b25 	andeq	r4, r3, r5, lsr #22
    5590:	2c290100 	stfcss	f0, [r9], #-0
    5594:	4d000000 	stcmi	0, cr0, [r0, #-0]
    5598:	25000016 	strcs	r0, [r0, #-22]
    559c:	00000d3a 	andeq	r0, r0, sl, lsr sp
    55a0:	002c2901 	eoreq	r2, ip, r1, lsl #18
    55a4:	16a00000 	strtne	r0, [r0], r0
    55a8:	3b260000 	blcc	9855b0 <__bss_end__+0x97a8f8>
    55ac:	40000001 	andmi	r0, r0, r1
    55b0:	0500000a 	streq	r0, [r0, #-10]
    55b4:	00a78c03 	adceq	r8, r7, r3, lsl #24
    55b8:	00682700 	rsbeq	r2, r8, r0, lsl #14
    55bc:	002c2e01 	eoreq	r2, ip, r1, lsl #28
    55c0:	16e70000 	strbtne	r0, [r7], r0
    55c4:	80280000 	eorhi	r0, r8, r0
    55c8:	7900009c 	stmdbvc	r0, {r2, r3, r4, r7}
    55cc:	ad00000a 	stcge	0, cr0, [r0, #-40]	; 0xffffffd8
    55d0:	29000009 	stmdbcs	r0, {r0, r3}
    55d4:	f3035001 	vhadd.u8	d5, d3, d1
    55d8:	2a005001 	bcs	195e4 <__bss_end__+0xe92c>
    55dc:	00009c88 	andeq	r9, r0, r8, lsl #25
    55e0:	00000bfb 	strdeq	r0, [r0], -fp
    55e4:	009c9c28 	addseq	r9, ip, r8, lsr #24
    55e8:	000c0600 	andeq	r0, ip, r0, lsl #12
    55ec:	0009e500 	andeq	lr, r9, r0, lsl #10
    55f0:	50012900 	andpl	r2, r1, r0, lsl #18
    55f4:	a7d80305 	ldrbge	r0, [r8, r5, lsl #6]
    55f8:	01290000 	teqeq	r9, r0
    55fc:	9c030551 	cfstr32ls	mvfx0, [r3], {81}	; 0x51
    5600:	290000a7 	stmdbcs	r0, {r0, r1, r2, r5, r7}
    5604:	03055201 	movweq	r5, #20993	; 0x5201
    5608:	0000a78c 	andeq	sl, r0, ip, lsl #15
    560c:	02530129 	subseq	r0, r3, #1073741834	; 0x4000000a
    5610:	2a002a08 	bcs	fe38 <__bss_end__+0x5180>
    5614:	00009ca0 	andeq	r9, r0, r0, lsr #25
    5618:	00000c11 	andeq	r0, r0, r1, lsl ip
    561c:	009ca42a 	addseq	sl, ip, sl, lsr #8
    5620:	000bfb00 	andeq	pc, fp, r0, lsl #22
    5624:	9cb82800 	ldcls	8, cr2, [r8]
    5628:	0c060000 	stceq	0, cr0, [r6], {-0}
    562c:	0a260000 	beq	985634 <__bss_end__+0x97a97c>
    5630:	01290000 	teqeq	r9, r0
    5634:	38030550 	stmdacc	r3, {r4, r6, r8, sl}
    5638:	290000a8 	stmdbcs	r0, {r3, r5, r7}
    563c:	03055101 	movweq	r5, #20737	; 0x5101
    5640:	0000a79c 	muleq	r0, ip, r7
    5644:	05520129 	ldrbeq	r0, [r2, #-297]	; 0x129
    5648:	00a78c03 	adceq	r8, r7, r3, lsl #24
    564c:	53012900 	movwpl	r2, #6400	; 0x1900
    5650:	00300802 	eorseq	r0, r0, r2, lsl #16
    5654:	009cbc2a 	addseq	fp, ip, sl, lsr #24
    5658:	000c1100 	andeq	r1, ip, r0, lsl #2
    565c:	14080000 	strne	r0, [r8], #-0
    5660:	40000001 	andmi	r0, r0, r1
    5664:	0900000a 	stmdbeq	r0, {r1, r3}
    5668:	000000c7 	andeq	r0, r0, r7, asr #1
    566c:	300e000f 	andcc	r0, lr, pc
    5670:	2400000a 	strcs	r0, [r0], #-10
    5674:	00000d29 	andeq	r0, r0, r9, lsr #26
    5678:	01052501 	tsteq	r5, r1, lsl #10
    567c:	9c380000 	ldcls	0, cr0, [r8], #-0
    5680:	000c0000 	andeq	r0, ip, r0
    5684:	9c010000 	stcls	0, cr0, [r1], {-0}
    5688:	00000a68 	andeq	r0, r0, r8, ror #20
    568c:	009c402a 	addseq	r4, ip, sl, lsr #32
    5690:	000bd100 	andeq	sp, fp, r0, lsl #2
    5694:	ef230000 	svc	0x00230000
    5698:	0100000c 	tsteq	r0, ip
    569c:	009c3424 	addseq	r3, ip, r4, lsr #8
    56a0:	00000400 	andeq	r0, r0, r0, lsl #8
    56a4:	249c0100 	ldrcs	r0, [ip], #256	; 0x100
    56a8:	0000010f 	andeq	r0, r0, pc, lsl #2
    56ac:	01051a01 	tsteq	r5, r1, lsl #20
    56b0:	9bd00000 	blls	ff4056b8 <__bss_end__+0xff3faa00>
    56b4:	00640000 	rsbeq	r0, r4, r0
    56b8:	9c010000 	stcls	0, cr0, [r1], {-0}
    56bc:	00000b24 	andeq	r0, r0, r4, lsr #22
    56c0:	007a732b 	rsbseq	r7, sl, fp, lsr #6
    56c4:	002c1a01 	eoreq	r1, ip, r1, lsl #20
    56c8:	171f0000 	ldrne	r0, [pc, -r0]
    56cc:	3b260000 	blcc	9856d4 <__bss_end__+0x97aa1c>
    56d0:	34000001 	strcc	r0, [r0], #-1
    56d4:	0500000b 	streq	r0, [r0, #-11]
    56d8:	00a78403 	adceq	r8, r7, r3, lsl #8
    56dc:	01d82c00 	bicseq	r2, r8, r0, lsl #24
    56e0:	1e010000 	cdpne	0, 0, cr0, cr1, cr0, {0}
    56e4:	00000105 	andeq	r0, r0, r5, lsl #2
    56e8:	00001769 	andeq	r1, r0, r9, ror #14
    56ec:	009c0028 	addseq	r0, ip, r8, lsr #32
    56f0:	000c1c00 	andeq	r1, ip, r0, lsl #24
    56f4:	000ae300 	andeq	lr, sl, r0, lsl #6
    56f8:	50012900 	andpl	r2, r1, r0, lsl #18
    56fc:	29007402 	stmdbcs	r0, {r1, sl, ip, sp, lr}
    5700:	30015101 	andcc	r5, r1, r1, lsl #2
    5704:	08520129 	ldmdaeq	r2, {r0, r3, r5, r8}^
    5708:	235001f3 	cmpcs	r0, #-1073741764	; 0xc000003c
    570c:	1af80907 	bne	ffe07b30 <__bss_end__+0xffdfce78>
    5710:	9c0c2a00 	stcls	10, cr2, [ip], {-0}
    5714:	0bfb0000 	bleq	ffec571c <__bss_end__+0xffebaa64>
    5718:	20280000 	eorcs	r0, r8, r0
    571c:	0600009c 			; <UNDEFINED> instruction: 0x0600009c
    5720:	1a00000c 	bne	5758 <__code_start__-0x28a8>
    5724:	2900000b 	stmdbcs	r0, {r0, r1, r3}
    5728:	03055001 	movweq	r5, #20481	; 0x5001
    572c:	0000a7c4 	andeq	sl, r0, r4, asr #15
    5730:	05510129 	ldrbeq	r0, [r1, #-297]	; 0x129
    5734:	00a79c03 	adceq	r9, r7, r3, lsl #24
    5738:	52012900 	andpl	r2, r1, #0, 18
    573c:	a7840305 	strge	r0, [r4, r5, lsl #6]
    5740:	01290000 	teqeq	r9, r0
    5744:	004b0153 	subeq	r0, fp, r3, asr r1
    5748:	009c242a 	addseq	r2, ip, sl, lsr #8
    574c:	000c1100 	andeq	r1, ip, r0, lsl #2
    5750:	14080000 	strne	r0, [r8], #-0
    5754:	34000001 	strcc	r0, [r0], #-1
    5758:	0900000b 	stmdbeq	r0, {r0, r1, r3}
    575c:	000000c7 	andeq	r0, r0, r7, asr #1
    5760:	240e0007 	strcs	r0, [lr], #-7
    5764:	2100000b 	tstcs	r0, fp
    5768:	00000191 	muleq	r0, r1, r1
    576c:	9b801401 	blls	fe00a778 <__bss_end__+0xfdfffac0>
    5770:	00500000 	subseq	r0, r0, r0
    5774:	9c010000 	stcls	0, cr0, [r1], {-0}
    5778:	00000bbc 			; <UNDEFINED> instruction: 0x00000bbc
    577c:	0001d725 	andeq	sp, r1, r5, lsr #14
    5780:	2c140100 	ldfcss	f0, [r4], {-0}
    5784:	7c000000 	stcvc	0, cr0, [r0], {-0}
    5788:	2c000017 	stccs	0, cr0, [r0], {23}
    578c:	000001d8 	ldrdeq	r0, [r0], -r8
    5790:	01071501 	tsteq	r7, r1, lsl #10
    5794:	179d0000 	ldrne	r0, [sp, r0]
    5798:	3b260000 	blcc	9857a0 <__bss_end__+0x97aae8>
    579c:	cc000001 	stcgt	0, cr0, [r0], {1}
    57a0:	0500000b 	streq	r0, [r0, #-11]
    57a4:	00a76c03 	adceq	r6, r7, r3, lsl #24
    57a8:	9ba82a00 	blls	fea0ffb0 <__bss_end__+0xfea052f8>
    57ac:	0bfb0000 	bleq	ffec57b4 <__bss_end__+0xffebaafc>
    57b0:	bc280000 	stclt	0, cr0, [r8], #-0
    57b4:	0600009b 			; <UNDEFINED> instruction: 0x0600009b
    57b8:	b200000c 	andlt	r0, r0, #12
    57bc:	2900000b 	stmdbcs	r0, {r0, r1, r3}
    57c0:	03055001 	movweq	r5, #20481	; 0x5001
    57c4:	0000a7a8 	andeq	sl, r0, r8, lsr #15
    57c8:	05510129 	ldrbeq	r0, [r1, #-297]	; 0x129
    57cc:	00a79c03 	adceq	r9, r7, r3, lsl #24
    57d0:	52012900 	andpl	r2, r1, #0, 18
    57d4:	a76c0305 	strbge	r0, [ip, -r5, lsl #6]!
    57d8:	01290000 	teqeq	r9, r0
    57dc:	00460153 	subeq	r0, r6, r3, asr r1
    57e0:	009bc02a 	addseq	ip, fp, sl, lsr #32
    57e4:	000c1100 	andeq	r1, ip, r0, lsl #2
    57e8:	14080000 	strne	r0, [r8], #-0
    57ec:	cc000001 	stcgt	0, cr0, [r0], {1}
    57f0:	0900000b 	stmdbeq	r0, {r0, r1, r3}
    57f4:	000000c7 	andeq	r0, r0, r7, asr #1
    57f8:	bc0e0016 	stclt	0, cr0, [lr], {22}
    57fc:	2d00000b 	stccs	0, cr0, [r0, #-44]	; 0xffffffd4
    5800:	00000d53 	andeq	r0, r0, r3, asr sp
    5804:	01051201 	tsteq	r5, r1, lsl #4
    5808:	9b740000 	blls	1d05810 <__bss_end__+0x1cfab58>
    580c:	000c0000 	andeq	r0, ip, r0
    5810:	9c010000 	stcls	0, cr0, [r1], {-0}
    5814:	000d662d 	andeq	r6, sp, sp, lsr #12
    5818:	05110100 	ldreq	r0, [r1, #-256]	; 0x100
    581c:	64000001 	strvs	r0, [r0], #-1
    5820:	1000009b 	mulne	r0, fp, r0
    5824:	01000000 	mrseq	r0, (UNDEF: 0)
    5828:	01172e9c 			; <UNDEFINED> instruction: 0x01172e9c
    582c:	01170000 	tsteq	r7, r0
    5830:	1e060000 	cdpne	0, 0, cr0, cr6, cr0, {0}
    5834:	00050f2e 	andeq	r0, r5, lr, lsr #30
    5838:	00050f00 	andeq	r0, r5, r0, lsl #30
    583c:	2e290600 	cfmadda32cs	mvax0, mvax0, mvfx9, mvfx0
    5840:	000000ef 	andeq	r0, r0, pc, ror #1
    5844:	000000ef 	andeq	r0, r0, pc, ror #1
    5848:	342e6506 	strtcc	r6, [lr], #-1286	; 0x506
    584c:	34000001 	strcc	r0, [r0], #-1
    5850:	07000001 	streq	r0, [r0, -r1]
    5854:	Address 0x0000000000005854 is out of bounds.


Disassembly of section .debug_abbrev:

00000000 <.debug_abbrev>:
       0:	25011101 	strcs	r1, [r1, #-257]	; 0x101
       4:	030b130e 	movweq	r1, #45838	; 0xb30e
       8:	110e1b0e 	tstne	lr, lr, lsl #22
       c:	10061201 	andne	r1, r6, r1, lsl #4
      10:	02000017 	andeq	r0, r0, #23
      14:	0b0b0024 	bleq	2c00ac <__bss_end__+0x2b53f4>
      18:	08030b3e 	stmdaeq	r3, {r1, r2, r3, r4, r5, r8, r9, fp}
      1c:	16030000 	strne	r0, [r3], -r0
      20:	3a0e0300 	bcc	380c28 <__bss_end__+0x375f70>
      24:	490b3b0b 	stmdbmi	fp, {r0, r1, r3, r8, r9, fp, ip, sp}
      28:	04000013 	streq	r0, [r0], #-19
      2c:	0b0b0024 	bleq	2c00c4 <__bss_end__+0x2b540c>
      30:	0e030b3e 	vmoveq.16	d3[0], r0
      34:	0f050000 	svceq	0x00050000
      38:	000b0b00 	andeq	r0, fp, r0, lsl #22
      3c:	000f0600 	andeq	r0, pc, r0, lsl #12
      40:	13490b0b 	movtne	r0, #39691	; 0x9b0b
      44:	26070000 	strcs	r0, [r7], -r0
      48:	00134900 	andseq	r4, r3, r0, lsl #18
      4c:	01010800 	tsteq	r1, r0, lsl #16
      50:	13011349 	movwne	r1, #4937	; 0x1349
      54:	21090000 	mrscs	r0, (UNDEF: 9)
      58:	2f134900 	svccs	0x00134900
      5c:	0a00000b 	beq	90 <__code_start__-0x7f70>
      60:	193f012e 	ldmdbne	pc!, {r1, r2, r3, r5, r8}	; <UNPREDICTABLE>
      64:	0b3a0e03 	bleq	e83878 <__bss_end__+0xe78bc0>
      68:	19270b3b 	stmdbne	r7!, {r0, r1, r3, r4, r5, r8, r9, fp}
      6c:	01111349 	tsteq	r1, r9, asr #6
      70:	18400612 	stmdane	r0, {r1, r4, r9, sl}^
      74:	01194297 			; <UNDEFINED> instruction: 0x01194297
      78:	0b000013 	bleq	cc <__code_start__-0x7f34>
      7c:	08030034 	stmdaeq	r3, {r2, r4, r5}
      80:	0b3b0b3a 	bleq	ec2d70 <__bss_end__+0xeb80b8>
      84:	17021349 	strne	r1, [r2, -r9, asr #6]
      88:	340c0000 	strcc	r0, [ip], #-0
      8c:	490e0300 	stmdbmi	lr, {r8, r9}
      90:	02193413 	andseq	r3, r9, #318767104	; 0x13000000
      94:	0d000018 	stceq	0, cr0, [r0, #-96]	; 0xffffffa0
      98:	01018289 	smlabbeq	r1, r9, r2, r8
      9c:	13310111 	teqne	r1, #1073741828	; 0x40000004
      a0:	00001301 	andeq	r1, r0, r1, lsl #6
      a4:	01828a0e 	orreq	r8, r2, lr, lsl #20
      a8:	91180200 	tstls	r8, r0, lsl #4
      ac:	00001842 	andeq	r1, r0, r2, asr #16
      b0:	0182890f 	orreq	r8, r2, pc, lsl #18
      b4:	31011101 	tstcc	r1, r1, lsl #2
      b8:	10000013 	andne	r0, r0, r3, lsl r0
      bc:	193f012e 	ldmdbne	pc!, {r1, r2, r3, r5, r8}	; <UNPREDICTABLE>
      c0:	0b3a0e03 	bleq	e838d4 <__bss_end__+0xe78c1c>
      c4:	19270b3b 	stmdbne	r7!, {r0, r1, r3, r4, r5, r8, r9, fp}
      c8:	06120111 			; <UNDEFINED> instruction: 0x06120111
      cc:	42971840 	addsmi	r1, r7, #64, 16	; 0x400000
      d0:	00130119 	andseq	r0, r3, r9, lsl r1
      d4:	00341100 	eorseq	r1, r4, r0, lsl #2
      d8:	0b3a0803 	bleq	e820ec <__bss_end__+0xe77434>
      dc:	13490b3b 	movtne	r0, #39739	; 0x9b3b
      e0:	0000061c 	andeq	r0, r0, ip, lsl r6
      e4:	01828912 	orreq	r8, r2, r2, lsl r9
      e8:	31011100 	mrscc	r1, (UNDEF: 17)
      ec:	13000013 	movwne	r0, #19
      f0:	193f012e 	ldmdbne	pc!, {r1, r2, r3, r5, r8}	; <UNPREDICTABLE>
      f4:	0b3a0e03 	bleq	e83908 <__bss_end__+0xe78c50>
      f8:	19270b3b 	stmdbne	r7!, {r0, r1, r3, r4, r5, r8, r9, fp}
      fc:	193c1349 	ldmdbne	ip!, {r0, r3, r6, r8, r9, ip}
     100:	00001301 	andeq	r1, r0, r1, lsl #6
     104:	49000514 	stmdbmi	r0, {r2, r4, r8, sl}
     108:	15000013 	strne	r0, [r0, #-19]
     10c:	00000018 	andeq	r0, r0, r8, lsl r0
     110:	3f012e16 	svccc	0x00012e16
     114:	3a0e0319 	bcc	380d80 <__bss_end__+0x3760c8>
     118:	270b3b0b 	strcs	r3, [fp, -fp, lsl #22]
     11c:	01193c19 	tsteq	r9, r9, lsl ip
     120:	17000013 	smladne	r0, r3, r0, r0
     124:	193f002e 	ldmdbne	pc!, {r1, r2, r3, r5}	; <UNPREDICTABLE>
     128:	0b3a0e03 	bleq	e8393c <__bss_end__+0xe78c84>
     12c:	19270b3b 	stmdbne	r7!, {r0, r1, r3, r4, r5, r8, r9, fp}
     130:	193c1349 	ldmdbne	ip!, {r0, r3, r6, r8, r9, ip}
     134:	2e180000 	cdpcs	0, 1, cr0, cr8, cr0, {0}
     138:	03193f00 	tsteq	r9, #0, 30
     13c:	3b0b3a0e 	blcc	2ce97c <__bss_end__+0x2c3cc4>
     140:	3c19270b 	ldccc	7, cr2, [r9], {11}
     144:	19000019 	stmdbne	r0, {r0, r3, r4}
     148:	193f012e 	ldmdbne	pc!, {r1, r2, r3, r5, r8}	; <UNPREDICTABLE>
     14c:	0b3a0e03 	bleq	e83960 <__bss_end__+0xe78ca8>
     150:	19270b3b 	stmdbne	r7!, {r0, r1, r3, r4, r5, r8, r9, fp}
     154:	193c1349 	ldmdbne	ip!, {r0, r3, r6, r8, r9, ip}
     158:	01000000 	mrseq	r0, (UNDEF: 0)
     15c:	0e250111 	mcreq	1, 1, r0, cr5, cr1, {0}
     160:	0e030b13 	vmoveq.32	d3[0], r0
     164:	01110e1b 	tsteq	r1, fp, lsl lr
     168:	17100612 			; <UNDEFINED> instruction: 0x17100612
     16c:	24020000 	strcs	r0, [r2], #-0
     170:	3e0b0b00 	vmlacc.f64	d0, d11, d0
     174:	0008030b 	andeq	r0, r8, fp, lsl #6
     178:	00160300 	andseq	r0, r6, r0, lsl #6
     17c:	0b3a0e03 	bleq	e83990 <__bss_end__+0xe78cd8>
     180:	13490b3b 	movtne	r0, #39739	; 0x9b3b
     184:	24040000 	strcs	r0, [r4], #-0
     188:	3e0b0b00 	vmlacc.f64	d0, d11, d0
     18c:	000e030b 	andeq	r0, lr, fp, lsl #6
     190:	000f0500 	andeq	r0, pc, r0, lsl #10
     194:	00000b0b 	andeq	r0, r0, fp, lsl #22
     198:	0b000f06 	bleq	3db8 <__code_start__-0x4248>
     19c:	0013490b 	andseq	r4, r3, fp, lsl #18
     1a0:	00260700 	eoreq	r0, r6, r0, lsl #14
     1a4:	00001349 	andeq	r1, r0, r9, asr #6
     1a8:	49010108 	stmdbmi	r1, {r3, r8}
     1ac:	00130113 	andseq	r0, r3, r3, lsl r1
     1b0:	00210900 	eoreq	r0, r1, r0, lsl #18
     1b4:	0b2f1349 	bleq	bc4ee0 <__bss_end__+0xbba228>
     1b8:	040a0000 	streq	r0, [sl], #-0
     1bc:	3a0b0b01 	bcc	2c2dc8 <__bss_end__+0x2b8110>
     1c0:	010b3b0b 	tsteq	fp, fp, lsl #22
     1c4:	0b000013 	bleq	218 <__code_start__-0x7de8>
     1c8:	0e030028 	cdpeq	0, 0, cr0, cr3, cr8, {1}
     1cc:	00000d1c 	andeq	r0, r0, ip, lsl sp
     1d0:	0b01130c 	bleq	44e08 <__bss_end__+0x3a150>
     1d4:	3b0b3a0b 	blcc	2cea08 <__bss_end__+0x2c3d50>
     1d8:	0013010b 	andseq	r0, r3, fp, lsl #2
     1dc:	000d0d00 	andeq	r0, sp, r0, lsl #26
     1e0:	0b3a0e03 	bleq	e839f4 <__bss_end__+0xe78d3c>
     1e4:	13490b3b 	movtne	r0, #39739	; 0x9b3b
     1e8:	00000b38 	andeq	r0, r0, r8, lsr fp
     1ec:	0301130e 	movweq	r1, #4878	; 0x130e
     1f0:	3a0b0b0e 	bcc	2c2e30 <__bss_end__+0x2b8178>
     1f4:	010b3b0b 	tsteq	fp, fp, lsl #22
     1f8:	0f000013 	svceq	0x00000013
     1fc:	0e03012e 	adfeqsp	f0, f3, #0.5
     200:	0b3b0b3a 	bleq	ec2ef0 <__bss_end__+0xeb8238>
     204:	13491927 	movtne	r1, #39207	; 0x9927
     208:	13010b20 	movwne	r0, #6944	; 0x1b20
     20c:	05100000 	ldreq	r0, [r0, #-0]
     210:	3a080300 	bcc	200e18 <__bss_end__+0x1f6160>
     214:	490b3b0b 	stmdbmi	fp, {r0, r1, r3, r8, r9, fp, ip, sp}
     218:	11000013 	tstne	r0, r3, lsl r0
     21c:	0e030005 	cdpeq	0, 0, cr0, cr3, cr5, {0}
     220:	0b3b0b3a 	bleq	ec2f10 <__bss_end__+0xeb8258>
     224:	00001349 	andeq	r1, r0, r9, asr #6
     228:	03012e12 	movweq	r2, #7698	; 0x1e12
     22c:	3b0b3a0e 	blcc	2cea6c <__bss_end__+0x2c3db4>
     230:	2019270b 	andscs	r2, r9, fp, lsl #14
     234:	0013010b 	andseq	r0, r3, fp, lsl #2
     238:	00341300 	eorseq	r1, r4, r0, lsl #6
     23c:	0b3a0803 	bleq	e82250 <__bss_end__+0xe77598>
     240:	13490b3b 	movtne	r0, #39739	; 0x9b3b
     244:	2e140000 	cdpcs	0, 1, cr0, cr4, cr0, {0}
     248:	3a0e0301 	bcc	380e54 <__bss_end__+0x37619c>
     24c:	270b3b0b 	strcs	r3, [fp, -fp, lsl #22]
     250:	11134919 	tstne	r3, r9, lsl r9
     254:	40061201 	andmi	r1, r6, r1, lsl #4
     258:	19429718 	stmdbne	r2, {r3, r4, r8, r9, sl, ip, pc}^
     25c:	00001301 	andeq	r1, r0, r1, lsl #6
     260:	03000515 	movweq	r0, #1301	; 0x515
     264:	3b0b3a08 	blcc	2cea8c <__bss_end__+0x2c3dd4>
     268:	0213490b 	andseq	r4, r3, #180224	; 0x2c000
     26c:	16000017 			; <UNDEFINED> instruction: 0x16000017
     270:	0e030005 	cdpeq	0, 0, cr0, cr3, cr5, {0}
     274:	0b3b0b3a 	bleq	ec2f64 <__bss_end__+0xeb82ac>
     278:	17021349 	strne	r1, [r2, -r9, asr #6]
     27c:	34170000 	ldrcc	r0, [r7], #-0
     280:	3a080300 	bcc	200e88 <__bss_end__+0x1f61d0>
     284:	490b3b0b 	stmdbmi	fp, {r0, r1, r3, r8, r9, fp, ip, sp}
     288:	00170213 	andseq	r0, r7, r3, lsl r2
     28c:	010b1800 	tsteq	fp, r0, lsl #16
     290:	06120111 			; <UNDEFINED> instruction: 0x06120111
     294:	34190000 	ldrcc	r0, [r9], #-0
     298:	3a0e0300 	bcc	380ea0 <__bss_end__+0x3761e8>
     29c:	490b3b0b 	stmdbmi	fp, {r0, r1, r3, r8, r9, fp, ip, sp}
     2a0:	00180213 	andseq	r0, r8, r3, lsl r2
     2a4:	00341a00 	eorseq	r1, r4, r0, lsl #20
     2a8:	0b3a0e03 	bleq	e83abc <__bss_end__+0xe78e04>
     2ac:	13490b3b 	movtne	r0, #39739	; 0x9b3b
     2b0:	00001702 	andeq	r1, r0, r2, lsl #14
     2b4:	31011d1b 	tstcc	r1, fp, lsl sp
     2b8:	12011113 	andne	r1, r1, #-1073741820	; 0xc0000004
     2bc:	590b5806 	stmdbpl	fp, {r1, r2, fp, ip, lr}
     2c0:	0013010b 	andseq	r0, r3, fp, lsl #2
     2c4:	00051c00 	andeq	r1, r5, r0, lsl #24
     2c8:	17021331 	smladxne	r2, r1, r3, r1
     2cc:	341d0000 	ldrcc	r0, [sp], #-0
     2d0:	02133100 	andseq	r3, r3, #0, 2
     2d4:	1e000017 	mcrne	0, 0, r0, cr0, cr7, {0}
     2d8:	01018289 	smlabbeq	r1, r9, r2, r8
     2dc:	13310111 	teqne	r1, #1073741828	; 0x40000004
     2e0:	00001301 	andeq	r1, r0, r1, lsl #6
     2e4:	01828a1f 	orreq	r8, r2, pc, lsl sl
     2e8:	91180200 	tstls	r8, r0, lsl #4
     2ec:	00001842 	andeq	r1, r0, r2, asr #16
     2f0:	01828920 	orreq	r8, r2, r0, lsr #18
     2f4:	31011101 	tstcc	r1, r1, lsl #2
     2f8:	21000013 	tstcs	r0, r3, lsl r0
     2fc:	0e03012e 	adfeqsp	f0, f3, #0.5
     300:	0b3b0b3a 	bleq	ec2ff0 <__bss_end__+0xeb8338>
     304:	01111927 	tsteq	r1, r7, lsr #18
     308:	18400612 	stmdane	r0, {r1, r4, r9, sl}^
     30c:	01194297 			; <UNDEFINED> instruction: 0x01194297
     310:	22000013 	andcs	r0, r0, #19
     314:	0e030034 	mcreq	0, 0, r0, cr3, cr4, {1}
     318:	19341349 	ldmdbne	r4!, {r0, r3, r6, r8, r9, ip}
     31c:	00001802 	andeq	r1, r0, r2, lsl #16
     320:	01828923 	orreq	r8, r2, r3, lsr #18
     324:	31011100 	mrscc	r1, (UNDEF: 17)
     328:	24000013 	strcs	r0, [r0], #-19
     32c:	193f012e 	ldmdbne	pc!, {r1, r2, r3, r5, r8}	; <UNPREDICTABLE>
     330:	0b3a0e03 	bleq	e83b44 <__bss_end__+0xe78e8c>
     334:	19270b3b 	stmdbne	r7!, {r0, r1, r3, r4, r5, r8, r9, fp}
     338:	06120111 			; <UNDEFINED> instruction: 0x06120111
     33c:	42971840 	addsmi	r1, r7, #64, 16	; 0x400000
     340:	00130119 	andseq	r0, r3, r9, lsl r1
     344:	012e2500 	teqeq	lr, r0, lsl #10
     348:	0e03193f 	mcreq	9, 0, r1, cr3, cr15, {1}
     34c:	0b3b0b3a 	bleq	ec303c <__bss_end__+0xeb8384>
     350:	13491927 	movtne	r1, #39207	; 0x9927
     354:	06120111 			; <UNDEFINED> instruction: 0x06120111
     358:	42971840 	addsmi	r1, r7, #64, 16	; 0x400000
     35c:	00130119 	andseq	r0, r3, r9, lsl r1
     360:	010b2600 	tsteq	fp, r0, lsl #12
     364:	13011755 	movwne	r1, #5973	; 0x1755
     368:	2e270000 	cdpcs	0, 2, cr0, cr7, cr0, {0}
     36c:	03193f00 	tsteq	r9, #0, 30
     370:	3b0b3a0e 	blcc	2cebb0 <__bss_end__+0x2c3ef8>
     374:	4919270b 	ldmdbmi	r9, {r0, r1, r3, r8, r9, sl, sp}
     378:	12011113 	andne	r1, r1, #-1073741820	; 0xc0000004
     37c:	97184006 	ldrls	r4, [r8, -r6]
     380:	00001942 	andeq	r1, r0, r2, asr #18
     384:	3f012e28 	svccc	0x00012e28
     388:	3a0e0319 	bcc	380ff4 <__bss_end__+0x37633c>
     38c:	270b3b0b 	strcs	r3, [fp, -fp, lsl #22]
     390:	3c134919 	ldccc	9, cr4, [r3], {25}
     394:	00130119 	andseq	r0, r3, r9, lsl r1
     398:	00052900 	andeq	r2, r5, r0, lsl #18
     39c:	00001349 	andeq	r1, r0, r9, asr #6
     3a0:	0000182a 	andeq	r1, r0, sl, lsr #16
     3a4:	00262b00 	eoreq	r2, r6, r0, lsl #22
     3a8:	2e2c0000 	cdpcs	0, 2, cr0, cr12, cr0, {0}
     3ac:	03193f00 	tsteq	r9, #0, 30
     3b0:	3b0b3a0e 	blcc	2cebf0 <__bss_end__+0x2c3f38>
     3b4:	3c19270b 	ldccc	7, cr2, [r9], {11}
     3b8:	00000019 	andeq	r0, r0, r9, lsl r0
     3bc:	25011101 	strcs	r1, [r1, #-257]	; 0x101
     3c0:	030b130e 	movweq	r1, #45838	; 0xb30e
     3c4:	110e1b0e 	tstne	lr, lr, lsl #22
     3c8:	10061201 	andne	r1, r6, r1, lsl #4
     3cc:	02000017 	andeq	r0, r0, #23
     3d0:	0b0b0024 	bleq	2c0468 <__bss_end__+0x2b57b0>
     3d4:	08030b3e 	stmdaeq	r3, {r1, r2, r3, r4, r5, r8, r9, fp}
     3d8:	24030000 	strcs	r0, [r3], #-0
     3dc:	3e0b0b00 	vmlacc.f64	d0, d11, d0
     3e0:	000e030b 	andeq	r0, lr, fp, lsl #6
     3e4:	00160400 	andseq	r0, r6, r0, lsl #8
     3e8:	0b3a0e03 	bleq	e83bfc <__bss_end__+0xe78f44>
     3ec:	13490b3b 	movtne	r0, #39739	; 0x9b3b
     3f0:	0f050000 	svceq	0x00050000
     3f4:	000b0b00 	andeq	r0, fp, r0, lsl #22
     3f8:	000f0600 	andeq	r0, pc, r0, lsl #12
     3fc:	13490b0b 	movtne	r0, #39691	; 0x9b0b
     400:	26070000 	strcs	r0, [r7], -r0
     404:	00134900 	andseq	r4, r3, r0, lsl #18
     408:	01040800 	tsteq	r4, r0, lsl #16
     40c:	0b3a0b0b 	bleq	e83040 <__bss_end__+0xe78388>
     410:	13010b3b 	movwne	r0, #6971	; 0x1b3b
     414:	28090000 	stmdacs	r9, {}	; <UNPREDICTABLE>
     418:	1c0e0300 	stcne	3, cr0, [lr], {-0}
     41c:	0a00000d 	beq	458 <__code_start__-0x7ba8>
     420:	0b0b0113 	bleq	2c0874 <__bss_end__+0x2b5bbc>
     424:	0b3b0b3a 	bleq	ec3114 <__bss_end__+0xeb845c>
     428:	00001301 	andeq	r1, r0, r1, lsl #6
     42c:	03000d0b 	movweq	r0, #3339	; 0xd0b
     430:	3b0b3a0e 	blcc	2cec70 <__bss_end__+0x2c3fb8>
     434:	3813490b 	ldmdacc	r3, {r0, r1, r3, r8, fp, lr}
     438:	0c00000b 	stceq	0, cr0, [r0], {11}
     43c:	0e030113 	mcreq	1, 0, r0, cr3, cr3, {0}
     440:	0b3a0b0b 	bleq	e83074 <__bss_end__+0xe783bc>
     444:	13010b3b 	movwne	r0, #6971	; 0x1b3b
     448:	2e0d0000 	cdpcs	0, 0, cr0, cr13, cr0, {0}
     44c:	3a0e0301 	bcc	381058 <__bss_end__+0x3763a0>
     450:	270b3b0b 	strcs	r3, [fp, -fp, lsl #22]
     454:	20134919 	andscs	r4, r3, r9, lsl r9
     458:	0013010b 	andseq	r0, r3, fp, lsl #2
     45c:	00050e00 	andeq	r0, r5, r0, lsl #28
     460:	0b3a0803 	bleq	e82474 <__bss_end__+0xe777bc>
     464:	13490b3b 	movtne	r0, #39739	; 0x9b3b
     468:	2e0f0000 	cdpcs	0, 0, cr0, cr15, cr0, {0}
     46c:	3a0e0301 	bcc	381078 <__bss_end__+0x3763c0>
     470:	270b3b0b 	strcs	r3, [fp, -fp, lsl #22]
     474:	11134919 	tstne	r3, r9, lsl r9
     478:	40061201 	andmi	r1, r6, r1, lsl #4
     47c:	19429718 	stmdbne	r2, {r3, r4, r8, r9, sl, ip, pc}^
     480:	00001301 	andeq	r1, r0, r1, lsl #6
     484:	03000510 	movweq	r0, #1296	; 0x510
     488:	3b0b3a08 	blcc	2cecb0 <__bss_end__+0x2c3ff8>
     48c:	0213490b 	andseq	r4, r3, #180224	; 0x2c000
     490:	11000017 	tstne	r0, r7, lsl r0
     494:	0e030005 	cdpeq	0, 0, cr0, cr3, cr5, {0}
     498:	0b3b0b3a 	bleq	ec3188 <__bss_end__+0xeb84d0>
     49c:	17021349 	strne	r1, [r2, -r9, asr #6]
     4a0:	34120000 	ldrcc	r0, [r2], #-0
     4a4:	3a080300 	bcc	2010ac <__bss_end__+0x1f63f4>
     4a8:	490b3b0b 	stmdbmi	fp, {r0, r1, r3, r8, r9, fp, ip, sp}
     4ac:	00170213 	andseq	r0, r7, r3, lsl r2
     4b0:	00341300 	eorseq	r1, r4, r0, lsl #6
     4b4:	0b3a0e03 	bleq	e83cc8 <__bss_end__+0xe79010>
     4b8:	13490b3b 	movtne	r0, #39739	; 0x9b3b
     4bc:	00001702 	andeq	r1, r0, r2, lsl #14
     4c0:	01828914 	orreq	r8, r2, r4, lsl r9
     4c4:	31011101 	tstcc	r1, r1, lsl #2
     4c8:	00130113 	andseq	r0, r3, r3, lsl r1
     4cc:	828a1500 	addhi	r1, sl, #0, 10
     4d0:	18020001 	stmdane	r2, {r0}
     4d4:	00184291 	mulseq	r8, r1, r2
     4d8:	82891600 	addhi	r1, r9, #0, 12
     4dc:	01110001 	tsteq	r1, r1
     4e0:	00001331 	andeq	r1, r0, r1, lsr r3
     4e4:	01828917 	orreq	r8, r2, r7, lsl r9
     4e8:	31011101 	tstcc	r1, r1, lsl #2
     4ec:	18000013 	stmdane	r0, {r0, r1, r4}
     4f0:	0e03012e 	adfeqsp	f0, f3, #0.5
     4f4:	0b3b0b3a 	bleq	ec31e4 <__bss_end__+0xeb852c>
     4f8:	01111927 	tsteq	r1, r7, lsr #18
     4fc:	18400612 	stmdane	r0, {r1, r4, r9, sl}^
     500:	01194297 			; <UNDEFINED> instruction: 0x01194297
     504:	19000013 	stmdbne	r0, {r0, r1, r4}
     508:	0e030034 	mcreq	0, 0, r0, cr3, cr4, {1}
     50c:	19341349 	ldmdbne	r4!, {r0, r3, r6, r8, r9, ip}
     510:	00001802 	andeq	r1, r0, r2, lsl #16
     514:	0300341a 	movweq	r3, #1050	; 0x41a
     518:	3b0b3a08 	blcc	2ced40 <__bss_end__+0x2c4088>
     51c:	0013490b 	andseq	r4, r3, fp, lsl #18
     520:	01011b00 	tsteq	r1, r0, lsl #22
     524:	13011349 	movwne	r1, #4937	; 0x1349
     528:	211c0000 	tstcs	ip, r0
     52c:	2f134900 	svccs	0x00134900
     530:	1d00000b 	stcne	0, cr0, [r0, #-44]	; 0xffffffd4
     534:	08030034 	stmdaeq	r3, {r2, r4, r5}
     538:	0b3b0b3a 	bleq	ec3228 <__bss_end__+0xeb8570>
     53c:	18021349 	stmdane	r2, {r0, r3, r6, r8, r9, ip}
     540:	341e0000 	ldrcc	r0, [lr], #-0
     544:	3a0e0300 	bcc	38114c <__bss_end__+0x376494>
     548:	490b3b0b 	stmdbmi	fp, {r0, r1, r3, r8, r9, fp, ip, sp}
     54c:	00180213 	andseq	r0, r8, r3, lsl r2
     550:	00341f00 	eorseq	r1, r4, r0, lsl #30
     554:	0b3a0e03 	bleq	e83d68 <__bss_end__+0xe790b0>
     558:	13490b3b 	movtne	r0, #39739	; 0x9b3b
     55c:	0000061c 	andeq	r0, r0, ip, lsl r6
     560:	03003420 	movweq	r3, #1056	; 0x420
     564:	3b0b3a0e 	blcc	2ceda4 <__bss_end__+0x2c40ec>
     568:	3f13490b 	svccc	0x0013490b
     56c:	00193c19 	andseq	r3, r9, r9, lsl ip
     570:	010b2100 	mrseq	r2, (UNDEF: 27)
     574:	06120111 			; <UNDEFINED> instruction: 0x06120111
     578:	00001301 	andeq	r1, r0, r1, lsl #6
     57c:	55010b22 	strpl	r0, [r1, #-2850]	; 0xb22
     580:	00130117 	andseq	r0, r3, r7, lsl r1
     584:	012e2300 	teqeq	lr, r0, lsl #6
     588:	0b3a0e03 	bleq	e83d9c <__bss_end__+0xe790e4>
     58c:	1927053b 	stmdbne	r7!, {r0, r1, r3, r4, r5, r8, sl}
     590:	01111349 	tsteq	r1, r9, asr #6
     594:	18400612 	stmdane	r0, {r1, r4, r9, sl}^
     598:	01194297 			; <UNDEFINED> instruction: 0x01194297
     59c:	24000013 	strcs	r0, [r0], #-19
     5a0:	0e030034 	mcreq	0, 0, r0, cr3, cr4, {1}
     5a4:	053b0b3a 	ldreq	r0, [fp, #-2874]!	; 0xb3a
     5a8:	17021349 	strne	r1, [r2, -r9, asr #6]
     5ac:	34250000 	strtcc	r0, [r5], #-0
     5b0:	3a0e0300 	bcc	3811b8 <__bss_end__+0x376500>
     5b4:	49053b0b 	stmdbmi	r5, {r0, r1, r3, r8, r9, fp, ip, sp}
     5b8:	00180213 	andseq	r0, r8, r3, lsl r2
     5bc:	00342600 	eorseq	r2, r4, r0, lsl #12
     5c0:	0b3a0803 	bleq	e825d4 <__bss_end__+0xe7791c>
     5c4:	1349053b 	movtne	r0, #38203	; 0x953b
     5c8:	00001802 	andeq	r1, r0, r2, lsl #16
     5cc:	3f012e27 	svccc	0x00012e27
     5d0:	3a0e0319 	bcc	38123c <__bss_end__+0x376584>
     5d4:	270b3b0b 	strcs	r3, [fp, -fp, lsl #22]
     5d8:	11134919 	tstne	r3, r9, lsl r9
     5dc:	40061201 	andmi	r1, r6, r1, lsl #4
     5e0:	19429718 	stmdbne	r2, {r3, r4, r8, r9, sl, ip, pc}^
     5e4:	00001301 	andeq	r1, r0, r1, lsl #6
     5e8:	3f012e28 	svccc	0x00012e28
     5ec:	3a0e0319 	bcc	381258 <__bss_end__+0x3765a0>
     5f0:	27053b0b 	strcs	r3, [r5, -fp, lsl #22]
     5f4:	12011119 	andne	r1, r1, #1073741830	; 0x40000006
     5f8:	97184006 	ldrls	r4, [r8, -r6]
     5fc:	13011942 	movwne	r1, #6466	; 0x1942
     600:	2e290000 	cdpcs	0, 2, cr0, cr9, cr0, {0}
     604:	03193f01 	tsteq	r9, #1, 30
     608:	3b0b3a0e 	blcc	2cee48 <__bss_end__+0x2c4190>
     60c:	49192705 	ldmdbmi	r9, {r0, r2, r8, r9, sl, sp}
     610:	12011113 	andne	r1, r1, #-1073741820	; 0xc0000004
     614:	97184006 	ldrls	r4, [r8, -r6]
     618:	13011942 	movwne	r1, #6466	; 0x1942
     61c:	2e2a0000 	cdpcs	0, 2, cr0, cr10, cr0, {0}
     620:	03193f00 	tsteq	r9, #0, 30
     624:	3b0b3a0e 	blcc	2cee64 <__bss_end__+0x2c41ac>
     628:	4919270b 	ldmdbmi	r9, {r0, r1, r3, r8, r9, sl, sp}
     62c:	00193c13 	andseq	r3, r9, r3, lsl ip
     630:	012e2b00 	teqeq	lr, r0, lsl #22
     634:	0e03193f 	mcreq	9, 0, r1, cr3, cr15, {1}
     638:	0b3b0b3a 	bleq	ec3328 <__bss_end__+0xeb8670>
     63c:	13491927 	movtne	r1, #39207	; 0x9927
     640:	1301193c 	movwne	r1, #6460	; 0x193c
     644:	052c0000 	streq	r0, [ip, #-0]!
     648:	00134900 	andseq	r4, r3, r0, lsl #18
     64c:	00182d00 	andseq	r2, r8, r0, lsl #26
     650:	2e2e0000 	cdpcs	0, 2, cr0, cr14, cr0, {0}
     654:	03193f00 	tsteq	r9, #0, 30
     658:	3b0b3a0e 	blcc	2cee98 <__bss_end__+0x2c41e0>
     65c:	3c19270b 	ldccc	7, cr2, [r9], {11}
     660:	2f000019 	svccs	0x00000019
     664:	193f012e 	ldmdbne	pc!, {r1, r2, r3, r5, r8}	; <UNPREDICTABLE>
     668:	0b3a0e03 	bleq	e83e7c <__bss_end__+0xe791c4>
     66c:	19270b3b 	stmdbne	r7!, {r0, r1, r3, r4, r5, r8, r9, fp}
     670:	1301193c 	movwne	r1, #6460	; 0x193c
     674:	01000000 	mrseq	r0, (UNDEF: 0)
     678:	0e250111 	mcreq	1, 1, r0, cr5, cr1, {0}
     67c:	0e030b13 	vmoveq.32	d3[0], r0
     680:	01110e1b 	tsteq	r1, fp, lsl lr
     684:	17100612 			; <UNDEFINED> instruction: 0x17100612
     688:	24020000 	strcs	r0, [r2], #-0
     68c:	3e0b0b00 	vmlacc.f64	d0, d11, d0
     690:	0008030b 	andeq	r0, r8, fp, lsl #6
     694:	00240300 	eoreq	r0, r4, r0, lsl #6
     698:	0b3e0b0b 	bleq	f832cc <__bss_end__+0xf78614>
     69c:	00000e03 	andeq	r0, r0, r3, lsl #28
     6a0:	03001604 	movweq	r1, #1540	; 0x604
     6a4:	3b0b3a0e 	blcc	2ceee4 <__bss_end__+0x2c422c>
     6a8:	0013490b 	andseq	r4, r3, fp, lsl #18
     6ac:	000f0500 	andeq	r0, pc, r0, lsl #10
     6b0:	13490b0b 	movtne	r0, #39691	; 0x9b0b
     6b4:	26060000 	strcs	r0, [r6], -r0
     6b8:	00134900 	andseq	r4, r3, r0, lsl #18
     6bc:	012e0700 	teqeq	lr, r0, lsl #14
     6c0:	0e03193f 	mcreq	9, 0, r1, cr3, cr15, {1}
     6c4:	0b3b0b3a 	bleq	ec33b4 <__bss_end__+0xeb86fc>
     6c8:	13491927 	movtne	r1, #39207	; 0x9927
     6cc:	06120111 			; <UNDEFINED> instruction: 0x06120111
     6d0:	42971840 	addsmi	r1, r7, #64, 16	; 0x400000
     6d4:	00130119 	andseq	r0, r3, r9, lsl r1
     6d8:	00050800 	andeq	r0, r5, r0, lsl #16
     6dc:	0b3a0e03 	bleq	e83ef0 <__bss_end__+0xe79238>
     6e0:	13490b3b 	movtne	r0, #39739	; 0x9b3b
     6e4:	00001702 	andeq	r1, r0, r2, lsl #14
     6e8:	03000509 	movweq	r0, #1289	; 0x509
     6ec:	3b0b3a08 	blcc	2cef14 <__bss_end__+0x2c425c>
     6f0:	0213490b 	andseq	r4, r3, #180224	; 0x2c000
     6f4:	0a000017 	beq	758 <__code_start__-0x78a8>
     6f8:	0e030034 	mcreq	0, 0, r0, cr3, cr4, {1}
     6fc:	0b3b0b3a 	bleq	ec33ec <__bss_end__+0xeb8734>
     700:	17021349 	strne	r1, [r2, -r9, asr #6]
     704:	340b0000 	strcc	r0, [fp], #-0
     708:	3a080300 	bcc	201310 <__bss_end__+0x1f6658>
     70c:	490b3b0b 	stmdbmi	fp, {r0, r1, r3, r8, r9, fp, ip, sp}
     710:	00170213 	andseq	r0, r7, r3, lsl r2
     714:	00260c00 	eoreq	r0, r6, r0, lsl #24
     718:	01000000 	mrseq	r0, (UNDEF: 0)
     71c:	0e250111 	mcreq	1, 1, r0, cr5, cr1, {0}
     720:	0e030b13 	vmoveq.32	d3[0], r0
     724:	01110e1b 	tsteq	r1, fp, lsl lr
     728:	17100612 			; <UNDEFINED> instruction: 0x17100612
     72c:	24020000 	strcs	r0, [r2], #-0
     730:	3e0b0b00 	vmlacc.f64	d0, d11, d0
     734:	000e030b 	andeq	r0, lr, fp, lsl #6
     738:	00240300 	eoreq	r0, r4, r0, lsl #6
     73c:	0b3e0b0b 	bleq	f83370 <__bss_end__+0xf786b8>
     740:	00000803 	andeq	r0, r0, r3, lsl #16
     744:	0b000f04 	bleq	435c <__code_start__-0x3ca4>
     748:	0500000b 	streq	r0, [r0, #-11]
     74c:	0b0b000f 	bleq	2c0790 <__bss_end__+0x2b5ad8>
     750:	00001349 	andeq	r1, r0, r9, asr #6
     754:	03001606 	movweq	r1, #1542	; 0x606
     758:	3b0b3a0e 	blcc	2cef98 <__bss_end__+0x2c42e0>
     75c:	0013490b 	andseq	r4, r3, fp, lsl #18
     760:	012e0700 	teqeq	lr, r0, lsl #14
     764:	0e03193f 	mcreq	9, 0, r1, cr3, cr15, {1}
     768:	0b3b0b3a 	bleq	ec3458 <__bss_end__+0xeb87a0>
     76c:	13491927 	movtne	r1, #39207	; 0x9927
     770:	06120111 			; <UNDEFINED> instruction: 0x06120111
     774:	42971840 	addsmi	r1, r7, #64, 16	; 0x400000
     778:	08000019 	stmdaeq	r0, {r0, r3, r4}
     77c:	08030005 	stmdaeq	r3, {r0, r2}
     780:	0b3b0b3a 	bleq	ec3470 <__bss_end__+0xeb87b8>
     784:	18021349 	stmdane	r2, {r0, r3, r6, r8, r9, ip}
     788:	05090000 	streq	r0, [r9, #-0]
     78c:	3a080300 	bcc	201394 <__bss_end__+0x1f66dc>
     790:	490b3b0b 	stmdbmi	fp, {r0, r1, r3, r8, r9, fp, ip, sp}
     794:	00170213 	andseq	r0, r7, r3, lsl r2
     798:	00340a00 	eorseq	r0, r4, r0, lsl #20
     79c:	0b3a0803 	bleq	e827b0 <__bss_end__+0xe77af8>
     7a0:	13490b3b 	movtne	r0, #39739	; 0x9b3b
     7a4:	00001702 	andeq	r1, r0, r2, lsl #14
     7a8:	0300340b 	movweq	r3, #1035	; 0x40b
     7ac:	3b0b3a08 	blcc	2cefd4 <__bss_end__+0x2c431c>
     7b0:	0213490b 	andseq	r4, r3, #180224	; 0x2c000
     7b4:	00000018 	andeq	r0, r0, r8, lsl r0
     7b8:	25011101 	strcs	r1, [r1, #-257]	; 0x101
     7bc:	030b130e 	movweq	r1, #45838	; 0xb30e
     7c0:	110e1b0e 	tstne	lr, lr, lsl #22
     7c4:	10061201 	andne	r1, r6, r1, lsl #4
     7c8:	02000017 	andeq	r0, r0, #23
     7cc:	0e030016 	mcreq	0, 0, r0, cr3, cr6, {0}
     7d0:	0b3b0b3a 	bleq	ec34c0 <__bss_end__+0xeb8808>
     7d4:	00001349 	andeq	r1, r0, r9, asr #6
     7d8:	03011303 	movweq	r1, #4867	; 0x1303
     7dc:	3a0b0b0e 	bcc	2c341c <__bss_end__+0x2b8764>
     7e0:	010b3b0b 	tsteq	fp, fp, lsl #22
     7e4:	04000013 	streq	r0, [r0], #-19
     7e8:	0e03000d 	cdpeq	0, 0, cr0, cr3, cr13, {0}
     7ec:	0b381349 	bleq	e05518 <__bss_end__+0xdfa860>
     7f0:	00001934 	andeq	r1, r0, r4, lsr r9
     7f4:	0b000f05 	bleq	4410 <__code_start__-0x3bf0>
     7f8:	0600000b 	streq	r0, [r0], -fp
     7fc:	0b0b0024 	bleq	2c0894 <__bss_end__+0x2b5bdc>
     800:	08030b3e 	stmdaeq	r3, {r1, r2, r3, r4, r5, r8, r9, fp}
     804:	24070000 	strcs	r0, [r7], #-0
     808:	3e0b0b00 	vmlacc.f64	d0, d11, d0
     80c:	000e030b 	andeq	r0, lr, fp, lsl #6
     810:	000f0800 	andeq	r0, pc, r0, lsl #16
     814:	13490b0b 	movtne	r0, #39691	; 0x9b0b
     818:	26090000 	strcs	r0, [r9], -r0
     81c:	00134900 	andseq	r4, r3, r0, lsl #18
     820:	012e0a00 	teqeq	lr, r0, lsl #20
     824:	0e03193f 	mcreq	9, 0, r1, cr3, cr15, {1}
     828:	0b3b0b3a 	bleq	ec3518 <__bss_end__+0xeb8860>
     82c:	13491927 	movtne	r1, #39207	; 0x9927
     830:	06120111 			; <UNDEFINED> instruction: 0x06120111
     834:	42971840 	addsmi	r1, r7, #64, 16	; 0x400000
     838:	00130119 	andseq	r0, r3, r9, lsl r1
     83c:	00050b00 	andeq	r0, r5, r0, lsl #22
     840:	0b3a0803 	bleq	e82854 <__bss_end__+0xe77b9c>
     844:	13490b3b 	movtne	r0, #39739	; 0x9b3b
     848:	00001802 	andeq	r1, r0, r2, lsl #16
     84c:	0000180c 	andeq	r1, r0, ip, lsl #16
     850:	00340d00 	eorseq	r0, r4, r0, lsl #26
     854:	0b3a0803 	bleq	e82868 <__bss_end__+0xe77bb0>
     858:	13490b3b 	movtne	r0, #39739	; 0x9b3b
     85c:	00001802 	andeq	r1, r0, r2, lsl #16
     860:	0300340e 	movweq	r3, #1038	; 0x40e
     864:	3b0b3a0e 	blcc	2cf0a4 <__bss_end__+0x2c43ec>
     868:	0213490b 	andseq	r4, r3, #180224	; 0x2c000
     86c:	0f000018 	svceq	0x00000018
     870:	08030034 	stmdaeq	r3, {r2, r4, r5}
     874:	0b3b0b3a 	bleq	ec3564 <__bss_end__+0xeb88ac>
     878:	17021349 	strne	r1, [r2, -r9, asr #6]
     87c:	89100000 	ldmdbhi	r0, {}	; <UNPREDICTABLE>
     880:	11010182 	smlabbne	r1, r2, r1, r0
     884:	01133101 	tsteq	r3, r1, lsl #2
     888:	11000013 	tstne	r0, r3, lsl r0
     88c:	0001828a 	andeq	r8, r1, sl, lsl #5
     890:	42911802 	addsmi	r1, r1, #131072	; 0x20000
     894:	12000018 	andne	r0, r0, #24
     898:	01018289 	smlabbeq	r1, r9, r2, r8
     89c:	00000111 	andeq	r0, r0, r1, lsl r1
     8a0:	49010113 	stmdbmi	r1, {r0, r1, r4, r8}
     8a4:	00130113 	andseq	r0, r3, r3, lsl r1
     8a8:	00211400 	eoreq	r1, r1, r0, lsl #8
     8ac:	052f1349 	streq	r1, [pc, #-841]!	; 56b <__code_start__-0x7a95>
     8b0:	15150000 	ldrne	r0, [r5, #-0]
     8b4:	49192701 	ldmdbmi	r9, {r0, r8, r9, sl, sp}
     8b8:	00130113 	andseq	r0, r3, r3, lsl r1
     8bc:	00051600 	andeq	r1, r5, r0, lsl #12
     8c0:	00001349 	andeq	r1, r0, r9, asr #6
     8c4:	03003417 	movweq	r3, #1047	; 0x417
     8c8:	3b0b3a0e 	blcc	2cf108 <__bss_end__+0x2c4450>
     8cc:	3f13490b 	svccc	0x0013490b
     8d0:	00193c19 	andseq	r3, r9, r9, lsl ip
     8d4:	012e1800 	teqeq	lr, r0, lsl #16
     8d8:	0e03193f 	mcreq	9, 0, r1, cr3, cr15, {1}
     8dc:	0b3b0b3a 	bleq	ec35cc <__bss_end__+0xeb8914>
     8e0:	13491927 	movtne	r1, #39207	; 0x9927
     8e4:	0000193c 	andeq	r1, r0, ip, lsr r9
     8e8:	01110100 	tsteq	r1, r0, lsl #2
     8ec:	0b130e25 	bleq	4c4188 <__bss_end__+0x4b94d0>
     8f0:	0e1b0e03 	cdpeq	14, 1, cr0, cr11, cr3, {0}
     8f4:	06120111 			; <UNDEFINED> instruction: 0x06120111
     8f8:	00001710 	andeq	r1, r0, r0, lsl r7
     8fc:	0b002402 	bleq	990c <uart_init+0x20>
     900:	030b3e0b 	movweq	r3, #48651	; 0xbe0b
     904:	03000008 	movweq	r0, #8
     908:	0b0b0024 	bleq	2c09a0 <__bss_end__+0x2b5ce8>
     90c:	0e030b3e 	vmoveq.16	d3[0], r0
     910:	2e040000 	cdpcs	0, 0, cr0, cr4, cr0, {0}
     914:	3a0e0301 	bcc	381520 <__bss_end__+0x376868>
     918:	270b3b0b 	strcs	r3, [fp, -fp, lsl #22]
     91c:	11134919 	tstne	r3, r9, lsl r9
     920:	40061201 	andmi	r1, r6, r1, lsl #4
     924:	19429718 	stmdbne	r2, {r3, r4, r8, r9, sl, ip, pc}^
     928:	00001301 	andeq	r1, r0, r1, lsl #6
     92c:	03000505 	movweq	r0, #1285	; 0x505
     930:	3b0b3a08 	blcc	2cf158 <__bss_end__+0x2c44a0>
     934:	0213490b 	andseq	r4, r3, #180224	; 0x2c000
     938:	06000017 			; <UNDEFINED> instruction: 0x06000017
     93c:	01018289 	smlabbeq	r1, r9, r2, r8
     940:	13310111 	teqne	r1, #1073741828	; 0x40000004
     944:	8a070000 	bhi	1c094c <__bss_end__+0x1b5c94>
     948:	02000182 	andeq	r0, r0, #-2147483616	; 0x80000020
     94c:	18429118 	stmdane	r2, {r3, r4, r8, ip, pc}^
     950:	2e080000 	cdpcs	0, 0, cr0, cr8, cr0, {0}
     954:	03193f00 	tsteq	r9, #0, 30
     958:	3b0b3a0e 	blcc	2cf198 <__bss_end__+0x2c44e0>
     95c:	1119270b 	tstne	r9, fp, lsl #14
     960:	40061201 	andmi	r1, r6, r1, lsl #4
     964:	19429718 	stmdbne	r2, {r3, r4, r8, r9, sl, ip, pc}^
     968:	2e090000 	cdpcs	0, 0, cr0, cr9, cr0, {0}
     96c:	03193f01 	tsteq	r9, #1, 30
     970:	3b0b3a0e 	blcc	2cf1b0 <__bss_end__+0x2c44f8>
     974:	1119270b 	tstne	r9, fp, lsl #14
     978:	40061201 	andmi	r1, r6, r1, lsl #4
     97c:	19429718 	stmdbne	r2, {r3, r4, r8, r9, sl, ip, pc}^
     980:	00001301 	andeq	r1, r0, r1, lsl #6
     984:	0300050a 	movweq	r0, #1290	; 0x50a
     988:	3b0b3a08 	blcc	2cf1b0 <__bss_end__+0x2c44f8>
     98c:	0213490b 	andseq	r4, r3, #180224	; 0x2c000
     990:	0b000018 	bleq	9f8 <__code_start__-0x7608>
     994:	19270115 	stmdbne	r7!, {r0, r2, r4, r8}
     998:	13011349 	movwne	r1, #4937	; 0x1349
     99c:	050c0000 	streq	r0, [ip, #-0]
     9a0:	00134900 	andseq	r4, r3, r0, lsl #18
     9a4:	000f0d00 	andeq	r0, pc, r0, lsl #26
     9a8:	13490b0b 	movtne	r0, #39691	; 0x9b0b
     9ac:	340e0000 	strcc	r0, [lr], #-0
     9b0:	3a0e0300 	bcc	3815b8 <__bss_end__+0x376900>
     9b4:	490b3b0b 	stmdbmi	fp, {r0, r1, r3, r8, r9, fp, ip, sp}
     9b8:	02193f13 	andseq	r3, r9, #19, 30	; 0x4c
     9bc:	0f000018 	svceq	0x00000018
     9c0:	193f012e 	ldmdbne	pc!, {r1, r2, r3, r5, r8}	; <UNPREDICTABLE>
     9c4:	0b3a0e03 	bleq	e841d8 <__bss_end__+0xe79520>
     9c8:	19270b3b 	stmdbne	r7!, {r0, r1, r3, r4, r5, r8, r9, fp}
     9cc:	0000193c 	andeq	r1, r0, ip, lsr r9
     9d0:	01110100 	tsteq	r1, r0, lsl #2
     9d4:	0b130e25 	bleq	4c4270 <__bss_end__+0x4b95b8>
     9d8:	0e1b0e03 	cdpeq	14, 1, cr0, cr11, cr3, {0}
     9dc:	06120111 			; <UNDEFINED> instruction: 0x06120111
     9e0:	00001710 	andeq	r1, r0, r0, lsl r7
     9e4:	0b002402 	bleq	99f4 <uart_getc+0x20>
     9e8:	030b3e0b 	movweq	r3, #48651	; 0xbe0b
     9ec:	03000008 	movweq	r0, #8
     9f0:	0b0b0024 	bleq	2c0a88 <__bss_end__+0x2b5dd0>
     9f4:	0e030b3e 	vmoveq.16	d3[0], r0
     9f8:	0f040000 	svceq	0x00040000
     9fc:	490b0b00 	stmdbmi	fp, {r8, r9, fp}
     a00:	05000013 	streq	r0, [r0, #-19]
     a04:	13490026 	movtne	r0, #36902	; 0x9026
     a08:	2e060000 	cdpcs	0, 0, cr0, cr6, cr0, {0}
     a0c:	03193f01 	tsteq	r9, #1, 30
     a10:	3b0b3a0e 	blcc	2cf250 <__bss_end__+0x2c4598>
     a14:	4919270b 	ldmdbmi	r9, {r0, r1, r3, r8, r9, sl, sp}
     a18:	12011113 	andne	r1, r1, #-1073741820	; 0xc0000004
     a1c:	96184006 	ldrls	r4, [r8], -r6
     a20:	13011942 	movwne	r1, #6466	; 0x1942
     a24:	05070000 	streq	r0, [r7, #-0]
     a28:	3a080300 	bcc	201630 <__bss_end__+0x1f6978>
     a2c:	490b3b0b 	stmdbmi	fp, {r0, r1, r3, r8, r9, fp, ip, sp}
     a30:	00170213 	andseq	r0, r7, r3, lsl r2
     a34:	01150800 	tsteq	r5, r0, lsl #16
     a38:	13491927 	movtne	r1, #39207	; 0x9927
     a3c:	00001301 	andeq	r1, r0, r1, lsl #6
     a40:	49000509 	stmdbmi	r0, {r0, r3, r8, sl}
     a44:	0a000013 	beq	a98 <__code_start__-0x7568>
     a48:	0e030034 	mcreq	0, 0, r0, cr3, cr4, {1}
     a4c:	0b3b0b3a 	bleq	ec373c <__bss_end__+0xeb8a84>
     a50:	193f1349 	ldmdbne	pc!, {r0, r3, r6, r8, r9, ip}	; <UNPREDICTABLE>
     a54:	0000193c 	andeq	r1, r0, ip, lsr r9
     a58:	0300340b 	movweq	r3, #1035	; 0x40b
     a5c:	3b0b3a0e 	blcc	2cf29c <__bss_end__+0x2c45e4>
     a60:	3f13490b 	svccc	0x0013490b
     a64:	00180219 	andseq	r0, r8, r9, lsl r2
     a68:	11010000 	mrsne	r0, (UNDEF: 1)
     a6c:	130e2501 	movwne	r2, #58625	; 0xe501
     a70:	1b0e030b 	blne	3816a4 <__bss_end__+0x3769ec>
     a74:	1201110e 	andne	r1, r1, #-2147483645	; 0x80000003
     a78:	00171006 	andseq	r1, r7, r6
     a7c:	00240200 	eoreq	r0, r4, r0, lsl #4
     a80:	0b3e0b0b 	bleq	f836b4 <__bss_end__+0xf789fc>
     a84:	00000803 	andeq	r0, r0, r3, lsl #16
     a88:	0b002403 	bleq	9a9c <gpio_set_function+0x58>
     a8c:	030b3e0b 	movweq	r3, #48651	; 0xbe0b
     a90:	0400000e 	streq	r0, [r0], #-14
     a94:	0b0b000f 	bleq	2c0ad8 <__bss_end__+0x2b5e20>
     a98:	0f050000 	svceq	0x00050000
     a9c:	490b0b00 	stmdbmi	fp, {r8, r9, fp}
     aa0:	06000013 			; <UNDEFINED> instruction: 0x06000013
     aa4:	13490026 	movtne	r0, #36902	; 0x9026
     aa8:	16070000 	strne	r0, [r7], -r0
     aac:	3a0e0300 	bcc	3816b4 <__bss_end__+0x3769fc>
     ab0:	490b3b0b 	stmdbmi	fp, {r0, r1, r3, r8, r9, fp, ip, sp}
     ab4:	08000013 	stmdaeq	r0, {r0, r1, r4}
     ab8:	0e030113 	mcreq	1, 0, r0, cr3, cr3, {0}
     abc:	0b3a0b0b 	bleq	e836f0 <__bss_end__+0xe78a38>
     ac0:	13010b3b 	movwne	r0, #6971	; 0x1b3b
     ac4:	0d090000 	stceq	0, cr0, [r9, #-0]
     ac8:	490e0300 	stmdbmi	lr, {r8, r9}
     acc:	340b3813 	strcc	r3, [fp], #-2067	; 0x813
     ad0:	0a000019 	beq	b3c <__code_start__-0x74c4>
     ad4:	0e03012e 	adfeqsp	f0, f3, #0.5
     ad8:	0b3b0b3a 	bleq	ec37c8 <__bss_end__+0xeb8b10>
     adc:	13491927 	movtne	r1, #39207	; 0x9927
     ae0:	06120111 			; <UNDEFINED> instruction: 0x06120111
     ae4:	42971840 	addsmi	r1, r7, #64, 16	; 0x400000
     ae8:	00130119 	andseq	r0, r3, r9, lsl r1
     aec:	00050b00 	andeq	r0, r5, r0, lsl #22
     af0:	0b3a0803 	bleq	e82b04 <__bss_end__+0xe77e4c>
     af4:	13490b3b 	movtne	r0, #39739	; 0x9b3b
     af8:	00001702 	andeq	r1, r0, r2, lsl #14
     afc:	03012e0c 	movweq	r2, #7692	; 0x1e0c
     b00:	3b0b3a08 	blcc	2cf328 <__bss_end__+0x2c4670>
     b04:	4919270b 	ldmdbmi	r9, {r0, r1, r3, r8, r9, sl, sp}
     b08:	12011113 	andne	r1, r1, #-1073741820	; 0xc0000004
     b0c:	97184006 	ldrls	r4, [r8, -r6]
     b10:	13011942 	movwne	r1, #6466	; 0x1942
     b14:	050d0000 	streq	r0, [sp, #-0]
     b18:	3a0e0300 	bcc	381720 <__bss_end__+0x376a68>
     b1c:	490b3b0b 	stmdbmi	fp, {r0, r1, r3, r8, r9, fp, ip, sp}
     b20:	00170213 	andseq	r0, r7, r3, lsl r2
     b24:	00050e00 	andeq	r0, r5, r0, lsl #28
     b28:	0b3a0e03 	bleq	e8433c <__bss_end__+0xe79684>
     b2c:	13490b3b 	movtne	r0, #39739	; 0x9b3b
     b30:	00001802 	andeq	r1, r0, r2, lsl #16
     b34:	0300340f 	movweq	r3, #1039	; 0x40f
     b38:	3b0b3a08 	blcc	2cf360 <__bss_end__+0x2c46a8>
     b3c:	0213490b 	andseq	r4, r3, #180224	; 0x2c000
     b40:	10000018 	andne	r0, r0, r8, lsl r0
     b44:	08030034 	stmdaeq	r3, {r2, r4, r5}
     b48:	0b3b0b3a 	bleq	ec3838 <__bss_end__+0xeb8b80>
     b4c:	17021349 	strne	r1, [r2, -r9, asr #6]
     b50:	34110000 	ldrcc	r0, [r1], #-0
     b54:	490e0300 	stmdbmi	lr, {r8, r9}
     b58:	02193413 	andseq	r3, r9, #318767104	; 0x13000000
     b5c:	12000018 	andne	r0, r0, #24
     b60:	0111010b 	tsteq	r1, fp, lsl #2
     b64:	13010612 	movwne	r0, #5650	; 0x1612
     b68:	34130000 	ldrcc	r0, [r3], #-0
     b6c:	3a0e0300 	bcc	381774 <__bss_end__+0x376abc>
     b70:	490b3b0b 	stmdbmi	fp, {r0, r1, r3, r8, r9, fp, ip, sp}
     b74:	00170213 	andseq	r0, r7, r3, lsl r2
     b78:	82891400 	addhi	r1, r9, #0, 8
     b7c:	01110001 	tsteq	r1, r1
     b80:	00001331 	andeq	r1, r0, r1, lsr r3
     b84:	01828915 	orreq	r8, r2, r5, lsl r9
     b88:	31011101 	tstcc	r1, r1, lsl #2
     b8c:	00130113 	andseq	r0, r3, r3, lsl r1
     b90:	828a1600 	addhi	r1, sl, #0, 12
     b94:	18020001 	stmdane	r2, {r0}
     b98:	00184291 	mulseq	r8, r1, r2
     b9c:	82891700 	addhi	r1, r9, #0, 14
     ba0:	01110101 	tsteq	r1, r1, lsl #2
     ba4:	00001331 	andeq	r1, r0, r1, lsr r3
     ba8:	49010118 	stmdbmi	r1, {r3, r4, r8}
     bac:	00130113 	andseq	r0, r3, r3, lsl r1
     bb0:	00211900 	eoreq	r1, r1, r0, lsl #18
     bb4:	0b2f1349 	bleq	bc58e0 <__bss_end__+0xbbac28>
     bb8:	2e1a0000 	cdpcs	0, 1, cr0, cr10, cr0, {0}
     bbc:	03193f01 	tsteq	r9, #1, 30
     bc0:	3b0b3a0e 	blcc	2cf400 <__bss_end__+0x2c4748>
     bc4:	1119270b 	tstne	r9, fp, lsl #14
     bc8:	40061201 	andmi	r1, r6, r1, lsl #4
     bcc:	19429718 	stmdbne	r2, {r3, r4, r8, r9, sl, ip, pc}^
     bd0:	00001301 	andeq	r1, r0, r1, lsl #6
     bd4:	2701151b 	smladcs	r1, fp, r5, r1
     bd8:	01134919 	tsteq	r3, r9, lsl r9
     bdc:	1c000013 	stcne	0, cr0, [r0], {19}
     be0:	13490005 	movtne	r0, #36869	; 0x9005
     be4:	2e1d0000 	cdpcs	0, 1, cr0, cr13, cr0, {0}
     be8:	03193f01 	tsteq	r9, #1, 30
     bec:	3b0b3a0e 	blcc	2cf42c <__bss_end__+0x2c4774>
     bf0:	4919270b 	ldmdbmi	r9, {r0, r1, r3, r8, r9, sl, sp}
     bf4:	12011113 	andne	r1, r1, #-1073741820	; 0xc0000004
     bf8:	97184006 	ldrls	r4, [r8, -r6]
     bfc:	13011942 	movwne	r1, #6466	; 0x1942
     c00:	0b1e0000 	bleq	780c08 <__bss_end__+0x775f50>
     c04:	00175501 	andseq	r5, r7, r1, lsl #10
     c08:	00341f00 	eorseq	r1, r4, r0, lsl #30
     c0c:	0b3a0e03 	bleq	e84420 <__bss_end__+0xe79768>
     c10:	13490b3b 	movtne	r0, #39739	; 0x9b3b
     c14:	193c193f 	ldmdbne	ip!, {r0, r1, r2, r3, r4, r5, r8, fp, ip}
     c18:	2e200000 	cdpcs	0, 2, cr0, cr0, cr0, {0}
     c1c:	03193f00 	tsteq	r9, #0, 30
     c20:	3b0b3a0e 	blcc	2cf460 <__bss_end__+0x2c47a8>
     c24:	3c19270b 	ldccc	7, cr2, [r9], {11}
     c28:	21000019 	tstcs	r0, r9, lsl r0
     c2c:	193f012e 	ldmdbne	pc!, {r1, r2, r3, r5, r8}	; <UNPREDICTABLE>
     c30:	0b3a0e03 	bleq	e84444 <__bss_end__+0xe7978c>
     c34:	19270b3b 	stmdbne	r7!, {r0, r1, r3, r4, r5, r8, r9, fp}
     c38:	193c1349 	ldmdbne	ip!, {r0, r3, r6, r8, r9, ip}
     c3c:	00001301 	andeq	r1, r0, r1, lsl #6
     c40:	00001822 	andeq	r1, r0, r2, lsr #16
     c44:	11010000 	mrsne	r0, (UNDEF: 1)
     c48:	130e2501 	movwne	r2, #58625	; 0xe501
     c4c:	1b0e030b 	blne	381880 <__bss_end__+0x376bc8>
     c50:	1201110e 	andne	r1, r1, #-2147483645	; 0x80000003
     c54:	00171006 	andseq	r1, r7, r6
     c58:	00240200 	eoreq	r0, r4, r0, lsl #4
     c5c:	0b3e0b0b 	bleq	f83890 <__bss_end__+0xf78bd8>
     c60:	00000803 	andeq	r0, r0, r3, lsl #16
     c64:	0b002403 	bleq	9c78 <kmalloc_aligned+0x34>
     c68:	030b3e0b 	movweq	r3, #48651	; 0xbe0b
     c6c:	0400000e 	streq	r0, [r0], #-14
     c70:	0b0b000f 	bleq	2c0cb4 <__bss_end__+0x2b5ffc>
     c74:	00001349 	andeq	r1, r0, r9, asr #6
     c78:	49002605 	stmdbmi	r0, {r0, r2, r9, sl, sp}
     c7c:	06000013 			; <UNDEFINED> instruction: 0x06000013
     c80:	193f012e 	ldmdbne	pc!, {r1, r2, r3, r5, r8}	; <UNPREDICTABLE>
     c84:	0b3a0e03 	bleq	e84498 <__bss_end__+0xe797e0>
     c88:	19270b3b 	stmdbne	r7!, {r0, r1, r3, r4, r5, r8, r9, fp}
     c8c:	06120111 			; <UNDEFINED> instruction: 0x06120111
     c90:	42971840 	addsmi	r1, r7, #64, 16	; 0x400000
     c94:	00130119 	andseq	r0, r3, r9, lsl r1
     c98:	82890700 	addhi	r0, r9, #0, 14
     c9c:	01110101 	tsteq	r1, r1, lsl #2
     ca0:	00001301 	andeq	r1, r0, r1, lsl #6
     ca4:	01828a08 	orreq	r8, r2, r8, lsl #20
     ca8:	91180200 	tstls	r8, r0, lsl #4
     cac:	00001842 	andeq	r1, r0, r2, asr #16
     cb0:	01828909 	orreq	r8, r2, r9, lsl #18
     cb4:	31011101 	tstcc	r1, r1, lsl #2
     cb8:	00130113 	andseq	r0, r3, r3, lsl r1
     cbc:	82890a00 	addhi	r0, r9, #0, 20
     cc0:	01110001 	tsteq	r1, r1
     cc4:	00001331 	andeq	r1, r0, r1, lsr r3
     cc8:	2701150b 	strcs	r1, [r1, -fp, lsl #10]
     ccc:	01134919 	tsteq	r3, r9, lsl r9
     cd0:	0c000013 	stceq	0, cr0, [r0], {19}
     cd4:	13490005 	movtne	r0, #36869	; 0x9005
     cd8:	340d0000 	strcc	r0, [sp], #-0
     cdc:	3a0e0300 	bcc	3818e4 <__bss_end__+0x376c2c>
     ce0:	490b3b0b 	stmdbmi	fp, {r0, r1, r3, r8, r9, fp, ip, sp}
     ce4:	3c193f13 	ldccc	15, cr3, [r9], {19}
     ce8:	0e000019 	mcreq	0, 0, r0, cr0, cr9, {0}
     cec:	193f012e 	ldmdbne	pc!, {r1, r2, r3, r5, r8}	; <UNPREDICTABLE>
     cf0:	0b3a0e03 	bleq	e84504 <__bss_end__+0xe7984c>
     cf4:	19270b3b 	stmdbne	r7!, {r0, r1, r3, r4, r5, r8, r9, fp}
     cf8:	1301193c 	movwne	r1, #6460	; 0x193c
     cfc:	2e0f0000 	cdpcs	0, 0, cr0, cr15, cr0, {0}
     d00:	03193f00 	tsteq	r9, #0, 30
     d04:	3b0b3a0e 	blcc	2cf544 <__bss_end__+0x2c488c>
     d08:	3c19270b 	ldccc	7, cr2, [r9], {11}
     d0c:	00000019 	andeq	r0, r0, r9, lsl r0
     d10:	25011101 	strcs	r1, [r1, #-257]	; 0x101
     d14:	030b130e 	movweq	r1, #45838	; 0xb30e
     d18:	110e1b0e 	tstne	lr, lr, lsl #22
     d1c:	10061201 	andne	r1, r6, r1, lsl #4
     d20:	02000017 	andeq	r0, r0, #23
     d24:	0b0b0024 	bleq	2c0dbc <__bss_end__+0x2b6104>
     d28:	08030b3e 	stmdaeq	r3, {r1, r2, r3, r4, r5, r8, r9, fp}
     d2c:	24030000 	strcs	r0, [r3], #-0
     d30:	3e0b0b00 	vmlacc.f64	d0, d11, d0
     d34:	000e030b 	andeq	r0, lr, fp, lsl #6
     d38:	012e0400 	teqeq	lr, r0, lsl #8
     d3c:	0e03193f 	mcreq	9, 0, r1, cr3, cr15, {1}
     d40:	0b3b0b3a 	bleq	ec3a30 <__bss_end__+0xeb8d78>
     d44:	06120111 			; <UNDEFINED> instruction: 0x06120111
     d48:	42971840 	addsmi	r1, r7, #64, 16	; 0x400000
     d4c:	00130119 	andseq	r0, r3, r9, lsl r1
     d50:	00340500 	eorseq	r0, r4, r0, lsl #10
     d54:	0b3a0e03 	bleq	e84568 <__bss_end__+0xe798b0>
     d58:	13490b3b 	movtne	r0, #39739	; 0x9b3b
     d5c:	193c193f 	ldmdbne	ip!, {r0, r1, r2, r3, r4, r5, r8, fp, ip}
     d60:	2e060000 	cdpcs	0, 0, cr0, cr6, cr0, {0}
     d64:	03193f00 	tsteq	r9, #0, 30
     d68:	3b0b3a0e 	blcc	2cf5a8 <__bss_end__+0x2c48f0>
     d6c:	3c19270b 	ldccc	7, cr2, [r9], {11}
     d70:	07000019 	smladeq	r0, r9, r0, r0
     d74:	08030034 	stmdaeq	r3, {r2, r4, r5}
     d78:	0b3b0b3a 	bleq	ec3a68 <__bss_end__+0xeb8db0>
     d7c:	17021349 	strne	r1, [r2, -r9, asr #6]
     d80:	34080000 	strcc	r0, [r8], #-0
     d84:	3a0e0300 	bcc	38198c <__bss_end__+0x376cd4>
     d88:	490b3b0b 	stmdbmi	fp, {r0, r1, r3, r8, r9, fp, ip, sp}
     d8c:	09000013 	stmdbeq	r0, {r0, r1, r4}
     d90:	00018289 	andeq	r8, r1, r9, lsl #5
     d94:	13310111 	teqne	r1, #1073741828	; 0x40000004
     d98:	0f0a0000 	svceq	0x000a0000
     d9c:	490b0b00 	stmdbmi	fp, {r8, r9, fp}
     da0:	00000013 	andeq	r0, r0, r3, lsl r0
     da4:	25011101 	strcs	r1, [r1, #-257]	; 0x101
     da8:	030b130e 	movweq	r1, #45838	; 0xb30e
     dac:	550e1b0e 	strpl	r1, [lr, #-2830]	; 0xb0e
     db0:	10011117 	andne	r1, r1, r7, lsl r1
     db4:	02000017 	andeq	r0, r0, #23
     db8:	0b0b0024 	bleq	2c0e50 <__bss_end__+0x2b6198>
     dbc:	08030b3e 	stmdaeq	r3, {r1, r2, r3, r4, r5, r8, r9, fp}
     dc0:	24030000 	strcs	r0, [r3], #-0
     dc4:	3e0b0b00 	vmlacc.f64	d0, d11, d0
     dc8:	000e030b 	andeq	r0, lr, fp, lsl #6
     dcc:	012e0400 	teqeq	lr, r0, lsl #8
     dd0:	0e03193f 	mcreq	9, 0, r1, cr3, cr15, {1}
     dd4:	0b3b0b3a 	bleq	ec3ac4 <__bss_end__+0xeb8e0c>
     dd8:	13491927 	movtne	r1, #39207	; 0x9927
     ddc:	06120111 			; <UNDEFINED> instruction: 0x06120111
     de0:	42971840 	addsmi	r1, r7, #64, 16	; 0x400000
     de4:	00130119 	andseq	r0, r3, r9, lsl r1
     de8:	00340500 	eorseq	r0, r4, r0, lsl #10
     dec:	0b3a0e03 	bleq	e84600 <__bss_end__+0xe79948>
     df0:	13490b3b 	movtne	r0, #39739	; 0x9b3b
     df4:	00001702 	andeq	r1, r0, r2, lsl #14
     df8:	3f012e06 	svccc	0x00012e06
     dfc:	3a0e0319 	bcc	381a68 <__bss_end__+0x376db0>
     e00:	270b3b0b 	strcs	r3, [fp, -fp, lsl #22]
     e04:	12011119 	andne	r1, r1, #1073741830	; 0x40000006
     e08:	97184006 	ldrls	r4, [r8, -r6]
     e0c:	13011942 	movwne	r1, #6466	; 0x1942
     e10:	34070000 	strcc	r0, [r7], #-0
     e14:	3a0e0300 	bcc	381a1c <__bss_end__+0x376d64>
     e18:	490b3b0b 	stmdbmi	fp, {r0, r1, r3, r8, r9, fp, ip, sp}
     e1c:	00061c13 	andeq	r1, r6, r3, lsl ip
     e20:	00340800 	eorseq	r0, r4, r0, lsl #16
     e24:	0b3a0e03 	bleq	e84638 <__bss_end__+0xe79980>
     e28:	13490b3b 	movtne	r0, #39739	; 0x9b3b
     e2c:	00000b1c 	andeq	r0, r0, ip, lsl fp
     e30:	01828909 	orreq	r8, r2, r9, lsl #18
     e34:	31011100 	mrscc	r1, (UNDEF: 17)
     e38:	0a000013 	beq	e8c <__code_start__-0x7174>
     e3c:	01018289 	smlabbeq	r1, r9, r2, r8
     e40:	13310111 	teqne	r1, #1073741828	; 0x40000004
     e44:	00001301 	andeq	r1, r0, r1, lsl #6
     e48:	01828a0b 	orreq	r8, r2, fp, lsl #20
     e4c:	91180200 	tstls	r8, r0, lsl #4
     e50:	00001842 	andeq	r1, r0, r2, asr #16
     e54:	0182890c 	orreq	r8, r2, ip, lsl #18
     e58:	31011101 	tstcc	r1, r1, lsl #2
     e5c:	0d000013 	stceq	0, cr0, [r0, #-76]	; 0xffffffb4
     e60:	13490026 	movtne	r0, #36902	; 0x9026
     e64:	2e0e0000 	cdpcs	0, 0, cr0, cr14, cr0, {0}
     e68:	03193f01 	tsteq	r9, #1, 30
     e6c:	3b0b3a0e 	blcc	2cf6ac <__bss_end__+0x2c49f4>
     e70:	3c19270b 	ldccc	7, cr2, [r9], {11}
     e74:	00130119 	andseq	r0, r3, r9, lsl r1
     e78:	00050f00 	andeq	r0, r5, r0, lsl #30
     e7c:	00001349 	andeq	r1, r0, r9, asr #6
     e80:	3f012e10 	svccc	0x00012e10
     e84:	3a0e0319 	bcc	381af0 <__bss_end__+0x376e38>
     e88:	270b3b0b 	strcs	r3, [fp, -fp, lsl #22]
     e8c:	00193c19 	andseq	r3, r9, r9, lsl ip
     e90:	11010000 	mrsne	r0, (UNDEF: 1)
     e94:	130e2501 	movwne	r2, #58625	; 0xe501
     e98:	1b0e030b 	blne	381acc <__bss_end__+0x376e14>
     e9c:	1201110e 	andne	r1, r1, #-2147483645	; 0x80000003
     ea0:	00171006 	andseq	r1, r7, r6
     ea4:	00240200 	eoreq	r0, r4, r0, lsl #4
     ea8:	0b3e0b0b 	bleq	f83adc <__bss_end__+0xf78e24>
     eac:	00000803 	andeq	r0, r0, r3, lsl #16
     eb0:	0b002403 	bleq	9ec4 <__FUNCTION__.4338+0x54>
     eb4:	030b3e0b 	movweq	r3, #48651	; 0xbe0b
     eb8:	0400000e 	streq	r0, [r0], #-14
     ebc:	193f012e 	ldmdbne	pc!, {r1, r2, r3, r5, r8}	; <UNPREDICTABLE>
     ec0:	0b3a0e03 	bleq	e846d4 <__bss_end__+0xe79a1c>
     ec4:	19270b3b 	stmdbne	r7!, {r0, r1, r3, r4, r5, r8, r9, fp}
     ec8:	06120111 			; <UNDEFINED> instruction: 0x06120111
     ecc:	42971840 	addsmi	r1, r7, #64, 16	; 0x400000
     ed0:	00130119 	andseq	r0, r3, r9, lsl r1
     ed4:	00050500 	andeq	r0, r5, r0, lsl #10
     ed8:	0b3a0e03 	bleq	e846ec <__bss_end__+0xe79a34>
     edc:	13490b3b 	movtne	r0, #39739	; 0x9b3b
     ee0:	00001702 	andeq	r1, r0, r2, lsl #14
     ee4:	3f012e06 	svccc	0x00012e06
     ee8:	3a0e0319 	bcc	381b54 <__bss_end__+0x376e9c>
     eec:	270b3b0b 	strcs	r3, [fp, -fp, lsl #22]
     ef0:	11134919 	tstne	r3, r9, lsl r9
     ef4:	40061201 	andmi	r1, r6, r1, lsl #4
     ef8:	19429718 	stmdbne	r2, {r3, r4, r8, r9, sl, ip, pc}^
     efc:	00001301 	andeq	r1, r0, r1, lsl #6
     f00:	01828907 	orreq	r8, r2, r7, lsl #18
     f04:	31011101 	tstcc	r1, r1, lsl #2
     f08:	08000013 	stmdaeq	r0, {r0, r1, r4}
     f0c:	0001828a 	andeq	r8, r1, sl, lsl #5
     f10:	42911802 	addsmi	r1, r1, #131072	; 0x20000
     f14:	09000018 	stmdbeq	r0, {r3, r4}
     f18:	08030034 	stmdaeq	r3, {r2, r4, r5}
     f1c:	0b3b0b3a 	bleq	ec3c0c <__bss_end__+0xeb8f54>
     f20:	18021349 	stmdane	r2, {r0, r3, r6, r8, r9, ip}
     f24:	890a0000 	stmdbhi	sl, {}	; <UNPREDICTABLE>
     f28:	11000182 	smlabbne	r0, r2, r1, r0
     f2c:	00133101 	andseq	r3, r3, r1, lsl #2
     f30:	00050b00 	andeq	r0, r5, r0, lsl #22
     f34:	0b3a0803 	bleq	e82f48 <__bss_end__+0xe78290>
     f38:	13490b3b 	movtne	r0, #39739	; 0x9b3b
     f3c:	00001702 	andeq	r1, r0, r2, lsl #14
     f40:	11010b0c 	tstne	r1, ip, lsl #22
     f44:	01061201 	tsteq	r6, r1, lsl #4
     f48:	0d000013 	stceq	0, cr0, [r0, #-76]	; 0xffffffb4
     f4c:	08030034 	stmdaeq	r3, {r2, r4, r5}
     f50:	0b3b0b3a 	bleq	ec3c40 <__bss_end__+0xeb8f88>
     f54:	17021349 	strne	r1, [r2, -r9, asr #6]
     f58:	2e0e0000 	cdpcs	0, 0, cr0, cr14, cr0, {0}
     f5c:	03193f01 	tsteq	r9, #1, 30
     f60:	3b0b3a0e 	blcc	2cf7a0 <__bss_end__+0x2c4ae8>
     f64:	4919270b 	ldmdbmi	r9, {r0, r1, r3, r8, r9, sl, sp}
     f68:	00193c13 	andseq	r3, r9, r3, lsl ip
     f6c:	00050f00 	andeq	r0, r5, r0, lsl #30
     f70:	00001349 	andeq	r1, r0, r9, asr #6
     f74:	01110100 	tsteq	r1, r0, lsl #2
     f78:	0b130e25 	bleq	4c4814 <__bss_end__+0x4b9b5c>
     f7c:	0e1b0e03 	cdpeq	14, 1, cr0, cr11, cr3, {0}
     f80:	06120111 			; <UNDEFINED> instruction: 0x06120111
     f84:	00001710 	andeq	r1, r0, r0, lsl r7
     f88:	0b002402 	bleq	9f98 <__FUNCTION__.4338+0x128>
     f8c:	030b3e0b 	movweq	r3, #48651	; 0xbe0b
     f90:	03000008 	movweq	r0, #8
     f94:	0b0b0024 	bleq	2c102c <__bss_end__+0x2b6374>
     f98:	0e030b3e 	vmoveq.16	d3[0], r0
     f9c:	35040000 	strcc	r0, [r4, #-0]
     fa0:	00134900 	andseq	r4, r3, r0, lsl #18
     fa4:	00160500 	andseq	r0, r6, r0, lsl #10
     fa8:	0b3a0e03 	bleq	e847bc <__bss_end__+0xe79b04>
     fac:	13490b3b 	movtne	r0, #39739	; 0x9b3b
     fb0:	16060000 	strne	r0, [r6], -r0
     fb4:	3a0e0300 	bcc	381bbc <__bss_end__+0x376f04>
     fb8:	49053b0b 	stmdbmi	r5, {r0, r1, r3, r8, r9, fp, ip, sp}
     fbc:	07000013 	smladeq	r0, r3, r0, r0
     fc0:	0b0b0117 	bleq	2c1424 <__bss_end__+0x2b676c>
     fc4:	0b3b0b3a 	bleq	ec3cb4 <__bss_end__+0xeb8ffc>
     fc8:	00001301 	andeq	r1, r0, r1, lsl #6
     fcc:	03000d08 	movweq	r0, #3336	; 0xd08
     fd0:	3b0b3a0e 	blcc	2cf810 <__bss_end__+0x2c4b58>
     fd4:	0013490b 	andseq	r4, r3, fp, lsl #18
     fd8:	01010900 	tsteq	r1, r0, lsl #18
     fdc:	13011349 	movwne	r1, #4937	; 0x1349
     fe0:	210a0000 	mrscs	r0, (UNDEF: 10)
     fe4:	2f134900 	svccs	0x00134900
     fe8:	0b00000b 	bleq	101c <__code_start__-0x6fe4>
     fec:	0b0b0113 	bleq	2c1440 <__bss_end__+0x2b6788>
     ff0:	0b3b0b3a 	bleq	ec3ce0 <__bss_end__+0xeb9028>
     ff4:	00001301 	andeq	r1, r0, r1, lsl #6
     ff8:	03000d0c 	movweq	r0, #3340	; 0xd0c
     ffc:	3b0b3a0e 	blcc	2cf83c <__bss_end__+0x2c4b84>
    1000:	3813490b 	ldmdacc	r3, {r0, r1, r3, r8, fp, lr}
    1004:	0d00000b 	stceq	0, cr0, [r0, #-44]	; 0xffffffd4
    1008:	0b0b000f 	bleq	2c104c <__bss_end__+0x2b6394>
    100c:	0f0e0000 	svceq	0x000e0000
    1010:	490b0b00 	stmdbmi	fp, {r8, r9, fp}
    1014:	0f000013 	svceq	0x00000013
    1018:	13490026 	movtne	r0, #36902	; 0x9026
    101c:	13100000 	tstne	r0, #0
    1020:	0b0e0301 	bleq	381c2c <__bss_end__+0x376f74>
    1024:	3b0b3a0b 	blcc	2cf858 <__bss_end__+0x2c4ba0>
    1028:	0013010b 	andseq	r0, r3, fp, lsl #2
    102c:	000d1100 	andeq	r1, sp, r0, lsl #2
    1030:	0b3a0803 	bleq	e83044 <__bss_end__+0xe7838c>
    1034:	13490b3b 	movtne	r0, #39739	; 0x9b3b
    1038:	00000b38 	andeq	r0, r0, r8, lsr fp
    103c:	03011312 	movweq	r1, #4882	; 0x1312
    1040:	3a050b0e 	bcc	143c80 <__bss_end__+0x138fc8>
    1044:	010b3b0b 	tsteq	fp, fp, lsl #22
    1048:	13000013 	movwne	r0, #19
    104c:	0e03000d 	cdpeq	0, 0, cr0, cr3, cr13, {0}
    1050:	0b3b0b3a 	bleq	ec3d40 <__bss_end__+0xeb9088>
    1054:	05381349 	ldreq	r1, [r8, #-841]!	; 0x349
    1058:	15140000 	ldrne	r0, [r4, #-0]
    105c:	00192700 	andseq	r2, r9, r0, lsl #14
    1060:	01151500 	tsteq	r5, r0, lsl #10
    1064:	13491927 	movtne	r1, #39207	; 0x9927
    1068:	00001301 	andeq	r1, r0, r1, lsl #6
    106c:	49000516 	stmdbmi	r0, {r1, r2, r4, r8, sl}
    1070:	17000013 	smladne	r0, r3, r0, r0
    1074:	0e030113 	mcreq	1, 0, r0, cr3, cr3, {0}
    1078:	0b3a050b 	bleq	e824ac <__bss_end__+0xe777f4>
    107c:	1301053b 	movwne	r0, #5435	; 0x153b
    1080:	0d180000 	ldceq	0, cr0, [r8, #-0]
    1084:	3a0e0300 	bcc	381c8c <__bss_end__+0x376fd4>
    1088:	49053b0b 	stmdbmi	r5, {r0, r1, r3, r8, r9, fp, ip, sp}
    108c:	000b3813 	andeq	r3, fp, r3, lsl r8
    1090:	000d1900 	andeq	r1, sp, r0, lsl #18
    1094:	0b3a0e03 	bleq	e848a8 <__bss_end__+0xe79bf0>
    1098:	1349053b 	movtne	r0, #38203	; 0x953b
    109c:	00000538 	andeq	r0, r0, r8, lsr r5
    10a0:	0301131a 	movweq	r1, #4890	; 0x131a
    10a4:	3a0b0b0e 	bcc	2c3ce4 <__bss_end__+0x2b902c>
    10a8:	01053b0b 	tsteq	r5, fp, lsl #22
    10ac:	1b000013 	blne	1100 <__code_start__-0x6f00>
    10b0:	0b0b0113 	bleq	2c1504 <__bss_end__+0x2b684c>
    10b4:	053b0b3a 	ldreq	r0, [fp, #-2874]!	; 0xb3a
    10b8:	00001301 	andeq	r1, r0, r1, lsl #6
    10bc:	0b01171c 	bleq	46d34 <__bss_end__+0x3c07c>
    10c0:	3b0b3a0b 	blcc	2cf8f4 <__bss_end__+0x2c4c3c>
    10c4:	00130105 	andseq	r0, r3, r5, lsl #2
    10c8:	000d1d00 	andeq	r1, sp, r0, lsl #26
    10cc:	0b3a0e03 	bleq	e848e0 <__bss_end__+0xe79c28>
    10d0:	1349053b 	movtne	r0, #38203	; 0x953b
    10d4:	151e0000 	ldrne	r0, [lr, #-0]
    10d8:	01192701 	tsteq	r9, r1, lsl #14
    10dc:	1f000013 	svcne	0x00000013
    10e0:	0e030034 	mcreq	0, 0, r0, cr3, cr4, {1}
    10e4:	053b0b3a 	ldreq	r0, [fp, #-2874]!	; 0xb3a
    10e8:	193f1349 	ldmdbne	pc!, {r0, r3, r6, r8, r9, ip}	; <UNPREDICTABLE>
    10ec:	0000193c 	andeq	r1, r0, ip, lsr r9
    10f0:	03003420 	movweq	r3, #1056	; 0x420
    10f4:	3b0b3a0e 	blcc	2cf934 <__bss_end__+0x2c4c7c>
    10f8:	3f13490b 	svccc	0x0013490b
    10fc:	00193c19 	andseq	r3, r9, r9, lsl ip
    1100:	01042100 	mrseq	r2, (UNDEF: 20)
    1104:	13490b0b 	movtne	r0, #39691	; 0x9b0b
    1108:	0b3b0b3a 	bleq	ec3df8 <__bss_end__+0xeb9140>
    110c:	00001301 	andeq	r1, r0, r1, lsl #6
    1110:	03002822 	movweq	r2, #2082	; 0x822
    1114:	000b1c0e 	andeq	r1, fp, lr, lsl #24
    1118:	00342300 	eorseq	r2, r4, r0, lsl #6
    111c:	0b3a0e03 	bleq	e84930 <__bss_end__+0xe79c78>
    1120:	13490b3b 	movtne	r0, #39739	; 0x9b3b
    1124:	0000061c 	andeq	r0, r0, ip, lsl r6
    1128:	3f012e24 	svccc	0x00012e24
    112c:	3a0e0319 	bcc	381d98 <__bss_end__+0x3770e0>
    1130:	270b3b0b 	strcs	r3, [fp, -fp, lsl #22]
    1134:	11134919 	tstne	r3, r9, lsl r9
    1138:	40061201 	andmi	r1, r6, r1, lsl #4
    113c:	19429718 	stmdbne	r2, {r3, r4, r8, r9, sl, ip, pc}^
    1140:	00001301 	andeq	r1, r0, r1, lsl #6
    1144:	01828925 	orreq	r8, r2, r5, lsr #18
    1148:	31011100 	mrscc	r1, (UNDEF: 17)
    114c:	26000013 			; <UNDEFINED> instruction: 0x26000013
    1150:	193f012e 	ldmdbne	pc!, {r1, r2, r3, r5, r8}	; <UNPREDICTABLE>
    1154:	0b3a0e03 	bleq	e84968 <__bss_end__+0xe79cb0>
    1158:	19270b3b 	stmdbne	r7!, {r0, r1, r3, r4, r5, r8, r9, fp}
    115c:	06120111 			; <UNDEFINED> instruction: 0x06120111
    1160:	42971840 	addsmi	r1, r7, #64, 16	; 0x400000
    1164:	00130119 	andseq	r0, r3, r9, lsl r1
    1168:	00052700 	andeq	r2, r5, r0, lsl #14
    116c:	0b3a0803 	bleq	e83180 <__bss_end__+0xe784c8>
    1170:	13490b3b 	movtne	r0, #39739	; 0x9b3b
    1174:	00001702 	andeq	r1, r0, r2, lsl #14
    1178:	01828928 	orreq	r8, r2, r8, lsr #18
    117c:	31011101 	tstcc	r1, r1, lsl #2
    1180:	00130113 	andseq	r0, r3, r3, lsl r1
    1184:	828a2900 	addhi	r2, sl, #0, 18
    1188:	18020001 	stmdane	r2, {r0}
    118c:	00184291 	mulseq	r8, r1, r2
    1190:	00342a00 	eorseq	r2, r4, r0, lsl #20
    1194:	0b3a0803 	bleq	e831a8 <__bss_end__+0xe784f0>
    1198:	13490b3b 	movtne	r0, #39739	; 0x9b3b
    119c:	00001802 	andeq	r1, r0, r2, lsl #16
    11a0:	0182892b 	orreq	r8, r2, fp, lsr #18
    11a4:	31011101 	tstcc	r1, r1, lsl #2
    11a8:	2c000013 	stccs	0, cr0, [r0], {19}
    11ac:	0e03012e 	adfeqsp	f0, f3, #0.5
    11b0:	0b3b0b3a 	bleq	ec3ea0 <__bss_end__+0xeb91e8>
    11b4:	01111927 	tsteq	r1, r7, lsr #18
    11b8:	18400612 	stmdane	r0, {r1, r4, r9, sl}^
    11bc:	01194297 			; <UNDEFINED> instruction: 0x01194297
    11c0:	2d000013 	stccs	0, cr0, [r0, #-76]	; 0xffffffb4
    11c4:	0e030005 	cdpeq	0, 0, cr0, cr3, cr5, {0}
    11c8:	0b3b0b3a 	bleq	ec3eb8 <__bss_end__+0xeb9200>
    11cc:	17021349 	strne	r1, [r2, -r9, asr #6]
    11d0:	352e0000 	strcc	r0, [lr, #-0]!
    11d4:	2f000000 	svccs	0x00000000
    11d8:	193f002e 	ldmdbne	pc!, {r1, r2, r3, r5}	; <UNPREDICTABLE>
    11dc:	0e6e193c 	mcreq	9, 3, r1, cr14, cr12, {1}
    11e0:	0b3a0e03 	bleq	e849f4 <__bss_end__+0xe79d3c>
    11e4:	00000b3b 	andeq	r0, r0, fp, lsr fp
    11e8:	01110100 	tsteq	r1, r0, lsl #2
    11ec:	0b130e25 	bleq	4c4a88 <__bss_end__+0x4b9dd0>
    11f0:	0e1b0e03 	cdpeq	14, 1, cr0, cr11, cr3, {0}
    11f4:	06120111 			; <UNDEFINED> instruction: 0x06120111
    11f8:	00001710 	andeq	r1, r0, r0, lsl r7
    11fc:	0b002402 	bleq	a20c <__FUNCTION__.4338+0x39c>
    1200:	030b3e0b 	movweq	r3, #48651	; 0xbe0b
    1204:	03000008 	movweq	r0, #8
    1208:	0b0b0024 	bleq	2c12a0 <__bss_end__+0x2b65e8>
    120c:	0e030b3e 	vmoveq.16	d3[0], r0
    1210:	26040000 	strcs	r0, [r4], -r0
    1214:	00134900 	andseq	r4, r3, r0, lsl #18
    1218:	00160500 	andseq	r0, r6, r0, lsl #10
    121c:	0b3a0e03 	bleq	e84a30 <__bss_end__+0xe79d78>
    1220:	13490b3b 	movtne	r0, #39739	; 0x9b3b
    1224:	16060000 	strne	r0, [r6], -r0
    1228:	3a0e0300 	bcc	381e30 <__bss_end__+0x377178>
    122c:	49053b0b 	stmdbmi	r5, {r0, r1, r3, r8, r9, fp, ip, sp}
    1230:	07000013 	smladeq	r0, r3, r0, r0
    1234:	0b0b0117 	bleq	2c1698 <__bss_end__+0x2b69e0>
    1238:	0b3b0b3a 	bleq	ec3f28 <__bss_end__+0xeb9270>
    123c:	00001301 	andeq	r1, r0, r1, lsl #6
    1240:	03000d08 	movweq	r0, #3336	; 0xd08
    1244:	3b0b3a0e 	blcc	2cfa84 <__bss_end__+0x2c4dcc>
    1248:	0013490b 	andseq	r4, r3, fp, lsl #18
    124c:	01010900 	tsteq	r1, r0, lsl #18
    1250:	13011349 	movwne	r1, #4937	; 0x1349
    1254:	210a0000 	mrscs	r0, (UNDEF: 10)
    1258:	2f134900 	svccs	0x00134900
    125c:	0b00000b 	bleq	1290 <__code_start__-0x6d70>
    1260:	0b0b0113 	bleq	2c16b4 <__bss_end__+0x2b69fc>
    1264:	0b3b0b3a 	bleq	ec3f54 <__bss_end__+0xeb929c>
    1268:	00001301 	andeq	r1, r0, r1, lsl #6
    126c:	03000d0c 	movweq	r0, #3340	; 0xd0c
    1270:	3b0b3a0e 	blcc	2cfab0 <__bss_end__+0x2c4df8>
    1274:	3813490b 	ldmdacc	r3, {r0, r1, r3, r8, fp, lr}
    1278:	0d00000b 	stceq	0, cr0, [r0, #-44]	; 0xffffffd4
    127c:	0b0b000f 	bleq	2c12c0 <__bss_end__+0x2b6608>
    1280:	0f0e0000 	svceq	0x000e0000
    1284:	490b0b00 	stmdbmi	fp, {r8, r9, fp}
    1288:	0f000013 	svceq	0x00000013
    128c:	0e030113 	mcreq	1, 0, r0, cr3, cr3, {0}
    1290:	0b3a0b0b 	bleq	e83ec4 <__bss_end__+0xe7920c>
    1294:	13010b3b 	movwne	r0, #6971	; 0x1b3b
    1298:	0d100000 	ldceq	0, cr0, [r0, #-0]
    129c:	3a080300 	bcc	201ea4 <__bss_end__+0x1f71ec>
    12a0:	490b3b0b 	stmdbmi	fp, {r0, r1, r3, r8, r9, fp, ip, sp}
    12a4:	000b3813 	andeq	r3, fp, r3, lsl r8
    12a8:	01131100 	tsteq	r3, r0, lsl #2
    12ac:	050b0e03 	streq	r0, [fp, #-3587]	; 0xe03
    12b0:	0b3b0b3a 	bleq	ec3fa0 <__bss_end__+0xeb92e8>
    12b4:	00001301 	andeq	r1, r0, r1, lsl #6
    12b8:	03000d12 	movweq	r0, #3346	; 0xd12
    12bc:	3b0b3a0e 	blcc	2cfafc <__bss_end__+0x2c4e44>
    12c0:	3813490b 	ldmdacc	r3, {r0, r1, r3, r8, fp, lr}
    12c4:	13000005 	movwne	r0, #5
    12c8:	19270015 	stmdbne	r7!, {r0, r2, r4}
    12cc:	15140000 	ldrne	r0, [r4, #-0]
    12d0:	49192701 	ldmdbmi	r9, {r0, r8, r9, sl, sp}
    12d4:	00130113 	andseq	r0, r3, r3, lsl r1
    12d8:	00051500 	andeq	r1, r5, r0, lsl #10
    12dc:	00001349 	andeq	r1, r0, r9, asr #6
    12e0:	03011316 	movweq	r1, #4886	; 0x1316
    12e4:	3a050b0e 	bcc	143f24 <__bss_end__+0x13926c>
    12e8:	01053b0b 	tsteq	r5, fp, lsl #22
    12ec:	17000013 	smladne	r0, r3, r0, r0
    12f0:	0e03000d 	cdpeq	0, 0, cr0, cr3, cr13, {0}
    12f4:	053b0b3a 	ldreq	r0, [fp, #-2874]!	; 0xb3a
    12f8:	0b381349 	bleq	e06024 <__bss_end__+0xdfb36c>
    12fc:	0d180000 	ldceq	0, cr0, [r8, #-0]
    1300:	3a0e0300 	bcc	381f08 <__bss_end__+0x377250>
    1304:	49053b0b 	stmdbmi	r5, {r0, r1, r3, r8, r9, fp, ip, sp}
    1308:	00053813 	andeq	r3, r5, r3, lsl r8
    130c:	01131900 	tsteq	r3, r0, lsl #18
    1310:	0b0b0e03 	bleq	2c4b24 <__bss_end__+0x2b9e6c>
    1314:	053b0b3a 	ldreq	r0, [fp, #-2874]!	; 0xb3a
    1318:	00001301 	andeq	r1, r0, r1, lsl #6
    131c:	0b01131a 	bleq	45f8c <__bss_end__+0x3b2d4>
    1320:	3b0b3a0b 	blcc	2cfb54 <__bss_end__+0x2c4e9c>
    1324:	00130105 	andseq	r0, r3, r5, lsl #2
    1328:	01171b00 	tsteq	r7, r0, lsl #22
    132c:	0b3a0b0b 	bleq	e83f60 <__bss_end__+0xe792a8>
    1330:	1301053b 	movwne	r0, #5435	; 0x153b
    1334:	0d1c0000 	ldceq	0, cr0, [ip, #-0]
    1338:	3a0e0300 	bcc	381f40 <__bss_end__+0x377288>
    133c:	49053b0b 	stmdbmi	r5, {r0, r1, r3, r8, r9, fp, ip, sp}
    1340:	1d000013 	stcne	0, cr0, [r0, #-76]	; 0xffffffb4
    1344:	19270115 	stmdbne	r7!, {r0, r2, r4, r8}
    1348:	00001301 	andeq	r1, r0, r1, lsl #6
    134c:	0300341e 	movweq	r3, #1054	; 0x41e
    1350:	3b0b3a0e 	blcc	2cfb90 <__bss_end__+0x2c4ed8>
    1354:	3f134905 	svccc	0x00134905
    1358:	00193c19 	andseq	r3, r9, r9, lsl ip
    135c:	00341f00 	eorseq	r1, r4, r0, lsl #30
    1360:	0b3a0e03 	bleq	e84b74 <__bss_end__+0xe79ebc>
    1364:	13490b3b 	movtne	r0, #39739	; 0x9b3b
    1368:	193c193f 	ldmdbne	ip!, {r0, r1, r2, r3, r4, r5, r8, fp, ip}
    136c:	04200000 	strteq	r0, [r0], #-0
    1370:	490b0b01 	stmdbmi	fp, {r0, r8, r9, fp}
    1374:	3b0b3a13 	blcc	2cfbc8 <__bss_end__+0x2c4f10>
    1378:	0013010b 	andseq	r0, r3, fp, lsl #2
    137c:	00282100 	eoreq	r2, r8, r0, lsl #2
    1380:	0b1c0e03 	bleq	704b94 <__bss_end__+0x6f9edc>
    1384:	34220000 	strtcc	r0, [r2], #-0
    1388:	3a0e0300 	bcc	381f90 <__bss_end__+0x3772d8>
    138c:	490b3b0b 	stmdbmi	fp, {r0, r1, r3, r8, r9, fp, ip, sp}
    1390:	00061c13 	andeq	r1, r6, r3, lsl ip
    1394:	012e2300 	teqeq	lr, r0, lsl #6
    1398:	0e03193f 	mcreq	9, 0, r1, cr3, cr15, {1}
    139c:	0b3b0b3a 	bleq	ec408c <__bss_end__+0xeb93d4>
    13a0:	13491927 	movtne	r1, #39207	; 0x9927
    13a4:	06120111 			; <UNDEFINED> instruction: 0x06120111
    13a8:	42971840 	addsmi	r1, r7, #64, 16	; 0x400000
    13ac:	00130119 	andseq	r0, r3, r9, lsl r1
    13b0:	00052400 	andeq	r2, r5, r0, lsl #8
    13b4:	0b3a0803 	bleq	e833c8 <__bss_end__+0xe78710>
    13b8:	13490b3b 	movtne	r0, #39739	; 0x9b3b
    13bc:	00001702 	andeq	r1, r0, r2, lsl #14
    13c0:	03003425 	movweq	r3, #1061	; 0x425
    13c4:	3b0b3a0e 	blcc	2cfc04 <__bss_end__+0x2c4f4c>
    13c8:	0213490b 	andseq	r4, r3, #180224	; 0x2c000
    13cc:	26000017 			; <UNDEFINED> instruction: 0x26000017
    13d0:	08030034 	stmdaeq	r3, {r2, r4, r5}
    13d4:	0b3b0b3a 	bleq	ec40c4 <__bss_end__+0xeb940c>
    13d8:	17021349 	strne	r1, [r2, -r9, asr #6]
    13dc:	89270000 	stmdbhi	r7!, {}	; <UNPREDICTABLE>
    13e0:	11010182 	smlabbne	r1, r2, r1, r0
    13e4:	00133101 	andseq	r3, r3, r1, lsl #2
    13e8:	828a2800 	addhi	r2, sl, #0, 16
    13ec:	18020001 	stmdane	r2, {r0}
    13f0:	00184291 	mulseq	r8, r1, r2
    13f4:	012e2900 	teqeq	lr, r0, lsl #18
    13f8:	0e03193f 	mcreq	9, 0, r1, cr3, cr15, {1}
    13fc:	0b3b0b3a 	bleq	ec40ec <__bss_end__+0xeb9434>
    1400:	01111927 	tsteq	r1, r7, lsr #18
    1404:	18400612 	stmdane	r0, {r1, r4, r9, sl}^
    1408:	01194297 			; <UNDEFINED> instruction: 0x01194297
    140c:	2a000013 	bcs	1460 <__code_start__-0x6ba0>
    1410:	01018289 	smlabbeq	r1, r9, r2, r8
    1414:	13310111 	teqne	r1, #1073741828	; 0x40000004
    1418:	00001301 	andeq	r1, r0, r1, lsl #6
    141c:	0182892b 	orreq	r8, r2, fp, lsr #18
    1420:	31011100 	mrscc	r1, (UNDEF: 17)
    1424:	2c000013 	stccs	0, cr0, [r0], {19}
    1428:	0e030005 	cdpeq	0, 0, cr0, cr3, cr5, {0}
    142c:	0b3b0b3a 	bleq	ec411c <__bss_end__+0xeb9464>
    1430:	17021349 	strne	r1, [r2, -r9, asr #6]
    1434:	342d0000 	strtcc	r0, [sp], #-0
    1438:	3a080300 	bcc	202040 <__bss_end__+0x1f7388>
    143c:	490b3b0b 	stmdbmi	fp, {r0, r1, r3, r8, r9, fp, ip, sp}
    1440:	00180213 	andseq	r0, r8, r3, lsl r2
    1444:	002e2e00 	eoreq	r2, lr, r0, lsl #28
    1448:	193c193f 	ldmdbne	ip!, {r0, r1, r2, r3, r4, r5, r8, fp, ip}
    144c:	0e030e6e 	cdpeq	14, 0, cr0, cr3, cr14, {3}
    1450:	0b3b0b3a 	bleq	ec4140 <__bss_end__+0xeb9488>
    1454:	01000000 	mrseq	r0, (UNDEF: 0)
    1458:	0e250111 	mcreq	1, 1, r0, cr5, cr1, {0}
    145c:	0e030b13 	vmoveq.32	d3[0], r0
    1460:	01110e1b 	tsteq	r1, fp, lsl lr
    1464:	17100612 			; <UNDEFINED> instruction: 0x17100612
    1468:	24020000 	strcs	r0, [r2], #-0
    146c:	3e0b0b00 	vmlacc.f64	d0, d11, d0
    1470:	0008030b 	andeq	r0, r8, fp, lsl #6
    1474:	00240300 	eoreq	r0, r4, r0, lsl #6
    1478:	0b3e0b0b 	bleq	f840ac <__bss_end__+0xf793f4>
    147c:	00000e03 	andeq	r0, r0, r3, lsl #28
    1480:	03001604 	movweq	r1, #1540	; 0x604
    1484:	3b0b3a0e 	blcc	2cfcc4 <__bss_end__+0x2c500c>
    1488:	0013490b 	andseq	r4, r3, fp, lsl #18
    148c:	00160500 	andseq	r0, r6, r0, lsl #10
    1490:	0b3a0e03 	bleq	e84ca4 <__bss_end__+0xe79fec>
    1494:	1349053b 	movtne	r0, #38203	; 0x953b
    1498:	17060000 	strne	r0, [r6, -r0]
    149c:	3a0b0b01 	bcc	2c40a8 <__bss_end__+0x2b93f0>
    14a0:	010b3b0b 	tsteq	fp, fp, lsl #22
    14a4:	07000013 	smladeq	r0, r3, r0, r0
    14a8:	0e03000d 	cdpeq	0, 0, cr0, cr3, cr13, {0}
    14ac:	0b3b0b3a 	bleq	ec419c <__bss_end__+0xeb94e4>
    14b0:	00001349 	andeq	r1, r0, r9, asr #6
    14b4:	49010108 	stmdbmi	r1, {r3, r8}
    14b8:	00130113 	andseq	r0, r3, r3, lsl r1
    14bc:	00210900 	eoreq	r0, r1, r0, lsl #18
    14c0:	0b2f1349 	bleq	bc61ec <__bss_end__+0xbbb534>
    14c4:	130a0000 	movwne	r0, #40960	; 0xa000
    14c8:	3a0b0b01 	bcc	2c40d4 <__bss_end__+0x2b941c>
    14cc:	010b3b0b 	tsteq	fp, fp, lsl #22
    14d0:	0b000013 	bleq	1524 <__code_start__-0x6adc>
    14d4:	0e03000d 	cdpeq	0, 0, cr0, cr3, cr13, {0}
    14d8:	0b3b0b3a 	bleq	ec41c8 <__bss_end__+0xeb9510>
    14dc:	0b381349 	bleq	e06208 <__bss_end__+0xdfb550>
    14e0:	0f0c0000 	svceq	0x000c0000
    14e4:	000b0b00 	andeq	r0, fp, r0, lsl #22
    14e8:	000f0d00 	andeq	r0, pc, r0, lsl #26
    14ec:	13490b0b 	movtne	r0, #39691	; 0x9b0b
    14f0:	260e0000 	strcs	r0, [lr], -r0
    14f4:	00134900 	andseq	r4, r3, r0, lsl #18
    14f8:	01130f00 	tsteq	r3, r0, lsl #30
    14fc:	0b0b0e03 	bleq	2c4d10 <__bss_end__+0x2ba058>
    1500:	0b3b0b3a 	bleq	ec41f0 <__bss_end__+0xeb9538>
    1504:	00001301 	andeq	r1, r0, r1, lsl #6
    1508:	03000d10 	movweq	r0, #3344	; 0xd10
    150c:	3b0b3a08 	blcc	2cfd34 <__bss_end__+0x2c507c>
    1510:	3813490b 	ldmdacc	r3, {r0, r1, r3, r8, fp, lr}
    1514:	1100000b 	tstne	r0, fp
    1518:	0e030113 	mcreq	1, 0, r0, cr3, cr3, {0}
    151c:	0b3a050b 	bleq	e82950 <__bss_end__+0xe77c98>
    1520:	13010b3b 	movwne	r0, #6971	; 0x1b3b
    1524:	0d120000 	ldceq	0, cr0, [r2, #-0]
    1528:	3a0e0300 	bcc	382130 <__bss_end__+0x377478>
    152c:	490b3b0b 	stmdbmi	fp, {r0, r1, r3, r8, r9, fp, ip, sp}
    1530:	00053813 	andeq	r3, r5, r3, lsl r8
    1534:	00151300 	andseq	r1, r5, r0, lsl #6
    1538:	00001927 	andeq	r1, r0, r7, lsr #18
    153c:	27011514 	smladcs	r1, r4, r5, r1
    1540:	01134919 	tsteq	r3, r9, lsl r9
    1544:	15000013 	strne	r0, [r0, #-19]
    1548:	13490005 	movtne	r0, #36869	; 0x9005
    154c:	13160000 	tstne	r6, #0
    1550:	0b0e0301 	bleq	38215c <__bss_end__+0x3774a4>
    1554:	3b0b3a05 	blcc	2cfd70 <__bss_end__+0x2c50b8>
    1558:	00130105 	andseq	r0, r3, r5, lsl #2
    155c:	000d1700 	andeq	r1, sp, r0, lsl #14
    1560:	0b3a0e03 	bleq	e84d74 <__bss_end__+0xe7a0bc>
    1564:	1349053b 	movtne	r0, #38203	; 0x953b
    1568:	00000b38 	andeq	r0, r0, r8, lsr fp
    156c:	03000d18 	movweq	r0, #3352	; 0xd18
    1570:	3b0b3a0e 	blcc	2cfdb0 <__bss_end__+0x2c50f8>
    1574:	38134905 	ldmdacc	r3, {r0, r2, r8, fp, lr}
    1578:	19000005 	stmdbne	r0, {r0, r2}
    157c:	0e030113 	mcreq	1, 0, r0, cr3, cr3, {0}
    1580:	0b3a0b0b 	bleq	e841b4 <__bss_end__+0xe794fc>
    1584:	1301053b 	movwne	r0, #5435	; 0x153b
    1588:	131a0000 	tstne	sl, #0
    158c:	3a0b0b01 	bcc	2c4198 <__bss_end__+0x2b94e0>
    1590:	01053b0b 	tsteq	r5, fp, lsl #22
    1594:	1b000013 	blne	15e8 <__code_start__-0x6a18>
    1598:	0b0b0117 	bleq	2c19fc <__bss_end__+0x2b6d44>
    159c:	053b0b3a 	ldreq	r0, [fp, #-2874]!	; 0xb3a
    15a0:	00001301 	andeq	r1, r0, r1, lsl #6
    15a4:	03000d1c 	movweq	r0, #3356	; 0xd1c
    15a8:	3b0b3a0e 	blcc	2cfde8 <__bss_end__+0x2c5130>
    15ac:	00134905 	andseq	r4, r3, r5, lsl #18
    15b0:	01151d00 	tsteq	r5, r0, lsl #26
    15b4:	13011927 	movwne	r1, #6439	; 0x1927
    15b8:	341e0000 	ldrcc	r0, [lr], #-0
    15bc:	3a0e0300 	bcc	3821c4 <__bss_end__+0x37750c>
    15c0:	49053b0b 	stmdbmi	r5, {r0, r1, r3, r8, r9, fp, ip, sp}
    15c4:	3c193f13 	ldccc	15, cr3, [r9], {19}
    15c8:	1f000019 	svcne	0x00000019
    15cc:	0e030034 	mcreq	0, 0, r0, cr3, cr4, {1}
    15d0:	0b3b0b3a 	bleq	ec42c0 <__bss_end__+0xeb9608>
    15d4:	193f1349 	ldmdbne	pc!, {r0, r3, r6, r8, r9, ip}	; <UNPREDICTABLE>
    15d8:	0000193c 	andeq	r1, r0, ip, lsr r9
    15dc:	03003420 	movweq	r3, #1056	; 0x420
    15e0:	3b0b3a0e 	blcc	2cfe20 <__bss_end__+0x2c5168>
    15e4:	0213490b 	andseq	r4, r3, #180224	; 0x2c000
    15e8:	21000018 	tstcs	r0, r8, lsl r0
    15ec:	193f012e 	ldmdbne	pc!, {r1, r2, r3, r5, r8}	; <UNPREDICTABLE>
    15f0:	0b3a0e03 	bleq	e84e04 <__bss_end__+0xe7a14c>
    15f4:	19270b3b 	stmdbne	r7!, {r0, r1, r3, r4, r5, r8, r9, fp}
    15f8:	06120111 			; <UNDEFINED> instruction: 0x06120111
    15fc:	42971840 	addsmi	r1, r7, #64, 16	; 0x400000
    1600:	00130119 	andseq	r0, r3, r9, lsl r1
    1604:	00052200 	andeq	r2, r5, r0, lsl #4
    1608:	0b3a0803 	bleq	e8361c <__bss_end__+0xe78964>
    160c:	13490b3b 	movtne	r0, #39739	; 0x9b3b
    1610:	00001802 	andeq	r1, r0, r2, lsl #16
    1614:	3f002e23 	svccc	0x00002e23
    1618:	3a0e0319 	bcc	382284 <__bss_end__+0x3775cc>
    161c:	270b3b0b 	strcs	r3, [fp, -fp, lsl #22]
    1620:	12011119 	andne	r1, r1, #1073741830	; 0x40000006
    1624:	97184006 	ldrls	r4, [r8, -r6]
    1628:	00001942 	andeq	r1, r0, r2, asr #18
    162c:	3f012e24 	svccc	0x00012e24
    1630:	3a0e0319 	bcc	38229c <__bss_end__+0x3775e4>
    1634:	270b3b0b 	strcs	r3, [fp, -fp, lsl #22]
    1638:	11134919 	tstne	r3, r9, lsl r9
    163c:	40061201 	andmi	r1, r6, r1, lsl #4
    1640:	19429718 	stmdbne	r2, {r3, r4, r8, r9, sl, ip, pc}^
    1644:	00001301 	andeq	r1, r0, r1, lsl #6
    1648:	03000525 	movweq	r0, #1317	; 0x525
    164c:	3b0b3a0e 	blcc	2cfe8c <__bss_end__+0x2c51d4>
    1650:	0213490b 	andseq	r4, r3, #180224	; 0x2c000
    1654:	26000017 			; <UNDEFINED> instruction: 0x26000017
    1658:	0e030034 	mcreq	0, 0, r0, cr3, cr4, {1}
    165c:	19341349 	ldmdbne	r4!, {r0, r3, r6, r8, r9, ip}
    1660:	00001802 	andeq	r1, r0, r2, lsl #16
    1664:	03003427 	movweq	r3, #1063	; 0x427
    1668:	3b0b3a08 	blcc	2cfe90 <__bss_end__+0x2c51d8>
    166c:	0213490b 	andseq	r4, r3, #180224	; 0x2c000
    1670:	28000017 	stmdacs	r0, {r0, r1, r2, r4}
    1674:	01018289 	smlabbeq	r1, r9, r2, r8
    1678:	13310111 	teqne	r1, #1073741828	; 0x40000004
    167c:	00001301 	andeq	r1, r0, r1, lsl #6
    1680:	01828a29 	orreq	r8, r2, r9, lsr #20
    1684:	91180200 	tstls	r8, r0, lsl #4
    1688:	00001842 	andeq	r1, r0, r2, asr #16
    168c:	0182892a 	orreq	r8, r2, sl, lsr #18
    1690:	31011100 	mrscc	r1, (UNDEF: 17)
    1694:	2b000013 	blcs	16e8 <__code_start__-0x6918>
    1698:	08030005 	stmdaeq	r3, {r0, r2}
    169c:	0b3b0b3a 	bleq	ec438c <__bss_end__+0xeb96d4>
    16a0:	17021349 	strne	r1, [r2, -r9, asr #6]
    16a4:	342c0000 	strtcc	r0, [ip], #-0
    16a8:	3a0e0300 	bcc	3822b0 <__bss_end__+0x3775f8>
    16ac:	490b3b0b 	stmdbmi	fp, {r0, r1, r3, r8, r9, fp, ip, sp}
    16b0:	00170213 	andseq	r0, r7, r3, lsl r2
    16b4:	002e2d00 	eoreq	r2, lr, r0, lsl #26
    16b8:	0e03193f 	mcreq	9, 0, r1, cr3, cr15, {1}
    16bc:	0b3b0b3a 	bleq	ec43ac <__bss_end__+0xeb96f4>
    16c0:	13491927 	movtne	r1, #39207	; 0x9927
    16c4:	06120111 			; <UNDEFINED> instruction: 0x06120111
    16c8:	42971840 	addsmi	r1, r7, #64, 16	; 0x400000
    16cc:	2e000019 	mcrcs	0, 0, r0, cr0, cr9, {0}
    16d0:	193f002e 	ldmdbne	pc!, {r1, r2, r3, r5}	; <UNPREDICTABLE>
    16d4:	0e6e193c 	mcreq	9, 3, r1, cr14, cr12, {1}
    16d8:	0b3a0e03 	bleq	e84eec <__bss_end__+0xe7a234>
    16dc:	00000b3b 	andeq	r0, r0, fp, lsr fp
	...

Disassembly of section .debug_loc:

00000000 <.debug_loc>:
       0:	0000001c 	andeq	r0, r0, ip, lsl r0
       4:	00000020 	andeq	r0, r0, r0, lsr #32
       8:	20500001 	subscs	r0, r0, r1
       c:	58000000 	stmdapl	r0, {}	; <UNPREDICTABLE>
      10:	01000000 	mrseq	r0, (UNDEF: 0)
      14:	00005400 	andeq	r5, r0, r0, lsl #8
      18:	00000000 	andeq	r0, r0, r0
      1c:	00840000 	addeq	r0, r4, r0
      20:	00880000 	addeq	r0, r8, r0
      24:	00010000 	andeq	r0, r1, r0
      28:	00008850 	andeq	r8, r0, r0, asr r8
      2c:	00016400 	andeq	r6, r1, r0, lsl #8
      30:	54000100 	strpl	r0, [r0], #-256	; 0x100
	...
      40:	00000030 	andeq	r0, r0, r0, lsr r0
      44:	30500001 	subscc	r0, r0, r1
      48:	d0000000 	andle	r0, r0, r0
      4c:	01000000 	mrseq	r0, (UNDEF: 0)
      50:	00d05500 	sbcseq	r5, r0, r0, lsl #10
      54:	00e00000 	rsceq	r0, r0, r0
      58:	00010000 	andeq	r0, r1, r0
      5c:	0000e050 	andeq	lr, r0, r0, asr r0
      60:	00010000 	andeq	r0, r1, r0
      64:	55000100 	strpl	r0, [r0, #-256]	; 0x100
	...
      74:	00000033 	andeq	r0, r0, r3, lsr r0
      78:	33510001 	cmpcc	r1, #1
      7c:	d0000000 	andle	r0, r0, r0
      80:	04000000 	streq	r0, [r0], #-0
      84:	5101f300 	mrspl	pc, SP_irq	; <UNPREDICTABLE>
      88:	0000d09f 	muleq	r0, pc, r0	; <UNPREDICTABLE>
      8c:	00010000 	andeq	r0, r1, r0
      90:	51000100 	mrspl	r0, (UNDEF: 16)
	...
      a0:	00000033 	andeq	r0, r0, r3, lsr r0
      a4:	33520001 	cmpcc	r2, #1
      a8:	d0000000 	andle	r0, r0, r0
      ac:	04000000 	streq	r0, [r0], #-0
      b0:	5201f300 	andpl	pc, r1, #0, 6
      b4:	0000d09f 	muleq	r0, pc, r0	; <UNPREDICTABLE>
      b8:	00010000 	andeq	r0, r1, r0
      bc:	52000100 	andpl	r0, r0, #0, 2
	...
      c8:	00000008 	andeq	r0, r0, r8
      cc:	00000010 	andeq	r0, r0, r0, lsl r0
      d0:	9f300002 	svcls	0x00300002
      d4:	00000010 	andeq	r0, r0, r0, lsl r0
      d8:	00000033 	andeq	r0, r0, r3, lsr r0
      dc:	d0530001 	subsle	r0, r3, r1
      e0:	00000000 	andeq	r0, r0, r0
      e4:	01000001 	tsteq	r0, r1
      e8:	00005300 	andeq	r5, r0, r0, lsl #6
      ec:	00000000 	andeq	r0, r0, r0
      f0:	00280000 	eoreq	r0, r8, r0
      f4:	00d00000 	sbcseq	r0, r0, r0
      f8:	00010000 	andeq	r0, r1, r0
      fc:	00000058 	andeq	r0, r0, r8, asr r0
     100:	00000000 	andeq	r0, r0, r0
     104:	00004c00 	andeq	r4, r0, r0, lsl #24
     108:	0000d000 	andeq	sp, r0, r0
     10c:	55000100 	strpl	r0, [r0, #-256]	; 0x100
	...
     118:	00000060 	andeq	r0, r0, r0, rrx
     11c:	00000088 	andeq	r0, r0, r8, lsl #1
     120:	10750003 	rsbsne	r0, r5, r3
     124:	0000889f 	muleq	r0, pc, r8	; <UNPREDICTABLE>
     128:	0000d000 	andeq	sp, r0, r0
     12c:	75000300 	strvc	r0, [r0, #-768]	; 0x300
     130:	00009f1c 	andeq	r9, r0, ip, lsl pc
     134:	00000000 	andeq	r0, r0, r0
     138:	01000000 	mrseq	r0, (UNDEF: 0)
     13c:	010f0000 	mrseq	r0, CPSR
     140:	00010000 	andeq	r0, r1, r0
     144:	00010f50 	andeq	r0, r1, r0, asr pc
     148:	00011400 	andeq	r1, r1, r0, lsl #8
     14c:	f3000400 	vshl.u8	d0, d0, d0
     150:	009f5001 	addseq	r5, pc, r1
	...
     15c:	0c000001 	stceq	0, cr0, [r0], {1}
     160:	01000001 	tsteq	r0, r1
     164:	010c5100 	mrseq	r5, (UNDEF: 28)
     168:	010f0000 	mrseq	r0, CPSR
     16c:	00010000 	andeq	r0, r1, r0
     170:	00010f52 	andeq	r0, r1, r2, asr pc
     174:	00011400 	andeq	r1, r1, r0, lsl #8
     178:	f3000400 	vshl.u8	d0, d0, d0
     17c:	009f5101 	addseq	r5, pc, r1, lsl #2
     180:	00000000 	andeq	r0, r0, r0
     184:	14000000 	strne	r0, [r0], #-0
     188:	47000001 	strmi	r0, [r0, -r1]
     18c:	01000001 	tsteq	r0, r1
     190:	01475000 	mrseq	r5, (UNDEF: 71)
     194:	015c0000 	cmpeq	ip, r0
     198:	00010000 	andeq	r0, r1, r0
     19c:	00000054 	andeq	r0, r0, r4, asr r0
     1a0:	00000000 	andeq	r0, r0, r0
     1a4:	00015c00 	andeq	r5, r1, r0, lsl #24
     1a8:	00016700 	andeq	r6, r1, r0, lsl #14
     1ac:	50000100 	andpl	r0, r0, r0, lsl #2
     1b0:	00000167 	andeq	r0, r0, r7, ror #2
     1b4:	000001d4 	ldrdeq	r0, [r0], -r4
     1b8:	00540001 	subseq	r0, r4, r1
     1bc:	00000000 	andeq	r0, r0, r0
     1c0:	68000000 	stmdavs	r0, {}	; <UNPREDICTABLE>
     1c4:	77000001 	strvc	r0, [r0, -r1]
     1c8:	01000001 	tsteq	r0, r1
     1cc:	01905000 	orrseq	r5, r0, r0
     1d0:	01a30000 			; <UNDEFINED> instruction: 0x01a30000
     1d4:	00010000 	andeq	r0, r1, r0
     1d8:	0001bc50 	andeq	fp, r1, r0, asr ip
     1dc:	0001c000 	andeq	ip, r1, r0
     1e0:	50000100 	andpl	r0, r0, r0, lsl #2
	...
     1ec:	000001d4 	ldrdeq	r0, [r0], -r4
     1f0:	000001df 	ldrdeq	r0, [r0], -pc	; <UNPREDICTABLE>
     1f4:	df500001 	svcle	0x00500001
     1f8:	44000001 	strmi	r0, [r0], #-1
     1fc:	01000002 	tsteq	r0, r2
     200:	00005400 	andeq	r5, r0, r0, lsl #8
     204:	00000000 	andeq	r0, r0, r0
     208:	02000000 	andeq	r0, r0, #0
     20c:	022c0000 	eoreq	r0, ip, #0
     210:	00010000 	andeq	r0, r1, r0
     214:	00023c54 	andeq	r3, r2, r4, asr ip
     218:	00024400 	andeq	r4, r2, r0, lsl #8
     21c:	54000100 	strpl	r0, [r0], #-256	; 0x100
	...
     228:	00000208 	andeq	r0, r0, r8, lsl #4
     22c:	0000022c 	andeq	r0, r0, ip, lsr #4
     230:	3c540001 	mrrccc	0, 0, r0, r4, cr1
     234:	44000002 	strmi	r0, [r0], #-2
     238:	01000002 	tsteq	r0, r2
     23c:	00005400 	andeq	r5, r0, r0, lsl #8
     240:	00000000 	andeq	r0, r0, r0
     244:	02440000 	subeq	r0, r4, #0
     248:	02630000 	rsbeq	r0, r3, #0
     24c:	00010000 	andeq	r0, r1, r0
     250:	00026350 	andeq	r6, r2, r0, asr r3
     254:	00027c00 	andeq	r7, r2, r0, lsl #24
     258:	54000100 	strpl	r0, [r0], #-256	; 0x100
     25c:	0000027c 	andeq	r0, r0, ip, ror r2
     260:	00000280 	andeq	r0, r0, r0, lsl #5
     264:	80500001 	subshi	r0, r0, r1
     268:	cc000002 	stcgt	0, cr0, [r0], {2}
     26c:	01000002 	tsteq	r0, r2
     270:	00005400 	andeq	r5, r0, r0, lsl #8
     274:	00000000 	andeq	r0, r0, r0
     278:	02440000 	subeq	r0, r4, #0
     27c:	02630000 	rsbeq	r0, r3, #0
     280:	00010000 	andeq	r0, r1, r0
     284:	00026351 	andeq	r6, r2, r1, asr r3
     288:	00027c00 	andeq	r7, r2, r0, lsl #24
     28c:	55000100 	strpl	r0, [r0, #-256]	; 0x100
     290:	0000027c 	andeq	r0, r0, ip, ror r2
     294:	00000284 	andeq	r0, r0, r4, lsl #5
     298:	84510001 	ldrbhi	r0, [r1], #-1
     29c:	9c000002 	stcls	0, cr0, [r0], {2}
     2a0:	01000002 	tsteq	r0, r2
     2a4:	029c5500 	addseq	r5, ip, #0, 10
     2a8:	02cc0000 	sbceq	r0, ip, #0
     2ac:	00040000 	andeq	r0, r4, r0
     2b0:	9f5101f3 	svcls	0x005101f3
	...
     2bc:	000002cc 	andeq	r0, r0, ip, asr #5
     2c0:	000002e4 	andeq	r0, r0, r4, ror #5
     2c4:	e4500001 	ldrb	r0, [r0], #-1
     2c8:	9c000002 	stcls	0, cr0, [r0], {2}
     2cc:	01000003 	tsteq	r0, r3
     2d0:	00005400 	andeq	r5, r0, r0, lsl #8
     2d4:	00000000 	andeq	r0, r0, r0
     2d8:	02cc0000 	sbceq	r0, ip, #0
     2dc:	02f30000 	rscseq	r0, r3, #0
     2e0:	00010000 	andeq	r0, r1, r0
     2e4:	0002f351 	andeq	pc, r2, r1, asr r3	; <UNPREDICTABLE>
     2e8:	00030c00 	andeq	r0, r3, r0, lsl #24
     2ec:	58000100 	stmdapl	r0, {r8}
     2f0:	0000030c 	andeq	r0, r0, ip, lsl #6
     2f4:	00000313 	andeq	r0, r0, r3, lsl r3
     2f8:	13510001 	cmpne	r1, #1
     2fc:	9c000003 	stcls	0, cr0, [r0], {3}
     300:	01000003 	tsteq	r0, r3
     304:	00005800 	andeq	r5, r0, r0, lsl #16
     308:	00000000 	andeq	r0, r0, r0
     30c:	02cc0000 	sbceq	r0, ip, #0
     310:	02f30000 	rscseq	r0, r3, #0
     314:	00010000 	andeq	r0, r1, r0
     318:	0002f352 	andeq	pc, r2, r2, asr r3	; <UNPREDICTABLE>
     31c:	00030c00 	andeq	r0, r3, r0, lsl #24
     320:	57000100 	strpl	r0, [r0, -r0, lsl #2]
     324:	0000030c 	andeq	r0, r0, ip, lsl #6
     328:	00000313 	andeq	r0, r0, r3, lsl r3
     32c:	13520001 	cmpne	r2, #1
     330:	9c000003 	stcls	0, cr0, [r0], {3}
     334:	01000003 	tsteq	r0, r3
     338:	00005700 	andeq	r5, r0, r0, lsl #14
     33c:	00000000 	andeq	r0, r0, r0
     340:	02cc0000 	sbceq	r0, ip, #0
     344:	02f30000 	rscseq	r0, r3, #0
     348:	00010000 	andeq	r0, r1, r0
     34c:	0002f353 	andeq	pc, r2, r3, asr r3	; <UNPREDICTABLE>
     350:	00030c00 	andeq	r0, r3, r0, lsl #24
     354:	56000100 	strpl	r0, [r0], -r0, lsl #2
     358:	0000030c 	andeq	r0, r0, ip, lsl #6
     35c:	00000313 	andeq	r0, r0, r3, lsl r3
     360:	13530001 	cmpne	r3, #1
     364:	9c000003 	stcls	0, cr0, [r0], {3}
     368:	01000003 	tsteq	r0, r3
     36c:	00005600 	andeq	r5, r0, r0, lsl #12
     370:	00000000 	andeq	r0, r0, r0
     374:	02e00000 	rsceq	r0, r0, #0
     378:	03240000 	teqeq	r4, #0
     37c:	00020000 	andeq	r0, r2, r0
     380:	00009f30 	andeq	r9, r0, r0, lsr pc
     384:	00000000 	andeq	r0, r0, r0
     388:	039c0000 	orrseq	r0, ip, #0
     38c:	03c70000 	biceq	r0, r7, #0
     390:	00010000 	andeq	r0, r1, r0
     394:	0003c750 	andeq	ip, r3, r0, asr r7
     398:	0003e000 	andeq	lr, r3, r0
     39c:	55000100 	strpl	r0, [r0, #-256]	; 0x100
     3a0:	000003e0 	andeq	r0, r0, r0, ror #7
     3a4:	000003e4 	andeq	r0, r0, r4, ror #7
     3a8:	e4500001 	ldrb	r0, [r0], #-1
     3ac:	90000003 	andls	r0, r0, r3
     3b0:	01000005 	tsteq	r0, r5
     3b4:	05905500 	ldreq	r5, [r0, #1280]	; 0x500
     3b8:	05c80000 	strbeq	r0, [r8]
     3bc:	00040000 	andeq	r0, r4, r0
     3c0:	9f5001f3 	svcls	0x005001f3
	...
     3cc:	0000039c 	muleq	r0, ip, r3
     3d0:	000003c7 	andeq	r0, r0, r7, asr #7
     3d4:	c7510001 	ldrbgt	r0, [r1, -r1]
     3d8:	e0000003 	and	r0, r0, r3
     3dc:	01000003 	tsteq	r0, r3
     3e0:	03e05900 	mvneq	r5, #0, 18
     3e4:	03e70000 	mvneq	r0, #0
     3e8:	00010000 	andeq	r0, r1, r0
     3ec:	0003e751 	andeq	lr, r3, r1, asr r7
     3f0:	00059000 	andeq	r9, r5, r0
     3f4:	59000100 	stmdbpl	r0, {r8}
     3f8:	00000590 	muleq	r0, r0, r5
     3fc:	000005c8 	andeq	r0, r0, r8, asr #11
     400:	01f30004 	mvnseq	r0, r4
     404:	00009f51 	andeq	r9, r0, r1, asr pc
     408:	00000000 	andeq	r0, r0, r0
     40c:	039c0000 	orrseq	r0, ip, #0
     410:	03c70000 	biceq	r0, r7, #0
     414:	00010000 	andeq	r0, r1, r0
     418:	0003c752 	andeq	ip, r3, r2, asr r7
     41c:	0003e000 	andeq	lr, r3, r0
     420:	58000100 	stmdapl	r0, {r8}
     424:	000003e0 	andeq	r0, r0, r0, ror #7
     428:	000003e7 	andeq	r0, r0, r7, ror #7
     42c:	e7520001 	ldrb	r0, [r2, -r1]
     430:	90000003 	andls	r0, r0, r3
     434:	01000005 	tsteq	r0, r5
     438:	05905800 	ldreq	r5, [r0, #2048]	; 0x800
     43c:	05c80000 	strbeq	r0, [r8]
     440:	00040000 	andeq	r0, r4, r0
     444:	9f5201f3 	svcls	0x005201f3
	...
     450:	0000039c 	muleq	r0, ip, r3
     454:	000003b8 			; <UNDEFINED> instruction: 0x000003b8
     458:	b8530001 	ldmdalt	r3, {r0}^
     45c:	fc000003 	stc2	0, cr0, [r0], {3}
     460:	01000004 	tsteq	r0, r4
     464:	04fc5700 	ldrbteq	r5, [ip], #1792	; 0x700
     468:	05c80000 	strbeq	r0, [r8]
     46c:	00040000 	andeq	r0, r4, r0
     470:	9f5301f3 	svcls	0x005301f3
	...
     47c:	000003b4 			; <UNDEFINED> instruction: 0x000003b4
     480:	000004a8 	andeq	r0, r0, r8, lsr #9
     484:	9f300002 	svcls	0x00300002
     488:	000004a8 	andeq	r0, r0, r8, lsr #9
     48c:	00000590 	muleq	r0, r0, r5
     490:	90540001 	subsls	r0, r4, r1
     494:	c8000005 	stmdagt	r0, {r0, r2}
     498:	04000005 	streq	r0, [r0], #-5
     49c:	7ec87000 	cdpvc	0, 12, cr7, cr8, cr0, {0}
     4a0:	0000009f 	muleq	r0, pc, r0	; <UNPREDICTABLE>
     4a4:	00000000 	andeq	r0, r0, r0
     4a8:	0003b400 	andeq	fp, r3, r0, lsl #8
     4ac:	00051000 	andeq	r1, r5, r0
     4b0:	30000200 	andcc	r0, r0, r0, lsl #4
     4b4:	0000009f 	muleq	r0, pc, r0	; <UNPREDICTABLE>
     4b8:	00000000 	andeq	r0, r0, r0
     4bc:	0003fc00 	andeq	pc, r3, r0, lsl #24
     4c0:	00040f00 	andeq	r0, r4, r0, lsl #30
     4c4:	52000100 	andpl	r0, r0, #0, 2
     4c8:	0000040f 	andeq	r0, r0, pc, lsl #8
     4cc:	0000043c 	andeq	r0, r0, ip, lsr r4
     4d0:	c8760004 	ldmdagt	r6!, {r2}^
     4d4:	043c9f7d 	ldrteq	r9, [ip], #-3965	; 0xf7d
     4d8:	045b0000 	ldrbeq	r0, [fp], #-0
     4dc:	00010000 	andeq	r0, r1, r0
     4e0:	00045b52 	andeq	r5, r4, r2, asr fp
     4e4:	0004a800 	andeq	sl, r4, r0, lsl #16
     4e8:	76000400 	strvc	r0, [r0], -r0, lsl #8
     4ec:	a89f7dc8 	ldmge	pc, {r3, r6, r7, r8, sl, fp, ip, sp, lr}	; <UNPREDICTABLE>
     4f0:	b8000004 	stmdalt	r0, {r2}
     4f4:	01000004 	tsteq	r0, r4
     4f8:	04b85200 	ldrteq	r5, [r8], #512	; 0x200
     4fc:	05900000 	ldreq	r0, [r0]
     500:	00040000 	andeq	r0, r4, r0
     504:	9f7dc876 	svcls	0x007dc876
     508:	00000590 	muleq	r0, r0, r5
     50c:	000005c8 	andeq	r0, r0, r8, asr #11
     510:	01f30009 	mvnseq	r0, r9
     514:	09072350 	stmdbeq	r7, {r4, r6, r8, r9, sp}
     518:	009f1af8 			; <UNDEFINED> instruction: 0x009f1af8
	...
     524:	90000004 	andls	r0, r0, r4
     528:	01000005 	tsteq	r0, r5
     52c:	05905600 	ldreq	r5, [r0, #1536]	; 0x600
     530:	05c80000 	strbeq	r0, [r8]
     534:	000c0000 	andeq	r0, ip, r0
     538:	235001f3 	cmpcs	r0, #-1073741764	; 0xc000003c
     53c:	1af80907 	bne	ffe02960 <__bss_end__+0xffdf7ca8>
     540:	9f02b823 	svcls	0x0002b823
	...
     54c:	000004f8 	strdeq	r0, [r0], -r8
     550:	00000590 	muleq	r0, r0, r5
     554:	90540001 	subsls	r0, r4, r1
     558:	c8000005 	stmdagt	r0, {r0, r2}
     55c:	04000005 	streq	r0, [r0], #-5
     560:	7ec87000 	cdpvc	0, 12, cr7, cr8, cr0, {0}
     564:	0000009f 	muleq	r0, pc, r0	; <UNPREDICTABLE>
     568:	00000000 	andeq	r0, r0, r0
     56c:	00050000 	andeq	r0, r5, r0
     570:	00059000 	andeq	r9, r5, r0
     574:	54000100 	strpl	r0, [r0], #-256	; 0x100
     578:	00000590 	muleq	r0, r0, r5
     57c:	000005c8 	andeq	r0, r0, r8, asr #11
     580:	c8700004 	ldmdagt	r0!, {r2}^
     584:	00009f7e 	andeq	r9, r0, lr, ror pc
     588:	00000000 	andeq	r0, r0, r0
     58c:	05dc0000 	ldrbeq	r0, [ip]
     590:	06080000 	streq	r0, [r8], -r0
     594:	00010000 	andeq	r0, r1, r0
     598:	00000056 	andeq	r0, r0, r6, asr r0
     59c:	00000000 	andeq	r0, r0, r0
     5a0:	0005e400 	andeq	lr, r5, r0, lsl #8
     5a4:	00060400 	andeq	r0, r6, r0, lsl #8
     5a8:	55000100 	strpl	r0, [r0, #-256]	; 0x100
	...
     5b4:	000005fc 	strdeq	r0, [r0], -ip
     5b8:	00000618 	andeq	r0, r0, r8, lsl r6
     5bc:	9f300002 	svcls	0x00300002
     5c0:	00000618 	andeq	r0, r0, r8, lsl r6
     5c4:	00000738 	andeq	r0, r0, r8, lsr r7
     5c8:	00560001 	subseq	r0, r6, r1
     5cc:	00000000 	andeq	r0, r0, r0
     5d0:	fc000000 	stc2	0, cr0, [r0], {-0}
     5d4:	18000005 	stmdane	r0, {r0, r2}
     5d8:	02000006 	andeq	r0, r0, #6
     5dc:	189f3000 	ldmne	pc, {ip, sp}	; <UNPREDICTABLE>
     5e0:	38000006 	stmdacc	r0, {r1, r2}
     5e4:	01000007 	tsteq	r0, r7
     5e8:	00005500 	andeq	r5, r0, r0, lsl #10
     5ec:	00000000 	andeq	r0, r0, r0
     5f0:	063c0000 	ldrteq	r0, [ip], -r0
     5f4:	06c00000 	strbeq	r0, [r0], r0
     5f8:	00010000 	andeq	r0, r1, r0
     5fc:	00000054 	andeq	r0, r0, r4, asr r0
     600:	00000000 	andeq	r0, r0, r0
     604:	00078800 	andeq	r8, r7, r0, lsl #16
     608:	0007b700 	andeq	fp, r7, r0, lsl #14
     60c:	50000100 	andpl	r0, r0, r0, lsl #2
     610:	000007b7 			; <UNDEFINED> instruction: 0x000007b7
     614:	000007d0 	ldrdeq	r0, [r0], -r0	; <UNPREDICTABLE>
     618:	01f30004 	mvnseq	r0, r4
     61c:	07d09f50 			; <UNDEFINED> instruction: 0x07d09f50
     620:	07d40000 	ldrbeq	r0, [r4, r0]
     624:	00010000 	andeq	r0, r1, r0
     628:	0007d450 	andeq	sp, r7, r0, asr r4
     62c:	0007fc00 	andeq	pc, r7, r0, lsl #24
     630:	f3000400 	vshl.u8	d0, d0, d0
     634:	fc9f5001 	ldc2	0, cr5, [pc], {1}
     638:	00000007 	andeq	r0, r0, r7
     63c:	01000008 	tsteq	r0, r8
     640:	08005000 	stmdaeq	r0, {ip, lr}
     644:	08200000 	stmdaeq	r0!, {}	; <UNPREDICTABLE>
     648:	00040000 	andeq	r0, r4, r0
     64c:	9f5001f3 	svcls	0x005001f3
	...
     658:	0000078c 	andeq	r0, r0, ip, lsl #15
     65c:	000007b7 			; <UNDEFINED> instruction: 0x000007b7
     660:	b7500001 	ldrblt	r0, [r0, -r1]
     664:	d0000007 	andle	r0, r0, r7
     668:	04000007 	streq	r0, [r0], #-7
     66c:	5001f300 	andpl	pc, r1, r0, lsl #6
     670:	0007d09f 	muleq	r7, pc, r0	; <UNPREDICTABLE>
     674:	0007d400 	andeq	sp, r7, r0, lsl #8
     678:	50000100 	andpl	r0, r0, r0, lsl #2
     67c:	000007d4 	ldrdeq	r0, [r0], -r4
     680:	000007fc 	strdeq	r0, [r0], -ip
     684:	01f30004 	mvnseq	r0, r4
     688:	07fc9f50 	ubfxeq	r9, r0, #30, #29
     68c:	08000000 	stmdaeq	r0, {}	; <UNPREDICTABLE>
     690:	00010000 	andeq	r0, r1, r0
     694:	00080050 	andeq	r0, r8, r0, asr r0
     698:	00082000 	andeq	r2, r8, r0
     69c:	f3000400 	vshl.u8	d0, d0, d0
     6a0:	009f5001 	addseq	r5, pc, r1
	...
     6ac:	24000000 	strcs	r0, [r0], #-0
     6b0:	01000000 	mrseq	r0, (UNDEF: 0)
     6b4:	00245000 	eoreq	r5, r4, r0
     6b8:	00280000 	eoreq	r0, r8, r0
     6bc:	00040000 	andeq	r0, r4, r0
     6c0:	9f5001f3 	svcls	0x005001f3
     6c4:	00000028 	andeq	r0, r0, r8, lsr #32
     6c8:	0000002c 	andeq	r0, r0, ip, lsr #32
     6cc:	2c500001 	mrrccs	0, 0, r0, r0, cr1	; <UNPREDICTABLE>
     6d0:	30000000 	andcc	r0, r0, r0
     6d4:	04000000 	streq	r0, [r0], #-0
     6d8:	5001f300 	andpl	pc, r1, r0, lsl #6
     6dc:	0000309f 	muleq	r0, pc, r0	; <UNPREDICTABLE>
     6e0:	00003400 	andeq	r3, r0, r0, lsl #8
     6e4:	50000100 	andpl	r0, r0, r0, lsl #2
     6e8:	00000034 	andeq	r0, r0, r4, lsr r0
     6ec:	0000003c 	andeq	r0, r0, ip, lsr r0
     6f0:	01f30004 	mvnseq	r0, r4
     6f4:	00009f50 	andeq	r9, r0, r0, asr pc
     6f8:	00000000 	andeq	r0, r0, r0
     6fc:	003c0000 	eorseq	r0, ip, r0
     700:	00470000 	subeq	r0, r7, r0
     704:	00010000 	andeq	r0, r1, r0
     708:	00004750 	andeq	r4, r0, r0, asr r7
     70c:	0000b400 	andeq	fp, r0, r0, lsl #8
     710:	54000100 	strpl	r0, [r0], #-256	; 0x100
	...
     71c:	00000044 	andeq	r0, r0, r4, asr #32
     720:	00000047 	andeq	r0, r0, r7, asr #32
     724:	47500001 	ldrbmi	r0, [r0, -r1]
     728:	b4000000 	strlt	r0, [r0], #-0
     72c:	01000000 	mrseq	r0, (UNDEF: 0)
     730:	00005400 	andeq	r5, r0, r0, lsl #8
     734:	00000000 	andeq	r0, r0, r0
     738:	00540000 	subseq	r0, r4, r0
     73c:	009f0000 	addseq	r0, pc, r0
     740:	00010000 	andeq	r0, r1, r0
     744:	0000a050 	andeq	sl, r0, r0, asr r0
     748:	0000ac00 	andeq	sl, r0, r0, lsl #24
     74c:	50000100 	andpl	r0, r0, r0, lsl #2
	...
     758:	000000b4 	strheq	r0, [r0], -r4
     75c:	000000c0 	andeq	r0, r0, r0, asr #1
     760:	c0500001 	subsgt	r0, r0, r1
     764:	e8000000 	stmda	r0, {}	; <UNPREDICTABLE>
     768:	01000001 	tsteq	r0, r1
     76c:	00005900 	andeq	r5, r0, r0, lsl #18
     770:	00000000 	andeq	r0, r0, r0
     774:	00bc0000 	adcseq	r0, ip, r0
     778:	00f00000 	rscseq	r0, r0, r0
     77c:	00020000 	andeq	r0, r2, r0
     780:	00f09f30 	rscseq	r9, r0, r0, lsr pc
     784:	01e80000 	mvneq	r0, r0
     788:	00010000 	andeq	r0, r1, r0
     78c:	00000055 	andeq	r0, r0, r5, asr r0
     790:	00000000 	andeq	r0, r0, r0
     794:	0000bc00 	andeq	fp, r0, r0, lsl #24
     798:	0000f000 	andeq	pc, r0, r0
     79c:	30000200 	andcc	r0, r0, r0, lsl #4
     7a0:	0000f09f 	muleq	r0, pc, r0	; <UNPREDICTABLE>
     7a4:	0001e800 	andeq	lr, r1, r0, lsl #16
     7a8:	57000100 	strpl	r0, [r0, -r0, lsl #2]
	...
     7b4:	000000bc 	strheq	r0, [r0], -ip
     7b8:	000000f0 	strdeq	r0, [r0], -r0	; <UNPREDICTABLE>
     7bc:	9f300002 	svcls	0x00300002
     7c0:	000000f0 	strdeq	r0, [r0], -r0	; <UNPREDICTABLE>
     7c4:	000001e8 	andeq	r0, r0, r8, ror #3
     7c8:	00560001 	subseq	r0, r6, r1
     7cc:	00000000 	andeq	r0, r0, r0
     7d0:	d4000000 	strle	r0, [r0], #-0
     7d4:	0c000000 	stceq	0, cr0, [r0], {-0}
     7d8:	01000001 	tsteq	r0, r1
     7dc:	010c5000 	mrseq	r5, (UNDEF: 12)
     7e0:	01240000 	teqeq	r4, r0
     7e4:	00010000 	andeq	r0, r1, r0
     7e8:	00012454 	andeq	r2, r1, r4, asr r4
     7ec:	00014000 	andeq	r4, r1, r0
     7f0:	50000100 	andpl	r0, r0, r0, lsl #2
     7f4:	00000140 	andeq	r0, r0, r0, asr #2
     7f8:	00000164 	andeq	r0, r0, r4, ror #2
     7fc:	64540001 	ldrbvs	r0, [r4], #-1
     800:	70000001 	andvc	r0, r0, r1
     804:	01000001 	tsteq	r0, r1
     808:	01705000 	cmneq	r0, r0
     80c:	01e80000 	mvneq	r0, r0
     810:	00010000 	andeq	r0, r1, r0
     814:	00000054 	andeq	r0, r0, r4, asr r0
     818:	00000000 	andeq	r0, r0, r0
     81c:	0001e800 	andeq	lr, r1, r0, lsl #16
     820:	0001ff00 	andeq	pc, r1, r0, lsl #30
     824:	50000100 	andpl	r0, r0, r0, lsl #2
     828:	000001ff 	strdeq	r0, [r0], -pc	; <UNPREDICTABLE>
     82c:	00000218 	andeq	r0, r0, r8, lsl r2
     830:	18540001 	ldmdane	r4, {r0}^
     834:	23000002 	movwcs	r0, #2
     838:	01000002 	tsteq	r0, r2
     83c:	02235000 	eoreq	r5, r3, #0
     840:	023c0000 	eorseq	r0, ip, #0
     844:	00010000 	andeq	r0, r1, r0
     848:	00023c54 	andeq	r3, r2, r4, asr ip
     84c:	00024700 	andeq	r4, r2, r0, lsl #14
     850:	50000100 	andpl	r0, r0, r0, lsl #2
     854:	00000247 	andeq	r0, r0, r7, asr #4
     858:	00000260 	andeq	r0, r0, r0, ror #4
     85c:	60540001 	subsvs	r0, r4, r1
     860:	bc000002 	stclt	0, cr0, [r0], {2}
     864:	04000002 	streq	r0, [r0], #-2
     868:	5001f300 	andpl	pc, r1, r0, lsl #6
     86c:	0002bc9f 	muleq	r2, pc, ip	; <UNPREDICTABLE>
     870:	0002c000 	andeq	ip, r2, r0
     874:	50000100 	andpl	r0, r0, r0, lsl #2
     878:	000002c0 	andeq	r0, r0, r0, asr #5
     87c:	000002e0 	andeq	r0, r0, r0, ror #5
     880:	01f30004 	mvnseq	r0, r4
     884:	00009f50 	andeq	r9, r0, r0, asr pc
     888:	00000000 	andeq	r0, r0, r0
     88c:	01e80000 	mvneq	r0, r0
     890:	01ff0000 	mvnseq	r0, r0
     894:	00010000 	andeq	r0, r1, r0
     898:	0001ff51 	andeq	pc, r1, r1, asr pc	; <UNPREDICTABLE>
     89c:	00021800 	andeq	r1, r2, r0, lsl #16
     8a0:	55000100 	strpl	r0, [r0, #-256]	; 0x100
     8a4:	00000218 	andeq	r0, r0, r8, lsl r2
     8a8:	00000223 	andeq	r0, r0, r3, lsr #4
     8ac:	23510001 	cmpcs	r1, #1
     8b0:	3c000002 	stccc	0, cr0, [r0], {2}
     8b4:	01000002 	tsteq	r0, r2
     8b8:	023c5500 	eorseq	r5, ip, #0, 10
     8bc:	02470000 	subeq	r0, r7, #0
     8c0:	00010000 	andeq	r0, r1, r0
     8c4:	00024751 	andeq	r4, r2, r1, asr r7
     8c8:	0002bc00 	andeq	fp, r2, r0, lsl #24
     8cc:	55000100 	strpl	r0, [r0, #-256]	; 0x100
     8d0:	000002bc 			; <UNDEFINED> instruction: 0x000002bc
     8d4:	000002c0 	andeq	r0, r0, r0, asr #5
     8d8:	c0510001 	subsgt	r0, r1, r1
     8dc:	e0000002 	and	r0, r0, r2
     8e0:	01000002 	tsteq	r0, r2
     8e4:	00005500 	andeq	r5, r0, r0, lsl #10
     8e8:	00000000 	andeq	r0, r0, r0
     8ec:	02600000 	rsbeq	r0, r0, #0
     8f0:	02bc0000 	adcseq	r0, ip, #0
     8f4:	00010000 	andeq	r0, r1, r0
     8f8:	0002c054 	andeq	ip, r2, r4, asr r0
     8fc:	0002e000 	andeq	lr, r2, r0
     900:	54000100 	strpl	r0, [r0], #-256	; 0x100
	...
     90c:	00000268 	andeq	r0, r0, r8, ror #4
     910:	00000274 	andeq	r0, r0, r4, ror r2
     914:	74500001 	ldrbvc	r0, [r0], #-1
     918:	b3000002 	movwlt	r0, #2
     91c:	01000002 	tsteq	r0, r2
     920:	00005300 	andeq	r5, r0, r0, lsl #6
     924:	00000000 	andeq	r0, r0, r0
     928:	02ec0000 	rsceq	r0, ip, #0
     92c:	03030000 	movweq	r0, #12288	; 0x3000
     930:	00010000 	andeq	r0, r1, r0
     934:	00030450 	andeq	r0, r3, r0, asr r4
     938:	00031400 	andeq	r1, r3, r0, lsl #8
     93c:	50000100 	andpl	r0, r0, r0, lsl #2
	...
     948:	00000358 	andeq	r0, r0, r8, asr r3
     94c:	0000036c 	andeq	r0, r0, ip, ror #6
     950:	74530001 	ldrbvc	r0, [r3], #-1
     954:	87000003 	strhi	r0, [r0, -r3]
     958:	01000003 	tsteq	r0, r3
     95c:	00005300 	andeq	r5, r0, r0, lsl #6
     960:	00000000 	andeq	r0, r0, r0
     964:	03dc0000 	bicseq	r0, ip, #0
     968:	04100000 	ldreq	r0, [r0], #-0
     96c:	00020000 	andeq	r0, r2, r0
     970:	04109f30 	ldreq	r9, [r0], #-3888	; 0xf30
     974:	04cc0000 	strbeq	r0, [ip], #0
     978:	00010000 	andeq	r0, r1, r0
     97c:	00000055 	andeq	r0, r0, r5, asr r0
     980:	00000000 	andeq	r0, r0, r0
     984:	0003dc00 	andeq	sp, r3, r0, lsl #24
     988:	00041000 	andeq	r1, r4, r0
     98c:	30000200 	andcc	r0, r0, r0, lsl #4
     990:	0004109f 	muleq	r4, pc, r0	; <UNPREDICTABLE>
     994:	0004cc00 	andeq	ip, r4, r0, lsl #24
     998:	58000100 	stmdapl	r0, {r8}
	...
     9a4:	000003dc 	ldrdeq	r0, [r0], -ip
     9a8:	00000410 	andeq	r0, r0, r0, lsl r4
     9ac:	9f300002 	svcls	0x00300002
     9b0:	00000410 	andeq	r0, r0, r0, lsl r4
     9b4:	000004cc 	andeq	r0, r0, ip, asr #9
     9b8:	cc560001 	mrrcgt	0, 0, r0, r6, cr1
     9bc:	f4000004 	vst4.8	{d0-d3}, [r0], r4
     9c0:	01000004 	tsteq	r0, r4
     9c4:	00005000 	andeq	r5, r0, r0
     9c8:	00000000 	andeq	r0, r0, r0
     9cc:	03f40000 	mvnseq	r0, #0
     9d0:	043c0000 	ldrteq	r0, [ip], #-0
     9d4:	00010000 	andeq	r0, r1, r0
     9d8:	00043c50 	andeq	r3, r4, r0, asr ip
     9dc:	00047000 	andeq	r7, r4, r0
     9e0:	54000100 	strpl	r0, [r0], #-256	; 0x100
     9e4:	00000470 	andeq	r0, r0, r0, ror r4
     9e8:	00000480 	andeq	r0, r0, r0, lsl #9
     9ec:	00500001 	subseq	r0, r0, r1
     9f0:	00000000 	andeq	r0, r0, r0
     9f4:	f4000000 	vst4.8	{d0-d3}, [r0], r0
     9f8:	ff000004 			; <UNDEFINED> instruction: 0xff000004
     9fc:	01000004 	tsteq	r0, r4
     a00:	04ff5000 	ldrbteq	r5, [pc], #0	; a08 <__code_start__-0x75f8>
     a04:	050c0000 	streq	r0, [ip, #-0]
     a08:	00010000 	andeq	r0, r1, r0
     a0c:	00000054 	andeq	r0, r0, r4, asr r0
     a10:	00000000 	andeq	r0, r0, r0
     a14:	0005f000 	andeq	pc, r5, r0
     a18:	0005fb00 	andeq	pc, r5, r0, lsl #22
     a1c:	50000100 	andpl	r0, r0, r0, lsl #2
     a20:	000005fb 	strdeq	r0, [r0], -fp
     a24:	00000614 	andeq	r0, r0, r4, lsl r6
     a28:	14540001 	ldrbne	r0, [r4], #-1
     a2c:	18000006 	stmdane	r0, {r1, r2}
     a30:	01000006 	tsteq	r0, r6
     a34:	06185000 	ldreq	r5, [r8], -r0
     a38:	06500000 	ldrbeq	r0, [r0], -r0
     a3c:	00010000 	andeq	r0, r1, r0
     a40:	00000054 	andeq	r0, r0, r4, asr r0
	...
     a4c:	00002400 	andeq	r2, r0, r0, lsl #8
     a50:	50000100 	andpl	r0, r0, r0, lsl #2
     a54:	00000024 	andeq	r0, r0, r4, lsr #32
     a58:	000000e4 	andeq	r0, r0, r4, ror #1
     a5c:	01f30004 	mvnseq	r0, r4
     a60:	00e49f50 	rsceq	r9, r4, r0, asr pc
     a64:	00e80000 	rsceq	r0, r8, r0
     a68:	00010000 	andeq	r0, r1, r0
     a6c:	0000e850 	andeq	lr, r0, r0, asr r8
     a70:	0000f000 	andeq	pc, r0, r0
     a74:	f3000400 	vshl.u8	d0, d0, d0
     a78:	009f5001 	addseq	r5, pc, r1
	...
     a84:	20000000 	andcs	r0, r0, r0
     a88:	01000000 	mrseq	r0, (UNDEF: 0)
     a8c:	00205100 	eoreq	r5, r0, r0, lsl #2
     a90:	00800000 	addeq	r0, r0, r0
     a94:	00010000 	andeq	r0, r1, r0
     a98:	00009c51 	andeq	r9, r0, r1, asr ip
     a9c:	0000a000 	andeq	sl, r0, r0
     aa0:	51000100 	mrspl	r0, (UNDEF: 16)
     aa4:	000000b8 	strheq	r0, [r0], -r8
     aa8:	000000c8 	andeq	r0, r0, r8, asr #1
     aac:	e4510001 	ldrb	r0, [r1], #-1
     ab0:	e8000000 	stmda	r0, {}	; <UNPREDICTABLE>
     ab4:	01000000 	mrseq	r0, (UNDEF: 0)
     ab8:	00005100 	andeq	r5, r0, r0, lsl #2
     abc:	00000000 	andeq	r0, r0, r0
     ac0:	00040000 	andeq	r0, r4, r0
     ac4:	00240000 	eoreq	r0, r4, r0
     ac8:	00010000 	andeq	r0, r1, r0
     acc:	00002450 	andeq	r2, r0, r0, asr r4
     ad0:	00009000 	andeq	r9, r0, r0
     ad4:	53000100 	movwpl	r0, #256	; 0x100
     ad8:	0000009c 	muleq	r0, ip, r0
     adc:	000000a4 	andeq	r0, r0, r4, lsr #1
     ae0:	b8530001 	ldmdalt	r3, {r0}^
     ae4:	bc000000 	stclt	0, cr0, [r0], {-0}
     ae8:	01000000 	mrseq	r0, (UNDEF: 0)
     aec:	00e45300 	rsceq	r5, r4, r0, lsl #6
     af0:	00e80000 	rsceq	r0, r8, r0
     af4:	00010000 	andeq	r0, r1, r0
     af8:	00000050 	andeq	r0, r0, r0, asr r0
     afc:	00000000 	andeq	r0, r0, r0
     b00:	00000800 	andeq	r0, r0, r0, lsl #16
     b04:	00002000 	andeq	r2, r0, r0
     b08:	51000100 	mrspl	r0, (UNDEF: 16)
     b0c:	00000020 	andeq	r0, r0, r0, lsr #32
     b10:	00000034 	andeq	r0, r0, r4, lsr r0
     b14:	34520001 	ldrbcc	r0, [r2], #-1
     b18:	48000000 	stmdami	r0, {}	; <UNPREDICTABLE>
     b1c:	01000000 	mrseq	r0, (UNDEF: 0)
     b20:	00485000 	subeq	r5, r8, r0
     b24:	00cc0000 	sbceq	r0, ip, r0
     b28:	00010000 	andeq	r0, r1, r0
     b2c:	0000cc52 	andeq	ip, r0, r2, asr ip
     b30:	0000e000 	andeq	lr, r0, r0
     b34:	50000100 	andpl	r0, r0, r0, lsl #2
     b38:	000000e4 	andeq	r0, r0, r4, ror #1
     b3c:	000000e8 	andeq	r0, r0, r8, ror #1
     b40:	00510001 	subseq	r0, r1, r1
     b44:	00000000 	andeq	r0, r0, r0
     b48:	44000000 	strmi	r0, [r0], #-0
     b4c:	48000000 	stmdami	r0, {}	; <UNPREDICTABLE>
     b50:	01000000 	mrseq	r0, (UNDEF: 0)
     b54:	00485200 	subeq	r5, r8, r0, lsl #4
     b58:	004c0000 	subeq	r0, ip, r0
     b5c:	00120000 	andseq	r0, r2, r0
     b60:	2438007c 	ldrtcs	r0, [r8], #-124	; 0x7c
     b64:	01940273 	orrseq	r0, r4, r3, ror r2
     b68:	221aff08 	andscs	pc, sl, #8, 30
     b6c:	0070243b 	rsbseq	r2, r0, fp, lsr r4
     b70:	004c9f27 	subeq	r9, ip, r7, lsr #30
     b74:	00540000 	subseq	r0, r4, r0
     b78:	00120000 	andseq	r0, r2, r0
     b7c:	2438007c 	ldrtcs	r0, [r8], #-124	; 0x7c
     b80:	01947e73 	orrseq	r7, r4, r3, ror lr
     b84:	221aff08 	andscs	pc, sl, #8, 30
     b88:	0070243b 	rsbseq	r2, r0, fp, lsr r4
     b8c:	00009f27 	andeq	r9, r0, r7, lsr #30
     b90:	00000000 	andeq	r0, r0, r0
     b94:	001c0000 	andseq	r0, ip, r0
     b98:	00e40000 	rsceq	r0, r4, r0
     b9c:	00010000 	andeq	r0, r1, r0
     ba0:	00000054 	andeq	r0, r0, r4, asr r0
	...
     bac:	00000400 	andeq	r0, r0, r0, lsl #8
     bb0:	52000100 	andpl	r0, r0, #0, 2
     bb4:	00000004 	andeq	r0, r0, r4
     bb8:	00000020 	andeq	r0, r0, r0, lsr #32
     bbc:	01f30004 	mvnseq	r0, r4
     bc0:	00009f52 	andeq	r9, r0, r2, asr pc
	...
     bcc:	000c0000 	andeq	r0, ip, r0
     bd0:	00010000 	andeq	r0, r1, r0
     bd4:	00000c50 	andeq	r0, r0, r0, asr ip
     bd8:	00001400 	andeq	r1, r0, r0, lsl #8
     bdc:	73000300 	movwvc	r0, #768	; 0x300
     be0:	00149f01 	andseq	r9, r4, r1, lsl #30
     be4:	00200000 	eoreq	r0, r0, r0
     be8:	00010000 	andeq	r0, r1, r0
     bec:	00000053 	andeq	r0, r0, r3, asr r0
     bf0:	00000000 	andeq	r0, r0, r0
     bf4:	00002c00 	andeq	r2, r0, r0, lsl #24
     bf8:	00003800 	andeq	r3, r0, r0, lsl #16
     bfc:	50000100 	andpl	r0, r0, r0, lsl #2
     c00:	00000038 	andeq	r0, r0, r8, lsr r0
     c04:	00000048 	andeq	r0, r0, r8, asr #32
     c08:	48550001 	ldmdami	r5, {r0}^
     c0c:	58000000 	stmdapl	r0, {}	; <UNPREDICTABLE>
     c10:	01000000 	mrseq	r0, (UNDEF: 0)
     c14:	00005000 	andeq	r5, r0, r0
	...
     c20:	000b0000 	andeq	r0, fp, r0
     c24:	00010000 	andeq	r0, r1, r0
     c28:	00000b50 	andeq	r0, r0, r0, asr fp
     c2c:	00001400 	andeq	r1, r0, r0, lsl #8
     c30:	54000100 	strpl	r0, [r0], #-256	; 0x100
	...
     c40:	00000010 	andeq	r0, r0, r0, lsl r0
     c44:	10500001 	subsne	r0, r0, r1
     c48:	34000000 	strcc	r0, [r0], #-0
     c4c:	01000000 	mrseq	r0, (UNDEF: 0)
     c50:	00005400 	andeq	r5, r0, r0, lsl #8
	...
     c5c:	00040000 	andeq	r0, r4, r0
     c60:	00010000 	andeq	r0, r1, r0
     c64:	00000450 	andeq	r0, r0, r0, asr r4
     c68:	00000c00 	andeq	r0, r0, r0, lsl #24
     c6c:	70000300 	andvc	r0, r0, r0, lsl #6
     c70:	000c9f30 	andeq	r9, ip, r0, lsr pc
     c74:	00140000 	andseq	r0, r4, r0
     c78:	00040000 	andeq	r0, r4, r0
     c7c:	9f5001f3 	svcls	0x005001f3
	...
     c88:	00000014 	andeq	r0, r0, r4, lsl r0
     c8c:	00000020 	andeq	r0, r0, r0, lsr #32
     c90:	20500001 	subscs	r0, r0, r1
     c94:	2c000000 	stccs	0, cr0, [r0], {-0}
     c98:	03000000 	movweq	r0, #0
     c9c:	9f017000 	svcls	0x00017000
     ca0:	0000002c 	andeq	r0, r0, ip, lsr #32
     ca4:	00000040 	andeq	r0, r0, r0, asr #32
     ca8:	00500001 	subseq	r0, r0, r1
     cac:	00000000 	andeq	r0, r0, r0
     cb0:	14000000 	strne	r0, [r0], #-0
     cb4:	18000000 	stmdane	r0, {}	; <UNPREDICTABLE>
     cb8:	01000000 	mrseq	r0, (UNDEF: 0)
     cbc:	00185100 	andseq	r5, r8, r0, lsl #2
     cc0:	00400000 	subeq	r0, r0, r0
     cc4:	00040000 	andeq	r0, r4, r0
     cc8:	9f5101f3 	svcls	0x005101f3
	...
     cd4:	00000040 	andeq	r0, r0, r0, asr #32
     cd8:	00000060 	andeq	r0, r0, r0, rrx
     cdc:	60500001 	subsvs	r0, r0, r1
     ce0:	6c000000 	stcvs	0, cr0, [r0], {-0}
     ce4:	03000000 	movweq	r0, #0
     ce8:	9f017100 	svcls	0x00017100
     cec:	0000006c 	andeq	r0, r0, ip, rrx
     cf0:	00000074 	andeq	r0, r0, r4, ror r0
     cf4:	74510001 	ldrbvc	r0, [r1], #-1
     cf8:	80000000 	andhi	r0, r0, r0
     cfc:	03000000 	movweq	r0, #0
     d00:	9f017100 	svcls	0x00017100
	...
     d0c:	00000040 	andeq	r0, r0, r0, asr #32
     d10:	00000050 	andeq	r0, r0, r0, asr r0
     d14:	50510001 	subspl	r0, r1, r1
     d18:	80000000 	andhi	r0, r0, r0
     d1c:	04000000 	streq	r0, [r0], #-0
     d20:	5101f300 	mrspl	pc, SP_irq	; <UNPREDICTABLE>
     d24:	0000009f 	muleq	r0, pc, r0	; <UNPREDICTABLE>
     d28:	00000000 	andeq	r0, r0, r0
     d2c:	00004000 	andeq	r4, r0, r0
     d30:	00005800 	andeq	r5, r0, r0, lsl #16
     d34:	52000100 	andpl	r0, r0, #0, 2
     d38:	00000058 	andeq	r0, r0, r8, asr r0
     d3c:	00000064 	andeq	r0, r0, r4, rrx
     d40:	64520001 	ldrbvs	r0, [r2], #-1
     d44:	68000000 	stmdavs	r0, {}	; <UNPREDICTABLE>
     d48:	03000000 	movweq	r0, #0
     d4c:	9f017200 	svcls	0x00017200
     d50:	00000068 	andeq	r0, r0, r8, rrx
     d54:	00000080 	andeq	r0, r0, r0, lsl #1
     d58:	00520001 	subseq	r0, r2, r1
     d5c:	00000000 	andeq	r0, r0, r0
     d60:	40000000 	andmi	r0, r0, r0
     d64:	54000000 	strpl	r0, [r0], #-0
     d68:	01000000 	mrseq	r0, (UNDEF: 0)
     d6c:	00545300 	subseq	r5, r4, r0, lsl #6
     d70:	00780000 	rsbseq	r0, r8, r0
     d74:	00010000 	andeq	r0, r1, r0
     d78:	00000053 	andeq	r0, r0, r3, asr r0
     d7c:	00000000 	andeq	r0, r0, r0
     d80:	00004800 	andeq	r4, r0, r0, lsl #16
     d84:	00006000 	andeq	r6, r0, r0
     d88:	5c000100 	stfpls	f0, [r0], {-0}
     d8c:	00000060 	andeq	r0, r0, r0, rrx
     d90:	00000080 	andeq	r0, r0, r0, lsl #1
     d94:	01f3000a 	mvnseq	r0, sl
     d98:	5301f352 	movwpl	pc, #4946	; 0x1352	; <UNPREDICTABLE>
     d9c:	9f01231c 	svcls	0x0001231c
	...
     da8:	00000080 	andeq	r0, r0, r0, lsl #1
     dac:	000000a4 	andeq	r0, r0, r4, lsr #1
     db0:	a4500001 	ldrbge	r0, [r0], #-1
     db4:	18000000 	stmdane	r0, {}	; <UNPREDICTABLE>
     db8:	03000001 	movweq	r0, #1
     dbc:	9f027000 	svcls	0x00027000
     dc0:	00000118 	andeq	r0, r0, r8, lsl r1
     dc4:	00000230 	andeq	r0, r0, r0, lsr r2
     dc8:	01f30004 	mvnseq	r0, r4
     dcc:	00009f50 	andeq	r9, r0, r0, asr pc
     dd0:	00000000 	andeq	r0, r0, r0
     dd4:	00800000 	addeq	r0, r0, r0
     dd8:	00f00000 	rscseq	r0, r0, r0
     ddc:	00010000 	andeq	r0, r1, r0
     de0:	0000f051 	andeq	pc, r0, r1, asr r0	; <UNPREDICTABLE>
     de4:	00016000 	andeq	r6, r1, r0
     de8:	55000100 	strpl	r0, [r0, #-256]	; 0x100
     dec:	00000160 	andeq	r0, r0, r0, ror #2
     df0:	0000016c 	andeq	r0, r0, ip, ror #2
     df4:	6c510001 	mrrcvs	0, 0, r0, r1, cr1
     df8:	a0000001 	andge	r0, r0, r1
     dfc:	01000001 	tsteq	r0, r1
     e00:	01a05500 	lsleq	r5, r0, #10
     e04:	01b40000 			; <UNDEFINED> instruction: 0x01b40000
     e08:	00010000 	andeq	r0, r1, r0
     e0c:	0001b451 	andeq	fp, r1, r1, asr r4
     e10:	0001d400 	andeq	sp, r1, r0, lsl #8
     e14:	55000100 	strpl	r0, [r0, #-256]	; 0x100
     e18:	000001d4 	ldrdeq	r0, [r0], -r4
     e1c:	000001d7 	ldrdeq	r0, [r0], -r7
     e20:	d7510001 	ldrble	r0, [r1, -r1]
     e24:	14000001 	strne	r0, [r0], #-1
     e28:	01000002 	tsteq	r0, r2
     e2c:	02145500 	andseq	r5, r4, #0, 10
     e30:	02300000 	eorseq	r0, r0, #0
     e34:	00040000 	andeq	r0, r4, r0
     e38:	9f5101f3 	svcls	0x005101f3
	...
     e44:	00000080 	andeq	r0, r0, r0, lsl #1
     e48:	00000094 	muleq	r0, r4, r0
     e4c:	94520001 	ldrbls	r0, [r2], #-1
     e50:	14000000 	strne	r0, [r0], #-0
     e54:	01000002 	tsteq	r0, r2
     e58:	02145400 	andseq	r5, r4, #0, 8
     e5c:	02300000 	eorseq	r0, r0, #0
     e60:	00040000 	andeq	r0, r4, r0
     e64:	9f5201f3 	svcls	0x005201f3
	...
     e70:	00000080 	andeq	r0, r0, r0, lsl #1
     e74:	00000100 	andeq	r0, r0, r0, lsl #2
     e78:	04530001 	ldrbeq	r0, [r3], #-1
     e7c:	08000001 	stmdaeq	r0, {r0}
     e80:	01000001 	tsteq	r0, r1
     e84:	01605300 	cmneq	r0, r0, lsl #6
     e88:	01640000 	cmneq	r4, r0
     e8c:	00010000 	andeq	r0, r1, r0
     e90:	00016453 	andeq	r6, r1, r3, asr r4
     e94:	00016c00 	andeq	r6, r1, r0, lsl #24
     e98:	5c000100 	stfpls	f0, [r0], {-0}
     e9c:	0000016c 	andeq	r0, r0, ip, ror #2
     ea0:	000001a0 	andeq	r0, r0, r0, lsr #3
     ea4:	01f30004 	mvnseq	r0, r4
     ea8:	01a09f53 	asreq	r9, r3, pc
     eac:	01b00000 	movseq	r0, r0
     eb0:	00010000 	andeq	r0, r1, r0
     eb4:	0001b053 	andeq	fp, r1, r3, asr r0
     eb8:	0001b400 	andeq	fp, r1, r0, lsl #8
     ebc:	5c000100 	stfpls	f0, [r0], {-0}
     ec0:	000001b4 			; <UNDEFINED> instruction: 0x000001b4
     ec4:	000001d4 	ldrdeq	r0, [r0], -r4
     ec8:	01f30004 	mvnseq	r0, r4
     ecc:	01d49f53 	bicseq	r9, r4, r3, asr pc
     ed0:	01d70000 	bicseq	r0, r7, r0
     ed4:	00010000 	andeq	r0, r1, r0
     ed8:	0001d753 	andeq	sp, r1, r3, asr r7
     edc:	0001f000 	andeq	pc, r1, r0
     ee0:	f3000400 	vshl.u8	d0, d0, d0
     ee4:	009f5301 	addseq	r5, pc, r1, lsl #6
     ee8:	00000000 	andeq	r0, r0, r0
     eec:	80000000 	andhi	r0, r0, r0
     ef0:	9c000000 	stcls	0, cr0, [r0], {-0}
     ef4:	02000000 	andeq	r0, r0, #0
     ef8:	9c009100 	stflsd	f1, [r0], {-0}
     efc:	d7000000 	strle	r0, [r0, -r0]
     f00:	01000001 	tsteq	r0, r1
     f04:	01f05200 	mvnseq	r5, r0, lsl #4
     f08:	01f70000 	mvnseq	r0, r0
     f0c:	00010000 	andeq	r0, r1, r0
     f10:	00000052 	andeq	r0, r0, r2, asr r0
     f14:	00000000 	andeq	r0, r0, r0
     f18:	00009c00 	andeq	r9, r0, r0, lsl #24
     f1c:	00011800 	andeq	r1, r1, r0, lsl #16
     f20:	5d000100 	stfpls	f0, [r0, #-0]
     f24:	00000118 	andeq	r0, r0, r8, lsl r1
     f28:	0000011c 	andeq	r0, r0, ip, lsl r1
     f2c:	1c500001 	mrrcne	0, 0, r0, r0, cr1	; <UNPREDICTABLE>
     f30:	20000001 	andcs	r0, r0, r1
     f34:	01000001 	tsteq	r0, r1
     f38:	01205100 	teqeq	r0, r0, lsl #2
     f3c:	01600000 	cmneq	r0, r0
     f40:	00010000 	andeq	r0, r1, r0
     f44:	00016050 	andeq	r6, r1, r0, asr r0
     f48:	00016c00 	andeq	r6, r1, r0, lsl #24
     f4c:	5d000100 	stfpls	f0, [r0, #-0]
     f50:	0000016c 	andeq	r0, r0, ip, ror #2
     f54:	00000170 	andeq	r0, r0, r0, ror r1
     f58:	70500001 	subsvc	r0, r0, r1
     f5c:	74000001 	strvc	r0, [r0], #-1
     f60:	01000001 	tsteq	r0, r1
     f64:	01745300 	cmneq	r4, r0, lsl #6
     f68:	01880000 	orreq	r0, r8, r0
     f6c:	00010000 	andeq	r0, r1, r0
     f70:	00018850 	andeq	r8, r1, r0, asr r8
     f74:	00019400 	andeq	r9, r1, r0, lsl #8
     f78:	70000300 	andvc	r0, r0, r0, lsl #6
     f7c:	01949f01 	orrseq	r9, r4, r1, lsl #30
     f80:	01a00000 	moveq	r0, r0
     f84:	00010000 	andeq	r0, r1, r0
     f88:	0001a050 	andeq	sl, r1, r0, asr r0
     f8c:	0001a800 	andeq	sl, r1, r0, lsl #16
     f90:	91000400 	tstls	r0, r0, lsl #8
     f94:	a89f7fa1 	ldmge	pc, {r0, r5, r7, r8, r9, sl, fp, ip, sp, lr}	; <UNPREDICTABLE>
     f98:	ac000001 	stcge	0, cr0, [r0], {1}
     f9c:	01000001 	tsteq	r0, r1
     fa0:	01ac5000 			; <UNDEFINED> instruction: 0x01ac5000
     fa4:	01b40000 			; <UNDEFINED> instruction: 0x01b40000
     fa8:	00010000 	andeq	r0, r1, r0
     fac:	0001b45d 	andeq	fp, r1, sp, asr r4
     fb0:	0001b800 	andeq	fp, r1, r0, lsl #16
     fb4:	53000100 	movwpl	r0, #256	; 0x100
     fb8:	000001b8 			; <UNDEFINED> instruction: 0x000001b8
     fbc:	000001d4 	ldrdeq	r0, [r0], -r4
     fc0:	d4500001 	ldrble	r0, [r0], #-1
     fc4:	f0000001 			; <UNDEFINED> instruction: 0xf0000001
     fc8:	01000001 	tsteq	r0, r1
     fcc:	01f05d00 	mvnseq	r5, r0, lsl #26
     fd0:	01f70000 	mvnseq	r0, r0
     fd4:	00010000 	andeq	r0, r1, r0
     fd8:	00000050 	andeq	r0, r0, r0, asr r0
     fdc:	00000000 	andeq	r0, r0, r0
     fe0:	0000a000 	andeq	sl, r0, r0
     fe4:	0000ec00 	andeq	lr, r0, r0, lsl #24
     fe8:	5c000100 	stfpls	f0, [r0], {-0}
     fec:	000000ec 	andeq	r0, r0, ip, ror #1
     ff0:	00000100 	andeq	r0, r0, r0, lsl #2
     ff4:	00530001 	subseq	r0, r3, r1
     ff8:	04000001 	streq	r0, [r0], #-1
     ffc:	01000001 	tsteq	r0, r1
    1000:	01045c00 	tsteq	r4, r0, lsl #24
    1004:	01080000 	mrseq	r0, (UNDEF: 8)
    1008:	00010000 	andeq	r0, r1, r0
    100c:	00010853 	andeq	r0, r1, r3, asr r8
    1010:	00016000 	andeq	r6, r1, r0
    1014:	5c000100 	stfpls	f0, [r0], {-0}
    1018:	00000160 	andeq	r0, r0, r0, ror #2
    101c:	00000164 	andeq	r0, r0, r4, ror #2
    1020:	64530001 	ldrbvs	r0, [r3], #-1
    1024:	80000001 	andhi	r0, r0, r1
    1028:	01000001 	tsteq	r0, r1
    102c:	01805c00 	orreq	r5, r0, r0, lsl #24
    1030:	01840000 	orreq	r0, r4, r0
    1034:	00050000 	andeq	r0, r5, r0
    1038:	2534007c 	ldrcs	r0, [r4, #-124]!	; 0x7c
    103c:	0001849f 	muleq	r1, pc, r4	; <UNPREDICTABLE>
    1040:	0001a000 	andeq	sl, r1, r0
    1044:	5c000100 	stfpls	f0, [r0], {-0}
    1048:	000001a0 	andeq	r0, r0, r0, lsr #3
    104c:	000001b0 			; <UNDEFINED> instruction: 0x000001b0
    1050:	b0530001 	subslt	r0, r3, r1
    1054:	c4000001 	strgt	r0, [r0], #-1
    1058:	01000001 	tsteq	r0, r1
    105c:	01c45c00 	biceq	r5, r4, r0, lsl #24
    1060:	01cc0000 	biceq	r0, ip, r0
    1064:	00050000 	andeq	r0, r5, r0
    1068:	2531007c 	ldrcs	r0, [r1, #-124]!	; 0x7c
    106c:	0001cc9f 	muleq	r1, pc, ip	; <UNPREDICTABLE>
    1070:	0001d400 	andeq	sp, r1, r0, lsl #8
    1074:	5c000100 	stfpls	f0, [r0], {-0}
    1078:	000001d4 	ldrdeq	r0, [r0], -r4
    107c:	000001d7 	ldrdeq	r0, [r0], -r7
    1080:	d7530001 	ldrble	r0, [r3, -r1]
    1084:	f0000001 			; <UNDEFINED> instruction: 0xf0000001
    1088:	04000001 	streq	r0, [r0], #-1
    108c:	5301f300 	movwpl	pc, #4864	; 0x1300	; <UNPREDICTABLE>
    1090:	0001f09f 	muleq	r1, pc, r0	; <UNPREDICTABLE>
    1094:	0001f700 	andeq	pc, r1, r0, lsl #14
    1098:	5c000100 	stfpls	f0, [r0], {-0}
	...
    10a4:	000000ec 	andeq	r0, r0, ip, ror #1
    10a8:	000000fc 	strdeq	r0, [r0], -ip
    10ac:	9f300002 	svcls	0x00300002
    10b0:	000000fc 	strdeq	r0, [r0], -ip
    10b4:	00000104 	andeq	r0, r0, r4, lsl #2
    10b8:	9f310002 	svcls	0x00310002
    10bc:	00000104 	andeq	r0, r0, r4, lsl #2
    10c0:	00000108 	andeq	r0, r0, r8, lsl #2
    10c4:	9f300002 	svcls	0x00300002
	...
    10d0:	00000230 	andeq	r0, r0, r0, lsr r2
    10d4:	0000023f 	andeq	r0, r0, pc, lsr r2
    10d8:	3f500001 	svccc	0x00500001
    10dc:	58000002 	stmdapl	r0, {r1}
    10e0:	04000002 	streq	r0, [r0], #-2
    10e4:	5001f300 	andpl	pc, r1, r0, lsl #6
    10e8:	0002589f 	muleq	r2, pc, r8	; <UNPREDICTABLE>
    10ec:	00028400 	andeq	r8, r2, r0, lsl #8
    10f0:	50000100 	andpl	r0, r0, r0, lsl #2
	...
    10fc:	00000230 	andeq	r0, r0, r0, lsr r2
    1100:	0000023f 	andeq	r0, r0, pc, lsr r2
    1104:	3f510001 	svccc	0x00510001
    1108:	58000002 	stmdapl	r0, {r1}
    110c:	04000002 	streq	r0, [r0], #-2
    1110:	5101f300 	mrspl	pc, SP_irq	; <UNPREDICTABLE>
    1114:	0002589f 	muleq	r2, pc, r8	; <UNPREDICTABLE>
    1118:	00028400 	andeq	r8, r2, r0, lsl #8
    111c:	51000100 	mrspl	r0, (UNDEF: 16)
	...
    1128:	00000284 	andeq	r0, r0, r4, lsl #5
    112c:	000002b0 			; <UNDEFINED> instruction: 0x000002b0
    1130:	b0500001 	subslt	r0, r0, r1
    1134:	f8000002 			; <UNDEFINED> instruction: 0xf8000002
    1138:	01000004 	tsteq	r0, r4
    113c:	04f85a00 	ldrbteq	r5, [r8], #2560	; 0xa00
    1140:	050c0000 	streq	r0, [ip, #-0]
    1144:	00040000 	andeq	r0, r4, r0
    1148:	9f5001f3 	svcls	0x005001f3
	...
    1154:	00000284 	andeq	r0, r0, r4, lsl #5
    1158:	00000298 	muleq	r0, r8, r2
    115c:	98510001 	ldmdals	r1, {r0}^
    1160:	b0000002 	andlt	r0, r0, r2
    1164:	03000002 	movweq	r0, #2
    1168:	9f017100 	svcls	0x00017100
    116c:	000002b0 			; <UNDEFINED> instruction: 0x000002b0
    1170:	0000050c 	andeq	r0, r0, ip, lsl #10
    1174:	01f30004 	mvnseq	r0, r4
    1178:	00009f51 	andeq	r9, r0, r1, asr pc
    117c:	00000000 	andeq	r0, r0, r0
    1180:	02840000 	addeq	r0, r4, #0
    1184:	02b80000 	adcseq	r0, r8, #0
    1188:	00010000 	andeq	r0, r1, r0
    118c:	0002b852 	andeq	fp, r2, r2, asr r8
    1190:	0002e000 	andeq	lr, r2, r0
    1194:	52000100 	andpl	r0, r0, #0, 2
    1198:	000002e0 	andeq	r0, r0, r0, ror #5
    119c:	000004a8 	andeq	r0, r0, r8, lsr #9
    11a0:	a8560001 	ldmdage	r6, {r0}^
    11a4:	0c000004 	stceq	0, cr0, [r0], {4}
    11a8:	01000005 	tsteq	r0, r5
    11ac:	00005200 	andeq	r5, r0, r0, lsl #4
    11b0:	00000000 	andeq	r0, r0, r0
    11b4:	02840000 	addeq	r0, r4, #0
    11b8:	02a00000 	adceq	r0, r0, #0
    11bc:	00010000 	andeq	r0, r1, r0
    11c0:	00000053 	andeq	r0, r0, r3, asr r0
    11c4:	00000000 	andeq	r0, r0, r0
    11c8:	00029400 	andeq	r9, r2, r0, lsl #8
    11cc:	0002b000 	andeq	fp, r2, r0
    11d0:	50000100 	andpl	r0, r0, r0, lsl #2
    11d4:	000002b0 			; <UNDEFINED> instruction: 0x000002b0
    11d8:	000002b4 			; <UNDEFINED> instruction: 0x000002b4
    11dc:	b4540001 	ldrblt	r0, [r4], #-1
    11e0:	c0000002 	andgt	r0, r0, r2
    11e4:	03000002 	movweq	r0, #2
    11e8:	9f017400 	svcls	0x00017400
    11ec:	000002c0 	andeq	r0, r0, r0, asr #5
    11f0:	000002cc 	andeq	r0, r0, ip, asr #5
    11f4:	cc540001 	mrrcgt	0, 0, r0, r4, cr1
    11f8:	d8000002 	stmdale	r0, {r1}
    11fc:	03000002 	movweq	r0, #2
    1200:	9f017400 	svcls	0x00017400
    1204:	000002d8 	ldrdeq	r0, [r0], -r8
    1208:	000004ac 	andeq	r0, r0, ip, lsr #9
    120c:	ac540001 	mrrcge	0, 0, r0, r4, cr1
    1210:	b8000004 	stmdalt	r0, {r2}
    1214:	03000004 	movweq	r0, #4
    1218:	9f017400 	svcls	0x00017400
    121c:	000004b8 			; <UNDEFINED> instruction: 0x000004b8
    1220:	000004e4 	andeq	r0, r0, r4, ror #9
    1224:	e4540001 	ldrb	r0, [r4], #-1
    1228:	f0000004 			; <UNDEFINED> instruction: 0xf0000004
    122c:	01000004 	tsteq	r0, r4
    1230:	04f05000 	ldrbteq	r5, [r0], #0
    1234:	04f80000 	ldrbteq	r0, [r8], #0
    1238:	00030000 	andeq	r0, r3, r0
    123c:	009f0174 	addseq	r0, pc, r4, ror r1	; <UNPREDICTABLE>
    1240:	00000000 	andeq	r0, r0, r0
    1244:	9c000000 	stcls	0, cr0, [r0], {-0}
    1248:	f8000002 			; <UNDEFINED> instruction: 0xf8000002
    124c:	01000004 	tsteq	r0, r4
    1250:	04f85800 	ldrbteq	r5, [r8], #2048	; 0x800
    1254:	050c0000 	streq	r0, [ip, #-0]
    1258:	000a0000 	andeq	r0, sl, r0
    125c:	f35101f3 	vbsl	q8, <illegal reg q8.5>, <illegal reg q9.5>
    1260:	31225001 	teqcc	r2, r1
    1264:	00009f1c 	andeq	r9, r0, ip, lsl pc
    1268:	00000000 	andeq	r0, r0, r0
    126c:	03e00000 	mvneq	r0, #0
    1270:	03e40000 	mvneq	r0, #0
    1274:	00010000 	andeq	r0, r1, r0
    1278:	00040450 	andeq	r0, r4, r0, asr r4
    127c:	00040800 	andeq	r0, r4, r0, lsl #16
    1280:	50000100 	andpl	r0, r0, r0, lsl #2
    1284:	00000428 	andeq	r0, r0, r8, lsr #8
    1288:	0000042c 	andeq	r0, r0, ip, lsr #8
    128c:	4c500001 	mrrcmi	0, 0, r0, r0, cr1	; <UNPREDICTABLE>
    1290:	50000004 	andpl	r0, r0, r4
    1294:	01000004 	tsteq	r0, r4
    1298:	04585000 	ldrbeq	r5, [r8], #-0
    129c:	045c0000 	ldrbeq	r0, [ip], #-0
    12a0:	00010000 	andeq	r0, r1, r0
    12a4:	00047c50 	andeq	r7, r4, r0, asr ip
    12a8:	00048000 	andeq	r8, r4, r0
    12ac:	50000100 	andpl	r0, r0, r0, lsl #2
    12b0:	000004a4 	andeq	r0, r0, r4, lsr #9
    12b4:	000004cc 	andeq	r0, r0, ip, asr #9
    12b8:	00500001 	subseq	r0, r0, r1
    12bc:	00000000 	andeq	r0, r0, r0
    12c0:	e0000000 	and	r0, r0, r0
    12c4:	e8000002 	stmda	r0, {r1}
    12c8:	02000002 	andeq	r0, r0, #2
    12cc:	e89f3000 	ldm	pc, {ip, sp}	; <UNPREDICTABLE>
    12d0:	ec000002 	stc	0, cr0, [r0], {2}
    12d4:	01000002 	tsteq	r0, r2
    12d8:	02f85700 	rscseq	r5, r8, #0, 14
    12dc:	04cc0000 	strbeq	r0, [ip], #0
    12e0:	00010000 	andeq	r0, r1, r0
    12e4:	00000057 	andeq	r0, r0, r7, asr r0
    12e8:	00000000 	andeq	r0, r0, r0
    12ec:	00001400 	andeq	r1, r0, r0, lsl #8
    12f0:	00001c00 	andeq	r1, r0, r0, lsl #24
    12f4:	73000300 	movwvc	r0, #768	; 0x300
    12f8:	001c9f04 	andseq	r9, ip, r4, lsl #30
    12fc:	00270000 	eoreq	r0, r7, r0
    1300:	00010000 	andeq	r0, r1, r0
    1304:	00000053 	andeq	r0, r0, r3, asr r0
    1308:	00000000 	andeq	r0, r0, r0
    130c:	00978400 	addseq	r8, r7, r0, lsl #8
    1310:	00978800 	addseq	r8, r7, r0, lsl #16
    1314:	30000200 	andcc	r0, r0, r0, lsl #4
    1318:	0097889f 	umullseq	r8, r7, pc, r8	; <UNPREDICTABLE>
    131c:	00978c00 	addseq	r8, r7, r0, lsl #24
    1320:	50000100 	andpl	r0, r0, r0, lsl #2
	...
    132c:	0000979c 	muleq	r0, ip, r7
    1330:	000097a0 	andeq	r9, r0, r0, lsr #15
    1334:	9f300002 	svcls	0x00300002
    1338:	000097a0 	andeq	r9, r0, r0, lsr #15
    133c:	000097a4 	andeq	r9, r0, r4, lsr #15
    1340:	a8530001 	ldmdage	r3, {r0}^
    1344:	b0000097 	mullt	r0, r7, r0
    1348:	01000097 	swpeq	r0, r7, [r0]	; <UNPREDICTABLE>
    134c:	00005300 	andeq	r5, r0, r0, lsl #6
	...
    1358:	00040000 	andeq	r0, r4, r0
    135c:	00010000 	andeq	r0, r1, r0
    1360:	00000450 	andeq	r0, r0, r0, asr r4
    1364:	00000c00 	andeq	r0, r0, r0, lsl #24
    1368:	53000100 	movwpl	r0, #256	; 0x100
    136c:	0000000c 	andeq	r0, r0, ip
    1370:	00000010 	andeq	r0, r0, r0, lsl r0
    1374:	10500001 	subsne	r0, r0, r1
    1378:	1c000000 	stcne	0, cr0, [r0], {-0}
    137c:	01000000 	mrseq	r0, (UNDEF: 0)
    1380:	00005300 	andeq	r5, r0, r0, lsl #6
    1384:	00000000 	andeq	r0, r0, r0
    1388:	003c0000 	eorseq	r0, ip, r0
    138c:	00470000 	subeq	r0, r7, r0
    1390:	00010000 	andeq	r0, r1, r0
    1394:	00004750 	andeq	r4, r0, r0, asr r7
    1398:	00006000 	andeq	r6, r0, r0
    139c:	55000100 	strpl	r0, [r0, #-256]	; 0x100
	...
    13a8:	00000050 	andeq	r0, r0, r0, asr r0
    13ac:	00000054 	andeq	r0, r0, r4, asr r0
    13b0:	00500001 	subseq	r0, r0, r1
    13b4:	00000000 	andeq	r0, r0, r0
    13b8:	60000000 	andvs	r0, r0, r0
    13bc:	6c000000 	stcvs	0, cr0, [r0], {-0}
    13c0:	01000000 	mrseq	r0, (UNDEF: 0)
    13c4:	006c5000 	rsbeq	r5, ip, r0
    13c8:	00740000 	rsbseq	r0, r4, r0
    13cc:	00040000 	andeq	r0, r4, r0
    13d0:	9f5001f3 	svcls	0x005001f3
	...
    13dc:	00000074 	andeq	r0, r0, r4, ror r0
    13e0:	00000080 	andeq	r0, r0, r0, lsl #1
    13e4:	80500001 	subshi	r0, r0, r1
    13e8:	88000000 	stmdahi	r0, {}	; <UNPREDICTABLE>
    13ec:	04000000 	streq	r0, [r0], #-0
    13f0:	5001f300 	andpl	pc, r1, r0, lsl #6
    13f4:	0000009f 	muleq	r0, pc, r0	; <UNPREDICTABLE>
    13f8:	00000000 	andeq	r0, r0, r0
    13fc:	00013800 	andeq	r3, r1, r0, lsl #16
    1400:	00014300 	andeq	r4, r1, r0, lsl #6
    1404:	50000100 	andpl	r0, r0, r0, lsl #2
    1408:	00000143 	andeq	r0, r0, r3, asr #2
    140c:	00000168 	andeq	r0, r0, r8, ror #2
    1410:	00540001 	subseq	r0, r4, r1
	...
    141c:	0f000000 	svceq	0x00000000
    1420:	01000000 	mrseq	r0, (UNDEF: 0)
    1424:	000f5000 	andeq	r5, pc, r0
    1428:	00200000 	eoreq	r0, r0, r0
    142c:	00010000 	andeq	r0, r1, r0
    1430:	00000054 	andeq	r0, r0, r4, asr r0
	...
    143c:	00000f00 	andeq	r0, r0, r0, lsl #30
    1440:	51000100 	mrspl	r0, (UNDEF: 16)
    1444:	0000000f 	andeq	r0, r0, pc
    1448:	00000020 	andeq	r0, r0, r0, lsr #32
    144c:	00550001 	subseq	r0, r5, r1
    1450:	00000000 	andeq	r0, r0, r0
    1454:	ec000000 	stc	0, cr0, [r0], {-0}
    1458:	04000000 	streq	r0, [r0], #-0
    145c:	01000001 	tsteq	r0, r1
    1460:	01045000 	mrseq	r5, (UNDEF: 4)
    1464:	01140000 	tsteq	r4, r0
    1468:	00040000 	andeq	r0, r4, r0
    146c:	9f5001f3 	svcls	0x005001f3
    1470:	00000114 	andeq	r0, r0, r4, lsl r1
    1474:	00000118 	andeq	r0, r0, r8, lsl r1
    1478:	18500001 	ldmdane	r0, {r0}^
    147c:	20000001 	andcs	r0, r0, r1
    1480:	04000001 	streq	r0, [r0], #-1
    1484:	5001f300 	andpl	pc, r1, r0, lsl #6
    1488:	0000009f 	muleq	r0, pc, r0	; <UNPREDICTABLE>
    148c:	00000000 	andeq	r0, r0, r0
    1490:	0000f800 	andeq	pc, r0, r0, lsl #16
    1494:	00010400 	andeq	r0, r1, r0, lsl #8
    1498:	70000b00 	andvc	r0, r0, r0, lsl #22
    149c:	23253500 	teqcs	r5, #0, 10
    14a0:	818080b4 	strhhi	r8, [r0, r4]
    14a4:	01049f02 	tsteq	r4, r2, lsl #30
    14a8:	01070000 	mrseq	r0, (UNDEF: 7)
    14ac:	00010000 	andeq	r0, r1, r0
    14b0:	00010750 	andeq	r0, r1, r0, asr r7
    14b4:	00011400 	andeq	r1, r1, r0, lsl #8
    14b8:	f3000c00 			; <UNDEFINED> instruction: 0xf3000c00
    14bc:	25355001 	ldrcs	r5, [r5, #-1]!
    14c0:	8080b423 	addhi	fp, r0, r3, lsr #8
    14c4:	009f0281 	addseq	r0, pc, r1, lsl #5
    14c8:	00000000 	andeq	r0, r0, r0
    14cc:	fc000000 	stc2	0, cr0, [r0], {-0}
    14d0:	14000000 	strne	r0, [r0], #-0
    14d4:	01000001 	tsteq	r0, r1
    14d8:	00005400 	andeq	r5, r0, r0, lsl #8
    14dc:	00000000 	andeq	r0, r0, r0
    14e0:	00d00000 	sbcseq	r0, r0, r0
    14e4:	00df0000 	sbcseq	r0, pc, r0
    14e8:	00010000 	andeq	r0, r1, r0
    14ec:	0000df50 	andeq	sp, r0, r0, asr pc
    14f0:	0000e400 	andeq	lr, r0, r0, lsl #8
    14f4:	f3000400 	vshl.u8	d0, d0, d0
    14f8:	e49f5001 	ldr	r5, [pc], #1	; 1500 <__code_start__-0x6b00>
    14fc:	e7000000 	str	r0, [r0, -r0]
    1500:	01000000 	mrseq	r0, (UNDEF: 0)
    1504:	00e75000 	rsceq	r5, r7, r0
    1508:	00ec0000 	rsceq	r0, ip, r0
    150c:	00040000 	andeq	r0, r4, r0
    1510:	9f5001f3 	svcls	0x005001f3
	...
    151c:	000000d0 	ldrdeq	r0, [r0], -r0	; <UNPREDICTABLE>
    1520:	000000df 	ldrdeq	r0, [r0], -pc	; <UNPREDICTABLE>
    1524:	df510001 	svcle	0x00510001
    1528:	e4000000 	str	r0, [r0], #-0
    152c:	04000000 	streq	r0, [r0], #-0
    1530:	5101f300 	mrspl	pc, SP_irq	; <UNPREDICTABLE>
    1534:	0000e49f 	muleq	r0, pc, r4	; <UNPREDICTABLE>
    1538:	0000e700 	andeq	lr, r0, r0, lsl #14
    153c:	51000100 	mrspl	r0, (UNDEF: 16)
    1540:	000000e7 	andeq	r0, r0, r7, ror #1
    1544:	000000ec 	andeq	r0, r0, ip, ror #1
    1548:	01f30004 	mvnseq	r0, r4
    154c:	00009f51 	andeq	r9, r0, r1, asr pc
    1550:	00000000 	andeq	r0, r0, r0
    1554:	00c00000 	sbceq	r0, r0, r0
    1558:	00cb0000 	sbceq	r0, fp, r0
    155c:	00010000 	andeq	r0, r1, r0
    1560:	0000cb50 	andeq	ip, r0, r0, asr fp
    1564:	0000d000 	andeq	sp, r0, r0
    1568:	f3000400 	vshl.u8	d0, d0, d0
    156c:	009f5001 	addseq	r5, pc, r1
    1570:	00000000 	andeq	r0, r0, r0
    1574:	9c000000 	stcls	0, cr0, [r0], {-0}
    1578:	b4000000 	strlt	r0, [r0], #-0
    157c:	01000000 	mrseq	r0, (UNDEF: 0)
    1580:	00b45000 	adcseq	r5, r4, r0
    1584:	00c00000 	sbceq	r0, r0, r0
    1588:	00040000 	andeq	r0, r4, r0
    158c:	9f5001f3 	svcls	0x005001f3
	...
    1598:	00000078 	andeq	r0, r0, r8, ror r0
    159c:	00000090 	muleq	r0, r0, r0
    15a0:	90500001 	subsls	r0, r0, r1
    15a4:	9c000000 	stcls	0, cr0, [r0], {-0}
    15a8:	04000000 	streq	r0, [r0], #-0
    15ac:	5001f300 	andpl	pc, r1, r0, lsl #6
    15b0:	0000009f 	muleq	r0, pc, r0	; <UNPREDICTABLE>
    15b4:	00000000 	andeq	r0, r0, r0
    15b8:	00006800 	andeq	r6, r0, r0, lsl #16
    15bc:	00007300 	andeq	r7, r0, r0, lsl #6
    15c0:	50000100 	andpl	r0, r0, r0, lsl #2
    15c4:	00000073 	andeq	r0, r0, r3, ror r0
    15c8:	00000078 	andeq	r0, r0, r8, ror r0
    15cc:	01f30004 	mvnseq	r0, r4
    15d0:	00009f50 	andeq	r9, r0, r0, asr pc
	...
    15dc:	00480000 	subeq	r0, r8, r0
    15e0:	00010000 	andeq	r0, r1, r0
    15e4:	00004850 	andeq	r4, r0, r0, asr r8
    15e8:	00006800 	andeq	r6, r0, r0, lsl #16
    15ec:	f3000400 	vshl.u8	d0, d0, d0
    15f0:	009f5001 	addseq	r5, pc, r1
	...
    15fc:	4b000000 	blmi	1604 <__code_start__-0x69fc>
    1600:	01000000 	mrseq	r0, (UNDEF: 0)
    1604:	004b5100 	subeq	r5, fp, r0, lsl #2
    1608:	00680000 	rsbeq	r0, r8, r0
    160c:	00040000 	andeq	r0, r4, r0
    1610:	9f5101f3 	svcls	0x005101f3
	...
    161c:	0000004c 	andeq	r0, r0, ip, asr #32
    1620:	00000054 	andeq	r0, r0, r4, asr r0
    1624:	54500001 	ldrbpl	r0, [r0], #-1
    1628:	58000000 	stmdapl	r0, {}	; <UNPREDICTABLE>
    162c:	09000000 	stmdbeq	r0, {}	; <UNPREDICTABLE>
    1630:	74007500 	strvc	r7, [r0], #-1280	; 0x500
    1634:	00712400 	rsbseq	r2, r1, r0, lsl #8
    1638:	00589f21 	subseq	r9, r8, r1, lsr #30
    163c:	005f0000 	subseq	r0, pc, r0
    1640:	00010000 	andeq	r0, r1, r0
    1644:	00000051 	andeq	r0, r0, r1, asr r0
    1648:	00000000 	andeq	r0, r0, r0
    164c:	0000e000 	andeq	lr, r0, r0
    1650:	00011b00 	andeq	r1, r1, r0, lsl #22
    1654:	50000100 	andpl	r0, r0, r0, lsl #2
    1658:	0000011b 	andeq	r0, r0, fp, lsl r1
    165c:	00000120 	andeq	r0, r0, r0, lsr #2
    1660:	01f30004 	mvnseq	r0, r4
    1664:	01209f50 	teqeq	r0, r0, asr pc
    1668:	01230000 	teqeq	r3, r0
    166c:	00010000 	andeq	r0, r1, r0
    1670:	00012350 	andeq	r2, r1, r0, asr r3
    1674:	00013c00 	andeq	r3, r1, r0, lsl #24
    1678:	f3000400 	vshl.u8	d0, d0, d0
    167c:	3c9f5001 	ldccc	0, cr5, [pc], {1}
    1680:	3f000001 	svccc	0x00000001
    1684:	01000001 	tsteq	r0, r1
    1688:	013f5000 	teqeq	pc, r0
    168c:	016c0000 	cmneq	ip, r0
    1690:	00040000 	andeq	r0, r4, r0
    1694:	9f5001f3 	svcls	0x005001f3
	...
    16a0:	000000e0 	andeq	r0, r0, r0, ror #1
    16a4:	00000108 	andeq	r0, r0, r8, lsl #2
    16a8:	08510001 	ldmdaeq	r1, {r0}^
    16ac:	1b000001 	blne	16b8 <__code_start__-0x6948>
    16b0:	03000001 	movweq	r0, #1
    16b4:	9f017100 	svcls	0x00017100
    16b8:	0000011b 	andeq	r0, r0, fp, lsl r1
    16bc:	00000120 	andeq	r0, r0, r0, lsr #2
    16c0:	01f30004 	mvnseq	r0, r4
    16c4:	01209f51 	teqeq	r0, r1, asr pc
    16c8:	01230000 	teqeq	r3, r0
    16cc:	00010000 	andeq	r0, r1, r0
    16d0:	00012351 	andeq	r2, r1, r1, asr r3
    16d4:	00016c00 	andeq	r6, r1, r0, lsl #24
    16d8:	f3000400 	vshl.u8	d0, d0, d0
    16dc:	009f5101 	addseq	r5, pc, r1, lsl #2
    16e0:	00000000 	andeq	r0, r0, r0
    16e4:	f8000000 			; <UNDEFINED> instruction: 0xf8000000
    16e8:	fc000000 	stc2	0, cr0, [r0], {-0}
    16ec:	01000000 	mrseq	r0, (UNDEF: 0)
    16f0:	00fc5200 	rscseq	r5, ip, r0, lsl #4
    16f4:	01040000 	mrseq	r0, (UNDEF: 4)
    16f8:	00050000 	andeq	r0, r5, r0
    16fc:	009d1803 	addseq	r1, sp, r3, lsl #16
    1700:	00010400 	andeq	r0, r1, r0, lsl #8
    1704:	00011b00 	andeq	r1, r1, r0, lsl #22
    1708:	53000100 	movwpl	r0, #256	; 0x100
    170c:	0000013c 	andeq	r0, r0, ip, lsr r1
    1710:	0000013f 	andeq	r0, r0, pc, lsr r1
    1714:	00530001 	subseq	r0, r3, r1
    1718:	00000000 	andeq	r0, r0, r0
    171c:	6c000000 	stcvs	0, cr0, [r0], {-0}
    1720:	80000000 	andhi	r0, r0, r0
    1724:	01000000 	mrseq	r0, (UNDEF: 0)
    1728:	00805000 	addeq	r5, r0, r0
    172c:	009b0000 	addseq	r0, fp, r0
    1730:	00010000 	andeq	r0, r1, r0
    1734:	00009b52 	andeq	r9, r0, r2, asr fp
    1738:	0000a400 	andeq	sl, r0, r0, lsl #8
    173c:	f3000900 	vmls.i8	d0, d0, d0
    1740:	07235001 	streq	r5, [r3, -r1]!
    1744:	9f1af809 	svcls	0x001af809
    1748:	000000a4 	andeq	r0, r0, r4, lsr #1
    174c:	000000a7 	andeq	r0, r0, r7, lsr #1
    1750:	a7500001 	ldrbge	r0, [r0, -r1]
    1754:	d0000000 	andle	r0, r0, r0
    1758:	04000000 	streq	r0, [r0], #-0
    175c:	5001f300 	andpl	pc, r1, r0, lsl #6
    1760:	0000009f 	muleq	r0, pc, r0	; <UNPREDICTABLE>
    1764:	00000000 	andeq	r0, r0, r0
    1768:	00008800 	andeq	r8, r0, r0, lsl #16
    176c:	0000a400 	andeq	sl, r0, r0, lsl #8
    1770:	54000100 	strpl	r0, [r0], #-256	; 0x100
	...
    177c:	0000001c 	andeq	r0, r0, ip, lsl r0
    1780:	00000043 	andeq	r0, r0, r3, asr #32
    1784:	43500001 	cmpmi	r0, #1
    1788:	6c000000 	stcvs	0, cr0, [r0], {-0}
    178c:	04000000 	streq	r0, [r0], #-0
    1790:	5001f300 	andpl	pc, r1, r0, lsl #6
    1794:	0000009f 	muleq	r0, pc, r0	; <UNPREDICTABLE>
    1798:	00000000 	andeq	r0, r0, r0
    179c:	00001c00 	andeq	r1, r0, r0, lsl #24
    17a0:	00004300 	andeq	r4, r0, r0, lsl #6
    17a4:	50000100 	andpl	r0, r0, r0, lsl #2
    17a8:	00000043 	andeq	r0, r0, r3, asr #32
    17ac:	0000006c 	andeq	r0, r0, ip, rrx
    17b0:	01f30004 	mvnseq	r0, r4
    17b4:	00009f50 	andeq	r9, r0, r0, asr pc
    17b8:	00000000 	andeq	r0, r0, r0
	...

Disassembly of section .debug_aranges:

00000000 <.debug_aranges>:
   0:	0000001c 	andeq	r0, r0, ip, lsl r0
   4:	00000002 	andeq	r0, r0, r2
   8:	00040000 	andeq	r0, r4, r0
   c:	00000000 	andeq	r0, r0, r0
  10:	00008010 	andeq	r8, r0, r0, lsl r0
  14:	00000164 	andeq	r0, r0, r4, ror #2
	...
  20:	0000001c 	andeq	r0, r0, ip, lsl r0
  24:	04590002 	ldrbeq	r0, [r9], #-2
  28:	00040000 	andeq	r0, r4, r0
  2c:	00000000 	andeq	r0, r0, r0
  30:	00008174 	andeq	r8, r0, r4, ror r1
  34:	0000083c 	andeq	r0, r0, ip, lsr r8
	...
  40:	0000001c 	andeq	r0, r0, ip, lsl r0
  44:	14d50002 	ldrbne	r0, [r5], #2
  48:	00040000 	andeq	r0, r4, r0
  4c:	00000000 	andeq	r0, r0, r0
  50:	000089b0 			; <UNDEFINED> instruction: 0x000089b0
  54:	0000068c 	andeq	r0, r0, ip, lsl #13
	...
  60:	0000001c 	andeq	r0, r0, ip, lsl r0
  64:	22460002 	subcs	r0, r6, #2
  68:	00040000 	andeq	r0, r4, r0
  6c:	00000000 	andeq	r0, r0, r0
  70:	00009044 	andeq	r9, r0, r4, asr #32
  74:	000000f0 	strdeq	r0, [r0], -r0	; <UNPREDICTABLE>
	...
  80:	0000001c 	andeq	r0, r0, ip, lsl r0
  84:	235c0002 	cmpcs	ip, #2
  88:	00040000 	andeq	r0, r4, r0
  8c:	00000000 	andeq	r0, r0, r0
  90:	00009134 	andeq	r9, r0, r4, lsr r1
  94:	00000020 	andeq	r0, r0, r0, lsr #32
	...
  a0:	0000001c 	andeq	r0, r0, ip, lsl r0
  a4:	243b0002 	ldrtcs	r0, [fp], #-2
  a8:	00040000 	andeq	r0, r4, r0
  ac:	00000000 	andeq	r0, r0, r0
  b0:	00009154 	andeq	r9, r0, r4, asr r1
  b4:	00000058 	andeq	r0, r0, r8, asr r0
	...
  c0:	0000001c 	andeq	r0, r0, ip, lsl r0
  c4:	25d00002 	ldrbcs	r0, [r0, #2]
  c8:	00040000 	andeq	r0, r4, r0
  cc:	00000000 	andeq	r0, r0, r0
  d0:	000091ac 	andeq	r9, r0, ip, lsr #3
  d4:	0000003c 	andeq	r0, r0, ip, lsr r0
	...
  e0:	0000001c 	andeq	r0, r0, ip, lsl r0
  e4:	26e70002 	strbtcs	r0, [r7], r2
  e8:	00040000 	andeq	r0, r4, r0
  ec:	00000000 	andeq	r0, r0, r0
  f0:	000091e8 	andeq	r9, r0, r8, ror #3
  f4:	00000034 	andeq	r0, r0, r4, lsr r0
	...
 100:	0000001c 	andeq	r0, r0, ip, lsl r0
 104:	27d90002 	ldrbcs	r0, [r9, r2]
 108:	00040000 	andeq	r0, r4, r0
 10c:	00000000 	andeq	r0, r0, r0
 110:	0000921c 	andeq	r9, r0, ip, lsl r2
 114:	0000050c 	andeq	r0, r0, ip, lsl #10
	...
 120:	0000001c 	andeq	r0, r0, ip, lsl r0
 124:	2e5e0002 	cdpcs	0, 5, cr0, cr14, cr2, {0}
 128:	00040000 	andeq	r0, r4, r0
 12c:	00000000 	andeq	r0, r0, r0
 130:	00009728 	andeq	r9, r0, r8, lsr #14
 134:	00000028 	andeq	r0, r0, r8, lsr #32
	...
 140:	0000001c 	andeq	r0, r0, ip, lsl r0
 144:	2f610002 	svccs	0x00610002
 148:	00040000 	andeq	r0, r4, r0
 14c:	00000000 	andeq	r0, r0, r0
 150:	00009750 	andeq	r9, r0, r0, asr r7
 154:	00000034 	andeq	r0, r0, r4, lsr r0
	...
 160:	0000001c 	andeq	r0, r0, ip, lsl r0
 164:	30640002 	rsbcc	r0, r4, r2
 168:	00040000 	andeq	r0, r4, r0
 16c:	00000000 	andeq	r0, r0, r0
 170:	00009784 	andeq	r9, r0, r4, lsl #15
 174:	00000074 	andeq	r0, r0, r4, ror r0
	...
 180:	0000001c 	andeq	r0, r0, ip, lsl r0
 184:	32150002 	andscc	r0, r5, #2
 188:	00040000 	andeq	r0, r4, r0
 18c:	00000000 	andeq	r0, r0, r0
 190:	000097f8 	strdeq	r9, [r0], -r8
 194:	00000088 	andeq	r0, r0, r8, lsl #1
	...
 1a0:	0000001c 	andeq	r0, r0, ip, lsl r0
 1a4:	33f10002 	mvnscc	r0, #2
 1a8:	00040000 	andeq	r0, r4, r0
 1ac:	00000000 	andeq	r0, r0, r0
 1b0:	000098cc 	andeq	r9, r0, ip, asr #17
 1b4:	00000178 	andeq	r0, r0, r8, ror r1
	...
 1c0:	0000001c 	andeq	r0, r0, ip, lsl r0
 1c4:	40ba0002 	adcsmi	r0, sl, r2
 1c8:	00040000 	andeq	r0, r4, r0
 1cc:	00000000 	andeq	r0, r0, r0
 1d0:	00009a44 	andeq	r9, r0, r4, asr #20
 1d4:	00000120 	andeq	r0, r0, r0, lsr #2
	...
 1e0:	0000001c 	andeq	r0, r0, ip, lsl r0
 1e4:	4c2e0002 	stcmi	0, cr0, [lr], #-8
 1e8:	00040000 	andeq	r0, r4, r0
 1ec:	00000000 	andeq	r0, r0, r0
 1f0:	00009b64 	andeq	r9, r0, r4, ror #22
 1f4:	00000194 	muleq	r0, r4, r1
	...

Disassembly of section .debug_line:

00000000 <.debug_line>:
       0:	00000171 	andeq	r0, r0, r1, ror r1
       4:	014c0002 	cmpeq	ip, r2
       8:	01020000 	mrseq	r0, (UNDEF: 2)
       c:	000d0efb 	strdeq	r0, [sp], -fp
      10:	01010101 	tsteq	r1, r1, lsl #2
      14:	01000000 	mrseq	r0, (UNDEF: 0)
      18:	74010000 	strvc	r0, [r1], #-0
      1c:	73747365 	cmnvc	r4, #-1811939327	; 0x94000001
      20:	73752f00 	cmnvc	r5, #0, 30
      24:	6f6c2f72 	svcvs	0x006c2f72
      28:	2f6c6163 	svccs	0x006c6163
      2c:	6c6c6543 	cfstr64vs	mvdx6, [ip], #-268	; 0xfffffef4
      30:	612f7261 	teqvs	pc, r1, ror #4
      34:	6e2d6d72 	mcrvs	13, 1, r6, cr13, cr2, {3}
      38:	2d656e6f 	stclcs	14, cr6, [r5, #-444]!	; 0xfffffe44
      3c:	69626165 	stmdbvs	r2!, {r0, r2, r5, r6, r8, sp, lr}^
      40:	382e342f 	stmdacc	lr!, {r0, r1, r2, r3, r5, sl, ip, sp}
      44:	632d332e 	teqvs	sp, #-1207959552	; 0xb8000000
      48:	30373173 	eorscc	r3, r7, r3, ror r1
      4c:	696c2f65 	stmdbvs	ip!, {r0, r2, r5, r6, r8, r9, sl, fp, sp}^
      50:	63672f62 	cmnvs	r7, #392	; 0x188
      54:	72612f63 	rsbvc	r2, r1, #396	; 0x18c
      58:	6f6e2d6d 	svcvs	0x006e2d6d
      5c:	652d656e 	strvs	r6, [sp, #-1390]!	; 0x56e
      60:	2f696261 	svccs	0x00696261
      64:	2e382e34 	mrccs	14, 1, r2, cr8, cr4, {1}
      68:	6e692f33 	mcrvs	15, 3, r2, cr9, cr3, {1}
      6c:	64756c63 	ldrbtvs	r6, [r5], #-3171	; 0xc63
      70:	002e0065 	eoreq	r0, lr, r5, rrx
      74:	6573552f 	ldrbvs	r5, [r3, #-1327]!	; 0x52f
      78:	622f7372 	eorvs	r7, pc, #-939524095	; 0xc8000001
      7c:	6e616972 	mcrvs	9, 3, r6, cr1, cr2, {3}
      80:	2f6e756a 	svccs	0x006e756a
      84:	6b736544 	blvs	1cd959c <__bss_end__+0x1cce8e4>
      88:	2f706f74 	svccs	0x00706f74
      8c:	6f686373 	svcvs	0x00686373
      90:	532f6c6f 	teqpl	pc, #28416	; 0x6f00
      94:	6e697270 	mcrvs	2, 3, r7, cr9, cr0, {3}
      98:	32393167 	eorscc	r3, r9, #-1073741799	; 0xc0000019
      9c:	53432f30 	movtpl	r2, #16176	; 0x3f30
      a0:	4c303432 	cfldrsmi	mvf3, [r0], #-200	; 0xffffff38
      a4:	73632f58 	cmnvc	r3, #88, 30	; 0x160
      a8:	6c303432 	cfldrsvs	mvf3, [r0], #-200	; 0xffffff38
      ac:	30322d78 	eorscc	r2, r2, r8, ror sp
      b0:	2f727073 	svccs	0x00727073
      b4:	7062696c 	rsbvc	r6, r2, ip, ror #18
      b8:	6e692f69 	cdpvs	15, 6, cr2, cr9, cr9, {3}
      bc:	64756c63 	ldrbtvs	r6, [r5], #-3171	; 0xc63
      c0:	752f0065 	strvc	r0, [pc, #-101]!	; 63 <__code_start__-0x7f9d>
      c4:	6c2f7273 	sfmvs	f7, 4, [pc], #-460	; ffffff00 <__bss_end__+0xffff5248>
      c8:	6c61636f 	stclvs	3, cr6, [r1], #-444	; 0xfffffe44
      cc:	6c65432f 	stclvs	3, cr4, [r5], #-188	; 0xffffff44
      d0:	2f72616c 	svccs	0x0072616c
      d4:	2d6d7261 	sfmcs	f7, 2, [sp, #-388]!	; 0xfffffe7c
      d8:	656e6f6e 	strbvs	r6, [lr, #-3950]!	; 0xf6e
      dc:	6261652d 	rsbvs	r6, r1, #188743680	; 0xb400000
      e0:	2e342f69 	cdpcs	15, 3, cr2, cr4, cr9, {3}
      e4:	2d332e38 	ldccs	14, cr2, [r3, #-224]!	; 0xffffff20
      e8:	37317363 	ldrcc	r7, [r1, -r3, ror #6]!
      ec:	612f6530 	teqvs	pc, r0, lsr r5	; <UNPREDICTABLE>
      f0:	6e2d6d72 	mcrvs	13, 1, r6, cr13, cr2, {3}
      f4:	2d656e6f 	stclcs	14, cr6, [r5, #-444]!	; 0xfffffe44
      f8:	69626165 	stmdbvs	r2!, {r0, r2, r5, r6, r8, sp, lr}^
      fc:	636e692f 	cmnvs	lr, #770048	; 0xbc000
     100:	6564756c 	strbvs	r7, [r4, #-1388]!	; 0x56c
     104:	61700000 	cmnvs	r0, r0
     108:	2d327472 	cfldrscs	mvf7, [r2, #-456]!	; 0xfffffe38
     10c:	74736574 	ldrbtvc	r6, [r3], #-1396	; 0x574
     110:	00632e36 	rsbeq	r2, r3, r6, lsr lr
     114:	73000001 	movwvc	r0, #1
     118:	65646474 	strbvs	r6, [r4, #-1140]!	; 0x474
     11c:	00682e66 	rsbeq	r2, r8, r6, ror #28
     120:	73000002 	movwvc	r0, #2
     124:	6e696474 	mcrvs	4, 3, r6, cr9, cr4, {3}
     128:	63672d74 	cmnvs	r7, #116, 26	; 0x1d00
     12c:	00682e63 	rsbeq	r2, r8, r3, ror #28
     130:	63000002 	movwvs	r0, #2
     134:	6c6c616b 	stfvse	f6, [ip], #-428	; 0xfffffe54
     138:	682e636f 	stmdavs	lr!, {r0, r1, r2, r3, r5, r6, r8, r9, sp, lr}
     13c:	00000300 	andeq	r0, r0, r0, lsl #6
     140:	2e697072 	mcrcs	0, 3, r7, cr9, cr2, {3}
     144:	00040068 	andeq	r0, r4, r8, rrx
     148:	72747300 	rsbsvc	r7, r4, #0, 6
     14c:	2e676e69 	cdpcs	14, 6, cr6, cr7, cr9, {3}
     150:	00050068 	andeq	r0, r5, r8, rrx
     154:	05000000 	streq	r0, [r0, #-0]
     158:	00801002 	addeq	r1, r0, r2
     15c:	bb301600 	bllt	c05964 <__bss_end__+0xbfacac>
     160:	2fbc849f 	svccs	0x00bc849f
     164:	4c844c4d 	stcmi	12, cr4, [r4], {77}	; 0x4d
     168:	85d867a0 	ldrbhi	r6, [r8, #1952]	; 0x7a0
     16c:	a083d983 	addge	sp, r3, r3, lsl #19
     170:	01002202 	tsteq	r0, r2, lsl #4
     174:	0002e401 	andeq	lr, r2, r1, lsl #8
     178:	a4000200 	strge	r0, [r0], #-512	; 0x200
     17c:	02000001 	andeq	r0, r0, #1
     180:	0d0efb01 	vstreq	d15, [lr, #-4]
     184:	01010100 	mrseq	r0, (UNDEF: 17)
     188:	00000001 	andeq	r0, r0, r1
     18c:	01000001 	tsteq	r0, r1
     190:	7273752f 	rsbsvc	r7, r3, #197132288	; 0xbc00000
     194:	636f6c2f 	cmnvs	pc, #12032	; 0x2f00
     198:	432f6c61 	teqmi	pc, #24832	; 0x6100
     19c:	616c6c65 	cmnvs	ip, r5, ror #24
     1a0:	72612f72 	rsbvc	r2, r1, #456	; 0x1c8
     1a4:	6f6e2d6d 	svcvs	0x006e2d6d
     1a8:	652d656e 	strvs	r6, [sp, #-1390]!	; 0x56e
     1ac:	2f696261 	svccs	0x00696261
     1b0:	2e382e34 	mrccs	14, 1, r2, cr8, cr4, {1}
     1b4:	73632d33 	cmnvc	r3, #3264	; 0xcc0
     1b8:	65303731 	ldrvs	r3, [r0, #-1841]!	; 0x731
     1bc:	62696c2f 	rsbvs	r6, r9, #12032	; 0x2f00
     1c0:	6363672f 	cmnvs	r3, #12320768	; 0xbc0000
     1c4:	6d72612f 	ldfvse	f6, [r2, #-188]!	; 0xffffff44
     1c8:	6e6f6e2d 	cdpvs	14, 6, cr6, cr15, cr13, {1}
     1cc:	61652d65 	cmnvs	r5, r5, ror #26
     1d0:	342f6962 	strtcc	r6, [pc], #-2402	; 1d8 <__code_start__-0x7e28>
     1d4:	332e382e 	teqcc	lr, #3014656	; 0x2e0000
     1d8:	636e692f 	cmnvs	lr, #770048	; 0xbc000
     1dc:	6564756c 	strbvs	r7, [r4, #-1388]!	; 0x56c
     1e0:	73552f00 	cmpvc	r5, #0, 30
     1e4:	2f737265 	svccs	0x00737265
     1e8:	61697262 	cmnvs	r9, r2, ror #4
     1ec:	6e756a6e 	vsubvs.f32	s13, s10, s29
     1f0:	7365442f 	cmnvc	r5, #788529152	; 0x2f000000
     1f4:	706f746b 	rsbvc	r7, pc, fp, ror #8
     1f8:	6863732f 	stmdavs	r3!, {r0, r1, r2, r3, r5, r8, r9, ip, sp, lr}^
     1fc:	2f6c6f6f 	svccs	0x006c6f6f
     200:	69727053 	ldmdbvs	r2!, {r0, r1, r4, r6, ip, sp, lr}^
     204:	3931676e 	ldmdbcc	r1!, {r1, r2, r3, r5, r6, r8, r9, sl, sp, lr}
     208:	432f3032 	teqmi	pc, #50	; 0x32
     20c:	30343253 	eorscc	r3, r4, r3, asr r2
     210:	632f584c 	teqvs	pc, #76, 16	; 0x4c0000
     214:	30343273 	eorscc	r3, r4, r3, ror r2
     218:	322d786c 	eorcc	r7, sp, #108, 16	; 0x6c0000
     21c:	72707330 	rsbsvc	r7, r0, #48, 6	; 0xc0000000
     220:	62696c2f 	rsbvs	r6, r9, #12032	; 0x2f00
     224:	692f6970 	stmdbvs	pc!, {r4, r5, r6, r8, fp, sp, lr}	; <UNPREDICTABLE>
     228:	756c636e 	strbvc	r6, [ip, #-878]!	; 0x36e
     22c:	2f006564 	svccs	0x00006564
     230:	2f727375 	svccs	0x00727375
     234:	61636f6c 	cmnvs	r3, ip, ror #30
     238:	65432f6c 	strbvs	r2, [r3, #-3948]	; 0xf6c
     23c:	72616c6c 	rsbvc	r6, r1, #108, 24	; 0x6c00
     240:	6d72612f 	ldfvse	f6, [r2, #-188]!	; 0xffffff44
     244:	6e6f6e2d 	cdpvs	14, 6, cr6, cr15, cr13, {1}
     248:	61652d65 	cmnvs	r5, r5, ror #26
     24c:	342f6962 	strtcc	r6, [pc], #-2402	; 254 <__code_start__-0x7dac>
     250:	332e382e 	teqcc	lr, #3014656	; 0x2e0000
     254:	3173632d 	cmncc	r3, sp, lsr #6
     258:	2f653037 	svccs	0x00653037
     25c:	2d6d7261 	sfmcs	f7, 2, [sp, #-388]!	; 0xfffffe7c
     260:	656e6f6e 	strbvs	r6, [lr, #-3950]!	; 0xf6e
     264:	6261652d 	rsbvs	r6, r1, #188743680	; 0xb400000
     268:	6e692f69 	cdpvs	15, 6, cr2, cr9, cr9, {3}
     26c:	64756c63 	ldrbtvs	r6, [r5], #-3171	; 0xc63
     270:	552f0065 	strpl	r0, [pc, #-101]!	; 213 <__code_start__-0x7ded>
     274:	73726573 	cmnvc	r2, #482344960	; 0x1cc00000
     278:	6972622f 	ldmdbvs	r2!, {r0, r1, r2, r3, r5, r9, sp, lr}^
     27c:	756a6e61 	strbvc	r6, [sl, #-3681]!	; 0xe61
     280:	65442f6e 	strbvs	r2, [r4, #-3950]	; 0xf6e
     284:	6f746b73 	svcvs	0x00746b73
     288:	63732f70 	cmnvs	r3, #112, 30	; 0x1c0
     28c:	6c6f6f68 	stclvs	15, cr6, [pc], #-416	; f4 <__code_start__-0x7f0c>
     290:	7270532f 	rsbsvc	r5, r0, #-1140850688	; 0xbc000000
     294:	31676e69 	cmncc	r7, r9, ror #28
     298:	2f303239 	svccs	0x00303239
     29c:	34325343 	ldrtcc	r5, [r2], #-835	; 0x343
     2a0:	2f584c30 	svccs	0x00584c30
     2a4:	34327363 	ldrtcc	r7, [r2], #-867	; 0x363
     2a8:	2d786c30 	ldclcs	12, cr6, [r8, #-192]!	; 0xffffff40
     2ac:	70733032 	rsbsvc	r3, r3, r2, lsr r0
     2b0:	696c2f72 	stmdbvs	ip!, {r1, r4, r5, r6, r8, r9, sl, fp, sp}^
     2b4:	2f697062 	svccs	0x00697062
     2b8:	6362696c 	cmnvs	r2, #108, 18	; 0x1b0000
     2bc:	6b630000 	blvs	18c02c4 <__bss_end__+0x18b560c>
     2c0:	6f6c6c61 	svcvs	0x006c6c61
     2c4:	00632e63 	rsbeq	r2, r3, r3, ror #28
     2c8:	63000000 	movwvs	r0, #0
     2cc:	6c6c616b 	stfvse	f6, [ip], #-428	; 0xfffffe54
     2d0:	692d636f 	pushvs	{r0, r1, r2, r3, r5, r6, r8, r9, sp, lr}
     2d4:	7265746e 	rsbvc	r7, r5, #1845493760	; 0x6e000000
     2d8:	2e6c616e 	powcsez	f6, f4, #0.5
     2dc:	00000068 	andeq	r0, r0, r8, rrx
     2e0:	64747300 	ldrbtvs	r7, [r4], #-768	; 0x300
     2e4:	2e666564 	cdpcs	5, 6, cr6, cr6, cr4, {3}
     2e8:	00010068 	andeq	r0, r1, r8, rrx
     2ec:	64747300 	ldrbtvs	r7, [r4], #-768	; 0x300
     2f0:	2d746e69 	ldclcs	14, cr6, [r4, #-420]!	; 0xfffffe5c
     2f4:	2e636367 	cdpcs	3, 6, cr6, cr3, cr7, {3}
     2f8:	00010068 	andeq	r0, r1, r8, rrx
     2fc:	69707200 	ldmdbvs	r0!, {r9, ip, sp, lr}^
     300:	0200682e 	andeq	r6, r0, #3014656	; 0x2e0000
     304:	74730000 	ldrbtvc	r0, [r3], #-0
     308:	676e6972 			; <UNDEFINED> instruction: 0x676e6972
     30c:	0300682e 	movweq	r6, #2094	; 0x82e
     310:	696c0000 	stmdbvs	ip!, {}^	; <UNPREDICTABLE>
     314:	652d6362 	strvs	r6, [sp, #-866]!	; 0x362
     318:	61727478 	cmnvs	r2, r8, ror r4
     31c:	0400682e 	streq	r6, [r0], #-2094	; 0x82e
     320:	00000000 	andeq	r0, r0, r0
     324:	81740205 	cmnhi	r4, r5, lsl #4
     328:	33030000 	movwcc	r0, #12288	; 0x3000
     32c:	834b4c01 	movthi	r4, #48129	; 0xbc01
     330:	02042f2f 	andeq	r2, r4, #47, 30	; 0xbc
     334:	0800ca03 	stmdaeq	r0, {r0, r1, r9, fp, lr, pc}
     338:	d967a020 	stmdble	r7!, {r5, sp, pc}^
     33c:	030104bb 	movweq	r0, #5307	; 0x14bb
     340:	67d67fb0 			; <UNDEFINED> instruction: 0x67d67fb0
     344:	004a7a03 	subeq	r7, sl, r3, lsl #20
     348:	06010402 	streq	r0, [r1], -r2, lsl #8
     34c:	0903062e 	stmdbeq	r3, {r1, r2, r3, r5, r9, sl}
     350:	4bf42f4a 	blmi	ffd0c080 <__bss_end__+0xffd013c8>
     354:	4b665603 	blmi	1995b68 <__bss_end__+0x198aeb0>
     358:	2f2f2f2f 	svccs	0x002f2f2f
     35c:	2f2f2f4b 	svccs	0x002f2f4b
     360:	2f2f2f4b 	svccs	0x002f2f4b
     364:	314b3130 	cmpcc	fp, r0, lsr r1
     368:	01040200 	mrseq	r0, R12_usr
     36c:	d7066606 	strle	r6, [r6, -r6, lsl #12]
     370:	01040200 	mrseq	r0, R12_usr
     374:	d8068206 	stmdale	r6, {r1, r2, r9, pc}
     378:	4cba1a03 	vldmiami	sl!, {s2-s4}
     37c:	02044930 	andeq	r4, r4, #48, 18	; 0xc0000
     380:	4cba0c03 	ldcmi	12, cr0, [sl], #12
     384:	73030104 	movwvc	r0, #12548	; 0x3104
     388:	0391082e 	orrseq	r0, r1, #3014656	; 0x2e0000
     38c:	672e7fbb 			; <UNDEFINED> instruction: 0x672e7fbb
     390:	01040200 	mrseq	r0, R12_usr
     394:	d7068206 	strle	r8, [r6, -r6, lsl #4]
     398:	2f4b6783 	svccs	0x004b6783
     39c:	c4034b2f 	strgt	r4, [r3], #-2863	; 0xb2f
     3a0:	00a0d600 	adceq	sp, r0, r0, lsl #12
     3a4:	06010402 	streq	r0, [r1], -r2, lsl #8
     3a8:	a0d70682 	sbcsge	r0, r7, r2, lsl #13
     3ac:	4c6a8530 	cfstr64mi	mvdx8, [sl], #-192	; 0xffffff40
     3b0:	302f2f68 	eorcc	r2, pc, r8, ror #30
     3b4:	be4008a0 	cdplt	8, 4, cr0, cr0, cr0, {5}
     3b8:	01040200 	mrseq	r0, R12_usr
     3bc:	d7068206 	strle	r8, [r6, -r6, lsl #4]
     3c0:	4b314ba0 	blmi	c53248 <__bss_end__+0xc48590>
     3c4:	02bb9208 	adcseq	r9, fp, #8, 4	; 0x80000000
     3c8:	2f4c162a 	svccs	0x004c162a
     3cc:	30674c4b 	rsbcc	r4, r7, fp, asr #24
     3d0:	68302f2f 	ldmdavs	r0!, {r0, r1, r2, r3, r5, r8, r9, sl, fp, sp}
     3d4:	45030204 	strmi	r0, [r3, #-516]	; 0x204
     3d8:	01044c66 	tsteq	r4, r6, ror #24
     3dc:	6a2e3a03 	bvs	b8ebf0 <__bss_end__+0xb83f38>
     3e0:	01040200 	mrseq	r0, R12_usr
     3e4:	d7068206 	strle	r8, [r6, -r6, lsl #4]
     3e8:	01040200 	mrseq	r0, R12_usr
     3ec:	d7068206 	strle	r8, [r6, -r6, lsl #4]
     3f0:	172202d8 			; <UNDEFINED> instruction: 0x172202d8
     3f4:	bf4c832f 	svclt	0x004c832f
     3f8:	03322d2c 	teqeq	r2, #44, 26	; 0xb00
     3fc:	74032e0c 	strvc	r2, [r3], #-3596	; 0xe0c
     400:	02002f4a 	andeq	r2, r0, #296	; 0x128
     404:	4a060104 	bmi	18081c <__bss_end__+0x175b64>
     408:	8383d806 	orrhi	sp, r3, #393216	; 0x60000
     40c:	0200302f 	andeq	r3, r0, #47	; 0x2f
     410:	66060104 	strvs	r0, [r6], -r4, lsl #2
     414:	bb673006 	bllt	19cc434 <__bss_end__+0x19c177c>
     418:	009f3283 	addseq	r3, pc, r3, lsl #5
     41c:	03010402 	movweq	r0, #5122	; 0x1402
     420:	16032e6e 	strne	r2, [r3], -lr, ror #28
     424:	a0d84b66 	sbcsge	r4, r8, r6, ror #22
     428:	4d2f7908 	stcmi	9, cr7, [pc, #-32]!	; 410 <__code_start__-0x7bf0>
     42c:	01040200 	mrseq	r0, R12_usr
     430:	d8068206 	stmdale	r6, {r1, r2, r9, pc}
     434:	030204bd 	movweq	r0, #9405	; 0x24bd
     438:	042e7f8d 	strteq	r7, [lr], #-3981	; 0xf8d
     43c:	00f40301 	rscseq	r0, r4, r1, lsl #6
     440:	00853482 	addeq	r3, r5, r2, lsl #9
     444:	06010402 	streq	r0, [r1], -r2, lsl #8
     448:	00d7062e 	sbcseq	r0, r7, lr, lsr #12
     44c:	06010402 	streq	r0, [r1], -r2, lsl #8
     450:	4ed30682 	cdpmi	6, 13, cr0, cr3, cr2, {4}
     454:	672fbc2f 	strvs	fp, [pc, -pc, lsr #24]!
     458:	01000602 	tsteq	r0, r2, lsl #12
     45c:	00021b01 	andeq	r1, r2, r1, lsl #22
     460:	f9000200 			; <UNDEFINED> instruction: 0xf9000200
     464:	02000000 	andeq	r0, r0, #0
     468:	0d0efb01 	vstreq	d15, [lr, #-4]
     46c:	01010100 	mrseq	r0, (UNDEF: 17)
     470:	00000001 	andeq	r0, r0, r1
     474:	01000001 	tsteq	r0, r1
     478:	7273752f 	rsbsvc	r7, r3, #197132288	; 0xbc00000
     47c:	636f6c2f 	cmnvs	pc, #12032	; 0x2f00
     480:	432f6c61 	teqmi	pc, #24832	; 0x6100
     484:	616c6c65 	cmnvs	ip, r5, ror #24
     488:	72612f72 	rsbvc	r2, r1, #456	; 0x1c8
     48c:	6f6e2d6d 	svcvs	0x006e2d6d
     490:	652d656e 	strvs	r6, [sp, #-1390]!	; 0x56e
     494:	2f696261 	svccs	0x00696261
     498:	2e382e34 	mrccs	14, 1, r2, cr8, cr4, {1}
     49c:	73632d33 	cmnvc	r3, #3264	; 0xcc0
     4a0:	65303731 	ldrvs	r3, [r0, #-1841]!	; 0x731
     4a4:	62696c2f 	rsbvs	r6, r9, #12032	; 0x2f00
     4a8:	6363672f 	cmnvs	r3, #12320768	; 0xbc0000
     4ac:	6d72612f 	ldfvse	f6, [r2, #-188]!	; 0xffffff44
     4b0:	6e6f6e2d 	cdpvs	14, 6, cr6, cr15, cr13, {1}
     4b4:	61652d65 	cmnvs	r5, r5, ror #26
     4b8:	342f6962 	strtcc	r6, [pc], #-2402	; 4c0 <__code_start__-0x7b40>
     4bc:	332e382e 	teqcc	lr, #3014656	; 0x2e0000
     4c0:	636e692f 	cmnvs	lr, #770048	; 0xbc000
     4c4:	6564756c 	strbvs	r7, [r4, #-1388]!	; 0x56c
     4c8:	73552f00 	cmpvc	r5, #0, 30
     4cc:	2f737265 	svccs	0x00737265
     4d0:	61697262 	cmnvs	r9, r2, ror #4
     4d4:	6e756a6e 	vsubvs.f32	s13, s10, s29
     4d8:	7365442f 	cmnvc	r5, #788529152	; 0x2f000000
     4dc:	706f746b 	rsbvc	r7, pc, fp, ror #8
     4e0:	6863732f 	stmdavs	r3!, {r0, r1, r2, r3, r5, r8, r9, ip, sp, lr}^
     4e4:	2f6c6f6f 	svccs	0x006c6f6f
     4e8:	69727053 	ldmdbvs	r2!, {r0, r1, r4, r6, ip, sp, lr}^
     4ec:	3931676e 	ldmdbcc	r1!, {r1, r2, r3, r5, r6, r8, r9, sl, sp, lr}
     4f0:	432f3032 	teqmi	pc, #50	; 0x32
     4f4:	30343253 	eorscc	r3, r4, r3, asr r2
     4f8:	632f584c 	teqvs	pc, #76, 16	; 0x4c0000
     4fc:	30343273 	eorscc	r3, r4, r3, ror r2
     500:	322d786c 	eorcc	r7, sp, #108, 16	; 0x6c0000
     504:	72707330 	rsbsvc	r7, r0, #48, 6	; 0xc0000000
     508:	62696c2f 	rsbvs	r6, r9, #12032	; 0x2f00
     50c:	692f6970 	stmdbvs	pc!, {r4, r5, r6, r8, fp, sp, lr}	; <UNPREDICTABLE>
     510:	756c636e 	strbvc	r6, [ip, #-878]!	; 0x36e
     514:	00006564 	andeq	r6, r0, r4, ror #10
     518:	672d6b63 	strvs	r6, [sp, -r3, ror #22]!
     51c:	00632e63 	rsbeq	r2, r3, r3, ror #28
     520:	73000000 	movwvc	r0, #0
     524:	6e696474 	mcrvs	4, 3, r6, cr9, cr4, {3}
     528:	63672d74 	cmnvs	r7, #116, 26	; 0x1d00
     52c:	00682e63 	rsbeq	r2, r8, r3, ror #28
     530:	63000001 	movwvs	r0, #1
     534:	6c6c616b 	stfvse	f6, [ip], #-428	; 0xfffffe54
     538:	692d636f 	pushvs	{r0, r1, r2, r3, r5, r6, r8, r9, sp, lr}
     53c:	7265746e 	rsbvc	r7, r5, #1845493760	; 0x6e000000
     540:	2e6c616e 	powcsez	f6, f4, #0.5
     544:	00000068 	andeq	r0, r0, r8, rrx
     548:	69707200 	ldmdbvs	r0!, {r9, ip, sp, lr}^
     54c:	0200682e 	andeq	r6, r0, #3014656	; 0x2e0000
     550:	6b630000 	blvs	18c0558 <__bss_end__+0x18b58a0>
     554:	6f6c6c61 	svcvs	0x006c6c61
     558:	00682e63 	rsbeq	r2, r8, r3, ror #28
     55c:	00000000 	andeq	r0, r0, r0
     560:	b0020500 	andlt	r0, r2, r0, lsl #10
     564:	03000089 	movweq	r0, #137	; 0x89
     568:	0013011b 	andseq	r0, r3, fp, lsl r1
     56c:	06010402 	streq	r0, [r1], -r2, lsl #8
     570:	9f068282 	svcls	0x00068282
     574:	4d4a1503 	cfstr64mi	mvdx1, [sl, #-12]
     578:	67302f69 	ldrvs	r2, [r0, -r9, ror #30]!
     57c:	494b3168 	stmdbmi	fp, {r3, r5, r6, r8, ip, sp}^
     580:	0030684c 	eorseq	r6, r0, ip, asr #16
     584:	03010402 	movweq	r0, #5122	; 0x1402
     588:	03632e72 	cmneq	r3, #1824	; 0x720
     58c:	31032e16 	tstcc	r3, r6, lsl lr
     590:	4c4b4c2e 	mcrrmi	12, 2, r4, fp, cr14
     594:	660b0346 	strvs	r0, [fp], -r6, asr #6
     598:	2f2b2930 	svccs	0x002b2930
     59c:	4c9f6767 	ldcmi	7, cr6, [pc], {103}	; 0x67
     5a0:	0402002f 	streq	r0, [r2], #-47	; 0x2f
     5a4:	064a0601 	strbeq	r0, [sl], -r1, lsl #12
     5a8:	2f32a067 	svccs	0x0032a067
     5ac:	01040200 	mrseq	r0, R12_usr
     5b0:	03667103 	cmneq	r6, #-1073741824	; 0xc0000000
     5b4:	4b9f4a12 	blmi	fe7d2e04 <__bss_end__+0xfe7c814c>
     5b8:	034cbca0 	movteq	fp, #52384	; 0xcca0
     5bc:	58087fbc 	stmdapl	r8, {r2, r3, r4, r5, r7, r8, r9, sl, fp, ip, sp, lr}
     5c0:	04020067 	streq	r0, [r2], #-103	; 0x67
     5c4:	064a0601 	strbeq	r0, [sl], -r1, lsl #12
     5c8:	040200d8 	streq	r0, [r2], #-216	; 0xd8
     5cc:	064a0601 	strbeq	r0, [sl], -r1, lsl #12
     5d0:	040200d7 	streq	r0, [r2], #-215	; 0xd7
     5d4:	064a0601 	strbeq	r0, [sl], -r1, lsl #12
     5d8:	696884dc 	stmdbvs	r8!, {r2, r3, r4, r6, r7, sl, pc}^
     5dc:	85316968 	ldrhi	r6, [r1, #-2408]!	; 0x968
     5e0:	01040200 	mrseq	r0, R12_usr
     5e4:	004a7a03 	subeq	r7, sl, r3, lsl #20
     5e8:	03010402 	movweq	r0, #5122	; 0x1402
     5ec:	15032e73 	strne	r2, [r3, #-3699]	; 0xe73
     5f0:	00d2034a 	sbcseq	r0, r2, sl, asr #6
     5f4:	2d2f4dba 	stccs	13, cr4, [pc, #-744]!	; 314 <__code_start__-0x7cec>
     5f8:	02040200 	andeq	r0, r4, #0, 4
     5fc:	0402002f 	streq	r0, [r2], #-47	; 0x2f
     600:	02006502 	andeq	r6, r0, #8388608	; 0x800000
     604:	2e060104 	adfcss	f0, f6, f4
     608:	03675006 	cmneq	r7, #6
     60c:	0067660a 	rsbeq	r6, r7, sl, lsl #12
     610:	06010402 	streq	r0, [r1], -r2, lsl #8
     614:	04020066 	streq	r0, [r2], #-102	; 0x66
     618:	00d90602 	sbcseq	r0, r9, r2, lsl #12
     61c:	65020402 	strvs	r0, [r2, #-1026]	; 0x402
     620:	04020067 	streq	r0, [r2], #-103	; 0x67
     624:	6c502d01 	mrrcvs	13, 0, r2, r0, cr1
     628:	0367696a 	cmneq	r7, #1736704	; 0x1a8000
     62c:	4c3c0838 	ldcmi	8, cr0, [ip], #-224	; 0xffffff20
     630:	03464c4b 	movteq	r4, #27723	; 0x6c4b
     634:	034b660b 	movteq	r6, #46603	; 0xb60b
     638:	672f2e79 			; <UNDEFINED> instruction: 0x672f2e79
     63c:	9f306767 	svcls	0x00306767
     640:	02002fa1 	andeq	r2, r0, #644	; 0x284
     644:	75030104 	strvc	r0, [r3, #-260]	; 0x104
     648:	4a130366 	bmi	4c13e8 <__bss_end__+0x4b6730>
     64c:	4cbc4bf4 	vldmiami	ip!, {d4-<overflow reg d61>}
     650:	087fb003 	ldmdaeq	pc!, {r0, r1, ip, sp, pc}^	; <UNPREDICTABLE>
     654:	4b2f4b90 	blmi	bd349c <__bss_end__+0xbc87e4>
     658:	67133231 			; <UNDEFINED> instruction: 0x67133231
     65c:	d88383d8 	stmle	r3, {r3, r4, r6, r7, r8, r9, pc}
     660:	32400883 	subcc	r0, r0, #8585216	; 0x830000
     664:	84d86713 	ldrbhi	r6, [r8], #1811	; 0x713
     668:	9fd84b4b 	svcls	0x00d84b4b
     66c:	2f3e0814 	svccs	0x003e0814
     670:	3c082703 	stccc	7, cr2, [r8], {3}
     674:	02332f2f 	eorseq	r2, r3, #47, 30	; 0xbc
     678:	01010002 	tsteq	r1, r2
     67c:	000000de 	ldrdeq	r0, [r0], -lr
     680:	00830002 	addeq	r0, r3, r2
     684:	01020000 	mrseq	r0, (UNDEF: 2)
     688:	000d0efb 	strdeq	r0, [sp], -fp
     68c:	01010101 	tsteq	r1, r1, lsl #2
     690:	01000000 	mrseq	r0, (UNDEF: 0)
     694:	6c010000 	stcvs	0, cr0, [r1], {-0}
     698:	00636269 	rsbeq	r6, r3, r9, ror #4
     69c:	7273752f 	rsbsvc	r7, r3, #197132288	; 0xbc00000
     6a0:	636f6c2f 	cmnvs	pc, #12032	; 0x2f00
     6a4:	432f6c61 	teqmi	pc, #24832	; 0x6100
     6a8:	616c6c65 	cmnvs	ip, r5, ror #24
     6ac:	72612f72 	rsbvc	r2, r1, #456	; 0x1c8
     6b0:	6f6e2d6d 	svcvs	0x006e2d6d
     6b4:	652d656e 	strvs	r6, [sp, #-1390]!	; 0x56e
     6b8:	2f696261 	svccs	0x00696261
     6bc:	2e382e34 	mrccs	14, 1, r2, cr8, cr4, {1}
     6c0:	73632d33 	cmnvc	r3, #3264	; 0xcc0
     6c4:	65303731 	ldrvs	r3, [r0, #-1841]!	; 0x731
     6c8:	62696c2f 	rsbvs	r6, r9, #12032	; 0x2f00
     6cc:	6363672f 	cmnvs	r3, #12320768	; 0xbc0000
     6d0:	6d72612f 	ldfvse	f6, [r2, #-188]!	; 0xffffff44
     6d4:	6e6f6e2d 	cdpvs	14, 6, cr6, cr15, cr13, {1}
     6d8:	61652d65 	cmnvs	r5, r5, ror #26
     6dc:	342f6962 	strtcc	r6, [pc], #-2402	; 6e4 <__code_start__-0x791c>
     6e0:	332e382e 	teqcc	lr, #3014656	; 0x2e0000
     6e4:	636e692f 	cmnvs	lr, #770048	; 0xbc000
     6e8:	6564756c 	strbvs	r7, [r4, #-1388]!	; 0x56c
     6ec:	61680000 	cmnvs	r8, r0
     6f0:	632e6873 	teqvs	lr, #7536640	; 0x730000
     6f4:	00000100 	andeq	r0, r0, r0, lsl #2
     6f8:	69647473 	stmdbvs	r4!, {r0, r1, r4, r5, r6, sl, ip, sp, lr}^
     6fc:	672d746e 	strvs	r7, [sp, -lr, ror #8]!
     700:	682e6363 	stmdavs	lr!, {r0, r1, r5, r6, r8, r9, sp, lr}
     704:	00000200 	andeq	r0, r0, r0, lsl #4
     708:	02050000 	andeq	r0, r5, #0
     70c:	00009044 	andeq	r9, r0, r4, asr #32
     710:	30010e03 	andcc	r0, r1, r3, lsl #28
     714:	312f8431 	teqcc	pc, r1, lsr r4	; <UNPREDICTABLE>
     718:	02040200 	andeq	r0, r4, #0, 4
     71c:	0402002f 	streq	r0, [r2], #-47	; 0x2f
     720:	02008302 	andeq	r8, r0, #134217728	; 0x8000000
     724:	00830204 	addeq	r0, r3, r4, lsl #4
     728:	2f020402 	svccs	0x00020402
     72c:	02040200 	andeq	r0, r4, #0, 4
     730:	0402002f 	streq	r0, [r2], #-47	; 0x2f
     734:	02002902 	andeq	r2, r0, #32768	; 0x8000
     738:	2e060104 	adfcss	f0, f6, f4
     73c:	4a090306 	bmi	24135c <__bss_end__+0x2366a4>
     740:	4b2f83d7 	blmi	be16a4 <__bss_end__+0xbd69ec>
     744:	2f832f2f 	svccs	0x00832f2f
     748:	2f4b2f2f 	svccs	0x004b2f2f
     74c:	2f2f2f32 	svccs	0x002f2f32
     750:	03302f2f 	teqeq	r0, #47, 30	; 0xbc
     754:	27032e5a 	smlsdcs	r3, sl, lr, r2
     758:	0004022e 	andeq	r0, r4, lr, lsr #4
     75c:	00ec0101 	rsceq	r0, ip, r1, lsl #2
     760:	00020000 	andeq	r0, r2, r0
     764:	000000d0 	ldrdeq	r0, [r0], -r0	; <UNPREDICTABLE>
     768:	0efb0102 	cdpeq	1, 15, cr0, cr11, cr2, {0}
     76c:	0101000d 	tsteq	r1, sp
     770:	00000101 	andeq	r0, r0, r1, lsl #2
     774:	00000100 	andeq	r0, r0, r0, lsl #2
     778:	62696c01 	rsbvs	r6, r9, #256	; 0x100
     77c:	752f0063 	strvc	r0, [pc, #-99]!	; 721 <__code_start__-0x78df>
     780:	6c2f7273 	sfmvs	f7, 4, [pc], #-460	; 5bc <__code_start__-0x7a44>
     784:	6c61636f 	stclvs	3, cr6, [r1], #-444	; 0xfffffe44
     788:	6c65432f 	stclvs	3, cr4, [r5], #-188	; 0xffffff44
     78c:	2f72616c 	svccs	0x0072616c
     790:	2d6d7261 	sfmcs	f7, 2, [sp, #-388]!	; 0xfffffe7c
     794:	656e6f6e 	strbvs	r6, [lr, #-3950]!	; 0xf6e
     798:	6261652d 	rsbvs	r6, r1, #188743680	; 0xb400000
     79c:	2e342f69 	cdpcs	15, 3, cr2, cr4, cr9, {3}
     7a0:	2d332e38 	ldccs	14, cr2, [r3, #-224]!	; 0xffffff20
     7a4:	37317363 	ldrcc	r7, [r1, -r3, ror #6]!
     7a8:	6c2f6530 	cfstr32vs	mvfx6, [pc], #-192	; 6f0 <__code_start__-0x7910>
     7ac:	672f6269 	strvs	r6, [pc, -r9, ror #4]!
     7b0:	612f6363 	teqvs	pc, r3, ror #6
     7b4:	6e2d6d72 	mcrvs	13, 1, r6, cr13, cr2, {3}
     7b8:	2d656e6f 	stclcs	14, cr6, [r5, #-444]!	; 0xfffffe44
     7bc:	69626165 	stmdbvs	r2!, {r0, r2, r5, r6, r8, sp, lr}^
     7c0:	382e342f 	stmdacc	lr!, {r0, r1, r2, r3, r5, sl, ip, sp}
     7c4:	692f332e 	stmdbvs	pc!, {r1, r2, r3, r5, r8, r9, ip, sp}	; <UNPREDICTABLE>
     7c8:	756c636e 	strbvc	r6, [ip, #-878]!	; 0x36e
     7cc:	2f006564 	svccs	0x00006564
     7d0:	2f727375 	svccs	0x00727375
     7d4:	61636f6c 	cmnvs	r3, ip, ror #30
     7d8:	65432f6c 	strbvs	r2, [r3, #-3948]	; 0xf6c
     7dc:	72616c6c 	rsbvc	r6, r1, #108, 24	; 0x6c00
     7e0:	6d72612f 	ldfvse	f6, [r2, #-188]!	; 0xffffff44
     7e4:	6e6f6e2d 	cdpvs	14, 6, cr6, cr15, cr13, {1}
     7e8:	61652d65 	cmnvs	r5, r5, ror #26
     7ec:	342f6962 	strtcc	r6, [pc], #-2402	; 7f4 <__code_start__-0x780c>
     7f0:	332e382e 	teqcc	lr, #3014656	; 0x2e0000
     7f4:	3173632d 	cmncc	r3, sp, lsr #6
     7f8:	2f653037 	svccs	0x00653037
     7fc:	2d6d7261 	sfmcs	f7, 2, [sp, #-388]!	; 0xfffffe7c
     800:	656e6f6e 	strbvs	r6, [lr, #-3950]!	; 0xf6e
     804:	6261652d 	rsbvs	r6, r1, #188743680	; 0xb400000
     808:	6e692f69 	cdpvs	15, 6, cr2, cr9, cr9, {3}
     80c:	64756c63 	ldrbtvs	r6, [r5], #-3171	; 0xc63
     810:	6d000065 	stcvs	0, cr0, [r0, #-404]	; 0xfffffe6c
     814:	65736d65 	ldrbvs	r6, [r3, #-3429]!	; 0xd65
     818:	00632e74 	rsbeq	r2, r3, r4, ror lr
     81c:	73000001 	movwvc	r0, #1
     820:	65646474 	strbvs	r6, [r4, #-1140]!	; 0x474
     824:	00682e66 	rsbeq	r2, r8, r6, ror #28
     828:	73000002 	movwvc	r0, #2
     82c:	6e697274 	mcrvs	2, 3, r7, cr9, cr4, {3}
     830:	00682e67 	rsbeq	r2, r8, r7, ror #28
     834:	00000003 	andeq	r0, r0, r3
     838:	34020500 	strcc	r0, [r2], #-1280	; 0x500
     83c:	14000091 	strne	r0, [r0], #-145	; 0x91
     840:	002f4c13 	eoreq	r4, pc, r3, lsl ip	; <UNPREDICTABLE>
     844:	49010402 	stmdbmi	r1, {r1, sl}
     848:	0002024d 	andeq	r0, r2, sp, asr #4
     84c:	010c0101 	tsteq	ip, r1, lsl #2
     850:	00020000 	andeq	r0, r2, r0
     854:	000000f5 	strdeq	r0, [r0], -r5
     858:	0efb0102 	cdpeq	1, 15, cr0, cr11, cr2, {0}
     85c:	0101000d 	tsteq	r1, sp
     860:	00000101 	andeq	r0, r0, r1, lsl #2
     864:	00000100 	andeq	r0, r0, r0, lsl #2
     868:	62696c01 	rsbvs	r6, r9, #256	; 0x100
     86c:	752f0063 	strvc	r0, [pc, #-99]!	; 811 <__code_start__-0x77ef>
     870:	6c2f7273 	sfmvs	f7, 4, [pc], #-460	; 6ac <__code_start__-0x7954>
     874:	6c61636f 	stclvs	3, cr6, [r1], #-444	; 0xfffffe44
     878:	6c65432f 	stclvs	3, cr4, [r5], #-188	; 0xffffff44
     87c:	2f72616c 	svccs	0x0072616c
     880:	2d6d7261 	sfmcs	f7, 2, [sp, #-388]!	; 0xfffffe7c
     884:	656e6f6e 	strbvs	r6, [lr, #-3950]!	; 0xf6e
     888:	6261652d 	rsbvs	r6, r1, #188743680	; 0xb400000
     88c:	2e342f69 	cdpcs	15, 3, cr2, cr4, cr9, {3}
     890:	2d332e38 	ldccs	14, cr2, [r3, #-224]!	; 0xffffff20
     894:	37317363 	ldrcc	r7, [r1, -r3, ror #6]!
     898:	6c2f6530 	cfstr32vs	mvfx6, [pc], #-192	; 7e0 <__code_start__-0x7820>
     89c:	672f6269 	strvs	r6, [pc, -r9, ror #4]!
     8a0:	612f6363 	teqvs	pc, r3, ror #6
     8a4:	6e2d6d72 	mcrvs	13, 1, r6, cr13, cr2, {3}
     8a8:	2d656e6f 	stclcs	14, cr6, [r5, #-444]!	; 0xfffffe44
     8ac:	69626165 	stmdbvs	r2!, {r0, r2, r5, r6, r8, sp, lr}^
     8b0:	382e342f 	stmdacc	lr!, {r0, r1, r2, r3, r5, sl, ip, sp}
     8b4:	692f332e 	stmdbvs	pc!, {r1, r2, r3, r5, r8, r9, ip, sp}	; <UNPREDICTABLE>
     8b8:	756c636e 	strbvc	r6, [ip, #-878]!	; 0x36e
     8bc:	2f006564 	svccs	0x00006564
     8c0:	72657355 	rsbvc	r7, r5, #1409286145	; 0x54000001
     8c4:	72622f73 	rsbvc	r2, r2, #460	; 0x1cc
     8c8:	6a6e6169 	bvs	1b98e74 <__bss_end__+0x1b8e1bc>
     8cc:	442f6e75 	strtmi	r6, [pc], #-3701	; 8d4 <__code_start__-0x772c>
     8d0:	746b7365 	strbtvc	r7, [fp], #-869	; 0x365
     8d4:	732f706f 	teqvc	pc, #111	; 0x6f
     8d8:	6f6f6863 	svcvs	0x006f6863
     8dc:	70532f6c 	subsvc	r2, r3, ip, ror #30
     8e0:	676e6972 			; <UNDEFINED> instruction: 0x676e6972
     8e4:	30323931 	eorscc	r3, r2, r1, lsr r9
     8e8:	3253432f 	subscc	r4, r3, #-1140850688	; 0xbc000000
     8ec:	584c3034 	stmdapl	ip, {r2, r4, r5, ip, sp}^
     8f0:	3273632f 	rsbscc	r6, r3, #-1140850688	; 0xbc000000
     8f4:	786c3034 	stmdavc	ip!, {r2, r4, r5, ip, sp}^
     8f8:	7330322d 	teqvc	r0, #-805306366	; 0xd0000002
     8fc:	6c2f7270 	sfmvs	f7, 4, [pc], #-448	; 744 <__code_start__-0x78bc>
     900:	69706269 	ldmdbvs	r0!, {r0, r3, r5, r6, r9, sp, lr}^
     904:	636e692f 	cmnvs	lr, #770048	; 0xbc000
     908:	6564756c 	strbvs	r7, [r4, #-1388]!	; 0x56c
     90c:	72700000 	rsbsvc	r0, r0, #0
     910:	6b746e69 	blvs	1d1c2bc <__bss_end__+0x1d11604>
     914:	0100632e 	tsteq	r0, lr, lsr #6
     918:	74730000 	ldrbtvc	r0, [r3], #-0
     91c:	67726164 	ldrbvs	r6, [r2, -r4, ror #2]!
     920:	0200682e 	andeq	r6, r0, #3014656	; 0x2e0000
     924:	623c0000 	eorsvs	r0, ip, #0
     928:	746c6975 	strbtvc	r6, [ip], #-2421	; 0x975
     92c:	3e6e692d 	cdpcc	9, 6, cr6, cr14, cr13, {1}
     930:	00000000 	andeq	r0, r0, r0
     934:	2e697072 	mcrcs	0, 3, r7, cr9, cr2, {3}
     938:	00030068 	andeq	r0, r3, r8, rrx
     93c:	2d617600 	stclcs	6, cr7, [r1, #-0]
     940:	6e697270 	mcrvs	2, 3, r7, cr9, cr0, {3}
     944:	682e6b74 	stmdavs	lr!, {r2, r4, r5, r6, r8, r9, fp, sp, lr}
     948:	00000100 	andeq	r0, r0, r0, lsl #2
     94c:	02050000 	andeq	r0, r5, #0
     950:	00009154 	andeq	r9, r0, r4, asr r1
     954:	bf4b6b17 	svclt	0x004b6b17
     958:	000e0289 	andeq	r0, lr, r9, lsl #5
     95c:	00940101 	addseq	r0, r4, r1, lsl #2
     960:	00020000 	andeq	r0, r2, r0
     964:	0000007c 	andeq	r0, r0, ip, ror r0
     968:	0efb0102 	cdpeq	1, 15, cr0, cr11, cr2, {0}
     96c:	0101000d 	tsteq	r1, sp
     970:	00000101 	andeq	r0, r0, r1, lsl #2
     974:	00000100 	andeq	r0, r0, r0, lsl #2
     978:	62696c01 	rsbvs	r6, r9, #256	; 0x100
     97c:	552f0063 	strpl	r0, [pc, #-99]!	; 921 <__code_start__-0x76df>
     980:	73726573 	cmnvc	r2, #482344960	; 0x1cc00000
     984:	6972622f 	ldmdbvs	r2!, {r0, r1, r2, r3, r5, r9, sp, lr}^
     988:	756a6e61 	strbvc	r6, [sl, #-3681]!	; 0xe61
     98c:	65442f6e 	strbvs	r2, [r4, #-3950]	; 0xf6e
     990:	6f746b73 	svcvs	0x00746b73
     994:	63732f70 	cmnvs	r3, #112, 30	; 0x1c0
     998:	6c6f6f68 	stclvs	15, cr6, [pc], #-416	; 800 <__code_start__-0x7800>
     99c:	7270532f 	rsbsvc	r5, r0, #-1140850688	; 0xbc000000
     9a0:	31676e69 	cmncc	r7, r9, ror #28
     9a4:	2f303239 	svccs	0x00303239
     9a8:	34325343 	ldrtcc	r5, [r2], #-835	; 0x343
     9ac:	2f584c30 	svccs	0x00584c30
     9b0:	34327363 	ldrtcc	r7, [r2], #-867	; 0x363
     9b4:	2d786c30 	ldclcs	12, cr6, [r8, #-192]!	; 0xffffff40
     9b8:	70733032 	rsbsvc	r3, r3, r2, lsr r0
     9bc:	696c2f72 	stmdbvs	ip!, {r1, r4, r5, r6, r8, r9, sl, fp, sp}^
     9c0:	2f697062 	svccs	0x00697062
     9c4:	6c636e69 	stclvs	14, cr6, [r3], #-420	; 0xfffffe5c
     9c8:	00656475 	rsbeq	r6, r5, r5, ror r4
     9cc:	74757000 	ldrbtvc	r7, [r5], #-0
     9d0:	72616863 	rsbvc	r6, r1, #6488064	; 0x630000
     9d4:	0100632e 	tsteq	r0, lr, lsr #6
     9d8:	70720000 	rsbsvc	r0, r2, r0
     9dc:	00682e69 	rsbeq	r2, r8, r9, ror #28
     9e0:	00000002 	andeq	r0, r0, r2
     9e4:	ac020500 	cfstr32ge	mvfx0, [r2], {-0}
     9e8:	14000091 	strne	r0, [r0], #-145	; 0x91
     9ec:	bc136b4a 	ldclt	11, cr6, [r3], {74}	; 0x4a
     9f0:	00080213 	andeq	r0, r8, r3, lsl r2
     9f4:	00a00101 	adceq	r0, r0, r1, lsl #2
     9f8:	00020000 	andeq	r0, r2, r0
     9fc:	00000079 	andeq	r0, r0, r9, ror r0
     a00:	0efb0102 	cdpeq	1, 15, cr0, cr11, cr2, {0}
     a04:	0101000d 	tsteq	r1, sp
     a08:	00000101 	andeq	r0, r0, r1, lsl #2
     a0c:	00000100 	andeq	r0, r0, r0, lsl #2
     a10:	62696c01 	rsbvs	r6, r9, #256	; 0x100
     a14:	552f0063 	strpl	r0, [pc, #-99]!	; 9b9 <__code_start__-0x7647>
     a18:	73726573 	cmnvc	r2, #482344960	; 0x1cc00000
     a1c:	6972622f 	ldmdbvs	r2!, {r0, r1, r2, r3, r5, r9, sp, lr}^
     a20:	756a6e61 	strbvc	r6, [sl, #-3681]!	; 0xe61
     a24:	65442f6e 	strbvs	r2, [r4, #-3950]	; 0xf6e
     a28:	6f746b73 	svcvs	0x00746b73
     a2c:	63732f70 	cmnvs	r3, #112, 30	; 0x1c0
     a30:	6c6f6f68 	stclvs	15, cr6, [pc], #-416	; 898 <__code_start__-0x7768>
     a34:	7270532f 	rsbsvc	r5, r0, #-1140850688	; 0xbc000000
     a38:	31676e69 	cmncc	r7, r9, ror #28
     a3c:	2f303239 	svccs	0x00303239
     a40:	34325343 	ldrtcc	r5, [r2], #-835	; 0x343
     a44:	2f584c30 	svccs	0x00584c30
     a48:	34327363 	ldrtcc	r7, [r2], #-867	; 0x363
     a4c:	2d786c30 	ldclcs	12, cr6, [r8, #-192]!	; 0xffffff40
     a50:	70733032 	rsbsvc	r3, r3, r2, lsr r0
     a54:	696c2f72 	stmdbvs	ip!, {r1, r4, r5, r6, r8, r9, sl, fp, sp}^
     a58:	2f697062 	svccs	0x00697062
     a5c:	6c636e69 	stclvs	14, cr6, [r3], #-420	; 0xfffffe5c
     a60:	00656475 	rsbeq	r6, r5, r5, ror r4
     a64:	74757000 	ldrbtvc	r7, [r5], #-0
     a68:	00632e6b 	rsbeq	r2, r3, fp, ror #28
     a6c:	72000001 	andvc	r0, r0, #1
     a70:	682e6970 	stmdavs	lr!, {r4, r5, r6, r8, fp, sp, lr}
     a74:	00000200 	andeq	r0, r0, r0, lsl #4
     a78:	02050000 	andeq	r0, r5, #0
     a7c:	000091e8 	andeq	r9, r0, r8, ror #3
     a80:	002d4c15 	eoreq	r4, sp, r5, lsl ip
     a84:	2f020402 	svccs	0x00020402
     a88:	02040200 	andeq	r0, r4, #0, 4
     a8c:	04020049 	streq	r0, [r2], #-73	; 0x49
     a90:	062e0601 	strteq	r0, [lr], -r1, lsl #12
     a94:	0006026b 	andeq	r0, r6, fp, ror #4
     a98:	01eb0101 	mvneq	r0, r1, lsl #2
     a9c:	00020000 	andeq	r0, r2, r0
     aa0:	000000e9 	andeq	r0, r0, r9, ror #1
     aa4:	0efb0102 	cdpeq	1, 15, cr0, cr11, cr2, {0}
     aa8:	0101000d 	tsteq	r1, sp
     aac:	00000101 	andeq	r0, r0, r1, lsl #2
     ab0:	00000100 	andeq	r0, r0, r0, lsl #2
     ab4:	62696c01 	rsbvs	r6, r9, #256	; 0x100
     ab8:	752f0063 	strvc	r0, [pc, #-99]!	; a5d <__code_start__-0x75a3>
     abc:	6c2f7273 	sfmvs	f7, 4, [pc], #-460	; 8f8 <__code_start__-0x7708>
     ac0:	6c61636f 	stclvs	3, cr6, [r1], #-444	; 0xfffffe44
     ac4:	6c65432f 	stclvs	3, cr4, [r5], #-188	; 0xffffff44
     ac8:	2f72616c 	svccs	0x0072616c
     acc:	2d6d7261 	sfmcs	f7, 2, [sp, #-388]!	; 0xfffffe7c
     ad0:	656e6f6e 	strbvs	r6, [lr, #-3950]!	; 0xf6e
     ad4:	6261652d 	rsbvs	r6, r1, #188743680	; 0xb400000
     ad8:	2e342f69 	cdpcs	15, 3, cr2, cr4, cr9, {3}
     adc:	2d332e38 	ldccs	14, cr2, [r3, #-224]!	; 0xffffff20
     ae0:	37317363 	ldrcc	r7, [r1, -r3, ror #6]!
     ae4:	6c2f6530 	cfstr32vs	mvfx6, [pc], #-192	; a2c <__code_start__-0x75d4>
     ae8:	672f6269 	strvs	r6, [pc, -r9, ror #4]!
     aec:	612f6363 	teqvs	pc, r3, ror #6
     af0:	6e2d6d72 	mcrvs	13, 1, r6, cr13, cr2, {3}
     af4:	2d656e6f 	stclcs	14, cr6, [r5, #-444]!	; 0xfffffe44
     af8:	69626165 	stmdbvs	r2!, {r0, r2, r5, r6, r8, sp, lr}^
     afc:	382e342f 	stmdacc	lr!, {r0, r1, r2, r3, r5, sl, ip, sp}
     b00:	692f332e 	stmdbvs	pc!, {r1, r2, r3, r5, r8, r9, ip, sp}	; <UNPREDICTABLE>
     b04:	756c636e 	strbvc	r6, [ip, #-878]!	; 0x36e
     b08:	2f006564 	svccs	0x00006564
     b0c:	72657355 	rsbvc	r7, r5, #1409286145	; 0x54000001
     b10:	72622f73 	rsbvc	r2, r2, #460	; 0x1cc
     b14:	6a6e6169 	bvs	1b990c0 <__bss_end__+0x1b8e408>
     b18:	442f6e75 	strtmi	r6, [pc], #-3701	; b20 <__code_start__-0x74e0>
     b1c:	746b7365 	strbtvc	r7, [fp], #-869	; 0x365
     b20:	732f706f 	teqvc	pc, #111	; 0x6f
     b24:	6f6f6863 	svcvs	0x006f6863
     b28:	70532f6c 	subsvc	r2, r3, ip, ror #30
     b2c:	676e6972 			; <UNDEFINED> instruction: 0x676e6972
     b30:	30323931 	eorscc	r3, r2, r1, lsr r9
     b34:	3253432f 	subscc	r4, r3, #-1140850688	; 0xbc000000
     b38:	584c3034 	stmdapl	ip, {r2, r4, r5, ip, sp}^
     b3c:	3273632f 	rsbscc	r6, r3, #-1140850688	; 0xbc000000
     b40:	786c3034 	stmdavc	ip!, {r2, r4, r5, ip, sp}^
     b44:	7330322d 	teqvc	r0, #-805306366	; 0xd0000002
     b48:	6c2f7270 	sfmvs	f7, 4, [pc], #-448	; 990 <__code_start__-0x7670>
     b4c:	69706269 	ldmdbvs	r0!, {r0, r3, r5, r6, r9, sp, lr}^
     b50:	636e692f 	cmnvs	lr, #770048	; 0xbc000
     b54:	6564756c 	strbvs	r7, [r4, #-1388]!	; 0x56c
     b58:	61760000 	cmnvs	r6, r0
     b5c:	6972702d 	ldmdbvs	r2!, {r0, r2, r3, r5, ip, sp, lr}^
     b60:	2e6b746e 	cdpcs	4, 6, cr7, cr11, cr14, {3}
     b64:	00010063 	andeq	r0, r1, r3, rrx
     b68:	64747300 	ldrbtvs	r7, [r4], #-768	; 0x300
     b6c:	2e677261 	cdpcs	2, 6, cr7, cr7, cr1, {3}
     b70:	00020068 	andeq	r0, r2, r8, rrx
     b74:	69707200 	ldmdbvs	r0!, {r9, ip, sp, lr}^
     b78:	0300682e 	movweq	r6, #2094	; 0x82e
     b7c:	623c0000 	eorsvs	r0, ip, #0
     b80:	746c6975 	strbtvc	r6, [ip], #-2421	; 0x975
     b84:	3e6e692d 	cdpcc	9, 6, cr6, cr14, cr13, {1}
     b88:	00000000 	andeq	r0, r0, r0
     b8c:	02050000 	andeq	r0, r5, #0
     b90:	0000921c 	andeq	r9, r0, ip, lsl r2
     b94:	01012603 	tsteq	r1, r3, lsl #12
     b98:	2d3113a5 	ldccs	3, cr1, [r1, #-660]!	; 0xfffffd6c
     b9c:	02040200 	andeq	r0, r4, #0, 4
     ba0:	0402002f 	streq	r0, [r2], #-47	; 0x2f
     ba4:	02002d02 	andeq	r2, r0, #2, 26	; 0x80
     ba8:	002f0204 	eoreq	r0, pc, r4, lsl #4
     bac:	2d010402 	cfstrscs	mvf0, [r1, #-8]
     bb0:	14304c4c 	ldrtne	r4, [r0], #-3148	; 0xc4c
     bb4:	004f2f4b 	subeq	r2, pc, fp, asr #30
     bb8:	67020402 	strvs	r0, [r2, -r2, lsl #8]
     bbc:	01040200 	mrseq	r0, R12_usr
     bc0:	304d4c65 	subcc	r4, sp, r5, ror #24
     bc4:	30312fa0 	eorscc	r2, r1, r0, lsr #31
     bc8:	84162602 	ldrhi	r2, [r6], #-1538	; 0x602
     bcc:	02002c2d 	andeq	r2, r0, #11520	; 0x2d00
     bd0:	00300104 	eorseq	r0, r0, r4, lsl #2
     bd4:	33010402 	movwcc	r0, #5122	; 0x1402
     bd8:	02006606 	andeq	r6, r0, #6291456	; 0x600000
     bdc:	002e0104 	eoreq	r0, lr, r4, lsl #2
     be0:	06010402 	streq	r0, [r1], -r2, lsl #8
     be4:	2f672108 	svccs	0x00672108
     be8:	03827303 	orreq	r7, r2, #201326592	; 0xc000000
     bec:	02002e13 	andeq	r2, r0, #304	; 0x130
     bf0:	66060104 	strvs	r0, [r6], -r4, lsl #2
     bf4:	01040200 	mrseq	r0, R12_usr
     bf8:	4b4b8306 	blmi	12e1818 <__bss_end__+0x12d6b60>
     bfc:	034b3167 	movteq	r3, #45415	; 0xb167
     c00:	23032e65 	movwcs	r2, #15973	; 0x3e65
     c04:	0402002e 	streq	r0, [r2], #-46	; 0x2e
     c08:	002e0601 	eoreq	r0, lr, r1, lsl #12
     c0c:	06010402 	streq	r0, [r1], -r2, lsl #8
     c10:	0402009f 	streq	r0, [r2], #-159	; 0x9f
     c14:	d7d96a01 	ldrble	r6, [r9, r1, lsl #20]
     c18:	087fa403 	ldmdaeq	pc!, {r0, r1, sl, sp, pc}^	; <UNPREDICTABLE>
     c1c:	02002f20 	andeq	r2, r0, #32, 30	; 0x80
     c20:	4a060104 	bmi	181038 <__bss_end__+0x176380>
     c24:	2f4bd706 	svccs	0x004bd706
     c28:	f200dc03 			; <UNDEFINED> instruction: 0xf200dc03
     c2c:	03484c83 	movteq	r4, #35971	; 0x8c83
     c30:	75032e0e 	strvc	r2, [r3, #-3598]	; 0xe0e
     c34:	842f2f2e 	strthi	r2, [pc], #-3886	; c3c <__code_start__-0x73c4>
     c38:	4d2d2f4b 	stcmi	15, cr2, [sp, #-300]!	; 0xfffffed4
     c3c:	832f3031 	teqhi	pc, #49	; 0x31
     c40:	01040200 	mrseq	r0, R12_usr
     c44:	0200a22c 	andeq	sl, r0, #44, 4	; 0xc0000002
     c48:	4a060104 	bmi	181060 <__bss_end__+0x1763a8>
     c4c:	3602d806 	strcc	sp, [r2], -r6, lsl #16
     c50:	d60e0316 			; <UNDEFINED> instruction: 0xd60e0316
     c54:	f3302108 	vrhadd.u<illegal width 64>	d2, d0, d8
     c58:	f330f331 	vcge.u<illegal width 64>	d15, d0, d17
     c5c:	f3304b30 			; <UNDEFINED> instruction: 0xf3304b30
     c60:	31230830 	teqcc	r3, r0, lsr r8
     c64:	0402002f 	streq	r0, [r2], #-47	; 0x2f
     c68:	02006501 	andeq	r6, r0, #4194304	; 0x400000
     c6c:	4a060204 	bmi	181484 <__bss_end__+0x1767cc>
     c70:	01040200 	mrseq	r0, R12_usr
     c74:	66420306 	strbvs	r0, [r2], -r6, lsl #6
     c78:	02040200 	andeq	r0, r4, #0, 4
     c7c:	03066606 	movweq	r6, #26118	; 0x6606
     c80:	684a00c2 	stmdavs	sl, {r1, r6, r7}^
     c84:	01001002 	tsteq	r0, r2
     c88:	00009c01 	andeq	r9, r0, r1, lsl #24
     c8c:	86000200 	strhi	r0, [r0], -r0, lsl #4
     c90:	02000000 	andeq	r0, r0, #0
     c94:	0d0efb01 	vstreq	d15, [lr, #-4]
     c98:	01010100 	mrseq	r0, (UNDEF: 17)
     c9c:	00000001 	andeq	r0, r0, r1
     ca0:	01000001 	tsteq	r0, r1
     ca4:	66617473 			; <UNDEFINED> instruction: 0x66617473
     ca8:	72732d66 	rsbsvc	r2, r3, #6528	; 0x1980
     cac:	552f0063 	strpl	r0, [pc, #-99]!	; c51 <__code_start__-0x73af>
     cb0:	73726573 	cmnvc	r2, #482344960	; 0x1cc00000
     cb4:	6972622f 	ldmdbvs	r2!, {r0, r1, r2, r3, r5, r9, sp, lr}^
     cb8:	756a6e61 	strbvc	r6, [sl, #-3681]!	; 0xe61
     cbc:	65442f6e 	strbvs	r2, [r4, #-3950]	; 0xf6e
     cc0:	6f746b73 	svcvs	0x00746b73
     cc4:	63732f70 	cmnvs	r3, #112, 30	; 0x1c0
     cc8:	6c6f6f68 	stclvs	15, cr6, [pc], #-416	; b30 <__code_start__-0x74d0>
     ccc:	7270532f 	rsbsvc	r5, r0, #-1140850688	; 0xbc000000
     cd0:	31676e69 	cmncc	r7, r9, ror #28
     cd4:	2f303239 	svccs	0x00303239
     cd8:	34325343 	ldrtcc	r5, [r2], #-835	; 0x343
     cdc:	2f584c30 	svccs	0x00584c30
     ce0:	34327363 	ldrtcc	r7, [r2], #-867	; 0x363
     ce4:	2d786c30 	ldclcs	12, cr6, [r8, #-192]!	; 0xffffff40
     ce8:	70733032 	rsbsvc	r3, r3, r2, lsr r0
     cec:	696c2f72 	stmdbvs	ip!, {r1, r4, r5, r6, r8, r9, sl, fp, sp}^
     cf0:	2f697062 	svccs	0x00697062
     cf4:	6c636e69 	stclvs	14, cr6, [r3], #-420	; 0xfffffe5c
     cf8:	00656475 	rsbeq	r6, r5, r5, ror r4
     cfc:	656c6300 	strbvs	r6, [ip, #-768]!	; 0x300
     d00:	722d6e61 	eorvc	r6, sp, #1552	; 0x610
     d04:	6f6f6265 	svcvs	0x006f6265
     d08:	00632e74 	rsbeq	r2, r3, r4, ror lr
     d0c:	72000001 	andvc	r0, r0, #1
     d10:	682e6970 	stmdavs	lr!, {r4, r5, r6, r8, fp, sp, lr}
     d14:	00000200 	andeq	r0, r0, r0, lsl #4
     d18:	02050000 	andeq	r0, r5, #0
     d1c:	00009728 	andeq	r9, r0, r8, lsr #14
     d20:	4b832f15 	blmi	fe0cc97c <__bss_end__+0xfe0c1cc4>
     d24:	01000602 	tsteq	r0, r2, lsl #12
     d28:	0000a301 	andeq	sl, r0, r1, lsl #6
     d2c:	80000200 	andhi	r0, r0, r0, lsl #4
     d30:	02000000 	andeq	r0, r0, #0
     d34:	0d0efb01 	vstreq	d15, [lr, #-4]
     d38:	01010100 	mrseq	r0, (UNDEF: 17)
     d3c:	00000001 	andeq	r0, r0, r1
     d40:	01000001 	tsteq	r0, r1
     d44:	66617473 			; <UNDEFINED> instruction: 0x66617473
     d48:	72732d66 	rsbsvc	r2, r3, #6528	; 0x1980
     d4c:	552f0063 	strpl	r0, [pc, #-99]!	; cf1 <__code_start__-0x730f>
     d50:	73726573 	cmnvc	r2, #482344960	; 0x1cc00000
     d54:	6972622f 	ldmdbvs	r2!, {r0, r1, r2, r3, r5, r9, sp, lr}^
     d58:	756a6e61 	strbvc	r6, [sl, #-3681]!	; 0xe61
     d5c:	65442f6e 	strbvs	r2, [r4, #-3950]	; 0xf6e
     d60:	6f746b73 	svcvs	0x00746b73
     d64:	63732f70 	cmnvs	r3, #112, 30	; 0x1c0
     d68:	6c6f6f68 	stclvs	15, cr6, [pc], #-416	; bd0 <__code_start__-0x7430>
     d6c:	7270532f 	rsbsvc	r5, r0, #-1140850688	; 0xbc000000
     d70:	31676e69 	cmncc	r7, r9, ror #28
     d74:	2f303239 	svccs	0x00303239
     d78:	34325343 	ldrtcc	r5, [r2], #-835	; 0x343
     d7c:	2f584c30 	svccs	0x00584c30
     d80:	34327363 	ldrtcc	r7, [r2], #-867	; 0x363
     d84:	2d786c30 	ldclcs	12, cr6, [r8, #-192]!	; 0xffffff40
     d88:	70733032 	rsbsvc	r3, r3, r2, lsr r0
     d8c:	696c2f72 	stmdbvs	ip!, {r1, r4, r5, r6, r8, r9, sl, fp, sp}^
     d90:	2f697062 	svccs	0x00697062
     d94:	6c636e69 	stclvs	14, cr6, [r3], #-420	; 0xfffffe5c
     d98:	00656475 	rsbeq	r6, r5, r5, ror r4
     d9c:	74736300 	ldrbtvc	r6, [r3], #-768	; 0x300
     da0:	2e747261 	cdpcs	2, 7, cr7, cr4, cr1, {3}
     da4:	00010063 	andeq	r0, r1, r3, rrx
     da8:	69707200 	ldmdbvs	r0!, {r9, ip, sp, lr}^
     dac:	0200682e 	andeq	r6, r0, #3014656	; 0x2e0000
     db0:	00000000 	andeq	r0, r0, r0
     db4:	97500205 	ldrbls	r0, [r0, -r5, lsl #4]
     db8:	0c030000 	stceq	0, cr0, [r3], {-0}
     dbc:	2f313201 	svccs	0x00313201
     dc0:	02002f2d 	andeq	r2, r0, #45, 30	; 0xb4
     dc4:	03490104 	movteq	r0, #37124	; 0x9104
     dc8:	022f4a15 	eoreq	r4, pc, #86016	; 0x15000
     dcc:	01010006 	tsteq	r1, r6
     dd0:	000000a2 	andeq	r0, r0, r2, lsr #1
     dd4:	00800002 	addeq	r0, r0, r2
     dd8:	01020000 	mrseq	r0, (UNDEF: 2)
     ddc:	000d0efb 	strdeq	r0, [sp], -fp
     de0:	01010101 	tsteq	r1, r1, lsl #2
     de4:	01000000 	mrseq	r0, (UNDEF: 0)
     de8:	73010000 	movwvc	r0, #4096	; 0x1000
     dec:	66666174 			; <UNDEFINED> instruction: 0x66666174
     df0:	6372732d 	cmnvs	r2, #-1275068416	; 0xb4000000
     df4:	73552f00 	cmpvc	r5, #0, 30
     df8:	2f737265 	svccs	0x00737265
     dfc:	61697262 	cmnvs	r9, r2, ror #4
     e00:	6e756a6e 	vsubvs.f32	s13, s10, s29
     e04:	7365442f 	cmnvc	r5, #788529152	; 0x2f000000
     e08:	706f746b 	rsbvc	r7, pc, fp, ror #8
     e0c:	6863732f 	stmdavs	r3!, {r0, r1, r2, r3, r5, r8, r9, ip, sp, lr}^
     e10:	2f6c6f6f 	svccs	0x006c6f6f
     e14:	69727053 	ldmdbvs	r2!, {r0, r1, r4, r6, ip, sp, lr}^
     e18:	3931676e 	ldmdbcc	r1!, {r1, r2, r3, r5, r6, r8, r9, sl, sp, lr}
     e1c:	432f3032 	teqmi	pc, #50	; 0x32
     e20:	30343253 	eorscc	r3, r4, r3, asr r2
     e24:	632f584c 	teqvs	pc, #76, 16	; 0x4c0000
     e28:	30343273 	eorscc	r3, r4, r3, ror r2
     e2c:	322d786c 	eorcc	r7, sp, #108, 16	; 0x6c0000
     e30:	72707330 	rsbsvc	r7, r0, #48, 6	; 0xc0000000
     e34:	62696c2f 	rsbvs	r6, r9, #12032	; 0x2f00
     e38:	692f6970 	stmdbvs	pc!, {r4, r5, r6, r8, fp, sp, lr}	; <UNPREDICTABLE>
     e3c:	756c636e 	strbvc	r6, [ip, #-878]!	; 0x36e
     e40:	00006564 	andeq	r6, r0, r4, ror #10
     e44:	6f626572 	svcvs	0x00626572
     e48:	632e746f 	teqvs	lr, #1862270976	; 0x6f000000
     e4c:	00000100 	andeq	r0, r0, r0, lsl #2
     e50:	2e697072 	mcrcs	0, 3, r7, cr9, cr2, {3}
     e54:	00020068 	andeq	r0, r2, r8, rrx
     e58:	05000000 	streq	r0, [r0, #-0]
     e5c:	00978402 	addseq	r8, r7, r2, lsl #8
     e60:	010d0300 	mrseq	r0, SP_mon
     e64:	852f3114 	strhi	r3, [pc, #-276]!	; d58 <__code_start__-0x72a8>
     e68:	4d4b2f15 	stclmi	15, cr2, [fp, #-84]	; 0xffffffac
     e6c:	5235672f 	eorspl	r6, r5, #12320768	; 0xbc0000
     e70:	00100267 	andseq	r0, r0, r7, ror #4
     e74:	00ac0101 	adceq	r0, ip, r1, lsl #2
     e78:	00020000 	andeq	r0, r2, r0
     e7c:	0000007f 	andeq	r0, r0, pc, ror r0
     e80:	0efb0102 	cdpeq	1, 15, cr0, cr11, cr2, {0}
     e84:	0101000d 	tsteq	r1, sp
     e88:	00000101 	andeq	r0, r0, r1, lsl #2
     e8c:	00000100 	andeq	r0, r0, r0, lsl #2
     e90:	61747301 	cmnvs	r4, r1, lsl #6
     e94:	732d6666 	teqvc	sp, #106954752	; 0x6600000
     e98:	2f006372 	svccs	0x00006372
     e9c:	72657355 	rsbvc	r7, r5, #1409286145	; 0x54000001
     ea0:	72622f73 	rsbvc	r2, r2, #460	; 0x1cc
     ea4:	6a6e6169 	bvs	1b99450 <__bss_end__+0x1b8e798>
     ea8:	442f6e75 	strtmi	r6, [pc], #-3701	; eb0 <__code_start__-0x7150>
     eac:	746b7365 	strbtvc	r7, [fp], #-869	; 0x365
     eb0:	732f706f 	teqvc	pc, #111	; 0x6f
     eb4:	6f6f6863 	svcvs	0x006f6863
     eb8:	70532f6c 	subsvc	r2, r3, ip, ror #30
     ebc:	676e6972 			; <UNDEFINED> instruction: 0x676e6972
     ec0:	30323931 	eorscc	r3, r2, r1, lsr r9
     ec4:	3253432f 	subscc	r4, r3, #-1140850688	; 0xbc000000
     ec8:	584c3034 	stmdapl	ip, {r2, r4, r5, ip, sp}^
     ecc:	3273632f 	rsbscc	r6, r3, #-1140850688	; 0xbc000000
     ed0:	786c3034 	stmdavc	ip!, {r2, r4, r5, ip, sp}^
     ed4:	7330322d 	teqvc	r0, #-805306366	; 0xd0000002
     ed8:	6c2f7270 	sfmvs	f7, 4, [pc], #-448	; d20 <__code_start__-0x72e0>
     edc:	69706269 	ldmdbvs	r0!, {r0, r3, r5, r6, r9, sp, lr}^
     ee0:	636e692f 	cmnvs	lr, #770048	; 0xbc000
     ee4:	6564756c 	strbvs	r7, [r4, #-1388]!	; 0x56c
     ee8:	69740000 	ldmdbvs	r4!, {}^	; <UNPREDICTABLE>
     eec:	2e72656d 	cdpcs	5, 7, cr6, cr2, cr13, {3}
     ef0:	00010063 	andeq	r0, r1, r3, rrx
     ef4:	69707200 	ldmdbvs	r0!, {r9, ip, sp, lr}^
     ef8:	0200682e 	andeq	r6, r0, #3014656	; 0x2e0000
     efc:	00000000 	andeq	r0, r0, r0
     f00:	97f80205 	ldrbls	r0, [r8, r5, lsl #4]!
     f04:	14160000 	ldrne	r0, [r6], #-0
     f08:	02002d2f 	andeq	r2, r0, #3008	; 0xbc0
     f0c:	2e060104 	adfcss	f0, f6, f4
     f10:	2f316d06 	svccs	0x00316d06
     f14:	31324d4b 	teqcc	r2, fp, asr #26
     f18:	2f4c4b30 	svccs	0x004c4b30
     f1c:	842f2f6a 	strthi	r2, [pc], #-3946	; f24 <__code_start__-0x70dc>
     f20:	0008022f 	andeq	r0, r8, pc, lsr #4
     f24:	01480101 	cmpeq	r8, r1, lsl #2
     f28:	00020000 	andeq	r0, r2, r0
     f2c:	00000102 	andeq	r0, r0, r2, lsl #2
     f30:	0efb0102 	cdpeq	1, 15, cr0, cr11, cr2, {0}
     f34:	0101000d 	tsteq	r1, sp
     f38:	00000101 	andeq	r0, r0, r1, lsl #2
     f3c:	00000100 	andeq	r0, r0, r0, lsl #2
     f40:	73752f01 	cmnvc	r5, #1, 30
     f44:	6e692f72 	mcrvs	15, 3, r2, cr9, cr2, {3}
     f48:	64756c63 	ldrbtvs	r6, [r5], #-3171	; 0xc63
     f4c:	656e2f65 	strbvs	r2, [lr, #-3941]!	; 0xf65
     f50:	62696c77 	rsbvs	r6, r9, #30464	; 0x7700
     f54:	7379732f 	cmnvc	r9, #-1140850688	; 0xbc000000
     f58:	73752f00 	cmnvc	r5, #0, 30
     f5c:	696c2f72 	stmdbvs	ip!, {r1, r4, r5, r6, r8, r9, sl, fp, sp}^
     f60:	63672f62 	cmnvs	r7, #392	; 0x188
     f64:	72612f63 	rsbvc	r2, r1, #396	; 0x18c
     f68:	6f6e2d6d 	svcvs	0x006e2d6d
     f6c:	652d656e 	strvs	r6, [sp, #-1390]!	; 0x56e
     f70:	2f696261 	svccs	0x00696261
     f74:	2e332e36 	mrccs	14, 1, r2, cr3, cr6, {1}
     f78:	6e692f31 	mcrvs	15, 3, r2, cr9, cr1, {1}
     f7c:	64756c63 	ldrbtvs	r6, [r5], #-3171	; 0xc63
     f80:	682f0065 	stmdavs	pc!, {r0, r2, r5, r6}	; <UNPREDICTABLE>
     f84:	2f656d6f 	svccs	0x00656d6f
     f88:	6c676e65 	stclvs	14, cr6, [r7], #-404	; 0xfffffe6c
     f8c:	632f7265 	teqvs	pc, #1342177286	; 0x50000006
     f90:	7373616c 	cmnvc	r3, #108, 2
     f94:	3273632f 	rsbscc	r6, r3, #-1140850688	; 0xbc000000
     f98:	786c3034 	stmdavc	ip!, {r2, r4, r5, ip, sp}^
     f9c:	7330322d 	teqvc	r0, #-805306366	; 0xd0000002
     fa0:	2f2f7270 	svccs	0x002f7270
     fa4:	7062696c 	rsbvc	r6, r2, ip, ror #18
     fa8:	682f0069 	stmdavs	pc!, {r0, r3, r5, r6}	; <UNPREDICTABLE>
     fac:	2f656d6f 	svccs	0x00656d6f
     fb0:	6c676e65 	stclvs	14, cr6, [r7], #-404	; 0xfffffe6c
     fb4:	632f7265 	teqvs	pc, #1342177286	; 0x50000006
     fb8:	7373616c 	cmnvc	r3, #108, 2
     fbc:	3273632f 	rsbscc	r6, r3, #-1140850688	; 0xbc000000
     fc0:	786c3034 	stmdavc	ip!, {r2, r4, r5, ip, sp}^
     fc4:	7330322d 	teqvc	r0, #-805306366	; 0xd0000002
     fc8:	2f2f7270 	svccs	0x002f7270
     fcc:	7062696c 	rsbvc	r6, r2, ip, ror #18
     fd0:	74732f69 	ldrbtvc	r2, [r3], #-3945	; 0xf69
     fd4:	2d666661 	stclcs	6, cr6, [r6, #-388]!	; 0xfffffe7c
     fd8:	00637273 	rsbeq	r7, r3, r3, ror r2
     fdc:	72617500 	rsbvc	r7, r1, #0, 10
     fe0:	00632e74 	rsbeq	r2, r3, r4, ror lr
     fe4:	6c000000 	stcvs	0, cr0, [r0], {-0}
     fe8:	2e6b636f 	cdpcs	3, 6, cr6, cr11, cr15, {3}
     fec:	00010068 	andeq	r0, r1, r8, rrx
     ff0:	79745f00 	ldmdbvc	r4!, {r8, r9, sl, fp, ip, lr}^
     ff4:	2e736570 	mrccs	5, 3, r6, cr3, cr0, {3}
     ff8:	00010068 	andeq	r0, r1, r8, rrx
     ffc:	64747300 	ldrbtvs	r7, [r4], #-768	; 0x300
    1000:	2e666564 	cdpcs	5, 6, cr6, cr6, cr4, {3}
    1004:	00020068 	andeq	r0, r2, r8, rrx
    1008:	65657200 	strbvs	r7, [r5, #-512]!	; 0x200
    100c:	682e746e 	stmdavs	lr!, {r1, r2, r3, r5, r6, sl, ip, sp, lr}
    1010:	00000100 	andeq	r0, r0, r0, lsl #2
    1014:	2e697072 	mcrcs	0, 3, r7, cr9, cr2, {3}
    1018:	00030068 	andeq	r0, r3, r8, rrx
    101c:	72617500 	rsbvc	r7, r1, #0, 10
    1020:	00682e74 	rsbeq	r2, r8, r4, ror lr
    1024:	67000004 	strvs	r0, [r0, -r4]
    1028:	2e6f6970 	mcrcs	9, 3, r6, cr15, cr0, {3}
    102c:	00040068 	andeq	r0, r4, r8, rrx
    1030:	05000000 	streq	r0, [r0, #-0]
    1034:	0098cc02 	addseq	ip, r8, r2, lsl #24
    1038:	012c0300 	teqeq	ip, r0, lsl #6
    103c:	9e0c0367 	cdpls	3, 0, cr0, cr12, cr7, {3}
    1040:	35686735 	strbcc	r6, [r8, #-1845]!	; 0x735
    1044:	2e0c0368 	cdpcs	3, 0, cr0, cr12, cr8, {3}
    1048:	69696b85 	stmdbvs	r9!, {r0, r2, r7, r8, r9, fp, sp, lr}^
    104c:	6b660c03 	blvs	1984060 <__bss_end__+0x19793a8>
    1050:	34420867 	strbcc	r0, [r2], #-2151	; 0x867
    1054:	68364b68 	ldmdavs	r6!, {r3, r5, r6, r8, r9, fp, lr}
    1058:	02002f87 	andeq	r2, r0, #540	; 0x21c
    105c:	682f0104 	stmdavs	pc!, {r2, r8}	; <UNPREDICTABLE>
    1060:	4b673067 	blmi	19cd204 <__bss_end__+0x19c254c>
    1064:	01040200 	mrseq	r0, R12_usr
    1068:	6967682f 	stmdbvs	r7!, {r0, r1, r2, r3, r5, fp, sp, lr}^
    106c:	0006022e 	andeq	r0, r6, lr, lsr #4
    1070:	012b0101 	teqeq	fp, r1, lsl #2
    1074:	00020000 	andeq	r0, r2, r0
    1078:	000000f8 	strdeq	r0, [r0], -r8
    107c:	0efb0102 	cdpeq	1, 15, cr0, cr11, cr2, {0}
    1080:	0101000d 	tsteq	r1, sp
    1084:	00000101 	andeq	r0, r0, r1, lsl #2
    1088:	00000100 	andeq	r0, r0, r0, lsl #2
    108c:	73752f01 	cmnvc	r5, #1, 30
    1090:	6e692f72 	mcrvs	15, 3, r2, cr9, cr2, {3}
    1094:	64756c63 	ldrbtvs	r6, [r5], #-3171	; 0xc63
    1098:	656e2f65 	strbvs	r2, [lr, #-3941]!	; 0xf65
    109c:	62696c77 	rsbvs	r6, r9, #30464	; 0x7700
    10a0:	7379732f 	cmnvc	r9, #-1140850688	; 0xbc000000
    10a4:	73752f00 	cmnvc	r5, #0, 30
    10a8:	696c2f72 	stmdbvs	ip!, {r1, r4, r5, r6, r8, r9, sl, fp, sp}^
    10ac:	63672f62 	cmnvs	r7, #392	; 0x188
    10b0:	72612f63 	rsbvc	r2, r1, #396	; 0x18c
    10b4:	6f6e2d6d 	svcvs	0x006e2d6d
    10b8:	652d656e 	strvs	r6, [sp, #-1390]!	; 0x56e
    10bc:	2f696261 	svccs	0x00696261
    10c0:	2e332e36 	mrccs	14, 1, r2, cr3, cr6, {1}
    10c4:	6e692f31 	mcrvs	15, 3, r2, cr9, cr1, {1}
    10c8:	64756c63 	ldrbtvs	r6, [r5], #-3171	; 0xc63
    10cc:	682f0065 	stmdavs	pc!, {r0, r2, r5, r6}	; <UNPREDICTABLE>
    10d0:	2f656d6f 	svccs	0x00656d6f
    10d4:	6c676e65 	stclvs	14, cr6, [r7], #-404	; 0xfffffe6c
    10d8:	632f7265 	teqvs	pc, #1342177286	; 0x50000006
    10dc:	7373616c 	cmnvc	r3, #108, 2
    10e0:	3273632f 	rsbscc	r6, r3, #-1140850688	; 0xbc000000
    10e4:	786c3034 	stmdavc	ip!, {r2, r4, r5, ip, sp}^
    10e8:	7330322d 	teqvc	r0, #-805306366	; 0xd0000002
    10ec:	2f2f7270 	svccs	0x002f7270
    10f0:	7062696c 	rsbvc	r6, r2, ip, ror #18
    10f4:	682f0069 	stmdavs	pc!, {r0, r3, r5, r6}	; <UNPREDICTABLE>
    10f8:	2f656d6f 	svccs	0x00656d6f
    10fc:	6c676e65 	stclvs	14, cr6, [r7], #-404	; 0xfffffe6c
    1100:	632f7265 	teqvs	pc, #1342177286	; 0x50000006
    1104:	7373616c 	cmnvc	r3, #108, 2
    1108:	3273632f 	rsbscc	r6, r3, #-1140850688	; 0xbc000000
    110c:	786c3034 	stmdavc	ip!, {r2, r4, r5, ip, sp}^
    1110:	7330322d 	teqvc	r0, #-805306366	; 0xd0000002
    1114:	2f2f7270 	svccs	0x002f7270
    1118:	7062696c 	rsbvc	r6, r2, ip, ror #18
    111c:	74732f69 	ldrbtvc	r2, [r3], #-3945	; 0xf69
    1120:	2d666661 	stclcs	6, cr6, [r6, #-388]!	; 0xfffffe7c
    1124:	00637273 	rsbeq	r7, r3, r3, ror r2
    1128:	69706700 	ldmdbvs	r0!, {r8, r9, sl, sp, lr}^
    112c:	00632e6f 	rsbeq	r2, r3, pc, ror #28
    1130:	6c000000 	stcvs	0, cr0, [r0], {-0}
    1134:	2e6b636f 	cdpcs	3, 6, cr6, cr11, cr15, {3}
    1138:	00010068 	andeq	r0, r1, r8, rrx
    113c:	79745f00 	ldmdbvc	r4!, {r8, r9, sl, fp, ip, lr}^
    1140:	2e736570 	mrccs	5, 3, r6, cr3, cr0, {3}
    1144:	00010068 	andeq	r0, r1, r8, rrx
    1148:	64747300 	ldrbtvs	r7, [r4], #-768	; 0x300
    114c:	2e666564 	cdpcs	5, 6, cr6, cr6, cr4, {3}
    1150:	00020068 	andeq	r0, r2, r8, rrx
    1154:	65657200 	strbvs	r7, [r5, #-512]!	; 0x200
    1158:	682e746e 	stmdavs	lr!, {r1, r2, r3, r5, r6, sl, ip, sp, lr}
    115c:	00000100 	andeq	r0, r0, r0, lsl #2
    1160:	2e697072 	mcrcs	0, 3, r7, cr9, cr2, {3}
    1164:	00030068 	andeq	r0, r3, r8, rrx
    1168:	69706700 	ldmdbvs	r0!, {r8, r9, sl, sp, lr}^
    116c:	00682e6f 	rsbeq	r2, r8, pc, ror #28
    1170:	00000004 	andeq	r0, r0, r4
    1174:	44020500 	strmi	r0, [r2], #-1280	; 0x500
    1178:	0300009a 	movweq	r0, #154	; 0x9a
    117c:	4c130127 	ldfmis	f0, [r3], {39}	; 0x27
    1180:	68f44f47 	ldmvs	r4!, {r0, r1, r2, r6, r8, r9, sl, fp, lr}^
    1184:	2fa14c4b 	svccs	0x00a14c4b
    1188:	3149136a 	cmpcc	r9, sl, ror #6
    118c:	314913be 	strhcc	r1, [r9, #-62]	; 0xffffffc2
    1190:	2f6a2fbe 	svccs	0x006a2fbe
    1194:	134f484d 	movtne	r4, #63565	; 0xf84d
    1198:	b72f3249 	strlt	r3, [pc, -r9, asr #4]!
    119c:	01000602 	tsteq	r0, r2, lsl #12
    11a0:	00013401 	andeq	r3, r1, r1, lsl #8
    11a4:	df000200 	svcle	0x00000200
    11a8:	02000000 	andeq	r0, r0, #0
    11ac:	0d0efb01 	vstreq	d15, [lr, #-4]
    11b0:	01010100 	mrseq	r0, (UNDEF: 17)
    11b4:	00000001 	andeq	r0, r0, r1
    11b8:	01000001 	tsteq	r0, r1
    11bc:	7273752f 	rsbsvc	r7, r3, #197132288	; 0xbc00000
    11c0:	636e692f 	cmnvs	lr, #770048	; 0xbc000
    11c4:	6564756c 	strbvs	r7, [r4, #-1388]!	; 0x56c
    11c8:	77656e2f 	strbvc	r6, [r5, -pc, lsr #28]!
    11cc:	2f62696c 	svccs	0x0062696c
    11d0:	00737973 	rsbseq	r7, r3, r3, ror r9
    11d4:	7273752f 	rsbsvc	r7, r3, #197132288	; 0xbc00000
    11d8:	62696c2f 	rsbvs	r6, r9, #12032	; 0x2f00
    11dc:	6363672f 	cmnvs	r3, #12320768	; 0xbc0000
    11e0:	6d72612f 	ldfvse	f6, [r2, #-188]!	; 0xffffff44
    11e4:	6e6f6e2d 	cdpvs	14, 6, cr6, cr15, cr13, {1}
    11e8:	61652d65 	cmnvs	r5, r5, ror #26
    11ec:	362f6962 	strtcc	r6, [pc], -r2, ror #18
    11f0:	312e332e 	teqcc	lr, lr, lsr #6
    11f4:	636e692f 	cmnvs	lr, #770048	; 0xbc000
    11f8:	6564756c 	strbvs	r7, [r4, #-1388]!	; 0x56c
    11fc:	6f682f00 	svcvs	0x00682f00
    1200:	652f656d 	strvs	r6, [pc, #-1389]!	; c9b <__code_start__-0x7365>
    1204:	656c676e 	strbvs	r6, [ip, #-1902]!	; 0x76e
    1208:	6c632f72 	stclvs	15, cr2, [r3], #-456	; 0xfffffe38
    120c:	2f737361 	svccs	0x00737361
    1210:	34327363 	ldrtcc	r7, [r2], #-867	; 0x363
    1214:	2d786c30 	ldclcs	12, cr6, [r8, #-192]!	; 0xffffff40
    1218:	70733032 	rsbsvc	r3, r3, r2, lsr r0
    121c:	6c2f2f72 	stcvs	15, cr2, [pc], #-456	; 105c <__code_start__-0x6fa4>
    1220:	69706269 	ldmdbvs	r0!, {r0, r3, r5, r6, r9, sp, lr}^
    1224:	73752f00 	cmnvc	r5, #0, 30
    1228:	6e692f72 	mcrvs	15, 3, r2, cr9, cr2, {3}
    122c:	64756c63 	ldrbtvs	r6, [r5], #-3171	; 0xc63
    1230:	656e2f65 	strbvs	r2, [lr, #-3941]!	; 0xf65
    1234:	62696c77 	rsbvs	r6, r9, #30464	; 0x7700
    1238:	6d6b0000 	stclvs	0, cr0, [fp, #-0]
    123c:	6f6c6c61 	svcvs	0x006c6c61
    1240:	00632e63 	rsbeq	r2, r3, r3, ror #28
    1244:	6c000000 	stcvs	0, cr0, [r0], {-0}
    1248:	2e6b636f 	cdpcs	3, 6, cr6, cr11, cr15, {3}
    124c:	00010068 	andeq	r0, r1, r8, rrx
    1250:	79745f00 	ldmdbvc	r4!, {r8, r9, sl, fp, ip, lr}^
    1254:	2e736570 	mrccs	5, 3, r6, cr3, cr0, {3}
    1258:	00010068 	andeq	r0, r1, r8, rrx
    125c:	64747300 	ldrbtvs	r7, [r4], #-768	; 0x300
    1260:	2e666564 	cdpcs	5, 6, cr6, cr6, cr4, {3}
    1264:	00020068 	andeq	r0, r2, r8, rrx
    1268:	65657200 	strbvs	r7, [r5, #-512]!	; 0x200
    126c:	682e746e 	stmdavs	lr!, {r1, r2, r3, r5, r6, sl, ip, sp, lr}
    1270:	00000100 	andeq	r0, r0, r0, lsl #2
    1274:	2e697072 	mcrcs	0, 3, r7, cr9, cr2, {3}
    1278:	00030068 	andeq	r0, r3, r8, rrx
    127c:	72747300 	rsbsvc	r7, r4, #0, 6
    1280:	2e676e69 	cdpcs	14, 6, cr6, cr7, cr9, {3}
    1284:	00040068 	andeq	r0, r4, r8, rrx
    1288:	05000000 	streq	r0, [r0, #-0]
    128c:	009b6402 	addseq	r6, fp, r2, lsl #8
    1290:	01100300 	tsteq	r0, r0, lsl #6
    1294:	68018301 	stmdavs	r1, {r0, r8, r9, pc}
    1298:	02008314 	andeq	r8, r0, #20, 6	; 0x50000000
    129c:	007f0104 	rsbseq	r0, pc, r4, lsl #2
    12a0:	30010402 	andcc	r0, r1, r2, lsl #8
    12a4:	4b2f5c08 	blmi	bd82cc <__bss_end__+0xbcd614>
    12a8:	684b4b4c 	stmdavs	fp, {r2, r3, r6, r8, r9, fp, lr}^
    12ac:	01040200 	mrseq	r0, R12_usr
    12b0:	034a7903 	movteq	r7, #43267	; 0xa903
    12b4:	2f580809 	svccs	0x00580809
    12b8:	2f4e2e01 	svccs	0x004e2e01
    12bc:	67674b6a 	strbvs	r4, [r7, -sl, ror #22]!
    12c0:	02002f4c 	andeq	r2, r0, #76, 30	; 0x130
    12c4:	76030104 	strvc	r0, [r3], -r4, lsl #2
    12c8:	0402002e 	streq	r0, [r2], #-46	; 0x2e
    12cc:	7a08dc01 	bvc	2382d8 <__bss_end__+0x22d620>
    12d0:	019f012f 	orrseq	r0, pc, pc, lsr #2
    12d4:	01000802 	tsteq	r0, r2, lsl #16
    12d8:	Address 0x00000000000012d8 is out of bounds.


Disassembly of section .debug_str:

00000000 <.debug_str>:
   0:	657a6973 	ldrbvs	r6, [sl, #-2419]!	; 0x973
   4:	4700745f 	smlsdmi	r0, pc, r4, r7	; <UNPREDICTABLE>
   8:	4320554e 	teqmi	r0, #327155712	; 0x13800000
   c:	382e3420 	stmdacc	lr!, {r5, sl, ip, sp}
  10:	2d20332e 	stccs	3, cr3, [r0, #-184]!	; 0xffffff48
  14:	7570636d 	ldrbvc	r6, [r0, #-877]!	; 0x36d
  18:	6d72613d 	ldfvse	f6, [r2, #-244]!	; 0xffffff0c
  1c:	36373131 			; <UNDEFINED> instruction: 0x36373131
  20:	2d667a6a 	vstmdbcs	r6!, {s15-s120}
  24:	6d2d2073 	stcvs	0, cr2, [sp, #-460]!	; 0xfffffe34
  28:	656e7574 	strbvs	r7, [lr, #-1396]!	; 0x574
  2c:	6d72613d 	ldfvse	f6, [r2, #-244]!	; 0xffffff0c
  30:	36373131 			; <UNDEFINED> instruction: 0x36373131
  34:	2d667a6a 	vstmdbcs	r6!, {s15-s120}
  38:	672d2073 			; <UNDEFINED> instruction: 0x672d2073
  3c:	20626467 	rsbcs	r6, r2, r7, ror #8
  40:	20674f2d 	rsbcs	r4, r7, sp, lsr #30
  44:	6474732d 	ldrbtvs	r7, [r4], #-813	; 0x32d
  48:	756e673d 	strbvc	r6, [lr, #-1853]!	; 0x73d
  4c:	2d203939 	stccs	9, cr3, [r0, #-228]!	; 0xffffff1c
  50:	65726666 	ldrbvs	r6, [r2, #-1638]!	; 0x666
  54:	61747365 	cmnvs	r4, r5, ror #6
  58:	6e69646e 	cdpvs	4, 6, cr6, cr9, cr14, {3}
  5c:	6b630067 	blvs	18c0200 <__bss_end__+0x18b5548>
  60:	6f6c6c61 	svcvs	0x006c6c61
  64:	552f0063 	strpl	r0, [pc, #-99]!	; 9 <__code_start__-0x7ff7>
  68:	73726573 	cmnvc	r2, #482344960	; 0x1cc00000
  6c:	6972622f 	ldmdbvs	r2!, {r0, r1, r2, r3, r5, r9, sp, lr}^
  70:	756a6e61 	strbvc	r6, [sl, #-3681]!	; 0xe61
  74:	65442f6e 	strbvs	r2, [r4, #-3950]	; 0xf6e
  78:	6f746b73 	svcvs	0x00746b73
  7c:	63732f70 	cmnvs	r3, #112, 30	; 0x1c0
  80:	6c6f6f68 	stclvs	15, cr6, [pc], #-416	; fffffee8 <__bss_end__+0xffff5230>
  84:	7270532f 	rsbsvc	r5, r0, #-1140850688	; 0xbc000000
  88:	31676e69 	cmncc	r7, r9, ror #28
  8c:	2f303239 	svccs	0x00303239
  90:	34325343 	ldrtcc	r5, [r2], #-835	; 0x343
  94:	2f584c30 	svccs	0x00584c30
  98:	34327363 	ldrtcc	r7, [r2], #-867	; 0x363
  9c:	2d786c30 	ldclcs	12, cr6, [r8, #-192]!	; 0xffffff40
  a0:	70733032 	rsbsvc	r3, r3, r2, lsr r0
  a4:	616c2f72 	smcvs	49906	; 0xc2f2
  a8:	312f7362 	teqcc	pc, r2, ror #6
  ac:	63672d31 	cmnvs	r7, #3136	; 0xc40
  b0:	646f632f 	strbtvs	r6, [pc], #-815	; b8 <__code_start__-0x7f48>
  b4:	6b630065 	blvs	18c0250 <__bss_end__+0x18b5598>
  b8:	6e69665f 	mcrvs	6, 3, r6, cr9, cr15, {2}
  bc:	656c5f64 	strbvs	r5, [ip, #-3940]!	; 0xf64
  c0:	00736b61 	rsbseq	r6, r3, r1, ror #22
  c4:	6d746f6e 	ldclvs	15, cr6, [r4, #-440]!	; 0xfffffe48
  c8:	006e6961 	rsbeq	r6, lr, r1, ror #18
  cc:	685f6b63 	ldmdavs	pc, {r0, r1, r5, r6, r8, r9, fp, sp, lr}^	; <UNPREDICTABLE>
  d0:	5f706165 	svcpl	0x00706165
  d4:	6f727265 	svcvs	0x00727265
  d8:	74007372 	strvc	r7, [r0], #-882	; 0x372
  dc:	73747365 	cmnvc	r4, #-1811939327	; 0x94000001
  e0:	7261702f 	rsbvc	r7, r1, #47	; 0x2f
  e4:	742d3274 	strtvc	r3, [sp], #-628	; 0x274
  e8:	36747365 	ldrbtcc	r7, [r4], -r5, ror #6
  ec:	6300632e 	movwvs	r6, #814	; 0x32e
  f0:	6e61656c 	cdpvs	5, 6, cr6, cr1, cr12, {3}
  f4:	6265725f 	rsbvs	r7, r5, #-268435451	; 0xf0000005
  f8:	00746f6f 	rsbseq	r6, r4, pc, ror #30
  fc:	726f6873 	rsbvc	r6, pc, #7536640	; 0x730000
 100:	6e752074 	mrcvs	0, 3, r2, cr5, cr4, {3}
 104:	6e676973 	mcrvs	9, 3, r6, cr7, cr3, {3}
 108:	69206465 	stmdbvs	r0!, {r0, r2, r5, r6, sl, sp, lr}
 10c:	6b00746e 	blvs	1d2cc <__bss_end__+0x12614>
 110:	6c6c616d 	stfvse	f6, [ip], #-436	; 0xfffffe4c
 114:	7200636f 	andvc	r6, r0, #-1140850687	; 0xbc000001
 118:	725f6970 	subsvc	r6, pc, #112, 18	; 0x1c0000
 11c:	74657365 	strbtvc	r7, [r5], #-869	; 0x365
 120:	7475705f 	ldrbtvc	r7, [r5], #-95	; 0x5f
 124:	6e750063 	cdpvs	0, 7, cr0, cr5, cr3, {3}
 128:	6e676973 	mcrvs	9, 3, r6, cr7, cr3, {3}
 12c:	63206465 	teqvs	r0, #1694498816	; 0x65000000
 130:	00726168 	rsbseq	r6, r2, r8, ror #2
 134:	736d656d 	cmnvc	sp, #457179136	; 0x1b400000
 138:	5f007465 	svcpl	0x00007465
 13c:	4e55465f 	mrcmi	6, 2, r4, cr5, cr15, {2}
 140:	4f495443 	svcmi	0x00495443
 144:	005f5f4e 	subseq	r5, pc, lr, asr #30
 148:	695f6b63 	ldmdbvs	pc, {r0, r1, r5, r6, r8, r9, fp, sp, lr}^	; <UNPREDICTABLE>
 14c:	0074696e 	rsbseq	r6, r4, lr, ror #18
 150:	676e6f6c 	strbvs	r6, [lr, -ip, ror #30]!
 154:	6e6f6c20 	cdpvs	12, 6, cr6, cr15, cr0, {1}
 158:	6e752067 	cdpvs	0, 7, cr2, cr5, cr7, {3}
 15c:	6e676973 	mcrvs	9, 3, r6, cr7, cr3, {3}
 160:	69206465 	stmdbvs	r0!, {r0, r2, r5, r6, sl, sp, lr}
 164:	7300746e 	movwvc	r7, #1134	; 0x46e
 168:	74657a69 	strbtvc	r7, [r5], #-2665	; 0xa69
 16c:	00657079 	rsbeq	r7, r5, r9, ror r0
 170:	676e6f6c 	strbvs	r6, [lr, -ip, ror #30]!
 174:	6e6f6c20 	cdpvs	12, 6, cr6, cr15, cr0, {1}
 178:	6e692067 	cdpvs	0, 6, cr2, cr9, cr7, {3}
 17c:	68730074 	ldmdavs	r3!, {r2, r4, r5, r6}^
 180:	2074726f 	rsbscs	r7, r4, pc, ror #4
 184:	00746e69 	rsbseq	r6, r4, r9, ror #28
 188:	746e6975 	strbtvc	r6, [lr], #-2421	; 0x975
 18c:	745f3233 	ldrbvc	r3, [pc], #-563	; 194 <__code_start__-0x7e6c>
 190:	616d6b00 	cmnvs	sp, r0, lsl #22
 194:	636f6c6c 	cmnvs	pc, #108, 24	; 0x6c00
 198:	696e695f 	stmdbvs	lr!, {r0, r1, r2, r3, r4, r6, r8, fp, sp, lr}^
 19c:	65735f74 	ldrbvs	r5, [r3, #-3956]!	; 0xf74
 1a0:	74735f74 	ldrbtvc	r5, [r3], #-3956	; 0xf74
 1a4:	00747261 	rsbseq	r7, r4, r1, ror #4
 1a8:	74736574 	ldrbtvc	r6, [r3], #-1396	; 0x574
 1ac:	626e0031 	rsbvs	r0, lr, #49	; 0x31
 1b0:	73657479 	cmnvc	r5, #2030043136	; 0x79000000
 1b4:	6572665f 	ldrbvs	r6, [r2, #-1631]!	; 0x65f
 1b8:	63006465 	movwvs	r6, #1125	; 0x465
 1bc:	69665f6b 	stmdbvs	r6!, {r0, r1, r3, r5, r6, r8, r9, sl, fp, ip, lr}^
 1c0:	5f747372 	svcpl	0x00747372
 1c4:	00726468 	rsbseq	r6, r2, r8, ror #8
 1c8:	76657270 			; <UNDEFINED> instruction: 0x76657270
 1cc:	646c6f00 	strbtvs	r6, [ip], #-3840	; 0xf00
 1d0:	72616d5f 	rsbvc	r6, r1, #6080	; 0x17c0
 1d4:	5f68006b 	svcpl	0x0068006b
 1d8:	72646461 	rsbvc	r6, r4, #1627389952	; 0x61000000
 1dc:	73616600 	cmnvc	r1, #0, 12
 1e0:	61685f74 	smcvs	34292	; 0x85f4
 1e4:	62006873 	andvs	r6, r0, #7536640	; 0x730000
 1e8:	317a725f 	cmncc	sl, pc, asr r2
 1ec:	7274705f 	rsbsvc	r7, r4, #95	; 0x5f
 1f0:	45524600 	ldrbmi	r4, [r2, #-1536]	; 0x600
 1f4:	41004445 	tstmi	r0, r5, asr #8
 1f8:	434f4c4c 	movtmi	r4, #64588	; 0xfc4c
 1fc:	62004445 	andvs	r4, r0, #1157627904	; 0x45000000
 200:	6464615f 	strbtvs	r6, [r4], #-351	; 0x15f
 204:	6f745f72 	svcvs	0x00745f72
 208:	7264685f 	rsbvc	r6, r4, #6225920	; 0x5f0000
 20c:	5f796d00 	svcpl	0x00796d00
 210:	6f666e69 	svcvs	0x00666e69
 214:	6e697500 	cdpvs	5, 6, cr7, cr9, cr0, {0}
 218:	5f363174 	svcpl	0x00363174
 21c:	564f0074 			; <UNDEFINED> instruction: 0x564f0074
 220:	45485245 	strbmi	r5, [r8, #-581]	; 0x245
 224:	4e5f4441 	cdpmi	4, 5, cr4, cr15, cr1, {2}
 228:	45545942 	ldrbmi	r5, [r4, #-2370]	; 0x942
 22c:	4c410053 	mcrrmi	0, 5, r0, r1, cr3
 230:	5f434f4c 	svcpl	0x00434f4c
 234:	5346464f 	movtpl	r4, #26191	; 0x664f
 238:	63005445 	movwvs	r5, #1093	; 0x445
 23c:	5f727275 	svcpl	0x00727275
 240:	00726468 	rsbseq	r6, r2, r8, ror #8
 244:	6f745f62 	svcvs	0x00745f62
 248:	5f6c6174 	svcpl	0x006c6174
 24c:	65747962 	ldrbvs	r7, [r4, #-2402]!	; 0x962
 250:	68630073 	stmdavs	r3!, {r0, r1, r4, r5, r6}^
 254:	5f6b6365 	svcpl	0x006b6365
 258:	00727470 	rsbseq	r7, r2, r0, ror r4
 25c:	6c616b63 	stclvs	11, cr6, [r1], #-396	; 0xfffffe74
 260:	2e636f6c 	cdpcs	15, 6, cr6, cr3, cr12, {3}
 264:	6b630063 	blvs	18c03f8 <__bss_end__+0x18b5740>
 268:	65657266 	strbvs	r7, [r5, #-614]!	; 0x266
 26c:	5f6b6300 	svcpl	0x006b6300
 270:	7478656e 	ldrbtvc	r6, [r8], #-1390	; 0x56e
 274:	7264685f 	rsbvc	r6, r4, #6225920	; 0x5f0000
 278:	6c6c6100 	stfvse	f6, [ip], #-0
 27c:	6c5f636f 	mrrcvs	3, 6, r6, pc, cr15	; <UNPREDICTABLE>
 280:	6800636f 	stmdavs	r0, {r0, r1, r2, r3, r5, r6, r8, r9, sp, lr}
 284:	635f7264 	cmpvs	pc, #100, 4	; 0x40000006
 288:	6d75736b 	ldclvs	3, cr7, [r5, #-428]!	; 0xfffffe54
 28c:	44455200 	strbmi	r5, [r5], #-512	; 0x200
 290:	454e4f5a 	strbmi	r4, [lr, #-3930]	; 0xf5a
 294:	646c6f00 	strbtvs	r6, [ip], #-3840	; 0xf00
 298:	736b635f 	cmnvc	fp, #2080374785	; 0x7c000001
 29c:	6e006d75 	mcrvs	13, 0, r6, cr0, cr5, {3}
 2a0:	65747962 	ldrbvs	r7, [r4, #-2402]!	; 0x962
 2a4:	6c615f73 	stclvs	15, cr5, [r1], #-460	; 0xfffffe34
 2a8:	00636f6c 	rsbeq	r6, r3, ip, ror #30
 2ac:	65657266 	strbvs	r7, [r5, #-614]!	; 0x266
 2b0:	636f6c5f 	cmnvs	pc, #24320	; 0x5f00
 2b4:	615f6200 	cmpvs	pc, r0, lsl #4
 2b8:	636f6c6c 	cmnvs	pc, #108, 24	; 0x6c00
 2bc:	7274705f 	rsbsvc	r7, r4, #95	; 0x5f
 2c0:	61656800 	cmnvs	r5, r0, lsl #16
 2c4:	6e695f70 	mcrvs	15, 3, r5, cr9, cr0, {3}
 2c8:	73006f66 	movwvc	r6, #3942	; 0xf66
 2cc:	6c5f6372 	mrrcvs	3, 7, r6, pc, cr2	; <UNPREDICTABLE>
 2d0:	745f636f 	ldrbvc	r6, [pc], #-879	; 2d8 <__code_start__-0x7d28>
 2d4:	65686300 	strbvs	r6, [r8, #-768]!	; 0x300
 2d8:	685f6b63 	ldmdavs	pc, {r0, r1, r5, r6, r8, r9, fp, sp, lr}^	; <UNPREDICTABLE>
 2dc:	62007264 	andvs	r7, r0, #100, 4	; 0x40000006
 2e0:	327a725f 	rsbscc	r7, sl, #-268435451	; 0xf0000005
 2e4:	7274705f 	rsbsvc	r7, r4, #95	; 0x5f
 2e8:	72656e00 	rsbvc	r6, r5, #0, 28
 2ec:	73726f72 	cmnvc	r2, #456	; 0x1c8
 2f0:	72646800 	rsbvc	r6, r4, #0, 16
 2f4:	6972705f 	ldmdbvs	r2!, {r0, r1, r2, r3, r4, r6, ip, sp, lr}^
 2f8:	6e00746e 	cdpvs	4, 0, cr7, cr0, cr14, {3}
 2fc:	736b6c62 	cmnvc	fp, #25088	; 0x6200
 300:	4e455300 	cdpmi	3, 4, cr5, cr5, cr0, {0}
 304:	414e4954 	cmpmi	lr, r4, asr r9
 308:	616d004c 	cmnvs	sp, ip, asr #32
 30c:	6d5f6b72 	vldrvs	d22, [pc, #-456]	; 14c <__code_start__-0x7eb4>
 310:	6f006d65 	svcvs	0x00006d65
 314:	725f646c 	subsvc	r6, pc, #108, 8	; 0x6c000000
 318:	5f736665 	svcpl	0x00736665
 31c:	6464696d 	strbtvs	r6, [r4], #-2413	; 0x96d
 320:	6e00656c 	cfsh32vs	mvfx6, mvfx0, #60
 324:	65747962 	ldrbvs	r7, [r4, #-2402]!	; 0x962
 328:	6c615f73 	stclvs	15, cr5, [r1], #-460	; 0xfffffe34
 32c:	65636f6c 	strbvs	r6, [r3, #-3948]!	; 0xf6c
 330:	68630064 	stmdavs	r3!, {r2, r5, r6}^
 334:	5f6b6365 	svcpl	0x006b6365
 338:	636f6c62 	cmnvs	pc, #25088	; 0x6200
 33c:	696c006b 	stmdbvs	ip!, {r0, r1, r3, r5, r6}^
 340:	6f6e656e 	svcvs	0x006e656e
 344:	725f6200 	subsvc	r6, pc, #0, 4
 348:	6e5f327a 	mrcvs	2, 2, r3, cr15, cr10, {3}
 34c:	65747962 	ldrbvs	r7, [r4, #-2402]!	; 0x962
 350:	64680073 	strbtvs	r0, [r8], #-115	; 0x73
 354:	6b635f72 	blvs	18d8124 <__bss_end__+0x18cd46c>
 358:	5f6d7573 	svcpl	0x006d7573
 35c:	006c6176 	rsbeq	r6, ip, r6, ror r1
 360:	746e6975 	strbtvc	r6, [lr], #-2421	; 0x975
 364:	00745f38 	rsbseq	r5, r4, r8, lsr pc
 368:	5f726468 	svcpl	0x00726468
 36c:	6c6f0074 	stclvs	0, cr0, [pc], #-464	; 1a4 <__code_start__-0x7e5c>
 370:	65725f64 	ldrbvs	r5, [r2, #-3940]!	; 0xf64
 374:	735f7366 	cmpvc	pc, #-1744830463	; 0x98000001
 378:	74726174 	ldrbtvc	r6, [r2], #-372	; 0x174
 37c:	79626e00 	stmdbvc	r2!, {r9, sl, fp, sp, lr}^
 380:	5f736574 	svcpl	0x00736574
 384:	006d6572 	rsbeq	r6, sp, r2, ror r5
 388:	7466656c 	strbtvc	r6, [r6], #-1388	; 0x56c
 38c:	65686300 	strbvs	r6, [r8, #-768]!	; 0x300
 390:	6d5f6b63 	vldrvs	d22, [pc, #-396]	; 20c <__code_start__-0x7df4>
 394:	68006d65 	stmdavs	r0, {r0, r2, r5, r6, r8, sl, fp, sp, lr}
 398:	65646165 	strbvs	r6, [r4, #-357]!	; 0x165
 39c:	74730072 	ldrbtvc	r0, [r3], #-114	; 0x72
 3a0:	5f6b6361 	svcpl	0x006b6361
 3a4:	00706f74 	rsbseq	r6, r0, r4, ror pc
 3a8:	6e726177 	mrcvs	1, 3, r6, cr2, cr7, {3}
 3ac:	5f6f6e5f 	svcpl	0x006f6e5f
 3b0:	72617473 	rsbvc	r7, r1, #1929379840	; 0x73000000
 3b4:	65725f74 	ldrbvs	r5, [r2, #-3956]!	; 0xf74
 3b8:	00705f66 	rsbseq	r5, r0, r6, ror #30
 3bc:	6c706d69 	ldclvs	13, cr6, [r0], #-420	; 0xfffffe5c
 3c0:	6e656d65 	cdpvs	13, 6, cr6, cr5, cr5, {3}
 3c4:	68745f74 	ldmdavs	r4!, {r2, r4, r5, r6, r8, r9, sl, fp, ip, lr}^
 3c8:	63007369 	movwvs	r7, #873	; 0x369
 3cc:	6b636568 	blvs	18d9974 <__bss_end__+0x18cecbc>
 3d0:	5f6f6e5f 	svcpl	0x006f6e5f
 3d4:	6b61656c 	blvs	185998c <__bss_end__+0x184ecd4>
 3d8:	656c6e00 	strbvs	r6, [ip, #-3584]!	; 0xe00
 3dc:	00736b61 	rsbseq	r6, r3, r1, ror #22
 3e0:	65657773 	strbvs	r7, [r5, #-1907]!	; 0x773
 3e4:	72665f70 	rsbvc	r5, r6, #112, 30	; 0x1c0
 3e8:	6d006565 	cfstr32vs	mvfx6, [r0, #-404]	; 0xfffffe6c
 3ec:	65627961 	strbvs	r7, [r2, #-2401]!	; 0x961
 3f0:	7272655f 	rsbsvc	r6, r2, #398458880	; 0x17c00000
 3f4:	0073726f 	rsbseq	r7, r3, pc, ror #4
 3f8:	675f6b63 	ldrbvs	r6, [pc, -r3, ror #22]
 3fc:	5f5f0063 	svcpl	0x005f0063
 400:	5f737362 	svcpl	0x00737362
 404:	72617473 	rsbvc	r7, r1, #1929379840	; 0x73000000
 408:	005f5f74 	subseq	r5, pc, r4, ror pc	; <UNPREDICTABLE>
 40c:	73625f5f 	cmnvc	r2, #380	; 0x17c
 410:	6e655f73 	mcrvs	15, 3, r5, cr5, cr3, {3}
 414:	005f5f64 	subseq	r5, pc, r4, ror #30
 418:	65657773 	strbvs	r7, [r5, #-1907]!	; 0x773
 41c:	656c5f70 	strbvs	r5, [ip, #-3952]!	; 0xf70
 420:	69006b61 	stmdbvs	r0, {r0, r5, r6, r8, r9, fp, sp, lr}
 424:	65685f6e 	strbvs	r5, [r8, #-3950]!	; 0xf6e
 428:	63007061 	movwvs	r7, #97	; 0x61
 42c:	00727275 	rsbseq	r7, r2, r5, ror r2
 430:	63656863 	cmnvs	r5, #6488064	; 0x630000
 434:	68735f6b 	ldmdavs	r3!, {r0, r1, r3, r5, r6, r8, r9, sl, fp, ip, lr}^
 438:	646c756f 	strbtvs	r7, [ip], #-1391	; 0x56f
 43c:	61656c5f 	cmnvs	r5, pc, asr ip
 440:	5f5f006b 	svcpl	0x005f006b
 444:	61746164 	cmnvs	r4, r4, ror #2
 448:	6174735f 	cmnvs	r4, pc, asr r3
 44c:	5f5f7472 	svcpl	0x005f7472
 450:	6d756400 	cfldrdvs	mvd6, [r5, #-0]
 454:	65725f70 	ldrbvs	r5, [r2, #-3952]!	; 0xf70
 458:	6e007367 	cdpvs	3, 0, cr7, cr0, cr7, {3}
 45c:	65657266 	strbvs	r7, [r5, #-614]!	; 0x266
 460:	6b630064 	blvs	18c05f8 <__bss_end__+0x18b5940>
 464:	2e63672d 	cdpcs	7, 6, cr6, cr3, cr13, {1}
 468:	5f5f0063 	svcpl	0x005f0063
 46c:	61746164 	cmnvs	r4, r4, ror #2
 470:	646e655f 	strbtvs	r6, [lr], #-1375	; 0x55f
 474:	6d005f5f 	stcvs	15, cr5, [r0, #-380]	; 0xfffffe84
 478:	5f6b7261 	svcpl	0x006b7261
 47c:	006c6c61 	rsbeq	r6, ip, r1, ror #24
 480:	705f7369 	subsvc	r7, pc, r9, ror #6
 484:	6e007274 	mcrvs	2, 0, r7, cr0, cr4, {3}
 488:	636f6c62 	cmnvs	pc, #25088	; 0x6200
 48c:	6c00736b 	stcvs	3, cr7, [r0], {107}	; 0x6b
 490:	2f636269 	svccs	0x00636269
 494:	68736168 	ldmdavs	r3!, {r3, r5, r6, r8, sp, lr}^
 498:	2f00632e 	svccs	0x0000632e
 49c:	72657355 	rsbvc	r7, r5, #1409286145	; 0x54000001
 4a0:	72622f73 	rsbvc	r2, r2, #460	; 0x1cc
 4a4:	6a6e6169 	bvs	1b98a50 <__bss_end__+0x1b8dd98>
 4a8:	442f6e75 	strtmi	r6, [pc], #-3701	; 4b0 <__code_start__-0x7b50>
 4ac:	746b7365 	strbtvc	r7, [fp], #-869	; 0x365
 4b0:	732f706f 	teqvc	pc, #111	; 0x6f
 4b4:	6f6f6863 	svcvs	0x006f6863
 4b8:	70532f6c 	subsvc	r2, r3, ip, ror #30
 4bc:	676e6972 			; <UNDEFINED> instruction: 0x676e6972
 4c0:	30323931 	eorscc	r3, r2, r1, lsr r9
 4c4:	3253432f 	subscc	r4, r3, #-1140850688	; 0xbc000000
 4c8:	584c3034 	stmdapl	ip, {r2, r4, r5, ip, sp}^
 4cc:	3273632f 	rsbscc	r6, r3, #-1140850688	; 0xbc000000
 4d0:	786c3034 	stmdavc	ip!, {r2, r4, r5, ip, sp}^
 4d4:	7330322d 	teqvc	r0, #-805306366	; 0xd0000002
 4d8:	6c2f7270 	sfmvs	f7, 4, [pc], #-448	; 320 <__code_start__-0x7ce0>
 4dc:	69706269 	ldmdbvs	r0!, {r0, r3, r5, r6, r9, sp, lr}^
 4e0:	62696c00 	rsbvs	r6, r9, #0, 24
 4e4:	656d2f63 	strbvs	r2, [sp, #-3939]!	; 0xf63
 4e8:	7465736d 	strbtvc	r7, [r5], #-877	; 0x36d
 4ec:	5f00632e 	svcpl	0x0000632e
 4f0:	756e675f 	strbvc	r6, [lr, #-1887]!	; 0x75f
 4f4:	61765f63 	cmnvs	r6, r3, ror #30
 4f8:	73696c5f 	cmnvc	r9, #24320	; 0x5f00
 4fc:	696c0074 	stmdbvs	ip!, {r2, r4, r5, r6}^
 500:	702f6362 	eorvc	r6, pc, r2, ror #6
 504:	746e6972 	strbtvc	r6, [lr], #-2418	; 0x972
 508:	00632e6b 	rsbeq	r2, r3, fp, ror #28
 50c:	705f6176 	subsvc	r6, pc, r6, ror r1	; <UNPREDICTABLE>
 510:	746e6972 	strbtvc	r6, [lr], #-2418	; 0x972
 514:	5f5f006b 	svcpl	0x005f006b
 518:	6c5f6176 	ldfvse	f6, [pc], {118}	; 0x76
 51c:	00747369 	rsbseq	r7, r4, r9, ror #6
 520:	70615f5f 	rsbvc	r5, r1, pc, asr pc
 524:	72617500 	rsbvc	r7, r1, #0, 10
 528:	75705f74 	ldrbvc	r5, [r0, #-3956]!	; 0xf74
 52c:	69006374 	stmdbvs	r0, {r2, r4, r5, r6, r8, r9, sp, lr}
 530:	7265746e 	rsbvc	r7, r5, #1845493760	; 0x6e000000
 534:	5f6c616e 	svcpl	0x006c616e
 538:	63747570 	cmnvs	r4, #112, 10	; 0x1c000000
 53c:	00726168 	rsbseq	r6, r2, r8, ror #2
 540:	5f697072 	svcpl	0x00697072
 544:	63747570 	cmnvs	r4, #112, 10	; 0x1c000000
 548:	00726168 	rsbseq	r6, r2, r8, ror #2
 54c:	6362696c 	cmnvs	r2, #108, 18	; 0x1b0000
 550:	7475702f 	ldrbtvc	r7, [r5], #-47	; 0x2f
 554:	72616863 	rsbvc	r6, r1, #6488064	; 0x630000
 558:	7200632e 	andvc	r6, r0, #-1207959552	; 0xb8000000
 55c:	735f6970 	cmpvc	pc, #112, 18	; 0x1c0000
 560:	705f7465 	subsvc	r7, pc, r5, ror #8
 564:	00637475 	rsbeq	r7, r3, r5, ror r4
 568:	6362696c 	cmnvs	r2, #108, 18	; 0x1b0000
 56c:	7475702f 	ldrbtvc	r7, [r5], #-47	; 0x2f
 570:	00632e6b 	rsbeq	r2, r3, fp, ror #28
 574:	65746e69 	ldrbvs	r6, [r4, #-3689]!	; 0xe69
 578:	6c616e72 	stclvs	14, cr6, [r1], #-456	; 0xfffffe38
 57c:	7475705f 	ldrbtvc	r7, [r5], #-95	; 0x5f
 580:	656e006b 	strbvs	r0, [lr, #-107]!	; 0x6b
 584:	00705f67 	rsbseq	r5, r0, r7, ror #30
 588:	65766572 	ldrbvs	r6, [r6, #-1394]!	; 0x572
 58c:	00657372 	rsbeq	r7, r5, r2, ror r3
 590:	69647369 	stmdbvs	r4!, {r0, r3, r5, r6, r8, r9, ip, sp, lr}^
 594:	00746967 	rsbseq	r6, r4, r7, ror #18
 598:	73747570 	cmnvc	r4, #112, 10	; 0x1c000000
 59c:	0070665f 	rsbseq	r6, r0, pc, asr r6
 5a0:	6e676973 	mcrvs	9, 3, r6, cr7, cr3, {3}
 5a4:	705f6465 	subsvc	r6, pc, r5, ror #8
 5a8:	62696c00 	rsbvs	r6, r9, #0, 24
 5ac:	61762f63 	cmnvs	r6, r3, ror #30
 5b0:	6972702d 	ldmdbvs	r2!, {r0, r2, r3, r5, ip, sp, lr}^
 5b4:	2e6b746e 	cdpcs	4, 6, cr7, cr11, cr14, {3}
 5b8:	70720063 	rsbsvc	r0, r2, r3, rrx
 5bc:	65735f69 	ldrbvs	r5, [r3, #-3945]!	; 0xf69
 5c0:	756f5f74 	strbvc	r5, [pc, #-3956]!	; fffff654 <__bss_end__+0xffff499c>
 5c4:	74757074 	ldrbtvc	r7, [r5], #-116	; 0x74
 5c8:	64697700 	strbtvs	r7, [r9], #-1792	; 0x700
 5cc:	70006874 	andvc	r6, r0, r4, ror r8
 5d0:	5f637475 	svcpl	0x00637475
 5d4:	65007066 	strvs	r7, [r0, #-102]	; 0x66
 5d8:	0074696d 	rsbseq	r6, r4, sp, ror #18
 5dc:	66617473 			; <UNDEFINED> instruction: 0x66617473
 5e0:	72732d66 	rsbsvc	r2, r3, #6528	; 0x1980
 5e4:	6c632f63 	stclvs	15, cr2, [r3], #-396	; 0xfffffe74
 5e8:	2d6e6165 	stfcse	f6, [lr, #-404]!	; 0xfffffe6c
 5ec:	6f626572 	svcvs	0x00626572
 5f0:	632e746f 	teqvs	lr, #1862270976	; 0x6f000000
 5f4:	69707200 	ldmdbvs	r0!, {r9, ip, sp, lr}^
 5f8:	6265725f 	rsbvs	r7, r5, #-268435451	; 0xf0000005
 5fc:	00746f6f 	rsbseq	r6, r4, pc, ror #30
 600:	616c6564 	cmnvs	ip, r4, ror #10
 604:	736d5f79 	cmnvc	sp, #484	; 0x1e4
 608:	73736200 	cmnvc	r3, #0, 4
 60c:	646e655f 	strbtvs	r6, [lr], #-1375	; 0x55f
 610:	73635f00 	cmnvc	r3, #0, 30
 614:	74726174 	ldrbtvc	r6, [r2], #-372	; 0x174
 618:	61747300 	cmnvs	r4, r0, lsl #6
 61c:	732d6666 	teqvc	sp, #106954752	; 0x6600000
 620:	632f6372 	teqvs	pc, #-939524095	; 0xc8000001
 624:	72617473 	rsbvc	r7, r1, #1929379840	; 0x73000000
 628:	00632e74 	rsbeq	r2, r3, r4, ror lr
 62c:	755f7461 	ldrbvc	r7, [pc, #-1121]	; 1d3 <__code_start__-0x7e2d>
 630:	5f726573 	svcpl	0x00726573
 634:	6576656c 	ldrbvs	r6, [r6, #-1388]!	; 0x56c
 638:	7473006c 	ldrbtvc	r0, [r3], #-108	; 0x6c
 63c:	2d666661 	stclcs	6, cr6, [r6, #-388]!	; 0xfffffe7c
 640:	2f637273 	svccs	0x00637273
 644:	6f626572 	svcvs	0x00626572
 648:	632e746f 	teqvs	lr, #1862270976	; 0x6f000000
 64c:	5f4d5000 	svcpl	0x004d5000
 650:	43545352 	cmpmi	r4, #1207959553	; 0x48000001
 654:	4352575f 	cmpmi	r2, #24903680	; 0x17c0000
 658:	465f4746 	ldrbmi	r4, [pc], -r6, asr #14
 65c:	5f4c4c55 	svcpl	0x004c4c55
 660:	45534552 	ldrbmi	r4, [r3, #-1362]	; 0x552
 664:	4d500054 	ldclmi	0, cr0, [r0, #-336]	; 0xfffffeb0
 668:	4f44575f 	svcmi	0x0044575f
 66c:	65730047 	ldrbvs	r0, [r3, #-71]!	; 0x47
 670:	73755f74 	cmnvc	r5, #116, 30	; 0x1d0
 674:	6c5f7265 	lfmvs	f7, 2, [pc], {101}	; 0x65
 678:	6c657665 	stclvs	6, cr7, [r5], #-404	; 0xfffffe6c
 67c:	54555000 	ldrbpl	r5, [r5], #-0
 680:	50003233 	andpl	r3, r0, r3, lsr r2
 684:	41505f4d 	cmpmi	r0, sp, asr #30
 688:	4f575353 	svcmi	0x00575353
 68c:	50004452 	andpl	r4, r0, r2, asr r4
 690:	53525f4d 	cmppl	r2, #308	; 0x134
 694:	63004354 	movwvs	r4, #852	; 0x354
 698:	00727370 	rsbseq	r7, r2, r0, ror r3
 69c:	656d6974 	strbvs	r6, [sp, #-2420]!	; 0x974
 6a0:	65675f72 	strbvs	r5, [r7, #-3954]!	; 0xf72
 6a4:	73755f74 	cmnvc	r5, #116, 30	; 0x1d0
 6a8:	725f6365 	subsvc	r6, pc, #-1811939327	; 0x94000001
 6ac:	64007761 	strvs	r7, [r0], #-1889	; 0x761
 6b0:	79616c65 	stmdbvc	r1!, {r0, r2, r5, r6, sl, fp, sp, lr}^
 6b4:	6365735f 	cmnvs	r5, #2080374785	; 0x7c000001
 6b8:	61747300 	cmnvs	r4, r0, lsl #6
 6bc:	732d6666 	teqvc	sp, #106954752	; 0x6600000
 6c0:	742f6372 	strtvc	r6, [pc], #-882	; 6c8 <__code_start__-0x7938>
 6c4:	72656d69 	rsbvc	r6, r5, #6720	; 0x1a40
 6c8:	4700632e 	strmi	r6, [r0, -lr, lsr #6]
 6cc:	32335445 	eorscc	r5, r3, #1157627904	; 0x45000000
 6d0:	63697400 	cmnvs	r9, #0, 8
 6d4:	6400736b 	strvs	r7, [r0], #-875	; 0x36b
 6d8:	79616c65 	stmdbvc	r1!, {r0, r2, r5, r6, sl, fp, sp, lr}^
 6dc:	6379635f 	cmnvs	r9, #2080374785	; 0x7c000001
 6e0:	0073656c 	rsbseq	r6, r3, ip, ror #10
 6e4:	616c6564 	cmnvs	ip, r4, ror #10
 6e8:	73755f79 	cmnvc	r5, #484	; 0x1e4
 6ec:	6d697400 	cfstrdvs	mvd7, [r9, #-0]
 6f0:	675f7265 	ldrbvs	r7, [pc, -r5, ror #4]
 6f4:	755f7465 	ldrbvc	r7, [pc, #-1125]	; 297 <__code_start__-0x7d69>
 6f8:	00636573 	rsbeq	r6, r3, r3, ror r5
 6fc:	6f73645f 	svcvs	0x0073645f
 700:	6e61685f 	mcrvs	8, 3, r6, cr1, cr15, {2}
 704:	00656c64 	rsbeq	r6, r5, r4, ror #24
 708:	7a69735f 	bvc	1a5d48c <__bss_end__+0x1a527d4>
 70c:	725f0065 	subsvc	r0, pc, #101	; 0x65
 710:	34646e61 	strbtcc	r6, [r4], #-3681	; 0xe61
 714:	655f0038 	ldrbvs	r0, [pc, #-56]	; 6e4 <__code_start__-0x791c>
 718:	6772656d 	ldrbvs	r6, [r2, -sp, ror #10]!
 71c:	79636e65 	stmdbvc	r3!, {r0, r2, r5, r6, r9, sl, fp, sp, lr}^
 720:	72617500 	rsbvc	r7, r1, #0, 10
 724:	6e695f74 	mcrvs	15, 3, r5, cr9, cr4, {3}
 728:	5f007469 	svcpl	0x00007469
 72c:	74726377 	ldrbtvc	r6, [r2], #-887	; 0x377
 730:	5f626d6f 	svcpl	0x00626d6f
 734:	74617473 	strbtvc	r7, [r1], #-1139	; 0x473
 738:	775f0065 	ldrbvc	r0, [pc, -r5, rrx]
 73c:	74727363 	ldrbtvc	r7, [r2], #-867	; 0x363
 740:	73626d6f 	cmnvc	r2, #7104	; 0x1bc0
 744:	6174735f 	cmnvs	r4, pc, asr r3
 748:	5f006574 	svcpl	0x00006574
 74c:	7366626c 	cmnvc	r6, #108, 4	; 0xc0000006
 750:	00657a69 	rsbeq	r7, r5, r9, ror #20
 754:	4f495047 	svcmi	0x00495047
 758:	4e55465f 	mrcmi	6, 2, r4, cr5, cr15, {2}
 75c:	4e495f43 	cdpmi	15, 4, cr5, cr9, cr3, {2}
 760:	00545550 	subseq	r5, r4, r0, asr r5
 764:	72626d5f 	rsbvc	r6, r2, #6080	; 0x17c0
 768:	63776f74 	cmnvs	r7, #116, 30	; 0x1d0
 76c:	6174735f 	cmnvs	r4, pc, asr r3
 770:	5f006574 	svcpl	0x00006574
 774:	6f746377 	svcvs	0x00746377
 778:	735f626d 	cmpvc	pc, #-805306362	; 0xd0000006
 77c:	65746174 	ldrbvs	r6, [r4, #-372]!	; 0x174
 780:	745f5f00 	ldrbvc	r5, [pc], #-3840	; 788 <__code_start__-0x7878>
 784:	65735f6d 	ldrbvs	r5, [r3, #-3949]!	; 0xf6d
 788:	74730063 	ldrbtvc	r0, [r3], #-99	; 0x63
 78c:	5f007461 	svcpl	0x00007461
 790:	66756275 			; <UNDEFINED> instruction: 0x66756275
 794:	49504700 	ldmdbmi	r0, {r8, r9, sl, lr}^
 798:	55465f4f 	strbpl	r5, [r6, #-3919]	; 0xf4f
 79c:	415f434e 	cmpmi	pc, lr, asr #6
 7a0:	0031544c 	eorseq	r5, r1, ip, asr #8
 7a4:	7361625f 	cmnvc	r1, #-268435451	; 0xf0000005
 7a8:	6e630065 	cdpvs	0, 6, cr0, cr3, cr5, {3}
 7ac:	5f006c74 	svcpl	0x00006c74
 7b0:	5f6d745f 	svcpl	0x006d745f
 7b4:	72756f68 	rsbsvc	r6, r5, #104, 30	; 0x1a0
 7b8:	735f5f00 	cmpvc	pc, #0, 30
 7bc:	6f5f0066 	svcvs	0x005f0066
 7c0:	78655f6e 	stmdavc	r5!, {r1, r2, r3, r5, r6, r8, r9, sl, fp, ip, lr}^
 7c4:	615f7469 	cmpvs	pc, r9, ror #8
 7c8:	00736772 	rsbseq	r6, r3, r2, ror r7
 7cc:	6f6f635f 	svcvs	0x006f635f
 7d0:	0065696b 	rsbeq	r6, r5, fp, ror #18
 7d4:	67735f5f 			; <UNDEFINED> instruction: 0x67735f5f
 7d8:	0065756c 	rsbeq	r7, r5, ip, ror #10
 7dc:	616c665f 	cmnvs	ip, pc, asr r6
 7e0:	5f007367 	svcpl	0x00007367
 7e4:	635f7369 	cmpvs	pc, #-1543503871	; 0xa4000001
 7e8:	5f006178 	svcpl	0x00006178
 7ec:	69647473 	stmdbvs	r4!, {r0, r1, r4, r5, r6, sl, ip, sp, lr}^
 7f0:	625f006e 	subsvs	r0, pc, #110	; 0x6e
 7f4:	69736b6c 	ldmdbvs	r3!, {r2, r3, r5, r6, r8, r9, fp, sp, lr}^
 7f8:	7500657a 	strvc	r6, [r0, #-1402]	; 0x57a
 7fc:	2e747261 	cdpcs	2, 7, cr7, cr4, cr1, {3}
 800:	75610063 	strbvc	r0, [r1, #-99]!	; 0x63
 804:	65705f78 	ldrbvs	r5, [r0, #-3960]!	; 0xf78
 808:	68706972 	ldmdavs	r0!, {r1, r4, r5, r6, r8, fp, sp, lr}^
 80c:	635f0073 	cmpvs	pc, #115	; 0x73
 810:	75627476 	strbvc	r7, [r2, #-1142]!	; 0x476
 814:	682f0066 	stmdavs	pc!, {r1, r2, r5, r6}	; <UNPREDICTABLE>
 818:	2f656d6f 	svccs	0x00656d6f
 81c:	6c676e65 	stclvs	14, cr6, [r7], #-404	; 0xfffffe6c
 820:	632f7265 	teqvs	pc, #1342177286	; 0x50000006
 824:	7373616c 	cmnvc	r3, #108, 2
 828:	3273632f 	rsbscc	r6, r3, #-1140850688	; 0xbc000000
 82c:	786c3034 	stmdavc	ip!, {r2, r4, r5, ip, sp}^
 830:	7330322d 	teqvc	r0, #-805306366	; 0xd0000002
 834:	6c2f7270 	sfmvs	f7, 4, [pc], #-448	; 67c <__code_start__-0x7984>
 838:	69706269 	ldmdbvs	r0!, {r0, r3, r5, r6, r9, sp, lr}^
 83c:	6174732f 	cmnvs	r4, pc, lsr #6
 840:	702d6666 	eorvc	r6, sp, r6, ror #12
 844:	61766972 	cmnvs	r6, r2, ror r9
 848:	5f006574 	svcpl	0x00006574
 84c:	7273626d 	rsbsvc	r6, r3, #-805306362	; 0xd0000006
 850:	63776f74 	cmnvs	r7, #116, 30	; 0x1d0
 854:	74735f73 	ldrbtvc	r5, [r3], #-3955	; 0xf73
 858:	00657461 	rsbeq	r7, r5, r1, ror #8
 85c:	72626d5f 	rsbvc	r6, r2, #6080	; 0x17c0
 860:	5f6e656c 	svcpl	0x006e656c
 864:	74617473 	strbtvc	r7, [r1], #-1139	; 0x473
 868:	665f0065 	ldrbvs	r0, [pc], -r5, rrx
 86c:	6772616e 	ldrbvs	r6, [r2, -lr, ror #2]!
 870:	75610073 	strbvc	r0, [r1, #-115]!	; 0x73
 874:	6e655f78 	mcrvs	15, 3, r5, cr5, cr8, {3}
 878:	656c6261 	strbvs	r6, [ip, #-609]!	; 0x261
 87c:	665f0073 			; <UNDEFINED> instruction: 0x665f0073
 880:	5f00736e 	svcpl	0x0000736e
 884:	6e676973 	mcrvs	9, 3, r6, cr7, cr3, {3}
 888:	72617500 	rsbvc	r7, r1, #0, 10
 88c:	61635f74 	smcvs	13812	; 0x35f4
 890:	75705f6e 	ldrbvc	r5, [r0, #-3950]!	; 0xf6e
 894:	5f006374 	svcpl	0x00006374
 898:	636f6c66 	cmnvs	pc, #26112	; 0x6600
 89c:	00745f6b 	rsbseq	r5, r4, fp, ror #30
 8a0:	6474735f 	ldrbtvs	r7, [r4], #-863	; 0x35f
 8a4:	00727265 	rsbseq	r7, r2, r5, ror #4
 8a8:	6769425f 			; <UNDEFINED> instruction: 0x6769425f
 8ac:	00746e69 	rsbseq	r6, r4, r9, ror #28
 8b0:	6d61675f 	stclvs	7, cr6, [r1, #-380]!	; 0xfffffe84
 8b4:	735f616d 	cmpvc	pc, #1073741851	; 0x4000001b
 8b8:	676e6769 	strbvs	r6, [lr, -r9, ror #14]!
 8bc:	5f006d61 	svcpl	0x00006d61
 8c0:	75736572 	ldrbvc	r6, [r3, #-1394]!	; 0x572
 8c4:	6b5f746c 	blvs	17dda7c <__bss_end__+0x17d2dc4>
 8c8:	745f5f00 	ldrbvc	r5, [pc], #-3840	; 8d0 <__code_start__-0x7730>
 8cc:	5f5f006d 	svcpl	0x005f006d
 8d0:	62686377 	rsbvs	r6, r8, #-603979775	; 0xdc000001
 8d4:	72617500 	rsbvc	r7, r1, #0, 10
 8d8:	65675f74 	strbvs	r5, [r7, #-3956]!	; 0xf74
 8dc:	5f006374 	svcpl	0x00006374
 8e0:	6f647473 	svcvs	0x00647473
 8e4:	5f007475 	svcpl	0x00007475
 8e8:	6c747663 	ldclvs	6, cr7, [r4], #-396	; 0xfffffe74
 8ec:	5f006e65 	svcpl	0x00006e65
 8f0:	656c6966 	strbvs	r6, [ip, #-2406]!	; 0x966
 8f4:	696e5f00 	stmdbvs	lr!, {r8, r9, sl, fp, ip, lr}^
 8f8:	0073626f 	rsbseq	r6, r3, pc, ror #4
 8fc:	6574615f 	ldrbvs	r6, [r4, #-351]!	; 0x15f
 900:	30746978 	rsbscc	r6, r4, r8, ror r9
 904:	69735f00 	ldmdbvs	r3!, {r8, r9, sl, fp, ip, lr}^
 908:	6c616e67 	stclvs	14, cr6, [r1], #-412	; 0xfffffe64
 90c:	6675625f 			; <UNDEFINED> instruction: 0x6675625f
 910:	73615f00 	cmnvc	r1, #0, 30
 914:	6d697463 	cfstrdvs	mvd7, [r9, #-396]!	; 0xfffffe74
 918:	75625f65 	strbvc	r5, [r2, #-3941]!	; 0xf65
 91c:	65640066 	strbvs	r0, [r4, #-102]!	; 0x66
 920:	61625f76 	smcvs	9718	; 0x25f6
 924:	65697272 	strbvs	r7, [r9, #-626]!	; 0x272
 928:	725f0072 	subsvc	r0, pc, #114	; 0x72
 92c:	6c757365 	ldclvs	3, cr7, [r5], #-404	; 0xfffffe6c
 930:	5f5f0074 	svcpl	0x005f0074
 934:	00686377 	rsbeq	r6, r8, r7, ror r3
 938:	4f495047 	svcmi	0x00495047
 93c:	4e55465f 	mrcmi	6, 2, r4, cr5, cr15, {2}
 940:	4c415f43 	mcrrmi	15, 4, r5, r1, cr3
 944:	77003254 	smlsdvc	r0, r4, r2, r3
 948:	5f746e69 	svcpl	0x00746e69
 94c:	6c5f0074 	mrrcvs	0, 7, r0, pc, cr4	; <UNPREDICTABLE>
 950:	006b636f 	rsbeq	r6, fp, pc, ror #6
 954:	616c665f 	cmnvs	ip, pc, asr r6
 958:	00327367 	eorseq	r7, r2, r7, ror #6
 95c:	6d745f5f 	ldclvs	15, cr5, [r4, #-380]!	; 0xfffffe84
 960:	6165795f 	cmnvs	r5, pc, asr r9
 964:	6f5f0072 	svcvs	0x005f0072
 968:	65736666 	ldrbvs	r6, [r3, #-1638]!	; 0x666
 96c:	70670074 	rsbvc	r0, r7, r4, ror r0
 970:	735f6f69 	cmpvc	pc, #420	; 0x1a4
 974:	665f7465 	ldrbvs	r7, [pc], -r5, ror #8
 978:	74636e75 	strbtvc	r6, [r3], #-3701	; 0xe75
 97c:	006e6f69 	rsbeq	r6, lr, r9, ror #30
 980:	78656e5f 	stmdavc	r5!, {r0, r1, r2, r3, r4, r6, r9, sl, fp, sp, lr}^
 984:	5f006674 	svcpl	0x00006674
 988:	5f6d745f 	svcpl	0x006d745f
 98c:	006e6f6d 	rsbeq	r6, lr, sp, ror #30
 990:	6574615f 	ldrbvs	r6, [r4, #-351]!	; 0x15f
 994:	00746978 	rsbseq	r6, r4, r8, ror r9
 998:	64735f5f 	ldrbtvs	r5, [r3], #-3935	; 0xf5f
 99c:	6e696469 	cdpvs	4, 6, cr6, cr9, cr9, {3}
 9a0:	5f007469 	svcpl	0x00007469
 9a4:	5f66666f 	svcpl	0x0066666f
 9a8:	61750074 	cmnvs	r5, r4, ror r0
 9ac:	5f007472 	svcpl	0x00007472
 9b0:	65657266 	strbvs	r7, [r5, #-614]!	; 0x266
 9b4:	7473696c 	ldrbtvc	r6, [r3], #-2412	; 0x96c
 9b8:	4f4c5f00 	svcmi	0x004c5f00
 9bc:	525f4b43 	subspl	r4, pc, #68608	; 0x10c00
 9c0:	52554345 	subspl	r4, r5, #335544321	; 0x14000001
 9c4:	45564953 	ldrbmi	r4, [r6, #-2387]	; 0x953
 9c8:	5f00545f 	svcpl	0x0000545f
 9cc:	0077656e 	rsbseq	r6, r7, lr, ror #10
 9d0:	655f685f 	ldrbvs	r6, [pc, #-2143]	; 179 <__code_start__-0x7e87>
 9d4:	6f6e7272 	svcvs	0x006e7272
 9d8:	745f5f00 	ldrbvc	r5, [pc], #-3840	; 9e0 <__code_start__-0x7620>
 9dc:	64795f6d 	ldrbtvs	r5, [r9], #-3949	; 0xf6d
 9e0:	5f007961 	svcpl	0x00007961
 9e4:	7562735f 	strbvc	r7, [r2, #-863]!	; 0x35f
 9e8:	695f0066 	ldmdbvs	pc, {r1, r2, r5, r6}^	; <UNPREDICTABLE>
 9ec:	0073626f 	rsbseq	r6, r3, pc, ror #4
 9f0:	49465f5f 	stmdbmi	r6, {r0, r1, r2, r3, r4, r6, r8, r9, sl, fp, ip, lr}^
 9f4:	5f00454c 	svcpl	0x0000454c
 9f8:	7473626d 	ldrbtvc	r6, [r3], #-621	; 0x26d
 9fc:	5f657461 	svcpl	0x00657461
 a00:	5f5f0074 	svcpl	0x005f0074
 a04:	4c494673 	mcrrmi	6, 7, r4, r9, cr3
 a08:	6d5f0045 	ldclvs	0, cr0, [pc, #-276]	; 8fc <__code_start__-0x7704>
 a0c:	61747362 	cmnvs	r4, r2, ror #6
 a10:	5f006574 	svcpl	0x00006574
 a14:	646e6172 	strbtvs	r6, [lr], #-370	; 0x172
 a18:	78656e5f 	stmdavc	r5!, {r0, r1, r2, r3, r4, r6, r9, sl, fp, sp, lr}^
 a1c:	6d5f0074 	ldclvs	0, cr0, [pc, #-464]	; 854 <__code_start__-0x77ac>
 a20:	6e656c62 	cdpvs	12, 6, cr6, cr5, cr2, {3}
 a24:	6174735f 	cmnvs	r4, pc, asr r3
 a28:	5f006574 	svcpl	0x00006574
 a2c:	00636e69 	rsbeq	r6, r3, r9, ror #28
 a30:	646e695f 	strbtvs	r6, [lr], #-2399	; 0x95f
 a34:	75635f00 	strbvc	r5, [r3, #-3840]!	; 0xf00
 a38:	6e657272 	mcrvs	2, 3, r7, cr5, cr2, {3}
 a3c:	6f6c5f74 	svcvs	0x006c5f74
 a40:	656c6163 	strbvs	r6, [ip, #-355]!	; 0x163
 a44:	635f5f00 	cmpvs	pc, #0, 30
 a48:	6e61656c 	cdpvs	5, 6, cr6, cr1, cr12, {3}
 a4c:	5f007075 	svcpl	0x00007075
 a50:	7778616d 	ldrbvc	r6, [r8, -sp, ror #2]!
 a54:	5f007364 	svcpl	0x00007364
 a58:	6e656572 	mcrvs	5, 3, r6, cr5, cr2, {3}
 a5c:	735f0074 	cmpvc	pc, #116	; 0x74
 a60:	00646565 	rsbeq	r6, r4, r5, ror #10
 a64:	6f635f5f 	svcvs	0x00635f5f
 a68:	00746e75 	rsbseq	r6, r4, r5, ror lr
 a6c:	61765f5f 	cmnvs	r6, pc, asr pc
 a70:	0065756c 	rsbeq	r7, r5, ip, ror #10
 a74:	6565735f 	strbvs	r7, [r5, #-863]!	; 0x35f
 a78:	6162006b 	cmnvs	r2, fp, rrx
 a7c:	5f006475 	svcpl	0x00006475
 a80:	736f7066 	cmnvc	pc, #102	; 0x66
 a84:	5f00745f 	svcpl	0x0000745f
 a88:	5f6d745f 	svcpl	0x006d745f
 a8c:	006e696d 	rsbeq	r6, lr, sp, ror #18
 a90:	61726373 	cmnvs	r2, r3, ror r3
 a94:	00686374 	rsbeq	r6, r8, r4, ror r3
 a98:	6c756d5f 	ldclvs	13, cr6, [r5], #-380	; 0xfffffe84
 a9c:	75700074 	ldrbvc	r0, [r0, #-116]!	; 0x74
 aa0:	00323374 	eorseq	r3, r2, r4, ror r3
 aa4:	20554e47 	subscs	r4, r5, r7, asr #28
 aa8:	20393943 	eorscs	r3, r9, r3, asr #18
 aac:	2e332e36 	mrccs	14, 1, r2, cr3, cr6, {1}
 ab0:	30322031 	eorscc	r2, r2, r1, lsr r0
 ab4:	36303731 			; <UNDEFINED> instruction: 0x36303731
 ab8:	2d203032 	stccs	0, cr3, [r0, #-200]!	; 0xffffff38
 abc:	7570636d 	ldrbvc	r6, [r0, #-877]!	; 0x36d
 ac0:	6d72613d 	ldfvse	f6, [r2, #-244]!	; 0xffffff0c
 ac4:	36373131 			; <UNDEFINED> instruction: 0x36373131
 ac8:	2d667a6a 	vstmdbcs	r6!, {s15-s120}
 acc:	6d2d2073 	stcvs	0, cr2, [sp, #-460]!	; 0xfffffe34
 ad0:	656e7574 	strbvs	r7, [lr, #-1396]!	; 0x574
 ad4:	6d72613d 	ldfvse	f6, [r2, #-244]!	; 0xffffff0c
 ad8:	36373131 			; <UNDEFINED> instruction: 0x36373131
 adc:	2d667a6a 	vstmdbcs	r6!, {s15-s120}
 ae0:	672d2073 			; <UNDEFINED> instruction: 0x672d2073
 ae4:	20626467 	rsbcs	r6, r2, r7, ror #8
 ae8:	20674f2d 	rsbcs	r4, r7, sp, lsr #30
 aec:	6474732d 	ldrbtvs	r7, [r4], #-813	; 0x32d
 af0:	756e673d 	strbvc	r6, [lr, #-1853]!	; 0x73d
 af4:	2d203939 	stccs	9, cr3, [r0, #-228]!	; 0xffffff1c
 af8:	65726666 	ldrbvs	r6, [r2, #-1638]!	; 0x666
 afc:	61747365 	cmnvs	r4, r5, ror #6
 b00:	6e69646e 	cdpvs	4, 6, cr6, cr9, cr14, {3}
 b04:	735f0067 	cmpvc	pc, #103	; 0x67
 b08:	6f747274 	svcvs	0x00747274
 b0c:	616c5f6b 	cmnvs	ip, fp, ror #30
 b10:	5f007473 	svcpl	0x00007473
 b14:	79746e66 	ldmdbvc	r4!, {r1, r2, r5, r6, r9, sl, fp, sp, lr}^
 b18:	00736570 	rsbseq	r6, r3, r0, ror r5
 b1c:	6464615f 	strbtvs	r6, [r4], #-351	; 0x15f
 b20:	555f5f00 	ldrbpl	r5, [pc, #-3840]	; fffffc28 <__bss_end__+0xffff4f70>
 b24:	676e6f4c 	strbvs	r6, [lr, -ip, asr #30]!
 b28:	65675f00 	strbvs	r5, [r7, #-3840]!	; 0xf00
 b2c:	74616474 	strbtvc	r6, [r1], #-1140	; 0x474
 b30:	72655f65 	rsbvc	r5, r5, #404	; 0x194
 b34:	675f0072 			; <UNDEFINED> instruction: 0x675f0072
 b38:	61626f6c 	cmnvs	r2, ip, ror #30
 b3c:	6d695f6c 	stclvs	15, cr5, [r9, #-432]!	; 0xfffffe50
 b40:	65727570 	ldrbvs	r7, [r2, #-1392]!	; 0x570
 b44:	7274705f 	rsbsvc	r7, r4, #95	; 0x5f
 b48:	75635f00 	strbvc	r5, [r3, #-3840]!	; 0xf00
 b4c:	6e657272 	mcrvs	2, 3, r7, cr5, cr2, {3}
 b50:	61635f74 	smcvs	13812	; 0x35f4
 b54:	6f676574 	svcvs	0x00676574
 b58:	5f007972 	svcpl	0x00007972
 b5c:	73756e75 	cmnvc	r5, #1872	; 0x750
 b60:	725f6465 	subsvc	r6, pc, #1694498816	; 0x65000000
 b64:	00646e61 	rsbeq	r6, r4, r1, ror #28
 b68:	7364775f 	cmnvc	r4, #24903680	; 0x17c0000
 b6c:	745f5f00 	ldrbvc	r5, [pc], #-3840	; b74 <__code_start__-0x748c>
 b70:	64775f6d 	ldrbtvs	r5, [r7], #-3949	; 0xf6d
 b74:	5f007961 	svcpl	0x00007961
 b78:	65756c67 	ldrbvs	r6, [r5, #-3175]!	; 0xc67
 b7c:	49504700 	ldmdbmi	r0, {r8, r9, sl, lr}^
 b80:	55465f4f 	strbpl	r5, [r6, #-3919]	; 0xf4f
 b84:	4f5f434e 	svcmi	0x005f434e
 b88:	55505455 	ldrbpl	r5, [r0, #-1109]	; 0x455
 b8c:	6e5f0054 	mrcvs	0, 2, r0, cr15, cr4, {2}
 b90:	6c6c616d 	stfvse	f6, [ip], #-436	; 0xfffffe4c
 b94:	5f00636f 	svcpl	0x0000636f
 b98:	6134366c 	teqvs	r4, ip, ror #12
 b9c:	6675625f 			; <UNDEFINED> instruction: 0x6675625f
 ba0:	74656700 	strbtvc	r6, [r5], #-1792	; 0x700
 ba4:	75003233 	strvc	r3, [r0, #-563]	; 0x233
 ba8:	5f747261 	svcpl	0x00747261
 bac:	5f6e6163 	svcpl	0x006e6163
 bb0:	63746567 	cmnvs	r4, #432013312	; 0x19c00000
 bb4:	69735f00 	ldmdbvs	r3!, {r8, r9, sl, fp, ip, lr}^
 bb8:	75665f67 	strbvc	r5, [r6, #-3943]!	; 0xf67
 bbc:	6f00636e 	svcvs	0x0000636e
 bc0:	6e695f72 	mcrvs	15, 3, r5, cr9, cr2, {3}
 bc4:	75003233 	strvc	r3, [r0, #-563]	; 0x233
 bc8:	5f747261 	svcpl	0x00747261
 bcc:	5f736168 	svcpl	0x00736168
 bd0:	61746164 	cmnvs	r4, r4, ror #2
 bd4:	49504700 	ldmdbmi	r0, {r8, r9, sl, lr}^
 bd8:	55465f4f 	strbpl	r5, [r6, #-3919]	; 0xf4f
 bdc:	415f434e 	cmpmi	pc, lr, asr #6
 be0:	0030544c 	eorseq	r5, r0, ip, asr #8
 be4:	75626e5f 	strbvc	r6, [r2, #-3679]!	; 0xe5f
 be8:	755f0066 	ldrbvc	r0, [pc, #-102]	; b8a <__code_start__-0x7476>
 bec:	6573756e 	ldrbvs	r7, [r3, #-1390]!	; 0x56e
 bf0:	50470064 	subpl	r0, r7, r4, rrx
 bf4:	465f4f49 	ldrbmi	r4, [pc], -r9, asr #30
 bf8:	5f434e55 	svcpl	0x00434e55
 bfc:	33544c41 	cmpcc	r4, #16640	; 0x4100
 c00:	49504700 	ldmdbmi	r0, {r8, r9, sl, lr}^
 c04:	55465f4f 	strbpl	r5, [r6, #-3919]	; 0xf4f
 c08:	415f434e 	cmpmi	pc, lr, asr #6
 c0c:	0034544c 	eorseq	r5, r4, ip, asr #8
 c10:	4f495047 	svcmi	0x00495047
 c14:	4e55465f 	mrcmi	6, 2, r4, cr5, cr15, {2}
 c18:	4c415f43 	mcrrmi	15, 4, r5, r1, cr3
 c1c:	5f003554 	svcpl	0x00003554
 c20:	5f6d745f 	svcpl	0x006d745f
 c24:	73647369 	cmnvc	r4, #-1543503871	; 0xa4000001
 c28:	6c5f0074 	mrrcvs	0, 7, r0, pc, cr4	; <UNPREDICTABLE>
 c2c:	6c61636f 	stclvs	3, cr6, [r1], #-444	; 0xfffffe44
 c30:	656d6974 	strbvs	r6, [sp, #-2420]!	; 0x974
 c34:	6675625f 			; <UNDEFINED> instruction: 0x6675625f
 c38:	6c635f00 	stclvs	15, cr5, [r3], #-0
 c3c:	0065736f 	rsbeq	r7, r5, pc, ror #6
 c40:	3834725f 	ldmdacc	r4!, {r0, r1, r2, r3, r4, r6, r9, ip, sp, lr}
 c44:	626d5f00 	rsbvs	r5, sp, #0, 30
 c48:	63776f74 	cmnvs	r7, #116, 30	; 0x1d0
 c4c:	6174735f 	cmnvs	r4, pc, asr r3
 c50:	5f006574 	svcpl	0x00006574
 c54:	00733570 	rsbseq	r3, r3, r0, ror r5
 c58:	6d745f5f 	ldclvs	15, cr5, [r4, #-380]!	; 0xfffffe84
 c5c:	61646d5f 	cmnvs	r4, pc, asr sp
 c60:	70670079 	rsbvc	r0, r7, r9, ror r0
 c64:	735f6f69 	cmpvc	pc, #420	; 0x1a4
 c68:	6f5f7465 	svcvs	0x005f7465
 c6c:	62006666 	andvs	r6, r0, #106954752	; 0x6600000
 c70:	006b6e61 	rsbeq	r6, fp, r1, ror #28
 c74:	6f697067 	svcvs	0x00697067
 c78:	6700632e 	strvs	r6, [r0, -lr, lsr #6]
 c7c:	5f6f6970 	svcpl	0x006f6970
 c80:	64616572 	strbtvs	r6, [r1], #-1394	; 0x572
 c84:	69706700 	ldmdbvs	r0!, {r8, r9, sl, sp, lr}^
 c88:	65735f6f 	ldrbvs	r5, [r3, #-3951]!	; 0xf6f
 c8c:	756f5f74 	strbvc	r5, [pc, #-3956]!	; fffffd20 <__bss_end__+0xffff5068>
 c90:	74757074 	ldrbtvc	r7, [r5], #-116	; 0x74
 c94:	69706700 	ldmdbvs	r0!, {r8, r9, sl, sp, lr}^
 c98:	72775f6f 	rsbsvc	r5, r7, #444	; 0x1bc
 c9c:	00657469 	rsbeq	r7, r5, r9, ror #8
 ca0:	6f697067 	svcvs	0x00697067
 ca4:	7465735f 	strbtvc	r7, [r5], #-863	; 0x35f
 ca8:	70670030 	rsbvc	r0, r7, r0, lsr r0
 cac:	6c5f6f69 	mrrcvs	15, 6, r6, pc, cr9	; <UNPREDICTABLE>
 cb0:	00307665 	eorseq	r7, r0, r5, ror #12
 cb4:	6f697067 	svcvs	0x00697067
 cb8:	7465735f 	strbtvc	r7, [r5], #-863	; 0x35f
 cbc:	706e695f 	rsbvc	r6, lr, pc, asr r9
 cc0:	67007475 	smlsdxvs	r0, r5, r4, r7
 cc4:	5f6f6970 	svcpl	0x006f6970
 cc8:	5f746573 	svcpl	0x00746573
 ccc:	67006e6f 	strvs	r6, [r0, -pc, ror #28]
 cd0:	5f6f6970 	svcpl	0x006f6970
 cd4:	636e7566 	cmnvs	lr, #427819008	; 0x19800000
 cd8:	6700745f 	smlsdvs	r0, pc, r4, r7	; <UNPREDICTABLE>
 cdc:	5f6f6970 	svcpl	0x006f6970
 ce0:	30726c63 	rsbscc	r6, r2, r3, ror #24
 ce4:	616d6b00 	cmnvs	sp, r0, lsl #22
 ce8:	636f6c6c 	cmnvs	pc, #108, 24	; 0x6c00
 cec:	6b00632e 	blvs	199ac <__bss_end__+0xecf4>
 cf0:	6c6c616d 	stfvse	f6, [ip], #-436	; 0xfffffe4c
 cf4:	695f636f 	ldmdbvs	pc, {r0, r1, r2, r3, r5, r6, r8, r9, sp, lr}^	; <UNPREDICTABLE>
 cf8:	0074696e 	rsbseq	r6, r4, lr, ror #18
 cfc:	6c616d6b 	stclvs	13, cr6, [r1], #-428	; 0xfffffe54
 d00:	5f636f6c 	svcpl	0x00636f6c
 d04:	67696c61 	strbvs	r6, [r9, -r1, ror #24]!
 d08:	0064656e 	rsbeq	r6, r4, lr, ror #10
 d0c:	62756f64 	rsbsvs	r6, r5, #100, 30	; 0x190
 d10:	6b00656c 	blvs	1a2c8 <__bss_end__+0xf610>
 d14:	65657266 	strbvs	r7, [r5, #-614]!	; 0x266
 d18:	6c6c615f 	stfvse	f6, [ip], #-380	; 0xfffffe84
 d1c:	72666b00 	rsbvc	r6, r6, #0, 22
 d20:	615f6565 	cmpvs	pc, r5, ror #10
 d24:	72657466 	rsbvc	r7, r5, #1711276032	; 0x66000000
 d28:	616d6b00 	cmnvs	sp, r0, lsl #22
 d2c:	636f6c6c 	cmnvs	pc, #108, 24	; 0x6c00
 d30:	6165685f 	cmnvs	r5, pc, asr r8
 d34:	74705f70 	ldrbtvc	r5, [r0], #-3952	; 0xf70
 d38:	6c610072 	stclvs	0, cr0, [r1], #-456	; 0xfffffe38
 d3c:	6d6e6769 	stclvs	7, cr6, [lr, #-420]!	; 0xfffffe5c
 d40:	00746e65 	rsbseq	r6, r4, r5, ror #28
 d44:	65685f5f 	strbvs	r5, [r8, #-3935]!	; 0xf5f
 d48:	735f7061 	cmpvc	pc, #97	; 0x61
 d4c:	74726174 	ldrbtvc	r6, [r2], #-372	; 0x174
 d50:	6b005f5f 	blvs	18ad4 <__bss_end__+0xde1c>
 d54:	6c6c616d 	stfvse	f6, [ip], #-436	; 0xfffffe4c
 d58:	685f636f 	ldmdavs	pc, {r0, r1, r2, r3, r5, r6, r8, r9, sp, lr}^	; <UNPREDICTABLE>
 d5c:	5f706165 	svcpl	0x00706165
 d60:	72617473 	rsbvc	r7, r1, #1929379840	; 0x73000000
 d64:	6d6b0074 	stclvs	0, cr0, [fp, #-464]!	; 0xfffffe30
 d68:	6f6c6c61 	svcvs	0x006c6c61
 d6c:	65685f63 	strbvs	r5, [r8, #-3939]!	; 0xf63
 d70:	655f7061 	ldrbvs	r7, [pc, #-97]	; d17 <__code_start__-0x72e9>
 d74:	Address 0x0000000000000d74 is out of bounds.


Disassembly of section .debug_frame:

00000000 <.debug_frame>:
   0:	0000000c 	andeq	r0, r0, ip
   4:	ffffffff 			; <UNDEFINED> instruction: 0xffffffff
   8:	7c020001 	stcvc	0, cr0, [r2], {1}
   c:	000d0c0e 	andeq	r0, sp, lr, lsl #24
  10:	00000014 	andeq	r0, r0, r4, lsl r0
  14:	00000000 	andeq	r0, r0, r0
  18:	00008010 	andeq	r8, r0, r0, lsl r0
  1c:	00000058 	andeq	r0, r0, r8, asr r0
  20:	84080e42 	strhi	r0, [r8], #-3650	; 0xe42
  24:	00018e02 	andeq	r8, r1, r2, lsl #28
  28:	00000014 	andeq	r0, r0, r4, lsl r0
  2c:	00000000 	andeq	r0, r0, r0
  30:	00008068 	andeq	r8, r0, r8, rrx
  34:	0000010c 	andeq	r0, r0, ip, lsl #2
  38:	84080e42 	strhi	r0, [r8], #-3650	; 0xe42
  3c:	00018e02 	andeq	r8, r1, r2, lsl #28
  40:	0000000c 	andeq	r0, r0, ip
  44:	ffffffff 			; <UNDEFINED> instruction: 0xffffffff
  48:	7c020001 	stcvc	0, cr0, [r2], {1}
  4c:	000d0c0e 	andeq	r0, sp, lr, lsl #24
  50:	0000001c 	andeq	r0, r0, ip, lsl r0
  54:	00000040 	andeq	r0, r0, r0, asr #32
  58:	00008174 	andeq	r8, r0, r4, ror r1
  5c:	00000100 	andeq	r0, r0, r0, lsl #2
  60:	84180e42 	ldrhi	r0, [r8], #-3650	; 0xe42
  64:	86058506 	strhi	r8, [r5], -r6, lsl #10
  68:	88038704 	stmdahi	r3, {r2, r8, r9, sl, pc}
  6c:	00018e02 	andeq	r8, r1, r2, lsl #28
  70:	00000014 	andeq	r0, r0, r4, lsl r0
  74:	00000040 	andeq	r0, r0, r0, asr #32
  78:	00008274 	andeq	r8, r0, r4, ror r2
  7c:	00000014 	andeq	r0, r0, r4, lsl r0
  80:	83080e42 	movwhi	r0, #36418	; 0x8e42
  84:	00018e02 	andeq	r8, r1, r2, lsl #28
  88:	0000001c 	andeq	r0, r0, ip, lsl r0
  8c:	00000040 	andeq	r0, r0, r0, asr #32
  90:	00008288 	andeq	r8, r0, r8, lsl #5
  94:	00000048 	andeq	r0, r0, r8, asr #32
  98:	84180e42 	ldrhi	r0, [r8], #-3650	; 0xe42
  9c:	86058506 	strhi	r8, [r5], -r6, lsl #10
  a0:	88038704 	stmdahi	r3, {r2, r8, r9, sl, pc}
  a4:	00018e02 	andeq	r8, r1, r2, lsl #28
  a8:	00000014 	andeq	r0, r0, r4, lsl r0
  ac:	00000040 	andeq	r0, r0, r0, asr #32
  b0:	000082d0 	ldrdeq	r8, [r0], -r0
  b4:	00000078 	andeq	r0, r0, r8, ror r0
  b8:	84080e42 	strhi	r0, [r8], #-3650	; 0xe42
  bc:	00018e02 	andeq	r8, r1, r2, lsl #28
  c0:	00000014 	andeq	r0, r0, r4, lsl r0
  c4:	00000040 	andeq	r0, r0, r0, asr #32
  c8:	00008348 	andeq	r8, r0, r8, asr #6
  cc:	00000070 	andeq	r0, r0, r0, ror r0
  d0:	84080e42 	strhi	r0, [r8], #-3650	; 0xe42
  d4:	00018e02 	andeq	r8, r1, r2, lsl #28
  d8:	00000018 	andeq	r0, r0, r8, lsl r0
  dc:	00000040 	andeq	r0, r0, r0, asr #32
  e0:	000083b8 			; <UNDEFINED> instruction: 0x000083b8
  e4:	00000088 	andeq	r0, r0, r8, lsl #1
  e8:	83100e42 	tsthi	r0, #1056	; 0x420
  ec:	85038404 	strhi	r8, [r3, #-1028]	; 0x404
  f0:	00018e02 	andeq	r8, r1, r2, lsl #28
  f4:	0000001c 	andeq	r0, r0, ip, lsl r0
  f8:	00000040 	andeq	r0, r0, r0, asr #32
  fc:	00008440 	andeq	r8, r0, r0, asr #8
 100:	000000d0 	ldrdeq	r0, [r0], -r0	; <UNPREDICTABLE>
 104:	84180e42 	ldrhi	r0, [r8], #-3650	; 0xe42
 108:	86058506 	strhi	r8, [r5], -r6, lsl #10
 10c:	88038704 	stmdahi	r3, {r2, r8, r9, sl, pc}
 110:	00018e02 	andeq	r8, r1, r2, lsl #28
 114:	00000020 	andeq	r0, r0, r0, lsr #32
 118:	00000040 	andeq	r0, r0, r0, asr #32
 11c:	00008510 	andeq	r8, r0, r0, lsl r5
 120:	0000022c 	andeq	r0, r0, ip, lsr #4
 124:	841c0e42 	ldrhi	r0, [ip], #-3650	; 0xe42
 128:	86068507 	strhi	r8, [r6], -r7, lsl #10
 12c:	88048705 	stmdahi	r4, {r0, r2, r8, r9, sl, pc}
 130:	8e028903 	cdphi	9, 0, cr8, cr2, cr3, {0}
 134:	280e4201 	stmdacs	lr, {r0, r9, lr}
 138:	00000020 	andeq	r0, r0, r0, lsr #32
 13c:	00000040 	andeq	r0, r0, r0, asr #32
 140:	0000873c 	andeq	r8, r0, ip, lsr r7
 144:	00000170 	andeq	r0, r0, r0, ror r1
 148:	83200e42 	teqhi	r0, #1056	; 0x420
 14c:	85078408 	strhi	r8, [r7, #-1032]	; 0x408
 150:	87058606 	strhi	r8, [r5, -r6, lsl #12]
 154:	89038804 	stmdbhi	r3, {r2, fp, pc}
 158:	00018e02 	andeq	r8, r1, r2, lsl #28
 15c:	00000014 	andeq	r0, r0, r4, lsl r0
 160:	00000040 	andeq	r0, r0, r0, asr #32
 164:	000088ac 	andeq	r8, r0, ip, lsr #17
 168:	00000050 	andeq	r0, r0, r0, asr r0
 16c:	84080e42 	strhi	r0, [r8], #-3650	; 0xe42
 170:	00018e02 	andeq	r8, r1, r2, lsl #28
 174:	00000014 	andeq	r0, r0, r4, lsl r0
 178:	00000040 	andeq	r0, r0, r0, asr #32
 17c:	000088fc 	strdeq	r8, [r0], -ip
 180:	00000098 	muleq	r0, r8, r0
 184:	84080e42 	strhi	r0, [r8], #-3650	; 0xe42
 188:	00018e02 	andeq	r8, r1, r2, lsl #28
 18c:	0000000c 	andeq	r0, r0, ip
 190:	00000040 	andeq	r0, r0, r0, asr #32
 194:	00008994 	muleq	r0, r4, r9
 198:	0000001c 	andeq	r0, r0, ip, lsl r0
 19c:	0000000c 	andeq	r0, r0, ip
 1a0:	ffffffff 			; <UNDEFINED> instruction: 0xffffffff
 1a4:	7c020001 	stcvc	0, cr0, [r2], {1}
 1a8:	000d0c0e 	andeq	r0, sp, lr, lsl #24
 1ac:	0000000c 	andeq	r0, r0, ip
 1b0:	0000019c 	muleq	r0, ip, r1
 1b4:	000089b0 			; <UNDEFINED> instruction: 0x000089b0
 1b8:	0000003c 	andeq	r0, r0, ip, lsr r0
 1bc:	00000014 	andeq	r0, r0, r4, lsl r0
 1c0:	0000019c 	muleq	r0, ip, r1
 1c4:	000089ec 	andeq	r8, r0, ip, ror #19
 1c8:	00000078 	andeq	r0, r0, r8, ror r0
 1cc:	84080e42 	strhi	r0, [r8], #-3650	; 0xe42
 1d0:	00018e02 	andeq	r8, r1, r2, lsl #28
 1d4:	00000024 	andeq	r0, r0, r4, lsr #32
 1d8:	0000019c 	muleq	r0, ip, r1
 1dc:	00008a64 	andeq	r8, r0, r4, ror #20
 1e0:	00000134 	andeq	r0, r0, r4, lsr r1
 1e4:	83280e42 	teqhi	r8, #1056	; 0x420
 1e8:	8509840a 	strhi	r8, [r9, #-1034]	; 0x40a
 1ec:	87078608 	strhi	r8, [r7, -r8, lsl #12]
 1f0:	89058806 	stmdbhi	r5, {r1, r2, fp, pc}
 1f4:	8b038a04 	blhi	e2a0c <__bss_end__+0xd7d54>
 1f8:	00018e02 	andeq	r8, r1, r2, lsl #28
 1fc:	00000018 	andeq	r0, r0, r8, lsl r0
 200:	0000019c 	muleq	r0, ip, r1
 204:	00008b98 	muleq	r0, r8, fp
 208:	000000f8 	strdeq	r0, [r0], -r8
 20c:	84100e42 	ldrhi	r0, [r0], #-3650	; 0xe42
 210:	86038504 	strhi	r8, [r3], -r4, lsl #10
 214:	00018e02 	andeq	r8, r1, r2, lsl #28
 218:	00000018 	andeq	r0, r0, r8, lsl r0
 21c:	0000019c 	muleq	r0, ip, r1
 220:	00008c90 	muleq	r0, r0, ip
 224:	000000f4 	strdeq	r0, [r0], -r4
 228:	84080e42 	strhi	r0, [r8], #-3650	; 0xe42
 22c:	42018e02 	andmi	r8, r1, #2, 28
 230:	0000580e 	andeq	r5, r0, lr, lsl #16
 234:	00000024 	andeq	r0, r0, r4, lsr #32
 238:	0000019c 	muleq	r0, ip, r1
 23c:	00008d84 	andeq	r8, r0, r4, lsl #27
 240:	00000120 	andeq	r0, r0, r0, lsr #2
 244:	84240e42 	strthi	r0, [r4], #-3650	; 0xe42
 248:	86088509 	strhi	r8, [r8], -r9, lsl #10
 24c:	88068707 	stmdahi	r6, {r0, r1, r2, r8, r9, sl, pc}
 250:	8a048905 	bhi	12266c <__bss_end__+0x1179b4>
 254:	8e028b03 	vmlahi.f64	d8, d2, d3
 258:	380e4201 	stmdacc	lr, {r0, r9, lr}
 25c:	00000014 	andeq	r0, r0, r4, lsl r0
 260:	0000019c 	muleq	r0, ip, r1
 264:	00008ea4 	andeq	r8, r0, r4, lsr #29
 268:	00000018 	andeq	r0, r0, r8, lsl r0
 26c:	84080e42 	strhi	r0, [r8], #-3650	; 0xe42
 270:	00018e02 	andeq	r8, r1, r2, lsl #28
 274:	00000014 	andeq	r0, r0, r4, lsl r0
 278:	0000019c 	muleq	r0, ip, r1
 27c:	00008ebc 			; <UNDEFINED> instruction: 0x00008ebc
 280:	000000a0 	andeq	r0, r0, r0, lsr #1
 284:	83080e42 	movwhi	r0, #36418	; 0x8e42
 288:	00018e02 	andeq	r8, r1, r2, lsl #28
 28c:	00000014 	andeq	r0, r0, r4, lsl r0
 290:	0000019c 	muleq	r0, ip, r1
 294:	00008f5c 	andeq	r8, r0, ip, asr pc
 298:	000000a4 	andeq	r0, r0, r4, lsr #1
 29c:	84080e42 	strhi	r0, [r8], #-3650	; 0xe42
 2a0:	00018e02 	andeq	r8, r1, r2, lsl #28
 2a4:	00000014 	andeq	r0, r0, r4, lsl r0
 2a8:	0000019c 	muleq	r0, ip, r1
 2ac:	00009000 	andeq	r9, r0, r0
 2b0:	0000002c 	andeq	r0, r0, ip, lsr #32
 2b4:	83080e42 	movwhi	r0, #36418	; 0x8e42
 2b8:	00018e02 	andeq	r8, r1, r2, lsl #28
 2bc:	00000014 	andeq	r0, r0, r4, lsl r0
 2c0:	0000019c 	muleq	r0, ip, r1
 2c4:	0000902c 	andeq	r9, r0, ip, lsr #32
 2c8:	00000010 	andeq	r0, r0, r0, lsl r0
 2cc:	83080e42 	movwhi	r0, #36418	; 0x8e42
 2d0:	00018e02 	andeq	r8, r1, r2, lsl #28
 2d4:	0000000c 	andeq	r0, r0, ip
 2d8:	ffffffff 			; <UNDEFINED> instruction: 0xffffffff
 2dc:	7c020001 	stcvc	0, cr0, [r2], {1}
 2e0:	000d0c0e 	andeq	r0, sp, lr, lsl #24
 2e4:	00000014 	andeq	r0, r0, r4, lsl r0
 2e8:	000002d4 	ldrdeq	r0, [r0], -r4
 2ec:	00009044 	andeq	r9, r0, r4, asr #32
 2f0:	000000f0 	strdeq	r0, [r0], -r0	; <UNPREDICTABLE>
 2f4:	84040e42 	strhi	r0, [r4], #-3650	; 0xe42
 2f8:	00000001 	andeq	r0, r0, r1
 2fc:	0000000c 	andeq	r0, r0, ip
 300:	ffffffff 			; <UNDEFINED> instruction: 0xffffffff
 304:	7c020001 	stcvc	0, cr0, [r2], {1}
 308:	000d0c0e 	andeq	r0, sp, lr, lsl #24
 30c:	0000000c 	andeq	r0, r0, ip
 310:	000002fc 	strdeq	r0, [r0], -ip
 314:	00009134 	andeq	r9, r0, r4, lsr r1
 318:	00000020 	andeq	r0, r0, r0, lsr #32
 31c:	0000000c 	andeq	r0, r0, ip
 320:	ffffffff 			; <UNDEFINED> instruction: 0xffffffff
 324:	7c020001 	stcvc	0, cr0, [r2], {1}
 328:	000d0c0e 	andeq	r0, sp, lr, lsl #24
 32c:	00000024 	andeq	r0, r0, r4, lsr #32
 330:	0000031c 	andeq	r0, r0, ip, lsl r3
 334:	00009154 	andeq	r9, r0, r4, asr r1
 338:	00000058 	andeq	r0, r0, r8, asr r0
 33c:	80100e42 	andshi	r0, r0, r2, asr #28
 340:	82038104 	andhi	r8, r3, #4, 2
 344:	42018302 	andmi	r8, r1, #134217728	; 0x8000000
 348:	07841c0e 	streq	r1, [r4, lr, lsl #24]
 34c:	058e0685 	streq	r0, [lr, #1669]	; 0x685
 350:	00280e42 	eoreq	r0, r8, r2, asr #28
 354:	0000000c 	andeq	r0, r0, ip
 358:	ffffffff 			; <UNDEFINED> instruction: 0xffffffff
 35c:	7c020001 	stcvc	0, cr0, [r2], {1}
 360:	000d0c0e 	andeq	r0, sp, lr, lsl #24
 364:	00000014 	andeq	r0, r0, r4, lsl r0
 368:	00000354 	andeq	r0, r0, r4, asr r3
 36c:	000091ac 	andeq	r9, r0, ip, lsr #3
 370:	00000014 	andeq	r0, r0, r4, lsl r0
 374:	84080e42 	strhi	r0, [r8], #-3650	; 0xe42
 378:	00018e02 	andeq	r8, r1, r2, lsl #28
 37c:	0000000c 	andeq	r0, r0, ip
 380:	00000354 	andeq	r0, r0, r4, asr r3
 384:	000091c0 	andeq	r9, r0, r0, asr #3
 388:	00000018 	andeq	r0, r0, r8, lsl r0
 38c:	0000000c 	andeq	r0, r0, ip
 390:	00000354 	andeq	r0, r0, r4, asr r3
 394:	000091d8 	ldrdeq	r9, [r0], -r8
 398:	00000010 	andeq	r0, r0, r0, lsl r0
 39c:	0000000c 	andeq	r0, r0, ip
 3a0:	ffffffff 			; <UNDEFINED> instruction: 0xffffffff
 3a4:	7c020001 	stcvc	0, cr0, [r2], {1}
 3a8:	000d0c0e 	andeq	r0, sp, lr, lsl #24
 3ac:	00000018 	andeq	r0, r0, r8, lsl r0
 3b0:	0000039c 	muleq	r0, ip, r3
 3b4:	000091e8 	andeq	r9, r0, r8, ror #3
 3b8:	00000034 	andeq	r0, r0, r4, lsr r0
 3bc:	83100e42 	tsthi	r0, #1056	; 0x420
 3c0:	85038404 	strhi	r8, [r3, #-1028]	; 0x404
 3c4:	00018e02 	andeq	r8, r1, r2, lsl #28
 3c8:	0000000c 	andeq	r0, r0, ip
 3cc:	ffffffff 			; <UNDEFINED> instruction: 0xffffffff
 3d0:	7c020001 	stcvc	0, cr0, [r2], {1}
 3d4:	000d0c0e 	andeq	r0, sp, lr, lsl #24
 3d8:	0000000c 	andeq	r0, r0, ip
 3dc:	000003c8 	andeq	r0, r0, r8, asr #7
 3e0:	0000921c 	andeq	r9, r0, ip, lsl r2
 3e4:	00000014 	andeq	r0, r0, r4, lsl r0
 3e8:	0000000c 	andeq	r0, r0, ip
 3ec:	000003c8 	andeq	r0, r0, r8, asr #7
 3f0:	00009230 	andeq	r9, r0, r0, lsr r2
 3f4:	0000002c 	andeq	r0, r0, ip, lsr #32
 3f8:	0000000c 	andeq	r0, r0, ip
 3fc:	000003c8 	andeq	r0, r0, r8, asr #7
 400:	0000925c 	andeq	r9, r0, ip, asr r2
 404:	00000040 	andeq	r0, r0, r0, asr #32
 408:	00000020 	andeq	r0, r0, r0, lsr #32
 40c:	000003c8 	andeq	r0, r0, r8, asr #7
 410:	0000929c 	muleq	r0, ip, r2
 414:	000001b0 			; <UNDEFINED> instruction: 0x000001b0
 418:	84180e42 	ldrhi	r0, [r8], #-3650	; 0xe42
 41c:	86058506 	strhi	r8, [r5], -r6, lsl #10
 420:	88038704 	stmdahi	r3, {r2, r8, r9, sl, pc}
 424:	42018e02 	andmi	r8, r1, #2, 28
 428:	0000580e 	andeq	r5, r0, lr, lsl #16
 42c:	00000014 	andeq	r0, r0, r4, lsl r0
 430:	000003c8 	andeq	r0, r0, r8, asr #7
 434:	0000944c 	andeq	r9, r0, ip, asr #8
 438:	00000054 	andeq	r0, r0, r4, asr r0
 43c:	83080e42 	movwhi	r0, #36418	; 0x8e42
 440:	00018e02 	andeq	r8, r1, r2, lsl #28
 444:	00000028 	andeq	r0, r0, r8, lsr #32
 448:	000003c8 	andeq	r0, r0, r8, asr #7
 44c:	000094a0 	andeq	r9, r0, r0, lsr #9
 450:	00000288 	andeq	r0, r0, r8, lsl #5
 454:	84240e42 	strthi	r0, [r4], #-3650	; 0xe42
 458:	86088509 	strhi	r8, [r8], -r9, lsl #10
 45c:	88068707 	stmdahi	r6, {r0, r1, r2, r8, r9, sl, pc}
 460:	8a048905 	bhi	12287c <__bss_end__+0x117bc4>
 464:	8e028b03 	vmlahi.f64	d8, d2, d3
 468:	b00e4201 	andlt	r4, lr, r1, lsl #4
 46c:	00000001 	andeq	r0, r0, r1
 470:	0000000c 	andeq	r0, r0, ip
 474:	ffffffff 			; <UNDEFINED> instruction: 0xffffffff
 478:	7c020001 	stcvc	0, cr0, [r2], {1}
 47c:	000d0c0e 	andeq	r0, sp, lr, lsl #24
 480:	00000014 	andeq	r0, r0, r4, lsl r0
 484:	00000470 	andeq	r0, r0, r0, ror r4
 488:	00009728 	andeq	r9, r0, r8, lsr #14
 48c:	00000028 	andeq	r0, r0, r8, lsr #32
 490:	83080e42 	movwhi	r0, #36418	; 0x8e42
 494:	00018e02 	andeq	r8, r1, r2, lsl #28
 498:	0000000c 	andeq	r0, r0, ip
 49c:	ffffffff 			; <UNDEFINED> instruction: 0xffffffff
 4a0:	7c020001 	stcvc	0, cr0, [r2], {1}
 4a4:	000d0c0e 	andeq	r0, sp, lr, lsl #24
 4a8:	00000014 	andeq	r0, r0, r4, lsl r0
 4ac:	00000498 	muleq	r0, r8, r4
 4b0:	00009750 	andeq	r9, r0, r0, asr r7
 4b4:	00000034 	andeq	r0, r0, r4, lsr r0
 4b8:	83080e42 	movwhi	r0, #36418	; 0x8e42
 4bc:	00018e02 	andeq	r8, r1, r2, lsl #28
 4c0:	0000000c 	andeq	r0, r0, ip
 4c4:	ffffffff 			; <UNDEFINED> instruction: 0xffffffff
 4c8:	7c020001 	stcvc	0, cr0, [r2], {1}
 4cc:	000d0c0e 	andeq	r0, sp, lr, lsl #24
 4d0:	0000000c 	andeq	r0, r0, ip
 4d4:	000004c0 	andeq	r0, r0, r0, asr #9
 4d8:	00009784 	andeq	r9, r0, r4, lsl #15
 4dc:	00000018 	andeq	r0, r0, r8, lsl r0
 4e0:	0000000c 	andeq	r0, r0, ip
 4e4:	000004c0 	andeq	r0, r0, r0, asr #9
 4e8:	0000979c 	muleq	r0, ip, r7
 4ec:	00000014 	andeq	r0, r0, r4, lsl r0
 4f0:	00000014 	andeq	r0, r0, r4, lsl r0
 4f4:	000004c0 	andeq	r0, r0, r0, asr #9
 4f8:	000097b0 			; <UNDEFINED> instruction: 0x000097b0
 4fc:	00000048 	andeq	r0, r0, r8, asr #32
 500:	83080e42 	movwhi	r0, #36418	; 0x8e42
 504:	00018e02 	andeq	r8, r1, r2, lsl #28
 508:	0000000c 	andeq	r0, r0, ip
 50c:	ffffffff 			; <UNDEFINED> instruction: 0xffffffff
 510:	7c020001 	stcvc	0, cr0, [r2], {1}
 514:	000d0c0e 	andeq	r0, sp, lr, lsl #24
 518:	0000000c 	andeq	r0, r0, ip
 51c:	00000508 	andeq	r0, r0, r8, lsl #10
 520:	000097f8 	strdeq	r9, [r0], -r8
 524:	0000001c 	andeq	r0, r0, ip, lsl r0
 528:	00000014 	andeq	r0, r0, r4, lsl r0
 52c:	00000508 	andeq	r0, r0, r8, lsl #10
 530:	00009814 	andeq	r9, r0, r4, lsl r8
 534:	00000014 	andeq	r0, r0, r4, lsl r0
 538:	83080e42 	movwhi	r0, #36418	; 0x8e42
 53c:	00018e02 	andeq	r8, r1, r2, lsl #28
 540:	00000014 	andeq	r0, r0, r4, lsl r0
 544:	00000508 	andeq	r0, r0, r8, lsl #10
 548:	00009828 	andeq	r9, r0, r8, lsr #16
 54c:	0000000c 	andeq	r0, r0, ip
 550:	83080e42 	movwhi	r0, #36418	; 0x8e42
 554:	00018e02 	andeq	r8, r1, r2, lsl #28
 558:	00000018 	andeq	r0, r0, r8, lsl r0
 55c:	00000508 	andeq	r0, r0, r8, lsl #10
 560:	00009834 	andeq	r9, r0, r4, lsr r8
 564:	00000024 	andeq	r0, r0, r4, lsr #32
 568:	83100e42 	tsthi	r0, #1056	; 0x420
 56c:	85038404 	strhi	r8, [r3, #-1028]	; 0x404
 570:	00018e02 	andeq	r8, r1, r2, lsl #28
 574:	00000014 	andeq	r0, r0, r4, lsl r0
 578:	00000508 	andeq	r0, r0, r8, lsl #10
 57c:	00009858 	andeq	r9, r0, r8, asr r8
 580:	00000014 	andeq	r0, r0, r4, lsl r0
 584:	83080e42 	movwhi	r0, #36418	; 0x8e42
 588:	00018e02 	andeq	r8, r1, r2, lsl #28
 58c:	00000014 	andeq	r0, r0, r4, lsl r0
 590:	00000508 	andeq	r0, r0, r8, lsl #10
 594:	0000986c 	andeq	r9, r0, ip, ror #16
 598:	00000014 	andeq	r0, r0, r4, lsl r0
 59c:	83080e42 	movwhi	r0, #36418	; 0x8e42
 5a0:	00018e02 	andeq	r8, r1, r2, lsl #28
 5a4:	0000000c 	andeq	r0, r0, ip
 5a8:	ffffffff 			; <UNDEFINED> instruction: 0xffffffff
 5ac:	7c020001 	stcvc	0, cr0, [r2], {1}
 5b0:	000d0c0e 	andeq	r0, sp, lr, lsl #24
 5b4:	00000018 	andeq	r0, r0, r8, lsl r0
 5b8:	000005a4 	andeq	r0, r0, r4, lsr #11
 5bc:	000098cc 	andeq	r9, r0, ip, asr #17
 5c0:	00000020 	andeq	r0, r0, r0, lsr #32
 5c4:	84100e42 	ldrhi	r0, [r0], #-3650	; 0xe42
 5c8:	86038504 	strhi	r8, [r3], -r4, lsl #10
 5cc:	00018e02 	andeq	r8, r1, r2, lsl #28
 5d0:	00000014 	andeq	r0, r0, r4, lsl r0
 5d4:	000005a4 	andeq	r0, r0, r4, lsr #11
 5d8:	000098ec 	andeq	r9, r0, ip, ror #17
 5dc:	000000b0 	strheq	r0, [r0], -r0	; <UNPREDICTABLE>
 5e0:	84080e42 	strhi	r0, [r8], #-3650	; 0xe42
 5e4:	00018e02 	andeq	r8, r1, r2, lsl #28
 5e8:	00000014 	andeq	r0, r0, r4, lsl r0
 5ec:	000005a4 	andeq	r0, r0, r4, lsr #11
 5f0:	0000999c 	muleq	r0, ip, r9
 5f4:	00000018 	andeq	r0, r0, r8, lsl r0
 5f8:	84080e42 	strhi	r0, [r8], #-3650	; 0xe42
 5fc:	00018e02 	andeq	r8, r1, r2, lsl #28
 600:	00000014 	andeq	r0, r0, r4, lsl r0
 604:	000005a4 	andeq	r0, r0, r4, lsr #11
 608:	000099b4 			; <UNDEFINED> instruction: 0x000099b4
 60c:	00000020 	andeq	r0, r0, r0, lsr #32
 610:	84080e42 	strhi	r0, [r8], #-3650	; 0xe42
 614:	00018e02 	andeq	r8, r1, r2, lsl #28
 618:	00000014 	andeq	r0, r0, r4, lsl r0
 61c:	000005a4 	andeq	r0, r0, r4, lsr #11
 620:	000099d4 	ldrdeq	r9, [r0], -r4
 624:	00000030 	andeq	r0, r0, r0, lsr r0
 628:	84080e42 	strhi	r0, [r8], #-3650	; 0xe42
 62c:	00018e02 	andeq	r8, r1, r2, lsl #28
 630:	00000014 	andeq	r0, r0, r4, lsl r0
 634:	000005a4 	andeq	r0, r0, r4, lsr #11
 638:	00009a04 	andeq	r9, r0, r4, lsl #20
 63c:	00000030 	andeq	r0, r0, r0, lsr r0
 640:	84080e42 	strhi	r0, [r8], #-3650	; 0xe42
 644:	00018e02 	andeq	r8, r1, r2, lsl #28
 648:	00000014 	andeq	r0, r0, r4, lsl r0
 64c:	000005a4 	andeq	r0, r0, r4, lsr #11
 650:	00009a34 	andeq	r9, r0, r4, lsr sl
 654:	00000010 	andeq	r0, r0, r0, lsl r0
 658:	84080e42 	strhi	r0, [r8], #-3650	; 0xe42
 65c:	00018e02 	andeq	r8, r1, r2, lsl #28
 660:	0000000c 	andeq	r0, r0, ip
 664:	ffffffff 			; <UNDEFINED> instruction: 0xffffffff
 668:	7c020001 	stcvc	0, cr0, [r2], {1}
 66c:	000d0c0e 	andeq	r0, sp, lr, lsl #24
 670:	00000018 	andeq	r0, r0, r8, lsl r0
 674:	00000660 	andeq	r0, r0, r0, ror #12
 678:	00009a44 	andeq	r9, r0, r4, asr #20
 67c:	00000068 	andeq	r0, r0, r8, rrx
 680:	84100e4a 	ldrhi	r0, [r0], #-3658	; 0xe4a
 684:	86038504 	strhi	r8, [r3], -r4, lsl #10
 688:	00018e02 	andeq	r8, r1, r2, lsl #28
 68c:	00000014 	andeq	r0, r0, r4, lsl r0
 690:	00000660 	andeq	r0, r0, r0, ror #12
 694:	00009aac 	andeq	r9, r0, ip, lsr #21
 698:	00000010 	andeq	r0, r0, r0, lsl r0
 69c:	84080e42 	strhi	r0, [r8], #-3650	; 0xe42
 6a0:	00018e02 	andeq	r8, r1, r2, lsl #28
 6a4:	00000014 	andeq	r0, r0, r4, lsl r0
 6a8:	00000660 	andeq	r0, r0, r0, ror #12
 6ac:	00009abc 			; <UNDEFINED> instruction: 0x00009abc
 6b0:	00000024 	andeq	r0, r0, r4, lsr #32
 6b4:	84080e46 	strhi	r0, [r8], #-3654	; 0xe46
 6b8:	00018e02 	andeq	r8, r1, r2, lsl #28
 6bc:	00000014 	andeq	r0, r0, r4, lsl r0
 6c0:	00000660 	andeq	r0, r0, r0, ror #12
 6c4:	00009ae0 	andeq	r9, r0, r0, ror #21
 6c8:	00000024 	andeq	r0, r0, r4, lsr #32
 6cc:	84080e46 	strhi	r0, [r8], #-3654	; 0xe46
 6d0:	00018e02 	andeq	r8, r1, r2, lsl #28
 6d4:	00000014 	andeq	r0, r0, r4, lsl r0
 6d8:	00000660 	andeq	r0, r0, r0, ror #12
 6dc:	00009b04 	andeq	r9, r0, r4, lsl #22
 6e0:	00000010 	andeq	r0, r0, r0, lsl r0
 6e4:	84080e42 	strhi	r0, [r8], #-3650	; 0xe42
 6e8:	00018e02 	andeq	r8, r1, r2, lsl #28
 6ec:	00000014 	andeq	r0, r0, r4, lsl r0
 6f0:	00000660 	andeq	r0, r0, r0, ror #12
 6f4:	00009b14 	andeq	r9, r0, r4, lsl fp
 6f8:	0000001c 	andeq	r0, r0, ip, lsl r0
 6fc:	84080e42 	strhi	r0, [r8], #-3650	; 0xe42
 700:	00018e02 	andeq	r8, r1, r2, lsl #28
 704:	00000018 	andeq	r0, r0, r8, lsl r0
 708:	00000660 	andeq	r0, r0, r0, ror #12
 70c:	00009b30 	andeq	r9, r0, r0, lsr fp
 710:	00000034 	andeq	r0, r0, r4, lsr r0
 714:	84080e46 	strhi	r0, [r8], #-3654	; 0xe46
 718:	4e018e02 	cdpmi	14, 0, cr8, cr1, cr2, {0}
 71c:	cec4000e 	cdpgt	0, 12, cr0, cr4, cr14, {0}
 720:	0000000c 	andeq	r0, r0, ip
 724:	ffffffff 			; <UNDEFINED> instruction: 0xffffffff
 728:	7c020001 	stcvc	0, cr0, [r2], {1}
 72c:	000d0c0e 	andeq	r0, sp, lr, lsl #24
 730:	0000000c 	andeq	r0, r0, ip
 734:	00000720 	andeq	r0, r0, r0, lsr #14
 738:	00009b64 	andeq	r9, r0, r4, ror #22
 73c:	00000010 	andeq	r0, r0, r0, lsl r0
 740:	0000000c 	andeq	r0, r0, ip
 744:	00000720 	andeq	r0, r0, r0, lsr #14
 748:	00009b74 	andeq	r9, r0, r4, ror fp
 74c:	0000000c 	andeq	r0, r0, ip
 750:	00000014 	andeq	r0, r0, r4, lsl r0
 754:	00000720 	andeq	r0, r0, r0, lsr #14
 758:	00009b80 	andeq	r9, r0, r0, lsl #23
 75c:	00000050 	andeq	r0, r0, r0, asr r0
 760:	84080e52 	strhi	r0, [r8], #-3666	; 0xe52
 764:	00018e02 	andeq	r8, r1, r2, lsl #28
 768:	00000014 	andeq	r0, r0, r4, lsl r0
 76c:	00000720 	andeq	r0, r0, r0, lsr #14
 770:	00009bd0 	ldrdeq	r9, [r0], -r0
 774:	00000064 	andeq	r0, r0, r4, rrx
 778:	84080e42 	strhi	r0, [r8], #-3650	; 0xe42
 77c:	00018e02 	andeq	r8, r1, r2, lsl #28
 780:	0000000c 	andeq	r0, r0, ip
 784:	00000720 	andeq	r0, r0, r0, lsr #14
 788:	00009c34 	andeq	r9, r0, r4, lsr ip
 78c:	00000004 	andeq	r0, r0, r4
 790:	00000014 	andeq	r0, r0, r4, lsl r0
 794:	00000720 	andeq	r0, r0, r0, lsr #14
 798:	00009c38 	andeq	r9, r0, r8, lsr ip
 79c:	0000000c 	andeq	r0, r0, ip
 7a0:	84080e42 	strhi	r0, [r8], #-3650	; 0xe42
 7a4:	00018e02 	andeq	r8, r1, r2, lsl #28
 7a8:	00000014 	andeq	r0, r0, r4, lsl r0
 7ac:	00000720 	andeq	r0, r0, r0, lsr #14
 7b0:	00009c44 	andeq	r9, r0, r4, asr #24
 7b4:	0000008c 	andeq	r0, r0, ip, lsl #1
 7b8:	84080e42 	strhi	r0, [r8], #-3650	; 0xe42
 7bc:	00018e02 	andeq	r8, r1, r2, lsl #28
 7c0:	0000000c 	andeq	r0, r0, ip
 7c4:	00000720 	andeq	r0, r0, r0, lsr #14
 7c8:	00009cd0 	ldrdeq	r9, [r0], -r0
 7cc:	00000004 	andeq	r0, r0, r4
 7d0:	0000000c 	andeq	r0, r0, ip
 7d4:	00000720 	andeq	r0, r0, r0, lsr #14
 7d8:	00009cd4 	ldrdeq	r9, [r0], -r4
 7dc:	00000014 	andeq	r0, r0, r4, lsl r0
 7e0:	0000000c 	andeq	r0, r0, ip
 7e4:	00000720 	andeq	r0, r0, r0, lsr #14
 7e8:	00009ce8 	andeq	r9, r0, r8, ror #25
 7ec:	00000010 	andeq	r0, r0, r0, lsl r0

Disassembly of section .debug_ranges:

00000000 <.debug_ranges>:
   0:	0000060c 	andeq	r0, r0, ip, lsl #12
   4:	00000614 	andeq	r0, r0, r4, lsl r6
   8:	00000618 	andeq	r0, r0, r8, lsl r6
   c:	000006c4 	andeq	r0, r0, r4, asr #13
	...
  18:	00000358 	andeq	r0, r0, r8, asr r3
  1c:	0000036c 	andeq	r0, r0, ip, ror #6
  20:	00000370 	andeq	r0, r0, r0, ror r3
  24:	0000037c 	andeq	r0, r0, ip, ror r3
	...
  30:	00000400 	andeq	r0, r0, r0, lsl #8
  34:	0000040c 	andeq	r0, r0, ip, lsl #8
  38:	00000428 	andeq	r0, r0, r8, lsr #8
  3c:	00000460 	andeq	r0, r0, r0, ror #8
	...
  48:	000002a8 	andeq	r0, r0, r8, lsr #5
  4c:	000002ac 	andeq	r0, r0, ip, lsr #5
  50:	000002dc 	ldrdeq	r0, [r0], -ip
  54:	000004cc 	andeq	r0, r0, ip, asr #9
	...
  60:	00009784 	andeq	r9, r0, r4, lsl #15
  64:	000097f8 	strdeq	r9, [r0], -r8
	...
