
tests/part2-test2.elf:     file format elf32-littlearm


Disassembly of section .text:

00008000 <_start>:
    8000:	e3a0d302 	mov	sp, #134217728	; 0x8000000
    8004:	e3a0b000 	mov	fp, #0
    8008:	eb000510 	bl	9450 <_cstart>
    800c:	eb000527 	bl	94b0 <rpi_reboot>

00008010 <test>:
    8010:	e92d4070 	push	{r4, r5, r6, lr}
    8014:	e59f6060 	ldr	r6, [pc, #96]	; 807c <test+0x6c>
    8018:	e59f0060 	ldr	r0, [pc, #96]	; 8080 <test+0x70>
    801c:	e1a01006 	mov	r1, r6
    8020:	e59f205c 	ldr	r2, [pc, #92]	; 8084 <test+0x74>
    8024:	e59f305c 	ldr	r3, [pc, #92]	; 8088 <test+0x78>
    8028:	eb000389 	bl	8e54 <printk>
    802c:	e59f5058 	ldr	r5, [pc, #88]	; 808c <test+0x7c>
    8030:	e59f4058 	ldr	r4, [pc, #88]	; 8090 <test+0x80>
    8034:	e3a00004 	mov	r0, #4
    8038:	e1a01005 	mov	r1, r5
    803c:	e1a02004 	mov	r2, r4
    8040:	e3a0301a 	mov	r3, #26
    8044:	eb0000f6 	bl	8424 <ckalloc>
    8048:	e5860000 	str	r0, [r6]
    804c:	e3a01000 	mov	r1, #0
    8050:	e3a02004 	mov	r2, #4
    8054:	eb000376 	bl	8e34 <memset>
    8058:	e3a00004 	mov	r0, #4
    805c:	e1a01005 	mov	r1, r5
    8060:	e1a02004 	mov	r2, r4
    8064:	e3a0301d 	mov	r3, #29
    8068:	eb0000ed 	bl	8424 <ckalloc>
    806c:	e1a04000 	mov	r4, r0
    8070:	eb0002c6 	bl	8b90 <check_no_leak>
    8074:	e1a00004 	mov	r0, r4
    8078:	e8bd8070 	pop	{r4, r5, r6, pc}
    807c:	0000a7f8 	strdeq	sl, [r0], -r8
    8080:	00009a28 	andeq	r9, r0, r8, lsr #20
    8084:	00009a10 	andeq	r9, r0, r0, lsl sl
    8088:	00009a20 	andeq	r9, r0, r0, lsr #20
    808c:	00009a50 	andeq	r9, r0, r0, asr sl
    8090:	00009a20 	andeq	r9, r0, r0, lsr #20

00008094 <notmain>:
    8094:	e92d4008 	push	{r3, lr}
    8098:	e59f002c 	ldr	r0, [pc, #44]	; 80cc <notmain+0x38>
    809c:	eb00036c 	bl	8e54 <printk>
    80a0:	e3a00601 	mov	r0, #1048576	; 0x100000
    80a4:	eb0005f5 	bl	9880 <kmalloc_init_set_start>
    80a8:	e3a00601 	mov	r0, #1048576	; 0x100000
    80ac:	eb000607 	bl	98d0 <kmalloc>
    80b0:	e3a01601 	mov	r1, #1048576	; 0x100000
    80b4:	eb00008e 	bl	82f4 <ck_init>
    80b8:	ebffffd4 	bl	8010 <test>
    80bc:	e1a01000 	mov	r1, r0
    80c0:	e59f0008 	ldr	r0, [pc, #8]	; 80d0 <notmain+0x3c>
    80c4:	eb000362 	bl	8e54 <printk>
    80c8:	e8bd8008 	pop	{r3, pc}
    80cc:	00009a64 	andeq	r9, r0, r4, ror #20
    80d0:	00009aac 	andeq	r9, r0, ip, lsr #21

000080d4 <check_mem>:
    80d4:	e92d40f8 	push	{r3, r4, r5, r6, r7, lr}
    80d8:	e1a05000 	mov	r5, r0
    80dc:	e3a03000 	mov	r3, #0
    80e0:	ea00002d 	b	819c <check_mem+0xc8>
    80e4:	e0814003 	add	r4, r1, r3
    80e8:	e7d1c003 	ldrb	ip, [r1, r3]
    80ec:	e35c00fe 	cmp	ip, #254	; 0xfe
    80f0:	0a000028 	beq	8198 <check_mem+0xc4>
    80f4:	e28570b8 	add	r7, r5, #184	; 0xb8
    80f8:	e0674004 	rsb	r4, r7, r4
    80fc:	e59f60b8 	ldr	r6, [pc, #184]	; 81bc <check_mem+0xe8>
    8100:	e1a00006 	mov	r0, r6
    8104:	eb000352 	bl	8e54 <printk>
    8108:	e59f00b0 	ldr	r0, [pc, #176]	; 81c0 <check_mem+0xec>
    810c:	eb000350 	bl	8e54 <printk>
    8110:	e59f00ac 	ldr	r0, [pc, #172]	; 81c4 <check_mem+0xf0>
    8114:	e1a01007 	mov	r1, r7
    8118:	e1a02004 	mov	r2, r4
    811c:	eb00034c 	bl	8e54 <printk>
    8120:	e1a00006 	mov	r0, r6
    8124:	eb00034a 	bl	8e54 <printk>
    8128:	e59f0098 	ldr	r0, [pc, #152]	; 81c8 <check_mem+0xf4>
    812c:	e5951000 	ldr	r1, [r5]
    8130:	eb000347 	bl	8e54 <printk>
    8134:	e5953010 	ldr	r3, [r5, #16]
    8138:	e3530000 	cmp	r3, #0
    813c:	0a000006 	beq	815c <check_mem+0x88>
    8140:	e1a00006 	mov	r0, r6
    8144:	eb000342 	bl	8e54 <printk>
    8148:	e59f007c 	ldr	r0, [pc, #124]	; 81cc <check_mem+0xf8>
    814c:	e5951010 	ldr	r1, [r5, #16]
    8150:	e5952014 	ldr	r2, [r5, #20]
    8154:	e5953018 	ldr	r3, [r5, #24]
    8158:	eb00033d 	bl	8e54 <printk>
    815c:	e5953008 	ldr	r3, [r5, #8]
    8160:	e353000c 	cmp	r3, #12
    8164:	1a000010 	bne	81ac <check_mem+0xd8>
    8168:	e595301c 	ldr	r3, [r5, #28]
    816c:	e3530000 	cmp	r3, #0
    8170:	0a00000f 	beq	81b4 <check_mem+0xe0>
    8174:	e59f0040 	ldr	r0, [pc, #64]	; 81bc <check_mem+0xe8>
    8178:	eb000335 	bl	8e54 <printk>
    817c:	e59f004c 	ldr	r0, [pc, #76]	; 81d0 <check_mem+0xfc>
    8180:	e595101c 	ldr	r1, [r5, #28]
    8184:	e5952020 	ldr	r2, [r5, #32]
    8188:	e5953024 	ldr	r3, [r5, #36]	; 0x24
    818c:	eb000330 	bl	8e54 <printk>
    8190:	e3a00000 	mov	r0, #0
    8194:	e8bd80f8 	pop	{r3, r4, r5, r6, r7, pc}
    8198:	e2833001 	add	r3, r3, #1
    819c:	e1530002 	cmp	r3, r2
    81a0:	3affffcf 	bcc	80e4 <check_mem+0x10>
    81a4:	e3a00001 	mov	r0, #1
    81a8:	e8bd80f8 	pop	{r3, r4, r5, r6, r7, pc}
    81ac:	e3a00000 	mov	r0, #0
    81b0:	e8bd80f8 	pop	{r3, r4, r5, r6, r7, pc}
    81b4:	e3a00000 	mov	r0, #0
    81b8:	e8bd80f8 	pop	{r3, r4, r5, r6, r7, pc}
    81bc:	00009afc 	strdeq	r9, [r0], -ip
    81c0:	00009b04 	andeq	r9, r0, r4, lsl #22
    81c4:	00009b0c 	andeq	r9, r0, ip, lsl #22
    81c8:	00009b30 	andeq	r9, r0, r0, lsr fp
    81cc:	00009b3c 	andeq	r9, r0, ip, lsr fp
    81d0:	00009b5c 	andeq	r9, r0, ip, asr fp

000081d4 <mark_mem>:
    81d4:	e92d4008 	push	{r3, lr}
    81d8:	e1a02001 	mov	r2, r1
    81dc:	e3a010fe 	mov	r1, #254	; 0xfe
    81e0:	eb000313 	bl	8e34 <memset>
    81e4:	e8bd8008 	pop	{r3, pc}

000081e8 <hdr_cksum>:
    81e8:	e92d4038 	push	{r3, r4, r5, lr}
    81ec:	e1a04000 	mov	r4, r0
    81f0:	e590500c 	ldr	r5, [r0, #12]
    81f4:	e3a03000 	mov	r3, #0
    81f8:	e580300c 	str	r3, [r0, #12]
    81fc:	e3a01038 	mov	r1, #56	; 0x38
    8200:	eb0002cf 	bl	8d44 <fast_hash>
    8204:	e584500c 	str	r5, [r4, #12]
    8208:	e8bd8038 	pop	{r3, r4, r5, pc}

0000820c <check_hdr>:
    820c:	e92d4010 	push	{r4, lr}
    8210:	e1a04000 	mov	r4, r0
    8214:	ebfffff3 	bl	81e8 <hdr_cksum>
    8218:	e594300c 	ldr	r3, [r4, #12]
    821c:	e1530000 	cmp	r3, r0
    8220:	0a000006 	beq	8240 <check_hdr+0x34>
    8224:	eb000325 	bl	8ec0 <rpi_reset_putc>
    8228:	e59f0044 	ldr	r0, [pc, #68]	; 8274 <check_hdr+0x68>
    822c:	e59f1044 	ldr	r1, [pc, #68]	; 8278 <check_hdr+0x6c>
    8230:	e59f2044 	ldr	r2, [pc, #68]	; 827c <check_hdr+0x70>
    8234:	e3a03021 	mov	r3, #33	; 0x21
    8238:	eb000305 	bl	8e54 <printk>
    823c:	eb000479 	bl	9428 <clean_reboot>
    8240:	e5943008 	ldr	r3, [r4, #8]
    8244:	e243300b 	sub	r3, r3, #11
    8248:	e3530001 	cmp	r3, #1
    824c:	9a000006 	bls	826c <check_hdr+0x60>
    8250:	eb00031a 	bl	8ec0 <rpi_reset_putc>
    8254:	e59f0024 	ldr	r0, [pc, #36]	; 8280 <check_hdr+0x74>
    8258:	e59f1018 	ldr	r1, [pc, #24]	; 8278 <check_hdr+0x6c>
    825c:	e59f2018 	ldr	r2, [pc, #24]	; 827c <check_hdr+0x70>
    8260:	e3a03022 	mov	r3, #34	; 0x22
    8264:	eb0002fa 	bl	8e54 <printk>
    8268:	eb00046e 	bl	9428 <clean_reboot>
    826c:	e3a00001 	mov	r0, #1
    8270:	e8bd8010 	pop	{r4, pc}
    8274:	00009b78 	andeq	r9, r0, r8, ror fp
    8278:	00009ba4 	andeq	r9, r0, r4, lsr #23
    827c:	00009abc 			; <UNDEFINED> instruction: 0x00009abc
    8280:	00009bb0 			; <UNDEFINED> instruction: 0x00009bb0

00008284 <check_block>:
    8284:	e92d4010 	push	{r4, lr}
    8288:	e1a04000 	mov	r4, r0
    828c:	ebffffde 	bl	820c <check_hdr>
    8290:	e3500000 	cmp	r0, #0
    8294:	0a000010 	beq	82dc <check_block+0x58>
    8298:	e1a00004 	mov	r0, r4
    829c:	e2841038 	add	r1, r4, #56	; 0x38
    82a0:	e3a02080 	mov	r2, #128	; 0x80
    82a4:	ebffff8a 	bl	80d4 <check_mem>
    82a8:	e3500000 	cmp	r0, #0
    82ac:	0a00000c 	beq	82e4 <check_block+0x60>
    82b0:	e28410b8 	add	r1, r4, #184	; 0xb8
    82b4:	e5943000 	ldr	r3, [r4]
    82b8:	e5942004 	ldr	r2, [r4, #4]
    82bc:	e1a00004 	mov	r0, r4
    82c0:	e0811003 	add	r1, r1, r3
    82c4:	e2822080 	add	r2, r2, #128	; 0x80
    82c8:	ebffff81 	bl	80d4 <check_mem>
    82cc:	e3500000 	cmp	r0, #0
    82d0:	0a000005 	beq	82ec <check_block+0x68>
    82d4:	e3a00001 	mov	r0, #1
    82d8:	e8bd8010 	pop	{r4, pc}
    82dc:	e3a00000 	mov	r0, #0
    82e0:	e8bd8010 	pop	{r4, pc}
    82e4:	e3a00000 	mov	r0, #0
    82e8:	e8bd8010 	pop	{r4, pc}
    82ec:	e3a00000 	mov	r0, #0
    82f0:	e8bd8010 	pop	{r4, pc}

000082f4 <ck_init>:
    82f4:	e92d4038 	push	{r3, r4, r5, lr}
    82f8:	e1a04000 	mov	r4, r0
    82fc:	e1a05001 	mov	r5, r1
    8300:	e59f304c 	ldr	r3, [pc, #76]	; 8354 <ck_init+0x60>
    8304:	e5933000 	ldr	r3, [r3]
    8308:	e3130007 	tst	r3, #7
    830c:	0a000006 	beq	832c <ck_init+0x38>
    8310:	eb0002ea 	bl	8ec0 <rpi_reset_putc>
    8314:	e59f003c 	ldr	r0, [pc, #60]	; 8358 <ck_init+0x64>
    8318:	e59f103c 	ldr	r1, [pc, #60]	; 835c <ck_init+0x68>
    831c:	e59f203c 	ldr	r2, [pc, #60]	; 8360 <ck_init+0x6c>
    8320:	e3a0300b 	mov	r3, #11
    8324:	eb0002ca 	bl	8e54 <printk>
    8328:	eb00043e 	bl	9428 <clean_reboot>
    832c:	e59f0030 	ldr	r0, [pc, #48]	; 8364 <ck_init+0x70>
    8330:	e3a01038 	mov	r1, #56	; 0x38
    8334:	e3a02080 	mov	r2, #128	; 0x80
    8338:	eb0002c5 	bl	8e54 <printk>
    833c:	e59f3010 	ldr	r3, [pc, #16]	; 8354 <ck_init+0x60>
    8340:	e5834000 	str	r4, [r3]
    8344:	e5834004 	str	r4, [r3, #4]
    8348:	e0844005 	add	r4, r4, r5
    834c:	e5834008 	str	r4, [r3, #8]
    8350:	e8bd8038 	pop	{r3, r4, r5, pc}
    8354:	0000a3ec 	andeq	sl, r0, ip, ror #7
    8358:	00009bec 	andeq	r9, r0, ip, ror #23
    835c:	00009ba4 	andeq	r9, r0, r4, lsr #23
    8360:	00009ac8 	andeq	r9, r0, r8, asr #21
    8364:	00009c14 	andeq	r9, r0, r4, lsl ip

00008368 <ckfree>:
    8368:	e92d41f0 	push	{r4, r5, r6, r7, r8, lr}
    836c:	e1a04000 	mov	r4, r0
    8370:	e1a08001 	mov	r8, r1
    8374:	e1a07002 	mov	r7, r2
    8378:	e1a06003 	mov	r6, r3
    837c:	e59f0088 	ldr	r0, [pc, #136]	; 840c <ckfree+0xa4>
    8380:	e5900004 	ldr	r0, [r0, #4]
    8384:	e3500000 	cmp	r0, #0
    8388:	1a000006 	bne	83a8 <ckfree+0x40>
    838c:	eb0002cb 	bl	8ec0 <rpi_reset_putc>
    8390:	e59f0078 	ldr	r0, [pc, #120]	; 8410 <ckfree+0xa8>
    8394:	e59f1078 	ldr	r1, [pc, #120]	; 8414 <ckfree+0xac>
    8398:	e59f2078 	ldr	r2, [pc, #120]	; 8418 <ckfree+0xb0>
    839c:	e3a0304a 	mov	r3, #74	; 0x4a
    83a0:	eb0002ab 	bl	8e54 <printk>
    83a4:	eb00041f 	bl	9428 <clean_reboot>
    83a8:	e59f006c 	ldr	r0, [pc, #108]	; 841c <ckfree+0xb4>
    83ac:	eb0002a8 	bl	8e54 <printk>
    83b0:	e59f0068 	ldr	r0, [pc, #104]	; 8420 <ckfree+0xb8>
    83b4:	e1a01004 	mov	r1, r4
    83b8:	eb0002a5 	bl	8e54 <printk>
    83bc:	e24450b8 	sub	r5, r4, #184	; 0xb8
    83c0:	e1a00005 	mov	r0, r5
    83c4:	ebffffae 	bl	8284 <check_block>
    83c8:	e3500000 	cmp	r0, #0
    83cc:	08bd81f0 	popeq	{r4, r5, r6, r7, r8, pc}
    83d0:	e51430b0 	ldr	r3, [r4, #-176]	; 0xb0
    83d4:	e353000c 	cmp	r3, #12
    83d8:	08bd81f0 	popeq	{r4, r5, r6, r7, r8, pc}
    83dc:	e3a0300c 	mov	r3, #12
    83e0:	e50430b0 	str	r3, [r4, #-176]	; 0xb0
    83e4:	e1a00004 	mov	r0, r4
    83e8:	e51410b8 	ldr	r1, [r4, #-184]	; 0xb8
    83ec:	ebffff78 	bl	81d4 <mark_mem>
    83f0:	e504809c 	str	r8, [r4, #-156]	; 0x9c
    83f4:	e5047098 	str	r7, [r4, #-152]	; 0x98
    83f8:	e5046094 	str	r6, [r4, #-148]	; 0x94
    83fc:	e1a00005 	mov	r0, r5
    8400:	ebffff78 	bl	81e8 <hdr_cksum>
    8404:	e50400ac 	str	r0, [r4, #-172]	; 0xac
    8408:	e8bd81f0 	pop	{r4, r5, r6, r7, r8, pc}
    840c:	0000a3ec 	andeq	sl, r0, ip, ror #7
    8410:	00009c30 	andeq	r9, r0, r0, lsr ip
    8414:	00009ba4 	andeq	r9, r0, r4, lsr #23
    8418:	00009ad0 	ldrdeq	r9, [r0], -r0
    841c:	00009afc 	strdeq	r9, [r0], -ip
    8420:	00009c64 	andeq	r9, r0, r4, ror #24

00008424 <ckalloc>:
    8424:	e92d43f0 	push	{r4, r5, r6, r7, r8, r9, lr}
    8428:	e24dd00c 	sub	sp, sp, #12
    842c:	e1a05000 	mov	r5, r0
    8430:	e1a09001 	mov	r9, r1
    8434:	e1a08002 	mov	r8, r2
    8438:	e1a07003 	mov	r7, r3
    843c:	e59f31dc 	ldr	r3, [pc, #476]	; 8620 <ckalloc+0x1fc>
    8440:	e5933004 	ldr	r3, [r3, #4]
    8444:	e3530000 	cmp	r3, #0
    8448:	1a000006 	bne	8468 <ckalloc+0x44>
    844c:	eb00029b 	bl	8ec0 <rpi_reset_putc>
    8450:	e59f01cc 	ldr	r0, [pc, #460]	; 8624 <ckalloc+0x200>
    8454:	e59f11cc 	ldr	r1, [pc, #460]	; 8628 <ckalloc+0x204>
    8458:	e59f21cc 	ldr	r2, [pc, #460]	; 862c <ckalloc+0x208>
    845c:	e3a03066 	mov	r3, #102	; 0x66
    8460:	eb00027b 	bl	8e54 <printk>
    8464:	eb0003ef 	bl	9428 <clean_reboot>
    8468:	e59f01c0 	ldr	r0, [pc, #448]	; 8630 <ckalloc+0x20c>
    846c:	eb000278 	bl	8e54 <printk>
    8470:	e59f01bc 	ldr	r0, [pc, #444]	; 8634 <ckalloc+0x210>
    8474:	e1a01005 	mov	r1, r5
    8478:	eb000275 	bl	8e54 <printk>
    847c:	e285c007 	add	ip, r5, #7
    8480:	e3ccc007 	bic	ip, ip, #7
    8484:	e28c6f4e 	add	r6, ip, #312	; 0x138
    8488:	e1560005 	cmp	r6, r5
    848c:	2a00000c 	bcs	84c4 <ckalloc+0xa0>
    8490:	e59f01a0 	ldr	r0, [pc, #416]	; 8638 <ckalloc+0x214>
    8494:	eb00026e 	bl	8e54 <printk>
    8498:	e59f019c 	ldr	r0, [pc, #412]	; 863c <ckalloc+0x218>
    849c:	e1a01005 	mov	r1, r5
    84a0:	eb00026b 	bl	8e54 <printk>
    84a4:	eb000285 	bl	8ec0 <rpi_reset_putc>
    84a8:	e58d5000 	str	r5, [sp]
    84ac:	e59f018c 	ldr	r0, [pc, #396]	; 8640 <ckalloc+0x21c>
    84b0:	e59f1170 	ldr	r1, [pc, #368]	; 8628 <ckalloc+0x204>
    84b4:	e59f2170 	ldr	r2, [pc, #368]	; 862c <ckalloc+0x208>
    84b8:	e3a0306e 	mov	r3, #110	; 0x6e
    84bc:	eb000264 	bl	8e54 <printk>
    84c0:	eb0003d8 	bl	9428 <clean_reboot>
    84c4:	e59f0154 	ldr	r0, [pc, #340]	; 8620 <ckalloc+0x1fc>
    84c8:	e5904004 	ldr	r4, [r0, #4]
    84cc:	e0842006 	add	r2, r4, r6
    84d0:	e5903008 	ldr	r3, [r0, #8]
    84d4:	e1520003 	cmp	r2, r3
    84d8:	3a000014 	bcc	8530 <ckalloc+0x10c>
    84dc:	e59f0154 	ldr	r0, [pc, #340]	; 8638 <ckalloc+0x214>
    84e0:	eb00025b 	bl	8e54 <printk>
    84e4:	e59f4134 	ldr	r4, [pc, #308]	; 8620 <ckalloc+0x1fc>
    84e8:	e5941008 	ldr	r1, [r4, #8]
    84ec:	e5943004 	ldr	r3, [r4, #4]
    84f0:	e59f014c 	ldr	r0, [pc, #332]	; 8644 <ckalloc+0x220>
    84f4:	e0631001 	rsb	r1, r3, r1
    84f8:	e1a02006 	mov	r2, r6
    84fc:	eb000254 	bl	8e54 <printk>
    8500:	eb00026e 	bl	8ec0 <rpi_reset_putc>
    8504:	e5942008 	ldr	r2, [r4, #8]
    8508:	e5943004 	ldr	r3, [r4, #4]
    850c:	e0633002 	rsb	r3, r3, r2
    8510:	e58d3000 	str	r3, [sp]
    8514:	e58d6004 	str	r6, [sp, #4]
    8518:	e59f0128 	ldr	r0, [pc, #296]	; 8648 <ckalloc+0x224>
    851c:	e59f1104 	ldr	r1, [pc, #260]	; 8628 <ckalloc+0x204>
    8520:	e59f2104 	ldr	r2, [pc, #260]	; 862c <ckalloc+0x208>
    8524:	e3a03072 	mov	r3, #114	; 0x72
    8528:	eb000249 	bl	8e54 <printk>
    852c:	eb0003bd 	bl	9428 <clean_reboot>
    8530:	e5845000 	str	r5, [r4]
    8534:	e065c00c 	rsb	ip, r5, ip
    8538:	e584c004 	str	ip, [r4, #4]
    853c:	e3a0300b 	mov	r3, #11
    8540:	e5843008 	str	r3, [r4, #8]
    8544:	e5849010 	str	r9, [r4, #16]
    8548:	e5848014 	str	r8, [r4, #20]
    854c:	e5847018 	str	r7, [r4, #24]
    8550:	e3a03000 	mov	r3, #0
    8554:	e584301c 	str	r3, [r4, #28]
    8558:	e5843020 	str	r3, [r4, #32]
    855c:	e5843024 	str	r3, [r4, #36]	; 0x24
    8560:	e1a00004 	mov	r0, r4
    8564:	ebffff1f 	bl	81e8 <hdr_cksum>
    8568:	e584000c 	str	r0, [r4, #12]
    856c:	e2840038 	add	r0, r4, #56	; 0x38
    8570:	e3a01080 	mov	r1, #128	; 0x80
    8574:	ebffff16 	bl	81d4 <mark_mem>
    8578:	e28470b8 	add	r7, r4, #184	; 0xb8
    857c:	e5940000 	ldr	r0, [r4]
    8580:	e5941004 	ldr	r1, [r4, #4]
    8584:	e0870000 	add	r0, r7, r0
    8588:	e2811080 	add	r1, r1, #128	; 0x80
    858c:	ebffff10 	bl	81d4 <mark_mem>
    8590:	e59f3088 	ldr	r3, [pc, #136]	; 8620 <ckalloc+0x1fc>
    8594:	e5932004 	ldr	r2, [r3, #4]
    8598:	e0822006 	add	r2, r2, r6
    859c:	e5832004 	str	r2, [r3, #4]
    85a0:	e1a00004 	mov	r0, r4
    85a4:	ebffff18 	bl	820c <check_hdr>
    85a8:	e3500000 	cmp	r0, #0
    85ac:	1a000006 	bne	85cc <ckalloc+0x1a8>
    85b0:	eb000242 	bl	8ec0 <rpi_reset_putc>
    85b4:	e59f0090 	ldr	r0, [pc, #144]	; 864c <ckalloc+0x228>
    85b8:	e59f1068 	ldr	r1, [pc, #104]	; 8628 <ckalloc+0x204>
    85bc:	e59f2068 	ldr	r2, [pc, #104]	; 862c <ckalloc+0x208>
    85c0:	e3a0308b 	mov	r3, #139	; 0x8b
    85c4:	eb000222 	bl	8e54 <printk>
    85c8:	eb000396 	bl	9428 <clean_reboot>
    85cc:	e1a00004 	mov	r0, r4
    85d0:	ebffff2b 	bl	8284 <check_block>
    85d4:	e3500000 	cmp	r0, #0
    85d8:	1a000006 	bne	85f8 <ckalloc+0x1d4>
    85dc:	eb000237 	bl	8ec0 <rpi_reset_putc>
    85e0:	e59f0068 	ldr	r0, [pc, #104]	; 8650 <ckalloc+0x22c>
    85e4:	e59f103c 	ldr	r1, [pc, #60]	; 8628 <ckalloc+0x204>
    85e8:	e59f203c 	ldr	r2, [pc, #60]	; 862c <ckalloc+0x208>
    85ec:	e3a0308c 	mov	r3, #140	; 0x8c
    85f0:	eb000217 	bl	8e54 <printk>
    85f4:	eb00038b 	bl	9428 <clean_reboot>
    85f8:	e59f0030 	ldr	r0, [pc, #48]	; 8630 <ckalloc+0x20c>
    85fc:	eb000214 	bl	8e54 <printk>
    8600:	e59f004c 	ldr	r0, [pc, #76]	; 8654 <ckalloc+0x230>
    8604:	e1a01005 	mov	r1, r5
    8608:	e1a02006 	mov	r2, r6
    860c:	e1a03007 	mov	r3, r7
    8610:	eb00020f 	bl	8e54 <printk>
    8614:	e1a00007 	mov	r0, r7
    8618:	e28dd00c 	add	sp, sp, #12
    861c:	e8bd83f0 	pop	{r4, r5, r6, r7, r8, r9, pc}
    8620:	0000a3ec 	andeq	sl, r0, ip, ror #7
    8624:	00009c30 	andeq	r9, r0, r0, lsr ip
    8628:	00009ba4 	andeq	r9, r0, r4, lsr #23
    862c:	00009ad8 	ldrdeq	r9, [r0], -r8
    8630:	00009afc 	strdeq	r9, [r0], -ip
    8634:	00009c70 	andeq	r9, r0, r0, ror ip
    8638:	00009c88 	andeq	r9, r0, r8, lsl #25
    863c:	00009c94 	muleq	r0, r4, ip
    8640:	00009cbc 			; <UNDEFINED> instruction: 0x00009cbc
    8644:	00009cf4 	strdeq	r9, [r0], -r4
    8648:	00009d20 	andeq	r9, r0, r0, lsr #26
    864c:	00009d5c 	andeq	r9, r0, ip, asr sp
    8650:	00009d7c 	andeq	r9, r0, ip, ror sp
    8654:	00009d9c 	muleq	r0, ip, sp

00008658 <ck_first_hdr>:
    8658:	e92d4010 	push	{r4, lr}
    865c:	e59f3034 	ldr	r3, [pc, #52]	; 8698 <ck_first_hdr+0x40>
    8660:	e5934000 	ldr	r4, [r3]
    8664:	e1a00004 	mov	r0, r4
    8668:	ebfffee7 	bl	820c <check_hdr>
    866c:	e3500000 	cmp	r0, #0
    8670:	1a000006 	bne	8690 <ck_first_hdr+0x38>
    8674:	eb000211 	bl	8ec0 <rpi_reset_putc>
    8678:	e59f001c 	ldr	r0, [pc, #28]	; 869c <ck_first_hdr+0x44>
    867c:	e59f101c 	ldr	r1, [pc, #28]	; 86a0 <ck_first_hdr+0x48>
    8680:	e59f201c 	ldr	r2, [pc, #28]	; 86a4 <ck_first_hdr+0x4c>
    8684:	e3a03095 	mov	r3, #149	; 0x95
    8688:	eb0001f1 	bl	8e54 <printk>
    868c:	eb000365 	bl	9428 <clean_reboot>
    8690:	e1a00004 	mov	r0, r4
    8694:	e8bd8010 	pop	{r4, pc}
    8698:	0000a3ec 	andeq	sl, r0, ip, ror #7
    869c:	00009dcc 	andeq	r9, r0, ip, asr #27
    86a0:	00009ba4 	andeq	r9, r0, r4, lsr #23
    86a4:	00009ae0 	andeq	r9, r0, r0, ror #21

000086a8 <ck_next_hdr>:
    86a8:	e92d4010 	push	{r4, lr}
    86ac:	e5904000 	ldr	r4, [r0]
    86b0:	e5903004 	ldr	r3, [r0, #4]
    86b4:	e0844003 	add	r4, r4, r3
    86b8:	e2844f4e 	add	r4, r4, #312	; 0x138
    86bc:	e0804004 	add	r4, r0, r4
    86c0:	e59f3044 	ldr	r3, [pc, #68]	; 870c <ck_next_hdr+0x64>
    86c4:	e5933004 	ldr	r3, [r3, #4]
    86c8:	e1540003 	cmp	r4, r3
    86cc:	0a00000a 	beq	86fc <ck_next_hdr+0x54>
    86d0:	e1a00004 	mov	r0, r4
    86d4:	ebfffecc 	bl	820c <check_hdr>
    86d8:	e3500000 	cmp	r0, #0
    86dc:	1a000008 	bne	8704 <ck_next_hdr+0x5c>
    86e0:	eb0001f6 	bl	8ec0 <rpi_reset_putc>
    86e4:	e59f0024 	ldr	r0, [pc, #36]	; 8710 <ck_next_hdr+0x68>
    86e8:	e59f1024 	ldr	r1, [pc, #36]	; 8714 <ck_next_hdr+0x6c>
    86ec:	e59f2024 	ldr	r2, [pc, #36]	; 8718 <ck_next_hdr+0x70>
    86f0:	e3a030a3 	mov	r3, #163	; 0xa3
    86f4:	eb0001d6 	bl	8e54 <printk>
    86f8:	eb00034a 	bl	9428 <clean_reboot>
    86fc:	e3a00000 	mov	r0, #0
    8700:	e8bd8010 	pop	{r4, pc}
    8704:	e1a00004 	mov	r0, r4
    8708:	e8bd8010 	pop	{r4, pc}
    870c:	0000a3ec 	andeq	sl, r0, ip, ror #7
    8710:	00009df0 	strdeq	r9, [r0], -r0
    8714:	00009ba4 	andeq	r9, r0, r4, lsr #23
    8718:	00009af0 	strdeq	r9, [r0], -r0

0000871c <heap_info>:
    871c:	e59f1024 	ldr	r1, [pc, #36]	; 8748 <heap_info+0x2c>
    8720:	e591c000 	ldr	ip, [r1]
    8724:	e580c000 	str	ip, [r0]
    8728:	e5912004 	ldr	r2, [r1, #4]
    872c:	e5802004 	str	r2, [r0, #4]
    8730:	e5911008 	ldr	r1, [r1, #8]
    8734:	e0621001 	rsb	r1, r2, r1
    8738:	e5801008 	str	r1, [r0, #8]
    873c:	e06c2002 	rsb	r2, ip, r2
    8740:	e580200c 	str	r2, [r0, #12]
    8744:	e12fff1e 	bx	lr
    8748:	0000a3ec 	andeq	sl, r0, ip, ror #7

0000874c <ck_heap_errors>:
    874c:	e92d43f8 	push	{r3, r4, r5, r6, r7, r8, r9, lr}
    8750:	e59f4118 	ldr	r4, [pc, #280]	; 8870 <ck_heap_errors+0x124>
    8754:	e5943004 	ldr	r3, [r4, #4]
    8758:	e5946000 	ldr	r6, [r4]
    875c:	e0666003 	rsb	r6, r6, r3
    8760:	e5945008 	ldr	r5, [r4, #8]
    8764:	e0635005 	rsb	r5, r3, r5
    8768:	e59f0104 	ldr	r0, [pc, #260]	; 8874 <ck_heap_errors+0x128>
    876c:	eb0001b8 	bl	8e54 <printk>
    8770:	e59f0100 	ldr	r0, [pc, #256]	; 8878 <ck_heap_errors+0x12c>
    8774:	e1a01006 	mov	r1, r6
    8778:	e1a02005 	mov	r2, r5
    877c:	eb0001b4 	bl	8e54 <printk>
    8780:	e5944000 	ldr	r4, [r4]
    8784:	e3a05000 	mov	r5, #0
    8788:	e1a06005 	mov	r6, r5
    878c:	e59f70dc 	ldr	r7, [pc, #220]	; 8870 <ck_heap_errors+0x124>
    8790:	e59f90dc 	ldr	r9, [pc, #220]	; 8874 <ck_heap_errors+0x128>
    8794:	e59f80e0 	ldr	r8, [pc, #224]	; 887c <ck_heap_errors+0x130>
    8798:	ea000021 	b	8824 <ck_heap_errors+0xd8>
    879c:	e1a00004 	mov	r0, r4
    87a0:	ebfffe99 	bl	820c <check_hdr>
    87a4:	e3500000 	cmp	r0, #0
    87a8:	1a000005 	bne	87c4 <ck_heap_errors+0x78>
    87ac:	e59f00c0 	ldr	r0, [pc, #192]	; 8874 <ck_heap_errors+0x128>
    87b0:	eb0001a7 	bl	8e54 <printk>
    87b4:	e59f00c4 	ldr	r0, [pc, #196]	; 8880 <ck_heap_errors+0x134>
    87b8:	eb0001a5 	bl	8e54 <printk>
    87bc:	e2866001 	add	r6, r6, #1
    87c0:	ea00001a 	b	8830 <ck_heap_errors+0xe4>
    87c4:	e1a00004 	mov	r0, r4
    87c8:	ebfffead 	bl	8284 <check_block>
    87cc:	e3500000 	cmp	r0, #0
    87d0:	02866001 	addeq	r6, r6, #1
    87d4:	e5943008 	ldr	r3, [r4, #8]
    87d8:	e353000c 	cmp	r3, #12
    87dc:	1a00000a 	bne	880c <ck_heap_errors+0xc0>
    87e0:	e1a00004 	mov	r0, r4
    87e4:	e28410b8 	add	r1, r4, #184	; 0xb8
    87e8:	e5942000 	ldr	r2, [r4]
    87ec:	ebfffe38 	bl	80d4 <check_mem>
    87f0:	e3500000 	cmp	r0, #0
    87f4:	1a000004 	bne	880c <ck_heap_errors+0xc0>
    87f8:	e1a00009 	mov	r0, r9
    87fc:	eb000194 	bl	8e54 <printk>
    8800:	e1a00008 	mov	r0, r8
    8804:	eb000192 	bl	8e54 <printk>
    8808:	e2866001 	add	r6, r6, #1
    880c:	e5942000 	ldr	r2, [r4]
    8810:	e5943004 	ldr	r3, [r4, #4]
    8814:	e0823003 	add	r3, r2, r3
    8818:	e2833f4e 	add	r3, r3, #312	; 0x138
    881c:	e0844003 	add	r4, r4, r3
    8820:	e2855001 	add	r5, r5, #1
    8824:	e5973004 	ldr	r3, [r7, #4]
    8828:	e1530004 	cmp	r3, r4
    882c:	1affffda 	bne	879c <ck_heap_errors+0x50>
    8830:	e3560000 	cmp	r6, #0
    8834:	0a000006 	beq	8854 <ck_heap_errors+0x108>
    8838:	e59f0034 	ldr	r0, [pc, #52]	; 8874 <ck_heap_errors+0x128>
    883c:	eb000184 	bl	8e54 <printk>
    8840:	e59f003c 	ldr	r0, [pc, #60]	; 8884 <ck_heap_errors+0x138>
    8844:	e1a01005 	mov	r1, r5
    8848:	e1a02006 	mov	r2, r6
    884c:	eb000180 	bl	8e54 <printk>
    8850:	ea000004 	b	8868 <ck_heap_errors+0x11c>
    8854:	e59f0018 	ldr	r0, [pc, #24]	; 8874 <ck_heap_errors+0x128>
    8858:	eb00017d 	bl	8e54 <printk>
    885c:	e59f0024 	ldr	r0, [pc, #36]	; 8888 <ck_heap_errors+0x13c>
    8860:	e1a01005 	mov	r1, r5
    8864:	eb00017a 	bl	8e54 <printk>
    8868:	e1a00006 	mov	r0, r6
    886c:	e8bd83f8 	pop	{r3, r4, r5, r6, r7, r8, r9, pc}
    8870:	0000a3ec 	andeq	sl, r0, ip, ror #7
    8874:	00009afc 	strdeq	r9, [r0], -ip
    8878:	00009e14 	andeq	r9, r0, r4, lsl lr
    887c:	00009e60 	andeq	r9, r0, r0, ror #28
    8880:	00009e4c 	andeq	r9, r0, ip, asr #28
    8884:	00009e7c 	andeq	r9, r0, ip, ror lr
    8888:	00009ea4 	andeq	r9, r0, r4, lsr #29

0000888c <in_heap>:
    888c:	e3500000 	cmp	r0, #0
    8890:	1a000001 	bne	889c <in_heap+0x10>
    8894:	e3a00001 	mov	r0, #1
    8898:	e12fff1e 	bx	lr
    889c:	e3a00000 	mov	r0, #0
    88a0:	e12fff1e 	bx	lr

000088a4 <is_ptr>:
    88a4:	e92d4010 	push	{r4, lr}
    88a8:	e1a04000 	mov	r4, r0
    88ac:	ebfffff6 	bl	888c <in_heap>
    88b0:	e3500000 	cmp	r0, #0
    88b4:	0a00000c 	beq	88ec <is_ptr+0x48>
    88b8:	ebffff66 	bl	8658 <ck_first_hdr>
    88bc:	ea000007 	b	88e0 <is_ptr+0x3c>
    88c0:	e28030b8 	add	r3, r0, #184	; 0xb8
    88c4:	e1530004 	cmp	r3, r4
    88c8:	8a000003 	bhi	88dc <is_ptr+0x38>
    88cc:	e5902000 	ldr	r2, [r0]
    88d0:	e0833002 	add	r3, r3, r2
    88d4:	e1530004 	cmp	r3, r4
    88d8:	28bd8010 	popcs	{r4, pc}
    88dc:	ebffff71 	bl	86a8 <ck_next_hdr>
    88e0:	e3500000 	cmp	r0, #0
    88e4:	1afffff5 	bne	88c0 <is_ptr+0x1c>
    88e8:	e8bd8010 	pop	{r4, pc}
    88ec:	e3a00000 	mov	r0, #0
    88f0:	e8bd8010 	pop	{r4, pc}

000088f4 <sweep_leak>:
    88f4:	e92d4070 	push	{r4, r5, r6, lr}
    88f8:	e59f0074 	ldr	r0, [pc, #116]	; 8974 <sweep_leak+0x80>
    88fc:	eb000154 	bl	8e54 <printk>
    8900:	e59f0070 	ldr	r0, [pc, #112]	; 8978 <sweep_leak+0x84>
    8904:	eb000152 	bl	8e54 <printk>
    8908:	ebffff52 	bl	8658 <ck_first_hdr>
    890c:	e3a04000 	mov	r4, #0
    8910:	e3a0600c 	mov	r6, #12
    8914:	e1a05004 	mov	r5, r4
    8918:	ea000005 	b	8934 <sweep_leak+0x40>
    891c:	e1d033b4 	ldrh	r3, [r0, #52]	; 0x34
    8920:	e3530000 	cmp	r3, #0
    8924:	11c053b4 	strhne	r5, [r0, #52]	; 0x34
    8928:	05806008 	streq	r6, [r0, #8]
    892c:	e2844001 	add	r4, r4, #1
    8930:	ebffff5c 	bl	86a8 <ck_next_hdr>
    8934:	e3500000 	cmp	r0, #0
    8938:	1afffff7 	bne	891c <sweep_leak+0x28>
    893c:	e59f5038 	ldr	r5, [pc, #56]	; 897c <sweep_leak+0x88>
    8940:	e1a00005 	mov	r0, r5
    8944:	eb000142 	bl	8e54 <printk>
    8948:	e59f0030 	ldr	r0, [pc, #48]	; 8980 <sweep_leak+0x8c>
    894c:	e1a01004 	mov	r1, r4
    8950:	eb00013f 	bl	8e54 <printk>
    8954:	e1a00005 	mov	r0, r5
    8958:	eb00013d 	bl	8e54 <printk>
    895c:	e59f0020 	ldr	r0, [pc, #32]	; 8984 <sweep_leak+0x90>
    8960:	eb00013b 	bl	8e54 <printk>
    8964:	e59f001c 	ldr	r0, [pc, #28]	; 8988 <sweep_leak+0x94>
    8968:	eb000139 	bl	8e54 <printk>
    896c:	e3a00000 	mov	r0, #0
    8970:	e8bd8070 	pop	{r4, r5, r6, pc}
    8974:	00009f28 	andeq	r9, r0, r8, lsr #30
    8978:	00009f64 	andeq	r9, r0, r4, ror #30
    897c:	00009afc 	strdeq	r9, [r0], -ip
    8980:	00009f7c 	andeq	r9, r0, ip, ror pc
    8984:	00009f94 	muleq	r0, r4, pc	; <UNPREDICTABLE>
    8988:	00009fb4 			; <UNDEFINED> instruction: 0x00009fb4

0000898c <mark>:
    898c:	e92d40f8 	push	{r3, r4, r5, r6, r7, lr}
    8990:	e1500001 	cmp	r0, r1
    8994:	3a000006 	bcc	89b4 <mark+0x28>
    8998:	eb000148 	bl	8ec0 <rpi_reset_putc>
    899c:	e59f00c0 	ldr	r0, [pc, #192]	; 8a64 <mark+0xd8>
    89a0:	e59f10c0 	ldr	r1, [pc, #192]	; 8a68 <mark+0xdc>
    89a4:	e59f20c0 	ldr	r2, [pc, #192]	; 8a6c <mark+0xe0>
    89a8:	e3a03045 	mov	r3, #69	; 0x45
    89ac:	eb000128 	bl	8e54 <printk>
    89b0:	eb00029c 	bl	9428 <clean_reboot>
    89b4:	e1a06000 	mov	r6, r0
    89b8:	e3100003 	tst	r0, #3
    89bc:	0a000006 	beq	89dc <mark+0x50>
    89c0:	eb00013e 	bl	8ec0 <rpi_reset_putc>
    89c4:	e59f00a4 	ldr	r0, [pc, #164]	; 8a70 <mark+0xe4>
    89c8:	e59f1098 	ldr	r1, [pc, #152]	; 8a68 <mark+0xdc>
    89cc:	e59f2098 	ldr	r2, [pc, #152]	; 8a6c <mark+0xe0>
    89d0:	e3a03047 	mov	r3, #71	; 0x47
    89d4:	eb00011e 	bl	8e54 <printk>
    89d8:	eb000292 	bl	9428 <clean_reboot>
    89dc:	e3110003 	tst	r1, #3
    89e0:	0a000018 	beq	8a48 <mark+0xbc>
    89e4:	eb000135 	bl	8ec0 <rpi_reset_putc>
    89e8:	e59f0084 	ldr	r0, [pc, #132]	; 8a74 <mark+0xe8>
    89ec:	e59f1074 	ldr	r1, [pc, #116]	; 8a68 <mark+0xdc>
    89f0:	e59f2074 	ldr	r2, [pc, #116]	; 8a6c <mark+0xe0>
    89f4:	e3a03048 	mov	r3, #72	; 0x48
    89f8:	eb000115 	bl	8e54 <printk>
    89fc:	eb000289 	bl	9428 <clean_reboot>
    8a00:	e0860004 	add	r0, r6, r4
    8a04:	ebffffa6 	bl	88a4 <is_ptr>
    8a08:	e3500000 	cmp	r0, #0
    8a0c:	0a00000b 	beq	8a40 <mark+0xb4>
    8a10:	e1d023b4 	ldrh	r2, [r0, #52]	; 0x34
    8a14:	e3520000 	cmp	r2, #0
    8a18:	1a000008 	bne	8a40 <mark+0xb4>
    8a1c:	e1c073b4 	strh	r7, [r0, #52]	; 0x34
    8a20:	e28020b8 	add	r2, r0, #184	; 0xb8
    8a24:	e5901000 	ldr	r1, [r0]
    8a28:	e5903004 	ldr	r3, [r0, #4]
    8a2c:	e0811003 	add	r1, r1, r3
    8a30:	e2811f4e 	add	r1, r1, #312	; 0x138
    8a34:	e1a00002 	mov	r0, r2
    8a38:	e0821101 	add	r1, r2, r1, lsl #2
    8a3c:	ebffffd2 	bl	898c <mark>
    8a40:	e2844001 	add	r4, r4, #1
    8a44:	ea000003 	b	8a58 <mark+0xcc>
    8a48:	e3a04000 	mov	r4, #0
    8a4c:	e0605001 	rsb	r5, r0, r1
    8a50:	e1a05145 	asr	r5, r5, #2
    8a54:	e3a07001 	mov	r7, #1
    8a58:	e1550004 	cmp	r5, r4
    8a5c:	2affffe7 	bcs	8a00 <mark+0x74>
    8a60:	e8bd80f8 	pop	{r3, r4, r5, r6, r7, pc}
    8a64:	00009ff0 	strdeq	r9, [r0], -r0
    8a68:	0000a004 	andeq	sl, r0, r4
    8a6c:	00009ed4 	ldrdeq	r9, [r0], -r4
    8a70:	0000a00c 	andeq	sl, r0, ip
    8a74:	0000a02c 	andeq	sl, r0, ip, lsr #32

00008a78 <mark_all>:
    8a78:	e92d4010 	push	{r4, lr}
    8a7c:	e24dd050 	sub	sp, sp, #80	; 0x50
    8a80:	ebfffef4 	bl	8658 <ck_first_hdr>
    8a84:	e3a04000 	mov	r4, #0
    8a88:	ea000003 	b	8a9c <mark_all+0x24>
    8a8c:	e580402c 	str	r4, [r0, #44]	; 0x2c
    8a90:	e5804028 	str	r4, [r0, #40]	; 0x28
    8a94:	e1c043b4 	strh	r4, [r0, #52]	; 0x34
    8a98:	ebffff02 	bl	86a8 <ck_next_hdr>
    8a9c:	e3500000 	cmp	r0, #0
    8aa0:	1afffff9 	bne	8a8c <mark_all+0x14>
    8aa4:	e28d0040 	add	r0, sp, #64	; 0x40
    8aa8:	ebffff1b 	bl	871c <heap_info>
    8aac:	e1a0400d 	mov	r4, sp
    8ab0:	e1a0000d 	mov	r0, sp
    8ab4:	eb000091 	bl	8d00 <dump_regs>
    8ab8:	e59d3000 	ldr	r3, [sp]
    8abc:	e1530004 	cmp	r3, r4
    8ac0:	0a000006 	beq	8ae0 <mark_all+0x68>
    8ac4:	eb0000fd 	bl	8ec0 <rpi_reset_putc>
    8ac8:	e59f0048 	ldr	r0, [pc, #72]	; 8b18 <mark_all+0xa0>
    8acc:	e59f1048 	ldr	r1, [pc, #72]	; 8b1c <mark_all+0xa4>
    8ad0:	e59f2048 	ldr	r2, [pc, #72]	; 8b20 <mark_all+0xa8>
    8ad4:	e3a0308e 	mov	r3, #142	; 0x8e
    8ad8:	eb0000dd 	bl	8e54 <printk>
    8adc:	eb000251 	bl	9428 <clean_reboot>
    8ae0:	e1a0000d 	mov	r0, sp
    8ae4:	e28d1038 	add	r1, sp, #56	; 0x38
    8ae8:	ebffffa7 	bl	898c <mark>
    8aec:	e59d0034 	ldr	r0, [sp, #52]	; 0x34
    8af0:	e3a01302 	mov	r1, #134217728	; 0x8000000
    8af4:	ebffffa4 	bl	898c <mark>
    8af8:	e59f0024 	ldr	r0, [pc, #36]	; 8b24 <mark_all+0xac>
    8afc:	e59f1024 	ldr	r1, [pc, #36]	; 8b28 <mark_all+0xb0>
    8b00:	ebffffa1 	bl	898c <mark>
    8b04:	e59f0020 	ldr	r0, [pc, #32]	; 8b2c <mark_all+0xb4>
    8b08:	e59f1020 	ldr	r1, [pc, #32]	; 8b30 <mark_all+0xb8>
    8b0c:	ebffff9e 	bl	898c <mark>
    8b10:	e28dd050 	add	sp, sp, #80	; 0x50
    8b14:	e8bd8010 	pop	{r4, pc}
    8b18:	0000a04c 	andeq	sl, r0, ip, asr #32
    8b1c:	0000a004 	andeq	sl, r0, r4
    8b20:	00009edc 	ldrdeq	r9, [r0], -ip
    8b24:	0000a3ec 	andeq	sl, r0, ip, ror #7
    8b28:	0000a800 	andeq	sl, r0, r0, lsl #16
    8b2c:	00009a10 	andeq	r9, r0, r0, lsl sl
    8b30:	00009a20 	andeq	r9, r0, r0, lsr #20

00008b34 <sweep_free>:
    8b34:	e92d4008 	push	{r3, lr}
    8b38:	e59f0024 	ldr	r0, [pc, #36]	; 8b64 <sweep_free+0x30>
    8b3c:	eb0000c4 	bl	8e54 <printk>
    8b40:	e59f0020 	ldr	r0, [pc, #32]	; 8b68 <sweep_free+0x34>
    8b44:	eb0000c2 	bl	8e54 <printk>
    8b48:	eb0000dc 	bl	8ec0 <rpi_reset_putc>
    8b4c:	e59f0018 	ldr	r0, [pc, #24]	; 8b6c <sweep_free+0x38>
    8b50:	e59f1018 	ldr	r1, [pc, #24]	; 8b70 <sweep_free+0x3c>
    8b54:	e59f2018 	ldr	r2, [pc, #24]	; 8b74 <sweep_free+0x40>
    8b58:	e3a030de 	mov	r3, #222	; 0xde
    8b5c:	eb0000bc 	bl	8e54 <printk>
    8b60:	eb000230 	bl	9428 <clean_reboot>
    8b64:	00009f28 	andeq	r9, r0, r8, lsr #30
    8b68:	0000a07c 	andeq	sl, r0, ip, ror r0
    8b6c:	0000a08c 	andeq	sl, r0, ip, lsl #1
    8b70:	0000a004 	andeq	sl, r0, r4
    8b74:	00009ee8 	andeq	r9, r0, r8, ror #29

00008b78 <ck_find_leaks>:
    8b78:	e92d4010 	push	{r4, lr}
    8b7c:	e1a04000 	mov	r4, r0
    8b80:	ebffffbc 	bl	8a78 <mark_all>
    8b84:	e1a00004 	mov	r0, r4
    8b88:	ebffff59 	bl	88f4 <sweep_leak>
    8b8c:	e8bd8010 	pop	{r4, pc}

00008b90 <check_no_leak>:
    8b90:	e92d4008 	push	{r3, lr}
    8b94:	ebfffeec 	bl	874c <ck_heap_errors>
    8b98:	e3500000 	cmp	r0, #0
    8b9c:	0a000006 	beq	8bbc <check_no_leak+0x2c>
    8ba0:	eb0000c6 	bl	8ec0 <rpi_reset_putc>
    8ba4:	e59f0060 	ldr	r0, [pc, #96]	; 8c0c <check_no_leak+0x7c>
    8ba8:	e59f1060 	ldr	r1, [pc, #96]	; 8c10 <check_no_leak+0x80>
    8bac:	e59f2060 	ldr	r2, [pc, #96]	; 8c14 <check_no_leak+0x84>
    8bb0:	e3a030b6 	mov	r3, #182	; 0xb6
    8bb4:	eb0000a6 	bl	8e54 <printk>
    8bb8:	eb00021a 	bl	9428 <clean_reboot>
    8bbc:	e59f0054 	ldr	r0, [pc, #84]	; 8c18 <check_no_leak+0x88>
    8bc0:	eb0000a3 	bl	8e54 <printk>
    8bc4:	e59f0050 	ldr	r0, [pc, #80]	; 8c1c <check_no_leak+0x8c>
    8bc8:	eb0000a1 	bl	8e54 <printk>
    8bcc:	e3a00001 	mov	r0, #1
    8bd0:	ebffffe8 	bl	8b78 <ck_find_leaks>
    8bd4:	e3500000 	cmp	r0, #0
    8bd8:	0a000006 	beq	8bf8 <check_no_leak+0x68>
    8bdc:	eb0000b7 	bl	8ec0 <rpi_reset_putc>
    8be0:	e59f0038 	ldr	r0, [pc, #56]	; 8c20 <check_no_leak+0x90>
    8be4:	e59f1024 	ldr	r1, [pc, #36]	; 8c10 <check_no_leak+0x80>
    8be8:	e59f2024 	ldr	r2, [pc, #36]	; 8c14 <check_no_leak+0x84>
    8bec:	e3a030ba 	mov	r3, #186	; 0xba
    8bf0:	eb000097 	bl	8e54 <printk>
    8bf4:	eb00020b 	bl	9428 <clean_reboot>
    8bf8:	e59f0018 	ldr	r0, [pc, #24]	; 8c18 <check_no_leak+0x88>
    8bfc:	eb000094 	bl	8e54 <printk>
    8c00:	e59f001c 	ldr	r0, [pc, #28]	; 8c24 <check_no_leak+0x94>
    8c04:	eb000092 	bl	8e54 <printk>
    8c08:	e8bd8008 	pop	{r3, pc}
    8c0c:	0000a0b8 	strheq	sl, [r0], -r8
    8c10:	0000a004 	andeq	sl, r0, r4
    8c14:	00009ef4 	strdeq	r9, [r0], -r4
    8c18:	00009afc 	strdeq	r9, [r0], -ip
    8c1c:	0000a0e0 	andeq	sl, r0, r0, ror #1
    8c20:	0000a100 	andeq	sl, r0, r0, lsl #2
    8c24:	0000a12c 	andeq	sl, r0, ip, lsr #2

00008c28 <check_should_leak>:
    8c28:	e92d4010 	push	{r4, lr}
    8c2c:	ebfffec6 	bl	874c <ck_heap_errors>
    8c30:	e3500000 	cmp	r0, #0
    8c34:	0a000006 	beq	8c54 <check_should_leak+0x2c>
    8c38:	eb0000a0 	bl	8ec0 <rpi_reset_putc>
    8c3c:	e59f0068 	ldr	r0, [pc, #104]	; 8cac <check_should_leak+0x84>
    8c40:	e59f1068 	ldr	r1, [pc, #104]	; 8cb0 <check_should_leak+0x88>
    8c44:	e59f2068 	ldr	r2, [pc, #104]	; 8cb4 <check_should_leak+0x8c>
    8c48:	e3a030c7 	mov	r3, #199	; 0xc7
    8c4c:	eb000080 	bl	8e54 <printk>
    8c50:	eb0001f4 	bl	9428 <clean_reboot>
    8c54:	e59f005c 	ldr	r0, [pc, #92]	; 8cb8 <check_should_leak+0x90>
    8c58:	eb00007d 	bl	8e54 <printk>
    8c5c:	e59f0058 	ldr	r0, [pc, #88]	; 8cbc <check_should_leak+0x94>
    8c60:	eb00007b 	bl	8e54 <printk>
    8c64:	e3a00001 	mov	r0, #1
    8c68:	ebffffc2 	bl	8b78 <ck_find_leaks>
    8c6c:	e2504000 	subs	r4, r0, #0
    8c70:	1a000006 	bne	8c90 <check_should_leak+0x68>
    8c74:	eb000091 	bl	8ec0 <rpi_reset_putc>
    8c78:	e59f0040 	ldr	r0, [pc, #64]	; 8cc0 <check_should_leak+0x98>
    8c7c:	e59f102c 	ldr	r1, [pc, #44]	; 8cb0 <check_should_leak+0x88>
    8c80:	e59f202c 	ldr	r2, [pc, #44]	; 8cb4 <check_should_leak+0x8c>
    8c84:	e3a030cd 	mov	r3, #205	; 0xcd
    8c88:	eb000071 	bl	8e54 <printk>
    8c8c:	eb0001e5 	bl	9428 <clean_reboot>
    8c90:	e59f0020 	ldr	r0, [pc, #32]	; 8cb8 <check_should_leak+0x90>
    8c94:	eb00006e 	bl	8e54 <printk>
    8c98:	e59f0024 	ldr	r0, [pc, #36]	; 8cc4 <check_should_leak+0x9c>
    8c9c:	e1a01004 	mov	r1, r4
    8ca0:	eb00006b 	bl	8e54 <printk>
    8ca4:	e1a00004 	mov	r0, r4
    8ca8:	e8bd8010 	pop	{r4, pc}
    8cac:	0000a0b8 	strheq	sl, [r0], -r8
    8cb0:	0000a004 	andeq	sl, r0, r4
    8cb4:	00009f04 	andeq	r9, r0, r4, lsl #30
    8cb8:	00009afc 	strdeq	r9, [r0], -ip
    8cbc:	0000a0e0 	andeq	sl, r0, r0, ror #1
    8cc0:	0000a144 	andeq	sl, r0, r4, asr #2
    8cc4:	0000a16c 	andeq	sl, r0, ip, ror #2

00008cc8 <implement_this>:
    8cc8:	e92d4008 	push	{r3, lr}
    8ccc:	eb00007b 	bl	8ec0 <rpi_reset_putc>
    8cd0:	e59f0010 	ldr	r0, [pc, #16]	; 8ce8 <implement_this+0x20>
    8cd4:	e59f1010 	ldr	r1, [pc, #16]	; 8cec <implement_this+0x24>
    8cd8:	e59f2010 	ldr	r2, [pc, #16]	; 8cf0 <implement_this+0x28>
    8cdc:	e3a030d5 	mov	r3, #213	; 0xd5
    8ce0:	eb00005b 	bl	8e54 <printk>
    8ce4:	eb0001cf 	bl	9428 <clean_reboot>
    8ce8:	0000a18c 	andeq	sl, r0, ip, lsl #3
    8cec:	0000a004 	andeq	sl, r0, r4
    8cf0:	00009f18 	andeq	r9, r0, r8, lsl pc

00008cf4 <ck_gc>:
    8cf4:	e92d4008 	push	{r3, lr}
    8cf8:	ebffff5e 	bl	8a78 <mark_all>
    8cfc:	ebffff8c 	bl	8b34 <sweep_free>

00008d00 <dump_regs>:
    8d00:	e5800000 	str	r0, [r0]
    8d04:	e5801004 	str	r1, [r0, #4]
    8d08:	e5802008 	str	r2, [r0, #8]
    8d0c:	e580300c 	str	r3, [r0, #12]
    8d10:	e5804010 	str	r4, [r0, #16]
    8d14:	e5805014 	str	r5, [r0, #20]
    8d18:	e5806018 	str	r6, [r0, #24]
    8d1c:	e580701c 	str	r7, [r0, #28]
    8d20:	e5808020 	str	r8, [r0, #32]
    8d24:	e5809024 	str	r9, [r0, #36]	; 0x24
    8d28:	e580a028 	str	sl, [r0, #40]	; 0x28
    8d2c:	e580b02c 	str	fp, [r0, #44]	; 0x2c
    8d30:	e580c030 	str	ip, [r0, #48]	; 0x30
    8d34:	e580d034 	str	sp, [r0, #52]	; 0x34
    8d38:	e580e038 	str	lr, [r0, #56]	; 0x38
    8d3c:	e580f03c 	str	pc, [r0, #60]	; 0x3c
    8d40:	e12fff1e 	bx	lr

00008d44 <fast_hash>:
    8d44:	e52d4004 	push	{r4}		; (str r4, [sp, #-4]!)
    8d48:	e1a02001 	mov	r2, r1
    8d4c:	e1a03000 	mov	r3, r0
    8d50:	e3500000 	cmp	r0, #0
    8d54:	13510000 	cmpne	r1, #0
    8d58:	da000032 	ble	8e28 <fast_hash+0xe4>
    8d5c:	e2014003 	and	r4, r1, #3
    8d60:	e1a01141 	asr	r1, r1, #2
    8d64:	ea00000b 	b	8d98 <fast_hash+0x54>
    8d68:	e5d3c001 	ldrb	ip, [r3, #1]
    8d6c:	e5d30000 	ldrb	r0, [r3]
    8d70:	e080040c 	add	r0, r0, ip, lsl #8
    8d74:	e0800002 	add	r0, r0, r2
    8d78:	e5d3c003 	ldrb	ip, [r3, #3]
    8d7c:	e5d32002 	ldrb	r2, [r3, #2]
    8d80:	e082240c 	add	r2, r2, ip, lsl #8
    8d84:	e0202582 	eor	r2, r0, r2, lsl #11
    8d88:	e0222800 	eor	r2, r2, r0, lsl #16
    8d8c:	e2833004 	add	r3, r3, #4
    8d90:	e08225a2 	add	r2, r2, r2, lsr #11
    8d94:	e2411001 	sub	r1, r1, #1
    8d98:	e3510000 	cmp	r1, #0
    8d9c:	cafffff1 	bgt	8d68 <fast_hash+0x24>
    8da0:	e3540002 	cmp	r4, #2
    8da4:	0a00000d 	beq	8de0 <fast_hash+0x9c>
    8da8:	e3540003 	cmp	r4, #3
    8dac:	0a000002 	beq	8dbc <fast_hash+0x78>
    8db0:	e3540001 	cmp	r4, #1
    8db4:	1a000014 	bne	8e0c <fast_hash+0xc8>
    8db8:	ea00000f 	b	8dfc <fast_hash+0xb8>
    8dbc:	e5d30001 	ldrb	r0, [r3, #1]
    8dc0:	e5d31000 	ldrb	r1, [r3]
    8dc4:	e0811400 	add	r1, r1, r0, lsl #8
    8dc8:	e0812002 	add	r2, r1, r2
    8dcc:	e0222802 	eor	r2, r2, r2, lsl #16
    8dd0:	e1d330d2 	ldrsb	r3, [r3, #2]
    8dd4:	e0222903 	eor	r2, r2, r3, lsl #18
    8dd8:	e08225a2 	add	r2, r2, r2, lsr #11
    8ddc:	ea00000a 	b	8e0c <fast_hash+0xc8>
    8de0:	e5d31001 	ldrb	r1, [r3, #1]
    8de4:	e5d33000 	ldrb	r3, [r3]
    8de8:	e0833401 	add	r3, r3, r1, lsl #8
    8dec:	e0832002 	add	r2, r3, r2
    8df0:	e0222582 	eor	r2, r2, r2, lsl #11
    8df4:	e08228a2 	add	r2, r2, r2, lsr #17
    8df8:	ea000003 	b	8e0c <fast_hash+0xc8>
    8dfc:	e1d330d0 	ldrsb	r3, [r3]
    8e00:	e0832002 	add	r2, r3, r2
    8e04:	e0222502 	eor	r2, r2, r2, lsl #10
    8e08:	e08220a2 	add	r2, r2, r2, lsr #1
    8e0c:	e0220182 	eor	r0, r2, r2, lsl #3
    8e10:	e08002a0 	add	r0, r0, r0, lsr #5
    8e14:	e0200200 	eor	r0, r0, r0, lsl #4
    8e18:	e08008a0 	add	r0, r0, r0, lsr #17
    8e1c:	e0200c80 	eor	r0, r0, r0, lsl #25
    8e20:	e0800320 	add	r0, r0, r0, lsr #6
    8e24:	ea000000 	b	8e2c <fast_hash+0xe8>
    8e28:	e3a00000 	mov	r0, #0
    8e2c:	e49d4004 	pop	{r4}		; (ldr r4, [sp], #4)
    8e30:	e12fff1e 	bx	lr

00008e34 <memset>:
    8e34:	e0802002 	add	r2, r0, r2
    8e38:	e1a03000 	mov	r3, r0
    8e3c:	ea000001 	b	8e48 <memset+0x14>
    8e40:	e5c31000 	strb	r1, [r3]
    8e44:	e2833001 	add	r3, r3, #1
    8e48:	e1530002 	cmp	r3, r2
    8e4c:	3afffffb 	bcc	8e40 <memset+0xc>
    8e50:	e12fff1e 	bx	lr

00008e54 <printk>:
    8e54:	e92d000f 	push	{r0, r1, r2, r3}
    8e58:	e92d4030 	push	{r4, r5, lr}
    8e5c:	e24dd00c 	sub	sp, sp, #12
    8e60:	e28d301c 	add	r3, sp, #28
    8e64:	e58d3004 	str	r3, [sp, #4]
    8e68:	e59f4034 	ldr	r4, [pc, #52]	; 8ea4 <printk+0x50>
    8e6c:	e1a00004 	mov	r0, r4
    8e70:	e3a01b01 	mov	r1, #1024	; 0x400
    8e74:	e59d2018 	ldr	r2, [sp, #24]
    8e78:	eb0000c8 	bl	91a0 <va_printk>
    8e7c:	e1a05000 	mov	r5, r0
    8e80:	e59f3020 	ldr	r3, [pc, #32]	; 8ea8 <printk+0x54>
    8e84:	e5933000 	ldr	r3, [r3]
    8e88:	e1a00004 	mov	r0, r4
    8e8c:	e12fff33 	blx	r3
    8e90:	e1a00005 	mov	r0, r5
    8e94:	e28dd00c 	add	sp, sp, #12
    8e98:	e8bd4030 	pop	{r4, r5, lr}
    8e9c:	e28dd010 	add	sp, sp, #16
    8ea0:	e12fff1e 	bx	lr
    8ea4:	0000a3f8 	strdeq	sl, [r0], -r8
    8ea8:	00009a14 	andeq	r9, r0, r4, lsl sl

00008eac <internal_putchar>:
    8eac:	e92d4010 	push	{r4, lr}
    8eb0:	e1a04000 	mov	r4, r0
    8eb4:	eb000212 	bl	9704 <uart_putc>
    8eb8:	e1a00004 	mov	r0, r4
    8ebc:	e8bd8010 	pop	{r4, pc}

00008ec0 <rpi_reset_putc>:
    8ec0:	e59f2008 	ldr	r2, [pc, #8]	; 8ed0 <rpi_reset_putc+0x10>
    8ec4:	e59f3008 	ldr	r3, [pc, #8]	; 8ed4 <rpi_reset_putc+0x14>
    8ec8:	e5832000 	str	r2, [r3]
    8ecc:	e12fff1e 	bx	lr
    8ed0:	00008eac 	andeq	r8, r0, ip, lsr #29
    8ed4:	00009a10 	andeq	r9, r0, r0, lsl sl

00008ed8 <rpi_set_putc>:
    8ed8:	e59f3004 	ldr	r3, [pc, #4]	; 8ee4 <rpi_set_putc+0xc>
    8edc:	e5830000 	str	r0, [r3]
    8ee0:	e12fff1e 	bx	lr
    8ee4:	00009a10 	andeq	r9, r0, r0, lsl sl

00008ee8 <internal_putk>:
    8ee8:	e92d4038 	push	{r3, r4, r5, lr}
    8eec:	e1a04000 	mov	r4, r0
    8ef0:	e59f5020 	ldr	r5, [pc, #32]	; 8f18 <internal_putk+0x30>
    8ef4:	ea000002 	b	8f04 <internal_putk+0x1c>
    8ef8:	e5953000 	ldr	r3, [r5]
    8efc:	e12fff33 	blx	r3
    8f00:	e2844001 	add	r4, r4, #1
    8f04:	e5d40000 	ldrb	r0, [r4]
    8f08:	e3500000 	cmp	r0, #0
    8f0c:	1afffff9 	bne	8ef8 <internal_putk+0x10>
    8f10:	e3a00001 	mov	r0, #1
    8f14:	e8bd8038 	pop	{r3, r4, r5, pc}
    8f18:	00009a10 	andeq	r9, r0, r0, lsl sl

00008f1c <isdigit>:
    8f1c:	e2400030 	sub	r0, r0, #48	; 0x30
    8f20:	e3500009 	cmp	r0, #9
    8f24:	83a00000 	movhi	r0, #0
    8f28:	93a00001 	movls	r0, #1
    8f2c:	e12fff1e 	bx	lr

00008f30 <pad>:
    8f30:	e0611000 	rsb	r1, r1, r0
    8f34:	e3a03020 	mov	r3, #32
    8f38:	ea000002 	b	8f48 <pad+0x18>
    8f3c:	e5c03000 	strb	r3, [r0]
    8f40:	e2811001 	add	r1, r1, #1
    8f44:	e2800001 	add	r0, r0, #1
    8f48:	e1510002 	cmp	r1, r2
    8f4c:	bafffffa 	blt	8f3c <pad+0xc>
    8f50:	e3a03000 	mov	r3, #0
    8f54:	e5c03000 	strb	r3, [r0]
    8f58:	e12fff1e 	bx	lr

00008f5c <reverse>:
    8f5c:	e063c002 	rsb	ip, r3, r2
    8f60:	e28cc001 	add	ip, ip, #1
    8f64:	e15c0001 	cmp	ip, r1
    8f68:	c061100c 	rsbgt	r1, r1, ip
    8f6c:	c0833001 	addgt	r3, r3, r1
    8f70:	e2422001 	sub	r2, r2, #1
    8f74:	e1a01000 	mov	r1, r0
    8f78:	ea000002 	b	8f88 <reverse+0x2c>
    8f7c:	e452c001 	ldrb	ip, [r2], #-1
    8f80:	e5c1c000 	strb	ip, [r1]
    8f84:	e2811001 	add	r1, r1, #1
    8f88:	e1520003 	cmp	r2, r3
    8f8c:	2afffffa 	bcs	8f7c <reverse+0x20>
    8f90:	e3a03000 	mov	r3, #0
    8f94:	e5c13000 	strb	r3, [r1]
    8f98:	e12fff1e 	bx	lr

00008f9c <emit>:
    8f9c:	e92d41f0 	push	{r4, r5, r6, r7, r8, lr}
    8fa0:	e24dd040 	sub	sp, sp, #64	; 0x40
    8fa4:	e1a05001 	mov	r5, r1
    8fa8:	e1a04002 	mov	r4, r2
    8fac:	e59d2058 	ldr	r2, [sp, #88]	; 0x58
    8fb0:	e1520004 	cmp	r2, r4
    8fb4:	c2442001 	subgt	r2, r4, #1
    8fb8:	e1a0c003 	mov	ip, r3
    8fbc:	e2400002 	sub	r0, r0, #2
    8fc0:	e350000e 	cmp	r0, #14
    8fc4:	979ff100 	ldrls	pc, [pc, r0, lsl #2]
    8fc8:	ea000048 	b	90f0 <emit+0x154>
    8fcc:	000090c8 	andeq	r9, r0, r8, asr #1
    8fd0:	000090f0 	strdeq	r9, [r0], -r0
    8fd4:	000090f0 	strdeq	r9, [r0], -r0
    8fd8:	000090f0 	strdeq	r9, [r0], -r0
    8fdc:	000090f0 	strdeq	r9, [r0], -r0
    8fe0:	000090f0 	strdeq	r9, [r0], -r0
    8fe4:	000090bc 	strheq	r9, [r0], -ip
    8fe8:	000090f0 	strdeq	r9, [r0], -r0
    8fec:	00009008 	andeq	r9, r0, r8
    8ff0:	000090f0 	strdeq	r9, [r0], -r0
    8ff4:	000090f0 	strdeq	r9, [r0], -r0
    8ff8:	000090f0 	strdeq	r9, [r0], -r0
    8ffc:	000090f0 	strdeq	r9, [r0], -r0
    9000:	000090f0 	strdeq	r9, [r0], -r0
    9004:	0000907c 	andeq	r9, r0, ip, ror r0
    9008:	e59d105c 	ldr	r1, [sp, #92]	; 0x5c
    900c:	e2911000 	adds	r1, r1, #0
    9010:	13a01001 	movne	r1, #1
    9014:	e0111fa3 	ands	r1, r1, r3, lsr #31
    9018:	1263c000 	rsbne	ip, r3, #0
    901c:	13a08001 	movne	r8, #1
    9020:	03a08000 	moveq	r8, #0
    9024:	e1a0100d 	mov	r1, sp
    9028:	e59f7100 	ldr	r7, [pc, #256]	; 9130 <emit+0x194>
    902c:	e59f6100 	ldr	r6, [pc, #256]	; 9134 <emit+0x198>
    9030:	ea000000 	b	9038 <emit+0x9c>
    9034:	e1a01000 	mov	r1, r0
    9038:	e2810001 	add	r0, r1, #1
    903c:	e083ec97 	umull	lr, r3, r7, ip
    9040:	e1a031a3 	lsr	r3, r3, #3
    9044:	e1a0e003 	mov	lr, r3
    9048:	e0833103 	add	r3, r3, r3, lsl #2
    904c:	e1a03083 	lsl	r3, r3, #1
    9050:	e063300c 	rsb	r3, r3, ip
    9054:	e7d63003 	ldrb	r3, [r6, r3]
    9058:	e5c13000 	strb	r3, [r1]
    905c:	e1a0c00e 	mov	ip, lr
    9060:	e35e0000 	cmp	lr, #0
    9064:	1afffff2 	bne	9034 <emit+0x98>
    9068:	e3580000 	cmp	r8, #0
    906c:	12810002 	addne	r0, r1, #2
    9070:	13a0302d 	movne	r3, #45	; 0x2d
    9074:	15c13001 	strbne	r3, [r1, #1]
    9078:	ea000023 	b	910c <emit+0x170>
    907c:	e1a0300d 	mov	r3, sp
    9080:	e59fe0b0 	ldr	lr, [pc, #176]	; 9138 <emit+0x19c>
    9084:	ea000000 	b	908c <emit+0xf0>
    9088:	e1a03000 	mov	r3, r0
    908c:	e2830001 	add	r0, r3, #1
    9090:	e20c100f 	and	r1, ip, #15
    9094:	e7de1001 	ldrb	r1, [lr, r1]
    9098:	e5c31000 	strb	r1, [r3]
    909c:	e1b0c22c 	lsrs	ip, ip, #4
    90a0:	1afffff8 	bne	9088 <emit+0xec>
    90a4:	e3a01078 	mov	r1, #120	; 0x78
    90a8:	e5c31001 	strb	r1, [r3, #1]
    90ac:	e2830003 	add	r0, r3, #3
    90b0:	e3a01030 	mov	r1, #48	; 0x30
    90b4:	e5c31002 	strb	r1, [r3, #2]
    90b8:	ea000013 	b	910c <emit+0x170>
    90bc:	e5cd3000 	strb	r3, [sp]
    90c0:	e28d0001 	add	r0, sp, #1
    90c4:	ea000010 	b	910c <emit+0x170>
    90c8:	e1a0300d 	mov	r3, sp
    90cc:	e59fe068 	ldr	lr, [pc, #104]	; 913c <emit+0x1a0>
    90d0:	e2830001 	add	r0, r3, #1
    90d4:	e20c1001 	and	r1, ip, #1
    90d8:	e7de1001 	ldrb	r1, [lr, r1]
    90dc:	e5c31000 	strb	r1, [r3]
    90e0:	e1a03000 	mov	r3, r0
    90e4:	e1b0c0ac 	lsrs	ip, ip, #1
    90e8:	1afffff8 	bne	90d0 <emit+0x134>
    90ec:	ea000006 	b	910c <emit+0x170>
    90f0:	ebffff72 	bl	8ec0 <rpi_reset_putc>
    90f4:	e59f0044 	ldr	r0, [pc, #68]	; 9140 <emit+0x1a4>
    90f8:	e59f1044 	ldr	r1, [pc, #68]	; 9144 <emit+0x1a8>
    90fc:	e59f2044 	ldr	r2, [pc, #68]	; 9148 <emit+0x1ac>
    9100:	e3a03077 	mov	r3, #119	; 0x77
    9104:	ebffff52 	bl	8e54 <printk>
    9108:	eb0000c6 	bl	9428 <clean_reboot>
    910c:	e1a0100d 	mov	r1, sp
    9110:	ebffff86 	bl	8f30 <pad>
    9114:	e1a02000 	mov	r2, r0
    9118:	e1a00005 	mov	r0, r5
    911c:	e1a01004 	mov	r1, r4
    9120:	e1a0300d 	mov	r3, sp
    9124:	ebffff8c 	bl	8f5c <reverse>
    9128:	e28dd040 	add	sp, sp, #64	; 0x40
    912c:	e8bd81f0 	pop	{r4, r5, r6, r7, r8, pc}
    9130:	cccccccd 	stclgt	12, cr12, [ip], {205}	; 0xcd
    9134:	0000a208 	andeq	sl, r0, r8, lsl #4
    9138:	0000a214 	andeq	sl, r0, r4, lsl r2
    913c:	0000a228 	andeq	sl, r0, r8, lsr #4
    9140:	0000a1e0 	andeq	sl, r0, r0, ror #3
    9144:	0000a1f4 	strdeq	sl, [r0], -r4
    9148:	0000a1bc 			; <UNDEFINED> instruction: 0x0000a1bc

0000914c <rpi_set_output>:
    914c:	e92d4008 	push	{r3, lr}
    9150:	e3500000 	cmp	r0, #0
    9154:	1a000006 	bne	9174 <rpi_set_output+0x28>
    9158:	ebffff58 	bl	8ec0 <rpi_reset_putc>
    915c:	e59f0028 	ldr	r0, [pc, #40]	; 918c <rpi_set_output+0x40>
    9160:	e59f1028 	ldr	r1, [pc, #40]	; 9190 <rpi_set_output+0x44>
    9164:	e59f2028 	ldr	r2, [pc, #40]	; 9194 <rpi_set_output+0x48>
    9168:	e3a03020 	mov	r3, #32
    916c:	ebffff38 	bl	8e54 <printk>
    9170:	eb0000ac 	bl	9428 <clean_reboot>
    9174:	e59f301c 	ldr	r3, [pc, #28]	; 9198 <rpi_set_output+0x4c>
    9178:	e5830000 	str	r0, [r3]
    917c:	e3510000 	cmp	r1, #0
    9180:	159f3014 	ldrne	r3, [pc, #20]	; 919c <rpi_set_output+0x50>
    9184:	15831000 	strne	r1, [r3]
    9188:	e8bd8008 	pop	{r3, pc}
    918c:	0000a22c 	andeq	sl, r0, ip, lsr #4
    9190:	0000a1f4 	strdeq	sl, [r0], -r4
    9194:	0000a1c4 	andeq	sl, r0, r4, asr #3
    9198:	00009a10 	andeq	r9, r0, r0, lsl sl
    919c:	00009a14 	andeq	r9, r0, r4, lsl sl

000091a0 <va_printk>:
    91a0:	e92d4ff0 	push	{r4, r5, r6, r7, r8, r9, sl, fp, lr}
    91a4:	e24dd08c 	sub	sp, sp, #140	; 0x8c
    91a8:	e1a0a000 	mov	sl, r0
    91ac:	e1a09003 	mov	r9, r3
    91b0:	e2411001 	sub	r1, r1, #1
    91b4:	e0808001 	add	r8, r0, r1
    91b8:	e3a03000 	mov	r3, #0
    91bc:	e5c03000 	strb	r3, [r0]
    91c0:	e1a04000 	mov	r4, r0
    91c4:	e1a0b003 	mov	fp, r3
    91c8:	ea000086 	b	93e8 <va_printk+0x248>
    91cc:	e3530025 	cmp	r3, #37	; 0x25
    91d0:	12822001 	addne	r2, r2, #1
    91d4:	15c43000 	strbne	r3, [r4]
    91d8:	12844001 	addne	r4, r4, #1
    91dc:	1a000081 	bne	93e8 <va_printk+0x248>
    91e0:	e5d21001 	ldrb	r1, [r2, #1]
    91e4:	e3510025 	cmp	r1, #37	; 0x25
    91e8:	05c43000 	strbeq	r3, [r4]
    91ec:	02822002 	addeq	r2, r2, #2
    91f0:	02844001 	addeq	r4, r4, #1
    91f4:	0a00007b 	beq	93e8 <va_printk+0x248>
    91f8:	e2826001 	add	r6, r2, #1
    91fc:	e1a0700b 	mov	r7, fp
    9200:	ea000004 	b	9218 <va_printk+0x78>
    9204:	e0877107 	add	r7, r7, r7, lsl #2
    9208:	e1a07087 	lsl	r7, r7, #1
    920c:	e0877005 	add	r7, r7, r5
    9210:	e2477030 	sub	r7, r7, #48	; 0x30
    9214:	e2866001 	add	r6, r6, #1
    9218:	e5d65000 	ldrb	r5, [r6]
    921c:	e1a00005 	mov	r0, r5
    9220:	ebffff3d 	bl	8f1c <isdigit>
    9224:	e3500000 	cmp	r0, #0
    9228:	1afffff5 	bne	9204 <va_printk+0x64>
    922c:	e357001f 	cmp	r7, #31
    9230:	9a000006 	bls	9250 <va_printk+0xb0>
    9234:	ebffff21 	bl	8ec0 <rpi_reset_putc>
    9238:	e59f01d4 	ldr	r0, [pc, #468]	; 9414 <va_printk+0x274>
    923c:	e59f11d4 	ldr	r1, [pc, #468]	; 9418 <va_printk+0x278>
    9240:	e59f21d4 	ldr	r2, [pc, #468]	; 941c <va_printk+0x27c>
    9244:	e3a03094 	mov	r3, #148	; 0x94
    9248:	ebffff01 	bl	8e54 <printk>
    924c:	eb000075 	bl	9428 <clean_reboot>
    9250:	e2455062 	sub	r5, r5, #98	; 0x62
    9254:	e3550016 	cmp	r5, #22
    9258:	979ff105 	ldrls	pc, [pc, r5, lsl #2]
    925c:	ea00004e 	b	939c <va_printk+0x1fc>
    9260:	00009348 	andeq	r9, r0, r8, asr #6
    9264:	00009378 	andeq	r9, r0, r8, ror r3
    9268:	000092d8 	ldrdeq	r9, [r0], -r8
    926c:	0000939c 	muleq	r0, ip, r3
    9270:	000092bc 			; <UNDEFINED> instruction: 0x000092bc
    9274:	0000939c 	muleq	r0, ip, r3
    9278:	0000939c 	muleq	r0, ip, r3
    927c:	0000939c 	muleq	r0, ip, r3
    9280:	0000939c 	muleq	r0, ip, r3
    9284:	0000939c 	muleq	r0, ip, r3
    9288:	0000939c 	muleq	r0, ip, r3
    928c:	0000939c 	muleq	r0, ip, r3
    9290:	0000939c 	muleq	r0, ip, r3
    9294:	0000939c 	muleq	r0, ip, r3
    9298:	00009324 	andeq	r9, r0, r4, lsr #6
    929c:	0000939c 	muleq	r0, ip, r3
    92a0:	0000939c 	muleq	r0, ip, r3
    92a4:	0000936c 	andeq	r9, r0, ip, ror #6
    92a8:	0000939c 	muleq	r0, ip, r3
    92ac:	00009300 	andeq	r9, r0, r0, lsl #6
    92b0:	0000939c 	muleq	r0, ip, r3
    92b4:	0000939c 	muleq	r0, ip, r3
    92b8:	00009324 	andeq	r9, r0, r4, lsr #6
    92bc:	ebfffeff 	bl	8ec0 <rpi_reset_putc>
    92c0:	e59f0158 	ldr	r0, [pc, #344]	; 9420 <va_printk+0x280>
    92c4:	e59f114c 	ldr	r1, [pc, #332]	; 9418 <va_printk+0x278>
    92c8:	e59f214c 	ldr	r2, [pc, #332]	; 941c <va_printk+0x27c>
    92cc:	e3a0309a 	mov	r3, #154	; 0x9a
    92d0:	ebfffedf 	bl	8e54 <printk>
    92d4:	eb000053 	bl	9428 <clean_reboot>
    92d8:	e5993000 	ldr	r3, [r9]
    92dc:	e2899004 	add	r9, r9, #4
    92e0:	e58d7000 	str	r7, [sp]
    92e4:	e3a02001 	mov	r2, #1
    92e8:	e58d2004 	str	r2, [sp, #4]
    92ec:	e3a0000a 	mov	r0, #10
    92f0:	e28d1008 	add	r1, sp, #8
    92f4:	e3a02080 	mov	r2, #128	; 0x80
    92f8:	ebffff27 	bl	8f9c <emit>
    92fc:	ea00002f 	b	93c0 <va_printk+0x220>
    9300:	e5993000 	ldr	r3, [r9]
    9304:	e2899004 	add	r9, r9, #4
    9308:	e58d7000 	str	r7, [sp]
    930c:	e58db004 	str	fp, [sp, #4]
    9310:	e3a0000a 	mov	r0, #10
    9314:	e28d1008 	add	r1, sp, #8
    9318:	e3a02080 	mov	r2, #128	; 0x80
    931c:	ebffff1e 	bl	8f9c <emit>
    9320:	ea000026 	b	93c0 <va_printk+0x220>
    9324:	e5993000 	ldr	r3, [r9]
    9328:	e2899004 	add	r9, r9, #4
    932c:	e58d7000 	str	r7, [sp]
    9330:	e58db004 	str	fp, [sp, #4]
    9334:	e3a00010 	mov	r0, #16
    9338:	e28d1008 	add	r1, sp, #8
    933c:	e3a02080 	mov	r2, #128	; 0x80
    9340:	ebffff15 	bl	8f9c <emit>
    9344:	ea00001d 	b	93c0 <va_printk+0x220>
    9348:	e5993000 	ldr	r3, [r9]
    934c:	e2899004 	add	r9, r9, #4
    9350:	e58d7000 	str	r7, [sp]
    9354:	e58db004 	str	fp, [sp, #4]
    9358:	e3a00002 	mov	r0, #2
    935c:	e28d1008 	add	r1, sp, #8
    9360:	e3a02080 	mov	r2, #128	; 0x80
    9364:	ebffff0c 	bl	8f9c <emit>
    9368:	ea000014 	b	93c0 <va_printk+0x220>
    936c:	e5990000 	ldr	r0, [r9]
    9370:	e2899004 	add	r9, r9, #4
    9374:	ea000011 	b	93c0 <va_printk+0x220>
    9378:	e5993000 	ldr	r3, [r9]
    937c:	e2899004 	add	r9, r9, #4
    9380:	e58d7000 	str	r7, [sp]
    9384:	e58db004 	str	fp, [sp, #4]
    9388:	e3a00008 	mov	r0, #8
    938c:	e08d1000 	add	r1, sp, r0
    9390:	e3a02080 	mov	r2, #128	; 0x80
    9394:	ebffff00 	bl	8f9c <emit>
    9398:	ea000008 	b	93c0 <va_printk+0x220>
    939c:	ebfffec7 	bl	8ec0 <rpi_reset_putc>
    93a0:	e5d63000 	ldrb	r3, [r6]
    93a4:	e58d3000 	str	r3, [sp]
    93a8:	e59f0074 	ldr	r0, [pc, #116]	; 9424 <va_printk+0x284>
    93ac:	e59f1064 	ldr	r1, [pc, #100]	; 9418 <va_printk+0x278>
    93b0:	e59f2064 	ldr	r2, [pc, #100]	; 941c <va_printk+0x27c>
    93b4:	e3a030bb 	mov	r3, #187	; 0xbb
    93b8:	ebfffea5 	bl	8e54 <printk>
    93bc:	eb000019 	bl	9428 <clean_reboot>
    93c0:	e2862001 	add	r2, r6, #1
    93c4:	ea000002 	b	93d4 <va_printk+0x234>
    93c8:	e2800001 	add	r0, r0, #1
    93cc:	e5c43000 	strb	r3, [r4]
    93d0:	e2844001 	add	r4, r4, #1
    93d4:	e1540008 	cmp	r4, r8
    93d8:	2a000002 	bcs	93e8 <va_printk+0x248>
    93dc:	e5d03000 	ldrb	r3, [r0]
    93e0:	e3530000 	cmp	r3, #0
    93e4:	1afffff7 	bne	93c8 <va_printk+0x228>
    93e8:	e5d23000 	ldrb	r3, [r2]
    93ec:	e3530000 	cmp	r3, #0
    93f0:	0a000001 	beq	93fc <va_printk+0x25c>
    93f4:	e1540008 	cmp	r4, r8
    93f8:	3affff73 	bcc	91cc <va_printk+0x2c>
    93fc:	e2840001 	add	r0, r4, #1
    9400:	e3a03000 	mov	r3, #0
    9404:	e5c43000 	strb	r3, [r4]
    9408:	e06a0000 	rsb	r0, sl, r0
    940c:	e28dd08c 	add	sp, sp, #140	; 0x8c
    9410:	e8bd8ff0 	pop	{r4, r5, r6, r7, r8, r9, sl, fp, pc}
    9414:	0000a244 	andeq	sl, r0, r4, asr #4
    9418:	0000a1f4 	strdeq	sl, [r0], -r4
    941c:	0000a1d4 	ldrdeq	sl, [r0], -r4
    9420:	0000a260 	andeq	sl, r0, r0, ror #4
    9424:	0000a288 	andeq	sl, r0, r8, lsl #5

00009428 <clean_reboot>:
    9428:	e92d4008 	push	{r3, lr}
    942c:	e59f3014 	ldr	r3, [pc, #20]	; 9448 <clean_reboot+0x20>
    9430:	e5933000 	ldr	r3, [r3]
    9434:	e59f0010 	ldr	r0, [pc, #16]	; 944c <clean_reboot+0x24>
    9438:	e12fff33 	blx	r3
    943c:	e3a00064 	mov	r0, #100	; 0x64
    9440:	eb000044 	bl	9558 <delay_ms>
    9444:	eb000019 	bl	94b0 <rpi_reboot>
    9448:	00009a14 	andeq	r9, r0, r4, lsl sl
    944c:	0000a2c0 	andeq	sl, r0, r0, asr #5

00009450 <_cstart>:
    9450:	e92d4008 	push	{r3, lr}
    9454:	e59f3020 	ldr	r3, [pc, #32]	; 947c <_cstart+0x2c>
    9458:	e59f2020 	ldr	r2, [pc, #32]	; 9480 <_cstart+0x30>
    945c:	e3a01000 	mov	r1, #0
    9460:	ea000001 	b	946c <_cstart+0x1c>
    9464:	e5831000 	str	r1, [r3]
    9468:	e2833004 	add	r3, r3, #4
    946c:	e1530002 	cmp	r3, r2
    9470:	3afffffb 	bcc	9464 <_cstart+0x14>
    9474:	ebfffb06 	bl	8094 <notmain>
    9478:	ebffffea 	bl	9428 <clean_reboot>
    947c:	0000a3ec 	andeq	sl, r0, ip, ror #7
    9480:	0000a800 	andeq	sl, r0, r0, lsl #16

00009484 <at_user_level>:
    9484:	e10f0000 	mrs	r0, CPSR
    9488:	e200001f 	and	r0, r0, #31
    948c:	e3500010 	cmp	r0, #16
    9490:	13a00000 	movne	r0, #0
    9494:	03a00001 	moveq	r0, #1
    9498:	e12fff1e 	bx	lr

0000949c <set_user_level>:
    949c:	e10f3000 	mrs	r3, CPSR
    94a0:	e3c3301f 	bic	r3, r3, #31
    94a4:	e3833010 	orr	r3, r3, #16
    94a8:	e129f003 	msr	CPSR_fc, r3
    94ac:	e12fff1e 	bx	lr

000094b0 <rpi_reboot>:
    94b0:	e92d4008 	push	{r3, lr}
    94b4:	ebfffff2 	bl	9484 <at_user_level>
    94b8:	e3500000 	cmp	r0, #0
    94bc:	0a000000 	beq	94c4 <rpi_reboot+0x14>
    94c0:	ebfffff5 	bl	949c <set_user_level>
    94c4:	e3a0001e 	mov	r0, #30
    94c8:	eb000022 	bl	9558 <delay_ms>
    94cc:	e59f0014 	ldr	r0, [pc, #20]	; 94e8 <rpi_reboot+0x38>
    94d0:	e59f1014 	ldr	r1, [pc, #20]	; 94ec <rpi_reboot+0x3c>
    94d4:	eb00002b 	bl	9588 <PUT32>
    94d8:	e59f0010 	ldr	r0, [pc, #16]	; 94f0 <rpi_reboot+0x40>
    94dc:	e59f1010 	ldr	r1, [pc, #16]	; 94f4 <rpi_reboot+0x44>
    94e0:	eb000028 	bl	9588 <PUT32>
    94e4:	eafffffe 	b	94e4 <rpi_reboot+0x34>
    94e8:	20100024 	andscs	r0, r0, r4, lsr #32
    94ec:	5a000001 	bpl	94f8 <delay_cycles>
    94f0:	2010001c 	andscs	r0, r0, ip, lsl r0
    94f4:	5a000020 	bpl	957c <delay_sec+0x10>

000094f8 <delay_cycles>:
    94f8:	ea000001 	b	9504 <delay_cycles+0xc>
    94fc:	e2811000 	add	r1, r1, #0
    9500:	e1a00003 	mov	r0, r3
    9504:	e2403001 	sub	r3, r0, #1
    9508:	e3500000 	cmp	r0, #0
    950c:	1afffffa 	bne	94fc <delay_cycles+0x4>
    9510:	e12fff1e 	bx	lr

00009514 <timer_get_usec_raw>:
    9514:	e92d4008 	push	{r3, lr}
    9518:	e59f0004 	ldr	r0, [pc, #4]	; 9524 <timer_get_usec_raw+0x10>
    951c:	eb000025 	bl	95b8 <GET32>
    9520:	e8bd8008 	pop	{r3, pc}
    9524:	20003004 	andcs	r3, r0, r4

00009528 <timer_get_usec>:
    9528:	e92d4008 	push	{r3, lr}
    952c:	ebfffff8 	bl	9514 <timer_get_usec_raw>
    9530:	e8bd8008 	pop	{r3, pc}

00009534 <delay_us>:
    9534:	e92d4038 	push	{r3, r4, r5, lr}
    9538:	e1a05000 	mov	r5, r0
    953c:	ebfffff9 	bl	9528 <timer_get_usec>
    9540:	e1a04000 	mov	r4, r0
    9544:	ebfffff7 	bl	9528 <timer_get_usec>
    9548:	e0640000 	rsb	r0, r4, r0
    954c:	e1500005 	cmp	r0, r5
    9550:	3afffffb 	bcc	9544 <delay_us+0x10>
    9554:	e8bd8038 	pop	{r3, r4, r5, pc}

00009558 <delay_ms>:
    9558:	e92d4008 	push	{r3, lr}
    955c:	e3a03ffa 	mov	r3, #1000	; 0x3e8
    9560:	e0000093 	mul	r0, r3, r0
    9564:	ebfffff2 	bl	9534 <delay_us>
    9568:	e8bd8008 	pop	{r3, pc}

0000956c <delay_sec>:
    956c:	e92d4008 	push	{r3, lr}
    9570:	e3a03ffa 	mov	r3, #1000	; 0x3e8
    9574:	e0000093 	mul	r0, r3, r0
    9578:	ebfffff6 	bl	9558 <delay_ms>
    957c:	e8bd8008 	pop	{r3, pc}

00009580 <put32>:
    9580:	e5801000 	str	r1, [r0]
    9584:	e12fff1e 	bx	lr

00009588 <PUT32>:
    9588:	e5801000 	str	r1, [r0]
    958c:	e12fff1e 	bx	lr

00009590 <put16>:
    9590:	e1c010b0 	strh	r1, [r0]
    9594:	e12fff1e 	bx	lr

00009598 <PUT16>:
    9598:	e1c010b0 	strh	r1, [r0]
    959c:	e12fff1e 	bx	lr

000095a0 <put8>:
    95a0:	e5c01000 	strb	r1, [r0]
    95a4:	e12fff1e 	bx	lr

000095a8 <PUT8>:
    95a8:	e5c01000 	strb	r1, [r0]
    95ac:	e12fff1e 	bx	lr

000095b0 <get32>:
    95b0:	e5900000 	ldr	r0, [r0]
    95b4:	e12fff1e 	bx	lr

000095b8 <GET32>:
    95b8:	e5900000 	ldr	r0, [r0]
    95bc:	e12fff1e 	bx	lr

000095c0 <GETPC>:
    95c0:	e1a0000e 	mov	r0, lr
    95c4:	e12fff1e 	bx	lr

000095c8 <dummy>:
    95c8:	e12fff1e 	bx	lr

000095cc <or_in32>:
    95cc:	e92d4070 	push	{r4, r5, r6, lr}
    95d0:	e1a04000 	mov	r4, r0
    95d4:	e1a05001 	mov	r5, r1
    95d8:	ebfffff4 	bl	95b0 <get32>
    95dc:	e1801005 	orr	r1, r0, r5
    95e0:	e1a00004 	mov	r0, r4
    95e4:	ebffffe5 	bl	9580 <put32>
    95e8:	e8bd8070 	pop	{r4, r5, r6, pc}

000095ec <uart_init>:
    95ec:	e92d4010 	push	{r4, lr}
    95f0:	e3a01002 	mov	r1, #2
    95f4:	e3a0000e 	mov	r0, #14
    95f8:	eb000051 	bl	9744 <gpio_set_function>
    95fc:	e3a01002 	mov	r1, #2
    9600:	e3a0000f 	mov	r0, #15
    9604:	eb00004e 	bl	9744 <gpio_set_function>
    9608:	eb0000fa 	bl	99f8 <dev_barrier>
    960c:	e3a01001 	mov	r1, #1
    9610:	e59f0064 	ldr	r0, [pc, #100]	; 967c <uart_init+0x90>
    9614:	ebffffec 	bl	95cc <or_in32>
    9618:	eb0000f6 	bl	99f8 <dev_barrier>
    961c:	e59f405c 	ldr	r4, [pc, #92]	; 9680 <uart_init+0x94>
    9620:	e3a01000 	mov	r1, #0
    9624:	e1a00004 	mov	r0, r4
    9628:	ebffffd4 	bl	9580 <put32>
    962c:	e3a01000 	mov	r1, #0
    9630:	e59f004c 	ldr	r0, [pc, #76]	; 9684 <uart_init+0x98>
    9634:	ebffffd1 	bl	9580 <put32>
    9638:	e3a01003 	mov	r1, #3
    963c:	e59f0044 	ldr	r0, [pc, #68]	; 9688 <uart_init+0x9c>
    9640:	ebffffce 	bl	9580 <put32>
    9644:	e3a01000 	mov	r1, #0
    9648:	e59f003c 	ldr	r0, [pc, #60]	; 968c <uart_init+0xa0>
    964c:	ebffffcb 	bl	9580 <put32>
    9650:	e3a010c7 	mov	r1, #199	; 0xc7
    9654:	e59f0034 	ldr	r0, [pc, #52]	; 9690 <uart_init+0xa4>
    9658:	ebffffc8 	bl	9580 <put32>
    965c:	e59f1030 	ldr	r1, [pc, #48]	; 9694 <uart_init+0xa8>
    9660:	e59f0030 	ldr	r0, [pc, #48]	; 9698 <uart_init+0xac>
    9664:	ebffffc5 	bl	9580 <put32>
    9668:	e3a01003 	mov	r1, #3
    966c:	e1a00004 	mov	r0, r4
    9670:	ebffffc2 	bl	9580 <put32>
    9674:	eb0000df 	bl	99f8 <dev_barrier>
    9678:	e8bd8010 	pop	{r4, pc}
    967c:	20215004 	eorcs	r5, r1, r4
    9680:	20215060 	eorcs	r5, r1, r0, rrx
    9684:	20215044 	eorcs	r5, r1, r4, asr #32
    9688:	2021504c 	eorcs	r5, r1, ip, asr #32
    968c:	20215050 	eorcs	r5, r1, r0, asr r0
    9690:	20215048 	eorcs	r5, r1, r8, asr #32
    9694:	0000010e 	andeq	r0, r0, lr, lsl #2
    9698:	20215068 	eorcs	r5, r1, r8, rrx

0000969c <uart_can_getc>:
    969c:	e92d4010 	push	{r4, lr}
    96a0:	e59f0008 	ldr	r0, [pc, #8]	; 96b0 <uart_can_getc+0x14>
    96a4:	ebffffc1 	bl	95b0 <get32>
    96a8:	e2000001 	and	r0, r0, #1
    96ac:	e8bd8010 	pop	{r4, pc}
    96b0:	20215064 	eorcs	r5, r1, r4, rrx

000096b4 <uart_can_putc>:
    96b4:	e92d4010 	push	{r4, lr}
    96b8:	e59f0010 	ldr	r0, [pc, #16]	; 96d0 <uart_can_putc+0x1c>
    96bc:	ebffffbb 	bl	95b0 <get32>
    96c0:	e3100002 	tst	r0, #2
    96c4:	13a00001 	movne	r0, #1
    96c8:	03a00000 	moveq	r0, #0
    96cc:	e8bd8010 	pop	{r4, pc}
    96d0:	20215064 	eorcs	r5, r1, r4, rrx

000096d4 <uart_getc>:
    96d4:	e92d4010 	push	{r4, lr}
    96d8:	eb0000c6 	bl	99f8 <dev_barrier>
    96dc:	ebffffee 	bl	969c <uart_can_getc>
    96e0:	e3500000 	cmp	r0, #0
    96e4:	0afffffc 	beq	96dc <uart_getc+0x8>
    96e8:	e59f0010 	ldr	r0, [pc, #16]	; 9700 <uart_getc+0x2c>
    96ec:	ebffffaf 	bl	95b0 <get32>
    96f0:	e6ef4070 	uxtb	r4, r0
    96f4:	eb0000bf 	bl	99f8 <dev_barrier>
    96f8:	e1a00004 	mov	r0, r4
    96fc:	e8bd8010 	pop	{r4, pc}
    9700:	20215040 	eorcs	r5, r1, r0, asr #32

00009704 <uart_putc>:
    9704:	e92d4010 	push	{r4, lr}
    9708:	e1a04000 	mov	r4, r0
    970c:	eb0000b9 	bl	99f8 <dev_barrier>
    9710:	ebffffe7 	bl	96b4 <uart_can_putc>
    9714:	e3500000 	cmp	r0, #0
    9718:	0afffffc 	beq	9710 <uart_putc+0xc>
    971c:	e6ef1074 	uxtb	r1, r4
    9720:	e59f0008 	ldr	r0, [pc, #8]	; 9730 <uart_putc+0x2c>
    9724:	ebffff95 	bl	9580 <put32>
    9728:	eb0000b2 	bl	99f8 <dev_barrier>
    972c:	e8bd8010 	pop	{r4, pc}
    9730:	20215040 	eorcs	r5, r1, r0, asr #32

00009734 <uart_has_data>:
    9734:	e92d4010 	push	{r4, lr}
    9738:	eb0000ae 	bl	99f8 <dev_barrier>
    973c:	ebffffd6 	bl	969c <uart_can_getc>
    9740:	e8bd8010 	pop	{r4, pc}

00009744 <gpio_set_function>:
    9744:	e350001f 	cmp	r0, #31
    9748:	812fff1e 	bxhi	lr
    974c:	e3d13007 	bics	r3, r1, #7
    9750:	112fff1e 	bxne	lr
    9754:	e92d4070 	push	{r4, r5, r6, lr}
    9758:	e1a05001 	mov	r5, r1
    975c:	e59f3044 	ldr	r3, [pc, #68]	; 97a8 <gpio_set_function+0x64>
    9760:	e0832093 	umull	r2, r3, r3, r0
    9764:	e1a031a3 	lsr	r3, r3, #3
    9768:	e1a06003 	mov	r6, r3
    976c:	e0833103 	add	r3, r3, r3, lsl #2
    9770:	e1a02083 	lsl	r2, r3, #1
    9774:	e0403002 	sub	r3, r0, r2
    9778:	e0834083 	add	r4, r3, r3, lsl #1
    977c:	e2866302 	add	r6, r6, #134217728	; 0x8000000
    9780:	e2866702 	add	r6, r6, #524288	; 0x80000
    9784:	e1a06106 	lsl	r6, r6, #2
    9788:	e1a00006 	mov	r0, r6
    978c:	ebffff89 	bl	95b8 <GET32>
    9790:	e3a01007 	mov	r1, #7
    9794:	e1c01411 	bic	r1, r0, r1, lsl r4
    9798:	e1811415 	orr	r1, r1, r5, lsl r4
    979c:	e1a00006 	mov	r0, r6
    97a0:	ebffff78 	bl	9588 <PUT32>
    97a4:	e8bd8070 	pop	{r4, r5, r6, pc}
    97a8:	cccccccd 	stclgt	12, cr12, [ip], {205}	; 0xcd

000097ac <gpio_set_output>:
    97ac:	e92d4010 	push	{r4, lr}
    97b0:	e3a01001 	mov	r1, #1
    97b4:	ebffffe2 	bl	9744 <gpio_set_function>
    97b8:	e8bd8010 	pop	{r4, pc}

000097bc <gpio_set_on>:
    97bc:	e350001f 	cmp	r0, #31
    97c0:	812fff1e 	bxhi	lr
    97c4:	e92d4010 	push	{r4, lr}
    97c8:	e3a01001 	mov	r1, #1
    97cc:	e1a01011 	lsl	r1, r1, r0
    97d0:	e59f0004 	ldr	r0, [pc, #4]	; 97dc <gpio_set_on+0x20>
    97d4:	ebffff6b 	bl	9588 <PUT32>
    97d8:	e8bd8010 	pop	{r4, pc}
    97dc:	2020001c 	eorcs	r0, r0, ip, lsl r0

000097e0 <gpio_set_off>:
    97e0:	e350001f 	cmp	r0, #31
    97e4:	812fff1e 	bxhi	lr
    97e8:	e92d4010 	push	{r4, lr}
    97ec:	e3a01001 	mov	r1, #1
    97f0:	e1a01011 	lsl	r1, r1, r0
    97f4:	e59f0004 	ldr	r0, [pc, #4]	; 9800 <gpio_set_off+0x20>
    97f8:	ebffff62 	bl	9588 <PUT32>
    97fc:	e8bd8010 	pop	{r4, pc}
    9800:	20200028 	eorcs	r0, r0, r8, lsr #32

00009804 <gpio_set_input>:
    9804:	e92d4010 	push	{r4, lr}
    9808:	e3a01000 	mov	r1, #0
    980c:	ebffffcc 	bl	9744 <gpio_set_function>
    9810:	e8bd8010 	pop	{r4, pc}

00009814 <gpio_write>:
    9814:	e92d4010 	push	{r4, lr}
    9818:	e3510000 	cmp	r1, #0
    981c:	1a000001 	bne	9828 <gpio_write+0x14>
    9820:	ebffffee 	bl	97e0 <gpio_set_off>
    9824:	e8bd8010 	pop	{r4, pc}
    9828:	ebffffe3 	bl	97bc <gpio_set_on>
    982c:	e8bd8010 	pop	{r4, pc}

00009830 <gpio_read>:
    9830:	e350001f 	cmp	r0, #31
    9834:	8a000007 	bhi	9858 <gpio_read+0x28>
    9838:	e92d4010 	push	{r4, lr}
    983c:	e200401f 	and	r4, r0, #31
    9840:	e59f3018 	ldr	r3, [pc, #24]	; 9860 <gpio_read+0x30>
    9844:	e08302a0 	add	r0, r3, r0, lsr #5
    9848:	ebffff5a 	bl	95b8 <GET32>
    984c:	e1a00430 	lsr	r0, r0, r4
    9850:	e2000001 	and	r0, r0, #1
    9854:	e8bd8010 	pop	{r4, pc}
    9858:	e3e00000 	mvn	r0, #0
    985c:	e12fff1e 	bx	lr
    9860:	20200034 	eorcs	r0, r0, r4, lsr r0

00009864 <kmalloc_heap_end>:
    9864:	e59f3004 	ldr	r3, [pc, #4]	; 9870 <kmalloc_heap_end+0xc>
    9868:	e5930000 	ldr	r0, [r3]
    986c:	e12fff1e 	bx	lr
    9870:	00009a18 	andeq	r9, r0, r8, lsl sl

00009874 <kmalloc_heap_start>:
    9874:	e59f0000 	ldr	r0, [pc]	; 987c <kmalloc_heap_start+0x8>
    9878:	e12fff1e 	bx	lr
    987c:	0000a800 	andeq	sl, r0, r0, lsl #16

00009880 <kmalloc_init_set_start>:
    9880:	e59f3038 	ldr	r3, [pc, #56]	; 98c0 <kmalloc_init_set_start+0x40>
    9884:	e5933000 	ldr	r3, [r3]
    9888:	e1500003 	cmp	r0, r3
    988c:	9a000003 	bls	98a0 <kmalloc_init_set_start+0x20>
    9890:	e59f3028 	ldr	r3, [pc, #40]	; 98c0 <kmalloc_init_set_start+0x40>
    9894:	e5830000 	str	r0, [r3]
    9898:	e5830004 	str	r0, [r3, #4]
    989c:	e12fff1e 	bx	lr
    98a0:	e92d4010 	push	{r4, lr}
    98a4:	ebfffd85 	bl	8ec0 <rpi_reset_putc>
    98a8:	e3a03016 	mov	r3, #22
    98ac:	e59f2010 	ldr	r2, [pc, #16]	; 98c4 <kmalloc_init_set_start+0x44>
    98b0:	e59f1010 	ldr	r1, [pc, #16]	; 98c8 <kmalloc_init_set_start+0x48>
    98b4:	e59f0010 	ldr	r0, [pc, #16]	; 98cc <kmalloc_init_set_start+0x4c>
    98b8:	ebfffd65 	bl	8e54 <printk>
    98bc:	ebfffed9 	bl	9428 <clean_reboot>
    98c0:	00009a18 	andeq	r9, r0, r8, lsl sl
    98c4:	0000a2cc 	andeq	sl, r0, ip, asr #5
    98c8:	0000a2fc 	strdeq	sl, [r0], -ip
    98cc:	0000a308 	andeq	sl, r0, r8, lsl #6

000098d0 <kmalloc>:
    98d0:	e92d4010 	push	{r4, lr}
    98d4:	e3500000 	cmp	r0, #0
    98d8:	0a00000a 	beq	9908 <kmalloc+0x38>
    98dc:	e2802007 	add	r2, r0, #7
    98e0:	e3c22007 	bic	r2, r2, #7
    98e4:	e59f3038 	ldr	r3, [pc, #56]	; 9924 <kmalloc+0x54>
    98e8:	e5934000 	ldr	r4, [r3]
    98ec:	e0841002 	add	r1, r4, r2
    98f0:	e5831000 	str	r1, [r3]
    98f4:	e3a01000 	mov	r1, #0
    98f8:	e1a00004 	mov	r0, r4
    98fc:	ebfffd4c 	bl	8e34 <memset>
    9900:	e1a00004 	mov	r0, r4
    9904:	e8bd8010 	pop	{r4, pc}
    9908:	ebfffd6c 	bl	8ec0 <rpi_reset_putc>
    990c:	e3a0301b 	mov	r3, #27
    9910:	e59f2010 	ldr	r2, [pc, #16]	; 9928 <kmalloc+0x58>
    9914:	e59f1010 	ldr	r1, [pc, #16]	; 992c <kmalloc+0x5c>
    9918:	e59f0010 	ldr	r0, [pc, #16]	; 9930 <kmalloc+0x60>
    991c:	ebfffd4c 	bl	8e54 <printk>
    9920:	ebfffec0 	bl	9428 <clean_reboot>
    9924:	00009a18 	andeq	r9, r0, r8, lsl sl
    9928:	0000a2e4 	andeq	sl, r0, r4, ror #5
    992c:	0000a2fc 	strdeq	sl, [r0], -ip
    9930:	0000a324 	andeq	sl, r0, r4, lsr #6

00009934 <kmalloc_init>:
    9934:	e12fff1e 	bx	lr

00009938 <kmalloc_heap_ptr>:
    9938:	e92d4010 	push	{r4, lr}
    993c:	ebffffcc 	bl	9874 <kmalloc_heap_start>
    9940:	e8bd8010 	pop	{r4, pc}

00009944 <kmalloc_aligned>:
    9944:	e92d4010 	push	{r4, lr}
    9948:	e2613000 	rsb	r3, r1, #0
    994c:	e1d12003 	bics	r2, r1, r3
    9950:	1a00000b 	bne	9984 <kmalloc_aligned+0x40>
    9954:	e59f2060 	ldr	r2, [pc, #96]	; 99bc <kmalloc_aligned+0x78>
    9958:	e5922000 	ldr	r2, [r2]
    995c:	e0812002 	add	r2, r1, r2
    9960:	e2422001 	sub	r2, r2, #1
    9964:	e0033002 	and	r3, r3, r2
    9968:	e2411001 	sub	r1, r1, #1
    996c:	e1130001 	tst	r3, r1
    9970:	1a00000a 	bne	99a0 <kmalloc_aligned+0x5c>
    9974:	e59f2040 	ldr	r2, [pc, #64]	; 99bc <kmalloc_aligned+0x78>
    9978:	e5823000 	str	r3, [r2]
    997c:	ebffffd3 	bl	98d0 <kmalloc>
    9980:	e8bd8010 	pop	{r4, pc}
    9984:	ebfffd4d 	bl	8ec0 <rpi_reset_putc>
    9988:	e3a0302a 	mov	r3, #42	; 0x2a
    998c:	e59f202c 	ldr	r2, [pc, #44]	; 99c0 <kmalloc_aligned+0x7c>
    9990:	e59f102c 	ldr	r1, [pc, #44]	; 99c4 <kmalloc_aligned+0x80>
    9994:	e59f002c 	ldr	r0, [pc, #44]	; 99c8 <kmalloc_aligned+0x84>
    9998:	ebfffd2d 	bl	8e54 <printk>
    999c:	ebfffea1 	bl	9428 <clean_reboot>
    99a0:	ebfffd46 	bl	8ec0 <rpi_reset_putc>
    99a4:	e3a03030 	mov	r3, #48	; 0x30
    99a8:	e59f2010 	ldr	r2, [pc, #16]	; 99c0 <kmalloc_aligned+0x7c>
    99ac:	e59f1010 	ldr	r1, [pc, #16]	; 99c4 <kmalloc_aligned+0x80>
    99b0:	e59f0014 	ldr	r0, [pc, #20]	; 99cc <kmalloc_aligned+0x88>
    99b4:	ebfffd26 	bl	8e54 <printk>
    99b8:	ebfffe9a 	bl	9428 <clean_reboot>
    99bc:	00009a18 	andeq	r9, r0, r8, lsl sl
    99c0:	0000a2ec 	andeq	sl, r0, ip, ror #5
    99c4:	0000a2fc 	strdeq	sl, [r0], -ip
    99c8:	0000a338 	andeq	sl, r0, r8, lsr r3
    99cc:	0000a398 	muleq	r0, r8, r3

000099d0 <kfree>:
    99d0:	e12fff1e 	bx	lr

000099d4 <kfree_all>:
    99d4:	e59f3008 	ldr	r3, [pc, #8]	; 99e4 <kfree_all+0x10>
    99d8:	e5932004 	ldr	r2, [r3, #4]
    99dc:	e5832000 	str	r2, [r3]
    99e0:	e12fff1e 	bx	lr
    99e4:	00009a18 	andeq	r9, r0, r8, lsl sl

000099e8 <kfree_after>:
    99e8:	e59f3004 	ldr	r3, [pc, #4]	; 99f4 <kfree_after+0xc>
    99ec:	e5830000 	str	r0, [r3]
    99f0:	e12fff1e 	bx	lr
    99f4:	00009a18 	andeq	r9, r0, r8, lsl sl

000099f8 <dev_barrier>:
    99f8:	ea000002 	b	9a08 <dsb>

000099fc <dmb>:
    99fc:	e3a00000 	mov	r0, #0
    9a00:	ee070fba 	mcr	15, 0, r0, cr7, cr10, {5}
    9a04:	e12fff1e 	bx	lr

00009a08 <dsb>:
    9a08:	ee070f9a 	mcr	15, 0, r0, cr7, cr10, {4}
    9a0c:	e12fff1e 	bx	lr

Disassembly of section .data:

00009a10 <__data_start__>:
    9a10:	00008eac 	andeq	r8, r0, ip, lsr #29

00009a14 <putk>:
    9a14:	00008ee8 	andeq	r8, r0, r8, ror #29

00009a18 <heap>:
    9a18:	0000a800 	andeq	sl, r0, r0, lsl #16

00009a1c <heap_start>:
    9a1c:	0000a800 	andeq	sl, r0, r0, lsl #16

Disassembly of section .rodata:

00009a20 <__FUNCTION__.4204>:
    9a20:	74736574 	ldrbtvc	r6, [r3], #-1396	; 0x574
    9a24:	00000000 	andeq	r0, r0, r0
    9a28:	626f6c67 	rsbvs	r6, pc, #26368	; 0x6700
    9a2c:	705f6c61 	subsvc	r6, pc, r1, ror #24
    9a30:	2070253d 	rsbscs	r2, r0, sp, lsr r5
    9a34:	61746164 	cmnvs	r4, r4, ror #2
    9a38:	72617473 	rsbvc	r7, r1, #1929379840	; 0x73000000
    9a3c:	70253d74 	eorvc	r3, r5, r4, ror sp
    9a40:	6164202c 	cmnvs	r4, ip, lsr #32
    9a44:	6e656174 	mcrvs	1, 3, r6, cr5, cr4, {3}
    9a48:	70253d64 	eorvc	r3, r5, r4, ror #26
    9a4c:	0000000a 	andeq	r0, r0, sl
    9a50:	74736574 	ldrbtvc	r6, [r3], #-1396	; 0x574
    9a54:	61702f73 	cmnvs	r0, r3, ror pc
    9a58:	2d327472 	cfldrscs	mvf7, [r2, #-456]!	; 0xfffffe38
    9a5c:	74736574 	ldrbtvc	r6, [r3], #-1396	; 0x574
    9a60:	00632e32 	rsbeq	r2, r3, r2, lsr lr
    9a64:	74204347 	strtvc	r4, [r0], #-839	; 0x347
    9a68:	32747365 	rsbscc	r7, r4, #-1811939327	; 0x94000001
    9a6c:	6863203a 	stmdavs	r3!, {r1, r3, r4, r5, sp}^
    9a70:	696b6365 	stmdbvs	fp!, {r0, r2, r5, r6, r8, r9, sp, lr}^
    9a74:	7420676e 	strtvc	r6, [r0], #-1902	; 0x76e
    9a78:	20746168 	rsbscs	r6, r4, r8, ror #2
    9a7c:	61636f6c 	cmnvs	r3, ip, ror #30
    9a80:	7328206c 	teqvc	r8, #108	; 0x6c
    9a84:	6b636174 	blvs	18e205c <__bss_end__+0x18d785c>
    9a88:	20726f20 	rsbscs	r6, r2, r0, lsr #30
    9a8c:	29676572 	stmdbcs	r7!, {r1, r4, r5, r6, r8, sl, sp, lr}^
    9a90:	696f7020 	stmdbvs	pc!, {r5, ip, sp, lr}^	; <UNPREDICTABLE>
    9a94:	7265746e 	rsbvc	r7, r5, #1845493760	; 0x6e000000
    9a98:	72612073 	rsbvc	r2, r1, #115	; 0x73
    9a9c:	65642065 	strbvs	r2, [r4, #-101]!	; 0x65
    9aa0:	74636574 	strbtvc	r6, [r3], #-1396	; 0x574
    9aa4:	0a2e6465 	beq	ba2c40 <__bss_end__+0xb98440>
    9aa8:	00000000 	andeq	r0, r0, r0
    9aac:	7473616c 	ldrbtvc	r6, [r3], #-364	; 0x16c
    9ab0:	6c6c6120 	stfvse	f6, [ip], #-128	; 0xffffff80
    9ab4:	3d20636f 	stccc	3, cr6, [r0, #-444]!	; 0xfffffe44
    9ab8:	000a7025 	andeq	r7, sl, r5, lsr #32

00009abc <__FUNCTION__.4274>:
    9abc:	63656863 	cmnvs	r5, #6488064	; 0x630000
    9ac0:	64685f6b 	strbtvs	r5, [r8], #-3947	; 0xf6b
    9ac4:	00000072 	andeq	r0, r0, r2, ror r0

00009ac8 <__FUNCTION__.4264>:
    9ac8:	695f6b63 	ldmdbvs	pc, {r0, r1, r5, r6, r8, r9, fp, sp, lr}^	; <UNPREDICTABLE>
    9acc:	0074696e 	rsbseq	r6, r4, lr, ror #18

00009ad0 <__FUNCTION__.4300>:
    9ad0:	72666b63 	rsbvc	r6, r6, #101376	; 0x18c00
    9ad4:	00006565 	andeq	r6, r0, r5, ror #10

00009ad8 <__FUNCTION__.4309>:
    9ad8:	6c616b63 	stclvs	11, cr6, [r1], #-396	; 0xfffffe74
    9adc:	00636f6c 	rsbeq	r6, r3, ip, ror #30

00009ae0 <__FUNCTION__.4317>:
    9ae0:	665f6b63 	ldrbvs	r6, [pc], -r3, ror #22
    9ae4:	74737269 	ldrbtvc	r7, [r3], #-617	; 0x269
    9ae8:	7264685f 	rsbvc	r6, r4, #6225920	; 0x5f0000
    9aec:	00000000 	andeq	r0, r0, r0

00009af0 <__FUNCTION__.4322>:
    9af0:	6e5f6b63 	vnmlavs.f64	d22, d15, d19
    9af4:	5f747865 	svcpl	0x00747865
    9af8:	00726468 	rsbseq	r6, r2, r8, ror #8
    9afc:	43415254 	movtmi	r5, #4692	; 0x1254
    9b00:	00003a45 	andeq	r3, r0, r5, asr #20
    9b04:	4f525245 	svcmi	0x00525245
    9b08:	00003a52 	andeq	r3, r0, r2, asr sl
    9b0c:	636f6c62 	cmnvs	pc, #25088	; 0x6200
    9b10:	7025206b 	eorvc	r2, r5, fp, rrx
    9b14:	726f6320 	rsbvc	r6, pc, #32, 6	; 0x80000000
    9b18:	74707572 	ldrbtvc	r7, [r0], #-1394	; 0x572
    9b1c:	61206465 	teqvs	r0, r5, ror #8
    9b20:	666f2074 			; <UNDEFINED> instruction: 0x666f2074
    9b24:	74657366 	strbtvc	r7, [r5], #-870	; 0x366
    9b28:	0a642520 	beq	1912fb0 <__bss_end__+0x19087b0>
    9b2c:	00000000 	andeq	r0, r0, r0
    9b30:	79626e09 	stmdbvc	r2!, {r0, r3, r9, sl, fp, sp, lr}^
    9b34:	3d736574 	cfldr64cc	mvdx6, [r3, #-464]!	; 0xfffffe30
    9b38:	000a6425 	andeq	r6, sl, r5, lsr #8
    9b3c:	6f6c4209 	svcvs	0x006c4209
    9b40:	61206b63 	teqvs	r0, r3, ror #22
    9b44:	636f6c6c 	cmnvs	pc, #108, 24	; 0x6c00
    9b48:	64657461 	strbtvs	r7, [r5], #-1121	; 0x461
    9b4c:	3a746120 	bcc	1d21fd4 <__bss_end__+0x1d177d4>
    9b50:	3a732520 	bcc	1cd2fd8 <__bss_end__+0x1cc87d8>
    9b54:	253a7325 	ldrcs	r7, [sl, #-805]!	; 0x325
    9b58:	00000a64 	andeq	r0, r0, r4, ror #20
    9b5c:	6f6c4209 	svcvs	0x006c4209
    9b60:	66206b63 	strtvs	r6, [r0], -r3, ror #22
    9b64:	64656572 	strbtvs	r6, [r5], #-1394	; 0x572
    9b68:	3a746120 	bcc	1d21ff0 <__bss_end__+0x1d177f0>
    9b6c:	3a732520 	bcc	1cd2ff4 <__bss_end__+0x1cc87f4>
    9b70:	253a7325 	ldrcs	r7, [sl, #-805]!	; 0x325
    9b74:	00000a64 	andeq	r0, r0, r4, ror #20
    9b78:	494e4150 	stmdbmi	lr, {r4, r6, r8, lr}^
    9b7c:	73253a43 	teqvc	r5, #274432	; 0x43000
    9b80:	3a73253a 	bcc	1cd3070 <__bss_end__+0x1cc8870>
    9b84:	683a6425 	ldmdavs	sl!, {r0, r2, r5, sl, sp, lr}
    9b88:	635f7264 	cmpvs	pc, #100, 4	; 0x40000006
    9b8c:	6d75736b 	ldclvs	3, cr7, [r5, #-428]!	; 0xfffffe54
    9b90:	6c61765f 	stclvs	6, cr7, [r1], #-380	; 0xfffffe84
    9b94:	203d3d20 	eorscs	r3, sp, r0, lsr #26
    9b98:	633e2d68 	teqvs	lr, #104, 26	; 0x1a00
    9b9c:	6d75736b 	ldclvs	3, cr7, [r5, #-428]!	; 0xfffffe54
    9ba0:	0000000a 	andeq	r0, r0, sl
    9ba4:	6c616b63 	stclvs	11, cr6, [r1], #-396	; 0xfffffe74
    9ba8:	2e636f6c 	cdpcs	15, 6, cr6, cr3, cr12, {3}
    9bac:	00000063 	andeq	r0, r0, r3, rrx
    9bb0:	494e4150 	stmdbmi	lr, {r4, r6, r8, lr}^
    9bb4:	73253a43 	teqvc	r5, #274432	; 0x43000
    9bb8:	3a73253a 	bcc	1cd30a8 <__bss_end__+0x1cc88a8>
    9bbc:	683a6425 	ldmdavs	sl!, {r0, r2, r5, sl, sp, lr}
    9bc0:	74733e2d 	ldrbtvc	r3, [r3], #-3629	; 0xe2d
    9bc4:	20657461 	rsbcs	r7, r5, r1, ror #8
    9bc8:	41203d3d 	teqmi	r0, sp, lsr sp
    9bcc:	434f4c4c 	movtmi	r4, #64588	; 0xfc4c
    9bd0:	7c204445 	cfstrsvc	mvf4, [r0], #-276	; 0xfffffeec
    9bd4:	2d68207c 	stclcs	0, cr2, [r8, #-496]!	; 0xfffffe10
    9bd8:	6174733e 	cmnvs	r4, lr, lsr r3
    9bdc:	3d206574 	cfstr32cc	mvfx6, [r0, #-464]!	; 0xfffffe30
    9be0:	5246203d 	subpl	r2, r6, #61	; 0x3d
    9be4:	0a444545 	beq	111b100 <__bss_end__+0x1110900>
    9be8:	00000000 	andeq	r0, r0, r0
    9bec:	494e4150 	stmdbmi	lr, {r4, r6, r8, lr}^
    9bf0:	73253a43 	teqvc	r5, #274432	; 0x43000
    9bf4:	3a73253a 	bcc	1cd30e4 <__bss_end__+0x1cc88e4>
    9bf8:	613a6425 	teqvs	sl, r5, lsr #8
    9bfc:	6e67696c 	cdpvs	9, 6, cr6, cr7, cr12, {3}
    9c00:	68286465 	stmdavs	r8!, {r0, r2, r5, r6, sl, sp, lr}
    9c04:	5f706165 	svcpl	0x00706165
    9c08:	72617473 	rsbvc	r7, r1, #1929379840	; 0x73000000
    9c0c:	38202c74 	stmdacc	r0!, {r2, r4, r5, r6, sl, fp, sp}
    9c10:	00000a29 	andeq	r0, r0, r9, lsr #20
    9c14:	657a6973 	ldrbvs	r6, [sl, #-2419]!	; 0x973
    9c18:	6820666f 	stmdavs	r0!, {r0, r1, r2, r3, r5, r6, r9, sl, sp, lr}
    9c1c:	253d7264 	ldrcs	r7, [sp, #-612]!	; 0x264
    9c20:	72202c64 	eorvc	r2, r0, #100, 24	; 0x6400
    9c24:	6f7a6465 	svcvs	0x007a6465
    9c28:	253d656e 	ldrcs	r6, [sp, #-1390]!	; 0x56e
    9c2c:	00000a64 	andeq	r0, r0, r4, ror #20
    9c30:	4f525245 	svcmi	0x00525245
    9c34:	73253a52 	teqvc	r5, #335872	; 0x52000
    9c38:	3a73253a 	bcc	1cd3128 <__bss_end__+0x1cc8928>
    9c3c:	203a6425 	eorscs	r6, sl, r5, lsr #8
    9c40:	534c4146 	movtpl	r4, #49478	; 0xc146
    9c44:	683c2845 	ldmdavs	ip!, {r0, r2, r6, fp, sp}
    9c48:	3e706165 	rpwccsz	f6, f0, f5
    9c4c:	6e203a29 	vmulvs.f32	s6, s0, s19
    9c50:	6920746f 	stmdbvs	r0!, {r0, r1, r2, r3, r5, r6, sl, ip, sp, lr}
    9c54:	6974696e 	ldmdbvs	r4!, {r1, r2, r3, r5, r6, r8, fp, sp, lr}^
    9c58:	7a696c61 	bvc	1a64de4 <__bss_end__+0x1a5a5e4>
    9c5c:	0a3f6465 	beq	fe2df8 <__bss_end__+0xfd85f8>
    9c60:	00000000 	andeq	r0, r0, r0
    9c64:	65657266 	strbvs	r7, [r5, #-614]!	; 0x266
    9c68:	20676e69 	rsbcs	r6, r7, r9, ror #28
    9c6c:	000a7025 	andeq	r7, sl, r5, lsr #32
    9c70:	6f6c6c61 	svcvs	0x006c6c61
    9c74:	69746163 	ldmdbvs	r4!, {r0, r1, r5, r6, r8, sp, lr}^
    9c78:	2520676e 	strcs	r6, [r0, #-1902]!	; 0x76e
    9c7c:	79622064 	stmdbvc	r2!, {r2, r5, r6, sp}^
    9c80:	0a736574 	beq	1ce3258 <__bss_end__+0x1cd8a58>
    9c84:	00000000 	andeq	r0, r0, r0
    9c88:	43415254 	movtmi	r5, #4692	; 0x1254
    9c8c:	52453a45 	subpl	r3, r5, #282624	; 0x45000
    9c90:	00524f52 	subseq	r4, r2, r2, asr pc
    9c94:	657a6973 	ldrbvs	r6, [sl, #-2419]!	; 0x973
    9c98:	65766f20 	ldrbvs	r6, [r6, #-3872]!	; 0xf20
    9c9c:	6f6c6672 	svcvs	0x006c6672
    9ca0:	3a646577 	bcc	1923284 <__bss_end__+0x1918a84>
    9ca4:	20642520 	rsbcs	r2, r4, r0, lsr #10
    9ca8:	65747962 	ldrbvs	r7, [r4, #-2402]!	; 0x962
    9cac:	73692073 	cmnvc	r9, #115	; 0x73
    9cb0:	6f6f7420 	svcvs	0x006f7420
    9cb4:	72616c20 	rsbvc	r6, r1, #32, 24	; 0x2000
    9cb8:	000a6567 	andeq	r6, sl, r7, ror #10
    9cbc:	494e4150 	stmdbmi	lr, {r4, r6, r8, lr}^
    9cc0:	73253a43 	teqvc	r5, #274432	; 0x43000
    9cc4:	3a73253a 	bcc	1cd31b4 <__bss_end__+0x1cc89b4>
    9cc8:	733a6425 	teqvc	sl, #620756992	; 0x25000000
    9ccc:	20657a69 	rsbcs	r7, r5, r9, ror #20
    9cd0:	7265766f 	rsbvc	r7, r5, #116391936	; 0x6f00000
    9cd4:	776f6c66 	strbvc	r6, [pc, -r6, ror #24]!
    9cd8:	203a6465 	eorscs	r6, sl, r5, ror #8
    9cdc:	62206425 	eorvs	r6, r0, #620756992	; 0x25000000
    9ce0:	73657479 	cmnvc	r5, #2030043136	; 0x79000000
    9ce4:	20736920 	rsbscs	r6, r3, r0, lsr #18
    9ce8:	206f6f74 	rsbcs	r6, pc, r4, ror pc	; <UNPREDICTABLE>
    9cec:	6772616c 	ldrbvs	r6, [r2, -ip, ror #2]!
    9cf0:	000a0a65 	andeq	r0, sl, r5, ror #20
    9cf4:	2074756f 	rsbscs	r7, r4, pc, ror #10
    9cf8:	6d20666f 	stcvs	6, cr6, [r0, #-444]!	; 0xfffffe44
    9cfc:	726f6d65 	rsbvc	r6, pc, #6464	; 0x1940
    9d00:	20202179 	eorcs	r2, r0, r9, ror r1
    9d04:	65766168 	ldrbvs	r6, [r6, #-360]!	; 0x168
    9d08:	6c6e6f20 	stclvs	15, cr6, [lr], #-128	; 0xffffff80
    9d0c:	64252079 	strtvs	r2, [r5], #-121	; 0x79
    9d10:	66656c20 	strbtvs	r6, [r5], -r0, lsr #24
    9d14:	6e202c74 	mcrvs	12, 1, r2, cr0, cr4, {3}
    9d18:	20646565 	rsbcs	r6, r4, r5, ror #10
    9d1c:	000a6425 	andeq	r6, sl, r5, lsr #8
    9d20:	494e4150 	stmdbmi	lr, {r4, r6, r8, lr}^
    9d24:	73253a43 	teqvc	r5, #274432	; 0x43000
    9d28:	3a73253a 	bcc	1cd3218 <__bss_end__+0x1cc8a18>
    9d2c:	6f3a6425 	svcvs	0x003a6425
    9d30:	6f207475 	svcvs	0x00207475
    9d34:	656d2066 	strbvs	r2, [sp, #-102]!	; 0x66
    9d38:	79726f6d 	ldmdbvc	r2!, {r0, r2, r3, r5, r6, r8, r9, sl, fp, sp, lr}^
    9d3c:	68202021 	stmdavs	r0!, {r0, r5, sp}
    9d40:	20657661 	rsbcs	r7, r5, r1, ror #12
    9d44:	796c6e6f 	stmdbvc	ip!, {r0, r1, r2, r3, r5, r6, r9, sl, fp, sp, lr}^
    9d48:	20642520 	rsbcs	r2, r4, r0, lsr #10
    9d4c:	7466656c 	strbtvc	r6, [r6], #-1388	; 0x56c
    9d50:	656e202c 	strbvs	r2, [lr, #-44]!	; 0x2c
    9d54:	25206465 	strcs	r6, [r0, #-1125]!	; 0x465
    9d58:	000a0a64 	andeq	r0, sl, r4, ror #20
    9d5c:	494e4150 	stmdbmi	lr, {r4, r6, r8, lr}^
    9d60:	73253a43 	teqvc	r5, #274432	; 0x43000
    9d64:	3a73253a 	bcc	1cd3254 <__bss_end__+0x1cc8a54>
    9d68:	633a6425 	teqvs	sl, #620756992	; 0x25000000
    9d6c:	6b636568 	blvs	18e3314 <__bss_end__+0x18d8b14>
    9d70:	7264685f 	rsbvc	r6, r4, #6225920	; 0x5f0000
    9d74:	0a296828 	beq	a63e1c <__bss_end__+0xa5961c>
    9d78:	00000000 	andeq	r0, r0, r0
    9d7c:	494e4150 	stmdbmi	lr, {r4, r6, r8, lr}^
    9d80:	73253a43 	teqvc	r5, #274432	; 0x43000
    9d84:	3a73253a 	bcc	1cd3274 <__bss_end__+0x1cc8a74>
    9d88:	633a6425 	teqvs	sl, #620756992	; 0x25000000
    9d8c:	6b636568 	blvs	18e3334 <__bss_end__+0x18d8b34>
    9d90:	6f6c625f 	svcvs	0x006c625f
    9d94:	68286b63 	stmdavs	r8!, {r0, r1, r5, r6, r8, r9, fp, sp, lr}
    9d98:	00000a29 	andeq	r0, r0, r9, lsr #20
    9d9c:	6c616b63 	stclvs	11, cr6, [r1], #-396	; 0xfffffe74
    9da0:	3a636f6c 	bcc	18e5b58 <__bss_end__+0x18db358>
    9da4:	6f6c6c61 	svcvs	0x006c6c61
    9da8:	65746163 	ldrbvs	r6, [r4, #-355]!	; 0x163
    9dac:	64252064 	strtvs	r2, [r5], #-100	; 0x64
    9db0:	74796220 	ldrbtvc	r6, [r9], #-544	; 0x220
    9db4:	202c7365 	eorcs	r7, ip, r5, ror #6
    9db8:	746f7428 	strbtvc	r7, [pc], #-1064	; 9dc0 <__FUNCTION__.4322+0x2d0>
    9dbc:	253d6c61 	ldrcs	r6, [sp, #-3169]!	; 0xc61
    9dc0:	202c2964 	eorcs	r2, ip, r4, ror #18
    9dc4:	3d727470 	cfldrdcc	mvd7, [r2, #-448]!	; 0xfffffe40
    9dc8:	000a7025 	andeq	r7, sl, r5, lsr #32
    9dcc:	494e4150 	stmdbmi	lr, {r4, r6, r8, lr}^
    9dd0:	73253a43 	teqvc	r5, #274432	; 0x43000
    9dd4:	3a73253a 	bcc	1cd32c4 <__bss_end__+0x1cc8ac4>
    9dd8:	633a6425 	teqvs	sl, #620756992	; 0x25000000
    9ddc:	6b636568 	blvs	18e3384 <__bss_end__+0x18d8b84>
    9de0:	7264685f 	rsbvc	r6, r4, #6225920	; 0x5f0000
    9de4:	72756328 	rsbsvc	r6, r5, #40, 6	; 0xa0000000
    9de8:	64685f72 	strbtvs	r5, [r8], #-3954	; 0xf72
    9dec:	000a2972 	andeq	r2, sl, r2, ror r9
    9df0:	494e4150 	stmdbmi	lr, {r4, r6, r8, lr}^
    9df4:	73253a43 	teqvc	r5, #274432	; 0x43000
    9df8:	3a73253a 	bcc	1cd32e8 <__bss_end__+0x1cc8ae8>
    9dfc:	633a6425 	teqvs	sl, #620756992	; 0x25000000
    9e00:	6b636568 	blvs	18e33a8 <__bss_end__+0x18d8ba8>
    9e04:	7264685f 	rsbvc	r6, r4, #6225920	; 0x5f0000
    9e08:	78656e28 	stmdavc	r5!, {r3, r5, r9, sl, fp, sp, lr}^
    9e0c:	64685f74 	strbtvs	r5, [r8], #-3956	; 0xf74
    9e10:	000a2972 	andeq	r2, sl, r2, ror r9
    9e14:	6e696f67 	cdpvs	15, 6, cr6, cr9, cr7, {3}
    9e18:	6f742067 	svcvs	0x00742067
    9e1c:	65686320 	strbvs	r6, [r8, #-800]!	; 0x320
    9e20:	68206b63 	stmdavs	r0!, {r0, r1, r5, r6, r8, r9, fp, sp, lr}
    9e24:	3a706165 	bcc	1c223c0 <__bss_end__+0x1c17bc0>
    9e28:	20642520 	rsbcs	r2, r4, r0, lsr #10
    9e2c:	65747962 	ldrbvs	r7, [r4, #-2402]!	; 0x962
    9e30:	6c612073 	stclvs	0, cr2, [r1], #-460	; 0xfffffe34
    9e34:	61636f6c 	cmnvs	r3, ip, ror #30
    9e38:	2c646574 	cfstr64cs	mvdx6, [r4], #-464	; 0xfffffe30
    9e3c:	20642520 	rsbcs	r2, r4, r0, lsr #10
    9e40:	65747962 	ldrbvs	r7, [r4, #-2402]!	; 0x962
    9e44:	656c2073 	strbvs	r2, [ip, #-115]!	; 0x73
    9e48:	000a7466 	andeq	r7, sl, r6, ror #8
    9e4c:	64616568 	strbtvs	r6, [r1], #-1384	; 0x568
    9e50:	69207265 	stmdbvs	r0!, {r0, r2, r5, r6, r9, ip, sp, lr}
    9e54:	6f632073 	svcvs	0x00632073
    9e58:	70757272 	rsbsvc	r7, r5, r2, ror r2
    9e5c:	00646574 	rsbeq	r6, r4, r4, ror r5
    9e60:	6f725709 	svcvs	0x00725709
    9e64:	62206574 	eorvs	r6, r0, #116, 10	; 0x1d000000
    9e68:	6b636f6c 	blvs	18e5c20 <__bss_end__+0x18db420>
    9e6c:	74666120 	strbtvc	r6, [r6], #-288	; 0x120
    9e70:	66207265 	strtvs	r7, [r0], -r5, ror #4
    9e74:	21656572 	smccs	22098	; 0x5652
    9e78:	0000000a 	andeq	r0, r0, sl
    9e7c:	63656863 	cmnvs	r5, #6488064	; 0x630000
    9e80:	2064656b 	rsbcs	r6, r4, fp, ror #10
    9e84:	62206425 	eorvs	r6, r0, #620756992	; 0x25000000
    9e88:	6b636f6c 	blvs	18e5c40 <__bss_end__+0x18db440>
    9e8c:	64202c73 	strtvs	r2, [r0], #-3187	; 0xc73
    9e90:	63657465 	cmnvs	r5, #1694498816	; 0x65000000
    9e94:	20646574 	rsbcs	r6, r4, r4, ror r5
    9e98:	65206425 	strvs	r6, [r0, #-1061]!	; 0x425
    9e9c:	726f7272 	rsbvc	r7, pc, #536870919	; 0x20000007
    9ea0:	00000a73 	andeq	r0, r0, r3, ror sl
    9ea4:	43435553 	movtmi	r5, #13651	; 0x3553
    9ea8:	3a535345 	bcc	14debc4 <__bss_end__+0x14d43c4>
    9eac:	65686320 	strbvs	r6, [r8, #-800]!	; 0x320
    9eb0:	64656b63 	strbtvs	r6, [r5], #-2915	; 0xb63
    9eb4:	20642520 	rsbcs	r2, r4, r0, lsr #10
    9eb8:	636f6c62 	cmnvs	pc, #25088	; 0x6200
    9ebc:	202c736b 	eorcs	r7, ip, fp, ror #6
    9ec0:	65746564 	ldrbvs	r6, [r4, #-1380]!	; 0x564
    9ec4:	64657463 	strbtvs	r7, [r5], #-1123	; 0x463
    9ec8:	206f6e20 	rsbcs	r6, pc, r0, lsr #28
    9ecc:	6f727265 	svcvs	0x00727265
    9ed0:	000a7372 	andeq	r7, sl, r2, ror r3

00009ed4 <__FUNCTION__.4273>:
    9ed4:	6b72616d 	blvs	1ca2490 <__bss_end__+0x1c97c90>
    9ed8:	00000000 	andeq	r0, r0, r0

00009edc <__FUNCTION__.4300>:
    9edc:	6b72616d 	blvs	1ca2498 <__bss_end__+0x1c97c98>
    9ee0:	6c6c615f 	stfvse	f6, [ip], #-380	; 0xfffffe84
    9ee4:	00000000 	andeq	r0, r0, r0

00009ee8 <__FUNCTION__.4332>:
    9ee8:	65657773 	strbvs	r7, [r5, #-1907]!	; 0x773
    9eec:	72665f70 	rsbvc	r5, r6, #112, 30	; 0x1c0
    9ef0:	00006565 	andeq	r6, r0, r5, ror #10

00009ef4 <__FUNCTION__.4316>:
    9ef4:	63656863 	cmnvs	r5, #6488064	; 0x630000
    9ef8:	6f6e5f6b 	svcvs	0x006e5f6b
    9efc:	61656c5f 	cmnvs	r5, pc, asr ip
    9f00:	0000006b 	andeq	r0, r0, fp, rrx

00009f04 <__FUNCTION__.4320>:
    9f04:	63656863 	cmnvs	r5, #6488064	; 0x630000
    9f08:	68735f6b 	ldmdavs	r3!, {r0, r1, r3, r5, r6, r8, r9, sl, fp, ip, lr}^
    9f0c:	646c756f 	strbtvs	r7, [ip], #-1391	; 0x56f
    9f10:	61656c5f 	cmnvs	r5, pc, asr ip
    9f14:	0000006b 	andeq	r0, r0, fp, rrx

00009f18 <__FUNCTION__.4325>:
    9f18:	6c706d69 	ldclvs	13, cr6, [r0], #-420	; 0xfffffe5c
    9f1c:	6e656d65 	cdpvs	13, 6, cr6, cr5, cr5, {3}
    9f20:	68745f74 	ldmdavs	r4!, {r2, r4, r5, r6, r8, r9, sl, fp, ip, lr}^
    9f24:	00007369 	andeq	r7, r0, r9, ror #6
    9f28:	2d2d2d2d 	stccs	13, cr2, [sp, #-180]!	; 0xffffff4c
    9f2c:	2d2d2d2d 	stccs	13, cr2, [sp, #-180]!	; 0xffffff4c
    9f30:	2d2d2d2d 	stccs	13, cr2, [sp, #-180]!	; 0xffffff4c
    9f34:	2d2d2d2d 	stccs	13, cr2, [sp, #-180]!	; 0xffffff4c
    9f38:	2d2d2d2d 	stccs	13, cr2, [sp, #-180]!	; 0xffffff4c
    9f3c:	2d2d2d2d 	stccs	13, cr2, [sp, #-180]!	; 0xffffff4c
    9f40:	2d2d2d2d 	stccs	13, cr2, [sp, #-180]!	; 0xffffff4c
    9f44:	2d2d2d2d 	stccs	13, cr2, [sp, #-180]!	; 0xffffff4c
    9f48:	2d2d2d2d 	stccs	13, cr2, [sp, #-180]!	; 0xffffff4c
    9f4c:	2d2d2d2d 	stccs	13, cr2, [sp, #-180]!	; 0xffffff4c
    9f50:	2d2d2d2d 	stccs	13, cr2, [sp, #-180]!	; 0xffffff4c
    9f54:	2d2d2d2d 	stccs	13, cr2, [sp, #-180]!	; 0xffffff4c
    9f58:	2d2d2d2d 	stccs	13, cr2, [sp, #-180]!	; 0xffffff4c
    9f5c:	2d2d2d2d 	stccs	13, cr2, [sp, #-180]!	; 0xffffff4c
    9f60:	00000a2d 	andeq	r0, r0, sp, lsr #20
    9f64:	63656863 	cmnvs	r5, #6488064	; 0x630000
    9f68:	676e696b 	strbvs	r6, [lr, -fp, ror #18]!
    9f6c:	726f6620 	rsbvc	r6, pc, #32, 12	; 0x2000000
    9f70:	61656c20 	cmnvs	r5, r0, lsr #24
    9f74:	0a3a736b 	beq	ea6d28 <__bss_end__+0xe9c528>
    9f78:	00000000 	andeq	r0, r0, r0
    9f7c:	3a434709 	bcc	10dbba8 <__bss_end__+0x10d13a8>
    9f80:	63656843 	cmnvs	r5, #4390912	; 0x430000
    9f84:	2064656b 	rsbcs	r6, r4, fp, ror #10
    9f88:	62206425 	eorvs	r6, r0, #620756992	; 0x25000000
    9f8c:	6b636f6c 	blvs	18e5d44 <__bss_end__+0x18db544>
    9f90:	000a2e73 	andeq	r2, sl, r3, ror lr
    9f94:	43470909 	movtmi	r0, #30985	; 0x7909
    9f98:	4355533a 	cmpmi	r5, #-402653184	; 0xe8000000
    9f9c:	53534543 	cmppl	r3, #281018368	; 0x10c00000
    9fa0:	6f4e203a 	svcvs	0x004e203a
    9fa4:	61656c20 	cmnvs	r5, r0, lsr #24
    9fa8:	6620736b 	strtvs	r7, [r0], -fp, ror #6
    9fac:	646e756f 	strbtvs	r7, [lr], #-1391	; 0x56f
    9fb0:	00000a21 	andeq	r0, r0, r1, lsr #20
    9fb4:	2d2d2d2d 	stccs	13, cr2, [sp, #-180]!	; 0xffffff4c
    9fb8:	2d2d2d2d 	stccs	13, cr2, [sp, #-180]!	; 0xffffff4c
    9fbc:	2d2d2d2d 	stccs	13, cr2, [sp, #-180]!	; 0xffffff4c
    9fc0:	2d2d2d2d 	stccs	13, cr2, [sp, #-180]!	; 0xffffff4c
    9fc4:	2d2d2d2d 	stccs	13, cr2, [sp, #-180]!	; 0xffffff4c
    9fc8:	2d2d2d2d 	stccs	13, cr2, [sp, #-180]!	; 0xffffff4c
    9fcc:	2d2d2d2d 	stccs	13, cr2, [sp, #-180]!	; 0xffffff4c
    9fd0:	2d2d2d2d 	stccs	13, cr2, [sp, #-180]!	; 0xffffff4c
    9fd4:	2d2d2d2d 	stccs	13, cr2, [sp, #-180]!	; 0xffffff4c
    9fd8:	2d2d2d2d 	stccs	13, cr2, [sp, #-180]!	; 0xffffff4c
    9fdc:	2d2d2d2d 	stccs	13, cr2, [sp, #-180]!	; 0xffffff4c
    9fe0:	2d2d2d2d 	stccs	13, cr2, [sp, #-180]!	; 0xffffff4c
    9fe4:	2d2d2d2d 	stccs	13, cr2, [sp, #-180]!	; 0xffffff4c
    9fe8:	2d2d2d2d 	stccs	13, cr2, [sp, #-180]!	; 0xffffff4c
    9fec:	000a2d2d 	andeq	r2, sl, sp, lsr #26
    9ff0:	494e4150 	stmdbmi	lr, {r4, r6, r8, lr}^
    9ff4:	73253a43 	teqvc	r5, #274432	; 0x43000
    9ff8:	3a73253a 	bcc	1cd34e8 <__bss_end__+0x1cc8ce8>
    9ffc:	703a6425 	eorsvc	r6, sl, r5, lsr #8
    a000:	000a653c 	andeq	r6, sl, ip, lsr r5
    a004:	672d6b63 	strvs	r6, [sp, -r3, ror #22]!
    a008:	00632e63 	rsbeq	r2, r3, r3, ror #28
    a00c:	494e4150 	stmdbmi	lr, {r4, r6, r8, lr}^
    a010:	73253a43 	teqvc	r5, #274432	; 0x43000
    a014:	3a73253a 	bcc	1cd3504 <__bss_end__+0x1cc8d04>
    a018:	613a6425 	teqvs	sl, r5, lsr #8
    a01c:	6e67696c 	cdpvs	9, 6, cr6, cr7, cr12, {3}
    a020:	70286465 	eorvc	r6, r8, r5, ror #8
    a024:	0a29342c 	beq	a570dc <__bss_end__+0xa4c8dc>
    a028:	00000000 	andeq	r0, r0, r0
    a02c:	494e4150 	stmdbmi	lr, {r4, r6, r8, lr}^
    a030:	73253a43 	teqvc	r5, #274432	; 0x43000
    a034:	3a73253a 	bcc	1cd3524 <__bss_end__+0x1cc8d24>
    a038:	613a6425 	teqvs	sl, r5, lsr #8
    a03c:	6e67696c 	cdpvs	9, 6, cr6, cr7, cr12, {3}
    a040:	65286465 	strvs	r6, [r8, #-1125]!	; 0x465
    a044:	0a29342c 	beq	a570fc <__bss_end__+0xa4c8fc>
    a048:	00000000 	andeq	r0, r0, r0
    a04c:	494e4150 	stmdbmi	lr, {r4, r6, r8, lr}^
    a050:	73253a43 	teqvc	r5, #274432	; 0x43000
    a054:	3a73253a 	bcc	1cd3544 <__bss_end__+0x1cc8d44>
    a058:	723a6425 	eorsvc	r6, sl, #620756992	; 0x25000000
    a05c:	5b736765 	blpl	1ce3df8 <__bss_end__+0x1cd95f8>
    a060:	3d205d30 	stccc	13, cr5, [r0, #-192]!	; 0xffffff40
    a064:	7528203d 	strvc	r2, [r8, #-61]!	; 0x3d
    a068:	33746e69 	cmncc	r4, #1680	; 0x690
    a06c:	29745f32 	ldmdbcs	r4!, {r1, r4, r5, r8, r9, sl, fp, ip, lr}^
    a070:	67657226 	strbvs	r7, [r5, -r6, lsr #4]!
    a074:	5d305b73 	fldmdbxpl	r0!, {d5-d61}	;@ Deprecated
    a078:	0000000a 	andeq	r0, r0, sl
    a07c:	706d6f63 	rsbvc	r6, sp, r3, ror #30
    a080:	69746361 	ldmdbvs	r4!, {r0, r5, r6, r8, r9, sp, lr}^
    a084:	0a3a676e 	beq	ea3e44 <__bss_end__+0xe99644>
    a088:	00000000 	andeq	r0, r0, r0
    a08c:	494e4150 	stmdbmi	lr, {r4, r6, r8, lr}^
    a090:	73253a43 	teqvc	r5, #274432	; 0x43000
    a094:	3a73253a 	bcc	1cd3584 <__bss_end__+0x1cc8d84>
    a098:	693a6425 	ldmdbvs	sl!, {r0, r2, r5, sl, sp, lr}
    a09c:	656c706d 	strbvs	r7, [ip, #-109]!	; 0x6d
    a0a0:	746e656d 	strbtvc	r6, [lr], #-1389	; 0x56d
    a0a4:	69687420 	stmdbvs	r8!, {r5, sl, ip, sp, lr}^
    a0a8:	75662073 	strbvc	r2, [r6, #-115]!	; 0x73
    a0ac:	6974636e 	ldmdbvs	r4!, {r1, r2, r3, r5, r6, r8, r9, sp, lr}^
    a0b0:	0a216e6f 	beq	865a74 <__bss_end__+0x85b274>
    a0b4:	0000000a 	andeq	r0, r0, sl
    a0b8:	494e4150 	stmdbmi	lr, {r4, r6, r8, lr}^
    a0bc:	73253a43 	teqvc	r5, #274432	; 0x43000
    a0c0:	3a73253a 	bcc	1cd35b0 <__bss_end__+0x1cc8db0>
    a0c4:	473a6425 	ldrmi	r6, [sl, -r5, lsr #8]!
    a0c8:	69203a43 	stmdbvs	r0!, {r0, r1, r6, r9, fp, ip, sp}
    a0cc:	6c61766e 	stclvs	6, cr7, [r1], #-440	; 0xfffffe48
    a0d0:	65206469 	strvs	r6, [r0, #-1129]!	; 0x469
    a0d4:	726f7272 	rsbvc	r7, pc, #536870919	; 0x20000007
    a0d8:	0a0a2121 	beq	292564 <__bss_end__+0x287d64>
    a0dc:	00000000 	andeq	r0, r0, r0
    a0e0:	203a4347 	eorscs	r4, sl, r7, asr #6
    a0e4:	43435553 	movtmi	r5, #13651	; 0x3553
    a0e8:	20535345 	subscs	r5, r3, r5, asr #6
    a0ec:	70616568 	rsbvc	r6, r1, r8, ror #10
    a0f0:	65686320 	strbvs	r6, [r8, #-800]!	; 0x320
    a0f4:	64656b63 	strbtvs	r6, [r5], #-2915	; 0xb63
    a0f8:	74756f20 	ldrbtvc	r6, [r5], #-3872	; 0xf20
    a0fc:	0000000a 	andeq	r0, r0, sl
    a100:	494e4150 	stmdbmi	lr, {r4, r6, r8, lr}^
    a104:	73253a43 	teqvc	r5, #274432	; 0x43000
    a108:	3a73253a 	bcc	1cd35f8 <__bss_end__+0x1cc8df8>
    a10c:	473a6425 	ldrmi	r6, [sl, -r5, lsr #8]!
    a110:	73203a43 	teqvc	r0, #274432	; 0x43000
    a114:	6c756f68 	ldclvs	15, cr6, [r5], #-416	; 0xfffffe60
    a118:	61682064 	cmnvs	r8, r4, rrx
    a11c:	6e206576 	mcrvs	5, 1, r6, cr0, cr6, {3}
    a120:	656c206f 	strbvs	r2, [ip, #-111]!	; 0x6f
    a124:	21736b61 	cmncs	r3, r1, ror #22
    a128:	00000a0a 	andeq	r0, r0, sl, lsl #20
    a12c:	203a4347 	eorscs	r4, sl, r7, asr #6
    a130:	43435553 	movtmi	r5, #13651	; 0x3553
    a134:	3a535345 	bcc	14dee50 <__bss_end__+0x14d4650>
    a138:	206f6e20 	rsbcs	r6, pc, r0, lsr #28
    a13c:	6b61656c 	blvs	18636f4 <__bss_end__+0x1858ef4>
    a140:	000a2173 	andeq	r2, sl, r3, ror r1
    a144:	494e4150 	stmdbmi	lr, {r4, r6, r8, lr}^
    a148:	73253a43 	teqvc	r5, #274432	; 0x43000
    a14c:	3a73253a 	bcc	1cd363c <__bss_end__+0x1cc8e3c>
    a150:	473a6425 	ldrmi	r6, [sl, -r5, lsr #8]!
    a154:	73203a43 	teqvc	r0, #274432	; 0x43000
    a158:	6c756f68 	ldclvs	15, cr6, [r5], #-416	; 0xfffffe60
    a15c:	61682064 	cmnvs	r8, r4, rrx
    a160:	6c206576 	cfstr32vs	mvfx6, [r0], #-472	; 0xfffffe28
    a164:	736b6165 	cmnvc	fp, #1073741849	; 0x40000019
    a168:	000a0a21 	andeq	r0, sl, r1, lsr #20
    a16c:	203a4347 	eorscs	r4, sl, r7, asr #6
    a170:	43435553 	movtmi	r5, #13651	; 0x3553
    a174:	3a535345 	bcc	14dee90 <__bss_end__+0x14d4690>
    a178:	756f6620 	strbvc	r6, [pc, #-1568]!	; 9b60 <__FUNCTION__.4322+0x70>
    a17c:	2520646e 	strcs	r6, [r0, #-1134]!	; 0x46e
    a180:	656c2064 	strbvs	r2, [ip, #-100]!	; 0x64
    a184:	21736b61 	cmncs	r3, r1, ror #22
    a188:	0000000a 	andeq	r0, r0, sl
    a18c:	494e4150 	stmdbmi	lr, {r4, r6, r8, lr}^
    a190:	73253a43 	teqvc	r5, #274432	; 0x43000
    a194:	3a73253a 	bcc	1cd3684 <__bss_end__+0x1cc8e84>
    a198:	643a6425 	ldrtvs	r6, [sl], #-1061	; 0x425
    a19c:	6e206469 	cdpvs	4, 2, cr6, cr0, cr9, {3}
    a1a0:	6920746f 	stmdbvs	r0!, {r0, r1, r2, r3, r5, r6, sl, ip, sp, lr}
    a1a4:	656c706d 	strbvs	r7, [ip, #-109]!	; 0x6d
    a1a8:	746e656d 	strbtvc	r6, [lr], #-1389	; 0x56d
    a1ac:	6d756420 	cfldrdvs	mvd6, [r5, #-128]!	; 0xffffff80
    a1b0:	65725f70 	ldrbvs	r5, [r2, #-3952]!	; 0xf70
    a1b4:	0a217367 	beq	866f58 <__bss_end__+0x85c758>
    a1b8:	0000000a 	andeq	r0, r0, sl

0000a1bc <__FUNCTION__.4237>:
    a1bc:	74696d65 	strbtvc	r6, [r9], #-3429	; 0xd65
    a1c0:	00000000 	andeq	r0, r0, r0

0000a1c4 <__FUNCTION__.4185>:
    a1c4:	5f697072 	svcpl	0x00697072
    a1c8:	5f746573 	svcpl	0x00746573
    a1cc:	7074756f 	rsbsvc	r7, r4, pc, ror #10
    a1d0:	00007475 	andeq	r7, r0, r5, ror r4

0000a1d4 <__FUNCTION__.4259>:
    a1d4:	705f6176 	subsvc	r6, pc, r6, ror r1	; <UNPREDICTABLE>
    a1d8:	746e6972 	strbtvc	r6, [lr], #-2418	; 0x972
    a1dc:	0000006b 	andeq	r0, r0, fp, rrx
    a1e0:	494e4150 	stmdbmi	lr, {r4, r6, r8, lr}^
    a1e4:	73253a43 	teqvc	r5, #274432	; 0x43000
    a1e8:	3a73253a 	bcc	1cd36d8 <__bss_end__+0x1cc8ed8>
    a1ec:	303a6425 	eorscc	r6, sl, r5, lsr #8
    a1f0:	0000000a 	andeq	r0, r0, sl
    a1f4:	6362696c 	cmnvs	r2, #108, 18	; 0x1b0000
    a1f8:	2d61762f 	stclcs	6, cr7, [r1, #-188]!	; 0xffffff44
    a1fc:	6e697270 	mcrvs	2, 3, r7, cr9, cr0, {3}
    a200:	632e6b74 	teqvs	lr, #116, 22	; 0x1d000
    a204:	00000000 	andeq	r0, r0, r0
    a208:	33323130 	teqcc	r2, #48, 2
    a20c:	37363534 			; <UNDEFINED> instruction: 0x37363534
    a210:	00003938 	andeq	r3, r0, r8, lsr r9
    a214:	33323130 	teqcc	r2, #48, 2
    a218:	37363534 			; <UNDEFINED> instruction: 0x37363534
    a21c:	62613938 	rsbvs	r3, r1, #56, 18	; 0xe0000
    a220:	66656463 	strbtvs	r6, [r5], -r3, ror #8
    a224:	00000000 	andeq	r0, r0, r0
    a228:	00003130 	andeq	r3, r0, r0, lsr r1
    a22c:	494e4150 	stmdbmi	lr, {r4, r6, r8, lr}^
    a230:	73253a43 	teqvc	r5, #274432	; 0x43000
    a234:	3a73253a 	bcc	1cd3724 <__bss_end__+0x1cc8f24>
    a238:	703a6425 	eorsvc	r6, sl, r5, lsr #8
    a23c:	5f637475 	svcpl	0x00637475
    a240:	000a7066 	andeq	r7, sl, r6, rrx
    a244:	494e4150 	stmdbmi	lr, {r4, r6, r8, lr}^
    a248:	73253a43 	teqvc	r5, #274432	; 0x43000
    a24c:	3a73253a 	bcc	1cd373c <__bss_end__+0x1cc8f3c>
    a250:	773a6425 	ldrvc	r6, [sl, -r5, lsr #8]!
    a254:	68746469 	ldmdavs	r4!, {r0, r3, r5, r6, sl, sp, lr}^
    a258:	33203c20 	teqcc	r0, #32, 24	; 0x2000
    a25c:	00000a32 	andeq	r0, r0, r2, lsr sl
    a260:	494e4150 	stmdbmi	lr, {r4, r6, r8, lr}^
    a264:	73253a43 	teqvc	r5, #274432	; 0x43000
    a268:	3a73253a 	bcc	1cd3758 <__bss_end__+0x1cc8f58>
    a26c:	663a6425 	ldrtvs	r6, [sl], -r5, lsr #8
    a270:	74616f6c 	strbtvc	r6, [r1], #-3948	; 0xf6c
    a274:	746f6e20 	strbtvc	r6, [pc], #-3616	; a27c <__FUNCTION__.4259+0xa8>
    a278:	616e6520 	cmnvs	lr, r0, lsr #10
    a27c:	64656c62 	strbtvs	r6, [r5], #-3170	; 0xc62
    a280:	0a212121 	beq	85270c <__bss_end__+0x847f0c>
    a284:	00000000 	andeq	r0, r0, r0
    a288:	494e4150 	stmdbmi	lr, {r4, r6, r8, lr}^
    a28c:	73253a43 	teqvc	r5, #274432	; 0x43000
    a290:	3a73253a 	bcc	1cd3780 <__bss_end__+0x1cc8f80>
    a294:	703a6425 	eorsvc	r6, sl, r5, lsr #8
    a298:	746e6972 	strbtvc	r6, [lr], #-2418	; 0x972
    a29c:	6e203a6b 	vnmulvs.f32	s6, s0, s23
    a2a0:	6820746f 	stmdavs	r0!, {r0, r1, r2, r3, r5, r6, sl, ip, sp, lr}
    a2a4:	6c646e61 	stclvs	14, cr6, [r4], #-388	; 0xfffffe7c
    a2a8:	20676e69 	rsbcs	r6, r7, r9, ror #28
    a2ac:	63657073 	cmnvs	r5, #115	; 0x73
    a2b0:	65696669 	strbvs	r6, [r9, #-1641]!	; 0x669
    a2b4:	25272072 	strcs	r2, [r7, #-114]!	; 0x72
    a2b8:	0a0a2763 	beq	29404c <__bss_end__+0x28984c>
    a2bc:	00000000 	andeq	r0, r0, r0
    a2c0:	454e4f44 	strbmi	r4, [lr, #-3908]	; 0xf44
    a2c4:	0a212121 	beq	852750 <__bss_end__+0x847f50>
    a2c8:	00000000 	andeq	r0, r0, r0

0000a2cc <__FUNCTION__.4237>:
    a2cc:	6c616d6b 	stclvs	13, cr6, [r1], #-428	; 0xfffffe54
    a2d0:	5f636f6c 	svcpl	0x00636f6c
    a2d4:	74696e69 	strbtvc	r6, [r9], #-3689	; 0xe69
    a2d8:	7465735f 	strbtvc	r7, [r5], #-863	; 0x35f
    a2dc:	6174735f 	cmnvs	r4, pc, asr r3
    a2e0:	00007472 	andeq	r7, r0, r2, ror r4

0000a2e4 <__FUNCTION__.4241>:
    a2e4:	6c616d6b 	stclvs	13, cr6, [r1], #-428	; 0xfffffe54
    a2e8:	00636f6c 	rsbeq	r6, r3, ip, ror #30

0000a2ec <__FUNCTION__.4253>:
    a2ec:	6c616d6b 	stclvs	13, cr6, [r1], #-428	; 0xfffffe54
    a2f0:	5f636f6c 	svcpl	0x00636f6c
    a2f4:	67696c61 	strbvs	r6, [r9, -r1, ror #24]!
    a2f8:	0064656e 	rsbeq	r6, r4, lr, ror #10
    a2fc:	6c616d6b 	stclvs	13, cr6, [r1], #-428	; 0xfffffe54
    a300:	2e636f6c 	cdpcs	15, 6, cr6, cr3, cr12, {3}
    a304:	00000063 	andeq	r0, r0, r3, rrx
    a308:	494e4150 	stmdbmi	lr, {r4, r6, r8, lr}^
    a30c:	73253a43 	teqvc	r5, #274432	; 0x43000
    a310:	3a73253a 	bcc	1cd3800 <__bss_end__+0x1cc9000>
    a314:	613a6425 	teqvs	sl, r5, lsr #8
    a318:	20726464 	rsbscs	r6, r2, r4, ror #8
    a31c:	6568203e 	strbvs	r2, [r8, #-62]!	; 0x3e
    a320:	000a7061 	andeq	r7, sl, r1, rrx
    a324:	494e4150 	stmdbmi	lr, {r4, r6, r8, lr}^
    a328:	73253a43 	teqvc	r5, #274432	; 0x43000
    a32c:	3a73253a 	bcc	1cd381c <__bss_end__+0x1cc901c>
    a330:	733a6425 	teqvc	sl, #620756992	; 0x25000000
    a334:	00000a7a 	andeq	r0, r0, sl, ror sl
    a338:	4f525245 	svcmi	0x00525245
    a33c:	73253a52 	teqvc	r5, #335872	; 0x52000
    a340:	3a73253a 	bcc	1cd3830 <__bss_end__+0x1cc9030>
    a344:	203a6425 	eorscs	r6, sl, r5, lsr #8
    a348:	534c4146 	movtpl	r4, #49478	; 0xc146
    a34c:	283c2845 	ldmdacs	ip!, {r0, r2, r6, fp, sp}
    a350:	6c612828 	stclvs	8, cr2, [r1], #-160	; 0xffffff60
    a354:	6d6e6769 	stclvs	7, cr6, [lr, #-420]!	; 0xfffffe5c
    a358:	29746e65 	ldmdbcs	r4!, {r0, r2, r5, r6, r9, sl, fp, sp, lr}^
    a35c:	61282d26 	teqvs	r8, r6, lsr #26
    a360:	6e67696c 	cdpvs	9, 6, cr6, cr7, cr12, {3}
    a364:	746e656d 	strbtvc	r6, [lr], #-1389	; 0x56d
    a368:	3d202929 	stccc	9, cr2, [r0, #-164]!	; 0xffffff5c
    a36c:	6128203d 	teqvs	r8, sp, lsr r0
    a370:	6e67696c 	cdpvs	9, 6, cr6, cr7, cr12, {3}
    a374:	746e656d 	strbtvc	r6, [lr], #-1389	; 0x56d
    a378:	293e2929 	ldmdbcs	lr!, {r0, r3, r5, r8, fp, sp}
    a37c:	7361203a 	cmnvc	r1, #58	; 0x3a
    a380:	696d7573 	stmdbvs	sp!, {r0, r1, r4, r5, r6, r8, sl, ip, sp, lr}^
    a384:	7020676e 	eorvc	r6, r0, lr, ror #14
    a388:	7265776f 	rsbvc	r7, r5, #29097984	; 0x1bc0000
    a38c:	20666f20 	rsbcs	r6, r6, r0, lsr #30
    a390:	0a6f7774 	beq	1be8168 <__bss_end__+0x1bdd968>
    a394:	00000000 	andeq	r0, r0, r0
    a398:	4f525245 	svcmi	0x00525245
    a39c:	73253a52 	teqvc	r5, #335872	; 0x52000
    a3a0:	3a73253a 	bcc	1cd3890 <__bss_end__+0x1cc9090>
    a3a4:	203a6425 	eorscs	r6, sl, r5, lsr #8
    a3a8:	534c4146 	movtpl	r4, #49478	; 0xc146
    a3ac:	283c2845 	ldmdacs	ip!, {r0, r2, r6, fp, sp}
    a3b0:	29682828 	stmdbcs	r8!, {r3, r5, fp, sp}^
    a3b4:	28202620 	stmdacs	r0!, {r5, r9, sl, sp}
    a3b8:	70797428 	rsbsvc	r7, r9, r8, lsr #8
    a3bc:	28666f65 	stmdacs	r6!, {r0, r2, r5, r6, r8, r9, sl, fp, sp, lr}^
    a3c0:	28292968 	stmdacs	r9!, {r3, r5, r6, r8, fp, sp}
    a3c4:	67696c61 	strbvs	r6, [r9, -r1, ror #24]!
    a3c8:	6e656d6e 	cdpvs	13, 6, cr6, cr5, cr14, {3}
    a3cc:	2d202974 	stccs	9, cr2, [r0, #-464]!	; 0xfffffe30
    a3d0:	29293120 	stmdbcs	r9!, {r5, r8, ip, sp}
    a3d4:	203d3d20 	eorscs	r3, sp, r0, lsr #26
    a3d8:	293e2930 	ldmdbcs	lr!, {r4, r5, r8, fp, sp}
    a3dc:	6d69203a 	stclvs	0, cr2, [r9, #-232]!	; 0xffffff18
    a3e0:	73736f70 	cmnvc	r3, #112, 30	; 0x1c0
    a3e4:	656c6269 	strbvs	r6, [ip, #-617]!	; 0x269
    a3e8:	0000000a 	andeq	r0, r0, sl

Disassembly of section .bss:

0000a3ec <__bss_start__>:
    a3ec:	00000000 	andeq	r0, r0, r0

0000a3f0 <heap>:
    a3f0:	00000000 	andeq	r0, r0, r0

0000a3f4 <heap_end>:
    a3f4:	00000000 	andeq	r0, r0, r0

0000a3f8 <buf.4185>:
	...

0000a7f8 <global_p>:
	...

Disassembly of section .ARM.attributes:

00000000 <.ARM.attributes>:
   0:	00002a41 	andeq	r2, r0, r1, asr #20
   4:	61656100 	cmnvs	r5, r0, lsl #2
   8:	01006962 	tsteq	r0, r2, ror #18
   c:	00000020 	andeq	r0, r0, r0, lsr #32
  10:	4b5a3605 	blmi	168d82c <__bss_end__+0x168302c>
  14:	08070600 	stmdaeq	r7, {r9, sl}
  18:	12010901 	andne	r0, r1, #16384	; 0x4000
  1c:	15011404 	strne	r1, [r1, #-1028]	; 0x404
  20:	18031701 	stmdane	r3, {r0, r8, r9, sl, ip}
  24:	22011a01 	andcs	r1, r1, #4096	; 0x1000
  28:	Address 0x0000000000000028 is out of bounds.


Disassembly of section .comment:

00000000 <.comment>:
   0:	3a434347 	bcc	10d0d24 <__bss_end__+0x10c6524>
   4:	4e472820 	cdpmi	8, 4, cr2, cr7, cr0, {1}
   8:	34202955 	strtcc	r2, [r0], #-2389	; 0x955
   c:	332e382e 	teqcc	lr, #3014656	; 0x2e0000
  10:	43434700 	movtmi	r4, #14080	; 0x3700
  14:	3128203a 	teqcc	r8, sl, lsr r0
  18:	2e363a35 	mrccs	10, 1, r3, cr6, cr5, {1}
  1c:	2b312e33 	blcs	c4b8f0 <__bss_end__+0xc410f0>
  20:	326e7673 	rsbcc	r7, lr, #120586240	; 0x7300000
  24:	33303335 	teqcc	r0, #-738197504	; 0xd4000000
  28:	62312d39 	eorsvs	r2, r1, #3648	; 0xe40
  2c:	646c6975 	strbtvs	r6, [ip], #-2421	; 0x975
  30:	36202931 			; <UNDEFINED> instruction: 0x36202931
  34:	312e332e 	teqcc	lr, lr, lsr #6
  38:	31303220 	teqcc	r0, r0, lsr #4
  3c:	32363037 	eorscc	r3, r6, #55	; 0x37
  40:	Address 0x0000000000000040 is out of bounds.


Disassembly of section .debug_info:

00000000 <.debug_info>:
       0:	000002da 	ldrdeq	r0, [r0], -sl
       4:	00000004 	andeq	r0, r0, r4
       8:	01040000 	mrseq	r0, (UNDEF: 4)
       c:	00000076 	andeq	r0, r0, r6, ror r0
      10:	00017701 	andeq	r7, r1, r1, lsl #14
      14:	00002600 	andeq	r2, r0, r0, lsl #12
      18:	00801000 	addeq	r1, r0, r0
      1c:	0000c400 	andeq	ip, r0, r0, lsl #8
      20:	00000000 	andeq	r0, r0, r0
      24:	05040200 	streq	r0, [r4, #-512]	; 0x200
      28:	00746e69 	rsbseq	r6, r4, r9, ror #28
      2c:	00000003 	andeq	r0, r0, r3
      30:	37d40200 	ldrbcc	r0, [r4, r0, lsl #4]
      34:	04000000 	streq	r0, [r0], #-0
      38:	01370704 	teqeq	r7, r4, lsl #14
      3c:	01040000 	mrseq	r0, (UNDEF: 4)
      40:	0000e506 	andeq	lr, r0, r6, lsl #10
      44:	05020400 	streq	r0, [r2, #-1024]	; 0x400
      48:	00000164 	andeq	r0, r0, r4, ror #2
      4c:	5b050404 	blpl	141064 <__bss_end__+0x136864>
      50:	04000001 	streq	r0, [r0], #-1
      54:	01560508 	cmpeq	r6, r8, lsl #10
      58:	01040000 	mrseq	r0, (UNDEF: 4)
      5c:	0000e308 	andeq	lr, r0, r8, lsl #6
      60:	07020400 	streq	r0, [r2, -r0, lsl #8]
      64:	000000f1 	strdeq	r0, [r0], -r1
      68:	00016e03 	andeq	r6, r1, r3, lsl #28
      6c:	73340300 	teqvc	r4, #0, 6
      70:	04000000 	streq	r0, [r0], #-0
      74:	01320704 	teqeq	r2, r4, lsl #14
      78:	08040000 	stmdaeq	r4, {}	; <UNPREDICTABLE>
      7c:	00012d07 	andeq	r2, r1, r7, lsl #26
      80:	07040400 	streq	r0, [r4, -r0, lsl #8]
      84:	0000014d 	andeq	r0, r0, sp, asr #2
      88:	04060405 	streq	r0, [r6], #-1029	; 0x405
      8c:	00000090 	muleq	r0, r0, r0
      90:	ec080104 	stfs	f0, [r8], {4}
      94:	06000000 	streq	r0, [r0], -r0
      98:	00009d04 	andeq	r9, r0, r4, lsl #26
      9c:	00900700 	addseq	r0, r0, r0, lsl #14
      a0:	20080000 	andcs	r0, r8, r0
      a4:	01000001 	tsteq	r0, r1
      a8:	00008816 	andeq	r8, r0, r6, lsl r8
      ac:	00801000 	addeq	r1, r0, r0
      b0:	00008400 	andeq	r8, r0, r0, lsl #8
      b4:	749c0100 	ldrvc	r0, [ip], #256	; 0x100
      b8:	09000001 	stmdbeq	r0, {r0}
      bc:	0000018b 	andeq	r0, r0, fp, lsl #3
      c0:	00681701 	rsbeq	r1, r8, r1, lsl #14
      c4:	9a090000 	bls	2400cc <__bss_end__+0x2358cc>
      c8:	01000001 	tsteq	r0, r1
      cc:	00006817 	andeq	r6, r0, r7, lsl r8
      d0:	01130a00 	tsteq	r3, r0, lsl #20
      d4:	01840000 	orreq	r0, r4, r0
      d8:	03050000 	movweq	r0, #20480	; 0x5000
      dc:	00009a20 	andeq	r9, r0, r0, lsr #20
      e0:	0100700b 	tsteq	r0, fp
      e4:	0000881d 	andeq	r8, r0, sp, lsl r8
      e8:	00000000 	andeq	r0, r0, r0
      ec:	802c0c00 	eorhi	r0, ip, r0, lsl #24
      f0:	02450000 	subeq	r0, r5, #0
      f4:	010a0000 	mrseq	r0, (UNDEF: 10)
      f8:	010d0000 	mrseq	r0, (UNDEF: 13)
      fc:	00760251 	rsbseq	r0, r6, r1, asr r2
     100:	0550010d 	ldrbeq	r0, [r0, #-269]	; 0x10d
     104:	009a2803 	addseq	r2, sl, r3, lsl #16
     108:	480c0000 	stmdami	ip, {}	; <UNPREDICTABLE>
     10c:	5b000080 	blpl	314 <_start-0x7cec>
     110:	2e000002 	cdpcs	0, 0, cr0, cr0, cr2, {0}
     114:	0d000001 	stceq	0, cr0, [r0, #-4]
     118:	4a015301 	bmi	54d24 <__bss_end__+0x4a524>
     11c:	0252010d 	subseq	r0, r2, #1073741827	; 0x40000003
     120:	010d0074 	tsteq	sp, r4, ror r0
     124:	00750251 	rsbseq	r0, r5, r1, asr r2
     128:	0150010d 	cmpeq	r0, sp, lsl #2
     12c:	580c0034 	stmdapl	ip, {r2, r4, r5}
     130:	7f000080 	svcvc	0x00000080
     134:	46000002 	strmi	r0, [r0], -r2
     138:	0d000001 	stceq	0, cr0, [r0, #-4]
     13c:	34015201 	strcc	r5, [r1], #-513	; 0x201
     140:	0151010d 	cmpeq	r1, sp, lsl #2
     144:	6c0c0030 	stcvs	0, cr0, [ip], {48}	; 0x30
     148:	5b000080 	blpl	350 <_start-0x7cb0>
     14c:	6a000002 	bvs	15c <_start-0x7ea4>
     150:	0d000001 	stceq	0, cr0, [r0, #-4]
     154:	4d015301 	stcmi	3, cr5, [r1, #-4]
     158:	0252010d 	subseq	r0, r2, #1073741827	; 0x40000003
     15c:	010d0074 	tsteq	sp, r4, ror r0
     160:	00750251 	rsbseq	r0, r5, r1, asr r2
     164:	0150010d 	cmpeq	r0, sp, lsl #2
     168:	740e0034 	strvc	r0, [lr], #-52	; 0x34
     16c:	9e000080 	cdpls	0, 0, cr0, cr0, cr0, {4}
     170:	00000002 	andeq	r0, r0, r2
     174:	0000900f 	andeq	r9, r0, pc
     178:	00018400 	andeq	r8, r1, r0, lsl #8
     17c:	00811000 	addeq	r1, r1, r0
     180:	00040000 	andeq	r0, r4, r0
     184:	00017407 	andeq	r7, r1, r7, lsl #8
     188:	00cd1100 	sbceq	r1, sp, r0, lsl #2
     18c:	26010000 	strcs	r0, [r1], -r0
     190:	00008094 	muleq	r0, r4, r0
     194:	00000040 	andeq	r0, r0, r0, asr #32
     198:	021e9c01 	andseq	r9, lr, #256	; 0x100
     19c:	6e120000 	cdpvs	0, 1, cr0, cr2, cr0, {0}
     1a0:	372b0100 	strcc	r0, [fp, -r0, lsl #2]!
     1a4:	00000000 	andeq	r0, r0, r0
     1a8:	0c001000 	stceq	0, cr1, [r0], {-0}
     1ac:	000080a0 	andeq	r8, r0, r0, lsr #1
     1b0:	00000245 	andeq	r0, r0, r5, asr #4
     1b4:	000001c2 	andeq	r0, r0, r2, asr #3
     1b8:	0550010d 	ldrbeq	r0, [r0, #-269]	; 0x10d
     1bc:	009a6403 	addseq	r6, sl, r3, lsl #8
     1c0:	a80c0000 	stmdage	ip, {}	; <UNPREDICTABLE>
     1c4:	a5000080 	strge	r0, [r0, #-128]	; 0x80
     1c8:	d7000002 	strle	r0, [r0, -r2]
     1cc:	0d000001 	stceq	0, cr0, [r0, #-4]
     1d0:	40035001 	andmi	r5, r3, r1
     1d4:	0c002440 	cfstrseq	mvf2, [r0], {64}	; 0x40
     1d8:	000080b0 	strheq	r8, [r0], -r0
     1dc:	000002b6 			; <UNDEFINED> instruction: 0x000002b6
     1e0:	000001ec 	andeq	r0, r0, ip, ror #3
     1e4:	0350010d 	cmpeq	r0, #1073741827	; 0x40000003
     1e8:	00244040 	eoreq	r4, r4, r0, asr #32
     1ec:	0080b80c 	addeq	fp, r0, ip, lsl #16
     1f0:	0002cb00 	andeq	ip, r2, r0, lsl #22
     1f4:	00020100 	andeq	r0, r2, r0, lsl #2
     1f8:	51010d00 	tstpl	r1, r0, lsl #26
     1fc:	24404003 	strbcs	r4, [r0], #-3
     200:	80bc0e00 	adcshi	r0, ip, r0, lsl #28
     204:	00a20000 	adceq	r0, r2, r0
     208:	c8130000 	ldmdagt	r3, {}	; <UNPREDICTABLE>
     20c:	45000080 	strmi	r0, [r0, #-128]	; 0x80
     210:	0d000002 	stceq	0, cr0, [r0, #-8]
     214:	03055001 	movweq	r5, #20481	; 0x5001
     218:	00009aac 	andeq	r9, r0, ip, lsr #21
     21c:	44140000 	ldrmi	r0, [r4], #-0
     220:	01000001 	tsteq	r0, r1
     224:	00008a15 	andeq	r8, r0, r5, lsl sl
     228:	f8030500 			; <UNDEFINED> instruction: 0xf8030500
     22c:	090000a7 	stmdbeq	r0, {r0, r1, r2, r5, r7}
     230:	0000018b 	andeq	r0, r0, fp, lsl #3
     234:	00681701 	rsbeq	r1, r8, r1, lsl #14
     238:	9a090000 	bls	240240 <__bss_end__+0x235a40>
     23c:	01000001 	tsteq	r0, r1
     240:	00006817 	andeq	r6, r0, r7, lsl r8
     244:	050c1500 	streq	r1, [ip, #-1280]	; 0x500
     248:	29040000 	stmdbcs	r4, {}	; <UNPREDICTABLE>
     24c:	00000025 	andeq	r0, r0, r5, lsr #32
     250:	0000025b 	andeq	r0, r0, fp, asr r2
     254:	00009716 	andeq	r9, r0, r6, lsl r7
     258:	15001700 	strne	r1, [r0, #-1792]	; 0x700
     25c:	0000001e 	andeq	r0, r0, lr, lsl r0
     260:	00881105 	addeq	r1, r8, r5, lsl #2
     264:	027f0000 	rsbseq	r0, pc, #0
     268:	68160000 	ldmdavs	r6, {}	; <UNPREDICTABLE>
     26c:	16000000 	strne	r0, [r0], -r0
     270:	00000097 	muleq	r0, r7, r0
     274:	00009716 	andeq	r9, r0, r6, lsl r7
     278:	00371600 	eorseq	r1, r7, r0, lsl #12
     27c:	15000000 	strne	r0, [r0, #-0]
     280:	0000010c 	andeq	r0, r0, ip, lsl #2
     284:	00881b06 	addeq	r1, r8, r6, lsl #22
     288:	029e0000 	addseq	r0, lr, #0
     28c:	88160000 	ldmdahi	r6, {}	; <UNPREDICTABLE>
     290:	16000000 	strne	r0, [r0], -r0
     294:	00000025 	andeq	r0, r0, r5, lsr #32
     298:	00002c16 	andeq	r2, r0, r6, lsl ip
     29c:	d5180000 	ldrle	r0, [r8, #-0]
     2a0:	05000000 	streq	r0, [r0, #-0]
     2a4:	00071939 	andeq	r1, r7, r9, lsr r9
     2a8:	72040000 	andvc	r0, r4, #0
     2ac:	000002b6 			; <UNDEFINED> instruction: 0x000002b6
     2b0:	00003716 	andeq	r3, r0, r6, lsl r7
     2b4:	04150000 	ldreq	r0, [r5], #-0
     2b8:	04000001 	streq	r0, [r0], #-1
     2bc:	0000886c 	andeq	r8, r0, ip, ror #16
     2c0:	0002cb00 	andeq	ip, r2, r0, lsl #22
     2c4:	00371600 	eorseq	r1, r7, r0, lsl #12
     2c8:	1a000000 	bne	2d0 <_start-0x7d30>
     2cc:	00000125 	andeq	r0, r0, r5, lsr #2
     2d0:	88160b05 	ldmdahi	r6, {r0, r2, r8, r9, fp}
     2d4:	16000000 	strne	r0, [r0], -r0
     2d8:	00000037 	andeq	r0, r0, r7, lsr r0
     2dc:	0f9b0000 	svceq	0x009b0000
     2e0:	00040000 	andeq	r0, r4, r0
     2e4:	00000168 	andeq	r0, r0, r8, ror #2
     2e8:	00760104 	rsbseq	r0, r6, r4, lsl #2
     2ec:	89010000 	stmdbhi	r1, {}	; <UNPREDICTABLE>
     2f0:	26000002 	strcs	r0, [r0], -r2
     2f4:	d4000000 	strle	r0, [r0], #-0
     2f8:	b8000080 	stmdalt	r0, {r7}
     2fc:	70000007 	andvc	r0, r0, r7
     300:	02000001 	andeq	r0, r0, #1
     304:	6e690504 	cdpvs	5, 6, cr0, cr9, cr4, {0}
     308:	00030074 	andeq	r0, r3, r4, ror r0
     30c:	03000000 	movweq	r0, #0
     310:	000037d4 	ldrdeq	r3, [r0], -r4
     314:	07040400 	streq	r0, [r4, -r0, lsl #8]
     318:	00000137 	andeq	r0, r0, r7, lsr r1
     31c:	e5060104 	str	r0, [r6, #-260]	; 0x104
     320:	04000000 	streq	r0, [r0], #-0
     324:	01640502 	cmneq	r4, r2, lsl #10
     328:	04040000 	streq	r0, [r4], #-0
     32c:	00015b05 	andeq	r5, r1, r5, lsl #22
     330:	05080400 	streq	r0, [r8, #-1024]	; 0x400
     334:	00000156 	andeq	r0, r0, r6, asr r1
     338:	00038003 	andeq	r8, r3, r3
     33c:	652e0400 	strvs	r0, [lr, #-1024]!	; 0x400
     340:	04000000 	streq	r0, [r0], #-0
     344:	00e30801 	rsceq	r0, r3, r1, lsl #16
     348:	24030000 	strcs	r0, [r3], #-0
     34c:	04000002 	streq	r0, [r0], #-2
     350:	00007731 	andeq	r7, r0, r1, lsr r7
     354:	07020400 	streq	r0, [r2, -r0, lsl #8]
     358:	000000f1 	strdeq	r0, [r0], -r1
     35c:	00016e03 	andeq	r6, r1, r3, lsl #28
     360:	89340400 	ldmdbhi	r4!, {sl}
     364:	04000000 	streq	r0, [r0], #-0
     368:	01320704 	teqeq	r2, r4, lsl #14
     36c:	08040000 	stmdaeq	r4, {}	; <UNPREDICTABLE>
     370:	00012d07 	andeq	r2, r1, r7, lsl #26
     374:	07040400 	streq	r0, [r4, -r0, lsl #8]
     378:	0000014d 	andeq	r0, r0, sp, asr #2
     37c:	04060405 	streq	r0, [r6], #-1029	; 0x405
     380:	000000a6 	andeq	r0, r0, r6, lsr #1
     384:	ec080104 	stfs	f0, [r8], {4}
     388:	06000000 	streq	r0, [r0], -r0
     38c:	0000b304 	andeq	fp, r0, r4, lsl #6
     390:	00a60700 	adceq	r0, r6, r0, lsl #14
     394:	a6080000 	strge	r0, [r8], -r0
     398:	c8000000 	stmdagt	r0, {}	; <UNPREDICTABLE>
     39c:	09000000 	stmdbeq	r0, {}	; <UNPREDICTABLE>
     3a0:	00000097 	muleq	r0, r7, r0
     3a4:	010a0007 	tsteq	sl, r7
     3a8:	00dd2702 	sbcseq	r2, sp, r2, lsl #14
     3ac:	f70b0000 			; <UNDEFINED> instruction: 0xf70b0000
     3b0:	0b000001 	bleq	3bc <_start-0x7c44>
     3b4:	0001ec0b 	andeq	lr, r1, fp, lsl #24
     3b8:	0c000c00 	stceq	12, cr0, [r0], {-0}
     3bc:	0a29020c 	beq	a40bf4 <__bss_end__+0xa363f4>
     3c0:	0d000001 	stceq	0, cr0, [r0, #-4]
     3c4:	000008e7 	andeq	r0, r0, r7, ror #17
     3c8:	00ad2a02 	adceq	r2, sp, r2, lsl #20
     3cc:	0d000000 	stceq	0, cr0, [r0, #-0]
     3d0:	00000bb1 			; <UNDEFINED> instruction: 0x00000bb1
     3d4:	00ad2b02 	adceq	r2, sp, r2, lsl #22
     3d8:	0d040000 	stceq	0, cr0, [r4, #-0]
     3dc:	0000035e 	andeq	r0, r0, lr, asr r3
     3e0:	00372c02 	eorseq	r2, r7, r2, lsl #24
     3e4:	00080000 	andeq	r0, r8, r0
     3e8:	0002fb03 	andeq	pc, r2, r3, lsl #22
     3ec:	dd2d0200 	sfmle	f0, 4, [sp, #-0]
     3f0:	0e000000 	cdpeq	0, 0, cr0, cr0, cr0, {0}
     3f4:	000003a8 	andeq	r0, r0, r8, lsr #7
     3f8:	9a300238 	bls	c00ce0 <__bss_end__+0xbf64e0>
     3fc:	0d000001 	stceq	0, cr0, [r0, #-4]
     400:	000002cf 	andeq	r0, r0, pc, asr #5
     404:	007e3102 	rsbseq	r3, lr, r2, lsl #2
     408:	0d000000 	stceq	0, cr0, [r0, #-0]
     40c:	0000038e 	andeq	r0, r0, lr, lsl #7
     410:	007e3202 	rsbseq	r3, lr, r2, lsl #4
     414:	0d040000 	stceq	0, cr0, [r4, #-0]
     418:	00000772 	andeq	r0, r0, r2, ror r7
     41c:	007e3302 	rsbseq	r3, lr, r2, lsl #6
     420:	0d080000 	stceq	0, cr0, [r8, #-0]
     424:	000002c1 	andeq	r0, r0, r1, asr #5
     428:	007e3702 	rsbseq	r3, lr, r2, lsl #14
     42c:	0d0c0000 	stceq	0, cr0, [ip, #-0]
     430:	000002b3 			; <UNDEFINED> instruction: 0x000002b3
     434:	010a3902 	tsteq	sl, r2, lsl #18
     438:	0d100000 	ldceq	0, cr0, [r0, #-0]
     43c:	000002dc 	ldrdeq	r0, [r0], -ip
     440:	010a3a02 	tsteq	sl, r2, lsl #20
     444:	0d1c0000 	ldceq	0, cr0, [ip, #-0]
     448:	00000219 	andeq	r0, r0, r9, lsl r2
     44c:	007e3e02 	rsbseq	r3, lr, r2, lsl #28
     450:	0d280000 	stceq	0, cr0, [r8, #-0]
     454:	000001ff 	strdeq	r0, [r0], -pc	; <UNPREDICTABLE>
     458:	007e3f02 	rsbseq	r3, lr, r2, lsl #30
     45c:	0d2c0000 	stceq	0, cr0, [ip, #-0]
     460:	000001c1 	andeq	r0, r0, r1, asr #3
     464:	019a4202 	orrseq	r4, sl, r2, lsl #4
     468:	0d300000 	ldceq	0, cr0, [r0, #-0]
     46c:	000001f2 	strdeq	r0, [r0], -r2
     470:	006c4502 	rsbeq	r4, ip, r2, lsl #10
     474:	00340000 	eorseq	r0, r4, r0
     478:	01150406 	tsteq	r5, r6, lsl #8
     47c:	88030000 	stmdahi	r3, {}	; <UNPREDICTABLE>
     480:	02000003 	andeq	r0, r0, #3
     484:	00011546 	andeq	r1, r1, r6, asr #10
     488:	02020a00 	andeq	r0, r2, #0, 20
     48c:	0001d049 	andeq	sp, r1, r9, asr #32
     490:	03310b00 	teqeq	r1, #0, 22
     494:	01fe0000 	mvnseq	r0, r0
     498:	0002c70b 	andeq	ip, r2, fp, lsl #14
     49c:	0b018000 	bleq	604a4 <__bss_end__+0x55ca4>
     4a0:	0000024c 	andeq	r0, r0, ip, asr #4
     4a4:	2d0b01b8 	stfcss	f0, [fp, #-736]	; 0xfffffd20
     4a8:	b8000002 	stmdalt	r0, {r1}
     4ac:	f10e0002 	cpsid	,#2
     4b0:	10000002 	andne	r0, r0, r2
     4b4:	020d9a02 	andeq	r9, sp, #8192	; 0x2000
     4b8:	520d0000 	andpl	r0, sp, #0
     4bc:	0200000d 	andeq	r0, r0, #13
     4c0:	00009e9c 	muleq	r0, ip, lr
     4c4:	650d0000 	strvs	r0, [sp, #-0]
     4c8:	0200000d 	andeq	r0, r0, #13
     4cc:	00009e9e 	muleq	r0, lr, lr
     4d0:	a70d0400 	strge	r0, [sp, -r0, lsl #8]
     4d4:	02000001 	andeq	r0, r0, #1
     4d8:	000037a1 	andeq	r3, r0, r1, lsr #15
     4dc:	430d0800 	movwmi	r0, #55296	; 0xd800
     4e0:	02000003 	andeq	r0, r0, #3
     4e4:	000037a3 	andeq	r3, r0, r3, lsr #15
     4e8:	0f000c00 	svceq	0x00000c00
     4ec:	000001e2 	andeq	r0, r0, r2, ror #3
     4f0:	009e5702 	addseq	r5, lr, r2, lsl #14
     4f4:	27030000 	strcs	r0, [r3, -r0]
     4f8:	10000002 	andne	r0, r0, r2
     4fc:	57020068 	strpl	r0, [r2, -r8, rrx]
     500:	00000227 	andeq	r0, r0, r7, lsr #4
     504:	a0040600 	andge	r0, r4, r0, lsl #12
     508:	0f000001 	svceq	0x00000001
     50c:	000002e5 	andeq	r0, r0, r5, ror #5
     510:	009e5902 	addseq	r5, lr, r2, lsl #18
     514:	47030000 	strmi	r0, [r3, -r0]
     518:	10000002 	andne	r0, r0, r2
     51c:	59020068 	stmdbpl	r2, {r3, r5, r6}
     520:	00000227 	andeq	r0, r0, r7, lsr #4
     524:	030f0f00 	movweq	r0, #65280	; 0xff00
     528:	5b020000 	blpl	80530 <__bss_end__+0x75d30>
     52c:	0000009e 	muleq	r0, lr, r0
     530:	00026103 	andeq	r6, r2, r3, lsl #2
     534:	00681000 	rsbeq	r1, r8, r0
     538:	02275b02 	eoreq	r5, r7, #2048	; 0x800
     53c:	0f000000 	svceq	0x00000000
     540:	00000365 	andeq	r0, r0, r5, ror #6
     544:	00375d02 	eorseq	r5, r7, r2, lsl #26
     548:	7b030000 	blvc	c0550 <__bss_end__+0xb5d50>
     54c:	10000002 	andne	r0, r0, r2
     550:	5d020068 	stcpl	0, cr0, [r2, #-416]	; 0xfffffe60
     554:	00000227 	andeq	r0, r0, r7, lsr #4
     558:	020b0f00 	andeq	r0, fp, #0, 30
     55c:	5f020000 	svcpl	0x00020000
     560:	00000227 	andeq	r0, r0, r7, lsr #4
     564:	00029703 	andeq	r9, r2, r3, lsl #14
     568:	01c81100 	biceq	r1, r8, r0, lsl #2
     56c:	5f020000 	svcpl	0x00020000
     570:	0000009e 	muleq	r0, lr, r0
     574:	02710f00 	rsbseq	r0, r1, #0, 30
     578:	63020000 	movwvs	r0, #8192	; 0x2000
     57c:	00000037 	andeq	r0, r0, r7, lsr r0
     580:	0002b103 	andeq	fp, r2, r3, lsl #2
     584:	00681000 	rsbeq	r1, r8, r0
     588:	02276302 	eoreq	r6, r7, #134217728	; 0x8000000
     58c:	12000000 	andne	r0, r0, #0
     590:	00000321 	andeq	r0, r0, r1, lsr #6
     594:	d0038302 	andle	r8, r3, r2, lsl #6
     598:	10000002 	andne	r0, r0, r2
     59c:	83020068 	movwhi	r0, #8296	; 0x2068
     5a0:	00000227 	andeq	r0, r0, r7, lsr #4
     5a4:	02006c13 	andeq	r6, r0, #4864	; 0x1300
     5a8:	0002d085 	andeq	sp, r2, r5, lsl #1
     5ac:	04060000 	streq	r0, [r6], #-0
     5b0:	0000010a 	andeq	r0, r0, sl, lsl #2
     5b4:	00039e14 	andeq	r9, r3, r4, lsl lr
     5b8:	25260100 	strcs	r0, [r6, #-256]!	; 0x100
     5bc:	d4000000 	strle	r0, [r0], #-0
     5c0:	00000080 	andeq	r0, r0, r0, lsl #1
     5c4:	01000001 	tsteq	r0, r1
     5c8:	00043f9c 	muleq	r4, ip, pc	; <UNPREDICTABLE>
     5cc:	00681500 	rsbeq	r1, r8, r0, lsl #10
     5d0:	02272601 	eoreq	r2, r7, #1048576	; 0x100000
     5d4:	001e0000 	andseq	r0, lr, r0
     5d8:	70150000 	andsvc	r0, r5, r0
     5dc:	a0260100 	eorge	r0, r6, r0, lsl #2
     5e0:	52000000 	andpl	r0, r0, #0
     5e4:	16000000 	strne	r0, [r0], -r0
     5e8:	0000036b 	andeq	r0, r0, fp, ror #6
     5ec:	00372601 	eorseq	r2, r7, r1, lsl #12
     5f0:	008c0000 	addeq	r0, ip, r0
     5f4:	69170000 	ldmdbvs	r7, {}	; <UNPREDICTABLE>
     5f8:	25270100 	strcs	r0, [r7, #-256]!	; 0x100
     5fc:	c6000000 	strgt	r0, [r0], -r0
     600:	18000000 	stmdane	r0, {}	; <UNPREDICTABLE>
     604:	00000000 	andeq	r0, r0, r0
     608:	0001c619 	andeq	ip, r1, r9, lsl r6
     60c:	a02a0100 	eorge	r0, sl, r0, lsl #2
     610:	01000000 	mrseq	r0, (UNDEF: 0)
     614:	095e1a57 	ldmdbeq	lr, {r0, r1, r2, r4, r6, r9, fp, ip}^
     618:	2b010000 	blcs	40620 <__bss_end__+0x35e20>
     61c:	00000025 	andeq	r0, r0, r5, lsr #32
     620:	000000f0 	strdeq	r0, [r0], -r0	; <UNPREDICTABLE>
     624:	0002b11b 	andeq	fp, r2, fp, lsl r1
     628:	00812000 	addeq	r2, r1, r0
     62c:	00007000 	andeq	r7, r0, r0
     630:	f32c0100 	vrhadd.u32	d0, d12, d0
     634:	1c000003 	stcne	0, cr0, [r0], {3}
     638:	000002bd 			; <UNDEFINED> instruction: 0x000002bd
     63c:	0000010e 	andeq	r0, r0, lr, lsl #2
     640:	0081201d 	addeq	r2, r1, sp, lsl r0
     644:	00007000 	andeq	r7, r0, r0
     648:	02c61e00 	sbceq	r1, r6, #0, 28
     64c:	012c0000 	teqeq	ip, r0
     650:	281f0000 	ldmdacs	pc, {}	; <UNPREDICTABLE>
     654:	3a000081 	bcc	860 <_start-0x77a0>
     658:	8800000f 	stmdahi	r0, {r0, r1, r2, r3}
     65c:	20000003 	andcs	r0, r0, r3
     660:	76025001 	strvc	r5, [r2], -r1
     664:	341f0000 	ldrcc	r0, [pc], #-0	; 66c <_start-0x7994>
     668:	3a000081 	bcc	874 <_start-0x778c>
     66c:	9f00000f 	svcls	0x0000000f
     670:	20000003 	andcs	r0, r0, r3
     674:	03055001 	movweq	r5, #20481	; 0x5001
     678:	00009b30 	andeq	r9, r0, r0, lsr fp
     67c:	81481f00 	cmphi	r8, r0, lsl #30
     680:	0f3a0000 	svceq	0x003a0000
     684:	03b30000 			; <UNDEFINED> instruction: 0x03b30000
     688:	01200000 	teqeq	r0, r0
     68c:	00760250 	rsbseq	r0, r6, r0, asr r2
     690:	815c1f00 	cmphi	ip, r0, lsl #30
     694:	0f3a0000 	svceq	0x003a0000
     698:	03ca0000 	biceq	r0, sl, #0
     69c:	01200000 	teqeq	r0, r0
     6a0:	3c030550 	cfstr32cc	mvfx0, [r3], {80}	; 0x50
     6a4:	0000009b 	muleq	r0, fp, r0
     6a8:	00817c1f 	addeq	r7, r1, pc, lsl ip
     6ac:	000f3a00 	andeq	r3, pc, r0, lsl #20
     6b0:	0003de00 	andeq	sp, r3, r0, lsl #28
     6b4:	50012000 	andpl	r2, r1, r0
     6b8:	00007602 	andeq	r7, r0, r2, lsl #12
     6bc:	00819021 	addeq	r9, r1, r1, lsr #32
     6c0:	000f3a00 	andeq	r3, pc, r0, lsl #20
     6c4:	50012000 	andpl	r2, r1, r0
     6c8:	9b5c0305 	blls	17012e4 <__bss_end__+0x16f6ae4>
     6cc:	00000000 	andeq	r0, r0, r0
     6d0:	81081f00 	tsthi	r8, r0, lsl #30
     6d4:	0f3a0000 	svceq	0x003a0000
     6d8:	04070000 	streq	r0, [r7], #-0
     6dc:	01200000 	teqeq	r0, r0
     6e0:	00760250 	rsbseq	r0, r6, r0, asr r2
     6e4:	81101f00 	tsthi	r0, r0, lsl #30
     6e8:	0f3a0000 	svceq	0x003a0000
     6ec:	041e0000 	ldreq	r0, [lr], #-0
     6f0:	01200000 	teqeq	r0, r0
     6f4:	04030550 	streq	r0, [r3], #-1360	; 0x550
     6f8:	0000009b 	muleq	r0, fp, r0
     6fc:	00812021 	addeq	r2, r1, r1, lsr #32
     700:	000f3a00 	andeq	r3, pc, r0, lsl #20
     704:	52012000 	andpl	r2, r1, #0
     708:	20007402 	andcs	r7, r0, r2, lsl #8
     70c:	77025101 	strvc	r5, [r2, -r1, lsl #2]
     710:	50012000 	andpl	r2, r1, r0
     714:	9b0c0305 	blls	301330 <__bss_end__+0x2f6b30>
     718:	00000000 	andeq	r0, r0, r0
     71c:	033a2200 	teqeq	sl, #0, 4
     720:	32010000 	andcc	r0, r1, #0
     724:	000081d4 	ldrdeq	r8, [r0], -r4
     728:	00000014 	andeq	r0, r0, r4, lsl r0
     72c:	048f9c01 	streq	r9, [pc], #3073	; 734 <_start-0x78cc>
     730:	70150000 	andsvc	r0, r5, r0
     734:	9e320100 	rsflss	f0, f2, f0
     738:	5b000000 	blpl	740 <_start-0x78c0>
     73c:	16000001 	strne	r0, [r0], -r1
     740:	0000036b 	andeq	r0, r0, fp, ror #6
     744:	00373201 	eorseq	r3, r7, r1, lsl #4
     748:	017c0000 	cmneq	ip, r0
     74c:	e4210000 	strt	r0, [r1], #-0
     750:	50000081 	andpl	r0, r0, r1, lsl #1
     754:	2000000f 	andcs	r0, r0, pc
     758:	f3035201 	vhsub.u8	d5, d3, d1
     75c:	01205101 	teqeq	r0, r1, lsl #2
     760:	fe080251 	mcr2	2, 0, r0, cr8, cr1, {2}
     764:	03500120 	cmpeq	r0, #32, 2
     768:	005001f3 	ldrsheq	r0, [r0], #-19	; 0xffffffed
     76c:	02bd1400 	adcseq	r1, sp, #0, 8
     770:	14010000 	strne	r0, [r1], #-0
     774:	0000007e 	andeq	r0, r0, lr, ror r0
     778:	000081e8 	andeq	r8, r0, r8, ror #3
     77c:	00000024 	andeq	r0, r0, r4, lsr #32
     780:	04e69c01 	strbteq	r9, [r6], #3073	; 0xc01
     784:	68150000 	ldmdavs	r5, {}	; <UNPREDICTABLE>
     788:	27140100 	ldrcs	r0, [r4, -r0, lsl #2]
     78c:	a8000002 	stmdage	r0, {r1}
     790:	23000001 	movwcs	r0, #1
     794:	00646c6f 	rsbeq	r6, r4, pc, ror #24
     798:	00371501 	eorseq	r1, r7, r1, lsl #10
     79c:	55010000 	strpl	r0, [r1, #-0]
     7a0:	0002c119 	andeq	ip, r2, r9, lsl r1
     7a4:	7e170100 	mufvcs	f0, f7, f0
     7a8:	01000000 	mrseq	r0, (UNDEF: 0)
     7ac:	82042150 	andhi	r2, r4, #80, 2
     7b0:	0f6f0000 	svceq	0x006f0000
     7b4:	01200000 	teqeq	r0, r0
     7b8:	38080251 	stmdacc	r8, {r0, r4, r6, r9}
     7bc:	02500120 	subseq	r0, r0, #32, 2
     7c0:	00000074 	andeq	r0, r0, r4, ror r0
     7c4:	00030514 	andeq	r0, r3, r4, lsl r5
     7c8:	251d0100 	ldrcs	r0, [sp, #-256]	; 0x100
     7cc:	0c000000 	stceq	0, cr0, [r0], {-0}
     7d0:	78000082 	stmdavc	r0, {r1, r7}
     7d4:	01000000 	mrseq	r0, (UNDEF: 0)
     7d8:	0005c19c 	muleq	r5, ip, r1
     7dc:	00681500 	rsbeq	r1, r8, r0, lsl #10
     7e0:	02271d01 	eoreq	r1, r7, #1, 26	; 0x40
     7e4:	01c60000 	biceq	r0, r6, r0
     7e8:	721a0000 	andsvc	r0, sl, #0
     7ec:	01000003 	tsteq	r0, r3
     7f0:	00007e1e 	andeq	r7, r0, lr, lsl lr
     7f4:	0001e400 	andeq	lr, r1, r0, lsl #8
     7f8:	01132400 	tsteq	r3, r0, lsl #8
     7fc:	05d10000 	ldrbeq	r0, [r1]
     800:	03050000 	movweq	r0, #20480	; 0x5000
     804:	00009abc 			; <UNDEFINED> instruction: 0x00009abc
     808:	0082181f 	addeq	r1, r2, pc, lsl r8
     80c:	00048f00 	andeq	r8, r4, r0, lsl #30
     810:	00053e00 	andeq	r3, r5, r0, lsl #28
     814:	50012000 	andpl	r2, r1, r0
     818:	00007402 	andeq	r7, r0, r2, lsl #8
     81c:	00822825 	addeq	r2, r2, r5, lsr #16
     820:	000f9000 	andeq	r9, pc, r0
     824:	823c1f00 	eorshi	r1, ip, #0, 30
     828:	0f3a0000 	svceq	0x003a0000
     82c:	05760000 	ldrbeq	r0, [r6, #-0]!
     830:	01200000 	teqeq	r0, r0
     834:	21080253 	tstcs	r8, r3, asr r2
     838:	05520120 	ldrbeq	r0, [r2, #-288]	; 0x120
     83c:	009abc03 	addseq	fp, sl, r3, lsl #24
     840:	51012000 	mrspl	r2, (UNDEF: 1)
     844:	9ba40305 	blls	fe901460 <__bss_end__+0xfe8f6c60>
     848:	01200000 	teqeq	r0, r0
     84c:	78030550 	stmdavc	r3, {r4, r6, r8, sl}
     850:	0000009b 	muleq	r0, fp, r0
     854:	00824025 	addeq	r4, r2, r5, lsr #32
     858:	000f9700 	andeq	r9, pc, r0, lsl #14
     85c:	82542500 	subshi	r2, r4, #0, 10
     860:	0f900000 	svceq	0x00900000
     864:	681f0000 	ldmdavs	pc, {}	; <UNPREDICTABLE>
     868:	3a000082 	bcc	a78 <_start-0x7588>
     86c:	b700000f 	strlt	r0, [r0, -pc]
     870:	20000005 	andcs	r0, r0, r5
     874:	08025301 	stmdaeq	r2, {r0, r8, r9, ip, lr}
     878:	52012022 	andpl	r2, r1, #34	; 0x22
     87c:	9abc0305 	bls	fef01498 <__bss_end__+0xfeef6c98>
     880:	01200000 	teqeq	r0, r0
     884:	a4030551 	strge	r0, [r3], #-1361	; 0x551
     888:	2000009b 	mulcs	r0, fp, r0
     88c:	03055001 	movweq	r5, #20481	; 0x5001
     890:	00009bb0 			; <UNDEFINED> instruction: 0x00009bb0
     894:	826c2500 	rsbhi	r2, ip, #0, 10
     898:	0f970000 	svceq	0x00970000
     89c:	08000000 	stmdaeq	r0, {}	; <UNPREDICTABLE>
     8a0:	000000a6 	andeq	r0, r0, r6, lsr #1
     8a4:	000005d1 	ldrdeq	r0, [r0], -r1
     8a8:	00009709 	andeq	r9, r0, r9, lsl #14
     8ac:	07000900 	streq	r0, [r0, -r0, lsl #18]
     8b0:	000005c1 	andeq	r0, r0, r1, asr #11
     8b4:	00035214 	andeq	r5, r3, r4, lsl r2
     8b8:	253c0100 	ldrcs	r0, [ip, #-256]!	; 0x100
     8bc:	84000000 	strhi	r0, [r0], #-0
     8c0:	70000082 	andvc	r0, r0, r2, lsl #1
     8c4:	01000000 	mrseq	r0, (UNDEF: 0)
     8c8:	00067b9c 	muleq	r6, ip, fp
     8cc:	00681500 	rsbeq	r1, r8, r0, lsl #10
     8d0:	02273c01 	eoreq	r3, r7, #256	; 0x100
     8d4:	020d0000 	andeq	r0, sp, #0
     8d8:	471b0000 	ldrmi	r0, [fp, -r0]
     8dc:	b0000002 	andlt	r0, r0, r2
     8e0:	08000082 	stmdaeq	r0, {r1, r7}
     8e4:	01000000 	mrseq	r0, (UNDEF: 0)
     8e8:	00061940 	andeq	r1, r6, r0, asr #18
     8ec:	02571c00 	subseq	r1, r7, #0, 24
     8f0:	022b0000 	eoreq	r0, fp, #0
     8f4:	1b000000 	blne	8fc <_start-0x7704>
     8f8:	00000261 	andeq	r0, r0, r1, ror #4
     8fc:	000082b8 			; <UNDEFINED> instruction: 0x000082b8
     900:	00000004 	andeq	r0, r0, r4
     904:	06364001 	ldrteq	r4, [r6], -r1
     908:	711c0000 	tstvc	ip, r0
     90c:	49000002 	stmdbmi	r0, {r1}
     910:	00000002 	andeq	r0, r0, r2
     914:	0082901f 	addeq	r9, r2, pc, lsl r0
     918:	0004e600 	andeq	lr, r4, r0, lsl #12
     91c:	00064a00 	andeq	r4, r6, r0, lsl #20
     920:	50012000 	andpl	r2, r1, r0
     924:	00007402 	andeq	r7, r0, r2, lsl #8
     928:	0082a81f 	addeq	sl, r2, pc, lsl r8
     92c:	0002d600 	andeq	sp, r2, r0, lsl #12
     930:	00066a00 	andeq	r6, r6, r0, lsl #20
     934:	52012000 	andpl	r2, r1, #0
     938:	20800802 	addcs	r0, r0, r2, lsl #16
     93c:	74025101 	strvc	r5, [r2], #-257	; 0x101
     940:	50012038 	andpl	r2, r1, r8, lsr r0
     944:	00007402 	andeq	r7, r0, r2, lsl #8
     948:	0082cc21 	addeq	ip, r2, r1, lsr #24
     94c:	0002d600 	andeq	sp, r2, r0, lsl #12
     950:	50012000 	andpl	r2, r1, r0
     954:	00007402 	andeq	r7, r0, r2, lsl #8
     958:	01252600 	teqeq	r5, r0, lsl #12
     95c:	0a010000 	beq	40964 <__bss_end__+0x36164>
     960:	000082f4 	strdeq	r8, [r0], -r4
     964:	00000074 	andeq	r0, r0, r4, ror r0
     968:	071b9c01 	ldreq	r9, [fp, -r1, lsl #24]
     96c:	57160000 	ldrpl	r0, [r6, -r0]
     970:	0100000d 	tsteq	r0, sp
     974:	00009e0a 	andeq	r9, r0, sl, lsl #28
     978:	00026700 	andeq	r6, r2, r0, lsl #14
     97c:	006e1500 	rsbeq	r1, lr, r0, lsl #10
     980:	00370a01 	eorseq	r0, r7, r1, lsl #20
     984:	02aa0000 	adceq	r0, sl, #0
     988:	13240000 	teqne	r4, #0
     98c:	1b000001 	blne	998 <_start-0x7668>
     990:	05000007 	streq	r0, [r0, #-7]
     994:	009ac803 	addseq	ip, sl, r3, lsl #16
     998:	83142500 	tsthi	r4, #0, 10
     99c:	0f900000 	svceq	0x00900000
     9a0:	281f0000 	ldmdacs	pc, {}	; <UNPREDICTABLE>
     9a4:	3a000083 	bcc	bb8 <_start-0x7448>
     9a8:	f200000f 	vhadd.s8	d0, d0, d15
     9ac:	20000006 	andcs	r0, r0, r6
     9b0:	3b015301 	blcc	555bc <__bss_end__+0x4adbc>
     9b4:	05520120 	ldrbeq	r0, [r2, #-288]	; 0x120
     9b8:	009ac803 	addseq	ip, sl, r3, lsl #16
     9bc:	51012000 	mrspl	r2, (UNDEF: 1)
     9c0:	9ba40305 	blls	fe9015dc <__bss_end__+0xfe8f6ddc>
     9c4:	01200000 	teqeq	r0, r0
     9c8:	ec030550 	cfstr32	mvfx0, [r3], {80}	; 0x50
     9cc:	0000009b 	muleq	r0, fp, r0
     9d0:	00832c25 	addeq	r2, r3, r5, lsr #24
     9d4:	000f9700 	andeq	r9, pc, r0, lsl #14
     9d8:	833c2100 	teqhi	ip, #0, 2
     9dc:	0f3a0000 	svceq	0x003a0000
     9e0:	01200000 	teqeq	r0, r0
     9e4:	80080252 	andhi	r0, r8, r2, asr r2
     9e8:	02510120 	subseq	r0, r1, #32, 2
     9ec:	01203808 	teqeq	r0, r8, lsl #16
     9f0:	14030550 	strne	r0, [r3], #-1360	; 0x550
     9f4:	0000009c 	muleq	r0, ip, r0
     9f8:	00b80700 	adcseq	r0, r8, r0, lsl #14
     9fc:	93260000 	teqls	r6, #0
     a00:	01000002 	tsteq	r0, r2
     a04:	00836848 	addeq	r6, r3, r8, asr #16
     a08:	0000bc00 	andeq	fp, r0, r0, lsl #24
     a0c:	3b9c0100 	blcc	fe700e14 <__bss_end__+0xfe6f6614>
     a10:	16000008 	strne	r0, [r0], -r8
     a14:	000001c8 	andeq	r0, r0, r8, asr #3
     a18:	009e4801 	addseq	r4, lr, r1, lsl #16
     a1c:	02de0000 	sbcseq	r0, lr, #0
     a20:	e7160000 	ldr	r0, [r6, -r0]
     a24:	01000008 	tsteq	r0, r8
     a28:	0000ad48 	andeq	sl, r0, r8, asr #26
     a2c:	0002fc00 	andeq	pc, r2, r0, lsl #24
     a30:	0bb11600 	bleq	fec46238 <__bss_end__+0xfec3ba38>
     a34:	48010000 	stmdami	r1, {}	; <UNPREDICTABLE>
     a38:	000000ad 	andeq	r0, r0, sp, lsr #1
     a3c:	00000330 	andeq	r0, r0, r0, lsr r3
     a40:	00035e16 	andeq	r5, r3, r6, lsl lr
     a44:	37480100 	strbcc	r0, [r8, -r0, lsl #2]
     a48:	64000000 	strvs	r0, [r0], #-0
     a4c:	17000003 	strne	r0, [r0, -r3]
     a50:	49010068 	stmdbmi	r1, {r3, r5, r6}
     a54:	00000227 	andeq	r0, r0, r7, lsr #4
     a58:	00000398 	muleq	r0, r8, r3
     a5c:	00011324 	andeq	r1, r1, r4, lsr #6
     a60:	00084b00 	andeq	r4, r8, r0, lsl #22
     a64:	d0030500 	andle	r0, r3, r0, lsl #10
     a68:	2500009a 	strcs	r0, [r0, #-154]	; 0x9a
     a6c:	00008390 	muleq	r0, r0, r3
     a70:	00000f90 	muleq	r0, r0, pc	; <UNPREDICTABLE>
     a74:	0083a41f 	addeq	sl, r3, pc, lsl r4
     a78:	000f3a00 	andeq	r3, pc, r0, lsl #20
     a7c:	0007c500 	andeq	ip, r7, r0, lsl #10
     a80:	53012000 	movwpl	r2, #4096	; 0x1000
     a84:	204a0802 	subcs	r0, sl, r2, lsl #16
     a88:	03055201 	movweq	r5, #20993	; 0x5201
     a8c:	00009ad0 	ldrdeq	r9, [r0], -r0
     a90:	05510120 	ldrbeq	r0, [r1, #-288]	; 0x120
     a94:	009ba403 	addseq	sl, fp, r3, lsl #8
     a98:	50012000 	andpl	r2, r1, r0
     a9c:	9c300305 	ldcls	3, cr0, [r0], #-20	; 0xffffffec
     aa0:	25000000 	strcs	r0, [r0, #-0]
     aa4:	000083a8 	andeq	r8, r0, r8, lsr #7
     aa8:	00000f97 	muleq	r0, r7, pc	; <UNPREDICTABLE>
     aac:	0083b01f 	addeq	fp, r3, pc, lsl r0
     ab0:	000f3a00 	andeq	r3, pc, r0, lsl #20
     ab4:	0007e500 	andeq	lr, r7, r0, lsl #10
     ab8:	50012000 	andpl	r2, r1, r0
     abc:	9afc0305 	bls	fff016d8 <__bss_end__+0xffef6ed8>
     ac0:	1f000000 	svcne	0x00000000
     ac4:	000083bc 			; <UNDEFINED> instruction: 0x000083bc
     ac8:	00000f3a 	andeq	r0, r0, sl, lsr pc
     acc:	00000802 	andeq	r0, r0, r2, lsl #16
     ad0:	02510120 	subseq	r0, r1, #32, 2
     ad4:	01200074 	teqeq	r0, r4, ror r0
     ad8:	64030550 	strvs	r0, [r3], #-1360	; 0x550
     adc:	0000009c 	muleq	r0, ip, r0
     ae0:	0083c81f 	addeq	ip, r3, pc, lsl r8
     ae4:	0005d600 	andeq	sp, r5, r0, lsl #12
     ae8:	00081600 	andeq	r1, r8, r0, lsl #12
     aec:	50012000 	andpl	r2, r1, r0
     af0:	00007502 	andeq	r7, r0, r2, lsl #10
     af4:	0083f01f 	addeq	pc, r3, pc, lsl r0	; <UNPREDICTABLE>
     af8:	00043f00 	andeq	r3, r4, r0, lsl #30
     afc:	00082a00 	andeq	r2, r8, r0, lsl #20
     b00:	50012000 	andpl	r2, r1, r0
     b04:	00007402 	andeq	r7, r0, r2, lsl #8
     b08:	00840421 	addeq	r0, r4, r1, lsr #8
     b0c:	00048f00 	andeq	r8, r4, r0, lsl #30
     b10:	50012000 	andpl	r2, r1, r0
     b14:	00007502 	andeq	r7, r0, r2, lsl #10
     b18:	00a60800 	adceq	r0, r6, r0, lsl #16
     b1c:	084b0000 	stmdaeq	fp, {}^	; <UNPREDICTABLE>
     b20:	97090000 	strls	r0, [r9, -r0]
     b24:	06000000 	streq	r0, [r0], -r0
     b28:	083b0700 	ldmdaeq	fp!, {r8, r9, sl}
     b2c:	1e270000 	cdpne	0, 2, cr0, cr7, cr0, {0}
     b30:	01000000 	mrseq	r0, (UNDEF: 0)
     b34:	00009e62 	andeq	r9, r0, r2, ror #28
     b38:	00842400 	addeq	r2, r4, r0, lsl #8
     b3c:	00023400 	andeq	r3, r2, r0, lsl #8
     b40:	c09c0100 	addsgt	r0, ip, r0, lsl #2
     b44:	1600000b 	strne	r0, [r0], -fp
     b48:	0000036b 	andeq	r0, r0, fp, ror #6
     b4c:	007e6201 	rsbseq	r6, lr, r1, lsl #4
     b50:	03ac0000 			; <UNDEFINED> instruction: 0x03ac0000
     b54:	e7160000 	ldr	r0, [r6, -r0]
     b58:	01000008 	tsteq	r0, r8
     b5c:	0000ad62 	andeq	sl, r0, r2, ror #26
     b60:	0003ee00 	andeq	lr, r3, r0, lsl #28
     b64:	0bb11600 	bleq	fec4636c <__bss_end__+0xfec3bb6c>
     b68:	62010000 	andvs	r0, r1, #0
     b6c:	000000ad 	andeq	r0, r0, sp, lsr #1
     b70:	00000430 	andeq	r0, r0, r0, lsr r4
     b74:	00035e16 	andeq	r5, r3, r6, lsl lr
     b78:	37620100 	strbcc	r0, [r2, -r0, lsl #2]!
     b7c:	72000000 	andvc	r0, r0, #0
     b80:	17000004 	strne	r0, [r0, -r4]
     b84:	63010068 	movwvs	r0, #4200	; 0x1068
     b88:	00000227 	andeq	r0, r0, r7, lsr #4
     b8c:	0000049e 	muleq	r0, lr, r4
     b90:	72747017 	rsbsvc	r7, r4, #23
     b94:	9e640100 	powlss	f0, f4, f0
     b98:	cb000000 	blgt	ba0 <_start-0x7460>
     b9c:	24000004 	strcs	r0, [r0], #-4
     ba0:	00000113 	andeq	r0, r0, r3, lsl r1
     ba4:	00000bc0 	andeq	r0, r0, r0, asr #23
     ba8:	9ad80305 	bls	ff6017c4 <__bss_end__+0xff5f6fc4>
     bac:	74170000 	ldrvc	r0, [r7], #-0
     bb0:	0100746f 	tsteq	r0, pc, ror #8
     bb4:	00003769 	andeq	r3, r0, r9, ror #14
     bb8:	0004df00 	andeq	sp, r4, r0, lsl #30
     bbc:	006e1700 	rsbeq	r1, lr, r0, lsl #14
     bc0:	00376a01 	eorseq	r6, r7, r1, lsl #20
     bc4:	05450000 	strbeq	r0, [r5, #-0]
     bc8:	d71a0000 	ldrle	r0, [sl, -r0]
     bcc:	01000001 	tsteq	r0, r1
     bd0:	00007e75 	andeq	r7, r0, r5, ror lr
     bd4:	00056e00 	andeq	r6, r5, r0, lsl #28
     bd8:	02471b00 	subeq	r1, r7, #0, 22
     bdc:	85780000 	ldrbhi	r0, [r8, #-0]!
     be0:	00080000 	andeq	r0, r8, r0
     be4:	86010000 	strhi	r0, [r1], -r0
     be8:	00000918 	andeq	r0, r0, r8, lsl r9
     bec:	0002571c 	andeq	r5, r2, ip, lsl r7
     bf0:	00059a00 	andeq	r9, r5, r0, lsl #20
     bf4:	611b0000 	tstvs	fp, r0
     bf8:	80000002 	andhi	r0, r0, r2
     bfc:	04000085 	streq	r0, [r0], #-133	; 0x85
     c00:	01000000 	mrseq	r0, (UNDEF: 0)
     c04:	00093586 	andeq	r3, r9, r6, lsl #11
     c08:	02711c00 	rsbseq	r1, r1, #0, 24
     c0c:	05bb0000 	ldreq	r0, [fp, #0]!
     c10:	25000000 	strcs	r0, [r0, #-0]
     c14:	00008450 	andeq	r8, r0, r0, asr r4
     c18:	00000f90 	muleq	r0, r0, pc	; <UNPREDICTABLE>
     c1c:	0084641f 	addeq	r6, r4, pc, lsl r4
     c20:	000f3a00 	andeq	r3, pc, r0, lsl #20
     c24:	00096d00 	andeq	r6, r9, r0, lsl #26
     c28:	53012000 	movwpl	r2, #4096	; 0x1000
     c2c:	20660802 	rsbcs	r0, r6, r2, lsl #16
     c30:	03055201 	movweq	r5, #20993	; 0x5201
     c34:	00009ad8 	ldrdeq	r9, [r0], -r8
     c38:	05510120 	ldrbeq	r0, [r1, #-288]	; 0x120
     c3c:	009ba403 	addseq	sl, fp, r3, lsl #8
     c40:	50012000 	andpl	r2, r1, r0
     c44:	9c300305 	ldcls	3, cr0, [r0], #-20	; 0xffffffec
     c48:	25000000 	strcs	r0, [r0, #-0]
     c4c:	00008468 	andeq	r8, r0, r8, ror #8
     c50:	00000f97 	muleq	r0, r7, pc	; <UNPREDICTABLE>
     c54:	0084701f 	addeq	r7, r4, pc, lsl r0
     c58:	000f3a00 	andeq	r3, pc, r0, lsl #20
     c5c:	00098d00 	andeq	r8, r9, r0, lsl #26
     c60:	50012000 	andpl	r2, r1, r0
     c64:	9afc0305 	bls	fff01880 <__bss_end__+0xffef7080>
     c68:	1f000000 	svcne	0x00000000
     c6c:	0000847c 	andeq	r8, r0, ip, ror r4
     c70:	00000f3a 	andeq	r0, r0, sl, lsr pc
     c74:	000009aa 	andeq	r0, r0, sl, lsr #19
     c78:	02510120 	subseq	r0, r1, #32, 2
     c7c:	01200075 	teqeq	r0, r5, ror r0
     c80:	70030550 	andvc	r0, r3, r0, asr r5
     c84:	0000009c 	muleq	r0, ip, r0
     c88:	0084981f 	addeq	r9, r4, pc, lsl r8
     c8c:	000f3a00 	andeq	r3, pc, r0, lsl #20
     c90:	0009c100 	andeq	ip, r9, r0, lsl #2
     c94:	50012000 	andpl	r2, r1, r0
     c98:	9c880305 	stcls	3, cr0, [r8], {5}
     c9c:	1f000000 	svcne	0x00000000
     ca0:	000084a4 	andeq	r8, r0, r4, lsr #9
     ca4:	00000f3a 	andeq	r0, r0, sl, lsr pc
     ca8:	000009de 	ldrdeq	r0, [r0], -lr
     cac:	02510120 	subseq	r0, r1, #32, 2
     cb0:	01200075 	teqeq	r0, r5, ror r0
     cb4:	94030550 	strls	r0, [r3], #-1360	; 0x550
     cb8:	0000009c 	muleq	r0, ip, r0
     cbc:	0084a825 	addeq	sl, r4, r5, lsr #16
     cc0:	000f9000 	andeq	r9, pc, r0
     cc4:	84c01f00 	strbhi	r1, [r0], #3840	; 0xf00
     cc8:	0f3a0000 	svceq	0x003a0000
     ccc:	0a1d0000 	beq	740cd4 <__bss_end__+0x7364d4>
     cd0:	01200000 	teqeq	r0, r0
     cd4:	6e080253 	mcrvs	2, 0, r0, cr8, cr3, {2}
     cd8:	05520120 	ldrbeq	r0, [r2, #-288]	; 0x120
     cdc:	009ad803 	addseq	sp, sl, r3, lsl #16
     ce0:	51012000 	mrspl	r2, (UNDEF: 1)
     ce4:	9ba40305 	blls	fe901900 <__bss_end__+0xfe8f7100>
     ce8:	01200000 	teqeq	r0, r0
     cec:	bc030550 	cfstr32lt	mvfx0, [r3], {80}	; 0x50
     cf0:	2000009c 	mulcs	r0, ip, r0
     cf4:	02007d02 	andeq	r7, r0, #2, 26	; 0x80
     cf8:	25000075 	strcs	r0, [r0, #-117]	; 0x75
     cfc:	000084c4 	andeq	r8, r0, r4, asr #9
     d00:	00000f97 	muleq	r0, r7, pc	; <UNPREDICTABLE>
     d04:	0084e41f 	addeq	lr, r4, pc, lsl r4
     d08:	000f3a00 	andeq	r3, pc, r0, lsl #20
     d0c:	000a3d00 	andeq	r3, sl, r0, lsl #26
     d10:	50012000 	andpl	r2, r1, r0
     d14:	9c880305 	stcls	3, cr0, [r8], {5}
     d18:	1f000000 	svcne	0x00000000
     d1c:	00008500 	andeq	r8, r0, r0, lsl #10
     d20:	00000f3a 	andeq	r0, r0, sl, lsr pc
     d24:	00000a5a 	andeq	r0, r0, sl, asr sl
     d28:	02520120 	subseq	r0, r2, #32, 2
     d2c:	01200076 	teqeq	r0, r6, ror r0
     d30:	f4030550 	vst3.16	{d0,d2,d4}, [r3 :64], r0
     d34:	0000009c 	muleq	r0, ip, r0
     d38:	00850425 	addeq	r0, r5, r5, lsr #8
     d3c:	000f9000 	andeq	r9, pc, r0
     d40:	852c1f00 	strhi	r1, [ip, #-3840]!	; 0xf00
     d44:	0f3a0000 	svceq	0x003a0000
     d48:	0a990000 	beq	fe640d50 <__bss_end__+0xfe636550>
     d4c:	01200000 	teqeq	r0, r0
     d50:	72080253 	andvc	r0, r8, #805306373	; 0x30000005
     d54:	05520120 	ldrbeq	r0, [r2, #-288]	; 0x120
     d58:	009ad803 	addseq	sp, sl, r3, lsl #16
     d5c:	51012000 	mrspl	r2, (UNDEF: 1)
     d60:	9ba40305 	blls	fe90197c <__bss_end__+0xfe8f717c>
     d64:	01200000 	teqeq	r0, r0
     d68:	20030550 	andcs	r0, r3, r0, asr r5
     d6c:	2000009d 	mulcs	r0, sp, r0
     d70:	02047d02 	andeq	r7, r4, #2, 26	; 0x80
     d74:	25000076 	strcs	r0, [r0, #-118]	; 0x76
     d78:	00008530 	andeq	r8, r0, r0, lsr r5
     d7c:	00000f97 	muleq	r0, r7, pc	; <UNPREDICTABLE>
     d80:	0085681f 	addeq	r6, r5, pc, lsl r8
     d84:	00048f00 	andeq	r8, r4, r0, lsl #30
     d88:	000ab600 	andeq	fp, sl, r0, lsl #12
     d8c:	50012000 	andpl	r2, r1, r0
     d90:	00007402 	andeq	r7, r0, r2, lsl #8
     d94:	0085781f 	addeq	r7, r5, pc, lsl r8
     d98:	00043f00 	andeq	r3, r4, r0, lsl #30
     d9c:	000ad000 	andeq	sp, sl, r0
     da0:	51012000 	mrspl	r2, (UNDEF: 1)
     da4:	20800802 	addcs	r0, r0, r2, lsl #16
     da8:	74025001 	strvc	r5, [r2], #-1
     dac:	90250038 	eorls	r0, r5, r8, lsr r0
     db0:	3f000085 	svccc	0x00000085
     db4:	1f000004 	svcne	0x00000004
     db8:	000085a8 	andeq	r8, r0, r8, lsr #11
     dbc:	000004e6 	andeq	r0, r0, r6, ror #9
     dc0:	00000aed 	andeq	r0, r0, sp, ror #21
     dc4:	02500120 	subseq	r0, r0, #32, 2
     dc8:	25000074 	strcs	r0, [r0, #-116]	; 0x74
     dcc:	000085b4 			; <UNDEFINED> instruction: 0x000085b4
     dd0:	00000f90 	muleq	r0, r0, pc	; <UNPREDICTABLE>
     dd4:	0085c81f 	addeq	ip, r5, pc, lsl r8
     dd8:	000f3a00 	andeq	r3, pc, r0, lsl #20
     ddc:	000b2500 	andeq	r2, fp, r0, lsl #10
     de0:	53012000 	movwpl	r2, #4096	; 0x1000
     de4:	208b0802 	addcs	r0, fp, r2, lsl #16
     de8:	03055201 	movweq	r5, #20993	; 0x5201
     dec:	00009ad8 	ldrdeq	r9, [r0], -r8
     df0:	05510120 	ldrbeq	r0, [r1, #-288]	; 0x120
     df4:	009ba403 	addseq	sl, fp, r3, lsl #8
     df8:	50012000 	andpl	r2, r1, r0
     dfc:	9d5c0305 	ldclls	3, cr0, [ip, #-20]	; 0xffffffec
     e00:	25000000 	strcs	r0, [r0, #-0]
     e04:	000085cc 	andeq	r8, r0, ip, asr #11
     e08:	00000f97 	muleq	r0, r7, pc	; <UNPREDICTABLE>
     e0c:	0085d41f 	addeq	sp, r5, pc, lsl r4
     e10:	0005d600 	andeq	sp, r5, r0, lsl #12
     e14:	000b4200 	andeq	r4, fp, r0, lsl #4
     e18:	50012000 	andpl	r2, r1, r0
     e1c:	00007402 	andeq	r7, r0, r2, lsl #8
     e20:	0085e025 	addeq	lr, r5, r5, lsr #32
     e24:	000f9000 	andeq	r9, pc, r0
     e28:	85f41f00 	ldrbhi	r1, [r4, #3840]!	; 0xf00
     e2c:	0f3a0000 	svceq	0x003a0000
     e30:	0b7a0000 	bleq	1e80e38 <__bss_end__+0x1e76638>
     e34:	01200000 	teqeq	r0, r0
     e38:	8c080253 	sfmhi	f0, 4, [r8], {83}	; 0x53
     e3c:	05520120 	ldrbeq	r0, [r2, #-288]	; 0x120
     e40:	009ad803 	addseq	sp, sl, r3, lsl #16
     e44:	51012000 	mrspl	r2, (UNDEF: 1)
     e48:	9ba40305 	blls	fe901a64 <__bss_end__+0xfe8f7264>
     e4c:	01200000 	teqeq	r0, r0
     e50:	7c030550 	cfstr32vc	mvfx0, [r3], {80}	; 0x50
     e54:	0000009d 	muleq	r0, sp, r0
     e58:	0085f825 	addeq	pc, r5, r5, lsr #16
     e5c:	000f9700 	andeq	r9, pc, r0, lsl #14
     e60:	86001f00 	strhi	r1, [r0], -r0, lsl #30
     e64:	0f3a0000 	svceq	0x003a0000
     e68:	0b9a0000 	bleq	fe680e70 <__bss_end__+0xfe676670>
     e6c:	01200000 	teqeq	r0, r0
     e70:	fc030550 	stc2	5, cr0, [r3], {80}	; 0x50
     e74:	0000009a 	muleq	r0, sl, r0
     e78:	00861421 	addeq	r1, r6, r1, lsr #8
     e7c:	000f3a00 	andeq	r3, pc, r0, lsl #20
     e80:	53012000 	movwpl	r2, #4096	; 0x1000
     e84:	20007702 	andcs	r7, r0, r2, lsl #14
     e88:	76025201 	strvc	r5, [r2], -r1, lsl #4
     e8c:	51012000 	mrspl	r2, (UNDEF: 1)
     e90:	20007502 	andcs	r7, r0, r2, lsl #10
     e94:	03055001 	movweq	r5, #20481	; 0x5001
     e98:	00009d9c 	muleq	r0, ip, sp
     e9c:	b8070000 	stmdalt	r7, {}	; <UNPREDICTABLE>
     ea0:	27000000 	strcs	r0, [r0, -r0]
     ea4:	000001b4 			; <UNDEFINED> instruction: 0x000001b4
     ea8:	02279101 	eoreq	r9, r7, #1073741824	; 0x40000000
     eac:	86580000 	ldrbhi	r0, [r8], -r0
     eb0:	00500000 	subseq	r0, r0, r0
     eb4:	9c010000 	stcls	0, cr0, [r1], {-0}
     eb8:	00000c50 	andeq	r0, r0, r0, asr ip
     ebc:	00026819 	andeq	r6, r2, r9, lsl r8
     ec0:	27920100 	ldrcs	r0, [r2, r0, lsl #2]
     ec4:	01000002 	tsteq	r0, r2
     ec8:	01132454 	tsteq	r3, r4, asr r4
     ecc:	0c600000 	stcleq	0, cr0, [r0], #-0
     ed0:	03050000 	movweq	r0, #20480	; 0x5000
     ed4:	00009ae0 	andeq	r9, r0, r0, ror #21
     ed8:	00866c1f 	addeq	r6, r6, pc, lsl ip
     edc:	0004e600 	andeq	lr, r4, r0, lsl #12
     ee0:	000c0e00 	andeq	r0, ip, r0, lsl #28
     ee4:	50012000 	andpl	r2, r1, r0
     ee8:	00007402 	andeq	r7, r0, r2, lsl #8
     eec:	00867825 	addeq	r7, r6, r5, lsr #16
     ef0:	000f9000 	andeq	r9, pc, r0
     ef4:	868c1f00 	strhi	r1, [ip], r0, lsl #30
     ef8:	0f3a0000 	svceq	0x003a0000
     efc:	0c460000 	mareq	acc0, r0, r6
     f00:	01200000 	teqeq	r0, r0
     f04:	95080253 	strls	r0, [r8, #-595]	; 0x253
     f08:	05520120 	ldrbeq	r0, [r2, #-288]	; 0x120
     f0c:	009ae003 	addseq	lr, sl, r3
     f10:	51012000 	mrspl	r2, (UNDEF: 1)
     f14:	9ba40305 	blls	fe901b30 <__bss_end__+0xfe8f7330>
     f18:	01200000 	teqeq	r0, r0
     f1c:	cc030550 	cfstr32gt	mvfx0, [r3], {80}	; 0x50
     f20:	0000009d 	muleq	r0, sp, r0
     f24:	00869025 	addeq	r9, r6, r5, lsr #32
     f28:	000f9700 	andeq	r9, pc, r0, lsl #14
     f2c:	a6080000 	strge	r0, [r8], -r0
     f30:	60000000 	andvs	r0, r0, r0
     f34:	0900000c 	stmdbeq	r0, {r2, r3}
     f38:	00000097 	muleq	r0, r7, r0
     f3c:	5007000c 	andpl	r0, r7, ip
     f40:	2700000c 	strcs	r0, [r0, -ip]
     f44:	0000029a 	muleq	r0, sl, r2
     f48:	02279901 	eoreq	r9, r7, #16384	; 0x4000
     f4c:	86a80000 	strthi	r0, [r8], r0
     f50:	00740000 	rsbseq	r0, r4, r0
     f54:	9c010000 	stcls	0, cr0, [r1], {-0}
     f58:	00000d1a 	andeq	r0, r0, sl, lsl sp
     f5c:	01007015 	tsteq	r0, r5, lsl r0
     f60:	00022799 	muleq	r2, r9, r7
     f64:	0005dc00 	andeq	sp, r5, r0, lsl #24
     f68:	029d1900 	addseq	r1, sp, #0, 18
     f6c:	9a010000 	bls	40f74 <__bss_end__+0x36774>
     f70:	00000227 	andeq	r0, r0, r7, lsr #4
     f74:	13245401 	teqne	r4, #16777216	; 0x1000000
     f78:	2a000001 	bcs	f84 <_start-0x707c>
     f7c:	0500000d 	streq	r0, [r0, #-13]
     f80:	009af003 	addseq	pc, sl, r3
     f84:	02971b00 	addseq	r1, r7, #0, 22
     f88:	86ac0000 	strthi	r0, [ip], r0
     f8c:	00100000 	andseq	r0, r0, r0
     f90:	9a010000 	bls	40f98 <__bss_end__+0x36798>
     f94:	00000cc4 	andeq	r0, r0, r4, asr #25
     f98:	0002a71c 	andeq	sl, r2, ip, lsl r7
     f9c:	00061600 	andeq	r1, r6, r0, lsl #12
     fa0:	d81f0000 	ldmdale	pc, {}	; <UNPREDICTABLE>
     fa4:	e6000086 	str	r0, [r0], -r6, lsl #1
     fa8:	d8000004 	stmdale	r0, {r2}
     fac:	2000000c 	andcs	r0, r0, ip
     fb0:	74025001 	strvc	r5, [r2], #-1
     fb4:	e4250000 	strt	r0, [r5], #-0
     fb8:	90000086 	andls	r0, r0, r6, lsl #1
     fbc:	1f00000f 	svcne	0x0000000f
     fc0:	000086f8 	strdeq	r8, [r0], -r8	; <UNPREDICTABLE>
     fc4:	00000f3a 	andeq	r0, r0, sl, lsr pc
     fc8:	00000d10 	andeq	r0, r0, r0, lsl sp
     fcc:	02530120 	subseq	r0, r3, #32, 2
     fd0:	0120a308 	teqeq	r0, r8, lsl #6
     fd4:	f0030552 			; <UNDEFINED> instruction: 0xf0030552
     fd8:	2000009a 	mulcs	r0, sl, r0
     fdc:	03055101 	movweq	r5, #20737	; 0x5101
     fe0:	00009ba4 	andeq	r9, r0, r4, lsr #23
     fe4:	05500120 	ldrbeq	r0, [r0, #-288]	; 0x120
     fe8:	009df003 	addseq	pc, sp, r3
     fec:	fc250000 	stc2	0, cr0, [r5], #-0
     ff0:	97000086 	strls	r0, [r0, -r6, lsl #1]
     ff4:	0000000f 	andeq	r0, r0, pc
     ff8:	0000a608 	andeq	sl, r0, r8, lsl #12
     ffc:	000d2a00 	andeq	r2, sp, r0, lsl #20
    1000:	00970900 	addseq	r0, r7, r0, lsl #18
    1004:	000b0000 	andeq	r0, fp, r0
    1008:	000d1a07 	andeq	r1, sp, r7, lsl #20
    100c:	02f12700 	rscseq	r2, r1, #0, 14
    1010:	a7010000 	strge	r0, [r1, -r0]
    1014:	000001d0 	ldrdeq	r0, [r0], -r0	; <UNPREDICTABLE>
    1018:	0000871c 	andeq	r8, r0, ip, lsl r7
    101c:	00000030 	andeq	r0, r0, r0, lsr r0
    1020:	0d579c01 	ldcleq	12, cr9, [r7, #-4]
    1024:	f6190000 			; <UNDEFINED> instruction: 0xf6190000
    1028:	01000002 	tsteq	r0, r2
    102c:	0001d0a8 	andeq	sp, r1, r8, lsr #1
    1030:	00700200 	rsbseq	r0, r0, r0, lsl #4
    1034:	023d2700 	eorseq	r2, sp, #0, 14
    1038:	b1010000 	mrslt	r0, (UNDEF: 1)
    103c:	00000025 	andeq	r0, r0, r5, lsr #32
    1040:	0000874c 	andeq	r8, r0, ip, asr #14
    1044:	00000140 	andeq	r0, r0, r0, asr #2
    1048:	0f019c01 	svceq	0x00019c01
    104c:	4a1a0000 	bmi	681054 <__bss_end__+0x676854>
    1050:	01000003 	tsteq	r0, r3
    1054:	000037b2 			; <UNDEFINED> instruction: 0x000037b2
    1058:	00065000 	andeq	r5, r6, r0
    105c:	03991a00 	orrseq	r1, r9, #0, 20
    1060:	b3010000 	movwlt	r0, #4096	; 0x1000
    1064:	00000037 	andeq	r0, r0, r7, lsr r0
    1068:	00000663 	andeq	r0, r0, r3, ror #12
    106c:	0003191a 	andeq	r1, r3, sl, lsl r9
    1070:	37b70100 	ldrcc	r0, [r7, r0, lsl #2]!
    1074:	76000000 	strvc	r0, [r0], -r0
    1078:	1a000006 	bne	1098 <_start-0x6f68>
    107c:	0000032b 	andeq	r0, r0, fp, lsr #6
    1080:	0037b801 	eorseq	fp, r7, r1, lsl #16
    1084:	06950000 	ldreq	r0, [r5], r0
    1088:	7f190000 	svcvc	0x00190000
    108c:	01000002 	tsteq	r0, r2
    1090:	000f01ba 			; <UNDEFINED> instruction: 0x000f01ba
    1094:	28540100 	ldmdacs	r4, {r8}^
    1098:	00000018 	andeq	r0, r0, r8, lsl r0
    109c:	00000e62 	andeq	r0, r0, r2, ror #28
    10a0:	01006817 	tsteq	r0, r7, lsl r8
    10a4:	000227bc 			; <UNDEFINED> instruction: 0x000227bc
    10a8:	0006b400 	andeq	fp, r6, r0, lsl #8
    10ac:	87a41f00 	strhi	r1, [r4, r0, lsl #30]!
    10b0:	04e60000 	strbteq	r0, [r6], #0
    10b4:	0de30000 	stcleq	0, cr0, [r3]
    10b8:	01200000 	teqeq	r0, r0
    10bc:	00740250 	rsbseq	r0, r4, r0, asr r2
    10c0:	87b41f00 	ldrhi	r1, [r4, r0, lsl #30]!
    10c4:	0f3a0000 	svceq	0x003a0000
    10c8:	0df70000 	ldcleq	0, cr0, [r7]
    10cc:	01200000 	teqeq	r0, r0
    10d0:	00790250 	rsbseq	r0, r9, r0, asr r2
    10d4:	87bc1f00 	ldrhi	r1, [ip, r0, lsl #30]!
    10d8:	0f3a0000 	svceq	0x003a0000
    10dc:	0e0e0000 	cdpeq	0, 0, cr0, cr14, cr0, {0}
    10e0:	01200000 	teqeq	r0, r0
    10e4:	4c030550 	cfstr32mi	mvfx0, [r3], {80}	; 0x50
    10e8:	0000009e 	muleq	r0, lr, r0
    10ec:	0087cc1f 	addeq	ip, r7, pc, lsl ip
    10f0:	0005d600 	andeq	sp, r5, r0, lsl #12
    10f4:	000e2200 	andeq	r2, lr, r0, lsl #4
    10f8:	50012000 	andpl	r2, r1, r0
    10fc:	00007402 	andeq	r7, r0, r2, lsl #8
    1100:	0087f01f 	addeq	pc, r7, pc, lsl r0	; <UNPREDICTABLE>
    1104:	0002d600 	andeq	sp, r2, r0, lsl #12
    1108:	000e3d00 	andeq	r3, lr, r0, lsl #26
    110c:	51012000 	mrspl	r2, (UNDEF: 1)
    1110:	01b87403 			; <UNDEFINED> instruction: 0x01b87403
    1114:	02500120 	subseq	r0, r0, #32, 2
    1118:	1f000074 	svcne	0x00000074
    111c:	00008800 	andeq	r8, r0, r0, lsl #16
    1120:	00000f3a 	andeq	r0, r0, sl, lsr pc
    1124:	00000e51 	andeq	r0, r0, r1, asr lr
    1128:	02500120 	subseq	r0, r0, #32, 2
    112c:	21000079 	tstcs	r0, r9, ror r0
    1130:	00008808 	andeq	r8, r0, r8, lsl #16
    1134:	00000f3a 	andeq	r0, r0, sl, lsr pc
    1138:	02500120 	subseq	r0, r0, #32, 2
    113c:	00000078 	andeq	r0, r0, r8, ror r0
    1140:	0087701f 	addeq	r7, r7, pc, lsl r0
    1144:	000f3a00 	andeq	r3, pc, r0, lsl #20
    1148:	000e7900 	andeq	r7, lr, r0, lsl #18
    114c:	50012000 	andpl	r2, r1, r0
    1150:	9afc0305 	bls	fff01d6c <__bss_end__+0xffef756c>
    1154:	1f000000 	svcne	0x00000000
    1158:	00008780 	andeq	r8, r0, r0, lsl #15
    115c:	00000f3a 	andeq	r0, r0, sl, lsr pc
    1160:	00000e9c 	muleq	r0, ip, lr
    1164:	02520120 	subseq	r0, r2, #32, 2
    1168:	01200075 	teqeq	r0, r5, ror r0
    116c:	00760251 	rsbseq	r0, r6, r1, asr r2
    1170:	05500120 	ldrbeq	r0, [r0, #-288]	; 0x120
    1174:	009e1403 	addseq	r1, lr, r3, lsl #8
    1178:	401f0000 	andsmi	r0, pc, r0
    117c:	3a000088 	bcc	13a4 <_start-0x6c5c>
    1180:	b000000f 	andlt	r0, r0, pc
    1184:	2000000e 	andcs	r0, r0, lr
    1188:	79025001 	stmdbvc	r2, {r0, ip, lr}
    118c:	501f0000 	andspl	r0, pc, r0
    1190:	3a000088 	bcc	13b8 <_start-0x6c48>
    1194:	d300000f 	movwle	r0, #15
    1198:	2000000e 	andcs	r0, r0, lr
    119c:	76025201 	strvc	r5, [r2], -r1, lsl #4
    11a0:	51012000 	mrspl	r2, (UNDEF: 1)
    11a4:	20007502 	andcs	r7, r0, r2, lsl #10
    11a8:	03055001 	movweq	r5, #20481	; 0x5001
    11ac:	00009e7c 	andeq	r9, r0, ip, ror lr
    11b0:	885c1f00 	ldmdahi	ip, {r8, r9, sl, fp, ip}^
    11b4:	0f3a0000 	svceq	0x003a0000
    11b8:	0ee70000 	cdpeq	0, 14, cr0, cr7, cr0, {0}
    11bc:	01200000 	teqeq	r0, r0
    11c0:	00790250 	rsbseq	r0, r9, r0, asr r2
    11c4:	88682100 	stmdahi	r8!, {r8, sp}^
    11c8:	0f3a0000 	svceq	0x003a0000
    11cc:	01200000 	teqeq	r0, r0
    11d0:	00750251 	rsbseq	r0, r5, r1, asr r2
    11d4:	05500120 	ldrbeq	r0, [r0, #-288]	; 0x120
    11d8:	009ea403 	addseq	sl, lr, r3, lsl #8
    11dc:	06000000 	streq	r0, [r0], -r0
    11e0:	00005a04 	andeq	r5, r0, r4, lsl #20
    11e4:	04371900 	ldrteq	r1, [r7], #-2304	; 0x900
    11e8:	08010000 	stmdaeq	r1, {}	; <UNPREDICTABLE>
    11ec:	00000f01 	andeq	r0, r0, r1, lsl #30
    11f0:	a3f00305 	mvnsge	r0, #335544320	; 0x14000000
    11f4:	65190000 	ldrvs	r0, [r9, #-0]
    11f8:	0100000d 	tsteq	r0, sp
    11fc:	000f0108 	andeq	r0, pc, r8, lsl #2
    1200:	f4030500 	vst3.8	{d0,d2,d4}, [r3], r0
    1204:	190000a3 	stmdbne	r0, {r0, r1, r5, r7}
    1208:	00000d52 	andeq	r0, r0, r2, asr sp
    120c:	0f010801 	svceq	0x00010801
    1210:	03050000 	movweq	r0, #20480	; 0x5000
    1214:	0000a3ec 	andeq	sl, r0, ip, ror #7
    1218:	00050c29 	andeq	r0, r5, r9, lsr #24
    121c:	25290500 	strcs	r0, [r9, #-1280]!	; 0x500
    1220:	50000000 	andpl	r0, r0, r0
    1224:	2a00000f 	bcs	1268 <_start-0x6d98>
    1228:	000000ad 	andeq	r0, r0, sp, lsr #1
    122c:	0c29002b 	stceq	0, cr0, [r9], #-172	; 0xffffff54
    1230:	06000001 	streq	r0, [r0], -r1
    1234:	00009e1b 	andeq	r9, r0, fp, lsl lr
    1238:	000f6f00 	andeq	r6, pc, r0, lsl #30
    123c:	009e2a00 	addseq	r2, lr, r0, lsl #20
    1240:	252a0000 	strcs	r0, [sl, #-0]!
    1244:	2a000000 	bcs	124c <_start-0x6db4>
    1248:	0000002c 	andeq	r0, r0, ip, lsr #32
    124c:	01cd2900 	biceq	r2, sp, r0, lsl #18
    1250:	05070000 	streq	r0, [r7, #-0]
    1254:	0000007e 	andeq	r0, r0, lr, ror r0
    1258:	00000f89 	andeq	r0, r0, r9, lsl #31
    125c:	000f892a 	andeq	r8, pc, sl, lsr #18
    1260:	00252a00 	eoreq	r2, r5, r0, lsl #20
    1264:	06000000 	streq	r0, [r0], -r0
    1268:	000f8f04 	andeq	r8, pc, r4, lsl #30
    126c:	592d2c00 	pushpl	{sl, fp, sp}
    1270:	05000002 	streq	r0, [r0, #-2]
    1274:	02a62d1e 	adceq	r2, r6, #1920	; 0x780
    1278:	65050000 	strvs	r0, [r5, #-0]
    127c:	000bba00 	andeq	fp, fp, r0, lsl #20
    1280:	c5000400 	strgt	r0, [r0, #-1024]	; 0x400
    1284:	04000003 	streq	r0, [r0], #-3
    1288:	00007601 	andeq	r7, r0, r1, lsl #12
    128c:	045f0100 	ldrbeq	r0, [pc], #-256	; 1294 <_start-0x6d6c>
    1290:	00260000 	eoreq	r0, r6, r0
    1294:	888c0000 	stmhi	ip, {}	; <UNPREDICTABLE>
    1298:	04740000 	ldrbteq	r0, [r4], #-0
    129c:	04360000 	ldrteq	r0, [r6], #-0
    12a0:	04020000 	streq	r0, [r2], #-0
    12a4:	746e6905 	strbtvc	r6, [lr], #-2309	; 0x905
    12a8:	07040300 	streq	r0, [r4, -r0, lsl #6]
    12ac:	00000137 	andeq	r0, r0, r7, lsr r1
    12b0:	e5060103 	str	r0, [r6, #-259]	; 0x103
    12b4:	03000000 	movweq	r0, #0
    12b8:	01640502 	cmneq	r4, r2, lsl #10
    12bc:	04030000 	streq	r0, [r3], #-0
    12c0:	00015b05 	andeq	r5, r1, r5, lsl #22
    12c4:	05080300 	streq	r0, [r8, #-768]	; 0x300
    12c8:	00000156 	andeq	r0, r0, r6, asr r1
    12cc:	e3080103 	movw	r0, #33027	; 0x8103
    12d0:	04000000 	streq	r0, [r0], #-0
    12d4:	00000224 	andeq	r0, r0, r4, lsr #4
    12d8:	00613103 	rsbeq	r3, r1, r3, lsl #2
    12dc:	02030000 	andeq	r0, r3, #0
    12e0:	0000f107 	andeq	pc, r0, r7, lsl #2
    12e4:	016e0400 	cmneq	lr, r0, lsl #8
    12e8:	34030000 	strcc	r0, [r3], #-0
    12ec:	00000073 	andeq	r0, r0, r3, ror r0
    12f0:	32070403 	andcc	r0, r7, #50331648	; 0x3000000
    12f4:	03000001 	movweq	r0, #1
    12f8:	012d0708 	teqeq	sp, r8, lsl #14
    12fc:	04030000 	streq	r0, [r3], #-0
    1300:	00014d07 	andeq	r4, r1, r7, lsl #26
    1304:	03040500 	movweq	r0, #17664	; 0x4500
    1308:	00ec0801 	rsceq	r0, ip, r1, lsl #16
    130c:	04060000 	streq	r0, [r6], #-0
    1310:	00000097 	muleq	r0, r7, r0
    1314:	00008a07 	andeq	r8, r0, r7, lsl #20
    1318:	02010800 	andeq	r0, r1, #0, 16
    131c:	0000b127 	andeq	fp, r0, r7, lsr #2
    1320:	01f70900 	mvnseq	r0, r0, lsl #18
    1324:	090b0000 	stmdbeq	fp, {}	; <UNPREDICTABLE>
    1328:	000001ec 	andeq	r0, r0, ip, ror #3
    132c:	0c0a000c 	stceq	0, cr0, [sl], {12}
    1330:	00de2902 	sbcseq	r2, lr, r2, lsl #18
    1334:	e70b0000 	str	r0, [fp, -r0]
    1338:	02000008 	andeq	r0, r0, #8
    133c:	0000912a 	andeq	r9, r0, sl, lsr #2
    1340:	b10b0000 	mrslt	r0, (UNDEF: 11)
    1344:	0200000b 	andeq	r0, r0, #11
    1348:	0000912b 	andeq	r9, r0, fp, lsr #2
    134c:	5e0b0400 	cfcpyspl	mvf0, mvf11
    1350:	02000003 	andeq	r0, r0, #3
    1354:	00002c2c 	andeq	r2, r0, ip, lsr #24
    1358:	04000800 	streq	r0, [r0], #-2048	; 0x800
    135c:	000002fb 	strdeq	r0, [r0], -fp
    1360:	00b12d02 	adcseq	r2, r1, r2, lsl #26
    1364:	a80c0000 	stmdage	ip, {}	; <UNPREDICTABLE>
    1368:	38000003 	stmdacc	r0, {r0, r1}
    136c:	016e3002 	cmneq	lr, r2
    1370:	cf0b0000 	svcgt	0x000b0000
    1374:	02000002 	andeq	r0, r0, #2
    1378:	00006831 	andeq	r6, r0, r1, lsr r8
    137c:	8e0b0000 	cdphi	0, 0, cr0, cr11, cr0, {0}
    1380:	02000003 	andeq	r0, r0, #3
    1384:	00006832 	andeq	r6, r0, r2, lsr r8
    1388:	720b0400 	andvc	r0, fp, #0, 8
    138c:	02000007 	andeq	r0, r0, #7
    1390:	00006833 	andeq	r6, r0, r3, lsr r8
    1394:	c10b0800 	tstgt	fp, r0, lsl #16
    1398:	02000002 	andeq	r0, r0, #2
    139c:	00006837 	andeq	r6, r0, r7, lsr r8
    13a0:	b30b0c00 	movwlt	r0, #48128	; 0xbc00
    13a4:	02000002 	andeq	r0, r0, #2
    13a8:	0000de39 	andeq	sp, r0, r9, lsr lr
    13ac:	dc0b1000 	stcle	0, cr1, [fp], {-0}
    13b0:	02000002 	andeq	r0, r0, #2
    13b4:	0000de3a 	andeq	sp, r0, sl, lsr lr
    13b8:	190b1c00 	stmdbne	fp, {sl, fp, ip}
    13bc:	02000002 	andeq	r0, r0, #2
    13c0:	0000683e 	andeq	r6, r0, lr, lsr r8
    13c4:	ff0b2800 			; <UNDEFINED> instruction: 0xff0b2800
    13c8:	02000001 	andeq	r0, r0, #1
    13cc:	0000683f 	andeq	r6, r0, pc, lsr r8
    13d0:	c10b2c00 	tstgt	fp, r0, lsl #24
    13d4:	02000001 	andeq	r0, r0, #1
    13d8:	00016e42 	andeq	r6, r1, r2, asr #28
    13dc:	f20b3000 	vhadd.s8	d3, d11, d0
    13e0:	02000001 	andeq	r0, r0, #1
    13e4:	00005645 	andeq	r5, r0, r5, asr #12
    13e8:	06003400 	streq	r3, [r0], -r0, lsl #8
    13ec:	0000e904 	andeq	lr, r0, r4, lsl #18
    13f0:	03880400 	orreq	r0, r8, #0, 8
    13f4:	46020000 	strmi	r0, [r2], -r0
    13f8:	000000e9 	andeq	r0, r0, r9, ror #1
    13fc:	49020208 	stmdbmi	r2, {r3, r9}
    1400:	000001a4 	andeq	r0, r0, r4, lsr #3
    1404:	00033109 	andeq	r3, r3, r9, lsl #2
    1408:	0901fe00 	stmdbeq	r1, {r9, sl, fp, ip, sp, lr, pc}
    140c:	000002c7 	andeq	r0, r0, r7, asr #5
    1410:	4c090180 	stfmis	f0, [r9], {128}	; 0x80
    1414:	b8000002 	stmdalt	r0, {r1}
    1418:	022d0901 	eoreq	r0, sp, #16384	; 0x4000
    141c:	02b80000 	adcseq	r0, r8, #0
    1420:	02f10c00 	rscseq	r0, r1, #0, 24
    1424:	02100000 	andseq	r0, r0, #0
    1428:	0001e19a 	muleq	r1, sl, r1
    142c:	0d520b00 	vldreq	d16, [r2, #-0]
    1430:	9c020000 	stcls	0, cr0, [r2], {-0}
    1434:	00000088 	andeq	r0, r0, r8, lsl #1
    1438:	0d650b00 	vstmdbeq	r5!, {d16-d15}
    143c:	9e020000 	cdpls	0, 0, cr0, cr2, cr0, {0}
    1440:	00000088 	andeq	r0, r0, r8, lsl #1
    1444:	01a70b04 			; <UNDEFINED> instruction: 0x01a70b04
    1448:	a1020000 	mrsge	r0, (UNDEF: 2)
    144c:	0000002c 	andeq	r0, r0, ip, lsr #32
    1450:	03430b08 	movteq	r0, #15112	; 0x3b08
    1454:	a3020000 	movwge	r0, #8192	; 0x2000
    1458:	0000002c 	andeq	r0, r0, ip, lsr #32
    145c:	e20d000c 	and	r0, sp, #12
    1460:	02000001 	andeq	r0, r0, #1
    1464:	00008857 	andeq	r8, r0, r7, asr r8
    1468:	01fb0300 	mvnseq	r0, r0, lsl #6
    146c:	680e0000 	stmdavs	lr, {}	; <UNPREDICTABLE>
    1470:	fb570200 	blx	15c1c7a <__bss_end__+0x15b747a>
    1474:	00000001 	andeq	r0, r0, r1
    1478:	01740406 	cmneq	r4, r6, lsl #8
    147c:	e50d0000 	str	r0, [sp, #-0]
    1480:	02000002 	andeq	r0, r0, #2
    1484:	00008859 	andeq	r8, r0, r9, asr r8
    1488:	021b0300 	andseq	r0, fp, #0, 6
    148c:	680e0000 	stmdavs	lr, {}	; <UNPREDICTABLE>
    1490:	fb590200 	blx	1641c9a <__bss_end__+0x163749a>
    1494:	00000001 	andeq	r0, r0, r1
    1498:	0002710d 	andeq	r7, r2, sp, lsl #2
    149c:	2c630200 	sfmcs	f0, 2, [r3], #-0
    14a0:	03000000 	movweq	r0, #0
    14a4:	00000235 	andeq	r0, r0, r5, lsr r2
    14a8:	0200680e 	andeq	r6, r0, #917504	; 0xe0000
    14ac:	0001fb63 	andeq	pc, r1, r3, ror #22
    14b0:	340f0000 	strcc	r0, [pc], #-0	; 14b8 <_start-0x6b48>
    14b4:	01000004 	tsteq	r0, r4
    14b8:	0000251b 	andeq	r2, r0, fp, lsl r5
    14bc:	00888c00 	addeq	r8, r8, r0, lsl #24
    14c0:	00001800 	andeq	r1, r0, r0, lsl #16
    14c4:	5c9c0100 	ldfpls	f0, [ip], {0}
    14c8:	10000002 	andne	r0, r0, r2
    14cc:	1b010070 	blne	41694 <__bss_end__+0x36e94>
    14d0:	00000088 	andeq	r0, r0, r8, lsl #1
    14d4:	000006c7 	andeq	r0, r0, r7, asr #13
    14d8:	04700f00 	ldrbteq	r0, [r0], #-3840	; 0xf00
    14dc:	27010000 	strcs	r0, [r1, -r0]
    14e0:	000001fb 	strdeq	r0, [r0], -fp
    14e4:	000088a4 	andeq	r8, r0, r4, lsr #17
    14e8:	00000050 	andeq	r0, r0, r0, asr r0
    14ec:	02c79c01 	sbceq	r9, r7, #256	; 0x100
    14f0:	c8110000 	ldmdagt	r1, {}	; <UNPREDICTABLE>
    14f4:	01000001 	tsteq	r0, r1
    14f8:	00006827 	andeq	r6, r0, r7, lsr #16
    14fc:	00070100 	andeq	r0, r7, r0, lsl #2
    1500:	00701200 	rsbseq	r1, r0, r0, lsl #4
    1504:	00882801 	addeq	r2, r8, r1, lsl #16
    1508:	071f0000 	ldreq	r0, [pc, -r0]
    150c:	7f130000 	svcvc	0x00130000
    1510:	01000004 	tsteq	r0, r4
    1514:	0001fb2d 	andeq	pc, r1, sp, lsr #22
    1518:	00073d00 	andeq	r3, r7, r0, lsl #26
    151c:	88b01400 	ldmhi	r0!, {sl, ip}
    1520:	02350000 	eorseq	r0, r5, #0
    1524:	02b40000 	adcseq	r0, r4, #0
    1528:	01150000 	tsteq	r5, r0
    152c:	00740250 	rsbseq	r0, r4, r0, asr r2
    1530:	88bc1600 	ldmhi	ip!, {r9, sl, ip}
    1534:	0b510000 	bleq	144153c <__bss_end__+0x1436d3c>
    1538:	e0160000 	ands	r0, r6, r0
    153c:	5c000088 	stcpl	0, cr0, [r0], {136}	; 0x88
    1540:	0000000b 	andeq	r0, r0, fp
    1544:	0004290f 	andeq	r2, r4, pc, lsl #18
    1548:	2c5b0100 	ldfcse	f0, [fp], {-0}
    154c:	f4000000 	vst4.8	{d0-d3}, [r0], r0
    1550:	98000088 	stmdals	r0, {r3, r7}
    1554:	01000000 	mrseq	r0, (UNDEF: 0)
    1558:	0003d59c 	muleq	r3, ip, r5
    155c:	03b91100 			; <UNDEFINED> instruction: 0x03b91100
    1560:	5b010000 	blpl	41568 <__bss_end__+0x36d68>
    1564:	00000025 	andeq	r0, r0, r5, lsr #32
    1568:	0000075b 	andeq	r0, r0, fp, asr r7
    156c:	00047713 	andeq	r7, r4, r3, lsl r7
    1570:	2c5c0100 	ldfcse	f0, [ip], {-0}
    1574:	7c000000 	stcvc	0, cr0, [r0], {-0}
    1578:	17000007 	strne	r0, [r0, -r7]
    157c:	000003f4 	strdeq	r0, [r0], -r4
    1580:	002c5c01 	eoreq	r5, ip, r1, lsl #24
    1584:	17000000 	strne	r0, [r0, -r0]
    1588:	000003ee 	andeq	r0, r0, lr, ror #7
    158c:	002c5c01 	eoreq	r5, ip, r1, lsl #24
    1590:	13000000 	movwne	r0, #0
    1594:	00000268 	andeq	r0, r0, r8, ror #4
    1598:	01fb6001 	mvnseq	r6, r1
    159c:	079b0000 	ldreq	r0, [fp, r0]
    15a0:	00140000 	andseq	r0, r4, r0
    15a4:	71000089 	smlabbvc	r0, r9, r0, r0
    15a8:	3c00000b 	stccc	0, cr0, [r0], {11}
    15ac:	15000003 	strne	r0, [r0, #-3]
    15b0:	03055001 	movweq	r5, #20481	; 0x5001
    15b4:	00009f28 	andeq	r9, r0, r8, lsr #30
    15b8:	89081400 	stmdbhi	r8, {sl, ip}
    15bc:	0b710000 	bleq	1c415c4 <__bss_end__+0x1c36dc4>
    15c0:	03530000 	cmpeq	r3, #0
    15c4:	01150000 	tsteq	r5, r0
    15c8:	64030550 	strvs	r0, [r3], #-1360	; 0x550
    15cc:	0000009f 	muleq	r0, pc, r0	; <UNPREDICTABLE>
    15d0:	00890c16 	addeq	r0, r9, r6, lsl ip
    15d4:	000b5100 	andeq	r5, fp, r0, lsl #2
    15d8:	89341600 	ldmdbhi	r4!, {r9, sl, ip}
    15dc:	0b5c0000 	bleq	17015e4 <__bss_end__+0x16f6de4>
    15e0:	48140000 	ldmdami	r4, {}	; <UNPREDICTABLE>
    15e4:	71000089 	smlabbvc	r0, r9, r0, r0
    15e8:	7900000b 	stmdbvc	r0, {r0, r1, r3}
    15ec:	15000003 	strne	r0, [r0, #-3]
    15f0:	75025001 	strvc	r5, [r2, #-1]
    15f4:	54140000 	ldrpl	r0, [r4], #-0
    15f8:	71000089 	smlabbvc	r0, r9, r0, r0
    15fc:	9600000b 	strls	r0, [r0], -fp
    1600:	15000003 	strne	r0, [r0, #-3]
    1604:	74025101 	strvc	r5, [r2], #-257	; 0x101
    1608:	50011500 	andpl	r1, r1, r0, lsl #10
    160c:	9f7c0305 	svcls	0x007c0305
    1610:	14000000 	strne	r0, [r0], #-0
    1614:	0000895c 	andeq	r8, r0, ip, asr r9
    1618:	00000b71 	andeq	r0, r0, r1, ror fp
    161c:	000003aa 	andeq	r0, r0, sl, lsr #7
    1620:	02500115 	subseq	r0, r0, #1073741829	; 0x40000005
    1624:	14000075 	strne	r0, [r0], #-117	; 0x75
    1628:	00008964 	andeq	r8, r0, r4, ror #18
    162c:	00000b71 	andeq	r0, r0, r1, ror fp
    1630:	000003c1 	andeq	r0, r0, r1, asr #7
    1634:	05500115 	ldrbeq	r0, [r0, #-277]	; 0x115
    1638:	009f9403 	addseq	r9, pc, r3, lsl #8
    163c:	6c180000 	ldcvs	0, cr0, [r8], {-0}
    1640:	71000089 	smlabbvc	r0, r9, r0, r0
    1644:	1500000b 	strne	r0, [r0, #-11]
    1648:	03055001 	movweq	r5, #20481	; 0x5001
    164c:	00009fb4 			; <UNDEFINED> instruction: 0x00009fb4
    1650:	f2190000 	vhadd.s16	d0, d9, d0
    1654:	01000001 	tsteq	r0, r1
    1658:	00898c44 	addeq	r8, r9, r4, asr #24
    165c:	0000ec00 	andeq	lr, r0, r0, lsl #24
    1660:	3a9c0100 	bcc	fe701a68 <__bss_end__+0xfe6f7268>
    1664:	10000005 	andne	r0, r0, r5
    1668:	44010070 	strmi	r0, [r1], #-112	; 0x70
    166c:	0000053a 	andeq	r0, r0, sl, lsr r5
    1670:	000007b9 			; <UNDEFINED> instruction: 0x000007b9
    1674:	01006510 	tsteq	r0, r0, lsl r5
    1678:	00053a44 	andeq	r3, r5, r4, asr #20
    167c:	00081c00 	andeq	r1, r8, r0, lsl #24
    1680:	01131a00 	tsteq	r3, r0, lsl #20
    1684:	05500000 	ldrbeq	r0, [r0, #-0]
    1688:	03050000 	movweq	r0, #20480	; 0x5000
    168c:	00009ed4 	ldrdeq	r9, [r0], -r4
    1690:	00026813 	andeq	r6, r2, r3, lsl r8
    1694:	fb4a0100 	blx	1281a9e <__bss_end__+0x127729e>
    1698:	88000001 	stmdahi	r0, {r0}
    169c:	1b000008 	blne	16c4 <_start-0x693c>
    16a0:	00000030 	andeq	r0, r0, r0, lsr r0
    16a4:	00000476 	andeq	r0, r0, r6, ror r4
    16a8:	01006912 	tsteq	r0, r2, lsl r9
    16ac:	0000684b 	andeq	r6, r0, fp, asr #16
    16b0:	0008a900 	andeq	sl, r8, r0, lsl #18
    16b4:	021b1c00 	andseq	r1, fp, #0, 24
    16b8:	8a240000 	bhi	9016c0 <__bss_end__+0x8f6ec0>
    16bc:	00100000 	andseq	r0, r0, r0
    16c0:	51010000 	mrspl	r0, (UNDEF: 1)
    16c4:	00000455 	andeq	r0, r0, r5, asr r4
    16c8:	00022b1d 	andeq	r2, r2, sp, lsl fp
    16cc:	0008c700 	andeq	ip, r8, r0, lsl #14
    16d0:	08140000 	ldmdaeq	r4, {}	; <UNPREDICTABLE>
    16d4:	5c00008a 	stcpl	0, cr0, [r0], {138}	; 0x8a
    16d8:	6c000002 	stcvs	0, cr0, [r0], {2}
    16dc:	15000004 	strne	r0, [r0, #-4]
    16e0:	76055001 	strvc	r5, [r5], -r1
    16e4:	22007400 	andcs	r7, r0, #0, 8
    16e8:	8a401600 	bhi	1006ef0 <__bss_end__+0xffc6f0>
    16ec:	03d50000 	bicseq	r0, r5, #0
    16f0:	16000000 	strne	r0, [r0], -r0
    16f4:	0000899c 	muleq	r0, ip, r9
    16f8:	00000b87 	andeq	r0, r0, r7, lsl #23
    16fc:	0089b014 	addeq	fp, r9, r4, lsl r0
    1700:	000b7100 	andeq	r7, fp, r0, lsl #2
    1704:	0004ae00 	andeq	sl, r4, r0, lsl #28
    1708:	53011500 	movwpl	r1, #5376	; 0x1500
    170c:	15450802 	strbne	r0, [r5, #-2050]	; 0x802
    1710:	03055201 	movweq	r5, #20993	; 0x5201
    1714:	00009ed4 	ldrdeq	r9, [r0], -r4
    1718:	05510115 	ldrbeq	r0, [r1, #-277]	; 0x115
    171c:	00a00403 	adceq	r0, r0, r3, lsl #8
    1720:	50011500 	andpl	r1, r1, r0, lsl #10
    1724:	9ff00305 	svcls	0x00f00305
    1728:	16000000 	strne	r0, [r0], -r0
    172c:	000089b4 			; <UNDEFINED> instruction: 0x000089b4
    1730:	00000b8e 	andeq	r0, r0, lr, lsl #23
    1734:	0089c416 	addeq	ip, r9, r6, lsl r4
    1738:	000b8700 	andeq	r8, fp, r0, lsl #14
    173c:	89d81400 	ldmibhi	r8, {sl, ip}^
    1740:	0b710000 	bleq	1c41748 <__bss_end__+0x1c36f48>
    1744:	04ef0000 	strbteq	r0, [pc], #0	; 174c <_start-0x68b4>
    1748:	01150000 	tsteq	r5, r0
    174c:	47080253 	smlsdmi	r8, r3, r2, r0
    1750:	05520115 	ldrbeq	r0, [r2, #-277]	; 0x115
    1754:	009ed403 	addseq	sp, lr, r3, lsl #8
    1758:	51011500 	tstpl	r1, r0, lsl #10
    175c:	a0040305 	andge	r0, r4, r5, lsl #6
    1760:	01150000 	tsteq	r5, r0
    1764:	0c030550 	cfstr32eq	mvfx0, [r3], {80}	; 0x50
    1768:	000000a0 	andeq	r0, r0, r0, lsr #1
    176c:	0089dc16 	addeq	sp, r9, r6, lsl ip
    1770:	000b8e00 	andeq	r8, fp, r0, lsl #28
    1774:	89e81600 	stmibhi	r8!, {r9, sl, ip}^
    1778:	0b870000 	bleq	fe1c1780 <__bss_end__+0xfe1b6f80>
    177c:	fc140000 	ldc2	0, cr0, [r4], {-0}
    1780:	71000089 	smlabbvc	r0, r9, r0, r0
    1784:	3000000b 	andcc	r0, r0, fp
    1788:	15000005 	strne	r0, [r0, #-5]
    178c:	08025301 	stmdaeq	r2, {r0, r8, r9, ip, lr}
    1790:	52011548 	andpl	r1, r1, #72, 10	; 0x12000000
    1794:	9ed40305 	cdpls	3, 13, cr0, cr4, cr5, {0}
    1798:	01150000 	tsteq	r5, r0
    179c:	04030551 	streq	r0, [r3], #-1361	; 0x551
    17a0:	150000a0 	strne	r0, [r0, #-160]	; 0xa0
    17a4:	03055001 	movweq	r5, #20481	; 0x5001
    17a8:	0000a02c 	andeq	sl, r0, ip, lsr #32
    17ac:	8a001600 	bhi	6fb4 <_start-0x104c>
    17b0:	0b8e0000 	bleq	fe3817b8 <__bss_end__+0xfe376fb8>
    17b4:	06000000 	streq	r0, [r0], -r0
    17b8:	00006804 	andeq	r6, r0, r4, lsl #16
    17bc:	008a1e00 	addeq	r1, sl, r0, lsl #28
    17c0:	05500000 	ldrbeq	r0, [r0, #-0]
    17c4:	811f0000 	tsthi	pc, r0
    17c8:	04000000 	streq	r0, [r0], #-0
    17cc:	05400700 	strbeq	r0, [r0, #-1792]	; 0x700
    17d0:	67190000 	ldrvs	r0, [r9, -r0]
    17d4:	01000004 	tsteq	r0, r4
    17d8:	008a787b 	addeq	r7, sl, fp, ror r8
    17dc:	0000bc00 	andeq	fp, r0, r0, lsl #24
    17e0:	a79c0100 	ldrge	r0, [ip, r0, lsl #2]
    17e4:	20000006 	andcs	r0, r0, r6
    17e8:	83010069 	movwhi	r0, #4201	; 0x1069
    17ec:	000001a4 	andeq	r0, r0, r4, lsr #3
    17f0:	21689102 	cmncs	r8, r2, lsl #2
    17f4:	00000453 	andeq	r0, r0, r3, asr r4
    17f8:	06a78b01 	strteq	r8, [r7], r1, lsl #22
    17fc:	91030000 	mrsls	r0, (UNDEF: 3)
    1800:	131a7fa8 	tstne	sl, #168, 30	; 0x2a0
    1804:	c7000001 	strgt	r0, [r0, -r1]
    1808:	05000006 	streq	r0, [r0, #-6]
    180c:	009edc03 	addseq	sp, lr, r3, lsl #24
    1810:	03af2200 			; <UNDEFINED> instruction: 0x03af2200
    1814:	98010000 	stmdals	r1, {}	; <UNPREDICTABLE>
    1818:	0000053a 	andeq	r0, r0, sl, lsr r5
    181c:	08000000 	stmdaeq	r0, {}	; <UNPREDICTABLE>
    1820:	00040f23 	andeq	r0, r4, r3, lsr #30
    1824:	689c0100 	ldmvs	ip, {r8}
    1828:	23000000 	movwcs	r0, #0
    182c:	0000041d 	andeq	r0, r0, sp, lsl r4
    1830:	00689c01 	rsbeq	r9, r8, r1, lsl #24
    1834:	8b230000 	blhi	8c183c <__bss_end__+0x8b703c>
    1838:	01000001 	tsteq	r0, r1
    183c:	0000689f 	muleq	r0, pc, r8	; <UNPREDICTABLE>
    1840:	019a2300 	orrseq	r2, sl, r0, lsl #6
    1844:	9f010000 	svcls	0x00010000
    1848:	00000068 	andeq	r0, r0, r8, rrx
    184c:	008a8024 	addeq	r8, sl, r4, lsr #32
    1850:	00002400 	andeq	r2, r0, r0, lsl #8
    1854:	0005fc00 	andeq	pc, r5, r0, lsl #24
    1858:	00681200 	rsbeq	r1, r8, r0, lsl #4
    185c:	01fb7e01 	mvnseq	r7, r1, lsl #28
    1860:	08e80000 	stmiaeq	r8!, {}^	; <UNPREDICTABLE>
    1864:	84160000 	ldrhi	r0, [r6], #-0
    1868:	5100008a 	smlabbpl	r0, sl, r0, r0
    186c:	1600000b 	strne	r0, [r0], -fp
    1870:	00008a9c 	muleq	r0, ip, sl
    1874:	00000b5c 	andeq	r0, r0, ip, asr fp
    1878:	8aac1400 	bhi	feb06880 <__bss_end__+0xfeafc080>
    187c:	0b950000 	bleq	fe541884 <__bss_end__+0xfe537084>
    1880:	06100000 	ldreq	r0, [r0], -r0
    1884:	01150000 	tsteq	r5, r0
    1888:	60910250 	addsvs	r0, r1, r0, asr r2
    188c:	8ab81400 	bhi	fee06894 <__bss_end__+0xfedfc094>
    1890:	0ba00000 	bleq	fe801898 <__bss_end__+0xfe7f7098>
    1894:	06240000 	strteq	r0, [r4], -r0
    1898:	01150000 	tsteq	r5, r0
    189c:	00740250 	rsbseq	r0, r4, r0, asr r2
    18a0:	8ac81600 	bhi	ff2070a8 <__bss_end__+0xff1fc8a8>
    18a4:	0b870000 	bleq	fe1c18ac <__bss_end__+0xfe1b70ac>
    18a8:	dc140000 	ldcle	0, cr0, [r4], {-0}
    18ac:	7100008a 	smlabbvc	r0, sl, r0, r0
    18b0:	5c00000b 	stcpl	0, cr0, [r0], {11}
    18b4:	15000006 	strne	r0, [r0, #-6]
    18b8:	08025301 	stmdaeq	r2, {r0, r8, r9, ip, lr}
    18bc:	5201158e 	andpl	r1, r1, #595591168	; 0x23800000
    18c0:	9edc0305 	cdpls	3, 13, cr0, cr12, cr5, {0}
    18c4:	01150000 	tsteq	r5, r0
    18c8:	04030551 	streq	r0, [r3], #-1361	; 0x551
    18cc:	150000a0 	strne	r0, [r0, #-160]	; 0xa0
    18d0:	03055001 	movweq	r5, #20481	; 0x5001
    18d4:	0000a04c 	andeq	sl, r0, ip, asr #32
    18d8:	8ae01600 	bhi	ff8070e0 <__bss_end__+0xff7fc8e0>
    18dc:	0b8e0000 	bleq	fe3818e4 <__bss_end__+0xfe3770e4>
    18e0:	ec140000 	ldc	0, cr0, [r4], {-0}
    18e4:	d500008a 	strle	r0, [r0, #-138]	; 0x8a
    18e8:	7f000003 	svcvc	0x00000003
    18ec:	15000006 	strne	r0, [r0, #-6]
    18f0:	91025101 	tstls	r2, r1, lsl #2
    18f4:	50011558 	andpl	r1, r1, r8, asr r5
    18f8:	00007402 	andeq	r7, r0, r2, lsl #8
    18fc:	008af814 	addeq	pc, sl, r4, lsl r8	; <UNPREDICTABLE>
    1900:	0003d500 	andeq	sp, r3, r0, lsl #10
    1904:	00069400 	andeq	r9, r6, r0, lsl #8
    1908:	51011500 	tstpl	r1, r0, lsl #10
    190c:	24474003 	strbcs	r4, [r7], #-3
    1910:	8b041600 	blhi	107118 <__bss_end__+0xfc918>
    1914:	03d50000 	bicseq	r0, r5, #0
    1918:	10160000 	andsne	r0, r6, r0
    191c:	d500008b 	strle	r0, [r0, #-139]	; 0x8b
    1920:	00000003 	andeq	r0, r0, r3
    1924:	0000681e 	andeq	r6, r0, lr, lsl r8
    1928:	0006b700 	andeq	fp, r6, r0, lsl #14
    192c:	00811f00 	addeq	r1, r1, r0, lsl #30
    1930:	000f0000 	andeq	r0, pc, r0
    1934:	00008a1e 	andeq	r8, r0, lr, lsl sl
    1938:	0006c700 	andeq	ip, r6, r0, lsl #14
    193c:	00811f00 	addeq	r1, r1, r0, lsl #30
    1940:	00080000 	andeq	r0, r8, r0
    1944:	0006b707 	andeq	fp, r6, r7, lsl #14
    1948:	03e30f00 	mvneq	r0, #0, 30
    194c:	d9010000 	stmdble	r1, {}	; <UNPREDICTABLE>
    1950:	0000002c 	andeq	r0, r0, ip, lsr #32
    1954:	00008b34 	andeq	r8, r0, r4, lsr fp
    1958:	00000044 	andeq	r0, r0, r4, asr #32
    195c:	07939c01 	ldreq	r9, [r3, r1, lsl #24]
    1960:	77170000 	ldrvc	r0, [r7, -r0]
    1964:	01000004 	tsteq	r0, r4
    1968:	00002cda 	ldrdeq	r2, [r0], -sl
    196c:	58170000 	ldmdapl	r7, {}	; <UNPREDICTABLE>
    1970:	01000004 	tsteq	r0, r4
    1974:	00002cda 	ldrdeq	r2, [r0], -sl
    1978:	a7170000 	ldrge	r0, [r7, -r0]
    197c:	01000001 	tsteq	r0, r1
    1980:	00002cda 	ldrdeq	r2, [r0], -sl
    1984:	131a0000 	tstne	sl, #0
    1988:	a3000001 	movwge	r0, #1
    198c:	05000007 	streq	r0, [r0, #-7]
    1990:	009ee803 	addseq	lr, lr, r3, lsl #16
    1994:	02f62500 	rscseq	r2, r6, #0, 10
    1998:	e6010000 	str	r0, [r1], -r0
    199c:	000001a4 	andeq	r0, r0, r4, lsr #3
    19a0:	008b4014 	addeq	r4, fp, r4, lsl r0
    19a4:	000b7100 	andeq	r7, fp, r0, lsl #2
    19a8:	00073a00 	andeq	r3, r7, r0, lsl #20
    19ac:	50011500 	andpl	r1, r1, r0, lsl #10
    19b0:	9f280305 	svcls	0x00280305
    19b4:	14000000 	strne	r0, [r0], #-0
    19b8:	00008b48 	andeq	r8, r0, r8, asr #22
    19bc:	00000b71 	andeq	r0, r0, r1, ror fp
    19c0:	00000751 	andeq	r0, r0, r1, asr r7
    19c4:	05500115 	ldrbeq	r0, [r0, #-277]	; 0x115
    19c8:	00a07c03 	adceq	r7, r0, r3, lsl #24
    19cc:	4c160000 	ldcmi	0, cr0, [r6], {-0}
    19d0:	8700008b 	strhi	r0, [r0, -fp, lsl #1]
    19d4:	1400000b 	strne	r0, [r0], #-11
    19d8:	00008b60 	andeq	r8, r0, r0, ror #22
    19dc:	00000b71 	andeq	r0, r0, r1, ror fp
    19e0:	00000789 	andeq	r0, r0, r9, lsl #15
    19e4:	02530115 	subseq	r0, r3, #1073741829	; 0x40000005
    19e8:	0115de08 	tsteq	r5, r8, lsl #28
    19ec:	e8030552 	stmda	r3, {r1, r4, r6, r8, sl}
    19f0:	1500009e 	strne	r0, [r0, #-158]	; 0x9e
    19f4:	03055101 	movweq	r5, #20737	; 0x5101
    19f8:	0000a004 	andeq	sl, r0, r4
    19fc:	05500115 	ldrbeq	r0, [r0, #-277]	; 0x115
    1a00:	00a08c03 	adceq	r8, r0, r3, lsl #24
    1a04:	64160000 	ldrvs	r0, [r6], #-0
    1a08:	8e00008b 	cdphi	0, 0, cr0, cr0, cr11, {4}
    1a0c:	0000000b 	andeq	r0, r0, fp
    1a10:	00008a1e 	andeq	r8, r0, lr, lsl sl
    1a14:	0007a300 	andeq	sl, r7, r0, lsl #6
    1a18:	00811f00 	addeq	r1, r1, r0, lsl #30
    1a1c:	000a0000 	andeq	r0, sl, r0
    1a20:	00079307 	andeq	r9, r7, r7, lsl #6
    1a24:	04012600 	streq	r2, [r1], #-1536	; 0x600
    1a28:	aa010000 	bge	41a30 <__bss_end__+0x37230>
    1a2c:	0000002c 	andeq	r0, r0, ip, lsr #32
    1a30:	00008b78 	andeq	r8, r0, r8, ror fp
    1a34:	00000018 	andeq	r0, r0, r8, lsl r0
    1a38:	07ea9c01 	strbeq	r9, [sl, r1, lsl #24]!
    1a3c:	b9110000 	ldmdblt	r1, {}	; <UNPREDICTABLE>
    1a40:	01000003 	tsteq	r0, r3
    1a44:	000025aa 	andeq	r2, r0, sl, lsr #11
    1a48:	00090600 	andeq	r0, r9, r0, lsl #12
    1a4c:	8b841600 	blhi	fe107254 <__bss_end__+0xfe0fca54>
    1a50:	05550000 	ldrbeq	r0, [r5, #-0]
    1a54:	8c180000 	ldchi	0, cr0, [r8], {-0}
    1a58:	c700008b 	strgt	r0, [r0, -fp, lsl #1]
    1a5c:	15000002 	strne	r0, [r0, #-2]
    1a60:	74025001 	strvc	r5, [r2], #-1
    1a64:	27000000 	strcs	r0, [r0, -r0]
    1a68:	000000d5 	ldrdeq	r0, [r0], -r5
    1a6c:	8b90b001 	blhi	fe42da78 <__bss_end__+0xfe423278>
    1a70:	00980000 	addseq	r0, r8, r0
    1a74:	9c010000 	stcls	0, cr0, [r1], {-0}
    1a78:	00000905 	andeq	r0, r0, r5, lsl #18
    1a7c:	0001131a 	andeq	r1, r1, sl, lsl r3
    1a80:	00091500 	andeq	r1, r9, r0, lsl #10
    1a84:	f4030500 	vst3.8	{d0,d2,d4}, [r3], r0
    1a88:	1600009e 			; <UNDEFINED> instruction: 0x1600009e
    1a8c:	00008b98 	muleq	r0, r8, fp
    1a90:	00000bb2 			; <UNDEFINED> instruction: 0x00000bb2
    1a94:	008ba416 	addeq	sl, fp, r6, lsl r4
    1a98:	000b8700 	andeq	r8, fp, r0, lsl #14
    1a9c:	8bb81400 	blhi	fee06aa4 <__bss_end__+0xfedfc2a4>
    1aa0:	0b710000 	bleq	1c41aa8 <__bss_end__+0x1c372a8>
    1aa4:	084f0000 	stmdaeq	pc, {}^	; <UNPREDICTABLE>
    1aa8:	01150000 	tsteq	r5, r0
    1aac:	b6080253 			; <UNDEFINED> instruction: 0xb6080253
    1ab0:	05520115 	ldrbeq	r0, [r2, #-277]	; 0x115
    1ab4:	009ef403 	addseq	pc, lr, r3, lsl #8
    1ab8:	51011500 	tstpl	r1, r0, lsl #10
    1abc:	a0040305 	andge	r0, r4, r5, lsl #6
    1ac0:	01150000 	tsteq	r5, r0
    1ac4:	b8030550 	stmdalt	r3, {r4, r6, r8, sl}
    1ac8:	000000a0 	andeq	r0, r0, r0, lsr #1
    1acc:	008bbc16 	addeq	fp, fp, r6, lsl ip
    1ad0:	000b8e00 	andeq	r8, fp, r0, lsl #28
    1ad4:	8bc41400 	blhi	ff106adc <__bss_end__+0xff0fc2dc>
    1ad8:	0b710000 	bleq	1c41ae0 <__bss_end__+0x1c372e0>
    1adc:	086f0000 	stmdaeq	pc!, {}^	; <UNPREDICTABLE>
    1ae0:	01150000 	tsteq	r5, r0
    1ae4:	fc030550 	stc2	5, cr0, [r3], {80}	; 0x50
    1ae8:	0000009a 	muleq	r0, sl, r0
    1aec:	008bcc14 	addeq	ip, fp, r4, lsl ip
    1af0:	000b7100 	andeq	r7, fp, r0, lsl #2
    1af4:	00088600 	andeq	r8, r8, r0, lsl #12
    1af8:	50011500 	andpl	r1, r1, r0, lsl #10
    1afc:	a0e00305 	rscge	r0, r0, r5, lsl #6
    1b00:	14000000 	strne	r0, [r0], #-0
    1b04:	00008bd4 	ldrdeq	r8, [r0], -r4
    1b08:	000007a8 	andeq	r0, r0, r8, lsr #15
    1b0c:	00000899 	muleq	r0, r9, r8
    1b10:	01500115 	cmpeq	r0, r5, lsl r1
    1b14:	e0160031 	ands	r0, r6, r1, lsr r0
    1b18:	8700008b 	strhi	r0, [r0, -fp, lsl #1]
    1b1c:	1400000b 	strne	r0, [r0], #-11
    1b20:	00008bf4 	strdeq	r8, [r0], -r4
    1b24:	00000b71 	andeq	r0, r0, r1, ror fp
    1b28:	000008d1 	ldrdeq	r0, [r0], -r1
    1b2c:	02530115 	subseq	r0, r3, #1073741829	; 0x40000005
    1b30:	0115ba08 	tsteq	r5, r8, lsl #20
    1b34:	f4030552 	vst3.16	{d0,d2,d4}, [r3 :64], r2
    1b38:	1500009e 	strne	r0, [r0, #-158]	; 0x9e
    1b3c:	03055101 	movweq	r5, #20737	; 0x5101
    1b40:	0000a004 	andeq	sl, r0, r4
    1b44:	05500115 	ldrbeq	r0, [r0, #-277]	; 0x115
    1b48:	00a10003 	adceq	r0, r1, r3
    1b4c:	f8160000 			; <UNDEFINED> instruction: 0xf8160000
    1b50:	8e00008b 	cdphi	0, 0, cr0, cr0, cr11, {4}
    1b54:	1400000b 	strne	r0, [r0], #-11
    1b58:	00008c00 	andeq	r8, r0, r0, lsl #24
    1b5c:	00000b71 	andeq	r0, r0, r1, ror fp
    1b60:	000008f1 	strdeq	r0, [r0], -r1
    1b64:	05500115 	ldrbeq	r0, [r0, #-277]	; 0x115
    1b68:	009afc03 	addseq	pc, sl, r3, lsl #24
    1b6c:	08180000 	ldmdaeq	r8, {}	; <UNPREDICTABLE>
    1b70:	7100008c 	smlabbvc	r0, ip, r0, r0
    1b74:	1500000b 	strne	r0, [r0, #-11]
    1b78:	03055001 	movweq	r5, #20481	; 0x5001
    1b7c:	0000a12c 	andeq	sl, r0, ip, lsr #2
    1b80:	8a1e0000 	bhi	781b88 <__bss_end__+0x777388>
    1b84:	15000000 	strne	r0, [r0, #-0]
    1b88:	1f000009 	svcne	0x00000009
    1b8c:	00000081 	andeq	r0, r0, r1, lsl #1
    1b90:	0507000d 	streq	r0, [r7, #-13]
    1b94:	26000009 	strcs	r0, [r0], -r9
    1b98:	0000043c 	andeq	r0, r0, ip, lsr r4
    1b9c:	002cc101 	eoreq	ip, ip, r1, lsl #2
    1ba0:	8c280000 	stchi	0, cr0, [r8], #-0
    1ba4:	00a00000 	adceq	r0, r0, r0
    1ba8:	9c010000 	stcls	0, cr0, [r1], {-0}
    1bac:	00000a4e 	andeq	r0, r0, lr, asr #20
    1bb0:	0001131a 	andeq	r1, r1, sl, lsl r3
    1bb4:	000a5e00 	andeq	r5, sl, r0, lsl #28
    1bb8:	04030500 	streq	r0, [r3], #-1280	; 0x500
    1bbc:	1300009f 	movwne	r0, #159	; 0x9f
    1bc0:	000003dc 	ldrdeq	r0, [r0], -ip
    1bc4:	002ccb01 	eoreq	ip, ip, r1, lsl #22
    1bc8:	09240000 	stmdbeq	r4!, {}	; <UNPREDICTABLE>
    1bcc:	30160000 	andscc	r0, r6, r0
    1bd0:	b200008c 	andlt	r0, r0, #140	; 0x8c
    1bd4:	1600000b 	strne	r0, [r0], -fp
    1bd8:	00008c3c 	andeq	r8, r0, ip, lsr ip
    1bdc:	00000b87 	andeq	r0, r0, r7, lsl #23
    1be0:	008c5014 	addeq	r5, ip, r4, lsl r0
    1be4:	000b7100 	andeq	r7, fp, r0, lsl #2
    1be8:	00099200 	andeq	r9, r9, r0, lsl #4
    1bec:	53011500 	movwpl	r1, #5376	; 0x1500
    1bf0:	15c70802 	strbne	r0, [r7, #2050]	; 0x802
    1bf4:	03055201 	movweq	r5, #20993	; 0x5201
    1bf8:	00009f04 	andeq	r9, r0, r4, lsl #30
    1bfc:	05510115 	ldrbeq	r0, [r1, #-277]	; 0x115
    1c00:	00a00403 	adceq	r0, r0, r3, lsl #8
    1c04:	50011500 	andpl	r1, r1, r0, lsl #10
    1c08:	a0b80305 	adcsge	r0, r8, r5, lsl #6
    1c0c:	16000000 	strne	r0, [r0], -r0
    1c10:	00008c54 	andeq	r8, r0, r4, asr ip
    1c14:	00000b8e 	andeq	r0, r0, lr, lsl #23
    1c18:	008c5c14 	addeq	r5, ip, r4, lsl ip
    1c1c:	000b7100 	andeq	r7, fp, r0, lsl #2
    1c20:	0009b200 	andeq	fp, r9, r0, lsl #4
    1c24:	50011500 	andpl	r1, r1, r0, lsl #10
    1c28:	9afc0305 	bls	fff02844 <__bss_end__+0xffef8044>
    1c2c:	14000000 	strne	r0, [r0], #-0
    1c30:	00008c64 	andeq	r8, r0, r4, ror #24
    1c34:	00000b71 	andeq	r0, r0, r1, ror fp
    1c38:	000009c9 	andeq	r0, r0, r9, asr #19
    1c3c:	05500115 	ldrbeq	r0, [r0, #-277]	; 0x115
    1c40:	00a0e003 	adceq	lr, r0, r3
    1c44:	6c140000 	ldcvs	0, cr0, [r4], {-0}
    1c48:	a800008c 	stmdage	r0, {r2, r3, r7}
    1c4c:	dc000007 	stcle	0, cr0, [r0], {7}
    1c50:	15000009 	strne	r0, [r0, #-9]
    1c54:	31015001 	tstcc	r1, r1
    1c58:	8c781600 	ldclhi	6, cr1, [r8], #-0
    1c5c:	0b870000 	bleq	fe1c1c64 <__bss_end__+0xfe1b7464>
    1c60:	8c140000 	ldchi	0, cr0, [r4], {-0}
    1c64:	7100008c 	smlabbvc	r0, ip, r0, r0
    1c68:	1400000b 	strne	r0, [r0], #-11
    1c6c:	1500000a 	strne	r0, [r0, #-10]
    1c70:	08025301 	stmdaeq	r2, {r0, r8, r9, ip, lr}
    1c74:	520115cd 	andpl	r1, r1, #859832320	; 0x33400000
    1c78:	9f040305 	svcls	0x00040305
    1c7c:	01150000 	tsteq	r5, r0
    1c80:	04030551 	streq	r0, [r3], #-1361	; 0x551
    1c84:	150000a0 	strne	r0, [r0, #-160]	; 0xa0
    1c88:	03055001 	movweq	r5, #20481	; 0x5001
    1c8c:	0000a144 	andeq	sl, r0, r4, asr #2
    1c90:	8c901600 	ldchi	6, cr1, [r0], {0}
    1c94:	0b8e0000 	bleq	fe381c9c <__bss_end__+0xfe37749c>
    1c98:	98140000 	ldmdals	r4, {}	; <UNPREDICTABLE>
    1c9c:	7100008c 	smlabbvc	r0, ip, r0, r0
    1ca0:	3400000b 	strcc	r0, [r0], #-11
    1ca4:	1500000a 	strne	r0, [r0, #-10]
    1ca8:	03055001 	movweq	r5, #20481	; 0x5001
    1cac:	00009afc 	strdeq	r9, [r0], -ip
    1cb0:	8ca41800 	stchi	8, cr1, [r4]
    1cb4:	0b710000 	bleq	1c41cbc <__bss_end__+0x1c374bc>
    1cb8:	01150000 	tsteq	r5, r0
    1cbc:	00740251 	rsbseq	r0, r4, r1, asr r2
    1cc0:	05500115 	ldrbeq	r0, [r0, #-277]	; 0x115
    1cc4:	00a16c03 	adceq	r6, r1, r3, lsl #24
    1cc8:	1e000000 	cdpne	0, 0, cr0, cr0, cr0, {0}
    1ccc:	0000008a 	andeq	r0, r0, sl, lsl #1
    1cd0:	00000a5e 	andeq	r0, r0, lr, asr sl
    1cd4:	0000811f 	andeq	r8, r0, pc, lsl r1
    1cd8:	07001100 	streq	r1, [r0, -r0, lsl #2]
    1cdc:	00000a4e 	andeq	r0, r0, lr, asr #20
    1ce0:	0003cd27 	andeq	ip, r3, r7, lsr #26
    1ce4:	c8d40100 	ldmgt	r4, {r8}^
    1ce8:	2c00008c 	stccs	0, cr0, [r0], {140}	; 0x8c
    1cec:	01000000 	mrseq	r0, (UNDEF: 0)
    1cf0:	000ac99c 	muleq	sl, ip, r9
    1cf4:	01131a00 	tsteq	r3, r0, lsl #20
    1cf8:	0ad90000 	beq	ff641d00 <__bss_end__+0xff637500>
    1cfc:	03050000 	movweq	r0, #20480	; 0x5000
    1d00:	00009f18 	andeq	r9, r0, r8, lsl pc
    1d04:	008cd016 	addeq	sp, ip, r6, lsl r0
    1d08:	000b8700 	andeq	r8, fp, r0, lsl #14
    1d0c:	8ce41400 	cfstrdhi	mvd1, [r4]
    1d10:	0b710000 	bleq	1c41d18 <__bss_end__+0x1c37518>
    1d14:	0abf0000 	beq	fefc1d1c <__bss_end__+0xfefb751c>
    1d18:	01150000 	tsteq	r5, r0
    1d1c:	d5080253 	strle	r0, [r8, #-595]	; 0x253
    1d20:	05520115 	ldrbeq	r0, [r2, #-277]	; 0x115
    1d24:	009f1803 	addseq	r1, pc, r3, lsl #16
    1d28:	51011500 	tstpl	r1, r0, lsl #10
    1d2c:	a0040305 	andge	r0, r4, r5, lsl #6
    1d30:	01150000 	tsteq	r5, r0
    1d34:	8c030550 	cfstr32hi	mvfx0, [r3], {80}	; 0x50
    1d38:	000000a1 	andeq	r0, r0, r1, lsr #1
    1d3c:	008ce816 	addeq	lr, ip, r6, lsl r8
    1d40:	000b8e00 	andeq	r8, fp, r0, lsl #28
    1d44:	8a1e0000 	bhi	781d4c <__bss_end__+0x77754c>
    1d48:	d9000000 	stmdble	r0, {}	; <UNPREDICTABLE>
    1d4c:	1f00000a 	svcne	0x0000000a
    1d50:	00000081 	andeq	r0, r0, r1, lsl #1
    1d54:	c907000e 	stmdbgt	r7, {r1, r2, r3}
    1d58:	2600000a 	strcs	r0, [r0], -sl
    1d5c:	000003fb 	strdeq	r0, [r0], -fp
    1d60:	002ced01 	eoreq	lr, ip, r1, lsl #26
    1d64:	8cf40000 	ldclhi	0, cr0, [r4]
    1d68:	000c0000 	andeq	r0, ip, r0
    1d6c:	9c010000 	stcls	0, cr0, [r1], {-0}
    1d70:	00000b15 	andeq	r0, r0, r5, lsl fp
    1d74:	00036b25 	andeq	r6, r3, r5, lsr #22
    1d78:	2cef0100 	stfcse	f0, [pc]	; 1d80 <_start-0x6280>
    1d7c:	16000000 	strne	r0, [r0], -r0
    1d80:	00008cfc 	strdeq	r8, [r0], -ip
    1d84:	00000555 	andeq	r0, r0, r5, asr r5
    1d88:	008d0016 	addeq	r0, sp, r6, lsl r0
    1d8c:	0006cc00 	andeq	ip, r6, r0, lsl #24
    1d90:	f6250000 			; <UNDEFINED> instruction: 0xf6250000
    1d94:	01000002 	tsteq	r0, r2
    1d98:	000b2013 	andeq	r2, fp, r3, lsl r0
    1d9c:	01a40700 			; <UNDEFINED> instruction: 0x01a40700
    1da0:	0f230000 	svceq	0x00230000
    1da4:	01000004 	tsteq	r0, r4
    1da8:	0000689c 	muleq	r0, ip, r8
    1dac:	041d2300 	ldreq	r2, [sp], #-768	; 0x300
    1db0:	9c010000 	stcls	0, cr0, [r1], {-0}
    1db4:	00000068 	andeq	r0, r0, r8, rrx
    1db8:	00018b23 	andeq	r8, r1, r3, lsr #22
    1dbc:	689f0100 	ldmvs	pc, {r8}	; <UNPREDICTABLE>
    1dc0:	23000000 	movwcs	r0, #0
    1dc4:	0000019a 	muleq	r0, sl, r1
    1dc8:	00689f01 	rsbeq	r9, r8, r1, lsl #30
    1dcc:	b4280000 	strtlt	r0, [r8], #-0
    1dd0:	02000001 	andeq	r0, r0, #1
    1dd4:	0001fb94 	muleq	r1, r4, fp
    1dd8:	029a2900 	addseq	r2, sl, #0, 18
    1ddc:	96020000 	strls	r0, [r2], -r0
    1de0:	000001fb 	strdeq	r0, [r0], -fp
    1de4:	00000b71 	andeq	r0, r0, r1, ror fp
    1de8:	0001fb2a 	andeq	pc, r1, sl, lsr #22
    1dec:	0c290000 	stceq	0, cr0, [r9], #-0
    1df0:	04000005 	streq	r0, [r0], #-5
    1df4:	00002529 	andeq	r2, r0, r9, lsr #10
    1df8:	000b8700 	andeq	r8, fp, r0, lsl #14
    1dfc:	00912a00 	addseq	r2, r1, r0, lsl #20
    1e00:	002b0000 	eoreq	r0, fp, r0
    1e04:	0002592c 	andeq	r5, r2, ip, lsr #18
    1e08:	2c1e0400 	cfldrscs	mvf0, [lr], {-0}
    1e0c:	000002a6 	andeq	r0, r0, r6, lsr #5
    1e10:	f1286504 			; <UNDEFINED> instruction: 0xf1286504
    1e14:	02000002 	andeq	r0, r0, #2
    1e18:	0001a4a6 	andeq	sl, r1, r6, lsr #9
    1e1c:	044e2d00 	strbeq	r2, [lr], #-3328	; 0xd00
    1e20:	78010000 	stmdavc	r1, {}	; <UNPREDICTABLE>
    1e24:	00000bb2 			; <UNDEFINED> instruction: 0x00000bb2
    1e28:	00053a2a 	andeq	r3, r5, sl, lsr #20
    1e2c:	28002b00 	stmdacs	r0, {r8, r9, fp, sp}
    1e30:	0000023d 	andeq	r0, r0, sp, lsr r2
    1e34:	00251e05 	eoreq	r1, r5, r5, lsl #28
    1e38:	12000000 	andne	r0, r0, #0
    1e3c:	04000001 	streq	r0, [r0], #-1
    1e40:	00064600 	andeq	r4, r6, r0, lsl #12
    1e44:	76010400 	strvc	r0, [r1], -r0, lsl #8
    1e48:	01000000 	mrseq	r0, (UNDEF: 0)
    1e4c:	0000048c 	andeq	r0, r0, ip, lsl #9
    1e50:	00000498 	muleq	r0, r8, r4
    1e54:	00008d44 	andeq	r8, r0, r4, asr #26
    1e58:	000000f0 	strdeq	r0, [r0], -r0	; <UNPREDICTABLE>
    1e5c:	00000602 	andeq	r0, r0, r2, lsl #12
    1e60:	69050402 	stmdbvs	r5, {r1, sl}
    1e64:	0300746e 	movweq	r7, #1134	; 0x46e
    1e68:	01370704 	teqeq	r7, r4, lsl #14
    1e6c:	01030000 	mrseq	r0, (UNDEF: 3)
    1e70:	0000e506 	andeq	lr, r0, r6, lsl #10
    1e74:	05020300 	streq	r0, [r2, #-768]	; 0x300
    1e78:	00000164 	andeq	r0, r0, r4, ror #2
    1e7c:	5b050403 	blpl	142e90 <__bss_end__+0x138690>
    1e80:	03000001 	movweq	r0, #1
    1e84:	01560508 	cmpeq	r6, r8, lsl #10
    1e88:	80040000 	andhi	r0, r4, r0
    1e8c:	02000003 	andeq	r0, r0, #3
    1e90:	00005a2e 	andeq	r5, r0, lr, lsr #20
    1e94:	08010300 	stmdaeq	r1, {r8, r9}
    1e98:	000000e3 	andeq	r0, r0, r3, ror #1
    1e9c:	f1070203 			; <UNDEFINED> instruction: 0xf1070203
    1ea0:	04000000 	streq	r0, [r0], #-0
    1ea4:	0000016e 	andeq	r0, r0, lr, ror #2
    1ea8:	00733402 	rsbseq	r3, r3, r2, lsl #8
    1eac:	04030000 	streq	r0, [r3], #-0
    1eb0:	00013207 	andeq	r3, r1, r7, lsl #4
    1eb4:	07080300 	streq	r0, [r8, -r0, lsl #6]
    1eb8:	0000012d 	andeq	r0, r0, sp, lsr #2
    1ebc:	4d070403 	cfstrsmi	mvf0, [r7, #-12]
    1ec0:	03000001 	movweq	r0, #1
    1ec4:	00ec0801 	rsceq	r0, ip, r1, lsl #16
    1ec8:	04050000 	streq	r0, [r5], #-0
    1ecc:	00000095 	muleq	r0, r5, r0
    1ed0:	00008806 	andeq	r8, r0, r6, lsl #16
    1ed4:	01cd0700 	biceq	r0, sp, r0, lsl #14
    1ed8:	0f010000 	svceq	0x00010000
    1edc:	00000068 	andeq	r0, r0, r8, rrx
    1ee0:	00008d44 	andeq	r8, r0, r4, asr #26
    1ee4:	000000f0 	strdeq	r0, [r0], -r0	; <UNPREDICTABLE>
    1ee8:	010e9c01 	tsteq	lr, r1, lsl #24
    1eec:	c6080000 	strgt	r0, [r8], -r0
    1ef0:	0100000b 	tsteq	r0, fp
    1ef4:	00010e0f 	andeq	r0, r1, pc, lsl #28
    1ef8:	00095800 	andeq	r5, r9, r0, lsl #16
    1efc:	656c0900 	strbvs	r0, [ip, #-2304]!	; 0x900
    1f00:	0f01006e 	svceq	0x0001006e
    1f04:	00000025 	andeq	r0, r0, r5, lsr #32
    1f08:	00000992 	muleq	r0, r2, r9
    1f0c:	000bc70a 	andeq	ip, fp, sl, lsl #14
    1f10:	8f100100 	svchi	0x00100100
    1f14:	d1000000 	mrsle	r0, (UNDEF: 0)
    1f18:	0a000009 	beq	1f44 <_start-0x60bc>
    1f1c:	000001d2 	ldrdeq	r0, [r0], -r2
    1f20:	00681101 	rsbeq	r1, r8, r1, lsl #2
    1f24:	0a100000 	beq	401f2c <__bss_end__+0x3f772c>
    1f28:	740b0000 	strvc	r0, [fp], #-0
    1f2c:	0100706d 	tsteq	r0, sp, rrx
    1f30:	00006811 	andeq	r6, r0, r1, lsl r8
    1f34:	000a5a00 	andeq	r5, sl, r0, lsl #20
    1f38:	65720b00 	ldrbvs	r0, [r2, #-2816]!	; 0xb00
    1f3c:	1201006d 	andne	r0, r1, #109	; 0x6d
    1f40:	00000025 	andeq	r0, r0, r5, lsr #32
    1f44:	00000aa5 	andeq	r0, r0, r5, lsr #21
    1f48:	14040500 	strne	r0, [r4], #-1280	; 0x500
    1f4c:	0c000001 	stceq	0, cr0, [r0], {1}
    1f50:	0000db00 	andeq	sp, r0, r0, lsl #22
    1f54:	ea000400 	b	2f5c <_start-0x50a4>
    1f58:	04000006 	streq	r0, [r0], #-6
    1f5c:	00007601 	andeq	r7, r0, r1, lsl #12
    1f60:	04de0100 	ldrbeq	r0, [lr], #256	; 0x100
    1f64:	04980000 	ldreq	r0, [r8], #0
    1f68:	8e340000 	cdphi	0, 3, cr0, cr4, cr0, {0}
    1f6c:	00200000 	eoreq	r0, r0, r0
    1f70:	06e40000 	strbteq	r0, [r4], r0
    1f74:	01020000 	mrseq	r0, (UNDEF: 2)
    1f78:	0000e506 	andeq	lr, r0, r6, lsl #10
    1f7c:	08010200 	stmdaeq	r1, {r9}
    1f80:	000000e3 	andeq	r0, r0, r3, ror #1
    1f84:	64050202 	strvs	r0, [r5], #-514	; 0x202
    1f88:	02000001 	andeq	r0, r0, #1
    1f8c:	00f10702 	rscseq	r0, r1, r2, lsl #14
    1f90:	04030000 	streq	r0, [r3], #-0
    1f94:	746e6905 	strbtvc	r6, [lr], #-2309	; 0x905
    1f98:	07040200 	streq	r0, [r4, -r0, lsl #4]
    1f9c:	00000137 	andeq	r0, r0, r7, lsr r1
    1fa0:	56050802 	strpl	r0, [r5], -r2, lsl #16
    1fa4:	02000001 	andeq	r0, r0, #1
    1fa8:	012d0708 	teqeq	sp, r8, lsl #14
    1fac:	04020000 	streq	r0, [r2], #-0
    1fb0:	00015b05 	andeq	r5, r1, r5, lsl #22
    1fb4:	07040200 	streq	r0, [r4, -r0, lsl #4]
    1fb8:	0000014d 	andeq	r0, r0, sp, asr #2
    1fbc:	04020404 	streq	r0, [r2], #-1028	; 0x404
    1fc0:	00013207 	andeq	r3, r1, r7, lsl #4
    1fc4:	7a040500 	bvc	1033cc <__bss_end__+0xf8bcc>
    1fc8:	02000000 	andeq	r0, r0, #0
    1fcc:	00ec0801 	rsceq	r0, ip, r1, lsl #16
    1fd0:	00060000 	andeq	r0, r6, r0
    1fd4:	02000000 	andeq	r0, r0, #0
    1fd8:	000048d4 	ldrdeq	r4, [r0], -r4	; <UNPREDICTABLE>
    1fdc:	010c0700 	tsteq	ip, r0, lsl #14
    1fe0:	1b030000 	blne	c1fe8 <__bss_end__+0xb77e8>
    1fe4:	0000006b 	andeq	r0, r0, fp, rrx
    1fe8:	00008e34 	andeq	r8, r0, r4, lsr lr
    1fec:	00000020 	andeq	r0, r0, r0, lsr #32
    1ff0:	5f089c01 	svcpl	0x00089c01
    1ff4:	03010070 	movweq	r0, #4208	; 0x1070
    1ff8:	0000006b 	andeq	r0, r0, fp, rrx
    1ffc:	63085001 	movwvs	r5, #32769	; 0x8001
    2000:	41030100 	mrsmi	r0, (UNDEF: 19)
    2004:	01000000 	mrseq	r0, (UNDEF: 0)
    2008:	006e0951 	rsbeq	r0, lr, r1, asr r9
    200c:	00810301 	addeq	r0, r1, r1, lsl #6
    2010:	0ab80000 	beq	fee02018 <__bss_end__+0xfedf7818>
    2014:	700a0000 	andvc	r0, sl, r0
    2018:	74040100 	strvc	r0, [r4], #-256	; 0x100
    201c:	d9000000 	stmdble	r0, {}	; <UNPREDICTABLE>
    2020:	0b00000a 	bleq	2050 <_start-0x5fb0>
    2024:	04010065 	streq	r0, [r1], #-101	; 0x65
    2028:	00000074 	andeq	r0, r0, r4, ror r0
    202c:	00005201 	andeq	r5, r0, r1, lsl #4
    2030:	00000191 	muleq	r0, r1, r1
    2034:	07870004 	streq	r0, [r7, r4]
    2038:	01040000 	mrseq	r0, (UNDEF: 4)
    203c:	00000076 	andeq	r0, r0, r6, ror r0
    2040:	0004fb01 	andeq	pc, r4, r1, lsl #22
    2044:	00049800 	andeq	r9, r4, r0, lsl #16
    2048:	008e5400 	addeq	r5, lr, r0, lsl #8
    204c:	00005800 	andeq	r5, r0, r0, lsl #16
    2050:	0007d400 	andeq	sp, r7, r0, lsl #8
    2054:	04ec0200 	strbteq	r0, [ip], #512	; 0x200
    2058:	28020000 	stmdacs	r2, {}	; <UNPREDICTABLE>
    205c:	00000030 	andeq	r0, r0, r0, lsr r0
    2060:	00051303 	andeq	r1, r5, r3, lsl #6
    2064:	00030400 	andeq	r0, r3, r0, lsl #8
    2068:	00000047 	andeq	r0, r0, r7, asr #32
    206c:	00051d04 	andeq	r1, r5, r4, lsl #26
    2070:	00004700 	andeq	r4, r0, r0, lsl #14
    2074:	05000000 	streq	r0, [r0, #-0]
    2078:	05150204 	ldreq	r0, [r5, #-516]	; 0x204
    207c:	62020000 	andvs	r0, r2, #0
    2080:	00000025 	andeq	r0, r0, r5, lsr #32
    2084:	69050406 	stmdbvs	r5, {r1, r2, sl}
    2088:	0700746e 	streq	r7, [r0, -lr, ror #8]
    208c:	01370704 	teqeq	r7, r4, lsl #14
    2090:	01070000 	mrseq	r0, (UNDEF: 7)
    2094:	0000e506 	andeq	lr, r0, r6, lsl #10
    2098:	05020700 	streq	r0, [r2, #-1792]	; 0x700
    209c:	00000164 	andeq	r0, r0, r4, ror #2
    20a0:	5b050407 	blpl	1430c4 <__bss_end__+0x1388c4>
    20a4:	07000001 	streq	r0, [r0, -r1]
    20a8:	01560508 	cmpeq	r6, r8, lsl #10
    20ac:	01070000 	mrseq	r0, (UNDEF: 7)
    20b0:	0000e308 	andeq	lr, r0, r8, lsl #6
    20b4:	07020700 	streq	r0, [r2, -r0, lsl #14]
    20b8:	000000f1 	strdeq	r0, [r0], -r1
    20bc:	32070407 	andcc	r0, r7, #117440512	; 0x7000000
    20c0:	07000001 	streq	r0, [r0, -r1]
    20c4:	012d0708 	teqeq	sp, r8, lsl #14
    20c8:	04070000 	streq	r0, [r7], #-0
    20cc:	00014d07 	andeq	r4, r1, r7, lsl #26
    20d0:	a7040800 	strge	r0, [r4, -r0, lsl #16]
    20d4:	07000000 	streq	r0, [r0, -r0]
    20d8:	00ec0801 	rsceq	r0, ip, r1, lsl #16
    20dc:	04080000 	streq	r0, [r8], #-0
    20e0:	000000b4 	strheq	r0, [r0], -r4
    20e4:	0000a709 	andeq	sl, r0, r9, lsl #14
    20e8:	050c0a00 	streq	r0, [ip, #-2560]	; 0xa00
    20ec:	06010000 	streq	r0, [r1], -r0
    20f0:	00000054 	andeq	r0, r0, r4, asr r0
    20f4:	00008e54 	andeq	r8, r0, r4, asr lr
    20f8:	00000058 	andeq	r0, r0, r8, asr r0
    20fc:	01439c01 	cmpeq	r3, r1, lsl #24
    2100:	660b0000 	strvs	r0, [fp], -r0
    2104:	0100746d 	tsteq	r0, sp, ror #8
    2108:	0000ae06 	andeq	sl, r0, r6, lsl #28
    210c:	70910200 	addsvc	r0, r1, r0, lsl #4
    2110:	75620d0c 	strbvc	r0, [r2, #-3340]!	; 0xd0c
    2114:	08010066 	stmdaeq	r1, {r1, r2, r5, r6}
    2118:	00000143 	andeq	r0, r0, r3, asr #2
    211c:	a3f80305 	mvnsge	r0, #335544320	; 0x14000000
    2120:	be0e0000 	cdplt	0, 0, cr0, cr14, cr0, {0}
    2124:	01000007 	tsteq	r0, r7
    2128:	00004909 	andeq	r4, r0, r9, lsl #18
    212c:	5c910200 	lfmpl	f0, 4, [r1], {0}
    2130:	007a730f 	rsbseq	r7, sl, pc, lsl #6
    2134:	00540c01 	subseq	r0, r4, r1, lsl #24
    2138:	0b040000 	bleq	102140 <__bss_end__+0xf7940>
    213c:	7c100000 	ldcvc	0, cr0, [r0], {-0}
    2140:	7400008e 	strvc	r0, [r0], #-142	; 0x8e
    2144:	36000001 	strcc	r0, [r0], -r1
    2148:	11000001 	tstne	r0, r1
    214c:	91025301 	tstls	r2, r1, lsl #6
    2150:	5201114c 	andpl	r1, r1, #76, 2
    2154:	06489103 	strbeq	r9, [r8], -r3, lsl #2
    2158:	03510111 	cmpeq	r1, #1073741828	; 0x40000004
    215c:	1104000a 	tstne	r4, sl
    2160:	74025001 	strvc	r5, [r2], #-1
    2164:	90120000 	andsls	r0, r2, r0
    2168:	1100008e 	smlabbne	r0, lr, r0, r0
    216c:	74025001 	strvc	r5, [r2], #-1
    2170:	13000000 	movwne	r0, #0
    2174:	000000a7 	andeq	r0, r0, r7, lsr #1
    2178:	00000154 	andeq	r0, r0, r4, asr r1
    217c:	00009a14 	andeq	r9, r0, r4, lsl sl
    2180:	0003ff00 	andeq	pc, r3, r0, lsl #30
    2184:	00005415 	andeq	r5, r0, r5, lsl r4
    2188:	00016300 	andeq	r6, r1, r0, lsl #6
    218c:	00ae1600 	adceq	r1, lr, r0, lsl #12
    2190:	17000000 	strne	r0, [r0, -r0]
    2194:	0000057a 	andeq	r0, r0, sl, ror r5
    2198:	016e2204 	cmneq	lr, r4, lsl #4
    219c:	04080000 	streq	r0, [r8], #-0
    21a0:	00000154 	andeq	r0, r0, r4, asr r1
    21a4:	00050918 	andeq	r0, r5, r8, lsl r9
    21a8:	54020500 	strpl	r0, [r2], #-1280	; 0x500
    21ac:	16000000 	strne	r0, [r0], -r0
    21b0:	000000a1 	andeq	r0, r0, r1, lsr #1
    21b4:	00005416 	andeq	r5, r0, r6, lsl r4
    21b8:	00ae1600 	adceq	r1, lr, r0, lsl #12
    21bc:	49160000 	ldmdbmi	r6, {}	; <UNPREDICTABLE>
    21c0:	00000000 	andeq	r0, r0, r0
    21c4:	00011300 	andeq	r1, r1, r0, lsl #6
    21c8:	b8000400 	stmdalt	r0, {sl}
    21cc:	04000008 	streq	r0, [r0], #-8
    21d0:	00007601 	andeq	r7, r0, r1, lsl #12
    21d4:	05490100 	strbeq	r0, [r9, #-256]	; 0x100
    21d8:	04980000 	ldreq	r0, [r8], #0
    21dc:	8eac0000 	cdphi	0, 10, cr0, cr12, cr0, {0}
    21e0:	003c0000 	eorseq	r0, ip, r0
    21e4:	08e40000 	stmiaeq	r4!, {}^	; <UNPREDICTABLE>
    21e8:	04020000 	streq	r0, [r2], #-0
    21ec:	746e6905 	strbtvc	r6, [lr], #-2309	; 0x905
    21f0:	07040300 	streq	r0, [r4, -r0, lsl #6]
    21f4:	00000137 	andeq	r0, r0, r7, lsr r1
    21f8:	e5060103 	str	r0, [r6, #-259]	; 0x103
    21fc:	03000000 	movweq	r0, #0
    2200:	01640502 	cmneq	r4, r2, lsl #10
    2204:	04030000 	streq	r0, [r3], #-0
    2208:	00015b05 	andeq	r5, r1, r5, lsl #22
    220c:	05080300 	streq	r0, [r8, #-768]	; 0x300
    2210:	00000156 	andeq	r0, r0, r6, asr r1
    2214:	e3080103 	movw	r0, #33027	; 0x8103
    2218:	03000000 	movweq	r0, #0
    221c:	00f10702 	rscseq	r0, r1, r2, lsl #14
    2220:	04030000 	streq	r0, [r3], #-0
    2224:	00013207 	andeq	r3, r1, r7, lsl #4
    2228:	07080300 	streq	r0, [r8, -r0, lsl #6]
    222c:	0000012d 	andeq	r0, r0, sp, lsr #2
    2230:	4d070403 	cfstrsmi	mvf0, [r7, #-12]
    2234:	03000001 	movweq	r0, #1
    2238:	00ec0801 	rsceq	r0, ip, r1, lsl #16
    223c:	2c040000 	stccs	0, cr0, [r4], {-0}
    2240:	01000005 	tsteq	r0, r5
    2244:	00002503 	andeq	r2, r0, r3, lsl #10
    2248:	008eac00 	addeq	sl, lr, r0, lsl #24
    224c:	00001400 	andeq	r1, r0, r0, lsl #8
    2250:	b09c0100 	addslt	r0, ip, r0, lsl #2
    2254:	05000000 	streq	r0, [r0, #-0]
    2258:	03010063 	movweq	r0, #4195	; 0x1063
    225c:	00000025 	andeq	r0, r0, r5, lsr #32
    2260:	00000b2d 	andeq	r0, r0, sp, lsr #22
    2264:	008eb806 	addeq	fp, lr, r6, lsl #16
    2268:	00010900 	andeq	r0, r1, r0, lsl #18
    226c:	50010700 	andpl	r0, r1, r0, lsl #14
    2270:	00007402 	andeq	r7, r0, r2, lsl #8
    2274:	02590800 	subseq	r0, r9, #0, 16
    2278:	08010000 	stmdaeq	r1, {}	; <UNPREDICTABLE>
    227c:	00008ec0 	andeq	r8, r0, r0, asr #29
    2280:	00000018 	andeq	r0, r0, r8, lsl r0
    2284:	58099c01 	stmdapl	r9, {r0, sl, fp, ip, pc}
    2288:	01000005 	tsteq	r0, r5
    228c:	008ed80b 	addeq	sp, lr, fp, lsl #16
    2290:	00001000 	andeq	r1, r0, r0
    2294:	e39c0100 	orrs	r0, ip, #0, 2
    2298:	0a000000 	beq	22a0 <_start-0x5d60>
    229c:	01007066 	tsteq	r0, r6, rrx
    22a0:	0000f20b 	andeq	pc, r0, fp, lsl #4
    22a4:	00500100 	subseq	r0, r0, r0, lsl #2
    22a8:	0000250b 	andeq	r2, r0, fp, lsl #10
    22ac:	0000f200 	andeq	pc, r0, r0, lsl #4
    22b0:	00250c00 	eoreq	r0, r5, r0, lsl #24
    22b4:	0d000000 	stceq	0, cr0, [r0, #-0]
    22b8:	0000e304 	andeq	lr, r0, r4, lsl #6
    22bc:	053d0e00 	ldreq	r0, [sp, #-3584]!	; 0xe00
    22c0:	06010000 	streq	r0, [r1], -r0
    22c4:	000000f2 	strdeq	r0, [r0], -r2
    22c8:	9a100305 	bls	402ee4 <__bss_end__+0x3f86e4>
    22cc:	220f0000 	andcs	r0, pc, #0
    22d0:	02000005 	andeq	r0, r0, #5
    22d4:	002c0c3c 	eoreq	r0, ip, ip, lsr ip
    22d8:	00000000 	andeq	r0, r0, r0
    22dc:	000000ee 	andeq	r0, r0, lr, ror #1
    22e0:	09a00004 	stmibeq	r0!, {r2}
    22e4:	01040000 	mrseq	r0, (UNDEF: 4)
    22e8:	00000076 	andeq	r0, r0, r6, ror r0
    22ec:	00056501 	andeq	r6, r5, r1, lsl #10
    22f0:	00049800 	andeq	r9, r4, r0, lsl #16
    22f4:	008ee800 	addeq	lr, lr, r0, lsl #16
    22f8:	00003400 	andeq	r3, r0, r0, lsl #8
    22fc:	00097c00 	andeq	r7, r9, r0, lsl #24
    2300:	05040200 	streq	r0, [r4, #-512]	; 0x200
    2304:	00746e69 	rsbseq	r6, r4, r9, ror #28
    2308:	37070403 	strcc	r0, [r7, -r3, lsl #8]
    230c:	03000001 	movweq	r0, #1
    2310:	00e50601 	rsceq	r0, r5, r1, lsl #12
    2314:	02030000 	andeq	r0, r3, #0
    2318:	00016405 	andeq	r6, r1, r5, lsl #8
    231c:	05040300 	streq	r0, [r4, #-768]	; 0x300
    2320:	0000015b 	andeq	r0, r0, fp, asr r1
    2324:	56050803 	strpl	r0, [r5], -r3, lsl #16
    2328:	03000001 	movweq	r0, #1
    232c:	00e30801 	rsceq	r0, r3, r1, lsl #16
    2330:	02030000 	andeq	r0, r3, #0
    2334:	0000f107 	andeq	pc, r0, r7, lsl #2
    2338:	07040300 	streq	r0, [r4, -r0, lsl #6]
    233c:	00000132 	andeq	r0, r0, r2, lsr r1
    2340:	2d070803 	stccs	8, cr0, [r7, #-12]
    2344:	03000001 	movweq	r0, #1
    2348:	014d0704 	cmpeq	sp, r4, lsl #14
    234c:	01030000 	mrseq	r0, (UNDEF: 3)
    2350:	0000ec08 	andeq	lr, r0, r8, lsl #24
    2354:	7f040400 	svcvc	0x00040400
    2358:	05000000 	streq	r0, [r0, #-0]
    235c:	00000072 	andeq	r0, r0, r2, ror r0
    2360:	00057106 	andeq	r7, r5, r6, lsl #2
    2364:	25040100 	strcs	r0, [r4, #-256]	; 0x100
    2368:	e8000000 	stmda	r0, {}	; <UNPREDICTABLE>
    236c:	3400008e 	strcc	r0, [r0], #-142	; 0x8e
    2370:	01000000 	mrseq	r0, (UNDEF: 0)
    2374:	0000ab9c 	muleq	r0, ip, fp
    2378:	00700700 	rsbseq	r0, r0, r0, lsl #14
    237c:	00790401 	rsbseq	r0, r9, r1, lsl #8
    2380:	0b4b0000 	bleq	12c2388 <__bss_end__+0x12b7b88>
    2384:	08000000 	stmdaeq	r0, {}	; <UNPREDICTABLE>
    2388:	00000025 	andeq	r0, r0, r5, lsr #32
    238c:	000000ba 	strheq	r0, [r0], -sl
    2390:	00002509 	andeq	r2, r0, r9, lsl #10
    2394:	3d0a0000 	stccc	0, cr0, [sl, #-0]
    2398:	02000005 	andeq	r0, r0, #5
    239c:	0000c51d 	andeq	ip, r0, sp, lsl r5
    23a0:	ab040400 	blge	1033a8 <__bss_end__+0xf8ba8>
    23a4:	08000000 	stmdaeq	r0, {}	; <UNPREDICTABLE>
    23a8:	00000025 	andeq	r0, r0, r5, lsr #32
    23ac:	000000da 	ldrdeq	r0, [r0], -sl
    23b0:	00007909 	andeq	r7, r0, r9, lsl #18
    23b4:	7a0b0000 	bvc	2c23bc <__bss_end__+0x2b7bbc>
    23b8:	01000005 	tsteq	r0, r5
    23bc:	0000eb0c 	andeq	lr, r0, ip, lsl #22
    23c0:	14030500 	strne	r0, [r3], #-1280	; 0x500
    23c4:	0400009a 	streq	r0, [r0], #-154	; 0x9a
    23c8:	0000cb04 	andeq	ip, r0, r4, lsl #22
    23cc:	06810000 	streq	r0, [r1], r0
    23d0:	00040000 	andeq	r0, r4, r0
    23d4:	00000a39 	andeq	r0, r0, r9, lsr sl
    23d8:	00760104 	rsbseq	r0, r6, r4, lsl #2
    23dc:	a6010000 	strge	r0, [r1], -r0
    23e0:	98000005 	stmdals	r0, {r0, r2}
    23e4:	1c000004 	stcne	0, cr0, [r0], {4}
    23e8:	0c00008f 	stceq	0, cr0, [r0], {143}	; 0x8f
    23ec:	20000005 	andcs	r0, r0, r5
    23f0:	0200000a 	andeq	r0, r0, #10
    23f4:	6e690504 	cdpvs	5, 6, cr0, cr9, cr4, {0}
    23f8:	04030074 	streq	r0, [r3], #-116	; 0x74
    23fc:	00013707 	andeq	r3, r1, r7, lsl #14
    2400:	06010300 	streq	r0, [r1], -r0, lsl #6
    2404:	000000e5 	andeq	r0, r0, r5, ror #1
    2408:	64050203 	strvs	r0, [r5], #-515	; 0x203
    240c:	03000001 	movweq	r0, #1
    2410:	015b0504 	cmpeq	fp, r4, lsl #10
    2414:	08030000 	stmdaeq	r3, {}	; <UNPREDICTABLE>
    2418:	00015605 	andeq	r5, r1, r5, lsl #12
    241c:	08010300 	stmdaeq	r1, {r8, r9}
    2420:	000000e3 	andeq	r0, r0, r3, ror #1
    2424:	f1070203 			; <UNDEFINED> instruction: 0xf1070203
    2428:	03000000 	movweq	r0, #0
    242c:	01320704 	teqeq	r2, r4, lsl #14
    2430:	08030000 	stmdaeq	r3, {}	; <UNPREDICTABLE>
    2434:	00012d07 	andeq	r2, r1, r7, lsl #26
    2438:	07040300 	streq	r0, [r4, -r0, lsl #6]
    243c:	0000014d 	andeq	r0, r0, sp, asr #2
    2440:	04050404 	streq	r0, [r5], #-1028	; 0x404
    2444:	0000007a 	andeq	r0, r0, sl, ror r0
    2448:	ec080103 	stfs	f0, [r8], {3}
    244c:	05000000 	streq	r0, [r0, #-0]
    2450:	00008704 	andeq	r8, r0, r4, lsl #14
    2454:	007a0600 	rsbseq	r0, sl, r0, lsl #12
    2458:	ec070000 	stc	0, cr0, [r7], {-0}
    245c:	02000004 	andeq	r0, r0, #4
    2460:	00009728 	andeq	r9, r0, r8, lsr #14
    2464:	05130800 	ldreq	r0, [r3, #-2048]	; 0x800
    2468:	04040000 	streq	r0, [r4], #-0
    246c:	0000ae00 	andeq	sl, r0, r0, lsl #28
    2470:	051d0900 	ldreq	r0, [sp, #-2304]	; 0x900
    2474:	00720000 	rsbseq	r0, r2, r0
    2478:	00000000 	andeq	r0, r0, r0
    247c:	00051507 	andeq	r1, r5, r7, lsl #10
    2480:	8c620200 	sfmhi	f0, 2, [r2], #-0
    2484:	0a000000 	beq	248c <_start-0x5b74>
    2488:	0000058d 	andeq	r0, r0, sp, lsl #11
    248c:	00252701 	eoreq	r2, r5, r1, lsl #14
    2490:	8f1c0000 	svchi	0x001c0000
    2494:	00140000 	andseq	r0, r4, r0
    2498:	9c010000 	stcls	0, cr0, [r1], {-0}
    249c:	000000e0 	andeq	r0, r0, r0, ror #1
    24a0:	0100630b 	tsteq	r0, fp, lsl #6
    24a4:	00002527 	andeq	r2, r0, r7, lsr #10
    24a8:	000b6900 	andeq	r6, fp, r0, lsl #18
    24ac:	700c0000 	andvc	r0, ip, r0
    24b0:	01006461 	tsteq	r0, r1, ror #8
    24b4:	0000742e 	andeq	r7, r0, lr, lsr #8
    24b8:	008f3000 	addeq	r3, pc, r0
    24bc:	00002c00 	andeq	r2, r0, r0, lsl #24
    24c0:	309c0100 	addscc	r0, ip, r0, lsl #2
    24c4:	0b000001 	bleq	24d0 <_start-0x5b30>
    24c8:	2e010070 	mcrcs	0, 0, r0, cr1, cr0, {3}
    24cc:	00000074 	andeq	r0, r0, r4, ror r0
    24d0:	00000b97 	muleq	r0, r7, fp
    24d4:	00079c0d 	andeq	r9, r7, sp, lsl #24
    24d8:	742e0100 	strtvc	r0, [lr], #-256	; 0x100
    24dc:	c2000000 	andgt	r0, r0, #0
    24e0:	0e00000b 	cdpeq	0, 0, cr0, cr0, cr11, {0}
    24e4:	000005c6 	andeq	r0, r0, r6, asr #11
    24e8:	00252e01 	eoreq	r2, r5, r1, lsl #28
    24ec:	52010000 	andpl	r0, r1, #0
    24f0:	6e656c0f 	cdpvs	12, 6, cr6, cr5, cr15, {0}
    24f4:	252f0100 	strcs	r0, [pc, #-256]!	; 23fc <_start-0x5c04>
    24f8:	01000000 	mrseq	r0, (UNDEF: 0)
    24fc:	850a0051 	strhi	r0, [sl, #-81]	; 0x51
    2500:	01000005 	tsteq	r0, r5
    2504:	00007437 	andeq	r7, r0, r7, lsr r4
    2508:	008f5c00 	addeq	r5, pc, r0, lsl #24
    250c:	00004000 	andeq	r4, r0, r0
    2510:	9c9c0100 	ldflss	f0, [ip], {0}
    2514:	0b000001 	bleq	2520 <_start-0x5ae0>
    2518:	00747364 	rsbseq	r7, r4, r4, ror #6
    251c:	00743701 	rsbseq	r3, r4, r1, lsl #14
    2520:	0be30000 	bleq	ff8c2528 <__bss_end__+0xff8b7d28>
    2524:	6e0b0000 	cdpvs	0, 0, cr0, cr11, cr0, {0}
    2528:	25370100 	ldrcs	r0, [r7, #-256]!	; 0x100
    252c:	1b000000 	blne	2534 <_start-0x5acc>
    2530:	0b00000c 	bleq	2568 <_start-0x5a98>
    2534:	37010070 	smlsdxcc	r1, r0, r0, r0
    2538:	00000074 	andeq	r0, r0, r4, ror r0
    253c:	00000c3c 	andeq	r0, r0, ip, lsr ip
    2540:	000d570d 	andeq	r5, sp, sp, lsl #14
    2544:	74370100 	ldrtvc	r0, [r7], #-256	; 0x100
    2548:	72000000 	andvc	r0, r0, #0
    254c:	1000000c 	andne	r0, r0, ip
    2550:	006e656c 	rsbeq	r6, lr, ip, ror #10
    2554:	00253901 	eoreq	r3, r5, r1, lsl #18
    2558:	0c900000 	ldceq	0, cr0, [r0], {0}
    255c:	730f0000 	movwvc	r0, #61440	; 0xf000
    2560:	743d0100 	ldrtvc	r0, [sp], #-256	; 0x100
    2564:	01000000 	mrseq	r0, (UNDEF: 0)
    2568:	d40a0050 	strle	r0, [sl], #-80	; 0x50
    256c:	01000005 	tsteq	r0, r5
    2570:	00007447 	andeq	r7, r0, r7, asr #8
    2574:	008f9c00 	addeq	r9, pc, r0, lsl #24
    2578:	0001b000 	andeq	fp, r1, r0
    257c:	d39c0100 	orrsle	r0, ip, #0, 2
    2580:	0d000002 	stceq	0, cr0, [r0, #-8]
    2584:	0000079c 	muleq	r0, ip, r7
    2588:	002c4701 	eoreq	r4, ip, r1, lsl #14
    258c:	0cb70000 	ldceq	0, cr0, [r7]
    2590:	640b0000 	strvs	r0, [fp], #-0
    2594:	01007473 	tsteq	r0, r3, ror r4
    2598:	00007447 	andeq	r7, r0, r7, asr #8
    259c:	000ce500 	andeq	lr, ip, r0, lsl #10
    25a0:	006e0b00 	rsbeq	r0, lr, r0, lsl #22
    25a4:	00254701 	eoreq	r4, r5, r1, lsl #14
    25a8:	0d530000 	ldcleq	0, cr0, [r3, #-0]
    25ac:	760b0000 	strvc	r0, [fp], -r0
    25b0:	01006c61 	tsteq	r0, r1, ror #24
    25b4:	00002547 	andeq	r2, r0, r7, asr #10
    25b8:	000d7f00 	andeq	r7, sp, r0, lsl #30
    25bc:	05c60d00 	strbeq	r0, [r6, #3328]	; 0xd00
    25c0:	47010000 	strmi	r0, [r1, -r0]
    25c4:	00000025 	andeq	r0, r0, r5, lsr #32
    25c8:	00000dfe 	strdeq	r0, [r0], -lr
    25cc:	00059d0e 	andeq	r9, r5, lr, lsl #26
    25d0:	25470100 	strbcs	r0, [r7, #-256]	; 0x100
    25d4:	02000000 	andeq	r0, r0, #0
    25d8:	620f0491 	andvs	r0, pc, #-1862270976	; 0x91000000
    25dc:	01006675 	tsteq	r0, r5, ror r6
    25e0:	0002d34c 	andeq	sp, r2, ip, asr #6
    25e4:	a8910300 	ldmge	r1, {r8, r9}
    25e8:	0070107f 	rsbseq	r1, r0, pc, ror r0
    25ec:	00744c01 	rsbseq	r4, r4, r1, lsl #24
    25f0:	0e280000 	cdpeq	0, 2, cr0, cr8, cr0, {0}
    25f4:	75100000 	ldrvc	r0, [r0, #-0]
    25f8:	2c4d0100 	stfcse	f0, [sp], {-0}
    25fc:	f0000000 			; <UNDEFINED> instruction: 0xf0000000
    2600:	1100000e 	tstne	r0, lr
    2604:	00000113 	andeq	r0, r0, r3, lsl r1
    2608:	000002f3 	strdeq	r0, [r0], -r3
    260c:	a1bc0305 			; <UNDEFINED> instruction: 0xa1bc0305
    2610:	08120000 	ldmdaeq	r2, {}	; <UNPREDICTABLE>
    2614:	74000090 	strvc	r0, [r0], #-144	; 0x90
    2618:	61000000 	mrsvs	r0, (UNDEF: 0)
    261c:	13000002 	movwne	r0, #2
    2620:	0000057f 	andeq	r0, r0, pc, ror r5
    2624:	002c5201 	eoreq	r5, ip, r1, lsl #4
    2628:	0fb30000 	svceq	0x00b30000
    262c:	14000000 	strne	r0, [r0], #-0
    2630:	000090f4 	strdeq	r9, [r0], -r4
    2634:	00000660 	andeq	r0, r0, r0, ror #12
    2638:	00910815 	addseq	r0, r1, r5, lsl r8
    263c:	00066700 	andeq	r6, r6, r0, lsl #14
    2640:	00029900 	andeq	r9, r2, r0, lsl #18
    2644:	53011600 	movwpl	r1, #5632	; 0x1600
    2648:	16770802 	ldrbtne	r0, [r7], -r2, lsl #16
    264c:	03055201 	movweq	r5, #20993	; 0x5201
    2650:	0000a1bc 			; <UNDEFINED> instruction: 0x0000a1bc
    2654:	05510116 	ldrbeq	r0, [r1, #-278]	; 0x116
    2658:	00a1f403 	adceq	pc, r1, r3, lsl #8
    265c:	50011600 	andpl	r1, r1, r0, lsl #12
    2660:	a1e00305 	mvnge	r0, r5, lsl #6
    2664:	14000000 	strne	r0, [r0], #-0
    2668:	0000910c 	andeq	r9, r0, ip, lsl #2
    266c:	0000067d 	andeq	r0, r0, sp, ror r6
    2670:	00911415 	addseq	r1, r1, r5, lsl r4
    2674:	0000e000 	andeq	lr, r0, r0
    2678:	0002b600 	andeq	fp, r2, r0, lsl #12
    267c:	51011600 	tstpl	r1, r0, lsl #12
    2680:	00007d02 	andeq	r7, r0, r2, lsl #26
    2684:	00912817 	addseq	r2, r1, r7, lsl r8
    2688:	00013000 	andeq	r3, r1, r0
    268c:	53011600 	movwpl	r1, #5632	; 0x1600
    2690:	16007d02 	strne	r7, [r0], -r2, lsl #26
    2694:	74025101 	strvc	r5, [r2], #-257	; 0x101
    2698:	50011600 	andpl	r1, r1, r0, lsl #12
    269c:	00007502 	andeq	r7, r0, r2, lsl #10
    26a0:	007a1800 	rsbseq	r1, sl, r0, lsl #16
    26a4:	02e30000 	rsceq	r0, r3, #0
    26a8:	6b190000 	blvs	6426b0 <__bss_end__+0x637eb0>
    26ac:	3f000000 	svccc	0x00000000
    26b0:	007a1800 	rsbseq	r1, sl, r0, lsl #16
    26b4:	02f30000 	rscseq	r0, r3, #0
    26b8:	6b190000 	blvs	6426c0 <__bss_end__+0x637ec0>
    26bc:	04000000 	streq	r0, [r0], #-0
    26c0:	02e30600 	rsceq	r0, r3, #0, 12
    26c4:	b71a0000 	ldrlt	r0, [sl, -r0]
    26c8:	01000005 	tsteq	r0, r5
    26cc:	00914c1f 	addseq	r4, r1, pc, lsl ip
    26d0:	00005400 	andeq	r5, r0, r0, lsl #8
    26d4:	7c9c0100 	ldfvcs	f0, [ip], {0}
    26d8:	0d000003 	stceq	0, cr0, [r0, #-12]
    26dc:	000005cc 	andeq	r0, r0, ip, asr #11
    26e0:	038b1f01 	orreq	r1, fp, #1, 30
    26e4:	0fdf0000 	svceq	0x00df0000
    26e8:	950d0000 	strls	r0, [sp, #-0]
    26ec:	01000005 	tsteq	r0, r5
    26f0:	0003a01f 	andeq	sl, r3, pc, lsl r0
    26f4:	00100b00 	andseq	r0, r0, r0, lsl #22
    26f8:	01131100 	tsteq	r3, r0, lsl #2
    26fc:	03b60000 			; <UNDEFINED> instruction: 0x03b60000
    2700:	03050000 	movweq	r0, #20480	; 0x5000
    2704:	0000a1c4 	andeq	sl, r0, r4, asr #3
    2708:	00915c14 	addseq	r5, r1, r4, lsl ip
    270c:	00066000 	andeq	r6, r6, r0
    2710:	91701500 	cmnls	r0, r0, lsl #10
    2714:	06670000 	strbteq	r0, [r7], -r0
    2718:	03720000 	cmneq	r2, #0
    271c:	01160000 	tsteq	r6, r0
    2720:	20080253 	andcs	r0, r8, r3, asr r2
    2724:	05520116 	ldrbeq	r0, [r2, #-278]	; 0x116
    2728:	00a1c403 	adceq	ip, r1, r3, lsl #8
    272c:	51011600 	tstpl	r1, r0, lsl #12
    2730:	a1f40305 	mvnsge	r0, r5, lsl #6
    2734:	01160000 	tsteq	r6, r0
    2738:	2c030550 	cfstr32cs	mvfx0, [r3], {80}	; 0x50
    273c:	000000a2 	andeq	r0, r0, r2, lsr #1
    2740:	00917414 	addseq	r7, r1, r4, lsl r4
    2744:	00067d00 	andeq	r7, r6, r0, lsl #26
    2748:	251b0000 	ldrcs	r0, [fp, #-0]
    274c:	8b000000 	blhi	2754 <_start-0x58ac>
    2750:	1c000003 	stcne	0, cr0, [r0], {3}
    2754:	00000025 	andeq	r0, r0, r5, lsr #32
    2758:	7c040500 	cfstr32vc	mvfx0, [r4], {-0}
    275c:	1b000003 	blne	2770 <_start-0x5890>
    2760:	00000025 	andeq	r0, r0, r5, lsr #32
    2764:	000003a0 	andeq	r0, r0, r0, lsr #7
    2768:	0000811c 	andeq	r8, r0, ip, lsl r1
    276c:	04050000 	streq	r0, [r5], #-0
    2770:	00000391 	muleq	r0, r1, r3
    2774:	00007a18 	andeq	r7, r0, r8, lsl sl
    2778:	0003b600 	andeq	fp, r3, r0, lsl #12
    277c:	006b1900 	rsbeq	r1, fp, r0, lsl #18
    2780:	000e0000 	andeq	r0, lr, r0
    2784:	0003a606 	andeq	sl, r3, r6, lsl #12
    2788:	05091d00 	streq	r1, [r9, #-3328]	; 0xd00
    278c:	7f010000 	svcvc	0x00010000
    2790:	00000025 	andeq	r0, r0, r5, lsr #32
    2794:	000091a0 	andeq	r9, r0, r0, lsr #3
    2798:	00000288 	andeq	r0, r0, r8, lsl #5
    279c:	06259c01 	strteq	r9, [r5], -r1, lsl #24
    27a0:	620b0000 	andvs	r0, fp, #0
    27a4:	01006675 	tsteq	r0, r5, ror r6
    27a8:	0000747f 	andeq	r7, r0, pc, ror r4
    27ac:	00103700 	andseq	r3, r0, r0, lsl #14
    27b0:	006e0b00 	rsbeq	r0, lr, r0, lsl #22
    27b4:	00257f01 	eoreq	r7, r5, r1, lsl #30
    27b8:	10630000 	rsbne	r0, r3, r0
    27bc:	660b0000 	strvs	r0, [fp], -r0
    27c0:	0100746d 	tsteq	r0, sp, ror #8
    27c4:	0000817f 	andeq	r8, r0, pc, ror r1
    27c8:	00109100 	andseq	r9, r0, r0, lsl #2
    27cc:	07be0d00 	ldreq	r0, [lr, r0, lsl #26]!
    27d0:	7f010000 	svcvc	0x00010000
    27d4:	000000ae 	andeq	r0, r0, lr, lsr #1
    27d8:	000010c5 	andeq	r1, r0, r5, asr #1
    27dc:	01007010 	tsteq	r0, r0, lsl r0
    27e0:	00007480 	andeq	r7, r0, r0, lsl #9
    27e4:	0010d800 	andseq	sp, r0, r0, lsl #16
    27e8:	00651000 	rsbeq	r1, r5, r0
    27ec:	00748001 	rsbseq	r8, r4, r1
    27f0:	11560000 	cmpne	r6, r0
    27f4:	13110000 	tstne	r1, #0
    27f8:	35000001 	strcc	r0, [r0, #-1]
    27fc:	05000006 	streq	r0, [r0, #-6]
    2800:	00a1d403 	adceq	sp, r1, r3, lsl #8
    2804:	00481e00 	subeq	r1, r8, r0, lsl #28
    2808:	73100000 	tstvc	r0, #0
    280c:	748d0100 	strvc	r0, [sp], #256	; 0x100
    2810:	7d000000 	stcvc	0, cr0, [r0, #-0]
    2814:	0f000011 	svceq	0x00000011
    2818:	006d756e 	rsbeq	r7, sp, lr, ror #10
    281c:	063a8d01 	ldrteq	r8, [sl], -r1, lsl #26
    2820:	91030000 	mrsls	r0, (UNDEF: 3)
    2824:	c6137ed8 			; <UNDEFINED> instruction: 0xc6137ed8
    2828:	01000005 	tsteq	r0, r5
    282c:	00002c8e 	andeq	r2, r0, lr, lsl #25
    2830:	0011d200 	andseq	sp, r1, r0, lsl #4
    2834:	92241500 	eorls	r1, r4, #0, 10
    2838:	00b90000 	adcseq	r0, r9, r0
    283c:	047b0000 	ldrbteq	r0, [fp], #-0
    2840:	01160000 	tsteq	r6, r0
    2844:	00750250 	rsbseq	r0, r5, r0, asr r2
    2848:	92381400 	eorsls	r1, r8, #0, 8
    284c:	06600000 	strbteq	r0, [r0], -r0
    2850:	4c150000 	ldcmi	0, cr0, [r5], {-0}
    2854:	67000092 			; <UNDEFINED> instruction: 0x67000092
    2858:	b3000006 	movwlt	r0, #6
    285c:	16000004 	strne	r0, [r0], -r4
    2860:	08025301 	stmdaeq	r2, {r0, r8, r9, ip, lr}
    2864:	52011694 	andpl	r1, r1, #148, 12	; 0x9400000
    2868:	a1d40305 	bicsge	r0, r4, r5, lsl #6
    286c:	01160000 	tsteq	r6, r0
    2870:	f4030551 	vst3.16	{d0,d2,d4}, [r3 :64], r1
    2874:	160000a1 	strne	r0, [r0], -r1, lsr #1
    2878:	03055001 	movweq	r5, #20481	; 0x5001
    287c:	0000a244 	andeq	sl, r0, r4, asr #4
    2880:	92501400 	subsls	r1, r0, #0, 8
    2884:	067d0000 	ldrbteq	r0, [sp], -r0
    2888:	c0140000 	andsgt	r0, r4, r0
    288c:	60000092 	mulvs	r0, r2, r0
    2890:	15000006 	strne	r0, [r0, #-6]
    2894:	000092d4 	ldrdeq	r9, [r0], -r4
    2898:	00000667 	andeq	r0, r0, r7, ror #12
    289c:	000004f4 	strdeq	r0, [r0], -r4
    28a0:	02530116 	subseq	r0, r3, #-2147483643	; 0x80000005
    28a4:	01169a08 	tsteq	r6, r8, lsl #20
    28a8:	d4030552 	strle	r0, [r3], #-1362	; 0x552
    28ac:	160000a1 	strne	r0, [r0], -r1, lsr #1
    28b0:	03055101 	movweq	r5, #20737	; 0x5101
    28b4:	0000a1f4 	strdeq	sl, [r0], -r4
    28b8:	05500116 	ldrbeq	r0, [r0, #-278]	; 0x116
    28bc:	00a26003 	adceq	r6, r2, r3
    28c0:	d8140000 	ldmdale	r4, {}	; <UNPREDICTABLE>
    28c4:	7d000092 	stcvc	0, cr0, [r0, #-584]	; 0xfffffdb8
    28c8:	15000006 	strne	r0, [r0, #-6]
    28cc:	000092fc 	strdeq	r9, [r0], -ip
    28d0:	0000019c 	muleq	r0, ip, r1
    28d4:	0000052a 	andeq	r0, r0, sl, lsr #10
    28d8:	02520116 	subseq	r0, r2, #-2147483643	; 0x80000005
    28dc:	01168008 	tsteq	r6, r8
    28e0:	d0910351 	addsle	r0, r1, r1, asr r3
    28e4:	5001167e 	andpl	r1, r1, lr, ror r6
    28e8:	02163a01 	andseq	r3, r6, #4096	; 0x1000
    28ec:	3101047d 	tstcc	r1, sp, ror r4
    28f0:	007d0216 	rsbseq	r0, sp, r6, lsl r2
    28f4:	00007702 	andeq	r7, r0, r2, lsl #14
    28f8:	00932015 	addseq	r2, r3, r5, lsl r0
    28fc:	00019c00 	andeq	r9, r1, r0, lsl #24
    2900:	00055800 	andeq	r5, r5, r0, lsl #16
    2904:	52011600 	andpl	r1, r1, #0, 12
    2908:	16800802 	strne	r0, [r0], r2, lsl #16
    290c:	91035101 	tstls	r3, r1, lsl #2
    2910:	01167ed0 			; <UNDEFINED> instruction: 0x01167ed0
    2914:	163a0150 			; <UNDEFINED> instruction: 0x163a0150
    2918:	02047d02 	andeq	r7, r4, #2, 26	; 0x80
    291c:	0216007b 	andseq	r0, r6, #123	; 0x7b
    2920:	7702007d 	smlsdxvc	r2, sp, r0, r0
    2924:	44150000 	ldrmi	r0, [r5], #-0
    2928:	9c000093 	stcls	0, cr0, [r0], {147}	; 0x93
    292c:	86000001 	strhi	r0, [r0], -r1
    2930:	16000005 	strne	r0, [r0], -r5
    2934:	08025201 	stmdaeq	r2, {r0, r9, ip, lr}
    2938:	51011680 	smlabbpl	r1, r0, r6, r1
    293c:	7ed09103 	atnvcs	f1, f3
    2940:	01500116 	cmpeq	r0, r6, lsl r1
    2944:	7d021640 	stcvc	6, cr1, [r2, #-256]	; 0xffffff00
    2948:	007b0204 	rsbseq	r0, fp, r4, lsl #4
    294c:	007d0216 	rsbseq	r0, sp, r6, lsl r2
    2950:	00007702 	andeq	r7, r0, r2, lsl #14
    2954:	00936815 	addseq	r6, r3, r5, lsl r8
    2958:	00019c00 	andeq	r9, r1, r0, lsl #24
    295c:	0005b400 	andeq	fp, r5, r0, lsl #8
    2960:	52011600 	andpl	r1, r1, #0, 12
    2964:	16800802 	strne	r0, [r0], r2, lsl #16
    2968:	91035101 	tstls	r3, r1, lsl #2
    296c:	01167ed0 			; <UNDEFINED> instruction: 0x01167ed0
    2970:	16320150 			; <UNDEFINED> instruction: 0x16320150
    2974:	02047d02 	andeq	r7, r4, #2, 26	; 0x80
    2978:	0216007b 	andseq	r0, r6, #123	; 0x7b
    297c:	7702007d 	smlsdxvc	r2, sp, r0, r0
    2980:	98150000 	ldmdals	r5, {}	; <UNPREDICTABLE>
    2984:	9c000093 	stcls	0, cr0, [r0], {147}	; 0x93
    2988:	e2000001 	and	r0, r0, #1
    298c:	16000005 	strne	r0, [r0], -r5
    2990:	08025201 	stmdaeq	r2, {r0, r9, ip, lr}
    2994:	51011680 	smlabbpl	r1, r0, r6, r1
    2998:	7ed09103 	atnvcs	f1, f3
    299c:	01500116 	cmpeq	r0, r6, lsl r1
    29a0:	7d021638 	stcvc	6, cr1, [r2, #-224]	; 0xffffff20
    29a4:	007b0204 	rsbseq	r0, fp, r4, lsl #4
    29a8:	007d0216 	rsbseq	r0, sp, r6, lsl r2
    29ac:	00007702 	andeq	r7, r0, r2, lsl #14
    29b0:	0093a014 	addseq	sl, r3, r4, lsl r0
    29b4:	00066000 	andeq	r6, r6, r0
    29b8:	93bc1500 			; <UNDEFINED> instruction: 0x93bc1500
    29bc:	06670000 	strbteq	r0, [r7], -r0
    29c0:	061a0000 	ldreq	r0, [sl], -r0
    29c4:	01160000 	tsteq	r6, r0
    29c8:	bb080253 	bllt	20331c <__bss_end__+0x1f8b1c>
    29cc:	05520116 	ldrbeq	r0, [r2, #-278]	; 0x116
    29d0:	00a1d403 	adceq	sp, r1, r3, lsl #8
    29d4:	51011600 	tstpl	r1, r0, lsl #12
    29d8:	a1f40305 	mvnsge	r0, r5, lsl #6
    29dc:	01160000 	tsteq	r6, r0
    29e0:	88030550 	stmdahi	r3, {r4, r6, r8, sl}
    29e4:	000000a2 	andeq	r0, r0, r2, lsr #1
    29e8:	0093c014 	addseq	ip, r3, r4, lsl r0
    29ec:	00067d00 	andeq	r7, r6, r0, lsl #26
    29f0:	18000000 	stmdane	r0, {}	; <UNPREDICTABLE>
    29f4:	0000007a 	andeq	r0, r0, sl, ror r0
    29f8:	00000635 	andeq	r0, r0, r5, lsr r6
    29fc:	00006b19 	andeq	r6, r0, r9, lsl fp
    2a00:	06000900 	streq	r0, [r0], -r0, lsl #18
    2a04:	00000625 	andeq	r0, r0, r5, lsr #12
    2a08:	00007a18 	andeq	r7, r0, r8, lsl sl
    2a0c:	00064a00 	andeq	r4, r6, r0, lsl #20
    2a10:	006b1900 	rsbeq	r1, fp, r0, lsl #18
    2a14:	007f0000 	rsbseq	r0, pc, r0
    2a18:	00053d1f 	andeq	r3, r5, pc, lsl sp
    2a1c:	8b1d0300 	blhi	743624 <__bss_end__+0x738e24>
    2a20:	1f000003 	svcne	0x00000003
    2a24:	0000057a 	andeq	r0, r0, sl, ror r5
    2a28:	03a02203 	moveq	r2, #805306368	; 0x30000000
    2a2c:	59200000 	stmdbpl	r0!, {}	; <UNPREDICTABLE>
    2a30:	03000002 	movweq	r0, #2
    2a34:	050c211e 	streq	r2, [ip, #-286]	; 0x11e
    2a38:	29030000 	stmdbcs	r3, {}	; <UNPREDICTABLE>
    2a3c:	00000025 	andeq	r0, r0, r5, lsr #32
    2a40:	0000067d 	andeq	r0, r0, sp, ror r6
    2a44:	0000811c 	andeq	r8, r0, ip, lsl r1
    2a48:	20002200 	andcs	r2, r0, r0, lsl #4
    2a4c:	000002a6 	andeq	r0, r0, r6, lsr #5
    2a50:	ff006503 			; <UNDEFINED> instruction: 0xff006503
    2a54:	04000000 	streq	r0, [r0], #-0
    2a58:	000c1500 	andeq	r1, ip, r0, lsl #10
    2a5c:	76010400 	strvc	r0, [r1], -r0, lsl #8
    2a60:	01000000 	mrseq	r0, (UNDEF: 0)
    2a64:	000005d9 	ldrdeq	r0, [r0], -r9
    2a68:	00000498 	muleq	r0, r8, r4
    2a6c:	00009428 	andeq	r9, r0, r8, lsr #8
    2a70:	00000028 	andeq	r0, r0, r8, lsr #32
    2a74:	00000c0f 	andeq	r0, r0, pc, lsl #24
    2a78:	69050402 	stmdbvs	r5, {r1, sl}
    2a7c:	0300746e 	movweq	r7, #1134	; 0x46e
    2a80:	01370704 	teqeq	r7, r4, lsl #14
    2a84:	01030000 	mrseq	r0, (UNDEF: 3)
    2a88:	0000e506 	andeq	lr, r0, r6, lsl #10
    2a8c:	05020300 	streq	r0, [r2, #-768]	; 0x300
    2a90:	00000164 	andeq	r0, r0, r4, ror #2
    2a94:	5b050403 	blpl	143aa8 <__bss_end__+0x1392a8>
    2a98:	03000001 	movweq	r0, #1
    2a9c:	01560508 	cmpeq	r6, r8, lsl #10
    2aa0:	01030000 	mrseq	r0, (UNDEF: 3)
    2aa4:	0000e308 	andeq	lr, r0, r8, lsl #6
    2aa8:	07020300 	streq	r0, [r2, -r0, lsl #6]
    2aac:	000000f1 	strdeq	r0, [r0], -r1
    2ab0:	32070403 	andcc	r0, r7, #50331648	; 0x3000000
    2ab4:	03000001 	movweq	r0, #1
    2ab8:	012d0708 	teqeq	sp, r8, lsl #14
    2abc:	04030000 	streq	r0, [r3], #-0
    2ac0:	00014d07 	andeq	r4, r1, r7, lsl #26
    2ac4:	08010300 	stmdaeq	r1, {r8, r9}
    2ac8:	000000ec 	andeq	r0, r0, ip, ror #1
    2acc:	007f0404 	rsbseq	r0, pc, r4, lsl #8
    2ad0:	72050000 	andvc	r0, r5, #0
    2ad4:	06000000 	streq	r0, [r0], -r0
    2ad8:	000002a6 	andeq	r0, r0, r6, lsr #5
    2adc:	94280401 	strtls	r0, [r8], #-1025	; 0x401
    2ae0:	00280000 	eoreq	r0, r8, r0
    2ae4:	9c010000 	stcls	0, cr0, [r1], {-0}
    2ae8:	000000ca 	andeq	r0, r0, sl, asr #1
    2aec:	00943c07 	addseq	r3, r4, r7, lsl #24
    2af0:	0000ac00 	andeq	sl, r0, r0, lsl #24
    2af4:	50010800 	andpl	r0, r1, r0, lsl #16
    2af8:	a2c00305 	sbcge	r0, r0, #335544320	; 0x14000000
    2afc:	09000000 	stmdbeq	r0, {}	; <UNPREDICTABLE>
    2b00:	00009444 	andeq	r9, r0, r4, asr #8
    2b04:	000000ea 	andeq	r0, r0, sl, ror #1
    2b08:	000000c0 	andeq	r0, r0, r0, asr #1
    2b0c:	02500108 	subseq	r0, r0, #8, 2
    2b10:	0a006408 	beq	1bb38 <__bss_end__+0x11338>
    2b14:	00009448 	andeq	r9, r0, r8, asr #8
    2b18:	000000fb 	strdeq	r0, [r0], -fp
    2b1c:	00250b00 	eoreq	r0, r5, r0, lsl #22
    2b20:	00d90000 	sbcseq	r0, r9, r0
    2b24:	790c0000 	stmdbvc	ip, {}	; <UNPREDICTABLE>
    2b28:	00000000 	andeq	r0, r0, r0
    2b2c:	00057a0d 	andeq	r7, r5, sp, lsl #20
    2b30:	e4220200 	strt	r0, [r2], #-512	; 0x200
    2b34:	04000000 	streq	r0, [r0], #-0
    2b38:	0000ca04 	andeq	ip, r0, r4, lsl #20
    2b3c:	05fd0e00 	ldrbeq	r0, [sp, #3584]!	; 0xe00
    2b40:	4f020000 	svcmi	0x00020000
    2b44:	000000fb 	strdeq	r0, [r0], -fp
    2b48:	00002c0c 	andeq	r2, r0, ip, lsl #24
    2b4c:	f20f0000 	vhadd.s8	d0, d15, d0
    2b50:	02000005 	andeq	r0, r0, #5
    2b54:	00ff0062 	rscseq	r0, pc, r2, rrx
    2b58:	00040000 	andeq	r0, r4, r0
    2b5c:	00000cdf 	ldrdeq	r0, [r0], -pc	; <UNPREDICTABLE>
    2b60:	00760104 	rsbseq	r0, r6, r4, lsl #2
    2b64:	16010000 	strne	r0, [r1], -r0
    2b68:	98000006 	stmdals	r0, {r1, r2}
    2b6c:	50000004 	andpl	r0, r0, r4
    2b70:	34000094 	strcc	r0, [r0], #-148	; 0x94
    2b74:	af000000 	svcge	0x00000000
    2b78:	0200000c 	andeq	r0, r0, #12
    2b7c:	6e690504 	cdpvs	5, 6, cr0, cr9, cr4, {0}
    2b80:	04030074 	streq	r0, [r3], #-116	; 0x74
    2b84:	00013707 	andeq	r3, r1, r7, lsl #14
    2b88:	06010300 	streq	r0, [r1], -r0, lsl #6
    2b8c:	000000e5 	andeq	r0, r0, r5, ror #1
    2b90:	64050203 	strvs	r0, [r5], #-515	; 0x203
    2b94:	03000001 	movweq	r0, #1
    2b98:	015b0504 	cmpeq	fp, r4, lsl #10
    2b9c:	08030000 	stmdaeq	r3, {}	; <UNPREDICTABLE>
    2ba0:	00015605 	andeq	r5, r1, r5, lsl #12
    2ba4:	08010300 	stmdaeq	r1, {r8, r9}
    2ba8:	000000e3 	andeq	r0, r0, r3, ror #1
    2bac:	f1070203 			; <UNDEFINED> instruction: 0xf1070203
    2bb0:	03000000 	movweq	r0, #0
    2bb4:	01320704 	teqeq	r2, r4, lsl #14
    2bb8:	08030000 	stmdaeq	r3, {}	; <UNPREDICTABLE>
    2bbc:	00012d07 	andeq	r2, r1, r7, lsl #26
    2bc0:	07040300 	streq	r0, [r4, -r0, lsl #6]
    2bc4:	0000014d 	andeq	r0, r0, sp, asr #2
    2bc8:	ec080103 	stfs	f0, [r8], {3}
    2bcc:	04000000 	streq	r0, [r0], #-0
    2bd0:	0000060e 	andeq	r0, r0, lr, lsl #12
    2bd4:	94500d01 	ldrbls	r0, [r0], #-3329	; 0xd01
    2bd8:	00340000 	eorseq	r0, r4, r0
    2bdc:	9c010000 	stcls	0, cr0, [r1], {-0}
    2be0:	000000d8 	ldrdeq	r0, [r0], -r8
    2be4:	00040f05 	andeq	r0, r4, r5, lsl #30
    2be8:	250e0100 	strcs	r0, [lr, #-256]	; 0x100
    2bec:	05000000 	streq	r0, [r0, #-0]
    2bf0:	0000041d 	andeq	r0, r0, sp, lsl r4
    2bf4:	00250e01 	eoreq	r0, r5, r1, lsl #28
    2bf8:	cd060000 	stcgt	0, cr0, [r6, #-0]
    2bfc:	01000000 	mrseq	r0, (UNDEF: 0)
    2c00:	7362070f 	cmnvc	r2, #3932160	; 0x3c0000
    2c04:	11010073 	tstne	r1, r3, ror r0
    2c08:	000000d8 	ldrdeq	r0, [r0], -r8
    2c0c:	000011fc 	strdeq	r1, [r0], -ip
    2c10:	00060608 	andeq	r0, r6, r8, lsl #12
    2c14:	d8120100 	ldmdale	r2, {r8}
    2c18:	09000000 	stmdbeq	r0, {}	; <UNPREDICTABLE>
    2c1c:	00009478 	andeq	r9, r0, r8, ror r4
    2c20:	000000f4 	strdeq	r0, [r0], -r4
    2c24:	00947c09 	addseq	r7, r4, r9, lsl #24
    2c28:	0000fb00 	andeq	pc, r0, r0, lsl #22
    2c2c:	040a0000 	streq	r0, [sl], #-0
    2c30:	00000025 	andeq	r0, r0, r5, lsr #32
    2c34:	00040f05 	andeq	r0, r4, r5, lsl #30
    2c38:	250e0100 	strcs	r0, [lr, #-256]	; 0x100
    2c3c:	05000000 	streq	r0, [r0, #-0]
    2c40:	0000041d 	andeq	r0, r0, sp, lsl r4
    2c44:	00250e01 	eoreq	r0, r5, r1, lsl #28
    2c48:	cd060000 	stcgt	0, cr0, [r6, #-0]
    2c4c:	02000000 	andeq	r0, r0, #0
    2c50:	02a606d7 	adceq	r0, r6, #225443840	; 0xd700000
    2c54:	65020000 	strvs	r0, [r2, #-0]
    2c58:	0001ad00 	andeq	sl, r1, r0, lsl #26
    2c5c:	73000400 	movwvc	r0, #1024	; 0x400
    2c60:	0400000d 	streq	r0, [r0], #-13
    2c64:	00007601 	andeq	r7, r0, r1, lsl #12
    2c68:	06370100 	ldrteq	r0, [r7], -r0, lsl #2
    2c6c:	04980000 	ldreq	r0, [r8], #0
    2c70:	00600000 	rsbeq	r0, r0, r0
    2c74:	00000000 	andeq	r0, r0, r0
    2c78:	0d560000 	ldcleq	0, cr0, [r6, #-0]
    2c7c:	04020000 	streq	r0, [r2], #-0
    2c80:	746e6905 	strbtvc	r6, [lr], #-2309	; 0x905
    2c84:	07040300 	streq	r0, [r4, -r0, lsl #6]
    2c88:	00000137 	andeq	r0, r0, r7, lsr r1
    2c8c:	e5060103 	str	r0, [r6, #-259]	; 0x103
    2c90:	03000000 	movweq	r0, #0
    2c94:	01640502 	cmneq	r4, r2, lsl #10
    2c98:	04030000 	streq	r0, [r3], #-0
    2c9c:	00015b05 	andeq	r5, r1, r5, lsl #22
    2ca0:	05080300 	streq	r0, [r8, #-768]	; 0x300
    2ca4:	00000156 	andeq	r0, r0, r6, asr r1
    2ca8:	e3080103 	movw	r0, #33027	; 0x8103
    2cac:	03000000 	movweq	r0, #0
    2cb0:	00f10702 	rscseq	r0, r1, r2, lsl #14
    2cb4:	04030000 	streq	r0, [r3], #-0
    2cb8:	00013207 	andeq	r3, r1, r7, lsl #4
    2cbc:	07080300 	streq	r0, [r8, -r0, lsl #6]
    2cc0:	0000012d 	andeq	r0, r0, sp, lsr #2
    2cc4:	4d070403 	cfstrsmi	mvf0, [r7, #-12]
    2cc8:	03000001 	movweq	r0, #1
    2ccc:	00ec0801 	rsceq	r0, ip, r1, lsl #16
    2cd0:	29040000 	stmdbcs	r4, {}	; <UNPREDICTABLE>
    2cd4:	01000006 	tsteq	r0, r6
    2cd8:	0000250e 	andeq	r2, r0, lr, lsl #10
    2cdc:	00948400 	addseq	r8, r4, r0, lsl #8
    2ce0:	00001800 	andeq	r1, r0, r0, lsl #16
    2ce4:	a29c0100 	addsge	r0, ip, #0, 2
    2ce8:	05000000 	streq	r0, [r0, #-0]
    2cec:	00000694 	muleq	r0, r4, r6
    2cf0:	002c0f01 	eoreq	r0, ip, r1, lsl #30
    2cf4:	121c0000 	andsne	r0, ip, #0
    2cf8:	06000000 	streq	r0, [r0], -r0
    2cfc:	0000066b 	andeq	r0, r0, fp, ror #12
    2d00:	949c1701 	ldrls	r1, [ip], #1793	; 0x701
    2d04:	00140000 	andseq	r0, r4, r0
    2d08:	9c010000 	stcls	0, cr0, [r1], {-0}
    2d0c:	000000c7 	andeq	r0, r0, r7, asr #1
    2d10:	00069405 	andeq	r9, r6, r5, lsl #8
    2d14:	2c180100 	ldfcss	f0, [r8], {-0}
    2d18:	3b000000 	blcc	2d20 <_start-0x52e0>
    2d1c:	00000012 	andeq	r0, r0, r2, lsl r0
    2d20:	0005f206 	andeq	pc, r5, r6, lsl #4
    2d24:	b01f0100 	andslt	r0, pc, r0, lsl #2
    2d28:	48000094 	stmdami	r0, {r2, r4, r7}
    2d2c:	01000000 	mrseq	r0, (UNDEF: 0)
    2d30:	0001779c 	muleq	r1, ip, r7
    2d34:	068c0700 	streq	r0, [ip], r0, lsl #14
    2d38:	2a010000 	bcs	42d40 <__bss_end__+0x38540>
    2d3c:	00000177 	andeq	r0, r0, r7, ror r1
    2d40:	2010001c 	andscs	r0, r0, ip, lsl r0
    2d44:	00066307 	andeq	r6, r6, r7, lsl #6
    2d48:	772b0100 	strvc	r0, [fp, -r0, lsl #2]!
    2d4c:	24000001 	strcs	r0, [r0], #-1
    2d50:	07201000 	streq	r1, [r0, -r0]!
    2d54:	00000680 	andeq	r0, r0, r0, lsl #13
    2d58:	01772c01 	cmneq	r7, r1, lsl #24
    2d5c:	00000000 	andeq	r0, r0, r0
    2d60:	4a085a00 	bmi	219568 <__bss_end__+0x20ed68>
    2d64:	01000006 	tsteq	r0, r6
    2d68:	0001772d 	andeq	r7, r1, sp, lsr #14
    2d6c:	b8092000 	stmdalt	r9, {sp}
    2d70:	79000094 	stmdbvc	r0, {r2, r4, r7}
    2d74:	09000000 	stmdbeq	r0, {}	; <UNPREDICTABLE>
    2d78:	000094c4 	andeq	r9, r0, r4, asr #9
    2d7c:	000000a2 	andeq	r0, r0, r2, lsr #1
    2d80:	0094cc0a 	addseq	ip, r4, sl, lsl #24
    2d84:	00018d00 	andeq	r8, r1, r0, lsl #26
    2d88:	00013a00 	andeq	r3, r1, r0, lsl #20
    2d8c:	50010b00 	andpl	r0, r1, r0, lsl #22
    2d90:	0a004e01 	beq	1659c <__bss_end__+0xbd9c>
    2d94:	000094d8 	ldrdeq	r9, [r0], -r8
    2d98:	0000019e 	muleq	r0, lr, r1
    2d9c:	0000015a 	andeq	r0, r0, sl, asr r1
    2da0:	0551010b 	ldrbeq	r0, [r1, #-267]	; 0x10b
    2da4:	0000010c 	andeq	r0, r0, ip, lsl #2
    2da8:	50010b5a 	andpl	r0, r1, sl, asr fp
    2dac:	00240c05 	eoreq	r0, r4, r5, lsl #24
    2db0:	0c002010 	stceq	0, cr2, [r0], {16}
    2db4:	000094e4 	andeq	r9, r0, r4, ror #9
    2db8:	0000019e 	muleq	r0, lr, r1
    2dbc:	0551010b 	ldrbeq	r0, [r1, #-267]	; 0x10b
    2dc0:	0000200c 	andeq	r2, r0, ip
    2dc4:	50010b5a 	andpl	r0, r1, sl, asr fp
    2dc8:	001c0c05 	andseq	r0, ip, r5, lsl #24
    2dcc:	00002010 	andeq	r2, r0, r0, lsl r0
    2dd0:	0000250d 	andeq	r2, r0, sp, lsl #10
    2dd4:	062c0800 	strteq	r0, [ip], -r0, lsl #16
    2dd8:	0d010000 	stceq	0, cr0, [r1, #-0]
    2ddc:	00000188 	andeq	r0, r0, r8, lsl #3
    2de0:	002c0d10 	eoreq	r0, ip, r0, lsl sp
    2de4:	fd0e0000 	stc2	0, cr0, [lr, #-0]
    2de8:	02000005 	andeq	r0, r0, #5
    2dec:	00019e4f 	andeq	r9, r1, pc, asr #28
    2df0:	002c0f00 	eoreq	r0, ip, r0, lsl #30
    2df4:	10000000 	andne	r0, r0, r0
    2df8:	0000067a 	andeq	r0, r0, sl, ror r6
    2dfc:	2c0f9b02 	stccs	11, cr9, [pc], {2}
    2e00:	0f000000 	svceq	0x00000000
    2e04:	0000002c 	andeq	r0, r0, ip, lsr #32
    2e08:	01d80000 	bicseq	r0, r8, r0
    2e0c:	00040000 	andeq	r0, r4, r0
    2e10:	00000e61 	andeq	r0, r0, r1, ror #28
    2e14:	00760104 	rsbseq	r0, r6, r4, lsl #2
    2e18:	b6010000 	strlt	r0, [r1], -r0
    2e1c:	98000006 	stmdals	r0, {r1, r2}
    2e20:	f8000004 			; <UNDEFINED> instruction: 0xf8000004
    2e24:	88000094 	stmdahi	r0, {r2, r4, r7}
    2e28:	fc000000 	stc2	0, cr0, [r0], {-0}
    2e2c:	0200000d 	andeq	r0, r0, #13
    2e30:	6e690504 	cdpvs	5, 6, cr0, cr9, cr4, {0}
    2e34:	04030074 	streq	r0, [r3], #-116	; 0x74
    2e38:	00013707 	andeq	r3, r1, r7, lsl #14
    2e3c:	06010300 	streq	r0, [r1], -r0, lsl #6
    2e40:	000000e5 	andeq	r0, r0, r5, ror #1
    2e44:	64050203 	strvs	r0, [r5], #-515	; 0x203
    2e48:	03000001 	movweq	r0, #1
    2e4c:	015b0504 	cmpeq	fp, r4, lsl #10
    2e50:	08030000 	stmdaeq	r3, {}	; <UNPREDICTABLE>
    2e54:	00015605 	andeq	r5, r1, r5, lsl #12
    2e58:	08010300 	stmdaeq	r1, {r8, r9}
    2e5c:	000000e3 	andeq	r0, r0, r3, ror #1
    2e60:	f1070203 			; <UNDEFINED> instruction: 0xf1070203
    2e64:	03000000 	movweq	r0, #0
    2e68:	01320704 	teqeq	r2, r4, lsl #14
    2e6c:	08030000 	stmdaeq	r3, {}	; <UNPREDICTABLE>
    2e70:	00012d07 	andeq	r2, r1, r7, lsl #26
    2e74:	07040300 	streq	r0, [r4, -r0, lsl #6]
    2e78:	0000014d 	andeq	r0, r0, sp, asr #2
    2e7c:	ec080103 	stfs	f0, [r8], {3}
    2e80:	04000000 	streq	r0, [r0], #-0
    2e84:	000006d4 	ldrdeq	r0, [r0], -r4
    2e88:	94f80501 	ldrbtls	r0, [r8], #1281	; 0x501
    2e8c:	001c0000 	andseq	r0, ip, r0
    2e90:	9c010000 	stcls	0, cr0, [r1], {-0}
    2e94:	0000009e 	muleq	r0, lr, r0
    2e98:	0006ce05 	andeq	ip, r6, r5, lsl #28
    2e9c:	2c050100 	stfcss	f0, [r5], {-0}
    2ea0:	65000000 	strvs	r0, [r0, #-0]
    2ea4:	00000012 	andeq	r0, r0, r2, lsl r0
    2ea8:	00069906 	andeq	r9, r6, r6, lsl #18
    2eac:	2c110100 	ldfcss	f0, [r1], {-0}
    2eb0:	14000000 	strne	r0, [r0], #-0
    2eb4:	14000095 	strne	r0, [r0], #-149	; 0x95
    2eb8:	01000000 	mrseq	r0, (UNDEF: 0)
    2ebc:	0000cb9c 	muleq	r0, ip, fp
    2ec0:	95200700 	strls	r0, [r0, #-1792]!	; 0x700
    2ec4:	01ca0000 	biceq	r0, sl, r0
    2ec8:	01080000 	mrseq	r0, (UNDEF: 8)
    2ecc:	040c0550 	streq	r0, [ip], #-1360	; 0x550
    2ed0:	00200030 	eoreq	r0, r0, r0, lsr r0
    2ed4:	06ea0600 	strbteq	r0, [sl], r0, lsl #12
    2ed8:	16010000 	strne	r0, [r1], -r0
    2edc:	0000002c 	andeq	r0, r0, ip, lsr #32
    2ee0:	00009528 	andeq	r9, r0, r8, lsr #10
    2ee4:	0000000c 	andeq	r0, r0, ip
    2ee8:	00f99c01 	rscseq	r9, r9, r1, lsl #24
    2eec:	75090000 	strvc	r0, [r9, #-0]
    2ef0:	2c1a0100 	ldfcss	f0, [sl], {-0}
    2ef4:	01000000 	mrseq	r0, (UNDEF: 0)
    2ef8:	95300a50 	ldrls	r0, [r0, #-2640]!	; 0xa50
    2efc:	009e0000 	addseq	r0, lr, r0
    2f00:	04000000 	streq	r0, [r0], #-0
    2f04:	000006e1 	andeq	r0, r0, r1, ror #13
    2f08:	95341f01 	ldrls	r1, [r4, #-3841]!	; 0xf01
    2f0c:	00240000 	eoreq	r0, r4, r0
    2f10:	9c010000 	stcls	0, cr0, [r1], {-0}
    2f14:	00000157 	andeq	r0, r0, r7, asr r1
    2f18:	0073750b 	rsbseq	r7, r3, fp, lsl #10
    2f1c:	002c1f01 	eoreq	r1, ip, r1, lsl #30
    2f20:	12990000 	addsne	r0, r9, #0
    2f24:	72090000 	andvc	r0, r9, #0
    2f28:	20010062 	andcs	r0, r1, r2, rrx
    2f2c:	0000002c 	andeq	r0, r0, ip, lsr #32
    2f30:	440c5401 	strmi	r5, [ip], #-1025	; 0x401
    2f34:	10000095 	mulne	r0, r5, r0
    2f38:	4d000000 	stcmi	0, cr0, [r0, #-0]
    2f3c:	0d000001 	stceq	0, cr0, [r0, #-4]
    2f40:	01006172 	tsteq	r0, r2, ror r1
    2f44:	00002c22 	andeq	r2, r0, r2, lsr #24
    2f48:	0012b700 	andseq	fp, r2, r0, lsl #14
    2f4c:	95480a00 	strbls	r0, [r8, #-2560]	; 0xa00
    2f50:	00cb0000 	sbceq	r0, fp, r0
    2f54:	0a000000 	beq	2f5c <_start-0x50a4>
    2f58:	00009540 	andeq	r9, r0, r0, asr #10
    2f5c:	000000cb 	andeq	r0, r0, fp, asr #1
    2f60:	05fd0400 	ldrbeq	r0, [sp, #1024]!	; 0x400
    2f64:	28010000 	stmdacs	r1, {}	; <UNPREDICTABLE>
    2f68:	00009558 	andeq	r9, r0, r8, asr r5
    2f6c:	00000014 	andeq	r0, r0, r4, lsl r0
    2f70:	01909c01 	orrseq	r9, r0, r1, lsl #24
    2f74:	6d0b0000 	stcvs	0, cr0, [fp, #-0]
    2f78:	28010073 	stmdacs	r1, {r0, r1, r4, r5, r6}
    2f7c:	0000002c 	andeq	r0, r0, ip, lsr #32
    2f80:	000012ca 	andeq	r1, r0, sl, asr #5
    2f84:	00956807 	addseq	r6, r5, r7, lsl #16
    2f88:	0000f900 	andeq	pc, r0, r0, lsl #18
    2f8c:	50010800 	andpl	r0, r1, r0, lsl #16
    2f90:	5001f307 	andpl	pc, r1, r7, lsl #6
    2f94:	1e03e80a 	cdpne	8, 0, cr14, cr3, cr10, {0}
    2f98:	ac040000 	stcge	0, cr0, [r4], {-0}
    2f9c:	01000006 	tsteq	r0, r6
    2fa0:	00956c2b 	addseq	r6, r5, fp, lsr #24
    2fa4:	00001400 	andeq	r1, r0, r0, lsl #8
    2fa8:	ca9c0100 	bgt	fe7033b0 <__bss_end__+0xfe6f8bb0>
    2fac:	0b000001 	bleq	2fb8 <_start-0x5048>
    2fb0:	00636573 	rsbeq	r6, r3, r3, ror r5
    2fb4:	002c2b01 	eoreq	r2, ip, r1, lsl #22
    2fb8:	12eb0000 	rscne	r0, fp, #0
    2fbc:	7c070000 	stcvc	0, cr0, [r7], {-0}
    2fc0:	57000095 			; <UNDEFINED> instruction: 0x57000095
    2fc4:	08000001 	stmdaeq	r0, {r0}
    2fc8:	f3075001 	vhadd.u8	d5, d7, d1
    2fcc:	e80a5001 	stmda	sl, {r0, ip, lr}
    2fd0:	00001e03 	andeq	r1, r0, r3, lsl #28
    2fd4:	0006c80e 	andeq	ip, r6, lr, lsl #16
    2fd8:	2ca70200 	sfmcs	f0, 4, [r7]
    2fdc:	0f000000 	svceq	0x00000000
    2fe0:	0000002c 	andeq	r0, r0, ip, lsr #32
    2fe4:	0cc50000 	stcleq	0, cr0, [r5], {0}
    2fe8:	00040000 	andeq	r0, r4, r0
    2fec:	00000f44 	andeq	r0, r0, r4, asr #30
    2ff0:	0a9b0104 	beq	fe6c3408 <__bss_end__+0xfe6b8c08>
    2ff4:	f20c0000 	vhadd.s8	d0, d12, d0
    2ff8:	0d000007 	stceq	0, cr0, [r0, #-28]	; 0xffffffe4
    2ffc:	cc000008 	stcgt	0, cr0, [r0], {8}
    3000:	78000095 	stmdavc	r0, {r0, r2, r4, r7}
    3004:	ac000001 	stcge	0, cr0, [r0], {1}
    3008:	0200000e 	andeq	r0, r0, #14
    300c:	6e690504 	cdpvs	5, 6, cr0, cr9, cr4, {0}
    3010:	04030074 	streq	r0, [r3], #-116	; 0x74
    3014:	00013707 	andeq	r3, r1, r7, lsl #14
    3018:	002c0400 	eoreq	r0, ip, r0, lsl #8
    301c:	01030000 	mrseq	r0, (UNDEF: 3)
    3020:	0000e506 	andeq	lr, r0, r6, lsl #10
    3024:	05020300 	streq	r0, [r2, #-768]	; 0x300
    3028:	00000164 	andeq	r0, r0, r4, ror #2
    302c:	5b050403 	blpl	144040 <__bss_end__+0x139840>
    3030:	03000001 	movweq	r0, #1
    3034:	01560508 	cmpeq	r6, r8, lsl #10
    3038:	01030000 	mrseq	r0, (UNDEF: 3)
    303c:	0000e308 	andeq	lr, r0, r8, lsl #6
    3040:	07020300 	streq	r0, [r2, -r0, lsl #6]
    3044:	000000f1 	strdeq	r0, [r0], -r1
    3048:	32070403 	andcc	r0, r7, #50331648	; 0x3000000
    304c:	03000001 	movweq	r0, #1
    3050:	012d0708 	teqeq	sp, r8, lsl #14
    3054:	b0050000 	andlt	r0, r5, r0
    3058:	02000009 	andeq	r0, r0, #9
    305c:	00002507 	andeq	r2, r0, r7, lsl #10
    3060:	099a0500 	ldmibeq	sl, {r8, sl}
    3064:	2c030000 	stccs	0, cr0, [r3], {-0}
    3068:	00000046 	andeq	r0, r0, r6, asr #32
    306c:	000a7605 	andeq	r7, sl, r5, lsl #12
    3070:	46720300 	ldrbtmi	r0, [r2], -r0, lsl #6
    3074:	06000000 	streq	r0, [r0], -r0
    3078:	0000093e 	andeq	r0, r0, lr, lsr r9
    307c:	2c016504 	cfstr32cs	mvfx6, [r1], {4}
    3080:	07000000 	streq	r0, [r0, -r0]
    3084:	bca60304 	stclt	3, cr0, [r6], #16
    3088:	08000000 	stmdaeq	r0, {}	; <UNPREDICTABLE>
    308c:	00000929 	andeq	r0, r0, r9, lsr #18
    3090:	0091a803 	addseq	sl, r1, r3, lsl #16
    3094:	c5080000 	strgt	r0, [r8, #-0]
    3098:	03000008 	movweq	r0, #8
    309c:	0000bca9 	andeq	fp, r0, r9, lsr #25
    30a0:	54090000 	strpl	r0, [r9], #-0
    30a4:	cc000000 	stcgt	0, cr0, [r0], {-0}
    30a8:	0a000000 	beq	30b0 <_start-0x4f50>
    30ac:	000000cc 	andeq	r0, r0, ip, asr #1
    30b0:	04030003 	streq	r0, [r3], #-3
    30b4:	00014d07 	andeq	r4, r1, r7, lsl #26
    30b8:	03080b00 	movweq	r0, #35584	; 0x8b00
    30bc:	0000f4a3 	andeq	pc, r0, r3, lsr #9
    30c0:	0a5b0c00 	beq	16c60c8 <__bss_end__+0x16bb8c8>
    30c4:	a5030000 	strge	r0, [r3, #-0]
    30c8:	00000025 	andeq	r0, r0, r5, lsr #32
    30cc:	0a630c00 	beq	18c60d4 <__bss_end__+0x18bb8d4>
    30d0:	aa030000 	bge	c30d8 <__bss_end__+0xb88d8>
    30d4:	0000009d 	muleq	r0, sp, r0
    30d8:	ee050004 	cdp	0, 0, cr0, cr5, cr4, {0}
    30dc:	03000009 	movweq	r0, #9
    30e0:	0000d3ab 	andeq	sp, r0, fp, lsr #7
    30e4:	088e0500 	stmeq	lr, {r8, sl}
    30e8:	af030000 	svcge	0x00030000
    30ec:	00000070 	andeq	r0, r0, r0, ror r0
    30f0:	040e040d 	streq	r0, [lr], #-1037	; 0x40d
    30f4:	00000112 	andeq	r0, r0, r2, lsl r1
    30f8:	ec080103 	stfs	f0, [r8], {3}
    30fc:	0f000000 	svceq	0x00000000
    3100:	00000112 	andeq	r0, r0, r2, lsl r1
    3104:	000b1805 	andeq	r1, fp, r5, lsl #16
    3108:	62160500 	andsvs	r0, r6, #0, 10
    310c:	10000000 	andne	r0, r0, r0
    3110:	0000089f 	muleq	r0, pc, r8	; <UNPREDICTABLE>
    3114:	7c2d0518 	cfstr32vc	mvfx0, [sp], #-96	; 0xffffffa0
    3118:	0c000001 	stceq	0, cr0, [r0], {1}
    311c:	00000a0f 	andeq	r0, r0, pc, lsl #20
    3120:	017c2f05 	cmneq	ip, r5, lsl #30
    3124:	11000000 	mrsne	r0, (UNDEF: 0)
    3128:	05006b5f 	streq	r6, [r0, #-2911]	; 0xb5f
    312c:	00002530 	andeq	r2, r0, r0, lsr r5
    3130:	460c0400 	strmi	r0, [ip], -r0, lsl #8
    3134:	0500000a 	streq	r0, [r0, #-10]
    3138:	00002530 	andeq	r2, r0, r0, lsr r5
    313c:	7a0c0800 	bvc	305144 <__bss_end__+0x2fa944>
    3140:	05000008 	streq	r0, [r0, #-8]
    3144:	00002530 	andeq	r2, r0, r0, lsr r5
    3148:	5f0c0c00 	svcpl	0x000c0c00
    314c:	0500000b 	streq	r0, [r0, #-11]
    3150:	00002530 	andeq	r2, r0, r0, lsr r5
    3154:	5f111000 	svcpl	0x00111000
    3158:	31050078 	tstcc	r5, r8, ror r0
    315c:	00000182 	andeq	r0, r0, r2, lsl #3
    3160:	040e0014 	streq	r0, [lr], #-20
    3164:	00000129 	andeq	r0, r0, r9, lsr #2
    3168:	00011e09 	andeq	r1, r1, r9, lsl #28
    316c:	00019200 	andeq	r9, r1, r0, lsl #4
    3170:	00cc0a00 	sbceq	r0, ip, r0, lsl #20
    3174:	00000000 	andeq	r0, r0, r0
    3178:	0008c010 	andeq	ip, r8, r0, lsl r0
    317c:	35052400 	strcc	r2, [r5, #-1024]	; 0x400
    3180:	0000020b 	andeq	r0, r0, fp, lsl #4
    3184:	0007780c 	andeq	r7, r7, ip, lsl #16
    3188:	25370500 	ldrcs	r0, [r7, #-1280]!	; 0x500
    318c:	00000000 	andeq	r0, r0, r0
    3190:	000a7e0c 	andeq	r7, sl, ip, lsl #28
    3194:	25380500 	ldrcs	r0, [r8, #-1280]!	; 0x500
    3198:	04000000 	streq	r0, [r0], #-0
    319c:	0007a60c 	andeq	sl, r7, ip, lsl #12
    31a0:	25390500 	ldrcs	r0, [r9, #-1280]!	; 0x500
    31a4:	08000000 	stmdaeq	r0, {}	; <UNPREDICTABLE>
    31a8:	000c4f0c 	andeq	r4, ip, ip, lsl #30
    31ac:	253a0500 	ldrcs	r0, [sl, #-1280]!	; 0x500
    31b0:	0c000000 	stceq	0, cr0, [r0], {-0}
    31b4:	00097e0c 	andeq	r7, r9, ip, lsl #28
    31b8:	253b0500 	ldrcs	r0, [fp, #-1280]!	; 0x500
    31bc:	10000000 	andne	r0, r0, r0
    31c0:	0009530c 	andeq	r5, r9, ip, lsl #6
    31c4:	253c0500 	ldrcs	r0, [ip, #-1280]!	; 0x500
    31c8:	14000000 	strne	r0, [r0], #-0
    31cc:	000b640c 	andeq	r6, fp, ip, lsl #8
    31d0:	253d0500 	ldrcs	r0, [sp, #-1280]!	; 0x500
    31d4:	18000000 	stmdane	r0, {}	; <UNPREDICTABLE>
    31d8:	0009d00c 	andeq	sp, r9, ip
    31dc:	253e0500 	ldrcs	r0, [lr, #-1280]!	; 0x500
    31e0:	1c000000 	stcne	0, cr0, [r0], {-0}
    31e4:	000c160c 	andeq	r1, ip, ip, lsl #12
    31e8:	253f0500 	ldrcs	r0, [pc, #-1280]!	; 2cf0 <_start-0x5310>
    31ec:	20000000 	andcs	r0, r0, r0
    31f0:	07b51200 	ldreq	r1, [r5, r0, lsl #4]!
    31f4:	01080000 	mrseq	r0, (UNDEF: 8)
    31f8:	024b4805 	subeq	r4, fp, #327680	; 0x50000
    31fc:	610c0000 	mrsvs	r0, (UNDEF: 12)
    3200:	05000008 	streq	r0, [r0, #-8]
    3204:	00024b49 	andeq	r4, r2, r9, asr #22
    3208:	f90c0000 			; <UNDEFINED> instruction: 0xf90c0000
    320c:	05000006 	streq	r0, [r0, #-6]
    3210:	00024b4a 	andeq	r4, r2, sl, asr #22
    3214:	0a138000 	beq	4e321c <__bss_end__+0x4d8a1c>
    3218:	0500000b 	streq	r0, [r0, #-11]
    321c:	00011e4c 	andeq	r1, r1, ip, asr #28
    3220:	13010000 	movwne	r0, #4096	; 0x1000
    3224:	000007da 	ldrdeq	r0, [r0], -sl
    3228:	011e4f05 	tsteq	lr, r5, lsl #30
    322c:	01040000 	mrseq	r0, (UNDEF: 4)
    3230:	010a0900 	tsteq	sl, r0, lsl #18
    3234:	025b0000 	subseq	r0, fp, #0
    3238:	cc0a0000 	stcgt	0, cr0, [sl], {-0}
    323c:	1f000000 	svcne	0x00000000
    3240:	09871200 	stmibeq	r7, {r9, ip}
    3244:	01900000 	orrseq	r0, r0, r0
    3248:	02995b05 	addseq	r5, r9, #5120	; 0x1400
    324c:	0f0c0000 	svceq	0x000c0000
    3250:	0500000a 	streq	r0, [r0, #-10]
    3254:	0002995c 	andeq	r9, r2, ip, asr r9
    3258:	270c0000 	strcs	r0, [ip, -r0]
    325c:	0500000a 	streq	r0, [r0, #-10]
    3260:	0000255d 	andeq	r2, r0, sp, asr r5
    3264:	750c0400 	strvc	r0, [ip, #-1024]	; 0x400
    3268:	05000008 	streq	r0, [r0, #-8]
    326c:	00029f5f 	andeq	r9, r2, pc, asr pc
    3270:	b50c0800 	strlt	r0, [ip, #-2048]	; 0x800
    3274:	05000007 	streq	r0, [r0, #-7]
    3278:	00020b60 	andeq	r0, r2, r0, ror #22
    327c:	0e008800 	cdpeq	8, 0, cr8, cr0, cr0, {0}
    3280:	00025b04 	andeq	r5, r2, r4, lsl #22
    3284:	02af0900 	adceq	r0, pc, #0, 18
    3288:	02af0000 	adceq	r0, pc, #0
    328c:	cc0a0000 	stcgt	0, cr0, [sl], {-0}
    3290:	1f000000 	svcne	0x00000000
    3294:	b5040e00 	strlt	r0, [r4, #-3584]	; 0xe00
    3298:	14000002 	strne	r0, [r0], #-2
    329c:	0009da10 	andeq	sp, r9, r0, lsl sl
    32a0:	73050800 	movwvc	r0, #22528	; 0x5800
    32a4:	000002db 	ldrdeq	r0, [r0], -fp
    32a8:	00079b0c 	andeq	r9, r7, ip, lsl #22
    32ac:	db740500 	blle	1d046b4 <__bss_end__+0x1cf9eb4>
    32b0:	00000002 	andeq	r0, r0, r2
    32b4:	0001dc0c 	andeq	sp, r1, ip, lsl #24
    32b8:	25750500 	ldrbcs	r0, [r5, #-1280]!	; 0x500
    32bc:	04000000 	streq	r0, [r0], #-0
    32c0:	54040e00 	strpl	r0, [r4], #-3584	; 0xe00
    32c4:	10000000 	andne	r0, r0, r0
    32c8:	000009f9 	strdeq	r0, [r0], -r9
    32cc:	0bb30568 	bleq	fecc4874 <__bss_end__+0xfecba074>
    32d0:	11000004 	tstne	r0, r4
    32d4:	0500705f 	streq	r7, [r0, #-95]	; 0x5f
    32d8:	0002dbb4 			; <UNDEFINED> instruction: 0x0002dbb4
    32dc:	5f110000 	svcpl	0x00110000
    32e0:	b5050072 	strlt	r0, [r5, #-114]	; 0x72
    32e4:	00000025 	andeq	r0, r0, r5, lsr #32
    32e8:	775f1104 	ldrbvc	r1, [pc, -r4, lsl #2]
    32ec:	25b60500 	ldrcs	r0, [r6, #1280]!	; 0x500
    32f0:	08000000 	stmdaeq	r0, {}	; <UNPREDICTABLE>
    32f4:	0007d30c 	andeq	sp, r7, ip, lsl #6
    32f8:	3fb70500 	svccc	0x00b70500
    32fc:	0c000000 	stceq	0, cr0, [r0], {-0}
    3300:	0008e60c 	andeq	lr, r8, ip, lsl #12
    3304:	3fb80500 	svccc	0x00b80500
    3308:	0e000000 	cdpeq	0, 0, cr0, cr0, cr0, {0}
    330c:	66625f11 	uqadd16vs	r5, r2, r1
    3310:	b6b90500 	ldrtlt	r0, [r9], r0, lsl #10
    3314:	10000002 	andne	r0, r0, r2
    3318:	0007420c 	andeq	r4, r7, ip, lsl #4
    331c:	25ba0500 	ldrcs	r0, [sl, #1280]!	; 0x500
    3320:	18000000 	stmdane	r0, {}	; <UNPREDICTABLE>
    3324:	0007c30c 	andeq	ip, r7, ip, lsl #6
    3328:	0ac10500 	beq	ff044730 <__bss_end__+0xff039f30>
    332c:	1c000001 	stcne	0, cr0, [r0], {1}
    3330:	000c760c 	andeq	r7, ip, ip, lsl #12
    3334:	66c30500 	strbvs	r0, [r3], r0, lsl #10
    3338:	20000005 	andcs	r0, r0, r5
    333c:	000c900c 	andeq	r9, ip, ip
    3340:	90c50500 	sbcls	r0, r5, r0, lsl #10
    3344:	24000005 	strcs	r0, [r0], #-5
    3348:	000a6b0c 	andeq	r6, sl, ip, lsl #22
    334c:	b4c80500 	strblt	r0, [r8], #1280	; 0x500
    3350:	28000005 	stmdacs	r0, {r0, r2}
    3354:	000c300c 	andeq	r3, ip, ip
    3358:	cec90500 	cdpgt	5, 12, cr0, cr9, cr0, {0}
    335c:	2c000005 	stccs	0, cr0, [r0], {5}
    3360:	62755f11 	rsbsvs	r5, r5, #17, 30	; 0x44
    3364:	b6cc0500 	strblt	r0, [ip], r0, lsl #10
    3368:	30000002 	andcc	r0, r0, r2
    336c:	70755f11 	rsbsvc	r5, r5, r1, lsl pc
    3370:	dbcd0500 	blle	ff344778 <__bss_end__+0xff339f78>
    3374:	38000002 	stmdacc	r0, {r1}
    3378:	72755f11 	rsbsvc	r5, r5, #17, 30	; 0x44
    337c:	25ce0500 	strbcs	r0, [lr, #1280]	; 0x500
    3380:	3c000000 	stccc	0, cr0, [r0], {-0}
    3384:	0007860c 	andeq	r8, r7, ip, lsl #12
    3388:	d4d10500 	ldrble	r0, [r1], #1280	; 0x500
    338c:	40000005 	andmi	r0, r0, r5
    3390:	000bdb0c 	andeq	sp, fp, ip, lsl #22
    3394:	e4d20500 	ldrb	r0, [r2], #1280	; 0x500
    3398:	43000005 	movwmi	r0, #5
    339c:	626c5f11 	rsbvs	r5, ip, #17, 30	; 0x44
    33a0:	b6d50500 	ldrblt	r0, [r5], r0, lsl #10
    33a4:	44000002 	strmi	r0, [r0], #-2
    33a8:	0007e90c 	andeq	lr, r7, ip, lsl #18
    33ac:	25d80500 	ldrbcs	r0, [r8, #1280]	; 0x500
    33b0:	4c000000 	stcmi	0, cr0, [r0], {-0}
    33b4:	00095d0c 	andeq	r5, r9, ip, lsl #26
    33b8:	7bd90500 	blvc	ff6447c0 <__bss_end__+0xff639fc0>
    33bc:	50000000 	andpl	r0, r0, r0
    33c0:	000bc60c 	andeq	ip, fp, ip, lsl #12
    33c4:	29dc0500 	ldmibcs	ip, {r8, sl}^
    33c8:	54000004 	strpl	r0, [r0], #-4
    33cc:	0009450c 	andeq	r4, r9, ip, lsl #10
    33d0:	ffe00500 			; <UNDEFINED> instruction: 0xffe00500
    33d4:	58000000 	stmdapl	r0, {}	; <UNPREDICTABLE>
    33d8:	000a010c 	andeq	r0, sl, ip, lsl #2
    33dc:	f4e20500 	vld2.16	{d16[0],d17[0]}, [r2], r0
    33e0:	5c000000 	stcpl	0, cr0, [r0], {-0}
    33e4:	00094b0c 	andeq	r4, r9, ip, lsl #22
    33e8:	25e30500 	strbcs	r0, [r3, #1280]!	; 0x500
    33ec:	64000000 	strvs	r0, [r0], #-0
    33f0:	00251500 	eoreq	r1, r5, r0, lsl #10
    33f4:	04290000 	strteq	r0, [r9], #-0
    33f8:	29160000 	ldmdbcs	r6, {}	; <UNPREDICTABLE>
    33fc:	16000004 	strne	r0, [r0], -r4
    3400:	0000010a 	andeq	r0, r0, sl, lsl #2
    3404:	00010c16 	andeq	r0, r1, r6, lsl ip
    3408:	00251600 	eoreq	r1, r5, r0, lsl #12
    340c:	0e000000 	cdpeq	0, 0, cr0, cr0, cr0, {0}
    3410:	00043404 	andeq	r3, r4, r4, lsl #8
    3414:	04290f00 	strteq	r0, [r9], #-3840	; 0xf00
    3418:	4e170000 	cdpmi	0, 1, cr0, cr7, cr0, {0}
    341c:	2800000a 	stmdacs	r0, {r1, r3}
    3420:	02380504 	eorseq	r0, r8, #4, 10	; 0x1000000
    3424:	00000566 	andeq	r0, r0, r6, ror #10
    3428:	0009c918 	andeq	ip, r9, r8, lsl r9
    342c:	023a0500 	eorseq	r0, sl, #0, 10
    3430:	00000025 	andeq	r0, r0, r5, lsr #32
    3434:	07e21800 	strbeq	r1, [r2, r0, lsl #16]!
    3438:	3f050000 	svccc	0x00050000
    343c:	00063b02 	andeq	r3, r6, r2, lsl #22
    3440:	d6180400 	ldrle	r0, [r8], -r0, lsl #8
    3444:	05000008 	streq	r0, [r0, #-8]
    3448:	063b023f 			; <UNDEFINED> instruction: 0x063b023f
    344c:	18080000 	stmdane	r8, {}	; <UNPREDICTABLE>
    3450:	00000897 	muleq	r0, r7, r8
    3454:	3b023f05 	blcc	93070 <__bss_end__+0x88870>
    3458:	0c000006 	stceq	0, cr0, [r0], {6}
    345c:	000a2218 	andeq	r2, sl, r8, lsl r2
    3460:	02410500 	subeq	r0, r1, #0, 10
    3464:	00000025 	andeq	r0, r0, r5, lsr #32
    3468:	070d1810 	smladeq	sp, r0, r8, r1
    346c:	42050000 	andmi	r0, r5, #0
    3470:	00081d02 	andeq	r1, r8, r2, lsl #26
    3474:	40181400 	andsmi	r1, r8, r0, lsl #8
    3478:	0500000b 	streq	r0, [r0, #-11]
    347c:	00250244 	eoreq	r0, r5, r4, asr #4
    3480:	18300000 	ldmdane	r0!, {}	; <UNPREDICTABLE>
    3484:	00000a2c 	andeq	r0, r0, ip, lsr #20
    3488:	8a024505 	bhi	948a4 <__bss_end__+0x8a0a4>
    348c:	34000005 	strcc	r0, [r0], #-5
    3490:	00098f18 	andeq	r8, r9, r8, lsl pc
    3494:	02470500 	subeq	r0, r7, #0, 10
    3498:	00000025 	andeq	r0, r0, r5, lsr #32
    349c:	0a3c1838 	beq	f09584 <__bss_end__+0xefed84>
    34a0:	49050000 	stmdbmi	r5, {}	; <UNPREDICTABLE>
    34a4:	00083802 	andeq	r3, r8, r2, lsl #16
    34a8:	21183c00 	tstcs	r8, r0, lsl #24
    34ac:	05000009 	streq	r0, [r0, #-9]
    34b0:	017c024c 	cmneq	ip, ip, asr #4
    34b4:	18400000 	stmdane	r0, {}^	; <UNPREDICTABLE>
    34b8:	000008b6 			; <UNDEFINED> instruction: 0x000008b6
    34bc:	25024d05 	strcs	r4, [r2, #-3333]	; 0xd05
    34c0:	44000000 	strmi	r0, [r0], #-0
    34c4:	000c4a18 	andeq	r4, ip, r8, lsl sl
    34c8:	024e0500 	subeq	r0, lr, #0, 10
    34cc:	0000017c 	andeq	r0, r0, ip, ror r1
    34d0:	09a61848 	stmibeq	r6!, {r3, r6, fp, ip}
    34d4:	4f050000 	svcmi	0x00050000
    34d8:	00083e02 	andeq	r3, r8, r2, lsl #28
    34dc:	de184c00 	cdple	12, 1, cr4, cr8, cr0, {0}
    34e0:	05000008 	streq	r0, [r0, #-8]
    34e4:	00250252 	eoreq	r0, r5, r2, asr r2
    34e8:	18500000 	ldmdane	r0, {}^	; <UNPREDICTABLE>
    34ec:	00000805 	andeq	r0, r0, r5, lsl #16
    34f0:	0c025305 	stceq	3, cr5, [r2], {5}
    34f4:	54000001 	strpl	r0, [r0], #-1
    34f8:	0009c218 	andeq	ip, r9, r8, lsl r2
    34fc:	02760500 	rsbseq	r0, r6, #0, 10
    3500:	000007fb 	strdeq	r0, [r0], -fp
    3504:	09871958 	stmibeq	r7, {r3, r4, r6, r8, fp, ip}
    3508:	7a050000 	bvc	143510 <__bss_end__+0x138d10>
    350c:	00029902 	andeq	r9, r2, r2, lsl #18
    3510:	19014800 	stmdbne	r1, {fp, lr}
    3514:	000008f3 	strdeq	r0, [r0], -r3
    3518:	5b027b05 	blpl	a2134 <__bss_end__+0x97934>
    351c:	4c000002 	stcmi	0, cr0, [r0], {2}
    3520:	0bac1901 	bleq	feb0992c <__bss_end__+0xfeaff12c>
    3524:	7f050000 	svcvc	0x00050000
    3528:	00084f02 	andeq	r4, r8, r2, lsl #30
    352c:	1902dc00 	stmdbne	r2, {sl, fp, ip, lr, pc}
    3530:	000007cb 	andeq	r0, r0, fp, asr #15
    3534:	00028405 	andeq	r8, r2, r5, lsl #8
    3538:	e0000006 	and	r0, r0, r6
    353c:	07b01902 	ldreq	r1, [r0, r2, lsl #18]!
    3540:	85050000 	strhi	r0, [r5, #-0]
    3544:	00085b02 	andeq	r5, r8, r2, lsl #22
    3548:	0002ec00 	andeq	lr, r2, r0, lsl #24
    354c:	040b040e 	streq	r0, [fp], #-1038	; 0x40e
    3550:	25150000 	ldrcs	r0, [r5, #-0]
    3554:	8a000000 	bhi	355c <_start-0x4aa4>
    3558:	16000005 	strne	r0, [r0], -r5
    355c:	00000429 	andeq	r0, r0, r9, lsr #8
    3560:	00010a16 	andeq	r0, r1, r6, lsl sl
    3564:	058a1600 	streq	r1, [sl, #1536]	; 0x600
    3568:	25160000 	ldrcs	r0, [r6, #-0]
    356c:	00000000 	andeq	r0, r0, r0
    3570:	0119040e 	tsteq	r9, lr, lsl #8
    3574:	040e0000 	streq	r0, [lr], #-0
    3578:	0000056c 	andeq	r0, r0, ip, ror #10
    357c:	00008615 	andeq	r8, r0, r5, lsl r6
    3580:	0005b400 	andeq	fp, r5, r0, lsl #8
    3584:	04291600 	strteq	r1, [r9], #-1536	; 0x600
    3588:	0a160000 	beq	583590 <__bss_end__+0x578d90>
    358c:	16000001 	strne	r0, [r0], -r1
    3590:	00000086 	andeq	r0, r0, r6, lsl #1
    3594:	00002516 	andeq	r2, r0, r6, lsl r5
    3598:	040e0000 	streq	r0, [lr], #-0
    359c:	00000596 	muleq	r0, r6, r5
    35a0:	00002515 	andeq	r2, r0, r5, lsl r5
    35a4:	0005ce00 	andeq	ip, r5, r0, lsl #28
    35a8:	04291600 	strteq	r1, [r9], #-1536	; 0x600
    35ac:	0a160000 	beq	5835b4 <__bss_end__+0x578db4>
    35b0:	00000001 	andeq	r0, r0, r1
    35b4:	05ba040e 	ldreq	r0, [sl, #1038]!	; 0x40e
    35b8:	54090000 	strpl	r0, [r9], #-0
    35bc:	e4000000 	str	r0, [r0], #-0
    35c0:	0a000005 	beq	35dc <_start-0x4a24>
    35c4:	000000cc 	andeq	r0, r0, ip, asr #1
    35c8:	54090002 	strpl	r0, [r9], #-2
    35cc:	f4000000 	vst4.8	{d0-d3}, [r0], r0
    35d0:	0a000005 	beq	35ec <_start-0x4a14>
    35d4:	000000cc 	andeq	r0, r0, ip, asr #1
    35d8:	e7060000 	str	r0, [r6, -r0]
    35dc:	05000009 	streq	r0, [r0, #-9]
    35e0:	02e1011d 	rsceq	r0, r1, #1073741831	; 0x40000007
    35e4:	6e1a0000 	cdpvs	0, 1, cr0, cr10, cr0, {0}
    35e8:	0c00000b 	stceq	0, cr0, [r0], {11}
    35ec:	35012105 	strcc	r2, [r1, #-261]	; 0x105
    35f0:	18000006 	stmdane	r0, {r1, r2}
    35f4:	00000a0f 	andeq	r0, r0, pc, lsl #20
    35f8:	35012305 	strcc	r2, [r1, #-773]	; 0x305
    35fc:	00000006 	andeq	r0, r0, r6
    3600:	0008ec18 	andeq	lr, r8, r8, lsl ip
    3604:	01240500 	teqeq	r4, r0, lsl #10
    3608:	00000025 	andeq	r0, r0, r5, lsr #32
    360c:	09e11804 	stmibeq	r1!, {r2, fp, ip}^
    3610:	25050000 	strcs	r0, [r5, #-0]
    3614:	00063b01 	andeq	r3, r6, r1, lsl #22
    3618:	0e000800 	cdpeq	8, 0, cr0, cr0, cr0, {0}
    361c:	00060004 	andeq	r0, r6, r4
    3620:	f4040e00 			; <UNDEFINED> instruction: 0xf4040e00
    3624:	1a000005 	bne	3640 <_start-0x49c0>
    3628:	00000705 	andeq	r0, r0, r5, lsl #14
    362c:	013d050e 	teqeq	sp, lr, lsl #10
    3630:	00000676 	andeq	r0, r0, r6, ror r6
    3634:	000a5518 	andeq	r5, sl, r8, lsl r5
    3638:	013e0500 	teqeq	lr, r0, lsl #10
    363c:	00000676 	andeq	r0, r0, r6, ror r6
    3640:	0a8f1800 	beq	fe3c9648 <__bss_end__+0xfe3bee48>
    3644:	3f050000 	svccc	0x00050000
    3648:	00067601 	andeq	r7, r6, r1, lsl #12
    364c:	13180600 	tstne	r8, #0, 12
    3650:	0500000b 	streq	r0, [r0, #-11]
    3654:	005b0140 	subseq	r0, fp, r0, asr #2
    3658:	000c0000 	andeq	r0, ip, r0
    365c:	00005b09 	andeq	r5, r0, r9, lsl #22
    3660:	00068600 	andeq	r8, r6, r0, lsl #12
    3664:	00cc0a00 	sbceq	r0, ip, r0, lsl #20
    3668:	00020000 	andeq	r0, r2, r0
    366c:	5705d01b 	smladpl	r5, fp, r0, sp
    3670:	00078702 	andeq	r8, r7, r2, lsl #14
    3674:	0b521800 	bleq	148967c <__bss_end__+0x147ee7c>
    3678:	59050000 	stmdbpl	r5, {}	; <UNPREDICTABLE>
    367c:	00002c02 	andeq	r2, r0, r2, lsl #24
    3680:	fd180000 	ldc2	0, cr0, [r8, #-0]
    3684:	0500000a 	streq	r0, [r0, #-10]
    3688:	010c025a 	tsteq	ip, sl, asr r2
    368c:	18040000 	stmdane	r4, {}	; <UNPREDICTABLE>
    3690:	00000908 	andeq	r0, r0, r8, lsl #18
    3694:	87025b05 	strhi	r5, [r2, -r5, lsl #22]
    3698:	08000007 	stmdaeq	r0, {r0, r1, r2}
    369c:	000c2118 	andeq	r2, ip, r8, lsl r1
    36a0:	025c0500 	subseq	r0, ip, #0, 10
    36a4:	00000192 	muleq	r0, r2, r1
    36a8:	08a71824 	stmiaeq	r7!, {r2, r5, fp, ip}
    36ac:	5d050000 	stcpl	0, cr0, [r5, #-0]
    36b0:	00002502 	andeq	r2, r0, r2, lsl #10
    36b4:	0a184800 	beq	6156bc <__bss_end__+0x60aebc>
    36b8:	0500000a 	streq	r0, [r0, #-10]
    36bc:	0069025e 	rsbeq	r0, r9, lr, asr r2
    36c0:	18500000 	ldmdane	r0, {}^	; <UNPREDICTABLE>
    36c4:	00000c37 	andeq	r0, r0, r7, lsr ip
    36c8:	41025f05 	tstmi	r2, r5, lsl #30
    36cc:	58000006 	stmdapl	r0, {r1, r2}
    36d0:	000a1518 	andeq	r1, sl, r8, lsl r5
    36d4:	02600500 	rsbeq	r0, r0, #0, 10
    36d8:	000000f4 	strdeq	r0, [r0], -r4
    36dc:	0c3c1868 	ldceq	8, cr1, [ip], #-416	; 0xfffffe60
    36e0:	61050000 	mrsvs	r0, (UNDEF: 5)
    36e4:	0000f402 	andeq	pc, r0, r2, lsl #8
    36e8:	6a187000 	bvs	61f6f0 <__bss_end__+0x614ef0>
    36ec:	05000007 	streq	r0, [r0, #-7]
    36f0:	00f40262 	rscseq	r0, r4, r2, ror #4
    36f4:	18780000 	ldmdane	r8!, {}^	; <UNPREDICTABLE>
    36f8:	00000b8e 	andeq	r0, r0, lr, lsl #23
    36fc:	97026305 	strls	r6, [r2, -r5, lsl #6]
    3700:	80000007 	andhi	r0, r0, r7
    3704:	0008fc18 	andeq	pc, r8, r8, lsl ip	; <UNPREDICTABLE>
    3708:	02640500 	rsbeq	r0, r4, #0, 10
    370c:	000007a7 	andeq	r0, r0, r7, lsr #15
    3710:	0b201888 	bleq	809938 <__bss_end__+0x7ff138>
    3714:	65050000 	strvs	r0, [r5, #-0]
    3718:	00002502 	andeq	r2, r0, r2, lsl #10
    371c:	5318a000 	tstpl	r8, #0
    3720:	05000008 	streq	r0, [r0, #-8]
    3724:	00f40266 	rscseq	r0, r4, r6, ror #4
    3728:	18a40000 	stmiane	r4!, {}	; <UNPREDICTABLE>
    372c:	0000075b 	andeq	r0, r0, fp, asr r7
    3730:	f4026705 	vst1.8	{d6}, [r2], r5
    3734:	ac000000 	stcge	0, cr0, [r0], {-0}
    3738:	00084218 	andeq	r4, r8, r8, lsl r2
    373c:	02680500 	rsbeq	r0, r8, #0, 10
    3740:	000000f4 	strdeq	r0, [r0], -r4
    3744:	072218b4 			; <UNDEFINED> instruction: 0x072218b4
    3748:	69050000 	stmdbvs	r5, {}	; <UNPREDICTABLE>
    374c:	0000f402 	andeq	pc, r0, r2, lsl #8
    3750:	3118bc00 	tstcc	r8, r0, lsl #24
    3754:	05000007 	streq	r0, [r0, #-7]
    3758:	00f4026a 	rscseq	r0, r4, sl, ror #4
    375c:	18c40000 	stmiane	r4, {}^	; <UNPREDICTABLE>
    3760:	000009c7 	andeq	r0, r0, r7, asr #19
    3764:	25026b05 	strcs	r6, [r2, #-2821]	; 0xb05
    3768:	cc000000 	stcgt	0, cr0, [r0], {-0}
    376c:	01120900 	tsteq	r2, r0, lsl #18
    3770:	07970000 	ldreq	r0, [r7, r0]
    3774:	cc0a0000 	stcgt	0, cr0, [sl], {-0}
    3778:	19000000 	stmdbne	r0, {}	; <UNPREDICTABLE>
    377c:	01120900 	tsteq	r2, r0, lsl #18
    3780:	07a70000 	streq	r0, [r7, r0]!
    3784:	cc0a0000 	stcgt	0, cr0, [sl], {-0}
    3788:	07000000 	streq	r0, [r0, -r0]
    378c:	01120900 	tsteq	r2, r0, lsl #18
    3790:	07b70000 	ldreq	r0, [r7, r0]!
    3794:	cc0a0000 	stcgt	0, cr0, [sl], {-0}
    3798:	17000000 	strne	r0, [r0, -r0]
    379c:	05f01b00 	ldrbeq	r1, [r0, #2816]!	; 0xb00
    37a0:	07db0270 			; <UNDEFINED> instruction: 0x07db0270
    37a4:	77180000 	ldrvc	r0, [r8, -r0]
    37a8:	05000009 	streq	r0, [r0, #-9]
    37ac:	07db0273 			; <UNDEFINED> instruction: 0x07db0273
    37b0:	18000000 	stmdane	r0, {}	; <UNPREDICTABLE>
    37b4:	00000b85 	andeq	r0, r0, r5, lsl #23
    37b8:	eb027405 	bl	a07d4 <__bss_end__+0x95fd4>
    37bc:	78000007 	stmdavc	r0, {r0, r1, r2}
    37c0:	02db0900 	sbcseq	r0, fp, #0, 18
    37c4:	07eb0000 	strbeq	r0, [fp, r0]!
    37c8:	cc0a0000 	stcgt	0, cr0, [sl], {-0}
    37cc:	1d000000 	stcne	0, cr0, [r0, #-0]
    37d0:	002c0900 	eoreq	r0, ip, r0, lsl #18
    37d4:	07fb0000 	ldrbeq	r0, [fp, r0]!
    37d8:	cc0a0000 	stcgt	0, cr0, [sl], {-0}
    37dc:	1d000000 	stcne	0, cr0, [r0, #-0]
    37e0:	05f01c00 	ldrbeq	r1, [r0, #3072]!	; 0xc00
    37e4:	081d0255 	ldmdaeq	sp, {r0, r2, r4, r6, r9}
    37e8:	4e1d0000 	cdpmi	0, 1, cr0, cr13, cr0, {0}
    37ec:	0500000a 	streq	r0, [r0, #-10]
    37f0:	0686026c 	streq	r0, [r6], ip, ror #4
    37f4:	e11d0000 	tst	sp, r0
    37f8:	0500000b 	streq	r0, [r0, #-11]
    37fc:	07b70275 			; <UNDEFINED> instruction: 0x07b70275
    3800:	09000000 	stmdbeq	r0, {}	; <UNPREDICTABLE>
    3804:	00000112 	andeq	r0, r0, r2, lsl r1
    3808:	0000082d 	andeq	r0, r0, sp, lsr #16
    380c:	0000cc0a 	andeq	ip, r0, sl, lsl #24
    3810:	1e001800 	cdpne	8, 0, cr1, cr0, cr0, {0}
    3814:	00000838 	andeq	r0, r0, r8, lsr r8
    3818:	00042916 	andeq	r2, r4, r6, lsl r9
    381c:	040e0000 	streq	r0, [lr], #-0
    3820:	0000082d 	andeq	r0, r0, sp, lsr #16
    3824:	017c040e 	cmneq	ip, lr, lsl #8
    3828:	4f1e0000 	svcmi	0x001e0000
    382c:	16000008 	strne	r0, [r0], -r8
    3830:	00000025 	andeq	r0, r0, r5, lsr #32
    3834:	55040e00 	strpl	r0, [r4, #-3584]	; 0xe00
    3838:	0e000008 	cdpeq	0, 0, cr0, cr0, cr8, {0}
    383c:	00084404 	andeq	r4, r8, r4, lsl #8
    3840:	05f40900 	ldrbeq	r0, [r4, #2304]!	; 0x900
    3844:	086b0000 	stmdaeq	fp!, {}^	; <UNPREDICTABLE>
    3848:	cc0a0000 	stcgt	0, cr0, [sl], {-0}
    384c:	02000000 	andeq	r0, r0, #0
    3850:	0b341f00 	bleq	d0b458 <__bss_end__+0xd00c58>
    3854:	fd050000 	stc2	0, cr0, [r5, #-0]
    3858:	00042902 	andeq	r2, r4, r2, lsl #18
    385c:	0b2d1f00 	bleq	b4b464 <__bss_end__+0xb40c64>
    3860:	fe050000 	cdp2	0, 0, cr0, cr5, cr0, {0}
    3864:	00042f02 	andeq	r2, r4, r2, lsl #30
    3868:	00251500 	eoreq	r1, r5, r0, lsl #10
    386c:	08920000 	ldmeq	r2, {}	; <UNPREDICTABLE>
    3870:	25160000 	ldrcs	r0, [r6, #-0]
    3874:	00000000 	andeq	r0, r0, r0
    3878:	00053d20 	andeq	r3, r5, r0, lsr #26
    387c:	9d1d0600 	ldcls	6, cr0, [sp, #-0]
    3880:	0e000008 	cdpeq	0, 0, cr0, cr0, cr8, {0}
    3884:	00088304 	andeq	r8, r8, r4, lsl #6
    3888:	00251500 	eoreq	r1, r5, r0, lsl #10
    388c:	08b20000 	ldmeq	r2!, {}	; <UNPREDICTABLE>
    3890:	8a160000 	bhi	583898 <__bss_end__+0x579098>
    3894:	00000005 	andeq	r0, r0, r5
    3898:	00057a20 	andeq	r7, r5, r0, lsr #20
    389c:	bd220600 	stclt	6, cr0, [r2, #-0]
    38a0:	0e000008 	cdpeq	0, 0, cr0, cr0, cr8, {0}
    38a4:	0008a304 	andeq	sl, r8, r4, lsl #6
    38a8:	54012100 	strpl	r2, [r1], #-256	; 0x100
    38ac:	08000000 	stmdaeq	r0, {}	; <UNPREDICTABLE>
    38b0:	0009000c 	andeq	r0, r9, ip
    38b4:	074b2200 	strbeq	r2, [fp, -r0, lsl #4]
    38b8:	22000000 	andcs	r0, r0, #0
    38bc:	00000b74 	andeq	r0, r0, r4, ror fp
    38c0:	0bcc2201 	bleq	ff30c0cc <__bss_end__+0xff3018cc>
    38c4:	22040000 	andcs	r0, r4, #0
    38c8:	0000078c 	andeq	r0, r0, ip, lsl #15
    38cc:	092f2205 	stmdbeq	pc!, {r0, r2, r9, sp}	; <UNPREDICTABLE>
    38d0:	22060000 	andcs	r0, r6, #0
    38d4:	00000be9 	andeq	r0, r0, r9, ror #23
    38d8:	0bf82207 	bleq	ffe0c0fc <__bss_end__+0xffe018fc>
    38dc:	22030000 	andcs	r0, r3, #0
    38e0:	00000c07 	andeq	r0, r0, r7, lsl #24
    38e4:	f9100002 			; <UNDEFINED> instruction: 0xf9100002
    38e8:	2c000007 	stccs	0, cr0, [r0], {7}
    38ec:	09900607 	ldmibeq	r0, {r0, r1, r2, r9, sl}
    38f0:	69110000 	ldmdbvs	r1, {}	; <UNPREDICTABLE>
    38f4:	0907006f 	stmdbeq	r7, {r0, r1, r2, r3, r5, r6}
    38f8:	00000033 	andeq	r0, r0, r3, lsr r0
    38fc:	65691100 	strbvs	r1, [r9, #-256]!	; 0x100
    3900:	0a070072 	beq	1c3ad0 <__bss_end__+0x1b92d0>
    3904:	00000033 	andeq	r0, r0, r3, lsr r0
    3908:	69691104 	stmdbvs	r9!, {r2, r8, ip}^
    390c:	11070072 	tstne	r7, r2, ror r0
    3910:	00000033 	andeq	r0, r0, r3, lsr r0
    3914:	636c1108 	cmnvs	ip, #8, 2
    3918:	13070072 	movwne	r0, #28786	; 0x7072
    391c:	00000033 	andeq	r0, r0, r3, lsr r0
    3920:	636d110c 	cmnvs	sp, #12, 2
    3924:	14070072 	strne	r0, [r7], #-114	; 0x72
    3928:	00000033 	andeq	r0, r0, r3, lsr r0
    392c:	736c1110 	cmnvc	ip, #16, 2
    3930:	15070072 	strne	r0, [r7, #-114]	; 0x72
    3934:	00000033 	andeq	r0, r0, r3, lsr r0
    3938:	736d1114 	cmnvc	sp, #20, 2
    393c:	16070072 			; <UNDEFINED> instruction: 0x16070072
    3940:	00000033 	andeq	r0, r0, r3, lsr r0
    3944:	0a870c18 	beq	fe1c69ac <__bss_end__+0xfe1bc1ac>
    3948:	17070000 	strne	r0, [r7, -r0]
    394c:	00000033 	andeq	r0, r0, r3, lsr r0
    3950:	07a10c1c 			; <UNDEFINED> instruction: 0x07a10c1c
    3954:	1b070000 	blne	1c395c <__bss_end__+0x1b915c>
    3958:	00000033 	andeq	r0, r0, r3, lsr r0
    395c:	07810c20 	streq	r0, [r1, r0, lsr #24]
    3960:	1d070000 	stcne	0, cr0, [r7, #-0]
    3964:	00000033 	andeq	r0, r0, r3, lsr r0
    3968:	0a710c24 	beq	1c46a00 <__bss_end__+0x1c3c200>
    396c:	1e070000 	cdpne	0, 0, cr0, cr7, cr0, {0}
    3970:	00000033 	andeq	r0, r0, r3, lsr r0
    3974:	69230028 	stmdbvs	r3!, {r3, r5}
    3978:	01000008 	tsteq	r0, r8
    397c:	0009a507 	andeq	sl, r9, r7, lsl #10
    3980:	21500400 	cmpcs	r0, r0, lsl #8
    3984:	33040e20 	movwcc	r0, #20000	; 0x4e20
    3988:	0f000000 	svceq	0x00000000
    398c:	0000099f 	muleq	r0, pc, r9	; <UNPREDICTABLE>
    3990:	0009a123 	andeq	sl, r9, r3, lsr #2
    3994:	bf280100 	svclt	0x00280100
    3998:	40000009 	andmi	r0, r0, r9
    399c:	0e202150 	mcreq	1, 1, r2, cr0, cr0, {2}
    39a0:	00090004 	andeq	r0, r9, r4
    39a4:	09b90f00 	ldmibeq	r9!, {r8, r9, sl, fp}
    39a8:	be240000 	cdplt	0, 2, cr0, cr4, cr0, {0}
    39ac:	0100000b 	tsteq	r0, fp
    39b0:	000025a7 	andeq	r2, r0, r7, lsr #11
    39b4:	00973400 	addseq	r3, r7, r0, lsl #8
    39b8:	00001000 	andeq	r1, r0, r0
    39bc:	f09c0100 			; <UNDEFINED> instruction: 0xf09c0100
    39c0:	25000009 	strcs	r0, [r0, #-9]
    39c4:	0000973c 	andeq	r9, r0, ip, lsr r7
    39c8:	00000c9c 	muleq	r0, ip, ip
    39cc:	00974025 	addseq	r4, r7, r5, lsr #32
    39d0:	000ad200 	andeq	sp, sl, r0, lsl #4
    39d4:	22260000 	eorcs	r0, r6, #0
    39d8:	01000005 	tsteq	r0, r5
    39dc:	0097049f 	umullseq	r0, r7, pc, r4	; <UNPREDICTABLE>
    39e0:	00003000 	andeq	r3, r0, r0
    39e4:	4e9c0100 	fmlmie	f0, f4, f0
    39e8:	2700000a 	strcs	r0, [r0, -sl]
    39ec:	9f010063 	svcls	0x00010063
    39f0:	0000002c 	andeq	r0, r0, ip, lsr #32
    39f4:	0000130c 	andeq	r1, r0, ip, lsl #6
    39f8:	00971025 	addseq	r1, r7, r5, lsr #32
    39fc:	000c9c00 	andeq	r9, ip, r0, lsl #24
    3a00:	97142500 	ldrls	r2, [r4, -r0, lsl #10]
    3a04:	0aa50000 	beq	fe943a0c <__bss_end__+0xfe93920c>
    3a08:	28280000 	stmdacs	r8!, {}	; <UNPREDICTABLE>
    3a0c:	a7000097 			; <UNDEFINED> instruction: 0xa7000097
    3a10:	4400000c 	strmi	r0, [r0], #-12
    3a14:	2900000a 	stmdbcs	r0, {r1, r3}
    3a18:	0c055001 	stceq	0, cr5, [r5], {1}
    3a1c:	20215040 	eorcs	r5, r1, r0, asr #32
    3a20:	05510129 	ldrbeq	r0, [r1, #-297]	; 0x129
    3a24:	ff080074 			; <UNDEFINED> instruction: 0xff080074
    3a28:	2c25001a 	stccs	0, cr0, [r5], #-104	; 0xffffff98
    3a2c:	9c000097 	stcls	0, cr0, [r0], {151}	; 0x97
    3a30:	0000000c 	andeq	r0, r0, ip
    3a34:	0008cc24 	andeq	ip, r8, r4, lsr #24
    3a38:	25970100 	ldrcs	r0, [r7, #256]	; 0x100
    3a3c:	d4000000 	strle	r0, [r0], #-0
    3a40:	30000096 	mulcc	r0, r6, r0
    3a44:	01000000 	mrseq	r0, (UNDEF: 0)
    3a48:	000aa59c 	muleq	sl, ip, r5
    3a4c:	00632a00 	rsbeq	r2, r3, r0, lsl #20
    3a50:	00259b01 	eoreq	r9, r5, r1, lsl #22
    3a54:	54010000 	strpl	r0, [r1], #-0
    3a58:	0096dc25 	addseq	sp, r6, r5, lsr #24
    3a5c:	000c9c00 	andeq	r9, ip, r0, lsl #24
    3a60:	96e02500 	strbtls	r2, [r0], r0, lsl #10
    3a64:	0ad20000 	beq	ff483a6c <__bss_end__+0xff47926c>
    3a68:	f0280000 			; <UNDEFINED> instruction: 0xf0280000
    3a6c:	b2000096 	andlt	r0, r0, #150	; 0x96
    3a70:	9b00000c 	blls	3aa8 <_start-0x4558>
    3a74:	2900000a 	stmdbcs	r0, {r1, r3}
    3a78:	0c055001 	stceq	0, cr5, [r5], {1}
    3a7c:	20215040 	eorcs	r5, r1, r0, asr #32
    3a80:	96f82500 	ldrbtls	r2, [r8], r0, lsl #10
    3a84:	0c9c0000 	ldceq	0, cr0, [ip], {0}
    3a88:	24000000 	strcs	r0, [r0], #-0
    3a8c:	00000880 	andeq	r0, r0, r0, lsl #17
    3a90:	00258801 	eoreq	r8, r5, r1, lsl #16
    3a94:	96b40000 	ldrtls	r0, [r4], r0
    3a98:	00200000 	eoreq	r0, r0, r0
    3a9c:	9c010000 	stcls	0, cr0, [r1], {-0}
    3aa0:	00000ad2 	ldrdeq	r0, [r0], -r2
    3aa4:	0096c02b 	addseq	ip, r6, fp, lsr #32
    3aa8:	000cb200 	andeq	fp, ip, r0, lsl #4
    3aac:	50012900 	andpl	r2, r1, r0, lsl #18
    3ab0:	50640c05 	rsbpl	r0, r4, r5, lsl #24
    3ab4:	00002021 	andeq	r2, r0, r1, lsr #32
    3ab8:	000b9e24 	andeq	r9, fp, r4, lsr #28
    3abc:	257f0100 	ldrbcs	r0, [pc, #-256]!	; 39c4 <_start-0x463c>
    3ac0:	9c000000 	stcls	0, cr0, [r0], {-0}
    3ac4:	18000096 	stmdane	r0, {r1, r2, r4, r7}
    3ac8:	01000000 	mrseq	r0, (UNDEF: 0)
    3acc:	000aff9c 	muleq	sl, ip, pc	; <UNPREDICTABLE>
    3ad0:	96a82b00 	strtls	r2, [r8], r0, lsl #22
    3ad4:	0cb20000 	ldceq	0, cr0, [r2]
    3ad8:	01290000 	teqeq	r9, r0
    3adc:	640c0550 	strvs	r0, [ip], #-1360	; 0x550
    3ae0:	00202150 	eoreq	r2, r0, r0, asr r1
    3ae4:	07182600 	ldreq	r2, [r8, -r0, lsl #12]
    3ae8:	3a010000 	bcc	43af0 <__bss_end__+0x392f0>
    3aec:	000095ec 	andeq	r9, r0, ip, ror #11
    3af0:	000000b0 	strheq	r0, [r0], -r0	; <UNPREDICTABLE>
    3af4:	0c3d9c01 	ldceq	12, cr9, [sp], #-4
    3af8:	fc280000 	stc2	0, cr0, [r8], #-0
    3afc:	bd000095 	stclt	0, cr0, [r0, #-596]	; 0xfffffdac
    3b00:	2c00000c 	stccs	0, cr0, [r0], {12}
    3b04:	2900000b 	stmdbcs	r0, {r0, r1, r3}
    3b08:	3e015001 	cdpcc	0, 0, cr5, cr1, cr1, {0}
    3b0c:	01510129 	cmpeq	r1, r9, lsr #2
    3b10:	08280032 	stmdaeq	r8!, {r1, r4, r5}
    3b14:	bd000096 	stclt	0, cr0, [r0, #-600]	; 0xfffffda8
    3b18:	4400000c 	strmi	r0, [r0], #-12
    3b1c:	2900000b 	stmdbcs	r0, {r0, r1, r3}
    3b20:	3f015001 	svccc	0x00015001
    3b24:	01510129 	cmpeq	r1, r9, lsr #2
    3b28:	0c250032 	stceq	0, cr0, [r5], #-200	; 0xffffff38
    3b2c:	9c000096 	stcls	0, cr0, [r0], {150}	; 0x96
    3b30:	2800000c 	stmdacs	r0, {r2, r3}
    3b34:	00009618 	andeq	r9, r0, r8, lsl r6
    3b38:	00000c3d 	andeq	r0, r0, sp, lsr ip
    3b3c:	00000b69 	andeq	r0, r0, r9, ror #22
    3b40:	05500129 	ldrbeq	r0, [r0, #-297]	; 0x129
    3b44:	2150040c 	cmpcs	r0, ip, lsl #8
    3b48:	51012920 	tstpl	r1, r0, lsr #18
    3b4c:	25003101 	strcs	r3, [r0, #-257]	; 0x101
    3b50:	0000961c 	andeq	r9, r0, ip, lsl r6
    3b54:	00000c9c 	muleq	r0, ip, ip
    3b58:	00962c28 	addseq	r2, r6, r8, lsr #24
    3b5c:	000ca700 	andeq	sl, ip, r0, lsl #14
    3b60:	000b8b00 	andeq	r8, fp, r0, lsl #22
    3b64:	50012900 	andpl	r2, r1, r0, lsl #18
    3b68:	29007402 	stmdbcs	r0, {r1, sl, ip, sp, lr}
    3b6c:	30015101 	andcc	r5, r1, r1, lsl #2
    3b70:	96382800 	ldrtls	r2, [r8], -r0, lsl #16
    3b74:	0ca70000 	stceq	0, cr0, [r7]
    3b78:	0ba70000 	bleq	fe9c3b80 <__bss_end__+0xfe9b9380>
    3b7c:	01290000 	teqeq	r9, r0
    3b80:	440c0550 	strmi	r0, [ip], #-1360	; 0x550
    3b84:	29202150 	stmdbcs	r0!, {r4, r6, r8, sp}
    3b88:	30015101 	andcc	r5, r1, r1, lsl #2
    3b8c:	96442800 	strbls	r2, [r4], -r0, lsl #16
    3b90:	0ca70000 	stceq	0, cr0, [r7]
    3b94:	0bc30000 	bleq	ff0c3b9c <__bss_end__+0xff0b939c>
    3b98:	01290000 	teqeq	r9, r0
    3b9c:	4c0c0550 	cfstr32mi	mvfx0, [ip], {80}	; 0x50
    3ba0:	29202150 	stmdbcs	r0!, {r4, r6, r8, sp}
    3ba4:	33015101 	movwcc	r5, #4353	; 0x1101
    3ba8:	96502800 	ldrbls	r2, [r0], -r0, lsl #16
    3bac:	0ca70000 	stceq	0, cr0, [r7]
    3bb0:	0bdf0000 	bleq	ff7c3bb8 <__bss_end__+0xff7b93b8>
    3bb4:	01290000 	teqeq	r9, r0
    3bb8:	500c0550 	andpl	r0, ip, r0, asr r5
    3bbc:	29202150 	stmdbcs	r0!, {r4, r6, r8, sp}
    3bc0:	30015101 	andcc	r5, r1, r1, lsl #2
    3bc4:	965c2800 	ldrbls	r2, [ip], -r0, lsl #16
    3bc8:	0ca70000 	stceq	0, cr0, [r7]
    3bcc:	0bfc0000 	bleq	fff03bd4 <__bss_end__+0xffef93d4>
    3bd0:	01290000 	teqeq	r9, r0
    3bd4:	480c0550 	stmdami	ip, {r4, r6, r8, sl}
    3bd8:	29202150 	stmdbcs	r0!, {r4, r6, r8, sp}
    3bdc:	08025101 	stmdaeq	r2, {r0, r8, ip, lr}
    3be0:	682800c7 	stmdavs	r8!, {r0, r1, r2, r6, r7}
    3be4:	a7000096 			; <UNDEFINED> instruction: 0xa7000096
    3be8:	1a00000c 	bne	3c20 <_start-0x43e0>
    3bec:	2900000c 	stmdbcs	r0, {r2, r3}
    3bf0:	0c055001 	stceq	0, cr5, [r5], {1}
    3bf4:	20215068 	eorcs	r5, r1, r8, rrx
    3bf8:	03510129 	cmpeq	r1, #1073741834	; 0x4000000a
    3bfc:	00010e0a 	andeq	r0, r1, sl, lsl #28
    3c00:	00967428 	addseq	r7, r6, r8, lsr #8
    3c04:	000ca700 	andeq	sl, ip, r0, lsl #14
    3c08:	000c3300 	andeq	r3, ip, r0, lsl #6
    3c0c:	50012900 	andpl	r2, r1, r0, lsl #18
    3c10:	29007402 	stmdbcs	r0, {r1, sl, ip, sp, lr}
    3c14:	33015101 	movwcc	r5, #4353	; 0x1101
    3c18:	96782500 	ldrbtls	r2, [r8], -r0, lsl #10
    3c1c:	0c9c0000 	ldceq	0, cr0, [ip], {0}
    3c20:	2c000000 	stccs	0, cr0, [r0], {-0}
    3c24:	00000bb6 			; <UNDEFINED> instruction: 0x00000bb6
    3c28:	95cc2d01 	strbls	r2, [ip, #3329]	; 0xd01
    3c2c:	00200000 	eoreq	r0, r0, r0
    3c30:	9c010000 	stcls	0, cr0, [r1], {-0}
    3c34:	00000c95 	muleq	r0, r5, ip
    3c38:	0001c82d 	andeq	ip, r1, sp, lsr #16
    3c3c:	952d0100 	strls	r0, [sp, #-256]!	; 0x100
    3c40:	2a00000c 	bcs	3c78 <_start-0x4388>
    3c44:	27000013 	smladcs	r0, r3, r0, r0
    3c48:	006c6176 	rsbeq	r6, ip, r6, ror r1
    3c4c:	002c2d01 	eoreq	r2, ip, r1, lsl #26
    3c50:	13480000 	movtne	r0, #32768	; 0x8000
    3c54:	dc280000 	stcle	0, cr0, [r8], #-0
    3c58:	b2000095 	andlt	r0, r0, #149	; 0x95
    3c5c:	8400000c 	strhi	r0, [r0], #-12
    3c60:	2900000c 	stmdbcs	r0, {r2, r3}
    3c64:	74025001 	strvc	r5, [r2], #-1
    3c68:	e82b0000 	stmda	fp!, {}	; <UNPREDICTABLE>
    3c6c:	a7000095 			; <UNDEFINED> instruction: 0xa7000095
    3c70:	2900000c 	stmdbcs	r0, {r2, r3}
    3c74:	74025001 	strvc	r5, [r2], #-1
    3c78:	0e000000 	cdpeq	0, 0, cr0, cr0, cr0, {0}
    3c7c:	000c9b04 	andeq	r9, ip, r4, lsl #22
    3c80:	152f2e00 	strne	r2, [pc, #-3584]!	; 2e88 <_start-0x5178>
    3c84:	15000009 	strne	r0, [r0, #-9]
    3c88:	06000009 	streq	r0, [r0], -r9
    3c8c:	0a952f89 	beq	fe54fab8 <__bss_end__+0xfe5452b8>
    3c90:	0a950000 	beq	fe543c98 <__bss_end__+0xfe539498>
    3c94:	9c060000 	stcls	0, cr0, [r6], {-0}
    3c98:	000b982f 	andeq	r9, fp, pc, lsr #16
    3c9c:	000b9800 	andeq	r9, fp, r0, lsl #16
    3ca0:	2fa80600 	svccs	0x00a80600
    3ca4:	00000965 	andeq	r0, r0, r5, ror #18
    3ca8:	00000965 	andeq	r0, r0, r5, ror #18
    3cac:	70001908 	andvc	r1, r0, r8, lsl #18
    3cb0:	0400000b 	streq	r0, [r0], #-11
    3cb4:	0011b800 	andseq	fp, r1, r0, lsl #16
    3cb8:	9b010400 	blls	44cc0 <__bss_end__+0x3a4c0>
    3cbc:	0c00000a 	stceq	0, cr0, [r0], {10}
    3cc0:	00000c6b 	andeq	r0, r0, fp, ror #24
    3cc4:	0000080d 	andeq	r0, r0, sp, lsl #16
    3cc8:	00009744 	andeq	r9, r0, r4, asr #14
    3ccc:	00000120 	andeq	r0, r0, r0, lsr #2
    3cd0:	00000ff8 	strdeq	r0, [r0], -r8
    3cd4:	69050402 	stmdbvs	r5, {r1, sl}
    3cd8:	0300746e 	movweq	r7, #1134	; 0x46e
    3cdc:	01370704 	teqeq	r7, r4, lsl #14
    3ce0:	2c040000 	stccs	0, cr0, [r4], {-0}
    3ce4:	03000000 	movweq	r0, #0
    3ce8:	00e50601 	rsceq	r0, r5, r1, lsl #12
    3cec:	02030000 	andeq	r0, r3, #0
    3cf0:	00016405 	andeq	r6, r1, r5, lsl #8
    3cf4:	05040300 	streq	r0, [r4, #-768]	; 0x300
    3cf8:	0000015b 	andeq	r0, r0, fp, asr r1
    3cfc:	56050803 	strpl	r0, [r5], -r3, lsl #16
    3d00:	03000001 	movweq	r0, #1
    3d04:	00e30801 	rsceq	r0, r3, r1, lsl #16
    3d08:	02030000 	andeq	r0, r3, #0
    3d0c:	0000f107 	andeq	pc, r0, r7, lsl #2
    3d10:	07040300 	streq	r0, [r4, -r0, lsl #6]
    3d14:	00000132 	andeq	r0, r0, r2, lsr r1
    3d18:	2d070803 	stccs	8, cr0, [r7, #-12]
    3d1c:	05000001 	streq	r0, [r0, #-1]
    3d20:	000009b0 			; <UNDEFINED> instruction: 0x000009b0
    3d24:	00250702 	eoreq	r0, r5, r2, lsl #14
    3d28:	9a050000 	bls	143d30 <__bss_end__+0x139530>
    3d2c:	03000009 	movweq	r0, #9
    3d30:	0000462c 	andeq	r4, r0, ip, lsr #12
    3d34:	0a760500 	beq	1d8513c <__bss_end__+0x1d7a93c>
    3d38:	72030000 	andvc	r0, r3, #0
    3d3c:	00000046 	andeq	r0, r0, r6, asr #32
    3d40:	00093e06 	andeq	r3, r9, r6, lsl #28
    3d44:	01650400 	cmneq	r5, r0, lsl #8
    3d48:	0000002c 	andeq	r0, r0, ip, lsr #32
    3d4c:	a6030407 	strge	r0, [r3], -r7, lsl #8
    3d50:	000000bc 	strheq	r0, [r0], -ip
    3d54:	00092908 	andeq	r2, r9, r8, lsl #18
    3d58:	91a80300 			; <UNDEFINED> instruction: 0x91a80300
    3d5c:	08000000 	stmdaeq	r0, {}	; <UNPREDICTABLE>
    3d60:	000008c5 	andeq	r0, r0, r5, asr #17
    3d64:	00bca903 	adcseq	sl, ip, r3, lsl #18
    3d68:	09000000 	stmdbeq	r0, {}	; <UNPREDICTABLE>
    3d6c:	00000054 	andeq	r0, r0, r4, asr r0
    3d70:	000000cc 	andeq	r0, r0, ip, asr #1
    3d74:	0000cc0a 	andeq	ip, r0, sl, lsl #24
    3d78:	03000300 	movweq	r0, #768	; 0x300
    3d7c:	014d0704 	cmpeq	sp, r4, lsl #14
    3d80:	080b0000 	stmdaeq	fp, {}	; <UNPREDICTABLE>
    3d84:	00f4a303 	rscseq	sl, r4, r3, lsl #6
    3d88:	5b0c0000 	blpl	303d90 <__bss_end__+0x2f9590>
    3d8c:	0300000a 	movweq	r0, #10
    3d90:	000025a5 	andeq	r2, r0, r5, lsr #11
    3d94:	630c0000 	movwvs	r0, #49152	; 0xc000
    3d98:	0300000a 	movweq	r0, #10
    3d9c:	00009daa 	andeq	r9, r0, sl, lsr #27
    3da0:	05000400 	streq	r0, [r0, #-1024]	; 0x400
    3da4:	000009ee 	andeq	r0, r0, lr, ror #19
    3da8:	00d3ab03 	sbcseq	sl, r3, r3, lsl #22
    3dac:	8e050000 	cdphi	0, 0, cr0, cr5, cr0, {0}
    3db0:	03000008 	movweq	r0, #8
    3db4:	000070af 	andeq	r7, r0, pc, lsr #1
    3db8:	0e040d00 	cdpeq	13, 0, cr0, cr4, cr0, {0}
    3dbc:	00011204 	andeq	r1, r1, r4, lsl #4
    3dc0:	08010300 	stmdaeq	r1, {r8, r9}
    3dc4:	000000ec 	andeq	r0, r0, ip, ror #1
    3dc8:	00011204 	andeq	r1, r1, r4, lsl #4
    3dcc:	0b180500 	bleq	6051d4 <__bss_end__+0x5fa9d4>
    3dd0:	16050000 	strne	r0, [r5], -r0
    3dd4:	00000062 	andeq	r0, r0, r2, rrx
    3dd8:	00089f0f 	andeq	r9, r8, pc, lsl #30
    3ddc:	2d051800 	stccs	8, cr1, [r5, #-0]
    3de0:	0000017c 	andeq	r0, r0, ip, ror r1
    3de4:	000a0f0c 	andeq	r0, sl, ip, lsl #30
    3de8:	7c2f0500 	cfstr32vc	mvfx0, [pc], #-0	; 3df0 <_start-0x4210>
    3dec:	00000001 	andeq	r0, r0, r1
    3df0:	006b5f10 	rsbeq	r5, fp, r0, lsl pc
    3df4:	00253005 	eoreq	r3, r5, r5
    3df8:	0c040000 	stceq	0, cr0, [r4], {-0}
    3dfc:	00000a46 	andeq	r0, r0, r6, asr #20
    3e00:	00253005 	eoreq	r3, r5, r5
    3e04:	0c080000 	stceq	0, cr0, [r8], {-0}
    3e08:	0000087a 	andeq	r0, r0, sl, ror r8
    3e0c:	00253005 	eoreq	r3, r5, r5
    3e10:	0c0c0000 	stceq	0, cr0, [ip], {-0}
    3e14:	00000b5f 	andeq	r0, r0, pc, asr fp
    3e18:	00253005 	eoreq	r3, r5, r5
    3e1c:	10100000 	andsne	r0, r0, r0
    3e20:	0500785f 	streq	r7, [r0, #-2143]	; 0x85f
    3e24:	00018231 	andeq	r8, r1, r1, lsr r2
    3e28:	0e001400 	cfcpyseq	mvf1, mvf0
    3e2c:	00012904 	andeq	r2, r1, r4, lsl #18
    3e30:	011e0900 	tsteq	lr, r0, lsl #18
    3e34:	01920000 	orrseq	r0, r2, r0
    3e38:	cc0a0000 	stcgt	0, cr0, [sl], {-0}
    3e3c:	00000000 	andeq	r0, r0, r0
    3e40:	08c00f00 	stmiaeq	r0, {r8, r9, sl, fp}^
    3e44:	05240000 	streq	r0, [r4, #-0]!
    3e48:	00020b35 	andeq	r0, r2, r5, lsr fp
    3e4c:	07780c00 	ldrbeq	r0, [r8, -r0, lsl #24]!
    3e50:	37050000 	strcc	r0, [r5, -r0]
    3e54:	00000025 	andeq	r0, r0, r5, lsr #32
    3e58:	0a7e0c00 	beq	1f86e60 <__bss_end__+0x1f7c660>
    3e5c:	38050000 	stmdacc	r5, {}	; <UNPREDICTABLE>
    3e60:	00000025 	andeq	r0, r0, r5, lsr #32
    3e64:	07a60c04 	streq	r0, [r6, r4, lsl #24]!
    3e68:	39050000 	stmdbcc	r5, {}	; <UNPREDICTABLE>
    3e6c:	00000025 	andeq	r0, r0, r5, lsr #32
    3e70:	0c4f0c08 	mcrreq	12, 0, r0, pc, cr8
    3e74:	3a050000 	bcc	143e7c <__bss_end__+0x13967c>
    3e78:	00000025 	andeq	r0, r0, r5, lsr #32
    3e7c:	097e0c0c 	ldmdbeq	lr!, {r2, r3, sl, fp}^
    3e80:	3b050000 	blcc	143e88 <__bss_end__+0x139688>
    3e84:	00000025 	andeq	r0, r0, r5, lsr #32
    3e88:	09530c10 	ldmdbeq	r3, {r4, sl, fp}^
    3e8c:	3c050000 	stccc	0, cr0, [r5], {-0}
    3e90:	00000025 	andeq	r0, r0, r5, lsr #32
    3e94:	0b640c14 	bleq	1906eec <__bss_end__+0x18fc6ec>
    3e98:	3d050000 	stccc	0, cr0, [r5, #-0]
    3e9c:	00000025 	andeq	r0, r0, r5, lsr #32
    3ea0:	09d00c18 	ldmibeq	r0, {r3, r4, sl, fp}^
    3ea4:	3e050000 	cdpcc	0, 0, cr0, cr5, cr0, {0}
    3ea8:	00000025 	andeq	r0, r0, r5, lsr #32
    3eac:	0c160c1c 	ldceq	12, cr0, [r6], {28}
    3eb0:	3f050000 	svccc	0x00050000
    3eb4:	00000025 	andeq	r0, r0, r5, lsr #32
    3eb8:	b5110020 	ldrlt	r0, [r1, #-32]
    3ebc:	08000007 	stmdaeq	r0, {r0, r1, r2}
    3ec0:	4b480501 	blmi	12052cc <__bss_end__+0x11faacc>
    3ec4:	0c000002 	stceq	0, cr0, [r0], {2}
    3ec8:	00000861 	andeq	r0, r0, r1, ror #16
    3ecc:	024b4905 	subeq	r4, fp, #81920	; 0x14000
    3ed0:	0c000000 	stceq	0, cr0, [r0], {-0}
    3ed4:	000006f9 	strdeq	r0, [r0], -r9
    3ed8:	024b4a05 	subeq	r4, fp, #20480	; 0x5000
    3edc:	12800000 	addne	r0, r0, #0
    3ee0:	00000b0a 	andeq	r0, r0, sl, lsl #22
    3ee4:	011e4c05 	tsteq	lr, r5, lsl #24
    3ee8:	01000000 	mrseq	r0, (UNDEF: 0)
    3eec:	0007da12 	andeq	sp, r7, r2, lsl sl
    3ef0:	1e4f0500 	cdpne	5, 4, cr0, cr15, cr0, {0}
    3ef4:	04000001 	streq	r0, [r0], #-1
    3ef8:	0a090001 	beq	243f04 <__bss_end__+0x239704>
    3efc:	5b000001 	blpl	3f08 <_start-0x40f8>
    3f00:	0a000002 	beq	3f10 <_start-0x40f0>
    3f04:	000000cc 	andeq	r0, r0, ip, asr #1
    3f08:	8711001f 			; <UNDEFINED> instruction: 0x8711001f
    3f0c:	90000009 	andls	r0, r0, r9
    3f10:	995b0501 	ldmdbls	fp, {r0, r8, sl}^
    3f14:	0c000002 	stceq	0, cr0, [r0], {2}
    3f18:	00000a0f 	andeq	r0, r0, pc, lsl #20
    3f1c:	02995c05 	addseq	r5, r9, #1280	; 0x500
    3f20:	0c000000 	stceq	0, cr0, [r0], {-0}
    3f24:	00000a27 	andeq	r0, r0, r7, lsr #20
    3f28:	00255d05 	eoreq	r5, r5, r5, lsl #26
    3f2c:	0c040000 	stceq	0, cr0, [r4], {-0}
    3f30:	00000875 	andeq	r0, r0, r5, ror r8
    3f34:	029f5f05 	addseq	r5, pc, #5, 30
    3f38:	0c080000 	stceq	0, cr0, [r8], {-0}
    3f3c:	000007b5 			; <UNDEFINED> instruction: 0x000007b5
    3f40:	020b6005 	andeq	r6, fp, #5
    3f44:	00880000 	addeq	r0, r8, r0
    3f48:	025b040e 	subseq	r0, fp, #234881024	; 0xe000000
    3f4c:	af090000 	svcge	0x00090000
    3f50:	af000002 	svcge	0x00000002
    3f54:	0a000002 	beq	3f64 <_start-0x409c>
    3f58:	000000cc 	andeq	r0, r0, ip, asr #1
    3f5c:	040e001f 	streq	r0, [lr], #-31
    3f60:	000002b5 			; <UNDEFINED> instruction: 0x000002b5
    3f64:	09da0f13 	ldmibeq	sl, {r0, r1, r4, r8, r9, sl, fp}^
    3f68:	05080000 	streq	r0, [r8, #-0]
    3f6c:	0002db73 	andeq	sp, r2, r3, ror fp
    3f70:	079b0c00 	ldreq	r0, [fp, r0, lsl #24]
    3f74:	74050000 	strvc	r0, [r5], #-0
    3f78:	000002db 	ldrdeq	r0, [r0], -fp
    3f7c:	01dc0c00 	bicseq	r0, ip, r0, lsl #24
    3f80:	75050000 	strvc	r0, [r5, #-0]
    3f84:	00000025 	andeq	r0, r0, r5, lsr #32
    3f88:	040e0004 	streq	r0, [lr], #-4
    3f8c:	00000054 	andeq	r0, r0, r4, asr r0
    3f90:	0009f90f 	andeq	pc, r9, pc, lsl #18
    3f94:	b3056800 	movwlt	r6, #22528	; 0x5800
    3f98:	0000040b 	andeq	r0, r0, fp, lsl #8
    3f9c:	00705f10 	rsbseq	r5, r0, r0, lsl pc
    3fa0:	02dbb405 	sbcseq	fp, fp, #83886080	; 0x5000000
    3fa4:	10000000 	andne	r0, r0, r0
    3fa8:	0500725f 	streq	r7, [r0, #-607]	; 0x25f
    3fac:	000025b5 			; <UNDEFINED> instruction: 0x000025b5
    3fb0:	5f100400 	svcpl	0x00100400
    3fb4:	b6050077 			; <UNDEFINED> instruction: 0xb6050077
    3fb8:	00000025 	andeq	r0, r0, r5, lsr #32
    3fbc:	07d30c08 	ldrbeq	r0, [r3, r8, lsl #24]
    3fc0:	b7050000 	strlt	r0, [r5, -r0]
    3fc4:	0000003f 	andeq	r0, r0, pc, lsr r0
    3fc8:	08e60c0c 	stmiaeq	r6!, {r2, r3, sl, fp}^
    3fcc:	b8050000 	stmdalt	r5, {}	; <UNPREDICTABLE>
    3fd0:	0000003f 	andeq	r0, r0, pc, lsr r0
    3fd4:	625f100e 	subsvs	r1, pc, #14
    3fd8:	b9050066 	stmdblt	r5, {r1, r2, r5, r6}
    3fdc:	000002b6 			; <UNDEFINED> instruction: 0x000002b6
    3fe0:	07420c10 	smlaldeq	r0, r2, r0, ip
    3fe4:	ba050000 	blt	143fec <__bss_end__+0x1397ec>
    3fe8:	00000025 	andeq	r0, r0, r5, lsr #32
    3fec:	07c30c18 	bfieq	r0, r8, (invalid: 24:3)
    3ff0:	c1050000 	mrsgt	r0, (UNDEF: 5)
    3ff4:	0000010a 	andeq	r0, r0, sl, lsl #2
    3ff8:	0c760c1c 	ldcleq	12, cr0, [r6], #-112	; 0xffffff90
    3ffc:	c3050000 	movwgt	r0, #20480	; 0x5000
    4000:	00000566 	andeq	r0, r0, r6, ror #10
    4004:	0c900c20 	ldceq	12, cr0, [r0], {32}
    4008:	c5050000 	strgt	r0, [r5, #-0]
    400c:	00000590 	muleq	r0, r0, r5
    4010:	0a6b0c24 	beq	1ac70a8 <__bss_end__+0x1abc8a8>
    4014:	c8050000 	stmdagt	r5, {}	; <UNPREDICTABLE>
    4018:	000005b4 			; <UNDEFINED> instruction: 0x000005b4
    401c:	0c300c28 	ldceq	12, cr0, [r0], #-160	; 0xffffff60
    4020:	c9050000 	stmdbgt	r5, {}	; <UNPREDICTABLE>
    4024:	000005ce 	andeq	r0, r0, lr, asr #11
    4028:	755f102c 	ldrbvc	r1, [pc, #-44]	; 4004 <_start-0x3ffc>
    402c:	cc050062 	stcgt	0, cr0, [r5], {98}	; 0x62
    4030:	000002b6 			; <UNDEFINED> instruction: 0x000002b6
    4034:	755f1030 	ldrbvc	r1, [pc, #-48]	; 400c <_start-0x3ff4>
    4038:	cd050070 	stcgt	0, cr0, [r5, #-448]	; 0xfffffe40
    403c:	000002db 	ldrdeq	r0, [r0], -fp
    4040:	755f1038 	ldrbvc	r1, [pc, #-56]	; 4010 <_start-0x3ff0>
    4044:	ce050072 	mcrgt	0, 0, r0, cr5, cr2, {3}
    4048:	00000025 	andeq	r0, r0, r5, lsr #32
    404c:	07860c3c 			; <UNDEFINED> instruction: 0x07860c3c
    4050:	d1050000 	mrsle	r0, (UNDEF: 5)
    4054:	000005d4 	ldrdeq	r0, [r0], -r4
    4058:	0bdb0c40 	bleq	ff6c7160 <__bss_end__+0xff6bc960>
    405c:	d2050000 	andle	r0, r5, #0
    4060:	000005e4 	andeq	r0, r0, r4, ror #11
    4064:	6c5f1043 	mrrcvs	0, 4, r1, pc, cr3	; <UNPREDICTABLE>
    4068:	d5050062 	strle	r0, [r5, #-98]	; 0x62
    406c:	000002b6 			; <UNDEFINED> instruction: 0x000002b6
    4070:	07e90c44 	strbeq	r0, [r9, r4, asr #24]!
    4074:	d8050000 	stmdale	r5, {}	; <UNPREDICTABLE>
    4078:	00000025 	andeq	r0, r0, r5, lsr #32
    407c:	095d0c4c 	ldmdbeq	sp, {r2, r3, r6, sl, fp}^
    4080:	d9050000 	stmdble	r5, {}	; <UNPREDICTABLE>
    4084:	0000007b 	andeq	r0, r0, fp, ror r0
    4088:	0bc60c50 	bleq	ff1871d0 <__bss_end__+0xff17c9d0>
    408c:	dc050000 	stcle	0, cr0, [r5], {-0}
    4090:	00000429 	andeq	r0, r0, r9, lsr #8
    4094:	09450c54 	stmdbeq	r5, {r2, r4, r6, sl, fp}^
    4098:	e0050000 	and	r0, r5, r0
    409c:	000000ff 	strdeq	r0, [r0], -pc	; <UNPREDICTABLE>
    40a0:	0a010c58 	beq	47208 <__bss_end__+0x3ca08>
    40a4:	e2050000 	and	r0, r5, #0
    40a8:	000000f4 	strdeq	r0, [r0], -r4
    40ac:	094b0c5c 	stmdbeq	fp, {r2, r3, r4, r6, sl, fp}^
    40b0:	e3050000 	movw	r0, #20480	; 0x5000
    40b4:	00000025 	andeq	r0, r0, r5, lsr #32
    40b8:	25140064 	ldrcs	r0, [r4, #-100]	; 0x64
    40bc:	29000000 	stmdbcs	r0, {}	; <UNPREDICTABLE>
    40c0:	15000004 	strne	r0, [r0, #-4]
    40c4:	00000429 	andeq	r0, r0, r9, lsr #8
    40c8:	00010a15 	andeq	r0, r1, r5, lsl sl
    40cc:	010c1500 	tsteq	ip, r0, lsl #10
    40d0:	25150000 	ldrcs	r0, [r5, #-0]
    40d4:	00000000 	andeq	r0, r0, r0
    40d8:	0434040e 	ldrteq	r0, [r4], #-1038	; 0x40e
    40dc:	29040000 	stmdbcs	r4, {}	; <UNPREDICTABLE>
    40e0:	16000004 	strne	r0, [r0], -r4
    40e4:	00000a4e 	andeq	r0, r0, lr, asr #20
    40e8:	38050428 	stmdacc	r5, {r3, r5, sl}
    40ec:	00056602 	andeq	r6, r5, r2, lsl #12
    40f0:	09c91700 	stmibeq	r9, {r8, r9, sl, ip}^
    40f4:	3a050000 	bcc	1440fc <__bss_end__+0x1398fc>
    40f8:	00002502 	andeq	r2, r0, r2, lsl #10
    40fc:	e2170000 	ands	r0, r7, #0
    4100:	05000007 	streq	r0, [r0, #-7]
    4104:	063b023f 			; <UNDEFINED> instruction: 0x063b023f
    4108:	17040000 	strne	r0, [r4, -r0]
    410c:	000008d6 	ldrdeq	r0, [r0], -r6
    4110:	3b023f05 	blcc	93d2c <__bss_end__+0x8952c>
    4114:	08000006 	stmdaeq	r0, {r1, r2}
    4118:	00089717 	andeq	r9, r8, r7, lsl r7
    411c:	023f0500 	eorseq	r0, pc, #0, 10
    4120:	0000063b 	andeq	r0, r0, fp, lsr r6
    4124:	0a22170c 	beq	889d5c <__bss_end__+0x87f55c>
    4128:	41050000 	mrsmi	r0, (UNDEF: 5)
    412c:	00002502 	andeq	r2, r0, r2, lsl #10
    4130:	0d171000 	ldceq	0, cr1, [r7, #-0]
    4134:	05000007 	streq	r0, [r0, #-7]
    4138:	081d0242 	ldmdaeq	sp, {r1, r6, r9}
    413c:	17140000 	ldrne	r0, [r4, -r0]
    4140:	00000b40 	andeq	r0, r0, r0, asr #22
    4144:	25024405 	strcs	r4, [r2, #-1029]	; 0x405
    4148:	30000000 	andcc	r0, r0, r0
    414c:	000a2c17 	andeq	r2, sl, r7, lsl ip
    4150:	02450500 	subeq	r0, r5, #0, 10
    4154:	0000058a 	andeq	r0, r0, sl, lsl #11
    4158:	098f1734 	stmibeq	pc, {r2, r4, r5, r8, r9, sl, ip}	; <UNPREDICTABLE>
    415c:	47050000 	strmi	r0, [r5, -r0]
    4160:	00002502 	andeq	r2, r0, r2, lsl #10
    4164:	3c173800 	ldccc	8, cr3, [r7], {-0}
    4168:	0500000a 	streq	r0, [r0, #-10]
    416c:	08380249 	ldmdaeq	r8!, {r0, r3, r6, r9}
    4170:	173c0000 	ldrne	r0, [ip, -r0]!
    4174:	00000921 	andeq	r0, r0, r1, lsr #18
    4178:	7c024c05 	stcvc	12, cr4, [r2], {5}
    417c:	40000001 	andmi	r0, r0, r1
    4180:	0008b617 	andeq	fp, r8, r7, lsl r6
    4184:	024d0500 	subeq	r0, sp, #0, 10
    4188:	00000025 	andeq	r0, r0, r5, lsr #32
    418c:	0c4a1744 	mcrreq	7, 4, r1, sl, cr4
    4190:	4e050000 	cdpmi	0, 0, cr0, cr5, cr0, {0}
    4194:	00017c02 	andeq	r7, r1, r2, lsl #24
    4198:	a6174800 	ldrge	r4, [r7], -r0, lsl #16
    419c:	05000009 	streq	r0, [r0, #-9]
    41a0:	083e024f 	ldmdaeq	lr!, {r0, r1, r2, r3, r6, r9}
    41a4:	174c0000 	strbne	r0, [ip, -r0]
    41a8:	000008de 	ldrdeq	r0, [r0], -lr
    41ac:	25025205 	strcs	r5, [r2, #-517]	; 0x205
    41b0:	50000000 	andpl	r0, r0, r0
    41b4:	00080517 	andeq	r0, r8, r7, lsl r5
    41b8:	02530500 	subseq	r0, r3, #0, 10
    41bc:	0000010c 	andeq	r0, r0, ip, lsl #2
    41c0:	09c21754 	stmibeq	r2, {r2, r4, r6, r8, r9, sl, ip}^
    41c4:	76050000 	strvc	r0, [r5], -r0
    41c8:	0007fb02 	andeq	pc, r7, r2, lsl #22
    41cc:	87185800 	ldrhi	r5, [r8, -r0, lsl #16]
    41d0:	05000009 	streq	r0, [r0, #-9]
    41d4:	0299027a 	addseq	r0, r9, #-1610612729	; 0xa0000007
    41d8:	01480000 	mrseq	r0, (UNDEF: 72)
    41dc:	0008f318 	andeq	pc, r8, r8, lsl r3	; <UNPREDICTABLE>
    41e0:	027b0500 	rsbseq	r0, fp, #0, 10
    41e4:	0000025b 	andeq	r0, r0, fp, asr r2
    41e8:	ac18014c 	ldfges	f0, [r8], {76}	; 0x4c
    41ec:	0500000b 	streq	r0, [r0, #-11]
    41f0:	084f027f 	stmdaeq	pc, {r0, r1, r2, r3, r4, r5, r6, r9}^	; <UNPREDICTABLE>
    41f4:	02dc0000 	sbcseq	r0, ip, #0
    41f8:	0007cb18 	andeq	ip, r7, r8, lsl fp
    41fc:	02840500 	addeq	r0, r4, #0, 10
    4200:	00000600 	andeq	r0, r0, r0, lsl #12
    4204:	b01802e0 	andslt	r0, r8, r0, ror #5
    4208:	05000007 	streq	r0, [r0, #-7]
    420c:	085b0285 	ldmdaeq	fp, {r0, r2, r7, r9}^
    4210:	02ec0000 	rsceq	r0, ip, #0
    4214:	0b040e00 	bleq	107a1c <__bss_end__+0xfd21c>
    4218:	14000004 	strne	r0, [r0], #-4
    421c:	00000025 	andeq	r0, r0, r5, lsr #32
    4220:	0000058a 	andeq	r0, r0, sl, lsl #11
    4224:	00042915 	andeq	r2, r4, r5, lsl r9
    4228:	010a1500 	tsteq	sl, r0, lsl #10
    422c:	8a150000 	bhi	544234 <__bss_end__+0x539a34>
    4230:	15000005 	strne	r0, [r0, #-5]
    4234:	00000025 	andeq	r0, r0, r5, lsr #32
    4238:	19040e00 	stmdbne	r4, {r9, sl, fp}
    423c:	0e000001 	cdpeq	0, 0, cr0, cr0, cr1, {0}
    4240:	00056c04 	andeq	r6, r5, r4, lsl #24
    4244:	00861400 	addeq	r1, r6, r0, lsl #8
    4248:	05b40000 	ldreq	r0, [r4, #0]!
    424c:	29150000 	ldmdbcs	r5, {}	; <UNPREDICTABLE>
    4250:	15000004 	strne	r0, [r0, #-4]
    4254:	0000010a 	andeq	r0, r0, sl, lsl #2
    4258:	00008615 	andeq	r8, r0, r5, lsl r6
    425c:	00251500 	eoreq	r1, r5, r0, lsl #10
    4260:	0e000000 	cdpeq	0, 0, cr0, cr0, cr0, {0}
    4264:	00059604 	andeq	r9, r5, r4, lsl #12
    4268:	00251400 	eoreq	r1, r5, r0, lsl #8
    426c:	05ce0000 	strbeq	r0, [lr]
    4270:	29150000 	ldmdbcs	r5, {}	; <UNPREDICTABLE>
    4274:	15000004 	strne	r0, [r0, #-4]
    4278:	0000010a 	andeq	r0, r0, sl, lsl #2
    427c:	ba040e00 	blt	107a84 <__bss_end__+0xfd284>
    4280:	09000005 	stmdbeq	r0, {r0, r2}
    4284:	00000054 	andeq	r0, r0, r4, asr r0
    4288:	000005e4 	andeq	r0, r0, r4, ror #11
    428c:	0000cc0a 	andeq	ip, r0, sl, lsl #24
    4290:	09000200 	stmdbeq	r0, {r9}
    4294:	00000054 	andeq	r0, r0, r4, asr r0
    4298:	000005f4 	strdeq	r0, [r0], -r4
    429c:	0000cc0a 	andeq	ip, r0, sl, lsl #24
    42a0:	06000000 	streq	r0, [r0], -r0
    42a4:	000009e7 	andeq	r0, r0, r7, ror #19
    42a8:	e1011d05 	tst	r1, r5, lsl #26
    42ac:	19000002 	stmdbne	r0, {r1}
    42b0:	00000b6e 	andeq	r0, r0, lr, ror #22
    42b4:	0121050c 	teqeq	r1, ip, lsl #10
    42b8:	00000635 	andeq	r0, r0, r5, lsr r6
    42bc:	000a0f17 	andeq	r0, sl, r7, lsl pc
    42c0:	01230500 	teqeq	r3, r0, lsl #10
    42c4:	00000635 	andeq	r0, r0, r5, lsr r6
    42c8:	08ec1700 	stmiaeq	ip!, {r8, r9, sl, ip}^
    42cc:	24050000 	strcs	r0, [r5], #-0
    42d0:	00002501 	andeq	r2, r0, r1, lsl #10
    42d4:	e1170400 	tst	r7, r0, lsl #8
    42d8:	05000009 	streq	r0, [r0, #-9]
    42dc:	063b0125 	ldrteq	r0, [fp], -r5, lsr #2
    42e0:	00080000 	andeq	r0, r8, r0
    42e4:	0600040e 	streq	r0, [r0], -lr, lsl #8
    42e8:	040e0000 	streq	r0, [lr], #-0
    42ec:	000005f4 	strdeq	r0, [r0], -r4
    42f0:	00070519 	andeq	r0, r7, r9, lsl r5
    42f4:	3d050e00 	stccc	14, cr0, [r5, #-0]
    42f8:	00067601 	andeq	r7, r6, r1, lsl #12
    42fc:	0a551700 	beq	1549f04 <__bss_end__+0x153f704>
    4300:	3e050000 	cdpcc	0, 0, cr0, cr5, cr0, {0}
    4304:	00067601 	andeq	r7, r6, r1, lsl #12
    4308:	8f170000 	svchi	0x00170000
    430c:	0500000a 	streq	r0, [r0, #-10]
    4310:	0676013f 			; <UNDEFINED> instruction: 0x0676013f
    4314:	17060000 	strne	r0, [r6, -r0]
    4318:	00000b13 	andeq	r0, r0, r3, lsl fp
    431c:	5b014005 	blpl	54338 <__bss_end__+0x49b38>
    4320:	0c000000 	stceq	0, cr0, [r0], {-0}
    4324:	005b0900 	subseq	r0, fp, r0, lsl #18
    4328:	06860000 	streq	r0, [r6], r0
    432c:	cc0a0000 	stcgt	0, cr0, [sl], {-0}
    4330:	02000000 	andeq	r0, r0, #0
    4334:	05d01a00 	ldrbeq	r1, [r0, #2560]	; 0xa00
    4338:	07870257 			; <UNDEFINED> instruction: 0x07870257
    433c:	52170000 	andspl	r0, r7, #0
    4340:	0500000b 	streq	r0, [r0, #-11]
    4344:	002c0259 	eoreq	r0, ip, r9, asr r2
    4348:	17000000 	strne	r0, [r0, -r0]
    434c:	00000afd 	strdeq	r0, [r0], -sp
    4350:	0c025a05 	stceq	10, cr5, [r2], {5}
    4354:	04000001 	streq	r0, [r0], #-1
    4358:	00090817 	andeq	r0, r9, r7, lsl r8
    435c:	025b0500 	subseq	r0, fp, #0, 10
    4360:	00000787 	andeq	r0, r0, r7, lsl #15
    4364:	0c211708 	stceq	7, cr1, [r1], #-32	; 0xffffffe0
    4368:	5c050000 	stcpl	0, cr0, [r5], {-0}
    436c:	00019202 	andeq	r9, r1, r2, lsl #4
    4370:	a7172400 	ldrge	r2, [r7, -r0, lsl #8]
    4374:	05000008 	streq	r0, [r0, #-8]
    4378:	0025025d 	eoreq	r0, r5, sp, asr r2
    437c:	17480000 	strbne	r0, [r8, -r0]
    4380:	00000a0a 	andeq	r0, r0, sl, lsl #20
    4384:	69025e05 	stmdbvs	r2, {r0, r2, r9, sl, fp, ip, lr}
    4388:	50000000 	andpl	r0, r0, r0
    438c:	000c3717 	andeq	r3, ip, r7, lsl r7
    4390:	025f0500 	subseq	r0, pc, #0, 10
    4394:	00000641 	andeq	r0, r0, r1, asr #12
    4398:	0a151758 	beq	54a100 <__bss_end__+0x53f900>
    439c:	60050000 	andvs	r0, r5, r0
    43a0:	0000f402 	andeq	pc, r0, r2, lsl #8
    43a4:	3c176800 	ldccc	8, cr6, [r7], {-0}
    43a8:	0500000c 	streq	r0, [r0, #-12]
    43ac:	00f40261 	rscseq	r0, r4, r1, ror #4
    43b0:	17700000 	ldrbne	r0, [r0, -r0]!
    43b4:	0000076a 	andeq	r0, r0, sl, ror #14
    43b8:	f4026205 	vst1.8	{d6-d9}, [r2], r5
    43bc:	78000000 	stmdavc	r0, {}	; <UNPREDICTABLE>
    43c0:	000b8e17 	andeq	r8, fp, r7, lsl lr
    43c4:	02630500 	rsbeq	r0, r3, #0, 10
    43c8:	00000797 	muleq	r0, r7, r7
    43cc:	08fc1780 	ldmeq	ip!, {r7, r8, r9, sl, ip}^
    43d0:	64050000 	strvs	r0, [r5], #-0
    43d4:	0007a702 	andeq	sl, r7, r2, lsl #14
    43d8:	20178800 	andscs	r8, r7, r0, lsl #16
    43dc:	0500000b 	streq	r0, [r0, #-11]
    43e0:	00250265 	eoreq	r0, r5, r5, ror #4
    43e4:	17a00000 	strne	r0, [r0, r0]!
    43e8:	00000853 	andeq	r0, r0, r3, asr r8
    43ec:	f4026605 	vst1.8	{d6-d8}, [r2], r5
    43f0:	a4000000 	strge	r0, [r0], #-0
    43f4:	00075b17 	andeq	r5, r7, r7, lsl fp
    43f8:	02670500 	rsbeq	r0, r7, #0, 10
    43fc:	000000f4 	strdeq	r0, [r0], -r4
    4400:	084217ac 	stmdaeq	r2, {r2, r3, r5, r7, r8, r9, sl, ip}^
    4404:	68050000 	stmdavs	r5, {}	; <UNPREDICTABLE>
    4408:	0000f402 	andeq	pc, r0, r2, lsl #8
    440c:	2217b400 	andscs	fp, r7, #0, 8
    4410:	05000007 	streq	r0, [r0, #-7]
    4414:	00f40269 	rscseq	r0, r4, r9, ror #4
    4418:	17bc0000 	ldrne	r0, [ip, r0]!
    441c:	00000731 	andeq	r0, r0, r1, lsr r7
    4420:	f4026a05 	vst1.8	{d6-d7}, [r2], r5
    4424:	c4000000 	strgt	r0, [r0], #-0
    4428:	0009c717 	andeq	ip, r9, r7, lsl r7
    442c:	026b0500 	rsbeq	r0, fp, #0, 10
    4430:	00000025 	andeq	r0, r0, r5, lsr #32
    4434:	120900cc 	andne	r0, r9, #204	; 0xcc
    4438:	97000001 	strls	r0, [r0, -r1]
    443c:	0a000007 	beq	4460 <_start-0x3ba0>
    4440:	000000cc 	andeq	r0, r0, ip, asr #1
    4444:	12090019 	andne	r0, r9, #25
    4448:	a7000001 	strge	r0, [r0, -r1]
    444c:	0a000007 	beq	4470 <_start-0x3b90>
    4450:	000000cc 	andeq	r0, r0, ip, asr #1
    4454:	12090007 	andne	r0, r9, #7
    4458:	b7000001 	strlt	r0, [r0, -r1]
    445c:	0a000007 	beq	4480 <_start-0x3b80>
    4460:	000000cc 	andeq	r0, r0, ip, asr #1
    4464:	f01a0017 			; <UNDEFINED> instruction: 0xf01a0017
    4468:	db027005 	blle	a0484 <__bss_end__+0x95c84>
    446c:	17000007 	strne	r0, [r0, -r7]
    4470:	00000977 	andeq	r0, r0, r7, ror r9
    4474:	db027305 	blle	a1090 <__bss_end__+0x96890>
    4478:	00000007 	andeq	r0, r0, r7
    447c:	000b8517 	andeq	r8, fp, r7, lsl r5
    4480:	02740500 	rsbseq	r0, r4, #0, 10
    4484:	000007eb 	andeq	r0, r0, fp, ror #15
    4488:	db090078 	blle	244670 <__bss_end__+0x239e70>
    448c:	eb000002 	bl	449c <_start-0x3b64>
    4490:	0a000007 	beq	44b4 <_start-0x3b4c>
    4494:	000000cc 	andeq	r0, r0, ip, asr #1
    4498:	2c09001d 	stccs	0, cr0, [r9], {29}
    449c:	fb000000 	blx	44a6 <_start-0x3b5a>
    44a0:	0a000007 	beq	44c4 <_start-0x3b3c>
    44a4:	000000cc 	andeq	r0, r0, ip, asr #1
    44a8:	f01b001d 			; <UNDEFINED> instruction: 0xf01b001d
    44ac:	1d025505 	cfstr32ne	mvfx5, [r2, #-20]	; 0xffffffec
    44b0:	1c000008 	stcne	0, cr0, [r0], {8}
    44b4:	00000a4e 	andeq	r0, r0, lr, asr #20
    44b8:	86026c05 	strhi	r6, [r2], -r5, lsl #24
    44bc:	1c000006 	stcne	0, cr0, [r0], {6}
    44c0:	00000be1 	andeq	r0, r0, r1, ror #23
    44c4:	b7027505 	strlt	r7, [r2, -r5, lsl #10]
    44c8:	00000007 	andeq	r0, r0, r7
    44cc:	00011209 	andeq	r1, r1, r9, lsl #4
    44d0:	00082d00 	andeq	r2, r8, r0, lsl #26
    44d4:	00cc0a00 	sbceq	r0, ip, r0, lsl #20
    44d8:	00180000 	andseq	r0, r8, r0
    44dc:	0008381d 	andeq	r3, r8, sp, lsl r8
    44e0:	04291500 	strteq	r1, [r9], #-1280	; 0x500
    44e4:	0e000000 	cdpeq	0, 0, cr0, cr0, cr0, {0}
    44e8:	00082d04 	andeq	r2, r8, r4, lsl #26
    44ec:	7c040e00 	stcvc	14, cr0, [r4], {-0}
    44f0:	1d000001 	stcne	0, cr0, [r0, #-4]
    44f4:	0000084f 	andeq	r0, r0, pc, asr #16
    44f8:	00002515 	andeq	r2, r0, r5, lsl r5
    44fc:	040e0000 	streq	r0, [lr], #-0
    4500:	00000855 	andeq	r0, r0, r5, asr r8
    4504:	0844040e 	stmdaeq	r4, {r1, r2, r3, sl}^
    4508:	f4090000 	vst4.8	{d0-d3}, [r9], r0
    450c:	6b000005 	blvs	4528 <_start-0x3ad8>
    4510:	0a000008 	beq	4538 <_start-0x3ac8>
    4514:	000000cc 	andeq	r0, r0, ip, asr #1
    4518:	341e0002 	ldrcc	r0, [lr], #-2
    451c:	0500000b 	streq	r0, [r0, #-11]
    4520:	042902fd 	strteq	r0, [r9], #-765	; 0x2fd
    4524:	2d1e0000 	ldccs	0, cr0, [lr, #-0]
    4528:	0500000b 	streq	r0, [r0, #-11]
    452c:	042f02fe 	strteq	r0, [pc], #-766	; 4534 <_start-0x3acc>
    4530:	25140000 	ldrcs	r0, [r4, #-0]
    4534:	92000000 	andls	r0, r0, #0
    4538:	15000008 	strne	r0, [r0, #-8]
    453c:	00000025 	andeq	r0, r0, r5, lsr #32
    4540:	053d1f00 	ldreq	r1, [sp, #-3840]!	; 0xf00
    4544:	1d060000 	stcne	0, cr0, [r6, #-0]
    4548:	0000089d 	muleq	r0, sp, r8
    454c:	0883040e 	stmeq	r3, {r1, r2, r3, sl}
    4550:	25140000 	ldrcs	r0, [r4, #-0]
    4554:	b2000000 	andlt	r0, r0, #0
    4558:	15000008 	strne	r0, [r0, #-8]
    455c:	0000058a 	andeq	r0, r0, sl, lsl #11
    4560:	057a1f00 	ldrbeq	r1, [sl, #-3840]!	; 0xf00
    4564:	22060000 	andcs	r0, r6, #0
    4568:	000008bd 			; <UNDEFINED> instruction: 0x000008bd
    456c:	08a3040e 	stmiaeq	r3!, {r1, r2, r3, sl}
    4570:	01200000 	teqeq	r0, r0
    4574:	00000054 	andeq	r0, r0, r4, asr r0
    4578:	09000c07 	stmdbeq	r0, {r0, r1, r2, sl, fp}
    457c:	4b210000 	blmi	844584 <__bss_end__+0x839d84>
    4580:	00000007 	andeq	r0, r0, r7
    4584:	000b7421 	andeq	r7, fp, r1, lsr #8
    4588:	cc210100 	stfgts	f0, [r1], #-0
    458c:	0400000b 	streq	r0, [r0], #-11
    4590:	00078c21 	andeq	r8, r7, r1, lsr #24
    4594:	2f210500 	svccs	0x00210500
    4598:	06000009 	streq	r0, [r0], -r9
    459c:	000be921 	andeq	lr, fp, r1, lsr #18
    45a0:	f8210700 			; <UNDEFINED> instruction: 0xf8210700
    45a4:	0300000b 	movweq	r0, #11
    45a8:	000c0721 	andeq	r0, ip, r1, lsr #14
    45ac:	05000200 	streq	r0, [r0, #-512]	; 0x200
    45b0:	00000cc6 	andeq	r0, r0, r6, asr #25
    45b4:	08c31507 	stmiaeq	r3, {r0, r1, r2, r8, sl, ip}^
    45b8:	97220000 	strls	r0, [r2, -r0]!
    45bc:	0100000c 	tsteq	r0, ip
    45c0:	0000331d 	andeq	r3, r0, sp, lsl r3
    45c4:	20001c00 	andcs	r1, r0, r0, lsl #24
    45c8:	0cd22220 	lfmeq	f2, 2, [r2], {32}
    45cc:	1e010000 	cdpne	0, 0, cr0, cr1, cr0, {0}
    45d0:	00000033 	andeq	r0, r0, r3, lsr r0
    45d4:	20200028 	eorcs	r0, r0, r8, lsr #32
    45d8:	000ca122 	andeq	sl, ip, r2, lsr #2
    45dc:	331f0100 	tstcc	pc, #0, 2
    45e0:	34000000 	strcc	r0, [r0], #-0
    45e4:	23202000 	teqcs	r0, #0
    45e8:	00000c72 	andeq	r0, r0, r2, ror ip
    45ec:	00255601 	eoreq	r5, r5, r1, lsl #12
    45f0:	98300000 	ldmdals	r0!, {}	; <UNPREDICTABLE>
    45f4:	00340000 	eorseq	r0, r4, r0
    45f8:	9c010000 	stcls	0, cr0, [r1], {-0}
    45fc:	00000998 	muleq	r0, r8, r9
    4600:	6e697024 	cdpvs	0, 6, cr7, cr9, cr4, {1}
    4604:	2c560100 	ldfcse	f0, [r6], {-0}
    4608:	66000000 	strvs	r0, [r0], -r0
    460c:	25000013 	strcs	r0, [r0, #-19]
    4610:	00000c66 	andeq	r0, r0, r6, ror #24
    4614:	002c5901 	eoreq	r5, ip, r1, lsl #18
    4618:	13a00000 	movne	r0, #0
    461c:	6f260000 	svcvs	0x00260000
    4620:	01006666 	tsteq	r0, r6, ror #12
    4624:	00002c5a 	andeq	r2, r0, sl, asr ip
    4628:	0013de00 	andseq	sp, r3, r0, lsl #28
    462c:	984c2700 	stmdals	ip, {r8, r9, sl, sp}^
    4630:	0b5d0000 	bleq	1744638 <__bss_end__+0x1739e38>
    4634:	01280000 	teqeq	r8, r0
    4638:	01f30b50 	mvnseq	r0, r0, asr fp
    463c:	23253550 	teqcs	r5, #80, 10	; 0x14000000
    4640:	818080b4 	strhhi	r8, [r0, r4]
    4644:	29000002 	stmdbcs	r0, {r1}
    4648:	00000c8c 	andeq	r0, r0, ip, lsl #25
    464c:	98144f01 	ldmdals	r4, {r0, r8, r9, sl, fp, lr}
    4650:	001c0000 	andseq	r0, ip, r0
    4654:	9c010000 	stcls	0, cr0, [r1], {-0}
    4658:	000009e8 	andeq	r0, r0, r8, ror #19
    465c:	6e697024 	cdpvs	0, 6, cr7, cr9, cr4, {1}
    4660:	2c4f0100 	stfcse	f0, [pc], {-0}
    4664:	f1000000 	cps	#0
    4668:	24000013 	strcs	r0, [r0], #-19
    466c:	4f010076 	svcmi	0x00010076
    4670:	0000002c 	andeq	r0, r0, ip, lsr #32
    4674:	0000142b 	andeq	r1, r0, fp, lsr #8
    4678:	0098242a 	addseq	r2, r8, sl, lsr #8
    467c:	000a2300 	andeq	r2, sl, r0, lsl #6
    4680:	0009de00 	andeq	sp, r9, r0, lsl #28
    4684:	50012800 	andpl	r2, r1, r0, lsl #16
    4688:	5001f303 	andpl	pc, r1, r3, lsl #6
    468c:	982c2b00 	stmdals	ip!, {r8, r9, fp, sp}
    4690:	0a640000 	beq	1904698 <__bss_end__+0x18f9e98>
    4694:	29000000 	stmdbcs	r0, {}	; <UNPREDICTABLE>
    4698:	00000cab 	andeq	r0, r0, fp, lsr #25
    469c:	98044a01 	stmdals	r4, {r0, r9, fp, lr}
    46a0:	00100000 	andseq	r0, r0, r0
    46a4:	9c010000 	stcls	0, cr0, [r1], {-0}
    46a8:	00000a23 	andeq	r0, r0, r3, lsr #20
    46ac:	6e697024 	cdpvs	0, 6, cr7, cr9, cr4, {1}
    46b0:	2c4a0100 	stfcse	f0, [sl], {-0}
    46b4:	65000000 	strvs	r0, [r0, #-0]
    46b8:	27000014 	smladcs	r0, r4, r0, r0
    46bc:	00009810 	andeq	r9, r0, r0, lsl r8
    46c0:	00000ae0 	andeq	r0, r0, r0, ror #21
    46c4:	03500128 	cmpeq	r0, #40, 2
    46c8:	285001f3 	ldmdacs	r0, {r0, r1, r4, r5, r6, r7, r8}^
    46cc:	30015101 	andcc	r5, r1, r1, lsl #2
    46d0:	59290000 	stmdbpl	r9!, {}	; <UNPREDICTABLE>
    46d4:	0100000c 	tsteq	r0, ip
    46d8:	0097e043 	addseq	lr, r7, r3, asr #32
    46dc:	00002400 	andeq	r2, r0, r0, lsl #8
    46e0:	649c0100 	ldrvs	r0, [ip], #256	; 0x100
    46e4:	2400000a 	strcs	r0, [r0], #-10
    46e8:	006e6970 	rsbeq	r6, lr, r0, ror r9
    46ec:	002c4301 	eoreq	r4, ip, r1, lsl #6
    46f0:	14860000 	strne	r0, [r6], #0
    46f4:	fc270000 	stc2	0, cr0, [r7], #-0
    46f8:	68000097 	stmdavs	r0, {r0, r1, r2, r4, r7}
    46fc:	2800000b 	stmdacs	r0, {r0, r1, r3}
    4700:	0c055001 	stceq	0, cr5, [r5], {1}
    4704:	20200028 	eorcs	r0, r0, r8, lsr #32
    4708:	05510128 	ldrbeq	r0, [r1, #-296]	; 0x128
    470c:	5001f331 	andpl	pc, r1, r1, lsr r3	; <UNPREDICTABLE>
    4710:	29000024 	stmdbcs	r0, {r2, r5}
    4714:	00000cba 			; <UNDEFINED> instruction: 0x00000cba
    4718:	97bc3c01 	ldrls	r3, [ip, r1, lsl #24]!
    471c:	00240000 	eoreq	r0, r4, r0
    4720:	9c010000 	stcls	0, cr0, [r1], {-0}
    4724:	00000aa5 	andeq	r0, r0, r5, lsr #21
    4728:	6e697024 	cdpvs	0, 6, cr7, cr9, cr4, {1}
    472c:	2c3c0100 	ldfcss	f0, [ip], #-0
    4730:	a7000000 	strge	r0, [r0, -r0]
    4734:	27000014 	smladcs	r0, r4, r0, r0
    4738:	000097d8 	ldrdeq	r9, [r0], -r8
    473c:	00000b68 	andeq	r0, r0, r8, ror #22
    4740:	05500128 	ldrbeq	r0, [r0, #-296]	; 0x128
    4744:	20001c0c 	andcs	r1, r0, ip, lsl #24
    4748:	51012820 	tstpl	r1, r0, lsr #16
    474c:	01f33105 	mvnseq	r3, r5, lsl #2
    4750:	00002450 	andeq	r2, r0, r0, asr r4
    4754:	000c7c29 	andeq	r7, ip, r9, lsr #24
    4758:	ac370100 	ldfges	f0, [r7], #-0
    475c:	10000097 	mulne	r0, r7, r0
    4760:	01000000 	mrseq	r0, (UNDEF: 0)
    4764:	000ae09c 	muleq	sl, ip, r0
    4768:	69702400 	ldmdbvs	r0!, {sl, sp}^
    476c:	3701006e 	strcc	r0, [r1, -lr, rrx]
    4770:	0000002c 	andeq	r0, r0, ip, lsr #32
    4774:	000014c8 	andeq	r1, r0, r8, asr #9
    4778:	0097b827 	addseq	fp, r7, r7, lsr #16
    477c:	000ae000 	andeq	lr, sl, r0
    4780:	50012800 	andpl	r2, r1, r0, lsl #16
    4784:	5001f303 	andpl	pc, r1, r3, lsl #6
    4788:	01510128 	cmpeq	r1, r8, lsr #2
    478c:	29000031 	stmdbcs	r0, {r0, r4, r5}
    4790:	00000965 	andeq	r0, r0, r5, ror #18
    4794:	97442801 	strbls	r2, [r4, -r1, lsl #16]
    4798:	00680000 	rsbeq	r0, r8, r0
    479c:	9c010000 	stcls	0, cr0, [r1], {-0}
    47a0:	00000b5d 	andeq	r0, r0, sp, asr fp
    47a4:	6e697024 	cdpvs	0, 6, cr7, cr9, cr4, {1}
    47a8:	2c280100 	stfcss	f0, [r8], #-0
    47ac:	e9000000 	stmdb	r0, {}	; <UNPREDICTABLE>
    47b0:	2c000014 	stccs	0, cr0, [r0], {20}
    47b4:	00000bb1 			; <UNDEFINED> instruction: 0x00000bb1
    47b8:	09002801 	stmdbeq	r0, {r0, fp, sp}
    47bc:	150a0000 	strne	r0, [sl, #-0]
    47c0:	6f2d0000 	svcvs	0x002d0000
    47c4:	01006666 	tsteq	r0, r6, ror #12
    47c8:	00002c2d 	andeq	r2, r0, sp, lsr #24
    47cc:	2d540100 	ldfcse	f0, [r4, #-0]
    47d0:	2f010067 	svccs	0x00010067
    47d4:	0000002c 	andeq	r0, r0, ip, lsr #32
    47d8:	76265601 	strtvc	r5, [r6], -r1, lsl #12
    47dc:	2c310100 	ldfcss	f0, [r1], #-0
    47e0:	2b000000 	blcs	47e8 <_start-0x3818>
    47e4:	2a000015 	bcs	4840 <_start-0x37c0>
    47e8:	00009790 	muleq	r0, r0, r7
    47ec:	00000b5d 	andeq	r0, r0, sp, asr fp
    47f0:	00000b4c 	andeq	r0, r0, ip, asr #22
    47f4:	02500128 	subseq	r0, r0, #40, 2
    47f8:	27000076 	smlsdxcs	r0, r6, r0, r0
    47fc:	000097a4 	andeq	r9, r0, r4, lsr #15
    4800:	00000b68 	andeq	r0, r0, r8, ror #22
    4804:	02500128 	subseq	r0, r0, #40, 2
    4808:	00000076 	andeq	r0, r0, r6, ror r0
    480c:	0006c82e 	andeq	ip, r6, lr, lsr #16
    4810:	0006c800 	andeq	ip, r6, r0, lsl #16
    4814:	2ea70600 	cdpcs	6, 10, cr0, cr7, cr0, {0}
    4818:	0000067a 	andeq	r0, r0, sl, ror r6
    481c:	0000067a 	andeq	r0, r0, sl, ror r6
    4820:	24009b06 	strcs	r9, [r0], #-2822	; 0xb06
    4824:	0400000c 	streq	r0, [r0], #-12
    4828:	00142600 	andseq	r2, r4, r0, lsl #12
    482c:	9b010400 	blls	45834 <__bss_end__+0x3b034>
    4830:	0c00000a 	stceq	0, cr0, [r0], {10}
    4834:	00000cdc 	ldrdeq	r0, [r0], -ip
    4838:	0000080d 	andeq	r0, r0, sp, lsl #16
    483c:	00009864 	andeq	r9, r0, r4, ror #16
    4840:	00000194 	muleq	r0, r4, r1
    4844:	00001127 	andeq	r1, r0, r7, lsr #2
    4848:	69050402 	stmdbvs	r5, {r1, sl}
    484c:	0300746e 	movweq	r7, #1134	; 0x46e
    4850:	01370704 	teqeq	r7, r4, lsl #14
    4854:	01030000 	mrseq	r0, (UNDEF: 3)
    4858:	0000e506 	andeq	lr, r0, r6, lsl #10
    485c:	05020300 	streq	r0, [r2, #-768]	; 0x300
    4860:	00000164 	andeq	r0, r0, r4, ror #2
    4864:	5b050403 	blpl	145878 <__bss_end__+0x13b078>
    4868:	03000001 	movweq	r0, #1
    486c:	01560508 	cmpeq	r6, r8, lsl #10
    4870:	01030000 	mrseq	r0, (UNDEF: 3)
    4874:	0000e308 	andeq	lr, r0, r8, lsl #6
    4878:	07020300 	streq	r0, [r2, -r0, lsl #6]
    487c:	000000f1 	strdeq	r0, [r0], -r1
    4880:	32070403 	andcc	r0, r7, #50331648	; 0x3000000
    4884:	03000001 	movweq	r0, #1
    4888:	012d0708 	teqeq	sp, r8, lsl #14
    488c:	b0040000 	andlt	r0, r4, r0
    4890:	02000009 	andeq	r0, r0, #9
    4894:	00002507 	andeq	r2, r0, r7, lsl #10
    4898:	099a0400 	ldmibeq	sl, {sl}
    489c:	2c030000 	stccs	0, cr0, [r3], {-0}
    48a0:	00000041 	andeq	r0, r0, r1, asr #32
    48a4:	000a7604 	andeq	r7, sl, r4, lsl #12
    48a8:	41720300 	cmnmi	r2, r0, lsl #6
    48ac:	05000000 	streq	r0, [r0, #-0]
    48b0:	0000093e 	andeq	r0, r0, lr, lsr r9
    48b4:	2c016504 	cfstr32cs	mvfx6, [r1], {4}
    48b8:	06000000 	streq	r0, [r0], -r0
    48bc:	b7a60304 	strlt	r0, [r6, r4, lsl #6]!
    48c0:	07000000 	streq	r0, [r0, -r0]
    48c4:	00000929 	andeq	r0, r0, r9, lsr #18
    48c8:	008ca803 	addeq	sl, ip, r3, lsl #16
    48cc:	c5070000 	strgt	r0, [r7, #-0]
    48d0:	03000008 	movweq	r0, #8
    48d4:	0000b7a9 	andeq	fp, r0, r9, lsr #15
    48d8:	4f080000 	svcmi	0x00080000
    48dc:	c7000000 	strgt	r0, [r0, -r0]
    48e0:	09000000 	stmdbeq	r0, {}	; <UNPREDICTABLE>
    48e4:	000000c7 	andeq	r0, r0, r7, asr #1
    48e8:	04030003 	streq	r0, [r3], #-3
    48ec:	00014d07 	andeq	r4, r1, r7, lsl #26
    48f0:	03080a00 	movweq	r0, #35328	; 0x8a00
    48f4:	0000efa3 	andeq	lr, r0, r3, lsr #31
    48f8:	0a5b0b00 	beq	16c7500 <__bss_end__+0x16bcd00>
    48fc:	a5030000 	strge	r0, [r3, #-0]
    4900:	00000025 	andeq	r0, r0, r5, lsr #32
    4904:	0a630b00 	beq	18c750c <__bss_end__+0x18bcd0c>
    4908:	aa030000 	bge	c4910 <__bss_end__+0xba110>
    490c:	00000098 	muleq	r0, r8, r0
    4910:	ee040004 	cdp	0, 0, cr0, cr4, cr4, {0}
    4914:	03000009 	movweq	r0, #9
    4918:	0000ceab 	andeq	ip, r0, fp, lsr #29
    491c:	088e0400 	stmeq	lr, {sl}
    4920:	af030000 	svcge	0x00030000
    4924:	0000006b 	andeq	r0, r0, fp, rrx
    4928:	040d040c 	streq	r0, [sp], #-1036	; 0x40c
    492c:	0000010d 	andeq	r0, r0, sp, lsl #2
    4930:	ec080103 	stfs	f0, [r8], {3}
    4934:	0e000000 	cdpeq	0, 0, cr0, cr0, cr0, {0}
    4938:	0000010d 	andeq	r0, r0, sp, lsl #2
    493c:	000b1804 	andeq	r1, fp, r4, lsl #16
    4940:	5d160500 	cfldr32pl	mvfx0, [r6, #-0]
    4944:	0f000000 	svceq	0x00000000
    4948:	0000089f 	muleq	r0, pc, r8	; <UNPREDICTABLE>
    494c:	772d0518 			; <UNDEFINED> instruction: 0x772d0518
    4950:	0b000001 	bleq	495c <_start-0x36a4>
    4954:	00000a0f 	andeq	r0, r0, pc, lsl #20
    4958:	01772f05 	cmneq	r7, r5, lsl #30
    495c:	10000000 	andne	r0, r0, r0
    4960:	05006b5f 	streq	r6, [r0, #-2911]	; 0xb5f
    4964:	00002530 	andeq	r2, r0, r0, lsr r5
    4968:	460b0400 	strmi	r0, [fp], -r0, lsl #8
    496c:	0500000a 	streq	r0, [r0, #-10]
    4970:	00002530 	andeq	r2, r0, r0, lsr r5
    4974:	7a0b0800 	bvc	2c697c <__bss_end__+0x2bc17c>
    4978:	05000008 	streq	r0, [r0, #-8]
    497c:	00002530 	andeq	r2, r0, r0, lsr r5
    4980:	5f0b0c00 	svcpl	0x000b0c00
    4984:	0500000b 	streq	r0, [r0, #-11]
    4988:	00002530 	andeq	r2, r0, r0, lsr r5
    498c:	5f101000 	svcpl	0x00101000
    4990:	31050078 	tstcc	r5, r8, ror r0
    4994:	0000017d 	andeq	r0, r0, sp, ror r1
    4998:	040d0014 	streq	r0, [sp], #-20
    499c:	00000124 	andeq	r0, r0, r4, lsr #2
    49a0:	00011908 	andeq	r1, r1, r8, lsl #18
    49a4:	00018d00 	andeq	r8, r1, r0, lsl #26
    49a8:	00c70900 	sbceq	r0, r7, r0, lsl #18
    49ac:	00000000 	andeq	r0, r0, r0
    49b0:	0008c00f 	andeq	ip, r8, pc
    49b4:	35052400 	strcc	r2, [r5, #-1024]	; 0x400
    49b8:	00000206 	andeq	r0, r0, r6, lsl #4
    49bc:	0007780b 	andeq	r7, r7, fp, lsl #16
    49c0:	25370500 	ldrcs	r0, [r7, #-1280]!	; 0x500
    49c4:	00000000 	andeq	r0, r0, r0
    49c8:	000a7e0b 	andeq	r7, sl, fp, lsl #28
    49cc:	25380500 	ldrcs	r0, [r8, #-1280]!	; 0x500
    49d0:	04000000 	streq	r0, [r0], #-0
    49d4:	0007a60b 	andeq	sl, r7, fp, lsl #12
    49d8:	25390500 	ldrcs	r0, [r9, #-1280]!	; 0x500
    49dc:	08000000 	stmdaeq	r0, {}	; <UNPREDICTABLE>
    49e0:	000c4f0b 	andeq	r4, ip, fp, lsl #30
    49e4:	253a0500 	ldrcs	r0, [sl, #-1280]!	; 0x500
    49e8:	0c000000 	stceq	0, cr0, [r0], {-0}
    49ec:	00097e0b 	andeq	r7, r9, fp, lsl #28
    49f0:	253b0500 	ldrcs	r0, [fp, #-1280]!	; 0x500
    49f4:	10000000 	andne	r0, r0, r0
    49f8:	0009530b 	andeq	r5, r9, fp, lsl #6
    49fc:	253c0500 	ldrcs	r0, [ip, #-1280]!	; 0x500
    4a00:	14000000 	strne	r0, [r0], #-0
    4a04:	000b640b 	andeq	r6, fp, fp, lsl #8
    4a08:	253d0500 	ldrcs	r0, [sp, #-1280]!	; 0x500
    4a0c:	18000000 	stmdane	r0, {}	; <UNPREDICTABLE>
    4a10:	0009d00b 	andeq	sp, r9, fp
    4a14:	253e0500 	ldrcs	r0, [lr, #-1280]!	; 0x500
    4a18:	1c000000 	stcne	0, cr0, [r0], {-0}
    4a1c:	000c160b 	andeq	r1, ip, fp, lsl #12
    4a20:	253f0500 	ldrcs	r0, [pc, #-1280]!	; 4528 <_start-0x3ad8>
    4a24:	20000000 	andcs	r0, r0, r0
    4a28:	07b51100 	ldreq	r1, [r5, r0, lsl #2]!
    4a2c:	01080000 	mrseq	r0, (UNDEF: 8)
    4a30:	02464805 	subeq	r4, r6, #327680	; 0x50000
    4a34:	610b0000 	mrsvs	r0, (UNDEF: 11)
    4a38:	05000008 	streq	r0, [r0, #-8]
    4a3c:	00024649 	andeq	r4, r2, r9, asr #12
    4a40:	f90b0000 			; <UNDEFINED> instruction: 0xf90b0000
    4a44:	05000006 	streq	r0, [r0, #-6]
    4a48:	0002464a 	andeq	r4, r2, sl, asr #12
    4a4c:	0a128000 	beq	4a4a54 <__bss_end__+0x49a254>
    4a50:	0500000b 	streq	r0, [r0, #-11]
    4a54:	0001194c 	andeq	r1, r1, ip, asr #18
    4a58:	12010000 	andne	r0, r1, #0
    4a5c:	000007da 	ldrdeq	r0, [r0], -sl
    4a60:	01194f05 	tsteq	r9, r5, lsl #30
    4a64:	01040000 	mrseq	r0, (UNDEF: 4)
    4a68:	01050800 	tsteq	r5, r0, lsl #16
    4a6c:	02560000 	subseq	r0, r6, #0
    4a70:	c7090000 	strgt	r0, [r9, -r0]
    4a74:	1f000000 	svcne	0x00000000
    4a78:	09871100 	stmibeq	r7, {r8, ip}
    4a7c:	01900000 	orrseq	r0, r0, r0
    4a80:	02945b05 	addseq	r5, r4, #5120	; 0x1400
    4a84:	0f0b0000 	svceq	0x000b0000
    4a88:	0500000a 	streq	r0, [r0, #-10]
    4a8c:	0002945c 	andeq	r9, r2, ip, asr r4
    4a90:	270b0000 	strcs	r0, [fp, -r0]
    4a94:	0500000a 	streq	r0, [r0, #-10]
    4a98:	0000255d 	andeq	r2, r0, sp, asr r5
    4a9c:	750b0400 	strvc	r0, [fp, #-1024]	; 0x400
    4aa0:	05000008 	streq	r0, [r0, #-8]
    4aa4:	00029a5f 	andeq	r9, r2, pc, asr sl
    4aa8:	b50b0800 	strlt	r0, [fp, #-2048]	; 0x800
    4aac:	05000007 	streq	r0, [r0, #-7]
    4ab0:	00020660 	andeq	r0, r2, r0, ror #12
    4ab4:	0d008800 	stceq	8, cr8, [r0, #-0]
    4ab8:	00025604 	andeq	r5, r2, r4, lsl #12
    4abc:	02aa0800 	adceq	r0, sl, #0, 16
    4ac0:	02aa0000 	adceq	r0, sl, #0
    4ac4:	c7090000 	strgt	r0, [r9, -r0]
    4ac8:	1f000000 	svcne	0x00000000
    4acc:	b0040d00 	andlt	r0, r4, r0, lsl #26
    4ad0:	13000002 	movwne	r0, #2
    4ad4:	0009da0f 	andeq	sp, r9, pc, lsl #20
    4ad8:	73050800 	movwvc	r0, #22528	; 0x5800
    4adc:	000002d6 	ldrdeq	r0, [r0], -r6
    4ae0:	00079b0b 	andeq	r9, r7, fp, lsl #22
    4ae4:	d6740500 	ldrbtle	r0, [r4], -r0, lsl #10
    4ae8:	00000002 	andeq	r0, r0, r2
    4aec:	0001dc0b 	andeq	sp, r1, fp, lsl #24
    4af0:	25750500 	ldrbcs	r0, [r5, #-1280]!	; 0x500
    4af4:	04000000 	streq	r0, [r0], #-0
    4af8:	4f040d00 	svcmi	0x00040d00
    4afc:	0f000000 	svceq	0x00000000
    4b00:	000009f9 	strdeq	r0, [r0], -r9
    4b04:	06b30568 	ldrteq	r0, [r3], r8, ror #10
    4b08:	10000004 	andne	r0, r0, r4
    4b0c:	0500705f 	streq	r7, [r0, #-95]	; 0x5f
    4b10:	0002d6b4 			; <UNDEFINED> instruction: 0x0002d6b4
    4b14:	5f100000 	svcpl	0x00100000
    4b18:	b5050072 	strlt	r0, [r5, #-114]	; 0x72
    4b1c:	00000025 	andeq	r0, r0, r5, lsr #32
    4b20:	775f1004 	ldrbvc	r1, [pc, -r4]
    4b24:	25b60500 	ldrcs	r0, [r6, #1280]!	; 0x500
    4b28:	08000000 	stmdaeq	r0, {}	; <UNPREDICTABLE>
    4b2c:	0007d30b 	andeq	sp, r7, fp, lsl #6
    4b30:	3ab70500 	bcc	fedc5f38 <__bss_end__+0xfedbb738>
    4b34:	0c000000 	stceq	0, cr0, [r0], {-0}
    4b38:	0008e60b 	andeq	lr, r8, fp, lsl #12
    4b3c:	3ab80500 	bcc	fee05f44 <__bss_end__+0xfedfb744>
    4b40:	0e000000 	cdpeq	0, 0, cr0, cr0, cr0, {0}
    4b44:	66625f10 	uqadd16vs	r5, r2, r0
    4b48:	b1b90500 			; <UNDEFINED> instruction: 0xb1b90500
    4b4c:	10000002 	andne	r0, r0, r2
    4b50:	0007420b 	andeq	r4, r7, fp, lsl #4
    4b54:	25ba0500 	ldrcs	r0, [sl, #1280]!	; 0x500
    4b58:	18000000 	stmdane	r0, {}	; <UNPREDICTABLE>
    4b5c:	0007c30b 	andeq	ip, r7, fp, lsl #6
    4b60:	05c10500 	strbeq	r0, [r1, #1280]	; 0x500
    4b64:	1c000001 	stcne	0, cr0, [r0], {1}
    4b68:	000c760b 	andeq	r7, ip, fp, lsl #12
    4b6c:	61c30500 	bicvs	r0, r3, r0, lsl #10
    4b70:	20000005 	andcs	r0, r0, r5
    4b74:	000c900b 	andeq	r9, ip, fp
    4b78:	8bc50500 	blhi	ff145f80 <__bss_end__+0xff13b780>
    4b7c:	24000005 	strcs	r0, [r0], #-5
    4b80:	000a6b0b 	andeq	r6, sl, fp, lsl #22
    4b84:	afc80500 	svcge	0x00c80500
    4b88:	28000005 	stmdacs	r0, {r0, r2}
    4b8c:	000c300b 	andeq	r3, ip, fp
    4b90:	c9c90500 	stmibgt	r9, {r8, sl}^
    4b94:	2c000005 	stccs	0, cr0, [r0], {5}
    4b98:	62755f10 	rsbsvs	r5, r5, #16, 30	; 0x40
    4b9c:	b1cc0500 	biclt	r0, ip, r0, lsl #10
    4ba0:	30000002 	andcc	r0, r0, r2
    4ba4:	70755f10 	rsbsvc	r5, r5, r0, lsl pc
    4ba8:	d6cd0500 	strble	r0, [sp], r0, lsl #10
    4bac:	38000002 	stmdacc	r0, {r1}
    4bb0:	72755f10 	rsbsvc	r5, r5, #16, 30	; 0x40
    4bb4:	25ce0500 	strbcs	r0, [lr, #1280]	; 0x500
    4bb8:	3c000000 	stccc	0, cr0, [r0], {-0}
    4bbc:	0007860b 	andeq	r8, r7, fp, lsl #12
    4bc0:	cfd10500 	svcgt	0x00d10500
    4bc4:	40000005 	andmi	r0, r0, r5
    4bc8:	000bdb0b 	andeq	sp, fp, fp, lsl #22
    4bcc:	dfd20500 	svcle	0x00d20500
    4bd0:	43000005 	movwmi	r0, #5
    4bd4:	626c5f10 	rsbvs	r5, ip, #16, 30	; 0x40
    4bd8:	b1d50500 	bicslt	r0, r5, r0, lsl #10
    4bdc:	44000002 	strmi	r0, [r0], #-2
    4be0:	0007e90b 	andeq	lr, r7, fp, lsl #18
    4be4:	25d80500 	ldrbcs	r0, [r8, #1280]	; 0x500
    4be8:	4c000000 	stcmi	0, cr0, [r0], {-0}
    4bec:	00095d0b 	andeq	r5, r9, fp, lsl #26
    4bf0:	76d90500 	ldrbvc	r0, [r9], r0, lsl #10
    4bf4:	50000000 	andpl	r0, r0, r0
    4bf8:	000bc60b 	andeq	ip, fp, fp, lsl #12
    4bfc:	24dc0500 	ldrbcs	r0, [ip], #1280	; 0x500
    4c00:	54000004 	strpl	r0, [r0], #-4
    4c04:	0009450b 	andeq	r4, r9, fp, lsl #10
    4c08:	fae00500 	blx	ff806010 <__bss_end__+0xff7fb810>
    4c0c:	58000000 	stmdapl	r0, {}	; <UNPREDICTABLE>
    4c10:	000a010b 	andeq	r0, sl, fp, lsl #2
    4c14:	efe20500 	svc	0x00e20500
    4c18:	5c000000 	stcpl	0, cr0, [r0], {-0}
    4c1c:	00094b0b 	andeq	r4, r9, fp, lsl #22
    4c20:	25e30500 	strbcs	r0, [r3, #1280]!	; 0x500
    4c24:	64000000 	strvs	r0, [r0], #-0
    4c28:	00251400 	eoreq	r1, r5, r0, lsl #8
    4c2c:	04240000 	strteq	r0, [r4], #-0
    4c30:	24150000 	ldrcs	r0, [r5], #-0
    4c34:	15000004 	strne	r0, [r0, #-4]
    4c38:	00000105 	andeq	r0, r0, r5, lsl #2
    4c3c:	00010715 	andeq	r0, r1, r5, lsl r7
    4c40:	00251500 	eoreq	r1, r5, r0, lsl #10
    4c44:	0d000000 	stceq	0, cr0, [r0, #-0]
    4c48:	00042f04 	andeq	r2, r4, r4, lsl #30
    4c4c:	04240e00 	strteq	r0, [r4], #-3584	; 0xe00
    4c50:	4e160000 	cdpmi	0, 1, cr0, cr6, cr0, {0}
    4c54:	2800000a 	stmdacs	r0, {r1, r3}
    4c58:	02380504 	eorseq	r0, r8, #4, 10	; 0x1000000
    4c5c:	00000561 	andeq	r0, r0, r1, ror #10
    4c60:	0009c917 	andeq	ip, r9, r7, lsl r9
    4c64:	023a0500 	eorseq	r0, sl, #0, 10
    4c68:	00000025 	andeq	r0, r0, r5, lsr #32
    4c6c:	07e21700 	strbeq	r1, [r2, r0, lsl #14]!
    4c70:	3f050000 	svccc	0x00050000
    4c74:	00063602 	andeq	r3, r6, r2, lsl #12
    4c78:	d6170400 	ldrle	r0, [r7], -r0, lsl #8
    4c7c:	05000008 	streq	r0, [r0, #-8]
    4c80:	0636023f 			; <UNDEFINED> instruction: 0x0636023f
    4c84:	17080000 	strne	r0, [r8, -r0]
    4c88:	00000897 	muleq	r0, r7, r8
    4c8c:	36023f05 	strcc	r3, [r2], -r5, lsl #30
    4c90:	0c000006 	stceq	0, cr0, [r0], {6}
    4c94:	000a2217 	andeq	r2, sl, r7, lsl r2
    4c98:	02410500 	subeq	r0, r1, #0, 10
    4c9c:	00000025 	andeq	r0, r0, r5, lsr #32
    4ca0:	070d1710 	smladeq	sp, r0, r7, r1
    4ca4:	42050000 	andmi	r0, r5, #0
    4ca8:	00081802 	andeq	r1, r8, r2, lsl #16
    4cac:	40171400 	andsmi	r1, r7, r0, lsl #8
    4cb0:	0500000b 	streq	r0, [r0, #-11]
    4cb4:	00250244 	eoreq	r0, r5, r4, asr #4
    4cb8:	17300000 	ldrne	r0, [r0, -r0]!
    4cbc:	00000a2c 	andeq	r0, r0, ip, lsr #20
    4cc0:	85024505 	strhi	r4, [r2, #-1285]	; 0x505
    4cc4:	34000005 	strcc	r0, [r0], #-5
    4cc8:	00098f17 	andeq	r8, r9, r7, lsl pc
    4ccc:	02470500 	subeq	r0, r7, #0, 10
    4cd0:	00000025 	andeq	r0, r0, r5, lsr #32
    4cd4:	0a3c1738 	beq	f0a9bc <__bss_end__+0xf001bc>
    4cd8:	49050000 	stmdbmi	r5, {}	; <UNPREDICTABLE>
    4cdc:	00083302 	andeq	r3, r8, r2, lsl #6
    4ce0:	21173c00 	tstcs	r7, r0, lsl #24
    4ce4:	05000009 	streq	r0, [r0, #-9]
    4ce8:	0177024c 	cmneq	r7, ip, asr #4
    4cec:	17400000 	strbne	r0, [r0, -r0]
    4cf0:	000008b6 			; <UNDEFINED> instruction: 0x000008b6
    4cf4:	25024d05 	strcs	r4, [r2, #-3333]	; 0xd05
    4cf8:	44000000 	strmi	r0, [r0], #-0
    4cfc:	000c4a17 	andeq	r4, ip, r7, lsl sl
    4d00:	024e0500 	subeq	r0, lr, #0, 10
    4d04:	00000177 	andeq	r0, r0, r7, ror r1
    4d08:	09a61748 	stmibeq	r6!, {r3, r6, r8, r9, sl, ip}
    4d0c:	4f050000 	svcmi	0x00050000
    4d10:	00083902 	andeq	r3, r8, r2, lsl #18
    4d14:	de174c00 	cdple	12, 1, cr4, cr7, cr0, {0}
    4d18:	05000008 	streq	r0, [r0, #-8]
    4d1c:	00250252 	eoreq	r0, r5, r2, asr r2
    4d20:	17500000 	ldrbne	r0, [r0, -r0]
    4d24:	00000805 	andeq	r0, r0, r5, lsl #16
    4d28:	07025305 	streq	r5, [r2, -r5, lsl #6]
    4d2c:	54000001 	strpl	r0, [r0], #-1
    4d30:	0009c217 	andeq	ip, r9, r7, lsl r2
    4d34:	02760500 	rsbseq	r0, r6, #0, 10
    4d38:	000007f6 	strdeq	r0, [r0], -r6
    4d3c:	09871858 	stmibeq	r7, {r3, r4, r6, fp, ip}
    4d40:	7a050000 	bvc	144d48 <__bss_end__+0x13a548>
    4d44:	00029402 	andeq	r9, r2, r2, lsl #8
    4d48:	18014800 	stmdane	r1, {fp, lr}
    4d4c:	000008f3 	strdeq	r0, [r0], -r3
    4d50:	56027b05 	strpl	r7, [r2], -r5, lsl #22
    4d54:	4c000002 	stcmi	0, cr0, [r0], {2}
    4d58:	0bac1801 	bleq	feb0ad64 <__bss_end__+0xfeb00564>
    4d5c:	7f050000 	svcvc	0x00050000
    4d60:	00084a02 	andeq	r4, r8, r2, lsl #20
    4d64:	1802dc00 	stmdane	r2, {sl, fp, ip, lr, pc}
    4d68:	000007cb 	andeq	r0, r0, fp, asr #15
    4d6c:	fb028405 	blx	a5d8a <__bss_end__+0x9b58a>
    4d70:	e0000005 	and	r0, r0, r5
    4d74:	07b01802 	ldreq	r1, [r0, r2, lsl #16]!
    4d78:	85050000 	strhi	r0, [r5, #-0]
    4d7c:	00085602 	andeq	r5, r8, r2, lsl #12
    4d80:	0002ec00 	andeq	lr, r2, r0, lsl #24
    4d84:	0406040d 	streq	r0, [r6], #-1037	; 0x40d
    4d88:	25140000 	ldrcs	r0, [r4, #-0]
    4d8c:	85000000 	strhi	r0, [r0, #-0]
    4d90:	15000005 	strne	r0, [r0, #-5]
    4d94:	00000424 	andeq	r0, r0, r4, lsr #8
    4d98:	00010515 	andeq	r0, r1, r5, lsl r5
    4d9c:	05851500 	streq	r1, [r5, #1280]	; 0x500
    4da0:	25150000 	ldrcs	r0, [r5, #-0]
    4da4:	00000000 	andeq	r0, r0, r0
    4da8:	0114040d 	tsteq	r4, sp, lsl #8
    4dac:	040d0000 	streq	r0, [sp], #-0
    4db0:	00000567 	andeq	r0, r0, r7, ror #10
    4db4:	00008114 	andeq	r8, r0, r4, lsl r1
    4db8:	0005af00 	andeq	sl, r5, r0, lsl #30
    4dbc:	04241500 	strteq	r1, [r4], #-1280	; 0x500
    4dc0:	05150000 	ldreq	r0, [r5, #-0]
    4dc4:	15000001 	strne	r0, [r0, #-1]
    4dc8:	00000081 	andeq	r0, r0, r1, lsl #1
    4dcc:	00002515 	andeq	r2, r0, r5, lsl r5
    4dd0:	040d0000 	streq	r0, [sp], #-0
    4dd4:	00000591 	muleq	r0, r1, r5
    4dd8:	00002514 	andeq	r2, r0, r4, lsl r5
    4ddc:	0005c900 	andeq	ip, r5, r0, lsl #18
    4de0:	04241500 	strteq	r1, [r4], #-1280	; 0x500
    4de4:	05150000 	ldreq	r0, [r5, #-0]
    4de8:	00000001 	andeq	r0, r0, r1
    4dec:	05b5040d 	ldreq	r0, [r5, #1037]!	; 0x40d
    4df0:	4f080000 	svcmi	0x00080000
    4df4:	df000000 	svcle	0x00000000
    4df8:	09000005 	stmdbeq	r0, {r0, r2}
    4dfc:	000000c7 	andeq	r0, r0, r7, asr #1
    4e00:	4f080002 	svcmi	0x00080002
    4e04:	ef000000 	svc	0x00000000
    4e08:	09000005 	stmdbeq	r0, {r0, r2}
    4e0c:	000000c7 	andeq	r0, r0, r7, asr #1
    4e10:	e7050000 	str	r0, [r5, -r0]
    4e14:	05000009 	streq	r0, [r0, #-9]
    4e18:	02dc011d 	sbcseq	r0, ip, #1073741831	; 0x40000007
    4e1c:	6e190000 	cdpvs	0, 1, cr0, cr9, cr0, {0}
    4e20:	0c00000b 	stceq	0, cr0, [r0], {11}
    4e24:	30012105 	andcc	r2, r1, r5, lsl #2
    4e28:	17000006 	strne	r0, [r0, -r6]
    4e2c:	00000a0f 	andeq	r0, r0, pc, lsl #20
    4e30:	30012305 	andcc	r2, r1, r5, lsl #6
    4e34:	00000006 	andeq	r0, r0, r6
    4e38:	0008ec17 	andeq	lr, r8, r7, lsl ip
    4e3c:	01240500 	teqeq	r4, r0, lsl #10
    4e40:	00000025 	andeq	r0, r0, r5, lsr #32
    4e44:	09e11704 	stmibeq	r1!, {r2, r8, r9, sl, ip}^
    4e48:	25050000 	strcs	r0, [r5, #-0]
    4e4c:	00063601 	andeq	r3, r6, r1, lsl #12
    4e50:	0d000800 	stceq	8, cr0, [r0, #-0]
    4e54:	0005fb04 	andeq	pc, r5, r4, lsl #22
    4e58:	ef040d00 	svc	0x00040d00
    4e5c:	19000005 	stmdbne	r0, {r0, r2}
    4e60:	00000705 	andeq	r0, r0, r5, lsl #14
    4e64:	013d050e 	teqeq	sp, lr, lsl #10
    4e68:	00000671 	andeq	r0, r0, r1, ror r6
    4e6c:	000a5517 	andeq	r5, sl, r7, lsl r5
    4e70:	013e0500 	teqeq	lr, r0, lsl #10
    4e74:	00000671 	andeq	r0, r0, r1, ror r6
    4e78:	0a8f1700 	beq	fe3caa80 <__bss_end__+0xfe3c0280>
    4e7c:	3f050000 	svccc	0x00050000
    4e80:	00067101 	andeq	r7, r6, r1, lsl #2
    4e84:	13170600 	tstne	r7, #0, 12
    4e88:	0500000b 	streq	r0, [r0, #-11]
    4e8c:	00560140 	subseq	r0, r6, r0, asr #2
    4e90:	000c0000 	andeq	r0, ip, r0
    4e94:	00005608 	andeq	r5, r0, r8, lsl #12
    4e98:	00068100 	andeq	r8, r6, r0, lsl #2
    4e9c:	00c70900 	sbceq	r0, r7, r0, lsl #18
    4ea0:	00020000 	andeq	r0, r2, r0
    4ea4:	5705d01a 	smladpl	r5, sl, r0, sp
    4ea8:	00078202 	andeq	r8, r7, r2, lsl #4
    4eac:	0b521700 	bleq	148aab4 <__bss_end__+0x14802b4>
    4eb0:	59050000 	stmdbpl	r5, {}	; <UNPREDICTABLE>
    4eb4:	00002c02 	andeq	r2, r0, r2, lsl #24
    4eb8:	fd170000 	ldc2	0, cr0, [r7, #-0]
    4ebc:	0500000a 	streq	r0, [r0, #-10]
    4ec0:	0107025a 	tsteq	r7, sl, asr r2
    4ec4:	17040000 	strne	r0, [r4, -r0]
    4ec8:	00000908 	andeq	r0, r0, r8, lsl #18
    4ecc:	82025b05 	andhi	r5, r2, #5120	; 0x1400
    4ed0:	08000007 	stmdaeq	r0, {r0, r1, r2}
    4ed4:	000c2117 	andeq	r2, ip, r7, lsl r1
    4ed8:	025c0500 	subseq	r0, ip, #0, 10
    4edc:	0000018d 	andeq	r0, r0, sp, lsl #3
    4ee0:	08a71724 	stmiaeq	r7!, {r2, r5, r8, r9, sl, ip}
    4ee4:	5d050000 	stcpl	0, cr0, [r5, #-0]
    4ee8:	00002502 	andeq	r2, r0, r2, lsl #10
    4eec:	0a174800 	beq	5d6ef4 <__bss_end__+0x5cc6f4>
    4ef0:	0500000a 	streq	r0, [r0, #-10]
    4ef4:	0064025e 	rsbeq	r0, r4, lr, asr r2
    4ef8:	17500000 	ldrbne	r0, [r0, -r0]
    4efc:	00000c37 	andeq	r0, r0, r7, lsr ip
    4f00:	3c025f05 	stccc	15, cr5, [r2], {5}
    4f04:	58000006 	stmdapl	r0, {r1, r2}
    4f08:	000a1517 	andeq	r1, sl, r7, lsl r5
    4f0c:	02600500 	rsbeq	r0, r0, #0, 10
    4f10:	000000ef 	andeq	r0, r0, pc, ror #1
    4f14:	0c3c1768 	ldceq	7, cr1, [ip], #-416	; 0xfffffe60
    4f18:	61050000 	mrsvs	r0, (UNDEF: 5)
    4f1c:	0000ef02 	andeq	lr, r0, r2, lsl #30
    4f20:	6a177000 	bvs	5e0f28 <__bss_end__+0x5d6728>
    4f24:	05000007 	streq	r0, [r0, #-7]
    4f28:	00ef0262 	rsceq	r0, pc, r2, ror #4
    4f2c:	17780000 	ldrbne	r0, [r8, -r0]!
    4f30:	00000b8e 	andeq	r0, r0, lr, lsl #23
    4f34:	92026305 	andls	r6, r2, #335544320	; 0x14000000
    4f38:	80000007 	andhi	r0, r0, r7
    4f3c:	0008fc17 	andeq	pc, r8, r7, lsl ip	; <UNPREDICTABLE>
    4f40:	02640500 	rsbeq	r0, r4, #0, 10
    4f44:	000007a2 	andeq	r0, r0, r2, lsr #15
    4f48:	0b201788 	bleq	80ad70 <__bss_end__+0x800570>
    4f4c:	65050000 	strvs	r0, [r5, #-0]
    4f50:	00002502 	andeq	r2, r0, r2, lsl #10
    4f54:	5317a000 	tstpl	r7, #0
    4f58:	05000008 	streq	r0, [r0, #-8]
    4f5c:	00ef0266 	rsceq	r0, pc, r6, ror #4
    4f60:	17a40000 	strne	r0, [r4, r0]!
    4f64:	0000075b 	andeq	r0, r0, fp, asr r7
    4f68:	ef026705 	svc	0x00026705
    4f6c:	ac000000 	stcge	0, cr0, [r0], {-0}
    4f70:	00084217 	andeq	r4, r8, r7, lsl r2
    4f74:	02680500 	rsbeq	r0, r8, #0, 10
    4f78:	000000ef 	andeq	r0, r0, pc, ror #1
    4f7c:	072217b4 			; <UNDEFINED> instruction: 0x072217b4
    4f80:	69050000 	stmdbvs	r5, {}	; <UNPREDICTABLE>
    4f84:	0000ef02 	andeq	lr, r0, r2, lsl #30
    4f88:	3117bc00 	tstcc	r7, r0, lsl #24
    4f8c:	05000007 	streq	r0, [r0, #-7]
    4f90:	00ef026a 	rsceq	r0, pc, sl, ror #4
    4f94:	17c40000 	strbne	r0, [r4, r0]
    4f98:	000009c7 	andeq	r0, r0, r7, asr #19
    4f9c:	25026b05 	strcs	r6, [r2, #-2821]	; 0xb05
    4fa0:	cc000000 	stcgt	0, cr0, [r0], {-0}
    4fa4:	010d0800 	tsteq	sp, r0, lsl #16
    4fa8:	07920000 	ldreq	r0, [r2, r0]
    4fac:	c7090000 	strgt	r0, [r9, -r0]
    4fb0:	19000000 	stmdbne	r0, {}	; <UNPREDICTABLE>
    4fb4:	010d0800 	tsteq	sp, r0, lsl #16
    4fb8:	07a20000 	streq	r0, [r2, r0]!
    4fbc:	c7090000 	strgt	r0, [r9, -r0]
    4fc0:	07000000 	streq	r0, [r0, -r0]
    4fc4:	010d0800 	tsteq	sp, r0, lsl #16
    4fc8:	07b20000 	ldreq	r0, [r2, r0]!
    4fcc:	c7090000 	strgt	r0, [r9, -r0]
    4fd0:	17000000 	strne	r0, [r0, -r0]
    4fd4:	05f01a00 	ldrbeq	r1, [r0, #2560]!	; 0xa00
    4fd8:	07d60270 			; <UNDEFINED> instruction: 0x07d60270
    4fdc:	77170000 	ldrvc	r0, [r7, -r0]
    4fe0:	05000009 	streq	r0, [r0, #-9]
    4fe4:	07d60273 			; <UNDEFINED> instruction: 0x07d60273
    4fe8:	17000000 	strne	r0, [r0, -r0]
    4fec:	00000b85 	andeq	r0, r0, r5, lsl #23
    4ff0:	e6027405 	str	r7, [r2], -r5, lsl #8
    4ff4:	78000007 	stmdavc	r0, {r0, r1, r2}
    4ff8:	02d60800 	sbcseq	r0, r6, #0, 16
    4ffc:	07e60000 	strbeq	r0, [r6, r0]!
    5000:	c7090000 	strgt	r0, [r9, -r0]
    5004:	1d000000 	stcne	0, cr0, [r0, #-0]
    5008:	002c0800 	eoreq	r0, ip, r0, lsl #16
    500c:	07f60000 	ldrbeq	r0, [r6, r0]!
    5010:	c7090000 	strgt	r0, [r9, -r0]
    5014:	1d000000 	stcne	0, cr0, [r0, #-0]
    5018:	05f01b00 	ldrbeq	r1, [r0, #2816]!	; 0xb00
    501c:	08180255 	ldmdaeq	r8, {r0, r2, r4, r6, r9}
    5020:	4e1c0000 	cdpmi	0, 1, cr0, cr12, cr0, {0}
    5024:	0500000a 	streq	r0, [r0, #-10]
    5028:	0681026c 	streq	r0, [r1], ip, ror #4
    502c:	e11c0000 	tst	ip, r0
    5030:	0500000b 	streq	r0, [r0, #-11]
    5034:	07b20275 			; <UNDEFINED> instruction: 0x07b20275
    5038:	08000000 	stmdaeq	r0, {}	; <UNPREDICTABLE>
    503c:	0000010d 	andeq	r0, r0, sp, lsl #2
    5040:	00000828 	andeq	r0, r0, r8, lsr #16
    5044:	0000c709 	andeq	ip, r0, r9, lsl #14
    5048:	1d001800 	stcne	8, cr1, [r0, #-0]
    504c:	00000833 	andeq	r0, r0, r3, lsr r8
    5050:	00042415 	andeq	r2, r4, r5, lsl r4
    5054:	040d0000 	streq	r0, [sp], #-0
    5058:	00000828 	andeq	r0, r0, r8, lsr #16
    505c:	0177040d 	cmneq	r7, sp, lsl #8
    5060:	4a1d0000 	bmi	745068 <__bss_end__+0x73a868>
    5064:	15000008 	strne	r0, [r0, #-8]
    5068:	00000025 	andeq	r0, r0, r5, lsr #32
    506c:	50040d00 	andpl	r0, r4, r0, lsl #26
    5070:	0d000008 	stceq	0, cr0, [r0, #-32]	; 0xffffffe0
    5074:	00083f04 	andeq	r3, r8, r4, lsl #30
    5078:	05ef0800 	strbeq	r0, [pc, #2048]!	; 5880 <_start-0x2780>
    507c:	08660000 	stmdaeq	r6!, {}^	; <UNPREDICTABLE>
    5080:	c7090000 	strgt	r0, [r9, -r0]
    5084:	02000000 	andeq	r0, r0, #0
    5088:	0b341e00 	bleq	d0c890 <__bss_end__+0xd02090>
    508c:	fd050000 	stc2	0, cr0, [r5, #-0]
    5090:	00042402 	andeq	r2, r4, r2, lsl #8
    5094:	0b2d1e00 	bleq	b4c89c <__bss_end__+0xb4209c>
    5098:	fe050000 	cdp2	0, 0, cr0, cr5, cr0, {0}
    509c:	00042a02 	andeq	r2, r4, r2, lsl #20
    50a0:	00251400 	eoreq	r1, r5, r0, lsl #8
    50a4:	088d0000 	stmeq	sp, {}	; <UNPREDICTABLE>
    50a8:	25150000 	ldrcs	r0, [r5, #-0]
    50ac:	00000000 	andeq	r0, r0, r0
    50b0:	00053d1f 	andeq	r3, r5, pc, lsl sp
    50b4:	981d0600 	ldmdals	sp, {r9, sl}
    50b8:	0d000008 	stceq	0, cr0, [r0, #-32]	; 0xffffffe0
    50bc:	00087e04 	andeq	r7, r8, r4, lsl #28
    50c0:	00251400 	eoreq	r1, r5, r0, lsl #8
    50c4:	08ad0000 	stmiaeq	sp!, {}	; <UNPREDICTABLE>
    50c8:	85150000 	ldrhi	r0, [r5, #-0]
    50cc:	00000005 	andeq	r0, r0, r5
    50d0:	00057a1f 	andeq	r7, r5, pc, lsl sl
    50d4:	b8220600 	stmdalt	r2!, {r9, sl}
    50d8:	0d000008 	stceq	0, cr0, [r0, #-32]	; 0xffffffe0
    50dc:	00089e04 	andeq	r9, r8, r4, lsl #28
    50e0:	04080300 	streq	r0, [r8], #-768	; 0x300
    50e4:	00000d03 	andeq	r0, r0, r3, lsl #26
    50e8:	000d3b1f 	andeq	r3, sp, pc, lsl fp
    50ec:	0d0d0100 	stfeqs	f0, [sp, #-0]
    50f0:	20000001 	andcs	r0, r0, r1
    50f4:	00000437 	andeq	r0, r0, r7, lsr r4
    50f8:	01070e01 	tsteq	r7, r1, lsl #28
    50fc:	03050000 	movweq	r0, #20480	; 0x5000
    5100:	00009a18 	andeq	r9, r0, r8, lsl sl
    5104:	000d5220 	andeq	r5, sp, r0, lsr #4
    5108:	070f0100 	streq	r0, [pc, -r0, lsl #2]
    510c:	05000001 	streq	r0, [r0, #-1]
    5110:	009a1c03 	addseq	r1, sl, r3, lsl #24
    5114:	0d142100 	ldfeqs	f2, [r4, #-0]
    5118:	38010000 	stmdacc	r1, {}	; <UNPREDICTABLE>
    511c:	000099e8 	andeq	r9, r0, r8, ror #19
    5120:	00000010 	andeq	r0, r0, r0, lsl r0
    5124:	09139c01 	ldmdbeq	r3, {r0, sl, fp, ip, pc}
    5128:	70220000 	eorvc	r0, r2, r0
    512c:	05380100 	ldreq	r0, [r8, #-256]!	; 0x100
    5130:	01000001 	tsteq	r0, r1
    5134:	0a230050 	beq	8c527c <__bss_end__+0x8baa7c>
    5138:	0100000d 	tsteq	r0, sp
    513c:	0099d437 	addseq	sp, r9, r7, lsr r4
    5140:	00001400 	andeq	r1, r0, r0, lsl #8
    5144:	219c0100 	orrscs	r0, ip, r0, lsl #2
    5148:	00000294 	muleq	r0, r4, r2
    514c:	99d03601 	ldmibls	r0, {r0, r9, sl, ip, sp}^
    5150:	00040000 	andeq	r0, r4, r0
    5154:	9c010000 	stcls	0, cr0, [r1], {-0}
    5158:	00000945 	andeq	r0, r0, r5, asr #18
    515c:	01007022 	tsteq	r0, r2, lsr #32
    5160:	00010536 	andeq	r0, r1, r6, lsr r5
    5164:	00500100 	subseq	r0, r0, r0, lsl #2
    5168:	000cf324 	andeq	pc, ip, r4, lsr #6
    516c:	05290100 	streq	r0, [r9, #-256]!	; 0x100
    5170:	44000001 	strmi	r0, [r0], #-1
    5174:	8c000099 	stchi	0, cr0, [r0], {153}	; 0x99
    5178:	01000000 	mrseq	r0, (UNDEF: 0)
    517c:	000a309c 	muleq	sl, ip, r0
    5180:	036b2500 	cmneq	fp, #0, 10
    5184:	29010000 	stmdbcs	r1, {}	; <UNPREDICTABLE>
    5188:	0000002c 	andeq	r0, r0, ip, lsr #32
    518c:	0000155c 	andeq	r1, r0, ip, asr r5
    5190:	000d3125 	andeq	r3, sp, r5, lsr #2
    5194:	2c290100 	stfcss	f0, [r9], #-0
    5198:	af000000 	svcge	0x00000000
    519c:	26000015 			; <UNDEFINED> instruction: 0x26000015
    51a0:	00000113 	andeq	r0, r0, r3, lsl r1
    51a4:	00000a40 	andeq	r0, r0, r0, asr #20
    51a8:	a2ec0305 	rscge	r0, ip, #335544320	; 0x14000000
    51ac:	68270000 	stmdavs	r7!, {}	; <UNPREDICTABLE>
    51b0:	2c2e0100 	stfcss	f0, [lr], #-0
    51b4:	f6000000 			; <UNDEFINED> instruction: 0xf6000000
    51b8:	28000015 	stmdacs	r0, {r0, r2, r4}
    51bc:	00009980 	andeq	r9, r0, r0, lsl #19
    51c0:	00000a79 	andeq	r0, r0, r9, ror sl
    51c4:	000009ad 	andeq	r0, r0, sp, lsr #19
    51c8:	03500129 	cmpeq	r0, #1073741834	; 0x4000000a
    51cc:	005001f3 	ldrsheq	r0, [r0], #-19	; 0xffffffed
    51d0:	0099882a 	addseq	r8, r9, sl, lsr #16
    51d4:	000bfb00 	andeq	pc, fp, r0, lsl #22
    51d8:	999c2800 	ldmibls	ip, {fp, sp}
    51dc:	0c060000 	stceq	0, cr0, [r6], {-0}
    51e0:	09e50000 	stmibeq	r5!, {}^	; <UNPREDICTABLE>
    51e4:	01290000 	teqeq	r9, r0
    51e8:	38030550 	stmdacc	r3, {r4, r6, r8, sl}
    51ec:	290000a3 	stmdbcs	r0, {r0, r1, r5, r7}
    51f0:	03055101 	movweq	r5, #20737	; 0x5101
    51f4:	0000a2fc 	strdeq	sl, [r0], -ip
    51f8:	05520129 	ldrbeq	r0, [r2, #-297]	; 0x129
    51fc:	00a2ec03 	adceq	lr, r2, r3, lsl #24
    5200:	53012900 	movwpl	r2, #6400	; 0x1900
    5204:	002a0802 	eoreq	r0, sl, r2, lsl #16
    5208:	0099a02a 	addseq	sl, r9, sl, lsr #32
    520c:	000c1100 	andeq	r1, ip, r0, lsl #2
    5210:	99a42a00 	stmibls	r4!, {r9, fp, sp}
    5214:	0bfb0000 	bleq	ffec521c <__bss_end__+0xffebaa1c>
    5218:	b8280000 	stmdalt	r8!, {}	; <UNPREDICTABLE>
    521c:	06000099 			; <UNDEFINED> instruction: 0x06000099
    5220:	2600000c 	strcs	r0, [r0], -ip
    5224:	2900000a 	stmdbcs	r0, {r1, r3}
    5228:	03055001 	movweq	r5, #20481	; 0x5001
    522c:	0000a398 	muleq	r0, r8, r3
    5230:	05510129 	ldrbeq	r0, [r1, #-297]	; 0x129
    5234:	00a2fc03 	adceq	pc, r2, r3, lsl #24
    5238:	52012900 	andpl	r2, r1, #0, 18
    523c:	a2ec0305 	rscge	r0, ip, #335544320	; 0x14000000
    5240:	01290000 	teqeq	r9, r0
    5244:	30080253 	andcc	r0, r8, r3, asr r2
    5248:	99bc2a00 	ldmibls	ip!, {r9, fp, sp}
    524c:	0c110000 	ldceq	0, cr0, [r1], {-0}
    5250:	08000000 	stmdaeq	r0, {}	; <UNPREDICTABLE>
    5254:	00000114 	andeq	r0, r0, r4, lsl r1
    5258:	00000a40 	andeq	r0, r0, r0, asr #20
    525c:	0000c709 	andeq	ip, r0, r9, lsl #14
    5260:	0e000f00 	cdpeq	15, 0, cr0, cr0, cr0, {0}
    5264:	00000a30 	andeq	r0, r0, r0, lsr sl
    5268:	000d2024 	andeq	r2, sp, r4, lsr #32
    526c:	05250100 	streq	r0, [r5, #-256]!	; 0x100
    5270:	38000001 	stmdacc	r0, {r0}
    5274:	0c000099 	stceq	0, cr0, [r0], {153}	; 0x99
    5278:	01000000 	mrseq	r0, (UNDEF: 0)
    527c:	000a689c 	muleq	sl, ip, r8
    5280:	99402a00 	stmdbls	r0, {r9, fp, sp}^
    5284:	0bd10000 	bleq	ff44528c <__bss_end__+0xff43aa8c>
    5288:	23000000 	movwcs	r0, #0
    528c:	00000ce6 	andeq	r0, r0, r6, ror #25
    5290:	99342401 	ldmdbls	r4!, {r0, sl, sp}
    5294:	00040000 	andeq	r0, r4, r0
    5298:	9c010000 	stcls	0, cr0, [r1], {-0}
    529c:	00010424 	andeq	r0, r1, r4, lsr #8
    52a0:	051a0100 	ldreq	r0, [sl, #-256]	; 0x100
    52a4:	d0000001 	andle	r0, r0, r1
    52a8:	64000098 	strvs	r0, [r0], #-152	; 0x98
    52ac:	01000000 	mrseq	r0, (UNDEF: 0)
    52b0:	000b249c 	muleq	fp, ip, r4
    52b4:	7a732b00 	bvc	1ccfebc <__bss_end__+0x1cc56bc>
    52b8:	2c1a0100 	ldfcss	f0, [sl], {-0}
    52bc:	2e000000 	cdpcs	0, 0, cr0, cr0, cr0, {0}
    52c0:	26000016 			; <UNDEFINED> instruction: 0x26000016
    52c4:	00000113 	andeq	r0, r0, r3, lsl r1
    52c8:	00000b34 	andeq	r0, r0, r4, lsr fp
    52cc:	a2e40305 	rscge	r0, r4, #335544320	; 0x14000000
    52d0:	c82c0000 	stmdagt	ip!, {}	; <UNPREDICTABLE>
    52d4:	01000001 	tsteq	r0, r1
    52d8:	0001051e 	andeq	r0, r1, lr, lsl r5
    52dc:	00167800 	andseq	r7, r6, r0, lsl #16
    52e0:	99002800 	stmdbls	r0, {fp, sp}
    52e4:	0c1c0000 	ldceq	0, cr0, [ip], {-0}
    52e8:	0ae30000 	beq	ff8c52f0 <__bss_end__+0xff8baaf0>
    52ec:	01290000 	teqeq	r9, r0
    52f0:	00740250 	rsbseq	r0, r4, r0, asr r2
    52f4:	01510129 	cmpeq	r1, r9, lsr #2
    52f8:	52012930 	andpl	r2, r1, #48, 18	; 0xc0000
    52fc:	5001f308 	andpl	pc, r1, r8, lsl #6
    5300:	f8090723 			; <UNDEFINED> instruction: 0xf8090723
    5304:	0c2a001a 	stceq	0, cr0, [sl], #-104	; 0xffffff98
    5308:	fb000099 	blx	5576 <_start-0x2a8a>
    530c:	2800000b 	stmdacs	r0, {r0, r1, r3}
    5310:	00009920 	andeq	r9, r0, r0, lsr #18
    5314:	00000c06 	andeq	r0, r0, r6, lsl #24
    5318:	00000b1a 	andeq	r0, r0, sl, lsl fp
    531c:	05500129 	ldrbeq	r0, [r0, #-297]	; 0x129
    5320:	00a32403 	adceq	r2, r3, r3, lsl #8
    5324:	51012900 	tstpl	r1, r0, lsl #18
    5328:	a2fc0305 	rscsge	r0, ip, #335544320	; 0x14000000
    532c:	01290000 	teqeq	r9, r0
    5330:	e4030552 	str	r0, [r3], #-1362	; 0x552
    5334:	290000a2 	stmdbcs	r0, {r1, r5, r7}
    5338:	4b015301 	blmi	59f44 <__bss_end__+0x4f744>
    533c:	99242a00 	stmdbls	r4!, {r9, fp, sp}
    5340:	0c110000 	ldceq	0, cr0, [r1], {-0}
    5344:	08000000 	stmdaeq	r0, {}	; <UNPREDICTABLE>
    5348:	00000114 	andeq	r0, r0, r4, lsl r1
    534c:	00000b34 	andeq	r0, r0, r4, lsr fp
    5350:	0000c709 	andeq	ip, r0, r9, lsl #14
    5354:	0e000700 	cdpeq	7, 0, cr0, cr0, cr0, {0}
    5358:	00000b24 	andeq	r0, r0, r4, lsr #22
    535c:	00000721 	andeq	r0, r0, r1, lsr #14
    5360:	80140100 	andshi	r0, r4, r0, lsl #2
    5364:	50000098 	mulpl	r0, r8, r0
    5368:	01000000 	mrseq	r0, (UNDEF: 0)
    536c:	000bbc9c 	muleq	fp, ip, ip
    5370:	01c72500 	biceq	r2, r7, r0, lsl #10
    5374:	14010000 	strne	r0, [r1], #-0
    5378:	0000002c 	andeq	r0, r0, ip, lsr #32
    537c:	0000168b 	andeq	r1, r0, fp, lsl #13
    5380:	0001c82c 	andeq	ip, r1, ip, lsr #16
    5384:	07150100 	ldreq	r0, [r5, -r0, lsl #2]
    5388:	ac000001 	stcge	0, cr0, [r0], {1}
    538c:	26000016 			; <UNDEFINED> instruction: 0x26000016
    5390:	00000113 	andeq	r0, r0, r3, lsl r1
    5394:	00000bcc 	andeq	r0, r0, ip, asr #23
    5398:	a2cc0305 	sbcge	r0, ip, #335544320	; 0x14000000
    539c:	a82a0000 	stmdage	sl!, {}	; <UNPREDICTABLE>
    53a0:	fb000098 	blx	560a <_start-0x29f6>
    53a4:	2800000b 	stmdacs	r0, {r0, r1, r3}
    53a8:	000098bc 			; <UNDEFINED> instruction: 0x000098bc
    53ac:	00000c06 	andeq	r0, r0, r6, lsl #24
    53b0:	00000bb2 			; <UNDEFINED> instruction: 0x00000bb2
    53b4:	05500129 	ldrbeq	r0, [r0, #-297]	; 0x129
    53b8:	00a30803 	adceq	r0, r3, r3, lsl #16
    53bc:	51012900 	tstpl	r1, r0, lsl #18
    53c0:	a2fc0305 	rscsge	r0, ip, #335544320	; 0x14000000
    53c4:	01290000 	teqeq	r9, r0
    53c8:	cc030552 	cfstr32gt	mvfx0, [r3], {82}	; 0x52
    53cc:	290000a2 	stmdbcs	r0, {r1, r5, r7}
    53d0:	46015301 	strmi	r5, [r1], -r1, lsl #6
    53d4:	98c02a00 	stmials	r0, {r9, fp, sp}^
    53d8:	0c110000 	ldceq	0, cr0, [r1], {-0}
    53dc:	08000000 	stmdaeq	r0, {}	; <UNPREDICTABLE>
    53e0:	00000114 	andeq	r0, r0, r4, lsl r1
    53e4:	00000bcc 	andeq	r0, r0, ip, asr #23
    53e8:	0000c709 	andeq	ip, r0, r9, lsl #14
    53ec:	0e001600 	cfmadd32eq	mvax0, mvfx1, mvfx0, mvfx0
    53f0:	00000bbc 			; <UNDEFINED> instruction: 0x00000bbc
    53f4:	000d4a2d 	andeq	r4, sp, sp, lsr #20
    53f8:	05120100 	ldreq	r0, [r2, #-256]	; 0x100
    53fc:	74000001 	strvc	r0, [r0], #-1
    5400:	0c000098 	stceq	0, cr0, [r0], {152}	; 0x98
    5404:	01000000 	mrseq	r0, (UNDEF: 0)
    5408:	0d5d2d9c 	ldcleq	13, cr2, [sp, #-624]	; 0xfffffd90
    540c:	11010000 	mrsne	r0, (UNDEF: 1)
    5410:	00000105 	andeq	r0, r0, r5, lsl #2
    5414:	00009864 	andeq	r9, r0, r4, ror #16
    5418:	00000010 	andeq	r0, r0, r0, lsl r0
    541c:	592e9c01 	stmdbpl	lr!, {r0, sl, fp, ip, pc}
    5420:	59000002 	stmdbpl	r0, {r1}
    5424:	06000002 	streq	r0, [r0], -r2
    5428:	050c2e1e 	streq	r2, [ip, #-3614]	; 0xe1e
    542c:	050c0000 	streq	r0, [ip, #-0]
    5430:	29060000 	stmdbcs	r6, {}	; <UNPREDICTABLE>
    5434:	0002a62e 	andeq	sl, r2, lr, lsr #12
    5438:	0002a600 	andeq	sl, r2, r0, lsl #12
    543c:	2e650600 	cdpcs	6, 6, cr0, cr5, cr0, {0}
    5440:	0000010c 	andeq	r0, r0, ip, lsl #2
    5444:	0000010c 	andeq	r0, r0, ip, lsl #2
    5448:	Address 0x0000000000005448 is out of bounds.


Disassembly of section .debug_abbrev:

00000000 <.debug_abbrev>:
       0:	25011101 	strcs	r1, [r1, #-257]	; 0x101
       4:	030b130e 	movweq	r1, #45838	; 0xb30e
       8:	110e1b0e 	tstne	lr, lr, lsl #22
       c:	10061201 	andne	r1, r6, r1, lsl #4
      10:	02000017 	andeq	r0, r0, #23
      14:	0b0b0024 	bleq	2c00ac <__bss_end__+0x2b58ac>
      18:	08030b3e 	stmdaeq	r3, {r1, r2, r3, r4, r5, r8, r9, fp}
      1c:	16030000 	strne	r0, [r3], -r0
      20:	3a0e0300 	bcc	380c28 <__bss_end__+0x376428>
      24:	490b3b0b 	stmdbmi	fp, {r0, r1, r3, r8, r9, fp, ip, sp}
      28:	04000013 	streq	r0, [r0], #-19
      2c:	0b0b0024 	bleq	2c00c4 <__bss_end__+0x2b58c4>
      30:	0e030b3e 	vmoveq.16	d3[0], r0
      34:	0f050000 	svceq	0x00050000
      38:	000b0b00 	andeq	r0, fp, r0, lsl #22
      3c:	000f0600 	andeq	r0, pc, r0, lsl #12
      40:	13490b0b 	movtne	r0, #39691	; 0x9b0b
      44:	26070000 	strcs	r0, [r7], -r0
      48:	00134900 	andseq	r4, r3, r0, lsl #18
      4c:	012e0800 	teqeq	lr, r0, lsl #16
      50:	0e03193f 	mcreq	9, 0, r1, cr3, cr15, {1}
      54:	0b3b0b3a 	bleq	ec2d44 <__bss_end__+0xeb8544>
      58:	13491927 	movtne	r1, #39207	; 0x9927
      5c:	06120111 			; <UNDEFINED> instruction: 0x06120111
      60:	42971840 	addsmi	r1, r7, #64, 16	; 0x400000
      64:	00130119 	andseq	r0, r3, r9, lsl r1
      68:	00340900 	eorseq	r0, r4, r0, lsl #18
      6c:	0b3a0e03 	bleq	e83880 <__bss_end__+0xe79080>
      70:	13490b3b 	movtne	r0, #39739	; 0x9b3b
      74:	193c193f 	ldmdbne	ip!, {r0, r1, r2, r3, r4, r5, r8, fp, ip}
      78:	340a0000 	strcc	r0, [sl], #-0
      7c:	490e0300 	stmdbmi	lr, {r8, r9}
      80:	02193413 	andseq	r3, r9, #318767104	; 0x13000000
      84:	0b000018 	bleq	ec <_start-0x7f14>
      88:	08030034 	stmdaeq	r3, {r2, r4, r5}
      8c:	0b3b0b3a 	bleq	ec2d7c <__bss_end__+0xeb857c>
      90:	17021349 	strne	r1, [r2, -r9, asr #6]
      94:	890c0000 	stmdbhi	ip, {}	; <UNPREDICTABLE>
      98:	11010182 	smlabbne	r1, r2, r1, r0
      9c:	01133101 	tsteq	r3, r1, lsl #2
      a0:	0d000013 	stceq	0, cr0, [r0, #-76]	; 0xffffffb4
      a4:	0001828a 	andeq	r8, r1, sl, lsl #5
      a8:	42911802 	addsmi	r1, r1, #131072	; 0x20000
      ac:	0e000018 	mcreq	0, 0, r0, cr0, cr8, {0}
      b0:	00018289 	andeq	r8, r1, r9, lsl #5
      b4:	13310111 	teqne	r1, #1073741828	; 0x40000004
      b8:	010f0000 	mrseq	r0, CPSR
      bc:	01134901 	tsteq	r3, r1, lsl #18
      c0:	10000013 	andne	r0, r0, r3, lsl r0
      c4:	13490021 	movtne	r0, #36897	; 0x9021
      c8:	00000b2f 	andeq	r0, r0, pc, lsr #22
      cc:	3f012e11 	svccc	0x00012e11
      d0:	3a0e0319 	bcc	380d3c <__bss_end__+0x37653c>
      d4:	270b3b0b 	strcs	r3, [fp, -fp, lsl #22]
      d8:	12011119 	andne	r1, r1, #1073741830	; 0x40000006
      dc:	97184006 	ldrls	r4, [r8, -r6]
      e0:	13011942 	movwne	r1, #6466	; 0x1942
      e4:	34120000 	ldrcc	r0, [r2], #-0
      e8:	3a080300 	bcc	200cf0 <__bss_end__+0x1f64f0>
      ec:	490b3b0b 	stmdbmi	fp, {r0, r1, r3, r8, r9, fp, ip, sp}
      f0:	00061c13 	andeq	r1, r6, r3, lsl ip
      f4:	82891300 	addhi	r1, r9, #0, 6
      f8:	01110101 	tsteq	r1, r1, lsl #2
      fc:	00001331 	andeq	r1, r0, r1, lsr r3
     100:	03003414 	movweq	r3, #1044	; 0x414
     104:	3b0b3a0e 	blcc	2ce944 <__bss_end__+0x2c4144>
     108:	3f13490b 	svccc	0x0013490b
     10c:	00180219 	andseq	r0, r8, r9, lsl r2
     110:	012e1500 	teqeq	lr, r0, lsl #10
     114:	0e03193f 	mcreq	9, 0, r1, cr3, cr15, {1}
     118:	0b3b0b3a 	bleq	ec2e08 <__bss_end__+0xeb8608>
     11c:	13491927 	movtne	r1, #39207	; 0x9927
     120:	1301193c 	movwne	r1, #6460	; 0x193c
     124:	05160000 	ldreq	r0, [r6, #-0]
     128:	00134900 	andseq	r4, r3, r0, lsl #18
     12c:	00181700 	andseq	r1, r8, r0, lsl #14
     130:	2e180000 	cdpcs	0, 1, cr0, cr8, cr0, {0}
     134:	03193f00 	tsteq	r9, #0, 30
     138:	3b0b3a0e 	blcc	2ce978 <__bss_end__+0x2c4178>
     13c:	3c19270b 	ldccc	7, cr2, [r9], {11}
     140:	19000019 	stmdbne	r0, {r0, r3, r4}
     144:	193f012e 	ldmdbne	pc!, {r1, r2, r3, r5, r8}	; <UNPREDICTABLE>
     148:	0b3a0e03 	bleq	e8395c <__bss_end__+0xe7915c>
     14c:	19270b3b 	stmdbne	r7!, {r0, r1, r3, r4, r5, r8, r9, fp}
     150:	1301193c 	movwne	r1, #6460	; 0x193c
     154:	2e1a0000 	cdpcs	0, 1, cr0, cr10, cr0, {0}
     158:	03193f01 	tsteq	r9, #1, 30
     15c:	3b0b3a0e 	blcc	2ce99c <__bss_end__+0x2c419c>
     160:	3c19270b 	ldccc	7, cr2, [r9], {11}
     164:	00000019 	andeq	r0, r0, r9, lsl r0
     168:	25011101 	strcs	r1, [r1, #-257]	; 0x101
     16c:	030b130e 	movweq	r1, #45838	; 0xb30e
     170:	110e1b0e 	tstne	lr, lr, lsl #22
     174:	10061201 	andne	r1, r6, r1, lsl #4
     178:	02000017 	andeq	r0, r0, #23
     17c:	0b0b0024 	bleq	2c0214 <__bss_end__+0x2b5a14>
     180:	08030b3e 	stmdaeq	r3, {r1, r2, r3, r4, r5, r8, r9, fp}
     184:	16030000 	strne	r0, [r3], -r0
     188:	3a0e0300 	bcc	380d90 <__bss_end__+0x376590>
     18c:	490b3b0b 	stmdbmi	fp, {r0, r1, r3, r8, r9, fp, ip, sp}
     190:	04000013 	streq	r0, [r0], #-19
     194:	0b0b0024 	bleq	2c022c <__bss_end__+0x2b5a2c>
     198:	0e030b3e 	vmoveq.16	d3[0], r0
     19c:	0f050000 	svceq	0x00050000
     1a0:	000b0b00 	andeq	r0, fp, r0, lsl #22
     1a4:	000f0600 	andeq	r0, pc, r0, lsl #12
     1a8:	13490b0b 	movtne	r0, #39691	; 0x9b0b
     1ac:	26070000 	strcs	r0, [r7], -r0
     1b0:	00134900 	andseq	r4, r3, r0, lsl #18
     1b4:	01010800 	tsteq	r1, r0, lsl #16
     1b8:	13011349 	movwne	r1, #4937	; 0x1349
     1bc:	21090000 	mrscs	r0, (UNDEF: 9)
     1c0:	2f134900 	svccs	0x00134900
     1c4:	0a00000b 	beq	1f8 <_start-0x7e08>
     1c8:	0b0b0104 	bleq	2c05e0 <__bss_end__+0x2b5de0>
     1cc:	0b3b0b3a 	bleq	ec2ebc <__bss_end__+0xeb86bc>
     1d0:	00001301 	andeq	r1, r0, r1, lsl #6
     1d4:	0300280b 	movweq	r2, #2059	; 0x80b
     1d8:	000d1c0e 	andeq	r1, sp, lr, lsl #24
     1dc:	01130c00 	tsteq	r3, r0, lsl #24
     1e0:	0b3a0b0b 	bleq	e82e14 <__bss_end__+0xe78614>
     1e4:	13010b3b 	movwne	r0, #6971	; 0x1b3b
     1e8:	0d0d0000 	stceq	0, cr0, [sp, #-0]
     1ec:	3a0e0300 	bcc	380df4 <__bss_end__+0x3765f4>
     1f0:	490b3b0b 	stmdbmi	fp, {r0, r1, r3, r8, r9, fp, ip, sp}
     1f4:	000b3813 	andeq	r3, fp, r3, lsl r8
     1f8:	01130e00 	tsteq	r3, r0, lsl #28
     1fc:	0b0b0e03 	bleq	2c3a10 <__bss_end__+0x2b9210>
     200:	0b3b0b3a 	bleq	ec2ef0 <__bss_end__+0xeb86f0>
     204:	00001301 	andeq	r1, r0, r1, lsl #6
     208:	03012e0f 	movweq	r2, #7695	; 0x1e0f
     20c:	3b0b3a0e 	blcc	2cea4c <__bss_end__+0x2c424c>
     210:	4919270b 	ldmdbmi	r9, {r0, r1, r3, r8, r9, sl, sp}
     214:	010b2013 	tsteq	fp, r3, lsl r0
     218:	10000013 	andne	r0, r0, r3, lsl r0
     21c:	08030005 	stmdaeq	r3, {r0, r2}
     220:	0b3b0b3a 	bleq	ec2f10 <__bss_end__+0xeb8710>
     224:	00001349 	andeq	r1, r0, r9, asr #6
     228:	03000511 	movweq	r0, #1297	; 0x511
     22c:	3b0b3a0e 	blcc	2cea6c <__bss_end__+0x2c426c>
     230:	0013490b 	andseq	r4, r3, fp, lsl #18
     234:	012e1200 	teqeq	lr, r0, lsl #4
     238:	0b3a0e03 	bleq	e83a4c <__bss_end__+0xe7924c>
     23c:	19270b3b 	stmdbne	r7!, {r0, r1, r3, r4, r5, r8, r9, fp}
     240:	13010b20 	movwne	r0, #6944	; 0x1b20
     244:	34130000 	ldrcc	r0, [r3], #-0
     248:	3a080300 	bcc	200e50 <__bss_end__+0x1f6650>
     24c:	490b3b0b 	stmdbmi	fp, {r0, r1, r3, r8, r9, fp, ip, sp}
     250:	14000013 	strne	r0, [r0], #-19
     254:	0e03012e 	adfeqsp	f0, f3, #0.5
     258:	0b3b0b3a 	bleq	ec2f48 <__bss_end__+0xeb8748>
     25c:	13491927 	movtne	r1, #39207	; 0x9927
     260:	06120111 			; <UNDEFINED> instruction: 0x06120111
     264:	42971840 	addsmi	r1, r7, #64, 16	; 0x400000
     268:	00130119 	andseq	r0, r3, r9, lsl r1
     26c:	00051500 	andeq	r1, r5, r0, lsl #10
     270:	0b3a0803 	bleq	e82284 <__bss_end__+0xe77a84>
     274:	13490b3b 	movtne	r0, #39739	; 0x9b3b
     278:	00001702 	andeq	r1, r0, r2, lsl #14
     27c:	03000516 	movweq	r0, #1302	; 0x516
     280:	3b0b3a0e 	blcc	2ceac0 <__bss_end__+0x2c42c0>
     284:	0213490b 	andseq	r4, r3, #180224	; 0x2c000
     288:	17000017 	smladne	r0, r7, r0, r0
     28c:	08030034 	stmdaeq	r3, {r2, r4, r5}
     290:	0b3b0b3a 	bleq	ec2f80 <__bss_end__+0xeb8780>
     294:	17021349 	strne	r1, [r2, -r9, asr #6]
     298:	0b180000 	bleq	6002a0 <__bss_end__+0x5f5aa0>
     29c:	00175501 	andseq	r5, r7, r1, lsl #10
     2a0:	00341900 	eorseq	r1, r4, r0, lsl #18
     2a4:	0b3a0e03 	bleq	e83ab8 <__bss_end__+0xe792b8>
     2a8:	13490b3b 	movtne	r0, #39739	; 0x9b3b
     2ac:	00001802 	andeq	r1, r0, r2, lsl #16
     2b0:	0300341a 	movweq	r3, #1050	; 0x41a
     2b4:	3b0b3a0e 	blcc	2ceaf4 <__bss_end__+0x2c42f4>
     2b8:	0213490b 	andseq	r4, r3, #180224	; 0x2c000
     2bc:	1b000017 	blne	320 <_start-0x7ce0>
     2c0:	1331011d 	teqne	r1, #1073741831	; 0x40000007
     2c4:	06120111 			; <UNDEFINED> instruction: 0x06120111
     2c8:	0b590b58 	bleq	1643030 <__bss_end__+0x1638830>
     2cc:	00001301 	andeq	r1, r0, r1, lsl #6
     2d0:	3100051c 	tstcc	r0, ip, lsl r5
     2d4:	00170213 	andseq	r0, r7, r3, lsl r2
     2d8:	010b1d00 	tsteq	fp, r0, lsl #26
     2dc:	06120111 			; <UNDEFINED> instruction: 0x06120111
     2e0:	341e0000 	ldrcc	r0, [lr], #-0
     2e4:	02133100 	andseq	r3, r3, #0, 2
     2e8:	1f000017 	svcne	0x00000017
     2ec:	01018289 	smlabbeq	r1, r9, r2, r8
     2f0:	13310111 	teqne	r1, #1073741828	; 0x40000004
     2f4:	00001301 	andeq	r1, r0, r1, lsl #6
     2f8:	01828a20 	orreq	r8, r2, r0, lsr #20
     2fc:	91180200 	tstls	r8, r0, lsl #4
     300:	00001842 	andeq	r1, r0, r2, asr #16
     304:	01828921 	orreq	r8, r2, r1, lsr #18
     308:	31011101 	tstcc	r1, r1, lsl #2
     30c:	22000013 	andcs	r0, r0, #19
     310:	0e03012e 	adfeqsp	f0, f3, #0.5
     314:	0b3b0b3a 	bleq	ec3004 <__bss_end__+0xeb8804>
     318:	01111927 	tsteq	r1, r7, lsr #18
     31c:	18400612 	stmdane	r0, {r1, r4, r9, sl}^
     320:	01194297 			; <UNDEFINED> instruction: 0x01194297
     324:	23000013 	movwcs	r0, #19
     328:	08030034 	stmdaeq	r3, {r2, r4, r5}
     32c:	0b3b0b3a 	bleq	ec301c <__bss_end__+0xeb881c>
     330:	18021349 	stmdane	r2, {r0, r3, r6, r8, r9, ip}
     334:	34240000 	strtcc	r0, [r4], #-0
     338:	490e0300 	stmdbmi	lr, {r8, r9}
     33c:	02193413 	andseq	r3, r9, #318767104	; 0x13000000
     340:	25000018 	strcs	r0, [r0, #-24]
     344:	00018289 	andeq	r8, r1, r9, lsl #5
     348:	13310111 	teqne	r1, #1073741828	; 0x40000004
     34c:	2e260000 	cdpcs	0, 2, cr0, cr6, cr0, {0}
     350:	03193f01 	tsteq	r9, #1, 30
     354:	3b0b3a0e 	blcc	2ceb94 <__bss_end__+0x2c4394>
     358:	1119270b 	tstne	r9, fp, lsl #14
     35c:	40061201 	andmi	r1, r6, r1, lsl #4
     360:	19429718 	stmdbne	r2, {r3, r4, r8, r9, sl, ip, pc}^
     364:	00001301 	andeq	r1, r0, r1, lsl #6
     368:	3f012e27 	svccc	0x00012e27
     36c:	3a0e0319 	bcc	380fd8 <__bss_end__+0x3767d8>
     370:	270b3b0b 	strcs	r3, [fp, -fp, lsl #22]
     374:	11134919 	tstne	r3, r9, lsl r9
     378:	40061201 	andmi	r1, r6, r1, lsl #4
     37c:	19429718 	stmdbne	r2, {r3, r4, r8, r9, sl, ip, pc}^
     380:	00001301 	andeq	r1, r0, r1, lsl #6
     384:	55010b28 	strpl	r0, [r1, #-2856]	; 0xb28
     388:	00130117 	andseq	r0, r3, r7, lsl r1
     38c:	012e2900 	teqeq	lr, r0, lsl #18
     390:	0e03193f 	mcreq	9, 0, r1, cr3, cr15, {1}
     394:	0b3b0b3a 	bleq	ec3084 <__bss_end__+0xeb8884>
     398:	13491927 	movtne	r1, #39207	; 0x9927
     39c:	1301193c 	movwne	r1, #6460	; 0x193c
     3a0:	052a0000 	streq	r0, [sl, #-0]!
     3a4:	00134900 	andseq	r4, r3, r0, lsl #18
     3a8:	00182b00 	andseq	r2, r8, r0, lsl #22
     3ac:	262c0000 	strtcs	r0, [ip], -r0
     3b0:	2d000000 	stccs	0, cr0, [r0, #-0]
     3b4:	193f002e 	ldmdbne	pc!, {r1, r2, r3, r5}	; <UNPREDICTABLE>
     3b8:	0b3a0e03 	bleq	e83bcc <__bss_end__+0xe793cc>
     3bc:	19270b3b 	stmdbne	r7!, {r0, r1, r3, r4, r5, r8, r9, fp}
     3c0:	0000193c 	andeq	r1, r0, ip, lsr r9
     3c4:	01110100 	tsteq	r1, r0, lsl #2
     3c8:	0b130e25 	bleq	4c3c64 <__bss_end__+0x4b9464>
     3cc:	0e1b0e03 	cdpeq	14, 1, cr0, cr11, cr3, {0}
     3d0:	06120111 			; <UNDEFINED> instruction: 0x06120111
     3d4:	00001710 	andeq	r1, r0, r0, lsl r7
     3d8:	0b002402 	bleq	93e8 <va_printk+0x248>
     3dc:	030b3e0b 	movweq	r3, #48651	; 0xbe0b
     3e0:	03000008 	movweq	r0, #8
     3e4:	0b0b0024 	bleq	2c047c <__bss_end__+0x2b5c7c>
     3e8:	0e030b3e 	vmoveq.16	d3[0], r0
     3ec:	16040000 	strne	r0, [r4], -r0
     3f0:	3a0e0300 	bcc	380ff8 <__bss_end__+0x3767f8>
     3f4:	490b3b0b 	stmdbmi	fp, {r0, r1, r3, r8, r9, fp, ip, sp}
     3f8:	05000013 	streq	r0, [r0, #-19]
     3fc:	0b0b000f 	bleq	2c0440 <__bss_end__+0x2b5c40>
     400:	0f060000 	svceq	0x00060000
     404:	490b0b00 	stmdbmi	fp, {r8, r9, fp}
     408:	07000013 	smladeq	r0, r3, r0, r0
     40c:	13490026 	movtne	r0, #36902	; 0x9026
     410:	04080000 	streq	r0, [r8], #-0
     414:	3a0b0b01 	bcc	2c3020 <__bss_end__+0x2b8820>
     418:	010b3b0b 	tsteq	fp, fp, lsl #22
     41c:	09000013 	stmdbeq	r0, {r0, r1, r4}
     420:	0e030028 	cdpeq	0, 0, cr0, cr3, cr8, {1}
     424:	00000d1c 	andeq	r0, r0, ip, lsl sp
     428:	0b01130a 	bleq	45058 <__bss_end__+0x3a858>
     42c:	3b0b3a0b 	blcc	2cec60 <__bss_end__+0x2c4460>
     430:	0013010b 	andseq	r0, r3, fp, lsl #2
     434:	000d0b00 	andeq	r0, sp, r0, lsl #22
     438:	0b3a0e03 	bleq	e83c4c <__bss_end__+0xe7944c>
     43c:	13490b3b 	movtne	r0, #39739	; 0x9b3b
     440:	00000b38 	andeq	r0, r0, r8, lsr fp
     444:	0301130c 	movweq	r1, #4876	; 0x130c
     448:	3a0b0b0e 	bcc	2c3088 <__bss_end__+0x2b8888>
     44c:	010b3b0b 	tsteq	fp, fp, lsl #22
     450:	0d000013 	stceq	0, cr0, [r0, #-76]	; 0xffffffb4
     454:	0e03012e 	adfeqsp	f0, f3, #0.5
     458:	0b3b0b3a 	bleq	ec3148 <__bss_end__+0xeb8948>
     45c:	13491927 	movtne	r1, #39207	; 0x9927
     460:	13010b20 	movwne	r0, #6944	; 0x1b20
     464:	050e0000 	streq	r0, [lr, #-0]
     468:	3a080300 	bcc	201070 <__bss_end__+0x1f6870>
     46c:	490b3b0b 	stmdbmi	fp, {r0, r1, r3, r8, r9, fp, ip, sp}
     470:	0f000013 	svceq	0x00000013
     474:	0e03012e 	adfeqsp	f0, f3, #0.5
     478:	0b3b0b3a 	bleq	ec3168 <__bss_end__+0xeb8968>
     47c:	13491927 	movtne	r1, #39207	; 0x9927
     480:	06120111 			; <UNDEFINED> instruction: 0x06120111
     484:	42971840 	addsmi	r1, r7, #64, 16	; 0x400000
     488:	00130119 	andseq	r0, r3, r9, lsl r1
     48c:	00051000 	andeq	r1, r5, r0
     490:	0b3a0803 	bleq	e824a4 <__bss_end__+0xe77ca4>
     494:	13490b3b 	movtne	r0, #39739	; 0x9b3b
     498:	00001702 	andeq	r1, r0, r2, lsl #14
     49c:	03000511 	movweq	r0, #1297	; 0x511
     4a0:	3b0b3a0e 	blcc	2cece0 <__bss_end__+0x2c44e0>
     4a4:	0213490b 	andseq	r4, r3, #180224	; 0x2c000
     4a8:	12000017 	andne	r0, r0, #23
     4ac:	08030034 	stmdaeq	r3, {r2, r4, r5}
     4b0:	0b3b0b3a 	bleq	ec31a0 <__bss_end__+0xeb89a0>
     4b4:	17021349 	strne	r1, [r2, -r9, asr #6]
     4b8:	34130000 	ldrcc	r0, [r3], #-0
     4bc:	3a0e0300 	bcc	3810c4 <__bss_end__+0x3768c4>
     4c0:	490b3b0b 	stmdbmi	fp, {r0, r1, r3, r8, r9, fp, ip, sp}
     4c4:	00170213 	andseq	r0, r7, r3, lsl r2
     4c8:	82891400 	addhi	r1, r9, #0, 8
     4cc:	01110101 	tsteq	r1, r1, lsl #2
     4d0:	13011331 	movwne	r1, #4913	; 0x1331
     4d4:	8a150000 	bhi	5404dc <__bss_end__+0x535cdc>
     4d8:	02000182 	andeq	r0, r0, #-2147483616	; 0x80000020
     4dc:	18429118 	stmdane	r2, {r3, r4, r8, ip, pc}^
     4e0:	89160000 	ldmdbhi	r6, {}	; <UNPREDICTABLE>
     4e4:	11000182 	smlabbne	r0, r2, r1, r0
     4e8:	00133101 	andseq	r3, r3, r1, lsl #2
     4ec:	00341700 	eorseq	r1, r4, r0, lsl #14
     4f0:	0b3a0e03 	bleq	e83d04 <__bss_end__+0xe79504>
     4f4:	13490b3b 	movtne	r0, #39739	; 0x9b3b
     4f8:	00000b1c 	andeq	r0, r0, ip, lsl fp
     4fc:	01828918 	orreq	r8, r2, r8, lsl r9
     500:	31011101 	tstcc	r1, r1, lsl #2
     504:	19000013 	stmdbne	r0, {r0, r1, r4}
     508:	0e03012e 	adfeqsp	f0, f3, #0.5
     50c:	0b3b0b3a 	bleq	ec31fc <__bss_end__+0xeb89fc>
     510:	01111927 	tsteq	r1, r7, lsr #18
     514:	18400612 	stmdane	r0, {r1, r4, r9, sl}^
     518:	01194297 			; <UNDEFINED> instruction: 0x01194297
     51c:	1a000013 	bne	570 <_start-0x7a90>
     520:	0e030034 	mcreq	0, 0, r0, cr3, cr4, {1}
     524:	19341349 	ldmdbne	r4!, {r0, r3, r6, r8, r9, ip}
     528:	00001802 	andeq	r1, r0, r2, lsl #16
     52c:	55010b1b 	strpl	r0, [r1, #-2843]	; 0xb1b
     530:	00130117 	andseq	r0, r3, r7, lsl r1
     534:	011d1c00 	tsteq	sp, r0, lsl #24
     538:	01111331 	tsteq	r1, r1, lsr r3
     53c:	0b580612 	bleq	1601d8c <__bss_end__+0x15f758c>
     540:	13010b59 	movwne	r0, #7001	; 0x1b59
     544:	051d0000 	ldreq	r0, [sp, #-0]
     548:	02133100 	andseq	r3, r3, #0, 2
     54c:	1e000017 	mcrne	0, 0, r0, cr0, cr7, {0}
     550:	13490101 	movtne	r0, #37121	; 0x9101
     554:	00001301 	andeq	r1, r0, r1, lsl #6
     558:	4900211f 	stmdbmi	r0, {r0, r1, r2, r3, r4, r8, sp}
     55c:	000b2f13 	andeq	r2, fp, r3, lsl pc
     560:	00342000 	eorseq	r2, r4, r0
     564:	0b3a0803 	bleq	e82578 <__bss_end__+0xe77d78>
     568:	13490b3b 	movtne	r0, #39739	; 0x9b3b
     56c:	00001802 	andeq	r1, r0, r2, lsl #16
     570:	03003421 	movweq	r3, #1057	; 0x421
     574:	3b0b3a0e 	blcc	2cedb4 <__bss_end__+0x2c45b4>
     578:	0213490b 	andseq	r4, r3, #180224	; 0x2c000
     57c:	22000018 	andcs	r0, r0, #24
     580:	0e030034 	mcreq	0, 0, r0, cr3, cr4, {1}
     584:	0b3b0b3a 	bleq	ec3274 <__bss_end__+0xeb8a74>
     588:	061c1349 	ldreq	r1, [ip], -r9, asr #6
     58c:	34230000 	strtcc	r0, [r3], #-0
     590:	3a0e0300 	bcc	381198 <__bss_end__+0x376998>
     594:	490b3b0b 	stmdbmi	fp, {r0, r1, r3, r8, r9, fp, ip, sp}
     598:	3c193f13 	ldccc	15, cr3, [r9], {19}
     59c:	24000019 	strcs	r0, [r0], #-25
     5a0:	0111010b 	tsteq	r1, fp, lsl #2
     5a4:	13010612 	movwne	r0, #5650	; 0x1612
     5a8:	34250000 	strtcc	r0, [r5], #-0
     5ac:	3a0e0300 	bcc	3811b4 <__bss_end__+0x3769b4>
     5b0:	490b3b0b 	stmdbmi	fp, {r0, r1, r3, r8, r9, fp, ip, sp}
     5b4:	26000013 			; <UNDEFINED> instruction: 0x26000013
     5b8:	193f012e 	ldmdbne	pc!, {r1, r2, r3, r5, r8}	; <UNPREDICTABLE>
     5bc:	0b3a0e03 	bleq	e83dd0 <__bss_end__+0xe795d0>
     5c0:	19270b3b 	stmdbne	r7!, {r0, r1, r3, r4, r5, r8, r9, fp}
     5c4:	01111349 	tsteq	r1, r9, asr #6
     5c8:	18400612 	stmdane	r0, {r1, r4, r9, sl}^
     5cc:	01194297 			; <UNDEFINED> instruction: 0x01194297
     5d0:	27000013 	smladcs	r0, r3, r0, r0
     5d4:	193f012e 	ldmdbne	pc!, {r1, r2, r3, r5, r8}	; <UNPREDICTABLE>
     5d8:	0b3a0e03 	bleq	e83dec <__bss_end__+0xe795ec>
     5dc:	19270b3b 	stmdbne	r7!, {r0, r1, r3, r4, r5, r8, r9, fp}
     5e0:	06120111 			; <UNDEFINED> instruction: 0x06120111
     5e4:	42971840 	addsmi	r1, r7, #64, 16	; 0x400000
     5e8:	00130119 	andseq	r0, r3, r9, lsl r1
     5ec:	002e2800 	eoreq	r2, lr, r0, lsl #16
     5f0:	0e03193f 	mcreq	9, 0, r1, cr3, cr15, {1}
     5f4:	0b3b0b3a 	bleq	ec32e4 <__bss_end__+0xeb8ae4>
     5f8:	13491927 	movtne	r1, #39207	; 0x9927
     5fc:	0000193c 	andeq	r1, r0, ip, lsr r9
     600:	3f012e29 	svccc	0x00012e29
     604:	3a0e0319 	bcc	381270 <__bss_end__+0x376a70>
     608:	270b3b0b 	strcs	r3, [fp, -fp, lsl #22]
     60c:	3c134919 	ldccc	9, cr4, [r3], {25}
     610:	00130119 	andseq	r0, r3, r9, lsl r1
     614:	00052a00 	andeq	r2, r5, r0, lsl #20
     618:	00001349 	andeq	r1, r0, r9, asr #6
     61c:	0000182b 	andeq	r1, r0, fp, lsr #16
     620:	002e2c00 	eoreq	r2, lr, r0, lsl #24
     624:	0e03193f 	mcreq	9, 0, r1, cr3, cr15, {1}
     628:	0b3b0b3a 	bleq	ec3318 <__bss_end__+0xeb8b18>
     62c:	193c1927 	ldmdbne	ip!, {r0, r1, r2, r5, r8, fp, ip}
     630:	2e2d0000 	cdpcs	0, 2, cr0, cr13, cr0, {0}
     634:	03193f01 	tsteq	r9, #1, 30
     638:	3b0b3a0e 	blcc	2cee78 <__bss_end__+0x2c4678>
     63c:	3c19270b 	ldccc	7, cr2, [r9], {11}
     640:	00130119 	andseq	r0, r3, r9, lsl r1
     644:	11010000 	mrsne	r0, (UNDEF: 1)
     648:	130e2501 	movwne	r2, #58625	; 0xe501
     64c:	1b0e030b 	blne	381280 <__bss_end__+0x376a80>
     650:	1201110e 	andne	r1, r1, #-2147483645	; 0x80000003
     654:	00171006 	andseq	r1, r7, r6
     658:	00240200 	eoreq	r0, r4, r0, lsl #4
     65c:	0b3e0b0b 	bleq	f83290 <__bss_end__+0xf78a90>
     660:	00000803 	andeq	r0, r0, r3, lsl #16
     664:	0b002403 	bleq	9678 <uart_init+0x8c>
     668:	030b3e0b 	movweq	r3, #48651	; 0xbe0b
     66c:	0400000e 	streq	r0, [r0], #-14
     670:	0e030016 	mcreq	0, 0, r0, cr3, cr6, {0}
     674:	0b3b0b3a 	bleq	ec3364 <__bss_end__+0xeb8b64>
     678:	00001349 	andeq	r1, r0, r9, asr #6
     67c:	0b000f05 	bleq	4298 <_start-0x3d68>
     680:	0013490b 	andseq	r4, r3, fp, lsl #18
     684:	00260600 	eoreq	r0, r6, r0, lsl #12
     688:	00001349 	andeq	r1, r0, r9, asr #6
     68c:	3f012e07 	svccc	0x00012e07
     690:	3a0e0319 	bcc	3812fc <__bss_end__+0x376afc>
     694:	270b3b0b 	strcs	r3, [fp, -fp, lsl #22]
     698:	11134919 	tstne	r3, r9, lsl r9
     69c:	40061201 	andmi	r1, r6, r1, lsl #4
     6a0:	19429718 	stmdbne	r2, {r3, r4, r8, r9, sl, ip, pc}^
     6a4:	00001301 	andeq	r1, r0, r1, lsl #6
     6a8:	03000508 	movweq	r0, #1288	; 0x508
     6ac:	3b0b3a0e 	blcc	2ceeec <__bss_end__+0x2c46ec>
     6b0:	0213490b 	andseq	r4, r3, #180224	; 0x2c000
     6b4:	09000017 	stmdbeq	r0, {r0, r1, r2, r4}
     6b8:	08030005 	stmdaeq	r3, {r0, r2}
     6bc:	0b3b0b3a 	bleq	ec33ac <__bss_end__+0xeb8bac>
     6c0:	17021349 	strne	r1, [r2, -r9, asr #6]
     6c4:	340a0000 	strcc	r0, [sl], #-0
     6c8:	3a0e0300 	bcc	3812d0 <__bss_end__+0x376ad0>
     6cc:	490b3b0b 	stmdbmi	fp, {r0, r1, r3, r8, r9, fp, ip, sp}
     6d0:	00170213 	andseq	r0, r7, r3, lsl r2
     6d4:	00340b00 	eorseq	r0, r4, r0, lsl #22
     6d8:	0b3a0803 	bleq	e826ec <__bss_end__+0xe77eec>
     6dc:	13490b3b 	movtne	r0, #39739	; 0x9b3b
     6e0:	00001702 	andeq	r1, r0, r2, lsl #14
     6e4:	0000260c 	andeq	r2, r0, ip, lsl #12
     6e8:	11010000 	mrsne	r0, (UNDEF: 1)
     6ec:	130e2501 	movwne	r2, #58625	; 0xe501
     6f0:	1b0e030b 	blne	381324 <__bss_end__+0x376b24>
     6f4:	1201110e 	andne	r1, r1, #-2147483645	; 0x80000003
     6f8:	00171006 	andseq	r1, r7, r6
     6fc:	00240200 	eoreq	r0, r4, r0, lsl #4
     700:	0b3e0b0b 	bleq	f83334 <__bss_end__+0xf78b34>
     704:	00000e03 	andeq	r0, r0, r3, lsl #28
     708:	0b002403 	bleq	971c <uart_putc+0x18>
     70c:	030b3e0b 	movweq	r3, #48651	; 0xbe0b
     710:	04000008 	streq	r0, [r0], #-8
     714:	0b0b000f 	bleq	2c0758 <__bss_end__+0x2b5f58>
     718:	0f050000 	svceq	0x00050000
     71c:	490b0b00 	stmdbmi	fp, {r8, r9, fp}
     720:	06000013 			; <UNDEFINED> instruction: 0x06000013
     724:	0e030016 	mcreq	0, 0, r0, cr3, cr6, {0}
     728:	0b3b0b3a 	bleq	ec3418 <__bss_end__+0xeb8c18>
     72c:	00001349 	andeq	r1, r0, r9, asr #6
     730:	3f012e07 	svccc	0x00012e07
     734:	3a0e0319 	bcc	3813a0 <__bss_end__+0x376ba0>
     738:	270b3b0b 	strcs	r3, [fp, -fp, lsl #22]
     73c:	11134919 	tstne	r3, r9, lsl r9
     740:	40061201 	andmi	r1, r6, r1, lsl #4
     744:	19429718 	stmdbne	r2, {r3, r4, r8, r9, sl, ip, pc}^
     748:	05080000 	streq	r0, [r8, #-0]
     74c:	3a080300 	bcc	201354 <__bss_end__+0x1f6b54>
     750:	490b3b0b 	stmdbmi	fp, {r0, r1, r3, r8, r9, fp, ip, sp}
     754:	00180213 	andseq	r0, r8, r3, lsl r2
     758:	00050900 	andeq	r0, r5, r0, lsl #18
     75c:	0b3a0803 	bleq	e82770 <__bss_end__+0xe77f70>
     760:	13490b3b 	movtne	r0, #39739	; 0x9b3b
     764:	00001702 	andeq	r1, r0, r2, lsl #14
     768:	0300340a 	movweq	r3, #1034	; 0x40a
     76c:	3b0b3a08 	blcc	2cef94 <__bss_end__+0x2c4794>
     770:	0213490b 	andseq	r4, r3, #180224	; 0x2c000
     774:	0b000017 	bleq	7d8 <_start-0x7828>
     778:	08030034 	stmdaeq	r3, {r2, r4, r5}
     77c:	0b3b0b3a 	bleq	ec346c <__bss_end__+0xeb8c6c>
     780:	18021349 	stmdane	r2, {r0, r3, r6, r8, r9, ip}
     784:	01000000 	mrseq	r0, (UNDEF: 0)
     788:	0e250111 	mcreq	1, 1, r0, cr5, cr1, {0}
     78c:	0e030b13 	vmoveq.32	d3[0], r0
     790:	01110e1b 	tsteq	r1, fp, lsl lr
     794:	17100612 			; <UNDEFINED> instruction: 0x17100612
     798:	16020000 	strne	r0, [r2], -r0
     79c:	3a0e0300 	bcc	3813a4 <__bss_end__+0x376ba4>
     7a0:	490b3b0b 	stmdbmi	fp, {r0, r1, r3, r8, r9, fp, ip, sp}
     7a4:	03000013 	movweq	r0, #19
     7a8:	0e030113 	mcreq	1, 0, r0, cr3, cr3, {0}
     7ac:	0b3a0b0b 	bleq	e833e0 <__bss_end__+0xe78be0>
     7b0:	13010b3b 	movwne	r0, #6971	; 0x1b3b
     7b4:	0d040000 	stceq	0, cr0, [r4, #-0]
     7b8:	490e0300 	stmdbmi	lr, {r8, r9}
     7bc:	340b3813 	strcc	r3, [fp], #-2067	; 0x813
     7c0:	05000019 	streq	r0, [r0, #-25]
     7c4:	0b0b000f 	bleq	2c0808 <__bss_end__+0x2b6008>
     7c8:	24060000 	strcs	r0, [r6], #-0
     7cc:	3e0b0b00 	vmlacc.f64	d0, d11, d0
     7d0:	0008030b 	andeq	r0, r8, fp, lsl #6
     7d4:	00240700 	eoreq	r0, r4, r0, lsl #14
     7d8:	0b3e0b0b 	bleq	f8340c <__bss_end__+0xf78c0c>
     7dc:	00000e03 	andeq	r0, r0, r3, lsl #28
     7e0:	0b000f08 	bleq	4408 <_start-0x3bf8>
     7e4:	0013490b 	andseq	r4, r3, fp, lsl #18
     7e8:	00260900 	eoreq	r0, r6, r0, lsl #18
     7ec:	00001349 	andeq	r1, r0, r9, asr #6
     7f0:	3f012e0a 	svccc	0x00012e0a
     7f4:	3a0e0319 	bcc	381460 <__bss_end__+0x376c60>
     7f8:	270b3b0b 	strcs	r3, [fp, -fp, lsl #22]
     7fc:	11134919 	tstne	r3, r9, lsl r9
     800:	40061201 	andmi	r1, r6, r1, lsl #4
     804:	19429718 	stmdbne	r2, {r3, r4, r8, r9, sl, ip, pc}^
     808:	00001301 	andeq	r1, r0, r1, lsl #6
     80c:	0300050b 	movweq	r0, #1291	; 0x50b
     810:	3b0b3a08 	blcc	2cf038 <__bss_end__+0x2c4838>
     814:	0213490b 	andseq	r4, r3, #180224	; 0x2c000
     818:	0c000018 	stceq	0, cr0, [r0], {24}
     81c:	00000018 	andeq	r0, r0, r8, lsl r0
     820:	0300340d 	movweq	r3, #1037	; 0x40d
     824:	3b0b3a08 	blcc	2cf04c <__bss_end__+0x2c484c>
     828:	0213490b 	andseq	r4, r3, #180224	; 0x2c000
     82c:	0e000018 	mcreq	0, 0, r0, cr0, cr8, {0}
     830:	0e030034 	mcreq	0, 0, r0, cr3, cr4, {1}
     834:	0b3b0b3a 	bleq	ec3524 <__bss_end__+0xeb8d24>
     838:	18021349 	stmdane	r2, {r0, r3, r6, r8, r9, ip}
     83c:	340f0000 	strcc	r0, [pc], #-0	; 844 <_start-0x77bc>
     840:	3a080300 	bcc	201448 <__bss_end__+0x1f6c48>
     844:	490b3b0b 	stmdbmi	fp, {r0, r1, r3, r8, r9, fp, ip, sp}
     848:	00170213 	andseq	r0, r7, r3, lsl r2
     84c:	82891000 	addhi	r1, r9, #0
     850:	01110101 	tsteq	r1, r1, lsl #2
     854:	13011331 	movwne	r1, #4913	; 0x1331
     858:	8a110000 	bhi	440860 <__bss_end__+0x436060>
     85c:	02000182 	andeq	r0, r0, #-2147483616	; 0x80000020
     860:	18429118 	stmdane	r2, {r3, r4, r8, ip, pc}^
     864:	89120000 	ldmdbhi	r2, {}	; <UNPREDICTABLE>
     868:	11010182 	smlabbne	r1, r2, r1, r0
     86c:	13000001 	movwne	r0, #1
     870:	13490101 	movtne	r0, #37121	; 0x9101
     874:	00001301 	andeq	r1, r0, r1, lsl #6
     878:	49002114 	stmdbmi	r0, {r2, r4, r8, sp}
     87c:	00052f13 	andeq	r2, r5, r3, lsl pc
     880:	01151500 	tsteq	r5, r0, lsl #10
     884:	13491927 	movtne	r1, #39207	; 0x9927
     888:	00001301 	andeq	r1, r0, r1, lsl #6
     88c:	49000516 	stmdbmi	r0, {r1, r2, r4, r8, sl}
     890:	17000013 	smladne	r0, r3, r0, r0
     894:	0e030034 	mcreq	0, 0, r0, cr3, cr4, {1}
     898:	0b3b0b3a 	bleq	ec3588 <__bss_end__+0xeb8d88>
     89c:	193f1349 	ldmdbne	pc!, {r0, r3, r6, r8, r9, ip}	; <UNPREDICTABLE>
     8a0:	0000193c 	andeq	r1, r0, ip, lsr r9
     8a4:	3f012e18 	svccc	0x00012e18
     8a8:	3a0e0319 	bcc	381514 <__bss_end__+0x376d14>
     8ac:	270b3b0b 	strcs	r3, [fp, -fp, lsl #22]
     8b0:	3c134919 	ldccc	9, cr4, [r3], {25}
     8b4:	00000019 	andeq	r0, r0, r9, lsl r0
     8b8:	25011101 	strcs	r1, [r1, #-257]	; 0x101
     8bc:	030b130e 	movweq	r1, #45838	; 0xb30e
     8c0:	110e1b0e 	tstne	lr, lr, lsl #22
     8c4:	10061201 	andne	r1, r6, r1, lsl #4
     8c8:	02000017 	andeq	r0, r0, #23
     8cc:	0b0b0024 	bleq	2c0964 <__bss_end__+0x2b6164>
     8d0:	08030b3e 	stmdaeq	r3, {r1, r2, r3, r4, r5, r8, r9, fp}
     8d4:	24030000 	strcs	r0, [r3], #-0
     8d8:	3e0b0b00 	vmlacc.f64	d0, d11, d0
     8dc:	000e030b 	andeq	r0, lr, fp, lsl #6
     8e0:	012e0400 	teqeq	lr, r0, lsl #8
     8e4:	0b3a0e03 	bleq	e840f8 <__bss_end__+0xe798f8>
     8e8:	19270b3b 	stmdbne	r7!, {r0, r1, r3, r4, r5, r8, r9, fp}
     8ec:	01111349 	tsteq	r1, r9, asr #6
     8f0:	18400612 	stmdane	r0, {r1, r4, r9, sl}^
     8f4:	01194297 			; <UNDEFINED> instruction: 0x01194297
     8f8:	05000013 	streq	r0, [r0, #-19]
     8fc:	08030005 	stmdaeq	r3, {r0, r2}
     900:	0b3b0b3a 	bleq	ec35f0 <__bss_end__+0xeb8df0>
     904:	17021349 	strne	r1, [r2, -r9, asr #6]
     908:	89060000 	stmdbhi	r6, {}	; <UNPREDICTABLE>
     90c:	11010182 	smlabbne	r1, r2, r1, r0
     910:	00133101 	andseq	r3, r3, r1, lsl #2
     914:	828a0700 	addhi	r0, sl, #0, 14
     918:	18020001 	stmdane	r2, {r0}
     91c:	00184291 	mulseq	r8, r1, r2
     920:	002e0800 	eoreq	r0, lr, r0, lsl #16
     924:	0e03193f 	mcreq	9, 0, r1, cr3, cr15, {1}
     928:	0b3b0b3a 	bleq	ec3618 <__bss_end__+0xeb8e18>
     92c:	01111927 	tsteq	r1, r7, lsr #18
     930:	18400612 	stmdane	r0, {r1, r4, r9, sl}^
     934:	00194297 	mulseq	r9, r7, r2
     938:	012e0900 	teqeq	lr, r0, lsl #18
     93c:	0e03193f 	mcreq	9, 0, r1, cr3, cr15, {1}
     940:	0b3b0b3a 	bleq	ec3630 <__bss_end__+0xeb8e30>
     944:	01111927 	tsteq	r1, r7, lsr #18
     948:	18400612 	stmdane	r0, {r1, r4, r9, sl}^
     94c:	01194297 			; <UNDEFINED> instruction: 0x01194297
     950:	0a000013 	beq	9a4 <_start-0x765c>
     954:	08030005 	stmdaeq	r3, {r0, r2}
     958:	0b3b0b3a 	bleq	ec3648 <__bss_end__+0xeb8e48>
     95c:	18021349 	stmdane	r2, {r0, r3, r6, r8, r9, ip}
     960:	150b0000 	strne	r0, [fp, #-0]
     964:	49192701 	ldmdbmi	r9, {r0, r8, r9, sl, sp}
     968:	00130113 	andseq	r0, r3, r3, lsl r1
     96c:	00050c00 	andeq	r0, r5, r0, lsl #24
     970:	00001349 	andeq	r1, r0, r9, asr #6
     974:	0b000f0d 	bleq	45b0 <_start-0x3a50>
     978:	0013490b 	andseq	r4, r3, fp, lsl #18
     97c:	00340e00 	eorseq	r0, r4, r0, lsl #28
     980:	0b3a0e03 	bleq	e84194 <__bss_end__+0xe79994>
     984:	13490b3b 	movtne	r0, #39739	; 0x9b3b
     988:	1802193f 	stmdane	r2, {r0, r1, r2, r3, r4, r5, r8, fp, ip}
     98c:	2e0f0000 	cdpcs	0, 0, cr0, cr15, cr0, {0}
     990:	03193f01 	tsteq	r9, #1, 30
     994:	3b0b3a0e 	blcc	2cf1d4 <__bss_end__+0x2c49d4>
     998:	3c19270b 	ldccc	7, cr2, [r9], {11}
     99c:	00000019 	andeq	r0, r0, r9, lsl r0
     9a0:	25011101 	strcs	r1, [r1, #-257]	; 0x101
     9a4:	030b130e 	movweq	r1, #45838	; 0xb30e
     9a8:	110e1b0e 	tstne	lr, lr, lsl #22
     9ac:	10061201 	andne	r1, r6, r1, lsl #4
     9b0:	02000017 	andeq	r0, r0, #23
     9b4:	0b0b0024 	bleq	2c0a4c <__bss_end__+0x2b624c>
     9b8:	08030b3e 	stmdaeq	r3, {r1, r2, r3, r4, r5, r8, r9, fp}
     9bc:	24030000 	strcs	r0, [r3], #-0
     9c0:	3e0b0b00 	vmlacc.f64	d0, d11, d0
     9c4:	000e030b 	andeq	r0, lr, fp, lsl #6
     9c8:	000f0400 	andeq	r0, pc, r0, lsl #8
     9cc:	13490b0b 	movtne	r0, #39691	; 0x9b0b
     9d0:	26050000 	strcs	r0, [r5], -r0
     9d4:	00134900 	andseq	r4, r3, r0, lsl #18
     9d8:	012e0600 	teqeq	lr, r0, lsl #12
     9dc:	0e03193f 	mcreq	9, 0, r1, cr3, cr15, {1}
     9e0:	0b3b0b3a 	bleq	ec36d0 <__bss_end__+0xeb8ed0>
     9e4:	13491927 	movtne	r1, #39207	; 0x9927
     9e8:	06120111 			; <UNDEFINED> instruction: 0x06120111
     9ec:	42961840 	addsmi	r1, r6, #64, 16	; 0x400000
     9f0:	00130119 	andseq	r0, r3, r9, lsl r1
     9f4:	00050700 	andeq	r0, r5, r0, lsl #14
     9f8:	0b3a0803 	bleq	e82a0c <__bss_end__+0xe7820c>
     9fc:	13490b3b 	movtne	r0, #39739	; 0x9b3b
     a00:	00001702 	andeq	r1, r0, r2, lsl #14
     a04:	27011508 	strcs	r1, [r1, -r8, lsl #10]
     a08:	01134919 	tsteq	r3, r9, lsl r9
     a0c:	09000013 	stmdbeq	r0, {r0, r1, r4}
     a10:	13490005 	movtne	r0, #36869	; 0x9005
     a14:	340a0000 	strcc	r0, [sl], #-0
     a18:	3a0e0300 	bcc	381620 <__bss_end__+0x376e20>
     a1c:	490b3b0b 	stmdbmi	fp, {r0, r1, r3, r8, r9, fp, ip, sp}
     a20:	3c193f13 	ldccc	15, cr3, [r9], {19}
     a24:	0b000019 	bleq	a90 <_start-0x7570>
     a28:	0e030034 	mcreq	0, 0, r0, cr3, cr4, {1}
     a2c:	0b3b0b3a 	bleq	ec371c <__bss_end__+0xeb8f1c>
     a30:	193f1349 	ldmdbne	pc!, {r0, r3, r6, r8, r9, ip}	; <UNPREDICTABLE>
     a34:	00001802 	andeq	r1, r0, r2, lsl #16
     a38:	01110100 	tsteq	r1, r0, lsl #2
     a3c:	0b130e25 	bleq	4c42d8 <__bss_end__+0x4b9ad8>
     a40:	0e1b0e03 	cdpeq	14, 1, cr0, cr11, cr3, {0}
     a44:	06120111 			; <UNDEFINED> instruction: 0x06120111
     a48:	00001710 	andeq	r1, r0, r0, lsl r7
     a4c:	0b002402 	bleq	9a5c <__data_end__+0x3c>
     a50:	030b3e0b 	movweq	r3, #48651	; 0xbe0b
     a54:	03000008 	movweq	r0, #8
     a58:	0b0b0024 	bleq	2c0af0 <__bss_end__+0x2b62f0>
     a5c:	0e030b3e 	vmoveq.16	d3[0], r0
     a60:	0f040000 	svceq	0x00040000
     a64:	000b0b00 	andeq	r0, fp, r0, lsl #22
     a68:	000f0500 	andeq	r0, pc, r0, lsl #10
     a6c:	13490b0b 	movtne	r0, #39691	; 0x9b0b
     a70:	26060000 	strcs	r0, [r6], -r0
     a74:	00134900 	andseq	r4, r3, r0, lsl #18
     a78:	00160700 	andseq	r0, r6, r0, lsl #14
     a7c:	0b3a0e03 	bleq	e84290 <__bss_end__+0xe79a90>
     a80:	13490b3b 	movtne	r0, #39739	; 0x9b3b
     a84:	13080000 	movwne	r0, #32768	; 0x8000
     a88:	0b0e0301 	bleq	381694 <__bss_end__+0x376e94>
     a8c:	3b0b3a0b 	blcc	2cf2c0 <__bss_end__+0x2c4ac0>
     a90:	0013010b 	andseq	r0, r3, fp, lsl #2
     a94:	000d0900 	andeq	r0, sp, r0, lsl #18
     a98:	13490e03 	movtne	r0, #40451	; 0x9e03
     a9c:	19340b38 	ldmdbne	r4!, {r3, r4, r5, r8, r9, fp}
     aa0:	2e0a0000 	cdpcs	0, 0, cr0, cr10, cr0, {0}
     aa4:	3a0e0301 	bcc	3816b0 <__bss_end__+0x376eb0>
     aa8:	270b3b0b 	strcs	r3, [fp, -fp, lsl #22]
     aac:	11134919 	tstne	r3, r9, lsl r9
     ab0:	40061201 	andmi	r1, r6, r1, lsl #4
     ab4:	19429718 	stmdbne	r2, {r3, r4, r8, r9, sl, ip, pc}^
     ab8:	00001301 	andeq	r1, r0, r1, lsl #6
     abc:	0300050b 	movweq	r0, #1291	; 0x50b
     ac0:	3b0b3a08 	blcc	2cf2e8 <__bss_end__+0x2c4ae8>
     ac4:	0213490b 	andseq	r4, r3, #180224	; 0x2c000
     ac8:	0c000017 	stceq	0, cr0, [r0], {23}
     acc:	0803012e 	stmdaeq	r3, {r1, r2, r3, r5, r8}
     ad0:	0b3b0b3a 	bleq	ec37c0 <__bss_end__+0xeb8fc0>
     ad4:	13491927 	movtne	r1, #39207	; 0x9927
     ad8:	06120111 			; <UNDEFINED> instruction: 0x06120111
     adc:	42971840 	addsmi	r1, r7, #64, 16	; 0x400000
     ae0:	00130119 	andseq	r0, r3, r9, lsl r1
     ae4:	00050d00 	andeq	r0, r5, r0, lsl #26
     ae8:	0b3a0e03 	bleq	e842fc <__bss_end__+0xe79afc>
     aec:	13490b3b 	movtne	r0, #39739	; 0x9b3b
     af0:	00001702 	andeq	r1, r0, r2, lsl #14
     af4:	0300050e 	movweq	r0, #1294	; 0x50e
     af8:	3b0b3a0e 	blcc	2cf338 <__bss_end__+0x2c4b38>
     afc:	0213490b 	andseq	r4, r3, #180224	; 0x2c000
     b00:	0f000018 	svceq	0x00000018
     b04:	08030034 	stmdaeq	r3, {r2, r4, r5}
     b08:	0b3b0b3a 	bleq	ec37f8 <__bss_end__+0xeb8ff8>
     b0c:	18021349 	stmdane	r2, {r0, r3, r6, r8, r9, ip}
     b10:	34100000 	ldrcc	r0, [r0], #-0
     b14:	3a080300 	bcc	20171c <__bss_end__+0x1f6f1c>
     b18:	490b3b0b 	stmdbmi	fp, {r0, r1, r3, r8, r9, fp, ip, sp}
     b1c:	00170213 	andseq	r0, r7, r3, lsl r2
     b20:	00341100 	eorseq	r1, r4, r0, lsl #2
     b24:	13490e03 	movtne	r0, #40451	; 0x9e03
     b28:	18021934 	stmdane	r2, {r2, r4, r5, r8, fp, ip}
     b2c:	0b120000 	bleq	480b34 <__bss_end__+0x476334>
     b30:	12011101 	andne	r1, r1, #1073741824	; 0x40000000
     b34:	00130106 	andseq	r0, r3, r6, lsl #2
     b38:	00341300 	eorseq	r1, r4, r0, lsl #6
     b3c:	0b3a0e03 	bleq	e84350 <__bss_end__+0xe79b50>
     b40:	13490b3b 	movtne	r0, #39739	; 0x9b3b
     b44:	00001702 	andeq	r1, r0, r2, lsl #14
     b48:	01828914 	orreq	r8, r2, r4, lsl r9
     b4c:	31011100 	mrscc	r1, (UNDEF: 17)
     b50:	15000013 	strne	r0, [r0, #-19]
     b54:	01018289 	smlabbeq	r1, r9, r2, r8
     b58:	13310111 	teqne	r1, #1073741828	; 0x40000004
     b5c:	00001301 	andeq	r1, r0, r1, lsl #6
     b60:	01828a16 	orreq	r8, r2, r6, lsl sl
     b64:	91180200 	tstls	r8, r0, lsl #4
     b68:	00001842 	andeq	r1, r0, r2, asr #16
     b6c:	01828917 	orreq	r8, r2, r7, lsl r9
     b70:	31011101 	tstcc	r1, r1, lsl #2
     b74:	18000013 	stmdane	r0, {r0, r1, r4}
     b78:	13490101 	movtne	r0, #37121	; 0x9101
     b7c:	00001301 	andeq	r1, r0, r1, lsl #6
     b80:	49002119 	stmdbmi	r0, {r0, r3, r4, r8, sp}
     b84:	000b2f13 	andeq	r2, fp, r3, lsl pc
     b88:	012e1a00 	teqeq	lr, r0, lsl #20
     b8c:	0e03193f 	mcreq	9, 0, r1, cr3, cr15, {1}
     b90:	0b3b0b3a 	bleq	ec3880 <__bss_end__+0xeb9080>
     b94:	01111927 	tsteq	r1, r7, lsr #18
     b98:	18400612 	stmdane	r0, {r1, r4, r9, sl}^
     b9c:	01194297 			; <UNDEFINED> instruction: 0x01194297
     ba0:	1b000013 	blne	bf4 <_start-0x740c>
     ba4:	19270115 	stmdbne	r7!, {r0, r2, r4, r8}
     ba8:	13011349 	movwne	r1, #4937	; 0x1349
     bac:	051c0000 	ldreq	r0, [ip, #-0]
     bb0:	00134900 	andseq	r4, r3, r0, lsl #18
     bb4:	012e1d00 	teqeq	lr, r0, lsl #26
     bb8:	0e03193f 	mcreq	9, 0, r1, cr3, cr15, {1}
     bbc:	0b3b0b3a 	bleq	ec38ac <__bss_end__+0xeb90ac>
     bc0:	13491927 	movtne	r1, #39207	; 0x9927
     bc4:	06120111 			; <UNDEFINED> instruction: 0x06120111
     bc8:	42971840 	addsmi	r1, r7, #64, 16	; 0x400000
     bcc:	00130119 	andseq	r0, r3, r9, lsl r1
     bd0:	010b1e00 	tsteq	fp, r0, lsl #28
     bd4:	00001755 	andeq	r1, r0, r5, asr r7
     bd8:	0300341f 	movweq	r3, #1055	; 0x41f
     bdc:	3b0b3a0e 	blcc	2cf41c <__bss_end__+0x2c4c1c>
     be0:	3f13490b 	svccc	0x0013490b
     be4:	00193c19 	andseq	r3, r9, r9, lsl ip
     be8:	002e2000 	eoreq	r2, lr, r0
     bec:	0e03193f 	mcreq	9, 0, r1, cr3, cr15, {1}
     bf0:	0b3b0b3a 	bleq	ec38e0 <__bss_end__+0xeb90e0>
     bf4:	193c1927 	ldmdbne	ip!, {r0, r1, r2, r5, r8, fp, ip}
     bf8:	2e210000 	cdpcs	0, 2, cr0, cr1, cr0, {0}
     bfc:	03193f01 	tsteq	r9, #1, 30
     c00:	3b0b3a0e 	blcc	2cf440 <__bss_end__+0x2c4c40>
     c04:	4919270b 	ldmdbmi	r9, {r0, r1, r3, r8, r9, sl, sp}
     c08:	01193c13 	tsteq	r9, r3, lsl ip
     c0c:	22000013 	andcs	r0, r0, #19
     c10:	00000018 	andeq	r0, r0, r8, lsl r0
     c14:	01110100 	tsteq	r1, r0, lsl #2
     c18:	0b130e25 	bleq	4c44b4 <__bss_end__+0x4b9cb4>
     c1c:	0e1b0e03 	cdpeq	14, 1, cr0, cr11, cr3, {0}
     c20:	06120111 			; <UNDEFINED> instruction: 0x06120111
     c24:	00001710 	andeq	r1, r0, r0, lsl r7
     c28:	0b002402 	bleq	9c38 <__FUNCTION__.4322+0x148>
     c2c:	030b3e0b 	movweq	r3, #48651	; 0xbe0b
     c30:	03000008 	movweq	r0, #8
     c34:	0b0b0024 	bleq	2c0ccc <__bss_end__+0x2b64cc>
     c38:	0e030b3e 	vmoveq.16	d3[0], r0
     c3c:	0f040000 	svceq	0x00040000
     c40:	490b0b00 	stmdbmi	fp, {r8, r9, fp}
     c44:	05000013 	streq	r0, [r0, #-19]
     c48:	13490026 	movtne	r0, #36902	; 0x9026
     c4c:	2e060000 	cdpcs	0, 0, cr0, cr6, cr0, {0}
     c50:	03193f01 	tsteq	r9, #1, 30
     c54:	3b0b3a0e 	blcc	2cf494 <__bss_end__+0x2c4c94>
     c58:	1119270b 	tstne	r9, fp, lsl #14
     c5c:	40061201 	andmi	r1, r6, r1, lsl #4
     c60:	19429718 	stmdbne	r2, {r3, r4, r8, r9, sl, ip, pc}^
     c64:	00001301 	andeq	r1, r0, r1, lsl #6
     c68:	01828907 	orreq	r8, r2, r7, lsl #18
     c6c:	01011101 	tsteq	r1, r1, lsl #2
     c70:	08000013 	stmdaeq	r0, {r0, r1, r4}
     c74:	0001828a 	andeq	r8, r1, sl, lsl #5
     c78:	42911802 	addsmi	r1, r1, #131072	; 0x20000
     c7c:	09000018 	stmdbeq	r0, {r3, r4}
     c80:	01018289 	smlabbeq	r1, r9, r2, r8
     c84:	13310111 	teqne	r1, #1073741828	; 0x40000004
     c88:	00001301 	andeq	r1, r0, r1, lsl #6
     c8c:	0182890a 	orreq	r8, r2, sl, lsl #18
     c90:	31011100 	mrscc	r1, (UNDEF: 17)
     c94:	0b000013 	bleq	ce8 <_start-0x7318>
     c98:	19270115 	stmdbne	r7!, {r0, r2, r4, r8}
     c9c:	13011349 	movwne	r1, #4937	; 0x1349
     ca0:	050c0000 	streq	r0, [ip, #-0]
     ca4:	00134900 	andseq	r4, r3, r0, lsl #18
     ca8:	00340d00 	eorseq	r0, r4, r0, lsl #26
     cac:	0b3a0e03 	bleq	e844c0 <__bss_end__+0xe79cc0>
     cb0:	13490b3b 	movtne	r0, #39739	; 0x9b3b
     cb4:	193c193f 	ldmdbne	ip!, {r0, r1, r2, r3, r4, r5, r8, fp, ip}
     cb8:	2e0e0000 	cdpcs	0, 0, cr0, cr14, cr0, {0}
     cbc:	03193f01 	tsteq	r9, #1, 30
     cc0:	3b0b3a0e 	blcc	2cf500 <__bss_end__+0x2c4d00>
     cc4:	3c19270b 	ldccc	7, cr2, [r9], {11}
     cc8:	00130119 	andseq	r0, r3, r9, lsl r1
     ccc:	002e0f00 	eoreq	r0, lr, r0, lsl #30
     cd0:	0e03193f 	mcreq	9, 0, r1, cr3, cr15, {1}
     cd4:	0b3b0b3a 	bleq	ec39c4 <__bss_end__+0xeb91c4>
     cd8:	193c1927 	ldmdbne	ip!, {r0, r1, r2, r5, r8, fp, ip}
     cdc:	01000000 	mrseq	r0, (UNDEF: 0)
     ce0:	0e250111 	mcreq	1, 1, r0, cr5, cr1, {0}
     ce4:	0e030b13 	vmoveq.32	d3[0], r0
     ce8:	01110e1b 	tsteq	r1, fp, lsl lr
     cec:	17100612 			; <UNDEFINED> instruction: 0x17100612
     cf0:	24020000 	strcs	r0, [r2], #-0
     cf4:	3e0b0b00 	vmlacc.f64	d0, d11, d0
     cf8:	0008030b 	andeq	r0, r8, fp, lsl #6
     cfc:	00240300 	eoreq	r0, r4, r0, lsl #6
     d00:	0b3e0b0b 	bleq	f83934 <__bss_end__+0xf79134>
     d04:	00000e03 	andeq	r0, r0, r3, lsl #28
     d08:	3f012e04 	svccc	0x00012e04
     d0c:	3a0e0319 	bcc	381978 <__bss_end__+0x377178>
     d10:	110b3b0b 	tstne	fp, fp, lsl #22
     d14:	40061201 	andmi	r1, r6, r1, lsl #4
     d18:	19429718 	stmdbne	r2, {r3, r4, r8, r9, sl, ip, pc}^
     d1c:	00001301 	andeq	r1, r0, r1, lsl #6
     d20:	03003405 	movweq	r3, #1029	; 0x405
     d24:	3b0b3a0e 	blcc	2cf564 <__bss_end__+0x2c4d64>
     d28:	3f13490b 	svccc	0x0013490b
     d2c:	00193c19 	andseq	r3, r9, r9, lsl ip
     d30:	002e0600 	eoreq	r0, lr, r0, lsl #12
     d34:	0e03193f 	mcreq	9, 0, r1, cr3, cr15, {1}
     d38:	0b3b0b3a 	bleq	ec3a28 <__bss_end__+0xeb9228>
     d3c:	193c1927 	ldmdbne	ip!, {r0, r1, r2, r5, r8, fp, ip}
     d40:	34070000 	strcc	r0, [r7], #-0
     d44:	3a080300 	bcc	20194c <__bss_end__+0x1f714c>
     d48:	490b3b0b 	stmdbmi	fp, {r0, r1, r3, r8, r9, fp, ip, sp}
     d4c:	00170213 	andseq	r0, r7, r3, lsl r2
     d50:	00340800 	eorseq	r0, r4, r0, lsl #16
     d54:	0b3a0e03 	bleq	e84568 <__bss_end__+0xe79d68>
     d58:	13490b3b 	movtne	r0, #39739	; 0x9b3b
     d5c:	89090000 	stmdbhi	r9, {}	; <UNPREDICTABLE>
     d60:	11000182 	smlabbne	r0, r2, r1, r0
     d64:	00133101 	andseq	r3, r3, r1, lsl #2
     d68:	000f0a00 	andeq	r0, pc, r0, lsl #20
     d6c:	13490b0b 	movtne	r0, #39691	; 0x9b0b
     d70:	01000000 	mrseq	r0, (UNDEF: 0)
     d74:	0e250111 	mcreq	1, 1, r0, cr5, cr1, {0}
     d78:	0e030b13 	vmoveq.32	d3[0], r0
     d7c:	17550e1b 	smmlane	r5, fp, lr, r0
     d80:	17100111 			; <UNDEFINED> instruction: 0x17100111
     d84:	24020000 	strcs	r0, [r2], #-0
     d88:	3e0b0b00 	vmlacc.f64	d0, d11, d0
     d8c:	0008030b 	andeq	r0, r8, fp, lsl #6
     d90:	00240300 	eoreq	r0, r4, r0, lsl #6
     d94:	0b3e0b0b 	bleq	f839c8 <__bss_end__+0xf791c8>
     d98:	00000e03 	andeq	r0, r0, r3, lsl #28
     d9c:	3f012e04 	svccc	0x00012e04
     da0:	3a0e0319 	bcc	381a0c <__bss_end__+0x37720c>
     da4:	270b3b0b 	strcs	r3, [fp, -fp, lsl #22]
     da8:	11134919 	tstne	r3, r9, lsl r9
     dac:	40061201 	andmi	r1, r6, r1, lsl #4
     db0:	19429718 	stmdbne	r2, {r3, r4, r8, r9, sl, ip, pc}^
     db4:	00001301 	andeq	r1, r0, r1, lsl #6
     db8:	03003405 	movweq	r3, #1029	; 0x405
     dbc:	3b0b3a0e 	blcc	2cf5fc <__bss_end__+0x2c4dfc>
     dc0:	0213490b 	andseq	r4, r3, #180224	; 0x2c000
     dc4:	06000017 			; <UNDEFINED> instruction: 0x06000017
     dc8:	193f012e 	ldmdbne	pc!, {r1, r2, r3, r5, r8}	; <UNPREDICTABLE>
     dcc:	0b3a0e03 	bleq	e845e0 <__bss_end__+0xe79de0>
     dd0:	19270b3b 	stmdbne	r7!, {r0, r1, r3, r4, r5, r8, r9, fp}
     dd4:	06120111 			; <UNDEFINED> instruction: 0x06120111
     dd8:	42971840 	addsmi	r1, r7, #64, 16	; 0x400000
     ddc:	00130119 	andseq	r0, r3, r9, lsl r1
     de0:	00340700 	eorseq	r0, r4, r0, lsl #14
     de4:	0b3a0e03 	bleq	e845f8 <__bss_end__+0xe79df8>
     de8:	13490b3b 	movtne	r0, #39739	; 0x9b3b
     dec:	0000061c 	andeq	r0, r0, ip, lsl r6
     df0:	03003408 	movweq	r3, #1032	; 0x408
     df4:	3b0b3a0e 	blcc	2cf634 <__bss_end__+0x2c4e34>
     df8:	1c13490b 	ldcne	9, cr4, [r3], {11}
     dfc:	0900000b 	stmdbeq	r0, {r0, r1, r3}
     e00:	00018289 	andeq	r8, r1, r9, lsl #5
     e04:	13310111 	teqne	r1, #1073741828	; 0x40000004
     e08:	890a0000 	stmdbhi	sl, {}	; <UNPREDICTABLE>
     e0c:	11010182 	smlabbne	r1, r2, r1, r0
     e10:	01133101 	tsteq	r3, r1, lsl #2
     e14:	0b000013 	bleq	e68 <_start-0x7198>
     e18:	0001828a 	andeq	r8, r1, sl, lsl #5
     e1c:	42911802 	addsmi	r1, r1, #131072	; 0x20000
     e20:	0c000018 	stceq	0, cr0, [r0], {24}
     e24:	01018289 	smlabbeq	r1, r9, r2, r8
     e28:	13310111 	teqne	r1, #1073741828	; 0x40000004
     e2c:	260d0000 	strcs	r0, [sp], -r0
     e30:	00134900 	andseq	r4, r3, r0, lsl #18
     e34:	012e0e00 	teqeq	lr, r0, lsl #28
     e38:	0e03193f 	mcreq	9, 0, r1, cr3, cr15, {1}
     e3c:	0b3b0b3a 	bleq	ec3b2c <__bss_end__+0xeb932c>
     e40:	193c1927 	ldmdbne	ip!, {r0, r1, r2, r5, r8, fp, ip}
     e44:	00001301 	andeq	r1, r0, r1, lsl #6
     e48:	4900050f 	stmdbmi	r0, {r0, r1, r2, r3, r8, sl}
     e4c:	10000013 	andne	r0, r0, r3, lsl r0
     e50:	193f012e 	ldmdbne	pc!, {r1, r2, r3, r5, r8}	; <UNPREDICTABLE>
     e54:	0b3a0e03 	bleq	e84668 <__bss_end__+0xe79e68>
     e58:	19270b3b 	stmdbne	r7!, {r0, r1, r3, r4, r5, r8, r9, fp}
     e5c:	0000193c 	andeq	r1, r0, ip, lsr r9
     e60:	01110100 	tsteq	r1, r0, lsl #2
     e64:	0b130e25 	bleq	4c4700 <__bss_end__+0x4b9f00>
     e68:	0e1b0e03 	cdpeq	14, 1, cr0, cr11, cr3, {0}
     e6c:	06120111 			; <UNDEFINED> instruction: 0x06120111
     e70:	00001710 	andeq	r1, r0, r0, lsl r7
     e74:	0b002402 	bleq	9e84 <__FUNCTION__.4322+0x394>
     e78:	030b3e0b 	movweq	r3, #48651	; 0xbe0b
     e7c:	03000008 	movweq	r0, #8
     e80:	0b0b0024 	bleq	2c0f18 <__bss_end__+0x2b6718>
     e84:	0e030b3e 	vmoveq.16	d3[0], r0
     e88:	2e040000 	cdpcs	0, 0, cr0, cr4, cr0, {0}
     e8c:	03193f01 	tsteq	r9, #1, 30
     e90:	3b0b3a0e 	blcc	2cf6d0 <__bss_end__+0x2c4ed0>
     e94:	1119270b 	tstne	r9, fp, lsl #14
     e98:	40061201 	andmi	r1, r6, r1, lsl #4
     e9c:	19429718 	stmdbne	r2, {r3, r4, r8, r9, sl, ip, pc}^
     ea0:	00001301 	andeq	r1, r0, r1, lsl #6
     ea4:	03000505 	movweq	r0, #1285	; 0x505
     ea8:	3b0b3a0e 	blcc	2cf6e8 <__bss_end__+0x2c4ee8>
     eac:	0213490b 	andseq	r4, r3, #180224	; 0x2c000
     eb0:	06000017 			; <UNDEFINED> instruction: 0x06000017
     eb4:	193f012e 	ldmdbne	pc!, {r1, r2, r3, r5, r8}	; <UNPREDICTABLE>
     eb8:	0b3a0e03 	bleq	e846cc <__bss_end__+0xe79ecc>
     ebc:	19270b3b 	stmdbne	r7!, {r0, r1, r3, r4, r5, r8, r9, fp}
     ec0:	01111349 	tsteq	r1, r9, asr #6
     ec4:	18400612 	stmdane	r0, {r1, r4, r9, sl}^
     ec8:	01194297 			; <UNDEFINED> instruction: 0x01194297
     ecc:	07000013 	smladeq	r0, r3, r0, r0
     ed0:	01018289 	smlabbeq	r1, r9, r2, r8
     ed4:	13310111 	teqne	r1, #1073741828	; 0x40000004
     ed8:	8a080000 	bhi	200ee0 <__bss_end__+0x1f66e0>
     edc:	02000182 	andeq	r0, r0, #-2147483616	; 0x80000020
     ee0:	18429118 	stmdane	r2, {r3, r4, r8, ip, pc}^
     ee4:	34090000 	strcc	r0, [r9], #-0
     ee8:	3a080300 	bcc	201af0 <__bss_end__+0x1f72f0>
     eec:	490b3b0b 	stmdbmi	fp, {r0, r1, r3, r8, r9, fp, ip, sp}
     ef0:	00180213 	andseq	r0, r8, r3, lsl r2
     ef4:	82890a00 	addhi	r0, r9, #0, 20
     ef8:	01110001 	tsteq	r1, r1
     efc:	00001331 	andeq	r1, r0, r1, lsr r3
     f00:	0300050b 	movweq	r0, #1291	; 0x50b
     f04:	3b0b3a08 	blcc	2cf72c <__bss_end__+0x2c4f2c>
     f08:	0213490b 	andseq	r4, r3, #180224	; 0x2c000
     f0c:	0c000017 	stceq	0, cr0, [r0], {23}
     f10:	0111010b 	tsteq	r1, fp, lsl #2
     f14:	13010612 	movwne	r0, #5650	; 0x1612
     f18:	340d0000 	strcc	r0, [sp], #-0
     f1c:	3a080300 	bcc	201b24 <__bss_end__+0x1f7324>
     f20:	490b3b0b 	stmdbmi	fp, {r0, r1, r3, r8, r9, fp, ip, sp}
     f24:	00170213 	andseq	r0, r7, r3, lsl r2
     f28:	012e0e00 	teqeq	lr, r0, lsl #28
     f2c:	0e03193f 	mcreq	9, 0, r1, cr3, cr15, {1}
     f30:	0b3b0b3a 	bleq	ec3c20 <__bss_end__+0xeb9420>
     f34:	13491927 	movtne	r1, #39207	; 0x9927
     f38:	0000193c 	andeq	r1, r0, ip, lsr r9
     f3c:	4900050f 	stmdbmi	r0, {r0, r1, r2, r3, r8, sl}
     f40:	00000013 	andeq	r0, r0, r3, lsl r0
     f44:	25011101 	strcs	r1, [r1, #-257]	; 0x101
     f48:	030b130e 	movweq	r1, #45838	; 0xb30e
     f4c:	110e1b0e 	tstne	lr, lr, lsl #22
     f50:	10061201 	andne	r1, r6, r1, lsl #4
     f54:	02000017 	andeq	r0, r0, #23
     f58:	0b0b0024 	bleq	2c0ff0 <__bss_end__+0x2b67f0>
     f5c:	08030b3e 	stmdaeq	r3, {r1, r2, r3, r4, r5, r8, r9, fp}
     f60:	24030000 	strcs	r0, [r3], #-0
     f64:	3e0b0b00 	vmlacc.f64	d0, d11, d0
     f68:	000e030b 	andeq	r0, lr, fp, lsl #6
     f6c:	00350400 	eorseq	r0, r5, r0, lsl #8
     f70:	00001349 	andeq	r1, r0, r9, asr #6
     f74:	03001605 	movweq	r1, #1541	; 0x605
     f78:	3b0b3a0e 	blcc	2cf7b8 <__bss_end__+0x2c4fb8>
     f7c:	0013490b 	andseq	r4, r3, fp, lsl #18
     f80:	00160600 	andseq	r0, r6, r0, lsl #12
     f84:	0b3a0e03 	bleq	e84798 <__bss_end__+0xe79f98>
     f88:	1349053b 	movtne	r0, #38203	; 0x953b
     f8c:	17070000 	strne	r0, [r7, -r0]
     f90:	3a0b0b01 	bcc	2c3b9c <__bss_end__+0x2b939c>
     f94:	010b3b0b 	tsteq	fp, fp, lsl #22
     f98:	08000013 	stmdaeq	r0, {r0, r1, r4}
     f9c:	0e03000d 	cdpeq	0, 0, cr0, cr3, cr13, {0}
     fa0:	0b3b0b3a 	bleq	ec3c90 <__bss_end__+0xeb9490>
     fa4:	00001349 	andeq	r1, r0, r9, asr #6
     fa8:	49010109 	stmdbmi	r1, {r0, r3, r8}
     fac:	00130113 	andseq	r0, r3, r3, lsl r1
     fb0:	00210a00 	eoreq	r0, r1, r0, lsl #20
     fb4:	0b2f1349 	bleq	bc5ce0 <__bss_end__+0xbbb4e0>
     fb8:	130b0000 	movwne	r0, #45056	; 0xb000
     fbc:	3a0b0b01 	bcc	2c3bc8 <__bss_end__+0x2b93c8>
     fc0:	010b3b0b 	tsteq	fp, fp, lsl #22
     fc4:	0c000013 	stceq	0, cr0, [r0], {19}
     fc8:	0e03000d 	cdpeq	0, 0, cr0, cr3, cr13, {0}
     fcc:	0b3b0b3a 	bleq	ec3cbc <__bss_end__+0xeb94bc>
     fd0:	0b381349 	bleq	e05cfc <__bss_end__+0xdfb4fc>
     fd4:	0f0d0000 	svceq	0x000d0000
     fd8:	000b0b00 	andeq	r0, fp, r0, lsl #22
     fdc:	000f0e00 	andeq	r0, pc, r0, lsl #28
     fe0:	13490b0b 	movtne	r0, #39691	; 0x9b0b
     fe4:	260f0000 	strcs	r0, [pc], -r0
     fe8:	00134900 	andseq	r4, r3, r0, lsl #18
     fec:	01131000 	tsteq	r3, r0
     ff0:	0b0b0e03 	bleq	2c4804 <__bss_end__+0x2ba004>
     ff4:	0b3b0b3a 	bleq	ec3ce4 <__bss_end__+0xeb94e4>
     ff8:	00001301 	andeq	r1, r0, r1, lsl #6
     ffc:	03000d11 	movweq	r0, #3345	; 0xd11
    1000:	3b0b3a08 	blcc	2cf828 <__bss_end__+0x2c5028>
    1004:	3813490b 	ldmdacc	r3, {r0, r1, r3, r8, fp, lr}
    1008:	1200000b 	andne	r0, r0, #11
    100c:	0e030113 	mcreq	1, 0, r0, cr3, cr3, {0}
    1010:	0b3a050b 	bleq	e82444 <__bss_end__+0xe77c44>
    1014:	13010b3b 	movwne	r0, #6971	; 0x1b3b
    1018:	0d130000 	ldceq	0, cr0, [r3, #-0]
    101c:	3a0e0300 	bcc	381c24 <__bss_end__+0x377424>
    1020:	490b3b0b 	stmdbmi	fp, {r0, r1, r3, r8, r9, fp, ip, sp}
    1024:	00053813 	andeq	r3, r5, r3, lsl r8
    1028:	00151400 	andseq	r1, r5, r0, lsl #8
    102c:	00001927 	andeq	r1, r0, r7, lsr #18
    1030:	27011515 	smladcs	r1, r5, r5, r1
    1034:	01134919 	tsteq	r3, r9, lsl r9
    1038:	16000013 			; <UNDEFINED> instruction: 0x16000013
    103c:	13490005 	movtne	r0, #36869	; 0x9005
    1040:	13170000 	tstne	r7, #0
    1044:	0b0e0301 	bleq	381c50 <__bss_end__+0x377450>
    1048:	3b0b3a05 	blcc	2cf864 <__bss_end__+0x2c5064>
    104c:	00130105 	andseq	r0, r3, r5, lsl #2
    1050:	000d1800 	andeq	r1, sp, r0, lsl #16
    1054:	0b3a0e03 	bleq	e84868 <__bss_end__+0xe7a068>
    1058:	1349053b 	movtne	r0, #38203	; 0x953b
    105c:	00000b38 	andeq	r0, r0, r8, lsr fp
    1060:	03000d19 	movweq	r0, #3353	; 0xd19
    1064:	3b0b3a0e 	blcc	2cf8a4 <__bss_end__+0x2c50a4>
    1068:	38134905 	ldmdacc	r3, {r0, r2, r8, fp, lr}
    106c:	1a000005 	bne	1088 <_start-0x6f78>
    1070:	0e030113 	mcreq	1, 0, r0, cr3, cr3, {0}
    1074:	0b3a0b0b 	bleq	e83ca8 <__bss_end__+0xe794a8>
    1078:	1301053b 	movwne	r0, #5435	; 0x153b
    107c:	131b0000 	tstne	fp, #0
    1080:	3a0b0b01 	bcc	2c3c8c <__bss_end__+0x2b948c>
    1084:	01053b0b 	tsteq	r5, fp, lsl #22
    1088:	1c000013 	stcne	0, cr0, [r0], {19}
    108c:	0b0b0117 	bleq	2c14f0 <__bss_end__+0x2b6cf0>
    1090:	053b0b3a 	ldreq	r0, [fp, #-2874]!	; 0xb3a
    1094:	00001301 	andeq	r1, r0, r1, lsl #6
    1098:	03000d1d 	movweq	r0, #3357	; 0xd1d
    109c:	3b0b3a0e 	blcc	2cf8dc <__bss_end__+0x2c50dc>
    10a0:	00134905 	andseq	r4, r3, r5, lsl #18
    10a4:	01151e00 	tsteq	r5, r0, lsl #28
    10a8:	13011927 	movwne	r1, #6439	; 0x1927
    10ac:	341f0000 	ldrcc	r0, [pc], #-0	; 10b4 <_start-0x6f4c>
    10b0:	3a0e0300 	bcc	381cb8 <__bss_end__+0x3774b8>
    10b4:	49053b0b 	stmdbmi	r5, {r0, r1, r3, r8, r9, fp, ip, sp}
    10b8:	3c193f13 	ldccc	15, cr3, [r9], {19}
    10bc:	20000019 	andcs	r0, r0, r9, lsl r0
    10c0:	0e030034 	mcreq	0, 0, r0, cr3, cr4, {1}
    10c4:	0b3b0b3a 	bleq	ec3db4 <__bss_end__+0xeb95b4>
    10c8:	193f1349 	ldmdbne	pc!, {r0, r3, r6, r8, r9, ip}	; <UNPREDICTABLE>
    10cc:	0000193c 	andeq	r1, r0, ip, lsr r9
    10d0:	0b010421 	bleq	4215c <__bss_end__+0x3795c>
    10d4:	3a13490b 	bcc	4d3508 <__bss_end__+0x4c8d08>
    10d8:	010b3b0b 	tsteq	fp, fp, lsl #22
    10dc:	22000013 	andcs	r0, r0, #19
    10e0:	0e030028 	cdpeq	0, 0, cr0, cr3, cr8, {1}
    10e4:	00000b1c 	andeq	r0, r0, ip, lsl fp
    10e8:	03003423 	movweq	r3, #1059	; 0x423
    10ec:	3b0b3a0e 	blcc	2cf92c <__bss_end__+0x2c512c>
    10f0:	1c13490b 	ldcne	9, cr4, [r3], {11}
    10f4:	24000006 	strcs	r0, [r0], #-6
    10f8:	193f012e 	ldmdbne	pc!, {r1, r2, r3, r5, r8}	; <UNPREDICTABLE>
    10fc:	0b3a0e03 	bleq	e84910 <__bss_end__+0xe7a110>
    1100:	19270b3b 	stmdbne	r7!, {r0, r1, r3, r4, r5, r8, r9, fp}
    1104:	01111349 	tsteq	r1, r9, asr #6
    1108:	18400612 	stmdane	r0, {r1, r4, r9, sl}^
    110c:	01194297 			; <UNDEFINED> instruction: 0x01194297
    1110:	25000013 	strcs	r0, [r0, #-19]
    1114:	00018289 	andeq	r8, r1, r9, lsl #5
    1118:	13310111 	teqne	r1, #1073741828	; 0x40000004
    111c:	2e260000 	cdpcs	0, 2, cr0, cr6, cr0, {0}
    1120:	03193f01 	tsteq	r9, #1, 30
    1124:	3b0b3a0e 	blcc	2cf964 <__bss_end__+0x2c5164>
    1128:	1119270b 	tstne	r9, fp, lsl #14
    112c:	40061201 	andmi	r1, r6, r1, lsl #4
    1130:	19429718 	stmdbne	r2, {r3, r4, r8, r9, sl, ip, pc}^
    1134:	00001301 	andeq	r1, r0, r1, lsl #6
    1138:	03000527 	movweq	r0, #1319	; 0x527
    113c:	3b0b3a08 	blcc	2cf964 <__bss_end__+0x2c5164>
    1140:	0213490b 	andseq	r4, r3, #180224	; 0x2c000
    1144:	28000017 	stmdacs	r0, {r0, r1, r2, r4}
    1148:	01018289 	smlabbeq	r1, r9, r2, r8
    114c:	13310111 	teqne	r1, #1073741828	; 0x40000004
    1150:	00001301 	andeq	r1, r0, r1, lsl #6
    1154:	01828a29 	orreq	r8, r2, r9, lsr #20
    1158:	91180200 	tstls	r8, r0, lsl #4
    115c:	00001842 	andeq	r1, r0, r2, asr #16
    1160:	0300342a 	movweq	r3, #1066	; 0x42a
    1164:	3b0b3a08 	blcc	2cf98c <__bss_end__+0x2c518c>
    1168:	0213490b 	andseq	r4, r3, #180224	; 0x2c000
    116c:	2b000018 	blcs	11d4 <_start-0x6e2c>
    1170:	01018289 	smlabbeq	r1, r9, r2, r8
    1174:	13310111 	teqne	r1, #1073741828	; 0x40000004
    1178:	2e2c0000 	cdpcs	0, 2, cr0, cr12, cr0, {0}
    117c:	3a0e0301 	bcc	381d88 <__bss_end__+0x377588>
    1180:	270b3b0b 	strcs	r3, [fp, -fp, lsl #22]
    1184:	12011119 	andne	r1, r1, #1073741830	; 0x40000006
    1188:	97184006 	ldrls	r4, [r8, -r6]
    118c:	13011942 	movwne	r1, #6466	; 0x1942
    1190:	052d0000 	streq	r0, [sp, #-0]!
    1194:	3a0e0300 	bcc	381d9c <__bss_end__+0x37759c>
    1198:	490b3b0b 	stmdbmi	fp, {r0, r1, r3, r8, r9, fp, ip, sp}
    119c:	00170213 	andseq	r0, r7, r3, lsl r2
    11a0:	00352e00 	eorseq	r2, r5, r0, lsl #28
    11a4:	2e2f0000 	cdpcs	0, 2, cr0, cr15, cr0, {0}
    11a8:	3c193f00 	ldccc	15, cr3, [r9], {-0}
    11ac:	030e6e19 	movweq	r6, #60953	; 0xee19
    11b0:	3b0b3a0e 	blcc	2cf9f0 <__bss_end__+0x2c51f0>
    11b4:	0000000b 	andeq	r0, r0, fp
    11b8:	25011101 	strcs	r1, [r1, #-257]	; 0x101
    11bc:	030b130e 	movweq	r1, #45838	; 0xb30e
    11c0:	110e1b0e 	tstne	lr, lr, lsl #22
    11c4:	10061201 	andne	r1, r6, r1, lsl #4
    11c8:	02000017 	andeq	r0, r0, #23
    11cc:	0b0b0024 	bleq	2c1264 <__bss_end__+0x2b6a64>
    11d0:	08030b3e 	stmdaeq	r3, {r1, r2, r3, r4, r5, r8, r9, fp}
    11d4:	24030000 	strcs	r0, [r3], #-0
    11d8:	3e0b0b00 	vmlacc.f64	d0, d11, d0
    11dc:	000e030b 	andeq	r0, lr, fp, lsl #6
    11e0:	00260400 	eoreq	r0, r6, r0, lsl #8
    11e4:	00001349 	andeq	r1, r0, r9, asr #6
    11e8:	03001605 	movweq	r1, #1541	; 0x605
    11ec:	3b0b3a0e 	blcc	2cfa2c <__bss_end__+0x2c522c>
    11f0:	0013490b 	andseq	r4, r3, fp, lsl #18
    11f4:	00160600 	andseq	r0, r6, r0, lsl #12
    11f8:	0b3a0e03 	bleq	e84a0c <__bss_end__+0xe7a20c>
    11fc:	1349053b 	movtne	r0, #38203	; 0x953b
    1200:	17070000 	strne	r0, [r7, -r0]
    1204:	3a0b0b01 	bcc	2c3e10 <__bss_end__+0x2b9610>
    1208:	010b3b0b 	tsteq	fp, fp, lsl #22
    120c:	08000013 	stmdaeq	r0, {r0, r1, r4}
    1210:	0e03000d 	cdpeq	0, 0, cr0, cr3, cr13, {0}
    1214:	0b3b0b3a 	bleq	ec3f04 <__bss_end__+0xeb9704>
    1218:	00001349 	andeq	r1, r0, r9, asr #6
    121c:	49010109 	stmdbmi	r1, {r0, r3, r8}
    1220:	00130113 	andseq	r0, r3, r3, lsl r1
    1224:	00210a00 	eoreq	r0, r1, r0, lsl #20
    1228:	0b2f1349 	bleq	bc5f54 <__bss_end__+0xbbb754>
    122c:	130b0000 	movwne	r0, #45056	; 0xb000
    1230:	3a0b0b01 	bcc	2c3e3c <__bss_end__+0x2b963c>
    1234:	010b3b0b 	tsteq	fp, fp, lsl #22
    1238:	0c000013 	stceq	0, cr0, [r0], {19}
    123c:	0e03000d 	cdpeq	0, 0, cr0, cr3, cr13, {0}
    1240:	0b3b0b3a 	bleq	ec3f30 <__bss_end__+0xeb9730>
    1244:	0b381349 	bleq	e05f70 <__bss_end__+0xdfb770>
    1248:	0f0d0000 	svceq	0x000d0000
    124c:	000b0b00 	andeq	r0, fp, r0, lsl #22
    1250:	000f0e00 	andeq	r0, pc, r0, lsl #28
    1254:	13490b0b 	movtne	r0, #39691	; 0x9b0b
    1258:	130f0000 	movwne	r0, #61440	; 0xf000
    125c:	0b0e0301 	bleq	381e68 <__bss_end__+0x377668>
    1260:	3b0b3a0b 	blcc	2cfa94 <__bss_end__+0x2c5294>
    1264:	0013010b 	andseq	r0, r3, fp, lsl #2
    1268:	000d1000 	andeq	r1, sp, r0
    126c:	0b3a0803 	bleq	e83280 <__bss_end__+0xe78a80>
    1270:	13490b3b 	movtne	r0, #39739	; 0x9b3b
    1274:	00000b38 	andeq	r0, r0, r8, lsr fp
    1278:	03011311 	movweq	r1, #4881	; 0x1311
    127c:	3a050b0e 	bcc	143ebc <__bss_end__+0x1396bc>
    1280:	010b3b0b 	tsteq	fp, fp, lsl #22
    1284:	12000013 	andne	r0, r0, #19
    1288:	0e03000d 	cdpeq	0, 0, cr0, cr3, cr13, {0}
    128c:	0b3b0b3a 	bleq	ec3f7c <__bss_end__+0xeb977c>
    1290:	05381349 	ldreq	r1, [r8, #-841]!	; 0x349
    1294:	15130000 	ldrne	r0, [r3, #-0]
    1298:	00192700 	andseq	r2, r9, r0, lsl #14
    129c:	01151400 	tsteq	r5, r0, lsl #8
    12a0:	13491927 	movtne	r1, #39207	; 0x9927
    12a4:	00001301 	andeq	r1, r0, r1, lsl #6
    12a8:	49000515 	stmdbmi	r0, {r0, r2, r4, r8, sl}
    12ac:	16000013 			; <UNDEFINED> instruction: 0x16000013
    12b0:	0e030113 	mcreq	1, 0, r0, cr3, cr3, {0}
    12b4:	0b3a050b 	bleq	e826e8 <__bss_end__+0xe77ee8>
    12b8:	1301053b 	movwne	r0, #5435	; 0x153b
    12bc:	0d170000 	ldceq	0, cr0, [r7, #-0]
    12c0:	3a0e0300 	bcc	381ec8 <__bss_end__+0x3776c8>
    12c4:	49053b0b 	stmdbmi	r5, {r0, r1, r3, r8, r9, fp, ip, sp}
    12c8:	000b3813 	andeq	r3, fp, r3, lsl r8
    12cc:	000d1800 	andeq	r1, sp, r0, lsl #16
    12d0:	0b3a0e03 	bleq	e84ae4 <__bss_end__+0xe7a2e4>
    12d4:	1349053b 	movtne	r0, #38203	; 0x953b
    12d8:	00000538 	andeq	r0, r0, r8, lsr r5
    12dc:	03011319 	movweq	r1, #4889	; 0x1319
    12e0:	3a0b0b0e 	bcc	2c3f20 <__bss_end__+0x2b9720>
    12e4:	01053b0b 	tsteq	r5, fp, lsl #22
    12e8:	1a000013 	bne	133c <_start-0x6cc4>
    12ec:	0b0b0113 	bleq	2c1740 <__bss_end__+0x2b6f40>
    12f0:	053b0b3a 	ldreq	r0, [fp, #-2874]!	; 0xb3a
    12f4:	00001301 	andeq	r1, r0, r1, lsl #6
    12f8:	0b01171b 	bleq	46f6c <__bss_end__+0x3c76c>
    12fc:	3b0b3a0b 	blcc	2cfb30 <__bss_end__+0x2c5330>
    1300:	00130105 	andseq	r0, r3, r5, lsl #2
    1304:	000d1c00 	andeq	r1, sp, r0, lsl #24
    1308:	0b3a0e03 	bleq	e84b1c <__bss_end__+0xe7a31c>
    130c:	1349053b 	movtne	r0, #38203	; 0x953b
    1310:	151d0000 	ldrne	r0, [sp, #-0]
    1314:	01192701 	tsteq	r9, r1, lsl #14
    1318:	1e000013 	mcrne	0, 0, r0, cr0, cr3, {0}
    131c:	0e030034 	mcreq	0, 0, r0, cr3, cr4, {1}
    1320:	053b0b3a 	ldreq	r0, [fp, #-2874]!	; 0xb3a
    1324:	193f1349 	ldmdbne	pc!, {r0, r3, r6, r8, r9, ip}	; <UNPREDICTABLE>
    1328:	0000193c 	andeq	r1, r0, ip, lsr r9
    132c:	0300341f 	movweq	r3, #1055	; 0x41f
    1330:	3b0b3a0e 	blcc	2cfb70 <__bss_end__+0x2c5370>
    1334:	3f13490b 	svccc	0x0013490b
    1338:	00193c19 	andseq	r3, r9, r9, lsl ip
    133c:	01042000 	mrseq	r2, (UNDEF: 4)
    1340:	13490b0b 	movtne	r0, #39691	; 0x9b0b
    1344:	0b3b0b3a 	bleq	ec4034 <__bss_end__+0xeb9834>
    1348:	00001301 	andeq	r1, r0, r1, lsl #6
    134c:	03002821 	movweq	r2, #2081	; 0x821
    1350:	000b1c0e 	andeq	r1, fp, lr, lsl #24
    1354:	00342200 	eorseq	r2, r4, r0, lsl #4
    1358:	0b3a0e03 	bleq	e84b6c <__bss_end__+0xe7a36c>
    135c:	13490b3b 	movtne	r0, #39739	; 0x9b3b
    1360:	0000061c 	andeq	r0, r0, ip, lsl r6
    1364:	3f012e23 	svccc	0x00012e23
    1368:	3a0e0319 	bcc	381fd4 <__bss_end__+0x3777d4>
    136c:	270b3b0b 	strcs	r3, [fp, -fp, lsl #22]
    1370:	11134919 	tstne	r3, r9, lsl r9
    1374:	40061201 	andmi	r1, r6, r1, lsl #4
    1378:	19429718 	stmdbne	r2, {r3, r4, r8, r9, sl, ip, pc}^
    137c:	00001301 	andeq	r1, r0, r1, lsl #6
    1380:	03000524 	movweq	r0, #1316	; 0x524
    1384:	3b0b3a08 	blcc	2cfbac <__bss_end__+0x2c53ac>
    1388:	0213490b 	andseq	r4, r3, #180224	; 0x2c000
    138c:	25000017 	strcs	r0, [r0, #-23]
    1390:	0e030034 	mcreq	0, 0, r0, cr3, cr4, {1}
    1394:	0b3b0b3a 	bleq	ec4084 <__bss_end__+0xeb9884>
    1398:	17021349 	strne	r1, [r2, -r9, asr #6]
    139c:	34260000 	strtcc	r0, [r6], #-0
    13a0:	3a080300 	bcc	201fa8 <__bss_end__+0x1f77a8>
    13a4:	490b3b0b 	stmdbmi	fp, {r0, r1, r3, r8, r9, fp, ip, sp}
    13a8:	00170213 	andseq	r0, r7, r3, lsl r2
    13ac:	82892700 	addhi	r2, r9, #0, 14
    13b0:	01110101 	tsteq	r1, r1, lsl #2
    13b4:	00001331 	andeq	r1, r0, r1, lsr r3
    13b8:	01828a28 	orreq	r8, r2, r8, lsr #20
    13bc:	91180200 	tstls	r8, r0, lsl #4
    13c0:	00001842 	andeq	r1, r0, r2, asr #16
    13c4:	3f012e29 	svccc	0x00012e29
    13c8:	3a0e0319 	bcc	382034 <__bss_end__+0x377834>
    13cc:	270b3b0b 	strcs	r3, [fp, -fp, lsl #22]
    13d0:	12011119 	andne	r1, r1, #1073741830	; 0x40000006
    13d4:	97184006 	ldrls	r4, [r8, -r6]
    13d8:	13011942 	movwne	r1, #6466	; 0x1942
    13dc:	892a0000 	stmdbhi	sl!, {}	; <UNPREDICTABLE>
    13e0:	11010182 	smlabbne	r1, r2, r1, r0
    13e4:	01133101 	tsteq	r3, r1, lsl #2
    13e8:	2b000013 	blcs	143c <_start-0x6bc4>
    13ec:	00018289 	andeq	r8, r1, r9, lsl #5
    13f0:	13310111 	teqne	r1, #1073741828	; 0x40000004
    13f4:	052c0000 	streq	r0, [ip, #-0]!
    13f8:	3a0e0300 	bcc	382000 <__bss_end__+0x377800>
    13fc:	490b3b0b 	stmdbmi	fp, {r0, r1, r3, r8, r9, fp, ip, sp}
    1400:	00170213 	andseq	r0, r7, r3, lsl r2
    1404:	00342d00 	eorseq	r2, r4, r0, lsl #26
    1408:	0b3a0803 	bleq	e8341c <__bss_end__+0xe78c1c>
    140c:	13490b3b 	movtne	r0, #39739	; 0x9b3b
    1410:	00001802 	andeq	r1, r0, r2, lsl #16
    1414:	3f002e2e 	svccc	0x00002e2e
    1418:	6e193c19 	mrcvs	12, 0, r3, cr9, cr9, {0}
    141c:	3a0e030e 	bcc	38205c <__bss_end__+0x37785c>
    1420:	000b3b0b 	andeq	r3, fp, fp, lsl #22
    1424:	11010000 	mrsne	r0, (UNDEF: 1)
    1428:	130e2501 	movwne	r2, #58625	; 0xe501
    142c:	1b0e030b 	blne	382060 <__bss_end__+0x377860>
    1430:	1201110e 	andne	r1, r1, #-2147483645	; 0x80000003
    1434:	00171006 	andseq	r1, r7, r6
    1438:	00240200 	eoreq	r0, r4, r0, lsl #4
    143c:	0b3e0b0b 	bleq	f84070 <__bss_end__+0xf79870>
    1440:	00000803 	andeq	r0, r0, r3, lsl #16
    1444:	0b002403 	bleq	a458 <buf.4185+0x60>
    1448:	030b3e0b 	movweq	r3, #48651	; 0xbe0b
    144c:	0400000e 	streq	r0, [r0], #-14
    1450:	0e030016 	mcreq	0, 0, r0, cr3, cr6, {0}
    1454:	0b3b0b3a 	bleq	ec4144 <__bss_end__+0xeb9944>
    1458:	00001349 	andeq	r1, r0, r9, asr #6
    145c:	03001605 	movweq	r1, #1541	; 0x605
    1460:	3b0b3a0e 	blcc	2cfca0 <__bss_end__+0x2c54a0>
    1464:	00134905 	andseq	r4, r3, r5, lsl #18
    1468:	01170600 	tsteq	r7, r0, lsl #12
    146c:	0b3a0b0b 	bleq	e840a0 <__bss_end__+0xe798a0>
    1470:	13010b3b 	movwne	r0, #6971	; 0x1b3b
    1474:	0d070000 	stceq	0, cr0, [r7, #-0]
    1478:	3a0e0300 	bcc	382080 <__bss_end__+0x377880>
    147c:	490b3b0b 	stmdbmi	fp, {r0, r1, r3, r8, r9, fp, ip, sp}
    1480:	08000013 	stmdaeq	r0, {r0, r1, r4}
    1484:	13490101 	movtne	r0, #37121	; 0x9101
    1488:	00001301 	andeq	r1, r0, r1, lsl #6
    148c:	49002109 	stmdbmi	r0, {r0, r3, r8, sp}
    1490:	000b2f13 	andeq	r2, fp, r3, lsl pc
    1494:	01130a00 	tsteq	r3, r0, lsl #20
    1498:	0b3a0b0b 	bleq	e840cc <__bss_end__+0xe798cc>
    149c:	13010b3b 	movwne	r0, #6971	; 0x1b3b
    14a0:	0d0b0000 	stceq	0, cr0, [fp, #-0]
    14a4:	3a0e0300 	bcc	3820ac <__bss_end__+0x3778ac>
    14a8:	490b3b0b 	stmdbmi	fp, {r0, r1, r3, r8, r9, fp, ip, sp}
    14ac:	000b3813 	andeq	r3, fp, r3, lsl r8
    14b0:	000f0c00 	andeq	r0, pc, r0, lsl #24
    14b4:	00000b0b 	andeq	r0, r0, fp, lsl #22
    14b8:	0b000f0d 	bleq	50f4 <_start-0x2f0c>
    14bc:	0013490b 	andseq	r4, r3, fp, lsl #18
    14c0:	00260e00 	eoreq	r0, r6, r0, lsl #28
    14c4:	00001349 	andeq	r1, r0, r9, asr #6
    14c8:	0301130f 	movweq	r1, #4879	; 0x130f
    14cc:	3a0b0b0e 	bcc	2c410c <__bss_end__+0x2b990c>
    14d0:	010b3b0b 	tsteq	fp, fp, lsl #22
    14d4:	10000013 	andne	r0, r0, r3, lsl r0
    14d8:	0803000d 	stmdaeq	r3, {r0, r2, r3}
    14dc:	0b3b0b3a 	bleq	ec41cc <__bss_end__+0xeb99cc>
    14e0:	0b381349 	bleq	e0620c <__bss_end__+0xdfba0c>
    14e4:	13110000 	tstne	r1, #0
    14e8:	0b0e0301 	bleq	3820f4 <__bss_end__+0x3778f4>
    14ec:	3b0b3a05 	blcc	2cfd08 <__bss_end__+0x2c5508>
    14f0:	0013010b 	andseq	r0, r3, fp, lsl #2
    14f4:	000d1200 	andeq	r1, sp, r0, lsl #4
    14f8:	0b3a0e03 	bleq	e84d0c <__bss_end__+0xe7a50c>
    14fc:	13490b3b 	movtne	r0, #39739	; 0x9b3b
    1500:	00000538 	andeq	r0, r0, r8, lsr r5
    1504:	27001513 	smladcs	r0, r3, r5, r1
    1508:	14000019 	strne	r0, [r0], #-25
    150c:	19270115 	stmdbne	r7!, {r0, r2, r4, r8}
    1510:	13011349 	movwne	r1, #4937	; 0x1349
    1514:	05150000 	ldreq	r0, [r5, #-0]
    1518:	00134900 	andseq	r4, r3, r0, lsl #18
    151c:	01131600 	tsteq	r3, r0, lsl #12
    1520:	050b0e03 	streq	r0, [fp, #-3587]	; 0xe03
    1524:	053b0b3a 	ldreq	r0, [fp, #-2874]!	; 0xb3a
    1528:	00001301 	andeq	r1, r0, r1, lsl #6
    152c:	03000d17 	movweq	r0, #3351	; 0xd17
    1530:	3b0b3a0e 	blcc	2cfd70 <__bss_end__+0x2c5570>
    1534:	38134905 	ldmdacc	r3, {r0, r2, r8, fp, lr}
    1538:	1800000b 	stmdane	r0, {r0, r1, r3}
    153c:	0e03000d 	cdpeq	0, 0, cr0, cr3, cr13, {0}
    1540:	053b0b3a 	ldreq	r0, [fp, #-2874]!	; 0xb3a
    1544:	05381349 	ldreq	r1, [r8, #-841]!	; 0x349
    1548:	13190000 	tstne	r9, #0
    154c:	0b0e0301 	bleq	382158 <__bss_end__+0x377958>
    1550:	3b0b3a0b 	blcc	2cfd84 <__bss_end__+0x2c5584>
    1554:	00130105 	andseq	r0, r3, r5, lsl #2
    1558:	01131a00 	tsteq	r3, r0, lsl #20
    155c:	0b3a0b0b 	bleq	e84190 <__bss_end__+0xe79990>
    1560:	1301053b 	movwne	r0, #5435	; 0x153b
    1564:	171b0000 	ldrne	r0, [fp, -r0]
    1568:	3a0b0b01 	bcc	2c4174 <__bss_end__+0x2b9974>
    156c:	01053b0b 	tsteq	r5, fp, lsl #22
    1570:	1c000013 	stcne	0, cr0, [r0], {19}
    1574:	0e03000d 	cdpeq	0, 0, cr0, cr3, cr13, {0}
    1578:	053b0b3a 	ldreq	r0, [fp, #-2874]!	; 0xb3a
    157c:	00001349 	andeq	r1, r0, r9, asr #6
    1580:	2701151d 	smladcs	r1, sp, r5, r1
    1584:	00130119 	andseq	r0, r3, r9, lsl r1
    1588:	00341e00 	eorseq	r1, r4, r0, lsl #28
    158c:	0b3a0e03 	bleq	e84da0 <__bss_end__+0xe7a5a0>
    1590:	1349053b 	movtne	r0, #38203	; 0x953b
    1594:	193c193f 	ldmdbne	ip!, {r0, r1, r2, r3, r4, r5, r8, fp, ip}
    1598:	341f0000 	ldrcc	r0, [pc], #-0	; 15a0 <_start-0x6a60>
    159c:	3a0e0300 	bcc	3821a4 <__bss_end__+0x3779a4>
    15a0:	490b3b0b 	stmdbmi	fp, {r0, r1, r3, r8, r9, fp, ip, sp}
    15a4:	3c193f13 	ldccc	15, cr3, [r9], {19}
    15a8:	20000019 	andcs	r0, r0, r9, lsl r0
    15ac:	0e030034 	mcreq	0, 0, r0, cr3, cr4, {1}
    15b0:	0b3b0b3a 	bleq	ec42a0 <__bss_end__+0xeb9aa0>
    15b4:	18021349 	stmdane	r2, {r0, r3, r6, r8, r9, ip}
    15b8:	2e210000 	cdpcs	0, 2, cr0, cr1, cr0, {0}
    15bc:	03193f01 	tsteq	r9, #1, 30
    15c0:	3b0b3a0e 	blcc	2cfe00 <__bss_end__+0x2c5600>
    15c4:	1119270b 	tstne	r9, fp, lsl #14
    15c8:	40061201 	andmi	r1, r6, r1, lsl #4
    15cc:	19429718 	stmdbne	r2, {r3, r4, r8, r9, sl, ip, pc}^
    15d0:	00001301 	andeq	r1, r0, r1, lsl #6
    15d4:	03000522 	movweq	r0, #1314	; 0x522
    15d8:	3b0b3a08 	blcc	2cfe00 <__bss_end__+0x2c5600>
    15dc:	0213490b 	andseq	r4, r3, #180224	; 0x2c000
    15e0:	23000018 	movwcs	r0, #24
    15e4:	193f002e 	ldmdbne	pc!, {r1, r2, r3, r5}	; <UNPREDICTABLE>
    15e8:	0b3a0e03 	bleq	e84dfc <__bss_end__+0xe7a5fc>
    15ec:	19270b3b 	stmdbne	r7!, {r0, r1, r3, r4, r5, r8, r9, fp}
    15f0:	06120111 			; <UNDEFINED> instruction: 0x06120111
    15f4:	42971840 	addsmi	r1, r7, #64, 16	; 0x400000
    15f8:	24000019 	strcs	r0, [r0], #-25
    15fc:	193f012e 	ldmdbne	pc!, {r1, r2, r3, r5, r8}	; <UNPREDICTABLE>
    1600:	0b3a0e03 	bleq	e84e14 <__bss_end__+0xe7a614>
    1604:	19270b3b 	stmdbne	r7!, {r0, r1, r3, r4, r5, r8, r9, fp}
    1608:	01111349 	tsteq	r1, r9, asr #6
    160c:	18400612 	stmdane	r0, {r1, r4, r9, sl}^
    1610:	01194297 			; <UNDEFINED> instruction: 0x01194297
    1614:	25000013 	strcs	r0, [r0, #-19]
    1618:	0e030005 	cdpeq	0, 0, cr0, cr3, cr5, {0}
    161c:	0b3b0b3a 	bleq	ec430c <__bss_end__+0xeb9b0c>
    1620:	17021349 	strne	r1, [r2, -r9, asr #6]
    1624:	34260000 	strtcc	r0, [r6], #-0
    1628:	490e0300 	stmdbmi	lr, {r8, r9}
    162c:	02193413 	andseq	r3, r9, #318767104	; 0x13000000
    1630:	27000018 	smladcs	r0, r8, r0, r0
    1634:	08030034 	stmdaeq	r3, {r2, r4, r5}
    1638:	0b3b0b3a 	bleq	ec4328 <__bss_end__+0xeb9b28>
    163c:	17021349 	strne	r1, [r2, -r9, asr #6]
    1640:	89280000 	stmdbhi	r8!, {}	; <UNPREDICTABLE>
    1644:	11010182 	smlabbne	r1, r2, r1, r0
    1648:	01133101 	tsteq	r3, r1, lsl #2
    164c:	29000013 	stmdbcs	r0, {r0, r1, r4}
    1650:	0001828a 	andeq	r8, r1, sl, lsl #5
    1654:	42911802 	addsmi	r1, r1, #131072	; 0x20000
    1658:	2a000018 	bcs	16c0 <_start-0x6940>
    165c:	00018289 	andeq	r8, r1, r9, lsl #5
    1660:	13310111 	teqne	r1, #1073741828	; 0x40000004
    1664:	052b0000 	streq	r0, [fp, #-0]!
    1668:	3a080300 	bcc	202270 <__bss_end__+0x1f7a70>
    166c:	490b3b0b 	stmdbmi	fp, {r0, r1, r3, r8, r9, fp, ip, sp}
    1670:	00170213 	andseq	r0, r7, r3, lsl r2
    1674:	00342c00 	eorseq	r2, r4, r0, lsl #24
    1678:	0b3a0e03 	bleq	e84e8c <__bss_end__+0xe7a68c>
    167c:	13490b3b 	movtne	r0, #39739	; 0x9b3b
    1680:	00001702 	andeq	r1, r0, r2, lsl #14
    1684:	3f002e2d 	svccc	0x00002e2d
    1688:	3a0e0319 	bcc	3822f4 <__bss_end__+0x377af4>
    168c:	270b3b0b 	strcs	r3, [fp, -fp, lsl #22]
    1690:	11134919 	tstne	r3, r9, lsl r9
    1694:	40061201 	andmi	r1, r6, r1, lsl #4
    1698:	19429718 	stmdbne	r2, {r3, r4, r8, r9, sl, ip, pc}^
    169c:	2e2e0000 	cdpcs	0, 2, cr0, cr14, cr0, {0}
    16a0:	3c193f00 	ldccc	15, cr3, [r9], {-0}
    16a4:	030e6e19 	movweq	r6, #60953	; 0xee19
    16a8:	3b0b3a0e 	blcc	2cfee8 <__bss_end__+0x2c56e8>
    16ac:	0000000b 	andeq	r0, r0, fp

Disassembly of section .debug_loc:

00000000 <.debug_loc>:
       0:	00000060 	andeq	r0, r0, r0, rrx
       4:	00000063 	andeq	r0, r0, r3, rrx
       8:	63500001 	cmpvs	r0, #1
       c:	84000000 	strhi	r0, [r0], #-0
      10:	01000000 	mrseq	r0, (UNDEF: 0)
      14:	00005400 	andeq	r5, r0, r0, lsl #8
	...
      20:	00300000 	eorseq	r0, r0, r0
      24:	00010000 	andeq	r0, r1, r0
      28:	00003050 	andeq	r3, r0, r0, asr r0
      2c:	0000c400 	andeq	ip, r0, r0, lsl #8
      30:	55000100 	strpl	r0, [r0, #-256]	; 0x100
      34:	000000c4 	andeq	r0, r0, r4, asr #1
      38:	000000d4 	ldrdeq	r0, [r0], -r4
      3c:	d4500001 	ldrble	r0, [r0], #-1
      40:	00000000 	andeq	r0, r0, r0
      44:	01000001 	tsteq	r0, r1
      48:	00005500 	andeq	r5, r0, r0, lsl #10
	...
      54:	00330000 	eorseq	r0, r3, r0
      58:	00010000 	andeq	r0, r1, r0
      5c:	00003351 	andeq	r3, r0, r1, asr r3
      60:	0000c400 	andeq	ip, r0, r0, lsl #8
      64:	f3000400 	vshl.u8	d0, d0, d0
      68:	c49f5101 	ldrgt	r5, [pc], #257	; 70 <_start-0x7f90>
      6c:	d8000000 	stmdale	r0, {}	; <UNPREDICTABLE>
      70:	01000000 	mrseq	r0, (UNDEF: 0)
      74:	00d85100 	sbcseq	r5, r8, r0, lsl #2
      78:	01000000 	mrseq	r0, (UNDEF: 0)
      7c:	00040000 	andeq	r0, r4, r0
      80:	9f5101f3 	svcls	0x005101f3
	...
      90:	00000033 	andeq	r0, r0, r3, lsr r0
      94:	33520001 	cmpcc	r2, #1
      98:	c4000000 	strgt	r0, [r0], #-0
      9c:	04000000 	streq	r0, [r0], #-0
      a0:	5201f300 	andpl	pc, r1, #0, 6
      a4:	0000c49f 	muleq	r0, pc, r4	; <UNPREDICTABLE>
      a8:	0000d800 	andeq	sp, r0, r0, lsl #16
      ac:	52000100 	andpl	r0, r0, #0, 2
      b0:	000000d8 	ldrdeq	r0, [r0], -r8
      b4:	00000100 	andeq	r0, r0, r0, lsl #2
      b8:	01f30004 	mvnseq	r0, r4
      bc:	00009f52 	andeq	r9, r0, r2, asr pc
      c0:	00000000 	andeq	r0, r0, r0
      c4:	00080000 	andeq	r0, r8, r0
      c8:	00100000 	andseq	r0, r0, r0
      cc:	00020000 	andeq	r0, r2, r0
      d0:	00109f30 	andseq	r9, r0, r0, lsr pc
      d4:	00330000 	eorseq	r0, r3, r0
      d8:	00010000 	andeq	r0, r1, r0
      dc:	0000c453 	andeq	ip, r0, r3, asr r4
      e0:	0000d800 	andeq	sp, r0, r0, lsl #16
      e4:	53000100 	movwpl	r0, #256	; 0x100
	...
      f0:	00000028 	andeq	r0, r0, r8, lsr #32
      f4:	000000c4 	andeq	r0, r0, r4, asr #1
      f8:	d8540001 	ldmdale	r4, {r0}^
      fc:	00000000 	andeq	r0, r0, r0
     100:	01000001 	tsteq	r0, r1
     104:	00005400 	andeq	r5, r0, r0, lsl #8
     108:	00000000 	andeq	r0, r0, r0
     10c:	004c0000 	subeq	r0, ip, r0
     110:	00c40000 	sbceq	r0, r4, r0
     114:	00010000 	andeq	r0, r1, r0
     118:	0000d855 	andeq	sp, r0, r5, asr r8
     11c:	00010000 	andeq	r0, r1, r0
     120:	55000100 	strpl	r0, [r0, #-256]	; 0x100
	...
     12c:	00000060 	andeq	r0, r0, r0, rrx
     130:	00000088 	andeq	r0, r0, r8, lsl #1
     134:	10750003 	rsbsne	r0, r5, r3
     138:	0000889f 	muleq	r0, pc, r8	; <UNPREDICTABLE>
     13c:	0000c400 	andeq	ip, r0, r0, lsl #8
     140:	75000300 	strvc	r0, [r0, #-768]	; 0x300
     144:	00d89f1c 	sbcseq	r9, r8, ip, lsl pc
     148:	01000000 	mrseq	r0, (UNDEF: 0)
     14c:	00030000 	andeq	r0, r3, r0
     150:	009f1c75 	addseq	r1, pc, r5, ror ip	; <UNPREDICTABLE>
	...
     15c:	0f000001 	svceq	0x00000001
     160:	01000001 	tsteq	r0, r1
     164:	010f5000 	mrseq	r5, CPSR
     168:	01140000 	tsteq	r4, r0
     16c:	00040000 	andeq	r0, r4, r0
     170:	9f5001f3 	svcls	0x005001f3
	...
     17c:	00000100 	andeq	r0, r0, r0, lsl #2
     180:	0000010c 	andeq	r0, r0, ip, lsl #2
     184:	0c510001 	mrrceq	0, 0, r0, r1, cr1
     188:	0f000001 	svceq	0x00000001
     18c:	01000001 	tsteq	r0, r1
     190:	010f5200 	mrseq	r5, (UNDEF: 47)
     194:	01140000 	tsteq	r4, r0
     198:	00040000 	andeq	r0, r4, r0
     19c:	9f5101f3 	svcls	0x005101f3
	...
     1a8:	00000114 	andeq	r0, r0, r4, lsl r1
     1ac:	0000012f 	andeq	r0, r0, pc, lsr #2
     1b0:	2f500001 	svccs	0x00500001
     1b4:	38000001 	stmdacc	r0, {r0}
     1b8:	01000001 	tsteq	r0, r1
     1bc:	00005400 	andeq	r5, r0, r0, lsl #8
     1c0:	00000000 	andeq	r0, r0, r0
     1c4:	01380000 	teqeq	r8, r0
     1c8:	01430000 	mrseq	r0, (UNDEF: 67)
     1cc:	00010000 	andeq	r0, r1, r0
     1d0:	00014350 	andeq	r4, r1, r0, asr r3
     1d4:	0001b000 	andeq	fp, r1, r0
     1d8:	54000100 	strpl	r0, [r0], #-256	; 0x100
	...
     1e4:	00000144 	andeq	r0, r0, r4, asr #2
     1e8:	00000153 	andeq	r0, r0, r3, asr r1
     1ec:	6c500001 	mrrcvs	0, 0, r0, r0, cr1	; <UNPREDICTABLE>
     1f0:	7f000001 	svcvc	0x00000001
     1f4:	01000001 	tsteq	r0, r1
     1f8:	01985000 	orrseq	r5, r8, r0
     1fc:	019c0000 	orrseq	r0, ip, r0
     200:	00010000 	andeq	r0, r1, r0
     204:	00000050 	andeq	r0, r0, r0, asr r0
     208:	00000000 	andeq	r0, r0, r0
     20c:	0001b000 	andeq	fp, r1, r0
     210:	0001bb00 	andeq	fp, r1, r0, lsl #22
     214:	50000100 	andpl	r0, r0, r0, lsl #2
     218:	000001bb 			; <UNDEFINED> instruction: 0x000001bb
     21c:	00000220 	andeq	r0, r0, r0, lsr #4
     220:	00540001 	subseq	r0, r4, r1
     224:	00000000 	andeq	r0, r0, r0
     228:	dc000000 	stcle	0, cr0, [r0], {-0}
     22c:	08000001 	stmdaeq	r0, {r0}
     230:	01000002 	tsteq	r0, r2
     234:	02185400 	andseq	r5, r8, #0, 8
     238:	02200000 	eoreq	r0, r0, #0
     23c:	00010000 	andeq	r0, r1, r0
     240:	00000054 	andeq	r0, r0, r4, asr r0
     244:	00000000 	andeq	r0, r0, r0
     248:	0001e400 	andeq	lr, r1, r0, lsl #8
     24c:	00020800 	andeq	r0, r2, r0, lsl #16
     250:	54000100 	strpl	r0, [r0], #-256	; 0x100
     254:	00000218 	andeq	r0, r0, r8, lsl r2
     258:	00000220 	andeq	r0, r0, r0, lsr #4
     25c:	00540001 	subseq	r0, r4, r1
     260:	00000000 	andeq	r0, r0, r0
     264:	20000000 	andcs	r0, r0, r0
     268:	3f000002 	svccc	0x00000002
     26c:	01000002 	tsteq	r0, r2
     270:	023f5000 	eorseq	r5, pc, #0
     274:	02580000 	subseq	r0, r8, #0
     278:	00010000 	andeq	r0, r1, r0
     27c:	00025854 	andeq	r5, r2, r4, asr r8
     280:	00025c00 	andeq	r5, r2, r0, lsl #24
     284:	50000100 	andpl	r0, r0, r0, lsl #2
     288:	0000025c 	andeq	r0, r0, ip, asr r2
     28c:	00000278 	andeq	r0, r0, r8, ror r2
     290:	78540001 	ldmdavc	r4, {r0}^
     294:	94000002 	strls	r0, [r0], #-2
     298:	05000002 	streq	r0, [r0, #-2]
     29c:	a3ec0300 	mvnge	r0, #0, 6
	...
     2a8:	02200000 	eoreq	r0, r0, #0
     2ac:	023f0000 	eorseq	r0, pc, #0
     2b0:	00010000 	andeq	r0, r1, r0
     2b4:	00023f51 	andeq	r3, r2, r1, asr pc
     2b8:	00025800 	andeq	r5, r2, r0, lsl #16
     2bc:	55000100 	strpl	r0, [r0, #-256]	; 0x100
     2c0:	00000258 	andeq	r0, r0, r8, asr r2
     2c4:	00000260 	andeq	r0, r0, r0, ror #4
     2c8:	60510001 	subsvs	r0, r1, r1
     2cc:	94000002 	strls	r0, [r0], #-2
     2d0:	01000002 	tsteq	r0, r2
     2d4:	00005500 	andeq	r5, r0, r0, lsl #10
     2d8:	00000000 	andeq	r0, r0, r0
     2dc:	02940000 	addseq	r0, r4, #0
     2e0:	02ac0000 	adceq	r0, ip, #0
     2e4:	00010000 	andeq	r0, r1, r0
     2e8:	0002ac50 	andeq	sl, r2, r0, asr ip
     2ec:	00035000 	andeq	r5, r3, r0
     2f0:	54000100 	strpl	r0, [r0], #-256	; 0x100
	...
     2fc:	00000294 	muleq	r0, r4, r2
     300:	000002bb 			; <UNDEFINED> instruction: 0x000002bb
     304:	bb510001 	bllt	1440310 <__bss_end__+0x1435b10>
     308:	d4000002 	strle	r0, [r0], #-2
     30c:	01000002 	tsteq	r0, r2
     310:	02d45800 	sbcseq	r5, r4, #0, 16
     314:	02db0000 	sbcseq	r0, fp, #0
     318:	00010000 	andeq	r0, r1, r0
     31c:	0002db51 	andeq	sp, r2, r1, asr fp
     320:	00035000 	andeq	r5, r3, r0
     324:	58000100 	stmdapl	r0, {r8}
	...
     330:	00000294 	muleq	r0, r4, r2
     334:	000002bb 			; <UNDEFINED> instruction: 0x000002bb
     338:	bb520001 	bllt	1480344 <__bss_end__+0x1475b44>
     33c:	d4000002 	strle	r0, [r0], #-2
     340:	01000002 	tsteq	r0, r2
     344:	02d45700 	sbcseq	r5, r4, #0, 14
     348:	02db0000 	sbcseq	r0, fp, #0
     34c:	00010000 	andeq	r0, r1, r0
     350:	0002db52 	andeq	sp, r2, r2, asr fp
     354:	00035000 	andeq	r5, r3, r0
     358:	57000100 	strpl	r0, [r0, -r0, lsl #2]
	...
     364:	00000294 	muleq	r0, r4, r2
     368:	000002bb 			; <UNDEFINED> instruction: 0x000002bb
     36c:	bb530001 	bllt	14c0378 <__bss_end__+0x14b5b78>
     370:	d4000002 	strle	r0, [r0], #-2
     374:	01000002 	tsteq	r0, r2
     378:	02d45600 	sbcseq	r5, r4, #0, 12
     37c:	02db0000 	sbcseq	r0, fp, #0
     380:	00010000 	andeq	r0, r1, r0
     384:	0002db53 	andeq	sp, r2, r3, asr fp
     388:	00035000 	andeq	r5, r3, r0
     38c:	56000100 	strpl	r0, [r0], -r0, lsl #2
	...
     398:	000002a8 	andeq	r0, r0, r8, lsr #5
     39c:	000002ec 	andeq	r0, r0, ip, ror #5
     3a0:	9f300002 	svcls	0x00300002
	...
     3ac:	00000350 	andeq	r0, r0, r0, asr r3
     3b0:	0000037b 	andeq	r0, r0, fp, ror r3
     3b4:	7b500001 	blvc	14003c0 <__bss_end__+0x13f5bc0>
     3b8:	94000003 	strls	r0, [r0], #-3
     3bc:	01000003 	tsteq	r0, r3
     3c0:	03945500 	orrseq	r5, r4, #0, 10
     3c4:	03980000 	orrseq	r0, r8, #0
     3c8:	00010000 	andeq	r0, r1, r0
     3cc:	00039850 	andeq	r9, r3, r0, asr r8
     3d0:	00054c00 	andeq	r4, r5, r0, lsl #24
     3d4:	55000100 	strpl	r0, [r0, #-256]	; 0x100
     3d8:	0000054c 	andeq	r0, r0, ip, asr #10
     3dc:	00000584 	andeq	r0, r0, r4, lsl #11
     3e0:	01f30004 	mvnseq	r0, r4
     3e4:	00009f50 	andeq	r9, r0, r0, asr pc
     3e8:	00000000 	andeq	r0, r0, r0
     3ec:	03500000 	cmpeq	r0, #0
     3f0:	037b0000 	cmneq	fp, #0
     3f4:	00010000 	andeq	r0, r1, r0
     3f8:	00037b51 	andeq	r7, r3, r1, asr fp
     3fc:	00039400 	andeq	r9, r3, r0, lsl #8
     400:	59000100 	stmdbpl	r0, {r8}
     404:	00000394 	muleq	r0, r4, r3
     408:	0000039b 	muleq	r0, fp, r3
     40c:	9b510001 	blls	1440418 <__bss_end__+0x1435c18>
     410:	4c000003 	stcmi	0, cr0, [r0], {3}
     414:	01000005 	tsteq	r0, r5
     418:	054c5900 	strbeq	r5, [ip, #-2304]	; 0x900
     41c:	05840000 	streq	r0, [r4]
     420:	00040000 	andeq	r0, r4, r0
     424:	9f5101f3 	svcls	0x005101f3
	...
     430:	00000350 	andeq	r0, r0, r0, asr r3
     434:	0000037b 	andeq	r0, r0, fp, ror r3
     438:	7b520001 	blvc	1480444 <__bss_end__+0x1475c44>
     43c:	94000003 	strls	r0, [r0], #-3
     440:	01000003 	tsteq	r0, r3
     444:	03945800 	orrseq	r5, r4, #0, 16
     448:	039b0000 	orrseq	r0, fp, #0
     44c:	00010000 	andeq	r0, r1, r0
     450:	00039b52 	andeq	r9, r3, r2, asr fp
     454:	00054c00 	andeq	r4, r5, r0, lsl #24
     458:	58000100 	stmdapl	r0, {r8}
     45c:	0000054c 	andeq	r0, r0, ip, asr #10
     460:	00000584 	andeq	r0, r0, r4, lsl #11
     464:	01f30004 	mvnseq	r0, r4
     468:	00009f52 	andeq	r9, r0, r2, asr pc
     46c:	00000000 	andeq	r0, r0, r0
     470:	03500000 	cmpeq	r0, #0
     474:	036c0000 	cmneq	ip, #0
     478:	00010000 	andeq	r0, r1, r0
     47c:	00036c53 	andeq	r6, r3, r3, asr ip
     480:	0004a800 	andeq	sl, r4, r0, lsl #16
     484:	57000100 	strpl	r0, [r0, -r0, lsl #2]
     488:	000004a8 	andeq	r0, r0, r8, lsr #9
     48c:	00000584 	andeq	r0, r0, r4, lsl #11
     490:	01f30004 	mvnseq	r0, r4
     494:	00009f53 	andeq	r9, r0, r3, asr pc
     498:	00000000 	andeq	r0, r0, r0
     49c:	03680000 	cmneq	r8, #0
     4a0:	045c0000 	ldrbeq	r0, [ip], #-0
     4a4:	00020000 	andeq	r0, r2, r0
     4a8:	045c9f30 	ldrbeq	r9, [ip], #-3888	; 0xf30
     4ac:	054c0000 	strbeq	r0, [ip, #-0]
     4b0:	00010000 	andeq	r0, r1, r0
     4b4:	00054c54 	andeq	r4, r5, r4, asr ip
     4b8:	00058400 	andeq	r8, r5, r0, lsl #8
     4bc:	70000400 	andvc	r0, r0, r0, lsl #8
     4c0:	009f7ec8 	addseq	r7, pc, r8, asr #29
     4c4:	00000000 	andeq	r0, r0, r0
     4c8:	68000000 	stmdavs	r0, {}	; <UNPREDICTABLE>
     4cc:	cc000003 	stcgt	0, cr0, [r0], {3}
     4d0:	02000004 	andeq	r0, r0, #4
     4d4:	009f3000 	addseq	r3, pc, r0
     4d8:	00000000 	andeq	r0, r0, r0
     4dc:	b0000000 	andlt	r0, r0, r0
     4e0:	c3000003 	movwgt	r0, #3
     4e4:	01000003 	tsteq	r0, r3
     4e8:	03c35c00 	biceq	r5, r3, #0, 24
     4ec:	03f00000 	mvnseq	r0, #0
     4f0:	00040000 	andeq	r0, r4, r0
     4f4:	9f7dc876 	svcls	0x007dc876
     4f8:	000003f0 	strdeq	r0, [r0], -r0	; <UNPREDICTABLE>
     4fc:	0000040f 	andeq	r0, r0, pc, lsl #8
     500:	0f5c0001 	svceq	0x005c0001
     504:	5c000004 	stcpl	0, cr0, [r0], {4}
     508:	04000004 	streq	r0, [r0], #-4
     50c:	7dc87600 	stclvc	6, cr7, [r8]
     510:	00045c9f 	muleq	r4, pc, ip	; <UNPREDICTABLE>
     514:	00046400 	andeq	r6, r4, r0, lsl #8
     518:	5c000100 	stfpls	f0, [r0], {-0}
     51c:	00000464 	andeq	r0, r0, r4, ror #8
     520:	0000054c 	andeq	r0, r0, ip, asr #10
     524:	c8760004 	ldmdagt	r6!, {r2}^
     528:	054c9f7d 	strbeq	r9, [ip, #-3965]	; 0xf7d
     52c:	05840000 	streq	r0, [r4]
     530:	00090000 	andeq	r0, r9, r0
     534:	235001f3 	cmpcs	r0, #-1073741764	; 0xc000003c
     538:	1af80907 	bne	ffe0295c <__bss_end__+0xffdf815c>
     53c:	0000009f 	muleq	r0, pc, r0	; <UNPREDICTABLE>
     540:	00000000 	andeq	r0, r0, r0
     544:	0003b400 	andeq	fp, r3, r0, lsl #8
     548:	00054c00 	andeq	r4, r5, r0, lsl #24
     54c:	56000100 	strpl	r0, [r0], -r0, lsl #2
     550:	0000054c 	andeq	r0, r0, ip, asr #10
     554:	00000584 	andeq	r0, r0, r4, lsl #11
     558:	01f3000c 	mvnseq	r0, ip
     55c:	09072350 	stmdbeq	r7, {r4, r6, r8, r9, sp}
     560:	b8231af8 	stmdalt	r3!, {r3, r4, r5, r6, r7, r9, fp, ip}
     564:	00009f02 	andeq	r9, r0, r2, lsl #30
     568:	00000000 	andeq	r0, r0, r0
     56c:	045c0000 	ldrbeq	r0, [ip], #-0
     570:	054c0000 	strbeq	r0, [ip, #-0]
     574:	00040000 	andeq	r0, r4, r0
     578:	9f01b876 	svcls	0x0001b876
     57c:	0000054c 	andeq	r0, r0, ip, asr #10
     580:	00000584 	andeq	r0, r0, r4, lsl #11
     584:	01f3000c 	mvnseq	r0, ip
     588:	09072350 	stmdbeq	r7, {r4, r6, r8, r9, sp}
     58c:	f0231af8 			; <UNDEFINED> instruction: 0xf0231af8
     590:	00009f03 	andeq	r9, r0, r3, lsl #30
     594:	00000000 	andeq	r0, r0, r0
     598:	04a40000 	strteq	r0, [r4], #0
     59c:	054c0000 	strbeq	r0, [ip, #-0]
     5a0:	00010000 	andeq	r0, r1, r0
     5a4:	00054c54 	andeq	r4, r5, r4, asr ip
     5a8:	00058400 	andeq	r8, r5, r0, lsl #8
     5ac:	70000400 	andvc	r0, r0, r0, lsl #8
     5b0:	009f7ec8 	addseq	r7, pc, r8, asr #29
     5b4:	00000000 	andeq	r0, r0, r0
     5b8:	ac000000 	stcge	0, cr0, [r0], {-0}
     5bc:	4c000004 	stcmi	0, cr0, [r0], {4}
     5c0:	01000005 	tsteq	r0, r5
     5c4:	054c5400 	strbeq	r5, [ip, #-1024]	; 0x400
     5c8:	05840000 	streq	r0, [r4]
     5cc:	00040000 	andeq	r0, r4, r0
     5d0:	9f7ec870 	svcls	0x007ec870
	...
     5dc:	000005d4 	ldrdeq	r0, [r0], -r4
     5e0:	00000600 	andeq	r0, r0, r0, lsl #12
     5e4:	00500001 	subseq	r0, r0, r1
     5e8:	28000006 	stmdacs	r0, {r1, r2}
     5ec:	04000006 	streq	r0, [r0], #-6
     5f0:	5001f300 	andpl	pc, r1, r0, lsl #6
     5f4:	0006289f 	muleq	r6, pc, r8	; <UNPREDICTABLE>
     5f8:	00062c00 	andeq	r2, r6, r0, lsl #24
     5fc:	50000100 	andpl	r0, r0, r0, lsl #2
     600:	0000062c 	andeq	r0, r0, ip, lsr #12
     604:	00000648 	andeq	r0, r0, r8, asr #12
     608:	01f30004 	mvnseq	r0, r4
     60c:	00009f50 	andeq	r9, r0, r0, asr pc
     610:	00000000 	andeq	r0, r0, r0
     614:	05d80000 	ldrbeq	r0, [r8]
     618:	06000000 	streq	r0, [r0], -r0
     61c:	00010000 	andeq	r0, r1, r0
     620:	00060050 	andeq	r0, r6, r0, asr r0
     624:	00062800 	andeq	r2, r6, r0, lsl #16
     628:	f3000400 	vshl.u8	d0, d0, d0
     62c:	289f5001 	ldmcs	pc, {r0, ip, lr}	; <UNPREDICTABLE>
     630:	2c000006 	stccs	0, cr0, [r0], {6}
     634:	01000006 	tsteq	r0, r6
     638:	062c5000 	strteq	r5, [ip], -r0
     63c:	06480000 	strbeq	r0, [r8], -r0
     640:	00040000 	andeq	r0, r4, r0
     644:	9f5001f3 	svcls	0x005001f3
	...
     650:	0000068c 	andeq	r0, r0, ip, lsl #13
     654:	000006b8 			; <UNDEFINED> instruction: 0x000006b8
     658:	00560001 	subseq	r0, r6, r1
     65c:	00000000 	andeq	r0, r0, r0
     660:	94000000 	strls	r0, [r0], #-0
     664:	b4000006 	strlt	r0, [r0], #-6
     668:	01000006 	tsteq	r0, r6
     66c:	00005500 	andeq	r5, r0, r0, lsl #10
     670:	00000000 	andeq	r0, r0, r0
     674:	06ac0000 	strteq	r0, [ip], r0
     678:	06c80000 	strbeq	r0, [r8], r0
     67c:	00020000 	andeq	r0, r2, r0
     680:	06c89f30 			; <UNDEFINED> instruction: 0x06c89f30
     684:	07b80000 	ldreq	r0, [r8, r0]!
     688:	00010000 	andeq	r0, r1, r0
     68c:	00000056 	andeq	r0, r0, r6, asr r0
     690:	00000000 	andeq	r0, r0, r0
     694:	0006ac00 	andeq	sl, r6, r0, lsl #24
     698:	0006c800 	andeq	ip, r6, r0, lsl #16
     69c:	30000200 	andcc	r0, r0, r0, lsl #4
     6a0:	0006c89f 	muleq	r6, pc, r8	; <UNPREDICTABLE>
     6a4:	0007b800 	andeq	fp, r7, r0, lsl #16
     6a8:	55000100 	strpl	r0, [r0, #-256]	; 0x100
	...
     6b4:	000006c8 	andeq	r0, r0, r8, asr #13
     6b8:	0000074c 	andeq	r0, r0, ip, asr #14
     6bc:	00540001 	subseq	r0, r4, r1
	...
     6c8:	0c000000 	stceq	0, cr0, [r0], {-0}
     6cc:	01000000 	mrseq	r0, (UNDEF: 0)
     6d0:	000c5000 	andeq	r5, ip, r0
     6d4:	00100000 	andseq	r0, r0, r0
     6d8:	00040000 	andeq	r0, r4, r0
     6dc:	9f5001f3 	svcls	0x005001f3
     6e0:	00000010 	andeq	r0, r0, r0, lsl r0
     6e4:	00000014 	andeq	r0, r0, r4, lsl r0
     6e8:	14500001 	ldrbne	r0, [r0], #-1
     6ec:	18000000 	stmdane	r0, {}	; <UNPREDICTABLE>
     6f0:	04000000 	streq	r0, [r0], #-0
     6f4:	5001f300 	andpl	pc, r1, r0, lsl #6
     6f8:	0000009f 	muleq	r0, pc, r0	; <UNPREDICTABLE>
     6fc:	00000000 	andeq	r0, r0, r0
     700:	00001800 	andeq	r1, r0, r0, lsl #16
     704:	00002300 	andeq	r2, r0, r0, lsl #6
     708:	50000100 	andpl	r0, r0, r0, lsl #2
     70c:	00000023 	andeq	r0, r0, r3, lsr #32
     710:	00000068 	andeq	r0, r0, r8, rrx
     714:	00540001 	subseq	r0, r4, r1
     718:	00000000 	andeq	r0, r0, r0
     71c:	20000000 	andcs	r0, r0, r0
     720:	23000000 	movwcs	r0, #0
     724:	01000000 	mrseq	r0, (UNDEF: 0)
     728:	00235000 	eoreq	r5, r3, r0
     72c:	00680000 	rsbeq	r0, r8, r0
     730:	00010000 	andeq	r0, r1, r0
     734:	00000054 	andeq	r0, r0, r4, asr r0
     738:	00000000 	andeq	r0, r0, r0
     73c:	00003000 	andeq	r3, r0, r0
     740:	00005300 	andeq	r5, r0, r0, lsl #6
     744:	50000100 	andpl	r0, r0, r0, lsl #2
     748:	00000054 	andeq	r0, r0, r4, asr r0
     74c:	00000060 	andeq	r0, r0, r0, rrx
     750:	00500001 	subseq	r0, r0, r1
     754:	00000000 	andeq	r0, r0, r0
     758:	68000000 	stmdavs	r0, {}	; <UNPREDICTABLE>
     75c:	70000000 	andvc	r0, r0, r0
     760:	01000000 	mrseq	r0, (UNDEF: 0)
     764:	00705000 	rsbseq	r5, r0, r0
     768:	01000000 	mrseq	r0, (UNDEF: 0)
     76c:	00040000 	andeq	r0, r4, r0
     770:	9f5001f3 	svcls	0x005001f3
	...
     77c:	0000006c 	andeq	r0, r0, ip, rrx
     780:	00000090 	muleq	r0, r0, r0
     784:	9f300002 	svcls	0x00300002
     788:	00000090 	muleq	r0, r0, r0
     78c:	00000100 	andeq	r0, r0, r0, lsl #2
     790:	00540001 	subseq	r0, r4, r1
     794:	00000000 	andeq	r0, r0, r0
     798:	80000000 	andhi	r0, r0, r0
     79c:	a7000000 	strge	r0, [r0, -r0]
     7a0:	01000000 	mrseq	r0, (UNDEF: 0)
     7a4:	00a85000 	adceq	r5, r8, r0
     7a8:	00b80000 	adcseq	r0, r8, r0
     7ac:	00010000 	andeq	r0, r1, r0
     7b0:	00000050 	andeq	r0, r0, r0, asr r0
     7b4:	00000000 	andeq	r0, r0, r0
     7b8:	00010000 	andeq	r0, r1, r0
     7bc:	00010f00 	andeq	r0, r1, r0, lsl #30
     7c0:	50000100 	andpl	r0, r0, r0, lsl #2
     7c4:	0000010f 	andeq	r0, r0, pc, lsl #2
     7c8:	00000128 	andeq	r0, r0, r8, lsr #2
     7cc:	01f30004 	mvnseq	r0, r4
     7d0:	01289f50 	teqeq	r8, r0, asr pc
     7d4:	01370000 	teqeq	r7, r0
     7d8:	00010000 	andeq	r0, r1, r0
     7dc:	00013750 	andeq	r3, r1, r0, asr r7
     7e0:	00015000 	andeq	r5, r1, r0
     7e4:	56000100 	strpl	r0, [r0], -r0, lsl #2
     7e8:	00000150 	andeq	r0, r0, r0, asr r1
     7ec:	0000015b 	andeq	r0, r0, fp, asr r1
     7f0:	5b500001 	blpl	14007fc <__bss_end__+0x13f5ffc>
     7f4:	bc000001 	stclt	0, cr0, [r0], {1}
     7f8:	01000001 	tsteq	r0, r1
     7fc:	01bc5600 			; <UNDEFINED> instruction: 0x01bc5600
     800:	01cc0000 	biceq	r0, ip, r0
     804:	00010000 	andeq	r0, r1, r0
     808:	0001cc50 	andeq	ip, r1, r0, asr ip
     80c:	0001ec00 	andeq	lr, r1, r0, lsl #24
     810:	56000100 	strpl	r0, [r0], -r0, lsl #2
	...
     81c:	00000100 	andeq	r0, r0, r0, lsl #2
     820:	0000010f 	andeq	r0, r0, pc, lsl #2
     824:	0f510001 	svceq	0x00510001
     828:	28000001 	stmdacs	r0, {r0}
     82c:	04000001 	streq	r0, [r0], #-1
     830:	5101f300 	mrspl	pc, SP_irq	; <UNPREDICTABLE>
     834:	0001289f 	muleq	r1, pc, r8	; <UNPREDICTABLE>
     838:	00013700 	andeq	r3, r1, r0, lsl #14
     83c:	51000100 	mrspl	r0, (UNDEF: 16)
     840:	00000137 	andeq	r0, r0, r7, lsr r1
     844:	00000150 	andeq	r0, r0, r0, asr r1
     848:	01f30004 	mvnseq	r0, r4
     84c:	01509f51 	cmpeq	r0, r1, asr pc
     850:	015b0000 	cmpeq	fp, r0
     854:	00010000 	andeq	r0, r1, r0
     858:	00015b51 	andeq	r5, r1, r1, asr fp
     85c:	0001bc00 	andeq	fp, r1, r0, lsl #24
     860:	f3000400 	vshl.u8	d0, d0, d0
     864:	bc9f5101 	ldflts	f5, [pc], {1}
     868:	cc000001 	stcgt	0, cr0, [r0], {1}
     86c:	01000001 	tsteq	r0, r1
     870:	01cc5100 	biceq	r5, ip, r0, lsl #2
     874:	01ec0000 	mvneq	r0, r0
     878:	00040000 	andeq	r0, r4, r0
     87c:	9f5101f3 	svcls	0x005101f3
	...
     888:	0000017c 	andeq	r0, r0, ip, ror r1
     88c:	000001ac 	andeq	r0, r0, ip, lsr #3
     890:	ac500001 	mrrcge	0, 0, r0, r0, cr1	; <UNPREDICTABLE>
     894:	b3000001 	movwlt	r0, #1
     898:	04000001 	streq	r0, [r0], #-1
     89c:	7ec87000 	cdpvc	0, 12, cr7, cr8, cr0, {0}
     8a0:	0000009f 	muleq	r0, pc, r0	; <UNPREDICTABLE>
     8a4:	00000000 	andeq	r0, r0, r0
     8a8:	00017400 	andeq	r7, r1, r0, lsl #8
     8ac:	0001bc00 	andeq	fp, r1, r0, lsl #24
     8b0:	54000100 	strpl	r0, [r0], #-256	; 0x100
     8b4:	000001cc 	andeq	r0, r0, ip, asr #3
     8b8:	000001ec 	andeq	r0, r0, ip, ror #3
     8bc:	00540001 	subseq	r0, r4, r1
     8c0:	00000000 	andeq	r0, r0, r0
     8c4:	98000000 	stmdals	r0, {}	; <UNPREDICTABLE>
     8c8:	ac000001 	stcge	0, cr0, [r0], {1}
     8cc:	01000001 	tsteq	r0, r1
     8d0:	01ac5000 			; <UNDEFINED> instruction: 0x01ac5000
     8d4:	01b30000 			; <UNDEFINED> instruction: 0x01b30000
     8d8:	00040000 	andeq	r0, r4, r0
     8dc:	9f7ec870 	svcls	0x007ec870
	...
     8e8:	000001f8 	strdeq	r0, [r0], -r8
     8ec:	0000020f 	andeq	r0, r0, pc, lsl #4
     8f0:	10500001 	subsne	r0, r0, r1
     8f4:	1c000002 	stcne	0, cr0, [r0], {2}
     8f8:	01000002 	tsteq	r0, r2
     8fc:	00005000 	andeq	r5, r0, r0
     900:	00000000 	andeq	r0, r0, r0
     904:	02ec0000 	rsceq	r0, ip, #0
     908:	02f70000 	rscseq	r0, r7, #0
     90c:	00010000 	andeq	r0, r1, r0
     910:	0002f750 	andeq	pc, r2, r0, asr r7	; <UNPREDICTABLE>
     914:	00030400 	andeq	r0, r3, r0, lsl #8
     918:	54000100 	strpl	r0, [r0], #-256	; 0x100
	...
     924:	000003e0 	andeq	r0, r0, r0, ror #7
     928:	000003eb 	andeq	r0, r0, fp, ror #7
     92c:	eb500001 	bl	1400938 <__bss_end__+0x13f6138>
     930:	04000003 	streq	r0, [r0], #-3
     934:	01000004 	tsteq	r0, r4
     938:	04045400 	streq	r5, [r4], #-1024	; 0x400
     93c:	04080000 	streq	r0, [r8], #-0
     940:	00010000 	andeq	r0, r1, r0
     944:	00040850 	andeq	r0, r4, r0, asr r8
     948:	00043c00 	andeq	r3, r4, r0, lsl #24
     94c:	54000100 	strpl	r0, [r0], #-256	; 0x100
	...
     95c:	00000024 	andeq	r0, r0, r4, lsr #32
     960:	24500001 	ldrbcs	r0, [r0], #-1
     964:	e4000000 	str	r0, [r0], #-0
     968:	04000000 	streq	r0, [r0], #-0
     96c:	5001f300 	andpl	pc, r1, r0, lsl #6
     970:	0000e49f 	muleq	r0, pc, r4	; <UNPREDICTABLE>
     974:	0000e800 	andeq	lr, r0, r0, lsl #16
     978:	50000100 	andpl	r0, r0, r0, lsl #2
     97c:	000000e8 	andeq	r0, r0, r8, ror #1
     980:	000000f0 	strdeq	r0, [r0], -r0	; <UNPREDICTABLE>
     984:	01f30004 	mvnseq	r0, r4
     988:	00009f50 	andeq	r9, r0, r0, asr pc
	...
     994:	00200000 	eoreq	r0, r0, r0
     998:	00010000 	andeq	r0, r1, r0
     99c:	00002051 	andeq	r2, r0, r1, asr r0
     9a0:	00008000 	andeq	r8, r0, r0
     9a4:	51000100 	mrspl	r0, (UNDEF: 16)
     9a8:	0000009c 	muleq	r0, ip, r0
     9ac:	000000a0 	andeq	r0, r0, r0, lsr #1
     9b0:	b8510001 	ldmdalt	r1, {r0}^
     9b4:	c8000000 	stmdagt	r0, {}	; <UNPREDICTABLE>
     9b8:	01000000 	mrseq	r0, (UNDEF: 0)
     9bc:	00e45100 	rsceq	r5, r4, r0, lsl #2
     9c0:	00e80000 	rsceq	r0, r8, r0
     9c4:	00010000 	andeq	r0, r1, r0
     9c8:	00000051 	andeq	r0, r0, r1, asr r0
     9cc:	00000000 	andeq	r0, r0, r0
     9d0:	00000400 	andeq	r0, r0, r0, lsl #8
     9d4:	00002400 	andeq	r2, r0, r0, lsl #8
     9d8:	50000100 	andpl	r0, r0, r0, lsl #2
     9dc:	00000024 	andeq	r0, r0, r4, lsr #32
     9e0:	00000090 	muleq	r0, r0, r0
     9e4:	9c530001 	mrrcls	0, 0, r0, r3, cr1
     9e8:	a4000000 	strge	r0, [r0], #-0
     9ec:	01000000 	mrseq	r0, (UNDEF: 0)
     9f0:	00b85300 	adcseq	r5, r8, r0, lsl #6
     9f4:	00bc0000 	adcseq	r0, ip, r0
     9f8:	00010000 	andeq	r0, r1, r0
     9fc:	0000e453 	andeq	lr, r0, r3, asr r4
     a00:	0000e800 	andeq	lr, r0, r0, lsl #16
     a04:	50000100 	andpl	r0, r0, r0, lsl #2
	...
     a10:	00000008 	andeq	r0, r0, r8
     a14:	00000020 	andeq	r0, r0, r0, lsr #32
     a18:	20510001 	subscs	r0, r1, r1
     a1c:	34000000 	strcc	r0, [r0], #-0
     a20:	01000000 	mrseq	r0, (UNDEF: 0)
     a24:	00345200 	eorseq	r5, r4, r0, lsl #4
     a28:	00480000 	subeq	r0, r8, r0
     a2c:	00010000 	andeq	r0, r1, r0
     a30:	00004850 	andeq	r4, r0, r0, asr r8
     a34:	0000cc00 	andeq	ip, r0, r0, lsl #24
     a38:	52000100 	andpl	r0, r0, #0, 2
     a3c:	000000cc 	andeq	r0, r0, ip, asr #1
     a40:	000000e0 	andeq	r0, r0, r0, ror #1
     a44:	e4500001 	ldrb	r0, [r0], #-1
     a48:	e8000000 	stmda	r0, {}	; <UNPREDICTABLE>
     a4c:	01000000 	mrseq	r0, (UNDEF: 0)
     a50:	00005100 	andeq	r5, r0, r0, lsl #2
     a54:	00000000 	andeq	r0, r0, r0
     a58:	00440000 	subeq	r0, r4, r0
     a5c:	00480000 	subeq	r0, r8, r0
     a60:	00010000 	andeq	r0, r1, r0
     a64:	00004852 	andeq	r4, r0, r2, asr r8
     a68:	00004c00 	andeq	r4, r0, r0, lsl #24
     a6c:	7c001200 	sfmvc	f1, 4, [r0], {-0}
     a70:	73243800 	teqvc	r4, #0, 16
     a74:	08019402 	stmdaeq	r1, {r1, sl, ip, pc}
     a78:	3b221aff 	blcc	88767c <__bss_end__+0x87ce7c>
     a7c:	27007024 	strcs	r7, [r0, -r4, lsr #32]
     a80:	00004c9f 	muleq	r0, pc, ip	; <UNPREDICTABLE>
     a84:	00005400 	andeq	r5, r0, r0, lsl #8
     a88:	7c001200 	sfmvc	f1, 4, [r0], {-0}
     a8c:	73243800 	teqvc	r4, #0, 16
     a90:	0801947e 	stmdaeq	r1, {r1, r2, r3, r4, r5, r6, sl, ip, pc}
     a94:	3b221aff 	blcc	887698 <__bss_end__+0x87ce98>
     a98:	27007024 	strcs	r7, [r0, -r4, lsr #32]
     a9c:	0000009f 	muleq	r0, pc, r0	; <UNPREDICTABLE>
     aa0:	00000000 	andeq	r0, r0, r0
     aa4:	00001c00 	andeq	r1, r0, r0, lsl #24
     aa8:	0000e400 	andeq	lr, r0, r0, lsl #8
     aac:	54000100 	strpl	r0, [r0], #-256	; 0x100
	...
     abc:	00000004 	andeq	r0, r0, r4
     ac0:	04520001 	ldrbeq	r0, [r2], #-1
     ac4:	20000000 	andcs	r0, r0, r0
     ac8:	04000000 	streq	r0, [r0], #-0
     acc:	5201f300 	andpl	pc, r1, #0, 6
     ad0:	0000009f 	muleq	r0, pc, r0	; <UNPREDICTABLE>
	...
     adc:	00000c00 	andeq	r0, r0, r0, lsl #24
     ae0:	50000100 	andpl	r0, r0, r0, lsl #2
     ae4:	0000000c 	andeq	r0, r0, ip
     ae8:	00000014 	andeq	r0, r0, r4, lsl r0
     aec:	01730003 	cmneq	r3, r3
     af0:	0000149f 	muleq	r0, pc, r4	; <UNPREDICTABLE>
     af4:	00002000 	andeq	r2, r0, r0
     af8:	53000100 	movwpl	r0, #256	; 0x100
	...
     b04:	0000002c 	andeq	r0, r0, ip, lsr #32
     b08:	00000038 	andeq	r0, r0, r8, lsr r0
     b0c:	38500001 	ldmdacc	r0, {r0}^
     b10:	48000000 	stmdami	r0, {}	; <UNPREDICTABLE>
     b14:	01000000 	mrseq	r0, (UNDEF: 0)
     b18:	00485500 	subeq	r5, r8, r0, lsl #10
     b1c:	00580000 	subseq	r0, r8, r0
     b20:	00010000 	andeq	r0, r1, r0
     b24:	00000050 	andeq	r0, r0, r0, asr r0
	...
     b30:	00000b00 	andeq	r0, r0, r0, lsl #22
     b34:	50000100 	andpl	r0, r0, r0, lsl #2
     b38:	0000000b 	andeq	r0, r0, fp
     b3c:	00000014 	andeq	r0, r0, r4, lsl r0
     b40:	00540001 	subseq	r0, r4, r1
	...
     b4c:	10000000 	andne	r0, r0, r0
     b50:	01000000 	mrseq	r0, (UNDEF: 0)
     b54:	00105000 	andseq	r5, r0, r0
     b58:	00340000 	eorseq	r0, r4, r0
     b5c:	00010000 	andeq	r0, r1, r0
     b60:	00000054 	andeq	r0, r0, r4, asr r0
	...
     b6c:	00000400 	andeq	r0, r0, r0, lsl #8
     b70:	50000100 	andpl	r0, r0, r0, lsl #2
     b74:	00000004 	andeq	r0, r0, r4
     b78:	0000000c 	andeq	r0, r0, ip
     b7c:	30700003 	rsbscc	r0, r0, r3
     b80:	00000c9f 	muleq	r0, pc, ip	; <UNPREDICTABLE>
     b84:	00001400 	andeq	r1, r0, r0, lsl #8
     b88:	f3000400 	vshl.u8	d0, d0, d0
     b8c:	009f5001 	addseq	r5, pc, r1
     b90:	00000000 	andeq	r0, r0, r0
     b94:	14000000 	strne	r0, [r0], #-0
     b98:	20000000 	andcs	r0, r0, r0
     b9c:	01000000 	mrseq	r0, (UNDEF: 0)
     ba0:	00205000 	eoreq	r5, r0, r0
     ba4:	002c0000 	eoreq	r0, ip, r0
     ba8:	00030000 	andeq	r0, r3, r0
     bac:	2c9f0170 	ldfcss	f0, [pc], {112}	; 0x70
     bb0:	40000000 	andmi	r0, r0, r0
     bb4:	01000000 	mrseq	r0, (UNDEF: 0)
     bb8:	00005000 	andeq	r5, r0, r0
     bbc:	00000000 	andeq	r0, r0, r0
     bc0:	00140000 	andseq	r0, r4, r0
     bc4:	00180000 	andseq	r0, r8, r0
     bc8:	00010000 	andeq	r0, r1, r0
     bcc:	00001851 	andeq	r1, r0, r1, asr r8
     bd0:	00004000 	andeq	r4, r0, r0
     bd4:	f3000400 	vshl.u8	d0, d0, d0
     bd8:	009f5101 	addseq	r5, pc, r1, lsl #2
     bdc:	00000000 	andeq	r0, r0, r0
     be0:	40000000 	andmi	r0, r0, r0
     be4:	60000000 	andvs	r0, r0, r0
     be8:	01000000 	mrseq	r0, (UNDEF: 0)
     bec:	00605000 	rsbeq	r5, r0, r0
     bf0:	006c0000 	rsbeq	r0, ip, r0
     bf4:	00030000 	andeq	r0, r3, r0
     bf8:	6c9f0171 	ldfvss	f0, [pc], {113}	; 0x71
     bfc:	74000000 	strvc	r0, [r0], #-0
     c00:	01000000 	mrseq	r0, (UNDEF: 0)
     c04:	00745100 	rsbseq	r5, r4, r0, lsl #2
     c08:	00800000 	addeq	r0, r0, r0
     c0c:	00030000 	andeq	r0, r3, r0
     c10:	009f0171 	addseq	r0, pc, r1, ror r1	; <UNPREDICTABLE>
     c14:	00000000 	andeq	r0, r0, r0
     c18:	40000000 	andmi	r0, r0, r0
     c1c:	50000000 	andpl	r0, r0, r0
     c20:	01000000 	mrseq	r0, (UNDEF: 0)
     c24:	00505100 	subseq	r5, r0, r0, lsl #2
     c28:	00800000 	addeq	r0, r0, r0
     c2c:	00040000 	andeq	r0, r4, r0
     c30:	9f5101f3 	svcls	0x005101f3
	...
     c3c:	00000040 	andeq	r0, r0, r0, asr #32
     c40:	00000058 	andeq	r0, r0, r8, asr r0
     c44:	58520001 	ldmdapl	r2, {r0}^
     c48:	64000000 	strvs	r0, [r0], #-0
     c4c:	01000000 	mrseq	r0, (UNDEF: 0)
     c50:	00645200 	rsbeq	r5, r4, r0, lsl #4
     c54:	00680000 	rsbeq	r0, r8, r0
     c58:	00030000 	andeq	r0, r3, r0
     c5c:	689f0172 	ldmvs	pc, {r1, r4, r5, r6, r8}	; <UNPREDICTABLE>
     c60:	80000000 	andhi	r0, r0, r0
     c64:	01000000 	mrseq	r0, (UNDEF: 0)
     c68:	00005200 	andeq	r5, r0, r0, lsl #4
     c6c:	00000000 	andeq	r0, r0, r0
     c70:	00400000 	subeq	r0, r0, r0
     c74:	00540000 	subseq	r0, r4, r0
     c78:	00010000 	andeq	r0, r1, r0
     c7c:	00005453 	andeq	r5, r0, r3, asr r4
     c80:	00007800 	andeq	r7, r0, r0, lsl #16
     c84:	53000100 	movwpl	r0, #256	; 0x100
	...
     c90:	00000048 	andeq	r0, r0, r8, asr #32
     c94:	00000060 	andeq	r0, r0, r0, rrx
     c98:	605c0001 	subsvs	r0, ip, r1
     c9c:	80000000 	andhi	r0, r0, r0
     ca0:	0a000000 	beq	ca8 <_start-0x7358>
     ca4:	5201f300 	andpl	pc, r1, #0, 6
     ca8:	1c5301f3 	ldfnee	f0, [r3], {243}	; 0xf3
     cac:	009f0123 	addseq	r0, pc, r3, lsr #2
     cb0:	00000000 	andeq	r0, r0, r0
     cb4:	80000000 	andhi	r0, r0, r0
     cb8:	a4000000 	strge	r0, [r0], #-0
     cbc:	01000000 	mrseq	r0, (UNDEF: 0)
     cc0:	00a45000 	adceq	r5, r4, r0
     cc4:	01180000 	tsteq	r8, r0
     cc8:	00030000 	andeq	r0, r3, r0
     ccc:	189f0270 	ldmne	pc, {r4, r5, r6, r9}	; <UNPREDICTABLE>
     cd0:	30000001 	andcc	r0, r0, r1
     cd4:	04000002 	streq	r0, [r0], #-2
     cd8:	5001f300 	andpl	pc, r1, r0, lsl #6
     cdc:	0000009f 	muleq	r0, pc, r0	; <UNPREDICTABLE>
     ce0:	00000000 	andeq	r0, r0, r0
     ce4:	00008000 	andeq	r8, r0, r0
     ce8:	0000f000 	andeq	pc, r0, r0
     cec:	51000100 	mrspl	r0, (UNDEF: 16)
     cf0:	000000f0 	strdeq	r0, [r0], -r0	; <UNPREDICTABLE>
     cf4:	00000160 	andeq	r0, r0, r0, ror #2
     cf8:	60550001 	subsvs	r0, r5, r1
     cfc:	6c000001 	stcvs	0, cr0, [r0], {1}
     d00:	01000001 	tsteq	r0, r1
     d04:	016c5100 	cmneq	ip, r0, lsl #2
     d08:	01a00000 	moveq	r0, r0
     d0c:	00010000 	andeq	r0, r1, r0
     d10:	0001a055 	andeq	sl, r1, r5, asr r0
     d14:	0001b400 	andeq	fp, r1, r0, lsl #8
     d18:	51000100 	mrspl	r0, (UNDEF: 16)
     d1c:	000001b4 			; <UNDEFINED> instruction: 0x000001b4
     d20:	000001d4 	ldrdeq	r0, [r0], -r4
     d24:	d4550001 	ldrble	r0, [r5], #-1
     d28:	d7000001 	strle	r0, [r0, -r1]
     d2c:	01000001 	tsteq	r0, r1
     d30:	01d75100 	bicseq	r5, r7, r0, lsl #2
     d34:	02140000 	andseq	r0, r4, #0
     d38:	00010000 	andeq	r0, r1, r0
     d3c:	00021455 	andeq	r1, r2, r5, asr r4
     d40:	00023000 	andeq	r3, r2, r0
     d44:	f3000400 	vshl.u8	d0, d0, d0
     d48:	009f5101 	addseq	r5, pc, r1, lsl #2
     d4c:	00000000 	andeq	r0, r0, r0
     d50:	80000000 	andhi	r0, r0, r0
     d54:	94000000 	strls	r0, [r0], #-0
     d58:	01000000 	mrseq	r0, (UNDEF: 0)
     d5c:	00945200 	addseq	r5, r4, r0, lsl #4
     d60:	02140000 	andseq	r0, r4, #0
     d64:	00010000 	andeq	r0, r1, r0
     d68:	00021454 	andeq	r1, r2, r4, asr r4
     d6c:	00023000 	andeq	r3, r2, r0
     d70:	f3000400 	vshl.u8	d0, d0, d0
     d74:	009f5201 	addseq	r5, pc, r1, lsl #4
     d78:	00000000 	andeq	r0, r0, r0
     d7c:	80000000 	andhi	r0, r0, r0
     d80:	00000000 	andeq	r0, r0, r0
     d84:	01000001 	tsteq	r0, r1
     d88:	01045300 	mrseq	r5, LR_abt
     d8c:	01080000 	mrseq	r0, (UNDEF: 8)
     d90:	00010000 	andeq	r0, r1, r0
     d94:	00016053 	andeq	r6, r1, r3, asr r0
     d98:	00016400 	andeq	r6, r1, r0, lsl #8
     d9c:	53000100 	movwpl	r0, #256	; 0x100
     da0:	00000164 	andeq	r0, r0, r4, ror #2
     da4:	0000016c 	andeq	r0, r0, ip, ror #2
     da8:	6c5c0001 	mrrcvs	0, 0, r0, ip, cr1
     dac:	a0000001 	andge	r0, r0, r1
     db0:	04000001 	streq	r0, [r0], #-1
     db4:	5301f300 	movwpl	pc, #4864	; 0x1300	; <UNPREDICTABLE>
     db8:	0001a09f 	muleq	r1, pc, r0	; <UNPREDICTABLE>
     dbc:	0001b000 	andeq	fp, r1, r0
     dc0:	53000100 	movwpl	r0, #256	; 0x100
     dc4:	000001b0 			; <UNDEFINED> instruction: 0x000001b0
     dc8:	000001b4 			; <UNDEFINED> instruction: 0x000001b4
     dcc:	b45c0001 	ldrblt	r0, [ip], #-1
     dd0:	d4000001 	strle	r0, [r0], #-1
     dd4:	04000001 	streq	r0, [r0], #-1
     dd8:	5301f300 	movwpl	pc, #4864	; 0x1300	; <UNPREDICTABLE>
     ddc:	0001d49f 	muleq	r1, pc, r4	; <UNPREDICTABLE>
     de0:	0001d700 	andeq	sp, r1, r0, lsl #14
     de4:	53000100 	movwpl	r0, #256	; 0x100
     de8:	000001d7 	ldrdeq	r0, [r0], -r7
     dec:	000001f0 	strdeq	r0, [r0], -r0	; <UNPREDICTABLE>
     df0:	01f30004 	mvnseq	r0, r4
     df4:	00009f53 	andeq	r9, r0, r3, asr pc
     df8:	00000000 	andeq	r0, r0, r0
     dfc:	00800000 	addeq	r0, r0, r0
     e00:	009c0000 	addseq	r0, ip, r0
     e04:	00020000 	andeq	r0, r2, r0
     e08:	009c0091 	umullseq	r0, ip, r1, r0
     e0c:	01d70000 	bicseq	r0, r7, r0
     e10:	00010000 	andeq	r0, r1, r0
     e14:	0001f052 	andeq	pc, r1, r2, asr r0	; <UNPREDICTABLE>
     e18:	0001f700 	andeq	pc, r1, r0, lsl #14
     e1c:	52000100 	andpl	r0, r0, #0, 2
	...
     e28:	0000009c 	muleq	r0, ip, r0
     e2c:	00000118 	andeq	r0, r0, r8, lsl r1
     e30:	185d0001 	ldmdane	sp, {r0}^
     e34:	1c000001 	stcne	0, cr0, [r0], {1}
     e38:	01000001 	tsteq	r0, r1
     e3c:	011c5000 	tsteq	ip, r0
     e40:	01200000 	teqeq	r0, r0
     e44:	00010000 	andeq	r0, r1, r0
     e48:	00012051 	andeq	r2, r1, r1, asr r0
     e4c:	00016000 	andeq	r6, r1, r0
     e50:	50000100 	andpl	r0, r0, r0, lsl #2
     e54:	00000160 	andeq	r0, r0, r0, ror #2
     e58:	0000016c 	andeq	r0, r0, ip, ror #2
     e5c:	6c5d0001 	mrrcvs	0, 0, r0, sp, cr1
     e60:	70000001 	andvc	r0, r0, r1
     e64:	01000001 	tsteq	r0, r1
     e68:	01705000 	cmneq	r0, r0
     e6c:	01740000 	cmneq	r4, r0
     e70:	00010000 	andeq	r0, r1, r0
     e74:	00017453 	andeq	r7, r1, r3, asr r4
     e78:	00018800 	andeq	r8, r1, r0, lsl #16
     e7c:	50000100 	andpl	r0, r0, r0, lsl #2
     e80:	00000188 	andeq	r0, r0, r8, lsl #3
     e84:	00000194 	muleq	r0, r4, r1
     e88:	01700003 	cmneq	r0, r3
     e8c:	0001949f 	muleq	r1, pc, r4	; <UNPREDICTABLE>
     e90:	0001a000 	andeq	sl, r1, r0
     e94:	50000100 	andpl	r0, r0, r0, lsl #2
     e98:	000001a0 	andeq	r0, r0, r0, lsr #3
     e9c:	000001a8 	andeq	r0, r0, r8, lsr #3
     ea0:	a1910004 	orrsge	r0, r1, r4
     ea4:	01a89f7f 			; <UNDEFINED> instruction: 0x01a89f7f
     ea8:	01ac0000 			; <UNDEFINED> instruction: 0x01ac0000
     eac:	00010000 	andeq	r0, r1, r0
     eb0:	0001ac50 	andeq	sl, r1, r0, asr ip
     eb4:	0001b400 	andeq	fp, r1, r0, lsl #8
     eb8:	5d000100 	stfpls	f0, [r0, #-0]
     ebc:	000001b4 			; <UNDEFINED> instruction: 0x000001b4
     ec0:	000001b8 			; <UNDEFINED> instruction: 0x000001b8
     ec4:	b8530001 	ldmdalt	r3, {r0}^
     ec8:	d4000001 	strle	r0, [r0], #-1
     ecc:	01000001 	tsteq	r0, r1
     ed0:	01d45000 	bicseq	r5, r4, r0
     ed4:	01f00000 	mvnseq	r0, r0
     ed8:	00010000 	andeq	r0, r1, r0
     edc:	0001f05d 	andeq	pc, r1, sp, asr r0	; <UNPREDICTABLE>
     ee0:	0001f700 	andeq	pc, r1, r0, lsl #14
     ee4:	50000100 	andpl	r0, r0, r0, lsl #2
	...
     ef0:	000000a0 	andeq	r0, r0, r0, lsr #1
     ef4:	000000ec 	andeq	r0, r0, ip, ror #1
     ef8:	ec5c0001 	mrrc	0, 0, r0, ip, cr1
     efc:	00000000 	andeq	r0, r0, r0
     f00:	01000001 	tsteq	r0, r1
     f04:	01005300 	mrseq	r5, LR_irq
     f08:	01040000 	mrseq	r0, (UNDEF: 4)
     f0c:	00010000 	andeq	r0, r1, r0
     f10:	0001045c 	andeq	r0, r1, ip, asr r4
     f14:	00010800 	andeq	r0, r1, r0, lsl #16
     f18:	53000100 	movwpl	r0, #256	; 0x100
     f1c:	00000108 	andeq	r0, r0, r8, lsl #2
     f20:	00000160 	andeq	r0, r0, r0, ror #2
     f24:	605c0001 	subsvs	r0, ip, r1
     f28:	64000001 	strvs	r0, [r0], #-1
     f2c:	01000001 	tsteq	r0, r1
     f30:	01645300 	cmneq	r4, r0, lsl #6
     f34:	01800000 	orreq	r0, r0, r0
     f38:	00010000 	andeq	r0, r1, r0
     f3c:	0001805c 	andeq	r8, r1, ip, asr r0
     f40:	00018400 	andeq	r8, r1, r0, lsl #8
     f44:	7c000500 	cfstr32vc	mvfx0, [r0], {-0}
     f48:	9f253400 	svcls	0x00253400
     f4c:	00000184 	andeq	r0, r0, r4, lsl #3
     f50:	000001a0 	andeq	r0, r0, r0, lsr #3
     f54:	a05c0001 	subsge	r0, ip, r1
     f58:	b0000001 	andlt	r0, r0, r1
     f5c:	01000001 	tsteq	r0, r1
     f60:	01b05300 	lslseq	r5, r0, #6
     f64:	01c40000 	biceq	r0, r4, r0
     f68:	00010000 	andeq	r0, r1, r0
     f6c:	0001c45c 	andeq	ip, r1, ip, asr r4
     f70:	0001cc00 	andeq	ip, r1, r0, lsl #24
     f74:	7c000500 	cfstr32vc	mvfx0, [r0], {-0}
     f78:	9f253100 	svcls	0x00253100
     f7c:	000001cc 	andeq	r0, r0, ip, asr #3
     f80:	000001d4 	ldrdeq	r0, [r0], -r4
     f84:	d45c0001 	ldrble	r0, [ip], #-1
     f88:	d7000001 	strle	r0, [r0, -r1]
     f8c:	01000001 	tsteq	r0, r1
     f90:	01d75300 	bicseq	r5, r7, r0, lsl #6
     f94:	01f00000 	mvnseq	r0, r0
     f98:	00040000 	andeq	r0, r4, r0
     f9c:	9f5301f3 	svcls	0x005301f3
     fa0:	000001f0 	strdeq	r0, [r0], -r0	; <UNPREDICTABLE>
     fa4:	000001f7 	strdeq	r0, [r0], -r7
     fa8:	005c0001 	subseq	r0, ip, r1
     fac:	00000000 	andeq	r0, r0, r0
     fb0:	ec000000 	stc	0, cr0, [r0], {-0}
     fb4:	fc000000 	stc2	0, cr0, [r0], {-0}
     fb8:	02000000 	andeq	r0, r0, #0
     fbc:	fc9f3000 	ldc2	0, cr3, [pc], {0}
     fc0:	04000000 	streq	r0, [r0], #-0
     fc4:	02000001 	andeq	r0, r0, #1
     fc8:	049f3100 	ldreq	r3, [pc], #256	; fd0 <_start-0x7030>
     fcc:	08000001 	stmdaeq	r0, {r0}
     fd0:	02000001 	andeq	r0, r0, #1
     fd4:	009f3000 	addseq	r3, pc, r0
     fd8:	00000000 	andeq	r0, r0, r0
     fdc:	30000000 	andcc	r0, r0, r0
     fe0:	3f000002 	svccc	0x00000002
     fe4:	01000002 	tsteq	r0, r2
     fe8:	023f5000 	eorseq	r5, pc, #0
     fec:	02580000 	subseq	r0, r8, #0
     ff0:	00040000 	andeq	r0, r4, r0
     ff4:	9f5001f3 	svcls	0x005001f3
     ff8:	00000258 	andeq	r0, r0, r8, asr r2
     ffc:	00000284 	andeq	r0, r0, r4, lsl #5
    1000:	00500001 	subseq	r0, r0, r1
    1004:	00000000 	andeq	r0, r0, r0
    1008:	30000000 	andcc	r0, r0, r0
    100c:	3f000002 	svccc	0x00000002
    1010:	01000002 	tsteq	r0, r2
    1014:	023f5100 	eorseq	r5, pc, #0, 2
    1018:	02580000 	subseq	r0, r8, #0
    101c:	00040000 	andeq	r0, r4, r0
    1020:	9f5101f3 	svcls	0x005101f3
    1024:	00000258 	andeq	r0, r0, r8, asr r2
    1028:	00000284 	andeq	r0, r0, r4, lsl #5
    102c:	00510001 	subseq	r0, r1, r1
    1030:	00000000 	andeq	r0, r0, r0
    1034:	84000000 	strhi	r0, [r0], #-0
    1038:	b0000002 	andlt	r0, r0, r2
    103c:	01000002 	tsteq	r0, r2
    1040:	02b05000 	adcseq	r5, r0, #0
    1044:	04f80000 	ldrbteq	r0, [r8], #0
    1048:	00010000 	andeq	r0, r1, r0
    104c:	0004f85a 	andeq	pc, r4, sl, asr r8	; <UNPREDICTABLE>
    1050:	00050c00 	andeq	r0, r5, r0, lsl #24
    1054:	f3000400 	vshl.u8	d0, d0, d0
    1058:	009f5001 	addseq	r5, pc, r1
    105c:	00000000 	andeq	r0, r0, r0
    1060:	84000000 	strhi	r0, [r0], #-0
    1064:	98000002 	stmdals	r0, {r1}
    1068:	01000002 	tsteq	r0, r2
    106c:	02985100 	addseq	r5, r8, #0, 2
    1070:	02b00000 	adcseq	r0, r0, #0
    1074:	00030000 	andeq	r0, r3, r0
    1078:	b09f0171 	addslt	r0, pc, r1, ror r1	; <UNPREDICTABLE>
    107c:	0c000002 	stceq	0, cr0, [r0], {2}
    1080:	04000005 	streq	r0, [r0], #-5
    1084:	5101f300 	mrspl	pc, SP_irq	; <UNPREDICTABLE>
    1088:	0000009f 	muleq	r0, pc, r0	; <UNPREDICTABLE>
    108c:	00000000 	andeq	r0, r0, r0
    1090:	00028400 	andeq	r8, r2, r0, lsl #8
    1094:	0002b800 	andeq	fp, r2, r0, lsl #16
    1098:	52000100 	andpl	r0, r0, #0, 2
    109c:	000002b8 			; <UNDEFINED> instruction: 0x000002b8
    10a0:	000002e0 	andeq	r0, r0, r0, ror #5
    10a4:	e0520001 	subs	r0, r2, r1
    10a8:	a8000002 	stmdage	r0, {r1}
    10ac:	01000004 	tsteq	r0, r4
    10b0:	04a85600 	strteq	r5, [r8], #1536	; 0x600
    10b4:	050c0000 	streq	r0, [ip, #-0]
    10b8:	00010000 	andeq	r0, r1, r0
    10bc:	00000052 	andeq	r0, r0, r2, asr r0
    10c0:	00000000 	andeq	r0, r0, r0
    10c4:	00028400 	andeq	r8, r2, r0, lsl #8
    10c8:	0002a000 	andeq	sl, r2, r0
    10cc:	53000100 	movwpl	r0, #256	; 0x100
	...
    10d8:	00000294 	muleq	r0, r4, r2
    10dc:	000002b0 			; <UNDEFINED> instruction: 0x000002b0
    10e0:	b0500001 	subslt	r0, r0, r1
    10e4:	b4000002 	strlt	r0, [r0], #-2
    10e8:	01000002 	tsteq	r0, r2
    10ec:	02b45400 	adcseq	r5, r4, #0, 8
    10f0:	02c00000 	sbceq	r0, r0, #0
    10f4:	00030000 	andeq	r0, r3, r0
    10f8:	c09f0174 	addsgt	r0, pc, r4, ror r1	; <UNPREDICTABLE>
    10fc:	cc000002 	stcgt	0, cr0, [r0], {2}
    1100:	01000002 	tsteq	r0, r2
    1104:	02cc5400 	sbceq	r5, ip, #0, 8
    1108:	02d80000 	sbcseq	r0, r8, #0
    110c:	00030000 	andeq	r0, r3, r0
    1110:	d89f0174 	ldmle	pc, {r2, r4, r5, r6, r8}	; <UNPREDICTABLE>
    1114:	ac000002 	stcge	0, cr0, [r0], {2}
    1118:	01000004 	tsteq	r0, r4
    111c:	04ac5400 	strteq	r5, [ip], #1024	; 0x400
    1120:	04b80000 	ldrteq	r0, [r8], #0
    1124:	00030000 	andeq	r0, r3, r0
    1128:	b89f0174 	ldmlt	pc, {r2, r4, r5, r6, r8}	; <UNPREDICTABLE>
    112c:	e4000004 	str	r0, [r0], #-4
    1130:	01000004 	tsteq	r0, r4
    1134:	04e45400 	strbteq	r5, [r4], #1024	; 0x400
    1138:	04f00000 	ldrbteq	r0, [r0], #0
    113c:	00010000 	andeq	r0, r1, r0
    1140:	0004f050 	andeq	pc, r4, r0, asr r0	; <UNPREDICTABLE>
    1144:	0004f800 	andeq	pc, r4, r0, lsl #16
    1148:	74000300 	strvc	r0, [r0], #-768	; 0x300
    114c:	00009f01 	andeq	r9, r0, r1, lsl #30
    1150:	00000000 	andeq	r0, r0, r0
    1154:	029c0000 	addseq	r0, ip, #0
    1158:	04f80000 	ldrbteq	r0, [r8], #0
    115c:	00010000 	andeq	r0, r1, r0
    1160:	0004f858 	andeq	pc, r4, r8, asr r8	; <UNPREDICTABLE>
    1164:	00050c00 	andeq	r0, r5, r0, lsl #24
    1168:	f3000a00 	vpmax.u8	d0, d0, d0
    116c:	01f35101 	mvnseq	r5, r1, lsl #2
    1170:	1c312250 	lfmne	f2, 4, [r1], #-320	; 0xfffffec0
    1174:	0000009f 	muleq	r0, pc, r0	; <UNPREDICTABLE>
    1178:	00000000 	andeq	r0, r0, r0
    117c:	0003e000 	andeq	lr, r3, r0
    1180:	0003e400 	andeq	lr, r3, r0, lsl #8
    1184:	50000100 	andpl	r0, r0, r0, lsl #2
    1188:	00000404 	andeq	r0, r0, r4, lsl #8
    118c:	00000408 	andeq	r0, r0, r8, lsl #8
    1190:	28500001 	ldmdacs	r0, {r0}^
    1194:	2c000004 	stccs	0, cr0, [r0], {4}
    1198:	01000004 	tsteq	r0, r4
    119c:	044c5000 	strbeq	r5, [ip], #-0
    11a0:	04500000 	ldrbeq	r0, [r0], #-0
    11a4:	00010000 	andeq	r0, r1, r0
    11a8:	00045850 	andeq	r5, r4, r0, asr r8
    11ac:	00045c00 	andeq	r5, r4, r0, lsl #24
    11b0:	50000100 	andpl	r0, r0, r0, lsl #2
    11b4:	0000047c 	andeq	r0, r0, ip, ror r4
    11b8:	00000480 	andeq	r0, r0, r0, lsl #9
    11bc:	a4500001 	ldrbge	r0, [r0], #-1
    11c0:	cc000004 	stcgt	0, cr0, [r0], {4}
    11c4:	01000004 	tsteq	r0, r4
    11c8:	00005000 	andeq	r5, r0, r0
    11cc:	00000000 	andeq	r0, r0, r0
    11d0:	02e00000 	rsceq	r0, r0, #0
    11d4:	02e80000 	rsceq	r0, r8, #0
    11d8:	00020000 	andeq	r0, r2, r0
    11dc:	02e89f30 	rsceq	r9, r8, #48, 30	; 0xc0
    11e0:	02ec0000 	rsceq	r0, ip, #0
    11e4:	00010000 	andeq	r0, r1, r0
    11e8:	0002f857 	andeq	pc, r2, r7, asr r8	; <UNPREDICTABLE>
    11ec:	0004cc00 	andeq	ip, r4, r0, lsl #24
    11f0:	57000100 	strpl	r0, [r0, -r0, lsl #2]
	...
    11fc:	00000014 	andeq	r0, r0, r4, lsl r0
    1200:	0000001c 	andeq	r0, r0, ip, lsl r0
    1204:	04730003 	ldrbteq	r0, [r3], #-3
    1208:	00001c9f 	muleq	r0, pc, ip	; <UNPREDICTABLE>
    120c:	00002700 	andeq	r2, r0, r0, lsl #14
    1210:	53000100 	movwpl	r0, #256	; 0x100
	...
    121c:	00009484 	andeq	r9, r0, r4, lsl #9
    1220:	00009488 	andeq	r9, r0, r8, lsl #9
    1224:	9f300002 	svcls	0x00300002
    1228:	00009488 	andeq	r9, r0, r8, lsl #9
    122c:	0000948c 	andeq	r9, r0, ip, lsl #9
    1230:	00500001 	subseq	r0, r0, r1
    1234:	00000000 	andeq	r0, r0, r0
    1238:	9c000000 	stcls	0, cr0, [r0], {-0}
    123c:	a0000094 	mulge	r0, r4, r0
    1240:	02000094 	andeq	r0, r0, #148	; 0x94
    1244:	a09f3000 	addsge	r3, pc, r0
    1248:	a4000094 	strge	r0, [r0], #-148	; 0x94
    124c:	01000094 	swpeq	r0, r4, [r0]	; <UNPREDICTABLE>
    1250:	94a85300 	strtls	r5, [r8], #768	; 0x300
    1254:	94b00000 	ldrtls	r0, [r0], #0
    1258:	00010000 	andeq	r0, r1, r0
    125c:	00000053 	andeq	r0, r0, r3, asr r0
	...
    1268:	00000400 	andeq	r0, r0, r0, lsl #8
    126c:	50000100 	andpl	r0, r0, r0, lsl #2
    1270:	00000004 	andeq	r0, r0, r4
    1274:	0000000c 	andeq	r0, r0, ip
    1278:	0c530001 	mrrceq	0, 0, r0, r3, cr1
    127c:	10000000 	andne	r0, r0, r0
    1280:	01000000 	mrseq	r0, (UNDEF: 0)
    1284:	00105000 	andseq	r5, r0, r0
    1288:	001c0000 	andseq	r0, ip, r0
    128c:	00010000 	andeq	r0, r1, r0
    1290:	00000053 	andeq	r0, r0, r3, asr r0
    1294:	00000000 	andeq	r0, r0, r0
    1298:	00003c00 	andeq	r3, r0, r0, lsl #24
    129c:	00004700 	andeq	r4, r0, r0, lsl #14
    12a0:	50000100 	andpl	r0, r0, r0, lsl #2
    12a4:	00000047 	andeq	r0, r0, r7, asr #32
    12a8:	00000060 	andeq	r0, r0, r0, rrx
    12ac:	00550001 	subseq	r0, r5, r1
    12b0:	00000000 	andeq	r0, r0, r0
    12b4:	50000000 	andpl	r0, r0, r0
    12b8:	54000000 	strpl	r0, [r0], #-0
    12bc:	01000000 	mrseq	r0, (UNDEF: 0)
    12c0:	00005000 	andeq	r5, r0, r0
    12c4:	00000000 	andeq	r0, r0, r0
    12c8:	00600000 	rsbeq	r0, r0, r0
    12cc:	006c0000 	rsbeq	r0, ip, r0
    12d0:	00010000 	andeq	r0, r1, r0
    12d4:	00006c50 	andeq	r6, r0, r0, asr ip
    12d8:	00007400 	andeq	r7, r0, r0, lsl #8
    12dc:	f3000400 	vshl.u8	d0, d0, d0
    12e0:	009f5001 	addseq	r5, pc, r1
    12e4:	00000000 	andeq	r0, r0, r0
    12e8:	74000000 	strvc	r0, [r0], #-0
    12ec:	80000000 	andhi	r0, r0, r0
    12f0:	01000000 	mrseq	r0, (UNDEF: 0)
    12f4:	00805000 	addeq	r5, r0, r0
    12f8:	00880000 	addeq	r0, r8, r0
    12fc:	00040000 	andeq	r0, r4, r0
    1300:	9f5001f3 	svcls	0x005001f3
	...
    130c:	00000138 	andeq	r0, r0, r8, lsr r1
    1310:	00000143 	andeq	r0, r0, r3, asr #2
    1314:	43500001 	cmpmi	r0, #1
    1318:	68000001 	stmdavs	r0, {r0}
    131c:	01000001 	tsteq	r0, r1
    1320:	00005400 	andeq	r5, r0, r0, lsl #8
	...
    132c:	000f0000 	andeq	r0, pc, r0
    1330:	00010000 	andeq	r0, r1, r0
    1334:	00000f50 	andeq	r0, r0, r0, asr pc
    1338:	00002000 	andeq	r2, r0, r0
    133c:	54000100 	strpl	r0, [r0], #-256	; 0x100
	...
    134c:	0000000f 	andeq	r0, r0, pc
    1350:	0f510001 	svceq	0x00510001
    1354:	20000000 	andcs	r0, r0, r0
    1358:	01000000 	mrseq	r0, (UNDEF: 0)
    135c:	00005500 	andeq	r5, r0, r0, lsl #10
    1360:	00000000 	andeq	r0, r0, r0
    1364:	00ec0000 	rsceq	r0, ip, r0
    1368:	01040000 	mrseq	r0, (UNDEF: 4)
    136c:	00010000 	andeq	r0, r1, r0
    1370:	00010450 	andeq	r0, r1, r0, asr r4
    1374:	00011400 	andeq	r1, r1, r0, lsl #8
    1378:	f3000400 	vshl.u8	d0, d0, d0
    137c:	149f5001 	ldrne	r5, [pc], #1	; 1384 <_start-0x6c7c>
    1380:	18000001 	stmdane	r0, {r0}
    1384:	01000001 	tsteq	r0, r1
    1388:	01185000 	tsteq	r8, r0
    138c:	01200000 	teqeq	r0, r0
    1390:	00040000 	andeq	r0, r4, r0
    1394:	9f5001f3 	svcls	0x005001f3
	...
    13a0:	000000f8 	strdeq	r0, [r0], -r8
    13a4:	00000104 	andeq	r0, r0, r4, lsl #2
    13a8:	0070000b 	rsbseq	r0, r0, fp
    13ac:	b4232535 	strtlt	r2, [r3], #-1333	; 0x535
    13b0:	02818080 	addeq	r8, r1, #128	; 0x80
    13b4:	0001049f 	muleq	r1, pc, r4	; <UNPREDICTABLE>
    13b8:	00010700 	andeq	r0, r1, r0, lsl #14
    13bc:	50000100 	andpl	r0, r0, r0, lsl #2
    13c0:	00000107 	andeq	r0, r0, r7, lsl #2
    13c4:	00000114 	andeq	r0, r0, r4, lsl r1
    13c8:	01f3000c 	mvnseq	r0, ip
    13cc:	23253550 	teqcs	r5, #80, 10	; 0x14000000
    13d0:	818080b4 	strhhi	r8, [r0, r4]
    13d4:	00009f02 	andeq	r9, r0, r2, lsl #30
    13d8:	00000000 	andeq	r0, r0, r0
    13dc:	00fc0000 	rscseq	r0, ip, r0
    13e0:	01140000 	tsteq	r4, r0
    13e4:	00010000 	andeq	r0, r1, r0
    13e8:	00000054 	andeq	r0, r0, r4, asr r0
    13ec:	00000000 	andeq	r0, r0, r0
    13f0:	0000d000 	andeq	sp, r0, r0
    13f4:	0000df00 	andeq	sp, r0, r0, lsl #30
    13f8:	50000100 	andpl	r0, r0, r0, lsl #2
    13fc:	000000df 	ldrdeq	r0, [r0], -pc	; <UNPREDICTABLE>
    1400:	000000e4 	andeq	r0, r0, r4, ror #1
    1404:	01f30004 	mvnseq	r0, r4
    1408:	00e49f50 	rsceq	r9, r4, r0, asr pc
    140c:	00e70000 	rsceq	r0, r7, r0
    1410:	00010000 	andeq	r0, r1, r0
    1414:	0000e750 	andeq	lr, r0, r0, asr r7
    1418:	0000ec00 	andeq	lr, r0, r0, lsl #24
    141c:	f3000400 	vshl.u8	d0, d0, d0
    1420:	009f5001 	addseq	r5, pc, r1
    1424:	00000000 	andeq	r0, r0, r0
    1428:	d0000000 	andle	r0, r0, r0
    142c:	df000000 	svcle	0x00000000
    1430:	01000000 	mrseq	r0, (UNDEF: 0)
    1434:	00df5100 	sbcseq	r5, pc, r0, lsl #2
    1438:	00e40000 	rsceq	r0, r4, r0
    143c:	00040000 	andeq	r0, r4, r0
    1440:	9f5101f3 	svcls	0x005101f3
    1444:	000000e4 	andeq	r0, r0, r4, ror #1
    1448:	000000e7 	andeq	r0, r0, r7, ror #1
    144c:	e7510001 	ldrb	r0, [r1, -r1]
    1450:	ec000000 	stc	0, cr0, [r0], {-0}
    1454:	04000000 	streq	r0, [r0], #-0
    1458:	5101f300 	mrspl	pc, SP_irq	; <UNPREDICTABLE>
    145c:	0000009f 	muleq	r0, pc, r0	; <UNPREDICTABLE>
    1460:	00000000 	andeq	r0, r0, r0
    1464:	0000c000 	andeq	ip, r0, r0
    1468:	0000cb00 	andeq	ip, r0, r0, lsl #22
    146c:	50000100 	andpl	r0, r0, r0, lsl #2
    1470:	000000cb 	andeq	r0, r0, fp, asr #1
    1474:	000000d0 	ldrdeq	r0, [r0], -r0	; <UNPREDICTABLE>
    1478:	01f30004 	mvnseq	r0, r4
    147c:	00009f50 	andeq	r9, r0, r0, asr pc
    1480:	00000000 	andeq	r0, r0, r0
    1484:	009c0000 	addseq	r0, ip, r0
    1488:	00b40000 	adcseq	r0, r4, r0
    148c:	00010000 	andeq	r0, r1, r0
    1490:	0000b450 	andeq	fp, r0, r0, asr r4
    1494:	0000c000 	andeq	ip, r0, r0
    1498:	f3000400 	vshl.u8	d0, d0, d0
    149c:	009f5001 	addseq	r5, pc, r1
    14a0:	00000000 	andeq	r0, r0, r0
    14a4:	78000000 	stmdavc	r0, {}	; <UNPREDICTABLE>
    14a8:	90000000 	andls	r0, r0, r0
    14ac:	01000000 	mrseq	r0, (UNDEF: 0)
    14b0:	00905000 	addseq	r5, r0, r0
    14b4:	009c0000 	addseq	r0, ip, r0
    14b8:	00040000 	andeq	r0, r4, r0
    14bc:	9f5001f3 	svcls	0x005001f3
	...
    14c8:	00000068 	andeq	r0, r0, r8, rrx
    14cc:	00000073 	andeq	r0, r0, r3, ror r0
    14d0:	73500001 	cmpvc	r0, #1
    14d4:	78000000 	stmdavc	r0, {}	; <UNPREDICTABLE>
    14d8:	04000000 	streq	r0, [r0], #-0
    14dc:	5001f300 	andpl	pc, r1, r0, lsl #6
    14e0:	0000009f 	muleq	r0, pc, r0	; <UNPREDICTABLE>
	...
    14ec:	00004800 	andeq	r4, r0, r0, lsl #16
    14f0:	50000100 	andpl	r0, r0, r0, lsl #2
    14f4:	00000048 	andeq	r0, r0, r8, asr #32
    14f8:	00000068 	andeq	r0, r0, r8, rrx
    14fc:	01f30004 	mvnseq	r0, r4
    1500:	00009f50 	andeq	r9, r0, r0, asr pc
	...
    150c:	004b0000 	subeq	r0, fp, r0
    1510:	00010000 	andeq	r0, r1, r0
    1514:	00004b51 	andeq	r4, r0, r1, asr fp
    1518:	00006800 	andeq	r6, r0, r0, lsl #16
    151c:	f3000400 	vshl.u8	d0, d0, d0
    1520:	009f5101 	addseq	r5, pc, r1, lsl #2
    1524:	00000000 	andeq	r0, r0, r0
    1528:	4c000000 	stcmi	0, cr0, [r0], {-0}
    152c:	54000000 	strpl	r0, [r0], #-0
    1530:	01000000 	mrseq	r0, (UNDEF: 0)
    1534:	00545000 	subseq	r5, r4, r0
    1538:	00580000 	subseq	r0, r8, r0
    153c:	00090000 	andeq	r0, r9, r0
    1540:	00740075 	rsbseq	r0, r4, r5, ror r0
    1544:	21007124 	tstcs	r0, r4, lsr #2
    1548:	0000589f 	muleq	r0, pc, r8	; <UNPREDICTABLE>
    154c:	00005f00 	andeq	r5, r0, r0, lsl #30
    1550:	51000100 	mrspl	r0, (UNDEF: 16)
	...
    155c:	000000e0 	andeq	r0, r0, r0, ror #1
    1560:	0000011b 	andeq	r0, r0, fp, lsl r1
    1564:	1b500001 	blne	1401570 <__bss_end__+0x13f6d70>
    1568:	20000001 	andcs	r0, r0, r1
    156c:	04000001 	streq	r0, [r0], #-1
    1570:	5001f300 	andpl	pc, r1, r0, lsl #6
    1574:	0001209f 	muleq	r1, pc, r0	; <UNPREDICTABLE>
    1578:	00012300 	andeq	r2, r1, r0, lsl #6
    157c:	50000100 	andpl	r0, r0, r0, lsl #2
    1580:	00000123 	andeq	r0, r0, r3, lsr #2
    1584:	0000013c 	andeq	r0, r0, ip, lsr r1
    1588:	01f30004 	mvnseq	r0, r4
    158c:	013c9f50 	teqeq	ip, r0, asr pc
    1590:	013f0000 	teqeq	pc, r0
    1594:	00010000 	andeq	r0, r1, r0
    1598:	00013f50 	andeq	r3, r1, r0, asr pc
    159c:	00016c00 	andeq	r6, r1, r0, lsl #24
    15a0:	f3000400 	vshl.u8	d0, d0, d0
    15a4:	009f5001 	addseq	r5, pc, r1
    15a8:	00000000 	andeq	r0, r0, r0
    15ac:	e0000000 	and	r0, r0, r0
    15b0:	08000000 	stmdaeq	r0, {}	; <UNPREDICTABLE>
    15b4:	01000001 	tsteq	r0, r1
    15b8:	01085100 	mrseq	r5, (UNDEF: 24)
    15bc:	011b0000 	tsteq	fp, r0
    15c0:	00030000 	andeq	r0, r3, r0
    15c4:	1b9f0171 	blne	fe7c1b90 <__bss_end__+0xfe7b7390>
    15c8:	20000001 	andcs	r0, r0, r1
    15cc:	04000001 	streq	r0, [r0], #-1
    15d0:	5101f300 	mrspl	pc, SP_irq	; <UNPREDICTABLE>
    15d4:	0001209f 	muleq	r1, pc, r0	; <UNPREDICTABLE>
    15d8:	00012300 	andeq	r2, r1, r0, lsl #6
    15dc:	51000100 	mrspl	r0, (UNDEF: 16)
    15e0:	00000123 	andeq	r0, r0, r3, lsr #2
    15e4:	0000016c 	andeq	r0, r0, ip, ror #2
    15e8:	01f30004 	mvnseq	r0, r4
    15ec:	00009f51 	andeq	r9, r0, r1, asr pc
    15f0:	00000000 	andeq	r0, r0, r0
    15f4:	00f80000 	rscseq	r0, r8, r0
    15f8:	00fc0000 	rscseq	r0, ip, r0
    15fc:	00010000 	andeq	r0, r1, r0
    1600:	0000fc52 	andeq	pc, r0, r2, asr ip	; <UNPREDICTABLE>
    1604:	00010400 	andeq	r0, r1, r0, lsl #8
    1608:	03000500 	movweq	r0, #1280	; 0x500
    160c:	00009a18 	andeq	r9, r0, r8, lsl sl
    1610:	00000104 	andeq	r0, r0, r4, lsl #2
    1614:	0000011b 	andeq	r0, r0, fp, lsl r1
    1618:	3c530001 	mrrccc	0, 0, r0, r3, cr1
    161c:	3f000001 	svccc	0x00000001
    1620:	01000001 	tsteq	r0, r1
    1624:	00005300 	andeq	r5, r0, r0, lsl #6
    1628:	00000000 	andeq	r0, r0, r0
    162c:	006c0000 	rsbeq	r0, ip, r0
    1630:	00800000 	addeq	r0, r0, r0
    1634:	00010000 	andeq	r0, r1, r0
    1638:	00008050 	andeq	r8, r0, r0, asr r0
    163c:	00009b00 	andeq	r9, r0, r0, lsl #22
    1640:	52000100 	andpl	r0, r0, #0, 2
    1644:	0000009b 	muleq	r0, fp, r0
    1648:	000000a4 	andeq	r0, r0, r4, lsr #1
    164c:	01f30009 	mvnseq	r0, r9
    1650:	09072350 	stmdbeq	r7, {r4, r6, r8, r9, sp}
    1654:	a49f1af8 	ldrge	r1, [pc], #2808	; 165c <_start-0x69a4>
    1658:	a7000000 	strge	r0, [r0, -r0]
    165c:	01000000 	mrseq	r0, (UNDEF: 0)
    1660:	00a75000 	adceq	r5, r7, r0
    1664:	00d00000 	sbcseq	r0, r0, r0
    1668:	00040000 	andeq	r0, r4, r0
    166c:	9f5001f3 	svcls	0x005001f3
	...
    1678:	00000088 	andeq	r0, r0, r8, lsl #1
    167c:	000000a4 	andeq	r0, r0, r4, lsr #1
    1680:	00540001 	subseq	r0, r4, r1
    1684:	00000000 	andeq	r0, r0, r0
    1688:	1c000000 	stcne	0, cr0, [r0], {-0}
    168c:	43000000 	movwmi	r0, #0
    1690:	01000000 	mrseq	r0, (UNDEF: 0)
    1694:	00435000 	subeq	r5, r3, r0
    1698:	006c0000 	rsbeq	r0, ip, r0
    169c:	00040000 	andeq	r0, r4, r0
    16a0:	9f5001f3 	svcls	0x005001f3
	...
    16ac:	0000001c 	andeq	r0, r0, ip, lsl r0
    16b0:	00000043 	andeq	r0, r0, r3, asr #32
    16b4:	43500001 	cmpmi	r0, #1
    16b8:	6c000000 	stcvs	0, cr0, [r0], {-0}
    16bc:	04000000 	streq	r0, [r0], #-0
    16c0:	5001f300 	andpl	pc, r1, r0, lsl #6
    16c4:	0000009f 	muleq	r0, pc, r0	; <UNPREDICTABLE>
    16c8:	00000000 	andeq	r0, r0, r0
	...

Disassembly of section .debug_aranges:

00000000 <.debug_aranges>:
   0:	0000001c 	andeq	r0, r0, ip, lsl r0
   4:	00000002 	andeq	r0, r0, r2
   8:	00040000 	andeq	r0, r4, r0
   c:	00000000 	andeq	r0, r0, r0
  10:	00008010 	andeq	r8, r0, r0, lsl r0
  14:	000000c4 	andeq	r0, r0, r4, asr #1
	...
  20:	0000001c 	andeq	r0, r0, ip, lsl r0
  24:	02de0002 	sbcseq	r0, lr, #2
  28:	00040000 	andeq	r0, r4, r0
  2c:	00000000 	andeq	r0, r0, r0
  30:	000080d4 	ldrdeq	r8, [r0], -r4
  34:	000007b8 			; <UNDEFINED> instruction: 0x000007b8
	...
  40:	0000001c 	andeq	r0, r0, ip, lsl r0
  44:	127d0002 	rsbsne	r0, sp, #2
  48:	00040000 	andeq	r0, r4, r0
  4c:	00000000 	andeq	r0, r0, r0
  50:	0000888c 	andeq	r8, r0, ip, lsl #17
  54:	00000474 	andeq	r0, r0, r4, ror r4
	...
  60:	0000001c 	andeq	r0, r0, ip, lsl r0
  64:	1e3b0002 	cdpne	0, 3, cr0, cr11, cr2, {0}
  68:	00040000 	andeq	r0, r4, r0
  6c:	00000000 	andeq	r0, r0, r0
  70:	00008d44 	andeq	r8, r0, r4, asr #26
  74:	000000f0 	strdeq	r0, [r0], -r0	; <UNPREDICTABLE>
	...
  80:	0000001c 	andeq	r0, r0, ip, lsl r0
  84:	1f510002 	svcne	0x00510002
  88:	00040000 	andeq	r0, r4, r0
  8c:	00000000 	andeq	r0, r0, r0
  90:	00008e34 	andeq	r8, r0, r4, lsr lr
  94:	00000020 	andeq	r0, r0, r0, lsr #32
	...
  a0:	0000001c 	andeq	r0, r0, ip, lsl r0
  a4:	20300002 	eorscs	r0, r0, r2
  a8:	00040000 	andeq	r0, r4, r0
  ac:	00000000 	andeq	r0, r0, r0
  b0:	00008e54 	andeq	r8, r0, r4, asr lr
  b4:	00000058 	andeq	r0, r0, r8, asr r0
	...
  c0:	0000001c 	andeq	r0, r0, ip, lsl r0
  c4:	21c50002 	biccs	r0, r5, r2
  c8:	00040000 	andeq	r0, r4, r0
  cc:	00000000 	andeq	r0, r0, r0
  d0:	00008eac 	andeq	r8, r0, ip, lsr #29
  d4:	0000003c 	andeq	r0, r0, ip, lsr r0
	...
  e0:	0000001c 	andeq	r0, r0, ip, lsl r0
  e4:	22dc0002 	sbcscs	r0, ip, #2
  e8:	00040000 	andeq	r0, r4, r0
  ec:	00000000 	andeq	r0, r0, r0
  f0:	00008ee8 	andeq	r8, r0, r8, ror #29
  f4:	00000034 	andeq	r0, r0, r4, lsr r0
	...
 100:	0000001c 	andeq	r0, r0, ip, lsl r0
 104:	23ce0002 	biccs	r0, lr, #2
 108:	00040000 	andeq	r0, r4, r0
 10c:	00000000 	andeq	r0, r0, r0
 110:	00008f1c 	andeq	r8, r0, ip, lsl pc
 114:	0000050c 	andeq	r0, r0, ip, lsl #10
	...
 120:	0000001c 	andeq	r0, r0, ip, lsl r0
 124:	2a530002 	bcs	14c0134 <__bss_end__+0x14b5934>
 128:	00040000 	andeq	r0, r4, r0
 12c:	00000000 	andeq	r0, r0, r0
 130:	00009428 	andeq	r9, r0, r8, lsr #8
 134:	00000028 	andeq	r0, r0, r8, lsr #32
	...
 140:	0000001c 	andeq	r0, r0, ip, lsl r0
 144:	2b560002 	blcs	1580154 <__bss_end__+0x1575954>
 148:	00040000 	andeq	r0, r4, r0
 14c:	00000000 	andeq	r0, r0, r0
 150:	00009450 	andeq	r9, r0, r0, asr r4
 154:	00000034 	andeq	r0, r0, r4, lsr r0
	...
 160:	0000001c 	andeq	r0, r0, ip, lsl r0
 164:	2c590002 	mrrccs	0, 0, r0, r9, cr2
 168:	00040000 	andeq	r0, r4, r0
 16c:	00000000 	andeq	r0, r0, r0
 170:	00009484 	andeq	r9, r0, r4, lsl #9
 174:	00000074 	andeq	r0, r0, r4, ror r0
	...
 180:	0000001c 	andeq	r0, r0, ip, lsl r0
 184:	2e0a0002 	cdpcs	0, 0, cr0, cr10, cr2, {0}
 188:	00040000 	andeq	r0, r4, r0
 18c:	00000000 	andeq	r0, r0, r0
 190:	000094f8 	strdeq	r9, [r0], -r8
 194:	00000088 	andeq	r0, r0, r8, lsl #1
	...
 1a0:	0000001c 	andeq	r0, r0, ip, lsl r0
 1a4:	2fe60002 	svccs	0x00e60002
 1a8:	00040000 	andeq	r0, r4, r0
 1ac:	00000000 	andeq	r0, r0, r0
 1b0:	000095cc 	andeq	r9, r0, ip, asr #11
 1b4:	00000178 	andeq	r0, r0, r8, ror r1
	...
 1c0:	0000001c 	andeq	r0, r0, ip, lsl r0
 1c4:	3caf0002 	stccc	0, cr0, [pc], #8	; 1d4 <_start-0x7e2c>
 1c8:	00040000 	andeq	r0, r4, r0
 1cc:	00000000 	andeq	r0, r0, r0
 1d0:	00009744 	andeq	r9, r0, r4, asr #14
 1d4:	00000120 	andeq	r0, r0, r0, lsr #2
	...
 1e0:	0000001c 	andeq	r0, r0, ip, lsl r0
 1e4:	48230002 	stmdami	r3!, {r1}
 1e8:	00040000 	andeq	r0, r4, r0
 1ec:	00000000 	andeq	r0, r0, r0
 1f0:	00009864 	andeq	r9, r0, r4, ror #16
 1f4:	00000194 	muleq	r0, r4, r1
	...

Disassembly of section .debug_line:

00000000 <.debug_line>:
       0:	0000016c 	andeq	r0, r0, ip, ror #2
       4:	014c0002 	cmpeq	ip, r2
       8:	01020000 	mrseq	r0, (UNDEF: 2)
       c:	000d0efb 	strdeq	r0, [sp], -fp
      10:	01010101 	tsteq	r1, r1, lsl #2
      14:	01000000 	mrseq	r0, (UNDEF: 0)
      18:	74010000 	strvc	r0, [r1], #-0
      1c:	73747365 	cmnvc	r4, #-1811939327	; 0x94000001
      20:	73752f00 	cmnvc	r5, #0, 30
      24:	6f6c2f72 	svcvs	0x006c2f72
      28:	2f6c6163 	svccs	0x006c6163
      2c:	6c6c6543 	cfstr64vs	mvdx6, [ip], #-268	; 0xfffffef4
      30:	612f7261 	teqvs	pc, r1, ror #4
      34:	6e2d6d72 	mcrvs	13, 1, r6, cr13, cr2, {3}
      38:	2d656e6f 	stclcs	14, cr6, [r5, #-444]!	; 0xfffffe44
      3c:	69626165 	stmdbvs	r2!, {r0, r2, r5, r6, r8, sp, lr}^
      40:	382e342f 	stmdacc	lr!, {r0, r1, r2, r3, r5, sl, ip, sp}
      44:	632d332e 	teqvs	sp, #-1207959552	; 0xb8000000
      48:	30373173 	eorscc	r3, r7, r3, ror r1
      4c:	696c2f65 	stmdbvs	ip!, {r0, r2, r5, r6, r8, r9, sl, fp, sp}^
      50:	63672f62 	cmnvs	r7, #392	; 0x188
      54:	72612f63 	rsbvc	r2, r1, #396	; 0x18c
      58:	6f6e2d6d 	svcvs	0x006e2d6d
      5c:	652d656e 	strvs	r6, [sp, #-1390]!	; 0x56e
      60:	2f696261 	svccs	0x00696261
      64:	2e382e34 	mrccs	14, 1, r2, cr8, cr4, {1}
      68:	6e692f33 	mcrvs	15, 3, r2, cr9, cr3, {1}
      6c:	64756c63 	ldrbtvs	r6, [r5], #-3171	; 0xc63
      70:	552f0065 	strpl	r0, [pc, #-101]!	; 13 <_start-0x7fed>
      74:	73726573 	cmnvc	r2, #482344960	; 0x1cc00000
      78:	6972622f 	ldmdbvs	r2!, {r0, r1, r2, r3, r5, r9, sp, lr}^
      7c:	756a6e61 	strbvc	r6, [sl, #-3681]!	; 0xe61
      80:	65442f6e 	strbvs	r2, [r4, #-3950]	; 0xf6e
      84:	6f746b73 	svcvs	0x00746b73
      88:	63732f70 	cmnvs	r3, #112, 30	; 0x1c0
      8c:	6c6f6f68 	stclvs	15, cr6, [pc], #-416	; fffffef4 <__bss_end__+0xffff56f4>
      90:	7270532f 	rsbsvc	r5, r0, #-1140850688	; 0xbc000000
      94:	31676e69 	cmncc	r7, r9, ror #28
      98:	2f303239 	svccs	0x00303239
      9c:	34325343 	ldrtcc	r5, [r2], #-835	; 0x343
      a0:	2f584c30 	svccs	0x00584c30
      a4:	34327363 	ldrtcc	r7, [r2], #-867	; 0x363
      a8:	2d786c30 	ldclcs	12, cr6, [r8, #-192]!	; 0xffffff40
      ac:	70733032 	rsbsvc	r3, r3, r2, lsr r0
      b0:	696c2f72 	stmdbvs	ip!, {r1, r4, r5, r6, r8, r9, sl, fp, sp}^
      b4:	2f697062 	svccs	0x00697062
      b8:	6c636e69 	stclvs	14, cr6, [r3], #-420	; 0xfffffe5c
      bc:	00656475 	rsbeq	r6, r5, r5, ror r4
      c0:	752f002e 	strvc	r0, [pc, #-46]!	; 9a <_start-0x7f66>
      c4:	6c2f7273 	sfmvs	f7, 4, [pc], #-460	; ffffff00 <__bss_end__+0xffff5700>
      c8:	6c61636f 	stclvs	3, cr6, [r1], #-444	; 0xfffffe44
      cc:	6c65432f 	stclvs	3, cr4, [r5], #-188	; 0xffffff44
      d0:	2f72616c 	svccs	0x0072616c
      d4:	2d6d7261 	sfmcs	f7, 2, [sp, #-388]!	; 0xfffffe7c
      d8:	656e6f6e 	strbvs	r6, [lr, #-3950]!	; 0xf6e
      dc:	6261652d 	rsbvs	r6, r1, #188743680	; 0xb400000
      e0:	2e342f69 	cdpcs	15, 3, cr2, cr4, cr9, {3}
      e4:	2d332e38 	ldccs	14, cr2, [r3, #-224]!	; 0xffffff20
      e8:	37317363 	ldrcc	r7, [r1, -r3, ror #6]!
      ec:	612f6530 	teqvs	pc, r0, lsr r5	; <UNPREDICTABLE>
      f0:	6e2d6d72 	mcrvs	13, 1, r6, cr13, cr2, {3}
      f4:	2d656e6f 	stclcs	14, cr6, [r5, #-444]!	; 0xfffffe44
      f8:	69626165 	stmdbvs	r2!, {r0, r2, r5, r6, r8, sp, lr}^
      fc:	636e692f 	cmnvs	lr, #770048	; 0xbc000
     100:	6564756c 	strbvs	r7, [r4, #-1388]!	; 0x56c
     104:	61700000 	cmnvs	r0, r0
     108:	2d327472 	cfldrscs	mvf7, [r2, #-456]!	; 0xfffffe38
     10c:	74736574 	ldrbtvc	r6, [r3], #-1396	; 0x574
     110:	00632e32 	rsbeq	r2, r3, r2, lsr lr
     114:	73000001 	movwvc	r0, #1
     118:	65646474 	strbvs	r6, [r4, #-1140]!	; 0x474
     11c:	00682e66 	rsbeq	r2, r8, r6, ror #28
     120:	73000002 	movwvc	r0, #2
     124:	6e696474 	mcrvs	4, 3, r6, cr9, cr4, {3}
     128:	63672d74 	cmnvs	r7, #116, 26	; 0x1d00
     12c:	00682e63 	rsbeq	r2, r8, r3, ror #28
     130:	72000002 	andvc	r0, r0, #2
     134:	682e6970 	stmdavs	lr!, {r4, r5, r6, r8, fp, sp, lr}
     138:	00000300 	andeq	r0, r0, r0, lsl #6
     13c:	6c616b63 	stclvs	11, cr6, [r1], #-396	; 0xfffffe74
     140:	2e636f6c 	cdpcs	15, 6, cr6, cr3, cr12, {3}
     144:	00040068 	andeq	r0, r4, r8, rrx
     148:	72747300 	rsbsvc	r7, r4, #0, 6
     14c:	2e676e69 	cdpcs	14, 6, cr6, cr7, cr9, {3}
     150:	00050068 	andeq	r0, r5, r8, rrx
     154:	05000000 	streq	r0, [r0, #-0]
     158:	00801002 	addeq	r1, r0, r2
     15c:	01150300 	tsteq	r5, r0, lsl #6
     160:	68f3bb31 	ldmvs	r3!, {r0, r4, r5, r8, r9, fp, ip, sp, pc}^
     164:	2ff532bc 	svccs	0x00f532bc
     168:	02854c4d 	addeq	r4, r5, #19712	; 0x4d00
     16c:	0101000e 	tsteq	r1, lr
     170:	000002c2 	andeq	r0, r0, r2, asr #5
     174:	01a40002 			; <UNDEFINED> instruction: 0x01a40002
     178:	01020000 	mrseq	r0, (UNDEF: 2)
     17c:	000d0efb 	strdeq	r0, [sp], -fp
     180:	01010101 	tsteq	r1, r1, lsl #2
     184:	01000000 	mrseq	r0, (UNDEF: 0)
     188:	2f010000 	svccs	0x00010000
     18c:	2f727375 	svccs	0x00727375
     190:	61636f6c 	cmnvs	r3, ip, ror #30
     194:	65432f6c 	strbvs	r2, [r3, #-3948]	; 0xf6c
     198:	72616c6c 	rsbvc	r6, r1, #108, 24	; 0x6c00
     19c:	6d72612f 	ldfvse	f6, [r2, #-188]!	; 0xffffff44
     1a0:	6e6f6e2d 	cdpvs	14, 6, cr6, cr15, cr13, {1}
     1a4:	61652d65 	cmnvs	r5, r5, ror #26
     1a8:	342f6962 	strtcc	r6, [pc], #-2402	; 1b0 <_start-0x7e50>
     1ac:	332e382e 	teqcc	lr, #3014656	; 0x2e0000
     1b0:	3173632d 	cmncc	r3, sp, lsr #6
     1b4:	2f653037 	svccs	0x00653037
     1b8:	2f62696c 	svccs	0x0062696c
     1bc:	2f636367 	svccs	0x00636367
     1c0:	2d6d7261 	sfmcs	f7, 2, [sp, #-388]!	; 0xfffffe7c
     1c4:	656e6f6e 	strbvs	r6, [lr, #-3950]!	; 0xf6e
     1c8:	6261652d 	rsbvs	r6, r1, #188743680	; 0xb400000
     1cc:	2e342f69 	cdpcs	15, 3, cr2, cr4, cr9, {3}
     1d0:	2f332e38 	svccs	0x00332e38
     1d4:	6c636e69 	stclvs	14, cr6, [r3], #-420	; 0xfffffe5c
     1d8:	00656475 	rsbeq	r6, r5, r5, ror r4
     1dc:	6573552f 	ldrbvs	r5, [r3, #-1327]!	; 0x52f
     1e0:	622f7372 	eorvs	r7, pc, #-939524095	; 0xc8000001
     1e4:	6e616972 	mcrvs	9, 3, r6, cr1, cr2, {3}
     1e8:	2f6e756a 	svccs	0x006e756a
     1ec:	6b736544 	blvs	1cd9704 <__bss_end__+0x1ccef04>
     1f0:	2f706f74 	svccs	0x00706f74
     1f4:	6f686373 	svcvs	0x00686373
     1f8:	532f6c6f 	teqpl	pc, #28416	; 0x6f00
     1fc:	6e697270 	mcrvs	2, 3, r7, cr9, cr0, {3}
     200:	32393167 	eorscc	r3, r9, #-1073741799	; 0xc0000019
     204:	53432f30 	movtpl	r2, #16176	; 0x3f30
     208:	4c303432 	cfldrsmi	mvf3, [r0], #-200	; 0xffffff38
     20c:	73632f58 	cmnvc	r3, #88, 30	; 0x160
     210:	6c303432 	cfldrsvs	mvf3, [r0], #-200	; 0xffffff38
     214:	30322d78 	eorscc	r2, r2, r8, ror sp
     218:	2f727073 	svccs	0x00727073
     21c:	7062696c 	rsbvc	r6, r2, ip, ror #18
     220:	6e692f69 	cdpvs	15, 6, cr2, cr9, cr9, {3}
     224:	64756c63 	ldrbtvs	r6, [r5], #-3171	; 0xc63
     228:	752f0065 	strvc	r0, [pc, #-101]!	; 1cb <_start-0x7e35>
     22c:	6c2f7273 	sfmvs	f7, 4, [pc], #-460	; 68 <_start-0x7f98>
     230:	6c61636f 	stclvs	3, cr6, [r1], #-444	; 0xfffffe44
     234:	6c65432f 	stclvs	3, cr4, [r5], #-188	; 0xffffff44
     238:	2f72616c 	svccs	0x0072616c
     23c:	2d6d7261 	sfmcs	f7, 2, [sp, #-388]!	; 0xfffffe7c
     240:	656e6f6e 	strbvs	r6, [lr, #-3950]!	; 0xf6e
     244:	6261652d 	rsbvs	r6, r1, #188743680	; 0xb400000
     248:	2e342f69 	cdpcs	15, 3, cr2, cr4, cr9, {3}
     24c:	2d332e38 	ldccs	14, cr2, [r3, #-224]!	; 0xffffff20
     250:	37317363 	ldrcc	r7, [r1, -r3, ror #6]!
     254:	612f6530 	teqvs	pc, r0, lsr r5	; <UNPREDICTABLE>
     258:	6e2d6d72 	mcrvs	13, 1, r6, cr13, cr2, {3}
     25c:	2d656e6f 	stclcs	14, cr6, [r5, #-444]!	; 0xfffffe44
     260:	69626165 	stmdbvs	r2!, {r0, r2, r5, r6, r8, sp, lr}^
     264:	636e692f 	cmnvs	lr, #770048	; 0xbc000
     268:	6564756c 	strbvs	r7, [r4, #-1388]!	; 0x56c
     26c:	73552f00 	cmpvc	r5, #0, 30
     270:	2f737265 	svccs	0x00737265
     274:	61697262 	cmnvs	r9, r2, ror #4
     278:	6e756a6e 	vsubvs.f32	s13, s10, s29
     27c:	7365442f 	cmnvc	r5, #788529152	; 0x2f000000
     280:	706f746b 	rsbvc	r7, pc, fp, ror #8
     284:	6863732f 	stmdavs	r3!, {r0, r1, r2, r3, r5, r8, r9, ip, sp, lr}^
     288:	2f6c6f6f 	svccs	0x006c6f6f
     28c:	69727053 	ldmdbvs	r2!, {r0, r1, r4, r6, ip, sp, lr}^
     290:	3931676e 	ldmdbcc	r1!, {r1, r2, r3, r5, r6, r8, r9, sl, sp, lr}
     294:	432f3032 	teqmi	pc, #50	; 0x32
     298:	30343253 	eorscc	r3, r4, r3, asr r2
     29c:	632f584c 	teqvs	pc, #76, 16	; 0x4c0000
     2a0:	30343273 	eorscc	r3, r4, r3, ror r2
     2a4:	322d786c 	eorcc	r7, sp, #108, 16	; 0x6c0000
     2a8:	72707330 	rsbsvc	r7, r0, #48, 6	; 0xc0000000
     2ac:	62696c2f 	rsbvs	r6, r9, #12032	; 0x2f00
     2b0:	6c2f6970 	stcvs	9, cr6, [pc], #-448	; f8 <_start-0x7f08>
     2b4:	00636269 	rsbeq	r6, r3, r9, ror #4
     2b8:	616b6300 	cmnvs	fp, r0, lsl #6
     2bc:	636f6c6c 	cmnvs	pc, #108, 24	; 0x6c00
     2c0:	0000632e 	andeq	r6, r0, lr, lsr #6
     2c4:	6b630000 	blvs	18c02cc <__bss_end__+0x18b5acc>
     2c8:	6f6c6c61 	svcvs	0x006c6c61
     2cc:	6e692d63 	cdpvs	13, 6, cr2, cr9, cr3, {3}
     2d0:	6e726574 	mrcvs	5, 3, r6, cr2, cr4, {3}
     2d4:	682e6c61 	stmdavs	lr!, {r0, r5, r6, sl, fp, sp, lr}
     2d8:	00000000 	andeq	r0, r0, r0
     2dc:	64647473 	strbtvs	r7, [r4], #-1139	; 0x473
     2e0:	682e6665 	stmdavs	lr!, {r0, r2, r5, r6, r9, sl, sp, lr}
     2e4:	00000100 	andeq	r0, r0, r0, lsl #2
     2e8:	69647473 	stmdbvs	r4!, {r0, r1, r4, r5, r6, sl, ip, sp, lr}^
     2ec:	672d746e 	strvs	r7, [sp, -lr, ror #8]!
     2f0:	682e6363 	stmdavs	lr!, {r0, r1, r5, r6, r8, r9, sp, lr}
     2f4:	00000100 	andeq	r0, r0, r0, lsl #2
     2f8:	2e697072 	mcrcs	0, 3, r7, cr9, cr2, {3}
     2fc:	00020068 	andeq	r0, r2, r8, rrx
     300:	72747300 	rsbsvc	r7, r4, #0, 6
     304:	2e676e69 	cdpcs	14, 6, cr6, cr7, cr9, {3}
     308:	00030068 	andeq	r0, r3, r8, rrx
     30c:	62696c00 	rsbvs	r6, r9, #0, 24
     310:	78652d63 	stmdavc	r5!, {r0, r1, r5, r6, r8, sl, fp, sp}^
     314:	2e617274 	mcrcs	2, 3, r7, cr1, cr4, {3}
     318:	00040068 	andeq	r0, r4, r8, rrx
     31c:	05000000 	streq	r0, [r0, #-0]
     320:	0080d402 	addeq	sp, r0, r2, lsl #8
     324:	01250300 	teqeq	r5, r0, lsl #6
     328:	2f834b4c 	svccs	0x00834b4c
     32c:	0302042f 	movweq	r0, #9263	; 0x242f
     330:	200800d8 	ldrdcs	r0, [r8], -r8
     334:	bbd967a0 	bllt	ff65a1bc <__bss_end__+0xff64f9bc>
     338:	a2030104 	andge	r0, r3, #4, 2
     33c:	0045d67f 	subeq	sp, r5, pc, ror r6
     340:	06010402 	streq	r0, [r1], -r2, lsl #8
     344:	4752062e 	ldrbmi	r0, [r2, -lr, lsr #12]
     348:	034bd76a 	movteq	sp, #46954	; 0xb76a
     34c:	2f4b6661 	svccs	0x004b6661
     350:	31304b4b 	teqcc	r0, fp, asr #22
     354:	0200314b 	andeq	r3, r0, #-1073741806	; 0xc0000012
     358:	66060104 	strvs	r0, [r6], -r4, lsl #2
     35c:	0200d706 	andeq	sp, r0, #1572864	; 0x180000
     360:	82060104 	andhi	r0, r6, #4, 2
     364:	1803d806 	stmdane	r3, {r1, r2, fp, ip, lr, pc}
     368:	49304cba 	ldmdbmi	r0!, {r1, r3, r4, r5, r7, sl, fp, lr}
     36c:	1c030204 	sfmne	f0, 4, [r3], {4}
     370:	01044cba 			; <UNDEFINED> instruction: 0x01044cba
     374:	082e6303 	stmdaeq	lr!, {r0, r1, r8, r9, sp, lr}
     378:	2e490391 	mcrcs	3, 2, r0, cr9, cr1, {4}
     37c:	04020067 	streq	r0, [r2], #-103	; 0x67
     380:	06820601 	streq	r0, [r2], r1, lsl #12
     384:	036783d7 	cmneq	r7, #1543503875	; 0x5c000003
     388:	00a0f23a 	adceq	pc, r0, sl, lsr r2	; <UNPREDICTABLE>
     38c:	06010402 	streq	r0, [r1], -r2, lsl #8
     390:	a0d70682 	sbcsge	r0, r7, r2, lsl #13
     394:	4c6a8530 	cfstr64mi	mvdx8, [sl], #-192	; 0xffffff40
     398:	302f2f68 	eorcc	r2, pc, r8, ror #30
     39c:	00be4008 	adcseq	r4, lr, r8
     3a0:	06010402 	streq	r0, [r1], -r2, lsl #8
     3a4:	a0d70682 	sbcsge	r0, r7, r2, lsl #13
     3a8:	084b314b 	stmdaeq	fp, {r0, r1, r3, r6, r8, ip, sp}^
     3ac:	2a02bb92 	bcs	af1fc <__bss_end__+0xa49fc>
     3b0:	4c4b2f18 	mcrrmi	15, 1, r2, fp, cr8
     3b4:	4b302f2f 	blmi	c0c078 <__bss_end__+0xc01878>
     3b8:	0468302f 	strbteq	r3, [r8], #-47	; 0x2f
     3bc:	66560302 	ldrbvs	r0, [r6], -r2, lsl #6
     3c0:	0301044c 	movweq	r0, #5196	; 0x144c
     3c4:	85682e29 	strbhi	r2, [r8, #-3625]!	; 0xe29
     3c8:	01040200 	mrseq	r0, R12_usr
     3cc:	d7068206 	strle	r8, [r6, -r6, lsl #4]
     3d0:	01040200 	mrseq	r0, R12_usr
     3d4:	d7068206 	strle	r8, [r6, -r6, lsl #4]
     3d8:	142202d8 	strtne	r0, [r2], #-728	; 0x2d8
     3dc:	02004d2f 	andeq	r4, r0, #3008	; 0xbc0
     3e0:	82060104 	andhi	r0, r6, #4, 2
     3e4:	04bcd806 	ldrteq	sp, [ip], #2054	; 0x806
     3e8:	2e4b0302 	cdpcs	3, 4, cr0, cr11, cr2, {0}
     3ec:	36030104 	strcc	r0, [r3], -r4, lsl #2
     3f0:	00853482 	addeq	r3, r5, r2, lsl #9
     3f4:	06010402 	streq	r0, [r1], -r2, lsl #8
     3f8:	4dd40682 	ldclmi	6, cr0, [r4, #520]	; 0x208
     3fc:	a013a02f 	andsge	sl, r3, pc, lsr #32
     400:	332b3148 	teqcc	fp, #72, 2
     404:	4c832f4e 	stcmi	15, cr2, [r3], {78}	; 0x4e
     408:	322d2cbf 	eorcc	r2, sp, #48896	; 0xbf00
     40c:	032e0b03 	teqeq	lr, #3072	; 0xc00
     410:	83304a75 	teqhi	r0, #479232	; 0x75000
     414:	00302f83 	eorseq	r2, r0, r3, lsl #31
     418:	06010402 	streq	r0, [r1], -r2, lsl #8
     41c:	67300666 	ldrvs	r0, [r0, -r6, ror #12]!
     420:	9f3283bb 	svcls	0x003283bb
     424:	01040200 	mrseq	r0, R12_usr
     428:	032e6f03 	teqeq	lr, #3, 30
     42c:	d84b6615 	stmdale	fp, {r0, r2, r4, r9, sl, sp, lr}^
     430:	001202a0 	andseq	r0, r2, r0, lsr #5
     434:	01c80101 	biceq	r0, r8, r1, lsl #2
     438:	00020000 	andeq	r0, r2, r0
     43c:	000000f9 	strdeq	r0, [r0], -r9
     440:	0efb0102 	cdpeq	1, 15, cr0, cr11, cr2, {0}
     444:	0101000d 	tsteq	r1, sp
     448:	00000101 	andeq	r0, r0, r1, lsl #2
     44c:	00000100 	andeq	r0, r0, r0, lsl #2
     450:	73752f01 	cmnvc	r5, #1, 30
     454:	6f6c2f72 	svcvs	0x006c2f72
     458:	2f6c6163 	svccs	0x006c6163
     45c:	6c6c6543 	cfstr64vs	mvdx6, [ip], #-268	; 0xfffffef4
     460:	612f7261 	teqvs	pc, r1, ror #4
     464:	6e2d6d72 	mcrvs	13, 1, r6, cr13, cr2, {3}
     468:	2d656e6f 	stclcs	14, cr6, [r5, #-444]!	; 0xfffffe44
     46c:	69626165 	stmdbvs	r2!, {r0, r2, r5, r6, r8, sp, lr}^
     470:	382e342f 	stmdacc	lr!, {r0, r1, r2, r3, r5, sl, ip, sp}
     474:	632d332e 	teqvs	sp, #-1207959552	; 0xb8000000
     478:	30373173 	eorscc	r3, r7, r3, ror r1
     47c:	696c2f65 	stmdbvs	ip!, {r0, r2, r5, r6, r8, r9, sl, fp, sp}^
     480:	63672f62 	cmnvs	r7, #392	; 0x188
     484:	72612f63 	rsbvc	r2, r1, #396	; 0x18c
     488:	6f6e2d6d 	svcvs	0x006e2d6d
     48c:	652d656e 	strvs	r6, [sp, #-1390]!	; 0x56e
     490:	2f696261 	svccs	0x00696261
     494:	2e382e34 	mrccs	14, 1, r2, cr8, cr4, {1}
     498:	6e692f33 	mcrvs	15, 3, r2, cr9, cr3, {1}
     49c:	64756c63 	ldrbtvs	r6, [r5], #-3171	; 0xc63
     4a0:	552f0065 	strpl	r0, [pc, #-101]!	; 443 <_start-0x7bbd>
     4a4:	73726573 	cmnvc	r2, #482344960	; 0x1cc00000
     4a8:	6972622f 	ldmdbvs	r2!, {r0, r1, r2, r3, r5, r9, sp, lr}^
     4ac:	756a6e61 	strbvc	r6, [sl, #-3681]!	; 0xe61
     4b0:	65442f6e 	strbvs	r2, [r4, #-3950]	; 0xf6e
     4b4:	6f746b73 	svcvs	0x00746b73
     4b8:	63732f70 	cmnvs	r3, #112, 30	; 0x1c0
     4bc:	6c6f6f68 	stclvs	15, cr6, [pc], #-416	; 324 <_start-0x7cdc>
     4c0:	7270532f 	rsbsvc	r5, r0, #-1140850688	; 0xbc000000
     4c4:	31676e69 	cmncc	r7, r9, ror #28
     4c8:	2f303239 	svccs	0x00303239
     4cc:	34325343 	ldrtcc	r5, [r2], #-835	; 0x343
     4d0:	2f584c30 	svccs	0x00584c30
     4d4:	34327363 	ldrtcc	r7, [r2], #-867	; 0x363
     4d8:	2d786c30 	ldclcs	12, cr6, [r8, #-192]!	; 0xffffff40
     4dc:	70733032 	rsbsvc	r3, r3, r2, lsr r0
     4e0:	696c2f72 	stmdbvs	ip!, {r1, r4, r5, r6, r8, r9, sl, fp, sp}^
     4e4:	2f697062 	svccs	0x00697062
     4e8:	6c636e69 	stclvs	14, cr6, [r3], #-420	; 0xfffffe5c
     4ec:	00656475 	rsbeq	r6, r5, r5, ror r4
     4f0:	2d6b6300 	stclcs	3, cr6, [fp, #-0]
     4f4:	632e6367 	teqvs	lr, #-1677721599	; 0x9c000001
     4f8:	00000000 	andeq	r0, r0, r0
     4fc:	6c616b63 	stclvs	11, cr6, [r1], #-396	; 0xfffffe74
     500:	2d636f6c 	stclcs	15, cr6, [r3, #-432]!	; 0xfffffe50
     504:	65746e69 	ldrbvs	r6, [r4, #-3689]!	; 0xe69
     508:	6c616e72 	stclvs	14, cr6, [r1], #-456	; 0xfffffe38
     50c:	0000682e 	andeq	r6, r0, lr, lsr #16
     510:	74730000 	ldrbtvc	r0, [r3], #-0
     514:	746e6964 	strbtvc	r6, [lr], #-2404	; 0x964
     518:	6363672d 	cmnvs	r3, #11796480	; 0xb40000
     51c:	0100682e 	tsteq	r0, lr, lsr #16
     520:	70720000 	rsbsvc	r0, r2, r0
     524:	00682e69 	rsbeq	r2, r8, r9, ror #28
     528:	63000002 	movwvs	r0, #2
     52c:	6c6c616b 	stfvse	f6, [ip], #-428	; 0xfffffe54
     530:	682e636f 	stmdavs	lr!, {r0, r1, r2, r3, r5, r6, r8, r9, sp, lr}
     534:	00000000 	andeq	r0, r0, r0
     538:	02050000 	andeq	r0, r5, #0
     53c:	0000888c 	andeq	r8, r0, ip, lsl #17
     540:	13011a03 	movwne	r1, #6659	; 0x1a03
     544:	2e0a039f 	mcrcs	3, 0, r0, cr10, cr15, {4}
     548:	2f2f694d 	svccs	0x002f694d
     54c:	004e4967 	subeq	r4, lr, r7, ror #18
     550:	29010402 	stmdbcs	r1, {r1, sl}
     554:	2e0c0363 	cdpcs	3, 0, cr0, cr12, cr3, {3}
     558:	302e2403 	eorcc	r2, lr, r3, lsl #8
     55c:	032a4c4b 	teqeq	sl, #19200	; 0x4b00
     560:	2c2c2e09 	stccs	14, cr2, [ip], #-36	; 0xffffffdc
     564:	30304b2f 	eorscc	r4, r0, pc, lsr #22
     568:	0402002f 	streq	r0, [r2], #-47	; 0x2f
     56c:	2e790301 	cdpcs	3, 7, cr0, cr9, cr1, {0}
     570:	bc4a0a03 	mcrrlt	10, 0, r0, sl, cr3
     574:	51034c86 	smlabbpl	r3, r6, ip, r4
     578:	02002ff2 	andeq	r2, r0, #968	; 0x3c8
     57c:	4a060104 	bmi	180994 <__bss_end__+0x176194>
     580:	0200d806 	andeq	sp, r0, #393216	; 0x60000
     584:	66060104 	strvs	r0, [r6], -r4, lsl #2
     588:	0200d706 	andeq	sp, r0, #1572864	; 0x180000
     58c:	4a060104 	bmi	1809a4 <__bss_end__+0x1761a4>
     590:	4b4bda06 	blmi	12f6db0 <__bss_end__+0x12ec5b0>
     594:	02042f67 	andeq	r2, r4, #412	; 0x19c
     598:	042e1403 	strteq	r1, [lr], #-1027	; 0x403
     59c:	826c0301 	rsbhi	r0, ip, #67108864	; 0x4000000
     5a0:	0200a261 	andeq	sl, r0, #268435462	; 0x10000006
     5a4:	032a0104 	teqeq	sl, #4, 2
     5a8:	26034a0a 	strcs	r4, [r3], -sl, lsl #20
     5ac:	2d2f4dba 	stccs	13, cr4, [pc, #-744]!	; 2cc <_start-0x7d34>
     5b0:	02040200 	andeq	r0, r4, #0, 4
     5b4:	0402002f 	streq	r0, [r2], #-47	; 0x2f
     5b8:	02006502 	andeq	r6, r0, #8388608	; 0x800000
     5bc:	2e060104 	adfcss	f0, f6, f4
     5c0:	0a034f06 	beq	d41e0 <__bss_end__+0xc99e0>
     5c4:	0200674a 	andeq	r6, r0, #19398656	; 0x1280000
     5c8:	66060104 	strvs	r0, [r6], -r4, lsl #2
     5cc:	6a6cdb06 	bvs	1b371ec <__bss_end__+0x1b2c9ec>
     5d0:	38036769 	stmdacc	r3, {r0, r3, r5, r6, r8, r9, sl, sp, lr}
     5d4:	4b302008 	blmi	c085fc <__bss_end__+0xbfddfc>
     5d8:	084c034c 	stmdaeq	ip, {r2, r3, r6, r8, r9}^
     5dc:	4b2f4b74 	blmi	bd33b4 <__bss_end__+0xbc8bb4>
     5e0:	67133231 			; <UNDEFINED> instruction: 0x67133231
     5e4:	d88383d8 	stmle	r3, {r3, r4, r6, r7, r8, r9, pc}
     5e8:	1332f683 	teqne	r2, #137363456	; 0x8300000
     5ec:	4b84d867 	blmi	fe136790 <__bss_end__+0xfe12bf90>
     5f0:	149fd84b 	ldrne	sp, [pc], #2123	; 5f8 <_start-0x7a08>
     5f4:	032f2208 	teqeq	pc, #8, 4	; 0x80000000
     5f8:	2f3c0818 	svccs	0x003c0818
     5fc:	0002022f 	andeq	r0, r2, pc, lsr #4
     600:	00de0101 	sbcseq	r0, lr, r1, lsl #2
     604:	00020000 	andeq	r0, r2, r0
     608:	00000083 	andeq	r0, r0, r3, lsl #1
     60c:	0efb0102 	cdpeq	1, 15, cr0, cr11, cr2, {0}
     610:	0101000d 	tsteq	r1, sp
     614:	00000101 	andeq	r0, r0, r1, lsl #2
     618:	00000100 	andeq	r0, r0, r0, lsl #2
     61c:	62696c01 	rsbvs	r6, r9, #256	; 0x100
     620:	752f0063 	strvc	r0, [pc, #-99]!	; 5c5 <_start-0x7a3b>
     624:	6c2f7273 	sfmvs	f7, 4, [pc], #-460	; 460 <_start-0x7ba0>
     628:	6c61636f 	stclvs	3, cr6, [r1], #-444	; 0xfffffe44
     62c:	6c65432f 	stclvs	3, cr4, [r5], #-188	; 0xffffff44
     630:	2f72616c 	svccs	0x0072616c
     634:	2d6d7261 	sfmcs	f7, 2, [sp, #-388]!	; 0xfffffe7c
     638:	656e6f6e 	strbvs	r6, [lr, #-3950]!	; 0xf6e
     63c:	6261652d 	rsbvs	r6, r1, #188743680	; 0xb400000
     640:	2e342f69 	cdpcs	15, 3, cr2, cr4, cr9, {3}
     644:	2d332e38 	ldccs	14, cr2, [r3, #-224]!	; 0xffffff20
     648:	37317363 	ldrcc	r7, [r1, -r3, ror #6]!
     64c:	6c2f6530 	cfstr32vs	mvfx6, [pc], #-192	; 594 <_start-0x7a6c>
     650:	672f6269 	strvs	r6, [pc, -r9, ror #4]!
     654:	612f6363 	teqvs	pc, r3, ror #6
     658:	6e2d6d72 	mcrvs	13, 1, r6, cr13, cr2, {3}
     65c:	2d656e6f 	stclcs	14, cr6, [r5, #-444]!	; 0xfffffe44
     660:	69626165 	stmdbvs	r2!, {r0, r2, r5, r6, r8, sp, lr}^
     664:	382e342f 	stmdacc	lr!, {r0, r1, r2, r3, r5, sl, ip, sp}
     668:	692f332e 	stmdbvs	pc!, {r1, r2, r3, r5, r8, r9, ip, sp}	; <UNPREDICTABLE>
     66c:	756c636e 	strbvc	r6, [ip, #-878]!	; 0x36e
     670:	00006564 	andeq	r6, r0, r4, ror #10
     674:	68736168 	ldmdavs	r3!, {r3, r5, r6, r8, sp, lr}^
     678:	0100632e 	tsteq	r0, lr, lsr #6
     67c:	74730000 	ldrbtvc	r0, [r3], #-0
     680:	746e6964 	strbtvc	r6, [lr], #-2404	; 0x964
     684:	6363672d 	cmnvs	r3, #11796480	; 0xb40000
     688:	0200682e 	andeq	r6, r0, #3014656	; 0x2e0000
     68c:	00000000 	andeq	r0, r0, r0
     690:	8d440205 	sfmhi	f0, 2, [r4, #-20]	; 0xffffffec
     694:	0e030000 	cdpeq	0, 0, cr0, cr3, cr0, {0}
     698:	84313001 	ldrthi	r3, [r1], #-1
     69c:	0200312f 	andeq	r3, r0, #-1073741813	; 0xc000000b
     6a0:	002f0204 	eoreq	r0, pc, r4, lsl #4
     6a4:	83020402 	movwhi	r0, #9218	; 0x2402
     6a8:	02040200 	andeq	r0, r4, #0, 4
     6ac:	04020083 	streq	r0, [r2], #-131	; 0x83
     6b0:	02002f02 	andeq	r2, r0, #2, 30
     6b4:	002f0204 	eoreq	r0, pc, r4, lsl #4
     6b8:	29020402 	stmdbcs	r2, {r1, sl}
     6bc:	01040200 	mrseq	r0, R12_usr
     6c0:	03062e06 	movweq	r2, #28166	; 0x6e06
     6c4:	83d74a09 	bicshi	r4, r7, #36864	; 0x9000
     6c8:	2f2f4b2f 	svccs	0x002f4b2f
     6cc:	2f2f2f83 	svccs	0x002f2f83
     6d0:	2f322f4b 	svccs	0x00322f4b
     6d4:	2f2f2f2f 	svccs	0x002f2f2f
     6d8:	2e5a0330 	mrccs	3, 2, r0, cr10, cr0, {1}
     6dc:	022e2703 	eoreq	r2, lr, #786432	; 0xc0000
     6e0:	01010004 	tsteq	r1, r4
     6e4:	000000ec 	andeq	r0, r0, ip, ror #1
     6e8:	00d00002 	sbcseq	r0, r0, r2
     6ec:	01020000 	mrseq	r0, (UNDEF: 2)
     6f0:	000d0efb 	strdeq	r0, [sp], -fp
     6f4:	01010101 	tsteq	r1, r1, lsl #2
     6f8:	01000000 	mrseq	r0, (UNDEF: 0)
     6fc:	6c010000 	stcvs	0, cr0, [r1], {-0}
     700:	00636269 	rsbeq	r6, r3, r9, ror #4
     704:	7273752f 	rsbsvc	r7, r3, #197132288	; 0xbc00000
     708:	636f6c2f 	cmnvs	pc, #12032	; 0x2f00
     70c:	432f6c61 	teqmi	pc, #24832	; 0x6100
     710:	616c6c65 	cmnvs	ip, r5, ror #24
     714:	72612f72 	rsbvc	r2, r1, #456	; 0x1c8
     718:	6f6e2d6d 	svcvs	0x006e2d6d
     71c:	652d656e 	strvs	r6, [sp, #-1390]!	; 0x56e
     720:	2f696261 	svccs	0x00696261
     724:	2e382e34 	mrccs	14, 1, r2, cr8, cr4, {1}
     728:	73632d33 	cmnvc	r3, #3264	; 0xcc0
     72c:	65303731 	ldrvs	r3, [r0, #-1841]!	; 0x731
     730:	62696c2f 	rsbvs	r6, r9, #12032	; 0x2f00
     734:	6363672f 	cmnvs	r3, #12320768	; 0xbc0000
     738:	6d72612f 	ldfvse	f6, [r2, #-188]!	; 0xffffff44
     73c:	6e6f6e2d 	cdpvs	14, 6, cr6, cr15, cr13, {1}
     740:	61652d65 	cmnvs	r5, r5, ror #26
     744:	342f6962 	strtcc	r6, [pc], #-2402	; 74c <_start-0x78b4>
     748:	332e382e 	teqcc	lr, #3014656	; 0x2e0000
     74c:	636e692f 	cmnvs	lr, #770048	; 0xbc000
     750:	6564756c 	strbvs	r7, [r4, #-1388]!	; 0x56c
     754:	73752f00 	cmnvc	r5, #0, 30
     758:	6f6c2f72 	svcvs	0x006c2f72
     75c:	2f6c6163 	svccs	0x006c6163
     760:	6c6c6543 	cfstr64vs	mvdx6, [ip], #-268	; 0xfffffef4
     764:	612f7261 	teqvs	pc, r1, ror #4
     768:	6e2d6d72 	mcrvs	13, 1, r6, cr13, cr2, {3}
     76c:	2d656e6f 	stclcs	14, cr6, [r5, #-444]!	; 0xfffffe44
     770:	69626165 	stmdbvs	r2!, {r0, r2, r5, r6, r8, sp, lr}^
     774:	382e342f 	stmdacc	lr!, {r0, r1, r2, r3, r5, sl, ip, sp}
     778:	632d332e 	teqvs	sp, #-1207959552	; 0xb8000000
     77c:	30373173 	eorscc	r3, r7, r3, ror r1
     780:	72612f65 	rsbvc	r2, r1, #404	; 0x194
     784:	6f6e2d6d 	svcvs	0x006e2d6d
     788:	652d656e 	strvs	r6, [sp, #-1390]!	; 0x56e
     78c:	2f696261 	svccs	0x00696261
     790:	6c636e69 	stclvs	14, cr6, [r3], #-420	; 0xfffffe5c
     794:	00656475 	rsbeq	r6, r5, r5, ror r4
     798:	6d656d00 	stclvs	13, cr6, [r5, #-0]
     79c:	2e746573 	mrccs	5, 3, r6, cr4, cr3, {3}
     7a0:	00010063 	andeq	r0, r1, r3, rrx
     7a4:	64747300 	ldrbtvs	r7, [r4], #-768	; 0x300
     7a8:	2e666564 	cdpcs	5, 6, cr6, cr6, cr4, {3}
     7ac:	00020068 	andeq	r0, r2, r8, rrx
     7b0:	72747300 	rsbsvc	r7, r4, #0, 6
     7b4:	2e676e69 	cdpcs	14, 6, cr6, cr7, cr9, {3}
     7b8:	00030068 	andeq	r0, r3, r8, rrx
     7bc:	05000000 	streq	r0, [r0, #-0]
     7c0:	008e3402 	addeq	r3, lr, r2, lsl #8
     7c4:	4c131400 	cfldrsmi	mvf1, [r3], {-0}
     7c8:	0402002f 	streq	r0, [r2], #-47	; 0x2f
     7cc:	024d4901 	subeq	r4, sp, #16384	; 0x4000
     7d0:	01010002 	tsteq	r1, r2
     7d4:	0000010c 	andeq	r0, r0, ip, lsl #2
     7d8:	00f50002 	rscseq	r0, r5, r2
     7dc:	01020000 	mrseq	r0, (UNDEF: 2)
     7e0:	000d0efb 	strdeq	r0, [sp], -fp
     7e4:	01010101 	tsteq	r1, r1, lsl #2
     7e8:	01000000 	mrseq	r0, (UNDEF: 0)
     7ec:	6c010000 	stcvs	0, cr0, [r1], {-0}
     7f0:	00636269 	rsbeq	r6, r3, r9, ror #4
     7f4:	7273752f 	rsbsvc	r7, r3, #197132288	; 0xbc00000
     7f8:	636f6c2f 	cmnvs	pc, #12032	; 0x2f00
     7fc:	432f6c61 	teqmi	pc, #24832	; 0x6100
     800:	616c6c65 	cmnvs	ip, r5, ror #24
     804:	72612f72 	rsbvc	r2, r1, #456	; 0x1c8
     808:	6f6e2d6d 	svcvs	0x006e2d6d
     80c:	652d656e 	strvs	r6, [sp, #-1390]!	; 0x56e
     810:	2f696261 	svccs	0x00696261
     814:	2e382e34 	mrccs	14, 1, r2, cr8, cr4, {1}
     818:	73632d33 	cmnvc	r3, #3264	; 0xcc0
     81c:	65303731 	ldrvs	r3, [r0, #-1841]!	; 0x731
     820:	62696c2f 	rsbvs	r6, r9, #12032	; 0x2f00
     824:	6363672f 	cmnvs	r3, #12320768	; 0xbc0000
     828:	6d72612f 	ldfvse	f6, [r2, #-188]!	; 0xffffff44
     82c:	6e6f6e2d 	cdpvs	14, 6, cr6, cr15, cr13, {1}
     830:	61652d65 	cmnvs	r5, r5, ror #26
     834:	342f6962 	strtcc	r6, [pc], #-2402	; 83c <_start-0x77c4>
     838:	332e382e 	teqcc	lr, #3014656	; 0x2e0000
     83c:	636e692f 	cmnvs	lr, #770048	; 0xbc000
     840:	6564756c 	strbvs	r7, [r4, #-1388]!	; 0x56c
     844:	73552f00 	cmpvc	r5, #0, 30
     848:	2f737265 	svccs	0x00737265
     84c:	61697262 	cmnvs	r9, r2, ror #4
     850:	6e756a6e 	vsubvs.f32	s13, s10, s29
     854:	7365442f 	cmnvc	r5, #788529152	; 0x2f000000
     858:	706f746b 	rsbvc	r7, pc, fp, ror #8
     85c:	6863732f 	stmdavs	r3!, {r0, r1, r2, r3, r5, r8, r9, ip, sp, lr}^
     860:	2f6c6f6f 	svccs	0x006c6f6f
     864:	69727053 	ldmdbvs	r2!, {r0, r1, r4, r6, ip, sp, lr}^
     868:	3931676e 	ldmdbcc	r1!, {r1, r2, r3, r5, r6, r8, r9, sl, sp, lr}
     86c:	432f3032 	teqmi	pc, #50	; 0x32
     870:	30343253 	eorscc	r3, r4, r3, asr r2
     874:	632f584c 	teqvs	pc, #76, 16	; 0x4c0000
     878:	30343273 	eorscc	r3, r4, r3, ror r2
     87c:	322d786c 	eorcc	r7, sp, #108, 16	; 0x6c0000
     880:	72707330 	rsbsvc	r7, r0, #48, 6	; 0xc0000000
     884:	62696c2f 	rsbvs	r6, r9, #12032	; 0x2f00
     888:	692f6970 	stmdbvs	pc!, {r4, r5, r6, r8, fp, sp, lr}	; <UNPREDICTABLE>
     88c:	756c636e 	strbvc	r6, [ip, #-878]!	; 0x36e
     890:	00006564 	andeq	r6, r0, r4, ror #10
     894:	6e697270 	mcrvs	2, 3, r7, cr9, cr0, {3}
     898:	632e6b74 	teqvs	lr, #116, 22	; 0x1d000
     89c:	00000100 	andeq	r0, r0, r0, lsl #2
     8a0:	61647473 	smcvs	18243	; 0x4743
     8a4:	682e6772 	stmdavs	lr!, {r1, r4, r5, r6, r8, r9, sl, sp, lr}
     8a8:	00000200 	andeq	r0, r0, r0, lsl #4
     8ac:	6975623c 	ldmdbvs	r5!, {r2, r3, r4, r5, r9, sp, lr}^
     8b0:	692d746c 	pushvs	{r2, r3, r5, r6, sl, ip, sp, lr}
     8b4:	00003e6e 	andeq	r3, r0, lr, ror #28
     8b8:	70720000 	rsbsvc	r0, r2, r0
     8bc:	00682e69 	rsbeq	r2, r8, r9, ror #28
     8c0:	76000003 	strvc	r0, [r0], -r3
     8c4:	72702d61 	rsbsvc	r2, r0, #6208	; 0x1840
     8c8:	6b746e69 	blvs	1d1c274 <__bss_end__+0x1d11a74>
     8cc:	0100682e 	tsteq	r0, lr, lsr #16
     8d0:	00000000 	andeq	r0, r0, r0
     8d4:	8e540205 	cdphi	2, 5, cr0, cr4, cr5, {0}
     8d8:	6b170000 	blvs	5c08e0 <__bss_end__+0x5b60e0>
     8dc:	0289bf4b 	addeq	fp, r9, #300	; 0x12c
     8e0:	0101000e 	tsteq	r1, lr
     8e4:	00000094 	muleq	r0, r4, r0
     8e8:	007c0002 	rsbseq	r0, ip, r2
     8ec:	01020000 	mrseq	r0, (UNDEF: 2)
     8f0:	000d0efb 	strdeq	r0, [sp], -fp
     8f4:	01010101 	tsteq	r1, r1, lsl #2
     8f8:	01000000 	mrseq	r0, (UNDEF: 0)
     8fc:	6c010000 	stcvs	0, cr0, [r1], {-0}
     900:	00636269 	rsbeq	r6, r3, r9, ror #4
     904:	6573552f 	ldrbvs	r5, [r3, #-1327]!	; 0x52f
     908:	622f7372 	eorvs	r7, pc, #-939524095	; 0xc8000001
     90c:	6e616972 	mcrvs	9, 3, r6, cr1, cr2, {3}
     910:	2f6e756a 	svccs	0x006e756a
     914:	6b736544 	blvs	1cd9e2c <__bss_end__+0x1ccf62c>
     918:	2f706f74 	svccs	0x00706f74
     91c:	6f686373 	svcvs	0x00686373
     920:	532f6c6f 	teqpl	pc, #28416	; 0x6f00
     924:	6e697270 	mcrvs	2, 3, r7, cr9, cr0, {3}
     928:	32393167 	eorscc	r3, r9, #-1073741799	; 0xc0000019
     92c:	53432f30 	movtpl	r2, #16176	; 0x3f30
     930:	4c303432 	cfldrsmi	mvf3, [r0], #-200	; 0xffffff38
     934:	73632f58 	cmnvc	r3, #88, 30	; 0x160
     938:	6c303432 	cfldrsvs	mvf3, [r0], #-200	; 0xffffff38
     93c:	30322d78 	eorscc	r2, r2, r8, ror sp
     940:	2f727073 	svccs	0x00727073
     944:	7062696c 	rsbvc	r6, r2, ip, ror #18
     948:	6e692f69 	cdpvs	15, 6, cr2, cr9, cr9, {3}
     94c:	64756c63 	ldrbtvs	r6, [r5], #-3171	; 0xc63
     950:	70000065 	andvc	r0, r0, r5, rrx
     954:	68637475 	stmdavs	r3!, {r0, r2, r4, r5, r6, sl, ip, sp, lr}^
     958:	632e7261 	teqvs	lr, #268435462	; 0x10000006
     95c:	00000100 	andeq	r0, r0, r0, lsl #2
     960:	2e697072 	mcrcs	0, 3, r7, cr9, cr2, {3}
     964:	00020068 	andeq	r0, r2, r8, rrx
     968:	05000000 	streq	r0, [r0, #-0]
     96c:	008eac02 	addeq	sl, lr, r2, lsl #24
     970:	6b4a1400 	blvs	1285978 <__bss_end__+0x127b178>
     974:	0213bc13 	andseq	fp, r3, #4864	; 0x1300
     978:	01010008 	tsteq	r1, r8
     97c:	000000a0 	andeq	r0, r0, r0, lsr #1
     980:	00790002 	rsbseq	r0, r9, r2
     984:	01020000 	mrseq	r0, (UNDEF: 2)
     988:	000d0efb 	strdeq	r0, [sp], -fp
     98c:	01010101 	tsteq	r1, r1, lsl #2
     990:	01000000 	mrseq	r0, (UNDEF: 0)
     994:	6c010000 	stcvs	0, cr0, [r1], {-0}
     998:	00636269 	rsbeq	r6, r3, r9, ror #4
     99c:	6573552f 	ldrbvs	r5, [r3, #-1327]!	; 0x52f
     9a0:	622f7372 	eorvs	r7, pc, #-939524095	; 0xc8000001
     9a4:	6e616972 	mcrvs	9, 3, r6, cr1, cr2, {3}
     9a8:	2f6e756a 	svccs	0x006e756a
     9ac:	6b736544 	blvs	1cd9ec4 <__bss_end__+0x1ccf6c4>
     9b0:	2f706f74 	svccs	0x00706f74
     9b4:	6f686373 	svcvs	0x00686373
     9b8:	532f6c6f 	teqpl	pc, #28416	; 0x6f00
     9bc:	6e697270 	mcrvs	2, 3, r7, cr9, cr0, {3}
     9c0:	32393167 	eorscc	r3, r9, #-1073741799	; 0xc0000019
     9c4:	53432f30 	movtpl	r2, #16176	; 0x3f30
     9c8:	4c303432 	cfldrsmi	mvf3, [r0], #-200	; 0xffffff38
     9cc:	73632f58 	cmnvc	r3, #88, 30	; 0x160
     9d0:	6c303432 	cfldrsvs	mvf3, [r0], #-200	; 0xffffff38
     9d4:	30322d78 	eorscc	r2, r2, r8, ror sp
     9d8:	2f727073 	svccs	0x00727073
     9dc:	7062696c 	rsbvc	r6, r2, ip, ror #18
     9e0:	6e692f69 	cdpvs	15, 6, cr2, cr9, cr9, {3}
     9e4:	64756c63 	ldrbtvs	r6, [r5], #-3171	; 0xc63
     9e8:	70000065 	andvc	r0, r0, r5, rrx
     9ec:	2e6b7475 	mcrcs	4, 3, r7, cr11, cr5, {3}
     9f0:	00010063 	andeq	r0, r1, r3, rrx
     9f4:	69707200 	ldmdbvs	r0!, {r9, ip, sp, lr}^
     9f8:	0200682e 	andeq	r6, r0, #3014656	; 0x2e0000
     9fc:	00000000 	andeq	r0, r0, r0
     a00:	8ee80205 	cdphi	2, 14, cr0, cr8, cr5, {0}
     a04:	4c150000 	ldcmi	0, cr0, [r5], {-0}
     a08:	0402002d 	streq	r0, [r2], #-45	; 0x2d
     a0c:	02002f02 	andeq	r2, r0, #2, 30
     a10:	00490204 	subeq	r0, r9, r4, lsl #4
     a14:	06010402 	streq	r0, [r1], -r2, lsl #8
     a18:	026b062e 	rsbeq	r0, fp, #48234496	; 0x2e00000
     a1c:	01010006 	tsteq	r1, r6
     a20:	000001eb 	andeq	r0, r0, fp, ror #3
     a24:	00e90002 	rsceq	r0, r9, r2
     a28:	01020000 	mrseq	r0, (UNDEF: 2)
     a2c:	000d0efb 	strdeq	r0, [sp], -fp
     a30:	01010101 	tsteq	r1, r1, lsl #2
     a34:	01000000 	mrseq	r0, (UNDEF: 0)
     a38:	6c010000 	stcvs	0, cr0, [r1], {-0}
     a3c:	00636269 	rsbeq	r6, r3, r9, ror #4
     a40:	7273752f 	rsbsvc	r7, r3, #197132288	; 0xbc00000
     a44:	636f6c2f 	cmnvs	pc, #12032	; 0x2f00
     a48:	432f6c61 	teqmi	pc, #24832	; 0x6100
     a4c:	616c6c65 	cmnvs	ip, r5, ror #24
     a50:	72612f72 	rsbvc	r2, r1, #456	; 0x1c8
     a54:	6f6e2d6d 	svcvs	0x006e2d6d
     a58:	652d656e 	strvs	r6, [sp, #-1390]!	; 0x56e
     a5c:	2f696261 	svccs	0x00696261
     a60:	2e382e34 	mrccs	14, 1, r2, cr8, cr4, {1}
     a64:	73632d33 	cmnvc	r3, #3264	; 0xcc0
     a68:	65303731 	ldrvs	r3, [r0, #-1841]!	; 0x731
     a6c:	62696c2f 	rsbvs	r6, r9, #12032	; 0x2f00
     a70:	6363672f 	cmnvs	r3, #12320768	; 0xbc0000
     a74:	6d72612f 	ldfvse	f6, [r2, #-188]!	; 0xffffff44
     a78:	6e6f6e2d 	cdpvs	14, 6, cr6, cr15, cr13, {1}
     a7c:	61652d65 	cmnvs	r5, r5, ror #26
     a80:	342f6962 	strtcc	r6, [pc], #-2402	; a88 <_start-0x7578>
     a84:	332e382e 	teqcc	lr, #3014656	; 0x2e0000
     a88:	636e692f 	cmnvs	lr, #770048	; 0xbc000
     a8c:	6564756c 	strbvs	r7, [r4, #-1388]!	; 0x56c
     a90:	73552f00 	cmpvc	r5, #0, 30
     a94:	2f737265 	svccs	0x00737265
     a98:	61697262 	cmnvs	r9, r2, ror #4
     a9c:	6e756a6e 	vsubvs.f32	s13, s10, s29
     aa0:	7365442f 	cmnvc	r5, #788529152	; 0x2f000000
     aa4:	706f746b 	rsbvc	r7, pc, fp, ror #8
     aa8:	6863732f 	stmdavs	r3!, {r0, r1, r2, r3, r5, r8, r9, ip, sp, lr}^
     aac:	2f6c6f6f 	svccs	0x006c6f6f
     ab0:	69727053 	ldmdbvs	r2!, {r0, r1, r4, r6, ip, sp, lr}^
     ab4:	3931676e 	ldmdbcc	r1!, {r1, r2, r3, r5, r6, r8, r9, sl, sp, lr}
     ab8:	432f3032 	teqmi	pc, #50	; 0x32
     abc:	30343253 	eorscc	r3, r4, r3, asr r2
     ac0:	632f584c 	teqvs	pc, #76, 16	; 0x4c0000
     ac4:	30343273 	eorscc	r3, r4, r3, ror r2
     ac8:	322d786c 	eorcc	r7, sp, #108, 16	; 0x6c0000
     acc:	72707330 	rsbsvc	r7, r0, #48, 6	; 0xc0000000
     ad0:	62696c2f 	rsbvs	r6, r9, #12032	; 0x2f00
     ad4:	692f6970 	stmdbvs	pc!, {r4, r5, r6, r8, fp, sp, lr}	; <UNPREDICTABLE>
     ad8:	756c636e 	strbvc	r6, [ip, #-878]!	; 0x36e
     adc:	00006564 	andeq	r6, r0, r4, ror #10
     ae0:	702d6176 	eorvc	r6, sp, r6, ror r1
     ae4:	746e6972 	strbtvc	r6, [lr], #-2418	; 0x972
     ae8:	00632e6b 	rsbeq	r2, r3, fp, ror #28
     aec:	73000001 	movwvc	r0, #1
     af0:	72616474 	rsbvc	r6, r1, #116, 8	; 0x74000000
     af4:	00682e67 	rsbeq	r2, r8, r7, ror #28
     af8:	72000002 	andvc	r0, r0, #2
     afc:	682e6970 	stmdavs	lr!, {r4, r5, r6, r8, fp, sp, lr}
     b00:	00000300 	andeq	r0, r0, r0, lsl #6
     b04:	6975623c 	ldmdbvs	r5!, {r2, r3, r4, r5, r9, sp, lr}^
     b08:	692d746c 	pushvs	{r2, r3, r5, r6, sl, ip, sp, lr}
     b0c:	00003e6e 	andeq	r3, r0, lr, ror #28
     b10:	00000000 	andeq	r0, r0, r0
     b14:	8f1c0205 	svchi	0x001c0205
     b18:	26030000 	strcs	r0, [r3], -r0
     b1c:	13a50101 			; <UNDEFINED> instruction: 0x13a50101
     b20:	02002d31 	andeq	r2, r0, #3136	; 0xc40
     b24:	002f0204 	eoreq	r0, pc, r4, lsl #4
     b28:	2d020402 	cfstrscs	mvf0, [r2, #-8]
     b2c:	02040200 	andeq	r0, r4, #0, 4
     b30:	0402002f 	streq	r0, [r2], #-47	; 0x2f
     b34:	4c4c2d01 	mcrrmi	13, 0, r2, ip, cr1
     b38:	2f4b1430 	svccs	0x004b1430
     b3c:	0402004f 	streq	r0, [r2], #-79	; 0x4f
     b40:	02006702 	andeq	r6, r0, #524288	; 0x80000
     b44:	4c650104 	stfmie	f0, [r5], #-16
     b48:	2fa0304d 	svccs	0x00a0304d
     b4c:	26023031 			; <UNDEFINED> instruction: 0x26023031
     b50:	2c2d8416 	cfstrscs	mvf8, [sp], #-88	; 0xffffffa8
     b54:	01040200 	mrseq	r0, R12_usr
     b58:	04020030 	streq	r0, [r2], #-48	; 0x30
     b5c:	66063301 	strvs	r3, [r6], -r1, lsl #6
     b60:	01040200 	mrseq	r0, R12_usr
     b64:	0402002e 	streq	r0, [r2], #-46	; 0x2e
     b68:	21080601 	tstcs	r8, r1, lsl #12
     b6c:	73032f67 	movwvc	r2, #16231	; 0x3f67
     b70:	2e130382 	cdpcs	3, 1, cr0, cr3, cr2, {4}
     b74:	01040200 	mrseq	r0, R12_usr
     b78:	02006606 	andeq	r6, r0, #6291456	; 0x600000
     b7c:	83060104 	movwhi	r0, #24836	; 0x6104
     b80:	31674b4b 	cmncc	r7, fp, asr #22
     b84:	2e65034b 	cdpcs	3, 6, cr0, cr5, cr11, {2}
     b88:	002e2303 	eoreq	r2, lr, r3, lsl #6
     b8c:	06010402 	streq	r0, [r1], -r2, lsl #8
     b90:	0402002e 	streq	r0, [r2], #-46	; 0x2e
     b94:	009f0601 	addseq	r0, pc, r1, lsl #12
     b98:	6a010402 	bvs	41ba8 <__bss_end__+0x373a8>
     b9c:	a403d7d9 	strge	sp, [r3], #-2009	; 0x7d9
     ba0:	2f20087f 	svccs	0x0020087f
     ba4:	01040200 	mrseq	r0, R12_usr
     ba8:	d7064a06 	strle	r4, [r6, -r6, lsl #20]
     bac:	dc032f4b 	stcle	15, cr2, [r3], {75}	; 0x4b
     bb0:	4c83f200 	sfmmi	f7, 1, [r3], {0}
     bb4:	2e0e0348 	cdpcs	3, 0, cr0, cr14, cr8, {2}
     bb8:	2f2e7503 	svccs	0x002e7503
     bbc:	2f4b842f 	svccs	0x004b842f
     bc0:	30314d2d 	eorscc	r4, r1, sp, lsr #26
     bc4:	0200832f 	andeq	r8, r0, #-1140850688	; 0xbc000000
     bc8:	a22c0104 	eorge	r0, ip, #4, 2
     bcc:	01040200 	mrseq	r0, R12_usr
     bd0:	d8064a06 	stmdale	r6, {r1, r2, r9, fp, lr}
     bd4:	03163602 	tsteq	r6, #2097152	; 0x200000
     bd8:	2108d60e 	tstcs	r8, lr, lsl #12
     bdc:	f331f330 	vcge.u<illegal width 64>	d15, d1, d16
     be0:	4b30f330 	blmi	c3d8a8 <__bss_end__+0xc330a8>
     be4:	0830f330 	ldmdaeq	r0!, {r4, r5, r8, r9, ip, sp, lr, pc}
     be8:	002f3123 	eoreq	r3, pc, r3, lsr #2
     bec:	65010402 	strvs	r0, [r1, #-1026]	; 0x402
     bf0:	02040200 	andeq	r0, r4, #0, 4
     bf4:	02004a06 	andeq	r4, r0, #24576	; 0x6000
     bf8:	03060104 	movweq	r0, #24836	; 0x6104
     bfc:	02006642 	andeq	r6, r0, #69206016	; 0x4200000
     c00:	66060204 	strvs	r0, [r6], -r4, lsl #4
     c04:	00c20306 	sbceq	r0, r2, r6, lsl #6
     c08:	1002684a 	andne	r6, r2, sl, asr #16
     c0c:	9c010100 	stflss	f0, [r1], {-0}
     c10:	02000000 	andeq	r0, r0, #0
     c14:	00008600 	andeq	r8, r0, r0, lsl #12
     c18:	fb010200 	blx	41422 <__bss_end__+0x36c22>
     c1c:	01000d0e 	tsteq	r0, lr, lsl #26
     c20:	00010101 	andeq	r0, r1, r1, lsl #2
     c24:	00010000 	andeq	r0, r1, r0
     c28:	74730100 	ldrbtvc	r0, [r3], #-256	; 0x100
     c2c:	2d666661 	stclcs	6, cr6, [r6, #-388]!	; 0xfffffe7c
     c30:	00637273 	rsbeq	r7, r3, r3, ror r2
     c34:	6573552f 	ldrbvs	r5, [r3, #-1327]!	; 0x52f
     c38:	622f7372 	eorvs	r7, pc, #-939524095	; 0xc8000001
     c3c:	6e616972 	mcrvs	9, 3, r6, cr1, cr2, {3}
     c40:	2f6e756a 	svccs	0x006e756a
     c44:	6b736544 	blvs	1cda15c <__bss_end__+0x1ccf95c>
     c48:	2f706f74 	svccs	0x00706f74
     c4c:	6f686373 	svcvs	0x00686373
     c50:	532f6c6f 	teqpl	pc, #28416	; 0x6f00
     c54:	6e697270 	mcrvs	2, 3, r7, cr9, cr0, {3}
     c58:	32393167 	eorscc	r3, r9, #-1073741799	; 0xc0000019
     c5c:	53432f30 	movtpl	r2, #16176	; 0x3f30
     c60:	4c303432 	cfldrsmi	mvf3, [r0], #-200	; 0xffffff38
     c64:	73632f58 	cmnvc	r3, #88, 30	; 0x160
     c68:	6c303432 	cfldrsvs	mvf3, [r0], #-200	; 0xffffff38
     c6c:	30322d78 	eorscc	r2, r2, r8, ror sp
     c70:	2f727073 	svccs	0x00727073
     c74:	7062696c 	rsbvc	r6, r2, ip, ror #18
     c78:	6e692f69 	cdpvs	15, 6, cr2, cr9, cr9, {3}
     c7c:	64756c63 	ldrbtvs	r6, [r5], #-3171	; 0xc63
     c80:	63000065 	movwvs	r0, #101	; 0x65
     c84:	6e61656c 	cdpvs	5, 6, cr6, cr1, cr12, {3}
     c88:	6265722d 	rsbvs	r7, r5, #-805306366	; 0xd0000002
     c8c:	2e746f6f 	cdpcs	15, 7, cr6, cr4, cr15, {3}
     c90:	00010063 	andeq	r0, r1, r3, rrx
     c94:	69707200 	ldmdbvs	r0!, {r9, ip, sp, lr}^
     c98:	0200682e 	andeq	r6, r0, #3014656	; 0x2e0000
     c9c:	00000000 	andeq	r0, r0, r0
     ca0:	94280205 	strtls	r0, [r8], #-517	; 0x205
     ca4:	2f150000 	svccs	0x00150000
     ca8:	06024b83 	streq	r4, [r2], -r3, lsl #23
     cac:	a3010100 	movwge	r0, #4352	; 0x1100
     cb0:	02000000 	andeq	r0, r0, #0
     cb4:	00008000 	andeq	r8, r0, r0
     cb8:	fb010200 	blx	414c2 <__bss_end__+0x36cc2>
     cbc:	01000d0e 	tsteq	r0, lr, lsl #26
     cc0:	00010101 	andeq	r0, r1, r1, lsl #2
     cc4:	00010000 	andeq	r0, r1, r0
     cc8:	74730100 	ldrbtvc	r0, [r3], #-256	; 0x100
     ccc:	2d666661 	stclcs	6, cr6, [r6, #-388]!	; 0xfffffe7c
     cd0:	00637273 	rsbeq	r7, r3, r3, ror r2
     cd4:	6573552f 	ldrbvs	r5, [r3, #-1327]!	; 0x52f
     cd8:	622f7372 	eorvs	r7, pc, #-939524095	; 0xc8000001
     cdc:	6e616972 	mcrvs	9, 3, r6, cr1, cr2, {3}
     ce0:	2f6e756a 	svccs	0x006e756a
     ce4:	6b736544 	blvs	1cda1fc <__bss_end__+0x1ccf9fc>
     ce8:	2f706f74 	svccs	0x00706f74
     cec:	6f686373 	svcvs	0x00686373
     cf0:	532f6c6f 	teqpl	pc, #28416	; 0x6f00
     cf4:	6e697270 	mcrvs	2, 3, r7, cr9, cr0, {3}
     cf8:	32393167 	eorscc	r3, r9, #-1073741799	; 0xc0000019
     cfc:	53432f30 	movtpl	r2, #16176	; 0x3f30
     d00:	4c303432 	cfldrsmi	mvf3, [r0], #-200	; 0xffffff38
     d04:	73632f58 	cmnvc	r3, #88, 30	; 0x160
     d08:	6c303432 	cfldrsvs	mvf3, [r0], #-200	; 0xffffff38
     d0c:	30322d78 	eorscc	r2, r2, r8, ror sp
     d10:	2f727073 	svccs	0x00727073
     d14:	7062696c 	rsbvc	r6, r2, ip, ror #18
     d18:	6e692f69 	cdpvs	15, 6, cr2, cr9, cr9, {3}
     d1c:	64756c63 	ldrbtvs	r6, [r5], #-3171	; 0xc63
     d20:	63000065 	movwvs	r0, #101	; 0x65
     d24:	72617473 	rsbvc	r7, r1, #1929379840	; 0x73000000
     d28:	00632e74 	rsbeq	r2, r3, r4, ror lr
     d2c:	72000001 	andvc	r0, r0, #1
     d30:	682e6970 	stmdavs	lr!, {r4, r5, r6, r8, fp, sp, lr}
     d34:	00000200 	andeq	r0, r0, r0, lsl #4
     d38:	02050000 	andeq	r0, r5, #0
     d3c:	00009450 	andeq	r9, r0, r0, asr r4
     d40:	32010c03 	andcc	r0, r1, #768	; 0x300
     d44:	2f2d2f31 	svccs	0x002d2f31
     d48:	01040200 	mrseq	r0, R12_usr
     d4c:	4a150349 	bmi	541a78 <__bss_end__+0x537278>
     d50:	0006022f 	andeq	r0, r6, pc, lsr #4
     d54:	00a20101 	adceq	r0, r2, r1, lsl #2
     d58:	00020000 	andeq	r0, r2, r0
     d5c:	00000080 	andeq	r0, r0, r0, lsl #1
     d60:	0efb0102 	cdpeq	1, 15, cr0, cr11, cr2, {0}
     d64:	0101000d 	tsteq	r1, sp
     d68:	00000101 	andeq	r0, r0, r1, lsl #2
     d6c:	00000100 	andeq	r0, r0, r0, lsl #2
     d70:	61747301 	cmnvs	r4, r1, lsl #6
     d74:	732d6666 	teqvc	sp, #106954752	; 0x6600000
     d78:	2f006372 	svccs	0x00006372
     d7c:	72657355 	rsbvc	r7, r5, #1409286145	; 0x54000001
     d80:	72622f73 	rsbvc	r2, r2, #460	; 0x1cc
     d84:	6a6e6169 	bvs	1b99330 <__bss_end__+0x1b8eb30>
     d88:	442f6e75 	strtmi	r6, [pc], #-3701	; d90 <_start-0x7270>
     d8c:	746b7365 	strbtvc	r7, [fp], #-869	; 0x365
     d90:	732f706f 	teqvc	pc, #111	; 0x6f
     d94:	6f6f6863 	svcvs	0x006f6863
     d98:	70532f6c 	subsvc	r2, r3, ip, ror #30
     d9c:	676e6972 			; <UNDEFINED> instruction: 0x676e6972
     da0:	30323931 	eorscc	r3, r2, r1, lsr r9
     da4:	3253432f 	subscc	r4, r3, #-1140850688	; 0xbc000000
     da8:	584c3034 	stmdapl	ip, {r2, r4, r5, ip, sp}^
     dac:	3273632f 	rsbscc	r6, r3, #-1140850688	; 0xbc000000
     db0:	786c3034 	stmdavc	ip!, {r2, r4, r5, ip, sp}^
     db4:	7330322d 	teqvc	r0, #-805306366	; 0xd0000002
     db8:	6c2f7270 	sfmvs	f7, 4, [pc], #-448	; c00 <_start-0x7400>
     dbc:	69706269 	ldmdbvs	r0!, {r0, r3, r5, r6, r9, sp, lr}^
     dc0:	636e692f 	cmnvs	lr, #770048	; 0xbc000
     dc4:	6564756c 	strbvs	r7, [r4, #-1388]!	; 0x56c
     dc8:	65720000 	ldrbvs	r0, [r2, #-0]!
     dcc:	746f6f62 	strbtvc	r6, [pc], #-3938	; dd4 <_start-0x722c>
     dd0:	0100632e 	tsteq	r0, lr, lsr #6
     dd4:	70720000 	rsbsvc	r0, r2, r0
     dd8:	00682e69 	rsbeq	r2, r8, r9, ror #28
     ddc:	00000002 	andeq	r0, r0, r2
     de0:	84020500 	strhi	r0, [r2], #-1280	; 0x500
     de4:	03000094 	movweq	r0, #148	; 0x94
     de8:	3114010d 	tstcc	r4, sp, lsl #2
     dec:	2f15852f 	svccs	0x0015852f
     df0:	672f4d4b 	strvs	r4, [pc, -fp, asr #26]!
     df4:	02675235 	rsbeq	r5, r7, #1342177283	; 0x50000003
     df8:	01010010 	tsteq	r1, r0, lsl r0
     dfc:	000000ac 	andeq	r0, r0, ip, lsr #1
     e00:	007f0002 	rsbseq	r0, pc, r2
     e04:	01020000 	mrseq	r0, (UNDEF: 2)
     e08:	000d0efb 	strdeq	r0, [sp], -fp
     e0c:	01010101 	tsteq	r1, r1, lsl #2
     e10:	01000000 	mrseq	r0, (UNDEF: 0)
     e14:	73010000 	movwvc	r0, #4096	; 0x1000
     e18:	66666174 			; <UNDEFINED> instruction: 0x66666174
     e1c:	6372732d 	cmnvs	r2, #-1275068416	; 0xb4000000
     e20:	73552f00 	cmpvc	r5, #0, 30
     e24:	2f737265 	svccs	0x00737265
     e28:	61697262 	cmnvs	r9, r2, ror #4
     e2c:	6e756a6e 	vsubvs.f32	s13, s10, s29
     e30:	7365442f 	cmnvc	r5, #788529152	; 0x2f000000
     e34:	706f746b 	rsbvc	r7, pc, fp, ror #8
     e38:	6863732f 	stmdavs	r3!, {r0, r1, r2, r3, r5, r8, r9, ip, sp, lr}^
     e3c:	2f6c6f6f 	svccs	0x006c6f6f
     e40:	69727053 	ldmdbvs	r2!, {r0, r1, r4, r6, ip, sp, lr}^
     e44:	3931676e 	ldmdbcc	r1!, {r1, r2, r3, r5, r6, r8, r9, sl, sp, lr}
     e48:	432f3032 	teqmi	pc, #50	; 0x32
     e4c:	30343253 	eorscc	r3, r4, r3, asr r2
     e50:	632f584c 	teqvs	pc, #76, 16	; 0x4c0000
     e54:	30343273 	eorscc	r3, r4, r3, ror r2
     e58:	322d786c 	eorcc	r7, sp, #108, 16	; 0x6c0000
     e5c:	72707330 	rsbsvc	r7, r0, #48, 6	; 0xc0000000
     e60:	62696c2f 	rsbvs	r6, r9, #12032	; 0x2f00
     e64:	692f6970 	stmdbvs	pc!, {r4, r5, r6, r8, fp, sp, lr}	; <UNPREDICTABLE>
     e68:	756c636e 	strbvc	r6, [ip, #-878]!	; 0x36e
     e6c:	00006564 	andeq	r6, r0, r4, ror #10
     e70:	656d6974 	strbvs	r6, [sp, #-2420]!	; 0x974
     e74:	00632e72 	rsbeq	r2, r3, r2, ror lr
     e78:	72000001 	andvc	r0, r0, #1
     e7c:	682e6970 	stmdavs	lr!, {r4, r5, r6, r8, fp, sp, lr}
     e80:	00000200 	andeq	r0, r0, r0, lsl #4
     e84:	02050000 	andeq	r0, r5, #0
     e88:	000094f8 	strdeq	r9, [r0], -r8
     e8c:	2d2f1416 	cfstrscs	mvf1, [pc, #-88]!	; e3c <_start-0x71c4>
     e90:	01040200 	mrseq	r0, R12_usr
     e94:	6d062e06 	stcvs	14, cr2, [r6, #-24]	; 0xffffffe8
     e98:	4d4b2f31 	stclmi	15, cr2, [fp, #-196]	; 0xffffff3c
     e9c:	4b303132 	blmi	c0d36c <__bss_end__+0xc02b6c>
     ea0:	2f6a2f4c 	svccs	0x006a2f4c
     ea4:	022f842f 	eoreq	r8, pc, #788529152	; 0x2f000000
     ea8:	01010008 	tsteq	r1, r8
     eac:	00000148 	andeq	r0, r0, r8, asr #2
     eb0:	01020002 	tsteq	r2, r2
     eb4:	01020000 	mrseq	r0, (UNDEF: 2)
     eb8:	000d0efb 	strdeq	r0, [sp], -fp
     ebc:	01010101 	tsteq	r1, r1, lsl #2
     ec0:	01000000 	mrseq	r0, (UNDEF: 0)
     ec4:	2f010000 	svccs	0x00010000
     ec8:	2f727375 	svccs	0x00727375
     ecc:	6c636e69 	stclvs	14, cr6, [r3], #-420	; 0xfffffe5c
     ed0:	2f656475 	svccs	0x00656475
     ed4:	6c77656e 	cfldr64vs	mvdx6, [r7], #-440	; 0xfffffe48
     ed8:	732f6269 	teqvc	pc, #-1879048186	; 0x90000006
     edc:	2f007379 	svccs	0x00007379
     ee0:	2f727375 	svccs	0x00727375
     ee4:	2f62696c 	svccs	0x0062696c
     ee8:	2f636367 	svccs	0x00636367
     eec:	2d6d7261 	sfmcs	f7, 2, [sp, #-388]!	; 0xfffffe7c
     ef0:	656e6f6e 	strbvs	r6, [lr, #-3950]!	; 0xf6e
     ef4:	6261652d 	rsbvs	r6, r1, #188743680	; 0xb400000
     ef8:	2e362f69 	cdpcs	15, 3, cr2, cr6, cr9, {3}
     efc:	2f312e33 	svccs	0x00312e33
     f00:	6c636e69 	stclvs	14, cr6, [r3], #-420	; 0xfffffe5c
     f04:	00656475 	rsbeq	r6, r5, r5, ror r4
     f08:	6d6f682f 	stclvs	8, cr6, [pc, #-188]!	; e54 <_start-0x71ac>
     f0c:	6e652f65 	cdpvs	15, 6, cr2, cr5, cr5, {3}
     f10:	72656c67 	rsbvc	r6, r5, #26368	; 0x6700
     f14:	616c632f 	cmnvs	ip, pc, lsr #6
     f18:	632f7373 	teqvs	pc, #-872415231	; 0xcc000001
     f1c:	30343273 	eorscc	r3, r4, r3, ror r2
     f20:	322d786c 	eorcc	r7, sp, #108, 16	; 0x6c0000
     f24:	72707330 	rsbsvc	r7, r0, #48, 6	; 0xc0000000
     f28:	696c2f2f 	stmdbvs	ip!, {r0, r1, r2, r3, r5, r8, r9, sl, fp, sp}^
     f2c:	00697062 	rsbeq	r7, r9, r2, rrx
     f30:	6d6f682f 	stclvs	8, cr6, [pc, #-188]!	; e7c <_start-0x7184>
     f34:	6e652f65 	cdpvs	15, 6, cr2, cr5, cr5, {3}
     f38:	72656c67 	rsbvc	r6, r5, #26368	; 0x6700
     f3c:	616c632f 	cmnvs	ip, pc, lsr #6
     f40:	632f7373 	teqvs	pc, #-872415231	; 0xcc000001
     f44:	30343273 	eorscc	r3, r4, r3, ror r2
     f48:	322d786c 	eorcc	r7, sp, #108, 16	; 0x6c0000
     f4c:	72707330 	rsbsvc	r7, r0, #48, 6	; 0xc0000000
     f50:	696c2f2f 	stmdbvs	ip!, {r0, r1, r2, r3, r5, r8, r9, sl, fp, sp}^
     f54:	2f697062 	svccs	0x00697062
     f58:	66617473 			; <UNDEFINED> instruction: 0x66617473
     f5c:	72732d66 	rsbsvc	r2, r3, #6528	; 0x1980
     f60:	75000063 	strvc	r0, [r0, #-99]	; 0x63
     f64:	2e747261 	cdpcs	2, 7, cr7, cr4, cr1, {3}
     f68:	00000063 	andeq	r0, r0, r3, rrx
     f6c:	636f6c00 	cmnvs	pc, #0, 24
     f70:	00682e6b 	rsbeq	r2, r8, fp, ror #28
     f74:	5f000001 	svcpl	0x00000001
     f78:	65707974 	ldrbvs	r7, [r0, #-2420]!	; 0x974
     f7c:	00682e73 	rsbeq	r2, r8, r3, ror lr
     f80:	73000001 	movwvc	r0, #1
     f84:	65646474 	strbvs	r6, [r4, #-1140]!	; 0x474
     f88:	00682e66 	rsbeq	r2, r8, r6, ror #28
     f8c:	72000002 	andvc	r0, r0, #2
     f90:	746e6565 	strbtvc	r6, [lr], #-1381	; 0x565
     f94:	0100682e 	tsteq	r0, lr, lsr #16
     f98:	70720000 	rsbsvc	r0, r2, r0
     f9c:	00682e69 	rsbeq	r2, r8, r9, ror #28
     fa0:	75000003 	strvc	r0, [r0, #-3]
     fa4:	2e747261 	cdpcs	2, 7, cr7, cr4, cr1, {3}
     fa8:	00040068 	andeq	r0, r4, r8, rrx
     fac:	69706700 	ldmdbvs	r0!, {r8, r9, sl, sp, lr}^
     fb0:	00682e6f 	rsbeq	r2, r8, pc, ror #28
     fb4:	00000004 	andeq	r0, r0, r4
     fb8:	cc020500 	cfstr32gt	mvfx0, [r2], {-0}
     fbc:	03000095 	movweq	r0, #149	; 0x95
     fc0:	0367012c 	cmneq	r7, #44, 2
     fc4:	67359e0c 	ldrvs	r9, [r5, -ip, lsl #28]!
     fc8:	03683568 	cmneq	r8, #104, 10	; 0x1a000000
     fcc:	6b852e0c 	blvs	fe14c804 <__bss_end__+0xfe142004>
     fd0:	0c036969 	stceq	9, cr6, [r3], {105}	; 0x69
     fd4:	08676b66 	stmdaeq	r7!, {r1, r2, r5, r6, r8, r9, fp, sp, lr}^
     fd8:	4b683442 	blmi	1a0e0e8 <__bss_end__+0x1a038e8>
     fdc:	2f876836 	svccs	0x00876836
     fe0:	01040200 	mrseq	r0, R12_usr
     fe4:	3067682f 	rsbcc	r6, r7, pc, lsr #16
     fe8:	02004b67 	andeq	r4, r0, #105472	; 0x19c00
     fec:	682f0104 	stmdavs	pc!, {r2, r8}	; <UNPREDICTABLE>
     ff0:	022e6967 	eoreq	r6, lr, #1687552	; 0x19c000
     ff4:	01010006 	tsteq	r1, r6
     ff8:	0000012b 	andeq	r0, r0, fp, lsr #2
     ffc:	00f80002 	rscseq	r0, r8, r2
    1000:	01020000 	mrseq	r0, (UNDEF: 2)
    1004:	000d0efb 	strdeq	r0, [sp], -fp
    1008:	01010101 	tsteq	r1, r1, lsl #2
    100c:	01000000 	mrseq	r0, (UNDEF: 0)
    1010:	2f010000 	svccs	0x00010000
    1014:	2f727375 	svccs	0x00727375
    1018:	6c636e69 	stclvs	14, cr6, [r3], #-420	; 0xfffffe5c
    101c:	2f656475 	svccs	0x00656475
    1020:	6c77656e 	cfldr64vs	mvdx6, [r7], #-440	; 0xfffffe48
    1024:	732f6269 	teqvc	pc, #-1879048186	; 0x90000006
    1028:	2f007379 	svccs	0x00007379
    102c:	2f727375 	svccs	0x00727375
    1030:	2f62696c 	svccs	0x0062696c
    1034:	2f636367 	svccs	0x00636367
    1038:	2d6d7261 	sfmcs	f7, 2, [sp, #-388]!	; 0xfffffe7c
    103c:	656e6f6e 	strbvs	r6, [lr, #-3950]!	; 0xf6e
    1040:	6261652d 	rsbvs	r6, r1, #188743680	; 0xb400000
    1044:	2e362f69 	cdpcs	15, 3, cr2, cr6, cr9, {3}
    1048:	2f312e33 	svccs	0x00312e33
    104c:	6c636e69 	stclvs	14, cr6, [r3], #-420	; 0xfffffe5c
    1050:	00656475 	rsbeq	r6, r5, r5, ror r4
    1054:	6d6f682f 	stclvs	8, cr6, [pc, #-188]!	; fa0 <_start-0x7060>
    1058:	6e652f65 	cdpvs	15, 6, cr2, cr5, cr5, {3}
    105c:	72656c67 	rsbvc	r6, r5, #26368	; 0x6700
    1060:	616c632f 	cmnvs	ip, pc, lsr #6
    1064:	632f7373 	teqvs	pc, #-872415231	; 0xcc000001
    1068:	30343273 	eorscc	r3, r4, r3, ror r2
    106c:	322d786c 	eorcc	r7, sp, #108, 16	; 0x6c0000
    1070:	72707330 	rsbsvc	r7, r0, #48, 6	; 0xc0000000
    1074:	696c2f2f 	stmdbvs	ip!, {r0, r1, r2, r3, r5, r8, r9, sl, fp, sp}^
    1078:	00697062 	rsbeq	r7, r9, r2, rrx
    107c:	6d6f682f 	stclvs	8, cr6, [pc, #-188]!	; fc8 <_start-0x7038>
    1080:	6e652f65 	cdpvs	15, 6, cr2, cr5, cr5, {3}
    1084:	72656c67 	rsbvc	r6, r5, #26368	; 0x6700
    1088:	616c632f 	cmnvs	ip, pc, lsr #6
    108c:	632f7373 	teqvs	pc, #-872415231	; 0xcc000001
    1090:	30343273 	eorscc	r3, r4, r3, ror r2
    1094:	322d786c 	eorcc	r7, sp, #108, 16	; 0x6c0000
    1098:	72707330 	rsbsvc	r7, r0, #48, 6	; 0xc0000000
    109c:	696c2f2f 	stmdbvs	ip!, {r0, r1, r2, r3, r5, r8, r9, sl, fp, sp}^
    10a0:	2f697062 	svccs	0x00697062
    10a4:	66617473 			; <UNDEFINED> instruction: 0x66617473
    10a8:	72732d66 	rsbsvc	r2, r3, #6528	; 0x1980
    10ac:	67000063 	strvs	r0, [r0, -r3, rrx]
    10b0:	2e6f6970 	mcrcs	9, 3, r6, cr15, cr0, {3}
    10b4:	00000063 	andeq	r0, r0, r3, rrx
    10b8:	636f6c00 	cmnvs	pc, #0, 24
    10bc:	00682e6b 	rsbeq	r2, r8, fp, ror #28
    10c0:	5f000001 	svcpl	0x00000001
    10c4:	65707974 	ldrbvs	r7, [r0, #-2420]!	; 0x974
    10c8:	00682e73 	rsbeq	r2, r8, r3, ror lr
    10cc:	73000001 	movwvc	r0, #1
    10d0:	65646474 	strbvs	r6, [r4, #-1140]!	; 0x474
    10d4:	00682e66 	rsbeq	r2, r8, r6, ror #28
    10d8:	72000002 	andvc	r0, r0, #2
    10dc:	746e6565 	strbtvc	r6, [lr], #-1381	; 0x565
    10e0:	0100682e 	tsteq	r0, lr, lsr #16
    10e4:	70720000 	rsbsvc	r0, r2, r0
    10e8:	00682e69 	rsbeq	r2, r8, r9, ror #28
    10ec:	67000003 	strvs	r0, [r0, -r3]
    10f0:	2e6f6970 	mcrcs	9, 3, r6, cr15, cr0, {3}
    10f4:	00040068 	andeq	r0, r4, r8, rrx
    10f8:	05000000 	streq	r0, [r0, #-0]
    10fc:	00974402 	addseq	r4, r7, r2, lsl #8
    1100:	01270300 	teqeq	r7, r0, lsl #6
    1104:	4f474c13 	svcmi	0x00474c13
    1108:	4c4b68f4 	mcrrmi	8, 15, r6, fp, cr4
    110c:	136a2fa1 	cmnne	sl, #644	; 0x284
    1110:	13be3149 			; <UNDEFINED> instruction: 0x13be3149
    1114:	2fbe3149 	svccs	0x00be3149
    1118:	484d2f6a 	stmdami	sp, {r1, r3, r5, r6, r8, r9, sl, fp, sp}^
    111c:	3249134f 	subcc	r1, r9, #1006632961	; 0x3c000001
    1120:	0602b72f 	streq	fp, [r2], -pc, lsr #14
    1124:	34010100 	strcc	r0, [r1], #-256	; 0x100
    1128:	02000001 	andeq	r0, r0, #1
    112c:	0000df00 	andeq	sp, r0, r0, lsl #30
    1130:	fb010200 	blx	4193a <__bss_end__+0x3713a>
    1134:	01000d0e 	tsteq	r0, lr, lsl #26
    1138:	00010101 	andeq	r0, r1, r1, lsl #2
    113c:	00010000 	andeq	r0, r1, r0
    1140:	752f0100 	strvc	r0, [pc, #-256]!	; 1048 <_start-0x6fb8>
    1144:	692f7273 	stmdbvs	pc!, {r0, r1, r4, r5, r6, r9, ip, sp, lr}	; <UNPREDICTABLE>
    1148:	756c636e 	strbvc	r6, [ip, #-878]!	; 0x36e
    114c:	6e2f6564 	cfsh64vs	mvdx6, mvdx15, #52
    1150:	696c7765 	stmdbvs	ip!, {r0, r2, r5, r6, r8, r9, sl, ip, sp, lr}^
    1154:	79732f62 	ldmdbvc	r3!, {r1, r5, r6, r8, r9, sl, fp, sp}^
    1158:	752f0073 	strvc	r0, [pc, #-115]!	; 10ed <_start-0x6f13>
    115c:	6c2f7273 	sfmvs	f7, 4, [pc], #-460	; f98 <_start-0x7068>
    1160:	672f6269 	strvs	r6, [pc, -r9, ror #4]!
    1164:	612f6363 	teqvs	pc, r3, ror #6
    1168:	6e2d6d72 	mcrvs	13, 1, r6, cr13, cr2, {3}
    116c:	2d656e6f 	stclcs	14, cr6, [r5, #-444]!	; 0xfffffe44
    1170:	69626165 	stmdbvs	r2!, {r0, r2, r5, r6, r8, sp, lr}^
    1174:	332e362f 	teqcc	lr, #49283072	; 0x2f00000
    1178:	692f312e 	stmdbvs	pc!, {r1, r2, r3, r5, r8, ip, sp}	; <UNPREDICTABLE>
    117c:	756c636e 	strbvc	r6, [ip, #-878]!	; 0x36e
    1180:	2f006564 	svccs	0x00006564
    1184:	656d6f68 	strbvs	r6, [sp, #-3944]!	; 0xf68
    1188:	676e652f 	strbvs	r6, [lr, -pc, lsr #10]!
    118c:	2f72656c 	svccs	0x0072656c
    1190:	73616c63 	cmnvc	r1, #25344	; 0x6300
    1194:	73632f73 	cmnvc	r3, #460	; 0x1cc
    1198:	6c303432 	cfldrsvs	mvf3, [r0], #-200	; 0xffffff38
    119c:	30322d78 	eorscc	r2, r2, r8, ror sp
    11a0:	2f727073 	svccs	0x00727073
    11a4:	62696c2f 	rsbvs	r6, r9, #12032	; 0x2f00
    11a8:	2f006970 	svccs	0x00006970
    11ac:	2f727375 	svccs	0x00727375
    11b0:	6c636e69 	stclvs	14, cr6, [r3], #-420	; 0xfffffe5c
    11b4:	2f656475 	svccs	0x00656475
    11b8:	6c77656e 	cfldr64vs	mvdx6, [r7], #-440	; 0xfffffe48
    11bc:	00006269 	andeq	r6, r0, r9, ror #4
    11c0:	6c616d6b 	stclvs	13, cr6, [r1], #-428	; 0xfffffe54
    11c4:	2e636f6c 	cdpcs	15, 6, cr6, cr3, cr12, {3}
    11c8:	00000063 	andeq	r0, r0, r3, rrx
    11cc:	636f6c00 	cmnvs	pc, #0, 24
    11d0:	00682e6b 	rsbeq	r2, r8, fp, ror #28
    11d4:	5f000001 	svcpl	0x00000001
    11d8:	65707974 	ldrbvs	r7, [r0, #-2420]!	; 0x974
    11dc:	00682e73 	rsbeq	r2, r8, r3, ror lr
    11e0:	73000001 	movwvc	r0, #1
    11e4:	65646474 	strbvs	r6, [r4, #-1140]!	; 0x474
    11e8:	00682e66 	rsbeq	r2, r8, r6, ror #28
    11ec:	72000002 	andvc	r0, r0, #2
    11f0:	746e6565 	strbtvc	r6, [lr], #-1381	; 0x565
    11f4:	0100682e 	tsteq	r0, lr, lsr #16
    11f8:	70720000 	rsbsvc	r0, r2, r0
    11fc:	00682e69 	rsbeq	r2, r8, r9, ror #28
    1200:	73000003 	movwvc	r0, #3
    1204:	6e697274 	mcrvs	2, 3, r7, cr9, cr4, {3}
    1208:	00682e67 	rsbeq	r2, r8, r7, ror #28
    120c:	00000004 	andeq	r0, r0, r4
    1210:	64020500 	strvs	r0, [r2], #-1280	; 0x500
    1214:	03000098 	movweq	r0, #152	; 0x98
    1218:	83010110 	movwhi	r0, #4368	; 0x1110
    121c:	83146801 	tsthi	r4, #65536	; 0x10000
    1220:	01040200 	mrseq	r0, R12_usr
    1224:	0402007f 	streq	r0, [r2], #-127	; 0x7f
    1228:	5c083001 	stcpl	0, cr3, [r8], {1}
    122c:	4b4c4b2f 	blmi	1313ef0 <__bss_end__+0x13096f0>
    1230:	0200684b 	andeq	r6, r0, #4915200	; 0x4b0000
    1234:	79030104 	stmdbvc	r3, {r2, r8}
    1238:	0809034a 	stmdaeq	r9, {r1, r3, r6, r8, r9}
    123c:	2e012f58 	mcrcs	15, 0, r2, cr1, cr8, {2}
    1240:	4b6a2f4e 	blmi	1a8cf80 <__bss_end__+0x1a82780>
    1244:	2f4c6767 	svccs	0x004c6767
    1248:	01040200 	mrseq	r0, R12_usr
    124c:	002e7603 	eoreq	r7, lr, r3, lsl #12
    1250:	dc010402 	cfstrsle	mvf0, [r1], {2}
    1254:	012f7a08 	teqeq	pc, r8, lsl #20
    1258:	0802019f 	stmdaeq	r2, {r0, r1, r2, r3, r4, r7, r8}
    125c:	Address 0x000000000000125c is out of bounds.


Disassembly of section .debug_str:

00000000 <.debug_str>:
   0:	657a6973 	ldrbvs	r6, [sl, #-2419]!	; 0x973
   4:	6b00745f 	blvs	1d188 <__bss_end__+0x12988>
   8:	6c6c616d 	stfvse	f6, [ip], #-436	; 0xfffffe4c
   c:	695f636f 	ldmdbvs	pc, {r0, r1, r2, r3, r5, r6, r8, r9, sp, lr}^	; <UNPREDICTABLE>
  10:	5f74696e 	svcpl	0x0074696e
  14:	5f746573 	svcpl	0x00746573
  18:	72617473 	rsbvc	r7, r1, #1929379840	; 0x73000000
  1c:	6b630074 	blvs	18c01f4 <__bss_end__+0x18b59f4>
  20:	6f6c6c61 	svcvs	0x006c6c61
  24:	552f0063 	strpl	r0, [pc, #-99]!	; ffffffc9 <__bss_end__+0xffff57c9>
  28:	73726573 	cmnvc	r2, #482344960	; 0x1cc00000
  2c:	6972622f 	ldmdbvs	r2!, {r0, r1, r2, r3, r5, r9, sp, lr}^
  30:	756a6e61 	strbvc	r6, [sl, #-3681]!	; 0xe61
  34:	65442f6e 	strbvs	r2, [r4, #-3950]	; 0xf6e
  38:	6f746b73 	svcvs	0x00746b73
  3c:	63732f70 	cmnvs	r3, #112, 30	; 0x1c0
  40:	6c6f6f68 	stclvs	15, cr6, [pc], #-416	; fffffea8 <__bss_end__+0xffff56a8>
  44:	7270532f 	rsbsvc	r5, r0, #-1140850688	; 0xbc000000
  48:	31676e69 	cmncc	r7, r9, ror #28
  4c:	2f303239 	svccs	0x00303239
  50:	34325343 	ldrtcc	r5, [r2], #-835	; 0x343
  54:	2f584c30 	svccs	0x00584c30
  58:	34327363 	ldrtcc	r7, [r2], #-867	; 0x363
  5c:	2d786c30 	ldclcs	12, cr6, [r8, #-192]!	; 0xffffff40
  60:	70733032 	rsbsvc	r3, r3, r2, lsr r0
  64:	616c2f72 	smcvs	49906	; 0xc2f2
  68:	312f7362 	teqcc	pc, r2, ror #6
  6c:	63672d31 	cmnvs	r7, #3136	; 0xc40
  70:	646f632f 	strbtvs	r6, [pc], #-815	; 78 <_start-0x7f88>
  74:	4e470065 	cdpmi	0, 4, cr0, cr7, cr5, {3}
  78:	20432055 	subcs	r2, r3, r5, asr r0
  7c:	2e382e34 	mrccs	14, 1, r2, cr8, cr4, {1}
  80:	6d2d2033 	stcvs	0, cr2, [sp, #-204]!	; 0xffffff34
  84:	3d757063 	ldclcc	0, cr7, [r5, #-396]!	; 0xfffffe74
  88:	316d7261 	cmncc	sp, r1, ror #4
  8c:	6a363731 	bvs	d8dd58 <__bss_end__+0xd83558>
  90:	732d667a 	teqvc	sp, #127926272	; 0x7a00000
  94:	746d2d20 	strbtvc	r2, [sp], #-3360	; 0xd20
  98:	3d656e75 	stclcc	14, cr6, [r5, #-468]!	; 0xfffffe2c
  9c:	316d7261 	cmncc	sp, r1, ror #4
  a0:	6a363731 	bvs	d8dd6c <__bss_end__+0xd8356c>
  a4:	732d667a 	teqvc	sp, #127926272	; 0x7a00000
  a8:	67672d20 	strbvs	r2, [r7, -r0, lsr #26]!
  ac:	2d206264 	sfmcs	f6, 4, [r0, #-400]!	; 0xfffffe70
  b0:	2d20674f 	stccs	7, cr6, [r0, #-316]!	; 0xfffffec4
  b4:	3d647473 	cfstrdcc	mvd7, [r4, #-460]!	; 0xfffffe34
  b8:	39756e67 	ldmdbcc	r5!, {r0, r1, r2, r5, r6, r9, sl, fp, sp, lr}^
  bc:	662d2039 			; <UNDEFINED> instruction: 0x662d2039
  c0:	65657266 	strbvs	r7, [r5, #-614]!	; 0x266
  c4:	6e617473 	mcrvs	4, 3, r7, cr1, cr3, {3}
  c8:	676e6964 	strbvs	r6, [lr, -r4, ror #18]!
  cc:	746f6e00 	strbtvc	r6, [pc], #-3584	; d4 <_start-0x7f2c>
  d0:	6e69616d 	powvsez	f6, f1, #5.0
  d4:	65686300 	strbvs	r6, [r8, #-768]!	; 0x300
  d8:	6e5f6b63 	vnmlavs.f64	d22, d15, d19
  dc:	656c5f6f 	strbvs	r5, [ip, #-3951]!	; 0xf6f
  e0:	75006b61 	strvc	r6, [r0, #-2913]	; 0xb61
  e4:	6769736e 	strbvs	r7, [r9, -lr, ror #6]!
  e8:	2064656e 	rsbcs	r6, r4, lr, ror #10
  ec:	72616863 	rsbvc	r6, r1, #6488064	; 0x630000
  f0:	6f687300 	svcvs	0x00687300
  f4:	75207472 	strvc	r7, [r0, #-1138]!	; 0x472
  f8:	6769736e 	strbvs	r7, [r9, -lr, ror #6]!
  fc:	2064656e 	rsbcs	r6, r4, lr, ror #10
 100:	00746e69 	rsbseq	r6, r4, r9, ror #28
 104:	6c616d6b 	stclvs	13, cr6, [r1], #-428	; 0xfffffe54
 108:	00636f6c 	rsbeq	r6, r3, ip, ror #30
 10c:	736d656d 	cmnvc	sp, #457179136	; 0x1b400000
 110:	5f007465 	svcpl	0x00007465
 114:	4e55465f 	mrcmi	6, 2, r4, cr5, cr15, {2}
 118:	4f495443 	svcmi	0x00495443
 11c:	005f5f4e 	subseq	r5, pc, lr, asr #30
 120:	74736574 	ldrbtvc	r6, [r3], #-1396	; 0x574
 124:	5f6b6300 	svcpl	0x006b6300
 128:	74696e69 	strbtvc	r6, [r9], #-3689	; 0xe69
 12c:	6e6f6c00 	cdpvs	12, 6, cr6, cr15, cr0, {0}
 130:	6f6c2067 	svcvs	0x006c2067
 134:	7520676e 	strvc	r6, [r0, #-1902]!	; 0x76e
 138:	6769736e 	strbvs	r7, [r9, -lr, ror #6]!
 13c:	2064656e 	rsbcs	r6, r4, lr, ror #10
 140:	00746e69 	rsbseq	r6, r4, r9, ror #28
 144:	626f6c67 	rsbvs	r6, pc, #26368	; 0x6700
 148:	705f6c61 	subsvc	r6, pc, r1, ror #24
 14c:	7a697300 	bvc	1a5cd54 <__bss_end__+0x1a52554>
 150:	70797465 	rsbsvc	r7, r9, r5, ror #8
 154:	6f6c0065 	svcvs	0x006c0065
 158:	6c20676e 	stcvs	7, cr6, [r0], #-440	; 0xfffffe48
 15c:	20676e6f 	rsbcs	r6, r7, pc, ror #28
 160:	00746e69 	rsbseq	r6, r4, r9, ror #28
 164:	726f6873 	rsbvc	r6, pc, #7536640	; 0x730000
 168:	6e692074 	mcrvs	0, 3, r2, cr9, cr4, {3}
 16c:	69750074 	ldmdbvs	r5!, {r2, r4, r5, r6}^
 170:	3233746e 	eorscc	r7, r3, #1845493760	; 0x6e000000
 174:	7400745f 	strvc	r7, [r0], #-1119	; 0x45f
 178:	73747365 	cmnvc	r4, #-1811939327	; 0x94000001
 17c:	7261702f 	rsbvc	r7, r1, #47	; 0x2f
 180:	742d3274 	strtvc	r3, [sp], #-628	; 0x274
 184:	32747365 	rsbscc	r7, r4, #-1811939327	; 0x94000001
 188:	5f00632e 	svcpl	0x0000632e
 18c:	7461645f 	strbtvc	r6, [r1], #-1119	; 0x45f
 190:	74735f61 	ldrbtvc	r5, [r3], #-3937	; 0xf61
 194:	5f747261 	svcpl	0x00747261
 198:	5f5f005f 	svcpl	0x005f005f
 19c:	61746164 	cmnvs	r4, r4, ror #2
 1a0:	646e655f 	strbtvs	r6, [lr], #-1375	; 0x55f
 1a4:	6e005f5f 	mcrvs	15, 0, r5, cr0, cr15, {2}
 1a8:	65747962 	ldrbvs	r7, [r4, #-2402]!	; 0x962
 1ac:	72665f73 	rsbvc	r5, r6, #460	; 0x1cc
 1b0:	00646565 	rsbeq	r6, r4, r5, ror #10
 1b4:	665f6b63 	ldrbvs	r6, [pc], -r3, ror #22
 1b8:	74737269 	ldrbtvc	r7, [r3], #-617	; 0x269
 1bc:	7264685f 	rsbvc	r6, r4, #6225920	; 0x5f0000
 1c0:	65727000 	ldrbvs	r7, [r2, #-0]!
 1c4:	5f680076 	svcpl	0x00680076
 1c8:	72646461 	rsbvc	r6, r4, #1627389952	; 0x61000000
 1cc:	73616600 	cmnvc	r1, #0, 12
 1d0:	61685f74 	smcvs	34292	; 0x85f4
 1d4:	74006873 	strvc	r6, [r0], #-2163	; 0x873
 1d8:	6c61746f 	cfstrdvs	mvd7, [r1], #-444	; 0xfffffe44
 1dc:	7a69735f 	bvc	1a5cf60 <__bss_end__+0x1a52760>
 1e0:	5f620065 	svcpl	0x00620065
 1e4:	5f317a72 	svcpl	0x00317a72
 1e8:	00727470 	rsbseq	r7, r2, r0, ror r4
 1ec:	45455246 	strbmi	r5, [r5, #-582]	; 0x246
 1f0:	616d0044 	cmnvs	sp, r4, asr #32
 1f4:	41006b72 	tstmi	r0, r2, ror fp
 1f8:	434f4c4c 	movtmi	r4, #64588	; 0xfc4c
 1fc:	72004445 	andvc	r4, r0, #1157627904	; 0x45000000
 200:	5f736665 	svcpl	0x00736665
 204:	6464696d 	strbtvs	r6, [r4], #-2413	; 0x96d
 208:	6200656c 	andvs	r6, r0, #108, 10	; 0x1b000000
 20c:	6464615f 	strbtvs	r6, [r4], #-351	; 0x15f
 210:	6f745f72 	svcvs	0x00745f72
 214:	7264685f 	rsbvc	r6, r4, #6225920	; 0x5f0000
 218:	66657200 	strbtvs	r7, [r5], -r0, lsl #4
 21c:	74735f73 	ldrbtvc	r5, [r3], #-3955	; 0xf73
 220:	00747261 	rsbseq	r7, r4, r1, ror #4
 224:	746e6975 	strbtvc	r6, [lr], #-2421	; 0x975
 228:	745f3631 	ldrbvc	r3, [pc], #-1585	; 230 <_start-0x7dd0>
 22c:	45564f00 	ldrbmi	r4, [r6, #-3840]	; 0xf00
 230:	41454852 	cmpmi	r5, r2, asr r8
 234:	424e5f44 	submi	r5, lr, #68, 30	; 0x110
 238:	53455459 	movtpl	r5, #21593	; 0x5459
 23c:	5f6b6300 	svcpl	0x006b6300
 240:	70616568 	rsbvc	r6, r1, r8, ror #10
 244:	7272655f 	rsbsvc	r6, r2, #398458880	; 0x17c00000
 248:	0073726f 	rsbseq	r7, r3, pc, ror #4
 24c:	4f4c4c41 	svcmi	0x004c4c41
 250:	464f5f43 	strbmi	r5, [pc], -r3, asr #30
 254:	54455346 	strbpl	r5, [r5], #-838	; 0x346
 258:	69707200 	ldmdbvs	r0!, {r9, ip, sp, lr}^
 25c:	7365725f 	cmnvc	r5, #-268435451	; 0xf0000005
 260:	705f7465 	subsvc	r7, pc, r5, ror #8
 264:	00637475 	rsbeq	r7, r3, r5, ror r4
 268:	72727563 	rsbsvc	r7, r2, #415236096	; 0x18c00000
 26c:	7264685f 	rsbvc	r6, r4, #6225920	; 0x5f0000
 270:	745f6200 	ldrbvc	r6, [pc], #-512	; 278 <_start-0x7d88>
 274:	6c61746f 	cfstrdvs	mvd7, [r1], #-444	; 0xfffffe44
 278:	7479625f 	ldrbtvc	r6, [r9], #-607	; 0x25f
 27c:	63007365 	movwvs	r7, #869	; 0x365
 280:	6b636568 	blvs	18d9828 <__bss_end__+0x18cf028>
 284:	7274705f 	rsbsvc	r7, r4, #95	; 0x5f
 288:	616b6300 	cmnvs	fp, r0, lsl #6
 28c:	636f6c6c 	cmnvs	pc, #108, 24	; 0x6c00
 290:	6300632e 	movwvs	r6, #814	; 0x32e
 294:	6572666b 	ldrbvs	r6, [r2, #-1643]!	; 0x66b
 298:	6b630065 	blvs	18c0434 <__bss_end__+0x18b5c34>
 29c:	78656e5f 	stmdavc	r5!, {r0, r1, r2, r3, r4, r6, r9, sl, fp, sp, lr}^
 2a0:	64685f74 	strbtvs	r5, [r8], #-3956	; 0xf74
 2a4:	6c630072 	stclvs	0, cr0, [r3], #-456	; 0xfffffe38
 2a8:	5f6e6165 	svcpl	0x006e6165
 2ac:	6f626572 	svcvs	0x00626572
 2b0:	6100746f 	tstvs	r0, pc, ror #8
 2b4:	636f6c6c 	cmnvs	pc, #108, 24	; 0x6c00
 2b8:	636f6c5f 	cmnvs	pc, #24320	; 0x5f00
 2bc:	72646800 	rsbvc	r6, r4, #0, 16
 2c0:	736b635f 	cmnvc	fp, #2080374785	; 0x7c000001
 2c4:	52006d75 	andpl	r6, r0, #7488	; 0x1d40
 2c8:	4f5a4445 	svcmi	0x005a4445
 2cc:	6e00454e 	cfsh32vs	mvfx4, mvfx0, #46
 2d0:	65747962 	ldrbvs	r7, [r4, #-2402]!	; 0x962
 2d4:	6c615f73 	stclvs	15, cr5, [r1], #-460	; 0xfffffe34
 2d8:	00636f6c 	rsbeq	r6, r3, ip, ror #30
 2dc:	65657266 	strbvs	r7, [r5, #-614]!	; 0x266
 2e0:	636f6c5f 	cmnvs	pc, #24320	; 0x5f00
 2e4:	615f6200 	cmpvs	pc, r0, lsl #4
 2e8:	636f6c6c 	cmnvs	pc, #108, 24	; 0x6c00
 2ec:	7274705f 	rsbsvc	r7, r4, #95	; 0x5f
 2f0:	61656800 	cmnvs	r5, r0, lsl #16
 2f4:	6e695f70 	mcrvs	15, 3, r5, cr9, cr0, {3}
 2f8:	73006f66 	movwvc	r6, #3942	; 0xf66
 2fc:	6c5f6372 	mrrcvs	3, 7, r6, pc, cr2	; <UNPREDICTABLE>
 300:	745f636f 	ldrbvc	r6, [pc], #-879	; 308 <_start-0x7cf8>
 304:	65686300 	strbvs	r6, [r8, #-768]!	; 0x300
 308:	685f6b63 	ldmdavs	pc, {r0, r1, r5, r6, r8, r9, fp, sp, lr}^	; <UNPREDICTABLE>
 30c:	62007264 	andvs	r7, r0, #100, 4	; 0x40000006
 310:	327a725f 	rsbscc	r7, sl, #-268435451	; 0xf0000005
 314:	7274705f 	rsbsvc	r7, r4, #95	; 0x5f
 318:	72656e00 	rsbvc	r6, r5, #0, 28
 31c:	73726f72 	cmnvc	r2, #456	; 0x1c8
 320:	72646800 	rsbvc	r6, r4, #0, 16
 324:	6972705f 	ldmdbvs	r2!, {r0, r1, r2, r3, r4, r6, ip, sp, lr}^
 328:	6e00746e 	cdpvs	4, 0, cr7, cr0, cr14, {3}
 32c:	736b6c62 	cmnvc	fp, #25088	; 0x6200
 330:	4e455300 	cdpmi	3, 4, cr5, cr5, cr0, {0}
 334:	414e4954 	cmpmi	lr, r4, asr r9
 338:	616d004c 	cmnvs	sp, ip, asr #32
 33c:	6d5f6b72 	vldrvs	d22, [pc, #-456]	; 17c <_start-0x7e84>
 340:	6e006d65 	cdpvs	13, 0, cr6, cr0, cr5, {3}
 344:	65747962 	ldrbvs	r7, [r4, #-2402]!	; 0x962
 348:	6c615f73 	stclvs	15, cr5, [r1], #-460	; 0xfffffe34
 34c:	65636f6c 	strbvs	r6, [r3, #-3948]!	; 0xf6c
 350:	68630064 	stmdavs	r3!, {r2, r5, r6}^
 354:	5f6b6365 	svcpl	0x006b6365
 358:	636f6c62 	cmnvs	pc, #25088	; 0x6200
 35c:	696c006b 	stmdbvs	ip!, {r0, r1, r3, r5, r6}^
 360:	6f6e656e 	svcvs	0x006e656e
 364:	725f6200 	subsvc	r6, pc, #0, 4
 368:	6e5f327a 	mrcvs	2, 2, r3, cr15, cr10, {3}
 36c:	65747962 	ldrbvs	r7, [r4, #-2402]!	; 0x962
 370:	64680073 	strbtvs	r0, [r8], #-115	; 0x73
 374:	6b635f72 	blvs	18d8144 <__bss_end__+0x18cd944>
 378:	5f6d7573 	svcpl	0x006d7573
 37c:	006c6176 	rsbeq	r6, ip, r6, ror r1
 380:	746e6975 	strbtvc	r6, [lr], #-2421	; 0x975
 384:	00745f38 	rsbseq	r5, r4, r8, lsr pc
 388:	5f726468 	svcpl	0x00726468
 38c:	626e0074 	rsbvs	r0, lr, #116	; 0x74
 390:	73657479 	cmnvc	r5, #2030043136	; 0x79000000
 394:	6d65725f 	sfmvs	f7, 2, [r5, #-380]!	; 0xfffffe84
 398:	66656c00 	strbtvs	r6, [r5], -r0, lsl #24
 39c:	68630074 	stmdavs	r3!, {r2, r4, r5, r6}^
 3a0:	5f6b6365 	svcpl	0x006b6365
 3a4:	006d656d 	rsbeq	r6, sp, sp, ror #10
 3a8:	64616568 	strbtvs	r6, [r1], #-1384	; 0x568
 3ac:	73007265 	movwvc	r7, #613	; 0x265
 3b0:	6b636174 	blvs	18d8988 <__bss_end__+0x18ce188>
 3b4:	706f745f 	rsbvc	r7, pc, pc, asr r4	; <UNPREDICTABLE>
 3b8:	72617700 	rsbvc	r7, r1, #0, 14
 3bc:	6f6e5f6e 	svcvs	0x006e5f6e
 3c0:	6174735f 	cmnvs	r4, pc, asr r3
 3c4:	725f7472 	subsvc	r7, pc, #1912602624	; 0x72000000
 3c8:	705f6665 	subsvc	r6, pc, r5, ror #12
 3cc:	706d6900 	rsbvc	r6, sp, r0, lsl #18
 3d0:	656d656c 	strbvs	r6, [sp, #-1388]!	; 0x56c
 3d4:	745f746e 	ldrbvc	r7, [pc], #-1134	; 3dc <_start-0x7c24>
 3d8:	00736968 	rsbseq	r6, r3, r8, ror #18
 3dc:	61656c6e 	cmnvs	r5, lr, ror #24
 3e0:	7300736b 	movwvc	r7, #875	; 0x36b
 3e4:	70656577 	rsbvc	r6, r5, r7, ror r5
 3e8:	6572665f 	ldrbvs	r6, [r2, #-1631]!	; 0x65f
 3ec:	616d0065 	cmnvs	sp, r5, rrx
 3f0:	5f656279 	svcpl	0x00656279
 3f4:	6f727265 	svcvs	0x00727265
 3f8:	63007372 	movwvs	r7, #882	; 0x372
 3fc:	63675f6b 	cmnvs	r7, #428	; 0x1ac
 400:	5f6b6300 	svcpl	0x006b6300
 404:	646e6966 	strbtvs	r6, [lr], #-2406	; 0x966
 408:	61656c5f 	cmnvs	r5, pc, asr ip
 40c:	5f00736b 	svcpl	0x0000736b
 410:	7373625f 	cmnvc	r3, #-268435451	; 0xf0000005
 414:	6174735f 	cmnvs	r4, pc, asr r3
 418:	5f5f7472 	svcpl	0x005f7472
 41c:	625f5f00 	subsvs	r5, pc, #0, 30
 420:	655f7373 	ldrbvs	r7, [pc, #-883]	; b5 <_start-0x7f4b>
 424:	5f5f646e 	svcpl	0x005f646e
 428:	65777300 	ldrbvs	r7, [r7, #-768]!	; 0x300
 42c:	6c5f7065 	mrrcvs	0, 6, r7, pc, cr5	; <UNPREDICTABLE>
 430:	006b6165 	rsbeq	r6, fp, r5, ror #2
 434:	685f6e69 	ldmdavs	pc, {r0, r3, r5, r6, r9, sl, fp, sp, lr}^	; <UNPREDICTABLE>
 438:	00706165 	rsbseq	r6, r0, r5, ror #2
 43c:	63656863 	cmnvs	r5, #6488064	; 0x630000
 440:	68735f6b 	ldmdavs	r3!, {r0, r1, r3, r5, r6, r8, r9, sl, fp, ip, lr}^
 444:	646c756f 	strbtvs	r7, [ip], #-1391	; 0x56f
 448:	61656c5f 	cmnvs	r5, pc, asr ip
 44c:	7564006b 	strbvc	r0, [r4, #-107]!	; 0x6b
 450:	725f706d 	subsvc	r7, pc, #109	; 0x6d
 454:	00736765 	rsbseq	r6, r3, r5, ror #14
 458:	6572666e 	ldrbvs	r6, [r2, #-1646]!	; 0x66e
 45c:	63006465 	movwvs	r6, #1125	; 0x465
 460:	63672d6b 	cmnvs	r7, #6848	; 0x1ac0
 464:	6d00632e 	stcvs	3, cr6, [r0, #-184]	; 0xffffff48
 468:	5f6b7261 	svcpl	0x006b7261
 46c:	006c6c61 	rsbeq	r6, ip, r1, ror #24
 470:	705f7369 	subsvc	r7, pc, r9, ror #6
 474:	6e007274 	mcrvs	2, 0, r7, cr0, cr4, {3}
 478:	636f6c62 	cmnvs	pc, #25088	; 0x6200
 47c:	7000736b 	andvc	r7, r0, fp, ror #6
 480:	6973736f 	ldmdbvs	r3!, {r0, r1, r2, r3, r5, r6, r8, r9, ip, sp, lr}^
 484:	5f656c62 	svcpl	0x00656c62
 488:	00726468 	rsbseq	r6, r2, r8, ror #8
 48c:	6362696c 	cmnvs	r2, #108, 18	; 0x1b0000
 490:	7361682f 	cmnvc	r1, #3080192	; 0x2f0000
 494:	00632e68 	rsbeq	r2, r3, r8, ror #28
 498:	6573552f 	ldrbvs	r5, [r3, #-1327]!	; 0x52f
 49c:	622f7372 	eorvs	r7, pc, #-939524095	; 0xc8000001
 4a0:	6e616972 	mcrvs	9, 3, r6, cr1, cr2, {3}
 4a4:	2f6e756a 	svccs	0x006e756a
 4a8:	6b736544 	blvs	1cd99c0 <__bss_end__+0x1ccf1c0>
 4ac:	2f706f74 	svccs	0x00706f74
 4b0:	6f686373 	svcvs	0x00686373
 4b4:	532f6c6f 	teqpl	pc, #28416	; 0x6f00
 4b8:	6e697270 	mcrvs	2, 3, r7, cr9, cr0, {3}
 4bc:	32393167 	eorscc	r3, r9, #-1073741799	; 0xc0000019
 4c0:	53432f30 	movtpl	r2, #16176	; 0x3f30
 4c4:	4c303432 	cfldrsmi	mvf3, [r0], #-200	; 0xffffff38
 4c8:	73632f58 	cmnvc	r3, #88, 30	; 0x160
 4cc:	6c303432 	cfldrsvs	mvf3, [r0], #-200	; 0xffffff38
 4d0:	30322d78 	eorscc	r2, r2, r8, ror sp
 4d4:	2f727073 	svccs	0x00727073
 4d8:	7062696c 	rsbvc	r6, r2, ip, ror #18
 4dc:	696c0069 	stmdbvs	ip!, {r0, r3, r5, r6}^
 4e0:	6d2f6362 	stcvs	3, cr6, [pc, #-392]!	; 360 <_start-0x7ca0>
 4e4:	65736d65 	ldrbvs	r6, [r3, #-3429]!	; 0xd65
 4e8:	00632e74 	rsbeq	r2, r3, r4, ror lr
 4ec:	6e675f5f 	mcrvs	15, 3, r5, cr7, cr15, {2}
 4f0:	765f6375 			; <UNDEFINED> instruction: 0x765f6375
 4f4:	696c5f61 	stmdbvs	ip!, {r0, r5, r6, r8, r9, sl, fp, ip, lr}^
 4f8:	6c007473 	cfstrsvs	mvf7, [r0], {115}	; 0x73
 4fc:	2f636269 	svccs	0x00636269
 500:	6e697270 	mcrvs	2, 3, r7, cr9, cr0, {3}
 504:	632e6b74 	teqvs	lr, #116, 22	; 0x1d000
 508:	5f617600 	svcpl	0x00617600
 50c:	6e697270 	mcrvs	2, 3, r7, cr9, cr0, {3}
 510:	5f006b74 	svcpl	0x00006b74
 514:	5f61765f 	svcpl	0x0061765f
 518:	7473696c 	ldrbtvc	r6, [r3], #-2412	; 0x96c
 51c:	615f5f00 	cmpvs	pc, r0, lsl #30
 520:	61750070 	cmnvs	r5, r0, ror r0
 524:	705f7472 	subsvc	r7, pc, r2, ror r4	; <UNPREDICTABLE>
 528:	00637475 	rsbeq	r7, r3, r5, ror r4
 52c:	65746e69 	ldrbvs	r6, [r4, #-3689]!	; 0xe69
 530:	6c616e72 	stclvs	14, cr6, [r1], #-456	; 0xfffffe38
 534:	7475705f 	ldrbtvc	r7, [r5], #-95	; 0x5f
 538:	72616863 	rsbvc	r6, r1, #6488064	; 0x630000
 53c:	69707200 	ldmdbvs	r0!, {r9, ip, sp, lr}^
 540:	7475705f 	ldrbtvc	r7, [r5], #-95	; 0x5f
 544:	72616863 	rsbvc	r6, r1, #6488064	; 0x630000
 548:	62696c00 	rsbvs	r6, r9, #0, 24
 54c:	75702f63 	ldrbvc	r2, [r0, #-3939]!	; 0xf63
 550:	61686374 	smcvs	34356	; 0x8634
 554:	00632e72 	rsbeq	r2, r3, r2, ror lr
 558:	5f697072 	svcpl	0x00697072
 55c:	5f746573 	svcpl	0x00746573
 560:	63747570 	cmnvs	r4, #112, 10	; 0x1c000000
 564:	62696c00 	rsbvs	r6, r9, #0, 24
 568:	75702f63 	ldrbvc	r2, [r0, #-3939]!	; 0xf63
 56c:	632e6b74 	teqvs	lr, #116, 22	; 0x1d000
 570:	746e6900 	strbtvc	r6, [lr], #-2304	; 0x900
 574:	616e7265 	cmnvs	lr, r5, ror #4
 578:	75705f6c 	ldrbvc	r5, [r0, #-3948]!	; 0xf6c
 57c:	6e006b74 	vmovvs.16	d0[1], r6
 580:	705f6765 	subsvc	r6, pc, r5, ror #14
 584:	76657200 	strbtvc	r7, [r5], -r0, lsl #4
 588:	65737265 	ldrbvs	r7, [r3, #-613]!	; 0x265
 58c:	64736900 	ldrbtvs	r6, [r3], #-2304	; 0x900
 590:	74696769 	strbtvc	r6, [r9], #-1897	; 0x769
 594:	74757000 	ldrbtvc	r7, [r5], #-0
 598:	70665f73 	rsbvc	r5, r6, r3, ror pc
 59c:	67697300 	strbvs	r7, [r9, -r0, lsl #6]!
 5a0:	5f64656e 	svcpl	0x0064656e
 5a4:	696c0070 	stmdbvs	ip!, {r4, r5, r6}^
 5a8:	762f6362 	strtvc	r6, [pc], -r2, ror #6
 5ac:	72702d61 	rsbsvc	r2, r0, #6208	; 0x1840
 5b0:	6b746e69 	blvs	1d1bf5c <__bss_end__+0x1d1175c>
 5b4:	7200632e 	andvc	r6, r0, #-1207959552	; 0xb8000000
 5b8:	735f6970 	cmpvc	pc, #112, 18	; 0x1c0000
 5bc:	6f5f7465 	svcvs	0x005f7465
 5c0:	75707475 	ldrbvc	r7, [r0, #-1141]!	; 0x475
 5c4:	69770074 	ldmdbvs	r7!, {r2, r4, r5, r6}^
 5c8:	00687464 	rsbeq	r7, r8, r4, ror #8
 5cc:	63747570 	cmnvs	r4, #112, 10	; 0x1c000000
 5d0:	0070665f 	rsbseq	r6, r0, pc, asr r6
 5d4:	74696d65 	strbtvc	r6, [r9], #-3429	; 0xd65
 5d8:	61747300 	cmnvs	r4, r0, lsl #6
 5dc:	732d6666 	teqvc	sp, #106954752	; 0x6600000
 5e0:	632f6372 	teqvs	pc, #-939524095	; 0xc8000001
 5e4:	6e61656c 	cdpvs	5, 6, cr6, cr1, cr12, {3}
 5e8:	6265722d 	rsbvs	r7, r5, #-805306366	; 0xd0000002
 5ec:	2e746f6f 	cdpcs	15, 7, cr6, cr4, cr15, {3}
 5f0:	70720063 	rsbsvc	r0, r2, r3, rrx
 5f4:	65725f69 	ldrbvs	r5, [r2, #-3945]!	; 0xf69
 5f8:	746f6f62 	strbtvc	r6, [pc], #-3938	; 600 <_start-0x7a00>
 5fc:	6c656400 	cfstrdvs	mvd6, [r5], #-0
 600:	6d5f7961 	ldclvs	9, cr7, [pc, #-388]	; 484 <_start-0x7b7c>
 604:	73620073 	cmnvc	r2, #115	; 0x73
 608:	6e655f73 	mcrvs	15, 3, r5, cr5, cr3, {3}
 60c:	635f0064 	cmpvs	pc, #100	; 0x64
 610:	72617473 	rsbvc	r7, r1, #1929379840	; 0x73000000
 614:	74730074 	ldrbtvc	r0, [r3], #-116	; 0x74
 618:	2d666661 	stclcs	6, cr6, [r6, #-388]!	; 0xfffffe7c
 61c:	2f637273 	svccs	0x00637273
 620:	61747363 	cmnvs	r4, r3, ror #6
 624:	632e7472 	teqvs	lr, #1912602624	; 0x72000000
 628:	5f746100 	svcpl	0x00746100
 62c:	72657375 	rsbvc	r7, r5, #-738197503	; 0xd4000001
 630:	76656c5f 			; <UNDEFINED> instruction: 0x76656c5f
 634:	73006c65 	movwvc	r6, #3173	; 0xc65
 638:	66666174 			; <UNDEFINED> instruction: 0x66666174
 63c:	6372732d 	cmnvs	r2, #-1275068416	; 0xb4000000
 640:	6265722f 	rsbvs	r7, r5, #-268435454	; 0xf0000002
 644:	2e746f6f 	cdpcs	15, 7, cr6, cr4, cr15, {3}
 648:	4d500063 	ldclmi	0, cr0, [r0, #-396]	; 0xfffffe74
 64c:	5453525f 	ldrbpl	r5, [r3], #-607	; 0x25f
 650:	52575f43 	subspl	r5, r7, #268	; 0x10c
 654:	5f474643 	svcpl	0x00474643
 658:	4c4c5546 	cfstr64mi	mvdx5, [ip], {70}	; 0x46
 65c:	5345525f 	movtpl	r5, #21087	; 0x525f
 660:	50005445 	andpl	r5, r0, r5, asr #8
 664:	44575f4d 	ldrbmi	r5, [r7], #-3917	; 0xf4d
 668:	7300474f 	movwvc	r4, #1871	; 0x74f
 66c:	755f7465 	ldrbvc	r7, [pc, #-1125]	; 20f <_start-0x7df1>
 670:	5f726573 	svcpl	0x00726573
 674:	6576656c 	ldrbvs	r6, [r6, #-1388]!	; 0x56c
 678:	5550006c 	ldrbpl	r0, [r0, #-108]	; 0x6c
 67c:	00323354 	eorseq	r3, r2, r4, asr r3
 680:	505f4d50 	subspl	r4, pc, r0, asr sp	; <UNPREDICTABLE>
 684:	57535341 	ldrbpl	r5, [r3, -r1, asr #6]
 688:	0044524f 	subeq	r5, r4, pc, asr #4
 68c:	525f4d50 	subspl	r4, pc, #80, 26	; 0x1400
 690:	00435453 	subeq	r5, r3, r3, asr r4
 694:	72737063 	rsbsvc	r7, r3, #99	; 0x63
 698:	6d697400 	cfstrdvs	mvd7, [r9, #-0]
 69c:	675f7265 	ldrbvs	r7, [pc, -r5, ror #4]
 6a0:	755f7465 	ldrbvc	r7, [pc, #-1125]	; 243 <_start-0x7dbd>
 6a4:	5f636573 	svcpl	0x00636573
 6a8:	00776172 	rsbseq	r6, r7, r2, ror r1
 6ac:	616c6564 	cmnvs	ip, r4, ror #10
 6b0:	65735f79 	ldrbvs	r5, [r3, #-3961]!	; 0xf79
 6b4:	74730063 	ldrbtvc	r0, [r3], #-99	; 0x63
 6b8:	2d666661 	stclcs	6, cr6, [r6, #-388]!	; 0xfffffe7c
 6bc:	2f637273 	svccs	0x00637273
 6c0:	656d6974 	strbvs	r6, [sp, #-2420]!	; 0x974
 6c4:	00632e72 	rsbeq	r2, r3, r2, ror lr
 6c8:	33544547 	cmpcc	r4, #297795584	; 0x11c00000
 6cc:	69740032 	ldmdbvs	r4!, {r1, r4, r5}^
 6d0:	00736b63 	rsbseq	r6, r3, r3, ror #22
 6d4:	616c6564 	cmnvs	ip, r4, ror #10
 6d8:	79635f79 	stmdbvc	r3!, {r0, r3, r4, r5, r6, r8, r9, sl, fp, ip, lr}^
 6dc:	73656c63 	cmnvc	r5, #25344	; 0x6300
 6e0:	6c656400 	cfstrdvs	mvd6, [r5], #-0
 6e4:	755f7961 	ldrbvc	r7, [pc, #-2401]	; fffffd8b <__bss_end__+0xffff558b>
 6e8:	69740073 	ldmdbvs	r4!, {r0, r1, r4, r5, r6}^
 6ec:	5f72656d 	svcpl	0x0072656d
 6f0:	5f746567 	svcpl	0x00746567
 6f4:	63657375 	cmnvs	r5, #-738197503	; 0xd4000001
 6f8:	73645f00 	cmnvc	r4, #0, 30
 6fc:	61685f6f 	cmnvs	r8, pc, ror #30
 700:	656c646e 	strbvs	r6, [ip, #-1134]!	; 0x46e
 704:	61725f00 	cmnvs	r2, r0, lsl #30
 708:	3834646e 	ldmdacc	r4!, {r1, r2, r3, r5, r6, sl, sp, lr}
 70c:	6d655f00 	stclvs	15, cr5, [r5, #-0]
 710:	65677265 	strbvs	r7, [r7, #-613]!	; 0x265
 714:	0079636e 	rsbseq	r6, r9, lr, ror #6
 718:	74726175 	ldrbtvc	r6, [r2], #-373	; 0x175
 71c:	696e695f 	stmdbvs	lr!, {r0, r1, r2, r3, r4, r6, r8, fp, sp, lr}^
 720:	775f0074 			; <UNDEFINED> instruction: 0x775f0074
 724:	6f747263 	svcvs	0x00747263
 728:	735f626d 	cmpvc	pc, #-805306362	; 0xd0000006
 72c:	65746174 	ldrbvs	r6, [r4, #-372]!	; 0x174
 730:	63775f00 	cmnvs	r7, #0, 30
 734:	6f747273 	svcvs	0x00747273
 738:	5f73626d 	svcpl	0x0073626d
 73c:	74617473 	strbtvc	r7, [r1], #-1139	; 0x473
 740:	6c5f0065 	mrrcvs	0, 6, r0, pc, cr5	; <UNPREDICTABLE>
 744:	69736662 	ldmdbvs	r3!, {r1, r5, r6, r9, sl, sp, lr}^
 748:	4700657a 	smlsdxmi	r0, sl, r5, r6
 74c:	5f4f4950 	svcpl	0x004f4950
 750:	434e5546 	movtmi	r5, #58694	; 0xe546
 754:	504e495f 	subpl	r4, lr, pc, asr r9
 758:	5f005455 	svcpl	0x00005455
 75c:	7472626d 	ldrbtvc	r6, [r2], #-621	; 0x26d
 760:	5f63776f 	svcpl	0x0063776f
 764:	74617473 	strbtvc	r7, [r1], #-1139	; 0x473
 768:	775f0065 	ldrbvc	r0, [pc, -r5, rrx]
 76c:	6d6f7463 	cfstrdvs	mvd7, [pc, #-396]!	; 5e8 <_start-0x7a18>
 770:	74735f62 	ldrbtvc	r5, [r3], #-3938	; 0xf62
 774:	00657461 	rsbeq	r7, r5, r1, ror #8
 778:	6d745f5f 	ldclvs	15, cr5, [r4, #-380]!	; 0xfffffe84
 77c:	6365735f 	cmnvs	r5, #2080374785	; 0x7c000001
 780:	61747300 	cmnvs	r4, r0, lsl #6
 784:	755f0074 	ldrbvc	r0, [pc, #-116]	; 718 <_start-0x78e8>
 788:	00667562 	rsbeq	r7, r6, r2, ror #10
 78c:	4f495047 	svcmi	0x00495047
 790:	4e55465f 	mrcmi	6, 2, r4, cr5, cr15, {2}
 794:	4c415f43 	mcrrmi	15, 4, r5, r1, cr3
 798:	5f003154 	svcpl	0x00003154
 79c:	65736162 	ldrbvs	r6, [r3, #-354]!	; 0x162
 7a0:	746e6300 	strbtvc	r6, [lr], #-768	; 0x300
 7a4:	5f5f006c 	svcpl	0x005f006c
 7a8:	685f6d74 	ldmdavs	pc, {r2, r4, r5, r6, r8, sl, fp, sp, lr}^	; <UNPREDICTABLE>
 7ac:	0072756f 	rsbseq	r7, r2, pc, ror #10
 7b0:	66735f5f 	uhsaxvs	r5, r3, pc	; <UNPREDICTABLE>
 7b4:	6e6f5f00 	cdpvs	15, 6, cr5, cr15, cr0, {0}
 7b8:	6978655f 	ldmdbvs	r8!, {r0, r1, r2, r3, r4, r6, r8, sl, sp, lr}^
 7bc:	72615f74 	rsbvc	r5, r1, #116, 30	; 0x1d0
 7c0:	5f007367 	svcpl	0x00007367
 7c4:	6b6f6f63 	blvs	1bdc558 <__bss_end__+0x1bd1d58>
 7c8:	5f006569 	svcpl	0x00006569
 7cc:	6c67735f 	stclvs	3, cr7, [r7], #-380	; 0xfffffe84
 7d0:	5f006575 	svcpl	0x00006575
 7d4:	67616c66 	strbvs	r6, [r1, -r6, ror #24]!
 7d8:	695f0073 	ldmdbvs	pc, {r0, r1, r4, r5, r6}^	; <UNPREDICTABLE>
 7dc:	78635f73 	stmdavc	r3!, {r0, r1, r4, r5, r6, r8, r9, sl, fp, ip, lr}^
 7e0:	735f0061 	cmpvc	pc, #97	; 0x61
 7e4:	6e696474 	mcrvs	4, 3, r6, cr9, cr4, {3}
 7e8:	6c625f00 	stclvs	15, cr5, [r2], #-0
 7ec:	7a69736b 	bvc	1a5d5a0 <__bss_end__+0x1a52da0>
 7f0:	61750065 	cmnvs	r5, r5, rrx
 7f4:	632e7472 	teqvs	lr, #1912602624	; 0x72000000
 7f8:	78756100 	ldmdavc	r5!, {r8, sp, lr}^
 7fc:	7265705f 	rsbvc	r7, r5, #95	; 0x5f
 800:	73687069 	cmnvc	r8, #105	; 0x69
 804:	76635f00 	strbtvc	r5, [r3], -r0, lsl #30
 808:	66756274 			; <UNDEFINED> instruction: 0x66756274
 80c:	6f682f00 	svcvs	0x00682f00
 810:	652f656d 	strvs	r6, [pc, #-1389]!	; 2ab <_start-0x7d55>
 814:	656c676e 	strbvs	r6, [ip, #-1902]!	; 0x76e
 818:	6c632f72 	stclvs	15, cr2, [r3], #-456	; 0xfffffe38
 81c:	2f737361 	svccs	0x00737361
 820:	34327363 	ldrtcc	r7, [r2], #-867	; 0x363
 824:	2d786c30 	ldclcs	12, cr6, [r8, #-192]!	; 0xffffff40
 828:	70733032 	rsbsvc	r3, r3, r2, lsr r0
 82c:	696c2f72 	stmdbvs	ip!, {r1, r4, r5, r6, r8, r9, sl, fp, sp}^
 830:	2f697062 	svccs	0x00697062
 834:	66617473 			; <UNDEFINED> instruction: 0x66617473
 838:	72702d66 	rsbsvc	r2, r0, #6528	; 0x1980
 83c:	74617669 	strbtvc	r7, [r1], #-1641	; 0x669
 840:	6d5f0065 	ldclvs	0, cr0, [pc, #-404]	; 6b4 <_start-0x794c>
 844:	74727362 	ldrbtvc	r7, [r2], #-866	; 0x362
 848:	7363776f 	cmnvc	r3, #29097984	; 0x1bc0000
 84c:	6174735f 	cmnvs	r4, pc, asr r3
 850:	5f006574 	svcpl	0x00006574
 854:	6c72626d 	lfmvs	f6, 2, [r2], #-436	; 0xfffffe4c
 858:	735f6e65 	cmpvc	pc, #1616	; 0x650
 85c:	65746174 	ldrbvs	r6, [r4, #-372]!	; 0x174
 860:	6e665f00 	cdpvs	15, 6, cr5, cr6, cr0, {0}
 864:	73677261 	cmnvc	r7, #268435462	; 0x10000006
 868:	78756100 	ldmdavc	r5!, {r8, sp, lr}^
 86c:	616e655f 	cmnvs	lr, pc, asr r5
 870:	73656c62 	cmnvc	r5, #25088	; 0x6200
 874:	6e665f00 	cdpvs	15, 6, cr5, cr6, cr0, {0}
 878:	735f0073 	cmpvc	pc, #115	; 0x73
 87c:	006e6769 	rsbeq	r6, lr, r9, ror #14
 880:	74726175 	ldrbtvc	r6, [r2], #-373	; 0x175
 884:	6e61635f 	mcrvs	3, 3, r6, cr1, cr15, {2}
 888:	7475705f 	ldrbtvc	r7, [r5], #-95	; 0x5f
 88c:	665f0063 	ldrbvs	r0, [pc], -r3, rrx
 890:	6b636f6c 	blvs	18dc648 <__bss_end__+0x18d1e48>
 894:	5f00745f 	svcpl	0x0000745f
 898:	65647473 	strbvs	r7, [r4, #-1139]!	; 0x473
 89c:	5f007272 	svcpl	0x00007272
 8a0:	69676942 	stmdbvs	r7!, {r1, r6, r8, fp, sp, lr}^
 8a4:	5f00746e 	svcpl	0x0000746e
 8a8:	6d6d6167 	stfvse	f6, [sp, #-412]!	; 0xfffffe64
 8ac:	69735f61 	ldmdbvs	r3!, {r0, r5, r6, r8, r9, sl, fp, ip, lr}^
 8b0:	61676e67 	cmnvs	r7, r7, ror #28
 8b4:	725f006d 	subsvc	r0, pc, #109	; 0x6d
 8b8:	6c757365 	ldclvs	3, cr7, [r5], #-404	; 0xfffffe6c
 8bc:	006b5f74 	rsbeq	r5, fp, r4, ror pc
 8c0:	6d745f5f 	ldclvs	15, cr5, [r4, #-380]!	; 0xfffffe84
 8c4:	775f5f00 	ldrbvc	r5, [pc, -r0, lsl #30]
 8c8:	00626863 	rsbeq	r6, r2, r3, ror #16
 8cc:	74726175 	ldrbtvc	r6, [r2], #-373	; 0x175
 8d0:	7465675f 	strbtvc	r6, [r5], #-1887	; 0x75f
 8d4:	735f0063 	cmpvc	pc, #99	; 0x63
 8d8:	756f6474 	strbvc	r6, [pc, #-1140]!	; 46c <_start-0x7b94>
 8dc:	635f0074 	cmpvs	pc, #116	; 0x74
 8e0:	656c7476 	strbvs	r7, [ip, #-1142]!	; 0x476
 8e4:	665f006e 	ldrbvs	r0, [pc], -lr, rrx
 8e8:	00656c69 	rsbeq	r6, r5, r9, ror #24
 8ec:	6f696e5f 	svcvs	0x00696e5f
 8f0:	5f007362 	svcpl	0x00007362
 8f4:	78657461 	stmdavc	r5!, {r0, r5, r6, sl, ip, sp, lr}^
 8f8:	00307469 	eorseq	r7, r0, r9, ror #8
 8fc:	6769735f 			; <UNDEFINED> instruction: 0x6769735f
 900:	5f6c616e 	svcpl	0x006c616e
 904:	00667562 	rsbeq	r7, r6, r2, ror #10
 908:	6373615f 	cmnvs	r3, #-1073741801	; 0xc0000017
 90c:	656d6974 	strbvs	r6, [sp, #-2420]!	; 0x974
 910:	6675625f 			; <UNDEFINED> instruction: 0x6675625f
 914:	76656400 	strbtvc	r6, [r5], -r0, lsl #8
 918:	7261625f 	rsbvc	r6, r1, #-268435451	; 0xf0000005
 91c:	72656972 	rsbvc	r6, r5, #1867776	; 0x1c8000
 920:	65725f00 	ldrbvs	r5, [r2, #-3840]!	; 0xf00
 924:	746c7573 	strbtvc	r7, [ip], #-1395	; 0x573
 928:	775f5f00 	ldrbvc	r5, [pc, -r0, lsl #30]
 92c:	47006863 	strmi	r6, [r0, -r3, ror #16]
 930:	5f4f4950 	svcpl	0x004f4950
 934:	434e5546 	movtmi	r5, #58694	; 0xe546
 938:	544c415f 	strbpl	r4, [ip], #-351	; 0x15f
 93c:	69770032 	ldmdbvs	r7!, {r1, r4, r5}^
 940:	745f746e 	ldrbvc	r7, [pc], #-1134	; 948 <_start-0x76b8>
 944:	6f6c5f00 	svcvs	0x006c5f00
 948:	5f006b63 	svcpl	0x00006b63
 94c:	67616c66 	strbvs	r6, [r1, -r6, ror #24]!
 950:	5f003273 	svcpl	0x00003273
 954:	5f6d745f 	svcpl	0x006d745f
 958:	72616579 	rsbvc	r6, r1, #507510784	; 0x1e400000
 95c:	666f5f00 	strbtvs	r5, [pc], -r0, lsl #30
 960:	74657366 	strbtvc	r7, [r5], #-870	; 0x366
 964:	69706700 	ldmdbvs	r0!, {r8, r9, sl, sp, lr}^
 968:	65735f6f 	ldrbvs	r5, [r3, #-3951]!	; 0xf6f
 96c:	75665f74 	strbvc	r5, [r6, #-3956]!	; 0xf74
 970:	6974636e 	ldmdbvs	r4!, {r1, r2, r3, r5, r6, r8, r9, sp, lr}^
 974:	5f006e6f 	svcpl	0x00006e6f
 978:	7478656e 	ldrbtvc	r6, [r8], #-1390	; 0x56e
 97c:	5f5f0066 	svcpl	0x005f0066
 980:	6d5f6d74 	ldclvs	13, cr6, [pc, #-464]	; 7b8 <_start-0x7848>
 984:	5f006e6f 	svcpl	0x00006e6f
 988:	78657461 	stmdavc	r5!, {r0, r5, r6, sl, ip, sp, lr}^
 98c:	5f007469 	svcpl	0x00007469
 990:	6964735f 	stmdbvs	r4!, {r0, r1, r2, r3, r4, r6, r8, r9, ip, sp, lr}^
 994:	696e6964 	stmdbvs	lr!, {r2, r5, r6, r8, fp, sp, lr}^
 998:	6f5f0074 	svcvs	0x005f0074
 99c:	745f6666 	ldrbvc	r6, [pc], #-1638	; 9a4 <_start-0x765c>
 9a0:	72617500 	rsbvc	r7, r1, #0, 10
 9a4:	665f0074 			; <UNDEFINED> instruction: 0x665f0074
 9a8:	6c656572 	cfstr64vs	mvdx6, [r5], #-456	; 0xfffffe38
 9ac:	00747369 	rsbseq	r7, r4, r9, ror #6
 9b0:	434f4c5f 	movtmi	r4, #64607	; 0xfc5f
 9b4:	45525f4b 	ldrbmi	r5, [r2, #-3915]	; 0xf4b
 9b8:	53525543 	cmppl	r2, #281018368	; 0x10c00000
 9bc:	5f455649 	svcpl	0x00455649
 9c0:	6e5f0054 	mrcvs	0, 2, r0, cr15, cr4, {2}
 9c4:	5f007765 	svcpl	0x00007765
 9c8:	72655f68 	rsbvc	r5, r5, #104, 30	; 0x1a0
 9cc:	006f6e72 	rsbeq	r6, pc, r2, ror lr	; <UNPREDICTABLE>
 9d0:	6d745f5f 	ldclvs	15, cr5, [r4, #-380]!	; 0xfffffe84
 9d4:	6164795f 	cmnvs	r4, pc, asr r9
 9d8:	5f5f0079 	svcpl	0x005f0079
 9dc:	66756273 			; <UNDEFINED> instruction: 0x66756273
 9e0:	6f695f00 	svcvs	0x00695f00
 9e4:	5f007362 	svcpl	0x00007362
 9e8:	4c49465f 	mcrrmi	6, 5, r4, r9, cr15
 9ec:	6d5f0045 	ldclvs	0, cr0, [pc, #-276]	; 8e0 <_start-0x7720>
 9f0:	61747362 	cmnvs	r4, r2, ror #6
 9f4:	745f6574 	ldrbvc	r6, [pc], #-1396	; 9fc <_start-0x7604>
 9f8:	735f5f00 	cmpvc	pc, #0, 30
 9fc:	454c4946 	strbmi	r4, [ip, #-2374]	; 0x946
 a00:	626d5f00 	rsbvs	r5, sp, #0, 30
 a04:	74617473 	strbtvc	r7, [r1], #-1139	; 0x473
 a08:	725f0065 	subsvc	r0, pc, #101	; 0x65
 a0c:	5f646e61 	svcpl	0x00646e61
 a10:	7478656e 	ldrbtvc	r6, [r8], #-1390	; 0x56e
 a14:	626d5f00 	rsbvs	r5, sp, #0, 30
 a18:	5f6e656c 	svcpl	0x006e656c
 a1c:	74617473 	strbtvc	r7, [r1], #-1139	; 0x473
 a20:	695f0065 	ldmdbvs	pc, {r0, r2, r5, r6}^	; <UNPREDICTABLE>
 a24:	5f00636e 	svcpl	0x0000636e
 a28:	00646e69 	rsbeq	r6, r4, r9, ror #28
 a2c:	7275635f 	rsbsvc	r6, r5, #2080374785	; 0x7c000001
 a30:	746e6572 	strbtvc	r6, [lr], #-1394	; 0x572
 a34:	636f6c5f 	cmnvs	pc, #24320	; 0x5f00
 a38:	00656c61 	rsbeq	r6, r5, r1, ror #24
 a3c:	6c635f5f 	stclvs	15, cr5, [r3], #-380	; 0xfffffe84
 a40:	756e6165 	strbvc	r6, [lr, #-357]!	; 0x165
 a44:	6d5f0070 	ldclvs	0, cr0, [pc, #-448]	; 88c <_start-0x7774>
 a48:	64777861 	ldrbtvs	r7, [r7], #-2145	; 0x861
 a4c:	725f0073 	subsvc	r0, pc, #115	; 0x73
 a50:	746e6565 	strbtvc	r6, [lr], #-1381	; 0x565
 a54:	65735f00 	ldrbvs	r5, [r3, #-3840]!	; 0xf00
 a58:	5f006465 	svcpl	0x00006465
 a5c:	756f635f 	strbvc	r6, [pc, #-863]!	; 705 <_start-0x78fb>
 a60:	5f00746e 	svcpl	0x0000746e
 a64:	6c61765f 	stclvs	6, cr7, [r1], #-380	; 0xfffffe84
 a68:	5f006575 	svcpl	0x00006575
 a6c:	6b656573 	blvs	195a040 <__bss_end__+0x194f840>
 a70:	75616200 	strbvc	r6, [r1, #-512]!	; 0x200
 a74:	665f0064 	ldrbvs	r0, [pc], -r4, rrx
 a78:	5f736f70 	svcpl	0x00736f70
 a7c:	5f5f0074 	svcpl	0x005f0074
 a80:	6d5f6d74 	ldclvs	13, cr6, [pc, #-464]	; 8b8 <_start-0x7748>
 a84:	73006e69 	movwvc	r6, #3689	; 0xe69
 a88:	74617263 	strbtvc	r7, [r1], #-611	; 0x263
 a8c:	5f006863 	svcpl	0x00006863
 a90:	746c756d 	strbtvc	r7, [ip], #-1389	; 0x56d
 a94:	74757000 	ldrbtvc	r7, [r5], #-0
 a98:	47003233 	smladxmi	r0, r3, r2, r3
 a9c:	4320554e 	teqmi	r0, #327155712	; 0x13800000
 aa0:	36203939 			; <UNDEFINED> instruction: 0x36203939
 aa4:	312e332e 	teqcc	lr, lr, lsr #6
 aa8:	31303220 	teqcc	r0, r0, lsr #4
 aac:	32363037 	eorscc	r3, r6, #55	; 0x37
 ab0:	6d2d2030 	stcvs	0, cr2, [sp, #-192]!	; 0xffffff40
 ab4:	3d757063 	ldclcc	0, cr7, [r5, #-396]!	; 0xfffffe74
 ab8:	316d7261 	cmncc	sp, r1, ror #4
 abc:	6a363731 	bvs	d8e788 <__bss_end__+0xd83f88>
 ac0:	732d667a 	teqvc	sp, #127926272	; 0x7a00000
 ac4:	746d2d20 	strbtvc	r2, [sp], #-3360	; 0xd20
 ac8:	3d656e75 	stclcc	14, cr6, [r5, #-468]!	; 0xfffffe2c
 acc:	316d7261 	cmncc	sp, r1, ror #4
 ad0:	6a363731 	bvs	d8e79c <__bss_end__+0xd83f9c>
 ad4:	732d667a 	teqvc	sp, #127926272	; 0x7a00000
 ad8:	67672d20 	strbvs	r2, [r7, -r0, lsr #26]!
 adc:	2d206264 	sfmcs	f6, 4, [r0, #-400]!	; 0xfffffe70
 ae0:	2d20674f 	stccs	7, cr6, [r0, #-316]!	; 0xfffffec4
 ae4:	3d647473 	cfstrdcc	mvd7, [r4, #-460]!	; 0xfffffe34
 ae8:	39756e67 	ldmdbcc	r5!, {r0, r1, r2, r5, r6, r9, sl, fp, sp, lr}^
 aec:	662d2039 			; <UNDEFINED> instruction: 0x662d2039
 af0:	65657266 	strbvs	r7, [r5, #-614]!	; 0x266
 af4:	6e617473 	mcrvs	4, 3, r7, cr1, cr3, {3}
 af8:	676e6964 	strbvs	r6, [lr, -r4, ror #18]!
 afc:	74735f00 	ldrbtvc	r5, [r3], #-3840	; 0xf00
 b00:	6b6f7472 	blvs	1bddcd0 <__bss_end__+0x1bd34d0>
 b04:	73616c5f 	cmnvc	r1, #24320	; 0x5f00
 b08:	665f0074 			; <UNDEFINED> instruction: 0x665f0074
 b0c:	7079746e 	rsbsvc	r7, r9, lr, ror #8
 b10:	5f007365 	svcpl	0x00007365
 b14:	00646461 	rsbeq	r6, r4, r1, ror #8
 b18:	4c555f5f 	mrrcmi	15, 5, r5, r5, cr15	; <UNPREDICTABLE>
 b1c:	00676e6f 	rsbeq	r6, r7, pc, ror #28
 b20:	7465675f 	strbtvc	r6, [r5], #-1887	; 0x75f
 b24:	65746164 	ldrbvs	r6, [r4, #-356]!	; 0x164
 b28:	7272655f 	rsbsvc	r6, r2, #398458880	; 0x17c00000
 b2c:	6c675f00 	stclvs	15, cr5, [r7], #-0
 b30:	6c61626f 	sfmvs	f6, 2, [r1], #-444	; 0xfffffe44
 b34:	706d695f 	rsbvc	r6, sp, pc, asr r9
 b38:	5f657275 	svcpl	0x00657275
 b3c:	00727470 	rsbseq	r7, r2, r0, ror r4
 b40:	7275635f 	rsbsvc	r6, r5, #2080374785	; 0x7c000001
 b44:	746e6572 	strbtvc	r6, [lr], #-1394	; 0x572
 b48:	7461635f 	strbtvc	r6, [r1], #-863	; 0x35f
 b4c:	726f6765 	rsbvc	r6, pc, #26476544	; 0x1940000
 b50:	755f0079 	ldrbvc	r0, [pc, #-121]	; adf <_start-0x7521>
 b54:	6573756e 	ldrbvs	r7, [r3, #-1390]!	; 0x56e
 b58:	61725f64 	cmnvs	r2, r4, ror #30
 b5c:	5f00646e 	svcpl	0x0000646e
 b60:	00736477 	rsbseq	r6, r3, r7, ror r4
 b64:	6d745f5f 	ldclvs	15, cr5, [r4, #-380]!	; 0xfffffe84
 b68:	6164775f 	cmnvs	r4, pc, asr r7
 b6c:	675f0079 			; <UNDEFINED> instruction: 0x675f0079
 b70:	0065756c 	rsbeq	r7, r5, ip, ror #10
 b74:	4f495047 	svcmi	0x00495047
 b78:	4e55465f 	mrcmi	6, 2, r4, cr5, cr15, {2}
 b7c:	554f5f43 	strbpl	r5, [pc, #-3907]	; fffffc41 <__bss_end__+0xffff5441>
 b80:	54555054 	ldrbpl	r5, [r5], #-84	; 0x54
 b84:	6d6e5f00 	stclvs	15, cr5, [lr, #-0]
 b88:	6f6c6c61 	svcvs	0x006c6c61
 b8c:	6c5f0063 	mrrcvs	0, 6, r0, pc, cr3	; <UNPREDICTABLE>
 b90:	5f613436 	svcpl	0x00613436
 b94:	00667562 	rsbeq	r7, r6, r2, ror #10
 b98:	33746567 	cmncc	r4, #432013312	; 0x19c00000
 b9c:	61750032 	cmnvs	r5, r2, lsr r0
 ba0:	635f7472 	cmpvs	pc, #1912602624	; 0x72000000
 ba4:	675f6e61 	ldrbvs	r6, [pc, -r1, ror #28]
 ba8:	00637465 	rsbeq	r7, r3, r5, ror #8
 bac:	6769735f 			; <UNDEFINED> instruction: 0x6769735f
 bb0:	6e75665f 	mrcvs	6, 3, r6, cr5, cr15, {2}
 bb4:	726f0063 	rsbvc	r0, pc, #99	; 0x63
 bb8:	336e695f 	cmncc	lr, #1556480	; 0x17c000
 bbc:	61750032 	cmnvs	r5, r2, lsr r0
 bc0:	685f7472 	ldmdavs	pc, {r1, r4, r5, r6, sl, ip, sp, lr}^	; <UNPREDICTABLE>
 bc4:	645f7361 	ldrbvs	r7, [pc], #-865	; bcc <_start-0x7434>
 bc8:	00617461 	rsbeq	r7, r1, r1, ror #8
 bcc:	4f495047 	svcmi	0x00495047
 bd0:	4e55465f 	mrcmi	6, 2, r4, cr5, cr15, {2}
 bd4:	4c415f43 	mcrrmi	15, 4, r5, r1, cr3
 bd8:	5f003054 	svcpl	0x00003054
 bdc:	6675626e 	ldrbtvs	r6, [r5], -lr, ror #4
 be0:	6e755f00 	cdpvs	15, 7, cr5, cr5, cr0, {0}
 be4:	64657375 	strbtvs	r7, [r5], #-885	; 0x375
 be8:	49504700 	ldmdbmi	r0, {r8, r9, sl, lr}^
 bec:	55465f4f 	strbpl	r5, [r6, #-3919]	; 0xf4f
 bf0:	415f434e 	cmpmi	pc, lr, asr #6
 bf4:	0033544c 	eorseq	r5, r3, ip, asr #8
 bf8:	4f495047 	svcmi	0x00495047
 bfc:	4e55465f 	mrcmi	6, 2, r4, cr5, cr15, {2}
 c00:	4c415f43 	mcrrmi	15, 4, r5, r1, cr3
 c04:	47003454 	smlsdmi	r0, r4, r4, r3
 c08:	5f4f4950 	svcpl	0x004f4950
 c0c:	434e5546 	movtmi	r5, #58694	; 0xe546
 c10:	544c415f 	strbpl	r4, [ip], #-351	; 0x15f
 c14:	5f5f0035 	svcpl	0x005f0035
 c18:	695f6d74 	ldmdbvs	pc, {r2, r4, r5, r6, r8, sl, fp, sp, lr}^	; <UNPREDICTABLE>
 c1c:	74736473 	ldrbtvc	r6, [r3], #-1139	; 0x473
 c20:	6f6c5f00 	svcvs	0x006c5f00
 c24:	746c6163 	strbtvc	r6, [ip], #-355	; 0x163
 c28:	5f656d69 	svcpl	0x00656d69
 c2c:	00667562 	rsbeq	r7, r6, r2, ror #10
 c30:	6f6c635f 	svcvs	0x006c635f
 c34:	5f006573 	svcpl	0x00006573
 c38:	00383472 	eorseq	r3, r8, r2, ror r4
 c3c:	74626d5f 	strbtvc	r6, [r2], #-3423	; 0xd5f
 c40:	5f63776f 	svcpl	0x0063776f
 c44:	74617473 	strbtvc	r7, [r1], #-1139	; 0x473
 c48:	705f0065 	subsvc	r0, pc, r5, rrx
 c4c:	5f007335 	svcpl	0x00007335
 c50:	5f6d745f 	svcpl	0x006d745f
 c54:	7961646d 	stmdbvc	r1!, {r0, r2, r3, r5, r6, sl, sp, lr}^
 c58:	69706700 	ldmdbvs	r0!, {r8, r9, sl, sp, lr}^
 c5c:	65735f6f 	ldrbvs	r5, [r3, #-3951]!	; 0xf6f
 c60:	666f5f74 	uqsub16vs	r5, pc, r4	; <UNPREDICTABLE>
 c64:	61620066 	cmnvs	r2, r6, rrx
 c68:	67006b6e 	strvs	r6, [r0, -lr, ror #22]
 c6c:	2e6f6970 	mcrcs	9, 3, r6, cr15, cr0, {3}
 c70:	70670063 	rsbvc	r0, r7, r3, rrx
 c74:	725f6f69 	subsvc	r6, pc, #420	; 0x1a4
 c78:	00646165 	rsbeq	r6, r4, r5, ror #2
 c7c:	6f697067 	svcvs	0x00697067
 c80:	7465735f 	strbtvc	r7, [r5], #-863	; 0x35f
 c84:	74756f5f 	ldrbtvc	r6, [r5], #-3935	; 0xf5f
 c88:	00747570 	rsbseq	r7, r4, r0, ror r5
 c8c:	6f697067 	svcvs	0x00697067
 c90:	6972775f 	ldmdbvs	r2!, {r0, r1, r2, r3, r4, r6, r8, r9, sl, ip, sp, lr}^
 c94:	67006574 	smlsdxvs	r0, r4, r5, r6
 c98:	5f6f6970 	svcpl	0x006f6970
 c9c:	30746573 	rsbscc	r6, r4, r3, ror r5
 ca0:	69706700 	ldmdbvs	r0!, {r8, r9, sl, sp, lr}^
 ca4:	656c5f6f 	strbvs	r5, [ip, #-3951]!	; 0xf6f
 ca8:	67003076 	smlsdxvs	r0, r6, r0, r3
 cac:	5f6f6970 	svcpl	0x006f6970
 cb0:	5f746573 	svcpl	0x00746573
 cb4:	75706e69 	ldrbvc	r6, [r0, #-3689]!	; 0xe69
 cb8:	70670074 	rsbvc	r0, r7, r4, ror r0
 cbc:	735f6f69 	cmpvc	pc, #420	; 0x1a4
 cc0:	6f5f7465 	svcvs	0x005f7465
 cc4:	7067006e 	rsbvc	r0, r7, lr, rrx
 cc8:	665f6f69 	ldrbvs	r6, [pc], -r9, ror #30
 ccc:	5f636e75 	svcpl	0x00636e75
 cd0:	70670074 	rsbvc	r0, r7, r4, ror r0
 cd4:	635f6f69 	cmpvs	pc, #420	; 0x1a4
 cd8:	0030726c 	eorseq	r7, r0, ip, ror #4
 cdc:	6c616d6b 	stclvs	13, cr6, [r1], #-428	; 0xfffffe54
 ce0:	2e636f6c 	cdpcs	15, 6, cr6, cr3, cr12, {3}
 ce4:	6d6b0063 	stclvs	0, cr0, [fp, #-396]!	; 0xfffffe74
 ce8:	6f6c6c61 	svcvs	0x006c6c61
 cec:	6e695f63 	cdpvs	15, 6, cr5, cr9, cr3, {3}
 cf0:	6b007469 	blvs	1de9c <__bss_end__+0x1369c>
 cf4:	6c6c616d 	stfvse	f6, [ip], #-436	; 0xfffffe4c
 cf8:	615f636f 	cmpvs	pc, pc, ror #6
 cfc:	6e67696c 	cdpvs	9, 6, cr6, cr7, cr12, {3}
 d00:	64006465 	strvs	r6, [r0], #-1125	; 0x465
 d04:	6c62756f 	cfstr64vs	mvdx7, [r2], #-444	; 0xfffffe44
 d08:	666b0065 	strbtvs	r0, [fp], -r5, rrx
 d0c:	5f656572 	svcpl	0x00656572
 d10:	006c6c61 	rsbeq	r6, ip, r1, ror #24
 d14:	6572666b 	ldrbvs	r6, [r2, #-1643]!	; 0x66b
 d18:	66615f65 	strbtvs	r5, [r1], -r5, ror #30
 d1c:	00726574 	rsbseq	r6, r2, r4, ror r5
 d20:	6c616d6b 	stclvs	13, cr6, [r1], #-428	; 0xfffffe54
 d24:	5f636f6c 	svcpl	0x00636f6c
 d28:	70616568 	rsbvc	r6, r1, r8, ror #10
 d2c:	7274705f 	rsbsvc	r7, r4, #95	; 0x5f
 d30:	696c6100 	stmdbvs	ip!, {r8, sp, lr}^
 d34:	656d6e67 	strbvs	r6, [sp, #-3687]!	; 0xe67
 d38:	5f00746e 	svcpl	0x0000746e
 d3c:	6165685f 	cmnvs	r5, pc, asr r8
 d40:	74735f70 	ldrbtvc	r5, [r3], #-3952	; 0xf70
 d44:	5f747261 	svcpl	0x00747261
 d48:	6d6b005f 	stclvs	0, cr0, [fp, #-380]!	; 0xfffffe84
 d4c:	6f6c6c61 	svcvs	0x006c6c61
 d50:	65685f63 	strbvs	r5, [r8, #-3939]!	; 0xf63
 d54:	735f7061 	cmpvc	pc, #97	; 0x61
 d58:	74726174 	ldrbtvc	r6, [r2], #-372	; 0x174
 d5c:	616d6b00 	cmnvs	sp, r0, lsl #22
 d60:	636f6c6c 	cmnvs	pc, #108, 24	; 0x6c00
 d64:	6165685f 	cmnvs	r5, pc, asr r8
 d68:	6e655f70 	mcrvs	15, 3, r5, cr5, cr0, {3}
 d6c:	Address 0x0000000000000d6c is out of bounds.


Disassembly of section .debug_frame:

00000000 <.debug_frame>:
   0:	0000000c 	andeq	r0, r0, ip
   4:	ffffffff 			; <UNDEFINED> instruction: 0xffffffff
   8:	7c020001 	stcvc	0, cr0, [r2], {1}
   c:	000d0c0e 	andeq	r0, sp, lr, lsl #24
  10:	00000018 	andeq	r0, r0, r8, lsl r0
  14:	00000000 	andeq	r0, r0, r0
  18:	00008010 	andeq	r8, r0, r0, lsl r0
  1c:	00000084 	andeq	r0, r0, r4, lsl #1
  20:	84100e42 	ldrhi	r0, [r0], #-3650	; 0xe42
  24:	86038504 	strhi	r8, [r3], -r4, lsl #10
  28:	00018e02 	andeq	r8, r1, r2, lsl #28
  2c:	00000014 	andeq	r0, r0, r4, lsl r0
  30:	00000000 	andeq	r0, r0, r0
  34:	00008094 	muleq	r0, r4, r0
  38:	00000040 	andeq	r0, r0, r0, asr #32
  3c:	83080e42 	movwhi	r0, #36418	; 0x8e42
  40:	00018e02 	andeq	r8, r1, r2, lsl #28
  44:	0000000c 	andeq	r0, r0, ip
  48:	ffffffff 			; <UNDEFINED> instruction: 0xffffffff
  4c:	7c020001 	stcvc	0, cr0, [r2], {1}
  50:	000d0c0e 	andeq	r0, sp, lr, lsl #24
  54:	0000001c 	andeq	r0, r0, ip, lsl r0
  58:	00000044 	andeq	r0, r0, r4, asr #32
  5c:	000080d4 	ldrdeq	r8, [r0], -r4
  60:	00000100 	andeq	r0, r0, r0, lsl #2
  64:	83180e42 	tsthi	r8, #1056	; 0x420
  68:	85058406 	strhi	r8, [r5, #-1030]	; 0x406
  6c:	87038604 	strhi	r8, [r3, -r4, lsl #12]
  70:	00018e02 	andeq	r8, r1, r2, lsl #28
  74:	00000014 	andeq	r0, r0, r4, lsl r0
  78:	00000044 	andeq	r0, r0, r4, asr #32
  7c:	000081d4 	ldrdeq	r8, [r0], -r4
  80:	00000014 	andeq	r0, r0, r4, lsl r0
  84:	83080e42 	movwhi	r0, #36418	; 0x8e42
  88:	00018e02 	andeq	r8, r1, r2, lsl #28
  8c:	00000018 	andeq	r0, r0, r8, lsl r0
  90:	00000044 	andeq	r0, r0, r4, asr #32
  94:	000081e8 	andeq	r8, r0, r8, ror #3
  98:	00000024 	andeq	r0, r0, r4, lsr #32
  9c:	83100e42 	tsthi	r0, #1056	; 0x420
  a0:	85038404 	strhi	r8, [r3, #-1028]	; 0x404
  a4:	00018e02 	andeq	r8, r1, r2, lsl #28
  a8:	00000014 	andeq	r0, r0, r4, lsl r0
  ac:	00000044 	andeq	r0, r0, r4, asr #32
  b0:	0000820c 	andeq	r8, r0, ip, lsl #4
  b4:	00000078 	andeq	r0, r0, r8, ror r0
  b8:	84080e42 	strhi	r0, [r8], #-3650	; 0xe42
  bc:	00018e02 	andeq	r8, r1, r2, lsl #28
  c0:	00000014 	andeq	r0, r0, r4, lsl r0
  c4:	00000044 	andeq	r0, r0, r4, asr #32
  c8:	00008284 	andeq	r8, r0, r4, lsl #5
  cc:	00000070 	andeq	r0, r0, r0, ror r0
  d0:	84080e42 	strhi	r0, [r8], #-3650	; 0xe42
  d4:	00018e02 	andeq	r8, r1, r2, lsl #28
  d8:	00000018 	andeq	r0, r0, r8, lsl r0
  dc:	00000044 	andeq	r0, r0, r4, asr #32
  e0:	000082f4 	strdeq	r8, [r0], -r4
  e4:	00000074 	andeq	r0, r0, r4, ror r0
  e8:	83100e42 	tsthi	r0, #1056	; 0x420
  ec:	85038404 	strhi	r8, [r3, #-1028]	; 0x404
  f0:	00018e02 	andeq	r8, r1, r2, lsl #28
  f4:	0000001c 	andeq	r0, r0, ip, lsl r0
  f8:	00000044 	andeq	r0, r0, r4, asr #32
  fc:	00008368 	andeq	r8, r0, r8, ror #6
 100:	000000bc 	strheq	r0, [r0], -ip
 104:	84180e42 	ldrhi	r0, [r8], #-3650	; 0xe42
 108:	86058506 	strhi	r8, [r5], -r6, lsl #10
 10c:	88038704 	stmdahi	r3, {r2, r8, r9, sl, pc}
 110:	00018e02 	andeq	r8, r1, r2, lsl #28
 114:	00000020 	andeq	r0, r0, r0, lsr #32
 118:	00000044 	andeq	r0, r0, r4, asr #32
 11c:	00008424 	andeq	r8, r0, r4, lsr #8
 120:	00000234 	andeq	r0, r0, r4, lsr r2
 124:	841c0e42 	ldrhi	r0, [ip], #-3650	; 0xe42
 128:	86068507 	strhi	r8, [r6], -r7, lsl #10
 12c:	88048705 	stmdahi	r4, {r0, r2, r8, r9, sl, pc}
 130:	8e028903 	cdphi	9, 0, cr8, cr2, cr3, {0}
 134:	280e4201 	stmdacs	lr, {r0, r9, lr}
 138:	00000014 	andeq	r0, r0, r4, lsl r0
 13c:	00000044 	andeq	r0, r0, r4, asr #32
 140:	00008658 	andeq	r8, r0, r8, asr r6
 144:	00000050 	andeq	r0, r0, r0, asr r0
 148:	84080e42 	strhi	r0, [r8], #-3650	; 0xe42
 14c:	00018e02 	andeq	r8, r1, r2, lsl #28
 150:	00000014 	andeq	r0, r0, r4, lsl r0
 154:	00000044 	andeq	r0, r0, r4, asr #32
 158:	000086a8 	andeq	r8, r0, r8, lsr #13
 15c:	00000074 	andeq	r0, r0, r4, ror r0
 160:	84080e42 	strhi	r0, [r8], #-3650	; 0xe42
 164:	00018e02 	andeq	r8, r1, r2, lsl #28
 168:	0000000c 	andeq	r0, r0, ip
 16c:	00000044 	andeq	r0, r0, r4, asr #32
 170:	0000871c 	andeq	r8, r0, ip, lsl r7
 174:	00000030 	andeq	r0, r0, r0, lsr r0
 178:	00000020 	andeq	r0, r0, r0, lsr #32
 17c:	00000044 	andeq	r0, r0, r4, asr #32
 180:	0000874c 	andeq	r8, r0, ip, asr #14
 184:	00000140 	andeq	r0, r0, r0, asr #2
 188:	83200e42 	teqhi	r0, #1056	; 0x420
 18c:	85078408 	strhi	r8, [r7, #-1032]	; 0x408
 190:	87058606 	strhi	r8, [r5, -r6, lsl #12]
 194:	89038804 	stmdbhi	r3, {r2, fp, pc}
 198:	00018e02 	andeq	r8, r1, r2, lsl #28
 19c:	0000000c 	andeq	r0, r0, ip
 1a0:	ffffffff 			; <UNDEFINED> instruction: 0xffffffff
 1a4:	7c020001 	stcvc	0, cr0, [r2], {1}
 1a8:	000d0c0e 	andeq	r0, sp, lr, lsl #24
 1ac:	0000000c 	andeq	r0, r0, ip
 1b0:	0000019c 	muleq	r0, ip, r1
 1b4:	0000888c 	andeq	r8, r0, ip, lsl #17
 1b8:	00000018 	andeq	r0, r0, r8, lsl r0
 1bc:	00000014 	andeq	r0, r0, r4, lsl r0
 1c0:	0000019c 	muleq	r0, ip, r1
 1c4:	000088a4 	andeq	r8, r0, r4, lsr #17
 1c8:	00000050 	andeq	r0, r0, r0, asr r0
 1cc:	84080e42 	strhi	r0, [r8], #-3650	; 0xe42
 1d0:	00018e02 	andeq	r8, r1, r2, lsl #28
 1d4:	00000018 	andeq	r0, r0, r8, lsl r0
 1d8:	0000019c 	muleq	r0, ip, r1
 1dc:	000088f4 	strdeq	r8, [r0], -r4
 1e0:	00000098 	muleq	r0, r8, r0
 1e4:	84100e42 	ldrhi	r0, [r0], #-3650	; 0xe42
 1e8:	86038504 	strhi	r8, [r3], -r4, lsl #10
 1ec:	00018e02 	andeq	r8, r1, r2, lsl #28
 1f0:	0000001c 	andeq	r0, r0, ip, lsl r0
 1f4:	0000019c 	muleq	r0, ip, r1
 1f8:	0000898c 	andeq	r8, r0, ip, lsl #19
 1fc:	000000ec 	andeq	r0, r0, ip, ror #1
 200:	83180e42 	tsthi	r8, #1056	; 0x420
 204:	85058406 	strhi	r8, [r5, #-1030]	; 0x406
 208:	87038604 	strhi	r8, [r3, -r4, lsl #12]
 20c:	00018e02 	andeq	r8, r1, r2, lsl #28
 210:	00000018 	andeq	r0, r0, r8, lsl r0
 214:	0000019c 	muleq	r0, ip, r1
 218:	00008a78 	andeq	r8, r0, r8, ror sl
 21c:	000000bc 	strheq	r0, [r0], -ip
 220:	84080e42 	strhi	r0, [r8], #-3650	; 0xe42
 224:	42018e02 	andmi	r8, r1, #2, 28
 228:	0000580e 	andeq	r5, r0, lr, lsl #16
 22c:	00000014 	andeq	r0, r0, r4, lsl r0
 230:	0000019c 	muleq	r0, ip, r1
 234:	00008b34 	andeq	r8, r0, r4, lsr fp
 238:	00000044 	andeq	r0, r0, r4, asr #32
 23c:	83080e42 	movwhi	r0, #36418	; 0x8e42
 240:	00018e02 	andeq	r8, r1, r2, lsl #28
 244:	00000014 	andeq	r0, r0, r4, lsl r0
 248:	0000019c 	muleq	r0, ip, r1
 24c:	00008b78 	andeq	r8, r0, r8, ror fp
 250:	00000018 	andeq	r0, r0, r8, lsl r0
 254:	84080e42 	strhi	r0, [r8], #-3650	; 0xe42
 258:	00018e02 	andeq	r8, r1, r2, lsl #28
 25c:	00000014 	andeq	r0, r0, r4, lsl r0
 260:	0000019c 	muleq	r0, ip, r1
 264:	00008b90 	muleq	r0, r0, fp
 268:	00000098 	muleq	r0, r8, r0
 26c:	83080e42 	movwhi	r0, #36418	; 0x8e42
 270:	00018e02 	andeq	r8, r1, r2, lsl #28
 274:	00000014 	andeq	r0, r0, r4, lsl r0
 278:	0000019c 	muleq	r0, ip, r1
 27c:	00008c28 	andeq	r8, r0, r8, lsr #24
 280:	000000a0 	andeq	r0, r0, r0, lsr #1
 284:	84080e42 	strhi	r0, [r8], #-3650	; 0xe42
 288:	00018e02 	andeq	r8, r1, r2, lsl #28
 28c:	00000014 	andeq	r0, r0, r4, lsl r0
 290:	0000019c 	muleq	r0, ip, r1
 294:	00008cc8 	andeq	r8, r0, r8, asr #25
 298:	0000002c 	andeq	r0, r0, ip, lsr #32
 29c:	83080e42 	movwhi	r0, #36418	; 0x8e42
 2a0:	00018e02 	andeq	r8, r1, r2, lsl #28
 2a4:	00000014 	andeq	r0, r0, r4, lsl r0
 2a8:	0000019c 	muleq	r0, ip, r1
 2ac:	00008cf4 	strdeq	r8, [r0], -r4
 2b0:	0000000c 	andeq	r0, r0, ip
 2b4:	83080e42 	movwhi	r0, #36418	; 0x8e42
 2b8:	00018e02 	andeq	r8, r1, r2, lsl #28
 2bc:	0000000c 	andeq	r0, r0, ip
 2c0:	ffffffff 			; <UNDEFINED> instruction: 0xffffffff
 2c4:	7c020001 	stcvc	0, cr0, [r2], {1}
 2c8:	000d0c0e 	andeq	r0, sp, lr, lsl #24
 2cc:	00000014 	andeq	r0, r0, r4, lsl r0
 2d0:	000002bc 			; <UNDEFINED> instruction: 0x000002bc
 2d4:	00008d44 	andeq	r8, r0, r4, asr #26
 2d8:	000000f0 	strdeq	r0, [r0], -r0	; <UNPREDICTABLE>
 2dc:	84040e42 	strhi	r0, [r4], #-3650	; 0xe42
 2e0:	00000001 	andeq	r0, r0, r1
 2e4:	0000000c 	andeq	r0, r0, ip
 2e8:	ffffffff 			; <UNDEFINED> instruction: 0xffffffff
 2ec:	7c020001 	stcvc	0, cr0, [r2], {1}
 2f0:	000d0c0e 	andeq	r0, sp, lr, lsl #24
 2f4:	0000000c 	andeq	r0, r0, ip
 2f8:	000002e4 	andeq	r0, r0, r4, ror #5
 2fc:	00008e34 	andeq	r8, r0, r4, lsr lr
 300:	00000020 	andeq	r0, r0, r0, lsr #32
 304:	0000000c 	andeq	r0, r0, ip
 308:	ffffffff 			; <UNDEFINED> instruction: 0xffffffff
 30c:	7c020001 	stcvc	0, cr0, [r2], {1}
 310:	000d0c0e 	andeq	r0, sp, lr, lsl #24
 314:	00000024 	andeq	r0, r0, r4, lsr #32
 318:	00000304 	andeq	r0, r0, r4, lsl #6
 31c:	00008e54 	andeq	r8, r0, r4, asr lr
 320:	00000058 	andeq	r0, r0, r8, asr r0
 324:	80100e42 	andshi	r0, r0, r2, asr #28
 328:	82038104 	andhi	r8, r3, #4, 2
 32c:	42018302 	andmi	r8, r1, #134217728	; 0x8000000
 330:	07841c0e 	streq	r1, [r4, lr, lsl #24]
 334:	058e0685 	streq	r0, [lr, #1669]	; 0x685
 338:	00280e42 	eoreq	r0, r8, r2, asr #28
 33c:	0000000c 	andeq	r0, r0, ip
 340:	ffffffff 			; <UNDEFINED> instruction: 0xffffffff
 344:	7c020001 	stcvc	0, cr0, [r2], {1}
 348:	000d0c0e 	andeq	r0, sp, lr, lsl #24
 34c:	00000014 	andeq	r0, r0, r4, lsl r0
 350:	0000033c 	andeq	r0, r0, ip, lsr r3
 354:	00008eac 	andeq	r8, r0, ip, lsr #29
 358:	00000014 	andeq	r0, r0, r4, lsl r0
 35c:	84080e42 	strhi	r0, [r8], #-3650	; 0xe42
 360:	00018e02 	andeq	r8, r1, r2, lsl #28
 364:	0000000c 	andeq	r0, r0, ip
 368:	0000033c 	andeq	r0, r0, ip, lsr r3
 36c:	00008ec0 	andeq	r8, r0, r0, asr #29
 370:	00000018 	andeq	r0, r0, r8, lsl r0
 374:	0000000c 	andeq	r0, r0, ip
 378:	0000033c 	andeq	r0, r0, ip, lsr r3
 37c:	00008ed8 	ldrdeq	r8, [r0], -r8	; <UNPREDICTABLE>
 380:	00000010 	andeq	r0, r0, r0, lsl r0
 384:	0000000c 	andeq	r0, r0, ip
 388:	ffffffff 			; <UNDEFINED> instruction: 0xffffffff
 38c:	7c020001 	stcvc	0, cr0, [r2], {1}
 390:	000d0c0e 	andeq	r0, sp, lr, lsl #24
 394:	00000018 	andeq	r0, r0, r8, lsl r0
 398:	00000384 	andeq	r0, r0, r4, lsl #7
 39c:	00008ee8 	andeq	r8, r0, r8, ror #29
 3a0:	00000034 	andeq	r0, r0, r4, lsr r0
 3a4:	83100e42 	tsthi	r0, #1056	; 0x420
 3a8:	85038404 	strhi	r8, [r3, #-1028]	; 0x404
 3ac:	00018e02 	andeq	r8, r1, r2, lsl #28
 3b0:	0000000c 	andeq	r0, r0, ip
 3b4:	ffffffff 			; <UNDEFINED> instruction: 0xffffffff
 3b8:	7c020001 	stcvc	0, cr0, [r2], {1}
 3bc:	000d0c0e 	andeq	r0, sp, lr, lsl #24
 3c0:	0000000c 	andeq	r0, r0, ip
 3c4:	000003b0 			; <UNDEFINED> instruction: 0x000003b0
 3c8:	00008f1c 	andeq	r8, r0, ip, lsl pc
 3cc:	00000014 	andeq	r0, r0, r4, lsl r0
 3d0:	0000000c 	andeq	r0, r0, ip
 3d4:	000003b0 			; <UNDEFINED> instruction: 0x000003b0
 3d8:	00008f30 	andeq	r8, r0, r0, lsr pc
 3dc:	0000002c 	andeq	r0, r0, ip, lsr #32
 3e0:	0000000c 	andeq	r0, r0, ip
 3e4:	000003b0 			; <UNDEFINED> instruction: 0x000003b0
 3e8:	00008f5c 	andeq	r8, r0, ip, asr pc
 3ec:	00000040 	andeq	r0, r0, r0, asr #32
 3f0:	00000020 	andeq	r0, r0, r0, lsr #32
 3f4:	000003b0 			; <UNDEFINED> instruction: 0x000003b0
 3f8:	00008f9c 	muleq	r0, ip, pc	; <UNPREDICTABLE>
 3fc:	000001b0 			; <UNDEFINED> instruction: 0x000001b0
 400:	84180e42 	ldrhi	r0, [r8], #-3650	; 0xe42
 404:	86058506 	strhi	r8, [r5], -r6, lsl #10
 408:	88038704 	stmdahi	r3, {r2, r8, r9, sl, pc}
 40c:	42018e02 	andmi	r8, r1, #2, 28
 410:	0000580e 	andeq	r5, r0, lr, lsl #16
 414:	00000014 	andeq	r0, r0, r4, lsl r0
 418:	000003b0 			; <UNDEFINED> instruction: 0x000003b0
 41c:	0000914c 	andeq	r9, r0, ip, asr #2
 420:	00000054 	andeq	r0, r0, r4, asr r0
 424:	83080e42 	movwhi	r0, #36418	; 0x8e42
 428:	00018e02 	andeq	r8, r1, r2, lsl #28
 42c:	00000028 	andeq	r0, r0, r8, lsr #32
 430:	000003b0 			; <UNDEFINED> instruction: 0x000003b0
 434:	000091a0 	andeq	r9, r0, r0, lsr #3
 438:	00000288 	andeq	r0, r0, r8, lsl #5
 43c:	84240e42 	strthi	r0, [r4], #-3650	; 0xe42
 440:	86088509 	strhi	r8, [r8], -r9, lsl #10
 444:	88068707 	stmdahi	r6, {r0, r1, r2, r8, r9, sl, pc}
 448:	8a048905 	bhi	122864 <__bss_end__+0x118064>
 44c:	8e028b03 	vmlahi.f64	d8, d2, d3
 450:	b00e4201 	andlt	r4, lr, r1, lsl #4
 454:	00000001 	andeq	r0, r0, r1
 458:	0000000c 	andeq	r0, r0, ip
 45c:	ffffffff 			; <UNDEFINED> instruction: 0xffffffff
 460:	7c020001 	stcvc	0, cr0, [r2], {1}
 464:	000d0c0e 	andeq	r0, sp, lr, lsl #24
 468:	00000014 	andeq	r0, r0, r4, lsl r0
 46c:	00000458 	andeq	r0, r0, r8, asr r4
 470:	00009428 	andeq	r9, r0, r8, lsr #8
 474:	00000028 	andeq	r0, r0, r8, lsr #32
 478:	83080e42 	movwhi	r0, #36418	; 0x8e42
 47c:	00018e02 	andeq	r8, r1, r2, lsl #28
 480:	0000000c 	andeq	r0, r0, ip
 484:	ffffffff 			; <UNDEFINED> instruction: 0xffffffff
 488:	7c020001 	stcvc	0, cr0, [r2], {1}
 48c:	000d0c0e 	andeq	r0, sp, lr, lsl #24
 490:	00000014 	andeq	r0, r0, r4, lsl r0
 494:	00000480 	andeq	r0, r0, r0, lsl #9
 498:	00009450 	andeq	r9, r0, r0, asr r4
 49c:	00000034 	andeq	r0, r0, r4, lsr r0
 4a0:	83080e42 	movwhi	r0, #36418	; 0x8e42
 4a4:	00018e02 	andeq	r8, r1, r2, lsl #28
 4a8:	0000000c 	andeq	r0, r0, ip
 4ac:	ffffffff 			; <UNDEFINED> instruction: 0xffffffff
 4b0:	7c020001 	stcvc	0, cr0, [r2], {1}
 4b4:	000d0c0e 	andeq	r0, sp, lr, lsl #24
 4b8:	0000000c 	andeq	r0, r0, ip
 4bc:	000004a8 	andeq	r0, r0, r8, lsr #9
 4c0:	00009484 	andeq	r9, r0, r4, lsl #9
 4c4:	00000018 	andeq	r0, r0, r8, lsl r0
 4c8:	0000000c 	andeq	r0, r0, ip
 4cc:	000004a8 	andeq	r0, r0, r8, lsr #9
 4d0:	0000949c 	muleq	r0, ip, r4
 4d4:	00000014 	andeq	r0, r0, r4, lsl r0
 4d8:	00000014 	andeq	r0, r0, r4, lsl r0
 4dc:	000004a8 	andeq	r0, r0, r8, lsr #9
 4e0:	000094b0 			; <UNDEFINED> instruction: 0x000094b0
 4e4:	00000048 	andeq	r0, r0, r8, asr #32
 4e8:	83080e42 	movwhi	r0, #36418	; 0x8e42
 4ec:	00018e02 	andeq	r8, r1, r2, lsl #28
 4f0:	0000000c 	andeq	r0, r0, ip
 4f4:	ffffffff 			; <UNDEFINED> instruction: 0xffffffff
 4f8:	7c020001 	stcvc	0, cr0, [r2], {1}
 4fc:	000d0c0e 	andeq	r0, sp, lr, lsl #24
 500:	0000000c 	andeq	r0, r0, ip
 504:	000004f0 	strdeq	r0, [r0], -r0	; <UNPREDICTABLE>
 508:	000094f8 	strdeq	r9, [r0], -r8
 50c:	0000001c 	andeq	r0, r0, ip, lsl r0
 510:	00000014 	andeq	r0, r0, r4, lsl r0
 514:	000004f0 	strdeq	r0, [r0], -r0	; <UNPREDICTABLE>
 518:	00009514 	andeq	r9, r0, r4, lsl r5
 51c:	00000014 	andeq	r0, r0, r4, lsl r0
 520:	83080e42 	movwhi	r0, #36418	; 0x8e42
 524:	00018e02 	andeq	r8, r1, r2, lsl #28
 528:	00000014 	andeq	r0, r0, r4, lsl r0
 52c:	000004f0 	strdeq	r0, [r0], -r0	; <UNPREDICTABLE>
 530:	00009528 	andeq	r9, r0, r8, lsr #10
 534:	0000000c 	andeq	r0, r0, ip
 538:	83080e42 	movwhi	r0, #36418	; 0x8e42
 53c:	00018e02 	andeq	r8, r1, r2, lsl #28
 540:	00000018 	andeq	r0, r0, r8, lsl r0
 544:	000004f0 	strdeq	r0, [r0], -r0	; <UNPREDICTABLE>
 548:	00009534 	andeq	r9, r0, r4, lsr r5
 54c:	00000024 	andeq	r0, r0, r4, lsr #32
 550:	83100e42 	tsthi	r0, #1056	; 0x420
 554:	85038404 	strhi	r8, [r3, #-1028]	; 0x404
 558:	00018e02 	andeq	r8, r1, r2, lsl #28
 55c:	00000014 	andeq	r0, r0, r4, lsl r0
 560:	000004f0 	strdeq	r0, [r0], -r0	; <UNPREDICTABLE>
 564:	00009558 	andeq	r9, r0, r8, asr r5
 568:	00000014 	andeq	r0, r0, r4, lsl r0
 56c:	83080e42 	movwhi	r0, #36418	; 0x8e42
 570:	00018e02 	andeq	r8, r1, r2, lsl #28
 574:	00000014 	andeq	r0, r0, r4, lsl r0
 578:	000004f0 	strdeq	r0, [r0], -r0	; <UNPREDICTABLE>
 57c:	0000956c 	andeq	r9, r0, ip, ror #10
 580:	00000014 	andeq	r0, r0, r4, lsl r0
 584:	83080e42 	movwhi	r0, #36418	; 0x8e42
 588:	00018e02 	andeq	r8, r1, r2, lsl #28
 58c:	0000000c 	andeq	r0, r0, ip
 590:	ffffffff 			; <UNDEFINED> instruction: 0xffffffff
 594:	7c020001 	stcvc	0, cr0, [r2], {1}
 598:	000d0c0e 	andeq	r0, sp, lr, lsl #24
 59c:	00000018 	andeq	r0, r0, r8, lsl r0
 5a0:	0000058c 	andeq	r0, r0, ip, lsl #11
 5a4:	000095cc 	andeq	r9, r0, ip, asr #11
 5a8:	00000020 	andeq	r0, r0, r0, lsr #32
 5ac:	84100e42 	ldrhi	r0, [r0], #-3650	; 0xe42
 5b0:	86038504 	strhi	r8, [r3], -r4, lsl #10
 5b4:	00018e02 	andeq	r8, r1, r2, lsl #28
 5b8:	00000014 	andeq	r0, r0, r4, lsl r0
 5bc:	0000058c 	andeq	r0, r0, ip, lsl #11
 5c0:	000095ec 	andeq	r9, r0, ip, ror #11
 5c4:	000000b0 	strheq	r0, [r0], -r0	; <UNPREDICTABLE>
 5c8:	84080e42 	strhi	r0, [r8], #-3650	; 0xe42
 5cc:	00018e02 	andeq	r8, r1, r2, lsl #28
 5d0:	00000014 	andeq	r0, r0, r4, lsl r0
 5d4:	0000058c 	andeq	r0, r0, ip, lsl #11
 5d8:	0000969c 	muleq	r0, ip, r6
 5dc:	00000018 	andeq	r0, r0, r8, lsl r0
 5e0:	84080e42 	strhi	r0, [r8], #-3650	; 0xe42
 5e4:	00018e02 	andeq	r8, r1, r2, lsl #28
 5e8:	00000014 	andeq	r0, r0, r4, lsl r0
 5ec:	0000058c 	andeq	r0, r0, ip, lsl #11
 5f0:	000096b4 			; <UNDEFINED> instruction: 0x000096b4
 5f4:	00000020 	andeq	r0, r0, r0, lsr #32
 5f8:	84080e42 	strhi	r0, [r8], #-3650	; 0xe42
 5fc:	00018e02 	andeq	r8, r1, r2, lsl #28
 600:	00000014 	andeq	r0, r0, r4, lsl r0
 604:	0000058c 	andeq	r0, r0, ip, lsl #11
 608:	000096d4 	ldrdeq	r9, [r0], -r4
 60c:	00000030 	andeq	r0, r0, r0, lsr r0
 610:	84080e42 	strhi	r0, [r8], #-3650	; 0xe42
 614:	00018e02 	andeq	r8, r1, r2, lsl #28
 618:	00000014 	andeq	r0, r0, r4, lsl r0
 61c:	0000058c 	andeq	r0, r0, ip, lsl #11
 620:	00009704 	andeq	r9, r0, r4, lsl #14
 624:	00000030 	andeq	r0, r0, r0, lsr r0
 628:	84080e42 	strhi	r0, [r8], #-3650	; 0xe42
 62c:	00018e02 	andeq	r8, r1, r2, lsl #28
 630:	00000014 	andeq	r0, r0, r4, lsl r0
 634:	0000058c 	andeq	r0, r0, ip, lsl #11
 638:	00009734 	andeq	r9, r0, r4, lsr r7
 63c:	00000010 	andeq	r0, r0, r0, lsl r0
 640:	84080e42 	strhi	r0, [r8], #-3650	; 0xe42
 644:	00018e02 	andeq	r8, r1, r2, lsl #28
 648:	0000000c 	andeq	r0, r0, ip
 64c:	ffffffff 			; <UNDEFINED> instruction: 0xffffffff
 650:	7c020001 	stcvc	0, cr0, [r2], {1}
 654:	000d0c0e 	andeq	r0, sp, lr, lsl #24
 658:	00000018 	andeq	r0, r0, r8, lsl r0
 65c:	00000648 	andeq	r0, r0, r8, asr #12
 660:	00009744 	andeq	r9, r0, r4, asr #14
 664:	00000068 	andeq	r0, r0, r8, rrx
 668:	84100e4a 	ldrhi	r0, [r0], #-3658	; 0xe4a
 66c:	86038504 	strhi	r8, [r3], -r4, lsl #10
 670:	00018e02 	andeq	r8, r1, r2, lsl #28
 674:	00000014 	andeq	r0, r0, r4, lsl r0
 678:	00000648 	andeq	r0, r0, r8, asr #12
 67c:	000097ac 	andeq	r9, r0, ip, lsr #15
 680:	00000010 	andeq	r0, r0, r0, lsl r0
 684:	84080e42 	strhi	r0, [r8], #-3650	; 0xe42
 688:	00018e02 	andeq	r8, r1, r2, lsl #28
 68c:	00000014 	andeq	r0, r0, r4, lsl r0
 690:	00000648 	andeq	r0, r0, r8, asr #12
 694:	000097bc 			; <UNDEFINED> instruction: 0x000097bc
 698:	00000024 	andeq	r0, r0, r4, lsr #32
 69c:	84080e46 	strhi	r0, [r8], #-3654	; 0xe46
 6a0:	00018e02 	andeq	r8, r1, r2, lsl #28
 6a4:	00000014 	andeq	r0, r0, r4, lsl r0
 6a8:	00000648 	andeq	r0, r0, r8, asr #12
 6ac:	000097e0 	andeq	r9, r0, r0, ror #15
 6b0:	00000024 	andeq	r0, r0, r4, lsr #32
 6b4:	84080e46 	strhi	r0, [r8], #-3654	; 0xe46
 6b8:	00018e02 	andeq	r8, r1, r2, lsl #28
 6bc:	00000014 	andeq	r0, r0, r4, lsl r0
 6c0:	00000648 	andeq	r0, r0, r8, asr #12
 6c4:	00009804 	andeq	r9, r0, r4, lsl #16
 6c8:	00000010 	andeq	r0, r0, r0, lsl r0
 6cc:	84080e42 	strhi	r0, [r8], #-3650	; 0xe42
 6d0:	00018e02 	andeq	r8, r1, r2, lsl #28
 6d4:	00000014 	andeq	r0, r0, r4, lsl r0
 6d8:	00000648 	andeq	r0, r0, r8, asr #12
 6dc:	00009814 	andeq	r9, r0, r4, lsl r8
 6e0:	0000001c 	andeq	r0, r0, ip, lsl r0
 6e4:	84080e42 	strhi	r0, [r8], #-3650	; 0xe42
 6e8:	00018e02 	andeq	r8, r1, r2, lsl #28
 6ec:	00000018 	andeq	r0, r0, r8, lsl r0
 6f0:	00000648 	andeq	r0, r0, r8, asr #12
 6f4:	00009830 	andeq	r9, r0, r0, lsr r8
 6f8:	00000034 	andeq	r0, r0, r4, lsr r0
 6fc:	84080e46 	strhi	r0, [r8], #-3654	; 0xe46
 700:	4e018e02 	cdpmi	14, 0, cr8, cr1, cr2, {0}
 704:	cec4000e 	cdpgt	0, 12, cr0, cr4, cr14, {0}
 708:	0000000c 	andeq	r0, r0, ip
 70c:	ffffffff 			; <UNDEFINED> instruction: 0xffffffff
 710:	7c020001 	stcvc	0, cr0, [r2], {1}
 714:	000d0c0e 	andeq	r0, sp, lr, lsl #24
 718:	0000000c 	andeq	r0, r0, ip
 71c:	00000708 	andeq	r0, r0, r8, lsl #14
 720:	00009864 	andeq	r9, r0, r4, ror #16
 724:	00000010 	andeq	r0, r0, r0, lsl r0
 728:	0000000c 	andeq	r0, r0, ip
 72c:	00000708 	andeq	r0, r0, r8, lsl #14
 730:	00009874 	andeq	r9, r0, r4, ror r8
 734:	0000000c 	andeq	r0, r0, ip
 738:	00000014 	andeq	r0, r0, r4, lsl r0
 73c:	00000708 	andeq	r0, r0, r8, lsl #14
 740:	00009880 	andeq	r9, r0, r0, lsl #17
 744:	00000050 	andeq	r0, r0, r0, asr r0
 748:	84080e52 	strhi	r0, [r8], #-3666	; 0xe52
 74c:	00018e02 	andeq	r8, r1, r2, lsl #28
 750:	00000014 	andeq	r0, r0, r4, lsl r0
 754:	00000708 	andeq	r0, r0, r8, lsl #14
 758:	000098d0 	ldrdeq	r9, [r0], -r0
 75c:	00000064 	andeq	r0, r0, r4, rrx
 760:	84080e42 	strhi	r0, [r8], #-3650	; 0xe42
 764:	00018e02 	andeq	r8, r1, r2, lsl #28
 768:	0000000c 	andeq	r0, r0, ip
 76c:	00000708 	andeq	r0, r0, r8, lsl #14
 770:	00009934 	andeq	r9, r0, r4, lsr r9
 774:	00000004 	andeq	r0, r0, r4
 778:	00000014 	andeq	r0, r0, r4, lsl r0
 77c:	00000708 	andeq	r0, r0, r8, lsl #14
 780:	00009938 	andeq	r9, r0, r8, lsr r9
 784:	0000000c 	andeq	r0, r0, ip
 788:	84080e42 	strhi	r0, [r8], #-3650	; 0xe42
 78c:	00018e02 	andeq	r8, r1, r2, lsl #28
 790:	00000014 	andeq	r0, r0, r4, lsl r0
 794:	00000708 	andeq	r0, r0, r8, lsl #14
 798:	00009944 	andeq	r9, r0, r4, asr #18
 79c:	0000008c 	andeq	r0, r0, ip, lsl #1
 7a0:	84080e42 	strhi	r0, [r8], #-3650	; 0xe42
 7a4:	00018e02 	andeq	r8, r1, r2, lsl #28
 7a8:	0000000c 	andeq	r0, r0, ip
 7ac:	00000708 	andeq	r0, r0, r8, lsl #14
 7b0:	000099d0 	ldrdeq	r9, [r0], -r0
 7b4:	00000004 	andeq	r0, r0, r4
 7b8:	0000000c 	andeq	r0, r0, ip
 7bc:	00000708 	andeq	r0, r0, r8, lsl #14
 7c0:	000099d4 	ldrdeq	r9, [r0], -r4
 7c4:	00000014 	andeq	r0, r0, r4, lsl r0
 7c8:	0000000c 	andeq	r0, r0, ip
 7cc:	00000708 	andeq	r0, r0, r8, lsl #14
 7d0:	000099e8 	andeq	r9, r0, r8, ror #19
 7d4:	00000010 	andeq	r0, r0, r0, lsl r0

Disassembly of section .debug_ranges:

00000000 <.debug_ranges>:
   0:	00000020 	andeq	r0, r0, r0, lsr #32
   4:	000000c4 	andeq	r0, r0, r4, asr #1
   8:	000000d8 	ldrdeq	r0, [r0], -r8
   c:	000000e4 	andeq	r0, r0, r4, ror #1
	...
  18:	000006bc 			; <UNDEFINED> instruction: 0x000006bc
  1c:	000006c4 	andeq	r0, r0, r4, asr #13
  20:	000006c8 	andeq	r0, r0, r8, asr #13
  24:	00000750 	andeq	r0, r0, r0, asr r7
	...
  30:	00000174 	andeq	r0, r0, r4, ror r1
  34:	000001bc 			; <UNDEFINED> instruction: 0x000001bc
  38:	000001c0 	andeq	r0, r0, r0, asr #3
  3c:	000001d4 	ldrdeq	r0, [r0], -r4
	...
  48:	000002a8 	andeq	r0, r0, r8, lsr #5
  4c:	000002ac 	andeq	r0, r0, ip, lsr #5
  50:	000002dc 	ldrdeq	r0, [r0], -ip
  54:	000004cc 	andeq	r0, r0, ip, asr #9
	...
  60:	00009484 	andeq	r9, r0, r4, lsl #9
  64:	000094f8 	strdeq	r9, [r0], -r8
	...
