
tests/part2-test3.elf:     file format elf32-littlearm


Disassembly of section .text:

00008000 <__code_start__>:
    8000:	e3a0d302 	mov	sp, #134217728	; 0x8000000
    8004:	e3a0b000 	mov	fp, #0
    8008:	eb0005a4 	bl	96a0 <_cstart>
    800c:	eb0005bb 	bl	9700 <rpi_reboot>

00008010 <test>:
    8010:	e92d4ff8 	push	{r3, r4, r5, r6, r7, r8, r9, sl, fp, lr}
    8014:	e3a05000 	mov	r5, #0
    8018:	e1a06005 	mov	r6, r5
    801c:	e59fb058 	ldr	fp, [pc, #88]	; 807c <test+0x6c>
    8020:	e59fa058 	ldr	sl, [pc, #88]	; 8080 <test+0x70>
    8024:	e3a08008 	mov	r8, #8
    8028:	e3a09012 	mov	r9, #18
    802c:	e1a07005 	mov	r7, r5
    8030:	ea00000c 	b	8068 <test+0x58>
    8034:	e1a00008 	mov	r0, r8
    8038:	e1a0100b 	mov	r1, fp
    803c:	e1a0200a 	mov	r2, sl
    8040:	e1a03009 	mov	r3, r9
    8044:	eb000105 	bl	8460 <ckalloc>
    8048:	e1a04000 	mov	r4, r0
    804c:	e1a01007 	mov	r1, r7
    8050:	e1a02008 	mov	r2, r8
    8054:	eb00040a 	bl	9084 <memset>
    8058:	e5847000 	str	r7, [r4]
    805c:	e5846004 	str	r6, [r4, #4]
    8060:	e2855001 	add	r5, r5, #1
    8064:	e1a06004 	mov	r6, r4
    8068:	e3550063 	cmp	r5, #99	; 0x63
    806c:	dafffff0 	ble	8034 <test+0x24>
    8070:	eb000365 	bl	8e0c <check_no_leak>
    8074:	e1a00006 	mov	r0, r6
    8078:	e8bd8ff8 	pop	{r3, r4, r5, r6, r7, r8, r9, sl, fp, pc}
    807c:	00009c78 	andeq	r9, r0, r8, ror ip
    8080:	00009c70 	andeq	r9, r0, r0, ror ip

00008084 <notmain>:
    8084:	e92d4008 	push	{r3, lr}
    8088:	e59f002c 	ldr	r0, [pc, #44]	; 80bc <notmain+0x38>
    808c:	eb000404 	bl	90a4 <printk>
    8090:	e3a00601 	mov	r0, #1048576	; 0x100000
    8094:	eb00068d 	bl	9ad0 <kmalloc_init_set_start>
    8098:	e3a00601 	mov	r0, #1048576	; 0x100000
    809c:	eb00069f 	bl	9b20 <kmalloc>
    80a0:	e3a01601 	mov	r1, #1048576	; 0x100000
    80a4:	eb000097 	bl	8308 <ck_init>
    80a8:	ebffffd8 	bl	8010 <test>
    80ac:	e1a01000 	mov	r1, r0
    80b0:	e59f0008 	ldr	r0, [pc, #8]	; 80c0 <notmain+0x3c>
    80b4:	eb0003fa 	bl	90a4 <printk>
    80b8:	e8bd8008 	pop	{r3, pc}
    80bc:	00009c8c 	andeq	r9, r0, ip, lsl #25
    80c0:	00009cd0 	ldrdeq	r9, [r0], -r0

000080c4 <check_mem>:
    80c4:	e92d41f0 	push	{r4, r5, r6, r7, r8, lr}
    80c8:	e1a05000 	mov	r5, r0
    80cc:	e3a03000 	mov	r3, #0
    80d0:	ea000030 	b	8198 <check_mem+0xd4>
    80d4:	e0814003 	add	r4, r1, r3
    80d8:	e7d1c003 	ldrb	ip, [r1, r3]
    80dc:	e35c00fe 	cmp	ip, #254	; 0xfe
    80e0:	0a00002b 	beq	8194 <check_mem+0xd0>
    80e4:	e28570b8 	add	r7, r5, #184	; 0xb8
    80e8:	e0678004 	rsb	r8, r7, r4
    80ec:	e59f60b4 	ldr	r6, [pc, #180]	; 81a8 <check_mem+0xe4>
    80f0:	e1a00006 	mov	r0, r6
    80f4:	eb0003ea 	bl	90a4 <printk>
    80f8:	e59f00ac 	ldr	r0, [pc, #172]	; 81ac <check_mem+0xe8>
    80fc:	eb0003e8 	bl	90a4 <printk>
    8100:	e59f00a8 	ldr	r0, [pc, #168]	; 81b0 <check_mem+0xec>
    8104:	e1a01007 	mov	r1, r7
    8108:	e1a02008 	mov	r2, r8
    810c:	eb0003e4 	bl	90a4 <printk>
    8110:	e1a00006 	mov	r0, r6
    8114:	eb0003e2 	bl	90a4 <printk>
    8118:	e59f0094 	ldr	r0, [pc, #148]	; 81b4 <check_mem+0xf0>
    811c:	e5951000 	ldr	r1, [r5]
    8120:	eb0003df 	bl	90a4 <printk>
    8124:	e5953010 	ldr	r3, [r5, #16]
    8128:	e3530000 	cmp	r3, #0
    812c:	0a000006 	beq	814c <check_mem+0x88>
    8130:	e1a00006 	mov	r0, r6
    8134:	eb0003da 	bl	90a4 <printk>
    8138:	e59f0078 	ldr	r0, [pc, #120]	; 81b8 <check_mem+0xf4>
    813c:	e5951010 	ldr	r1, [r5, #16]
    8140:	e5952014 	ldr	r2, [r5, #20]
    8144:	e5953018 	ldr	r3, [r5, #24]
    8148:	eb0003d5 	bl	90a4 <printk>
    814c:	e5953008 	ldr	r3, [r5, #8]
    8150:	e353000c 	cmp	r3, #12
    8154:	1a000009 	bne	8180 <check_mem+0xbc>
    8158:	e595301c 	ldr	r3, [r5, #28]
    815c:	e3530000 	cmp	r3, #0
    8160:	0a000006 	beq	8180 <check_mem+0xbc>
    8164:	e59f003c 	ldr	r0, [pc, #60]	; 81a8 <check_mem+0xe4>
    8168:	eb0003cd 	bl	90a4 <printk>
    816c:	e59f0048 	ldr	r0, [pc, #72]	; 81bc <check_mem+0xf8>
    8170:	e595101c 	ldr	r1, [r5, #28]
    8174:	e5952020 	ldr	r2, [r5, #32]
    8178:	e5953024 	ldr	r3, [r5, #36]	; 0x24
    817c:	eb0003c8 	bl	90a4 <printk>
    8180:	e59f0038 	ldr	r0, [pc, #56]	; 81c0 <check_mem+0xfc>
    8184:	e5d41000 	ldrb	r1, [r4]
    8188:	eb0003c5 	bl	90a4 <printk>
    818c:	e3a00000 	mov	r0, #0
    8190:	e8bd81f0 	pop	{r4, r5, r6, r7, r8, pc}
    8194:	e2833001 	add	r3, r3, #1
    8198:	e1530002 	cmp	r3, r2
    819c:	3affffcc 	bcc	80d4 <check_mem+0x10>
    81a0:	e3a00001 	mov	r0, #1
    81a4:	e8bd81f0 	pop	{r4, r5, r6, r7, r8, pc}
    81a8:	00009d30 	andeq	r9, r0, r0, lsr sp
    81ac:	00009d38 	andeq	r9, r0, r8, lsr sp
    81b0:	00009d40 	andeq	r9, r0, r0, asr #26
    81b4:	00009d64 	andeq	r9, r0, r4, ror #26
    81b8:	00009d70 	andeq	r9, r0, r0, ror sp
    81bc:	00009d90 	muleq	r0, r0, sp
    81c0:	00009dac 	andeq	r9, r0, ip, lsr #27

000081c4 <mark_mem>:
    81c4:	e92d4008 	push	{r3, lr}
    81c8:	e1a02001 	mov	r2, r1
    81cc:	e3a010fe 	mov	r1, #254	; 0xfe
    81d0:	eb0003ab 	bl	9084 <memset>
    81d4:	e8bd8008 	pop	{r3, pc}

000081d8 <hdr_cksum>:
    81d8:	e92d41f0 	push	{r4, r5, r6, r7, r8, lr}
    81dc:	e1a04000 	mov	r4, r0
    81e0:	e590800c 	ldr	r8, [r0, #12]
    81e4:	e5907028 	ldr	r7, [r0, #40]	; 0x28
    81e8:	e590602c 	ldr	r6, [r0, #44]	; 0x2c
    81ec:	e1d053b4 	ldrh	r5, [r0, #52]	; 0x34
    81f0:	e3a03000 	mov	r3, #0
    81f4:	e580300c 	str	r3, [r0, #12]
    81f8:	e5803028 	str	r3, [r0, #40]	; 0x28
    81fc:	e580302c 	str	r3, [r0, #44]	; 0x2c
    8200:	e1c033b4 	strh	r3, [r0, #52]	; 0x34
    8204:	e3a01038 	mov	r1, #56	; 0x38
    8208:	eb000361 	bl	8f94 <fast_hash>
    820c:	e584800c 	str	r8, [r4, #12]
    8210:	e5847028 	str	r7, [r4, #40]	; 0x28
    8214:	e584602c 	str	r6, [r4, #44]	; 0x2c
    8218:	e1c453b4 	strh	r5, [r4, #52]	; 0x34
    821c:	e8bd81f0 	pop	{r4, r5, r6, r7, r8, pc}

00008220 <check_hdr>:
    8220:	e92d4010 	push	{r4, lr}
    8224:	e1a04000 	mov	r4, r0
    8228:	ebffffea 	bl	81d8 <hdr_cksum>
    822c:	e594300c 	ldr	r3, [r4, #12]
    8230:	e1530000 	cmp	r3, r0
    8234:	0a000006 	beq	8254 <check_hdr+0x34>
    8238:	eb0003b4 	bl	9110 <rpi_reset_putc>
    823c:	e59f0044 	ldr	r0, [pc, #68]	; 8288 <check_hdr+0x68>
    8240:	e59f1044 	ldr	r1, [pc, #68]	; 828c <check_hdr+0x6c>
    8244:	e59f2044 	ldr	r2, [pc, #68]	; 8290 <check_hdr+0x70>
    8248:	e3a0302f 	mov	r3, #47	; 0x2f
    824c:	eb000394 	bl	90a4 <printk>
    8250:	eb000508 	bl	9678 <clean_reboot>
    8254:	e5943008 	ldr	r3, [r4, #8]
    8258:	e243300b 	sub	r3, r3, #11
    825c:	e3530001 	cmp	r3, #1
    8260:	9a000006 	bls	8280 <check_hdr+0x60>
    8264:	eb0003a9 	bl	9110 <rpi_reset_putc>
    8268:	e59f0024 	ldr	r0, [pc, #36]	; 8294 <check_hdr+0x74>
    826c:	e59f1018 	ldr	r1, [pc, #24]	; 828c <check_hdr+0x6c>
    8270:	e59f2018 	ldr	r2, [pc, #24]	; 8290 <check_hdr+0x70>
    8274:	e3a03030 	mov	r3, #48	; 0x30
    8278:	eb000389 	bl	90a4 <printk>
    827c:	eb0004fd 	bl	9678 <clean_reboot>
    8280:	e3a00001 	mov	r0, #1
    8284:	e8bd8010 	pop	{r4, pc}
    8288:	00009db8 			; <UNDEFINED> instruction: 0x00009db8
    828c:	00009de4 	andeq	r9, r0, r4, ror #27
    8290:	00009ce0 	andeq	r9, r0, r0, ror #25
    8294:	00009df0 	strdeq	r9, [r0], -r0

00008298 <check_block>:
    8298:	e92d4010 	push	{r4, lr}
    829c:	e1a04000 	mov	r4, r0
    82a0:	ebffffde 	bl	8220 <check_hdr>
    82a4:	e3500000 	cmp	r0, #0
    82a8:	0a000010 	beq	82f0 <check_block+0x58>
    82ac:	e1a00004 	mov	r0, r4
    82b0:	e2841038 	add	r1, r4, #56	; 0x38
    82b4:	e3a02080 	mov	r2, #128	; 0x80
    82b8:	ebffff81 	bl	80c4 <check_mem>
    82bc:	e3500000 	cmp	r0, #0
    82c0:	0a00000c 	beq	82f8 <check_block+0x60>
    82c4:	e28410b8 	add	r1, r4, #184	; 0xb8
    82c8:	e5943000 	ldr	r3, [r4]
    82cc:	e5942004 	ldr	r2, [r4, #4]
    82d0:	e1a00004 	mov	r0, r4
    82d4:	e0811003 	add	r1, r1, r3
    82d8:	e2822080 	add	r2, r2, #128	; 0x80
    82dc:	ebffff78 	bl	80c4 <check_mem>
    82e0:	e3500000 	cmp	r0, #0
    82e4:	0a000005 	beq	8300 <check_block+0x68>
    82e8:	e3a00001 	mov	r0, #1
    82ec:	e8bd8010 	pop	{r4, pc}
    82f0:	e3a00000 	mov	r0, #0
    82f4:	e8bd8010 	pop	{r4, pc}
    82f8:	e3a00000 	mov	r0, #0
    82fc:	e8bd8010 	pop	{r4, pc}
    8300:	e3a00000 	mov	r0, #0
    8304:	e8bd8010 	pop	{r4, pc}

00008308 <ck_init>:
    8308:	e92d4038 	push	{r3, r4, r5, lr}
    830c:	e1a04000 	mov	r4, r0
    8310:	e1a05001 	mov	r5, r1
    8314:	e59f3060 	ldr	r3, [pc, #96]	; 837c <ck_init+0x74>
    8318:	e5933000 	ldr	r3, [r3]
    831c:	e3130007 	tst	r3, #7
    8320:	0a000006 	beq	8340 <ck_init+0x38>
    8324:	eb000379 	bl	9110 <rpi_reset_putc>
    8328:	e59f0050 	ldr	r0, [pc, #80]	; 8380 <ck_init+0x78>
    832c:	e59f1050 	ldr	r1, [pc, #80]	; 8384 <ck_init+0x7c>
    8330:	e59f2050 	ldr	r2, [pc, #80]	; 8388 <ck_init+0x80>
    8334:	e3a0300d 	mov	r3, #13
    8338:	eb000359 	bl	90a4 <printk>
    833c:	eb0004cd 	bl	9678 <clean_reboot>
    8340:	e59f0044 	ldr	r0, [pc, #68]	; 838c <ck_init+0x84>
    8344:	e3a01038 	mov	r1, #56	; 0x38
    8348:	e3a02080 	mov	r2, #128	; 0x80
    834c:	eb000354 	bl	90a4 <printk>
    8350:	e59f3024 	ldr	r3, [pc, #36]	; 837c <ck_init+0x74>
    8354:	e5834000 	str	r4, [r3]
    8358:	e5834004 	str	r4, [r3, #4]
    835c:	e0845005 	add	r5, r4, r5
    8360:	e5835008 	str	r5, [r3, #8]
    8364:	e583400c 	str	r4, [r3, #12]
    8368:	e5834010 	str	r4, [r3, #16]
    836c:	e3a02000 	mov	r2, #0
    8370:	e5832014 	str	r2, [r3, #20]
    8374:	e5832018 	str	r2, [r3, #24]
    8378:	e8bd8038 	pop	{r3, r4, r5, pc}
    837c:	0000a748 	andeq	sl, r0, r8, asr #14
    8380:	00009e2c 	andeq	r9, r0, ip, lsr #28
    8384:	00009de4 	andeq	r9, r0, r4, ror #27
    8388:	00009cec 	andeq	r9, r0, ip, ror #25
    838c:	00009e54 	andeq	r9, r0, r4, asr lr

00008390 <ckfree>:
    8390:	e92d41f0 	push	{r4, r5, r6, r7, r8, lr}
    8394:	e1a04000 	mov	r4, r0
    8398:	e1a08001 	mov	r8, r1
    839c:	e1a07002 	mov	r7, r2
    83a0:	e1a06003 	mov	r6, r3
    83a4:	e59f009c 	ldr	r0, [pc, #156]	; 8448 <ckfree+0xb8>
    83a8:	e5900004 	ldr	r0, [r0, #4]
    83ac:	e3500000 	cmp	r0, #0
    83b0:	1a000006 	bne	83d0 <ckfree+0x40>
    83b4:	eb000355 	bl	9110 <rpi_reset_putc>
    83b8:	e59f008c 	ldr	r0, [pc, #140]	; 844c <ckfree+0xbc>
    83bc:	e59f108c 	ldr	r1, [pc, #140]	; 8450 <ckfree+0xc0>
    83c0:	e59f208c 	ldr	r2, [pc, #140]	; 8454 <ckfree+0xc4>
    83c4:	e3a0305a 	mov	r3, #90	; 0x5a
    83c8:	eb000335 	bl	90a4 <printk>
    83cc:	eb0004a9 	bl	9678 <clean_reboot>
    83d0:	e59f0080 	ldr	r0, [pc, #128]	; 8458 <ckfree+0xc8>
    83d4:	eb000332 	bl	90a4 <printk>
    83d8:	e59f007c 	ldr	r0, [pc, #124]	; 845c <ckfree+0xcc>
    83dc:	e1a01004 	mov	r1, r4
    83e0:	eb00032f 	bl	90a4 <printk>
    83e4:	e24450b8 	sub	r5, r4, #184	; 0xb8
    83e8:	e1a00005 	mov	r0, r5
    83ec:	ebffffa9 	bl	8298 <check_block>
    83f0:	e3500000 	cmp	r0, #0
    83f4:	08bd81f0 	popeq	{r4, r5, r6, r7, r8, pc}
    83f8:	e51430b0 	ldr	r3, [r4, #-176]	; 0xb0
    83fc:	e353000c 	cmp	r3, #12
    8400:	08bd81f0 	popeq	{r4, r5, r6, r7, r8, pc}
    8404:	e3a0300c 	mov	r3, #12
    8408:	e50430b0 	str	r3, [r4, #-176]	; 0xb0
    840c:	e1a00004 	mov	r0, r4
    8410:	e51410b8 	ldr	r1, [r4, #-184]	; 0xb8
    8414:	ebffff6a 	bl	81c4 <mark_mem>
    8418:	e504809c 	str	r8, [r4, #-156]	; 0x9c
    841c:	e5047098 	str	r7, [r4, #-152]	; 0x98
    8420:	e5046094 	str	r6, [r4, #-148]	; 0x94
    8424:	e51420b8 	ldr	r2, [r4, #-184]	; 0xb8
    8428:	e59f3018 	ldr	r3, [pc, #24]	; 8448 <ckfree+0xb8>
    842c:	e5931014 	ldr	r1, [r3, #20]
    8430:	e0812002 	add	r2, r1, r2
    8434:	e5832014 	str	r2, [r3, #20]
    8438:	e1a00005 	mov	r0, r5
    843c:	ebffff65 	bl	81d8 <hdr_cksum>
    8440:	e50400ac 	str	r0, [r4, #-172]	; 0xac
    8444:	e8bd81f0 	pop	{r4, r5, r6, r7, r8, pc}
    8448:	0000a748 	andeq	sl, r0, r8, asr #14
    844c:	00009e70 	andeq	r9, r0, r0, ror lr
    8450:	00009de4 	andeq	r9, r0, r4, ror #27
    8454:	00009cf4 	strdeq	r9, [r0], -r4
    8458:	00009d30 	andeq	r9, r0, r0, lsr sp
    845c:	00009ea4 	andeq	r9, r0, r4, lsr #29

00008460 <ckalloc>:
    8460:	e92d43f0 	push	{r4, r5, r6, r7, r8, r9, lr}
    8464:	e24dd00c 	sub	sp, sp, #12
    8468:	e1a05000 	mov	r5, r0
    846c:	e1a09001 	mov	r9, r1
    8470:	e1a08002 	mov	r8, r2
    8474:	e1a07003 	mov	r7, r3
    8478:	e59f31d4 	ldr	r3, [pc, #468]	; 8654 <ckalloc+0x1f4>
    847c:	e5933004 	ldr	r3, [r3, #4]
    8480:	e3530000 	cmp	r3, #0
    8484:	1a000006 	bne	84a4 <ckalloc+0x44>
    8488:	eb000320 	bl	9110 <rpi_reset_putc>
    848c:	e59f01c4 	ldr	r0, [pc, #452]	; 8658 <ckalloc+0x1f8>
    8490:	e59f11c4 	ldr	r1, [pc, #452]	; 865c <ckalloc+0x1fc>
    8494:	e59f21c4 	ldr	r2, [pc, #452]	; 8660 <ckalloc+0x200>
    8498:	e3a03078 	mov	r3, #120	; 0x78
    849c:	eb000300 	bl	90a4 <printk>
    84a0:	eb000474 	bl	9678 <clean_reboot>
    84a4:	e59f01b8 	ldr	r0, [pc, #440]	; 8664 <ckalloc+0x204>
    84a8:	eb0002fd 	bl	90a4 <printk>
    84ac:	e59f01b4 	ldr	r0, [pc, #436]	; 8668 <ckalloc+0x208>
    84b0:	e1a01005 	mov	r1, r5
    84b4:	eb0002fa 	bl	90a4 <printk>
    84b8:	e2852007 	add	r2, r5, #7
    84bc:	e3c22007 	bic	r2, r2, #7
    84c0:	e2826f4e 	add	r6, r2, #312	; 0x138
    84c4:	e1560005 	cmp	r6, r5
    84c8:	2a00000c 	bcs	8500 <ckalloc+0xa0>
    84cc:	e59f0198 	ldr	r0, [pc, #408]	; 866c <ckalloc+0x20c>
    84d0:	eb0002f3 	bl	90a4 <printk>
    84d4:	e59f0194 	ldr	r0, [pc, #404]	; 8670 <ckalloc+0x210>
    84d8:	e1a01005 	mov	r1, r5
    84dc:	eb0002f0 	bl	90a4 <printk>
    84e0:	eb00030a 	bl	9110 <rpi_reset_putc>
    84e4:	e58d5000 	str	r5, [sp]
    84e8:	e59f0184 	ldr	r0, [pc, #388]	; 8674 <ckalloc+0x214>
    84ec:	e59f1168 	ldr	r1, [pc, #360]	; 865c <ckalloc+0x1fc>
    84f0:	e59f2168 	ldr	r2, [pc, #360]	; 8660 <ckalloc+0x200>
    84f4:	e3a03080 	mov	r3, #128	; 0x80
    84f8:	eb0002e9 	bl	90a4 <printk>
    84fc:	eb00045d 	bl	9678 <clean_reboot>
    8500:	e59f314c 	ldr	r3, [pc, #332]	; 8654 <ckalloc+0x1f4>
    8504:	e5934004 	ldr	r4, [r3, #4]
    8508:	e084c006 	add	ip, r4, r6
    850c:	e5933008 	ldr	r3, [r3, #8]
    8510:	e15c0003 	cmp	ip, r3
    8514:	3a000014 	bcc	856c <ckalloc+0x10c>
    8518:	e59f014c 	ldr	r0, [pc, #332]	; 866c <ckalloc+0x20c>
    851c:	eb0002e0 	bl	90a4 <printk>
    8520:	e59f412c 	ldr	r4, [pc, #300]	; 8654 <ckalloc+0x1f4>
    8524:	e5941008 	ldr	r1, [r4, #8]
    8528:	e5943004 	ldr	r3, [r4, #4]
    852c:	e59f0144 	ldr	r0, [pc, #324]	; 8678 <ckalloc+0x218>
    8530:	e0631001 	rsb	r1, r3, r1
    8534:	e1a02006 	mov	r2, r6
    8538:	eb0002d9 	bl	90a4 <printk>
    853c:	eb0002f3 	bl	9110 <rpi_reset_putc>
    8540:	e5942008 	ldr	r2, [r4, #8]
    8544:	e5943004 	ldr	r3, [r4, #4]
    8548:	e0633002 	rsb	r3, r3, r2
    854c:	e58d3000 	str	r3, [sp]
    8550:	e58d6004 	str	r6, [sp, #4]
    8554:	e59f0120 	ldr	r0, [pc, #288]	; 867c <ckalloc+0x21c>
    8558:	e59f10fc 	ldr	r1, [pc, #252]	; 865c <ckalloc+0x1fc>
    855c:	e59f20fc 	ldr	r2, [pc, #252]	; 8660 <ckalloc+0x200>
    8560:	e3a03084 	mov	r3, #132	; 0x84
    8564:	eb0002ce 	bl	90a4 <printk>
    8568:	eb000442 	bl	9678 <clean_reboot>
    856c:	e59f00e0 	ldr	r0, [pc, #224]	; 8654 <ckalloc+0x1f4>
    8570:	e580c004 	str	ip, [r0, #4]
    8574:	e5845000 	str	r5, [r4]
    8578:	e0652002 	rsb	r2, r5, r2
    857c:	e5842004 	str	r2, [r4, #4]
    8580:	e3a0300b 	mov	r3, #11
    8584:	e5843008 	str	r3, [r4, #8]
    8588:	e5903018 	ldr	r3, [r0, #24]
    858c:	e0833005 	add	r3, r3, r5
    8590:	e5803018 	str	r3, [r0, #24]
    8594:	e580c010 	str	ip, [r0, #16]
    8598:	e5849010 	str	r9, [r4, #16]
    859c:	e5848014 	str	r8, [r4, #20]
    85a0:	e5847018 	str	r7, [r4, #24]
    85a4:	e1a00004 	mov	r0, r4
    85a8:	ebffff0a 	bl	81d8 <hdr_cksum>
    85ac:	e584000c 	str	r0, [r4, #12]
    85b0:	e2840038 	add	r0, r4, #56	; 0x38
    85b4:	e3a01080 	mov	r1, #128	; 0x80
    85b8:	ebffff01 	bl	81c4 <mark_mem>
    85bc:	e28470b8 	add	r7, r4, #184	; 0xb8
    85c0:	e5940000 	ldr	r0, [r4]
    85c4:	e5941004 	ldr	r1, [r4, #4]
    85c8:	e0870000 	add	r0, r7, r0
    85cc:	e2811080 	add	r1, r1, #128	; 0x80
    85d0:	ebfffefb 	bl	81c4 <mark_mem>
    85d4:	e1a00004 	mov	r0, r4
    85d8:	ebffff10 	bl	8220 <check_hdr>
    85dc:	e3500000 	cmp	r0, #0
    85e0:	1a000006 	bne	8600 <ckalloc+0x1a0>
    85e4:	eb0002c9 	bl	9110 <rpi_reset_putc>
    85e8:	e59f0090 	ldr	r0, [pc, #144]	; 8680 <ckalloc+0x220>
    85ec:	e59f1068 	ldr	r1, [pc, #104]	; 865c <ckalloc+0x1fc>
    85f0:	e59f2068 	ldr	r2, [pc, #104]	; 8660 <ckalloc+0x200>
    85f4:	e3a0309b 	mov	r3, #155	; 0x9b
    85f8:	eb0002a9 	bl	90a4 <printk>
    85fc:	eb00041d 	bl	9678 <clean_reboot>
    8600:	e1a00004 	mov	r0, r4
    8604:	ebffff23 	bl	8298 <check_block>
    8608:	e3500000 	cmp	r0, #0
    860c:	1a000006 	bne	862c <ckalloc+0x1cc>
    8610:	eb0002be 	bl	9110 <rpi_reset_putc>
    8614:	e59f0068 	ldr	r0, [pc, #104]	; 8684 <ckalloc+0x224>
    8618:	e59f103c 	ldr	r1, [pc, #60]	; 865c <ckalloc+0x1fc>
    861c:	e59f203c 	ldr	r2, [pc, #60]	; 8660 <ckalloc+0x200>
    8620:	e3a0309c 	mov	r3, #156	; 0x9c
    8624:	eb00029e 	bl	90a4 <printk>
    8628:	eb000412 	bl	9678 <clean_reboot>
    862c:	e59f0030 	ldr	r0, [pc, #48]	; 8664 <ckalloc+0x204>
    8630:	eb00029b 	bl	90a4 <printk>
    8634:	e59f004c 	ldr	r0, [pc, #76]	; 8688 <ckalloc+0x228>
    8638:	e1a01005 	mov	r1, r5
    863c:	e1a02006 	mov	r2, r6
    8640:	e1a03007 	mov	r3, r7
    8644:	eb000296 	bl	90a4 <printk>
    8648:	e1a00007 	mov	r0, r7
    864c:	e28dd00c 	add	sp, sp, #12
    8650:	e8bd83f0 	pop	{r4, r5, r6, r7, r8, r9, pc}
    8654:	0000a748 	andeq	sl, r0, r8, asr #14
    8658:	00009e70 	andeq	r9, r0, r0, ror lr
    865c:	00009de4 	andeq	r9, r0, r4, ror #27
    8660:	00009cfc 	strdeq	r9, [r0], -ip
    8664:	00009d30 	andeq	r9, r0, r0, lsr sp
    8668:	00009eb0 			; <UNDEFINED> instruction: 0x00009eb0
    866c:	00009ec8 	andeq	r9, r0, r8, asr #29
    8670:	00009ed4 	ldrdeq	r9, [r0], -r4
    8674:	00009efc 	strdeq	r9, [r0], -ip
    8678:	00009f34 	andeq	r9, r0, r4, lsr pc
    867c:	00009f60 	andeq	r9, r0, r0, ror #30
    8680:	00009f9c 	muleq	r0, ip, pc	; <UNPREDICTABLE>
    8684:	00009fbc 			; <UNDEFINED> instruction: 0x00009fbc
    8688:	00009fdc 	ldrdeq	r9, [r0], -ip

0000868c <ck_heap_errors>:
    868c:	e92d43f8 	push	{r3, r4, r5, r6, r7, r8, r9, lr}
    8690:	e59f413c 	ldr	r4, [pc, #316]	; 87d4 <ck_heap_errors+0x148>
    8694:	e5943004 	ldr	r3, [r4, #4]
    8698:	e5946000 	ldr	r6, [r4]
    869c:	e0666003 	rsb	r6, r6, r3
    86a0:	e5945008 	ldr	r5, [r4, #8]
    86a4:	e0635005 	rsb	r5, r3, r5
    86a8:	e59f0128 	ldr	r0, [pc, #296]	; 87d8 <ck_heap_errors+0x14c>
    86ac:	eb00027c 	bl	90a4 <printk>
    86b0:	e59f0124 	ldr	r0, [pc, #292]	; 87dc <ck_heap_errors+0x150>
    86b4:	e1a01006 	mov	r1, r6
    86b8:	e1a02005 	mov	r2, r5
    86bc:	eb000278 	bl	90a4 <printk>
    86c0:	e5944000 	ldr	r4, [r4]
    86c4:	e3a05000 	mov	r5, #0
    86c8:	e1a06005 	mov	r6, r5
    86cc:	e59f7100 	ldr	r7, [pc, #256]	; 87d4 <ck_heap_errors+0x148>
    86d0:	e59f9100 	ldr	r9, [pc, #256]	; 87d8 <ck_heap_errors+0x14c>
    86d4:	e59f8104 	ldr	r8, [pc, #260]	; 87e0 <ck_heap_errors+0x154>
    86d8:	ea00002a 	b	8788 <ck_heap_errors+0xfc>
    86dc:	e1540003 	cmp	r4, r3
    86e0:	3a000006 	bcc	8700 <ck_heap_errors+0x74>
    86e4:	eb000289 	bl	9110 <rpi_reset_putc>
    86e8:	e59f00f4 	ldr	r0, [pc, #244]	; 87e4 <ck_heap_errors+0x158>
    86ec:	e59f10f4 	ldr	r1, [pc, #244]	; 87e8 <ck_heap_errors+0x15c>
    86f0:	e59f20f4 	ldr	r2, [pc, #244]	; 87ec <ck_heap_errors+0x160>
    86f4:	e3a030af 	mov	r3, #175	; 0xaf
    86f8:	eb000269 	bl	90a4 <printk>
    86fc:	eb0003dd 	bl	9678 <clean_reboot>
    8700:	e1a00004 	mov	r0, r4
    8704:	ebfffec5 	bl	8220 <check_hdr>
    8708:	e3500000 	cmp	r0, #0
    870c:	1a000005 	bne	8728 <ck_heap_errors+0x9c>
    8710:	e59f00c0 	ldr	r0, [pc, #192]	; 87d8 <ck_heap_errors+0x14c>
    8714:	eb000262 	bl	90a4 <printk>
    8718:	e59f00d0 	ldr	r0, [pc, #208]	; 87f0 <ck_heap_errors+0x164>
    871c:	eb000260 	bl	90a4 <printk>
    8720:	e2866001 	add	r6, r6, #1
    8724:	ea00001a 	b	8794 <ck_heap_errors+0x108>
    8728:	e1a00004 	mov	r0, r4
    872c:	ebfffed9 	bl	8298 <check_block>
    8730:	e3500000 	cmp	r0, #0
    8734:	02866001 	addeq	r6, r6, #1
    8738:	e5943008 	ldr	r3, [r4, #8]
    873c:	e353000c 	cmp	r3, #12
    8740:	1a00000a 	bne	8770 <ck_heap_errors+0xe4>
    8744:	e1a00004 	mov	r0, r4
    8748:	e28410b8 	add	r1, r4, #184	; 0xb8
    874c:	e5942000 	ldr	r2, [r4]
    8750:	ebfffe5b 	bl	80c4 <check_mem>
    8754:	e3500000 	cmp	r0, #0
    8758:	1a000004 	bne	8770 <ck_heap_errors+0xe4>
    875c:	e1a00009 	mov	r0, r9
    8760:	eb00024f 	bl	90a4 <printk>
    8764:	e1a00008 	mov	r0, r8
    8768:	eb00024d 	bl	90a4 <printk>
    876c:	e2866001 	add	r6, r6, #1
    8770:	e5942000 	ldr	r2, [r4]
    8774:	e5943004 	ldr	r3, [r4, #4]
    8778:	e0823003 	add	r3, r2, r3
    877c:	e2833f4e 	add	r3, r3, #312	; 0x138
    8780:	e0844003 	add	r4, r4, r3
    8784:	e2855001 	add	r5, r5, #1
    8788:	e5973004 	ldr	r3, [r7, #4]
    878c:	e1530004 	cmp	r3, r4
    8790:	1affffd1 	bne	86dc <ck_heap_errors+0x50>
    8794:	e3560000 	cmp	r6, #0
    8798:	0a000006 	beq	87b8 <ck_heap_errors+0x12c>
    879c:	e59f0034 	ldr	r0, [pc, #52]	; 87d8 <ck_heap_errors+0x14c>
    87a0:	eb00023f 	bl	90a4 <printk>
    87a4:	e59f0048 	ldr	r0, [pc, #72]	; 87f4 <ck_heap_errors+0x168>
    87a8:	e1a01005 	mov	r1, r5
    87ac:	e1a02006 	mov	r2, r6
    87b0:	eb00023b 	bl	90a4 <printk>
    87b4:	ea000004 	b	87cc <ck_heap_errors+0x140>
    87b8:	e59f0018 	ldr	r0, [pc, #24]	; 87d8 <ck_heap_errors+0x14c>
    87bc:	eb000238 	bl	90a4 <printk>
    87c0:	e59f0030 	ldr	r0, [pc, #48]	; 87f8 <ck_heap_errors+0x16c>
    87c4:	e1a01005 	mov	r1, r5
    87c8:	eb000235 	bl	90a4 <printk>
    87cc:	e1a00006 	mov	r0, r6
    87d0:	e8bd83f8 	pop	{r3, r4, r5, r6, r7, r8, r9, pc}
    87d4:	0000a748 	andeq	sl, r0, r8, asr #14
    87d8:	00009d30 	andeq	r9, r0, r0, lsr sp
    87dc:	0000a00c 	andeq	sl, r0, ip
    87e0:	0000a07c 	andeq	sl, r0, ip, ror r0
    87e4:	0000a044 	andeq	sl, r0, r4, asr #32
    87e8:	00009de4 	andeq	r9, r0, r4, ror #27
    87ec:	00009d04 	andeq	r9, r0, r4, lsl #26
    87f0:	0000a068 	andeq	sl, r0, r8, rrx
    87f4:	0000a098 	muleq	r0, r8, r0
    87f8:	0000a0c0 	andeq	sl, r0, r0, asr #1

000087fc <ck_first_hdr>:
    87fc:	e92d4010 	push	{r4, lr}
    8800:	e59f3034 	ldr	r3, [pc, #52]	; 883c <ck_first_hdr+0x40>
    8804:	e5934000 	ldr	r4, [r3]
    8808:	e1a00004 	mov	r0, r4
    880c:	ebfffe83 	bl	8220 <check_hdr>
    8810:	e3500000 	cmp	r0, #0
    8814:	1a000006 	bne	8834 <ck_first_hdr+0x38>
    8818:	eb00023c 	bl	9110 <rpi_reset_putc>
    881c:	e59f001c 	ldr	r0, [pc, #28]	; 8840 <ck_first_hdr+0x44>
    8820:	e59f101c 	ldr	r1, [pc, #28]	; 8844 <ck_first_hdr+0x48>
    8824:	e59f201c 	ldr	r2, [pc, #28]	; 8848 <ck_first_hdr+0x4c>
    8828:	e3a030d2 	mov	r3, #210	; 0xd2
    882c:	eb00021c 	bl	90a4 <printk>
    8830:	eb000390 	bl	9678 <clean_reboot>
    8834:	e1a00004 	mov	r0, r4
    8838:	e8bd8010 	pop	{r4, pc}
    883c:	0000a748 	andeq	sl, r0, r8, asr #14
    8840:	0000a0f0 	strdeq	sl, [r0], -r0
    8844:	00009de4 	andeq	r9, r0, r4, ror #27
    8848:	00009d14 	andeq	r9, r0, r4, lsl sp

0000884c <ck_next_hdr>:
    884c:	e92d4010 	push	{r4, lr}
    8850:	e5904000 	ldr	r4, [r0]
    8854:	e5903004 	ldr	r3, [r0, #4]
    8858:	e0844003 	add	r4, r4, r3
    885c:	e2844f4e 	add	r4, r4, #312	; 0x138
    8860:	e0804004 	add	r4, r0, r4
    8864:	e59f3064 	ldr	r3, [pc, #100]	; 88d0 <ck_next_hdr+0x84>
    8868:	e5933004 	ldr	r3, [r3, #4]
    886c:	e1540003 	cmp	r4, r3
    8870:	0a000012 	beq	88c0 <ck_next_hdr+0x74>
    8874:	3a000006 	bcc	8894 <ck_next_hdr+0x48>
    8878:	eb000224 	bl	9110 <rpi_reset_putc>
    887c:	e59f0050 	ldr	r0, [pc, #80]	; 88d4 <ck_next_hdr+0x88>
    8880:	e59f1050 	ldr	r1, [pc, #80]	; 88d8 <ck_next_hdr+0x8c>
    8884:	e59f2050 	ldr	r2, [pc, #80]	; 88dc <ck_next_hdr+0x90>
    8888:	e3a030e1 	mov	r3, #225	; 0xe1
    888c:	eb000204 	bl	90a4 <printk>
    8890:	eb000378 	bl	9678 <clean_reboot>
    8894:	e1a00004 	mov	r0, r4
    8898:	ebfffe60 	bl	8220 <check_hdr>
    889c:	e3500000 	cmp	r0, #0
    88a0:	1a000008 	bne	88c8 <ck_next_hdr+0x7c>
    88a4:	eb000219 	bl	9110 <rpi_reset_putc>
    88a8:	e59f0030 	ldr	r0, [pc, #48]	; 88e0 <ck_next_hdr+0x94>
    88ac:	e59f1024 	ldr	r1, [pc, #36]	; 88d8 <ck_next_hdr+0x8c>
    88b0:	e59f2024 	ldr	r2, [pc, #36]	; 88dc <ck_next_hdr+0x90>
    88b4:	e3a030e2 	mov	r3, #226	; 0xe2
    88b8:	eb0001f9 	bl	90a4 <printk>
    88bc:	eb00036d 	bl	9678 <clean_reboot>
    88c0:	e3a00000 	mov	r0, #0
    88c4:	e8bd8010 	pop	{r4, pc}
    88c8:	e1a00004 	mov	r0, r4
    88cc:	e8bd8010 	pop	{r4, pc}
    88d0:	0000a748 	andeq	sl, r0, r8, asr #14
    88d4:	0000a114 	andeq	sl, r0, r4, lsl r1
    88d8:	00009de4 	andeq	r9, r0, r4, ror #27
    88dc:	00009d24 	andeq	r9, r0, r4, lsr #26
    88e0:	0000a140 	andeq	sl, r0, r0, asr #2

000088e4 <heap_info>:
    88e4:	e1a0c000 	mov	ip, r0
    88e8:	e59f300c 	ldr	r3, [pc, #12]	; 88fc <heap_info+0x18>
    88ec:	e893000f 	ldm	r3, {r0, r1, r2, r3}
    88f0:	e88c000f 	stm	ip, {r0, r1, r2, r3}
    88f4:	e1a0000c 	mov	r0, ip
    88f8:	e12fff1e 	bx	lr
    88fc:	0000a754 	andeq	sl, r0, r4, asr r7

00008900 <in_heap>:
    8900:	e59f3030 	ldr	r3, [pc, #48]	; 8938 <in_heap+0x38>
    8904:	e5933000 	ldr	r3, [r3]
    8908:	e1530000 	cmp	r3, r0
    890c:	8a000005 	bhi	8928 <in_heap+0x28>
    8910:	e59f3020 	ldr	r3, [pc, #32]	; 8938 <in_heap+0x38>
    8914:	e5933004 	ldr	r3, [r3, #4]
    8918:	e1530000 	cmp	r3, r0
    891c:	2a000003 	bcs	8930 <in_heap+0x30>
    8920:	e3a00000 	mov	r0, #0
    8924:	e12fff1e 	bx	lr
    8928:	e3a00000 	mov	r0, #0
    892c:	e12fff1e 	bx	lr
    8930:	e3a00001 	mov	r0, #1
    8934:	e12fff1e 	bx	lr
    8938:	0000a764 	andeq	sl, r0, r4, ror #14

0000893c <is_ptr>:
    893c:	e92d4010 	push	{r4, lr}
    8940:	e1a04000 	mov	r4, r0
    8944:	ebffffed 	bl	8900 <in_heap>
    8948:	e3500000 	cmp	r0, #0
    894c:	0a000016 	beq	89ac <is_ptr+0x70>
    8950:	ebffffa9 	bl	87fc <ck_first_hdr>
    8954:	ea000011 	b	89a0 <is_ptr+0x64>
    8958:	e28030b8 	add	r3, r0, #184	; 0xb8
    895c:	e1530004 	cmp	r3, r4
    8960:	1a000003 	bne	8974 <is_ptr+0x38>
    8964:	e5903028 	ldr	r3, [r0, #40]	; 0x28
    8968:	e2833001 	add	r3, r3, #1
    896c:	e5803028 	str	r3, [r0, #40]	; 0x28
    8970:	e8bd8010 	pop	{r4, pc}
    8974:	e1540003 	cmp	r4, r3
    8978:	9a000007 	bls	899c <is_ptr+0x60>
    897c:	e5902000 	ldr	r2, [r0]
    8980:	e0833002 	add	r3, r3, r2
    8984:	e1530004 	cmp	r3, r4
    8988:	3a000003 	bcc	899c <is_ptr+0x60>
    898c:	e590302c 	ldr	r3, [r0, #44]	; 0x2c
    8990:	e2833001 	add	r3, r3, #1
    8994:	e580302c 	str	r3, [r0, #44]	; 0x2c
    8998:	e8bd8010 	pop	{r4, pc}
    899c:	ebffffaa 	bl	884c <ck_next_hdr>
    89a0:	e3500000 	cmp	r0, #0
    89a4:	1affffeb 	bne	8958 <is_ptr+0x1c>
    89a8:	e8bd8010 	pop	{r4, pc}
    89ac:	e3a00000 	mov	r0, #0
    89b0:	e8bd8010 	pop	{r4, pc}

000089b4 <sweep_leak>:
    89b4:	e92d4ff8 	push	{r3, r4, r5, r6, r7, r8, r9, sl, fp, lr}
    89b8:	e1a09000 	mov	r9, r0
    89bc:	e59f0100 	ldr	r0, [pc, #256]	; 8ac4 <sweep_leak+0x110>
    89c0:	eb0001b7 	bl	90a4 <printk>
    89c4:	e59f00fc 	ldr	r0, [pc, #252]	; 8ac8 <sweep_leak+0x114>
    89c8:	eb0001b5 	bl	90a4 <printk>
    89cc:	ebffff8a 	bl	87fc <ck_first_hdr>
    89d0:	e1a04000 	mov	r4, r0
    89d4:	e3a06000 	mov	r6, #0
    89d8:	e1a07006 	mov	r7, r6
    89dc:	e1a05006 	mov	r5, r6
    89e0:	e1a08006 	mov	r8, r6
    89e4:	e59fa0e0 	ldr	sl, [pc, #224]	; 8acc <sweep_leak+0x118>
    89e8:	e59fb0e0 	ldr	fp, [pc, #224]	; 8ad0 <sweep_leak+0x11c>
    89ec:	ea00001c 	b	8a64 <sweep_leak+0xb0>
    89f0:	e5943008 	ldr	r3, [r4, #8]
    89f4:	e353000b 	cmp	r3, #11
    89f8:	1a000015 	bne	8a54 <sweep_leak+0xa0>
    89fc:	e1d433b4 	ldrh	r3, [r4, #52]	; 0x34
    8a00:	e3530000 	cmp	r3, #0
    8a04:	1a000006 	bne	8a24 <sweep_leak+0x70>
    8a08:	e1a0000a 	mov	r0, sl
    8a0c:	eb0001a4 	bl	90a4 <printk>
    8a10:	e1a0000b 	mov	r0, fp
    8a14:	e28410b8 	add	r1, r4, #184	; 0xb8
    8a18:	eb0001a1 	bl	90a4 <printk>
    8a1c:	e2877001 	add	r7, r7, #1
    8a20:	ea00000b 	b	8a54 <sweep_leak+0xa0>
    8a24:	e1c483b4 	strh	r8, [r4, #52]	; 0x34
    8a28:	e3590000 	cmp	r9, #0
    8a2c:	0a000008 	beq	8a54 <sweep_leak+0xa0>
    8a30:	e5943028 	ldr	r3, [r4, #40]	; 0x28
    8a34:	e3530000 	cmp	r3, #0
    8a38:	1a000005 	bne	8a54 <sweep_leak+0xa0>
    8a3c:	e1a0000a 	mov	r0, sl
    8a40:	eb000197 	bl	90a4 <printk>
    8a44:	e59f0088 	ldr	r0, [pc, #136]	; 8ad4 <sweep_leak+0x120>
    8a48:	e28410b8 	add	r1, r4, #184	; 0xb8
    8a4c:	eb000194 	bl	90a4 <printk>
    8a50:	e2866001 	add	r6, r6, #1
    8a54:	e2855001 	add	r5, r5, #1
    8a58:	e1a00004 	mov	r0, r4
    8a5c:	ebffff7a 	bl	884c <ck_next_hdr>
    8a60:	e1a04000 	mov	r4, r0
    8a64:	e3540000 	cmp	r4, #0
    8a68:	1affffe0 	bne	89f0 <sweep_leak+0x3c>
    8a6c:	e59f0058 	ldr	r0, [pc, #88]	; 8acc <sweep_leak+0x118>
    8a70:	eb00018b 	bl	90a4 <printk>
    8a74:	e59f005c 	ldr	r0, [pc, #92]	; 8ad8 <sweep_leak+0x124>
    8a78:	e1a01005 	mov	r1, r5
    8a7c:	eb000188 	bl	90a4 <printk>
    8a80:	e1973006 	orrs	r3, r7, r6
    8a84:	1a000004 	bne	8a9c <sweep_leak+0xe8>
    8a88:	e59f003c 	ldr	r0, [pc, #60]	; 8acc <sweep_leak+0x118>
    8a8c:	eb000184 	bl	90a4 <printk>
    8a90:	e59f0044 	ldr	r0, [pc, #68]	; 8adc <sweep_leak+0x128>
    8a94:	eb000182 	bl	90a4 <printk>
    8a98:	ea000005 	b	8ab4 <sweep_leak+0x100>
    8a9c:	e59f0028 	ldr	r0, [pc, #40]	; 8acc <sweep_leak+0x118>
    8aa0:	eb00017f 	bl	90a4 <printk>
    8aa4:	e59f0034 	ldr	r0, [pc, #52]	; 8ae0 <sweep_leak+0x12c>
    8aa8:	e1a01007 	mov	r1, r7
    8aac:	e1a02006 	mov	r2, r6
    8ab0:	eb00017b 	bl	90a4 <printk>
    8ab4:	e59f0028 	ldr	r0, [pc, #40]	; 8ae4 <sweep_leak+0x130>
    8ab8:	eb000179 	bl	90a4 <printk>
    8abc:	e0870006 	add	r0, r7, r6
    8ac0:	e8bd8ff8 	pop	{r3, r4, r5, r6, r7, r8, r9, sl, fp, pc}
    8ac4:	0000a1b8 			; <UNDEFINED> instruction: 0x0000a1b8
    8ac8:	0000a1f4 	strdeq	sl, [r0], -r4
    8acc:	00009d30 	andeq	r9, r0, r0, lsr sp
    8ad0:	0000a20c 	andeq	sl, r0, ip, lsl #4
    8ad4:	0000a22c 	andeq	sl, r0, ip, lsr #4
    8ad8:	0000a264 	andeq	sl, r0, r4, ror #4
    8adc:	0000a27c 	andeq	sl, r0, ip, ror r2
    8ae0:	0000a29c 	muleq	r0, ip, r2
    8ae4:	0000a2c8 	andeq	sl, r0, r8, asr #5

00008ae8 <mark>:
    8ae8:	e92d4070 	push	{r4, r5, r6, lr}
    8aec:	e1a04000 	mov	r4, r0
    8af0:	e1a05001 	mov	r5, r1
    8af4:	e1500001 	cmp	r0, r1
    8af8:	3a000006 	bcc	8b18 <mark+0x30>
    8afc:	eb000183 	bl	9110 <rpi_reset_putc>
    8b00:	e59f00c4 	ldr	r0, [pc, #196]	; 8bcc <mark+0xe4>
    8b04:	e59f10c4 	ldr	r1, [pc, #196]	; 8bd0 <mark+0xe8>
    8b08:	e59f20c4 	ldr	r2, [pc, #196]	; 8bd4 <mark+0xec>
    8b0c:	e3a0305b 	mov	r3, #91	; 0x5b
    8b10:	eb000163 	bl	90a4 <printk>
    8b14:	eb0002d7 	bl	9678 <clean_reboot>
    8b18:	e3100003 	tst	r0, #3
    8b1c:	0a000006 	beq	8b3c <mark+0x54>
    8b20:	eb00017a 	bl	9110 <rpi_reset_putc>
    8b24:	e59f00ac 	ldr	r0, [pc, #172]	; 8bd8 <mark+0xf0>
    8b28:	e59f10a0 	ldr	r1, [pc, #160]	; 8bd0 <mark+0xe8>
    8b2c:	e59f20a0 	ldr	r2, [pc, #160]	; 8bd4 <mark+0xec>
    8b30:	e3a0305d 	mov	r3, #93	; 0x5d
    8b34:	eb00015a 	bl	90a4 <printk>
    8b38:	eb0002ce 	bl	9678 <clean_reboot>
    8b3c:	e3110003 	tst	r1, #3
    8b40:	0a00001d 	beq	8bbc <mark+0xd4>
    8b44:	eb000171 	bl	9110 <rpi_reset_putc>
    8b48:	e59f008c 	ldr	r0, [pc, #140]	; 8bdc <mark+0xf4>
    8b4c:	e59f107c 	ldr	r1, [pc, #124]	; 8bd0 <mark+0xe8>
    8b50:	e59f207c 	ldr	r2, [pc, #124]	; 8bd4 <mark+0xec>
    8b54:	e3a0305e 	mov	r3, #94	; 0x5e
    8b58:	eb000151 	bl	90a4 <printk>
    8b5c:	eb0002c5 	bl	9678 <clean_reboot>
    8b60:	e5940000 	ldr	r0, [r4]
    8b64:	ebffff74 	bl	893c <is_ptr>
    8b68:	e2503000 	subs	r3, r0, #0
    8b6c:	0a000010 	beq	8bb4 <mark+0xcc>
    8b70:	e5940000 	ldr	r0, [r4]
    8b74:	e28320b8 	add	r2, r3, #184	; 0xb8
    8b78:	e1500002 	cmp	r0, r2
    8b7c:	05931028 	ldreq	r1, [r3, #40]	; 0x28
    8b80:	02811001 	addeq	r1, r1, #1
    8b84:	05831028 	streq	r1, [r3, #40]	; 0x28
    8b88:	1593102c 	ldrne	r1, [r3, #44]	; 0x2c
    8b8c:	12811001 	addne	r1, r1, #1
    8b90:	1583102c 	strne	r1, [r3, #44]	; 0x2c
    8b94:	e1d303b4 	ldrh	r0, [r3, #52]	; 0x34
    8b98:	e3500000 	cmp	r0, #0
    8b9c:	1a000004 	bne	8bb4 <mark+0xcc>
    8ba0:	e1c363b4 	strh	r6, [r3, #52]	; 0x34
    8ba4:	e5931000 	ldr	r1, [r3]
    8ba8:	e1a00002 	mov	r0, r2
    8bac:	e0821001 	add	r1, r2, r1
    8bb0:	ebffffcc 	bl	8ae8 <mark>
    8bb4:	e2844004 	add	r4, r4, #4
    8bb8:	ea000000 	b	8bc0 <mark+0xd8>
    8bbc:	e3a06001 	mov	r6, #1
    8bc0:	e1540005 	cmp	r4, r5
    8bc4:	1affffe5 	bne	8b60 <mark+0x78>
    8bc8:	e8bd8070 	pop	{r4, r5, r6, pc}
    8bcc:	0000a304 	andeq	sl, r0, r4, lsl #6
    8bd0:	0000a318 	andeq	sl, r0, r8, lsl r3
    8bd4:	0000a164 	andeq	sl, r0, r4, ror #2
    8bd8:	0000a320 	andeq	sl, r0, r0, lsr #6
    8bdc:	0000a340 	andeq	sl, r0, r0, asr #6

00008be0 <mark_all>:
    8be0:	e92d4010 	push	{r4, lr}
    8be4:	e24dd050 	sub	sp, sp, #80	; 0x50
    8be8:	ebffff03 	bl	87fc <ck_first_hdr>
    8bec:	e3a04000 	mov	r4, #0
    8bf0:	ea000003 	b	8c04 <mark_all+0x24>
    8bf4:	e580402c 	str	r4, [r0, #44]	; 0x2c
    8bf8:	e5804028 	str	r4, [r0, #40]	; 0x28
    8bfc:	e1c043b4 	strh	r4, [r0, #52]	; 0x34
    8c00:	ebffff11 	bl	884c <ck_next_hdr>
    8c04:	e3500000 	cmp	r0, #0
    8c08:	1afffff9 	bne	8bf4 <mark_all+0x14>
    8c0c:	e28d4040 	add	r4, sp, #64	; 0x40
    8c10:	e1a00004 	mov	r0, r4
    8c14:	ebffff32 	bl	88e4 <heap_info>
    8c18:	e59fc094 	ldr	ip, [pc, #148]	; 8cb4 <mark_all+0xd4>
    8c1c:	e894000f 	ldm	r4, {r0, r1, r2, r3}
    8c20:	e88c000f 	stm	ip, {r0, r1, r2, r3}
    8c24:	e1a0400d 	mov	r4, sp
    8c28:	e1a0000d 	mov	r0, sp
    8c2c:	eb0000d6 	bl	8f8c <dump_regs>
    8c30:	e59d3000 	ldr	r3, [sp]
    8c34:	e1530004 	cmp	r3, r4
    8c38:	0a00000b 	beq	8c6c <mark_all+0x8c>
    8c3c:	eb000133 	bl	9110 <rpi_reset_putc>
    8c40:	e59f0070 	ldr	r0, [pc, #112]	; 8cb8 <mark_all+0xd8>
    8c44:	e59f1070 	ldr	r1, [pc, #112]	; 8cbc <mark_all+0xdc>
    8c48:	e59f2070 	ldr	r2, [pc, #112]	; 8cc0 <mark_all+0xe0>
    8c4c:	e3a030df 	mov	r3, #223	; 0xdf
    8c50:	eb000113 	bl	90a4 <printk>
    8c54:	eb000287 	bl	9678 <clean_reboot>
    8c58:	e28d0050 	add	r0, sp, #80	; 0x50
    8c5c:	e0802103 	add	r2, r0, r3, lsl #2
    8c60:	e5021050 	str	r1, [r2, #-80]	; 0x50
    8c64:	e2833001 	add	r3, r3, #1
    8c68:	ea000001 	b	8c74 <mark_all+0x94>
    8c6c:	e3a03000 	mov	r3, #0
    8c70:	e1a01003 	mov	r1, r3
    8c74:	e3530003 	cmp	r3, #3
    8c78:	dafffff6 	ble	8c58 <mark_all+0x78>
    8c7c:	e28d0010 	add	r0, sp, #16
    8c80:	e28d1038 	add	r1, sp, #56	; 0x38
    8c84:	ebffff97 	bl	8ae8 <mark>
    8c88:	e59d0034 	ldr	r0, [sp, #52]	; 0x34
    8c8c:	e3a01302 	mov	r1, #134217728	; 0x8000000
    8c90:	ebffff94 	bl	8ae8 <mark>
    8c94:	e59f0028 	ldr	r0, [pc, #40]	; 8cc4 <mark_all+0xe4>
    8c98:	e59f1028 	ldr	r1, [pc, #40]	; 8cc8 <mark_all+0xe8>
    8c9c:	ebffff91 	bl	8ae8 <mark>
    8ca0:	e59f0024 	ldr	r0, [pc, #36]	; 8ccc <mark_all+0xec>
    8ca4:	e59f1024 	ldr	r1, [pc, #36]	; 8cd0 <mark_all+0xf0>
    8ca8:	ebffff8e 	bl	8ae8 <mark>
    8cac:	e28dd050 	add	sp, sp, #80	; 0x50
    8cb0:	e8bd8010 	pop	{r4, pc}
    8cb4:	0000a764 	andeq	sl, r0, r4, ror #14
    8cb8:	0000a360 	andeq	sl, r0, r0, ror #6
    8cbc:	0000a318 	andeq	sl, r0, r8, lsl r3
    8cc0:	0000a16c 	andeq	sl, r0, ip, ror #2
    8cc4:	0000a748 	andeq	sl, r0, r8, asr #14
    8cc8:	0000ab78 	andeq	sl, r0, r8, ror fp
    8ccc:	00009c60 	andeq	r9, r0, r0, ror #24
    8cd0:	00009c70 	andeq	r9, r0, r0, ror ip

00008cd4 <sweep_free>:
    8cd4:	e92d4ff0 	push	{r4, r5, r6, r7, r8, r9, sl, fp, lr}
    8cd8:	e24dd014 	sub	sp, sp, #20
    8cdc:	e59f00e8 	ldr	r0, [pc, #232]	; 8dcc <sweep_free+0xf8>
    8ce0:	eb0000ef 	bl	90a4 <printk>
    8ce4:	e59f00e4 	ldr	r0, [pc, #228]	; 8dd0 <sweep_free+0xfc>
    8ce8:	eb0000ed 	bl	90a4 <printk>
    8cec:	ebfffec2 	bl	87fc <ck_first_hdr>
    8cf0:	e1a04000 	mov	r4, r0
    8cf4:	e3a06000 	mov	r6, #0
    8cf8:	e1a08006 	mov	r8, r6
    8cfc:	e1a05006 	mov	r5, r6
    8d00:	e59fb0cc 	ldr	fp, [pc, #204]	; 8dd4 <sweep_free+0x100>
    8d04:	e59fa0cc 	ldr	sl, [pc, #204]	; 8dd8 <sweep_free+0x104>
    8d08:	e59f90cc 	ldr	r9, [pc, #204]	; 8ddc <sweep_free+0x108>
    8d0c:	ea000017 	b	8d70 <sweep_free+0x9c>
    8d10:	e5943008 	ldr	r3, [r4, #8]
    8d14:	e353000b 	cmp	r3, #11
    8d18:	1a000010 	bne	8d60 <sweep_free+0x8c>
    8d1c:	e1d433b4 	ldrh	r3, [r4, #52]	; 0x34
    8d20:	e3530000 	cmp	r3, #0
    8d24:	1a00000d 	bne	8d60 <sweep_free+0x8c>
    8d28:	e1a07004 	mov	r7, r4
    8d2c:	e49730b8 	ldr	r3, [r7], #184	; 0xb8
    8d30:	e0866003 	add	r6, r6, r3
    8d34:	e2888001 	add	r8, r8, #1
    8d38:	e1a0000b 	mov	r0, fp
    8d3c:	eb0000d8 	bl	90a4 <printk>
    8d40:	e1a0000a 	mov	r0, sl
    8d44:	e1a01007 	mov	r1, r7
    8d48:	eb0000d5 	bl	90a4 <printk>
    8d4c:	e1a00007 	mov	r0, r7
    8d50:	e1a01009 	mov	r1, r9
    8d54:	e59f2084 	ldr	r2, [pc, #132]	; 8de0 <sweep_free+0x10c>
    8d58:	e59f3084 	ldr	r3, [pc, #132]	; 8de4 <sweep_free+0x110>
    8d5c:	ebfffd8b 	bl	8390 <ckfree>
    8d60:	e2855001 	add	r5, r5, #1
    8d64:	e1a00004 	mov	r0, r4
    8d68:	ebfffeb7 	bl	884c <ck_next_hdr>
    8d6c:	e1a04000 	mov	r4, r0
    8d70:	e3540000 	cmp	r4, #0
    8d74:	1affffe5 	bne	8d10 <sweep_free+0x3c>
    8d78:	e59f4054 	ldr	r4, [pc, #84]	; 8dd4 <sweep_free+0x100>
    8d7c:	e1a00004 	mov	r0, r4
    8d80:	eb0000c7 	bl	90a4 <printk>
    8d84:	e59f005c 	ldr	r0, [pc, #92]	; 8de8 <sweep_free+0x114>
    8d88:	e1a01005 	mov	r1, r5
    8d8c:	e1a02008 	mov	r2, r8
    8d90:	e1a03006 	mov	r3, r6
    8d94:	eb0000c2 	bl	90a4 <printk>
    8d98:	e1a0000d 	mov	r0, sp
    8d9c:	ebfffed0 	bl	88e4 <heap_info>
    8da0:	e1a00004 	mov	r0, r4
    8da4:	eb0000be 	bl	90a4 <printk>
    8da8:	e59f003c 	ldr	r0, [pc, #60]	; 8dec <sweep_free+0x118>
    8dac:	e59d100c 	ldr	r1, [sp, #12]
    8db0:	e59d2008 	ldr	r2, [sp, #8]
    8db4:	eb0000ba 	bl	90a4 <printk>
    8db8:	e59f0030 	ldr	r0, [pc, #48]	; 8df0 <sweep_free+0x11c>
    8dbc:	eb0000b8 	bl	90a4 <printk>
    8dc0:	e1a00006 	mov	r0, r6
    8dc4:	e28dd014 	add	sp, sp, #20
    8dc8:	e8bd8ff0 	pop	{r4, r5, r6, r7, r8, r9, sl, fp, pc}
    8dcc:	0000a1b8 			; <UNDEFINED> instruction: 0x0000a1b8
    8dd0:	0000a390 	muleq	r0, r0, r3
    8dd4:	00009d30 	andeq	r9, r0, r0, lsr sp
    8dd8:	0000a3a0 	andeq	sl, r0, r0, lsr #7
    8ddc:	0000a318 	andeq	sl, r0, r8, lsl r3
    8de0:	0000a178 	andeq	sl, r0, r8, ror r1
    8de4:	0000013a 	andeq	r0, r0, sl, lsr r1
    8de8:	0000a3b4 			; <UNDEFINED> instruction: 0x0000a3b4
    8dec:	0000a3e0 	andeq	sl, r0, r0, ror #7
    8df0:	0000a2c8 	andeq	sl, r0, r8, asr #5

00008df4 <ck_find_leaks>:
    8df4:	e92d4010 	push	{r4, lr}
    8df8:	e1a04000 	mov	r4, r0
    8dfc:	ebffff77 	bl	8be0 <mark_all>
    8e00:	e1a00004 	mov	r0, r4
    8e04:	ebfffeea 	bl	89b4 <sweep_leak>
    8e08:	e8bd8010 	pop	{r4, pc}

00008e0c <check_no_leak>:
    8e0c:	e92d4008 	push	{r3, lr}
    8e10:	ebfffe1d 	bl	868c <ck_heap_errors>
    8e14:	e3500000 	cmp	r0, #0
    8e18:	0a000006 	beq	8e38 <check_no_leak+0x2c>
    8e1c:	eb0000bb 	bl	9110 <rpi_reset_putc>
    8e20:	e59f0060 	ldr	r0, [pc, #96]	; 8e88 <check_no_leak+0x7c>
    8e24:	e59f1060 	ldr	r1, [pc, #96]	; 8e8c <check_no_leak+0x80>
    8e28:	e59f2060 	ldr	r2, [pc, #96]	; 8e90 <check_no_leak+0x84>
    8e2c:	e59f3060 	ldr	r3, [pc, #96]	; 8e94 <check_no_leak+0x88>
    8e30:	eb00009b 	bl	90a4 <printk>
    8e34:	eb00020f 	bl	9678 <clean_reboot>
    8e38:	e59f0058 	ldr	r0, [pc, #88]	; 8e98 <check_no_leak+0x8c>
    8e3c:	eb000098 	bl	90a4 <printk>
    8e40:	e59f0054 	ldr	r0, [pc, #84]	; 8e9c <check_no_leak+0x90>
    8e44:	eb000096 	bl	90a4 <printk>
    8e48:	e3a00001 	mov	r0, #1
    8e4c:	ebffffe8 	bl	8df4 <ck_find_leaks>
    8e50:	e3500000 	cmp	r0, #0
    8e54:	0a000006 	beq	8e74 <check_no_leak+0x68>
    8e58:	eb0000ac 	bl	9110 <rpi_reset_putc>
    8e5c:	e59f003c 	ldr	r0, [pc, #60]	; 8ea0 <check_no_leak+0x94>
    8e60:	e59f1024 	ldr	r1, [pc, #36]	; 8e8c <check_no_leak+0x80>
    8e64:	e59f2024 	ldr	r2, [pc, #36]	; 8e90 <check_no_leak+0x84>
    8e68:	e59f3034 	ldr	r3, [pc, #52]	; 8ea4 <check_no_leak+0x98>
    8e6c:	eb00008c 	bl	90a4 <printk>
    8e70:	eb000200 	bl	9678 <clean_reboot>
    8e74:	e59f001c 	ldr	r0, [pc, #28]	; 8e98 <check_no_leak+0x8c>
    8e78:	eb000089 	bl	90a4 <printk>
    8e7c:	e59f0024 	ldr	r0, [pc, #36]	; 8ea8 <check_no_leak+0x9c>
    8e80:	eb000087 	bl	90a4 <printk>
    8e84:	e8bd8008 	pop	{r3, pc}
    8e88:	0000a414 	andeq	sl, r0, r4, lsl r4
    8e8c:	0000a318 	andeq	sl, r0, r8, lsl r3
    8e90:	0000a184 	andeq	sl, r0, r4, lsl #3
    8e94:	00000109 	andeq	r0, r0, r9, lsl #2
    8e98:	00009d30 	andeq	r9, r0, r0, lsr sp
    8e9c:	0000a43c 	andeq	sl, r0, ip, lsr r4
    8ea0:	0000a45c 	andeq	sl, r0, ip, asr r4
    8ea4:	0000010d 	andeq	r0, r0, sp, lsl #2
    8ea8:	0000a488 	andeq	sl, r0, r8, lsl #9

00008eac <check_should_leak>:
    8eac:	e92d4010 	push	{r4, lr}
    8eb0:	ebfffdf5 	bl	868c <ck_heap_errors>
    8eb4:	e3500000 	cmp	r0, #0
    8eb8:	0a000006 	beq	8ed8 <check_should_leak+0x2c>
    8ebc:	eb000093 	bl	9110 <rpi_reset_putc>
    8ec0:	e59f0068 	ldr	r0, [pc, #104]	; 8f30 <check_should_leak+0x84>
    8ec4:	e59f1068 	ldr	r1, [pc, #104]	; 8f34 <check_should_leak+0x88>
    8ec8:	e59f2068 	ldr	r2, [pc, #104]	; 8f38 <check_should_leak+0x8c>
    8ecc:	e59f3068 	ldr	r3, [pc, #104]	; 8f3c <check_should_leak+0x90>
    8ed0:	eb000073 	bl	90a4 <printk>
    8ed4:	eb0001e7 	bl	9678 <clean_reboot>
    8ed8:	e59f0060 	ldr	r0, [pc, #96]	; 8f40 <check_should_leak+0x94>
    8edc:	eb000070 	bl	90a4 <printk>
    8ee0:	e59f005c 	ldr	r0, [pc, #92]	; 8f44 <check_should_leak+0x98>
    8ee4:	eb00006e 	bl	90a4 <printk>
    8ee8:	e3a00001 	mov	r0, #1
    8eec:	ebffffc0 	bl	8df4 <ck_find_leaks>
    8ef0:	e2504000 	subs	r4, r0, #0
    8ef4:	1a000006 	bne	8f14 <check_should_leak+0x68>
    8ef8:	eb000084 	bl	9110 <rpi_reset_putc>
    8efc:	e59f0044 	ldr	r0, [pc, #68]	; 8f48 <check_should_leak+0x9c>
    8f00:	e59f102c 	ldr	r1, [pc, #44]	; 8f34 <check_should_leak+0x88>
    8f04:	e59f202c 	ldr	r2, [pc, #44]	; 8f38 <check_should_leak+0x8c>
    8f08:	e3a03e12 	mov	r3, #288	; 0x120
    8f0c:	eb000064 	bl	90a4 <printk>
    8f10:	eb0001d8 	bl	9678 <clean_reboot>
    8f14:	e59f0024 	ldr	r0, [pc, #36]	; 8f40 <check_should_leak+0x94>
    8f18:	eb000061 	bl	90a4 <printk>
    8f1c:	e59f0028 	ldr	r0, [pc, #40]	; 8f4c <check_should_leak+0xa0>
    8f20:	e1a01004 	mov	r1, r4
    8f24:	eb00005e 	bl	90a4 <printk>
    8f28:	e1a00004 	mov	r0, r4
    8f2c:	e8bd8010 	pop	{r4, pc}
    8f30:	0000a414 	andeq	sl, r0, r4, lsl r4
    8f34:	0000a318 	andeq	sl, r0, r8, lsl r3
    8f38:	0000a194 	muleq	r0, r4, r1
    8f3c:	0000011a 	andeq	r0, r0, sl, lsl r1
    8f40:	00009d30 	andeq	r9, r0, r0, lsr sp
    8f44:	0000a43c 	andeq	sl, r0, ip, lsr r4
    8f48:	0000a4a0 	andeq	sl, r0, r0, lsr #9
    8f4c:	0000a4c8 	andeq	sl, r0, r8, asr #9

00008f50 <implement_this>:
    8f50:	e92d4008 	push	{r3, lr}
    8f54:	eb00006d 	bl	9110 <rpi_reset_putc>
    8f58:	e59f0010 	ldr	r0, [pc, #16]	; 8f70 <implement_this+0x20>
    8f5c:	e59f1010 	ldr	r1, [pc, #16]	; 8f74 <implement_this+0x24>
    8f60:	e59f2010 	ldr	r2, [pc, #16]	; 8f78 <implement_this+0x28>
    8f64:	e3a03f4a 	mov	r3, #296	; 0x128
    8f68:	eb00004d 	bl	90a4 <printk>
    8f6c:	eb0001c1 	bl	9678 <clean_reboot>
    8f70:	0000a4e8 	andeq	sl, r0, r8, ror #9
    8f74:	0000a318 	andeq	sl, r0, r8, lsl r3
    8f78:	0000a1a8 	andeq	sl, r0, r8, lsr #3

00008f7c <ck_gc>:
    8f7c:	e92d4008 	push	{r3, lr}
    8f80:	ebffff16 	bl	8be0 <mark_all>
    8f84:	ebffff52 	bl	8cd4 <sweep_free>
    8f88:	e8bd8008 	pop	{r3, pc}

00008f8c <dump_regs>:
    8f8c:	e8807fff 	stm	r0, {r0, r1, r2, r3, r4, r5, r6, r7, r8, r9, sl, fp, ip, sp, lr}
    8f90:	e12fff1e 	bx	lr

00008f94 <fast_hash>:
    8f94:	e52d4004 	push	{r4}		; (str r4, [sp, #-4]!)
    8f98:	e1a02001 	mov	r2, r1
    8f9c:	e1a03000 	mov	r3, r0
    8fa0:	e3500000 	cmp	r0, #0
    8fa4:	13510000 	cmpne	r1, #0
    8fa8:	da000032 	ble	9078 <fast_hash+0xe4>
    8fac:	e2014003 	and	r4, r1, #3
    8fb0:	e1a01141 	asr	r1, r1, #2
    8fb4:	ea00000b 	b	8fe8 <fast_hash+0x54>
    8fb8:	e5d3c001 	ldrb	ip, [r3, #1]
    8fbc:	e5d30000 	ldrb	r0, [r3]
    8fc0:	e080040c 	add	r0, r0, ip, lsl #8
    8fc4:	e0800002 	add	r0, r0, r2
    8fc8:	e5d3c003 	ldrb	ip, [r3, #3]
    8fcc:	e5d32002 	ldrb	r2, [r3, #2]
    8fd0:	e082240c 	add	r2, r2, ip, lsl #8
    8fd4:	e0202582 	eor	r2, r0, r2, lsl #11
    8fd8:	e0222800 	eor	r2, r2, r0, lsl #16
    8fdc:	e2833004 	add	r3, r3, #4
    8fe0:	e08225a2 	add	r2, r2, r2, lsr #11
    8fe4:	e2411001 	sub	r1, r1, #1
    8fe8:	e3510000 	cmp	r1, #0
    8fec:	cafffff1 	bgt	8fb8 <fast_hash+0x24>
    8ff0:	e3540002 	cmp	r4, #2
    8ff4:	0a00000d 	beq	9030 <fast_hash+0x9c>
    8ff8:	e3540003 	cmp	r4, #3
    8ffc:	0a000002 	beq	900c <fast_hash+0x78>
    9000:	e3540001 	cmp	r4, #1
    9004:	1a000014 	bne	905c <fast_hash+0xc8>
    9008:	ea00000f 	b	904c <fast_hash+0xb8>
    900c:	e5d30001 	ldrb	r0, [r3, #1]
    9010:	e5d31000 	ldrb	r1, [r3]
    9014:	e0811400 	add	r1, r1, r0, lsl #8
    9018:	e0812002 	add	r2, r1, r2
    901c:	e0222802 	eor	r2, r2, r2, lsl #16
    9020:	e1d330d2 	ldrsb	r3, [r3, #2]
    9024:	e0222903 	eor	r2, r2, r3, lsl #18
    9028:	e08225a2 	add	r2, r2, r2, lsr #11
    902c:	ea00000a 	b	905c <fast_hash+0xc8>
    9030:	e5d31001 	ldrb	r1, [r3, #1]
    9034:	e5d33000 	ldrb	r3, [r3]
    9038:	e0833401 	add	r3, r3, r1, lsl #8
    903c:	e0832002 	add	r2, r3, r2
    9040:	e0222582 	eor	r2, r2, r2, lsl #11
    9044:	e08228a2 	add	r2, r2, r2, lsr #17
    9048:	ea000003 	b	905c <fast_hash+0xc8>
    904c:	e1d330d0 	ldrsb	r3, [r3]
    9050:	e0832002 	add	r2, r3, r2
    9054:	e0222502 	eor	r2, r2, r2, lsl #10
    9058:	e08220a2 	add	r2, r2, r2, lsr #1
    905c:	e0220182 	eor	r0, r2, r2, lsl #3
    9060:	e08002a0 	add	r0, r0, r0, lsr #5
    9064:	e0200200 	eor	r0, r0, r0, lsl #4
    9068:	e08008a0 	add	r0, r0, r0, lsr #17
    906c:	e0200c80 	eor	r0, r0, r0, lsl #25
    9070:	e0800320 	add	r0, r0, r0, lsr #6
    9074:	ea000000 	b	907c <fast_hash+0xe8>
    9078:	e3a00000 	mov	r0, #0
    907c:	e49d4004 	pop	{r4}		; (ldr r4, [sp], #4)
    9080:	e12fff1e 	bx	lr

00009084 <memset>:
    9084:	e0802002 	add	r2, r0, r2
    9088:	e1a03000 	mov	r3, r0
    908c:	ea000001 	b	9098 <memset+0x14>
    9090:	e5c31000 	strb	r1, [r3]
    9094:	e2833001 	add	r3, r3, #1
    9098:	e1530002 	cmp	r3, r2
    909c:	3afffffb 	bcc	9090 <memset+0xc>
    90a0:	e12fff1e 	bx	lr

000090a4 <printk>:
    90a4:	e92d000f 	push	{r0, r1, r2, r3}
    90a8:	e92d4030 	push	{r4, r5, lr}
    90ac:	e24dd00c 	sub	sp, sp, #12
    90b0:	e28d301c 	add	r3, sp, #28
    90b4:	e58d3004 	str	r3, [sp, #4]
    90b8:	e59f4034 	ldr	r4, [pc, #52]	; 90f4 <printk+0x50>
    90bc:	e1a00004 	mov	r0, r4
    90c0:	e3a01b01 	mov	r1, #1024	; 0x400
    90c4:	e59d2018 	ldr	r2, [sp, #24]
    90c8:	eb0000c8 	bl	93f0 <va_printk>
    90cc:	e1a05000 	mov	r5, r0
    90d0:	e59f3020 	ldr	r3, [pc, #32]	; 90f8 <printk+0x54>
    90d4:	e5933000 	ldr	r3, [r3]
    90d8:	e1a00004 	mov	r0, r4
    90dc:	e12fff33 	blx	r3
    90e0:	e1a00005 	mov	r0, r5
    90e4:	e28dd00c 	add	sp, sp, #12
    90e8:	e8bd4030 	pop	{r4, r5, lr}
    90ec:	e28dd010 	add	sp, sp, #16
    90f0:	e12fff1e 	bx	lr
    90f4:	0000a774 	andeq	sl, r0, r4, ror r7
    90f8:	00009c64 	andeq	r9, r0, r4, ror #24

000090fc <internal_putchar>:
    90fc:	e92d4010 	push	{r4, lr}
    9100:	e1a04000 	mov	r4, r0
    9104:	eb000212 	bl	9954 <uart_putc>
    9108:	e1a00004 	mov	r0, r4
    910c:	e8bd8010 	pop	{r4, pc}

00009110 <rpi_reset_putc>:
    9110:	e59f2008 	ldr	r2, [pc, #8]	; 9120 <rpi_reset_putc+0x10>
    9114:	e59f3008 	ldr	r3, [pc, #8]	; 9124 <rpi_reset_putc+0x14>
    9118:	e5832000 	str	r2, [r3]
    911c:	e12fff1e 	bx	lr
    9120:	000090fc 	strdeq	r9, [r0], -ip
    9124:	00009c60 	andeq	r9, r0, r0, ror #24

00009128 <rpi_set_putc>:
    9128:	e59f3004 	ldr	r3, [pc, #4]	; 9134 <rpi_set_putc+0xc>
    912c:	e5830000 	str	r0, [r3]
    9130:	e12fff1e 	bx	lr
    9134:	00009c60 	andeq	r9, r0, r0, ror #24

00009138 <internal_putk>:
    9138:	e92d4038 	push	{r3, r4, r5, lr}
    913c:	e1a04000 	mov	r4, r0
    9140:	e59f5020 	ldr	r5, [pc, #32]	; 9168 <internal_putk+0x30>
    9144:	ea000002 	b	9154 <internal_putk+0x1c>
    9148:	e5953000 	ldr	r3, [r5]
    914c:	e12fff33 	blx	r3
    9150:	e2844001 	add	r4, r4, #1
    9154:	e5d40000 	ldrb	r0, [r4]
    9158:	e3500000 	cmp	r0, #0
    915c:	1afffff9 	bne	9148 <internal_putk+0x10>
    9160:	e3a00001 	mov	r0, #1
    9164:	e8bd8038 	pop	{r3, r4, r5, pc}
    9168:	00009c60 	andeq	r9, r0, r0, ror #24

0000916c <isdigit>:
    916c:	e2400030 	sub	r0, r0, #48	; 0x30
    9170:	e3500009 	cmp	r0, #9
    9174:	83a00000 	movhi	r0, #0
    9178:	93a00001 	movls	r0, #1
    917c:	e12fff1e 	bx	lr

00009180 <pad>:
    9180:	e0611000 	rsb	r1, r1, r0
    9184:	e3a03020 	mov	r3, #32
    9188:	ea000002 	b	9198 <pad+0x18>
    918c:	e5c03000 	strb	r3, [r0]
    9190:	e2811001 	add	r1, r1, #1
    9194:	e2800001 	add	r0, r0, #1
    9198:	e1510002 	cmp	r1, r2
    919c:	bafffffa 	blt	918c <pad+0xc>
    91a0:	e3a03000 	mov	r3, #0
    91a4:	e5c03000 	strb	r3, [r0]
    91a8:	e12fff1e 	bx	lr

000091ac <reverse>:
    91ac:	e063c002 	rsb	ip, r3, r2
    91b0:	e28cc001 	add	ip, ip, #1
    91b4:	e15c0001 	cmp	ip, r1
    91b8:	c061100c 	rsbgt	r1, r1, ip
    91bc:	c0833001 	addgt	r3, r3, r1
    91c0:	e2422001 	sub	r2, r2, #1
    91c4:	e1a01000 	mov	r1, r0
    91c8:	ea000002 	b	91d8 <reverse+0x2c>
    91cc:	e452c001 	ldrb	ip, [r2], #-1
    91d0:	e5c1c000 	strb	ip, [r1]
    91d4:	e2811001 	add	r1, r1, #1
    91d8:	e1520003 	cmp	r2, r3
    91dc:	2afffffa 	bcs	91cc <reverse+0x20>
    91e0:	e3a03000 	mov	r3, #0
    91e4:	e5c13000 	strb	r3, [r1]
    91e8:	e12fff1e 	bx	lr

000091ec <emit>:
    91ec:	e92d41f0 	push	{r4, r5, r6, r7, r8, lr}
    91f0:	e24dd040 	sub	sp, sp, #64	; 0x40
    91f4:	e1a05001 	mov	r5, r1
    91f8:	e1a04002 	mov	r4, r2
    91fc:	e59d2058 	ldr	r2, [sp, #88]	; 0x58
    9200:	e1520004 	cmp	r2, r4
    9204:	c2442001 	subgt	r2, r4, #1
    9208:	e1a0c003 	mov	ip, r3
    920c:	e2400002 	sub	r0, r0, #2
    9210:	e350000e 	cmp	r0, #14
    9214:	979ff100 	ldrls	pc, [pc, r0, lsl #2]
    9218:	ea000048 	b	9340 <emit+0x154>
    921c:	00009318 	andeq	r9, r0, r8, lsl r3
    9220:	00009340 	andeq	r9, r0, r0, asr #6
    9224:	00009340 	andeq	r9, r0, r0, asr #6
    9228:	00009340 	andeq	r9, r0, r0, asr #6
    922c:	00009340 	andeq	r9, r0, r0, asr #6
    9230:	00009340 	andeq	r9, r0, r0, asr #6
    9234:	0000930c 	andeq	r9, r0, ip, lsl #6
    9238:	00009340 	andeq	r9, r0, r0, asr #6
    923c:	00009258 	andeq	r9, r0, r8, asr r2
    9240:	00009340 	andeq	r9, r0, r0, asr #6
    9244:	00009340 	andeq	r9, r0, r0, asr #6
    9248:	00009340 	andeq	r9, r0, r0, asr #6
    924c:	00009340 	andeq	r9, r0, r0, asr #6
    9250:	00009340 	andeq	r9, r0, r0, asr #6
    9254:	000092cc 	andeq	r9, r0, ip, asr #5
    9258:	e59d105c 	ldr	r1, [sp, #92]	; 0x5c
    925c:	e2911000 	adds	r1, r1, #0
    9260:	13a01001 	movne	r1, #1
    9264:	e0111fa3 	ands	r1, r1, r3, lsr #31
    9268:	1263c000 	rsbne	ip, r3, #0
    926c:	13a08001 	movne	r8, #1
    9270:	03a08000 	moveq	r8, #0
    9274:	e1a0100d 	mov	r1, sp
    9278:	e59f7100 	ldr	r7, [pc, #256]	; 9380 <emit+0x194>
    927c:	e59f6100 	ldr	r6, [pc, #256]	; 9384 <emit+0x198>
    9280:	ea000000 	b	9288 <emit+0x9c>
    9284:	e1a01000 	mov	r1, r0
    9288:	e2810001 	add	r0, r1, #1
    928c:	e083ec97 	umull	lr, r3, r7, ip
    9290:	e1a031a3 	lsr	r3, r3, #3
    9294:	e1a0e003 	mov	lr, r3
    9298:	e0833103 	add	r3, r3, r3, lsl #2
    929c:	e1a03083 	lsl	r3, r3, #1
    92a0:	e063300c 	rsb	r3, r3, ip
    92a4:	e7d63003 	ldrb	r3, [r6, r3]
    92a8:	e5c13000 	strb	r3, [r1]
    92ac:	e1a0c00e 	mov	ip, lr
    92b0:	e35e0000 	cmp	lr, #0
    92b4:	1afffff2 	bne	9284 <emit+0x98>
    92b8:	e3580000 	cmp	r8, #0
    92bc:	12810002 	addne	r0, r1, #2
    92c0:	13a0302d 	movne	r3, #45	; 0x2d
    92c4:	15c13001 	strbne	r3, [r1, #1]
    92c8:	ea000023 	b	935c <emit+0x170>
    92cc:	e1a0300d 	mov	r3, sp
    92d0:	e59fe0b0 	ldr	lr, [pc, #176]	; 9388 <emit+0x19c>
    92d4:	ea000000 	b	92dc <emit+0xf0>
    92d8:	e1a03000 	mov	r3, r0
    92dc:	e2830001 	add	r0, r3, #1
    92e0:	e20c100f 	and	r1, ip, #15
    92e4:	e7de1001 	ldrb	r1, [lr, r1]
    92e8:	e5c31000 	strb	r1, [r3]
    92ec:	e1b0c22c 	lsrs	ip, ip, #4
    92f0:	1afffff8 	bne	92d8 <emit+0xec>
    92f4:	e3a01078 	mov	r1, #120	; 0x78
    92f8:	e5c31001 	strb	r1, [r3, #1]
    92fc:	e2830003 	add	r0, r3, #3
    9300:	e3a01030 	mov	r1, #48	; 0x30
    9304:	e5c31002 	strb	r1, [r3, #2]
    9308:	ea000013 	b	935c <emit+0x170>
    930c:	e5cd3000 	strb	r3, [sp]
    9310:	e28d0001 	add	r0, sp, #1
    9314:	ea000010 	b	935c <emit+0x170>
    9318:	e1a0300d 	mov	r3, sp
    931c:	e59fe068 	ldr	lr, [pc, #104]	; 938c <emit+0x1a0>
    9320:	e2830001 	add	r0, r3, #1
    9324:	e20c1001 	and	r1, ip, #1
    9328:	e7de1001 	ldrb	r1, [lr, r1]
    932c:	e5c31000 	strb	r1, [r3]
    9330:	e1a03000 	mov	r3, r0
    9334:	e1b0c0ac 	lsrs	ip, ip, #1
    9338:	1afffff8 	bne	9320 <emit+0x134>
    933c:	ea000006 	b	935c <emit+0x170>
    9340:	ebffff72 	bl	9110 <rpi_reset_putc>
    9344:	e59f0044 	ldr	r0, [pc, #68]	; 9390 <emit+0x1a4>
    9348:	e59f1044 	ldr	r1, [pc, #68]	; 9394 <emit+0x1a8>
    934c:	e59f2044 	ldr	r2, [pc, #68]	; 9398 <emit+0x1ac>
    9350:	e3a03077 	mov	r3, #119	; 0x77
    9354:	ebffff52 	bl	90a4 <printk>
    9358:	eb0000c6 	bl	9678 <clean_reboot>
    935c:	e1a0100d 	mov	r1, sp
    9360:	ebffff86 	bl	9180 <pad>
    9364:	e1a02000 	mov	r2, r0
    9368:	e1a00005 	mov	r0, r5
    936c:	e1a01004 	mov	r1, r4
    9370:	e1a0300d 	mov	r3, sp
    9374:	ebffff8c 	bl	91ac <reverse>
    9378:	e28dd040 	add	sp, sp, #64	; 0x40
    937c:	e8bd81f0 	pop	{r4, r5, r6, r7, r8, pc}
    9380:	cccccccd 	stclgt	12, cr12, [ip], {205}	; 0xcd
    9384:	0000a564 	andeq	sl, r0, r4, ror #10
    9388:	0000a570 	andeq	sl, r0, r0, ror r5
    938c:	0000a584 	andeq	sl, r0, r4, lsl #11
    9390:	0000a53c 	andeq	sl, r0, ip, lsr r5
    9394:	0000a550 	andeq	sl, r0, r0, asr r5
    9398:	0000a518 	andeq	sl, r0, r8, lsl r5

0000939c <rpi_set_output>:
    939c:	e92d4008 	push	{r3, lr}
    93a0:	e3500000 	cmp	r0, #0
    93a4:	1a000006 	bne	93c4 <rpi_set_output+0x28>
    93a8:	ebffff58 	bl	9110 <rpi_reset_putc>
    93ac:	e59f0028 	ldr	r0, [pc, #40]	; 93dc <rpi_set_output+0x40>
    93b0:	e59f1028 	ldr	r1, [pc, #40]	; 93e0 <rpi_set_output+0x44>
    93b4:	e59f2028 	ldr	r2, [pc, #40]	; 93e4 <rpi_set_output+0x48>
    93b8:	e3a03020 	mov	r3, #32
    93bc:	ebffff38 	bl	90a4 <printk>
    93c0:	eb0000ac 	bl	9678 <clean_reboot>
    93c4:	e59f301c 	ldr	r3, [pc, #28]	; 93e8 <rpi_set_output+0x4c>
    93c8:	e5830000 	str	r0, [r3]
    93cc:	e3510000 	cmp	r1, #0
    93d0:	159f3014 	ldrne	r3, [pc, #20]	; 93ec <rpi_set_output+0x50>
    93d4:	15831000 	strne	r1, [r3]
    93d8:	e8bd8008 	pop	{r3, pc}
    93dc:	0000a588 	andeq	sl, r0, r8, lsl #11
    93e0:	0000a550 	andeq	sl, r0, r0, asr r5
    93e4:	0000a520 	andeq	sl, r0, r0, lsr #10
    93e8:	00009c60 	andeq	r9, r0, r0, ror #24
    93ec:	00009c64 	andeq	r9, r0, r4, ror #24

000093f0 <va_printk>:
    93f0:	e92d4ff0 	push	{r4, r5, r6, r7, r8, r9, sl, fp, lr}
    93f4:	e24dd08c 	sub	sp, sp, #140	; 0x8c
    93f8:	e1a0a000 	mov	sl, r0
    93fc:	e1a09003 	mov	r9, r3
    9400:	e2411001 	sub	r1, r1, #1
    9404:	e0808001 	add	r8, r0, r1
    9408:	e3a03000 	mov	r3, #0
    940c:	e5c03000 	strb	r3, [r0]
    9410:	e1a04000 	mov	r4, r0
    9414:	e1a0b003 	mov	fp, r3
    9418:	ea000086 	b	9638 <va_printk+0x248>
    941c:	e3530025 	cmp	r3, #37	; 0x25
    9420:	12822001 	addne	r2, r2, #1
    9424:	15c43000 	strbne	r3, [r4]
    9428:	12844001 	addne	r4, r4, #1
    942c:	1a000081 	bne	9638 <va_printk+0x248>
    9430:	e5d21001 	ldrb	r1, [r2, #1]
    9434:	e3510025 	cmp	r1, #37	; 0x25
    9438:	05c43000 	strbeq	r3, [r4]
    943c:	02822002 	addeq	r2, r2, #2
    9440:	02844001 	addeq	r4, r4, #1
    9444:	0a00007b 	beq	9638 <va_printk+0x248>
    9448:	e2826001 	add	r6, r2, #1
    944c:	e1a0700b 	mov	r7, fp
    9450:	ea000004 	b	9468 <va_printk+0x78>
    9454:	e0877107 	add	r7, r7, r7, lsl #2
    9458:	e1a07087 	lsl	r7, r7, #1
    945c:	e0877005 	add	r7, r7, r5
    9460:	e2477030 	sub	r7, r7, #48	; 0x30
    9464:	e2866001 	add	r6, r6, #1
    9468:	e5d65000 	ldrb	r5, [r6]
    946c:	e1a00005 	mov	r0, r5
    9470:	ebffff3d 	bl	916c <isdigit>
    9474:	e3500000 	cmp	r0, #0
    9478:	1afffff5 	bne	9454 <va_printk+0x64>
    947c:	e357001f 	cmp	r7, #31
    9480:	9a000006 	bls	94a0 <va_printk+0xb0>
    9484:	ebffff21 	bl	9110 <rpi_reset_putc>
    9488:	e59f01d4 	ldr	r0, [pc, #468]	; 9664 <va_printk+0x274>
    948c:	e59f11d4 	ldr	r1, [pc, #468]	; 9668 <va_printk+0x278>
    9490:	e59f21d4 	ldr	r2, [pc, #468]	; 966c <va_printk+0x27c>
    9494:	e3a03094 	mov	r3, #148	; 0x94
    9498:	ebffff01 	bl	90a4 <printk>
    949c:	eb000075 	bl	9678 <clean_reboot>
    94a0:	e2455062 	sub	r5, r5, #98	; 0x62
    94a4:	e3550016 	cmp	r5, #22
    94a8:	979ff105 	ldrls	pc, [pc, r5, lsl #2]
    94ac:	ea00004e 	b	95ec <va_printk+0x1fc>
    94b0:	00009598 	muleq	r0, r8, r5
    94b4:	000095c8 	andeq	r9, r0, r8, asr #11
    94b8:	00009528 	andeq	r9, r0, r8, lsr #10
    94bc:	000095ec 	andeq	r9, r0, ip, ror #11
    94c0:	0000950c 	andeq	r9, r0, ip, lsl #10
    94c4:	000095ec 	andeq	r9, r0, ip, ror #11
    94c8:	000095ec 	andeq	r9, r0, ip, ror #11
    94cc:	000095ec 	andeq	r9, r0, ip, ror #11
    94d0:	000095ec 	andeq	r9, r0, ip, ror #11
    94d4:	000095ec 	andeq	r9, r0, ip, ror #11
    94d8:	000095ec 	andeq	r9, r0, ip, ror #11
    94dc:	000095ec 	andeq	r9, r0, ip, ror #11
    94e0:	000095ec 	andeq	r9, r0, ip, ror #11
    94e4:	000095ec 	andeq	r9, r0, ip, ror #11
    94e8:	00009574 	andeq	r9, r0, r4, ror r5
    94ec:	000095ec 	andeq	r9, r0, ip, ror #11
    94f0:	000095ec 	andeq	r9, r0, ip, ror #11
    94f4:	000095bc 			; <UNDEFINED> instruction: 0x000095bc
    94f8:	000095ec 	andeq	r9, r0, ip, ror #11
    94fc:	00009550 	andeq	r9, r0, r0, asr r5
    9500:	000095ec 	andeq	r9, r0, ip, ror #11
    9504:	000095ec 	andeq	r9, r0, ip, ror #11
    9508:	00009574 	andeq	r9, r0, r4, ror r5
    950c:	ebfffeff 	bl	9110 <rpi_reset_putc>
    9510:	e59f0158 	ldr	r0, [pc, #344]	; 9670 <va_printk+0x280>
    9514:	e59f114c 	ldr	r1, [pc, #332]	; 9668 <va_printk+0x278>
    9518:	e59f214c 	ldr	r2, [pc, #332]	; 966c <va_printk+0x27c>
    951c:	e3a0309a 	mov	r3, #154	; 0x9a
    9520:	ebfffedf 	bl	90a4 <printk>
    9524:	eb000053 	bl	9678 <clean_reboot>
    9528:	e5993000 	ldr	r3, [r9]
    952c:	e2899004 	add	r9, r9, #4
    9530:	e58d7000 	str	r7, [sp]
    9534:	e3a02001 	mov	r2, #1
    9538:	e58d2004 	str	r2, [sp, #4]
    953c:	e3a0000a 	mov	r0, #10
    9540:	e28d1008 	add	r1, sp, #8
    9544:	e3a02080 	mov	r2, #128	; 0x80
    9548:	ebffff27 	bl	91ec <emit>
    954c:	ea00002f 	b	9610 <va_printk+0x220>
    9550:	e5993000 	ldr	r3, [r9]
    9554:	e2899004 	add	r9, r9, #4
    9558:	e58d7000 	str	r7, [sp]
    955c:	e58db004 	str	fp, [sp, #4]
    9560:	e3a0000a 	mov	r0, #10
    9564:	e28d1008 	add	r1, sp, #8
    9568:	e3a02080 	mov	r2, #128	; 0x80
    956c:	ebffff1e 	bl	91ec <emit>
    9570:	ea000026 	b	9610 <va_printk+0x220>
    9574:	e5993000 	ldr	r3, [r9]
    9578:	e2899004 	add	r9, r9, #4
    957c:	e58d7000 	str	r7, [sp]
    9580:	e58db004 	str	fp, [sp, #4]
    9584:	e3a00010 	mov	r0, #16
    9588:	e28d1008 	add	r1, sp, #8
    958c:	e3a02080 	mov	r2, #128	; 0x80
    9590:	ebffff15 	bl	91ec <emit>
    9594:	ea00001d 	b	9610 <va_printk+0x220>
    9598:	e5993000 	ldr	r3, [r9]
    959c:	e2899004 	add	r9, r9, #4
    95a0:	e58d7000 	str	r7, [sp]
    95a4:	e58db004 	str	fp, [sp, #4]
    95a8:	e3a00002 	mov	r0, #2
    95ac:	e28d1008 	add	r1, sp, #8
    95b0:	e3a02080 	mov	r2, #128	; 0x80
    95b4:	ebffff0c 	bl	91ec <emit>
    95b8:	ea000014 	b	9610 <va_printk+0x220>
    95bc:	e5990000 	ldr	r0, [r9]
    95c0:	e2899004 	add	r9, r9, #4
    95c4:	ea000011 	b	9610 <va_printk+0x220>
    95c8:	e5993000 	ldr	r3, [r9]
    95cc:	e2899004 	add	r9, r9, #4
    95d0:	e58d7000 	str	r7, [sp]
    95d4:	e58db004 	str	fp, [sp, #4]
    95d8:	e3a00008 	mov	r0, #8
    95dc:	e08d1000 	add	r1, sp, r0
    95e0:	e3a02080 	mov	r2, #128	; 0x80
    95e4:	ebffff00 	bl	91ec <emit>
    95e8:	ea000008 	b	9610 <va_printk+0x220>
    95ec:	ebfffec7 	bl	9110 <rpi_reset_putc>
    95f0:	e5d63000 	ldrb	r3, [r6]
    95f4:	e58d3000 	str	r3, [sp]
    95f8:	e59f0074 	ldr	r0, [pc, #116]	; 9674 <va_printk+0x284>
    95fc:	e59f1064 	ldr	r1, [pc, #100]	; 9668 <va_printk+0x278>
    9600:	e59f2064 	ldr	r2, [pc, #100]	; 966c <va_printk+0x27c>
    9604:	e3a030bb 	mov	r3, #187	; 0xbb
    9608:	ebfffea5 	bl	90a4 <printk>
    960c:	eb000019 	bl	9678 <clean_reboot>
    9610:	e2862001 	add	r2, r6, #1
    9614:	ea000002 	b	9624 <va_printk+0x234>
    9618:	e2800001 	add	r0, r0, #1
    961c:	e5c43000 	strb	r3, [r4]
    9620:	e2844001 	add	r4, r4, #1
    9624:	e1540008 	cmp	r4, r8
    9628:	2a000002 	bcs	9638 <va_printk+0x248>
    962c:	e5d03000 	ldrb	r3, [r0]
    9630:	e3530000 	cmp	r3, #0
    9634:	1afffff7 	bne	9618 <va_printk+0x228>
    9638:	e5d23000 	ldrb	r3, [r2]
    963c:	e3530000 	cmp	r3, #0
    9640:	0a000001 	beq	964c <va_printk+0x25c>
    9644:	e1540008 	cmp	r4, r8
    9648:	3affff73 	bcc	941c <va_printk+0x2c>
    964c:	e2840001 	add	r0, r4, #1
    9650:	e3a03000 	mov	r3, #0
    9654:	e5c43000 	strb	r3, [r4]
    9658:	e06a0000 	rsb	r0, sl, r0
    965c:	e28dd08c 	add	sp, sp, #140	; 0x8c
    9660:	e8bd8ff0 	pop	{r4, r5, r6, r7, r8, r9, sl, fp, pc}
    9664:	0000a5a0 	andeq	sl, r0, r0, lsr #11
    9668:	0000a550 	andeq	sl, r0, r0, asr r5
    966c:	0000a530 	andeq	sl, r0, r0, lsr r5
    9670:	0000a5bc 			; <UNDEFINED> instruction: 0x0000a5bc
    9674:	0000a5e4 	andeq	sl, r0, r4, ror #11

00009678 <clean_reboot>:
    9678:	e92d4008 	push	{r3, lr}
    967c:	e59f3014 	ldr	r3, [pc, #20]	; 9698 <clean_reboot+0x20>
    9680:	e5933000 	ldr	r3, [r3]
    9684:	e59f0010 	ldr	r0, [pc, #16]	; 969c <clean_reboot+0x24>
    9688:	e12fff33 	blx	r3
    968c:	e3a00064 	mov	r0, #100	; 0x64
    9690:	eb000044 	bl	97a8 <delay_ms>
    9694:	eb000019 	bl	9700 <rpi_reboot>
    9698:	00009c64 	andeq	r9, r0, r4, ror #24
    969c:	0000a61c 	andeq	sl, r0, ip, lsl r6

000096a0 <_cstart>:
    96a0:	e92d4008 	push	{r3, lr}
    96a4:	e59f3020 	ldr	r3, [pc, #32]	; 96cc <_cstart+0x2c>
    96a8:	e59f2020 	ldr	r2, [pc, #32]	; 96d0 <_cstart+0x30>
    96ac:	e3a01000 	mov	r1, #0
    96b0:	ea000001 	b	96bc <_cstart+0x1c>
    96b4:	e5831000 	str	r1, [r3]
    96b8:	e2833004 	add	r3, r3, #4
    96bc:	e1530002 	cmp	r3, r2
    96c0:	3afffffb 	bcc	96b4 <_cstart+0x14>
    96c4:	ebfffa6e 	bl	8084 <notmain>
    96c8:	ebffffea 	bl	9678 <clean_reboot>
    96cc:	0000a748 	andeq	sl, r0, r8, asr #14
    96d0:	0000ab78 	andeq	sl, r0, r8, ror fp

000096d4 <at_user_level>:
    96d4:	e10f0000 	mrs	r0, CPSR
    96d8:	e200001f 	and	r0, r0, #31
    96dc:	e3500010 	cmp	r0, #16
    96e0:	13a00000 	movne	r0, #0
    96e4:	03a00001 	moveq	r0, #1
    96e8:	e12fff1e 	bx	lr

000096ec <set_user_level>:
    96ec:	e10f3000 	mrs	r3, CPSR
    96f0:	e3c3301f 	bic	r3, r3, #31
    96f4:	e3833010 	orr	r3, r3, #16
    96f8:	e129f003 	msr	CPSR_fc, r3
    96fc:	e12fff1e 	bx	lr

00009700 <rpi_reboot>:
    9700:	e92d4008 	push	{r3, lr}
    9704:	ebfffff2 	bl	96d4 <at_user_level>
    9708:	e3500000 	cmp	r0, #0
    970c:	0a000000 	beq	9714 <rpi_reboot+0x14>
    9710:	ebfffff5 	bl	96ec <set_user_level>
    9714:	e3a0001e 	mov	r0, #30
    9718:	eb000022 	bl	97a8 <delay_ms>
    971c:	e59f0014 	ldr	r0, [pc, #20]	; 9738 <rpi_reboot+0x38>
    9720:	e59f1014 	ldr	r1, [pc, #20]	; 973c <rpi_reboot+0x3c>
    9724:	eb00002b 	bl	97d8 <PUT32>
    9728:	e59f0010 	ldr	r0, [pc, #16]	; 9740 <rpi_reboot+0x40>
    972c:	e59f1010 	ldr	r1, [pc, #16]	; 9744 <rpi_reboot+0x44>
    9730:	eb000028 	bl	97d8 <PUT32>
    9734:	eafffffe 	b	9734 <rpi_reboot+0x34>
    9738:	20100024 	andscs	r0, r0, r4, lsr #32
    973c:	5a000001 	bpl	9748 <delay_cycles>
    9740:	2010001c 	andscs	r0, r0, ip, lsl r0
    9744:	5a000020 	bpl	97cc <delay_sec+0x10>

00009748 <delay_cycles>:
    9748:	ea000001 	b	9754 <delay_cycles+0xc>
    974c:	e2811000 	add	r1, r1, #0
    9750:	e1a00003 	mov	r0, r3
    9754:	e2403001 	sub	r3, r0, #1
    9758:	e3500000 	cmp	r0, #0
    975c:	1afffffa 	bne	974c <delay_cycles+0x4>
    9760:	e12fff1e 	bx	lr

00009764 <timer_get_usec_raw>:
    9764:	e92d4008 	push	{r3, lr}
    9768:	e59f0004 	ldr	r0, [pc, #4]	; 9774 <timer_get_usec_raw+0x10>
    976c:	eb000025 	bl	9808 <GET32>
    9770:	e8bd8008 	pop	{r3, pc}
    9774:	20003004 	andcs	r3, r0, r4

00009778 <timer_get_usec>:
    9778:	e92d4008 	push	{r3, lr}
    977c:	ebfffff8 	bl	9764 <timer_get_usec_raw>
    9780:	e8bd8008 	pop	{r3, pc}

00009784 <delay_us>:
    9784:	e92d4038 	push	{r3, r4, r5, lr}
    9788:	e1a05000 	mov	r5, r0
    978c:	ebfffff9 	bl	9778 <timer_get_usec>
    9790:	e1a04000 	mov	r4, r0
    9794:	ebfffff7 	bl	9778 <timer_get_usec>
    9798:	e0640000 	rsb	r0, r4, r0
    979c:	e1500005 	cmp	r0, r5
    97a0:	3afffffb 	bcc	9794 <delay_us+0x10>
    97a4:	e8bd8038 	pop	{r3, r4, r5, pc}

000097a8 <delay_ms>:
    97a8:	e92d4008 	push	{r3, lr}
    97ac:	e3a03ffa 	mov	r3, #1000	; 0x3e8
    97b0:	e0000093 	mul	r0, r3, r0
    97b4:	ebfffff2 	bl	9784 <delay_us>
    97b8:	e8bd8008 	pop	{r3, pc}

000097bc <delay_sec>:
    97bc:	e92d4008 	push	{r3, lr}
    97c0:	e3a03ffa 	mov	r3, #1000	; 0x3e8
    97c4:	e0000093 	mul	r0, r3, r0
    97c8:	ebfffff6 	bl	97a8 <delay_ms>
    97cc:	e8bd8008 	pop	{r3, pc}

000097d0 <put32>:
    97d0:	e5801000 	str	r1, [r0]
    97d4:	e12fff1e 	bx	lr

000097d8 <PUT32>:
    97d8:	e5801000 	str	r1, [r0]
    97dc:	e12fff1e 	bx	lr

000097e0 <put16>:
    97e0:	e1c010b0 	strh	r1, [r0]
    97e4:	e12fff1e 	bx	lr

000097e8 <PUT16>:
    97e8:	e1c010b0 	strh	r1, [r0]
    97ec:	e12fff1e 	bx	lr

000097f0 <put8>:
    97f0:	e5c01000 	strb	r1, [r0]
    97f4:	e12fff1e 	bx	lr

000097f8 <PUT8>:
    97f8:	e5c01000 	strb	r1, [r0]
    97fc:	e12fff1e 	bx	lr

00009800 <get32>:
    9800:	e5900000 	ldr	r0, [r0]
    9804:	e12fff1e 	bx	lr

00009808 <GET32>:
    9808:	e5900000 	ldr	r0, [r0]
    980c:	e12fff1e 	bx	lr

00009810 <GETPC>:
    9810:	e1a0000e 	mov	r0, lr
    9814:	e12fff1e 	bx	lr

00009818 <dummy>:
    9818:	e12fff1e 	bx	lr

0000981c <or_in32>:
    981c:	e92d4070 	push	{r4, r5, r6, lr}
    9820:	e1a04000 	mov	r4, r0
    9824:	e1a05001 	mov	r5, r1
    9828:	ebfffff4 	bl	9800 <get32>
    982c:	e1801005 	orr	r1, r0, r5
    9830:	e1a00004 	mov	r0, r4
    9834:	ebffffe5 	bl	97d0 <put32>
    9838:	e8bd8070 	pop	{r4, r5, r6, pc}

0000983c <uart_init>:
    983c:	e92d4010 	push	{r4, lr}
    9840:	e3a01002 	mov	r1, #2
    9844:	e3a0000e 	mov	r0, #14
    9848:	eb000051 	bl	9994 <gpio_set_function>
    984c:	e3a01002 	mov	r1, #2
    9850:	e3a0000f 	mov	r0, #15
    9854:	eb00004e 	bl	9994 <gpio_set_function>
    9858:	eb0000fa 	bl	9c48 <dev_barrier>
    985c:	e3a01001 	mov	r1, #1
    9860:	e59f0064 	ldr	r0, [pc, #100]	; 98cc <uart_init+0x90>
    9864:	ebffffec 	bl	981c <or_in32>
    9868:	eb0000f6 	bl	9c48 <dev_barrier>
    986c:	e59f405c 	ldr	r4, [pc, #92]	; 98d0 <uart_init+0x94>
    9870:	e3a01000 	mov	r1, #0
    9874:	e1a00004 	mov	r0, r4
    9878:	ebffffd4 	bl	97d0 <put32>
    987c:	e3a01000 	mov	r1, #0
    9880:	e59f004c 	ldr	r0, [pc, #76]	; 98d4 <uart_init+0x98>
    9884:	ebffffd1 	bl	97d0 <put32>
    9888:	e3a01003 	mov	r1, #3
    988c:	e59f0044 	ldr	r0, [pc, #68]	; 98d8 <uart_init+0x9c>
    9890:	ebffffce 	bl	97d0 <put32>
    9894:	e3a01000 	mov	r1, #0
    9898:	e59f003c 	ldr	r0, [pc, #60]	; 98dc <uart_init+0xa0>
    989c:	ebffffcb 	bl	97d0 <put32>
    98a0:	e3a010c7 	mov	r1, #199	; 0xc7
    98a4:	e59f0034 	ldr	r0, [pc, #52]	; 98e0 <uart_init+0xa4>
    98a8:	ebffffc8 	bl	97d0 <put32>
    98ac:	e59f1030 	ldr	r1, [pc, #48]	; 98e4 <uart_init+0xa8>
    98b0:	e59f0030 	ldr	r0, [pc, #48]	; 98e8 <uart_init+0xac>
    98b4:	ebffffc5 	bl	97d0 <put32>
    98b8:	e3a01003 	mov	r1, #3
    98bc:	e1a00004 	mov	r0, r4
    98c0:	ebffffc2 	bl	97d0 <put32>
    98c4:	eb0000df 	bl	9c48 <dev_barrier>
    98c8:	e8bd8010 	pop	{r4, pc}
    98cc:	20215004 	eorcs	r5, r1, r4
    98d0:	20215060 	eorcs	r5, r1, r0, rrx
    98d4:	20215044 	eorcs	r5, r1, r4, asr #32
    98d8:	2021504c 	eorcs	r5, r1, ip, asr #32
    98dc:	20215050 	eorcs	r5, r1, r0, asr r0
    98e0:	20215048 	eorcs	r5, r1, r8, asr #32
    98e4:	0000010e 	andeq	r0, r0, lr, lsl #2
    98e8:	20215068 	eorcs	r5, r1, r8, rrx

000098ec <uart_can_getc>:
    98ec:	e92d4010 	push	{r4, lr}
    98f0:	e59f0008 	ldr	r0, [pc, #8]	; 9900 <uart_can_getc+0x14>
    98f4:	ebffffc1 	bl	9800 <get32>
    98f8:	e2000001 	and	r0, r0, #1
    98fc:	e8bd8010 	pop	{r4, pc}
    9900:	20215064 	eorcs	r5, r1, r4, rrx

00009904 <uart_can_putc>:
    9904:	e92d4010 	push	{r4, lr}
    9908:	e59f0010 	ldr	r0, [pc, #16]	; 9920 <uart_can_putc+0x1c>
    990c:	ebffffbb 	bl	9800 <get32>
    9910:	e3100002 	tst	r0, #2
    9914:	13a00001 	movne	r0, #1
    9918:	03a00000 	moveq	r0, #0
    991c:	e8bd8010 	pop	{r4, pc}
    9920:	20215064 	eorcs	r5, r1, r4, rrx

00009924 <uart_getc>:
    9924:	e92d4010 	push	{r4, lr}
    9928:	eb0000c6 	bl	9c48 <dev_barrier>
    992c:	ebffffee 	bl	98ec <uart_can_getc>
    9930:	e3500000 	cmp	r0, #0
    9934:	0afffffc 	beq	992c <uart_getc+0x8>
    9938:	e59f0010 	ldr	r0, [pc, #16]	; 9950 <uart_getc+0x2c>
    993c:	ebffffaf 	bl	9800 <get32>
    9940:	e6ef4070 	uxtb	r4, r0
    9944:	eb0000bf 	bl	9c48 <dev_barrier>
    9948:	e1a00004 	mov	r0, r4
    994c:	e8bd8010 	pop	{r4, pc}
    9950:	20215040 	eorcs	r5, r1, r0, asr #32

00009954 <uart_putc>:
    9954:	e92d4010 	push	{r4, lr}
    9958:	e1a04000 	mov	r4, r0
    995c:	eb0000b9 	bl	9c48 <dev_barrier>
    9960:	ebffffe7 	bl	9904 <uart_can_putc>
    9964:	e3500000 	cmp	r0, #0
    9968:	0afffffc 	beq	9960 <uart_putc+0xc>
    996c:	e6ef1074 	uxtb	r1, r4
    9970:	e59f0008 	ldr	r0, [pc, #8]	; 9980 <uart_putc+0x2c>
    9974:	ebffff95 	bl	97d0 <put32>
    9978:	eb0000b2 	bl	9c48 <dev_barrier>
    997c:	e8bd8010 	pop	{r4, pc}
    9980:	20215040 	eorcs	r5, r1, r0, asr #32

00009984 <uart_has_data>:
    9984:	e92d4010 	push	{r4, lr}
    9988:	eb0000ae 	bl	9c48 <dev_barrier>
    998c:	ebffffd6 	bl	98ec <uart_can_getc>
    9990:	e8bd8010 	pop	{r4, pc}

00009994 <gpio_set_function>:
    9994:	e350001f 	cmp	r0, #31
    9998:	812fff1e 	bxhi	lr
    999c:	e3d13007 	bics	r3, r1, #7
    99a0:	112fff1e 	bxne	lr
    99a4:	e92d4070 	push	{r4, r5, r6, lr}
    99a8:	e1a05001 	mov	r5, r1
    99ac:	e59f3044 	ldr	r3, [pc, #68]	; 99f8 <gpio_set_function+0x64>
    99b0:	e0832093 	umull	r2, r3, r3, r0
    99b4:	e1a031a3 	lsr	r3, r3, #3
    99b8:	e1a06003 	mov	r6, r3
    99bc:	e0833103 	add	r3, r3, r3, lsl #2
    99c0:	e1a02083 	lsl	r2, r3, #1
    99c4:	e0403002 	sub	r3, r0, r2
    99c8:	e0834083 	add	r4, r3, r3, lsl #1
    99cc:	e2866302 	add	r6, r6, #134217728	; 0x8000000
    99d0:	e2866702 	add	r6, r6, #524288	; 0x80000
    99d4:	e1a06106 	lsl	r6, r6, #2
    99d8:	e1a00006 	mov	r0, r6
    99dc:	ebffff89 	bl	9808 <GET32>
    99e0:	e3a01007 	mov	r1, #7
    99e4:	e1c01411 	bic	r1, r0, r1, lsl r4
    99e8:	e1811415 	orr	r1, r1, r5, lsl r4
    99ec:	e1a00006 	mov	r0, r6
    99f0:	ebffff78 	bl	97d8 <PUT32>
    99f4:	e8bd8070 	pop	{r4, r5, r6, pc}
    99f8:	cccccccd 	stclgt	12, cr12, [ip], {205}	; 0xcd

000099fc <gpio_set_output>:
    99fc:	e92d4010 	push	{r4, lr}
    9a00:	e3a01001 	mov	r1, #1
    9a04:	ebffffe2 	bl	9994 <gpio_set_function>
    9a08:	e8bd8010 	pop	{r4, pc}

00009a0c <gpio_set_on>:
    9a0c:	e350001f 	cmp	r0, #31
    9a10:	812fff1e 	bxhi	lr
    9a14:	e92d4010 	push	{r4, lr}
    9a18:	e3a01001 	mov	r1, #1
    9a1c:	e1a01011 	lsl	r1, r1, r0
    9a20:	e59f0004 	ldr	r0, [pc, #4]	; 9a2c <gpio_set_on+0x20>
    9a24:	ebffff6b 	bl	97d8 <PUT32>
    9a28:	e8bd8010 	pop	{r4, pc}
    9a2c:	2020001c 	eorcs	r0, r0, ip, lsl r0

00009a30 <gpio_set_off>:
    9a30:	e350001f 	cmp	r0, #31
    9a34:	812fff1e 	bxhi	lr
    9a38:	e92d4010 	push	{r4, lr}
    9a3c:	e3a01001 	mov	r1, #1
    9a40:	e1a01011 	lsl	r1, r1, r0
    9a44:	e59f0004 	ldr	r0, [pc, #4]	; 9a50 <gpio_set_off+0x20>
    9a48:	ebffff62 	bl	97d8 <PUT32>
    9a4c:	e8bd8010 	pop	{r4, pc}
    9a50:	20200028 	eorcs	r0, r0, r8, lsr #32

00009a54 <gpio_set_input>:
    9a54:	e92d4010 	push	{r4, lr}
    9a58:	e3a01000 	mov	r1, #0
    9a5c:	ebffffcc 	bl	9994 <gpio_set_function>
    9a60:	e8bd8010 	pop	{r4, pc}

00009a64 <gpio_write>:
    9a64:	e92d4010 	push	{r4, lr}
    9a68:	e3510000 	cmp	r1, #0
    9a6c:	1a000001 	bne	9a78 <gpio_write+0x14>
    9a70:	ebffffee 	bl	9a30 <gpio_set_off>
    9a74:	e8bd8010 	pop	{r4, pc}
    9a78:	ebffffe3 	bl	9a0c <gpio_set_on>
    9a7c:	e8bd8010 	pop	{r4, pc}

00009a80 <gpio_read>:
    9a80:	e350001f 	cmp	r0, #31
    9a84:	8a000007 	bhi	9aa8 <gpio_read+0x28>
    9a88:	e92d4010 	push	{r4, lr}
    9a8c:	e200401f 	and	r4, r0, #31
    9a90:	e59f3018 	ldr	r3, [pc, #24]	; 9ab0 <gpio_read+0x30>
    9a94:	e08302a0 	add	r0, r3, r0, lsr #5
    9a98:	ebffff5a 	bl	9808 <GET32>
    9a9c:	e1a00430 	lsr	r0, r0, r4
    9aa0:	e2000001 	and	r0, r0, #1
    9aa4:	e8bd8010 	pop	{r4, pc}
    9aa8:	e3e00000 	mvn	r0, #0
    9aac:	e12fff1e 	bx	lr
    9ab0:	20200034 	eorcs	r0, r0, r4, lsr r0

00009ab4 <kmalloc_heap_end>:
    9ab4:	e59f3004 	ldr	r3, [pc, #4]	; 9ac0 <kmalloc_heap_end+0xc>
    9ab8:	e5930000 	ldr	r0, [r3]
    9abc:	e12fff1e 	bx	lr
    9ac0:	00009c68 	andeq	r9, r0, r8, ror #24

00009ac4 <kmalloc_heap_start>:
    9ac4:	e59f0000 	ldr	r0, [pc]	; 9acc <kmalloc_heap_start+0x8>
    9ac8:	e12fff1e 	bx	lr
    9acc:	0000ab78 	andeq	sl, r0, r8, ror fp

00009ad0 <kmalloc_init_set_start>:
    9ad0:	e59f3038 	ldr	r3, [pc, #56]	; 9b10 <kmalloc_init_set_start+0x40>
    9ad4:	e5933000 	ldr	r3, [r3]
    9ad8:	e1500003 	cmp	r0, r3
    9adc:	9a000003 	bls	9af0 <kmalloc_init_set_start+0x20>
    9ae0:	e59f3028 	ldr	r3, [pc, #40]	; 9b10 <kmalloc_init_set_start+0x40>
    9ae4:	e5830000 	str	r0, [r3]
    9ae8:	e5830004 	str	r0, [r3, #4]
    9aec:	e12fff1e 	bx	lr
    9af0:	e92d4010 	push	{r4, lr}
    9af4:	ebfffd85 	bl	9110 <rpi_reset_putc>
    9af8:	e3a03016 	mov	r3, #22
    9afc:	e59f2010 	ldr	r2, [pc, #16]	; 9b14 <kmalloc_init_set_start+0x44>
    9b00:	e59f1010 	ldr	r1, [pc, #16]	; 9b18 <kmalloc_init_set_start+0x48>
    9b04:	e59f0010 	ldr	r0, [pc, #16]	; 9b1c <kmalloc_init_set_start+0x4c>
    9b08:	ebfffd65 	bl	90a4 <printk>
    9b0c:	ebfffed9 	bl	9678 <clean_reboot>
    9b10:	00009c68 	andeq	r9, r0, r8, ror #24
    9b14:	0000a628 	andeq	sl, r0, r8, lsr #12
    9b18:	0000a658 	andeq	sl, r0, r8, asr r6
    9b1c:	0000a664 	andeq	sl, r0, r4, ror #12

00009b20 <kmalloc>:
    9b20:	e92d4010 	push	{r4, lr}
    9b24:	e3500000 	cmp	r0, #0
    9b28:	0a00000a 	beq	9b58 <kmalloc+0x38>
    9b2c:	e2802007 	add	r2, r0, #7
    9b30:	e3c22007 	bic	r2, r2, #7
    9b34:	e59f3038 	ldr	r3, [pc, #56]	; 9b74 <kmalloc+0x54>
    9b38:	e5934000 	ldr	r4, [r3]
    9b3c:	e0841002 	add	r1, r4, r2
    9b40:	e5831000 	str	r1, [r3]
    9b44:	e3a01000 	mov	r1, #0
    9b48:	e1a00004 	mov	r0, r4
    9b4c:	ebfffd4c 	bl	9084 <memset>
    9b50:	e1a00004 	mov	r0, r4
    9b54:	e8bd8010 	pop	{r4, pc}
    9b58:	ebfffd6c 	bl	9110 <rpi_reset_putc>
    9b5c:	e3a0301b 	mov	r3, #27
    9b60:	e59f2010 	ldr	r2, [pc, #16]	; 9b78 <kmalloc+0x58>
    9b64:	e59f1010 	ldr	r1, [pc, #16]	; 9b7c <kmalloc+0x5c>
    9b68:	e59f0010 	ldr	r0, [pc, #16]	; 9b80 <kmalloc+0x60>
    9b6c:	ebfffd4c 	bl	90a4 <printk>
    9b70:	ebfffec0 	bl	9678 <clean_reboot>
    9b74:	00009c68 	andeq	r9, r0, r8, ror #24
    9b78:	0000a640 	andeq	sl, r0, r0, asr #12
    9b7c:	0000a658 	andeq	sl, r0, r8, asr r6
    9b80:	0000a680 	andeq	sl, r0, r0, lsl #13

00009b84 <kmalloc_init>:
    9b84:	e12fff1e 	bx	lr

00009b88 <kmalloc_heap_ptr>:
    9b88:	e92d4010 	push	{r4, lr}
    9b8c:	ebffffcc 	bl	9ac4 <kmalloc_heap_start>
    9b90:	e8bd8010 	pop	{r4, pc}

00009b94 <kmalloc_aligned>:
    9b94:	e92d4010 	push	{r4, lr}
    9b98:	e2613000 	rsb	r3, r1, #0
    9b9c:	e1d12003 	bics	r2, r1, r3
    9ba0:	1a00000b 	bne	9bd4 <kmalloc_aligned+0x40>
    9ba4:	e59f2060 	ldr	r2, [pc, #96]	; 9c0c <kmalloc_aligned+0x78>
    9ba8:	e5922000 	ldr	r2, [r2]
    9bac:	e0812002 	add	r2, r1, r2
    9bb0:	e2422001 	sub	r2, r2, #1
    9bb4:	e0033002 	and	r3, r3, r2
    9bb8:	e2411001 	sub	r1, r1, #1
    9bbc:	e1130001 	tst	r3, r1
    9bc0:	1a00000a 	bne	9bf0 <kmalloc_aligned+0x5c>
    9bc4:	e59f2040 	ldr	r2, [pc, #64]	; 9c0c <kmalloc_aligned+0x78>
    9bc8:	e5823000 	str	r3, [r2]
    9bcc:	ebffffd3 	bl	9b20 <kmalloc>
    9bd0:	e8bd8010 	pop	{r4, pc}
    9bd4:	ebfffd4d 	bl	9110 <rpi_reset_putc>
    9bd8:	e3a0302a 	mov	r3, #42	; 0x2a
    9bdc:	e59f202c 	ldr	r2, [pc, #44]	; 9c10 <kmalloc_aligned+0x7c>
    9be0:	e59f102c 	ldr	r1, [pc, #44]	; 9c14 <kmalloc_aligned+0x80>
    9be4:	e59f002c 	ldr	r0, [pc, #44]	; 9c18 <kmalloc_aligned+0x84>
    9be8:	ebfffd2d 	bl	90a4 <printk>
    9bec:	ebfffea1 	bl	9678 <clean_reboot>
    9bf0:	ebfffd46 	bl	9110 <rpi_reset_putc>
    9bf4:	e3a03030 	mov	r3, #48	; 0x30
    9bf8:	e59f2010 	ldr	r2, [pc, #16]	; 9c10 <kmalloc_aligned+0x7c>
    9bfc:	e59f1010 	ldr	r1, [pc, #16]	; 9c14 <kmalloc_aligned+0x80>
    9c00:	e59f0014 	ldr	r0, [pc, #20]	; 9c1c <kmalloc_aligned+0x88>
    9c04:	ebfffd26 	bl	90a4 <printk>
    9c08:	ebfffe9a 	bl	9678 <clean_reboot>
    9c0c:	00009c68 	andeq	r9, r0, r8, ror #24
    9c10:	0000a648 	andeq	sl, r0, r8, asr #12
    9c14:	0000a658 	andeq	sl, r0, r8, asr r6
    9c18:	0000a694 	muleq	r0, r4, r6
    9c1c:	0000a6f4 	strdeq	sl, [r0], -r4

00009c20 <kfree>:
    9c20:	e12fff1e 	bx	lr

00009c24 <kfree_all>:
    9c24:	e59f3008 	ldr	r3, [pc, #8]	; 9c34 <kfree_all+0x10>
    9c28:	e5932004 	ldr	r2, [r3, #4]
    9c2c:	e5832000 	str	r2, [r3]
    9c30:	e12fff1e 	bx	lr
    9c34:	00009c68 	andeq	r9, r0, r8, ror #24

00009c38 <kfree_after>:
    9c38:	e59f3004 	ldr	r3, [pc, #4]	; 9c44 <kfree_after+0xc>
    9c3c:	e5830000 	str	r0, [r3]
    9c40:	e12fff1e 	bx	lr
    9c44:	00009c68 	andeq	r9, r0, r8, ror #24

00009c48 <dev_barrier>:
    9c48:	ea000002 	b	9c58 <dsb>

00009c4c <dmb>:
    9c4c:	e3a00000 	mov	r0, #0
    9c50:	ee070fba 	mcr	15, 0, r0, cr7, cr10, {5}
    9c54:	e12fff1e 	bx	lr

00009c58 <dsb>:
    9c58:	ee070f9a 	mcr	15, 0, r0, cr7, cr10, {4}
    9c5c:	e12fff1e 	bx	lr

Disassembly of section .data:

00009c60 <__data_start__>:
    9c60:	000090fc 	strdeq	r9, [r0], -ip

00009c64 <putk>:
    9c64:	00009138 	andeq	r9, r0, r8, lsr r1

00009c68 <heap>:
    9c68:	0000ab78 	andeq	sl, r0, r8, ror fp

00009c6c <heap_start>:
    9c6c:	0000ab78 	andeq	sl, r0, r8, ror fp

Disassembly of section .rodata:

00009c70 <__FUNCTION__.4207>:
    9c70:	74736574 	ldrbtvc	r6, [r3], #-1396	; 0x574
    9c74:	00000000 	andeq	r0, r0, r0
    9c78:	74736574 	ldrbtvc	r6, [r3], #-1396	; 0x574
    9c7c:	61702f73 	cmnvs	r0, r3, ror pc
    9c80:	2d327472 	cfldrscs	mvf7, [r2, #-456]!	; 0xfffffe38
    9c84:	74736574 	ldrbtvc	r6, [r3], #-1396	; 0x574
    9c88:	00632e33 	rsbeq	r2, r3, r3, lsr lr
    9c8c:	74204347 	strtvc	r4, [r0], #-839	; 0x347
    9c90:	3a747365 	bcc	1d26a2c <__bss_end__+0x1d1beb4>
    9c94:	65686320 	strbvs	r6, [r8, #-800]!	; 0x320
    9c98:	6e696b63 	vnmulvs.f64	d22, d9, d19
    9c9c:	68742067 	ldmdavs	r4!, {r0, r1, r2, r5, r6, sp}^
    9ca0:	61207461 	teqvs	r0, r1, ror #8
    9ca4:	6e696c20 	cdpvs	12, 6, cr6, cr9, cr0, {1}
    9ca8:	2064656b 	rsbcs	r6, r4, fp, ror #10
    9cac:	7473696c 	ldrbtvc	r6, [r3], #-2412	; 0x96c
    9cb0:	20736920 	rsbscs	r6, r3, r0, lsr #18
    9cb4:	63637573 	cmnvs	r3, #482344960	; 0x1cc00000
    9cb8:	66737365 	ldrbtvs	r7, [r3], -r5, ror #6
    9cbc:	796c6c75 	stmdbvc	ip!, {r0, r2, r4, r5, r6, sl, fp, sp, lr}^
    9cc0:	61727420 	cmnvs	r2, r0, lsr #8
    9cc4:	73726576 	cmnvc	r2, #494927872	; 0x1d800000
    9cc8:	0a2e6465 	beq	ba2e64 <__bss_end__+0xb982ec>
    9ccc:	00000000 	andeq	r0, r0, r0
    9cd0:	7473616c 	ldrbtvc	r6, [r3], #-364	; 0x16c
    9cd4:	6c6c6120 	stfvse	f6, [ip], #-128	; 0xffffff80
    9cd8:	3d20636f 	stccc	3, cr6, [r0, #-444]!	; 0xfffffe44
    9cdc:	000a7025 	andeq	r7, sl, r5, lsr #32

00009ce0 <__FUNCTION__.4278>:
    9ce0:	63656863 	cmnvs	r5, #6488064	; 0x630000
    9ce4:	64685f6b 	strbtvs	r5, [r8], #-3947	; 0xf6b
    9ce8:	00000072 	andeq	r0, r0, r2, ror r0

00009cec <__FUNCTION__.4265>:
    9cec:	695f6b63 	ldmdbvs	pc, {r0, r1, r5, r6, r8, r9, fp, sp, lr}^	; <UNPREDICTABLE>
    9cf0:	0074696e 	rsbseq	r6, r4, lr, ror #18

00009cf4 <__FUNCTION__.4304>:
    9cf4:	72666b63 	rsbvc	r6, r6, #101376	; 0x18c00
    9cf8:	00006565 	andeq	r6, r0, r5, ror #10

00009cfc <__FUNCTION__.4313>:
    9cfc:	6c616b63 	stclvs	11, cr6, [r1], #-396	; 0xfffffe74
    9d00:	00636f6c 	rsbeq	r6, r3, ip, ror #30

00009d04 <__FUNCTION__.4324>:
    9d04:	685f6b63 	ldmdavs	pc, {r0, r1, r5, r6, r8, r9, fp, sp, lr}^	; <UNPREDICTABLE>
    9d08:	5f706165 	svcpl	0x00706165
    9d0c:	6f727265 	svcvs	0x00727265
    9d10:	00007372 	andeq	r7, r0, r2, ror r3

00009d14 <__FUNCTION__.4333>:
    9d14:	665f6b63 	ldrbvs	r6, [pc], -r3, ror #22
    9d18:	74737269 	ldrbtvc	r7, [r3], #-617	; 0x269
    9d1c:	7264685f 	rsbvc	r6, r4, #6225920	; 0x5f0000
    9d20:	00000000 	andeq	r0, r0, r0

00009d24 <__FUNCTION__.4338>:
    9d24:	6e5f6b63 	vnmlavs.f64	d22, d15, d19
    9d28:	5f747865 	svcpl	0x00747865
    9d2c:	00726468 	rsbseq	r6, r2, r8, ror #8
    9d30:	43415254 	movtmi	r5, #4692	; 0x1254
    9d34:	00003a45 	andeq	r3, r0, r5, asr #20
    9d38:	4f525245 	svcmi	0x00525245
    9d3c:	00003a52 	andeq	r3, r0, r2, asr sl
    9d40:	636f6c62 	cmnvs	pc, #25088	; 0x6200
    9d44:	7025206b 	eorvc	r2, r5, fp, rrx
    9d48:	726f6320 	rsbvc	r6, pc, #32, 6	; 0x80000000
    9d4c:	74707572 	ldrbtvc	r7, [r0], #-1394	; 0x572
    9d50:	61206465 	teqvs	r0, r5, ror #8
    9d54:	666f2074 			; <UNDEFINED> instruction: 0x666f2074
    9d58:	74657366 	strbtvc	r7, [r5], #-870	; 0x366
    9d5c:	0a642520 	beq	19131e4 <__bss_end__+0x190866c>
    9d60:	00000000 	andeq	r0, r0, r0
    9d64:	79626e09 	stmdbvc	r2!, {r0, r3, r9, sl, fp, sp, lr}^
    9d68:	3d736574 	cfldr64cc	mvdx6, [r3, #-464]!	; 0xfffffe30
    9d6c:	000a6425 	andeq	r6, sl, r5, lsr #8
    9d70:	6f6c4209 	svcvs	0x006c4209
    9d74:	61206b63 	teqvs	r0, r3, ror #22
    9d78:	636f6c6c 	cmnvs	pc, #108, 24	; 0x6c00
    9d7c:	64657461 	strbtvs	r7, [r5], #-1121	; 0x461
    9d80:	3a746120 	bcc	1d22208 <__bss_end__+0x1d17690>
    9d84:	3a732520 	bcc	1cd320c <__bss_end__+0x1cc8694>
    9d88:	253a7325 	ldrcs	r7, [sl, #-805]!	; 0x325
    9d8c:	00000a64 	andeq	r0, r0, r4, ror #20
    9d90:	6f6c4209 	svcvs	0x006c4209
    9d94:	66206b63 	strtvs	r6, [r0], -r3, ror #22
    9d98:	64656572 	strbtvs	r6, [r5], #-1394	; 0x572
    9d9c:	3a746120 	bcc	1d22224 <__bss_end__+0x1d176ac>
    9da0:	3a732520 	bcc	1cd3228 <__bss_end__+0x1cc86b0>
    9da4:	253a7325 	ldrcs	r7, [sl, #-805]!	; 0x325
    9da8:	00000a64 	andeq	r0, r0, r4, ror #20
    9dac:	5d695b70 	vstmdbpl	r9!, {d21-<overflow reg d76>}
    9db0:	7825203a 	stmdavc	r5!, {r1, r3, r4, r5, sp}
    9db4:	0000000a 	andeq	r0, r0, sl
    9db8:	494e4150 	stmdbmi	lr, {r4, r6, r8, lr}^
    9dbc:	73253a43 	teqvc	r5, #274432	; 0x43000
    9dc0:	3a73253a 	bcc	1cd32b0 <__bss_end__+0x1cc8738>
    9dc4:	683a6425 	ldmdavs	sl!, {r0, r2, r5, sl, sp, lr}
    9dc8:	635f7264 	cmpvs	pc, #100, 4	; 0x40000006
    9dcc:	6d75736b 	ldclvs	3, cr7, [r5, #-428]!	; 0xfffffe54
    9dd0:	6c61765f 	stclvs	6, cr7, [r1], #-380	; 0xfffffe84
    9dd4:	203d3d20 	eorscs	r3, sp, r0, lsr #26
    9dd8:	633e2d68 	teqvs	lr, #104, 26	; 0x1a00
    9ddc:	6d75736b 	ldclvs	3, cr7, [r5, #-428]!	; 0xfffffe54
    9de0:	0000000a 	andeq	r0, r0, sl
    9de4:	6c616b63 	stclvs	11, cr6, [r1], #-396	; 0xfffffe74
    9de8:	2e636f6c 	cdpcs	15, 6, cr6, cr3, cr12, {3}
    9dec:	00000063 	andeq	r0, r0, r3, rrx
    9df0:	494e4150 	stmdbmi	lr, {r4, r6, r8, lr}^
    9df4:	73253a43 	teqvc	r5, #274432	; 0x43000
    9df8:	3a73253a 	bcc	1cd32e8 <__bss_end__+0x1cc8770>
    9dfc:	683a6425 	ldmdavs	sl!, {r0, r2, r5, sl, sp, lr}
    9e00:	74733e2d 	ldrbtvc	r3, [r3], #-3629	; 0xe2d
    9e04:	20657461 	rsbcs	r7, r5, r1, ror #8
    9e08:	41203d3d 	teqmi	r0, sp, lsr sp
    9e0c:	434f4c4c 	movtmi	r4, #64588	; 0xfc4c
    9e10:	7c204445 	cfstrsvc	mvf4, [r0], #-276	; 0xfffffeec
    9e14:	2d68207c 	stclcs	0, cr2, [r8, #-496]!	; 0xfffffe10
    9e18:	6174733e 	cmnvs	r4, lr, lsr r3
    9e1c:	3d206574 	cfstr32cc	mvfx6, [r0, #-464]!	; 0xfffffe30
    9e20:	5246203d 	subpl	r2, r6, #61	; 0x3d
    9e24:	0a444545 	beq	111b340 <__bss_end__+0x11107c8>
    9e28:	00000000 	andeq	r0, r0, r0
    9e2c:	494e4150 	stmdbmi	lr, {r4, r6, r8, lr}^
    9e30:	73253a43 	teqvc	r5, #274432	; 0x43000
    9e34:	3a73253a 	bcc	1cd3324 <__bss_end__+0x1cc87ac>
    9e38:	613a6425 	teqvs	sl, r5, lsr #8
    9e3c:	6e67696c 	cdpvs	9, 6, cr6, cr7, cr12, {3}
    9e40:	68286465 	stmdavs	r8!, {r0, r2, r5, r6, sl, sp, lr}
    9e44:	5f706165 	svcpl	0x00706165
    9e48:	72617473 	rsbvc	r7, r1, #1929379840	; 0x73000000
    9e4c:	38202c74 	stmdacc	r0!, {r2, r4, r5, r6, sl, fp, sp}
    9e50:	00000a29 	andeq	r0, r0, r9, lsr #20
    9e54:	657a6973 	ldrbvs	r6, [sl, #-2419]!	; 0x973
    9e58:	6820666f 	stmdavs	r0!, {r0, r1, r2, r3, r5, r6, r9, sl, sp, lr}
    9e5c:	253d7264 	ldrcs	r7, [sp, #-612]!	; 0x264
    9e60:	72202c64 	eorvc	r2, r0, #100, 24	; 0x6400
    9e64:	6f7a6465 	svcvs	0x007a6465
    9e68:	253d656e 	ldrcs	r6, [sp, #-1390]!	; 0x56e
    9e6c:	00000a64 	andeq	r0, r0, r4, ror #20
    9e70:	4f525245 	svcmi	0x00525245
    9e74:	73253a52 	teqvc	r5, #335872	; 0x52000
    9e78:	3a73253a 	bcc	1cd3368 <__bss_end__+0x1cc87f0>
    9e7c:	203a6425 	eorscs	r6, sl, r5, lsr #8
    9e80:	534c4146 	movtpl	r4, #49478	; 0xc146
    9e84:	683c2845 	ldmdavs	ip!, {r0, r2, r6, fp, sp}
    9e88:	3e706165 	rpwccsz	f6, f0, f5
    9e8c:	6e203a29 	vmulvs.f32	s6, s0, s19
    9e90:	6920746f 	stmdbvs	r0!, {r0, r1, r2, r3, r5, r6, sl, ip, sp, lr}
    9e94:	6974696e 	ldmdbvs	r4!, {r1, r2, r3, r5, r6, r8, fp, sp, lr}^
    9e98:	7a696c61 	bvc	1a65024 <__bss_end__+0x1a5a4ac>
    9e9c:	0a3f6465 	beq	fe3038 <__bss_end__+0xfd84c0>
    9ea0:	00000000 	andeq	r0, r0, r0
    9ea4:	65657266 	strbvs	r7, [r5, #-614]!	; 0x266
    9ea8:	20676e69 	rsbcs	r6, r7, r9, ror #28
    9eac:	000a7025 	andeq	r7, sl, r5, lsr #32
    9eb0:	6f6c6c61 	svcvs	0x006c6c61
    9eb4:	69746163 	ldmdbvs	r4!, {r0, r1, r5, r6, r8, sp, lr}^
    9eb8:	2520676e 	strcs	r6, [r0, #-1902]!	; 0x76e
    9ebc:	79622064 	stmdbvc	r2!, {r2, r5, r6, sp}^
    9ec0:	0a736574 	beq	1ce3498 <__bss_end__+0x1cd8920>
    9ec4:	00000000 	andeq	r0, r0, r0
    9ec8:	43415254 	movtmi	r5, #4692	; 0x1254
    9ecc:	52453a45 	subpl	r3, r5, #282624	; 0x45000
    9ed0:	00524f52 	subseq	r4, r2, r2, asr pc
    9ed4:	657a6973 	ldrbvs	r6, [sl, #-2419]!	; 0x973
    9ed8:	65766f20 	ldrbvs	r6, [r6, #-3872]!	; 0xf20
    9edc:	6f6c6672 	svcvs	0x006c6672
    9ee0:	3a646577 	bcc	19234c4 <__bss_end__+0x191894c>
    9ee4:	20642520 	rsbcs	r2, r4, r0, lsr #10
    9ee8:	65747962 	ldrbvs	r7, [r4, #-2402]!	; 0x962
    9eec:	73692073 	cmnvc	r9, #115	; 0x73
    9ef0:	6f6f7420 	svcvs	0x006f7420
    9ef4:	72616c20 	rsbvc	r6, r1, #32, 24	; 0x2000
    9ef8:	000a6567 	andeq	r6, sl, r7, ror #10
    9efc:	494e4150 	stmdbmi	lr, {r4, r6, r8, lr}^
    9f00:	73253a43 	teqvc	r5, #274432	; 0x43000
    9f04:	3a73253a 	bcc	1cd33f4 <__bss_end__+0x1cc887c>
    9f08:	733a6425 	teqvc	sl, #620756992	; 0x25000000
    9f0c:	20657a69 	rsbcs	r7, r5, r9, ror #20
    9f10:	7265766f 	rsbvc	r7, r5, #116391936	; 0x6f00000
    9f14:	776f6c66 	strbvc	r6, [pc, -r6, ror #24]!
    9f18:	203a6465 	eorscs	r6, sl, r5, ror #8
    9f1c:	62206425 	eorvs	r6, r0, #620756992	; 0x25000000
    9f20:	73657479 	cmnvc	r5, #2030043136	; 0x79000000
    9f24:	20736920 	rsbscs	r6, r3, r0, lsr #18
    9f28:	206f6f74 	rsbcs	r6, pc, r4, ror pc	; <UNPREDICTABLE>
    9f2c:	6772616c 	ldrbvs	r6, [r2, -ip, ror #2]!
    9f30:	000a0a65 	andeq	r0, sl, r5, ror #20
    9f34:	2074756f 	rsbscs	r7, r4, pc, ror #10
    9f38:	6d20666f 	stcvs	6, cr6, [r0, #-444]!	; 0xfffffe44
    9f3c:	726f6d65 	rsbvc	r6, pc, #6464	; 0x1940
    9f40:	20202179 	eorcs	r2, r0, r9, ror r1
    9f44:	65766168 	ldrbvs	r6, [r6, #-360]!	; 0x168
    9f48:	6c6e6f20 	stclvs	15, cr6, [lr], #-128	; 0xffffff80
    9f4c:	64252079 	strtvs	r2, [r5], #-121	; 0x79
    9f50:	66656c20 	strbtvs	r6, [r5], -r0, lsr #24
    9f54:	6e202c74 	mcrvs	12, 1, r2, cr0, cr4, {3}
    9f58:	20646565 	rsbcs	r6, r4, r5, ror #10
    9f5c:	000a6425 	andeq	r6, sl, r5, lsr #8
    9f60:	494e4150 	stmdbmi	lr, {r4, r6, r8, lr}^
    9f64:	73253a43 	teqvc	r5, #274432	; 0x43000
    9f68:	3a73253a 	bcc	1cd3458 <__bss_end__+0x1cc88e0>
    9f6c:	6f3a6425 	svcvs	0x003a6425
    9f70:	6f207475 	svcvs	0x00207475
    9f74:	656d2066 	strbvs	r2, [sp, #-102]!	; 0x66
    9f78:	79726f6d 	ldmdbvc	r2!, {r0, r2, r3, r5, r6, r8, r9, sl, fp, sp, lr}^
    9f7c:	68202021 	stmdavs	r0!, {r0, r5, sp}
    9f80:	20657661 	rsbcs	r7, r5, r1, ror #12
    9f84:	796c6e6f 	stmdbvc	ip!, {r0, r1, r2, r3, r5, r6, r9, sl, fp, sp, lr}^
    9f88:	20642520 	rsbcs	r2, r4, r0, lsr #10
    9f8c:	7466656c 	strbtvc	r6, [r6], #-1388	; 0x56c
    9f90:	656e202c 	strbvs	r2, [lr, #-44]!	; 0x2c
    9f94:	25206465 	strcs	r6, [r0, #-1125]!	; 0x465
    9f98:	000a0a64 	andeq	r0, sl, r4, ror #20
    9f9c:	494e4150 	stmdbmi	lr, {r4, r6, r8, lr}^
    9fa0:	73253a43 	teqvc	r5, #274432	; 0x43000
    9fa4:	3a73253a 	bcc	1cd3494 <__bss_end__+0x1cc891c>
    9fa8:	633a6425 	teqvs	sl, #620756992	; 0x25000000
    9fac:	6b636568 	blvs	18e3554 <__bss_end__+0x18d89dc>
    9fb0:	7264685f 	rsbvc	r6, r4, #6225920	; 0x5f0000
    9fb4:	0a296828 	beq	a6405c <__bss_end__+0xa594e4>
    9fb8:	00000000 	andeq	r0, r0, r0
    9fbc:	494e4150 	stmdbmi	lr, {r4, r6, r8, lr}^
    9fc0:	73253a43 	teqvc	r5, #274432	; 0x43000
    9fc4:	3a73253a 	bcc	1cd34b4 <__bss_end__+0x1cc893c>
    9fc8:	633a6425 	teqvs	sl, #620756992	; 0x25000000
    9fcc:	6b636568 	blvs	18e3574 <__bss_end__+0x18d89fc>
    9fd0:	6f6c625f 	svcvs	0x006c625f
    9fd4:	68286b63 	stmdavs	r8!, {r0, r1, r5, r6, r8, r9, fp, sp, lr}
    9fd8:	00000a29 	andeq	r0, r0, r9, lsr #20
    9fdc:	6c616b63 	stclvs	11, cr6, [r1], #-396	; 0xfffffe74
    9fe0:	3a636f6c 	bcc	18e5d98 <__bss_end__+0x18db220>
    9fe4:	6f6c6c61 	svcvs	0x006c6c61
    9fe8:	65746163 	ldrbvs	r6, [r4, #-355]!	; 0x163
    9fec:	64252064 	strtvs	r2, [r5], #-100	; 0x64
    9ff0:	74796220 	ldrbtvc	r6, [r9], #-544	; 0x220
    9ff4:	202c7365 	eorcs	r7, ip, r5, ror #6
    9ff8:	746f7428 	strbtvc	r7, [pc], #-1064	; a000 <__FUNCTION__.4338+0x2dc>
    9ffc:	253d6c61 	ldrcs	r6, [sp, #-3169]!	; 0xc61
    a000:	202c2964 	eorcs	r2, ip, r4, ror #18
    a004:	3d727470 	cfldrdcc	mvd7, [r2, #-448]!	; 0xfffffe40
    a008:	000a7025 	andeq	r7, sl, r5, lsr #32
    a00c:	6e696f67 	cdpvs	15, 6, cr6, cr9, cr7, {3}
    a010:	6f742067 	svcvs	0x00742067
    a014:	65686320 	strbvs	r6, [r8, #-800]!	; 0x320
    a018:	68206b63 	stmdavs	r0!, {r0, r1, r5, r6, r8, r9, fp, sp, lr}
    a01c:	3a706165 	bcc	1c225b8 <__bss_end__+0x1c17a40>
    a020:	20642520 	rsbcs	r2, r4, r0, lsr #10
    a024:	65747962 	ldrbvs	r7, [r4, #-2402]!	; 0x962
    a028:	6c612073 	stclvs	0, cr2, [r1], #-460	; 0xfffffe34
    a02c:	61636f6c 	cmnvs	r3, ip, ror #30
    a030:	2c646574 	cfstr64cs	mvdx6, [r4], #-464	; 0xfffffe30
    a034:	20642520 	rsbcs	r2, r4, r0, lsr #10
    a038:	65747962 	ldrbvs	r7, [r4, #-2402]!	; 0x962
    a03c:	656c2073 	strbvs	r2, [ip, #-115]!	; 0x73
    a040:	000a7466 	andeq	r7, sl, r6, ror #8
    a044:	494e4150 	stmdbmi	lr, {r4, r6, r8, lr}^
    a048:	73253a43 	teqvc	r5, #274432	; 0x43000
    a04c:	3a73253a 	bcc	1cd353c <__bss_end__+0x1cc89c4>
    a050:	633a6425 	teqvs	sl, #620756992	; 0x25000000
    a054:	6b636568 	blvs	18e35fc <__bss_end__+0x18d8a84>
    a058:	7274705f 	rsbsvc	r7, r4, #95	; 0x5f
    a05c:	68203c20 	stmdavs	r0!, {r5, sl, fp, ip, sp}
    a060:	0a706165 	beq	1c225fc <__bss_end__+0x1c17a84>
    a064:	00000000 	andeq	r0, r0, r0
    a068:	64616568 	strbtvs	r6, [r1], #-1384	; 0x568
    a06c:	69207265 	stmdbvs	r0!, {r0, r2, r5, r6, r9, ip, sp, lr}
    a070:	6f632073 	svcvs	0x00632073
    a074:	70757272 	rsbsvc	r7, r5, r2, ror r2
    a078:	00646574 	rsbeq	r6, r4, r4, ror r5
    a07c:	6f725709 	svcvs	0x00725709
    a080:	62206574 	eorvs	r6, r0, #116, 10	; 0x1d000000
    a084:	6b636f6c 	blvs	18e5e3c <__bss_end__+0x18db2c4>
    a088:	74666120 	strbtvc	r6, [r6], #-288	; 0x120
    a08c:	66207265 	strtvs	r7, [r0], -r5, ror #4
    a090:	21656572 	smccs	22098	; 0x5652
    a094:	0000000a 	andeq	r0, r0, sl
    a098:	63656863 	cmnvs	r5, #6488064	; 0x630000
    a09c:	2064656b 	rsbcs	r6, r4, fp, ror #10
    a0a0:	62206425 	eorvs	r6, r0, #620756992	; 0x25000000
    a0a4:	6b636f6c 	blvs	18e5e5c <__bss_end__+0x18db2e4>
    a0a8:	64202c73 	strtvs	r2, [r0], #-3187	; 0xc73
    a0ac:	63657465 	cmnvs	r5, #1694498816	; 0x65000000
    a0b0:	20646574 	rsbcs	r6, r4, r4, ror r5
    a0b4:	65206425 	strvs	r6, [r0, #-1061]!	; 0x425
    a0b8:	726f7272 	rsbvc	r7, pc, #536870919	; 0x20000007
    a0bc:	00000a73 	andeq	r0, r0, r3, ror sl
    a0c0:	43435553 	movtmi	r5, #13651	; 0x3553
    a0c4:	3a535345 	bcc	14dede0 <__bss_end__+0x14d4268>
    a0c8:	65686320 	strbvs	r6, [r8, #-800]!	; 0x320
    a0cc:	64656b63 	strbtvs	r6, [r5], #-2915	; 0xb63
    a0d0:	20642520 	rsbcs	r2, r4, r0, lsr #10
    a0d4:	636f6c62 	cmnvs	pc, #25088	; 0x6200
    a0d8:	202c736b 	eorcs	r7, ip, fp, ror #6
    a0dc:	65746564 	ldrbvs	r6, [r4, #-1380]!	; 0x564
    a0e0:	64657463 	strbtvs	r7, [r5], #-1123	; 0x463
    a0e4:	206f6e20 	rsbcs	r6, pc, r0, lsr #28
    a0e8:	6f727265 	svcvs	0x00727265
    a0ec:	000a7372 	andeq	r7, sl, r2, ror r3
    a0f0:	494e4150 	stmdbmi	lr, {r4, r6, r8, lr}^
    a0f4:	73253a43 	teqvc	r5, #274432	; 0x43000
    a0f8:	3a73253a 	bcc	1cd35e8 <__bss_end__+0x1cc8a70>
    a0fc:	633a6425 	teqvs	sl, #620756992	; 0x25000000
    a100:	6b636568 	blvs	18e36a8 <__bss_end__+0x18d8b30>
    a104:	7264685f 	rsbvc	r6, r4, #6225920	; 0x5f0000
    a108:	72756328 	rsbsvc	r6, r5, #40, 6	; 0xa0000000
    a10c:	64685f72 	strbtvs	r5, [r8], #-3954	; 0xf72
    a110:	000a2972 	andeq	r2, sl, r2, ror r9
    a114:	494e4150 	stmdbmi	lr, {r4, r6, r8, lr}^
    a118:	73253a43 	teqvc	r5, #274432	; 0x43000
    a11c:	3a73253a 	bcc	1cd360c <__bss_end__+0x1cc8a94>
    a120:	283a6425 	ldmdacs	sl!, {r0, r2, r5, sl, sp, lr}
    a124:	746e6975 	strbtvc	r6, [lr], #-2421	; 0x975
    a128:	2a745f38 	bcs	1d21e10 <__bss_end__+0x1d17298>
    a12c:	78656e29 	stmdavc	r5!, {r0, r3, r5, r9, sl, fp, sp, lr}^
    a130:	64685f74 	strbtvs	r5, [r8], #-3956	; 0xf74
    a134:	203c2072 	eorscs	r2, ip, r2, ror r0
    a138:	70616568 	rsbvc	r6, r1, r8, ror #10
    a13c:	0000000a 	andeq	r0, r0, sl
    a140:	494e4150 	stmdbmi	lr, {r4, r6, r8, lr}^
    a144:	73253a43 	teqvc	r5, #274432	; 0x43000
    a148:	3a73253a 	bcc	1cd3638 <__bss_end__+0x1cc8ac0>
    a14c:	633a6425 	teqvs	sl, #620756992	; 0x25000000
    a150:	6b636568 	blvs	18e36f8 <__bss_end__+0x18d8b80>
    a154:	7264685f 	rsbvc	r6, r4, #6225920	; 0x5f0000
    a158:	78656e28 	stmdavc	r5!, {r3, r5, r9, sl, fp, sp, lr}^
    a15c:	64685f74 	strbtvs	r5, [r8], #-3956	; 0xf74
    a160:	000a2972 	andeq	r2, sl, r2, ror r9

0000a164 <__FUNCTION__.4279>:
    a164:	6b72616d 	blvs	1ca2720 <__bss_end__+0x1c97ba8>
    a168:	00000000 	andeq	r0, r0, r0

0000a16c <__FUNCTION__.4307>:
    a16c:	6b72616d 	blvs	1ca2728 <__bss_end__+0x1c97bb0>
    a170:	6c6c615f 	stfvse	f6, [ip], #-380	; 0xfffffe84
    a174:	00000000 	andeq	r0, r0, r0

0000a178 <__FUNCTION__.4345>:
    a178:	65657773 	strbvs	r7, [r5, #-1907]!	; 0x773
    a17c:	72665f70 	rsbvc	r5, r6, #112, 30	; 0x1c0
    a180:	00006565 	andeq	r6, r0, r5, ror #10

0000a184 <__FUNCTION__.4327>:
    a184:	63656863 	cmnvs	r5, #6488064	; 0x630000
    a188:	6f6e5f6b 	svcvs	0x006e5f6b
    a18c:	61656c5f 	cmnvs	r5, pc, asr ip
    a190:	0000006b 	andeq	r0, r0, fp, rrx

0000a194 <__FUNCTION__.4331>:
    a194:	63656863 	cmnvs	r5, #6488064	; 0x630000
    a198:	68735f6b 	ldmdavs	r3!, {r0, r1, r3, r5, r6, r8, r9, sl, fp, ip, lr}^
    a19c:	646c756f 	strbtvs	r7, [ip], #-1391	; 0x56f
    a1a0:	61656c5f 	cmnvs	r5, pc, asr ip
    a1a4:	0000006b 	andeq	r0, r0, fp, rrx

0000a1a8 <__FUNCTION__.4336>:
    a1a8:	6c706d69 	ldclvs	13, cr6, [r0], #-420	; 0xfffffe5c
    a1ac:	6e656d65 	cdpvs	13, 6, cr6, cr5, cr5, {3}
    a1b0:	68745f74 	ldmdavs	r4!, {r2, r4, r5, r6, r8, r9, sl, fp, ip, lr}^
    a1b4:	00007369 	andeq	r7, r0, r9, ror #6
    a1b8:	2d2d2d2d 	stccs	13, cr2, [sp, #-180]!	; 0xffffff4c
    a1bc:	2d2d2d2d 	stccs	13, cr2, [sp, #-180]!	; 0xffffff4c
    a1c0:	2d2d2d2d 	stccs	13, cr2, [sp, #-180]!	; 0xffffff4c
    a1c4:	2d2d2d2d 	stccs	13, cr2, [sp, #-180]!	; 0xffffff4c
    a1c8:	2d2d2d2d 	stccs	13, cr2, [sp, #-180]!	; 0xffffff4c
    a1cc:	2d2d2d2d 	stccs	13, cr2, [sp, #-180]!	; 0xffffff4c
    a1d0:	2d2d2d2d 	stccs	13, cr2, [sp, #-180]!	; 0xffffff4c
    a1d4:	2d2d2d2d 	stccs	13, cr2, [sp, #-180]!	; 0xffffff4c
    a1d8:	2d2d2d2d 	stccs	13, cr2, [sp, #-180]!	; 0xffffff4c
    a1dc:	2d2d2d2d 	stccs	13, cr2, [sp, #-180]!	; 0xffffff4c
    a1e0:	2d2d2d2d 	stccs	13, cr2, [sp, #-180]!	; 0xffffff4c
    a1e4:	2d2d2d2d 	stccs	13, cr2, [sp, #-180]!	; 0xffffff4c
    a1e8:	2d2d2d2d 	stccs	13, cr2, [sp, #-180]!	; 0xffffff4c
    a1ec:	2d2d2d2d 	stccs	13, cr2, [sp, #-180]!	; 0xffffff4c
    a1f0:	00000a2d 	andeq	r0, r0, sp, lsr #20
    a1f4:	63656863 	cmnvs	r5, #6488064	; 0x630000
    a1f8:	676e696b 	strbvs	r6, [lr, -fp, ror #18]!
    a1fc:	726f6620 	rsbvc	r6, pc, #32, 12	; 0x2000000
    a200:	61656c20 	cmnvs	r5, r0, lsr #24
    a204:	0a3a736b 	beq	ea6fb8 <__bss_end__+0xe9c440>
    a208:	00000000 	andeq	r0, r0, r0
    a20c:	4f525245 	svcmi	0x00525245
    a210:	43473a52 	movtmi	r3, #31314	; 0x7a52
    a214:	4645443a 			; <UNDEFINED> instruction: 0x4645443a
    a218:	54494e49 	strbpl	r4, [r9], #-3657	; 0xe49
    a21c:	454c2045 	strbmi	r2, [ip, #-69]	; 0x45
    a220:	6f204b41 	svcvs	0x00204b41
    a224:	78252066 	stmdavc	r5!, {r1, r2, r5, r6, sp}
    a228:	0000000a 	andeq	r0, r0, sl
    a22c:	4f525245 	svcmi	0x00525245
    a230:	43473a52 	movtmi	r3, #31314	; 0x7a52
    a234:	59414d3a 	stmdbpl	r1, {r1, r3, r4, r5, r8, sl, fp, lr}^
    a238:	4c204542 	cfstr32mi	mvfx4, [r0], #-264	; 0xfffffef8
    a23c:	204b4145 	subcs	r4, fp, r5, asr #2
    a240:	2520666f 	strcs	r6, [r0, #-1647]!	; 0x66f
    a244:	6e282078 	mcrvs	0, 1, r2, cr8, cr8, {3}
    a248:	6f70206f 	svcvs	0x0070206f
    a24c:	65746e69 	ldrbvs	r6, [r4, #-3689]!	; 0xe69
    a250:	6f742072 	svcvs	0x00742072
    a254:	65687420 	strbvs	r7, [r8, #-1056]!	; 0x420
    a258:	61747320 	cmnvs	r4, r0, lsr #6
    a25c:	0a297472 	beq	a6742c <__bss_end__+0xa5c8b4>
    a260:	00000000 	andeq	r0, r0, r0
    a264:	3a434709 	bcc	10dbe90 <__bss_end__+0x10d1318>
    a268:	63656843 	cmnvs	r5, #4390912	; 0x430000
    a26c:	2064656b 	rsbcs	r6, r4, fp, ror #10
    a270:	62206425 	eorvs	r6, r0, #620756992	; 0x25000000
    a274:	6b636f6c 	blvs	18e602c <__bss_end__+0x18db4b4>
    a278:	000a2e73 	andeq	r2, sl, r3, ror lr
    a27c:	43470909 	movtmi	r0, #30985	; 0x7909
    a280:	4355533a 	cmpmi	r5, #-402653184	; 0xe8000000
    a284:	53534543 	cmppl	r3, #281018368	; 0x10c00000
    a288:	6f4e203a 	svcvs	0x004e203a
    a28c:	61656c20 	cmnvs	r5, r0, lsr #24
    a290:	6620736b 	strtvs	r7, [r0], -fp, ror #6
    a294:	646e756f 	strbtvs	r7, [lr], #-1391	; 0x56f
    a298:	00000a21 	andeq	r0, r0, r1, lsr #20
    a29c:	43470909 	movtmi	r0, #30985	; 0x7909
    a2a0:	5252453a 	subspl	r4, r2, #243269632	; 0xe800000
    a2a4:	3a53524f 	bcc	14debe8 <__bss_end__+0x14d4070>
    a2a8:	20642520 	rsbcs	r2, r4, r0, lsr #10
    a2ac:	6f727265 	svcvs	0x00727265
    a2b0:	202c7372 	eorcs	r7, ip, r2, ror r3
    a2b4:	6d206425 	cfstrsvs	mvf6, [r0, #-148]!	; 0xffffff6c
    a2b8:	65627961 	strbvs	r7, [r2, #-2401]!	; 0x961
    a2bc:	7272655f 	rsbsvc	r6, r2, #398458880	; 0x17c00000
    a2c0:	0a73726f 	beq	1ce6c84 <__bss_end__+0x1cdc10c>
    a2c4:	00000000 	andeq	r0, r0, r0
    a2c8:	2d2d2d2d 	stccs	13, cr2, [sp, #-180]!	; 0xffffff4c
    a2cc:	2d2d2d2d 	stccs	13, cr2, [sp, #-180]!	; 0xffffff4c
    a2d0:	2d2d2d2d 	stccs	13, cr2, [sp, #-180]!	; 0xffffff4c
    a2d4:	2d2d2d2d 	stccs	13, cr2, [sp, #-180]!	; 0xffffff4c
    a2d8:	2d2d2d2d 	stccs	13, cr2, [sp, #-180]!	; 0xffffff4c
    a2dc:	2d2d2d2d 	stccs	13, cr2, [sp, #-180]!	; 0xffffff4c
    a2e0:	2d2d2d2d 	stccs	13, cr2, [sp, #-180]!	; 0xffffff4c
    a2e4:	2d2d2d2d 	stccs	13, cr2, [sp, #-180]!	; 0xffffff4c
    a2e8:	2d2d2d2d 	stccs	13, cr2, [sp, #-180]!	; 0xffffff4c
    a2ec:	2d2d2d2d 	stccs	13, cr2, [sp, #-180]!	; 0xffffff4c
    a2f0:	2d2d2d2d 	stccs	13, cr2, [sp, #-180]!	; 0xffffff4c
    a2f4:	2d2d2d2d 	stccs	13, cr2, [sp, #-180]!	; 0xffffff4c
    a2f8:	2d2d2d2d 	stccs	13, cr2, [sp, #-180]!	; 0xffffff4c
    a2fc:	2d2d2d2d 	stccs	13, cr2, [sp, #-180]!	; 0xffffff4c
    a300:	000a2d2d 	andeq	r2, sl, sp, lsr #26
    a304:	494e4150 	stmdbmi	lr, {r4, r6, r8, lr}^
    a308:	73253a43 	teqvc	r5, #274432	; 0x43000
    a30c:	3a73253a 	bcc	1cd37fc <__bss_end__+0x1cc8c84>
    a310:	703a6425 	eorsvc	r6, sl, r5, lsr #8
    a314:	000a653c 	andeq	r6, sl, ip, lsr r5
    a318:	672d6b63 	strvs	r6, [sp, -r3, ror #22]!
    a31c:	00632e63 	rsbeq	r2, r3, r3, ror #28
    a320:	494e4150 	stmdbmi	lr, {r4, r6, r8, lr}^
    a324:	73253a43 	teqvc	r5, #274432	; 0x43000
    a328:	3a73253a 	bcc	1cd3818 <__bss_end__+0x1cc8ca0>
    a32c:	613a6425 	teqvs	sl, r5, lsr #8
    a330:	6e67696c 	cdpvs	9, 6, cr6, cr7, cr12, {3}
    a334:	70286465 	eorvc	r6, r8, r5, ror #8
    a338:	0a29342c 	beq	a573f0 <__bss_end__+0xa4c878>
    a33c:	00000000 	andeq	r0, r0, r0
    a340:	494e4150 	stmdbmi	lr, {r4, r6, r8, lr}^
    a344:	73253a43 	teqvc	r5, #274432	; 0x43000
    a348:	3a73253a 	bcc	1cd3838 <__bss_end__+0x1cc8cc0>
    a34c:	613a6425 	teqvs	sl, r5, lsr #8
    a350:	6e67696c 	cdpvs	9, 6, cr6, cr7, cr12, {3}
    a354:	65286465 	strvs	r6, [r8, #-1125]!	; 0x465
    a358:	0a29342c 	beq	a57410 <__bss_end__+0xa4c898>
    a35c:	00000000 	andeq	r0, r0, r0
    a360:	494e4150 	stmdbmi	lr, {r4, r6, r8, lr}^
    a364:	73253a43 	teqvc	r5, #274432	; 0x43000
    a368:	3a73253a 	bcc	1cd3858 <__bss_end__+0x1cc8ce0>
    a36c:	723a6425 	eorsvc	r6, sl, #620756992	; 0x25000000
    a370:	5b736765 	blpl	1ce410c <__bss_end__+0x1cd9594>
    a374:	3d205d30 	stccc	13, cr5, [r0, #-192]!	; 0xffffff40
    a378:	7528203d 	strvc	r2, [r8, #-61]!	; 0x3d
    a37c:	33746e69 	cmncc	r4, #1680	; 0x690
    a380:	29745f32 	ldmdbcs	r4!, {r1, r4, r5, r8, r9, sl, fp, ip, lr}^
    a384:	67657226 	strbvs	r7, [r5, -r6, lsr #4]!
    a388:	5d305b73 	fldmdbxpl	r0!, {d5-d61}	;@ Deprecated
    a38c:	0000000a 	andeq	r0, r0, sl
    a390:	706d6f63 	rsbvc	r6, sp, r3, ror #30
    a394:	69746361 	ldmdbvs	r4!, {r0, r5, r6, r8, r9, sp, lr}^
    a398:	0a3a676e 	beq	ea4158 <__bss_end__+0xe995e0>
    a39c:	00000000 	andeq	r0, r0, r0
    a3a0:	463a4347 	ldrtmi	r4, [sl], -r7, asr #6
    a3a4:	69454552 	stmdbvs	r5, {r1, r4, r6, r8, sl, lr}^
    a3a8:	7020676e 	eorvc	r6, r0, lr, ror #14
    a3ac:	253d7274 	ldrcs	r7, [sp, #-628]!	; 0x274
    a3b0:	00000a78 	andeq	r0, r0, r8, ror sl
    a3b4:	3a434709 	bcc	10dbfe0 <__bss_end__+0x10d1468>
    a3b8:	63656843 	cmnvs	r5, #4390912	; 0x430000
    a3bc:	2064656b 	rsbcs	r6, r4, fp, ror #10
    a3c0:	62206425 	eorvs	r6, r0, #620756992	; 0x25000000
    a3c4:	6b636f6c 	blvs	18e617c <__bss_end__+0x18db604>
    a3c8:	66202c73 			; <UNDEFINED> instruction: 0x66202c73
    a3cc:	64656572 	strbtvs	r6, [r5], #-1394	; 0x572
    a3d0:	2c642520 	cfstr64cs	mvdx2, [r4], #-128	; 0xffffff80
    a3d4:	20642520 	rsbcs	r2, r4, r0, lsr #10
    a3d8:	65747962 	ldrbvs	r7, [r4, #-2402]!	; 0x962
    a3dc:	00000a73 	andeq	r0, r0, r3, ror sl
    a3e0:	3a434709 	bcc	10dc00c <__bss_end__+0x10d1494>
    a3e4:	61746f74 	cmnvs	r4, r4, ror pc
    a3e8:	6c61206c 	stclvs	0, cr2, [r1], #-432	; 0xfffffe50
    a3ec:	61636f6c 	cmnvs	r3, ip, ror #30
    a3f0:	20646574 	rsbcs	r6, r4, r4, ror r5
    a3f4:	6425203d 	strtvs	r2, [r5], #-61	; 0x3d
    a3f8:	6f74202c 	svcvs	0x0074202c
    a3fc:	206c6174 	rsbcs	r6, ip, r4, ror r1
    a400:	6c616564 	cfstr64vs	mvdx6, [r1], #-400	; 0xfffffe70
    a404:	61636f6c 	cmnvs	r3, ip, ror #30
    a408:	20646574 	rsbcs	r6, r4, r4, ror r5
    a40c:	6425203d 	strtvs	r2, [r5], #-61	; 0x3d
    a410:	0000000a 	andeq	r0, r0, sl
    a414:	494e4150 	stmdbmi	lr, {r4, r6, r8, lr}^
    a418:	73253a43 	teqvc	r5, #274432	; 0x43000
    a41c:	3a73253a 	bcc	1cd390c <__bss_end__+0x1cc8d94>
    a420:	473a6425 	ldrmi	r6, [sl, -r5, lsr #8]!
    a424:	69203a43 	stmdbvs	r0!, {r0, r1, r6, r9, fp, ip, sp}
    a428:	6c61766e 	stclvs	6, cr7, [r1], #-440	; 0xfffffe48
    a42c:	65206469 	strvs	r6, [r0, #-1129]!	; 0x469
    a430:	726f7272 	rsbvc	r7, pc, #536870919	; 0x20000007
    a434:	0a0a2121 	beq	2928c0 <__bss_end__+0x287d48>
    a438:	00000000 	andeq	r0, r0, r0
    a43c:	203a4347 	eorscs	r4, sl, r7, asr #6
    a440:	43435553 	movtmi	r5, #13651	; 0x3553
    a444:	20535345 	subscs	r5, r3, r5, asr #6
    a448:	70616568 	rsbvc	r6, r1, r8, ror #10
    a44c:	65686320 	strbvs	r6, [r8, #-800]!	; 0x320
    a450:	64656b63 	strbtvs	r6, [r5], #-2915	; 0xb63
    a454:	74756f20 	ldrbtvc	r6, [r5], #-3872	; 0xf20
    a458:	0000000a 	andeq	r0, r0, sl
    a45c:	494e4150 	stmdbmi	lr, {r4, r6, r8, lr}^
    a460:	73253a43 	teqvc	r5, #274432	; 0x43000
    a464:	3a73253a 	bcc	1cd3954 <__bss_end__+0x1cc8ddc>
    a468:	473a6425 	ldrmi	r6, [sl, -r5, lsr #8]!
    a46c:	73203a43 	teqvc	r0, #274432	; 0x43000
    a470:	6c756f68 	ldclvs	15, cr6, [r5], #-416	; 0xfffffe60
    a474:	61682064 	cmnvs	r8, r4, rrx
    a478:	6e206576 	mcrvs	5, 1, r6, cr0, cr6, {3}
    a47c:	656c206f 	strbvs	r2, [ip, #-111]!	; 0x6f
    a480:	21736b61 	cmncs	r3, r1, ror #22
    a484:	00000a0a 	andeq	r0, r0, sl, lsl #20
    a488:	203a4347 	eorscs	r4, sl, r7, asr #6
    a48c:	43435553 	movtmi	r5, #13651	; 0x3553
    a490:	3a535345 	bcc	14df1ac <__bss_end__+0x14d4634>
    a494:	206f6e20 	rsbcs	r6, pc, r0, lsr #28
    a498:	6b61656c 	blvs	1863a50 <__bss_end__+0x1858ed8>
    a49c:	000a2173 	andeq	r2, sl, r3, ror r1
    a4a0:	494e4150 	stmdbmi	lr, {r4, r6, r8, lr}^
    a4a4:	73253a43 	teqvc	r5, #274432	; 0x43000
    a4a8:	3a73253a 	bcc	1cd3998 <__bss_end__+0x1cc8e20>
    a4ac:	473a6425 	ldrmi	r6, [sl, -r5, lsr #8]!
    a4b0:	73203a43 	teqvc	r0, #274432	; 0x43000
    a4b4:	6c756f68 	ldclvs	15, cr6, [r5], #-416	; 0xfffffe60
    a4b8:	61682064 	cmnvs	r8, r4, rrx
    a4bc:	6c206576 	cfstr32vs	mvfx6, [r0], #-472	; 0xfffffe28
    a4c0:	736b6165 	cmnvc	fp, #1073741849	; 0x40000019
    a4c4:	000a0a21 	andeq	r0, sl, r1, lsr #20
    a4c8:	203a4347 	eorscs	r4, sl, r7, asr #6
    a4cc:	43435553 	movtmi	r5, #13651	; 0x3553
    a4d0:	3a535345 	bcc	14df1ec <__bss_end__+0x14d4674>
    a4d4:	756f6620 	strbvc	r6, [pc, #-1568]!	; 9ebc <__FUNCTION__.4338+0x198>
    a4d8:	2520646e 	strcs	r6, [r0, #-1134]!	; 0x46e
    a4dc:	656c2064 	strbvs	r2, [ip, #-100]!	; 0x64
    a4e0:	21736b61 	cmncs	r3, r1, ror #22
    a4e4:	0000000a 	andeq	r0, r0, sl
    a4e8:	494e4150 	stmdbmi	lr, {r4, r6, r8, lr}^
    a4ec:	73253a43 	teqvc	r5, #274432	; 0x43000
    a4f0:	3a73253a 	bcc	1cd39e0 <__bss_end__+0x1cc8e68>
    a4f4:	643a6425 	ldrtvs	r6, [sl], #-1061	; 0x425
    a4f8:	6e206469 	cdpvs	4, 2, cr6, cr0, cr9, {3}
    a4fc:	6920746f 	stmdbvs	r0!, {r0, r1, r2, r3, r5, r6, sl, ip, sp, lr}
    a500:	656c706d 	strbvs	r7, [ip, #-109]!	; 0x6d
    a504:	746e656d 	strbtvc	r6, [lr], #-1389	; 0x56d
    a508:	6d756420 	cfldrdvs	mvd6, [r5, #-128]!	; 0xffffff80
    a50c:	65725f70 	ldrbvs	r5, [r2, #-3952]!	; 0xf70
    a510:	0a217367 	beq	8672b4 <__bss_end__+0x85c73c>
    a514:	0000000a 	andeq	r0, r0, sl

0000a518 <__FUNCTION__.4245>:
    a518:	74696d65 	strbtvc	r6, [r9], #-3429	; 0xd65
    a51c:	00000000 	andeq	r0, r0, r0

0000a520 <__FUNCTION__.4193>:
    a520:	5f697072 	svcpl	0x00697072
    a524:	5f746573 	svcpl	0x00746573
    a528:	7074756f 	rsbsvc	r7, r4, pc, ror #10
    a52c:	00007475 	andeq	r7, r0, r5, ror r4

0000a530 <__FUNCTION__.4267>:
    a530:	705f6176 	subsvc	r6, pc, r6, ror r1	; <UNPREDICTABLE>
    a534:	746e6972 	strbtvc	r6, [lr], #-2418	; 0x972
    a538:	0000006b 	andeq	r0, r0, fp, rrx
    a53c:	494e4150 	stmdbmi	lr, {r4, r6, r8, lr}^
    a540:	73253a43 	teqvc	r5, #274432	; 0x43000
    a544:	3a73253a 	bcc	1cd3a34 <__bss_end__+0x1cc8ebc>
    a548:	303a6425 	eorscc	r6, sl, r5, lsr #8
    a54c:	0000000a 	andeq	r0, r0, sl
    a550:	6362696c 	cmnvs	r2, #108, 18	; 0x1b0000
    a554:	2d61762f 	stclcs	6, cr7, [r1, #-188]!	; 0xffffff44
    a558:	6e697270 	mcrvs	2, 3, r7, cr9, cr0, {3}
    a55c:	632e6b74 	teqvs	lr, #116, 22	; 0x1d000
    a560:	00000000 	andeq	r0, r0, r0
    a564:	33323130 	teqcc	r2, #48, 2
    a568:	37363534 			; <UNDEFINED> instruction: 0x37363534
    a56c:	00003938 	andeq	r3, r0, r8, lsr r9
    a570:	33323130 	teqcc	r2, #48, 2
    a574:	37363534 			; <UNDEFINED> instruction: 0x37363534
    a578:	62613938 	rsbvs	r3, r1, #56, 18	; 0xe0000
    a57c:	66656463 	strbtvs	r6, [r5], -r3, ror #8
    a580:	00000000 	andeq	r0, r0, r0
    a584:	00003130 	andeq	r3, r0, r0, lsr r1
    a588:	494e4150 	stmdbmi	lr, {r4, r6, r8, lr}^
    a58c:	73253a43 	teqvc	r5, #274432	; 0x43000
    a590:	3a73253a 	bcc	1cd3a80 <__bss_end__+0x1cc8f08>
    a594:	703a6425 	eorsvc	r6, sl, r5, lsr #8
    a598:	5f637475 	svcpl	0x00637475
    a59c:	000a7066 	andeq	r7, sl, r6, rrx
    a5a0:	494e4150 	stmdbmi	lr, {r4, r6, r8, lr}^
    a5a4:	73253a43 	teqvc	r5, #274432	; 0x43000
    a5a8:	3a73253a 	bcc	1cd3a98 <__bss_end__+0x1cc8f20>
    a5ac:	773a6425 	ldrvc	r6, [sl, -r5, lsr #8]!
    a5b0:	68746469 	ldmdavs	r4!, {r0, r3, r5, r6, sl, sp, lr}^
    a5b4:	33203c20 	teqcc	r0, #32, 24	; 0x2000
    a5b8:	00000a32 	andeq	r0, r0, r2, lsr sl
    a5bc:	494e4150 	stmdbmi	lr, {r4, r6, r8, lr}^
    a5c0:	73253a43 	teqvc	r5, #274432	; 0x43000
    a5c4:	3a73253a 	bcc	1cd3ab4 <__bss_end__+0x1cc8f3c>
    a5c8:	663a6425 	ldrtvs	r6, [sl], -r5, lsr #8
    a5cc:	74616f6c 	strbtvc	r6, [r1], #-3948	; 0xf6c
    a5d0:	746f6e20 	strbtvc	r6, [pc], #-3616	; a5d8 <__FUNCTION__.4267+0xa8>
    a5d4:	616e6520 	cmnvs	lr, r0, lsr #10
    a5d8:	64656c62 	strbtvs	r6, [r5], #-3170	; 0xc62
    a5dc:	0a212121 	beq	852a68 <__bss_end__+0x847ef0>
    a5e0:	00000000 	andeq	r0, r0, r0
    a5e4:	494e4150 	stmdbmi	lr, {r4, r6, r8, lr}^
    a5e8:	73253a43 	teqvc	r5, #274432	; 0x43000
    a5ec:	3a73253a 	bcc	1cd3adc <__bss_end__+0x1cc8f64>
    a5f0:	703a6425 	eorsvc	r6, sl, r5, lsr #8
    a5f4:	746e6972 	strbtvc	r6, [lr], #-2418	; 0x972
    a5f8:	6e203a6b 	vnmulvs.f32	s6, s0, s23
    a5fc:	6820746f 	stmdavs	r0!, {r0, r1, r2, r3, r5, r6, sl, ip, sp, lr}
    a600:	6c646e61 	stclvs	14, cr6, [r4], #-388	; 0xfffffe7c
    a604:	20676e69 	rsbcs	r6, r7, r9, ror #28
    a608:	63657073 	cmnvs	r5, #115	; 0x73
    a60c:	65696669 	strbvs	r6, [r9, #-1641]!	; 0x669
    a610:	25272072 	strcs	r2, [r7, #-114]!	; 0x72
    a614:	0a0a2763 	beq	2943a8 <__bss_end__+0x289830>
    a618:	00000000 	andeq	r0, r0, r0
    a61c:	454e4f44 	strbmi	r4, [lr, #-3908]	; 0xf44
    a620:	0a212121 	beq	852aac <__bss_end__+0x847f34>
    a624:	00000000 	andeq	r0, r0, r0

0000a628 <__FUNCTION__.4237>:
    a628:	6c616d6b 	stclvs	13, cr6, [r1], #-428	; 0xfffffe54
    a62c:	5f636f6c 	svcpl	0x00636f6c
    a630:	74696e69 	strbtvc	r6, [r9], #-3689	; 0xe69
    a634:	7465735f 	strbtvc	r7, [r5], #-863	; 0x35f
    a638:	6174735f 	cmnvs	r4, pc, asr r3
    a63c:	00007472 	andeq	r7, r0, r2, ror r4

0000a640 <__FUNCTION__.4241>:
    a640:	6c616d6b 	stclvs	13, cr6, [r1], #-428	; 0xfffffe54
    a644:	00636f6c 	rsbeq	r6, r3, ip, ror #30

0000a648 <__FUNCTION__.4253>:
    a648:	6c616d6b 	stclvs	13, cr6, [r1], #-428	; 0xfffffe54
    a64c:	5f636f6c 	svcpl	0x00636f6c
    a650:	67696c61 	strbvs	r6, [r9, -r1, ror #24]!
    a654:	0064656e 	rsbeq	r6, r4, lr, ror #10
    a658:	6c616d6b 	stclvs	13, cr6, [r1], #-428	; 0xfffffe54
    a65c:	2e636f6c 	cdpcs	15, 6, cr6, cr3, cr12, {3}
    a660:	00000063 	andeq	r0, r0, r3, rrx
    a664:	494e4150 	stmdbmi	lr, {r4, r6, r8, lr}^
    a668:	73253a43 	teqvc	r5, #274432	; 0x43000
    a66c:	3a73253a 	bcc	1cd3b5c <__bss_end__+0x1cc8fe4>
    a670:	613a6425 	teqvs	sl, r5, lsr #8
    a674:	20726464 	rsbscs	r6, r2, r4, ror #8
    a678:	6568203e 	strbvs	r2, [r8, #-62]!	; 0x3e
    a67c:	000a7061 	andeq	r7, sl, r1, rrx
    a680:	494e4150 	stmdbmi	lr, {r4, r6, r8, lr}^
    a684:	73253a43 	teqvc	r5, #274432	; 0x43000
    a688:	3a73253a 	bcc	1cd3b78 <__bss_end__+0x1cc9000>
    a68c:	733a6425 	teqvc	sl, #620756992	; 0x25000000
    a690:	00000a7a 	andeq	r0, r0, sl, ror sl
    a694:	4f525245 	svcmi	0x00525245
    a698:	73253a52 	teqvc	r5, #335872	; 0x52000
    a69c:	3a73253a 	bcc	1cd3b8c <__bss_end__+0x1cc9014>
    a6a0:	203a6425 	eorscs	r6, sl, r5, lsr #8
    a6a4:	534c4146 	movtpl	r4, #49478	; 0xc146
    a6a8:	283c2845 	ldmdacs	ip!, {r0, r2, r6, fp, sp}
    a6ac:	6c612828 	stclvs	8, cr2, [r1], #-160	; 0xffffff60
    a6b0:	6d6e6769 	stclvs	7, cr6, [lr, #-420]!	; 0xfffffe5c
    a6b4:	29746e65 	ldmdbcs	r4!, {r0, r2, r5, r6, r9, sl, fp, sp, lr}^
    a6b8:	61282d26 	teqvs	r8, r6, lsr #26
    a6bc:	6e67696c 	cdpvs	9, 6, cr6, cr7, cr12, {3}
    a6c0:	746e656d 	strbtvc	r6, [lr], #-1389	; 0x56d
    a6c4:	3d202929 	stccc	9, cr2, [r0, #-164]!	; 0xffffff5c
    a6c8:	6128203d 	teqvs	r8, sp, lsr r0
    a6cc:	6e67696c 	cdpvs	9, 6, cr6, cr7, cr12, {3}
    a6d0:	746e656d 	strbtvc	r6, [lr], #-1389	; 0x56d
    a6d4:	293e2929 	ldmdbcs	lr!, {r0, r3, r5, r8, fp, sp}
    a6d8:	7361203a 	cmnvc	r1, #58	; 0x3a
    a6dc:	696d7573 	stmdbvs	sp!, {r0, r1, r4, r5, r6, r8, sl, ip, sp, lr}^
    a6e0:	7020676e 	eorvc	r6, r0, lr, ror #14
    a6e4:	7265776f 	rsbvc	r7, r5, #29097984	; 0x1bc0000
    a6e8:	20666f20 	rsbcs	r6, r6, r0, lsr #30
    a6ec:	0a6f7774 	beq	1be84c4 <__bss_end__+0x1bdd94c>
    a6f0:	00000000 	andeq	r0, r0, r0
    a6f4:	4f525245 	svcmi	0x00525245
    a6f8:	73253a52 	teqvc	r5, #335872	; 0x52000
    a6fc:	3a73253a 	bcc	1cd3bec <__bss_end__+0x1cc9074>
    a700:	203a6425 	eorscs	r6, sl, r5, lsr #8
    a704:	534c4146 	movtpl	r4, #49478	; 0xc146
    a708:	283c2845 	ldmdacs	ip!, {r0, r2, r6, fp, sp}
    a70c:	29682828 	stmdbcs	r8!, {r3, r5, fp, sp}^
    a710:	28202620 	stmdacs	r0!, {r5, r9, sl, sp}
    a714:	70797428 	rsbsvc	r7, r9, r8, lsr #8
    a718:	28666f65 	stmdacs	r6!, {r0, r2, r5, r6, r8, r9, sl, fp, sp, lr}^
    a71c:	28292968 	stmdacs	r9!, {r3, r5, r6, r8, fp, sp}
    a720:	67696c61 	strbvs	r6, [r9, -r1, ror #24]!
    a724:	6e656d6e 	cdpvs	13, 6, cr6, cr5, cr14, {3}
    a728:	2d202974 	stccs	9, cr2, [r0, #-464]!	; 0xfffffe30
    a72c:	29293120 	stmdbcs	r9!, {r5, r8, ip, sp}
    a730:	203d3d20 	eorscs	r3, sp, r0, lsr #26
    a734:	293e2930 	ldmdbcs	lr!, {r4, r5, r8, fp, sp}
    a738:	6d69203a 	stclvs	0, cr2, [r9, #-232]!	; 0xffffff18
    a73c:	73736f70 	cmnvc	r3, #112, 30	; 0x1c0
    a740:	656c6269 	strbvs	r6, [ip, #-617]!	; 0x269
    a744:	0000000a 	andeq	r0, r0, sl

Disassembly of section .bss:

0000a748 <__bss_start__>:
    a748:	00000000 	andeq	r0, r0, r0

0000a74c <heap>:
    a74c:	00000000 	andeq	r0, r0, r0

0000a750 <heap_end>:
    a750:	00000000 	andeq	r0, r0, r0

0000a754 <my_info>:
	...

0000a764 <info>:
	...

0000a774 <buf.4185>:
	...

Disassembly of section .ARM.attributes:

00000000 <.ARM.attributes>:
   0:	00002a41 	andeq	r2, r0, r1, asr #20
   4:	61656100 	cmnvs	r5, r0, lsl #2
   8:	01006962 	tsteq	r0, r2, ror #18
   c:	00000020 	andeq	r0, r0, r0, lsr #32
  10:	4b5a3605 	blmi	168d82c <__bss_end__+0x1682cb4>
  14:	08070600 	stmdaeq	r7, {r9, sl}
  18:	12010901 	andne	r0, r1, #16384	; 0x4000
  1c:	15011404 	strne	r1, [r1, #-1028]	; 0x404
  20:	18031701 	stmdane	r3, {r0, r8, r9, sl, ip}
  24:	22011a01 	andcs	r1, r1, #4096	; 0x1000
  28:	Address 0x0000000000000028 is out of bounds.


Disassembly of section .comment:

00000000 <.comment>:
   0:	3a434347 	bcc	10d0d24 <__bss_end__+0x10c61ac>
   4:	4e472820 	cdpmi	8, 4, cr2, cr7, cr0, {1}
   8:	34202955 	strtcc	r2, [r0], #-2389	; 0x955
   c:	332e382e 	teqcc	lr, #3014656	; 0x2e0000
  10:	43434700 	movtmi	r4, #14080	; 0x3700
  14:	3128203a 	teqcc	r8, sl, lsr r0
  18:	2e363a35 	mrccs	10, 1, r3, cr6, cr5, {1}
  1c:	2b312e33 	blcs	c4b8f0 <__bss_end__+0xc40d78>
  20:	326e7673 	rsbcc	r7, lr, #120586240	; 0x7300000
  24:	33303335 	teqcc	r0, #-738197504	; 0xd4000000
  28:	62312d39 	eorsvs	r2, r1, #3648	; 0xe40
  2c:	646c6975 	strbtvs	r6, [ip], #-2421	; 0x975
  30:	36202931 			; <UNDEFINED> instruction: 0x36202931
  34:	312e332e 	teqcc	lr, lr, lsr #6
  38:	31303220 	teqcc	r0, r0, lsr #4
  3c:	32363037 	eorscc	r3, r6, #55	; 0x37
  40:	Address 0x0000000000000040 is out of bounds.


Disassembly of section .debug_info:

00000000 <.debug_info>:
       0:	000002af 	andeq	r0, r0, pc, lsr #5
       4:	00000004 	andeq	r0, r0, r4
       8:	01040000 	mrseq	r0, (UNDEF: 4)
       c:	0000005f 	andeq	r0, r0, pc, asr r0
      10:	0000cc01 	andeq	ip, r0, r1, lsl #24
      14:	00000f00 	andeq	r0, r0, r0, lsl #30
      18:	00801000 	addeq	r1, r0, r0
      1c:	0000b400 	andeq	fp, r0, r0, lsl #8
      20:	00000000 	andeq	r0, r0, r0
      24:	05040200 	streq	r0, [r4, #-512]	; 0x200
      28:	00746e69 	rsbseq	r6, r4, r9, ror #28
      2c:	00000003 	andeq	r0, r0, r3
      30:	37d40200 	ldrbcc	r0, [r4, r0, lsl #4]
      34:	04000000 	streq	r0, [r0], #-0
      38:	01340704 	teqeq	r4, r4, lsl #14
      3c:	01040000 	mrseq	r0, (UNDEF: 4)
      40:	0000e206 	andeq	lr, r0, r6, lsl #4
      44:	05020400 	streq	r0, [r2, #-1024]	; 0x400
      48:	00000158 	andeq	r0, r0, r8, asr r1
      4c:	4f050404 	svcmi	0x00050404
      50:	04000001 	streq	r0, [r0], #-1
      54:	014a0508 	cmpeq	sl, r8, lsl #10
      58:	01040000 	mrseq	r0, (UNDEF: 4)
      5c:	0000e008 	andeq	lr, r0, r8
      60:	07020400 	streq	r0, [r2, -r0, lsl #8]
      64:	000000ee 	andeq	r0, r0, lr, ror #1
      68:	00016203 	andeq	r6, r1, r3, lsl #4
      6c:	73340300 	teqvc	r4, #0, 6
      70:	04000000 	streq	r0, [r0], #-0
      74:	012f0704 	teqeq	pc, r4, lsl #14
      78:	08040000 	stmdaeq	r4, {}	; <UNPREDICTABLE>
      7c:	00012a07 	andeq	r2, r1, r7, lsl #20
      80:	07040400 	streq	r0, [r4, -r0, lsl #8]
      84:	00000141 	andeq	r0, r0, r1, asr #2
      88:	01040405 	tsteq	r4, r5, lsl #8
      8c:	0000e908 	andeq	lr, r0, r8, lsl #18
      90:	97040600 	strls	r0, [r4, -r0, lsl #12]
      94:	07000000 	streq	r0, [r0, -r0]
      98:	0000008a 	andeq	r0, r0, sl, lsl #1
      9c:	00011d08 	andeq	r1, r1, r8, lsl #26
      a0:	880b0100 	stmdahi	fp, {r8}
      a4:	10000000 	andne	r0, r0, r0
      a8:	74000080 	strvc	r0, [r0], #-128	; 0x80
      ac:	01000000 	mrseq	r0, (UNDEF: 0)
      b0:	00016a9c 	muleq	r1, ip, sl
      b4:	051a0900 	ldreq	r0, [sl, #-2304]	; 0x900
      b8:	01080000 	mrseq	r0, (UNDEF: 8)
      bc:	0000d80c 	andeq	sp, r0, ip, lsl #16
      c0:	00780a00 	rsbseq	r0, r8, r0, lsl #20
      c4:	00250d01 	eoreq	r0, r5, r1, lsl #26
      c8:	0b000000 	bleq	d0 <__code_start__-0x7f30>
      cc:	00000a18 	andeq	r0, r0, r8, lsl sl
      d0:	016a0e01 	cmneq	sl, r1, lsl #28
      d4:	00040000 	andeq	r0, r4, r0
      d8:	0100680c 	tsteq	r0, ip, lsl #16
      dc:	00016a0f 	andeq	r6, r1, pc, lsl #20
      e0:	00000000 	andeq	r0, r0, r0
      e4:	01100d00 	tsteq	r0, r0, lsl #26
      e8:	01800000 	orreq	r0, r0, r0
      ec:	03050000 	movweq	r0, #20480	; 0x5000
      f0:	00009c70 	andeq	r9, r0, r0, ror ip
      f4:	0000000e 	andeq	r0, r0, lr
      f8:	00016000 	andeq	r6, r1, r0
      fc:	00690c00 	rsbeq	r0, r9, r0, lsl #24
     100:	00251101 	eoreq	r1, r5, r1, lsl #2
     104:	00350000 	eorseq	r0, r5, r0
     108:	180f0000 	stmdane	pc, {}	; <UNPREDICTABLE>
     10c:	0c000000 	stceq	0, cr0, [r0], {-0}
     110:	12010065 	andne	r0, r1, #101	; 0x65
     114:	0000016a 	andeq	r0, r0, sl, ror #2
     118:	00000054 	andeq	r0, r0, r4, asr r0
     11c:	00804810 	addeq	r4, r0, r0, lsl r8
     120:	00021a00 	andeq	r1, r2, r0, lsl #20
     124:	00014200 	andeq	r4, r1, r0, lsl #4
     128:	53011100 	movwpl	r1, #4352	; 0x1100
     12c:	11007902 	tstne	r0, r2, lsl #18
     130:	7a025201 	bvc	9493c <__bss_end__+0x89dc4>
     134:	51011100 	mrspl	r1, (UNDEF: 17)
     138:	11007b02 	tstne	r0, r2, lsl #22
     13c:	78025001 	stmdavc	r2, {r0, ip, lr}
     140:	58120000 	ldmdapl	r2, {}	; <UNPREDICTABLE>
     144:	3e000080 	cdpcc	0, 0, cr0, cr0, cr0, {4}
     148:	11000002 	tstne	r0, r2
     14c:	78025201 	stmdavc	r2, {r0, r9, ip, lr}
     150:	51011100 	mrspl	r1, (UNDEF: 17)
     154:	11007702 	tstne	r0, r2, lsl #14
     158:	74025001 	strvc	r5, [r2], #-1
     15c:	00000000 	andeq	r0, r0, r0
     160:	00807413 	addeq	r7, r0, r3, lsl r4
     164:	00025d00 	andeq	r5, r2, r0, lsl #26
     168:	04060000 	streq	r0, [r6], #-0
     16c:	000000b5 	strheq	r0, [r0], -r5
     170:	00008a14 	andeq	r8, r0, r4, lsl sl
     174:	00018000 	andeq	r8, r1, r0
     178:	00811500 	addeq	r1, r1, r0, lsl #10
     17c:	00040000 	andeq	r0, r4, r0
     180:	00017007 	andeq	r7, r1, r7
     184:	00b61600 	adcseq	r1, r6, r0, lsl #12
     188:	23010000 	movwcs	r0, #4096	; 0x1000
     18c:	00008084 	andeq	r8, r0, r4, lsl #1
     190:	00000040 	andeq	r0, r0, r0, asr #32
     194:	021a9c01 	andseq	r9, sl, #256	; 0x100
     198:	6e170000 	cdpvs	0, 1, cr0, cr7, cr0, {0}
     19c:	37280100 	strcc	r0, [r8, -r0, lsl #2]!
     1a0:	00000000 	andeq	r0, r0, r0
     1a4:	10001000 	andne	r1, r0, r0
     1a8:	00008090 	muleq	r0, r0, r0
     1ac:	00000264 	andeq	r0, r0, r4, ror #4
     1b0:	000001be 			; <UNDEFINED> instruction: 0x000001be
     1b4:	05500111 	ldrbeq	r0, [r0, #-273]	; 0x111
     1b8:	009c8c03 	addseq	r8, ip, r3, lsl #24
     1bc:	98100000 	ldmdals	r0, {}	; <UNPREDICTABLE>
     1c0:	7a000080 	bvc	3c8 <__code_start__-0x7c38>
     1c4:	d3000002 	movwle	r0, #2
     1c8:	11000001 	tstne	r0, r1
     1cc:	40035001 	andmi	r5, r3, r1
     1d0:	10002440 	andne	r2, r0, r0, asr #8
     1d4:	000080a0 	andeq	r8, r0, r0, lsr #1
     1d8:	0000028b 	andeq	r0, r0, fp, lsl #5
     1dc:	000001e8 	andeq	r0, r0, r8, ror #3
     1e0:	03500111 	cmpeq	r0, #1073741828	; 0x40000004
     1e4:	00244040 	eoreq	r4, r4, r0, asr #32
     1e8:	0080a810 	addeq	sl, r0, r0, lsl r8
     1ec:	0002a000 	andeq	sl, r2, r0
     1f0:	0001fd00 	andeq	pc, r1, r0, lsl #26
     1f4:	51011100 	mrspl	r1, (UNDEF: 17)
     1f8:	24404003 	strbcs	r4, [r0], #-3
     1fc:	80ac1300 	adchi	r1, ip, r0, lsl #6
     200:	009c0000 	addseq	r0, ip, r0
     204:	b8120000 	ldmdalt	r2, {}	; <UNPREDICTABLE>
     208:	64000080 	strvs	r0, [r0], #-128	; 0x80
     20c:	11000002 	tstne	r0, r2
     210:	03055001 	movweq	r5, #20481	; 0x5001
     214:	00009cd0 	ldrdeq	r9, [r0], -r0
     218:	07180000 	ldreq	r0, [r8, -r0]
     21c:	04000000 	streq	r0, [r0], #-0
     220:	00008811 	andeq	r8, r0, r1, lsl r8
     224:	00023e00 	andeq	r3, r2, r0, lsl #28
     228:	00681900 	rsbeq	r1, r8, r0, lsl #18
     22c:	91190000 	tstls	r9, r0
     230:	19000000 	stmdbne	r0, {}	; <UNPREDICTABLE>
     234:	00000091 	muleq	r0, r1, r0
     238:	00003719 	andeq	r3, r0, r9, lsl r7
     23c:	09180000 	ldmdbeq	r8, {}	; <UNPREDICTABLE>
     240:	05000001 	streq	r0, [r0, #-1]
     244:	0000881b 	andeq	r8, r0, fp, lsl r8
     248:	00025d00 	andeq	r5, r2, r0, lsl #26
     24c:	00881900 	addeq	r1, r8, r0, lsl #18
     250:	25190000 	ldrcs	r0, [r9, #-0]
     254:	19000000 	stmdbne	r0, {}	; <UNPREDICTABLE>
     258:	0000002c 	andeq	r0, r0, ip, lsr #32
     25c:	00be1a00 	adcseq	r1, lr, r0, lsl #20
     260:	39040000 	stmdbcc	r4, {}	; <UNPREDICTABLE>
     264:	00050e18 	andeq	r0, r5, r8, lsl lr
     268:	25290600 	strcs	r0, [r9, #-1536]!	; 0x600
     26c:	7a000000 	bvc	274 <__code_start__-0x7d8c>
     270:	19000002 	stmdbne	r0, {r1}
     274:	00000091 	muleq	r0, r1, r0
     278:	6b1c001b 	blvs	7002ec <__bss_end__+0x6f5774>
     27c:	06000001 	streq	r0, [r0], -r1
     280:	00028b72 	andeq	r8, r2, r2, ror fp
     284:	00371900 	eorseq	r1, r7, r0, lsl #18
     288:	18000000 	stmdane	r0, {}	; <UNPREDICTABLE>
     28c:	00000101 	andeq	r0, r0, r1, lsl #2
     290:	00886c06 	addeq	r6, r8, r6, lsl #24
     294:	02a00000 	adceq	r0, r0, #0
     298:	37190000 	ldrcc	r0, [r9, -r0]
     29c:	00000000 	andeq	r0, r0, r0
     2a0:	0001221d 	andeq	r2, r1, sp, lsl r2
     2a4:	190b0400 	stmdbne	fp, {sl}
     2a8:	00000088 	andeq	r0, r0, r8, lsl #1
     2ac:	00003719 	andeq	r3, r0, r9, lsl r7
     2b0:	78000000 	stmdavc	r0, {}	; <UNPREDICTABLE>
     2b4:	04000010 	streq	r0, [r0], #-16
     2b8:	00018300 	andeq	r8, r1, r0, lsl #6
     2bc:	5f010400 	svcpl	0x00010400
     2c0:	01000000 	mrseq	r0, (UNDEF: 0)
     2c4:	0000024e 	andeq	r0, r0, lr, asr #4
     2c8:	0000000f 	andeq	r0, r0, pc
     2cc:	000080c4 	andeq	r8, r0, r4, asr #1
     2d0:	0000083c 	andeq	r0, r0, ip, lsr r8
     2d4:	00000196 	muleq	r0, r6, r1
     2d8:	69050402 	stmdbvs	r5, {r1, sl}
     2dc:	0300746e 	movweq	r7, #1134	; 0x46e
     2e0:	00000000 	andeq	r0, r0, r0
     2e4:	0037d403 	eorseq	sp, r7, r3, lsl #8
     2e8:	04040000 	streq	r0, [r4], #-0
     2ec:	00013407 	andeq	r3, r1, r7, lsl #8
     2f0:	06010400 	streq	r0, [r1], -r0, lsl #8
     2f4:	000000e2 	andeq	r0, r0, r2, ror #1
     2f8:	58050204 	stmdapl	r5, {r2, r9}
     2fc:	04000001 	streq	r0, [r0], #-1
     300:	014f0504 	cmpeq	pc, r4, lsl #10
     304:	08040000 	stmdaeq	r4, {}	; <UNPREDICTABLE>
     308:	00014a05 	andeq	r4, r1, r5, lsl #20
     30c:	035f0300 	cmpeq	pc, #0, 6
     310:	2e040000 	cdpcs	0, 0, cr0, cr4, cr0, {0}
     314:	00000065 	andeq	r0, r0, r5, rrx
     318:	e0080104 	and	r0, r8, r4, lsl #2
     31c:	03000000 	movweq	r0, #0
     320:	000001e9 	andeq	r0, r0, r9, ror #3
     324:	00773104 	rsbseq	r3, r7, r4, lsl #2
     328:	02040000 	andeq	r0, r4, #0
     32c:	0000ee07 	andeq	lr, r0, r7, lsl #28
     330:	01620300 	cmneq	r2, r0, lsl #6
     334:	34040000 	strcc	r0, [r4], #-0
     338:	00000089 	andeq	r0, r0, r9, lsl #1
     33c:	2f070404 	svccs	0x00070404
     340:	04000001 	streq	r0, [r0], #-1
     344:	012a0708 	teqeq	sl, r8, lsl #14
     348:	04040000 	streq	r0, [r4], #-0
     34c:	00014107 	andeq	r4, r1, r7, lsl #2
     350:	06040500 	streq	r0, [r4], -r0, lsl #10
     354:	0000a604 	andeq	sl, r0, r4, lsl #12
     358:	08010400 	stmdaeq	r1, {sl}
     35c:	000000e9 	andeq	r0, r0, r9, ror #1
     360:	00b30406 	adcseq	r0, r3, r6, lsl #8
     364:	a6070000 	strge	r0, [r7], -r0
     368:	08000000 	stmdaeq	r0, {}	; <UNPREDICTABLE>
     36c:	000000a6 	andeq	r0, r0, r6, lsr #1
     370:	000000c8 	andeq	r0, r0, r8, asr #1
     374:	00009709 	andeq	r9, r0, r9, lsl #14
     378:	0a000700 	beq	1f80 <__code_start__-0x6080>
     37c:	dd270201 	sfmle	f0, 4, [r7, #-4]!
     380:	0b000000 	bleq	388 <__code_start__-0x7c78>
     384:	000001cb 	andeq	r0, r0, fp, asr #3
     388:	01c50b0b 	biceq	r0, r5, fp, lsl #22
     38c:	000c0000 	andeq	r0, ip, r0
     390:	29020c0c 	stmdbcs	r2, {r2, r3, sl, fp}
     394:	0000010a 	andeq	r0, r0, sl, lsl #2
     398:	0008ef0d 	andeq	lr, r8, sp, lsl #30
     39c:	ad2a0200 	sfmge	f0, 4, [sl, #-0]
     3a0:	00000000 	andeq	r0, r0, r0
     3a4:	000bb90d 	andeq	fp, fp, sp, lsl #18
     3a8:	ad2b0200 	sfmge	f0, 4, [fp, #-0]
     3ac:	04000000 	streq	r0, [r0], #-0
     3b0:	00033d0d 	andeq	r3, r3, sp, lsl #26
     3b4:	372c0200 	strcc	r0, [ip, -r0, lsl #4]!
     3b8:	08000000 	stmdaeq	r0, {}	; <UNPREDICTABLE>
     3bc:	02ca0300 	sbceq	r0, sl, #0, 6
     3c0:	2d020000 	stccs	0, cr0, [r2, #-0]
     3c4:	000000dd 	ldrdeq	r0, [r0], -sp
     3c8:	0003960e 	andeq	r9, r3, lr, lsl #12
     3cc:	30023800 	andcc	r3, r2, r0, lsl #16
     3d0:	0000019a 	muleq	r0, sl, r1
     3d4:	00029e0d 	andeq	r9, r2, sp, lsl #28
     3d8:	7e310200 	cdpvc	2, 3, cr0, cr1, cr0, {0}
     3dc:	00000000 	andeq	r0, r0, r0
     3e0:	00037c0d 	andeq	r7, r3, sp, lsl #24
     3e4:	7e320200 	cdpvc	2, 3, cr0, cr2, cr0, {0}
     3e8:	04000000 	streq	r0, [r0], #-0
     3ec:	00077a0d 	andeq	r7, r7, sp, lsl #20
     3f0:	7e330200 	cdpvc	2, 3, cr0, cr3, cr0, {0}
     3f4:	08000000 	stmdaeq	r0, {}	; <UNPREDICTABLE>
     3f8:	0002980d 	andeq	r9, r2, sp, lsl #16
     3fc:	7e370200 	cdpvc	2, 3, cr0, cr7, cr0, {0}
     400:	0c000000 	stceq	0, cr0, [r0], {-0}
     404:	0002780d 	andeq	r7, r2, sp, lsl #16
     408:	0a390200 	beq	e40c10 <__bss_end__+0xe36098>
     40c:	10000001 	andne	r0, r0, r1
     410:	0002ab0d 	andeq	sl, r2, sp, lsl #22
     414:	0a3a0200 	beq	e80c1c <__bss_end__+0xe760a4>
     418:	1c000001 	stcne	0, cr0, [r0], {1}
     41c:	0003710d 	andeq	r7, r3, sp, lsl #2
     420:	7e3e0200 	cdpvc	2, 3, cr0, cr14, cr0, {0}
     424:	28000000 	stmdacs	r0, {}	; <UNPREDICTABLE>
     428:	0003160d 	andeq	r1, r3, sp, lsl #12
     42c:	7e3f0200 	cdpvc	2, 3, cr0, cr15, cr0, {0}
     430:	2c000000 	stccs	0, cr0, [r0], {-0}
     434:	00019c0d 	andeq	r9, r1, sp, lsl #24
     438:	9a420200 	bls	1080c40 <__bss_end__+0x10760c8>
     43c:	30000001 	andcc	r0, r0, r1
     440:	0001a50d 	andeq	sl, r1, sp, lsl #10
     444:	6c450200 	sfmvs	f0, 2, [r5], {-0}
     448:	34000000 	strcc	r0, [r0], #-0
     44c:	15040600 	strne	r0, [r4, #-1536]	; 0x600
     450:	03000001 	movweq	r0, #1
     454:	00000367 	andeq	r0, r0, r7, ror #6
     458:	01154602 	tsteq	r5, r2, lsl #12
     45c:	020a0000 	andeq	r0, sl, #0
     460:	01d04902 	bicseq	r4, r0, r2, lsl #18
     464:	000b0000 	andeq	r0, fp, r0
     468:	fe000003 	cdp2	0, 0, cr0, cr0, cr3, {0}
     46c:	028c0b01 	addeq	r0, ip, #1024	; 0x400
     470:	01800000 	orreq	r0, r0, r0
     474:	0002110b 	andeq	r1, r2, fp, lsl #2
     478:	0b01b800 	bleq	6e480 <__bss_end__+0x63908>
     47c:	000001f2 	strdeq	r0, [r0], -r2
     480:	0e0002b8 	mcreq	2, 0, r0, cr0, cr8, {5}
     484:	000002c0 	andeq	r0, r0, r0, asr #5
     488:	0d9b0210 	lfmeq	f0, 4, [fp, #64]	; 0x40
     48c:	0d000002 	stceq	0, cr0, [r0, #-8]
     490:	00000d5a 	andeq	r0, r0, sl, asr sp
     494:	009e9d02 	addseq	r9, lr, r2, lsl #26
     498:	0d000000 	stceq	0, cr0, [r0, #-0]
     49c:	00000d6d 	andeq	r0, r0, sp, ror #26
     4a0:	009e9f02 	addseq	r9, lr, r2, lsl #30
     4a4:	0d040000 	stceq	0, cr0, [r4, #-0]
     4a8:	00000182 	andeq	r0, r0, r2, lsl #3
     4ac:	0037a202 	eorseq	sl, r7, r2, lsl #4
     4b0:	0d080000 	stceq	0, cr0, [r8, #-0]
     4b4:	00000322 	andeq	r0, r0, r2, lsr #6
     4b8:	0037a402 	eorseq	sl, r7, r2, lsl #8
     4bc:	000c0000 	andeq	r0, ip, r0
     4c0:	0001bb0f 	andeq	fp, r1, pc, lsl #22
     4c4:	9e570200 	cdpls	2, 5, cr0, cr7, cr0, {0}
     4c8:	03000000 	movweq	r0, #0
     4cc:	00000227 	andeq	r0, r0, r7, lsr #4
     4d0:	02006810 	andeq	r6, r0, #16, 16	; 0x100000
     4d4:	00022757 	andeq	r2, r2, r7, asr r7
     4d8:	04060000 	streq	r0, [r6], #-0
     4dc:	000001a0 	andeq	r0, r0, r0, lsr #3
     4e0:	0002b40f 	andeq	fp, r2, pc, lsl #8
     4e4:	9e590200 	cdpls	2, 5, cr0, cr9, cr0, {0}
     4e8:	03000000 	movweq	r0, #0
     4ec:	00000247 	andeq	r0, r0, r7, asr #4
     4f0:	02006810 	andeq	r6, r0, #16, 16	; 0x100000
     4f4:	00022759 	andeq	r2, r2, r9, asr r7
     4f8:	de0f0000 	cdple	0, 0, cr0, cr15, cr0, {0}
     4fc:	02000002 	andeq	r0, r0, #2
     500:	00009e5b 	andeq	r9, r0, fp, asr lr
     504:	02610300 	rsbeq	r0, r1, #0, 6
     508:	68100000 	ldmdavs	r0, {}	; <UNPREDICTABLE>
     50c:	275b0200 	ldrbcs	r0, [fp, -r0, lsl #4]
     510:	00000002 	andeq	r0, r0, r2
     514:	0003440f 	andeq	r4, r3, pc, lsl #8
     518:	375d0200 	ldrbcc	r0, [sp, -r0, lsl #4]
     51c:	03000000 	movweq	r0, #0
     520:	0000027b 	andeq	r0, r0, fp, ror r2
     524:	02006810 	andeq	r6, r0, #16, 16	; 0x100000
     528:	0002275d 	andeq	r2, r2, sp, asr r7
     52c:	d30f0000 	movwle	r0, #61440	; 0xf000
     530:	02000001 	andeq	r0, r0, #1
     534:	0002275f 	andeq	r2, r2, pc, asr r7
     538:	02970300 	addseq	r0, r7, #0, 6
     53c:	ac110000 	ldcge	0, cr0, [r1], {-0}
     540:	02000001 	andeq	r0, r0, #1
     544:	00009e5f 	andeq	r9, r0, pc, asr lr
     548:	360f0000 	strcc	r0, [pc], -r0
     54c:	02000002 	andeq	r0, r0, #2
     550:	00003763 	andeq	r3, r0, r3, ror #14
     554:	02b10300 	adcseq	r0, r1, #0, 6
     558:	68100000 	ldmdavs	r0, {}	; <UNPREDICTABLE>
     55c:	27630200 	strbcs	r0, [r3, -r0, lsl #4]!
     560:	00000002 	andeq	r0, r0, r2
     564:	0002f012 	andeq	pc, r2, r2, lsl r0	; <UNPREDICTABLE>
     568:	03830200 	orreq	r0, r3, #0, 4
     56c:	000002d0 	ldrdeq	r0, [r0], -r0	; <UNPREDICTABLE>
     570:	02006810 	andeq	r6, r0, #16, 16	; 0x100000
     574:	00022783 	andeq	r2, r2, r3, lsl #15
     578:	006c1300 	rsbeq	r1, ip, r0, lsl #6
     57c:	02d08502 	sbcseq	r8, r0, #8388608	; 0x800000
     580:	06000000 	streq	r0, [r0], -r0
     584:	00010a04 	andeq	r0, r1, r4, lsl #20
     588:	038c1400 	orreq	r1, ip, #0, 8
     58c:	34010000 	strcc	r0, [r1], #-0
     590:	00000025 	andeq	r0, r0, r5, lsr #32
     594:	000080c4 	andeq	r8, r0, r4, asr #1
     598:	00000100 	andeq	r0, r0, r0, lsl #2
     59c:	045a9c01 	ldrbeq	r9, [sl], #-3073	; 0xc01
     5a0:	68150000 	ldmdavs	r5, {}	; <UNPREDICTABLE>
     5a4:	27340100 	ldrcs	r0, [r4, -r0, lsl #2]!
     5a8:	72000002 	andvc	r0, r0, #2
     5ac:	15000000 	strne	r0, [r0, #-0]
     5b0:	34010070 	strcc	r0, [r1], #-112	; 0x70
     5b4:	000000a0 	andeq	r0, r0, r0, lsr #1
     5b8:	000000a6 	andeq	r0, r0, r6, lsr #1
     5bc:	00034a16 	andeq	r4, r3, r6, lsl sl
     5c0:	37340100 	ldrcc	r0, [r4, -r0, lsl #2]!
     5c4:	d2000000 	andle	r0, r0, #0
     5c8:	17000000 	strne	r0, [r0, -r0]
     5cc:	35010069 	strcc	r0, [r1, #-105]	; 0x69
     5d0:	00000025 	andeq	r0, r0, r5, lsr #32
     5d4:	000000fe 	strdeq	r0, [r0], -lr
     5d8:	0080e418 	addeq	lr, r0, r8, lsl r4
     5dc:	0000b000 	andeq	fp, r0, r0
     5e0:	01aa1900 			; <UNDEFINED> instruction: 0x01aa1900
     5e4:	38010000 	stmdacc	r1, {}	; <UNPREDICTABLE>
     5e8:	000000a0 	andeq	r0, r0, r0, lsr #1
     5ec:	661a5701 	ldrvs	r5, [sl], -r1, lsl #14
     5f0:	01000009 	tsteq	r0, r9
     5f4:	00002539 	andeq	r2, r0, r9, lsr r5
     5f8:	00012800 	andeq	r2, r1, r0, lsl #16
     5fc:	02b11b00 	adcseq	r1, r1, #0, 22
     600:	81100000 	tsthi	r0, r0
     604:	00700000 	rsbseq	r0, r0, r0
     608:	3a010000 	bcc	40610 <__bss_end__+0x35a98>
     60c:	000003f7 	strdeq	r0, [r0], -r7
     610:	0002bd1c 	andeq	fp, r2, ip, lsl sp
     614:	00013b00 	andeq	r3, r1, r0, lsl #22
     618:	81101800 	tsthi	r0, r0, lsl #16
     61c:	00700000 	rsbseq	r0, r0, r0
     620:	c61d0000 	ldrgt	r0, [sp], -r0
     624:	4e000002 	cdpmi	0, 0, cr0, cr0, cr2, {0}
     628:	1e000001 	cdpne	0, 0, cr0, cr0, cr1, {0}
     62c:	00008118 	andeq	r8, r0, r8, lsl r1
     630:	00001017 	andeq	r1, r0, r7, lsl r0
     634:	0000038c 	andeq	r0, r0, ip, lsl #7
     638:	0250011f 	subseq	r0, r0, #-1073741817	; 0xc0000007
     63c:	1e000076 	mcrne	0, 0, r0, cr0, cr6, {3}
     640:	00008124 	andeq	r8, r0, r4, lsr #2
     644:	00001017 	andeq	r1, r0, r7, lsl r0
     648:	000003a3 	andeq	r0, r0, r3, lsr #7
     64c:	0550011f 	ldrbeq	r0, [r0, #-287]	; 0x11f
     650:	009d6403 	addseq	r6, sp, r3, lsl #8
     654:	381e0000 	ldmdacc	lr, {}	; <UNPREDICTABLE>
     658:	17000081 	strne	r0, [r0, -r1, lsl #1]
     65c:	b7000010 	smladlt	r0, r0, r0, r0
     660:	1f000003 	svcne	0x00000003
     664:	76025001 	strvc	r5, [r2], -r1
     668:	4c1e0000 	ldcmi	0, cr0, [lr], {-0}
     66c:	17000081 	strne	r0, [r0, -r1, lsl #1]
     670:	ce000010 	mcrgt	0, 0, r0, cr0, cr0, {0}
     674:	1f000003 	svcne	0x00000003
     678:	03055001 	movweq	r5, #20481	; 0x5001
     67c:	00009d70 	andeq	r9, r0, r0, ror sp
     680:	816c1e00 	cmnhi	ip, r0, lsl #28
     684:	10170000 	andsne	r0, r7, r0
     688:	03e20000 	mvneq	r0, #0
     68c:	011f0000 	tsteq	pc, r0
     690:	00760250 	rsbseq	r0, r6, r0, asr r2
     694:	81802000 	orrhi	r2, r0, r0
     698:	10170000 	andsne	r0, r7, r0
     69c:	011f0000 	tsteq	pc, r0
     6a0:	90030550 	andls	r0, r3, r0, asr r5
     6a4:	0000009d 	muleq	r0, sp, r0
     6a8:	f81e0000 			; <UNDEFINED> instruction: 0xf81e0000
     6ac:	17000080 	strne	r0, [r0, -r0, lsl #1]
     6b0:	0b000010 	bleq	6f8 <__code_start__-0x7908>
     6b4:	1f000004 	svcne	0x00000004
     6b8:	76025001 	strvc	r5, [r2], -r1
     6bc:	001e0000 	andseq	r0, lr, r0
     6c0:	17000081 	strne	r0, [r0, -r1, lsl #1]
     6c4:	22000010 	andcs	r0, r0, #16
     6c8:	1f000004 	svcne	0x00000004
     6cc:	03055001 	movweq	r5, #20481	; 0x5001
     6d0:	00009d38 	andeq	r9, r0, r8, lsr sp
     6d4:	81101e00 	tsthi	r0, r0, lsl #28
     6d8:	10170000 	andsne	r0, r7, r0
     6dc:	04450000 	strbeq	r0, [r5], #-0
     6e0:	011f0000 	tsteq	pc, r0
     6e4:	00780252 	rsbseq	r0, r8, r2, asr r2
     6e8:	0251011f 	subseq	r0, r1, #-1073741817	; 0xc0000007
     6ec:	011f0077 	tsteq	pc, r7, ror r0	; <UNPREDICTABLE>
     6f0:	40030550 	andmi	r0, r3, r0, asr r5
     6f4:	0000009d 	muleq	r0, sp, r0
     6f8:	00818c20 	addeq	r8, r1, r0, lsr #24
     6fc:	00101700 	andseq	r1, r0, r0, lsl #14
     700:	50011f00 	andpl	r1, r1, r0, lsl #30
     704:	9dac0305 	stcls	3, cr0, [ip, #20]!
     708:	00000000 	andeq	r0, r0, r0
     70c:	03092100 	movweq	r2, #37120	; 0x9100
     710:	42010000 	andmi	r0, r1, #0
     714:	000081c4 	andeq	r8, r0, r4, asr #3
     718:	00000014 	andeq	r0, r0, r4, lsl r0
     71c:	04aa9c01 	strteq	r9, [sl], #3073	; 0xc01
     720:	70150000 	andsvc	r0, r5, r0
     724:	9e420100 	dvflss	f0, f2, f0
     728:	70000000 	andvc	r0, r0, r0
     72c:	16000001 	strne	r0, [r0], -r1
     730:	0000034a 	andeq	r0, r0, sl, asr #6
     734:	00374201 	eorseq	r4, r7, r1, lsl #4
     738:	01910000 	orrseq	r0, r1, r0
     73c:	d4200000 	strtle	r0, [r0], #-0
     740:	2d000081 	stccs	0, cr0, [r0, #-516]	; 0xfffffdfc
     744:	1f000010 	svcne	0x00000010
     748:	f3035201 	vhsub.u8	d5, d3, d1
     74c:	011f5101 	tsteq	pc, r1, lsl #2
     750:	fe080251 	mcr2	2, 0, r0, cr8, cr1, {2}
     754:	0350011f 	cmpeq	r0, #-1073741817	; 0xc0000007
     758:	005001f3 	ldrsheq	r0, [r0], #-19	; 0xffffffed
     75c:	02821400 	addeq	r1, r2, #0, 8
     760:	19010000 	stmdbne	r1, {}	; <UNPREDICTABLE>
     764:	0000007e 	andeq	r0, r0, lr, ror r0
     768:	000081d8 	ldrdeq	r8, [r0], -r8	; <UNPREDICTABLE>
     76c:	00000048 	andeq	r0, r0, r8, asr #32
     770:	052e9c01 	streq	r9, [lr, #-3073]!	; 0xc01
     774:	68150000 	ldmdavs	r5, {}	; <UNPREDICTABLE>
     778:	27190100 	ldrcs	r0, [r9, -r0, lsl #2]
     77c:	bd000002 	stclt	0, cr0, [r0, #-8]
     780:	19000001 	stmdbne	r0, {r0}
     784:	00000294 	muleq	r0, r4, r2
     788:	00371a01 	eorseq	r1, r7, r1, lsl #20
     78c:	58010000 	stmdapl	r1, {}	; <UNPREDICTABLE>
     790:	00036d19 	andeq	r6, r3, r9, lsl sp
     794:	371b0100 	ldrcc	r0, [fp, -r0, lsl #2]
     798:	01000000 	mrseq	r0, (UNDEF: 0)
     79c:	03121957 	tsteq	r2, #1425408	; 0x15c000
     7a0:	1c010000 	stcne	0, cr0, [r1], {-0}
     7a4:	00000037 	andeq	r0, r0, r7, lsr r0
     7a8:	a1195601 	tstge	r9, r1, lsl #12
     7ac:	01000001 	tsteq	r0, r1
     7b0:	0000371d 	andeq	r3, r0, sp, lsl r7
     7b4:	00750700 	rsbseq	r0, r5, r0, lsl #14
     7b8:	1affff0a 	bne	3e8 <__code_start__-0x7c18>
     7bc:	0298199f 	addseq	r1, r8, #2605056	; 0x27c000
     7c0:	22010000 	andcs	r0, r1, #0
     7c4:	0000007e 	andeq	r0, r0, lr, ror r0
     7c8:	0c205001 	stceq	0, cr5, [r0], #-4
     7cc:	4c000082 	stcmi	0, cr0, [r0], {130}	; 0x82
     7d0:	1f000010 	svcne	0x00000010
     7d4:	08025101 	stmdaeq	r2, {r0, r8, ip, lr}
     7d8:	50011f38 	andpl	r1, r1, r8, lsr pc
     7dc:	00007402 	andeq	r7, r0, r2, lsl #8
     7e0:	02d41400 	sbcseq	r1, r4, #0, 8
     7e4:	2b010000 	blcs	407ec <__bss_end__+0x35c74>
     7e8:	00000025 	andeq	r0, r0, r5, lsr #32
     7ec:	00008220 	andeq	r8, r0, r0, lsr #4
     7f0:	00000078 	andeq	r0, r0, r8, ror r0
     7f4:	06099c01 	streq	r9, [r9], -r1, lsl #24
     7f8:	68150000 	ldmdavs	r5, {}	; <UNPREDICTABLE>
     7fc:	272b0100 	strcs	r0, [fp, -r0, lsl #2]!
     800:	db000002 	blle	810 <__code_start__-0x77f0>
     804:	1a000001 	bne	810 <__code_start__-0x77f0>
     808:	00000351 	andeq	r0, r0, r1, asr r3
     80c:	007e2c01 	rsbseq	r2, lr, r1, lsl #24
     810:	01f90000 	mvnseq	r0, r0
     814:	10220000 	eorne	r0, r2, r0
     818:	19000001 	stmdbne	r0, {r0}
     81c:	05000006 	streq	r0, [r0, #-6]
     820:	009ce003 	addseq	lr, ip, r3
     824:	822c1e00 	eorhi	r1, ip, #0, 28
     828:	04aa0000 	strteq	r0, [sl], #0
     82c:	05860000 	streq	r0, [r6]
     830:	011f0000 	tsteq	pc, r0
     834:	00740250 	rsbseq	r0, r4, r0, asr r2
     838:	823c2300 	eorshi	r2, ip, #0, 6
     83c:	106d0000 	rsbne	r0, sp, r0
     840:	501e0000 	andspl	r0, lr, r0
     844:	17000082 	strne	r0, [r0, -r2, lsl #1]
     848:	be000010 	mcrlt	0, 0, r0, cr0, cr0, {0}
     84c:	1f000005 	svcne	0x00000005
     850:	08025301 	stmdaeq	r2, {r0, r8, r9, ip, lr}
     854:	52011f2f 	andpl	r1, r1, #47, 30	; 0xbc
     858:	9ce00305 	stclls	3, cr0, [r0], #20
     85c:	011f0000 	tsteq	pc, r0
     860:	e4030551 	str	r0, [r3], #-1361	; 0x551
     864:	1f00009d 	svcne	0x0000009d
     868:	03055001 	movweq	r5, #20481	; 0x5001
     86c:	00009db8 			; <UNDEFINED> instruction: 0x00009db8
     870:	82542300 	subshi	r2, r4, #0, 6
     874:	10740000 	rsbsne	r0, r4, r0
     878:	68230000 	stmdavs	r3!, {}	; <UNPREDICTABLE>
     87c:	6d000082 	stcvs	0, cr0, [r0, #-520]	; 0xfffffdf8
     880:	1e000010 	mcrne	0, 0, r0, cr0, cr0, {0}
     884:	0000827c 	andeq	r8, r0, ip, ror r2
     888:	00001017 	andeq	r1, r0, r7, lsl r0
     88c:	000005ff 	strdeq	r0, [r0], -pc	; <UNPREDICTABLE>
     890:	0253011f 	subseq	r0, r3, #-1073741817	; 0xc0000007
     894:	011f3008 	tsteq	pc, r8
     898:	e0030552 	and	r0, r3, r2, asr r5
     89c:	1f00009c 	svcne	0x0000009c
     8a0:	03055101 	movweq	r5, #20737	; 0x5101
     8a4:	00009de4 	andeq	r9, r0, r4, ror #27
     8a8:	0550011f 	ldrbeq	r0, [r0, #-287]	; 0x11f
     8ac:	009df003 	addseq	pc, sp, r3
     8b0:	80230000 	eorhi	r0, r3, r0
     8b4:	74000082 	strvc	r0, [r0], #-130	; 0x82
     8b8:	00000010 	andeq	r0, r0, r0, lsl r0
     8bc:	0000a608 	andeq	sl, r0, r8, lsl #12
     8c0:	00061900 	andeq	r1, r6, r0, lsl #18
     8c4:	00970900 	addseq	r0, r7, r0, lsl #18
     8c8:	00090000 	andeq	r0, r9, r0
     8cc:	00060907 	andeq	r0, r6, r7, lsl #18
     8d0:	03311400 	teqeq	r1, #0, 8
     8d4:	4c010000 	stcmi	0, cr0, [r1], {-0}
     8d8:	00000025 	andeq	r0, r0, r5, lsr #32
     8dc:	00008298 	muleq	r0, r8, r2
     8e0:	00000070 	andeq	r0, r0, r0, ror r0
     8e4:	06c39c01 	strbeq	r9, [r3], r1, lsl #24
     8e8:	68150000 	ldmdavs	r5, {}	; <UNPREDICTABLE>
     8ec:	274c0100 	strbcs	r0, [ip, -r0, lsl #2]
     8f0:	22000002 	andcs	r0, r0, #2
     8f4:	1b000002 	blne	904 <__code_start__-0x76fc>
     8f8:	00000247 	andeq	r0, r0, r7, asr #4
     8fc:	000082c4 	andeq	r8, r0, r4, asr #5
     900:	00000008 	andeq	r0, r0, r8
     904:	06615001 	strbteq	r5, [r1], -r1
     908:	571c0000 	ldrpl	r0, [ip, -r0]
     90c:	40000002 	andmi	r0, r0, r2
     910:	00000002 	andeq	r0, r0, r2
     914:	0002611b 	andeq	r6, r2, fp, lsl r1
     918:	0082cc00 	addeq	ip, r2, r0, lsl #24
     91c:	00000400 	andeq	r0, r0, r0, lsl #8
     920:	7e500100 	rdfvcs	f0, f0, f0
     924:	1c000006 	stcne	0, cr0, [r0], {6}
     928:	00000271 	andeq	r0, r0, r1, ror r2
     92c:	0000025e 	andeq	r0, r0, lr, asr r2
     930:	82a41e00 	adchi	r1, r4, #0, 28
     934:	052e0000 	streq	r0, [lr, #-0]!
     938:	06920000 	ldreq	r0, [r2], r0
     93c:	011f0000 	tsteq	pc, r0
     940:	00740250 	rsbseq	r0, r4, r0, asr r2
     944:	82bc1e00 	adcshi	r1, ip, #0, 28
     948:	02d60000 	sbcseq	r0, r6, #0
     94c:	06b20000 	ldrteq	r0, [r2], r0
     950:	011f0000 	tsteq	pc, r0
     954:	80080252 	andhi	r0, r8, r2, asr r2
     958:	0251011f 	subseq	r0, r1, #-1073741817	; 0xc0000007
     95c:	011f3874 	tsteq	pc, r4, ror r8	; <UNPREDICTABLE>
     960:	00740250 	rsbseq	r0, r4, r0, asr r2
     964:	82e02000 	rschi	r2, r0, #0
     968:	02d60000 	sbcseq	r0, r6, #0
     96c:	011f0000 	tsteq	pc, r0
     970:	00740250 	rsbseq	r0, r4, r0, asr r2
     974:	22240000 	eorcs	r0, r4, #0
     978:	01000001 	tsteq	r0, r1
     97c:	0083080c 	addeq	r0, r3, ip, lsl #16
     980:	00008800 	andeq	r8, r0, r0, lsl #16
     984:	639c0100 	orrsvs	r0, ip, #0, 2
     988:	16000007 	strne	r0, [r0], -r7
     98c:	00000d5f 	andeq	r0, r0, pc, asr sp
     990:	009e0c01 	addseq	r0, lr, r1, lsl #24
     994:	027c0000 	rsbseq	r0, ip, #0
     998:	6e150000 	cdpvs	0, 1, cr0, cr5, cr0, {0}
     99c:	370c0100 	strcc	r0, [ip, -r0, lsl #2]
     9a0:	b0000000 	andlt	r0, r0, r0
     9a4:	22000002 	andcs	r0, r0, #2
     9a8:	00000110 	andeq	r0, r0, r0, lsl r1
     9ac:	00000763 	andeq	r0, r0, r3, ror #14
     9b0:	9cec0305 	stclls	3, cr0, [ip], #20
     9b4:	28230000 	stmdacs	r3!, {}	; <UNPREDICTABLE>
     9b8:	6d000083 	stcvs	0, cr0, [r0, #-524]	; 0xfffffdf4
     9bc:	1e000010 	mcrne	0, 0, r0, cr0, cr0, {0}
     9c0:	0000833c 	andeq	r8, r0, ip, lsr r3
     9c4:	00001017 	andeq	r1, r0, r7, lsl r0
     9c8:	0000073a 	andeq	r0, r0, sl, lsr r7
     9cc:	0153011f 	cmpeq	r3, pc, lsl r1
     9d0:	52011f3d 	andpl	r1, r1, #61, 30	; 0xf4
     9d4:	9cec0305 	stclls	3, cr0, [ip], #20
     9d8:	011f0000 	tsteq	pc, r0
     9dc:	e4030551 	str	r0, [r3], #-1361	; 0x551
     9e0:	1f00009d 	svcne	0x0000009d
     9e4:	03055001 	movweq	r5, #20481	; 0x5001
     9e8:	00009e2c 	andeq	r9, r0, ip, lsr #28
     9ec:	83402300 	movthi	r2, #768	; 0x300
     9f0:	10740000 	rsbsne	r0, r4, r0
     9f4:	50200000 	eorpl	r0, r0, r0
     9f8:	17000083 	strne	r0, [r0, -r3, lsl #1]
     9fc:	1f000010 	svcne	0x00000010
     a00:	08025201 	stmdaeq	r2, {r0, r9, ip, lr}
     a04:	51011f80 	smlabbpl	r1, r0, pc, r1	; <UNPREDICTABLE>
     a08:	1f380802 	svcne	0x00380802
     a0c:	03055001 	movweq	r5, #20481	; 0x5001
     a10:	00009e54 	andeq	r9, r0, r4, asr lr
     a14:	b8070000 	stmdalt	r7, {}	; <UNPREDICTABLE>
     a18:	24000000 	strcs	r0, [r0], #-0
     a1c:	00000258 	andeq	r0, r0, r8, asr r2
     a20:	83905801 	orrshi	r5, r0, #65536	; 0x10000
     a24:	00d00000 	sbcseq	r0, r0, r0
     a28:	9c010000 	stcls	0, cr0, [r1], {-0}
     a2c:	00000883 	andeq	r0, r0, r3, lsl #17
     a30:	0001ac16 	andeq	sl, r1, r6, lsl ip
     a34:	9e580100 	rdflse	f0, f0, f0
     a38:	f2000000 	vhadd.s8	d0, d0, d0
     a3c:	16000002 	strne	r0, [r0], -r2
     a40:	000008ef 	andeq	r0, r0, pc, ror #17
     a44:	00ad5801 	adceq	r5, sp, r1, lsl #16
     a48:	03100000 	tsteq	r0, #0
     a4c:	b9160000 	ldmdblt	r6, {}	; <UNPREDICTABLE>
     a50:	0100000b 	tsteq	r0, fp
     a54:	0000ad58 	andeq	sl, r0, r8, asr sp
     a58:	00034400 	andeq	r4, r3, r0, lsl #8
     a5c:	033d1600 	teqeq	sp, #0, 12
     a60:	58010000 	stmdapl	r1, {}	; <UNPREDICTABLE>
     a64:	00000037 	andeq	r0, r0, r7, lsr r0
     a68:	00000378 	andeq	r0, r0, r8, ror r3
     a6c:	01006817 	tsteq	r0, r7, lsl r8
     a70:	00022759 	andeq	r2, r2, r9, asr r7
     a74:	0003ac00 	andeq	sl, r3, r0, lsl #24
     a78:	01102200 	tsteq	r0, r0, lsl #4
     a7c:	08930000 	ldmeq	r3, {}	; <UNPREDICTABLE>
     a80:	03050000 	movweq	r0, #20480	; 0x5000
     a84:	00009cf4 	strdeq	r9, [r0], -r4
     a88:	0083b823 	addeq	fp, r3, r3, lsr #16
     a8c:	00106d00 	andseq	r6, r0, r0, lsl #26
     a90:	83cc1e00 	bichi	r1, ip, #0, 28
     a94:	10170000 	andsne	r0, r7, r0
     a98:	080d0000 	stmdaeq	sp, {}	; <UNPREDICTABLE>
     a9c:	011f0000 	tsteq	pc, r0
     aa0:	5a080253 	bpl	2013f4 <__bss_end__+0x1f687c>
     aa4:	0552011f 	ldrbeq	r0, [r2, #-287]	; 0x11f
     aa8:	009cf403 	addseq	pc, ip, r3, lsl #8
     aac:	51011f00 	tstpl	r1, r0, lsl #30
     ab0:	9de40305 	stclls	3, cr0, [r4, #20]!
     ab4:	011f0000 	tsteq	pc, r0
     ab8:	70030550 	andvc	r0, r3, r0, asr r5
     abc:	0000009e 	muleq	r0, lr, r0
     ac0:	0083d023 	addeq	sp, r3, r3, lsr #32
     ac4:	00107400 	andseq	r7, r0, r0, lsl #8
     ac8:	83d81e00 	bicshi	r1, r8, #0, 28
     acc:	10170000 	andsne	r0, r7, r0
     ad0:	082d0000 	stmdaeq	sp!, {}	; <UNPREDICTABLE>
     ad4:	011f0000 	tsteq	pc, r0
     ad8:	30030550 	andcc	r0, r3, r0, asr r5
     adc:	0000009d 	muleq	r0, sp, r0
     ae0:	0083e41e 	addeq	lr, r3, lr, lsl r4
     ae4:	00101700 	andseq	r1, r0, r0, lsl #14
     ae8:	00084a00 	andeq	r4, r8, r0, lsl #20
     aec:	51011f00 	tstpl	r1, r0, lsl #30
     af0:	1f007402 	svcne	0x00007402
     af4:	03055001 	movweq	r5, #20481	; 0x5001
     af8:	00009ea4 	andeq	r9, r0, r4, lsr #29
     afc:	83f01e00 	mvnshi	r1, #0, 28
     b00:	061e0000 	ldreq	r0, [lr], -r0
     b04:	085e0000 	ldmdaeq	lr, {}^	; <UNPREDICTABLE>
     b08:	011f0000 	tsteq	pc, r0
     b0c:	00750250 	rsbseq	r0, r5, r0, asr r2
     b10:	84181e00 	ldrhi	r1, [r8], #-3584	; 0xe00
     b14:	045a0000 	ldrbeq	r0, [sl], #-0
     b18:	08720000 	ldmdaeq	r2!, {}^	; <UNPREDICTABLE>
     b1c:	011f0000 	tsteq	pc, r0
     b20:	00740250 	rsbseq	r0, r4, r0, asr r2
     b24:	84402000 	strbhi	r2, [r0], #-0
     b28:	04aa0000 	strteq	r0, [sl], #0
     b2c:	011f0000 	tsteq	pc, r0
     b30:	00750250 	rsbseq	r0, r5, r0, asr r2
     b34:	a6080000 	strge	r0, [r8], -r0
     b38:	93000000 	movwls	r0, #0
     b3c:	09000008 	stmdbeq	r0, {r3}
     b40:	00000097 	muleq	r0, r7, r0
     b44:	83070006 	movwhi	r0, #28678	; 0x7006
     b48:	25000008 	strcs	r0, [r0, #-8]
     b4c:	00000007 	andeq	r0, r0, r7
     b50:	009e7401 	addseq	r7, lr, r1, lsl #8
     b54:	84600000 	strbthi	r0, [r0], #-0
     b58:	022c0000 	eoreq	r0, ip, #0
     b5c:	9c010000 	stcls	0, cr0, [r1], {-0}
     b60:	00000bf9 	strdeq	r0, [r0], -r9
     b64:	00034a16 	andeq	r4, r3, r6, lsl sl
     b68:	7e740100 	rpwvcs	f0, f4, f0
     b6c:	c0000000 	andgt	r0, r0, r0
     b70:	16000003 	strne	r0, [r0], -r3
     b74:	000008ef 	andeq	r0, r0, pc, ror #17
     b78:	00ad7401 	adceq	r7, sp, r1, lsl #8
     b7c:	04020000 	streq	r0, [r2], #-0
     b80:	b9160000 	ldmdblt	r6, {}	; <UNPREDICTABLE>
     b84:	0100000b 	tsteq	r0, fp
     b88:	0000ad74 	andeq	sl, r0, r4, ror sp
     b8c:	00044400 	andeq	r4, r4, r0, lsl #8
     b90:	033d1600 	teqeq	sp, #0, 12
     b94:	74010000 	strvc	r0, [r1], #-0
     b98:	00000037 	andeq	r0, r0, r7, lsr r0
     b9c:	00000486 	andeq	r0, r0, r6, lsl #9
     ba0:	01006817 	tsteq	r0, r7, lsl r8
     ba4:	00022775 	andeq	r2, r2, r5, ror r7
     ba8:	0004b200 	andeq	fp, r4, r0, lsl #4
     bac:	74701700 	ldrbtvc	r1, [r0], #-1792	; 0x700
     bb0:	76010072 			; <UNDEFINED> instruction: 0x76010072
     bb4:	0000009e 	muleq	r0, lr, r0
     bb8:	000004df 	ldrdeq	r0, [r0], -pc	; <UNPREDICTABLE>
     bbc:	00011022 	andeq	r1, r1, r2, lsr #32
     bc0:	000bf900 	andeq	pc, fp, r0, lsl #18
     bc4:	fc030500 	stc2	5, cr0, [r3], {-0}
     bc8:	1700009c 			; <UNDEFINED> instruction: 0x1700009c
     bcc:	00746f74 	rsbseq	r6, r4, r4, ror pc
     bd0:	00377b01 	eorseq	r7, r7, r1, lsl #22
     bd4:	04f30000 	ldrbteq	r0, [r3], #0
     bd8:	6e170000 	cdpvs	0, 1, cr0, cr7, cr0, {0}
     bdc:	377c0100 	ldrbcc	r0, [ip, -r0, lsl #2]!
     be0:	59000000 	stmdbpl	r0, {}	; <UNPREDICTABLE>
     be4:	1b000005 	blne	c00 <__code_start__-0x7400>
     be8:	00000247 	andeq	r0, r0, r7, asr #4
     bec:	000085bc 			; <UNDEFINED> instruction: 0x000085bc
     bf0:	00000008 	andeq	r0, r0, r8
     bf4:	09519701 	ldmdbeq	r1, {r0, r8, r9, sl, ip, pc}^
     bf8:	571c0000 	ldrpl	r0, [ip, -r0]
     bfc:	82000002 	andhi	r0, r0, #2
     c00:	00000005 	andeq	r0, r0, r5
     c04:	0002611b 	andeq	r6, r2, fp, lsl r1
     c08:	0085c400 	addeq	ip, r5, r0, lsl #8
     c0c:	00000400 	andeq	r0, r0, r0, lsl #8
     c10:	6e970100 	fmlvss	f0, f7, f0
     c14:	1c000009 	stcne	0, cr0, [r0], {9}
     c18:	00000271 	andeq	r0, r0, r1, ror r2
     c1c:	000005a3 	andeq	r0, r0, r3, lsr #11
     c20:	848c2300 	strhi	r2, [ip], #768	; 0x300
     c24:	106d0000 	rsbne	r0, sp, r0
     c28:	a01e0000 	andsge	r0, lr, r0
     c2c:	17000084 	strne	r0, [r0, -r4, lsl #1]
     c30:	a6000010 			; <UNDEFINED> instruction: 0xa6000010
     c34:	1f000009 	svcne	0x00000009
     c38:	08025301 	stmdaeq	r2, {r0, r8, r9, ip, lr}
     c3c:	52011f78 	andpl	r1, r1, #120, 30	; 0x1e0
     c40:	9cfc0305 	ldclls	3, cr0, [ip], #20
     c44:	011f0000 	tsteq	pc, r0
     c48:	e4030551 	str	r0, [r3], #-1361	; 0x551
     c4c:	1f00009d 	svcne	0x0000009d
     c50:	03055001 	movweq	r5, #20481	; 0x5001
     c54:	00009e70 	andeq	r9, r0, r0, ror lr
     c58:	84a42300 	strthi	r2, [r4], #768	; 0x300
     c5c:	10740000 	rsbsne	r0, r4, r0
     c60:	ac1e0000 	ldcge	0, cr0, [lr], {-0}
     c64:	17000084 	strne	r0, [r0, -r4, lsl #1]
     c68:	c6000010 			; <UNDEFINED> instruction: 0xc6000010
     c6c:	1f000009 	svcne	0x00000009
     c70:	03055001 	movweq	r5, #20481	; 0x5001
     c74:	00009d30 	andeq	r9, r0, r0, lsr sp
     c78:	84b81e00 	ldrthi	r1, [r8], #3584	; 0xe00
     c7c:	10170000 	andsne	r0, r7, r0
     c80:	09e30000 	stmibeq	r3!, {}^	; <UNPREDICTABLE>
     c84:	011f0000 	tsteq	pc, r0
     c88:	00750251 	rsbseq	r0, r5, r1, asr r2
     c8c:	0550011f 	ldrbeq	r0, [r0, #-287]	; 0x11f
     c90:	009eb003 	addseq	fp, lr, r3
     c94:	d41e0000 	ldrle	r0, [lr], #-0
     c98:	17000084 	strne	r0, [r0, -r4, lsl #1]
     c9c:	fa000010 	blx	ce4 <__code_start__-0x731c>
     ca0:	1f000009 	svcne	0x00000009
     ca4:	03055001 	movweq	r5, #20481	; 0x5001
     ca8:	00009ec8 	andeq	r9, r0, r8, asr #29
     cac:	84e01e00 	strbthi	r1, [r0], #3584	; 0xe00
     cb0:	10170000 	andsne	r0, r7, r0
     cb4:	0a170000 	beq	5c0cbc <__bss_end__+0x5b6144>
     cb8:	011f0000 	tsteq	pc, r0
     cbc:	00750251 	rsbseq	r0, r5, r1, asr r2
     cc0:	0550011f 	ldrbeq	r0, [r0, #-287]	; 0x11f
     cc4:	009ed403 	addseq	sp, lr, r3, lsl #8
     cc8:	e4230000 	strt	r0, [r3], #-0
     ccc:	6d000084 	stcvs	0, cr0, [r0, #-528]	; 0xfffffdf0
     cd0:	1e000010 	mcrne	0, 0, r0, cr0, cr0, {0}
     cd4:	000084fc 	strdeq	r8, [r0], -ip
     cd8:	00001017 	andeq	r1, r0, r7, lsl r0
     cdc:	00000a56 	andeq	r0, r0, r6, asr sl
     ce0:	0253011f 	subseq	r0, r3, #-1073741817	; 0xc0000007
     ce4:	011f8008 	tsteq	pc, r8
     ce8:	fc030552 	stc2	5, cr0, [r3], {82}	; 0x52
     cec:	1f00009c 	svcne	0x0000009c
     cf0:	03055101 	movweq	r5, #20737	; 0x5101
     cf4:	00009de4 	andeq	r9, r0, r4, ror #27
     cf8:	0550011f 	ldrbeq	r0, [r0, #-287]	; 0x11f
     cfc:	009efc03 	addseq	pc, lr, r3, lsl #24
     d00:	7d021f00 	stcvc	15, cr1, [r2, #-0]
     d04:	00750200 	rsbseq	r0, r5, r0, lsl #4
     d08:	85002300 	strhi	r2, [r0, #-768]	; 0x300
     d0c:	10740000 	rsbsne	r0, r4, r0
     d10:	201e0000 	andscs	r0, lr, r0
     d14:	17000085 	strne	r0, [r0, -r5, lsl #1]
     d18:	76000010 			; <UNDEFINED> instruction: 0x76000010
     d1c:	1f00000a 	svcne	0x0000000a
     d20:	03055001 	movweq	r5, #20481	; 0x5001
     d24:	00009ec8 	andeq	r9, r0, r8, asr #29
     d28:	853c1e00 	ldrhi	r1, [ip, #-3584]!	; 0xe00
     d2c:	10170000 	andsne	r0, r7, r0
     d30:	0a930000 	beq	fe4c0d38 <__bss_end__+0xfe4b61c0>
     d34:	011f0000 	tsteq	pc, r0
     d38:	00760252 	rsbseq	r0, r6, r2, asr r2
     d3c:	0550011f 	ldrbeq	r0, [r0, #-287]	; 0x11f
     d40:	009f3403 	addseq	r3, pc, r3, lsl #8
     d44:	40230000 	eormi	r0, r3, r0
     d48:	6d000085 	stcvs	0, cr0, [r0, #-532]	; 0xfffffdec
     d4c:	1e000010 	mcrne	0, 0, r0, cr0, cr0, {0}
     d50:	00008568 	andeq	r8, r0, r8, ror #10
     d54:	00001017 	andeq	r1, r0, r7, lsl r0
     d58:	00000ad2 	ldrdeq	r0, [r0], -r2
     d5c:	0253011f 	subseq	r0, r3, #-1073741817	; 0xc0000007
     d60:	011f8408 	tsteq	pc, r8, lsl #8
     d64:	fc030552 	stc2	5, cr0, [r3], {82}	; 0x52
     d68:	1f00009c 	svcne	0x0000009c
     d6c:	03055101 	movweq	r5, #20737	; 0x5101
     d70:	00009de4 	andeq	r9, r0, r4, ror #27
     d74:	0550011f 	ldrbeq	r0, [r0, #-287]	; 0x11f
     d78:	009f6003 	addseq	r6, pc, r3
     d7c:	7d021f00 	stcvc	15, cr1, [r2, #-0]
     d80:	00760204 	rsbseq	r0, r6, r4, lsl #4
     d84:	856c2300 	strbhi	r2, [ip, #-768]!	; 0x300
     d88:	10740000 	rsbsne	r0, r4, r0
     d8c:	ac1e0000 	ldcge	0, cr0, [lr], {-0}
     d90:	aa000085 	bge	fac <__code_start__-0x7054>
     d94:	ef000004 	svc	0x00000004
     d98:	1f00000a 	svcne	0x0000000a
     d9c:	74025001 	strvc	r5, [r2], #-1
     da0:	bc1e0000 	ldclt	0, cr0, [lr], {-0}
     da4:	5a000085 	bpl	fc0 <__code_start__-0x7040>
     da8:	09000004 	stmdbeq	r0, {r2}
     dac:	1f00000b 	svcne	0x0000000b
     db0:	08025101 	stmdaeq	r2, {r0, r8, ip, lr}
     db4:	50011f80 	andpl	r1, r1, r0, lsl #31
     db8:	00387402 	eorseq	r7, r8, r2, lsl #8
     dbc:	0085d423 	addeq	sp, r5, r3, lsr #8
     dc0:	00045a00 	andeq	r5, r4, r0, lsl #20
     dc4:	85dc1e00 	ldrbhi	r1, [ip, #3584]	; 0xe00
     dc8:	052e0000 	streq	r0, [lr, #-0]!
     dcc:	0b260000 	bleq	980dd4 <__bss_end__+0x97625c>
     dd0:	011f0000 	tsteq	pc, r0
     dd4:	00740250 	rsbseq	r0, r4, r0, asr r2
     dd8:	85e82300 	strbhi	r2, [r8, #768]!	; 0x300
     ddc:	106d0000 	rsbne	r0, sp, r0
     de0:	fc1e0000 	ldc2	0, cr0, [lr], {-0}
     de4:	17000085 	strne	r0, [r0, -r5, lsl #1]
     de8:	5e000010 	mcrpl	0, 0, r0, cr0, cr0, {0}
     dec:	1f00000b 	svcne	0x0000000b
     df0:	08025301 	stmdaeq	r2, {r0, r8, r9, ip, lr}
     df4:	52011f9b 	andpl	r1, r1, #620	; 0x26c
     df8:	9cfc0305 	ldclls	3, cr0, [ip], #20
     dfc:	011f0000 	tsteq	pc, r0
     e00:	e4030551 	str	r0, [r3], #-1361	; 0x551
     e04:	1f00009d 	svcne	0x0000009d
     e08:	03055001 	movweq	r5, #20481	; 0x5001
     e0c:	00009f9c 	muleq	r0, ip, pc	; <UNPREDICTABLE>
     e10:	86002300 	strhi	r2, [r0], -r0, lsl #6
     e14:	10740000 	rsbsne	r0, r4, r0
     e18:	081e0000 	ldmdaeq	lr, {}	; <UNPREDICTABLE>
     e1c:	1e000086 	cdpne	0, 0, cr0, cr0, cr6, {4}
     e20:	7b000006 	blvc	e40 <__code_start__-0x71c0>
     e24:	1f00000b 	svcne	0x0000000b
     e28:	74025001 	strvc	r5, [r2], #-1
     e2c:	14230000 	strtne	r0, [r3], #-0
     e30:	6d000086 	stcvs	0, cr0, [r0, #-536]	; 0xfffffde8
     e34:	1e000010 	mcrne	0, 0, r0, cr0, cr0, {0}
     e38:	00008628 	andeq	r8, r0, r8, lsr #12
     e3c:	00001017 	andeq	r1, r0, r7, lsl r0
     e40:	00000bb3 			; <UNDEFINED> instruction: 0x00000bb3
     e44:	0253011f 	subseq	r0, r3, #-1073741817	; 0xc0000007
     e48:	011f9c08 	tsteq	pc, r8, lsl #24
     e4c:	fc030552 	stc2	5, cr0, [r3], {82}	; 0x52
     e50:	1f00009c 	svcne	0x0000009c
     e54:	03055101 	movweq	r5, #20737	; 0x5101
     e58:	00009de4 	andeq	r9, r0, r4, ror #27
     e5c:	0550011f 	ldrbeq	r0, [r0, #-287]	; 0x11f
     e60:	009fbc03 	addseq	fp, pc, r3, lsl #24
     e64:	2c230000 	stccs	0, cr0, [r3], #-0
     e68:	74000086 	strvc	r0, [r0], #-134	; 0x86
     e6c:	1e000010 	mcrne	0, 0, r0, cr0, cr0, {0}
     e70:	00008634 	andeq	r8, r0, r4, lsr r6
     e74:	00001017 	andeq	r1, r0, r7, lsl r0
     e78:	00000bd3 	ldrdeq	r0, [r0], -r3
     e7c:	0550011f 	ldrbeq	r0, [r0, #-287]	; 0x11f
     e80:	009d3003 	addseq	r3, sp, r3
     e84:	48200000 	stmdami	r0!, {}	; <UNPREDICTABLE>
     e88:	17000086 	strne	r0, [r0, -r6, lsl #1]
     e8c:	1f000010 	svcne	0x00000010
     e90:	77025301 	strvc	r5, [r2, -r1, lsl #6]
     e94:	52011f00 	andpl	r1, r1, #0, 30
     e98:	1f007602 	svcne	0x00007602
     e9c:	75025101 	strvc	r5, [r2, #-257]	; 0x101
     ea0:	50011f00 	andpl	r1, r1, r0, lsl #30
     ea4:	9fdc0305 	svcls	0x00dc0305
     ea8:	00000000 	andeq	r0, r0, r0
     eac:	0000b807 	andeq	fp, r0, r7, lsl #16
     eb0:	02022500 	andeq	r2, r2, #0, 10
     eb4:	a4010000 	strge	r0, [r1], #-0
     eb8:	00000025 	andeq	r0, r0, r5, lsr #32
     ebc:	0000868c 	andeq	r8, r0, ip, lsl #13
     ec0:	00000170 	andeq	r0, r0, r0, ror r1
     ec4:	0df89c01 	ldcleq	12, cr9, [r8, #4]!
     ec8:	291a0000 	ldmdbcs	sl, {}	; <UNPREDICTABLE>
     ecc:	01000003 	tsteq	r0, r3
     ed0:	000037a5 	andeq	r3, r0, r5, lsr #15
     ed4:	0005c400 	andeq	ip, r5, r0, lsl #8
     ed8:	03871a00 	orreq	r1, r7, #0, 20
     edc:	a6010000 	strge	r0, [r1], -r0
     ee0:	00000037 	andeq	r0, r0, r7, lsr r0
     ee4:	000005d7 	ldrdeq	r0, [r0], -r7
     ee8:	0002e81a 	andeq	lr, r2, sl, lsl r8
     eec:	37aa0100 	strcc	r0, [sl, r0, lsl #2]!
     ef0:	ea000000 	b	ef8 <__code_start__-0x7108>
     ef4:	1a000005 	bne	f10 <__code_start__-0x70f0>
     ef8:	000002fa 	strdeq	r0, [r0], -sl
     efc:	0037ab01 	eorseq	sl, r7, r1, lsl #22
     f00:	06090000 	streq	r0, [r9], -r0
     f04:	44190000 	ldrmi	r0, [r9], #-0
     f08:	01000002 	tsteq	r0, r2
     f0c:	000df8ad 	andeq	pc, sp, sp, lsr #17
     f10:	22540100 	subscs	r0, r4, #0, 2
     f14:	00000110 	andeq	r0, r0, r0, lsl r1
     f18:	00000e0e 	andeq	r0, r0, lr, lsl #28
     f1c:	9d040305 	stcls	3, cr0, [r4, #-20]	; 0xffffffec
     f20:	38260000 	stmdacc	r6!, {}	; <UNPREDICTABLE>
     f24:	59000000 	stmdbpl	r0, {}	; <UNPREDICTABLE>
     f28:	1700000d 	strne	r0, [r0, -sp]
     f2c:	b0010068 	andlt	r0, r1, r8, rrx
     f30:	00000227 	andeq	r0, r0, r7, lsr #4
     f34:	00000628 	andeq	r0, r0, r8, lsr #12
     f38:	0086e823 	addeq	lr, r6, r3, lsr #16
     f3c:	00106d00 	andseq	r6, r0, r0, lsl #26
     f40:	86fc1e00 	ldrbthi	r1, [ip], r0, lsl #28
     f44:	10170000 	andsne	r0, r7, r0
     f48:	0cbd0000 	ldceq	0, cr0, [sp]
     f4c:	011f0000 	tsteq	pc, r0
     f50:	af080253 	svcge	0x00080253
     f54:	0552011f 	ldrbeq	r0, [r2, #-287]	; 0x11f
     f58:	009d0403 	addseq	r0, sp, r3, lsl #8
     f5c:	51011f00 	tstpl	r1, r0, lsl #30
     f60:	9de40305 	stclls	3, cr0, [r4, #20]!
     f64:	011f0000 	tsteq	pc, r0
     f68:	44030550 	strmi	r0, [r3], #-1360	; 0x550
     f6c:	000000a0 	andeq	r0, r0, r0, lsr #1
     f70:	00870023 	addeq	r0, r7, r3, lsr #32
     f74:	00107400 	andseq	r7, r0, r0, lsl #8
     f78:	87081e00 	strhi	r1, [r8, -r0, lsl #28]
     f7c:	052e0000 	streq	r0, [lr, #-0]!
     f80:	0cda0000 	ldcleq	0, cr0, [sl], {0}
     f84:	011f0000 	tsteq	pc, r0
     f88:	00740250 	rsbseq	r0, r4, r0, asr r2
     f8c:	87181e00 	ldrhi	r1, [r8, -r0, lsl #28]
     f90:	10170000 	andsne	r0, r7, r0
     f94:	0cee0000 	stcleq	0, cr0, [lr]
     f98:	011f0000 	tsteq	pc, r0
     f9c:	00790250 	rsbseq	r0, r9, r0, asr r2
     fa0:	87201e00 	strhi	r1, [r0, -r0, lsl #28]!
     fa4:	10170000 	andsne	r0, r7, r0
     fa8:	0d050000 	stceq	0, cr0, [r5, #-0]
     fac:	011f0000 	tsteq	pc, r0
     fb0:	68030550 	stmdavs	r3, {r4, r6, r8, sl}
     fb4:	000000a0 	andeq	r0, r0, r0, lsr #1
     fb8:	0087301e 	addeq	r3, r7, lr, lsl r0
     fbc:	00061e00 	andeq	r1, r6, r0, lsl #28
     fc0:	000d1900 	andeq	r1, sp, r0, lsl #18
     fc4:	50011f00 	andpl	r1, r1, r0, lsl #30
     fc8:	00007402 	andeq	r7, r0, r2, lsl #8
     fcc:	0087541e 	addeq	r5, r7, lr, lsl r4
     fd0:	0002d600 	andeq	sp, r2, r0, lsl #12
     fd4:	000d3400 	andeq	r3, sp, r0, lsl #8
     fd8:	51011f00 	tstpl	r1, r0, lsl #30
     fdc:	01b87403 			; <UNDEFINED> instruction: 0x01b87403
     fe0:	0250011f 	subseq	r0, r0, #-1073741817	; 0xc0000007
     fe4:	1e000074 	mcrne	0, 0, r0, cr0, cr4, {3}
     fe8:	00008764 	andeq	r8, r0, r4, ror #14
     fec:	00001017 	andeq	r1, r0, r7, lsl r0
     ff0:	00000d48 	andeq	r0, r0, r8, asr #26
     ff4:	0250011f 	subseq	r0, r0, #-1073741817	; 0xc0000007
     ff8:	20000079 	andcs	r0, r0, r9, ror r0
     ffc:	0000876c 	andeq	r8, r0, ip, ror #14
    1000:	00001017 	andeq	r1, r0, r7, lsl r0
    1004:	0250011f 	subseq	r0, r0, #-1073741817	; 0xc0000007
    1008:	00000078 	andeq	r0, r0, r8, ror r0
    100c:	0086b01e 	addeq	fp, r6, lr, lsl r0
    1010:	00101700 	andseq	r1, r0, r0, lsl #14
    1014:	000d7000 	andeq	r7, sp, r0
    1018:	50011f00 	andpl	r1, r1, r0, lsl #30
    101c:	9d300305 	ldcls	3, cr0, [r0, #-20]!	; 0xffffffec
    1020:	1e000000 	cdpne	0, 0, cr0, cr0, cr0, {0}
    1024:	000086c0 	andeq	r8, r0, r0, asr #13
    1028:	00001017 	andeq	r1, r0, r7, lsl r0
    102c:	00000d93 	muleq	r0, r3, sp
    1030:	0252011f 	subseq	r0, r2, #-1073741817	; 0xc0000007
    1034:	011f0075 	tsteq	pc, r5, ror r0	; <UNPREDICTABLE>
    1038:	00760251 	rsbseq	r0, r6, r1, asr r2
    103c:	0550011f 	ldrbeq	r0, [r0, #-287]	; 0x11f
    1040:	00a00c03 	adceq	r0, r0, r3, lsl #24
    1044:	a41e0000 	ldrge	r0, [lr], #-0
    1048:	17000087 	strne	r0, [r0, -r7, lsl #1]
    104c:	a7000010 	smladge	r0, r0, r0, r0
    1050:	1f00000d 	svcne	0x0000000d
    1054:	79025001 	stmdbvc	r2, {r0, ip, lr}
    1058:	b41e0000 	ldrlt	r0, [lr], #-0
    105c:	17000087 	strne	r0, [r0, -r7, lsl #1]
    1060:	ca000010 	bgt	10a8 <__code_start__-0x6f58>
    1064:	1f00000d 	svcne	0x0000000d
    1068:	76025201 	strvc	r5, [r2], -r1, lsl #4
    106c:	51011f00 	tstpl	r1, r0, lsl #30
    1070:	1f007502 	svcne	0x00007502
    1074:	03055001 	movweq	r5, #20481	; 0x5001
    1078:	0000a098 	muleq	r0, r8, r0
    107c:	87c01e00 	strbhi	r1, [r0, r0, lsl #28]
    1080:	10170000 	andsne	r0, r7, r0
    1084:	0dde0000 	ldcleq	0, cr0, [lr]
    1088:	011f0000 	tsteq	pc, r0
    108c:	00790250 	rsbseq	r0, r9, r0, asr r2
    1090:	87cc2000 	strbhi	r2, [ip, r0]
    1094:	10170000 	andsne	r0, r7, r0
    1098:	011f0000 	tsteq	pc, r0
    109c:	00750251 	rsbseq	r0, r5, r1, asr r2
    10a0:	0550011f 	ldrbeq	r0, [r0, #-287]	; 0x11f
    10a4:	00a0c003 	adceq	ip, r0, r3
    10a8:	06000000 	streq	r0, [r0], -r0
    10ac:	00005a04 	andeq	r5, r0, r4, lsl #20
    10b0:	00a60800 	adceq	r0, r6, r0, lsl #16
    10b4:	0e0e0000 	cdpeq	0, 0, cr0, cr14, cr0, {0}
    10b8:	97090000 	strls	r0, [r9, -r0]
    10bc:	0e000000 	cdpeq	0, 0, cr0, cr0, cr0, {0}
    10c0:	0dfe0700 	ldcleq	7, cr0, [lr]
    10c4:	8f250000 	svchi	0x00250000
    10c8:	01000001 	tsteq	r0, r1
    10cc:	000227ce 	andeq	r2, r2, lr, asr #15
    10d0:	0087fc00 	addeq	pc, r7, r0, lsl #24
    10d4:	00005000 	andeq	r5, r0, r0
    10d8:	9e9c0100 	fmllse	f0, f4, f0
    10dc:	1900000e 	stmdbne	r0, {r1, r2, r3}
    10e0:	0000022d 	andeq	r0, r0, sp, lsr #4
    10e4:	0227cf01 	eoreq	ip, r7, #1, 30
    10e8:	54010000 	strpl	r0, [r1], #-0
    10ec:	00011022 	andeq	r1, r1, r2, lsr #32
    10f0:	000eae00 	andeq	sl, lr, r0, lsl #28
    10f4:	14030500 	strne	r0, [r3], #-1280	; 0x500
    10f8:	1e00009d 	mcrne	0, 0, r0, cr0, cr13, {4}
    10fc:	00008810 	andeq	r8, r0, r0, lsl r8
    1100:	0000052e 	andeq	r0, r0, lr, lsr #10
    1104:	00000e5c 	andeq	r0, r0, ip, asr lr
    1108:	0250011f 	subseq	r0, r0, #-1073741817	; 0xc0000007
    110c:	23000074 	movwcs	r0, #116	; 0x74
    1110:	0000881c 	andeq	r8, r0, ip, lsl r8
    1114:	0000106d 	andeq	r1, r0, sp, rrx
    1118:	0088301e 	addeq	r3, r8, lr, lsl r0
    111c:	00101700 	andseq	r1, r0, r0, lsl #14
    1120:	000e9400 	andeq	r9, lr, r0, lsl #8
    1124:	53011f00 	movwpl	r1, #7936	; 0x1f00
    1128:	1fd20802 	svcne	0x00d20802
    112c:	03055201 	movweq	r5, #20993	; 0x5201
    1130:	00009d14 	andeq	r9, r0, r4, lsl sp
    1134:	0551011f 	ldrbeq	r0, [r1, #-287]	; 0x11f
    1138:	009de403 	addseq	lr, sp, r3, lsl #8
    113c:	50011f00 	andpl	r1, r1, r0, lsl #30
    1140:	a0f00305 	rscsge	r0, r0, r5, lsl #6
    1144:	23000000 	movwcs	r0, #0
    1148:	00008834 	andeq	r8, r0, r4, lsr r8
    114c:	00001074 	andeq	r1, r0, r4, ror r0
    1150:	00a60800 	adceq	r0, r6, r0, lsl #16
    1154:	0eae0000 	cdpeq	0, 10, cr0, cr14, cr0, {0}
    1158:	97090000 	strls	r0, [r9, -r0]
    115c:	0c000000 	stceq	0, cr0, [r0], {-0}
    1160:	0e9e0700 	cdpeq	7, 9, cr0, cr14, cr0, {0}
    1164:	5f250000 	svcpl	0x00250000
    1168:	01000002 	tsteq	r0, r2
    116c:	000227d7 	ldrdeq	r2, [r2], -r7
    1170:	00884c00 	addeq	r4, r8, r0, lsl #24
    1174:	00009800 	andeq	r9, r0, r0, lsl #16
    1178:	a99c0100 	ldmibge	ip, {r8}
    117c:	1500000f 	strne	r0, [r0, #-15]
    1180:	d7010070 	smlsdxle	r1, r0, r0, r0
    1184:	00000227 	andeq	r0, r0, r7, lsr #4
    1188:	0000063b 	andeq	r0, r0, fp, lsr r6
    118c:	00026219 	andeq	r6, r2, r9, lsl r2
    1190:	27d80100 	ldrbcs	r0, [r8, r0, lsl #2]
    1194:	01000002 	tsteq	r0, r2
    1198:	01102254 	tsteq	r0, r4, asr r2
    119c:	0fb90000 	svceq	0x00b90000
    11a0:	03050000 	movweq	r0, #20480	; 0x5000
    11a4:	00009d24 	andeq	r9, r0, r4, lsr #26
    11a8:	0002971b 	andeq	r9, r2, fp, lsl r7
    11ac:	00885000 	addeq	r5, r8, r0
    11b0:	00001000 	andeq	r1, r0, r0
    11b4:	12d80100 	sbcsne	r0, r8, #0, 2
    11b8:	1c00000f 	stcne	0, cr0, [r0], {15}
    11bc:	000002a7 	andeq	r0, r0, r7, lsr #5
    11c0:	0000068e 	andeq	r0, r0, lr, lsl #13
    11c4:	887c2300 	ldmdahi	ip!, {r8, r9, sp}^
    11c8:	106d0000 	rsbne	r0, sp, r0
    11cc:	901e0000 	andsls	r0, lr, r0
    11d0:	17000088 	strne	r0, [r0, -r8, lsl #1]
    11d4:	4a000010 	bmi	121c <__code_start__-0x6de4>
    11d8:	1f00000f 	svcne	0x0000000f
    11dc:	08025301 	stmdaeq	r2, {r0, r8, r9, ip, lr}
    11e0:	52011fe1 	andpl	r1, r1, #900	; 0x384
    11e4:	9d240305 	stcls	3, cr0, [r4, #-20]!	; 0xffffffec
    11e8:	011f0000 	tsteq	pc, r0
    11ec:	e4030551 	str	r0, [r3], #-1361	; 0x551
    11f0:	1f00009d 	svcne	0x0000009d
    11f4:	03055001 	movweq	r5, #20481	; 0x5001
    11f8:	0000a114 	andeq	sl, r0, r4, lsl r1
    11fc:	88942300 	ldmhi	r4, {r8, r9, sp}
    1200:	10740000 	rsbsne	r0, r4, r0
    1204:	9c1e0000 	ldcls	0, cr0, [lr], {-0}
    1208:	2e000088 	cdpcs	0, 0, cr0, cr0, cr8, {4}
    120c:	67000005 	strvs	r0, [r0, -r5]
    1210:	1f00000f 	svcne	0x0000000f
    1214:	74025001 	strvc	r5, [r2], #-1
    1218:	a8230000 	stmdage	r3!, {}	; <UNPREDICTABLE>
    121c:	6d000088 	stcvs	0, cr0, [r0, #-544]	; 0xfffffde0
    1220:	1e000010 	mcrne	0, 0, r0, cr0, cr0, {0}
    1224:	000088bc 			; <UNDEFINED> instruction: 0x000088bc
    1228:	00001017 	andeq	r1, r0, r7, lsl r0
    122c:	00000f9f 	muleq	r0, pc, pc	; <UNPREDICTABLE>
    1230:	0253011f 	subseq	r0, r3, #-1073741817	; 0xc0000007
    1234:	011fe208 	tsteq	pc, r8, lsl #4
    1238:	24030552 	strcs	r0, [r3], #-1362	; 0x552
    123c:	1f00009d 	svcne	0x0000009d
    1240:	03055101 	movweq	r5, #20737	; 0x5101
    1244:	00009de4 	andeq	r9, r0, r4, ror #27
    1248:	0550011f 	ldrbeq	r0, [r0, #-287]	; 0x11f
    124c:	00a14003 	adceq	r4, r1, r3
    1250:	c0230000 	eorgt	r0, r3, r0
    1254:	74000088 	strvc	r0, [r0], #-136	; 0x88
    1258:	00000010 	andeq	r0, r0, r0, lsl r0
    125c:	0000a608 	andeq	sl, r0, r8, lsl #12
    1260:	000fb900 	andeq	fp, pc, r0, lsl #18
    1264:	00970900 	addseq	r0, r7, r0, lsl #18
    1268:	000b0000 	andeq	r0, fp, r0
    126c:	000fa907 	andeq	sl, pc, r7, lsl #18
    1270:	02c02700 	sbceq	r2, r0, #0, 14
    1274:	e6010000 	str	r0, [r1], -r0
    1278:	000001d0 	ldrdeq	r0, [r0], -r0	; <UNPREDICTABLE>
    127c:	000088e4 	andeq	r8, r0, r4, ror #17
    1280:	0000001c 	andeq	r0, r0, ip, lsl r0
    1284:	25199c01 	ldrcs	r9, [r9, #-3073]	; 0xc01
    1288:	01000004 	tsteq	r0, r4
    128c:	000df808 	andeq	pc, sp, r8, lsl #16
    1290:	4c030500 	cfstr32mi	mvfx0, [r3], {-0}
    1294:	190000a7 	stmdbne	r0, {r0, r1, r2, r5, r7}
    1298:	00000d6d 	andeq	r0, r0, sp, ror #26
    129c:	0df80801 	ldcleq	8, cr0, [r8, #4]!
    12a0:	03050000 	movweq	r0, #20480	; 0x5000
    12a4:	0000a750 	andeq	sl, r0, r0, asr r7
    12a8:	000d5a19 	andeq	r5, sp, r9, lsl sl
    12ac:	f8080100 			; <UNDEFINED> instruction: 0xf8080100
    12b0:	0500000d 	streq	r0, [r0, #-13]
    12b4:	00a74803 	adceq	r4, r7, r3, lsl #16
    12b8:	01e11900 	mvneq	r1, r0, lsl #18
    12bc:	0a010000 	beq	412c4 <__bss_end__+0x3674c>
    12c0:	000001d0 	ldrdeq	r0, [r0], -r0	; <UNPREDICTABLE>
    12c4:	a7540305 	ldrbge	r0, [r4, -r5, lsl #6]
    12c8:	0e280000 	cdpeq	0, 2, cr0, cr8, cr0, {0}
    12cc:	05000005 	streq	r0, [r0, #-5]
    12d0:	00002529 	andeq	r2, r0, r9, lsr #10
    12d4:	00102d00 	andseq	r2, r0, r0, lsl #26
    12d8:	00ad2900 	adceq	r2, sp, r0, lsl #18
    12dc:	002a0000 	eoreq	r0, sl, r0
    12e0:	00010928 	andeq	r0, r1, r8, lsr #18
    12e4:	9e1b0600 	cfmsub32ls	mvax0, mvfx0, mvfx11, mvfx0
    12e8:	4c000000 	stcmi	0, cr0, [r0], {-0}
    12ec:	29000010 	stmdbcs	r0, {r4}
    12f0:	0000009e 	muleq	r0, lr, r0
    12f4:	00002529 	andeq	r2, r0, r9, lsr #10
    12f8:	002c2900 	eoreq	r2, ip, r0, lsl #18
    12fc:	28000000 	stmdacs	r0, {}	; <UNPREDICTABLE>
    1300:	000001b1 			; <UNDEFINED> instruction: 0x000001b1
    1304:	007e0507 	rsbseq	r0, lr, r7, lsl #10
    1308:	10660000 	rsbne	r0, r6, r0
    130c:	66290000 	strtvs	r0, [r9], -r0
    1310:	29000010 	stmdbcs	r0, {r4}
    1314:	00000025 	andeq	r0, r0, r5, lsr #32
    1318:	6c040600 	stcvs	6, cr0, [r4], {-0}
    131c:	2b000010 	blcs	1364 <__code_start__-0x6c9c>
    1320:	00021e2c 	andeq	r1, r2, ip, lsr #28
    1324:	2c1e0500 	cfldr32cs	mvfx0, [lr], {-0}
    1328:	0000026b 	andeq	r0, r0, fp, ror #4
    132c:	6d006505 	cfstr32vs	mvfx6, [r0, #-20]	; 0xffffffec
    1330:	0400000d 	streq	r0, [r0], #-13
    1334:	0003e400 	andeq	lr, r3, r0, lsl #8
    1338:	5f010400 	svcpl	0x00010400
    133c:	01000000 	mrseq	r0, (UNDEF: 0)
    1340:	00000461 	andeq	r0, r0, r1, ror #8
    1344:	0000000f 	andeq	r0, r0, pc
    1348:	00008900 	andeq	r8, r0, r0, lsl #18
    134c:	0000068c 	andeq	r0, r0, ip, lsl #13
    1350:	0000047e 	andeq	r0, r0, lr, ror r4
    1354:	69050402 	stmdbvs	r5, {r1, sl}
    1358:	0300746e 	movweq	r7, #1134	; 0x46e
    135c:	01340704 	teqeq	r4, r4, lsl #14
    1360:	01030000 	mrseq	r0, (UNDEF: 3)
    1364:	0000e206 	andeq	lr, r0, r6, lsl #4
    1368:	05020300 	streq	r0, [r2, #-768]	; 0x300
    136c:	00000158 	andeq	r0, r0, r8, asr r1
    1370:	4f050403 	svcmi	0x00050403
    1374:	03000001 	movweq	r0, #1
    1378:	014a0508 	cmpeq	sl, r8, lsl #10
    137c:	01030000 	mrseq	r0, (UNDEF: 3)
    1380:	0000e008 	andeq	lr, r0, r8
    1384:	01e90400 	mvneq	r0, r0, lsl #8
    1388:	31020000 	mrscc	r0, (UNDEF: 2)
    138c:	00000061 	andeq	r0, r0, r1, rrx
    1390:	ee070203 	cdp	2, 0, cr0, cr7, cr3, {0}
    1394:	04000000 	streq	r0, [r0], #-0
    1398:	00000162 	andeq	r0, r0, r2, ror #2
    139c:	00733402 	rsbseq	r3, r3, r2, lsl #8
    13a0:	04030000 	streq	r0, [r3], #-0
    13a4:	00012f07 	andeq	r2, r1, r7, lsl #30
    13a8:	07080300 	streq	r0, [r8, -r0, lsl #6]
    13ac:	0000012a 	andeq	r0, r0, sl, lsr #2
    13b0:	41070403 	tstmi	r7, r3, lsl #8
    13b4:	05000001 	streq	r0, [r0, #-1]
    13b8:	08010304 	stmdaeq	r1, {r2, r8, r9}
    13bc:	000000e9 	andeq	r0, r0, r9, ror #1
    13c0:	00970406 	addseq	r0, r7, r6, lsl #8
    13c4:	8a070000 	bhi	1c13cc <__bss_end__+0x1b6854>
    13c8:	08000000 	stmdaeq	r0, {}	; <UNPREDICTABLE>
    13cc:	b1270301 	teqlt	r7, r1, lsl #6
    13d0:	09000000 	stmdbeq	r0, {}	; <UNPREDICTABLE>
    13d4:	000001cb 	andeq	r0, r0, fp, asr #3
    13d8:	01c5090b 	biceq	r0, r5, fp, lsl #18
    13dc:	000c0000 	andeq	r0, ip, r0
    13e0:	29030c0a 	stmdbcs	r3, {r1, r3, sl, fp}
    13e4:	000000de 	ldrdeq	r0, [r0], -lr
    13e8:	0008ef0b 	andeq	lr, r8, fp, lsl #30
    13ec:	912a0300 	teqls	sl, r0, lsl #6
    13f0:	00000000 	andeq	r0, r0, r0
    13f4:	000bb90b 	andeq	fp, fp, fp, lsl #18
    13f8:	912b0300 	teqls	fp, r0, lsl #6
    13fc:	04000000 	streq	r0, [r0], #-0
    1400:	00033d0b 	andeq	r3, r3, fp, lsl #26
    1404:	2c2c0300 	stccs	3, cr0, [ip], #-0
    1408:	08000000 	stmdaeq	r0, {}	; <UNPREDICTABLE>
    140c:	02ca0400 	sbceq	r0, sl, #0, 8
    1410:	2d030000 	stccs	0, cr0, [r3, #-0]
    1414:	000000b1 	strheq	r0, [r0], -r1
    1418:	0003960c 	andeq	r9, r3, ip, lsl #12
    141c:	30033800 	andcc	r3, r3, r0, lsl #16
    1420:	0000016e 	andeq	r0, r0, lr, ror #2
    1424:	00029e0b 	andeq	r9, r2, fp, lsl #28
    1428:	68310300 	ldmdavs	r1!, {r8, r9}
    142c:	00000000 	andeq	r0, r0, r0
    1430:	00037c0b 	andeq	r7, r3, fp, lsl #24
    1434:	68320300 	ldmdavs	r2!, {r8, r9}
    1438:	04000000 	streq	r0, [r0], #-0
    143c:	00077a0b 	andeq	r7, r7, fp, lsl #20
    1440:	68330300 	ldmdavs	r3!, {r8, r9}
    1444:	08000000 	stmdaeq	r0, {}	; <UNPREDICTABLE>
    1448:	0002980b 	andeq	r9, r2, fp, lsl #16
    144c:	68370300 	ldmdavs	r7!, {r8, r9}
    1450:	0c000000 	stceq	0, cr0, [r0], {-0}
    1454:	0002780b 	andeq	r7, r2, fp, lsl #16
    1458:	de390300 	cdple	3, 3, cr0, cr9, cr0, {0}
    145c:	10000000 	andne	r0, r0, r0
    1460:	0002ab0b 	andeq	sl, r2, fp, lsl #22
    1464:	de3a0300 	cdple	3, 3, cr0, cr10, cr0, {0}
    1468:	1c000000 	stcne	0, cr0, [r0], {-0}
    146c:	0003710b 	andeq	r7, r3, fp, lsl #2
    1470:	683e0300 	ldmdavs	lr!, {r8, r9}
    1474:	28000000 	stmdacs	r0, {}	; <UNPREDICTABLE>
    1478:	0003160b 	andeq	r1, r3, fp, lsl #12
    147c:	683f0300 	ldmdavs	pc!, {r8, r9}	; <UNPREDICTABLE>
    1480:	2c000000 	stccs	0, cr0, [r0], {-0}
    1484:	00019c0b 	andeq	r9, r1, fp, lsl #24
    1488:	6e420300 	cdpvs	3, 4, cr0, cr2, cr0, {0}
    148c:	30000001 	andcc	r0, r0, r1
    1490:	0001a50b 	andeq	sl, r1, fp, lsl #10
    1494:	56450300 	strbpl	r0, [r5], -r0, lsl #6
    1498:	34000000 	strcc	r0, [r0], #-0
    149c:	e9040600 	stmdb	r4, {r9, sl}
    14a0:	04000000 	streq	r0, [r0], #-0
    14a4:	00000367 	andeq	r0, r0, r7, ror #6
    14a8:	00e94603 	rsceq	r4, r9, r3, lsl #12
    14ac:	02080000 	andeq	r0, r8, #0
    14b0:	01a44903 			; <UNDEFINED> instruction: 0x01a44903
    14b4:	00090000 	andeq	r0, r9, r0
    14b8:	fe000003 	cdp2	0, 0, cr0, cr0, cr3, {0}
    14bc:	028c0901 	addeq	r0, ip, #16384	; 0x4000
    14c0:	01800000 	orreq	r0, r0, r0
    14c4:	00021109 	andeq	r1, r2, r9, lsl #2
    14c8:	0901b800 	stmdbeq	r1, {fp, ip, sp, pc}
    14cc:	000001f2 	strdeq	r0, [r0], -r2
    14d0:	0c0002b8 	sfmeq	f0, 4, [r0], {184}	; 0xb8
    14d4:	000002c0 	andeq	r0, r0, r0, asr #5
    14d8:	e19b0310 	orrs	r0, fp, r0, lsl r3
    14dc:	0b000001 	bleq	14e8 <__code_start__-0x6b18>
    14e0:	00000d5a 	andeq	r0, r0, sl, asr sp
    14e4:	00889d03 	addeq	r9, r8, r3, lsl #26
    14e8:	0b000000 	bleq	14f0 <__code_start__-0x6b10>
    14ec:	00000d6d 	andeq	r0, r0, sp, ror #26
    14f0:	00889f03 	addeq	r9, r8, r3, lsl #30
    14f4:	0b040000 	bleq	1014fc <__bss_end__+0xf6984>
    14f8:	00000182 	andeq	r0, r0, r2, lsl #3
    14fc:	002ca203 	eoreq	sl, ip, r3, lsl #4
    1500:	0b080000 	bleq	201508 <__bss_end__+0x1f6990>
    1504:	00000322 	andeq	r0, r0, r2, lsr #6
    1508:	002ca403 	eoreq	sl, ip, r3, lsl #8
    150c:	000c0000 	andeq	r0, ip, r0
    1510:	0001bb0d 	andeq	fp, r1, sp, lsl #22
    1514:	88570300 	ldmdahi	r7, {r8, r9}^
    1518:	03000000 	movweq	r0, #0
    151c:	000001fb 	strdeq	r0, [r0], -fp
    1520:	0300680e 	movweq	r6, #2062	; 0x80e
    1524:	0001fb57 	andeq	pc, r1, r7, asr fp	; <UNPREDICTABLE>
    1528:	04060000 	streq	r0, [r6], #-0
    152c:	00000174 	andeq	r0, r0, r4, ror r1
    1530:	0002b40d 	andeq	fp, r2, sp, lsl #8
    1534:	88590300 	ldmdahi	r9, {r8, r9}^
    1538:	03000000 	movweq	r0, #0
    153c:	0000021b 	andeq	r0, r0, fp, lsl r2
    1540:	0300680e 	movweq	r6, #2062	; 0x80e
    1544:	0001fb59 	andeq	pc, r1, r9, asr fp	; <UNPREDICTABLE>
    1548:	220f0000 	andcs	r0, pc, #0
    154c:	01000004 	tsteq	r0, r4
    1550:	0000251c 	andeq	r2, r0, ip, lsl r5
    1554:	00890000 	addeq	r0, r9, r0
    1558:	00003c00 	andeq	r3, r0, r0, lsl #24
    155c:	429c0100 	addsmi	r0, ip, #0, 2
    1560:	10000002 	andne	r0, r0, r2
    1564:	1c010070 	stcne	0, cr0, [r1], {112}	; 0x70
    1568:	00000088 	andeq	r0, r0, r8, lsl #1
    156c:	000006e1 	andeq	r0, r0, r1, ror #13
    1570:	047f0f00 	ldrbteq	r0, [pc], #-3840	; 1578 <__code_start__-0x6a88>
    1574:	33010000 	movwcc	r0, #4096	; 0x1000
    1578:	000001fb 	strdeq	r0, [r0], -fp
    157c:	0000893c 	andeq	r8, r0, ip, lsr r9
    1580:	00000078 	andeq	r0, r0, r8, ror r0
    1584:	02ad9c01 	adceq	r9, sp, #256	; 0x100
    1588:	ac110000 	ldcge	0, cr0, [r1], {-0}
    158c:	01000001 	tsteq	r0, r1
    1590:	00006833 	andeq	r6, r0, r3, lsr r8
    1594:	00073400 	andeq	r3, r7, r0, lsl #8
    1598:	00701200 	rsbseq	r1, r0, r0, lsl #4
    159c:	00883401 	addeq	r3, r8, r1, lsl #8
    15a0:	07520000 	ldrbeq	r0, [r2, -r0]
    15a4:	2d130000 	ldccs	0, cr0, [r3, #-0]
    15a8:	01000002 	tsteq	r0, r2
    15ac:	0001fb39 	andeq	pc, r1, r9, lsr fp	; <UNPREDICTABLE>
    15b0:	00077000 	andeq	r7, r7, r0
    15b4:	89481400 	stmdbhi	r8, {sl, ip}^
    15b8:	021b0000 	andseq	r0, fp, #0
    15bc:	029a0000 	addseq	r0, sl, #0
    15c0:	01150000 	tsteq	r5, r0
    15c4:	00740250 	rsbseq	r0, r4, r0, asr r2
    15c8:	89541600 	ldmdbhi	r4, {r9, sl, ip}^
    15cc:	0ce40000 	stcleq	0, cr0, [r4]
    15d0:	a0160000 	andsge	r0, r6, r0
    15d4:	ef000089 	svc	0x00000089
    15d8:	0000000c 	andeq	r0, r0, ip
    15dc:	0004170f 	andeq	r1, r4, pc, lsl #14
    15e0:	2c7e0100 	ldfcse	f0, [lr], #-0
    15e4:	b4000000 	strlt	r0, [r0], #-0
    15e8:	34000089 	strcc	r0, [r0], #-137	; 0x89
    15ec:	01000001 	tsteq	r0, r1
    15f0:	0004649c 	muleq	r4, ip, r4
    15f4:	03a71100 			; <UNDEFINED> instruction: 0x03a71100
    15f8:	7e010000 	cdpvc	0, 0, cr0, cr1, cr0, {0}
    15fc:	00000025 	andeq	r0, r0, r5, lsr #32
    1600:	0000078e 	andeq	r0, r0, lr, lsl #15
    1604:	00048613 	andeq	r8, r4, r3, lsl r6
    1608:	2c7f0100 	ldfcse	f0, [pc], #-0	; 1610 <__code_start__-0x69f0>
    160c:	ac000000 	stcge	0, cr0, [r0], {-0}
    1610:	13000007 	movwne	r0, #7
    1614:	000003e2 	andeq	r0, r0, r2, ror #7
    1618:	002c7f01 	eoreq	r7, ip, r1, lsl #30
    161c:	07cb0000 	strbeq	r0, [fp, r0]
    1620:	dc130000 	ldcle	0, cr0, [r3], {-0}
    1624:	01000003 	tsteq	r0, r3
    1628:	00002c7f 	andeq	r2, r0, pc, ror ip
    162c:	0007ea00 	andeq	lr, r7, r0, lsl #20
    1630:	022d1300 	eoreq	r1, sp, #0, 6
    1634:	83010000 	movwhi	r0, #4096	; 0x1000
    1638:	000001fb 	strdeq	r0, [r0], -fp
    163c:	00000809 	andeq	r0, r0, r9, lsl #16
    1640:	0089c414 	addeq	ip, r9, r4, lsl r4
    1644:	000d0400 	andeq	r0, sp, r0, lsl #8
    1648:	00032800 	andeq	r2, r3, r0, lsl #16
    164c:	50011500 	andpl	r1, r1, r0, lsl #10
    1650:	a1b80305 			; <UNDEFINED> instruction: 0xa1b80305
    1654:	14000000 	strne	r0, [r0], #-0
    1658:	000089cc 	andeq	r8, r0, ip, asr #19
    165c:	00000d04 	andeq	r0, r0, r4, lsl #26
    1660:	0000033f 	andeq	r0, r0, pc, lsr r3
    1664:	05500115 	ldrbeq	r0, [r0, #-277]	; 0x115
    1668:	00a1f403 	adceq	pc, r1, r3, lsl #8
    166c:	d0160000 	andsle	r0, r6, r0
    1670:	e4000089 	str	r0, [r0], #-137	; 0x89
    1674:	1400000c 	strne	r0, [r0], #-12
    1678:	00008a10 	andeq	r8, r0, r0, lsl sl
    167c:	00000d04 	andeq	r0, r0, r4, lsl #26
    1680:	0000035c 	andeq	r0, r0, ip, asr r3
    1684:	02500115 	subseq	r0, r0, #1073741829	; 0x40000005
    1688:	1400007a 	strne	r0, [r0], #-122	; 0x7a
    168c:	00008a1c 	andeq	r8, r0, ip, lsl sl
    1690:	00000d04 	andeq	r0, r0, r4, lsl #26
    1694:	00000377 	andeq	r0, r0, r7, ror r3
    1698:	03510115 	cmpeq	r1, #1073741829	; 0x40000005
    169c:	1501b874 	strne	fp, [r1, #-2164]	; 0x874
    16a0:	7b025001 	blvc	956ac <__bss_end__+0x8ab34>
    16a4:	44140000 	ldrmi	r0, [r4], #-0
    16a8:	0400008a 	streq	r0, [r0], #-138	; 0x8a
    16ac:	8b00000d 	blhi	16e8 <__code_start__-0x6918>
    16b0:	15000003 	strne	r0, [r0, #-3]
    16b4:	7a025001 	bvc	956c0 <__bss_end__+0x8ab48>
    16b8:	50140000 	andspl	r0, r4, r0
    16bc:	0400008a 	streq	r0, [r0], #-138	; 0x8a
    16c0:	a900000d 	stmdbge	r0, {r0, r2, r3}
    16c4:	15000003 	strne	r0, [r0, #-3]
    16c8:	74035101 	strvc	r5, [r3], #-257	; 0x101
    16cc:	011501b8 			; <UNDEFINED> instruction: 0x011501b8
    16d0:	2c030550 	cfstr32cs	mvfx0, [r3], {80}	; 0x50
    16d4:	000000a2 	andeq	r0, r0, r2, lsr #1
    16d8:	008a6014 	addeq	r6, sl, r4, lsl r0
    16dc:	000cef00 	andeq	lr, ip, r0, lsl #30
    16e0:	0003bd00 	andeq	fp, r3, r0, lsl #26
    16e4:	50011500 	andpl	r1, r1, r0, lsl #10
    16e8:	00007402 	andeq	r7, r0, r2, lsl #8
    16ec:	008a7414 	addeq	r7, sl, r4, lsl r4
    16f0:	000d0400 	andeq	r0, sp, r0, lsl #8
    16f4:	0003d100 	andeq	sp, r3, r0, lsl #2
    16f8:	50011500 	andpl	r1, r1, r0, lsl #10
    16fc:	00007a02 	andeq	r7, r0, r2, lsl #20
    1700:	008a8014 	addeq	r8, sl, r4, lsl r0
    1704:	000d0400 	andeq	r0, sp, r0, lsl #8
    1708:	0003ee00 	andeq	lr, r3, r0, lsl #28
    170c:	51011500 	tstpl	r1, r0, lsl #10
    1710:	15007502 	strne	r7, [r0, #-1282]	; 0x502
    1714:	03055001 	movweq	r5, #20481	; 0x5001
    1718:	0000a264 	andeq	sl, r0, r4, ror #4
    171c:	8a901400 	bhi	fe406724 <__bss_end__+0xfe3fbbac>
    1720:	0d040000 	stceq	0, cr0, [r4, #-0]
    1724:	04020000 	streq	r0, [r2], #-0
    1728:	01150000 	tsteq	r5, r0
    172c:	007a0250 	rsbseq	r0, sl, r0, asr r2
    1730:	8a981400 	bhi	fe606738 <__bss_end__+0xfe5fbbc0>
    1734:	0d040000 	stceq	0, cr0, [r4, #-0]
    1738:	04190000 	ldreq	r0, [r9], #-0
    173c:	01150000 	tsteq	r5, r0
    1740:	7c030550 	cfstr32vc	mvfx0, [r3], {80}	; 0x50
    1744:	000000a2 	andeq	r0, r0, r2, lsr #1
    1748:	008aa414 	addeq	sl, sl, r4, lsl r4
    174c:	000d0400 	andeq	r0, sp, r0, lsl #8
    1750:	00042d00 	andeq	r2, r4, r0, lsl #26
    1754:	50011500 	andpl	r1, r1, r0, lsl #10
    1758:	00007a02 	andeq	r7, r0, r2, lsl #20
    175c:	008ab414 	addeq	fp, sl, r4, lsl r4
    1760:	000d0400 	andeq	r0, sp, r0, lsl #8
    1764:	00045000 	andeq	r5, r4, r0
    1768:	52011500 	andpl	r1, r1, #0, 10
    176c:	15007602 	strne	r7, [r0, #-1538]	; 0x602
    1770:	77025101 	strvc	r5, [r2, -r1, lsl #2]
    1774:	50011500 	andpl	r1, r1, r0, lsl #10
    1778:	a29c0305 	addsge	r0, ip, #335544320	; 0x14000000
    177c:	17000000 	strne	r0, [r0, -r0]
    1780:	00008abc 			; <UNDEFINED> instruction: 0x00008abc
    1784:	00000d04 	andeq	r0, r0, r4, lsl #26
    1788:	05500115 	ldrbeq	r0, [r0, #-277]	; 0x115
    178c:	00a2c803 	adceq	ip, r2, r3, lsl #16
    1790:	18000000 	stmdane	r0, {}	; <UNPREDICTABLE>
    1794:	000001a5 	andeq	r0, r0, r5, lsr #3
    1798:	8ae85a01 	bhi	ffa17fa4 <__bss_end__+0xffa0d42c>
    179c:	00f80000 	rscseq	r0, r8, r0
    17a0:	9c010000 	stcls	0, cr0, [r1], {-0}
    17a4:	000005a1 	andeq	r0, r0, r1, lsr #11
    17a8:	01007010 	tsteq	r0, r0, lsl r0
    17ac:	0005a15a 	andeq	sl, r5, sl, asr r1
    17b0:	00085300 	andeq	r5, r8, r0, lsl #6
    17b4:	00651000 	rsbeq	r1, r5, r0
    17b8:	05a15a01 	streq	r5, [r1, #2561]!	; 0xa01
    17bc:	08c40000 	stmiaeq	r4, {}^	; <UNPREDICTABLE>
    17c0:	10190000 	andsne	r0, r9, r0
    17c4:	b7000001 	strlt	r0, [r0, -r1]
    17c8:	05000005 	streq	r0, [r0, #-5]
    17cc:	00a16403 	adceq	r6, r1, r3, lsl #8
    17d0:	6e651a00 	vmulvs.f32	s3, s10, s0
    17d4:	60010064 	andvs	r0, r1, r4, rrx
    17d8:	00000068 	andeq	r0, r0, r8, rrx
    17dc:	00042a13 	andeq	r2, r4, r3, lsl sl
    17e0:	a1610100 	cmnge	r1, r0, lsl #2
    17e4:	24000005 	strcs	r0, [r0], #-5
    17e8:	13000009 	movwne	r0, #9
    17ec:	0000022d 	andeq	r0, r0, sp, lsr #4
    17f0:	01fb6201 	mvnseq	r6, r1, lsl #4
    17f4:	09420000 	stmdbeq	r2, {}^	; <UNPREDICTABLE>
    17f8:	00160000 	andseq	r0, r6, r0
    17fc:	1a00008b 	bne	1a30 <__code_start__-0x65d0>
    1800:	1400000d 	strne	r0, [r0], #-13
    1804:	00008b14 	andeq	r8, r0, r4, lsl fp
    1808:	00000d04 	andeq	r0, r0, r4, lsl #26
    180c:	00000503 	andeq	r0, r0, r3, lsl #10
    1810:	02530115 	subseq	r0, r3, #1073741829	; 0x40000005
    1814:	01155b08 	tsteq	r5, r8, lsl #22
    1818:	64030552 	strvs	r0, [r3], #-1362	; 0x552
    181c:	150000a1 	strne	r0, [r0, #-161]	; 0xa1
    1820:	03055101 	movweq	r5, #20737	; 0x5101
    1824:	0000a318 	andeq	sl, r0, r8, lsl r3
    1828:	05500115 	ldrbeq	r0, [r0, #-277]	; 0x115
    182c:	00a30403 	adceq	r0, r3, r3, lsl #8
    1830:	18160000 	ldmdane	r6, {}	; <UNPREDICTABLE>
    1834:	2100008b 	smlabbcs	r0, fp, r0, r0
    1838:	1600000d 	strne	r0, [r0], -sp
    183c:	00008b24 	andeq	r8, r0, r4, lsr #22
    1840:	00000d1a 	andeq	r0, r0, sl, lsl sp
    1844:	008b3814 	addeq	r3, fp, r4, lsl r8
    1848:	000d0400 	andeq	r0, sp, r0, lsl #8
    184c:	00054400 	andeq	r4, r5, r0, lsl #8
    1850:	53011500 	movwpl	r1, #5376	; 0x1500
    1854:	155d0802 	ldrbne	r0, [sp, #-2050]	; 0x802
    1858:	03055201 	movweq	r5, #20993	; 0x5201
    185c:	0000a164 	andeq	sl, r0, r4, ror #2
    1860:	05510115 	ldrbeq	r0, [r1, #-277]	; 0x115
    1864:	00a31803 	adceq	r1, r3, r3, lsl #16
    1868:	50011500 	andpl	r1, r1, r0, lsl #10
    186c:	a3200305 	teqge	r0, #335544320	; 0x14000000
    1870:	16000000 	strne	r0, [r0], -r0
    1874:	00008b3c 	andeq	r8, r0, ip, lsr fp
    1878:	00000d21 	andeq	r0, r0, r1, lsr #26
    187c:	008b4816 	addeq	r4, fp, r6, lsl r8
    1880:	000d1a00 	andeq	r1, sp, r0, lsl #20
    1884:	8b5c1400 	blhi	170688c <__bss_end__+0x16fbd14>
    1888:	0d040000 	stceq	0, cr0, [r4, #-0]
    188c:	05850000 	streq	r0, [r5]
    1890:	01150000 	tsteq	r5, r0
    1894:	5e080253 	mcrpl	2, 0, r0, cr8, cr3, {2}
    1898:	05520115 	ldrbeq	r0, [r2, #-277]	; 0x115
    189c:	00a16403 	adceq	r6, r1, r3, lsl #8
    18a0:	51011500 	tstpl	r1, r0, lsl #10
    18a4:	a3180305 	tstge	r8, #335544320	; 0x14000000
    18a8:	01150000 	tsteq	r5, r0
    18ac:	40030550 	andmi	r0, r3, r0, asr r5
    18b0:	000000a3 	andeq	r0, r0, r3, lsr #1
    18b4:	008b6016 	addeq	r6, fp, r6, lsl r0
    18b8:	000d2100 	andeq	r2, sp, r0, lsl #2
    18bc:	8b681600 	blhi	1a070c4 <__bss_end__+0x19fc54c>
    18c0:	02420000 	subeq	r0, r2, #0
    18c4:	b4160000 	ldrlt	r0, [r6], #-0
    18c8:	6400008b 	strvs	r0, [r0], #-139	; 0x8b
    18cc:	00000004 	andeq	r0, r0, r4
    18d0:	00680406 	rsbeq	r0, r8, r6, lsl #8
    18d4:	8a1b0000 	bhi	6c18dc <__bss_end__+0x6b6d64>
    18d8:	b7000000 	strlt	r0, [r0, -r0]
    18dc:	1c000005 	stcne	0, cr0, [r0], {5}
    18e0:	00000081 	andeq	r0, r0, r1, lsl #1
    18e4:	a7070004 	strge	r0, [r7, -r4]
    18e8:	18000005 	stmdane	r0, {r0, r2}
    18ec:	00000476 	andeq	r0, r0, r6, ror r4
    18f0:	8be0ca01 	blhi	ff8340fc <__bss_end__+0xff829584>
    18f4:	00f40000 	rscseq	r0, r4, r0
    18f8:	9c010000 	stcls	0, cr0, [r1], {-0}
    18fc:	00000726 	andeq	r0, r0, r6, lsr #14
    1900:	0100691d 	tsteq	r0, sp, lsl r9
    1904:	0001a4d3 	ldrdeq	sl, [r1], -r3
    1908:	68910200 	ldmvs	r1, {r9}
    190c:	0004551e 	andeq	r5, r4, lr, lsl r5
    1910:	26dc0100 	ldrbcs	r0, [ip], r0, lsl #2
    1914:	03000007 	movweq	r0, #7
    1918:	197fa891 	ldmdbne	pc!, {r0, r4, r7, fp, sp, pc}^	; <UNPREDICTABLE>
    191c:	00000110 	andeq	r0, r0, r0, lsl r1
    1920:	00000746 	andeq	r0, r0, r6, asr #14
    1924:	a16c0305 	cmnge	ip, r5, lsl #6
    1928:	9d1f0000 	ldcls	0, cr0, [pc, #-0]	; 1930 <__code_start__-0x66d0>
    192c:	01000003 	tsteq	r0, r3
    1930:	0005a1ec 	andeq	sl, r5, ip, ror #3
    1934:	00000000 	andeq	r0, r0, r0
    1938:	03fd2008 	mvnseq	r2, #8
    193c:	f0010000 			; <UNDEFINED> instruction: 0xf0010000
    1940:	00000068 	andeq	r0, r0, r8, rrx
    1944:	00040b20 	andeq	r0, r4, r0, lsr #22
    1948:	68f00100 	ldmvs	r0!, {r8}^
    194c:	20000000 	andcs	r0, r0, r0
    1950:	00000441 	andeq	r0, r0, r1, asr #8
    1954:	0068f301 	rsbeq	pc, r8, r1, lsl #6
    1958:	69200000 	stmdbvs	r0!, {}	; <UNPREDICTABLE>
    195c:	01000004 	tsteq	r0, r4
    1960:	000068f3 	strdeq	r6, [r0], -r3
    1964:	8be82100 	blhi	ffa09d6c <__bss_end__+0xff9ff1f4>
    1968:	00240000 	eoreq	r0, r4, r0
    196c:	06630000 	strbteq	r0, [r3], -r0
    1970:	68120000 	ldmdavs	r2, {}	; <UNPREDICTABLE>
    1974:	fbcd0100 	blx	ff341d7e <__bss_end__+0xff337206>
    1978:	60000001 	andvs	r0, r0, r1
    197c:	16000009 	strne	r0, [r0], -r9
    1980:	00008bec 	andeq	r8, r0, ip, ror #23
    1984:	00000ce4 	andeq	r0, r0, r4, ror #25
    1988:	008c0416 	addeq	r0, ip, r6, lsl r4
    198c:	000cef00 	andeq	lr, ip, r0, lsl #30
    1990:	50220000 	eorpl	r0, r2, r0
    1994:	7a000000 	bvc	199c <__code_start__-0x6664>
    1998:	12000006 	andne	r0, r0, #6
    199c:	e1010069 	tst	r1, r9, rrx
    19a0:	00000025 	andeq	r0, r0, r5, lsr #32
    19a4:	0000097e 	andeq	r0, r0, lr, ror r9
    19a8:	8c181400 	cfldrshi	mvf1, [r8], {-0}
    19ac:	0d280000 	stceq	0, cr0, [r8, #-0]
    19b0:	068e0000 	streq	r0, [lr], r0
    19b4:	01150000 	tsteq	r5, r0
    19b8:	00740250 	rsbseq	r0, r4, r0, asr r2
    19bc:	8c301400 	cfldrshi	mvf1, [r0], #-0
    19c0:	0d330000 	ldceq	0, cr0, [r3, #-0]
    19c4:	06a20000 	strteq	r0, [r2], r0
    19c8:	01150000 	tsteq	r5, r0
    19cc:	00740250 	rsbseq	r0, r4, r0, asr r2
    19d0:	8c401600 	mcrrhi	6, 0, r1, r0, cr0
    19d4:	0d1a0000 	ldceq	0, cr0, [sl, #-0]
    19d8:	54140000 	ldrpl	r0, [r4], #-0
    19dc:	0400008c 	streq	r0, [r0], #-140	; 0x8c
    19e0:	da00000d 	ble	1a1c <__code_start__-0x65e4>
    19e4:	15000006 	strne	r0, [r0, #-6]
    19e8:	08025301 	stmdaeq	r2, {r0, r8, r9, ip, lr}
    19ec:	520115df 	andpl	r1, r1, #935329792	; 0x37c00000
    19f0:	a16c0305 	cmnge	ip, r5, lsl #6
    19f4:	01150000 	tsteq	r5, r0
    19f8:	18030551 	stmdane	r3, {r0, r4, r6, r8, sl}
    19fc:	150000a3 	strne	r0, [r0, #-163]	; 0xa3
    1a00:	03055001 	movweq	r5, #20481	; 0x5001
    1a04:	0000a360 	andeq	sl, r0, r0, ror #6
    1a08:	8c581600 	mrrchi	6, 0, r1, r8, cr0
    1a0c:	0d210000 	stceq	0, cr0, [r1, #-0]
    1a10:	88140000 	ldmdahi	r4, {}	; <UNPREDICTABLE>
    1a14:	6400008c 	strvs	r0, [r0], #-140	; 0x8c
    1a18:	fe000004 	cdp2	0, 0, cr0, cr0, cr4, {0}
    1a1c:	15000006 	strne	r0, [r0, #-6]
    1a20:	91025101 	tstls	r2, r1, lsl #2
    1a24:	50011558 	andpl	r1, r1, r8, asr r5
    1a28:	7fb09103 	svcvc	0x00b09103
    1a2c:	8c941400 	cfldrshi	mvf1, [r4], {0}
    1a30:	04640000 	strbteq	r0, [r4], #-0
    1a34:	07130000 	ldreq	r0, [r3, -r0]
    1a38:	01150000 	tsteq	r5, r0
    1a3c:	47400351 	smlsldmi	r0, r0, r1, r3	; <UNPREDICTABLE>
    1a40:	a0160024 	andsge	r0, r6, r4, lsr #32
    1a44:	6400008c 	strvs	r0, [r0], #-140	; 0x8c
    1a48:	16000004 	strne	r0, [r0], -r4
    1a4c:	00008cac 	andeq	r8, r0, ip, lsr #25
    1a50:	00000464 	andeq	r0, r0, r4, ror #8
    1a54:	00681b00 	rsbeq	r1, r8, r0, lsl #22
    1a58:	07360000 	ldreq	r0, [r6, -r0]!
    1a5c:	811c0000 	tsthi	ip, r0
    1a60:	0f000000 	svceq	0x00000000
    1a64:	008a1b00 	addeq	r1, sl, r0, lsl #22
    1a68:	07460000 	strbeq	r0, [r6, -r0]
    1a6c:	811c0000 	tsthi	ip, r0
    1a70:	08000000 	stmdaeq	r0, {}	; <UNPREDICTABLE>
    1a74:	07360700 	ldreq	r0, [r6, -r0, lsl #14]!
    1a78:	d1230000 	teqle	r3, r0
    1a7c:	01000003 	tsteq	r0, r3
    1a80:	002c012d 	eoreq	r0, ip, sp, lsr #2
    1a84:	8cd40000 	ldclhi	0, cr0, [r4], {0}
    1a88:	01200000 	teqeq	r0, r0
    1a8c:	9c010000 	stcls	0, cr0, [r1], {-0}
    1a90:	00000918 	andeq	r0, r0, r8, lsl r9
    1a94:	00048624 	andeq	r8, r4, r4, lsr #12
    1a98:	012e0100 	teqeq	lr, r0, lsl #2
    1a9c:	0000002c 	andeq	r0, r0, ip, lsr #32
    1aa0:	0000099c 	muleq	r0, ip, r9
    1aa4:	00045a24 	andeq	r5, r4, r4, lsr #20
    1aa8:	012e0100 	teqeq	lr, r0, lsl #2
    1aac:	0000002c 	andeq	r0, r0, ip, lsr #32
    1ab0:	000009bb 			; <UNDEFINED> instruction: 0x000009bb
    1ab4:	00018224 	andeq	r8, r1, r4, lsr #4
    1ab8:	012e0100 	teqeq	lr, r0, lsl #2
    1abc:	0000002c 	andeq	r0, r0, ip, lsr #32
    1ac0:	000009da 	ldrdeq	r0, [r0], -sl
    1ac4:	00022d24 	andeq	r2, r2, r4, lsr #26
    1ac8:	01320100 	teqeq	r2, r0, lsl #2
    1acc:	000001fb 	strdeq	r0, [r0], -fp
    1ad0:	00000a04 	andeq	r0, r0, r4, lsl #20
    1ad4:	00011019 	andeq	r1, r1, r9, lsl r0
    1ad8:	00092800 	andeq	r2, r9, r0, lsl #16
    1adc:	78030500 	stmdavc	r3, {r8, sl}
    1ae0:	250000a1 	strcs	r0, [r0, #-161]	; 0xa1
    1ae4:	000002c5 	andeq	r0, r0, r5, asr #5
    1ae8:	a4014801 	strge	r4, [r1], #-2049	; 0x801
    1aec:	02000001 	andeq	r0, r0, #1
    1af0:	68224891 	stmdavs	r2!, {r0, r4, r7, fp, lr}
    1af4:	2f000000 	svccs	0x00000000
    1af8:	26000008 	strcs	r0, [r0], -r8
    1afc:	00727470 	rsbseq	r7, r2, r0, ror r4
    1b00:	88013801 	stmdahi	r1, {r0, fp, ip, sp}
    1b04:	01000000 	mrseq	r0, (UNDEF: 0)
    1b08:	8d401457 	cfstrdhi	mvd1, [r0, #-348]	; 0xfffffea4
    1b0c:	0d040000 	stceq	0, cr0, [r4, #-0]
    1b10:	07ee0000 	strbeq	r0, [lr, r0]!
    1b14:	01150000 	tsteq	r5, r0
    1b18:	007b0250 	rsbseq	r0, fp, r0, asr r2
    1b1c:	8d4c1400 	cfstrdhi	mvd1, [ip, #-0]
    1b20:	0d040000 	stceq	0, cr0, [r4, #-0]
    1b24:	08080000 	stmdaeq	r8, {}	; <UNPREDICTABLE>
    1b28:	01150000 	tsteq	r5, r0
    1b2c:	00770251 	rsbseq	r0, r7, r1, asr r2
    1b30:	02500115 	subseq	r0, r0, #1073741829	; 0x40000005
    1b34:	1700007a 	smlsdxne	r0, sl, r0, r0
    1b38:	00008d60 	andeq	r8, r0, r0, ror #26
    1b3c:	00000d45 	andeq	r0, r0, r5, asr #26
    1b40:	03530115 	cmpeq	r3, #1073741829	; 0x40000005
    1b44:	15013a0a 	strne	r3, [r1, #-2570]	; 0xa0a
    1b48:	03055201 	movweq	r5, #20993	; 0x5201
    1b4c:	0000a178 	andeq	sl, r0, r8, ror r1
    1b50:	02510115 	subseq	r0, r1, #1073741829	; 0x40000005
    1b54:	01150079 	tsteq	r5, r9, ror r0
    1b58:	00770250 	rsbseq	r0, r7, r0, asr r2
    1b5c:	e4140000 	ldr	r0, [r4], #-0
    1b60:	0400008c 	streq	r0, [r0], #-140	; 0x8c
    1b64:	4600000d 	strmi	r0, [r0], -sp
    1b68:	15000008 	strne	r0, [r0, #-8]
    1b6c:	03055001 	movweq	r5, #20481	; 0x5001
    1b70:	0000a1b8 			; <UNDEFINED> instruction: 0x0000a1b8
    1b74:	8cec1400 	cfstrdhi	mvd1, [ip]
    1b78:	0d040000 	stceq	0, cr0, [r4, #-0]
    1b7c:	085d0000 	ldmdaeq	sp, {}^	; <UNPREDICTABLE>
    1b80:	01150000 	tsteq	r5, r0
    1b84:	90030550 	andls	r0, r3, r0, asr r5
    1b88:	000000a3 	andeq	r0, r0, r3, lsr #1
    1b8c:	008cf016 	addeq	pc, ip, r6, lsl r0	; <UNPREDICTABLE>
    1b90:	000ce400 	andeq	lr, ip, r0, lsl #8
    1b94:	8d6c1400 	cfstrdhi	mvd1, [ip, #-0]
    1b98:	0cef0000 	stcleq	0, cr0, [pc]	; 1ba0 <__code_start__-0x6460>
    1b9c:	087a0000 	ldmdaeq	sl!, {}^	; <UNPREDICTABLE>
    1ba0:	01150000 	tsteq	r5, r0
    1ba4:	00740250 	rsbseq	r0, r4, r0, asr r2
    1ba8:	8d841400 	cfstrshi	mvf1, [r4]
    1bac:	0d040000 	stceq	0, cr0, [r4, #-0]
    1bb0:	088e0000 	stmeq	lr, {}	; <UNPREDICTABLE>
    1bb4:	01150000 	tsteq	r5, r0
    1bb8:	00740250 	rsbseq	r0, r4, r0, asr r2
    1bbc:	8d981400 	cfldrshi	mvf1, [r8]
    1bc0:	0d040000 	stceq	0, cr0, [r4, #-0]
    1bc4:	08b70000 	ldmeq	r7!, {}	; <UNPREDICTABLE>
    1bc8:	01150000 	tsteq	r5, r0
    1bcc:	00760253 	rsbseq	r0, r6, r3, asr r2
    1bd0:	02520115 	subseq	r0, r2, #1073741829	; 0x40000005
    1bd4:	01150078 	tsteq	r5, r8, ror r0
    1bd8:	00750251 	rsbseq	r0, r5, r1, asr r2
    1bdc:	05500115 	ldrbeq	r0, [r0, #-277]	; 0x115
    1be0:	00a3b403 	adceq	fp, r3, r3, lsl #8
    1be4:	a0140000 	andsge	r0, r4, r0
    1be8:	2800008d 	stmdacs	r0, {r0, r2, r3, r7}
    1bec:	cb00000d 	blgt	1c28 <__code_start__-0x63d8>
    1bf0:	15000008 	strne	r0, [r0, #-8]
    1bf4:	7d025001 	stcvc	0, cr5, [r2, #-4]
    1bf8:	a8140000 	ldmdage	r4, {}	; <UNPREDICTABLE>
    1bfc:	0400008d 	streq	r0, [r0], #-141	; 0x8d
    1c00:	df00000d 	svcle	0x0000000d
    1c04:	15000008 	strne	r0, [r0, #-8]
    1c08:	74025001 	strvc	r5, [r2], #-1
    1c0c:	b8140000 	ldmdalt	r4, {}	; <UNPREDICTABLE>
    1c10:	0400008d 	streq	r0, [r0], #-141	; 0x8d
    1c14:	0400000d 	streq	r0, [r0], #-13
    1c18:	15000009 	strne	r0, [r0, #-9]
    1c1c:	91035201 	tstls	r3, r1, lsl #4
    1c20:	01150648 	tsteq	r5, r8, asr #12
    1c24:	4c910351 	ldcmi	3, cr0, [r1], {81}	; 0x51
    1c28:	50011506 	andpl	r1, r1, r6, lsl #10
    1c2c:	a3e00305 	mvnge	r0, #335544320	; 0x14000000
    1c30:	17000000 	strne	r0, [r0, -r0]
    1c34:	00008dc0 	andeq	r8, r0, r0, asr #27
    1c38:	00000d04 	andeq	r0, r0, r4, lsl #26
    1c3c:	05500115 	ldrbeq	r0, [r0, #-277]	; 0x115
    1c40:	00a2c803 	adceq	ip, r2, r3, lsl #16
    1c44:	1b000000 	blne	1c4c <__code_start__-0x63b4>
    1c48:	0000008a 	andeq	r0, r0, sl, lsl #1
    1c4c:	00000928 	andeq	r0, r0, r8, lsr #18
    1c50:	0000811c 	andeq	r8, r0, ip, lsl r1
    1c54:	07000a00 	streq	r0, [r0, -r0, lsl #20]
    1c58:	00000918 	andeq	r0, r0, r8, lsl r9
    1c5c:	0003ef27 	andeq	lr, r3, r7, lsr #30
    1c60:	2cfd0100 	ldfcse	f0, [sp]
    1c64:	f4000000 	vst4.8	{d0-d3}, [r0], r0
    1c68:	1800008d 	stmdane	r0, {r0, r2, r3, r7}
    1c6c:	01000000 	mrseq	r0, (UNDEF: 0)
    1c70:	00096f9c 	muleq	r9, ip, pc	; <UNPREDICTABLE>
    1c74:	03a71100 			; <UNDEFINED> instruction: 0x03a71100
    1c78:	fd010000 	stc2	0, cr0, [r1, #-0]
    1c7c:	00000025 	andeq	r0, r0, r5, lsr #32
    1c80:	00000a2d 	andeq	r0, r0, sp, lsr #20
    1c84:	008e0016 	addeq	r0, lr, r6, lsl r0
    1c88:	0005bc00 	andeq	fp, r5, r0, lsl #24
    1c8c:	8e081700 	cdphi	7, 0, cr1, cr8, cr0, {0}
    1c90:	02ad0000 	adceq	r0, sp, #0
    1c94:	01150000 	tsteq	r5, r0
    1c98:	00740250 	rsbseq	r0, r4, r0, asr r2
    1c9c:	be280000 	cdplt	0, 2, cr0, cr8, cr0, {0}
    1ca0:	01000000 	mrseq	r0, (UNDEF: 0)
    1ca4:	8e0c0103 	adfhie	f0, f4, f3
    1ca8:	00a00000 	adceq	r0, r0, r0
    1cac:	9c010000 	stcls	0, cr0, [r1], {-0}
    1cb0:	00000a8d 	andeq	r0, r0, sp, lsl #21
    1cb4:	00011019 	andeq	r1, r1, r9, lsl r0
    1cb8:	000a9d00 	andeq	r9, sl, r0, lsl #26
    1cbc:	84030500 	strhi	r0, [r3], #-1280	; 0x500
    1cc0:	160000a1 	strne	r0, [r0], -r1, lsr #1
    1cc4:	00008e14 	andeq	r8, r0, r4, lsl lr
    1cc8:	00000d65 	andeq	r0, r0, r5, ror #26
    1ccc:	008e2016 	addeq	r2, lr, r6, lsl r0
    1cd0:	000d1a00 	andeq	r1, sp, r0, lsl #20
    1cd4:	8e341400 	cfabsshi	mvf1, mvf4
    1cd8:	0d040000 	stceq	0, cr0, [r4, #-0]
    1cdc:	09d60000 	ldmibeq	r6, {}^	; <UNPREDICTABLE>
    1ce0:	01150000 	tsteq	r5, r0
    1ce4:	090a0353 	stmdbeq	sl, {r0, r1, r4, r6, r8, r9}
    1ce8:	52011501 	andpl	r1, r1, #4194304	; 0x400000
    1cec:	a1840305 	orrge	r0, r4, r5, lsl #6
    1cf0:	01150000 	tsteq	r5, r0
    1cf4:	18030551 	stmdane	r3, {r0, r4, r6, r8, sl}
    1cf8:	150000a3 	strne	r0, [r0, #-163]	; 0xa3
    1cfc:	03055001 	movweq	r5, #20481	; 0x5001
    1d00:	0000a414 	andeq	sl, r0, r4, lsl r4
    1d04:	8e381600 	cfmsuba32hi	mvax0, mvax1, mvfx8, mvfx0
    1d08:	0d210000 	stceq	0, cr0, [r1, #-0]
    1d0c:	40140000 	andsmi	r0, r4, r0
    1d10:	0400008e 	streq	r0, [r0], #-142	; 0x8e
    1d14:	f600000d 			; <UNDEFINED> instruction: 0xf600000d
    1d18:	15000009 	strne	r0, [r0, #-9]
    1d1c:	03055001 	movweq	r5, #20481	; 0x5001
    1d20:	00009d30 	andeq	r9, r0, r0, lsr sp
    1d24:	8e481400 	cdphi	4, 4, cr1, cr8, cr0, {0}
    1d28:	0d040000 	stceq	0, cr0, [r4, #-0]
    1d2c:	0a0d0000 	beq	341d34 <__bss_end__+0x3371bc>
    1d30:	01150000 	tsteq	r5, r0
    1d34:	3c030550 	cfstr32cc	mvfx0, [r3], {80}	; 0x50
    1d38:	000000a4 	andeq	r0, r0, r4, lsr #1
    1d3c:	008e5014 	addeq	r5, lr, r4, lsl r0
    1d40:	00092d00 	andeq	r2, r9, r0, lsl #26
    1d44:	000a2000 	andeq	r2, sl, r0
    1d48:	50011500 	andpl	r1, r1, r0, lsl #10
    1d4c:	16003101 	strne	r3, [r0], -r1, lsl #2
    1d50:	00008e5c 	andeq	r8, r0, ip, asr lr
    1d54:	00000d1a 	andeq	r0, r0, sl, lsl sp
    1d58:	008e7014 	addeq	r7, lr, r4, lsl r0
    1d5c:	000d0400 	andeq	r0, sp, r0, lsl #8
    1d60:	000a5900 	andeq	r5, sl, r0, lsl #18
    1d64:	53011500 	movwpl	r1, #5376	; 0x1500
    1d68:	010d0a03 	tsteq	sp, r3, lsl #20
    1d6c:	05520115 	ldrbeq	r0, [r2, #-277]	; 0x115
    1d70:	00a18403 	adceq	r8, r1, r3, lsl #8
    1d74:	51011500 	tstpl	r1, r0, lsl #10
    1d78:	a3180305 	tstge	r8, #335544320	; 0x14000000
    1d7c:	01150000 	tsteq	r5, r0
    1d80:	5c030550 	cfstr32pl	mvfx0, [r3], {80}	; 0x50
    1d84:	000000a4 	andeq	r0, r0, r4, lsr #1
    1d88:	008e7416 	addeq	r7, lr, r6, lsl r4
    1d8c:	000d2100 	andeq	r2, sp, r0, lsl #2
    1d90:	8e7c1400 	cdphi	4, 7, cr1, cr12, cr0, {0}
    1d94:	0d040000 	stceq	0, cr0, [r4, #-0]
    1d98:	0a790000 	beq	1e41da0 <__bss_end__+0x1e37228>
    1d9c:	01150000 	tsteq	r5, r0
    1da0:	30030550 	andcc	r0, r3, r0, asr r5
    1da4:	0000009d 	muleq	r0, sp, r0
    1da8:	008e8417 	addeq	r8, lr, r7, lsl r4
    1dac:	000d0400 	andeq	r0, sp, r0, lsl #8
    1db0:	50011500 	andpl	r1, r1, r0, lsl #10
    1db4:	a4880305 	strge	r0, [r8], #773	; 0x305
    1db8:	00000000 	andeq	r0, r0, r0
    1dbc:	00008a1b 	andeq	r8, r0, fp, lsl sl
    1dc0:	000a9d00 	andeq	r9, sl, r0, lsl #26
    1dc4:	00811c00 	addeq	r1, r1, r0, lsl #24
    1dc8:	000d0000 	andeq	r0, sp, r0
    1dcc:	000a8d07 	andeq	r8, sl, r7, lsl #26
    1dd0:	042f2900 	strteq	r2, [pc], #-2304	; 1dd8 <__code_start__-0x6228>
    1dd4:	14010000 	strne	r0, [r1], #-0
    1dd8:	00002c01 	andeq	r2, r0, r1, lsl #24
    1ddc:	008eac00 	addeq	sl, lr, r0, lsl #24
    1de0:	0000a400 	andeq	sl, r0, r0, lsl #8
    1de4:	da9c0100 	ble	fe7021ec <__bss_end__+0xfe6f7674>
    1de8:	1900000b 	stmdbne	r0, {r0, r1, r3}
    1dec:	00000110 	andeq	r0, r0, r0, lsl r1
    1df0:	00000bea 	andeq	r0, r0, sl, ror #23
    1df4:	a1940305 	orrsge	r0, r4, r5, lsl #6
    1df8:	ca240000 	bgt	901e00 <__bss_end__+0x8f7288>
    1dfc:	01000003 	tsteq	r0, r3
    1e00:	002c011e 	eoreq	r0, ip, lr, lsl r1
    1e04:	0a4b0000 	beq	12c1e0c <__bss_end__+0x12b7294>
    1e08:	b4160000 	ldrlt	r0, [r6], #-0
    1e0c:	6500008e 	strvs	r0, [r0, #-142]	; 0x8e
    1e10:	1600000d 	strne	r0, [r0], -sp
    1e14:	00008ec0 	andeq	r8, r0, r0, asr #29
    1e18:	00000d1a 	andeq	r0, r0, sl, lsl sp
    1e1c:	008ed414 	addeq	sp, lr, r4, lsl r4
    1e20:	000d0400 	andeq	r0, sp, r0, lsl #8
    1e24:	000b1d00 	andeq	r1, fp, r0, lsl #26
    1e28:	53011500 	movwpl	r1, #5376	; 0x1500
    1e2c:	011a0a03 	tsteq	sl, r3, lsl #20
    1e30:	05520115 	ldrbeq	r0, [r2, #-277]	; 0x115
    1e34:	00a19403 	adceq	r9, r1, r3, lsl #8
    1e38:	51011500 	tstpl	r1, r0, lsl #10
    1e3c:	a3180305 	tstge	r8, #335544320	; 0x14000000
    1e40:	01150000 	tsteq	r5, r0
    1e44:	14030550 	strne	r0, [r3], #-1360	; 0x550
    1e48:	000000a4 	andeq	r0, r0, r4, lsr #1
    1e4c:	008ed816 	addeq	sp, lr, r6, lsl r8
    1e50:	000d2100 	andeq	r2, sp, r0, lsl #2
    1e54:	8ee01400 	cdphi	4, 14, cr1, cr0, cr0, {0}
    1e58:	0d040000 	stceq	0, cr0, [r4, #-0]
    1e5c:	0b3d0000 	bleq	f41e64 <__bss_end__+0xf372ec>
    1e60:	01150000 	tsteq	r5, r0
    1e64:	30030550 	andcc	r0, r3, r0, asr r5
    1e68:	0000009d 	muleq	r0, sp, r0
    1e6c:	008ee814 	addeq	lr, lr, r4, lsl r8
    1e70:	000d0400 	andeq	r0, sp, r0, lsl #8
    1e74:	000b5400 	andeq	r5, fp, r0, lsl #8
    1e78:	50011500 	andpl	r1, r1, r0, lsl #10
    1e7c:	a43c0305 	ldrtge	r0, [ip], #-773	; 0x305
    1e80:	14000000 	strne	r0, [r0], #-0
    1e84:	00008ef0 	strdeq	r8, [r0], -r0
    1e88:	0000092d 	andeq	r0, r0, sp, lsr #18
    1e8c:	00000b67 	andeq	r0, r0, r7, ror #22
    1e90:	01500115 	cmpeq	r0, r5, lsl r1
    1e94:	fc160031 	ldc2	0, cr0, [r6], {49}	; 0x31
    1e98:	1a00008e 	bne	20d8 <__code_start__-0x5f28>
    1e9c:	1400000d 	strne	r0, [r0], #-13
    1ea0:	00008f10 	andeq	r8, r0, r0, lsl pc
    1ea4:	00000d04 	andeq	r0, r0, r4, lsl #26
    1ea8:	00000ba0 	andeq	r0, r0, r0, lsr #23
    1eac:	03530115 	cmpeq	r3, #1073741829	; 0x40000005
    1eb0:	1501200a 	strne	r2, [r1, #-10]
    1eb4:	03055201 	movweq	r5, #20993	; 0x5201
    1eb8:	0000a194 	muleq	r0, r4, r1
    1ebc:	05510115 	ldrbeq	r0, [r1, #-277]	; 0x115
    1ec0:	00a31803 	adceq	r1, r3, r3, lsl #16
    1ec4:	50011500 	andpl	r1, r1, r0, lsl #10
    1ec8:	a4a00305 	strtge	r0, [r0], #773	; 0x305
    1ecc:	16000000 	strne	r0, [r0], -r0
    1ed0:	00008f14 	andeq	r8, r0, r4, lsl pc
    1ed4:	00000d21 	andeq	r0, r0, r1, lsr #26
    1ed8:	008f1c14 	addeq	r1, pc, r4, lsl ip	; <UNPREDICTABLE>
    1edc:	000d0400 	andeq	r0, sp, r0, lsl #8
    1ee0:	000bc000 	andeq	ip, fp, r0
    1ee4:	50011500 	andpl	r1, r1, r0, lsl #10
    1ee8:	9d300305 	ldcls	3, cr0, [r0, #-20]!	; 0xffffffec
    1eec:	17000000 	strne	r0, [r0, -r0]
    1ef0:	00008f28 	andeq	r8, r0, r8, lsr #30
    1ef4:	00000d04 	andeq	r0, r0, r4, lsl #26
    1ef8:	02510115 	subseq	r0, r1, #1073741829	; 0x40000005
    1efc:	01150074 	tsteq	r5, r4, ror r0
    1f00:	c8030550 	stmdagt	r3, {r4, r6, r8, sl}
    1f04:	000000a4 	andeq	r0, r0, r4, lsr #1
    1f08:	008a1b00 	addeq	r1, sl, r0, lsl #22
    1f0c:	0bea0000 	bleq	ffa81f14 <__bss_end__+0xffa7739c>
    1f10:	811c0000 	tsthi	ip, r0
    1f14:	11000000 	mrsne	r0, (UNDEF: 0)
    1f18:	0bda0700 	bleq	ff683b20 <__bss_end__+0xff678fa8>
    1f1c:	bb280000 	bllt	a01f24 <__bss_end__+0x9f73ac>
    1f20:	01000003 	tsteq	r0, r3
    1f24:	8f500127 	svchi	0x00500127
    1f28:	002c0000 	eoreq	r0, ip, r0
    1f2c:	9c010000 	stcls	0, cr0, [r1], {-0}
    1f30:	00000c57 	andeq	r0, r0, r7, asr ip
    1f34:	00011019 	andeq	r1, r1, r9, lsl r0
    1f38:	000c6700 	andeq	r6, ip, r0, lsl #14
    1f3c:	a8030500 	stmdage	r3, {r8, sl}
    1f40:	160000a1 	strne	r0, [r0], -r1, lsr #1
    1f44:	00008f58 	andeq	r8, r0, r8, asr pc
    1f48:	00000d1a 	andeq	r0, r0, sl, lsl sp
    1f4c:	008f6c14 	addeq	r6, pc, r4, lsl ip	; <UNPREDICTABLE>
    1f50:	000d0400 	andeq	r0, sp, r0, lsl #8
    1f54:	000c4d00 	andeq	r4, ip, r0, lsl #26
    1f58:	53011500 	movwpl	r1, #5376	; 0x1500
    1f5c:	01280a03 	teqeq	r8, r3, lsl #20
    1f60:	05520115 	ldrbeq	r0, [r2, #-277]	; 0x115
    1f64:	00a1a803 	adceq	sl, r1, r3, lsl #16
    1f68:	51011500 	tstpl	r1, r0, lsl #10
    1f6c:	a3180305 	tstge	r8, #335544320	; 0x14000000
    1f70:	01150000 	tsteq	r5, r0
    1f74:	e8030550 	stmda	r3, {r4, r6, r8, sl}
    1f78:	000000a4 	andeq	r0, r0, r4, lsr #1
    1f7c:	008f7016 	addeq	r7, pc, r6, lsl r0	; <UNPREDICTABLE>
    1f80:	000d2100 	andeq	r2, sp, r0, lsl #2
    1f84:	8a1b0000 	bhi	6c1f8c <__bss_end__+0x6b7414>
    1f88:	67000000 	strvs	r0, [r0, -r0]
    1f8c:	1c00000c 	stcne	0, cr0, [r0], {12}
    1f90:	00000081 	andeq	r0, r0, r1, lsl #1
    1f94:	5707000e 	strpl	r0, [r7, -lr]
    1f98:	2900000c 	stmdbcs	r0, {r2, r3}
    1f9c:	000003e9 	andeq	r0, r0, r9, ror #7
    1fa0:	2c014f01 	stccs	15, cr4, [r1], {1}
    1fa4:	7c000000 	stcvc	0, cr0, [r0], {-0}
    1fa8:	1000008f 	andne	r0, r0, pc, lsl #1
    1fac:	01000000 	mrseq	r0, (UNDEF: 0)
    1fb0:	000ca79c 	muleq	ip, ip, r7
    1fb4:	034a2500 	movteq	r2, #42240	; 0xa500
    1fb8:	51010000 	mrspl	r0, (UNDEF: 1)
    1fbc:	00002c01 	andeq	r2, r0, r1, lsl #24
    1fc0:	16500100 	ldrbne	r0, [r0], -r0, lsl #2
    1fc4:	00008f84 	andeq	r8, r0, r4, lsl #31
    1fc8:	000005bc 			; <UNDEFINED> instruction: 0x000005bc
    1fcc:	008f8816 	addeq	r8, pc, r6, lsl r8	; <UNPREDICTABLE>
    1fd0:	00074b00 	andeq	r4, r7, r0, lsl #22
    1fd4:	c51e0000 	ldrgt	r0, [lr, #-0]
    1fd8:	01000002 	tsteq	r0, r2
    1fdc:	0001a414 	andeq	sl, r1, r4, lsl r4
    1fe0:	64030500 	strvs	r0, [r3], #-1280	; 0x500
    1fe4:	200000a7 	andcs	r0, r0, r7, lsr #1
    1fe8:	000003fd 	strdeq	r0, [r0], -sp
    1fec:	0068f001 	rsbeq	pc, r8, r1
    1ff0:	0b200000 	bleq	801ff8 <__bss_end__+0x7f7480>
    1ff4:	01000004 	tsteq	r0, r4
    1ff8:	000068f0 	strdeq	r6, [r0], -r0
    1ffc:	04412000 	strbeq	r2, [r1], #-0
    2000:	f3010000 	vhadd.u8	d0, d1, d0
    2004:	00000068 	andeq	r0, r0, r8, rrx
    2008:	00046920 	andeq	r6, r4, r0, lsr #18
    200c:	68f30100 	ldmvs	r3!, {r8}^
    2010:	2a000000 	bcs	2018 <__code_start__-0x5fe8>
    2014:	0000018f 	andeq	r0, r0, pc, lsl #3
    2018:	01fb9403 	mvnseq	r9, r3, lsl #8
    201c:	5f2b0000 	svcpl	0x002b0000
    2020:	03000002 	movweq	r0, #2
    2024:	0001fb96 	muleq	r1, r6, fp
    2028:	000d0400 	andeq	r0, sp, r0, lsl #8
    202c:	01fb2c00 	mvnseq	r2, r0, lsl #24
    2030:	2b000000 	blcs	2038 <__code_start__-0x5fc8>
    2034:	0000050e 	andeq	r0, r0, lr, lsl #10
    2038:	00252904 	eoreq	r2, r5, r4, lsl #18
    203c:	0d1a0000 	ldceq	0, cr0, [sl, #-0]
    2040:	912c0000 	teqls	ip, r0
    2044:	2d000000 	stccs	0, cr0, [r0, #-0]
    2048:	021e2e00 	andseq	r2, lr, #0, 28
    204c:	1e040000 	cdpne	0, 0, cr0, cr4, cr0, {0}
    2050:	00026b2e 	andeq	r6, r2, lr, lsr #22
    2054:	2a650400 	bcs	194305c <__bss_end__+0x19384e4>
    2058:	000002c0 	andeq	r0, r0, r0, asr #5
    205c:	01a4a703 			; <UNDEFINED> instruction: 0x01a4a703
    2060:	502f0000 	eorpl	r0, pc, r0
    2064:	01000004 	tsteq	r0, r4
    2068:	000d45c7 	andeq	r4, sp, r7, asr #11
    206c:	05a12c00 	streq	r2, [r1, #3072]!	; 0xc00
    2070:	002d0000 	eoreq	r0, sp, r0
    2074:	0002582f 	andeq	r5, r2, pc, lsr #16
    2078:	65120500 	ldrvs	r0, [r2, #-1280]	; 0x500
    207c:	2c00000d 	stccs	0, cr0, [r0], {13}
    2080:	00000088 	andeq	r0, r0, r8, lsl #1
    2084:	0000912c 	andeq	r9, r0, ip, lsr #2
    2088:	00912c00 	addseq	r2, r1, r0, lsl #24
    208c:	2c2c0000 	stccs	0, cr0, [ip], #-0
    2090:	00000000 	andeq	r0, r0, r0
    2094:	0002022a 	andeq	r0, r2, sl, lsr #4
    2098:	251e0500 	ldrcs	r0, [lr, #-1280]	; 0x500
    209c:	00000000 	andeq	r0, r0, r0
    20a0:	00000112 	andeq	r0, r0, r2, lsl r1
    20a4:	069f0004 	ldreq	r0, [pc], r4
    20a8:	01040000 	mrseq	r0, (UNDEF: 4)
    20ac:	0000005f 	andeq	r0, r0, pc, asr r0
    20b0:	00048e01 	andeq	r8, r4, r1, lsl #28
    20b4:	00049a00 	andeq	r9, r4, r0, lsl #20
    20b8:	008f9400 	addeq	r9, pc, r0, lsl #8
    20bc:	0000f000 	andeq	pc, r0, r0
    20c0:	00069d00 	andeq	r9, r6, r0, lsl #26
    20c4:	05040200 	streq	r0, [r4, #-512]	; 0x200
    20c8:	00746e69 	rsbseq	r6, r4, r9, ror #28
    20cc:	34070403 	strcc	r0, [r7], #-1027	; 0x403
    20d0:	03000001 	movweq	r0, #1
    20d4:	00e20601 	rsceq	r0, r2, r1, lsl #12
    20d8:	02030000 	andeq	r0, r3, #0
    20dc:	00015805 	andeq	r5, r1, r5, lsl #16
    20e0:	05040300 	streq	r0, [r4, #-768]	; 0x300
    20e4:	0000014f 	andeq	r0, r0, pc, asr #2
    20e8:	4a050803 	bmi	1440fc <__bss_end__+0x139584>
    20ec:	04000001 	streq	r0, [r0], #-1
    20f0:	0000035f 	andeq	r0, r0, pc, asr r3
    20f4:	005a2e02 	subseq	r2, sl, r2, lsl #28
    20f8:	01030000 	mrseq	r0, (UNDEF: 3)
    20fc:	0000e008 	andeq	lr, r0, r8
    2100:	07020300 	streq	r0, [r2, -r0, lsl #6]
    2104:	000000ee 	andeq	r0, r0, lr, ror #1
    2108:	00016204 	andeq	r6, r1, r4, lsl #4
    210c:	73340200 	teqvc	r4, #0, 4
    2110:	03000000 	movweq	r0, #0
    2114:	012f0704 	teqeq	pc, r4, lsl #14
    2118:	08030000 	stmdaeq	r3, {}	; <UNPREDICTABLE>
    211c:	00012a07 	andeq	r2, r1, r7, lsl #20
    2120:	07040300 	streq	r0, [r4, -r0, lsl #6]
    2124:	00000141 	andeq	r0, r0, r1, asr #2
    2128:	e9080103 	stmdb	r8, {r0, r1, r8}
    212c:	05000000 	streq	r0, [r0, #-0]
    2130:	00009504 	andeq	r9, r0, r4, lsl #10
    2134:	00880600 	addeq	r0, r8, r0, lsl #12
    2138:	b1070000 	mrslt	r0, (UNDEF: 7)
    213c:	01000001 	tsteq	r0, r1
    2140:	0000680f 	andeq	r6, r0, pc, lsl #16
    2144:	008f9400 	addeq	r9, pc, r0, lsl #8
    2148:	0000f000 	andeq	pc, r0, r0
    214c:	0e9c0100 	fmleqe	f0, f4, f0
    2150:	08000001 	stmdaeq	r0, {r0}
    2154:	00000bce 	andeq	r0, r0, lr, asr #23
    2158:	010e0f01 	tsteq	lr, r1, lsl #30
    215c:	0a7f0000 	beq	1fc2164 <__bss_end__+0x1fb75ec>
    2160:	6c090000 	stcvs	0, cr0, [r9], {-0}
    2164:	01006e65 	tsteq	r0, r5, ror #28
    2168:	0000250f 	andeq	r2, r0, pc, lsl #10
    216c:	000ab900 	andeq	fp, sl, r0, lsl #18
    2170:	0bcf0a00 	bleq	ff3c4978 <__bss_end__+0xff3b9e00>
    2174:	10010000 	andne	r0, r1, r0
    2178:	0000008f 	andeq	r0, r0, pc, lsl #1
    217c:	00000af8 	strdeq	r0, [r0], -r8
    2180:	0001b60a 	andeq	fp, r1, sl, lsl #12
    2184:	68110100 	ldmdavs	r1, {r8}
    2188:	37000000 	strcc	r0, [r0, -r0]
    218c:	0b00000b 	bleq	21c0 <__code_start__-0x5e40>
    2190:	00706d74 	rsbseq	r6, r0, r4, ror sp
    2194:	00681101 	rsbeq	r1, r8, r1, lsl #2
    2198:	0b810000 	bleq	fe0421a0 <__bss_end__+0xfe037628>
    219c:	720b0000 	andvc	r0, fp, #0
    21a0:	01006d65 	tsteq	r0, r5, ror #26
    21a4:	00002512 	andeq	r2, r0, r2, lsl r5
    21a8:	000bcc00 	andeq	ip, fp, r0, lsl #24
    21ac:	04050000 	streq	r0, [r5], #-0
    21b0:	00000114 	andeq	r0, r0, r4, lsl r1
    21b4:	00db000c 	sbcseq	r0, fp, ip
    21b8:	00040000 	andeq	r0, r4, r0
    21bc:	00000743 	andeq	r0, r0, r3, asr #14
    21c0:	005f0104 	subseq	r0, pc, r4, lsl #2
    21c4:	e0010000 	and	r0, r1, r0
    21c8:	9a000004 	bls	21e0 <__code_start__-0x5e20>
    21cc:	84000004 	strhi	r0, [r0], #-4
    21d0:	20000090 	mulcs	r0, r0, r0
    21d4:	7f000000 	svcvc	0x00000000
    21d8:	02000007 	andeq	r0, r0, #7
    21dc:	00e20601 	rsceq	r0, r2, r1, lsl #12
    21e0:	01020000 	mrseq	r0, (UNDEF: 2)
    21e4:	0000e008 	andeq	lr, r0, r8
    21e8:	05020200 	streq	r0, [r2, #-512]	; 0x200
    21ec:	00000158 	andeq	r0, r0, r8, asr r1
    21f0:	ee070202 	cdp	2, 0, cr0, cr7, cr2, {0}
    21f4:	03000000 	movweq	r0, #0
    21f8:	6e690504 	cdpvs	5, 6, cr0, cr9, cr4, {0}
    21fc:	04020074 	streq	r0, [r2], #-116	; 0x74
    2200:	00013407 	andeq	r3, r1, r7, lsl #8
    2204:	05080200 	streq	r0, [r8, #-512]	; 0x200
    2208:	0000014a 	andeq	r0, r0, sl, asr #2
    220c:	2a070802 	bcs	1c421c <__bss_end__+0x1b96a4>
    2210:	02000001 	andeq	r0, r0, #1
    2214:	014f0504 	cmpeq	pc, r4, lsl #10
    2218:	04020000 	streq	r0, [r2], #-0
    221c:	00014107 	andeq	r4, r1, r7, lsl #2
    2220:	02040400 	andeq	r0, r4, #0, 8
    2224:	012f0704 	teqeq	pc, r4, lsl #14
    2228:	04050000 	streq	r0, [r5], #-0
    222c:	0000007a 	andeq	r0, r0, sl, ror r0
    2230:	e9080102 	stmdb	r8, {r1, r8}
    2234:	06000000 	streq	r0, [r0], -r0
    2238:	00000000 	andeq	r0, r0, r0
    223c:	0048d402 	subeq	sp, r8, r2, lsl #8
    2240:	09070000 	stmdbeq	r7, {}	; <UNPREDICTABLE>
    2244:	03000001 	movweq	r0, #1
    2248:	00006b1b 	andeq	r6, r0, fp, lsl fp
    224c:	00908400 	addseq	r8, r0, r0, lsl #8
    2250:	00002000 	andeq	r2, r0, r0
    2254:	089c0100 	ldmeq	ip, {r8}
    2258:	0100705f 	qaddeq	r7, pc, r0	; <UNPREDICTABLE>
    225c:	00006b03 	andeq	r6, r0, r3, lsl #22
    2260:	08500100 	ldmdaeq	r0, {r8}^
    2264:	03010063 	movweq	r0, #4195	; 0x1063
    2268:	00000041 	andeq	r0, r0, r1, asr #32
    226c:	6e095101 	adfvse	f5, f1, f1
    2270:	81030100 	mrshi	r0, (UNDEF: 19)
    2274:	df000000 	svcle	0x00000000
    2278:	0a00000b 	beq	22ac <__code_start__-0x5d54>
    227c:	04010070 	streq	r0, [r1], #-112	; 0x70
    2280:	00000074 	andeq	r0, r0, r4, ror r0
    2284:	00000c00 	andeq	r0, r0, r0, lsl #24
    2288:	0100650b 	tsteq	r0, fp, lsl #10
    228c:	00007404 	andeq	r7, r0, r4, lsl #8
    2290:	00520100 	subseq	r0, r2, r0, lsl #2
    2294:	00019100 	andeq	r9, r1, r0, lsl #2
    2298:	e0000400 	and	r0, r0, r0, lsl #8
    229c:	04000007 	streq	r0, [r0], #-7
    22a0:	00005f01 	andeq	r5, r0, r1, lsl #30
    22a4:	04fd0100 	ldrbteq	r0, [sp], #256	; 0x100
    22a8:	049a0000 	ldreq	r0, [sl], #0
    22ac:	90a40000 	adcls	r0, r4, r0
    22b0:	00580000 	subseq	r0, r8, r0
    22b4:	086f0000 	stmdaeq	pc!, {}^	; <UNPREDICTABLE>
    22b8:	ee020000 	cdp	0, 0, cr0, cr2, cr0, {0}
    22bc:	02000004 	andeq	r0, r0, #4
    22c0:	00003028 	andeq	r3, r0, r8, lsr #32
    22c4:	05150300 	ldreq	r0, [r5, #-768]	; 0x300
    22c8:	03040000 	movweq	r0, #16384	; 0x4000
    22cc:	00004700 	andeq	r4, r0, r0, lsl #14
    22d0:	051f0400 	ldreq	r0, [pc, #-1024]	; 1ed8 <__code_start__-0x6128>
    22d4:	00470000 	subeq	r0, r7, r0
    22d8:	00000000 	andeq	r0, r0, r0
    22dc:	17020405 	strne	r0, [r2, -r5, lsl #8]
    22e0:	02000005 	andeq	r0, r0, #5
    22e4:	00002562 	andeq	r2, r0, r2, ror #10
    22e8:	05040600 	streq	r0, [r4, #-1536]	; 0x600
    22ec:	00746e69 	rsbseq	r6, r4, r9, ror #28
    22f0:	34070407 	strcc	r0, [r7], #-1031	; 0x407
    22f4:	07000001 	streq	r0, [r0, -r1]
    22f8:	00e20601 	rsceq	r0, r2, r1, lsl #12
    22fc:	02070000 	andeq	r0, r7, #0
    2300:	00015805 	andeq	r5, r1, r5, lsl #16
    2304:	05040700 	streq	r0, [r4, #-1792]	; 0x700
    2308:	0000014f 	andeq	r0, r0, pc, asr #2
    230c:	4a050807 	bmi	144330 <__bss_end__+0x1397b8>
    2310:	07000001 	streq	r0, [r0, -r1]
    2314:	00e00801 	rsceq	r0, r0, r1, lsl #16
    2318:	02070000 	andeq	r0, r7, #0
    231c:	0000ee07 	andeq	lr, r0, r7, lsl #28
    2320:	07040700 	streq	r0, [r4, -r0, lsl #14]
    2324:	0000012f 	andeq	r0, r0, pc, lsr #2
    2328:	2a070807 	bcs	1c434c <__bss_end__+0x1b97d4>
    232c:	07000001 	streq	r0, [r0, -r1]
    2330:	01410704 	cmpeq	r1, r4, lsl #14
    2334:	04080000 	streq	r0, [r8], #-0
    2338:	000000a7 	andeq	r0, r0, r7, lsr #1
    233c:	e9080107 	stmdb	r8, {r0, r1, r2, r8}
    2340:	08000000 	stmdaeq	r0, {}	; <UNPREDICTABLE>
    2344:	0000b404 	andeq	fp, r0, r4, lsl #8
    2348:	00a70900 	adceq	r0, r7, r0, lsl #18
    234c:	0e0a0000 	cdpeq	0, 0, cr0, cr10, cr0, {0}
    2350:	01000005 	tsteq	r0, r5
    2354:	00005406 	andeq	r5, r0, r6, lsl #8
    2358:	0090a400 	addseq	sl, r0, r0, lsl #8
    235c:	00005800 	andeq	r5, r0, r0, lsl #16
    2360:	439c0100 	orrsmi	r0, ip, #0, 2
    2364:	0b000001 	bleq	2370 <__code_start__-0x5c90>
    2368:	00746d66 	rsbseq	r6, r4, r6, ror #26
    236c:	00ae0601 	adceq	r0, lr, r1, lsl #12
    2370:	91020000 	mrsls	r0, (UNDEF: 2)
    2374:	620d0c70 	andvs	r0, sp, #112, 24	; 0x7000
    2378:	01006675 	tsteq	r0, r5, ror r6
    237c:	00014308 	andeq	r4, r1, r8, lsl #6
    2380:	74030500 	strvc	r0, [r3], #-1280	; 0x500
    2384:	0e0000a7 	cdpeq	0, 0, cr0, cr0, cr7, {5}
    2388:	000007c6 	andeq	r0, r0, r6, asr #15
    238c:	00490901 	subeq	r0, r9, r1, lsl #18
    2390:	91020000 	mrsls	r0, (UNDEF: 2)
    2394:	7a730f5c 	bvc	1cc610c <__bss_end__+0x1cbb594>
    2398:	540c0100 	strpl	r0, [ip], #-256	; 0x100
    239c:	2b000000 	blcs	23a4 <__code_start__-0x5c5c>
    23a0:	1000000c 	andne	r0, r0, ip
    23a4:	000090cc 	andeq	r9, r0, ip, asr #1
    23a8:	00000174 	andeq	r0, r0, r4, ror r1
    23ac:	00000136 	andeq	r0, r0, r6, lsr r1
    23b0:	02530111 	subseq	r0, r3, #1073741828	; 0x40000004
    23b4:	01114c91 			; <UNDEFINED> instruction: 0x01114c91
    23b8:	48910352 	ldmmi	r1, {r1, r4, r6, r8, r9}
    23bc:	51011106 	tstpl	r1, r6, lsl #2
    23c0:	04000a03 	streq	r0, [r0], #-2563	; 0xa03
    23c4:	02500111 	subseq	r0, r0, #1073741828	; 0x40000004
    23c8:	12000074 	andne	r0, r0, #116	; 0x74
    23cc:	000090e0 	andeq	r9, r0, r0, ror #1
    23d0:	02500111 	subseq	r0, r0, #1073741828	; 0x40000004
    23d4:	00000074 	andeq	r0, r0, r4, ror r0
    23d8:	0000a713 	andeq	sl, r0, r3, lsl r7
    23dc:	00015400 	andeq	r5, r1, r0, lsl #8
    23e0:	009a1400 	addseq	r1, sl, r0, lsl #8
    23e4:	03ff0000 	mvnseq	r0, #0
    23e8:	00541500 	subseq	r1, r4, r0, lsl #10
    23ec:	01630000 	cmneq	r3, r0
    23f0:	ae160000 	cdpge	0, 1, cr0, cr6, cr0, {0}
    23f4:	00000000 	andeq	r0, r0, r0
    23f8:	00057c17 	andeq	r7, r5, r7, lsl ip
    23fc:	6e220400 	cdpvs	4, 2, cr0, cr2, cr0, {0}
    2400:	08000001 	stmdaeq	r0, {r0}
    2404:	00015404 	andeq	r5, r1, r4, lsl #8
    2408:	050b1800 	streq	r1, [fp, #-2048]	; 0x800
    240c:	02050000 	andeq	r0, r5, #0
    2410:	00000054 	andeq	r0, r0, r4, asr r0
    2414:	0000a116 	andeq	sl, r0, r6, lsl r1
    2418:	00541600 	subseq	r1, r4, r0, lsl #12
    241c:	ae160000 	cdpge	0, 1, cr0, cr6, cr0, {0}
    2420:	16000000 	strne	r0, [r0], -r0
    2424:	00000049 	andeq	r0, r0, r9, asr #32
    2428:	01130000 	tsteq	r3, r0
    242c:	00040000 	andeq	r0, r4, r0
    2430:	00000911 	andeq	r0, r0, r1, lsl r9
    2434:	005f0104 	subseq	r0, pc, r4, lsl #2
    2438:	4b010000 	blmi	42440 <__bss_end__+0x378c8>
    243c:	9a000005 	bls	2458 <__code_start__-0x5ba8>
    2440:	fc000004 	stc2	0, cr0, [r0], {4}
    2444:	3c000090 	stccc	0, cr0, [r0], {144}	; 0x90
    2448:	7f000000 	svcvc	0x00000000
    244c:	02000009 	andeq	r0, r0, #9
    2450:	6e690504 	cdpvs	5, 6, cr0, cr9, cr4, {0}
    2454:	04030074 	streq	r0, [r3], #-116	; 0x74
    2458:	00013407 	andeq	r3, r1, r7, lsl #8
    245c:	06010300 	streq	r0, [r1], -r0, lsl #6
    2460:	000000e2 	andeq	r0, r0, r2, ror #1
    2464:	58050203 	stmdapl	r5, {r0, r1, r9}
    2468:	03000001 	movweq	r0, #1
    246c:	014f0504 	cmpeq	pc, r4, lsl #10
    2470:	08030000 	stmdaeq	r3, {}	; <UNPREDICTABLE>
    2474:	00014a05 	andeq	r4, r1, r5, lsl #20
    2478:	08010300 	stmdaeq	r1, {r8, r9}
    247c:	000000e0 	andeq	r0, r0, r0, ror #1
    2480:	ee070203 	cdp	2, 0, cr0, cr7, cr3, {0}
    2484:	03000000 	movweq	r0, #0
    2488:	012f0704 	teqeq	pc, r4, lsl #14
    248c:	08030000 	stmdaeq	r3, {}	; <UNPREDICTABLE>
    2490:	00012a07 	andeq	r2, r1, r7, lsl #20
    2494:	07040300 	streq	r0, [r4, -r0, lsl #6]
    2498:	00000141 	andeq	r0, r0, r1, asr #2
    249c:	e9080103 	stmdb	r8, {r0, r1, r8}
    24a0:	04000000 	streq	r0, [r0], #-0
    24a4:	0000052e 	andeq	r0, r0, lr, lsr #10
    24a8:	00250301 	eoreq	r0, r5, r1, lsl #6
    24ac:	90fc0000 	rscsls	r0, ip, r0
    24b0:	00140000 	andseq	r0, r4, r0
    24b4:	9c010000 	stcls	0, cr0, [r1], {-0}
    24b8:	000000b0 	strheq	r0, [r0], -r0	; <UNPREDICTABLE>
    24bc:	01006305 	tsteq	r0, r5, lsl #6
    24c0:	00002503 	andeq	r2, r0, r3, lsl #10
    24c4:	000c5400 	andeq	r5, ip, r0, lsl #8
    24c8:	91080600 	tstls	r8, r0, lsl #12
    24cc:	01090000 	mrseq	r0, (UNDEF: 9)
    24d0:	01070000 	mrseq	r0, (UNDEF: 7)
    24d4:	00740250 	rsbseq	r0, r4, r0, asr r2
    24d8:	1e080000 	cdpne	0, 0, cr0, cr8, cr0, {0}
    24dc:	01000002 	tsteq	r0, r2
    24e0:	00911008 	addseq	r1, r1, r8
    24e4:	00001800 	andeq	r1, r0, r0, lsl #16
    24e8:	099c0100 	ldmibeq	ip, {r8}
    24ec:	0000055a 	andeq	r0, r0, sl, asr r5
    24f0:	91280b01 	teqls	r8, r1, lsl #22
    24f4:	00100000 	andseq	r0, r0, r0
    24f8:	9c010000 	stcls	0, cr0, [r1], {-0}
    24fc:	000000e3 	andeq	r0, r0, r3, ror #1
    2500:	0070660a 	rsbseq	r6, r0, sl, lsl #12
    2504:	00f20b01 	rscseq	r0, r2, r1, lsl #22
    2508:	50010000 	andpl	r0, r1, r0
    250c:	00250b00 	eoreq	r0, r5, r0, lsl #22
    2510:	00f20000 	rscseq	r0, r2, r0
    2514:	250c0000 	strcs	r0, [ip, #-0]
    2518:	00000000 	andeq	r0, r0, r0
    251c:	00e3040d 	rsceq	r0, r3, sp, lsl #8
    2520:	3f0e0000 	svccc	0x000e0000
    2524:	01000005 	tsteq	r0, r5
    2528:	0000f206 	andeq	pc, r0, r6, lsl #4
    252c:	60030500 	andvs	r0, r3, r0, lsl #10
    2530:	0f00009c 	svceq	0x0000009c
    2534:	00000524 	andeq	r0, r0, r4, lsr #10
    2538:	2c0c3c02 	stccs	12, cr3, [ip], {2}
    253c:	00000000 	andeq	r0, r0, r0
    2540:	0000ee00 	andeq	lr, r0, r0, lsl #28
    2544:	f9000400 			; <UNDEFINED> instruction: 0xf9000400
    2548:	04000009 	streq	r0, [r0], #-9
    254c:	00005f01 	andeq	r5, r0, r1, lsl #30
    2550:	05670100 	strbeq	r0, [r7, #-256]!	; 0x100
    2554:	049a0000 	ldreq	r0, [sl], #0
    2558:	91380000 	teqls	r8, r0
    255c:	00340000 	eorseq	r0, r4, r0
    2560:	0a170000 	beq	5c2568 <__bss_end__+0x5b79f0>
    2564:	04020000 	streq	r0, [r2], #-0
    2568:	746e6905 	strbtvc	r6, [lr], #-2309	; 0x905
    256c:	07040300 	streq	r0, [r4, -r0, lsl #6]
    2570:	00000134 	andeq	r0, r0, r4, lsr r1
    2574:	e2060103 	and	r0, r6, #-1073741824	; 0xc0000000
    2578:	03000000 	movweq	r0, #0
    257c:	01580502 	cmpeq	r8, r2, lsl #10
    2580:	04030000 	streq	r0, [r3], #-0
    2584:	00014f05 	andeq	r4, r1, r5, lsl #30
    2588:	05080300 	streq	r0, [r8, #-768]	; 0x300
    258c:	0000014a 	andeq	r0, r0, sl, asr #2
    2590:	e0080103 	and	r0, r8, r3, lsl #2
    2594:	03000000 	movweq	r0, #0
    2598:	00ee0702 	rsceq	r0, lr, r2, lsl #14
    259c:	04030000 	streq	r0, [r3], #-0
    25a0:	00012f07 	andeq	r2, r1, r7, lsl #30
    25a4:	07080300 	streq	r0, [r8, -r0, lsl #6]
    25a8:	0000012a 	andeq	r0, r0, sl, lsr #2
    25ac:	41070403 	tstmi	r7, r3, lsl #8
    25b0:	03000001 	movweq	r0, #1
    25b4:	00e90801 	rsceq	r0, r9, r1, lsl #16
    25b8:	04040000 	streq	r0, [r4], #-0
    25bc:	0000007f 	andeq	r0, r0, pc, ror r0
    25c0:	00007205 	andeq	r7, r0, r5, lsl #4
    25c4:	05730600 	ldrbeq	r0, [r3, #-1536]!	; 0x600
    25c8:	04010000 	streq	r0, [r1], #-0
    25cc:	00000025 	andeq	r0, r0, r5, lsr #32
    25d0:	00009138 	andeq	r9, r0, r8, lsr r1
    25d4:	00000034 	andeq	r0, r0, r4, lsr r0
    25d8:	00ab9c01 	adceq	r9, fp, r1, lsl #24
    25dc:	70070000 	andvc	r0, r7, r0
    25e0:	79040100 	stmdbvc	r4, {r8}
    25e4:	72000000 	andvc	r0, r0, #0
    25e8:	0000000c 	andeq	r0, r0, ip
    25ec:	00002508 	andeq	r2, r0, r8, lsl #10
    25f0:	0000ba00 	andeq	fp, r0, r0, lsl #20
    25f4:	00250900 	eoreq	r0, r5, r0, lsl #18
    25f8:	0a000000 	beq	2600 <__code_start__-0x5a00>
    25fc:	0000053f 	andeq	r0, r0, pc, lsr r5
    2600:	00c51d02 	sbceq	r1, r5, r2, lsl #26
    2604:	04040000 	streq	r0, [r4], #-0
    2608:	000000ab 	andeq	r0, r0, fp, lsr #1
    260c:	00002508 	andeq	r2, r0, r8, lsl #10
    2610:	0000da00 	andeq	sp, r0, r0, lsl #20
    2614:	00790900 	rsbseq	r0, r9, r0, lsl #18
    2618:	0b000000 	bleq	2620 <__code_start__-0x59e0>
    261c:	0000057c 	andeq	r0, r0, ip, ror r5
    2620:	00eb0c01 	rsceq	r0, fp, r1, lsl #24
    2624:	03050000 	movweq	r0, #20480	; 0x5000
    2628:	00009c64 	andeq	r9, r0, r4, ror #24
    262c:	00cb0404 	sbceq	r0, fp, r4, lsl #8
    2630:	81000000 	mrshi	r0, (UNDEF: 0)
    2634:	04000006 	streq	r0, [r0], #-6
    2638:	000a9200 	andeq	r9, sl, r0, lsl #4
    263c:	5f010400 	svcpl	0x00010400
    2640:	01000000 	mrseq	r0, (UNDEF: 0)
    2644:	000005a8 	andeq	r0, r0, r8, lsr #11
    2648:	0000049a 	muleq	r0, sl, r4
    264c:	0000916c 	andeq	r9, r0, ip, ror #2
    2650:	0000050c 	andeq	r0, r0, ip, lsl #10
    2654:	00000abb 			; <UNDEFINED> instruction: 0x00000abb
    2658:	69050402 	stmdbvs	r5, {r1, sl}
    265c:	0300746e 	movweq	r7, #1134	; 0x46e
    2660:	01340704 	teqeq	r4, r4, lsl #14
    2664:	01030000 	mrseq	r0, (UNDEF: 3)
    2668:	0000e206 	andeq	lr, r0, r6, lsl #4
    266c:	05020300 	streq	r0, [r2, #-768]	; 0x300
    2670:	00000158 	andeq	r0, r0, r8, asr r1
    2674:	4f050403 	svcmi	0x00050403
    2678:	03000001 	movweq	r0, #1
    267c:	014a0508 	cmpeq	sl, r8, lsl #10
    2680:	01030000 	mrseq	r0, (UNDEF: 3)
    2684:	0000e008 	andeq	lr, r0, r8
    2688:	07020300 	streq	r0, [r2, -r0, lsl #6]
    268c:	000000ee 	andeq	r0, r0, lr, ror #1
    2690:	2f070403 	svccs	0x00070403
    2694:	03000001 	movweq	r0, #1
    2698:	012a0708 	teqeq	sl, r8, lsl #14
    269c:	04030000 	streq	r0, [r3], #-0
    26a0:	00014107 	andeq	r4, r1, r7, lsl #2
    26a4:	05040400 	streq	r0, [r4, #-1024]	; 0x400
    26a8:	00007a04 	andeq	r7, r0, r4, lsl #20
    26ac:	08010300 	stmdaeq	r1, {r8, r9}
    26b0:	000000e9 	andeq	r0, r0, r9, ror #1
    26b4:	00870405 	addeq	r0, r7, r5, lsl #8
    26b8:	7a060000 	bvc	1826c0 <__bss_end__+0x177b48>
    26bc:	07000000 	streq	r0, [r0, -r0]
    26c0:	000004ee 	andeq	r0, r0, lr, ror #9
    26c4:	00972802 	addseq	r2, r7, r2, lsl #16
    26c8:	15080000 	strne	r0, [r8, #-0]
    26cc:	04000005 	streq	r0, [r0], #-5
    26d0:	00ae0004 	adceq	r0, lr, r4
    26d4:	1f090000 	svcne	0x00090000
    26d8:	72000005 	andvc	r0, r0, #5
    26dc:	00000000 	andeq	r0, r0, r0
    26e0:	05170700 	ldreq	r0, [r7, #-1792]	; 0x700
    26e4:	62020000 	andvs	r0, r2, #0
    26e8:	0000008c 	andeq	r0, r0, ip, lsl #1
    26ec:	00058f0a 	andeq	r8, r5, sl, lsl #30
    26f0:	25270100 	strcs	r0, [r7, #-256]!	; 0x100
    26f4:	6c000000 	stcvs	0, cr0, [r0], {-0}
    26f8:	14000091 	strne	r0, [r0], #-145	; 0x91
    26fc:	01000000 	mrseq	r0, (UNDEF: 0)
    2700:	0000e09c 	muleq	r0, ip, r0
    2704:	00630b00 	rsbeq	r0, r3, r0, lsl #22
    2708:	00252701 	eoreq	r2, r5, r1, lsl #14
    270c:	0c900000 	ldceq	0, cr0, [r0], {0}
    2710:	0c000000 	stceq	0, cr0, [r0], {-0}
    2714:	00646170 	rsbeq	r6, r4, r0, ror r1
    2718:	00742e01 	rsbseq	r2, r4, r1, lsl #28
    271c:	91800000 	orrls	r0, r0, r0
    2720:	002c0000 	eoreq	r0, ip, r0
    2724:	9c010000 	stcls	0, cr0, [r1], {-0}
    2728:	00000130 	andeq	r0, r0, r0, lsr r1
    272c:	0100700b 	tsteq	r0, fp
    2730:	0000742e 	andeq	r7, r0, lr, lsr #8
    2734:	000cbe00 	andeq	fp, ip, r0, lsl #28
    2738:	07a40d00 	streq	r0, [r4, r0, lsl #26]!
    273c:	2e010000 	cdpcs	0, 0, cr0, cr1, cr0, {0}
    2740:	00000074 	andeq	r0, r0, r4, ror r0
    2744:	00000ce9 	andeq	r0, r0, r9, ror #25
    2748:	0005c80e 	andeq	ip, r5, lr, lsl #16
    274c:	252e0100 	strcs	r0, [lr, #-256]!	; 0x100
    2750:	01000000 	mrseq	r0, (UNDEF: 0)
    2754:	656c0f52 	strbvs	r0, [ip, #-3922]!	; 0xf52
    2758:	2f01006e 	svccs	0x0001006e
    275c:	00000025 	andeq	r0, r0, r5, lsr #32
    2760:	0a005101 	beq	16b6c <__bss_end__+0xbff4>
    2764:	00000587 	andeq	r0, r0, r7, lsl #11
    2768:	00743701 	rsbseq	r3, r4, r1, lsl #14
    276c:	91ac0000 			; <UNDEFINED> instruction: 0x91ac0000
    2770:	00400000 	subeq	r0, r0, r0
    2774:	9c010000 	stcls	0, cr0, [r1], {-0}
    2778:	0000019c 	muleq	r0, ip, r1
    277c:	7473640b 	ldrbtvc	r6, [r3], #-1035	; 0x40b
    2780:	74370100 	ldrtvc	r0, [r7], #-256	; 0x100
    2784:	0a000000 	beq	278c <__code_start__-0x5874>
    2788:	0b00000d 	bleq	27c4 <__code_start__-0x583c>
    278c:	3701006e 	strcc	r0, [r1, -lr, rrx]
    2790:	00000025 	andeq	r0, r0, r5, lsr #32
    2794:	00000d42 	andeq	r0, r0, r2, asr #26
    2798:	0100700b 	tsteq	r0, fp
    279c:	00007437 	andeq	r7, r0, r7, lsr r4
    27a0:	000d6300 	andeq	r6, sp, r0, lsl #6
    27a4:	0d5f0d00 	ldcleq	13, cr0, [pc, #-0]	; 27ac <__code_start__-0x5854>
    27a8:	37010000 	strcc	r0, [r1, -r0]
    27ac:	00000074 	andeq	r0, r0, r4, ror r0
    27b0:	00000d99 	muleq	r0, r9, sp
    27b4:	6e656c10 	mcrvs	12, 3, r6, cr5, cr0, {0}
    27b8:	25390100 	ldrcs	r0, [r9, #-256]!	; 0x100
    27bc:	b7000000 	strlt	r0, [r0, -r0]
    27c0:	0f00000d 	svceq	0x0000000d
    27c4:	3d010073 	stccc	0, cr0, [r1, #-460]	; 0xfffffe34
    27c8:	00000074 	andeq	r0, r0, r4, ror r0
    27cc:	0a005001 	beq	167d8 <__bss_end__+0xbc60>
    27d0:	000005d6 	ldrdeq	r0, [r0], -r6
    27d4:	00744701 	rsbseq	r4, r4, r1, lsl #14
    27d8:	91ec0000 	mvnls	r0, r0
    27dc:	01b00000 	movseq	r0, r0
    27e0:	9c010000 	stcls	0, cr0, [r1], {-0}
    27e4:	000002d3 	ldrdeq	r0, [r0], -r3
    27e8:	0007a40d 	andeq	sl, r7, sp, lsl #8
    27ec:	2c470100 	stfcse	f0, [r7], {-0}
    27f0:	de000000 	cdple	0, 0, cr0, cr0, cr0, {0}
    27f4:	0b00000d 	bleq	2830 <__code_start__-0x57d0>
    27f8:	00747364 	rsbseq	r7, r4, r4, ror #6
    27fc:	00744701 	rsbseq	r4, r4, r1, lsl #14
    2800:	0e0c0000 	cdpeq	0, 0, cr0, cr12, cr0, {0}
    2804:	6e0b0000 	cdpvs	0, 0, cr0, cr11, cr0, {0}
    2808:	25470100 	strbcs	r0, [r7, #-256]	; 0x100
    280c:	7a000000 	bvc	2814 <__code_start__-0x57ec>
    2810:	0b00000e 	bleq	2850 <__code_start__-0x57b0>
    2814:	006c6176 	rsbeq	r6, ip, r6, ror r1
    2818:	00254701 	eoreq	r4, r5, r1, lsl #14
    281c:	0ea60000 	cdpeq	0, 10, cr0, cr6, cr0, {0}
    2820:	c80d0000 	stmdagt	sp, {}	; <UNPREDICTABLE>
    2824:	01000005 	tsteq	r0, r5
    2828:	00002547 	andeq	r2, r0, r7, asr #10
    282c:	000f2500 	andeq	r2, pc, r0, lsl #10
    2830:	059f0e00 	ldreq	r0, [pc, #3584]	; 3638 <__code_start__-0x49c8>
    2834:	47010000 	strmi	r0, [r1, -r0]
    2838:	00000025 	andeq	r0, r0, r5, lsr #32
    283c:	0f049102 	svceq	0x00049102
    2840:	00667562 	rsbeq	r7, r6, r2, ror #10
    2844:	02d34c01 	sbcseq	r4, r3, #256	; 0x100
    2848:	91030000 	mrsls	r0, (UNDEF: 3)
    284c:	70107fa8 	andsvc	r7, r0, r8, lsr #31
    2850:	744c0100 	strbvc	r0, [ip], #-256	; 0x100
    2854:	4f000000 	svcmi	0x00000000
    2858:	1000000f 	andne	r0, r0, pc
    285c:	4d010075 	stcmi	0, cr0, [r1, #-468]	; 0xfffffe2c
    2860:	0000002c 	andeq	r0, r0, ip, lsr #32
    2864:	00001017 	andeq	r1, r0, r7, lsl r0
    2868:	00011011 	andeq	r1, r1, r1, lsl r0
    286c:	0002f300 	andeq	pc, r2, r0, lsl #6
    2870:	18030500 	stmdane	r3, {r8, sl}
    2874:	120000a5 	andne	r0, r0, #165	; 0xa5
    2878:	00009258 	andeq	r9, r0, r8, asr r2
    287c:	00000074 	andeq	r0, r0, r4, ror r0
    2880:	00000261 	andeq	r0, r0, r1, ror #4
    2884:	00058113 	andeq	r8, r5, r3, lsl r1
    2888:	2c520100 	ldfcse	f0, [r2], {-0}
    288c:	da000000 	ble	2894 <__code_start__-0x576c>
    2890:	00000010 	andeq	r0, r0, r0, lsl r0
    2894:	00934414 	addseq	r4, r3, r4, lsl r4
    2898:	00066000 	andeq	r6, r6, r0
    289c:	93581500 	cmpls	r8, #0, 10
    28a0:	06670000 	strbteq	r0, [r7], -r0
    28a4:	02990000 	addseq	r0, r9, #0
    28a8:	01160000 	tsteq	r6, r0
    28ac:	77080253 	smlsdvc	r8, r3, r2, r0
    28b0:	05520116 	ldrbeq	r0, [r2, #-278]	; 0x116
    28b4:	00a51803 	adceq	r1, r5, r3, lsl #16
    28b8:	51011600 	tstpl	r1, r0, lsl #12
    28bc:	a5500305 	ldrbge	r0, [r0, #-773]	; 0x305
    28c0:	01160000 	tsteq	r6, r0
    28c4:	3c030550 	cfstr32cc	mvfx0, [r3], {80}	; 0x50
    28c8:	000000a5 	andeq	r0, r0, r5, lsr #1
    28cc:	00935c14 	addseq	r5, r3, r4, lsl ip
    28d0:	00067d00 	andeq	r7, r6, r0, lsl #26
    28d4:	93641500 	cmnls	r4, #0, 10
    28d8:	00e00000 	rsceq	r0, r0, r0
    28dc:	02b60000 	adcseq	r0, r6, #0
    28e0:	01160000 	tsteq	r6, r0
    28e4:	007d0251 	rsbseq	r0, sp, r1, asr r2
    28e8:	93781700 	cmnls	r8, #0, 14
    28ec:	01300000 	teqeq	r0, r0
    28f0:	01160000 	tsteq	r6, r0
    28f4:	007d0253 	rsbseq	r0, sp, r3, asr r2
    28f8:	02510116 	subseq	r0, r1, #-2147483643	; 0x80000005
    28fc:	01160074 	tsteq	r6, r4, ror r0
    2900:	00750250 	rsbseq	r0, r5, r0, asr r2
    2904:	7a180000 	bvc	60290c <__bss_end__+0x5f7d94>
    2908:	e3000000 	movw	r0, #0
    290c:	19000002 	stmdbne	r0, {r1}
    2910:	0000006b 	andeq	r0, r0, fp, rrx
    2914:	7a18003f 	bvc	602a18 <__bss_end__+0x5f7ea0>
    2918:	f3000000 	vhadd.u8	d0, d0, d0
    291c:	19000002 	stmdbne	r0, {r1}
    2920:	0000006b 	andeq	r0, r0, fp, rrx
    2924:	e3060004 	movw	r0, #24580	; 0x6004
    2928:	1a000002 	bne	2938 <__code_start__-0x56c8>
    292c:	000005b9 			; <UNDEFINED> instruction: 0x000005b9
    2930:	939c1f01 	orrsls	r1, ip, #1, 30
    2934:	00540000 	subseq	r0, r4, r0
    2938:	9c010000 	stcls	0, cr0, [r1], {-0}
    293c:	0000037c 	andeq	r0, r0, ip, ror r3
    2940:	0005ce0d 	andeq	ip, r5, sp, lsl #28
    2944:	8b1f0100 	blhi	7c2d4c <__bss_end__+0x7b81d4>
    2948:	06000003 	streq	r0, [r0], -r3
    294c:	0d000011 	stceq	0, cr0, [r0, #-68]	; 0xffffffbc
    2950:	00000597 	muleq	r0, r7, r5
    2954:	03a01f01 	moveq	r1, #1, 30
    2958:	11320000 	teqne	r2, r0
    295c:	10110000 	andsne	r0, r1, r0
    2960:	b6000001 	strlt	r0, [r0], -r1
    2964:	05000003 	streq	r0, [r0, #-3]
    2968:	00a52003 	adceq	r2, r5, r3
    296c:	93ac1400 			; <UNDEFINED> instruction: 0x93ac1400
    2970:	06600000 	strbteq	r0, [r0], -r0
    2974:	c0150000 	andsgt	r0, r5, r0
    2978:	67000093 			; <UNDEFINED> instruction: 0x67000093
    297c:	72000006 	andvc	r0, r0, #6
    2980:	16000003 	strne	r0, [r0], -r3
    2984:	08025301 	stmdaeq	r2, {r0, r8, r9, ip, lr}
    2988:	52011620 	andpl	r1, r1, #32, 12	; 0x2000000
    298c:	a5200305 	strge	r0, [r0, #-773]!	; 0x305
    2990:	01160000 	tsteq	r6, r0
    2994:	50030551 	andpl	r0, r3, r1, asr r5
    2998:	160000a5 	strne	r0, [r0], -r5, lsr #1
    299c:	03055001 	movweq	r5, #20481	; 0x5001
    29a0:	0000a588 	andeq	sl, r0, r8, lsl #11
    29a4:	93c41400 	bicls	r1, r4, #0, 8
    29a8:	067d0000 	ldrbteq	r0, [sp], -r0
    29ac:	1b000000 	blne	29b4 <__code_start__-0x564c>
    29b0:	00000025 	andeq	r0, r0, r5, lsr #32
    29b4:	0000038b 	andeq	r0, r0, fp, lsl #7
    29b8:	0000251c 	andeq	r2, r0, ip, lsl r5
    29bc:	04050000 	streq	r0, [r5], #-0
    29c0:	0000037c 	andeq	r0, r0, ip, ror r3
    29c4:	0000251b 	andeq	r2, r0, fp, lsl r5
    29c8:	0003a000 	andeq	sl, r3, r0
    29cc:	00811c00 	addeq	r1, r1, r0, lsl #24
    29d0:	05000000 	streq	r0, [r0, #-0]
    29d4:	00039104 	andeq	r9, r3, r4, lsl #2
    29d8:	007a1800 	rsbseq	r1, sl, r0, lsl #16
    29dc:	03b60000 			; <UNDEFINED> instruction: 0x03b60000
    29e0:	6b190000 	blvs	6429e8 <__bss_end__+0x637e70>
    29e4:	0e000000 	cdpeq	0, 0, cr0, cr0, cr0, {0}
    29e8:	03a60600 			; <UNDEFINED> instruction: 0x03a60600
    29ec:	0b1d0000 	bleq	7429f4 <__bss_end__+0x737e7c>
    29f0:	01000005 	tsteq	r0, r5
    29f4:	0000257f 	andeq	r2, r0, pc, ror r5
    29f8:	0093f000 	addseq	pc, r3, r0
    29fc:	00028800 	andeq	r8, r2, r0, lsl #16
    2a00:	259c0100 	ldrcs	r0, [ip, #256]	; 0x100
    2a04:	0b000006 	bleq	2a24 <__code_start__-0x55dc>
    2a08:	00667562 	rsbeq	r7, r6, r2, ror #10
    2a0c:	00747f01 	rsbseq	r7, r4, r1, lsl #30
    2a10:	115e0000 	cmpne	lr, r0
    2a14:	6e0b0000 	cdpvs	0, 0, cr0, cr11, cr0, {0}
    2a18:	257f0100 	ldrbcs	r0, [pc, #-256]!	; 2920 <__code_start__-0x56e0>
    2a1c:	8a000000 	bhi	2a24 <__code_start__-0x55dc>
    2a20:	0b000011 	bleq	2a6c <__code_start__-0x5594>
    2a24:	00746d66 	rsbseq	r6, r4, r6, ror #26
    2a28:	00817f01 	addeq	r7, r1, r1, lsl #30
    2a2c:	11b80000 			; <UNDEFINED> instruction: 0x11b80000
    2a30:	c60d0000 	strgt	r0, [sp], -r0
    2a34:	01000007 	tsteq	r0, r7
    2a38:	0000ae7f 	andeq	sl, r0, pc, ror lr
    2a3c:	0011ec00 	andseq	lr, r1, r0, lsl #24
    2a40:	00701000 	rsbseq	r1, r0, r0
    2a44:	00748001 	rsbseq	r8, r4, r1
    2a48:	11ff0000 	mvnsne	r0, r0
    2a4c:	65100000 	ldrvs	r0, [r0, #-0]
    2a50:	74800100 	strvc	r0, [r0], #256	; 0x100
    2a54:	7d000000 	stcvc	0, cr0, [r0, #-0]
    2a58:	11000012 	tstne	r0, r2, lsl r0
    2a5c:	00000110 	andeq	r0, r0, r0, lsl r1
    2a60:	00000635 	andeq	r0, r0, r5, lsr r6
    2a64:	a5300305 	ldrge	r0, [r0, #-773]!	; 0x305
    2a68:	801e0000 	andshi	r0, lr, r0
    2a6c:	10000000 	andne	r0, r0, r0
    2a70:	8d010073 	stchi	0, cr0, [r1, #-460]	; 0xfffffe34
    2a74:	00000074 	andeq	r0, r0, r4, ror r0
    2a78:	000012a4 	andeq	r1, r0, r4, lsr #5
    2a7c:	6d756e0f 	ldclvs	14, cr6, [r5, #-60]!	; 0xffffffc4
    2a80:	3a8d0100 	bcc	fe342e88 <__bss_end__+0xfe338310>
    2a84:	03000006 	movweq	r0, #6
    2a88:	137ed891 	cmnne	lr, #9502720	; 0x910000
    2a8c:	000005c8 	andeq	r0, r0, r8, asr #11
    2a90:	002c8e01 	eoreq	r8, ip, r1, lsl #28
    2a94:	12f90000 	rscsne	r0, r9, #0
    2a98:	74150000 	ldrvc	r0, [r5], #-0
    2a9c:	b9000094 	stmdblt	r0, {r2, r4, r7}
    2aa0:	7b000000 	blvc	2aa8 <__code_start__-0x5558>
    2aa4:	16000004 	strne	r0, [r0], -r4
    2aa8:	75025001 	strvc	r5, [r2, #-1]
    2aac:	88140000 	ldmdahi	r4, {}	; <UNPREDICTABLE>
    2ab0:	60000094 	mulvs	r0, r4, r0
    2ab4:	15000006 	strne	r0, [r0, #-6]
    2ab8:	0000949c 	muleq	r0, ip, r4
    2abc:	00000667 	andeq	r0, r0, r7, ror #12
    2ac0:	000004b3 			; <UNDEFINED> instruction: 0x000004b3
    2ac4:	02530116 	subseq	r0, r3, #-2147483643	; 0x80000005
    2ac8:	01169408 	tsteq	r6, r8, lsl #8
    2acc:	30030552 	andcc	r0, r3, r2, asr r5
    2ad0:	160000a5 	strne	r0, [r0], -r5, lsr #1
    2ad4:	03055101 	movweq	r5, #20737	; 0x5101
    2ad8:	0000a550 	andeq	sl, r0, r0, asr r5
    2adc:	05500116 	ldrbeq	r0, [r0, #-278]	; 0x116
    2ae0:	00a5a003 	adceq	sl, r5, r3
    2ae4:	a0140000 	andsge	r0, r4, r0
    2ae8:	7d000094 	stcvc	0, cr0, [r0, #-592]	; 0xfffffdb0
    2aec:	14000006 	strne	r0, [r0], #-6
    2af0:	00009510 	andeq	r9, r0, r0, lsl r5
    2af4:	00000660 	andeq	r0, r0, r0, ror #12
    2af8:	00952415 	addseq	r2, r5, r5, lsl r4
    2afc:	00066700 	andeq	r6, r6, r0, lsl #14
    2b00:	0004f400 	andeq	pc, r4, r0, lsl #8
    2b04:	53011600 	movwpl	r1, #5632	; 0x1600
    2b08:	169a0802 	ldrne	r0, [sl], r2, lsl #16
    2b0c:	03055201 	movweq	r5, #20993	; 0x5201
    2b10:	0000a530 	andeq	sl, r0, r0, lsr r5
    2b14:	05510116 	ldrbeq	r0, [r1, #-278]	; 0x116
    2b18:	00a55003 	adceq	r5, r5, r3
    2b1c:	50011600 	andpl	r1, r1, r0, lsl #12
    2b20:	a5bc0305 	ldrge	r0, [ip, #773]!	; 0x305
    2b24:	14000000 	strne	r0, [r0], #-0
    2b28:	00009528 	andeq	r9, r0, r8, lsr #10
    2b2c:	0000067d 	andeq	r0, r0, sp, ror r6
    2b30:	00954c15 	addseq	r4, r5, r5, lsl ip
    2b34:	00019c00 	andeq	r9, r1, r0, lsl #24
    2b38:	00052a00 	andeq	r2, r5, r0, lsl #20
    2b3c:	52011600 	andpl	r1, r1, #0, 12
    2b40:	16800802 	strne	r0, [r0], r2, lsl #16
    2b44:	91035101 	tstls	r3, r1, lsl #2
    2b48:	01167ed0 			; <UNDEFINED> instruction: 0x01167ed0
    2b4c:	163a0150 			; <UNDEFINED> instruction: 0x163a0150
    2b50:	01047d02 	tsteq	r4, r2, lsl #26
    2b54:	7d021631 	stcvc	6, cr1, [r2, #-196]	; 0xffffff3c
    2b58:	00770200 	rsbseq	r0, r7, r0, lsl #4
    2b5c:	95701500 	ldrbls	r1, [r0, #-1280]!	; 0x500
    2b60:	019c0000 	orrseq	r0, ip, r0
    2b64:	05580000 	ldrbeq	r0, [r8, #-0]
    2b68:	01160000 	tsteq	r6, r0
    2b6c:	80080252 	andhi	r0, r8, r2, asr r2
    2b70:	03510116 	cmpeq	r1, #-2147483643	; 0x80000005
    2b74:	167ed091 			; <UNDEFINED> instruction: 0x167ed091
    2b78:	3a015001 	bcc	56b84 <__bss_end__+0x4c00c>
    2b7c:	047d0216 	ldrbteq	r0, [sp], #-534	; 0x216
    2b80:	16007b02 	strne	r7, [r0], -r2, lsl #22
    2b84:	02007d02 	andeq	r7, r0, #2, 26	; 0x80
    2b88:	15000077 	strne	r0, [r0, #-119]	; 0x77
    2b8c:	00009594 	muleq	r0, r4, r5
    2b90:	0000019c 	muleq	r0, ip, r1
    2b94:	00000586 	andeq	r0, r0, r6, lsl #11
    2b98:	02520116 	subseq	r0, r2, #-2147483643	; 0x80000005
    2b9c:	01168008 	tsteq	r6, r8
    2ba0:	d0910351 	addsle	r0, r1, r1, asr r3
    2ba4:	5001167e 	andpl	r1, r1, lr, ror r6
    2ba8:	02164001 	andseq	r4, r6, #1
    2bac:	7b02047d 	blvc	83da8 <__bss_end__+0x79230>
    2bb0:	7d021600 	stcvc	6, cr1, [r2, #-0]
    2bb4:	00770200 	rsbseq	r0, r7, r0, lsl #4
    2bb8:	95b81500 	ldrls	r1, [r8, #1280]!	; 0x500
    2bbc:	019c0000 	orrseq	r0, ip, r0
    2bc0:	05b40000 	ldreq	r0, [r4, #0]!
    2bc4:	01160000 	tsteq	r6, r0
    2bc8:	80080252 	andhi	r0, r8, r2, asr r2
    2bcc:	03510116 	cmpeq	r1, #-2147483643	; 0x80000005
    2bd0:	167ed091 			; <UNDEFINED> instruction: 0x167ed091
    2bd4:	32015001 	andcc	r5, r1, #1
    2bd8:	047d0216 	ldrbteq	r0, [sp], #-534	; 0x216
    2bdc:	16007b02 	strne	r7, [r0], -r2, lsl #22
    2be0:	02007d02 	andeq	r7, r0, #2, 26	; 0x80
    2be4:	15000077 	strne	r0, [r0, #-119]	; 0x77
    2be8:	000095e8 	andeq	r9, r0, r8, ror #11
    2bec:	0000019c 	muleq	r0, ip, r1
    2bf0:	000005e2 	andeq	r0, r0, r2, ror #11
    2bf4:	02520116 	subseq	r0, r2, #-2147483643	; 0x80000005
    2bf8:	01168008 	tsteq	r6, r8
    2bfc:	d0910351 	addsle	r0, r1, r1, asr r3
    2c00:	5001167e 	andpl	r1, r1, lr, ror r6
    2c04:	02163801 	andseq	r3, r6, #65536	; 0x10000
    2c08:	7b02047d 	blvc	83e04 <__bss_end__+0x7928c>
    2c0c:	7d021600 	stcvc	6, cr1, [r2, #-0]
    2c10:	00770200 	rsbseq	r0, r7, r0, lsl #4
    2c14:	95f01400 	ldrbls	r1, [r0, #1024]!	; 0x400
    2c18:	06600000 	strbteq	r0, [r0], -r0
    2c1c:	0c150000 	ldceq	0, cr0, [r5], {-0}
    2c20:	67000096 			; <UNDEFINED> instruction: 0x67000096
    2c24:	1a000006 	bne	2c44 <__code_start__-0x53bc>
    2c28:	16000006 	strne	r0, [r0], -r6
    2c2c:	08025301 	stmdaeq	r2, {r0, r8, r9, ip, lr}
    2c30:	520116bb 	andpl	r1, r1, #196083712	; 0xbb00000
    2c34:	a5300305 	ldrge	r0, [r0, #-773]!	; 0x305
    2c38:	01160000 	tsteq	r6, r0
    2c3c:	50030551 	andpl	r0, r3, r1, asr r5
    2c40:	160000a5 	strne	r0, [r0], -r5, lsr #1
    2c44:	03055001 	movweq	r5, #20481	; 0x5001
    2c48:	0000a5e4 	andeq	sl, r0, r4, ror #11
    2c4c:	96101400 	ldrls	r1, [r0], -r0, lsl #8
    2c50:	067d0000 	ldrbteq	r0, [sp], -r0
    2c54:	00000000 	andeq	r0, r0, r0
    2c58:	00007a18 	andeq	r7, r0, r8, lsl sl
    2c5c:	00063500 	andeq	r3, r6, r0, lsl #10
    2c60:	006b1900 	rsbeq	r1, fp, r0, lsl #18
    2c64:	00090000 	andeq	r0, r9, r0
    2c68:	00062506 	andeq	r2, r6, r6, lsl #10
    2c6c:	007a1800 	rsbseq	r1, sl, r0, lsl #16
    2c70:	064a0000 	strbeq	r0, [sl], -r0
    2c74:	6b190000 	blvs	642c7c <__bss_end__+0x638104>
    2c78:	7f000000 	svcvc	0x00000000
    2c7c:	053f1f00 	ldreq	r1, [pc, #-3840]!	; 1d84 <__code_start__-0x627c>
    2c80:	1d030000 	stcne	0, cr0, [r3, #-0]
    2c84:	0000038b 	andeq	r0, r0, fp, lsl #7
    2c88:	00057c1f 	andeq	r7, r5, pc, lsl ip
    2c8c:	a0220300 	eorge	r0, r2, r0, lsl #6
    2c90:	20000003 	andcs	r0, r0, r3
    2c94:	0000021e 	andeq	r0, r0, lr, lsl r2
    2c98:	0e211e03 	cdpeq	14, 2, cr1, cr1, cr3, {0}
    2c9c:	03000005 	movweq	r0, #5
    2ca0:	00002529 	andeq	r2, r0, r9, lsr #10
    2ca4:	00067d00 	andeq	r7, r6, r0, lsl #26
    2ca8:	00811c00 	addeq	r1, r1, r0, lsl #24
    2cac:	00220000 	eoreq	r0, r2, r0
    2cb0:	00026b20 	andeq	r6, r2, r0, lsr #22
    2cb4:	00650300 	rsbeq	r0, r5, r0, lsl #6
    2cb8:	000000ff 	strdeq	r0, [r0], -pc	; <UNPREDICTABLE>
    2cbc:	0c6e0004 	stcleq	0, cr0, [lr], #-16
    2cc0:	01040000 	mrseq	r0, (UNDEF: 4)
    2cc4:	0000005f 	andeq	r0, r0, pc, asr r0
    2cc8:	0005db01 	andeq	sp, r5, r1, lsl #22
    2ccc:	00049a00 	andeq	r9, r4, r0, lsl #20
    2cd0:	00967800 	addseq	r7, r6, r0, lsl #16
    2cd4:	00002800 	andeq	r2, r0, r0, lsl #16
    2cd8:	000caa00 	andeq	sl, ip, r0, lsl #20
    2cdc:	05040200 	streq	r0, [r4, #-512]	; 0x200
    2ce0:	00746e69 	rsbseq	r6, r4, r9, ror #28
    2ce4:	34070403 	strcc	r0, [r7], #-1027	; 0x403
    2ce8:	03000001 	movweq	r0, #1
    2cec:	00e20601 	rsceq	r0, r2, r1, lsl #12
    2cf0:	02030000 	andeq	r0, r3, #0
    2cf4:	00015805 	andeq	r5, r1, r5, lsl #16
    2cf8:	05040300 	streq	r0, [r4, #-768]	; 0x300
    2cfc:	0000014f 	andeq	r0, r0, pc, asr #2
    2d00:	4a050803 	bmi	144d14 <__bss_end__+0x13a19c>
    2d04:	03000001 	movweq	r0, #1
    2d08:	00e00801 	rsceq	r0, r0, r1, lsl #16
    2d0c:	02030000 	andeq	r0, r3, #0
    2d10:	0000ee07 	andeq	lr, r0, r7, lsl #28
    2d14:	07040300 	streq	r0, [r4, -r0, lsl #6]
    2d18:	0000012f 	andeq	r0, r0, pc, lsr #2
    2d1c:	2a070803 	bcs	1c4d30 <__bss_end__+0x1ba1b8>
    2d20:	03000001 	movweq	r0, #1
    2d24:	01410704 	cmpeq	r1, r4, lsl #14
    2d28:	01030000 	mrseq	r0, (UNDEF: 3)
    2d2c:	0000e908 	andeq	lr, r0, r8, lsl #18
    2d30:	7f040400 	svcvc	0x00040400
    2d34:	05000000 	streq	r0, [r0, #-0]
    2d38:	00000072 	andeq	r0, r0, r2, ror r0
    2d3c:	00026b06 	andeq	r6, r2, r6, lsl #22
    2d40:	78040100 	stmdavc	r4, {r8}
    2d44:	28000096 	stmdacs	r0, {r1, r2, r4, r7}
    2d48:	01000000 	mrseq	r0, (UNDEF: 0)
    2d4c:	0000ca9c 	muleq	r0, ip, sl
    2d50:	968c0700 	strls	r0, [ip], r0, lsl #14
    2d54:	00ac0000 	adceq	r0, ip, r0
    2d58:	01080000 	mrseq	r0, (UNDEF: 8)
    2d5c:	1c030550 	cfstr32ne	mvfx0, [r3], {80}	; 0x50
    2d60:	000000a6 	andeq	r0, r0, r6, lsr #1
    2d64:	00969409 	addseq	r9, r6, r9, lsl #8
    2d68:	0000ea00 	andeq	lr, r0, r0, lsl #20
    2d6c:	0000c000 	andeq	ip, r0, r0
    2d70:	50010800 	andpl	r0, r1, r0, lsl #16
    2d74:	00640802 	rsbeq	r0, r4, r2, lsl #16
    2d78:	0096980a 	addseq	r9, r6, sl, lsl #16
    2d7c:	0000fb00 	andeq	pc, r0, r0, lsl #22
    2d80:	250b0000 	strcs	r0, [fp, #-0]
    2d84:	d9000000 	stmdble	r0, {}	; <UNPREDICTABLE>
    2d88:	0c000000 	stceq	0, cr0, [r0], {-0}
    2d8c:	00000079 	andeq	r0, r0, r9, ror r0
    2d90:	057c0d00 	ldrbeq	r0, [ip, #-3328]!	; 0xd00
    2d94:	22020000 	andcs	r0, r2, #0
    2d98:	000000e4 	andeq	r0, r0, r4, ror #1
    2d9c:	00ca0404 	sbceq	r0, sl, r4, lsl #8
    2da0:	ff0e0000 			; <UNDEFINED> instruction: 0xff0e0000
    2da4:	02000005 	andeq	r0, r0, #5
    2da8:	0000fb4f 	andeq	pc, r0, pc, asr #22
    2dac:	002c0c00 	eoreq	r0, ip, r0, lsl #24
    2db0:	0f000000 	svceq	0x00000000
    2db4:	000005f4 	strdeq	r0, [r0], -r4
    2db8:	ff006202 			; <UNDEFINED> instruction: 0xff006202
    2dbc:	04000000 	streq	r0, [r0], #-0
    2dc0:	000d3800 	andeq	r3, sp, r0, lsl #16
    2dc4:	5f010400 	svcpl	0x00010400
    2dc8:	01000000 	mrseq	r0, (UNDEF: 0)
    2dcc:	00000618 	andeq	r0, r0, r8, lsl r6
    2dd0:	0000049a 	muleq	r0, sl, r4
    2dd4:	000096a0 	andeq	r9, r0, r0, lsr #13
    2dd8:	00000034 	andeq	r0, r0, r4, lsr r0
    2ddc:	00000d4a 	andeq	r0, r0, sl, asr #26
    2de0:	69050402 	stmdbvs	r5, {r1, sl}
    2de4:	0300746e 	movweq	r7, #1134	; 0x46e
    2de8:	01340704 	teqeq	r4, r4, lsl #14
    2dec:	01030000 	mrseq	r0, (UNDEF: 3)
    2df0:	0000e206 	andeq	lr, r0, r6, lsl #4
    2df4:	05020300 	streq	r0, [r2, #-768]	; 0x300
    2df8:	00000158 	andeq	r0, r0, r8, asr r1
    2dfc:	4f050403 	svcmi	0x00050403
    2e00:	03000001 	movweq	r0, #1
    2e04:	014a0508 	cmpeq	sl, r8, lsl #10
    2e08:	01030000 	mrseq	r0, (UNDEF: 3)
    2e0c:	0000e008 	andeq	lr, r0, r8
    2e10:	07020300 	streq	r0, [r2, -r0, lsl #6]
    2e14:	000000ee 	andeq	r0, r0, lr, ror #1
    2e18:	2f070403 	svccs	0x00070403
    2e1c:	03000001 	movweq	r0, #1
    2e20:	012a0708 	teqeq	sl, r8, lsl #14
    2e24:	04030000 	streq	r0, [r3], #-0
    2e28:	00014107 	andeq	r4, r1, r7, lsl #2
    2e2c:	08010300 	stmdaeq	r1, {r8, r9}
    2e30:	000000e9 	andeq	r0, r0, r9, ror #1
    2e34:	00061004 	andeq	r1, r6, r4
    2e38:	a00d0100 	andge	r0, sp, r0, lsl #2
    2e3c:	34000096 	strcc	r0, [r0], #-150	; 0x96
    2e40:	01000000 	mrseq	r0, (UNDEF: 0)
    2e44:	0000d89c 	muleq	r0, ip, r8
    2e48:	03fd0500 	mvnseq	r0, #0, 10
    2e4c:	0e010000 	cdpeq	0, 0, cr0, cr1, cr0, {0}
    2e50:	00000025 	andeq	r0, r0, r5, lsr #32
    2e54:	00040b05 	andeq	r0, r4, r5, lsl #22
    2e58:	250e0100 	strcs	r0, [lr, #-256]	; 0x100
    2e5c:	06000000 	streq	r0, [r0], -r0
    2e60:	000000b6 	strheq	r0, [r0], -r6
    2e64:	62070f01 	andvs	r0, r7, #1, 30
    2e68:	01007373 	tsteq	r0, r3, ror r3
    2e6c:	0000d811 	andeq	sp, r0, r1, lsl r8
    2e70:	00132300 	andseq	r2, r3, r0, lsl #6
    2e74:	06080800 	streq	r0, [r8], -r0, lsl #16
    2e78:	12010000 	andne	r0, r1, #0
    2e7c:	000000d8 	ldrdeq	r0, [r0], -r8
    2e80:	0096c809 	addseq	ip, r6, r9, lsl #16
    2e84:	0000f400 	andeq	pc, r0, r0, lsl #8
    2e88:	96cc0900 	strbls	r0, [ip], r0, lsl #18
    2e8c:	00fb0000 	rscseq	r0, fp, r0
    2e90:	0a000000 	beq	2e98 <__code_start__-0x5168>
    2e94:	00002504 	andeq	r2, r0, r4, lsl #10
    2e98:	03fd0500 	mvnseq	r0, #0, 10
    2e9c:	0e010000 	cdpeq	0, 0, cr0, cr1, cr0, {0}
    2ea0:	00000025 	andeq	r0, r0, r5, lsr #32
    2ea4:	00040b05 	andeq	r0, r4, r5, lsl #22
    2ea8:	250e0100 	strcs	r0, [lr, #-256]	; 0x100
    2eac:	06000000 	streq	r0, [r0], -r0
    2eb0:	000000b6 	strheq	r0, [r0], -r6
    2eb4:	6b06d702 	blvs	1b8ac4 <__bss_end__+0x1adf4c>
    2eb8:	02000002 	andeq	r0, r0, #2
    2ebc:	01ad0065 			; <UNDEFINED> instruction: 0x01ad0065
    2ec0:	00040000 	andeq	r0, r4, r0
    2ec4:	00000dcc 	andeq	r0, r0, ip, asr #27
    2ec8:	005f0104 	subseq	r0, pc, r4, lsl #2
    2ecc:	39010000 	stmdbcc	r1, {}	; <UNPREDICTABLE>
    2ed0:	9a000006 	bls	2ef0 <__code_start__-0x5110>
    2ed4:	98000004 	stmdals	r0, {r2}
    2ed8:	00000000 	andeq	r0, r0, r0
    2edc:	f1000000 	cps	#0
    2ee0:	0200000d 	andeq	r0, r0, #13
    2ee4:	6e690504 	cdpvs	5, 6, cr0, cr9, cr4, {0}
    2ee8:	04030074 	streq	r0, [r3], #-116	; 0x74
    2eec:	00013407 	andeq	r3, r1, r7, lsl #8
    2ef0:	06010300 	streq	r0, [r1], -r0, lsl #6
    2ef4:	000000e2 	andeq	r0, r0, r2, ror #1
    2ef8:	58050203 	stmdapl	r5, {r0, r1, r9}
    2efc:	03000001 	movweq	r0, #1
    2f00:	014f0504 	cmpeq	pc, r4, lsl #10
    2f04:	08030000 	stmdaeq	r3, {}	; <UNPREDICTABLE>
    2f08:	00014a05 	andeq	r4, r1, r5, lsl #20
    2f0c:	08010300 	stmdaeq	r1, {r8, r9}
    2f10:	000000e0 	andeq	r0, r0, r0, ror #1
    2f14:	ee070203 	cdp	2, 0, cr0, cr7, cr3, {0}
    2f18:	03000000 	movweq	r0, #0
    2f1c:	012f0704 	teqeq	pc, r4, lsl #14
    2f20:	08030000 	stmdaeq	r3, {}	; <UNPREDICTABLE>
    2f24:	00012a07 	andeq	r2, r1, r7, lsl #20
    2f28:	07040300 	streq	r0, [r4, -r0, lsl #6]
    2f2c:	00000141 	andeq	r0, r0, r1, asr #2
    2f30:	e9080103 	stmdb	r8, {r0, r1, r8}
    2f34:	04000000 	streq	r0, [r0], #-0
    2f38:	0000062b 	andeq	r0, r0, fp, lsr #12
    2f3c:	00250e01 	eoreq	r0, r5, r1, lsl #28
    2f40:	96d40000 	ldrbls	r0, [r4], r0
    2f44:	00180000 	andseq	r0, r8, r0
    2f48:	9c010000 	stcls	0, cr0, [r1], {-0}
    2f4c:	000000a2 	andeq	r0, r0, r2, lsr #1
    2f50:	00069605 	andeq	r9, r6, r5, lsl #12
    2f54:	2c0f0100 	stfcss	f0, [pc], {-0}
    2f58:	43000000 	movwmi	r0, #0
    2f5c:	00000013 	andeq	r0, r0, r3, lsl r0
    2f60:	00066d06 	andeq	r6, r6, r6, lsl #26
    2f64:	ec170100 	ldfs	f0, [r7], {-0}
    2f68:	14000096 	strne	r0, [r0], #-150	; 0x96
    2f6c:	01000000 	mrseq	r0, (UNDEF: 0)
    2f70:	0000c79c 	muleq	r0, ip, r7
    2f74:	06960500 	ldreq	r0, [r6], r0, lsl #10
    2f78:	18010000 	stmdane	r1, {}	; <UNPREDICTABLE>
    2f7c:	0000002c 	andeq	r0, r0, ip, lsr #32
    2f80:	00001362 	andeq	r1, r0, r2, ror #6
    2f84:	05f40600 	ldrbeq	r0, [r4, #1536]!	; 0x600
    2f88:	1f010000 	svcne	0x00010000
    2f8c:	00009700 	andeq	r9, r0, r0, lsl #14
    2f90:	00000048 	andeq	r0, r0, r8, asr #32
    2f94:	01779c01 	cmneq	r7, r1, lsl #24
    2f98:	8e070000 	cdphi	0, 0, cr0, cr7, cr0, {0}
    2f9c:	01000006 	tsteq	r0, r6
    2fa0:	0001772a 	andeq	r7, r1, sl, lsr #14
    2fa4:	10001c00 	andne	r1, r0, r0, lsl #24
    2fa8:	06650720 	strbteq	r0, [r5], -r0, lsr #14
    2fac:	2b010000 	blcs	42fb4 <__bss_end__+0x3843c>
    2fb0:	00000177 	andeq	r0, r0, r7, ror r1
    2fb4:	20100024 	andscs	r0, r0, r4, lsr #32
    2fb8:	00068207 	andeq	r8, r6, r7, lsl #4
    2fbc:	772c0100 	strvc	r0, [ip, -r0, lsl #2]!
    2fc0:	00000001 	andeq	r0, r0, r1
    2fc4:	085a0000 	ldmdaeq	sl, {}^	; <UNPREDICTABLE>
    2fc8:	0000064c 	andeq	r0, r0, ip, asr #12
    2fcc:	01772d01 	cmneq	r7, r1, lsl #26
    2fd0:	09200000 	stmdbeq	r0!, {}	; <UNPREDICTABLE>
    2fd4:	00009708 	andeq	r9, r0, r8, lsl #14
    2fd8:	00000079 	andeq	r0, r0, r9, ror r0
    2fdc:	00971409 	addseq	r1, r7, r9, lsl #8
    2fe0:	0000a200 	andeq	sl, r0, r0, lsl #4
    2fe4:	971c0a00 	ldrls	r0, [ip, -r0, lsl #20]
    2fe8:	018d0000 	orreq	r0, sp, r0
    2fec:	013a0000 	teqeq	sl, r0
    2ff0:	010b0000 	mrseq	r0, (UNDEF: 11)
    2ff4:	004e0150 	subeq	r0, lr, r0, asr r1
    2ff8:	0097280a 	addseq	r2, r7, sl, lsl #16
    2ffc:	00019e00 	andeq	r9, r1, r0, lsl #28
    3000:	00015a00 	andeq	r5, r1, r0, lsl #20
    3004:	51010b00 	tstpl	r1, r0, lsl #22
    3008:	00010c05 	andeq	r0, r1, r5, lsl #24
    300c:	010b5a00 	tsteq	fp, r0, lsl #20
    3010:	240c0550 	strcs	r0, [ip], #-1360	; 0x550
    3014:	00201000 	eoreq	r1, r0, r0
    3018:	0097340c 	addseq	r3, r7, ip, lsl #8
    301c:	00019e00 	andeq	r9, r1, r0, lsl #28
    3020:	51010b00 	tstpl	r1, r0, lsl #22
    3024:	00200c05 	eoreq	r0, r0, r5, lsl #24
    3028:	010b5a00 	tsteq	fp, r0, lsl #20
    302c:	1c0c0550 	cfstr32ne	mvfx0, [ip], {80}	; 0x50
    3030:	00201000 	eoreq	r1, r0, r0
    3034:	00250d00 	eoreq	r0, r5, r0, lsl #26
    3038:	2e080000 	cdpcs	0, 0, cr0, cr8, cr0, {0}
    303c:	01000006 	tsteq	r0, r6
    3040:	0001880d 	andeq	r8, r1, sp, lsl #16
    3044:	2c0d1000 	stccs	0, cr1, [sp], {-0}
    3048:	0e000000 	cdpeq	0, 0, cr0, cr0, cr0, {0}
    304c:	000005ff 	strdeq	r0, [r0], -pc	; <UNPREDICTABLE>
    3050:	019e4f02 	orrseq	r4, lr, r2, lsl #30
    3054:	2c0f0000 	stccs	0, cr0, [pc], {-0}
    3058:	00000000 	andeq	r0, r0, r0
    305c:	00067c10 	andeq	r7, r6, r0, lsl ip
    3060:	0f9b0200 	svceq	0x009b0200
    3064:	0000002c 	andeq	r0, r0, ip, lsr #32
    3068:	00002c0f 	andeq	r2, r0, pc, lsl #24
    306c:	d8000000 	stmdale	r0, {}	; <UNPREDICTABLE>
    3070:	04000001 	streq	r0, [r0], #-1
    3074:	000eba00 	andeq	fp, lr, r0, lsl #20
    3078:	5f010400 	svcpl	0x00010400
    307c:	01000000 	mrseq	r0, (UNDEF: 0)
    3080:	000006b8 			; <UNDEFINED> instruction: 0x000006b8
    3084:	0000049a 	muleq	r0, sl, r4
    3088:	00009748 	andeq	r9, r0, r8, asr #14
    308c:	00000088 	andeq	r0, r0, r8, lsl #1
    3090:	00000e97 	muleq	r0, r7, lr
    3094:	69050402 	stmdbvs	r5, {r1, sl}
    3098:	0300746e 	movweq	r7, #1134	; 0x46e
    309c:	01340704 	teqeq	r4, r4, lsl #14
    30a0:	01030000 	mrseq	r0, (UNDEF: 3)
    30a4:	0000e206 	andeq	lr, r0, r6, lsl #4
    30a8:	05020300 	streq	r0, [r2, #-768]	; 0x300
    30ac:	00000158 	andeq	r0, r0, r8, asr r1
    30b0:	4f050403 	svcmi	0x00050403
    30b4:	03000001 	movweq	r0, #1
    30b8:	014a0508 	cmpeq	sl, r8, lsl #10
    30bc:	01030000 	mrseq	r0, (UNDEF: 3)
    30c0:	0000e008 	andeq	lr, r0, r8
    30c4:	07020300 	streq	r0, [r2, -r0, lsl #6]
    30c8:	000000ee 	andeq	r0, r0, lr, ror #1
    30cc:	2f070403 	svccs	0x00070403
    30d0:	03000001 	movweq	r0, #1
    30d4:	012a0708 	teqeq	sl, r8, lsl #14
    30d8:	04030000 	streq	r0, [r3], #-0
    30dc:	00014107 	andeq	r4, r1, r7, lsl #2
    30e0:	08010300 	stmdaeq	r1, {r8, r9}
    30e4:	000000e9 	andeq	r0, r0, r9, ror #1
    30e8:	0006d604 	andeq	sp, r6, r4, lsl #12
    30ec:	48050100 	stmdami	r5, {r8}
    30f0:	1c000097 	stcne	0, cr0, [r0], {151}	; 0x97
    30f4:	01000000 	mrseq	r0, (UNDEF: 0)
    30f8:	00009e9c 	muleq	r0, ip, lr
    30fc:	06d00500 	ldrbeq	r0, [r0], r0, lsl #10
    3100:	05010000 	streq	r0, [r1, #-0]
    3104:	0000002c 	andeq	r0, r0, ip, lsr #32
    3108:	0000138c 	andeq	r1, r0, ip, lsl #7
    310c:	069b0600 	ldreq	r0, [fp], r0, lsl #12
    3110:	11010000 	mrsne	r0, (UNDEF: 1)
    3114:	0000002c 	andeq	r0, r0, ip, lsr #32
    3118:	00009764 	andeq	r9, r0, r4, ror #14
    311c:	00000014 	andeq	r0, r0, r4, lsl r0
    3120:	00cb9c01 	sbceq	r9, fp, r1, lsl #24
    3124:	70070000 	andvc	r0, r7, r0
    3128:	ca000097 	bgt	338c <__code_start__-0x4c74>
    312c:	08000001 	stmdaeq	r0, {r0}
    3130:	0c055001 	stceq	0, cr5, [r5], {1}
    3134:	20003004 	andcs	r3, r0, r4
    3138:	ec060000 	stc	0, cr0, [r6], {-0}
    313c:	01000006 	tsteq	r0, r6
    3140:	00002c16 	andeq	r2, r0, r6, lsl ip
    3144:	00977800 	addseq	r7, r7, r0, lsl #16
    3148:	00000c00 	andeq	r0, r0, r0, lsl #24
    314c:	f99c0100 			; <UNDEFINED> instruction: 0xf99c0100
    3150:	09000000 	stmdbeq	r0, {}	; <UNPREDICTABLE>
    3154:	1a010075 	bne	43330 <__bss_end__+0x387b8>
    3158:	0000002c 	andeq	r0, r0, ip, lsr #32
    315c:	800a5001 	andhi	r5, sl, r1
    3160:	9e000097 	mcrls	0, 0, r0, cr0, cr7, {4}
    3164:	00000000 	andeq	r0, r0, r0
    3168:	0006e304 	andeq	lr, r6, r4, lsl #6
    316c:	841f0100 	ldrhi	r0, [pc], #-256	; 3174 <__code_start__-0x4e8c>
    3170:	24000097 	strcs	r0, [r0], #-151	; 0x97
    3174:	01000000 	mrseq	r0, (UNDEF: 0)
    3178:	0001579c 	muleq	r1, ip, r7
    317c:	73750b00 	cmnvc	r5, #0, 22
    3180:	2c1f0100 	ldfcss	f0, [pc], {-0}
    3184:	c0000000 	andgt	r0, r0, r0
    3188:	09000013 	stmdbeq	r0, {r0, r1, r4}
    318c:	01006272 	tsteq	r0, r2, ror r2
    3190:	00002c20 	andeq	r2, r0, r0, lsr #24
    3194:	0c540100 	ldfeqe	f0, [r4], {-0}
    3198:	00009794 	muleq	r0, r4, r7
    319c:	00000010 	andeq	r0, r0, r0, lsl r0
    31a0:	0000014d 	andeq	r0, r0, sp, asr #2
    31a4:	0061720d 	rsbeq	r7, r1, sp, lsl #4
    31a8:	002c2201 	eoreq	r2, ip, r1, lsl #4
    31ac:	13de0000 	bicsne	r0, lr, #0
    31b0:	980a0000 	stmdals	sl, {}	; <UNPREDICTABLE>
    31b4:	cb000097 	blgt	3418 <__code_start__-0x4be8>
    31b8:	00000000 	andeq	r0, r0, r0
    31bc:	0097900a 	addseq	r9, r7, sl
    31c0:	0000cb00 	andeq	ip, r0, r0, lsl #22
    31c4:	ff040000 			; <UNDEFINED> instruction: 0xff040000
    31c8:	01000005 	tsteq	r0, r5
    31cc:	0097a828 	addseq	sl, r7, r8, lsr #16
    31d0:	00001400 	andeq	r1, r0, r0, lsl #8
    31d4:	909c0100 	addsls	r0, ip, r0, lsl #2
    31d8:	0b000001 	bleq	31e4 <__code_start__-0x4e1c>
    31dc:	0100736d 	tsteq	r0, sp, ror #6
    31e0:	00002c28 	andeq	r2, r0, r8, lsr #24
    31e4:	0013f100 	andseq	pc, r3, r0, lsl #2
    31e8:	97b80700 	ldrls	r0, [r8, r0, lsl #14]!
    31ec:	00f90000 	rscseq	r0, r9, r0
    31f0:	01080000 	mrseq	r0, (UNDEF: 8)
    31f4:	01f30750 	mvnseq	r0, r0, asr r7
    31f8:	03e80a50 	mvneq	r0, #80, 20	; 0x50000
    31fc:	0400001e 	streq	r0, [r0], #-30
    3200:	000006ae 	andeq	r0, r0, lr, lsr #13
    3204:	97bc2b01 	ldrls	r2, [ip, r1, lsl #22]!
    3208:	00140000 	andseq	r0, r4, r0
    320c:	9c010000 	stcls	0, cr0, [r1], {-0}
    3210:	000001ca 	andeq	r0, r0, sl, asr #3
    3214:	6365730b 	cmnvs	r5, #738197504	; 0x2c000000
    3218:	2c2b0100 	stfcss	f0, [fp], #-0
    321c:	12000000 	andne	r0, r0, #0
    3220:	07000014 	smladeq	r0, r4, r0, r0
    3224:	000097cc 	andeq	r9, r0, ip, asr #15
    3228:	00000157 	andeq	r0, r0, r7, asr r1
    322c:	07500108 	ldrbeq	r0, [r0, -r8, lsl #2]
    3230:	0a5001f3 	beq	1403a04 <__bss_end__+0x13f8e8c>
    3234:	001e03e8 	andseq	r0, lr, r8, ror #7
    3238:	06ca0e00 	strbeq	r0, [sl], r0, lsl #28
    323c:	a7020000 	strge	r0, [r2, -r0]
    3240:	0000002c 	andeq	r0, r0, ip, lsr #32
    3244:	00002c0f 	andeq	r2, r0, pc, lsl #24
    3248:	c5000000 	strgt	r0, [r0, #-0]
    324c:	0400000c 	streq	r0, [r0], #-12
    3250:	000f9d00 	andeq	r9, pc, r0, lsl #26
    3254:	a3010400 	movwge	r0, #5120	; 0x1400
    3258:	0c00000a 	stceq	0, cr0, [r0], {10}
    325c:	000007fa 	strdeq	r0, [r0], -sl
    3260:	00000815 	andeq	r0, r0, r5, lsl r8
    3264:	0000981c 	andeq	r9, r0, ip, lsl r8
    3268:	00000178 	andeq	r0, r0, r8, ror r1
    326c:	00000f47 	andeq	r0, r0, r7, asr #30
    3270:	69050402 	stmdbvs	r5, {r1, sl}
    3274:	0300746e 	movweq	r7, #1134	; 0x46e
    3278:	01340704 	teqeq	r4, r4, lsl #14
    327c:	2c040000 	stccs	0, cr0, [r4], {-0}
    3280:	03000000 	movweq	r0, #0
    3284:	00e20601 	rsceq	r0, r2, r1, lsl #12
    3288:	02030000 	andeq	r0, r3, #0
    328c:	00015805 	andeq	r5, r1, r5, lsl #16
    3290:	05040300 	streq	r0, [r4, #-768]	; 0x300
    3294:	0000014f 	andeq	r0, r0, pc, asr #2
    3298:	4a050803 	bmi	1452ac <__bss_end__+0x13a734>
    329c:	03000001 	movweq	r0, #1
    32a0:	00e00801 	rsceq	r0, r0, r1, lsl #16
    32a4:	02030000 	andeq	r0, r3, #0
    32a8:	0000ee07 	andeq	lr, r0, r7, lsl #28
    32ac:	07040300 	streq	r0, [r4, -r0, lsl #6]
    32b0:	0000012f 	andeq	r0, r0, pc, lsr #2
    32b4:	2a070803 	bcs	1c52c8 <__bss_end__+0x1ba750>
    32b8:	05000001 	streq	r0, [r0, #-1]
    32bc:	000009b8 			; <UNDEFINED> instruction: 0x000009b8
    32c0:	00250702 	eoreq	r0, r5, r2, lsl #14
    32c4:	a2050000 	andge	r0, r5, #0
    32c8:	03000009 	movweq	r0, #9
    32cc:	0000462c 	andeq	r4, r0, ip, lsr #12
    32d0:	0a7e0500 	beq	1f846d8 <__bss_end__+0x1f79b60>
    32d4:	72030000 	andvc	r0, r3, #0
    32d8:	00000046 	andeq	r0, r0, r6, asr #32
    32dc:	00094606 	andeq	r4, r9, r6, lsl #12
    32e0:	01650400 	cmneq	r5, r0, lsl #8
    32e4:	0000002c 	andeq	r0, r0, ip, lsr #32
    32e8:	a6030407 	strge	r0, [r3], -r7, lsl #8
    32ec:	000000bc 	strheq	r0, [r0], -ip
    32f0:	00093108 	andeq	r3, r9, r8, lsl #2
    32f4:	91a80300 			; <UNDEFINED> instruction: 0x91a80300
    32f8:	08000000 	stmdaeq	r0, {}	; <UNPREDICTABLE>
    32fc:	000008cd 	andeq	r0, r0, sp, asr #17
    3300:	00bca903 	adcseq	sl, ip, r3, lsl #18
    3304:	09000000 	stmdbeq	r0, {}	; <UNPREDICTABLE>
    3308:	00000054 	andeq	r0, r0, r4, asr r0
    330c:	000000cc 	andeq	r0, r0, ip, asr #1
    3310:	0000cc0a 	andeq	ip, r0, sl, lsl #24
    3314:	03000300 	movweq	r0, #768	; 0x300
    3318:	01410704 	cmpeq	r1, r4, lsl #14
    331c:	080b0000 	stmdaeq	fp, {}	; <UNPREDICTABLE>
    3320:	00f4a303 	rscseq	sl, r4, r3, lsl #6
    3324:	630c0000 	movwvs	r0, #49152	; 0xc000
    3328:	0300000a 	movweq	r0, #10
    332c:	000025a5 	andeq	r2, r0, r5, lsr #11
    3330:	6b0c0000 	blvs	303338 <__bss_end__+0x2f87c0>
    3334:	0300000a 	movweq	r0, #10
    3338:	00009daa 	andeq	r9, r0, sl, lsr #27
    333c:	05000400 	streq	r0, [r0, #-1024]	; 0x400
    3340:	000009f6 	strdeq	r0, [r0], -r6
    3344:	00d3ab03 	sbcseq	sl, r3, r3, lsl #22
    3348:	96050000 	strls	r0, [r5], -r0
    334c:	03000008 	movweq	r0, #8
    3350:	000070af 	andeq	r7, r0, pc, lsr #1
    3354:	0e040d00 	cdpeq	13, 0, cr0, cr4, cr0, {0}
    3358:	00011204 	andeq	r1, r1, r4, lsl #4
    335c:	08010300 	stmdaeq	r1, {r8, r9}
    3360:	000000e9 	andeq	r0, r0, r9, ror #1
    3364:	0001120f 	andeq	r1, r1, pc, lsl #4
    3368:	0b200500 	bleq	804770 <__bss_end__+0x7f9bf8>
    336c:	16050000 	strne	r0, [r5], -r0
    3370:	00000062 	andeq	r0, r0, r2, rrx
    3374:	0008a710 	andeq	sl, r8, r0, lsl r7
    3378:	2d051800 	stccs	8, cr1, [r5, #-0]
    337c:	0000017c 	andeq	r0, r0, ip, ror r1
    3380:	000a170c 	andeq	r1, sl, ip, lsl #14
    3384:	7c2f0500 	cfstr32vc	mvfx0, [pc], #-0	; 338c <__code_start__-0x4c74>
    3388:	00000001 	andeq	r0, r0, r1
    338c:	006b5f11 	rsbeq	r5, fp, r1, lsl pc
    3390:	00253005 	eoreq	r3, r5, r5
    3394:	0c040000 	stceq	0, cr0, [r4], {-0}
    3398:	00000a4e 	andeq	r0, r0, lr, asr #20
    339c:	00253005 	eoreq	r3, r5, r5
    33a0:	0c080000 	stceq	0, cr0, [r8], {-0}
    33a4:	00000882 	andeq	r0, r0, r2, lsl #17
    33a8:	00253005 	eoreq	r3, r5, r5
    33ac:	0c0c0000 	stceq	0, cr0, [ip], {-0}
    33b0:	00000b67 	andeq	r0, r0, r7, ror #22
    33b4:	00253005 	eoreq	r3, r5, r5
    33b8:	11100000 	tstne	r0, r0
    33bc:	0500785f 	streq	r7, [r0, #-2143]	; 0x85f
    33c0:	00018231 	andeq	r8, r1, r1, lsr r2
    33c4:	0e001400 	cfcpyseq	mvf1, mvf0
    33c8:	00012904 	andeq	r2, r1, r4, lsl #18
    33cc:	011e0900 	tsteq	lr, r0, lsl #18
    33d0:	01920000 	orrseq	r0, r2, r0
    33d4:	cc0a0000 	stcgt	0, cr0, [sl], {-0}
    33d8:	00000000 	andeq	r0, r0, r0
    33dc:	08c81000 	stmiaeq	r8, {ip}^
    33e0:	05240000 	streq	r0, [r4, #-0]!
    33e4:	00020b35 	andeq	r0, r2, r5, lsr fp
    33e8:	07800c00 	streq	r0, [r0, r0, lsl #24]
    33ec:	37050000 	strcc	r0, [r5, -r0]
    33f0:	00000025 	andeq	r0, r0, r5, lsr #32
    33f4:	0a860c00 	beq	fe1863fc <__bss_end__+0xfe17b884>
    33f8:	38050000 	stmdacc	r5, {}	; <UNPREDICTABLE>
    33fc:	00000025 	andeq	r0, r0, r5, lsr #32
    3400:	07ae0c04 	streq	r0, [lr, r4, lsl #24]!
    3404:	39050000 	stmdbcc	r5, {}	; <UNPREDICTABLE>
    3408:	00000025 	andeq	r0, r0, r5, lsr #32
    340c:	0c570c08 	mrrceq	12, 0, r0, r7, cr8
    3410:	3a050000 	bcc	143418 <__bss_end__+0x1388a0>
    3414:	00000025 	andeq	r0, r0, r5, lsr #32
    3418:	09860c0c 	stmibeq	r6, {r2, r3, sl, fp}
    341c:	3b050000 	blcc	143424 <__bss_end__+0x1388ac>
    3420:	00000025 	andeq	r0, r0, r5, lsr #32
    3424:	095b0c10 	ldmdbeq	fp, {r4, sl, fp}^
    3428:	3c050000 	stccc	0, cr0, [r5], {-0}
    342c:	00000025 	andeq	r0, r0, r5, lsr #32
    3430:	0b6c0c14 	bleq	1b06488 <__bss_end__+0x1afb910>
    3434:	3d050000 	stccc	0, cr0, [r5, #-0]
    3438:	00000025 	andeq	r0, r0, r5, lsr #32
    343c:	09d80c18 	ldmibeq	r8, {r3, r4, sl, fp}^
    3440:	3e050000 	cdpcc	0, 0, cr0, cr5, cr0, {0}
    3444:	00000025 	andeq	r0, r0, r5, lsr #32
    3448:	0c1e0c1c 	ldceq	12, cr0, [lr], {28}
    344c:	3f050000 	svccc	0x00050000
    3450:	00000025 	andeq	r0, r0, r5, lsr #32
    3454:	bd120020 	ldclt	0, cr0, [r2, #-128]	; 0xffffff80
    3458:	08000007 	stmdaeq	r0, {r0, r1, r2}
    345c:	4b480501 	blmi	1204868 <__bss_end__+0x11f9cf0>
    3460:	0c000002 	stceq	0, cr0, [r0], {2}
    3464:	00000869 	andeq	r0, r0, r9, ror #16
    3468:	024b4905 	subeq	r4, fp, #81920	; 0x14000
    346c:	0c000000 	stceq	0, cr0, [r0], {-0}
    3470:	000006fb 	strdeq	r0, [r0], -fp
    3474:	024b4a05 	subeq	r4, fp, #20480	; 0x5000
    3478:	13800000 	orrne	r0, r0, #0
    347c:	00000b12 	andeq	r0, r0, r2, lsl fp
    3480:	011e4c05 	tsteq	lr, r5, lsl #24
    3484:	01000000 	mrseq	r0, (UNDEF: 0)
    3488:	0007e213 	andeq	lr, r7, r3, lsl r2
    348c:	1e4f0500 	cdpne	5, 4, cr0, cr15, cr0, {0}
    3490:	04000001 	streq	r0, [r0], #-1
    3494:	0a090001 	beq	2434a0 <__bss_end__+0x238928>
    3498:	5b000001 	blpl	34a4 <__code_start__-0x4b5c>
    349c:	0a000002 	beq	34ac <__code_start__-0x4b54>
    34a0:	000000cc 	andeq	r0, r0, ip, asr #1
    34a4:	8f12001f 	svchi	0x0012001f
    34a8:	90000009 	andls	r0, r0, r9
    34ac:	995b0501 	ldmdbls	fp, {r0, r8, sl}^
    34b0:	0c000002 	stceq	0, cr0, [r0], {2}
    34b4:	00000a17 	andeq	r0, r0, r7, lsl sl
    34b8:	02995c05 	addseq	r5, r9, #1280	; 0x500
    34bc:	0c000000 	stceq	0, cr0, [r0], {-0}
    34c0:	00000a2f 	andeq	r0, r0, pc, lsr #20
    34c4:	00255d05 	eoreq	r5, r5, r5, lsl #26
    34c8:	0c040000 	stceq	0, cr0, [r4], {-0}
    34cc:	0000087d 	andeq	r0, r0, sp, ror r8
    34d0:	029f5f05 	addseq	r5, pc, #5, 30
    34d4:	0c080000 	stceq	0, cr0, [r8], {-0}
    34d8:	000007bd 			; <UNDEFINED> instruction: 0x000007bd
    34dc:	020b6005 	andeq	r6, fp, #5
    34e0:	00880000 	addeq	r0, r8, r0
    34e4:	025b040e 	subseq	r0, fp, #234881024	; 0xe000000
    34e8:	af090000 	svcge	0x00090000
    34ec:	af000002 	svcge	0x00000002
    34f0:	0a000002 	beq	3500 <__code_start__-0x4b00>
    34f4:	000000cc 	andeq	r0, r0, ip, asr #1
    34f8:	040e001f 	streq	r0, [lr], #-31
    34fc:	000002b5 			; <UNDEFINED> instruction: 0x000002b5
    3500:	09e21014 	stmibeq	r2!, {r2, r4, ip}^
    3504:	05080000 	streq	r0, [r8, #-0]
    3508:	0002db73 	andeq	sp, r2, r3, ror fp
    350c:	07a30c00 	streq	r0, [r3, r0, lsl #24]!
    3510:	74050000 	strvc	r0, [r5], #-0
    3514:	000002db 	ldrdeq	r0, [r0], -fp
    3518:	07070c00 	streq	r0, [r7, -r0, lsl #24]
    351c:	75050000 	strvc	r0, [r5, #-0]
    3520:	00000025 	andeq	r0, r0, r5, lsr #32
    3524:	040e0004 	streq	r0, [lr], #-4
    3528:	00000054 	andeq	r0, r0, r4, asr r0
    352c:	000a0110 	andeq	r0, sl, r0, lsl r1
    3530:	b3056800 	movwlt	r6, #22528	; 0x5800
    3534:	0000040b 	andeq	r0, r0, fp, lsl #8
    3538:	00705f11 	rsbseq	r5, r0, r1, lsl pc
    353c:	02dbb405 	sbcseq	fp, fp, #83886080	; 0x5000000
    3540:	11000000 	mrsne	r0, (UNDEF: 0)
    3544:	0500725f 	streq	r7, [r0, #-607]	; 0x25f
    3548:	000025b5 			; <UNDEFINED> instruction: 0x000025b5
    354c:	5f110400 	svcpl	0x00110400
    3550:	b6050077 			; <UNDEFINED> instruction: 0xb6050077
    3554:	00000025 	andeq	r0, r0, r5, lsr #32
    3558:	07db0c08 	ldrbeq	r0, [fp, r8, lsl #24]
    355c:	b7050000 	strlt	r0, [r5, -r0]
    3560:	0000003f 	andeq	r0, r0, pc, lsr r0
    3564:	08ee0c0c 	stmiaeq	lr!, {r2, r3, sl, fp}^
    3568:	b8050000 	stmdalt	r5, {}	; <UNPREDICTABLE>
    356c:	0000003f 	andeq	r0, r0, pc, lsr r0
    3570:	625f110e 	subsvs	r1, pc, #-2147483645	; 0x80000003
    3574:	b9050066 	stmdblt	r5, {r1, r2, r5, r6}
    3578:	000002b6 			; <UNDEFINED> instruction: 0x000002b6
    357c:	074a0c10 	smlaldeq	r0, sl, r0, ip
    3580:	ba050000 	blt	143588 <__bss_end__+0x138a10>
    3584:	00000025 	andeq	r0, r0, r5, lsr #32
    3588:	07cb0c18 	bfieq	r0, r8, (invalid: 24:11)
    358c:	c1050000 	mrsgt	r0, (UNDEF: 5)
    3590:	0000010a 	andeq	r0, r0, sl, lsl #2
    3594:	0c7e0c1c 	ldcleq	12, cr0, [lr], #-112	; 0xffffff90
    3598:	c3050000 	movwgt	r0, #20480	; 0x5000
    359c:	00000566 	andeq	r0, r0, r6, ror #10
    35a0:	0c980c20 	ldceq	12, cr0, [r8], {32}
    35a4:	c5050000 	strgt	r0, [r5, #-0]
    35a8:	00000590 	muleq	r0, r0, r5
    35ac:	0a730c24 	beq	1cc6644 <__bss_end__+0x1cbbacc>
    35b0:	c8050000 	stmdagt	r5, {}	; <UNPREDICTABLE>
    35b4:	000005b4 			; <UNDEFINED> instruction: 0x000005b4
    35b8:	0c380c28 	ldceq	12, cr0, [r8], #-160	; 0xffffff60
    35bc:	c9050000 	stmdbgt	r5, {}	; <UNPREDICTABLE>
    35c0:	000005ce 	andeq	r0, r0, lr, asr #11
    35c4:	755f112c 	ldrbvc	r1, [pc, #-300]	; 34a0 <__code_start__-0x4b60>
    35c8:	cc050062 	stcgt	0, cr0, [r5], {98}	; 0x62
    35cc:	000002b6 			; <UNDEFINED> instruction: 0x000002b6
    35d0:	755f1130 	ldrbvc	r1, [pc, #-304]	; 34a8 <__code_start__-0x4b58>
    35d4:	cd050070 	stcgt	0, cr0, [r5, #-448]	; 0xfffffe40
    35d8:	000002db 	ldrdeq	r0, [r0], -fp
    35dc:	755f1138 	ldrbvc	r1, [pc, #-312]	; 34ac <__code_start__-0x4b54>
    35e0:	ce050072 	mcrgt	0, 0, r0, cr5, cr2, {3}
    35e4:	00000025 	andeq	r0, r0, r5, lsr #32
    35e8:	078e0c3c 			; <UNDEFINED> instruction: 0x078e0c3c
    35ec:	d1050000 	mrsle	r0, (UNDEF: 5)
    35f0:	000005d4 	ldrdeq	r0, [r0], -r4
    35f4:	0be30c40 	bleq	ff8c66fc <__bss_end__+0xff8bbb84>
    35f8:	d2050000 	andle	r0, r5, #0
    35fc:	000005e4 	andeq	r0, r0, r4, ror #11
    3600:	6c5f1143 	ldfvse	f1, [pc], {67}	; 0x43
    3604:	d5050062 	strle	r0, [r5, #-98]	; 0x62
    3608:	000002b6 			; <UNDEFINED> instruction: 0x000002b6
    360c:	07f10c44 	ldrbeq	r0, [r1, r4, asr #24]!
    3610:	d8050000 	stmdale	r5, {}	; <UNPREDICTABLE>
    3614:	00000025 	andeq	r0, r0, r5, lsr #32
    3618:	09650c4c 	stmdbeq	r5!, {r2, r3, r6, sl, fp}^
    361c:	d9050000 	stmdble	r5, {}	; <UNPREDICTABLE>
    3620:	0000007b 	andeq	r0, r0, fp, ror r0
    3624:	0bce0c50 	bleq	ff38676c <__bss_end__+0xff37bbf4>
    3628:	dc050000 	stcle	0, cr0, [r5], {-0}
    362c:	00000429 	andeq	r0, r0, r9, lsr #8
    3630:	094d0c54 	stmdbeq	sp, {r2, r4, r6, sl, fp}^
    3634:	e0050000 	and	r0, r5, r0
    3638:	000000ff 	strdeq	r0, [r0], -pc	; <UNPREDICTABLE>
    363c:	0a090c58 	beq	2467a4 <__bss_end__+0x23bc2c>
    3640:	e2050000 	and	r0, r5, #0
    3644:	000000f4 	strdeq	r0, [r0], -r4
    3648:	09530c5c 	ldmdbeq	r3, {r2, r3, r4, r6, sl, fp}^
    364c:	e3050000 	movw	r0, #20480	; 0x5000
    3650:	00000025 	andeq	r0, r0, r5, lsr #32
    3654:	25150064 	ldrcs	r0, [r5, #-100]	; 0x64
    3658:	29000000 	stmdbcs	r0, {}	; <UNPREDICTABLE>
    365c:	16000004 	strne	r0, [r0], -r4
    3660:	00000429 	andeq	r0, r0, r9, lsr #8
    3664:	00010a16 	andeq	r0, r1, r6, lsl sl
    3668:	010c1600 	tsteq	ip, r0, lsl #12
    366c:	25160000 	ldrcs	r0, [r6, #-0]
    3670:	00000000 	andeq	r0, r0, r0
    3674:	0434040e 	ldrteq	r0, [r4], #-1038	; 0x40e
    3678:	290f0000 	stmdbcs	pc, {}	; <UNPREDICTABLE>
    367c:	17000004 	strne	r0, [r0, -r4]
    3680:	00000a56 	andeq	r0, r0, r6, asr sl
    3684:	38050428 	stmdacc	r5, {r3, r5, sl}
    3688:	00056602 	andeq	r6, r5, r2, lsl #12
    368c:	09d11800 	ldmibeq	r1, {fp, ip}^
    3690:	3a050000 	bcc	143698 <__bss_end__+0x138b20>
    3694:	00002502 	andeq	r2, r0, r2, lsl #10
    3698:	ea180000 	b	6036a0 <__bss_end__+0x5f8b28>
    369c:	05000007 	streq	r0, [r0, #-7]
    36a0:	063b023f 			; <UNDEFINED> instruction: 0x063b023f
    36a4:	18040000 	stmdane	r4, {}	; <UNPREDICTABLE>
    36a8:	000008de 	ldrdeq	r0, [r0], -lr
    36ac:	3b023f05 	blcc	932c8 <__bss_end__+0x88750>
    36b0:	08000006 	stmdaeq	r0, {r1, r2}
    36b4:	00089f18 	andeq	r9, r8, r8, lsl pc
    36b8:	023f0500 	eorseq	r0, pc, #0, 10
    36bc:	0000063b 	andeq	r0, r0, fp, lsr r6
    36c0:	0a2a180c 	beq	a896f8 <__bss_end__+0xa7eb80>
    36c4:	41050000 	mrsmi	r0, (UNDEF: 5)
    36c8:	00002502 	andeq	r2, r0, r2, lsl #10
    36cc:	15181000 	ldrne	r1, [r8, #-0]
    36d0:	05000007 	streq	r0, [r0, #-7]
    36d4:	081d0242 	ldmdaeq	sp, {r1, r6, r9}
    36d8:	18140000 	ldmdane	r4, {}	; <UNPREDICTABLE>
    36dc:	00000b48 	andeq	r0, r0, r8, asr #22
    36e0:	25024405 	strcs	r4, [r2, #-1029]	; 0x405
    36e4:	30000000 	andcc	r0, r0, r0
    36e8:	000a3418 	andeq	r3, sl, r8, lsl r4
    36ec:	02450500 	subeq	r0, r5, #0, 10
    36f0:	0000058a 	andeq	r0, r0, sl, lsl #11
    36f4:	09971834 	ldmibeq	r7, {r2, r4, r5, fp, ip}
    36f8:	47050000 	strmi	r0, [r5, -r0]
    36fc:	00002502 	andeq	r2, r0, r2, lsl #10
    3700:	44183800 	ldrmi	r3, [r8], #-2048	; 0x800
    3704:	0500000a 	streq	r0, [r0, #-10]
    3708:	08380249 	ldmdaeq	r8!, {r0, r3, r6, r9}
    370c:	183c0000 	ldmdane	ip!, {}	; <UNPREDICTABLE>
    3710:	00000929 	andeq	r0, r0, r9, lsr #18
    3714:	7c024c05 	stcvc	12, cr4, [r2], {5}
    3718:	40000001 	andmi	r0, r0, r1
    371c:	0008be18 	andeq	fp, r8, r8, lsl lr
    3720:	024d0500 	subeq	r0, sp, #0, 10
    3724:	00000025 	andeq	r0, r0, r5, lsr #32
    3728:	0c521844 	mrrceq	8, 4, r1, r2, cr4
    372c:	4e050000 	cdpmi	0, 0, cr0, cr5, cr0, {0}
    3730:	00017c02 	andeq	r7, r1, r2, lsl #24
    3734:	ae184800 	cdpge	8, 1, cr4, cr8, cr0, {0}
    3738:	05000009 	streq	r0, [r0, #-9]
    373c:	083e024f 	ldmdaeq	lr!, {r0, r1, r2, r3, r6, r9}
    3740:	184c0000 	stmdane	ip, {}^	; <UNPREDICTABLE>
    3744:	000008e6 	andeq	r0, r0, r6, ror #17
    3748:	25025205 	strcs	r5, [r2, #-517]	; 0x205
    374c:	50000000 	andpl	r0, r0, r0
    3750:	00080d18 	andeq	r0, r8, r8, lsl sp
    3754:	02530500 	subseq	r0, r3, #0, 10
    3758:	0000010c 	andeq	r0, r0, ip, lsl #2
    375c:	09ca1854 	stmibeq	sl, {r2, r4, r6, fp, ip}^
    3760:	76050000 	strvc	r0, [r5], -r0
    3764:	0007fb02 	andeq	pc, r7, r2, lsl #22
    3768:	8f195800 	svchi	0x00195800
    376c:	05000009 	streq	r0, [r0, #-9]
    3770:	0299027a 	addseq	r0, r9, #-1610612729	; 0xa0000007
    3774:	01480000 	mrseq	r0, (UNDEF: 72)
    3778:	0008fb19 	andeq	pc, r8, r9, lsl fp	; <UNPREDICTABLE>
    377c:	027b0500 	rsbseq	r0, fp, #0, 10
    3780:	0000025b 	andeq	r0, r0, fp, asr r2
    3784:	b419014c 	ldrlt	r0, [r9], #-332	; 0x14c
    3788:	0500000b 	streq	r0, [r0, #-11]
    378c:	084f027f 	stmdaeq	pc, {r0, r1, r2, r3, r4, r5, r6, r9}^	; <UNPREDICTABLE>
    3790:	02dc0000 	sbcseq	r0, ip, #0
    3794:	0007d319 	andeq	sp, r7, r9, lsl r3
    3798:	02840500 	addeq	r0, r4, #0, 10
    379c:	00000600 	andeq	r0, r0, r0, lsl #12
    37a0:	b81902e0 	ldmdalt	r9, {r5, r6, r7, r9}
    37a4:	05000007 	streq	r0, [r0, #-7]
    37a8:	085b0285 	ldmdaeq	fp, {r0, r2, r7, r9}^
    37ac:	02ec0000 	rsceq	r0, ip, #0
    37b0:	0b040e00 	bleq	106fb8 <__bss_end__+0xfc440>
    37b4:	15000004 	strne	r0, [r0, #-4]
    37b8:	00000025 	andeq	r0, r0, r5, lsr #32
    37bc:	0000058a 	andeq	r0, r0, sl, lsl #11
    37c0:	00042916 	andeq	r2, r4, r6, lsl r9
    37c4:	010a1600 	tsteq	sl, r0, lsl #12
    37c8:	8a160000 	bhi	5837d0 <__bss_end__+0x578c58>
    37cc:	16000005 	strne	r0, [r0], -r5
    37d0:	00000025 	andeq	r0, r0, r5, lsr #32
    37d4:	19040e00 	stmdbne	r4, {r9, sl, fp}
    37d8:	0e000001 	cdpeq	0, 0, cr0, cr0, cr1, {0}
    37dc:	00056c04 	andeq	r6, r5, r4, lsl #24
    37e0:	00861500 	addeq	r1, r6, r0, lsl #10
    37e4:	05b40000 	ldreq	r0, [r4, #0]!
    37e8:	29160000 	ldmdbcs	r6, {}	; <UNPREDICTABLE>
    37ec:	16000004 	strne	r0, [r0], -r4
    37f0:	0000010a 	andeq	r0, r0, sl, lsl #2
    37f4:	00008616 	andeq	r8, r0, r6, lsl r6
    37f8:	00251600 	eoreq	r1, r5, r0, lsl #12
    37fc:	0e000000 	cdpeq	0, 0, cr0, cr0, cr0, {0}
    3800:	00059604 	andeq	r9, r5, r4, lsl #12
    3804:	00251500 	eoreq	r1, r5, r0, lsl #10
    3808:	05ce0000 	strbeq	r0, [lr]
    380c:	29160000 	ldmdbcs	r6, {}	; <UNPREDICTABLE>
    3810:	16000004 	strne	r0, [r0], -r4
    3814:	0000010a 	andeq	r0, r0, sl, lsl #2
    3818:	ba040e00 	blt	107020 <__bss_end__+0xfc4a8>
    381c:	09000005 	stmdbeq	r0, {r0, r2}
    3820:	00000054 	andeq	r0, r0, r4, asr r0
    3824:	000005e4 	andeq	r0, r0, r4, ror #11
    3828:	0000cc0a 	andeq	ip, r0, sl, lsl #24
    382c:	09000200 	stmdbeq	r0, {r9}
    3830:	00000054 	andeq	r0, r0, r4, asr r0
    3834:	000005f4 	strdeq	r0, [r0], -r4
    3838:	0000cc0a 	andeq	ip, r0, sl, lsl #24
    383c:	06000000 	streq	r0, [r0], -r0
    3840:	000009ef 	andeq	r0, r0, pc, ror #19
    3844:	e1011d05 	tst	r1, r5, lsl #26
    3848:	1a000002 	bne	3858 <__code_start__-0x47a8>
    384c:	00000b76 	andeq	r0, r0, r6, ror fp
    3850:	0121050c 	teqeq	r1, ip, lsl #10
    3854:	00000635 	andeq	r0, r0, r5, lsr r6
    3858:	000a1718 	andeq	r1, sl, r8, lsl r7
    385c:	01230500 	teqeq	r3, r0, lsl #10
    3860:	00000635 	andeq	r0, r0, r5, lsr r6
    3864:	08f41800 	ldmeq	r4!, {fp, ip}^
    3868:	24050000 	strcs	r0, [r5], #-0
    386c:	00002501 	andeq	r2, r0, r1, lsl #10
    3870:	e9180400 	ldmdb	r8, {sl}
    3874:	05000009 	streq	r0, [r0, #-9]
    3878:	063b0125 	ldrteq	r0, [fp], -r5, lsr #2
    387c:	00080000 	andeq	r0, r8, r0
    3880:	0600040e 	streq	r0, [r0], -lr, lsl #8
    3884:	040e0000 	streq	r0, [lr], #-0
    3888:	000005f4 	strdeq	r0, [r0], -r4
    388c:	00070d1a 	andeq	r0, r7, sl, lsl sp
    3890:	3d050e00 	stccc	14, cr0, [r5, #-0]
    3894:	00067601 	andeq	r7, r6, r1, lsl #12
    3898:	0a5d1800 	beq	17498a0 <__bss_end__+0x173ed28>
    389c:	3e050000 	cdpcc	0, 0, cr0, cr5, cr0, {0}
    38a0:	00067601 	andeq	r7, r6, r1, lsl #12
    38a4:	97180000 	ldrls	r0, [r8, -r0]
    38a8:	0500000a 	streq	r0, [r0, #-10]
    38ac:	0676013f 			; <UNDEFINED> instruction: 0x0676013f
    38b0:	18060000 	stmdane	r6, {}	; <UNPREDICTABLE>
    38b4:	00000b1b 	andeq	r0, r0, fp, lsl fp
    38b8:	5b014005 	blpl	538d4 <__bss_end__+0x48d5c>
    38bc:	0c000000 	stceq	0, cr0, [r0], {-0}
    38c0:	005b0900 	subseq	r0, fp, r0, lsl #18
    38c4:	06860000 	streq	r0, [r6], r0
    38c8:	cc0a0000 	stcgt	0, cr0, [sl], {-0}
    38cc:	02000000 	andeq	r0, r0, #0
    38d0:	05d01b00 	ldrbeq	r1, [r0, #2816]	; 0xb00
    38d4:	07870257 			; <UNDEFINED> instruction: 0x07870257
    38d8:	5a180000 	bpl	6038e0 <__bss_end__+0x5f8d68>
    38dc:	0500000b 	streq	r0, [r0, #-11]
    38e0:	002c0259 	eoreq	r0, ip, r9, asr r2
    38e4:	18000000 	stmdane	r0, {}	; <UNPREDICTABLE>
    38e8:	00000b05 	andeq	r0, r0, r5, lsl #22
    38ec:	0c025a05 	stceq	10, cr5, [r2], {5}
    38f0:	04000001 	streq	r0, [r0], #-1
    38f4:	00091018 	andeq	r1, r9, r8, lsl r0
    38f8:	025b0500 	subseq	r0, fp, #0, 10
    38fc:	00000787 	andeq	r0, r0, r7, lsl #15
    3900:	0c291808 	stceq	8, cr1, [r9], #-32	; 0xffffffe0
    3904:	5c050000 	stcpl	0, cr0, [r5], {-0}
    3908:	00019202 	andeq	r9, r1, r2, lsl #4
    390c:	af182400 	svcge	0x00182400
    3910:	05000008 	streq	r0, [r0, #-8]
    3914:	0025025d 	eoreq	r0, r5, sp, asr r2
    3918:	18480000 	stmdane	r8, {}^	; <UNPREDICTABLE>
    391c:	00000a12 	andeq	r0, r0, r2, lsl sl
    3920:	69025e05 	stmdbvs	r2, {r0, r2, r9, sl, fp, ip, lr}
    3924:	50000000 	andpl	r0, r0, r0
    3928:	000c3f18 	andeq	r3, ip, r8, lsl pc
    392c:	025f0500 	subseq	r0, pc, #0, 10
    3930:	00000641 	andeq	r0, r0, r1, asr #12
    3934:	0a1d1858 	beq	749a9c <__bss_end__+0x73ef24>
    3938:	60050000 	andvs	r0, r5, r0
    393c:	0000f402 	andeq	pc, r0, r2, lsl #8
    3940:	44186800 	ldrmi	r6, [r8], #-2048	; 0x800
    3944:	0500000c 	streq	r0, [r0, #-12]
    3948:	00f40261 	rscseq	r0, r4, r1, ror #4
    394c:	18700000 	ldmdane	r0!, {}^	; <UNPREDICTABLE>
    3950:	00000772 	andeq	r0, r0, r2, ror r7
    3954:	f4026205 	vst1.8	{d6-d9}, [r2], r5
    3958:	78000000 	stmdavc	r0, {}	; <UNPREDICTABLE>
    395c:	000b9618 	andeq	r9, fp, r8, lsl r6
    3960:	02630500 	rsbeq	r0, r3, #0, 10
    3964:	00000797 	muleq	r0, r7, r7
    3968:	09041880 	stmdbeq	r4, {r7, fp, ip}
    396c:	64050000 	strvs	r0, [r5], #-0
    3970:	0007a702 	andeq	sl, r7, r2, lsl #14
    3974:	28188800 	ldmdacs	r8, {fp, pc}
    3978:	0500000b 	streq	r0, [r0, #-11]
    397c:	00250265 	eoreq	r0, r5, r5, ror #4
    3980:	18a00000 	stmiane	r0!, {}	; <UNPREDICTABLE>
    3984:	0000085b 	andeq	r0, r0, fp, asr r8
    3988:	f4026605 	vst1.8	{d6-d8}, [r2], r5
    398c:	a4000000 	strge	r0, [r0], #-0
    3990:	00076318 	andeq	r6, r7, r8, lsl r3
    3994:	02670500 	rsbeq	r0, r7, #0, 10
    3998:	000000f4 	strdeq	r0, [r0], -r4
    399c:	084a18ac 	stmdaeq	sl, {r2, r3, r5, r7, fp, ip}^
    39a0:	68050000 	stmdavs	r5, {}	; <UNPREDICTABLE>
    39a4:	0000f402 	andeq	pc, r0, r2, lsl #8
    39a8:	2a18b400 	bcs	6309b0 <__bss_end__+0x625e38>
    39ac:	05000007 	streq	r0, [r0, #-7]
    39b0:	00f40269 	rscseq	r0, r4, r9, ror #4
    39b4:	18bc0000 	ldmne	ip!, {}	; <UNPREDICTABLE>
    39b8:	00000739 	andeq	r0, r0, r9, lsr r7
    39bc:	f4026a05 	vst1.8	{d6-d7}, [r2], r5
    39c0:	c4000000 	strgt	r0, [r0], #-0
    39c4:	0009cf18 	andeq	ip, r9, r8, lsl pc
    39c8:	026b0500 	rsbeq	r0, fp, #0, 10
    39cc:	00000025 	andeq	r0, r0, r5, lsr #32
    39d0:	120900cc 	andne	r0, r9, #204	; 0xcc
    39d4:	97000001 	strls	r0, [r0, -r1]
    39d8:	0a000007 	beq	39fc <__code_start__-0x4604>
    39dc:	000000cc 	andeq	r0, r0, ip, asr #1
    39e0:	12090019 	andne	r0, r9, #25
    39e4:	a7000001 	strge	r0, [r0, -r1]
    39e8:	0a000007 	beq	3a0c <__code_start__-0x45f4>
    39ec:	000000cc 	andeq	r0, r0, ip, asr #1
    39f0:	12090007 	andne	r0, r9, #7
    39f4:	b7000001 	strlt	r0, [r0, -r1]
    39f8:	0a000007 	beq	3a1c <__code_start__-0x45e4>
    39fc:	000000cc 	andeq	r0, r0, ip, asr #1
    3a00:	f01b0017 			; <UNDEFINED> instruction: 0xf01b0017
    3a04:	db027005 	blle	9fa20 <__bss_end__+0x94ea8>
    3a08:	18000007 	stmdane	r0, {r0, r1, r2}
    3a0c:	0000097f 	andeq	r0, r0, pc, ror r9
    3a10:	db027305 	blle	a062c <__bss_end__+0x95ab4>
    3a14:	00000007 	andeq	r0, r0, r7
    3a18:	000b8d18 	andeq	r8, fp, r8, lsl sp
    3a1c:	02740500 	rsbseq	r0, r4, #0, 10
    3a20:	000007eb 	andeq	r0, r0, fp, ror #15
    3a24:	db090078 	blle	243c0c <__bss_end__+0x239094>
    3a28:	eb000002 	bl	3a38 <__code_start__-0x45c8>
    3a2c:	0a000007 	beq	3a50 <__code_start__-0x45b0>
    3a30:	000000cc 	andeq	r0, r0, ip, asr #1
    3a34:	2c09001d 	stccs	0, cr0, [r9], {29}
    3a38:	fb000000 	blx	3a42 <__code_start__-0x45be>
    3a3c:	0a000007 	beq	3a60 <__code_start__-0x45a0>
    3a40:	000000cc 	andeq	r0, r0, ip, asr #1
    3a44:	f01c001d 			; <UNDEFINED> instruction: 0xf01c001d
    3a48:	1d025505 	cfstr32ne	mvfx5, [r2, #-20]	; 0xffffffec
    3a4c:	1d000008 	stcne	0, cr0, [r0, #-32]	; 0xffffffe0
    3a50:	00000a56 	andeq	r0, r0, r6, asr sl
    3a54:	86026c05 	strhi	r6, [r2], -r5, lsl #24
    3a58:	1d000006 	stcne	0, cr0, [r0, #-24]	; 0xffffffe8
    3a5c:	00000be9 	andeq	r0, r0, r9, ror #23
    3a60:	b7027505 	strlt	r7, [r2, -r5, lsl #10]
    3a64:	00000007 	andeq	r0, r0, r7
    3a68:	00011209 	andeq	r1, r1, r9, lsl #4
    3a6c:	00082d00 	andeq	r2, r8, r0, lsl #26
    3a70:	00cc0a00 	sbceq	r0, ip, r0, lsl #20
    3a74:	00180000 	andseq	r0, r8, r0
    3a78:	0008381e 	andeq	r3, r8, lr, lsl r8
    3a7c:	04291600 	strteq	r1, [r9], #-1536	; 0x600
    3a80:	0e000000 	cdpeq	0, 0, cr0, cr0, cr0, {0}
    3a84:	00082d04 	andeq	r2, r8, r4, lsl #26
    3a88:	7c040e00 	stcvc	14, cr0, [r4], {-0}
    3a8c:	1e000001 	cdpne	0, 0, cr0, cr0, cr1, {0}
    3a90:	0000084f 	andeq	r0, r0, pc, asr #16
    3a94:	00002516 	andeq	r2, r0, r6, lsl r5
    3a98:	040e0000 	streq	r0, [lr], #-0
    3a9c:	00000855 	andeq	r0, r0, r5, asr r8
    3aa0:	0844040e 	stmdaeq	r4, {r1, r2, r3, sl}^
    3aa4:	f4090000 	vst4.8	{d0-d3}, [r9], r0
    3aa8:	6b000005 	blvs	3ac4 <__code_start__-0x453c>
    3aac:	0a000008 	beq	3ad4 <__code_start__-0x452c>
    3ab0:	000000cc 	andeq	r0, r0, ip, asr #1
    3ab4:	3c1f0002 	ldccc	0, cr0, [pc], {2}
    3ab8:	0500000b 	streq	r0, [r0, #-11]
    3abc:	042902fd 	strteq	r0, [r9], #-765	; 0x2fd
    3ac0:	351f0000 	ldrcc	r0, [pc, #-0]	; 3ac8 <__code_start__-0x4538>
    3ac4:	0500000b 	streq	r0, [r0, #-11]
    3ac8:	042f02fe 	strteq	r0, [pc], #-766	; 3ad0 <__code_start__-0x4530>
    3acc:	25150000 	ldrcs	r0, [r5, #-0]
    3ad0:	92000000 	andls	r0, r0, #0
    3ad4:	16000008 	strne	r0, [r0], -r8
    3ad8:	00000025 	andeq	r0, r0, r5, lsr #32
    3adc:	053f2000 	ldreq	r2, [pc, #-0]!	; 3ae4 <__code_start__-0x451c>
    3ae0:	1d060000 	stcne	0, cr0, [r6, #-0]
    3ae4:	0000089d 	muleq	r0, sp, r8
    3ae8:	0883040e 	stmeq	r3, {r1, r2, r3, sl}
    3aec:	25150000 	ldrcs	r0, [r5, #-0]
    3af0:	b2000000 	andlt	r0, r0, #0
    3af4:	16000008 	strne	r0, [r0], -r8
    3af8:	0000058a 	andeq	r0, r0, sl, lsl #11
    3afc:	057c2000 	ldrbeq	r2, [ip, #-0]!
    3b00:	22060000 	andcs	r0, r6, #0
    3b04:	000008bd 			; <UNDEFINED> instruction: 0x000008bd
    3b08:	08a3040e 	stmiaeq	r3!, {r1, r2, r3, sl}
    3b0c:	01210000 	teqeq	r1, r0
    3b10:	00000054 	andeq	r0, r0, r4, asr r0
    3b14:	09000c08 	stmdbeq	r0, {r3, sl, fp}
    3b18:	53220000 	teqpl	r2, #0
    3b1c:	00000007 	andeq	r0, r0, r7
    3b20:	000b7c22 	andeq	r7, fp, r2, lsr #24
    3b24:	d4220100 	strtle	r0, [r2], #-256	; 0x100
    3b28:	0400000b 	streq	r0, [r0], #-11
    3b2c:	00079422 	andeq	r9, r7, r2, lsr #8
    3b30:	37220500 	strcc	r0, [r2, -r0, lsl #10]!
    3b34:	06000009 	streq	r0, [r0], -r9
    3b38:	000bf122 	andeq	pc, fp, r2, lsr #2
    3b3c:	00220700 	eoreq	r0, r2, r0, lsl #14
    3b40:	0300000c 	movweq	r0, #12
    3b44:	000c0f22 	andeq	r0, ip, r2, lsr #30
    3b48:	10000200 	andne	r0, r0, r0, lsl #4
    3b4c:	00000801 	andeq	r0, r0, r1, lsl #16
    3b50:	9006072c 	andls	r0, r6, ip, lsr #14
    3b54:	11000009 	tstne	r0, r9
    3b58:	07006f69 	streq	r6, [r0, -r9, ror #30]
    3b5c:	00003309 	andeq	r3, r0, r9, lsl #6
    3b60:	69110000 	ldmdbvs	r1, {}	; <UNPREDICTABLE>
    3b64:	07007265 	streq	r7, [r0, -r5, ror #4]
    3b68:	0000330a 	andeq	r3, r0, sl, lsl #6
    3b6c:	69110400 	ldmdbvs	r1, {sl}
    3b70:	07007269 	streq	r7, [r0, -r9, ror #4]
    3b74:	00003311 	andeq	r3, r0, r1, lsl r3
    3b78:	6c110800 	ldcvs	8, cr0, [r1], {-0}
    3b7c:	07007263 	streq	r7, [r0, -r3, ror #4]
    3b80:	00003313 	andeq	r3, r0, r3, lsl r3
    3b84:	6d110c00 	ldcvs	12, cr0, [r1, #-0]
    3b88:	07007263 	streq	r7, [r0, -r3, ror #4]
    3b8c:	00003314 	andeq	r3, r0, r4, lsl r3
    3b90:	6c111000 	ldcvs	0, cr1, [r1], {-0}
    3b94:	07007273 	smlsdxeq	r0, r3, r2, r7
    3b98:	00003315 	andeq	r3, r0, r5, lsl r3
    3b9c:	6d111400 	cfldrsvs	mvf1, [r1, #-0]
    3ba0:	07007273 	smlsdxeq	r0, r3, r2, r7
    3ba4:	00003316 	andeq	r3, r0, r6, lsl r3
    3ba8:	8f0c1800 	svchi	0x000c1800
    3bac:	0700000a 	streq	r0, [r0, -sl]
    3bb0:	00003317 	andeq	r3, r0, r7, lsl r3
    3bb4:	a90c1c00 	stmdbge	ip, {sl, fp, ip}
    3bb8:	07000007 	streq	r0, [r0, -r7]
    3bbc:	0000331b 	andeq	r3, r0, fp, lsl r3
    3bc0:	890c2000 	stmdbhi	ip, {sp}
    3bc4:	07000007 	streq	r0, [r0, -r7]
    3bc8:	0000331d 	andeq	r3, r0, sp, lsl r3
    3bcc:	790c2400 	stmdbvc	ip, {sl, sp}
    3bd0:	0700000a 	streq	r0, [r0, -sl]
    3bd4:	0000331e 	andeq	r3, r0, lr, lsl r3
    3bd8:	23002800 	movwcs	r2, #2048	; 0x800
    3bdc:	00000871 	andeq	r0, r0, r1, ror r8
    3be0:	09a50701 	stmibeq	r5!, {r0, r8, r9, sl}
    3be4:	50040000 	andpl	r0, r4, r0
    3be8:	040e2021 	streq	r2, [lr], #-33	; 0x21
    3bec:	00000033 	andeq	r0, r0, r3, lsr r0
    3bf0:	00099f0f 	andeq	r9, r9, pc, lsl #30
    3bf4:	09a92300 	stmibeq	r9!, {r8, r9, sp}
    3bf8:	28010000 	stmdacs	r1, {}	; <UNPREDICTABLE>
    3bfc:	000009bf 			; <UNDEFINED> instruction: 0x000009bf
    3c00:	20215040 	eorcs	r5, r1, r0, asr #32
    3c04:	0900040e 	stmdbeq	r0, {r1, r2, r3, sl}
    3c08:	b90f0000 	stmdblt	pc, {}	; <UNPREDICTABLE>
    3c0c:	24000009 	strcs	r0, [r0], #-9
    3c10:	00000bc6 	andeq	r0, r0, r6, asr #23
    3c14:	0025a701 	eoreq	sl, r5, r1, lsl #14
    3c18:	99840000 	stmibls	r4, {}	; <UNPREDICTABLE>
    3c1c:	00100000 	andseq	r0, r0, r0
    3c20:	9c010000 	stcls	0, cr0, [r1], {-0}
    3c24:	000009f0 	strdeq	r0, [r0], -r0	; <UNPREDICTABLE>
    3c28:	00998c25 	addseq	r8, r9, r5, lsr #24
    3c2c:	000c9c00 	andeq	r9, ip, r0, lsl #24
    3c30:	99902500 	ldmibls	r0, {r8, sl, sp}
    3c34:	0ad20000 	beq	ff483c3c <__bss_end__+0xff4790c4>
    3c38:	26000000 	strcs	r0, [r0], -r0
    3c3c:	00000524 	andeq	r0, r0, r4, lsr #10
    3c40:	99549f01 	ldmdbls	r4, {r0, r8, r9, sl, fp, ip, pc}^
    3c44:	00300000 	eorseq	r0, r0, r0
    3c48:	9c010000 	stcls	0, cr0, [r1], {-0}
    3c4c:	00000a4e 	andeq	r0, r0, lr, asr #20
    3c50:	01006327 	tsteq	r0, r7, lsr #6
    3c54:	00002c9f 	muleq	r0, pc, ip	; <UNPREDICTABLE>
    3c58:	00143300 	andseq	r3, r4, r0, lsl #6
    3c5c:	99602500 	stmdbls	r0!, {r8, sl, sp}^
    3c60:	0c9c0000 	ldceq	0, cr0, [ip], {0}
    3c64:	64250000 	strtvs	r0, [r5], #-0
    3c68:	a5000099 	strge	r0, [r0, #-153]	; 0x99
    3c6c:	2800000a 	stmdacs	r0, {r1, r3}
    3c70:	00009978 	andeq	r9, r0, r8, ror r9
    3c74:	00000ca7 	andeq	r0, r0, r7, lsr #25
    3c78:	00000a44 	andeq	r0, r0, r4, asr #20
    3c7c:	05500129 	ldrbeq	r0, [r0, #-297]	; 0x129
    3c80:	2150400c 	cmpcs	r0, ip
    3c84:	51012920 	tstpl	r1, r0, lsr #18
    3c88:	08007405 	stmdaeq	r0, {r0, r2, sl, ip, sp, lr}
    3c8c:	25001aff 	strcs	r1, [r0, #-2815]	; 0xaff
    3c90:	0000997c 	andeq	r9, r0, ip, ror r9
    3c94:	00000c9c 	muleq	r0, ip, ip
    3c98:	08d42400 	ldmeq	r4, {sl, sp}^
    3c9c:	97010000 	strls	r0, [r1, -r0]
    3ca0:	00000025 	andeq	r0, r0, r5, lsr #32
    3ca4:	00009924 	andeq	r9, r0, r4, lsr #18
    3ca8:	00000030 	andeq	r0, r0, r0, lsr r0
    3cac:	0aa59c01 	beq	fe96acb8 <__bss_end__+0xfe960140>
    3cb0:	632a0000 	teqvs	sl, #0
    3cb4:	259b0100 	ldrcs	r0, [fp, #256]	; 0x100
    3cb8:	01000000 	mrseq	r0, (UNDEF: 0)
    3cbc:	992c2554 	stmdbls	ip!, {r2, r4, r6, r8, sl, sp}
    3cc0:	0c9c0000 	ldceq	0, cr0, [ip], {0}
    3cc4:	30250000 	eorcc	r0, r5, r0
    3cc8:	d2000099 	andle	r0, r0, #153	; 0x99
    3ccc:	2800000a 	stmdacs	r0, {r1, r3}
    3cd0:	00009940 	andeq	r9, r0, r0, asr #18
    3cd4:	00000cb2 			; <UNDEFINED> instruction: 0x00000cb2
    3cd8:	00000a9b 	muleq	r0, fp, sl
    3cdc:	05500129 	ldrbeq	r0, [r0, #-297]	; 0x129
    3ce0:	2150400c 	cmpcs	r0, ip
    3ce4:	48250020 	stmdami	r5!, {r5}
    3ce8:	9c000099 	stcls	0, cr0, [r0], {153}	; 0x99
    3cec:	0000000c 	andeq	r0, r0, ip
    3cf0:	00088824 	andeq	r8, r8, r4, lsr #16
    3cf4:	25880100 	strcs	r0, [r8, #256]	; 0x100
    3cf8:	04000000 	streq	r0, [r0], #-0
    3cfc:	20000099 	mulcs	r0, r9, r0
    3d00:	01000000 	mrseq	r0, (UNDEF: 0)
    3d04:	000ad29c 	muleq	sl, ip, r2
    3d08:	99102b00 	ldmdbls	r0, {r8, r9, fp, sp}
    3d0c:	0cb20000 	ldceq	0, cr0, [r2]
    3d10:	01290000 	teqeq	r9, r0
    3d14:	640c0550 	strvs	r0, [ip], #-1360	; 0x550
    3d18:	00202150 	eoreq	r2, r0, r0, asr r1
    3d1c:	0ba62400 	bleq	fe98cd24 <__bss_end__+0xfe9821ac>
    3d20:	7f010000 	svcvc	0x00010000
    3d24:	00000025 	andeq	r0, r0, r5, lsr #32
    3d28:	000098ec 	andeq	r9, r0, ip, ror #17
    3d2c:	00000018 	andeq	r0, r0, r8, lsl r0
    3d30:	0aff9c01 	beq	fffead3c <__bss_end__+0xfffe01c4>
    3d34:	f82b0000 			; <UNDEFINED> instruction: 0xf82b0000
    3d38:	b2000098 	andlt	r0, r0, #152	; 0x98
    3d3c:	2900000c 	stmdbcs	r0, {r2, r3}
    3d40:	0c055001 	stceq	0, cr5, [r5], {1}
    3d44:	20215064 	eorcs	r5, r1, r4, rrx
    3d48:	20260000 	eorcs	r0, r6, r0
    3d4c:	01000007 	tsteq	r0, r7
    3d50:	00983c3a 	addseq	r3, r8, sl, lsr ip
    3d54:	0000b000 	andeq	fp, r0, r0
    3d58:	3d9c0100 	ldfccs	f0, [ip]
    3d5c:	2800000c 	stmdacs	r0, {r2, r3}
    3d60:	0000984c 	andeq	r9, r0, ip, asr #16
    3d64:	00000cbd 			; <UNDEFINED> instruction: 0x00000cbd
    3d68:	00000b2c 	andeq	r0, r0, ip, lsr #22
    3d6c:	01500129 	cmpeq	r0, r9, lsr #2
    3d70:	5101293e 	tstpl	r1, lr, lsr r9
    3d74:	28003201 	stmdacs	r0, {r0, r9, ip, sp}
    3d78:	00009858 	andeq	r9, r0, r8, asr r8
    3d7c:	00000cbd 			; <UNDEFINED> instruction: 0x00000cbd
    3d80:	00000b44 	andeq	r0, r0, r4, asr #22
    3d84:	01500129 	cmpeq	r0, r9, lsr #2
    3d88:	5101293f 	tstpl	r1, pc, lsr r9
    3d8c:	25003201 	strcs	r3, [r0, #-513]	; 0x201
    3d90:	0000985c 	andeq	r9, r0, ip, asr r8
    3d94:	00000c9c 	muleq	r0, ip, ip
    3d98:	00986828 	addseq	r6, r8, r8, lsr #16
    3d9c:	000c3d00 	andeq	r3, ip, r0, lsl #26
    3da0:	000b6900 	andeq	r6, fp, r0, lsl #18
    3da4:	50012900 	andpl	r2, r1, r0, lsl #18
    3da8:	50040c05 	andpl	r0, r4, r5, lsl #24
    3dac:	01292021 	teqeq	r9, r1, lsr #32
    3db0:	00310151 	eorseq	r0, r1, r1, asr r1
    3db4:	00986c25 	addseq	r6, r8, r5, lsr #24
    3db8:	000c9c00 	andeq	r9, ip, r0, lsl #24
    3dbc:	987c2800 	ldmdals	ip!, {fp, sp}^
    3dc0:	0ca70000 	stceq	0, cr0, [r7]
    3dc4:	0b8b0000 	bleq	fe2c3dcc <__bss_end__+0xfe2b9254>
    3dc8:	01290000 	teqeq	r9, r0
    3dcc:	00740250 	rsbseq	r0, r4, r0, asr r2
    3dd0:	01510129 	cmpeq	r1, r9, lsr #2
    3dd4:	88280030 	stmdahi	r8!, {r4, r5}
    3dd8:	a7000098 			; <UNDEFINED> instruction: 0xa7000098
    3ddc:	a700000c 	strge	r0, [r0, -ip]
    3de0:	2900000b 	stmdbcs	r0, {r0, r1, r3}
    3de4:	0c055001 	stceq	0, cr5, [r5], {1}
    3de8:	20215044 	eorcs	r5, r1, r4, asr #32
    3dec:	01510129 	cmpeq	r1, r9, lsr #2
    3df0:	94280030 	strtls	r0, [r8], #-48	; 0x30
    3df4:	a7000098 			; <UNDEFINED> instruction: 0xa7000098
    3df8:	c300000c 	movwgt	r0, #12
    3dfc:	2900000b 	stmdbcs	r0, {r0, r1, r3}
    3e00:	0c055001 	stceq	0, cr5, [r5], {1}
    3e04:	2021504c 	eorcs	r5, r1, ip, asr #32
    3e08:	01510129 	cmpeq	r1, r9, lsr #2
    3e0c:	a0280033 	eorge	r0, r8, r3, lsr r0
    3e10:	a7000098 			; <UNDEFINED> instruction: 0xa7000098
    3e14:	df00000c 	svcle	0x0000000c
    3e18:	2900000b 	stmdbcs	r0, {r0, r1, r3}
    3e1c:	0c055001 	stceq	0, cr5, [r5], {1}
    3e20:	20215050 	eorcs	r5, r1, r0, asr r0
    3e24:	01510129 	cmpeq	r1, r9, lsr #2
    3e28:	ac280030 	stcge	0, cr0, [r8], #-192	; 0xffffff40
    3e2c:	a7000098 			; <UNDEFINED> instruction: 0xa7000098
    3e30:	fc00000c 	stc2	0, cr0, [r0], {12}
    3e34:	2900000b 	stmdbcs	r0, {r0, r1, r3}
    3e38:	0c055001 	stceq	0, cr5, [r5], {1}
    3e3c:	20215048 	eorcs	r5, r1, r8, asr #32
    3e40:	02510129 	subseq	r0, r1, #1073741834	; 0x4000000a
    3e44:	2800c708 	stmdacs	r0, {r3, r8, r9, sl, lr, pc}
    3e48:	000098b8 			; <UNDEFINED> instruction: 0x000098b8
    3e4c:	00000ca7 	andeq	r0, r0, r7, lsr #25
    3e50:	00000c1a 	andeq	r0, r0, sl, lsl ip
    3e54:	05500129 	ldrbeq	r0, [r0, #-297]	; 0x129
    3e58:	2150680c 	cmpcs	r0, ip, lsl #16
    3e5c:	51012920 	tstpl	r1, r0, lsr #18
    3e60:	010e0a03 	tsteq	lr, r3, lsl #20
    3e64:	98c42800 	stmials	r4, {fp, sp}^
    3e68:	0ca70000 	stceq	0, cr0, [r7]
    3e6c:	0c330000 	ldceq	0, cr0, [r3], #-0
    3e70:	01290000 	teqeq	r9, r0
    3e74:	00740250 	rsbseq	r0, r4, r0, asr r2
    3e78:	01510129 	cmpeq	r1, r9, lsr #2
    3e7c:	c8250033 	stmdagt	r5!, {r0, r1, r4, r5}
    3e80:	9c000098 	stcls	0, cr0, [r0], {152}	; 0x98
    3e84:	0000000c 	andeq	r0, r0, ip
    3e88:	000bbe2c 	andeq	fp, fp, ip, lsr #28
    3e8c:	1c2d0100 	stfnes	f0, [sp], #-0
    3e90:	20000098 	mulcs	r0, r8, r0
    3e94:	01000000 	mrseq	r0, (UNDEF: 0)
    3e98:	000c959c 	muleq	ip, ip, r5
    3e9c:	01ac2d00 			; <UNDEFINED> instruction: 0x01ac2d00
    3ea0:	2d010000 	stccs	0, cr0, [r1, #-0]
    3ea4:	00000c95 	muleq	r0, r5, ip
    3ea8:	00001451 	andeq	r1, r0, r1, asr r4
    3eac:	6c617627 	stclvs	6, cr7, [r1], #-156	; 0xffffff64
    3eb0:	2c2d0100 	stfcss	f0, [sp], #-0
    3eb4:	6f000000 	svcvs	0x00000000
    3eb8:	28000014 	stmdacs	r0, {r2, r4}
    3ebc:	0000982c 	andeq	r9, r0, ip, lsr #16
    3ec0:	00000cb2 			; <UNDEFINED> instruction: 0x00000cb2
    3ec4:	00000c84 	andeq	r0, r0, r4, lsl #25
    3ec8:	02500129 	subseq	r0, r0, #1073741834	; 0x4000000a
    3ecc:	2b000074 	blcs	40a4 <__code_start__-0x3f5c>
    3ed0:	00009838 	andeq	r9, r0, r8, lsr r8
    3ed4:	00000ca7 	andeq	r0, r0, r7, lsr #25
    3ed8:	02500129 	subseq	r0, r0, #1073741834	; 0x4000000a
    3edc:	00000074 	andeq	r0, r0, r4, ror r0
    3ee0:	0c9b040e 	cfldrseq	mvf0, [fp], {14}
    3ee4:	2f2e0000 	svccs	0x002e0000
    3ee8:	0000091d 	andeq	r0, r0, sp, lsl r9
    3eec:	0000091d 	andeq	r0, r0, sp, lsl r9
    3ef0:	9d2f8906 	stcls	9, cr8, [pc, #-24]!	; 3ee0 <__code_start__-0x4120>
    3ef4:	9d00000a 	stcls	0, cr0, [r0, #-40]	; 0xffffffd8
    3ef8:	0600000a 	streq	r0, [r0], -sl
    3efc:	0ba02f9c 	bleq	fe80fd74 <__bss_end__+0xfe8051fc>
    3f00:	0ba00000 	bleq	fe803f08 <__bss_end__+0xfe7f9390>
    3f04:	a8060000 	stmdage	r6, {}	; <UNPREDICTABLE>
    3f08:	00096d2f 	andeq	r6, r9, pc, lsr #26
    3f0c:	00096d00 	andeq	r6, r9, r0, lsl #26
    3f10:	00190800 	andseq	r0, r9, r0, lsl #16
    3f14:	00000b70 	andeq	r0, r0, r0, ror fp
    3f18:	12110004 	andsne	r0, r1, #4
    3f1c:	01040000 	mrseq	r0, (UNDEF: 4)
    3f20:	00000aa3 	andeq	r0, r0, r3, lsr #21
    3f24:	000c730c 	andeq	r7, ip, ip, lsl #6
    3f28:	00081500 	andeq	r1, r8, r0, lsl #10
    3f2c:	00999400 	addseq	r9, r9, r0, lsl #8
    3f30:	00012000 	andeq	r2, r1, r0
    3f34:	00109300 	andseq	r9, r0, r0, lsl #6
    3f38:	05040200 	streq	r0, [r4, #-512]	; 0x200
    3f3c:	00746e69 	rsbseq	r6, r4, r9, ror #28
    3f40:	34070403 	strcc	r0, [r7], #-1027	; 0x403
    3f44:	04000001 	streq	r0, [r0], #-1
    3f48:	0000002c 	andeq	r0, r0, ip, lsr #32
    3f4c:	e2060103 	and	r0, r6, #-1073741824	; 0xc0000000
    3f50:	03000000 	movweq	r0, #0
    3f54:	01580502 	cmpeq	r8, r2, lsl #10
    3f58:	04030000 	streq	r0, [r3], #-0
    3f5c:	00014f05 	andeq	r4, r1, r5, lsl #30
    3f60:	05080300 	streq	r0, [r8, #-768]	; 0x300
    3f64:	0000014a 	andeq	r0, r0, sl, asr #2
    3f68:	e0080103 	and	r0, r8, r3, lsl #2
    3f6c:	03000000 	movweq	r0, #0
    3f70:	00ee0702 	rsceq	r0, lr, r2, lsl #14
    3f74:	04030000 	streq	r0, [r3], #-0
    3f78:	00012f07 	andeq	r2, r1, r7, lsl #30
    3f7c:	07080300 	streq	r0, [r8, -r0, lsl #6]
    3f80:	0000012a 	andeq	r0, r0, sl, lsr #2
    3f84:	0009b805 	andeq	fp, r9, r5, lsl #16
    3f88:	25070200 	strcs	r0, [r7, #-512]	; 0x200
    3f8c:	05000000 	streq	r0, [r0, #-0]
    3f90:	000009a2 	andeq	r0, r0, r2, lsr #19
    3f94:	00462c03 	subeq	r2, r6, r3, lsl #24
    3f98:	7e050000 	cdpvc	0, 0, cr0, cr5, cr0, {0}
    3f9c:	0300000a 	movweq	r0, #10
    3fa0:	00004672 	andeq	r4, r0, r2, ror r6
    3fa4:	09460600 	stmdbeq	r6, {r9, sl}^
    3fa8:	65040000 	strvs	r0, [r4, #-0]
    3fac:	00002c01 	andeq	r2, r0, r1, lsl #24
    3fb0:	03040700 	movweq	r0, #18176	; 0x4700
    3fb4:	0000bca6 	andeq	fp, r0, r6, lsr #25
    3fb8:	09310800 	ldmdbeq	r1!, {fp}
    3fbc:	a8030000 	stmdage	r3, {}	; <UNPREDICTABLE>
    3fc0:	00000091 	muleq	r0, r1, r0
    3fc4:	0008cd08 	andeq	ip, r8, r8, lsl #26
    3fc8:	bca90300 	stclt	3, cr0, [r9]
    3fcc:	00000000 	andeq	r0, r0, r0
    3fd0:	00005409 	andeq	r5, r0, r9, lsl #8
    3fd4:	0000cc00 	andeq	ip, r0, r0, lsl #24
    3fd8:	00cc0a00 	sbceq	r0, ip, r0, lsl #20
    3fdc:	00030000 	andeq	r0, r3, r0
    3fe0:	41070403 	tstmi	r7, r3, lsl #8
    3fe4:	0b000001 	bleq	3ff0 <__code_start__-0x4010>
    3fe8:	f4a30308 	vld4.8	{d0[0],d1[0],d2[0],d3[0]}, [r3], r8
    3fec:	0c000000 	stceq	0, cr0, [r0], {-0}
    3ff0:	00000a63 	andeq	r0, r0, r3, ror #20
    3ff4:	0025a503 	eoreq	sl, r5, r3, lsl #10
    3ff8:	0c000000 	stceq	0, cr0, [r0], {-0}
    3ffc:	00000a6b 	andeq	r0, r0, fp, ror #20
    4000:	009daa03 	addseq	sl, sp, r3, lsl #20
    4004:	00040000 	andeq	r0, r4, r0
    4008:	0009f605 	andeq	pc, r9, r5, lsl #12
    400c:	d3ab0300 			; <UNDEFINED> instruction: 0xd3ab0300
    4010:	05000000 	streq	r0, [r0, #-0]
    4014:	00000896 	muleq	r0, r6, r8
    4018:	0070af03 	rsbseq	sl, r0, r3, lsl #30
    401c:	040d0000 	streq	r0, [sp], #-0
    4020:	0112040e 	tsteq	r2, lr, lsl #8
    4024:	01030000 	mrseq	r0, (UNDEF: 3)
    4028:	0000e908 	andeq	lr, r0, r8, lsl #18
    402c:	01120400 	tsteq	r2, r0, lsl #8
    4030:	20050000 	andcs	r0, r5, r0
    4034:	0500000b 	streq	r0, [r0, #-11]
    4038:	00006216 	andeq	r6, r0, r6, lsl r2
    403c:	08a70f00 	stmiaeq	r7!, {r8, r9, sl, fp}
    4040:	05180000 	ldreq	r0, [r8, #-0]
    4044:	00017c2d 	andeq	r7, r1, sp, lsr #24
    4048:	0a170c00 	beq	5c7050 <__bss_end__+0x5bc4d8>
    404c:	2f050000 	svccs	0x00050000
    4050:	0000017c 	andeq	r0, r0, ip, ror r1
    4054:	6b5f1000 	blvs	17c805c <__bss_end__+0x17bd4e4>
    4058:	25300500 	ldrcs	r0, [r0, #-1280]!	; 0x500
    405c:	04000000 	streq	r0, [r0], #-0
    4060:	000a4e0c 	andeq	r4, sl, ip, lsl #28
    4064:	25300500 	ldrcs	r0, [r0, #-1280]!	; 0x500
    4068:	08000000 	stmdaeq	r0, {}	; <UNPREDICTABLE>
    406c:	0008820c 	andeq	r8, r8, ip, lsl #4
    4070:	25300500 	ldrcs	r0, [r0, #-1280]!	; 0x500
    4074:	0c000000 	stceq	0, cr0, [r0], {-0}
    4078:	000b670c 	andeq	r6, fp, ip, lsl #14
    407c:	25300500 	ldrcs	r0, [r0, #-1280]!	; 0x500
    4080:	10000000 	andne	r0, r0, r0
    4084:	00785f10 	rsbseq	r5, r8, r0, lsl pc
    4088:	01823105 	orreq	r3, r2, r5, lsl #2
    408c:	00140000 	andseq	r0, r4, r0
    4090:	0129040e 	teqeq	r9, lr, lsl #8
    4094:	1e090000 	cdpne	0, 0, cr0, cr9, cr0, {0}
    4098:	92000001 	andls	r0, r0, #1
    409c:	0a000001 	beq	40a8 <__code_start__-0x3f58>
    40a0:	000000cc 	andeq	r0, r0, ip, asr #1
    40a4:	c80f0000 	stmdagt	pc, {}	; <UNPREDICTABLE>
    40a8:	24000008 	strcs	r0, [r0], #-8
    40ac:	020b3505 	andeq	r3, fp, #20971520	; 0x1400000
    40b0:	800c0000 	andhi	r0, ip, r0
    40b4:	05000007 	streq	r0, [r0, #-7]
    40b8:	00002537 	andeq	r2, r0, r7, lsr r5
    40bc:	860c0000 	strhi	r0, [ip], -r0
    40c0:	0500000a 	streq	r0, [r0, #-10]
    40c4:	00002538 	andeq	r2, r0, r8, lsr r5
    40c8:	ae0c0400 	cfcpysge	mvf0, mvf12
    40cc:	05000007 	streq	r0, [r0, #-7]
    40d0:	00002539 	andeq	r2, r0, r9, lsr r5
    40d4:	570c0800 	strpl	r0, [ip, -r0, lsl #16]
    40d8:	0500000c 	streq	r0, [r0, #-12]
    40dc:	0000253a 	andeq	r2, r0, sl, lsr r5
    40e0:	860c0c00 	strhi	r0, [ip], -r0, lsl #24
    40e4:	05000009 	streq	r0, [r0, #-9]
    40e8:	0000253b 	andeq	r2, r0, fp, lsr r5
    40ec:	5b0c1000 	blpl	3080f4 <__bss_end__+0x2fd57c>
    40f0:	05000009 	streq	r0, [r0, #-9]
    40f4:	0000253c 	andeq	r2, r0, ip, lsr r5
    40f8:	6c0c1400 	cfstrsvs	mvf1, [ip], {-0}
    40fc:	0500000b 	streq	r0, [r0, #-11]
    4100:	0000253d 	andeq	r2, r0, sp, lsr r5
    4104:	d80c1800 	stmdale	ip, {fp, ip}
    4108:	05000009 	streq	r0, [r0, #-9]
    410c:	0000253e 	andeq	r2, r0, lr, lsr r5
    4110:	1e0c1c00 	cdpne	12, 0, cr1, cr12, cr0, {0}
    4114:	0500000c 	streq	r0, [r0, #-12]
    4118:	0000253f 	andeq	r2, r0, pc, lsr r5
    411c:	11002000 	mrsne	r2, (UNDEF: 0)
    4120:	000007bd 			; <UNDEFINED> instruction: 0x000007bd
    4124:	48050108 	stmdami	r5, {r3, r8}
    4128:	0000024b 	andeq	r0, r0, fp, asr #4
    412c:	0008690c 	andeq	r6, r8, ip, lsl #18
    4130:	4b490500 	blmi	1245538 <__bss_end__+0x123a9c0>
    4134:	00000002 	andeq	r0, r0, r2
    4138:	0006fb0c 	andeq	pc, r6, ip, lsl #22
    413c:	4b4a0500 	blmi	1285544 <__bss_end__+0x127a9cc>
    4140:	80000002 	andhi	r0, r0, r2
    4144:	000b1212 	andeq	r1, fp, r2, lsl r2
    4148:	1e4c0500 	cdpne	5, 4, cr0, cr12, cr0, {0}
    414c:	00000001 	andeq	r0, r0, r1
    4150:	07e21201 	strbeq	r1, [r2, r1, lsl #4]!
    4154:	4f050000 	svcmi	0x00050000
    4158:	0000011e 	andeq	r0, r0, lr, lsl r1
    415c:	09000104 	stmdbeq	r0, {r2, r8}
    4160:	0000010a 	andeq	r0, r0, sl, lsl #2
    4164:	0000025b 	andeq	r0, r0, fp, asr r2
    4168:	0000cc0a 	andeq	ip, r0, sl, lsl #24
    416c:	11001f00 	tstne	r0, r0, lsl #30
    4170:	0000098f 	andeq	r0, r0, pc, lsl #19
    4174:	5b050190 	blpl	1447bc <__bss_end__+0x139c44>
    4178:	00000299 	muleq	r0, r9, r2
    417c:	000a170c 	andeq	r1, sl, ip, lsl #14
    4180:	995c0500 	ldmdbls	ip, {r8, sl}^
    4184:	00000002 	andeq	r0, r0, r2
    4188:	000a2f0c 	andeq	r2, sl, ip, lsl #30
    418c:	255d0500 	ldrbcs	r0, [sp, #-1280]	; 0x500
    4190:	04000000 	streq	r0, [r0], #-0
    4194:	00087d0c 	andeq	r7, r8, ip, lsl #26
    4198:	9f5f0500 	svcls	0x005f0500
    419c:	08000002 	stmdaeq	r0, {r1}
    41a0:	0007bd0c 	andeq	fp, r7, ip, lsl #26
    41a4:	0b600500 	bleq	18055ac <__bss_end__+0x17faa34>
    41a8:	88000002 	stmdahi	r0, {r1}
    41ac:	5b040e00 	blpl	1079b4 <__bss_end__+0xfce3c>
    41b0:	09000002 	stmdbeq	r0, {r1}
    41b4:	000002af 	andeq	r0, r0, pc, lsr #5
    41b8:	000002af 	andeq	r0, r0, pc, lsr #5
    41bc:	0000cc0a 	andeq	ip, r0, sl, lsl #24
    41c0:	0e001f00 	cdpeq	15, 0, cr1, cr0, cr0, {0}
    41c4:	0002b504 	andeq	fp, r2, r4, lsl #10
    41c8:	e20f1300 	and	r1, pc, #0, 6
    41cc:	08000009 	stmdaeq	r0, {r0, r3}
    41d0:	02db7305 	sbcseq	r7, fp, #335544320	; 0x14000000
    41d4:	a30c0000 	movwge	r0, #49152	; 0xc000
    41d8:	05000007 	streq	r0, [r0, #-7]
    41dc:	0002db74 	andeq	sp, r2, r4, ror fp
    41e0:	070c0000 	streq	r0, [ip, -r0]
    41e4:	05000007 	streq	r0, [r0, #-7]
    41e8:	00002575 	andeq	r2, r0, r5, ror r5
    41ec:	0e000400 	cfcpyseq	mvf0, mvf0
    41f0:	00005404 	andeq	r5, r0, r4, lsl #8
    41f4:	0a010f00 	beq	47dfc <__bss_end__+0x3d284>
    41f8:	05680000 	strbeq	r0, [r8, #-0]!
    41fc:	00040bb3 			; <UNDEFINED> instruction: 0x00040bb3
    4200:	705f1000 	subsvc	r1, pc, r0
    4204:	dbb40500 	blle	fed0560c <__bss_end__+0xfecfaa94>
    4208:	00000002 	andeq	r0, r0, r2
    420c:	00725f10 	rsbseq	r5, r2, r0, lsl pc
    4210:	0025b505 	eoreq	fp, r5, r5, lsl #10
    4214:	10040000 	andne	r0, r4, r0
    4218:	0500775f 	streq	r7, [r0, #-1887]	; 0x75f
    421c:	000025b6 			; <UNDEFINED> instruction: 0x000025b6
    4220:	db0c0800 	blle	306228 <__bss_end__+0x2fb6b0>
    4224:	05000007 	streq	r0, [r0, #-7]
    4228:	00003fb7 			; <UNDEFINED> instruction: 0x00003fb7
    422c:	ee0c0c00 	cdp	12, 0, cr0, cr12, cr0, {0}
    4230:	05000008 	streq	r0, [r0, #-8]
    4234:	00003fb8 			; <UNDEFINED> instruction: 0x00003fb8
    4238:	5f100e00 	svcpl	0x00100e00
    423c:	05006662 	streq	r6, [r0, #-1634]	; 0x662
    4240:	0002b6b9 			; <UNDEFINED> instruction: 0x0002b6b9
    4244:	4a0c1000 	bmi	30824c <__bss_end__+0x2fd6d4>
    4248:	05000007 	streq	r0, [r0, #-7]
    424c:	000025ba 			; <UNDEFINED> instruction: 0x000025ba
    4250:	cb0c1800 	blgt	30a258 <__bss_end__+0x2ff6e0>
    4254:	05000007 	streq	r0, [r0, #-7]
    4258:	00010ac1 	andeq	r0, r1, r1, asr #21
    425c:	7e0c1c00 	cdpvc	12, 0, cr1, cr12, cr0, {0}
    4260:	0500000c 	streq	r0, [r0, #-12]
    4264:	000566c3 	andeq	r6, r5, r3, asr #13
    4268:	980c2000 	stmdals	ip, {sp}
    426c:	0500000c 	streq	r0, [r0, #-12]
    4270:	000590c5 	andeq	r9, r5, r5, asr #1
    4274:	730c2400 	movwvc	r2, #50176	; 0xc400
    4278:	0500000a 	streq	r0, [r0, #-10]
    427c:	0005b4c8 	andeq	fp, r5, r8, asr #9
    4280:	380c2800 	stmdacc	ip, {fp, sp}
    4284:	0500000c 	streq	r0, [r0, #-12]
    4288:	0005cec9 	andeq	ip, r5, r9, asr #29
    428c:	5f102c00 	svcpl	0x00102c00
    4290:	05006275 	streq	r6, [r0, #-629]	; 0x275
    4294:	0002b6cc 	andeq	fp, r2, ip, asr #13
    4298:	5f103000 	svcpl	0x00103000
    429c:	05007075 	streq	r7, [r0, #-117]	; 0x75
    42a0:	0002dbcd 	andeq	sp, r2, sp, asr #23
    42a4:	5f103800 	svcpl	0x00103800
    42a8:	05007275 	streq	r7, [r0, #-629]	; 0x275
    42ac:	000025ce 	andeq	r2, r0, lr, asr #11
    42b0:	8e0c3c00 	cdphi	12, 0, cr3, cr12, cr0, {0}
    42b4:	05000007 	streq	r0, [r0, #-7]
    42b8:	0005d4d1 	ldrdeq	sp, [r5], -r1
    42bc:	e30c4000 	movw	r4, #49152	; 0xc000
    42c0:	0500000b 	streq	r0, [r0, #-11]
    42c4:	0005e4d2 	ldrdeq	lr, [r5], -r2
    42c8:	5f104300 	svcpl	0x00104300
    42cc:	0500626c 	streq	r6, [r0, #-620]	; 0x26c
    42d0:	0002b6d5 	ldrdeq	fp, [r2], -r5
    42d4:	f10c4400 			; <UNDEFINED> instruction: 0xf10c4400
    42d8:	05000007 	streq	r0, [r0, #-7]
    42dc:	000025d8 	ldrdeq	r2, [r0], -r8
    42e0:	650c4c00 	strvs	r4, [ip, #-3072]	; 0xc00
    42e4:	05000009 	streq	r0, [r0, #-9]
    42e8:	00007bd9 	ldrdeq	r7, [r0], -r9
    42ec:	ce0c5000 	cdpgt	0, 0, cr5, cr12, cr0, {0}
    42f0:	0500000b 	streq	r0, [r0, #-11]
    42f4:	000429dc 	ldrdeq	r2, [r4], -ip
    42f8:	4d0c5400 	cfstrsmi	mvf5, [ip, #-0]
    42fc:	05000009 	streq	r0, [r0, #-9]
    4300:	0000ffe0 	andeq	pc, r0, r0, ror #31
    4304:	090c5800 	stmdbeq	ip, {fp, ip, lr}
    4308:	0500000a 	streq	r0, [r0, #-10]
    430c:	0000f4e2 	andeq	pc, r0, r2, ror #9
    4310:	530c5c00 	movwpl	r5, #52224	; 0xcc00
    4314:	05000009 	streq	r0, [r0, #-9]
    4318:	000025e3 	andeq	r2, r0, r3, ror #11
    431c:	14006400 	strne	r6, [r0], #-1024	; 0x400
    4320:	00000025 	andeq	r0, r0, r5, lsr #32
    4324:	00000429 	andeq	r0, r0, r9, lsr #8
    4328:	00042915 	andeq	r2, r4, r5, lsl r9
    432c:	010a1500 	tsteq	sl, r0, lsl #10
    4330:	0c150000 	ldceq	0, cr0, [r5], {-0}
    4334:	15000001 	strne	r0, [r0, #-1]
    4338:	00000025 	andeq	r0, r0, r5, lsr #32
    433c:	34040e00 	strcc	r0, [r4], #-3584	; 0xe00
    4340:	04000004 	streq	r0, [r0], #-4
    4344:	00000429 	andeq	r0, r0, r9, lsr #8
    4348:	000a5616 	andeq	r5, sl, r6, lsl r6
    434c:	05042800 	streq	r2, [r4, #-2048]	; 0x800
    4350:	05660238 	strbeq	r0, [r6, #-568]!	; 0x238
    4354:	d1170000 	tstle	r7, r0
    4358:	05000009 	streq	r0, [r0, #-9]
    435c:	0025023a 	eoreq	r0, r5, sl, lsr r2
    4360:	17000000 	strne	r0, [r0, -r0]
    4364:	000007ea 	andeq	r0, r0, sl, ror #15
    4368:	3b023f05 	blcc	93f84 <__bss_end__+0x8940c>
    436c:	04000006 	streq	r0, [r0], #-6
    4370:	0008de17 	andeq	sp, r8, r7, lsl lr
    4374:	023f0500 	eorseq	r0, pc, #0, 10
    4378:	0000063b 	andeq	r0, r0, fp, lsr r6
    437c:	089f1708 	ldmeq	pc, {r3, r8, r9, sl, ip}	; <UNPREDICTABLE>
    4380:	3f050000 	svccc	0x00050000
    4384:	00063b02 	andeq	r3, r6, r2, lsl #22
    4388:	2a170c00 	bcs	5c7390 <__bss_end__+0x5bc818>
    438c:	0500000a 	streq	r0, [r0, #-10]
    4390:	00250241 	eoreq	r0, r5, r1, asr #4
    4394:	17100000 	ldrne	r0, [r0, -r0]
    4398:	00000715 	andeq	r0, r0, r5, lsl r7
    439c:	1d024205 	sfmne	f4, 4, [r2, #-20]	; 0xffffffec
    43a0:	14000008 	strne	r0, [r0], #-8
    43a4:	000b4817 	andeq	r4, fp, r7, lsl r8
    43a8:	02440500 	subeq	r0, r4, #0, 10
    43ac:	00000025 	andeq	r0, r0, r5, lsr #32
    43b0:	0a341730 	beq	d0a078 <__bss_end__+0xcff500>
    43b4:	45050000 	strmi	r0, [r5, #-0]
    43b8:	00058a02 	andeq	r8, r5, r2, lsl #20
    43bc:	97173400 	ldrls	r3, [r7, -r0, lsl #8]
    43c0:	05000009 	streq	r0, [r0, #-9]
    43c4:	00250247 	eoreq	r0, r5, r7, asr #4
    43c8:	17380000 	ldrne	r0, [r8, -r0]!
    43cc:	00000a44 	andeq	r0, r0, r4, asr #20
    43d0:	38024905 	stmdacc	r2, {r0, r2, r8, fp, lr}
    43d4:	3c000008 	stccc	0, cr0, [r0], {8}
    43d8:	00092917 	andeq	r2, r9, r7, lsl r9
    43dc:	024c0500 	subeq	r0, ip, #0, 10
    43e0:	0000017c 	andeq	r0, r0, ip, ror r1
    43e4:	08be1740 	ldmeq	lr!, {r6, r8, r9, sl, ip}
    43e8:	4d050000 	stcmi	0, cr0, [r5, #-0]
    43ec:	00002502 	andeq	r2, r0, r2, lsl #10
    43f0:	52174400 	andspl	r4, r7, #0, 8
    43f4:	0500000c 	streq	r0, [r0, #-12]
    43f8:	017c024e 	cmneq	ip, lr, asr #4
    43fc:	17480000 	strbne	r0, [r8, -r0]
    4400:	000009ae 	andeq	r0, r0, lr, lsr #19
    4404:	3e024f05 	cdpcc	15, 0, cr4, cr2, cr5, {0}
    4408:	4c000008 	stcmi	0, cr0, [r0], {8}
    440c:	0008e617 	andeq	lr, r8, r7, lsl r6
    4410:	02520500 	subseq	r0, r2, #0, 10
    4414:	00000025 	andeq	r0, r0, r5, lsr #32
    4418:	080d1750 	stmdaeq	sp, {r4, r6, r8, r9, sl, ip}
    441c:	53050000 	movwpl	r0, #20480	; 0x5000
    4420:	00010c02 	andeq	r0, r1, r2, lsl #24
    4424:	ca175400 	bgt	5d942c <__bss_end__+0x5ce8b4>
    4428:	05000009 	streq	r0, [r0, #-9]
    442c:	07fb0276 			; <UNDEFINED> instruction: 0x07fb0276
    4430:	18580000 	ldmdane	r8, {}^	; <UNPREDICTABLE>
    4434:	0000098f 	andeq	r0, r0, pc, lsl #19
    4438:	99027a05 	stmdbls	r2, {r0, r2, r9, fp, ip, sp, lr}
    443c:	48000002 	stmdami	r0, {r1}
    4440:	08fb1801 	ldmeq	fp!, {r0, fp, ip}^
    4444:	7b050000 	blvc	14444c <__bss_end__+0x1398d4>
    4448:	00025b02 	andeq	r5, r2, r2, lsl #22
    444c:	18014c00 	stmdane	r1, {sl, fp, lr}
    4450:	00000bb4 			; <UNDEFINED> instruction: 0x00000bb4
    4454:	4f027f05 	svcmi	0x00027f05
    4458:	dc000008 	stcle	0, cr0, [r0], {8}
    445c:	07d31802 	ldrbeq	r1, [r3, r2, lsl #16]
    4460:	84050000 	strhi	r0, [r5], #-0
    4464:	00060002 	andeq	r0, r6, r2
    4468:	1802e000 	stmdane	r2, {sp, lr, pc}
    446c:	000007b8 			; <UNDEFINED> instruction: 0x000007b8
    4470:	5b028505 	blpl	a588c <__bss_end__+0x9ad14>
    4474:	ec000008 	stc	0, cr0, [r0], {8}
    4478:	040e0002 	streq	r0, [lr], #-2
    447c:	0000040b 	andeq	r0, r0, fp, lsl #8
    4480:	00002514 	andeq	r2, r0, r4, lsl r5
    4484:	00058a00 	andeq	r8, r5, r0, lsl #20
    4488:	04291500 	strteq	r1, [r9], #-1280	; 0x500
    448c:	0a150000 	beq	544494 <__bss_end__+0x53991c>
    4490:	15000001 	strne	r0, [r0, #-1]
    4494:	0000058a 	andeq	r0, r0, sl, lsl #11
    4498:	00002515 	andeq	r2, r0, r5, lsl r5
    449c:	040e0000 	streq	r0, [lr], #-0
    44a0:	00000119 	andeq	r0, r0, r9, lsl r1
    44a4:	056c040e 	strbeq	r0, [ip, #-1038]!	; 0x40e
    44a8:	86140000 	ldrhi	r0, [r4], -r0
    44ac:	b4000000 	strlt	r0, [r0], #-0
    44b0:	15000005 	strne	r0, [r0, #-5]
    44b4:	00000429 	andeq	r0, r0, r9, lsr #8
    44b8:	00010a15 	andeq	r0, r1, r5, lsl sl
    44bc:	00861500 	addeq	r1, r6, r0, lsl #10
    44c0:	25150000 	ldrcs	r0, [r5, #-0]
    44c4:	00000000 	andeq	r0, r0, r0
    44c8:	0596040e 	ldreq	r0, [r6, #1038]	; 0x40e
    44cc:	25140000 	ldrcs	r0, [r4, #-0]
    44d0:	ce000000 	cdpgt	0, 0, cr0, cr0, cr0, {0}
    44d4:	15000005 	strne	r0, [r0, #-5]
    44d8:	00000429 	andeq	r0, r0, r9, lsr #8
    44dc:	00010a15 	andeq	r0, r1, r5, lsl sl
    44e0:	040e0000 	streq	r0, [lr], #-0
    44e4:	000005ba 			; <UNDEFINED> instruction: 0x000005ba
    44e8:	00005409 	andeq	r5, r0, r9, lsl #8
    44ec:	0005e400 	andeq	lr, r5, r0, lsl #8
    44f0:	00cc0a00 	sbceq	r0, ip, r0, lsl #20
    44f4:	00020000 	andeq	r0, r2, r0
    44f8:	00005409 	andeq	r5, r0, r9, lsl #8
    44fc:	0005f400 	andeq	pc, r5, r0, lsl #8
    4500:	00cc0a00 	sbceq	r0, ip, r0, lsl #20
    4504:	00000000 	andeq	r0, r0, r0
    4508:	0009ef06 	andeq	lr, r9, r6, lsl #30
    450c:	011d0500 	tsteq	sp, r0, lsl #10
    4510:	000002e1 	andeq	r0, r0, r1, ror #5
    4514:	000b7619 	andeq	r7, fp, r9, lsl r6
    4518:	21050c00 	tstcs	r5, r0, lsl #24
    451c:	00063501 	andeq	r3, r6, r1, lsl #10
    4520:	0a171700 	beq	5ca128 <__bss_end__+0x5bf5b0>
    4524:	23050000 	movwcs	r0, #20480	; 0x5000
    4528:	00063501 	andeq	r3, r6, r1, lsl #10
    452c:	f4170000 			; <UNDEFINED> instruction: 0xf4170000
    4530:	05000008 	streq	r0, [r0, #-8]
    4534:	00250124 	eoreq	r0, r5, r4, lsr #2
    4538:	17040000 	strne	r0, [r4, -r0]
    453c:	000009e9 	andeq	r0, r0, r9, ror #19
    4540:	3b012505 	blcc	4d95c <__bss_end__+0x42de4>
    4544:	08000006 	stmdaeq	r0, {r1, r2}
    4548:	00040e00 	andeq	r0, r4, r0, lsl #28
    454c:	0e000006 	cdpeq	0, 0, cr0, cr0, cr6, {0}
    4550:	0005f404 	andeq	pc, r5, r4, lsl #8
    4554:	070d1900 	streq	r1, [sp, -r0, lsl #18]
    4558:	050e0000 	streq	r0, [lr, #-0]
    455c:	0676013d 			; <UNDEFINED> instruction: 0x0676013d
    4560:	5d170000 	ldcpl	0, cr0, [r7, #-0]
    4564:	0500000a 	streq	r0, [r0, #-10]
    4568:	0676013e 			; <UNDEFINED> instruction: 0x0676013e
    456c:	17000000 	strne	r0, [r0, -r0]
    4570:	00000a97 	muleq	r0, r7, sl
    4574:	76013f05 	strvc	r3, [r1], -r5, lsl #30
    4578:	06000006 	streq	r0, [r0], -r6
    457c:	000b1b17 	andeq	r1, fp, r7, lsl fp
    4580:	01400500 	cmpeq	r0, r0, lsl #10
    4584:	0000005b 	andeq	r0, r0, fp, asr r0
    4588:	5b09000c 	blpl	2445c0 <__bss_end__+0x239a48>
    458c:	86000000 	strhi	r0, [r0], -r0
    4590:	0a000006 	beq	45b0 <__code_start__-0x3a50>
    4594:	000000cc 	andeq	r0, r0, ip, asr #1
    4598:	d01a0002 	andsle	r0, sl, r2
    459c:	87025705 	strhi	r5, [r2, -r5, lsl #14]
    45a0:	17000007 	strne	r0, [r0, -r7]
    45a4:	00000b5a 	andeq	r0, r0, sl, asr fp
    45a8:	2c025905 	stccs	9, cr5, [r2], {5}
    45ac:	00000000 	andeq	r0, r0, r0
    45b0:	000b0517 	andeq	r0, fp, r7, lsl r5
    45b4:	025a0500 	subseq	r0, sl, #0, 10
    45b8:	0000010c 	andeq	r0, r0, ip, lsl #2
    45bc:	09101704 	ldmdbeq	r0, {r2, r8, r9, sl, ip}
    45c0:	5b050000 	blpl	1445c8 <__bss_end__+0x139a50>
    45c4:	00078702 	andeq	r8, r7, r2, lsl #14
    45c8:	29170800 	ldmdbcs	r7, {fp}
    45cc:	0500000c 	streq	r0, [r0, #-12]
    45d0:	0192025c 	orrseq	r0, r2, ip, asr r2
    45d4:	17240000 	strne	r0, [r4, -r0]!
    45d8:	000008af 	andeq	r0, r0, pc, lsr #17
    45dc:	25025d05 	strcs	r5, [r2, #-3333]	; 0xd05
    45e0:	48000000 	stmdami	r0, {}	; <UNPREDICTABLE>
    45e4:	000a1217 	andeq	r1, sl, r7, lsl r2
    45e8:	025e0500 	subseq	r0, lr, #0, 10
    45ec:	00000069 	andeq	r0, r0, r9, rrx
    45f0:	0c3f1750 	ldceq	7, cr1, [pc], #-320	; 44b8 <__code_start__-0x3b48>
    45f4:	5f050000 	svcpl	0x00050000
    45f8:	00064102 	andeq	r4, r6, r2, lsl #2
    45fc:	1d175800 	ldcne	8, cr5, [r7, #-0]
    4600:	0500000a 	streq	r0, [r0, #-10]
    4604:	00f40260 	rscseq	r0, r4, r0, ror #4
    4608:	17680000 	strbne	r0, [r8, -r0]!
    460c:	00000c44 	andeq	r0, r0, r4, asr #24
    4610:	f4026105 	vst4.8	{d6,d8,d10,d12}, [r2], r5
    4614:	70000000 	andvc	r0, r0, r0
    4618:	00077217 	andeq	r7, r7, r7, lsl r2
    461c:	02620500 	rsbeq	r0, r2, #0, 10
    4620:	000000f4 	strdeq	r0, [r0], -r4
    4624:	0b961778 	bleq	fe58a40c <__bss_end__+0xfe57f894>
    4628:	63050000 	movwvs	r0, #20480	; 0x5000
    462c:	00079702 	andeq	r9, r7, r2, lsl #14
    4630:	04178000 	ldreq	r8, [r7], #-0
    4634:	05000009 	streq	r0, [r0, #-9]
    4638:	07a70264 	streq	r0, [r7, r4, ror #4]!
    463c:	17880000 	strne	r0, [r8, r0]
    4640:	00000b28 	andeq	r0, r0, r8, lsr #22
    4644:	25026505 	strcs	r6, [r2, #-1285]	; 0x505
    4648:	a0000000 	andge	r0, r0, r0
    464c:	00085b17 	andeq	r5, r8, r7, lsl fp
    4650:	02660500 	rsbeq	r0, r6, #0, 10
    4654:	000000f4 	strdeq	r0, [r0], -r4
    4658:	076317a4 	strbeq	r1, [r3, -r4, lsr #15]!
    465c:	67050000 	strvs	r0, [r5, -r0]
    4660:	0000f402 	andeq	pc, r0, r2, lsl #8
    4664:	4a17ac00 	bmi	5ef66c <__bss_end__+0x5e4af4>
    4668:	05000008 	streq	r0, [r0, #-8]
    466c:	00f40268 	rscseq	r0, r4, r8, ror #4
    4670:	17b40000 	ldrne	r0, [r4, r0]!
    4674:	0000072a 	andeq	r0, r0, sl, lsr #14
    4678:	f4026905 	vst2.8	{d6,d8}, [r2], r5
    467c:	bc000000 	stclt	0, cr0, [r0], {-0}
    4680:	00073917 	andeq	r3, r7, r7, lsl r9
    4684:	026a0500 	rsbeq	r0, sl, #0, 10
    4688:	000000f4 	strdeq	r0, [r0], -r4
    468c:	09cf17c4 	stmibeq	pc, {r2, r6, r7, r8, r9, sl, ip}^	; <UNPREDICTABLE>
    4690:	6b050000 	blvs	144698 <__bss_end__+0x139b20>
    4694:	00002502 	andeq	r2, r0, r2, lsl #10
    4698:	0900cc00 	stmdbeq	r0, {sl, fp, lr, pc}
    469c:	00000112 	andeq	r0, r0, r2, lsl r1
    46a0:	00000797 	muleq	r0, r7, r7
    46a4:	0000cc0a 	andeq	ip, r0, sl, lsl #24
    46a8:	09001900 	stmdbeq	r0, {r8, fp, ip}
    46ac:	00000112 	andeq	r0, r0, r2, lsl r1
    46b0:	000007a7 	andeq	r0, r0, r7, lsr #15
    46b4:	0000cc0a 	andeq	ip, r0, sl, lsl #24
    46b8:	09000700 	stmdbeq	r0, {r8, r9, sl}
    46bc:	00000112 	andeq	r0, r0, r2, lsl r1
    46c0:	000007b7 			; <UNDEFINED> instruction: 0x000007b7
    46c4:	0000cc0a 	andeq	ip, r0, sl, lsl #24
    46c8:	1a001700 	bne	a2d0 <__FUNCTION__.4336+0x128>
    46cc:	027005f0 	rsbseq	r0, r0, #240, 10	; 0x3c000000
    46d0:	000007db 	ldrdeq	r0, [r0], -fp
    46d4:	00097f17 	andeq	r7, r9, r7, lsl pc
    46d8:	02730500 	rsbseq	r0, r3, #0, 10
    46dc:	000007db 	ldrdeq	r0, [r0], -fp
    46e0:	0b8d1700 	bleq	fe34a2e8 <__bss_end__+0xfe33f770>
    46e4:	74050000 	strvc	r0, [r5], #-0
    46e8:	0007eb02 	andeq	lr, r7, r2, lsl #22
    46ec:	09007800 	stmdbeq	r0, {fp, ip, sp, lr}
    46f0:	000002db 	ldrdeq	r0, [r0], -fp
    46f4:	000007eb 	andeq	r0, r0, fp, ror #15
    46f8:	0000cc0a 	andeq	ip, r0, sl, lsl #24
    46fc:	09001d00 	stmdbeq	r0, {r8, sl, fp, ip}
    4700:	0000002c 	andeq	r0, r0, ip, lsr #32
    4704:	000007fb 	strdeq	r0, [r0], -fp
    4708:	0000cc0a 	andeq	ip, r0, sl, lsl #24
    470c:	1b001d00 	blne	bb14 <__bss_end__+0xf9c>
    4710:	025505f0 	subseq	r0, r5, #240, 10	; 0x3c000000
    4714:	0000081d 	andeq	r0, r0, sp, lsl r8
    4718:	000a561c 	andeq	r5, sl, ip, lsl r6
    471c:	026c0500 	rsbeq	r0, ip, #0, 10
    4720:	00000686 	andeq	r0, r0, r6, lsl #13
    4724:	000be91c 	andeq	lr, fp, ip, lsl r9
    4728:	02750500 	rsbseq	r0, r5, #0, 10
    472c:	000007b7 			; <UNDEFINED> instruction: 0x000007b7
    4730:	01120900 	tsteq	r2, r0, lsl #18
    4734:	082d0000 	stmdaeq	sp!, {}	; <UNPREDICTABLE>
    4738:	cc0a0000 	stcgt	0, cr0, [sl], {-0}
    473c:	18000000 	stmdane	r0, {}	; <UNPREDICTABLE>
    4740:	08381d00 	ldmdaeq	r8!, {r8, sl, fp, ip}
    4744:	29150000 	ldmdbcs	r5, {}	; <UNPREDICTABLE>
    4748:	00000004 	andeq	r0, r0, r4
    474c:	082d040e 	stmdaeq	sp!, {r1, r2, r3, sl}
    4750:	040e0000 	streq	r0, [lr], #-0
    4754:	0000017c 	andeq	r0, r0, ip, ror r1
    4758:	00084f1d 	andeq	r4, r8, sp, lsl pc
    475c:	00251500 	eoreq	r1, r5, r0, lsl #10
    4760:	0e000000 	cdpeq	0, 0, cr0, cr0, cr0, {0}
    4764:	00085504 	andeq	r5, r8, r4, lsl #10
    4768:	44040e00 	strmi	r0, [r4], #-3584	; 0xe00
    476c:	09000008 	stmdbeq	r0, {r3}
    4770:	000005f4 	strdeq	r0, [r0], -r4
    4774:	0000086b 	andeq	r0, r0, fp, ror #16
    4778:	0000cc0a 	andeq	ip, r0, sl, lsl #24
    477c:	1e000200 	cdpne	2, 0, cr0, cr0, cr0, {0}
    4780:	00000b3c 	andeq	r0, r0, ip, lsr fp
    4784:	2902fd05 	stmdbcs	r2, {r0, r2, r8, sl, fp, ip, sp, lr, pc}
    4788:	1e000004 	cdpne	0, 0, cr0, cr0, cr4, {0}
    478c:	00000b35 	andeq	r0, r0, r5, lsr fp
    4790:	2f02fe05 	svccs	0x0002fe05
    4794:	14000004 	strne	r0, [r0], #-4
    4798:	00000025 	andeq	r0, r0, r5, lsr #32
    479c:	00000892 	muleq	r0, r2, r8
    47a0:	00002515 	andeq	r2, r0, r5, lsl r5
    47a4:	3f1f0000 	svccc	0x001f0000
    47a8:	06000005 	streq	r0, [r0], -r5
    47ac:	00089d1d 	andeq	r9, r8, sp, lsl sp
    47b0:	83040e00 	movwhi	r0, #19968	; 0x4e00
    47b4:	14000008 	strne	r0, [r0], #-8
    47b8:	00000025 	andeq	r0, r0, r5, lsr #32
    47bc:	000008b2 			; <UNDEFINED> instruction: 0x000008b2
    47c0:	00058a15 	andeq	r8, r5, r5, lsl sl
    47c4:	7c1f0000 	ldcvc	0, cr0, [pc], {-0}
    47c8:	06000005 	streq	r0, [r0], -r5
    47cc:	0008bd22 	andeq	fp, r8, r2, lsr #26
    47d0:	a3040e00 	movwge	r0, #19968	; 0x4e00
    47d4:	20000008 	andcs	r0, r0, r8
    47d8:	00005401 	andeq	r5, r0, r1, lsl #8
    47dc:	000c0700 	andeq	r0, ip, r0, lsl #14
    47e0:	21000009 	tstcs	r0, r9
    47e4:	00000753 	andeq	r0, r0, r3, asr r7
    47e8:	0b7c2100 	bleq	1f0cbf0 <__bss_end__+0x1f02078>
    47ec:	21010000 	mrscs	r0, (UNDEF: 1)
    47f0:	00000bd4 	ldrdeq	r0, [r0], -r4
    47f4:	07942104 	ldreq	r2, [r4, r4, lsl #2]
    47f8:	21050000 	mrscs	r0, (UNDEF: 5)
    47fc:	00000937 	andeq	r0, r0, r7, lsr r9
    4800:	0bf12106 	bleq	ffc4cc20 <__bss_end__+0xffc420a8>
    4804:	21070000 	mrscs	r0, (UNDEF: 7)
    4808:	00000c00 	andeq	r0, r0, r0, lsl #24
    480c:	0c0f2103 	stfeqs	f2, [pc], {3}
    4810:	00020000 	andeq	r0, r2, r0
    4814:	000cce05 	andeq	ip, ip, r5, lsl #28
    4818:	c3150700 	tstgt	r5, #0, 14
    481c:	22000008 	andcs	r0, r0, #8
    4820:	00000c9f 	muleq	r0, pc, ip	; <UNPREDICTABLE>
    4824:	00331d01 	eorseq	r1, r3, r1, lsl #26
    4828:	001c0000 	andseq	r0, ip, r0
    482c:	da222020 	ble	88c8b4 <__bss_end__+0x881d3c>
    4830:	0100000c 	tsteq	r0, ip
    4834:	0000331e 	andeq	r3, r0, lr, lsl r3
    4838:	20002800 	andcs	r2, r0, r0, lsl #16
    483c:	0ca92220 	sfmeq	f2, 4, [r9], #128	; 0x80
    4840:	1f010000 	svcne	0x00010000
    4844:	00000033 	andeq	r0, r0, r3, lsr r0
    4848:	20200034 	eorcs	r0, r0, r4, lsr r0
    484c:	000c7a23 	andeq	r7, ip, r3, lsr #20
    4850:	25560100 	ldrbcs	r0, [r6, #-256]	; 0x100
    4854:	80000000 	andhi	r0, r0, r0
    4858:	3400009a 	strcc	r0, [r0], #-154	; 0x9a
    485c:	01000000 	mrseq	r0, (UNDEF: 0)
    4860:	0009989c 	muleq	r9, ip, r8
    4864:	69702400 	ldmdbvs	r0!, {sl, sp}^
    4868:	5601006e 	strpl	r0, [r1], -lr, rrx
    486c:	0000002c 	andeq	r0, r0, ip, lsr #32
    4870:	0000148d 	andeq	r1, r0, sp, lsl #9
    4874:	000c6e25 	andeq	r6, ip, r5, lsr #28
    4878:	2c590100 	ldfcse	f0, [r9], {-0}
    487c:	c7000000 	strgt	r0, [r0, -r0]
    4880:	26000014 			; <UNDEFINED> instruction: 0x26000014
    4884:	0066666f 	rsbeq	r6, r6, pc, ror #12
    4888:	002c5a01 	eoreq	r5, ip, r1, lsl #20
    488c:	15050000 	strne	r0, [r5, #-0]
    4890:	9c270000 	stcls	0, cr0, [r7], #-0
    4894:	5d00009a 	stcpl	0, cr0, [r0, #-616]	; 0xfffffd98
    4898:	2800000b 	stmdacs	r0, {r0, r1, r3}
    489c:	f30b5001 	vhadd.u8	d5, d11, d1
    48a0:	25355001 	ldrcs	r5, [r5, #-1]!
    48a4:	8080b423 	addhi	fp, r0, r3, lsr #8
    48a8:	00000281 	andeq	r0, r0, r1, lsl #5
    48ac:	000c9429 	andeq	r9, ip, r9, lsr #8
    48b0:	644f0100 	strbvs	r0, [pc], #-256	; 48b8 <__code_start__-0x3748>
    48b4:	1c00009a 	stcne	0, cr0, [r0], {154}	; 0x9a
    48b8:	01000000 	mrseq	r0, (UNDEF: 0)
    48bc:	0009e89c 	muleq	r9, ip, r8
    48c0:	69702400 	ldmdbvs	r0!, {sl, sp}^
    48c4:	4f01006e 	svcmi	0x0001006e
    48c8:	0000002c 	andeq	r0, r0, ip, lsr #32
    48cc:	00001518 	andeq	r1, r0, r8, lsl r5
    48d0:	01007624 	tsteq	r0, r4, lsr #12
    48d4:	00002c4f 	andeq	r2, r0, pc, asr #24
    48d8:	00155200 	andseq	r5, r5, r0, lsl #4
    48dc:	9a742a00 	bls	1d0f0e4 <__bss_end__+0x1d0456c>
    48e0:	0a230000 	beq	8c48e8 <__bss_end__+0x8b9d70>
    48e4:	09de0000 	ldmibeq	lr, {}^	; <UNPREDICTABLE>
    48e8:	01280000 	teqeq	r8, r0
    48ec:	01f30350 	mvnseq	r0, r0, asr r3
    48f0:	7c2b0050 	stcvc	0, cr0, [fp], #-320	; 0xfffffec0
    48f4:	6400009a 	strvs	r0, [r0], #-154	; 0x9a
    48f8:	0000000a 	andeq	r0, r0, sl
    48fc:	000cb329 	andeq	fp, ip, r9, lsr #6
    4900:	544a0100 	strbpl	r0, [sl], #-256	; 0x100
    4904:	1000009a 	mulne	r0, sl, r0
    4908:	01000000 	mrseq	r0, (UNDEF: 0)
    490c:	000a239c 	muleq	sl, ip, r3
    4910:	69702400 	ldmdbvs	r0!, {sl, sp}^
    4914:	4a01006e 	bmi	44ad4 <__bss_end__+0x39f5c>
    4918:	0000002c 	andeq	r0, r0, ip, lsr #32
    491c:	0000158c 	andeq	r1, r0, ip, lsl #11
    4920:	009a6027 	addseq	r6, sl, r7, lsr #32
    4924:	000ae000 	andeq	lr, sl, r0
    4928:	50012800 	andpl	r2, r1, r0, lsl #16
    492c:	5001f303 	andpl	pc, r1, r3, lsl #6
    4930:	01510128 	cmpeq	r1, r8, lsr #2
    4934:	29000030 	stmdbcs	r0, {r4, r5}
    4938:	00000c61 	andeq	r0, r0, r1, ror #24
    493c:	9a304301 	bls	c15548 <__bss_end__+0xc0a9d0>
    4940:	00240000 	eoreq	r0, r4, r0
    4944:	9c010000 	stcls	0, cr0, [r1], {-0}
    4948:	00000a64 	andeq	r0, r0, r4, ror #20
    494c:	6e697024 	cdpvs	0, 6, cr7, cr9, cr4, {1}
    4950:	2c430100 	stfcse	f0, [r3], {-0}
    4954:	ad000000 	stcge	0, cr0, [r0, #-0]
    4958:	27000015 	smladcs	r0, r5, r0, r0
    495c:	00009a4c 	andeq	r9, r0, ip, asr #20
    4960:	00000b68 	andeq	r0, r0, r8, ror #22
    4964:	05500128 	ldrbeq	r0, [r0, #-296]	; 0x128
    4968:	2000280c 	andcs	r2, r0, ip, lsl #16
    496c:	51012820 	tstpl	r1, r0, lsr #16
    4970:	01f33105 	mvnseq	r3, r5, lsl #2
    4974:	00002450 	andeq	r2, r0, r0, asr r4
    4978:	000cc229 	andeq	ip, ip, r9, lsr #4
    497c:	0c3c0100 	ldfeqs	f0, [ip], #-0
    4980:	2400009a 	strcs	r0, [r0], #-154	; 0x9a
    4984:	01000000 	mrseq	r0, (UNDEF: 0)
    4988:	000aa59c 	muleq	sl, ip, r5
    498c:	69702400 	ldmdbvs	r0!, {sl, sp}^
    4990:	3c01006e 	stccc	0, cr0, [r1], {110}	; 0x6e
    4994:	0000002c 	andeq	r0, r0, ip, lsr #32
    4998:	000015ce 	andeq	r1, r0, lr, asr #11
    499c:	009a2827 	addseq	r2, sl, r7, lsr #16
    49a0:	000b6800 	andeq	r6, fp, r0, lsl #16
    49a4:	50012800 	andpl	r2, r1, r0, lsl #16
    49a8:	001c0c05 	andseq	r0, ip, r5, lsl #24
    49ac:	01282020 	teqeq	r8, r0, lsr #32
    49b0:	f3310551 	vqrshl.u64	q0, <illegal reg q0.5>, <illegal reg q0.5>
    49b4:	00245001 	eoreq	r5, r4, r1
    49b8:	0c842900 	stceq	9, cr2, [r4], {0}
    49bc:	37010000 	strcc	r0, [r1, -r0]
    49c0:	000099fc 	strdeq	r9, [r0], -ip
    49c4:	00000010 	andeq	r0, r0, r0, lsl r0
    49c8:	0ae09c01 	beq	ff82b9d4 <__bss_end__+0xff820e5c>
    49cc:	70240000 	eorvc	r0, r4, r0
    49d0:	01006e69 	tsteq	r0, r9, ror #28
    49d4:	00002c37 	andeq	r2, r0, r7, lsr ip
    49d8:	0015ef00 	andseq	lr, r5, r0, lsl #30
    49dc:	9a082700 	bls	20e5e4 <__bss_end__+0x203a6c>
    49e0:	0ae00000 	beq	ff8049e8 <__bss_end__+0xff7f9e70>
    49e4:	01280000 	teqeq	r8, r0
    49e8:	01f30350 	mvnseq	r0, r0, asr r3
    49ec:	51012850 	tstpl	r1, r0, asr r8
    49f0:	00003101 	andeq	r3, r0, r1, lsl #2
    49f4:	00096d29 	andeq	r6, r9, r9, lsr #26
    49f8:	94280100 	strtls	r0, [r8], #-256	; 0x100
    49fc:	68000099 	stmdavs	r0, {r0, r3, r4, r7}
    4a00:	01000000 	mrseq	r0, (UNDEF: 0)
    4a04:	000b5d9c 	muleq	fp, ip, sp
    4a08:	69702400 	ldmdbvs	r0!, {sl, sp}^
    4a0c:	2801006e 	stmdacs	r1, {r1, r2, r3, r5, r6}
    4a10:	0000002c 	andeq	r0, r0, ip, lsr #32
    4a14:	00001610 	andeq	r1, r0, r0, lsl r6
    4a18:	000bb92c 	andeq	fp, fp, ip, lsr #18
    4a1c:	00280100 	eoreq	r0, r8, r0, lsl #2
    4a20:	31000009 	tstcc	r0, r9
    4a24:	2d000016 	stccs	0, cr0, [r0, #-88]	; 0xffffffa8
    4a28:	0066666f 	rsbeq	r6, r6, pc, ror #12
    4a2c:	002c2d01 	eoreq	r2, ip, r1, lsl #26
    4a30:	54010000 	strpl	r0, [r1], #-0
    4a34:	0100672d 	tsteq	r0, sp, lsr #14
    4a38:	00002c2f 	andeq	r2, r0, pc, lsr #24
    4a3c:	26560100 	ldrbcs	r0, [r6], -r0, lsl #2
    4a40:	31010076 	tstcc	r1, r6, ror r0
    4a44:	0000002c 	andeq	r0, r0, ip, lsr #32
    4a48:	00001652 	andeq	r1, r0, r2, asr r6
    4a4c:	0099e02a 	addseq	lr, r9, sl, lsr #32
    4a50:	000b5d00 	andeq	r5, fp, r0, lsl #26
    4a54:	000b4c00 	andeq	r4, fp, r0, lsl #24
    4a58:	50012800 	andpl	r2, r1, r0, lsl #16
    4a5c:	00007602 	andeq	r7, r0, r2, lsl #12
    4a60:	0099f427 	addseq	pc, r9, r7, lsr #8
    4a64:	000b6800 	andeq	r6, fp, r0, lsl #16
    4a68:	50012800 	andpl	r2, r1, r0, lsl #16
    4a6c:	00007602 	andeq	r7, r0, r2, lsl #12
    4a70:	06ca2e00 	strbeq	r2, [sl], r0, lsl #28
    4a74:	06ca0000 	strbeq	r0, [sl], r0
    4a78:	a7060000 	strge	r0, [r6, -r0]
    4a7c:	00067c2e 	andeq	r7, r6, lr, lsr #24
    4a80:	00067c00 	andeq	r7, r6, r0, lsl #24
    4a84:	009b0600 	addseq	r0, fp, r0, lsl #12
    4a88:	00000c24 	andeq	r0, r0, r4, lsr #24
    4a8c:	147f0004 	ldrbtne	r0, [pc], #-4	; 4a94 <__code_start__-0x356c>
    4a90:	01040000 	mrseq	r0, (UNDEF: 4)
    4a94:	00000aa3 	andeq	r0, r0, r3, lsr #21
    4a98:	000ce40c 	andeq	lr, ip, ip, lsl #8
    4a9c:	00081500 	andeq	r1, r8, r0, lsl #10
    4aa0:	009ab400 	addseq	fp, sl, r0, lsl #8
    4aa4:	00019400 	andeq	r9, r1, r0, lsl #8
    4aa8:	0011c200 	andseq	ip, r1, r0, lsl #4
    4aac:	05040200 	streq	r0, [r4, #-512]	; 0x200
    4ab0:	00746e69 	rsbseq	r6, r4, r9, ror #28
    4ab4:	34070403 	strcc	r0, [r7], #-1027	; 0x403
    4ab8:	03000001 	movweq	r0, #1
    4abc:	00e20601 	rsceq	r0, r2, r1, lsl #12
    4ac0:	02030000 	andeq	r0, r3, #0
    4ac4:	00015805 	andeq	r5, r1, r5, lsl #16
    4ac8:	05040300 	streq	r0, [r4, #-768]	; 0x300
    4acc:	0000014f 	andeq	r0, r0, pc, asr #2
    4ad0:	4a050803 	bmi	146ae4 <__bss_end__+0x13bf6c>
    4ad4:	03000001 	movweq	r0, #1
    4ad8:	00e00801 	rsceq	r0, r0, r1, lsl #16
    4adc:	02030000 	andeq	r0, r3, #0
    4ae0:	0000ee07 	andeq	lr, r0, r7, lsl #28
    4ae4:	07040300 	streq	r0, [r4, -r0, lsl #6]
    4ae8:	0000012f 	andeq	r0, r0, pc, lsr #2
    4aec:	2a070803 	bcs	1c6b00 <__bss_end__+0x1bbf88>
    4af0:	04000001 	streq	r0, [r0], #-1
    4af4:	000009b8 			; <UNDEFINED> instruction: 0x000009b8
    4af8:	00250702 	eoreq	r0, r5, r2, lsl #14
    4afc:	a2040000 	andge	r0, r4, #0
    4b00:	03000009 	movweq	r0, #9
    4b04:	0000412c 	andeq	r4, r0, ip, lsr #2
    4b08:	0a7e0400 	beq	1f85b10 <__bss_end__+0x1f7af98>
    4b0c:	72030000 	andvc	r0, r3, #0
    4b10:	00000041 	andeq	r0, r0, r1, asr #32
    4b14:	00094605 	andeq	r4, r9, r5, lsl #12
    4b18:	01650400 	cmneq	r5, r0, lsl #8
    4b1c:	0000002c 	andeq	r0, r0, ip, lsr #32
    4b20:	a6030406 	strge	r0, [r3], -r6, lsl #8
    4b24:	000000b7 	strheq	r0, [r0], -r7
    4b28:	00093107 	andeq	r3, r9, r7, lsl #2
    4b2c:	8ca80300 	stchi	3, cr0, [r8]
    4b30:	07000000 	streq	r0, [r0, -r0]
    4b34:	000008cd 	andeq	r0, r0, sp, asr #17
    4b38:	00b7a903 	adcseq	sl, r7, r3, lsl #18
    4b3c:	08000000 	stmdaeq	r0, {}	; <UNPREDICTABLE>
    4b40:	0000004f 	andeq	r0, r0, pc, asr #32
    4b44:	000000c7 	andeq	r0, r0, r7, asr #1
    4b48:	0000c709 	andeq	ip, r0, r9, lsl #14
    4b4c:	03000300 	movweq	r0, #768	; 0x300
    4b50:	01410704 	cmpeq	r1, r4, lsl #14
    4b54:	080a0000 	stmdaeq	sl, {}	; <UNPREDICTABLE>
    4b58:	00efa303 	rsceq	sl, pc, r3, lsl #6
    4b5c:	630b0000 	movwvs	r0, #45056	; 0xb000
    4b60:	0300000a 	movweq	r0, #10
    4b64:	000025a5 	andeq	r2, r0, r5, lsr #11
    4b68:	6b0b0000 	blvs	2c4b70 <__bss_end__+0x2b9ff8>
    4b6c:	0300000a 	movweq	r0, #10
    4b70:	000098aa 	andeq	r9, r0, sl, lsr #17
    4b74:	04000400 	streq	r0, [r0], #-1024	; 0x400
    4b78:	000009f6 	strdeq	r0, [r0], -r6
    4b7c:	00ceab03 	sbceq	sl, lr, r3, lsl #22
    4b80:	96040000 	strls	r0, [r4], -r0
    4b84:	03000008 	movweq	r0, #8
    4b88:	00006baf 	andeq	r6, r0, pc, lsr #23
    4b8c:	0d040c00 	stceq	12, cr0, [r4, #-0]
    4b90:	00010d04 	andeq	r0, r1, r4, lsl #26
    4b94:	08010300 	stmdaeq	r1, {r8, r9}
    4b98:	000000e9 	andeq	r0, r0, r9, ror #1
    4b9c:	00010d0e 	andeq	r0, r1, lr, lsl #26
    4ba0:	0b200400 	bleq	805ba8 <__bss_end__+0x7fb030>
    4ba4:	16050000 	strne	r0, [r5], -r0
    4ba8:	0000005d 	andeq	r0, r0, sp, asr r0
    4bac:	0008a70f 	andeq	sl, r8, pc, lsl #14
    4bb0:	2d051800 	stccs	8, cr1, [r5, #-0]
    4bb4:	00000177 	andeq	r0, r0, r7, ror r1
    4bb8:	000a170b 	andeq	r1, sl, fp, lsl #14
    4bbc:	772f0500 	strvc	r0, [pc, -r0, lsl #10]!
    4bc0:	00000001 	andeq	r0, r0, r1
    4bc4:	006b5f10 	rsbeq	r5, fp, r0, lsl pc
    4bc8:	00253005 	eoreq	r3, r5, r5
    4bcc:	0b040000 	bleq	104bd4 <__bss_end__+0xfa05c>
    4bd0:	00000a4e 	andeq	r0, r0, lr, asr #20
    4bd4:	00253005 	eoreq	r3, r5, r5
    4bd8:	0b080000 	bleq	204be0 <__bss_end__+0x1fa068>
    4bdc:	00000882 	andeq	r0, r0, r2, lsl #17
    4be0:	00253005 	eoreq	r3, r5, r5
    4be4:	0b0c0000 	bleq	304bec <__bss_end__+0x2fa074>
    4be8:	00000b67 	andeq	r0, r0, r7, ror #22
    4bec:	00253005 	eoreq	r3, r5, r5
    4bf0:	10100000 	andsne	r0, r0, r0
    4bf4:	0500785f 	streq	r7, [r0, #-2143]	; 0x85f
    4bf8:	00017d31 	andeq	r7, r1, r1, lsr sp
    4bfc:	0d001400 	cfstrseq	mvf1, [r0, #-0]
    4c00:	00012404 	andeq	r2, r1, r4, lsl #8
    4c04:	01190800 	tsteq	r9, r0, lsl #16
    4c08:	018d0000 	orreq	r0, sp, r0
    4c0c:	c7090000 	strgt	r0, [r9, -r0]
    4c10:	00000000 	andeq	r0, r0, r0
    4c14:	08c80f00 	stmiaeq	r8, {r8, r9, sl, fp}^
    4c18:	05240000 	streq	r0, [r4, #-0]!
    4c1c:	00020635 	andeq	r0, r2, r5, lsr r6
    4c20:	07800b00 	streq	r0, [r0, r0, lsl #22]
    4c24:	37050000 	strcc	r0, [r5, -r0]
    4c28:	00000025 	andeq	r0, r0, r5, lsr #32
    4c2c:	0a860b00 	beq	fe187834 <__bss_end__+0xfe17ccbc>
    4c30:	38050000 	stmdacc	r5, {}	; <UNPREDICTABLE>
    4c34:	00000025 	andeq	r0, r0, r5, lsr #32
    4c38:	07ae0b04 	streq	r0, [lr, r4, lsl #22]!
    4c3c:	39050000 	stmdbcc	r5, {}	; <UNPREDICTABLE>
    4c40:	00000025 	andeq	r0, r0, r5, lsr #32
    4c44:	0c570b08 	mrrceq	11, 0, r0, r7, cr8
    4c48:	3a050000 	bcc	144c50 <__bss_end__+0x13a0d8>
    4c4c:	00000025 	andeq	r0, r0, r5, lsr #32
    4c50:	09860b0c 	stmibeq	r6, {r2, r3, r8, r9, fp}
    4c54:	3b050000 	blcc	144c5c <__bss_end__+0x13a0e4>
    4c58:	00000025 	andeq	r0, r0, r5, lsr #32
    4c5c:	095b0b10 	ldmdbeq	fp, {r4, r8, r9, fp}^
    4c60:	3c050000 	stccc	0, cr0, [r5], {-0}
    4c64:	00000025 	andeq	r0, r0, r5, lsr #32
    4c68:	0b6c0b14 	bleq	1b078c0 <__bss_end__+0x1afcd48>
    4c6c:	3d050000 	stccc	0, cr0, [r5, #-0]
    4c70:	00000025 	andeq	r0, r0, r5, lsr #32
    4c74:	09d80b18 	ldmibeq	r8, {r3, r4, r8, r9, fp}^
    4c78:	3e050000 	cdpcc	0, 0, cr0, cr5, cr0, {0}
    4c7c:	00000025 	andeq	r0, r0, r5, lsr #32
    4c80:	0c1e0b1c 	ldceq	11, cr0, [lr], {28}
    4c84:	3f050000 	svccc	0x00050000
    4c88:	00000025 	andeq	r0, r0, r5, lsr #32
    4c8c:	bd110020 	ldclt	0, cr0, [r1, #-128]	; 0xffffff80
    4c90:	08000007 	stmdaeq	r0, {r0, r1, r2}
    4c94:	46480501 	strbmi	r0, [r8], -r1, lsl #10
    4c98:	0b000002 	bleq	4ca8 <__code_start__-0x3358>
    4c9c:	00000869 	andeq	r0, r0, r9, ror #16
    4ca0:	02464905 	subeq	r4, r6, #81920	; 0x14000
    4ca4:	0b000000 	bleq	4cac <__code_start__-0x3354>
    4ca8:	000006fb 	strdeq	r0, [r0], -fp
    4cac:	02464a05 	subeq	r4, r6, #20480	; 0x5000
    4cb0:	12800000 	addne	r0, r0, #0
    4cb4:	00000b12 	andeq	r0, r0, r2, lsl fp
    4cb8:	01194c05 	tsteq	r9, r5, lsl #24
    4cbc:	01000000 	mrseq	r0, (UNDEF: 0)
    4cc0:	0007e212 	andeq	lr, r7, r2, lsl r2
    4cc4:	194f0500 	stmdbne	pc, {r8, sl}^	; <UNPREDICTABLE>
    4cc8:	04000001 	streq	r0, [r0], #-1
    4ccc:	05080001 	streq	r0, [r8, #-1]
    4cd0:	56000001 	strpl	r0, [r0], -r1
    4cd4:	09000002 	stmdbeq	r0, {r1}
    4cd8:	000000c7 	andeq	r0, r0, r7, asr #1
    4cdc:	8f11001f 	svchi	0x0011001f
    4ce0:	90000009 	andls	r0, r0, r9
    4ce4:	945b0501 	ldrbls	r0, [fp], #-1281	; 0x501
    4ce8:	0b000002 	bleq	4cf8 <__code_start__-0x3308>
    4cec:	00000a17 	andeq	r0, r0, r7, lsl sl
    4cf0:	02945c05 	addseq	r5, r4, #1280	; 0x500
    4cf4:	0b000000 	bleq	4cfc <__code_start__-0x3304>
    4cf8:	00000a2f 	andeq	r0, r0, pc, lsr #20
    4cfc:	00255d05 	eoreq	r5, r5, r5, lsl #26
    4d00:	0b040000 	bleq	104d08 <__bss_end__+0xfa190>
    4d04:	0000087d 	andeq	r0, r0, sp, ror r8
    4d08:	029a5f05 	addseq	r5, sl, #5, 30
    4d0c:	0b080000 	bleq	204d14 <__bss_end__+0x1fa19c>
    4d10:	000007bd 			; <UNDEFINED> instruction: 0x000007bd
    4d14:	02066005 	andeq	r6, r6, #5
    4d18:	00880000 	addeq	r0, r8, r0
    4d1c:	0256040d 	subseq	r0, r6, #218103808	; 0xd000000
    4d20:	aa080000 	bge	204d28 <__bss_end__+0x1fa1b0>
    4d24:	aa000002 	bge	4d34 <__code_start__-0x32cc>
    4d28:	09000002 	stmdbeq	r0, {r1}
    4d2c:	000000c7 	andeq	r0, r0, r7, asr #1
    4d30:	040d001f 	streq	r0, [sp], #-31
    4d34:	000002b0 			; <UNDEFINED> instruction: 0x000002b0
    4d38:	09e20f13 	stmibeq	r2!, {r0, r1, r4, r8, r9, sl, fp}^
    4d3c:	05080000 	streq	r0, [r8, #-0]
    4d40:	0002d673 	andeq	sp, r2, r3, ror r6
    4d44:	07a30b00 	streq	r0, [r3, r0, lsl #22]!
    4d48:	74050000 	strvc	r0, [r5], #-0
    4d4c:	000002d6 	ldrdeq	r0, [r0], -r6
    4d50:	07070b00 	streq	r0, [r7, -r0, lsl #22]
    4d54:	75050000 	strvc	r0, [r5, #-0]
    4d58:	00000025 	andeq	r0, r0, r5, lsr #32
    4d5c:	040d0004 	streq	r0, [sp], #-4
    4d60:	0000004f 	andeq	r0, r0, pc, asr #32
    4d64:	000a010f 	andeq	r0, sl, pc, lsl #2
    4d68:	b3056800 	movwlt	r6, #22528	; 0x5800
    4d6c:	00000406 	andeq	r0, r0, r6, lsl #8
    4d70:	00705f10 	rsbseq	r5, r0, r0, lsl pc
    4d74:	02d6b405 	sbcseq	fp, r6, #83886080	; 0x5000000
    4d78:	10000000 	andne	r0, r0, r0
    4d7c:	0500725f 	streq	r7, [r0, #-607]	; 0x25f
    4d80:	000025b5 			; <UNDEFINED> instruction: 0x000025b5
    4d84:	5f100400 	svcpl	0x00100400
    4d88:	b6050077 			; <UNDEFINED> instruction: 0xb6050077
    4d8c:	00000025 	andeq	r0, r0, r5, lsr #32
    4d90:	07db0b08 	ldrbeq	r0, [fp, r8, lsl #22]
    4d94:	b7050000 	strlt	r0, [r5, -r0]
    4d98:	0000003a 	andeq	r0, r0, sl, lsr r0
    4d9c:	08ee0b0c 	stmiaeq	lr!, {r2, r3, r8, r9, fp}^
    4da0:	b8050000 	stmdalt	r5, {}	; <UNPREDICTABLE>
    4da4:	0000003a 	andeq	r0, r0, sl, lsr r0
    4da8:	625f100e 	subsvs	r1, pc, #14
    4dac:	b9050066 	stmdblt	r5, {r1, r2, r5, r6}
    4db0:	000002b1 			; <UNDEFINED> instruction: 0x000002b1
    4db4:	074a0b10 	smlaldeq	r0, sl, r0, fp
    4db8:	ba050000 	blt	144dc0 <__bss_end__+0x13a248>
    4dbc:	00000025 	andeq	r0, r0, r5, lsr #32
    4dc0:	07cb0b18 	bfieq	r0, r8, (invalid: 22:11)
    4dc4:	c1050000 	mrsgt	r0, (UNDEF: 5)
    4dc8:	00000105 	andeq	r0, r0, r5, lsl #2
    4dcc:	0c7e0b1c 	ldcleq	11, cr0, [lr], #-112	; 0xffffff90
    4dd0:	c3050000 	movwgt	r0, #20480	; 0x5000
    4dd4:	00000561 	andeq	r0, r0, r1, ror #10
    4dd8:	0c980b20 	vldmiaeq	r8, {d0-d15}
    4ddc:	c5050000 	strgt	r0, [r5, #-0]
    4de0:	0000058b 	andeq	r0, r0, fp, lsl #11
    4de4:	0a730b24 	beq	1cc7a7c <__bss_end__+0x1cbcf04>
    4de8:	c8050000 	stmdagt	r5, {}	; <UNPREDICTABLE>
    4dec:	000005af 	andeq	r0, r0, pc, lsr #11
    4df0:	0c380b28 	ldceq	11, cr0, [r8], #-160	; 0xffffff60
    4df4:	c9050000 	stmdbgt	r5, {}	; <UNPREDICTABLE>
    4df8:	000005c9 	andeq	r0, r0, r9, asr #11
    4dfc:	755f102c 	ldrbvc	r1, [pc, #-44]	; 4dd8 <__code_start__-0x3228>
    4e00:	cc050062 	stcgt	0, cr0, [r5], {98}	; 0x62
    4e04:	000002b1 			; <UNDEFINED> instruction: 0x000002b1
    4e08:	755f1030 	ldrbvc	r1, [pc, #-48]	; 4de0 <__code_start__-0x3220>
    4e0c:	cd050070 	stcgt	0, cr0, [r5, #-448]	; 0xfffffe40
    4e10:	000002d6 	ldrdeq	r0, [r0], -r6
    4e14:	755f1038 	ldrbvc	r1, [pc, #-56]	; 4de4 <__code_start__-0x321c>
    4e18:	ce050072 	mcrgt	0, 0, r0, cr5, cr2, {3}
    4e1c:	00000025 	andeq	r0, r0, r5, lsr #32
    4e20:	078e0b3c 			; <UNDEFINED> instruction: 0x078e0b3c
    4e24:	d1050000 	mrsle	r0, (UNDEF: 5)
    4e28:	000005cf 	andeq	r0, r0, pc, asr #11
    4e2c:	0be30b40 	bleq	ff8c7b34 <__bss_end__+0xff8bcfbc>
    4e30:	d2050000 	andle	r0, r5, #0
    4e34:	000005df 	ldrdeq	r0, [r0], -pc	; <UNPREDICTABLE>
    4e38:	6c5f1043 	mrrcvs	0, 4, r1, pc, cr3	; <UNPREDICTABLE>
    4e3c:	d5050062 	strle	r0, [r5, #-98]	; 0x62
    4e40:	000002b1 			; <UNDEFINED> instruction: 0x000002b1
    4e44:	07f10b44 	ldrbeq	r0, [r1, r4, asr #22]!
    4e48:	d8050000 	stmdale	r5, {}	; <UNPREDICTABLE>
    4e4c:	00000025 	andeq	r0, r0, r5, lsr #32
    4e50:	09650b4c 	stmdbeq	r5!, {r2, r3, r6, r8, r9, fp}^
    4e54:	d9050000 	stmdble	r5, {}	; <UNPREDICTABLE>
    4e58:	00000076 	andeq	r0, r0, r6, ror r0
    4e5c:	0bce0b50 	bleq	ff387ba4 <__bss_end__+0xff37d02c>
    4e60:	dc050000 	stcle	0, cr0, [r5], {-0}
    4e64:	00000424 	andeq	r0, r0, r4, lsr #8
    4e68:	094d0b54 	stmdbeq	sp, {r2, r4, r6, r8, r9, fp}^
    4e6c:	e0050000 	and	r0, r5, r0
    4e70:	000000fa 	strdeq	r0, [r0], -sl
    4e74:	0a090b58 	beq	247bdc <__bss_end__+0x23d064>
    4e78:	e2050000 	and	r0, r5, #0
    4e7c:	000000ef 	andeq	r0, r0, pc, ror #1
    4e80:	09530b5c 	ldmdbeq	r3, {r2, r3, r4, r6, r8, r9, fp}^
    4e84:	e3050000 	movw	r0, #20480	; 0x5000
    4e88:	00000025 	andeq	r0, r0, r5, lsr #32
    4e8c:	25140064 	ldrcs	r0, [r4, #-100]	; 0x64
    4e90:	24000000 	strcs	r0, [r0], #-0
    4e94:	15000004 	strne	r0, [r0, #-4]
    4e98:	00000424 	andeq	r0, r0, r4, lsr #8
    4e9c:	00010515 	andeq	r0, r1, r5, lsl r5
    4ea0:	01071500 	tsteq	r7, r0, lsl #10
    4ea4:	25150000 	ldrcs	r0, [r5, #-0]
    4ea8:	00000000 	andeq	r0, r0, r0
    4eac:	042f040d 	strteq	r0, [pc], #-1037	; 4eb4 <__code_start__-0x314c>
    4eb0:	240e0000 	strcs	r0, [lr], #-0
    4eb4:	16000004 	strne	r0, [r0], -r4
    4eb8:	00000a56 	andeq	r0, r0, r6, asr sl
    4ebc:	38050428 	stmdacc	r5, {r3, r5, sl}
    4ec0:	00056102 	andeq	r6, r5, r2, lsl #2
    4ec4:	09d11700 	ldmibeq	r1, {r8, r9, sl, ip}^
    4ec8:	3a050000 	bcc	144ed0 <__bss_end__+0x13a358>
    4ecc:	00002502 	andeq	r2, r0, r2, lsl #10
    4ed0:	ea170000 	b	5c4ed8 <__bss_end__+0x5ba360>
    4ed4:	05000007 	streq	r0, [r0, #-7]
    4ed8:	0636023f 			; <UNDEFINED> instruction: 0x0636023f
    4edc:	17040000 	strne	r0, [r4, -r0]
    4ee0:	000008de 	ldrdeq	r0, [r0], -lr
    4ee4:	36023f05 	strcc	r3, [r2], -r5, lsl #30
    4ee8:	08000006 	stmdaeq	r0, {r1, r2}
    4eec:	00089f17 	andeq	r9, r8, r7, lsl pc
    4ef0:	023f0500 	eorseq	r0, pc, #0, 10
    4ef4:	00000636 	andeq	r0, r0, r6, lsr r6
    4ef8:	0a2a170c 	beq	a8ab30 <__bss_end__+0xa7ffb8>
    4efc:	41050000 	mrsmi	r0, (UNDEF: 5)
    4f00:	00002502 	andeq	r2, r0, r2, lsl #10
    4f04:	15171000 	ldrne	r1, [r7, #-0]
    4f08:	05000007 	streq	r0, [r0, #-7]
    4f0c:	08180242 	ldmdaeq	r8, {r1, r6, r9}
    4f10:	17140000 	ldrne	r0, [r4, -r0]
    4f14:	00000b48 	andeq	r0, r0, r8, asr #22
    4f18:	25024405 	strcs	r4, [r2, #-1029]	; 0x405
    4f1c:	30000000 	andcc	r0, r0, r0
    4f20:	000a3417 	andeq	r3, sl, r7, lsl r4
    4f24:	02450500 	subeq	r0, r5, #0, 10
    4f28:	00000585 	andeq	r0, r0, r5, lsl #11
    4f2c:	09971734 	ldmibeq	r7, {r2, r4, r5, r8, r9, sl, ip}
    4f30:	47050000 	strmi	r0, [r5, -r0]
    4f34:	00002502 	andeq	r2, r0, r2, lsl #10
    4f38:	44173800 	ldrmi	r3, [r7], #-2048	; 0x800
    4f3c:	0500000a 	streq	r0, [r0, #-10]
    4f40:	08330249 	ldmdaeq	r3!, {r0, r3, r6, r9}
    4f44:	173c0000 	ldrne	r0, [ip, -r0]!
    4f48:	00000929 	andeq	r0, r0, r9, lsr #18
    4f4c:	77024c05 	strvc	r4, [r2, -r5, lsl #24]
    4f50:	40000001 	andmi	r0, r0, r1
    4f54:	0008be17 	andeq	fp, r8, r7, lsl lr
    4f58:	024d0500 	subeq	r0, sp, #0, 10
    4f5c:	00000025 	andeq	r0, r0, r5, lsr #32
    4f60:	0c521744 	mrrceq	7, 4, r1, r2, cr4
    4f64:	4e050000 	cdpmi	0, 0, cr0, cr5, cr0, {0}
    4f68:	00017702 	andeq	r7, r1, r2, lsl #14
    4f6c:	ae174800 	cdpge	8, 1, cr4, cr7, cr0, {0}
    4f70:	05000009 	streq	r0, [r0, #-9]
    4f74:	0839024f 	ldmdaeq	r9!, {r0, r1, r2, r3, r6, r9}
    4f78:	174c0000 	strbne	r0, [ip, -r0]
    4f7c:	000008e6 	andeq	r0, r0, r6, ror #17
    4f80:	25025205 	strcs	r5, [r2, #-517]	; 0x205
    4f84:	50000000 	andpl	r0, r0, r0
    4f88:	00080d17 	andeq	r0, r8, r7, lsl sp
    4f8c:	02530500 	subseq	r0, r3, #0, 10
    4f90:	00000107 	andeq	r0, r0, r7, lsl #2
    4f94:	09ca1754 	stmibeq	sl, {r2, r4, r6, r8, r9, sl, ip}^
    4f98:	76050000 	strvc	r0, [r5], -r0
    4f9c:	0007f602 	andeq	pc, r7, r2, lsl #12
    4fa0:	8f185800 	svchi	0x00185800
    4fa4:	05000009 	streq	r0, [r0, #-9]
    4fa8:	0294027a 	addseq	r0, r4, #-1610612729	; 0xa0000007
    4fac:	01480000 	mrseq	r0, (UNDEF: 72)
    4fb0:	0008fb18 	andeq	pc, r8, r8, lsl fp	; <UNPREDICTABLE>
    4fb4:	027b0500 	rsbseq	r0, fp, #0, 10
    4fb8:	00000256 	andeq	r0, r0, r6, asr r2
    4fbc:	b418014c 	ldrlt	r0, [r8], #-332	; 0x14c
    4fc0:	0500000b 	streq	r0, [r0, #-11]
    4fc4:	084a027f 	stmdaeq	sl, {r0, r1, r2, r3, r4, r5, r6, r9}^
    4fc8:	02dc0000 	sbcseq	r0, ip, #0
    4fcc:	0007d318 	andeq	sp, r7, r8, lsl r3
    4fd0:	02840500 	addeq	r0, r4, #0, 10
    4fd4:	000005fb 	strdeq	r0, [r0], -fp
    4fd8:	b81802e0 	ldmdalt	r8, {r5, r6, r7, r9}
    4fdc:	05000007 	streq	r0, [r0, #-7]
    4fe0:	08560285 	ldmdaeq	r6, {r0, r2, r7, r9}^
    4fe4:	02ec0000 	rsceq	r0, ip, #0
    4fe8:	06040d00 	streq	r0, [r4], -r0, lsl #26
    4fec:	14000004 	strne	r0, [r0], #-4
    4ff0:	00000025 	andeq	r0, r0, r5, lsr #32
    4ff4:	00000585 	andeq	r0, r0, r5, lsl #11
    4ff8:	00042415 	andeq	r2, r4, r5, lsl r4
    4ffc:	01051500 	tsteq	r5, r0, lsl #10
    5000:	85150000 	ldrhi	r0, [r5, #-0]
    5004:	15000005 	strne	r0, [r0, #-5]
    5008:	00000025 	andeq	r0, r0, r5, lsr #32
    500c:	14040d00 	strne	r0, [r4], #-3328	; 0xd00
    5010:	0d000001 	stceq	0, cr0, [r0, #-4]
    5014:	00056704 	andeq	r6, r5, r4, lsl #14
    5018:	00811400 	addeq	r1, r1, r0, lsl #8
    501c:	05af0000 	streq	r0, [pc, #0]!	; 5024 <__code_start__-0x2fdc>
    5020:	24150000 	ldrcs	r0, [r5], #-0
    5024:	15000004 	strne	r0, [r0, #-4]
    5028:	00000105 	andeq	r0, r0, r5, lsl #2
    502c:	00008115 	andeq	r8, r0, r5, lsl r1
    5030:	00251500 	eoreq	r1, r5, r0, lsl #10
    5034:	0d000000 	stceq	0, cr0, [r0, #-0]
    5038:	00059104 	andeq	r9, r5, r4, lsl #2
    503c:	00251400 	eoreq	r1, r5, r0, lsl #8
    5040:	05c90000 	strbeq	r0, [r9]
    5044:	24150000 	ldrcs	r0, [r5], #-0
    5048:	15000004 	strne	r0, [r0, #-4]
    504c:	00000105 	andeq	r0, r0, r5, lsl #2
    5050:	b5040d00 	strlt	r0, [r4, #-3328]	; 0xd00
    5054:	08000005 	stmdaeq	r0, {r0, r2}
    5058:	0000004f 	andeq	r0, r0, pc, asr #32
    505c:	000005df 	ldrdeq	r0, [r0], -pc	; <UNPREDICTABLE>
    5060:	0000c709 	andeq	ip, r0, r9, lsl #14
    5064:	08000200 	stmdaeq	r0, {r9}
    5068:	0000004f 	andeq	r0, r0, pc, asr #32
    506c:	000005ef 	andeq	r0, r0, pc, ror #11
    5070:	0000c709 	andeq	ip, r0, r9, lsl #14
    5074:	05000000 	streq	r0, [r0, #-0]
    5078:	000009ef 	andeq	r0, r0, pc, ror #19
    507c:	dc011d05 	stcle	13, cr1, [r1], {5}
    5080:	19000002 	stmdbne	r0, {r1}
    5084:	00000b76 	andeq	r0, r0, r6, ror fp
    5088:	0121050c 	teqeq	r1, ip, lsl #10
    508c:	00000630 	andeq	r0, r0, r0, lsr r6
    5090:	000a1717 	andeq	r1, sl, r7, lsl r7
    5094:	01230500 	teqeq	r3, r0, lsl #10
    5098:	00000630 	andeq	r0, r0, r0, lsr r6
    509c:	08f41700 	ldmeq	r4!, {r8, r9, sl, ip}^
    50a0:	24050000 	strcs	r0, [r5], #-0
    50a4:	00002501 	andeq	r2, r0, r1, lsl #10
    50a8:	e9170400 	ldmdb	r7, {sl}
    50ac:	05000009 	streq	r0, [r0, #-9]
    50b0:	06360125 	ldrteq	r0, [r6], -r5, lsr #2
    50b4:	00080000 	andeq	r0, r8, r0
    50b8:	05fb040d 	ldrbeq	r0, [fp, #1037]!	; 0x40d
    50bc:	040d0000 	streq	r0, [sp], #-0
    50c0:	000005ef 	andeq	r0, r0, pc, ror #11
    50c4:	00070d19 	andeq	r0, r7, r9, lsl sp
    50c8:	3d050e00 	stccc	14, cr0, [r5, #-0]
    50cc:	00067101 	andeq	r7, r6, r1, lsl #2
    50d0:	0a5d1700 	beq	174acd8 <__bss_end__+0x1740160>
    50d4:	3e050000 	cdpcc	0, 0, cr0, cr5, cr0, {0}
    50d8:	00067101 	andeq	r7, r6, r1, lsl #2
    50dc:	97170000 	ldrls	r0, [r7, -r0]
    50e0:	0500000a 	streq	r0, [r0, #-10]
    50e4:	0671013f 			; <UNDEFINED> instruction: 0x0671013f
    50e8:	17060000 	strne	r0, [r6, -r0]
    50ec:	00000b1b 	andeq	r0, r0, fp, lsl fp
    50f0:	56014005 	strpl	r4, [r1], -r5
    50f4:	0c000000 	stceq	0, cr0, [r0], {-0}
    50f8:	00560800 	subseq	r0, r6, r0, lsl #16
    50fc:	06810000 	streq	r0, [r1], r0
    5100:	c7090000 	strgt	r0, [r9, -r0]
    5104:	02000000 	andeq	r0, r0, #0
    5108:	05d01a00 	ldrbeq	r1, [r0, #2560]	; 0xa00
    510c:	07820257 			; <UNDEFINED> instruction: 0x07820257
    5110:	5a170000 	bpl	5c5118 <__bss_end__+0x5ba5a0>
    5114:	0500000b 	streq	r0, [r0, #-11]
    5118:	002c0259 	eoreq	r0, ip, r9, asr r2
    511c:	17000000 	strne	r0, [r0, -r0]
    5120:	00000b05 	andeq	r0, r0, r5, lsl #22
    5124:	07025a05 	streq	r5, [r2, -r5, lsl #20]
    5128:	04000001 	streq	r0, [r0], #-1
    512c:	00091017 	andeq	r1, r9, r7, lsl r0
    5130:	025b0500 	subseq	r0, fp, #0, 10
    5134:	00000782 	andeq	r0, r0, r2, lsl #15
    5138:	0c291708 	stceq	7, cr1, [r9], #-32	; 0xffffffe0
    513c:	5c050000 	stcpl	0, cr0, [r5], {-0}
    5140:	00018d02 	andeq	r8, r1, r2, lsl #26
    5144:	af172400 	svcge	0x00172400
    5148:	05000008 	streq	r0, [r0, #-8]
    514c:	0025025d 	eoreq	r0, r5, sp, asr r2
    5150:	17480000 	strbne	r0, [r8, -r0]
    5154:	00000a12 	andeq	r0, r0, r2, lsl sl
    5158:	64025e05 	strvs	r5, [r2], #-3589	; 0xe05
    515c:	50000000 	andpl	r0, r0, r0
    5160:	000c3f17 	andeq	r3, ip, r7, lsl pc
    5164:	025f0500 	subseq	r0, pc, #0, 10
    5168:	0000063c 	andeq	r0, r0, ip, lsr r6
    516c:	0a1d1758 	beq	74aed4 <__bss_end__+0x74035c>
    5170:	60050000 	andvs	r0, r5, r0
    5174:	0000ef02 	andeq	lr, r0, r2, lsl #30
    5178:	44176800 	ldrmi	r6, [r7], #-2048	; 0x800
    517c:	0500000c 	streq	r0, [r0, #-12]
    5180:	00ef0261 	rsceq	r0, pc, r1, ror #4
    5184:	17700000 	ldrbne	r0, [r0, -r0]!
    5188:	00000772 	andeq	r0, r0, r2, ror r7
    518c:	ef026205 	svc	0x00026205
    5190:	78000000 	stmdavc	r0, {}	; <UNPREDICTABLE>
    5194:	000b9617 	andeq	r9, fp, r7, lsl r6
    5198:	02630500 	rsbeq	r0, r3, #0, 10
    519c:	00000792 	muleq	r0, r2, r7
    51a0:	09041780 	stmdbeq	r4, {r7, r8, r9, sl, ip}
    51a4:	64050000 	strvs	r0, [r5], #-0
    51a8:	0007a202 	andeq	sl, r7, r2, lsl #4
    51ac:	28178800 	ldmdacs	r7, {fp, pc}
    51b0:	0500000b 	streq	r0, [r0, #-11]
    51b4:	00250265 	eoreq	r0, r5, r5, ror #4
    51b8:	17a00000 	strne	r0, [r0, r0]!
    51bc:	0000085b 	andeq	r0, r0, fp, asr r8
    51c0:	ef026605 	svc	0x00026605
    51c4:	a4000000 	strge	r0, [r0], #-0
    51c8:	00076317 	andeq	r6, r7, r7, lsl r3
    51cc:	02670500 	rsbeq	r0, r7, #0, 10
    51d0:	000000ef 	andeq	r0, r0, pc, ror #1
    51d4:	084a17ac 	stmdaeq	sl, {r2, r3, r5, r7, r8, r9, sl, ip}^
    51d8:	68050000 	stmdavs	r5, {}	; <UNPREDICTABLE>
    51dc:	0000ef02 	andeq	lr, r0, r2, lsl #30
    51e0:	2a17b400 	bcs	5f21e8 <__bss_end__+0x5e7670>
    51e4:	05000007 	streq	r0, [r0, #-7]
    51e8:	00ef0269 	rsceq	r0, pc, r9, ror #4
    51ec:	17bc0000 	ldrne	r0, [ip, r0]!
    51f0:	00000739 	andeq	r0, r0, r9, lsr r7
    51f4:	ef026a05 	svc	0x00026a05
    51f8:	c4000000 	strgt	r0, [r0], #-0
    51fc:	0009cf17 	andeq	ip, r9, r7, lsl pc
    5200:	026b0500 	rsbeq	r0, fp, #0, 10
    5204:	00000025 	andeq	r0, r0, r5, lsr #32
    5208:	0d0800cc 	stceq	0, cr0, [r8, #-816]	; 0xfffffcd0
    520c:	92000001 	andls	r0, r0, #1
    5210:	09000007 	stmdbeq	r0, {r0, r1, r2}
    5214:	000000c7 	andeq	r0, r0, r7, asr #1
    5218:	0d080019 	stceq	0, cr0, [r8, #-100]	; 0xffffff9c
    521c:	a2000001 	andge	r0, r0, #1
    5220:	09000007 	stmdbeq	r0, {r0, r1, r2}
    5224:	000000c7 	andeq	r0, r0, r7, asr #1
    5228:	0d080007 	stceq	0, cr0, [r8, #-28]	; 0xffffffe4
    522c:	b2000001 	andlt	r0, r0, #1
    5230:	09000007 	stmdbeq	r0, {r0, r1, r2}
    5234:	000000c7 	andeq	r0, r0, r7, asr #1
    5238:	f01a0017 			; <UNDEFINED> instruction: 0xf01a0017
    523c:	d6027005 	strle	r7, [r2], -r5
    5240:	17000007 	strne	r0, [r0, -r7]
    5244:	0000097f 	andeq	r0, r0, pc, ror r9
    5248:	d6027305 	strle	r7, [r2], -r5, lsl #6
    524c:	00000007 	andeq	r0, r0, r7
    5250:	000b8d17 	andeq	r8, fp, r7, lsl sp
    5254:	02740500 	rsbseq	r0, r4, #0, 10
    5258:	000007e6 	andeq	r0, r0, r6, ror #15
    525c:	d6080078 			; <UNDEFINED> instruction: 0xd6080078
    5260:	e6000002 	str	r0, [r0], -r2
    5264:	09000007 	stmdbeq	r0, {r0, r1, r2}
    5268:	000000c7 	andeq	r0, r0, r7, asr #1
    526c:	2c08001d 	stccs	0, cr0, [r8], {29}
    5270:	f6000000 			; <UNDEFINED> instruction: 0xf6000000
    5274:	09000007 	stmdbeq	r0, {r0, r1, r2}
    5278:	000000c7 	andeq	r0, r0, r7, asr #1
    527c:	f01b001d 			; <UNDEFINED> instruction: 0xf01b001d
    5280:	18025505 	stmdane	r2, {r0, r2, r8, sl, ip, lr}
    5284:	1c000008 	stcne	0, cr0, [r0], {8}
    5288:	00000a56 	andeq	r0, r0, r6, asr sl
    528c:	81026c05 	tsthi	r2, r5, lsl #24
    5290:	1c000006 	stcne	0, cr0, [r0], {6}
    5294:	00000be9 	andeq	r0, r0, r9, ror #23
    5298:	b2027505 	andlt	r7, r2, #20971520	; 0x1400000
    529c:	00000007 	andeq	r0, r0, r7
    52a0:	00010d08 	andeq	r0, r1, r8, lsl #26
    52a4:	00082800 	andeq	r2, r8, r0, lsl #16
    52a8:	00c70900 	sbceq	r0, r7, r0, lsl #18
    52ac:	00180000 	andseq	r0, r8, r0
    52b0:	0008331d 	andeq	r3, r8, sp, lsl r3
    52b4:	04241500 	strteq	r1, [r4], #-1280	; 0x500
    52b8:	0d000000 	stceq	0, cr0, [r0, #-0]
    52bc:	00082804 	andeq	r2, r8, r4, lsl #16
    52c0:	77040d00 	strvc	r0, [r4, -r0, lsl #26]
    52c4:	1d000001 	stcne	0, cr0, [r0, #-4]
    52c8:	0000084a 	andeq	r0, r0, sl, asr #16
    52cc:	00002515 	andeq	r2, r0, r5, lsl r5
    52d0:	040d0000 	streq	r0, [sp], #-0
    52d4:	00000850 	andeq	r0, r0, r0, asr r8
    52d8:	083f040d 	ldmdaeq	pc!, {r0, r2, r3, sl}	; <UNPREDICTABLE>
    52dc:	ef080000 	svc	0x00080000
    52e0:	66000005 	strvs	r0, [r0], -r5
    52e4:	09000008 	stmdbeq	r0, {r3}
    52e8:	000000c7 	andeq	r0, r0, r7, asr #1
    52ec:	3c1e0002 	ldccc	0, cr0, [lr], {2}
    52f0:	0500000b 	streq	r0, [r0, #-11]
    52f4:	042402fd 	strteq	r0, [r4], #-765	; 0x2fd
    52f8:	351e0000 	ldrcc	r0, [lr, #-0]
    52fc:	0500000b 	streq	r0, [r0, #-11]
    5300:	042a02fe 	strteq	r0, [sl], #-766	; 0x2fe
    5304:	25140000 	ldrcs	r0, [r4, #-0]
    5308:	8d000000 	stchi	0, cr0, [r0, #-0]
    530c:	15000008 	strne	r0, [r0, #-8]
    5310:	00000025 	andeq	r0, r0, r5, lsr #32
    5314:	053f1f00 	ldreq	r1, [pc, #-3840]!	; 441c <__code_start__-0x3be4>
    5318:	1d060000 	stcne	0, cr0, [r6, #-0]
    531c:	00000898 	muleq	r0, r8, r8
    5320:	087e040d 	ldmdaeq	lr!, {r0, r2, r3, sl}^
    5324:	25140000 	ldrcs	r0, [r4, #-0]
    5328:	ad000000 	stcge	0, cr0, [r0, #-0]
    532c:	15000008 	strne	r0, [r0, #-8]
    5330:	00000585 	andeq	r0, r0, r5, lsl #11
    5334:	057c1f00 	ldrbeq	r1, [ip, #-3840]!	; 0xf00
    5338:	22060000 	andcs	r0, r6, #0
    533c:	000008b8 			; <UNDEFINED> instruction: 0x000008b8
    5340:	089e040d 	ldmeq	lr, {r0, r2, r3, sl}
    5344:	08030000 	stmdaeq	r3, {}	; <UNPREDICTABLE>
    5348:	000d0b04 	andeq	r0, sp, r4, lsl #22
    534c:	0d431f00 	stcleq	15, cr1, [r3, #-0]
    5350:	0d010000 	stceq	0, cr0, [r1, #-0]
    5354:	0000010d 	andeq	r0, r0, sp, lsl #2
    5358:	00042520 	andeq	r2, r4, r0, lsr #10
    535c:	070e0100 	streq	r0, [lr, -r0, lsl #2]
    5360:	05000001 	streq	r0, [r0, #-1]
    5364:	009c6803 	addseq	r6, ip, r3, lsl #16
    5368:	0d5a2000 	ldcleq	0, cr2, [sl, #-0]
    536c:	0f010000 	svceq	0x00010000
    5370:	00000107 	andeq	r0, r0, r7, lsl #2
    5374:	9c6c0305 	stclls	3, cr0, [ip], #-20	; 0xffffffec
    5378:	1c210000 	stcne	0, cr0, [r1], #-0
    537c:	0100000d 	tsteq	r0, sp
    5380:	009c3838 	addseq	r3, ip, r8, lsr r8
    5384:	00001000 	andeq	r1, r0, r0
    5388:	139c0100 	orrsne	r0, ip, #0, 2
    538c:	22000009 	andcs	r0, r0, #9
    5390:	38010070 	stmdacc	r1, {r4, r5, r6}
    5394:	00000105 	andeq	r0, r0, r5, lsl #2
    5398:	23005001 	movwcs	r5, #1
    539c:	00000d12 	andeq	r0, r0, r2, lsl sp
    53a0:	9c243701 	stcls	7, cr3, [r4], #-4
    53a4:	00140000 	andseq	r0, r4, r0
    53a8:	9c010000 	stcls	0, cr0, [r1], {-0}
    53ac:	00025921 	andeq	r5, r2, r1, lsr #18
    53b0:	20360100 	eorscs	r0, r6, r0, lsl #2
    53b4:	0400009c 	streq	r0, [r0], #-156	; 0x9c
    53b8:	01000000 	mrseq	r0, (UNDEF: 0)
    53bc:	0009459c 	muleq	r9, ip, r5
    53c0:	00702200 	rsbseq	r2, r0, r0, lsl #4
    53c4:	01053601 	tsteq	r5, r1, lsl #12
    53c8:	50010000 	andpl	r0, r1, r0
    53cc:	0cfb2400 	cfldrdeq	mvd2, [fp]
    53d0:	29010000 	stmdbcs	r1, {}	; <UNPREDICTABLE>
    53d4:	00000105 	andeq	r0, r0, r5, lsl #2
    53d8:	00009b94 	muleq	r0, r4, fp
    53dc:	0000008c 	andeq	r0, r0, ip, lsl #1
    53e0:	0a309c01 	beq	c2c3ec <__bss_end__+0xc21874>
    53e4:	4a250000 	bmi	9453ec <__bss_end__+0x93a874>
    53e8:	01000003 	tsteq	r0, r3
    53ec:	00002c29 	andeq	r2, r0, r9, lsr #24
    53f0:	00168300 	andseq	r8, r6, r0, lsl #6
    53f4:	0d392500 	cfldr32eq	mvfx2, [r9, #-0]
    53f8:	29010000 	stmdbcs	r1, {}	; <UNPREDICTABLE>
    53fc:	0000002c 	andeq	r0, r0, ip, lsr #32
    5400:	000016d6 	ldrdeq	r1, [r0], -r6
    5404:	00011026 	andeq	r1, r1, r6, lsr #32
    5408:	000a4000 	andeq	r4, sl, r0
    540c:	48030500 	stmdami	r3, {r8, sl}
    5410:	270000a6 	strcs	r0, [r0, -r6, lsr #1]
    5414:	2e010068 	cdpcs	0, 0, cr0, cr1, cr8, {3}
    5418:	0000002c 	andeq	r0, r0, ip, lsr #32
    541c:	0000171d 	andeq	r1, r0, sp, lsl r7
    5420:	009bd028 	addseq	sp, fp, r8, lsr #32
    5424:	000a7900 	andeq	r7, sl, r0, lsl #18
    5428:	0009ad00 	andeq	sl, r9, r0, lsl #26
    542c:	50012900 	andpl	r2, r1, r0, lsl #18
    5430:	5001f303 	andpl	pc, r1, r3, lsl #6
    5434:	9bd82a00 	blls	ff60fc3c <__bss_end__+0xff6050c4>
    5438:	0bfb0000 	bleq	ffec5440 <__bss_end__+0xffeba8c8>
    543c:	ec280000 	stc	0, cr0, [r8], #-0
    5440:	0600009b 			; <UNDEFINED> instruction: 0x0600009b
    5444:	e500000c 	str	r0, [r0, #-12]
    5448:	29000009 	stmdbcs	r0, {r0, r3}
    544c:	03055001 	movweq	r5, #20481	; 0x5001
    5450:	0000a694 	muleq	r0, r4, r6
    5454:	05510129 	ldrbeq	r0, [r1, #-297]	; 0x129
    5458:	00a65803 	adceq	r5, r6, r3, lsl #16
    545c:	52012900 	andpl	r2, r1, #0, 18
    5460:	a6480305 	strbge	r0, [r8], -r5, lsl #6
    5464:	01290000 	teqeq	r9, r0
    5468:	2a080253 	bcs	205dbc <__bss_end__+0x1fb244>
    546c:	9bf02a00 	blls	ffc0fc74 <__bss_end__+0xffc050fc>
    5470:	0c110000 	ldceq	0, cr0, [r1], {-0}
    5474:	f42a0000 	vld4.8	{d0-d3}, [sl], r0
    5478:	fb00009b 	blx	56ee <__code_start__-0x2912>
    547c:	2800000b 	stmdacs	r0, {r0, r1, r3}
    5480:	00009c08 	andeq	r9, r0, r8, lsl #24
    5484:	00000c06 	andeq	r0, r0, r6, lsl #24
    5488:	00000a26 	andeq	r0, r0, r6, lsr #20
    548c:	05500129 	ldrbeq	r0, [r0, #-297]	; 0x129
    5490:	00a6f403 	adceq	pc, r6, r3, lsl #8
    5494:	51012900 	tstpl	r1, r0, lsl #18
    5498:	a6580305 	ldrbge	r0, [r8], -r5, lsl #6
    549c:	01290000 	teqeq	r9, r0
    54a0:	48030552 	stmdami	r3, {r1, r4, r6, r8, sl}
    54a4:	290000a6 	stmdbcs	r0, {r1, r2, r5, r7}
    54a8:	08025301 	stmdaeq	r2, {r0, r8, r9, ip, lr}
    54ac:	0c2a0030 	stceq	0, cr0, [sl], #-192	; 0xffffff40
    54b0:	1100009c 	swpne	r0, ip, [r0]	; <UNPREDICTABLE>
    54b4:	0000000c 	andeq	r0, r0, ip
    54b8:	00011408 	andeq	r1, r1, r8, lsl #8
    54bc:	000a4000 	andeq	r4, sl, r0
    54c0:	00c70900 	sbceq	r0, r7, r0, lsl #18
    54c4:	000f0000 	andeq	r0, pc, r0
    54c8:	000a300e 	andeq	r3, sl, lr
    54cc:	0d282400 	cfstrseq	mvf2, [r8, #-0]
    54d0:	25010000 	strcs	r0, [r1, #-0]
    54d4:	00000105 	andeq	r0, r0, r5, lsl #2
    54d8:	00009b88 	andeq	r9, r0, r8, lsl #23
    54dc:	0000000c 	andeq	r0, r0, ip
    54e0:	0a689c01 	beq	1a2c4ec <__bss_end__+0x1a21974>
    54e4:	902a0000 	eorls	r0, sl, r0
    54e8:	d100009b 	swple	r0, fp, [r0]	; <UNPREDICTABLE>
    54ec:	0000000b 	andeq	r0, r0, fp
    54f0:	000cee23 	andeq	lr, ip, r3, lsr #28
    54f4:	84240100 	strthi	r0, [r4], #-256	; 0x100
    54f8:	0400009b 	streq	r0, [r0], #-155	; 0x9b
    54fc:	01000000 	mrseq	r0, (UNDEF: 0)
    5500:	0101249c 			; <UNDEFINED> instruction: 0x0101249c
    5504:	1a010000 	bne	4550c <__bss_end__+0x3a994>
    5508:	00000105 	andeq	r0, r0, r5, lsl #2
    550c:	00009b20 	andeq	r9, r0, r0, lsr #22
    5510:	00000064 	andeq	r0, r0, r4, rrx
    5514:	0b249c01 	bleq	92c520 <__bss_end__+0x9219a8>
    5518:	732b0000 	teqvc	fp, #0
    551c:	1a01007a 	bne	4570c <__bss_end__+0x3ab94>
    5520:	0000002c 	andeq	r0, r0, ip, lsr #32
    5524:	00001755 	andeq	r1, r0, r5, asr r7
    5528:	00011026 	andeq	r1, r1, r6, lsr #32
    552c:	000b3400 	andeq	r3, fp, r0, lsl #8
    5530:	40030500 	andmi	r0, r3, r0, lsl #10
    5534:	2c0000a6 	stccs	0, cr0, [r0], {166}	; 0xa6
    5538:	000001ac 	andeq	r0, r0, ip, lsr #3
    553c:	01051e01 	tsteq	r5, r1, lsl #28
    5540:	179f0000 	ldrne	r0, [pc, r0]
    5544:	50280000 	eorpl	r0, r8, r0
    5548:	1c00009b 	stcne	0, cr0, [r0], {155}	; 0x9b
    554c:	e300000c 	movw	r0, #12
    5550:	2900000a 	stmdbcs	r0, {r1, r3}
    5554:	74025001 	strvc	r5, [r2], #-1
    5558:	51012900 	tstpl	r1, r0, lsl #18
    555c:	01293001 	teqeq	r9, r1
    5560:	01f30852 	mvnseq	r0, r2, asr r8
    5564:	09072350 	stmdbeq	r7, {r4, r6, r8, r9, sp}
    5568:	2a001af8 	bcs	c150 <__bss_end__+0x15d8>
    556c:	00009b5c 	andeq	r9, r0, ip, asr fp
    5570:	00000bfb 	strdeq	r0, [r0], -fp
    5574:	009b7028 	addseq	r7, fp, r8, lsr #32
    5578:	000c0600 	andeq	r0, ip, r0, lsl #12
    557c:	000b1a00 	andeq	r1, fp, r0, lsl #20
    5580:	50012900 	andpl	r2, r1, r0, lsl #18
    5584:	a6800305 	strge	r0, [r0], r5, lsl #6
    5588:	01290000 	teqeq	r9, r0
    558c:	58030551 	stmdapl	r3, {r0, r4, r6, r8, sl}
    5590:	290000a6 	stmdbcs	r0, {r1, r2, r5, r7}
    5594:	03055201 	movweq	r5, #20993	; 0x5201
    5598:	0000a640 	andeq	sl, r0, r0, asr #12
    559c:	01530129 	cmpeq	r3, r9, lsr #2
    55a0:	742a004b 	strtvc	r0, [sl], #-75	; 0x4b
    55a4:	1100009b 	swpne	r0, fp, [r0]	; <UNPREDICTABLE>
    55a8:	0000000c 	andeq	r0, r0, ip
    55ac:	00011408 	andeq	r1, r1, r8, lsl #8
    55b0:	000b3400 	andeq	r3, fp, r0, lsl #8
    55b4:	00c70900 	sbceq	r0, r7, r0, lsl #18
    55b8:	00070000 	andeq	r0, r7, r0
    55bc:	000b240e 	andeq	r2, fp, lr, lsl #8
    55c0:	016b2100 	cmneq	fp, r0, lsl #2
    55c4:	14010000 	strne	r0, [r1], #-0
    55c8:	00009ad0 	ldrdeq	r9, [r0], -r0
    55cc:	00000050 	andeq	r0, r0, r0, asr r0
    55d0:	0bbc9c01 	bleq	fef2c5dc <__bss_end__+0xfef21a64>
    55d4:	ab250000 	blge	9455dc <__bss_end__+0x93aa64>
    55d8:	01000001 	tsteq	r0, r1
    55dc:	00002c14 	andeq	r2, r0, r4, lsl ip
    55e0:	0017b200 	andseq	fp, r7, r0, lsl #4
    55e4:	01ac2c00 			; <UNDEFINED> instruction: 0x01ac2c00
    55e8:	15010000 	strne	r0, [r1, #-0]
    55ec:	00000107 	andeq	r0, r0, r7, lsl #2
    55f0:	000017d3 	ldrdeq	r1, [r0], -r3
    55f4:	00011026 	andeq	r1, r1, r6, lsr #32
    55f8:	000bcc00 	andeq	ip, fp, r0, lsl #24
    55fc:	28030500 	stmdacs	r3, {r8, sl}
    5600:	2a0000a6 	bcs	58a0 <__code_start__-0x2760>
    5604:	00009af8 	strdeq	r9, [r0], -r8
    5608:	00000bfb 	strdeq	r0, [r0], -fp
    560c:	009b0c28 	addseq	r0, fp, r8, lsr #24
    5610:	000c0600 	andeq	r0, ip, r0, lsl #12
    5614:	000bb200 	andeq	fp, fp, r0, lsl #4
    5618:	50012900 	andpl	r2, r1, r0, lsl #18
    561c:	a6640305 	strbtge	r0, [r4], -r5, lsl #6
    5620:	01290000 	teqeq	r9, r0
    5624:	58030551 	stmdapl	r3, {r0, r4, r6, r8, sl}
    5628:	290000a6 	stmdbcs	r0, {r1, r2, r5, r7}
    562c:	03055201 	movweq	r5, #20993	; 0x5201
    5630:	0000a628 	andeq	sl, r0, r8, lsr #12
    5634:	01530129 	cmpeq	r3, r9, lsr #2
    5638:	102a0046 	eorne	r0, sl, r6, asr #32
    563c:	1100009b 	swpne	r0, fp, [r0]	; <UNPREDICTABLE>
    5640:	0000000c 	andeq	r0, r0, ip
    5644:	00011408 	andeq	r1, r1, r8, lsl #8
    5648:	000bcc00 	andeq	ip, fp, r0, lsl #24
    564c:	00c70900 	sbceq	r0, r7, r0, lsl #18
    5650:	00160000 	andseq	r0, r6, r0
    5654:	000bbc0e 	andeq	fp, fp, lr, lsl #24
    5658:	0d522d00 	ldcleq	13, cr2, [r2, #-0]
    565c:	12010000 	andne	r0, r1, #0
    5660:	00000105 	andeq	r0, r0, r5, lsl #2
    5664:	00009ac4 	andeq	r9, r0, r4, asr #21
    5668:	0000000c 	andeq	r0, r0, ip
    566c:	652d9c01 	strvs	r9, [sp, #-3073]!	; 0xc01
    5670:	0100000d 	tsteq	r0, sp
    5674:	00010511 	andeq	r0, r1, r1, lsl r5
    5678:	009ab400 	addseq	fp, sl, r0, lsl #8
    567c:	00001000 	andeq	r1, r0, r0
    5680:	2e9c0100 	fmlcse	f0, f4, f0
    5684:	0000021e 	andeq	r0, r0, lr, lsl r2
    5688:	0000021e 	andeq	r0, r0, lr, lsl r2
    568c:	0e2e1e06 	cdpeq	14, 2, cr1, cr14, cr6, {0}
    5690:	0e000005 	cdpeq	0, 0, cr0, cr0, cr5, {0}
    5694:	06000005 	streq	r0, [r0], -r5
    5698:	026b2e29 	rsbeq	r2, fp, #656	; 0x290
    569c:	026b0000 	rsbeq	r0, fp, #0
    56a0:	65060000 	strvs	r0, [r6, #-0]
    56a4:	0001092e 	andeq	r0, r1, lr, lsr #18
    56a8:	00010900 	andeq	r0, r1, r0, lsl #18
    56ac:	00190700 	andseq	r0, r9, r0, lsl #14

Disassembly of section .debug_abbrev:

00000000 <.debug_abbrev>:
       0:	25011101 	strcs	r1, [r1, #-257]	; 0x101
       4:	030b130e 	movweq	r1, #45838	; 0xb30e
       8:	110e1b0e 	tstne	lr, lr, lsl #22
       c:	10061201 	andne	r1, r6, r1, lsl #4
      10:	02000017 	andeq	r0, r0, #23
      14:	0b0b0024 	bleq	2c00ac <__bss_end__+0x2b5534>
      18:	08030b3e 	stmdaeq	r3, {r1, r2, r3, r4, r5, r8, r9, fp}
      1c:	16030000 	strne	r0, [r3], -r0
      20:	3a0e0300 	bcc	380c28 <__bss_end__+0x3760b0>
      24:	490b3b0b 	stmdbmi	fp, {r0, r1, r3, r8, r9, fp, ip, sp}
      28:	04000013 	streq	r0, [r0], #-19
      2c:	0b0b0024 	bleq	2c00c4 <__bss_end__+0x2b554c>
      30:	0e030b3e 	vmoveq.16	d3[0], r0
      34:	0f050000 	svceq	0x00050000
      38:	000b0b00 	andeq	r0, fp, r0, lsl #22
      3c:	000f0600 	andeq	r0, pc, r0, lsl #12
      40:	13490b0b 	movtne	r0, #39691	; 0x9b0b
      44:	26070000 	strcs	r0, [r7], -r0
      48:	00134900 	andseq	r4, r3, r0, lsl #18
      4c:	012e0800 	teqeq	lr, r0, lsl #16
      50:	0e03193f 	mcreq	9, 0, r1, cr3, cr15, {1}
      54:	0b3b0b3a 	bleq	ec2d44 <__bss_end__+0xeb81cc>
      58:	13491927 	movtne	r1, #39207	; 0x9927
      5c:	06120111 			; <UNDEFINED> instruction: 0x06120111
      60:	42971840 	addsmi	r1, r7, #64, 16	; 0x400000
      64:	00130119 	andseq	r0, r3, r9, lsl r1
      68:	01130900 	tsteq	r3, r0, lsl #18
      6c:	0b0b0e03 	bleq	2c3880 <__bss_end__+0x2b8d08>
      70:	0b3b0b3a 	bleq	ec2d60 <__bss_end__+0xeb81e8>
      74:	00001301 	andeq	r1, r0, r1, lsl #6
      78:	03000d0a 	movweq	r0, #3338	; 0xd0a
      7c:	3b0b3a08 	blcc	2ce8a4 <__bss_end__+0x2c3d2c>
      80:	3813490b 	ldmdacc	r3, {r0, r1, r3, r8, fp, lr}
      84:	0b00000b 	bleq	b8 <__code_start__-0x7f48>
      88:	0e03000d 	cdpeq	0, 0, cr0, cr3, cr13, {0}
      8c:	0b3b0b3a 	bleq	ec2d7c <__bss_end__+0xeb8204>
      90:	0b381349 	bleq	e04dbc <__bss_end__+0xdfa244>
      94:	340c0000 	strcc	r0, [ip], #-0
      98:	3a080300 	bcc	200ca0 <__bss_end__+0x1f6128>
      9c:	490b3b0b 	stmdbmi	fp, {r0, r1, r3, r8, r9, fp, ip, sp}
      a0:	00170213 	andseq	r0, r7, r3, lsl r2
      a4:	00340d00 	eorseq	r0, r4, r0, lsl #26
      a8:	13490e03 	movtne	r0, #40451	; 0x9e03
      ac:	18021934 	stmdane	r2, {r2, r4, r5, r8, fp, ip}
      b0:	0b0e0000 	bleq	3800b8 <__bss_end__+0x375540>
      b4:	01175501 	tsteq	r7, r1, lsl #10
      b8:	0f000013 	svceq	0x00000013
      bc:	1755010b 	ldrbne	r0, [r5, -fp, lsl #2]
      c0:	89100000 	ldmdbhi	r0, {}	; <UNPREDICTABLE>
      c4:	11010182 	smlabbne	r1, r2, r1, r0
      c8:	01133101 	tsteq	r3, r1, lsl #2
      cc:	11000013 	tstne	r0, r3, lsl r0
      d0:	0001828a 	andeq	r8, r1, sl, lsl #5
      d4:	42911802 	addsmi	r1, r1, #131072	; 0x20000
      d8:	12000018 	andne	r0, r0, #24
      dc:	01018289 	smlabbeq	r1, r9, r2, r8
      e0:	13310111 	teqne	r1, #1073741828	; 0x40000004
      e4:	89130000 	ldmdbhi	r3, {}	; <UNPREDICTABLE>
      e8:	11000182 	smlabbne	r0, r2, r1, r0
      ec:	00133101 	andseq	r3, r3, r1, lsl #2
      f0:	01011400 	tsteq	r1, r0, lsl #8
      f4:	13011349 	movwne	r1, #4937	; 0x1349
      f8:	21150000 	tstcs	r5, r0
      fc:	2f134900 	svccs	0x00134900
     100:	1600000b 	strne	r0, [r0], -fp
     104:	193f012e 	ldmdbne	pc!, {r1, r2, r3, r5, r8}	; <UNPREDICTABLE>
     108:	0b3a0e03 	bleq	e8391c <__bss_end__+0xe78da4>
     10c:	19270b3b 	stmdbne	r7!, {r0, r1, r3, r4, r5, r8, r9, fp}
     110:	06120111 			; <UNDEFINED> instruction: 0x06120111
     114:	42971840 	addsmi	r1, r7, #64, 16	; 0x400000
     118:	00130119 	andseq	r0, r3, r9, lsl r1
     11c:	00341700 	eorseq	r1, r4, r0, lsl #14
     120:	0b3a0803 	bleq	e82134 <__bss_end__+0xe775bc>
     124:	13490b3b 	movtne	r0, #39739	; 0x9b3b
     128:	0000061c 	andeq	r0, r0, ip, lsl r6
     12c:	3f012e18 	svccc	0x00012e18
     130:	3a0e0319 	bcc	380d9c <__bss_end__+0x376224>
     134:	270b3b0b 	strcs	r3, [fp, -fp, lsl #22]
     138:	3c134919 	ldccc	9, cr4, [r3], {25}
     13c:	00130119 	andseq	r0, r3, r9, lsl r1
     140:	00051900 	andeq	r1, r5, r0, lsl #18
     144:	00001349 	andeq	r1, r0, r9, asr #6
     148:	3f002e1a 	svccc	0x00002e1a
     14c:	3a0e0319 	bcc	380db8 <__bss_end__+0x376240>
     150:	270b3b0b 	strcs	r3, [fp, -fp, lsl #22]
     154:	00193c19 	andseq	r3, r9, r9, lsl ip
     158:	00181b00 	andseq	r1, r8, r0, lsl #22
     15c:	2e1c0000 	cdpcs	0, 1, cr0, cr12, cr0, {0}
     160:	03193f01 	tsteq	r9, #1, 30
     164:	3b0b3a0e 	blcc	2ce9a4 <__bss_end__+0x2c3e2c>
     168:	3c19270b 	ldccc	7, cr2, [r9], {11}
     16c:	00130119 	andseq	r0, r3, r9, lsl r1
     170:	012e1d00 	teqeq	lr, r0, lsl #26
     174:	0e03193f 	mcreq	9, 0, r1, cr3, cr15, {1}
     178:	0b3b0b3a 	bleq	ec2e68 <__bss_end__+0xeb82f0>
     17c:	193c1927 	ldmdbne	ip!, {r0, r1, r2, r5, r8, fp, ip}
     180:	01000000 	mrseq	r0, (UNDEF: 0)
     184:	0e250111 	mcreq	1, 1, r0, cr5, cr1, {0}
     188:	0e030b13 	vmoveq.32	d3[0], r0
     18c:	01110e1b 	tsteq	r1, fp, lsl lr
     190:	17100612 			; <UNDEFINED> instruction: 0x17100612
     194:	24020000 	strcs	r0, [r2], #-0
     198:	3e0b0b00 	vmlacc.f64	d0, d11, d0
     19c:	0008030b 	andeq	r0, r8, fp, lsl #6
     1a0:	00160300 	andseq	r0, r6, r0, lsl #6
     1a4:	0b3a0e03 	bleq	e839b8 <__bss_end__+0xe78e40>
     1a8:	13490b3b 	movtne	r0, #39739	; 0x9b3b
     1ac:	24040000 	strcs	r0, [r4], #-0
     1b0:	3e0b0b00 	vmlacc.f64	d0, d11, d0
     1b4:	000e030b 	andeq	r0, lr, fp, lsl #6
     1b8:	000f0500 	andeq	r0, pc, r0, lsl #10
     1bc:	00000b0b 	andeq	r0, r0, fp, lsl #22
     1c0:	0b000f06 	bleq	3de0 <__code_start__-0x4220>
     1c4:	0013490b 	andseq	r4, r3, fp, lsl #18
     1c8:	00260700 	eoreq	r0, r6, r0, lsl #14
     1cc:	00001349 	andeq	r1, r0, r9, asr #6
     1d0:	49010108 	stmdbmi	r1, {r3, r8}
     1d4:	00130113 	andseq	r0, r3, r3, lsl r1
     1d8:	00210900 	eoreq	r0, r1, r0, lsl #18
     1dc:	0b2f1349 	bleq	bc4f08 <__bss_end__+0xbba390>
     1e0:	040a0000 	streq	r0, [sl], #-0
     1e4:	3a0b0b01 	bcc	2c2df0 <__bss_end__+0x2b8278>
     1e8:	010b3b0b 	tsteq	fp, fp, lsl #22
     1ec:	0b000013 	bleq	240 <__code_start__-0x7dc0>
     1f0:	0e030028 	cdpeq	0, 0, cr0, cr3, cr8, {1}
     1f4:	00000d1c 	andeq	r0, r0, ip, lsl sp
     1f8:	0b01130c 	bleq	44e30 <__bss_end__+0x3a2b8>
     1fc:	3b0b3a0b 	blcc	2cea30 <__bss_end__+0x2c3eb8>
     200:	0013010b 	andseq	r0, r3, fp, lsl #2
     204:	000d0d00 	andeq	r0, sp, r0, lsl #26
     208:	0b3a0e03 	bleq	e83a1c <__bss_end__+0xe78ea4>
     20c:	13490b3b 	movtne	r0, #39739	; 0x9b3b
     210:	00000b38 	andeq	r0, r0, r8, lsr fp
     214:	0301130e 	movweq	r1, #4878	; 0x130e
     218:	3a0b0b0e 	bcc	2c2e58 <__bss_end__+0x2b82e0>
     21c:	010b3b0b 	tsteq	fp, fp, lsl #22
     220:	0f000013 	svceq	0x00000013
     224:	0e03012e 	adfeqsp	f0, f3, #0.5
     228:	0b3b0b3a 	bleq	ec2f18 <__bss_end__+0xeb83a0>
     22c:	13491927 	movtne	r1, #39207	; 0x9927
     230:	13010b20 	movwne	r0, #6944	; 0x1b20
     234:	05100000 	ldreq	r0, [r0, #-0]
     238:	3a080300 	bcc	200e40 <__bss_end__+0x1f62c8>
     23c:	490b3b0b 	stmdbmi	fp, {r0, r1, r3, r8, r9, fp, ip, sp}
     240:	11000013 	tstne	r0, r3, lsl r0
     244:	0e030005 	cdpeq	0, 0, cr0, cr3, cr5, {0}
     248:	0b3b0b3a 	bleq	ec2f38 <__bss_end__+0xeb83c0>
     24c:	00001349 	andeq	r1, r0, r9, asr #6
     250:	03012e12 	movweq	r2, #7698	; 0x1e12
     254:	3b0b3a0e 	blcc	2cea94 <__bss_end__+0x2c3f1c>
     258:	2019270b 	andscs	r2, r9, fp, lsl #14
     25c:	0013010b 	andseq	r0, r3, fp, lsl #2
     260:	00341300 	eorseq	r1, r4, r0, lsl #6
     264:	0b3a0803 	bleq	e82278 <__bss_end__+0xe77700>
     268:	13490b3b 	movtne	r0, #39739	; 0x9b3b
     26c:	2e140000 	cdpcs	0, 1, cr0, cr4, cr0, {0}
     270:	3a0e0301 	bcc	380e7c <__bss_end__+0x376304>
     274:	270b3b0b 	strcs	r3, [fp, -fp, lsl #22]
     278:	11134919 	tstne	r3, r9, lsl r9
     27c:	40061201 	andmi	r1, r6, r1, lsl #4
     280:	19429718 	stmdbne	r2, {r3, r4, r8, r9, sl, ip, pc}^
     284:	00001301 	andeq	r1, r0, r1, lsl #6
     288:	03000515 	movweq	r0, #1301	; 0x515
     28c:	3b0b3a08 	blcc	2ceab4 <__bss_end__+0x2c3f3c>
     290:	0213490b 	andseq	r4, r3, #180224	; 0x2c000
     294:	16000017 			; <UNDEFINED> instruction: 0x16000017
     298:	0e030005 	cdpeq	0, 0, cr0, cr3, cr5, {0}
     29c:	0b3b0b3a 	bleq	ec2f8c <__bss_end__+0xeb8414>
     2a0:	17021349 	strne	r1, [r2, -r9, asr #6]
     2a4:	34170000 	ldrcc	r0, [r7], #-0
     2a8:	3a080300 	bcc	200eb0 <__bss_end__+0x1f6338>
     2ac:	490b3b0b 	stmdbmi	fp, {r0, r1, r3, r8, r9, fp, ip, sp}
     2b0:	00170213 	andseq	r0, r7, r3, lsl r2
     2b4:	010b1800 	tsteq	fp, r0, lsl #16
     2b8:	06120111 			; <UNDEFINED> instruction: 0x06120111
     2bc:	34190000 	ldrcc	r0, [r9], #-0
     2c0:	3a0e0300 	bcc	380ec8 <__bss_end__+0x376350>
     2c4:	490b3b0b 	stmdbmi	fp, {r0, r1, r3, r8, r9, fp, ip, sp}
     2c8:	00180213 	andseq	r0, r8, r3, lsl r2
     2cc:	00341a00 	eorseq	r1, r4, r0, lsl #20
     2d0:	0b3a0e03 	bleq	e83ae4 <__bss_end__+0xe78f6c>
     2d4:	13490b3b 	movtne	r0, #39739	; 0x9b3b
     2d8:	00001702 	andeq	r1, r0, r2, lsl #14
     2dc:	31011d1b 	tstcc	r1, fp, lsl sp
     2e0:	12011113 	andne	r1, r1, #-1073741820	; 0xc0000004
     2e4:	590b5806 	stmdbpl	fp, {r1, r2, fp, ip, lr}
     2e8:	0013010b 	andseq	r0, r3, fp, lsl #2
     2ec:	00051c00 	andeq	r1, r5, r0, lsl #24
     2f0:	17021331 	smladxne	r2, r1, r3, r1
     2f4:	341d0000 	ldrcc	r0, [sp], #-0
     2f8:	02133100 	andseq	r3, r3, #0, 2
     2fc:	1e000017 	mcrne	0, 0, r0, cr0, cr7, {0}
     300:	01018289 	smlabbeq	r1, r9, r2, r8
     304:	13310111 	teqne	r1, #1073741828	; 0x40000004
     308:	00001301 	andeq	r1, r0, r1, lsl #6
     30c:	01828a1f 	orreq	r8, r2, pc, lsl sl
     310:	91180200 	tstls	r8, r0, lsl #4
     314:	00001842 	andeq	r1, r0, r2, asr #16
     318:	01828920 	orreq	r8, r2, r0, lsr #18
     31c:	31011101 	tstcc	r1, r1, lsl #2
     320:	21000013 	tstcs	r0, r3, lsl r0
     324:	0e03012e 	adfeqsp	f0, f3, #0.5
     328:	0b3b0b3a 	bleq	ec3018 <__bss_end__+0xeb84a0>
     32c:	01111927 	tsteq	r1, r7, lsr #18
     330:	18400612 	stmdane	r0, {r1, r4, r9, sl}^
     334:	01194297 			; <UNDEFINED> instruction: 0x01194297
     338:	22000013 	andcs	r0, r0, #19
     33c:	0e030034 	mcreq	0, 0, r0, cr3, cr4, {1}
     340:	19341349 	ldmdbne	r4!, {r0, r3, r6, r8, r9, ip}
     344:	00001802 	andeq	r1, r0, r2, lsl #16
     348:	01828923 	orreq	r8, r2, r3, lsr #18
     34c:	31011100 	mrscc	r1, (UNDEF: 17)
     350:	24000013 	strcs	r0, [r0], #-19
     354:	193f012e 	ldmdbne	pc!, {r1, r2, r3, r5, r8}	; <UNPREDICTABLE>
     358:	0b3a0e03 	bleq	e83b6c <__bss_end__+0xe78ff4>
     35c:	19270b3b 	stmdbne	r7!, {r0, r1, r3, r4, r5, r8, r9, fp}
     360:	06120111 			; <UNDEFINED> instruction: 0x06120111
     364:	42971840 	addsmi	r1, r7, #64, 16	; 0x400000
     368:	00130119 	andseq	r0, r3, r9, lsl r1
     36c:	012e2500 	teqeq	lr, r0, lsl #10
     370:	0e03193f 	mcreq	9, 0, r1, cr3, cr15, {1}
     374:	0b3b0b3a 	bleq	ec3064 <__bss_end__+0xeb84ec>
     378:	13491927 	movtne	r1, #39207	; 0x9927
     37c:	06120111 			; <UNDEFINED> instruction: 0x06120111
     380:	42971840 	addsmi	r1, r7, #64, 16	; 0x400000
     384:	00130119 	andseq	r0, r3, r9, lsl r1
     388:	010b2600 	tsteq	fp, r0, lsl #12
     38c:	13011755 	movwne	r1, #5973	; 0x1755
     390:	2e270000 	cdpcs	0, 2, cr0, cr7, cr0, {0}
     394:	03193f00 	tsteq	r9, #0, 30
     398:	3b0b3a0e 	blcc	2cebd8 <__bss_end__+0x2c4060>
     39c:	4919270b 	ldmdbmi	r9, {r0, r1, r3, r8, r9, sl, sp}
     3a0:	12011113 	andne	r1, r1, #-1073741820	; 0xc0000004
     3a4:	97184006 	ldrls	r4, [r8, -r6]
     3a8:	00001942 	andeq	r1, r0, r2, asr #18
     3ac:	3f012e28 	svccc	0x00012e28
     3b0:	3a0e0319 	bcc	38101c <__bss_end__+0x3764a4>
     3b4:	270b3b0b 	strcs	r3, [fp, -fp, lsl #22]
     3b8:	3c134919 	ldccc	9, cr4, [r3], {25}
     3bc:	00130119 	andseq	r0, r3, r9, lsl r1
     3c0:	00052900 	andeq	r2, r5, r0, lsl #18
     3c4:	00001349 	andeq	r1, r0, r9, asr #6
     3c8:	0000182a 	andeq	r1, r0, sl, lsr #16
     3cc:	00262b00 	eoreq	r2, r6, r0, lsl #22
     3d0:	2e2c0000 	cdpcs	0, 2, cr0, cr12, cr0, {0}
     3d4:	03193f00 	tsteq	r9, #0, 30
     3d8:	3b0b3a0e 	blcc	2cec18 <__bss_end__+0x2c40a0>
     3dc:	3c19270b 	ldccc	7, cr2, [r9], {11}
     3e0:	00000019 	andeq	r0, r0, r9, lsl r0
     3e4:	25011101 	strcs	r1, [r1, #-257]	; 0x101
     3e8:	030b130e 	movweq	r1, #45838	; 0xb30e
     3ec:	110e1b0e 	tstne	lr, lr, lsl #22
     3f0:	10061201 	andne	r1, r6, r1, lsl #4
     3f4:	02000017 	andeq	r0, r0, #23
     3f8:	0b0b0024 	bleq	2c0490 <__bss_end__+0x2b5918>
     3fc:	08030b3e 	stmdaeq	r3, {r1, r2, r3, r4, r5, r8, r9, fp}
     400:	24030000 	strcs	r0, [r3], #-0
     404:	3e0b0b00 	vmlacc.f64	d0, d11, d0
     408:	000e030b 	andeq	r0, lr, fp, lsl #6
     40c:	00160400 	andseq	r0, r6, r0, lsl #8
     410:	0b3a0e03 	bleq	e83c24 <__bss_end__+0xe790ac>
     414:	13490b3b 	movtne	r0, #39739	; 0x9b3b
     418:	0f050000 	svceq	0x00050000
     41c:	000b0b00 	andeq	r0, fp, r0, lsl #22
     420:	000f0600 	andeq	r0, pc, r0, lsl #12
     424:	13490b0b 	movtne	r0, #39691	; 0x9b0b
     428:	26070000 	strcs	r0, [r7], -r0
     42c:	00134900 	andseq	r4, r3, r0, lsl #18
     430:	01040800 	tsteq	r4, r0, lsl #16
     434:	0b3a0b0b 	bleq	e83068 <__bss_end__+0xe784f0>
     438:	13010b3b 	movwne	r0, #6971	; 0x1b3b
     43c:	28090000 	stmdacs	r9, {}	; <UNPREDICTABLE>
     440:	1c0e0300 	stcne	3, cr0, [lr], {-0}
     444:	0a00000d 	beq	480 <__code_start__-0x7b80>
     448:	0b0b0113 	bleq	2c089c <__bss_end__+0x2b5d24>
     44c:	0b3b0b3a 	bleq	ec313c <__bss_end__+0xeb85c4>
     450:	00001301 	andeq	r1, r0, r1, lsl #6
     454:	03000d0b 	movweq	r0, #3339	; 0xd0b
     458:	3b0b3a0e 	blcc	2cec98 <__bss_end__+0x2c4120>
     45c:	3813490b 	ldmdacc	r3, {r0, r1, r3, r8, fp, lr}
     460:	0c00000b 	stceq	0, cr0, [r0], {11}
     464:	0e030113 	mcreq	1, 0, r0, cr3, cr3, {0}
     468:	0b3a0b0b 	bleq	e8309c <__bss_end__+0xe78524>
     46c:	13010b3b 	movwne	r0, #6971	; 0x1b3b
     470:	2e0d0000 	cdpcs	0, 0, cr0, cr13, cr0, {0}
     474:	3a0e0301 	bcc	381080 <__bss_end__+0x376508>
     478:	270b3b0b 	strcs	r3, [fp, -fp, lsl #22]
     47c:	20134919 	andscs	r4, r3, r9, lsl r9
     480:	0013010b 	andseq	r0, r3, fp, lsl #2
     484:	00050e00 	andeq	r0, r5, r0, lsl #28
     488:	0b3a0803 	bleq	e8249c <__bss_end__+0xe77924>
     48c:	13490b3b 	movtne	r0, #39739	; 0x9b3b
     490:	2e0f0000 	cdpcs	0, 0, cr0, cr15, cr0, {0}
     494:	3a0e0301 	bcc	3810a0 <__bss_end__+0x376528>
     498:	270b3b0b 	strcs	r3, [fp, -fp, lsl #22]
     49c:	11134919 	tstne	r3, r9, lsl r9
     4a0:	40061201 	andmi	r1, r6, r1, lsl #4
     4a4:	19429718 	stmdbne	r2, {r3, r4, r8, r9, sl, ip, pc}^
     4a8:	00001301 	andeq	r1, r0, r1, lsl #6
     4ac:	03000510 	movweq	r0, #1296	; 0x510
     4b0:	3b0b3a08 	blcc	2cecd8 <__bss_end__+0x2c4160>
     4b4:	0213490b 	andseq	r4, r3, #180224	; 0x2c000
     4b8:	11000017 	tstne	r0, r7, lsl r0
     4bc:	0e030005 	cdpeq	0, 0, cr0, cr3, cr5, {0}
     4c0:	0b3b0b3a 	bleq	ec31b0 <__bss_end__+0xeb8638>
     4c4:	17021349 	strne	r1, [r2, -r9, asr #6]
     4c8:	34120000 	ldrcc	r0, [r2], #-0
     4cc:	3a080300 	bcc	2010d4 <__bss_end__+0x1f655c>
     4d0:	490b3b0b 	stmdbmi	fp, {r0, r1, r3, r8, r9, fp, ip, sp}
     4d4:	00170213 	andseq	r0, r7, r3, lsl r2
     4d8:	00341300 	eorseq	r1, r4, r0, lsl #6
     4dc:	0b3a0e03 	bleq	e83cf0 <__bss_end__+0xe79178>
     4e0:	13490b3b 	movtne	r0, #39739	; 0x9b3b
     4e4:	00001702 	andeq	r1, r0, r2, lsl #14
     4e8:	01828914 	orreq	r8, r2, r4, lsl r9
     4ec:	31011101 	tstcc	r1, r1, lsl #2
     4f0:	00130113 	andseq	r0, r3, r3, lsl r1
     4f4:	828a1500 	addhi	r1, sl, #0, 10
     4f8:	18020001 	stmdane	r2, {r0}
     4fc:	00184291 	mulseq	r8, r1, r2
     500:	82891600 	addhi	r1, r9, #0, 12
     504:	01110001 	tsteq	r1, r1
     508:	00001331 	andeq	r1, r0, r1, lsr r3
     50c:	01828917 	orreq	r8, r2, r7, lsl r9
     510:	31011101 	tstcc	r1, r1, lsl #2
     514:	18000013 	stmdane	r0, {r0, r1, r4}
     518:	0e03012e 	adfeqsp	f0, f3, #0.5
     51c:	0b3b0b3a 	bleq	ec320c <__bss_end__+0xeb8694>
     520:	01111927 	tsteq	r1, r7, lsr #18
     524:	18400612 	stmdane	r0, {r1, r4, r9, sl}^
     528:	01194297 			; <UNDEFINED> instruction: 0x01194297
     52c:	19000013 	stmdbne	r0, {r0, r1, r4}
     530:	0e030034 	mcreq	0, 0, r0, cr3, cr4, {1}
     534:	19341349 	ldmdbne	r4!, {r0, r3, r6, r8, r9, ip}
     538:	00001802 	andeq	r1, r0, r2, lsl #16
     53c:	0300341a 	movweq	r3, #1050	; 0x41a
     540:	3b0b3a08 	blcc	2ced68 <__bss_end__+0x2c41f0>
     544:	0013490b 	andseq	r4, r3, fp, lsl #18
     548:	01011b00 	tsteq	r1, r0, lsl #22
     54c:	13011349 	movwne	r1, #4937	; 0x1349
     550:	211c0000 	tstcs	ip, r0
     554:	2f134900 	svccs	0x00134900
     558:	1d00000b 	stcne	0, cr0, [r0, #-44]	; 0xffffffd4
     55c:	08030034 	stmdaeq	r3, {r2, r4, r5}
     560:	0b3b0b3a 	bleq	ec3250 <__bss_end__+0xeb86d8>
     564:	18021349 	stmdane	r2, {r0, r3, r6, r8, r9, ip}
     568:	341e0000 	ldrcc	r0, [lr], #-0
     56c:	3a0e0300 	bcc	381174 <__bss_end__+0x3765fc>
     570:	490b3b0b 	stmdbmi	fp, {r0, r1, r3, r8, r9, fp, ip, sp}
     574:	00180213 	andseq	r0, r8, r3, lsl r2
     578:	00341f00 	eorseq	r1, r4, r0, lsl #30
     57c:	0b3a0e03 	bleq	e83d90 <__bss_end__+0xe79218>
     580:	13490b3b 	movtne	r0, #39739	; 0x9b3b
     584:	0000061c 	andeq	r0, r0, ip, lsl r6
     588:	03003420 	movweq	r3, #1056	; 0x420
     58c:	3b0b3a0e 	blcc	2cedcc <__bss_end__+0x2c4254>
     590:	3f13490b 	svccc	0x0013490b
     594:	00193c19 	andseq	r3, r9, r9, lsl ip
     598:	010b2100 	mrseq	r2, (UNDEF: 27)
     59c:	06120111 			; <UNDEFINED> instruction: 0x06120111
     5a0:	00001301 	andeq	r1, r0, r1, lsl #6
     5a4:	55010b22 	strpl	r0, [r1, #-2850]	; 0xb22
     5a8:	00130117 	andseq	r0, r3, r7, lsl r1
     5ac:	012e2300 	teqeq	lr, r0, lsl #6
     5b0:	0b3a0e03 	bleq	e83dc4 <__bss_end__+0xe7924c>
     5b4:	1927053b 	stmdbne	r7!, {r0, r1, r3, r4, r5, r8, sl}
     5b8:	01111349 	tsteq	r1, r9, asr #6
     5bc:	18400612 	stmdane	r0, {r1, r4, r9, sl}^
     5c0:	01194297 			; <UNDEFINED> instruction: 0x01194297
     5c4:	24000013 	strcs	r0, [r0], #-19
     5c8:	0e030034 	mcreq	0, 0, r0, cr3, cr4, {1}
     5cc:	053b0b3a 	ldreq	r0, [fp, #-2874]!	; 0xb3a
     5d0:	17021349 	strne	r1, [r2, -r9, asr #6]
     5d4:	34250000 	strtcc	r0, [r5], #-0
     5d8:	3a0e0300 	bcc	3811e0 <__bss_end__+0x376668>
     5dc:	49053b0b 	stmdbmi	r5, {r0, r1, r3, r8, r9, fp, ip, sp}
     5e0:	00180213 	andseq	r0, r8, r3, lsl r2
     5e4:	00342600 	eorseq	r2, r4, r0, lsl #12
     5e8:	0b3a0803 	bleq	e825fc <__bss_end__+0xe77a84>
     5ec:	1349053b 	movtne	r0, #38203	; 0x953b
     5f0:	00001802 	andeq	r1, r0, r2, lsl #16
     5f4:	3f012e27 	svccc	0x00012e27
     5f8:	3a0e0319 	bcc	381264 <__bss_end__+0x3766ec>
     5fc:	270b3b0b 	strcs	r3, [fp, -fp, lsl #22]
     600:	11134919 	tstne	r3, r9, lsl r9
     604:	40061201 	andmi	r1, r6, r1, lsl #4
     608:	19429718 	stmdbne	r2, {r3, r4, r8, r9, sl, ip, pc}^
     60c:	00001301 	andeq	r1, r0, r1, lsl #6
     610:	3f012e28 	svccc	0x00012e28
     614:	3a0e0319 	bcc	381280 <__bss_end__+0x376708>
     618:	27053b0b 	strcs	r3, [r5, -fp, lsl #22]
     61c:	12011119 	andne	r1, r1, #1073741830	; 0x40000006
     620:	97184006 	ldrls	r4, [r8, -r6]
     624:	13011942 	movwne	r1, #6466	; 0x1942
     628:	2e290000 	cdpcs	0, 2, cr0, cr9, cr0, {0}
     62c:	03193f01 	tsteq	r9, #1, 30
     630:	3b0b3a0e 	blcc	2cee70 <__bss_end__+0x2c42f8>
     634:	49192705 	ldmdbmi	r9, {r0, r2, r8, r9, sl, sp}
     638:	12011113 	andne	r1, r1, #-1073741820	; 0xc0000004
     63c:	97184006 	ldrls	r4, [r8, -r6]
     640:	13011942 	movwne	r1, #6466	; 0x1942
     644:	2e2a0000 	cdpcs	0, 2, cr0, cr10, cr0, {0}
     648:	03193f00 	tsteq	r9, #0, 30
     64c:	3b0b3a0e 	blcc	2cee8c <__bss_end__+0x2c4314>
     650:	4919270b 	ldmdbmi	r9, {r0, r1, r3, r8, r9, sl, sp}
     654:	00193c13 	andseq	r3, r9, r3, lsl ip
     658:	012e2b00 	teqeq	lr, r0, lsl #22
     65c:	0e03193f 	mcreq	9, 0, r1, cr3, cr15, {1}
     660:	0b3b0b3a 	bleq	ec3350 <__bss_end__+0xeb87d8>
     664:	13491927 	movtne	r1, #39207	; 0x9927
     668:	1301193c 	movwne	r1, #6460	; 0x193c
     66c:	052c0000 	streq	r0, [ip, #-0]!
     670:	00134900 	andseq	r4, r3, r0, lsl #18
     674:	00182d00 	andseq	r2, r8, r0, lsl #26
     678:	2e2e0000 	cdpcs	0, 2, cr0, cr14, cr0, {0}
     67c:	03193f00 	tsteq	r9, #0, 30
     680:	3b0b3a0e 	blcc	2ceec0 <__bss_end__+0x2c4348>
     684:	3c19270b 	ldccc	7, cr2, [r9], {11}
     688:	2f000019 	svccs	0x00000019
     68c:	193f012e 	ldmdbne	pc!, {r1, r2, r3, r5, r8}	; <UNPREDICTABLE>
     690:	0b3a0e03 	bleq	e83ea4 <__bss_end__+0xe7932c>
     694:	19270b3b 	stmdbne	r7!, {r0, r1, r3, r4, r5, r8, r9, fp}
     698:	1301193c 	movwne	r1, #6460	; 0x193c
     69c:	01000000 	mrseq	r0, (UNDEF: 0)
     6a0:	0e250111 	mcreq	1, 1, r0, cr5, cr1, {0}
     6a4:	0e030b13 	vmoveq.32	d3[0], r0
     6a8:	01110e1b 	tsteq	r1, fp, lsl lr
     6ac:	17100612 			; <UNDEFINED> instruction: 0x17100612
     6b0:	24020000 	strcs	r0, [r2], #-0
     6b4:	3e0b0b00 	vmlacc.f64	d0, d11, d0
     6b8:	0008030b 	andeq	r0, r8, fp, lsl #6
     6bc:	00240300 	eoreq	r0, r4, r0, lsl #6
     6c0:	0b3e0b0b 	bleq	f832f4 <__bss_end__+0xf7877c>
     6c4:	00000e03 	andeq	r0, r0, r3, lsl #28
     6c8:	03001604 	movweq	r1, #1540	; 0x604
     6cc:	3b0b3a0e 	blcc	2cef0c <__bss_end__+0x2c4394>
     6d0:	0013490b 	andseq	r4, r3, fp, lsl #18
     6d4:	000f0500 	andeq	r0, pc, r0, lsl #10
     6d8:	13490b0b 	movtne	r0, #39691	; 0x9b0b
     6dc:	26060000 	strcs	r0, [r6], -r0
     6e0:	00134900 	andseq	r4, r3, r0, lsl #18
     6e4:	012e0700 	teqeq	lr, r0, lsl #14
     6e8:	0e03193f 	mcreq	9, 0, r1, cr3, cr15, {1}
     6ec:	0b3b0b3a 	bleq	ec33dc <__bss_end__+0xeb8864>
     6f0:	13491927 	movtne	r1, #39207	; 0x9927
     6f4:	06120111 			; <UNDEFINED> instruction: 0x06120111
     6f8:	42971840 	addsmi	r1, r7, #64, 16	; 0x400000
     6fc:	00130119 	andseq	r0, r3, r9, lsl r1
     700:	00050800 	andeq	r0, r5, r0, lsl #16
     704:	0b3a0e03 	bleq	e83f18 <__bss_end__+0xe793a0>
     708:	13490b3b 	movtne	r0, #39739	; 0x9b3b
     70c:	00001702 	andeq	r1, r0, r2, lsl #14
     710:	03000509 	movweq	r0, #1289	; 0x509
     714:	3b0b3a08 	blcc	2cef3c <__bss_end__+0x2c43c4>
     718:	0213490b 	andseq	r4, r3, #180224	; 0x2c000
     71c:	0a000017 	beq	780 <__code_start__-0x7880>
     720:	0e030034 	mcreq	0, 0, r0, cr3, cr4, {1}
     724:	0b3b0b3a 	bleq	ec3414 <__bss_end__+0xeb889c>
     728:	17021349 	strne	r1, [r2, -r9, asr #6]
     72c:	340b0000 	strcc	r0, [fp], #-0
     730:	3a080300 	bcc	201338 <__bss_end__+0x1f67c0>
     734:	490b3b0b 	stmdbmi	fp, {r0, r1, r3, r8, r9, fp, ip, sp}
     738:	00170213 	andseq	r0, r7, r3, lsl r2
     73c:	00260c00 	eoreq	r0, r6, r0, lsl #24
     740:	01000000 	mrseq	r0, (UNDEF: 0)
     744:	0e250111 	mcreq	1, 1, r0, cr5, cr1, {0}
     748:	0e030b13 	vmoveq.32	d3[0], r0
     74c:	01110e1b 	tsteq	r1, fp, lsl lr
     750:	17100612 			; <UNDEFINED> instruction: 0x17100612
     754:	24020000 	strcs	r0, [r2], #-0
     758:	3e0b0b00 	vmlacc.f64	d0, d11, d0
     75c:	000e030b 	andeq	r0, lr, fp, lsl #6
     760:	00240300 	eoreq	r0, r4, r0, lsl #6
     764:	0b3e0b0b 	bleq	f83398 <__bss_end__+0xf78820>
     768:	00000803 	andeq	r0, r0, r3, lsl #16
     76c:	0b000f04 	bleq	4384 <__code_start__-0x3c7c>
     770:	0500000b 	streq	r0, [r0, #-11]
     774:	0b0b000f 	bleq	2c07b8 <__bss_end__+0x2b5c40>
     778:	00001349 	andeq	r1, r0, r9, asr #6
     77c:	03001606 	movweq	r1, #1542	; 0x606
     780:	3b0b3a0e 	blcc	2cefc0 <__bss_end__+0x2c4448>
     784:	0013490b 	andseq	r4, r3, fp, lsl #18
     788:	012e0700 	teqeq	lr, r0, lsl #14
     78c:	0e03193f 	mcreq	9, 0, r1, cr3, cr15, {1}
     790:	0b3b0b3a 	bleq	ec3480 <__bss_end__+0xeb8908>
     794:	13491927 	movtne	r1, #39207	; 0x9927
     798:	06120111 			; <UNDEFINED> instruction: 0x06120111
     79c:	42971840 	addsmi	r1, r7, #64, 16	; 0x400000
     7a0:	08000019 	stmdaeq	r0, {r0, r3, r4}
     7a4:	08030005 	stmdaeq	r3, {r0, r2}
     7a8:	0b3b0b3a 	bleq	ec3498 <__bss_end__+0xeb8920>
     7ac:	18021349 	stmdane	r2, {r0, r3, r6, r8, r9, ip}
     7b0:	05090000 	streq	r0, [r9, #-0]
     7b4:	3a080300 	bcc	2013bc <__bss_end__+0x1f6844>
     7b8:	490b3b0b 	stmdbmi	fp, {r0, r1, r3, r8, r9, fp, ip, sp}
     7bc:	00170213 	andseq	r0, r7, r3, lsl r2
     7c0:	00340a00 	eorseq	r0, r4, r0, lsl #20
     7c4:	0b3a0803 	bleq	e827d8 <__bss_end__+0xe77c60>
     7c8:	13490b3b 	movtne	r0, #39739	; 0x9b3b
     7cc:	00001702 	andeq	r1, r0, r2, lsl #14
     7d0:	0300340b 	movweq	r3, #1035	; 0x40b
     7d4:	3b0b3a08 	blcc	2ceffc <__bss_end__+0x2c4484>
     7d8:	0213490b 	andseq	r4, r3, #180224	; 0x2c000
     7dc:	00000018 	andeq	r0, r0, r8, lsl r0
     7e0:	25011101 	strcs	r1, [r1, #-257]	; 0x101
     7e4:	030b130e 	movweq	r1, #45838	; 0xb30e
     7e8:	110e1b0e 	tstne	lr, lr, lsl #22
     7ec:	10061201 	andne	r1, r6, r1, lsl #4
     7f0:	02000017 	andeq	r0, r0, #23
     7f4:	0e030016 	mcreq	0, 0, r0, cr3, cr6, {0}
     7f8:	0b3b0b3a 	bleq	ec34e8 <__bss_end__+0xeb8970>
     7fc:	00001349 	andeq	r1, r0, r9, asr #6
     800:	03011303 	movweq	r1, #4867	; 0x1303
     804:	3a0b0b0e 	bcc	2c3444 <__bss_end__+0x2b88cc>
     808:	010b3b0b 	tsteq	fp, fp, lsl #22
     80c:	04000013 	streq	r0, [r0], #-19
     810:	0e03000d 	cdpeq	0, 0, cr0, cr3, cr13, {0}
     814:	0b381349 	bleq	e05540 <__bss_end__+0xdfa9c8>
     818:	00001934 	andeq	r1, r0, r4, lsr r9
     81c:	0b000f05 	bleq	4438 <__code_start__-0x3bc8>
     820:	0600000b 	streq	r0, [r0], -fp
     824:	0b0b0024 	bleq	2c08bc <__bss_end__+0x2b5d44>
     828:	08030b3e 	stmdaeq	r3, {r1, r2, r3, r4, r5, r8, r9, fp}
     82c:	24070000 	strcs	r0, [r7], #-0
     830:	3e0b0b00 	vmlacc.f64	d0, d11, d0
     834:	000e030b 	andeq	r0, lr, fp, lsl #6
     838:	000f0800 	andeq	r0, pc, r0, lsl #16
     83c:	13490b0b 	movtne	r0, #39691	; 0x9b0b
     840:	26090000 	strcs	r0, [r9], -r0
     844:	00134900 	andseq	r4, r3, r0, lsl #18
     848:	012e0a00 	teqeq	lr, r0, lsl #20
     84c:	0e03193f 	mcreq	9, 0, r1, cr3, cr15, {1}
     850:	0b3b0b3a 	bleq	ec3540 <__bss_end__+0xeb89c8>
     854:	13491927 	movtne	r1, #39207	; 0x9927
     858:	06120111 			; <UNDEFINED> instruction: 0x06120111
     85c:	42971840 	addsmi	r1, r7, #64, 16	; 0x400000
     860:	00130119 	andseq	r0, r3, r9, lsl r1
     864:	00050b00 	andeq	r0, r5, r0, lsl #22
     868:	0b3a0803 	bleq	e8287c <__bss_end__+0xe77d04>
     86c:	13490b3b 	movtne	r0, #39739	; 0x9b3b
     870:	00001802 	andeq	r1, r0, r2, lsl #16
     874:	0000180c 	andeq	r1, r0, ip, lsl #16
     878:	00340d00 	eorseq	r0, r4, r0, lsl #26
     87c:	0b3a0803 	bleq	e82890 <__bss_end__+0xe77d18>
     880:	13490b3b 	movtne	r0, #39739	; 0x9b3b
     884:	00001802 	andeq	r1, r0, r2, lsl #16
     888:	0300340e 	movweq	r3, #1038	; 0x40e
     88c:	3b0b3a0e 	blcc	2cf0cc <__bss_end__+0x2c4554>
     890:	0213490b 	andseq	r4, r3, #180224	; 0x2c000
     894:	0f000018 	svceq	0x00000018
     898:	08030034 	stmdaeq	r3, {r2, r4, r5}
     89c:	0b3b0b3a 	bleq	ec358c <__bss_end__+0xeb8a14>
     8a0:	17021349 	strne	r1, [r2, -r9, asr #6]
     8a4:	89100000 	ldmdbhi	r0, {}	; <UNPREDICTABLE>
     8a8:	11010182 	smlabbne	r1, r2, r1, r0
     8ac:	01133101 	tsteq	r3, r1, lsl #2
     8b0:	11000013 	tstne	r0, r3, lsl r0
     8b4:	0001828a 	andeq	r8, r1, sl, lsl #5
     8b8:	42911802 	addsmi	r1, r1, #131072	; 0x20000
     8bc:	12000018 	andne	r0, r0, #24
     8c0:	01018289 	smlabbeq	r1, r9, r2, r8
     8c4:	00000111 	andeq	r0, r0, r1, lsl r1
     8c8:	49010113 	stmdbmi	r1, {r0, r1, r4, r8}
     8cc:	00130113 	andseq	r0, r3, r3, lsl r1
     8d0:	00211400 	eoreq	r1, r1, r0, lsl #8
     8d4:	052f1349 	streq	r1, [pc, #-841]!	; 593 <__code_start__-0x7a6d>
     8d8:	15150000 	ldrne	r0, [r5, #-0]
     8dc:	49192701 	ldmdbmi	r9, {r0, r8, r9, sl, sp}
     8e0:	00130113 	andseq	r0, r3, r3, lsl r1
     8e4:	00051600 	andeq	r1, r5, r0, lsl #12
     8e8:	00001349 	andeq	r1, r0, r9, asr #6
     8ec:	03003417 	movweq	r3, #1047	; 0x417
     8f0:	3b0b3a0e 	blcc	2cf130 <__bss_end__+0x2c45b8>
     8f4:	3f13490b 	svccc	0x0013490b
     8f8:	00193c19 	andseq	r3, r9, r9, lsl ip
     8fc:	012e1800 	teqeq	lr, r0, lsl #16
     900:	0e03193f 	mcreq	9, 0, r1, cr3, cr15, {1}
     904:	0b3b0b3a 	bleq	ec35f4 <__bss_end__+0xeb8a7c>
     908:	13491927 	movtne	r1, #39207	; 0x9927
     90c:	0000193c 	andeq	r1, r0, ip, lsr r9
     910:	01110100 	tsteq	r1, r0, lsl #2
     914:	0b130e25 	bleq	4c41b0 <__bss_end__+0x4b9638>
     918:	0e1b0e03 	cdpeq	14, 1, cr0, cr11, cr3, {0}
     91c:	06120111 			; <UNDEFINED> instruction: 0x06120111
     920:	00001710 	andeq	r1, r0, r0, lsl r7
     924:	0b002402 	bleq	9934 <uart_getc+0x10>
     928:	030b3e0b 	movweq	r3, #48651	; 0xbe0b
     92c:	03000008 	movweq	r0, #8
     930:	0b0b0024 	bleq	2c09c8 <__bss_end__+0x2b5e50>
     934:	0e030b3e 	vmoveq.16	d3[0], r0
     938:	2e040000 	cdpcs	0, 0, cr0, cr4, cr0, {0}
     93c:	3a0e0301 	bcc	381548 <__bss_end__+0x3769d0>
     940:	270b3b0b 	strcs	r3, [fp, -fp, lsl #22]
     944:	11134919 	tstne	r3, r9, lsl r9
     948:	40061201 	andmi	r1, r6, r1, lsl #4
     94c:	19429718 	stmdbne	r2, {r3, r4, r8, r9, sl, ip, pc}^
     950:	00001301 	andeq	r1, r0, r1, lsl #6
     954:	03000505 	movweq	r0, #1285	; 0x505
     958:	3b0b3a08 	blcc	2cf180 <__bss_end__+0x2c4608>
     95c:	0213490b 	andseq	r4, r3, #180224	; 0x2c000
     960:	06000017 			; <UNDEFINED> instruction: 0x06000017
     964:	01018289 	smlabbeq	r1, r9, r2, r8
     968:	13310111 	teqne	r1, #1073741828	; 0x40000004
     96c:	8a070000 	bhi	1c0974 <__bss_end__+0x1b5dfc>
     970:	02000182 	andeq	r0, r0, #-2147483616	; 0x80000020
     974:	18429118 	stmdane	r2, {r3, r4, r8, ip, pc}^
     978:	2e080000 	cdpcs	0, 0, cr0, cr8, cr0, {0}
     97c:	03193f00 	tsteq	r9, #0, 30
     980:	3b0b3a0e 	blcc	2cf1c0 <__bss_end__+0x2c4648>
     984:	1119270b 	tstne	r9, fp, lsl #14
     988:	40061201 	andmi	r1, r6, r1, lsl #4
     98c:	19429718 	stmdbne	r2, {r3, r4, r8, r9, sl, ip, pc}^
     990:	2e090000 	cdpcs	0, 0, cr0, cr9, cr0, {0}
     994:	03193f01 	tsteq	r9, #1, 30
     998:	3b0b3a0e 	blcc	2cf1d8 <__bss_end__+0x2c4660>
     99c:	1119270b 	tstne	r9, fp, lsl #14
     9a0:	40061201 	andmi	r1, r6, r1, lsl #4
     9a4:	19429718 	stmdbne	r2, {r3, r4, r8, r9, sl, ip, pc}^
     9a8:	00001301 	andeq	r1, r0, r1, lsl #6
     9ac:	0300050a 	movweq	r0, #1290	; 0x50a
     9b0:	3b0b3a08 	blcc	2cf1d8 <__bss_end__+0x2c4660>
     9b4:	0213490b 	andseq	r4, r3, #180224	; 0x2c000
     9b8:	0b000018 	bleq	a20 <__code_start__-0x75e0>
     9bc:	19270115 	stmdbne	r7!, {r0, r2, r4, r8}
     9c0:	13011349 	movwne	r1, #4937	; 0x1349
     9c4:	050c0000 	streq	r0, [ip, #-0]
     9c8:	00134900 	andseq	r4, r3, r0, lsl #18
     9cc:	000f0d00 	andeq	r0, pc, r0, lsl #26
     9d0:	13490b0b 	movtne	r0, #39691	; 0x9b0b
     9d4:	340e0000 	strcc	r0, [lr], #-0
     9d8:	3a0e0300 	bcc	3815e0 <__bss_end__+0x376a68>
     9dc:	490b3b0b 	stmdbmi	fp, {r0, r1, r3, r8, r9, fp, ip, sp}
     9e0:	02193f13 	andseq	r3, r9, #19, 30	; 0x4c
     9e4:	0f000018 	svceq	0x00000018
     9e8:	193f012e 	ldmdbne	pc!, {r1, r2, r3, r5, r8}	; <UNPREDICTABLE>
     9ec:	0b3a0e03 	bleq	e84200 <__bss_end__+0xe79688>
     9f0:	19270b3b 	stmdbne	r7!, {r0, r1, r3, r4, r5, r8, r9, fp}
     9f4:	0000193c 	andeq	r1, r0, ip, lsr r9
     9f8:	01110100 	tsteq	r1, r0, lsl #2
     9fc:	0b130e25 	bleq	4c4298 <__bss_end__+0x4b9720>
     a00:	0e1b0e03 	cdpeq	14, 1, cr0, cr11, cr3, {0}
     a04:	06120111 			; <UNDEFINED> instruction: 0x06120111
     a08:	00001710 	andeq	r1, r0, r0, lsl r7
     a0c:	0b002402 	bleq	9a1c <gpio_set_on+0x10>
     a10:	030b3e0b 	movweq	r3, #48651	; 0xbe0b
     a14:	03000008 	movweq	r0, #8
     a18:	0b0b0024 	bleq	2c0ab0 <__bss_end__+0x2b5f38>
     a1c:	0e030b3e 	vmoveq.16	d3[0], r0
     a20:	0f040000 	svceq	0x00040000
     a24:	490b0b00 	stmdbmi	fp, {r8, r9, fp}
     a28:	05000013 	streq	r0, [r0, #-19]
     a2c:	13490026 	movtne	r0, #36902	; 0x9026
     a30:	2e060000 	cdpcs	0, 0, cr0, cr6, cr0, {0}
     a34:	03193f01 	tsteq	r9, #1, 30
     a38:	3b0b3a0e 	blcc	2cf278 <__bss_end__+0x2c4700>
     a3c:	4919270b 	ldmdbmi	r9, {r0, r1, r3, r8, r9, sl, sp}
     a40:	12011113 	andne	r1, r1, #-1073741820	; 0xc0000004
     a44:	96184006 	ldrls	r4, [r8], -r6
     a48:	13011942 	movwne	r1, #6466	; 0x1942
     a4c:	05070000 	streq	r0, [r7, #-0]
     a50:	3a080300 	bcc	201658 <__bss_end__+0x1f6ae0>
     a54:	490b3b0b 	stmdbmi	fp, {r0, r1, r3, r8, r9, fp, ip, sp}
     a58:	00170213 	andseq	r0, r7, r3, lsl r2
     a5c:	01150800 	tsteq	r5, r0, lsl #16
     a60:	13491927 	movtne	r1, #39207	; 0x9927
     a64:	00001301 	andeq	r1, r0, r1, lsl #6
     a68:	49000509 	stmdbmi	r0, {r0, r3, r8, sl}
     a6c:	0a000013 	beq	ac0 <__code_start__-0x7540>
     a70:	0e030034 	mcreq	0, 0, r0, cr3, cr4, {1}
     a74:	0b3b0b3a 	bleq	ec3764 <__bss_end__+0xeb8bec>
     a78:	193f1349 	ldmdbne	pc!, {r0, r3, r6, r8, r9, ip}	; <UNPREDICTABLE>
     a7c:	0000193c 	andeq	r1, r0, ip, lsr r9
     a80:	0300340b 	movweq	r3, #1035	; 0x40b
     a84:	3b0b3a0e 	blcc	2cf2c4 <__bss_end__+0x2c474c>
     a88:	3f13490b 	svccc	0x0013490b
     a8c:	00180219 	andseq	r0, r8, r9, lsl r2
     a90:	11010000 	mrsne	r0, (UNDEF: 1)
     a94:	130e2501 	movwne	r2, #58625	; 0xe501
     a98:	1b0e030b 	blne	3816cc <__bss_end__+0x376b54>
     a9c:	1201110e 	andne	r1, r1, #-2147483645	; 0x80000003
     aa0:	00171006 	andseq	r1, r7, r6
     aa4:	00240200 	eoreq	r0, r4, r0, lsl #4
     aa8:	0b3e0b0b 	bleq	f836dc <__bss_end__+0xf78b64>
     aac:	00000803 	andeq	r0, r0, r3, lsl #16
     ab0:	0b002403 	bleq	9ac4 <kmalloc_heap_start>
     ab4:	030b3e0b 	movweq	r3, #48651	; 0xbe0b
     ab8:	0400000e 	streq	r0, [r0], #-14
     abc:	0b0b000f 	bleq	2c0b00 <__bss_end__+0x2b5f88>
     ac0:	0f050000 	svceq	0x00050000
     ac4:	490b0b00 	stmdbmi	fp, {r8, r9, fp}
     ac8:	06000013 			; <UNDEFINED> instruction: 0x06000013
     acc:	13490026 	movtne	r0, #36902	; 0x9026
     ad0:	16070000 	strne	r0, [r7], -r0
     ad4:	3a0e0300 	bcc	3816dc <__bss_end__+0x376b64>
     ad8:	490b3b0b 	stmdbmi	fp, {r0, r1, r3, r8, r9, fp, ip, sp}
     adc:	08000013 	stmdaeq	r0, {r0, r1, r4}
     ae0:	0e030113 	mcreq	1, 0, r0, cr3, cr3, {0}
     ae4:	0b3a0b0b 	bleq	e83718 <__bss_end__+0xe78ba0>
     ae8:	13010b3b 	movwne	r0, #6971	; 0x1b3b
     aec:	0d090000 	stceq	0, cr0, [r9, #-0]
     af0:	490e0300 	stmdbmi	lr, {r8, r9}
     af4:	340b3813 	strcc	r3, [fp], #-2067	; 0x813
     af8:	0a000019 	beq	b64 <__code_start__-0x749c>
     afc:	0e03012e 	adfeqsp	f0, f3, #0.5
     b00:	0b3b0b3a 	bleq	ec37f0 <__bss_end__+0xeb8c78>
     b04:	13491927 	movtne	r1, #39207	; 0x9927
     b08:	06120111 			; <UNDEFINED> instruction: 0x06120111
     b0c:	42971840 	addsmi	r1, r7, #64, 16	; 0x400000
     b10:	00130119 	andseq	r0, r3, r9, lsl r1
     b14:	00050b00 	andeq	r0, r5, r0, lsl #22
     b18:	0b3a0803 	bleq	e82b2c <__bss_end__+0xe77fb4>
     b1c:	13490b3b 	movtne	r0, #39739	; 0x9b3b
     b20:	00001702 	andeq	r1, r0, r2, lsl #14
     b24:	03012e0c 	movweq	r2, #7692	; 0x1e0c
     b28:	3b0b3a08 	blcc	2cf350 <__bss_end__+0x2c47d8>
     b2c:	4919270b 	ldmdbmi	r9, {r0, r1, r3, r8, r9, sl, sp}
     b30:	12011113 	andne	r1, r1, #-1073741820	; 0xc0000004
     b34:	97184006 	ldrls	r4, [r8, -r6]
     b38:	13011942 	movwne	r1, #6466	; 0x1942
     b3c:	050d0000 	streq	r0, [sp, #-0]
     b40:	3a0e0300 	bcc	381748 <__bss_end__+0x376bd0>
     b44:	490b3b0b 	stmdbmi	fp, {r0, r1, r3, r8, r9, fp, ip, sp}
     b48:	00170213 	andseq	r0, r7, r3, lsl r2
     b4c:	00050e00 	andeq	r0, r5, r0, lsl #28
     b50:	0b3a0e03 	bleq	e84364 <__bss_end__+0xe797ec>
     b54:	13490b3b 	movtne	r0, #39739	; 0x9b3b
     b58:	00001802 	andeq	r1, r0, r2, lsl #16
     b5c:	0300340f 	movweq	r3, #1039	; 0x40f
     b60:	3b0b3a08 	blcc	2cf388 <__bss_end__+0x2c4810>
     b64:	0213490b 	andseq	r4, r3, #180224	; 0x2c000
     b68:	10000018 	andne	r0, r0, r8, lsl r0
     b6c:	08030034 	stmdaeq	r3, {r2, r4, r5}
     b70:	0b3b0b3a 	bleq	ec3860 <__bss_end__+0xeb8ce8>
     b74:	17021349 	strne	r1, [r2, -r9, asr #6]
     b78:	34110000 	ldrcc	r0, [r1], #-0
     b7c:	490e0300 	stmdbmi	lr, {r8, r9}
     b80:	02193413 	andseq	r3, r9, #318767104	; 0x13000000
     b84:	12000018 	andne	r0, r0, #24
     b88:	0111010b 	tsteq	r1, fp, lsl #2
     b8c:	13010612 	movwne	r0, #5650	; 0x1612
     b90:	34130000 	ldrcc	r0, [r3], #-0
     b94:	3a0e0300 	bcc	38179c <__bss_end__+0x376c24>
     b98:	490b3b0b 	stmdbmi	fp, {r0, r1, r3, r8, r9, fp, ip, sp}
     b9c:	00170213 	andseq	r0, r7, r3, lsl r2
     ba0:	82891400 	addhi	r1, r9, #0, 8
     ba4:	01110001 	tsteq	r1, r1
     ba8:	00001331 	andeq	r1, r0, r1, lsr r3
     bac:	01828915 	orreq	r8, r2, r5, lsl r9
     bb0:	31011101 	tstcc	r1, r1, lsl #2
     bb4:	00130113 	andseq	r0, r3, r3, lsl r1
     bb8:	828a1600 	addhi	r1, sl, #0, 12
     bbc:	18020001 	stmdane	r2, {r0}
     bc0:	00184291 	mulseq	r8, r1, r2
     bc4:	82891700 	addhi	r1, r9, #0, 14
     bc8:	01110101 	tsteq	r1, r1, lsl #2
     bcc:	00001331 	andeq	r1, r0, r1, lsr r3
     bd0:	49010118 	stmdbmi	r1, {r3, r4, r8}
     bd4:	00130113 	andseq	r0, r3, r3, lsl r1
     bd8:	00211900 	eoreq	r1, r1, r0, lsl #18
     bdc:	0b2f1349 	bleq	bc5908 <__bss_end__+0xbbad90>
     be0:	2e1a0000 	cdpcs	0, 1, cr0, cr10, cr0, {0}
     be4:	03193f01 	tsteq	r9, #1, 30
     be8:	3b0b3a0e 	blcc	2cf428 <__bss_end__+0x2c48b0>
     bec:	1119270b 	tstne	r9, fp, lsl #14
     bf0:	40061201 	andmi	r1, r6, r1, lsl #4
     bf4:	19429718 	stmdbne	r2, {r3, r4, r8, r9, sl, ip, pc}^
     bf8:	00001301 	andeq	r1, r0, r1, lsl #6
     bfc:	2701151b 	smladcs	r1, fp, r5, r1
     c00:	01134919 	tsteq	r3, r9, lsl r9
     c04:	1c000013 	stcne	0, cr0, [r0], {19}
     c08:	13490005 	movtne	r0, #36869	; 0x9005
     c0c:	2e1d0000 	cdpcs	0, 1, cr0, cr13, cr0, {0}
     c10:	03193f01 	tsteq	r9, #1, 30
     c14:	3b0b3a0e 	blcc	2cf454 <__bss_end__+0x2c48dc>
     c18:	4919270b 	ldmdbmi	r9, {r0, r1, r3, r8, r9, sl, sp}
     c1c:	12011113 	andne	r1, r1, #-1073741820	; 0xc0000004
     c20:	97184006 	ldrls	r4, [r8, -r6]
     c24:	13011942 	movwne	r1, #6466	; 0x1942
     c28:	0b1e0000 	bleq	780c30 <__bss_end__+0x7760b8>
     c2c:	00175501 	andseq	r5, r7, r1, lsl #10
     c30:	00341f00 	eorseq	r1, r4, r0, lsl #30
     c34:	0b3a0e03 	bleq	e84448 <__bss_end__+0xe798d0>
     c38:	13490b3b 	movtne	r0, #39739	; 0x9b3b
     c3c:	193c193f 	ldmdbne	ip!, {r0, r1, r2, r3, r4, r5, r8, fp, ip}
     c40:	2e200000 	cdpcs	0, 2, cr0, cr0, cr0, {0}
     c44:	03193f00 	tsteq	r9, #0, 30
     c48:	3b0b3a0e 	blcc	2cf488 <__bss_end__+0x2c4910>
     c4c:	3c19270b 	ldccc	7, cr2, [r9], {11}
     c50:	21000019 	tstcs	r0, r9, lsl r0
     c54:	193f012e 	ldmdbne	pc!, {r1, r2, r3, r5, r8}	; <UNPREDICTABLE>
     c58:	0b3a0e03 	bleq	e8446c <__bss_end__+0xe798f4>
     c5c:	19270b3b 	stmdbne	r7!, {r0, r1, r3, r4, r5, r8, r9, fp}
     c60:	193c1349 	ldmdbne	ip!, {r0, r3, r6, r8, r9, ip}
     c64:	00001301 	andeq	r1, r0, r1, lsl #6
     c68:	00001822 	andeq	r1, r0, r2, lsr #16
     c6c:	11010000 	mrsne	r0, (UNDEF: 1)
     c70:	130e2501 	movwne	r2, #58625	; 0xe501
     c74:	1b0e030b 	blne	3818a8 <__bss_end__+0x376d30>
     c78:	1201110e 	andne	r1, r1, #-2147483645	; 0x80000003
     c7c:	00171006 	andseq	r1, r7, r6
     c80:	00240200 	eoreq	r0, r4, r0, lsl #4
     c84:	0b3e0b0b 	bleq	f838b8 <__bss_end__+0xf78d40>
     c88:	00000803 	andeq	r0, r0, r3, lsl #16
     c8c:	0b002403 	bleq	9ca0 <__data_end__+0x30>
     c90:	030b3e0b 	movweq	r3, #48651	; 0xbe0b
     c94:	0400000e 	streq	r0, [r0], #-14
     c98:	0b0b000f 	bleq	2c0cdc <__bss_end__+0x2b6164>
     c9c:	00001349 	andeq	r1, r0, r9, asr #6
     ca0:	49002605 	stmdbmi	r0, {r0, r2, r9, sl, sp}
     ca4:	06000013 			; <UNDEFINED> instruction: 0x06000013
     ca8:	193f012e 	ldmdbne	pc!, {r1, r2, r3, r5, r8}	; <UNPREDICTABLE>
     cac:	0b3a0e03 	bleq	e844c0 <__bss_end__+0xe79948>
     cb0:	19270b3b 	stmdbne	r7!, {r0, r1, r3, r4, r5, r8, r9, fp}
     cb4:	06120111 			; <UNDEFINED> instruction: 0x06120111
     cb8:	42971840 	addsmi	r1, r7, #64, 16	; 0x400000
     cbc:	00130119 	andseq	r0, r3, r9, lsl r1
     cc0:	82890700 	addhi	r0, r9, #0, 14
     cc4:	01110101 	tsteq	r1, r1, lsl #2
     cc8:	00001301 	andeq	r1, r0, r1, lsl #6
     ccc:	01828a08 	orreq	r8, r2, r8, lsl #20
     cd0:	91180200 	tstls	r8, r0, lsl #4
     cd4:	00001842 	andeq	r1, r0, r2, asr #16
     cd8:	01828909 	orreq	r8, r2, r9, lsl #18
     cdc:	31011101 	tstcc	r1, r1, lsl #2
     ce0:	00130113 	andseq	r0, r3, r3, lsl r1
     ce4:	82890a00 	addhi	r0, r9, #0, 20
     ce8:	01110001 	tsteq	r1, r1
     cec:	00001331 	andeq	r1, r0, r1, lsr r3
     cf0:	2701150b 	strcs	r1, [r1, -fp, lsl #10]
     cf4:	01134919 	tsteq	r3, r9, lsl r9
     cf8:	0c000013 	stceq	0, cr0, [r0], {19}
     cfc:	13490005 	movtne	r0, #36869	; 0x9005
     d00:	340d0000 	strcc	r0, [sp], #-0
     d04:	3a0e0300 	bcc	38190c <__bss_end__+0x376d94>
     d08:	490b3b0b 	stmdbmi	fp, {r0, r1, r3, r8, r9, fp, ip, sp}
     d0c:	3c193f13 	ldccc	15, cr3, [r9], {19}
     d10:	0e000019 	mcreq	0, 0, r0, cr0, cr9, {0}
     d14:	193f012e 	ldmdbne	pc!, {r1, r2, r3, r5, r8}	; <UNPREDICTABLE>
     d18:	0b3a0e03 	bleq	e8452c <__bss_end__+0xe799b4>
     d1c:	19270b3b 	stmdbne	r7!, {r0, r1, r3, r4, r5, r8, r9, fp}
     d20:	1301193c 	movwne	r1, #6460	; 0x193c
     d24:	2e0f0000 	cdpcs	0, 0, cr0, cr15, cr0, {0}
     d28:	03193f00 	tsteq	r9, #0, 30
     d2c:	3b0b3a0e 	blcc	2cf56c <__bss_end__+0x2c49f4>
     d30:	3c19270b 	ldccc	7, cr2, [r9], {11}
     d34:	00000019 	andeq	r0, r0, r9, lsl r0
     d38:	25011101 	strcs	r1, [r1, #-257]	; 0x101
     d3c:	030b130e 	movweq	r1, #45838	; 0xb30e
     d40:	110e1b0e 	tstne	lr, lr, lsl #22
     d44:	10061201 	andne	r1, r6, r1, lsl #4
     d48:	02000017 	andeq	r0, r0, #23
     d4c:	0b0b0024 	bleq	2c0de4 <__bss_end__+0x2b626c>
     d50:	08030b3e 	stmdaeq	r3, {r1, r2, r3, r4, r5, r8, r9, fp}
     d54:	24030000 	strcs	r0, [r3], #-0
     d58:	3e0b0b00 	vmlacc.f64	d0, d11, d0
     d5c:	000e030b 	andeq	r0, lr, fp, lsl #6
     d60:	012e0400 	teqeq	lr, r0, lsl #8
     d64:	0e03193f 	mcreq	9, 0, r1, cr3, cr15, {1}
     d68:	0b3b0b3a 	bleq	ec3a58 <__bss_end__+0xeb8ee0>
     d6c:	06120111 			; <UNDEFINED> instruction: 0x06120111
     d70:	42971840 	addsmi	r1, r7, #64, 16	; 0x400000
     d74:	00130119 	andseq	r0, r3, r9, lsl r1
     d78:	00340500 	eorseq	r0, r4, r0, lsl #10
     d7c:	0b3a0e03 	bleq	e84590 <__bss_end__+0xe79a18>
     d80:	13490b3b 	movtne	r0, #39739	; 0x9b3b
     d84:	193c193f 	ldmdbne	ip!, {r0, r1, r2, r3, r4, r5, r8, fp, ip}
     d88:	2e060000 	cdpcs	0, 0, cr0, cr6, cr0, {0}
     d8c:	03193f00 	tsteq	r9, #0, 30
     d90:	3b0b3a0e 	blcc	2cf5d0 <__bss_end__+0x2c4a58>
     d94:	3c19270b 	ldccc	7, cr2, [r9], {11}
     d98:	07000019 	smladeq	r0, r9, r0, r0
     d9c:	08030034 	stmdaeq	r3, {r2, r4, r5}
     da0:	0b3b0b3a 	bleq	ec3a90 <__bss_end__+0xeb8f18>
     da4:	17021349 	strne	r1, [r2, -r9, asr #6]
     da8:	34080000 	strcc	r0, [r8], #-0
     dac:	3a0e0300 	bcc	3819b4 <__bss_end__+0x376e3c>
     db0:	490b3b0b 	stmdbmi	fp, {r0, r1, r3, r8, r9, fp, ip, sp}
     db4:	09000013 	stmdbeq	r0, {r0, r1, r4}
     db8:	00018289 	andeq	r8, r1, r9, lsl #5
     dbc:	13310111 	teqne	r1, #1073741828	; 0x40000004
     dc0:	0f0a0000 	svceq	0x000a0000
     dc4:	490b0b00 	stmdbmi	fp, {r8, r9, fp}
     dc8:	00000013 	andeq	r0, r0, r3, lsl r0
     dcc:	25011101 	strcs	r1, [r1, #-257]	; 0x101
     dd0:	030b130e 	movweq	r1, #45838	; 0xb30e
     dd4:	550e1b0e 	strpl	r1, [lr, #-2830]	; 0xb0e
     dd8:	10011117 	andne	r1, r1, r7, lsl r1
     ddc:	02000017 	andeq	r0, r0, #23
     de0:	0b0b0024 	bleq	2c0e78 <__bss_end__+0x2b6300>
     de4:	08030b3e 	stmdaeq	r3, {r1, r2, r3, r4, r5, r8, r9, fp}
     de8:	24030000 	strcs	r0, [r3], #-0
     dec:	3e0b0b00 	vmlacc.f64	d0, d11, d0
     df0:	000e030b 	andeq	r0, lr, fp, lsl #6
     df4:	012e0400 	teqeq	lr, r0, lsl #8
     df8:	0e03193f 	mcreq	9, 0, r1, cr3, cr15, {1}
     dfc:	0b3b0b3a 	bleq	ec3aec <__bss_end__+0xeb8f74>
     e00:	13491927 	movtne	r1, #39207	; 0x9927
     e04:	06120111 			; <UNDEFINED> instruction: 0x06120111
     e08:	42971840 	addsmi	r1, r7, #64, 16	; 0x400000
     e0c:	00130119 	andseq	r0, r3, r9, lsl r1
     e10:	00340500 	eorseq	r0, r4, r0, lsl #10
     e14:	0b3a0e03 	bleq	e84628 <__bss_end__+0xe79ab0>
     e18:	13490b3b 	movtne	r0, #39739	; 0x9b3b
     e1c:	00001702 	andeq	r1, r0, r2, lsl #14
     e20:	3f012e06 	svccc	0x00012e06
     e24:	3a0e0319 	bcc	381a90 <__bss_end__+0x376f18>
     e28:	270b3b0b 	strcs	r3, [fp, -fp, lsl #22]
     e2c:	12011119 	andne	r1, r1, #1073741830	; 0x40000006
     e30:	97184006 	ldrls	r4, [r8, -r6]
     e34:	13011942 	movwne	r1, #6466	; 0x1942
     e38:	34070000 	strcc	r0, [r7], #-0
     e3c:	3a0e0300 	bcc	381a44 <__bss_end__+0x376ecc>
     e40:	490b3b0b 	stmdbmi	fp, {r0, r1, r3, r8, r9, fp, ip, sp}
     e44:	00061c13 	andeq	r1, r6, r3, lsl ip
     e48:	00340800 	eorseq	r0, r4, r0, lsl #16
     e4c:	0b3a0e03 	bleq	e84660 <__bss_end__+0xe79ae8>
     e50:	13490b3b 	movtne	r0, #39739	; 0x9b3b
     e54:	00000b1c 	andeq	r0, r0, ip, lsl fp
     e58:	01828909 	orreq	r8, r2, r9, lsl #18
     e5c:	31011100 	mrscc	r1, (UNDEF: 17)
     e60:	0a000013 	beq	eb4 <__code_start__-0x714c>
     e64:	01018289 	smlabbeq	r1, r9, r2, r8
     e68:	13310111 	teqne	r1, #1073741828	; 0x40000004
     e6c:	00001301 	andeq	r1, r0, r1, lsl #6
     e70:	01828a0b 	orreq	r8, r2, fp, lsl #20
     e74:	91180200 	tstls	r8, r0, lsl #4
     e78:	00001842 	andeq	r1, r0, r2, asr #16
     e7c:	0182890c 	orreq	r8, r2, ip, lsl #18
     e80:	31011101 	tstcc	r1, r1, lsl #2
     e84:	0d000013 	stceq	0, cr0, [r0, #-76]	; 0xffffffb4
     e88:	13490026 	movtne	r0, #36902	; 0x9026
     e8c:	2e0e0000 	cdpcs	0, 0, cr0, cr14, cr0, {0}
     e90:	03193f01 	tsteq	r9, #1, 30
     e94:	3b0b3a0e 	blcc	2cf6d4 <__bss_end__+0x2c4b5c>
     e98:	3c19270b 	ldccc	7, cr2, [r9], {11}
     e9c:	00130119 	andseq	r0, r3, r9, lsl r1
     ea0:	00050f00 	andeq	r0, r5, r0, lsl #30
     ea4:	00001349 	andeq	r1, r0, r9, asr #6
     ea8:	3f012e10 	svccc	0x00012e10
     eac:	3a0e0319 	bcc	381b18 <__bss_end__+0x376fa0>
     eb0:	270b3b0b 	strcs	r3, [fp, -fp, lsl #22]
     eb4:	00193c19 	andseq	r3, r9, r9, lsl ip
     eb8:	11010000 	mrsne	r0, (UNDEF: 1)
     ebc:	130e2501 	movwne	r2, #58625	; 0xe501
     ec0:	1b0e030b 	blne	381af4 <__bss_end__+0x376f7c>
     ec4:	1201110e 	andne	r1, r1, #-2147483645	; 0x80000003
     ec8:	00171006 	andseq	r1, r7, r6
     ecc:	00240200 	eoreq	r0, r4, r0, lsl #4
     ed0:	0b3e0b0b 	bleq	f83b04 <__bss_end__+0xf78f8c>
     ed4:	00000803 	andeq	r0, r0, r3, lsl #16
     ed8:	0b002403 	bleq	9eec <__FUNCTION__.4338+0x1c8>
     edc:	030b3e0b 	movweq	r3, #48651	; 0xbe0b
     ee0:	0400000e 	streq	r0, [r0], #-14
     ee4:	193f012e 	ldmdbne	pc!, {r1, r2, r3, r5, r8}	; <UNPREDICTABLE>
     ee8:	0b3a0e03 	bleq	e846fc <__bss_end__+0xe79b84>
     eec:	19270b3b 	stmdbne	r7!, {r0, r1, r3, r4, r5, r8, r9, fp}
     ef0:	06120111 			; <UNDEFINED> instruction: 0x06120111
     ef4:	42971840 	addsmi	r1, r7, #64, 16	; 0x400000
     ef8:	00130119 	andseq	r0, r3, r9, lsl r1
     efc:	00050500 	andeq	r0, r5, r0, lsl #10
     f00:	0b3a0e03 	bleq	e84714 <__bss_end__+0xe79b9c>
     f04:	13490b3b 	movtne	r0, #39739	; 0x9b3b
     f08:	00001702 	andeq	r1, r0, r2, lsl #14
     f0c:	3f012e06 	svccc	0x00012e06
     f10:	3a0e0319 	bcc	381b7c <__bss_end__+0x377004>
     f14:	270b3b0b 	strcs	r3, [fp, -fp, lsl #22]
     f18:	11134919 	tstne	r3, r9, lsl r9
     f1c:	40061201 	andmi	r1, r6, r1, lsl #4
     f20:	19429718 	stmdbne	r2, {r3, r4, r8, r9, sl, ip, pc}^
     f24:	00001301 	andeq	r1, r0, r1, lsl #6
     f28:	01828907 	orreq	r8, r2, r7, lsl #18
     f2c:	31011101 	tstcc	r1, r1, lsl #2
     f30:	08000013 	stmdaeq	r0, {r0, r1, r4}
     f34:	0001828a 	andeq	r8, r1, sl, lsl #5
     f38:	42911802 	addsmi	r1, r1, #131072	; 0x20000
     f3c:	09000018 	stmdbeq	r0, {r3, r4}
     f40:	08030034 	stmdaeq	r3, {r2, r4, r5}
     f44:	0b3b0b3a 	bleq	ec3c34 <__bss_end__+0xeb90bc>
     f48:	18021349 	stmdane	r2, {r0, r3, r6, r8, r9, ip}
     f4c:	890a0000 	stmdbhi	sl, {}	; <UNPREDICTABLE>
     f50:	11000182 	smlabbne	r0, r2, r1, r0
     f54:	00133101 	andseq	r3, r3, r1, lsl #2
     f58:	00050b00 	andeq	r0, r5, r0, lsl #22
     f5c:	0b3a0803 	bleq	e82f70 <__bss_end__+0xe783f8>
     f60:	13490b3b 	movtne	r0, #39739	; 0x9b3b
     f64:	00001702 	andeq	r1, r0, r2, lsl #14
     f68:	11010b0c 	tstne	r1, ip, lsl #22
     f6c:	01061201 	tsteq	r6, r1, lsl #4
     f70:	0d000013 	stceq	0, cr0, [r0, #-76]	; 0xffffffb4
     f74:	08030034 	stmdaeq	r3, {r2, r4, r5}
     f78:	0b3b0b3a 	bleq	ec3c68 <__bss_end__+0xeb90f0>
     f7c:	17021349 	strne	r1, [r2, -r9, asr #6]
     f80:	2e0e0000 	cdpcs	0, 0, cr0, cr14, cr0, {0}
     f84:	03193f01 	tsteq	r9, #1, 30
     f88:	3b0b3a0e 	blcc	2cf7c8 <__bss_end__+0x2c4c50>
     f8c:	4919270b 	ldmdbmi	r9, {r0, r1, r3, r8, r9, sl, sp}
     f90:	00193c13 	andseq	r3, r9, r3, lsl ip
     f94:	00050f00 	andeq	r0, r5, r0, lsl #30
     f98:	00001349 	andeq	r1, r0, r9, asr #6
     f9c:	01110100 	tsteq	r1, r0, lsl #2
     fa0:	0b130e25 	bleq	4c483c <__bss_end__+0x4b9cc4>
     fa4:	0e1b0e03 	cdpeq	14, 1, cr0, cr11, cr3, {0}
     fa8:	06120111 			; <UNDEFINED> instruction: 0x06120111
     fac:	00001710 	andeq	r1, r0, r0, lsl r7
     fb0:	0b002402 	bleq	9fc0 <__FUNCTION__.4338+0x29c>
     fb4:	030b3e0b 	movweq	r3, #48651	; 0xbe0b
     fb8:	03000008 	movweq	r0, #8
     fbc:	0b0b0024 	bleq	2c1054 <__bss_end__+0x2b64dc>
     fc0:	0e030b3e 	vmoveq.16	d3[0], r0
     fc4:	35040000 	strcc	r0, [r4, #-0]
     fc8:	00134900 	andseq	r4, r3, r0, lsl #18
     fcc:	00160500 	andseq	r0, r6, r0, lsl #10
     fd0:	0b3a0e03 	bleq	e847e4 <__bss_end__+0xe79c6c>
     fd4:	13490b3b 	movtne	r0, #39739	; 0x9b3b
     fd8:	16060000 	strne	r0, [r6], -r0
     fdc:	3a0e0300 	bcc	381be4 <__bss_end__+0x37706c>
     fe0:	49053b0b 	stmdbmi	r5, {r0, r1, r3, r8, r9, fp, ip, sp}
     fe4:	07000013 	smladeq	r0, r3, r0, r0
     fe8:	0b0b0117 	bleq	2c144c <__bss_end__+0x2b68d4>
     fec:	0b3b0b3a 	bleq	ec3cdc <__bss_end__+0xeb9164>
     ff0:	00001301 	andeq	r1, r0, r1, lsl #6
     ff4:	03000d08 	movweq	r0, #3336	; 0xd08
     ff8:	3b0b3a0e 	blcc	2cf838 <__bss_end__+0x2c4cc0>
     ffc:	0013490b 	andseq	r4, r3, fp, lsl #18
    1000:	01010900 	tsteq	r1, r0, lsl #18
    1004:	13011349 	movwne	r1, #4937	; 0x1349
    1008:	210a0000 	mrscs	r0, (UNDEF: 10)
    100c:	2f134900 	svccs	0x00134900
    1010:	0b00000b 	bleq	1044 <__code_start__-0x6fbc>
    1014:	0b0b0113 	bleq	2c1468 <__bss_end__+0x2b68f0>
    1018:	0b3b0b3a 	bleq	ec3d08 <__bss_end__+0xeb9190>
    101c:	00001301 	andeq	r1, r0, r1, lsl #6
    1020:	03000d0c 	movweq	r0, #3340	; 0xd0c
    1024:	3b0b3a0e 	blcc	2cf864 <__bss_end__+0x2c4cec>
    1028:	3813490b 	ldmdacc	r3, {r0, r1, r3, r8, fp, lr}
    102c:	0d00000b 	stceq	0, cr0, [r0, #-44]	; 0xffffffd4
    1030:	0b0b000f 	bleq	2c1074 <__bss_end__+0x2b64fc>
    1034:	0f0e0000 	svceq	0x000e0000
    1038:	490b0b00 	stmdbmi	fp, {r8, r9, fp}
    103c:	0f000013 	svceq	0x00000013
    1040:	13490026 	movtne	r0, #36902	; 0x9026
    1044:	13100000 	tstne	r0, #0
    1048:	0b0e0301 	bleq	381c54 <__bss_end__+0x3770dc>
    104c:	3b0b3a0b 	blcc	2cf880 <__bss_end__+0x2c4d08>
    1050:	0013010b 	andseq	r0, r3, fp, lsl #2
    1054:	000d1100 	andeq	r1, sp, r0, lsl #2
    1058:	0b3a0803 	bleq	e8306c <__bss_end__+0xe784f4>
    105c:	13490b3b 	movtne	r0, #39739	; 0x9b3b
    1060:	00000b38 	andeq	r0, r0, r8, lsr fp
    1064:	03011312 	movweq	r1, #4882	; 0x1312
    1068:	3a050b0e 	bcc	143ca8 <__bss_end__+0x139130>
    106c:	010b3b0b 	tsteq	fp, fp, lsl #22
    1070:	13000013 	movwne	r0, #19
    1074:	0e03000d 	cdpeq	0, 0, cr0, cr3, cr13, {0}
    1078:	0b3b0b3a 	bleq	ec3d68 <__bss_end__+0xeb91f0>
    107c:	05381349 	ldreq	r1, [r8, #-841]!	; 0x349
    1080:	15140000 	ldrne	r0, [r4, #-0]
    1084:	00192700 	andseq	r2, r9, r0, lsl #14
    1088:	01151500 	tsteq	r5, r0, lsl #10
    108c:	13491927 	movtne	r1, #39207	; 0x9927
    1090:	00001301 	andeq	r1, r0, r1, lsl #6
    1094:	49000516 	stmdbmi	r0, {r1, r2, r4, r8, sl}
    1098:	17000013 	smladne	r0, r3, r0, r0
    109c:	0e030113 	mcreq	1, 0, r0, cr3, cr3, {0}
    10a0:	0b3a050b 	bleq	e824d4 <__bss_end__+0xe7795c>
    10a4:	1301053b 	movwne	r0, #5435	; 0x153b
    10a8:	0d180000 	ldceq	0, cr0, [r8, #-0]
    10ac:	3a0e0300 	bcc	381cb4 <__bss_end__+0x37713c>
    10b0:	49053b0b 	stmdbmi	r5, {r0, r1, r3, r8, r9, fp, ip, sp}
    10b4:	000b3813 	andeq	r3, fp, r3, lsl r8
    10b8:	000d1900 	andeq	r1, sp, r0, lsl #18
    10bc:	0b3a0e03 	bleq	e848d0 <__bss_end__+0xe79d58>
    10c0:	1349053b 	movtne	r0, #38203	; 0x953b
    10c4:	00000538 	andeq	r0, r0, r8, lsr r5
    10c8:	0301131a 	movweq	r1, #4890	; 0x131a
    10cc:	3a0b0b0e 	bcc	2c3d0c <__bss_end__+0x2b9194>
    10d0:	01053b0b 	tsteq	r5, fp, lsl #22
    10d4:	1b000013 	blne	1128 <__code_start__-0x6ed8>
    10d8:	0b0b0113 	bleq	2c152c <__bss_end__+0x2b69b4>
    10dc:	053b0b3a 	ldreq	r0, [fp, #-2874]!	; 0xb3a
    10e0:	00001301 	andeq	r1, r0, r1, lsl #6
    10e4:	0b01171c 	bleq	46d5c <__bss_end__+0x3c1e4>
    10e8:	3b0b3a0b 	blcc	2cf91c <__bss_end__+0x2c4da4>
    10ec:	00130105 	andseq	r0, r3, r5, lsl #2
    10f0:	000d1d00 	andeq	r1, sp, r0, lsl #26
    10f4:	0b3a0e03 	bleq	e84908 <__bss_end__+0xe79d90>
    10f8:	1349053b 	movtne	r0, #38203	; 0x953b
    10fc:	151e0000 	ldrne	r0, [lr, #-0]
    1100:	01192701 	tsteq	r9, r1, lsl #14
    1104:	1f000013 	svcne	0x00000013
    1108:	0e030034 	mcreq	0, 0, r0, cr3, cr4, {1}
    110c:	053b0b3a 	ldreq	r0, [fp, #-2874]!	; 0xb3a
    1110:	193f1349 	ldmdbne	pc!, {r0, r3, r6, r8, r9, ip}	; <UNPREDICTABLE>
    1114:	0000193c 	andeq	r1, r0, ip, lsr r9
    1118:	03003420 	movweq	r3, #1056	; 0x420
    111c:	3b0b3a0e 	blcc	2cf95c <__bss_end__+0x2c4de4>
    1120:	3f13490b 	svccc	0x0013490b
    1124:	00193c19 	andseq	r3, r9, r9, lsl ip
    1128:	01042100 	mrseq	r2, (UNDEF: 20)
    112c:	13490b0b 	movtne	r0, #39691	; 0x9b0b
    1130:	0b3b0b3a 	bleq	ec3e20 <__bss_end__+0xeb92a8>
    1134:	00001301 	andeq	r1, r0, r1, lsl #6
    1138:	03002822 	movweq	r2, #2082	; 0x822
    113c:	000b1c0e 	andeq	r1, fp, lr, lsl #24
    1140:	00342300 	eorseq	r2, r4, r0, lsl #6
    1144:	0b3a0e03 	bleq	e84958 <__bss_end__+0xe79de0>
    1148:	13490b3b 	movtne	r0, #39739	; 0x9b3b
    114c:	0000061c 	andeq	r0, r0, ip, lsl r6
    1150:	3f012e24 	svccc	0x00012e24
    1154:	3a0e0319 	bcc	381dc0 <__bss_end__+0x377248>
    1158:	270b3b0b 	strcs	r3, [fp, -fp, lsl #22]
    115c:	11134919 	tstne	r3, r9, lsl r9
    1160:	40061201 	andmi	r1, r6, r1, lsl #4
    1164:	19429718 	stmdbne	r2, {r3, r4, r8, r9, sl, ip, pc}^
    1168:	00001301 	andeq	r1, r0, r1, lsl #6
    116c:	01828925 	orreq	r8, r2, r5, lsr #18
    1170:	31011100 	mrscc	r1, (UNDEF: 17)
    1174:	26000013 			; <UNDEFINED> instruction: 0x26000013
    1178:	193f012e 	ldmdbne	pc!, {r1, r2, r3, r5, r8}	; <UNPREDICTABLE>
    117c:	0b3a0e03 	bleq	e84990 <__bss_end__+0xe79e18>
    1180:	19270b3b 	stmdbne	r7!, {r0, r1, r3, r4, r5, r8, r9, fp}
    1184:	06120111 			; <UNDEFINED> instruction: 0x06120111
    1188:	42971840 	addsmi	r1, r7, #64, 16	; 0x400000
    118c:	00130119 	andseq	r0, r3, r9, lsl r1
    1190:	00052700 	andeq	r2, r5, r0, lsl #14
    1194:	0b3a0803 	bleq	e831a8 <__bss_end__+0xe78630>
    1198:	13490b3b 	movtne	r0, #39739	; 0x9b3b
    119c:	00001702 	andeq	r1, r0, r2, lsl #14
    11a0:	01828928 	orreq	r8, r2, r8, lsr #18
    11a4:	31011101 	tstcc	r1, r1, lsl #2
    11a8:	00130113 	andseq	r0, r3, r3, lsl r1
    11ac:	828a2900 	addhi	r2, sl, #0, 18
    11b0:	18020001 	stmdane	r2, {r0}
    11b4:	00184291 	mulseq	r8, r1, r2
    11b8:	00342a00 	eorseq	r2, r4, r0, lsl #20
    11bc:	0b3a0803 	bleq	e831d0 <__bss_end__+0xe78658>
    11c0:	13490b3b 	movtne	r0, #39739	; 0x9b3b
    11c4:	00001802 	andeq	r1, r0, r2, lsl #16
    11c8:	0182892b 	orreq	r8, r2, fp, lsr #18
    11cc:	31011101 	tstcc	r1, r1, lsl #2
    11d0:	2c000013 	stccs	0, cr0, [r0], {19}
    11d4:	0e03012e 	adfeqsp	f0, f3, #0.5
    11d8:	0b3b0b3a 	bleq	ec3ec8 <__bss_end__+0xeb9350>
    11dc:	01111927 	tsteq	r1, r7, lsr #18
    11e0:	18400612 	stmdane	r0, {r1, r4, r9, sl}^
    11e4:	01194297 			; <UNDEFINED> instruction: 0x01194297
    11e8:	2d000013 	stccs	0, cr0, [r0, #-76]	; 0xffffffb4
    11ec:	0e030005 	cdpeq	0, 0, cr0, cr3, cr5, {0}
    11f0:	0b3b0b3a 	bleq	ec3ee0 <__bss_end__+0xeb9368>
    11f4:	17021349 	strne	r1, [r2, -r9, asr #6]
    11f8:	352e0000 	strcc	r0, [lr, #-0]!
    11fc:	2f000000 	svccs	0x00000000
    1200:	193f002e 	ldmdbne	pc!, {r1, r2, r3, r5}	; <UNPREDICTABLE>
    1204:	0e6e193c 	mcreq	9, 3, r1, cr14, cr12, {1}
    1208:	0b3a0e03 	bleq	e84a1c <__bss_end__+0xe79ea4>
    120c:	00000b3b 	andeq	r0, r0, fp, lsr fp
    1210:	01110100 	tsteq	r1, r0, lsl #2
    1214:	0b130e25 	bleq	4c4ab0 <__bss_end__+0x4b9f38>
    1218:	0e1b0e03 	cdpeq	14, 1, cr0, cr11, cr3, {0}
    121c:	06120111 			; <UNDEFINED> instruction: 0x06120111
    1220:	00001710 	andeq	r1, r0, r0, lsl r7
    1224:	0b002402 	bleq	a234 <__FUNCTION__.4336+0x8c>
    1228:	030b3e0b 	movweq	r3, #48651	; 0xbe0b
    122c:	03000008 	movweq	r0, #8
    1230:	0b0b0024 	bleq	2c12c8 <__bss_end__+0x2b6750>
    1234:	0e030b3e 	vmoveq.16	d3[0], r0
    1238:	26040000 	strcs	r0, [r4], -r0
    123c:	00134900 	andseq	r4, r3, r0, lsl #18
    1240:	00160500 	andseq	r0, r6, r0, lsl #10
    1244:	0b3a0e03 	bleq	e84a58 <__bss_end__+0xe79ee0>
    1248:	13490b3b 	movtne	r0, #39739	; 0x9b3b
    124c:	16060000 	strne	r0, [r6], -r0
    1250:	3a0e0300 	bcc	381e58 <__bss_end__+0x3772e0>
    1254:	49053b0b 	stmdbmi	r5, {r0, r1, r3, r8, r9, fp, ip, sp}
    1258:	07000013 	smladeq	r0, r3, r0, r0
    125c:	0b0b0117 	bleq	2c16c0 <__bss_end__+0x2b6b48>
    1260:	0b3b0b3a 	bleq	ec3f50 <__bss_end__+0xeb93d8>
    1264:	00001301 	andeq	r1, r0, r1, lsl #6
    1268:	03000d08 	movweq	r0, #3336	; 0xd08
    126c:	3b0b3a0e 	blcc	2cfaac <__bss_end__+0x2c4f34>
    1270:	0013490b 	andseq	r4, r3, fp, lsl #18
    1274:	01010900 	tsteq	r1, r0, lsl #18
    1278:	13011349 	movwne	r1, #4937	; 0x1349
    127c:	210a0000 	mrscs	r0, (UNDEF: 10)
    1280:	2f134900 	svccs	0x00134900
    1284:	0b00000b 	bleq	12b8 <__code_start__-0x6d48>
    1288:	0b0b0113 	bleq	2c16dc <__bss_end__+0x2b6b64>
    128c:	0b3b0b3a 	bleq	ec3f7c <__bss_end__+0xeb9404>
    1290:	00001301 	andeq	r1, r0, r1, lsl #6
    1294:	03000d0c 	movweq	r0, #3340	; 0xd0c
    1298:	3b0b3a0e 	blcc	2cfad8 <__bss_end__+0x2c4f60>
    129c:	3813490b 	ldmdacc	r3, {r0, r1, r3, r8, fp, lr}
    12a0:	0d00000b 	stceq	0, cr0, [r0, #-44]	; 0xffffffd4
    12a4:	0b0b000f 	bleq	2c12e8 <__bss_end__+0x2b6770>
    12a8:	0f0e0000 	svceq	0x000e0000
    12ac:	490b0b00 	stmdbmi	fp, {r8, r9, fp}
    12b0:	0f000013 	svceq	0x00000013
    12b4:	0e030113 	mcreq	1, 0, r0, cr3, cr3, {0}
    12b8:	0b3a0b0b 	bleq	e83eec <__bss_end__+0xe79374>
    12bc:	13010b3b 	movwne	r0, #6971	; 0x1b3b
    12c0:	0d100000 	ldceq	0, cr0, [r0, #-0]
    12c4:	3a080300 	bcc	201ecc <__bss_end__+0x1f7354>
    12c8:	490b3b0b 	stmdbmi	fp, {r0, r1, r3, r8, r9, fp, ip, sp}
    12cc:	000b3813 	andeq	r3, fp, r3, lsl r8
    12d0:	01131100 	tsteq	r3, r0, lsl #2
    12d4:	050b0e03 	streq	r0, [fp, #-3587]	; 0xe03
    12d8:	0b3b0b3a 	bleq	ec3fc8 <__bss_end__+0xeb9450>
    12dc:	00001301 	andeq	r1, r0, r1, lsl #6
    12e0:	03000d12 	movweq	r0, #3346	; 0xd12
    12e4:	3b0b3a0e 	blcc	2cfb24 <__bss_end__+0x2c4fac>
    12e8:	3813490b 	ldmdacc	r3, {r0, r1, r3, r8, fp, lr}
    12ec:	13000005 	movwne	r0, #5
    12f0:	19270015 	stmdbne	r7!, {r0, r2, r4}
    12f4:	15140000 	ldrne	r0, [r4, #-0]
    12f8:	49192701 	ldmdbmi	r9, {r0, r8, r9, sl, sp}
    12fc:	00130113 	andseq	r0, r3, r3, lsl r1
    1300:	00051500 	andeq	r1, r5, r0, lsl #10
    1304:	00001349 	andeq	r1, r0, r9, asr #6
    1308:	03011316 	movweq	r1, #4886	; 0x1316
    130c:	3a050b0e 	bcc	143f4c <__bss_end__+0x1393d4>
    1310:	01053b0b 	tsteq	r5, fp, lsl #22
    1314:	17000013 	smladne	r0, r3, r0, r0
    1318:	0e03000d 	cdpeq	0, 0, cr0, cr3, cr13, {0}
    131c:	053b0b3a 	ldreq	r0, [fp, #-2874]!	; 0xb3a
    1320:	0b381349 	bleq	e0604c <__bss_end__+0xdfb4d4>
    1324:	0d180000 	ldceq	0, cr0, [r8, #-0]
    1328:	3a0e0300 	bcc	381f30 <__bss_end__+0x3773b8>
    132c:	49053b0b 	stmdbmi	r5, {r0, r1, r3, r8, r9, fp, ip, sp}
    1330:	00053813 	andeq	r3, r5, r3, lsl r8
    1334:	01131900 	tsteq	r3, r0, lsl #18
    1338:	0b0b0e03 	bleq	2c4b4c <__bss_end__+0x2b9fd4>
    133c:	053b0b3a 	ldreq	r0, [fp, #-2874]!	; 0xb3a
    1340:	00001301 	andeq	r1, r0, r1, lsl #6
    1344:	0b01131a 	bleq	45fb4 <__bss_end__+0x3b43c>
    1348:	3b0b3a0b 	blcc	2cfb7c <__bss_end__+0x2c5004>
    134c:	00130105 	andseq	r0, r3, r5, lsl #2
    1350:	01171b00 	tsteq	r7, r0, lsl #22
    1354:	0b3a0b0b 	bleq	e83f88 <__bss_end__+0xe79410>
    1358:	1301053b 	movwne	r0, #5435	; 0x153b
    135c:	0d1c0000 	ldceq	0, cr0, [ip, #-0]
    1360:	3a0e0300 	bcc	381f68 <__bss_end__+0x3773f0>
    1364:	49053b0b 	stmdbmi	r5, {r0, r1, r3, r8, r9, fp, ip, sp}
    1368:	1d000013 	stcne	0, cr0, [r0, #-76]	; 0xffffffb4
    136c:	19270115 	stmdbne	r7!, {r0, r2, r4, r8}
    1370:	00001301 	andeq	r1, r0, r1, lsl #6
    1374:	0300341e 	movweq	r3, #1054	; 0x41e
    1378:	3b0b3a0e 	blcc	2cfbb8 <__bss_end__+0x2c5040>
    137c:	3f134905 	svccc	0x00134905
    1380:	00193c19 	andseq	r3, r9, r9, lsl ip
    1384:	00341f00 	eorseq	r1, r4, r0, lsl #30
    1388:	0b3a0e03 	bleq	e84b9c <__bss_end__+0xe7a024>
    138c:	13490b3b 	movtne	r0, #39739	; 0x9b3b
    1390:	193c193f 	ldmdbne	ip!, {r0, r1, r2, r3, r4, r5, r8, fp, ip}
    1394:	04200000 	strteq	r0, [r0], #-0
    1398:	490b0b01 	stmdbmi	fp, {r0, r8, r9, fp}
    139c:	3b0b3a13 	blcc	2cfbf0 <__bss_end__+0x2c5078>
    13a0:	0013010b 	andseq	r0, r3, fp, lsl #2
    13a4:	00282100 	eoreq	r2, r8, r0, lsl #2
    13a8:	0b1c0e03 	bleq	704bbc <__bss_end__+0x6fa044>
    13ac:	34220000 	strtcc	r0, [r2], #-0
    13b0:	3a0e0300 	bcc	381fb8 <__bss_end__+0x377440>
    13b4:	490b3b0b 	stmdbmi	fp, {r0, r1, r3, r8, r9, fp, ip, sp}
    13b8:	00061c13 	andeq	r1, r6, r3, lsl ip
    13bc:	012e2300 	teqeq	lr, r0, lsl #6
    13c0:	0e03193f 	mcreq	9, 0, r1, cr3, cr15, {1}
    13c4:	0b3b0b3a 	bleq	ec40b4 <__bss_end__+0xeb953c>
    13c8:	13491927 	movtne	r1, #39207	; 0x9927
    13cc:	06120111 			; <UNDEFINED> instruction: 0x06120111
    13d0:	42971840 	addsmi	r1, r7, #64, 16	; 0x400000
    13d4:	00130119 	andseq	r0, r3, r9, lsl r1
    13d8:	00052400 	andeq	r2, r5, r0, lsl #8
    13dc:	0b3a0803 	bleq	e833f0 <__bss_end__+0xe78878>
    13e0:	13490b3b 	movtne	r0, #39739	; 0x9b3b
    13e4:	00001702 	andeq	r1, r0, r2, lsl #14
    13e8:	03003425 	movweq	r3, #1061	; 0x425
    13ec:	3b0b3a0e 	blcc	2cfc2c <__bss_end__+0x2c50b4>
    13f0:	0213490b 	andseq	r4, r3, #180224	; 0x2c000
    13f4:	26000017 			; <UNDEFINED> instruction: 0x26000017
    13f8:	08030034 	stmdaeq	r3, {r2, r4, r5}
    13fc:	0b3b0b3a 	bleq	ec40ec <__bss_end__+0xeb9574>
    1400:	17021349 	strne	r1, [r2, -r9, asr #6]
    1404:	89270000 	stmdbhi	r7!, {}	; <UNPREDICTABLE>
    1408:	11010182 	smlabbne	r1, r2, r1, r0
    140c:	00133101 	andseq	r3, r3, r1, lsl #2
    1410:	828a2800 	addhi	r2, sl, #0, 16
    1414:	18020001 	stmdane	r2, {r0}
    1418:	00184291 	mulseq	r8, r1, r2
    141c:	012e2900 	teqeq	lr, r0, lsl #18
    1420:	0e03193f 	mcreq	9, 0, r1, cr3, cr15, {1}
    1424:	0b3b0b3a 	bleq	ec4114 <__bss_end__+0xeb959c>
    1428:	01111927 	tsteq	r1, r7, lsr #18
    142c:	18400612 	stmdane	r0, {r1, r4, r9, sl}^
    1430:	01194297 			; <UNDEFINED> instruction: 0x01194297
    1434:	2a000013 	bcs	1488 <__code_start__-0x6b78>
    1438:	01018289 	smlabbeq	r1, r9, r2, r8
    143c:	13310111 	teqne	r1, #1073741828	; 0x40000004
    1440:	00001301 	andeq	r1, r0, r1, lsl #6
    1444:	0182892b 	orreq	r8, r2, fp, lsr #18
    1448:	31011100 	mrscc	r1, (UNDEF: 17)
    144c:	2c000013 	stccs	0, cr0, [r0], {19}
    1450:	0e030005 	cdpeq	0, 0, cr0, cr3, cr5, {0}
    1454:	0b3b0b3a 	bleq	ec4144 <__bss_end__+0xeb95cc>
    1458:	17021349 	strne	r1, [r2, -r9, asr #6]
    145c:	342d0000 	strtcc	r0, [sp], #-0
    1460:	3a080300 	bcc	202068 <__bss_end__+0x1f74f0>
    1464:	490b3b0b 	stmdbmi	fp, {r0, r1, r3, r8, r9, fp, ip, sp}
    1468:	00180213 	andseq	r0, r8, r3, lsl r2
    146c:	002e2e00 	eoreq	r2, lr, r0, lsl #28
    1470:	193c193f 	ldmdbne	ip!, {r0, r1, r2, r3, r4, r5, r8, fp, ip}
    1474:	0e030e6e 	cdpeq	14, 0, cr0, cr3, cr14, {3}
    1478:	0b3b0b3a 	bleq	ec4168 <__bss_end__+0xeb95f0>
    147c:	01000000 	mrseq	r0, (UNDEF: 0)
    1480:	0e250111 	mcreq	1, 1, r0, cr5, cr1, {0}
    1484:	0e030b13 	vmoveq.32	d3[0], r0
    1488:	01110e1b 	tsteq	r1, fp, lsl lr
    148c:	17100612 			; <UNDEFINED> instruction: 0x17100612
    1490:	24020000 	strcs	r0, [r2], #-0
    1494:	3e0b0b00 	vmlacc.f64	d0, d11, d0
    1498:	0008030b 	andeq	r0, r8, fp, lsl #6
    149c:	00240300 	eoreq	r0, r4, r0, lsl #6
    14a0:	0b3e0b0b 	bleq	f840d4 <__bss_end__+0xf7955c>
    14a4:	00000e03 	andeq	r0, r0, r3, lsl #28
    14a8:	03001604 	movweq	r1, #1540	; 0x604
    14ac:	3b0b3a0e 	blcc	2cfcec <__bss_end__+0x2c5174>
    14b0:	0013490b 	andseq	r4, r3, fp, lsl #18
    14b4:	00160500 	andseq	r0, r6, r0, lsl #10
    14b8:	0b3a0e03 	bleq	e84ccc <__bss_end__+0xe7a154>
    14bc:	1349053b 	movtne	r0, #38203	; 0x953b
    14c0:	17060000 	strne	r0, [r6, -r0]
    14c4:	3a0b0b01 	bcc	2c40d0 <__bss_end__+0x2b9558>
    14c8:	010b3b0b 	tsteq	fp, fp, lsl #22
    14cc:	07000013 	smladeq	r0, r3, r0, r0
    14d0:	0e03000d 	cdpeq	0, 0, cr0, cr3, cr13, {0}
    14d4:	0b3b0b3a 	bleq	ec41c4 <__bss_end__+0xeb964c>
    14d8:	00001349 	andeq	r1, r0, r9, asr #6
    14dc:	49010108 	stmdbmi	r1, {r3, r8}
    14e0:	00130113 	andseq	r0, r3, r3, lsl r1
    14e4:	00210900 	eoreq	r0, r1, r0, lsl #18
    14e8:	0b2f1349 	bleq	bc6214 <__bss_end__+0xbbb69c>
    14ec:	130a0000 	movwne	r0, #40960	; 0xa000
    14f0:	3a0b0b01 	bcc	2c40fc <__bss_end__+0x2b9584>
    14f4:	010b3b0b 	tsteq	fp, fp, lsl #22
    14f8:	0b000013 	bleq	154c <__code_start__-0x6ab4>
    14fc:	0e03000d 	cdpeq	0, 0, cr0, cr3, cr13, {0}
    1500:	0b3b0b3a 	bleq	ec41f0 <__bss_end__+0xeb9678>
    1504:	0b381349 	bleq	e06230 <__bss_end__+0xdfb6b8>
    1508:	0f0c0000 	svceq	0x000c0000
    150c:	000b0b00 	andeq	r0, fp, r0, lsl #22
    1510:	000f0d00 	andeq	r0, pc, r0, lsl #26
    1514:	13490b0b 	movtne	r0, #39691	; 0x9b0b
    1518:	260e0000 	strcs	r0, [lr], -r0
    151c:	00134900 	andseq	r4, r3, r0, lsl #18
    1520:	01130f00 	tsteq	r3, r0, lsl #30
    1524:	0b0b0e03 	bleq	2c4d38 <__bss_end__+0x2ba1c0>
    1528:	0b3b0b3a 	bleq	ec4218 <__bss_end__+0xeb96a0>
    152c:	00001301 	andeq	r1, r0, r1, lsl #6
    1530:	03000d10 	movweq	r0, #3344	; 0xd10
    1534:	3b0b3a08 	blcc	2cfd5c <__bss_end__+0x2c51e4>
    1538:	3813490b 	ldmdacc	r3, {r0, r1, r3, r8, fp, lr}
    153c:	1100000b 	tstne	r0, fp
    1540:	0e030113 	mcreq	1, 0, r0, cr3, cr3, {0}
    1544:	0b3a050b 	bleq	e82978 <__bss_end__+0xe77e00>
    1548:	13010b3b 	movwne	r0, #6971	; 0x1b3b
    154c:	0d120000 	ldceq	0, cr0, [r2, #-0]
    1550:	3a0e0300 	bcc	382158 <__bss_end__+0x3775e0>
    1554:	490b3b0b 	stmdbmi	fp, {r0, r1, r3, r8, r9, fp, ip, sp}
    1558:	00053813 	andeq	r3, r5, r3, lsl r8
    155c:	00151300 	andseq	r1, r5, r0, lsl #6
    1560:	00001927 	andeq	r1, r0, r7, lsr #18
    1564:	27011514 	smladcs	r1, r4, r5, r1
    1568:	01134919 	tsteq	r3, r9, lsl r9
    156c:	15000013 	strne	r0, [r0, #-19]
    1570:	13490005 	movtne	r0, #36869	; 0x9005
    1574:	13160000 	tstne	r6, #0
    1578:	0b0e0301 	bleq	382184 <__bss_end__+0x37760c>
    157c:	3b0b3a05 	blcc	2cfd98 <__bss_end__+0x2c5220>
    1580:	00130105 	andseq	r0, r3, r5, lsl #2
    1584:	000d1700 	andeq	r1, sp, r0, lsl #14
    1588:	0b3a0e03 	bleq	e84d9c <__bss_end__+0xe7a224>
    158c:	1349053b 	movtne	r0, #38203	; 0x953b
    1590:	00000b38 	andeq	r0, r0, r8, lsr fp
    1594:	03000d18 	movweq	r0, #3352	; 0xd18
    1598:	3b0b3a0e 	blcc	2cfdd8 <__bss_end__+0x2c5260>
    159c:	38134905 	ldmdacc	r3, {r0, r2, r8, fp, lr}
    15a0:	19000005 	stmdbne	r0, {r0, r2}
    15a4:	0e030113 	mcreq	1, 0, r0, cr3, cr3, {0}
    15a8:	0b3a0b0b 	bleq	e841dc <__bss_end__+0xe79664>
    15ac:	1301053b 	movwne	r0, #5435	; 0x153b
    15b0:	131a0000 	tstne	sl, #0
    15b4:	3a0b0b01 	bcc	2c41c0 <__bss_end__+0x2b9648>
    15b8:	01053b0b 	tsteq	r5, fp, lsl #22
    15bc:	1b000013 	blne	1610 <__code_start__-0x69f0>
    15c0:	0b0b0117 	bleq	2c1a24 <__bss_end__+0x2b6eac>
    15c4:	053b0b3a 	ldreq	r0, [fp, #-2874]!	; 0xb3a
    15c8:	00001301 	andeq	r1, r0, r1, lsl #6
    15cc:	03000d1c 	movweq	r0, #3356	; 0xd1c
    15d0:	3b0b3a0e 	blcc	2cfe10 <__bss_end__+0x2c5298>
    15d4:	00134905 	andseq	r4, r3, r5, lsl #18
    15d8:	01151d00 	tsteq	r5, r0, lsl #26
    15dc:	13011927 	movwne	r1, #6439	; 0x1927
    15e0:	341e0000 	ldrcc	r0, [lr], #-0
    15e4:	3a0e0300 	bcc	3821ec <__bss_end__+0x377674>
    15e8:	49053b0b 	stmdbmi	r5, {r0, r1, r3, r8, r9, fp, ip, sp}
    15ec:	3c193f13 	ldccc	15, cr3, [r9], {19}
    15f0:	1f000019 	svcne	0x00000019
    15f4:	0e030034 	mcreq	0, 0, r0, cr3, cr4, {1}
    15f8:	0b3b0b3a 	bleq	ec42e8 <__bss_end__+0xeb9770>
    15fc:	193f1349 	ldmdbne	pc!, {r0, r3, r6, r8, r9, ip}	; <UNPREDICTABLE>
    1600:	0000193c 	andeq	r1, r0, ip, lsr r9
    1604:	03003420 	movweq	r3, #1056	; 0x420
    1608:	3b0b3a0e 	blcc	2cfe48 <__bss_end__+0x2c52d0>
    160c:	0213490b 	andseq	r4, r3, #180224	; 0x2c000
    1610:	21000018 	tstcs	r0, r8, lsl r0
    1614:	193f012e 	ldmdbne	pc!, {r1, r2, r3, r5, r8}	; <UNPREDICTABLE>
    1618:	0b3a0e03 	bleq	e84e2c <__bss_end__+0xe7a2b4>
    161c:	19270b3b 	stmdbne	r7!, {r0, r1, r3, r4, r5, r8, r9, fp}
    1620:	06120111 			; <UNDEFINED> instruction: 0x06120111
    1624:	42971840 	addsmi	r1, r7, #64, 16	; 0x400000
    1628:	00130119 	andseq	r0, r3, r9, lsl r1
    162c:	00052200 	andeq	r2, r5, r0, lsl #4
    1630:	0b3a0803 	bleq	e83644 <__bss_end__+0xe78acc>
    1634:	13490b3b 	movtne	r0, #39739	; 0x9b3b
    1638:	00001802 	andeq	r1, r0, r2, lsl #16
    163c:	3f002e23 	svccc	0x00002e23
    1640:	3a0e0319 	bcc	3822ac <__bss_end__+0x377734>
    1644:	270b3b0b 	strcs	r3, [fp, -fp, lsl #22]
    1648:	12011119 	andne	r1, r1, #1073741830	; 0x40000006
    164c:	97184006 	ldrls	r4, [r8, -r6]
    1650:	00001942 	andeq	r1, r0, r2, asr #18
    1654:	3f012e24 	svccc	0x00012e24
    1658:	3a0e0319 	bcc	3822c4 <__bss_end__+0x37774c>
    165c:	270b3b0b 	strcs	r3, [fp, -fp, lsl #22]
    1660:	11134919 	tstne	r3, r9, lsl r9
    1664:	40061201 	andmi	r1, r6, r1, lsl #4
    1668:	19429718 	stmdbne	r2, {r3, r4, r8, r9, sl, ip, pc}^
    166c:	00001301 	andeq	r1, r0, r1, lsl #6
    1670:	03000525 	movweq	r0, #1317	; 0x525
    1674:	3b0b3a0e 	blcc	2cfeb4 <__bss_end__+0x2c533c>
    1678:	0213490b 	andseq	r4, r3, #180224	; 0x2c000
    167c:	26000017 			; <UNDEFINED> instruction: 0x26000017
    1680:	0e030034 	mcreq	0, 0, r0, cr3, cr4, {1}
    1684:	19341349 	ldmdbne	r4!, {r0, r3, r6, r8, r9, ip}
    1688:	00001802 	andeq	r1, r0, r2, lsl #16
    168c:	03003427 	movweq	r3, #1063	; 0x427
    1690:	3b0b3a08 	blcc	2cfeb8 <__bss_end__+0x2c5340>
    1694:	0213490b 	andseq	r4, r3, #180224	; 0x2c000
    1698:	28000017 	stmdacs	r0, {r0, r1, r2, r4}
    169c:	01018289 	smlabbeq	r1, r9, r2, r8
    16a0:	13310111 	teqne	r1, #1073741828	; 0x40000004
    16a4:	00001301 	andeq	r1, r0, r1, lsl #6
    16a8:	01828a29 	orreq	r8, r2, r9, lsr #20
    16ac:	91180200 	tstls	r8, r0, lsl #4
    16b0:	00001842 	andeq	r1, r0, r2, asr #16
    16b4:	0182892a 	orreq	r8, r2, sl, lsr #18
    16b8:	31011100 	mrscc	r1, (UNDEF: 17)
    16bc:	2b000013 	blcs	1710 <__code_start__-0x68f0>
    16c0:	08030005 	stmdaeq	r3, {r0, r2}
    16c4:	0b3b0b3a 	bleq	ec43b4 <__bss_end__+0xeb983c>
    16c8:	17021349 	strne	r1, [r2, -r9, asr #6]
    16cc:	342c0000 	strtcc	r0, [ip], #-0
    16d0:	3a0e0300 	bcc	3822d8 <__bss_end__+0x377760>
    16d4:	490b3b0b 	stmdbmi	fp, {r0, r1, r3, r8, r9, fp, ip, sp}
    16d8:	00170213 	andseq	r0, r7, r3, lsl r2
    16dc:	002e2d00 	eoreq	r2, lr, r0, lsl #26
    16e0:	0e03193f 	mcreq	9, 0, r1, cr3, cr15, {1}
    16e4:	0b3b0b3a 	bleq	ec43d4 <__bss_end__+0xeb985c>
    16e8:	13491927 	movtne	r1, #39207	; 0x9927
    16ec:	06120111 			; <UNDEFINED> instruction: 0x06120111
    16f0:	42971840 	addsmi	r1, r7, #64, 16	; 0x400000
    16f4:	2e000019 	mcrcs	0, 0, r0, cr0, cr9, {0}
    16f8:	193f002e 	ldmdbne	pc!, {r1, r2, r3, r5}	; <UNPREDICTABLE>
    16fc:	0e6e193c 	mcreq	9, 3, r1, cr14, cr12, {1}
    1700:	0b3a0e03 	bleq	e84f14 <__bss_end__+0xe7a39c>
    1704:	00000b3b 	andeq	r0, r0, fp, lsr fp
	...

Disassembly of section .debug_loc:

00000000 <.debug_loc>:
       0:	00000004 	andeq	r0, r0, r4
       4:	00000024 	andeq	r0, r0, r4, lsr #32
       8:	9f300002 	svcls	0x00300002
       c:	00000024 	andeq	r0, r0, r4, lsr #32
      10:	00000050 	andeq	r0, r0, r0, asr r0
      14:	50560001 	subspl	r0, r6, r1
      18:	58000000 	stmdapl	r0, {}	; <UNPREDICTABLE>
      1c:	01000000 	mrseq	r0, (UNDEF: 0)
      20:	00585400 	subseq	r5, r8, r0, lsl #8
      24:	00740000 	rsbseq	r0, r4, r0
      28:	00010000 	andeq	r0, r1, r0
      2c:	00000056 	andeq	r0, r0, r6, asr r0
      30:	00000000 	andeq	r0, r0, r0
      34:	00000400 	andeq	r0, r0, r0, lsl #8
      38:	00002400 	andeq	r2, r0, r0, lsl #8
      3c:	30000200 	andcc	r0, r0, r0, lsl #4
      40:	0000249f 	muleq	r0, pc, r4	; <UNPREDICTABLE>
      44:	00007400 	andeq	r7, r0, r0, lsl #8
      48:	55000100 	strpl	r0, [r0, #-256]	; 0x100
	...
      54:	0000003c 	andeq	r0, r0, ip, lsr r0
      58:	00000047 	andeq	r0, r0, r7, asr #32
      5c:	47500001 	ldrbmi	r0, [r0, -r1]
      60:	58000000 	stmdapl	r0, {}	; <UNPREDICTABLE>
      64:	01000000 	mrseq	r0, (UNDEF: 0)
      68:	00005400 	andeq	r5, r0, r0, lsl #8
	...
      74:	00300000 	eorseq	r0, r0, r0
      78:	00010000 	andeq	r0, r1, r0
      7c:	00003050 	andeq	r3, r0, r0, asr r0
      80:	0000d000 	andeq	sp, r0, r0
      84:	55000100 	strpl	r0, [r0, #-256]	; 0x100
      88:	000000d0 	ldrdeq	r0, [r0], -r0	; <UNPREDICTABLE>
      8c:	000000e0 	andeq	r0, r0, r0, ror #1
      90:	e0500001 	subs	r0, r0, r1
      94:	00000000 	andeq	r0, r0, r0
      98:	01000001 	tsteq	r0, r1
      9c:	00005500 	andeq	r5, r0, r0, lsl #10
	...
      a8:	00330000 	eorseq	r0, r3, r0
      ac:	00010000 	andeq	r0, r1, r0
      b0:	00003351 	andeq	r3, r0, r1, asr r3
      b4:	0000d000 	andeq	sp, r0, r0
      b8:	f3000400 	vshl.u8	d0, d0, d0
      bc:	d09f5101 	addsle	r5, pc, r1, lsl #2
      c0:	00000000 	andeq	r0, r0, r0
      c4:	01000001 	tsteq	r0, r1
      c8:	00005100 	andeq	r5, r0, r0, lsl #2
	...
      d4:	00330000 	eorseq	r0, r3, r0
      d8:	00010000 	andeq	r0, r1, r0
      dc:	00003352 	andeq	r3, r0, r2, asr r3
      e0:	0000d000 	andeq	sp, r0, r0
      e4:	f3000400 	vshl.u8	d0, d0, d0
      e8:	d09f5201 	addsle	r5, pc, r1, lsl #4
      ec:	00000000 	andeq	r0, r0, r0
      f0:	01000001 	tsteq	r0, r1
      f4:	00005200 	andeq	r5, r0, r0, lsl #4
      f8:	00000000 	andeq	r0, r0, r0
      fc:	00080000 	andeq	r0, r8, r0
     100:	00100000 	andseq	r0, r0, r0
     104:	00020000 	andeq	r0, r2, r0
     108:	00109f30 	andseq	r9, r0, r0, lsr pc
     10c:	00330000 	eorseq	r0, r3, r0
     110:	00010000 	andeq	r0, r1, r0
     114:	0000d053 	andeq	sp, r0, r3, asr r0
     118:	00010000 	andeq	r0, r1, r0
     11c:	53000100 	movwpl	r0, #256	; 0x100
	...
     128:	00000028 	andeq	r0, r0, r8, lsr #32
     12c:	000000d0 	ldrdeq	r0, [r0], -r0	; <UNPREDICTABLE>
     130:	00580001 	subseq	r0, r8, r1
     134:	00000000 	andeq	r0, r0, r0
     138:	4c000000 	stcmi	0, cr0, [r0], {-0}
     13c:	d0000000 	andle	r0, r0, r0
     140:	01000000 	mrseq	r0, (UNDEF: 0)
     144:	00005500 	andeq	r5, r0, r0, lsl #10
     148:	00000000 	andeq	r0, r0, r0
     14c:	00600000 	rsbeq	r0, r0, r0
     150:	00880000 	addeq	r0, r8, r0
     154:	00030000 	andeq	r0, r3, r0
     158:	889f1075 	ldmhi	pc, {r0, r2, r4, r5, r6, ip}	; <UNPREDICTABLE>
     15c:	d0000000 	andle	r0, r0, r0
     160:	03000000 	movweq	r0, #0
     164:	9f1c7500 	svcls	0x001c7500
	...
     170:	00000100 	andeq	r0, r0, r0, lsl #2
     174:	0000010f 	andeq	r0, r0, pc, lsl #2
     178:	0f500001 	svceq	0x00500001
     17c:	14000001 	strne	r0, [r0], #-1
     180:	04000001 	streq	r0, [r0], #-1
     184:	5001f300 	andpl	pc, r1, r0, lsl #6
     188:	0000009f 	muleq	r0, pc, r0	; <UNPREDICTABLE>
     18c:	00000000 	andeq	r0, r0, r0
     190:	00010000 	andeq	r0, r1, r0
     194:	00010c00 	andeq	r0, r1, r0, lsl #24
     198:	51000100 	mrspl	r0, (UNDEF: 16)
     19c:	0000010c 	andeq	r0, r0, ip, lsl #2
     1a0:	0000010f 	andeq	r0, r0, pc, lsl #2
     1a4:	0f520001 	svceq	0x00520001
     1a8:	14000001 	strne	r0, [r0], #-1
     1ac:	04000001 	streq	r0, [r0], #-1
     1b0:	5101f300 	mrspl	pc, SP_irq	; <UNPREDICTABLE>
     1b4:	0000009f 	muleq	r0, pc, r0	; <UNPREDICTABLE>
     1b8:	00000000 	andeq	r0, r0, r0
     1bc:	00011400 	andeq	r1, r1, r0, lsl #8
     1c0:	00014700 	andeq	r4, r1, r0, lsl #14
     1c4:	50000100 	andpl	r0, r0, r0, lsl #2
     1c8:	00000147 	andeq	r0, r0, r7, asr #2
     1cc:	0000015c 	andeq	r0, r0, ip, asr r1
     1d0:	00540001 	subseq	r0, r4, r1
     1d4:	00000000 	andeq	r0, r0, r0
     1d8:	5c000000 	stcpl	0, cr0, [r0], {-0}
     1dc:	67000001 	strvs	r0, [r0, -r1]
     1e0:	01000001 	tsteq	r0, r1
     1e4:	01675000 	cmneq	r7, r0
     1e8:	01d40000 	bicseq	r0, r4, r0
     1ec:	00010000 	andeq	r0, r1, r0
     1f0:	00000054 	andeq	r0, r0, r4, asr r0
     1f4:	00000000 	andeq	r0, r0, r0
     1f8:	00016800 	andeq	r6, r1, r0, lsl #16
     1fc:	00017700 	andeq	r7, r1, r0, lsl #14
     200:	50000100 	andpl	r0, r0, r0, lsl #2
     204:	00000190 	muleq	r0, r0, r1
     208:	000001a3 	andeq	r0, r0, r3, lsr #3
     20c:	bc500001 	mrrclt	0, 0, r0, r0, cr1	; <UNPREDICTABLE>
     210:	c0000001 	andgt	r0, r0, r1
     214:	01000001 	tsteq	r0, r1
     218:	00005000 	andeq	r5, r0, r0
     21c:	00000000 	andeq	r0, r0, r0
     220:	01d40000 	bicseq	r0, r4, r0
     224:	01df0000 	bicseq	r0, pc, r0
     228:	00010000 	andeq	r0, r1, r0
     22c:	0001df50 	andeq	sp, r1, r0, asr pc
     230:	00024400 	andeq	r4, r2, r0, lsl #8
     234:	54000100 	strpl	r0, [r0], #-256	; 0x100
	...
     240:	00000200 	andeq	r0, r0, r0, lsl #4
     244:	0000022c 	andeq	r0, r0, ip, lsr #4
     248:	3c540001 	mrrccc	0, 0, r0, r4, cr1
     24c:	44000002 	strmi	r0, [r0], #-2
     250:	01000002 	tsteq	r0, r2
     254:	00005400 	andeq	r5, r0, r0, lsl #8
     258:	00000000 	andeq	r0, r0, r0
     25c:	02080000 	andeq	r0, r8, #0
     260:	022c0000 	eoreq	r0, ip, #0
     264:	00010000 	andeq	r0, r1, r0
     268:	00023c54 	andeq	r3, r2, r4, asr ip
     26c:	00024400 	andeq	r4, r2, r0, lsl #8
     270:	54000100 	strpl	r0, [r0], #-256	; 0x100
	...
     27c:	00000244 	andeq	r0, r0, r4, asr #4
     280:	00000263 	andeq	r0, r0, r3, ror #4
     284:	63500001 	cmpvs	r0, #1
     288:	7c000002 	stcvc	0, cr0, [r0], {2}
     28c:	01000002 	tsteq	r0, r2
     290:	027c5400 	rsbseq	r5, ip, #0, 8
     294:	02800000 	addeq	r0, r0, #0
     298:	00010000 	andeq	r0, r1, r0
     29c:	00028050 	andeq	r8, r2, r0, asr r0
     2a0:	0002cc00 	andeq	ip, r2, r0, lsl #24
     2a4:	54000100 	strpl	r0, [r0], #-256	; 0x100
	...
     2b0:	00000244 	andeq	r0, r0, r4, asr #4
     2b4:	00000263 	andeq	r0, r0, r3, ror #4
     2b8:	63510001 	cmpvs	r1, #1
     2bc:	7c000002 	stcvc	0, cr0, [r0], {2}
     2c0:	01000002 	tsteq	r0, r2
     2c4:	027c5500 	rsbseq	r5, ip, #0, 10
     2c8:	02840000 	addeq	r0, r4, #0
     2cc:	00010000 	andeq	r0, r1, r0
     2d0:	00028451 	andeq	r8, r2, r1, asr r4
     2d4:	00029c00 	andeq	r9, r2, r0, lsl #24
     2d8:	55000100 	strpl	r0, [r0, #-256]	; 0x100
     2dc:	0000029c 	muleq	r0, ip, r2
     2e0:	000002cc 	andeq	r0, r0, ip, asr #5
     2e4:	01f30004 	mvnseq	r0, r4
     2e8:	00009f51 	andeq	r9, r0, r1, asr pc
     2ec:	00000000 	andeq	r0, r0, r0
     2f0:	02cc0000 	sbceq	r0, ip, #0
     2f4:	02e40000 	rsceq	r0, r4, #0
     2f8:	00010000 	andeq	r0, r1, r0
     2fc:	0002e450 	andeq	lr, r2, r0, asr r4
     300:	00039c00 	andeq	r9, r3, r0, lsl #24
     304:	54000100 	strpl	r0, [r0], #-256	; 0x100
	...
     310:	000002cc 	andeq	r0, r0, ip, asr #5
     314:	000002f3 	strdeq	r0, [r0], -r3
     318:	f3510001 	vhadd.u16	d16, d1, d1
     31c:	0c000002 	stceq	0, cr0, [r0], {2}
     320:	01000003 	tsteq	r0, r3
     324:	030c5800 	movweq	r5, #51200	; 0xc800
     328:	03130000 	tsteq	r3, #0
     32c:	00010000 	andeq	r0, r1, r0
     330:	00031351 	andeq	r1, r3, r1, asr r3
     334:	00039c00 	andeq	r9, r3, r0, lsl #24
     338:	58000100 	stmdapl	r0, {r8}
	...
     344:	000002cc 	andeq	r0, r0, ip, asr #5
     348:	000002f3 	strdeq	r0, [r0], -r3
     34c:	f3520001 	vhadd.u16	d16, d2, d1
     350:	0c000002 	stceq	0, cr0, [r0], {2}
     354:	01000003 	tsteq	r0, r3
     358:	030c5700 	movweq	r5, #50944	; 0xc700
     35c:	03130000 	tsteq	r3, #0
     360:	00010000 	andeq	r0, r1, r0
     364:	00031352 	andeq	r1, r3, r2, asr r3
     368:	00039c00 	andeq	r9, r3, r0, lsl #24
     36c:	57000100 	strpl	r0, [r0, -r0, lsl #2]
	...
     378:	000002cc 	andeq	r0, r0, ip, asr #5
     37c:	000002f3 	strdeq	r0, [r0], -r3
     380:	f3530001 	vhadd.u16	d16, d3, d1
     384:	0c000002 	stceq	0, cr0, [r0], {2}
     388:	01000003 	tsteq	r0, r3
     38c:	030c5600 	movweq	r5, #50688	; 0xc600
     390:	03130000 	tsteq	r3, #0
     394:	00010000 	andeq	r0, r1, r0
     398:	00031353 	andeq	r1, r3, r3, asr r3
     39c:	00039c00 	andeq	r9, r3, r0, lsl #24
     3a0:	56000100 	strpl	r0, [r0], -r0, lsl #2
	...
     3ac:	000002e0 	andeq	r0, r0, r0, ror #5
     3b0:	00000324 	andeq	r0, r0, r4, lsr #6
     3b4:	9f300002 	svcls	0x00300002
	...
     3c0:	0000039c 	muleq	r0, ip, r3
     3c4:	000003c7 	andeq	r0, r0, r7, asr #7
     3c8:	c7500001 	ldrbgt	r0, [r0, -r1]
     3cc:	e0000003 	and	r0, r0, r3
     3d0:	01000003 	tsteq	r0, r3
     3d4:	03e05500 	mvneq	r5, #0, 10
     3d8:	03e40000 	mvneq	r0, #0
     3dc:	00010000 	andeq	r0, r1, r0
     3e0:	0003e450 	andeq	lr, r3, r0, asr r4
     3e4:	00059000 	andeq	r9, r5, r0
     3e8:	55000100 	strpl	r0, [r0, #-256]	; 0x100
     3ec:	00000590 	muleq	r0, r0, r5
     3f0:	000005c8 	andeq	r0, r0, r8, asr #11
     3f4:	01f30004 	mvnseq	r0, r4
     3f8:	00009f50 	andeq	r9, r0, r0, asr pc
     3fc:	00000000 	andeq	r0, r0, r0
     400:	039c0000 	orrseq	r0, ip, #0
     404:	03c70000 	biceq	r0, r7, #0
     408:	00010000 	andeq	r0, r1, r0
     40c:	0003c751 	andeq	ip, r3, r1, asr r7
     410:	0003e000 	andeq	lr, r3, r0
     414:	59000100 	stmdbpl	r0, {r8}
     418:	000003e0 	andeq	r0, r0, r0, ror #7
     41c:	000003e7 	andeq	r0, r0, r7, ror #7
     420:	e7510001 	ldrb	r0, [r1, -r1]
     424:	90000003 	andls	r0, r0, r3
     428:	01000005 	tsteq	r0, r5
     42c:	05905900 	ldreq	r5, [r0, #2304]	; 0x900
     430:	05c80000 	strbeq	r0, [r8]
     434:	00040000 	andeq	r0, r4, r0
     438:	9f5101f3 	svcls	0x005101f3
	...
     444:	0000039c 	muleq	r0, ip, r3
     448:	000003c7 	andeq	r0, r0, r7, asr #7
     44c:	c7520001 	ldrbgt	r0, [r2, -r1]
     450:	e0000003 	and	r0, r0, r3
     454:	01000003 	tsteq	r0, r3
     458:	03e05800 	mvneq	r5, #0, 16
     45c:	03e70000 	mvneq	r0, #0
     460:	00010000 	andeq	r0, r1, r0
     464:	0003e752 	andeq	lr, r3, r2, asr r7
     468:	00059000 	andeq	r9, r5, r0
     46c:	58000100 	stmdapl	r0, {r8}
     470:	00000590 	muleq	r0, r0, r5
     474:	000005c8 	andeq	r0, r0, r8, asr #11
     478:	01f30004 	mvnseq	r0, r4
     47c:	00009f52 	andeq	r9, r0, r2, asr pc
     480:	00000000 	andeq	r0, r0, r0
     484:	039c0000 	orrseq	r0, ip, #0
     488:	03b80000 			; <UNDEFINED> instruction: 0x03b80000
     48c:	00010000 	andeq	r0, r1, r0
     490:	0003b853 	andeq	fp, r3, r3, asr r8
     494:	0004fc00 	andeq	pc, r4, r0, lsl #24
     498:	57000100 	strpl	r0, [r0, -r0, lsl #2]
     49c:	000004fc 	strdeq	r0, [r0], -ip
     4a0:	000005c8 	andeq	r0, r0, r8, asr #11
     4a4:	01f30004 	mvnseq	r0, r4
     4a8:	00009f53 	andeq	r9, r0, r3, asr pc
     4ac:	00000000 	andeq	r0, r0, r0
     4b0:	03b40000 			; <UNDEFINED> instruction: 0x03b40000
     4b4:	04a80000 	strteq	r0, [r8], #0
     4b8:	00020000 	andeq	r0, r2, r0
     4bc:	04a89f30 	strteq	r9, [r8], #3888	; 0xf30
     4c0:	05900000 	ldreq	r0, [r0]
     4c4:	00010000 	andeq	r0, r1, r0
     4c8:	00059054 	andeq	r9, r5, r4, asr r0
     4cc:	0005c800 	andeq	ip, r5, r0, lsl #16
     4d0:	70000400 	andvc	r0, r0, r0, lsl #8
     4d4:	009f7ec8 	addseq	r7, pc, r8, asr #29
     4d8:	00000000 	andeq	r0, r0, r0
     4dc:	b4000000 	strlt	r0, [r0], #-0
     4e0:	10000003 	andne	r0, r0, r3
     4e4:	02000005 	andeq	r0, r0, #5
     4e8:	009f3000 	addseq	r3, pc, r0
     4ec:	00000000 	andeq	r0, r0, r0
     4f0:	fc000000 	stc2	0, cr0, [r0], {-0}
     4f4:	0f000003 	svceq	0x00000003
     4f8:	01000004 	tsteq	r0, r4
     4fc:	040f5200 	streq	r5, [pc], #-512	; 504 <__code_start__-0x7afc>
     500:	043c0000 	ldrteq	r0, [ip], #-0
     504:	00040000 	andeq	r0, r4, r0
     508:	9f7dc876 	svcls	0x007dc876
     50c:	0000043c 	andeq	r0, r0, ip, lsr r4
     510:	0000045b 	andeq	r0, r0, fp, asr r4
     514:	5b520001 	blpl	1480520 <__bss_end__+0x14759a8>
     518:	a8000004 	stmdage	r0, {r2}
     51c:	04000004 	streq	r0, [r0], #-4
     520:	7dc87600 	stclvc	6, cr7, [r8]
     524:	0004a89f 	muleq	r4, pc, r8	; <UNPREDICTABLE>
     528:	0004b800 	andeq	fp, r4, r0, lsl #16
     52c:	52000100 	andpl	r0, r0, #0, 2
     530:	000004b8 			; <UNDEFINED> instruction: 0x000004b8
     534:	00000590 	muleq	r0, r0, r5
     538:	c8760004 	ldmdagt	r6!, {r2}^
     53c:	05909f7d 	ldreq	r9, [r0, #3965]	; 0xf7d
     540:	05c80000 	strbeq	r0, [r8]
     544:	00090000 	andeq	r0, r9, r0
     548:	235001f3 	cmpcs	r0, #-1073741764	; 0xc000003c
     54c:	1af80907 	bne	ffe02970 <__bss_end__+0xffdf7df8>
     550:	0000009f 	muleq	r0, pc, r0	; <UNPREDICTABLE>
     554:	00000000 	andeq	r0, r0, r0
     558:	00040000 	andeq	r0, r4, r0
     55c:	00059000 	andeq	r9, r5, r0
     560:	56000100 	strpl	r0, [r0], -r0, lsl #2
     564:	00000590 	muleq	r0, r0, r5
     568:	000005c8 	andeq	r0, r0, r8, asr #11
     56c:	01f3000c 	mvnseq	r0, ip
     570:	09072350 	stmdbeq	r7, {r4, r6, r8, r9, sp}
     574:	b8231af8 	stmdalt	r3!, {r3, r4, r5, r6, r7, r9, fp, ip}
     578:	00009f02 	andeq	r9, r0, r2, lsl #30
     57c:	00000000 	andeq	r0, r0, r0
     580:	04f80000 	ldrbteq	r0, [r8], #0
     584:	05900000 	ldreq	r0, [r0]
     588:	00010000 	andeq	r0, r1, r0
     58c:	00059054 	andeq	r9, r5, r4, asr r0
     590:	0005c800 	andeq	ip, r5, r0, lsl #16
     594:	70000400 	andvc	r0, r0, r0, lsl #8
     598:	009f7ec8 	addseq	r7, pc, r8, asr #29
	...
     5a4:	90000005 	andls	r0, r0, r5
     5a8:	01000005 	tsteq	r0, r5
     5ac:	05905400 	ldreq	r5, [r0, #1024]	; 0x400
     5b0:	05c80000 	strbeq	r0, [r8]
     5b4:	00040000 	andeq	r0, r4, r0
     5b8:	9f7ec870 	svcls	0x007ec870
	...
     5c4:	000005dc 	ldrdeq	r0, [r0], -ip
     5c8:	00000608 	andeq	r0, r0, r8, lsl #12
     5cc:	00560001 	subseq	r0, r6, r1
     5d0:	00000000 	andeq	r0, r0, r0
     5d4:	e4000000 	str	r0, [r0], #-0
     5d8:	04000005 	streq	r0, [r0], #-5
     5dc:	01000006 	tsteq	r0, r6
     5e0:	00005500 	andeq	r5, r0, r0, lsl #10
     5e4:	00000000 	andeq	r0, r0, r0
     5e8:	05fc0000 	ldrbeq	r0, [ip, #0]!
     5ec:	06180000 	ldreq	r0, [r8], -r0
     5f0:	00020000 	andeq	r0, r2, r0
     5f4:	06189f30 	sasxeq	r9, r8, r0
     5f8:	07380000 	ldreq	r0, [r8, -r0]!
     5fc:	00010000 	andeq	r0, r1, r0
     600:	00000056 	andeq	r0, r0, r6, asr r0
     604:	00000000 	andeq	r0, r0, r0
     608:	0005fc00 	andeq	pc, r5, r0, lsl #24
     60c:	00061800 	andeq	r1, r6, r0, lsl #16
     610:	30000200 	andcc	r0, r0, r0, lsl #4
     614:	0006189f 	muleq	r6, pc, r8	; <UNPREDICTABLE>
     618:	00073800 	andeq	r3, r7, r0, lsl #16
     61c:	55000100 	strpl	r0, [r0, #-256]	; 0x100
	...
     628:	0000063c 	andeq	r0, r0, ip, lsr r6
     62c:	000006c0 	andeq	r0, r0, r0, asr #13
     630:	00540001 	subseq	r0, r4, r1
     634:	00000000 	andeq	r0, r0, r0
     638:	88000000 	stmdahi	r0, {}	; <UNPREDICTABLE>
     63c:	b7000007 	strlt	r0, [r0, -r7]
     640:	01000007 	tsteq	r0, r7
     644:	07b75000 	ldreq	r5, [r7, r0]!
     648:	07d00000 	ldrbeq	r0, [r0, r0]
     64c:	00040000 	andeq	r0, r4, r0
     650:	9f5001f3 	svcls	0x005001f3
     654:	000007d0 	ldrdeq	r0, [r0], -r0	; <UNPREDICTABLE>
     658:	000007d4 	ldrdeq	r0, [r0], -r4
     65c:	d4500001 	ldrble	r0, [r0], #-1
     660:	fc000007 	stc2	0, cr0, [r0], {7}
     664:	04000007 	streq	r0, [r0], #-7
     668:	5001f300 	andpl	pc, r1, r0, lsl #6
     66c:	0007fc9f 	muleq	r7, pc, ip	; <UNPREDICTABLE>
     670:	00080000 	andeq	r0, r8, r0
     674:	50000100 	andpl	r0, r0, r0, lsl #2
     678:	00000800 	andeq	r0, r0, r0, lsl #16
     67c:	00000820 	andeq	r0, r0, r0, lsr #16
     680:	01f30004 	mvnseq	r0, r4
     684:	00009f50 	andeq	r9, r0, r0, asr pc
     688:	00000000 	andeq	r0, r0, r0
     68c:	078c0000 	streq	r0, [ip, r0]
     690:	07b70000 	ldreq	r0, [r7, r0]!
     694:	00010000 	andeq	r0, r1, r0
     698:	0007b750 	andeq	fp, r7, r0, asr r7
     69c:	0007d000 	andeq	sp, r7, r0
     6a0:	f3000400 	vshl.u8	d0, d0, d0
     6a4:	d09f5001 	addsle	r5, pc, r1
     6a8:	d4000007 	strle	r0, [r0], #-7
     6ac:	01000007 	tsteq	r0, r7
     6b0:	07d45000 	ldrbeq	r5, [r4, r0]
     6b4:	07fc0000 	ldrbeq	r0, [ip, r0]!
     6b8:	00040000 	andeq	r0, r4, r0
     6bc:	9f5001f3 	svcls	0x005001f3
     6c0:	000007fc 	strdeq	r0, [r0], -ip
     6c4:	00000800 	andeq	r0, r0, r0, lsl #16
     6c8:	00500001 	subseq	r0, r0, r1
     6cc:	20000008 	andcs	r0, r0, r8
     6d0:	04000008 	streq	r0, [r0], #-8
     6d4:	5001f300 	andpl	pc, r1, r0, lsl #6
     6d8:	0000009f 	muleq	r0, pc, r0	; <UNPREDICTABLE>
	...
     6e4:	00002400 	andeq	r2, r0, r0, lsl #8
     6e8:	50000100 	andpl	r0, r0, r0, lsl #2
     6ec:	00000024 	andeq	r0, r0, r4, lsr #32
     6f0:	00000028 	andeq	r0, r0, r8, lsr #32
     6f4:	01f30004 	mvnseq	r0, r4
     6f8:	00289f50 	eoreq	r9, r8, r0, asr pc
     6fc:	002c0000 	eoreq	r0, ip, r0
     700:	00010000 	andeq	r0, r1, r0
     704:	00002c50 	andeq	r2, r0, r0, asr ip
     708:	00003000 	andeq	r3, r0, r0
     70c:	f3000400 	vshl.u8	d0, d0, d0
     710:	309f5001 	addscc	r5, pc, r1
     714:	34000000 	strcc	r0, [r0], #-0
     718:	01000000 	mrseq	r0, (UNDEF: 0)
     71c:	00345000 	eorseq	r5, r4, r0
     720:	003c0000 	eorseq	r0, ip, r0
     724:	00040000 	andeq	r0, r4, r0
     728:	9f5001f3 	svcls	0x005001f3
	...
     734:	0000003c 	andeq	r0, r0, ip, lsr r0
     738:	00000047 	andeq	r0, r0, r7, asr #32
     73c:	47500001 	ldrbmi	r0, [r0, -r1]
     740:	b4000000 	strlt	r0, [r0], #-0
     744:	01000000 	mrseq	r0, (UNDEF: 0)
     748:	00005400 	andeq	r5, r0, r0, lsl #8
     74c:	00000000 	andeq	r0, r0, r0
     750:	00440000 	subeq	r0, r4, r0
     754:	00470000 	subeq	r0, r7, r0
     758:	00010000 	andeq	r0, r1, r0
     75c:	00004750 	andeq	r4, r0, r0, asr r7
     760:	0000b400 	andeq	fp, r0, r0, lsl #8
     764:	54000100 	strpl	r0, [r0], #-256	; 0x100
	...
     770:	00000054 	andeq	r0, r0, r4, asr r0
     774:	0000009f 	muleq	r0, pc, r0	; <UNPREDICTABLE>
     778:	a0500001 	subsge	r0, r0, r1
     77c:	ac000000 	stcge	0, cr0, [r0], {-0}
     780:	01000000 	mrseq	r0, (UNDEF: 0)
     784:	00005000 	andeq	r5, r0, r0
     788:	00000000 	andeq	r0, r0, r0
     78c:	00b40000 	adcseq	r0, r4, r0
     790:	00c00000 	sbceq	r0, r0, r0
     794:	00010000 	andeq	r0, r1, r0
     798:	0000c050 	andeq	ip, r0, r0, asr r0
     79c:	0001e800 	andeq	lr, r1, r0, lsl #16
     7a0:	59000100 	stmdbpl	r0, {r8}
	...
     7ac:	000000bc 	strheq	r0, [r0], -ip
     7b0:	000000f0 	strdeq	r0, [r0], -r0	; <UNPREDICTABLE>
     7b4:	9f300002 	svcls	0x00300002
     7b8:	000000f0 	strdeq	r0, [r0], -r0	; <UNPREDICTABLE>
     7bc:	000001e8 	andeq	r0, r0, r8, ror #3
     7c0:	00550001 	subseq	r0, r5, r1
     7c4:	00000000 	andeq	r0, r0, r0
     7c8:	bc000000 	stclt	0, cr0, [r0], {-0}
     7cc:	f0000000 			; <UNDEFINED> instruction: 0xf0000000
     7d0:	02000000 	andeq	r0, r0, #0
     7d4:	f09f3000 			; <UNDEFINED> instruction: 0xf09f3000
     7d8:	e8000000 	stmda	r0, {}	; <UNPREDICTABLE>
     7dc:	01000001 	tsteq	r0, r1
     7e0:	00005700 	andeq	r5, r0, r0, lsl #14
     7e4:	00000000 	andeq	r0, r0, r0
     7e8:	00bc0000 	adcseq	r0, ip, r0
     7ec:	00f00000 	rscseq	r0, r0, r0
     7f0:	00020000 	andeq	r0, r2, r0
     7f4:	00f09f30 	rscseq	r9, r0, r0, lsr pc
     7f8:	01e80000 	mvneq	r0, r0
     7fc:	00010000 	andeq	r0, r1, r0
     800:	00000056 	andeq	r0, r0, r6, asr r0
     804:	00000000 	andeq	r0, r0, r0
     808:	0000d400 	andeq	sp, r0, r0, lsl #8
     80c:	00010c00 	andeq	r0, r1, r0, lsl #24
     810:	50000100 	andpl	r0, r0, r0, lsl #2
     814:	0000010c 	andeq	r0, r0, ip, lsl #2
     818:	00000124 	andeq	r0, r0, r4, lsr #2
     81c:	24540001 	ldrbcs	r0, [r4], #-1
     820:	40000001 	andmi	r0, r0, r1
     824:	01000001 	tsteq	r0, r1
     828:	01405000 	mrseq	r5, (UNDEF: 64)
     82c:	01640000 	cmneq	r4, r0
     830:	00010000 	andeq	r0, r1, r0
     834:	00016454 	andeq	r6, r1, r4, asr r4
     838:	00017000 	andeq	r7, r1, r0
     83c:	50000100 	andpl	r0, r0, r0, lsl #2
     840:	00000170 	andeq	r0, r0, r0, ror r1
     844:	000001e8 	andeq	r0, r0, r8, ror #3
     848:	00540001 	subseq	r0, r4, r1
     84c:	00000000 	andeq	r0, r0, r0
     850:	e8000000 	stmda	r0, {}	; <UNPREDICTABLE>
     854:	ff000001 			; <UNDEFINED> instruction: 0xff000001
     858:	01000001 	tsteq	r0, r1
     85c:	01ff5000 	mvnseq	r5, r0
     860:	02180000 	andseq	r0, r8, #0
     864:	00010000 	andeq	r0, r1, r0
     868:	00021854 	andeq	r1, r2, r4, asr r8
     86c:	00022300 	andeq	r2, r2, r0, lsl #6
     870:	50000100 	andpl	r0, r0, r0, lsl #2
     874:	00000223 	andeq	r0, r0, r3, lsr #4
     878:	0000023c 	andeq	r0, r0, ip, lsr r2
     87c:	3c540001 	mrrccc	0, 0, r0, r4, cr1
     880:	47000002 	strmi	r0, [r0, -r2]
     884:	01000002 	tsteq	r0, r2
     888:	02475000 	subeq	r5, r7, #0
     88c:	02600000 	rsbeq	r0, r0, #0
     890:	00010000 	andeq	r0, r1, r0
     894:	00026054 	andeq	r6, r2, r4, asr r0
     898:	0002bc00 	andeq	fp, r2, r0, lsl #24
     89c:	f3000400 	vshl.u8	d0, d0, d0
     8a0:	bc9f5001 	ldclt	0, cr5, [pc], {1}
     8a4:	c0000002 	andgt	r0, r0, r2
     8a8:	01000002 	tsteq	r0, r2
     8ac:	02c05000 	sbceq	r5, r0, #0
     8b0:	02e00000 	rsceq	r0, r0, #0
     8b4:	00040000 	andeq	r0, r4, r0
     8b8:	9f5001f3 	svcls	0x005001f3
	...
     8c4:	000001e8 	andeq	r0, r0, r8, ror #3
     8c8:	000001ff 	strdeq	r0, [r0], -pc	; <UNPREDICTABLE>
     8cc:	ff510001 			; <UNDEFINED> instruction: 0xff510001
     8d0:	18000001 	stmdane	r0, {r0}
     8d4:	01000002 	tsteq	r0, r2
     8d8:	02185500 	andseq	r5, r8, #0, 10
     8dc:	02230000 	eoreq	r0, r3, #0
     8e0:	00010000 	andeq	r0, r1, r0
     8e4:	00022351 	andeq	r2, r2, r1, asr r3
     8e8:	00023c00 	andeq	r3, r2, r0, lsl #24
     8ec:	55000100 	strpl	r0, [r0, #-256]	; 0x100
     8f0:	0000023c 	andeq	r0, r0, ip, lsr r2
     8f4:	00000247 	andeq	r0, r0, r7, asr #4
     8f8:	47510001 	ldrbmi	r0, [r1, -r1]
     8fc:	bc000002 	stclt	0, cr0, [r0], {2}
     900:	01000002 	tsteq	r0, r2
     904:	02bc5500 	adcseq	r5, ip, #0, 10
     908:	02c00000 	sbceq	r0, r0, #0
     90c:	00010000 	andeq	r0, r1, r0
     910:	0002c051 	andeq	ip, r2, r1, asr r0
     914:	0002e000 	andeq	lr, r2, r0
     918:	55000100 	strpl	r0, [r0, #-256]	; 0x100
	...
     924:	00000260 	andeq	r0, r0, r0, ror #4
     928:	000002bc 			; <UNDEFINED> instruction: 0x000002bc
     92c:	c0540001 	subsgt	r0, r4, r1
     930:	e0000002 	and	r0, r0, r2
     934:	01000002 	tsteq	r0, r2
     938:	00005400 	andeq	r5, r0, r0, lsl #8
     93c:	00000000 	andeq	r0, r0, r0
     940:	02680000 	rsbeq	r0, r8, #0
     944:	02740000 	rsbseq	r0, r4, #0
     948:	00010000 	andeq	r0, r1, r0
     94c:	00027450 	andeq	r7, r2, r0, asr r4
     950:	0002b300 	andeq	fp, r2, r0, lsl #6
     954:	53000100 	movwpl	r0, #256	; 0x100
	...
     960:	000002ec 	andeq	r0, r0, ip, ror #5
     964:	00000303 	andeq	r0, r0, r3, lsl #6
     968:	04500001 	ldrbeq	r0, [r0], #-1
     96c:	14000003 	strne	r0, [r0], #-3
     970:	01000003 	tsteq	r0, r3
     974:	00005000 	andeq	r5, r0, r0
     978:	00000000 	andeq	r0, r0, r0
     97c:	03580000 	cmpeq	r8, #0
     980:	036c0000 	cmneq	ip, #0
     984:	00010000 	andeq	r0, r1, r0
     988:	00037453 	andeq	r7, r3, r3, asr r4
     98c:	00038700 	andeq	r8, r3, r0, lsl #14
     990:	53000100 	movwpl	r0, #256	; 0x100
	...
     99c:	000003dc 	ldrdeq	r0, [r0], -ip
     9a0:	00000410 	andeq	r0, r0, r0, lsl r4
     9a4:	9f300002 	svcls	0x00300002
     9a8:	00000410 	andeq	r0, r0, r0, lsl r4
     9ac:	000004cc 	andeq	r0, r0, ip, asr #9
     9b0:	00550001 	subseq	r0, r5, r1
     9b4:	00000000 	andeq	r0, r0, r0
     9b8:	dc000000 	stcle	0, cr0, [r0], {-0}
     9bc:	10000003 	andne	r0, r0, r3
     9c0:	02000004 	andeq	r0, r0, #4
     9c4:	109f3000 	addsne	r3, pc, r0
     9c8:	cc000004 	stcgt	0, cr0, [r0], {4}
     9cc:	01000004 	tsteq	r0, r4
     9d0:	00005800 	andeq	r5, r0, r0, lsl #16
     9d4:	00000000 	andeq	r0, r0, r0
     9d8:	03dc0000 	bicseq	r0, ip, #0
     9dc:	04100000 	ldreq	r0, [r0], #-0
     9e0:	00020000 	andeq	r0, r2, r0
     9e4:	04109f30 	ldreq	r9, [r0], #-3888	; 0xf30
     9e8:	04cc0000 	strbeq	r0, [ip], #0
     9ec:	00010000 	andeq	r0, r1, r0
     9f0:	0004cc56 	andeq	ip, r4, r6, asr ip
     9f4:	0004f400 	andeq	pc, r4, r0, lsl #8
     9f8:	50000100 	andpl	r0, r0, r0, lsl #2
	...
     a04:	000003f4 	strdeq	r0, [r0], -r4
     a08:	0000043c 	andeq	r0, r0, ip, lsr r4
     a0c:	3c500001 	mrrccc	0, 0, r0, r0, cr1	; <UNPREDICTABLE>
     a10:	70000004 	andvc	r0, r0, r4
     a14:	01000004 	tsteq	r0, r4
     a18:	04705400 	ldrbteq	r5, [r0], #-1024	; 0x400
     a1c:	04800000 	streq	r0, [r0], #0
     a20:	00010000 	andeq	r0, r1, r0
     a24:	00000050 	andeq	r0, r0, r0, asr r0
     a28:	00000000 	andeq	r0, r0, r0
     a2c:	0004f400 	andeq	pc, r4, r0, lsl #8
     a30:	0004ff00 	andeq	pc, r4, r0, lsl #30
     a34:	50000100 	andpl	r0, r0, r0, lsl #2
     a38:	000004ff 	strdeq	r0, [r0], -pc	; <UNPREDICTABLE>
     a3c:	0000050c 	andeq	r0, r0, ip, lsl #10
     a40:	00540001 	subseq	r0, r4, r1
     a44:	00000000 	andeq	r0, r0, r0
     a48:	f0000000 			; <UNDEFINED> instruction: 0xf0000000
     a4c:	fb000005 	blx	a6a <__code_start__-0x7596>
     a50:	01000005 	tsteq	r0, r5
     a54:	05fb5000 	ldrbeq	r5, [fp, #0]!
     a58:	06140000 	ldreq	r0, [r4], -r0
     a5c:	00010000 	andeq	r0, r1, r0
     a60:	00061454 	andeq	r1, r6, r4, asr r4
     a64:	00061800 	andeq	r1, r6, r0, lsl #16
     a68:	50000100 	andpl	r0, r0, r0, lsl #2
     a6c:	00000618 	andeq	r0, r0, r8, lsl r6
     a70:	00000650 	andeq	r0, r0, r0, asr r6
     a74:	00540001 	subseq	r0, r4, r1
	...
     a80:	24000000 	strcs	r0, [r0], #-0
     a84:	01000000 	mrseq	r0, (UNDEF: 0)
     a88:	00245000 	eoreq	r5, r4, r0
     a8c:	00e40000 	rsceq	r0, r4, r0
     a90:	00040000 	andeq	r0, r4, r0
     a94:	9f5001f3 	svcls	0x005001f3
     a98:	000000e4 	andeq	r0, r0, r4, ror #1
     a9c:	000000e8 	andeq	r0, r0, r8, ror #1
     aa0:	e8500001 	ldmda	r0, {r0}^
     aa4:	f0000000 			; <UNDEFINED> instruction: 0xf0000000
     aa8:	04000000 	streq	r0, [r0], #-0
     aac:	5001f300 	andpl	pc, r1, r0, lsl #6
     ab0:	0000009f 	muleq	r0, pc, r0	; <UNPREDICTABLE>
	...
     abc:	00002000 	andeq	r2, r0, r0
     ac0:	51000100 	mrspl	r0, (UNDEF: 16)
     ac4:	00000020 	andeq	r0, r0, r0, lsr #32
     ac8:	00000080 	andeq	r0, r0, r0, lsl #1
     acc:	9c510001 	mrrcls	0, 0, r0, r1, cr1
     ad0:	a0000000 	andge	r0, r0, r0
     ad4:	01000000 	mrseq	r0, (UNDEF: 0)
     ad8:	00b85100 	adcseq	r5, r8, r0, lsl #2
     adc:	00c80000 	sbceq	r0, r8, r0
     ae0:	00010000 	andeq	r0, r1, r0
     ae4:	0000e451 	andeq	lr, r0, r1, asr r4
     ae8:	0000e800 	andeq	lr, r0, r0, lsl #16
     aec:	51000100 	mrspl	r0, (UNDEF: 16)
	...
     af8:	00000004 	andeq	r0, r0, r4
     afc:	00000024 	andeq	r0, r0, r4, lsr #32
     b00:	24500001 	ldrbcs	r0, [r0], #-1
     b04:	90000000 	andls	r0, r0, r0
     b08:	01000000 	mrseq	r0, (UNDEF: 0)
     b0c:	009c5300 	addseq	r5, ip, r0, lsl #6
     b10:	00a40000 	adceq	r0, r4, r0
     b14:	00010000 	andeq	r0, r1, r0
     b18:	0000b853 	andeq	fp, r0, r3, asr r8
     b1c:	0000bc00 	andeq	fp, r0, r0, lsl #24
     b20:	53000100 	movwpl	r0, #256	; 0x100
     b24:	000000e4 	andeq	r0, r0, r4, ror #1
     b28:	000000e8 	andeq	r0, r0, r8, ror #1
     b2c:	00500001 	subseq	r0, r0, r1
     b30:	00000000 	andeq	r0, r0, r0
     b34:	08000000 	stmdaeq	r0, {}	; <UNPREDICTABLE>
     b38:	20000000 	andcs	r0, r0, r0
     b3c:	01000000 	mrseq	r0, (UNDEF: 0)
     b40:	00205100 	eoreq	r5, r0, r0, lsl #2
     b44:	00340000 	eorseq	r0, r4, r0
     b48:	00010000 	andeq	r0, r1, r0
     b4c:	00003452 	andeq	r3, r0, r2, asr r4
     b50:	00004800 	andeq	r4, r0, r0, lsl #16
     b54:	50000100 	andpl	r0, r0, r0, lsl #2
     b58:	00000048 	andeq	r0, r0, r8, asr #32
     b5c:	000000cc 	andeq	r0, r0, ip, asr #1
     b60:	cc520001 	mrrcgt	0, 0, r0, r2, cr1
     b64:	e0000000 	and	r0, r0, r0
     b68:	01000000 	mrseq	r0, (UNDEF: 0)
     b6c:	00e45000 	rsceq	r5, r4, r0
     b70:	00e80000 	rsceq	r0, r8, r0
     b74:	00010000 	andeq	r0, r1, r0
     b78:	00000051 	andeq	r0, r0, r1, asr r0
     b7c:	00000000 	andeq	r0, r0, r0
     b80:	00004400 	andeq	r4, r0, r0, lsl #8
     b84:	00004800 	andeq	r4, r0, r0, lsl #16
     b88:	52000100 	andpl	r0, r0, #0, 2
     b8c:	00000048 	andeq	r0, r0, r8, asr #32
     b90:	0000004c 	andeq	r0, r0, ip, asr #32
     b94:	007c0012 	rsbseq	r0, ip, r2, lsl r0
     b98:	02732438 	rsbseq	r2, r3, #56, 8	; 0x38000000
     b9c:	ff080194 			; <UNDEFINED> instruction: 0xff080194
     ba0:	243b221a 	ldrtcs	r2, [fp], #-538	; 0x21a
     ba4:	9f270070 	svcls	0x00270070
     ba8:	0000004c 	andeq	r0, r0, ip, asr #32
     bac:	00000054 	andeq	r0, r0, r4, asr r0
     bb0:	007c0012 	rsbseq	r0, ip, r2, lsl r0
     bb4:	7e732438 	mrcvc	4, 3, r2, cr3, cr8, {1}
     bb8:	ff080194 			; <UNDEFINED> instruction: 0xff080194
     bbc:	243b221a 	ldrtcs	r2, [fp], #-538	; 0x21a
     bc0:	9f270070 	svcls	0x00270070
	...
     bcc:	0000001c 	andeq	r0, r0, ip, lsl r0
     bd0:	000000e4 	andeq	r0, r0, r4, ror #1
     bd4:	00540001 	subseq	r0, r4, r1
	...
     be0:	04000000 	streq	r0, [r0], #-0
     be4:	01000000 	mrseq	r0, (UNDEF: 0)
     be8:	00045200 	andeq	r5, r4, r0, lsl #4
     bec:	00200000 	eoreq	r0, r0, r0
     bf0:	00040000 	andeq	r0, r4, r0
     bf4:	9f5201f3 	svcls	0x005201f3
	...
     c04:	0000000c 	andeq	r0, r0, ip
     c08:	0c500001 	mrrceq	0, 0, r0, r0, cr1	; <UNPREDICTABLE>
     c0c:	14000000 	strne	r0, [r0], #-0
     c10:	03000000 	movweq	r0, #0
     c14:	9f017300 	svcls	0x00017300
     c18:	00000014 	andeq	r0, r0, r4, lsl r0
     c1c:	00000020 	andeq	r0, r0, r0, lsr #32
     c20:	00530001 	subseq	r0, r3, r1
     c24:	00000000 	andeq	r0, r0, r0
     c28:	2c000000 	stccs	0, cr0, [r0], {-0}
     c2c:	38000000 	stmdacc	r0, {}	; <UNPREDICTABLE>
     c30:	01000000 	mrseq	r0, (UNDEF: 0)
     c34:	00385000 	eorseq	r5, r8, r0
     c38:	00480000 	subeq	r0, r8, r0
     c3c:	00010000 	andeq	r0, r1, r0
     c40:	00004855 	andeq	r4, r0, r5, asr r8
     c44:	00005800 	andeq	r5, r0, r0, lsl #16
     c48:	50000100 	andpl	r0, r0, r0, lsl #2
	...
     c58:	0000000b 	andeq	r0, r0, fp
     c5c:	0b500001 	bleq	1400c68 <__bss_end__+0x13f60f0>
     c60:	14000000 	strne	r0, [r0], #-0
     c64:	01000000 	mrseq	r0, (UNDEF: 0)
     c68:	00005400 	andeq	r5, r0, r0, lsl #8
	...
     c74:	00100000 	andseq	r0, r0, r0
     c78:	00010000 	andeq	r0, r1, r0
     c7c:	00001050 	andeq	r1, r0, r0, asr r0
     c80:	00003400 	andeq	r3, r0, r0, lsl #8
     c84:	54000100 	strpl	r0, [r0], #-256	; 0x100
	...
     c94:	00000004 	andeq	r0, r0, r4
     c98:	04500001 	ldrbeq	r0, [r0], #-1
     c9c:	0c000000 	stceq	0, cr0, [r0], {-0}
     ca0:	03000000 	movweq	r0, #0
     ca4:	9f307000 	svcls	0x00307000
     ca8:	0000000c 	andeq	r0, r0, ip
     cac:	00000014 	andeq	r0, r0, r4, lsl r0
     cb0:	01f30004 	mvnseq	r0, r4
     cb4:	00009f50 	andeq	r9, r0, r0, asr pc
     cb8:	00000000 	andeq	r0, r0, r0
     cbc:	00140000 	andseq	r0, r4, r0
     cc0:	00200000 	eoreq	r0, r0, r0
     cc4:	00010000 	andeq	r0, r1, r0
     cc8:	00002050 	andeq	r2, r0, r0, asr r0
     ccc:	00002c00 	andeq	r2, r0, r0, lsl #24
     cd0:	70000300 	andvc	r0, r0, r0, lsl #6
     cd4:	002c9f01 	eoreq	r9, ip, r1, lsl #30
     cd8:	00400000 	subeq	r0, r0, r0
     cdc:	00010000 	andeq	r0, r1, r0
     ce0:	00000050 	andeq	r0, r0, r0, asr r0
     ce4:	00000000 	andeq	r0, r0, r0
     ce8:	00001400 	andeq	r1, r0, r0, lsl #8
     cec:	00001800 	andeq	r1, r0, r0, lsl #16
     cf0:	51000100 	mrspl	r0, (UNDEF: 16)
     cf4:	00000018 	andeq	r0, r0, r8, lsl r0
     cf8:	00000040 	andeq	r0, r0, r0, asr #32
     cfc:	01f30004 	mvnseq	r0, r4
     d00:	00009f51 	andeq	r9, r0, r1, asr pc
     d04:	00000000 	andeq	r0, r0, r0
     d08:	00400000 	subeq	r0, r0, r0
     d0c:	00600000 	rsbeq	r0, r0, r0
     d10:	00010000 	andeq	r0, r1, r0
     d14:	00006050 	andeq	r6, r0, r0, asr r0
     d18:	00006c00 	andeq	r6, r0, r0, lsl #24
     d1c:	71000300 	mrsvc	r0, LR_irq
     d20:	006c9f01 	rsbeq	r9, ip, r1, lsl #30
     d24:	00740000 	rsbseq	r0, r4, r0
     d28:	00010000 	andeq	r0, r1, r0
     d2c:	00007451 	andeq	r7, r0, r1, asr r4
     d30:	00008000 	andeq	r8, r0, r0
     d34:	71000300 	mrsvc	r0, LR_irq
     d38:	00009f01 	andeq	r9, r0, r1, lsl #30
     d3c:	00000000 	andeq	r0, r0, r0
     d40:	00400000 	subeq	r0, r0, r0
     d44:	00500000 	subseq	r0, r0, r0
     d48:	00010000 	andeq	r0, r1, r0
     d4c:	00005051 	andeq	r5, r0, r1, asr r0
     d50:	00008000 	andeq	r8, r0, r0
     d54:	f3000400 	vshl.u8	d0, d0, d0
     d58:	009f5101 	addseq	r5, pc, r1, lsl #2
     d5c:	00000000 	andeq	r0, r0, r0
     d60:	40000000 	andmi	r0, r0, r0
     d64:	58000000 	stmdapl	r0, {}	; <UNPREDICTABLE>
     d68:	01000000 	mrseq	r0, (UNDEF: 0)
     d6c:	00585200 	subseq	r5, r8, r0, lsl #4
     d70:	00640000 	rsbeq	r0, r4, r0
     d74:	00010000 	andeq	r0, r1, r0
     d78:	00006452 	andeq	r6, r0, r2, asr r4
     d7c:	00006800 	andeq	r6, r0, r0, lsl #16
     d80:	72000300 	andvc	r0, r0, #0, 6
     d84:	00689f01 	rsbeq	r9, r8, r1, lsl #30
     d88:	00800000 	addeq	r0, r0, r0
     d8c:	00010000 	andeq	r0, r1, r0
     d90:	00000052 	andeq	r0, r0, r2, asr r0
     d94:	00000000 	andeq	r0, r0, r0
     d98:	00004000 	andeq	r4, r0, r0
     d9c:	00005400 	andeq	r5, r0, r0, lsl #8
     da0:	53000100 	movwpl	r0, #256	; 0x100
     da4:	00000054 	andeq	r0, r0, r4, asr r0
     da8:	00000078 	andeq	r0, r0, r8, ror r0
     dac:	00530001 	subseq	r0, r3, r1
     db0:	00000000 	andeq	r0, r0, r0
     db4:	48000000 	stmdami	r0, {}	; <UNPREDICTABLE>
     db8:	60000000 	andvs	r0, r0, r0
     dbc:	01000000 	mrseq	r0, (UNDEF: 0)
     dc0:	00605c00 	rsbeq	r5, r0, r0, lsl #24
     dc4:	00800000 	addeq	r0, r0, r0
     dc8:	000a0000 	andeq	r0, sl, r0
     dcc:	f35201f3 	vbsl	q8, q9, <illegal reg q9.5>
     dd0:	231c5301 	tstcs	ip, #67108864	; 0x4000000
     dd4:	00009f01 	andeq	r9, r0, r1, lsl #30
     dd8:	00000000 	andeq	r0, r0, r0
     ddc:	00800000 	addeq	r0, r0, r0
     de0:	00a40000 	adceq	r0, r4, r0
     de4:	00010000 	andeq	r0, r1, r0
     de8:	0000a450 	andeq	sl, r0, r0, asr r4
     dec:	00011800 	andeq	r1, r1, r0, lsl #16
     df0:	70000300 	andvc	r0, r0, r0, lsl #6
     df4:	01189f02 	tsteq	r8, r2, lsl #30
     df8:	02300000 	eorseq	r0, r0, #0
     dfc:	00040000 	andeq	r0, r4, r0
     e00:	9f5001f3 	svcls	0x005001f3
	...
     e0c:	00000080 	andeq	r0, r0, r0, lsl #1
     e10:	000000f0 	strdeq	r0, [r0], -r0	; <UNPREDICTABLE>
     e14:	f0510001 			; <UNDEFINED> instruction: 0xf0510001
     e18:	60000000 	andvs	r0, r0, r0
     e1c:	01000001 	tsteq	r0, r1
     e20:	01605500 	cmneq	r0, r0, lsl #10
     e24:	016c0000 	cmneq	ip, r0
     e28:	00010000 	andeq	r0, r1, r0
     e2c:	00016c51 	andeq	r6, r1, r1, asr ip
     e30:	0001a000 	andeq	sl, r1, r0
     e34:	55000100 	strpl	r0, [r0, #-256]	; 0x100
     e38:	000001a0 	andeq	r0, r0, r0, lsr #3
     e3c:	000001b4 			; <UNDEFINED> instruction: 0x000001b4
     e40:	b4510001 	ldrblt	r0, [r1], #-1
     e44:	d4000001 	strle	r0, [r0], #-1
     e48:	01000001 	tsteq	r0, r1
     e4c:	01d45500 	bicseq	r5, r4, r0, lsl #10
     e50:	01d70000 	bicseq	r0, r7, r0
     e54:	00010000 	andeq	r0, r1, r0
     e58:	0001d751 	andeq	sp, r1, r1, asr r7
     e5c:	00021400 	andeq	r1, r2, r0, lsl #8
     e60:	55000100 	strpl	r0, [r0, #-256]	; 0x100
     e64:	00000214 	andeq	r0, r0, r4, lsl r2
     e68:	00000230 	andeq	r0, r0, r0, lsr r2
     e6c:	01f30004 	mvnseq	r0, r4
     e70:	00009f51 	andeq	r9, r0, r1, asr pc
     e74:	00000000 	andeq	r0, r0, r0
     e78:	00800000 	addeq	r0, r0, r0
     e7c:	00940000 	addseq	r0, r4, r0
     e80:	00010000 	andeq	r0, r1, r0
     e84:	00009452 	andeq	r9, r0, r2, asr r4
     e88:	00021400 	andeq	r1, r2, r0, lsl #8
     e8c:	54000100 	strpl	r0, [r0], #-256	; 0x100
     e90:	00000214 	andeq	r0, r0, r4, lsl r2
     e94:	00000230 	andeq	r0, r0, r0, lsr r2
     e98:	01f30004 	mvnseq	r0, r4
     e9c:	00009f52 	andeq	r9, r0, r2, asr pc
     ea0:	00000000 	andeq	r0, r0, r0
     ea4:	00800000 	addeq	r0, r0, r0
     ea8:	01000000 	mrseq	r0, (UNDEF: 0)
     eac:	00010000 	andeq	r0, r1, r0
     eb0:	00010453 	andeq	r0, r1, r3, asr r4
     eb4:	00010800 	andeq	r0, r1, r0, lsl #16
     eb8:	53000100 	movwpl	r0, #256	; 0x100
     ebc:	00000160 	andeq	r0, r0, r0, ror #2
     ec0:	00000164 	andeq	r0, r0, r4, ror #2
     ec4:	64530001 	ldrbvs	r0, [r3], #-1
     ec8:	6c000001 	stcvs	0, cr0, [r0], {1}
     ecc:	01000001 	tsteq	r0, r1
     ed0:	016c5c00 	cmneq	ip, r0, lsl #24
     ed4:	01a00000 	moveq	r0, r0
     ed8:	00040000 	andeq	r0, r4, r0
     edc:	9f5301f3 	svcls	0x005301f3
     ee0:	000001a0 	andeq	r0, r0, r0, lsr #3
     ee4:	000001b0 			; <UNDEFINED> instruction: 0x000001b0
     ee8:	b0530001 	subslt	r0, r3, r1
     eec:	b4000001 	strlt	r0, [r0], #-1
     ef0:	01000001 	tsteq	r0, r1
     ef4:	01b45c00 			; <UNDEFINED> instruction: 0x01b45c00
     ef8:	01d40000 	bicseq	r0, r4, r0
     efc:	00040000 	andeq	r0, r4, r0
     f00:	9f5301f3 	svcls	0x005301f3
     f04:	000001d4 	ldrdeq	r0, [r0], -r4
     f08:	000001d7 	ldrdeq	r0, [r0], -r7
     f0c:	d7530001 	ldrble	r0, [r3, -r1]
     f10:	f0000001 			; <UNDEFINED> instruction: 0xf0000001
     f14:	04000001 	streq	r0, [r0], #-1
     f18:	5301f300 	movwpl	pc, #4864	; 0x1300	; <UNPREDICTABLE>
     f1c:	0000009f 	muleq	r0, pc, r0	; <UNPREDICTABLE>
     f20:	00000000 	andeq	r0, r0, r0
     f24:	00008000 	andeq	r8, r0, r0
     f28:	00009c00 	andeq	r9, r0, r0, lsl #24
     f2c:	91000200 	mrsls	r0, R8_usr
     f30:	00009c00 	andeq	r9, r0, r0, lsl #24
     f34:	0001d700 	andeq	sp, r1, r0, lsl #14
     f38:	52000100 	andpl	r0, r0, #0, 2
     f3c:	000001f0 	strdeq	r0, [r0], -r0	; <UNPREDICTABLE>
     f40:	000001f7 	strdeq	r0, [r0], -r7
     f44:	00520001 	subseq	r0, r2, r1
     f48:	00000000 	andeq	r0, r0, r0
     f4c:	9c000000 	stcls	0, cr0, [r0], {-0}
     f50:	18000000 	stmdane	r0, {}	; <UNPREDICTABLE>
     f54:	01000001 	tsteq	r0, r1
     f58:	01185d00 	tsteq	r8, r0, lsl #26
     f5c:	011c0000 	tsteq	ip, r0
     f60:	00010000 	andeq	r0, r1, r0
     f64:	00011c50 	andeq	r1, r1, r0, asr ip
     f68:	00012000 	andeq	r2, r1, r0
     f6c:	51000100 	mrspl	r0, (UNDEF: 16)
     f70:	00000120 	andeq	r0, r0, r0, lsr #2
     f74:	00000160 	andeq	r0, r0, r0, ror #2
     f78:	60500001 	subsvs	r0, r0, r1
     f7c:	6c000001 	stcvs	0, cr0, [r0], {1}
     f80:	01000001 	tsteq	r0, r1
     f84:	016c5d00 	cmneq	ip, r0, lsl #26
     f88:	01700000 	cmneq	r0, r0
     f8c:	00010000 	andeq	r0, r1, r0
     f90:	00017050 	andeq	r7, r1, r0, asr r0
     f94:	00017400 	andeq	r7, r1, r0, lsl #8
     f98:	53000100 	movwpl	r0, #256	; 0x100
     f9c:	00000174 	andeq	r0, r0, r4, ror r1
     fa0:	00000188 	andeq	r0, r0, r8, lsl #3
     fa4:	88500001 	ldmdahi	r0, {r0}^
     fa8:	94000001 	strls	r0, [r0], #-1
     fac:	03000001 	movweq	r0, #1
     fb0:	9f017000 	svcls	0x00017000
     fb4:	00000194 	muleq	r0, r4, r1
     fb8:	000001a0 	andeq	r0, r0, r0, lsr #3
     fbc:	a0500001 	subsge	r0, r0, r1
     fc0:	a8000001 	stmdage	r0, {r0}
     fc4:	04000001 	streq	r0, [r0], #-1
     fc8:	7fa19100 	svcvc	0x00a19100
     fcc:	0001a89f 	muleq	r1, pc, r8	; <UNPREDICTABLE>
     fd0:	0001ac00 	andeq	sl, r1, r0, lsl #24
     fd4:	50000100 	andpl	r0, r0, r0, lsl #2
     fd8:	000001ac 	andeq	r0, r0, ip, lsr #3
     fdc:	000001b4 			; <UNDEFINED> instruction: 0x000001b4
     fe0:	b45d0001 	ldrblt	r0, [sp], #-1
     fe4:	b8000001 	stmdalt	r0, {r0}
     fe8:	01000001 	tsteq	r0, r1
     fec:	01b85300 			; <UNDEFINED> instruction: 0x01b85300
     ff0:	01d40000 	bicseq	r0, r4, r0
     ff4:	00010000 	andeq	r0, r1, r0
     ff8:	0001d450 	andeq	sp, r1, r0, asr r4
     ffc:	0001f000 	andeq	pc, r1, r0
    1000:	5d000100 	stfpls	f0, [r0, #-0]
    1004:	000001f0 	strdeq	r0, [r0], -r0	; <UNPREDICTABLE>
    1008:	000001f7 	strdeq	r0, [r0], -r7
    100c:	00500001 	subseq	r0, r0, r1
    1010:	00000000 	andeq	r0, r0, r0
    1014:	a0000000 	andge	r0, r0, r0
    1018:	ec000000 	stc	0, cr0, [r0], {-0}
    101c:	01000000 	mrseq	r0, (UNDEF: 0)
    1020:	00ec5c00 	rsceq	r5, ip, r0, lsl #24
    1024:	01000000 	mrseq	r0, (UNDEF: 0)
    1028:	00010000 	andeq	r0, r1, r0
    102c:	00010053 	andeq	r0, r1, r3, asr r0
    1030:	00010400 	andeq	r0, r1, r0, lsl #8
    1034:	5c000100 	stfpls	f0, [r0], {-0}
    1038:	00000104 	andeq	r0, r0, r4, lsl #2
    103c:	00000108 	andeq	r0, r0, r8, lsl #2
    1040:	08530001 	ldmdaeq	r3, {r0}^
    1044:	60000001 	andvs	r0, r0, r1
    1048:	01000001 	tsteq	r0, r1
    104c:	01605c00 	cmneq	r0, r0, lsl #24
    1050:	01640000 	cmneq	r4, r0
    1054:	00010000 	andeq	r0, r1, r0
    1058:	00016453 	andeq	r6, r1, r3, asr r4
    105c:	00018000 	andeq	r8, r1, r0
    1060:	5c000100 	stfpls	f0, [r0], {-0}
    1064:	00000180 	andeq	r0, r0, r0, lsl #3
    1068:	00000184 	andeq	r0, r0, r4, lsl #3
    106c:	007c0005 	rsbseq	r0, ip, r5
    1070:	849f2534 	ldrhi	r2, [pc], #1332	; 1078 <__code_start__-0x6f88>
    1074:	a0000001 	andge	r0, r0, r1
    1078:	01000001 	tsteq	r0, r1
    107c:	01a05c00 	lsleq	r5, r0, #24
    1080:	01b00000 	movseq	r0, r0
    1084:	00010000 	andeq	r0, r1, r0
    1088:	0001b053 	andeq	fp, r1, r3, asr r0
    108c:	0001c400 	andeq	ip, r1, r0, lsl #8
    1090:	5c000100 	stfpls	f0, [r0], {-0}
    1094:	000001c4 	andeq	r0, r0, r4, asr #3
    1098:	000001cc 	andeq	r0, r0, ip, asr #3
    109c:	007c0005 	rsbseq	r0, ip, r5
    10a0:	cc9f2531 	cfldr32gt	mvfx2, [pc], {49}	; 0x31
    10a4:	d4000001 	strle	r0, [r0], #-1
    10a8:	01000001 	tsteq	r0, r1
    10ac:	01d45c00 	bicseq	r5, r4, r0, lsl #24
    10b0:	01d70000 	bicseq	r0, r7, r0
    10b4:	00010000 	andeq	r0, r1, r0
    10b8:	0001d753 	andeq	sp, r1, r3, asr r7
    10bc:	0001f000 	andeq	pc, r1, r0
    10c0:	f3000400 	vshl.u8	d0, d0, d0
    10c4:	f09f5301 			; <UNDEFINED> instruction: 0xf09f5301
    10c8:	f7000001 			; <UNDEFINED> instruction: 0xf7000001
    10cc:	01000001 	tsteq	r0, r1
    10d0:	00005c00 	andeq	r5, r0, r0, lsl #24
    10d4:	00000000 	andeq	r0, r0, r0
    10d8:	00ec0000 	rsceq	r0, ip, r0
    10dc:	00fc0000 	rscseq	r0, ip, r0
    10e0:	00020000 	andeq	r0, r2, r0
    10e4:	00fc9f30 	rscseq	r9, ip, r0, lsr pc
    10e8:	01040000 	mrseq	r0, (UNDEF: 4)
    10ec:	00020000 	andeq	r0, r2, r0
    10f0:	01049f31 	tsteq	r4, r1, lsr pc
    10f4:	01080000 	mrseq	r0, (UNDEF: 8)
    10f8:	00020000 	andeq	r0, r2, r0
    10fc:	00009f30 	andeq	r9, r0, r0, lsr pc
    1100:	00000000 	andeq	r0, r0, r0
    1104:	02300000 	eorseq	r0, r0, #0
    1108:	023f0000 	eorseq	r0, pc, #0
    110c:	00010000 	andeq	r0, r1, r0
    1110:	00023f50 	andeq	r3, r2, r0, asr pc
    1114:	00025800 	andeq	r5, r2, r0, lsl #16
    1118:	f3000400 	vshl.u8	d0, d0, d0
    111c:	589f5001 	ldmpl	pc, {r0, ip, lr}	; <UNPREDICTABLE>
    1120:	84000002 	strhi	r0, [r0], #-2
    1124:	01000002 	tsteq	r0, r2
    1128:	00005000 	andeq	r5, r0, r0
    112c:	00000000 	andeq	r0, r0, r0
    1130:	02300000 	eorseq	r0, r0, #0
    1134:	023f0000 	eorseq	r0, pc, #0
    1138:	00010000 	andeq	r0, r1, r0
    113c:	00023f51 	andeq	r3, r2, r1, asr pc
    1140:	00025800 	andeq	r5, r2, r0, lsl #16
    1144:	f3000400 	vshl.u8	d0, d0, d0
    1148:	589f5101 	ldmpl	pc, {r0, r8, ip, lr}	; <UNPREDICTABLE>
    114c:	84000002 	strhi	r0, [r0], #-2
    1150:	01000002 	tsteq	r0, r2
    1154:	00005100 	andeq	r5, r0, r0, lsl #2
    1158:	00000000 	andeq	r0, r0, r0
    115c:	02840000 	addeq	r0, r4, #0
    1160:	02b00000 	adcseq	r0, r0, #0
    1164:	00010000 	andeq	r0, r1, r0
    1168:	0002b050 	andeq	fp, r2, r0, asr r0
    116c:	0004f800 	andeq	pc, r4, r0, lsl #16
    1170:	5a000100 	bpl	1578 <__code_start__-0x6a88>
    1174:	000004f8 	strdeq	r0, [r0], -r8
    1178:	0000050c 	andeq	r0, r0, ip, lsl #10
    117c:	01f30004 	mvnseq	r0, r4
    1180:	00009f50 	andeq	r9, r0, r0, asr pc
    1184:	00000000 	andeq	r0, r0, r0
    1188:	02840000 	addeq	r0, r4, #0
    118c:	02980000 	addseq	r0, r8, #0
    1190:	00010000 	andeq	r0, r1, r0
    1194:	00029851 	andeq	r9, r2, r1, asr r8
    1198:	0002b000 	andeq	fp, r2, r0
    119c:	71000300 	mrsvc	r0, LR_irq
    11a0:	02b09f01 	adcseq	r9, r0, #1, 30
    11a4:	050c0000 	streq	r0, [ip, #-0]
    11a8:	00040000 	andeq	r0, r4, r0
    11ac:	9f5101f3 	svcls	0x005101f3
	...
    11b8:	00000284 	andeq	r0, r0, r4, lsl #5
    11bc:	000002b8 			; <UNDEFINED> instruction: 0x000002b8
    11c0:	b8520001 	ldmdalt	r2, {r0}^
    11c4:	e0000002 	and	r0, r0, r2
    11c8:	01000002 	tsteq	r0, r2
    11cc:	02e05200 	rsceq	r5, r0, #0, 4
    11d0:	04a80000 	strteq	r0, [r8], #0
    11d4:	00010000 	andeq	r0, r1, r0
    11d8:	0004a856 	andeq	sl, r4, r6, asr r8
    11dc:	00050c00 	andeq	r0, r5, r0, lsl #24
    11e0:	52000100 	andpl	r0, r0, #0, 2
	...
    11ec:	00000284 	andeq	r0, r0, r4, lsl #5
    11f0:	000002a0 	andeq	r0, r0, r0, lsr #5
    11f4:	00530001 	subseq	r0, r3, r1
    11f8:	00000000 	andeq	r0, r0, r0
    11fc:	94000000 	strls	r0, [r0], #-0
    1200:	b0000002 	andlt	r0, r0, r2
    1204:	01000002 	tsteq	r0, r2
    1208:	02b05000 	adcseq	r5, r0, #0
    120c:	02b40000 	adcseq	r0, r4, #0
    1210:	00010000 	andeq	r0, r1, r0
    1214:	0002b454 	andeq	fp, r2, r4, asr r4
    1218:	0002c000 	andeq	ip, r2, r0
    121c:	74000300 	strvc	r0, [r0], #-768	; 0x300
    1220:	02c09f01 	sbceq	r9, r0, #1, 30
    1224:	02cc0000 	sbceq	r0, ip, #0
    1228:	00010000 	andeq	r0, r1, r0
    122c:	0002cc54 	andeq	ip, r2, r4, asr ip
    1230:	0002d800 	andeq	sp, r2, r0, lsl #16
    1234:	74000300 	strvc	r0, [r0], #-768	; 0x300
    1238:	02d89f01 	sbcseq	r9, r8, #1, 30
    123c:	04ac0000 	strteq	r0, [ip], #0
    1240:	00010000 	andeq	r0, r1, r0
    1244:	0004ac54 	andeq	sl, r4, r4, asr ip
    1248:	0004b800 	andeq	fp, r4, r0, lsl #16
    124c:	74000300 	strvc	r0, [r0], #-768	; 0x300
    1250:	04b89f01 	ldrteq	r9, [r8], #3841	; 0xf01
    1254:	04e40000 	strbteq	r0, [r4], #0
    1258:	00010000 	andeq	r0, r1, r0
    125c:	0004e454 	andeq	lr, r4, r4, asr r4
    1260:	0004f000 	andeq	pc, r4, r0
    1264:	50000100 	andpl	r0, r0, r0, lsl #2
    1268:	000004f0 	strdeq	r0, [r0], -r0	; <UNPREDICTABLE>
    126c:	000004f8 	strdeq	r0, [r0], -r8
    1270:	01740003 	cmneq	r4, r3
    1274:	0000009f 	muleq	r0, pc, r0	; <UNPREDICTABLE>
    1278:	00000000 	andeq	r0, r0, r0
    127c:	00029c00 	andeq	r9, r2, r0, lsl #24
    1280:	0004f800 	andeq	pc, r4, r0, lsl #16
    1284:	58000100 	stmdapl	r0, {r8}
    1288:	000004f8 	strdeq	r0, [r0], -r8
    128c:	0000050c 	andeq	r0, r0, ip, lsl #10
    1290:	01f3000a 	mvnseq	r0, sl
    1294:	5001f351 	andpl	pc, r1, r1, asr r3	; <UNPREDICTABLE>
    1298:	9f1c3122 	svcls	0x001c3122
	...
    12a4:	000003e0 	andeq	r0, r0, r0, ror #7
    12a8:	000003e4 	andeq	r0, r0, r4, ror #7
    12ac:	04500001 	ldrbeq	r0, [r0], #-1
    12b0:	08000004 	stmdaeq	r0, {r2}
    12b4:	01000004 	tsteq	r0, r4
    12b8:	04285000 	strteq	r5, [r8], #-0
    12bc:	042c0000 	strteq	r0, [ip], #-0
    12c0:	00010000 	andeq	r0, r1, r0
    12c4:	00044c50 	andeq	r4, r4, r0, asr ip
    12c8:	00045000 	andeq	r5, r4, r0
    12cc:	50000100 	andpl	r0, r0, r0, lsl #2
    12d0:	00000458 	andeq	r0, r0, r8, asr r4
    12d4:	0000045c 	andeq	r0, r0, ip, asr r4
    12d8:	7c500001 	mrrcvc	0, 0, r0, r0, cr1	; <UNPREDICTABLE>
    12dc:	80000004 	andhi	r0, r0, r4
    12e0:	01000004 	tsteq	r0, r4
    12e4:	04a45000 	strteq	r5, [r4], #0
    12e8:	04cc0000 	strbeq	r0, [ip], #0
    12ec:	00010000 	andeq	r0, r1, r0
    12f0:	00000050 	andeq	r0, r0, r0, asr r0
    12f4:	00000000 	andeq	r0, r0, r0
    12f8:	0002e000 	andeq	lr, r2, r0
    12fc:	0002e800 	andeq	lr, r2, r0, lsl #16
    1300:	30000200 	andcc	r0, r0, r0, lsl #4
    1304:	0002e89f 	muleq	r2, pc, r8	; <UNPREDICTABLE>
    1308:	0002ec00 	andeq	lr, r2, r0, lsl #24
    130c:	57000100 	strpl	r0, [r0, -r0, lsl #2]
    1310:	000002f8 	strdeq	r0, [r0], -r8
    1314:	000004cc 	andeq	r0, r0, ip, asr #9
    1318:	00570001 	subseq	r0, r7, r1
    131c:	00000000 	andeq	r0, r0, r0
    1320:	14000000 	strne	r0, [r0], #-0
    1324:	1c000000 	stcne	0, cr0, [r0], {-0}
    1328:	03000000 	movweq	r0, #0
    132c:	9f047300 	svcls	0x00047300
    1330:	0000001c 	andeq	r0, r0, ip, lsl r0
    1334:	00000027 	andeq	r0, r0, r7, lsr #32
    1338:	00530001 	subseq	r0, r3, r1
    133c:	00000000 	andeq	r0, r0, r0
    1340:	d4000000 	strle	r0, [r0], #-0
    1344:	d8000096 	stmdale	r0, {r1, r2, r4, r7}
    1348:	02000096 	andeq	r0, r0, #150	; 0x96
    134c:	d89f3000 	ldmle	pc, {ip, sp}	; <UNPREDICTABLE>
    1350:	dc000096 	stcle	0, cr0, [r0], {150}	; 0x96
    1354:	01000096 	swpeq	r0, r6, [r0]	; <UNPREDICTABLE>
    1358:	00005000 	andeq	r5, r0, r0
    135c:	00000000 	andeq	r0, r0, r0
    1360:	96ec0000 	strbtls	r0, [ip], r0
    1364:	96f00000 	ldrbtls	r0, [r0], r0
    1368:	00020000 	andeq	r0, r2, r0
    136c:	96f09f30 			; <UNDEFINED> instruction: 0x96f09f30
    1370:	96f40000 	ldrbtls	r0, [r4], r0
    1374:	00010000 	andeq	r0, r1, r0
    1378:	0096f853 	addseq	pc, r6, r3, asr r8	; <UNPREDICTABLE>
    137c:	00970000 	addseq	r0, r7, r0
    1380:	53000100 	movwpl	r0, #256	; 0x100
	...
    1390:	00000004 	andeq	r0, r0, r4
    1394:	04500001 	ldrbeq	r0, [r0], #-1
    1398:	0c000000 	stceq	0, cr0, [r0], {-0}
    139c:	01000000 	mrseq	r0, (UNDEF: 0)
    13a0:	000c5300 	andeq	r5, ip, r0, lsl #6
    13a4:	00100000 	andseq	r0, r0, r0
    13a8:	00010000 	andeq	r0, r1, r0
    13ac:	00001050 	andeq	r1, r0, r0, asr r0
    13b0:	00001c00 	andeq	r1, r0, r0, lsl #24
    13b4:	53000100 	movwpl	r0, #256	; 0x100
	...
    13c0:	0000003c 	andeq	r0, r0, ip, lsr r0
    13c4:	00000047 	andeq	r0, r0, r7, asr #32
    13c8:	47500001 	ldrbmi	r0, [r0, -r1]
    13cc:	60000000 	andvs	r0, r0, r0
    13d0:	01000000 	mrseq	r0, (UNDEF: 0)
    13d4:	00005500 	andeq	r5, r0, r0, lsl #10
    13d8:	00000000 	andeq	r0, r0, r0
    13dc:	00500000 	subseq	r0, r0, r0
    13e0:	00540000 	subseq	r0, r4, r0
    13e4:	00010000 	andeq	r0, r1, r0
    13e8:	00000050 	andeq	r0, r0, r0, asr r0
    13ec:	00000000 	andeq	r0, r0, r0
    13f0:	00006000 	andeq	r6, r0, r0
    13f4:	00006c00 	andeq	r6, r0, r0, lsl #24
    13f8:	50000100 	andpl	r0, r0, r0, lsl #2
    13fc:	0000006c 	andeq	r0, r0, ip, rrx
    1400:	00000074 	andeq	r0, r0, r4, ror r0
    1404:	01f30004 	mvnseq	r0, r4
    1408:	00009f50 	andeq	r9, r0, r0, asr pc
    140c:	00000000 	andeq	r0, r0, r0
    1410:	00740000 	rsbseq	r0, r4, r0
    1414:	00800000 	addeq	r0, r0, r0
    1418:	00010000 	andeq	r0, r1, r0
    141c:	00008050 	andeq	r8, r0, r0, asr r0
    1420:	00008800 	andeq	r8, r0, r0, lsl #16
    1424:	f3000400 	vshl.u8	d0, d0, d0
    1428:	009f5001 	addseq	r5, pc, r1
    142c:	00000000 	andeq	r0, r0, r0
    1430:	38000000 	stmdacc	r0, {}	; <UNPREDICTABLE>
    1434:	43000001 	movwmi	r0, #1
    1438:	01000001 	tsteq	r0, r1
    143c:	01435000 	mrseq	r5, (UNDEF: 67)
    1440:	01680000 	cmneq	r8, r0
    1444:	00010000 	andeq	r0, r1, r0
    1448:	00000054 	andeq	r0, r0, r4, asr r0
	...
    1454:	00000f00 	andeq	r0, r0, r0, lsl #30
    1458:	50000100 	andpl	r0, r0, r0, lsl #2
    145c:	0000000f 	andeq	r0, r0, pc
    1460:	00000020 	andeq	r0, r0, r0, lsr #32
    1464:	00540001 	subseq	r0, r4, r1
	...
    1470:	0f000000 	svceq	0x00000000
    1474:	01000000 	mrseq	r0, (UNDEF: 0)
    1478:	000f5100 	andeq	r5, pc, r0, lsl #2
    147c:	00200000 	eoreq	r0, r0, r0
    1480:	00010000 	andeq	r0, r1, r0
    1484:	00000055 	andeq	r0, r0, r5, asr r0
    1488:	00000000 	andeq	r0, r0, r0
    148c:	0000ec00 	andeq	lr, r0, r0, lsl #24
    1490:	00010400 	andeq	r0, r1, r0, lsl #8
    1494:	50000100 	andpl	r0, r0, r0, lsl #2
    1498:	00000104 	andeq	r0, r0, r4, lsl #2
    149c:	00000114 	andeq	r0, r0, r4, lsl r1
    14a0:	01f30004 	mvnseq	r0, r4
    14a4:	01149f50 	tsteq	r4, r0, asr pc
    14a8:	01180000 	tsteq	r8, r0
    14ac:	00010000 	andeq	r0, r1, r0
    14b0:	00011850 	andeq	r1, r1, r0, asr r8
    14b4:	00012000 	andeq	r2, r1, r0
    14b8:	f3000400 	vshl.u8	d0, d0, d0
    14bc:	009f5001 	addseq	r5, pc, r1
    14c0:	00000000 	andeq	r0, r0, r0
    14c4:	f8000000 			; <UNDEFINED> instruction: 0xf8000000
    14c8:	04000000 	streq	r0, [r0], #-0
    14cc:	0b000001 	bleq	14d8 <__code_start__-0x6b28>
    14d0:	35007000 	strcc	r7, [r0, #-0]
    14d4:	80b42325 	adcshi	r2, r4, r5, lsr #6
    14d8:	9f028180 	svcls	0x00028180
    14dc:	00000104 	andeq	r0, r0, r4, lsl #2
    14e0:	00000107 	andeq	r0, r0, r7, lsl #2
    14e4:	07500001 	ldrbeq	r0, [r0, -r1]
    14e8:	14000001 	strne	r0, [r0], #-1
    14ec:	0c000001 	stceq	0, cr0, [r0], {1}
    14f0:	5001f300 	andpl	pc, r1, r0, lsl #6
    14f4:	b4232535 	strtlt	r2, [r3], #-1333	; 0x535
    14f8:	02818080 	addeq	r8, r1, #128	; 0x80
    14fc:	0000009f 	muleq	r0, pc, r0	; <UNPREDICTABLE>
    1500:	00000000 	andeq	r0, r0, r0
    1504:	0000fc00 	andeq	pc, r0, r0, lsl #24
    1508:	00011400 	andeq	r1, r1, r0, lsl #8
    150c:	54000100 	strpl	r0, [r0], #-256	; 0x100
	...
    1518:	000000d0 	ldrdeq	r0, [r0], -r0	; <UNPREDICTABLE>
    151c:	000000df 	ldrdeq	r0, [r0], -pc	; <UNPREDICTABLE>
    1520:	df500001 	svcle	0x00500001
    1524:	e4000000 	str	r0, [r0], #-0
    1528:	04000000 	streq	r0, [r0], #-0
    152c:	5001f300 	andpl	pc, r1, r0, lsl #6
    1530:	0000e49f 	muleq	r0, pc, r4	; <UNPREDICTABLE>
    1534:	0000e700 	andeq	lr, r0, r0, lsl #14
    1538:	50000100 	andpl	r0, r0, r0, lsl #2
    153c:	000000e7 	andeq	r0, r0, r7, ror #1
    1540:	000000ec 	andeq	r0, r0, ip, ror #1
    1544:	01f30004 	mvnseq	r0, r4
    1548:	00009f50 	andeq	r9, r0, r0, asr pc
    154c:	00000000 	andeq	r0, r0, r0
    1550:	00d00000 	sbcseq	r0, r0, r0
    1554:	00df0000 	sbcseq	r0, pc, r0
    1558:	00010000 	andeq	r0, r1, r0
    155c:	0000df51 	andeq	sp, r0, r1, asr pc
    1560:	0000e400 	andeq	lr, r0, r0, lsl #8
    1564:	f3000400 	vshl.u8	d0, d0, d0
    1568:	e49f5101 	ldr	r5, [pc], #257	; 1570 <__code_start__-0x6a90>
    156c:	e7000000 	str	r0, [r0, -r0]
    1570:	01000000 	mrseq	r0, (UNDEF: 0)
    1574:	00e75100 	rsceq	r5, r7, r0, lsl #2
    1578:	00ec0000 	rsceq	r0, ip, r0
    157c:	00040000 	andeq	r0, r4, r0
    1580:	9f5101f3 	svcls	0x005101f3
	...
    158c:	000000c0 	andeq	r0, r0, r0, asr #1
    1590:	000000cb 	andeq	r0, r0, fp, asr #1
    1594:	cb500001 	blgt	14015a0 <__bss_end__+0x13f6a28>
    1598:	d0000000 	andle	r0, r0, r0
    159c:	04000000 	streq	r0, [r0], #-0
    15a0:	5001f300 	andpl	pc, r1, r0, lsl #6
    15a4:	0000009f 	muleq	r0, pc, r0	; <UNPREDICTABLE>
    15a8:	00000000 	andeq	r0, r0, r0
    15ac:	00009c00 	andeq	r9, r0, r0, lsl #24
    15b0:	0000b400 	andeq	fp, r0, r0, lsl #8
    15b4:	50000100 	andpl	r0, r0, r0, lsl #2
    15b8:	000000b4 	strheq	r0, [r0], -r4
    15bc:	000000c0 	andeq	r0, r0, r0, asr #1
    15c0:	01f30004 	mvnseq	r0, r4
    15c4:	00009f50 	andeq	r9, r0, r0, asr pc
    15c8:	00000000 	andeq	r0, r0, r0
    15cc:	00780000 	rsbseq	r0, r8, r0
    15d0:	00900000 	addseq	r0, r0, r0
    15d4:	00010000 	andeq	r0, r1, r0
    15d8:	00009050 	andeq	r9, r0, r0, asr r0
    15dc:	00009c00 	andeq	r9, r0, r0, lsl #24
    15e0:	f3000400 	vshl.u8	d0, d0, d0
    15e4:	009f5001 	addseq	r5, pc, r1
    15e8:	00000000 	andeq	r0, r0, r0
    15ec:	68000000 	stmdavs	r0, {}	; <UNPREDICTABLE>
    15f0:	73000000 	movwvc	r0, #0
    15f4:	01000000 	mrseq	r0, (UNDEF: 0)
    15f8:	00735000 	rsbseq	r5, r3, r0
    15fc:	00780000 	rsbseq	r0, r8, r0
    1600:	00040000 	andeq	r0, r4, r0
    1604:	9f5001f3 	svcls	0x005001f3
	...
    1614:	00000048 	andeq	r0, r0, r8, asr #32
    1618:	48500001 	ldmdami	r0, {r0}^
    161c:	68000000 	stmdavs	r0, {}	; <UNPREDICTABLE>
    1620:	04000000 	streq	r0, [r0], #-0
    1624:	5001f300 	andpl	pc, r1, r0, lsl #6
    1628:	0000009f 	muleq	r0, pc, r0	; <UNPREDICTABLE>
	...
    1634:	00004b00 	andeq	r4, r0, r0, lsl #22
    1638:	51000100 	mrspl	r0, (UNDEF: 16)
    163c:	0000004b 	andeq	r0, r0, fp, asr #32
    1640:	00000068 	andeq	r0, r0, r8, rrx
    1644:	01f30004 	mvnseq	r0, r4
    1648:	00009f51 	andeq	r9, r0, r1, asr pc
    164c:	00000000 	andeq	r0, r0, r0
    1650:	004c0000 	subeq	r0, ip, r0
    1654:	00540000 	subseq	r0, r4, r0
    1658:	00010000 	andeq	r0, r1, r0
    165c:	00005450 	andeq	r5, r0, r0, asr r4
    1660:	00005800 	andeq	r5, r0, r0, lsl #16
    1664:	75000900 	strvc	r0, [r0, #-2304]	; 0x900
    1668:	24007400 	strcs	r7, [r0], #-1024	; 0x400
    166c:	9f210071 	svcls	0x00210071
    1670:	00000058 	andeq	r0, r0, r8, asr r0
    1674:	0000005f 	andeq	r0, r0, pc, asr r0
    1678:	00510001 	subseq	r0, r1, r1
    167c:	00000000 	andeq	r0, r0, r0
    1680:	e0000000 	and	r0, r0, r0
    1684:	1b000000 	blne	168c <__code_start__-0x6974>
    1688:	01000001 	tsteq	r0, r1
    168c:	011b5000 	tsteq	fp, r0
    1690:	01200000 	teqeq	r0, r0
    1694:	00040000 	andeq	r0, r4, r0
    1698:	9f5001f3 	svcls	0x005001f3
    169c:	00000120 	andeq	r0, r0, r0, lsr #2
    16a0:	00000123 	andeq	r0, r0, r3, lsr #2
    16a4:	23500001 	cmpcs	r0, #1
    16a8:	3c000001 	stccc	0, cr0, [r0], {1}
    16ac:	04000001 	streq	r0, [r0], #-1
    16b0:	5001f300 	andpl	pc, r1, r0, lsl #6
    16b4:	00013c9f 	muleq	r1, pc, ip	; <UNPREDICTABLE>
    16b8:	00013f00 	andeq	r3, r1, r0, lsl #30
    16bc:	50000100 	andpl	r0, r0, r0, lsl #2
    16c0:	0000013f 	andeq	r0, r0, pc, lsr r1
    16c4:	0000016c 	andeq	r0, r0, ip, ror #2
    16c8:	01f30004 	mvnseq	r0, r4
    16cc:	00009f50 	andeq	r9, r0, r0, asr pc
    16d0:	00000000 	andeq	r0, r0, r0
    16d4:	00e00000 	rsceq	r0, r0, r0
    16d8:	01080000 	mrseq	r0, (UNDEF: 8)
    16dc:	00010000 	andeq	r0, r1, r0
    16e0:	00010851 	andeq	r0, r1, r1, asr r8
    16e4:	00011b00 	andeq	r1, r1, r0, lsl #22
    16e8:	71000300 	mrsvc	r0, LR_irq
    16ec:	011b9f01 	tsteq	fp, r1, lsl #30
    16f0:	01200000 	teqeq	r0, r0
    16f4:	00040000 	andeq	r0, r4, r0
    16f8:	9f5101f3 	svcls	0x005101f3
    16fc:	00000120 	andeq	r0, r0, r0, lsr #2
    1700:	00000123 	andeq	r0, r0, r3, lsr #2
    1704:	23510001 	cmpcs	r1, #1
    1708:	6c000001 	stcvs	0, cr0, [r0], {1}
    170c:	04000001 	streq	r0, [r0], #-1
    1710:	5101f300 	mrspl	pc, SP_irq	; <UNPREDICTABLE>
    1714:	0000009f 	muleq	r0, pc, r0	; <UNPREDICTABLE>
    1718:	00000000 	andeq	r0, r0, r0
    171c:	0000f800 	andeq	pc, r0, r0, lsl #16
    1720:	0000fc00 	andeq	pc, r0, r0, lsl #24
    1724:	52000100 	andpl	r0, r0, #0, 2
    1728:	000000fc 	strdeq	r0, [r0], -ip
    172c:	00000104 	andeq	r0, r0, r4, lsl #2
    1730:	68030005 	stmdavs	r3, {r0, r2}
    1734:	0400009c 	streq	r0, [r0], #-156	; 0x9c
    1738:	1b000001 	blne	1744 <__code_start__-0x68bc>
    173c:	01000001 	tsteq	r0, r1
    1740:	013c5300 	teqeq	ip, r0, lsl #6
    1744:	013f0000 	teqeq	pc, r0
    1748:	00010000 	andeq	r0, r1, r0
    174c:	00000053 	andeq	r0, r0, r3, asr r0
    1750:	00000000 	andeq	r0, r0, r0
    1754:	00006c00 	andeq	r6, r0, r0, lsl #24
    1758:	00008000 	andeq	r8, r0, r0
    175c:	50000100 	andpl	r0, r0, r0, lsl #2
    1760:	00000080 	andeq	r0, r0, r0, lsl #1
    1764:	0000009b 	muleq	r0, fp, r0
    1768:	9b520001 	blls	1481774 <__bss_end__+0x1476bfc>
    176c:	a4000000 	strge	r0, [r0], #-0
    1770:	09000000 	stmdbeq	r0, {}	; <UNPREDICTABLE>
    1774:	5001f300 	andpl	pc, r1, r0, lsl #6
    1778:	f8090723 			; <UNDEFINED> instruction: 0xf8090723
    177c:	00a49f1a 	adceq	r9, r4, sl, lsl pc
    1780:	00a70000 	adceq	r0, r7, r0
    1784:	00010000 	andeq	r0, r1, r0
    1788:	0000a750 	andeq	sl, r0, r0, asr r7
    178c:	0000d000 	andeq	sp, r0, r0
    1790:	f3000400 	vshl.u8	d0, d0, d0
    1794:	009f5001 	addseq	r5, pc, r1
    1798:	00000000 	andeq	r0, r0, r0
    179c:	88000000 	stmdahi	r0, {}	; <UNPREDICTABLE>
    17a0:	a4000000 	strge	r0, [r0], #-0
    17a4:	01000000 	mrseq	r0, (UNDEF: 0)
    17a8:	00005400 	andeq	r5, r0, r0, lsl #8
    17ac:	00000000 	andeq	r0, r0, r0
    17b0:	001c0000 	andseq	r0, ip, r0
    17b4:	00430000 	subeq	r0, r3, r0
    17b8:	00010000 	andeq	r0, r1, r0
    17bc:	00004350 	andeq	r4, r0, r0, asr r3
    17c0:	00006c00 	andeq	r6, r0, r0, lsl #24
    17c4:	f3000400 	vshl.u8	d0, d0, d0
    17c8:	009f5001 	addseq	r5, pc, r1
    17cc:	00000000 	andeq	r0, r0, r0
    17d0:	1c000000 	stcne	0, cr0, [r0], {-0}
    17d4:	43000000 	movwmi	r0, #0
    17d8:	01000000 	mrseq	r0, (UNDEF: 0)
    17dc:	00435000 	subeq	r5, r3, r0
    17e0:	006c0000 	rsbeq	r0, ip, r0
    17e4:	00040000 	andeq	r0, r4, r0
    17e8:	9f5001f3 	svcls	0x005001f3
	...

Disassembly of section .debug_aranges:

00000000 <.debug_aranges>:
   0:	0000001c 	andeq	r0, r0, ip, lsl r0
   4:	00000002 	andeq	r0, r0, r2
   8:	00040000 	andeq	r0, r4, r0
   c:	00000000 	andeq	r0, r0, r0
  10:	00008010 	andeq	r8, r0, r0, lsl r0
  14:	000000b4 	strheq	r0, [r0], -r4
	...
  20:	0000001c 	andeq	r0, r0, ip, lsl r0
  24:	02b30002 	adcseq	r0, r3, #2
  28:	00040000 	andeq	r0, r4, r0
  2c:	00000000 	andeq	r0, r0, r0
  30:	000080c4 	andeq	r8, r0, r4, asr #1
  34:	0000083c 	andeq	r0, r0, ip, lsr r8
	...
  40:	0000001c 	andeq	r0, r0, ip, lsl r0
  44:	132f0002 	teqne	pc, #2
  48:	00040000 	andeq	r0, r4, r0
  4c:	00000000 	andeq	r0, r0, r0
  50:	00008900 	andeq	r8, r0, r0, lsl #18
  54:	0000068c 	andeq	r0, r0, ip, lsl #13
	...
  60:	0000001c 	andeq	r0, r0, ip, lsl r0
  64:	20a00002 	adccs	r0, r0, r2
  68:	00040000 	andeq	r0, r4, r0
  6c:	00000000 	andeq	r0, r0, r0
  70:	00008f94 	muleq	r0, r4, pc	; <UNPREDICTABLE>
  74:	000000f0 	strdeq	r0, [r0], -r0	; <UNPREDICTABLE>
	...
  80:	0000001c 	andeq	r0, r0, ip, lsl r0
  84:	21b60002 			; <UNDEFINED> instruction: 0x21b60002
  88:	00040000 	andeq	r0, r4, r0
  8c:	00000000 	andeq	r0, r0, r0
  90:	00009084 	andeq	r9, r0, r4, lsl #1
  94:	00000020 	andeq	r0, r0, r0, lsr #32
	...
  a0:	0000001c 	andeq	r0, r0, ip, lsl r0
  a4:	22950002 	addscs	r0, r5, #2
  a8:	00040000 	andeq	r0, r4, r0
  ac:	00000000 	andeq	r0, r0, r0
  b0:	000090a4 	andeq	r9, r0, r4, lsr #1
  b4:	00000058 	andeq	r0, r0, r8, asr r0
	...
  c0:	0000001c 	andeq	r0, r0, ip, lsl r0
  c4:	242a0002 	strtcs	r0, [sl], #-2
  c8:	00040000 	andeq	r0, r4, r0
  cc:	00000000 	andeq	r0, r0, r0
  d0:	000090fc 	strdeq	r9, [r0], -ip
  d4:	0000003c 	andeq	r0, r0, ip, lsr r0
	...
  e0:	0000001c 	andeq	r0, r0, ip, lsl r0
  e4:	25410002 	strbcs	r0, [r1, #-2]
  e8:	00040000 	andeq	r0, r4, r0
  ec:	00000000 	andeq	r0, r0, r0
  f0:	00009138 	andeq	r9, r0, r8, lsr r1
  f4:	00000034 	andeq	r0, r0, r4, lsr r0
	...
 100:	0000001c 	andeq	r0, r0, ip, lsl r0
 104:	26330002 	ldrtcs	r0, [r3], -r2
 108:	00040000 	andeq	r0, r4, r0
 10c:	00000000 	andeq	r0, r0, r0
 110:	0000916c 	andeq	r9, r0, ip, ror #2
 114:	0000050c 	andeq	r0, r0, ip, lsl #10
	...
 120:	0000001c 	andeq	r0, r0, ip, lsl r0
 124:	2cb80002 	ldccs	0, cr0, [r8], #8
 128:	00040000 	andeq	r0, r4, r0
 12c:	00000000 	andeq	r0, r0, r0
 130:	00009678 	andeq	r9, r0, r8, ror r6
 134:	00000028 	andeq	r0, r0, r8, lsr #32
	...
 140:	0000001c 	andeq	r0, r0, ip, lsl r0
 144:	2dbb0002 	ldccs	0, cr0, [fp, #8]!
 148:	00040000 	andeq	r0, r4, r0
 14c:	00000000 	andeq	r0, r0, r0
 150:	000096a0 	andeq	r9, r0, r0, lsr #13
 154:	00000034 	andeq	r0, r0, r4, lsr r0
	...
 160:	0000001c 	andeq	r0, r0, ip, lsl r0
 164:	2ebe0002 	cdpcs	0, 11, cr0, cr14, cr2, {0}
 168:	00040000 	andeq	r0, r4, r0
 16c:	00000000 	andeq	r0, r0, r0
 170:	000096d4 	ldrdeq	r9, [r0], -r4
 174:	00000074 	andeq	r0, r0, r4, ror r0
	...
 180:	0000001c 	andeq	r0, r0, ip, lsl r0
 184:	306f0002 	rsbcc	r0, pc, r2
 188:	00040000 	andeq	r0, r4, r0
 18c:	00000000 	andeq	r0, r0, r0
 190:	00009748 	andeq	r9, r0, r8, asr #14
 194:	00000088 	andeq	r0, r0, r8, lsl #1
	...
 1a0:	0000001c 	andeq	r0, r0, ip, lsl r0
 1a4:	324b0002 	subcc	r0, fp, #2
 1a8:	00040000 	andeq	r0, r4, r0
 1ac:	00000000 	andeq	r0, r0, r0
 1b0:	0000981c 	andeq	r9, r0, ip, lsl r8
 1b4:	00000178 	andeq	r0, r0, r8, ror r1
	...
 1c0:	0000001c 	andeq	r0, r0, ip, lsl r0
 1c4:	3f140002 	svccc	0x00140002
 1c8:	00040000 	andeq	r0, r4, r0
 1cc:	00000000 	andeq	r0, r0, r0
 1d0:	00009994 	muleq	r0, r4, r9
 1d4:	00000120 	andeq	r0, r0, r0, lsr #2
	...
 1e0:	0000001c 	andeq	r0, r0, ip, lsl r0
 1e4:	4a880002 	bmi	fe2001f4 <__bss_end__+0xfe1f567c>
 1e8:	00040000 	andeq	r0, r4, r0
 1ec:	00000000 	andeq	r0, r0, r0
 1f0:	00009ab4 			; <UNDEFINED> instruction: 0x00009ab4
 1f4:	00000194 	muleq	r0, r4, r1
	...

Disassembly of section .debug_ranges:

00000000 <.debug_ranges>:
   0:	00000004 	andeq	r0, r0, r4
   4:	00000008 	andeq	r0, r0, r8
   8:	0000000c 	andeq	r0, r0, ip
   c:	00000060 	andeq	r0, r0, r0, rrx
	...
  18:	0000000c 	andeq	r0, r0, ip
  1c:	00000020 	andeq	r0, r0, r0, lsr #32
  20:	00000024 	andeq	r0, r0, r4, lsr #32
  24:	00000050 	andeq	r0, r0, r0, asr r0
  28:	00000054 	andeq	r0, r0, r4, asr r0
  2c:	00000058 	andeq	r0, r0, r8, asr r0
	...
  38:	0000060c 	andeq	r0, r0, ip, lsl #12
  3c:	00000614 	andeq	r0, r0, r4, lsl r6
  40:	00000618 	andeq	r0, r0, r8, lsl r6
  44:	000006c4 	andeq	r0, r0, r4, asr #13
	...
  50:	00000358 	andeq	r0, r0, r8, asr r3
  54:	0000036c 	andeq	r0, r0, ip, ror #6
  58:	00000370 	andeq	r0, r0, r0, ror r3
  5c:	0000037c 	andeq	r0, r0, ip, ror r3
	...
  68:	00000400 	andeq	r0, r0, r0, lsl #8
  6c:	0000040c 	andeq	r0, r0, ip, lsl #8
  70:	00000428 	andeq	r0, r0, r8, lsr #8
  74:	00000460 	andeq	r0, r0, r0, ror #8
	...
  80:	000002a8 	andeq	r0, r0, r8, lsr #5
  84:	000002ac 	andeq	r0, r0, ip, lsr #5
  88:	000002dc 	ldrdeq	r0, [r0], -ip
  8c:	000004cc 	andeq	r0, r0, ip, asr #9
	...
  98:	000096d4 	ldrdeq	r9, [r0], -r4
  9c:	00009748 	andeq	r9, r0, r8, asr #14
	...

Disassembly of section .debug_line:

00000000 <.debug_line>:
       0:	00000192 	muleq	r0, r2, r1
       4:	014c0002 	cmpeq	ip, r2
       8:	01020000 	mrseq	r0, (UNDEF: 2)
       c:	000d0efb 	strdeq	r0, [sp], -fp
      10:	01010101 	tsteq	r1, r1, lsl #2
      14:	01000000 	mrseq	r0, (UNDEF: 0)
      18:	74010000 	strvc	r0, [r1], #-0
      1c:	73747365 	cmnvc	r4, #-1811939327	; 0x94000001
      20:	73752f00 	cmnvc	r5, #0, 30
      24:	6f6c2f72 	svcvs	0x006c2f72
      28:	2f6c6163 	svccs	0x006c6163
      2c:	6c6c6543 	cfstr64vs	mvdx6, [ip], #-268	; 0xfffffef4
      30:	612f7261 	teqvs	pc, r1, ror #4
      34:	6e2d6d72 	mcrvs	13, 1, r6, cr13, cr2, {3}
      38:	2d656e6f 	stclcs	14, cr6, [r5, #-444]!	; 0xfffffe44
      3c:	69626165 	stmdbvs	r2!, {r0, r2, r5, r6, r8, sp, lr}^
      40:	382e342f 	stmdacc	lr!, {r0, r1, r2, r3, r5, sl, ip, sp}
      44:	632d332e 	teqvs	sp, #-1207959552	; 0xb8000000
      48:	30373173 	eorscc	r3, r7, r3, ror r1
      4c:	696c2f65 	stmdbvs	ip!, {r0, r2, r5, r6, r8, r9, sl, fp, sp}^
      50:	63672f62 	cmnvs	r7, #392	; 0x188
      54:	72612f63 	rsbvc	r2, r1, #396	; 0x18c
      58:	6f6e2d6d 	svcvs	0x006e2d6d
      5c:	652d656e 	strvs	r6, [sp, #-1390]!	; 0x56e
      60:	2f696261 	svccs	0x00696261
      64:	2e382e34 	mrccs	14, 1, r2, cr8, cr4, {1}
      68:	6e692f33 	mcrvs	15, 3, r2, cr9, cr3, {1}
      6c:	64756c63 	ldrbtvs	r6, [r5], #-3171	; 0xc63
      70:	002e0065 	eoreq	r0, lr, r5, rrx
      74:	7273752f 	rsbsvc	r7, r3, #197132288	; 0xbc00000
      78:	636f6c2f 	cmnvs	pc, #12032	; 0x2f00
      7c:	432f6c61 	teqmi	pc, #24832	; 0x6100
      80:	616c6c65 	cmnvs	ip, r5, ror #24
      84:	72612f72 	rsbvc	r2, r1, #456	; 0x1c8
      88:	6f6e2d6d 	svcvs	0x006e2d6d
      8c:	652d656e 	strvs	r6, [sp, #-1390]!	; 0x56e
      90:	2f696261 	svccs	0x00696261
      94:	2e382e34 	mrccs	14, 1, r2, cr8, cr4, {1}
      98:	73632d33 	cmnvc	r3, #3264	; 0xcc0
      9c:	65303731 	ldrvs	r3, [r0, #-1841]!	; 0x731
      a0:	6d72612f 	ldfvse	f6, [r2, #-188]!	; 0xffffff44
      a4:	6e6f6e2d 	cdpvs	14, 6, cr6, cr15, cr13, {1}
      a8:	61652d65 	cmnvs	r5, r5, ror #26
      ac:	692f6962 	stmdbvs	pc!, {r1, r5, r6, r8, fp, sp, lr}	; <UNPREDICTABLE>
      b0:	756c636e 	strbvc	r6, [ip, #-878]!	; 0x36e
      b4:	2f006564 	svccs	0x00006564
      b8:	72657355 	rsbvc	r7, r5, #1409286145	; 0x54000001
      bc:	72622f73 	rsbvc	r2, r2, #460	; 0x1cc
      c0:	6a6e6169 	bvs	1b9866c <__bss_end__+0x1b8daf4>
      c4:	442f6e75 	strtmi	r6, [pc], #-3701	; cc <__code_start__-0x7f34>
      c8:	746b7365 	strbtvc	r7, [fp], #-869	; 0x365
      cc:	732f706f 	teqvc	pc, #111	; 0x6f
      d0:	6f6f6863 	svcvs	0x006f6863
      d4:	70532f6c 	subsvc	r2, r3, ip, ror #30
      d8:	676e6972 			; <UNDEFINED> instruction: 0x676e6972
      dc:	30323931 	eorscc	r3, r2, r1, lsr r9
      e0:	3253432f 	subscc	r4, r3, #-1140850688	; 0xbc000000
      e4:	584c3034 	stmdapl	ip, {r2, r4, r5, ip, sp}^
      e8:	3273632f 	rsbscc	r6, r3, #-1140850688	; 0xbc000000
      ec:	786c3034 	stmdavc	ip!, {r2, r4, r5, ip, sp}^
      f0:	7330322d 	teqvc	r0, #-805306366	; 0xd0000002
      f4:	6c2f7270 	sfmvs	f7, 4, [pc], #-448	; ffffff3c <__bss_end__+0xffff53c4>
      f8:	69706269 	ldmdbvs	r0!, {r0, r3, r5, r6, r9, sp, lr}^
      fc:	636e692f 	cmnvs	lr, #770048	; 0xbc000
     100:	6564756c 	strbvs	r7, [r4, #-1388]!	; 0x56c
     104:	61700000 	cmnvs	r0, r0
     108:	2d327472 	cfldrscs	mvf7, [r2, #-456]!	; 0xfffffe38
     10c:	74736574 	ldrbtvc	r6, [r3], #-1396	; 0x574
     110:	00632e33 	rsbeq	r2, r3, r3, lsr lr
     114:	73000001 	movwvc	r0, #1
     118:	65646474 	strbvs	r6, [r4, #-1140]!	; 0x474
     11c:	00682e66 	rsbeq	r2, r8, r6, ror #28
     120:	73000002 	movwvc	r0, #2
     124:	6e696474 	mcrvs	4, 3, r6, cr9, cr4, {3}
     128:	63672d74 	cmnvs	r7, #116, 26	; 0x1d00
     12c:	00682e63 	rsbeq	r2, r8, r3, ror #28
     130:	63000002 	movwvs	r0, #2
     134:	6c6c616b 	stfvse	f6, [ip], #-428	; 0xfffffe54
     138:	682e636f 	stmdavs	lr!, {r0, r1, r2, r3, r5, r6, r8, r9, sp, lr}
     13c:	00000300 	andeq	r0, r0, r0, lsl #6
     140:	69727473 	ldmdbvs	r2!, {r0, r1, r4, r5, r6, sl, ip, sp, lr}^
     144:	682e676e 	stmdavs	lr!, {r1, r2, r3, r5, r6, r8, r9, sl, sp, lr}
     148:	00000400 	andeq	r0, r0, r0, lsl #8
     14c:	2e697072 	mcrcs	0, 3, r7, cr9, cr2, {3}
     150:	00050068 	andeq	r0, r5, r8, rrx
     154:	05000000 	streq	r0, [r0, #-0]
     158:	00801002 	addeq	r1, r0, r2
     15c:	010a0300 	mrseq	r0, (UNDEF: 58)
     160:	83312c34 	teqhi	r1, #52, 24	; 0x3400
     164:	0402002c 	streq	r0, [r2], #-44	; 0x2c
     168:	02002f02 	andeq	r2, r0, #2, 30
     16c:	00bb0204 	adcseq	r0, fp, r4, lsl #4
     170:	67020402 	strvs	r0, [r2, -r2, lsl #8]
     174:	02040200 	andeq	r0, r4, #0, 4
     178:	0402002f 	streq	r0, [r2], #-47	; 0x2f
     17c:	02002a02 	andeq	r2, r0, #8192	; 0x2000
     180:	00330204 	eorseq	r0, r3, r4, lsl #4
     184:	29010402 	stmdbcs	r1, {r1, sl}
     188:	314a0c03 	cmpcc	sl, r3, lsl #24
     18c:	4c4d2f85 	mcrrmi	15, 8, r2, sp, cr5
     190:	000e0286 	andeq	r0, lr, r6, lsl #5
     194:	02e40101 	rsceq	r0, r4, #1073741824	; 0x40000000
     198:	00020000 	andeq	r0, r2, r0
     19c:	000001a4 	andeq	r0, r0, r4, lsr #3
     1a0:	0efb0102 	cdpeq	1, 15, cr0, cr11, cr2, {0}
     1a4:	0101000d 	tsteq	r1, sp
     1a8:	00000101 	andeq	r0, r0, r1, lsl #2
     1ac:	00000100 	andeq	r0, r0, r0, lsl #2
     1b0:	73752f01 	cmnvc	r5, #1, 30
     1b4:	6f6c2f72 	svcvs	0x006c2f72
     1b8:	2f6c6163 	svccs	0x006c6163
     1bc:	6c6c6543 	cfstr64vs	mvdx6, [ip], #-268	; 0xfffffef4
     1c0:	612f7261 	teqvs	pc, r1, ror #4
     1c4:	6e2d6d72 	mcrvs	13, 1, r6, cr13, cr2, {3}
     1c8:	2d656e6f 	stclcs	14, cr6, [r5, #-444]!	; 0xfffffe44
     1cc:	69626165 	stmdbvs	r2!, {r0, r2, r5, r6, r8, sp, lr}^
     1d0:	382e342f 	stmdacc	lr!, {r0, r1, r2, r3, r5, sl, ip, sp}
     1d4:	632d332e 	teqvs	sp, #-1207959552	; 0xb8000000
     1d8:	30373173 	eorscc	r3, r7, r3, ror r1
     1dc:	696c2f65 	stmdbvs	ip!, {r0, r2, r5, r6, r8, r9, sl, fp, sp}^
     1e0:	63672f62 	cmnvs	r7, #392	; 0x188
     1e4:	72612f63 	rsbvc	r2, r1, #396	; 0x18c
     1e8:	6f6e2d6d 	svcvs	0x006e2d6d
     1ec:	652d656e 	strvs	r6, [sp, #-1390]!	; 0x56e
     1f0:	2f696261 	svccs	0x00696261
     1f4:	2e382e34 	mrccs	14, 1, r2, cr8, cr4, {1}
     1f8:	6e692f33 	mcrvs	15, 3, r2, cr9, cr3, {1}
     1fc:	64756c63 	ldrbtvs	r6, [r5], #-3171	; 0xc63
     200:	552f0065 	strpl	r0, [pc, #-101]!	; 1a3 <__code_start__-0x7e5d>
     204:	73726573 	cmnvc	r2, #482344960	; 0x1cc00000
     208:	6972622f 	ldmdbvs	r2!, {r0, r1, r2, r3, r5, r9, sp, lr}^
     20c:	756a6e61 	strbvc	r6, [sl, #-3681]!	; 0xe61
     210:	65442f6e 	strbvs	r2, [r4, #-3950]	; 0xf6e
     214:	6f746b73 	svcvs	0x00746b73
     218:	63732f70 	cmnvs	r3, #112, 30	; 0x1c0
     21c:	6c6f6f68 	stclvs	15, cr6, [pc], #-416	; 84 <__code_start__-0x7f7c>
     220:	7270532f 	rsbsvc	r5, r0, #-1140850688	; 0xbc000000
     224:	31676e69 	cmncc	r7, r9, ror #28
     228:	2f303239 	svccs	0x00303239
     22c:	34325343 	ldrtcc	r5, [r2], #-835	; 0x343
     230:	2f584c30 	svccs	0x00584c30
     234:	34327363 	ldrtcc	r7, [r2], #-867	; 0x363
     238:	2d786c30 	ldclcs	12, cr6, [r8, #-192]!	; 0xffffff40
     23c:	70733032 	rsbsvc	r3, r3, r2, lsr r0
     240:	696c2f72 	stmdbvs	ip!, {r1, r4, r5, r6, r8, r9, sl, fp, sp}^
     244:	2f697062 	svccs	0x00697062
     248:	6c636e69 	stclvs	14, cr6, [r3], #-420	; 0xfffffe5c
     24c:	00656475 	rsbeq	r6, r5, r5, ror r4
     250:	7273752f 	rsbsvc	r7, r3, #197132288	; 0xbc00000
     254:	636f6c2f 	cmnvs	pc, #12032	; 0x2f00
     258:	432f6c61 	teqmi	pc, #24832	; 0x6100
     25c:	616c6c65 	cmnvs	ip, r5, ror #24
     260:	72612f72 	rsbvc	r2, r1, #456	; 0x1c8
     264:	6f6e2d6d 	svcvs	0x006e2d6d
     268:	652d656e 	strvs	r6, [sp, #-1390]!	; 0x56e
     26c:	2f696261 	svccs	0x00696261
     270:	2e382e34 	mrccs	14, 1, r2, cr8, cr4, {1}
     274:	73632d33 	cmnvc	r3, #3264	; 0xcc0
     278:	65303731 	ldrvs	r3, [r0, #-1841]!	; 0x731
     27c:	6d72612f 	ldfvse	f6, [r2, #-188]!	; 0xffffff44
     280:	6e6f6e2d 	cdpvs	14, 6, cr6, cr15, cr13, {1}
     284:	61652d65 	cmnvs	r5, r5, ror #26
     288:	692f6962 	stmdbvs	pc!, {r1, r5, r6, r8, fp, sp, lr}	; <UNPREDICTABLE>
     28c:	756c636e 	strbvc	r6, [ip, #-878]!	; 0x36e
     290:	2f006564 	svccs	0x00006564
     294:	72657355 	rsbvc	r7, r5, #1409286145	; 0x54000001
     298:	72622f73 	rsbvc	r2, r2, #460	; 0x1cc
     29c:	6a6e6169 	bvs	1b98848 <__bss_end__+0x1b8dcd0>
     2a0:	442f6e75 	strtmi	r6, [pc], #-3701	; 2a8 <__code_start__-0x7d58>
     2a4:	746b7365 	strbtvc	r7, [fp], #-869	; 0x365
     2a8:	732f706f 	teqvc	pc, #111	; 0x6f
     2ac:	6f6f6863 	svcvs	0x006f6863
     2b0:	70532f6c 	subsvc	r2, r3, ip, ror #30
     2b4:	676e6972 			; <UNDEFINED> instruction: 0x676e6972
     2b8:	30323931 	eorscc	r3, r2, r1, lsr r9
     2bc:	3253432f 	subscc	r4, r3, #-1140850688	; 0xbc000000
     2c0:	584c3034 	stmdapl	ip, {r2, r4, r5, ip, sp}^
     2c4:	3273632f 	rsbscc	r6, r3, #-1140850688	; 0xbc000000
     2c8:	786c3034 	stmdavc	ip!, {r2, r4, r5, ip, sp}^
     2cc:	7330322d 	teqvc	r0, #-805306366	; 0xd0000002
     2d0:	6c2f7270 	sfmvs	f7, 4, [pc], #-448	; 118 <__code_start__-0x7ee8>
     2d4:	69706269 	ldmdbvs	r0!, {r0, r3, r5, r6, r9, sp, lr}^
     2d8:	62696c2f 	rsbvs	r6, r9, #12032	; 0x2f00
     2dc:	63000063 	movwvs	r0, #99	; 0x63
     2e0:	6c6c616b 	stfvse	f6, [ip], #-428	; 0xfffffe54
     2e4:	632e636f 	teqvs	lr, #-1140850687	; 0xbc000001
     2e8:	00000000 	andeq	r0, r0, r0
     2ec:	6c616b63 	stclvs	11, cr6, [r1], #-396	; 0xfffffe74
     2f0:	2d636f6c 	stclcs	15, cr6, [r3, #-432]!	; 0xfffffe50
     2f4:	65746e69 	ldrbvs	r6, [r4, #-3689]!	; 0xe69
     2f8:	6c616e72 	stclvs	14, cr6, [r1], #-456	; 0xfffffe38
     2fc:	0000682e 	andeq	r6, r0, lr, lsr #16
     300:	74730000 	ldrbtvc	r0, [r3], #-0
     304:	66656464 	strbtvs	r6, [r5], -r4, ror #8
     308:	0100682e 	tsteq	r0, lr, lsr #16
     30c:	74730000 	ldrbtvc	r0, [r3], #-0
     310:	746e6964 	strbtvc	r6, [lr], #-2404	; 0x964
     314:	6363672d 	cmnvs	r3, #11796480	; 0xb40000
     318:	0100682e 	tsteq	r0, lr, lsr #16
     31c:	70720000 	rsbsvc	r0, r2, r0
     320:	00682e69 	rsbeq	r2, r8, r9, ror #28
     324:	73000002 	movwvc	r0, #2
     328:	6e697274 	mcrvs	2, 3, r7, cr9, cr4, {3}
     32c:	00682e67 	rsbeq	r2, r8, r7, ror #28
     330:	6c000003 	stcvs	0, cr0, [r0], {3}
     334:	2d636269 	sfmcs	f6, 2, [r3, #-420]!	; 0xfffffe5c
     338:	72747865 	rsbsvc	r7, r4, #6619136	; 0x650000
     33c:	00682e61 	rsbeq	r2, r8, r1, ror #28
     340:	00000004 	andeq	r0, r0, r4
     344:	c4020500 	strgt	r0, [r2], #-1280	; 0x500
     348:	03000080 	movweq	r0, #128	; 0x80
     34c:	4b4c0133 	blmi	1300820 <__bss_end__+0x12f5ca8>
     350:	042f2f83 	strteq	r2, [pc], #-3971	; 358 <__code_start__-0x7ca8>
     354:	00ca0302 	sbceq	r0, sl, r2, lsl #6
     358:	67a02008 	strvs	r2, [r0, r8]!
     35c:	0104bbd9 	ldrdeq	fp, [r4, -r9]
     360:	d67fb003 	ldrbtle	fp, [pc], -r3
     364:	4a7a0367 	bmi	1e81108 <__bss_end__+0x1e76590>
     368:	01040200 	mrseq	r0, R12_usr
     36c:	03062e06 	movweq	r2, #28166	; 0x6e06
     370:	f42f4a09 	vld1.8	{d4-d5}, [pc], r9
     374:	6656034b 	ldrbvs	r0, [r6], -fp, asr #6
     378:	2f2f2f4b 	svccs	0x002f2f4b
     37c:	2f2f4b2f 	svccs	0x002f4b2f
     380:	2f2f4b2f 	svccs	0x002f4b2f
     384:	4b31302f 	blmi	c4c448 <__bss_end__+0xc418d0>
     388:	04020031 	streq	r0, [r2], #-49	; 0x31
     38c:	06660601 	strbteq	r0, [r6], -r1, lsl #12
     390:	040200d7 	streq	r0, [r2], #-215	; 0xd7
     394:	06820601 	streq	r0, [r2], r1, lsl #12
     398:	ba1a03d8 	blt	681300 <__bss_end__+0x676788>
     39c:	0449304c 	strbeq	r3, [r9], #-76	; 0x4c
     3a0:	ba0c0302 	blt	300fb0 <__bss_end__+0x2f6438>
     3a4:	0301044c 	movweq	r0, #5196	; 0x144c
     3a8:	91082e73 	tstls	r8, r3, ror lr
     3ac:	2e7fbb03 	vaddcs.f64	d27, d15, d3
     3b0:	04020067 	streq	r0, [r2], #-103	; 0x67
     3b4:	06820601 	streq	r0, [r2], r1, lsl #12
     3b8:	4b6783d7 	blmi	19e131c <__bss_end__+0x19d67a4>
     3bc:	034b2f2f 	movteq	r2, #48943	; 0xbf2f
     3c0:	a0d600c4 	sbcsge	r0, r6, r4, asr #1
     3c4:	01040200 	mrseq	r0, R12_usr
     3c8:	d7068206 	strle	r8, [r6, -r6, lsl #4]
     3cc:	6a8530a0 	bvs	fe14c654 <__bss_end__+0xfe141adc>
     3d0:	2f2f684c 	svccs	0x002f684c
     3d4:	4008a030 	andmi	sl, r8, r0, lsr r0
     3d8:	040200be 	streq	r0, [r2], #-190	; 0xbe
     3dc:	06820601 	streq	r0, [r2], r1, lsl #12
     3e0:	314ba0d7 	ldrdcc	sl, [fp, #-7]
     3e4:	bb92084b 	bllt	fe482518 <__bss_end__+0xfe4779a0>
     3e8:	4c162a02 	ldcmi	10, cr2, [r6], {2}
     3ec:	674c4b2f 	strbvs	r4, [ip, -pc, lsr #22]
     3f0:	302f2f30 	eorcc	r2, pc, r0, lsr pc	; <UNPREDICTABLE>
     3f4:	03020468 	movweq	r0, #9320	; 0x2468
     3f8:	044c6645 	strbeq	r6, [ip], #-1605	; 0x645
     3fc:	2e3a0301 	cdpcs	3, 3, cr0, cr10, cr1, {0}
     400:	0402006a 	streq	r0, [r2], #-106	; 0x6a
     404:	06820601 	streq	r0, [r2], r1, lsl #12
     408:	040200d7 	streq	r0, [r2], #-215	; 0xd7
     40c:	06820601 	streq	r0, [r2], r1, lsl #12
     410:	2202d8d7 	andcs	sp, r2, #14090240	; 0xd70000
     414:	4c832f17 	stcmi	15, cr2, [r3], {23}
     418:	322d2cbf 	eorcc	r2, sp, #48896	; 0xbf00
     41c:	032e0c03 	teqeq	lr, #768	; 0x300
     420:	002f4a74 	eoreq	r4, pc, r4, ror sl	; <UNPREDICTABLE>
     424:	06010402 	streq	r0, [r1], -r2, lsl #8
     428:	83d8064a 	bicshi	r0, r8, #77594624	; 0x4a00000
     42c:	00302f83 	eorseq	r2, r0, r3, lsl #31
     430:	06010402 	streq	r0, [r1], -r2, lsl #8
     434:	67300666 	ldrvs	r0, [r0, -r6, ror #12]!
     438:	9f3283bb 	svcls	0x003283bb
     43c:	01040200 	mrseq	r0, R12_usr
     440:	032e6e03 	teqeq	lr, #3, 28	; 0x30
     444:	d84b6616 	stmdale	fp, {r1, r2, r4, r9, sl, sp, lr}^
     448:	2f7908a0 	svccs	0x007908a0
     44c:	0402004d 	streq	r0, [r2], #-77	; 0x4d
     450:	06820601 	streq	r0, [r2], r1, lsl #12
     454:	0204bdd8 	andeq	fp, r4, #216, 26	; 0x3600
     458:	2e7f8d03 	cdpcs	13, 7, cr8, cr15, cr3, {0}
     45c:	f4030104 	vst4.8	{d0,d2,d4,d6}, [r3], r4
     460:	85348200 	ldrhi	r8, [r4, #-512]!	; 0x200
     464:	01040200 	mrseq	r0, R12_usr
     468:	d7062e06 	strle	r2, [r6, -r6, lsl #28]
     46c:	01040200 	mrseq	r0, R12_usr
     470:	d3068206 	movwle	r8, #25094	; 0x6206
     474:	2fbc2f4e 	svccs	0x00bc2f4e
     478:	00060267 	andeq	r0, r6, r7, ror #4
     47c:	021b0101 	andseq	r0, fp, #1073741824	; 0x40000000
     480:	00020000 	andeq	r0, r2, r0
     484:	000000f9 	strdeq	r0, [r0], -r9
     488:	0efb0102 	cdpeq	1, 15, cr0, cr11, cr2, {0}
     48c:	0101000d 	tsteq	r1, sp
     490:	00000101 	andeq	r0, r0, r1, lsl #2
     494:	00000100 	andeq	r0, r0, r0, lsl #2
     498:	73752f01 	cmnvc	r5, #1, 30
     49c:	6f6c2f72 	svcvs	0x006c2f72
     4a0:	2f6c6163 	svccs	0x006c6163
     4a4:	6c6c6543 	cfstr64vs	mvdx6, [ip], #-268	; 0xfffffef4
     4a8:	612f7261 	teqvs	pc, r1, ror #4
     4ac:	6e2d6d72 	mcrvs	13, 1, r6, cr13, cr2, {3}
     4b0:	2d656e6f 	stclcs	14, cr6, [r5, #-444]!	; 0xfffffe44
     4b4:	69626165 	stmdbvs	r2!, {r0, r2, r5, r6, r8, sp, lr}^
     4b8:	382e342f 	stmdacc	lr!, {r0, r1, r2, r3, r5, sl, ip, sp}
     4bc:	632d332e 	teqvs	sp, #-1207959552	; 0xb8000000
     4c0:	30373173 	eorscc	r3, r7, r3, ror r1
     4c4:	696c2f65 	stmdbvs	ip!, {r0, r2, r5, r6, r8, r9, sl, fp, sp}^
     4c8:	63672f62 	cmnvs	r7, #392	; 0x188
     4cc:	72612f63 	rsbvc	r2, r1, #396	; 0x18c
     4d0:	6f6e2d6d 	svcvs	0x006e2d6d
     4d4:	652d656e 	strvs	r6, [sp, #-1390]!	; 0x56e
     4d8:	2f696261 	svccs	0x00696261
     4dc:	2e382e34 	mrccs	14, 1, r2, cr8, cr4, {1}
     4e0:	6e692f33 	mcrvs	15, 3, r2, cr9, cr3, {1}
     4e4:	64756c63 	ldrbtvs	r6, [r5], #-3171	; 0xc63
     4e8:	552f0065 	strpl	r0, [pc, #-101]!	; 48b <__code_start__-0x7b75>
     4ec:	73726573 	cmnvc	r2, #482344960	; 0x1cc00000
     4f0:	6972622f 	ldmdbvs	r2!, {r0, r1, r2, r3, r5, r9, sp, lr}^
     4f4:	756a6e61 	strbvc	r6, [sl, #-3681]!	; 0xe61
     4f8:	65442f6e 	strbvs	r2, [r4, #-3950]	; 0xf6e
     4fc:	6f746b73 	svcvs	0x00746b73
     500:	63732f70 	cmnvs	r3, #112, 30	; 0x1c0
     504:	6c6f6f68 	stclvs	15, cr6, [pc], #-416	; 36c <__code_start__-0x7c94>
     508:	7270532f 	rsbsvc	r5, r0, #-1140850688	; 0xbc000000
     50c:	31676e69 	cmncc	r7, r9, ror #28
     510:	2f303239 	svccs	0x00303239
     514:	34325343 	ldrtcc	r5, [r2], #-835	; 0x343
     518:	2f584c30 	svccs	0x00584c30
     51c:	34327363 	ldrtcc	r7, [r2], #-867	; 0x363
     520:	2d786c30 	ldclcs	12, cr6, [r8, #-192]!	; 0xffffff40
     524:	70733032 	rsbsvc	r3, r3, r2, lsr r0
     528:	696c2f72 	stmdbvs	ip!, {r1, r4, r5, r6, r8, r9, sl, fp, sp}^
     52c:	2f697062 	svccs	0x00697062
     530:	6c636e69 	stclvs	14, cr6, [r3], #-420	; 0xfffffe5c
     534:	00656475 	rsbeq	r6, r5, r5, ror r4
     538:	2d6b6300 	stclcs	3, cr6, [fp, #-0]
     53c:	632e6367 	teqvs	lr, #-1677721599	; 0x9c000001
     540:	00000000 	andeq	r0, r0, r0
     544:	69647473 	stmdbvs	r4!, {r0, r1, r4, r5, r6, sl, ip, sp, lr}^
     548:	672d746e 	strvs	r7, [sp, -lr, ror #8]!
     54c:	682e6363 	stmdavs	lr!, {r0, r1, r5, r6, r8, r9, sp, lr}
     550:	00000100 	andeq	r0, r0, r0, lsl #2
     554:	6c616b63 	stclvs	11, cr6, [r1], #-396	; 0xfffffe74
     558:	2d636f6c 	stclcs	15, cr6, [r3, #-432]!	; 0xfffffe50
     55c:	65746e69 	ldrbvs	r6, [r4, #-3689]!	; 0xe69
     560:	6c616e72 	stclvs	14, cr6, [r1], #-456	; 0xfffffe38
     564:	0000682e 	andeq	r6, r0, lr, lsr #16
     568:	70720000 	rsbsvc	r0, r2, r0
     56c:	00682e69 	rsbeq	r2, r8, r9, ror #28
     570:	63000002 	movwvs	r0, #2
     574:	6c6c616b 	stfvse	f6, [ip], #-428	; 0xfffffe54
     578:	682e636f 	stmdavs	lr!, {r0, r1, r2, r3, r5, r6, r8, r9, sp, lr}
     57c:	00000000 	andeq	r0, r0, r0
     580:	02050000 	andeq	r0, r5, #0
     584:	00008900 	andeq	r8, r0, r0, lsl #18
     588:	13011b03 	movwne	r1, #6915	; 0x1b03
     58c:	01040200 	mrseq	r0, R12_usr
     590:	06828206 	streq	r8, [r2], r6, lsl #4
     594:	4a15039f 	bmi	541418 <__bss_end__+0x5368a0>
     598:	302f694d 	eorcc	r6, pc, sp, asr #18
     59c:	4b316867 	blmi	c5a740 <__bss_end__+0xc4fbc8>
     5a0:	30684c49 	rsbcc	r4, r8, r9, asr #24
     5a4:	01040200 	mrseq	r0, R12_usr
     5a8:	632e7203 	teqvs	lr, #805306368	; 0x30000000
     5ac:	032e1603 	teqeq	lr, #3145728	; 0x300000
     5b0:	4b4c2e31 	blmi	130be7c <__bss_end__+0x1301304>
     5b4:	0b03464c 	bleq	d1eec <__bss_end__+0xc7374>
     5b8:	2b293066 	blcs	a4c758 <__bss_end__+0xa41be0>
     5bc:	9f67672f 	svcls	0x0067672f
     5c0:	02002f4c 	andeq	r2, r0, #76, 30	; 0x130
     5c4:	4a060104 	bmi	1809dc <__bss_end__+0x175e64>
     5c8:	32a06706 	adccc	r6, r0, #1572864	; 0x180000
     5cc:	0402002f 	streq	r0, [r2], #-47	; 0x2f
     5d0:	66710301 	ldrbtvs	r0, [r1], -r1, lsl #6
     5d4:	9f4a1203 	svcls	0x004a1203
     5d8:	4cbca04b 	ldcmi	0, cr10, [ip], #300	; 0x12c
     5dc:	087fbc03 	ldmdaeq	pc!, {r0, r1, sl, fp, ip, sp, pc}^	; <UNPREDICTABLE>
     5e0:	02006758 	andeq	r6, r0, #88, 14	; 0x1600000
     5e4:	4a060104 	bmi	1809fc <__bss_end__+0x175e84>
     5e8:	0200d806 	andeq	sp, r0, #393216	; 0x60000
     5ec:	4a060104 	bmi	180a04 <__bss_end__+0x175e8c>
     5f0:	0200d706 	andeq	sp, r0, #1572864	; 0x180000
     5f4:	4a060104 	bmi	180a0c <__bss_end__+0x175e94>
     5f8:	6884dc06 	stmvs	r4, {r1, r2, sl, fp, ip, lr, pc}
     5fc:	31696869 	cmncc	r9, r9, ror #16
     600:	04020085 	streq	r0, [r2], #-133	; 0x85
     604:	4a7a0301 	bmi	1e81210 <__bss_end__+0x1e76698>
     608:	01040200 	mrseq	r0, R12_usr
     60c:	032e7303 	teqeq	lr, #201326592	; 0xc000000
     610:	d2034a15 	andle	r4, r3, #86016	; 0x15000
     614:	2f4dba00 	svccs	0x004dba00
     618:	0402002d 	streq	r0, [r2], #-45	; 0x2d
     61c:	02002f02 	andeq	r2, r0, #2, 30
     620:	00650204 	rsbeq	r0, r5, r4, lsl #4
     624:	06010402 	streq	r0, [r1], -r2, lsl #8
     628:	6750062e 	ldrbvs	r0, [r0, -lr, lsr #12]
     62c:	67660a03 	strbvs	r0, [r6, -r3, lsl #20]!
     630:	01040200 	mrseq	r0, R12_usr
     634:	02006606 	andeq	r6, r0, #6291456	; 0x600000
     638:	d9060204 	stmdble	r6, {r2, r9}
     63c:	02040200 	andeq	r0, r4, #0, 4
     640:	02006765 	andeq	r6, r0, #26476544	; 0x1940000
     644:	502d0104 	eorpl	r0, sp, r4, lsl #2
     648:	67696a6c 	strbvs	r6, [r9, -ip, ror #20]!
     64c:	3c083803 	stccc	8, cr3, [r8], {3}
     650:	464c4b4c 	strbmi	r4, [ip], -ip, asr #22
     654:	4b660b03 	blmi	1983268 <__bss_end__+0x19786f0>
     658:	2f2e7903 	svccs	0x002e7903
     65c:	30676767 	rsbcc	r6, r7, r7, ror #14
     660:	002fa19f 	mlaeq	pc, pc, r1, sl	; <UNPREDICTABLE>
     664:	03010402 	movweq	r0, #5122	; 0x1402
     668:	13036675 	movwne	r6, #13941	; 0x3675
     66c:	bc4bf44a 	cfstrdlt	mvd15, [fp], {74}	; 0x4a
     670:	7fb0034c 	svcvc	0x00b0034c
     674:	2f4b9008 	svccs	0x004b9008
     678:	1332314b 	teqne	r2, #-1073741806	; 0xc0000012
     67c:	8383d867 	orrhi	sp, r3, #6750208	; 0x670000
     680:	400883d8 	ldrdmi	r8, [r8], -r8	; <UNPREDICTABLE>
     684:	d8671332 	stmdale	r7!, {r1, r4, r5, r8, r9, ip}^
     688:	d84b4b84 	stmdale	fp, {r2, r7, r8, r9, fp, lr}^
     68c:	3e08149f 	mcrcc	4, 0, r1, cr8, cr15, {4}
     690:	0827032f 	stmdaeq	r7!, {r0, r1, r2, r3, r5, r8, r9}
     694:	332f2f3c 	teqcc	pc, #60, 30	; 0xf0
     698:	01000202 	tsteq	r0, r2, lsl #4
     69c:	0000de01 	andeq	sp, r0, r1, lsl #28
     6a0:	83000200 	movwhi	r0, #512	; 0x200
     6a4:	02000000 	andeq	r0, r0, #0
     6a8:	0d0efb01 	vstreq	d15, [lr, #-4]
     6ac:	01010100 	mrseq	r0, (UNDEF: 17)
     6b0:	00000001 	andeq	r0, r0, r1
     6b4:	01000001 	tsteq	r0, r1
     6b8:	6362696c 	cmnvs	r2, #108, 18	; 0x1b0000
     6bc:	73752f00 	cmnvc	r5, #0, 30
     6c0:	6f6c2f72 	svcvs	0x006c2f72
     6c4:	2f6c6163 	svccs	0x006c6163
     6c8:	6c6c6543 	cfstr64vs	mvdx6, [ip], #-268	; 0xfffffef4
     6cc:	612f7261 	teqvs	pc, r1, ror #4
     6d0:	6e2d6d72 	mcrvs	13, 1, r6, cr13, cr2, {3}
     6d4:	2d656e6f 	stclcs	14, cr6, [r5, #-444]!	; 0xfffffe44
     6d8:	69626165 	stmdbvs	r2!, {r0, r2, r5, r6, r8, sp, lr}^
     6dc:	382e342f 	stmdacc	lr!, {r0, r1, r2, r3, r5, sl, ip, sp}
     6e0:	632d332e 	teqvs	sp, #-1207959552	; 0xb8000000
     6e4:	30373173 	eorscc	r3, r7, r3, ror r1
     6e8:	696c2f65 	stmdbvs	ip!, {r0, r2, r5, r6, r8, r9, sl, fp, sp}^
     6ec:	63672f62 	cmnvs	r7, #392	; 0x188
     6f0:	72612f63 	rsbvc	r2, r1, #396	; 0x18c
     6f4:	6f6e2d6d 	svcvs	0x006e2d6d
     6f8:	652d656e 	strvs	r6, [sp, #-1390]!	; 0x56e
     6fc:	2f696261 	svccs	0x00696261
     700:	2e382e34 	mrccs	14, 1, r2, cr8, cr4, {1}
     704:	6e692f33 	mcrvs	15, 3, r2, cr9, cr3, {1}
     708:	64756c63 	ldrbtvs	r6, [r5], #-3171	; 0xc63
     70c:	68000065 	stmdavs	r0, {r0, r2, r5, r6}
     710:	2e687361 	cdpcs	3, 6, cr7, cr8, cr1, {3}
     714:	00010063 	andeq	r0, r1, r3, rrx
     718:	64747300 	ldrbtvs	r7, [r4], #-768	; 0x300
     71c:	2d746e69 	ldclcs	14, cr6, [r4, #-420]!	; 0xfffffe5c
     720:	2e636367 	cdpcs	3, 6, cr6, cr3, cr7, {3}
     724:	00020068 	andeq	r0, r2, r8, rrx
     728:	05000000 	streq	r0, [r0, #-0]
     72c:	008f9402 	addeq	r9, pc, r2, lsl #8
     730:	010e0300 	mrseq	r0, ELR_hyp
     734:	2f843130 	svccs	0x00843130
     738:	04020031 	streq	r0, [r2], #-49	; 0x31
     73c:	02002f02 	andeq	r2, r0, #2, 30
     740:	00830204 	addeq	r0, r3, r4, lsl #4
     744:	83020402 	movwhi	r0, #9218	; 0x2402
     748:	02040200 	andeq	r0, r4, #0, 4
     74c:	0402002f 	streq	r0, [r2], #-47	; 0x2f
     750:	02002f02 	andeq	r2, r0, #2, 30
     754:	00290204 	eoreq	r0, r9, r4, lsl #4
     758:	06010402 	streq	r0, [r1], -r2, lsl #8
     75c:	0903062e 	stmdbeq	r3, {r1, r2, r3, r5, r9, sl}
     760:	2f83d74a 	svccs	0x0083d74a
     764:	832f2f4b 	teqhi	pc, #300	; 0x12c
     768:	4b2f2f2f 	blmi	bcc42c <__bss_end__+0xbc18b4>
     76c:	2f2f322f 	svccs	0x002f322f
     770:	302f2f2f 	eorcc	r2, pc, pc, lsr #30
     774:	032e5a03 	teqeq	lr, #12288	; 0x3000
     778:	04022e27 	streq	r2, [r2], #-3623	; 0xe27
     77c:	ec010100 	stfs	f0, [r1], {-0}
     780:	02000000 	andeq	r0, r0, #0
     784:	0000d000 	andeq	sp, r0, r0
     788:	fb010200 	blx	40f92 <__bss_end__+0x3641a>
     78c:	01000d0e 	tsteq	r0, lr, lsl #26
     790:	00010101 	andeq	r0, r1, r1, lsl #2
     794:	00010000 	andeq	r0, r1, r0
     798:	696c0100 	stmdbvs	ip!, {r8}^
     79c:	2f006362 	svccs	0x00006362
     7a0:	2f727375 	svccs	0x00727375
     7a4:	61636f6c 	cmnvs	r3, ip, ror #30
     7a8:	65432f6c 	strbvs	r2, [r3, #-3948]	; 0xf6c
     7ac:	72616c6c 	rsbvc	r6, r1, #108, 24	; 0x6c00
     7b0:	6d72612f 	ldfvse	f6, [r2, #-188]!	; 0xffffff44
     7b4:	6e6f6e2d 	cdpvs	14, 6, cr6, cr15, cr13, {1}
     7b8:	61652d65 	cmnvs	r5, r5, ror #26
     7bc:	342f6962 	strtcc	r6, [pc], #-2402	; 7c4 <__code_start__-0x783c>
     7c0:	332e382e 	teqcc	lr, #3014656	; 0x2e0000
     7c4:	3173632d 	cmncc	r3, sp, lsr #6
     7c8:	2f653037 	svccs	0x00653037
     7cc:	2f62696c 	svccs	0x0062696c
     7d0:	2f636367 	svccs	0x00636367
     7d4:	2d6d7261 	sfmcs	f7, 2, [sp, #-388]!	; 0xfffffe7c
     7d8:	656e6f6e 	strbvs	r6, [lr, #-3950]!	; 0xf6e
     7dc:	6261652d 	rsbvs	r6, r1, #188743680	; 0xb400000
     7e0:	2e342f69 	cdpcs	15, 3, cr2, cr4, cr9, {3}
     7e4:	2f332e38 	svccs	0x00332e38
     7e8:	6c636e69 	stclvs	14, cr6, [r3], #-420	; 0xfffffe5c
     7ec:	00656475 	rsbeq	r6, r5, r5, ror r4
     7f0:	7273752f 	rsbsvc	r7, r3, #197132288	; 0xbc00000
     7f4:	636f6c2f 	cmnvs	pc, #12032	; 0x2f00
     7f8:	432f6c61 	teqmi	pc, #24832	; 0x6100
     7fc:	616c6c65 	cmnvs	ip, r5, ror #24
     800:	72612f72 	rsbvc	r2, r1, #456	; 0x1c8
     804:	6f6e2d6d 	svcvs	0x006e2d6d
     808:	652d656e 	strvs	r6, [sp, #-1390]!	; 0x56e
     80c:	2f696261 	svccs	0x00696261
     810:	2e382e34 	mrccs	14, 1, r2, cr8, cr4, {1}
     814:	73632d33 	cmnvc	r3, #3264	; 0xcc0
     818:	65303731 	ldrvs	r3, [r0, #-1841]!	; 0x731
     81c:	6d72612f 	ldfvse	f6, [r2, #-188]!	; 0xffffff44
     820:	6e6f6e2d 	cdpvs	14, 6, cr6, cr15, cr13, {1}
     824:	61652d65 	cmnvs	r5, r5, ror #26
     828:	692f6962 	stmdbvs	pc!, {r1, r5, r6, r8, fp, sp, lr}	; <UNPREDICTABLE>
     82c:	756c636e 	strbvc	r6, [ip, #-878]!	; 0x36e
     830:	00006564 	andeq	r6, r0, r4, ror #10
     834:	736d656d 	cmnvc	sp, #457179136	; 0x1b400000
     838:	632e7465 	teqvs	lr, #1694498816	; 0x65000000
     83c:	00000100 	andeq	r0, r0, r0, lsl #2
     840:	64647473 	strbtvs	r7, [r4], #-1139	; 0x473
     844:	682e6665 	stmdavs	lr!, {r0, r2, r5, r6, r9, sl, sp, lr}
     848:	00000200 	andeq	r0, r0, r0, lsl #4
     84c:	69727473 	ldmdbvs	r2!, {r0, r1, r4, r5, r6, sl, ip, sp, lr}^
     850:	682e676e 	stmdavs	lr!, {r1, r2, r3, r5, r6, r8, r9, sl, sp, lr}
     854:	00000300 	andeq	r0, r0, r0, lsl #6
     858:	02050000 	andeq	r0, r5, #0
     85c:	00009084 	andeq	r9, r0, r4, lsl #1
     860:	2f4c1314 	svccs	0x004c1314
     864:	01040200 	mrseq	r0, R12_usr
     868:	02024d49 	andeq	r4, r2, #4672	; 0x1240
     86c:	0c010100 	stfeqs	f0, [r1], {-0}
     870:	02000001 	andeq	r0, r0, #1
     874:	0000f500 	andeq	pc, r0, r0, lsl #10
     878:	fb010200 	blx	41082 <__bss_end__+0x3650a>
     87c:	01000d0e 	tsteq	r0, lr, lsl #26
     880:	00010101 	andeq	r0, r1, r1, lsl #2
     884:	00010000 	andeq	r0, r1, r0
     888:	696c0100 	stmdbvs	ip!, {r8}^
     88c:	2f006362 	svccs	0x00006362
     890:	2f727375 	svccs	0x00727375
     894:	61636f6c 	cmnvs	r3, ip, ror #30
     898:	65432f6c 	strbvs	r2, [r3, #-3948]	; 0xf6c
     89c:	72616c6c 	rsbvc	r6, r1, #108, 24	; 0x6c00
     8a0:	6d72612f 	ldfvse	f6, [r2, #-188]!	; 0xffffff44
     8a4:	6e6f6e2d 	cdpvs	14, 6, cr6, cr15, cr13, {1}
     8a8:	61652d65 	cmnvs	r5, r5, ror #26
     8ac:	342f6962 	strtcc	r6, [pc], #-2402	; 8b4 <__code_start__-0x774c>
     8b0:	332e382e 	teqcc	lr, #3014656	; 0x2e0000
     8b4:	3173632d 	cmncc	r3, sp, lsr #6
     8b8:	2f653037 	svccs	0x00653037
     8bc:	2f62696c 	svccs	0x0062696c
     8c0:	2f636367 	svccs	0x00636367
     8c4:	2d6d7261 	sfmcs	f7, 2, [sp, #-388]!	; 0xfffffe7c
     8c8:	656e6f6e 	strbvs	r6, [lr, #-3950]!	; 0xf6e
     8cc:	6261652d 	rsbvs	r6, r1, #188743680	; 0xb400000
     8d0:	2e342f69 	cdpcs	15, 3, cr2, cr4, cr9, {3}
     8d4:	2f332e38 	svccs	0x00332e38
     8d8:	6c636e69 	stclvs	14, cr6, [r3], #-420	; 0xfffffe5c
     8dc:	00656475 	rsbeq	r6, r5, r5, ror r4
     8e0:	6573552f 	ldrbvs	r5, [r3, #-1327]!	; 0x52f
     8e4:	622f7372 	eorvs	r7, pc, #-939524095	; 0xc8000001
     8e8:	6e616972 	mcrvs	9, 3, r6, cr1, cr2, {3}
     8ec:	2f6e756a 	svccs	0x006e756a
     8f0:	6b736544 	blvs	1cd9e08 <__bss_end__+0x1ccf290>
     8f4:	2f706f74 	svccs	0x00706f74
     8f8:	6f686373 	svcvs	0x00686373
     8fc:	532f6c6f 	teqpl	pc, #28416	; 0x6f00
     900:	6e697270 	mcrvs	2, 3, r7, cr9, cr0, {3}
     904:	32393167 	eorscc	r3, r9, #-1073741799	; 0xc0000019
     908:	53432f30 	movtpl	r2, #16176	; 0x3f30
     90c:	4c303432 	cfldrsmi	mvf3, [r0], #-200	; 0xffffff38
     910:	73632f58 	cmnvc	r3, #88, 30	; 0x160
     914:	6c303432 	cfldrsvs	mvf3, [r0], #-200	; 0xffffff38
     918:	30322d78 	eorscc	r2, r2, r8, ror sp
     91c:	2f727073 	svccs	0x00727073
     920:	7062696c 	rsbvc	r6, r2, ip, ror #18
     924:	6e692f69 	cdpvs	15, 6, cr2, cr9, cr9, {3}
     928:	64756c63 	ldrbtvs	r6, [r5], #-3171	; 0xc63
     92c:	70000065 	andvc	r0, r0, r5, rrx
     930:	746e6972 	strbtvc	r6, [lr], #-2418	; 0x972
     934:	00632e6b 	rsbeq	r2, r3, fp, ror #28
     938:	73000001 	movwvc	r0, #1
     93c:	72616474 	rsbvc	r6, r1, #116, 8	; 0x74000000
     940:	00682e67 	rsbeq	r2, r8, r7, ror #28
     944:	3c000002 	stccc	0, cr0, [r0], {2}
     948:	6c697562 	cfstr64vs	mvdx7, [r9], #-392	; 0xfffffe78
     94c:	6e692d74 	mcrvs	13, 3, r2, cr9, cr4, {3}
     950:	0000003e 	andeq	r0, r0, lr, lsr r0
     954:	69707200 	ldmdbvs	r0!, {r9, ip, sp, lr}^
     958:	0300682e 	movweq	r6, #2094	; 0x82e
     95c:	61760000 	cmnvs	r6, r0
     960:	6972702d 	ldmdbvs	r2!, {r0, r2, r3, r5, ip, sp, lr}^
     964:	2e6b746e 	cdpcs	4, 6, cr7, cr11, cr14, {3}
     968:	00010068 	andeq	r0, r1, r8, rrx
     96c:	05000000 	streq	r0, [r0, #-0]
     970:	0090a402 	addseq	sl, r0, r2, lsl #8
     974:	4b6b1700 	blmi	1ac657c <__bss_end__+0x1abba04>
     978:	0e0289bf 	mcreq	9, 0, r8, cr2, cr15, {5}
     97c:	94010100 	strls	r0, [r1], #-256	; 0x100
     980:	02000000 	andeq	r0, r0, #0
     984:	00007c00 	andeq	r7, r0, r0, lsl #24
     988:	fb010200 	blx	41192 <__bss_end__+0x3661a>
     98c:	01000d0e 	tsteq	r0, lr, lsl #26
     990:	00010101 	andeq	r0, r1, r1, lsl #2
     994:	00010000 	andeq	r0, r1, r0
     998:	696c0100 	stmdbvs	ip!, {r8}^
     99c:	2f006362 	svccs	0x00006362
     9a0:	72657355 	rsbvc	r7, r5, #1409286145	; 0x54000001
     9a4:	72622f73 	rsbvc	r2, r2, #460	; 0x1cc
     9a8:	6a6e6169 	bvs	1b98f54 <__bss_end__+0x1b8e3dc>
     9ac:	442f6e75 	strtmi	r6, [pc], #-3701	; 9b4 <__code_start__-0x764c>
     9b0:	746b7365 	strbtvc	r7, [fp], #-869	; 0x365
     9b4:	732f706f 	teqvc	pc, #111	; 0x6f
     9b8:	6f6f6863 	svcvs	0x006f6863
     9bc:	70532f6c 	subsvc	r2, r3, ip, ror #30
     9c0:	676e6972 			; <UNDEFINED> instruction: 0x676e6972
     9c4:	30323931 	eorscc	r3, r2, r1, lsr r9
     9c8:	3253432f 	subscc	r4, r3, #-1140850688	; 0xbc000000
     9cc:	584c3034 	stmdapl	ip, {r2, r4, r5, ip, sp}^
     9d0:	3273632f 	rsbscc	r6, r3, #-1140850688	; 0xbc000000
     9d4:	786c3034 	stmdavc	ip!, {r2, r4, r5, ip, sp}^
     9d8:	7330322d 	teqvc	r0, #-805306366	; 0xd0000002
     9dc:	6c2f7270 	sfmvs	f7, 4, [pc], #-448	; 824 <__code_start__-0x77dc>
     9e0:	69706269 	ldmdbvs	r0!, {r0, r3, r5, r6, r9, sp, lr}^
     9e4:	636e692f 	cmnvs	lr, #770048	; 0xbc000
     9e8:	6564756c 	strbvs	r7, [r4, #-1388]!	; 0x56c
     9ec:	75700000 	ldrbvc	r0, [r0, #-0]!
     9f0:	61686374 	smcvs	34356	; 0x8634
     9f4:	00632e72 	rsbeq	r2, r3, r2, ror lr
     9f8:	72000001 	andvc	r0, r0, #1
     9fc:	682e6970 	stmdavs	lr!, {r4, r5, r6, r8, fp, sp, lr}
     a00:	00000200 	andeq	r0, r0, r0, lsl #4
     a04:	02050000 	andeq	r0, r5, #0
     a08:	000090fc 	strdeq	r9, [r0], -ip
     a0c:	136b4a14 	cmnne	fp, #20, 20	; 0x14000
     a10:	080213bc 	stmdaeq	r2, {r2, r3, r4, r5, r7, r8, r9, ip}
     a14:	a0010100 	andge	r0, r1, r0, lsl #2
     a18:	02000000 	andeq	r0, r0, #0
     a1c:	00007900 	andeq	r7, r0, r0, lsl #18
     a20:	fb010200 	blx	4122a <__bss_end__+0x366b2>
     a24:	01000d0e 	tsteq	r0, lr, lsl #26
     a28:	00010101 	andeq	r0, r1, r1, lsl #2
     a2c:	00010000 	andeq	r0, r1, r0
     a30:	696c0100 	stmdbvs	ip!, {r8}^
     a34:	2f006362 	svccs	0x00006362
     a38:	72657355 	rsbvc	r7, r5, #1409286145	; 0x54000001
     a3c:	72622f73 	rsbvc	r2, r2, #460	; 0x1cc
     a40:	6a6e6169 	bvs	1b98fec <__bss_end__+0x1b8e474>
     a44:	442f6e75 	strtmi	r6, [pc], #-3701	; a4c <__code_start__-0x75b4>
     a48:	746b7365 	strbtvc	r7, [fp], #-869	; 0x365
     a4c:	732f706f 	teqvc	pc, #111	; 0x6f
     a50:	6f6f6863 	svcvs	0x006f6863
     a54:	70532f6c 	subsvc	r2, r3, ip, ror #30
     a58:	676e6972 			; <UNDEFINED> instruction: 0x676e6972
     a5c:	30323931 	eorscc	r3, r2, r1, lsr r9
     a60:	3253432f 	subscc	r4, r3, #-1140850688	; 0xbc000000
     a64:	584c3034 	stmdapl	ip, {r2, r4, r5, ip, sp}^
     a68:	3273632f 	rsbscc	r6, r3, #-1140850688	; 0xbc000000
     a6c:	786c3034 	stmdavc	ip!, {r2, r4, r5, ip, sp}^
     a70:	7330322d 	teqvc	r0, #-805306366	; 0xd0000002
     a74:	6c2f7270 	sfmvs	f7, 4, [pc], #-448	; 8bc <__code_start__-0x7744>
     a78:	69706269 	ldmdbvs	r0!, {r0, r3, r5, r6, r9, sp, lr}^
     a7c:	636e692f 	cmnvs	lr, #770048	; 0xbc000
     a80:	6564756c 	strbvs	r7, [r4, #-1388]!	; 0x56c
     a84:	75700000 	ldrbvc	r0, [r0, #-0]!
     a88:	632e6b74 	teqvs	lr, #116, 22	; 0x1d000
     a8c:	00000100 	andeq	r0, r0, r0, lsl #2
     a90:	2e697072 	mcrcs	0, 3, r7, cr9, cr2, {3}
     a94:	00020068 	andeq	r0, r2, r8, rrx
     a98:	05000000 	streq	r0, [r0, #-0]
     a9c:	00913802 	addseq	r3, r1, r2, lsl #16
     aa0:	2d4c1500 	cfstr64cs	mvdx1, [ip, #-0]
     aa4:	02040200 	andeq	r0, r4, #0, 4
     aa8:	0402002f 	streq	r0, [r2], #-47	; 0x2f
     aac:	02004902 	andeq	r4, r0, #32768	; 0x8000
     ab0:	2e060104 	adfcss	f0, f6, f4
     ab4:	06026b06 	streq	r6, [r2], -r6, lsl #22
     ab8:	eb010100 	bl	40ec0 <__bss_end__+0x36348>
     abc:	02000001 	andeq	r0, r0, #1
     ac0:	0000e900 	andeq	lr, r0, r0, lsl #18
     ac4:	fb010200 	blx	412ce <__bss_end__+0x36756>
     ac8:	01000d0e 	tsteq	r0, lr, lsl #26
     acc:	00010101 	andeq	r0, r1, r1, lsl #2
     ad0:	00010000 	andeq	r0, r1, r0
     ad4:	696c0100 	stmdbvs	ip!, {r8}^
     ad8:	2f006362 	svccs	0x00006362
     adc:	2f727375 	svccs	0x00727375
     ae0:	61636f6c 	cmnvs	r3, ip, ror #30
     ae4:	65432f6c 	strbvs	r2, [r3, #-3948]	; 0xf6c
     ae8:	72616c6c 	rsbvc	r6, r1, #108, 24	; 0x6c00
     aec:	6d72612f 	ldfvse	f6, [r2, #-188]!	; 0xffffff44
     af0:	6e6f6e2d 	cdpvs	14, 6, cr6, cr15, cr13, {1}
     af4:	61652d65 	cmnvs	r5, r5, ror #26
     af8:	342f6962 	strtcc	r6, [pc], #-2402	; b00 <__code_start__-0x7500>
     afc:	332e382e 	teqcc	lr, #3014656	; 0x2e0000
     b00:	3173632d 	cmncc	r3, sp, lsr #6
     b04:	2f653037 	svccs	0x00653037
     b08:	2f62696c 	svccs	0x0062696c
     b0c:	2f636367 	svccs	0x00636367
     b10:	2d6d7261 	sfmcs	f7, 2, [sp, #-388]!	; 0xfffffe7c
     b14:	656e6f6e 	strbvs	r6, [lr, #-3950]!	; 0xf6e
     b18:	6261652d 	rsbvs	r6, r1, #188743680	; 0xb400000
     b1c:	2e342f69 	cdpcs	15, 3, cr2, cr4, cr9, {3}
     b20:	2f332e38 	svccs	0x00332e38
     b24:	6c636e69 	stclvs	14, cr6, [r3], #-420	; 0xfffffe5c
     b28:	00656475 	rsbeq	r6, r5, r5, ror r4
     b2c:	6573552f 	ldrbvs	r5, [r3, #-1327]!	; 0x52f
     b30:	622f7372 	eorvs	r7, pc, #-939524095	; 0xc8000001
     b34:	6e616972 	mcrvs	9, 3, r6, cr1, cr2, {3}
     b38:	2f6e756a 	svccs	0x006e756a
     b3c:	6b736544 	blvs	1cda054 <__bss_end__+0x1ccf4dc>
     b40:	2f706f74 	svccs	0x00706f74
     b44:	6f686373 	svcvs	0x00686373
     b48:	532f6c6f 	teqpl	pc, #28416	; 0x6f00
     b4c:	6e697270 	mcrvs	2, 3, r7, cr9, cr0, {3}
     b50:	32393167 	eorscc	r3, r9, #-1073741799	; 0xc0000019
     b54:	53432f30 	movtpl	r2, #16176	; 0x3f30
     b58:	4c303432 	cfldrsmi	mvf3, [r0], #-200	; 0xffffff38
     b5c:	73632f58 	cmnvc	r3, #88, 30	; 0x160
     b60:	6c303432 	cfldrsvs	mvf3, [r0], #-200	; 0xffffff38
     b64:	30322d78 	eorscc	r2, r2, r8, ror sp
     b68:	2f727073 	svccs	0x00727073
     b6c:	7062696c 	rsbvc	r6, r2, ip, ror #18
     b70:	6e692f69 	cdpvs	15, 6, cr2, cr9, cr9, {3}
     b74:	64756c63 	ldrbtvs	r6, [r5], #-3171	; 0xc63
     b78:	76000065 	strvc	r0, [r0], -r5, rrx
     b7c:	72702d61 	rsbsvc	r2, r0, #6208	; 0x1840
     b80:	6b746e69 	blvs	1d1c52c <__bss_end__+0x1d119b4>
     b84:	0100632e 	tsteq	r0, lr, lsr #6
     b88:	74730000 	ldrbtvc	r0, [r3], #-0
     b8c:	67726164 	ldrbvs	r6, [r2, -r4, ror #2]!
     b90:	0200682e 	andeq	r6, r0, #3014656	; 0x2e0000
     b94:	70720000 	rsbsvc	r0, r2, r0
     b98:	00682e69 	rsbeq	r2, r8, r9, ror #28
     b9c:	3c000003 	stccc	0, cr0, [r0], {3}
     ba0:	6c697562 	cfstr64vs	mvdx7, [r9], #-392	; 0xfffffe78
     ba4:	6e692d74 	mcrvs	13, 3, r2, cr9, cr4, {3}
     ba8:	0000003e 	andeq	r0, r0, lr, lsr r0
     bac:	05000000 	streq	r0, [r0, #-0]
     bb0:	00916c02 	addseq	r6, r1, r2, lsl #24
     bb4:	01260300 	teqeq	r6, r0, lsl #6
     bb8:	3113a501 	tstcc	r3, r1, lsl #10
     bbc:	0402002d 	streq	r0, [r2], #-45	; 0x2d
     bc0:	02002f02 	andeq	r2, r0, #2, 30
     bc4:	002d0204 	eoreq	r0, sp, r4, lsl #4
     bc8:	2f020402 	svccs	0x00020402
     bcc:	01040200 	mrseq	r0, R12_usr
     bd0:	304c4c2d 	subcc	r4, ip, sp, lsr #24
     bd4:	4f2f4b14 	svcmi	0x002f4b14
     bd8:	02040200 	andeq	r0, r4, #0, 4
     bdc:	04020067 	streq	r0, [r2], #-103	; 0x67
     be0:	4d4c6501 	cfstr64mi	mvdx6, [ip, #-4]
     be4:	312fa030 	teqcc	pc, r0, lsr r0	; <UNPREDICTABLE>
     be8:	16260230 			; <UNDEFINED> instruction: 0x16260230
     bec:	002c2d84 	eoreq	r2, ip, r4, lsl #27
     bf0:	30010402 	andcc	r0, r1, r2, lsl #8
     bf4:	01040200 	mrseq	r0, R12_usr
     bf8:	00660633 	rsbeq	r0, r6, r3, lsr r6
     bfc:	2e010402 	cdpcs	4, 0, cr0, cr1, cr2, {0}
     c00:	01040200 	mrseq	r0, R12_usr
     c04:	67210806 	strvs	r0, [r1, -r6, lsl #16]!
     c08:	8273032f 	rsbshi	r0, r3, #-1140850688	; 0xbc000000
     c0c:	002e1303 	eoreq	r1, lr, r3, lsl #6
     c10:	06010402 	streq	r0, [r1], -r2, lsl #8
     c14:	04020066 	streq	r0, [r2], #-102	; 0x66
     c18:	4b830601 	blmi	fe0c2424 <__bss_end__+0xfe0b78ac>
     c1c:	4b31674b 	blmi	c5a950 <__bss_end__+0xc4fdd8>
     c20:	032e6503 	teqeq	lr, #12582912	; 0xc00000
     c24:	02002e23 	andeq	r2, r0, #560	; 0x230
     c28:	2e060104 	adfcss	f0, f6, f4
     c2c:	01040200 	mrseq	r0, R12_usr
     c30:	02009f06 	andeq	r9, r0, #6, 30
     c34:	d96a0104 	stmdble	sl!, {r2, r8}^
     c38:	7fa403d7 	svcvc	0x00a403d7
     c3c:	002f2008 	eoreq	r2, pc, r8
     c40:	06010402 	streq	r0, [r1], -r2, lsl #8
     c44:	4bd7064a 	blmi	ff5c2574 <__bss_end__+0xff5b79fc>
     c48:	00dc032f 	sbcseq	r0, ip, pc, lsr #6
     c4c:	484c83f2 	stmdami	ip, {r1, r4, r5, r6, r7, r8, r9, pc}^
     c50:	032e0e03 	teqeq	lr, #3, 28	; 0x30
     c54:	2f2f2e75 	svccs	0x002f2e75
     c58:	2d2f4b84 	vstmdbcs	pc!, {d4-d5}
     c5c:	2f30314d 	svccs	0x0030314d
     c60:	04020083 	streq	r0, [r2], #-131	; 0x83
     c64:	00a22c01 	adceq	r2, r2, r1, lsl #24
     c68:	06010402 	streq	r0, [r1], -r2, lsl #8
     c6c:	02d8064a 	sbcseq	r0, r8, #77594624	; 0x4a00000
     c70:	0e031636 	mcreq	6, 0, r1, cr3, cr6, {1}
     c74:	302108d6 	ldrdcc	r0, [r1], -r6	; <UNPREDICTABLE>
     c78:	30f331f3 	ldrshtcc	r3, [r3], #19
     c7c:	304b30f3 	strdcc	r3, [fp], #-3
     c80:	230830f3 	movwcs	r3, #33011	; 0x80f3
     c84:	02002f31 	andeq	r2, r0, #49, 30	; 0xc4
     c88:	00650104 	rsbeq	r0, r5, r4, lsl #2
     c8c:	06020402 	streq	r0, [r2], -r2, lsl #8
     c90:	0402004a 	streq	r0, [r2], #-74	; 0x4a
     c94:	42030601 	andmi	r0, r3, #1048576	; 0x100000
     c98:	04020066 	streq	r0, [r2], #-102	; 0x66
     c9c:	06660602 	strbteq	r0, [r6], -r2, lsl #12
     ca0:	4a00c203 	bmi	314b4 <__bss_end__+0x2693c>
     ca4:	00100268 	andseq	r0, r0, r8, ror #4
     ca8:	009c0101 	addseq	r0, ip, r1, lsl #2
     cac:	00020000 	andeq	r0, r2, r0
     cb0:	00000086 	andeq	r0, r0, r6, lsl #1
     cb4:	0efb0102 	cdpeq	1, 15, cr0, cr11, cr2, {0}
     cb8:	0101000d 	tsteq	r1, sp
     cbc:	00000101 	andeq	r0, r0, r1, lsl #2
     cc0:	00000100 	andeq	r0, r0, r0, lsl #2
     cc4:	61747301 	cmnvs	r4, r1, lsl #6
     cc8:	732d6666 	teqvc	sp, #106954752	; 0x6600000
     ccc:	2f006372 	svccs	0x00006372
     cd0:	72657355 	rsbvc	r7, r5, #1409286145	; 0x54000001
     cd4:	72622f73 	rsbvc	r2, r2, #460	; 0x1cc
     cd8:	6a6e6169 	bvs	1b99284 <__bss_end__+0x1b8e70c>
     cdc:	442f6e75 	strtmi	r6, [pc], #-3701	; ce4 <__code_start__-0x731c>
     ce0:	746b7365 	strbtvc	r7, [fp], #-869	; 0x365
     ce4:	732f706f 	teqvc	pc, #111	; 0x6f
     ce8:	6f6f6863 	svcvs	0x006f6863
     cec:	70532f6c 	subsvc	r2, r3, ip, ror #30
     cf0:	676e6972 			; <UNDEFINED> instruction: 0x676e6972
     cf4:	30323931 	eorscc	r3, r2, r1, lsr r9
     cf8:	3253432f 	subscc	r4, r3, #-1140850688	; 0xbc000000
     cfc:	584c3034 	stmdapl	ip, {r2, r4, r5, ip, sp}^
     d00:	3273632f 	rsbscc	r6, r3, #-1140850688	; 0xbc000000
     d04:	786c3034 	stmdavc	ip!, {r2, r4, r5, ip, sp}^
     d08:	7330322d 	teqvc	r0, #-805306366	; 0xd0000002
     d0c:	6c2f7270 	sfmvs	f7, 4, [pc], #-448	; b54 <__code_start__-0x74ac>
     d10:	69706269 	ldmdbvs	r0!, {r0, r3, r5, r6, r9, sp, lr}^
     d14:	636e692f 	cmnvs	lr, #770048	; 0xbc000
     d18:	6564756c 	strbvs	r7, [r4, #-1388]!	; 0x56c
     d1c:	6c630000 	stclvs	0, cr0, [r3], #-0
     d20:	2d6e6165 	stfcse	f6, [lr, #-404]!	; 0xfffffe6c
     d24:	6f626572 	svcvs	0x00626572
     d28:	632e746f 	teqvs	lr, #1862270976	; 0x6f000000
     d2c:	00000100 	andeq	r0, r0, r0, lsl #2
     d30:	2e697072 	mcrcs	0, 3, r7, cr9, cr2, {3}
     d34:	00020068 	andeq	r0, r2, r8, rrx
     d38:	05000000 	streq	r0, [r0, #-0]
     d3c:	00967802 	addseq	r7, r6, r2, lsl #16
     d40:	832f1500 	teqhi	pc, #0, 10
     d44:	0006024b 	andeq	r0, r6, fp, asr #4
     d48:	00a30101 	adceq	r0, r3, r1, lsl #2
     d4c:	00020000 	andeq	r0, r2, r0
     d50:	00000080 	andeq	r0, r0, r0, lsl #1
     d54:	0efb0102 	cdpeq	1, 15, cr0, cr11, cr2, {0}
     d58:	0101000d 	tsteq	r1, sp
     d5c:	00000101 	andeq	r0, r0, r1, lsl #2
     d60:	00000100 	andeq	r0, r0, r0, lsl #2
     d64:	61747301 	cmnvs	r4, r1, lsl #6
     d68:	732d6666 	teqvc	sp, #106954752	; 0x6600000
     d6c:	2f006372 	svccs	0x00006372
     d70:	72657355 	rsbvc	r7, r5, #1409286145	; 0x54000001
     d74:	72622f73 	rsbvc	r2, r2, #460	; 0x1cc
     d78:	6a6e6169 	bvs	1b99324 <__bss_end__+0x1b8e7ac>
     d7c:	442f6e75 	strtmi	r6, [pc], #-3701	; d84 <__code_start__-0x727c>
     d80:	746b7365 	strbtvc	r7, [fp], #-869	; 0x365
     d84:	732f706f 	teqvc	pc, #111	; 0x6f
     d88:	6f6f6863 	svcvs	0x006f6863
     d8c:	70532f6c 	subsvc	r2, r3, ip, ror #30
     d90:	676e6972 			; <UNDEFINED> instruction: 0x676e6972
     d94:	30323931 	eorscc	r3, r2, r1, lsr r9
     d98:	3253432f 	subscc	r4, r3, #-1140850688	; 0xbc000000
     d9c:	584c3034 	stmdapl	ip, {r2, r4, r5, ip, sp}^
     da0:	3273632f 	rsbscc	r6, r3, #-1140850688	; 0xbc000000
     da4:	786c3034 	stmdavc	ip!, {r2, r4, r5, ip, sp}^
     da8:	7330322d 	teqvc	r0, #-805306366	; 0xd0000002
     dac:	6c2f7270 	sfmvs	f7, 4, [pc], #-448	; bf4 <__code_start__-0x740c>
     db0:	69706269 	ldmdbvs	r0!, {r0, r3, r5, r6, r9, sp, lr}^
     db4:	636e692f 	cmnvs	lr, #770048	; 0xbc000
     db8:	6564756c 	strbvs	r7, [r4, #-1388]!	; 0x56c
     dbc:	73630000 	cmnvc	r3, #0
     dc0:	74726174 	ldrbtvc	r6, [r2], #-372	; 0x174
     dc4:	0100632e 	tsteq	r0, lr, lsr #6
     dc8:	70720000 	rsbsvc	r0, r2, r0
     dcc:	00682e69 	rsbeq	r2, r8, r9, ror #28
     dd0:	00000002 	andeq	r0, r0, r2
     dd4:	a0020500 	andge	r0, r2, r0, lsl #10
     dd8:	03000096 	movweq	r0, #150	; 0x96
     ddc:	3132010c 	teqcc	r2, ip, lsl #2
     de0:	002f2d2f 	eoreq	r2, pc, pc, lsr #26
     de4:	49010402 	stmdbmi	r1, {r1, sl}
     de8:	2f4a1503 	svccs	0x004a1503
     dec:	01000602 	tsteq	r0, r2, lsl #12
     df0:	0000a201 	andeq	sl, r0, r1, lsl #4
     df4:	80000200 	andhi	r0, r0, r0, lsl #4
     df8:	02000000 	andeq	r0, r0, #0
     dfc:	0d0efb01 	vstreq	d15, [lr, #-4]
     e00:	01010100 	mrseq	r0, (UNDEF: 17)
     e04:	00000001 	andeq	r0, r0, r1
     e08:	01000001 	tsteq	r0, r1
     e0c:	66617473 			; <UNDEFINED> instruction: 0x66617473
     e10:	72732d66 	rsbsvc	r2, r3, #6528	; 0x1980
     e14:	552f0063 	strpl	r0, [pc, #-99]!	; db9 <__code_start__-0x7247>
     e18:	73726573 	cmnvc	r2, #482344960	; 0x1cc00000
     e1c:	6972622f 	ldmdbvs	r2!, {r0, r1, r2, r3, r5, r9, sp, lr}^
     e20:	756a6e61 	strbvc	r6, [sl, #-3681]!	; 0xe61
     e24:	65442f6e 	strbvs	r2, [r4, #-3950]	; 0xf6e
     e28:	6f746b73 	svcvs	0x00746b73
     e2c:	63732f70 	cmnvs	r3, #112, 30	; 0x1c0
     e30:	6c6f6f68 	stclvs	15, cr6, [pc], #-416	; c98 <__code_start__-0x7368>
     e34:	7270532f 	rsbsvc	r5, r0, #-1140850688	; 0xbc000000
     e38:	31676e69 	cmncc	r7, r9, ror #28
     e3c:	2f303239 	svccs	0x00303239
     e40:	34325343 	ldrtcc	r5, [r2], #-835	; 0x343
     e44:	2f584c30 	svccs	0x00584c30
     e48:	34327363 	ldrtcc	r7, [r2], #-867	; 0x363
     e4c:	2d786c30 	ldclcs	12, cr6, [r8, #-192]!	; 0xffffff40
     e50:	70733032 	rsbsvc	r3, r3, r2, lsr r0
     e54:	696c2f72 	stmdbvs	ip!, {r1, r4, r5, r6, r8, r9, sl, fp, sp}^
     e58:	2f697062 	svccs	0x00697062
     e5c:	6c636e69 	stclvs	14, cr6, [r3], #-420	; 0xfffffe5c
     e60:	00656475 	rsbeq	r6, r5, r5, ror r4
     e64:	62657200 	rsbvs	r7, r5, #0, 4
     e68:	2e746f6f 	cdpcs	15, 7, cr6, cr4, cr15, {3}
     e6c:	00010063 	andeq	r0, r1, r3, rrx
     e70:	69707200 	ldmdbvs	r0!, {r9, ip, sp, lr}^
     e74:	0200682e 	andeq	r6, r0, #3014656	; 0x2e0000
     e78:	00000000 	andeq	r0, r0, r0
     e7c:	96d40205 	ldrbls	r0, [r4], r5, lsl #4
     e80:	0d030000 	stceq	0, cr0, [r3, #-0]
     e84:	2f311401 	svccs	0x00311401
     e88:	4b2f1585 	blmi	bc64a4 <__bss_end__+0xbbb92c>
     e8c:	35672f4d 	strbcc	r2, [r7, #-3917]!	; 0xf4d
     e90:	10026752 	andne	r6, r2, r2, asr r7
     e94:	ac010100 	stfges	f0, [r1], {-0}
     e98:	02000000 	andeq	r0, r0, #0
     e9c:	00007f00 	andeq	r7, r0, r0, lsl #30
     ea0:	fb010200 	blx	416aa <__bss_end__+0x36b32>
     ea4:	01000d0e 	tsteq	r0, lr, lsl #26
     ea8:	00010101 	andeq	r0, r1, r1, lsl #2
     eac:	00010000 	andeq	r0, r1, r0
     eb0:	74730100 	ldrbtvc	r0, [r3], #-256	; 0x100
     eb4:	2d666661 	stclcs	6, cr6, [r6, #-388]!	; 0xfffffe7c
     eb8:	00637273 	rsbeq	r7, r3, r3, ror r2
     ebc:	6573552f 	ldrbvs	r5, [r3, #-1327]!	; 0x52f
     ec0:	622f7372 	eorvs	r7, pc, #-939524095	; 0xc8000001
     ec4:	6e616972 	mcrvs	9, 3, r6, cr1, cr2, {3}
     ec8:	2f6e756a 	svccs	0x006e756a
     ecc:	6b736544 	blvs	1cda3e4 <__bss_end__+0x1ccf86c>
     ed0:	2f706f74 	svccs	0x00706f74
     ed4:	6f686373 	svcvs	0x00686373
     ed8:	532f6c6f 	teqpl	pc, #28416	; 0x6f00
     edc:	6e697270 	mcrvs	2, 3, r7, cr9, cr0, {3}
     ee0:	32393167 	eorscc	r3, r9, #-1073741799	; 0xc0000019
     ee4:	53432f30 	movtpl	r2, #16176	; 0x3f30
     ee8:	4c303432 	cfldrsmi	mvf3, [r0], #-200	; 0xffffff38
     eec:	73632f58 	cmnvc	r3, #88, 30	; 0x160
     ef0:	6c303432 	cfldrsvs	mvf3, [r0], #-200	; 0xffffff38
     ef4:	30322d78 	eorscc	r2, r2, r8, ror sp
     ef8:	2f727073 	svccs	0x00727073
     efc:	7062696c 	rsbvc	r6, r2, ip, ror #18
     f00:	6e692f69 	cdpvs	15, 6, cr2, cr9, cr9, {3}
     f04:	64756c63 	ldrbtvs	r6, [r5], #-3171	; 0xc63
     f08:	74000065 	strvc	r0, [r0], #-101	; 0x65
     f0c:	72656d69 	rsbvc	r6, r5, #6720	; 0x1a40
     f10:	0100632e 	tsteq	r0, lr, lsr #6
     f14:	70720000 	rsbsvc	r0, r2, r0
     f18:	00682e69 	rsbeq	r2, r8, r9, ror #28
     f1c:	00000002 	andeq	r0, r0, r2
     f20:	48020500 	stmdami	r2, {r8, sl}
     f24:	16000097 			; <UNDEFINED> instruction: 0x16000097
     f28:	002d2f14 	eoreq	r2, sp, r4, lsl pc
     f2c:	06010402 	streq	r0, [r1], -r2, lsl #8
     f30:	316d062e 	cmncc	sp, lr, lsr #12
     f34:	324d4b2f 	subcc	r4, sp, #48128	; 0xbc00
     f38:	4c4b3031 	mcrrmi	0, 3, r3, fp, cr1
     f3c:	2f2f6a2f 	svccs	0x002f6a2f
     f40:	08022f84 	stmdaeq	r2, {r2, r7, r8, r9, sl, fp, sp}
     f44:	48010100 	stmdami	r1, {r8}
     f48:	02000001 	andeq	r0, r0, #1
     f4c:	00010200 	andeq	r0, r1, r0, lsl #4
     f50:	fb010200 	blx	4175a <__bss_end__+0x36be2>
     f54:	01000d0e 	tsteq	r0, lr, lsl #26
     f58:	00010101 	andeq	r0, r1, r1, lsl #2
     f5c:	00010000 	andeq	r0, r1, r0
     f60:	752f0100 	strvc	r0, [pc, #-256]!	; e68 <__code_start__-0x7198>
     f64:	692f7273 	stmdbvs	pc!, {r0, r1, r4, r5, r6, r9, ip, sp, lr}	; <UNPREDICTABLE>
     f68:	756c636e 	strbvc	r6, [ip, #-878]!	; 0x36e
     f6c:	6e2f6564 	cfsh64vs	mvdx6, mvdx15, #52
     f70:	696c7765 	stmdbvs	ip!, {r0, r2, r5, r6, r8, r9, sl, ip, sp, lr}^
     f74:	79732f62 	ldmdbvc	r3!, {r1, r5, r6, r8, r9, sl, fp, sp}^
     f78:	752f0073 	strvc	r0, [pc, #-115]!	; f0d <__code_start__-0x70f3>
     f7c:	6c2f7273 	sfmvs	f7, 4, [pc], #-460	; db8 <__code_start__-0x7248>
     f80:	672f6269 	strvs	r6, [pc, -r9, ror #4]!
     f84:	612f6363 	teqvs	pc, r3, ror #6
     f88:	6e2d6d72 	mcrvs	13, 1, r6, cr13, cr2, {3}
     f8c:	2d656e6f 	stclcs	14, cr6, [r5, #-444]!	; 0xfffffe44
     f90:	69626165 	stmdbvs	r2!, {r0, r2, r5, r6, r8, sp, lr}^
     f94:	332e362f 	teqcc	lr, #49283072	; 0x2f00000
     f98:	692f312e 	stmdbvs	pc!, {r1, r2, r3, r5, r8, ip, sp}	; <UNPREDICTABLE>
     f9c:	756c636e 	strbvc	r6, [ip, #-878]!	; 0x36e
     fa0:	2f006564 	svccs	0x00006564
     fa4:	656d6f68 	strbvs	r6, [sp, #-3944]!	; 0xf68
     fa8:	676e652f 	strbvs	r6, [lr, -pc, lsr #10]!
     fac:	2f72656c 	svccs	0x0072656c
     fb0:	73616c63 	cmnvc	r1, #25344	; 0x6300
     fb4:	73632f73 	cmnvc	r3, #460	; 0x1cc
     fb8:	6c303432 	cfldrsvs	mvf3, [r0], #-200	; 0xffffff38
     fbc:	30322d78 	eorscc	r2, r2, r8, ror sp
     fc0:	2f727073 	svccs	0x00727073
     fc4:	62696c2f 	rsbvs	r6, r9, #12032	; 0x2f00
     fc8:	2f006970 	svccs	0x00006970
     fcc:	656d6f68 	strbvs	r6, [sp, #-3944]!	; 0xf68
     fd0:	676e652f 	strbvs	r6, [lr, -pc, lsr #10]!
     fd4:	2f72656c 	svccs	0x0072656c
     fd8:	73616c63 	cmnvc	r1, #25344	; 0x6300
     fdc:	73632f73 	cmnvc	r3, #460	; 0x1cc
     fe0:	6c303432 	cfldrsvs	mvf3, [r0], #-200	; 0xffffff38
     fe4:	30322d78 	eorscc	r2, r2, r8, ror sp
     fe8:	2f727073 	svccs	0x00727073
     fec:	62696c2f 	rsbvs	r6, r9, #12032	; 0x2f00
     ff0:	732f6970 	teqvc	pc, #112, 18	; 0x1c0000
     ff4:	66666174 			; <UNDEFINED> instruction: 0x66666174
     ff8:	6372732d 	cmnvs	r2, #-1275068416	; 0xb4000000
     ffc:	61750000 	cmnvs	r5, r0
    1000:	632e7472 	teqvs	lr, #1912602624	; 0x72000000
    1004:	00000000 	andeq	r0, r0, r0
    1008:	6b636f6c 	blvs	18dcdc0 <__bss_end__+0x18d2248>
    100c:	0100682e 	tsteq	r0, lr, lsr #16
    1010:	745f0000 	ldrbvc	r0, [pc], #-0	; 1018 <__code_start__-0x6fe8>
    1014:	73657079 	cmnvc	r5, #121	; 0x79
    1018:	0100682e 	tsteq	r0, lr, lsr #16
    101c:	74730000 	ldrbtvc	r0, [r3], #-0
    1020:	66656464 	strbtvs	r6, [r5], -r4, ror #8
    1024:	0200682e 	andeq	r6, r0, #3014656	; 0x2e0000
    1028:	65720000 	ldrbvs	r0, [r2, #-0]!
    102c:	2e746e65 	cdpcs	14, 7, cr6, cr4, cr5, {3}
    1030:	00010068 	andeq	r0, r1, r8, rrx
    1034:	69707200 	ldmdbvs	r0!, {r9, ip, sp, lr}^
    1038:	0300682e 	movweq	r6, #2094	; 0x82e
    103c:	61750000 	cmnvs	r5, r0
    1040:	682e7472 	stmdavs	lr!, {r1, r4, r5, r6, sl, ip, sp, lr}
    1044:	00000400 	andeq	r0, r0, r0, lsl #8
    1048:	6f697067 	svcvs	0x00697067
    104c:	0400682e 	streq	r6, [r0], #-2094	; 0x82e
    1050:	00000000 	andeq	r0, r0, r0
    1054:	981c0205 	ldmdals	ip, {r0, r2, r9}
    1058:	2c030000 	stccs	0, cr0, [r3], {-0}
    105c:	0c036701 	stceq	7, cr6, [r3], {1}
    1060:	6867359e 	stmdavs	r7!, {r1, r2, r3, r4, r7, r8, sl, ip, sp}^
    1064:	0c036835 	stceq	8, cr6, [r3], {53}	; 0x35
    1068:	696b852e 	stmdbvs	fp!, {r1, r2, r3, r5, r8, sl, pc}^
    106c:	660c0369 	strvs	r0, [ip], -r9, ror #6
    1070:	4208676b 	andmi	r6, r8, #28049408	; 0x1ac0000
    1074:	364b6834 			; <UNDEFINED> instruction: 0x364b6834
    1078:	002f8768 	eoreq	r8, pc, r8, ror #14
    107c:	2f010402 	svccs	0x00010402
    1080:	67306768 	ldrvs	r6, [r0, -r8, ror #14]!
    1084:	0402004b 	streq	r0, [r2], #-75	; 0x4b
    1088:	67682f01 	strbvs	r2, [r8, -r1, lsl #30]!
    108c:	06022e69 	streq	r2, [r2], -r9, ror #28
    1090:	2b010100 	blcs	41498 <__bss_end__+0x36920>
    1094:	02000001 	andeq	r0, r0, #1
    1098:	0000f800 	andeq	pc, r0, r0, lsl #16
    109c:	fb010200 	blx	418a6 <__bss_end__+0x36d2e>
    10a0:	01000d0e 	tsteq	r0, lr, lsl #26
    10a4:	00010101 	andeq	r0, r1, r1, lsl #2
    10a8:	00010000 	andeq	r0, r1, r0
    10ac:	752f0100 	strvc	r0, [pc, #-256]!	; fb4 <__code_start__-0x704c>
    10b0:	692f7273 	stmdbvs	pc!, {r0, r1, r4, r5, r6, r9, ip, sp, lr}	; <UNPREDICTABLE>
    10b4:	756c636e 	strbvc	r6, [ip, #-878]!	; 0x36e
    10b8:	6e2f6564 	cfsh64vs	mvdx6, mvdx15, #52
    10bc:	696c7765 	stmdbvs	ip!, {r0, r2, r5, r6, r8, r9, sl, ip, sp, lr}^
    10c0:	79732f62 	ldmdbvc	r3!, {r1, r5, r6, r8, r9, sl, fp, sp}^
    10c4:	752f0073 	strvc	r0, [pc, #-115]!	; 1059 <__code_start__-0x6fa7>
    10c8:	6c2f7273 	sfmvs	f7, 4, [pc], #-460	; f04 <__code_start__-0x70fc>
    10cc:	672f6269 	strvs	r6, [pc, -r9, ror #4]!
    10d0:	612f6363 	teqvs	pc, r3, ror #6
    10d4:	6e2d6d72 	mcrvs	13, 1, r6, cr13, cr2, {3}
    10d8:	2d656e6f 	stclcs	14, cr6, [r5, #-444]!	; 0xfffffe44
    10dc:	69626165 	stmdbvs	r2!, {r0, r2, r5, r6, r8, sp, lr}^
    10e0:	332e362f 	teqcc	lr, #49283072	; 0x2f00000
    10e4:	692f312e 	stmdbvs	pc!, {r1, r2, r3, r5, r8, ip, sp}	; <UNPREDICTABLE>
    10e8:	756c636e 	strbvc	r6, [ip, #-878]!	; 0x36e
    10ec:	2f006564 	svccs	0x00006564
    10f0:	656d6f68 	strbvs	r6, [sp, #-3944]!	; 0xf68
    10f4:	676e652f 	strbvs	r6, [lr, -pc, lsr #10]!
    10f8:	2f72656c 	svccs	0x0072656c
    10fc:	73616c63 	cmnvc	r1, #25344	; 0x6300
    1100:	73632f73 	cmnvc	r3, #460	; 0x1cc
    1104:	6c303432 	cfldrsvs	mvf3, [r0], #-200	; 0xffffff38
    1108:	30322d78 	eorscc	r2, r2, r8, ror sp
    110c:	2f727073 	svccs	0x00727073
    1110:	62696c2f 	rsbvs	r6, r9, #12032	; 0x2f00
    1114:	2f006970 	svccs	0x00006970
    1118:	656d6f68 	strbvs	r6, [sp, #-3944]!	; 0xf68
    111c:	676e652f 	strbvs	r6, [lr, -pc, lsr #10]!
    1120:	2f72656c 	svccs	0x0072656c
    1124:	73616c63 	cmnvc	r1, #25344	; 0x6300
    1128:	73632f73 	cmnvc	r3, #460	; 0x1cc
    112c:	6c303432 	cfldrsvs	mvf3, [r0], #-200	; 0xffffff38
    1130:	30322d78 	eorscc	r2, r2, r8, ror sp
    1134:	2f727073 	svccs	0x00727073
    1138:	62696c2f 	rsbvs	r6, r9, #12032	; 0x2f00
    113c:	732f6970 	teqvc	pc, #112, 18	; 0x1c0000
    1140:	66666174 			; <UNDEFINED> instruction: 0x66666174
    1144:	6372732d 	cmnvs	r2, #-1275068416	; 0xb4000000
    1148:	70670000 	rsbvc	r0, r7, r0
    114c:	632e6f69 	teqvs	lr, #420	; 0x1a4
    1150:	00000000 	andeq	r0, r0, r0
    1154:	6b636f6c 	blvs	18dcf0c <__bss_end__+0x18d2394>
    1158:	0100682e 	tsteq	r0, lr, lsr #16
    115c:	745f0000 	ldrbvc	r0, [pc], #-0	; 1164 <__code_start__-0x6e9c>
    1160:	73657079 	cmnvc	r5, #121	; 0x79
    1164:	0100682e 	tsteq	r0, lr, lsr #16
    1168:	74730000 	ldrbtvc	r0, [r3], #-0
    116c:	66656464 	strbtvs	r6, [r5], -r4, ror #8
    1170:	0200682e 	andeq	r6, r0, #3014656	; 0x2e0000
    1174:	65720000 	ldrbvs	r0, [r2, #-0]!
    1178:	2e746e65 	cdpcs	14, 7, cr6, cr4, cr5, {3}
    117c:	00010068 	andeq	r0, r1, r8, rrx
    1180:	69707200 	ldmdbvs	r0!, {r9, ip, sp, lr}^
    1184:	0300682e 	movweq	r6, #2094	; 0x82e
    1188:	70670000 	rsbvc	r0, r7, r0
    118c:	682e6f69 	stmdavs	lr!, {r0, r3, r5, r6, r8, r9, sl, fp, sp, lr}
    1190:	00000400 	andeq	r0, r0, r0, lsl #8
    1194:	02050000 	andeq	r0, r5, #0
    1198:	00009994 	muleq	r0, r4, r9
    119c:	13012703 	movwne	r2, #5891	; 0x1703
    11a0:	f44f474c 	vst1.16	{d20}, [pc], ip
    11a4:	a14c4b68 	cmpge	ip, r8, ror #22
    11a8:	49136a2f 	ldmdbmi	r3, {r0, r1, r2, r3, r5, r9, fp, sp, lr}
    11ac:	4913be31 	ldmdbmi	r3, {r0, r4, r5, r9, sl, fp, ip, sp, pc}
    11b0:	6a2fbe31 	bvs	bf0a7c <__bss_end__+0xbe5f04>
    11b4:	4f484d2f 	svcmi	0x00484d2f
    11b8:	2f324913 	svccs	0x00324913
    11bc:	000602b7 			; <UNDEFINED> instruction: 0x000602b7
    11c0:	01340101 	teqeq	r4, r1, lsl #2
    11c4:	00020000 	andeq	r0, r2, r0
    11c8:	000000df 	ldrdeq	r0, [r0], -pc	; <UNPREDICTABLE>
    11cc:	0efb0102 	cdpeq	1, 15, cr0, cr11, cr2, {0}
    11d0:	0101000d 	tsteq	r1, sp
    11d4:	00000101 	andeq	r0, r0, r1, lsl #2
    11d8:	00000100 	andeq	r0, r0, r0, lsl #2
    11dc:	73752f01 	cmnvc	r5, #1, 30
    11e0:	6e692f72 	mcrvs	15, 3, r2, cr9, cr2, {3}
    11e4:	64756c63 	ldrbtvs	r6, [r5], #-3171	; 0xc63
    11e8:	656e2f65 	strbvs	r2, [lr, #-3941]!	; 0xf65
    11ec:	62696c77 	rsbvs	r6, r9, #30464	; 0x7700
    11f0:	7379732f 	cmnvc	r9, #-1140850688	; 0xbc000000
    11f4:	73752f00 	cmnvc	r5, #0, 30
    11f8:	696c2f72 	stmdbvs	ip!, {r1, r4, r5, r6, r8, r9, sl, fp, sp}^
    11fc:	63672f62 	cmnvs	r7, #392	; 0x188
    1200:	72612f63 	rsbvc	r2, r1, #396	; 0x18c
    1204:	6f6e2d6d 	svcvs	0x006e2d6d
    1208:	652d656e 	strvs	r6, [sp, #-1390]!	; 0x56e
    120c:	2f696261 	svccs	0x00696261
    1210:	2e332e36 	mrccs	14, 1, r2, cr3, cr6, {1}
    1214:	6e692f31 	mcrvs	15, 3, r2, cr9, cr1, {1}
    1218:	64756c63 	ldrbtvs	r6, [r5], #-3171	; 0xc63
    121c:	682f0065 	stmdavs	pc!, {r0, r2, r5, r6}	; <UNPREDICTABLE>
    1220:	2f656d6f 	svccs	0x00656d6f
    1224:	6c676e65 	stclvs	14, cr6, [r7], #-404	; 0xfffffe6c
    1228:	632f7265 	teqvs	pc, #1342177286	; 0x50000006
    122c:	7373616c 	cmnvc	r3, #108, 2
    1230:	3273632f 	rsbscc	r6, r3, #-1140850688	; 0xbc000000
    1234:	786c3034 	stmdavc	ip!, {r2, r4, r5, ip, sp}^
    1238:	7330322d 	teqvc	r0, #-805306366	; 0xd0000002
    123c:	2f2f7270 	svccs	0x002f7270
    1240:	7062696c 	rsbvc	r6, r2, ip, ror #18
    1244:	752f0069 	strvc	r0, [pc, #-105]!	; 11e3 <__code_start__-0x6e1d>
    1248:	692f7273 	stmdbvs	pc!, {r0, r1, r4, r5, r6, r9, ip, sp, lr}	; <UNPREDICTABLE>
    124c:	756c636e 	strbvc	r6, [ip, #-878]!	; 0x36e
    1250:	6e2f6564 	cfsh64vs	mvdx6, mvdx15, #52
    1254:	696c7765 	stmdbvs	ip!, {r0, r2, r5, r6, r8, r9, sl, ip, sp, lr}^
    1258:	6b000062 	blvs	13e8 <__code_start__-0x6c18>
    125c:	6c6c616d 	stfvse	f6, [ip], #-436	; 0xfffffe4c
    1260:	632e636f 	teqvs	lr, #-1140850687	; 0xbc000001
    1264:	00000000 	andeq	r0, r0, r0
    1268:	6b636f6c 	blvs	18dd020 <__bss_end__+0x18d24a8>
    126c:	0100682e 	tsteq	r0, lr, lsr #16
    1270:	745f0000 	ldrbvc	r0, [pc], #-0	; 1278 <__code_start__-0x6d88>
    1274:	73657079 	cmnvc	r5, #121	; 0x79
    1278:	0100682e 	tsteq	r0, lr, lsr #16
    127c:	74730000 	ldrbtvc	r0, [r3], #-0
    1280:	66656464 	strbtvs	r6, [r5], -r4, ror #8
    1284:	0200682e 	andeq	r6, r0, #3014656	; 0x2e0000
    1288:	65720000 	ldrbvs	r0, [r2, #-0]!
    128c:	2e746e65 	cdpcs	14, 7, cr6, cr4, cr5, {3}
    1290:	00010068 	andeq	r0, r1, r8, rrx
    1294:	69707200 	ldmdbvs	r0!, {r9, ip, sp, lr}^
    1298:	0300682e 	movweq	r6, #2094	; 0x82e
    129c:	74730000 	ldrbtvc	r0, [r3], #-0
    12a0:	676e6972 			; <UNDEFINED> instruction: 0x676e6972
    12a4:	0400682e 	streq	r6, [r0], #-2094	; 0x82e
    12a8:	00000000 	andeq	r0, r0, r0
    12ac:	9ab40205 	bls	fed01ac8 <__bss_end__+0xfecf6f50>
    12b0:	10030000 	andne	r0, r3, r0
    12b4:	01830101 	orreq	r0, r3, r1, lsl #2
    12b8:	00831468 	addeq	r1, r3, r8, ror #8
    12bc:	7f010402 	svcvc	0x00010402
    12c0:	01040200 	mrseq	r0, R12_usr
    12c4:	2f5c0830 	svccs	0x005c0830
    12c8:	4b4b4c4b 	blmi	12d43fc <__bss_end__+0x12c9884>
    12cc:	04020068 	streq	r0, [r2], #-104	; 0x68
    12d0:	4a790301 	bmi	1e41edc <__bss_end__+0x1e37364>
    12d4:	58080903 	stmdapl	r8, {r0, r1, r8, fp}
    12d8:	4e2e012f 	sufmiep	f0, f6, #10.0
    12dc:	674b6a2f 	strbvs	r6, [fp, -pc, lsr #20]
    12e0:	002f4c67 	eoreq	r4, pc, r7, ror #24
    12e4:	03010402 	movweq	r0, #5122	; 0x1402
    12e8:	02002e76 	andeq	r2, r0, #1888	; 0x760
    12ec:	08dc0104 	ldmeq	ip, {r2, r8}^
    12f0:	9f012f7a 	svcls	0x00012f7a
    12f4:	00080201 	andeq	r0, r8, r1, lsl #4
    12f8:	Address 0x00000000000012f8 is out of bounds.


Disassembly of section .debug_str:

00000000 <.debug_str>:
   0:	657a6973 	ldrbvs	r6, [sl, #-2419]!	; 0x973
   4:	6300745f 	movwvs	r7, #1119	; 0x45f
   8:	6c6c616b 	stfvse	f6, [ip], #-428	; 0xfffffe54
   c:	2f00636f 	svccs	0x0000636f
  10:	72657355 	rsbvc	r7, r5, #1409286145	; 0x54000001
  14:	72622f73 	rsbvc	r2, r2, #460	; 0x1cc
  18:	6a6e6169 	bvs	1b985c4 <__bss_end__+0x1b8da4c>
  1c:	442f6e75 	strtmi	r6, [pc], #-3701	; 24 <__code_start__-0x7fdc>
  20:	746b7365 	strbtvc	r7, [fp], #-869	; 0x365
  24:	732f706f 	teqvc	pc, #111	; 0x6f
  28:	6f6f6863 	svcvs	0x006f6863
  2c:	70532f6c 	subsvc	r2, r3, ip, ror #30
  30:	676e6972 			; <UNDEFINED> instruction: 0x676e6972
  34:	30323931 	eorscc	r3, r2, r1, lsr r9
  38:	3253432f 	subscc	r4, r3, #-1140850688	; 0xbc000000
  3c:	584c3034 	stmdapl	ip, {r2, r4, r5, ip, sp}^
  40:	3273632f 	rsbscc	r6, r3, #-1140850688	; 0xbc000000
  44:	786c3034 	stmdavc	ip!, {r2, r4, r5, ip, sp}^
  48:	7330322d 	teqvc	r0, #-805306366	; 0xd0000002
  4c:	6c2f7270 	sfmvs	f7, 4, [pc], #-448	; fffffe94 <__bss_end__+0xffff531c>
  50:	2f736261 	svccs	0x00736261
  54:	672d3131 			; <UNDEFINED> instruction: 0x672d3131
  58:	6f632f63 	svcvs	0x00632f63
  5c:	47006564 	strmi	r6, [r0, -r4, ror #10]
  60:	4320554e 	teqmi	r0, #327155712	; 0x13800000
  64:	382e3420 	stmdacc	lr!, {r5, sl, ip, sp}
  68:	2d20332e 	stccs	3, cr3, [r0, #-184]!	; 0xffffff48
  6c:	7570636d 	ldrbvc	r6, [r0, #-877]!	; 0x36d
  70:	6d72613d 	ldfvse	f6, [r2, #-244]!	; 0xffffff0c
  74:	36373131 			; <UNDEFINED> instruction: 0x36373131
  78:	2d667a6a 	vstmdbcs	r6!, {s15-s120}
  7c:	6d2d2073 	stcvs	0, cr2, [sp, #-460]!	; 0xfffffe34
  80:	656e7574 	strbvs	r7, [lr, #-1396]!	; 0x574
  84:	6d72613d 	ldfvse	f6, [r2, #-244]!	; 0xffffff0c
  88:	36373131 			; <UNDEFINED> instruction: 0x36373131
  8c:	2d667a6a 	vstmdbcs	r6!, {s15-s120}
  90:	672d2073 			; <UNDEFINED> instruction: 0x672d2073
  94:	20626467 	rsbcs	r6, r2, r7, ror #8
  98:	20674f2d 	rsbcs	r4, r7, sp, lsr #30
  9c:	6474732d 	ldrbtvs	r7, [r4], #-813	; 0x32d
  a0:	756e673d 	strbvc	r6, [lr, #-1853]!	; 0x73d
  a4:	2d203939 	stccs	9, cr3, [r0, #-228]!	; 0xffffff1c
  a8:	65726666 	ldrbvs	r6, [r2, #-1638]!	; 0x666
  ac:	61747365 	cmnvs	r4, r5, ror #6
  b0:	6e69646e 	cdpvs	4, 6, cr6, cr9, cr14, {3}
  b4:	6f6e0067 	svcvs	0x006e0067
  b8:	69616d74 	stmdbvs	r1!, {r2, r4, r5, r6, r8, sl, fp, sp, lr}^
  bc:	6863006e 	stmdavs	r3!, {r1, r2, r3, r5, r6}^
  c0:	5f6b6365 	svcpl	0x006b6365
  c4:	6c5f6f6e 	mrrcvs	15, 6, r6, pc, cr14	; <UNPREDICTABLE>
  c8:	006b6165 	rsbeq	r6, fp, r5, ror #2
  cc:	74736574 	ldrbtvc	r6, [r3], #-1396	; 0x574
  d0:	61702f73 	cmnvs	r0, r3, ror pc
  d4:	2d327472 	cfldrscs	mvf7, [r2, #-456]!	; 0xfffffe38
  d8:	74736574 	ldrbtvc	r6, [r3], #-1396	; 0x574
  dc:	00632e33 	rsbeq	r2, r3, r3, lsr lr
  e0:	69736e75 	ldmdbvs	r3!, {r0, r2, r4, r5, r6, r9, sl, fp, sp, lr}^
  e4:	64656e67 	strbtvs	r6, [r5], #-3687	; 0xe67
  e8:	61686320 	cmnvs	r8, r0, lsr #6
  ec:	68730072 	ldmdavs	r3!, {r1, r4, r5, r6}^
  f0:	2074726f 	rsbscs	r7, r4, pc, ror #4
  f4:	69736e75 	ldmdbvs	r3!, {r0, r2, r4, r5, r6, r9, sl, fp, sp, lr}^
  f8:	64656e67 	strbtvs	r6, [r5], #-3687	; 0xe67
  fc:	746e6920 	strbtvc	r6, [lr], #-2336	; 0x920
 100:	616d6b00 	cmnvs	sp, r0, lsl #22
 104:	636f6c6c 	cmnvs	pc, #108, 24	; 0x6c00
 108:	6d656d00 	stclvs	13, cr6, [r5, #-0]
 10c:	00746573 	rsbseq	r6, r4, r3, ror r5
 110:	55465f5f 	strbpl	r5, [r6, #-3935]	; 0xf5f
 114:	4954434e 	ldmdbmi	r4, {r1, r2, r3, r6, r8, r9, lr}^
 118:	5f5f4e4f 	svcpl	0x005f4e4f
 11c:	73657400 	cmnvc	r5, #0, 8
 120:	6b630074 	blvs	18c02f8 <__bss_end__+0x18b5780>
 124:	696e695f 	stmdbvs	lr!, {r0, r1, r2, r3, r4, r6, r8, fp, sp, lr}^
 128:	6f6c0074 	svcvs	0x006c0074
 12c:	6c20676e 	stcvs	7, cr6, [r0], #-440	; 0xfffffe48
 130:	20676e6f 	rsbcs	r6, r7, pc, ror #28
 134:	69736e75 	ldmdbvs	r3!, {r0, r2, r4, r5, r6, r9, sl, fp, sp, lr}^
 138:	64656e67 	strbtvs	r6, [r5], #-3687	; 0xe67
 13c:	746e6920 	strbtvc	r6, [lr], #-2336	; 0x920
 140:	7a697300 	bvc	1a5cd48 <__bss_end__+0x1a521d0>
 144:	70797465 	rsbsvc	r7, r9, r5, ror #8
 148:	6f6c0065 	svcvs	0x006c0065
 14c:	6c20676e 	stcvs	7, cr6, [r0], #-440	; 0xfffffe48
 150:	20676e6f 	rsbcs	r6, r7, pc, ror #28
 154:	00746e69 	rsbseq	r6, r4, r9, ror #28
 158:	726f6873 	rsbvc	r6, pc, #7536640	; 0x730000
 15c:	6e692074 	mcrvs	0, 3, r2, cr9, cr4, {3}
 160:	69750074 	ldmdbvs	r5!, {r2, r4, r5, r6}^
 164:	3233746e 	eorscc	r7, r3, #1845493760	; 0x6e000000
 168:	6b00745f 	blvs	1d2ec <__bss_end__+0x12774>
 16c:	6c6c616d 	stfvse	f6, [ip], #-436	; 0xfffffe4c
 170:	695f636f 	ldmdbvs	pc, {r0, r1, r2, r3, r5, r6, r8, r9, sp, lr}^	; <UNPREDICTABLE>
 174:	5f74696e 	svcpl	0x0074696e
 178:	5f746573 	svcpl	0x00746573
 17c:	72617473 	rsbvc	r7, r1, #1929379840	; 0x73000000
 180:	626e0074 	rsbvs	r0, lr, #116	; 0x74
 184:	73657479 	cmnvc	r5, #2030043136	; 0x79000000
 188:	6572665f 	ldrbvs	r6, [r2, #-1631]!	; 0x65f
 18c:	63006465 	movwvs	r6, #1125	; 0x465
 190:	69665f6b 	stmdbvs	r6!, {r0, r1, r3, r5, r6, r8, r9, sl, fp, ip, lr}^
 194:	5f747372 	svcpl	0x00747372
 198:	00726468 	rsbseq	r6, r2, r8, ror #8
 19c:	76657270 			; <UNDEFINED> instruction: 0x76657270
 1a0:	646c6f00 	strbtvs	r6, [ip], #-3840	; 0xf00
 1a4:	72616d5f 	rsbvc	r6, r1, #6080	; 0x17c0
 1a8:	5f68006b 	svcpl	0x0068006b
 1ac:	72646461 	rsbvc	r6, r4, #1627389952	; 0x61000000
 1b0:	73616600 	cmnvc	r1, #0, 12
 1b4:	61685f74 	smcvs	34292	; 0x85f4
 1b8:	62006873 	andvs	r6, r0, #7536640	; 0x730000
 1bc:	317a725f 	cmncc	sl, pc, asr r2
 1c0:	7274705f 	rsbsvc	r7, r4, #95	; 0x5f
 1c4:	45524600 	ldrbmi	r4, [r2, #-1536]	; 0x600
 1c8:	41004445 	tstmi	r0, r5, asr #8
 1cc:	434f4c4c 	movtmi	r4, #64588	; 0xfc4c
 1d0:	62004445 	andvs	r4, r0, #1157627904	; 0x45000000
 1d4:	6464615f 	strbtvs	r6, [r4], #-351	; 0x15f
 1d8:	6f745f72 	svcvs	0x00745f72
 1dc:	7264685f 	rsbvc	r6, r4, #6225920	; 0x5f0000
 1e0:	5f796d00 	svcpl	0x00796d00
 1e4:	6f666e69 	svcvs	0x00666e69
 1e8:	6e697500 	cdpvs	5, 6, cr7, cr9, cr0, {0}
 1ec:	5f363174 	svcpl	0x00363174
 1f0:	564f0074 			; <UNDEFINED> instruction: 0x564f0074
 1f4:	45485245 	strbmi	r5, [r8, #-581]	; 0x245
 1f8:	4e5f4441 	cdpmi	4, 5, cr4, cr15, cr1, {2}
 1fc:	45545942 	ldrbmi	r5, [r4, #-2370]	; 0x942
 200:	6b630053 	blvs	18c0354 <__bss_end__+0x18b57dc>
 204:	6165685f 	cmnvs	r5, pc, asr r8
 208:	72655f70 	rsbvc	r5, r5, #112, 30	; 0x1c0
 20c:	73726f72 	cmnvc	r2, #456	; 0x1c8
 210:	4c4c4100 	stfmie	f4, [ip], {-0}
 214:	4f5f434f 	svcmi	0x005f434f
 218:	45534646 	ldrbmi	r4, [r3, #-1606]	; 0x646
 21c:	70720054 	rsbsvc	r0, r2, r4, asr r0
 220:	65725f69 	ldrbvs	r5, [r2, #-3945]!	; 0xf69
 224:	5f746573 	svcpl	0x00746573
 228:	63747570 	cmnvs	r4, #112, 10	; 0x1c000000
 22c:	72756300 	rsbsvc	r6, r5, #0, 6
 230:	64685f72 	strbtvs	r5, [r8], #-3954	; 0xf72
 234:	5f620072 	svcpl	0x00620072
 238:	61746f74 	cmnvs	r4, r4, ror pc
 23c:	79625f6c 	stmdbvc	r2!, {r2, r3, r5, r6, r8, r9, sl, fp, ip, lr}^
 240:	00736574 	rsbseq	r6, r3, r4, ror r5
 244:	63656863 	cmnvs	r5, #6488064	; 0x630000
 248:	74705f6b 	ldrbtvc	r5, [r0], #-3947	; 0xf6b
 24c:	6b630072 	blvs	18c041c <__bss_end__+0x18b58a4>
 250:	6f6c6c61 	svcvs	0x006c6c61
 254:	00632e63 	rsbeq	r2, r3, r3, ror #28
 258:	72666b63 	rsbvc	r6, r6, #101376	; 0x18c00
 25c:	63006565 	movwvs	r6, #1381	; 0x565
 260:	656e5f6b 	strbvs	r5, [lr, #-3947]!	; 0xf6b
 264:	685f7478 	ldmdavs	pc, {r3, r4, r5, r6, sl, ip, sp, lr}^	; <UNPREDICTABLE>
 268:	63007264 	movwvs	r7, #612	; 0x264
 26c:	6e61656c 	cdpvs	5, 6, cr6, cr1, cr12, {3}
 270:	6265725f 	rsbvs	r7, r5, #-268435451	; 0xf0000005
 274:	00746f6f 	rsbseq	r6, r4, pc, ror #30
 278:	6f6c6c61 	svcvs	0x006c6c61
 27c:	6f6c5f63 	svcvs	0x006c5f63
 280:	64680063 	strbtvs	r0, [r8], #-99	; 0x63
 284:	6b635f72 	blvs	18d8054 <__bss_end__+0x18cd4dc>
 288:	006d7573 	rsbeq	r7, sp, r3, ror r5
 28c:	5a444552 	bpl	11117dc <__bss_end__+0x1106c64>
 290:	00454e4f 	subeq	r4, r5, pc, asr #28
 294:	5f646c6f 	svcpl	0x00646c6f
 298:	75736b63 	ldrbvc	r6, [r3, #-2915]!	; 0xb63
 29c:	626e006d 	rsbvs	r0, lr, #109	; 0x6d
 2a0:	73657479 	cmnvc	r5, #2030043136	; 0x79000000
 2a4:	6c6c615f 	stfvse	f6, [ip], #-380	; 0xfffffe84
 2a8:	6600636f 	strvs	r6, [r0], -pc, ror #6
 2ac:	5f656572 	svcpl	0x00656572
 2b0:	00636f6c 	rsbeq	r6, r3, ip, ror #30
 2b4:	6c615f62 	stclvs	15, cr5, [r1], #-392	; 0xfffffe78
 2b8:	5f636f6c 	svcpl	0x00636f6c
 2bc:	00727470 	rsbseq	r7, r2, r0, ror r4
 2c0:	70616568 	rsbvc	r6, r1, r8, ror #10
 2c4:	666e695f 			; <UNDEFINED> instruction: 0x666e695f
 2c8:	7273006f 	rsbsvc	r0, r3, #111	; 0x6f
 2cc:	6f6c5f63 	svcvs	0x006c5f63
 2d0:	00745f63 	rsbseq	r5, r4, r3, ror #30
 2d4:	63656863 	cmnvs	r5, #6488064	; 0x630000
 2d8:	64685f6b 	strbtvs	r5, [r8], #-3947	; 0xf6b
 2dc:	5f620072 	svcpl	0x00620072
 2e0:	5f327a72 	svcpl	0x00327a72
 2e4:	00727470 	rsbseq	r7, r2, r0, ror r4
 2e8:	7272656e 	rsbsvc	r6, r2, #461373440	; 0x1b800000
 2ec:	0073726f 	rsbseq	r7, r3, pc, ror #4
 2f0:	5f726468 	svcpl	0x00726468
 2f4:	6e697270 	mcrvs	2, 3, r7, cr9, cr0, {3}
 2f8:	626e0074 	rsbvs	r0, lr, #116	; 0x74
 2fc:	00736b6c 	rsbseq	r6, r3, ip, ror #22
 300:	544e4553 	strbpl	r4, [lr], #-1363	; 0x553
 304:	4c414e49 	mcrrmi	14, 4, r4, r1, cr9
 308:	72616d00 	rsbvc	r6, r1, #0, 26
 30c:	656d5f6b 	strbvs	r5, [sp, #-3947]!	; 0xf6b
 310:	6c6f006d 	stclvs	0, cr0, [pc], #-436	; 164 <__code_start__-0x7e9c>
 314:	65725f64 	ldrbvs	r5, [r2, #-3940]!	; 0xf64
 318:	6d5f7366 	ldclvs	3, cr7, [pc, #-408]	; 188 <__code_start__-0x7e78>
 31c:	6c646469 	cfstrdvs	mvd6, [r4], #-420	; 0xfffffe5c
 320:	626e0065 	rsbvs	r0, lr, #101	; 0x65
 324:	73657479 	cmnvc	r5, #2030043136	; 0x79000000
 328:	6c6c615f 	stfvse	f6, [ip], #-380	; 0xfffffe84
 32c:	6465636f 	strbtvs	r6, [r5], #-879	; 0x36f
 330:	65686300 	strbvs	r6, [r8, #-768]!	; 0x300
 334:	625f6b63 	subsvs	r6, pc, #101376	; 0x18c00
 338:	6b636f6c 	blvs	18dc0f0 <__bss_end__+0x18d1578>
 33c:	6e696c00 	cdpvs	12, 6, cr6, cr9, cr0, {0}
 340:	006f6e65 	rsbeq	r6, pc, r5, ror #28
 344:	7a725f62 	bvc	1c980d4 <__bss_end__+0x1c8d55c>
 348:	626e5f32 	rsbvs	r5, lr, #50, 30	; 0xc8
 34c:	73657479 	cmnvc	r5, #2030043136	; 0x79000000
 350:	72646800 	rsbvc	r6, r4, #0, 16
 354:	736b635f 	cmnvc	fp, #2080374785	; 0x7c000001
 358:	765f6d75 			; <UNDEFINED> instruction: 0x765f6d75
 35c:	75006c61 	strvc	r6, [r0, #-3169]	; 0xc61
 360:	38746e69 	ldmdacc	r4!, {r0, r3, r5, r6, r9, sl, fp, sp, lr}^
 364:	6800745f 	stmdavs	r0, {r0, r1, r2, r3, r4, r6, sl, ip, sp, lr}
 368:	745f7264 	ldrbvc	r7, [pc], #-612	; 370 <__code_start__-0x7c90>
 36c:	646c6f00 	strbtvs	r6, [ip], #-3840	; 0xf00
 370:	6665725f 			; <UNDEFINED> instruction: 0x6665725f
 374:	74735f73 	ldrbtvc	r5, [r3], #-3955	; 0xf73
 378:	00747261 	rsbseq	r7, r4, r1, ror #4
 37c:	7479626e 	ldrbtvc	r6, [r9], #-622	; 0x26e
 380:	725f7365 	subsvc	r7, pc, #-1811939327	; 0x94000001
 384:	6c006d65 	stcvs	13, cr6, [r0], {101}	; 0x65
 388:	00746665 	rsbseq	r6, r4, r5, ror #12
 38c:	63656863 	cmnvs	r5, #6488064	; 0x630000
 390:	656d5f6b 	strbvs	r5, [sp, #-3947]!	; 0xf6b
 394:	6568006d 	strbvs	r0, [r8, #-109]!	; 0x6d
 398:	72656461 	rsbvc	r6, r5, #1627389952	; 0x61000000
 39c:	61747300 	cmnvs	r4, r0, lsl #6
 3a0:	745f6b63 	ldrbvc	r6, [pc], #-2915	; 3a8 <__code_start__-0x7c58>
 3a4:	7700706f 	strvc	r7, [r0, -pc, rrx]
 3a8:	5f6e7261 	svcpl	0x006e7261
 3ac:	735f6f6e 	cmpvc	pc, #440	; 0x1b8
 3b0:	74726174 	ldrbtvc	r6, [r2], #-372	; 0x174
 3b4:	6665725f 			; <UNDEFINED> instruction: 0x6665725f
 3b8:	6900705f 	stmdbvs	r0, {r0, r1, r2, r3, r4, r6, ip, sp, lr}
 3bc:	656c706d 	strbvs	r7, [ip, #-109]!	; 0x6d
 3c0:	746e656d 	strbtvc	r6, [lr], #-1389	; 0x56d
 3c4:	6968745f 	stmdbvs	r8!, {r0, r1, r2, r3, r4, r6, sl, ip, sp, lr}^
 3c8:	6c6e0073 	stclvs	0, cr0, [lr], #-460	; 0xfffffe34
 3cc:	736b6165 	cmnvc	fp, #1073741849	; 0x40000019
 3d0:	65777300 	ldrbvs	r7, [r7, #-768]!	; 0x300
 3d4:	665f7065 	ldrbvs	r7, [pc], -r5, rrx
 3d8:	00656572 	rsbeq	r6, r5, r2, ror r5
 3dc:	6279616d 	rsbsvs	r6, r9, #1073741851	; 0x4000001b
 3e0:	72655f65 	rsbvc	r5, r5, #404	; 0x194
 3e4:	73726f72 	cmnvc	r2, #456	; 0x1c8
 3e8:	5f6b6300 	svcpl	0x006b6300
 3ec:	63006367 	movwvs	r6, #871	; 0x367
 3f0:	69665f6b 	stmdbvs	r6!, {r0, r1, r3, r5, r6, r8, r9, sl, fp, ip, lr}^
 3f4:	6c5f646e 	cfldrdvs	mvd6, [pc], {110}	; 0x6e
 3f8:	736b6165 	cmnvc	fp, #1073741849	; 0x40000019
 3fc:	625f5f00 	subsvs	r5, pc, #0, 30
 400:	735f7373 	cmpvc	pc, #-872415231	; 0xcc000001
 404:	74726174 	ldrbtvc	r6, [r2], #-372	; 0x174
 408:	5f005f5f 	svcpl	0x00005f5f
 40c:	7373625f 	cmnvc	r3, #-268435451	; 0xf0000005
 410:	646e655f 	strbtvs	r6, [lr], #-1375	; 0x55f
 414:	73005f5f 	movwvc	r5, #3935	; 0xf5f
 418:	70656577 	rsbvc	r6, r5, r7, ror r5
 41c:	61656c5f 	cmnvs	r5, pc, asr ip
 420:	6e69006b 	cdpvs	0, 6, cr0, cr9, cr11, {3}
 424:	6165685f 	cmnvs	r5, pc, asr r8
 428:	75630070 	strbvc	r0, [r3, #-112]!	; 0x70
 42c:	63007272 	movwvs	r7, #626	; 0x272
 430:	6b636568 	blvs	18d99d8 <__bss_end__+0x18cee60>
 434:	6f68735f 	svcvs	0x0068735f
 438:	5f646c75 	svcpl	0x00646c75
 43c:	6b61656c 	blvs	18599f4 <__bss_end__+0x184ee7c>
 440:	645f5f00 	ldrbvs	r5, [pc], #-3840	; 448 <__code_start__-0x7bb8>
 444:	5f617461 	svcpl	0x00617461
 448:	72617473 	rsbvc	r7, r1, #1929379840	; 0x73000000
 44c:	005f5f74 	subseq	r5, pc, r4, ror pc	; <UNPREDICTABLE>
 450:	706d7564 	rsbvc	r7, sp, r4, ror #10
 454:	6765725f 			; <UNDEFINED> instruction: 0x6765725f
 458:	666e0073 			; <UNDEFINED> instruction: 0x666e0073
 45c:	64656572 	strbtvs	r6, [r5], #-1394	; 0x572
 460:	2d6b6300 	stclcs	3, cr6, [fp, #-0]
 464:	632e6367 	teqvs	lr, #-1677721599	; 0x9c000001
 468:	645f5f00 	ldrbvs	r5, [pc], #-3840	; 470 <__code_start__-0x7b90>
 46c:	5f617461 	svcpl	0x00617461
 470:	5f646e65 	svcpl	0x00646e65
 474:	616d005f 	qdsubvs	r0, pc, sp	; <UNPREDICTABLE>
 478:	615f6b72 	cmpvs	pc, r2, ror fp	; <UNPREDICTABLE>
 47c:	69006c6c 	stmdbvs	r0, {r2, r3, r5, r6, sl, fp, sp, lr}
 480:	74705f73 	ldrbtvc	r5, [r0], #-3955	; 0xf73
 484:	626e0072 	rsbvs	r0, lr, #114	; 0x72
 488:	6b636f6c 	blvs	18dc240 <__bss_end__+0x18d16c8>
 48c:	696c0073 	stmdbvs	ip!, {r0, r1, r4, r5, r6}^
 490:	682f6362 	stmdavs	pc!, {r1, r5, r6, r8, r9, sp, lr}	; <UNPREDICTABLE>
 494:	2e687361 	cdpcs	3, 6, cr7, cr8, cr1, {3}
 498:	552f0063 	strpl	r0, [pc, #-99]!	; 43d <__code_start__-0x7bc3>
 49c:	73726573 	cmnvc	r2, #482344960	; 0x1cc00000
 4a0:	6972622f 	ldmdbvs	r2!, {r0, r1, r2, r3, r5, r9, sp, lr}^
 4a4:	756a6e61 	strbvc	r6, [sl, #-3681]!	; 0xe61
 4a8:	65442f6e 	strbvs	r2, [r4, #-3950]	; 0xf6e
 4ac:	6f746b73 	svcvs	0x00746b73
 4b0:	63732f70 	cmnvs	r3, #112, 30	; 0x1c0
 4b4:	6c6f6f68 	stclvs	15, cr6, [pc], #-416	; 31c <__code_start__-0x7ce4>
 4b8:	7270532f 	rsbsvc	r5, r0, #-1140850688	; 0xbc000000
 4bc:	31676e69 	cmncc	r7, r9, ror #28
 4c0:	2f303239 	svccs	0x00303239
 4c4:	34325343 	ldrtcc	r5, [r2], #-835	; 0x343
 4c8:	2f584c30 	svccs	0x00584c30
 4cc:	34327363 	ldrtcc	r7, [r2], #-867	; 0x363
 4d0:	2d786c30 	ldclcs	12, cr6, [r8, #-192]!	; 0xffffff40
 4d4:	70733032 	rsbsvc	r3, r3, r2, lsr r0
 4d8:	696c2f72 	stmdbvs	ip!, {r1, r4, r5, r6, r8, r9, sl, fp, sp}^
 4dc:	00697062 	rsbeq	r7, r9, r2, rrx
 4e0:	6362696c 	cmnvs	r2, #108, 18	; 0x1b0000
 4e4:	6d656d2f 	stclvs	13, cr6, [r5, #-188]!	; 0xffffff44
 4e8:	2e746573 	mrccs	5, 3, r6, cr4, cr3, {3}
 4ec:	5f5f0063 	svcpl	0x005f0063
 4f0:	63756e67 	cmnvs	r5, #1648	; 0x670
 4f4:	5f61765f 	svcpl	0x0061765f
 4f8:	7473696c 	ldrbtvc	r6, [r3], #-2412	; 0x96c
 4fc:	62696c00 	rsbvs	r6, r9, #0, 24
 500:	72702f63 	rsbsvc	r2, r0, #396	; 0x18c
 504:	6b746e69 	blvs	1d1beb0 <__bss_end__+0x1d11338>
 508:	7600632e 	strvc	r6, [r0], -lr, lsr #6
 50c:	72705f61 	rsbsvc	r5, r0, #388	; 0x184
 510:	6b746e69 	blvs	1d1bebc <__bss_end__+0x1d11344>
 514:	765f5f00 	ldrbvc	r5, [pc], -r0, lsl #30
 518:	696c5f61 	stmdbvs	ip!, {r0, r5, r6, r8, r9, sl, fp, ip, lr}^
 51c:	5f007473 	svcpl	0x00007473
 520:	0070615f 	rsbseq	r6, r0, pc, asr r1
 524:	74726175 	ldrbtvc	r6, [r2], #-373	; 0x175
 528:	7475705f 	ldrbtvc	r7, [r5], #-95	; 0x5f
 52c:	6e690063 	cdpvs	0, 6, cr0, cr9, cr3, {3}
 530:	6e726574 	mrcvs	5, 3, r6, cr2, cr4, {3}
 534:	705f6c61 	subsvc	r6, pc, r1, ror #24
 538:	68637475 	stmdavs	r3!, {r0, r2, r4, r5, r6, sl, ip, sp, lr}^
 53c:	72007261 	andvc	r7, r0, #268435462	; 0x10000006
 540:	705f6970 	subsvc	r6, pc, r0, ror r9	; <UNPREDICTABLE>
 544:	68637475 	stmdavs	r3!, {r0, r2, r4, r5, r6, sl, ip, sp, lr}^
 548:	6c007261 	sfmvs	f7, 4, [r0], {97}	; 0x61
 54c:	2f636269 	svccs	0x00636269
 550:	63747570 	cmnvs	r4, #112, 10	; 0x1c000000
 554:	2e726168 	rpwcssz	f6, f2, #0.0
 558:	70720063 	rsbsvc	r0, r2, r3, rrx
 55c:	65735f69 	ldrbvs	r5, [r3, #-3945]!	; 0xf69
 560:	75705f74 	ldrbvc	r5, [r0, #-3956]!	; 0xf74
 564:	6c006374 	stcvs	3, cr6, [r0], {116}	; 0x74
 568:	2f636269 	svccs	0x00636269
 56c:	6b747570 	blvs	1d1db34 <__bss_end__+0x1d12fbc>
 570:	6900632e 	stmdbvs	r0, {r1, r2, r3, r5, r8, r9, sp, lr}
 574:	7265746e 	rsbvc	r7, r5, #1845493760	; 0x6e000000
 578:	5f6c616e 	svcpl	0x006c616e
 57c:	6b747570 	blvs	1d1db44 <__bss_end__+0x1d12fcc>
 580:	67656e00 	strbvs	r6, [r5, -r0, lsl #28]!
 584:	7200705f 	andvc	r7, r0, #95	; 0x5f
 588:	72657665 	rsbvc	r7, r5, #105906176	; 0x6500000
 58c:	69006573 	stmdbvs	r0, {r0, r1, r4, r5, r6, r8, sl, sp, lr}
 590:	67696473 			; <UNDEFINED> instruction: 0x67696473
 594:	70007469 	andvc	r7, r0, r9, ror #8
 598:	5f737475 	svcpl	0x00737475
 59c:	73007066 	movwvc	r7, #102	; 0x66
 5a0:	656e6769 	strbvs	r6, [lr, #-1897]!	; 0x769
 5a4:	00705f64 	rsbseq	r5, r0, r4, ror #30
 5a8:	6362696c 	cmnvs	r2, #108, 18	; 0x1b0000
 5ac:	2d61762f 	stclcs	6, cr7, [r1, #-188]!	; 0xffffff44
 5b0:	6e697270 	mcrvs	2, 3, r7, cr9, cr0, {3}
 5b4:	632e6b74 	teqvs	lr, #116, 22	; 0x1d000
 5b8:	69707200 	ldmdbvs	r0!, {r9, ip, sp, lr}^
 5bc:	7465735f 	strbtvc	r7, [r5], #-863	; 0x35f
 5c0:	74756f5f 	ldrbtvc	r6, [r5], #-3935	; 0xf5f
 5c4:	00747570 	rsbseq	r7, r4, r0, ror r5
 5c8:	74646977 	strbtvc	r6, [r4], #-2423	; 0x977
 5cc:	75700068 	ldrbvc	r0, [r0, #-104]!	; 0x68
 5d0:	665f6374 			; <UNDEFINED> instruction: 0x665f6374
 5d4:	6d650070 	stclvs	0, cr0, [r5, #-448]!	; 0xfffffe40
 5d8:	73007469 	movwvc	r7, #1129	; 0x469
 5dc:	66666174 			; <UNDEFINED> instruction: 0x66666174
 5e0:	6372732d 	cmnvs	r2, #-1275068416	; 0xb4000000
 5e4:	656c632f 	strbvs	r6, [ip, #-815]!	; 0x32f
 5e8:	722d6e61 	eorvc	r6, sp, #1552	; 0x610
 5ec:	6f6f6265 	svcvs	0x006f6265
 5f0:	00632e74 	rsbeq	r2, r3, r4, ror lr
 5f4:	5f697072 	svcpl	0x00697072
 5f8:	6f626572 	svcvs	0x00626572
 5fc:	6400746f 	strvs	r7, [r0], #-1135	; 0x46f
 600:	79616c65 	stmdbvc	r1!, {r0, r2, r5, r6, sl, fp, sp, lr}^
 604:	00736d5f 	rsbseq	r6, r3, pc, asr sp
 608:	5f737362 	svcpl	0x00737362
 60c:	00646e65 	rsbeq	r6, r4, r5, ror #28
 610:	7473635f 	ldrbtvc	r6, [r3], #-863	; 0x35f
 614:	00747261 	rsbseq	r7, r4, r1, ror #4
 618:	66617473 			; <UNDEFINED> instruction: 0x66617473
 61c:	72732d66 	rsbsvc	r2, r3, #6528	; 0x1980
 620:	73632f63 	cmnvc	r3, #396	; 0x18c
 624:	74726174 	ldrbtvc	r6, [r2], #-372	; 0x174
 628:	6100632e 	tstvs	r0, lr, lsr #6
 62c:	73755f74 	cmnvc	r5, #116, 30	; 0x1d0
 630:	6c5f7265 	lfmvs	f7, 2, [pc], {101}	; 0x65
 634:	6c657665 	stclvs	6, cr7, [r5], #-404	; 0xfffffe6c
 638:	61747300 	cmnvs	r4, r0, lsl #6
 63c:	732d6666 	teqvc	sp, #106954752	; 0x6600000
 640:	722f6372 	eorvc	r6, pc, #-939524095	; 0xc8000001
 644:	6f6f6265 	svcvs	0x006f6265
 648:	00632e74 	rsbeq	r2, r3, r4, ror lr
 64c:	525f4d50 	subspl	r4, pc, #80, 26	; 0x1400
 650:	5f435453 	svcpl	0x00435453
 654:	46435257 			; <UNDEFINED> instruction: 0x46435257
 658:	55465f47 	strbpl	r5, [r6, #-3911]	; 0xf47
 65c:	525f4c4c 	subspl	r4, pc, #76, 24	; 0x4c00
 660:	54455345 	strbpl	r5, [r5], #-837	; 0x345
 664:	5f4d5000 	svcpl	0x004d5000
 668:	474f4457 	smlsldmi	r4, pc, r7, r4	; <UNPREDICTABLE>
 66c:	74657300 	strbtvc	r7, [r5], #-768	; 0x300
 670:	6573755f 	ldrbvs	r7, [r3, #-1375]!	; 0x55f
 674:	656c5f72 	strbvs	r5, [ip, #-3954]!	; 0xf72
 678:	006c6576 	rsbeq	r6, ip, r6, ror r5
 67c:	33545550 	cmpcc	r4, #80, 10	; 0x14000000
 680:	4d500032 	ldclmi	0, cr0, [r0, #-200]	; 0xffffff38
 684:	5341505f 	movtpl	r5, #4191	; 0x105f
 688:	524f5753 	subpl	r5, pc, #21757952	; 0x14c0000
 68c:	4d500044 	ldclmi	0, cr0, [r0, #-272]	; 0xfffffef0
 690:	5453525f 	ldrbpl	r5, [r3], #-607	; 0x25f
 694:	70630043 	rsbvc	r0, r3, r3, asr #32
 698:	74007273 	strvc	r7, [r0], #-627	; 0x273
 69c:	72656d69 	rsbvc	r6, r5, #6720	; 0x1a40
 6a0:	7465675f 	strbtvc	r6, [r5], #-1887	; 0x75f
 6a4:	6573755f 	ldrbvs	r7, [r3, #-1375]!	; 0x55f
 6a8:	61725f63 	cmnvs	r2, r3, ror #30
 6ac:	65640077 	strbvs	r0, [r4, #-119]!	; 0x77
 6b0:	5f79616c 	svcpl	0x0079616c
 6b4:	00636573 	rsbeq	r6, r3, r3, ror r5
 6b8:	66617473 			; <UNDEFINED> instruction: 0x66617473
 6bc:	72732d66 	rsbsvc	r2, r3, #6528	; 0x1980
 6c0:	69742f63 	ldmdbvs	r4!, {r0, r1, r5, r6, r8, r9, sl, fp, sp}^
 6c4:	2e72656d 	cdpcs	5, 7, cr6, cr2, cr13, {3}
 6c8:	45470063 	strbmi	r0, [r7, #-99]	; 0x63
 6cc:	00323354 	eorseq	r3, r2, r4, asr r3
 6d0:	6b636974 	blvs	18daca8 <__bss_end__+0x18d0130>
 6d4:	65640073 	strbvs	r0, [r4, #-115]!	; 0x73
 6d8:	5f79616c 	svcpl	0x0079616c
 6dc:	6c637963 	stclvs	9, cr7, [r3], #-396	; 0xfffffe74
 6e0:	64007365 	strvs	r7, [r0], #-869	; 0x365
 6e4:	79616c65 	stmdbvc	r1!, {r0, r2, r5, r6, sl, fp, sp, lr}^
 6e8:	0073755f 	rsbseq	r7, r3, pc, asr r5
 6ec:	656d6974 	strbvs	r6, [sp, #-2420]!	; 0x974
 6f0:	65675f72 	strbvs	r5, [r7, #-3954]!	; 0xf72
 6f4:	73755f74 	cmnvc	r5, #116, 30	; 0x1d0
 6f8:	5f006365 	svcpl	0x00006365
 6fc:	5f6f7364 	svcpl	0x006f7364
 700:	646e6168 	strbtvs	r6, [lr], #-360	; 0x168
 704:	5f00656c 	svcpl	0x0000656c
 708:	657a6973 	ldrbvs	r6, [sl, #-2419]!	; 0x973
 70c:	61725f00 	cmnvs	r2, r0, lsl #30
 710:	3834646e 	ldmdacc	r4!, {r1, r2, r3, r5, r6, sl, sp, lr}
 714:	6d655f00 	stclvs	15, cr5, [r5, #-0]
 718:	65677265 	strbvs	r7, [r7, #-613]!	; 0x265
 71c:	0079636e 	rsbseq	r6, r9, lr, ror #6
 720:	74726175 	ldrbtvc	r6, [r2], #-373	; 0x175
 724:	696e695f 	stmdbvs	lr!, {r0, r1, r2, r3, r4, r6, r8, fp, sp, lr}^
 728:	775f0074 			; <UNDEFINED> instruction: 0x775f0074
 72c:	6f747263 	svcvs	0x00747263
 730:	735f626d 	cmpvc	pc, #-805306362	; 0xd0000006
 734:	65746174 	ldrbvs	r6, [r4, #-372]!	; 0x174
 738:	63775f00 	cmnvs	r7, #0, 30
 73c:	6f747273 	svcvs	0x00747273
 740:	5f73626d 	svcpl	0x0073626d
 744:	74617473 	strbtvc	r7, [r1], #-1139	; 0x473
 748:	6c5f0065 	mrrcvs	0, 6, r0, pc, cr5	; <UNPREDICTABLE>
 74c:	69736662 	ldmdbvs	r3!, {r1, r5, r6, r9, sl, sp, lr}^
 750:	4700657a 	smlsdxmi	r0, sl, r5, r6
 754:	5f4f4950 	svcpl	0x004f4950
 758:	434e5546 	movtmi	r5, #58694	; 0xe546
 75c:	504e495f 	subpl	r4, lr, pc, asr r9
 760:	5f005455 	svcpl	0x00005455
 764:	7472626d 	ldrbtvc	r6, [r2], #-621	; 0x26d
 768:	5f63776f 	svcpl	0x0063776f
 76c:	74617473 	strbtvc	r7, [r1], #-1139	; 0x473
 770:	775f0065 	ldrbvc	r0, [pc, -r5, rrx]
 774:	6d6f7463 	cfstrdvs	mvd7, [pc, #-396]!	; 5f0 <__code_start__-0x7a10>
 778:	74735f62 	ldrbtvc	r5, [r3], #-3938	; 0xf62
 77c:	00657461 	rsbeq	r7, r5, r1, ror #8
 780:	6d745f5f 	ldclvs	15, cr5, [r4, #-380]!	; 0xfffffe84
 784:	6365735f 	cmnvs	r5, #2080374785	; 0x7c000001
 788:	61747300 	cmnvs	r4, r0, lsl #6
 78c:	755f0074 	ldrbvc	r0, [pc, #-116]	; 720 <__code_start__-0x78e0>
 790:	00667562 	rsbeq	r7, r6, r2, ror #10
 794:	4f495047 	svcmi	0x00495047
 798:	4e55465f 	mrcmi	6, 2, r4, cr5, cr15, {2}
 79c:	4c415f43 	mcrrmi	15, 4, r5, r1, cr3
 7a0:	5f003154 	svcpl	0x00003154
 7a4:	65736162 	ldrbvs	r6, [r3, #-354]!	; 0x162
 7a8:	746e6300 	strbtvc	r6, [lr], #-768	; 0x300
 7ac:	5f5f006c 	svcpl	0x005f006c
 7b0:	685f6d74 	ldmdavs	pc, {r2, r4, r5, r6, r8, sl, fp, sp, lr}^	; <UNPREDICTABLE>
 7b4:	0072756f 	rsbseq	r7, r2, pc, ror #10
 7b8:	66735f5f 	uhsaxvs	r5, r3, pc	; <UNPREDICTABLE>
 7bc:	6e6f5f00 	cdpvs	15, 6, cr5, cr15, cr0, {0}
 7c0:	6978655f 	ldmdbvs	r8!, {r0, r1, r2, r3, r4, r6, r8, sl, sp, lr}^
 7c4:	72615f74 	rsbvc	r5, r1, #116, 30	; 0x1d0
 7c8:	5f007367 	svcpl	0x00007367
 7cc:	6b6f6f63 	blvs	1bdc560 <__bss_end__+0x1bd19e8>
 7d0:	5f006569 	svcpl	0x00006569
 7d4:	6c67735f 	stclvs	3, cr7, [r7], #-380	; 0xfffffe84
 7d8:	5f006575 	svcpl	0x00006575
 7dc:	67616c66 	strbvs	r6, [r1, -r6, ror #24]!
 7e0:	695f0073 	ldmdbvs	pc, {r0, r1, r4, r5, r6}^	; <UNPREDICTABLE>
 7e4:	78635f73 	stmdavc	r3!, {r0, r1, r4, r5, r6, r8, r9, sl, fp, ip, lr}^
 7e8:	735f0061 	cmpvc	pc, #97	; 0x61
 7ec:	6e696474 	mcrvs	4, 3, r6, cr9, cr4, {3}
 7f0:	6c625f00 	stclvs	15, cr5, [r2], #-0
 7f4:	7a69736b 	bvc	1a5d5a8 <__bss_end__+0x1a52a30>
 7f8:	61750065 	cmnvs	r5, r5, rrx
 7fc:	632e7472 	teqvs	lr, #1912602624	; 0x72000000
 800:	78756100 	ldmdavc	r5!, {r8, sp, lr}^
 804:	7265705f 	rsbvc	r7, r5, #95	; 0x5f
 808:	73687069 	cmnvc	r8, #105	; 0x69
 80c:	76635f00 	strbtvc	r5, [r3], -r0, lsl #30
 810:	66756274 			; <UNDEFINED> instruction: 0x66756274
 814:	6f682f00 	svcvs	0x00682f00
 818:	652f656d 	strvs	r6, [pc, #-1389]!	; 2b3 <__code_start__-0x7d4d>
 81c:	656c676e 	strbvs	r6, [ip, #-1902]!	; 0x76e
 820:	6c632f72 	stclvs	15, cr2, [r3], #-456	; 0xfffffe38
 824:	2f737361 	svccs	0x00737361
 828:	34327363 	ldrtcc	r7, [r2], #-867	; 0x363
 82c:	2d786c30 	ldclcs	12, cr6, [r8, #-192]!	; 0xffffff40
 830:	70733032 	rsbsvc	r3, r3, r2, lsr r0
 834:	696c2f72 	stmdbvs	ip!, {r1, r4, r5, r6, r8, r9, sl, fp, sp}^
 838:	2f697062 	svccs	0x00697062
 83c:	66617473 			; <UNDEFINED> instruction: 0x66617473
 840:	72702d66 	rsbsvc	r2, r0, #6528	; 0x1980
 844:	74617669 	strbtvc	r7, [r1], #-1641	; 0x669
 848:	6d5f0065 	ldclvs	0, cr0, [pc, #-404]	; 6bc <__code_start__-0x7944>
 84c:	74727362 	ldrbtvc	r7, [r2], #-866	; 0x362
 850:	7363776f 	cmnvc	r3, #29097984	; 0x1bc0000
 854:	6174735f 	cmnvs	r4, pc, asr r3
 858:	5f006574 	svcpl	0x00006574
 85c:	6c72626d 	lfmvs	f6, 2, [r2], #-436	; 0xfffffe4c
 860:	735f6e65 	cmpvc	pc, #1616	; 0x650
 864:	65746174 	ldrbvs	r6, [r4, #-372]!	; 0x174
 868:	6e665f00 	cdpvs	15, 6, cr5, cr6, cr0, {0}
 86c:	73677261 	cmnvc	r7, #268435462	; 0x10000006
 870:	78756100 	ldmdavc	r5!, {r8, sp, lr}^
 874:	616e655f 	cmnvs	lr, pc, asr r5
 878:	73656c62 	cmnvc	r5, #25088	; 0x6200
 87c:	6e665f00 	cdpvs	15, 6, cr5, cr6, cr0, {0}
 880:	735f0073 	cmpvc	pc, #115	; 0x73
 884:	006e6769 	rsbeq	r6, lr, r9, ror #14
 888:	74726175 	ldrbtvc	r6, [r2], #-373	; 0x175
 88c:	6e61635f 	mcrvs	3, 3, r6, cr1, cr15, {2}
 890:	7475705f 	ldrbtvc	r7, [r5], #-95	; 0x5f
 894:	665f0063 	ldrbvs	r0, [pc], -r3, rrx
 898:	6b636f6c 	blvs	18dc650 <__bss_end__+0x18d1ad8>
 89c:	5f00745f 	svcpl	0x0000745f
 8a0:	65647473 	strbvs	r7, [r4, #-1139]!	; 0x473
 8a4:	5f007272 	svcpl	0x00007272
 8a8:	69676942 	stmdbvs	r7!, {r1, r6, r8, fp, sp, lr}^
 8ac:	5f00746e 	svcpl	0x0000746e
 8b0:	6d6d6167 	stfvse	f6, [sp, #-412]!	; 0xfffffe64
 8b4:	69735f61 	ldmdbvs	r3!, {r0, r5, r6, r8, r9, sl, fp, ip, lr}^
 8b8:	61676e67 	cmnvs	r7, r7, ror #28
 8bc:	725f006d 	subsvc	r0, pc, #109	; 0x6d
 8c0:	6c757365 	ldclvs	3, cr7, [r5], #-404	; 0xfffffe6c
 8c4:	006b5f74 	rsbeq	r5, fp, r4, ror pc
 8c8:	6d745f5f 	ldclvs	15, cr5, [r4, #-380]!	; 0xfffffe84
 8cc:	775f5f00 	ldrbvc	r5, [pc, -r0, lsl #30]
 8d0:	00626863 	rsbeq	r6, r2, r3, ror #16
 8d4:	74726175 	ldrbtvc	r6, [r2], #-373	; 0x175
 8d8:	7465675f 	strbtvc	r6, [r5], #-1887	; 0x75f
 8dc:	735f0063 	cmpvc	pc, #99	; 0x63
 8e0:	756f6474 	strbvc	r6, [pc, #-1140]!	; 474 <__code_start__-0x7b8c>
 8e4:	635f0074 	cmpvs	pc, #116	; 0x74
 8e8:	656c7476 	strbvs	r7, [ip, #-1142]!	; 0x476
 8ec:	665f006e 	ldrbvs	r0, [pc], -lr, rrx
 8f0:	00656c69 	rsbeq	r6, r5, r9, ror #24
 8f4:	6f696e5f 	svcvs	0x00696e5f
 8f8:	5f007362 	svcpl	0x00007362
 8fc:	78657461 	stmdavc	r5!, {r0, r5, r6, sl, ip, sp, lr}^
 900:	00307469 	eorseq	r7, r0, r9, ror #8
 904:	6769735f 			; <UNDEFINED> instruction: 0x6769735f
 908:	5f6c616e 	svcpl	0x006c616e
 90c:	00667562 	rsbeq	r7, r6, r2, ror #10
 910:	6373615f 	cmnvs	r3, #-1073741801	; 0xc0000017
 914:	656d6974 	strbvs	r6, [sp, #-2420]!	; 0x974
 918:	6675625f 			; <UNDEFINED> instruction: 0x6675625f
 91c:	76656400 	strbtvc	r6, [r5], -r0, lsl #8
 920:	7261625f 	rsbvc	r6, r1, #-268435451	; 0xf0000005
 924:	72656972 	rsbvc	r6, r5, #1867776	; 0x1c8000
 928:	65725f00 	ldrbvs	r5, [r2, #-3840]!	; 0xf00
 92c:	746c7573 	strbtvc	r7, [ip], #-1395	; 0x573
 930:	775f5f00 	ldrbvc	r5, [pc, -r0, lsl #30]
 934:	47006863 	strmi	r6, [r0, -r3, ror #16]
 938:	5f4f4950 	svcpl	0x004f4950
 93c:	434e5546 	movtmi	r5, #58694	; 0xe546
 940:	544c415f 	strbpl	r4, [ip], #-351	; 0x15f
 944:	69770032 	ldmdbvs	r7!, {r1, r4, r5}^
 948:	745f746e 	ldrbvc	r7, [pc], #-1134	; 950 <__code_start__-0x76b0>
 94c:	6f6c5f00 	svcvs	0x006c5f00
 950:	5f006b63 	svcpl	0x00006b63
 954:	67616c66 	strbvs	r6, [r1, -r6, ror #24]!
 958:	5f003273 	svcpl	0x00003273
 95c:	5f6d745f 	svcpl	0x006d745f
 960:	72616579 	rsbvc	r6, r1, #507510784	; 0x1e400000
 964:	666f5f00 	strbtvs	r5, [pc], -r0, lsl #30
 968:	74657366 	strbtvc	r7, [r5], #-870	; 0x366
 96c:	69706700 	ldmdbvs	r0!, {r8, r9, sl, sp, lr}^
 970:	65735f6f 	ldrbvs	r5, [r3, #-3951]!	; 0xf6f
 974:	75665f74 	strbvc	r5, [r6, #-3956]!	; 0xf74
 978:	6974636e 	ldmdbvs	r4!, {r1, r2, r3, r5, r6, r8, r9, sp, lr}^
 97c:	5f006e6f 	svcpl	0x00006e6f
 980:	7478656e 	ldrbtvc	r6, [r8], #-1390	; 0x56e
 984:	5f5f0066 	svcpl	0x005f0066
 988:	6d5f6d74 	ldclvs	13, cr6, [pc, #-464]	; 7c0 <__code_start__-0x7840>
 98c:	5f006e6f 	svcpl	0x00006e6f
 990:	78657461 	stmdavc	r5!, {r0, r5, r6, sl, ip, sp, lr}^
 994:	5f007469 	svcpl	0x00007469
 998:	6964735f 	stmdbvs	r4!, {r0, r1, r2, r3, r4, r6, r8, r9, ip, sp, lr}^
 99c:	696e6964 	stmdbvs	lr!, {r2, r5, r6, r8, fp, sp, lr}^
 9a0:	6f5f0074 	svcvs	0x005f0074
 9a4:	745f6666 	ldrbvc	r6, [pc], #-1638	; 9ac <__code_start__-0x7654>
 9a8:	72617500 	rsbvc	r7, r1, #0, 10
 9ac:	665f0074 			; <UNDEFINED> instruction: 0x665f0074
 9b0:	6c656572 	cfstr64vs	mvdx6, [r5], #-456	; 0xfffffe38
 9b4:	00747369 	rsbseq	r7, r4, r9, ror #6
 9b8:	434f4c5f 	movtmi	r4, #64607	; 0xfc5f
 9bc:	45525f4b 	ldrbmi	r5, [r2, #-3915]	; 0xf4b
 9c0:	53525543 	cmppl	r2, #281018368	; 0x10c00000
 9c4:	5f455649 	svcpl	0x00455649
 9c8:	6e5f0054 	mrcvs	0, 2, r0, cr15, cr4, {2}
 9cc:	5f007765 	svcpl	0x00007765
 9d0:	72655f68 	rsbvc	r5, r5, #104, 30	; 0x1a0
 9d4:	006f6e72 	rsbeq	r6, pc, r2, ror lr	; <UNPREDICTABLE>
 9d8:	6d745f5f 	ldclvs	15, cr5, [r4, #-380]!	; 0xfffffe84
 9dc:	6164795f 	cmnvs	r4, pc, asr r9
 9e0:	5f5f0079 	svcpl	0x005f0079
 9e4:	66756273 			; <UNDEFINED> instruction: 0x66756273
 9e8:	6f695f00 	svcvs	0x00695f00
 9ec:	5f007362 	svcpl	0x00007362
 9f0:	4c49465f 	mcrrmi	6, 5, r4, r9, cr15
 9f4:	6d5f0045 	ldclvs	0, cr0, [pc, #-276]	; 8e8 <__code_start__-0x7718>
 9f8:	61747362 	cmnvs	r4, r2, ror #6
 9fc:	745f6574 	ldrbvc	r6, [pc], #-1396	; a04 <__code_start__-0x75fc>
 a00:	735f5f00 	cmpvc	pc, #0, 30
 a04:	454c4946 	strbmi	r4, [ip, #-2374]	; 0x946
 a08:	626d5f00 	rsbvs	r5, sp, #0, 30
 a0c:	74617473 	strbtvc	r7, [r1], #-1139	; 0x473
 a10:	725f0065 	subsvc	r0, pc, #101	; 0x65
 a14:	5f646e61 	svcpl	0x00646e61
 a18:	7478656e 	ldrbtvc	r6, [r8], #-1390	; 0x56e
 a1c:	626d5f00 	rsbvs	r5, sp, #0, 30
 a20:	5f6e656c 	svcpl	0x006e656c
 a24:	74617473 	strbtvc	r7, [r1], #-1139	; 0x473
 a28:	695f0065 	ldmdbvs	pc, {r0, r2, r5, r6}^	; <UNPREDICTABLE>
 a2c:	5f00636e 	svcpl	0x0000636e
 a30:	00646e69 	rsbeq	r6, r4, r9, ror #28
 a34:	7275635f 	rsbsvc	r6, r5, #2080374785	; 0x7c000001
 a38:	746e6572 	strbtvc	r6, [lr], #-1394	; 0x572
 a3c:	636f6c5f 	cmnvs	pc, #24320	; 0x5f00
 a40:	00656c61 	rsbeq	r6, r5, r1, ror #24
 a44:	6c635f5f 	stclvs	15, cr5, [r3], #-380	; 0xfffffe84
 a48:	756e6165 	strbvc	r6, [lr, #-357]!	; 0x165
 a4c:	6d5f0070 	ldclvs	0, cr0, [pc, #-448]	; 894 <__code_start__-0x776c>
 a50:	64777861 	ldrbtvs	r7, [r7], #-2145	; 0x861
 a54:	725f0073 	subsvc	r0, pc, #115	; 0x73
 a58:	746e6565 	strbtvc	r6, [lr], #-1381	; 0x565
 a5c:	65735f00 	ldrbvs	r5, [r3, #-3840]!	; 0xf00
 a60:	5f006465 	svcpl	0x00006465
 a64:	756f635f 	strbvc	r6, [pc, #-863]!	; 70d <__code_start__-0x78f3>
 a68:	5f00746e 	svcpl	0x0000746e
 a6c:	6c61765f 	stclvs	6, cr7, [r1], #-380	; 0xfffffe84
 a70:	5f006575 	svcpl	0x00006575
 a74:	6b656573 	blvs	195a048 <__bss_end__+0x194f4d0>
 a78:	75616200 	strbvc	r6, [r1, #-512]!	; 0x200
 a7c:	665f0064 	ldrbvs	r0, [pc], -r4, rrx
 a80:	5f736f70 	svcpl	0x00736f70
 a84:	5f5f0074 	svcpl	0x005f0074
 a88:	6d5f6d74 	ldclvs	13, cr6, [pc, #-464]	; 8c0 <__code_start__-0x7740>
 a8c:	73006e69 	movwvc	r6, #3689	; 0xe69
 a90:	74617263 	strbtvc	r7, [r1], #-611	; 0x263
 a94:	5f006863 	svcpl	0x00006863
 a98:	746c756d 	strbtvc	r7, [ip], #-1389	; 0x56d
 a9c:	74757000 	ldrbtvc	r7, [r5], #-0
 aa0:	47003233 	smladxmi	r0, r3, r2, r3
 aa4:	4320554e 	teqmi	r0, #327155712	; 0x13800000
 aa8:	36203939 			; <UNDEFINED> instruction: 0x36203939
 aac:	312e332e 	teqcc	lr, lr, lsr #6
 ab0:	31303220 	teqcc	r0, r0, lsr #4
 ab4:	32363037 	eorscc	r3, r6, #55	; 0x37
 ab8:	6d2d2030 	stcvs	0, cr2, [sp, #-192]!	; 0xffffff40
 abc:	3d757063 	ldclcc	0, cr7, [r5, #-396]!	; 0xfffffe74
 ac0:	316d7261 	cmncc	sp, r1, ror #4
 ac4:	6a363731 	bvs	d8e790 <__bss_end__+0xd83c18>
 ac8:	732d667a 	teqvc	sp, #127926272	; 0x7a00000
 acc:	746d2d20 	strbtvc	r2, [sp], #-3360	; 0xd20
 ad0:	3d656e75 	stclcc	14, cr6, [r5, #-468]!	; 0xfffffe2c
 ad4:	316d7261 	cmncc	sp, r1, ror #4
 ad8:	6a363731 	bvs	d8e7a4 <__bss_end__+0xd83c2c>
 adc:	732d667a 	teqvc	sp, #127926272	; 0x7a00000
 ae0:	67672d20 	strbvs	r2, [r7, -r0, lsr #26]!
 ae4:	2d206264 	sfmcs	f6, 4, [r0, #-400]!	; 0xfffffe70
 ae8:	2d20674f 	stccs	7, cr6, [r0, #-316]!	; 0xfffffec4
 aec:	3d647473 	cfstrdcc	mvd7, [r4, #-460]!	; 0xfffffe34
 af0:	39756e67 	ldmdbcc	r5!, {r0, r1, r2, r5, r6, r9, sl, fp, sp, lr}^
 af4:	662d2039 			; <UNDEFINED> instruction: 0x662d2039
 af8:	65657266 	strbvs	r7, [r5, #-614]!	; 0x266
 afc:	6e617473 	mcrvs	4, 3, r7, cr1, cr3, {3}
 b00:	676e6964 	strbvs	r6, [lr, -r4, ror #18]!
 b04:	74735f00 	ldrbtvc	r5, [r3], #-3840	; 0xf00
 b08:	6b6f7472 	blvs	1bddcd8 <__bss_end__+0x1bd3160>
 b0c:	73616c5f 	cmnvc	r1, #24320	; 0x5f00
 b10:	665f0074 			; <UNDEFINED> instruction: 0x665f0074
 b14:	7079746e 	rsbsvc	r7, r9, lr, ror #8
 b18:	5f007365 	svcpl	0x00007365
 b1c:	00646461 	rsbeq	r6, r4, r1, ror #8
 b20:	4c555f5f 	mrrcmi	15, 5, r5, r5, cr15	; <UNPREDICTABLE>
 b24:	00676e6f 	rsbeq	r6, r7, pc, ror #28
 b28:	7465675f 	strbtvc	r6, [r5], #-1887	; 0x75f
 b2c:	65746164 	ldrbvs	r6, [r4, #-356]!	; 0x164
 b30:	7272655f 	rsbsvc	r6, r2, #398458880	; 0x17c00000
 b34:	6c675f00 	stclvs	15, cr5, [r7], #-0
 b38:	6c61626f 	sfmvs	f6, 2, [r1], #-444	; 0xfffffe44
 b3c:	706d695f 	rsbvc	r6, sp, pc, asr r9
 b40:	5f657275 	svcpl	0x00657275
 b44:	00727470 	rsbseq	r7, r2, r0, ror r4
 b48:	7275635f 	rsbsvc	r6, r5, #2080374785	; 0x7c000001
 b4c:	746e6572 	strbtvc	r6, [lr], #-1394	; 0x572
 b50:	7461635f 	strbtvc	r6, [r1], #-863	; 0x35f
 b54:	726f6765 	rsbvc	r6, pc, #26476544	; 0x1940000
 b58:	755f0079 	ldrbvc	r0, [pc, #-121]	; ae7 <__code_start__-0x7519>
 b5c:	6573756e 	ldrbvs	r7, [r3, #-1390]!	; 0x56e
 b60:	61725f64 	cmnvs	r2, r4, ror #30
 b64:	5f00646e 	svcpl	0x0000646e
 b68:	00736477 	rsbseq	r6, r3, r7, ror r4
 b6c:	6d745f5f 	ldclvs	15, cr5, [r4, #-380]!	; 0xfffffe84
 b70:	6164775f 	cmnvs	r4, pc, asr r7
 b74:	675f0079 			; <UNDEFINED> instruction: 0x675f0079
 b78:	0065756c 	rsbeq	r7, r5, ip, ror #10
 b7c:	4f495047 	svcmi	0x00495047
 b80:	4e55465f 	mrcmi	6, 2, r4, cr5, cr15, {2}
 b84:	554f5f43 	strbpl	r5, [pc, #-3907]	; fffffc49 <__bss_end__+0xffff50d1>
 b88:	54555054 	ldrbpl	r5, [r5], #-84	; 0x54
 b8c:	6d6e5f00 	stclvs	15, cr5, [lr, #-0]
 b90:	6f6c6c61 	svcvs	0x006c6c61
 b94:	6c5f0063 	mrrcvs	0, 6, r0, pc, cr3	; <UNPREDICTABLE>
 b98:	5f613436 	svcpl	0x00613436
 b9c:	00667562 	rsbeq	r7, r6, r2, ror #10
 ba0:	33746567 	cmncc	r4, #432013312	; 0x19c00000
 ba4:	61750032 	cmnvs	r5, r2, lsr r0
 ba8:	635f7472 	cmpvs	pc, #1912602624	; 0x72000000
 bac:	675f6e61 	ldrbvs	r6, [pc, -r1, ror #28]
 bb0:	00637465 	rsbeq	r7, r3, r5, ror #8
 bb4:	6769735f 			; <UNDEFINED> instruction: 0x6769735f
 bb8:	6e75665f 	mrcvs	6, 3, r6, cr5, cr15, {2}
 bbc:	726f0063 	rsbvc	r0, pc, #99	; 0x63
 bc0:	336e695f 	cmncc	lr, #1556480	; 0x17c000
 bc4:	61750032 	cmnvs	r5, r2, lsr r0
 bc8:	685f7472 	ldmdavs	pc, {r1, r4, r5, r6, sl, ip, sp, lr}^	; <UNPREDICTABLE>
 bcc:	645f7361 	ldrbvs	r7, [pc], #-865	; bd4 <__code_start__-0x742c>
 bd0:	00617461 	rsbeq	r7, r1, r1, ror #8
 bd4:	4f495047 	svcmi	0x00495047
 bd8:	4e55465f 	mrcmi	6, 2, r4, cr5, cr15, {2}
 bdc:	4c415f43 	mcrrmi	15, 4, r5, r1, cr3
 be0:	5f003054 	svcpl	0x00003054
 be4:	6675626e 	ldrbtvs	r6, [r5], -lr, ror #4
 be8:	6e755f00 	cdpvs	15, 7, cr5, cr5, cr0, {0}
 bec:	64657375 	strbtvs	r7, [r5], #-885	; 0x375
 bf0:	49504700 	ldmdbmi	r0, {r8, r9, sl, lr}^
 bf4:	55465f4f 	strbpl	r5, [r6, #-3919]	; 0xf4f
 bf8:	415f434e 	cmpmi	pc, lr, asr #6
 bfc:	0033544c 	eorseq	r5, r3, ip, asr #8
 c00:	4f495047 	svcmi	0x00495047
 c04:	4e55465f 	mrcmi	6, 2, r4, cr5, cr15, {2}
 c08:	4c415f43 	mcrrmi	15, 4, r5, r1, cr3
 c0c:	47003454 	smlsdmi	r0, r4, r4, r3
 c10:	5f4f4950 	svcpl	0x004f4950
 c14:	434e5546 	movtmi	r5, #58694	; 0xe546
 c18:	544c415f 	strbpl	r4, [ip], #-351	; 0x15f
 c1c:	5f5f0035 	svcpl	0x005f0035
 c20:	695f6d74 	ldmdbvs	pc, {r2, r4, r5, r6, r8, sl, fp, sp, lr}^	; <UNPREDICTABLE>
 c24:	74736473 	ldrbtvc	r6, [r3], #-1139	; 0x473
 c28:	6f6c5f00 	svcvs	0x006c5f00
 c2c:	746c6163 	strbtvc	r6, [ip], #-355	; 0x163
 c30:	5f656d69 	svcpl	0x00656d69
 c34:	00667562 	rsbeq	r7, r6, r2, ror #10
 c38:	6f6c635f 	svcvs	0x006c635f
 c3c:	5f006573 	svcpl	0x00006573
 c40:	00383472 	eorseq	r3, r8, r2, ror r4
 c44:	74626d5f 	strbtvc	r6, [r2], #-3423	; 0xd5f
 c48:	5f63776f 	svcpl	0x0063776f
 c4c:	74617473 	strbtvc	r7, [r1], #-1139	; 0x473
 c50:	705f0065 	subsvc	r0, pc, r5, rrx
 c54:	5f007335 	svcpl	0x00007335
 c58:	5f6d745f 	svcpl	0x006d745f
 c5c:	7961646d 	stmdbvc	r1!, {r0, r2, r3, r5, r6, sl, sp, lr}^
 c60:	69706700 	ldmdbvs	r0!, {r8, r9, sl, sp, lr}^
 c64:	65735f6f 	ldrbvs	r5, [r3, #-3951]!	; 0xf6f
 c68:	666f5f74 	uqsub16vs	r5, pc, r4	; <UNPREDICTABLE>
 c6c:	61620066 	cmnvs	r2, r6, rrx
 c70:	67006b6e 	strvs	r6, [r0, -lr, ror #22]
 c74:	2e6f6970 	mcrcs	9, 3, r6, cr15, cr0, {3}
 c78:	70670063 	rsbvc	r0, r7, r3, rrx
 c7c:	725f6f69 	subsvc	r6, pc, #420	; 0x1a4
 c80:	00646165 	rsbeq	r6, r4, r5, ror #2
 c84:	6f697067 	svcvs	0x00697067
 c88:	7465735f 	strbtvc	r7, [r5], #-863	; 0x35f
 c8c:	74756f5f 	ldrbtvc	r6, [r5], #-3935	; 0xf5f
 c90:	00747570 	rsbseq	r7, r4, r0, ror r5
 c94:	6f697067 	svcvs	0x00697067
 c98:	6972775f 	ldmdbvs	r2!, {r0, r1, r2, r3, r4, r6, r8, r9, sl, ip, sp, lr}^
 c9c:	67006574 	smlsdxvs	r0, r4, r5, r6
 ca0:	5f6f6970 	svcpl	0x006f6970
 ca4:	30746573 	rsbscc	r6, r4, r3, ror r5
 ca8:	69706700 	ldmdbvs	r0!, {r8, r9, sl, sp, lr}^
 cac:	656c5f6f 	strbvs	r5, [ip, #-3951]!	; 0xf6f
 cb0:	67003076 	smlsdxvs	r0, r6, r0, r3
 cb4:	5f6f6970 	svcpl	0x006f6970
 cb8:	5f746573 	svcpl	0x00746573
 cbc:	75706e69 	ldrbvc	r6, [r0, #-3689]!	; 0xe69
 cc0:	70670074 	rsbvc	r0, r7, r4, ror r0
 cc4:	735f6f69 	cmpvc	pc, #420	; 0x1a4
 cc8:	6f5f7465 	svcvs	0x005f7465
 ccc:	7067006e 	rsbvc	r0, r7, lr, rrx
 cd0:	665f6f69 	ldrbvs	r6, [pc], -r9, ror #30
 cd4:	5f636e75 	svcpl	0x00636e75
 cd8:	70670074 	rsbvc	r0, r7, r4, ror r0
 cdc:	635f6f69 	cmpvs	pc, #420	; 0x1a4
 ce0:	0030726c 	eorseq	r7, r0, ip, ror #4
 ce4:	6c616d6b 	stclvs	13, cr6, [r1], #-428	; 0xfffffe54
 ce8:	2e636f6c 	cdpcs	15, 6, cr6, cr3, cr12, {3}
 cec:	6d6b0063 	stclvs	0, cr0, [fp, #-396]!	; 0xfffffe74
 cf0:	6f6c6c61 	svcvs	0x006c6c61
 cf4:	6e695f63 	cdpvs	15, 6, cr5, cr9, cr3, {3}
 cf8:	6b007469 	blvs	1dea4 <__bss_end__+0x1332c>
 cfc:	6c6c616d 	stfvse	f6, [ip], #-436	; 0xfffffe4c
 d00:	615f636f 	cmpvs	pc, pc, ror #6
 d04:	6e67696c 	cdpvs	9, 6, cr6, cr7, cr12, {3}
 d08:	64006465 	strvs	r6, [r0], #-1125	; 0x465
 d0c:	6c62756f 	cfstr64vs	mvdx7, [r2], #-444	; 0xfffffe44
 d10:	666b0065 	strbtvs	r0, [fp], -r5, rrx
 d14:	5f656572 	svcpl	0x00656572
 d18:	006c6c61 	rsbeq	r6, ip, r1, ror #24
 d1c:	6572666b 	ldrbvs	r6, [r2, #-1643]!	; 0x66b
 d20:	66615f65 	strbtvs	r5, [r1], -r5, ror #30
 d24:	00726574 	rsbseq	r6, r2, r4, ror r5
 d28:	6c616d6b 	stclvs	13, cr6, [r1], #-428	; 0xfffffe54
 d2c:	5f636f6c 	svcpl	0x00636f6c
 d30:	70616568 	rsbvc	r6, r1, r8, ror #10
 d34:	7274705f 	rsbsvc	r7, r4, #95	; 0x5f
 d38:	696c6100 	stmdbvs	ip!, {r8, sp, lr}^
 d3c:	656d6e67 	strbvs	r6, [sp, #-3687]!	; 0xe67
 d40:	5f00746e 	svcpl	0x0000746e
 d44:	6165685f 	cmnvs	r5, pc, asr r8
 d48:	74735f70 	ldrbtvc	r5, [r3], #-3952	; 0xf70
 d4c:	5f747261 	svcpl	0x00747261
 d50:	6d6b005f 	stclvs	0, cr0, [fp, #-380]!	; 0xfffffe84
 d54:	6f6c6c61 	svcvs	0x006c6c61
 d58:	65685f63 	strbvs	r5, [r8, #-3939]!	; 0xf63
 d5c:	735f7061 	cmpvc	pc, #97	; 0x61
 d60:	74726174 	ldrbtvc	r6, [r2], #-372	; 0x174
 d64:	616d6b00 	cmnvs	sp, r0, lsl #22
 d68:	636f6c6c 	cmnvs	pc, #108, 24	; 0x6c00
 d6c:	6165685f 	cmnvs	r5, pc, asr r8
 d70:	6e655f70 	mcrvs	15, 3, r5, cr5, cr0, {3}
 d74:	Address 0x0000000000000d74 is out of bounds.


Disassembly of section .debug_frame:

00000000 <.debug_frame>:
   0:	0000000c 	andeq	r0, r0, ip
   4:	ffffffff 			; <UNDEFINED> instruction: 0xffffffff
   8:	7c020001 	stcvc	0, cr0, [r2], {1}
   c:	000d0c0e 	andeq	r0, sp, lr, lsl #24
  10:	00000024 	andeq	r0, r0, r4, lsr #32
  14:	00000000 	andeq	r0, r0, r0
  18:	00008010 	andeq	r8, r0, r0, lsl r0
  1c:	00000074 	andeq	r0, r0, r4, ror r0
  20:	83280e42 	teqhi	r8, #1056	; 0x420
  24:	8509840a 	strhi	r8, [r9, #-1034]	; 0x40a
  28:	87078608 	strhi	r8, [r7, -r8, lsl #12]
  2c:	89058806 	stmdbhi	r5, {r1, r2, fp, pc}
  30:	8b038a04 	blhi	e2848 <__bss_end__+0xd7cd0>
  34:	00018e02 	andeq	r8, r1, r2, lsl #28
  38:	00000014 	andeq	r0, r0, r4, lsl r0
  3c:	00000000 	andeq	r0, r0, r0
  40:	00008084 	andeq	r8, r0, r4, lsl #1
  44:	00000040 	andeq	r0, r0, r0, asr #32
  48:	83080e42 	movwhi	r0, #36418	; 0x8e42
  4c:	00018e02 	andeq	r8, r1, r2, lsl #28
  50:	0000000c 	andeq	r0, r0, ip
  54:	ffffffff 			; <UNDEFINED> instruction: 0xffffffff
  58:	7c020001 	stcvc	0, cr0, [r2], {1}
  5c:	000d0c0e 	andeq	r0, sp, lr, lsl #24
  60:	0000001c 	andeq	r0, r0, ip, lsl r0
  64:	00000050 	andeq	r0, r0, r0, asr r0
  68:	000080c4 	andeq	r8, r0, r4, asr #1
  6c:	00000100 	andeq	r0, r0, r0, lsl #2
  70:	84180e42 	ldrhi	r0, [r8], #-3650	; 0xe42
  74:	86058506 	strhi	r8, [r5], -r6, lsl #10
  78:	88038704 	stmdahi	r3, {r2, r8, r9, sl, pc}
  7c:	00018e02 	andeq	r8, r1, r2, lsl #28
  80:	00000014 	andeq	r0, r0, r4, lsl r0
  84:	00000050 	andeq	r0, r0, r0, asr r0
  88:	000081c4 	andeq	r8, r0, r4, asr #3
  8c:	00000014 	andeq	r0, r0, r4, lsl r0
  90:	83080e42 	movwhi	r0, #36418	; 0x8e42
  94:	00018e02 	andeq	r8, r1, r2, lsl #28
  98:	0000001c 	andeq	r0, r0, ip, lsl r0
  9c:	00000050 	andeq	r0, r0, r0, asr r0
  a0:	000081d8 	ldrdeq	r8, [r0], -r8	; <UNPREDICTABLE>
  a4:	00000048 	andeq	r0, r0, r8, asr #32
  a8:	84180e42 	ldrhi	r0, [r8], #-3650	; 0xe42
  ac:	86058506 	strhi	r8, [r5], -r6, lsl #10
  b0:	88038704 	stmdahi	r3, {r2, r8, r9, sl, pc}
  b4:	00018e02 	andeq	r8, r1, r2, lsl #28
  b8:	00000014 	andeq	r0, r0, r4, lsl r0
  bc:	00000050 	andeq	r0, r0, r0, asr r0
  c0:	00008220 	andeq	r8, r0, r0, lsr #4
  c4:	00000078 	andeq	r0, r0, r8, ror r0
  c8:	84080e42 	strhi	r0, [r8], #-3650	; 0xe42
  cc:	00018e02 	andeq	r8, r1, r2, lsl #28
  d0:	00000014 	andeq	r0, r0, r4, lsl r0
  d4:	00000050 	andeq	r0, r0, r0, asr r0
  d8:	00008298 	muleq	r0, r8, r2
  dc:	00000070 	andeq	r0, r0, r0, ror r0
  e0:	84080e42 	strhi	r0, [r8], #-3650	; 0xe42
  e4:	00018e02 	andeq	r8, r1, r2, lsl #28
  e8:	00000018 	andeq	r0, r0, r8, lsl r0
  ec:	00000050 	andeq	r0, r0, r0, asr r0
  f0:	00008308 	andeq	r8, r0, r8, lsl #6
  f4:	00000088 	andeq	r0, r0, r8, lsl #1
  f8:	83100e42 	tsthi	r0, #1056	; 0x420
  fc:	85038404 	strhi	r8, [r3, #-1028]	; 0x404
 100:	00018e02 	andeq	r8, r1, r2, lsl #28
 104:	0000001c 	andeq	r0, r0, ip, lsl r0
 108:	00000050 	andeq	r0, r0, r0, asr r0
 10c:	00008390 	muleq	r0, r0, r3
 110:	000000d0 	ldrdeq	r0, [r0], -r0	; <UNPREDICTABLE>
 114:	84180e42 	ldrhi	r0, [r8], #-3650	; 0xe42
 118:	86058506 	strhi	r8, [r5], -r6, lsl #10
 11c:	88038704 	stmdahi	r3, {r2, r8, r9, sl, pc}
 120:	00018e02 	andeq	r8, r1, r2, lsl #28
 124:	00000020 	andeq	r0, r0, r0, lsr #32
 128:	00000050 	andeq	r0, r0, r0, asr r0
 12c:	00008460 	andeq	r8, r0, r0, ror #8
 130:	0000022c 	andeq	r0, r0, ip, lsr #4
 134:	841c0e42 	ldrhi	r0, [ip], #-3650	; 0xe42
 138:	86068507 	strhi	r8, [r6], -r7, lsl #10
 13c:	88048705 	stmdahi	r4, {r0, r2, r8, r9, sl, pc}
 140:	8e028903 	cdphi	9, 0, cr8, cr2, cr3, {0}
 144:	280e4201 	stmdacs	lr, {r0, r9, lr}
 148:	00000020 	andeq	r0, r0, r0, lsr #32
 14c:	00000050 	andeq	r0, r0, r0, asr r0
 150:	0000868c 	andeq	r8, r0, ip, lsl #13
 154:	00000170 	andeq	r0, r0, r0, ror r1
 158:	83200e42 	teqhi	r0, #1056	; 0x420
 15c:	85078408 	strhi	r8, [r7, #-1032]	; 0x408
 160:	87058606 	strhi	r8, [r5, -r6, lsl #12]
 164:	89038804 	stmdbhi	r3, {r2, fp, pc}
 168:	00018e02 	andeq	r8, r1, r2, lsl #28
 16c:	00000014 	andeq	r0, r0, r4, lsl r0
 170:	00000050 	andeq	r0, r0, r0, asr r0
 174:	000087fc 	strdeq	r8, [r0], -ip
 178:	00000050 	andeq	r0, r0, r0, asr r0
 17c:	84080e42 	strhi	r0, [r8], #-3650	; 0xe42
 180:	00018e02 	andeq	r8, r1, r2, lsl #28
 184:	00000014 	andeq	r0, r0, r4, lsl r0
 188:	00000050 	andeq	r0, r0, r0, asr r0
 18c:	0000884c 	andeq	r8, r0, ip, asr #16
 190:	00000098 	muleq	r0, r8, r0
 194:	84080e42 	strhi	r0, [r8], #-3650	; 0xe42
 198:	00018e02 	andeq	r8, r1, r2, lsl #28
 19c:	0000000c 	andeq	r0, r0, ip
 1a0:	00000050 	andeq	r0, r0, r0, asr r0
 1a4:	000088e4 	andeq	r8, r0, r4, ror #17
 1a8:	0000001c 	andeq	r0, r0, ip, lsl r0
 1ac:	0000000c 	andeq	r0, r0, ip
 1b0:	ffffffff 			; <UNDEFINED> instruction: 0xffffffff
 1b4:	7c020001 	stcvc	0, cr0, [r2], {1}
 1b8:	000d0c0e 	andeq	r0, sp, lr, lsl #24
 1bc:	0000000c 	andeq	r0, r0, ip
 1c0:	000001ac 	andeq	r0, r0, ip, lsr #3
 1c4:	00008900 	andeq	r8, r0, r0, lsl #18
 1c8:	0000003c 	andeq	r0, r0, ip, lsr r0
 1cc:	00000014 	andeq	r0, r0, r4, lsl r0
 1d0:	000001ac 	andeq	r0, r0, ip, lsr #3
 1d4:	0000893c 	andeq	r8, r0, ip, lsr r9
 1d8:	00000078 	andeq	r0, r0, r8, ror r0
 1dc:	84080e42 	strhi	r0, [r8], #-3650	; 0xe42
 1e0:	00018e02 	andeq	r8, r1, r2, lsl #28
 1e4:	00000024 	andeq	r0, r0, r4, lsr #32
 1e8:	000001ac 	andeq	r0, r0, ip, lsr #3
 1ec:	000089b4 			; <UNDEFINED> instruction: 0x000089b4
 1f0:	00000134 	andeq	r0, r0, r4, lsr r1
 1f4:	83280e42 	teqhi	r8, #1056	; 0x420
 1f8:	8509840a 	strhi	r8, [r9, #-1034]	; 0x40a
 1fc:	87078608 	strhi	r8, [r7, -r8, lsl #12]
 200:	89058806 	stmdbhi	r5, {r1, r2, fp, pc}
 204:	8b038a04 	blhi	e2a1c <__bss_end__+0xd7ea4>
 208:	00018e02 	andeq	r8, r1, r2, lsl #28
 20c:	00000018 	andeq	r0, r0, r8, lsl r0
 210:	000001ac 	andeq	r0, r0, ip, lsr #3
 214:	00008ae8 	andeq	r8, r0, r8, ror #21
 218:	000000f8 	strdeq	r0, [r0], -r8
 21c:	84100e42 	ldrhi	r0, [r0], #-3650	; 0xe42
 220:	86038504 	strhi	r8, [r3], -r4, lsl #10
 224:	00018e02 	andeq	r8, r1, r2, lsl #28
 228:	00000018 	andeq	r0, r0, r8, lsl r0
 22c:	000001ac 	andeq	r0, r0, ip, lsr #3
 230:	00008be0 	andeq	r8, r0, r0, ror #23
 234:	000000f4 	strdeq	r0, [r0], -r4
 238:	84080e42 	strhi	r0, [r8], #-3650	; 0xe42
 23c:	42018e02 	andmi	r8, r1, #2, 28
 240:	0000580e 	andeq	r5, r0, lr, lsl #16
 244:	00000024 	andeq	r0, r0, r4, lsr #32
 248:	000001ac 	andeq	r0, r0, ip, lsr #3
 24c:	00008cd4 	ldrdeq	r8, [r0], -r4
 250:	00000120 	andeq	r0, r0, r0, lsr #2
 254:	84240e42 	strthi	r0, [r4], #-3650	; 0xe42
 258:	86088509 	strhi	r8, [r8], -r9, lsl #10
 25c:	88068707 	stmdahi	r6, {r0, r1, r2, r8, r9, sl, pc}
 260:	8a048905 	bhi	12267c <__bss_end__+0x117b04>
 264:	8e028b03 	vmlahi.f64	d8, d2, d3
 268:	380e4201 	stmdacc	lr, {r0, r9, lr}
 26c:	00000014 	andeq	r0, r0, r4, lsl r0
 270:	000001ac 	andeq	r0, r0, ip, lsr #3
 274:	00008df4 	strdeq	r8, [r0], -r4
 278:	00000018 	andeq	r0, r0, r8, lsl r0
 27c:	84080e42 	strhi	r0, [r8], #-3650	; 0xe42
 280:	00018e02 	andeq	r8, r1, r2, lsl #28
 284:	00000014 	andeq	r0, r0, r4, lsl r0
 288:	000001ac 	andeq	r0, r0, ip, lsr #3
 28c:	00008e0c 	andeq	r8, r0, ip, lsl #28
 290:	000000a0 	andeq	r0, r0, r0, lsr #1
 294:	83080e42 	movwhi	r0, #36418	; 0x8e42
 298:	00018e02 	andeq	r8, r1, r2, lsl #28
 29c:	00000014 	andeq	r0, r0, r4, lsl r0
 2a0:	000001ac 	andeq	r0, r0, ip, lsr #3
 2a4:	00008eac 	andeq	r8, r0, ip, lsr #29
 2a8:	000000a4 	andeq	r0, r0, r4, lsr #1
 2ac:	84080e42 	strhi	r0, [r8], #-3650	; 0xe42
 2b0:	00018e02 	andeq	r8, r1, r2, lsl #28
 2b4:	00000014 	andeq	r0, r0, r4, lsl r0
 2b8:	000001ac 	andeq	r0, r0, ip, lsr #3
 2bc:	00008f50 	andeq	r8, r0, r0, asr pc
 2c0:	0000002c 	andeq	r0, r0, ip, lsr #32
 2c4:	83080e42 	movwhi	r0, #36418	; 0x8e42
 2c8:	00018e02 	andeq	r8, r1, r2, lsl #28
 2cc:	00000014 	andeq	r0, r0, r4, lsl r0
 2d0:	000001ac 	andeq	r0, r0, ip, lsr #3
 2d4:	00008f7c 	andeq	r8, r0, ip, ror pc
 2d8:	00000010 	andeq	r0, r0, r0, lsl r0
 2dc:	83080e42 	movwhi	r0, #36418	; 0x8e42
 2e0:	00018e02 	andeq	r8, r1, r2, lsl #28
 2e4:	0000000c 	andeq	r0, r0, ip
 2e8:	ffffffff 			; <UNDEFINED> instruction: 0xffffffff
 2ec:	7c020001 	stcvc	0, cr0, [r2], {1}
 2f0:	000d0c0e 	andeq	r0, sp, lr, lsl #24
 2f4:	00000014 	andeq	r0, r0, r4, lsl r0
 2f8:	000002e4 	andeq	r0, r0, r4, ror #5
 2fc:	00008f94 	muleq	r0, r4, pc	; <UNPREDICTABLE>
 300:	000000f0 	strdeq	r0, [r0], -r0	; <UNPREDICTABLE>
 304:	84040e42 	strhi	r0, [r4], #-3650	; 0xe42
 308:	00000001 	andeq	r0, r0, r1
 30c:	0000000c 	andeq	r0, r0, ip
 310:	ffffffff 			; <UNDEFINED> instruction: 0xffffffff
 314:	7c020001 	stcvc	0, cr0, [r2], {1}
 318:	000d0c0e 	andeq	r0, sp, lr, lsl #24
 31c:	0000000c 	andeq	r0, r0, ip
 320:	0000030c 	andeq	r0, r0, ip, lsl #6
 324:	00009084 	andeq	r9, r0, r4, lsl #1
 328:	00000020 	andeq	r0, r0, r0, lsr #32
 32c:	0000000c 	andeq	r0, r0, ip
 330:	ffffffff 			; <UNDEFINED> instruction: 0xffffffff
 334:	7c020001 	stcvc	0, cr0, [r2], {1}
 338:	000d0c0e 	andeq	r0, sp, lr, lsl #24
 33c:	00000024 	andeq	r0, r0, r4, lsr #32
 340:	0000032c 	andeq	r0, r0, ip, lsr #6
 344:	000090a4 	andeq	r9, r0, r4, lsr #1
 348:	00000058 	andeq	r0, r0, r8, asr r0
 34c:	80100e42 	andshi	r0, r0, r2, asr #28
 350:	82038104 	andhi	r8, r3, #4, 2
 354:	42018302 	andmi	r8, r1, #134217728	; 0x8000000
 358:	07841c0e 	streq	r1, [r4, lr, lsl #24]
 35c:	058e0685 	streq	r0, [lr, #1669]	; 0x685
 360:	00280e42 	eoreq	r0, r8, r2, asr #28
 364:	0000000c 	andeq	r0, r0, ip
 368:	ffffffff 			; <UNDEFINED> instruction: 0xffffffff
 36c:	7c020001 	stcvc	0, cr0, [r2], {1}
 370:	000d0c0e 	andeq	r0, sp, lr, lsl #24
 374:	00000014 	andeq	r0, r0, r4, lsl r0
 378:	00000364 	andeq	r0, r0, r4, ror #6
 37c:	000090fc 	strdeq	r9, [r0], -ip
 380:	00000014 	andeq	r0, r0, r4, lsl r0
 384:	84080e42 	strhi	r0, [r8], #-3650	; 0xe42
 388:	00018e02 	andeq	r8, r1, r2, lsl #28
 38c:	0000000c 	andeq	r0, r0, ip
 390:	00000364 	andeq	r0, r0, r4, ror #6
 394:	00009110 	andeq	r9, r0, r0, lsl r1
 398:	00000018 	andeq	r0, r0, r8, lsl r0
 39c:	0000000c 	andeq	r0, r0, ip
 3a0:	00000364 	andeq	r0, r0, r4, ror #6
 3a4:	00009128 	andeq	r9, r0, r8, lsr #2
 3a8:	00000010 	andeq	r0, r0, r0, lsl r0
 3ac:	0000000c 	andeq	r0, r0, ip
 3b0:	ffffffff 			; <UNDEFINED> instruction: 0xffffffff
 3b4:	7c020001 	stcvc	0, cr0, [r2], {1}
 3b8:	000d0c0e 	andeq	r0, sp, lr, lsl #24
 3bc:	00000018 	andeq	r0, r0, r8, lsl r0
 3c0:	000003ac 	andeq	r0, r0, ip, lsr #7
 3c4:	00009138 	andeq	r9, r0, r8, lsr r1
 3c8:	00000034 	andeq	r0, r0, r4, lsr r0
 3cc:	83100e42 	tsthi	r0, #1056	; 0x420
 3d0:	85038404 	strhi	r8, [r3, #-1028]	; 0x404
 3d4:	00018e02 	andeq	r8, r1, r2, lsl #28
 3d8:	0000000c 	andeq	r0, r0, ip
 3dc:	ffffffff 			; <UNDEFINED> instruction: 0xffffffff
 3e0:	7c020001 	stcvc	0, cr0, [r2], {1}
 3e4:	000d0c0e 	andeq	r0, sp, lr, lsl #24
 3e8:	0000000c 	andeq	r0, r0, ip
 3ec:	000003d8 	ldrdeq	r0, [r0], -r8
 3f0:	0000916c 	andeq	r9, r0, ip, ror #2
 3f4:	00000014 	andeq	r0, r0, r4, lsl r0
 3f8:	0000000c 	andeq	r0, r0, ip
 3fc:	000003d8 	ldrdeq	r0, [r0], -r8
 400:	00009180 	andeq	r9, r0, r0, lsl #3
 404:	0000002c 	andeq	r0, r0, ip, lsr #32
 408:	0000000c 	andeq	r0, r0, ip
 40c:	000003d8 	ldrdeq	r0, [r0], -r8
 410:	000091ac 	andeq	r9, r0, ip, lsr #3
 414:	00000040 	andeq	r0, r0, r0, asr #32
 418:	00000020 	andeq	r0, r0, r0, lsr #32
 41c:	000003d8 	ldrdeq	r0, [r0], -r8
 420:	000091ec 	andeq	r9, r0, ip, ror #3
 424:	000001b0 			; <UNDEFINED> instruction: 0x000001b0
 428:	84180e42 	ldrhi	r0, [r8], #-3650	; 0xe42
 42c:	86058506 	strhi	r8, [r5], -r6, lsl #10
 430:	88038704 	stmdahi	r3, {r2, r8, r9, sl, pc}
 434:	42018e02 	andmi	r8, r1, #2, 28
 438:	0000580e 	andeq	r5, r0, lr, lsl #16
 43c:	00000014 	andeq	r0, r0, r4, lsl r0
 440:	000003d8 	ldrdeq	r0, [r0], -r8
 444:	0000939c 	muleq	r0, ip, r3
 448:	00000054 	andeq	r0, r0, r4, asr r0
 44c:	83080e42 	movwhi	r0, #36418	; 0x8e42
 450:	00018e02 	andeq	r8, r1, r2, lsl #28
 454:	00000028 	andeq	r0, r0, r8, lsr #32
 458:	000003d8 	ldrdeq	r0, [r0], -r8
 45c:	000093f0 	strdeq	r9, [r0], -r0
 460:	00000288 	andeq	r0, r0, r8, lsl #5
 464:	84240e42 	strthi	r0, [r4], #-3650	; 0xe42
 468:	86088509 	strhi	r8, [r8], -r9, lsl #10
 46c:	88068707 	stmdahi	r6, {r0, r1, r2, r8, r9, sl, pc}
 470:	8a048905 	bhi	12288c <__bss_end__+0x117d14>
 474:	8e028b03 	vmlahi.f64	d8, d2, d3
 478:	b00e4201 	andlt	r4, lr, r1, lsl #4
 47c:	00000001 	andeq	r0, r0, r1
 480:	0000000c 	andeq	r0, r0, ip
 484:	ffffffff 			; <UNDEFINED> instruction: 0xffffffff
 488:	7c020001 	stcvc	0, cr0, [r2], {1}
 48c:	000d0c0e 	andeq	r0, sp, lr, lsl #24
 490:	00000014 	andeq	r0, r0, r4, lsl r0
 494:	00000480 	andeq	r0, r0, r0, lsl #9
 498:	00009678 	andeq	r9, r0, r8, ror r6
 49c:	00000028 	andeq	r0, r0, r8, lsr #32
 4a0:	83080e42 	movwhi	r0, #36418	; 0x8e42
 4a4:	00018e02 	andeq	r8, r1, r2, lsl #28
 4a8:	0000000c 	andeq	r0, r0, ip
 4ac:	ffffffff 			; <UNDEFINED> instruction: 0xffffffff
 4b0:	7c020001 	stcvc	0, cr0, [r2], {1}
 4b4:	000d0c0e 	andeq	r0, sp, lr, lsl #24
 4b8:	00000014 	andeq	r0, r0, r4, lsl r0
 4bc:	000004a8 	andeq	r0, r0, r8, lsr #9
 4c0:	000096a0 	andeq	r9, r0, r0, lsr #13
 4c4:	00000034 	andeq	r0, r0, r4, lsr r0
 4c8:	83080e42 	movwhi	r0, #36418	; 0x8e42
 4cc:	00018e02 	andeq	r8, r1, r2, lsl #28
 4d0:	0000000c 	andeq	r0, r0, ip
 4d4:	ffffffff 			; <UNDEFINED> instruction: 0xffffffff
 4d8:	7c020001 	stcvc	0, cr0, [r2], {1}
 4dc:	000d0c0e 	andeq	r0, sp, lr, lsl #24
 4e0:	0000000c 	andeq	r0, r0, ip
 4e4:	000004d0 	ldrdeq	r0, [r0], -r0	; <UNPREDICTABLE>
 4e8:	000096d4 	ldrdeq	r9, [r0], -r4
 4ec:	00000018 	andeq	r0, r0, r8, lsl r0
 4f0:	0000000c 	andeq	r0, r0, ip
 4f4:	000004d0 	ldrdeq	r0, [r0], -r0	; <UNPREDICTABLE>
 4f8:	000096ec 	andeq	r9, r0, ip, ror #13
 4fc:	00000014 	andeq	r0, r0, r4, lsl r0
 500:	00000014 	andeq	r0, r0, r4, lsl r0
 504:	000004d0 	ldrdeq	r0, [r0], -r0	; <UNPREDICTABLE>
 508:	00009700 	andeq	r9, r0, r0, lsl #14
 50c:	00000048 	andeq	r0, r0, r8, asr #32
 510:	83080e42 	movwhi	r0, #36418	; 0x8e42
 514:	00018e02 	andeq	r8, r1, r2, lsl #28
 518:	0000000c 	andeq	r0, r0, ip
 51c:	ffffffff 			; <UNDEFINED> instruction: 0xffffffff
 520:	7c020001 	stcvc	0, cr0, [r2], {1}
 524:	000d0c0e 	andeq	r0, sp, lr, lsl #24
 528:	0000000c 	andeq	r0, r0, ip
 52c:	00000518 	andeq	r0, r0, r8, lsl r5
 530:	00009748 	andeq	r9, r0, r8, asr #14
 534:	0000001c 	andeq	r0, r0, ip, lsl r0
 538:	00000014 	andeq	r0, r0, r4, lsl r0
 53c:	00000518 	andeq	r0, r0, r8, lsl r5
 540:	00009764 	andeq	r9, r0, r4, ror #14
 544:	00000014 	andeq	r0, r0, r4, lsl r0
 548:	83080e42 	movwhi	r0, #36418	; 0x8e42
 54c:	00018e02 	andeq	r8, r1, r2, lsl #28
 550:	00000014 	andeq	r0, r0, r4, lsl r0
 554:	00000518 	andeq	r0, r0, r8, lsl r5
 558:	00009778 	andeq	r9, r0, r8, ror r7
 55c:	0000000c 	andeq	r0, r0, ip
 560:	83080e42 	movwhi	r0, #36418	; 0x8e42
 564:	00018e02 	andeq	r8, r1, r2, lsl #28
 568:	00000018 	andeq	r0, r0, r8, lsl r0
 56c:	00000518 	andeq	r0, r0, r8, lsl r5
 570:	00009784 	andeq	r9, r0, r4, lsl #15
 574:	00000024 	andeq	r0, r0, r4, lsr #32
 578:	83100e42 	tsthi	r0, #1056	; 0x420
 57c:	85038404 	strhi	r8, [r3, #-1028]	; 0x404
 580:	00018e02 	andeq	r8, r1, r2, lsl #28
 584:	00000014 	andeq	r0, r0, r4, lsl r0
 588:	00000518 	andeq	r0, r0, r8, lsl r5
 58c:	000097a8 	andeq	r9, r0, r8, lsr #15
 590:	00000014 	andeq	r0, r0, r4, lsl r0
 594:	83080e42 	movwhi	r0, #36418	; 0x8e42
 598:	00018e02 	andeq	r8, r1, r2, lsl #28
 59c:	00000014 	andeq	r0, r0, r4, lsl r0
 5a0:	00000518 	andeq	r0, r0, r8, lsl r5
 5a4:	000097bc 			; <UNDEFINED> instruction: 0x000097bc
 5a8:	00000014 	andeq	r0, r0, r4, lsl r0
 5ac:	83080e42 	movwhi	r0, #36418	; 0x8e42
 5b0:	00018e02 	andeq	r8, r1, r2, lsl #28
 5b4:	0000000c 	andeq	r0, r0, ip
 5b8:	ffffffff 			; <UNDEFINED> instruction: 0xffffffff
 5bc:	7c020001 	stcvc	0, cr0, [r2], {1}
 5c0:	000d0c0e 	andeq	r0, sp, lr, lsl #24
 5c4:	00000018 	andeq	r0, r0, r8, lsl r0
 5c8:	000005b4 			; <UNDEFINED> instruction: 0x000005b4
 5cc:	0000981c 	andeq	r9, r0, ip, lsl r8
 5d0:	00000020 	andeq	r0, r0, r0, lsr #32
 5d4:	84100e42 	ldrhi	r0, [r0], #-3650	; 0xe42
 5d8:	86038504 	strhi	r8, [r3], -r4, lsl #10
 5dc:	00018e02 	andeq	r8, r1, r2, lsl #28
 5e0:	00000014 	andeq	r0, r0, r4, lsl r0
 5e4:	000005b4 			; <UNDEFINED> instruction: 0x000005b4
 5e8:	0000983c 	andeq	r9, r0, ip, lsr r8
 5ec:	000000b0 	strheq	r0, [r0], -r0	; <UNPREDICTABLE>
 5f0:	84080e42 	strhi	r0, [r8], #-3650	; 0xe42
 5f4:	00018e02 	andeq	r8, r1, r2, lsl #28
 5f8:	00000014 	andeq	r0, r0, r4, lsl r0
 5fc:	000005b4 			; <UNDEFINED> instruction: 0x000005b4
 600:	000098ec 	andeq	r9, r0, ip, ror #17
 604:	00000018 	andeq	r0, r0, r8, lsl r0
 608:	84080e42 	strhi	r0, [r8], #-3650	; 0xe42
 60c:	00018e02 	andeq	r8, r1, r2, lsl #28
 610:	00000014 	andeq	r0, r0, r4, lsl r0
 614:	000005b4 			; <UNDEFINED> instruction: 0x000005b4
 618:	00009904 	andeq	r9, r0, r4, lsl #18
 61c:	00000020 	andeq	r0, r0, r0, lsr #32
 620:	84080e42 	strhi	r0, [r8], #-3650	; 0xe42
 624:	00018e02 	andeq	r8, r1, r2, lsl #28
 628:	00000014 	andeq	r0, r0, r4, lsl r0
 62c:	000005b4 			; <UNDEFINED> instruction: 0x000005b4
 630:	00009924 	andeq	r9, r0, r4, lsr #18
 634:	00000030 	andeq	r0, r0, r0, lsr r0
 638:	84080e42 	strhi	r0, [r8], #-3650	; 0xe42
 63c:	00018e02 	andeq	r8, r1, r2, lsl #28
 640:	00000014 	andeq	r0, r0, r4, lsl r0
 644:	000005b4 			; <UNDEFINED> instruction: 0x000005b4
 648:	00009954 	andeq	r9, r0, r4, asr r9
 64c:	00000030 	andeq	r0, r0, r0, lsr r0
 650:	84080e42 	strhi	r0, [r8], #-3650	; 0xe42
 654:	00018e02 	andeq	r8, r1, r2, lsl #28
 658:	00000014 	andeq	r0, r0, r4, lsl r0
 65c:	000005b4 			; <UNDEFINED> instruction: 0x000005b4
 660:	00009984 	andeq	r9, r0, r4, lsl #19
 664:	00000010 	andeq	r0, r0, r0, lsl r0
 668:	84080e42 	strhi	r0, [r8], #-3650	; 0xe42
 66c:	00018e02 	andeq	r8, r1, r2, lsl #28
 670:	0000000c 	andeq	r0, r0, ip
 674:	ffffffff 			; <UNDEFINED> instruction: 0xffffffff
 678:	7c020001 	stcvc	0, cr0, [r2], {1}
 67c:	000d0c0e 	andeq	r0, sp, lr, lsl #24
 680:	00000018 	andeq	r0, r0, r8, lsl r0
 684:	00000670 	andeq	r0, r0, r0, ror r6
 688:	00009994 	muleq	r0, r4, r9
 68c:	00000068 	andeq	r0, r0, r8, rrx
 690:	84100e4a 	ldrhi	r0, [r0], #-3658	; 0xe4a
 694:	86038504 	strhi	r8, [r3], -r4, lsl #10
 698:	00018e02 	andeq	r8, r1, r2, lsl #28
 69c:	00000014 	andeq	r0, r0, r4, lsl r0
 6a0:	00000670 	andeq	r0, r0, r0, ror r6
 6a4:	000099fc 	strdeq	r9, [r0], -ip
 6a8:	00000010 	andeq	r0, r0, r0, lsl r0
 6ac:	84080e42 	strhi	r0, [r8], #-3650	; 0xe42
 6b0:	00018e02 	andeq	r8, r1, r2, lsl #28
 6b4:	00000014 	andeq	r0, r0, r4, lsl r0
 6b8:	00000670 	andeq	r0, r0, r0, ror r6
 6bc:	00009a0c 	andeq	r9, r0, ip, lsl #20
 6c0:	00000024 	andeq	r0, r0, r4, lsr #32
 6c4:	84080e46 	strhi	r0, [r8], #-3654	; 0xe46
 6c8:	00018e02 	andeq	r8, r1, r2, lsl #28
 6cc:	00000014 	andeq	r0, r0, r4, lsl r0
 6d0:	00000670 	andeq	r0, r0, r0, ror r6
 6d4:	00009a30 	andeq	r9, r0, r0, lsr sl
 6d8:	00000024 	andeq	r0, r0, r4, lsr #32
 6dc:	84080e46 	strhi	r0, [r8], #-3654	; 0xe46
 6e0:	00018e02 	andeq	r8, r1, r2, lsl #28
 6e4:	00000014 	andeq	r0, r0, r4, lsl r0
 6e8:	00000670 	andeq	r0, r0, r0, ror r6
 6ec:	00009a54 	andeq	r9, r0, r4, asr sl
 6f0:	00000010 	andeq	r0, r0, r0, lsl r0
 6f4:	84080e42 	strhi	r0, [r8], #-3650	; 0xe42
 6f8:	00018e02 	andeq	r8, r1, r2, lsl #28
 6fc:	00000014 	andeq	r0, r0, r4, lsl r0
 700:	00000670 	andeq	r0, r0, r0, ror r6
 704:	00009a64 	andeq	r9, r0, r4, ror #20
 708:	0000001c 	andeq	r0, r0, ip, lsl r0
 70c:	84080e42 	strhi	r0, [r8], #-3650	; 0xe42
 710:	00018e02 	andeq	r8, r1, r2, lsl #28
 714:	00000018 	andeq	r0, r0, r8, lsl r0
 718:	00000670 	andeq	r0, r0, r0, ror r6
 71c:	00009a80 	andeq	r9, r0, r0, lsl #21
 720:	00000034 	andeq	r0, r0, r4, lsr r0
 724:	84080e46 	strhi	r0, [r8], #-3654	; 0xe46
 728:	4e018e02 	cdpmi	14, 0, cr8, cr1, cr2, {0}
 72c:	cec4000e 	cdpgt	0, 12, cr0, cr4, cr14, {0}
 730:	0000000c 	andeq	r0, r0, ip
 734:	ffffffff 			; <UNDEFINED> instruction: 0xffffffff
 738:	7c020001 	stcvc	0, cr0, [r2], {1}
 73c:	000d0c0e 	andeq	r0, sp, lr, lsl #24
 740:	0000000c 	andeq	r0, r0, ip
 744:	00000730 	andeq	r0, r0, r0, lsr r7
 748:	00009ab4 			; <UNDEFINED> instruction: 0x00009ab4
 74c:	00000010 	andeq	r0, r0, r0, lsl r0
 750:	0000000c 	andeq	r0, r0, ip
 754:	00000730 	andeq	r0, r0, r0, lsr r7
 758:	00009ac4 	andeq	r9, r0, r4, asr #21
 75c:	0000000c 	andeq	r0, r0, ip
 760:	00000014 	andeq	r0, r0, r4, lsl r0
 764:	00000730 	andeq	r0, r0, r0, lsr r7
 768:	00009ad0 	ldrdeq	r9, [r0], -r0
 76c:	00000050 	andeq	r0, r0, r0, asr r0
 770:	84080e52 	strhi	r0, [r8], #-3666	; 0xe52
 774:	00018e02 	andeq	r8, r1, r2, lsl #28
 778:	00000014 	andeq	r0, r0, r4, lsl r0
 77c:	00000730 	andeq	r0, r0, r0, lsr r7
 780:	00009b20 	andeq	r9, r0, r0, lsr #22
 784:	00000064 	andeq	r0, r0, r4, rrx
 788:	84080e42 	strhi	r0, [r8], #-3650	; 0xe42
 78c:	00018e02 	andeq	r8, r1, r2, lsl #28
 790:	0000000c 	andeq	r0, r0, ip
 794:	00000730 	andeq	r0, r0, r0, lsr r7
 798:	00009b84 	andeq	r9, r0, r4, lsl #23
 79c:	00000004 	andeq	r0, r0, r4
 7a0:	00000014 	andeq	r0, r0, r4, lsl r0
 7a4:	00000730 	andeq	r0, r0, r0, lsr r7
 7a8:	00009b88 	andeq	r9, r0, r8, lsl #23
 7ac:	0000000c 	andeq	r0, r0, ip
 7b0:	84080e42 	strhi	r0, [r8], #-3650	; 0xe42
 7b4:	00018e02 	andeq	r8, r1, r2, lsl #28
 7b8:	00000014 	andeq	r0, r0, r4, lsl r0
 7bc:	00000730 	andeq	r0, r0, r0, lsr r7
 7c0:	00009b94 	muleq	r0, r4, fp
 7c4:	0000008c 	andeq	r0, r0, ip, lsl #1
 7c8:	84080e42 	strhi	r0, [r8], #-3650	; 0xe42
 7cc:	00018e02 	andeq	r8, r1, r2, lsl #28
 7d0:	0000000c 	andeq	r0, r0, ip
 7d4:	00000730 	andeq	r0, r0, r0, lsr r7
 7d8:	00009c20 	andeq	r9, r0, r0, lsr #24
 7dc:	00000004 	andeq	r0, r0, r4
 7e0:	0000000c 	andeq	r0, r0, ip
 7e4:	00000730 	andeq	r0, r0, r0, lsr r7
 7e8:	00009c24 	andeq	r9, r0, r4, lsr #24
 7ec:	00000014 	andeq	r0, r0, r4, lsl r0
 7f0:	0000000c 	andeq	r0, r0, ip
 7f4:	00000730 	andeq	r0, r0, r0, lsr r7
 7f8:	00009c38 	andeq	r9, r0, r8, lsr ip
 7fc:	00000010 	andeq	r0, r0, r0, lsl r0
