
tests/part2-test2.elf:     file format elf32-littlearm


Disassembly of section .text:

00008000 <__code_start__>:
    8000:	e3a0d302 	mov	sp, #134217728	; 0x8000000
    8004:	e3a0b000 	mov	fp, #0
    8008:	eb0005a8 	bl	96b0 <_cstart>
    800c:	eb0005bf 	bl	9710 <rpi_reboot>

00008010 <test>:
    8010:	e92d4070 	push	{r4, r5, r6, lr}
    8014:	e59f6060 	ldr	r6, [pc, #96]	; 807c <test+0x6c>
    8018:	e59f0060 	ldr	r0, [pc, #96]	; 8080 <test+0x70>
    801c:	e1a01006 	mov	r1, r6
    8020:	e59f205c 	ldr	r2, [pc, #92]	; 8084 <test+0x74>
    8024:	e59f305c 	ldr	r3, [pc, #92]	; 8088 <test+0x78>
    8028:	eb000421 	bl	90b4 <printk>
    802c:	e59f5058 	ldr	r5, [pc, #88]	; 808c <test+0x7c>
    8030:	e59f4058 	ldr	r4, [pc, #88]	; 8090 <test+0x80>
    8034:	e3a00004 	mov	r0, #4
    8038:	e1a01005 	mov	r1, r5
    803c:	e1a02004 	mov	r2, r4
    8040:	e3a0301a 	mov	r3, #26
    8044:	eb000109 	bl	8470 <ckalloc>
    8048:	e5860000 	str	r0, [r6]
    804c:	e3a01000 	mov	r1, #0
    8050:	e3a02004 	mov	r2, #4
    8054:	eb00040e 	bl	9094 <memset>
    8058:	e3a00004 	mov	r0, #4
    805c:	e1a01005 	mov	r1, r5
    8060:	e1a02004 	mov	r2, r4
    8064:	e3a0301d 	mov	r3, #29
    8068:	eb000100 	bl	8470 <ckalloc>
    806c:	e1a04000 	mov	r4, r0
    8070:	eb000369 	bl	8e1c <check_no_leak>
    8074:	e1a00004 	mov	r0, r4
    8078:	e8bd8070 	pop	{r4, r5, r6, pc}
    807c:	0000abb0 			; <UNDEFINED> instruction: 0x0000abb0
    8080:	00009c88 	andeq	r9, r0, r8, lsl #25
    8084:	00009c70 	andeq	r9, r0, r0, ror ip
    8088:	00009c80 	andeq	r9, r0, r0, lsl #25
    808c:	00009cb0 			; <UNDEFINED> instruction: 0x00009cb0
    8090:	00009c80 	andeq	r9, r0, r0, lsl #25

00008094 <notmain>:
    8094:	e92d4008 	push	{r3, lr}
    8098:	e59f002c 	ldr	r0, [pc, #44]	; 80cc <notmain+0x38>
    809c:	eb000404 	bl	90b4 <printk>
    80a0:	e3a00601 	mov	r0, #1048576	; 0x100000
    80a4:	eb00068d 	bl	9ae0 <kmalloc_init_set_start>
    80a8:	e3a00601 	mov	r0, #1048576	; 0x100000
    80ac:	eb00069f 	bl	9b30 <kmalloc>
    80b0:	e3a01601 	mov	r1, #1048576	; 0x100000
    80b4:	eb000097 	bl	8318 <ck_init>
    80b8:	ebffffd4 	bl	8010 <test>
    80bc:	e1a01000 	mov	r1, r0
    80c0:	e59f0008 	ldr	r0, [pc, #8]	; 80d0 <notmain+0x3c>
    80c4:	eb0003fa 	bl	90b4 <printk>
    80c8:	e8bd8008 	pop	{r3, pc}
    80cc:	00009cc4 	andeq	r9, r0, r4, asr #25
    80d0:	00009d0c 	andeq	r9, r0, ip, lsl #26

000080d4 <check_mem>:
    80d4:	e92d41f0 	push	{r4, r5, r6, r7, r8, lr}
    80d8:	e1a05000 	mov	r5, r0
    80dc:	e3a03000 	mov	r3, #0
    80e0:	ea000030 	b	81a8 <check_mem+0xd4>
    80e4:	e0814003 	add	r4, r1, r3
    80e8:	e7d1c003 	ldrb	ip, [r1, r3]
    80ec:	e35c00fe 	cmp	ip, #254	; 0xfe
    80f0:	0a00002b 	beq	81a4 <check_mem+0xd0>
    80f4:	e28570b8 	add	r7, r5, #184	; 0xb8
    80f8:	e0678004 	rsb	r8, r7, r4
    80fc:	e59f60b4 	ldr	r6, [pc, #180]	; 81b8 <check_mem+0xe4>
    8100:	e1a00006 	mov	r0, r6
    8104:	eb0003ea 	bl	90b4 <printk>
    8108:	e59f00ac 	ldr	r0, [pc, #172]	; 81bc <check_mem+0xe8>
    810c:	eb0003e8 	bl	90b4 <printk>
    8110:	e59f00a8 	ldr	r0, [pc, #168]	; 81c0 <check_mem+0xec>
    8114:	e1a01007 	mov	r1, r7
    8118:	e1a02008 	mov	r2, r8
    811c:	eb0003e4 	bl	90b4 <printk>
    8120:	e1a00006 	mov	r0, r6
    8124:	eb0003e2 	bl	90b4 <printk>
    8128:	e59f0094 	ldr	r0, [pc, #148]	; 81c4 <check_mem+0xf0>
    812c:	e5951000 	ldr	r1, [r5]
    8130:	eb0003df 	bl	90b4 <printk>
    8134:	e5953010 	ldr	r3, [r5, #16]
    8138:	e3530000 	cmp	r3, #0
    813c:	0a000006 	beq	815c <check_mem+0x88>
    8140:	e1a00006 	mov	r0, r6
    8144:	eb0003da 	bl	90b4 <printk>
    8148:	e59f0078 	ldr	r0, [pc, #120]	; 81c8 <check_mem+0xf4>
    814c:	e5951010 	ldr	r1, [r5, #16]
    8150:	e5952014 	ldr	r2, [r5, #20]
    8154:	e5953018 	ldr	r3, [r5, #24]
    8158:	eb0003d5 	bl	90b4 <printk>
    815c:	e5953008 	ldr	r3, [r5, #8]
    8160:	e353000c 	cmp	r3, #12
    8164:	1a000009 	bne	8190 <check_mem+0xbc>
    8168:	e595301c 	ldr	r3, [r5, #28]
    816c:	e3530000 	cmp	r3, #0
    8170:	0a000006 	beq	8190 <check_mem+0xbc>
    8174:	e59f003c 	ldr	r0, [pc, #60]	; 81b8 <check_mem+0xe4>
    8178:	eb0003cd 	bl	90b4 <printk>
    817c:	e59f0048 	ldr	r0, [pc, #72]	; 81cc <check_mem+0xf8>
    8180:	e595101c 	ldr	r1, [r5, #28]
    8184:	e5952020 	ldr	r2, [r5, #32]
    8188:	e5953024 	ldr	r3, [r5, #36]	; 0x24
    818c:	eb0003c8 	bl	90b4 <printk>
    8190:	e59f0038 	ldr	r0, [pc, #56]	; 81d0 <check_mem+0xfc>
    8194:	e5d41000 	ldrb	r1, [r4]
    8198:	eb0003c5 	bl	90b4 <printk>
    819c:	e3a00000 	mov	r0, #0
    81a0:	e8bd81f0 	pop	{r4, r5, r6, r7, r8, pc}
    81a4:	e2833001 	add	r3, r3, #1
    81a8:	e1530002 	cmp	r3, r2
    81ac:	3affffcc 	bcc	80e4 <check_mem+0x10>
    81b0:	e3a00001 	mov	r0, #1
    81b4:	e8bd81f0 	pop	{r4, r5, r6, r7, r8, pc}
    81b8:	00009d6c 	andeq	r9, r0, ip, ror #26
    81bc:	00009d74 	andeq	r9, r0, r4, ror sp
    81c0:	00009d7c 	andeq	r9, r0, ip, ror sp
    81c4:	00009da0 	andeq	r9, r0, r0, lsr #27
    81c8:	00009dac 	andeq	r9, r0, ip, lsr #27
    81cc:	00009dcc 	andeq	r9, r0, ip, asr #27
    81d0:	00009de8 	andeq	r9, r0, r8, ror #27

000081d4 <mark_mem>:
    81d4:	e92d4008 	push	{r3, lr}
    81d8:	e1a02001 	mov	r2, r1
    81dc:	e3a010fe 	mov	r1, #254	; 0xfe
    81e0:	eb0003ab 	bl	9094 <memset>
    81e4:	e8bd8008 	pop	{r3, pc}

000081e8 <hdr_cksum>:
    81e8:	e92d41f0 	push	{r4, r5, r6, r7, r8, lr}
    81ec:	e1a04000 	mov	r4, r0
    81f0:	e590800c 	ldr	r8, [r0, #12]
    81f4:	e5907028 	ldr	r7, [r0, #40]	; 0x28
    81f8:	e590602c 	ldr	r6, [r0, #44]	; 0x2c
    81fc:	e1d053b4 	ldrh	r5, [r0, #52]	; 0x34
    8200:	e3a03000 	mov	r3, #0
    8204:	e580300c 	str	r3, [r0, #12]
    8208:	e5803028 	str	r3, [r0, #40]	; 0x28
    820c:	e580302c 	str	r3, [r0, #44]	; 0x2c
    8210:	e1c033b4 	strh	r3, [r0, #52]	; 0x34
    8214:	e3a01038 	mov	r1, #56	; 0x38
    8218:	eb000361 	bl	8fa4 <fast_hash>
    821c:	e584800c 	str	r8, [r4, #12]
    8220:	e5847028 	str	r7, [r4, #40]	; 0x28
    8224:	e584602c 	str	r6, [r4, #44]	; 0x2c
    8228:	e1c453b4 	strh	r5, [r4, #52]	; 0x34
    822c:	e8bd81f0 	pop	{r4, r5, r6, r7, r8, pc}

00008230 <check_hdr>:
    8230:	e92d4010 	push	{r4, lr}
    8234:	e1a04000 	mov	r4, r0
    8238:	ebffffea 	bl	81e8 <hdr_cksum>
    823c:	e594300c 	ldr	r3, [r4, #12]
    8240:	e1530000 	cmp	r3, r0
    8244:	0a000006 	beq	8264 <check_hdr+0x34>
    8248:	eb0003b4 	bl	9120 <rpi_reset_putc>
    824c:	e59f0044 	ldr	r0, [pc, #68]	; 8298 <check_hdr+0x68>
    8250:	e59f1044 	ldr	r1, [pc, #68]	; 829c <check_hdr+0x6c>
    8254:	e59f2044 	ldr	r2, [pc, #68]	; 82a0 <check_hdr+0x70>
    8258:	e3a0302f 	mov	r3, #47	; 0x2f
    825c:	eb000394 	bl	90b4 <printk>
    8260:	eb000508 	bl	9688 <clean_reboot>
    8264:	e5943008 	ldr	r3, [r4, #8]
    8268:	e243300b 	sub	r3, r3, #11
    826c:	e3530001 	cmp	r3, #1
    8270:	9a000006 	bls	8290 <check_hdr+0x60>
    8274:	eb0003a9 	bl	9120 <rpi_reset_putc>
    8278:	e59f0024 	ldr	r0, [pc, #36]	; 82a4 <check_hdr+0x74>
    827c:	e59f1018 	ldr	r1, [pc, #24]	; 829c <check_hdr+0x6c>
    8280:	e59f2018 	ldr	r2, [pc, #24]	; 82a0 <check_hdr+0x70>
    8284:	e3a03030 	mov	r3, #48	; 0x30
    8288:	eb000389 	bl	90b4 <printk>
    828c:	eb0004fd 	bl	9688 <clean_reboot>
    8290:	e3a00001 	mov	r0, #1
    8294:	e8bd8010 	pop	{r4, pc}
    8298:	00009df4 	strdeq	r9, [r0], -r4
    829c:	00009e20 	andeq	r9, r0, r0, lsr #28
    82a0:	00009d1c 	andeq	r9, r0, ip, lsl sp
    82a4:	00009e2c 	andeq	r9, r0, ip, lsr #28

000082a8 <check_block>:
    82a8:	e92d4010 	push	{r4, lr}
    82ac:	e1a04000 	mov	r4, r0
    82b0:	ebffffde 	bl	8230 <check_hdr>
    82b4:	e3500000 	cmp	r0, #0
    82b8:	0a000010 	beq	8300 <check_block+0x58>
    82bc:	e1a00004 	mov	r0, r4
    82c0:	e2841038 	add	r1, r4, #56	; 0x38
    82c4:	e3a02080 	mov	r2, #128	; 0x80
    82c8:	ebffff81 	bl	80d4 <check_mem>
    82cc:	e3500000 	cmp	r0, #0
    82d0:	0a00000c 	beq	8308 <check_block+0x60>
    82d4:	e28410b8 	add	r1, r4, #184	; 0xb8
    82d8:	e5943000 	ldr	r3, [r4]
    82dc:	e5942004 	ldr	r2, [r4, #4]
    82e0:	e1a00004 	mov	r0, r4
    82e4:	e0811003 	add	r1, r1, r3
    82e8:	e2822080 	add	r2, r2, #128	; 0x80
    82ec:	ebffff78 	bl	80d4 <check_mem>
    82f0:	e3500000 	cmp	r0, #0
    82f4:	0a000005 	beq	8310 <check_block+0x68>
    82f8:	e3a00001 	mov	r0, #1
    82fc:	e8bd8010 	pop	{r4, pc}
    8300:	e3a00000 	mov	r0, #0
    8304:	e8bd8010 	pop	{r4, pc}
    8308:	e3a00000 	mov	r0, #0
    830c:	e8bd8010 	pop	{r4, pc}
    8310:	e3a00000 	mov	r0, #0
    8314:	e8bd8010 	pop	{r4, pc}

00008318 <ck_init>:
    8318:	e92d4038 	push	{r3, r4, r5, lr}
    831c:	e1a04000 	mov	r4, r0
    8320:	e1a05001 	mov	r5, r1
    8324:	e59f3060 	ldr	r3, [pc, #96]	; 838c <ck_init+0x74>
    8328:	e5933000 	ldr	r3, [r3]
    832c:	e3130007 	tst	r3, #7
    8330:	0a000006 	beq	8350 <ck_init+0x38>
    8334:	eb000379 	bl	9120 <rpi_reset_putc>
    8338:	e59f0050 	ldr	r0, [pc, #80]	; 8390 <ck_init+0x78>
    833c:	e59f1050 	ldr	r1, [pc, #80]	; 8394 <ck_init+0x7c>
    8340:	e59f2050 	ldr	r2, [pc, #80]	; 8398 <ck_init+0x80>
    8344:	e3a0300d 	mov	r3, #13
    8348:	eb000359 	bl	90b4 <printk>
    834c:	eb0004cd 	bl	9688 <clean_reboot>
    8350:	e59f0044 	ldr	r0, [pc, #68]	; 839c <ck_init+0x84>
    8354:	e3a01038 	mov	r1, #56	; 0x38
    8358:	e3a02080 	mov	r2, #128	; 0x80
    835c:	eb000354 	bl	90b4 <printk>
    8360:	e59f3024 	ldr	r3, [pc, #36]	; 838c <ck_init+0x74>
    8364:	e5834000 	str	r4, [r3]
    8368:	e5834004 	str	r4, [r3, #4]
    836c:	e0845005 	add	r5, r4, r5
    8370:	e5835008 	str	r5, [r3, #8]
    8374:	e583400c 	str	r4, [r3, #12]
    8378:	e5834010 	str	r4, [r3, #16]
    837c:	e3a02000 	mov	r2, #0
    8380:	e5832014 	str	r2, [r3, #20]
    8384:	e5832018 	str	r2, [r3, #24]
    8388:	e8bd8038 	pop	{r3, r4, r5, pc}
    838c:	0000a784 	andeq	sl, r0, r4, lsl #15
    8390:	00009e68 	andeq	r9, r0, r8, ror #28
    8394:	00009e20 	andeq	r9, r0, r0, lsr #28
    8398:	00009d28 	andeq	r9, r0, r8, lsr #26
    839c:	00009e90 	muleq	r0, r0, lr

000083a0 <ckfree>:
    83a0:	e92d41f0 	push	{r4, r5, r6, r7, r8, lr}
    83a4:	e1a04000 	mov	r4, r0
    83a8:	e1a08001 	mov	r8, r1
    83ac:	e1a07002 	mov	r7, r2
    83b0:	e1a06003 	mov	r6, r3
    83b4:	e59f009c 	ldr	r0, [pc, #156]	; 8458 <ckfree+0xb8>
    83b8:	e5900004 	ldr	r0, [r0, #4]
    83bc:	e3500000 	cmp	r0, #0
    83c0:	1a000006 	bne	83e0 <ckfree+0x40>
    83c4:	eb000355 	bl	9120 <rpi_reset_putc>
    83c8:	e59f008c 	ldr	r0, [pc, #140]	; 845c <ckfree+0xbc>
    83cc:	e59f108c 	ldr	r1, [pc, #140]	; 8460 <ckfree+0xc0>
    83d0:	e59f208c 	ldr	r2, [pc, #140]	; 8464 <ckfree+0xc4>
    83d4:	e3a0305a 	mov	r3, #90	; 0x5a
    83d8:	eb000335 	bl	90b4 <printk>
    83dc:	eb0004a9 	bl	9688 <clean_reboot>
    83e0:	e59f0080 	ldr	r0, [pc, #128]	; 8468 <ckfree+0xc8>
    83e4:	eb000332 	bl	90b4 <printk>
    83e8:	e59f007c 	ldr	r0, [pc, #124]	; 846c <ckfree+0xcc>
    83ec:	e1a01004 	mov	r1, r4
    83f0:	eb00032f 	bl	90b4 <printk>
    83f4:	e24450b8 	sub	r5, r4, #184	; 0xb8
    83f8:	e1a00005 	mov	r0, r5
    83fc:	ebffffa9 	bl	82a8 <check_block>
    8400:	e3500000 	cmp	r0, #0
    8404:	08bd81f0 	popeq	{r4, r5, r6, r7, r8, pc}
    8408:	e51430b0 	ldr	r3, [r4, #-176]	; 0xb0
    840c:	e353000c 	cmp	r3, #12
    8410:	08bd81f0 	popeq	{r4, r5, r6, r7, r8, pc}
    8414:	e3a0300c 	mov	r3, #12
    8418:	e50430b0 	str	r3, [r4, #-176]	; 0xb0
    841c:	e1a00004 	mov	r0, r4
    8420:	e51410b8 	ldr	r1, [r4, #-184]	; 0xb8
    8424:	ebffff6a 	bl	81d4 <mark_mem>
    8428:	e504809c 	str	r8, [r4, #-156]	; 0x9c
    842c:	e5047098 	str	r7, [r4, #-152]	; 0x98
    8430:	e5046094 	str	r6, [r4, #-148]	; 0x94
    8434:	e51420b8 	ldr	r2, [r4, #-184]	; 0xb8
    8438:	e59f3018 	ldr	r3, [pc, #24]	; 8458 <ckfree+0xb8>
    843c:	e5931014 	ldr	r1, [r3, #20]
    8440:	e0812002 	add	r2, r1, r2
    8444:	e5832014 	str	r2, [r3, #20]
    8448:	e1a00005 	mov	r0, r5
    844c:	ebffff65 	bl	81e8 <hdr_cksum>
    8450:	e50400ac 	str	r0, [r4, #-172]	; 0xac
    8454:	e8bd81f0 	pop	{r4, r5, r6, r7, r8, pc}
    8458:	0000a784 	andeq	sl, r0, r4, lsl #15
    845c:	00009eac 	andeq	r9, r0, ip, lsr #29
    8460:	00009e20 	andeq	r9, r0, r0, lsr #28
    8464:	00009d30 	andeq	r9, r0, r0, lsr sp
    8468:	00009d6c 	andeq	r9, r0, ip, ror #26
    846c:	00009ee0 	andeq	r9, r0, r0, ror #29

00008470 <ckalloc>:
    8470:	e92d43f0 	push	{r4, r5, r6, r7, r8, r9, lr}
    8474:	e24dd00c 	sub	sp, sp, #12
    8478:	e1a05000 	mov	r5, r0
    847c:	e1a09001 	mov	r9, r1
    8480:	e1a08002 	mov	r8, r2
    8484:	e1a07003 	mov	r7, r3
    8488:	e59f31d4 	ldr	r3, [pc, #468]	; 8664 <ckalloc+0x1f4>
    848c:	e5933004 	ldr	r3, [r3, #4]
    8490:	e3530000 	cmp	r3, #0
    8494:	1a000006 	bne	84b4 <ckalloc+0x44>
    8498:	eb000320 	bl	9120 <rpi_reset_putc>
    849c:	e59f01c4 	ldr	r0, [pc, #452]	; 8668 <ckalloc+0x1f8>
    84a0:	e59f11c4 	ldr	r1, [pc, #452]	; 866c <ckalloc+0x1fc>
    84a4:	e59f21c4 	ldr	r2, [pc, #452]	; 8670 <ckalloc+0x200>
    84a8:	e3a03078 	mov	r3, #120	; 0x78
    84ac:	eb000300 	bl	90b4 <printk>
    84b0:	eb000474 	bl	9688 <clean_reboot>
    84b4:	e59f01b8 	ldr	r0, [pc, #440]	; 8674 <ckalloc+0x204>
    84b8:	eb0002fd 	bl	90b4 <printk>
    84bc:	e59f01b4 	ldr	r0, [pc, #436]	; 8678 <ckalloc+0x208>
    84c0:	e1a01005 	mov	r1, r5
    84c4:	eb0002fa 	bl	90b4 <printk>
    84c8:	e2852007 	add	r2, r5, #7
    84cc:	e3c22007 	bic	r2, r2, #7
    84d0:	e2826f4e 	add	r6, r2, #312	; 0x138
    84d4:	e1560005 	cmp	r6, r5
    84d8:	2a00000c 	bcs	8510 <ckalloc+0xa0>
    84dc:	e59f0198 	ldr	r0, [pc, #408]	; 867c <ckalloc+0x20c>
    84e0:	eb0002f3 	bl	90b4 <printk>
    84e4:	e59f0194 	ldr	r0, [pc, #404]	; 8680 <ckalloc+0x210>
    84e8:	e1a01005 	mov	r1, r5
    84ec:	eb0002f0 	bl	90b4 <printk>
    84f0:	eb00030a 	bl	9120 <rpi_reset_putc>
    84f4:	e58d5000 	str	r5, [sp]
    84f8:	e59f0184 	ldr	r0, [pc, #388]	; 8684 <ckalloc+0x214>
    84fc:	e59f1168 	ldr	r1, [pc, #360]	; 866c <ckalloc+0x1fc>
    8500:	e59f2168 	ldr	r2, [pc, #360]	; 8670 <ckalloc+0x200>
    8504:	e3a03080 	mov	r3, #128	; 0x80
    8508:	eb0002e9 	bl	90b4 <printk>
    850c:	eb00045d 	bl	9688 <clean_reboot>
    8510:	e59f314c 	ldr	r3, [pc, #332]	; 8664 <ckalloc+0x1f4>
    8514:	e5934004 	ldr	r4, [r3, #4]
    8518:	e084c006 	add	ip, r4, r6
    851c:	e5933008 	ldr	r3, [r3, #8]
    8520:	e15c0003 	cmp	ip, r3
    8524:	3a000014 	bcc	857c <ckalloc+0x10c>
    8528:	e59f014c 	ldr	r0, [pc, #332]	; 867c <ckalloc+0x20c>
    852c:	eb0002e0 	bl	90b4 <printk>
    8530:	e59f412c 	ldr	r4, [pc, #300]	; 8664 <ckalloc+0x1f4>
    8534:	e5941008 	ldr	r1, [r4, #8]
    8538:	e5943004 	ldr	r3, [r4, #4]
    853c:	e59f0144 	ldr	r0, [pc, #324]	; 8688 <ckalloc+0x218>
    8540:	e0631001 	rsb	r1, r3, r1
    8544:	e1a02006 	mov	r2, r6
    8548:	eb0002d9 	bl	90b4 <printk>
    854c:	eb0002f3 	bl	9120 <rpi_reset_putc>
    8550:	e5942008 	ldr	r2, [r4, #8]
    8554:	e5943004 	ldr	r3, [r4, #4]
    8558:	e0633002 	rsb	r3, r3, r2
    855c:	e58d3000 	str	r3, [sp]
    8560:	e58d6004 	str	r6, [sp, #4]
    8564:	e59f0120 	ldr	r0, [pc, #288]	; 868c <ckalloc+0x21c>
    8568:	e59f10fc 	ldr	r1, [pc, #252]	; 866c <ckalloc+0x1fc>
    856c:	e59f20fc 	ldr	r2, [pc, #252]	; 8670 <ckalloc+0x200>
    8570:	e3a03084 	mov	r3, #132	; 0x84
    8574:	eb0002ce 	bl	90b4 <printk>
    8578:	eb000442 	bl	9688 <clean_reboot>
    857c:	e59f00e0 	ldr	r0, [pc, #224]	; 8664 <ckalloc+0x1f4>
    8580:	e580c004 	str	ip, [r0, #4]
    8584:	e5845000 	str	r5, [r4]
    8588:	e0652002 	rsb	r2, r5, r2
    858c:	e5842004 	str	r2, [r4, #4]
    8590:	e3a0300b 	mov	r3, #11
    8594:	e5843008 	str	r3, [r4, #8]
    8598:	e5903018 	ldr	r3, [r0, #24]
    859c:	e0833005 	add	r3, r3, r5
    85a0:	e5803018 	str	r3, [r0, #24]
    85a4:	e580c010 	str	ip, [r0, #16]
    85a8:	e5849010 	str	r9, [r4, #16]
    85ac:	e5848014 	str	r8, [r4, #20]
    85b0:	e5847018 	str	r7, [r4, #24]
    85b4:	e1a00004 	mov	r0, r4
    85b8:	ebffff0a 	bl	81e8 <hdr_cksum>
    85bc:	e584000c 	str	r0, [r4, #12]
    85c0:	e2840038 	add	r0, r4, #56	; 0x38
    85c4:	e3a01080 	mov	r1, #128	; 0x80
    85c8:	ebffff01 	bl	81d4 <mark_mem>
    85cc:	e28470b8 	add	r7, r4, #184	; 0xb8
    85d0:	e5940000 	ldr	r0, [r4]
    85d4:	e5941004 	ldr	r1, [r4, #4]
    85d8:	e0870000 	add	r0, r7, r0
    85dc:	e2811080 	add	r1, r1, #128	; 0x80
    85e0:	ebfffefb 	bl	81d4 <mark_mem>
    85e4:	e1a00004 	mov	r0, r4
    85e8:	ebffff10 	bl	8230 <check_hdr>
    85ec:	e3500000 	cmp	r0, #0
    85f0:	1a000006 	bne	8610 <ckalloc+0x1a0>
    85f4:	eb0002c9 	bl	9120 <rpi_reset_putc>
    85f8:	e59f0090 	ldr	r0, [pc, #144]	; 8690 <ckalloc+0x220>
    85fc:	e59f1068 	ldr	r1, [pc, #104]	; 866c <ckalloc+0x1fc>
    8600:	e59f2068 	ldr	r2, [pc, #104]	; 8670 <ckalloc+0x200>
    8604:	e3a0309b 	mov	r3, #155	; 0x9b
    8608:	eb0002a9 	bl	90b4 <printk>
    860c:	eb00041d 	bl	9688 <clean_reboot>
    8610:	e1a00004 	mov	r0, r4
    8614:	ebffff23 	bl	82a8 <check_block>
    8618:	e3500000 	cmp	r0, #0
    861c:	1a000006 	bne	863c <ckalloc+0x1cc>
    8620:	eb0002be 	bl	9120 <rpi_reset_putc>
    8624:	e59f0068 	ldr	r0, [pc, #104]	; 8694 <ckalloc+0x224>
    8628:	e59f103c 	ldr	r1, [pc, #60]	; 866c <ckalloc+0x1fc>
    862c:	e59f203c 	ldr	r2, [pc, #60]	; 8670 <ckalloc+0x200>
    8630:	e3a0309c 	mov	r3, #156	; 0x9c
    8634:	eb00029e 	bl	90b4 <printk>
    8638:	eb000412 	bl	9688 <clean_reboot>
    863c:	e59f0030 	ldr	r0, [pc, #48]	; 8674 <ckalloc+0x204>
    8640:	eb00029b 	bl	90b4 <printk>
    8644:	e59f004c 	ldr	r0, [pc, #76]	; 8698 <ckalloc+0x228>
    8648:	e1a01005 	mov	r1, r5
    864c:	e1a02006 	mov	r2, r6
    8650:	e1a03007 	mov	r3, r7
    8654:	eb000296 	bl	90b4 <printk>
    8658:	e1a00007 	mov	r0, r7
    865c:	e28dd00c 	add	sp, sp, #12
    8660:	e8bd83f0 	pop	{r4, r5, r6, r7, r8, r9, pc}
    8664:	0000a784 	andeq	sl, r0, r4, lsl #15
    8668:	00009eac 	andeq	r9, r0, ip, lsr #29
    866c:	00009e20 	andeq	r9, r0, r0, lsr #28
    8670:	00009d38 	andeq	r9, r0, r8, lsr sp
    8674:	00009d6c 	andeq	r9, r0, ip, ror #26
    8678:	00009eec 	andeq	r9, r0, ip, ror #29
    867c:	00009f04 	andeq	r9, r0, r4, lsl #30
    8680:	00009f10 	andeq	r9, r0, r0, lsl pc
    8684:	00009f38 	andeq	r9, r0, r8, lsr pc
    8688:	00009f70 	andeq	r9, r0, r0, ror pc
    868c:	00009f9c 	muleq	r0, ip, pc	; <UNPREDICTABLE>
    8690:	00009fd8 	ldrdeq	r9, [r0], -r8
    8694:	00009ff8 	strdeq	r9, [r0], -r8
    8698:	0000a018 	andeq	sl, r0, r8, lsl r0

0000869c <ck_heap_errors>:
    869c:	e92d43f8 	push	{r3, r4, r5, r6, r7, r8, r9, lr}
    86a0:	e59f413c 	ldr	r4, [pc, #316]	; 87e4 <ck_heap_errors+0x148>
    86a4:	e5943004 	ldr	r3, [r4, #4]
    86a8:	e5946000 	ldr	r6, [r4]
    86ac:	e0666003 	rsb	r6, r6, r3
    86b0:	e5945008 	ldr	r5, [r4, #8]
    86b4:	e0635005 	rsb	r5, r3, r5
    86b8:	e59f0128 	ldr	r0, [pc, #296]	; 87e8 <ck_heap_errors+0x14c>
    86bc:	eb00027c 	bl	90b4 <printk>
    86c0:	e59f0124 	ldr	r0, [pc, #292]	; 87ec <ck_heap_errors+0x150>
    86c4:	e1a01006 	mov	r1, r6
    86c8:	e1a02005 	mov	r2, r5
    86cc:	eb000278 	bl	90b4 <printk>
    86d0:	e5944000 	ldr	r4, [r4]
    86d4:	e3a05000 	mov	r5, #0
    86d8:	e1a06005 	mov	r6, r5
    86dc:	e59f7100 	ldr	r7, [pc, #256]	; 87e4 <ck_heap_errors+0x148>
    86e0:	e59f9100 	ldr	r9, [pc, #256]	; 87e8 <ck_heap_errors+0x14c>
    86e4:	e59f8104 	ldr	r8, [pc, #260]	; 87f0 <ck_heap_errors+0x154>
    86e8:	ea00002a 	b	8798 <ck_heap_errors+0xfc>
    86ec:	e1540003 	cmp	r4, r3
    86f0:	3a000006 	bcc	8710 <ck_heap_errors+0x74>
    86f4:	eb000289 	bl	9120 <rpi_reset_putc>
    86f8:	e59f00f4 	ldr	r0, [pc, #244]	; 87f4 <ck_heap_errors+0x158>
    86fc:	e59f10f4 	ldr	r1, [pc, #244]	; 87f8 <ck_heap_errors+0x15c>
    8700:	e59f20f4 	ldr	r2, [pc, #244]	; 87fc <ck_heap_errors+0x160>
    8704:	e3a030af 	mov	r3, #175	; 0xaf
    8708:	eb000269 	bl	90b4 <printk>
    870c:	eb0003dd 	bl	9688 <clean_reboot>
    8710:	e1a00004 	mov	r0, r4
    8714:	ebfffec5 	bl	8230 <check_hdr>
    8718:	e3500000 	cmp	r0, #0
    871c:	1a000005 	bne	8738 <ck_heap_errors+0x9c>
    8720:	e59f00c0 	ldr	r0, [pc, #192]	; 87e8 <ck_heap_errors+0x14c>
    8724:	eb000262 	bl	90b4 <printk>
    8728:	e59f00d0 	ldr	r0, [pc, #208]	; 8800 <ck_heap_errors+0x164>
    872c:	eb000260 	bl	90b4 <printk>
    8730:	e2866001 	add	r6, r6, #1
    8734:	ea00001a 	b	87a4 <ck_heap_errors+0x108>
    8738:	e1a00004 	mov	r0, r4
    873c:	ebfffed9 	bl	82a8 <check_block>
    8740:	e3500000 	cmp	r0, #0
    8744:	02866001 	addeq	r6, r6, #1
    8748:	e5943008 	ldr	r3, [r4, #8]
    874c:	e353000c 	cmp	r3, #12
    8750:	1a00000a 	bne	8780 <ck_heap_errors+0xe4>
    8754:	e1a00004 	mov	r0, r4
    8758:	e28410b8 	add	r1, r4, #184	; 0xb8
    875c:	e5942000 	ldr	r2, [r4]
    8760:	ebfffe5b 	bl	80d4 <check_mem>
    8764:	e3500000 	cmp	r0, #0
    8768:	1a000004 	bne	8780 <ck_heap_errors+0xe4>
    876c:	e1a00009 	mov	r0, r9
    8770:	eb00024f 	bl	90b4 <printk>
    8774:	e1a00008 	mov	r0, r8
    8778:	eb00024d 	bl	90b4 <printk>
    877c:	e2866001 	add	r6, r6, #1
    8780:	e5942000 	ldr	r2, [r4]
    8784:	e5943004 	ldr	r3, [r4, #4]
    8788:	e0823003 	add	r3, r2, r3
    878c:	e2833f4e 	add	r3, r3, #312	; 0x138
    8790:	e0844003 	add	r4, r4, r3
    8794:	e2855001 	add	r5, r5, #1
    8798:	e5973004 	ldr	r3, [r7, #4]
    879c:	e1530004 	cmp	r3, r4
    87a0:	1affffd1 	bne	86ec <ck_heap_errors+0x50>
    87a4:	e3560000 	cmp	r6, #0
    87a8:	0a000006 	beq	87c8 <ck_heap_errors+0x12c>
    87ac:	e59f0034 	ldr	r0, [pc, #52]	; 87e8 <ck_heap_errors+0x14c>
    87b0:	eb00023f 	bl	90b4 <printk>
    87b4:	e59f0048 	ldr	r0, [pc, #72]	; 8804 <ck_heap_errors+0x168>
    87b8:	e1a01005 	mov	r1, r5
    87bc:	e1a02006 	mov	r2, r6
    87c0:	eb00023b 	bl	90b4 <printk>
    87c4:	ea000004 	b	87dc <ck_heap_errors+0x140>
    87c8:	e59f0018 	ldr	r0, [pc, #24]	; 87e8 <ck_heap_errors+0x14c>
    87cc:	eb000238 	bl	90b4 <printk>
    87d0:	e59f0030 	ldr	r0, [pc, #48]	; 8808 <ck_heap_errors+0x16c>
    87d4:	e1a01005 	mov	r1, r5
    87d8:	eb000235 	bl	90b4 <printk>
    87dc:	e1a00006 	mov	r0, r6
    87e0:	e8bd83f8 	pop	{r3, r4, r5, r6, r7, r8, r9, pc}
    87e4:	0000a784 	andeq	sl, r0, r4, lsl #15
    87e8:	00009d6c 	andeq	r9, r0, ip, ror #26
    87ec:	0000a048 	andeq	sl, r0, r8, asr #32
    87f0:	0000a0b8 	strheq	sl, [r0], -r8
    87f4:	0000a080 	andeq	sl, r0, r0, lsl #1
    87f8:	00009e20 	andeq	r9, r0, r0, lsr #28
    87fc:	00009d40 	andeq	r9, r0, r0, asr #26
    8800:	0000a0a4 	andeq	sl, r0, r4, lsr #1
    8804:	0000a0d4 	ldrdeq	sl, [r0], -r4
    8808:	0000a0fc 	strdeq	sl, [r0], -ip

0000880c <ck_first_hdr>:
    880c:	e92d4010 	push	{r4, lr}
    8810:	e59f3034 	ldr	r3, [pc, #52]	; 884c <ck_first_hdr+0x40>
    8814:	e5934000 	ldr	r4, [r3]
    8818:	e1a00004 	mov	r0, r4
    881c:	ebfffe83 	bl	8230 <check_hdr>
    8820:	e3500000 	cmp	r0, #0
    8824:	1a000006 	bne	8844 <ck_first_hdr+0x38>
    8828:	eb00023c 	bl	9120 <rpi_reset_putc>
    882c:	e59f001c 	ldr	r0, [pc, #28]	; 8850 <ck_first_hdr+0x44>
    8830:	e59f101c 	ldr	r1, [pc, #28]	; 8854 <ck_first_hdr+0x48>
    8834:	e59f201c 	ldr	r2, [pc, #28]	; 8858 <ck_first_hdr+0x4c>
    8838:	e3a030d2 	mov	r3, #210	; 0xd2
    883c:	eb00021c 	bl	90b4 <printk>
    8840:	eb000390 	bl	9688 <clean_reboot>
    8844:	e1a00004 	mov	r0, r4
    8848:	e8bd8010 	pop	{r4, pc}
    884c:	0000a784 	andeq	sl, r0, r4, lsl #15
    8850:	0000a12c 	andeq	sl, r0, ip, lsr #2
    8854:	00009e20 	andeq	r9, r0, r0, lsr #28
    8858:	00009d50 	andeq	r9, r0, r0, asr sp

0000885c <ck_next_hdr>:
    885c:	e92d4010 	push	{r4, lr}
    8860:	e5904000 	ldr	r4, [r0]
    8864:	e5903004 	ldr	r3, [r0, #4]
    8868:	e0844003 	add	r4, r4, r3
    886c:	e2844f4e 	add	r4, r4, #312	; 0x138
    8870:	e0804004 	add	r4, r0, r4
    8874:	e59f3064 	ldr	r3, [pc, #100]	; 88e0 <ck_next_hdr+0x84>
    8878:	e5933004 	ldr	r3, [r3, #4]
    887c:	e1540003 	cmp	r4, r3
    8880:	0a000012 	beq	88d0 <ck_next_hdr+0x74>
    8884:	3a000006 	bcc	88a4 <ck_next_hdr+0x48>
    8888:	eb000224 	bl	9120 <rpi_reset_putc>
    888c:	e59f0050 	ldr	r0, [pc, #80]	; 88e4 <ck_next_hdr+0x88>
    8890:	e59f1050 	ldr	r1, [pc, #80]	; 88e8 <ck_next_hdr+0x8c>
    8894:	e59f2050 	ldr	r2, [pc, #80]	; 88ec <ck_next_hdr+0x90>
    8898:	e3a030e1 	mov	r3, #225	; 0xe1
    889c:	eb000204 	bl	90b4 <printk>
    88a0:	eb000378 	bl	9688 <clean_reboot>
    88a4:	e1a00004 	mov	r0, r4
    88a8:	ebfffe60 	bl	8230 <check_hdr>
    88ac:	e3500000 	cmp	r0, #0
    88b0:	1a000008 	bne	88d8 <ck_next_hdr+0x7c>
    88b4:	eb000219 	bl	9120 <rpi_reset_putc>
    88b8:	e59f0030 	ldr	r0, [pc, #48]	; 88f0 <ck_next_hdr+0x94>
    88bc:	e59f1024 	ldr	r1, [pc, #36]	; 88e8 <ck_next_hdr+0x8c>
    88c0:	e59f2024 	ldr	r2, [pc, #36]	; 88ec <ck_next_hdr+0x90>
    88c4:	e3a030e2 	mov	r3, #226	; 0xe2
    88c8:	eb0001f9 	bl	90b4 <printk>
    88cc:	eb00036d 	bl	9688 <clean_reboot>
    88d0:	e3a00000 	mov	r0, #0
    88d4:	e8bd8010 	pop	{r4, pc}
    88d8:	e1a00004 	mov	r0, r4
    88dc:	e8bd8010 	pop	{r4, pc}
    88e0:	0000a784 	andeq	sl, r0, r4, lsl #15
    88e4:	0000a150 	andeq	sl, r0, r0, asr r1
    88e8:	00009e20 	andeq	r9, r0, r0, lsr #28
    88ec:	00009d60 	andeq	r9, r0, r0, ror #26
    88f0:	0000a17c 	andeq	sl, r0, ip, ror r1

000088f4 <heap_info>:
    88f4:	e1a0c000 	mov	ip, r0
    88f8:	e59f300c 	ldr	r3, [pc, #12]	; 890c <heap_info+0x18>
    88fc:	e893000f 	ldm	r3, {r0, r1, r2, r3}
    8900:	e88c000f 	stm	ip, {r0, r1, r2, r3}
    8904:	e1a0000c 	mov	r0, ip
    8908:	e12fff1e 	bx	lr
    890c:	0000a790 	muleq	r0, r0, r7

00008910 <in_heap>:
    8910:	e59f3030 	ldr	r3, [pc, #48]	; 8948 <in_heap+0x38>
    8914:	e5933000 	ldr	r3, [r3]
    8918:	e1530000 	cmp	r3, r0
    891c:	8a000005 	bhi	8938 <in_heap+0x28>
    8920:	e59f3020 	ldr	r3, [pc, #32]	; 8948 <in_heap+0x38>
    8924:	e5933004 	ldr	r3, [r3, #4]
    8928:	e1530000 	cmp	r3, r0
    892c:	2a000003 	bcs	8940 <in_heap+0x30>
    8930:	e3a00000 	mov	r0, #0
    8934:	e12fff1e 	bx	lr
    8938:	e3a00000 	mov	r0, #0
    893c:	e12fff1e 	bx	lr
    8940:	e3a00001 	mov	r0, #1
    8944:	e12fff1e 	bx	lr
    8948:	0000a7a0 	andeq	sl, r0, r0, lsr #15

0000894c <is_ptr>:
    894c:	e92d4010 	push	{r4, lr}
    8950:	e1a04000 	mov	r4, r0
    8954:	ebffffed 	bl	8910 <in_heap>
    8958:	e3500000 	cmp	r0, #0
    895c:	0a000016 	beq	89bc <is_ptr+0x70>
    8960:	ebffffa9 	bl	880c <ck_first_hdr>
    8964:	ea000011 	b	89b0 <is_ptr+0x64>
    8968:	e28030b8 	add	r3, r0, #184	; 0xb8
    896c:	e1530004 	cmp	r3, r4
    8970:	1a000003 	bne	8984 <is_ptr+0x38>
    8974:	e5903028 	ldr	r3, [r0, #40]	; 0x28
    8978:	e2833001 	add	r3, r3, #1
    897c:	e5803028 	str	r3, [r0, #40]	; 0x28
    8980:	e8bd8010 	pop	{r4, pc}
    8984:	e1540003 	cmp	r4, r3
    8988:	9a000007 	bls	89ac <is_ptr+0x60>
    898c:	e5902000 	ldr	r2, [r0]
    8990:	e0833002 	add	r3, r3, r2
    8994:	e1530004 	cmp	r3, r4
    8998:	3a000003 	bcc	89ac <is_ptr+0x60>
    899c:	e590302c 	ldr	r3, [r0, #44]	; 0x2c
    89a0:	e2833001 	add	r3, r3, #1
    89a4:	e580302c 	str	r3, [r0, #44]	; 0x2c
    89a8:	e8bd8010 	pop	{r4, pc}
    89ac:	ebffffaa 	bl	885c <ck_next_hdr>
    89b0:	e3500000 	cmp	r0, #0
    89b4:	1affffeb 	bne	8968 <is_ptr+0x1c>
    89b8:	e8bd8010 	pop	{r4, pc}
    89bc:	e3a00000 	mov	r0, #0
    89c0:	e8bd8010 	pop	{r4, pc}

000089c4 <sweep_leak>:
    89c4:	e92d4ff8 	push	{r3, r4, r5, r6, r7, r8, r9, sl, fp, lr}
    89c8:	e1a09000 	mov	r9, r0
    89cc:	e59f0100 	ldr	r0, [pc, #256]	; 8ad4 <sweep_leak+0x110>
    89d0:	eb0001b7 	bl	90b4 <printk>
    89d4:	e59f00fc 	ldr	r0, [pc, #252]	; 8ad8 <sweep_leak+0x114>
    89d8:	eb0001b5 	bl	90b4 <printk>
    89dc:	ebffff8a 	bl	880c <ck_first_hdr>
    89e0:	e1a04000 	mov	r4, r0
    89e4:	e3a06000 	mov	r6, #0
    89e8:	e1a07006 	mov	r7, r6
    89ec:	e1a05006 	mov	r5, r6
    89f0:	e1a08006 	mov	r8, r6
    89f4:	e59fa0e0 	ldr	sl, [pc, #224]	; 8adc <sweep_leak+0x118>
    89f8:	e59fb0e0 	ldr	fp, [pc, #224]	; 8ae0 <sweep_leak+0x11c>
    89fc:	ea00001c 	b	8a74 <sweep_leak+0xb0>
    8a00:	e5943008 	ldr	r3, [r4, #8]
    8a04:	e353000b 	cmp	r3, #11
    8a08:	1a000015 	bne	8a64 <sweep_leak+0xa0>
    8a0c:	e1d433b4 	ldrh	r3, [r4, #52]	; 0x34
    8a10:	e3530000 	cmp	r3, #0
    8a14:	1a000006 	bne	8a34 <sweep_leak+0x70>
    8a18:	e1a0000a 	mov	r0, sl
    8a1c:	eb0001a4 	bl	90b4 <printk>
    8a20:	e1a0000b 	mov	r0, fp
    8a24:	e28410b8 	add	r1, r4, #184	; 0xb8
    8a28:	eb0001a1 	bl	90b4 <printk>
    8a2c:	e2877001 	add	r7, r7, #1
    8a30:	ea00000b 	b	8a64 <sweep_leak+0xa0>
    8a34:	e1c483b4 	strh	r8, [r4, #52]	; 0x34
    8a38:	e3590000 	cmp	r9, #0
    8a3c:	0a000008 	beq	8a64 <sweep_leak+0xa0>
    8a40:	e5943028 	ldr	r3, [r4, #40]	; 0x28
    8a44:	e3530000 	cmp	r3, #0
    8a48:	1a000005 	bne	8a64 <sweep_leak+0xa0>
    8a4c:	e1a0000a 	mov	r0, sl
    8a50:	eb000197 	bl	90b4 <printk>
    8a54:	e59f0088 	ldr	r0, [pc, #136]	; 8ae4 <sweep_leak+0x120>
    8a58:	e28410b8 	add	r1, r4, #184	; 0xb8
    8a5c:	eb000194 	bl	90b4 <printk>
    8a60:	e2866001 	add	r6, r6, #1
    8a64:	e2855001 	add	r5, r5, #1
    8a68:	e1a00004 	mov	r0, r4
    8a6c:	ebffff7a 	bl	885c <ck_next_hdr>
    8a70:	e1a04000 	mov	r4, r0
    8a74:	e3540000 	cmp	r4, #0
    8a78:	1affffe0 	bne	8a00 <sweep_leak+0x3c>
    8a7c:	e59f0058 	ldr	r0, [pc, #88]	; 8adc <sweep_leak+0x118>
    8a80:	eb00018b 	bl	90b4 <printk>
    8a84:	e59f005c 	ldr	r0, [pc, #92]	; 8ae8 <sweep_leak+0x124>
    8a88:	e1a01005 	mov	r1, r5
    8a8c:	eb000188 	bl	90b4 <printk>
    8a90:	e1973006 	orrs	r3, r7, r6
    8a94:	1a000004 	bne	8aac <sweep_leak+0xe8>
    8a98:	e59f003c 	ldr	r0, [pc, #60]	; 8adc <sweep_leak+0x118>
    8a9c:	eb000184 	bl	90b4 <printk>
    8aa0:	e59f0044 	ldr	r0, [pc, #68]	; 8aec <sweep_leak+0x128>
    8aa4:	eb000182 	bl	90b4 <printk>
    8aa8:	ea000005 	b	8ac4 <sweep_leak+0x100>
    8aac:	e59f0028 	ldr	r0, [pc, #40]	; 8adc <sweep_leak+0x118>
    8ab0:	eb00017f 	bl	90b4 <printk>
    8ab4:	e59f0034 	ldr	r0, [pc, #52]	; 8af0 <sweep_leak+0x12c>
    8ab8:	e1a01007 	mov	r1, r7
    8abc:	e1a02006 	mov	r2, r6
    8ac0:	eb00017b 	bl	90b4 <printk>
    8ac4:	e59f0028 	ldr	r0, [pc, #40]	; 8af4 <sweep_leak+0x130>
    8ac8:	eb000179 	bl	90b4 <printk>
    8acc:	e0870006 	add	r0, r7, r6
    8ad0:	e8bd8ff8 	pop	{r3, r4, r5, r6, r7, r8, r9, sl, fp, pc}
    8ad4:	0000a1f4 	strdeq	sl, [r0], -r4
    8ad8:	0000a230 	andeq	sl, r0, r0, lsr r2
    8adc:	00009d6c 	andeq	r9, r0, ip, ror #26
    8ae0:	0000a248 	andeq	sl, r0, r8, asr #4
    8ae4:	0000a268 	andeq	sl, r0, r8, ror #4
    8ae8:	0000a2a0 	andeq	sl, r0, r0, lsr #5
    8aec:	0000a2b8 			; <UNDEFINED> instruction: 0x0000a2b8
    8af0:	0000a2d8 	ldrdeq	sl, [r0], -r8
    8af4:	0000a304 	andeq	sl, r0, r4, lsl #6

00008af8 <mark>:
    8af8:	e92d4070 	push	{r4, r5, r6, lr}
    8afc:	e1a04000 	mov	r4, r0
    8b00:	e1a05001 	mov	r5, r1
    8b04:	e1500001 	cmp	r0, r1
    8b08:	3a000006 	bcc	8b28 <mark+0x30>
    8b0c:	eb000183 	bl	9120 <rpi_reset_putc>
    8b10:	e59f00c4 	ldr	r0, [pc, #196]	; 8bdc <mark+0xe4>
    8b14:	e59f10c4 	ldr	r1, [pc, #196]	; 8be0 <mark+0xe8>
    8b18:	e59f20c4 	ldr	r2, [pc, #196]	; 8be4 <mark+0xec>
    8b1c:	e3a0305b 	mov	r3, #91	; 0x5b
    8b20:	eb000163 	bl	90b4 <printk>
    8b24:	eb0002d7 	bl	9688 <clean_reboot>
    8b28:	e3100003 	tst	r0, #3
    8b2c:	0a000006 	beq	8b4c <mark+0x54>
    8b30:	eb00017a 	bl	9120 <rpi_reset_putc>
    8b34:	e59f00ac 	ldr	r0, [pc, #172]	; 8be8 <mark+0xf0>
    8b38:	e59f10a0 	ldr	r1, [pc, #160]	; 8be0 <mark+0xe8>
    8b3c:	e59f20a0 	ldr	r2, [pc, #160]	; 8be4 <mark+0xec>
    8b40:	e3a0305d 	mov	r3, #93	; 0x5d
    8b44:	eb00015a 	bl	90b4 <printk>
    8b48:	eb0002ce 	bl	9688 <clean_reboot>
    8b4c:	e3110003 	tst	r1, #3
    8b50:	0a00001d 	beq	8bcc <mark+0xd4>
    8b54:	eb000171 	bl	9120 <rpi_reset_putc>
    8b58:	e59f008c 	ldr	r0, [pc, #140]	; 8bec <mark+0xf4>
    8b5c:	e59f107c 	ldr	r1, [pc, #124]	; 8be0 <mark+0xe8>
    8b60:	e59f207c 	ldr	r2, [pc, #124]	; 8be4 <mark+0xec>
    8b64:	e3a0305e 	mov	r3, #94	; 0x5e
    8b68:	eb000151 	bl	90b4 <printk>
    8b6c:	eb0002c5 	bl	9688 <clean_reboot>
    8b70:	e5940000 	ldr	r0, [r4]
    8b74:	ebffff74 	bl	894c <is_ptr>
    8b78:	e2503000 	subs	r3, r0, #0
    8b7c:	0a000010 	beq	8bc4 <mark+0xcc>
    8b80:	e5940000 	ldr	r0, [r4]
    8b84:	e28320b8 	add	r2, r3, #184	; 0xb8
    8b88:	e1500002 	cmp	r0, r2
    8b8c:	05931028 	ldreq	r1, [r3, #40]	; 0x28
    8b90:	02811001 	addeq	r1, r1, #1
    8b94:	05831028 	streq	r1, [r3, #40]	; 0x28
    8b98:	1593102c 	ldrne	r1, [r3, #44]	; 0x2c
    8b9c:	12811001 	addne	r1, r1, #1
    8ba0:	1583102c 	strne	r1, [r3, #44]	; 0x2c
    8ba4:	e1d303b4 	ldrh	r0, [r3, #52]	; 0x34
    8ba8:	e3500000 	cmp	r0, #0
    8bac:	1a000004 	bne	8bc4 <mark+0xcc>
    8bb0:	e1c363b4 	strh	r6, [r3, #52]	; 0x34
    8bb4:	e5931000 	ldr	r1, [r3]
    8bb8:	e1a00002 	mov	r0, r2
    8bbc:	e0821001 	add	r1, r2, r1
    8bc0:	ebffffcc 	bl	8af8 <mark>
    8bc4:	e2844004 	add	r4, r4, #4
    8bc8:	ea000000 	b	8bd0 <mark+0xd8>
    8bcc:	e3a06001 	mov	r6, #1
    8bd0:	e1540005 	cmp	r4, r5
    8bd4:	1affffe5 	bne	8b70 <mark+0x78>
    8bd8:	e8bd8070 	pop	{r4, r5, r6, pc}
    8bdc:	0000a340 	andeq	sl, r0, r0, asr #6
    8be0:	0000a354 	andeq	sl, r0, r4, asr r3
    8be4:	0000a1a0 	andeq	sl, r0, r0, lsr #3
    8be8:	0000a35c 	andeq	sl, r0, ip, asr r3
    8bec:	0000a37c 	andeq	sl, r0, ip, ror r3

00008bf0 <mark_all>:
    8bf0:	e92d4010 	push	{r4, lr}
    8bf4:	e24dd050 	sub	sp, sp, #80	; 0x50
    8bf8:	ebffff03 	bl	880c <ck_first_hdr>
    8bfc:	e3a04000 	mov	r4, #0
    8c00:	ea000003 	b	8c14 <mark_all+0x24>
    8c04:	e580402c 	str	r4, [r0, #44]	; 0x2c
    8c08:	e5804028 	str	r4, [r0, #40]	; 0x28
    8c0c:	e1c043b4 	strh	r4, [r0, #52]	; 0x34
    8c10:	ebffff11 	bl	885c <ck_next_hdr>
    8c14:	e3500000 	cmp	r0, #0
    8c18:	1afffff9 	bne	8c04 <mark_all+0x14>
    8c1c:	e28d4040 	add	r4, sp, #64	; 0x40
    8c20:	e1a00004 	mov	r0, r4
    8c24:	ebffff32 	bl	88f4 <heap_info>
    8c28:	e59fc094 	ldr	ip, [pc, #148]	; 8cc4 <mark_all+0xd4>
    8c2c:	e894000f 	ldm	r4, {r0, r1, r2, r3}
    8c30:	e88c000f 	stm	ip, {r0, r1, r2, r3}
    8c34:	e1a0400d 	mov	r4, sp
    8c38:	e1a0000d 	mov	r0, sp
    8c3c:	eb0000d6 	bl	8f9c <dump_regs>
    8c40:	e59d3000 	ldr	r3, [sp]
    8c44:	e1530004 	cmp	r3, r4
    8c48:	0a00000b 	beq	8c7c <mark_all+0x8c>
    8c4c:	eb000133 	bl	9120 <rpi_reset_putc>
    8c50:	e59f0070 	ldr	r0, [pc, #112]	; 8cc8 <mark_all+0xd8>
    8c54:	e59f1070 	ldr	r1, [pc, #112]	; 8ccc <mark_all+0xdc>
    8c58:	e59f2070 	ldr	r2, [pc, #112]	; 8cd0 <mark_all+0xe0>
    8c5c:	e3a030df 	mov	r3, #223	; 0xdf
    8c60:	eb000113 	bl	90b4 <printk>
    8c64:	eb000287 	bl	9688 <clean_reboot>
    8c68:	e28d0050 	add	r0, sp, #80	; 0x50
    8c6c:	e0802103 	add	r2, r0, r3, lsl #2
    8c70:	e5021050 	str	r1, [r2, #-80]	; 0x50
    8c74:	e2833001 	add	r3, r3, #1
    8c78:	ea000001 	b	8c84 <mark_all+0x94>
    8c7c:	e3a03000 	mov	r3, #0
    8c80:	e1a01003 	mov	r1, r3
    8c84:	e3530003 	cmp	r3, #3
    8c88:	dafffff6 	ble	8c68 <mark_all+0x78>
    8c8c:	e28d0010 	add	r0, sp, #16
    8c90:	e28d1038 	add	r1, sp, #56	; 0x38
    8c94:	ebffff97 	bl	8af8 <mark>
    8c98:	e59d0034 	ldr	r0, [sp, #52]	; 0x34
    8c9c:	e3a01302 	mov	r1, #134217728	; 0x8000000
    8ca0:	ebffff94 	bl	8af8 <mark>
    8ca4:	e59f0028 	ldr	r0, [pc, #40]	; 8cd4 <mark_all+0xe4>
    8ca8:	e59f1028 	ldr	r1, [pc, #40]	; 8cd8 <mark_all+0xe8>
    8cac:	ebffff91 	bl	8af8 <mark>
    8cb0:	e59f0024 	ldr	r0, [pc, #36]	; 8cdc <mark_all+0xec>
    8cb4:	e59f1024 	ldr	r1, [pc, #36]	; 8ce0 <mark_all+0xf0>
    8cb8:	ebffff8e 	bl	8af8 <mark>
    8cbc:	e28dd050 	add	sp, sp, #80	; 0x50
    8cc0:	e8bd8010 	pop	{r4, pc}
    8cc4:	0000a7a0 	andeq	sl, r0, r0, lsr #15
    8cc8:	0000a39c 	muleq	r0, ip, r3
    8ccc:	0000a354 	andeq	sl, r0, r4, asr r3
    8cd0:	0000a1a8 	andeq	sl, r0, r8, lsr #3
    8cd4:	0000a784 	andeq	sl, r0, r4, lsl #15
    8cd8:	0000abb8 			; <UNDEFINED> instruction: 0x0000abb8
    8cdc:	00009c70 	andeq	r9, r0, r0, ror ip
    8ce0:	00009c80 	andeq	r9, r0, r0, lsl #25

00008ce4 <sweep_free>:
    8ce4:	e92d4ff0 	push	{r4, r5, r6, r7, r8, r9, sl, fp, lr}
    8ce8:	e24dd014 	sub	sp, sp, #20
    8cec:	e59f00e8 	ldr	r0, [pc, #232]	; 8ddc <sweep_free+0xf8>
    8cf0:	eb0000ef 	bl	90b4 <printk>
    8cf4:	e59f00e4 	ldr	r0, [pc, #228]	; 8de0 <sweep_free+0xfc>
    8cf8:	eb0000ed 	bl	90b4 <printk>
    8cfc:	ebfffec2 	bl	880c <ck_first_hdr>
    8d00:	e1a04000 	mov	r4, r0
    8d04:	e3a06000 	mov	r6, #0
    8d08:	e1a08006 	mov	r8, r6
    8d0c:	e1a05006 	mov	r5, r6
    8d10:	e59fb0cc 	ldr	fp, [pc, #204]	; 8de4 <sweep_free+0x100>
    8d14:	e59fa0cc 	ldr	sl, [pc, #204]	; 8de8 <sweep_free+0x104>
    8d18:	e59f90cc 	ldr	r9, [pc, #204]	; 8dec <sweep_free+0x108>
    8d1c:	ea000017 	b	8d80 <sweep_free+0x9c>
    8d20:	e5943008 	ldr	r3, [r4, #8]
    8d24:	e353000b 	cmp	r3, #11
    8d28:	1a000010 	bne	8d70 <sweep_free+0x8c>
    8d2c:	e1d433b4 	ldrh	r3, [r4, #52]	; 0x34
    8d30:	e3530000 	cmp	r3, #0
    8d34:	1a00000d 	bne	8d70 <sweep_free+0x8c>
    8d38:	e1a07004 	mov	r7, r4
    8d3c:	e49730b8 	ldr	r3, [r7], #184	; 0xb8
    8d40:	e0866003 	add	r6, r6, r3
    8d44:	e2888001 	add	r8, r8, #1
    8d48:	e1a0000b 	mov	r0, fp
    8d4c:	eb0000d8 	bl	90b4 <printk>
    8d50:	e1a0000a 	mov	r0, sl
    8d54:	e1a01007 	mov	r1, r7
    8d58:	eb0000d5 	bl	90b4 <printk>
    8d5c:	e1a00007 	mov	r0, r7
    8d60:	e1a01009 	mov	r1, r9
    8d64:	e59f2084 	ldr	r2, [pc, #132]	; 8df0 <sweep_free+0x10c>
    8d68:	e59f3084 	ldr	r3, [pc, #132]	; 8df4 <sweep_free+0x110>
    8d6c:	ebfffd8b 	bl	83a0 <ckfree>
    8d70:	e2855001 	add	r5, r5, #1
    8d74:	e1a00004 	mov	r0, r4
    8d78:	ebfffeb7 	bl	885c <ck_next_hdr>
    8d7c:	e1a04000 	mov	r4, r0
    8d80:	e3540000 	cmp	r4, #0
    8d84:	1affffe5 	bne	8d20 <sweep_free+0x3c>
    8d88:	e59f4054 	ldr	r4, [pc, #84]	; 8de4 <sweep_free+0x100>
    8d8c:	e1a00004 	mov	r0, r4
    8d90:	eb0000c7 	bl	90b4 <printk>
    8d94:	e59f005c 	ldr	r0, [pc, #92]	; 8df8 <sweep_free+0x114>
    8d98:	e1a01005 	mov	r1, r5
    8d9c:	e1a02008 	mov	r2, r8
    8da0:	e1a03006 	mov	r3, r6
    8da4:	eb0000c2 	bl	90b4 <printk>
    8da8:	e1a0000d 	mov	r0, sp
    8dac:	ebfffed0 	bl	88f4 <heap_info>
    8db0:	e1a00004 	mov	r0, r4
    8db4:	eb0000be 	bl	90b4 <printk>
    8db8:	e59f003c 	ldr	r0, [pc, #60]	; 8dfc <sweep_free+0x118>
    8dbc:	e59d100c 	ldr	r1, [sp, #12]
    8dc0:	e59d2008 	ldr	r2, [sp, #8]
    8dc4:	eb0000ba 	bl	90b4 <printk>
    8dc8:	e59f0030 	ldr	r0, [pc, #48]	; 8e00 <sweep_free+0x11c>
    8dcc:	eb0000b8 	bl	90b4 <printk>
    8dd0:	e1a00006 	mov	r0, r6
    8dd4:	e28dd014 	add	sp, sp, #20
    8dd8:	e8bd8ff0 	pop	{r4, r5, r6, r7, r8, r9, sl, fp, pc}
    8ddc:	0000a1f4 	strdeq	sl, [r0], -r4
    8de0:	0000a3cc 	andeq	sl, r0, ip, asr #7
    8de4:	00009d6c 	andeq	r9, r0, ip, ror #26
    8de8:	0000a3dc 	ldrdeq	sl, [r0], -ip
    8dec:	0000a354 	andeq	sl, r0, r4, asr r3
    8df0:	0000a1b4 			; <UNDEFINED> instruction: 0x0000a1b4
    8df4:	0000013a 	andeq	r0, r0, sl, lsr r1
    8df8:	0000a3f0 	strdeq	sl, [r0], -r0
    8dfc:	0000a41c 	andeq	sl, r0, ip, lsl r4
    8e00:	0000a304 	andeq	sl, r0, r4, lsl #6

00008e04 <ck_find_leaks>:
    8e04:	e92d4010 	push	{r4, lr}
    8e08:	e1a04000 	mov	r4, r0
    8e0c:	ebffff77 	bl	8bf0 <mark_all>
    8e10:	e1a00004 	mov	r0, r4
    8e14:	ebfffeea 	bl	89c4 <sweep_leak>
    8e18:	e8bd8010 	pop	{r4, pc}

00008e1c <check_no_leak>:
    8e1c:	e92d4008 	push	{r3, lr}
    8e20:	ebfffe1d 	bl	869c <ck_heap_errors>
    8e24:	e3500000 	cmp	r0, #0
    8e28:	0a000006 	beq	8e48 <check_no_leak+0x2c>
    8e2c:	eb0000bb 	bl	9120 <rpi_reset_putc>
    8e30:	e59f0060 	ldr	r0, [pc, #96]	; 8e98 <check_no_leak+0x7c>
    8e34:	e59f1060 	ldr	r1, [pc, #96]	; 8e9c <check_no_leak+0x80>
    8e38:	e59f2060 	ldr	r2, [pc, #96]	; 8ea0 <check_no_leak+0x84>
    8e3c:	e59f3060 	ldr	r3, [pc, #96]	; 8ea4 <check_no_leak+0x88>
    8e40:	eb00009b 	bl	90b4 <printk>
    8e44:	eb00020f 	bl	9688 <clean_reboot>
    8e48:	e59f0058 	ldr	r0, [pc, #88]	; 8ea8 <check_no_leak+0x8c>
    8e4c:	eb000098 	bl	90b4 <printk>
    8e50:	e59f0054 	ldr	r0, [pc, #84]	; 8eac <check_no_leak+0x90>
    8e54:	eb000096 	bl	90b4 <printk>
    8e58:	e3a00001 	mov	r0, #1
    8e5c:	ebffffe8 	bl	8e04 <ck_find_leaks>
    8e60:	e3500000 	cmp	r0, #0
    8e64:	0a000006 	beq	8e84 <check_no_leak+0x68>
    8e68:	eb0000ac 	bl	9120 <rpi_reset_putc>
    8e6c:	e59f003c 	ldr	r0, [pc, #60]	; 8eb0 <check_no_leak+0x94>
    8e70:	e59f1024 	ldr	r1, [pc, #36]	; 8e9c <check_no_leak+0x80>
    8e74:	e59f2024 	ldr	r2, [pc, #36]	; 8ea0 <check_no_leak+0x84>
    8e78:	e59f3034 	ldr	r3, [pc, #52]	; 8eb4 <check_no_leak+0x98>
    8e7c:	eb00008c 	bl	90b4 <printk>
    8e80:	eb000200 	bl	9688 <clean_reboot>
    8e84:	e59f001c 	ldr	r0, [pc, #28]	; 8ea8 <check_no_leak+0x8c>
    8e88:	eb000089 	bl	90b4 <printk>
    8e8c:	e59f0024 	ldr	r0, [pc, #36]	; 8eb8 <check_no_leak+0x9c>
    8e90:	eb000087 	bl	90b4 <printk>
    8e94:	e8bd8008 	pop	{r3, pc}
    8e98:	0000a450 	andeq	sl, r0, r0, asr r4
    8e9c:	0000a354 	andeq	sl, r0, r4, asr r3
    8ea0:	0000a1c0 	andeq	sl, r0, r0, asr #3
    8ea4:	00000109 	andeq	r0, r0, r9, lsl #2
    8ea8:	00009d6c 	andeq	r9, r0, ip, ror #26
    8eac:	0000a478 	andeq	sl, r0, r8, ror r4
    8eb0:	0000a498 	muleq	r0, r8, r4
    8eb4:	0000010d 	andeq	r0, r0, sp, lsl #2
    8eb8:	0000a4c4 	andeq	sl, r0, r4, asr #9

00008ebc <check_should_leak>:
    8ebc:	e92d4010 	push	{r4, lr}
    8ec0:	ebfffdf5 	bl	869c <ck_heap_errors>
    8ec4:	e3500000 	cmp	r0, #0
    8ec8:	0a000006 	beq	8ee8 <check_should_leak+0x2c>
    8ecc:	eb000093 	bl	9120 <rpi_reset_putc>
    8ed0:	e59f0068 	ldr	r0, [pc, #104]	; 8f40 <check_should_leak+0x84>
    8ed4:	e59f1068 	ldr	r1, [pc, #104]	; 8f44 <check_should_leak+0x88>
    8ed8:	e59f2068 	ldr	r2, [pc, #104]	; 8f48 <check_should_leak+0x8c>
    8edc:	e59f3068 	ldr	r3, [pc, #104]	; 8f4c <check_should_leak+0x90>
    8ee0:	eb000073 	bl	90b4 <printk>
    8ee4:	eb0001e7 	bl	9688 <clean_reboot>
    8ee8:	e59f0060 	ldr	r0, [pc, #96]	; 8f50 <check_should_leak+0x94>
    8eec:	eb000070 	bl	90b4 <printk>
    8ef0:	e59f005c 	ldr	r0, [pc, #92]	; 8f54 <check_should_leak+0x98>
    8ef4:	eb00006e 	bl	90b4 <printk>
    8ef8:	e3a00001 	mov	r0, #1
    8efc:	ebffffc0 	bl	8e04 <ck_find_leaks>
    8f00:	e2504000 	subs	r4, r0, #0
    8f04:	1a000006 	bne	8f24 <check_should_leak+0x68>
    8f08:	eb000084 	bl	9120 <rpi_reset_putc>
    8f0c:	e59f0044 	ldr	r0, [pc, #68]	; 8f58 <check_should_leak+0x9c>
    8f10:	e59f102c 	ldr	r1, [pc, #44]	; 8f44 <check_should_leak+0x88>
    8f14:	e59f202c 	ldr	r2, [pc, #44]	; 8f48 <check_should_leak+0x8c>
    8f18:	e3a03e12 	mov	r3, #288	; 0x120
    8f1c:	eb000064 	bl	90b4 <printk>
    8f20:	eb0001d8 	bl	9688 <clean_reboot>
    8f24:	e59f0024 	ldr	r0, [pc, #36]	; 8f50 <check_should_leak+0x94>
    8f28:	eb000061 	bl	90b4 <printk>
    8f2c:	e59f0028 	ldr	r0, [pc, #40]	; 8f5c <check_should_leak+0xa0>
    8f30:	e1a01004 	mov	r1, r4
    8f34:	eb00005e 	bl	90b4 <printk>
    8f38:	e1a00004 	mov	r0, r4
    8f3c:	e8bd8010 	pop	{r4, pc}
    8f40:	0000a450 	andeq	sl, r0, r0, asr r4
    8f44:	0000a354 	andeq	sl, r0, r4, asr r3
    8f48:	0000a1d0 	ldrdeq	sl, [r0], -r0
    8f4c:	0000011a 	andeq	r0, r0, sl, lsl r1
    8f50:	00009d6c 	andeq	r9, r0, ip, ror #26
    8f54:	0000a478 	andeq	sl, r0, r8, ror r4
    8f58:	0000a4dc 	ldrdeq	sl, [r0], -ip
    8f5c:	0000a504 	andeq	sl, r0, r4, lsl #10

00008f60 <implement_this>:
    8f60:	e92d4008 	push	{r3, lr}
    8f64:	eb00006d 	bl	9120 <rpi_reset_putc>
    8f68:	e59f0010 	ldr	r0, [pc, #16]	; 8f80 <implement_this+0x20>
    8f6c:	e59f1010 	ldr	r1, [pc, #16]	; 8f84 <implement_this+0x24>
    8f70:	e59f2010 	ldr	r2, [pc, #16]	; 8f88 <implement_this+0x28>
    8f74:	e3a03f4a 	mov	r3, #296	; 0x128
    8f78:	eb00004d 	bl	90b4 <printk>
    8f7c:	eb0001c1 	bl	9688 <clean_reboot>
    8f80:	0000a524 	andeq	sl, r0, r4, lsr #10
    8f84:	0000a354 	andeq	sl, r0, r4, asr r3
    8f88:	0000a1e4 	andeq	sl, r0, r4, ror #3

00008f8c <ck_gc>:
    8f8c:	e92d4008 	push	{r3, lr}
    8f90:	ebffff16 	bl	8bf0 <mark_all>
    8f94:	ebffff52 	bl	8ce4 <sweep_free>
    8f98:	e8bd8008 	pop	{r3, pc}

00008f9c <dump_regs>:
    8f9c:	e8807fff 	stm	r0, {r0, r1, r2, r3, r4, r5, r6, r7, r8, r9, sl, fp, ip, sp, lr}
    8fa0:	e12fff1e 	bx	lr

00008fa4 <fast_hash>:
    8fa4:	e52d4004 	push	{r4}		; (str r4, [sp, #-4]!)
    8fa8:	e1a02001 	mov	r2, r1
    8fac:	e1a03000 	mov	r3, r0
    8fb0:	e3500000 	cmp	r0, #0
    8fb4:	13510000 	cmpne	r1, #0
    8fb8:	da000032 	ble	9088 <fast_hash+0xe4>
    8fbc:	e2014003 	and	r4, r1, #3
    8fc0:	e1a01141 	asr	r1, r1, #2
    8fc4:	ea00000b 	b	8ff8 <fast_hash+0x54>
    8fc8:	e5d3c001 	ldrb	ip, [r3, #1]
    8fcc:	e5d30000 	ldrb	r0, [r3]
    8fd0:	e080040c 	add	r0, r0, ip, lsl #8
    8fd4:	e0800002 	add	r0, r0, r2
    8fd8:	e5d3c003 	ldrb	ip, [r3, #3]
    8fdc:	e5d32002 	ldrb	r2, [r3, #2]
    8fe0:	e082240c 	add	r2, r2, ip, lsl #8
    8fe4:	e0202582 	eor	r2, r0, r2, lsl #11
    8fe8:	e0222800 	eor	r2, r2, r0, lsl #16
    8fec:	e2833004 	add	r3, r3, #4
    8ff0:	e08225a2 	add	r2, r2, r2, lsr #11
    8ff4:	e2411001 	sub	r1, r1, #1
    8ff8:	e3510000 	cmp	r1, #0
    8ffc:	cafffff1 	bgt	8fc8 <fast_hash+0x24>
    9000:	e3540002 	cmp	r4, #2
    9004:	0a00000d 	beq	9040 <fast_hash+0x9c>
    9008:	e3540003 	cmp	r4, #3
    900c:	0a000002 	beq	901c <fast_hash+0x78>
    9010:	e3540001 	cmp	r4, #1
    9014:	1a000014 	bne	906c <fast_hash+0xc8>
    9018:	ea00000f 	b	905c <fast_hash+0xb8>
    901c:	e5d30001 	ldrb	r0, [r3, #1]
    9020:	e5d31000 	ldrb	r1, [r3]
    9024:	e0811400 	add	r1, r1, r0, lsl #8
    9028:	e0812002 	add	r2, r1, r2
    902c:	e0222802 	eor	r2, r2, r2, lsl #16
    9030:	e1d330d2 	ldrsb	r3, [r3, #2]
    9034:	e0222903 	eor	r2, r2, r3, lsl #18
    9038:	e08225a2 	add	r2, r2, r2, lsr #11
    903c:	ea00000a 	b	906c <fast_hash+0xc8>
    9040:	e5d31001 	ldrb	r1, [r3, #1]
    9044:	e5d33000 	ldrb	r3, [r3]
    9048:	e0833401 	add	r3, r3, r1, lsl #8
    904c:	e0832002 	add	r2, r3, r2
    9050:	e0222582 	eor	r2, r2, r2, lsl #11
    9054:	e08228a2 	add	r2, r2, r2, lsr #17
    9058:	ea000003 	b	906c <fast_hash+0xc8>
    905c:	e1d330d0 	ldrsb	r3, [r3]
    9060:	e0832002 	add	r2, r3, r2
    9064:	e0222502 	eor	r2, r2, r2, lsl #10
    9068:	e08220a2 	add	r2, r2, r2, lsr #1
    906c:	e0220182 	eor	r0, r2, r2, lsl #3
    9070:	e08002a0 	add	r0, r0, r0, lsr #5
    9074:	e0200200 	eor	r0, r0, r0, lsl #4
    9078:	e08008a0 	add	r0, r0, r0, lsr #17
    907c:	e0200c80 	eor	r0, r0, r0, lsl #25
    9080:	e0800320 	add	r0, r0, r0, lsr #6
    9084:	ea000000 	b	908c <fast_hash+0xe8>
    9088:	e3a00000 	mov	r0, #0
    908c:	e49d4004 	pop	{r4}		; (ldr r4, [sp], #4)
    9090:	e12fff1e 	bx	lr

00009094 <memset>:
    9094:	e0802002 	add	r2, r0, r2
    9098:	e1a03000 	mov	r3, r0
    909c:	ea000001 	b	90a8 <memset+0x14>
    90a0:	e5c31000 	strb	r1, [r3]
    90a4:	e2833001 	add	r3, r3, #1
    90a8:	e1530002 	cmp	r3, r2
    90ac:	3afffffb 	bcc	90a0 <memset+0xc>
    90b0:	e12fff1e 	bx	lr

000090b4 <printk>:
    90b4:	e92d000f 	push	{r0, r1, r2, r3}
    90b8:	e92d4030 	push	{r4, r5, lr}
    90bc:	e24dd00c 	sub	sp, sp, #12
    90c0:	e28d301c 	add	r3, sp, #28
    90c4:	e58d3004 	str	r3, [sp, #4]
    90c8:	e59f4034 	ldr	r4, [pc, #52]	; 9104 <printk+0x50>
    90cc:	e1a00004 	mov	r0, r4
    90d0:	e3a01b01 	mov	r1, #1024	; 0x400
    90d4:	e59d2018 	ldr	r2, [sp, #24]
    90d8:	eb0000c8 	bl	9400 <va_printk>
    90dc:	e1a05000 	mov	r5, r0
    90e0:	e59f3020 	ldr	r3, [pc, #32]	; 9108 <printk+0x54>
    90e4:	e5933000 	ldr	r3, [r3]
    90e8:	e1a00004 	mov	r0, r4
    90ec:	e12fff33 	blx	r3
    90f0:	e1a00005 	mov	r0, r5
    90f4:	e28dd00c 	add	sp, sp, #12
    90f8:	e8bd4030 	pop	{r4, r5, lr}
    90fc:	e28dd010 	add	sp, sp, #16
    9100:	e12fff1e 	bx	lr
    9104:	0000a7b0 			; <UNDEFINED> instruction: 0x0000a7b0
    9108:	00009c74 	andeq	r9, r0, r4, ror ip

0000910c <internal_putchar>:
    910c:	e92d4010 	push	{r4, lr}
    9110:	e1a04000 	mov	r4, r0
    9114:	eb000212 	bl	9964 <uart_putc>
    9118:	e1a00004 	mov	r0, r4
    911c:	e8bd8010 	pop	{r4, pc}

00009120 <rpi_reset_putc>:
    9120:	e59f2008 	ldr	r2, [pc, #8]	; 9130 <rpi_reset_putc+0x10>
    9124:	e59f3008 	ldr	r3, [pc, #8]	; 9134 <rpi_reset_putc+0x14>
    9128:	e5832000 	str	r2, [r3]
    912c:	e12fff1e 	bx	lr
    9130:	0000910c 	andeq	r9, r0, ip, lsl #2
    9134:	00009c70 	andeq	r9, r0, r0, ror ip

00009138 <rpi_set_putc>:
    9138:	e59f3004 	ldr	r3, [pc, #4]	; 9144 <rpi_set_putc+0xc>
    913c:	e5830000 	str	r0, [r3]
    9140:	e12fff1e 	bx	lr
    9144:	00009c70 	andeq	r9, r0, r0, ror ip

00009148 <internal_putk>:
    9148:	e92d4038 	push	{r3, r4, r5, lr}
    914c:	e1a04000 	mov	r4, r0
    9150:	e59f5020 	ldr	r5, [pc, #32]	; 9178 <internal_putk+0x30>
    9154:	ea000002 	b	9164 <internal_putk+0x1c>
    9158:	e5953000 	ldr	r3, [r5]
    915c:	e12fff33 	blx	r3
    9160:	e2844001 	add	r4, r4, #1
    9164:	e5d40000 	ldrb	r0, [r4]
    9168:	e3500000 	cmp	r0, #0
    916c:	1afffff9 	bne	9158 <internal_putk+0x10>
    9170:	e3a00001 	mov	r0, #1
    9174:	e8bd8038 	pop	{r3, r4, r5, pc}
    9178:	00009c70 	andeq	r9, r0, r0, ror ip

0000917c <isdigit>:
    917c:	e2400030 	sub	r0, r0, #48	; 0x30
    9180:	e3500009 	cmp	r0, #9
    9184:	83a00000 	movhi	r0, #0
    9188:	93a00001 	movls	r0, #1
    918c:	e12fff1e 	bx	lr

00009190 <pad>:
    9190:	e0611000 	rsb	r1, r1, r0
    9194:	e3a03020 	mov	r3, #32
    9198:	ea000002 	b	91a8 <pad+0x18>
    919c:	e5c03000 	strb	r3, [r0]
    91a0:	e2811001 	add	r1, r1, #1
    91a4:	e2800001 	add	r0, r0, #1
    91a8:	e1510002 	cmp	r1, r2
    91ac:	bafffffa 	blt	919c <pad+0xc>
    91b0:	e3a03000 	mov	r3, #0
    91b4:	e5c03000 	strb	r3, [r0]
    91b8:	e12fff1e 	bx	lr

000091bc <reverse>:
    91bc:	e063c002 	rsb	ip, r3, r2
    91c0:	e28cc001 	add	ip, ip, #1
    91c4:	e15c0001 	cmp	ip, r1
    91c8:	c061100c 	rsbgt	r1, r1, ip
    91cc:	c0833001 	addgt	r3, r3, r1
    91d0:	e2422001 	sub	r2, r2, #1
    91d4:	e1a01000 	mov	r1, r0
    91d8:	ea000002 	b	91e8 <reverse+0x2c>
    91dc:	e452c001 	ldrb	ip, [r2], #-1
    91e0:	e5c1c000 	strb	ip, [r1]
    91e4:	e2811001 	add	r1, r1, #1
    91e8:	e1520003 	cmp	r2, r3
    91ec:	2afffffa 	bcs	91dc <reverse+0x20>
    91f0:	e3a03000 	mov	r3, #0
    91f4:	e5c13000 	strb	r3, [r1]
    91f8:	e12fff1e 	bx	lr

000091fc <emit>:
    91fc:	e92d41f0 	push	{r4, r5, r6, r7, r8, lr}
    9200:	e24dd040 	sub	sp, sp, #64	; 0x40
    9204:	e1a05001 	mov	r5, r1
    9208:	e1a04002 	mov	r4, r2
    920c:	e59d2058 	ldr	r2, [sp, #88]	; 0x58
    9210:	e1520004 	cmp	r2, r4
    9214:	c2442001 	subgt	r2, r4, #1
    9218:	e1a0c003 	mov	ip, r3
    921c:	e2400002 	sub	r0, r0, #2
    9220:	e350000e 	cmp	r0, #14
    9224:	979ff100 	ldrls	pc, [pc, r0, lsl #2]
    9228:	ea000048 	b	9350 <emit+0x154>
    922c:	00009328 	andeq	r9, r0, r8, lsr #6
    9230:	00009350 	andeq	r9, r0, r0, asr r3
    9234:	00009350 	andeq	r9, r0, r0, asr r3
    9238:	00009350 	andeq	r9, r0, r0, asr r3
    923c:	00009350 	andeq	r9, r0, r0, asr r3
    9240:	00009350 	andeq	r9, r0, r0, asr r3
    9244:	0000931c 	andeq	r9, r0, ip, lsl r3
    9248:	00009350 	andeq	r9, r0, r0, asr r3
    924c:	00009268 	andeq	r9, r0, r8, ror #4
    9250:	00009350 	andeq	r9, r0, r0, asr r3
    9254:	00009350 	andeq	r9, r0, r0, asr r3
    9258:	00009350 	andeq	r9, r0, r0, asr r3
    925c:	00009350 	andeq	r9, r0, r0, asr r3
    9260:	00009350 	andeq	r9, r0, r0, asr r3
    9264:	000092dc 	ldrdeq	r9, [r0], -ip
    9268:	e59d105c 	ldr	r1, [sp, #92]	; 0x5c
    926c:	e2911000 	adds	r1, r1, #0
    9270:	13a01001 	movne	r1, #1
    9274:	e0111fa3 	ands	r1, r1, r3, lsr #31
    9278:	1263c000 	rsbne	ip, r3, #0
    927c:	13a08001 	movne	r8, #1
    9280:	03a08000 	moveq	r8, #0
    9284:	e1a0100d 	mov	r1, sp
    9288:	e59f7100 	ldr	r7, [pc, #256]	; 9390 <emit+0x194>
    928c:	e59f6100 	ldr	r6, [pc, #256]	; 9394 <emit+0x198>
    9290:	ea000000 	b	9298 <emit+0x9c>
    9294:	e1a01000 	mov	r1, r0
    9298:	e2810001 	add	r0, r1, #1
    929c:	e083ec97 	umull	lr, r3, r7, ip
    92a0:	e1a031a3 	lsr	r3, r3, #3
    92a4:	e1a0e003 	mov	lr, r3
    92a8:	e0833103 	add	r3, r3, r3, lsl #2
    92ac:	e1a03083 	lsl	r3, r3, #1
    92b0:	e063300c 	rsb	r3, r3, ip
    92b4:	e7d63003 	ldrb	r3, [r6, r3]
    92b8:	e5c13000 	strb	r3, [r1]
    92bc:	e1a0c00e 	mov	ip, lr
    92c0:	e35e0000 	cmp	lr, #0
    92c4:	1afffff2 	bne	9294 <emit+0x98>
    92c8:	e3580000 	cmp	r8, #0
    92cc:	12810002 	addne	r0, r1, #2
    92d0:	13a0302d 	movne	r3, #45	; 0x2d
    92d4:	15c13001 	strbne	r3, [r1, #1]
    92d8:	ea000023 	b	936c <emit+0x170>
    92dc:	e1a0300d 	mov	r3, sp
    92e0:	e59fe0b0 	ldr	lr, [pc, #176]	; 9398 <emit+0x19c>
    92e4:	ea000000 	b	92ec <emit+0xf0>
    92e8:	e1a03000 	mov	r3, r0
    92ec:	e2830001 	add	r0, r3, #1
    92f0:	e20c100f 	and	r1, ip, #15
    92f4:	e7de1001 	ldrb	r1, [lr, r1]
    92f8:	e5c31000 	strb	r1, [r3]
    92fc:	e1b0c22c 	lsrs	ip, ip, #4
    9300:	1afffff8 	bne	92e8 <emit+0xec>
    9304:	e3a01078 	mov	r1, #120	; 0x78
    9308:	e5c31001 	strb	r1, [r3, #1]
    930c:	e2830003 	add	r0, r3, #3
    9310:	e3a01030 	mov	r1, #48	; 0x30
    9314:	e5c31002 	strb	r1, [r3, #2]
    9318:	ea000013 	b	936c <emit+0x170>
    931c:	e5cd3000 	strb	r3, [sp]
    9320:	e28d0001 	add	r0, sp, #1
    9324:	ea000010 	b	936c <emit+0x170>
    9328:	e1a0300d 	mov	r3, sp
    932c:	e59fe068 	ldr	lr, [pc, #104]	; 939c <emit+0x1a0>
    9330:	e2830001 	add	r0, r3, #1
    9334:	e20c1001 	and	r1, ip, #1
    9338:	e7de1001 	ldrb	r1, [lr, r1]
    933c:	e5c31000 	strb	r1, [r3]
    9340:	e1a03000 	mov	r3, r0
    9344:	e1b0c0ac 	lsrs	ip, ip, #1
    9348:	1afffff8 	bne	9330 <emit+0x134>
    934c:	ea000006 	b	936c <emit+0x170>
    9350:	ebffff72 	bl	9120 <rpi_reset_putc>
    9354:	e59f0044 	ldr	r0, [pc, #68]	; 93a0 <emit+0x1a4>
    9358:	e59f1044 	ldr	r1, [pc, #68]	; 93a4 <emit+0x1a8>
    935c:	e59f2044 	ldr	r2, [pc, #68]	; 93a8 <emit+0x1ac>
    9360:	e3a03077 	mov	r3, #119	; 0x77
    9364:	ebffff52 	bl	90b4 <printk>
    9368:	eb0000c6 	bl	9688 <clean_reboot>
    936c:	e1a0100d 	mov	r1, sp
    9370:	ebffff86 	bl	9190 <pad>
    9374:	e1a02000 	mov	r2, r0
    9378:	e1a00005 	mov	r0, r5
    937c:	e1a01004 	mov	r1, r4
    9380:	e1a0300d 	mov	r3, sp
    9384:	ebffff8c 	bl	91bc <reverse>
    9388:	e28dd040 	add	sp, sp, #64	; 0x40
    938c:	e8bd81f0 	pop	{r4, r5, r6, r7, r8, pc}
    9390:	cccccccd 	stclgt	12, cr12, [ip], {205}	; 0xcd
    9394:	0000a5a0 	andeq	sl, r0, r0, lsr #11
    9398:	0000a5ac 	andeq	sl, r0, ip, lsr #11
    939c:	0000a5c0 	andeq	sl, r0, r0, asr #11
    93a0:	0000a578 	andeq	sl, r0, r8, ror r5
    93a4:	0000a58c 	andeq	sl, r0, ip, lsl #11
    93a8:	0000a554 	andeq	sl, r0, r4, asr r5

000093ac <rpi_set_output>:
    93ac:	e92d4008 	push	{r3, lr}
    93b0:	e3500000 	cmp	r0, #0
    93b4:	1a000006 	bne	93d4 <rpi_set_output+0x28>
    93b8:	ebffff58 	bl	9120 <rpi_reset_putc>
    93bc:	e59f0028 	ldr	r0, [pc, #40]	; 93ec <rpi_set_output+0x40>
    93c0:	e59f1028 	ldr	r1, [pc, #40]	; 93f0 <rpi_set_output+0x44>
    93c4:	e59f2028 	ldr	r2, [pc, #40]	; 93f4 <rpi_set_output+0x48>
    93c8:	e3a03020 	mov	r3, #32
    93cc:	ebffff38 	bl	90b4 <printk>
    93d0:	eb0000ac 	bl	9688 <clean_reboot>
    93d4:	e59f301c 	ldr	r3, [pc, #28]	; 93f8 <rpi_set_output+0x4c>
    93d8:	e5830000 	str	r0, [r3]
    93dc:	e3510000 	cmp	r1, #0
    93e0:	159f3014 	ldrne	r3, [pc, #20]	; 93fc <rpi_set_output+0x50>
    93e4:	15831000 	strne	r1, [r3]
    93e8:	e8bd8008 	pop	{r3, pc}
    93ec:	0000a5c4 	andeq	sl, r0, r4, asr #11
    93f0:	0000a58c 	andeq	sl, r0, ip, lsl #11
    93f4:	0000a55c 	andeq	sl, r0, ip, asr r5
    93f8:	00009c70 	andeq	r9, r0, r0, ror ip
    93fc:	00009c74 	andeq	r9, r0, r4, ror ip

00009400 <va_printk>:
    9400:	e92d4ff0 	push	{r4, r5, r6, r7, r8, r9, sl, fp, lr}
    9404:	e24dd08c 	sub	sp, sp, #140	; 0x8c
    9408:	e1a0a000 	mov	sl, r0
    940c:	e1a09003 	mov	r9, r3
    9410:	e2411001 	sub	r1, r1, #1
    9414:	e0808001 	add	r8, r0, r1
    9418:	e3a03000 	mov	r3, #0
    941c:	e5c03000 	strb	r3, [r0]
    9420:	e1a04000 	mov	r4, r0
    9424:	e1a0b003 	mov	fp, r3
    9428:	ea000086 	b	9648 <va_printk+0x248>
    942c:	e3530025 	cmp	r3, #37	; 0x25
    9430:	12822001 	addne	r2, r2, #1
    9434:	15c43000 	strbne	r3, [r4]
    9438:	12844001 	addne	r4, r4, #1
    943c:	1a000081 	bne	9648 <va_printk+0x248>
    9440:	e5d21001 	ldrb	r1, [r2, #1]
    9444:	e3510025 	cmp	r1, #37	; 0x25
    9448:	05c43000 	strbeq	r3, [r4]
    944c:	02822002 	addeq	r2, r2, #2
    9450:	02844001 	addeq	r4, r4, #1
    9454:	0a00007b 	beq	9648 <va_printk+0x248>
    9458:	e2826001 	add	r6, r2, #1
    945c:	e1a0700b 	mov	r7, fp
    9460:	ea000004 	b	9478 <va_printk+0x78>
    9464:	e0877107 	add	r7, r7, r7, lsl #2
    9468:	e1a07087 	lsl	r7, r7, #1
    946c:	e0877005 	add	r7, r7, r5
    9470:	e2477030 	sub	r7, r7, #48	; 0x30
    9474:	e2866001 	add	r6, r6, #1
    9478:	e5d65000 	ldrb	r5, [r6]
    947c:	e1a00005 	mov	r0, r5
    9480:	ebffff3d 	bl	917c <isdigit>
    9484:	e3500000 	cmp	r0, #0
    9488:	1afffff5 	bne	9464 <va_printk+0x64>
    948c:	e357001f 	cmp	r7, #31
    9490:	9a000006 	bls	94b0 <va_printk+0xb0>
    9494:	ebffff21 	bl	9120 <rpi_reset_putc>
    9498:	e59f01d4 	ldr	r0, [pc, #468]	; 9674 <va_printk+0x274>
    949c:	e59f11d4 	ldr	r1, [pc, #468]	; 9678 <va_printk+0x278>
    94a0:	e59f21d4 	ldr	r2, [pc, #468]	; 967c <va_printk+0x27c>
    94a4:	e3a03094 	mov	r3, #148	; 0x94
    94a8:	ebffff01 	bl	90b4 <printk>
    94ac:	eb000075 	bl	9688 <clean_reboot>
    94b0:	e2455062 	sub	r5, r5, #98	; 0x62
    94b4:	e3550016 	cmp	r5, #22
    94b8:	979ff105 	ldrls	pc, [pc, r5, lsl #2]
    94bc:	ea00004e 	b	95fc <va_printk+0x1fc>
    94c0:	000095a8 	andeq	r9, r0, r8, lsr #11
    94c4:	000095d8 	ldrdeq	r9, [r0], -r8
    94c8:	00009538 	andeq	r9, r0, r8, lsr r5
    94cc:	000095fc 	strdeq	r9, [r0], -ip
    94d0:	0000951c 	andeq	r9, r0, ip, lsl r5
    94d4:	000095fc 	strdeq	r9, [r0], -ip
    94d8:	000095fc 	strdeq	r9, [r0], -ip
    94dc:	000095fc 	strdeq	r9, [r0], -ip
    94e0:	000095fc 	strdeq	r9, [r0], -ip
    94e4:	000095fc 	strdeq	r9, [r0], -ip
    94e8:	000095fc 	strdeq	r9, [r0], -ip
    94ec:	000095fc 	strdeq	r9, [r0], -ip
    94f0:	000095fc 	strdeq	r9, [r0], -ip
    94f4:	000095fc 	strdeq	r9, [r0], -ip
    94f8:	00009584 	andeq	r9, r0, r4, lsl #11
    94fc:	000095fc 	strdeq	r9, [r0], -ip
    9500:	000095fc 	strdeq	r9, [r0], -ip
    9504:	000095cc 	andeq	r9, r0, ip, asr #11
    9508:	000095fc 	strdeq	r9, [r0], -ip
    950c:	00009560 	andeq	r9, r0, r0, ror #10
    9510:	000095fc 	strdeq	r9, [r0], -ip
    9514:	000095fc 	strdeq	r9, [r0], -ip
    9518:	00009584 	andeq	r9, r0, r4, lsl #11
    951c:	ebfffeff 	bl	9120 <rpi_reset_putc>
    9520:	e59f0158 	ldr	r0, [pc, #344]	; 9680 <va_printk+0x280>
    9524:	e59f114c 	ldr	r1, [pc, #332]	; 9678 <va_printk+0x278>
    9528:	e59f214c 	ldr	r2, [pc, #332]	; 967c <va_printk+0x27c>
    952c:	e3a0309a 	mov	r3, #154	; 0x9a
    9530:	ebfffedf 	bl	90b4 <printk>
    9534:	eb000053 	bl	9688 <clean_reboot>
    9538:	e5993000 	ldr	r3, [r9]
    953c:	e2899004 	add	r9, r9, #4
    9540:	e58d7000 	str	r7, [sp]
    9544:	e3a02001 	mov	r2, #1
    9548:	e58d2004 	str	r2, [sp, #4]
    954c:	e3a0000a 	mov	r0, #10
    9550:	e28d1008 	add	r1, sp, #8
    9554:	e3a02080 	mov	r2, #128	; 0x80
    9558:	ebffff27 	bl	91fc <emit>
    955c:	ea00002f 	b	9620 <va_printk+0x220>
    9560:	e5993000 	ldr	r3, [r9]
    9564:	e2899004 	add	r9, r9, #4
    9568:	e58d7000 	str	r7, [sp]
    956c:	e58db004 	str	fp, [sp, #4]
    9570:	e3a0000a 	mov	r0, #10
    9574:	e28d1008 	add	r1, sp, #8
    9578:	e3a02080 	mov	r2, #128	; 0x80
    957c:	ebffff1e 	bl	91fc <emit>
    9580:	ea000026 	b	9620 <va_printk+0x220>
    9584:	e5993000 	ldr	r3, [r9]
    9588:	e2899004 	add	r9, r9, #4
    958c:	e58d7000 	str	r7, [sp]
    9590:	e58db004 	str	fp, [sp, #4]
    9594:	e3a00010 	mov	r0, #16
    9598:	e28d1008 	add	r1, sp, #8
    959c:	e3a02080 	mov	r2, #128	; 0x80
    95a0:	ebffff15 	bl	91fc <emit>
    95a4:	ea00001d 	b	9620 <va_printk+0x220>
    95a8:	e5993000 	ldr	r3, [r9]
    95ac:	e2899004 	add	r9, r9, #4
    95b0:	e58d7000 	str	r7, [sp]
    95b4:	e58db004 	str	fp, [sp, #4]
    95b8:	e3a00002 	mov	r0, #2
    95bc:	e28d1008 	add	r1, sp, #8
    95c0:	e3a02080 	mov	r2, #128	; 0x80
    95c4:	ebffff0c 	bl	91fc <emit>
    95c8:	ea000014 	b	9620 <va_printk+0x220>
    95cc:	e5990000 	ldr	r0, [r9]
    95d0:	e2899004 	add	r9, r9, #4
    95d4:	ea000011 	b	9620 <va_printk+0x220>
    95d8:	e5993000 	ldr	r3, [r9]
    95dc:	e2899004 	add	r9, r9, #4
    95e0:	e58d7000 	str	r7, [sp]
    95e4:	e58db004 	str	fp, [sp, #4]
    95e8:	e3a00008 	mov	r0, #8
    95ec:	e08d1000 	add	r1, sp, r0
    95f0:	e3a02080 	mov	r2, #128	; 0x80
    95f4:	ebffff00 	bl	91fc <emit>
    95f8:	ea000008 	b	9620 <va_printk+0x220>
    95fc:	ebfffec7 	bl	9120 <rpi_reset_putc>
    9600:	e5d63000 	ldrb	r3, [r6]
    9604:	e58d3000 	str	r3, [sp]
    9608:	e59f0074 	ldr	r0, [pc, #116]	; 9684 <va_printk+0x284>
    960c:	e59f1064 	ldr	r1, [pc, #100]	; 9678 <va_printk+0x278>
    9610:	e59f2064 	ldr	r2, [pc, #100]	; 967c <va_printk+0x27c>
    9614:	e3a030bb 	mov	r3, #187	; 0xbb
    9618:	ebfffea5 	bl	90b4 <printk>
    961c:	eb000019 	bl	9688 <clean_reboot>
    9620:	e2862001 	add	r2, r6, #1
    9624:	ea000002 	b	9634 <va_printk+0x234>
    9628:	e2800001 	add	r0, r0, #1
    962c:	e5c43000 	strb	r3, [r4]
    9630:	e2844001 	add	r4, r4, #1
    9634:	e1540008 	cmp	r4, r8
    9638:	2a000002 	bcs	9648 <va_printk+0x248>
    963c:	e5d03000 	ldrb	r3, [r0]
    9640:	e3530000 	cmp	r3, #0
    9644:	1afffff7 	bne	9628 <va_printk+0x228>
    9648:	e5d23000 	ldrb	r3, [r2]
    964c:	e3530000 	cmp	r3, #0
    9650:	0a000001 	beq	965c <va_printk+0x25c>
    9654:	e1540008 	cmp	r4, r8
    9658:	3affff73 	bcc	942c <va_printk+0x2c>
    965c:	e2840001 	add	r0, r4, #1
    9660:	e3a03000 	mov	r3, #0
    9664:	e5c43000 	strb	r3, [r4]
    9668:	e06a0000 	rsb	r0, sl, r0
    966c:	e28dd08c 	add	sp, sp, #140	; 0x8c
    9670:	e8bd8ff0 	pop	{r4, r5, r6, r7, r8, r9, sl, fp, pc}
    9674:	0000a5dc 	ldrdeq	sl, [r0], -ip
    9678:	0000a58c 	andeq	sl, r0, ip, lsl #11
    967c:	0000a56c 	andeq	sl, r0, ip, ror #10
    9680:	0000a5f8 	strdeq	sl, [r0], -r8
    9684:	0000a620 	andeq	sl, r0, r0, lsr #12

00009688 <clean_reboot>:
    9688:	e92d4008 	push	{r3, lr}
    968c:	e59f3014 	ldr	r3, [pc, #20]	; 96a8 <clean_reboot+0x20>
    9690:	e5933000 	ldr	r3, [r3]
    9694:	e59f0010 	ldr	r0, [pc, #16]	; 96ac <clean_reboot+0x24>
    9698:	e12fff33 	blx	r3
    969c:	e3a00064 	mov	r0, #100	; 0x64
    96a0:	eb000044 	bl	97b8 <delay_ms>
    96a4:	eb000019 	bl	9710 <rpi_reboot>
    96a8:	00009c74 	andeq	r9, r0, r4, ror ip
    96ac:	0000a658 	andeq	sl, r0, r8, asr r6

000096b0 <_cstart>:
    96b0:	e92d4008 	push	{r3, lr}
    96b4:	e59f3020 	ldr	r3, [pc, #32]	; 96dc <_cstart+0x2c>
    96b8:	e59f2020 	ldr	r2, [pc, #32]	; 96e0 <_cstart+0x30>
    96bc:	e3a01000 	mov	r1, #0
    96c0:	ea000001 	b	96cc <_cstart+0x1c>
    96c4:	e5831000 	str	r1, [r3]
    96c8:	e2833004 	add	r3, r3, #4
    96cc:	e1530002 	cmp	r3, r2
    96d0:	3afffffb 	bcc	96c4 <_cstart+0x14>
    96d4:	ebfffa6e 	bl	8094 <notmain>
    96d8:	ebffffea 	bl	9688 <clean_reboot>
    96dc:	0000a784 	andeq	sl, r0, r4, lsl #15
    96e0:	0000abb8 			; <UNDEFINED> instruction: 0x0000abb8

000096e4 <at_user_level>:
    96e4:	e10f0000 	mrs	r0, CPSR
    96e8:	e200001f 	and	r0, r0, #31
    96ec:	e3500010 	cmp	r0, #16
    96f0:	13a00000 	movne	r0, #0
    96f4:	03a00001 	moveq	r0, #1
    96f8:	e12fff1e 	bx	lr

000096fc <set_user_level>:
    96fc:	e10f3000 	mrs	r3, CPSR
    9700:	e3c3301f 	bic	r3, r3, #31
    9704:	e3833010 	orr	r3, r3, #16
    9708:	e129f003 	msr	CPSR_fc, r3
    970c:	e12fff1e 	bx	lr

00009710 <rpi_reboot>:
    9710:	e92d4008 	push	{r3, lr}
    9714:	ebfffff2 	bl	96e4 <at_user_level>
    9718:	e3500000 	cmp	r0, #0
    971c:	0a000000 	beq	9724 <rpi_reboot+0x14>
    9720:	ebfffff5 	bl	96fc <set_user_level>
    9724:	e3a0001e 	mov	r0, #30
    9728:	eb000022 	bl	97b8 <delay_ms>
    972c:	e59f0014 	ldr	r0, [pc, #20]	; 9748 <rpi_reboot+0x38>
    9730:	e59f1014 	ldr	r1, [pc, #20]	; 974c <rpi_reboot+0x3c>
    9734:	eb00002b 	bl	97e8 <PUT32>
    9738:	e59f0010 	ldr	r0, [pc, #16]	; 9750 <rpi_reboot+0x40>
    973c:	e59f1010 	ldr	r1, [pc, #16]	; 9754 <rpi_reboot+0x44>
    9740:	eb000028 	bl	97e8 <PUT32>
    9744:	eafffffe 	b	9744 <rpi_reboot+0x34>
    9748:	20100024 	andscs	r0, r0, r4, lsr #32
    974c:	5a000001 	bpl	9758 <delay_cycles>
    9750:	2010001c 	andscs	r0, r0, ip, lsl r0
    9754:	5a000020 	bpl	97dc <delay_sec+0x10>

00009758 <delay_cycles>:
    9758:	ea000001 	b	9764 <delay_cycles+0xc>
    975c:	e2811000 	add	r1, r1, #0
    9760:	e1a00003 	mov	r0, r3
    9764:	e2403001 	sub	r3, r0, #1
    9768:	e3500000 	cmp	r0, #0
    976c:	1afffffa 	bne	975c <delay_cycles+0x4>
    9770:	e12fff1e 	bx	lr

00009774 <timer_get_usec_raw>:
    9774:	e92d4008 	push	{r3, lr}
    9778:	e59f0004 	ldr	r0, [pc, #4]	; 9784 <timer_get_usec_raw+0x10>
    977c:	eb000025 	bl	9818 <GET32>
    9780:	e8bd8008 	pop	{r3, pc}
    9784:	20003004 	andcs	r3, r0, r4

00009788 <timer_get_usec>:
    9788:	e92d4008 	push	{r3, lr}
    978c:	ebfffff8 	bl	9774 <timer_get_usec_raw>
    9790:	e8bd8008 	pop	{r3, pc}

00009794 <delay_us>:
    9794:	e92d4038 	push	{r3, r4, r5, lr}
    9798:	e1a05000 	mov	r5, r0
    979c:	ebfffff9 	bl	9788 <timer_get_usec>
    97a0:	e1a04000 	mov	r4, r0
    97a4:	ebfffff7 	bl	9788 <timer_get_usec>
    97a8:	e0640000 	rsb	r0, r4, r0
    97ac:	e1500005 	cmp	r0, r5
    97b0:	3afffffb 	bcc	97a4 <delay_us+0x10>
    97b4:	e8bd8038 	pop	{r3, r4, r5, pc}

000097b8 <delay_ms>:
    97b8:	e92d4008 	push	{r3, lr}
    97bc:	e3a03ffa 	mov	r3, #1000	; 0x3e8
    97c0:	e0000093 	mul	r0, r3, r0
    97c4:	ebfffff2 	bl	9794 <delay_us>
    97c8:	e8bd8008 	pop	{r3, pc}

000097cc <delay_sec>:
    97cc:	e92d4008 	push	{r3, lr}
    97d0:	e3a03ffa 	mov	r3, #1000	; 0x3e8
    97d4:	e0000093 	mul	r0, r3, r0
    97d8:	ebfffff6 	bl	97b8 <delay_ms>
    97dc:	e8bd8008 	pop	{r3, pc}

000097e0 <put32>:
    97e0:	e5801000 	str	r1, [r0]
    97e4:	e12fff1e 	bx	lr

000097e8 <PUT32>:
    97e8:	e5801000 	str	r1, [r0]
    97ec:	e12fff1e 	bx	lr

000097f0 <put16>:
    97f0:	e1c010b0 	strh	r1, [r0]
    97f4:	e12fff1e 	bx	lr

000097f8 <PUT16>:
    97f8:	e1c010b0 	strh	r1, [r0]
    97fc:	e12fff1e 	bx	lr

00009800 <put8>:
    9800:	e5c01000 	strb	r1, [r0]
    9804:	e12fff1e 	bx	lr

00009808 <PUT8>:
    9808:	e5c01000 	strb	r1, [r0]
    980c:	e12fff1e 	bx	lr

00009810 <get32>:
    9810:	e5900000 	ldr	r0, [r0]
    9814:	e12fff1e 	bx	lr

00009818 <GET32>:
    9818:	e5900000 	ldr	r0, [r0]
    981c:	e12fff1e 	bx	lr

00009820 <GETPC>:
    9820:	e1a0000e 	mov	r0, lr
    9824:	e12fff1e 	bx	lr

00009828 <dummy>:
    9828:	e12fff1e 	bx	lr

0000982c <or_in32>:
    982c:	e92d4070 	push	{r4, r5, r6, lr}
    9830:	e1a04000 	mov	r4, r0
    9834:	e1a05001 	mov	r5, r1
    9838:	ebfffff4 	bl	9810 <get32>
    983c:	e1801005 	orr	r1, r0, r5
    9840:	e1a00004 	mov	r0, r4
    9844:	ebffffe5 	bl	97e0 <put32>
    9848:	e8bd8070 	pop	{r4, r5, r6, pc}

0000984c <uart_init>:
    984c:	e92d4010 	push	{r4, lr}
    9850:	e3a01002 	mov	r1, #2
    9854:	e3a0000e 	mov	r0, #14
    9858:	eb000051 	bl	99a4 <gpio_set_function>
    985c:	e3a01002 	mov	r1, #2
    9860:	e3a0000f 	mov	r0, #15
    9864:	eb00004e 	bl	99a4 <gpio_set_function>
    9868:	eb0000fa 	bl	9c58 <dev_barrier>
    986c:	e3a01001 	mov	r1, #1
    9870:	e59f0064 	ldr	r0, [pc, #100]	; 98dc <uart_init+0x90>
    9874:	ebffffec 	bl	982c <or_in32>
    9878:	eb0000f6 	bl	9c58 <dev_barrier>
    987c:	e59f405c 	ldr	r4, [pc, #92]	; 98e0 <uart_init+0x94>
    9880:	e3a01000 	mov	r1, #0
    9884:	e1a00004 	mov	r0, r4
    9888:	ebffffd4 	bl	97e0 <put32>
    988c:	e3a01000 	mov	r1, #0
    9890:	e59f004c 	ldr	r0, [pc, #76]	; 98e4 <uart_init+0x98>
    9894:	ebffffd1 	bl	97e0 <put32>
    9898:	e3a01003 	mov	r1, #3
    989c:	e59f0044 	ldr	r0, [pc, #68]	; 98e8 <uart_init+0x9c>
    98a0:	ebffffce 	bl	97e0 <put32>
    98a4:	e3a01000 	mov	r1, #0
    98a8:	e59f003c 	ldr	r0, [pc, #60]	; 98ec <uart_init+0xa0>
    98ac:	ebffffcb 	bl	97e0 <put32>
    98b0:	e3a010c7 	mov	r1, #199	; 0xc7
    98b4:	e59f0034 	ldr	r0, [pc, #52]	; 98f0 <uart_init+0xa4>
    98b8:	ebffffc8 	bl	97e0 <put32>
    98bc:	e59f1030 	ldr	r1, [pc, #48]	; 98f4 <uart_init+0xa8>
    98c0:	e59f0030 	ldr	r0, [pc, #48]	; 98f8 <uart_init+0xac>
    98c4:	ebffffc5 	bl	97e0 <put32>
    98c8:	e3a01003 	mov	r1, #3
    98cc:	e1a00004 	mov	r0, r4
    98d0:	ebffffc2 	bl	97e0 <put32>
    98d4:	eb0000df 	bl	9c58 <dev_barrier>
    98d8:	e8bd8010 	pop	{r4, pc}
    98dc:	20215004 	eorcs	r5, r1, r4
    98e0:	20215060 	eorcs	r5, r1, r0, rrx
    98e4:	20215044 	eorcs	r5, r1, r4, asr #32
    98e8:	2021504c 	eorcs	r5, r1, ip, asr #32
    98ec:	20215050 	eorcs	r5, r1, r0, asr r0
    98f0:	20215048 	eorcs	r5, r1, r8, asr #32
    98f4:	0000010e 	andeq	r0, r0, lr, lsl #2
    98f8:	20215068 	eorcs	r5, r1, r8, rrx

000098fc <uart_can_getc>:
    98fc:	e92d4010 	push	{r4, lr}
    9900:	e59f0008 	ldr	r0, [pc, #8]	; 9910 <uart_can_getc+0x14>
    9904:	ebffffc1 	bl	9810 <get32>
    9908:	e2000001 	and	r0, r0, #1
    990c:	e8bd8010 	pop	{r4, pc}
    9910:	20215064 	eorcs	r5, r1, r4, rrx

00009914 <uart_can_putc>:
    9914:	e92d4010 	push	{r4, lr}
    9918:	e59f0010 	ldr	r0, [pc, #16]	; 9930 <uart_can_putc+0x1c>
    991c:	ebffffbb 	bl	9810 <get32>
    9920:	e3100002 	tst	r0, #2
    9924:	13a00001 	movne	r0, #1
    9928:	03a00000 	moveq	r0, #0
    992c:	e8bd8010 	pop	{r4, pc}
    9930:	20215064 	eorcs	r5, r1, r4, rrx

00009934 <uart_getc>:
    9934:	e92d4010 	push	{r4, lr}
    9938:	eb0000c6 	bl	9c58 <dev_barrier>
    993c:	ebffffee 	bl	98fc <uart_can_getc>
    9940:	e3500000 	cmp	r0, #0
    9944:	0afffffc 	beq	993c <uart_getc+0x8>
    9948:	e59f0010 	ldr	r0, [pc, #16]	; 9960 <uart_getc+0x2c>
    994c:	ebffffaf 	bl	9810 <get32>
    9950:	e6ef4070 	uxtb	r4, r0
    9954:	eb0000bf 	bl	9c58 <dev_barrier>
    9958:	e1a00004 	mov	r0, r4
    995c:	e8bd8010 	pop	{r4, pc}
    9960:	20215040 	eorcs	r5, r1, r0, asr #32

00009964 <uart_putc>:
    9964:	e92d4010 	push	{r4, lr}
    9968:	e1a04000 	mov	r4, r0
    996c:	eb0000b9 	bl	9c58 <dev_barrier>
    9970:	ebffffe7 	bl	9914 <uart_can_putc>
    9974:	e3500000 	cmp	r0, #0
    9978:	0afffffc 	beq	9970 <uart_putc+0xc>
    997c:	e6ef1074 	uxtb	r1, r4
    9980:	e59f0008 	ldr	r0, [pc, #8]	; 9990 <uart_putc+0x2c>
    9984:	ebffff95 	bl	97e0 <put32>
    9988:	eb0000b2 	bl	9c58 <dev_barrier>
    998c:	e8bd8010 	pop	{r4, pc}
    9990:	20215040 	eorcs	r5, r1, r0, asr #32

00009994 <uart_has_data>:
    9994:	e92d4010 	push	{r4, lr}
    9998:	eb0000ae 	bl	9c58 <dev_barrier>
    999c:	ebffffd6 	bl	98fc <uart_can_getc>
    99a0:	e8bd8010 	pop	{r4, pc}

000099a4 <gpio_set_function>:
    99a4:	e350001f 	cmp	r0, #31
    99a8:	812fff1e 	bxhi	lr
    99ac:	e3d13007 	bics	r3, r1, #7
    99b0:	112fff1e 	bxne	lr
    99b4:	e92d4070 	push	{r4, r5, r6, lr}
    99b8:	e1a05001 	mov	r5, r1
    99bc:	e59f3044 	ldr	r3, [pc, #68]	; 9a08 <gpio_set_function+0x64>
    99c0:	e0832093 	umull	r2, r3, r3, r0
    99c4:	e1a031a3 	lsr	r3, r3, #3
    99c8:	e1a06003 	mov	r6, r3
    99cc:	e0833103 	add	r3, r3, r3, lsl #2
    99d0:	e1a02083 	lsl	r2, r3, #1
    99d4:	e0403002 	sub	r3, r0, r2
    99d8:	e0834083 	add	r4, r3, r3, lsl #1
    99dc:	e2866302 	add	r6, r6, #134217728	; 0x8000000
    99e0:	e2866702 	add	r6, r6, #524288	; 0x80000
    99e4:	e1a06106 	lsl	r6, r6, #2
    99e8:	e1a00006 	mov	r0, r6
    99ec:	ebffff89 	bl	9818 <GET32>
    99f0:	e3a01007 	mov	r1, #7
    99f4:	e1c01411 	bic	r1, r0, r1, lsl r4
    99f8:	e1811415 	orr	r1, r1, r5, lsl r4
    99fc:	e1a00006 	mov	r0, r6
    9a00:	ebffff78 	bl	97e8 <PUT32>
    9a04:	e8bd8070 	pop	{r4, r5, r6, pc}
    9a08:	cccccccd 	stclgt	12, cr12, [ip], {205}	; 0xcd

00009a0c <gpio_set_output>:
    9a0c:	e92d4010 	push	{r4, lr}
    9a10:	e3a01001 	mov	r1, #1
    9a14:	ebffffe2 	bl	99a4 <gpio_set_function>
    9a18:	e8bd8010 	pop	{r4, pc}

00009a1c <gpio_set_on>:
    9a1c:	e350001f 	cmp	r0, #31
    9a20:	812fff1e 	bxhi	lr
    9a24:	e92d4010 	push	{r4, lr}
    9a28:	e3a01001 	mov	r1, #1
    9a2c:	e1a01011 	lsl	r1, r1, r0
    9a30:	e59f0004 	ldr	r0, [pc, #4]	; 9a3c <gpio_set_on+0x20>
    9a34:	ebffff6b 	bl	97e8 <PUT32>
    9a38:	e8bd8010 	pop	{r4, pc}
    9a3c:	2020001c 	eorcs	r0, r0, ip, lsl r0

00009a40 <gpio_set_off>:
    9a40:	e350001f 	cmp	r0, #31
    9a44:	812fff1e 	bxhi	lr
    9a48:	e92d4010 	push	{r4, lr}
    9a4c:	e3a01001 	mov	r1, #1
    9a50:	e1a01011 	lsl	r1, r1, r0
    9a54:	e59f0004 	ldr	r0, [pc, #4]	; 9a60 <gpio_set_off+0x20>
    9a58:	ebffff62 	bl	97e8 <PUT32>
    9a5c:	e8bd8010 	pop	{r4, pc}
    9a60:	20200028 	eorcs	r0, r0, r8, lsr #32

00009a64 <gpio_set_input>:
    9a64:	e92d4010 	push	{r4, lr}
    9a68:	e3a01000 	mov	r1, #0
    9a6c:	ebffffcc 	bl	99a4 <gpio_set_function>
    9a70:	e8bd8010 	pop	{r4, pc}

00009a74 <gpio_write>:
    9a74:	e92d4010 	push	{r4, lr}
    9a78:	e3510000 	cmp	r1, #0
    9a7c:	1a000001 	bne	9a88 <gpio_write+0x14>
    9a80:	ebffffee 	bl	9a40 <gpio_set_off>
    9a84:	e8bd8010 	pop	{r4, pc}
    9a88:	ebffffe3 	bl	9a1c <gpio_set_on>
    9a8c:	e8bd8010 	pop	{r4, pc}

00009a90 <gpio_read>:
    9a90:	e350001f 	cmp	r0, #31
    9a94:	8a000007 	bhi	9ab8 <gpio_read+0x28>
    9a98:	e92d4010 	push	{r4, lr}
    9a9c:	e200401f 	and	r4, r0, #31
    9aa0:	e59f3018 	ldr	r3, [pc, #24]	; 9ac0 <gpio_read+0x30>
    9aa4:	e08302a0 	add	r0, r3, r0, lsr #5
    9aa8:	ebffff5a 	bl	9818 <GET32>
    9aac:	e1a00430 	lsr	r0, r0, r4
    9ab0:	e2000001 	and	r0, r0, #1
    9ab4:	e8bd8010 	pop	{r4, pc}
    9ab8:	e3e00000 	mvn	r0, #0
    9abc:	e12fff1e 	bx	lr
    9ac0:	20200034 	eorcs	r0, r0, r4, lsr r0

00009ac4 <kmalloc_heap_end>:
    9ac4:	e59f3004 	ldr	r3, [pc, #4]	; 9ad0 <kmalloc_heap_end+0xc>
    9ac8:	e5930000 	ldr	r0, [r3]
    9acc:	e12fff1e 	bx	lr
    9ad0:	00009c78 	andeq	r9, r0, r8, ror ip

00009ad4 <kmalloc_heap_start>:
    9ad4:	e59f0000 	ldr	r0, [pc]	; 9adc <kmalloc_heap_start+0x8>
    9ad8:	e12fff1e 	bx	lr
    9adc:	0000abb8 			; <UNDEFINED> instruction: 0x0000abb8

00009ae0 <kmalloc_init_set_start>:
    9ae0:	e59f3038 	ldr	r3, [pc, #56]	; 9b20 <kmalloc_init_set_start+0x40>
    9ae4:	e5933000 	ldr	r3, [r3]
    9ae8:	e1500003 	cmp	r0, r3
    9aec:	9a000003 	bls	9b00 <kmalloc_init_set_start+0x20>
    9af0:	e59f3028 	ldr	r3, [pc, #40]	; 9b20 <kmalloc_init_set_start+0x40>
    9af4:	e5830000 	str	r0, [r3]
    9af8:	e5830004 	str	r0, [r3, #4]
    9afc:	e12fff1e 	bx	lr
    9b00:	e92d4010 	push	{r4, lr}
    9b04:	ebfffd85 	bl	9120 <rpi_reset_putc>
    9b08:	e3a03016 	mov	r3, #22
    9b0c:	e59f2010 	ldr	r2, [pc, #16]	; 9b24 <kmalloc_init_set_start+0x44>
    9b10:	e59f1010 	ldr	r1, [pc, #16]	; 9b28 <kmalloc_init_set_start+0x48>
    9b14:	e59f0010 	ldr	r0, [pc, #16]	; 9b2c <kmalloc_init_set_start+0x4c>
    9b18:	ebfffd65 	bl	90b4 <printk>
    9b1c:	ebfffed9 	bl	9688 <clean_reboot>
    9b20:	00009c78 	andeq	r9, r0, r8, ror ip
    9b24:	0000a664 	andeq	sl, r0, r4, ror #12
    9b28:	0000a694 	muleq	r0, r4, r6
    9b2c:	0000a6a0 	andeq	sl, r0, r0, lsr #13

00009b30 <kmalloc>:
    9b30:	e92d4010 	push	{r4, lr}
    9b34:	e3500000 	cmp	r0, #0
    9b38:	0a00000a 	beq	9b68 <kmalloc+0x38>
    9b3c:	e2802007 	add	r2, r0, #7
    9b40:	e3c22007 	bic	r2, r2, #7
    9b44:	e59f3038 	ldr	r3, [pc, #56]	; 9b84 <kmalloc+0x54>
    9b48:	e5934000 	ldr	r4, [r3]
    9b4c:	e0841002 	add	r1, r4, r2
    9b50:	e5831000 	str	r1, [r3]
    9b54:	e3a01000 	mov	r1, #0
    9b58:	e1a00004 	mov	r0, r4
    9b5c:	ebfffd4c 	bl	9094 <memset>
    9b60:	e1a00004 	mov	r0, r4
    9b64:	e8bd8010 	pop	{r4, pc}
    9b68:	ebfffd6c 	bl	9120 <rpi_reset_putc>
    9b6c:	e3a0301b 	mov	r3, #27
    9b70:	e59f2010 	ldr	r2, [pc, #16]	; 9b88 <kmalloc+0x58>
    9b74:	e59f1010 	ldr	r1, [pc, #16]	; 9b8c <kmalloc+0x5c>
    9b78:	e59f0010 	ldr	r0, [pc, #16]	; 9b90 <kmalloc+0x60>
    9b7c:	ebfffd4c 	bl	90b4 <printk>
    9b80:	ebfffec0 	bl	9688 <clean_reboot>
    9b84:	00009c78 	andeq	r9, r0, r8, ror ip
    9b88:	0000a67c 	andeq	sl, r0, ip, ror r6
    9b8c:	0000a694 	muleq	r0, r4, r6
    9b90:	0000a6bc 			; <UNDEFINED> instruction: 0x0000a6bc

00009b94 <kmalloc_init>:
    9b94:	e12fff1e 	bx	lr

00009b98 <kmalloc_heap_ptr>:
    9b98:	e92d4010 	push	{r4, lr}
    9b9c:	ebffffcc 	bl	9ad4 <kmalloc_heap_start>
    9ba0:	e8bd8010 	pop	{r4, pc}

00009ba4 <kmalloc_aligned>:
    9ba4:	e92d4010 	push	{r4, lr}
    9ba8:	e2613000 	rsb	r3, r1, #0
    9bac:	e1d12003 	bics	r2, r1, r3
    9bb0:	1a00000b 	bne	9be4 <kmalloc_aligned+0x40>
    9bb4:	e59f2060 	ldr	r2, [pc, #96]	; 9c1c <kmalloc_aligned+0x78>
    9bb8:	e5922000 	ldr	r2, [r2]
    9bbc:	e0812002 	add	r2, r1, r2
    9bc0:	e2422001 	sub	r2, r2, #1
    9bc4:	e0033002 	and	r3, r3, r2
    9bc8:	e2411001 	sub	r1, r1, #1
    9bcc:	e1130001 	tst	r3, r1
    9bd0:	1a00000a 	bne	9c00 <kmalloc_aligned+0x5c>
    9bd4:	e59f2040 	ldr	r2, [pc, #64]	; 9c1c <kmalloc_aligned+0x78>
    9bd8:	e5823000 	str	r3, [r2]
    9bdc:	ebffffd3 	bl	9b30 <kmalloc>
    9be0:	e8bd8010 	pop	{r4, pc}
    9be4:	ebfffd4d 	bl	9120 <rpi_reset_putc>
    9be8:	e3a0302a 	mov	r3, #42	; 0x2a
    9bec:	e59f202c 	ldr	r2, [pc, #44]	; 9c20 <kmalloc_aligned+0x7c>
    9bf0:	e59f102c 	ldr	r1, [pc, #44]	; 9c24 <kmalloc_aligned+0x80>
    9bf4:	e59f002c 	ldr	r0, [pc, #44]	; 9c28 <kmalloc_aligned+0x84>
    9bf8:	ebfffd2d 	bl	90b4 <printk>
    9bfc:	ebfffea1 	bl	9688 <clean_reboot>
    9c00:	ebfffd46 	bl	9120 <rpi_reset_putc>
    9c04:	e3a03030 	mov	r3, #48	; 0x30
    9c08:	e59f2010 	ldr	r2, [pc, #16]	; 9c20 <kmalloc_aligned+0x7c>
    9c0c:	e59f1010 	ldr	r1, [pc, #16]	; 9c24 <kmalloc_aligned+0x80>
    9c10:	e59f0014 	ldr	r0, [pc, #20]	; 9c2c <kmalloc_aligned+0x88>
    9c14:	ebfffd26 	bl	90b4 <printk>
    9c18:	ebfffe9a 	bl	9688 <clean_reboot>
    9c1c:	00009c78 	andeq	r9, r0, r8, ror ip
    9c20:	0000a684 	andeq	sl, r0, r4, lsl #13
    9c24:	0000a694 	muleq	r0, r4, r6
    9c28:	0000a6d0 	ldrdeq	sl, [r0], -r0
    9c2c:	0000a730 	andeq	sl, r0, r0, lsr r7

00009c30 <kfree>:
    9c30:	e12fff1e 	bx	lr

00009c34 <kfree_all>:
    9c34:	e59f3008 	ldr	r3, [pc, #8]	; 9c44 <kfree_all+0x10>
    9c38:	e5932004 	ldr	r2, [r3, #4]
    9c3c:	e5832000 	str	r2, [r3]
    9c40:	e12fff1e 	bx	lr
    9c44:	00009c78 	andeq	r9, r0, r8, ror ip

00009c48 <kfree_after>:
    9c48:	e59f3004 	ldr	r3, [pc, #4]	; 9c54 <kfree_after+0xc>
    9c4c:	e5830000 	str	r0, [r3]
    9c50:	e12fff1e 	bx	lr
    9c54:	00009c78 	andeq	r9, r0, r8, ror ip

00009c58 <dev_barrier>:
    9c58:	ea000002 	b	9c68 <dsb>

00009c5c <dmb>:
    9c5c:	e3a00000 	mov	r0, #0
    9c60:	ee070fba 	mcr	15, 0, r0, cr7, cr10, {5}
    9c64:	e12fff1e 	bx	lr

00009c68 <dsb>:
    9c68:	ee070f9a 	mcr	15, 0, r0, cr7, cr10, {4}
    9c6c:	e12fff1e 	bx	lr

Disassembly of section .data:

00009c70 <__data_start__>:
    9c70:	0000910c 	andeq	r9, r0, ip, lsl #2

00009c74 <putk>:
    9c74:	00009148 	andeq	r9, r0, r8, asr #2

00009c78 <heap>:
    9c78:	0000abb8 			; <UNDEFINED> instruction: 0x0000abb8

00009c7c <heap_start>:
    9c7c:	0000abb8 			; <UNDEFINED> instruction: 0x0000abb8

Disassembly of section .rodata:

00009c80 <__FUNCTION__.4204>:
    9c80:	74736574 	ldrbtvc	r6, [r3], #-1396	; 0x574
    9c84:	00000000 	andeq	r0, r0, r0
    9c88:	626f6c67 	rsbvs	r6, pc, #26368	; 0x6700
    9c8c:	705f6c61 	subsvc	r6, pc, r1, ror #24
    9c90:	2070253d 	rsbscs	r2, r0, sp, lsr r5
    9c94:	61746164 	cmnvs	r4, r4, ror #2
    9c98:	72617473 	rsbvc	r7, r1, #1929379840	; 0x73000000
    9c9c:	70253d74 	eorvc	r3, r5, r4, ror sp
    9ca0:	6164202c 	cmnvs	r4, ip, lsr #32
    9ca4:	6e656174 	mcrvs	1, 3, r6, cr5, cr4, {3}
    9ca8:	70253d64 	eorvc	r3, r5, r4, ror #26
    9cac:	0000000a 	andeq	r0, r0, sl
    9cb0:	74736574 	ldrbtvc	r6, [r3], #-1396	; 0x574
    9cb4:	61702f73 	cmnvs	r0, r3, ror pc
    9cb8:	2d327472 	cfldrscs	mvf7, [r2, #-456]!	; 0xfffffe38
    9cbc:	74736574 	ldrbtvc	r6, [r3], #-1396	; 0x574
    9cc0:	00632e32 	rsbeq	r2, r3, r2, lsr lr
    9cc4:	74204347 	strtvc	r4, [r0], #-839	; 0x347
    9cc8:	32747365 	rsbscc	r7, r4, #-1811939327	; 0x94000001
    9ccc:	6863203a 	stmdavs	r3!, {r1, r3, r4, r5, sp}^
    9cd0:	696b6365 	stmdbvs	fp!, {r0, r2, r5, r6, r8, r9, sp, lr}^
    9cd4:	7420676e 	strtvc	r6, [r0], #-1902	; 0x76e
    9cd8:	20746168 	rsbscs	r6, r4, r8, ror #2
    9cdc:	61636f6c 	cmnvs	r3, ip, ror #30
    9ce0:	7328206c 	teqvc	r8, #108	; 0x6c
    9ce4:	6b636174 	blvs	18e22bc <__bss_end__+0x18d7704>
    9ce8:	20726f20 	rsbscs	r6, r2, r0, lsr #30
    9cec:	29676572 	stmdbcs	r7!, {r1, r4, r5, r6, r8, sl, sp, lr}^
    9cf0:	696f7020 	stmdbvs	pc!, {r5, ip, sp, lr}^	; <UNPREDICTABLE>
    9cf4:	7265746e 	rsbvc	r7, r5, #1845493760	; 0x6e000000
    9cf8:	72612073 	rsbvc	r2, r1, #115	; 0x73
    9cfc:	65642065 	strbvs	r2, [r4, #-101]!	; 0x65
    9d00:	74636574 	strbtvc	r6, [r3], #-1396	; 0x574
    9d04:	0a2e6465 	beq	ba2ea0 <__bss_end__+0xb982e8>
    9d08:	00000000 	andeq	r0, r0, r0
    9d0c:	7473616c 	ldrbtvc	r6, [r3], #-364	; 0x16c
    9d10:	6c6c6120 	stfvse	f6, [ip], #-128	; 0xffffff80
    9d14:	3d20636f 	stccc	3, cr6, [r0, #-444]!	; 0xfffffe44
    9d18:	000a7025 	andeq	r7, sl, r5, lsr #32

00009d1c <__FUNCTION__.4278>:
    9d1c:	63656863 	cmnvs	r5, #6488064	; 0x630000
    9d20:	64685f6b 	strbtvs	r5, [r8], #-3947	; 0xf6b
    9d24:	00000072 	andeq	r0, r0, r2, ror r0

00009d28 <__FUNCTION__.4265>:
    9d28:	695f6b63 	ldmdbvs	pc, {r0, r1, r5, r6, r8, r9, fp, sp, lr}^	; <UNPREDICTABLE>
    9d2c:	0074696e 	rsbseq	r6, r4, lr, ror #18

00009d30 <__FUNCTION__.4304>:
    9d30:	72666b63 	rsbvc	r6, r6, #101376	; 0x18c00
    9d34:	00006565 	andeq	r6, r0, r5, ror #10

00009d38 <__FUNCTION__.4313>:
    9d38:	6c616b63 	stclvs	11, cr6, [r1], #-396	; 0xfffffe74
    9d3c:	00636f6c 	rsbeq	r6, r3, ip, ror #30

00009d40 <__FUNCTION__.4324>:
    9d40:	685f6b63 	ldmdavs	pc, {r0, r1, r5, r6, r8, r9, fp, sp, lr}^	; <UNPREDICTABLE>
    9d44:	5f706165 	svcpl	0x00706165
    9d48:	6f727265 	svcvs	0x00727265
    9d4c:	00007372 	andeq	r7, r0, r2, ror r3

00009d50 <__FUNCTION__.4333>:
    9d50:	665f6b63 	ldrbvs	r6, [pc], -r3, ror #22
    9d54:	74737269 	ldrbtvc	r7, [r3], #-617	; 0x269
    9d58:	7264685f 	rsbvc	r6, r4, #6225920	; 0x5f0000
    9d5c:	00000000 	andeq	r0, r0, r0

00009d60 <__FUNCTION__.4338>:
    9d60:	6e5f6b63 	vnmlavs.f64	d22, d15, d19
    9d64:	5f747865 	svcpl	0x00747865
    9d68:	00726468 	rsbseq	r6, r2, r8, ror #8
    9d6c:	43415254 	movtmi	r5, #4692	; 0x1254
    9d70:	00003a45 	andeq	r3, r0, r5, asr #20
    9d74:	4f525245 	svcmi	0x00525245
    9d78:	00003a52 	andeq	r3, r0, r2, asr sl
    9d7c:	636f6c62 	cmnvs	pc, #25088	; 0x6200
    9d80:	7025206b 	eorvc	r2, r5, fp, rrx
    9d84:	726f6320 	rsbvc	r6, pc, #32, 6	; 0x80000000
    9d88:	74707572 	ldrbtvc	r7, [r0], #-1394	; 0x572
    9d8c:	61206465 	teqvs	r0, r5, ror #8
    9d90:	666f2074 			; <UNDEFINED> instruction: 0x666f2074
    9d94:	74657366 	strbtvc	r7, [r5], #-870	; 0x366
    9d98:	0a642520 	beq	1913220 <__bss_end__+0x1908668>
    9d9c:	00000000 	andeq	r0, r0, r0
    9da0:	79626e09 	stmdbvc	r2!, {r0, r3, r9, sl, fp, sp, lr}^
    9da4:	3d736574 	cfldr64cc	mvdx6, [r3, #-464]!	; 0xfffffe30
    9da8:	000a6425 	andeq	r6, sl, r5, lsr #8
    9dac:	6f6c4209 	svcvs	0x006c4209
    9db0:	61206b63 	teqvs	r0, r3, ror #22
    9db4:	636f6c6c 	cmnvs	pc, #108, 24	; 0x6c00
    9db8:	64657461 	strbtvs	r7, [r5], #-1121	; 0x461
    9dbc:	3a746120 	bcc	1d22244 <__bss_end__+0x1d1768c>
    9dc0:	3a732520 	bcc	1cd3248 <__bss_end__+0x1cc8690>
    9dc4:	253a7325 	ldrcs	r7, [sl, #-805]!	; 0x325
    9dc8:	00000a64 	andeq	r0, r0, r4, ror #20
    9dcc:	6f6c4209 	svcvs	0x006c4209
    9dd0:	66206b63 	strtvs	r6, [r0], -r3, ror #22
    9dd4:	64656572 	strbtvs	r6, [r5], #-1394	; 0x572
    9dd8:	3a746120 	bcc	1d22260 <__bss_end__+0x1d176a8>
    9ddc:	3a732520 	bcc	1cd3264 <__bss_end__+0x1cc86ac>
    9de0:	253a7325 	ldrcs	r7, [sl, #-805]!	; 0x325
    9de4:	00000a64 	andeq	r0, r0, r4, ror #20
    9de8:	5d695b70 	vstmdbpl	r9!, {d21-<overflow reg d76>}
    9dec:	7825203a 	stmdavc	r5!, {r1, r3, r4, r5, sp}
    9df0:	0000000a 	andeq	r0, r0, sl
    9df4:	494e4150 	stmdbmi	lr, {r4, r6, r8, lr}^
    9df8:	73253a43 	teqvc	r5, #274432	; 0x43000
    9dfc:	3a73253a 	bcc	1cd32ec <__bss_end__+0x1cc8734>
    9e00:	683a6425 	ldmdavs	sl!, {r0, r2, r5, sl, sp, lr}
    9e04:	635f7264 	cmpvs	pc, #100, 4	; 0x40000006
    9e08:	6d75736b 	ldclvs	3, cr7, [r5, #-428]!	; 0xfffffe54
    9e0c:	6c61765f 	stclvs	6, cr7, [r1], #-380	; 0xfffffe84
    9e10:	203d3d20 	eorscs	r3, sp, r0, lsr #26
    9e14:	633e2d68 	teqvs	lr, #104, 26	; 0x1a00
    9e18:	6d75736b 	ldclvs	3, cr7, [r5, #-428]!	; 0xfffffe54
    9e1c:	0000000a 	andeq	r0, r0, sl
    9e20:	6c616b63 	stclvs	11, cr6, [r1], #-396	; 0xfffffe74
    9e24:	2e636f6c 	cdpcs	15, 6, cr6, cr3, cr12, {3}
    9e28:	00000063 	andeq	r0, r0, r3, rrx
    9e2c:	494e4150 	stmdbmi	lr, {r4, r6, r8, lr}^
    9e30:	73253a43 	teqvc	r5, #274432	; 0x43000
    9e34:	3a73253a 	bcc	1cd3324 <__bss_end__+0x1cc876c>
    9e38:	683a6425 	ldmdavs	sl!, {r0, r2, r5, sl, sp, lr}
    9e3c:	74733e2d 	ldrbtvc	r3, [r3], #-3629	; 0xe2d
    9e40:	20657461 	rsbcs	r7, r5, r1, ror #8
    9e44:	41203d3d 	teqmi	r0, sp, lsr sp
    9e48:	434f4c4c 	movtmi	r4, #64588	; 0xfc4c
    9e4c:	7c204445 	cfstrsvc	mvf4, [r0], #-276	; 0xfffffeec
    9e50:	2d68207c 	stclcs	0, cr2, [r8, #-496]!	; 0xfffffe10
    9e54:	6174733e 	cmnvs	r4, lr, lsr r3
    9e58:	3d206574 	cfstr32cc	mvfx6, [r0, #-464]!	; 0xfffffe30
    9e5c:	5246203d 	subpl	r2, r6, #61	; 0x3d
    9e60:	0a444545 	beq	111b37c <__bss_end__+0x11107c4>
    9e64:	00000000 	andeq	r0, r0, r0
    9e68:	494e4150 	stmdbmi	lr, {r4, r6, r8, lr}^
    9e6c:	73253a43 	teqvc	r5, #274432	; 0x43000
    9e70:	3a73253a 	bcc	1cd3360 <__bss_end__+0x1cc87a8>
    9e74:	613a6425 	teqvs	sl, r5, lsr #8
    9e78:	6e67696c 	cdpvs	9, 6, cr6, cr7, cr12, {3}
    9e7c:	68286465 	stmdavs	r8!, {r0, r2, r5, r6, sl, sp, lr}
    9e80:	5f706165 	svcpl	0x00706165
    9e84:	72617473 	rsbvc	r7, r1, #1929379840	; 0x73000000
    9e88:	38202c74 	stmdacc	r0!, {r2, r4, r5, r6, sl, fp, sp}
    9e8c:	00000a29 	andeq	r0, r0, r9, lsr #20
    9e90:	657a6973 	ldrbvs	r6, [sl, #-2419]!	; 0x973
    9e94:	6820666f 	stmdavs	r0!, {r0, r1, r2, r3, r5, r6, r9, sl, sp, lr}
    9e98:	253d7264 	ldrcs	r7, [sp, #-612]!	; 0x264
    9e9c:	72202c64 	eorvc	r2, r0, #100, 24	; 0x6400
    9ea0:	6f7a6465 	svcvs	0x007a6465
    9ea4:	253d656e 	ldrcs	r6, [sp, #-1390]!	; 0x56e
    9ea8:	00000a64 	andeq	r0, r0, r4, ror #20
    9eac:	4f525245 	svcmi	0x00525245
    9eb0:	73253a52 	teqvc	r5, #335872	; 0x52000
    9eb4:	3a73253a 	bcc	1cd33a4 <__bss_end__+0x1cc87ec>
    9eb8:	203a6425 	eorscs	r6, sl, r5, lsr #8
    9ebc:	534c4146 	movtpl	r4, #49478	; 0xc146
    9ec0:	683c2845 	ldmdavs	ip!, {r0, r2, r6, fp, sp}
    9ec4:	3e706165 	rpwccsz	f6, f0, f5
    9ec8:	6e203a29 	vmulvs.f32	s6, s0, s19
    9ecc:	6920746f 	stmdbvs	r0!, {r0, r1, r2, r3, r5, r6, sl, ip, sp, lr}
    9ed0:	6974696e 	ldmdbvs	r4!, {r1, r2, r3, r5, r6, r8, fp, sp, lr}^
    9ed4:	7a696c61 	bvc	1a65060 <__bss_end__+0x1a5a4a8>
    9ed8:	0a3f6465 	beq	fe3074 <__bss_end__+0xfd84bc>
    9edc:	00000000 	andeq	r0, r0, r0
    9ee0:	65657266 	strbvs	r7, [r5, #-614]!	; 0x266
    9ee4:	20676e69 	rsbcs	r6, r7, r9, ror #28
    9ee8:	000a7025 	andeq	r7, sl, r5, lsr #32
    9eec:	6f6c6c61 	svcvs	0x006c6c61
    9ef0:	69746163 	ldmdbvs	r4!, {r0, r1, r5, r6, r8, sp, lr}^
    9ef4:	2520676e 	strcs	r6, [r0, #-1902]!	; 0x76e
    9ef8:	79622064 	stmdbvc	r2!, {r2, r5, r6, sp}^
    9efc:	0a736574 	beq	1ce34d4 <__bss_end__+0x1cd891c>
    9f00:	00000000 	andeq	r0, r0, r0
    9f04:	43415254 	movtmi	r5, #4692	; 0x1254
    9f08:	52453a45 	subpl	r3, r5, #282624	; 0x45000
    9f0c:	00524f52 	subseq	r4, r2, r2, asr pc
    9f10:	657a6973 	ldrbvs	r6, [sl, #-2419]!	; 0x973
    9f14:	65766f20 	ldrbvs	r6, [r6, #-3872]!	; 0xf20
    9f18:	6f6c6672 	svcvs	0x006c6672
    9f1c:	3a646577 	bcc	1923500 <__bss_end__+0x1918948>
    9f20:	20642520 	rsbcs	r2, r4, r0, lsr #10
    9f24:	65747962 	ldrbvs	r7, [r4, #-2402]!	; 0x962
    9f28:	73692073 	cmnvc	r9, #115	; 0x73
    9f2c:	6f6f7420 	svcvs	0x006f7420
    9f30:	72616c20 	rsbvc	r6, r1, #32, 24	; 0x2000
    9f34:	000a6567 	andeq	r6, sl, r7, ror #10
    9f38:	494e4150 	stmdbmi	lr, {r4, r6, r8, lr}^
    9f3c:	73253a43 	teqvc	r5, #274432	; 0x43000
    9f40:	3a73253a 	bcc	1cd3430 <__bss_end__+0x1cc8878>
    9f44:	733a6425 	teqvc	sl, #620756992	; 0x25000000
    9f48:	20657a69 	rsbcs	r7, r5, r9, ror #20
    9f4c:	7265766f 	rsbvc	r7, r5, #116391936	; 0x6f00000
    9f50:	776f6c66 	strbvc	r6, [pc, -r6, ror #24]!
    9f54:	203a6465 	eorscs	r6, sl, r5, ror #8
    9f58:	62206425 	eorvs	r6, r0, #620756992	; 0x25000000
    9f5c:	73657479 	cmnvc	r5, #2030043136	; 0x79000000
    9f60:	20736920 	rsbscs	r6, r3, r0, lsr #18
    9f64:	206f6f74 	rsbcs	r6, pc, r4, ror pc	; <UNPREDICTABLE>
    9f68:	6772616c 	ldrbvs	r6, [r2, -ip, ror #2]!
    9f6c:	000a0a65 	andeq	r0, sl, r5, ror #20
    9f70:	2074756f 	rsbscs	r7, r4, pc, ror #10
    9f74:	6d20666f 	stcvs	6, cr6, [r0, #-444]!	; 0xfffffe44
    9f78:	726f6d65 	rsbvc	r6, pc, #6464	; 0x1940
    9f7c:	20202179 	eorcs	r2, r0, r9, ror r1
    9f80:	65766168 	ldrbvs	r6, [r6, #-360]!	; 0x168
    9f84:	6c6e6f20 	stclvs	15, cr6, [lr], #-128	; 0xffffff80
    9f88:	64252079 	strtvs	r2, [r5], #-121	; 0x79
    9f8c:	66656c20 	strbtvs	r6, [r5], -r0, lsr #24
    9f90:	6e202c74 	mcrvs	12, 1, r2, cr0, cr4, {3}
    9f94:	20646565 	rsbcs	r6, r4, r5, ror #10
    9f98:	000a6425 	andeq	r6, sl, r5, lsr #8
    9f9c:	494e4150 	stmdbmi	lr, {r4, r6, r8, lr}^
    9fa0:	73253a43 	teqvc	r5, #274432	; 0x43000
    9fa4:	3a73253a 	bcc	1cd3494 <__bss_end__+0x1cc88dc>
    9fa8:	6f3a6425 	svcvs	0x003a6425
    9fac:	6f207475 	svcvs	0x00207475
    9fb0:	656d2066 	strbvs	r2, [sp, #-102]!	; 0x66
    9fb4:	79726f6d 	ldmdbvc	r2!, {r0, r2, r3, r5, r6, r8, r9, sl, fp, sp, lr}^
    9fb8:	68202021 	stmdavs	r0!, {r0, r5, sp}
    9fbc:	20657661 	rsbcs	r7, r5, r1, ror #12
    9fc0:	796c6e6f 	stmdbvc	ip!, {r0, r1, r2, r3, r5, r6, r9, sl, fp, sp, lr}^
    9fc4:	20642520 	rsbcs	r2, r4, r0, lsr #10
    9fc8:	7466656c 	strbtvc	r6, [r6], #-1388	; 0x56c
    9fcc:	656e202c 	strbvs	r2, [lr, #-44]!	; 0x2c
    9fd0:	25206465 	strcs	r6, [r0, #-1125]!	; 0x465
    9fd4:	000a0a64 	andeq	r0, sl, r4, ror #20
    9fd8:	494e4150 	stmdbmi	lr, {r4, r6, r8, lr}^
    9fdc:	73253a43 	teqvc	r5, #274432	; 0x43000
    9fe0:	3a73253a 	bcc	1cd34d0 <__bss_end__+0x1cc8918>
    9fe4:	633a6425 	teqvs	sl, #620756992	; 0x25000000
    9fe8:	6b636568 	blvs	18e3590 <__bss_end__+0x18d89d8>
    9fec:	7264685f 	rsbvc	r6, r4, #6225920	; 0x5f0000
    9ff0:	0a296828 	beq	a64098 <__bss_end__+0xa594e0>
    9ff4:	00000000 	andeq	r0, r0, r0
    9ff8:	494e4150 	stmdbmi	lr, {r4, r6, r8, lr}^
    9ffc:	73253a43 	teqvc	r5, #274432	; 0x43000
    a000:	3a73253a 	bcc	1cd34f0 <__bss_end__+0x1cc8938>
    a004:	633a6425 	teqvs	sl, #620756992	; 0x25000000
    a008:	6b636568 	blvs	18e35b0 <__bss_end__+0x18d89f8>
    a00c:	6f6c625f 	svcvs	0x006c625f
    a010:	68286b63 	stmdavs	r8!, {r0, r1, r5, r6, r8, r9, fp, sp, lr}
    a014:	00000a29 	andeq	r0, r0, r9, lsr #20
    a018:	6c616b63 	stclvs	11, cr6, [r1], #-396	; 0xfffffe74
    a01c:	3a636f6c 	bcc	18e5dd4 <__bss_end__+0x18db21c>
    a020:	6f6c6c61 	svcvs	0x006c6c61
    a024:	65746163 	ldrbvs	r6, [r4, #-355]!	; 0x163
    a028:	64252064 	strtvs	r2, [r5], #-100	; 0x64
    a02c:	74796220 	ldrbtvc	r6, [r9], #-544	; 0x220
    a030:	202c7365 	eorcs	r7, ip, r5, ror #6
    a034:	746f7428 	strbtvc	r7, [pc], #-1064	; a03c <__FUNCTION__.4338+0x2dc>
    a038:	253d6c61 	ldrcs	r6, [sp, #-3169]!	; 0xc61
    a03c:	202c2964 	eorcs	r2, ip, r4, ror #18
    a040:	3d727470 	cfldrdcc	mvd7, [r2, #-448]!	; 0xfffffe40
    a044:	000a7025 	andeq	r7, sl, r5, lsr #32
    a048:	6e696f67 	cdpvs	15, 6, cr6, cr9, cr7, {3}
    a04c:	6f742067 	svcvs	0x00742067
    a050:	65686320 	strbvs	r6, [r8, #-800]!	; 0x320
    a054:	68206b63 	stmdavs	r0!, {r0, r1, r5, r6, r8, r9, fp, sp, lr}
    a058:	3a706165 	bcc	1c225f4 <__bss_end__+0x1c17a3c>
    a05c:	20642520 	rsbcs	r2, r4, r0, lsr #10
    a060:	65747962 	ldrbvs	r7, [r4, #-2402]!	; 0x962
    a064:	6c612073 	stclvs	0, cr2, [r1], #-460	; 0xfffffe34
    a068:	61636f6c 	cmnvs	r3, ip, ror #30
    a06c:	2c646574 	cfstr64cs	mvdx6, [r4], #-464	; 0xfffffe30
    a070:	20642520 	rsbcs	r2, r4, r0, lsr #10
    a074:	65747962 	ldrbvs	r7, [r4, #-2402]!	; 0x962
    a078:	656c2073 	strbvs	r2, [ip, #-115]!	; 0x73
    a07c:	000a7466 	andeq	r7, sl, r6, ror #8
    a080:	494e4150 	stmdbmi	lr, {r4, r6, r8, lr}^
    a084:	73253a43 	teqvc	r5, #274432	; 0x43000
    a088:	3a73253a 	bcc	1cd3578 <__bss_end__+0x1cc89c0>
    a08c:	633a6425 	teqvs	sl, #620756992	; 0x25000000
    a090:	6b636568 	blvs	18e3638 <__bss_end__+0x18d8a80>
    a094:	7274705f 	rsbsvc	r7, r4, #95	; 0x5f
    a098:	68203c20 	stmdavs	r0!, {r5, sl, fp, ip, sp}
    a09c:	0a706165 	beq	1c22638 <__bss_end__+0x1c17a80>
    a0a0:	00000000 	andeq	r0, r0, r0
    a0a4:	64616568 	strbtvs	r6, [r1], #-1384	; 0x568
    a0a8:	69207265 	stmdbvs	r0!, {r0, r2, r5, r6, r9, ip, sp, lr}
    a0ac:	6f632073 	svcvs	0x00632073
    a0b0:	70757272 	rsbsvc	r7, r5, r2, ror r2
    a0b4:	00646574 	rsbeq	r6, r4, r4, ror r5
    a0b8:	6f725709 	svcvs	0x00725709
    a0bc:	62206574 	eorvs	r6, r0, #116, 10	; 0x1d000000
    a0c0:	6b636f6c 	blvs	18e5e78 <__bss_end__+0x18db2c0>
    a0c4:	74666120 	strbtvc	r6, [r6], #-288	; 0x120
    a0c8:	66207265 	strtvs	r7, [r0], -r5, ror #4
    a0cc:	21656572 	smccs	22098	; 0x5652
    a0d0:	0000000a 	andeq	r0, r0, sl
    a0d4:	63656863 	cmnvs	r5, #6488064	; 0x630000
    a0d8:	2064656b 	rsbcs	r6, r4, fp, ror #10
    a0dc:	62206425 	eorvs	r6, r0, #620756992	; 0x25000000
    a0e0:	6b636f6c 	blvs	18e5e98 <__bss_end__+0x18db2e0>
    a0e4:	64202c73 	strtvs	r2, [r0], #-3187	; 0xc73
    a0e8:	63657465 	cmnvs	r5, #1694498816	; 0x65000000
    a0ec:	20646574 	rsbcs	r6, r4, r4, ror r5
    a0f0:	65206425 	strvs	r6, [r0, #-1061]!	; 0x425
    a0f4:	726f7272 	rsbvc	r7, pc, #536870919	; 0x20000007
    a0f8:	00000a73 	andeq	r0, r0, r3, ror sl
    a0fc:	43435553 	movtmi	r5, #13651	; 0x3553
    a100:	3a535345 	bcc	14dee1c <__bss_end__+0x14d4264>
    a104:	65686320 	strbvs	r6, [r8, #-800]!	; 0x320
    a108:	64656b63 	strbtvs	r6, [r5], #-2915	; 0xb63
    a10c:	20642520 	rsbcs	r2, r4, r0, lsr #10
    a110:	636f6c62 	cmnvs	pc, #25088	; 0x6200
    a114:	202c736b 	eorcs	r7, ip, fp, ror #6
    a118:	65746564 	ldrbvs	r6, [r4, #-1380]!	; 0x564
    a11c:	64657463 	strbtvs	r7, [r5], #-1123	; 0x463
    a120:	206f6e20 	rsbcs	r6, pc, r0, lsr #28
    a124:	6f727265 	svcvs	0x00727265
    a128:	000a7372 	andeq	r7, sl, r2, ror r3
    a12c:	494e4150 	stmdbmi	lr, {r4, r6, r8, lr}^
    a130:	73253a43 	teqvc	r5, #274432	; 0x43000
    a134:	3a73253a 	bcc	1cd3624 <__bss_end__+0x1cc8a6c>
    a138:	633a6425 	teqvs	sl, #620756992	; 0x25000000
    a13c:	6b636568 	blvs	18e36e4 <__bss_end__+0x18d8b2c>
    a140:	7264685f 	rsbvc	r6, r4, #6225920	; 0x5f0000
    a144:	72756328 	rsbsvc	r6, r5, #40, 6	; 0xa0000000
    a148:	64685f72 	strbtvs	r5, [r8], #-3954	; 0xf72
    a14c:	000a2972 	andeq	r2, sl, r2, ror r9
    a150:	494e4150 	stmdbmi	lr, {r4, r6, r8, lr}^
    a154:	73253a43 	teqvc	r5, #274432	; 0x43000
    a158:	3a73253a 	bcc	1cd3648 <__bss_end__+0x1cc8a90>
    a15c:	283a6425 	ldmdacs	sl!, {r0, r2, r5, sl, sp, lr}
    a160:	746e6975 	strbtvc	r6, [lr], #-2421	; 0x975
    a164:	2a745f38 	bcs	1d21e4c <__bss_end__+0x1d17294>
    a168:	78656e29 	stmdavc	r5!, {r0, r3, r5, r9, sl, fp, sp, lr}^
    a16c:	64685f74 	strbtvs	r5, [r8], #-3956	; 0xf74
    a170:	203c2072 	eorscs	r2, ip, r2, ror r0
    a174:	70616568 	rsbvc	r6, r1, r8, ror #10
    a178:	0000000a 	andeq	r0, r0, sl
    a17c:	494e4150 	stmdbmi	lr, {r4, r6, r8, lr}^
    a180:	73253a43 	teqvc	r5, #274432	; 0x43000
    a184:	3a73253a 	bcc	1cd3674 <__bss_end__+0x1cc8abc>
    a188:	633a6425 	teqvs	sl, #620756992	; 0x25000000
    a18c:	6b636568 	blvs	18e3734 <__bss_end__+0x18d8b7c>
    a190:	7264685f 	rsbvc	r6, r4, #6225920	; 0x5f0000
    a194:	78656e28 	stmdavc	r5!, {r3, r5, r9, sl, fp, sp, lr}^
    a198:	64685f74 	strbtvs	r5, [r8], #-3956	; 0xf74
    a19c:	000a2972 	andeq	r2, sl, r2, ror r9

0000a1a0 <__FUNCTION__.4279>:
    a1a0:	6b72616d 	blvs	1ca275c <__bss_end__+0x1c97ba4>
    a1a4:	00000000 	andeq	r0, r0, r0

0000a1a8 <__FUNCTION__.4307>:
    a1a8:	6b72616d 	blvs	1ca2764 <__bss_end__+0x1c97bac>
    a1ac:	6c6c615f 	stfvse	f6, [ip], #-380	; 0xfffffe84
    a1b0:	00000000 	andeq	r0, r0, r0

0000a1b4 <__FUNCTION__.4345>:
    a1b4:	65657773 	strbvs	r7, [r5, #-1907]!	; 0x773
    a1b8:	72665f70 	rsbvc	r5, r6, #112, 30	; 0x1c0
    a1bc:	00006565 	andeq	r6, r0, r5, ror #10

0000a1c0 <__FUNCTION__.4327>:
    a1c0:	63656863 	cmnvs	r5, #6488064	; 0x630000
    a1c4:	6f6e5f6b 	svcvs	0x006e5f6b
    a1c8:	61656c5f 	cmnvs	r5, pc, asr ip
    a1cc:	0000006b 	andeq	r0, r0, fp, rrx

0000a1d0 <__FUNCTION__.4331>:
    a1d0:	63656863 	cmnvs	r5, #6488064	; 0x630000
    a1d4:	68735f6b 	ldmdavs	r3!, {r0, r1, r3, r5, r6, r8, r9, sl, fp, ip, lr}^
    a1d8:	646c756f 	strbtvs	r7, [ip], #-1391	; 0x56f
    a1dc:	61656c5f 	cmnvs	r5, pc, asr ip
    a1e0:	0000006b 	andeq	r0, r0, fp, rrx

0000a1e4 <__FUNCTION__.4336>:
    a1e4:	6c706d69 	ldclvs	13, cr6, [r0], #-420	; 0xfffffe5c
    a1e8:	6e656d65 	cdpvs	13, 6, cr6, cr5, cr5, {3}
    a1ec:	68745f74 	ldmdavs	r4!, {r2, r4, r5, r6, r8, r9, sl, fp, ip, lr}^
    a1f0:	00007369 	andeq	r7, r0, r9, ror #6
    a1f4:	2d2d2d2d 	stccs	13, cr2, [sp, #-180]!	; 0xffffff4c
    a1f8:	2d2d2d2d 	stccs	13, cr2, [sp, #-180]!	; 0xffffff4c
    a1fc:	2d2d2d2d 	stccs	13, cr2, [sp, #-180]!	; 0xffffff4c
    a200:	2d2d2d2d 	stccs	13, cr2, [sp, #-180]!	; 0xffffff4c
    a204:	2d2d2d2d 	stccs	13, cr2, [sp, #-180]!	; 0xffffff4c
    a208:	2d2d2d2d 	stccs	13, cr2, [sp, #-180]!	; 0xffffff4c
    a20c:	2d2d2d2d 	stccs	13, cr2, [sp, #-180]!	; 0xffffff4c
    a210:	2d2d2d2d 	stccs	13, cr2, [sp, #-180]!	; 0xffffff4c
    a214:	2d2d2d2d 	stccs	13, cr2, [sp, #-180]!	; 0xffffff4c
    a218:	2d2d2d2d 	stccs	13, cr2, [sp, #-180]!	; 0xffffff4c
    a21c:	2d2d2d2d 	stccs	13, cr2, [sp, #-180]!	; 0xffffff4c
    a220:	2d2d2d2d 	stccs	13, cr2, [sp, #-180]!	; 0xffffff4c
    a224:	2d2d2d2d 	stccs	13, cr2, [sp, #-180]!	; 0xffffff4c
    a228:	2d2d2d2d 	stccs	13, cr2, [sp, #-180]!	; 0xffffff4c
    a22c:	00000a2d 	andeq	r0, r0, sp, lsr #20
    a230:	63656863 	cmnvs	r5, #6488064	; 0x630000
    a234:	676e696b 	strbvs	r6, [lr, -fp, ror #18]!
    a238:	726f6620 	rsbvc	r6, pc, #32, 12	; 0x2000000
    a23c:	61656c20 	cmnvs	r5, r0, lsr #24
    a240:	0a3a736b 	beq	ea6ff4 <__bss_end__+0xe9c43c>
    a244:	00000000 	andeq	r0, r0, r0
    a248:	4f525245 	svcmi	0x00525245
    a24c:	43473a52 	movtmi	r3, #31314	; 0x7a52
    a250:	4645443a 			; <UNDEFINED> instruction: 0x4645443a
    a254:	54494e49 	strbpl	r4, [r9], #-3657	; 0xe49
    a258:	454c2045 	strbmi	r2, [ip, #-69]	; 0x45
    a25c:	6f204b41 	svcvs	0x00204b41
    a260:	78252066 	stmdavc	r5!, {r1, r2, r5, r6, sp}
    a264:	0000000a 	andeq	r0, r0, sl
    a268:	4f525245 	svcmi	0x00525245
    a26c:	43473a52 	movtmi	r3, #31314	; 0x7a52
    a270:	59414d3a 	stmdbpl	r1, {r1, r3, r4, r5, r8, sl, fp, lr}^
    a274:	4c204542 	cfstr32mi	mvfx4, [r0], #-264	; 0xfffffef8
    a278:	204b4145 	subcs	r4, fp, r5, asr #2
    a27c:	2520666f 	strcs	r6, [r0, #-1647]!	; 0x66f
    a280:	6e282078 	mcrvs	0, 1, r2, cr8, cr8, {3}
    a284:	6f70206f 	svcvs	0x0070206f
    a288:	65746e69 	ldrbvs	r6, [r4, #-3689]!	; 0xe69
    a28c:	6f742072 	svcvs	0x00742072
    a290:	65687420 	strbvs	r7, [r8, #-1056]!	; 0x420
    a294:	61747320 	cmnvs	r4, r0, lsr #6
    a298:	0a297472 	beq	a67468 <__bss_end__+0xa5c8b0>
    a29c:	00000000 	andeq	r0, r0, r0
    a2a0:	3a434709 	bcc	10dbecc <__bss_end__+0x10d1314>
    a2a4:	63656843 	cmnvs	r5, #4390912	; 0x430000
    a2a8:	2064656b 	rsbcs	r6, r4, fp, ror #10
    a2ac:	62206425 	eorvs	r6, r0, #620756992	; 0x25000000
    a2b0:	6b636f6c 	blvs	18e6068 <__bss_end__+0x18db4b0>
    a2b4:	000a2e73 	andeq	r2, sl, r3, ror lr
    a2b8:	43470909 	movtmi	r0, #30985	; 0x7909
    a2bc:	4355533a 	cmpmi	r5, #-402653184	; 0xe8000000
    a2c0:	53534543 	cmppl	r3, #281018368	; 0x10c00000
    a2c4:	6f4e203a 	svcvs	0x004e203a
    a2c8:	61656c20 	cmnvs	r5, r0, lsr #24
    a2cc:	6620736b 	strtvs	r7, [r0], -fp, ror #6
    a2d0:	646e756f 	strbtvs	r7, [lr], #-1391	; 0x56f
    a2d4:	00000a21 	andeq	r0, r0, r1, lsr #20
    a2d8:	43470909 	movtmi	r0, #30985	; 0x7909
    a2dc:	5252453a 	subspl	r4, r2, #243269632	; 0xe800000
    a2e0:	3a53524f 	bcc	14dec24 <__bss_end__+0x14d406c>
    a2e4:	20642520 	rsbcs	r2, r4, r0, lsr #10
    a2e8:	6f727265 	svcvs	0x00727265
    a2ec:	202c7372 	eorcs	r7, ip, r2, ror r3
    a2f0:	6d206425 	cfstrsvs	mvf6, [r0, #-148]!	; 0xffffff6c
    a2f4:	65627961 	strbvs	r7, [r2, #-2401]!	; 0x961
    a2f8:	7272655f 	rsbsvc	r6, r2, #398458880	; 0x17c00000
    a2fc:	0a73726f 	beq	1ce6cc0 <__bss_end__+0x1cdc108>
    a300:	00000000 	andeq	r0, r0, r0
    a304:	2d2d2d2d 	stccs	13, cr2, [sp, #-180]!	; 0xffffff4c
    a308:	2d2d2d2d 	stccs	13, cr2, [sp, #-180]!	; 0xffffff4c
    a30c:	2d2d2d2d 	stccs	13, cr2, [sp, #-180]!	; 0xffffff4c
    a310:	2d2d2d2d 	stccs	13, cr2, [sp, #-180]!	; 0xffffff4c
    a314:	2d2d2d2d 	stccs	13, cr2, [sp, #-180]!	; 0xffffff4c
    a318:	2d2d2d2d 	stccs	13, cr2, [sp, #-180]!	; 0xffffff4c
    a31c:	2d2d2d2d 	stccs	13, cr2, [sp, #-180]!	; 0xffffff4c
    a320:	2d2d2d2d 	stccs	13, cr2, [sp, #-180]!	; 0xffffff4c
    a324:	2d2d2d2d 	stccs	13, cr2, [sp, #-180]!	; 0xffffff4c
    a328:	2d2d2d2d 	stccs	13, cr2, [sp, #-180]!	; 0xffffff4c
    a32c:	2d2d2d2d 	stccs	13, cr2, [sp, #-180]!	; 0xffffff4c
    a330:	2d2d2d2d 	stccs	13, cr2, [sp, #-180]!	; 0xffffff4c
    a334:	2d2d2d2d 	stccs	13, cr2, [sp, #-180]!	; 0xffffff4c
    a338:	2d2d2d2d 	stccs	13, cr2, [sp, #-180]!	; 0xffffff4c
    a33c:	000a2d2d 	andeq	r2, sl, sp, lsr #26
    a340:	494e4150 	stmdbmi	lr, {r4, r6, r8, lr}^
    a344:	73253a43 	teqvc	r5, #274432	; 0x43000
    a348:	3a73253a 	bcc	1cd3838 <__bss_end__+0x1cc8c80>
    a34c:	703a6425 	eorsvc	r6, sl, r5, lsr #8
    a350:	000a653c 	andeq	r6, sl, ip, lsr r5
    a354:	672d6b63 	strvs	r6, [sp, -r3, ror #22]!
    a358:	00632e63 	rsbeq	r2, r3, r3, ror #28
    a35c:	494e4150 	stmdbmi	lr, {r4, r6, r8, lr}^
    a360:	73253a43 	teqvc	r5, #274432	; 0x43000
    a364:	3a73253a 	bcc	1cd3854 <__bss_end__+0x1cc8c9c>
    a368:	613a6425 	teqvs	sl, r5, lsr #8
    a36c:	6e67696c 	cdpvs	9, 6, cr6, cr7, cr12, {3}
    a370:	70286465 	eorvc	r6, r8, r5, ror #8
    a374:	0a29342c 	beq	a5742c <__bss_end__+0xa4c874>
    a378:	00000000 	andeq	r0, r0, r0
    a37c:	494e4150 	stmdbmi	lr, {r4, r6, r8, lr}^
    a380:	73253a43 	teqvc	r5, #274432	; 0x43000
    a384:	3a73253a 	bcc	1cd3874 <__bss_end__+0x1cc8cbc>
    a388:	613a6425 	teqvs	sl, r5, lsr #8
    a38c:	6e67696c 	cdpvs	9, 6, cr6, cr7, cr12, {3}
    a390:	65286465 	strvs	r6, [r8, #-1125]!	; 0x465
    a394:	0a29342c 	beq	a5744c <__bss_end__+0xa4c894>
    a398:	00000000 	andeq	r0, r0, r0
    a39c:	494e4150 	stmdbmi	lr, {r4, r6, r8, lr}^
    a3a0:	73253a43 	teqvc	r5, #274432	; 0x43000
    a3a4:	3a73253a 	bcc	1cd3894 <__bss_end__+0x1cc8cdc>
    a3a8:	723a6425 	eorsvc	r6, sl, #620756992	; 0x25000000
    a3ac:	5b736765 	blpl	1ce4148 <__bss_end__+0x1cd9590>
    a3b0:	3d205d30 	stccc	13, cr5, [r0, #-192]!	; 0xffffff40
    a3b4:	7528203d 	strvc	r2, [r8, #-61]!	; 0x3d
    a3b8:	33746e69 	cmncc	r4, #1680	; 0x690
    a3bc:	29745f32 	ldmdbcs	r4!, {r1, r4, r5, r8, r9, sl, fp, ip, lr}^
    a3c0:	67657226 	strbvs	r7, [r5, -r6, lsr #4]!
    a3c4:	5d305b73 	fldmdbxpl	r0!, {d5-d61}	;@ Deprecated
    a3c8:	0000000a 	andeq	r0, r0, sl
    a3cc:	706d6f63 	rsbvc	r6, sp, r3, ror #30
    a3d0:	69746361 	ldmdbvs	r4!, {r0, r5, r6, r8, r9, sp, lr}^
    a3d4:	0a3a676e 	beq	ea4194 <__bss_end__+0xe995dc>
    a3d8:	00000000 	andeq	r0, r0, r0
    a3dc:	463a4347 	ldrtmi	r4, [sl], -r7, asr #6
    a3e0:	69454552 	stmdbvs	r5, {r1, r4, r6, r8, sl, lr}^
    a3e4:	7020676e 	eorvc	r6, r0, lr, ror #14
    a3e8:	253d7274 	ldrcs	r7, [sp, #-628]!	; 0x274
    a3ec:	00000a78 	andeq	r0, r0, r8, ror sl
    a3f0:	3a434709 	bcc	10dc01c <__bss_end__+0x10d1464>
    a3f4:	63656843 	cmnvs	r5, #4390912	; 0x430000
    a3f8:	2064656b 	rsbcs	r6, r4, fp, ror #10
    a3fc:	62206425 	eorvs	r6, r0, #620756992	; 0x25000000
    a400:	6b636f6c 	blvs	18e61b8 <__bss_end__+0x18db600>
    a404:	66202c73 			; <UNDEFINED> instruction: 0x66202c73
    a408:	64656572 	strbtvs	r6, [r5], #-1394	; 0x572
    a40c:	2c642520 	cfstr64cs	mvdx2, [r4], #-128	; 0xffffff80
    a410:	20642520 	rsbcs	r2, r4, r0, lsr #10
    a414:	65747962 	ldrbvs	r7, [r4, #-2402]!	; 0x962
    a418:	00000a73 	andeq	r0, r0, r3, ror sl
    a41c:	3a434709 	bcc	10dc048 <__bss_end__+0x10d1490>
    a420:	61746f74 	cmnvs	r4, r4, ror pc
    a424:	6c61206c 	stclvs	0, cr2, [r1], #-432	; 0xfffffe50
    a428:	61636f6c 	cmnvs	r3, ip, ror #30
    a42c:	20646574 	rsbcs	r6, r4, r4, ror r5
    a430:	6425203d 	strtvs	r2, [r5], #-61	; 0x3d
    a434:	6f74202c 	svcvs	0x0074202c
    a438:	206c6174 	rsbcs	r6, ip, r4, ror r1
    a43c:	6c616564 	cfstr64vs	mvdx6, [r1], #-400	; 0xfffffe70
    a440:	61636f6c 	cmnvs	r3, ip, ror #30
    a444:	20646574 	rsbcs	r6, r4, r4, ror r5
    a448:	6425203d 	strtvs	r2, [r5], #-61	; 0x3d
    a44c:	0000000a 	andeq	r0, r0, sl
    a450:	494e4150 	stmdbmi	lr, {r4, r6, r8, lr}^
    a454:	73253a43 	teqvc	r5, #274432	; 0x43000
    a458:	3a73253a 	bcc	1cd3948 <__bss_end__+0x1cc8d90>
    a45c:	473a6425 	ldrmi	r6, [sl, -r5, lsr #8]!
    a460:	69203a43 	stmdbvs	r0!, {r0, r1, r6, r9, fp, ip, sp}
    a464:	6c61766e 	stclvs	6, cr7, [r1], #-440	; 0xfffffe48
    a468:	65206469 	strvs	r6, [r0, #-1129]!	; 0x469
    a46c:	726f7272 	rsbvc	r7, pc, #536870919	; 0x20000007
    a470:	0a0a2121 	beq	2928fc <__bss_end__+0x287d44>
    a474:	00000000 	andeq	r0, r0, r0
    a478:	203a4347 	eorscs	r4, sl, r7, asr #6
    a47c:	43435553 	movtmi	r5, #13651	; 0x3553
    a480:	20535345 	subscs	r5, r3, r5, asr #6
    a484:	70616568 	rsbvc	r6, r1, r8, ror #10
    a488:	65686320 	strbvs	r6, [r8, #-800]!	; 0x320
    a48c:	64656b63 	strbtvs	r6, [r5], #-2915	; 0xb63
    a490:	74756f20 	ldrbtvc	r6, [r5], #-3872	; 0xf20
    a494:	0000000a 	andeq	r0, r0, sl
    a498:	494e4150 	stmdbmi	lr, {r4, r6, r8, lr}^
    a49c:	73253a43 	teqvc	r5, #274432	; 0x43000
    a4a0:	3a73253a 	bcc	1cd3990 <__bss_end__+0x1cc8dd8>
    a4a4:	473a6425 	ldrmi	r6, [sl, -r5, lsr #8]!
    a4a8:	73203a43 	teqvc	r0, #274432	; 0x43000
    a4ac:	6c756f68 	ldclvs	15, cr6, [r5], #-416	; 0xfffffe60
    a4b0:	61682064 	cmnvs	r8, r4, rrx
    a4b4:	6e206576 	mcrvs	5, 1, r6, cr0, cr6, {3}
    a4b8:	656c206f 	strbvs	r2, [ip, #-111]!	; 0x6f
    a4bc:	21736b61 	cmncs	r3, r1, ror #22
    a4c0:	00000a0a 	andeq	r0, r0, sl, lsl #20
    a4c4:	203a4347 	eorscs	r4, sl, r7, asr #6
    a4c8:	43435553 	movtmi	r5, #13651	; 0x3553
    a4cc:	3a535345 	bcc	14df1e8 <__bss_end__+0x14d4630>
    a4d0:	206f6e20 	rsbcs	r6, pc, r0, lsr #28
    a4d4:	6b61656c 	blvs	1863a8c <__bss_end__+0x1858ed4>
    a4d8:	000a2173 	andeq	r2, sl, r3, ror r1
    a4dc:	494e4150 	stmdbmi	lr, {r4, r6, r8, lr}^
    a4e0:	73253a43 	teqvc	r5, #274432	; 0x43000
    a4e4:	3a73253a 	bcc	1cd39d4 <__bss_end__+0x1cc8e1c>
    a4e8:	473a6425 	ldrmi	r6, [sl, -r5, lsr #8]!
    a4ec:	73203a43 	teqvc	r0, #274432	; 0x43000
    a4f0:	6c756f68 	ldclvs	15, cr6, [r5], #-416	; 0xfffffe60
    a4f4:	61682064 	cmnvs	r8, r4, rrx
    a4f8:	6c206576 	cfstr32vs	mvfx6, [r0], #-472	; 0xfffffe28
    a4fc:	736b6165 	cmnvc	fp, #1073741849	; 0x40000019
    a500:	000a0a21 	andeq	r0, sl, r1, lsr #20
    a504:	203a4347 	eorscs	r4, sl, r7, asr #6
    a508:	43435553 	movtmi	r5, #13651	; 0x3553
    a50c:	3a535345 	bcc	14df228 <__bss_end__+0x14d4670>
    a510:	756f6620 	strbvc	r6, [pc, #-1568]!	; 9ef8 <__FUNCTION__.4338+0x198>
    a514:	2520646e 	strcs	r6, [r0, #-1134]!	; 0x46e
    a518:	656c2064 	strbvs	r2, [ip, #-100]!	; 0x64
    a51c:	21736b61 	cmncs	r3, r1, ror #22
    a520:	0000000a 	andeq	r0, r0, sl
    a524:	494e4150 	stmdbmi	lr, {r4, r6, r8, lr}^
    a528:	73253a43 	teqvc	r5, #274432	; 0x43000
    a52c:	3a73253a 	bcc	1cd3a1c <__bss_end__+0x1cc8e64>
    a530:	643a6425 	ldrtvs	r6, [sl], #-1061	; 0x425
    a534:	6e206469 	cdpvs	4, 2, cr6, cr0, cr9, {3}
    a538:	6920746f 	stmdbvs	r0!, {r0, r1, r2, r3, r5, r6, sl, ip, sp, lr}
    a53c:	656c706d 	strbvs	r7, [ip, #-109]!	; 0x6d
    a540:	746e656d 	strbtvc	r6, [lr], #-1389	; 0x56d
    a544:	6d756420 	cfldrdvs	mvd6, [r5, #-128]!	; 0xffffff80
    a548:	65725f70 	ldrbvs	r5, [r2, #-3952]!	; 0xf70
    a54c:	0a217367 	beq	8672f0 <__bss_end__+0x85c738>
    a550:	0000000a 	andeq	r0, r0, sl

0000a554 <__FUNCTION__.4245>:
    a554:	74696d65 	strbtvc	r6, [r9], #-3429	; 0xd65
    a558:	00000000 	andeq	r0, r0, r0

0000a55c <__FUNCTION__.4193>:
    a55c:	5f697072 	svcpl	0x00697072
    a560:	5f746573 	svcpl	0x00746573
    a564:	7074756f 	rsbsvc	r7, r4, pc, ror #10
    a568:	00007475 	andeq	r7, r0, r5, ror r4

0000a56c <__FUNCTION__.4267>:
    a56c:	705f6176 	subsvc	r6, pc, r6, ror r1	; <UNPREDICTABLE>
    a570:	746e6972 	strbtvc	r6, [lr], #-2418	; 0x972
    a574:	0000006b 	andeq	r0, r0, fp, rrx
    a578:	494e4150 	stmdbmi	lr, {r4, r6, r8, lr}^
    a57c:	73253a43 	teqvc	r5, #274432	; 0x43000
    a580:	3a73253a 	bcc	1cd3a70 <__bss_end__+0x1cc8eb8>
    a584:	303a6425 	eorscc	r6, sl, r5, lsr #8
    a588:	0000000a 	andeq	r0, r0, sl
    a58c:	6362696c 	cmnvs	r2, #108, 18	; 0x1b0000
    a590:	2d61762f 	stclcs	6, cr7, [r1, #-188]!	; 0xffffff44
    a594:	6e697270 	mcrvs	2, 3, r7, cr9, cr0, {3}
    a598:	632e6b74 	teqvs	lr, #116, 22	; 0x1d000
    a59c:	00000000 	andeq	r0, r0, r0
    a5a0:	33323130 	teqcc	r2, #48, 2
    a5a4:	37363534 			; <UNDEFINED> instruction: 0x37363534
    a5a8:	00003938 	andeq	r3, r0, r8, lsr r9
    a5ac:	33323130 	teqcc	r2, #48, 2
    a5b0:	37363534 			; <UNDEFINED> instruction: 0x37363534
    a5b4:	62613938 	rsbvs	r3, r1, #56, 18	; 0xe0000
    a5b8:	66656463 	strbtvs	r6, [r5], -r3, ror #8
    a5bc:	00000000 	andeq	r0, r0, r0
    a5c0:	00003130 	andeq	r3, r0, r0, lsr r1
    a5c4:	494e4150 	stmdbmi	lr, {r4, r6, r8, lr}^
    a5c8:	73253a43 	teqvc	r5, #274432	; 0x43000
    a5cc:	3a73253a 	bcc	1cd3abc <__bss_end__+0x1cc8f04>
    a5d0:	703a6425 	eorsvc	r6, sl, r5, lsr #8
    a5d4:	5f637475 	svcpl	0x00637475
    a5d8:	000a7066 	andeq	r7, sl, r6, rrx
    a5dc:	494e4150 	stmdbmi	lr, {r4, r6, r8, lr}^
    a5e0:	73253a43 	teqvc	r5, #274432	; 0x43000
    a5e4:	3a73253a 	bcc	1cd3ad4 <__bss_end__+0x1cc8f1c>
    a5e8:	773a6425 	ldrvc	r6, [sl, -r5, lsr #8]!
    a5ec:	68746469 	ldmdavs	r4!, {r0, r3, r5, r6, sl, sp, lr}^
    a5f0:	33203c20 	teqcc	r0, #32, 24	; 0x2000
    a5f4:	00000a32 	andeq	r0, r0, r2, lsr sl
    a5f8:	494e4150 	stmdbmi	lr, {r4, r6, r8, lr}^
    a5fc:	73253a43 	teqvc	r5, #274432	; 0x43000
    a600:	3a73253a 	bcc	1cd3af0 <__bss_end__+0x1cc8f38>
    a604:	663a6425 	ldrtvs	r6, [sl], -r5, lsr #8
    a608:	74616f6c 	strbtvc	r6, [r1], #-3948	; 0xf6c
    a60c:	746f6e20 	strbtvc	r6, [pc], #-3616	; a614 <__FUNCTION__.4267+0xa8>
    a610:	616e6520 	cmnvs	lr, r0, lsr #10
    a614:	64656c62 	strbtvs	r6, [r5], #-3170	; 0xc62
    a618:	0a212121 	beq	852aa4 <__bss_end__+0x847eec>
    a61c:	00000000 	andeq	r0, r0, r0
    a620:	494e4150 	stmdbmi	lr, {r4, r6, r8, lr}^
    a624:	73253a43 	teqvc	r5, #274432	; 0x43000
    a628:	3a73253a 	bcc	1cd3b18 <__bss_end__+0x1cc8f60>
    a62c:	703a6425 	eorsvc	r6, sl, r5, lsr #8
    a630:	746e6972 	strbtvc	r6, [lr], #-2418	; 0x972
    a634:	6e203a6b 	vnmulvs.f32	s6, s0, s23
    a638:	6820746f 	stmdavs	r0!, {r0, r1, r2, r3, r5, r6, sl, ip, sp, lr}
    a63c:	6c646e61 	stclvs	14, cr6, [r4], #-388	; 0xfffffe7c
    a640:	20676e69 	rsbcs	r6, r7, r9, ror #28
    a644:	63657073 	cmnvs	r5, #115	; 0x73
    a648:	65696669 	strbvs	r6, [r9, #-1641]!	; 0x669
    a64c:	25272072 	strcs	r2, [r7, #-114]!	; 0x72
    a650:	0a0a2763 	beq	2943e4 <__bss_end__+0x28982c>
    a654:	00000000 	andeq	r0, r0, r0
    a658:	454e4f44 	strbmi	r4, [lr, #-3908]	; 0xf44
    a65c:	0a212121 	beq	852ae8 <__bss_end__+0x847f30>
    a660:	00000000 	andeq	r0, r0, r0

0000a664 <__FUNCTION__.4237>:
    a664:	6c616d6b 	stclvs	13, cr6, [r1], #-428	; 0xfffffe54
    a668:	5f636f6c 	svcpl	0x00636f6c
    a66c:	74696e69 	strbtvc	r6, [r9], #-3689	; 0xe69
    a670:	7465735f 	strbtvc	r7, [r5], #-863	; 0x35f
    a674:	6174735f 	cmnvs	r4, pc, asr r3
    a678:	00007472 	andeq	r7, r0, r2, ror r4

0000a67c <__FUNCTION__.4241>:
    a67c:	6c616d6b 	stclvs	13, cr6, [r1], #-428	; 0xfffffe54
    a680:	00636f6c 	rsbeq	r6, r3, ip, ror #30

0000a684 <__FUNCTION__.4253>:
    a684:	6c616d6b 	stclvs	13, cr6, [r1], #-428	; 0xfffffe54
    a688:	5f636f6c 	svcpl	0x00636f6c
    a68c:	67696c61 	strbvs	r6, [r9, -r1, ror #24]!
    a690:	0064656e 	rsbeq	r6, r4, lr, ror #10
    a694:	6c616d6b 	stclvs	13, cr6, [r1], #-428	; 0xfffffe54
    a698:	2e636f6c 	cdpcs	15, 6, cr6, cr3, cr12, {3}
    a69c:	00000063 	andeq	r0, r0, r3, rrx
    a6a0:	494e4150 	stmdbmi	lr, {r4, r6, r8, lr}^
    a6a4:	73253a43 	teqvc	r5, #274432	; 0x43000
    a6a8:	3a73253a 	bcc	1cd3b98 <__bss_end__+0x1cc8fe0>
    a6ac:	613a6425 	teqvs	sl, r5, lsr #8
    a6b0:	20726464 	rsbscs	r6, r2, r4, ror #8
    a6b4:	6568203e 	strbvs	r2, [r8, #-62]!	; 0x3e
    a6b8:	000a7061 	andeq	r7, sl, r1, rrx
    a6bc:	494e4150 	stmdbmi	lr, {r4, r6, r8, lr}^
    a6c0:	73253a43 	teqvc	r5, #274432	; 0x43000
    a6c4:	3a73253a 	bcc	1cd3bb4 <__bss_end__+0x1cc8ffc>
    a6c8:	733a6425 	teqvc	sl, #620756992	; 0x25000000
    a6cc:	00000a7a 	andeq	r0, r0, sl, ror sl
    a6d0:	4f525245 	svcmi	0x00525245
    a6d4:	73253a52 	teqvc	r5, #335872	; 0x52000
    a6d8:	3a73253a 	bcc	1cd3bc8 <__bss_end__+0x1cc9010>
    a6dc:	203a6425 	eorscs	r6, sl, r5, lsr #8
    a6e0:	534c4146 	movtpl	r4, #49478	; 0xc146
    a6e4:	283c2845 	ldmdacs	ip!, {r0, r2, r6, fp, sp}
    a6e8:	6c612828 	stclvs	8, cr2, [r1], #-160	; 0xffffff60
    a6ec:	6d6e6769 	stclvs	7, cr6, [lr, #-420]!	; 0xfffffe5c
    a6f0:	29746e65 	ldmdbcs	r4!, {r0, r2, r5, r6, r9, sl, fp, sp, lr}^
    a6f4:	61282d26 	teqvs	r8, r6, lsr #26
    a6f8:	6e67696c 	cdpvs	9, 6, cr6, cr7, cr12, {3}
    a6fc:	746e656d 	strbtvc	r6, [lr], #-1389	; 0x56d
    a700:	3d202929 	stccc	9, cr2, [r0, #-164]!	; 0xffffff5c
    a704:	6128203d 	teqvs	r8, sp, lsr r0
    a708:	6e67696c 	cdpvs	9, 6, cr6, cr7, cr12, {3}
    a70c:	746e656d 	strbtvc	r6, [lr], #-1389	; 0x56d
    a710:	293e2929 	ldmdbcs	lr!, {r0, r3, r5, r8, fp, sp}
    a714:	7361203a 	cmnvc	r1, #58	; 0x3a
    a718:	696d7573 	stmdbvs	sp!, {r0, r1, r4, r5, r6, r8, sl, ip, sp, lr}^
    a71c:	7020676e 	eorvc	r6, r0, lr, ror #14
    a720:	7265776f 	rsbvc	r7, r5, #29097984	; 0x1bc0000
    a724:	20666f20 	rsbcs	r6, r6, r0, lsr #30
    a728:	0a6f7774 	beq	1be8500 <__bss_end__+0x1bdd948>
    a72c:	00000000 	andeq	r0, r0, r0
    a730:	4f525245 	svcmi	0x00525245
    a734:	73253a52 	teqvc	r5, #335872	; 0x52000
    a738:	3a73253a 	bcc	1cd3c28 <__bss_end__+0x1cc9070>
    a73c:	203a6425 	eorscs	r6, sl, r5, lsr #8
    a740:	534c4146 	movtpl	r4, #49478	; 0xc146
    a744:	283c2845 	ldmdacs	ip!, {r0, r2, r6, fp, sp}
    a748:	29682828 	stmdbcs	r8!, {r3, r5, fp, sp}^
    a74c:	28202620 	stmdacs	r0!, {r5, r9, sl, sp}
    a750:	70797428 	rsbsvc	r7, r9, r8, lsr #8
    a754:	28666f65 	stmdacs	r6!, {r0, r2, r5, r6, r8, r9, sl, fp, sp, lr}^
    a758:	28292968 	stmdacs	r9!, {r3, r5, r6, r8, fp, sp}
    a75c:	67696c61 	strbvs	r6, [r9, -r1, ror #24]!
    a760:	6e656d6e 	cdpvs	13, 6, cr6, cr5, cr14, {3}
    a764:	2d202974 	stccs	9, cr2, [r0, #-464]!	; 0xfffffe30
    a768:	29293120 	stmdbcs	r9!, {r5, r8, ip, sp}
    a76c:	203d3d20 	eorscs	r3, sp, r0, lsr #26
    a770:	293e2930 	ldmdbcs	lr!, {r4, r5, r8, fp, sp}
    a774:	6d69203a 	stclvs	0, cr2, [r9, #-232]!	; 0xffffff18
    a778:	73736f70 	cmnvc	r3, #112, 30	; 0x1c0
    a77c:	656c6269 	strbvs	r6, [ip, #-617]!	; 0x269
    a780:	0000000a 	andeq	r0, r0, sl

Disassembly of section .bss:

0000a784 <__bss_start__>:
    a784:	00000000 	andeq	r0, r0, r0

0000a788 <heap>:
    a788:	00000000 	andeq	r0, r0, r0

0000a78c <heap_end>:
    a78c:	00000000 	andeq	r0, r0, r0

0000a790 <my_info>:
	...

0000a7a0 <info>:
	...

0000a7b0 <buf.4185>:
	...

0000abb0 <global_p>:
	...

Disassembly of section .ARM.attributes:

00000000 <.ARM.attributes>:
   0:	00002a41 	andeq	r2, r0, r1, asr #20
   4:	61656100 	cmnvs	r5, r0, lsl #2
   8:	01006962 	tsteq	r0, r2, ror #18
   c:	00000020 	andeq	r0, r0, r0, lsr #32
  10:	4b5a3605 	blmi	168d82c <__bss_end__+0x1682c74>
  14:	08070600 	stmdaeq	r7, {r9, sl}
  18:	12010901 	andne	r0, r1, #16384	; 0x4000
  1c:	15011404 	strne	r1, [r1, #-1028]	; 0x404
  20:	18031701 	stmdane	r3, {r0, r8, r9, sl, ip}
  24:	22011a01 	andcs	r1, r1, #4096	; 0x1000
  28:	Address 0x0000000000000028 is out of bounds.


Disassembly of section .comment:

00000000 <.comment>:
   0:	3a434347 	bcc	10d0d24 <__bss_end__+0x10c616c>
   4:	4e472820 	cdpmi	8, 4, cr2, cr7, cr0, {1}
   8:	34202955 	strtcc	r2, [r0], #-2389	; 0x955
   c:	332e382e 	teqcc	lr, #3014656	; 0x2e0000
  10:	43434700 	movtmi	r4, #14080	; 0x3700
  14:	3128203a 	teqcc	r8, sl, lsr r0
  18:	2e363a35 	mrccs	10, 1, r3, cr6, cr5, {1}
  1c:	2b312e33 	blcs	c4b8f0 <__bss_end__+0xc40d38>
  20:	326e7673 	rsbcc	r7, lr, #120586240	; 0x7300000
  24:	33303335 	teqcc	r0, #-738197504	; 0xd4000000
  28:	62312d39 	eorsvs	r2, r1, #3648	; 0xe40
  2c:	646c6975 	strbtvs	r6, [ip], #-2421	; 0x975
  30:	36202931 			; <UNDEFINED> instruction: 0x36202931
  34:	312e332e 	teqcc	lr, lr, lsr #6
  38:	31303220 	teqcc	r0, r0, lsr #4
  3c:	32363037 	eorscc	r3, r6, #55	; 0x37
  40:	Address 0x0000000000000040 is out of bounds.


Disassembly of section .debug_info:

00000000 <.debug_info>:
       0:	000002da 	ldrdeq	r0, [r0], -sl
       4:	00000004 	andeq	r0, r0, r4
       8:	01040000 	mrseq	r0, (UNDEF: 4)
       c:	00000076 	andeq	r0, r0, r6, ror r0
      10:	00017701 	andeq	r7, r1, r1, lsl #14
      14:	00002600 	andeq	r2, r0, r0, lsl #12
      18:	00801000 	addeq	r1, r0, r0
      1c:	0000c400 	andeq	ip, r0, r0, lsl #8
      20:	00000000 	andeq	r0, r0, r0
      24:	05040200 	streq	r0, [r4, #-512]	; 0x200
      28:	00746e69 	rsbseq	r6, r4, r9, ror #28
      2c:	00000003 	andeq	r0, r0, r3
      30:	37d40200 	ldrbcc	r0, [r4, r0, lsl #4]
      34:	04000000 	streq	r0, [r0], #-0
      38:	01370704 	teqeq	r7, r4, lsl #14
      3c:	01040000 	mrseq	r0, (UNDEF: 4)
      40:	0000e506 	andeq	lr, r0, r6, lsl #10
      44:	05020400 	streq	r0, [r2, #-1024]	; 0x400
      48:	00000164 	andeq	r0, r0, r4, ror #2
      4c:	5b050404 	blpl	141064 <__bss_end__+0x1364ac>
      50:	04000001 	streq	r0, [r0], #-1
      54:	01560508 	cmpeq	r6, r8, lsl #10
      58:	01040000 	mrseq	r0, (UNDEF: 4)
      5c:	0000e308 	andeq	lr, r0, r8, lsl #6
      60:	07020400 	streq	r0, [r2, -r0, lsl #8]
      64:	000000f1 	strdeq	r0, [r0], -r1
      68:	00016e03 	andeq	r6, r1, r3, lsl #28
      6c:	73340300 	teqvc	r4, #0, 6
      70:	04000000 	streq	r0, [r0], #-0
      74:	01320704 	teqeq	r2, r4, lsl #14
      78:	08040000 	stmdaeq	r4, {}	; <UNPREDICTABLE>
      7c:	00012d07 	andeq	r2, r1, r7, lsl #26
      80:	07040400 	streq	r0, [r4, -r0, lsl #8]
      84:	0000014d 	andeq	r0, r0, sp, asr #2
      88:	04060405 	streq	r0, [r6], #-1029	; 0x405
      8c:	00000090 	muleq	r0, r0, r0
      90:	ec080104 	stfs	f0, [r8], {4}
      94:	06000000 	streq	r0, [r0], -r0
      98:	00009d04 	andeq	r9, r0, r4, lsl #26
      9c:	00900700 	addseq	r0, r0, r0, lsl #14
      a0:	20080000 	andcs	r0, r8, r0
      a4:	01000001 	tsteq	r0, r1
      a8:	00008816 	andeq	r8, r0, r6, lsl r8
      ac:	00801000 	addeq	r1, r0, r0
      b0:	00008400 	andeq	r8, r0, r0, lsl #8
      b4:	749c0100 	ldrvc	r0, [ip], #256	; 0x100
      b8:	09000001 	stmdbeq	r0, {r0}
      bc:	0000018b 	andeq	r0, r0, fp, lsl #3
      c0:	00681701 	rsbeq	r1, r8, r1, lsl #14
      c4:	9a090000 	bls	2400cc <__bss_end__+0x235514>
      c8:	01000001 	tsteq	r0, r1
      cc:	00006817 	andeq	r6, r0, r7, lsl r8
      d0:	01130a00 	tsteq	r3, r0, lsl #20
      d4:	01840000 	orreq	r0, r4, r0
      d8:	03050000 	movweq	r0, #20480	; 0x5000
      dc:	00009c80 	andeq	r9, r0, r0, lsl #25
      e0:	0100700b 	tsteq	r0, fp
      e4:	0000881d 	andeq	r8, r0, sp, lsl r8
      e8:	00000000 	andeq	r0, r0, r0
      ec:	802c0c00 	eorhi	r0, ip, r0, lsl #24
      f0:	02450000 	subeq	r0, r5, #0
      f4:	010a0000 	mrseq	r0, (UNDEF: 10)
      f8:	010d0000 	mrseq	r0, (UNDEF: 13)
      fc:	00760251 	rsbseq	r0, r6, r1, asr r2
     100:	0550010d 	ldrbeq	r0, [r0, #-269]	; 0x10d
     104:	009c8803 	addseq	r8, ip, r3, lsl #16
     108:	480c0000 	stmdami	ip, {}	; <UNPREDICTABLE>
     10c:	5b000080 	blpl	314 <__code_start__-0x7cec>
     110:	2e000002 	cdpcs	0, 0, cr0, cr0, cr2, {0}
     114:	0d000001 	stceq	0, cr0, [r0, #-4]
     118:	4a015301 	bmi	54d24 <__bss_end__+0x4a16c>
     11c:	0252010d 	subseq	r0, r2, #1073741827	; 0x40000003
     120:	010d0074 	tsteq	sp, r4, ror r0
     124:	00750251 	rsbseq	r0, r5, r1, asr r2
     128:	0150010d 	cmpeq	r0, sp, lsl #2
     12c:	580c0034 	stmdapl	ip, {r2, r4, r5}
     130:	7f000080 	svcvc	0x00000080
     134:	46000002 	strmi	r0, [r0], -r2
     138:	0d000001 	stceq	0, cr0, [r0, #-4]
     13c:	34015201 	strcc	r5, [r1], #-513	; 0x201
     140:	0151010d 	cmpeq	r1, sp, lsl #2
     144:	6c0c0030 	stcvs	0, cr0, [ip], {48}	; 0x30
     148:	5b000080 	blpl	350 <__code_start__-0x7cb0>
     14c:	6a000002 	bvs	15c <__code_start__-0x7ea4>
     150:	0d000001 	stceq	0, cr0, [r0, #-4]
     154:	4d015301 	stcmi	3, cr5, [r1, #-4]
     158:	0252010d 	subseq	r0, r2, #1073741827	; 0x40000003
     15c:	010d0074 	tsteq	sp, r4, ror r0
     160:	00750251 	rsbseq	r0, r5, r1, asr r2
     164:	0150010d 	cmpeq	r0, sp, lsl #2
     168:	740e0034 	strvc	r0, [lr], #-52	; 0x34
     16c:	9e000080 	cdpls	0, 0, cr0, cr0, cr0, {4}
     170:	00000002 	andeq	r0, r0, r2
     174:	0000900f 	andeq	r9, r0, pc
     178:	00018400 	andeq	r8, r1, r0, lsl #8
     17c:	00811000 	addeq	r1, r1, r0
     180:	00040000 	andeq	r0, r4, r0
     184:	00017407 	andeq	r7, r1, r7, lsl #8
     188:	00cd1100 	sbceq	r1, sp, r0, lsl #2
     18c:	26010000 	strcs	r0, [r1], -r0
     190:	00008094 	muleq	r0, r4, r0
     194:	00000040 	andeq	r0, r0, r0, asr #32
     198:	021e9c01 	andseq	r9, lr, #256	; 0x100
     19c:	6e120000 	cdpvs	0, 1, cr0, cr2, cr0, {0}
     1a0:	372b0100 	strcc	r0, [fp, -r0, lsl #2]!
     1a4:	00000000 	andeq	r0, r0, r0
     1a8:	0c001000 	stceq	0, cr1, [r0], {-0}
     1ac:	000080a0 	andeq	r8, r0, r0, lsr #1
     1b0:	00000245 	andeq	r0, r0, r5, asr #4
     1b4:	000001c2 	andeq	r0, r0, r2, asr #3
     1b8:	0550010d 	ldrbeq	r0, [r0, #-269]	; 0x10d
     1bc:	009cc403 	addseq	ip, ip, r3, lsl #8
     1c0:	a80c0000 	stmdage	ip, {}	; <UNPREDICTABLE>
     1c4:	a5000080 	strge	r0, [r0, #-128]	; 0x80
     1c8:	d7000002 	strle	r0, [r0, -r2]
     1cc:	0d000001 	stceq	0, cr0, [r0, #-4]
     1d0:	40035001 	andmi	r5, r3, r1
     1d4:	0c002440 	cfstrseq	mvf2, [r0], {64}	; 0x40
     1d8:	000080b0 	strheq	r8, [r0], -r0
     1dc:	000002b6 			; <UNDEFINED> instruction: 0x000002b6
     1e0:	000001ec 	andeq	r0, r0, ip, ror #3
     1e4:	0350010d 	cmpeq	r0, #1073741827	; 0x40000003
     1e8:	00244040 	eoreq	r4, r4, r0, asr #32
     1ec:	0080b80c 	addeq	fp, r0, ip, lsl #16
     1f0:	0002cb00 	andeq	ip, r2, r0, lsl #22
     1f4:	00020100 	andeq	r0, r2, r0, lsl #2
     1f8:	51010d00 	tstpl	r1, r0, lsl #26
     1fc:	24404003 	strbcs	r4, [r0], #-3
     200:	80bc0e00 	adcshi	r0, ip, r0, lsl #28
     204:	00a20000 	adceq	r0, r2, r0
     208:	c8130000 	ldmdagt	r3, {}	; <UNPREDICTABLE>
     20c:	45000080 	strmi	r0, [r0, #-128]	; 0x80
     210:	0d000002 	stceq	0, cr0, [r0, #-8]
     214:	03055001 	movweq	r5, #20481	; 0x5001
     218:	00009d0c 	andeq	r9, r0, ip, lsl #26
     21c:	44140000 	ldrmi	r0, [r4], #-0
     220:	01000001 	tsteq	r0, r1
     224:	00008a15 	andeq	r8, r0, r5, lsl sl
     228:	b0030500 	andlt	r0, r3, r0, lsl #10
     22c:	090000ab 	stmdbeq	r0, {r0, r1, r3, r5, r7}
     230:	0000018b 	andeq	r0, r0, fp, lsl #3
     234:	00681701 	rsbeq	r1, r8, r1, lsl #14
     238:	9a090000 	bls	240240 <__bss_end__+0x235688>
     23c:	01000001 	tsteq	r0, r1
     240:	00006817 	andeq	r6, r0, r7, lsl r8
     244:	05171500 	ldreq	r1, [r7, #-1280]	; 0x500
     248:	29040000 	stmdbcs	r4, {}	; <UNPREDICTABLE>
     24c:	00000025 	andeq	r0, r0, r5, lsr #32
     250:	0000025b 	andeq	r0, r0, fp, asr r2
     254:	00009716 	andeq	r9, r0, r6, lsl r7
     258:	15001700 	strne	r1, [r0, #-1792]	; 0x700
     25c:	0000001e 	andeq	r0, r0, lr, lsl r0
     260:	00881105 	addeq	r1, r8, r5, lsl #2
     264:	027f0000 	rsbseq	r0, pc, #0
     268:	68160000 	ldmdavs	r6, {}	; <UNPREDICTABLE>
     26c:	16000000 	strne	r0, [r0], -r0
     270:	00000097 	muleq	r0, r7, r0
     274:	00009716 	andeq	r9, r0, r6, lsl r7
     278:	00371600 	eorseq	r1, r7, r0, lsl #12
     27c:	15000000 	strne	r0, [r0, #-0]
     280:	0000010c 	andeq	r0, r0, ip, lsl #2
     284:	00881b06 	addeq	r1, r8, r6, lsl #22
     288:	029e0000 	addseq	r0, lr, #0
     28c:	88160000 	ldmdahi	r6, {}	; <UNPREDICTABLE>
     290:	16000000 	strne	r0, [r0], -r0
     294:	00000025 	andeq	r0, r0, r5, lsr #32
     298:	00002c16 	andeq	r2, r0, r6, lsl ip
     29c:	d5180000 	ldrle	r0, [r8, #-0]
     2a0:	05000000 	streq	r0, [r0, #-0]
     2a4:	00071939 	andeq	r1, r7, r9, lsr r9
     2a8:	72040000 	andvc	r0, r4, #0
     2ac:	000002b6 			; <UNDEFINED> instruction: 0x000002b6
     2b0:	00003716 	andeq	r3, r0, r6, lsl r7
     2b4:	04150000 	ldreq	r0, [r5], #-0
     2b8:	04000001 	streq	r0, [r0], #-1
     2bc:	0000886c 	andeq	r8, r0, ip, ror #16
     2c0:	0002cb00 	andeq	ip, r2, r0, lsl #22
     2c4:	00371600 	eorseq	r1, r7, r0, lsl #12
     2c8:	1a000000 	bne	2d0 <__code_start__-0x7d30>
     2cc:	00000125 	andeq	r0, r0, r5, lsr #2
     2d0:	88160b05 	ldmdahi	r6, {r0, r2, r8, r9, fp}
     2d4:	16000000 	strne	r0, [r0], -r0
     2d8:	00000037 	andeq	r0, r0, r7, lsr r0
     2dc:	10780000 	rsbsne	r0, r8, r0
     2e0:	00040000 	andeq	r0, r4, r0
     2e4:	00000168 	andeq	r0, r0, r8, ror #2
     2e8:	00760104 	rsbseq	r0, r6, r4, lsl #2
     2ec:	73010000 	movwvc	r0, #4096	; 0x1000
     2f0:	26000002 	strcs	r0, [r0], -r2
     2f4:	d4000000 	strle	r0, [r0], #-0
     2f8:	3c000080 	stccc	0, cr0, [r0], {128}	; 0x80
     2fc:	70000008 	andvc	r0, r0, r8
     300:	02000001 	andeq	r0, r0, #1
     304:	6e690504 	cdpvs	5, 6, cr0, cr9, cr4, {0}
     308:	00030074 	andeq	r0, r3, r4, ror r0
     30c:	03000000 	movweq	r0, #0
     310:	000037d4 	ldrdeq	r3, [r0], -r4
     314:	07040400 	streq	r0, [r4, -r0, lsl #8]
     318:	00000137 	andeq	r0, r0, r7, lsr r1
     31c:	e5060104 	str	r0, [r6, #-260]	; 0x104
     320:	04000000 	streq	r0, [r0], #-0
     324:	01640502 	cmneq	r4, r2, lsl #10
     328:	04040000 	streq	r0, [r4], #-0
     32c:	00015b05 	andeq	r5, r1, r5, lsl #22
     330:	05080400 	streq	r0, [r8, #-1024]	; 0x400
     334:	00000156 	andeq	r0, r0, r6, asr r1
     338:	00038403 	andeq	r8, r3, r3, lsl #8
     33c:	652e0400 	strvs	r0, [lr, #-1024]!	; 0x400
     340:	04000000 	streq	r0, [r0], #-0
     344:	00e30801 	rsceq	r0, r3, r1, lsl #16
     348:	0e030000 	cdpeq	0, 0, cr0, cr3, cr0, {0}
     34c:	04000002 	streq	r0, [r0], #-2
     350:	00007731 	andeq	r7, r0, r1, lsr r7
     354:	07020400 	streq	r0, [r2, -r0, lsl #8]
     358:	000000f1 	strdeq	r0, [r0], -r1
     35c:	00016e03 	andeq	r6, r1, r3, lsl #28
     360:	89340400 	ldmdbhi	r4!, {sl}
     364:	04000000 	streq	r0, [r0], #-0
     368:	01320704 	teqeq	r2, r4, lsl #14
     36c:	08040000 	stmdaeq	r4, {}	; <UNPREDICTABLE>
     370:	00012d07 	andeq	r2, r1, r7, lsl #26
     374:	07040400 	streq	r0, [r4, -r0, lsl #8]
     378:	0000014d 	andeq	r0, r0, sp, asr #2
     37c:	04060405 	streq	r0, [r6], #-1029	; 0x405
     380:	000000a6 	andeq	r0, r0, r6, lsr #1
     384:	ec080104 	stfs	f0, [r8], {4}
     388:	06000000 	streq	r0, [r0], -r0
     38c:	0000b304 	andeq	fp, r0, r4, lsl #6
     390:	00a60700 	adceq	r0, r6, r0, lsl #14
     394:	a6080000 	strge	r0, [r8], -r0
     398:	c8000000 	stmdagt	r0, {}	; <UNPREDICTABLE>
     39c:	09000000 	stmdbeq	r0, {}	; <UNPREDICTABLE>
     3a0:	00000097 	muleq	r0, r7, r0
     3a4:	010a0007 	tsteq	sl, r7
     3a8:	00dd2702 	sbcseq	r2, sp, r2, lsl #14
     3ac:	f00b0000 			; <UNDEFINED> instruction: 0xf00b0000
     3b0:	0b000001 	bleq	3bc <__code_start__-0x7c44>
     3b4:	0001ea0b 	andeq	lr, r1, fp, lsl #20
     3b8:	0c000c00 	stceq	12, cr0, [r0], {-0}
     3bc:	0a29020c 	beq	a40bf4 <__bss_end__+0xa3603c>
     3c0:	0d000001 	stceq	0, cr0, [r0, #-4]
     3c4:	000008f8 	strdeq	r0, [r0], -r8
     3c8:	00ad2a02 	adceq	r2, sp, r2, lsl #20
     3cc:	0d000000 	stceq	0, cr0, [r0, #-0]
     3d0:	00000bc2 	andeq	r0, r0, r2, asr #23
     3d4:	00ad2b02 	adceq	r2, sp, r2, lsl #22
     3d8:	0d040000 	stceq	0, cr0, [r4, #-0]
     3dc:	00000362 	andeq	r0, r0, r2, ror #6
     3e0:	00372c02 	eorseq	r2, r7, r2, lsl #24
     3e4:	00080000 	andeq	r0, r8, r0
     3e8:	0002ef03 	andeq	lr, r2, r3, lsl #30
     3ec:	dd2d0200 	sfmle	f0, 4, [sp, #-0]
     3f0:	0e000000 	cdpeq	0, 0, cr0, cr0, cr0, {0}
     3f4:	000003bb 			; <UNDEFINED> instruction: 0x000003bb
     3f8:	9a300238 	bls	c00ce0 <__bss_end__+0xbf6128>
     3fc:	0d000001 	stceq	0, cr0, [r0, #-4]
     400:	000002c3 	andeq	r0, r0, r3, asr #5
     404:	007e3102 	rsbseq	r3, lr, r2, lsl #2
     408:	0d000000 	stceq	0, cr0, [r0, #-0]
     40c:	000003a1 	andeq	r0, r0, r1, lsr #7
     410:	007e3202 	rsbseq	r3, lr, r2, lsl #4
     414:	0d040000 	stceq	0, cr0, [r4, #-0]
     418:	00000783 	andeq	r0, r0, r3, lsl #15
     41c:	007e3302 	rsbseq	r3, lr, r2, lsl #6
     420:	0d080000 	stceq	0, cr0, [r8, #-0]
     424:	000002bd 			; <UNDEFINED> instruction: 0x000002bd
     428:	007e3702 	rsbseq	r3, lr, r2, lsl #14
     42c:	0d0c0000 	stceq	0, cr0, [ip, #-0]
     430:	0000029d 	muleq	r0, sp, r2
     434:	010a3902 	tsteq	sl, r2, lsl #18
     438:	0d100000 	ldceq	0, cr0, [r0, #-0]
     43c:	000002d0 	ldrdeq	r0, [r0], -r0	; <UNPREDICTABLE>
     440:	010a3a02 	tsteq	sl, r2, lsl #20
     444:	0d1c0000 	ldceq	0, cr0, [ip, #-0]
     448:	00000396 	muleq	r0, r6, r3
     44c:	007e3e02 	rsbseq	r3, lr, r2, lsl #28
     450:	0d280000 	stceq	0, cr0, [r8, #-0]
     454:	0000033b 	andeq	r0, r0, fp, lsr r3
     458:	007e3f02 	rsbseq	r3, lr, r2, lsl #30
     45c:	0d2c0000 	stceq	0, cr0, [ip, #-0]
     460:	000001c1 	andeq	r0, r0, r1, asr #3
     464:	019a4202 	orrseq	r4, sl, r2, lsl #4
     468:	0d300000 	ldceq	0, cr0, [r0, #-0]
     46c:	000001ca 	andeq	r0, r0, sl, asr #3
     470:	006c4502 	rsbeq	r4, ip, r2, lsl #10
     474:	00340000 	eorseq	r0, r4, r0
     478:	01150406 	tsteq	r5, r6, lsl #8
     47c:	8c030000 	stchi	0, cr0, [r3], {-0}
     480:	02000003 	andeq	r0, r0, #3
     484:	00011546 	andeq	r1, r1, r6, asr #10
     488:	02020a00 	andeq	r0, r2, #0, 20
     48c:	0001d049 	andeq	sp, r1, r9, asr #32
     490:	03250b00 	teqeq	r5, #0, 22
     494:	01fe0000 	mvnseq	r0, r0
     498:	0002b10b 	andeq	fp, r2, fp, lsl #2
     49c:	0b018000 	bleq	604a4 <__bss_end__+0x558ec>
     4a0:	00000236 	andeq	r0, r0, r6, lsr r2
     4a4:	170b01b8 			; <UNDEFINED> instruction: 0x170b01b8
     4a8:	b8000002 	stmdalt	r0, {r1}
     4ac:	e50e0002 	str	r0, [lr, #-2]
     4b0:	10000002 	andne	r0, r0, r2
     4b4:	020d9b02 	andeq	r9, sp, #2048	; 0x800
     4b8:	630d0000 	movwvs	r0, #53248	; 0xd000
     4bc:	0200000d 	andeq	r0, r0, #13
     4c0:	00009e9d 	muleq	r0, sp, lr
     4c4:	760d0000 	strvc	r0, [sp], -r0
     4c8:	0200000d 	andeq	r0, r0, #13
     4cc:	00009e9f 	muleq	r0, pc, lr	; <UNPREDICTABLE>
     4d0:	a70d0400 	strge	r0, [sp, -r0, lsl #8]
     4d4:	02000001 	andeq	r0, r0, #1
     4d8:	000037a2 	andeq	r3, r0, r2, lsr #15
     4dc:	470d0800 	strmi	r0, [sp, -r0, lsl #16]
     4e0:	02000003 	andeq	r0, r0, #3
     4e4:	000037a4 	andeq	r3, r0, r4, lsr #15
     4e8:	0f000c00 	svceq	0x00000c00
     4ec:	000001e0 	andeq	r0, r0, r0, ror #3
     4f0:	009e5702 	addseq	r5, lr, r2, lsl #14
     4f4:	27030000 	strcs	r0, [r3, -r0]
     4f8:	10000002 	andne	r0, r0, r2
     4fc:	57020068 	strpl	r0, [r2, -r8, rrx]
     500:	00000227 	andeq	r0, r0, r7, lsr #4
     504:	a0040600 	andge	r0, r4, r0, lsl #12
     508:	0f000001 	svceq	0x00000001
     50c:	000002d9 	ldrdeq	r0, [r0], -r9
     510:	009e5902 	addseq	r5, lr, r2, lsl #18
     514:	47030000 	strmi	r0, [r3, -r0]
     518:	10000002 	andne	r0, r0, r2
     51c:	59020068 	stmdbpl	r2, {r3, r5, r6}
     520:	00000227 	andeq	r0, r0, r7, lsr #4
     524:	03030f00 	movweq	r0, #16128	; 0x3f00
     528:	5b020000 	blpl	80530 <__bss_end__+0x75978>
     52c:	0000009e 	muleq	r0, lr, r0
     530:	00026103 	andeq	r6, r2, r3, lsl #2
     534:	00681000 	rsbeq	r1, r8, r0
     538:	02275b02 	eoreq	r5, r7, #2048	; 0x800
     53c:	0f000000 	svceq	0x00000000
     540:	00000369 	andeq	r0, r0, r9, ror #6
     544:	00375d02 	eorseq	r5, r7, r2, lsl #26
     548:	7b030000 	blvc	c0550 <__bss_end__+0xb5998>
     54c:	10000002 	andne	r0, r0, r2
     550:	5d020068 	stcpl	0, cr0, [r2, #-416]	; 0xfffffe60
     554:	00000227 	andeq	r0, r0, r7, lsr #4
     558:	01f80f00 	mvnseq	r0, r0, lsl #30
     55c:	5f020000 	svcpl	0x00020000
     560:	00000227 	andeq	r0, r0, r7, lsr #4
     564:	00029703 	andeq	r9, r2, r3, lsl #14
     568:	01d11100 	bicseq	r1, r1, r0, lsl #2
     56c:	5f020000 	svcpl	0x00020000
     570:	0000009e 	muleq	r0, lr, r0
     574:	025b0f00 	subseq	r0, fp, #0, 30
     578:	63020000 	movwvs	r0, #8192	; 0x2000
     57c:	00000037 	andeq	r0, r0, r7, lsr r0
     580:	0002b103 	andeq	fp, r2, r3, lsl #2
     584:	00681000 	rsbeq	r1, r8, r0
     588:	02276302 	eoreq	r6, r7, #134217728	; 0x8000000
     58c:	12000000 	andne	r0, r0, #0
     590:	00000315 	andeq	r0, r0, r5, lsl r3
     594:	d0038302 	andle	r8, r3, r2, lsl #6
     598:	10000002 	andne	r0, r0, r2
     59c:	83020068 	movwhi	r0, #8296	; 0x2068
     5a0:	00000227 	andeq	r0, r0, r7, lsr #4
     5a4:	02006c13 	andeq	r6, r0, #4864	; 0x1300
     5a8:	0002d085 	andeq	sp, r2, r5, lsl #1
     5ac:	04060000 	streq	r0, [r6], #-0
     5b0:	0000010a 	andeq	r0, r0, sl, lsl #2
     5b4:	0003b114 	andeq	fp, r3, r4, lsl r1
     5b8:	25340100 	ldrcs	r0, [r4, #-256]!	; 0x100
     5bc:	d4000000 	strle	r0, [r0], #-0
     5c0:	00000080 	andeq	r0, r0, r0, lsl #1
     5c4:	01000001 	tsteq	r0, r1
     5c8:	00045a9c 	muleq	r4, ip, sl
     5cc:	00681500 	rsbeq	r1, r8, r0, lsl #10
     5d0:	02273401 	eoreq	r3, r7, #16777216	; 0x1000000
     5d4:	001e0000 	andseq	r0, lr, r0
     5d8:	70150000 	andsvc	r0, r5, r0
     5dc:	a0340100 	eorsge	r0, r4, r0, lsl #2
     5e0:	52000000 	andpl	r0, r0, #0
     5e4:	16000000 	strne	r0, [r0], -r0
     5e8:	0000036f 	andeq	r0, r0, pc, ror #6
     5ec:	00373401 	eorseq	r3, r7, r1, lsl #8
     5f0:	007e0000 	rsbseq	r0, lr, r0
     5f4:	69170000 	ldmdbvs	r7, {}	; <UNPREDICTABLE>
     5f8:	25350100 	ldrcs	r0, [r5, #-256]!	; 0x100
     5fc:	aa000000 	bge	604 <__code_start__-0x79fc>
     600:	18000000 	stmdane	r0, {}	; <UNPREDICTABLE>
     604:	000080f4 	strdeq	r8, [r0], -r4
     608:	000000b0 	strheq	r0, [r0], -r0	; <UNPREDICTABLE>
     60c:	0001cf19 	andeq	ip, r1, r9, lsl pc
     610:	a0380100 	eorsge	r0, r8, r0, lsl #2
     614:	01000000 	mrseq	r0, (UNDEF: 0)
     618:	096f1a57 	stmdbeq	pc!, {r0, r1, r2, r4, r6, r9, fp, ip}^	; <UNPREDICTABLE>
     61c:	39010000 	stmdbcc	r1, {}	; <UNPREDICTABLE>
     620:	00000025 	andeq	r0, r0, r5, lsr #32
     624:	000000d4 	ldrdeq	r0, [r0], -r4
     628:	0002b11b 	andeq	fp, r2, fp, lsl r1
     62c:	00812000 	addeq	r2, r1, r0
     630:	00007000 	andeq	r7, r0, r0
     634:	f73a0100 			; <UNDEFINED> instruction: 0xf73a0100
     638:	1c000003 	stcne	0, cr0, [r0], {3}
     63c:	000002bd 			; <UNDEFINED> instruction: 0x000002bd
     640:	000000e7 	andeq	r0, r0, r7, ror #1
     644:	00812018 	addeq	r2, r1, r8, lsl r0
     648:	00007000 	andeq	r7, r0, r0
     64c:	02c61d00 	sbceq	r1, r6, #0, 26
     650:	00fa0000 	rscseq	r0, sl, r0
     654:	281e0000 	ldmdacs	lr, {}	; <UNPREDICTABLE>
     658:	17000081 	strne	r0, [r0, -r1, lsl #1]
     65c:	8c000010 	stchi	0, cr0, [r0], {16}
     660:	1f000003 	svcne	0x00000003
     664:	76025001 	strvc	r5, [r2], -r1
     668:	341e0000 	ldrcc	r0, [lr], #-0
     66c:	17000081 	strne	r0, [r0, -r1, lsl #1]
     670:	a3000010 	movwge	r0, #16
     674:	1f000003 	svcne	0x00000003
     678:	03055001 	movweq	r5, #20481	; 0x5001
     67c:	00009da0 	andeq	r9, r0, r0, lsr #27
     680:	81481e00 	cmphi	r8, r0, lsl #28
     684:	10170000 	andsne	r0, r7, r0
     688:	03b70000 			; <UNDEFINED> instruction: 0x03b70000
     68c:	011f0000 	tsteq	pc, r0
     690:	00760250 	rsbseq	r0, r6, r0, asr r2
     694:	815c1e00 	cmphi	ip, r0, lsl #28
     698:	10170000 	andsne	r0, r7, r0
     69c:	03ce0000 	biceq	r0, lr, #0
     6a0:	011f0000 	tsteq	pc, r0
     6a4:	ac030550 	cfstr32ge	mvfx0, [r3], {80}	; 0x50
     6a8:	0000009d 	muleq	r0, sp, r0
     6ac:	00817c1e 	addeq	r7, r1, lr, lsl ip
     6b0:	00101700 	andseq	r1, r0, r0, lsl #14
     6b4:	0003e200 	andeq	lr, r3, r0, lsl #4
     6b8:	50011f00 	andpl	r1, r1, r0, lsl #30
     6bc:	00007602 	andeq	r7, r0, r2, lsl #12
     6c0:	00819020 	addeq	r9, r1, r0, lsr #32
     6c4:	00101700 	andseq	r1, r0, r0, lsl #14
     6c8:	50011f00 	andpl	r1, r1, r0, lsl #30
     6cc:	9dcc0305 	stclls	3, cr0, [ip, #20]
     6d0:	00000000 	andeq	r0, r0, r0
     6d4:	81081e00 	tsthi	r8, r0, lsl #28
     6d8:	10170000 	andsne	r0, r7, r0
     6dc:	040b0000 	streq	r0, [fp], #-0
     6e0:	011f0000 	tsteq	pc, r0
     6e4:	00760250 	rsbseq	r0, r6, r0, asr r2
     6e8:	81101e00 	tsthi	r0, r0, lsl #28
     6ec:	10170000 	andsne	r0, r7, r0
     6f0:	04220000 	strteq	r0, [r2], #-0
     6f4:	011f0000 	tsteq	pc, r0
     6f8:	74030550 	strvc	r0, [r3], #-1360	; 0x550
     6fc:	0000009d 	muleq	r0, sp, r0
     700:	0081201e 	addeq	r2, r1, lr, lsl r0
     704:	00101700 	andseq	r1, r0, r0, lsl #14
     708:	00044500 	andeq	r4, r4, r0, lsl #10
     70c:	52011f00 	andpl	r1, r1, #0, 30
     710:	1f007802 	svcne	0x00007802
     714:	77025101 	strvc	r5, [r2, -r1, lsl #2]
     718:	50011f00 	andpl	r1, r1, r0, lsl #30
     71c:	9d7c0305 	ldclls	3, cr0, [ip, #-20]!	; 0xffffffec
     720:	20000000 	andcs	r0, r0, r0
     724:	0000819c 	muleq	r0, ip, r1
     728:	00001017 	andeq	r1, r0, r7, lsl r0
     72c:	0550011f 	ldrbeq	r0, [r0, #-287]	; 0x11f
     730:	009de803 	addseq	lr, sp, r3, lsl #16
     734:	00000000 	andeq	r0, r0, r0
     738:	00032e21 	andeq	r2, r3, r1, lsr #28
     73c:	d4420100 	strble	r0, [r2], #-256	; 0x100
     740:	14000081 	strne	r0, [r0], #-129	; 0x81
     744:	01000000 	mrseq	r0, (UNDEF: 0)
     748:	0004aa9c 	muleq	r4, ip, sl
     74c:	00701500 	rsbseq	r1, r0, r0, lsl #10
     750:	009e4201 	addseq	r4, lr, r1, lsl #4
     754:	011c0000 	tsteq	ip, r0
     758:	6f160000 	svcvs	0x00160000
     75c:	01000003 	tsteq	r0, r3
     760:	00003742 	andeq	r3, r0, r2, asr #14
     764:	00013d00 	andeq	r3, r1, r0, lsl #26
     768:	81e42000 	mvnhi	r2, r0
     76c:	102d0000 	eorne	r0, sp, r0
     770:	011f0000 	tsteq	pc, r0
     774:	01f30352 	mvnseq	r0, r2, asr r3
     778:	51011f51 	tstpl	r1, r1, asr pc
     77c:	1ffe0802 	svcne	0x00fe0802
     780:	f3035001 	vhadd.u8	d5, d3, d1
     784:	00005001 	andeq	r5, r0, r1
     788:	0002a714 	andeq	sl, r2, r4, lsl r7
     78c:	7e190100 	mufvce	f0, f1, f0
     790:	e8000000 	stmda	r0, {}	; <UNPREDICTABLE>
     794:	48000081 	stmdami	r0, {r0, r7}
     798:	01000000 	mrseq	r0, (UNDEF: 0)
     79c:	00052e9c 	muleq	r5, ip, lr
     7a0:	00681500 	rsbeq	r1, r8, r0, lsl #10
     7a4:	02271901 	eoreq	r1, r7, #16384	; 0x4000
     7a8:	01690000 	cmneq	r9, r0
     7ac:	b9190000 	ldmdblt	r9, {}	; <UNPREDICTABLE>
     7b0:	01000002 	tsteq	r0, r2
     7b4:	0000371a 	andeq	r3, r0, sl, lsl r7
     7b8:	19580100 	ldmdbne	r8, {r8}^
     7bc:	00000392 	muleq	r0, r2, r3
     7c0:	00371b01 	eorseq	r1, r7, r1, lsl #22
     7c4:	57010000 	strpl	r0, [r1, -r0]
     7c8:	00033719 	andeq	r3, r3, r9, lsl r7
     7cc:	371c0100 	ldrcc	r0, [ip, -r0, lsl #2]
     7d0:	01000000 	mrseq	r0, (UNDEF: 0)
     7d4:	01c61956 	biceq	r1, r6, r6, asr r9
     7d8:	1d010000 	stcne	0, cr0, [r1, #-0]
     7dc:	00000037 	andeq	r0, r0, r7, lsr r0
     7e0:	0a007507 	beq	1dc04 <__bss_end__+0x1304c>
     7e4:	9f1affff 	svcls	0x001affff
     7e8:	0002bd19 	andeq	fp, r2, r9, lsl sp
     7ec:	7e220100 	sufvcs	f0, f2, f0
     7f0:	01000000 	mrseq	r0, (UNDEF: 0)
     7f4:	821c2050 	andshi	r2, ip, #80	; 0x50
     7f8:	104c0000 	subne	r0, ip, r0
     7fc:	011f0000 	tsteq	pc, r0
     800:	38080251 	stmdacc	r8, {r0, r4, r6, r9}
     804:	0250011f 	subseq	r0, r0, #-1073741817	; 0xc0000007
     808:	00000074 	andeq	r0, r0, r4, ror r0
     80c:	0002f914 	andeq	pc, r2, r4, lsl r9	; <UNPREDICTABLE>
     810:	252b0100 	strcs	r0, [fp, #-256]!	; 0x100
     814:	30000000 	andcc	r0, r0, r0
     818:	78000082 	stmdavc	r0, {r1, r7}
     81c:	01000000 	mrseq	r0, (UNDEF: 0)
     820:	0006099c 	muleq	r6, ip, r9
     824:	00681500 	rsbeq	r1, r8, r0, lsl #10
     828:	02272b01 	eoreq	r2, r7, #1024	; 0x400
     82c:	01870000 	orreq	r0, r7, r0
     830:	761a0000 	ldrvc	r0, [sl], -r0
     834:	01000003 	tsteq	r0, r3
     838:	00007e2c 	andeq	r7, r0, ip, lsr #28
     83c:	0001a500 	andeq	sl, r1, r0, lsl #10
     840:	01132200 	tsteq	r3, r0, lsl #4
     844:	06190000 	ldreq	r0, [r9], -r0
     848:	03050000 	movweq	r0, #20480	; 0x5000
     84c:	00009d1c 	andeq	r9, r0, ip, lsl sp
     850:	00823c1e 	addeq	r3, r2, lr, lsl ip
     854:	0004aa00 	andeq	sl, r4, r0, lsl #20
     858:	00058600 	andeq	r8, r5, r0, lsl #12
     85c:	50011f00 	andpl	r1, r1, r0, lsl #30
     860:	00007402 	andeq	r7, r0, r2, lsl #8
     864:	00824c23 	addeq	r4, r2, r3, lsr #24
     868:	00106d00 	andseq	r6, r0, r0, lsl #26
     86c:	82601e00 	rsbhi	r1, r0, #0, 28
     870:	10170000 	andsne	r0, r7, r0
     874:	05be0000 	ldreq	r0, [lr, #0]!
     878:	011f0000 	tsteq	pc, r0
     87c:	2f080253 	svccs	0x00080253
     880:	0552011f 	ldrbeq	r0, [r2, #-287]	; 0x11f
     884:	009d1c03 	addseq	r1, sp, r3, lsl #24
     888:	51011f00 	tstpl	r1, r0, lsl #30
     88c:	9e200305 	cdpls	3, 2, cr0, cr0, cr5, {0}
     890:	011f0000 	tsteq	pc, r0
     894:	f4030550 	vst3.16	{d0,d2,d4}, [r3 :64], r0
     898:	0000009d 	muleq	r0, sp, r0
     89c:	00826423 	addeq	r6, r2, r3, lsr #8
     8a0:	00107400 	andseq	r7, r0, r0, lsl #8
     8a4:	82782300 	rsbshi	r2, r8, #0, 6
     8a8:	106d0000 	rsbne	r0, sp, r0
     8ac:	8c1e0000 	ldchi	0, cr0, [lr], {-0}
     8b0:	17000082 	strne	r0, [r0, -r2, lsl #1]
     8b4:	ff000010 			; <UNDEFINED> instruction: 0xff000010
     8b8:	1f000005 	svcne	0x00000005
     8bc:	08025301 	stmdaeq	r2, {r0, r8, r9, ip, lr}
     8c0:	52011f30 	andpl	r1, r1, #48, 30	; 0xc0
     8c4:	9d1c0305 	ldcls	3, cr0, [ip, #-20]	; 0xffffffec
     8c8:	011f0000 	tsteq	pc, r0
     8cc:	20030551 	andcs	r0, r3, r1, asr r5
     8d0:	1f00009e 	svcne	0x0000009e
     8d4:	03055001 	movweq	r5, #20481	; 0x5001
     8d8:	00009e2c 	andeq	r9, r0, ip, lsr #28
     8dc:	82902300 	addshi	r2, r0, #0, 6
     8e0:	10740000 	rsbsne	r0, r4, r0
     8e4:	08000000 	stmdaeq	r0, {}	; <UNPREDICTABLE>
     8e8:	000000a6 	andeq	r0, r0, r6, lsr #1
     8ec:	00000619 	andeq	r0, r0, r9, lsl r6
     8f0:	00009709 	andeq	r9, r0, r9, lsl #14
     8f4:	07000900 	streq	r0, [r0, -r0, lsl #18]
     8f8:	00000609 	andeq	r0, r0, r9, lsl #12
     8fc:	00035614 	andeq	r5, r3, r4, lsl r6
     900:	254c0100 	strbcs	r0, [ip, #-256]	; 0x100
     904:	a8000000 	stmdage	r0, {}	; <UNPREDICTABLE>
     908:	70000082 	andvc	r0, r0, r2, lsl #1
     90c:	01000000 	mrseq	r0, (UNDEF: 0)
     910:	0006c39c 	muleq	r6, ip, r3
     914:	00681500 	rsbeq	r1, r8, r0, lsl #10
     918:	02274c01 	eoreq	r4, r7, #256	; 0x100
     91c:	01ce0000 	biceq	r0, lr, r0
     920:	471b0000 	ldrmi	r0, [fp, -r0]
     924:	d4000002 	strle	r0, [r0], #-2
     928:	08000082 	stmdaeq	r0, {r1, r7}
     92c:	01000000 	mrseq	r0, (UNDEF: 0)
     930:	00066150 	andeq	r6, r6, r0, asr r1
     934:	02571c00 	subseq	r1, r7, #0, 24
     938:	01ec0000 	mvneq	r0, r0
     93c:	1b000000 	blne	944 <__code_start__-0x76bc>
     940:	00000261 	andeq	r0, r0, r1, ror #4
     944:	000082dc 	ldrdeq	r8, [r0], -ip
     948:	00000004 	andeq	r0, r0, r4
     94c:	067e5001 	ldrbteq	r5, [lr], -r1
     950:	711c0000 	tstvc	ip, r0
     954:	0a000002 	beq	964 <__code_start__-0x769c>
     958:	00000002 	andeq	r0, r0, r2
     95c:	0082b41e 	addeq	fp, r2, lr, lsl r4
     960:	00052e00 	andeq	r2, r5, r0, lsl #28
     964:	00069200 	andeq	r9, r6, r0, lsl #4
     968:	50011f00 	andpl	r1, r1, r0, lsl #30
     96c:	00007402 	andeq	r7, r0, r2, lsl #8
     970:	0082cc1e 	addeq	ip, r2, lr, lsl ip
     974:	0002d600 	andeq	sp, r2, r0, lsl #12
     978:	0006b200 	andeq	fp, r6, r0, lsl #4
     97c:	52011f00 	andpl	r1, r1, #0, 30
     980:	1f800802 	svcne	0x00800802
     984:	74025101 	strvc	r5, [r2], #-257	; 0x101
     988:	50011f38 	andpl	r1, r1, r8, lsr pc
     98c:	00007402 	andeq	r7, r0, r2, lsl #8
     990:	0082f020 	addeq	pc, r2, r0, lsr #32
     994:	0002d600 	andeq	sp, r2, r0, lsl #12
     998:	50011f00 	andpl	r1, r1, r0, lsl #30
     99c:	00007402 	andeq	r7, r0, r2, lsl #8
     9a0:	01252400 	teqeq	r5, r0, lsl #8
     9a4:	0c010000 	stceq	0, cr0, [r1], {-0}
     9a8:	00008318 	andeq	r8, r0, r8, lsl r3
     9ac:	00000088 	andeq	r0, r0, r8, lsl #1
     9b0:	07639c01 	strbeq	r9, [r3, -r1, lsl #24]!
     9b4:	68160000 	ldmdavs	r6, {}	; <UNPREDICTABLE>
     9b8:	0100000d 	tsteq	r0, sp
     9bc:	00009e0c 	andeq	r9, r0, ip, lsl #28
     9c0:	00022800 	andeq	r2, r2, r0, lsl #16
     9c4:	006e1500 	rsbeq	r1, lr, r0, lsl #10
     9c8:	00370c01 	eorseq	r0, r7, r1, lsl #24
     9cc:	025c0000 	subseq	r0, ip, #0
     9d0:	13220000 	teqne	r2, #0
     9d4:	63000001 	movwvs	r0, #1
     9d8:	05000007 	streq	r0, [r0, #-7]
     9dc:	009d2803 	addseq	r2, sp, r3, lsl #16
     9e0:	83382300 	teqhi	r8, #0, 6
     9e4:	106d0000 	rsbne	r0, sp, r0
     9e8:	4c1e0000 	ldcmi	0, cr0, [lr], {-0}
     9ec:	17000083 	strne	r0, [r0, -r3, lsl #1]
     9f0:	3a000010 	bcc	a38 <__code_start__-0x75c8>
     9f4:	1f000007 	svcne	0x00000007
     9f8:	3d015301 	stccc	3, cr5, [r1, #-4]
     9fc:	0552011f 	ldrbeq	r0, [r2, #-287]	; 0x11f
     a00:	009d2803 	addseq	r2, sp, r3, lsl #16
     a04:	51011f00 	tstpl	r1, r0, lsl #30
     a08:	9e200305 	cdpls	3, 2, cr0, cr0, cr5, {0}
     a0c:	011f0000 	tsteq	pc, r0
     a10:	68030550 	stmdavs	r3, {r4, r6, r8, sl}
     a14:	0000009e 	muleq	r0, lr, r0
     a18:	00835023 	addeq	r5, r3, r3, lsr #32
     a1c:	00107400 	andseq	r7, r0, r0, lsl #8
     a20:	83602000 	cmnhi	r0, #0
     a24:	10170000 	andsne	r0, r7, r0
     a28:	011f0000 	tsteq	pc, r0
     a2c:	80080252 	andhi	r0, r8, r2, asr r2
     a30:	0251011f 	subseq	r0, r1, #-1073741817	; 0xc0000007
     a34:	011f3808 	tsteq	pc, r8, lsl #16
     a38:	90030550 	andls	r0, r3, r0, asr r5
     a3c:	0000009e 	muleq	r0, lr, r0
     a40:	00b80700 	adcseq	r0, r8, r0, lsl #14
     a44:	7d240000 	stcvc	0, cr0, [r4, #-0]
     a48:	01000002 	tsteq	r0, r2
     a4c:	0083a058 	addeq	sl, r3, r8, asr r0
     a50:	0000d000 	andeq	sp, r0, r0
     a54:	839c0100 	orrshi	r0, ip, #0, 2
     a58:	16000008 	strne	r0, [r0], -r8
     a5c:	000001d1 	ldrdeq	r0, [r0], -r1
     a60:	009e5801 	addseq	r5, lr, r1, lsl #16
     a64:	029e0000 	addseq	r0, lr, #0
     a68:	f8160000 			; <UNDEFINED> instruction: 0xf8160000
     a6c:	01000008 	tsteq	r0, r8
     a70:	0000ad58 	andeq	sl, r0, r8, asr sp
     a74:	0002bc00 	andeq	fp, r2, r0, lsl #24
     a78:	0bc21600 	bleq	ff086280 <__bss_end__+0xff07b6c8>
     a7c:	58010000 	stmdapl	r1, {}	; <UNPREDICTABLE>
     a80:	000000ad 	andeq	r0, r0, sp, lsr #1
     a84:	000002f0 	strdeq	r0, [r0], -r0	; <UNPREDICTABLE>
     a88:	00036216 	andeq	r6, r3, r6, lsl r2
     a8c:	37580100 	ldrbcc	r0, [r8, -r0, lsl #2]
     a90:	24000000 	strcs	r0, [r0], #-0
     a94:	17000003 	strne	r0, [r0, -r3]
     a98:	59010068 	stmdbpl	r1, {r3, r5, r6}
     a9c:	00000227 	andeq	r0, r0, r7, lsr #4
     aa0:	00000358 	andeq	r0, r0, r8, asr r3
     aa4:	00011322 	andeq	r1, r1, r2, lsr #6
     aa8:	00089300 	andeq	r9, r8, r0, lsl #6
     aac:	30030500 	andcc	r0, r3, r0, lsl #10
     ab0:	2300009d 	movwcs	r0, #157	; 0x9d
     ab4:	000083c8 	andeq	r8, r0, r8, asr #7
     ab8:	0000106d 	andeq	r1, r0, sp, rrx
     abc:	0083dc1e 	addeq	sp, r3, lr, lsl ip
     ac0:	00101700 	andseq	r1, r0, r0, lsl #14
     ac4:	00080d00 	andeq	r0, r8, r0, lsl #26
     ac8:	53011f00 	movwpl	r1, #7936	; 0x1f00
     acc:	1f5a0802 	svcne	0x005a0802
     ad0:	03055201 	movweq	r5, #20993	; 0x5201
     ad4:	00009d30 	andeq	r9, r0, r0, lsr sp
     ad8:	0551011f 	ldrbeq	r0, [r1, #-287]	; 0x11f
     adc:	009e2003 	addseq	r2, lr, r3
     ae0:	50011f00 	andpl	r1, r1, r0, lsl #30
     ae4:	9eac0305 	cdpls	3, 10, cr0, cr12, cr5, {0}
     ae8:	23000000 	movwcs	r0, #0
     aec:	000083e0 	andeq	r8, r0, r0, ror #7
     af0:	00001074 	andeq	r1, r0, r4, ror r0
     af4:	0083e81e 	addeq	lr, r3, lr, lsl r8
     af8:	00101700 	andseq	r1, r0, r0, lsl #14
     afc:	00082d00 	andeq	r2, r8, r0, lsl #26
     b00:	50011f00 	andpl	r1, r1, r0, lsl #30
     b04:	9d6c0305 	stclls	3, cr0, [ip, #-20]!	; 0xffffffec
     b08:	1e000000 	cdpne	0, 0, cr0, cr0, cr0, {0}
     b0c:	000083f4 	strdeq	r8, [r0], -r4
     b10:	00001017 	andeq	r1, r0, r7, lsl r0
     b14:	0000084a 	andeq	r0, r0, sl, asr #16
     b18:	0251011f 	subseq	r0, r1, #-1073741817	; 0xc0000007
     b1c:	011f0074 	tsteq	pc, r4, ror r0	; <UNPREDICTABLE>
     b20:	e0030550 	and	r0, r3, r0, asr r5
     b24:	0000009e 	muleq	r0, lr, r0
     b28:	0084001e 	addeq	r0, r4, lr, lsl r0
     b2c:	00061e00 	andeq	r1, r6, r0, lsl #28
     b30:	00085e00 	andeq	r5, r8, r0, lsl #28
     b34:	50011f00 	andpl	r1, r1, r0, lsl #30
     b38:	00007502 	andeq	r7, r0, r2, lsl #10
     b3c:	0084281e 	addeq	r2, r4, lr, lsl r8
     b40:	00045a00 	andeq	r5, r4, r0, lsl #20
     b44:	00087200 	andeq	r7, r8, r0, lsl #4
     b48:	50011f00 	andpl	r1, r1, r0, lsl #30
     b4c:	00007402 	andeq	r7, r0, r2, lsl #8
     b50:	00845020 	addeq	r5, r4, r0, lsr #32
     b54:	0004aa00 	andeq	sl, r4, r0, lsl #20
     b58:	50011f00 	andpl	r1, r1, r0, lsl #30
     b5c:	00007502 	andeq	r7, r0, r2, lsl #10
     b60:	00a60800 	adceq	r0, r6, r0, lsl #16
     b64:	08930000 	ldmeq	r3, {}	; <UNPREDICTABLE>
     b68:	97090000 	strls	r0, [r9, -r0]
     b6c:	06000000 	streq	r0, [r0], -r0
     b70:	08830700 	stmeq	r3, {r8, r9, sl}
     b74:	1e250000 	cdpne	0, 2, cr0, cr5, cr0, {0}
     b78:	01000000 	mrseq	r0, (UNDEF: 0)
     b7c:	00009e74 	andeq	r9, r0, r4, ror lr
     b80:	00847000 	addeq	r7, r4, r0
     b84:	00022c00 	andeq	r2, r2, r0, lsl #24
     b88:	f99c0100 			; <UNDEFINED> instruction: 0xf99c0100
     b8c:	1600000b 	strne	r0, [r0], -fp
     b90:	0000036f 	andeq	r0, r0, pc, ror #6
     b94:	007e7401 	rsbseq	r7, lr, r1, lsl #8
     b98:	036c0000 	cmneq	ip, #0
     b9c:	f8160000 			; <UNDEFINED> instruction: 0xf8160000
     ba0:	01000008 	tsteq	r0, r8
     ba4:	0000ad74 	andeq	sl, r0, r4, ror sp
     ba8:	0003ae00 	andeq	sl, r3, r0, lsl #28
     bac:	0bc21600 	bleq	ff0863b4 <__bss_end__+0xff07b7fc>
     bb0:	74010000 	strvc	r0, [r1], #-0
     bb4:	000000ad 	andeq	r0, r0, sp, lsr #1
     bb8:	000003f0 	strdeq	r0, [r0], -r0	; <UNPREDICTABLE>
     bbc:	00036216 	andeq	r6, r3, r6, lsl r2
     bc0:	37740100 	ldrbcc	r0, [r4, -r0, lsl #2]!
     bc4:	32000000 	andcc	r0, r0, #0
     bc8:	17000004 	strne	r0, [r0, -r4]
     bcc:	75010068 	strvc	r0, [r1, #-104]	; 0x68
     bd0:	00000227 	andeq	r0, r0, r7, lsr #4
     bd4:	0000045e 	andeq	r0, r0, lr, asr r4
     bd8:	72747017 	rsbsvc	r7, r4, #23
     bdc:	9e760100 	rpwlss	f0, f6, f0
     be0:	8b000000 	blhi	be8 <__code_start__-0x7418>
     be4:	22000004 	andcs	r0, r0, #4
     be8:	00000113 	andeq	r0, r0, r3, lsl r1
     bec:	00000bf9 	strdeq	r0, [r0], -r9
     bf0:	9d380305 	ldcls	3, cr0, [r8, #-20]!	; 0xffffffec
     bf4:	74170000 	ldrvc	r0, [r7], #-0
     bf8:	0100746f 	tsteq	r0, pc, ror #8
     bfc:	0000377b 	andeq	r3, r0, fp, ror r7
     c00:	00049f00 	andeq	r9, r4, r0, lsl #30
     c04:	006e1700 	rsbeq	r1, lr, r0, lsl #14
     c08:	00377c01 	eorseq	r7, r7, r1, lsl #24
     c0c:	05050000 	streq	r0, [r5, #-0]
     c10:	471b0000 	ldrmi	r0, [fp, -r0]
     c14:	cc000002 	stcgt	0, cr0, [r0], {2}
     c18:	08000085 	stmdaeq	r0, {r0, r2, r7}
     c1c:	01000000 	mrseq	r0, (UNDEF: 0)
     c20:	00095197 	muleq	r9, r7, r1
     c24:	02571c00 	subseq	r1, r7, #0, 24
     c28:	052e0000 	streq	r0, [lr, #-0]!
     c2c:	1b000000 	blne	c34 <__code_start__-0x73cc>
     c30:	00000261 	andeq	r0, r0, r1, ror #4
     c34:	000085d4 	ldrdeq	r8, [r0], -r4
     c38:	00000004 	andeq	r0, r0, r4
     c3c:	096e9701 	stmdbeq	lr!, {r0, r8, r9, sl, ip, pc}^
     c40:	711c0000 	tstvc	ip, r0
     c44:	4f000002 	svcmi	0x00000002
     c48:	00000005 	andeq	r0, r0, r5
     c4c:	00849c23 	addeq	r9, r4, r3, lsr #24
     c50:	00106d00 	andseq	r6, r0, r0, lsl #26
     c54:	84b01e00 	ldrthi	r1, [r0], #3584	; 0xe00
     c58:	10170000 	andsne	r0, r7, r0
     c5c:	09a60000 	stmibeq	r6!, {}	; <UNPREDICTABLE>
     c60:	011f0000 	tsteq	pc, r0
     c64:	78080253 	stmdavc	r8, {r0, r1, r4, r6, r9}
     c68:	0552011f 	ldrbeq	r0, [r2, #-287]	; 0x11f
     c6c:	009d3803 	addseq	r3, sp, r3, lsl #16
     c70:	51011f00 	tstpl	r1, r0, lsl #30
     c74:	9e200305 	cdpls	3, 2, cr0, cr0, cr5, {0}
     c78:	011f0000 	tsteq	pc, r0
     c7c:	ac030550 	cfstr32ge	mvfx0, [r3], {80}	; 0x50
     c80:	0000009e 	muleq	r0, lr, r0
     c84:	0084b423 	addeq	fp, r4, r3, lsr #8
     c88:	00107400 	andseq	r7, r0, r0, lsl #8
     c8c:	84bc1e00 	ldrthi	r1, [ip], #3584	; 0xe00
     c90:	10170000 	andsne	r0, r7, r0
     c94:	09c60000 	stmibeq	r6, {}^	; <UNPREDICTABLE>
     c98:	011f0000 	tsteq	pc, r0
     c9c:	6c030550 	cfstr32vs	mvfx0, [r3], {80}	; 0x50
     ca0:	0000009d 	muleq	r0, sp, r0
     ca4:	0084c81e 	addeq	ip, r4, lr, lsl r8
     ca8:	00101700 	andseq	r1, r0, r0, lsl #14
     cac:	0009e300 	andeq	lr, r9, r0, lsl #6
     cb0:	51011f00 	tstpl	r1, r0, lsl #30
     cb4:	1f007502 	svcne	0x00007502
     cb8:	03055001 	movweq	r5, #20481	; 0x5001
     cbc:	00009eec 	andeq	r9, r0, ip, ror #29
     cc0:	84e41e00 	strbthi	r1, [r4], #3584	; 0xe00
     cc4:	10170000 	andsne	r0, r7, r0
     cc8:	09fa0000 	ldmibeq	sl!, {}^	; <UNPREDICTABLE>
     ccc:	011f0000 	tsteq	pc, r0
     cd0:	04030550 	streq	r0, [r3], #-1360	; 0x550
     cd4:	0000009f 	muleq	r0, pc, r0	; <UNPREDICTABLE>
     cd8:	0084f01e 	addeq	pc, r4, lr, lsl r0	; <UNPREDICTABLE>
     cdc:	00101700 	andseq	r1, r0, r0, lsl #14
     ce0:	000a1700 	andeq	r1, sl, r0, lsl #14
     ce4:	51011f00 	tstpl	r1, r0, lsl #30
     ce8:	1f007502 	svcne	0x00007502
     cec:	03055001 	movweq	r5, #20481	; 0x5001
     cf0:	00009f10 	andeq	r9, r0, r0, lsl pc
     cf4:	84f42300 	ldrbthi	r2, [r4], #768	; 0x300
     cf8:	106d0000 	rsbne	r0, sp, r0
     cfc:	0c1e0000 	ldceq	0, cr0, [lr], {-0}
     d00:	17000085 	strne	r0, [r0, -r5, lsl #1]
     d04:	56000010 			; <UNDEFINED> instruction: 0x56000010
     d08:	1f00000a 	svcne	0x0000000a
     d0c:	08025301 	stmdaeq	r2, {r0, r8, r9, ip, lr}
     d10:	52011f80 	andpl	r1, r1, #128, 30	; 0x200
     d14:	9d380305 	ldcls	3, cr0, [r8, #-20]!	; 0xffffffec
     d18:	011f0000 	tsteq	pc, r0
     d1c:	20030551 	andcs	r0, r3, r1, asr r5
     d20:	1f00009e 	svcne	0x0000009e
     d24:	03055001 	movweq	r5, #20481	; 0x5001
     d28:	00009f38 	andeq	r9, r0, r8, lsr pc
     d2c:	007d021f 	rsbseq	r0, sp, pc, lsl r2
     d30:	00007502 	andeq	r7, r0, r2, lsl #10
     d34:	00851023 	addeq	r1, r5, r3, lsr #32
     d38:	00107400 	andseq	r7, r0, r0, lsl #8
     d3c:	85301e00 	ldrhi	r1, [r0, #-3584]!	; 0xe00
     d40:	10170000 	andsne	r0, r7, r0
     d44:	0a760000 	beq	1d80d4c <__bss_end__+0x1d76194>
     d48:	011f0000 	tsteq	pc, r0
     d4c:	04030550 	streq	r0, [r3], #-1360	; 0x550
     d50:	0000009f 	muleq	r0, pc, r0	; <UNPREDICTABLE>
     d54:	00854c1e 	addeq	r4, r5, lr, lsl ip
     d58:	00101700 	andseq	r1, r0, r0, lsl #14
     d5c:	000a9300 	andeq	r9, sl, r0, lsl #6
     d60:	52011f00 	andpl	r1, r1, #0, 30
     d64:	1f007602 	svcne	0x00007602
     d68:	03055001 	movweq	r5, #20481	; 0x5001
     d6c:	00009f70 	andeq	r9, r0, r0, ror pc
     d70:	85502300 	ldrbhi	r2, [r0, #-768]	; 0x300
     d74:	106d0000 	rsbne	r0, sp, r0
     d78:	781e0000 	ldmdavc	lr, {}	; <UNPREDICTABLE>
     d7c:	17000085 	strne	r0, [r0, -r5, lsl #1]
     d80:	d2000010 	andle	r0, r0, #16
     d84:	1f00000a 	svcne	0x0000000a
     d88:	08025301 	stmdaeq	r2, {r0, r8, r9, ip, lr}
     d8c:	52011f84 	andpl	r1, r1, #132, 30	; 0x210
     d90:	9d380305 	ldcls	3, cr0, [r8, #-20]!	; 0xffffffec
     d94:	011f0000 	tsteq	pc, r0
     d98:	20030551 	andcs	r0, r3, r1, asr r5
     d9c:	1f00009e 	svcne	0x0000009e
     da0:	03055001 	movweq	r5, #20481	; 0x5001
     da4:	00009f9c 	muleq	r0, ip, pc	; <UNPREDICTABLE>
     da8:	047d021f 	ldrbteq	r0, [sp], #-543	; 0x21f
     dac:	00007602 	andeq	r7, r0, r2, lsl #12
     db0:	00857c23 	addeq	r7, r5, r3, lsr #24
     db4:	00107400 	andseq	r7, r0, r0, lsl #8
     db8:	85bc1e00 	ldrhi	r1, [ip, #3584]!	; 0xe00
     dbc:	04aa0000 	strteq	r0, [sl], #0
     dc0:	0aef0000 	beq	ffbc0dc8 <__bss_end__+0xffbb6210>
     dc4:	011f0000 	tsteq	pc, r0
     dc8:	00740250 	rsbseq	r0, r4, r0, asr r2
     dcc:	85cc1e00 	strbhi	r1, [ip, #3584]	; 0xe00
     dd0:	045a0000 	ldrbeq	r0, [sl], #-0
     dd4:	0b090000 	bleq	240ddc <__bss_end__+0x236224>
     dd8:	011f0000 	tsteq	pc, r0
     ddc:	80080251 	andhi	r0, r8, r1, asr r2
     de0:	0250011f 	subseq	r0, r0, #-1073741817	; 0xc0000007
     de4:	23003874 	movwcs	r3, #2164	; 0x874
     de8:	000085e4 	andeq	r8, r0, r4, ror #11
     dec:	0000045a 	andeq	r0, r0, sl, asr r4
     df0:	0085ec1e 	addeq	lr, r5, lr, lsl ip
     df4:	00052e00 	andeq	r2, r5, r0, lsl #28
     df8:	000b2600 	andeq	r2, fp, r0, lsl #12
     dfc:	50011f00 	andpl	r1, r1, r0, lsl #30
     e00:	00007402 	andeq	r7, r0, r2, lsl #8
     e04:	0085f823 	addeq	pc, r5, r3, lsr #16
     e08:	00106d00 	andseq	r6, r0, r0, lsl #26
     e0c:	860c1e00 	strhi	r1, [ip], -r0, lsl #28
     e10:	10170000 	andsne	r0, r7, r0
     e14:	0b5e0000 	bleq	1780e1c <__bss_end__+0x1776264>
     e18:	011f0000 	tsteq	pc, r0
     e1c:	9b080253 	blls	201770 <__bss_end__+0x1f6bb8>
     e20:	0552011f 	ldrbeq	r0, [r2, #-287]	; 0x11f
     e24:	009d3803 	addseq	r3, sp, r3, lsl #16
     e28:	51011f00 	tstpl	r1, r0, lsl #30
     e2c:	9e200305 	cdpls	3, 2, cr0, cr0, cr5, {0}
     e30:	011f0000 	tsteq	pc, r0
     e34:	d8030550 	stmdale	r3, {r4, r6, r8, sl}
     e38:	0000009f 	muleq	r0, pc, r0	; <UNPREDICTABLE>
     e3c:	00861023 	addeq	r1, r6, r3, lsr #32
     e40:	00107400 	andseq	r7, r0, r0, lsl #8
     e44:	86181e00 	ldrhi	r1, [r8], -r0, lsl #28
     e48:	061e0000 	ldreq	r0, [lr], -r0
     e4c:	0b7b0000 	bleq	1ec0e54 <__bss_end__+0x1eb629c>
     e50:	011f0000 	tsteq	pc, r0
     e54:	00740250 	rsbseq	r0, r4, r0, asr r2
     e58:	86242300 	strthi	r2, [r4], -r0, lsl #6
     e5c:	106d0000 	rsbne	r0, sp, r0
     e60:	381e0000 	ldmdacc	lr, {}	; <UNPREDICTABLE>
     e64:	17000086 	strne	r0, [r0, -r6, lsl #1]
     e68:	b3000010 	movwlt	r0, #16
     e6c:	1f00000b 	svcne	0x0000000b
     e70:	08025301 	stmdaeq	r2, {r0, r8, r9, ip, lr}
     e74:	52011f9c 	andpl	r1, r1, #156, 30	; 0x270
     e78:	9d380305 	ldcls	3, cr0, [r8, #-20]!	; 0xffffffec
     e7c:	011f0000 	tsteq	pc, r0
     e80:	20030551 	andcs	r0, r3, r1, asr r5
     e84:	1f00009e 	svcne	0x0000009e
     e88:	03055001 	movweq	r5, #20481	; 0x5001
     e8c:	00009ff8 	strdeq	r9, [r0], -r8
     e90:	863c2300 	ldrthi	r2, [ip], -r0, lsl #6
     e94:	10740000 	rsbsne	r0, r4, r0
     e98:	441e0000 	ldrmi	r0, [lr], #-0
     e9c:	17000086 	strne	r0, [r0, -r6, lsl #1]
     ea0:	d3000010 	movwle	r0, #16
     ea4:	1f00000b 	svcne	0x0000000b
     ea8:	03055001 	movweq	r5, #20481	; 0x5001
     eac:	00009d6c 	andeq	r9, r0, ip, ror #26
     eb0:	86582000 	ldrbhi	r2, [r8], -r0
     eb4:	10170000 	andsne	r0, r7, r0
     eb8:	011f0000 	tsteq	pc, r0
     ebc:	00770253 	rsbseq	r0, r7, r3, asr r2
     ec0:	0252011f 	subseq	r0, r2, #-1073741817	; 0xc0000007
     ec4:	011f0076 	tsteq	pc, r6, ror r0	; <UNPREDICTABLE>
     ec8:	00750251 	rsbseq	r0, r5, r1, asr r2
     ecc:	0550011f 	ldrbeq	r0, [r0, #-287]	; 0x11f
     ed0:	00a01803 	adceq	r1, r0, r3, lsl #16
     ed4:	07000000 	streq	r0, [r0, -r0]
     ed8:	000000b8 	strheq	r0, [r0], -r8
     edc:	00022725 	andeq	r2, r2, r5, lsr #14
     ee0:	25a40100 	strcs	r0, [r4, #256]!	; 0x100
     ee4:	9c000000 	stcls	0, cr0, [r0], {-0}
     ee8:	70000086 	andvc	r0, r0, r6, lsl #1
     eec:	01000001 	tsteq	r0, r1
     ef0:	000df89c 	muleq	sp, ip, r8
     ef4:	034e1a00 	movteq	r1, #59904	; 0xea00
     ef8:	a5010000 	strge	r0, [r1, #-0]
     efc:	00000037 	andeq	r0, r0, r7, lsr r0
     f00:	00000570 	andeq	r0, r0, r0, ror r5
     f04:	0003ac1a 	andeq	sl, r3, sl, lsl ip
     f08:	37a60100 	strcc	r0, [r6, r0, lsl #2]!
     f0c:	83000000 	movwhi	r0, #0
     f10:	1a000005 	bne	f2c <__code_start__-0x70d4>
     f14:	0000030d 	andeq	r0, r0, sp, lsl #6
     f18:	0037aa01 	eorseq	sl, r7, r1, lsl #20
     f1c:	05960000 	ldreq	r0, [r6]
     f20:	1f1a0000 	svcne	0x001a0000
     f24:	01000003 	tsteq	r0, r3
     f28:	000037ab 	andeq	r3, r0, fp, lsr #15
     f2c:	0005b500 	andeq	fp, r5, r0, lsl #10
     f30:	02691900 	rsbeq	r1, r9, #0, 18
     f34:	ad010000 	stcge	0, cr0, [r1, #-0]
     f38:	00000df8 	strdeq	r0, [r0], -r8
     f3c:	13225401 	teqne	r2, #16777216	; 0x1000000
     f40:	0e000001 	cdpeq	0, 0, cr0, cr0, cr1, {0}
     f44:	0500000e 	streq	r0, [r0, #-14]
     f48:	009d4003 	addseq	r4, sp, r3
     f4c:	00002600 	andeq	r2, r0, r0, lsl #12
     f50:	0d590000 	ldcleq	0, cr0, [r9, #-0]
     f54:	68170000 	ldmdavs	r7, {}	; <UNPREDICTABLE>
     f58:	27b00100 	ldrcs	r0, [r0, r0, lsl #2]!
     f5c:	d4000002 	strle	r0, [r0], #-2
     f60:	23000005 	movwcs	r0, #5
     f64:	000086f8 	strdeq	r8, [r0], -r8	; <UNPREDICTABLE>
     f68:	0000106d 	andeq	r1, r0, sp, rrx
     f6c:	00870c1e 	addeq	r0, r7, lr, lsl ip
     f70:	00101700 	andseq	r1, r0, r0, lsl #14
     f74:	000cbd00 	andeq	fp, ip, r0, lsl #26
     f78:	53011f00 	movwpl	r1, #7936	; 0x1f00
     f7c:	1faf0802 	svcne	0x00af0802
     f80:	03055201 	movweq	r5, #20993	; 0x5201
     f84:	00009d40 	andeq	r9, r0, r0, asr #26
     f88:	0551011f 	ldrbeq	r0, [r1, #-287]	; 0x11f
     f8c:	009e2003 	addseq	r2, lr, r3
     f90:	50011f00 	andpl	r1, r1, r0, lsl #30
     f94:	a0800305 	addge	r0, r0, r5, lsl #6
     f98:	23000000 	movwcs	r0, #0
     f9c:	00008710 	andeq	r8, r0, r0, lsl r7
     fa0:	00001074 	andeq	r1, r0, r4, ror r0
     fa4:	0087181e 	addeq	r1, r7, lr, lsl r8
     fa8:	00052e00 	andeq	r2, r5, r0, lsl #28
     fac:	000cda00 	andeq	sp, ip, r0, lsl #20
     fb0:	50011f00 	andpl	r1, r1, r0, lsl #30
     fb4:	00007402 	andeq	r7, r0, r2, lsl #8
     fb8:	0087281e 	addeq	r2, r7, lr, lsl r8
     fbc:	00101700 	andseq	r1, r0, r0, lsl #14
     fc0:	000cee00 	andeq	lr, ip, r0, lsl #28
     fc4:	50011f00 	andpl	r1, r1, r0, lsl #30
     fc8:	00007902 	andeq	r7, r0, r2, lsl #18
     fcc:	0087301e 	addeq	r3, r7, lr, lsl r0
     fd0:	00101700 	andseq	r1, r0, r0, lsl #14
     fd4:	000d0500 	andeq	r0, sp, r0, lsl #10
     fd8:	50011f00 	andpl	r1, r1, r0, lsl #30
     fdc:	a0a40305 	adcge	r0, r4, r5, lsl #6
     fe0:	1e000000 	cdpne	0, 0, cr0, cr0, cr0, {0}
     fe4:	00008740 	andeq	r8, r0, r0, asr #14
     fe8:	0000061e 	andeq	r0, r0, lr, lsl r6
     fec:	00000d19 	andeq	r0, r0, r9, lsl sp
     ff0:	0250011f 	subseq	r0, r0, #-1073741817	; 0xc0000007
     ff4:	1e000074 	mcrne	0, 0, r0, cr0, cr4, {3}
     ff8:	00008764 	andeq	r8, r0, r4, ror #14
     ffc:	000002d6 	ldrdeq	r0, [r0], -r6
    1000:	00000d34 	andeq	r0, r0, r4, lsr sp
    1004:	0351011f 	cmpeq	r1, #-1073741817	; 0xc0000007
    1008:	1f01b874 	svcne	0x0001b874
    100c:	74025001 	strvc	r5, [r2], #-1
    1010:	741e0000 	ldrvc	r0, [lr], #-0
    1014:	17000087 	strne	r0, [r0, -r7, lsl #1]
    1018:	48000010 	stmdami	r0, {r4}
    101c:	1f00000d 	svcne	0x0000000d
    1020:	79025001 	stmdbvc	r2, {r0, ip, lr}
    1024:	7c200000 	stcvc	0, cr0, [r0], #-0
    1028:	17000087 	strne	r0, [r0, -r7, lsl #1]
    102c:	1f000010 	svcne	0x00000010
    1030:	78025001 	stmdavc	r2, {r0, ip, lr}
    1034:	1e000000 	cdpne	0, 0, cr0, cr0, cr0, {0}
    1038:	000086c0 	andeq	r8, r0, r0, asr #13
    103c:	00001017 	andeq	r1, r0, r7, lsl r0
    1040:	00000d70 	andeq	r0, r0, r0, ror sp
    1044:	0550011f 	ldrbeq	r0, [r0, #-287]	; 0x11f
    1048:	009d6c03 	addseq	r6, sp, r3, lsl #24
    104c:	d01e0000 	andsle	r0, lr, r0
    1050:	17000086 	strne	r0, [r0, -r6, lsl #1]
    1054:	93000010 	movwls	r0, #16
    1058:	1f00000d 	svcne	0x0000000d
    105c:	75025201 	strvc	r5, [r2, #-513]	; 0x201
    1060:	51011f00 	tstpl	r1, r0, lsl #30
    1064:	1f007602 	svcne	0x00007602
    1068:	03055001 	movweq	r5, #20481	; 0x5001
    106c:	0000a048 	andeq	sl, r0, r8, asr #32
    1070:	87b41e00 	ldrhi	r1, [r4, r0, lsl #28]!
    1074:	10170000 	andsne	r0, r7, r0
    1078:	0da70000 	stceq	0, cr0, [r7]
    107c:	011f0000 	tsteq	pc, r0
    1080:	00790250 	rsbseq	r0, r9, r0, asr r2
    1084:	87c41e00 	strbhi	r1, [r4, r0, lsl #28]
    1088:	10170000 	andsne	r0, r7, r0
    108c:	0dca0000 	stcleq	0, cr0, [sl]
    1090:	011f0000 	tsteq	pc, r0
    1094:	00760252 	rsbseq	r0, r6, r2, asr r2
    1098:	0251011f 	subseq	r0, r1, #-1073741817	; 0xc0000007
    109c:	011f0075 	tsteq	pc, r5, ror r0	; <UNPREDICTABLE>
    10a0:	d4030550 	strle	r0, [r3], #-1360	; 0x550
    10a4:	000000a0 	andeq	r0, r0, r0, lsr #1
    10a8:	0087d01e 	addeq	sp, r7, lr, lsl r0
    10ac:	00101700 	andseq	r1, r0, r0, lsl #14
    10b0:	000dde00 	andeq	sp, sp, r0, lsl #28
    10b4:	50011f00 	andpl	r1, r1, r0, lsl #30
    10b8:	00007902 	andeq	r7, r0, r2, lsl #18
    10bc:	0087dc20 	addeq	sp, r7, r0, lsr #24
    10c0:	00101700 	andseq	r1, r0, r0, lsl #14
    10c4:	51011f00 	tstpl	r1, r0, lsl #30
    10c8:	1f007502 	svcne	0x00007502
    10cc:	03055001 	movweq	r5, #20481	; 0x5001
    10d0:	0000a0fc 	strdeq	sl, [r0], -ip
    10d4:	04060000 	streq	r0, [r6], #-0
    10d8:	0000005a 	andeq	r0, r0, sl, asr r0
    10dc:	0000a608 	andeq	sl, r0, r8, lsl #12
    10e0:	000e0e00 	andeq	r0, lr, r0, lsl #28
    10e4:	00970900 	addseq	r0, r7, r0, lsl #18
    10e8:	000e0000 	andeq	r0, lr, r0
    10ec:	000dfe07 	andeq	pc, sp, r7, lsl #28
    10f0:	01b42500 			; <UNDEFINED> instruction: 0x01b42500
    10f4:	ce010000 	cdpgt	0, 0, cr0, cr1, cr0, {0}
    10f8:	00000227 	andeq	r0, r0, r7, lsr #4
    10fc:	0000880c 	andeq	r8, r0, ip, lsl #16
    1100:	00000050 	andeq	r0, r0, r0, asr r0
    1104:	0e9e9c01 	cdpeq	12, 9, cr9, cr14, cr1, {0}
    1108:	52190000 	andspl	r0, r9, #0
    110c:	01000002 	tsteq	r0, r2
    1110:	000227cf 	andeq	r2, r2, pc, asr #15
    1114:	22540100 	subscs	r0, r4, #0, 2
    1118:	00000113 	andeq	r0, r0, r3, lsl r1
    111c:	00000eae 	andeq	r0, r0, lr, lsr #29
    1120:	9d500305 	ldclls	3, cr0, [r0, #-20]	; 0xffffffec
    1124:	201e0000 	andscs	r0, lr, r0
    1128:	2e000088 	cdpcs	0, 0, cr0, cr0, cr8, {4}
    112c:	5c000005 	stcpl	0, cr0, [r0], {5}
    1130:	1f00000e 	svcne	0x0000000e
    1134:	74025001 	strvc	r5, [r2], #-1
    1138:	2c230000 	stccs	0, cr0, [r3], #-0
    113c:	6d000088 	stcvs	0, cr0, [r0, #-544]	; 0xfffffde0
    1140:	1e000010 	mcrne	0, 0, r0, cr0, cr0, {0}
    1144:	00008840 	andeq	r8, r0, r0, asr #16
    1148:	00001017 	andeq	r1, r0, r7, lsl r0
    114c:	00000e94 	muleq	r0, r4, lr
    1150:	0253011f 	subseq	r0, r3, #-1073741817	; 0xc0000007
    1154:	011fd208 	tsteq	pc, r8, lsl #4
    1158:	50030552 	andpl	r0, r3, r2, asr r5
    115c:	1f00009d 	svcne	0x0000009d
    1160:	03055101 	movweq	r5, #20737	; 0x5101
    1164:	00009e20 	andeq	r9, r0, r0, lsr #28
    1168:	0550011f 	ldrbeq	r0, [r0, #-287]	; 0x11f
    116c:	00a12c03 	adceq	r2, r1, r3, lsl #24
    1170:	44230000 	strtmi	r0, [r3], #-0
    1174:	74000088 	strvc	r0, [r0], #-136	; 0x88
    1178:	00000010 	andeq	r0, r0, r0, lsl r0
    117c:	0000a608 	andeq	sl, r0, r8, lsl #12
    1180:	000eae00 	andeq	sl, lr, r0, lsl #28
    1184:	00970900 	addseq	r0, r7, r0, lsl #18
    1188:	000c0000 	andeq	r0, ip, r0
    118c:	000e9e07 	andeq	r9, lr, r7, lsl #28
    1190:	02842500 	addeq	r2, r4, #0, 10
    1194:	d7010000 	strle	r0, [r1, -r0]
    1198:	00000227 	andeq	r0, r0, r7, lsr #4
    119c:	0000885c 	andeq	r8, r0, ip, asr r8
    11a0:	00000098 	muleq	r0, r8, r0
    11a4:	0fa99c01 	svceq	0x00a99c01
    11a8:	70150000 	andsvc	r0, r5, r0
    11ac:	27d70100 	ldrbcs	r0, [r7, r0, lsl #2]
    11b0:	e7000002 	str	r0, [r0, -r2]
    11b4:	19000005 	stmdbne	r0, {r0, r2}
    11b8:	00000287 	andeq	r0, r0, r7, lsl #5
    11bc:	0227d801 	eoreq	sp, r7, #65536	; 0x10000
    11c0:	54010000 	strpl	r0, [r1], #-0
    11c4:	00011322 	andeq	r1, r1, r2, lsr #6
    11c8:	000fb900 	andeq	fp, pc, r0, lsl #18
    11cc:	60030500 	andvs	r0, r3, r0, lsl #10
    11d0:	1b00009d 	blne	144c <__code_start__-0x6bb4>
    11d4:	00000297 	muleq	r0, r7, r2
    11d8:	00008860 	andeq	r8, r0, r0, ror #16
    11dc:	00000010 	andeq	r0, r0, r0, lsl r0
    11e0:	0f12d801 	svceq	0x0012d801
    11e4:	a71c0000 	ldrge	r0, [ip, -r0]
    11e8:	3a000002 	bcc	11f8 <__code_start__-0x6e08>
    11ec:	00000006 	andeq	r0, r0, r6
    11f0:	00888c23 	addeq	r8, r8, r3, lsr #24
    11f4:	00106d00 	andseq	r6, r0, r0, lsl #26
    11f8:	88a01e00 	stmiahi	r0!, {r9, sl, fp, ip}
    11fc:	10170000 	andsne	r0, r7, r0
    1200:	0f4a0000 	svceq	0x004a0000
    1204:	011f0000 	tsteq	pc, r0
    1208:	e1080253 	tst	r8, r3, asr r2
    120c:	0552011f 	ldrbeq	r0, [r2, #-287]	; 0x11f
    1210:	009d6003 	addseq	r6, sp, r3
    1214:	51011f00 	tstpl	r1, r0, lsl #30
    1218:	9e200305 	cdpls	3, 2, cr0, cr0, cr5, {0}
    121c:	011f0000 	tsteq	pc, r0
    1220:	50030550 	andpl	r0, r3, r0, asr r5
    1224:	000000a1 	andeq	r0, r0, r1, lsr #1
    1228:	0088a423 	addeq	sl, r8, r3, lsr #8
    122c:	00107400 	andseq	r7, r0, r0, lsl #8
    1230:	88ac1e00 	stmiahi	ip!, {r9, sl, fp, ip}
    1234:	052e0000 	streq	r0, [lr, #-0]!
    1238:	0f670000 	svceq	0x00670000
    123c:	011f0000 	tsteq	pc, r0
    1240:	00740250 	rsbseq	r0, r4, r0, asr r2
    1244:	88b82300 	ldmhi	r8!, {r8, r9, sp}
    1248:	106d0000 	rsbne	r0, sp, r0
    124c:	cc1e0000 	ldcgt	0, cr0, [lr], {-0}
    1250:	17000088 	strne	r0, [r0, -r8, lsl #1]
    1254:	9f000010 	svcls	0x00000010
    1258:	1f00000f 	svcne	0x0000000f
    125c:	08025301 	stmdaeq	r2, {r0, r8, r9, ip, lr}
    1260:	52011fe2 	andpl	r1, r1, #904	; 0x388
    1264:	9d600305 	stclls	3, cr0, [r0, #-20]!	; 0xffffffec
    1268:	011f0000 	tsteq	pc, r0
    126c:	20030551 	andcs	r0, r3, r1, asr r5
    1270:	1f00009e 	svcne	0x0000009e
    1274:	03055001 	movweq	r5, #20481	; 0x5001
    1278:	0000a17c 	andeq	sl, r0, ip, ror r1
    127c:	88d02300 	ldmhi	r0, {r8, r9, sp}^
    1280:	10740000 	rsbsne	r0, r4, r0
    1284:	08000000 	stmdaeq	r0, {}	; <UNPREDICTABLE>
    1288:	000000a6 	andeq	r0, r0, r6, lsr #1
    128c:	00000fb9 			; <UNDEFINED> instruction: 0x00000fb9
    1290:	00009709 	andeq	r9, r0, r9, lsl #14
    1294:	07000b00 	streq	r0, [r0, -r0, lsl #22]
    1298:	00000fa9 	andeq	r0, r0, r9, lsr #31
    129c:	0002e527 	andeq	lr, r2, r7, lsr #10
    12a0:	d0e60100 	rscle	r0, r6, r0, lsl #2
    12a4:	f4000001 	vst4.8	{d0-d3}, [r0], r1
    12a8:	1c000088 	stcne	0, cr0, [r0], {136}	; 0x88
    12ac:	01000000 	mrseq	r0, (UNDEF: 0)
    12b0:	044a199c 	strbeq	r1, [sl], #-2460	; 0x99c
    12b4:	08010000 	stmdaeq	r1, {}	; <UNPREDICTABLE>
    12b8:	00000df8 	strdeq	r0, [r0], -r8
    12bc:	a7880305 	strge	r0, [r8, r5, lsl #6]
    12c0:	76190000 	ldrvc	r0, [r9], -r0
    12c4:	0100000d 	tsteq	r0, sp
    12c8:	000df808 	andeq	pc, sp, r8, lsl #16
    12cc:	8c030500 	cfstr32hi	mvfx0, [r3], {-0}
    12d0:	190000a7 	stmdbne	r0, {r0, r1, r2, r5, r7}
    12d4:	00000d63 	andeq	r0, r0, r3, ror #26
    12d8:	0df80801 	ldcleq	8, cr0, [r8, #4]!
    12dc:	03050000 	movweq	r0, #20480	; 0x5000
    12e0:	0000a784 	andeq	sl, r0, r4, lsl #15
    12e4:	00020619 	andeq	r0, r2, r9, lsl r6
    12e8:	d00a0100 	andle	r0, sl, r0, lsl #2
    12ec:	05000001 	streq	r0, [r0, #-1]
    12f0:	00a79003 	adceq	r9, r7, r3
    12f4:	05172800 	ldreq	r2, [r7, #-2048]	; 0x800
    12f8:	29050000 	stmdbcs	r5, {}	; <UNPREDICTABLE>
    12fc:	00000025 	andeq	r0, r0, r5, lsr #32
    1300:	0000102d 	andeq	r1, r0, sp, lsr #32
    1304:	0000ad29 	andeq	sl, r0, r9, lsr #26
    1308:	28002a00 	stmdacs	r0, {r9, fp, sp}
    130c:	0000010c 	andeq	r0, r0, ip, lsl #2
    1310:	009e1b06 	addseq	r1, lr, r6, lsl #22
    1314:	104c0000 	subne	r0, ip, r0
    1318:	9e290000 	cdpls	0, 2, cr0, cr9, cr0, {0}
    131c:	29000000 	stmdbcs	r0, {}	; <UNPREDICTABLE>
    1320:	00000025 	andeq	r0, r0, r5, lsr #32
    1324:	00002c29 	andeq	r2, r0, r9, lsr #24
    1328:	d6280000 	strtle	r0, [r8], -r0
    132c:	07000001 	streq	r0, [r0, -r1]
    1330:	00007e05 	andeq	r7, r0, r5, lsl #28
    1334:	00106600 	andseq	r6, r0, r0, lsl #12
    1338:	10662900 	rsbne	r2, r6, r0, lsl #18
    133c:	25290000 	strcs	r0, [r9, #-0]!
    1340:	00000000 	andeq	r0, r0, r0
    1344:	106c0406 	rsbne	r0, ip, r6, lsl #8
    1348:	2c2b0000 	stccs	0, cr0, [fp], #-0
    134c:	00000243 	andeq	r0, r0, r3, asr #4
    1350:	902c1e05 	eorls	r1, ip, r5, lsl #28
    1354:	05000002 	streq	r0, [r0, #-2]
    1358:	0d6d0065 	stcleq	0, cr0, [sp, #-404]!	; 0xfffffe6c
    135c:	00040000 	andeq	r0, r4, r0
    1360:	000003c9 	andeq	r0, r0, r9, asr #7
    1364:	00760104 	rsbseq	r0, r6, r4, lsl #2
    1368:	77010000 	strvc	r0, [r1, -r0]
    136c:	26000004 	strcs	r0, [r0], -r4
    1370:	10000000 	andne	r0, r0, r0
    1374:	8c000089 	stchi	0, cr0, [r0], {137}	; 0x89
    1378:	58000006 	stmdapl	r0, {r1, r2}
    137c:	02000004 	andeq	r0, r0, #4
    1380:	6e690504 	cdpvs	5, 6, cr0, cr9, cr4, {0}
    1384:	04030074 	streq	r0, [r3], #-116	; 0x74
    1388:	00013707 	andeq	r3, r1, r7, lsl #14
    138c:	06010300 	streq	r0, [r1], -r0, lsl #6
    1390:	000000e5 	andeq	r0, r0, r5, ror #1
    1394:	64050203 	strvs	r0, [r5], #-515	; 0x203
    1398:	03000001 	movweq	r0, #1
    139c:	015b0504 	cmpeq	fp, r4, lsl #10
    13a0:	08030000 	stmdaeq	r3, {}	; <UNPREDICTABLE>
    13a4:	00015605 	andeq	r5, r1, r5, lsl #12
    13a8:	08010300 	stmdaeq	r1, {r8, r9}
    13ac:	000000e3 	andeq	r0, r0, r3, ror #1
    13b0:	00020e04 	andeq	r0, r2, r4, lsl #28
    13b4:	61310200 	teqvs	r1, r0, lsl #4
    13b8:	03000000 	movweq	r0, #0
    13bc:	00f10702 	rscseq	r0, r1, r2, lsl #14
    13c0:	6e040000 	cdpvs	0, 0, cr0, cr4, cr0, {0}
    13c4:	02000001 	andeq	r0, r0, #1
    13c8:	00007334 	andeq	r7, r0, r4, lsr r3
    13cc:	07040300 	streq	r0, [r4, -r0, lsl #6]
    13d0:	00000132 	andeq	r0, r0, r2, lsr r1
    13d4:	2d070803 	stccs	8, cr0, [r7, #-12]
    13d8:	03000001 	movweq	r0, #1
    13dc:	014d0704 	cmpeq	sp, r4, lsl #14
    13e0:	04050000 	streq	r0, [r5], #-0
    13e4:	ec080103 	stfs	f0, [r8], {3}
    13e8:	06000000 	streq	r0, [r0], -r0
    13ec:	00009704 	andeq	r9, r0, r4, lsl #14
    13f0:	008a0700 	addeq	r0, sl, r0, lsl #14
    13f4:	01080000 	mrseq	r0, (UNDEF: 8)
    13f8:	00b12703 	adcseq	r2, r1, r3, lsl #14
    13fc:	f0090000 			; <UNDEFINED> instruction: 0xf0090000
    1400:	0b000001 	bleq	140c <__code_start__-0x6bf4>
    1404:	0001ea09 	andeq	lr, r1, r9, lsl #20
    1408:	0a000c00 	beq	4410 <__code_start__-0x3bf0>
    140c:	de29030c 	cdple	3, 2, cr0, cr9, cr12, {0}
    1410:	0b000000 	bleq	1418 <__code_start__-0x6be8>
    1414:	000008f8 	strdeq	r0, [r0], -r8
    1418:	00912a03 	addseq	r2, r1, r3, lsl #20
    141c:	0b000000 	bleq	1424 <__code_start__-0x6bdc>
    1420:	00000bc2 	andeq	r0, r0, r2, asr #23
    1424:	00912b03 	addseq	r2, r1, r3, lsl #22
    1428:	0b040000 	bleq	101430 <__bss_end__+0xf6878>
    142c:	00000362 	andeq	r0, r0, r2, ror #6
    1430:	002c2c03 	eoreq	r2, ip, r3, lsl #24
    1434:	00080000 	andeq	r0, r8, r0
    1438:	0002ef04 	andeq	lr, r2, r4, lsl #30
    143c:	b12d0300 	teqlt	sp, r0, lsl #6
    1440:	0c000000 	stceq	0, cr0, [r0], {-0}
    1444:	000003bb 			; <UNDEFINED> instruction: 0x000003bb
    1448:	6e300338 	mrcvs	3, 1, r0, cr0, cr8, {1}
    144c:	0b000001 	bleq	1458 <__code_start__-0x6ba8>
    1450:	000002c3 	andeq	r0, r0, r3, asr #5
    1454:	00683103 	rsbeq	r3, r8, r3, lsl #2
    1458:	0b000000 	bleq	1460 <__code_start__-0x6ba0>
    145c:	000003a1 	andeq	r0, r0, r1, lsr #7
    1460:	00683203 	rsbeq	r3, r8, r3, lsl #4
    1464:	0b040000 	bleq	10146c <__bss_end__+0xf68b4>
    1468:	00000783 	andeq	r0, r0, r3, lsl #15
    146c:	00683303 	rsbeq	r3, r8, r3, lsl #6
    1470:	0b080000 	bleq	201478 <__bss_end__+0x1f68c0>
    1474:	000002bd 			; <UNDEFINED> instruction: 0x000002bd
    1478:	00683703 	rsbeq	r3, r8, r3, lsl #14
    147c:	0b0c0000 	bleq	301484 <__bss_end__+0x2f68cc>
    1480:	0000029d 	muleq	r0, sp, r2
    1484:	00de3903 	sbcseq	r3, lr, r3, lsl #18
    1488:	0b100000 	bleq	401490 <__bss_end__+0x3f68d8>
    148c:	000002d0 	ldrdeq	r0, [r0], -r0	; <UNPREDICTABLE>
    1490:	00de3a03 	sbcseq	r3, lr, r3, lsl #20
    1494:	0b1c0000 	bleq	70149c <__bss_end__+0x6f68e4>
    1498:	00000396 	muleq	r0, r6, r3
    149c:	00683e03 	rsbeq	r3, r8, r3, lsl #28
    14a0:	0b280000 	bleq	a014a8 <__bss_end__+0x9f68f0>
    14a4:	0000033b 	andeq	r0, r0, fp, lsr r3
    14a8:	00683f03 	rsbeq	r3, r8, r3, lsl #30
    14ac:	0b2c0000 	bleq	b014b4 <__bss_end__+0xaf68fc>
    14b0:	000001c1 	andeq	r0, r0, r1, asr #3
    14b4:	016e4203 	cmneq	lr, r3, lsl #4
    14b8:	0b300000 	bleq	c014c0 <__bss_end__+0xbf6908>
    14bc:	000001ca 	andeq	r0, r0, sl, asr #3
    14c0:	00564503 	subseq	r4, r6, r3, lsl #10
    14c4:	00340000 	eorseq	r0, r4, r0
    14c8:	00e90406 	rsceq	r0, r9, r6, lsl #8
    14cc:	8c040000 	stchi	0, cr0, [r4], {-0}
    14d0:	03000003 	movweq	r0, #3
    14d4:	0000e946 	andeq	lr, r0, r6, asr #18
    14d8:	03020800 	movweq	r0, #10240	; 0x2800
    14dc:	0001a449 	andeq	sl, r1, r9, asr #8
    14e0:	03250900 	teqeq	r5, #0, 18
    14e4:	01fe0000 	mvnseq	r0, r0
    14e8:	0002b109 	andeq	fp, r2, r9, lsl #2
    14ec:	09018000 	stmdbeq	r1, {pc}
    14f0:	00000236 	andeq	r0, r0, r6, lsr r2
    14f4:	170901b8 			; <UNDEFINED> instruction: 0x170901b8
    14f8:	b8000002 	stmdalt	r0, {r1}
    14fc:	e50c0002 	str	r0, [ip, #-2]
    1500:	10000002 	andne	r0, r0, r2
    1504:	01e19b03 	mvneq	r9, r3, lsl #22
    1508:	630b0000 	movwvs	r0, #45056	; 0xb000
    150c:	0300000d 	movweq	r0, #13
    1510:	0000889d 	muleq	r0, sp, r8
    1514:	760b0000 	strvc	r0, [fp], -r0
    1518:	0300000d 	movweq	r0, #13
    151c:	0000889f 	muleq	r0, pc, r8	; <UNPREDICTABLE>
    1520:	a70b0400 	strge	r0, [fp, -r0, lsl #8]
    1524:	03000001 	movweq	r0, #1
    1528:	00002ca2 	andeq	r2, r0, r2, lsr #25
    152c:	470b0800 	strmi	r0, [fp, -r0, lsl #16]
    1530:	03000003 	movweq	r0, #3
    1534:	00002ca4 	andeq	r2, r0, r4, lsr #25
    1538:	0d000c00 	stceq	12, cr0, [r0, #-0]
    153c:	000001e0 	andeq	r0, r0, r0, ror #3
    1540:	00885703 	addeq	r5, r8, r3, lsl #14
    1544:	fb030000 	blx	c154e <__bss_end__+0xb6996>
    1548:	0e000001 	cdpeq	0, 0, cr0, cr0, cr1, {0}
    154c:	57030068 	strpl	r0, [r3, -r8, rrx]
    1550:	000001fb 	strdeq	r0, [r0], -fp
    1554:	74040600 	strvc	r0, [r4], #-1536	; 0x600
    1558:	0d000001 	stceq	0, cr0, [r0, #-4]
    155c:	000002d9 	ldrdeq	r0, [r0], -r9
    1560:	00885903 	addeq	r5, r8, r3, lsl #18
    1564:	1b030000 	blne	c156c <__bss_end__+0xb69b4>
    1568:	0e000002 	cdpeq	0, 0, cr0, cr0, cr2, {0}
    156c:	59030068 	stmdbpl	r3, {r3, r5, r6}
    1570:	000001fb 	strdeq	r0, [r0], -fp
    1574:	04470f00 	strbeq	r0, [r7], #-3840	; 0xf00
    1578:	1c010000 	stcne	0, cr0, [r1], {-0}
    157c:	00000025 	andeq	r0, r0, r5, lsr #32
    1580:	00008910 	andeq	r8, r0, r0, lsl r9
    1584:	0000003c 	andeq	r0, r0, ip, lsr r0
    1588:	02429c01 	subeq	r9, r2, #256	; 0x100
    158c:	70100000 	andsvc	r0, r0, r0
    1590:	881c0100 	ldmdahi	ip, {r8}
    1594:	8d000000 	stchi	0, cr0, [r0, #-0]
    1598:	00000006 	andeq	r0, r0, r6
    159c:	0004880f 	andeq	r8, r4, pc, lsl #16
    15a0:	fb330100 	blx	cc19aa <__bss_end__+0xcb6df2>
    15a4:	4c000001 	stcmi	0, cr0, [r0], {1}
    15a8:	78000089 	stmdavc	r0, {r0, r3, r7}
    15ac:	01000000 	mrseq	r0, (UNDEF: 0)
    15b0:	0002ad9c 	muleq	r2, ip, sp
    15b4:	01d11100 	bicseq	r1, r1, r0, lsl #2
    15b8:	33010000 	movwcc	r0, #4096	; 0x1000
    15bc:	00000068 	andeq	r0, r0, r8, rrx
    15c0:	000006e0 	andeq	r0, r0, r0, ror #13
    15c4:	01007012 	tsteq	r0, r2, lsl r0
    15c8:	00008834 	andeq	r8, r0, r4, lsr r8
    15cc:	0006fe00 	andeq	pc, r6, r0, lsl #28
    15d0:	02521300 	subseq	r1, r2, #0, 6
    15d4:	39010000 	stmdbcc	r1, {}	; <UNPREDICTABLE>
    15d8:	000001fb 	strdeq	r0, [r0], -fp
    15dc:	0000071c 	andeq	r0, r0, ip, lsl r7
    15e0:	00895814 	addeq	r5, r9, r4, lsl r8
    15e4:	00021b00 	andeq	r1, r2, r0, lsl #22
    15e8:	00029a00 	andeq	r9, r2, r0, lsl #20
    15ec:	50011500 	andpl	r1, r1, r0, lsl #10
    15f0:	00007402 	andeq	r7, r0, r2, lsl #8
    15f4:	00896416 	addeq	r6, r9, r6, lsl r4
    15f8:	000ce400 	andeq	lr, ip, r0, lsl #8
    15fc:	89b01600 	ldmibhi	r0!, {r9, sl, ip}
    1600:	0cef0000 	stcleq	0, cr0, [pc]	; 1608 <__code_start__-0x69f8>
    1604:	0f000000 	svceq	0x00000000
    1608:	0000043c 	andeq	r0, r0, ip, lsr r4
    160c:	002c7e01 	eoreq	r7, ip, r1, lsl #28
    1610:	89c40000 	stmibhi	r4, {}^	; <UNPREDICTABLE>
    1614:	01340000 	teqeq	r4, r0
    1618:	9c010000 	stcls	0, cr0, [r1], {-0}
    161c:	00000464 	andeq	r0, r0, r4, ror #8
    1620:	0003cc11 	andeq	ip, r3, r1, lsl ip
    1624:	257e0100 	ldrbcs	r0, [lr, #-256]!	; 0x100
    1628:	3a000000 	bcc	1630 <__code_start__-0x69d0>
    162c:	13000007 	movwne	r0, #7
    1630:	0000048f 	andeq	r0, r0, pc, lsl #9
    1634:	002c7f01 	eoreq	r7, ip, r1, lsl #30
    1638:	07580000 	ldrbeq	r0, [r8, -r0]
    163c:	07130000 	ldreq	r0, [r3, -r0]
    1640:	01000004 	tsteq	r0, r4
    1644:	00002c7f 	andeq	r2, r0, pc, ror ip
    1648:	00077700 	andeq	r7, r7, r0, lsl #14
    164c:	04011300 	streq	r1, [r1], #-768	; 0x300
    1650:	7f010000 	svcvc	0x00010000
    1654:	0000002c 	andeq	r0, r0, ip, lsr #32
    1658:	00000796 	muleq	r0, r6, r7
    165c:	00025213 	andeq	r5, r2, r3, lsl r2
    1660:	fb830100 	blx	fe0c1a6a <__bss_end__+0xfe0b6eb2>
    1664:	b5000001 	strlt	r0, [r0, #-1]
    1668:	14000007 	strne	r0, [r0], #-7
    166c:	000089d4 	ldrdeq	r8, [r0], -r4
    1670:	00000d04 	andeq	r0, r0, r4, lsl #26
    1674:	00000328 	andeq	r0, r0, r8, lsr #6
    1678:	05500115 	ldrbeq	r0, [r0, #-277]	; 0x115
    167c:	00a1f403 	adceq	pc, r1, r3, lsl #8
    1680:	dc140000 	ldcle	0, cr0, [r4], {-0}
    1684:	04000089 	streq	r0, [r0], #-137	; 0x89
    1688:	3f00000d 	svccc	0x0000000d
    168c:	15000003 	strne	r0, [r0, #-3]
    1690:	03055001 	movweq	r5, #20481	; 0x5001
    1694:	0000a230 	andeq	sl, r0, r0, lsr r2
    1698:	89e01600 	stmibhi	r0!, {r9, sl, ip}^
    169c:	0ce40000 	stcleq	0, cr0, [r4]
    16a0:	20140000 	andscs	r0, r4, r0
    16a4:	0400008a 	streq	r0, [r0], #-138	; 0x8a
    16a8:	5c00000d 	stcpl	0, cr0, [r0], {13}
    16ac:	15000003 	strne	r0, [r0, #-3]
    16b0:	7a025001 	bvc	956bc <__bss_end__+0x8ab04>
    16b4:	2c140000 	ldccs	0, cr0, [r4], {-0}
    16b8:	0400008a 	streq	r0, [r0], #-138	; 0x8a
    16bc:	7700000d 	strvc	r0, [r0, -sp]
    16c0:	15000003 	strne	r0, [r0, #-3]
    16c4:	74035101 	strvc	r5, [r3], #-257	; 0x101
    16c8:	011501b8 			; <UNDEFINED> instruction: 0x011501b8
    16cc:	007b0250 	rsbseq	r0, fp, r0, asr r2
    16d0:	8a541400 	bhi	15066d8 <__bss_end__+0x14fbb20>
    16d4:	0d040000 	stceq	0, cr0, [r4, #-0]
    16d8:	038b0000 	orreq	r0, fp, #0
    16dc:	01150000 	tsteq	r5, r0
    16e0:	007a0250 	rsbseq	r0, sl, r0, asr r2
    16e4:	8a601400 	bhi	18066ec <__bss_end__+0x17fbb34>
    16e8:	0d040000 	stceq	0, cr0, [r4, #-0]
    16ec:	03a90000 			; <UNDEFINED> instruction: 0x03a90000
    16f0:	01150000 	tsteq	r5, r0
    16f4:	b8740351 	ldmdalt	r4!, {r0, r4, r6, r8, r9}^
    16f8:	50011501 	andpl	r1, r1, r1, lsl #10
    16fc:	a2680305 	rsbge	r0, r8, #335544320	; 0x14000000
    1700:	14000000 	strne	r0, [r0], #-0
    1704:	00008a70 	andeq	r8, r0, r0, ror sl
    1708:	00000cef 	andeq	r0, r0, pc, ror #25
    170c:	000003bd 			; <UNDEFINED> instruction: 0x000003bd
    1710:	02500115 	subseq	r0, r0, #1073741829	; 0x40000005
    1714:	14000074 	strne	r0, [r0], #-116	; 0x74
    1718:	00008a84 	andeq	r8, r0, r4, lsl #21
    171c:	00000d04 	andeq	r0, r0, r4, lsl #26
    1720:	000003d1 	ldrdeq	r0, [r0], -r1
    1724:	02500115 	subseq	r0, r0, #1073741829	; 0x40000005
    1728:	1400007a 	strne	r0, [r0], #-122	; 0x7a
    172c:	00008a90 	muleq	r0, r0, sl
    1730:	00000d04 	andeq	r0, r0, r4, lsl #26
    1734:	000003ee 	andeq	r0, r0, lr, ror #7
    1738:	02510115 	subseq	r0, r1, #1073741829	; 0x40000005
    173c:	01150075 	tsteq	r5, r5, ror r0
    1740:	a0030550 	andge	r0, r3, r0, asr r5
    1744:	000000a2 	andeq	r0, r0, r2, lsr #1
    1748:	008aa014 	addeq	sl, sl, r4, lsl r0
    174c:	000d0400 	andeq	r0, sp, r0, lsl #8
    1750:	00040200 	andeq	r0, r4, r0, lsl #4
    1754:	50011500 	andpl	r1, r1, r0, lsl #10
    1758:	00007a02 	andeq	r7, r0, r2, lsl #20
    175c:	008aa814 	addeq	sl, sl, r4, lsl r8
    1760:	000d0400 	andeq	r0, sp, r0, lsl #8
    1764:	00041900 	andeq	r1, r4, r0, lsl #18
    1768:	50011500 	andpl	r1, r1, r0, lsl #10
    176c:	a2b80305 	adcsge	r0, r8, #335544320	; 0x14000000
    1770:	14000000 	strne	r0, [r0], #-0
    1774:	00008ab4 			; <UNDEFINED> instruction: 0x00008ab4
    1778:	00000d04 	andeq	r0, r0, r4, lsl #26
    177c:	0000042d 	andeq	r0, r0, sp, lsr #8
    1780:	02500115 	subseq	r0, r0, #1073741829	; 0x40000005
    1784:	1400007a 	strne	r0, [r0], #-122	; 0x7a
    1788:	00008ac4 	andeq	r8, r0, r4, asr #21
    178c:	00000d04 	andeq	r0, r0, r4, lsl #26
    1790:	00000450 	andeq	r0, r0, r0, asr r4
    1794:	02520115 	subseq	r0, r2, #1073741829	; 0x40000005
    1798:	01150076 	tsteq	r5, r6, ror r0
    179c:	00770251 	rsbseq	r0, r7, r1, asr r2
    17a0:	05500115 	ldrbeq	r0, [r0, #-277]	; 0x115
    17a4:	00a2d803 	adceq	sp, r2, r3, lsl #16
    17a8:	cc170000 	ldcgt	0, cr0, [r7], {-0}
    17ac:	0400008a 	streq	r0, [r0], #-138	; 0x8a
    17b0:	1500000d 	strne	r0, [r0, #-13]
    17b4:	03055001 	movweq	r5, #20481	; 0x5001
    17b8:	0000a304 	andeq	sl, r0, r4, lsl #6
    17bc:	ca180000 	bgt	6017c4 <__bss_end__+0x5f6c0c>
    17c0:	01000001 	tsteq	r0, r1
    17c4:	008af85a 	addeq	pc, sl, sl, asr r8	; <UNPREDICTABLE>
    17c8:	0000f800 	andeq	pc, r0, r0, lsl #16
    17cc:	a19c0100 	orrsge	r0, ip, r0, lsl #2
    17d0:	10000005 	andne	r0, r0, r5
    17d4:	5a010070 	bpl	4199c <__bss_end__+0x36de4>
    17d8:	000005a1 	andeq	r0, r0, r1, lsr #11
    17dc:	000007ff 	strdeq	r0, [r0], -pc	; <UNPREDICTABLE>
    17e0:	01006510 	tsteq	r0, r0, lsl r5
    17e4:	0005a15a 	andeq	sl, r5, sl, asr r1
    17e8:	00087000 	andeq	r7, r8, r0
    17ec:	01131900 	tsteq	r3, r0, lsl #18
    17f0:	05b70000 	ldreq	r0, [r7, #0]!
    17f4:	03050000 	movweq	r0, #20480	; 0x5000
    17f8:	0000a1a0 	andeq	sl, r0, r0, lsr #3
    17fc:	646e651a 	strbtvs	r6, [lr], #-1306	; 0x51a
    1800:	68600100 	stmdavs	r0!, {r8}^
    1804:	13000000 	movwne	r0, #0
    1808:	0000044f 	andeq	r0, r0, pc, asr #8
    180c:	05a16101 	streq	r6, [r1, #257]!	; 0x101
    1810:	08d00000 	ldmeq	r0, {}^	; <UNPREDICTABLE>
    1814:	52130000 	andspl	r0, r3, #0
    1818:	01000002 	tsteq	r0, r2
    181c:	0001fb62 	andeq	pc, r1, r2, ror #22
    1820:	0008ee00 	andeq	lr, r8, r0, lsl #28
    1824:	8b101600 	blhi	40702c <__bss_end__+0x3fc474>
    1828:	0d1a0000 	ldceq	0, cr0, [sl, #-0]
    182c:	24140000 	ldrcs	r0, [r4], #-0
    1830:	0400008b 	streq	r0, [r0], #-139	; 0x8b
    1834:	0300000d 	movweq	r0, #13
    1838:	15000005 	strne	r0, [r0, #-5]
    183c:	08025301 	stmdaeq	r2, {r0, r8, r9, ip, lr}
    1840:	5201155b 	andpl	r1, r1, #381681664	; 0x16c00000
    1844:	a1a00305 	lslge	r0, r5, #6
    1848:	01150000 	tsteq	r5, r0
    184c:	54030551 	strpl	r0, [r3], #-1361	; 0x551
    1850:	150000a3 	strne	r0, [r0, #-163]	; 0xa3
    1854:	03055001 	movweq	r5, #20481	; 0x5001
    1858:	0000a340 	andeq	sl, r0, r0, asr #6
    185c:	8b281600 	blhi	a07064 <__bss_end__+0x9fc4ac>
    1860:	0d210000 	stceq	0, cr0, [r1, #-0]
    1864:	34160000 	ldrcc	r0, [r6], #-0
    1868:	1a00008b 	bne	1a9c <__code_start__-0x6564>
    186c:	1400000d 	strne	r0, [r0], #-13
    1870:	00008b48 	andeq	r8, r0, r8, asr #22
    1874:	00000d04 	andeq	r0, r0, r4, lsl #26
    1878:	00000544 	andeq	r0, r0, r4, asr #10
    187c:	02530115 	subseq	r0, r3, #1073741829	; 0x40000005
    1880:	01155d08 	tsteq	r5, r8, lsl #26
    1884:	a0030552 	andge	r0, r3, r2, asr r5
    1888:	150000a1 	strne	r0, [r0, #-161]	; 0xa1
    188c:	03055101 	movweq	r5, #20737	; 0x5101
    1890:	0000a354 	andeq	sl, r0, r4, asr r3
    1894:	05500115 	ldrbeq	r0, [r0, #-277]	; 0x115
    1898:	00a35c03 	adceq	r5, r3, r3, lsl #24
    189c:	4c160000 	ldcmi	0, cr0, [r6], {-0}
    18a0:	2100008b 	smlabbcs	r0, fp, r0, r0
    18a4:	1600000d 	strne	r0, [r0], -sp
    18a8:	00008b58 	andeq	r8, r0, r8, asr fp
    18ac:	00000d1a 	andeq	r0, r0, sl, lsl sp
    18b0:	008b6c14 	addeq	r6, fp, r4, lsl ip
    18b4:	000d0400 	andeq	r0, sp, r0, lsl #8
    18b8:	00058500 	andeq	r8, r5, r0, lsl #10
    18bc:	53011500 	movwpl	r1, #5376	; 0x1500
    18c0:	155e0802 	ldrbne	r0, [lr, #-2050]	; 0x802
    18c4:	03055201 	movweq	r5, #20993	; 0x5201
    18c8:	0000a1a0 	andeq	sl, r0, r0, lsr #3
    18cc:	05510115 	ldrbeq	r0, [r1, #-277]	; 0x115
    18d0:	00a35403 	adceq	r5, r3, r3, lsl #8
    18d4:	50011500 	andpl	r1, r1, r0, lsl #10
    18d8:	a37c0305 	cmnge	ip, #335544320	; 0x14000000
    18dc:	16000000 	strne	r0, [r0], -r0
    18e0:	00008b70 	andeq	r8, r0, r0, ror fp
    18e4:	00000d21 	andeq	r0, r0, r1, lsr #26
    18e8:	008b7816 	addeq	r7, fp, r6, lsl r8
    18ec:	00024200 	andeq	r4, r2, r0, lsl #4
    18f0:	8bc41600 	blhi	ff1070f8 <__bss_end__+0xff0fc540>
    18f4:	04640000 	strbteq	r0, [r4], #-0
    18f8:	06000000 	streq	r0, [r0], -r0
    18fc:	00006804 	andeq	r6, r0, r4, lsl #16
    1900:	008a1b00 	addeq	r1, sl, r0, lsl #22
    1904:	05b70000 	ldreq	r0, [r7, #0]!
    1908:	811c0000 	tsthi	ip, r0
    190c:	04000000 	streq	r0, [r0], #-0
    1910:	05a70700 	streq	r0, [r7, #1792]!	; 0x700
    1914:	7f180000 	svcvc	0x00180000
    1918:	01000004 	tsteq	r0, r4
    191c:	008bf0ca 	addeq	pc, fp, sl, asr #1
    1920:	0000f400 	andeq	pc, r0, r0, lsl #8
    1924:	269c0100 	ldrcs	r0, [ip], r0, lsl #2
    1928:	1d000007 	stcne	0, cr0, [r0, #-28]	; 0xffffffe4
    192c:	d3010069 	movwle	r0, #4201	; 0x1069
    1930:	000001a4 	andeq	r0, r0, r4, lsr #3
    1934:	1e689102 	lgnnee	f1, f2
    1938:	0000046b 	andeq	r0, r0, fp, ror #8
    193c:	0726dc01 	streq	sp, [r6, -r1, lsl #24]!
    1940:	91030000 	mrsls	r0, (UNDEF: 3)
    1944:	13197fa8 	tstne	r9, #168, 30	; 0x2a0
    1948:	46000001 	strmi	r0, [r0], -r1
    194c:	05000007 	streq	r0, [r0, #-7]
    1950:	00a1a803 	adceq	sl, r1, r3, lsl #16
    1954:	03c21f00 	biceq	r1, r2, #0, 30
    1958:	ec010000 	stc	0, cr0, [r1], {-0}
    195c:	000005a1 	andeq	r0, r0, r1, lsr #11
    1960:	08000000 	stmdaeq	r0, {}	; <UNPREDICTABLE>
    1964:	00042220 	andeq	r2, r4, r0, lsr #4
    1968:	68f00100 	ldmvs	r0!, {r8}^
    196c:	20000000 	andcs	r0, r0, r0
    1970:	00000430 	andeq	r0, r0, r0, lsr r4
    1974:	0068f001 	rsbeq	pc, r8, r1
    1978:	8b200000 	blhi	801980 <__bss_end__+0x7f6dc8>
    197c:	01000001 	tsteq	r0, r1
    1980:	000068f3 	strdeq	r6, [r0], -r3
    1984:	019a2000 	orrseq	r2, sl, r0
    1988:	f3010000 	vhadd.u8	d0, d1, d0
    198c:	00000068 	andeq	r0, r0, r8, rrx
    1990:	008bf821 	addeq	pc, fp, r1, lsr #16
    1994:	00002400 	andeq	r2, r0, r0, lsl #8
    1998:	00066300 	andeq	r6, r6, r0, lsl #6
    199c:	00681200 	rsbeq	r1, r8, r0, lsl #4
    19a0:	01fbcd01 	mvnseq	ip, r1, lsl #26
    19a4:	090c0000 	stmdbeq	ip, {}	; <UNPREDICTABLE>
    19a8:	fc160000 	ldc2	0, cr0, [r6], {-0}
    19ac:	e400008b 	str	r0, [r0], #-139	; 0x8b
    19b0:	1600000c 	strne	r0, [r0], -ip
    19b4:	00008c14 	andeq	r8, r0, r4, lsl ip
    19b8:	00000cef 	andeq	r0, r0, pc, ror #25
    19bc:	00182200 	andseq	r2, r8, r0, lsl #4
    19c0:	067a0000 	ldrbteq	r0, [sl], -r0
    19c4:	69120000 	ldmdbvs	r2, {}	; <UNPREDICTABLE>
    19c8:	25e10100 	strbcs	r0, [r1, #256]!	; 0x100
    19cc:	2a000000 	bcs	19d4 <__code_start__-0x662c>
    19d0:	00000009 	andeq	r0, r0, r9
    19d4:	008c2814 	addeq	r2, ip, r4, lsl r8
    19d8:	000d2800 	andeq	r2, sp, r0, lsl #16
    19dc:	00068e00 	andeq	r8, r6, r0, lsl #28
    19e0:	50011500 	andpl	r1, r1, r0, lsl #10
    19e4:	00007402 	andeq	r7, r0, r2, lsl #8
    19e8:	008c4014 	addeq	r4, ip, r4, lsl r0
    19ec:	000d3300 	andeq	r3, sp, r0, lsl #6
    19f0:	0006a200 	andeq	sl, r6, r0, lsl #4
    19f4:	50011500 	andpl	r1, r1, r0, lsl #10
    19f8:	00007402 	andeq	r7, r0, r2, lsl #8
    19fc:	008c5016 	addeq	r5, ip, r6, lsl r0
    1a00:	000d1a00 	andeq	r1, sp, r0, lsl #20
    1a04:	8c641400 	cfstrdhi	mvd1, [r4], #-0
    1a08:	0d040000 	stceq	0, cr0, [r4, #-0]
    1a0c:	06da0000 	ldrbeq	r0, [sl], r0
    1a10:	01150000 	tsteq	r5, r0
    1a14:	df080253 	svcle	0x00080253
    1a18:	05520115 	ldrbeq	r0, [r2, #-277]	; 0x115
    1a1c:	00a1a803 	adceq	sl, r1, r3, lsl #16
    1a20:	51011500 	tstpl	r1, r0, lsl #10
    1a24:	a3540305 	cmpge	r4, #335544320	; 0x14000000
    1a28:	01150000 	tsteq	r5, r0
    1a2c:	9c030550 	cfstr32ls	mvfx0, [r3], {80}	; 0x50
    1a30:	000000a3 	andeq	r0, r0, r3, lsr #1
    1a34:	008c6816 	addeq	r6, ip, r6, lsl r8
    1a38:	000d2100 	andeq	r2, sp, r0, lsl #2
    1a3c:	8c981400 	cfldrshi	mvf1, [r8], {0}
    1a40:	04640000 	strbteq	r0, [r4], #-0
    1a44:	06fe0000 	ldrbteq	r0, [lr], r0
    1a48:	01150000 	tsteq	r5, r0
    1a4c:	58910251 	ldmpl	r1, {r0, r4, r6, r9}
    1a50:	03500115 	cmpeq	r0, #1073741829	; 0x40000005
    1a54:	007fb091 			; <UNDEFINED> instruction: 0x007fb091
    1a58:	008ca414 	addeq	sl, ip, r4, lsl r4
    1a5c:	00046400 	andeq	r6, r4, r0, lsl #8
    1a60:	00071300 	andeq	r1, r7, r0, lsl #6
    1a64:	51011500 	tstpl	r1, r0, lsl #10
    1a68:	24474003 	strbcs	r4, [r7], #-3
    1a6c:	8cb01600 	ldchi	6, cr1, [r0]
    1a70:	04640000 	strbteq	r0, [r4], #-0
    1a74:	bc160000 	ldclt	0, cr0, [r6], {-0}
    1a78:	6400008c 	strvs	r0, [r0], #-140	; 0x8c
    1a7c:	00000004 	andeq	r0, r0, r4
    1a80:	0000681b 	andeq	r6, r0, fp, lsl r8
    1a84:	00073600 	andeq	r3, r7, r0, lsl #12
    1a88:	00811c00 	addeq	r1, r1, r0, lsl #24
    1a8c:	000f0000 	andeq	r0, pc, r0
    1a90:	00008a1b 	andeq	r8, r0, fp, lsl sl
    1a94:	00074600 	andeq	r4, r7, r0, lsl #12
    1a98:	00811c00 	addeq	r1, r1, r0, lsl #24
    1a9c:	00080000 	andeq	r0, r8, r0
    1aa0:	00073607 	andeq	r3, r7, r7, lsl #12
    1aa4:	03f62300 	mvnseq	r2, #0, 6
    1aa8:	2d010000 	stccs	0, cr0, [r1, #-0]
    1aac:	00002c01 	andeq	r2, r0, r1, lsl #24
    1ab0:	008ce400 	addeq	lr, ip, r0, lsl #8
    1ab4:	00012000 	andeq	r2, r1, r0
    1ab8:	189c0100 	ldmne	ip, {r8}
    1abc:	24000009 	strcs	r0, [r0], #-9
    1ac0:	0000048f 	andeq	r0, r0, pc, lsl #9
    1ac4:	2c012e01 	stccs	14, cr2, [r1], {1}
    1ac8:	48000000 	stmdami	r0, {}	; <UNPREDICTABLE>
    1acc:	24000009 	strcs	r0, [r0], #-9
    1ad0:	00000470 	andeq	r0, r0, r0, ror r4
    1ad4:	2c012e01 	stccs	14, cr2, [r1], {1}
    1ad8:	67000000 	strvs	r0, [r0, -r0]
    1adc:	24000009 	strcs	r0, [r0], #-9
    1ae0:	000001a7 	andeq	r0, r0, r7, lsr #3
    1ae4:	2c012e01 	stccs	14, cr2, [r1], {1}
    1ae8:	86000000 	strhi	r0, [r0], -r0
    1aec:	24000009 	strcs	r0, [r0], #-9
    1af0:	00000252 	andeq	r0, r0, r2, asr r2
    1af4:	fb013201 	blx	4e302 <__bss_end__+0x4374a>
    1af8:	b0000001 	andlt	r0, r0, r1
    1afc:	19000009 	stmdbne	r0, {r0, r3}
    1b00:	00000113 	andeq	r0, r0, r3, lsl r1
    1b04:	00000928 	andeq	r0, r0, r8, lsr #18
    1b08:	a1b40305 			; <UNDEFINED> instruction: 0xa1b40305
    1b0c:	ea250000 	b	941b14 <__bss_end__+0x936f5c>
    1b10:	01000002 	tsteq	r0, r2
    1b14:	01a40148 			; <UNDEFINED> instruction: 0x01a40148
    1b18:	91020000 	mrsls	r0, (UNDEF: 2)
    1b1c:	00302248 	eorseq	r2, r0, r8, asr #4
    1b20:	082f0000 	stmdaeq	pc!, {}	; <UNPREDICTABLE>
    1b24:	70260000 	eorvc	r0, r6, r0
    1b28:	01007274 	tsteq	r0, r4, ror r2
    1b2c:	00880138 	addeq	r0, r8, r8, lsr r1
    1b30:	57010000 	strpl	r0, [r1, -r0]
    1b34:	008d5014 	addeq	r5, sp, r4, lsl r0
    1b38:	000d0400 	andeq	r0, sp, r0, lsl #8
    1b3c:	0007ee00 	andeq	lr, r7, r0, lsl #28
    1b40:	50011500 	andpl	r1, r1, r0, lsl #10
    1b44:	00007b02 	andeq	r7, r0, r2, lsl #22
    1b48:	008d5c14 	addeq	r5, sp, r4, lsl ip
    1b4c:	000d0400 	andeq	r0, sp, r0, lsl #8
    1b50:	00080800 	andeq	r0, r8, r0, lsl #16
    1b54:	51011500 	tstpl	r1, r0, lsl #10
    1b58:	15007702 	strne	r7, [r0, #-1794]	; 0x702
    1b5c:	7a025001 	bvc	95b68 <__bss_end__+0x8afb0>
    1b60:	70170000 	andsvc	r0, r7, r0
    1b64:	4500008d 	strmi	r0, [r0, #-141]	; 0x8d
    1b68:	1500000d 	strne	r0, [r0, #-13]
    1b6c:	0a035301 	beq	d6778 <__bss_end__+0xcbbc0>
    1b70:	0115013a 	tsteq	r5, sl, lsr r1
    1b74:	b4030552 	strlt	r0, [r3], #-1362	; 0x552
    1b78:	150000a1 	strne	r0, [r0, #-161]	; 0xa1
    1b7c:	79025101 	stmdbvc	r2, {r0, r8, ip, lr}
    1b80:	50011500 	andpl	r1, r1, r0, lsl #10
    1b84:	00007702 	andeq	r7, r0, r2, lsl #14
    1b88:	8cf41400 	cfldrdhi	mvd1, [r4]
    1b8c:	0d040000 	stceq	0, cr0, [r4, #-0]
    1b90:	08460000 	stmdaeq	r6, {}^	; <UNPREDICTABLE>
    1b94:	01150000 	tsteq	r5, r0
    1b98:	f4030550 	vst3.16	{d0,d2,d4}, [r3 :64], r0
    1b9c:	000000a1 	andeq	r0, r0, r1, lsr #1
    1ba0:	008cfc14 	addeq	pc, ip, r4, lsl ip	; <UNPREDICTABLE>
    1ba4:	000d0400 	andeq	r0, sp, r0, lsl #8
    1ba8:	00085d00 	andeq	r5, r8, r0, lsl #26
    1bac:	50011500 	andpl	r1, r1, r0, lsl #10
    1bb0:	a3cc0305 	bicge	r0, ip, #335544320	; 0x14000000
    1bb4:	16000000 	strne	r0, [r0], -r0
    1bb8:	00008d00 	andeq	r8, r0, r0, lsl #26
    1bbc:	00000ce4 	andeq	r0, r0, r4, ror #25
    1bc0:	008d7c14 	addeq	r7, sp, r4, lsl ip
    1bc4:	000cef00 	andeq	lr, ip, r0, lsl #30
    1bc8:	00087a00 	andeq	r7, r8, r0, lsl #20
    1bcc:	50011500 	andpl	r1, r1, r0, lsl #10
    1bd0:	00007402 	andeq	r7, r0, r2, lsl #8
    1bd4:	008d9414 	addeq	r9, sp, r4, lsl r4
    1bd8:	000d0400 	andeq	r0, sp, r0, lsl #8
    1bdc:	00088e00 	andeq	r8, r8, r0, lsl #28
    1be0:	50011500 	andpl	r1, r1, r0, lsl #10
    1be4:	00007402 	andeq	r7, r0, r2, lsl #8
    1be8:	008da814 	addeq	sl, sp, r4, lsl r8
    1bec:	000d0400 	andeq	r0, sp, r0, lsl #8
    1bf0:	0008b700 	andeq	fp, r8, r0, lsl #14
    1bf4:	53011500 	movwpl	r1, #5376	; 0x1500
    1bf8:	15007602 	strne	r7, [r0, #-1538]	; 0x602
    1bfc:	78025201 	stmdavc	r2, {r0, r9, ip, lr}
    1c00:	51011500 	tstpl	r1, r0, lsl #10
    1c04:	15007502 	strne	r7, [r0, #-1282]	; 0x502
    1c08:	03055001 	movweq	r5, #20481	; 0x5001
    1c0c:	0000a3f0 	strdeq	sl, [r0], -r0
    1c10:	8db01400 	cfldrshi	mvf1, [r0]
    1c14:	0d280000 	stceq	0, cr0, [r8, #-0]
    1c18:	08cb0000 	stmiaeq	fp, {}^	; <UNPREDICTABLE>
    1c1c:	01150000 	tsteq	r5, r0
    1c20:	007d0250 	rsbseq	r0, sp, r0, asr r2
    1c24:	8db81400 	cfldrshi	mvf1, [r8]
    1c28:	0d040000 	stceq	0, cr0, [r4, #-0]
    1c2c:	08df0000 	ldmeq	pc, {}^	; <UNPREDICTABLE>
    1c30:	01150000 	tsteq	r5, r0
    1c34:	00740250 	rsbseq	r0, r4, r0, asr r2
    1c38:	8dc81400 	cfstrdhi	mvd1, [r8]
    1c3c:	0d040000 	stceq	0, cr0, [r4, #-0]
    1c40:	09040000 	stmdbeq	r4, {}	; <UNPREDICTABLE>
    1c44:	01150000 	tsteq	r5, r0
    1c48:	48910352 	ldmmi	r1, {r1, r4, r6, r8, r9}
    1c4c:	51011506 	tstpl	r1, r6, lsl #10
    1c50:	064c9103 	strbeq	r9, [ip], -r3, lsl #2
    1c54:	05500115 	ldrbeq	r0, [r0, #-277]	; 0x115
    1c58:	00a41c03 	adceq	r1, r4, r3, lsl #24
    1c5c:	d0170000 	andsle	r0, r7, r0
    1c60:	0400008d 	streq	r0, [r0], #-141	; 0x8d
    1c64:	1500000d 	strne	r0, [r0, #-13]
    1c68:	03055001 	movweq	r5, #20481	; 0x5001
    1c6c:	0000a304 	andeq	sl, r0, r4, lsl #6
    1c70:	8a1b0000 	bhi	6c1c78 <__bss_end__+0x6b70c0>
    1c74:	28000000 	stmdacs	r0, {}	; <UNPREDICTABLE>
    1c78:	1c000009 	stcne	0, cr0, [r0], {9}
    1c7c:	00000081 	andeq	r0, r0, r1, lsl #1
    1c80:	1807000a 	stmdane	r7, {r1, r3}
    1c84:	27000009 	strcs	r0, [r0, -r9]
    1c88:	00000414 	andeq	r0, r0, r4, lsl r4
    1c8c:	002cfd01 	eoreq	pc, ip, r1, lsl #26
    1c90:	8e040000 	cdphi	0, 0, cr0, cr4, cr0, {0}
    1c94:	00180000 	andseq	r0, r8, r0
    1c98:	9c010000 	stcls	0, cr0, [r1], {-0}
    1c9c:	0000096f 	andeq	r0, r0, pc, ror #18
    1ca0:	0003cc11 	andeq	ip, r3, r1, lsl ip
    1ca4:	25fd0100 	ldrbcs	r0, [sp, #256]!	; 0x100
    1ca8:	d9000000 	stmdble	r0, {}	; <UNPREDICTABLE>
    1cac:	16000009 	strne	r0, [r0], -r9
    1cb0:	00008e10 	andeq	r8, r0, r0, lsl lr
    1cb4:	000005bc 			; <UNDEFINED> instruction: 0x000005bc
    1cb8:	008e1817 	addeq	r1, lr, r7, lsl r8
    1cbc:	0002ad00 	andeq	sl, r2, r0, lsl #26
    1cc0:	50011500 	andpl	r1, r1, r0, lsl #10
    1cc4:	00007402 	andeq	r7, r0, r2, lsl #8
    1cc8:	00d52800 	sbcseq	r2, r5, r0, lsl #16
    1ccc:	03010000 	movweq	r0, #4096	; 0x1000
    1cd0:	008e1c01 	addeq	r1, lr, r1, lsl #24
    1cd4:	0000a000 	andeq	sl, r0, r0
    1cd8:	8d9c0100 	ldfhis	f0, [ip]
    1cdc:	1900000a 	stmdbne	r0, {r1, r3}
    1ce0:	00000113 	andeq	r0, r0, r3, lsl r1
    1ce4:	00000a9d 	muleq	r0, sp, sl
    1ce8:	a1c00305 	bicge	r0, r0, r5, lsl #6
    1cec:	24160000 	ldrcs	r0, [r6], #-0
    1cf0:	6500008e 	strvs	r0, [r0, #-142]	; 0x8e
    1cf4:	1600000d 	strne	r0, [r0], -sp
    1cf8:	00008e30 	andeq	r8, r0, r0, lsr lr
    1cfc:	00000d1a 	andeq	r0, r0, sl, lsl sp
    1d00:	008e4414 	addeq	r4, lr, r4, lsl r4
    1d04:	000d0400 	andeq	r0, sp, r0, lsl #8
    1d08:	0009d600 	andeq	sp, r9, r0, lsl #12
    1d0c:	53011500 	movwpl	r1, #5376	; 0x1500
    1d10:	01090a03 	tsteq	r9, r3, lsl #20
    1d14:	05520115 	ldrbeq	r0, [r2, #-277]	; 0x115
    1d18:	00a1c003 	adceq	ip, r1, r3
    1d1c:	51011500 	tstpl	r1, r0, lsl #10
    1d20:	a3540305 	cmpge	r4, #335544320	; 0x14000000
    1d24:	01150000 	tsteq	r5, r0
    1d28:	50030550 	andpl	r0, r3, r0, asr r5
    1d2c:	000000a4 	andeq	r0, r0, r4, lsr #1
    1d30:	008e4816 	addeq	r4, lr, r6, lsl r8
    1d34:	000d2100 	andeq	r2, sp, r0, lsl #2
    1d38:	8e501400 	cdphi	4, 5, cr1, cr0, cr0, {0}
    1d3c:	0d040000 	stceq	0, cr0, [r4, #-0]
    1d40:	09f60000 	ldmibeq	r6!, {}^	; <UNPREDICTABLE>
    1d44:	01150000 	tsteq	r5, r0
    1d48:	6c030550 	cfstr32vs	mvfx0, [r3], {80}	; 0x50
    1d4c:	0000009d 	muleq	r0, sp, r0
    1d50:	008e5814 	addeq	r5, lr, r4, lsl r8
    1d54:	000d0400 	andeq	r0, sp, r0, lsl #8
    1d58:	000a0d00 	andeq	r0, sl, r0, lsl #26
    1d5c:	50011500 	andpl	r1, r1, r0, lsl #10
    1d60:	a4780305 	ldrbtge	r0, [r8], #-773	; 0x305
    1d64:	14000000 	strne	r0, [r0], #-0
    1d68:	00008e60 	andeq	r8, r0, r0, ror #28
    1d6c:	0000092d 	andeq	r0, r0, sp, lsr #18
    1d70:	00000a20 	andeq	r0, r0, r0, lsr #20
    1d74:	01500115 	cmpeq	r0, r5, lsl r1
    1d78:	6c160031 	ldcvs	0, cr0, [r6], {49}	; 0x31
    1d7c:	1a00008e 	bne	1fbc <__code_start__-0x6044>
    1d80:	1400000d 	strne	r0, [r0], #-13
    1d84:	00008e80 	andeq	r8, r0, r0, lsl #29
    1d88:	00000d04 	andeq	r0, r0, r4, lsl #26
    1d8c:	00000a59 	andeq	r0, r0, r9, asr sl
    1d90:	03530115 	cmpeq	r3, #1073741829	; 0x40000005
    1d94:	15010d0a 	strne	r0, [r1, #-3338]	; 0xd0a
    1d98:	03055201 	movweq	r5, #20993	; 0x5201
    1d9c:	0000a1c0 	andeq	sl, r0, r0, asr #3
    1da0:	05510115 	ldrbeq	r0, [r1, #-277]	; 0x115
    1da4:	00a35403 	adceq	r5, r3, r3, lsl #8
    1da8:	50011500 	andpl	r1, r1, r0, lsl #10
    1dac:	a4980305 	ldrge	r0, [r8], #773	; 0x305
    1db0:	16000000 	strne	r0, [r0], -r0
    1db4:	00008e84 	andeq	r8, r0, r4, lsl #29
    1db8:	00000d21 	andeq	r0, r0, r1, lsr #26
    1dbc:	008e8c14 	addeq	r8, lr, r4, lsl ip
    1dc0:	000d0400 	andeq	r0, sp, r0, lsl #8
    1dc4:	000a7900 	andeq	r7, sl, r0, lsl #18
    1dc8:	50011500 	andpl	r1, r1, r0, lsl #10
    1dcc:	9d6c0305 	stclls	3, cr0, [ip, #-20]!	; 0xffffffec
    1dd0:	17000000 	strne	r0, [r0, -r0]
    1dd4:	00008e94 	muleq	r0, r4, lr
    1dd8:	00000d04 	andeq	r0, r0, r4, lsl #26
    1ddc:	05500115 	ldrbeq	r0, [r0, #-277]	; 0x115
    1de0:	00a4c403 	adceq	ip, r4, r3, lsl #8
    1de4:	1b000000 	blne	1dec <__code_start__-0x6214>
    1de8:	0000008a 	andeq	r0, r0, sl, lsl #1
    1dec:	00000a9d 	muleq	r0, sp, sl
    1df0:	0000811c 	andeq	r8, r0, ip, lsl r1
    1df4:	07000d00 	streq	r0, [r0, -r0, lsl #26]
    1df8:	00000a8d 	andeq	r0, r0, sp, lsl #21
    1dfc:	00045429 	andeq	r5, r4, r9, lsr #8
    1e00:	01140100 	tsteq	r4, r0, lsl #2
    1e04:	0000002c 	andeq	r0, r0, ip, lsr #32
    1e08:	00008ebc 			; <UNDEFINED> instruction: 0x00008ebc
    1e0c:	000000a4 	andeq	r0, r0, r4, lsr #1
    1e10:	0bda9c01 	bleq	ff6a8e1c <__bss_end__+0xff69e264>
    1e14:	13190000 	tstne	r9, #0
    1e18:	ea000001 	b	1e24 <__code_start__-0x61dc>
    1e1c:	0500000b 	streq	r0, [r0, #-11]
    1e20:	00a1d003 	adceq	sp, r1, r3
    1e24:	03ef2400 	mvneq	r2, #0, 8
    1e28:	1e010000 	cdpne	0, 0, cr0, cr1, cr0, {0}
    1e2c:	00002c01 	andeq	r2, r0, r1, lsl #24
    1e30:	0009f700 	andeq	pc, r9, r0, lsl #14
    1e34:	8ec41600 	cdphi	6, 12, cr1, cr4, cr0, {0}
    1e38:	0d650000 	stcleq	0, cr0, [r5, #-0]
    1e3c:	d0160000 	andsle	r0, r6, r0
    1e40:	1a00008e 	bne	2080 <__code_start__-0x5f80>
    1e44:	1400000d 	strne	r0, [r0], #-13
    1e48:	00008ee4 	andeq	r8, r0, r4, ror #29
    1e4c:	00000d04 	andeq	r0, r0, r4, lsl #26
    1e50:	00000b1d 	andeq	r0, r0, sp, lsl fp
    1e54:	03530115 	cmpeq	r3, #1073741829	; 0x40000005
    1e58:	15011a0a 	strne	r1, [r1, #-2570]	; 0xa0a
    1e5c:	03055201 	movweq	r5, #20993	; 0x5201
    1e60:	0000a1d0 	ldrdeq	sl, [r0], -r0
    1e64:	05510115 	ldrbeq	r0, [r1, #-277]	; 0x115
    1e68:	00a35403 	adceq	r5, r3, r3, lsl #8
    1e6c:	50011500 	andpl	r1, r1, r0, lsl #10
    1e70:	a4500305 	ldrbge	r0, [r0], #-773	; 0x305
    1e74:	16000000 	strne	r0, [r0], -r0
    1e78:	00008ee8 	andeq	r8, r0, r8, ror #29
    1e7c:	00000d21 	andeq	r0, r0, r1, lsr #26
    1e80:	008ef014 	addeq	pc, lr, r4, lsl r0	; <UNPREDICTABLE>
    1e84:	000d0400 	andeq	r0, sp, r0, lsl #8
    1e88:	000b3d00 	andeq	r3, fp, r0, lsl #26
    1e8c:	50011500 	andpl	r1, r1, r0, lsl #10
    1e90:	9d6c0305 	stclls	3, cr0, [ip, #-20]!	; 0xffffffec
    1e94:	14000000 	strne	r0, [r0], #-0
    1e98:	00008ef8 	strdeq	r8, [r0], -r8	; <UNPREDICTABLE>
    1e9c:	00000d04 	andeq	r0, r0, r4, lsl #26
    1ea0:	00000b54 	andeq	r0, r0, r4, asr fp
    1ea4:	05500115 	ldrbeq	r0, [r0, #-277]	; 0x115
    1ea8:	00a47803 	adceq	r7, r4, r3, lsl #16
    1eac:	00140000 	andseq	r0, r4, r0
    1eb0:	2d00008f 	stccs	0, cr0, [r0, #-572]	; 0xfffffdc4
    1eb4:	67000009 	strvs	r0, [r0, -r9]
    1eb8:	1500000b 	strne	r0, [r0, #-11]
    1ebc:	31015001 	tstcc	r1, r1
    1ec0:	8f0c1600 	svchi	0x000c1600
    1ec4:	0d1a0000 	ldceq	0, cr0, [sl, #-0]
    1ec8:	20140000 	andscs	r0, r4, r0
    1ecc:	0400008f 	streq	r0, [r0], #-143	; 0x8f
    1ed0:	a000000d 	andge	r0, r0, sp
    1ed4:	1500000b 	strne	r0, [r0, #-11]
    1ed8:	0a035301 	beq	d6ae4 <__bss_end__+0xcbf2c>
    1edc:	01150120 	tsteq	r5, r0, lsr #2
    1ee0:	d0030552 	andle	r0, r3, r2, asr r5
    1ee4:	150000a1 	strne	r0, [r0, #-161]	; 0xa1
    1ee8:	03055101 	movweq	r5, #20737	; 0x5101
    1eec:	0000a354 	andeq	sl, r0, r4, asr r3
    1ef0:	05500115 	ldrbeq	r0, [r0, #-277]	; 0x115
    1ef4:	00a4dc03 	adceq	sp, r4, r3, lsl #24
    1ef8:	24160000 	ldrcs	r0, [r6], #-0
    1efc:	2100008f 	smlabbcs	r0, pc, r0, r0	; <UNPREDICTABLE>
    1f00:	1400000d 	strne	r0, [r0], #-13
    1f04:	00008f2c 	andeq	r8, r0, ip, lsr #30
    1f08:	00000d04 	andeq	r0, r0, r4, lsl #26
    1f0c:	00000bc0 	andeq	r0, r0, r0, asr #23
    1f10:	05500115 	ldrbeq	r0, [r0, #-277]	; 0x115
    1f14:	009d6c03 	addseq	r6, sp, r3, lsl #24
    1f18:	38170000 	ldmdacc	r7, {}	; <UNPREDICTABLE>
    1f1c:	0400008f 	streq	r0, [r0], #-143	; 0x8f
    1f20:	1500000d 	strne	r0, [r0, #-13]
    1f24:	74025101 	strvc	r5, [r2], #-257	; 0x101
    1f28:	50011500 	andpl	r1, r1, r0, lsl #10
    1f2c:	a5040305 	strge	r0, [r4, #-773]	; 0x305
    1f30:	00000000 	andeq	r0, r0, r0
    1f34:	00008a1b 	andeq	r8, r0, fp, lsl sl
    1f38:	000bea00 	andeq	lr, fp, r0, lsl #20
    1f3c:	00811c00 	addeq	r1, r1, r0, lsl #24
    1f40:	00110000 	andseq	r0, r1, r0
    1f44:	000bda07 	andeq	sp, fp, r7, lsl #20
    1f48:	03e02800 	mvneq	r2, #0, 16
    1f4c:	27010000 	strcs	r0, [r1, -r0]
    1f50:	008f6001 	addeq	r6, pc, r1
    1f54:	00002c00 	andeq	r2, r0, r0, lsl #24
    1f58:	579c0100 	ldrpl	r0, [ip, r0, lsl #2]
    1f5c:	1900000c 	stmdbne	r0, {r2, r3}
    1f60:	00000113 	andeq	r0, r0, r3, lsl r1
    1f64:	00000c67 	andeq	r0, r0, r7, ror #24
    1f68:	a1e40305 	mvnge	r0, r5, lsl #6
    1f6c:	68160000 	ldmdavs	r6, {}	; <UNPREDICTABLE>
    1f70:	1a00008f 	bne	21b4 <__code_start__-0x5e4c>
    1f74:	1400000d 	strne	r0, [r0], #-13
    1f78:	00008f7c 	andeq	r8, r0, ip, ror pc
    1f7c:	00000d04 	andeq	r0, r0, r4, lsl #26
    1f80:	00000c4d 	andeq	r0, r0, sp, asr #24
    1f84:	03530115 	cmpeq	r3, #1073741829	; 0x40000005
    1f88:	1501280a 	strne	r2, [r1, #-2058]	; 0x80a
    1f8c:	03055201 	movweq	r5, #20993	; 0x5201
    1f90:	0000a1e4 	andeq	sl, r0, r4, ror #3
    1f94:	05510115 	ldrbeq	r0, [r1, #-277]	; 0x115
    1f98:	00a35403 	adceq	r5, r3, r3, lsl #8
    1f9c:	50011500 	andpl	r1, r1, r0, lsl #10
    1fa0:	a5240305 	strge	r0, [r4, #-773]!	; 0x305
    1fa4:	16000000 	strne	r0, [r0], -r0
    1fa8:	00008f80 	andeq	r8, r0, r0, lsl #31
    1fac:	00000d21 	andeq	r0, r0, r1, lsr #26
    1fb0:	008a1b00 	addeq	r1, sl, r0, lsl #22
    1fb4:	0c670000 	stcleq	0, cr0, [r7], #-0
    1fb8:	811c0000 	tsthi	ip, r0
    1fbc:	0e000000 	cdpeq	0, 0, cr0, cr0, cr0, {0}
    1fc0:	0c570700 	mrrceq	7, 0, r0, r7, cr0
    1fc4:	0e290000 	cdpeq	0, 2, cr0, cr9, cr0, {0}
    1fc8:	01000004 	tsteq	r0, r4
    1fcc:	002c014f 	eoreq	r0, ip, pc, asr #2
    1fd0:	8f8c0000 	svchi	0x008c0000
    1fd4:	00100000 	andseq	r0, r0, r0
    1fd8:	9c010000 	stcls	0, cr0, [r1], {-0}
    1fdc:	00000ca7 	andeq	r0, r0, r7, lsr #25
    1fe0:	00036f25 	andeq	r6, r3, r5, lsr #30
    1fe4:	01510100 	cmpeq	r1, r0, lsl #2
    1fe8:	0000002c 	andeq	r0, r0, ip, lsr #32
    1fec:	94165001 	ldrls	r5, [r6], #-1
    1ff0:	bc00008f 	stclt	0, cr0, [r0], {143}	; 0x8f
    1ff4:	16000005 	strne	r0, [r0], -r5
    1ff8:	00008f98 	muleq	r0, r8, pc	; <UNPREDICTABLE>
    1ffc:	0000074b 	andeq	r0, r0, fp, asr #14
    2000:	02ea1e00 	rsceq	r1, sl, #0, 28
    2004:	14010000 	strne	r0, [r1], #-0
    2008:	000001a4 	andeq	r0, r0, r4, lsr #3
    200c:	a7a00305 	strge	r0, [r0, r5, lsl #6]!
    2010:	22200000 	eorcs	r0, r0, #0
    2014:	01000004 	tsteq	r0, r4
    2018:	000068f0 	strdeq	r6, [r0], -r0
    201c:	04302000 	ldrteq	r2, [r0], #-0
    2020:	f0010000 			; <UNDEFINED> instruction: 0xf0010000
    2024:	00000068 	andeq	r0, r0, r8, rrx
    2028:	00018b20 	andeq	r8, r1, r0, lsr #22
    202c:	68f30100 	ldmvs	r3!, {r8}^
    2030:	20000000 	andcs	r0, r0, r0
    2034:	0000019a 	muleq	r0, sl, r1
    2038:	0068f301 	rsbeq	pc, r8, r1, lsl #6
    203c:	b42a0000 	strtlt	r0, [sl], #-0
    2040:	03000001 	movweq	r0, #1
    2044:	0001fb94 	muleq	r1, r4, fp
    2048:	02842b00 	addeq	r2, r4, #0, 22
    204c:	96030000 	strls	r0, [r3], -r0
    2050:	000001fb 	strdeq	r0, [r0], -fp
    2054:	00000d04 	andeq	r0, r0, r4, lsl #26
    2058:	0001fb2c 	andeq	pc, r1, ip, lsr #22
    205c:	172b0000 	strne	r0, [fp, -r0]!
    2060:	04000005 	streq	r0, [r0], #-5
    2064:	00002529 	andeq	r2, r0, r9, lsr #10
    2068:	000d1a00 	andeq	r1, sp, r0, lsl #20
    206c:	00912c00 	addseq	r2, r1, r0, lsl #24
    2070:	002d0000 	eoreq	r0, sp, r0
    2074:	0002432e 	andeq	r4, r2, lr, lsr #6
    2078:	2e1e0400 	cfmulscs	mvf0, mvf14, mvf0
    207c:	00000290 	muleq	r0, r0, r2
    2080:	e52a6504 	str	r6, [sl, #-1284]!	; 0x504
    2084:	03000002 	movweq	r0, #2
    2088:	0001a4a7 	andeq	sl, r1, r7, lsr #9
    208c:	04662f00 	strbteq	r2, [r6], #-3840	; 0xf00
    2090:	c7010000 	strgt	r0, [r1, -r0]
    2094:	00000d45 	andeq	r0, r0, r5, asr #26
    2098:	0005a12c 	andeq	sl, r5, ip, lsr #2
    209c:	2f002d00 	svccs	0x00002d00
    20a0:	0000027d 	andeq	r0, r0, sp, ror r2
    20a4:	0d651205 	sfmeq	f1, 2, [r5, #-20]!	; 0xffffffec
    20a8:	882c0000 	stmdahi	ip!, {}	; <UNPREDICTABLE>
    20ac:	2c000000 	stccs	0, cr0, [r0], {-0}
    20b0:	00000091 	muleq	r0, r1, r0
    20b4:	0000912c 	andeq	r9, r0, ip, lsr #2
    20b8:	002c2c00 	eoreq	r2, ip, r0, lsl #24
    20bc:	2a000000 	bcs	20c4 <__code_start__-0x5f3c>
    20c0:	00000227 	andeq	r0, r0, r7, lsr #4
    20c4:	00251e05 	eoreq	r1, r5, r5, lsl #28
    20c8:	12000000 	andne	r0, r0, #0
    20cc:	04000001 	streq	r0, [r0], #-1
    20d0:	00068400 	andeq	r8, r6, r0, lsl #8
    20d4:	76010400 	strvc	r0, [r1], -r0, lsl #8
    20d8:	01000000 	mrseq	r0, (UNDEF: 0)
    20dc:	00000497 	muleq	r0, r7, r4
    20e0:	000004a3 	andeq	r0, r0, r3, lsr #9
    20e4:	00008fa4 	andeq	r8, r0, r4, lsr #31
    20e8:	000000f0 	strdeq	r0, [r0], -r0	; <UNPREDICTABLE>
    20ec:	00000677 	andeq	r0, r0, r7, ror r6
    20f0:	69050402 	stmdbvs	r5, {r1, sl}
    20f4:	0300746e 	movweq	r7, #1134	; 0x46e
    20f8:	01370704 	teqeq	r7, r4, lsl #14
    20fc:	01030000 	mrseq	r0, (UNDEF: 3)
    2100:	0000e506 	andeq	lr, r0, r6, lsl #10
    2104:	05020300 	streq	r0, [r2, #-768]	; 0x300
    2108:	00000164 	andeq	r0, r0, r4, ror #2
    210c:	5b050403 	blpl	143120 <__bss_end__+0x138568>
    2110:	03000001 	movweq	r0, #1
    2114:	01560508 	cmpeq	r6, r8, lsl #10
    2118:	84040000 	strhi	r0, [r4], #-0
    211c:	02000003 	andeq	r0, r0, #3
    2120:	00005a2e 	andeq	r5, r0, lr, lsr #20
    2124:	08010300 	stmdaeq	r1, {r8, r9}
    2128:	000000e3 	andeq	r0, r0, r3, ror #1
    212c:	f1070203 			; <UNDEFINED> instruction: 0xf1070203
    2130:	04000000 	streq	r0, [r0], #-0
    2134:	0000016e 	andeq	r0, r0, lr, ror #2
    2138:	00733402 	rsbseq	r3, r3, r2, lsl #8
    213c:	04030000 	streq	r0, [r3], #-0
    2140:	00013207 	andeq	r3, r1, r7, lsl #4
    2144:	07080300 	streq	r0, [r8, -r0, lsl #6]
    2148:	0000012d 	andeq	r0, r0, sp, lsr #2
    214c:	4d070403 	cfstrsmi	mvf0, [r7, #-12]
    2150:	03000001 	movweq	r0, #1
    2154:	00ec0801 	rsceq	r0, ip, r1, lsl #16
    2158:	04050000 	streq	r0, [r5], #-0
    215c:	00000095 	muleq	r0, r5, r0
    2160:	00008806 	andeq	r8, r0, r6, lsl #16
    2164:	01d60700 	bicseq	r0, r6, r0, lsl #14
    2168:	0f010000 	svceq	0x00010000
    216c:	00000068 	andeq	r0, r0, r8, rrx
    2170:	00008fa4 	andeq	r8, r0, r4, lsr #31
    2174:	000000f0 	strdeq	r0, [r0], -r0	; <UNPREDICTABLE>
    2178:	010e9c01 	tsteq	lr, r1, lsl #24
    217c:	d7080000 	strle	r0, [r8, -r0]
    2180:	0100000b 	tsteq	r0, fp
    2184:	00010e0f 	andeq	r0, r1, pc, lsl #28
    2188:	000a2b00 	andeq	r2, sl, r0, lsl #22
    218c:	656c0900 	strbvs	r0, [ip, #-2304]!	; 0x900
    2190:	0f01006e 	svceq	0x0001006e
    2194:	00000025 	andeq	r0, r0, r5, lsr #32
    2198:	00000a65 	andeq	r0, r0, r5, ror #20
    219c:	000bd80a 	andeq	sp, fp, sl, lsl #16
    21a0:	8f100100 	svchi	0x00100100
    21a4:	a4000000 	strge	r0, [r0], #-0
    21a8:	0a00000a 	beq	21d8 <__code_start__-0x5e28>
    21ac:	000001db 	ldrdeq	r0, [r0], -fp
    21b0:	00681101 	rsbeq	r1, r8, r1, lsl #2
    21b4:	0ae30000 	beq	ff8c21bc <__bss_end__+0xff8b7604>
    21b8:	740b0000 	strvc	r0, [fp], #-0
    21bc:	0100706d 	tsteq	r0, sp, rrx
    21c0:	00006811 	andeq	r6, r0, r1, lsl r8
    21c4:	000b2d00 	andeq	r2, fp, r0, lsl #26
    21c8:	65720b00 	ldrbvs	r0, [r2, #-2816]!	; 0xb00
    21cc:	1201006d 	andne	r0, r1, #109	; 0x6d
    21d0:	00000025 	andeq	r0, r0, r5, lsr #32
    21d4:	00000b78 	andeq	r0, r0, r8, ror fp
    21d8:	14040500 	strne	r0, [r4], #-1280	; 0x500
    21dc:	0c000001 	stceq	0, cr0, [r0], {1}
    21e0:	0000db00 	andeq	sp, r0, r0, lsl #22
    21e4:	28000400 	stmdacs	r0, {sl}
    21e8:	04000007 	streq	r0, [r0], #-7
    21ec:	00007601 	andeq	r7, r0, r1, lsl #12
    21f0:	04e90100 	strbteq	r0, [r9], #256	; 0x100
    21f4:	04a30000 	strteq	r0, [r3], #0
    21f8:	90940000 	addsls	r0, r4, r0
    21fc:	00200000 	eoreq	r0, r0, r0
    2200:	07590000 	ldrbeq	r0, [r9, -r0]
    2204:	01020000 	mrseq	r0, (UNDEF: 2)
    2208:	0000e506 	andeq	lr, r0, r6, lsl #10
    220c:	08010200 	stmdaeq	r1, {r9}
    2210:	000000e3 	andeq	r0, r0, r3, ror #1
    2214:	64050202 	strvs	r0, [r5], #-514	; 0x202
    2218:	02000001 	andeq	r0, r0, #1
    221c:	00f10702 	rscseq	r0, r1, r2, lsl #14
    2220:	04030000 	streq	r0, [r3], #-0
    2224:	746e6905 	strbtvc	r6, [lr], #-2309	; 0x905
    2228:	07040200 	streq	r0, [r4, -r0, lsl #4]
    222c:	00000137 	andeq	r0, r0, r7, lsr r1
    2230:	56050802 	strpl	r0, [r5], -r2, lsl #16
    2234:	02000001 	andeq	r0, r0, #1
    2238:	012d0708 	teqeq	sp, r8, lsl #14
    223c:	04020000 	streq	r0, [r2], #-0
    2240:	00015b05 	andeq	r5, r1, r5, lsl #22
    2244:	07040200 	streq	r0, [r4, -r0, lsl #4]
    2248:	0000014d 	andeq	r0, r0, sp, asr #2
    224c:	04020404 	streq	r0, [r2], #-1028	; 0x404
    2250:	00013207 	andeq	r3, r1, r7, lsl #4
    2254:	7a040500 	bvc	10365c <__bss_end__+0xf8aa4>
    2258:	02000000 	andeq	r0, r0, #0
    225c:	00ec0801 	rsceq	r0, ip, r1, lsl #16
    2260:	00060000 	andeq	r0, r6, r0
    2264:	02000000 	andeq	r0, r0, #0
    2268:	000048d4 	ldrdeq	r4, [r0], -r4	; <UNPREDICTABLE>
    226c:	010c0700 	tsteq	ip, r0, lsl #14
    2270:	1b030000 	blne	c2278 <__bss_end__+0xb76c0>
    2274:	0000006b 	andeq	r0, r0, fp, rrx
    2278:	00009094 	muleq	r0, r4, r0
    227c:	00000020 	andeq	r0, r0, r0, lsr #32
    2280:	5f089c01 	svcpl	0x00089c01
    2284:	03010070 	movweq	r0, #4208	; 0x1070
    2288:	0000006b 	andeq	r0, r0, fp, rrx
    228c:	63085001 	movwvs	r5, #32769	; 0x8001
    2290:	41030100 	mrsmi	r0, (UNDEF: 19)
    2294:	01000000 	mrseq	r0, (UNDEF: 0)
    2298:	006e0951 	rsbeq	r0, lr, r1, asr r9
    229c:	00810301 	addeq	r0, r1, r1, lsl #6
    22a0:	0b8b0000 	bleq	fe2c22a8 <__bss_end__+0xfe2b76f0>
    22a4:	700a0000 	andvc	r0, sl, r0
    22a8:	74040100 	strvc	r0, [r4], #-256	; 0x100
    22ac:	ac000000 	stcge	0, cr0, [r0], {-0}
    22b0:	0b00000b 	bleq	22e4 <__code_start__-0x5d1c>
    22b4:	04010065 	streq	r0, [r1], #-101	; 0x65
    22b8:	00000074 	andeq	r0, r0, r4, ror r0
    22bc:	00005201 	andeq	r5, r0, r1, lsl #4
    22c0:	00000191 	muleq	r0, r1, r1
    22c4:	07c50004 	strbeq	r0, [r5, r4]
    22c8:	01040000 	mrseq	r0, (UNDEF: 4)
    22cc:	00000076 	andeq	r0, r0, r6, ror r0
    22d0:	00050601 	andeq	r0, r5, r1, lsl #12
    22d4:	0004a300 	andeq	sl, r4, r0, lsl #6
    22d8:	0090b400 	addseq	fp, r0, r0, lsl #8
    22dc:	00005800 	andeq	r5, r0, r0, lsl #16
    22e0:	00084900 	andeq	r4, r8, r0, lsl #18
    22e4:	04f70200 	ldrbteq	r0, [r7], #512	; 0x200
    22e8:	28020000 	stmdacs	r2, {}	; <UNPREDICTABLE>
    22ec:	00000030 	andeq	r0, r0, r0, lsr r0
    22f0:	00051e03 	andeq	r1, r5, r3, lsl #28
    22f4:	00030400 	andeq	r0, r3, r0, lsl #8
    22f8:	00000047 	andeq	r0, r0, r7, asr #32
    22fc:	00052804 	andeq	r2, r5, r4, lsl #16
    2300:	00004700 	andeq	r4, r0, r0, lsl #14
    2304:	05000000 	streq	r0, [r0, #-0]
    2308:	05200204 	streq	r0, [r0, #-516]!	; 0x204
    230c:	62020000 	andvs	r0, r2, #0
    2310:	00000025 	andeq	r0, r0, r5, lsr #32
    2314:	69050406 	stmdbvs	r5, {r1, r2, sl}
    2318:	0700746e 	streq	r7, [r0, -lr, ror #8]
    231c:	01370704 	teqeq	r7, r4, lsl #14
    2320:	01070000 	mrseq	r0, (UNDEF: 7)
    2324:	0000e506 	andeq	lr, r0, r6, lsl #10
    2328:	05020700 	streq	r0, [r2, #-1792]	; 0x700
    232c:	00000164 	andeq	r0, r0, r4, ror #2
    2330:	5b050407 	blpl	143354 <__bss_end__+0x13879c>
    2334:	07000001 	streq	r0, [r0, -r1]
    2338:	01560508 	cmpeq	r6, r8, lsl #10
    233c:	01070000 	mrseq	r0, (UNDEF: 7)
    2340:	0000e308 	andeq	lr, r0, r8, lsl #6
    2344:	07020700 	streq	r0, [r2, -r0, lsl #14]
    2348:	000000f1 	strdeq	r0, [r0], -r1
    234c:	32070407 	andcc	r0, r7, #117440512	; 0x7000000
    2350:	07000001 	streq	r0, [r0, -r1]
    2354:	012d0708 	teqeq	sp, r8, lsl #14
    2358:	04070000 	streq	r0, [r7], #-0
    235c:	00014d07 	andeq	r4, r1, r7, lsl #26
    2360:	a7040800 	strge	r0, [r4, -r0, lsl #16]
    2364:	07000000 	streq	r0, [r0, -r0]
    2368:	00ec0801 	rsceq	r0, ip, r1, lsl #16
    236c:	04080000 	streq	r0, [r8], #-0
    2370:	000000b4 	strheq	r0, [r0], -r4
    2374:	0000a709 	andeq	sl, r0, r9, lsl #14
    2378:	05170a00 	ldreq	r0, [r7, #-2560]	; 0xa00
    237c:	06010000 	streq	r0, [r1], -r0
    2380:	00000054 	andeq	r0, r0, r4, asr r0
    2384:	000090b4 	strheq	r9, [r0], -r4
    2388:	00000058 	andeq	r0, r0, r8, asr r0
    238c:	01439c01 	cmpeq	r3, r1, lsl #24
    2390:	660b0000 	strvs	r0, [fp], -r0
    2394:	0100746d 	tsteq	r0, sp, ror #8
    2398:	0000ae06 	andeq	sl, r0, r6, lsl #28
    239c:	70910200 	addsvc	r0, r1, r0, lsl #4
    23a0:	75620d0c 	strbvc	r0, [r2, #-3340]!	; 0xd0c
    23a4:	08010066 	stmdaeq	r1, {r1, r2, r5, r6}
    23a8:	00000143 	andeq	r0, r0, r3, asr #2
    23ac:	a7b00305 	ldrge	r0, [r0, r5, lsl #6]!
    23b0:	cf0e0000 	svcgt	0x000e0000
    23b4:	01000007 	tsteq	r0, r7
    23b8:	00004909 	andeq	r4, r0, r9, lsl #18
    23bc:	5c910200 	lfmpl	f0, 4, [r1], {0}
    23c0:	007a730f 	rsbseq	r7, sl, pc, lsl #6
    23c4:	00540c01 	subseq	r0, r4, r1, lsl #24
    23c8:	0bd70000 	bleq	ff5c23d0 <__bss_end__+0xff5b7818>
    23cc:	dc100000 	ldcle	0, cr0, [r0], {-0}
    23d0:	74000090 	strvc	r0, [r0], #-144	; 0x90
    23d4:	36000001 	strcc	r0, [r0], -r1
    23d8:	11000001 	tstne	r0, r1
    23dc:	91025301 	tstls	r2, r1, lsl #6
    23e0:	5201114c 	andpl	r1, r1, #76, 2
    23e4:	06489103 	strbeq	r9, [r8], -r3, lsl #2
    23e8:	03510111 	cmpeq	r1, #1073741828	; 0x40000004
    23ec:	1104000a 	tstne	r4, sl
    23f0:	74025001 	strvc	r5, [r2], #-1
    23f4:	f0120000 			; <UNDEFINED> instruction: 0xf0120000
    23f8:	11000090 	swpne	r0, r0, [r0]	; <UNPREDICTABLE>
    23fc:	74025001 	strvc	r5, [r2], #-1
    2400:	13000000 	movwne	r0, #0
    2404:	000000a7 	andeq	r0, r0, r7, lsr #1
    2408:	00000154 	andeq	r0, r0, r4, asr r1
    240c:	00009a14 	andeq	r9, r0, r4, lsl sl
    2410:	0003ff00 	andeq	pc, r3, r0, lsl #30
    2414:	00005415 	andeq	r5, r0, r5, lsl r4
    2418:	00016300 	andeq	r6, r1, r0, lsl #6
    241c:	00ae1600 	adceq	r1, lr, r0, lsl #12
    2420:	17000000 	strne	r0, [r0, -r0]
    2424:	00000585 	andeq	r0, r0, r5, lsl #11
    2428:	016e2204 	cmneq	lr, r4, lsl #4
    242c:	04080000 	streq	r0, [r8], #-0
    2430:	00000154 	andeq	r0, r0, r4, asr r1
    2434:	00051418 	andeq	r1, r5, r8, lsl r4
    2438:	54020500 	strpl	r0, [r2], #-1280	; 0x500
    243c:	16000000 	strne	r0, [r0], -r0
    2440:	000000a1 	andeq	r0, r0, r1, lsr #1
    2444:	00005416 	andeq	r5, r0, r6, lsl r4
    2448:	00ae1600 	adceq	r1, lr, r0, lsl #12
    244c:	49160000 	ldmdbmi	r6, {}	; <UNPREDICTABLE>
    2450:	00000000 	andeq	r0, r0, r0
    2454:	00011300 	andeq	r1, r1, r0, lsl #6
    2458:	f6000400 			; <UNDEFINED> instruction: 0xf6000400
    245c:	04000008 	streq	r0, [r0], #-8
    2460:	00007601 	andeq	r7, r0, r1, lsl #12
    2464:	05540100 	ldrbeq	r0, [r4, #-256]	; 0x100
    2468:	04a30000 	strteq	r0, [r3], #0
    246c:	910c0000 	mrsls	r0, (UNDEF: 12)
    2470:	003c0000 	eorseq	r0, ip, r0
    2474:	09590000 	ldmdbeq	r9, {}^	; <UNPREDICTABLE>
    2478:	04020000 	streq	r0, [r2], #-0
    247c:	746e6905 	strbtvc	r6, [lr], #-2309	; 0x905
    2480:	07040300 	streq	r0, [r4, -r0, lsl #6]
    2484:	00000137 	andeq	r0, r0, r7, lsr r1
    2488:	e5060103 	str	r0, [r6, #-259]	; 0x103
    248c:	03000000 	movweq	r0, #0
    2490:	01640502 	cmneq	r4, r2, lsl #10
    2494:	04030000 	streq	r0, [r3], #-0
    2498:	00015b05 	andeq	r5, r1, r5, lsl #22
    249c:	05080300 	streq	r0, [r8, #-768]	; 0x300
    24a0:	00000156 	andeq	r0, r0, r6, asr r1
    24a4:	e3080103 	movw	r0, #33027	; 0x8103
    24a8:	03000000 	movweq	r0, #0
    24ac:	00f10702 	rscseq	r0, r1, r2, lsl #14
    24b0:	04030000 	streq	r0, [r3], #-0
    24b4:	00013207 	andeq	r3, r1, r7, lsl #4
    24b8:	07080300 	streq	r0, [r8, -r0, lsl #6]
    24bc:	0000012d 	andeq	r0, r0, sp, lsr #2
    24c0:	4d070403 	cfstrsmi	mvf0, [r7, #-12]
    24c4:	03000001 	movweq	r0, #1
    24c8:	00ec0801 	rsceq	r0, ip, r1, lsl #16
    24cc:	37040000 	strcc	r0, [r4, -r0]
    24d0:	01000005 	tsteq	r0, r5
    24d4:	00002503 	andeq	r2, r0, r3, lsl #10
    24d8:	00910c00 	addseq	r0, r1, r0, lsl #24
    24dc:	00001400 	andeq	r1, r0, r0, lsl #8
    24e0:	b09c0100 	addslt	r0, ip, r0, lsl #2
    24e4:	05000000 	streq	r0, [r0, #-0]
    24e8:	03010063 	movweq	r0, #4195	; 0x1063
    24ec:	00000025 	andeq	r0, r0, r5, lsr #32
    24f0:	00000c00 	andeq	r0, r0, r0, lsl #24
    24f4:	00911806 	addseq	r1, r1, r6, lsl #16
    24f8:	00010900 	andeq	r0, r1, r0, lsl #18
    24fc:	50010700 	andpl	r0, r1, r0, lsl #14
    2500:	00007402 	andeq	r7, r0, r2, lsl #8
    2504:	02430800 	subeq	r0, r3, #0, 16
    2508:	08010000 	stmdaeq	r1, {}	; <UNPREDICTABLE>
    250c:	00009120 	andeq	r9, r0, r0, lsr #2
    2510:	00000018 	andeq	r0, r0, r8, lsl r0
    2514:	63099c01 	movwvs	r9, #39937	; 0x9c01
    2518:	01000005 	tsteq	r0, r5
    251c:	0091380b 	addseq	r3, r1, fp, lsl #16
    2520:	00001000 	andeq	r1, r0, r0
    2524:	e39c0100 	orrs	r0, ip, #0, 2
    2528:	0a000000 	beq	2530 <__code_start__-0x5ad0>
    252c:	01007066 	tsteq	r0, r6, rrx
    2530:	0000f20b 	andeq	pc, r0, fp, lsl #4
    2534:	00500100 	subseq	r0, r0, r0, lsl #2
    2538:	0000250b 	andeq	r2, r0, fp, lsl #10
    253c:	0000f200 	andeq	pc, r0, r0, lsl #4
    2540:	00250c00 	eoreq	r0, r5, r0, lsl #24
    2544:	0d000000 	stceq	0, cr0, [r0, #-0]
    2548:	0000e304 	andeq	lr, r0, r4, lsl #6
    254c:	05480e00 	strbeq	r0, [r8, #-3584]	; 0xe00
    2550:	06010000 	streq	r0, [r1], -r0
    2554:	000000f2 	strdeq	r0, [r0], -r2
    2558:	9c700305 	ldclls	3, cr0, [r0], #-20	; 0xffffffec
    255c:	2d0f0000 	stccs	0, cr0, [pc, #-0]	; 2564 <__code_start__-0x5a9c>
    2560:	02000005 	andeq	r0, r0, #5
    2564:	002c0c3c 	eoreq	r0, ip, ip, lsr ip
    2568:	00000000 	andeq	r0, r0, r0
    256c:	000000ee 	andeq	r0, r0, lr, ror #1
    2570:	09de0004 	ldmibeq	lr, {r2}^
    2574:	01040000 	mrseq	r0, (UNDEF: 4)
    2578:	00000076 	andeq	r0, r0, r6, ror r0
    257c:	00057001 	andeq	r7, r5, r1
    2580:	0004a300 	andeq	sl, r4, r0, lsl #6
    2584:	00914800 	addseq	r4, r1, r0, lsl #16
    2588:	00003400 	andeq	r3, r0, r0, lsl #8
    258c:	0009f100 	andeq	pc, r9, r0, lsl #2
    2590:	05040200 	streq	r0, [r4, #-512]	; 0x200
    2594:	00746e69 	rsbseq	r6, r4, r9, ror #28
    2598:	37070403 	strcc	r0, [r7, -r3, lsl #8]
    259c:	03000001 	movweq	r0, #1
    25a0:	00e50601 	rsceq	r0, r5, r1, lsl #12
    25a4:	02030000 	andeq	r0, r3, #0
    25a8:	00016405 	andeq	r6, r1, r5, lsl #8
    25ac:	05040300 	streq	r0, [r4, #-768]	; 0x300
    25b0:	0000015b 	andeq	r0, r0, fp, asr r1
    25b4:	56050803 	strpl	r0, [r5], -r3, lsl #16
    25b8:	03000001 	movweq	r0, #1
    25bc:	00e30801 	rsceq	r0, r3, r1, lsl #16
    25c0:	02030000 	andeq	r0, r3, #0
    25c4:	0000f107 	andeq	pc, r0, r7, lsl #2
    25c8:	07040300 	streq	r0, [r4, -r0, lsl #6]
    25cc:	00000132 	andeq	r0, r0, r2, lsr r1
    25d0:	2d070803 	stccs	8, cr0, [r7, #-12]
    25d4:	03000001 	movweq	r0, #1
    25d8:	014d0704 	cmpeq	sp, r4, lsl #14
    25dc:	01030000 	mrseq	r0, (UNDEF: 3)
    25e0:	0000ec08 	andeq	lr, r0, r8, lsl #24
    25e4:	7f040400 	svcvc	0x00040400
    25e8:	05000000 	streq	r0, [r0, #-0]
    25ec:	00000072 	andeq	r0, r0, r2, ror r0
    25f0:	00057c06 	andeq	r7, r5, r6, lsl #24
    25f4:	25040100 	strcs	r0, [r4, #-256]	; 0x100
    25f8:	48000000 	stmdami	r0, {}	; <UNPREDICTABLE>
    25fc:	34000091 	strcc	r0, [r0], #-145	; 0x91
    2600:	01000000 	mrseq	r0, (UNDEF: 0)
    2604:	0000ab9c 	muleq	r0, ip, fp
    2608:	00700700 	rsbseq	r0, r0, r0, lsl #14
    260c:	00790401 	rsbseq	r0, r9, r1, lsl #8
    2610:	0c1e0000 	ldceq	0, cr0, [lr], {-0}
    2614:	08000000 	stmdaeq	r0, {}	; <UNPREDICTABLE>
    2618:	00000025 	andeq	r0, r0, r5, lsr #32
    261c:	000000ba 	strheq	r0, [r0], -sl
    2620:	00002509 	andeq	r2, r0, r9, lsl #10
    2624:	480a0000 	stmdami	sl, {}	; <UNPREDICTABLE>
    2628:	02000005 	andeq	r0, r0, #5
    262c:	0000c51d 	andeq	ip, r0, sp, lsl r5
    2630:	ab040400 	blge	103638 <__bss_end__+0xf8a80>
    2634:	08000000 	stmdaeq	r0, {}	; <UNPREDICTABLE>
    2638:	00000025 	andeq	r0, r0, r5, lsr #32
    263c:	000000da 	ldrdeq	r0, [r0], -sl
    2640:	00007909 	andeq	r7, r0, r9, lsl #18
    2644:	850b0000 	strhi	r0, [fp, #-0]
    2648:	01000005 	tsteq	r0, r5
    264c:	0000eb0c 	andeq	lr, r0, ip, lsl #22
    2650:	74030500 	strvc	r0, [r3], #-1280	; 0x500
    2654:	0400009c 	streq	r0, [r0], #-156	; 0x9c
    2658:	0000cb04 	andeq	ip, r0, r4, lsl #22
    265c:	06810000 	streq	r0, [r1], r0
    2660:	00040000 	andeq	r0, r4, r0
    2664:	00000a77 	andeq	r0, r0, r7, ror sl
    2668:	00760104 	rsbseq	r0, r6, r4, lsl #2
    266c:	b1010000 	mrslt	r0, (UNDEF: 1)
    2670:	a3000005 	movwge	r0, #5
    2674:	7c000004 	stcvc	0, cr0, [r0], {4}
    2678:	0c000091 	stceq	0, cr0, [r0], {145}	; 0x91
    267c:	95000005 	strls	r0, [r0, #-5]
    2680:	0200000a 	andeq	r0, r0, #10
    2684:	6e690504 	cdpvs	5, 6, cr0, cr9, cr4, {0}
    2688:	04030074 	streq	r0, [r3], #-116	; 0x74
    268c:	00013707 	andeq	r3, r1, r7, lsl #14
    2690:	06010300 	streq	r0, [r1], -r0, lsl #6
    2694:	000000e5 	andeq	r0, r0, r5, ror #1
    2698:	64050203 	strvs	r0, [r5], #-515	; 0x203
    269c:	03000001 	movweq	r0, #1
    26a0:	015b0504 	cmpeq	fp, r4, lsl #10
    26a4:	08030000 	stmdaeq	r3, {}	; <UNPREDICTABLE>
    26a8:	00015605 	andeq	r5, r1, r5, lsl #12
    26ac:	08010300 	stmdaeq	r1, {r8, r9}
    26b0:	000000e3 	andeq	r0, r0, r3, ror #1
    26b4:	f1070203 			; <UNDEFINED> instruction: 0xf1070203
    26b8:	03000000 	movweq	r0, #0
    26bc:	01320704 	teqeq	r2, r4, lsl #14
    26c0:	08030000 	stmdaeq	r3, {}	; <UNPREDICTABLE>
    26c4:	00012d07 	andeq	r2, r1, r7, lsl #26
    26c8:	07040300 	streq	r0, [r4, -r0, lsl #6]
    26cc:	0000014d 	andeq	r0, r0, sp, asr #2
    26d0:	04050404 	streq	r0, [r5], #-1028	; 0x404
    26d4:	0000007a 	andeq	r0, r0, sl, ror r0
    26d8:	ec080103 	stfs	f0, [r8], {3}
    26dc:	05000000 	streq	r0, [r0, #-0]
    26e0:	00008704 	andeq	r8, r0, r4, lsl #14
    26e4:	007a0600 	rsbseq	r0, sl, r0, lsl #12
    26e8:	f7070000 			; <UNDEFINED> instruction: 0xf7070000
    26ec:	02000004 	andeq	r0, r0, #4
    26f0:	00009728 	andeq	r9, r0, r8, lsr #14
    26f4:	051e0800 	ldreq	r0, [lr, #-2048]	; 0x800
    26f8:	04040000 	streq	r0, [r4], #-0
    26fc:	0000ae00 	andeq	sl, r0, r0, lsl #28
    2700:	05280900 	streq	r0, [r8, #-2304]!	; 0x900
    2704:	00720000 	rsbseq	r0, r2, r0
    2708:	00000000 	andeq	r0, r0, r0
    270c:	00052007 	andeq	r2, r5, r7
    2710:	8c620200 	sfmhi	f0, 2, [r2], #-0
    2714:	0a000000 	beq	271c <__code_start__-0x58e4>
    2718:	00000598 	muleq	r0, r8, r5
    271c:	00252701 	eoreq	r2, r5, r1, lsl #14
    2720:	917c0000 	cmnls	ip, r0
    2724:	00140000 	andseq	r0, r4, r0
    2728:	9c010000 	stcls	0, cr0, [r1], {-0}
    272c:	000000e0 	andeq	r0, r0, r0, ror #1
    2730:	0100630b 	tsteq	r0, fp, lsl #6
    2734:	00002527 	andeq	r2, r0, r7, lsr #10
    2738:	000c3c00 	andeq	r3, ip, r0, lsl #24
    273c:	700c0000 	andvc	r0, ip, r0
    2740:	01006461 	tsteq	r0, r1, ror #8
    2744:	0000742e 	andeq	r7, r0, lr, lsr #8
    2748:	00919000 	addseq	r9, r1, r0
    274c:	00002c00 	andeq	r2, r0, r0, lsl #24
    2750:	309c0100 	addscc	r0, ip, r0, lsl #2
    2754:	0b000001 	bleq	2760 <__code_start__-0x58a0>
    2758:	2e010070 	mcrcs	0, 0, r0, cr1, cr0, {3}
    275c:	00000074 	andeq	r0, r0, r4, ror r0
    2760:	00000c6a 	andeq	r0, r0, sl, ror #24
    2764:	0007ad0d 	andeq	sl, r7, sp, lsl #26
    2768:	742e0100 	strtvc	r0, [lr], #-256	; 0x100
    276c:	95000000 	strls	r0, [r0, #-0]
    2770:	0e00000c 	cdpeq	0, 0, cr0, cr0, cr12, {0}
    2774:	000005d1 	ldrdeq	r0, [r0], -r1
    2778:	00252e01 	eoreq	r2, r5, r1, lsl #28
    277c:	52010000 	andpl	r0, r1, #0
    2780:	6e656c0f 	cdpvs	12, 6, cr6, cr5, cr15, {0}
    2784:	252f0100 	strcs	r0, [pc, #-256]!	; 268c <__code_start__-0x5974>
    2788:	01000000 	mrseq	r0, (UNDEF: 0)
    278c:	900a0051 	andls	r0, sl, r1, asr r0
    2790:	01000005 	tsteq	r0, r5
    2794:	00007437 	andeq	r7, r0, r7, lsr r4
    2798:	0091bc00 	addseq	fp, r1, r0, lsl #24
    279c:	00004000 	andeq	r4, r0, r0
    27a0:	9c9c0100 	ldflss	f0, [ip], {0}
    27a4:	0b000001 	bleq	27b0 <__code_start__-0x5850>
    27a8:	00747364 	rsbseq	r7, r4, r4, ror #6
    27ac:	00743701 	rsbseq	r3, r4, r1, lsl #14
    27b0:	0cb60000 	ldceq	0, cr0, [r6]
    27b4:	6e0b0000 	cdpvs	0, 0, cr0, cr11, cr0, {0}
    27b8:	25370100 	ldrcs	r0, [r7, #-256]!	; 0x100
    27bc:	ee000000 	cdp	0, 0, cr0, cr0, cr0, {0}
    27c0:	0b00000c 	bleq	27f8 <__code_start__-0x5808>
    27c4:	37010070 	smlsdxcc	r1, r0, r0, r0
    27c8:	00000074 	andeq	r0, r0, r4, ror r0
    27cc:	00000d0f 	andeq	r0, r0, pc, lsl #26
    27d0:	000d680d 	andeq	r6, sp, sp, lsl #16
    27d4:	74370100 	ldrtvc	r0, [r7], #-256	; 0x100
    27d8:	45000000 	strmi	r0, [r0, #-0]
    27dc:	1000000d 	andne	r0, r0, sp
    27e0:	006e656c 	rsbeq	r6, lr, ip, ror #10
    27e4:	00253901 	eoreq	r3, r5, r1, lsl #18
    27e8:	0d630000 	stcleq	0, cr0, [r3, #-0]
    27ec:	730f0000 	movwvc	r0, #61440	; 0xf000
    27f0:	743d0100 	ldrtvc	r0, [sp], #-256	; 0x100
    27f4:	01000000 	mrseq	r0, (UNDEF: 0)
    27f8:	df0a0050 	svcle	0x000a0050
    27fc:	01000005 	tsteq	r0, r5
    2800:	00007447 	andeq	r7, r0, r7, asr #8
    2804:	0091fc00 	addseq	pc, r1, r0, lsl #24
    2808:	0001b000 	andeq	fp, r1, r0
    280c:	d39c0100 	orrsle	r0, ip, #0, 2
    2810:	0d000002 	stceq	0, cr0, [r0, #-8]
    2814:	000007ad 	andeq	r0, r0, sp, lsr #15
    2818:	002c4701 	eoreq	r4, ip, r1, lsl #14
    281c:	0d8a0000 	stceq	0, cr0, [sl]
    2820:	640b0000 	strvs	r0, [fp], #-0
    2824:	01007473 	tsteq	r0, r3, ror r4
    2828:	00007447 	andeq	r7, r0, r7, asr #8
    282c:	000db800 	andeq	fp, sp, r0, lsl #16
    2830:	006e0b00 	rsbeq	r0, lr, r0, lsl #22
    2834:	00254701 	eoreq	r4, r5, r1, lsl #14
    2838:	0e260000 	cdpeq	0, 2, cr0, cr6, cr0, {0}
    283c:	760b0000 	strvc	r0, [fp], -r0
    2840:	01006c61 	tsteq	r0, r1, ror #24
    2844:	00002547 	andeq	r2, r0, r7, asr #10
    2848:	000e5200 	andeq	r5, lr, r0, lsl #4
    284c:	05d10d00 	ldrbeq	r0, [r1, #3328]	; 0xd00
    2850:	47010000 	strmi	r0, [r1, -r0]
    2854:	00000025 	andeq	r0, r0, r5, lsr #32
    2858:	00000ed1 	ldrdeq	r0, [r0], -r1
    285c:	0005a80e 	andeq	sl, r5, lr, lsl #16
    2860:	25470100 	strbcs	r0, [r7, #-256]	; 0x100
    2864:	02000000 	andeq	r0, r0, #0
    2868:	620f0491 	andvs	r0, pc, #-1862270976	; 0x91000000
    286c:	01006675 	tsteq	r0, r5, ror r6
    2870:	0002d34c 	andeq	sp, r2, ip, asr #6
    2874:	a8910300 	ldmge	r1, {r8, r9}
    2878:	0070107f 	rsbseq	r1, r0, pc, ror r0
    287c:	00744c01 	rsbseq	r4, r4, r1, lsl #24
    2880:	0efb0000 	cdpeq	0, 15, cr0, cr11, cr0, {0}
    2884:	75100000 	ldrvc	r0, [r0, #-0]
    2888:	2c4d0100 	stfcse	f0, [sp], {-0}
    288c:	c3000000 	movwgt	r0, #0
    2890:	1100000f 	tstne	r0, pc
    2894:	00000113 	andeq	r0, r0, r3, lsl r1
    2898:	000002f3 	strdeq	r0, [r0], -r3
    289c:	a5540305 	ldrbge	r0, [r4, #-773]	; 0x305
    28a0:	68120000 	ldmdavs	r2, {}	; <UNPREDICTABLE>
    28a4:	74000092 	strvc	r0, [r0], #-146	; 0x92
    28a8:	61000000 	mrsvs	r0, (UNDEF: 0)
    28ac:	13000002 	movwne	r0, #2
    28b0:	0000058a 	andeq	r0, r0, sl, lsl #11
    28b4:	002c5201 	eoreq	r5, ip, r1, lsl #4
    28b8:	10860000 	addne	r0, r6, r0
    28bc:	14000000 	strne	r0, [r0], #-0
    28c0:	00009354 	andeq	r9, r0, r4, asr r3
    28c4:	00000660 	andeq	r0, r0, r0, ror #12
    28c8:	00936815 	addseq	r6, r3, r5, lsl r8
    28cc:	00066700 	andeq	r6, r6, r0, lsl #14
    28d0:	00029900 	andeq	r9, r2, r0, lsl #18
    28d4:	53011600 	movwpl	r1, #5632	; 0x1600
    28d8:	16770802 	ldrbtne	r0, [r7], -r2, lsl #16
    28dc:	03055201 	movweq	r5, #20993	; 0x5201
    28e0:	0000a554 	andeq	sl, r0, r4, asr r5
    28e4:	05510116 	ldrbeq	r0, [r1, #-278]	; 0x116
    28e8:	00a58c03 	adceq	r8, r5, r3, lsl #24
    28ec:	50011600 	andpl	r1, r1, r0, lsl #12
    28f0:	a5780305 	ldrbge	r0, [r8, #-773]!	; 0x305
    28f4:	14000000 	strne	r0, [r0], #-0
    28f8:	0000936c 	andeq	r9, r0, ip, ror #6
    28fc:	0000067d 	andeq	r0, r0, sp, ror r6
    2900:	00937415 	addseq	r7, r3, r5, lsl r4
    2904:	0000e000 	andeq	lr, r0, r0
    2908:	0002b600 	andeq	fp, r2, r0, lsl #12
    290c:	51011600 	tstpl	r1, r0, lsl #12
    2910:	00007d02 	andeq	r7, r0, r2, lsl #26
    2914:	00938817 	addseq	r8, r3, r7, lsl r8
    2918:	00013000 	andeq	r3, r1, r0
    291c:	53011600 	movwpl	r1, #5632	; 0x1600
    2920:	16007d02 	strne	r7, [r0], -r2, lsl #26
    2924:	74025101 	strvc	r5, [r2], #-257	; 0x101
    2928:	50011600 	andpl	r1, r1, r0, lsl #12
    292c:	00007502 	andeq	r7, r0, r2, lsl #10
    2930:	007a1800 	rsbseq	r1, sl, r0, lsl #16
    2934:	02e30000 	rsceq	r0, r3, #0
    2938:	6b190000 	blvs	642940 <__bss_end__+0x637d88>
    293c:	3f000000 	svccc	0x00000000
    2940:	007a1800 	rsbseq	r1, sl, r0, lsl #16
    2944:	02f30000 	rscseq	r0, r3, #0
    2948:	6b190000 	blvs	642950 <__bss_end__+0x637d98>
    294c:	04000000 	streq	r0, [r0], #-0
    2950:	02e30600 	rsceq	r0, r3, #0, 12
    2954:	c21a0000 	andsgt	r0, sl, #0
    2958:	01000005 	tsteq	r0, r5
    295c:	0093ac1f 	addseq	sl, r3, pc, lsl ip
    2960:	00005400 	andeq	r5, r0, r0, lsl #8
    2964:	7c9c0100 	ldfvcs	f0, [ip], {0}
    2968:	0d000003 	stceq	0, cr0, [r0, #-12]
    296c:	000005d7 	ldrdeq	r0, [r0], -r7
    2970:	038b1f01 	orreq	r1, fp, #1, 30
    2974:	10b20000 	adcsne	r0, r2, r0
    2978:	a00d0000 	andge	r0, sp, r0
    297c:	01000005 	tsteq	r0, r5
    2980:	0003a01f 	andeq	sl, r3, pc, lsl r0
    2984:	0010de00 	andseq	sp, r0, r0, lsl #28
    2988:	01131100 	tsteq	r3, r0, lsl #2
    298c:	03b60000 			; <UNDEFINED> instruction: 0x03b60000
    2990:	03050000 	movweq	r0, #20480	; 0x5000
    2994:	0000a55c 	andeq	sl, r0, ip, asr r5
    2998:	0093bc14 	addseq	fp, r3, r4, lsl ip
    299c:	00066000 	andeq	r6, r6, r0
    29a0:	93d01500 	bicsls	r1, r0, #0, 10
    29a4:	06670000 	strbteq	r0, [r7], -r0
    29a8:	03720000 	cmneq	r2, #0
    29ac:	01160000 	tsteq	r6, r0
    29b0:	20080253 	andcs	r0, r8, r3, asr r2
    29b4:	05520116 	ldrbeq	r0, [r2, #-278]	; 0x116
    29b8:	00a55c03 	adceq	r5, r5, r3, lsl #24
    29bc:	51011600 	tstpl	r1, r0, lsl #12
    29c0:	a58c0305 	strge	r0, [ip, #773]	; 0x305
    29c4:	01160000 	tsteq	r6, r0
    29c8:	c4030550 	strgt	r0, [r3], #-1360	; 0x550
    29cc:	000000a5 	andeq	r0, r0, r5, lsr #1
    29d0:	0093d414 	addseq	sp, r3, r4, lsl r4
    29d4:	00067d00 	andeq	r7, r6, r0, lsl #26
    29d8:	251b0000 	ldrcs	r0, [fp, #-0]
    29dc:	8b000000 	blhi	29e4 <__code_start__-0x561c>
    29e0:	1c000003 	stcne	0, cr0, [r0], {3}
    29e4:	00000025 	andeq	r0, r0, r5, lsr #32
    29e8:	7c040500 	cfstr32vc	mvfx0, [r4], {-0}
    29ec:	1b000003 	blne	2a00 <__code_start__-0x5600>
    29f0:	00000025 	andeq	r0, r0, r5, lsr #32
    29f4:	000003a0 	andeq	r0, r0, r0, lsr #7
    29f8:	0000811c 	andeq	r8, r0, ip, lsl r1
    29fc:	04050000 	streq	r0, [r5], #-0
    2a00:	00000391 	muleq	r0, r1, r3
    2a04:	00007a18 	andeq	r7, r0, r8, lsl sl
    2a08:	0003b600 	andeq	fp, r3, r0, lsl #12
    2a0c:	006b1900 	rsbeq	r1, fp, r0, lsl #18
    2a10:	000e0000 	andeq	r0, lr, r0
    2a14:	0003a606 	andeq	sl, r3, r6, lsl #12
    2a18:	05141d00 	ldreq	r1, [r4, #-3328]	; 0xd00
    2a1c:	7f010000 	svcvc	0x00010000
    2a20:	00000025 	andeq	r0, r0, r5, lsr #32
    2a24:	00009400 	andeq	r9, r0, r0, lsl #8
    2a28:	00000288 	andeq	r0, r0, r8, lsl #5
    2a2c:	06259c01 	strteq	r9, [r5], -r1, lsl #24
    2a30:	620b0000 	andvs	r0, fp, #0
    2a34:	01006675 	tsteq	r0, r5, ror r6
    2a38:	0000747f 	andeq	r7, r0, pc, ror r4
    2a3c:	00110a00 	andseq	r0, r1, r0, lsl #20
    2a40:	006e0b00 	rsbeq	r0, lr, r0, lsl #22
    2a44:	00257f01 	eoreq	r7, r5, r1, lsl #30
    2a48:	11360000 	teqne	r6, r0
    2a4c:	660b0000 	strvs	r0, [fp], -r0
    2a50:	0100746d 	tsteq	r0, sp, ror #8
    2a54:	0000817f 	andeq	r8, r0, pc, ror r1
    2a58:	00116400 	andseq	r6, r1, r0, lsl #8
    2a5c:	07cf0d00 	strbeq	r0, [pc, r0, lsl #26]
    2a60:	7f010000 	svcvc	0x00010000
    2a64:	000000ae 	andeq	r0, r0, lr, lsr #1
    2a68:	00001198 	muleq	r0, r8, r1
    2a6c:	01007010 	tsteq	r0, r0, lsl r0
    2a70:	00007480 	andeq	r7, r0, r0, lsl #9
    2a74:	0011ab00 	andseq	sl, r1, r0, lsl #22
    2a78:	00651000 	rsbeq	r1, r5, r0
    2a7c:	00748001 	rsbseq	r8, r4, r1
    2a80:	12290000 	eorne	r0, r9, #0
    2a84:	13110000 	tstne	r1, #0
    2a88:	35000001 	strcc	r0, [r0, #-1]
    2a8c:	05000006 	streq	r0, [r0, #-6]
    2a90:	00a56c03 	adceq	r6, r5, r3, lsl #24
    2a94:	00481e00 	subeq	r1, r8, r0, lsl #28
    2a98:	73100000 	tstvc	r0, #0
    2a9c:	748d0100 	strvc	r0, [sp], #256	; 0x100
    2aa0:	50000000 	andpl	r0, r0, r0
    2aa4:	0f000012 	svceq	0x00000012
    2aa8:	006d756e 	rsbeq	r7, sp, lr, ror #10
    2aac:	063a8d01 	ldrteq	r8, [sl], -r1, lsl #26
    2ab0:	91030000 	mrsls	r0, (UNDEF: 3)
    2ab4:	d1137ed8 			; <UNDEFINED> instruction: 0xd1137ed8
    2ab8:	01000005 	tsteq	r0, r5
    2abc:	00002c8e 	andeq	r2, r0, lr, lsl #25
    2ac0:	0012a500 	andseq	sl, r2, r0, lsl #10
    2ac4:	94841500 	strls	r1, [r4], #1280	; 0x500
    2ac8:	00b90000 	adcseq	r0, r9, r0
    2acc:	047b0000 	ldrbteq	r0, [fp], #-0
    2ad0:	01160000 	tsteq	r6, r0
    2ad4:	00750250 	rsbseq	r0, r5, r0, asr r2
    2ad8:	94981400 	ldrls	r1, [r8], #1024	; 0x400
    2adc:	06600000 	strbteq	r0, [r0], -r0
    2ae0:	ac150000 	ldcge	0, cr0, [r5], {-0}
    2ae4:	67000094 			; <UNDEFINED> instruction: 0x67000094
    2ae8:	b3000006 	movwlt	r0, #6
    2aec:	16000004 	strne	r0, [r0], -r4
    2af0:	08025301 	stmdaeq	r2, {r0, r8, r9, ip, lr}
    2af4:	52011694 	andpl	r1, r1, #148, 12	; 0x9400000
    2af8:	a56c0305 	strbge	r0, [ip, #-773]!	; 0x305
    2afc:	01160000 	tsteq	r6, r0
    2b00:	8c030551 	cfstr32hi	mvfx0, [r3], {81}	; 0x51
    2b04:	160000a5 	strne	r0, [r0], -r5, lsr #1
    2b08:	03055001 	movweq	r5, #20481	; 0x5001
    2b0c:	0000a5dc 	ldrdeq	sl, [r0], -ip
    2b10:	94b01400 	ldrtls	r1, [r0], #1024	; 0x400
    2b14:	067d0000 	ldrbteq	r0, [sp], -r0
    2b18:	20140000 	andscs	r0, r4, r0
    2b1c:	60000095 	mulvs	r0, r5, r0
    2b20:	15000006 	strne	r0, [r0, #-6]
    2b24:	00009534 	andeq	r9, r0, r4, lsr r5
    2b28:	00000667 	andeq	r0, r0, r7, ror #12
    2b2c:	000004f4 	strdeq	r0, [r0], -r4
    2b30:	02530116 	subseq	r0, r3, #-2147483643	; 0x80000005
    2b34:	01169a08 	tsteq	r6, r8, lsl #20
    2b38:	6c030552 	cfstr32vs	mvfx0, [r3], {82}	; 0x52
    2b3c:	160000a5 	strne	r0, [r0], -r5, lsr #1
    2b40:	03055101 	movweq	r5, #20737	; 0x5101
    2b44:	0000a58c 	andeq	sl, r0, ip, lsl #11
    2b48:	05500116 	ldrbeq	r0, [r0, #-278]	; 0x116
    2b4c:	00a5f803 	adceq	pc, r5, r3, lsl #16
    2b50:	38140000 	ldmdacc	r4, {}	; <UNPREDICTABLE>
    2b54:	7d000095 	stcvc	0, cr0, [r0, #-596]	; 0xfffffdac
    2b58:	15000006 	strne	r0, [r0, #-6]
    2b5c:	0000955c 	andeq	r9, r0, ip, asr r5
    2b60:	0000019c 	muleq	r0, ip, r1
    2b64:	0000052a 	andeq	r0, r0, sl, lsr #10
    2b68:	02520116 	subseq	r0, r2, #-2147483643	; 0x80000005
    2b6c:	01168008 	tsteq	r6, r8
    2b70:	d0910351 	addsle	r0, r1, r1, asr r3
    2b74:	5001167e 	andpl	r1, r1, lr, ror r6
    2b78:	02163a01 	andseq	r3, r6, #4096	; 0x1000
    2b7c:	3101047d 	tstcc	r1, sp, ror r4
    2b80:	007d0216 	rsbseq	r0, sp, r6, lsl r2
    2b84:	00007702 	andeq	r7, r0, r2, lsl #14
    2b88:	00958015 	addseq	r8, r5, r5, lsl r0
    2b8c:	00019c00 	andeq	r9, r1, r0, lsl #24
    2b90:	00055800 	andeq	r5, r5, r0, lsl #16
    2b94:	52011600 	andpl	r1, r1, #0, 12
    2b98:	16800802 	strne	r0, [r0], r2, lsl #16
    2b9c:	91035101 	tstls	r3, r1, lsl #2
    2ba0:	01167ed0 			; <UNDEFINED> instruction: 0x01167ed0
    2ba4:	163a0150 			; <UNDEFINED> instruction: 0x163a0150
    2ba8:	02047d02 	andeq	r7, r4, #2, 26	; 0x80
    2bac:	0216007b 	andseq	r0, r6, #123	; 0x7b
    2bb0:	7702007d 	smlsdxvc	r2, sp, r0, r0
    2bb4:	a4150000 	ldrge	r0, [r5], #-0
    2bb8:	9c000095 	stcls	0, cr0, [r0], {149}	; 0x95
    2bbc:	86000001 	strhi	r0, [r0], -r1
    2bc0:	16000005 	strne	r0, [r0], -r5
    2bc4:	08025201 	stmdaeq	r2, {r0, r9, ip, lr}
    2bc8:	51011680 	smlabbpl	r1, r0, r6, r1
    2bcc:	7ed09103 	atnvcs	f1, f3
    2bd0:	01500116 	cmpeq	r0, r6, lsl r1
    2bd4:	7d021640 	stcvc	6, cr1, [r2, #-256]	; 0xffffff00
    2bd8:	007b0204 	rsbseq	r0, fp, r4, lsl #4
    2bdc:	007d0216 	rsbseq	r0, sp, r6, lsl r2
    2be0:	00007702 	andeq	r7, r0, r2, lsl #14
    2be4:	0095c815 	addseq	ip, r5, r5, lsl r8
    2be8:	00019c00 	andeq	r9, r1, r0, lsl #24
    2bec:	0005b400 	andeq	fp, r5, r0, lsl #8
    2bf0:	52011600 	andpl	r1, r1, #0, 12
    2bf4:	16800802 	strne	r0, [r0], r2, lsl #16
    2bf8:	91035101 	tstls	r3, r1, lsl #2
    2bfc:	01167ed0 			; <UNDEFINED> instruction: 0x01167ed0
    2c00:	16320150 			; <UNDEFINED> instruction: 0x16320150
    2c04:	02047d02 	andeq	r7, r4, #2, 26	; 0x80
    2c08:	0216007b 	andseq	r0, r6, #123	; 0x7b
    2c0c:	7702007d 	smlsdxvc	r2, sp, r0, r0
    2c10:	f8150000 			; <UNDEFINED> instruction: 0xf8150000
    2c14:	9c000095 	stcls	0, cr0, [r0], {149}	; 0x95
    2c18:	e2000001 	and	r0, r0, #1
    2c1c:	16000005 	strne	r0, [r0], -r5
    2c20:	08025201 	stmdaeq	r2, {r0, r9, ip, lr}
    2c24:	51011680 	smlabbpl	r1, r0, r6, r1
    2c28:	7ed09103 	atnvcs	f1, f3
    2c2c:	01500116 	cmpeq	r0, r6, lsl r1
    2c30:	7d021638 	stcvc	6, cr1, [r2, #-224]	; 0xffffff20
    2c34:	007b0204 	rsbseq	r0, fp, r4, lsl #4
    2c38:	007d0216 	rsbseq	r0, sp, r6, lsl r2
    2c3c:	00007702 	andeq	r7, r0, r2, lsl #14
    2c40:	00960014 	addseq	r0, r6, r4, lsl r0
    2c44:	00066000 	andeq	r6, r6, r0
    2c48:	961c1500 	ldrls	r1, [ip], -r0, lsl #10
    2c4c:	06670000 	strbteq	r0, [r7], -r0
    2c50:	061a0000 	ldreq	r0, [sl], -r0
    2c54:	01160000 	tsteq	r6, r0
    2c58:	bb080253 	bllt	2035ac <__bss_end__+0x1f89f4>
    2c5c:	05520116 	ldrbeq	r0, [r2, #-278]	; 0x116
    2c60:	00a56c03 	adceq	r6, r5, r3, lsl #24
    2c64:	51011600 	tstpl	r1, r0, lsl #12
    2c68:	a58c0305 	strge	r0, [ip, #773]	; 0x305
    2c6c:	01160000 	tsteq	r6, r0
    2c70:	20030550 	andcs	r0, r3, r0, asr r5
    2c74:	000000a6 	andeq	r0, r0, r6, lsr #1
    2c78:	00962014 	addseq	r2, r6, r4, lsl r0
    2c7c:	00067d00 	andeq	r7, r6, r0, lsl #26
    2c80:	18000000 	stmdane	r0, {}	; <UNPREDICTABLE>
    2c84:	0000007a 	andeq	r0, r0, sl, ror r0
    2c88:	00000635 	andeq	r0, r0, r5, lsr r6
    2c8c:	00006b19 	andeq	r6, r0, r9, lsl fp
    2c90:	06000900 	streq	r0, [r0], -r0, lsl #18
    2c94:	00000625 	andeq	r0, r0, r5, lsr #12
    2c98:	00007a18 	andeq	r7, r0, r8, lsl sl
    2c9c:	00064a00 	andeq	r4, r6, r0, lsl #20
    2ca0:	006b1900 	rsbeq	r1, fp, r0, lsl #18
    2ca4:	007f0000 	rsbseq	r0, pc, r0
    2ca8:	0005481f 	andeq	r4, r5, pc, lsl r8
    2cac:	8b1d0300 	blhi	7438b4 <__bss_end__+0x738cfc>
    2cb0:	1f000003 	svcne	0x00000003
    2cb4:	00000585 	andeq	r0, r0, r5, lsl #11
    2cb8:	03a02203 	moveq	r2, #805306368	; 0x30000000
    2cbc:	43200000 	teqmi	r0, #0
    2cc0:	03000002 	movweq	r0, #2
    2cc4:	0517211e 	ldreq	r2, [r7, #-286]	; 0x11e
    2cc8:	29030000 	stmdbcs	r3, {}	; <UNPREDICTABLE>
    2ccc:	00000025 	andeq	r0, r0, r5, lsr #32
    2cd0:	0000067d 	andeq	r0, r0, sp, ror r6
    2cd4:	0000811c 	andeq	r8, r0, ip, lsl r1
    2cd8:	20002200 	andcs	r2, r0, r0, lsl #4
    2cdc:	00000290 	muleq	r0, r0, r2
    2ce0:	ff006503 			; <UNDEFINED> instruction: 0xff006503
    2ce4:	04000000 	streq	r0, [r0], #-0
    2ce8:	000c5300 	andeq	r5, ip, r0, lsl #6
    2cec:	76010400 	strvc	r0, [r1], -r0, lsl #8
    2cf0:	01000000 	mrseq	r0, (UNDEF: 0)
    2cf4:	000005e4 	andeq	r0, r0, r4, ror #11
    2cf8:	000004a3 	andeq	r0, r0, r3, lsr #9
    2cfc:	00009688 	andeq	r9, r0, r8, lsl #13
    2d00:	00000028 	andeq	r0, r0, r8, lsr #32
    2d04:	00000c84 	andeq	r0, r0, r4, lsl #25
    2d08:	69050402 	stmdbvs	r5, {r1, sl}
    2d0c:	0300746e 	movweq	r7, #1134	; 0x46e
    2d10:	01370704 	teqeq	r7, r4, lsl #14
    2d14:	01030000 	mrseq	r0, (UNDEF: 3)
    2d18:	0000e506 	andeq	lr, r0, r6, lsl #10
    2d1c:	05020300 	streq	r0, [r2, #-768]	; 0x300
    2d20:	00000164 	andeq	r0, r0, r4, ror #2
    2d24:	5b050403 	blpl	143d38 <__bss_end__+0x139180>
    2d28:	03000001 	movweq	r0, #1
    2d2c:	01560508 	cmpeq	r6, r8, lsl #10
    2d30:	01030000 	mrseq	r0, (UNDEF: 3)
    2d34:	0000e308 	andeq	lr, r0, r8, lsl #6
    2d38:	07020300 	streq	r0, [r2, -r0, lsl #6]
    2d3c:	000000f1 	strdeq	r0, [r0], -r1
    2d40:	32070403 	andcc	r0, r7, #50331648	; 0x3000000
    2d44:	03000001 	movweq	r0, #1
    2d48:	012d0708 	teqeq	sp, r8, lsl #14
    2d4c:	04030000 	streq	r0, [r3], #-0
    2d50:	00014d07 	andeq	r4, r1, r7, lsl #26
    2d54:	08010300 	stmdaeq	r1, {r8, r9}
    2d58:	000000ec 	andeq	r0, r0, ip, ror #1
    2d5c:	007f0404 	rsbseq	r0, pc, r4, lsl #8
    2d60:	72050000 	andvc	r0, r5, #0
    2d64:	06000000 	streq	r0, [r0], -r0
    2d68:	00000290 	muleq	r0, r0, r2
    2d6c:	96880401 	strls	r0, [r8], r1, lsl #8
    2d70:	00280000 	eoreq	r0, r8, r0
    2d74:	9c010000 	stcls	0, cr0, [r1], {-0}
    2d78:	000000ca 	andeq	r0, r0, sl, asr #1
    2d7c:	00969c07 	addseq	r9, r6, r7, lsl #24
    2d80:	0000ac00 	andeq	sl, r0, r0, lsl #24
    2d84:	50010800 	andpl	r0, r1, r0, lsl #16
    2d88:	a6580305 	ldrbge	r0, [r8], -r5, lsl #6
    2d8c:	09000000 	stmdbeq	r0, {}	; <UNPREDICTABLE>
    2d90:	000096a4 	andeq	r9, r0, r4, lsr #13
    2d94:	000000ea 	andeq	r0, r0, sl, ror #1
    2d98:	000000c0 	andeq	r0, r0, r0, asr #1
    2d9c:	02500108 	subseq	r0, r0, #8, 2
    2da0:	0a006408 	beq	1bdc8 <__bss_end__+0x11210>
    2da4:	000096a8 	andeq	r9, r0, r8, lsr #13
    2da8:	000000fb 	strdeq	r0, [r0], -fp
    2dac:	00250b00 	eoreq	r0, r5, r0, lsl #22
    2db0:	00d90000 	sbcseq	r0, r9, r0
    2db4:	790c0000 	stmdbvc	ip, {}	; <UNPREDICTABLE>
    2db8:	00000000 	andeq	r0, r0, r0
    2dbc:	0005850d 	andeq	r8, r5, sp, lsl #10
    2dc0:	e4220200 	strt	r0, [r2], #-512	; 0x200
    2dc4:	04000000 	streq	r0, [r0], #-0
    2dc8:	0000ca04 	andeq	ip, r0, r4, lsl #20
    2dcc:	06080e00 	streq	r0, [r8], -r0, lsl #28
    2dd0:	4f020000 	svcmi	0x00020000
    2dd4:	000000fb 	strdeq	r0, [r0], -fp
    2dd8:	00002c0c 	andeq	r2, r0, ip, lsl #24
    2ddc:	fd0f0000 	stc2	0, cr0, [pc, #-0]	; 2de4 <__code_start__-0x521c>
    2de0:	02000005 	andeq	r0, r0, #5
    2de4:	00ff0062 	rscseq	r0, pc, r2, rrx
    2de8:	00040000 	andeq	r0, r4, r0
    2dec:	00000d1d 	andeq	r0, r0, sp, lsl sp
    2df0:	00760104 	rsbseq	r0, r6, r4, lsl #2
    2df4:	21010000 	mrscs	r0, (UNDEF: 1)
    2df8:	a3000006 	movwge	r0, #6
    2dfc:	b0000004 	andlt	r0, r0, r4
    2e00:	34000096 	strcc	r0, [r0], #-150	; 0x96
    2e04:	24000000 	strcs	r0, [r0], #-0
    2e08:	0200000d 	andeq	r0, r0, #13
    2e0c:	6e690504 	cdpvs	5, 6, cr0, cr9, cr4, {0}
    2e10:	04030074 	streq	r0, [r3], #-116	; 0x74
    2e14:	00013707 	andeq	r3, r1, r7, lsl #14
    2e18:	06010300 	streq	r0, [r1], -r0, lsl #6
    2e1c:	000000e5 	andeq	r0, r0, r5, ror #1
    2e20:	64050203 	strvs	r0, [r5], #-515	; 0x203
    2e24:	03000001 	movweq	r0, #1
    2e28:	015b0504 	cmpeq	fp, r4, lsl #10
    2e2c:	08030000 	stmdaeq	r3, {}	; <UNPREDICTABLE>
    2e30:	00015605 	andeq	r5, r1, r5, lsl #12
    2e34:	08010300 	stmdaeq	r1, {r8, r9}
    2e38:	000000e3 	andeq	r0, r0, r3, ror #1
    2e3c:	f1070203 			; <UNDEFINED> instruction: 0xf1070203
    2e40:	03000000 	movweq	r0, #0
    2e44:	01320704 	teqeq	r2, r4, lsl #14
    2e48:	08030000 	stmdaeq	r3, {}	; <UNPREDICTABLE>
    2e4c:	00012d07 	andeq	r2, r1, r7, lsl #26
    2e50:	07040300 	streq	r0, [r4, -r0, lsl #6]
    2e54:	0000014d 	andeq	r0, r0, sp, asr #2
    2e58:	ec080103 	stfs	f0, [r8], {3}
    2e5c:	04000000 	streq	r0, [r0], #-0
    2e60:	00000619 	andeq	r0, r0, r9, lsl r6
    2e64:	96b00d01 	ldrtls	r0, [r0], r1, lsl #26
    2e68:	00340000 	eorseq	r0, r4, r0
    2e6c:	9c010000 	stcls	0, cr0, [r1], {-0}
    2e70:	000000d8 	ldrdeq	r0, [r0], -r8
    2e74:	00042205 	andeq	r2, r4, r5, lsl #4
    2e78:	250e0100 	strcs	r0, [lr, #-256]	; 0x100
    2e7c:	05000000 	streq	r0, [r0, #-0]
    2e80:	00000430 	andeq	r0, r0, r0, lsr r4
    2e84:	00250e01 	eoreq	r0, r5, r1, lsl #28
    2e88:	cd060000 	stcgt	0, cr0, [r6, #-0]
    2e8c:	01000000 	mrseq	r0, (UNDEF: 0)
    2e90:	7362070f 	cmnvc	r2, #3932160	; 0x3c0000
    2e94:	11010073 	tstne	r1, r3, ror r0
    2e98:	000000d8 	ldrdeq	r0, [r0], -r8
    2e9c:	000012cf 	andeq	r1, r0, pc, asr #5
    2ea0:	00061108 	andeq	r1, r6, r8, lsl #2
    2ea4:	d8120100 	ldmdale	r2, {r8}
    2ea8:	09000000 	stmdbeq	r0, {}	; <UNPREDICTABLE>
    2eac:	000096d8 	ldrdeq	r9, [r0], -r8
    2eb0:	000000f4 	strdeq	r0, [r0], -r4
    2eb4:	0096dc09 	addseq	sp, r6, r9, lsl #24
    2eb8:	0000fb00 	andeq	pc, r0, r0, lsl #22
    2ebc:	040a0000 	streq	r0, [sl], #-0
    2ec0:	00000025 	andeq	r0, r0, r5, lsr #32
    2ec4:	00042205 	andeq	r2, r4, r5, lsl #4
    2ec8:	250e0100 	strcs	r0, [lr, #-256]	; 0x100
    2ecc:	05000000 	streq	r0, [r0, #-0]
    2ed0:	00000430 	andeq	r0, r0, r0, lsr r4
    2ed4:	00250e01 	eoreq	r0, r5, r1, lsl #28
    2ed8:	cd060000 	stcgt	0, cr0, [r6, #-0]
    2edc:	02000000 	andeq	r0, r0, #0
    2ee0:	029006d7 	addseq	r0, r0, #225443840	; 0xd700000
    2ee4:	65020000 	strvs	r0, [r2, #-0]
    2ee8:	0001ad00 	andeq	sl, r1, r0, lsl #26
    2eec:	b1000400 	tstlt	r0, r0, lsl #8
    2ef0:	0400000d 	streq	r0, [r0], #-13
    2ef4:	00007601 	andeq	r7, r0, r1, lsl #12
    2ef8:	06420100 	strbeq	r0, [r2], -r0, lsl #2
    2efc:	04a30000 	strteq	r0, [r3], #0
    2f00:	00600000 	rsbeq	r0, r0, r0
    2f04:	00000000 	andeq	r0, r0, r0
    2f08:	0dcb0000 	stcleq	0, cr0, [fp]
    2f0c:	04020000 	streq	r0, [r2], #-0
    2f10:	746e6905 	strbtvc	r6, [lr], #-2309	; 0x905
    2f14:	07040300 	streq	r0, [r4, -r0, lsl #6]
    2f18:	00000137 	andeq	r0, r0, r7, lsr r1
    2f1c:	e5060103 	str	r0, [r6, #-259]	; 0x103
    2f20:	03000000 	movweq	r0, #0
    2f24:	01640502 	cmneq	r4, r2, lsl #10
    2f28:	04030000 	streq	r0, [r3], #-0
    2f2c:	00015b05 	andeq	r5, r1, r5, lsl #22
    2f30:	05080300 	streq	r0, [r8, #-768]	; 0x300
    2f34:	00000156 	andeq	r0, r0, r6, asr r1
    2f38:	e3080103 	movw	r0, #33027	; 0x8103
    2f3c:	03000000 	movweq	r0, #0
    2f40:	00f10702 	rscseq	r0, r1, r2, lsl #14
    2f44:	04030000 	streq	r0, [r3], #-0
    2f48:	00013207 	andeq	r3, r1, r7, lsl #4
    2f4c:	07080300 	streq	r0, [r8, -r0, lsl #6]
    2f50:	0000012d 	andeq	r0, r0, sp, lsr #2
    2f54:	4d070403 	cfstrsmi	mvf0, [r7, #-12]
    2f58:	03000001 	movweq	r0, #1
    2f5c:	00ec0801 	rsceq	r0, ip, r1, lsl #16
    2f60:	34040000 	strcc	r0, [r4], #-0
    2f64:	01000006 	tsteq	r0, r6
    2f68:	0000250e 	andeq	r2, r0, lr, lsl #10
    2f6c:	0096e400 	addseq	lr, r6, r0, lsl #8
    2f70:	00001800 	andeq	r1, r0, r0, lsl #16
    2f74:	a29c0100 	addsge	r0, ip, #0, 2
    2f78:	05000000 	streq	r0, [r0, #-0]
    2f7c:	0000069f 	muleq	r0, pc, r6	; <UNPREDICTABLE>
    2f80:	002c0f01 	eoreq	r0, ip, r1, lsl #30
    2f84:	12ef0000 	rscne	r0, pc, #0
    2f88:	06000000 	streq	r0, [r0], -r0
    2f8c:	00000676 	andeq	r0, r0, r6, ror r6
    2f90:	96fc1701 	ldrbtls	r1, [ip], r1, lsl #14
    2f94:	00140000 	andseq	r0, r4, r0
    2f98:	9c010000 	stcls	0, cr0, [r1], {-0}
    2f9c:	000000c7 	andeq	r0, r0, r7, asr #1
    2fa0:	00069f05 	andeq	r9, r6, r5, lsl #30
    2fa4:	2c180100 	ldfcss	f0, [r8], {-0}
    2fa8:	0e000000 	cdpeq	0, 0, cr0, cr0, cr0, {0}
    2fac:	00000013 	andeq	r0, r0, r3, lsl r0
    2fb0:	0005fd06 	andeq	pc, r5, r6, lsl #26
    2fb4:	101f0100 	andsne	r0, pc, r0, lsl #2
    2fb8:	48000097 	stmdami	r0, {r0, r1, r2, r4, r7}
    2fbc:	01000000 	mrseq	r0, (UNDEF: 0)
    2fc0:	0001779c 	muleq	r1, ip, r7
    2fc4:	06970700 	ldreq	r0, [r7], r0, lsl #14
    2fc8:	2a010000 	bcs	42fd0 <__bss_end__+0x38418>
    2fcc:	00000177 	andeq	r0, r0, r7, ror r1
    2fd0:	2010001c 	andscs	r0, r0, ip, lsl r0
    2fd4:	00066e07 	andeq	r6, r6, r7, lsl #28
    2fd8:	772b0100 	strvc	r0, [fp, -r0, lsl #2]!
    2fdc:	24000001 	strcs	r0, [r0], #-1
    2fe0:	07201000 	streq	r1, [r0, -r0]!
    2fe4:	0000068b 	andeq	r0, r0, fp, lsl #13
    2fe8:	01772c01 	cmneq	r7, r1, lsl #24
    2fec:	00000000 	andeq	r0, r0, r0
    2ff0:	55085a00 	strpl	r5, [r8, #-2560]	; 0xa00
    2ff4:	01000006 	tsteq	r0, r6
    2ff8:	0001772d 	andeq	r7, r1, sp, lsr #14
    2ffc:	18092000 	stmdane	r9, {sp}
    3000:	79000097 	stmdbvc	r0, {r0, r1, r2, r4, r7}
    3004:	09000000 	stmdbeq	r0, {}	; <UNPREDICTABLE>
    3008:	00009724 	andeq	r9, r0, r4, lsr #14
    300c:	000000a2 	andeq	r0, r0, r2, lsr #1
    3010:	00972c0a 	addseq	r2, r7, sl, lsl #24
    3014:	00018d00 	andeq	r8, r1, r0, lsl #26
    3018:	00013a00 	andeq	r3, r1, r0, lsl #20
    301c:	50010b00 	andpl	r0, r1, r0, lsl #22
    3020:	0a004e01 	beq	1682c <__bss_end__+0xbc74>
    3024:	00009738 	andeq	r9, r0, r8, lsr r7
    3028:	0000019e 	muleq	r0, lr, r1
    302c:	0000015a 	andeq	r0, r0, sl, asr r1
    3030:	0551010b 	ldrbeq	r0, [r1, #-267]	; 0x10b
    3034:	0000010c 	andeq	r0, r0, ip, lsl #2
    3038:	50010b5a 	andpl	r0, r1, sl, asr fp
    303c:	00240c05 	eoreq	r0, r4, r5, lsl #24
    3040:	0c002010 	stceq	0, cr2, [r0], {16}
    3044:	00009744 	andeq	r9, r0, r4, asr #14
    3048:	0000019e 	muleq	r0, lr, r1
    304c:	0551010b 	ldrbeq	r0, [r1, #-267]	; 0x10b
    3050:	0000200c 	andeq	r2, r0, ip
    3054:	50010b5a 	andpl	r0, r1, sl, asr fp
    3058:	001c0c05 	andseq	r0, ip, r5, lsl #24
    305c:	00002010 	andeq	r2, r0, r0, lsl r0
    3060:	0000250d 	andeq	r2, r0, sp, lsl #10
    3064:	06370800 	ldrteq	r0, [r7], -r0, lsl #16
    3068:	0d010000 	stceq	0, cr0, [r1, #-0]
    306c:	00000188 	andeq	r0, r0, r8, lsl #3
    3070:	002c0d10 	eoreq	r0, ip, r0, lsl sp
    3074:	080e0000 	stmdaeq	lr, {}	; <UNPREDICTABLE>
    3078:	02000006 	andeq	r0, r0, #6
    307c:	00019e4f 	andeq	r9, r1, pc, asr #28
    3080:	002c0f00 	eoreq	r0, ip, r0, lsl #30
    3084:	10000000 	andne	r0, r0, r0
    3088:	00000685 	andeq	r0, r0, r5, lsl #13
    308c:	2c0f9b02 	stccs	11, cr9, [pc], {2}
    3090:	0f000000 	svceq	0x00000000
    3094:	0000002c 	andeq	r0, r0, ip, lsr #32
    3098:	01d80000 	bicseq	r0, r8, r0
    309c:	00040000 	andeq	r0, r4, r0
    30a0:	00000e9f 	muleq	r0, pc, lr	; <UNPREDICTABLE>
    30a4:	00760104 	rsbseq	r0, r6, r4, lsl #2
    30a8:	c1010000 	mrsgt	r0, (UNDEF: 1)
    30ac:	a3000006 	movwge	r0, #6
    30b0:	58000004 	stmdapl	r0, {r2}
    30b4:	88000097 	stmdahi	r0, {r0, r1, r2, r4, r7}
    30b8:	71000000 	mrsvc	r0, (UNDEF: 0)
    30bc:	0200000e 	andeq	r0, r0, #14
    30c0:	6e690504 	cdpvs	5, 6, cr0, cr9, cr4, {0}
    30c4:	04030074 	streq	r0, [r3], #-116	; 0x74
    30c8:	00013707 	andeq	r3, r1, r7, lsl #14
    30cc:	06010300 	streq	r0, [r1], -r0, lsl #6
    30d0:	000000e5 	andeq	r0, r0, r5, ror #1
    30d4:	64050203 	strvs	r0, [r5], #-515	; 0x203
    30d8:	03000001 	movweq	r0, #1
    30dc:	015b0504 	cmpeq	fp, r4, lsl #10
    30e0:	08030000 	stmdaeq	r3, {}	; <UNPREDICTABLE>
    30e4:	00015605 	andeq	r5, r1, r5, lsl #12
    30e8:	08010300 	stmdaeq	r1, {r8, r9}
    30ec:	000000e3 	andeq	r0, r0, r3, ror #1
    30f0:	f1070203 			; <UNDEFINED> instruction: 0xf1070203
    30f4:	03000000 	movweq	r0, #0
    30f8:	01320704 	teqeq	r2, r4, lsl #14
    30fc:	08030000 	stmdaeq	r3, {}	; <UNPREDICTABLE>
    3100:	00012d07 	andeq	r2, r1, r7, lsl #26
    3104:	07040300 	streq	r0, [r4, -r0, lsl #6]
    3108:	0000014d 	andeq	r0, r0, sp, asr #2
    310c:	ec080103 	stfs	f0, [r8], {3}
    3110:	04000000 	streq	r0, [r0], #-0
    3114:	000006df 	ldrdeq	r0, [r0], -pc	; <UNPREDICTABLE>
    3118:	97580501 	ldrbls	r0, [r8, -r1, lsl #10]
    311c:	001c0000 	andseq	r0, ip, r0
    3120:	9c010000 	stcls	0, cr0, [r1], {-0}
    3124:	0000009e 	muleq	r0, lr, r0
    3128:	0006d905 	andeq	sp, r6, r5, lsl #18
    312c:	2c050100 	stfcss	f0, [r5], {-0}
    3130:	38000000 	stmdacc	r0, {}	; <UNPREDICTABLE>
    3134:	00000013 	andeq	r0, r0, r3, lsl r0
    3138:	0006a406 	andeq	sl, r6, r6, lsl #8
    313c:	2c110100 	ldfcss	f0, [r1], {-0}
    3140:	74000000 	strvc	r0, [r0], #-0
    3144:	14000097 	strne	r0, [r0], #-151	; 0x97
    3148:	01000000 	mrseq	r0, (UNDEF: 0)
    314c:	0000cb9c 	muleq	r0, ip, fp
    3150:	97800700 	strls	r0, [r0, r0, lsl #14]
    3154:	01ca0000 	biceq	r0, sl, r0
    3158:	01080000 	mrseq	r0, (UNDEF: 8)
    315c:	040c0550 	streq	r0, [ip], #-1360	; 0x550
    3160:	00200030 	eoreq	r0, r0, r0, lsr r0
    3164:	06f50600 	ldrbteq	r0, [r5], r0, lsl #12
    3168:	16010000 	strne	r0, [r1], -r0
    316c:	0000002c 	andeq	r0, r0, ip, lsr #32
    3170:	00009788 	andeq	r9, r0, r8, lsl #15
    3174:	0000000c 	andeq	r0, r0, ip
    3178:	00f99c01 	rscseq	r9, r9, r1, lsl #24
    317c:	75090000 	strvc	r0, [r9, #-0]
    3180:	2c1a0100 	ldfcss	f0, [sl], {-0}
    3184:	01000000 	mrseq	r0, (UNDEF: 0)
    3188:	97900a50 			; <UNDEFINED> instruction: 0x97900a50
    318c:	009e0000 	addseq	r0, lr, r0
    3190:	04000000 	streq	r0, [r0], #-0
    3194:	000006ec 	andeq	r0, r0, ip, ror #13
    3198:	97941f01 	ldrls	r1, [r4, r1, lsl #30]
    319c:	00240000 	eoreq	r0, r4, r0
    31a0:	9c010000 	stcls	0, cr0, [r1], {-0}
    31a4:	00000157 	andeq	r0, r0, r7, asr r1
    31a8:	0073750b 	rsbseq	r7, r3, fp, lsl #10
    31ac:	002c1f01 	eoreq	r1, ip, r1, lsl #30
    31b0:	136c0000 	cmnne	ip, #0
    31b4:	72090000 	andvc	r0, r9, #0
    31b8:	20010062 	andcs	r0, r1, r2, rrx
    31bc:	0000002c 	andeq	r0, r0, ip, lsr #32
    31c0:	a40c5401 	strge	r5, [ip], #-1025	; 0x401
    31c4:	10000097 	mulne	r0, r7, r0
    31c8:	4d000000 	stcmi	0, cr0, [r0, #-0]
    31cc:	0d000001 	stceq	0, cr0, [r0, #-4]
    31d0:	01006172 	tsteq	r0, r2, ror r1
    31d4:	00002c22 	andeq	r2, r0, r2, lsr #24
    31d8:	00138a00 	andseq	r8, r3, r0, lsl #20
    31dc:	97a80a00 	strls	r0, [r8, r0, lsl #20]!
    31e0:	00cb0000 	sbceq	r0, fp, r0
    31e4:	0a000000 	beq	31ec <__code_start__-0x4e14>
    31e8:	000097a0 	andeq	r9, r0, r0, lsr #15
    31ec:	000000cb 	andeq	r0, r0, fp, asr #1
    31f0:	06080400 	streq	r0, [r8], -r0, lsl #8
    31f4:	28010000 	stmdacs	r1, {}	; <UNPREDICTABLE>
    31f8:	000097b8 			; <UNDEFINED> instruction: 0x000097b8
    31fc:	00000014 	andeq	r0, r0, r4, lsl r0
    3200:	01909c01 	orrseq	r9, r0, r1, lsl #24
    3204:	6d0b0000 	stcvs	0, cr0, [fp, #-0]
    3208:	28010073 	stmdacs	r1, {r0, r1, r4, r5, r6}
    320c:	0000002c 	andeq	r0, r0, ip, lsr #32
    3210:	0000139d 	muleq	r0, sp, r3
    3214:	0097c807 	addseq	ip, r7, r7, lsl #16
    3218:	0000f900 	andeq	pc, r0, r0, lsl #18
    321c:	50010800 	andpl	r0, r1, r0, lsl #16
    3220:	5001f307 	andpl	pc, r1, r7, lsl #6
    3224:	1e03e80a 	cdpne	8, 0, cr14, cr3, cr10, {0}
    3228:	b7040000 	strlt	r0, [r4, -r0]
    322c:	01000006 	tsteq	r0, r6
    3230:	0097cc2b 	addseq	ip, r7, fp, lsr #24
    3234:	00001400 	andeq	r1, r0, r0, lsl #8
    3238:	ca9c0100 	bgt	fe703640 <__bss_end__+0xfe6f8a88>
    323c:	0b000001 	bleq	3248 <__code_start__-0x4db8>
    3240:	00636573 	rsbeq	r6, r3, r3, ror r5
    3244:	002c2b01 	eoreq	r2, ip, r1, lsl #22
    3248:	13be0000 			; <UNDEFINED> instruction: 0x13be0000
    324c:	dc070000 	stcle	0, cr0, [r7], {-0}
    3250:	57000097 			; <UNDEFINED> instruction: 0x57000097
    3254:	08000001 	stmdaeq	r0, {r0}
    3258:	f3075001 	vhadd.u8	d5, d7, d1
    325c:	e80a5001 	stmda	sl, {r0, ip, lr}
    3260:	00001e03 	andeq	r1, r0, r3, lsl #28
    3264:	0006d30e 	andeq	sp, r6, lr, lsl #6
    3268:	2ca70200 	sfmcs	f0, 4, [r7]
    326c:	0f000000 	svceq	0x00000000
    3270:	0000002c 	andeq	r0, r0, ip, lsr #32
    3274:	0cc50000 	stcleq	0, cr0, [r5], {0}
    3278:	00040000 	andeq	r0, r4, r0
    327c:	00000f82 	andeq	r0, r0, r2, lsl #31
    3280:	0aac0104 	beq	feb03698 <__bss_end__+0xfeaf8ae0>
    3284:	030c0000 	movweq	r0, #49152	; 0xc000
    3288:	1e000008 	cdpne	0, 0, cr0, cr0, cr8, {0}
    328c:	2c000008 	stccs	0, cr0, [r0], {8}
    3290:	78000098 	stmdavc	r0, {r3, r4, r7}
    3294:	21000001 	tstcs	r0, r1
    3298:	0200000f 	andeq	r0, r0, #15
    329c:	6e690504 	cdpvs	5, 6, cr0, cr9, cr4, {0}
    32a0:	04030074 	streq	r0, [r3], #-116	; 0x74
    32a4:	00013707 	andeq	r3, r1, r7, lsl #14
    32a8:	002c0400 	eoreq	r0, ip, r0, lsl #8
    32ac:	01030000 	mrseq	r0, (UNDEF: 3)
    32b0:	0000e506 	andeq	lr, r0, r6, lsl #10
    32b4:	05020300 	streq	r0, [r2, #-768]	; 0x300
    32b8:	00000164 	andeq	r0, r0, r4, ror #2
    32bc:	5b050403 	blpl	1442d0 <__bss_end__+0x139718>
    32c0:	03000001 	movweq	r0, #1
    32c4:	01560508 	cmpeq	r6, r8, lsl #10
    32c8:	01030000 	mrseq	r0, (UNDEF: 3)
    32cc:	0000e308 	andeq	lr, r0, r8, lsl #6
    32d0:	07020300 	streq	r0, [r2, -r0, lsl #6]
    32d4:	000000f1 	strdeq	r0, [r0], -r1
    32d8:	32070403 	andcc	r0, r7, #50331648	; 0x3000000
    32dc:	03000001 	movweq	r0, #1
    32e0:	012d0708 	teqeq	sp, r8, lsl #14
    32e4:	c1050000 	mrsgt	r0, (UNDEF: 5)
    32e8:	02000009 	andeq	r0, r0, #9
    32ec:	00002507 	andeq	r2, r0, r7, lsl #10
    32f0:	09ab0500 	stmibeq	fp!, {r8, sl}
    32f4:	2c030000 	stccs	0, cr0, [r3], {-0}
    32f8:	00000046 	andeq	r0, r0, r6, asr #32
    32fc:	000a8705 	andeq	r8, sl, r5, lsl #14
    3300:	46720300 	ldrbtmi	r0, [r2], -r0, lsl #6
    3304:	06000000 	streq	r0, [r0], -r0
    3308:	0000094f 	andeq	r0, r0, pc, asr #18
    330c:	2c016504 	cfstr32cs	mvfx6, [r1], {4}
    3310:	07000000 	streq	r0, [r0, -r0]
    3314:	bca60304 	stclt	3, cr0, [r6], #16
    3318:	08000000 	stmdaeq	r0, {}	; <UNPREDICTABLE>
    331c:	0000093a 	andeq	r0, r0, sl, lsr r9
    3320:	0091a803 	addseq	sl, r1, r3, lsl #16
    3324:	d6080000 	strle	r0, [r8], -r0
    3328:	03000008 	movweq	r0, #8
    332c:	0000bca9 	andeq	fp, r0, r9, lsr #25
    3330:	54090000 	strpl	r0, [r9], #-0
    3334:	cc000000 	stcgt	0, cr0, [r0], {-0}
    3338:	0a000000 	beq	3340 <__code_start__-0x4cc0>
    333c:	000000cc 	andeq	r0, r0, ip, asr #1
    3340:	04030003 	streq	r0, [r3], #-3
    3344:	00014d07 	andeq	r4, r1, r7, lsl #26
    3348:	03080b00 	movweq	r0, #35584	; 0x8b00
    334c:	0000f4a3 	andeq	pc, r0, r3, lsr #9
    3350:	0a6c0c00 	beq	1b06358 <__bss_end__+0x1afb7a0>
    3354:	a5030000 	strge	r0, [r3, #-0]
    3358:	00000025 	andeq	r0, r0, r5, lsr #32
    335c:	0a740c00 	beq	1d06364 <__bss_end__+0x1cfb7ac>
    3360:	aa030000 	bge	c3368 <__bss_end__+0xb87b0>
    3364:	0000009d 	muleq	r0, sp, r0
    3368:	ff050004 			; <UNDEFINED> instruction: 0xff050004
    336c:	03000009 	movweq	r0, #9
    3370:	0000d3ab 	andeq	sp, r0, fp, lsr #7
    3374:	089f0500 	ldmeq	pc, {r8, sl}	; <UNPREDICTABLE>
    3378:	af030000 	svcge	0x00030000
    337c:	00000070 	andeq	r0, r0, r0, ror r0
    3380:	040e040d 	streq	r0, [lr], #-1037	; 0x40d
    3384:	00000112 	andeq	r0, r0, r2, lsl r1
    3388:	ec080103 	stfs	f0, [r8], {3}
    338c:	0f000000 	svceq	0x00000000
    3390:	00000112 	andeq	r0, r0, r2, lsl r1
    3394:	000b2905 	andeq	r2, fp, r5, lsl #18
    3398:	62160500 	andsvs	r0, r6, #0, 10
    339c:	10000000 	andne	r0, r0, r0
    33a0:	000008b0 			; <UNDEFINED> instruction: 0x000008b0
    33a4:	7c2d0518 	cfstr32vc	mvfx0, [sp], #-96	; 0xffffffa0
    33a8:	0c000001 	stceq	0, cr0, [r0], {1}
    33ac:	00000a20 	andeq	r0, r0, r0, lsr #20
    33b0:	017c2f05 	cmneq	ip, r5, lsl #30
    33b4:	11000000 	mrsne	r0, (UNDEF: 0)
    33b8:	05006b5f 	streq	r6, [r0, #-2911]	; 0xb5f
    33bc:	00002530 	andeq	r2, r0, r0, lsr r5
    33c0:	570c0400 	strpl	r0, [ip, -r0, lsl #8]
    33c4:	0500000a 	streq	r0, [r0, #-10]
    33c8:	00002530 	andeq	r2, r0, r0, lsr r5
    33cc:	8b0c0800 	blhi	3053d4 <__bss_end__+0x2fa81c>
    33d0:	05000008 	streq	r0, [r0, #-8]
    33d4:	00002530 	andeq	r2, r0, r0, lsr r5
    33d8:	700c0c00 	andvc	r0, ip, r0, lsl #24
    33dc:	0500000b 	streq	r0, [r0, #-11]
    33e0:	00002530 	andeq	r2, r0, r0, lsr r5
    33e4:	5f111000 	svcpl	0x00111000
    33e8:	31050078 	tstcc	r5, r8, ror r0
    33ec:	00000182 	andeq	r0, r0, r2, lsl #3
    33f0:	040e0014 	streq	r0, [lr], #-20
    33f4:	00000129 	andeq	r0, r0, r9, lsr #2
    33f8:	00011e09 	andeq	r1, r1, r9, lsl #28
    33fc:	00019200 	andeq	r9, r1, r0, lsl #4
    3400:	00cc0a00 	sbceq	r0, ip, r0, lsl #20
    3404:	00000000 	andeq	r0, r0, r0
    3408:	0008d110 	andeq	sp, r8, r0, lsl r1
    340c:	35052400 	strcc	r2, [r5, #-1024]	; 0x400
    3410:	0000020b 	andeq	r0, r0, fp, lsl #4
    3414:	0007890c 	andeq	r8, r7, ip, lsl #18
    3418:	25370500 	ldrcs	r0, [r7, #-1280]!	; 0x500
    341c:	00000000 	andeq	r0, r0, r0
    3420:	000a8f0c 	andeq	r8, sl, ip, lsl #30
    3424:	25380500 	ldrcs	r0, [r8, #-1280]!	; 0x500
    3428:	04000000 	streq	r0, [r0], #-0
    342c:	0007b70c 	andeq	fp, r7, ip, lsl #14
    3430:	25390500 	ldrcs	r0, [r9, #-1280]!	; 0x500
    3434:	08000000 	stmdaeq	r0, {}	; <UNPREDICTABLE>
    3438:	000c600c 	andeq	r6, ip, ip
    343c:	253a0500 	ldrcs	r0, [sl, #-1280]!	; 0x500
    3440:	0c000000 	stceq	0, cr0, [r0], {-0}
    3444:	00098f0c 	andeq	r8, r9, ip, lsl #30
    3448:	253b0500 	ldrcs	r0, [fp, #-1280]!	; 0x500
    344c:	10000000 	andne	r0, r0, r0
    3450:	0009640c 	andeq	r6, r9, ip, lsl #8
    3454:	253c0500 	ldrcs	r0, [ip, #-1280]!	; 0x500
    3458:	14000000 	strne	r0, [r0], #-0
    345c:	000b750c 	andeq	r7, fp, ip, lsl #10
    3460:	253d0500 	ldrcs	r0, [sp, #-1280]!	; 0x500
    3464:	18000000 	stmdane	r0, {}	; <UNPREDICTABLE>
    3468:	0009e10c 	andeq	lr, r9, ip, lsl #2
    346c:	253e0500 	ldrcs	r0, [lr, #-1280]!	; 0x500
    3470:	1c000000 	stcne	0, cr0, [r0], {-0}
    3474:	000c270c 	andeq	r2, ip, ip, lsl #14
    3478:	253f0500 	ldrcs	r0, [pc, #-1280]!	; 2f80 <__code_start__-0x5080>
    347c:	20000000 	andcs	r0, r0, r0
    3480:	07c61200 	strbeq	r1, [r6, r0, lsl #4]
    3484:	01080000 	mrseq	r0, (UNDEF: 8)
    3488:	024b4805 	subeq	r4, fp, #327680	; 0x50000
    348c:	720c0000 	andvc	r0, ip, #0
    3490:	05000008 	streq	r0, [r0, #-8]
    3494:	00024b49 	andeq	r4, r2, r9, asr #22
    3498:	040c0000 	streq	r0, [ip], #-0
    349c:	05000007 	streq	r0, [r0, #-7]
    34a0:	00024b4a 	andeq	r4, r2, sl, asr #22
    34a4:	1b138000 	blne	4e34ac <__bss_end__+0x4d88f4>
    34a8:	0500000b 	streq	r0, [r0, #-11]
    34ac:	00011e4c 	andeq	r1, r1, ip, asr #28
    34b0:	13010000 	movwne	r0, #4096	; 0x1000
    34b4:	000007eb 	andeq	r0, r0, fp, ror #15
    34b8:	011e4f05 	tsteq	lr, r5, lsl #30
    34bc:	01040000 	mrseq	r0, (UNDEF: 4)
    34c0:	010a0900 	tsteq	sl, r0, lsl #18
    34c4:	025b0000 	subseq	r0, fp, #0
    34c8:	cc0a0000 	stcgt	0, cr0, [sl], {-0}
    34cc:	1f000000 	svcne	0x00000000
    34d0:	09981200 	ldmibeq	r8, {r9, ip}
    34d4:	01900000 	orrseq	r0, r0, r0
    34d8:	02995b05 	addseq	r5, r9, #5120	; 0x1400
    34dc:	200c0000 	andcs	r0, ip, r0
    34e0:	0500000a 	streq	r0, [r0, #-10]
    34e4:	0002995c 	andeq	r9, r2, ip, asr r9
    34e8:	380c0000 	stmdacc	ip, {}	; <UNPREDICTABLE>
    34ec:	0500000a 	streq	r0, [r0, #-10]
    34f0:	0000255d 	andeq	r2, r0, sp, asr r5
    34f4:	860c0400 	strhi	r0, [ip], -r0, lsl #8
    34f8:	05000008 	streq	r0, [r0, #-8]
    34fc:	00029f5f 	andeq	r9, r2, pc, asr pc
    3500:	c60c0800 	strgt	r0, [ip], -r0, lsl #16
    3504:	05000007 	streq	r0, [r0, #-7]
    3508:	00020b60 	andeq	r0, r2, r0, ror #22
    350c:	0e008800 	cdpeq	8, 0, cr8, cr0, cr0, {0}
    3510:	00025b04 	andeq	r5, r2, r4, lsl #22
    3514:	02af0900 	adceq	r0, pc, #0, 18
    3518:	02af0000 	adceq	r0, pc, #0
    351c:	cc0a0000 	stcgt	0, cr0, [sl], {-0}
    3520:	1f000000 	svcne	0x00000000
    3524:	b5040e00 	strlt	r0, [r4, #-3584]	; 0xe00
    3528:	14000002 	strne	r0, [r0], #-2
    352c:	0009eb10 	andeq	lr, r9, r0, lsl fp
    3530:	73050800 	movwvc	r0, #22528	; 0x5800
    3534:	000002db 	ldrdeq	r0, [r0], -fp
    3538:	0007ac0c 	andeq	sl, r7, ip, lsl #24
    353c:	db740500 	blle	1d04944 <__bss_end__+0x1cf9d8c>
    3540:	00000002 	andeq	r0, r0, r2
    3544:	0007100c 	andeq	r1, r7, ip
    3548:	25750500 	ldrbcs	r0, [r5, #-1280]!	; 0x500
    354c:	04000000 	streq	r0, [r0], #-0
    3550:	54040e00 	strpl	r0, [r4], #-3584	; 0xe00
    3554:	10000000 	andne	r0, r0, r0
    3558:	00000a0a 	andeq	r0, r0, sl, lsl #20
    355c:	0bb30568 	bleq	fecc4b04 <__bss_end__+0xfecb9f4c>
    3560:	11000004 	tstne	r0, r4
    3564:	0500705f 	streq	r7, [r0, #-95]	; 0x5f
    3568:	0002dbb4 			; <UNDEFINED> instruction: 0x0002dbb4
    356c:	5f110000 	svcpl	0x00110000
    3570:	b5050072 	strlt	r0, [r5, #-114]	; 0x72
    3574:	00000025 	andeq	r0, r0, r5, lsr #32
    3578:	775f1104 	ldrbvc	r1, [pc, -r4, lsl #2]
    357c:	25b60500 	ldrcs	r0, [r6, #1280]!	; 0x500
    3580:	08000000 	stmdaeq	r0, {}	; <UNPREDICTABLE>
    3584:	0007e40c 	andeq	lr, r7, ip, lsl #8
    3588:	3fb70500 	svccc	0x00b70500
    358c:	0c000000 	stceq	0, cr0, [r0], {-0}
    3590:	0008f70c 	andeq	pc, r8, ip, lsl #14
    3594:	3fb80500 	svccc	0x00b80500
    3598:	0e000000 	cdpeq	0, 0, cr0, cr0, cr0, {0}
    359c:	66625f11 	uqadd16vs	r5, r2, r1
    35a0:	b6b90500 	ldrtlt	r0, [r9], r0, lsl #10
    35a4:	10000002 	andne	r0, r0, r2
    35a8:	0007530c 	andeq	r5, r7, ip, lsl #6
    35ac:	25ba0500 	ldrcs	r0, [sl, #1280]!	; 0x500
    35b0:	18000000 	stmdane	r0, {}	; <UNPREDICTABLE>
    35b4:	0007d40c 	andeq	sp, r7, ip, lsl #8
    35b8:	0ac10500 	beq	ff0449c0 <__bss_end__+0xff039e08>
    35bc:	1c000001 	stcne	0, cr0, [r0], {1}
    35c0:	000c870c 	andeq	r8, ip, ip, lsl #14
    35c4:	66c30500 	strbvs	r0, [r3], r0, lsl #10
    35c8:	20000005 	andcs	r0, r0, r5
    35cc:	000ca10c 	andeq	sl, ip, ip, lsl #2
    35d0:	90c50500 	sbcls	r0, r5, r0, lsl #10
    35d4:	24000005 	strcs	r0, [r0], #-5
    35d8:	000a7c0c 	andeq	r7, sl, ip, lsl #24
    35dc:	b4c80500 	strblt	r0, [r8], #1280	; 0x500
    35e0:	28000005 	stmdacs	r0, {r0, r2}
    35e4:	000c410c 	andeq	r4, ip, ip, lsl #2
    35e8:	cec90500 	cdpgt	5, 12, cr0, cr9, cr0, {0}
    35ec:	2c000005 	stccs	0, cr0, [r0], {5}
    35f0:	62755f11 	rsbsvs	r5, r5, #17, 30	; 0x44
    35f4:	b6cc0500 	strblt	r0, [ip], r0, lsl #10
    35f8:	30000002 	andcc	r0, r0, r2
    35fc:	70755f11 	rsbsvc	r5, r5, r1, lsl pc
    3600:	dbcd0500 	blle	ff344a08 <__bss_end__+0xff339e50>
    3604:	38000002 	stmdacc	r0, {r1}
    3608:	72755f11 	rsbsvc	r5, r5, #17, 30	; 0x44
    360c:	25ce0500 	strbcs	r0, [lr, #1280]	; 0x500
    3610:	3c000000 	stccc	0, cr0, [r0], {-0}
    3614:	0007970c 	andeq	r9, r7, ip, lsl #14
    3618:	d4d10500 	ldrble	r0, [r1], #1280	; 0x500
    361c:	40000005 	andmi	r0, r0, r5
    3620:	000bec0c 	andeq	lr, fp, ip, lsl #24
    3624:	e4d20500 	ldrb	r0, [r2], #1280	; 0x500
    3628:	43000005 	movwmi	r0, #5
    362c:	626c5f11 	rsbvs	r5, ip, #17, 30	; 0x44
    3630:	b6d50500 	ldrblt	r0, [r5], r0, lsl #10
    3634:	44000002 	strmi	r0, [r0], #-2
    3638:	0007fa0c 	andeq	pc, r7, ip, lsl #20
    363c:	25d80500 	ldrbcs	r0, [r8, #1280]	; 0x500
    3640:	4c000000 	stcmi	0, cr0, [r0], {-0}
    3644:	00096e0c 	andeq	r6, r9, ip, lsl #28
    3648:	7bd90500 	blvc	ff644a50 <__bss_end__+0xff639e98>
    364c:	50000000 	andpl	r0, r0, r0
    3650:	000bd70c 	andeq	sp, fp, ip, lsl #14
    3654:	29dc0500 	ldmibcs	ip, {r8, sl}^
    3658:	54000004 	strpl	r0, [r0], #-4
    365c:	0009560c 	andeq	r5, r9, ip, lsl #12
    3660:	ffe00500 			; <UNDEFINED> instruction: 0xffe00500
    3664:	58000000 	stmdapl	r0, {}	; <UNPREDICTABLE>
    3668:	000a120c 	andeq	r1, sl, ip, lsl #4
    366c:	f4e20500 	vld2.16	{d16[0],d17[0]}, [r2], r0
    3670:	5c000000 	stcpl	0, cr0, [r0], {-0}
    3674:	00095c0c 	andeq	r5, r9, ip, lsl #24
    3678:	25e30500 	strbcs	r0, [r3, #1280]!	; 0x500
    367c:	64000000 	strvs	r0, [r0], #-0
    3680:	00251500 	eoreq	r1, r5, r0, lsl #10
    3684:	04290000 	strteq	r0, [r9], #-0
    3688:	29160000 	ldmdbcs	r6, {}	; <UNPREDICTABLE>
    368c:	16000004 	strne	r0, [r0], -r4
    3690:	0000010a 	andeq	r0, r0, sl, lsl #2
    3694:	00010c16 	andeq	r0, r1, r6, lsl ip
    3698:	00251600 	eoreq	r1, r5, r0, lsl #12
    369c:	0e000000 	cdpeq	0, 0, cr0, cr0, cr0, {0}
    36a0:	00043404 	andeq	r3, r4, r4, lsl #8
    36a4:	04290f00 	strteq	r0, [r9], #-3840	; 0xf00
    36a8:	5f170000 	svcpl	0x00170000
    36ac:	2800000a 	stmdacs	r0, {r1, r3}
    36b0:	02380504 	eorseq	r0, r8, #4, 10	; 0x1000000
    36b4:	00000566 	andeq	r0, r0, r6, ror #10
    36b8:	0009da18 	andeq	sp, r9, r8, lsl sl
    36bc:	023a0500 	eorseq	r0, sl, #0, 10
    36c0:	00000025 	andeq	r0, r0, r5, lsr #32
    36c4:	07f31800 	ldrbeq	r1, [r3, r0, lsl #16]!
    36c8:	3f050000 	svccc	0x00050000
    36cc:	00063b02 	andeq	r3, r6, r2, lsl #22
    36d0:	e7180400 	ldr	r0, [r8, -r0, lsl #8]
    36d4:	05000008 	streq	r0, [r0, #-8]
    36d8:	063b023f 			; <UNDEFINED> instruction: 0x063b023f
    36dc:	18080000 	stmdane	r8, {}	; <UNPREDICTABLE>
    36e0:	000008a8 	andeq	r0, r0, r8, lsr #17
    36e4:	3b023f05 	blcc	93300 <__bss_end__+0x88748>
    36e8:	0c000006 	stceq	0, cr0, [r0], {6}
    36ec:	000a3318 	andeq	r3, sl, r8, lsl r3
    36f0:	02410500 	subeq	r0, r1, #0, 10
    36f4:	00000025 	andeq	r0, r0, r5, lsr #32
    36f8:	071e1810 			; <UNDEFINED> instruction: 0x071e1810
    36fc:	42050000 	andmi	r0, r5, #0
    3700:	00081d02 	andeq	r1, r8, r2, lsl #26
    3704:	51181400 	tstpl	r8, r0, lsl #8
    3708:	0500000b 	streq	r0, [r0, #-11]
    370c:	00250244 	eoreq	r0, r5, r4, asr #4
    3710:	18300000 	ldmdane	r0!, {}	; <UNPREDICTABLE>
    3714:	00000a3d 	andeq	r0, r0, sp, lsr sl
    3718:	8a024505 	bhi	94b34 <__bss_end__+0x89f7c>
    371c:	34000005 	strcc	r0, [r0], #-5
    3720:	0009a018 	andeq	sl, r9, r8, lsl r0
    3724:	02470500 	subeq	r0, r7, #0, 10
    3728:	00000025 	andeq	r0, r0, r5, lsr #32
    372c:	0a4d1838 	beq	1349814 <__bss_end__+0x133ec5c>
    3730:	49050000 	stmdbmi	r5, {}	; <UNPREDICTABLE>
    3734:	00083802 	andeq	r3, r8, r2, lsl #16
    3738:	32183c00 	andscc	r3, r8, #0, 24
    373c:	05000009 	streq	r0, [r0, #-9]
    3740:	017c024c 	cmneq	ip, ip, asr #4
    3744:	18400000 	stmdane	r0, {}^	; <UNPREDICTABLE>
    3748:	000008c7 	andeq	r0, r0, r7, asr #17
    374c:	25024d05 	strcs	r4, [r2, #-3333]	; 0xd05
    3750:	44000000 	strmi	r0, [r0], #-0
    3754:	000c5b18 	andeq	r5, ip, r8, lsl fp
    3758:	024e0500 	subeq	r0, lr, #0, 10
    375c:	0000017c 	andeq	r0, r0, ip, ror r1
    3760:	09b71848 	ldmibeq	r7!, {r3, r6, fp, ip}
    3764:	4f050000 	svcmi	0x00050000
    3768:	00083e02 	andeq	r3, r8, r2, lsl #28
    376c:	ef184c00 	svc	0x00184c00
    3770:	05000008 	streq	r0, [r0, #-8]
    3774:	00250252 	eoreq	r0, r5, r2, asr r2
    3778:	18500000 	ldmdane	r0, {}^	; <UNPREDICTABLE>
    377c:	00000816 	andeq	r0, r0, r6, lsl r8
    3780:	0c025305 	stceq	3, cr5, [r2], {5}
    3784:	54000001 	strpl	r0, [r0], #-1
    3788:	0009d318 	andeq	sp, r9, r8, lsl r3
    378c:	02760500 	rsbseq	r0, r6, #0, 10
    3790:	000007fb 	strdeq	r0, [r0], -fp
    3794:	09981958 	ldmibeq	r8, {r3, r4, r6, r8, fp, ip}
    3798:	7a050000 	bvc	1437a0 <__bss_end__+0x138be8>
    379c:	00029902 	andeq	r9, r2, r2, lsl #18
    37a0:	19014800 	stmdbne	r1, {fp, lr}
    37a4:	00000904 	andeq	r0, r0, r4, lsl #18
    37a8:	5b027b05 	blpl	a23c4 <__bss_end__+0x9780c>
    37ac:	4c000002 	stcmi	0, cr0, [r0], {2}
    37b0:	0bbd1901 	bleq	fef49bbc <__bss_end__+0xfef3f004>
    37b4:	7f050000 	svcvc	0x00050000
    37b8:	00084f02 	andeq	r4, r8, r2, lsl #30
    37bc:	1902dc00 	stmdbne	r2, {sl, fp, ip, lr, pc}
    37c0:	000007dc 	ldrdeq	r0, [r0], -ip
    37c4:	00028405 	andeq	r8, r2, r5, lsl #8
    37c8:	e0000006 	and	r0, r0, r6
    37cc:	07c11902 	strbeq	r1, [r1, r2, lsl #18]
    37d0:	85050000 	strhi	r0, [r5, #-0]
    37d4:	00085b02 	andeq	r5, r8, r2, lsl #22
    37d8:	0002ec00 	andeq	lr, r2, r0, lsl #24
    37dc:	040b040e 	streq	r0, [fp], #-1038	; 0x40e
    37e0:	25150000 	ldrcs	r0, [r5, #-0]
    37e4:	8a000000 	bhi	37ec <__code_start__-0x4814>
    37e8:	16000005 	strne	r0, [r0], -r5
    37ec:	00000429 	andeq	r0, r0, r9, lsr #8
    37f0:	00010a16 	andeq	r0, r1, r6, lsl sl
    37f4:	058a1600 	streq	r1, [sl, #1536]	; 0x600
    37f8:	25160000 	ldrcs	r0, [r6, #-0]
    37fc:	00000000 	andeq	r0, r0, r0
    3800:	0119040e 	tsteq	r9, lr, lsl #8
    3804:	040e0000 	streq	r0, [lr], #-0
    3808:	0000056c 	andeq	r0, r0, ip, ror #10
    380c:	00008615 	andeq	r8, r0, r5, lsl r6
    3810:	0005b400 	andeq	fp, r5, r0, lsl #8
    3814:	04291600 	strteq	r1, [r9], #-1536	; 0x600
    3818:	0a160000 	beq	583820 <__bss_end__+0x578c68>
    381c:	16000001 	strne	r0, [r0], -r1
    3820:	00000086 	andeq	r0, r0, r6, lsl #1
    3824:	00002516 	andeq	r2, r0, r6, lsl r5
    3828:	040e0000 	streq	r0, [lr], #-0
    382c:	00000596 	muleq	r0, r6, r5
    3830:	00002515 	andeq	r2, r0, r5, lsl r5
    3834:	0005ce00 	andeq	ip, r5, r0, lsl #28
    3838:	04291600 	strteq	r1, [r9], #-1536	; 0x600
    383c:	0a160000 	beq	583844 <__bss_end__+0x578c8c>
    3840:	00000001 	andeq	r0, r0, r1
    3844:	05ba040e 	ldreq	r0, [sl, #1038]!	; 0x40e
    3848:	54090000 	strpl	r0, [r9], #-0
    384c:	e4000000 	str	r0, [r0], #-0
    3850:	0a000005 	beq	386c <__code_start__-0x4794>
    3854:	000000cc 	andeq	r0, r0, ip, asr #1
    3858:	54090002 	strpl	r0, [r9], #-2
    385c:	f4000000 	vst4.8	{d0-d3}, [r0], r0
    3860:	0a000005 	beq	387c <__code_start__-0x4784>
    3864:	000000cc 	andeq	r0, r0, ip, asr #1
    3868:	f8060000 			; <UNDEFINED> instruction: 0xf8060000
    386c:	05000009 	streq	r0, [r0, #-9]
    3870:	02e1011d 	rsceq	r0, r1, #1073741831	; 0x40000007
    3874:	7f1a0000 	svcvc	0x001a0000
    3878:	0c00000b 	stceq	0, cr0, [r0], {11}
    387c:	35012105 	strcc	r2, [r1, #-261]	; 0x105
    3880:	18000006 	stmdane	r0, {r1, r2}
    3884:	00000a20 	andeq	r0, r0, r0, lsr #20
    3888:	35012305 	strcc	r2, [r1, #-773]	; 0x305
    388c:	00000006 	andeq	r0, r0, r6
    3890:	0008fd18 	andeq	pc, r8, r8, lsl sp	; <UNPREDICTABLE>
    3894:	01240500 	teqeq	r4, r0, lsl #10
    3898:	00000025 	andeq	r0, r0, r5, lsr #32
    389c:	09f21804 	ldmibeq	r2!, {r2, fp, ip}^
    38a0:	25050000 	strcs	r0, [r5, #-0]
    38a4:	00063b01 	andeq	r3, r6, r1, lsl #22
    38a8:	0e000800 	cdpeq	8, 0, cr0, cr0, cr0, {0}
    38ac:	00060004 	andeq	r0, r6, r4
    38b0:	f4040e00 			; <UNDEFINED> instruction: 0xf4040e00
    38b4:	1a000005 	bne	38d0 <__code_start__-0x4730>
    38b8:	00000716 	andeq	r0, r0, r6, lsl r7
    38bc:	013d050e 	teqeq	sp, lr, lsl #10
    38c0:	00000676 	andeq	r0, r0, r6, ror r6
    38c4:	000a6618 	andeq	r6, sl, r8, lsl r6
    38c8:	013e0500 	teqeq	lr, r0, lsl #10
    38cc:	00000676 	andeq	r0, r0, r6, ror r6
    38d0:	0aa01800 	beq	fe8098d8 <__bss_end__+0xfe7fed20>
    38d4:	3f050000 	svccc	0x00050000
    38d8:	00067601 	andeq	r7, r6, r1, lsl #12
    38dc:	24180600 	ldrcs	r0, [r8], #-1536	; 0x600
    38e0:	0500000b 	streq	r0, [r0, #-11]
    38e4:	005b0140 	subseq	r0, fp, r0, asr #2
    38e8:	000c0000 	andeq	r0, ip, r0
    38ec:	00005b09 	andeq	r5, r0, r9, lsl #22
    38f0:	00068600 	andeq	r8, r6, r0, lsl #12
    38f4:	00cc0a00 	sbceq	r0, ip, r0, lsl #20
    38f8:	00020000 	andeq	r0, r2, r0
    38fc:	5705d01b 	smladpl	r5, fp, r0, sp
    3900:	00078702 	andeq	r8, r7, r2, lsl #14
    3904:	0b631800 	bleq	18c990c <__bss_end__+0x18bed54>
    3908:	59050000 	stmdbpl	r5, {}	; <UNPREDICTABLE>
    390c:	00002c02 	andeq	r2, r0, r2, lsl #24
    3910:	0e180000 	cdpeq	0, 1, cr0, cr8, cr0, {0}
    3914:	0500000b 	streq	r0, [r0, #-11]
    3918:	010c025a 	tsteq	ip, sl, asr r2
    391c:	18040000 	stmdane	r4, {}	; <UNPREDICTABLE>
    3920:	00000919 	andeq	r0, r0, r9, lsl r9
    3924:	87025b05 	strhi	r5, [r2, -r5, lsl #22]
    3928:	08000007 	stmdaeq	r0, {r0, r1, r2}
    392c:	000c3218 	andeq	r3, ip, r8, lsl r2
    3930:	025c0500 	subseq	r0, ip, #0, 10
    3934:	00000192 	muleq	r0, r2, r1
    3938:	08b81824 	ldmeq	r8!, {r2, r5, fp, ip}
    393c:	5d050000 	stcpl	0, cr0, [r5, #-0]
    3940:	00002502 	andeq	r2, r0, r2, lsl #10
    3944:	1b184800 	blne	61594c <__bss_end__+0x60ad94>
    3948:	0500000a 	streq	r0, [r0, #-10]
    394c:	0069025e 	rsbeq	r0, r9, lr, asr r2
    3950:	18500000 	ldmdane	r0, {}^	; <UNPREDICTABLE>
    3954:	00000c48 	andeq	r0, r0, r8, asr #24
    3958:	41025f05 	tstmi	r2, r5, lsl #30
    395c:	58000006 	stmdapl	r0, {r1, r2}
    3960:	000a2618 	andeq	r2, sl, r8, lsl r6
    3964:	02600500 	rsbeq	r0, r0, #0, 10
    3968:	000000f4 	strdeq	r0, [r0], -r4
    396c:	0c4d1868 	mcrreq	8, 6, r1, sp, cr8
    3970:	61050000 	mrsvs	r0, (UNDEF: 5)
    3974:	0000f402 	andeq	pc, r0, r2, lsl #8
    3978:	7b187000 	blvc	61f980 <__bss_end__+0x614dc8>
    397c:	05000007 	streq	r0, [r0, #-7]
    3980:	00f40262 	rscseq	r0, r4, r2, ror #4
    3984:	18780000 	ldmdane	r8!, {}^	; <UNPREDICTABLE>
    3988:	00000b9f 	muleq	r0, pc, fp	; <UNPREDICTABLE>
    398c:	97026305 	strls	r6, [r2, -r5, lsl #6]
    3990:	80000007 	andhi	r0, r0, r7
    3994:	00090d18 	andeq	r0, r9, r8, lsl sp
    3998:	02640500 	rsbeq	r0, r4, #0, 10
    399c:	000007a7 	andeq	r0, r0, r7, lsr #15
    39a0:	0b311888 	bleq	c49bc8 <__bss_end__+0xc3f010>
    39a4:	65050000 	strvs	r0, [r5, #-0]
    39a8:	00002502 	andeq	r2, r0, r2, lsl #10
    39ac:	6418a000 	ldrvs	sl, [r8], #-0
    39b0:	05000008 	streq	r0, [r0, #-8]
    39b4:	00f40266 	rscseq	r0, r4, r6, ror #4
    39b8:	18a40000 	stmiane	r4!, {}	; <UNPREDICTABLE>
    39bc:	0000076c 	andeq	r0, r0, ip, ror #14
    39c0:	f4026705 	vst1.8	{d6}, [r2], r5
    39c4:	ac000000 	stcge	0, cr0, [r0], {-0}
    39c8:	00085318 	andeq	r5, r8, r8, lsl r3
    39cc:	02680500 	rsbeq	r0, r8, #0, 10
    39d0:	000000f4 	strdeq	r0, [r0], -r4
    39d4:	073318b4 			; <UNDEFINED> instruction: 0x073318b4
    39d8:	69050000 	stmdbvs	r5, {}	; <UNPREDICTABLE>
    39dc:	0000f402 	andeq	pc, r0, r2, lsl #8
    39e0:	4218bc00 	andsmi	fp, r8, #0, 24
    39e4:	05000007 	streq	r0, [r0, #-7]
    39e8:	00f4026a 	rscseq	r0, r4, sl, ror #4
    39ec:	18c40000 	stmiane	r4, {}^	; <UNPREDICTABLE>
    39f0:	000009d8 	ldrdeq	r0, [r0], -r8
    39f4:	25026b05 	strcs	r6, [r2, #-2821]	; 0xb05
    39f8:	cc000000 	stcgt	0, cr0, [r0], {-0}
    39fc:	01120900 	tsteq	r2, r0, lsl #18
    3a00:	07970000 	ldreq	r0, [r7, r0]
    3a04:	cc0a0000 	stcgt	0, cr0, [sl], {-0}
    3a08:	19000000 	stmdbne	r0, {}	; <UNPREDICTABLE>
    3a0c:	01120900 	tsteq	r2, r0, lsl #18
    3a10:	07a70000 	streq	r0, [r7, r0]!
    3a14:	cc0a0000 	stcgt	0, cr0, [sl], {-0}
    3a18:	07000000 	streq	r0, [r0, -r0]
    3a1c:	01120900 	tsteq	r2, r0, lsl #18
    3a20:	07b70000 	ldreq	r0, [r7, r0]!
    3a24:	cc0a0000 	stcgt	0, cr0, [sl], {-0}
    3a28:	17000000 	strne	r0, [r0, -r0]
    3a2c:	05f01b00 	ldrbeq	r1, [r0, #2816]!	; 0xb00
    3a30:	07db0270 			; <UNDEFINED> instruction: 0x07db0270
    3a34:	88180000 	ldmdahi	r8, {}	; <UNPREDICTABLE>
    3a38:	05000009 	streq	r0, [r0, #-9]
    3a3c:	07db0273 			; <UNDEFINED> instruction: 0x07db0273
    3a40:	18000000 	stmdane	r0, {}	; <UNPREDICTABLE>
    3a44:	00000b96 	muleq	r0, r6, fp
    3a48:	eb027405 	bl	a0a64 <__bss_end__+0x95eac>
    3a4c:	78000007 	stmdavc	r0, {r0, r1, r2}
    3a50:	02db0900 	sbcseq	r0, fp, #0, 18
    3a54:	07eb0000 	strbeq	r0, [fp, r0]!
    3a58:	cc0a0000 	stcgt	0, cr0, [sl], {-0}
    3a5c:	1d000000 	stcne	0, cr0, [r0, #-0]
    3a60:	002c0900 	eoreq	r0, ip, r0, lsl #18
    3a64:	07fb0000 	ldrbeq	r0, [fp, r0]!
    3a68:	cc0a0000 	stcgt	0, cr0, [sl], {-0}
    3a6c:	1d000000 	stcne	0, cr0, [r0, #-0]
    3a70:	05f01c00 	ldrbeq	r1, [r0, #3072]!	; 0xc00
    3a74:	081d0255 	ldmdaeq	sp, {r0, r2, r4, r6, r9}
    3a78:	5f1d0000 	svcpl	0x001d0000
    3a7c:	0500000a 	streq	r0, [r0, #-10]
    3a80:	0686026c 	streq	r0, [r6], ip, ror #4
    3a84:	f21d0000 	vhadd.s16	d0, d13, d0
    3a88:	0500000b 	streq	r0, [r0, #-11]
    3a8c:	07b70275 			; <UNDEFINED> instruction: 0x07b70275
    3a90:	09000000 	stmdbeq	r0, {}	; <UNPREDICTABLE>
    3a94:	00000112 	andeq	r0, r0, r2, lsl r1
    3a98:	0000082d 	andeq	r0, r0, sp, lsr #16
    3a9c:	0000cc0a 	andeq	ip, r0, sl, lsl #24
    3aa0:	1e001800 	cdpne	8, 0, cr1, cr0, cr0, {0}
    3aa4:	00000838 	andeq	r0, r0, r8, lsr r8
    3aa8:	00042916 	andeq	r2, r4, r6, lsl r9
    3aac:	040e0000 	streq	r0, [lr], #-0
    3ab0:	0000082d 	andeq	r0, r0, sp, lsr #16
    3ab4:	017c040e 	cmneq	ip, lr, lsl #8
    3ab8:	4f1e0000 	svcmi	0x001e0000
    3abc:	16000008 	strne	r0, [r0], -r8
    3ac0:	00000025 	andeq	r0, r0, r5, lsr #32
    3ac4:	55040e00 	strpl	r0, [r4, #-3584]	; 0xe00
    3ac8:	0e000008 	cdpeq	0, 0, cr0, cr0, cr8, {0}
    3acc:	00084404 	andeq	r4, r8, r4, lsl #8
    3ad0:	05f40900 	ldrbeq	r0, [r4, #2304]!	; 0x900
    3ad4:	086b0000 	stmdaeq	fp!, {}^	; <UNPREDICTABLE>
    3ad8:	cc0a0000 	stcgt	0, cr0, [sl], {-0}
    3adc:	02000000 	andeq	r0, r0, #0
    3ae0:	0b451f00 	bleq	114b6e8 <__bss_end__+0x1140b30>
    3ae4:	fd050000 	stc2	0, cr0, [r5, #-0]
    3ae8:	00042902 	andeq	r2, r4, r2, lsl #18
    3aec:	0b3e1f00 	bleq	f8b6f4 <__bss_end__+0xf80b3c>
    3af0:	fe050000 	cdp2	0, 0, cr0, cr5, cr0, {0}
    3af4:	00042f02 	andeq	r2, r4, r2, lsl #30
    3af8:	00251500 	eoreq	r1, r5, r0, lsl #10
    3afc:	08920000 	ldmeq	r2, {}	; <UNPREDICTABLE>
    3b00:	25160000 	ldrcs	r0, [r6, #-0]
    3b04:	00000000 	andeq	r0, r0, r0
    3b08:	00054820 	andeq	r4, r5, r0, lsr #16
    3b0c:	9d1d0600 	ldcls	6, cr0, [sp, #-0]
    3b10:	0e000008 	cdpeq	0, 0, cr0, cr0, cr8, {0}
    3b14:	00088304 	andeq	r8, r8, r4, lsl #6
    3b18:	00251500 	eoreq	r1, r5, r0, lsl #10
    3b1c:	08b20000 	ldmeq	r2!, {}	; <UNPREDICTABLE>
    3b20:	8a160000 	bhi	583b28 <__bss_end__+0x578f70>
    3b24:	00000005 	andeq	r0, r0, r5
    3b28:	00058520 	andeq	r8, r5, r0, lsr #10
    3b2c:	bd220600 	stclt	6, cr0, [r2, #-0]
    3b30:	0e000008 	cdpeq	0, 0, cr0, cr0, cr8, {0}
    3b34:	0008a304 	andeq	sl, r8, r4, lsl #6
    3b38:	54012100 	strpl	r2, [r1], #-256	; 0x100
    3b3c:	08000000 	stmdaeq	r0, {}	; <UNPREDICTABLE>
    3b40:	0009000c 	andeq	r0, r9, ip
    3b44:	075c2200 	ldrbeq	r2, [ip, -r0, lsl #4]
    3b48:	22000000 	andcs	r0, r0, #0
    3b4c:	00000b85 	andeq	r0, r0, r5, lsl #23
    3b50:	0bdd2201 	bleq	ff74c35c <__bss_end__+0xff7417a4>
    3b54:	22040000 	andcs	r0, r4, #0
    3b58:	0000079d 	muleq	r0, sp, r7
    3b5c:	09402205 	stmdbeq	r0, {r0, r2, r9, sp}^
    3b60:	22060000 	andcs	r0, r6, #0
    3b64:	00000bfa 	strdeq	r0, [r0], -sl
    3b68:	0c092207 	sfmeq	f2, 4, [r9], {7}
    3b6c:	22030000 	andcs	r0, r3, #0
    3b70:	00000c18 	andeq	r0, r0, r8, lsl ip
    3b74:	0a100002 	beq	403b84 <__bss_end__+0x3f8fcc>
    3b78:	2c000008 	stccs	0, cr0, [r0], {8}
    3b7c:	09900607 	ldmibeq	r0, {r0, r1, r2, r9, sl}
    3b80:	69110000 	ldmdbvs	r1, {}	; <UNPREDICTABLE>
    3b84:	0907006f 	stmdbeq	r7, {r0, r1, r2, r3, r5, r6}
    3b88:	00000033 	andeq	r0, r0, r3, lsr r0
    3b8c:	65691100 	strbvs	r1, [r9, #-256]!	; 0x100
    3b90:	0a070072 	beq	1c3d60 <__bss_end__+0x1b91a8>
    3b94:	00000033 	andeq	r0, r0, r3, lsr r0
    3b98:	69691104 	stmdbvs	r9!, {r2, r8, ip}^
    3b9c:	11070072 	tstne	r7, r2, ror r0
    3ba0:	00000033 	andeq	r0, r0, r3, lsr r0
    3ba4:	636c1108 	cmnvs	ip, #8, 2
    3ba8:	13070072 	movwne	r0, #28786	; 0x7072
    3bac:	00000033 	andeq	r0, r0, r3, lsr r0
    3bb0:	636d110c 	cmnvs	sp, #12, 2
    3bb4:	14070072 	strne	r0, [r7], #-114	; 0x72
    3bb8:	00000033 	andeq	r0, r0, r3, lsr r0
    3bbc:	736c1110 	cmnvc	ip, #16, 2
    3bc0:	15070072 	strne	r0, [r7, #-114]	; 0x72
    3bc4:	00000033 	andeq	r0, r0, r3, lsr r0
    3bc8:	736d1114 	cmnvc	sp, #20, 2
    3bcc:	16070072 			; <UNDEFINED> instruction: 0x16070072
    3bd0:	00000033 	andeq	r0, r0, r3, lsr r0
    3bd4:	0a980c18 	beq	fe606c3c <__bss_end__+0xfe5fc084>
    3bd8:	17070000 	strne	r0, [r7, -r0]
    3bdc:	00000033 	andeq	r0, r0, r3, lsr r0
    3be0:	07b20c1c 			; <UNDEFINED> instruction: 0x07b20c1c
    3be4:	1b070000 	blne	1c3bec <__bss_end__+0x1b9034>
    3be8:	00000033 	andeq	r0, r0, r3, lsr r0
    3bec:	07920c20 	ldreq	r0, [r2, r0, lsr #24]
    3bf0:	1d070000 	stcne	0, cr0, [r7, #-0]
    3bf4:	00000033 	andeq	r0, r0, r3, lsr r0
    3bf8:	0a820c24 	beq	fe086c90 <__bss_end__+0xfe07c0d8>
    3bfc:	1e070000 	cdpne	0, 0, cr0, cr7, cr0, {0}
    3c00:	00000033 	andeq	r0, r0, r3, lsr r0
    3c04:	7a230028 	bvc	8c3cac <__bss_end__+0x8b90f4>
    3c08:	01000008 	tsteq	r0, r8
    3c0c:	0009a507 	andeq	sl, r9, r7, lsl #10
    3c10:	21500400 	cmpcs	r0, r0, lsl #8
    3c14:	33040e20 	movwcc	r0, #20000	; 0x4e20
    3c18:	0f000000 	svceq	0x00000000
    3c1c:	0000099f 	muleq	r0, pc, r9	; <UNPREDICTABLE>
    3c20:	0009b223 	andeq	fp, r9, r3, lsr #4
    3c24:	bf280100 	svclt	0x00280100
    3c28:	40000009 	andmi	r0, r0, r9
    3c2c:	0e202150 	mcreq	1, 1, r2, cr0, cr0, {2}
    3c30:	00090004 	andeq	r0, r9, r4
    3c34:	09b90f00 	ldmibeq	r9!, {r8, r9, sl, fp}
    3c38:	cf240000 	svcgt	0x00240000
    3c3c:	0100000b 	tsteq	r0, fp
    3c40:	000025a7 	andeq	r2, r0, r7, lsr #11
    3c44:	00999400 	addseq	r9, r9, r0, lsl #8
    3c48:	00001000 	andeq	r1, r0, r0
    3c4c:	f09c0100 			; <UNDEFINED> instruction: 0xf09c0100
    3c50:	25000009 	strcs	r0, [r0, #-9]
    3c54:	0000999c 	muleq	r0, ip, r9
    3c58:	00000c9c 	muleq	r0, ip, ip
    3c5c:	0099a025 	addseq	sl, r9, r5, lsr #32
    3c60:	000ad200 	andeq	sp, sl, r0, lsl #4
    3c64:	2d260000 	stccs	0, cr0, [r6, #-0]
    3c68:	01000005 	tsteq	r0, r5
    3c6c:	0099649f 	umullseq	r6, r9, pc, r4	; <UNPREDICTABLE>
    3c70:	00003000 	andeq	r3, r0, r0
    3c74:	4e9c0100 	fmlmie	f0, f4, f0
    3c78:	2700000a 	strcs	r0, [r0, -sl]
    3c7c:	9f010063 	svcls	0x00010063
    3c80:	0000002c 	andeq	r0, r0, ip, lsr #32
    3c84:	000013df 	ldrdeq	r1, [r0], -pc	; <UNPREDICTABLE>
    3c88:	00997025 	addseq	r7, r9, r5, lsr #32
    3c8c:	000c9c00 	andeq	r9, ip, r0, lsl #24
    3c90:	99742500 	ldmdbls	r4!, {r8, sl, sp}^
    3c94:	0aa50000 	beq	fe943c9c <__bss_end__+0xfe9390e4>
    3c98:	88280000 	stmdahi	r8!, {}	; <UNPREDICTABLE>
    3c9c:	a7000099 			; <UNDEFINED> instruction: 0xa7000099
    3ca0:	4400000c 	strmi	r0, [r0], #-12
    3ca4:	2900000a 	stmdbcs	r0, {r1, r3}
    3ca8:	0c055001 	stceq	0, cr5, [r5], {1}
    3cac:	20215040 	eorcs	r5, r1, r0, asr #32
    3cb0:	05510129 	ldrbeq	r0, [r1, #-297]	; 0x129
    3cb4:	ff080074 			; <UNDEFINED> instruction: 0xff080074
    3cb8:	8c25001a 	stchi	0, cr0, [r5], #-104	; 0xffffff98
    3cbc:	9c000099 	stcls	0, cr0, [r0], {153}	; 0x99
    3cc0:	0000000c 	andeq	r0, r0, ip
    3cc4:	0008dd24 	andeq	sp, r8, r4, lsr #26
    3cc8:	25970100 	ldrcs	r0, [r7, #256]	; 0x100
    3ccc:	34000000 	strcc	r0, [r0], #-0
    3cd0:	30000099 	mulcc	r0, r9, r0
    3cd4:	01000000 	mrseq	r0, (UNDEF: 0)
    3cd8:	000aa59c 	muleq	sl, ip, r5
    3cdc:	00632a00 	rsbeq	r2, r3, r0, lsl #20
    3ce0:	00259b01 	eoreq	r9, r5, r1, lsl #22
    3ce4:	54010000 	strpl	r0, [r1], #-0
    3ce8:	00993c25 	addseq	r3, r9, r5, lsr #24
    3cec:	000c9c00 	andeq	r9, ip, r0, lsl #24
    3cf0:	99402500 	stmdbls	r0, {r8, sl, sp}^
    3cf4:	0ad20000 	beq	ff483cfc <__bss_end__+0xff479144>
    3cf8:	50280000 	eorpl	r0, r8, r0
    3cfc:	b2000099 	andlt	r0, r0, #153	; 0x99
    3d00:	9b00000c 	blls	3d38 <__code_start__-0x42c8>
    3d04:	2900000a 	stmdbcs	r0, {r1, r3}
    3d08:	0c055001 	stceq	0, cr5, [r5], {1}
    3d0c:	20215040 	eorcs	r5, r1, r0, asr #32
    3d10:	99582500 	ldmdbls	r8, {r8, sl, sp}^
    3d14:	0c9c0000 	ldceq	0, cr0, [ip], {0}
    3d18:	24000000 	strcs	r0, [r0], #-0
    3d1c:	00000891 	muleq	r0, r1, r8
    3d20:	00258801 	eoreq	r8, r5, r1, lsl #16
    3d24:	99140000 	ldmdbls	r4, {}	; <UNPREDICTABLE>
    3d28:	00200000 	eoreq	r0, r0, r0
    3d2c:	9c010000 	stcls	0, cr0, [r1], {-0}
    3d30:	00000ad2 	ldrdeq	r0, [r0], -r2
    3d34:	0099202b 	addseq	r2, r9, fp, lsr #32
    3d38:	000cb200 	andeq	fp, ip, r0, lsl #4
    3d3c:	50012900 	andpl	r2, r1, r0, lsl #18
    3d40:	50640c05 	rsbpl	r0, r4, r5, lsl #24
    3d44:	00002021 	andeq	r2, r0, r1, lsr #32
    3d48:	000baf24 	andeq	sl, fp, r4, lsr #30
    3d4c:	257f0100 	ldrbcs	r0, [pc, #-256]!	; 3c54 <__code_start__-0x43ac>
    3d50:	fc000000 	stc2	0, cr0, [r0], {-0}
    3d54:	18000098 	stmdane	r0, {r3, r4, r7}
    3d58:	01000000 	mrseq	r0, (UNDEF: 0)
    3d5c:	000aff9c 	muleq	sl, ip, pc	; <UNPREDICTABLE>
    3d60:	99082b00 	stmdbls	r8, {r8, r9, fp, sp}
    3d64:	0cb20000 	ldceq	0, cr0, [r2]
    3d68:	01290000 	teqeq	r9, r0
    3d6c:	640c0550 	strvs	r0, [ip], #-1360	; 0x550
    3d70:	00202150 	eoreq	r2, r0, r0, asr r1
    3d74:	07292600 	streq	r2, [r9, -r0, lsl #12]!
    3d78:	3a010000 	bcc	43d80 <__bss_end__+0x391c8>
    3d7c:	0000984c 	andeq	r9, r0, ip, asr #16
    3d80:	000000b0 	strheq	r0, [r0], -r0	; <UNPREDICTABLE>
    3d84:	0c3d9c01 	ldceq	12, cr9, [sp], #-4
    3d88:	5c280000 	stcpl	0, cr0, [r8], #-0
    3d8c:	bd000098 	stclt	0, cr0, [r0, #-608]	; 0xfffffda0
    3d90:	2c00000c 	stccs	0, cr0, [r0], {12}
    3d94:	2900000b 	stmdbcs	r0, {r0, r1, r3}
    3d98:	3e015001 	cdpcc	0, 0, cr5, cr1, cr1, {0}
    3d9c:	01510129 	cmpeq	r1, r9, lsr #2
    3da0:	68280032 	stmdavs	r8!, {r1, r4, r5}
    3da4:	bd000098 	stclt	0, cr0, [r0, #-608]	; 0xfffffda0
    3da8:	4400000c 	strmi	r0, [r0], #-12
    3dac:	2900000b 	stmdbcs	r0, {r0, r1, r3}
    3db0:	3f015001 	svccc	0x00015001
    3db4:	01510129 	cmpeq	r1, r9, lsr #2
    3db8:	6c250032 	stcvs	0, cr0, [r5], #-200	; 0xffffff38
    3dbc:	9c000098 	stcls	0, cr0, [r0], {152}	; 0x98
    3dc0:	2800000c 	stmdacs	r0, {r2, r3}
    3dc4:	00009878 	andeq	r9, r0, r8, ror r8
    3dc8:	00000c3d 	andeq	r0, r0, sp, lsr ip
    3dcc:	00000b69 	andeq	r0, r0, r9, ror #22
    3dd0:	05500129 	ldrbeq	r0, [r0, #-297]	; 0x129
    3dd4:	2150040c 	cmpcs	r0, ip, lsl #8
    3dd8:	51012920 	tstpl	r1, r0, lsr #18
    3ddc:	25003101 	strcs	r3, [r0, #-257]	; 0x101
    3de0:	0000987c 	andeq	r9, r0, ip, ror r8
    3de4:	00000c9c 	muleq	r0, ip, ip
    3de8:	00988c28 	addseq	r8, r8, r8, lsr #24
    3dec:	000ca700 	andeq	sl, ip, r0, lsl #14
    3df0:	000b8b00 	andeq	r8, fp, r0, lsl #22
    3df4:	50012900 	andpl	r2, r1, r0, lsl #18
    3df8:	29007402 	stmdbcs	r0, {r1, sl, ip, sp, lr}
    3dfc:	30015101 	andcc	r5, r1, r1, lsl #2
    3e00:	98982800 	ldmls	r8, {fp, sp}
    3e04:	0ca70000 	stceq	0, cr0, [r7]
    3e08:	0ba70000 	bleq	fe9c3e10 <__bss_end__+0xfe9b9258>
    3e0c:	01290000 	teqeq	r9, r0
    3e10:	440c0550 	strmi	r0, [ip], #-1360	; 0x550
    3e14:	29202150 	stmdbcs	r0!, {r4, r6, r8, sp}
    3e18:	30015101 	andcc	r5, r1, r1, lsl #2
    3e1c:	98a42800 	stmials	r4!, {fp, sp}
    3e20:	0ca70000 	stceq	0, cr0, [r7]
    3e24:	0bc30000 	bleq	ff0c3e2c <__bss_end__+0xff0b9274>
    3e28:	01290000 	teqeq	r9, r0
    3e2c:	4c0c0550 	cfstr32mi	mvfx0, [ip], {80}	; 0x50
    3e30:	29202150 	stmdbcs	r0!, {r4, r6, r8, sp}
    3e34:	33015101 	movwcc	r5, #4353	; 0x1101
    3e38:	98b02800 	ldmls	r0!, {fp, sp}
    3e3c:	0ca70000 	stceq	0, cr0, [r7]
    3e40:	0bdf0000 	bleq	ff7c3e48 <__bss_end__+0xff7b9290>
    3e44:	01290000 	teqeq	r9, r0
    3e48:	500c0550 	andpl	r0, ip, r0, asr r5
    3e4c:	29202150 	stmdbcs	r0!, {r4, r6, r8, sp}
    3e50:	30015101 	andcc	r5, r1, r1, lsl #2
    3e54:	98bc2800 	ldmls	ip!, {fp, sp}
    3e58:	0ca70000 	stceq	0, cr0, [r7]
    3e5c:	0bfc0000 	bleq	fff03e64 <__bss_end__+0xffef92ac>
    3e60:	01290000 	teqeq	r9, r0
    3e64:	480c0550 	stmdami	ip, {r4, r6, r8, sl}
    3e68:	29202150 	stmdbcs	r0!, {r4, r6, r8, sp}
    3e6c:	08025101 	stmdaeq	r2, {r0, r8, ip, lr}
    3e70:	c82800c7 	stmdagt	r8!, {r0, r1, r2, r6, r7}
    3e74:	a7000098 			; <UNDEFINED> instruction: 0xa7000098
    3e78:	1a00000c 	bne	3eb0 <__code_start__-0x4150>
    3e7c:	2900000c 	stmdbcs	r0, {r2, r3}
    3e80:	0c055001 	stceq	0, cr5, [r5], {1}
    3e84:	20215068 	eorcs	r5, r1, r8, rrx
    3e88:	03510129 	cmpeq	r1, #1073741834	; 0x4000000a
    3e8c:	00010e0a 	andeq	r0, r1, sl, lsl #28
    3e90:	0098d428 	addseq	sp, r8, r8, lsr #8
    3e94:	000ca700 	andeq	sl, ip, r0, lsl #14
    3e98:	000c3300 	andeq	r3, ip, r0, lsl #6
    3e9c:	50012900 	andpl	r2, r1, r0, lsl #18
    3ea0:	29007402 	stmdbcs	r0, {r1, sl, ip, sp, lr}
    3ea4:	33015101 	movwcc	r5, #4353	; 0x1101
    3ea8:	98d82500 	ldmls	r8, {r8, sl, sp}^
    3eac:	0c9c0000 	ldceq	0, cr0, [ip], {0}
    3eb0:	2c000000 	stccs	0, cr0, [r0], {-0}
    3eb4:	00000bc7 	andeq	r0, r0, r7, asr #23
    3eb8:	982c2d01 	stmdals	ip!, {r0, r8, sl, fp, sp}
    3ebc:	00200000 	eoreq	r0, r0, r0
    3ec0:	9c010000 	stcls	0, cr0, [r1], {-0}
    3ec4:	00000c95 	muleq	r0, r5, ip
    3ec8:	0001d12d 	andeq	sp, r1, sp, lsr #2
    3ecc:	952d0100 	strls	r0, [sp, #-256]!	; 0x100
    3ed0:	fd00000c 	stc2	0, cr0, [r0, #-48]	; 0xffffffd0
    3ed4:	27000013 	smladcs	r0, r3, r0, r0
    3ed8:	006c6176 	rsbeq	r6, ip, r6, ror r1
    3edc:	002c2d01 	eoreq	r2, ip, r1, lsl #26
    3ee0:	141b0000 	ldrne	r0, [fp], #-0
    3ee4:	3c280000 	stccc	0, cr0, [r8], #-0
    3ee8:	b2000098 	andlt	r0, r0, #152	; 0x98
    3eec:	8400000c 	strhi	r0, [r0], #-12
    3ef0:	2900000c 	stmdbcs	r0, {r2, r3}
    3ef4:	74025001 	strvc	r5, [r2], #-1
    3ef8:	482b0000 	stmdami	fp!, {}	; <UNPREDICTABLE>
    3efc:	a7000098 			; <UNDEFINED> instruction: 0xa7000098
    3f00:	2900000c 	stmdbcs	r0, {r2, r3}
    3f04:	74025001 	strvc	r5, [r2], #-1
    3f08:	0e000000 	cdpeq	0, 0, cr0, cr0, cr0, {0}
    3f0c:	000c9b04 	andeq	r9, ip, r4, lsl #22
    3f10:	262f2e00 	strtcs	r2, [pc], -r0, lsl #28
    3f14:	26000009 	strcs	r0, [r0], -r9
    3f18:	06000009 	streq	r0, [r0], -r9
    3f1c:	0aa62f89 	beq	fe98fd48 <__bss_end__+0xfe985190>
    3f20:	0aa60000 	beq	fe983f28 <__bss_end__+0xfe979370>
    3f24:	9c060000 	stcls	0, cr0, [r6], {-0}
    3f28:	000ba92f 	andeq	sl, fp, pc, lsr #18
    3f2c:	000ba900 	andeq	sl, fp, r0, lsl #18
    3f30:	2fa80600 	svccs	0x00a80600
    3f34:	00000976 	andeq	r0, r0, r6, ror r9
    3f38:	00000976 	andeq	r0, r0, r6, ror r9
    3f3c:	70001908 	andvc	r1, r0, r8, lsl #18
    3f40:	0400000b 	streq	r0, [r0], #-11
    3f44:	0011f600 	andseq	pc, r1, r0, lsl #12
    3f48:	ac010400 	cfstrsge	mvf0, [r1], {-0}
    3f4c:	0c00000a 	stceq	0, cr0, [r0], {10}
    3f50:	00000c7c 	andeq	r0, r0, ip, ror ip
    3f54:	0000081e 	andeq	r0, r0, lr, lsl r8
    3f58:	000099a4 	andeq	r9, r0, r4, lsr #19
    3f5c:	00000120 	andeq	r0, r0, r0, lsr #2
    3f60:	0000106d 	andeq	r1, r0, sp, rrx
    3f64:	69050402 	stmdbvs	r5, {r1, sl}
    3f68:	0300746e 	movweq	r7, #1134	; 0x46e
    3f6c:	01370704 	teqeq	r7, r4, lsl #14
    3f70:	2c040000 	stccs	0, cr0, [r4], {-0}
    3f74:	03000000 	movweq	r0, #0
    3f78:	00e50601 	rsceq	r0, r5, r1, lsl #12
    3f7c:	02030000 	andeq	r0, r3, #0
    3f80:	00016405 	andeq	r6, r1, r5, lsl #8
    3f84:	05040300 	streq	r0, [r4, #-768]	; 0x300
    3f88:	0000015b 	andeq	r0, r0, fp, asr r1
    3f8c:	56050803 	strpl	r0, [r5], -r3, lsl #16
    3f90:	03000001 	movweq	r0, #1
    3f94:	00e30801 	rsceq	r0, r3, r1, lsl #16
    3f98:	02030000 	andeq	r0, r3, #0
    3f9c:	0000f107 	andeq	pc, r0, r7, lsl #2
    3fa0:	07040300 	streq	r0, [r4, -r0, lsl #6]
    3fa4:	00000132 	andeq	r0, r0, r2, lsr r1
    3fa8:	2d070803 	stccs	8, cr0, [r7, #-12]
    3fac:	05000001 	streq	r0, [r0, #-1]
    3fb0:	000009c1 	andeq	r0, r0, r1, asr #19
    3fb4:	00250702 	eoreq	r0, r5, r2, lsl #14
    3fb8:	ab050000 	blge	143fc0 <__bss_end__+0x139408>
    3fbc:	03000009 	movweq	r0, #9
    3fc0:	0000462c 	andeq	r4, r0, ip, lsr #12
    3fc4:	0a870500 	beq	fe1c53cc <__bss_end__+0xfe1ba814>
    3fc8:	72030000 	andvc	r0, r3, #0
    3fcc:	00000046 	andeq	r0, r0, r6, asr #32
    3fd0:	00094f06 	andeq	r4, r9, r6, lsl #30
    3fd4:	01650400 	cmneq	r5, r0, lsl #8
    3fd8:	0000002c 	andeq	r0, r0, ip, lsr #32
    3fdc:	a6030407 	strge	r0, [r3], -r7, lsl #8
    3fe0:	000000bc 	strheq	r0, [r0], -ip
    3fe4:	00093a08 	andeq	r3, r9, r8, lsl #20
    3fe8:	91a80300 			; <UNDEFINED> instruction: 0x91a80300
    3fec:	08000000 	stmdaeq	r0, {}	; <UNPREDICTABLE>
    3ff0:	000008d6 	ldrdeq	r0, [r0], -r6
    3ff4:	00bca903 	adcseq	sl, ip, r3, lsl #18
    3ff8:	09000000 	stmdbeq	r0, {}	; <UNPREDICTABLE>
    3ffc:	00000054 	andeq	r0, r0, r4, asr r0
    4000:	000000cc 	andeq	r0, r0, ip, asr #1
    4004:	0000cc0a 	andeq	ip, r0, sl, lsl #24
    4008:	03000300 	movweq	r0, #768	; 0x300
    400c:	014d0704 	cmpeq	sp, r4, lsl #14
    4010:	080b0000 	stmdaeq	fp, {}	; <UNPREDICTABLE>
    4014:	00f4a303 	rscseq	sl, r4, r3, lsl #6
    4018:	6c0c0000 	stcvs	0, cr0, [ip], {-0}
    401c:	0300000a 	movweq	r0, #10
    4020:	000025a5 	andeq	r2, r0, r5, lsr #11
    4024:	740c0000 	strvc	r0, [ip], #-0
    4028:	0300000a 	movweq	r0, #10
    402c:	00009daa 	andeq	r9, r0, sl, lsr #27
    4030:	05000400 	streq	r0, [r0, #-1024]	; 0x400
    4034:	000009ff 	strdeq	r0, [r0], -pc	; <UNPREDICTABLE>
    4038:	00d3ab03 	sbcseq	sl, r3, r3, lsl #22
    403c:	9f050000 	svcls	0x00050000
    4040:	03000008 	movweq	r0, #8
    4044:	000070af 	andeq	r7, r0, pc, lsr #1
    4048:	0e040d00 	cdpeq	13, 0, cr0, cr4, cr0, {0}
    404c:	00011204 	andeq	r1, r1, r4, lsl #4
    4050:	08010300 	stmdaeq	r1, {r8, r9}
    4054:	000000ec 	andeq	r0, r0, ip, ror #1
    4058:	00011204 	andeq	r1, r1, r4, lsl #4
    405c:	0b290500 	bleq	a45464 <__bss_end__+0xa3a8ac>
    4060:	16050000 	strne	r0, [r5], -r0
    4064:	00000062 	andeq	r0, r0, r2, rrx
    4068:	0008b00f 	andeq	fp, r8, pc
    406c:	2d051800 	stccs	8, cr1, [r5, #-0]
    4070:	0000017c 	andeq	r0, r0, ip, ror r1
    4074:	000a200c 	andeq	r2, sl, ip
    4078:	7c2f0500 	cfstr32vc	mvfx0, [pc], #-0	; 4080 <__code_start__-0x3f80>
    407c:	00000001 	andeq	r0, r0, r1
    4080:	006b5f10 	rsbeq	r5, fp, r0, lsl pc
    4084:	00253005 	eoreq	r3, r5, r5
    4088:	0c040000 	stceq	0, cr0, [r4], {-0}
    408c:	00000a57 	andeq	r0, r0, r7, asr sl
    4090:	00253005 	eoreq	r3, r5, r5
    4094:	0c080000 	stceq	0, cr0, [r8], {-0}
    4098:	0000088b 	andeq	r0, r0, fp, lsl #17
    409c:	00253005 	eoreq	r3, r5, r5
    40a0:	0c0c0000 	stceq	0, cr0, [ip], {-0}
    40a4:	00000b70 	andeq	r0, r0, r0, ror fp
    40a8:	00253005 	eoreq	r3, r5, r5
    40ac:	10100000 	andsne	r0, r0, r0
    40b0:	0500785f 	streq	r7, [r0, #-2143]	; 0x85f
    40b4:	00018231 	andeq	r8, r1, r1, lsr r2
    40b8:	0e001400 	cfcpyseq	mvf1, mvf0
    40bc:	00012904 	andeq	r2, r1, r4, lsl #18
    40c0:	011e0900 	tsteq	lr, r0, lsl #18
    40c4:	01920000 	orrseq	r0, r2, r0
    40c8:	cc0a0000 	stcgt	0, cr0, [sl], {-0}
    40cc:	00000000 	andeq	r0, r0, r0
    40d0:	08d10f00 	ldmeq	r1, {r8, r9, sl, fp}^
    40d4:	05240000 	streq	r0, [r4, #-0]!
    40d8:	00020b35 	andeq	r0, r2, r5, lsr fp
    40dc:	07890c00 	streq	r0, [r9, r0, lsl #24]
    40e0:	37050000 	strcc	r0, [r5, -r0]
    40e4:	00000025 	andeq	r0, r0, r5, lsr #32
    40e8:	0a8f0c00 	beq	fe3c70f0 <__bss_end__+0xfe3bc538>
    40ec:	38050000 	stmdacc	r5, {}	; <UNPREDICTABLE>
    40f0:	00000025 	andeq	r0, r0, r5, lsr #32
    40f4:	07b70c04 	ldreq	r0, [r7, r4, lsl #24]!
    40f8:	39050000 	stmdbcc	r5, {}	; <UNPREDICTABLE>
    40fc:	00000025 	andeq	r0, r0, r5, lsr #32
    4100:	0c600c08 	stcleq	12, cr0, [r0], #-32	; 0xffffffe0
    4104:	3a050000 	bcc	14410c <__bss_end__+0x139554>
    4108:	00000025 	andeq	r0, r0, r5, lsr #32
    410c:	098f0c0c 	stmibeq	pc, {r2, r3, sl, fp}	; <UNPREDICTABLE>
    4110:	3b050000 	blcc	144118 <__bss_end__+0x139560>
    4114:	00000025 	andeq	r0, r0, r5, lsr #32
    4118:	09640c10 	stmdbeq	r4!, {r4, sl, fp}^
    411c:	3c050000 	stccc	0, cr0, [r5], {-0}
    4120:	00000025 	andeq	r0, r0, r5, lsr #32
    4124:	0b750c14 	bleq	1d4717c <__bss_end__+0x1d3c5c4>
    4128:	3d050000 	stccc	0, cr0, [r5, #-0]
    412c:	00000025 	andeq	r0, r0, r5, lsr #32
    4130:	09e10c18 	stmibeq	r1!, {r3, r4, sl, fp}^
    4134:	3e050000 	cdpcc	0, 0, cr0, cr5, cr0, {0}
    4138:	00000025 	andeq	r0, r0, r5, lsr #32
    413c:	0c270c1c 	stceq	12, cr0, [r7], #-112	; 0xffffff90
    4140:	3f050000 	svccc	0x00050000
    4144:	00000025 	andeq	r0, r0, r5, lsr #32
    4148:	c6110020 	ldrgt	r0, [r1], -r0, lsr #32
    414c:	08000007 	stmdaeq	r0, {r0, r1, r2}
    4150:	4b480501 	blmi	120555c <__bss_end__+0x11fa9a4>
    4154:	0c000002 	stceq	0, cr0, [r0], {2}
    4158:	00000872 	andeq	r0, r0, r2, ror r8
    415c:	024b4905 	subeq	r4, fp, #81920	; 0x14000
    4160:	0c000000 	stceq	0, cr0, [r0], {-0}
    4164:	00000704 	andeq	r0, r0, r4, lsl #14
    4168:	024b4a05 	subeq	r4, fp, #20480	; 0x5000
    416c:	12800000 	addne	r0, r0, #0
    4170:	00000b1b 	andeq	r0, r0, fp, lsl fp
    4174:	011e4c05 	tsteq	lr, r5, lsl #24
    4178:	01000000 	mrseq	r0, (UNDEF: 0)
    417c:	0007eb12 	andeq	lr, r7, r2, lsl fp
    4180:	1e4f0500 	cdpne	5, 4, cr0, cr15, cr0, {0}
    4184:	04000001 	streq	r0, [r0], #-1
    4188:	0a090001 	beq	244194 <__bss_end__+0x2395dc>
    418c:	5b000001 	blpl	4198 <__code_start__-0x3e68>
    4190:	0a000002 	beq	41a0 <__code_start__-0x3e60>
    4194:	000000cc 	andeq	r0, r0, ip, asr #1
    4198:	9811001f 	ldmdals	r1, {r0, r1, r2, r3, r4}
    419c:	90000009 	andls	r0, r0, r9
    41a0:	995b0501 	ldmdbls	fp, {r0, r8, sl}^
    41a4:	0c000002 	stceq	0, cr0, [r0], {2}
    41a8:	00000a20 	andeq	r0, r0, r0, lsr #20
    41ac:	02995c05 	addseq	r5, r9, #1280	; 0x500
    41b0:	0c000000 	stceq	0, cr0, [r0], {-0}
    41b4:	00000a38 	andeq	r0, r0, r8, lsr sl
    41b8:	00255d05 	eoreq	r5, r5, r5, lsl #26
    41bc:	0c040000 	stceq	0, cr0, [r4], {-0}
    41c0:	00000886 	andeq	r0, r0, r6, lsl #17
    41c4:	029f5f05 	addseq	r5, pc, #5, 30
    41c8:	0c080000 	stceq	0, cr0, [r8], {-0}
    41cc:	000007c6 	andeq	r0, r0, r6, asr #15
    41d0:	020b6005 	andeq	r6, fp, #5
    41d4:	00880000 	addeq	r0, r8, r0
    41d8:	025b040e 	subseq	r0, fp, #234881024	; 0xe000000
    41dc:	af090000 	svcge	0x00090000
    41e0:	af000002 	svcge	0x00000002
    41e4:	0a000002 	beq	41f4 <__code_start__-0x3e0c>
    41e8:	000000cc 	andeq	r0, r0, ip, asr #1
    41ec:	040e001f 	streq	r0, [lr], #-31
    41f0:	000002b5 			; <UNDEFINED> instruction: 0x000002b5
    41f4:	09eb0f13 	stmibeq	fp!, {r0, r1, r4, r8, r9, sl, fp}^
    41f8:	05080000 	streq	r0, [r8, #-0]
    41fc:	0002db73 	andeq	sp, r2, r3, ror fp
    4200:	07ac0c00 	streq	r0, [ip, r0, lsl #24]!
    4204:	74050000 	strvc	r0, [r5], #-0
    4208:	000002db 	ldrdeq	r0, [r0], -fp
    420c:	07100c00 	ldreq	r0, [r0, -r0, lsl #24]
    4210:	75050000 	strvc	r0, [r5, #-0]
    4214:	00000025 	andeq	r0, r0, r5, lsr #32
    4218:	040e0004 	streq	r0, [lr], #-4
    421c:	00000054 	andeq	r0, r0, r4, asr r0
    4220:	000a0a0f 	andeq	r0, sl, pc, lsl #20
    4224:	b3056800 	movwlt	r6, #22528	; 0x5800
    4228:	0000040b 	andeq	r0, r0, fp, lsl #8
    422c:	00705f10 	rsbseq	r5, r0, r0, lsl pc
    4230:	02dbb405 	sbcseq	fp, fp, #83886080	; 0x5000000
    4234:	10000000 	andne	r0, r0, r0
    4238:	0500725f 	streq	r7, [r0, #-607]	; 0x25f
    423c:	000025b5 			; <UNDEFINED> instruction: 0x000025b5
    4240:	5f100400 	svcpl	0x00100400
    4244:	b6050077 			; <UNDEFINED> instruction: 0xb6050077
    4248:	00000025 	andeq	r0, r0, r5, lsr #32
    424c:	07e40c08 	strbeq	r0, [r4, r8, lsl #24]!
    4250:	b7050000 	strlt	r0, [r5, -r0]
    4254:	0000003f 	andeq	r0, r0, pc, lsr r0
    4258:	08f70c0c 	ldmeq	r7!, {r2, r3, sl, fp}^
    425c:	b8050000 	stmdalt	r5, {}	; <UNPREDICTABLE>
    4260:	0000003f 	andeq	r0, r0, pc, lsr r0
    4264:	625f100e 	subsvs	r1, pc, #14
    4268:	b9050066 	stmdblt	r5, {r1, r2, r5, r6}
    426c:	000002b6 			; <UNDEFINED> instruction: 0x000002b6
    4270:	07530c10 	smmlaeq	r3, r0, ip, r0
    4274:	ba050000 	blt	14427c <__bss_end__+0x1396c4>
    4278:	00000025 	andeq	r0, r0, r5, lsr #32
    427c:	07d40c18 	bfieq	r0, r8, (invalid: 24:20)
    4280:	c1050000 	mrsgt	r0, (UNDEF: 5)
    4284:	0000010a 	andeq	r0, r0, sl, lsl #2
    4288:	0c870c1c 	stceq	12, cr0, [r7], {28}
    428c:	c3050000 	movwgt	r0, #20480	; 0x5000
    4290:	00000566 	andeq	r0, r0, r6, ror #10
    4294:	0ca10c20 	stceq	12, cr0, [r1], #128	; 0x80
    4298:	c5050000 	strgt	r0, [r5, #-0]
    429c:	00000590 	muleq	r0, r0, r5
    42a0:	0a7c0c24 	beq	1f07338 <__bss_end__+0x1efc780>
    42a4:	c8050000 	stmdagt	r5, {}	; <UNPREDICTABLE>
    42a8:	000005b4 			; <UNDEFINED> instruction: 0x000005b4
    42ac:	0c410c28 	mcrreq	12, 2, r0, r1, cr8
    42b0:	c9050000 	stmdbgt	r5, {}	; <UNPREDICTABLE>
    42b4:	000005ce 	andeq	r0, r0, lr, asr #11
    42b8:	755f102c 	ldrbvc	r1, [pc, #-44]	; 4294 <__code_start__-0x3d6c>
    42bc:	cc050062 	stcgt	0, cr0, [r5], {98}	; 0x62
    42c0:	000002b6 			; <UNDEFINED> instruction: 0x000002b6
    42c4:	755f1030 	ldrbvc	r1, [pc, #-48]	; 429c <__code_start__-0x3d64>
    42c8:	cd050070 	stcgt	0, cr0, [r5, #-448]	; 0xfffffe40
    42cc:	000002db 	ldrdeq	r0, [r0], -fp
    42d0:	755f1038 	ldrbvc	r1, [pc, #-56]	; 42a0 <__code_start__-0x3d60>
    42d4:	ce050072 	mcrgt	0, 0, r0, cr5, cr2, {3}
    42d8:	00000025 	andeq	r0, r0, r5, lsr #32
    42dc:	07970c3c 			; <UNDEFINED> instruction: 0x07970c3c
    42e0:	d1050000 	mrsle	r0, (UNDEF: 5)
    42e4:	000005d4 	ldrdeq	r0, [r0], -r4
    42e8:	0bec0c40 	bleq	ffb073f0 <__bss_end__+0xffafc838>
    42ec:	d2050000 	andle	r0, r5, #0
    42f0:	000005e4 	andeq	r0, r0, r4, ror #11
    42f4:	6c5f1043 	mrrcvs	0, 4, r1, pc, cr3	; <UNPREDICTABLE>
    42f8:	d5050062 	strle	r0, [r5, #-98]	; 0x62
    42fc:	000002b6 			; <UNDEFINED> instruction: 0x000002b6
    4300:	07fa0c44 	ldrbeq	r0, [sl, r4, asr #24]!
    4304:	d8050000 	stmdale	r5, {}	; <UNPREDICTABLE>
    4308:	00000025 	andeq	r0, r0, r5, lsr #32
    430c:	096e0c4c 	stmdbeq	lr!, {r2, r3, r6, sl, fp}^
    4310:	d9050000 	stmdble	r5, {}	; <UNPREDICTABLE>
    4314:	0000007b 	andeq	r0, r0, fp, ror r0
    4318:	0bd70c50 	bleq	ff5c7460 <__bss_end__+0xff5bc8a8>
    431c:	dc050000 	stcle	0, cr0, [r5], {-0}
    4320:	00000429 	andeq	r0, r0, r9, lsr #8
    4324:	09560c54 	ldmdbeq	r6, {r2, r4, r6, sl, fp}^
    4328:	e0050000 	and	r0, r5, r0
    432c:	000000ff 	strdeq	r0, [r0], -pc	; <UNPREDICTABLE>
    4330:	0a120c58 	beq	487498 <__bss_end__+0x47c8e0>
    4334:	e2050000 	and	r0, r5, #0
    4338:	000000f4 	strdeq	r0, [r0], -r4
    433c:	095c0c5c 	ldmdbeq	ip, {r2, r3, r4, r6, sl, fp}^
    4340:	e3050000 	movw	r0, #20480	; 0x5000
    4344:	00000025 	andeq	r0, r0, r5, lsr #32
    4348:	25140064 	ldrcs	r0, [r4, #-100]	; 0x64
    434c:	29000000 	stmdbcs	r0, {}	; <UNPREDICTABLE>
    4350:	15000004 	strne	r0, [r0, #-4]
    4354:	00000429 	andeq	r0, r0, r9, lsr #8
    4358:	00010a15 	andeq	r0, r1, r5, lsl sl
    435c:	010c1500 	tsteq	ip, r0, lsl #10
    4360:	25150000 	ldrcs	r0, [r5, #-0]
    4364:	00000000 	andeq	r0, r0, r0
    4368:	0434040e 	ldrteq	r0, [r4], #-1038	; 0x40e
    436c:	29040000 	stmdbcs	r4, {}	; <UNPREDICTABLE>
    4370:	16000004 	strne	r0, [r0], -r4
    4374:	00000a5f 	andeq	r0, r0, pc, asr sl
    4378:	38050428 	stmdacc	r5, {r3, r5, sl}
    437c:	00056602 	andeq	r6, r5, r2, lsl #12
    4380:	09da1700 	ldmibeq	sl, {r8, r9, sl, ip}^
    4384:	3a050000 	bcc	14438c <__bss_end__+0x1397d4>
    4388:	00002502 	andeq	r2, r0, r2, lsl #10
    438c:	f3170000 	vhadd.u16	d0, d7, d0
    4390:	05000007 	streq	r0, [r0, #-7]
    4394:	063b023f 			; <UNDEFINED> instruction: 0x063b023f
    4398:	17040000 	strne	r0, [r4, -r0]
    439c:	000008e7 	andeq	r0, r0, r7, ror #17
    43a0:	3b023f05 	blcc	93fbc <__bss_end__+0x89404>
    43a4:	08000006 	stmdaeq	r0, {r1, r2}
    43a8:	0008a817 	andeq	sl, r8, r7, lsl r8
    43ac:	023f0500 	eorseq	r0, pc, #0, 10
    43b0:	0000063b 	andeq	r0, r0, fp, lsr r6
    43b4:	0a33170c 	beq	cc9fec <__bss_end__+0xcbf434>
    43b8:	41050000 	mrsmi	r0, (UNDEF: 5)
    43bc:	00002502 	andeq	r2, r0, r2, lsl #10
    43c0:	1e171000 	cdpne	0, 1, cr1, cr7, cr0, {0}
    43c4:	05000007 	streq	r0, [r0, #-7]
    43c8:	081d0242 	ldmdaeq	sp, {r1, r6, r9}
    43cc:	17140000 	ldrne	r0, [r4, -r0]
    43d0:	00000b51 	andeq	r0, r0, r1, asr fp
    43d4:	25024405 	strcs	r4, [r2, #-1029]	; 0x405
    43d8:	30000000 	andcc	r0, r0, r0
    43dc:	000a3d17 	andeq	r3, sl, r7, lsl sp
    43e0:	02450500 	subeq	r0, r5, #0, 10
    43e4:	0000058a 	andeq	r0, r0, sl, lsl #11
    43e8:	09a01734 	stmibeq	r0!, {r2, r4, r5, r8, r9, sl, ip}
    43ec:	47050000 	strmi	r0, [r5, -r0]
    43f0:	00002502 	andeq	r2, r0, r2, lsl #10
    43f4:	4d173800 	ldcmi	8, cr3, [r7, #-0]
    43f8:	0500000a 	streq	r0, [r0, #-10]
    43fc:	08380249 	ldmdaeq	r8!, {r0, r3, r6, r9}
    4400:	173c0000 	ldrne	r0, [ip, -r0]!
    4404:	00000932 	andeq	r0, r0, r2, lsr r9
    4408:	7c024c05 	stcvc	12, cr4, [r2], {5}
    440c:	40000001 	andmi	r0, r0, r1
    4410:	0008c717 	andeq	ip, r8, r7, lsl r7
    4414:	024d0500 	subeq	r0, sp, #0, 10
    4418:	00000025 	andeq	r0, r0, r5, lsr #32
    441c:	0c5b1744 	mrrceq	7, 4, r1, fp, cr4
    4420:	4e050000 	cdpmi	0, 0, cr0, cr5, cr0, {0}
    4424:	00017c02 	andeq	r7, r1, r2, lsl #24
    4428:	b7174800 	ldrlt	r4, [r7, -r0, lsl #16]
    442c:	05000009 	streq	r0, [r0, #-9]
    4430:	083e024f 	ldmdaeq	lr!, {r0, r1, r2, r3, r6, r9}
    4434:	174c0000 	strbne	r0, [ip, -r0]
    4438:	000008ef 	andeq	r0, r0, pc, ror #17
    443c:	25025205 	strcs	r5, [r2, #-517]	; 0x205
    4440:	50000000 	andpl	r0, r0, r0
    4444:	00081617 	andeq	r1, r8, r7, lsl r6
    4448:	02530500 	subseq	r0, r3, #0, 10
    444c:	0000010c 	andeq	r0, r0, ip, lsl #2
    4450:	09d31754 	ldmibeq	r3, {r2, r4, r6, r8, r9, sl, ip}^
    4454:	76050000 	strvc	r0, [r5], -r0
    4458:	0007fb02 	andeq	pc, r7, r2, lsl #22
    445c:	98185800 	ldmdals	r8, {fp, ip, lr}
    4460:	05000009 	streq	r0, [r0, #-9]
    4464:	0299027a 	addseq	r0, r9, #-1610612729	; 0xa0000007
    4468:	01480000 	mrseq	r0, (UNDEF: 72)
    446c:	00090418 	andeq	r0, r9, r8, lsl r4
    4470:	027b0500 	rsbseq	r0, fp, #0, 10
    4474:	0000025b 	andeq	r0, r0, fp, asr r2
    4478:	bd18014c 	ldflts	f0, [r8, #-304]	; 0xfffffed0
    447c:	0500000b 	streq	r0, [r0, #-11]
    4480:	084f027f 	stmdaeq	pc, {r0, r1, r2, r3, r4, r5, r6, r9}^	; <UNPREDICTABLE>
    4484:	02dc0000 	sbcseq	r0, ip, #0
    4488:	0007dc18 	andeq	sp, r7, r8, lsl ip
    448c:	02840500 	addeq	r0, r4, #0, 10
    4490:	00000600 	andeq	r0, r0, r0, lsl #12
    4494:	c11802e0 	tstgt	r8, r0, ror #5
    4498:	05000007 	streq	r0, [r0, #-7]
    449c:	085b0285 	ldmdaeq	fp, {r0, r2, r7, r9}^
    44a0:	02ec0000 	rsceq	r0, ip, #0
    44a4:	0b040e00 	bleq	107cac <__bss_end__+0xfd0f4>
    44a8:	14000004 	strne	r0, [r0], #-4
    44ac:	00000025 	andeq	r0, r0, r5, lsr #32
    44b0:	0000058a 	andeq	r0, r0, sl, lsl #11
    44b4:	00042915 	andeq	r2, r4, r5, lsl r9
    44b8:	010a1500 	tsteq	sl, r0, lsl #10
    44bc:	8a150000 	bhi	5444c4 <__bss_end__+0x53990c>
    44c0:	15000005 	strne	r0, [r0, #-5]
    44c4:	00000025 	andeq	r0, r0, r5, lsr #32
    44c8:	19040e00 	stmdbne	r4, {r9, sl, fp}
    44cc:	0e000001 	cdpeq	0, 0, cr0, cr0, cr1, {0}
    44d0:	00056c04 	andeq	r6, r5, r4, lsl #24
    44d4:	00861400 	addeq	r1, r6, r0, lsl #8
    44d8:	05b40000 	ldreq	r0, [r4, #0]!
    44dc:	29150000 	ldmdbcs	r5, {}	; <UNPREDICTABLE>
    44e0:	15000004 	strne	r0, [r0, #-4]
    44e4:	0000010a 	andeq	r0, r0, sl, lsl #2
    44e8:	00008615 	andeq	r8, r0, r5, lsl r6
    44ec:	00251500 	eoreq	r1, r5, r0, lsl #10
    44f0:	0e000000 	cdpeq	0, 0, cr0, cr0, cr0, {0}
    44f4:	00059604 	andeq	r9, r5, r4, lsl #12
    44f8:	00251400 	eoreq	r1, r5, r0, lsl #8
    44fc:	05ce0000 	strbeq	r0, [lr]
    4500:	29150000 	ldmdbcs	r5, {}	; <UNPREDICTABLE>
    4504:	15000004 	strne	r0, [r0, #-4]
    4508:	0000010a 	andeq	r0, r0, sl, lsl #2
    450c:	ba040e00 	blt	107d14 <__bss_end__+0xfd15c>
    4510:	09000005 	stmdbeq	r0, {r0, r2}
    4514:	00000054 	andeq	r0, r0, r4, asr r0
    4518:	000005e4 	andeq	r0, r0, r4, ror #11
    451c:	0000cc0a 	andeq	ip, r0, sl, lsl #24
    4520:	09000200 	stmdbeq	r0, {r9}
    4524:	00000054 	andeq	r0, r0, r4, asr r0
    4528:	000005f4 	strdeq	r0, [r0], -r4
    452c:	0000cc0a 	andeq	ip, r0, sl, lsl #24
    4530:	06000000 	streq	r0, [r0], -r0
    4534:	000009f8 	strdeq	r0, [r0], -r8
    4538:	e1011d05 	tst	r1, r5, lsl #26
    453c:	19000002 	stmdbne	r0, {r1}
    4540:	00000b7f 	andeq	r0, r0, pc, ror fp
    4544:	0121050c 	teqeq	r1, ip, lsl #10
    4548:	00000635 	andeq	r0, r0, r5, lsr r6
    454c:	000a2017 	andeq	r2, sl, r7, lsl r0
    4550:	01230500 	teqeq	r3, r0, lsl #10
    4554:	00000635 	andeq	r0, r0, r5, lsr r6
    4558:	08fd1700 	ldmeq	sp!, {r8, r9, sl, ip}^
    455c:	24050000 	strcs	r0, [r5], #-0
    4560:	00002501 	andeq	r2, r0, r1, lsl #10
    4564:	f2170400 	vshl.s16	d0, d0, d7
    4568:	05000009 	streq	r0, [r0, #-9]
    456c:	063b0125 	ldrteq	r0, [fp], -r5, lsr #2
    4570:	00080000 	andeq	r0, r8, r0
    4574:	0600040e 	streq	r0, [r0], -lr, lsl #8
    4578:	040e0000 	streq	r0, [lr], #-0
    457c:	000005f4 	strdeq	r0, [r0], -r4
    4580:	00071619 	andeq	r1, r7, r9, lsl r6
    4584:	3d050e00 	stccc	14, cr0, [r5, #-0]
    4588:	00067601 	andeq	r7, r6, r1, lsl #12
    458c:	0a661700 	beq	198a194 <__bss_end__+0x197f5dc>
    4590:	3e050000 	cdpcc	0, 0, cr0, cr5, cr0, {0}
    4594:	00067601 	andeq	r7, r6, r1, lsl #12
    4598:	a0170000 	andsge	r0, r7, r0
    459c:	0500000a 	streq	r0, [r0, #-10]
    45a0:	0676013f 			; <UNDEFINED> instruction: 0x0676013f
    45a4:	17060000 	strne	r0, [r6, -r0]
    45a8:	00000b24 	andeq	r0, r0, r4, lsr #22
    45ac:	5b014005 	blpl	545c8 <__bss_end__+0x49a10>
    45b0:	0c000000 	stceq	0, cr0, [r0], {-0}
    45b4:	005b0900 	subseq	r0, fp, r0, lsl #18
    45b8:	06860000 	streq	r0, [r6], r0
    45bc:	cc0a0000 	stcgt	0, cr0, [sl], {-0}
    45c0:	02000000 	andeq	r0, r0, #0
    45c4:	05d01a00 	ldrbeq	r1, [r0, #2560]	; 0xa00
    45c8:	07870257 			; <UNDEFINED> instruction: 0x07870257
    45cc:	63170000 	tstvs	r7, #0
    45d0:	0500000b 	streq	r0, [r0, #-11]
    45d4:	002c0259 	eoreq	r0, ip, r9, asr r2
    45d8:	17000000 	strne	r0, [r0, -r0]
    45dc:	00000b0e 	andeq	r0, r0, lr, lsl #22
    45e0:	0c025a05 	stceq	10, cr5, [r2], {5}
    45e4:	04000001 	streq	r0, [r0], #-1
    45e8:	00091917 	andeq	r1, r9, r7, lsl r9
    45ec:	025b0500 	subseq	r0, fp, #0, 10
    45f0:	00000787 	andeq	r0, r0, r7, lsl #15
    45f4:	0c321708 	ldceq	7, cr1, [r2], #-32	; 0xffffffe0
    45f8:	5c050000 	stcpl	0, cr0, [r5], {-0}
    45fc:	00019202 	andeq	r9, r1, r2, lsl #4
    4600:	b8172400 	ldmdalt	r7, {sl, sp}
    4604:	05000008 	streq	r0, [r0, #-8]
    4608:	0025025d 	eoreq	r0, r5, sp, asr r2
    460c:	17480000 	strbne	r0, [r8, -r0]
    4610:	00000a1b 	andeq	r0, r0, fp, lsl sl
    4614:	69025e05 	stmdbvs	r2, {r0, r2, r9, sl, fp, ip, lr}
    4618:	50000000 	andpl	r0, r0, r0
    461c:	000c4817 	andeq	r4, ip, r7, lsl r8
    4620:	025f0500 	subseq	r0, pc, #0, 10
    4624:	00000641 	andeq	r0, r0, r1, asr #12
    4628:	0a261758 	beq	98a390 <__bss_end__+0x97f7d8>
    462c:	60050000 	andvs	r0, r5, r0
    4630:	0000f402 	andeq	pc, r0, r2, lsl #8
    4634:	4d176800 	ldcmi	8, cr6, [r7, #-0]
    4638:	0500000c 	streq	r0, [r0, #-12]
    463c:	00f40261 	rscseq	r0, r4, r1, ror #4
    4640:	17700000 	ldrbne	r0, [r0, -r0]!
    4644:	0000077b 	andeq	r0, r0, fp, ror r7
    4648:	f4026205 	vst1.8	{d6-d9}, [r2], r5
    464c:	78000000 	stmdavc	r0, {}	; <UNPREDICTABLE>
    4650:	000b9f17 	andeq	r9, fp, r7, lsl pc
    4654:	02630500 	rsbeq	r0, r3, #0, 10
    4658:	00000797 	muleq	r0, r7, r7
    465c:	090d1780 	stmdbeq	sp, {r7, r8, r9, sl, ip}
    4660:	64050000 	strvs	r0, [r5], #-0
    4664:	0007a702 	andeq	sl, r7, r2, lsl #14
    4668:	31178800 	tstcc	r7, r0, lsl #16
    466c:	0500000b 	streq	r0, [r0, #-11]
    4670:	00250265 	eoreq	r0, r5, r5, ror #4
    4674:	17a00000 	strne	r0, [r0, r0]!
    4678:	00000864 	andeq	r0, r0, r4, ror #16
    467c:	f4026605 	vst1.8	{d6-d8}, [r2], r5
    4680:	a4000000 	strge	r0, [r0], #-0
    4684:	00076c17 	andeq	r6, r7, r7, lsl ip
    4688:	02670500 	rsbeq	r0, r7, #0, 10
    468c:	000000f4 	strdeq	r0, [r0], -r4
    4690:	085317ac 	ldmdaeq	r3, {r2, r3, r5, r7, r8, r9, sl, ip}^
    4694:	68050000 	stmdavs	r5, {}	; <UNPREDICTABLE>
    4698:	0000f402 	andeq	pc, r0, r2, lsl #8
    469c:	3317b400 	tstcc	r7, #0, 8
    46a0:	05000007 	streq	r0, [r0, #-7]
    46a4:	00f40269 	rscseq	r0, r4, r9, ror #4
    46a8:	17bc0000 	ldrne	r0, [ip, r0]!
    46ac:	00000742 	andeq	r0, r0, r2, asr #14
    46b0:	f4026a05 	vst1.8	{d6-d7}, [r2], r5
    46b4:	c4000000 	strgt	r0, [r0], #-0
    46b8:	0009d817 	andeq	sp, r9, r7, lsl r8
    46bc:	026b0500 	rsbeq	r0, fp, #0, 10
    46c0:	00000025 	andeq	r0, r0, r5, lsr #32
    46c4:	120900cc 	andne	r0, r9, #204	; 0xcc
    46c8:	97000001 	strls	r0, [r0, -r1]
    46cc:	0a000007 	beq	46f0 <__code_start__-0x3910>
    46d0:	000000cc 	andeq	r0, r0, ip, asr #1
    46d4:	12090019 	andne	r0, r9, #25
    46d8:	a7000001 	strge	r0, [r0, -r1]
    46dc:	0a000007 	beq	4700 <__code_start__-0x3900>
    46e0:	000000cc 	andeq	r0, r0, ip, asr #1
    46e4:	12090007 	andne	r0, r9, #7
    46e8:	b7000001 	strlt	r0, [r0, -r1]
    46ec:	0a000007 	beq	4710 <__code_start__-0x38f0>
    46f0:	000000cc 	andeq	r0, r0, ip, asr #1
    46f4:	f01a0017 			; <UNDEFINED> instruction: 0xf01a0017
    46f8:	db027005 	blle	a0714 <__bss_end__+0x95b5c>
    46fc:	17000007 	strne	r0, [r0, -r7]
    4700:	00000988 	andeq	r0, r0, r8, lsl #19
    4704:	db027305 	blle	a1320 <__bss_end__+0x96768>
    4708:	00000007 	andeq	r0, r0, r7
    470c:	000b9617 	andeq	r9, fp, r7, lsl r6
    4710:	02740500 	rsbseq	r0, r4, #0, 10
    4714:	000007eb 	andeq	r0, r0, fp, ror #15
    4718:	db090078 	blle	244900 <__bss_end__+0x239d48>
    471c:	eb000002 	bl	472c <__code_start__-0x38d4>
    4720:	0a000007 	beq	4744 <__code_start__-0x38bc>
    4724:	000000cc 	andeq	r0, r0, ip, asr #1
    4728:	2c09001d 	stccs	0, cr0, [r9], {29}
    472c:	fb000000 	blx	4736 <__code_start__-0x38ca>
    4730:	0a000007 	beq	4754 <__code_start__-0x38ac>
    4734:	000000cc 	andeq	r0, r0, ip, asr #1
    4738:	f01b001d 			; <UNDEFINED> instruction: 0xf01b001d
    473c:	1d025505 	cfstr32ne	mvfx5, [r2, #-20]	; 0xffffffec
    4740:	1c000008 	stcne	0, cr0, [r0], {8}
    4744:	00000a5f 	andeq	r0, r0, pc, asr sl
    4748:	86026c05 	strhi	r6, [r2], -r5, lsl #24
    474c:	1c000006 	stcne	0, cr0, [r0], {6}
    4750:	00000bf2 	strdeq	r0, [r0], -r2
    4754:	b7027505 	strlt	r7, [r2, -r5, lsl #10]
    4758:	00000007 	andeq	r0, r0, r7
    475c:	00011209 	andeq	r1, r1, r9, lsl #4
    4760:	00082d00 	andeq	r2, r8, r0, lsl #26
    4764:	00cc0a00 	sbceq	r0, ip, r0, lsl #20
    4768:	00180000 	andseq	r0, r8, r0
    476c:	0008381d 	andeq	r3, r8, sp, lsl r8
    4770:	04291500 	strteq	r1, [r9], #-1280	; 0x500
    4774:	0e000000 	cdpeq	0, 0, cr0, cr0, cr0, {0}
    4778:	00082d04 	andeq	r2, r8, r4, lsl #26
    477c:	7c040e00 	stcvc	14, cr0, [r4], {-0}
    4780:	1d000001 	stcne	0, cr0, [r0, #-4]
    4784:	0000084f 	andeq	r0, r0, pc, asr #16
    4788:	00002515 	andeq	r2, r0, r5, lsl r5
    478c:	040e0000 	streq	r0, [lr], #-0
    4790:	00000855 	andeq	r0, r0, r5, asr r8
    4794:	0844040e 	stmdaeq	r4, {r1, r2, r3, sl}^
    4798:	f4090000 	vst4.8	{d0-d3}, [r9], r0
    479c:	6b000005 	blvs	47b8 <__code_start__-0x3848>
    47a0:	0a000008 	beq	47c8 <__code_start__-0x3838>
    47a4:	000000cc 	andeq	r0, r0, ip, asr #1
    47a8:	451e0002 	ldrmi	r0, [lr, #-2]
    47ac:	0500000b 	streq	r0, [r0, #-11]
    47b0:	042902fd 	strteq	r0, [r9], #-765	; 0x2fd
    47b4:	3e1e0000 	cdpcc	0, 1, cr0, cr14, cr0, {0}
    47b8:	0500000b 	streq	r0, [r0, #-11]
    47bc:	042f02fe 	strteq	r0, [pc], #-766	; 47c4 <__code_start__-0x383c>
    47c0:	25140000 	ldrcs	r0, [r4, #-0]
    47c4:	92000000 	andls	r0, r0, #0
    47c8:	15000008 	strne	r0, [r0, #-8]
    47cc:	00000025 	andeq	r0, r0, r5, lsr #32
    47d0:	05481f00 	strbeq	r1, [r8, #-3840]	; 0xf00
    47d4:	1d060000 	stcne	0, cr0, [r6, #-0]
    47d8:	0000089d 	muleq	r0, sp, r8
    47dc:	0883040e 	stmeq	r3, {r1, r2, r3, sl}
    47e0:	25140000 	ldrcs	r0, [r4, #-0]
    47e4:	b2000000 	andlt	r0, r0, #0
    47e8:	15000008 	strne	r0, [r0, #-8]
    47ec:	0000058a 	andeq	r0, r0, sl, lsl #11
    47f0:	05851f00 	streq	r1, [r5, #3840]	; 0xf00
    47f4:	22060000 	andcs	r0, r6, #0
    47f8:	000008bd 			; <UNDEFINED> instruction: 0x000008bd
    47fc:	08a3040e 	stmiaeq	r3!, {r1, r2, r3, sl}
    4800:	01200000 	teqeq	r0, r0
    4804:	00000054 	andeq	r0, r0, r4, asr r0
    4808:	09000c07 	stmdbeq	r0, {r0, r1, r2, sl, fp}
    480c:	5c210000 	stcpl	0, cr0, [r1], #-0
    4810:	00000007 	andeq	r0, r0, r7
    4814:	000b8521 	andeq	r8, fp, r1, lsr #10
    4818:	dd210100 	stfles	f0, [r1, #-0]
    481c:	0400000b 	streq	r0, [r0], #-11
    4820:	00079d21 	andeq	r9, r7, r1, lsr #26
    4824:	40210500 	eormi	r0, r1, r0, lsl #10
    4828:	06000009 	streq	r0, [r0], -r9
    482c:	000bfa21 	andeq	pc, fp, r1, lsr #20
    4830:	09210700 	stmdbeq	r1!, {r8, r9, sl}
    4834:	0300000c 	movweq	r0, #12
    4838:	000c1821 	andeq	r1, ip, r1, lsr #16
    483c:	05000200 	streq	r0, [r0, #-512]	; 0x200
    4840:	00000cd7 	ldrdeq	r0, [r0], -r7
    4844:	08c31507 	stmiaeq	r3, {r0, r1, r2, r8, sl, ip}^
    4848:	a8220000 	stmdage	r2!, {}	; <UNPREDICTABLE>
    484c:	0100000c 	tsteq	r0, ip
    4850:	0000331d 	andeq	r3, r0, sp, lsl r3
    4854:	20001c00 	andcs	r1, r0, r0, lsl #24
    4858:	0ce32220 	sfmeq	f2, 2, [r3], #128	; 0x80
    485c:	1e010000 	cdpne	0, 0, cr0, cr1, cr0, {0}
    4860:	00000033 	andeq	r0, r0, r3, lsr r0
    4864:	20200028 	eorcs	r0, r0, r8, lsr #32
    4868:	000cb222 	andeq	fp, ip, r2, lsr #4
    486c:	331f0100 	tstcc	pc, #0, 2
    4870:	34000000 	strcc	r0, [r0], #-0
    4874:	23202000 	teqcs	r0, #0
    4878:	00000c83 	andeq	r0, r0, r3, lsl #25
    487c:	00255601 	eoreq	r5, r5, r1, lsl #12
    4880:	9a900000 	bls	fe404888 <__bss_end__+0xfe3f9cd0>
    4884:	00340000 	eorseq	r0, r4, r0
    4888:	9c010000 	stcls	0, cr0, [r1], {-0}
    488c:	00000998 	muleq	r0, r8, r9
    4890:	6e697024 	cdpvs	0, 6, cr7, cr9, cr4, {1}
    4894:	2c560100 	ldfcse	f0, [r6], {-0}
    4898:	39000000 	stmdbcc	r0, {}	; <UNPREDICTABLE>
    489c:	25000014 	strcs	r0, [r0, #-20]
    48a0:	00000c77 	andeq	r0, r0, r7, ror ip
    48a4:	002c5901 	eoreq	r5, ip, r1, lsl #18
    48a8:	14730000 	ldrbtne	r0, [r3], #-0
    48ac:	6f260000 	svcvs	0x00260000
    48b0:	01006666 	tsteq	r0, r6, ror #12
    48b4:	00002c5a 	andeq	r2, r0, sl, asr ip
    48b8:	0014b100 	andseq	fp, r4, r0, lsl #2
    48bc:	9aac2700 	bls	feb0e4c4 <__bss_end__+0xfeb0390c>
    48c0:	0b5d0000 	bleq	17448c8 <__bss_end__+0x1739d10>
    48c4:	01280000 	teqeq	r8, r0
    48c8:	01f30b50 	mvnseq	r0, r0, asr fp
    48cc:	23253550 	teqcs	r5, #80, 10	; 0x14000000
    48d0:	818080b4 	strhhi	r8, [r0, r4]
    48d4:	29000002 	stmdbcs	r0, {r1}
    48d8:	00000c9d 	muleq	r0, sp, ip
    48dc:	9a744f01 	bls	1d184e8 <__bss_end__+0x1d0d930>
    48e0:	001c0000 	andseq	r0, ip, r0
    48e4:	9c010000 	stcls	0, cr0, [r1], {-0}
    48e8:	000009e8 	andeq	r0, r0, r8, ror #19
    48ec:	6e697024 	cdpvs	0, 6, cr7, cr9, cr4, {1}
    48f0:	2c4f0100 	stfcse	f0, [pc], {-0}
    48f4:	c4000000 	strgt	r0, [r0], #-0
    48f8:	24000014 	strcs	r0, [r0], #-20
    48fc:	4f010076 	svcmi	0x00010076
    4900:	0000002c 	andeq	r0, r0, ip, lsr #32
    4904:	000014fe 	strdeq	r1, [r0], -lr
    4908:	009a842a 	addseq	r8, sl, sl, lsr #8
    490c:	000a2300 	andeq	r2, sl, r0, lsl #6
    4910:	0009de00 	andeq	sp, r9, r0, lsl #28
    4914:	50012800 	andpl	r2, r1, r0, lsl #16
    4918:	5001f303 	andpl	pc, r1, r3, lsl #6
    491c:	9a8c2b00 	bls	fe30f524 <__bss_end__+0xfe30496c>
    4920:	0a640000 	beq	1904928 <__bss_end__+0x18f9d70>
    4924:	29000000 	stmdbcs	r0, {}	; <UNPREDICTABLE>
    4928:	00000cbc 			; <UNDEFINED> instruction: 0x00000cbc
    492c:	9a644a01 	bls	1917138 <__bss_end__+0x190c580>
    4930:	00100000 	andseq	r0, r0, r0
    4934:	9c010000 	stcls	0, cr0, [r1], {-0}
    4938:	00000a23 	andeq	r0, r0, r3, lsr #20
    493c:	6e697024 	cdpvs	0, 6, cr7, cr9, cr4, {1}
    4940:	2c4a0100 	stfcse	f0, [sl], {-0}
    4944:	38000000 	stmdacc	r0, {}	; <UNPREDICTABLE>
    4948:	27000015 	smladcs	r0, r5, r0, r0
    494c:	00009a70 	andeq	r9, r0, r0, ror sl
    4950:	00000ae0 	andeq	r0, r0, r0, ror #21
    4954:	03500128 	cmpeq	r0, #40, 2
    4958:	285001f3 	ldmdacs	r0, {r0, r1, r4, r5, r6, r7, r8}^
    495c:	30015101 	andcc	r5, r1, r1, lsl #2
    4960:	6a290000 	bvs	a44968 <__bss_end__+0xa39db0>
    4964:	0100000c 	tsteq	r0, ip
    4968:	009a4043 	addseq	r4, sl, r3, asr #32
    496c:	00002400 	andeq	r2, r0, r0, lsl #8
    4970:	649c0100 	ldrvs	r0, [ip], #256	; 0x100
    4974:	2400000a 	strcs	r0, [r0], #-10
    4978:	006e6970 	rsbeq	r6, lr, r0, ror r9
    497c:	002c4301 	eoreq	r4, ip, r1, lsl #6
    4980:	15590000 	ldrbne	r0, [r9, #-0]
    4984:	5c270000 	stcpl	0, cr0, [r7], #-0
    4988:	6800009a 	stmdavs	r0, {r1, r3, r4, r7}
    498c:	2800000b 	stmdacs	r0, {r0, r1, r3}
    4990:	0c055001 	stceq	0, cr5, [r5], {1}
    4994:	20200028 	eorcs	r0, r0, r8, lsr #32
    4998:	05510128 	ldrbeq	r0, [r1, #-296]	; 0x128
    499c:	5001f331 	andpl	pc, r1, r1, lsr r3	; <UNPREDICTABLE>
    49a0:	29000024 	stmdbcs	r0, {r2, r5}
    49a4:	00000ccb 	andeq	r0, r0, fp, asr #25
    49a8:	9a1c3c01 	bls	7139b4 <__bss_end__+0x708dfc>
    49ac:	00240000 	eoreq	r0, r4, r0
    49b0:	9c010000 	stcls	0, cr0, [r1], {-0}
    49b4:	00000aa5 	andeq	r0, r0, r5, lsr #21
    49b8:	6e697024 	cdpvs	0, 6, cr7, cr9, cr4, {1}
    49bc:	2c3c0100 	ldfcss	f0, [ip], #-0
    49c0:	7a000000 	bvc	49c8 <__code_start__-0x3638>
    49c4:	27000015 	smladcs	r0, r5, r0, r0
    49c8:	00009a38 	andeq	r9, r0, r8, lsr sl
    49cc:	00000b68 	andeq	r0, r0, r8, ror #22
    49d0:	05500128 	ldrbeq	r0, [r0, #-296]	; 0x128
    49d4:	20001c0c 	andcs	r1, r0, ip, lsl #24
    49d8:	51012820 	tstpl	r1, r0, lsr #16
    49dc:	01f33105 	mvnseq	r3, r5, lsl #2
    49e0:	00002450 	andeq	r2, r0, r0, asr r4
    49e4:	000c8d29 	andeq	r8, ip, r9, lsr #26
    49e8:	0c370100 	ldfeqs	f0, [r7], #-0
    49ec:	1000009a 	mulne	r0, sl, r0
    49f0:	01000000 	mrseq	r0, (UNDEF: 0)
    49f4:	000ae09c 	muleq	sl, ip, r0
    49f8:	69702400 	ldmdbvs	r0!, {sl, sp}^
    49fc:	3701006e 	strcc	r0, [r1, -lr, rrx]
    4a00:	0000002c 	andeq	r0, r0, ip, lsr #32
    4a04:	0000159b 	muleq	r0, fp, r5
    4a08:	009a1827 	addseq	r1, sl, r7, lsr #16
    4a0c:	000ae000 	andeq	lr, sl, r0
    4a10:	50012800 	andpl	r2, r1, r0, lsl #16
    4a14:	5001f303 	andpl	pc, r1, r3, lsl #6
    4a18:	01510128 	cmpeq	r1, r8, lsr #2
    4a1c:	29000031 	stmdbcs	r0, {r0, r4, r5}
    4a20:	00000976 	andeq	r0, r0, r6, ror r9
    4a24:	99a42801 	stmibls	r4!, {r0, fp, sp}
    4a28:	00680000 	rsbeq	r0, r8, r0
    4a2c:	9c010000 	stcls	0, cr0, [r1], {-0}
    4a30:	00000b5d 	andeq	r0, r0, sp, asr fp
    4a34:	6e697024 	cdpvs	0, 6, cr7, cr9, cr4, {1}
    4a38:	2c280100 	stfcss	f0, [r8], #-0
    4a3c:	bc000000 	stclt	0, cr0, [r0], {-0}
    4a40:	2c000015 	stccs	0, cr0, [r0], {21}
    4a44:	00000bc2 	andeq	r0, r0, r2, asr #23
    4a48:	09002801 	stmdbeq	r0, {r0, fp, sp}
    4a4c:	15dd0000 	ldrbne	r0, [sp]
    4a50:	6f2d0000 	svcvs	0x002d0000
    4a54:	01006666 	tsteq	r0, r6, ror #12
    4a58:	00002c2d 	andeq	r2, r0, sp, lsr #24
    4a5c:	2d540100 	ldfcse	f0, [r4, #-0]
    4a60:	2f010067 	svccs	0x00010067
    4a64:	0000002c 	andeq	r0, r0, ip, lsr #32
    4a68:	76265601 	strtvc	r5, [r6], -r1, lsl #12
    4a6c:	2c310100 	ldfcss	f0, [r1], #-0
    4a70:	fe000000 	cdp2	0, 0, cr0, cr0, cr0, {0}
    4a74:	2a000015 	bcs	4ad0 <__code_start__-0x3530>
    4a78:	000099f0 	strdeq	r9, [r0], -r0
    4a7c:	00000b5d 	andeq	r0, r0, sp, asr fp
    4a80:	00000b4c 	andeq	r0, r0, ip, asr #22
    4a84:	02500128 	subseq	r0, r0, #40, 2
    4a88:	27000076 	smlsdxcs	r0, r6, r0, r0
    4a8c:	00009a04 	andeq	r9, r0, r4, lsl #20
    4a90:	00000b68 	andeq	r0, r0, r8, ror #22
    4a94:	02500128 	subseq	r0, r0, #40, 2
    4a98:	00000076 	andeq	r0, r0, r6, ror r0
    4a9c:	0006d32e 	andeq	sp, r6, lr, lsr #6
    4aa0:	0006d300 	andeq	sp, r6, r0, lsl #6
    4aa4:	2ea70600 	cdpcs	6, 10, cr0, cr7, cr0, {0}
    4aa8:	00000685 	andeq	r0, r0, r5, lsl #13
    4aac:	00000685 	andeq	r0, r0, r5, lsl #13
    4ab0:	24009b06 	strcs	r9, [r0], #-2822	; 0xb06
    4ab4:	0400000c 	streq	r0, [r0], #-12
    4ab8:	00146400 	andseq	r6, r4, r0, lsl #8
    4abc:	ac010400 	cfstrsge	mvf0, [r1], {-0}
    4ac0:	0c00000a 	stceq	0, cr0, [r0], {10}
    4ac4:	00000ced 	andeq	r0, r0, sp, ror #25
    4ac8:	0000081e 	andeq	r0, r0, lr, lsl r8
    4acc:	00009ac4 	andeq	r9, r0, r4, asr #21
    4ad0:	00000194 	muleq	r0, r4, r1
    4ad4:	0000119c 	muleq	r0, ip, r1
    4ad8:	69050402 	stmdbvs	r5, {r1, sl}
    4adc:	0300746e 	movweq	r7, #1134	; 0x46e
    4ae0:	01370704 	teqeq	r7, r4, lsl #14
    4ae4:	01030000 	mrseq	r0, (UNDEF: 3)
    4ae8:	0000e506 	andeq	lr, r0, r6, lsl #10
    4aec:	05020300 	streq	r0, [r2, #-768]	; 0x300
    4af0:	00000164 	andeq	r0, r0, r4, ror #2
    4af4:	5b050403 	blpl	145b08 <__bss_end__+0x13af50>
    4af8:	03000001 	movweq	r0, #1
    4afc:	01560508 	cmpeq	r6, r8, lsl #10
    4b00:	01030000 	mrseq	r0, (UNDEF: 3)
    4b04:	0000e308 	andeq	lr, r0, r8, lsl #6
    4b08:	07020300 	streq	r0, [r2, -r0, lsl #6]
    4b0c:	000000f1 	strdeq	r0, [r0], -r1
    4b10:	32070403 	andcc	r0, r7, #50331648	; 0x3000000
    4b14:	03000001 	movweq	r0, #1
    4b18:	012d0708 	teqeq	sp, r8, lsl #14
    4b1c:	c1040000 	mrsgt	r0, (UNDEF: 4)
    4b20:	02000009 	andeq	r0, r0, #9
    4b24:	00002507 	andeq	r2, r0, r7, lsl #10
    4b28:	09ab0400 	stmibeq	fp!, {sl}
    4b2c:	2c030000 	stccs	0, cr0, [r3], {-0}
    4b30:	00000041 	andeq	r0, r0, r1, asr #32
    4b34:	000a8704 	andeq	r8, sl, r4, lsl #14
    4b38:	41720300 	cmnmi	r2, r0, lsl #6
    4b3c:	05000000 	streq	r0, [r0, #-0]
    4b40:	0000094f 	andeq	r0, r0, pc, asr #18
    4b44:	2c016504 	cfstr32cs	mvfx6, [r1], {4}
    4b48:	06000000 	streq	r0, [r0], -r0
    4b4c:	b7a60304 	strlt	r0, [r6, r4, lsl #6]!
    4b50:	07000000 	streq	r0, [r0, -r0]
    4b54:	0000093a 	andeq	r0, r0, sl, lsr r9
    4b58:	008ca803 	addeq	sl, ip, r3, lsl #16
    4b5c:	d6070000 	strle	r0, [r7], -r0
    4b60:	03000008 	movweq	r0, #8
    4b64:	0000b7a9 	andeq	fp, r0, r9, lsr #15
    4b68:	4f080000 	svcmi	0x00080000
    4b6c:	c7000000 	strgt	r0, [r0, -r0]
    4b70:	09000000 	stmdbeq	r0, {}	; <UNPREDICTABLE>
    4b74:	000000c7 	andeq	r0, r0, r7, asr #1
    4b78:	04030003 	streq	r0, [r3], #-3
    4b7c:	00014d07 	andeq	r4, r1, r7, lsl #26
    4b80:	03080a00 	movweq	r0, #35328	; 0x8a00
    4b84:	0000efa3 	andeq	lr, r0, r3, lsr #31
    4b88:	0a6c0b00 	beq	1b07790 <__bss_end__+0x1afcbd8>
    4b8c:	a5030000 	strge	r0, [r3, #-0]
    4b90:	00000025 	andeq	r0, r0, r5, lsr #32
    4b94:	0a740b00 	beq	1d0779c <__bss_end__+0x1cfcbe4>
    4b98:	aa030000 	bge	c4ba0 <__bss_end__+0xb9fe8>
    4b9c:	00000098 	muleq	r0, r8, r0
    4ba0:	ff040004 			; <UNDEFINED> instruction: 0xff040004
    4ba4:	03000009 	movweq	r0, #9
    4ba8:	0000ceab 	andeq	ip, r0, fp, lsr #29
    4bac:	089f0400 	ldmeq	pc, {sl}	; <UNPREDICTABLE>
    4bb0:	af030000 	svcge	0x00030000
    4bb4:	0000006b 	andeq	r0, r0, fp, rrx
    4bb8:	040d040c 	streq	r0, [sp], #-1036	; 0x40c
    4bbc:	0000010d 	andeq	r0, r0, sp, lsl #2
    4bc0:	ec080103 	stfs	f0, [r8], {3}
    4bc4:	0e000000 	cdpeq	0, 0, cr0, cr0, cr0, {0}
    4bc8:	0000010d 	andeq	r0, r0, sp, lsl #2
    4bcc:	000b2904 	andeq	r2, fp, r4, lsl #18
    4bd0:	5d160500 	cfldr32pl	mvfx0, [r6, #-0]
    4bd4:	0f000000 	svceq	0x00000000
    4bd8:	000008b0 			; <UNDEFINED> instruction: 0x000008b0
    4bdc:	772d0518 			; <UNDEFINED> instruction: 0x772d0518
    4be0:	0b000001 	bleq	4bec <__code_start__-0x3414>
    4be4:	00000a20 	andeq	r0, r0, r0, lsr #20
    4be8:	01772f05 	cmneq	r7, r5, lsl #30
    4bec:	10000000 	andne	r0, r0, r0
    4bf0:	05006b5f 	streq	r6, [r0, #-2911]	; 0xb5f
    4bf4:	00002530 	andeq	r2, r0, r0, lsr r5
    4bf8:	570b0400 	strpl	r0, [fp, -r0, lsl #8]
    4bfc:	0500000a 	streq	r0, [r0, #-10]
    4c00:	00002530 	andeq	r2, r0, r0, lsr r5
    4c04:	8b0b0800 	blhi	2c6c0c <__bss_end__+0x2bc054>
    4c08:	05000008 	streq	r0, [r0, #-8]
    4c0c:	00002530 	andeq	r2, r0, r0, lsr r5
    4c10:	700b0c00 	andvc	r0, fp, r0, lsl #24
    4c14:	0500000b 	streq	r0, [r0, #-11]
    4c18:	00002530 	andeq	r2, r0, r0, lsr r5
    4c1c:	5f101000 	svcpl	0x00101000
    4c20:	31050078 	tstcc	r5, r8, ror r0
    4c24:	0000017d 	andeq	r0, r0, sp, ror r1
    4c28:	040d0014 	streq	r0, [sp], #-20
    4c2c:	00000124 	andeq	r0, r0, r4, lsr #2
    4c30:	00011908 	andeq	r1, r1, r8, lsl #18
    4c34:	00018d00 	andeq	r8, r1, r0, lsl #26
    4c38:	00c70900 	sbceq	r0, r7, r0, lsl #18
    4c3c:	00000000 	andeq	r0, r0, r0
    4c40:	0008d10f 	andeq	sp, r8, pc, lsl #2
    4c44:	35052400 	strcc	r2, [r5, #-1024]	; 0x400
    4c48:	00000206 	andeq	r0, r0, r6, lsl #4
    4c4c:	0007890b 	andeq	r8, r7, fp, lsl #18
    4c50:	25370500 	ldrcs	r0, [r7, #-1280]!	; 0x500
    4c54:	00000000 	andeq	r0, r0, r0
    4c58:	000a8f0b 	andeq	r8, sl, fp, lsl #30
    4c5c:	25380500 	ldrcs	r0, [r8, #-1280]!	; 0x500
    4c60:	04000000 	streq	r0, [r0], #-0
    4c64:	0007b70b 	andeq	fp, r7, fp, lsl #14
    4c68:	25390500 	ldrcs	r0, [r9, #-1280]!	; 0x500
    4c6c:	08000000 	stmdaeq	r0, {}	; <UNPREDICTABLE>
    4c70:	000c600b 	andeq	r6, ip, fp
    4c74:	253a0500 	ldrcs	r0, [sl, #-1280]!	; 0x500
    4c78:	0c000000 	stceq	0, cr0, [r0], {-0}
    4c7c:	00098f0b 	andeq	r8, r9, fp, lsl #30
    4c80:	253b0500 	ldrcs	r0, [fp, #-1280]!	; 0x500
    4c84:	10000000 	andne	r0, r0, r0
    4c88:	0009640b 	andeq	r6, r9, fp, lsl #8
    4c8c:	253c0500 	ldrcs	r0, [ip, #-1280]!	; 0x500
    4c90:	14000000 	strne	r0, [r0], #-0
    4c94:	000b750b 	andeq	r7, fp, fp, lsl #10
    4c98:	253d0500 	ldrcs	r0, [sp, #-1280]!	; 0x500
    4c9c:	18000000 	stmdane	r0, {}	; <UNPREDICTABLE>
    4ca0:	0009e10b 	andeq	lr, r9, fp, lsl #2
    4ca4:	253e0500 	ldrcs	r0, [lr, #-1280]!	; 0x500
    4ca8:	1c000000 	stcne	0, cr0, [r0], {-0}
    4cac:	000c270b 	andeq	r2, ip, fp, lsl #14
    4cb0:	253f0500 	ldrcs	r0, [pc, #-1280]!	; 47b8 <__code_start__-0x3848>
    4cb4:	20000000 	andcs	r0, r0, r0
    4cb8:	07c61100 	strbeq	r1, [r6, r0, lsl #2]
    4cbc:	01080000 	mrseq	r0, (UNDEF: 8)
    4cc0:	02464805 	subeq	r4, r6, #327680	; 0x50000
    4cc4:	720b0000 	andvc	r0, fp, #0
    4cc8:	05000008 	streq	r0, [r0, #-8]
    4ccc:	00024649 	andeq	r4, r2, r9, asr #12
    4cd0:	040b0000 	streq	r0, [fp], #-0
    4cd4:	05000007 	streq	r0, [r0, #-7]
    4cd8:	0002464a 	andeq	r4, r2, sl, asr #12
    4cdc:	1b128000 	blne	4a4ce4 <__bss_end__+0x49a12c>
    4ce0:	0500000b 	streq	r0, [r0, #-11]
    4ce4:	0001194c 	andeq	r1, r1, ip, asr #18
    4ce8:	12010000 	andne	r0, r1, #0
    4cec:	000007eb 	andeq	r0, r0, fp, ror #15
    4cf0:	01194f05 	tsteq	r9, r5, lsl #30
    4cf4:	01040000 	mrseq	r0, (UNDEF: 4)
    4cf8:	01050800 	tsteq	r5, r0, lsl #16
    4cfc:	02560000 	subseq	r0, r6, #0
    4d00:	c7090000 	strgt	r0, [r9, -r0]
    4d04:	1f000000 	svcne	0x00000000
    4d08:	09981100 	ldmibeq	r8, {r8, ip}
    4d0c:	01900000 	orrseq	r0, r0, r0
    4d10:	02945b05 	addseq	r5, r4, #5120	; 0x1400
    4d14:	200b0000 	andcs	r0, fp, r0
    4d18:	0500000a 	streq	r0, [r0, #-10]
    4d1c:	0002945c 	andeq	r9, r2, ip, asr r4
    4d20:	380b0000 	stmdacc	fp, {}	; <UNPREDICTABLE>
    4d24:	0500000a 	streq	r0, [r0, #-10]
    4d28:	0000255d 	andeq	r2, r0, sp, asr r5
    4d2c:	860b0400 	strhi	r0, [fp], -r0, lsl #8
    4d30:	05000008 	streq	r0, [r0, #-8]
    4d34:	00029a5f 	andeq	r9, r2, pc, asr sl
    4d38:	c60b0800 	strgt	r0, [fp], -r0, lsl #16
    4d3c:	05000007 	streq	r0, [r0, #-7]
    4d40:	00020660 	andeq	r0, r2, r0, ror #12
    4d44:	0d008800 	stceq	8, cr8, [r0, #-0]
    4d48:	00025604 	andeq	r5, r2, r4, lsl #12
    4d4c:	02aa0800 	adceq	r0, sl, #0, 16
    4d50:	02aa0000 	adceq	r0, sl, #0
    4d54:	c7090000 	strgt	r0, [r9, -r0]
    4d58:	1f000000 	svcne	0x00000000
    4d5c:	b0040d00 	andlt	r0, r4, r0, lsl #26
    4d60:	13000002 	movwne	r0, #2
    4d64:	0009eb0f 	andeq	lr, r9, pc, lsl #22
    4d68:	73050800 	movwvc	r0, #22528	; 0x5800
    4d6c:	000002d6 	ldrdeq	r0, [r0], -r6
    4d70:	0007ac0b 	andeq	sl, r7, fp, lsl #24
    4d74:	d6740500 	ldrbtle	r0, [r4], -r0, lsl #10
    4d78:	00000002 	andeq	r0, r0, r2
    4d7c:	0007100b 	andeq	r1, r7, fp
    4d80:	25750500 	ldrbcs	r0, [r5, #-1280]!	; 0x500
    4d84:	04000000 	streq	r0, [r0], #-0
    4d88:	4f040d00 	svcmi	0x00040d00
    4d8c:	0f000000 	svceq	0x00000000
    4d90:	00000a0a 	andeq	r0, r0, sl, lsl #20
    4d94:	06b30568 	ldrteq	r0, [r3], r8, ror #10
    4d98:	10000004 	andne	r0, r0, r4
    4d9c:	0500705f 	streq	r7, [r0, #-95]	; 0x5f
    4da0:	0002d6b4 			; <UNDEFINED> instruction: 0x0002d6b4
    4da4:	5f100000 	svcpl	0x00100000
    4da8:	b5050072 	strlt	r0, [r5, #-114]	; 0x72
    4dac:	00000025 	andeq	r0, r0, r5, lsr #32
    4db0:	775f1004 	ldrbvc	r1, [pc, -r4]
    4db4:	25b60500 	ldrcs	r0, [r6, #1280]!	; 0x500
    4db8:	08000000 	stmdaeq	r0, {}	; <UNPREDICTABLE>
    4dbc:	0007e40b 	andeq	lr, r7, fp, lsl #8
    4dc0:	3ab70500 	bcc	fedc61c8 <__bss_end__+0xfedbb610>
    4dc4:	0c000000 	stceq	0, cr0, [r0], {-0}
    4dc8:	0008f70b 	andeq	pc, r8, fp, lsl #14
    4dcc:	3ab80500 	bcc	fee061d4 <__bss_end__+0xfedfb61c>
    4dd0:	0e000000 	cdpeq	0, 0, cr0, cr0, cr0, {0}
    4dd4:	66625f10 	uqadd16vs	r5, r2, r0
    4dd8:	b1b90500 			; <UNDEFINED> instruction: 0xb1b90500
    4ddc:	10000002 	andne	r0, r0, r2
    4de0:	0007530b 	andeq	r5, r7, fp, lsl #6
    4de4:	25ba0500 	ldrcs	r0, [sl, #1280]!	; 0x500
    4de8:	18000000 	stmdane	r0, {}	; <UNPREDICTABLE>
    4dec:	0007d40b 	andeq	sp, r7, fp, lsl #8
    4df0:	05c10500 	strbeq	r0, [r1, #1280]	; 0x500
    4df4:	1c000001 	stcne	0, cr0, [r0], {1}
    4df8:	000c870b 	andeq	r8, ip, fp, lsl #14
    4dfc:	61c30500 	bicvs	r0, r3, r0, lsl #10
    4e00:	20000005 	andcs	r0, r0, r5
    4e04:	000ca10b 	andeq	sl, ip, fp, lsl #2
    4e08:	8bc50500 	blhi	ff146210 <__bss_end__+0xff13b658>
    4e0c:	24000005 	strcs	r0, [r0], #-5
    4e10:	000a7c0b 	andeq	r7, sl, fp, lsl #24
    4e14:	afc80500 	svcge	0x00c80500
    4e18:	28000005 	stmdacs	r0, {r0, r2}
    4e1c:	000c410b 	andeq	r4, ip, fp, lsl #2
    4e20:	c9c90500 	stmibgt	r9, {r8, sl}^
    4e24:	2c000005 	stccs	0, cr0, [r0], {5}
    4e28:	62755f10 	rsbsvs	r5, r5, #16, 30	; 0x40
    4e2c:	b1cc0500 	biclt	r0, ip, r0, lsl #10
    4e30:	30000002 	andcc	r0, r0, r2
    4e34:	70755f10 	rsbsvc	r5, r5, r0, lsl pc
    4e38:	d6cd0500 	strble	r0, [sp], r0, lsl #10
    4e3c:	38000002 	stmdacc	r0, {r1}
    4e40:	72755f10 	rsbsvc	r5, r5, #16, 30	; 0x40
    4e44:	25ce0500 	strbcs	r0, [lr, #1280]	; 0x500
    4e48:	3c000000 	stccc	0, cr0, [r0], {-0}
    4e4c:	0007970b 	andeq	r9, r7, fp, lsl #14
    4e50:	cfd10500 	svcgt	0x00d10500
    4e54:	40000005 	andmi	r0, r0, r5
    4e58:	000bec0b 	andeq	lr, fp, fp, lsl #24
    4e5c:	dfd20500 	svcle	0x00d20500
    4e60:	43000005 	movwmi	r0, #5
    4e64:	626c5f10 	rsbvs	r5, ip, #16, 30	; 0x40
    4e68:	b1d50500 	bicslt	r0, r5, r0, lsl #10
    4e6c:	44000002 	strmi	r0, [r0], #-2
    4e70:	0007fa0b 	andeq	pc, r7, fp, lsl #20
    4e74:	25d80500 	ldrbcs	r0, [r8, #1280]	; 0x500
    4e78:	4c000000 	stcmi	0, cr0, [r0], {-0}
    4e7c:	00096e0b 	andeq	r6, r9, fp, lsl #28
    4e80:	76d90500 	ldrbvc	r0, [r9], r0, lsl #10
    4e84:	50000000 	andpl	r0, r0, r0
    4e88:	000bd70b 	andeq	sp, fp, fp, lsl #14
    4e8c:	24dc0500 	ldrbcs	r0, [ip], #1280	; 0x500
    4e90:	54000004 	strpl	r0, [r0], #-4
    4e94:	0009560b 	andeq	r5, r9, fp, lsl #12
    4e98:	fae00500 	blx	ff8062a0 <__bss_end__+0xff7fb6e8>
    4e9c:	58000000 	stmdapl	r0, {}	; <UNPREDICTABLE>
    4ea0:	000a120b 	andeq	r1, sl, fp, lsl #4
    4ea4:	efe20500 	svc	0x00e20500
    4ea8:	5c000000 	stcpl	0, cr0, [r0], {-0}
    4eac:	00095c0b 	andeq	r5, r9, fp, lsl #24
    4eb0:	25e30500 	strbcs	r0, [r3, #1280]!	; 0x500
    4eb4:	64000000 	strvs	r0, [r0], #-0
    4eb8:	00251400 	eoreq	r1, r5, r0, lsl #8
    4ebc:	04240000 	strteq	r0, [r4], #-0
    4ec0:	24150000 	ldrcs	r0, [r5], #-0
    4ec4:	15000004 	strne	r0, [r0, #-4]
    4ec8:	00000105 	andeq	r0, r0, r5, lsl #2
    4ecc:	00010715 	andeq	r0, r1, r5, lsl r7
    4ed0:	00251500 	eoreq	r1, r5, r0, lsl #10
    4ed4:	0d000000 	stceq	0, cr0, [r0, #-0]
    4ed8:	00042f04 	andeq	r2, r4, r4, lsl #30
    4edc:	04240e00 	strteq	r0, [r4], #-3584	; 0xe00
    4ee0:	5f160000 	svcpl	0x00160000
    4ee4:	2800000a 	stmdacs	r0, {r1, r3}
    4ee8:	02380504 	eorseq	r0, r8, #4, 10	; 0x1000000
    4eec:	00000561 	andeq	r0, r0, r1, ror #10
    4ef0:	0009da17 	andeq	sp, r9, r7, lsl sl
    4ef4:	023a0500 	eorseq	r0, sl, #0, 10
    4ef8:	00000025 	andeq	r0, r0, r5, lsr #32
    4efc:	07f31700 	ldrbeq	r1, [r3, r0, lsl #14]!
    4f00:	3f050000 	svccc	0x00050000
    4f04:	00063602 	andeq	r3, r6, r2, lsl #12
    4f08:	e7170400 	ldr	r0, [r7, -r0, lsl #8]
    4f0c:	05000008 	streq	r0, [r0, #-8]
    4f10:	0636023f 			; <UNDEFINED> instruction: 0x0636023f
    4f14:	17080000 	strne	r0, [r8, -r0]
    4f18:	000008a8 	andeq	r0, r0, r8, lsr #17
    4f1c:	36023f05 	strcc	r3, [r2], -r5, lsl #30
    4f20:	0c000006 	stceq	0, cr0, [r0], {6}
    4f24:	000a3317 	andeq	r3, sl, r7, lsl r3
    4f28:	02410500 	subeq	r0, r1, #0, 10
    4f2c:	00000025 	andeq	r0, r0, r5, lsr #32
    4f30:	071e1710 			; <UNDEFINED> instruction: 0x071e1710
    4f34:	42050000 	andmi	r0, r5, #0
    4f38:	00081802 	andeq	r1, r8, r2, lsl #16
    4f3c:	51171400 	tstpl	r7, r0, lsl #8
    4f40:	0500000b 	streq	r0, [r0, #-11]
    4f44:	00250244 	eoreq	r0, r5, r4, asr #4
    4f48:	17300000 	ldrne	r0, [r0, -r0]!
    4f4c:	00000a3d 	andeq	r0, r0, sp, lsr sl
    4f50:	85024505 	strhi	r4, [r2, #-1285]	; 0x505
    4f54:	34000005 	strcc	r0, [r0], #-5
    4f58:	0009a017 	andeq	sl, r9, r7, lsl r0
    4f5c:	02470500 	subeq	r0, r7, #0, 10
    4f60:	00000025 	andeq	r0, r0, r5, lsr #32
    4f64:	0a4d1738 	beq	134ac4c <__bss_end__+0x1340094>
    4f68:	49050000 	stmdbmi	r5, {}	; <UNPREDICTABLE>
    4f6c:	00083302 	andeq	r3, r8, r2, lsl #6
    4f70:	32173c00 	andscc	r3, r7, #0, 24
    4f74:	05000009 	streq	r0, [r0, #-9]
    4f78:	0177024c 	cmneq	r7, ip, asr #4
    4f7c:	17400000 	strbne	r0, [r0, -r0]
    4f80:	000008c7 	andeq	r0, r0, r7, asr #17
    4f84:	25024d05 	strcs	r4, [r2, #-3333]	; 0xd05
    4f88:	44000000 	strmi	r0, [r0], #-0
    4f8c:	000c5b17 	andeq	r5, ip, r7, lsl fp
    4f90:	024e0500 	subeq	r0, lr, #0, 10
    4f94:	00000177 	andeq	r0, r0, r7, ror r1
    4f98:	09b71748 	ldmibeq	r7!, {r3, r6, r8, r9, sl, ip}
    4f9c:	4f050000 	svcmi	0x00050000
    4fa0:	00083902 	andeq	r3, r8, r2, lsl #18
    4fa4:	ef174c00 	svc	0x00174c00
    4fa8:	05000008 	streq	r0, [r0, #-8]
    4fac:	00250252 	eoreq	r0, r5, r2, asr r2
    4fb0:	17500000 	ldrbne	r0, [r0, -r0]
    4fb4:	00000816 	andeq	r0, r0, r6, lsl r8
    4fb8:	07025305 	streq	r5, [r2, -r5, lsl #6]
    4fbc:	54000001 	strpl	r0, [r0], #-1
    4fc0:	0009d317 	andeq	sp, r9, r7, lsl r3
    4fc4:	02760500 	rsbseq	r0, r6, #0, 10
    4fc8:	000007f6 	strdeq	r0, [r0], -r6
    4fcc:	09981858 	ldmibeq	r8, {r3, r4, r6, fp, ip}
    4fd0:	7a050000 	bvc	144fd8 <__bss_end__+0x13a420>
    4fd4:	00029402 	andeq	r9, r2, r2, lsl #8
    4fd8:	18014800 	stmdane	r1, {fp, lr}
    4fdc:	00000904 	andeq	r0, r0, r4, lsl #18
    4fe0:	56027b05 	strpl	r7, [r2], -r5, lsl #22
    4fe4:	4c000002 	stcmi	0, cr0, [r0], {2}
    4fe8:	0bbd1801 	bleq	fef4aff4 <__bss_end__+0xfef4043c>
    4fec:	7f050000 	svcvc	0x00050000
    4ff0:	00084a02 	andeq	r4, r8, r2, lsl #20
    4ff4:	1802dc00 	stmdane	r2, {sl, fp, ip, lr, pc}
    4ff8:	000007dc 	ldrdeq	r0, [r0], -ip
    4ffc:	fb028405 	blx	a601a <__bss_end__+0x9b462>
    5000:	e0000005 	and	r0, r0, r5
    5004:	07c11802 	strbeq	r1, [r1, r2, lsl #16]
    5008:	85050000 	strhi	r0, [r5, #-0]
    500c:	00085602 	andeq	r5, r8, r2, lsl #12
    5010:	0002ec00 	andeq	lr, r2, r0, lsl #24
    5014:	0406040d 	streq	r0, [r6], #-1037	; 0x40d
    5018:	25140000 	ldrcs	r0, [r4, #-0]
    501c:	85000000 	strhi	r0, [r0, #-0]
    5020:	15000005 	strne	r0, [r0, #-5]
    5024:	00000424 	andeq	r0, r0, r4, lsr #8
    5028:	00010515 	andeq	r0, r1, r5, lsl r5
    502c:	05851500 	streq	r1, [r5, #1280]	; 0x500
    5030:	25150000 	ldrcs	r0, [r5, #-0]
    5034:	00000000 	andeq	r0, r0, r0
    5038:	0114040d 	tsteq	r4, sp, lsl #8
    503c:	040d0000 	streq	r0, [sp], #-0
    5040:	00000567 	andeq	r0, r0, r7, ror #10
    5044:	00008114 	andeq	r8, r0, r4, lsl r1
    5048:	0005af00 	andeq	sl, r5, r0, lsl #30
    504c:	04241500 	strteq	r1, [r4], #-1280	; 0x500
    5050:	05150000 	ldreq	r0, [r5, #-0]
    5054:	15000001 	strne	r0, [r0, #-1]
    5058:	00000081 	andeq	r0, r0, r1, lsl #1
    505c:	00002515 	andeq	r2, r0, r5, lsl r5
    5060:	040d0000 	streq	r0, [sp], #-0
    5064:	00000591 	muleq	r0, r1, r5
    5068:	00002514 	andeq	r2, r0, r4, lsl r5
    506c:	0005c900 	andeq	ip, r5, r0, lsl #18
    5070:	04241500 	strteq	r1, [r4], #-1280	; 0x500
    5074:	05150000 	ldreq	r0, [r5, #-0]
    5078:	00000001 	andeq	r0, r0, r1
    507c:	05b5040d 	ldreq	r0, [r5, #1037]!	; 0x40d
    5080:	4f080000 	svcmi	0x00080000
    5084:	df000000 	svcle	0x00000000
    5088:	09000005 	stmdbeq	r0, {r0, r2}
    508c:	000000c7 	andeq	r0, r0, r7, asr #1
    5090:	4f080002 	svcmi	0x00080002
    5094:	ef000000 	svc	0x00000000
    5098:	09000005 	stmdbeq	r0, {r0, r2}
    509c:	000000c7 	andeq	r0, r0, r7, asr #1
    50a0:	f8050000 			; <UNDEFINED> instruction: 0xf8050000
    50a4:	05000009 	streq	r0, [r0, #-9]
    50a8:	02dc011d 	sbcseq	r0, ip, #1073741831	; 0x40000007
    50ac:	7f190000 	svcvc	0x00190000
    50b0:	0c00000b 	stceq	0, cr0, [r0], {11}
    50b4:	30012105 	andcc	r2, r1, r5, lsl #2
    50b8:	17000006 	strne	r0, [r0, -r6]
    50bc:	00000a20 	andeq	r0, r0, r0, lsr #20
    50c0:	30012305 	andcc	r2, r1, r5, lsl #6
    50c4:	00000006 	andeq	r0, r0, r6
    50c8:	0008fd17 	andeq	pc, r8, r7, lsl sp	; <UNPREDICTABLE>
    50cc:	01240500 	teqeq	r4, r0, lsl #10
    50d0:	00000025 	andeq	r0, r0, r5, lsr #32
    50d4:	09f21704 	ldmibeq	r2!, {r2, r8, r9, sl, ip}^
    50d8:	25050000 	strcs	r0, [r5, #-0]
    50dc:	00063601 	andeq	r3, r6, r1, lsl #12
    50e0:	0d000800 	stceq	8, cr0, [r0, #-0]
    50e4:	0005fb04 	andeq	pc, r5, r4, lsl #22
    50e8:	ef040d00 	svc	0x00040d00
    50ec:	19000005 	stmdbne	r0, {r0, r2}
    50f0:	00000716 	andeq	r0, r0, r6, lsl r7
    50f4:	013d050e 	teqeq	sp, lr, lsl #10
    50f8:	00000671 	andeq	r0, r0, r1, ror r6
    50fc:	000a6617 	andeq	r6, sl, r7, lsl r6
    5100:	013e0500 	teqeq	lr, r0, lsl #10
    5104:	00000671 	andeq	r0, r0, r1, ror r6
    5108:	0aa01700 	beq	fe80ad10 <__bss_end__+0xfe800158>
    510c:	3f050000 	svccc	0x00050000
    5110:	00067101 	andeq	r7, r6, r1, lsl #2
    5114:	24170600 	ldrcs	r0, [r7], #-1536	; 0x600
    5118:	0500000b 	streq	r0, [r0, #-11]
    511c:	00560140 	subseq	r0, r6, r0, asr #2
    5120:	000c0000 	andeq	r0, ip, r0
    5124:	00005608 	andeq	r5, r0, r8, lsl #12
    5128:	00068100 	andeq	r8, r6, r0, lsl #2
    512c:	00c70900 	sbceq	r0, r7, r0, lsl #18
    5130:	00020000 	andeq	r0, r2, r0
    5134:	5705d01a 	smladpl	r5, sl, r0, sp
    5138:	00078202 	andeq	r8, r7, r2, lsl #4
    513c:	0b631700 	bleq	18cad44 <__bss_end__+0x18c018c>
    5140:	59050000 	stmdbpl	r5, {}	; <UNPREDICTABLE>
    5144:	00002c02 	andeq	r2, r0, r2, lsl #24
    5148:	0e170000 	cdpeq	0, 1, cr0, cr7, cr0, {0}
    514c:	0500000b 	streq	r0, [r0, #-11]
    5150:	0107025a 	tsteq	r7, sl, asr r2
    5154:	17040000 	strne	r0, [r4, -r0]
    5158:	00000919 	andeq	r0, r0, r9, lsl r9
    515c:	82025b05 	andhi	r5, r2, #5120	; 0x1400
    5160:	08000007 	stmdaeq	r0, {r0, r1, r2}
    5164:	000c3217 	andeq	r3, ip, r7, lsl r2
    5168:	025c0500 	subseq	r0, ip, #0, 10
    516c:	0000018d 	andeq	r0, r0, sp, lsl #3
    5170:	08b81724 	ldmeq	r8!, {r2, r5, r8, r9, sl, ip}
    5174:	5d050000 	stcpl	0, cr0, [r5, #-0]
    5178:	00002502 	andeq	r2, r0, r2, lsl #10
    517c:	1b174800 	blne	5d7184 <__bss_end__+0x5cc5cc>
    5180:	0500000a 	streq	r0, [r0, #-10]
    5184:	0064025e 	rsbeq	r0, r4, lr, asr r2
    5188:	17500000 	ldrbne	r0, [r0, -r0]
    518c:	00000c48 	andeq	r0, r0, r8, asr #24
    5190:	3c025f05 	stccc	15, cr5, [r2], {5}
    5194:	58000006 	stmdapl	r0, {r1, r2}
    5198:	000a2617 	andeq	r2, sl, r7, lsl r6
    519c:	02600500 	rsbeq	r0, r0, #0, 10
    51a0:	000000ef 	andeq	r0, r0, pc, ror #1
    51a4:	0c4d1768 	mcrreq	7, 6, r1, sp, cr8
    51a8:	61050000 	mrsvs	r0, (UNDEF: 5)
    51ac:	0000ef02 	andeq	lr, r0, r2, lsl #30
    51b0:	7b177000 	blvc	5e11b8 <__bss_end__+0x5d6600>
    51b4:	05000007 	streq	r0, [r0, #-7]
    51b8:	00ef0262 	rsceq	r0, pc, r2, ror #4
    51bc:	17780000 	ldrbne	r0, [r8, -r0]!
    51c0:	00000b9f 	muleq	r0, pc, fp	; <UNPREDICTABLE>
    51c4:	92026305 	andls	r6, r2, #335544320	; 0x14000000
    51c8:	80000007 	andhi	r0, r0, r7
    51cc:	00090d17 	andeq	r0, r9, r7, lsl sp
    51d0:	02640500 	rsbeq	r0, r4, #0, 10
    51d4:	000007a2 	andeq	r0, r0, r2, lsr #15
    51d8:	0b311788 	bleq	c4b000 <__bss_end__+0xc40448>
    51dc:	65050000 	strvs	r0, [r5, #-0]
    51e0:	00002502 	andeq	r2, r0, r2, lsl #10
    51e4:	6417a000 	ldrvs	sl, [r7], #-0
    51e8:	05000008 	streq	r0, [r0, #-8]
    51ec:	00ef0266 	rsceq	r0, pc, r6, ror #4
    51f0:	17a40000 	strne	r0, [r4, r0]!
    51f4:	0000076c 	andeq	r0, r0, ip, ror #14
    51f8:	ef026705 	svc	0x00026705
    51fc:	ac000000 	stcge	0, cr0, [r0], {-0}
    5200:	00085317 	andeq	r5, r8, r7, lsl r3
    5204:	02680500 	rsbeq	r0, r8, #0, 10
    5208:	000000ef 	andeq	r0, r0, pc, ror #1
    520c:	073317b4 			; <UNDEFINED> instruction: 0x073317b4
    5210:	69050000 	stmdbvs	r5, {}	; <UNPREDICTABLE>
    5214:	0000ef02 	andeq	lr, r0, r2, lsl #30
    5218:	4217bc00 	andsmi	fp, r7, #0, 24
    521c:	05000007 	streq	r0, [r0, #-7]
    5220:	00ef026a 	rsceq	r0, pc, sl, ror #4
    5224:	17c40000 	strbne	r0, [r4, r0]
    5228:	000009d8 	ldrdeq	r0, [r0], -r8
    522c:	25026b05 	strcs	r6, [r2, #-2821]	; 0xb05
    5230:	cc000000 	stcgt	0, cr0, [r0], {-0}
    5234:	010d0800 	tsteq	sp, r0, lsl #16
    5238:	07920000 	ldreq	r0, [r2, r0]
    523c:	c7090000 	strgt	r0, [r9, -r0]
    5240:	19000000 	stmdbne	r0, {}	; <UNPREDICTABLE>
    5244:	010d0800 	tsteq	sp, r0, lsl #16
    5248:	07a20000 	streq	r0, [r2, r0]!
    524c:	c7090000 	strgt	r0, [r9, -r0]
    5250:	07000000 	streq	r0, [r0, -r0]
    5254:	010d0800 	tsteq	sp, r0, lsl #16
    5258:	07b20000 	ldreq	r0, [r2, r0]!
    525c:	c7090000 	strgt	r0, [r9, -r0]
    5260:	17000000 	strne	r0, [r0, -r0]
    5264:	05f01a00 	ldrbeq	r1, [r0, #2560]!	; 0xa00
    5268:	07d60270 			; <UNDEFINED> instruction: 0x07d60270
    526c:	88170000 	ldmdahi	r7, {}	; <UNPREDICTABLE>
    5270:	05000009 	streq	r0, [r0, #-9]
    5274:	07d60273 			; <UNDEFINED> instruction: 0x07d60273
    5278:	17000000 	strne	r0, [r0, -r0]
    527c:	00000b96 	muleq	r0, r6, fp
    5280:	e6027405 	str	r7, [r2], -r5, lsl #8
    5284:	78000007 	stmdavc	r0, {r0, r1, r2}
    5288:	02d60800 	sbcseq	r0, r6, #0, 16
    528c:	07e60000 	strbeq	r0, [r6, r0]!
    5290:	c7090000 	strgt	r0, [r9, -r0]
    5294:	1d000000 	stcne	0, cr0, [r0, #-0]
    5298:	002c0800 	eoreq	r0, ip, r0, lsl #16
    529c:	07f60000 	ldrbeq	r0, [r6, r0]!
    52a0:	c7090000 	strgt	r0, [r9, -r0]
    52a4:	1d000000 	stcne	0, cr0, [r0, #-0]
    52a8:	05f01b00 	ldrbeq	r1, [r0, #2816]!	; 0xb00
    52ac:	08180255 	ldmdaeq	r8, {r0, r2, r4, r6, r9}
    52b0:	5f1c0000 	svcpl	0x001c0000
    52b4:	0500000a 	streq	r0, [r0, #-10]
    52b8:	0681026c 	streq	r0, [r1], ip, ror #4
    52bc:	f21c0000 	vhadd.s16	d0, d12, d0
    52c0:	0500000b 	streq	r0, [r0, #-11]
    52c4:	07b20275 			; <UNDEFINED> instruction: 0x07b20275
    52c8:	08000000 	stmdaeq	r0, {}	; <UNPREDICTABLE>
    52cc:	0000010d 	andeq	r0, r0, sp, lsl #2
    52d0:	00000828 	andeq	r0, r0, r8, lsr #16
    52d4:	0000c709 	andeq	ip, r0, r9, lsl #14
    52d8:	1d001800 	stcne	8, cr1, [r0, #-0]
    52dc:	00000833 	andeq	r0, r0, r3, lsr r8
    52e0:	00042415 	andeq	r2, r4, r5, lsl r4
    52e4:	040d0000 	streq	r0, [sp], #-0
    52e8:	00000828 	andeq	r0, r0, r8, lsr #16
    52ec:	0177040d 	cmneq	r7, sp, lsl #8
    52f0:	4a1d0000 	bmi	7452f8 <__bss_end__+0x73a740>
    52f4:	15000008 	strne	r0, [r0, #-8]
    52f8:	00000025 	andeq	r0, r0, r5, lsr #32
    52fc:	50040d00 	andpl	r0, r4, r0, lsl #26
    5300:	0d000008 	stceq	0, cr0, [r0, #-32]	; 0xffffffe0
    5304:	00083f04 	andeq	r3, r8, r4, lsl #30
    5308:	05ef0800 	strbeq	r0, [pc, #2048]!	; 5b10 <__code_start__-0x24f0>
    530c:	08660000 	stmdaeq	r6!, {}^	; <UNPREDICTABLE>
    5310:	c7090000 	strgt	r0, [r9, -r0]
    5314:	02000000 	andeq	r0, r0, #0
    5318:	0b451e00 	bleq	114cb20 <__bss_end__+0x1141f68>
    531c:	fd050000 	stc2	0, cr0, [r5, #-0]
    5320:	00042402 	andeq	r2, r4, r2, lsl #8
    5324:	0b3e1e00 	bleq	f8cb2c <__bss_end__+0xf81f74>
    5328:	fe050000 	cdp2	0, 0, cr0, cr5, cr0, {0}
    532c:	00042a02 	andeq	r2, r4, r2, lsl #20
    5330:	00251400 	eoreq	r1, r5, r0, lsl #8
    5334:	088d0000 	stmeq	sp, {}	; <UNPREDICTABLE>
    5338:	25150000 	ldrcs	r0, [r5, #-0]
    533c:	00000000 	andeq	r0, r0, r0
    5340:	0005481f 	andeq	r4, r5, pc, lsl r8
    5344:	981d0600 	ldmdals	sp, {r9, sl}
    5348:	0d000008 	stceq	0, cr0, [r0, #-32]	; 0xffffffe0
    534c:	00087e04 	andeq	r7, r8, r4, lsl #28
    5350:	00251400 	eoreq	r1, r5, r0, lsl #8
    5354:	08ad0000 	stmiaeq	sp!, {}	; <UNPREDICTABLE>
    5358:	85150000 	ldrhi	r0, [r5, #-0]
    535c:	00000005 	andeq	r0, r0, r5
    5360:	0005851f 	andeq	r8, r5, pc, lsl r5
    5364:	b8220600 	stmdalt	r2!, {r9, sl}
    5368:	0d000008 	stceq	0, cr0, [r0, #-32]	; 0xffffffe0
    536c:	00089e04 	andeq	r9, r8, r4, lsl #28
    5370:	04080300 	streq	r0, [r8], #-768	; 0x300
    5374:	00000d14 	andeq	r0, r0, r4, lsl sp
    5378:	000d4c1f 	andeq	r4, sp, pc, lsl ip
    537c:	0d0d0100 	stfeqs	f0, [sp, #-0]
    5380:	20000001 	andcs	r0, r0, r1
    5384:	0000044a 	andeq	r0, r0, sl, asr #8
    5388:	01070e01 	tsteq	r7, r1, lsl #28
    538c:	03050000 	movweq	r0, #20480	; 0x5000
    5390:	00009c78 	andeq	r9, r0, r8, ror ip
    5394:	000d6320 	andeq	r6, sp, r0, lsr #6
    5398:	070f0100 	streq	r0, [pc, -r0, lsl #2]
    539c:	05000001 	streq	r0, [r0, #-1]
    53a0:	009c7c03 	addseq	r7, ip, r3, lsl #24
    53a4:	0d252100 	stfeqs	f2, [r5, #-0]
    53a8:	38010000 	stmdacc	r1, {}	; <UNPREDICTABLE>
    53ac:	00009c48 	andeq	r9, r0, r8, asr #24
    53b0:	00000010 	andeq	r0, r0, r0, lsl r0
    53b4:	09139c01 	ldmdbeq	r3, {r0, sl, fp, ip, pc}
    53b8:	70220000 	eorvc	r0, r2, r0
    53bc:	05380100 	ldreq	r0, [r8, #-256]!	; 0x100
    53c0:	01000001 	tsteq	r0, r1
    53c4:	1b230050 	blne	8c550c <__bss_end__+0x8ba954>
    53c8:	0100000d 	tsteq	r0, sp
    53cc:	009c3437 	addseq	r3, ip, r7, lsr r4
    53d0:	00001400 	andeq	r1, r0, r0, lsl #8
    53d4:	219c0100 	orrscs	r0, ip, r0, lsl #2
    53d8:	0000027e 	andeq	r0, r0, lr, ror r2
    53dc:	9c303601 	ldcls	6, cr3, [r0], #-4
    53e0:	00040000 	andeq	r0, r4, r0
    53e4:	9c010000 	stcls	0, cr0, [r1], {-0}
    53e8:	00000945 	andeq	r0, r0, r5, asr #18
    53ec:	01007022 	tsteq	r0, r2, lsr #32
    53f0:	00010536 	andeq	r0, r1, r6, lsr r5
    53f4:	00500100 	subseq	r0, r0, r0, lsl #2
    53f8:	000d0424 	andeq	r0, sp, r4, lsr #8
    53fc:	05290100 	streq	r0, [r9, #-256]!	; 0x100
    5400:	a4000001 	strge	r0, [r0], #-1
    5404:	8c00009b 	stchi	0, cr0, [r0], {155}	; 0x9b
    5408:	01000000 	mrseq	r0, (UNDEF: 0)
    540c:	000a309c 	muleq	sl, ip, r0
    5410:	036f2500 	cmneq	pc, #0, 10
    5414:	29010000 	stmdbcs	r1, {}	; <UNPREDICTABLE>
    5418:	0000002c 	andeq	r0, r0, ip, lsr #32
    541c:	0000162f 	andeq	r1, r0, pc, lsr #12
    5420:	000d4225 	andeq	r4, sp, r5, lsr #4
    5424:	2c290100 	stfcss	f0, [r9], #-0
    5428:	82000000 	andhi	r0, r0, #0
    542c:	26000016 			; <UNDEFINED> instruction: 0x26000016
    5430:	00000113 	andeq	r0, r0, r3, lsl r1
    5434:	00000a40 	andeq	r0, r0, r0, asr #20
    5438:	a6840305 	strge	r0, [r4], r5, lsl #6
    543c:	68270000 	stmdavs	r7!, {}	; <UNPREDICTABLE>
    5440:	2c2e0100 	stfcss	f0, [lr], #-0
    5444:	c9000000 	stmdbgt	r0, {}	; <UNPREDICTABLE>
    5448:	28000016 	stmdacs	r0, {r1, r2, r4}
    544c:	00009be0 	andeq	r9, r0, r0, ror #23
    5450:	00000a79 	andeq	r0, r0, r9, ror sl
    5454:	000009ad 	andeq	r0, r0, sp, lsr #19
    5458:	03500129 	cmpeq	r0, #1073741834	; 0x4000000a
    545c:	005001f3 	ldrsheq	r0, [r0], #-19	; 0xffffffed
    5460:	009be82a 	addseq	lr, fp, sl, lsr #16
    5464:	000bfb00 	andeq	pc, fp, r0, lsl #22
    5468:	9bfc2800 	blls	fff0f470 <__bss_end__+0xfff048b8>
    546c:	0c060000 	stceq	0, cr0, [r6], {-0}
    5470:	09e50000 	stmibeq	r5!, {}^	; <UNPREDICTABLE>
    5474:	01290000 	teqeq	r9, r0
    5478:	d0030550 	andle	r0, r3, r0, asr r5
    547c:	290000a6 	stmdbcs	r0, {r1, r2, r5, r7}
    5480:	03055101 	movweq	r5, #20737	; 0x5101
    5484:	0000a694 	muleq	r0, r4, r6
    5488:	05520129 	ldrbeq	r0, [r2, #-297]	; 0x129
    548c:	00a68403 	adceq	r8, r6, r3, lsl #8
    5490:	53012900 	movwpl	r2, #6400	; 0x1900
    5494:	002a0802 	eoreq	r0, sl, r2, lsl #16
    5498:	009c002a 	addseq	r0, ip, sl, lsr #32
    549c:	000c1100 	andeq	r1, ip, r0, lsl #2
    54a0:	9c042a00 	stcls	10, cr2, [r4], {-0}
    54a4:	0bfb0000 	bleq	ffec54ac <__bss_end__+0xffeba8f4>
    54a8:	18280000 	stmdane	r8!, {}	; <UNPREDICTABLE>
    54ac:	0600009c 			; <UNDEFINED> instruction: 0x0600009c
    54b0:	2600000c 	strcs	r0, [r0], -ip
    54b4:	2900000a 	stmdbcs	r0, {r1, r3}
    54b8:	03055001 	movweq	r5, #20481	; 0x5001
    54bc:	0000a730 	andeq	sl, r0, r0, lsr r7
    54c0:	05510129 	ldrbeq	r0, [r1, #-297]	; 0x129
    54c4:	00a69403 	adceq	r9, r6, r3, lsl #8
    54c8:	52012900 	andpl	r2, r1, #0, 18
    54cc:	a6840305 	strge	r0, [r4], r5, lsl #6
    54d0:	01290000 	teqeq	r9, r0
    54d4:	30080253 	andcc	r0, r8, r3, asr r2
    54d8:	9c1c2a00 	ldcls	10, cr2, [ip], {-0}
    54dc:	0c110000 	ldceq	0, cr0, [r1], {-0}
    54e0:	08000000 	stmdaeq	r0, {}	; <UNPREDICTABLE>
    54e4:	00000114 	andeq	r0, r0, r4, lsl r1
    54e8:	00000a40 	andeq	r0, r0, r0, asr #20
    54ec:	0000c709 	andeq	ip, r0, r9, lsl #14
    54f0:	0e000f00 	cdpeq	15, 0, cr0, cr0, cr0, {0}
    54f4:	00000a30 	andeq	r0, r0, r0, lsr sl
    54f8:	000d3124 	andeq	r3, sp, r4, lsr #2
    54fc:	05250100 	streq	r0, [r5, #-256]!	; 0x100
    5500:	98000001 	stmdals	r0, {r0}
    5504:	0c00009b 	stceq	0, cr0, [r0], {155}	; 0x9b
    5508:	01000000 	mrseq	r0, (UNDEF: 0)
    550c:	000a689c 	muleq	sl, ip, r8
    5510:	9ba02a00 	blls	fe80fd18 <__bss_end__+0xfe805160>
    5514:	0bd10000 	bleq	ff44551c <__bss_end__+0xff43a964>
    5518:	23000000 	movwcs	r0, #0
    551c:	00000cf7 	strdeq	r0, [r0], -r7
    5520:	9b942401 	blls	fe50e52c <__bss_end__+0xfe503974>
    5524:	00040000 	andeq	r0, r4, r0
    5528:	9c010000 	stcls	0, cr0, [r1], {-0}
    552c:	00010424 	andeq	r0, r1, r4, lsr #8
    5530:	051a0100 	ldreq	r0, [sl, #-256]	; 0x100
    5534:	30000001 	andcc	r0, r0, r1
    5538:	6400009b 	strvs	r0, [r0], #-155	; 0x9b
    553c:	01000000 	mrseq	r0, (UNDEF: 0)
    5540:	000b249c 	muleq	fp, ip, r4
    5544:	7a732b00 	bvc	1cd014c <__bss_end__+0x1cc5594>
    5548:	2c1a0100 	ldfcss	f0, [sl], {-0}
    554c:	01000000 	mrseq	r0, (UNDEF: 0)
    5550:	26000017 			; <UNDEFINED> instruction: 0x26000017
    5554:	00000113 	andeq	r0, r0, r3, lsl r1
    5558:	00000b34 	andeq	r0, r0, r4, lsr fp
    555c:	a67c0305 	ldrbtge	r0, [ip], -r5, lsl #6
    5560:	d12c0000 	teqle	ip, r0
    5564:	01000001 	tsteq	r0, r1
    5568:	0001051e 	andeq	r0, r1, lr, lsl r5
    556c:	00174b00 	andseq	r4, r7, r0, lsl #22
    5570:	9b602800 	blls	180f578 <__bss_end__+0x18049c0>
    5574:	0c1c0000 	ldceq	0, cr0, [ip], {-0}
    5578:	0ae30000 	beq	ff8c5580 <__bss_end__+0xff8ba9c8>
    557c:	01290000 	teqeq	r9, r0
    5580:	00740250 	rsbseq	r0, r4, r0, asr r2
    5584:	01510129 	cmpeq	r1, r9, lsr #2
    5588:	52012930 	andpl	r2, r1, #48, 18	; 0xc0000
    558c:	5001f308 	andpl	pc, r1, r8, lsl #6
    5590:	f8090723 			; <UNDEFINED> instruction: 0xf8090723
    5594:	6c2a001a 	stcvs	0, cr0, [sl], #-104	; 0xffffff98
    5598:	fb00009b 	blx	580e <__code_start__-0x27f2>
    559c:	2800000b 	stmdacs	r0, {r0, r1, r3}
    55a0:	00009b80 	andeq	r9, r0, r0, lsl #23
    55a4:	00000c06 	andeq	r0, r0, r6, lsl #24
    55a8:	00000b1a 	andeq	r0, r0, sl, lsl fp
    55ac:	05500129 	ldrbeq	r0, [r0, #-297]	; 0x129
    55b0:	00a6bc03 	adceq	fp, r6, r3, lsl #24
    55b4:	51012900 	tstpl	r1, r0, lsl #18
    55b8:	a6940305 	ldrge	r0, [r4], r5, lsl #6
    55bc:	01290000 	teqeq	r9, r0
    55c0:	7c030552 	cfstr32vc	mvfx0, [r3], {82}	; 0x52
    55c4:	290000a6 	stmdbcs	r0, {r1, r2, r5, r7}
    55c8:	4b015301 	blmi	5a1d4 <__bss_end__+0x4f61c>
    55cc:	9b842a00 	blls	fe10fdd4 <__bss_end__+0xfe10521c>
    55d0:	0c110000 	ldceq	0, cr0, [r1], {-0}
    55d4:	08000000 	stmdaeq	r0, {}	; <UNPREDICTABLE>
    55d8:	00000114 	andeq	r0, r0, r4, lsl r1
    55dc:	00000b34 	andeq	r0, r0, r4, lsr fp
    55e0:	0000c709 	andeq	ip, r0, r9, lsl #14
    55e4:	0e000700 	cdpeq	7, 0, cr0, cr0, cr0, {0}
    55e8:	00000b24 	andeq	r0, r0, r4, lsr #22
    55ec:	00000721 	andeq	r0, r0, r1, lsr #14
    55f0:	e0140100 	ands	r0, r4, r0, lsl #2
    55f4:	5000009a 	mulpl	r0, sl, r0
    55f8:	01000000 	mrseq	r0, (UNDEF: 0)
    55fc:	000bbc9c 	muleq	fp, ip, ip
    5600:	01d02500 	bicseq	r2, r0, r0, lsl #10
    5604:	14010000 	strne	r0, [r1], #-0
    5608:	0000002c 	andeq	r0, r0, ip, lsr #32
    560c:	0000175e 	andeq	r1, r0, lr, asr r7
    5610:	0001d12c 	andeq	sp, r1, ip, lsr #2
    5614:	07150100 	ldreq	r0, [r5, -r0, lsl #2]
    5618:	7f000001 	svcvc	0x00000001
    561c:	26000017 			; <UNDEFINED> instruction: 0x26000017
    5620:	00000113 	andeq	r0, r0, r3, lsl r1
    5624:	00000bcc 	andeq	r0, r0, ip, asr #23
    5628:	a6640305 	strbtge	r0, [r4], -r5, lsl #6
    562c:	082a0000 	stmdaeq	sl!, {}	; <UNPREDICTABLE>
    5630:	fb00009b 	blx	58a6 <__code_start__-0x275a>
    5634:	2800000b 	stmdacs	r0, {r0, r1, r3}
    5638:	00009b1c 	andeq	r9, r0, ip, lsl fp
    563c:	00000c06 	andeq	r0, r0, r6, lsl #24
    5640:	00000bb2 			; <UNDEFINED> instruction: 0x00000bb2
    5644:	05500129 	ldrbeq	r0, [r0, #-297]	; 0x129
    5648:	00a6a003 	adceq	sl, r6, r3
    564c:	51012900 	tstpl	r1, r0, lsl #18
    5650:	a6940305 	ldrge	r0, [r4], r5, lsl #6
    5654:	01290000 	teqeq	r9, r0
    5658:	64030552 	strvs	r0, [r3], #-1362	; 0x552
    565c:	290000a6 	stmdbcs	r0, {r1, r2, r5, r7}
    5660:	46015301 	strmi	r5, [r1], -r1, lsl #6
    5664:	9b202a00 	blls	80fe6c <__bss_end__+0x8052b4>
    5668:	0c110000 	ldceq	0, cr0, [r1], {-0}
    566c:	08000000 	stmdaeq	r0, {}	; <UNPREDICTABLE>
    5670:	00000114 	andeq	r0, r0, r4, lsl r1
    5674:	00000bcc 	andeq	r0, r0, ip, asr #23
    5678:	0000c709 	andeq	ip, r0, r9, lsl #14
    567c:	0e001600 	cfmadd32eq	mvax0, mvfx1, mvfx0, mvfx0
    5680:	00000bbc 			; <UNDEFINED> instruction: 0x00000bbc
    5684:	000d5b2d 	andeq	r5, sp, sp, lsr #22
    5688:	05120100 	ldreq	r0, [r2, #-256]	; 0x100
    568c:	d4000001 	strle	r0, [r0], #-1
    5690:	0c00009a 	stceq	0, cr0, [r0], {154}	; 0x9a
    5694:	01000000 	mrseq	r0, (UNDEF: 0)
    5698:	0d6e2d9c 	stcleq	13, cr2, [lr, #-624]!	; 0xfffffd90
    569c:	11010000 	mrsne	r0, (UNDEF: 1)
    56a0:	00000105 	andeq	r0, r0, r5, lsl #2
    56a4:	00009ac4 	andeq	r9, r0, r4, asr #21
    56a8:	00000010 	andeq	r0, r0, r0, lsl r0
    56ac:	432e9c01 	teqmi	lr, #256	; 0x100
    56b0:	43000002 	movwmi	r0, #2
    56b4:	06000002 	streq	r0, [r0], -r2
    56b8:	05172e1e 	ldreq	r2, [r7, #-3614]	; 0xe1e
    56bc:	05170000 	ldreq	r0, [r7, #-0]
    56c0:	29060000 	stmdbcs	r6, {}	; <UNPREDICTABLE>
    56c4:	0002902e 	andeq	r9, r2, lr, lsr #32
    56c8:	00029000 	andeq	r9, r2, r0
    56cc:	2e650600 	cdpcs	6, 6, cr0, cr5, cr0, {0}
    56d0:	0000010c 	andeq	r0, r0, ip, lsl #2
    56d4:	0000010c 	andeq	r0, r0, ip, lsl #2
    56d8:	Address 0x00000000000056d8 is out of bounds.


Disassembly of section .debug_abbrev:

00000000 <.debug_abbrev>:
       0:	25011101 	strcs	r1, [r1, #-257]	; 0x101
       4:	030b130e 	movweq	r1, #45838	; 0xb30e
       8:	110e1b0e 	tstne	lr, lr, lsl #22
       c:	10061201 	andne	r1, r6, r1, lsl #4
      10:	02000017 	andeq	r0, r0, #23
      14:	0b0b0024 	bleq	2c00ac <__bss_end__+0x2b54f4>
      18:	08030b3e 	stmdaeq	r3, {r1, r2, r3, r4, r5, r8, r9, fp}
      1c:	16030000 	strne	r0, [r3], -r0
      20:	3a0e0300 	bcc	380c28 <__bss_end__+0x376070>
      24:	490b3b0b 	stmdbmi	fp, {r0, r1, r3, r8, r9, fp, ip, sp}
      28:	04000013 	streq	r0, [r0], #-19
      2c:	0b0b0024 	bleq	2c00c4 <__bss_end__+0x2b550c>
      30:	0e030b3e 	vmoveq.16	d3[0], r0
      34:	0f050000 	svceq	0x00050000
      38:	000b0b00 	andeq	r0, fp, r0, lsl #22
      3c:	000f0600 	andeq	r0, pc, r0, lsl #12
      40:	13490b0b 	movtne	r0, #39691	; 0x9b0b
      44:	26070000 	strcs	r0, [r7], -r0
      48:	00134900 	andseq	r4, r3, r0, lsl #18
      4c:	012e0800 	teqeq	lr, r0, lsl #16
      50:	0e03193f 	mcreq	9, 0, r1, cr3, cr15, {1}
      54:	0b3b0b3a 	bleq	ec2d44 <__bss_end__+0xeb818c>
      58:	13491927 	movtne	r1, #39207	; 0x9927
      5c:	06120111 			; <UNDEFINED> instruction: 0x06120111
      60:	42971840 	addsmi	r1, r7, #64, 16	; 0x400000
      64:	00130119 	andseq	r0, r3, r9, lsl r1
      68:	00340900 	eorseq	r0, r4, r0, lsl #18
      6c:	0b3a0e03 	bleq	e83880 <__bss_end__+0xe78cc8>
      70:	13490b3b 	movtne	r0, #39739	; 0x9b3b
      74:	193c193f 	ldmdbne	ip!, {r0, r1, r2, r3, r4, r5, r8, fp, ip}
      78:	340a0000 	strcc	r0, [sl], #-0
      7c:	490e0300 	stmdbmi	lr, {r8, r9}
      80:	02193413 	andseq	r3, r9, #318767104	; 0x13000000
      84:	0b000018 	bleq	ec <__code_start__-0x7f14>
      88:	08030034 	stmdaeq	r3, {r2, r4, r5}
      8c:	0b3b0b3a 	bleq	ec2d7c <__bss_end__+0xeb81c4>
      90:	17021349 	strne	r1, [r2, -r9, asr #6]
      94:	890c0000 	stmdbhi	ip, {}	; <UNPREDICTABLE>
      98:	11010182 	smlabbne	r1, r2, r1, r0
      9c:	01133101 	tsteq	r3, r1, lsl #2
      a0:	0d000013 	stceq	0, cr0, [r0, #-76]	; 0xffffffb4
      a4:	0001828a 	andeq	r8, r1, sl, lsl #5
      a8:	42911802 	addsmi	r1, r1, #131072	; 0x20000
      ac:	0e000018 	mcreq	0, 0, r0, cr0, cr8, {0}
      b0:	00018289 	andeq	r8, r1, r9, lsl #5
      b4:	13310111 	teqne	r1, #1073741828	; 0x40000004
      b8:	010f0000 	mrseq	r0, CPSR
      bc:	01134901 	tsteq	r3, r1, lsl #18
      c0:	10000013 	andne	r0, r0, r3, lsl r0
      c4:	13490021 	movtne	r0, #36897	; 0x9021
      c8:	00000b2f 	andeq	r0, r0, pc, lsr #22
      cc:	3f012e11 	svccc	0x00012e11
      d0:	3a0e0319 	bcc	380d3c <__bss_end__+0x376184>
      d4:	270b3b0b 	strcs	r3, [fp, -fp, lsl #22]
      d8:	12011119 	andne	r1, r1, #1073741830	; 0x40000006
      dc:	97184006 	ldrls	r4, [r8, -r6]
      e0:	13011942 	movwne	r1, #6466	; 0x1942
      e4:	34120000 	ldrcc	r0, [r2], #-0
      e8:	3a080300 	bcc	200cf0 <__bss_end__+0x1f6138>
      ec:	490b3b0b 	stmdbmi	fp, {r0, r1, r3, r8, r9, fp, ip, sp}
      f0:	00061c13 	andeq	r1, r6, r3, lsl ip
      f4:	82891300 	addhi	r1, r9, #0, 6
      f8:	01110101 	tsteq	r1, r1, lsl #2
      fc:	00001331 	andeq	r1, r0, r1, lsr r3
     100:	03003414 	movweq	r3, #1044	; 0x414
     104:	3b0b3a0e 	blcc	2ce944 <__bss_end__+0x2c3d8c>
     108:	3f13490b 	svccc	0x0013490b
     10c:	00180219 	andseq	r0, r8, r9, lsl r2
     110:	012e1500 	teqeq	lr, r0, lsl #10
     114:	0e03193f 	mcreq	9, 0, r1, cr3, cr15, {1}
     118:	0b3b0b3a 	bleq	ec2e08 <__bss_end__+0xeb8250>
     11c:	13491927 	movtne	r1, #39207	; 0x9927
     120:	1301193c 	movwne	r1, #6460	; 0x193c
     124:	05160000 	ldreq	r0, [r6, #-0]
     128:	00134900 	andseq	r4, r3, r0, lsl #18
     12c:	00181700 	andseq	r1, r8, r0, lsl #14
     130:	2e180000 	cdpcs	0, 1, cr0, cr8, cr0, {0}
     134:	03193f00 	tsteq	r9, #0, 30
     138:	3b0b3a0e 	blcc	2ce978 <__bss_end__+0x2c3dc0>
     13c:	3c19270b 	ldccc	7, cr2, [r9], {11}
     140:	19000019 	stmdbne	r0, {r0, r3, r4}
     144:	193f012e 	ldmdbne	pc!, {r1, r2, r3, r5, r8}	; <UNPREDICTABLE>
     148:	0b3a0e03 	bleq	e8395c <__bss_end__+0xe78da4>
     14c:	19270b3b 	stmdbne	r7!, {r0, r1, r3, r4, r5, r8, r9, fp}
     150:	1301193c 	movwne	r1, #6460	; 0x193c
     154:	2e1a0000 	cdpcs	0, 1, cr0, cr10, cr0, {0}
     158:	03193f01 	tsteq	r9, #1, 30
     15c:	3b0b3a0e 	blcc	2ce99c <__bss_end__+0x2c3de4>
     160:	3c19270b 	ldccc	7, cr2, [r9], {11}
     164:	00000019 	andeq	r0, r0, r9, lsl r0
     168:	25011101 	strcs	r1, [r1, #-257]	; 0x101
     16c:	030b130e 	movweq	r1, #45838	; 0xb30e
     170:	110e1b0e 	tstne	lr, lr, lsl #22
     174:	10061201 	andne	r1, r6, r1, lsl #4
     178:	02000017 	andeq	r0, r0, #23
     17c:	0b0b0024 	bleq	2c0214 <__bss_end__+0x2b565c>
     180:	08030b3e 	stmdaeq	r3, {r1, r2, r3, r4, r5, r8, r9, fp}
     184:	16030000 	strne	r0, [r3], -r0
     188:	3a0e0300 	bcc	380d90 <__bss_end__+0x3761d8>
     18c:	490b3b0b 	stmdbmi	fp, {r0, r1, r3, r8, r9, fp, ip, sp}
     190:	04000013 	streq	r0, [r0], #-19
     194:	0b0b0024 	bleq	2c022c <__bss_end__+0x2b5674>
     198:	0e030b3e 	vmoveq.16	d3[0], r0
     19c:	0f050000 	svceq	0x00050000
     1a0:	000b0b00 	andeq	r0, fp, r0, lsl #22
     1a4:	000f0600 	andeq	r0, pc, r0, lsl #12
     1a8:	13490b0b 	movtne	r0, #39691	; 0x9b0b
     1ac:	26070000 	strcs	r0, [r7], -r0
     1b0:	00134900 	andseq	r4, r3, r0, lsl #18
     1b4:	01010800 	tsteq	r1, r0, lsl #16
     1b8:	13011349 	movwne	r1, #4937	; 0x1349
     1bc:	21090000 	mrscs	r0, (UNDEF: 9)
     1c0:	2f134900 	svccs	0x00134900
     1c4:	0a00000b 	beq	1f8 <__code_start__-0x7e08>
     1c8:	0b0b0104 	bleq	2c05e0 <__bss_end__+0x2b5a28>
     1cc:	0b3b0b3a 	bleq	ec2ebc <__bss_end__+0xeb8304>
     1d0:	00001301 	andeq	r1, r0, r1, lsl #6
     1d4:	0300280b 	movweq	r2, #2059	; 0x80b
     1d8:	000d1c0e 	andeq	r1, sp, lr, lsl #24
     1dc:	01130c00 	tsteq	r3, r0, lsl #24
     1e0:	0b3a0b0b 	bleq	e82e14 <__bss_end__+0xe7825c>
     1e4:	13010b3b 	movwne	r0, #6971	; 0x1b3b
     1e8:	0d0d0000 	stceq	0, cr0, [sp, #-0]
     1ec:	3a0e0300 	bcc	380df4 <__bss_end__+0x37623c>
     1f0:	490b3b0b 	stmdbmi	fp, {r0, r1, r3, r8, r9, fp, ip, sp}
     1f4:	000b3813 	andeq	r3, fp, r3, lsl r8
     1f8:	01130e00 	tsteq	r3, r0, lsl #28
     1fc:	0b0b0e03 	bleq	2c3a10 <__bss_end__+0x2b8e58>
     200:	0b3b0b3a 	bleq	ec2ef0 <__bss_end__+0xeb8338>
     204:	00001301 	andeq	r1, r0, r1, lsl #6
     208:	03012e0f 	movweq	r2, #7695	; 0x1e0f
     20c:	3b0b3a0e 	blcc	2cea4c <__bss_end__+0x2c3e94>
     210:	4919270b 	ldmdbmi	r9, {r0, r1, r3, r8, r9, sl, sp}
     214:	010b2013 	tsteq	fp, r3, lsl r0
     218:	10000013 	andne	r0, r0, r3, lsl r0
     21c:	08030005 	stmdaeq	r3, {r0, r2}
     220:	0b3b0b3a 	bleq	ec2f10 <__bss_end__+0xeb8358>
     224:	00001349 	andeq	r1, r0, r9, asr #6
     228:	03000511 	movweq	r0, #1297	; 0x511
     22c:	3b0b3a0e 	blcc	2cea6c <__bss_end__+0x2c3eb4>
     230:	0013490b 	andseq	r4, r3, fp, lsl #18
     234:	012e1200 	teqeq	lr, r0, lsl #4
     238:	0b3a0e03 	bleq	e83a4c <__bss_end__+0xe78e94>
     23c:	19270b3b 	stmdbne	r7!, {r0, r1, r3, r4, r5, r8, r9, fp}
     240:	13010b20 	movwne	r0, #6944	; 0x1b20
     244:	34130000 	ldrcc	r0, [r3], #-0
     248:	3a080300 	bcc	200e50 <__bss_end__+0x1f6298>
     24c:	490b3b0b 	stmdbmi	fp, {r0, r1, r3, r8, r9, fp, ip, sp}
     250:	14000013 	strne	r0, [r0], #-19
     254:	0e03012e 	adfeqsp	f0, f3, #0.5
     258:	0b3b0b3a 	bleq	ec2f48 <__bss_end__+0xeb8390>
     25c:	13491927 	movtne	r1, #39207	; 0x9927
     260:	06120111 			; <UNDEFINED> instruction: 0x06120111
     264:	42971840 	addsmi	r1, r7, #64, 16	; 0x400000
     268:	00130119 	andseq	r0, r3, r9, lsl r1
     26c:	00051500 	andeq	r1, r5, r0, lsl #10
     270:	0b3a0803 	bleq	e82284 <__bss_end__+0xe776cc>
     274:	13490b3b 	movtne	r0, #39739	; 0x9b3b
     278:	00001702 	andeq	r1, r0, r2, lsl #14
     27c:	03000516 	movweq	r0, #1302	; 0x516
     280:	3b0b3a0e 	blcc	2ceac0 <__bss_end__+0x2c3f08>
     284:	0213490b 	andseq	r4, r3, #180224	; 0x2c000
     288:	17000017 	smladne	r0, r7, r0, r0
     28c:	08030034 	stmdaeq	r3, {r2, r4, r5}
     290:	0b3b0b3a 	bleq	ec2f80 <__bss_end__+0xeb83c8>
     294:	17021349 	strne	r1, [r2, -r9, asr #6]
     298:	0b180000 	bleq	6002a0 <__bss_end__+0x5f56e8>
     29c:	12011101 	andne	r1, r1, #1073741824	; 0x40000000
     2a0:	19000006 	stmdbne	r0, {r1, r2}
     2a4:	0e030034 	mcreq	0, 0, r0, cr3, cr4, {1}
     2a8:	0b3b0b3a 	bleq	ec2f98 <__bss_end__+0xeb83e0>
     2ac:	18021349 	stmdane	r2, {r0, r3, r6, r8, r9, ip}
     2b0:	341a0000 	ldrcc	r0, [sl], #-0
     2b4:	3a0e0300 	bcc	380ebc <__bss_end__+0x376304>
     2b8:	490b3b0b 	stmdbmi	fp, {r0, r1, r3, r8, r9, fp, ip, sp}
     2bc:	00170213 	andseq	r0, r7, r3, lsl r2
     2c0:	011d1b00 	tsteq	sp, r0, lsl #22
     2c4:	01111331 	tsteq	r1, r1, lsr r3
     2c8:	0b580612 	bleq	1601b18 <__bss_end__+0x15f6f60>
     2cc:	13010b59 	movwne	r0, #7001	; 0x1b59
     2d0:	051c0000 	ldreq	r0, [ip, #-0]
     2d4:	02133100 	andseq	r3, r3, #0, 2
     2d8:	1d000017 	stcne	0, cr0, [r0, #-92]	; 0xffffffa4
     2dc:	13310034 	teqne	r1, #52	; 0x34
     2e0:	00001702 	andeq	r1, r0, r2, lsl #14
     2e4:	0182891e 	orreq	r8, r2, lr, lsl r9
     2e8:	31011101 	tstcc	r1, r1, lsl #2
     2ec:	00130113 	andseq	r0, r3, r3, lsl r1
     2f0:	828a1f00 	addhi	r1, sl, #0, 30
     2f4:	18020001 	stmdane	r2, {r0}
     2f8:	00184291 	mulseq	r8, r1, r2
     2fc:	82892000 	addhi	r2, r9, #0
     300:	01110101 	tsteq	r1, r1, lsl #2
     304:	00001331 	andeq	r1, r0, r1, lsr r3
     308:	03012e21 	movweq	r2, #7713	; 0x1e21
     30c:	3b0b3a0e 	blcc	2ceb4c <__bss_end__+0x2c3f94>
     310:	1119270b 	tstne	r9, fp, lsl #14
     314:	40061201 	andmi	r1, r6, r1, lsl #4
     318:	19429718 	stmdbne	r2, {r3, r4, r8, r9, sl, ip, pc}^
     31c:	00001301 	andeq	r1, r0, r1, lsl #6
     320:	03003422 	movweq	r3, #1058	; 0x422
     324:	3413490e 	ldrcc	r4, [r3], #-2318	; 0x90e
     328:	00180219 	andseq	r0, r8, r9, lsl r2
     32c:	82892300 	addhi	r2, r9, #0, 6
     330:	01110001 	tsteq	r1, r1
     334:	00001331 	andeq	r1, r0, r1, lsr r3
     338:	3f012e24 	svccc	0x00012e24
     33c:	3a0e0319 	bcc	380fa8 <__bss_end__+0x3763f0>
     340:	270b3b0b 	strcs	r3, [fp, -fp, lsl #22]
     344:	12011119 	andne	r1, r1, #1073741830	; 0x40000006
     348:	97184006 	ldrls	r4, [r8, -r6]
     34c:	13011942 	movwne	r1, #6466	; 0x1942
     350:	2e250000 	cdpcs	0, 2, cr0, cr5, cr0, {0}
     354:	03193f01 	tsteq	r9, #1, 30
     358:	3b0b3a0e 	blcc	2ceb98 <__bss_end__+0x2c3fe0>
     35c:	4919270b 	ldmdbmi	r9, {r0, r1, r3, r8, r9, sl, sp}
     360:	12011113 	andne	r1, r1, #-1073741820	; 0xc0000004
     364:	97184006 	ldrls	r4, [r8, -r6]
     368:	13011942 	movwne	r1, #6466	; 0x1942
     36c:	0b260000 	bleq	980374 <__bss_end__+0x9757bc>
     370:	01175501 	tsteq	r7, r1, lsl #10
     374:	27000013 	smladcs	r0, r3, r0, r0
     378:	193f002e 	ldmdbne	pc!, {r1, r2, r3, r5}	; <UNPREDICTABLE>
     37c:	0b3a0e03 	bleq	e83b90 <__bss_end__+0xe78fd8>
     380:	19270b3b 	stmdbne	r7!, {r0, r1, r3, r4, r5, r8, r9, fp}
     384:	01111349 	tsteq	r1, r9, asr #6
     388:	18400612 	stmdane	r0, {r1, r4, r9, sl}^
     38c:	00194297 	mulseq	r9, r7, r2
     390:	012e2800 	teqeq	lr, r0, lsl #16
     394:	0e03193f 	mcreq	9, 0, r1, cr3, cr15, {1}
     398:	0b3b0b3a 	bleq	ec3088 <__bss_end__+0xeb84d0>
     39c:	13491927 	movtne	r1, #39207	; 0x9927
     3a0:	1301193c 	movwne	r1, #6460	; 0x193c
     3a4:	05290000 	streq	r0, [r9, #-0]!
     3a8:	00134900 	andseq	r4, r3, r0, lsl #18
     3ac:	00182a00 	andseq	r2, r8, r0, lsl #20
     3b0:	262b0000 	strtcs	r0, [fp], -r0
     3b4:	2c000000 	stccs	0, cr0, [r0], {-0}
     3b8:	193f002e 	ldmdbne	pc!, {r1, r2, r3, r5}	; <UNPREDICTABLE>
     3bc:	0b3a0e03 	bleq	e83bd0 <__bss_end__+0xe79018>
     3c0:	19270b3b 	stmdbne	r7!, {r0, r1, r3, r4, r5, r8, r9, fp}
     3c4:	0000193c 	andeq	r1, r0, ip, lsr r9
     3c8:	01110100 	tsteq	r1, r0, lsl #2
     3cc:	0b130e25 	bleq	4c3c68 <__bss_end__+0x4b90b0>
     3d0:	0e1b0e03 	cdpeq	14, 1, cr0, cr11, cr3, {0}
     3d4:	06120111 			; <UNDEFINED> instruction: 0x06120111
     3d8:	00001710 	andeq	r1, r0, r0, lsl r7
     3dc:	0b002402 	bleq	93ec <rpi_set_output+0x40>
     3e0:	030b3e0b 	movweq	r3, #48651	; 0xbe0b
     3e4:	03000008 	movweq	r0, #8
     3e8:	0b0b0024 	bleq	2c0480 <__bss_end__+0x2b58c8>
     3ec:	0e030b3e 	vmoveq.16	d3[0], r0
     3f0:	16040000 	strne	r0, [r4], -r0
     3f4:	3a0e0300 	bcc	380ffc <__bss_end__+0x376444>
     3f8:	490b3b0b 	stmdbmi	fp, {r0, r1, r3, r8, r9, fp, ip, sp}
     3fc:	05000013 	streq	r0, [r0, #-19]
     400:	0b0b000f 	bleq	2c0444 <__bss_end__+0x2b588c>
     404:	0f060000 	svceq	0x00060000
     408:	490b0b00 	stmdbmi	fp, {r8, r9, fp}
     40c:	07000013 	smladeq	r0, r3, r0, r0
     410:	13490026 	movtne	r0, #36902	; 0x9026
     414:	04080000 	streq	r0, [r8], #-0
     418:	3a0b0b01 	bcc	2c3024 <__bss_end__+0x2b846c>
     41c:	010b3b0b 	tsteq	fp, fp, lsl #22
     420:	09000013 	stmdbeq	r0, {r0, r1, r4}
     424:	0e030028 	cdpeq	0, 0, cr0, cr3, cr8, {1}
     428:	00000d1c 	andeq	r0, r0, ip, lsl sp
     42c:	0b01130a 	bleq	4505c <__bss_end__+0x3a4a4>
     430:	3b0b3a0b 	blcc	2cec64 <__bss_end__+0x2c40ac>
     434:	0013010b 	andseq	r0, r3, fp, lsl #2
     438:	000d0b00 	andeq	r0, sp, r0, lsl #22
     43c:	0b3a0e03 	bleq	e83c50 <__bss_end__+0xe79098>
     440:	13490b3b 	movtne	r0, #39739	; 0x9b3b
     444:	00000b38 	andeq	r0, r0, r8, lsr fp
     448:	0301130c 	movweq	r1, #4876	; 0x130c
     44c:	3a0b0b0e 	bcc	2c308c <__bss_end__+0x2b84d4>
     450:	010b3b0b 	tsteq	fp, fp, lsl #22
     454:	0d000013 	stceq	0, cr0, [r0, #-76]	; 0xffffffb4
     458:	0e03012e 	adfeqsp	f0, f3, #0.5
     45c:	0b3b0b3a 	bleq	ec314c <__bss_end__+0xeb8594>
     460:	13491927 	movtne	r1, #39207	; 0x9927
     464:	13010b20 	movwne	r0, #6944	; 0x1b20
     468:	050e0000 	streq	r0, [lr, #-0]
     46c:	3a080300 	bcc	201074 <__bss_end__+0x1f64bc>
     470:	490b3b0b 	stmdbmi	fp, {r0, r1, r3, r8, r9, fp, ip, sp}
     474:	0f000013 	svceq	0x00000013
     478:	0e03012e 	adfeqsp	f0, f3, #0.5
     47c:	0b3b0b3a 	bleq	ec316c <__bss_end__+0xeb85b4>
     480:	13491927 	movtne	r1, #39207	; 0x9927
     484:	06120111 			; <UNDEFINED> instruction: 0x06120111
     488:	42971840 	addsmi	r1, r7, #64, 16	; 0x400000
     48c:	00130119 	andseq	r0, r3, r9, lsl r1
     490:	00051000 	andeq	r1, r5, r0
     494:	0b3a0803 	bleq	e824a8 <__bss_end__+0xe778f0>
     498:	13490b3b 	movtne	r0, #39739	; 0x9b3b
     49c:	00001702 	andeq	r1, r0, r2, lsl #14
     4a0:	03000511 	movweq	r0, #1297	; 0x511
     4a4:	3b0b3a0e 	blcc	2cece4 <__bss_end__+0x2c412c>
     4a8:	0213490b 	andseq	r4, r3, #180224	; 0x2c000
     4ac:	12000017 	andne	r0, r0, #23
     4b0:	08030034 	stmdaeq	r3, {r2, r4, r5}
     4b4:	0b3b0b3a 	bleq	ec31a4 <__bss_end__+0xeb85ec>
     4b8:	17021349 	strne	r1, [r2, -r9, asr #6]
     4bc:	34130000 	ldrcc	r0, [r3], #-0
     4c0:	3a0e0300 	bcc	3810c8 <__bss_end__+0x376510>
     4c4:	490b3b0b 	stmdbmi	fp, {r0, r1, r3, r8, r9, fp, ip, sp}
     4c8:	00170213 	andseq	r0, r7, r3, lsl r2
     4cc:	82891400 	addhi	r1, r9, #0, 8
     4d0:	01110101 	tsteq	r1, r1, lsl #2
     4d4:	13011331 	movwne	r1, #4913	; 0x1331
     4d8:	8a150000 	bhi	5404e0 <__bss_end__+0x535928>
     4dc:	02000182 	andeq	r0, r0, #-2147483616	; 0x80000020
     4e0:	18429118 	stmdane	r2, {r3, r4, r8, ip, pc}^
     4e4:	89160000 	ldmdbhi	r6, {}	; <UNPREDICTABLE>
     4e8:	11000182 	smlabbne	r0, r2, r1, r0
     4ec:	00133101 	andseq	r3, r3, r1, lsl #2
     4f0:	82891700 	addhi	r1, r9, #0, 14
     4f4:	01110101 	tsteq	r1, r1, lsl #2
     4f8:	00001331 	andeq	r1, r0, r1, lsr r3
     4fc:	03012e18 	movweq	r2, #7704	; 0x1e18
     500:	3b0b3a0e 	blcc	2ced40 <__bss_end__+0x2c4188>
     504:	1119270b 	tstne	r9, fp, lsl #14
     508:	40061201 	andmi	r1, r6, r1, lsl #4
     50c:	19429718 	stmdbne	r2, {r3, r4, r8, r9, sl, ip, pc}^
     510:	00001301 	andeq	r1, r0, r1, lsl #6
     514:	03003419 	movweq	r3, #1049	; 0x419
     518:	3413490e 	ldrcc	r4, [r3], #-2318	; 0x90e
     51c:	00180219 	andseq	r0, r8, r9, lsl r2
     520:	00341a00 	eorseq	r1, r4, r0, lsl #20
     524:	0b3a0803 	bleq	e82538 <__bss_end__+0xe77980>
     528:	13490b3b 	movtne	r0, #39739	; 0x9b3b
     52c:	011b0000 	tsteq	fp, r0
     530:	01134901 	tsteq	r3, r1, lsl #18
     534:	1c000013 	stcne	0, cr0, [r0], {19}
     538:	13490021 	movtne	r0, #36897	; 0x9021
     53c:	00000b2f 	andeq	r0, r0, pc, lsr #22
     540:	0300341d 	movweq	r3, #1053	; 0x41d
     544:	3b0b3a08 	blcc	2ced6c <__bss_end__+0x2c41b4>
     548:	0213490b 	andseq	r4, r3, #180224	; 0x2c000
     54c:	1e000018 	mcrne	0, 0, r0, cr0, cr8, {0}
     550:	0e030034 	mcreq	0, 0, r0, cr3, cr4, {1}
     554:	0b3b0b3a 	bleq	ec3244 <__bss_end__+0xeb868c>
     558:	18021349 	stmdane	r2, {r0, r3, r6, r8, r9, ip}
     55c:	341f0000 	ldrcc	r0, [pc], #-0	; 564 <__code_start__-0x7a9c>
     560:	3a0e0300 	bcc	381168 <__bss_end__+0x3765b0>
     564:	490b3b0b 	stmdbmi	fp, {r0, r1, r3, r8, r9, fp, ip, sp}
     568:	00061c13 	andeq	r1, r6, r3, lsl ip
     56c:	00342000 	eorseq	r2, r4, r0
     570:	0b3a0e03 	bleq	e83d84 <__bss_end__+0xe791cc>
     574:	13490b3b 	movtne	r0, #39739	; 0x9b3b
     578:	193c193f 	ldmdbne	ip!, {r0, r1, r2, r3, r4, r5, r8, fp, ip}
     57c:	0b210000 	bleq	840584 <__bss_end__+0x8359cc>
     580:	12011101 	andne	r1, r1, #1073741824	; 0x40000000
     584:	00130106 	andseq	r0, r3, r6, lsl #2
     588:	010b2200 	mrseq	r2, R11_fiq
     58c:	13011755 	movwne	r1, #5973	; 0x1755
     590:	2e230000 	cdpcs	0, 2, cr0, cr3, cr0, {0}
     594:	3a0e0301 	bcc	3811a0 <__bss_end__+0x3765e8>
     598:	27053b0b 	strcs	r3, [r5, -fp, lsl #22]
     59c:	11134919 	tstne	r3, r9, lsl r9
     5a0:	40061201 	andmi	r1, r6, r1, lsl #4
     5a4:	19429718 	stmdbne	r2, {r3, r4, r8, r9, sl, ip, pc}^
     5a8:	00001301 	andeq	r1, r0, r1, lsl #6
     5ac:	03003424 	movweq	r3, #1060	; 0x424
     5b0:	3b0b3a0e 	blcc	2cedf0 <__bss_end__+0x2c4238>
     5b4:	02134905 	andseq	r4, r3, #81920	; 0x14000
     5b8:	25000017 	strcs	r0, [r0, #-23]
     5bc:	0e030034 	mcreq	0, 0, r0, cr3, cr4, {1}
     5c0:	053b0b3a 	ldreq	r0, [fp, #-2874]!	; 0xb3a
     5c4:	18021349 	stmdane	r2, {r0, r3, r6, r8, r9, ip}
     5c8:	34260000 	strtcc	r0, [r6], #-0
     5cc:	3a080300 	bcc	2011d4 <__bss_end__+0x1f661c>
     5d0:	49053b0b 	stmdbmi	r5, {r0, r1, r3, r8, r9, fp, ip, sp}
     5d4:	00180213 	andseq	r0, r8, r3, lsl r2
     5d8:	012e2700 	teqeq	lr, r0, lsl #14
     5dc:	0e03193f 	mcreq	9, 0, r1, cr3, cr15, {1}
     5e0:	0b3b0b3a 	bleq	ec32d0 <__bss_end__+0xeb8718>
     5e4:	13491927 	movtne	r1, #39207	; 0x9927
     5e8:	06120111 			; <UNDEFINED> instruction: 0x06120111
     5ec:	42971840 	addsmi	r1, r7, #64, 16	; 0x400000
     5f0:	00130119 	andseq	r0, r3, r9, lsl r1
     5f4:	012e2800 	teqeq	lr, r0, lsl #16
     5f8:	0e03193f 	mcreq	9, 0, r1, cr3, cr15, {1}
     5fc:	053b0b3a 	ldreq	r0, [fp, #-2874]!	; 0xb3a
     600:	01111927 	tsteq	r1, r7, lsr #18
     604:	18400612 	stmdane	r0, {r1, r4, r9, sl}^
     608:	01194297 			; <UNDEFINED> instruction: 0x01194297
     60c:	29000013 	stmdbcs	r0, {r0, r1, r4}
     610:	193f012e 	ldmdbne	pc!, {r1, r2, r3, r5, r8}	; <UNPREDICTABLE>
     614:	0b3a0e03 	bleq	e83e28 <__bss_end__+0xe79270>
     618:	1927053b 	stmdbne	r7!, {r0, r1, r3, r4, r5, r8, sl}
     61c:	01111349 	tsteq	r1, r9, asr #6
     620:	18400612 	stmdane	r0, {r1, r4, r9, sl}^
     624:	01194297 			; <UNDEFINED> instruction: 0x01194297
     628:	2a000013 	bcs	67c <__code_start__-0x7984>
     62c:	193f002e 	ldmdbne	pc!, {r1, r2, r3, r5}	; <UNPREDICTABLE>
     630:	0b3a0e03 	bleq	e83e44 <__bss_end__+0xe7928c>
     634:	19270b3b 	stmdbne	r7!, {r0, r1, r3, r4, r5, r8, r9, fp}
     638:	193c1349 	ldmdbne	ip!, {r0, r3, r6, r8, r9, ip}
     63c:	2e2b0000 	cdpcs	0, 2, cr0, cr11, cr0, {0}
     640:	03193f01 	tsteq	r9, #1, 30
     644:	3b0b3a0e 	blcc	2cee84 <__bss_end__+0x2c42cc>
     648:	4919270b 	ldmdbmi	r9, {r0, r1, r3, r8, r9, sl, sp}
     64c:	01193c13 	tsteq	r9, r3, lsl ip
     650:	2c000013 	stccs	0, cr0, [r0], {19}
     654:	13490005 	movtne	r0, #36869	; 0x9005
     658:	182d0000 	stmdane	sp!, {}	; <UNPREDICTABLE>
     65c:	2e000000 	cdpcs	0, 0, cr0, cr0, cr0, {0}
     660:	193f002e 	ldmdbne	pc!, {r1, r2, r3, r5}	; <UNPREDICTABLE>
     664:	0b3a0e03 	bleq	e83e78 <__bss_end__+0xe792c0>
     668:	19270b3b 	stmdbne	r7!, {r0, r1, r3, r4, r5, r8, r9, fp}
     66c:	0000193c 	andeq	r1, r0, ip, lsr r9
     670:	3f012e2f 	svccc	0x00012e2f
     674:	3a0e0319 	bcc	3812e0 <__bss_end__+0x376728>
     678:	270b3b0b 	strcs	r3, [fp, -fp, lsl #22]
     67c:	01193c19 	tsteq	r9, r9, lsl ip
     680:	00000013 	andeq	r0, r0, r3, lsl r0
     684:	25011101 	strcs	r1, [r1, #-257]	; 0x101
     688:	030b130e 	movweq	r1, #45838	; 0xb30e
     68c:	110e1b0e 	tstne	lr, lr, lsl #22
     690:	10061201 	andne	r1, r6, r1, lsl #4
     694:	02000017 	andeq	r0, r0, #23
     698:	0b0b0024 	bleq	2c0730 <__bss_end__+0x2b5b78>
     69c:	08030b3e 	stmdaeq	r3, {r1, r2, r3, r4, r5, r8, r9, fp}
     6a0:	24030000 	strcs	r0, [r3], #-0
     6a4:	3e0b0b00 	vmlacc.f64	d0, d11, d0
     6a8:	000e030b 	andeq	r0, lr, fp, lsl #6
     6ac:	00160400 	andseq	r0, r6, r0, lsl #8
     6b0:	0b3a0e03 	bleq	e83ec4 <__bss_end__+0xe7930c>
     6b4:	13490b3b 	movtne	r0, #39739	; 0x9b3b
     6b8:	0f050000 	svceq	0x00050000
     6bc:	490b0b00 	stmdbmi	fp, {r8, r9, fp}
     6c0:	06000013 			; <UNDEFINED> instruction: 0x06000013
     6c4:	13490026 	movtne	r0, #36902	; 0x9026
     6c8:	2e070000 	cdpcs	0, 0, cr0, cr7, cr0, {0}
     6cc:	03193f01 	tsteq	r9, #1, 30
     6d0:	3b0b3a0e 	blcc	2cef10 <__bss_end__+0x2c4358>
     6d4:	4919270b 	ldmdbmi	r9, {r0, r1, r3, r8, r9, sl, sp}
     6d8:	12011113 	andne	r1, r1, #-1073741820	; 0xc0000004
     6dc:	97184006 	ldrls	r4, [r8, -r6]
     6e0:	13011942 	movwne	r1, #6466	; 0x1942
     6e4:	05080000 	streq	r0, [r8, #-0]
     6e8:	3a0e0300 	bcc	3812f0 <__bss_end__+0x376738>
     6ec:	490b3b0b 	stmdbmi	fp, {r0, r1, r3, r8, r9, fp, ip, sp}
     6f0:	00170213 	andseq	r0, r7, r3, lsl r2
     6f4:	00050900 	andeq	r0, r5, r0, lsl #18
     6f8:	0b3a0803 	bleq	e8270c <__bss_end__+0xe77b54>
     6fc:	13490b3b 	movtne	r0, #39739	; 0x9b3b
     700:	00001702 	andeq	r1, r0, r2, lsl #14
     704:	0300340a 	movweq	r3, #1034	; 0x40a
     708:	3b0b3a0e 	blcc	2cef48 <__bss_end__+0x2c4390>
     70c:	0213490b 	andseq	r4, r3, #180224	; 0x2c000
     710:	0b000017 	bleq	774 <__code_start__-0x788c>
     714:	08030034 	stmdaeq	r3, {r2, r4, r5}
     718:	0b3b0b3a 	bleq	ec3408 <__bss_end__+0xeb8850>
     71c:	17021349 	strne	r1, [r2, -r9, asr #6]
     720:	260c0000 	strcs	r0, [ip], -r0
     724:	00000000 	andeq	r0, r0, r0
     728:	25011101 	strcs	r1, [r1, #-257]	; 0x101
     72c:	030b130e 	movweq	r1, #45838	; 0xb30e
     730:	110e1b0e 	tstne	lr, lr, lsl #22
     734:	10061201 	andne	r1, r6, r1, lsl #4
     738:	02000017 	andeq	r0, r0, #23
     73c:	0b0b0024 	bleq	2c07d4 <__bss_end__+0x2b5c1c>
     740:	0e030b3e 	vmoveq.16	d3[0], r0
     744:	24030000 	strcs	r0, [r3], #-0
     748:	3e0b0b00 	vmlacc.f64	d0, d11, d0
     74c:	0008030b 	andeq	r0, r8, fp, lsl #6
     750:	000f0400 	andeq	r0, pc, r0, lsl #8
     754:	00000b0b 	andeq	r0, r0, fp, lsl #22
     758:	0b000f05 	bleq	4374 <__code_start__-0x3c8c>
     75c:	0013490b 	andseq	r4, r3, fp, lsl #18
     760:	00160600 	andseq	r0, r6, r0, lsl #12
     764:	0b3a0e03 	bleq	e83f78 <__bss_end__+0xe793c0>
     768:	13490b3b 	movtne	r0, #39739	; 0x9b3b
     76c:	2e070000 	cdpcs	0, 0, cr0, cr7, cr0, {0}
     770:	03193f01 	tsteq	r9, #1, 30
     774:	3b0b3a0e 	blcc	2cefb4 <__bss_end__+0x2c43fc>
     778:	4919270b 	ldmdbmi	r9, {r0, r1, r3, r8, r9, sl, sp}
     77c:	12011113 	andne	r1, r1, #-1073741820	; 0xc0000004
     780:	97184006 	ldrls	r4, [r8, -r6]
     784:	00001942 	andeq	r1, r0, r2, asr #18
     788:	03000508 	movweq	r0, #1288	; 0x508
     78c:	3b0b3a08 	blcc	2cefb4 <__bss_end__+0x2c43fc>
     790:	0213490b 	andseq	r4, r3, #180224	; 0x2c000
     794:	09000018 	stmdbeq	r0, {r3, r4}
     798:	08030005 	stmdaeq	r3, {r0, r2}
     79c:	0b3b0b3a 	bleq	ec348c <__bss_end__+0xeb88d4>
     7a0:	17021349 	strne	r1, [r2, -r9, asr #6]
     7a4:	340a0000 	strcc	r0, [sl], #-0
     7a8:	3a080300 	bcc	2013b0 <__bss_end__+0x1f67f8>
     7ac:	490b3b0b 	stmdbmi	fp, {r0, r1, r3, r8, r9, fp, ip, sp}
     7b0:	00170213 	andseq	r0, r7, r3, lsl r2
     7b4:	00340b00 	eorseq	r0, r4, r0, lsl #22
     7b8:	0b3a0803 	bleq	e827cc <__bss_end__+0xe77c14>
     7bc:	13490b3b 	movtne	r0, #39739	; 0x9b3b
     7c0:	00001802 	andeq	r1, r0, r2, lsl #16
     7c4:	01110100 	tsteq	r1, r0, lsl #2
     7c8:	0b130e25 	bleq	4c4064 <__bss_end__+0x4b94ac>
     7cc:	0e1b0e03 	cdpeq	14, 1, cr0, cr11, cr3, {0}
     7d0:	06120111 			; <UNDEFINED> instruction: 0x06120111
     7d4:	00001710 	andeq	r1, r0, r0, lsl r7
     7d8:	03001602 	movweq	r1, #1538	; 0x602
     7dc:	3b0b3a0e 	blcc	2cf01c <__bss_end__+0x2c4464>
     7e0:	0013490b 	andseq	r4, r3, fp, lsl #18
     7e4:	01130300 	tsteq	r3, r0, lsl #6
     7e8:	0b0b0e03 	bleq	2c3ffc <__bss_end__+0x2b9444>
     7ec:	0b3b0b3a 	bleq	ec34dc <__bss_end__+0xeb8924>
     7f0:	00001301 	andeq	r1, r0, r1, lsl #6
     7f4:	03000d04 	movweq	r0, #3332	; 0xd04
     7f8:	3813490e 	ldmdacc	r3, {r1, r2, r3, r8, fp, lr}
     7fc:	0019340b 	andseq	r3, r9, fp, lsl #8
     800:	000f0500 	andeq	r0, pc, r0, lsl #10
     804:	00000b0b 	andeq	r0, r0, fp, lsl #22
     808:	0b002406 	bleq	9828 <dummy>
     80c:	030b3e0b 	movweq	r3, #48651	; 0xbe0b
     810:	07000008 	streq	r0, [r0, -r8]
     814:	0b0b0024 	bleq	2c08ac <__bss_end__+0x2b5cf4>
     818:	0e030b3e 	vmoveq.16	d3[0], r0
     81c:	0f080000 	svceq	0x00080000
     820:	490b0b00 	stmdbmi	fp, {r8, r9, fp}
     824:	09000013 	stmdbeq	r0, {r0, r1, r4}
     828:	13490026 	movtne	r0, #36902	; 0x9026
     82c:	2e0a0000 	cdpcs	0, 0, cr0, cr10, cr0, {0}
     830:	03193f01 	tsteq	r9, #1, 30
     834:	3b0b3a0e 	blcc	2cf074 <__bss_end__+0x2c44bc>
     838:	4919270b 	ldmdbmi	r9, {r0, r1, r3, r8, r9, sl, sp}
     83c:	12011113 	andne	r1, r1, #-1073741820	; 0xc0000004
     840:	97184006 	ldrls	r4, [r8, -r6]
     844:	13011942 	movwne	r1, #6466	; 0x1942
     848:	050b0000 	streq	r0, [fp, #-0]
     84c:	3a080300 	bcc	201454 <__bss_end__+0x1f689c>
     850:	490b3b0b 	stmdbmi	fp, {r0, r1, r3, r8, r9, fp, ip, sp}
     854:	00180213 	andseq	r0, r8, r3, lsl r2
     858:	00180c00 	andseq	r0, r8, r0, lsl #24
     85c:	340d0000 	strcc	r0, [sp], #-0
     860:	3a080300 	bcc	201468 <__bss_end__+0x1f68b0>
     864:	490b3b0b 	stmdbmi	fp, {r0, r1, r3, r8, r9, fp, ip, sp}
     868:	00180213 	andseq	r0, r8, r3, lsl r2
     86c:	00340e00 	eorseq	r0, r4, r0, lsl #28
     870:	0b3a0e03 	bleq	e84084 <__bss_end__+0xe794cc>
     874:	13490b3b 	movtne	r0, #39739	; 0x9b3b
     878:	00001802 	andeq	r1, r0, r2, lsl #16
     87c:	0300340f 	movweq	r3, #1039	; 0x40f
     880:	3b0b3a08 	blcc	2cf0a8 <__bss_end__+0x2c44f0>
     884:	0213490b 	andseq	r4, r3, #180224	; 0x2c000
     888:	10000017 	andne	r0, r0, r7, lsl r0
     88c:	01018289 	smlabbeq	r1, r9, r2, r8
     890:	13310111 	teqne	r1, #1073741828	; 0x40000004
     894:	00001301 	andeq	r1, r0, r1, lsl #6
     898:	01828a11 	orreq	r8, r2, r1, lsl sl
     89c:	91180200 	tstls	r8, r0, lsl #4
     8a0:	00001842 	andeq	r1, r0, r2, asr #16
     8a4:	01828912 	orreq	r8, r2, r2, lsl r9
     8a8:	00011101 	andeq	r1, r1, r1, lsl #2
     8ac:	01011300 	mrseq	r1, SP_irq
     8b0:	13011349 	movwne	r1, #4937	; 0x1349
     8b4:	21140000 	tstcs	r4, r0
     8b8:	2f134900 	svccs	0x00134900
     8bc:	15000005 	strne	r0, [r0, #-5]
     8c0:	19270115 	stmdbne	r7!, {r0, r2, r4, r8}
     8c4:	13011349 	movwne	r1, #4937	; 0x1349
     8c8:	05160000 	ldreq	r0, [r6, #-0]
     8cc:	00134900 	andseq	r4, r3, r0, lsl #18
     8d0:	00341700 	eorseq	r1, r4, r0, lsl #14
     8d4:	0b3a0e03 	bleq	e840e8 <__bss_end__+0xe79530>
     8d8:	13490b3b 	movtne	r0, #39739	; 0x9b3b
     8dc:	193c193f 	ldmdbne	ip!, {r0, r1, r2, r3, r4, r5, r8, fp, ip}
     8e0:	2e180000 	cdpcs	0, 1, cr0, cr8, cr0, {0}
     8e4:	03193f01 	tsteq	r9, #1, 30
     8e8:	3b0b3a0e 	blcc	2cf128 <__bss_end__+0x2c4570>
     8ec:	4919270b 	ldmdbmi	r9, {r0, r1, r3, r8, r9, sl, sp}
     8f0:	00193c13 	andseq	r3, r9, r3, lsl ip
     8f4:	11010000 	mrsne	r0, (UNDEF: 1)
     8f8:	130e2501 	movwne	r2, #58625	; 0xe501
     8fc:	1b0e030b 	blne	381530 <__bss_end__+0x376978>
     900:	1201110e 	andne	r1, r1, #-2147483645	; 0x80000003
     904:	00171006 	andseq	r1, r7, r6
     908:	00240200 	eoreq	r0, r4, r0, lsl #4
     90c:	0b3e0b0b 	bleq	f83540 <__bss_end__+0xf78988>
     910:	00000803 	andeq	r0, r0, r3, lsl #16
     914:	0b002403 	bleq	9928 <uart_can_putc+0x14>
     918:	030b3e0b 	movweq	r3, #48651	; 0xbe0b
     91c:	0400000e 	streq	r0, [r0], #-14
     920:	0e03012e 	adfeqsp	f0, f3, #0.5
     924:	0b3b0b3a 	bleq	ec3614 <__bss_end__+0xeb8a5c>
     928:	13491927 	movtne	r1, #39207	; 0x9927
     92c:	06120111 			; <UNDEFINED> instruction: 0x06120111
     930:	42971840 	addsmi	r1, r7, #64, 16	; 0x400000
     934:	00130119 	andseq	r0, r3, r9, lsl r1
     938:	00050500 	andeq	r0, r5, r0, lsl #10
     93c:	0b3a0803 	bleq	e82950 <__bss_end__+0xe77d98>
     940:	13490b3b 	movtne	r0, #39739	; 0x9b3b
     944:	00001702 	andeq	r1, r0, r2, lsl #14
     948:	01828906 	orreq	r8, r2, r6, lsl #18
     94c:	31011101 	tstcc	r1, r1, lsl #2
     950:	07000013 	smladeq	r0, r3, r0, r0
     954:	0001828a 	andeq	r8, r1, sl, lsl #5
     958:	42911802 	addsmi	r1, r1, #131072	; 0x20000
     95c:	08000018 	stmdaeq	r0, {r3, r4}
     960:	193f002e 	ldmdbne	pc!, {r1, r2, r3, r5}	; <UNPREDICTABLE>
     964:	0b3a0e03 	bleq	e84178 <__bss_end__+0xe795c0>
     968:	19270b3b 	stmdbne	r7!, {r0, r1, r3, r4, r5, r8, r9, fp}
     96c:	06120111 			; <UNDEFINED> instruction: 0x06120111
     970:	42971840 	addsmi	r1, r7, #64, 16	; 0x400000
     974:	09000019 	stmdbeq	r0, {r0, r3, r4}
     978:	193f012e 	ldmdbne	pc!, {r1, r2, r3, r5, r8}	; <UNPREDICTABLE>
     97c:	0b3a0e03 	bleq	e84190 <__bss_end__+0xe795d8>
     980:	19270b3b 	stmdbne	r7!, {r0, r1, r3, r4, r5, r8, r9, fp}
     984:	06120111 			; <UNDEFINED> instruction: 0x06120111
     988:	42971840 	addsmi	r1, r7, #64, 16	; 0x400000
     98c:	00130119 	andseq	r0, r3, r9, lsl r1
     990:	00050a00 	andeq	r0, r5, r0, lsl #20
     994:	0b3a0803 	bleq	e829a8 <__bss_end__+0xe77df0>
     998:	13490b3b 	movtne	r0, #39739	; 0x9b3b
     99c:	00001802 	andeq	r1, r0, r2, lsl #16
     9a0:	2701150b 	strcs	r1, [r1, -fp, lsl #10]
     9a4:	01134919 	tsteq	r3, r9, lsl r9
     9a8:	0c000013 	stceq	0, cr0, [r0], {19}
     9ac:	13490005 	movtne	r0, #36869	; 0x9005
     9b0:	0f0d0000 	svceq	0x000d0000
     9b4:	490b0b00 	stmdbmi	fp, {r8, r9, fp}
     9b8:	0e000013 	mcreq	0, 0, r0, cr0, cr3, {0}
     9bc:	0e030034 	mcreq	0, 0, r0, cr3, cr4, {1}
     9c0:	0b3b0b3a 	bleq	ec36b0 <__bss_end__+0xeb8af8>
     9c4:	193f1349 	ldmdbne	pc!, {r0, r3, r6, r8, r9, ip}	; <UNPREDICTABLE>
     9c8:	00001802 	andeq	r1, r0, r2, lsl #16
     9cc:	3f012e0f 	svccc	0x00012e0f
     9d0:	3a0e0319 	bcc	38163c <__bss_end__+0x376a84>
     9d4:	270b3b0b 	strcs	r3, [fp, -fp, lsl #22]
     9d8:	00193c19 	andseq	r3, r9, r9, lsl ip
     9dc:	11010000 	mrsne	r0, (UNDEF: 1)
     9e0:	130e2501 	movwne	r2, #58625	; 0xe501
     9e4:	1b0e030b 	blne	381618 <__bss_end__+0x376a60>
     9e8:	1201110e 	andne	r1, r1, #-2147483645	; 0x80000003
     9ec:	00171006 	andseq	r1, r7, r6
     9f0:	00240200 	eoreq	r0, r4, r0, lsl #4
     9f4:	0b3e0b0b 	bleq	f83628 <__bss_end__+0xf78a70>
     9f8:	00000803 	andeq	r0, r0, r3, lsl #16
     9fc:	0b002403 	bleq	9a10 <gpio_set_output+0x4>
     a00:	030b3e0b 	movweq	r3, #48651	; 0xbe0b
     a04:	0400000e 	streq	r0, [r0], #-14
     a08:	0b0b000f 	bleq	2c0a4c <__bss_end__+0x2b5e94>
     a0c:	00001349 	andeq	r1, r0, r9, asr #6
     a10:	49002605 	stmdbmi	r0, {r0, r2, r9, sl, sp}
     a14:	06000013 			; <UNDEFINED> instruction: 0x06000013
     a18:	193f012e 	ldmdbne	pc!, {r1, r2, r3, r5, r8}	; <UNPREDICTABLE>
     a1c:	0b3a0e03 	bleq	e84230 <__bss_end__+0xe79678>
     a20:	19270b3b 	stmdbne	r7!, {r0, r1, r3, r4, r5, r8, r9, fp}
     a24:	01111349 	tsteq	r1, r9, asr #6
     a28:	18400612 	stmdane	r0, {r1, r4, r9, sl}^
     a2c:	01194296 			; <UNDEFINED> instruction: 0x01194296
     a30:	07000013 	smladeq	r0, r3, r0, r0
     a34:	08030005 	stmdaeq	r3, {r0, r2}
     a38:	0b3b0b3a 	bleq	ec3728 <__bss_end__+0xeb8b70>
     a3c:	17021349 	strne	r1, [r2, -r9, asr #6]
     a40:	15080000 	strne	r0, [r8, #-0]
     a44:	49192701 	ldmdbmi	r9, {r0, r8, r9, sl, sp}
     a48:	00130113 	andseq	r0, r3, r3, lsl r1
     a4c:	00050900 	andeq	r0, r5, r0, lsl #18
     a50:	00001349 	andeq	r1, r0, r9, asr #6
     a54:	0300340a 	movweq	r3, #1034	; 0x40a
     a58:	3b0b3a0e 	blcc	2cf298 <__bss_end__+0x2c46e0>
     a5c:	3f13490b 	svccc	0x0013490b
     a60:	00193c19 	andseq	r3, r9, r9, lsl ip
     a64:	00340b00 	eorseq	r0, r4, r0, lsl #22
     a68:	0b3a0e03 	bleq	e8427c <__bss_end__+0xe796c4>
     a6c:	13490b3b 	movtne	r0, #39739	; 0x9b3b
     a70:	1802193f 	stmdane	r2, {r0, r1, r2, r3, r4, r5, r8, fp, ip}
     a74:	01000000 	mrseq	r0, (UNDEF: 0)
     a78:	0e250111 	mcreq	1, 1, r0, cr5, cr1, {0}
     a7c:	0e030b13 	vmoveq.32	d3[0], r0
     a80:	01110e1b 	tsteq	r1, fp, lsl lr
     a84:	17100612 			; <UNDEFINED> instruction: 0x17100612
     a88:	24020000 	strcs	r0, [r2], #-0
     a8c:	3e0b0b00 	vmlacc.f64	d0, d11, d0
     a90:	0008030b 	andeq	r0, r8, fp, lsl #6
     a94:	00240300 	eoreq	r0, r4, r0, lsl #6
     a98:	0b3e0b0b 	bleq	f836cc <__bss_end__+0xf78b14>
     a9c:	00000e03 	andeq	r0, r0, r3, lsl #28
     aa0:	0b000f04 	bleq	46b8 <__code_start__-0x3948>
     aa4:	0500000b 	streq	r0, [r0, #-11]
     aa8:	0b0b000f 	bleq	2c0aec <__bss_end__+0x2b5f34>
     aac:	00001349 	andeq	r1, r0, r9, asr #6
     ab0:	49002606 	stmdbmi	r0, {r1, r2, r9, sl, sp}
     ab4:	07000013 	smladeq	r0, r3, r0, r0
     ab8:	0e030016 	mcreq	0, 0, r0, cr3, cr6, {0}
     abc:	0b3b0b3a 	bleq	ec37ac <__bss_end__+0xeb8bf4>
     ac0:	00001349 	andeq	r1, r0, r9, asr #6
     ac4:	03011308 	movweq	r1, #4872	; 0x1308
     ac8:	3a0b0b0e 	bcc	2c3708 <__bss_end__+0x2b8b50>
     acc:	010b3b0b 	tsteq	fp, fp, lsl #22
     ad0:	09000013 	stmdbeq	r0, {r0, r1, r4}
     ad4:	0e03000d 	cdpeq	0, 0, cr0, cr3, cr13, {0}
     ad8:	0b381349 	bleq	e05804 <__bss_end__+0xdfac4c>
     adc:	00001934 	andeq	r1, r0, r4, lsr r9
     ae0:	03012e0a 	movweq	r2, #7690	; 0x1e0a
     ae4:	3b0b3a0e 	blcc	2cf324 <__bss_end__+0x2c476c>
     ae8:	4919270b 	ldmdbmi	r9, {r0, r1, r3, r8, r9, sl, sp}
     aec:	12011113 	andne	r1, r1, #-1073741820	; 0xc0000004
     af0:	97184006 	ldrls	r4, [r8, -r6]
     af4:	13011942 	movwne	r1, #6466	; 0x1942
     af8:	050b0000 	streq	r0, [fp, #-0]
     afc:	3a080300 	bcc	201704 <__bss_end__+0x1f6b4c>
     b00:	490b3b0b 	stmdbmi	fp, {r0, r1, r3, r8, r9, fp, ip, sp}
     b04:	00170213 	andseq	r0, r7, r3, lsl r2
     b08:	012e0c00 	teqeq	lr, r0, lsl #24
     b0c:	0b3a0803 	bleq	e82b20 <__bss_end__+0xe77f68>
     b10:	19270b3b 	stmdbne	r7!, {r0, r1, r3, r4, r5, r8, r9, fp}
     b14:	01111349 	tsteq	r1, r9, asr #6
     b18:	18400612 	stmdane	r0, {r1, r4, r9, sl}^
     b1c:	01194297 			; <UNDEFINED> instruction: 0x01194297
     b20:	0d000013 	stceq	0, cr0, [r0, #-76]	; 0xffffffb4
     b24:	0e030005 	cdpeq	0, 0, cr0, cr3, cr5, {0}
     b28:	0b3b0b3a 	bleq	ec3818 <__bss_end__+0xeb8c60>
     b2c:	17021349 	strne	r1, [r2, -r9, asr #6]
     b30:	050e0000 	streq	r0, [lr, #-0]
     b34:	3a0e0300 	bcc	38173c <__bss_end__+0x376b84>
     b38:	490b3b0b 	stmdbmi	fp, {r0, r1, r3, r8, r9, fp, ip, sp}
     b3c:	00180213 	andseq	r0, r8, r3, lsl r2
     b40:	00340f00 	eorseq	r0, r4, r0, lsl #30
     b44:	0b3a0803 	bleq	e82b58 <__bss_end__+0xe77fa0>
     b48:	13490b3b 	movtne	r0, #39739	; 0x9b3b
     b4c:	00001802 	andeq	r1, r0, r2, lsl #16
     b50:	03003410 	movweq	r3, #1040	; 0x410
     b54:	3b0b3a08 	blcc	2cf37c <__bss_end__+0x2c47c4>
     b58:	0213490b 	andseq	r4, r3, #180224	; 0x2c000
     b5c:	11000017 	tstne	r0, r7, lsl r0
     b60:	0e030034 	mcreq	0, 0, r0, cr3, cr4, {1}
     b64:	19341349 	ldmdbne	r4!, {r0, r3, r6, r8, r9, ip}
     b68:	00001802 	andeq	r1, r0, r2, lsl #16
     b6c:	11010b12 	tstne	r1, r2, lsl fp
     b70:	01061201 	tsteq	r6, r1, lsl #4
     b74:	13000013 	movwne	r0, #19
     b78:	0e030034 	mcreq	0, 0, r0, cr3, cr4, {1}
     b7c:	0b3b0b3a 	bleq	ec386c <__bss_end__+0xeb8cb4>
     b80:	17021349 	strne	r1, [r2, -r9, asr #6]
     b84:	89140000 	ldmdbhi	r4, {}	; <UNPREDICTABLE>
     b88:	11000182 	smlabbne	r0, r2, r1, r0
     b8c:	00133101 	andseq	r3, r3, r1, lsl #2
     b90:	82891500 	addhi	r1, r9, #0, 10
     b94:	01110101 	tsteq	r1, r1, lsl #2
     b98:	13011331 	movwne	r1, #4913	; 0x1331
     b9c:	8a160000 	bhi	580ba4 <__bss_end__+0x575fec>
     ba0:	02000182 	andeq	r0, r0, #-2147483616	; 0x80000020
     ba4:	18429118 	stmdane	r2, {r3, r4, r8, ip, pc}^
     ba8:	89170000 	ldmdbhi	r7, {}	; <UNPREDICTABLE>
     bac:	11010182 	smlabbne	r1, r2, r1, r0
     bb0:	00133101 	andseq	r3, r3, r1, lsl #2
     bb4:	01011800 	tsteq	r1, r0, lsl #16
     bb8:	13011349 	movwne	r1, #4937	; 0x1349
     bbc:	21190000 	tstcs	r9, r0
     bc0:	2f134900 	svccs	0x00134900
     bc4:	1a00000b 	bne	bf8 <__code_start__-0x7408>
     bc8:	193f012e 	ldmdbne	pc!, {r1, r2, r3, r5, r8}	; <UNPREDICTABLE>
     bcc:	0b3a0e03 	bleq	e843e0 <__bss_end__+0xe79828>
     bd0:	19270b3b 	stmdbne	r7!, {r0, r1, r3, r4, r5, r8, r9, fp}
     bd4:	06120111 			; <UNDEFINED> instruction: 0x06120111
     bd8:	42971840 	addsmi	r1, r7, #64, 16	; 0x400000
     bdc:	00130119 	andseq	r0, r3, r9, lsl r1
     be0:	01151b00 	tsteq	r5, r0, lsl #22
     be4:	13491927 	movtne	r1, #39207	; 0x9927
     be8:	00001301 	andeq	r1, r0, r1, lsl #6
     bec:	4900051c 	stmdbmi	r0, {r2, r3, r4, r8, sl}
     bf0:	1d000013 	stcne	0, cr0, [r0, #-76]	; 0xffffffb4
     bf4:	193f012e 	ldmdbne	pc!, {r1, r2, r3, r5, r8}	; <UNPREDICTABLE>
     bf8:	0b3a0e03 	bleq	e8440c <__bss_end__+0xe79854>
     bfc:	19270b3b 	stmdbne	r7!, {r0, r1, r3, r4, r5, r8, r9, fp}
     c00:	01111349 	tsteq	r1, r9, asr #6
     c04:	18400612 	stmdane	r0, {r1, r4, r9, sl}^
     c08:	01194297 			; <UNDEFINED> instruction: 0x01194297
     c0c:	1e000013 	mcrne	0, 0, r0, cr0, cr3, {0}
     c10:	1755010b 	ldrbne	r0, [r5, -fp, lsl #2]
     c14:	341f0000 	ldrcc	r0, [pc], #-0	; c1c <__code_start__-0x73e4>
     c18:	3a0e0300 	bcc	381820 <__bss_end__+0x376c68>
     c1c:	490b3b0b 	stmdbmi	fp, {r0, r1, r3, r8, r9, fp, ip, sp}
     c20:	3c193f13 	ldccc	15, cr3, [r9], {19}
     c24:	20000019 	andcs	r0, r0, r9, lsl r0
     c28:	193f002e 	ldmdbne	pc!, {r1, r2, r3, r5}	; <UNPREDICTABLE>
     c2c:	0b3a0e03 	bleq	e84440 <__bss_end__+0xe79888>
     c30:	19270b3b 	stmdbne	r7!, {r0, r1, r3, r4, r5, r8, r9, fp}
     c34:	0000193c 	andeq	r1, r0, ip, lsr r9
     c38:	3f012e21 	svccc	0x00012e21
     c3c:	3a0e0319 	bcc	3818a8 <__bss_end__+0x376cf0>
     c40:	270b3b0b 	strcs	r3, [fp, -fp, lsl #22]
     c44:	3c134919 	ldccc	9, cr4, [r3], {25}
     c48:	00130119 	andseq	r0, r3, r9, lsl r1
     c4c:	00182200 	andseq	r2, r8, r0, lsl #4
     c50:	01000000 	mrseq	r0, (UNDEF: 0)
     c54:	0e250111 	mcreq	1, 1, r0, cr5, cr1, {0}
     c58:	0e030b13 	vmoveq.32	d3[0], r0
     c5c:	01110e1b 	tsteq	r1, fp, lsl lr
     c60:	17100612 			; <UNDEFINED> instruction: 0x17100612
     c64:	24020000 	strcs	r0, [r2], #-0
     c68:	3e0b0b00 	vmlacc.f64	d0, d11, d0
     c6c:	0008030b 	andeq	r0, r8, fp, lsl #6
     c70:	00240300 	eoreq	r0, r4, r0, lsl #6
     c74:	0b3e0b0b 	bleq	f838a8 <__bss_end__+0xf78cf0>
     c78:	00000e03 	andeq	r0, r0, r3, lsl #28
     c7c:	0b000f04 	bleq	4894 <__code_start__-0x376c>
     c80:	0013490b 	andseq	r4, r3, fp, lsl #18
     c84:	00260500 	eoreq	r0, r6, r0, lsl #10
     c88:	00001349 	andeq	r1, r0, r9, asr #6
     c8c:	3f012e06 	svccc	0x00012e06
     c90:	3a0e0319 	bcc	3818fc <__bss_end__+0x376d44>
     c94:	270b3b0b 	strcs	r3, [fp, -fp, lsl #22]
     c98:	12011119 	andne	r1, r1, #1073741830	; 0x40000006
     c9c:	97184006 	ldrls	r4, [r8, -r6]
     ca0:	13011942 	movwne	r1, #6466	; 0x1942
     ca4:	89070000 	stmdbhi	r7, {}	; <UNPREDICTABLE>
     ca8:	11010182 	smlabbne	r1, r2, r1, r0
     cac:	00130101 	andseq	r0, r3, r1, lsl #2
     cb0:	828a0800 	addhi	r0, sl, #0, 16
     cb4:	18020001 	stmdane	r2, {r0}
     cb8:	00184291 	mulseq	r8, r1, r2
     cbc:	82890900 	addhi	r0, r9, #0, 18
     cc0:	01110101 	tsteq	r1, r1, lsl #2
     cc4:	13011331 	movwne	r1, #4913	; 0x1331
     cc8:	890a0000 	stmdbhi	sl, {}	; <UNPREDICTABLE>
     ccc:	11000182 	smlabbne	r0, r2, r1, r0
     cd0:	00133101 	andseq	r3, r3, r1, lsl #2
     cd4:	01150b00 	tsteq	r5, r0, lsl #22
     cd8:	13491927 	movtne	r1, #39207	; 0x9927
     cdc:	00001301 	andeq	r1, r0, r1, lsl #6
     ce0:	4900050c 	stmdbmi	r0, {r2, r3, r8, sl}
     ce4:	0d000013 	stceq	0, cr0, [r0, #-76]	; 0xffffffb4
     ce8:	0e030034 	mcreq	0, 0, r0, cr3, cr4, {1}
     cec:	0b3b0b3a 	bleq	ec39dc <__bss_end__+0xeb8e24>
     cf0:	193f1349 	ldmdbne	pc!, {r0, r3, r6, r8, r9, ip}	; <UNPREDICTABLE>
     cf4:	0000193c 	andeq	r1, r0, ip, lsr r9
     cf8:	3f012e0e 	svccc	0x00012e0e
     cfc:	3a0e0319 	bcc	381968 <__bss_end__+0x376db0>
     d00:	270b3b0b 	strcs	r3, [fp, -fp, lsl #22]
     d04:	01193c19 	tsteq	r9, r9, lsl ip
     d08:	0f000013 	svceq	0x00000013
     d0c:	193f002e 	ldmdbne	pc!, {r1, r2, r3, r5}	; <UNPREDICTABLE>
     d10:	0b3a0e03 	bleq	e84524 <__bss_end__+0xe7996c>
     d14:	19270b3b 	stmdbne	r7!, {r0, r1, r3, r4, r5, r8, r9, fp}
     d18:	0000193c 	andeq	r1, r0, ip, lsr r9
     d1c:	01110100 	tsteq	r1, r0, lsl #2
     d20:	0b130e25 	bleq	4c45bc <__bss_end__+0x4b9a04>
     d24:	0e1b0e03 	cdpeq	14, 1, cr0, cr11, cr3, {0}
     d28:	06120111 			; <UNDEFINED> instruction: 0x06120111
     d2c:	00001710 	andeq	r1, r0, r0, lsl r7
     d30:	0b002402 	bleq	9d40 <__FUNCTION__.4324>
     d34:	030b3e0b 	movweq	r3, #48651	; 0xbe0b
     d38:	03000008 	movweq	r0, #8
     d3c:	0b0b0024 	bleq	2c0dd4 <__bss_end__+0x2b621c>
     d40:	0e030b3e 	vmoveq.16	d3[0], r0
     d44:	2e040000 	cdpcs	0, 0, cr0, cr4, cr0, {0}
     d48:	03193f01 	tsteq	r9, #1, 30
     d4c:	3b0b3a0e 	blcc	2cf58c <__bss_end__+0x2c49d4>
     d50:	1201110b 	andne	r1, r1, #-1073741822	; 0xc0000002
     d54:	97184006 	ldrls	r4, [r8, -r6]
     d58:	13011942 	movwne	r1, #6466	; 0x1942
     d5c:	34050000 	strcc	r0, [r5], #-0
     d60:	3a0e0300 	bcc	381968 <__bss_end__+0x376db0>
     d64:	490b3b0b 	stmdbmi	fp, {r0, r1, r3, r8, r9, fp, ip, sp}
     d68:	3c193f13 	ldccc	15, cr3, [r9], {19}
     d6c:	06000019 			; <UNDEFINED> instruction: 0x06000019
     d70:	193f002e 	ldmdbne	pc!, {r1, r2, r3, r5}	; <UNPREDICTABLE>
     d74:	0b3a0e03 	bleq	e84588 <__bss_end__+0xe799d0>
     d78:	19270b3b 	stmdbne	r7!, {r0, r1, r3, r4, r5, r8, r9, fp}
     d7c:	0000193c 	andeq	r1, r0, ip, lsr r9
     d80:	03003407 	movweq	r3, #1031	; 0x407
     d84:	3b0b3a08 	blcc	2cf5ac <__bss_end__+0x2c49f4>
     d88:	0213490b 	andseq	r4, r3, #180224	; 0x2c000
     d8c:	08000017 	stmdaeq	r0, {r0, r1, r2, r4}
     d90:	0e030034 	mcreq	0, 0, r0, cr3, cr4, {1}
     d94:	0b3b0b3a 	bleq	ec3a84 <__bss_end__+0xeb8ecc>
     d98:	00001349 	andeq	r1, r0, r9, asr #6
     d9c:	01828909 	orreq	r8, r2, r9, lsl #18
     da0:	31011100 	mrscc	r1, (UNDEF: 17)
     da4:	0a000013 	beq	df8 <__code_start__-0x7208>
     da8:	0b0b000f 	bleq	2c0dec <__bss_end__+0x2b6234>
     dac:	00001349 	andeq	r1, r0, r9, asr #6
     db0:	01110100 	tsteq	r1, r0, lsl #2
     db4:	0b130e25 	bleq	4c4650 <__bss_end__+0x4b9a98>
     db8:	0e1b0e03 	cdpeq	14, 1, cr0, cr11, cr3, {0}
     dbc:	01111755 	tsteq	r1, r5, asr r7
     dc0:	00001710 	andeq	r1, r0, r0, lsl r7
     dc4:	0b002402 	bleq	9dd4 <__FUNCTION__.4338+0x74>
     dc8:	030b3e0b 	movweq	r3, #48651	; 0xbe0b
     dcc:	03000008 	movweq	r0, #8
     dd0:	0b0b0024 	bleq	2c0e68 <__bss_end__+0x2b62b0>
     dd4:	0e030b3e 	vmoveq.16	d3[0], r0
     dd8:	2e040000 	cdpcs	0, 0, cr0, cr4, cr0, {0}
     ddc:	03193f01 	tsteq	r9, #1, 30
     de0:	3b0b3a0e 	blcc	2cf620 <__bss_end__+0x2c4a68>
     de4:	4919270b 	ldmdbmi	r9, {r0, r1, r3, r8, r9, sl, sp}
     de8:	12011113 	andne	r1, r1, #-1073741820	; 0xc0000004
     dec:	97184006 	ldrls	r4, [r8, -r6]
     df0:	13011942 	movwne	r1, #6466	; 0x1942
     df4:	34050000 	strcc	r0, [r5], #-0
     df8:	3a0e0300 	bcc	381a00 <__bss_end__+0x376e48>
     dfc:	490b3b0b 	stmdbmi	fp, {r0, r1, r3, r8, r9, fp, ip, sp}
     e00:	00170213 	andseq	r0, r7, r3, lsl r2
     e04:	012e0600 	teqeq	lr, r0, lsl #12
     e08:	0e03193f 	mcreq	9, 0, r1, cr3, cr15, {1}
     e0c:	0b3b0b3a 	bleq	ec3afc <__bss_end__+0xeb8f44>
     e10:	01111927 	tsteq	r1, r7, lsr #18
     e14:	18400612 	stmdane	r0, {r1, r4, r9, sl}^
     e18:	01194297 			; <UNDEFINED> instruction: 0x01194297
     e1c:	07000013 	smladeq	r0, r3, r0, r0
     e20:	0e030034 	mcreq	0, 0, r0, cr3, cr4, {1}
     e24:	0b3b0b3a 	bleq	ec3b14 <__bss_end__+0xeb8f5c>
     e28:	061c1349 	ldreq	r1, [ip], -r9, asr #6
     e2c:	34080000 	strcc	r0, [r8], #-0
     e30:	3a0e0300 	bcc	381a38 <__bss_end__+0x376e80>
     e34:	490b3b0b 	stmdbmi	fp, {r0, r1, r3, r8, r9, fp, ip, sp}
     e38:	000b1c13 	andeq	r1, fp, r3, lsl ip
     e3c:	82890900 	addhi	r0, r9, #0, 18
     e40:	01110001 	tsteq	r1, r1
     e44:	00001331 	andeq	r1, r0, r1, lsr r3
     e48:	0182890a 	orreq	r8, r2, sl, lsl #18
     e4c:	31011101 	tstcc	r1, r1, lsl #2
     e50:	00130113 	andseq	r0, r3, r3, lsl r1
     e54:	828a0b00 	addhi	r0, sl, #0, 22
     e58:	18020001 	stmdane	r2, {r0}
     e5c:	00184291 	mulseq	r8, r1, r2
     e60:	82890c00 	addhi	r0, r9, #0, 24
     e64:	01110101 	tsteq	r1, r1, lsl #2
     e68:	00001331 	andeq	r1, r0, r1, lsr r3
     e6c:	4900260d 	stmdbmi	r0, {r0, r2, r3, r9, sl, sp}
     e70:	0e000013 	mcreq	0, 0, r0, cr0, cr3, {0}
     e74:	193f012e 	ldmdbne	pc!, {r1, r2, r3, r5, r8}	; <UNPREDICTABLE>
     e78:	0b3a0e03 	bleq	e8468c <__bss_end__+0xe79ad4>
     e7c:	19270b3b 	stmdbne	r7!, {r0, r1, r3, r4, r5, r8, r9, fp}
     e80:	1301193c 	movwne	r1, #6460	; 0x193c
     e84:	050f0000 	streq	r0, [pc, #-0]	; e8c <__code_start__-0x7174>
     e88:	00134900 	andseq	r4, r3, r0, lsl #18
     e8c:	012e1000 	teqeq	lr, r0
     e90:	0e03193f 	mcreq	9, 0, r1, cr3, cr15, {1}
     e94:	0b3b0b3a 	bleq	ec3b84 <__bss_end__+0xeb8fcc>
     e98:	193c1927 	ldmdbne	ip!, {r0, r1, r2, r5, r8, fp, ip}
     e9c:	01000000 	mrseq	r0, (UNDEF: 0)
     ea0:	0e250111 	mcreq	1, 1, r0, cr5, cr1, {0}
     ea4:	0e030b13 	vmoveq.32	d3[0], r0
     ea8:	01110e1b 	tsteq	r1, fp, lsl lr
     eac:	17100612 			; <UNDEFINED> instruction: 0x17100612
     eb0:	24020000 	strcs	r0, [r2], #-0
     eb4:	3e0b0b00 	vmlacc.f64	d0, d11, d0
     eb8:	0008030b 	andeq	r0, r8, fp, lsl #6
     ebc:	00240300 	eoreq	r0, r4, r0, lsl #6
     ec0:	0b3e0b0b 	bleq	f83af4 <__bss_end__+0xf78f3c>
     ec4:	00000e03 	andeq	r0, r0, r3, lsl #28
     ec8:	3f012e04 	svccc	0x00012e04
     ecc:	3a0e0319 	bcc	381b38 <__bss_end__+0x376f80>
     ed0:	270b3b0b 	strcs	r3, [fp, -fp, lsl #22]
     ed4:	12011119 	andne	r1, r1, #1073741830	; 0x40000006
     ed8:	97184006 	ldrls	r4, [r8, -r6]
     edc:	13011942 	movwne	r1, #6466	; 0x1942
     ee0:	05050000 	streq	r0, [r5, #-0]
     ee4:	3a0e0300 	bcc	381aec <__bss_end__+0x376f34>
     ee8:	490b3b0b 	stmdbmi	fp, {r0, r1, r3, r8, r9, fp, ip, sp}
     eec:	00170213 	andseq	r0, r7, r3, lsl r2
     ef0:	012e0600 	teqeq	lr, r0, lsl #12
     ef4:	0e03193f 	mcreq	9, 0, r1, cr3, cr15, {1}
     ef8:	0b3b0b3a 	bleq	ec3be8 <__bss_end__+0xeb9030>
     efc:	13491927 	movtne	r1, #39207	; 0x9927
     f00:	06120111 			; <UNDEFINED> instruction: 0x06120111
     f04:	42971840 	addsmi	r1, r7, #64, 16	; 0x400000
     f08:	00130119 	andseq	r0, r3, r9, lsl r1
     f0c:	82890700 	addhi	r0, r9, #0, 14
     f10:	01110101 	tsteq	r1, r1, lsl #2
     f14:	00001331 	andeq	r1, r0, r1, lsr r3
     f18:	01828a08 	orreq	r8, r2, r8, lsl #20
     f1c:	91180200 	tstls	r8, r0, lsl #4
     f20:	00001842 	andeq	r1, r0, r2, asr #16
     f24:	03003409 	movweq	r3, #1033	; 0x409
     f28:	3b0b3a08 	blcc	2cf750 <__bss_end__+0x2c4b98>
     f2c:	0213490b 	andseq	r4, r3, #180224	; 0x2c000
     f30:	0a000018 	beq	f98 <__code_start__-0x7068>
     f34:	00018289 	andeq	r8, r1, r9, lsl #5
     f38:	13310111 	teqne	r1, #1073741828	; 0x40000004
     f3c:	050b0000 	streq	r0, [fp, #-0]
     f40:	3a080300 	bcc	201b48 <__bss_end__+0x1f6f90>
     f44:	490b3b0b 	stmdbmi	fp, {r0, r1, r3, r8, r9, fp, ip, sp}
     f48:	00170213 	andseq	r0, r7, r3, lsl r2
     f4c:	010b0c00 	tsteq	fp, r0, lsl #24
     f50:	06120111 			; <UNDEFINED> instruction: 0x06120111
     f54:	00001301 	andeq	r1, r0, r1, lsl #6
     f58:	0300340d 	movweq	r3, #1037	; 0x40d
     f5c:	3b0b3a08 	blcc	2cf784 <__bss_end__+0x2c4bcc>
     f60:	0213490b 	andseq	r4, r3, #180224	; 0x2c000
     f64:	0e000017 	mcreq	0, 0, r0, cr0, cr7, {0}
     f68:	193f012e 	ldmdbne	pc!, {r1, r2, r3, r5, r8}	; <UNPREDICTABLE>
     f6c:	0b3a0e03 	bleq	e84780 <__bss_end__+0xe79bc8>
     f70:	19270b3b 	stmdbne	r7!, {r0, r1, r3, r4, r5, r8, r9, fp}
     f74:	193c1349 	ldmdbne	ip!, {r0, r3, r6, r8, r9, ip}
     f78:	050f0000 	streq	r0, [pc, #-0]	; f80 <__code_start__-0x7080>
     f7c:	00134900 	andseq	r4, r3, r0, lsl #18
     f80:	11010000 	mrsne	r0, (UNDEF: 1)
     f84:	130e2501 	movwne	r2, #58625	; 0xe501
     f88:	1b0e030b 	blne	381bbc <__bss_end__+0x377004>
     f8c:	1201110e 	andne	r1, r1, #-2147483645	; 0x80000003
     f90:	00171006 	andseq	r1, r7, r6
     f94:	00240200 	eoreq	r0, r4, r0, lsl #4
     f98:	0b3e0b0b 	bleq	f83bcc <__bss_end__+0xf79014>
     f9c:	00000803 	andeq	r0, r0, r3, lsl #16
     fa0:	0b002403 	bleq	9fb4 <__FUNCTION__.4338+0x254>
     fa4:	030b3e0b 	movweq	r3, #48651	; 0xbe0b
     fa8:	0400000e 	streq	r0, [r0], #-14
     fac:	13490035 	movtne	r0, #36917	; 0x9035
     fb0:	16050000 	strne	r0, [r5], -r0
     fb4:	3a0e0300 	bcc	381bbc <__bss_end__+0x377004>
     fb8:	490b3b0b 	stmdbmi	fp, {r0, r1, r3, r8, r9, fp, ip, sp}
     fbc:	06000013 			; <UNDEFINED> instruction: 0x06000013
     fc0:	0e030016 	mcreq	0, 0, r0, cr3, cr6, {0}
     fc4:	053b0b3a 	ldreq	r0, [fp, #-2874]!	; 0xb3a
     fc8:	00001349 	andeq	r1, r0, r9, asr #6
     fcc:	0b011707 	bleq	46bf0 <__bss_end__+0x3c038>
     fd0:	3b0b3a0b 	blcc	2cf804 <__bss_end__+0x2c4c4c>
     fd4:	0013010b 	andseq	r0, r3, fp, lsl #2
     fd8:	000d0800 	andeq	r0, sp, r0, lsl #16
     fdc:	0b3a0e03 	bleq	e847f0 <__bss_end__+0xe79c38>
     fe0:	13490b3b 	movtne	r0, #39739	; 0x9b3b
     fe4:	01090000 	mrseq	r0, (UNDEF: 9)
     fe8:	01134901 	tsteq	r3, r1, lsl #18
     fec:	0a000013 	beq	1040 <__code_start__-0x6fc0>
     ff0:	13490021 	movtne	r0, #36897	; 0x9021
     ff4:	00000b2f 	andeq	r0, r0, pc, lsr #22
     ff8:	0b01130b 	bleq	45c2c <__bss_end__+0x3b074>
     ffc:	3b0b3a0b 	blcc	2cf830 <__bss_end__+0x2c4c78>
    1000:	0013010b 	andseq	r0, r3, fp, lsl #2
    1004:	000d0c00 	andeq	r0, sp, r0, lsl #24
    1008:	0b3a0e03 	bleq	e8481c <__bss_end__+0xe79c64>
    100c:	13490b3b 	movtne	r0, #39739	; 0x9b3b
    1010:	00000b38 	andeq	r0, r0, r8, lsr fp
    1014:	0b000f0d 	bleq	4c50 <__code_start__-0x33b0>
    1018:	0e00000b 	cdpeq	0, 0, cr0, cr0, cr11, {0}
    101c:	0b0b000f 	bleq	2c1060 <__bss_end__+0x2b64a8>
    1020:	00001349 	andeq	r1, r0, r9, asr #6
    1024:	4900260f 	stmdbmi	r0, {r0, r1, r2, r3, r9, sl, sp}
    1028:	10000013 	andne	r0, r0, r3, lsl r0
    102c:	0e030113 	mcreq	1, 0, r0, cr3, cr3, {0}
    1030:	0b3a0b0b 	bleq	e83c64 <__bss_end__+0xe790ac>
    1034:	13010b3b 	movwne	r0, #6971	; 0x1b3b
    1038:	0d110000 	ldceq	0, cr0, [r1, #-0]
    103c:	3a080300 	bcc	201c44 <__bss_end__+0x1f708c>
    1040:	490b3b0b 	stmdbmi	fp, {r0, r1, r3, r8, r9, fp, ip, sp}
    1044:	000b3813 	andeq	r3, fp, r3, lsl r8
    1048:	01131200 	tsteq	r3, r0, lsl #4
    104c:	050b0e03 	streq	r0, [fp, #-3587]	; 0xe03
    1050:	0b3b0b3a 	bleq	ec3d40 <__bss_end__+0xeb9188>
    1054:	00001301 	andeq	r1, r0, r1, lsl #6
    1058:	03000d13 	movweq	r0, #3347	; 0xd13
    105c:	3b0b3a0e 	blcc	2cf89c <__bss_end__+0x2c4ce4>
    1060:	3813490b 	ldmdacc	r3, {r0, r1, r3, r8, fp, lr}
    1064:	14000005 	strne	r0, [r0], #-5
    1068:	19270015 	stmdbne	r7!, {r0, r2, r4}
    106c:	15150000 	ldrne	r0, [r5, #-0]
    1070:	49192701 	ldmdbmi	r9, {r0, r8, r9, sl, sp}
    1074:	00130113 	andseq	r0, r3, r3, lsl r1
    1078:	00051600 	andeq	r1, r5, r0, lsl #12
    107c:	00001349 	andeq	r1, r0, r9, asr #6
    1080:	03011317 	movweq	r1, #4887	; 0x1317
    1084:	3a050b0e 	bcc	143cc4 <__bss_end__+0x13910c>
    1088:	01053b0b 	tsteq	r5, fp, lsl #22
    108c:	18000013 	stmdane	r0, {r0, r1, r4}
    1090:	0e03000d 	cdpeq	0, 0, cr0, cr3, cr13, {0}
    1094:	053b0b3a 	ldreq	r0, [fp, #-2874]!	; 0xb3a
    1098:	0b381349 	bleq	e05dc4 <__bss_end__+0xdfb20c>
    109c:	0d190000 	ldceq	0, cr0, [r9, #-0]
    10a0:	3a0e0300 	bcc	381ca8 <__bss_end__+0x3770f0>
    10a4:	49053b0b 	stmdbmi	r5, {r0, r1, r3, r8, r9, fp, ip, sp}
    10a8:	00053813 	andeq	r3, r5, r3, lsl r8
    10ac:	01131a00 	tsteq	r3, r0, lsl #20
    10b0:	0b0b0e03 	bleq	2c48c4 <__bss_end__+0x2b9d0c>
    10b4:	053b0b3a 	ldreq	r0, [fp, #-2874]!	; 0xb3a
    10b8:	00001301 	andeq	r1, r0, r1, lsl #6
    10bc:	0b01131b 	bleq	45d30 <__bss_end__+0x3b178>
    10c0:	3b0b3a0b 	blcc	2cf8f4 <__bss_end__+0x2c4d3c>
    10c4:	00130105 	andseq	r0, r3, r5, lsl #2
    10c8:	01171c00 	tsteq	r7, r0, lsl #24
    10cc:	0b3a0b0b 	bleq	e83d00 <__bss_end__+0xe79148>
    10d0:	1301053b 	movwne	r0, #5435	; 0x153b
    10d4:	0d1d0000 	ldceq	0, cr0, [sp, #-0]
    10d8:	3a0e0300 	bcc	381ce0 <__bss_end__+0x377128>
    10dc:	49053b0b 	stmdbmi	r5, {r0, r1, r3, r8, r9, fp, ip, sp}
    10e0:	1e000013 	mcrne	0, 0, r0, cr0, cr3, {0}
    10e4:	19270115 	stmdbne	r7!, {r0, r2, r4, r8}
    10e8:	00001301 	andeq	r1, r0, r1, lsl #6
    10ec:	0300341f 	movweq	r3, #1055	; 0x41f
    10f0:	3b0b3a0e 	blcc	2cf930 <__bss_end__+0x2c4d78>
    10f4:	3f134905 	svccc	0x00134905
    10f8:	00193c19 	andseq	r3, r9, r9, lsl ip
    10fc:	00342000 	eorseq	r2, r4, r0
    1100:	0b3a0e03 	bleq	e84914 <__bss_end__+0xe79d5c>
    1104:	13490b3b 	movtne	r0, #39739	; 0x9b3b
    1108:	193c193f 	ldmdbne	ip!, {r0, r1, r2, r3, r4, r5, r8, fp, ip}
    110c:	04210000 	strteq	r0, [r1], #-0
    1110:	490b0b01 	stmdbmi	fp, {r0, r8, r9, fp}
    1114:	3b0b3a13 	blcc	2cf968 <__bss_end__+0x2c4db0>
    1118:	0013010b 	andseq	r0, r3, fp, lsl #2
    111c:	00282200 	eoreq	r2, r8, r0, lsl #4
    1120:	0b1c0e03 	bleq	704934 <__bss_end__+0x6f9d7c>
    1124:	34230000 	strtcc	r0, [r3], #-0
    1128:	3a0e0300 	bcc	381d30 <__bss_end__+0x377178>
    112c:	490b3b0b 	stmdbmi	fp, {r0, r1, r3, r8, r9, fp, ip, sp}
    1130:	00061c13 	andeq	r1, r6, r3, lsl ip
    1134:	012e2400 	teqeq	lr, r0, lsl #8
    1138:	0e03193f 	mcreq	9, 0, r1, cr3, cr15, {1}
    113c:	0b3b0b3a 	bleq	ec3e2c <__bss_end__+0xeb9274>
    1140:	13491927 	movtne	r1, #39207	; 0x9927
    1144:	06120111 			; <UNDEFINED> instruction: 0x06120111
    1148:	42971840 	addsmi	r1, r7, #64, 16	; 0x400000
    114c:	00130119 	andseq	r0, r3, r9, lsl r1
    1150:	82892500 	addhi	r2, r9, #0, 10
    1154:	01110001 	tsteq	r1, r1
    1158:	00001331 	andeq	r1, r0, r1, lsr r3
    115c:	3f012e26 	svccc	0x00012e26
    1160:	3a0e0319 	bcc	381dcc <__bss_end__+0x377214>
    1164:	270b3b0b 	strcs	r3, [fp, -fp, lsl #22]
    1168:	12011119 	andne	r1, r1, #1073741830	; 0x40000006
    116c:	97184006 	ldrls	r4, [r8, -r6]
    1170:	13011942 	movwne	r1, #6466	; 0x1942
    1174:	05270000 	streq	r0, [r7, #-0]!
    1178:	3a080300 	bcc	201d80 <__bss_end__+0x1f71c8>
    117c:	490b3b0b 	stmdbmi	fp, {r0, r1, r3, r8, r9, fp, ip, sp}
    1180:	00170213 	andseq	r0, r7, r3, lsl r2
    1184:	82892800 	addhi	r2, r9, #0, 16
    1188:	01110101 	tsteq	r1, r1, lsl #2
    118c:	13011331 	movwne	r1, #4913	; 0x1331
    1190:	8a290000 	bhi	a41198 <__bss_end__+0xa365e0>
    1194:	02000182 	andeq	r0, r0, #-2147483616	; 0x80000020
    1198:	18429118 	stmdane	r2, {r3, r4, r8, ip, pc}^
    119c:	342a0000 	strtcc	r0, [sl], #-0
    11a0:	3a080300 	bcc	201da8 <__bss_end__+0x1f71f0>
    11a4:	490b3b0b 	stmdbmi	fp, {r0, r1, r3, r8, r9, fp, ip, sp}
    11a8:	00180213 	andseq	r0, r8, r3, lsl r2
    11ac:	82892b00 	addhi	r2, r9, #0, 22
    11b0:	01110101 	tsteq	r1, r1, lsl #2
    11b4:	00001331 	andeq	r1, r0, r1, lsr r3
    11b8:	03012e2c 	movweq	r2, #7724	; 0x1e2c
    11bc:	3b0b3a0e 	blcc	2cf9fc <__bss_end__+0x2c4e44>
    11c0:	1119270b 	tstne	r9, fp, lsl #14
    11c4:	40061201 	andmi	r1, r6, r1, lsl #4
    11c8:	19429718 	stmdbne	r2, {r3, r4, r8, r9, sl, ip, pc}^
    11cc:	00001301 	andeq	r1, r0, r1, lsl #6
    11d0:	0300052d 	movweq	r0, #1325	; 0x52d
    11d4:	3b0b3a0e 	blcc	2cfa14 <__bss_end__+0x2c4e5c>
    11d8:	0213490b 	andseq	r4, r3, #180224	; 0x2c000
    11dc:	2e000017 	mcrcs	0, 0, r0, cr0, cr7, {0}
    11e0:	00000035 	andeq	r0, r0, r5, lsr r0
    11e4:	3f002e2f 	svccc	0x00002e2f
    11e8:	6e193c19 	mrcvs	12, 0, r3, cr9, cr9, {0}
    11ec:	3a0e030e 	bcc	381e2c <__bss_end__+0x377274>
    11f0:	000b3b0b 	andeq	r3, fp, fp, lsl #22
    11f4:	11010000 	mrsne	r0, (UNDEF: 1)
    11f8:	130e2501 	movwne	r2, #58625	; 0xe501
    11fc:	1b0e030b 	blne	381e30 <__bss_end__+0x377278>
    1200:	1201110e 	andne	r1, r1, #-2147483645	; 0x80000003
    1204:	00171006 	andseq	r1, r7, r6
    1208:	00240200 	eoreq	r0, r4, r0, lsl #4
    120c:	0b3e0b0b 	bleq	f83e40 <__bss_end__+0xf79288>
    1210:	00000803 	andeq	r0, r0, r3, lsl #16
    1214:	0b002403 	bleq	a228 <__FUNCTION__.4336+0x44>
    1218:	030b3e0b 	movweq	r3, #48651	; 0xbe0b
    121c:	0400000e 	streq	r0, [r0], #-14
    1220:	13490026 	movtne	r0, #36902	; 0x9026
    1224:	16050000 	strne	r0, [r5], -r0
    1228:	3a0e0300 	bcc	381e30 <__bss_end__+0x377278>
    122c:	490b3b0b 	stmdbmi	fp, {r0, r1, r3, r8, r9, fp, ip, sp}
    1230:	06000013 			; <UNDEFINED> instruction: 0x06000013
    1234:	0e030016 	mcreq	0, 0, r0, cr3, cr6, {0}
    1238:	053b0b3a 	ldreq	r0, [fp, #-2874]!	; 0xb3a
    123c:	00001349 	andeq	r1, r0, r9, asr #6
    1240:	0b011707 	bleq	46e64 <__bss_end__+0x3c2ac>
    1244:	3b0b3a0b 	blcc	2cfa78 <__bss_end__+0x2c4ec0>
    1248:	0013010b 	andseq	r0, r3, fp, lsl #2
    124c:	000d0800 	andeq	r0, sp, r0, lsl #16
    1250:	0b3a0e03 	bleq	e84a64 <__bss_end__+0xe79eac>
    1254:	13490b3b 	movtne	r0, #39739	; 0x9b3b
    1258:	01090000 	mrseq	r0, (UNDEF: 9)
    125c:	01134901 	tsteq	r3, r1, lsl #18
    1260:	0a000013 	beq	12b4 <__code_start__-0x6d4c>
    1264:	13490021 	movtne	r0, #36897	; 0x9021
    1268:	00000b2f 	andeq	r0, r0, pc, lsr #22
    126c:	0b01130b 	bleq	45ea0 <__bss_end__+0x3b2e8>
    1270:	3b0b3a0b 	blcc	2cfaa4 <__bss_end__+0x2c4eec>
    1274:	0013010b 	andseq	r0, r3, fp, lsl #2
    1278:	000d0c00 	andeq	r0, sp, r0, lsl #24
    127c:	0b3a0e03 	bleq	e84a90 <__bss_end__+0xe79ed8>
    1280:	13490b3b 	movtne	r0, #39739	; 0x9b3b
    1284:	00000b38 	andeq	r0, r0, r8, lsr fp
    1288:	0b000f0d 	bleq	4ec4 <__code_start__-0x313c>
    128c:	0e00000b 	cdpeq	0, 0, cr0, cr0, cr11, {0}
    1290:	0b0b000f 	bleq	2c12d4 <__bss_end__+0x2b671c>
    1294:	00001349 	andeq	r1, r0, r9, asr #6
    1298:	0301130f 	movweq	r1, #4879	; 0x130f
    129c:	3a0b0b0e 	bcc	2c3edc <__bss_end__+0x2b9324>
    12a0:	010b3b0b 	tsteq	fp, fp, lsl #22
    12a4:	10000013 	andne	r0, r0, r3, lsl r0
    12a8:	0803000d 	stmdaeq	r3, {r0, r2, r3}
    12ac:	0b3b0b3a 	bleq	ec3f9c <__bss_end__+0xeb93e4>
    12b0:	0b381349 	bleq	e05fdc <__bss_end__+0xdfb424>
    12b4:	13110000 	tstne	r1, #0
    12b8:	0b0e0301 	bleq	381ec4 <__bss_end__+0x37730c>
    12bc:	3b0b3a05 	blcc	2cfad8 <__bss_end__+0x2c4f20>
    12c0:	0013010b 	andseq	r0, r3, fp, lsl #2
    12c4:	000d1200 	andeq	r1, sp, r0, lsl #4
    12c8:	0b3a0e03 	bleq	e84adc <__bss_end__+0xe79f24>
    12cc:	13490b3b 	movtne	r0, #39739	; 0x9b3b
    12d0:	00000538 	andeq	r0, r0, r8, lsr r5
    12d4:	27001513 	smladcs	r0, r3, r5, r1
    12d8:	14000019 	strne	r0, [r0], #-25
    12dc:	19270115 	stmdbne	r7!, {r0, r2, r4, r8}
    12e0:	13011349 	movwne	r1, #4937	; 0x1349
    12e4:	05150000 	ldreq	r0, [r5, #-0]
    12e8:	00134900 	andseq	r4, r3, r0, lsl #18
    12ec:	01131600 	tsteq	r3, r0, lsl #12
    12f0:	050b0e03 	streq	r0, [fp, #-3587]	; 0xe03
    12f4:	053b0b3a 	ldreq	r0, [fp, #-2874]!	; 0xb3a
    12f8:	00001301 	andeq	r1, r0, r1, lsl #6
    12fc:	03000d17 	movweq	r0, #3351	; 0xd17
    1300:	3b0b3a0e 	blcc	2cfb40 <__bss_end__+0x2c4f88>
    1304:	38134905 	ldmdacc	r3, {r0, r2, r8, fp, lr}
    1308:	1800000b 	stmdane	r0, {r0, r1, r3}
    130c:	0e03000d 	cdpeq	0, 0, cr0, cr3, cr13, {0}
    1310:	053b0b3a 	ldreq	r0, [fp, #-2874]!	; 0xb3a
    1314:	05381349 	ldreq	r1, [r8, #-841]!	; 0x349
    1318:	13190000 	tstne	r9, #0
    131c:	0b0e0301 	bleq	381f28 <__bss_end__+0x377370>
    1320:	3b0b3a0b 	blcc	2cfb54 <__bss_end__+0x2c4f9c>
    1324:	00130105 	andseq	r0, r3, r5, lsl #2
    1328:	01131a00 	tsteq	r3, r0, lsl #20
    132c:	0b3a0b0b 	bleq	e83f60 <__bss_end__+0xe793a8>
    1330:	1301053b 	movwne	r0, #5435	; 0x153b
    1334:	171b0000 	ldrne	r0, [fp, -r0]
    1338:	3a0b0b01 	bcc	2c3f44 <__bss_end__+0x2b938c>
    133c:	01053b0b 	tsteq	r5, fp, lsl #22
    1340:	1c000013 	stcne	0, cr0, [r0], {19}
    1344:	0e03000d 	cdpeq	0, 0, cr0, cr3, cr13, {0}
    1348:	053b0b3a 	ldreq	r0, [fp, #-2874]!	; 0xb3a
    134c:	00001349 	andeq	r1, r0, r9, asr #6
    1350:	2701151d 	smladcs	r1, sp, r5, r1
    1354:	00130119 	andseq	r0, r3, r9, lsl r1
    1358:	00341e00 	eorseq	r1, r4, r0, lsl #28
    135c:	0b3a0e03 	bleq	e84b70 <__bss_end__+0xe79fb8>
    1360:	1349053b 	movtne	r0, #38203	; 0x953b
    1364:	193c193f 	ldmdbne	ip!, {r0, r1, r2, r3, r4, r5, r8, fp, ip}
    1368:	341f0000 	ldrcc	r0, [pc], #-0	; 1370 <__code_start__-0x6c90>
    136c:	3a0e0300 	bcc	381f74 <__bss_end__+0x3773bc>
    1370:	490b3b0b 	stmdbmi	fp, {r0, r1, r3, r8, r9, fp, ip, sp}
    1374:	3c193f13 	ldccc	15, cr3, [r9], {19}
    1378:	20000019 	andcs	r0, r0, r9, lsl r0
    137c:	0b0b0104 	bleq	2c1794 <__bss_end__+0x2b6bdc>
    1380:	0b3a1349 	bleq	e860ac <__bss_end__+0xe7b4f4>
    1384:	13010b3b 	movwne	r0, #6971	; 0x1b3b
    1388:	28210000 	stmdacs	r1!, {}	; <UNPREDICTABLE>
    138c:	1c0e0300 	stcne	3, cr0, [lr], {-0}
    1390:	2200000b 	andcs	r0, r0, #11
    1394:	0e030034 	mcreq	0, 0, r0, cr3, cr4, {1}
    1398:	0b3b0b3a 	bleq	ec4088 <__bss_end__+0xeb94d0>
    139c:	061c1349 	ldreq	r1, [ip], -r9, asr #6
    13a0:	2e230000 	cdpcs	0, 2, cr0, cr3, cr0, {0}
    13a4:	03193f01 	tsteq	r9, #1, 30
    13a8:	3b0b3a0e 	blcc	2cfbe8 <__bss_end__+0x2c5030>
    13ac:	4919270b 	ldmdbmi	r9, {r0, r1, r3, r8, r9, sl, sp}
    13b0:	12011113 	andne	r1, r1, #-1073741820	; 0xc0000004
    13b4:	97184006 	ldrls	r4, [r8, -r6]
    13b8:	13011942 	movwne	r1, #6466	; 0x1942
    13bc:	05240000 	streq	r0, [r4, #-0]!
    13c0:	3a080300 	bcc	201fc8 <__bss_end__+0x1f7410>
    13c4:	490b3b0b 	stmdbmi	fp, {r0, r1, r3, r8, r9, fp, ip, sp}
    13c8:	00170213 	andseq	r0, r7, r3, lsl r2
    13cc:	00342500 	eorseq	r2, r4, r0, lsl #10
    13d0:	0b3a0e03 	bleq	e84be4 <__bss_end__+0xe7a02c>
    13d4:	13490b3b 	movtne	r0, #39739	; 0x9b3b
    13d8:	00001702 	andeq	r1, r0, r2, lsl #14
    13dc:	03003426 	movweq	r3, #1062	; 0x426
    13e0:	3b0b3a08 	blcc	2cfc08 <__bss_end__+0x2c5050>
    13e4:	0213490b 	andseq	r4, r3, #180224	; 0x2c000
    13e8:	27000017 	smladcs	r0, r7, r0, r0
    13ec:	01018289 	smlabbeq	r1, r9, r2, r8
    13f0:	13310111 	teqne	r1, #1073741828	; 0x40000004
    13f4:	8a280000 	bhi	a013fc <__bss_end__+0x9f6844>
    13f8:	02000182 	andeq	r0, r0, #-2147483616	; 0x80000020
    13fc:	18429118 	stmdane	r2, {r3, r4, r8, ip, pc}^
    1400:	2e290000 	cdpcs	0, 2, cr0, cr9, cr0, {0}
    1404:	03193f01 	tsteq	r9, #1, 30
    1408:	3b0b3a0e 	blcc	2cfc48 <__bss_end__+0x2c5090>
    140c:	1119270b 	tstne	r9, fp, lsl #14
    1410:	40061201 	andmi	r1, r6, r1, lsl #4
    1414:	19429718 	stmdbne	r2, {r3, r4, r8, r9, sl, ip, pc}^
    1418:	00001301 	andeq	r1, r0, r1, lsl #6
    141c:	0182892a 	orreq	r8, r2, sl, lsr #18
    1420:	31011101 	tstcc	r1, r1, lsl #2
    1424:	00130113 	andseq	r0, r3, r3, lsl r1
    1428:	82892b00 	addhi	r2, r9, #0, 22
    142c:	01110001 	tsteq	r1, r1
    1430:	00001331 	andeq	r1, r0, r1, lsr r3
    1434:	0300052c 	movweq	r0, #1324	; 0x52c
    1438:	3b0b3a0e 	blcc	2cfc78 <__bss_end__+0x2c50c0>
    143c:	0213490b 	andseq	r4, r3, #180224	; 0x2c000
    1440:	2d000017 	stccs	0, cr0, [r0, #-92]	; 0xffffffa4
    1444:	08030034 	stmdaeq	r3, {r2, r4, r5}
    1448:	0b3b0b3a 	bleq	ec4138 <__bss_end__+0xeb9580>
    144c:	18021349 	stmdane	r2, {r0, r3, r6, r8, r9, ip}
    1450:	2e2e0000 	cdpcs	0, 2, cr0, cr14, cr0, {0}
    1454:	3c193f00 	ldccc	15, cr3, [r9], {-0}
    1458:	030e6e19 	movweq	r6, #60953	; 0xee19
    145c:	3b0b3a0e 	blcc	2cfc9c <__bss_end__+0x2c50e4>
    1460:	0000000b 	andeq	r0, r0, fp
    1464:	25011101 	strcs	r1, [r1, #-257]	; 0x101
    1468:	030b130e 	movweq	r1, #45838	; 0xb30e
    146c:	110e1b0e 	tstne	lr, lr, lsl #22
    1470:	10061201 	andne	r1, r6, r1, lsl #4
    1474:	02000017 	andeq	r0, r0, #23
    1478:	0b0b0024 	bleq	2c1510 <__bss_end__+0x2b6958>
    147c:	08030b3e 	stmdaeq	r3, {r1, r2, r3, r4, r5, r8, r9, fp}
    1480:	24030000 	strcs	r0, [r3], #-0
    1484:	3e0b0b00 	vmlacc.f64	d0, d11, d0
    1488:	000e030b 	andeq	r0, lr, fp, lsl #6
    148c:	00160400 	andseq	r0, r6, r0, lsl #8
    1490:	0b3a0e03 	bleq	e84ca4 <__bss_end__+0xe7a0ec>
    1494:	13490b3b 	movtne	r0, #39739	; 0x9b3b
    1498:	16050000 	strne	r0, [r5], -r0
    149c:	3a0e0300 	bcc	3820a4 <__bss_end__+0x3774ec>
    14a0:	49053b0b 	stmdbmi	r5, {r0, r1, r3, r8, r9, fp, ip, sp}
    14a4:	06000013 			; <UNDEFINED> instruction: 0x06000013
    14a8:	0b0b0117 	bleq	2c190c <__bss_end__+0x2b6d54>
    14ac:	0b3b0b3a 	bleq	ec419c <__bss_end__+0xeb95e4>
    14b0:	00001301 	andeq	r1, r0, r1, lsl #6
    14b4:	03000d07 	movweq	r0, #3335	; 0xd07
    14b8:	3b0b3a0e 	blcc	2cfcf8 <__bss_end__+0x2c5140>
    14bc:	0013490b 	andseq	r4, r3, fp, lsl #18
    14c0:	01010800 	tsteq	r1, r0, lsl #16
    14c4:	13011349 	movwne	r1, #4937	; 0x1349
    14c8:	21090000 	mrscs	r0, (UNDEF: 9)
    14cc:	2f134900 	svccs	0x00134900
    14d0:	0a00000b 	beq	1504 <__code_start__-0x6afc>
    14d4:	0b0b0113 	bleq	2c1928 <__bss_end__+0x2b6d70>
    14d8:	0b3b0b3a 	bleq	ec41c8 <__bss_end__+0xeb9610>
    14dc:	00001301 	andeq	r1, r0, r1, lsl #6
    14e0:	03000d0b 	movweq	r0, #3339	; 0xd0b
    14e4:	3b0b3a0e 	blcc	2cfd24 <__bss_end__+0x2c516c>
    14e8:	3813490b 	ldmdacc	r3, {r0, r1, r3, r8, fp, lr}
    14ec:	0c00000b 	stceq	0, cr0, [r0], {11}
    14f0:	0b0b000f 	bleq	2c1534 <__bss_end__+0x2b697c>
    14f4:	0f0d0000 	svceq	0x000d0000
    14f8:	490b0b00 	stmdbmi	fp, {r8, r9, fp}
    14fc:	0e000013 	mcreq	0, 0, r0, cr0, cr3, {0}
    1500:	13490026 	movtne	r0, #36902	; 0x9026
    1504:	130f0000 	movwne	r0, #61440	; 0xf000
    1508:	0b0e0301 	bleq	382114 <__bss_end__+0x37755c>
    150c:	3b0b3a0b 	blcc	2cfd40 <__bss_end__+0x2c5188>
    1510:	0013010b 	andseq	r0, r3, fp, lsl #2
    1514:	000d1000 	andeq	r1, sp, r0
    1518:	0b3a0803 	bleq	e8352c <__bss_end__+0xe78974>
    151c:	13490b3b 	movtne	r0, #39739	; 0x9b3b
    1520:	00000b38 	andeq	r0, r0, r8, lsr fp
    1524:	03011311 	movweq	r1, #4881	; 0x1311
    1528:	3a050b0e 	bcc	144168 <__bss_end__+0x1395b0>
    152c:	010b3b0b 	tsteq	fp, fp, lsl #22
    1530:	12000013 	andne	r0, r0, #19
    1534:	0e03000d 	cdpeq	0, 0, cr0, cr3, cr13, {0}
    1538:	0b3b0b3a 	bleq	ec4228 <__bss_end__+0xeb9670>
    153c:	05381349 	ldreq	r1, [r8, #-841]!	; 0x349
    1540:	15130000 	ldrne	r0, [r3, #-0]
    1544:	00192700 	andseq	r2, r9, r0, lsl #14
    1548:	01151400 	tsteq	r5, r0, lsl #8
    154c:	13491927 	movtne	r1, #39207	; 0x9927
    1550:	00001301 	andeq	r1, r0, r1, lsl #6
    1554:	49000515 	stmdbmi	r0, {r0, r2, r4, r8, sl}
    1558:	16000013 			; <UNDEFINED> instruction: 0x16000013
    155c:	0e030113 	mcreq	1, 0, r0, cr3, cr3, {0}
    1560:	0b3a050b 	bleq	e82994 <__bss_end__+0xe77ddc>
    1564:	1301053b 	movwne	r0, #5435	; 0x153b
    1568:	0d170000 	ldceq	0, cr0, [r7, #-0]
    156c:	3a0e0300 	bcc	382174 <__bss_end__+0x3775bc>
    1570:	49053b0b 	stmdbmi	r5, {r0, r1, r3, r8, r9, fp, ip, sp}
    1574:	000b3813 	andeq	r3, fp, r3, lsl r8
    1578:	000d1800 	andeq	r1, sp, r0, lsl #16
    157c:	0b3a0e03 	bleq	e84d90 <__bss_end__+0xe7a1d8>
    1580:	1349053b 	movtne	r0, #38203	; 0x953b
    1584:	00000538 	andeq	r0, r0, r8, lsr r5
    1588:	03011319 	movweq	r1, #4889	; 0x1319
    158c:	3a0b0b0e 	bcc	2c41cc <__bss_end__+0x2b9614>
    1590:	01053b0b 	tsteq	r5, fp, lsl #22
    1594:	1a000013 	bne	15e8 <__code_start__-0x6a18>
    1598:	0b0b0113 	bleq	2c19ec <__bss_end__+0x2b6e34>
    159c:	053b0b3a 	ldreq	r0, [fp, #-2874]!	; 0xb3a
    15a0:	00001301 	andeq	r1, r0, r1, lsl #6
    15a4:	0b01171b 	bleq	47218 <__bss_end__+0x3c660>
    15a8:	3b0b3a0b 	blcc	2cfddc <__bss_end__+0x2c5224>
    15ac:	00130105 	andseq	r0, r3, r5, lsl #2
    15b0:	000d1c00 	andeq	r1, sp, r0, lsl #24
    15b4:	0b3a0e03 	bleq	e84dc8 <__bss_end__+0xe7a210>
    15b8:	1349053b 	movtne	r0, #38203	; 0x953b
    15bc:	151d0000 	ldrne	r0, [sp, #-0]
    15c0:	01192701 	tsteq	r9, r1, lsl #14
    15c4:	1e000013 	mcrne	0, 0, r0, cr0, cr3, {0}
    15c8:	0e030034 	mcreq	0, 0, r0, cr3, cr4, {1}
    15cc:	053b0b3a 	ldreq	r0, [fp, #-2874]!	; 0xb3a
    15d0:	193f1349 	ldmdbne	pc!, {r0, r3, r6, r8, r9, ip}	; <UNPREDICTABLE>
    15d4:	0000193c 	andeq	r1, r0, ip, lsr r9
    15d8:	0300341f 	movweq	r3, #1055	; 0x41f
    15dc:	3b0b3a0e 	blcc	2cfe1c <__bss_end__+0x2c5264>
    15e0:	3f13490b 	svccc	0x0013490b
    15e4:	00193c19 	andseq	r3, r9, r9, lsl ip
    15e8:	00342000 	eorseq	r2, r4, r0
    15ec:	0b3a0e03 	bleq	e84e00 <__bss_end__+0xe7a248>
    15f0:	13490b3b 	movtne	r0, #39739	; 0x9b3b
    15f4:	00001802 	andeq	r1, r0, r2, lsl #16
    15f8:	3f012e21 	svccc	0x00012e21
    15fc:	3a0e0319 	bcc	382268 <__bss_end__+0x3776b0>
    1600:	270b3b0b 	strcs	r3, [fp, -fp, lsl #22]
    1604:	12011119 	andne	r1, r1, #1073741830	; 0x40000006
    1608:	97184006 	ldrls	r4, [r8, -r6]
    160c:	13011942 	movwne	r1, #6466	; 0x1942
    1610:	05220000 	streq	r0, [r2, #-0]!
    1614:	3a080300 	bcc	20221c <__bss_end__+0x1f7664>
    1618:	490b3b0b 	stmdbmi	fp, {r0, r1, r3, r8, r9, fp, ip, sp}
    161c:	00180213 	andseq	r0, r8, r3, lsl r2
    1620:	002e2300 	eoreq	r2, lr, r0, lsl #6
    1624:	0e03193f 	mcreq	9, 0, r1, cr3, cr15, {1}
    1628:	0b3b0b3a 	bleq	ec4318 <__bss_end__+0xeb9760>
    162c:	01111927 	tsteq	r1, r7, lsr #18
    1630:	18400612 	stmdane	r0, {r1, r4, r9, sl}^
    1634:	00194297 	mulseq	r9, r7, r2
    1638:	012e2400 	teqeq	lr, r0, lsl #8
    163c:	0e03193f 	mcreq	9, 0, r1, cr3, cr15, {1}
    1640:	0b3b0b3a 	bleq	ec4330 <__bss_end__+0xeb9778>
    1644:	13491927 	movtne	r1, #39207	; 0x9927
    1648:	06120111 			; <UNDEFINED> instruction: 0x06120111
    164c:	42971840 	addsmi	r1, r7, #64, 16	; 0x400000
    1650:	00130119 	andseq	r0, r3, r9, lsl r1
    1654:	00052500 	andeq	r2, r5, r0, lsl #10
    1658:	0b3a0e03 	bleq	e84e6c <__bss_end__+0xe7a2b4>
    165c:	13490b3b 	movtne	r0, #39739	; 0x9b3b
    1660:	00001702 	andeq	r1, r0, r2, lsl #14
    1664:	03003426 	movweq	r3, #1062	; 0x426
    1668:	3413490e 	ldrcc	r4, [r3], #-2318	; 0x90e
    166c:	00180219 	andseq	r0, r8, r9, lsl r2
    1670:	00342700 	eorseq	r2, r4, r0, lsl #14
    1674:	0b3a0803 	bleq	e83688 <__bss_end__+0xe78ad0>
    1678:	13490b3b 	movtne	r0, #39739	; 0x9b3b
    167c:	00001702 	andeq	r1, r0, r2, lsl #14
    1680:	01828928 	orreq	r8, r2, r8, lsr #18
    1684:	31011101 	tstcc	r1, r1, lsl #2
    1688:	00130113 	andseq	r0, r3, r3, lsl r1
    168c:	828a2900 	addhi	r2, sl, #0, 18
    1690:	18020001 	stmdane	r2, {r0}
    1694:	00184291 	mulseq	r8, r1, r2
    1698:	82892a00 	addhi	r2, r9, #0, 20
    169c:	01110001 	tsteq	r1, r1
    16a0:	00001331 	andeq	r1, r0, r1, lsr r3
    16a4:	0300052b 	movweq	r0, #1323	; 0x52b
    16a8:	3b0b3a08 	blcc	2cfed0 <__bss_end__+0x2c5318>
    16ac:	0213490b 	andseq	r4, r3, #180224	; 0x2c000
    16b0:	2c000017 	stccs	0, cr0, [r0], {23}
    16b4:	0e030034 	mcreq	0, 0, r0, cr3, cr4, {1}
    16b8:	0b3b0b3a 	bleq	ec43a8 <__bss_end__+0xeb97f0>
    16bc:	17021349 	strne	r1, [r2, -r9, asr #6]
    16c0:	2e2d0000 	cdpcs	0, 2, cr0, cr13, cr0, {0}
    16c4:	03193f00 	tsteq	r9, #0, 30
    16c8:	3b0b3a0e 	blcc	2cff08 <__bss_end__+0x2c5350>
    16cc:	4919270b 	ldmdbmi	r9, {r0, r1, r3, r8, r9, sl, sp}
    16d0:	12011113 	andne	r1, r1, #-1073741820	; 0xc0000004
    16d4:	97184006 	ldrls	r4, [r8, -r6]
    16d8:	00001942 	andeq	r1, r0, r2, asr #18
    16dc:	3f002e2e 	svccc	0x00002e2e
    16e0:	6e193c19 	mrcvs	12, 0, r3, cr9, cr9, {0}
    16e4:	3a0e030e 	bcc	382324 <__bss_end__+0x37776c>
    16e8:	000b3b0b 	andeq	r3, fp, fp, lsl #22
	...

Disassembly of section .debug_loc:

00000000 <.debug_loc>:
       0:	00000060 	andeq	r0, r0, r0, rrx
       4:	00000063 	andeq	r0, r0, r3, rrx
       8:	63500001 	cmpvs	r0, #1
       c:	84000000 	strhi	r0, [r0], #-0
      10:	01000000 	mrseq	r0, (UNDEF: 0)
      14:	00005400 	andeq	r5, r0, r0, lsl #8
	...
      20:	00300000 	eorseq	r0, r0, r0
      24:	00010000 	andeq	r0, r1, r0
      28:	00003050 	andeq	r3, r0, r0, asr r0
      2c:	0000d000 	andeq	sp, r0, r0
      30:	55000100 	strpl	r0, [r0, #-256]	; 0x100
      34:	000000d0 	ldrdeq	r0, [r0], -r0	; <UNPREDICTABLE>
      38:	000000e0 	andeq	r0, r0, r0, ror #1
      3c:	e0500001 	subs	r0, r0, r1
      40:	00000000 	andeq	r0, r0, r0
      44:	01000001 	tsteq	r0, r1
      48:	00005500 	andeq	r5, r0, r0, lsl #10
	...
      54:	00330000 	eorseq	r0, r3, r0
      58:	00010000 	andeq	r0, r1, r0
      5c:	00003351 	andeq	r3, r0, r1, asr r3
      60:	0000d000 	andeq	sp, r0, r0
      64:	f3000400 	vshl.u8	d0, d0, d0
      68:	d09f5101 	addsle	r5, pc, r1, lsl #2
      6c:	00000000 	andeq	r0, r0, r0
      70:	01000001 	tsteq	r0, r1
      74:	00005100 	andeq	r5, r0, r0, lsl #2
	...
      80:	00330000 	eorseq	r0, r3, r0
      84:	00010000 	andeq	r0, r1, r0
      88:	00003352 	andeq	r3, r0, r2, asr r3
      8c:	0000d000 	andeq	sp, r0, r0
      90:	f3000400 	vshl.u8	d0, d0, d0
      94:	d09f5201 	addsle	r5, pc, r1, lsl #4
      98:	00000000 	andeq	r0, r0, r0
      9c:	01000001 	tsteq	r0, r1
      a0:	00005200 	andeq	r5, r0, r0, lsl #4
      a4:	00000000 	andeq	r0, r0, r0
      a8:	00080000 	andeq	r0, r8, r0
      ac:	00100000 	andseq	r0, r0, r0
      b0:	00020000 	andeq	r0, r2, r0
      b4:	00109f30 	andseq	r9, r0, r0, lsr pc
      b8:	00330000 	eorseq	r0, r3, r0
      bc:	00010000 	andeq	r0, r1, r0
      c0:	0000d053 	andeq	sp, r0, r3, asr r0
      c4:	00010000 	andeq	r0, r1, r0
      c8:	53000100 	movwpl	r0, #256	; 0x100
	...
      d4:	00000028 	andeq	r0, r0, r8, lsr #32
      d8:	000000d0 	ldrdeq	r0, [r0], -r0	; <UNPREDICTABLE>
      dc:	00580001 	subseq	r0, r8, r1
      e0:	00000000 	andeq	r0, r0, r0
      e4:	4c000000 	stcmi	0, cr0, [r0], {-0}
      e8:	d0000000 	andle	r0, r0, r0
      ec:	01000000 	mrseq	r0, (UNDEF: 0)
      f0:	00005500 	andeq	r5, r0, r0, lsl #10
      f4:	00000000 	andeq	r0, r0, r0
      f8:	00600000 	rsbeq	r0, r0, r0
      fc:	00880000 	addeq	r0, r8, r0
     100:	00030000 	andeq	r0, r3, r0
     104:	889f1075 	ldmhi	pc, {r0, r2, r4, r5, r6, ip}	; <UNPREDICTABLE>
     108:	d0000000 	andle	r0, r0, r0
     10c:	03000000 	movweq	r0, #0
     110:	9f1c7500 	svcls	0x001c7500
	...
     11c:	00000100 	andeq	r0, r0, r0, lsl #2
     120:	0000010f 	andeq	r0, r0, pc, lsl #2
     124:	0f500001 	svceq	0x00500001
     128:	14000001 	strne	r0, [r0], #-1
     12c:	04000001 	streq	r0, [r0], #-1
     130:	5001f300 	andpl	pc, r1, r0, lsl #6
     134:	0000009f 	muleq	r0, pc, r0	; <UNPREDICTABLE>
     138:	00000000 	andeq	r0, r0, r0
     13c:	00010000 	andeq	r0, r1, r0
     140:	00010c00 	andeq	r0, r1, r0, lsl #24
     144:	51000100 	mrspl	r0, (UNDEF: 16)
     148:	0000010c 	andeq	r0, r0, ip, lsl #2
     14c:	0000010f 	andeq	r0, r0, pc, lsl #2
     150:	0f520001 	svceq	0x00520001
     154:	14000001 	strne	r0, [r0], #-1
     158:	04000001 	streq	r0, [r0], #-1
     15c:	5101f300 	mrspl	pc, SP_irq	; <UNPREDICTABLE>
     160:	0000009f 	muleq	r0, pc, r0	; <UNPREDICTABLE>
     164:	00000000 	andeq	r0, r0, r0
     168:	00011400 	andeq	r1, r1, r0, lsl #8
     16c:	00014700 	andeq	r4, r1, r0, lsl #14
     170:	50000100 	andpl	r0, r0, r0, lsl #2
     174:	00000147 	andeq	r0, r0, r7, asr #2
     178:	0000015c 	andeq	r0, r0, ip, asr r1
     17c:	00540001 	subseq	r0, r4, r1
     180:	00000000 	andeq	r0, r0, r0
     184:	5c000000 	stcpl	0, cr0, [r0], {-0}
     188:	67000001 	strvs	r0, [r0, -r1]
     18c:	01000001 	tsteq	r0, r1
     190:	01675000 	cmneq	r7, r0
     194:	01d40000 	bicseq	r0, r4, r0
     198:	00010000 	andeq	r0, r1, r0
     19c:	00000054 	andeq	r0, r0, r4, asr r0
     1a0:	00000000 	andeq	r0, r0, r0
     1a4:	00016800 	andeq	r6, r1, r0, lsl #16
     1a8:	00017700 	andeq	r7, r1, r0, lsl #14
     1ac:	50000100 	andpl	r0, r0, r0, lsl #2
     1b0:	00000190 	muleq	r0, r0, r1
     1b4:	000001a3 	andeq	r0, r0, r3, lsr #3
     1b8:	bc500001 	mrrclt	0, 0, r0, r0, cr1	; <UNPREDICTABLE>
     1bc:	c0000001 	andgt	r0, r0, r1
     1c0:	01000001 	tsteq	r0, r1
     1c4:	00005000 	andeq	r5, r0, r0
     1c8:	00000000 	andeq	r0, r0, r0
     1cc:	01d40000 	bicseq	r0, r4, r0
     1d0:	01df0000 	bicseq	r0, pc, r0
     1d4:	00010000 	andeq	r0, r1, r0
     1d8:	0001df50 	andeq	sp, r1, r0, asr pc
     1dc:	00024400 	andeq	r4, r2, r0, lsl #8
     1e0:	54000100 	strpl	r0, [r0], #-256	; 0x100
	...
     1ec:	00000200 	andeq	r0, r0, r0, lsl #4
     1f0:	0000022c 	andeq	r0, r0, ip, lsr #4
     1f4:	3c540001 	mrrccc	0, 0, r0, r4, cr1
     1f8:	44000002 	strmi	r0, [r0], #-2
     1fc:	01000002 	tsteq	r0, r2
     200:	00005400 	andeq	r5, r0, r0, lsl #8
     204:	00000000 	andeq	r0, r0, r0
     208:	02080000 	andeq	r0, r8, #0
     20c:	022c0000 	eoreq	r0, ip, #0
     210:	00010000 	andeq	r0, r1, r0
     214:	00023c54 	andeq	r3, r2, r4, asr ip
     218:	00024400 	andeq	r4, r2, r0, lsl #8
     21c:	54000100 	strpl	r0, [r0], #-256	; 0x100
	...
     228:	00000244 	andeq	r0, r0, r4, asr #4
     22c:	00000263 	andeq	r0, r0, r3, ror #4
     230:	63500001 	cmpvs	r0, #1
     234:	7c000002 	stcvc	0, cr0, [r0], {2}
     238:	01000002 	tsteq	r0, r2
     23c:	027c5400 	rsbseq	r5, ip, #0, 8
     240:	02800000 	addeq	r0, r0, #0
     244:	00010000 	andeq	r0, r1, r0
     248:	00028050 	andeq	r8, r2, r0, asr r0
     24c:	0002cc00 	andeq	ip, r2, r0, lsl #24
     250:	54000100 	strpl	r0, [r0], #-256	; 0x100
	...
     25c:	00000244 	andeq	r0, r0, r4, asr #4
     260:	00000263 	andeq	r0, r0, r3, ror #4
     264:	63510001 	cmpvs	r1, #1
     268:	7c000002 	stcvc	0, cr0, [r0], {2}
     26c:	01000002 	tsteq	r0, r2
     270:	027c5500 	rsbseq	r5, ip, #0, 10
     274:	02840000 	addeq	r0, r4, #0
     278:	00010000 	andeq	r0, r1, r0
     27c:	00028451 	andeq	r8, r2, r1, asr r4
     280:	00029c00 	andeq	r9, r2, r0, lsl #24
     284:	55000100 	strpl	r0, [r0, #-256]	; 0x100
     288:	0000029c 	muleq	r0, ip, r2
     28c:	000002cc 	andeq	r0, r0, ip, asr #5
     290:	01f30004 	mvnseq	r0, r4
     294:	00009f51 	andeq	r9, r0, r1, asr pc
     298:	00000000 	andeq	r0, r0, r0
     29c:	02cc0000 	sbceq	r0, ip, #0
     2a0:	02e40000 	rsceq	r0, r4, #0
     2a4:	00010000 	andeq	r0, r1, r0
     2a8:	0002e450 	andeq	lr, r2, r0, asr r4
     2ac:	00039c00 	andeq	r9, r3, r0, lsl #24
     2b0:	54000100 	strpl	r0, [r0], #-256	; 0x100
	...
     2bc:	000002cc 	andeq	r0, r0, ip, asr #5
     2c0:	000002f3 	strdeq	r0, [r0], -r3
     2c4:	f3510001 	vhadd.u16	d16, d1, d1
     2c8:	0c000002 	stceq	0, cr0, [r0], {2}
     2cc:	01000003 	tsteq	r0, r3
     2d0:	030c5800 	movweq	r5, #51200	; 0xc800
     2d4:	03130000 	tsteq	r3, #0
     2d8:	00010000 	andeq	r0, r1, r0
     2dc:	00031351 	andeq	r1, r3, r1, asr r3
     2e0:	00039c00 	andeq	r9, r3, r0, lsl #24
     2e4:	58000100 	stmdapl	r0, {r8}
	...
     2f0:	000002cc 	andeq	r0, r0, ip, asr #5
     2f4:	000002f3 	strdeq	r0, [r0], -r3
     2f8:	f3520001 	vhadd.u16	d16, d2, d1
     2fc:	0c000002 	stceq	0, cr0, [r0], {2}
     300:	01000003 	tsteq	r0, r3
     304:	030c5700 	movweq	r5, #50944	; 0xc700
     308:	03130000 	tsteq	r3, #0
     30c:	00010000 	andeq	r0, r1, r0
     310:	00031352 	andeq	r1, r3, r2, asr r3
     314:	00039c00 	andeq	r9, r3, r0, lsl #24
     318:	57000100 	strpl	r0, [r0, -r0, lsl #2]
	...
     324:	000002cc 	andeq	r0, r0, ip, asr #5
     328:	000002f3 	strdeq	r0, [r0], -r3
     32c:	f3530001 	vhadd.u16	d16, d3, d1
     330:	0c000002 	stceq	0, cr0, [r0], {2}
     334:	01000003 	tsteq	r0, r3
     338:	030c5600 	movweq	r5, #50688	; 0xc600
     33c:	03130000 	tsteq	r3, #0
     340:	00010000 	andeq	r0, r1, r0
     344:	00031353 	andeq	r1, r3, r3, asr r3
     348:	00039c00 	andeq	r9, r3, r0, lsl #24
     34c:	56000100 	strpl	r0, [r0], -r0, lsl #2
	...
     358:	000002e0 	andeq	r0, r0, r0, ror #5
     35c:	00000324 	andeq	r0, r0, r4, lsr #6
     360:	9f300002 	svcls	0x00300002
	...
     36c:	0000039c 	muleq	r0, ip, r3
     370:	000003c7 	andeq	r0, r0, r7, asr #7
     374:	c7500001 	ldrbgt	r0, [r0, -r1]
     378:	e0000003 	and	r0, r0, r3
     37c:	01000003 	tsteq	r0, r3
     380:	03e05500 	mvneq	r5, #0, 10
     384:	03e40000 	mvneq	r0, #0
     388:	00010000 	andeq	r0, r1, r0
     38c:	0003e450 	andeq	lr, r3, r0, asr r4
     390:	00059000 	andeq	r9, r5, r0
     394:	55000100 	strpl	r0, [r0, #-256]	; 0x100
     398:	00000590 	muleq	r0, r0, r5
     39c:	000005c8 	andeq	r0, r0, r8, asr #11
     3a0:	01f30004 	mvnseq	r0, r4
     3a4:	00009f50 	andeq	r9, r0, r0, asr pc
     3a8:	00000000 	andeq	r0, r0, r0
     3ac:	039c0000 	orrseq	r0, ip, #0
     3b0:	03c70000 	biceq	r0, r7, #0
     3b4:	00010000 	andeq	r0, r1, r0
     3b8:	0003c751 	andeq	ip, r3, r1, asr r7
     3bc:	0003e000 	andeq	lr, r3, r0
     3c0:	59000100 	stmdbpl	r0, {r8}
     3c4:	000003e0 	andeq	r0, r0, r0, ror #7
     3c8:	000003e7 	andeq	r0, r0, r7, ror #7
     3cc:	e7510001 	ldrb	r0, [r1, -r1]
     3d0:	90000003 	andls	r0, r0, r3
     3d4:	01000005 	tsteq	r0, r5
     3d8:	05905900 	ldreq	r5, [r0, #2304]	; 0x900
     3dc:	05c80000 	strbeq	r0, [r8]
     3e0:	00040000 	andeq	r0, r4, r0
     3e4:	9f5101f3 	svcls	0x005101f3
	...
     3f0:	0000039c 	muleq	r0, ip, r3
     3f4:	000003c7 	andeq	r0, r0, r7, asr #7
     3f8:	c7520001 	ldrbgt	r0, [r2, -r1]
     3fc:	e0000003 	and	r0, r0, r3
     400:	01000003 	tsteq	r0, r3
     404:	03e05800 	mvneq	r5, #0, 16
     408:	03e70000 	mvneq	r0, #0
     40c:	00010000 	andeq	r0, r1, r0
     410:	0003e752 	andeq	lr, r3, r2, asr r7
     414:	00059000 	andeq	r9, r5, r0
     418:	58000100 	stmdapl	r0, {r8}
     41c:	00000590 	muleq	r0, r0, r5
     420:	000005c8 	andeq	r0, r0, r8, asr #11
     424:	01f30004 	mvnseq	r0, r4
     428:	00009f52 	andeq	r9, r0, r2, asr pc
     42c:	00000000 	andeq	r0, r0, r0
     430:	039c0000 	orrseq	r0, ip, #0
     434:	03b80000 			; <UNDEFINED> instruction: 0x03b80000
     438:	00010000 	andeq	r0, r1, r0
     43c:	0003b853 	andeq	fp, r3, r3, asr r8
     440:	0004fc00 	andeq	pc, r4, r0, lsl #24
     444:	57000100 	strpl	r0, [r0, -r0, lsl #2]
     448:	000004fc 	strdeq	r0, [r0], -ip
     44c:	000005c8 	andeq	r0, r0, r8, asr #11
     450:	01f30004 	mvnseq	r0, r4
     454:	00009f53 	andeq	r9, r0, r3, asr pc
     458:	00000000 	andeq	r0, r0, r0
     45c:	03b40000 			; <UNDEFINED> instruction: 0x03b40000
     460:	04a80000 	strteq	r0, [r8], #0
     464:	00020000 	andeq	r0, r2, r0
     468:	04a89f30 	strteq	r9, [r8], #3888	; 0xf30
     46c:	05900000 	ldreq	r0, [r0]
     470:	00010000 	andeq	r0, r1, r0
     474:	00059054 	andeq	r9, r5, r4, asr r0
     478:	0005c800 	andeq	ip, r5, r0, lsl #16
     47c:	70000400 	andvc	r0, r0, r0, lsl #8
     480:	009f7ec8 	addseq	r7, pc, r8, asr #29
     484:	00000000 	andeq	r0, r0, r0
     488:	b4000000 	strlt	r0, [r0], #-0
     48c:	10000003 	andne	r0, r0, r3
     490:	02000005 	andeq	r0, r0, #5
     494:	009f3000 	addseq	r3, pc, r0
     498:	00000000 	andeq	r0, r0, r0
     49c:	fc000000 	stc2	0, cr0, [r0], {-0}
     4a0:	0f000003 	svceq	0x00000003
     4a4:	01000004 	tsteq	r0, r4
     4a8:	040f5200 	streq	r5, [pc], #-512	; 4b0 <__code_start__-0x7b50>
     4ac:	043c0000 	ldrteq	r0, [ip], #-0
     4b0:	00040000 	andeq	r0, r4, r0
     4b4:	9f7dc876 	svcls	0x007dc876
     4b8:	0000043c 	andeq	r0, r0, ip, lsr r4
     4bc:	0000045b 	andeq	r0, r0, fp, asr r4
     4c0:	5b520001 	blpl	14804cc <__bss_end__+0x1475914>
     4c4:	a8000004 	stmdage	r0, {r2}
     4c8:	04000004 	streq	r0, [r0], #-4
     4cc:	7dc87600 	stclvc	6, cr7, [r8]
     4d0:	0004a89f 	muleq	r4, pc, r8	; <UNPREDICTABLE>
     4d4:	0004b800 	andeq	fp, r4, r0, lsl #16
     4d8:	52000100 	andpl	r0, r0, #0, 2
     4dc:	000004b8 			; <UNDEFINED> instruction: 0x000004b8
     4e0:	00000590 	muleq	r0, r0, r5
     4e4:	c8760004 	ldmdagt	r6!, {r2}^
     4e8:	05909f7d 	ldreq	r9, [r0, #3965]	; 0xf7d
     4ec:	05c80000 	strbeq	r0, [r8]
     4f0:	00090000 	andeq	r0, r9, r0
     4f4:	235001f3 	cmpcs	r0, #-1073741764	; 0xc000003c
     4f8:	1af80907 	bne	ffe0291c <__bss_end__+0xffdf7d64>
     4fc:	0000009f 	muleq	r0, pc, r0	; <UNPREDICTABLE>
     500:	00000000 	andeq	r0, r0, r0
     504:	00040000 	andeq	r0, r4, r0
     508:	00059000 	andeq	r9, r5, r0
     50c:	56000100 	strpl	r0, [r0], -r0, lsl #2
     510:	00000590 	muleq	r0, r0, r5
     514:	000005c8 	andeq	r0, r0, r8, asr #11
     518:	01f3000c 	mvnseq	r0, ip
     51c:	09072350 	stmdbeq	r7, {r4, r6, r8, r9, sp}
     520:	b8231af8 	stmdalt	r3!, {r3, r4, r5, r6, r7, r9, fp, ip}
     524:	00009f02 	andeq	r9, r0, r2, lsl #30
     528:	00000000 	andeq	r0, r0, r0
     52c:	04f80000 	ldrbteq	r0, [r8], #0
     530:	05900000 	ldreq	r0, [r0]
     534:	00010000 	andeq	r0, r1, r0
     538:	00059054 	andeq	r9, r5, r4, asr r0
     53c:	0005c800 	andeq	ip, r5, r0, lsl #16
     540:	70000400 	andvc	r0, r0, r0, lsl #8
     544:	009f7ec8 	addseq	r7, pc, r8, asr #29
	...
     550:	90000005 	andls	r0, r0, r5
     554:	01000005 	tsteq	r0, r5
     558:	05905400 	ldreq	r5, [r0, #1024]	; 0x400
     55c:	05c80000 	strbeq	r0, [r8]
     560:	00040000 	andeq	r0, r4, r0
     564:	9f7ec870 	svcls	0x007ec870
	...
     570:	000005dc 	ldrdeq	r0, [r0], -ip
     574:	00000608 	andeq	r0, r0, r8, lsl #12
     578:	00560001 	subseq	r0, r6, r1
     57c:	00000000 	andeq	r0, r0, r0
     580:	e4000000 	str	r0, [r0], #-0
     584:	04000005 	streq	r0, [r0], #-5
     588:	01000006 	tsteq	r0, r6
     58c:	00005500 	andeq	r5, r0, r0, lsl #10
     590:	00000000 	andeq	r0, r0, r0
     594:	05fc0000 	ldrbeq	r0, [ip, #0]!
     598:	06180000 	ldreq	r0, [r8], -r0
     59c:	00020000 	andeq	r0, r2, r0
     5a0:	06189f30 	sasxeq	r9, r8, r0
     5a4:	07380000 	ldreq	r0, [r8, -r0]!
     5a8:	00010000 	andeq	r0, r1, r0
     5ac:	00000056 	andeq	r0, r0, r6, asr r0
     5b0:	00000000 	andeq	r0, r0, r0
     5b4:	0005fc00 	andeq	pc, r5, r0, lsl #24
     5b8:	00061800 	andeq	r1, r6, r0, lsl #16
     5bc:	30000200 	andcc	r0, r0, r0, lsl #4
     5c0:	0006189f 	muleq	r6, pc, r8	; <UNPREDICTABLE>
     5c4:	00073800 	andeq	r3, r7, r0, lsl #16
     5c8:	55000100 	strpl	r0, [r0, #-256]	; 0x100
	...
     5d4:	0000063c 	andeq	r0, r0, ip, lsr r6
     5d8:	000006c0 	andeq	r0, r0, r0, asr #13
     5dc:	00540001 	subseq	r0, r4, r1
     5e0:	00000000 	andeq	r0, r0, r0
     5e4:	88000000 	stmdahi	r0, {}	; <UNPREDICTABLE>
     5e8:	b7000007 	strlt	r0, [r0, -r7]
     5ec:	01000007 	tsteq	r0, r7
     5f0:	07b75000 	ldreq	r5, [r7, r0]!
     5f4:	07d00000 	ldrbeq	r0, [r0, r0]
     5f8:	00040000 	andeq	r0, r4, r0
     5fc:	9f5001f3 	svcls	0x005001f3
     600:	000007d0 	ldrdeq	r0, [r0], -r0	; <UNPREDICTABLE>
     604:	000007d4 	ldrdeq	r0, [r0], -r4
     608:	d4500001 	ldrble	r0, [r0], #-1
     60c:	fc000007 	stc2	0, cr0, [r0], {7}
     610:	04000007 	streq	r0, [r0], #-7
     614:	5001f300 	andpl	pc, r1, r0, lsl #6
     618:	0007fc9f 	muleq	r7, pc, ip	; <UNPREDICTABLE>
     61c:	00080000 	andeq	r0, r8, r0
     620:	50000100 	andpl	r0, r0, r0, lsl #2
     624:	00000800 	andeq	r0, r0, r0, lsl #16
     628:	00000820 	andeq	r0, r0, r0, lsr #16
     62c:	01f30004 	mvnseq	r0, r4
     630:	00009f50 	andeq	r9, r0, r0, asr pc
     634:	00000000 	andeq	r0, r0, r0
     638:	078c0000 	streq	r0, [ip, r0]
     63c:	07b70000 	ldreq	r0, [r7, r0]!
     640:	00010000 	andeq	r0, r1, r0
     644:	0007b750 	andeq	fp, r7, r0, asr r7
     648:	0007d000 	andeq	sp, r7, r0
     64c:	f3000400 	vshl.u8	d0, d0, d0
     650:	d09f5001 	addsle	r5, pc, r1
     654:	d4000007 	strle	r0, [r0], #-7
     658:	01000007 	tsteq	r0, r7
     65c:	07d45000 	ldrbeq	r5, [r4, r0]
     660:	07fc0000 	ldrbeq	r0, [ip, r0]!
     664:	00040000 	andeq	r0, r4, r0
     668:	9f5001f3 	svcls	0x005001f3
     66c:	000007fc 	strdeq	r0, [r0], -ip
     670:	00000800 	andeq	r0, r0, r0, lsl #16
     674:	00500001 	subseq	r0, r0, r1
     678:	20000008 	andcs	r0, r0, r8
     67c:	04000008 	streq	r0, [r0], #-8
     680:	5001f300 	andpl	pc, r1, r0, lsl #6
     684:	0000009f 	muleq	r0, pc, r0	; <UNPREDICTABLE>
	...
     690:	00002400 	andeq	r2, r0, r0, lsl #8
     694:	50000100 	andpl	r0, r0, r0, lsl #2
     698:	00000024 	andeq	r0, r0, r4, lsr #32
     69c:	00000028 	andeq	r0, r0, r8, lsr #32
     6a0:	01f30004 	mvnseq	r0, r4
     6a4:	00289f50 	eoreq	r9, r8, r0, asr pc
     6a8:	002c0000 	eoreq	r0, ip, r0
     6ac:	00010000 	andeq	r0, r1, r0
     6b0:	00002c50 	andeq	r2, r0, r0, asr ip
     6b4:	00003000 	andeq	r3, r0, r0
     6b8:	f3000400 	vshl.u8	d0, d0, d0
     6bc:	309f5001 	addscc	r5, pc, r1
     6c0:	34000000 	strcc	r0, [r0], #-0
     6c4:	01000000 	mrseq	r0, (UNDEF: 0)
     6c8:	00345000 	eorseq	r5, r4, r0
     6cc:	003c0000 	eorseq	r0, ip, r0
     6d0:	00040000 	andeq	r0, r4, r0
     6d4:	9f5001f3 	svcls	0x005001f3
	...
     6e0:	0000003c 	andeq	r0, r0, ip, lsr r0
     6e4:	00000047 	andeq	r0, r0, r7, asr #32
     6e8:	47500001 	ldrbmi	r0, [r0, -r1]
     6ec:	b4000000 	strlt	r0, [r0], #-0
     6f0:	01000000 	mrseq	r0, (UNDEF: 0)
     6f4:	00005400 	andeq	r5, r0, r0, lsl #8
     6f8:	00000000 	andeq	r0, r0, r0
     6fc:	00440000 	subeq	r0, r4, r0
     700:	00470000 	subeq	r0, r7, r0
     704:	00010000 	andeq	r0, r1, r0
     708:	00004750 	andeq	r4, r0, r0, asr r7
     70c:	0000b400 	andeq	fp, r0, r0, lsl #8
     710:	54000100 	strpl	r0, [r0], #-256	; 0x100
	...
     71c:	00000054 	andeq	r0, r0, r4, asr r0
     720:	0000009f 	muleq	r0, pc, r0	; <UNPREDICTABLE>
     724:	a0500001 	subsge	r0, r0, r1
     728:	ac000000 	stcge	0, cr0, [r0], {-0}
     72c:	01000000 	mrseq	r0, (UNDEF: 0)
     730:	00005000 	andeq	r5, r0, r0
     734:	00000000 	andeq	r0, r0, r0
     738:	00b40000 	adcseq	r0, r4, r0
     73c:	00c00000 	sbceq	r0, r0, r0
     740:	00010000 	andeq	r0, r1, r0
     744:	0000c050 	andeq	ip, r0, r0, asr r0
     748:	0001e800 	andeq	lr, r1, r0, lsl #16
     74c:	59000100 	stmdbpl	r0, {r8}
	...
     758:	000000bc 	strheq	r0, [r0], -ip
     75c:	000000f0 	strdeq	r0, [r0], -r0	; <UNPREDICTABLE>
     760:	9f300002 	svcls	0x00300002
     764:	000000f0 	strdeq	r0, [r0], -r0	; <UNPREDICTABLE>
     768:	000001e8 	andeq	r0, r0, r8, ror #3
     76c:	00550001 	subseq	r0, r5, r1
     770:	00000000 	andeq	r0, r0, r0
     774:	bc000000 	stclt	0, cr0, [r0], {-0}
     778:	f0000000 			; <UNDEFINED> instruction: 0xf0000000
     77c:	02000000 	andeq	r0, r0, #0
     780:	f09f3000 			; <UNDEFINED> instruction: 0xf09f3000
     784:	e8000000 	stmda	r0, {}	; <UNPREDICTABLE>
     788:	01000001 	tsteq	r0, r1
     78c:	00005700 	andeq	r5, r0, r0, lsl #14
     790:	00000000 	andeq	r0, r0, r0
     794:	00bc0000 	adcseq	r0, ip, r0
     798:	00f00000 	rscseq	r0, r0, r0
     79c:	00020000 	andeq	r0, r2, r0
     7a0:	00f09f30 	rscseq	r9, r0, r0, lsr pc
     7a4:	01e80000 	mvneq	r0, r0
     7a8:	00010000 	andeq	r0, r1, r0
     7ac:	00000056 	andeq	r0, r0, r6, asr r0
     7b0:	00000000 	andeq	r0, r0, r0
     7b4:	0000d400 	andeq	sp, r0, r0, lsl #8
     7b8:	00010c00 	andeq	r0, r1, r0, lsl #24
     7bc:	50000100 	andpl	r0, r0, r0, lsl #2
     7c0:	0000010c 	andeq	r0, r0, ip, lsl #2
     7c4:	00000124 	andeq	r0, r0, r4, lsr #2
     7c8:	24540001 	ldrbcs	r0, [r4], #-1
     7cc:	40000001 	andmi	r0, r0, r1
     7d0:	01000001 	tsteq	r0, r1
     7d4:	01405000 	mrseq	r5, (UNDEF: 64)
     7d8:	01640000 	cmneq	r4, r0
     7dc:	00010000 	andeq	r0, r1, r0
     7e0:	00016454 	andeq	r6, r1, r4, asr r4
     7e4:	00017000 	andeq	r7, r1, r0
     7e8:	50000100 	andpl	r0, r0, r0, lsl #2
     7ec:	00000170 	andeq	r0, r0, r0, ror r1
     7f0:	000001e8 	andeq	r0, r0, r8, ror #3
     7f4:	00540001 	subseq	r0, r4, r1
     7f8:	00000000 	andeq	r0, r0, r0
     7fc:	e8000000 	stmda	r0, {}	; <UNPREDICTABLE>
     800:	ff000001 			; <UNDEFINED> instruction: 0xff000001
     804:	01000001 	tsteq	r0, r1
     808:	01ff5000 	mvnseq	r5, r0
     80c:	02180000 	andseq	r0, r8, #0
     810:	00010000 	andeq	r0, r1, r0
     814:	00021854 	andeq	r1, r2, r4, asr r8
     818:	00022300 	andeq	r2, r2, r0, lsl #6
     81c:	50000100 	andpl	r0, r0, r0, lsl #2
     820:	00000223 	andeq	r0, r0, r3, lsr #4
     824:	0000023c 	andeq	r0, r0, ip, lsr r2
     828:	3c540001 	mrrccc	0, 0, r0, r4, cr1
     82c:	47000002 	strmi	r0, [r0, -r2]
     830:	01000002 	tsteq	r0, r2
     834:	02475000 	subeq	r5, r7, #0
     838:	02600000 	rsbeq	r0, r0, #0
     83c:	00010000 	andeq	r0, r1, r0
     840:	00026054 	andeq	r6, r2, r4, asr r0
     844:	0002bc00 	andeq	fp, r2, r0, lsl #24
     848:	f3000400 	vshl.u8	d0, d0, d0
     84c:	bc9f5001 	ldclt	0, cr5, [pc], {1}
     850:	c0000002 	andgt	r0, r0, r2
     854:	01000002 	tsteq	r0, r2
     858:	02c05000 	sbceq	r5, r0, #0
     85c:	02e00000 	rsceq	r0, r0, #0
     860:	00040000 	andeq	r0, r4, r0
     864:	9f5001f3 	svcls	0x005001f3
	...
     870:	000001e8 	andeq	r0, r0, r8, ror #3
     874:	000001ff 	strdeq	r0, [r0], -pc	; <UNPREDICTABLE>
     878:	ff510001 			; <UNDEFINED> instruction: 0xff510001
     87c:	18000001 	stmdane	r0, {r0}
     880:	01000002 	tsteq	r0, r2
     884:	02185500 	andseq	r5, r8, #0, 10
     888:	02230000 	eoreq	r0, r3, #0
     88c:	00010000 	andeq	r0, r1, r0
     890:	00022351 	andeq	r2, r2, r1, asr r3
     894:	00023c00 	andeq	r3, r2, r0, lsl #24
     898:	55000100 	strpl	r0, [r0, #-256]	; 0x100
     89c:	0000023c 	andeq	r0, r0, ip, lsr r2
     8a0:	00000247 	andeq	r0, r0, r7, asr #4
     8a4:	47510001 	ldrbmi	r0, [r1, -r1]
     8a8:	bc000002 	stclt	0, cr0, [r0], {2}
     8ac:	01000002 	tsteq	r0, r2
     8b0:	02bc5500 	adcseq	r5, ip, #0, 10
     8b4:	02c00000 	sbceq	r0, r0, #0
     8b8:	00010000 	andeq	r0, r1, r0
     8bc:	0002c051 	andeq	ip, r2, r1, asr r0
     8c0:	0002e000 	andeq	lr, r2, r0
     8c4:	55000100 	strpl	r0, [r0, #-256]	; 0x100
	...
     8d0:	00000260 	andeq	r0, r0, r0, ror #4
     8d4:	000002bc 			; <UNDEFINED> instruction: 0x000002bc
     8d8:	c0540001 	subsgt	r0, r4, r1
     8dc:	e0000002 	and	r0, r0, r2
     8e0:	01000002 	tsteq	r0, r2
     8e4:	00005400 	andeq	r5, r0, r0, lsl #8
     8e8:	00000000 	andeq	r0, r0, r0
     8ec:	02680000 	rsbeq	r0, r8, #0
     8f0:	02740000 	rsbseq	r0, r4, #0
     8f4:	00010000 	andeq	r0, r1, r0
     8f8:	00027450 	andeq	r7, r2, r0, asr r4
     8fc:	0002b300 	andeq	fp, r2, r0, lsl #6
     900:	53000100 	movwpl	r0, #256	; 0x100
	...
     90c:	000002ec 	andeq	r0, r0, ip, ror #5
     910:	00000303 	andeq	r0, r0, r3, lsl #6
     914:	04500001 	ldrbeq	r0, [r0], #-1
     918:	14000003 	strne	r0, [r0], #-3
     91c:	01000003 	tsteq	r0, r3
     920:	00005000 	andeq	r5, r0, r0
     924:	00000000 	andeq	r0, r0, r0
     928:	03580000 	cmpeq	r8, #0
     92c:	036c0000 	cmneq	ip, #0
     930:	00010000 	andeq	r0, r1, r0
     934:	00037453 	andeq	r7, r3, r3, asr r4
     938:	00038700 	andeq	r8, r3, r0, lsl #14
     93c:	53000100 	movwpl	r0, #256	; 0x100
	...
     948:	000003dc 	ldrdeq	r0, [r0], -ip
     94c:	00000410 	andeq	r0, r0, r0, lsl r4
     950:	9f300002 	svcls	0x00300002
     954:	00000410 	andeq	r0, r0, r0, lsl r4
     958:	000004cc 	andeq	r0, r0, ip, asr #9
     95c:	00550001 	subseq	r0, r5, r1
     960:	00000000 	andeq	r0, r0, r0
     964:	dc000000 	stcle	0, cr0, [r0], {-0}
     968:	10000003 	andne	r0, r0, r3
     96c:	02000004 	andeq	r0, r0, #4
     970:	109f3000 	addsne	r3, pc, r0
     974:	cc000004 	stcgt	0, cr0, [r0], {4}
     978:	01000004 	tsteq	r0, r4
     97c:	00005800 	andeq	r5, r0, r0, lsl #16
     980:	00000000 	andeq	r0, r0, r0
     984:	03dc0000 	bicseq	r0, ip, #0
     988:	04100000 	ldreq	r0, [r0], #-0
     98c:	00020000 	andeq	r0, r2, r0
     990:	04109f30 	ldreq	r9, [r0], #-3888	; 0xf30
     994:	04cc0000 	strbeq	r0, [ip], #0
     998:	00010000 	andeq	r0, r1, r0
     99c:	0004cc56 	andeq	ip, r4, r6, asr ip
     9a0:	0004f400 	andeq	pc, r4, r0, lsl #8
     9a4:	50000100 	andpl	r0, r0, r0, lsl #2
	...
     9b0:	000003f4 	strdeq	r0, [r0], -r4
     9b4:	0000043c 	andeq	r0, r0, ip, lsr r4
     9b8:	3c500001 	mrrccc	0, 0, r0, r0, cr1	; <UNPREDICTABLE>
     9bc:	70000004 	andvc	r0, r0, r4
     9c0:	01000004 	tsteq	r0, r4
     9c4:	04705400 	ldrbteq	r5, [r0], #-1024	; 0x400
     9c8:	04800000 	streq	r0, [r0], #0
     9cc:	00010000 	andeq	r0, r1, r0
     9d0:	00000050 	andeq	r0, r0, r0, asr r0
     9d4:	00000000 	andeq	r0, r0, r0
     9d8:	0004f400 	andeq	pc, r4, r0, lsl #8
     9dc:	0004ff00 	andeq	pc, r4, r0, lsl #30
     9e0:	50000100 	andpl	r0, r0, r0, lsl #2
     9e4:	000004ff 	strdeq	r0, [r0], -pc	; <UNPREDICTABLE>
     9e8:	0000050c 	andeq	r0, r0, ip, lsl #10
     9ec:	00540001 	subseq	r0, r4, r1
     9f0:	00000000 	andeq	r0, r0, r0
     9f4:	f0000000 			; <UNDEFINED> instruction: 0xf0000000
     9f8:	fb000005 	blx	a16 <__code_start__-0x75ea>
     9fc:	01000005 	tsteq	r0, r5
     a00:	05fb5000 	ldrbeq	r5, [fp, #0]!
     a04:	06140000 	ldreq	r0, [r4], -r0
     a08:	00010000 	andeq	r0, r1, r0
     a0c:	00061454 	andeq	r1, r6, r4, asr r4
     a10:	00061800 	andeq	r1, r6, r0, lsl #16
     a14:	50000100 	andpl	r0, r0, r0, lsl #2
     a18:	00000618 	andeq	r0, r0, r8, lsl r6
     a1c:	00000650 	andeq	r0, r0, r0, asr r6
     a20:	00540001 	subseq	r0, r4, r1
	...
     a2c:	24000000 	strcs	r0, [r0], #-0
     a30:	01000000 	mrseq	r0, (UNDEF: 0)
     a34:	00245000 	eoreq	r5, r4, r0
     a38:	00e40000 	rsceq	r0, r4, r0
     a3c:	00040000 	andeq	r0, r4, r0
     a40:	9f5001f3 	svcls	0x005001f3
     a44:	000000e4 	andeq	r0, r0, r4, ror #1
     a48:	000000e8 	andeq	r0, r0, r8, ror #1
     a4c:	e8500001 	ldmda	r0, {r0}^
     a50:	f0000000 			; <UNDEFINED> instruction: 0xf0000000
     a54:	04000000 	streq	r0, [r0], #-0
     a58:	5001f300 	andpl	pc, r1, r0, lsl #6
     a5c:	0000009f 	muleq	r0, pc, r0	; <UNPREDICTABLE>
	...
     a68:	00002000 	andeq	r2, r0, r0
     a6c:	51000100 	mrspl	r0, (UNDEF: 16)
     a70:	00000020 	andeq	r0, r0, r0, lsr #32
     a74:	00000080 	andeq	r0, r0, r0, lsl #1
     a78:	9c510001 	mrrcls	0, 0, r0, r1, cr1
     a7c:	a0000000 	andge	r0, r0, r0
     a80:	01000000 	mrseq	r0, (UNDEF: 0)
     a84:	00b85100 	adcseq	r5, r8, r0, lsl #2
     a88:	00c80000 	sbceq	r0, r8, r0
     a8c:	00010000 	andeq	r0, r1, r0
     a90:	0000e451 	andeq	lr, r0, r1, asr r4
     a94:	0000e800 	andeq	lr, r0, r0, lsl #16
     a98:	51000100 	mrspl	r0, (UNDEF: 16)
	...
     aa4:	00000004 	andeq	r0, r0, r4
     aa8:	00000024 	andeq	r0, r0, r4, lsr #32
     aac:	24500001 	ldrbcs	r0, [r0], #-1
     ab0:	90000000 	andls	r0, r0, r0
     ab4:	01000000 	mrseq	r0, (UNDEF: 0)
     ab8:	009c5300 	addseq	r5, ip, r0, lsl #6
     abc:	00a40000 	adceq	r0, r4, r0
     ac0:	00010000 	andeq	r0, r1, r0
     ac4:	0000b853 	andeq	fp, r0, r3, asr r8
     ac8:	0000bc00 	andeq	fp, r0, r0, lsl #24
     acc:	53000100 	movwpl	r0, #256	; 0x100
     ad0:	000000e4 	andeq	r0, r0, r4, ror #1
     ad4:	000000e8 	andeq	r0, r0, r8, ror #1
     ad8:	00500001 	subseq	r0, r0, r1
     adc:	00000000 	andeq	r0, r0, r0
     ae0:	08000000 	stmdaeq	r0, {}	; <UNPREDICTABLE>
     ae4:	20000000 	andcs	r0, r0, r0
     ae8:	01000000 	mrseq	r0, (UNDEF: 0)
     aec:	00205100 	eoreq	r5, r0, r0, lsl #2
     af0:	00340000 	eorseq	r0, r4, r0
     af4:	00010000 	andeq	r0, r1, r0
     af8:	00003452 	andeq	r3, r0, r2, asr r4
     afc:	00004800 	andeq	r4, r0, r0, lsl #16
     b00:	50000100 	andpl	r0, r0, r0, lsl #2
     b04:	00000048 	andeq	r0, r0, r8, asr #32
     b08:	000000cc 	andeq	r0, r0, ip, asr #1
     b0c:	cc520001 	mrrcgt	0, 0, r0, r2, cr1
     b10:	e0000000 	and	r0, r0, r0
     b14:	01000000 	mrseq	r0, (UNDEF: 0)
     b18:	00e45000 	rsceq	r5, r4, r0
     b1c:	00e80000 	rsceq	r0, r8, r0
     b20:	00010000 	andeq	r0, r1, r0
     b24:	00000051 	andeq	r0, r0, r1, asr r0
     b28:	00000000 	andeq	r0, r0, r0
     b2c:	00004400 	andeq	r4, r0, r0, lsl #8
     b30:	00004800 	andeq	r4, r0, r0, lsl #16
     b34:	52000100 	andpl	r0, r0, #0, 2
     b38:	00000048 	andeq	r0, r0, r8, asr #32
     b3c:	0000004c 	andeq	r0, r0, ip, asr #32
     b40:	007c0012 	rsbseq	r0, ip, r2, lsl r0
     b44:	02732438 	rsbseq	r2, r3, #56, 8	; 0x38000000
     b48:	ff080194 			; <UNDEFINED> instruction: 0xff080194
     b4c:	243b221a 	ldrtcs	r2, [fp], #-538	; 0x21a
     b50:	9f270070 	svcls	0x00270070
     b54:	0000004c 	andeq	r0, r0, ip, asr #32
     b58:	00000054 	andeq	r0, r0, r4, asr r0
     b5c:	007c0012 	rsbseq	r0, ip, r2, lsl r0
     b60:	7e732438 	mrcvc	4, 3, r2, cr3, cr8, {1}
     b64:	ff080194 			; <UNDEFINED> instruction: 0xff080194
     b68:	243b221a 	ldrtcs	r2, [fp], #-538	; 0x21a
     b6c:	9f270070 	svcls	0x00270070
	...
     b78:	0000001c 	andeq	r0, r0, ip, lsl r0
     b7c:	000000e4 	andeq	r0, r0, r4, ror #1
     b80:	00540001 	subseq	r0, r4, r1
	...
     b8c:	04000000 	streq	r0, [r0], #-0
     b90:	01000000 	mrseq	r0, (UNDEF: 0)
     b94:	00045200 	andeq	r5, r4, r0, lsl #4
     b98:	00200000 	eoreq	r0, r0, r0
     b9c:	00040000 	andeq	r0, r4, r0
     ba0:	9f5201f3 	svcls	0x005201f3
	...
     bb0:	0000000c 	andeq	r0, r0, ip
     bb4:	0c500001 	mrrceq	0, 0, r0, r0, cr1	; <UNPREDICTABLE>
     bb8:	14000000 	strne	r0, [r0], #-0
     bbc:	03000000 	movweq	r0, #0
     bc0:	9f017300 	svcls	0x00017300
     bc4:	00000014 	andeq	r0, r0, r4, lsl r0
     bc8:	00000020 	andeq	r0, r0, r0, lsr #32
     bcc:	00530001 	subseq	r0, r3, r1
     bd0:	00000000 	andeq	r0, r0, r0
     bd4:	2c000000 	stccs	0, cr0, [r0], {-0}
     bd8:	38000000 	stmdacc	r0, {}	; <UNPREDICTABLE>
     bdc:	01000000 	mrseq	r0, (UNDEF: 0)
     be0:	00385000 	eorseq	r5, r8, r0
     be4:	00480000 	subeq	r0, r8, r0
     be8:	00010000 	andeq	r0, r1, r0
     bec:	00004855 	andeq	r4, r0, r5, asr r8
     bf0:	00005800 	andeq	r5, r0, r0, lsl #16
     bf4:	50000100 	andpl	r0, r0, r0, lsl #2
	...
     c04:	0000000b 	andeq	r0, r0, fp
     c08:	0b500001 	bleq	1400c14 <__bss_end__+0x13f605c>
     c0c:	14000000 	strne	r0, [r0], #-0
     c10:	01000000 	mrseq	r0, (UNDEF: 0)
     c14:	00005400 	andeq	r5, r0, r0, lsl #8
	...
     c20:	00100000 	andseq	r0, r0, r0
     c24:	00010000 	andeq	r0, r1, r0
     c28:	00001050 	andeq	r1, r0, r0, asr r0
     c2c:	00003400 	andeq	r3, r0, r0, lsl #8
     c30:	54000100 	strpl	r0, [r0], #-256	; 0x100
	...
     c40:	00000004 	andeq	r0, r0, r4
     c44:	04500001 	ldrbeq	r0, [r0], #-1
     c48:	0c000000 	stceq	0, cr0, [r0], {-0}
     c4c:	03000000 	movweq	r0, #0
     c50:	9f307000 	svcls	0x00307000
     c54:	0000000c 	andeq	r0, r0, ip
     c58:	00000014 	andeq	r0, r0, r4, lsl r0
     c5c:	01f30004 	mvnseq	r0, r4
     c60:	00009f50 	andeq	r9, r0, r0, asr pc
     c64:	00000000 	andeq	r0, r0, r0
     c68:	00140000 	andseq	r0, r4, r0
     c6c:	00200000 	eoreq	r0, r0, r0
     c70:	00010000 	andeq	r0, r1, r0
     c74:	00002050 	andeq	r2, r0, r0, asr r0
     c78:	00002c00 	andeq	r2, r0, r0, lsl #24
     c7c:	70000300 	andvc	r0, r0, r0, lsl #6
     c80:	002c9f01 	eoreq	r9, ip, r1, lsl #30
     c84:	00400000 	subeq	r0, r0, r0
     c88:	00010000 	andeq	r0, r1, r0
     c8c:	00000050 	andeq	r0, r0, r0, asr r0
     c90:	00000000 	andeq	r0, r0, r0
     c94:	00001400 	andeq	r1, r0, r0, lsl #8
     c98:	00001800 	andeq	r1, r0, r0, lsl #16
     c9c:	51000100 	mrspl	r0, (UNDEF: 16)
     ca0:	00000018 	andeq	r0, r0, r8, lsl r0
     ca4:	00000040 	andeq	r0, r0, r0, asr #32
     ca8:	01f30004 	mvnseq	r0, r4
     cac:	00009f51 	andeq	r9, r0, r1, asr pc
     cb0:	00000000 	andeq	r0, r0, r0
     cb4:	00400000 	subeq	r0, r0, r0
     cb8:	00600000 	rsbeq	r0, r0, r0
     cbc:	00010000 	andeq	r0, r1, r0
     cc0:	00006050 	andeq	r6, r0, r0, asr r0
     cc4:	00006c00 	andeq	r6, r0, r0, lsl #24
     cc8:	71000300 	mrsvc	r0, LR_irq
     ccc:	006c9f01 	rsbeq	r9, ip, r1, lsl #30
     cd0:	00740000 	rsbseq	r0, r4, r0
     cd4:	00010000 	andeq	r0, r1, r0
     cd8:	00007451 	andeq	r7, r0, r1, asr r4
     cdc:	00008000 	andeq	r8, r0, r0
     ce0:	71000300 	mrsvc	r0, LR_irq
     ce4:	00009f01 	andeq	r9, r0, r1, lsl #30
     ce8:	00000000 	andeq	r0, r0, r0
     cec:	00400000 	subeq	r0, r0, r0
     cf0:	00500000 	subseq	r0, r0, r0
     cf4:	00010000 	andeq	r0, r1, r0
     cf8:	00005051 	andeq	r5, r0, r1, asr r0
     cfc:	00008000 	andeq	r8, r0, r0
     d00:	f3000400 	vshl.u8	d0, d0, d0
     d04:	009f5101 	addseq	r5, pc, r1, lsl #2
     d08:	00000000 	andeq	r0, r0, r0
     d0c:	40000000 	andmi	r0, r0, r0
     d10:	58000000 	stmdapl	r0, {}	; <UNPREDICTABLE>
     d14:	01000000 	mrseq	r0, (UNDEF: 0)
     d18:	00585200 	subseq	r5, r8, r0, lsl #4
     d1c:	00640000 	rsbeq	r0, r4, r0
     d20:	00010000 	andeq	r0, r1, r0
     d24:	00006452 	andeq	r6, r0, r2, asr r4
     d28:	00006800 	andeq	r6, r0, r0, lsl #16
     d2c:	72000300 	andvc	r0, r0, #0, 6
     d30:	00689f01 	rsbeq	r9, r8, r1, lsl #30
     d34:	00800000 	addeq	r0, r0, r0
     d38:	00010000 	andeq	r0, r1, r0
     d3c:	00000052 	andeq	r0, r0, r2, asr r0
     d40:	00000000 	andeq	r0, r0, r0
     d44:	00004000 	andeq	r4, r0, r0
     d48:	00005400 	andeq	r5, r0, r0, lsl #8
     d4c:	53000100 	movwpl	r0, #256	; 0x100
     d50:	00000054 	andeq	r0, r0, r4, asr r0
     d54:	00000078 	andeq	r0, r0, r8, ror r0
     d58:	00530001 	subseq	r0, r3, r1
     d5c:	00000000 	andeq	r0, r0, r0
     d60:	48000000 	stmdami	r0, {}	; <UNPREDICTABLE>
     d64:	60000000 	andvs	r0, r0, r0
     d68:	01000000 	mrseq	r0, (UNDEF: 0)
     d6c:	00605c00 	rsbeq	r5, r0, r0, lsl #24
     d70:	00800000 	addeq	r0, r0, r0
     d74:	000a0000 	andeq	r0, sl, r0
     d78:	f35201f3 	vbsl	q8, q9, <illegal reg q9.5>
     d7c:	231c5301 	tstcs	ip, #67108864	; 0x4000000
     d80:	00009f01 	andeq	r9, r0, r1, lsl #30
     d84:	00000000 	andeq	r0, r0, r0
     d88:	00800000 	addeq	r0, r0, r0
     d8c:	00a40000 	adceq	r0, r4, r0
     d90:	00010000 	andeq	r0, r1, r0
     d94:	0000a450 	andeq	sl, r0, r0, asr r4
     d98:	00011800 	andeq	r1, r1, r0, lsl #16
     d9c:	70000300 	andvc	r0, r0, r0, lsl #6
     da0:	01189f02 	tsteq	r8, r2, lsl #30
     da4:	02300000 	eorseq	r0, r0, #0
     da8:	00040000 	andeq	r0, r4, r0
     dac:	9f5001f3 	svcls	0x005001f3
	...
     db8:	00000080 	andeq	r0, r0, r0, lsl #1
     dbc:	000000f0 	strdeq	r0, [r0], -r0	; <UNPREDICTABLE>
     dc0:	f0510001 			; <UNDEFINED> instruction: 0xf0510001
     dc4:	60000000 	andvs	r0, r0, r0
     dc8:	01000001 	tsteq	r0, r1
     dcc:	01605500 	cmneq	r0, r0, lsl #10
     dd0:	016c0000 	cmneq	ip, r0
     dd4:	00010000 	andeq	r0, r1, r0
     dd8:	00016c51 	andeq	r6, r1, r1, asr ip
     ddc:	0001a000 	andeq	sl, r1, r0
     de0:	55000100 	strpl	r0, [r0, #-256]	; 0x100
     de4:	000001a0 	andeq	r0, r0, r0, lsr #3
     de8:	000001b4 			; <UNDEFINED> instruction: 0x000001b4
     dec:	b4510001 	ldrblt	r0, [r1], #-1
     df0:	d4000001 	strle	r0, [r0], #-1
     df4:	01000001 	tsteq	r0, r1
     df8:	01d45500 	bicseq	r5, r4, r0, lsl #10
     dfc:	01d70000 	bicseq	r0, r7, r0
     e00:	00010000 	andeq	r0, r1, r0
     e04:	0001d751 	andeq	sp, r1, r1, asr r7
     e08:	00021400 	andeq	r1, r2, r0, lsl #8
     e0c:	55000100 	strpl	r0, [r0, #-256]	; 0x100
     e10:	00000214 	andeq	r0, r0, r4, lsl r2
     e14:	00000230 	andeq	r0, r0, r0, lsr r2
     e18:	01f30004 	mvnseq	r0, r4
     e1c:	00009f51 	andeq	r9, r0, r1, asr pc
     e20:	00000000 	andeq	r0, r0, r0
     e24:	00800000 	addeq	r0, r0, r0
     e28:	00940000 	addseq	r0, r4, r0
     e2c:	00010000 	andeq	r0, r1, r0
     e30:	00009452 	andeq	r9, r0, r2, asr r4
     e34:	00021400 	andeq	r1, r2, r0, lsl #8
     e38:	54000100 	strpl	r0, [r0], #-256	; 0x100
     e3c:	00000214 	andeq	r0, r0, r4, lsl r2
     e40:	00000230 	andeq	r0, r0, r0, lsr r2
     e44:	01f30004 	mvnseq	r0, r4
     e48:	00009f52 	andeq	r9, r0, r2, asr pc
     e4c:	00000000 	andeq	r0, r0, r0
     e50:	00800000 	addeq	r0, r0, r0
     e54:	01000000 	mrseq	r0, (UNDEF: 0)
     e58:	00010000 	andeq	r0, r1, r0
     e5c:	00010453 	andeq	r0, r1, r3, asr r4
     e60:	00010800 	andeq	r0, r1, r0, lsl #16
     e64:	53000100 	movwpl	r0, #256	; 0x100
     e68:	00000160 	andeq	r0, r0, r0, ror #2
     e6c:	00000164 	andeq	r0, r0, r4, ror #2
     e70:	64530001 	ldrbvs	r0, [r3], #-1
     e74:	6c000001 	stcvs	0, cr0, [r0], {1}
     e78:	01000001 	tsteq	r0, r1
     e7c:	016c5c00 	cmneq	ip, r0, lsl #24
     e80:	01a00000 	moveq	r0, r0
     e84:	00040000 	andeq	r0, r4, r0
     e88:	9f5301f3 	svcls	0x005301f3
     e8c:	000001a0 	andeq	r0, r0, r0, lsr #3
     e90:	000001b0 			; <UNDEFINED> instruction: 0x000001b0
     e94:	b0530001 	subslt	r0, r3, r1
     e98:	b4000001 	strlt	r0, [r0], #-1
     e9c:	01000001 	tsteq	r0, r1
     ea0:	01b45c00 			; <UNDEFINED> instruction: 0x01b45c00
     ea4:	01d40000 	bicseq	r0, r4, r0
     ea8:	00040000 	andeq	r0, r4, r0
     eac:	9f5301f3 	svcls	0x005301f3
     eb0:	000001d4 	ldrdeq	r0, [r0], -r4
     eb4:	000001d7 	ldrdeq	r0, [r0], -r7
     eb8:	d7530001 	ldrble	r0, [r3, -r1]
     ebc:	f0000001 			; <UNDEFINED> instruction: 0xf0000001
     ec0:	04000001 	streq	r0, [r0], #-1
     ec4:	5301f300 	movwpl	pc, #4864	; 0x1300	; <UNPREDICTABLE>
     ec8:	0000009f 	muleq	r0, pc, r0	; <UNPREDICTABLE>
     ecc:	00000000 	andeq	r0, r0, r0
     ed0:	00008000 	andeq	r8, r0, r0
     ed4:	00009c00 	andeq	r9, r0, r0, lsl #24
     ed8:	91000200 	mrsls	r0, R8_usr
     edc:	00009c00 	andeq	r9, r0, r0, lsl #24
     ee0:	0001d700 	andeq	sp, r1, r0, lsl #14
     ee4:	52000100 	andpl	r0, r0, #0, 2
     ee8:	000001f0 	strdeq	r0, [r0], -r0	; <UNPREDICTABLE>
     eec:	000001f7 	strdeq	r0, [r0], -r7
     ef0:	00520001 	subseq	r0, r2, r1
     ef4:	00000000 	andeq	r0, r0, r0
     ef8:	9c000000 	stcls	0, cr0, [r0], {-0}
     efc:	18000000 	stmdane	r0, {}	; <UNPREDICTABLE>
     f00:	01000001 	tsteq	r0, r1
     f04:	01185d00 	tsteq	r8, r0, lsl #26
     f08:	011c0000 	tsteq	ip, r0
     f0c:	00010000 	andeq	r0, r1, r0
     f10:	00011c50 	andeq	r1, r1, r0, asr ip
     f14:	00012000 	andeq	r2, r1, r0
     f18:	51000100 	mrspl	r0, (UNDEF: 16)
     f1c:	00000120 	andeq	r0, r0, r0, lsr #2
     f20:	00000160 	andeq	r0, r0, r0, ror #2
     f24:	60500001 	subsvs	r0, r0, r1
     f28:	6c000001 	stcvs	0, cr0, [r0], {1}
     f2c:	01000001 	tsteq	r0, r1
     f30:	016c5d00 	cmneq	ip, r0, lsl #26
     f34:	01700000 	cmneq	r0, r0
     f38:	00010000 	andeq	r0, r1, r0
     f3c:	00017050 	andeq	r7, r1, r0, asr r0
     f40:	00017400 	andeq	r7, r1, r0, lsl #8
     f44:	53000100 	movwpl	r0, #256	; 0x100
     f48:	00000174 	andeq	r0, r0, r4, ror r1
     f4c:	00000188 	andeq	r0, r0, r8, lsl #3
     f50:	88500001 	ldmdahi	r0, {r0}^
     f54:	94000001 	strls	r0, [r0], #-1
     f58:	03000001 	movweq	r0, #1
     f5c:	9f017000 	svcls	0x00017000
     f60:	00000194 	muleq	r0, r4, r1
     f64:	000001a0 	andeq	r0, r0, r0, lsr #3
     f68:	a0500001 	subsge	r0, r0, r1
     f6c:	a8000001 	stmdage	r0, {r0}
     f70:	04000001 	streq	r0, [r0], #-1
     f74:	7fa19100 	svcvc	0x00a19100
     f78:	0001a89f 	muleq	r1, pc, r8	; <UNPREDICTABLE>
     f7c:	0001ac00 	andeq	sl, r1, r0, lsl #24
     f80:	50000100 	andpl	r0, r0, r0, lsl #2
     f84:	000001ac 	andeq	r0, r0, ip, lsr #3
     f88:	000001b4 			; <UNDEFINED> instruction: 0x000001b4
     f8c:	b45d0001 	ldrblt	r0, [sp], #-1
     f90:	b8000001 	stmdalt	r0, {r0}
     f94:	01000001 	tsteq	r0, r1
     f98:	01b85300 			; <UNDEFINED> instruction: 0x01b85300
     f9c:	01d40000 	bicseq	r0, r4, r0
     fa0:	00010000 	andeq	r0, r1, r0
     fa4:	0001d450 	andeq	sp, r1, r0, asr r4
     fa8:	0001f000 	andeq	pc, r1, r0
     fac:	5d000100 	stfpls	f0, [r0, #-0]
     fb0:	000001f0 	strdeq	r0, [r0], -r0	; <UNPREDICTABLE>
     fb4:	000001f7 	strdeq	r0, [r0], -r7
     fb8:	00500001 	subseq	r0, r0, r1
     fbc:	00000000 	andeq	r0, r0, r0
     fc0:	a0000000 	andge	r0, r0, r0
     fc4:	ec000000 	stc	0, cr0, [r0], {-0}
     fc8:	01000000 	mrseq	r0, (UNDEF: 0)
     fcc:	00ec5c00 	rsceq	r5, ip, r0, lsl #24
     fd0:	01000000 	mrseq	r0, (UNDEF: 0)
     fd4:	00010000 	andeq	r0, r1, r0
     fd8:	00010053 	andeq	r0, r1, r3, asr r0
     fdc:	00010400 	andeq	r0, r1, r0, lsl #8
     fe0:	5c000100 	stfpls	f0, [r0], {-0}
     fe4:	00000104 	andeq	r0, r0, r4, lsl #2
     fe8:	00000108 	andeq	r0, r0, r8, lsl #2
     fec:	08530001 	ldmdaeq	r3, {r0}^
     ff0:	60000001 	andvs	r0, r0, r1
     ff4:	01000001 	tsteq	r0, r1
     ff8:	01605c00 	cmneq	r0, r0, lsl #24
     ffc:	01640000 	cmneq	r4, r0
    1000:	00010000 	andeq	r0, r1, r0
    1004:	00016453 	andeq	r6, r1, r3, asr r4
    1008:	00018000 	andeq	r8, r1, r0
    100c:	5c000100 	stfpls	f0, [r0], {-0}
    1010:	00000180 	andeq	r0, r0, r0, lsl #3
    1014:	00000184 	andeq	r0, r0, r4, lsl #3
    1018:	007c0005 	rsbseq	r0, ip, r5
    101c:	849f2534 	ldrhi	r2, [pc], #1332	; 1024 <__code_start__-0x6fdc>
    1020:	a0000001 	andge	r0, r0, r1
    1024:	01000001 	tsteq	r0, r1
    1028:	01a05c00 	lsleq	r5, r0, #24
    102c:	01b00000 	movseq	r0, r0
    1030:	00010000 	andeq	r0, r1, r0
    1034:	0001b053 	andeq	fp, r1, r3, asr r0
    1038:	0001c400 	andeq	ip, r1, r0, lsl #8
    103c:	5c000100 	stfpls	f0, [r0], {-0}
    1040:	000001c4 	andeq	r0, r0, r4, asr #3
    1044:	000001cc 	andeq	r0, r0, ip, asr #3
    1048:	007c0005 	rsbseq	r0, ip, r5
    104c:	cc9f2531 	cfldr32gt	mvfx2, [pc], {49}	; 0x31
    1050:	d4000001 	strle	r0, [r0], #-1
    1054:	01000001 	tsteq	r0, r1
    1058:	01d45c00 	bicseq	r5, r4, r0, lsl #24
    105c:	01d70000 	bicseq	r0, r7, r0
    1060:	00010000 	andeq	r0, r1, r0
    1064:	0001d753 	andeq	sp, r1, r3, asr r7
    1068:	0001f000 	andeq	pc, r1, r0
    106c:	f3000400 	vshl.u8	d0, d0, d0
    1070:	f09f5301 			; <UNDEFINED> instruction: 0xf09f5301
    1074:	f7000001 			; <UNDEFINED> instruction: 0xf7000001
    1078:	01000001 	tsteq	r0, r1
    107c:	00005c00 	andeq	r5, r0, r0, lsl #24
    1080:	00000000 	andeq	r0, r0, r0
    1084:	00ec0000 	rsceq	r0, ip, r0
    1088:	00fc0000 	rscseq	r0, ip, r0
    108c:	00020000 	andeq	r0, r2, r0
    1090:	00fc9f30 	rscseq	r9, ip, r0, lsr pc
    1094:	01040000 	mrseq	r0, (UNDEF: 4)
    1098:	00020000 	andeq	r0, r2, r0
    109c:	01049f31 	tsteq	r4, r1, lsr pc
    10a0:	01080000 	mrseq	r0, (UNDEF: 8)
    10a4:	00020000 	andeq	r0, r2, r0
    10a8:	00009f30 	andeq	r9, r0, r0, lsr pc
    10ac:	00000000 	andeq	r0, r0, r0
    10b0:	02300000 	eorseq	r0, r0, #0
    10b4:	023f0000 	eorseq	r0, pc, #0
    10b8:	00010000 	andeq	r0, r1, r0
    10bc:	00023f50 	andeq	r3, r2, r0, asr pc
    10c0:	00025800 	andeq	r5, r2, r0, lsl #16
    10c4:	f3000400 	vshl.u8	d0, d0, d0
    10c8:	589f5001 	ldmpl	pc, {r0, ip, lr}	; <UNPREDICTABLE>
    10cc:	84000002 	strhi	r0, [r0], #-2
    10d0:	01000002 	tsteq	r0, r2
    10d4:	00005000 	andeq	r5, r0, r0
    10d8:	00000000 	andeq	r0, r0, r0
    10dc:	02300000 	eorseq	r0, r0, #0
    10e0:	023f0000 	eorseq	r0, pc, #0
    10e4:	00010000 	andeq	r0, r1, r0
    10e8:	00023f51 	andeq	r3, r2, r1, asr pc
    10ec:	00025800 	andeq	r5, r2, r0, lsl #16
    10f0:	f3000400 	vshl.u8	d0, d0, d0
    10f4:	589f5101 	ldmpl	pc, {r0, r8, ip, lr}	; <UNPREDICTABLE>
    10f8:	84000002 	strhi	r0, [r0], #-2
    10fc:	01000002 	tsteq	r0, r2
    1100:	00005100 	andeq	r5, r0, r0, lsl #2
    1104:	00000000 	andeq	r0, r0, r0
    1108:	02840000 	addeq	r0, r4, #0
    110c:	02b00000 	adcseq	r0, r0, #0
    1110:	00010000 	andeq	r0, r1, r0
    1114:	0002b050 	andeq	fp, r2, r0, asr r0
    1118:	0004f800 	andeq	pc, r4, r0, lsl #16
    111c:	5a000100 	bpl	1524 <__code_start__-0x6adc>
    1120:	000004f8 	strdeq	r0, [r0], -r8
    1124:	0000050c 	andeq	r0, r0, ip, lsl #10
    1128:	01f30004 	mvnseq	r0, r4
    112c:	00009f50 	andeq	r9, r0, r0, asr pc
    1130:	00000000 	andeq	r0, r0, r0
    1134:	02840000 	addeq	r0, r4, #0
    1138:	02980000 	addseq	r0, r8, #0
    113c:	00010000 	andeq	r0, r1, r0
    1140:	00029851 	andeq	r9, r2, r1, asr r8
    1144:	0002b000 	andeq	fp, r2, r0
    1148:	71000300 	mrsvc	r0, LR_irq
    114c:	02b09f01 	adcseq	r9, r0, #1, 30
    1150:	050c0000 	streq	r0, [ip, #-0]
    1154:	00040000 	andeq	r0, r4, r0
    1158:	9f5101f3 	svcls	0x005101f3
	...
    1164:	00000284 	andeq	r0, r0, r4, lsl #5
    1168:	000002b8 			; <UNDEFINED> instruction: 0x000002b8
    116c:	b8520001 	ldmdalt	r2, {r0}^
    1170:	e0000002 	and	r0, r0, r2
    1174:	01000002 	tsteq	r0, r2
    1178:	02e05200 	rsceq	r5, r0, #0, 4
    117c:	04a80000 	strteq	r0, [r8], #0
    1180:	00010000 	andeq	r0, r1, r0
    1184:	0004a856 	andeq	sl, r4, r6, asr r8
    1188:	00050c00 	andeq	r0, r5, r0, lsl #24
    118c:	52000100 	andpl	r0, r0, #0, 2
	...
    1198:	00000284 	andeq	r0, r0, r4, lsl #5
    119c:	000002a0 	andeq	r0, r0, r0, lsr #5
    11a0:	00530001 	subseq	r0, r3, r1
    11a4:	00000000 	andeq	r0, r0, r0
    11a8:	94000000 	strls	r0, [r0], #-0
    11ac:	b0000002 	andlt	r0, r0, r2
    11b0:	01000002 	tsteq	r0, r2
    11b4:	02b05000 	adcseq	r5, r0, #0
    11b8:	02b40000 	adcseq	r0, r4, #0
    11bc:	00010000 	andeq	r0, r1, r0
    11c0:	0002b454 	andeq	fp, r2, r4, asr r4
    11c4:	0002c000 	andeq	ip, r2, r0
    11c8:	74000300 	strvc	r0, [r0], #-768	; 0x300
    11cc:	02c09f01 	sbceq	r9, r0, #1, 30
    11d0:	02cc0000 	sbceq	r0, ip, #0
    11d4:	00010000 	andeq	r0, r1, r0
    11d8:	0002cc54 	andeq	ip, r2, r4, asr ip
    11dc:	0002d800 	andeq	sp, r2, r0, lsl #16
    11e0:	74000300 	strvc	r0, [r0], #-768	; 0x300
    11e4:	02d89f01 	sbcseq	r9, r8, #1, 30
    11e8:	04ac0000 	strteq	r0, [ip], #0
    11ec:	00010000 	andeq	r0, r1, r0
    11f0:	0004ac54 	andeq	sl, r4, r4, asr ip
    11f4:	0004b800 	andeq	fp, r4, r0, lsl #16
    11f8:	74000300 	strvc	r0, [r0], #-768	; 0x300
    11fc:	04b89f01 	ldrteq	r9, [r8], #3841	; 0xf01
    1200:	04e40000 	strbteq	r0, [r4], #0
    1204:	00010000 	andeq	r0, r1, r0
    1208:	0004e454 	andeq	lr, r4, r4, asr r4
    120c:	0004f000 	andeq	pc, r4, r0
    1210:	50000100 	andpl	r0, r0, r0, lsl #2
    1214:	000004f0 	strdeq	r0, [r0], -r0	; <UNPREDICTABLE>
    1218:	000004f8 	strdeq	r0, [r0], -r8
    121c:	01740003 	cmneq	r4, r3
    1220:	0000009f 	muleq	r0, pc, r0	; <UNPREDICTABLE>
    1224:	00000000 	andeq	r0, r0, r0
    1228:	00029c00 	andeq	r9, r2, r0, lsl #24
    122c:	0004f800 	andeq	pc, r4, r0, lsl #16
    1230:	58000100 	stmdapl	r0, {r8}
    1234:	000004f8 	strdeq	r0, [r0], -r8
    1238:	0000050c 	andeq	r0, r0, ip, lsl #10
    123c:	01f3000a 	mvnseq	r0, sl
    1240:	5001f351 	andpl	pc, r1, r1, asr r3	; <UNPREDICTABLE>
    1244:	9f1c3122 	svcls	0x001c3122
	...
    1250:	000003e0 	andeq	r0, r0, r0, ror #7
    1254:	000003e4 	andeq	r0, r0, r4, ror #7
    1258:	04500001 	ldrbeq	r0, [r0], #-1
    125c:	08000004 	stmdaeq	r0, {r2}
    1260:	01000004 	tsteq	r0, r4
    1264:	04285000 	strteq	r5, [r8], #-0
    1268:	042c0000 	strteq	r0, [ip], #-0
    126c:	00010000 	andeq	r0, r1, r0
    1270:	00044c50 	andeq	r4, r4, r0, asr ip
    1274:	00045000 	andeq	r5, r4, r0
    1278:	50000100 	andpl	r0, r0, r0, lsl #2
    127c:	00000458 	andeq	r0, r0, r8, asr r4
    1280:	0000045c 	andeq	r0, r0, ip, asr r4
    1284:	7c500001 	mrrcvc	0, 0, r0, r0, cr1	; <UNPREDICTABLE>
    1288:	80000004 	andhi	r0, r0, r4
    128c:	01000004 	tsteq	r0, r4
    1290:	04a45000 	strteq	r5, [r4], #0
    1294:	04cc0000 	strbeq	r0, [ip], #0
    1298:	00010000 	andeq	r0, r1, r0
    129c:	00000050 	andeq	r0, r0, r0, asr r0
    12a0:	00000000 	andeq	r0, r0, r0
    12a4:	0002e000 	andeq	lr, r2, r0
    12a8:	0002e800 	andeq	lr, r2, r0, lsl #16
    12ac:	30000200 	andcc	r0, r0, r0, lsl #4
    12b0:	0002e89f 	muleq	r2, pc, r8	; <UNPREDICTABLE>
    12b4:	0002ec00 	andeq	lr, r2, r0, lsl #24
    12b8:	57000100 	strpl	r0, [r0, -r0, lsl #2]
    12bc:	000002f8 	strdeq	r0, [r0], -r8
    12c0:	000004cc 	andeq	r0, r0, ip, asr #9
    12c4:	00570001 	subseq	r0, r7, r1
    12c8:	00000000 	andeq	r0, r0, r0
    12cc:	14000000 	strne	r0, [r0], #-0
    12d0:	1c000000 	stcne	0, cr0, [r0], {-0}
    12d4:	03000000 	movweq	r0, #0
    12d8:	9f047300 	svcls	0x00047300
    12dc:	0000001c 	andeq	r0, r0, ip, lsl r0
    12e0:	00000027 	andeq	r0, r0, r7, lsr #32
    12e4:	00530001 	subseq	r0, r3, r1
    12e8:	00000000 	andeq	r0, r0, r0
    12ec:	e4000000 	str	r0, [r0], #-0
    12f0:	e8000096 	stmda	r0, {r1, r2, r4, r7}
    12f4:	02000096 	andeq	r0, r0, #150	; 0x96
    12f8:	e89f3000 	ldm	pc, {ip, sp}	; <UNPREDICTABLE>
    12fc:	ec000096 	stc	0, cr0, [r0], {150}	; 0x96
    1300:	01000096 	swpeq	r0, r6, [r0]	; <UNPREDICTABLE>
    1304:	00005000 	andeq	r5, r0, r0
    1308:	00000000 	andeq	r0, r0, r0
    130c:	96fc0000 	ldrbtls	r0, [ip], r0
    1310:	97000000 	strls	r0, [r0, -r0]
    1314:	00020000 	andeq	r0, r2, r0
    1318:	97009f30 	smladxls	r0, r0, pc, r9	; <UNPREDICTABLE>
    131c:	97040000 	strls	r0, [r4, -r0]
    1320:	00010000 	andeq	r0, r1, r0
    1324:	00970853 	addseq	r0, r7, r3, asr r8
    1328:	00971000 	addseq	r1, r7, r0
    132c:	53000100 	movwpl	r0, #256	; 0x100
	...
    133c:	00000004 	andeq	r0, r0, r4
    1340:	04500001 	ldrbeq	r0, [r0], #-1
    1344:	0c000000 	stceq	0, cr0, [r0], {-0}
    1348:	01000000 	mrseq	r0, (UNDEF: 0)
    134c:	000c5300 	andeq	r5, ip, r0, lsl #6
    1350:	00100000 	andseq	r0, r0, r0
    1354:	00010000 	andeq	r0, r1, r0
    1358:	00001050 	andeq	r1, r0, r0, asr r0
    135c:	00001c00 	andeq	r1, r0, r0, lsl #24
    1360:	53000100 	movwpl	r0, #256	; 0x100
	...
    136c:	0000003c 	andeq	r0, r0, ip, lsr r0
    1370:	00000047 	andeq	r0, r0, r7, asr #32
    1374:	47500001 	ldrbmi	r0, [r0, -r1]
    1378:	60000000 	andvs	r0, r0, r0
    137c:	01000000 	mrseq	r0, (UNDEF: 0)
    1380:	00005500 	andeq	r5, r0, r0, lsl #10
    1384:	00000000 	andeq	r0, r0, r0
    1388:	00500000 	subseq	r0, r0, r0
    138c:	00540000 	subseq	r0, r4, r0
    1390:	00010000 	andeq	r0, r1, r0
    1394:	00000050 	andeq	r0, r0, r0, asr r0
    1398:	00000000 	andeq	r0, r0, r0
    139c:	00006000 	andeq	r6, r0, r0
    13a0:	00006c00 	andeq	r6, r0, r0, lsl #24
    13a4:	50000100 	andpl	r0, r0, r0, lsl #2
    13a8:	0000006c 	andeq	r0, r0, ip, rrx
    13ac:	00000074 	andeq	r0, r0, r4, ror r0
    13b0:	01f30004 	mvnseq	r0, r4
    13b4:	00009f50 	andeq	r9, r0, r0, asr pc
    13b8:	00000000 	andeq	r0, r0, r0
    13bc:	00740000 	rsbseq	r0, r4, r0
    13c0:	00800000 	addeq	r0, r0, r0
    13c4:	00010000 	andeq	r0, r1, r0
    13c8:	00008050 	andeq	r8, r0, r0, asr r0
    13cc:	00008800 	andeq	r8, r0, r0, lsl #16
    13d0:	f3000400 	vshl.u8	d0, d0, d0
    13d4:	009f5001 	addseq	r5, pc, r1
    13d8:	00000000 	andeq	r0, r0, r0
    13dc:	38000000 	stmdacc	r0, {}	; <UNPREDICTABLE>
    13e0:	43000001 	movwmi	r0, #1
    13e4:	01000001 	tsteq	r0, r1
    13e8:	01435000 	mrseq	r5, (UNDEF: 67)
    13ec:	01680000 	cmneq	r8, r0
    13f0:	00010000 	andeq	r0, r1, r0
    13f4:	00000054 	andeq	r0, r0, r4, asr r0
	...
    1400:	00000f00 	andeq	r0, r0, r0, lsl #30
    1404:	50000100 	andpl	r0, r0, r0, lsl #2
    1408:	0000000f 	andeq	r0, r0, pc
    140c:	00000020 	andeq	r0, r0, r0, lsr #32
    1410:	00540001 	subseq	r0, r4, r1
	...
    141c:	0f000000 	svceq	0x00000000
    1420:	01000000 	mrseq	r0, (UNDEF: 0)
    1424:	000f5100 	andeq	r5, pc, r0, lsl #2
    1428:	00200000 	eoreq	r0, r0, r0
    142c:	00010000 	andeq	r0, r1, r0
    1430:	00000055 	andeq	r0, r0, r5, asr r0
    1434:	00000000 	andeq	r0, r0, r0
    1438:	0000ec00 	andeq	lr, r0, r0, lsl #24
    143c:	00010400 	andeq	r0, r1, r0, lsl #8
    1440:	50000100 	andpl	r0, r0, r0, lsl #2
    1444:	00000104 	andeq	r0, r0, r4, lsl #2
    1448:	00000114 	andeq	r0, r0, r4, lsl r1
    144c:	01f30004 	mvnseq	r0, r4
    1450:	01149f50 	tsteq	r4, r0, asr pc
    1454:	01180000 	tsteq	r8, r0
    1458:	00010000 	andeq	r0, r1, r0
    145c:	00011850 	andeq	r1, r1, r0, asr r8
    1460:	00012000 	andeq	r2, r1, r0
    1464:	f3000400 	vshl.u8	d0, d0, d0
    1468:	009f5001 	addseq	r5, pc, r1
    146c:	00000000 	andeq	r0, r0, r0
    1470:	f8000000 			; <UNDEFINED> instruction: 0xf8000000
    1474:	04000000 	streq	r0, [r0], #-0
    1478:	0b000001 	bleq	1484 <__code_start__-0x6b7c>
    147c:	35007000 	strcc	r7, [r0, #-0]
    1480:	80b42325 	adcshi	r2, r4, r5, lsr #6
    1484:	9f028180 	svcls	0x00028180
    1488:	00000104 	andeq	r0, r0, r4, lsl #2
    148c:	00000107 	andeq	r0, r0, r7, lsl #2
    1490:	07500001 	ldrbeq	r0, [r0, -r1]
    1494:	14000001 	strne	r0, [r0], #-1
    1498:	0c000001 	stceq	0, cr0, [r0], {1}
    149c:	5001f300 	andpl	pc, r1, r0, lsl #6
    14a0:	b4232535 	strtlt	r2, [r3], #-1333	; 0x535
    14a4:	02818080 	addeq	r8, r1, #128	; 0x80
    14a8:	0000009f 	muleq	r0, pc, r0	; <UNPREDICTABLE>
    14ac:	00000000 	andeq	r0, r0, r0
    14b0:	0000fc00 	andeq	pc, r0, r0, lsl #24
    14b4:	00011400 	andeq	r1, r1, r0, lsl #8
    14b8:	54000100 	strpl	r0, [r0], #-256	; 0x100
	...
    14c4:	000000d0 	ldrdeq	r0, [r0], -r0	; <UNPREDICTABLE>
    14c8:	000000df 	ldrdeq	r0, [r0], -pc	; <UNPREDICTABLE>
    14cc:	df500001 	svcle	0x00500001
    14d0:	e4000000 	str	r0, [r0], #-0
    14d4:	04000000 	streq	r0, [r0], #-0
    14d8:	5001f300 	andpl	pc, r1, r0, lsl #6
    14dc:	0000e49f 	muleq	r0, pc, r4	; <UNPREDICTABLE>
    14e0:	0000e700 	andeq	lr, r0, r0, lsl #14
    14e4:	50000100 	andpl	r0, r0, r0, lsl #2
    14e8:	000000e7 	andeq	r0, r0, r7, ror #1
    14ec:	000000ec 	andeq	r0, r0, ip, ror #1
    14f0:	01f30004 	mvnseq	r0, r4
    14f4:	00009f50 	andeq	r9, r0, r0, asr pc
    14f8:	00000000 	andeq	r0, r0, r0
    14fc:	00d00000 	sbcseq	r0, r0, r0
    1500:	00df0000 	sbcseq	r0, pc, r0
    1504:	00010000 	andeq	r0, r1, r0
    1508:	0000df51 	andeq	sp, r0, r1, asr pc
    150c:	0000e400 	andeq	lr, r0, r0, lsl #8
    1510:	f3000400 	vshl.u8	d0, d0, d0
    1514:	e49f5101 	ldr	r5, [pc], #257	; 151c <__code_start__-0x6ae4>
    1518:	e7000000 	str	r0, [r0, -r0]
    151c:	01000000 	mrseq	r0, (UNDEF: 0)
    1520:	00e75100 	rsceq	r5, r7, r0, lsl #2
    1524:	00ec0000 	rsceq	r0, ip, r0
    1528:	00040000 	andeq	r0, r4, r0
    152c:	9f5101f3 	svcls	0x005101f3
	...
    1538:	000000c0 	andeq	r0, r0, r0, asr #1
    153c:	000000cb 	andeq	r0, r0, fp, asr #1
    1540:	cb500001 	blgt	140154c <__bss_end__+0x13f6994>
    1544:	d0000000 	andle	r0, r0, r0
    1548:	04000000 	streq	r0, [r0], #-0
    154c:	5001f300 	andpl	pc, r1, r0, lsl #6
    1550:	0000009f 	muleq	r0, pc, r0	; <UNPREDICTABLE>
    1554:	00000000 	andeq	r0, r0, r0
    1558:	00009c00 	andeq	r9, r0, r0, lsl #24
    155c:	0000b400 	andeq	fp, r0, r0, lsl #8
    1560:	50000100 	andpl	r0, r0, r0, lsl #2
    1564:	000000b4 	strheq	r0, [r0], -r4
    1568:	000000c0 	andeq	r0, r0, r0, asr #1
    156c:	01f30004 	mvnseq	r0, r4
    1570:	00009f50 	andeq	r9, r0, r0, asr pc
    1574:	00000000 	andeq	r0, r0, r0
    1578:	00780000 	rsbseq	r0, r8, r0
    157c:	00900000 	addseq	r0, r0, r0
    1580:	00010000 	andeq	r0, r1, r0
    1584:	00009050 	andeq	r9, r0, r0, asr r0
    1588:	00009c00 	andeq	r9, r0, r0, lsl #24
    158c:	f3000400 	vshl.u8	d0, d0, d0
    1590:	009f5001 	addseq	r5, pc, r1
    1594:	00000000 	andeq	r0, r0, r0
    1598:	68000000 	stmdavs	r0, {}	; <UNPREDICTABLE>
    159c:	73000000 	movwvc	r0, #0
    15a0:	01000000 	mrseq	r0, (UNDEF: 0)
    15a4:	00735000 	rsbseq	r5, r3, r0
    15a8:	00780000 	rsbseq	r0, r8, r0
    15ac:	00040000 	andeq	r0, r4, r0
    15b0:	9f5001f3 	svcls	0x005001f3
	...
    15c0:	00000048 	andeq	r0, r0, r8, asr #32
    15c4:	48500001 	ldmdami	r0, {r0}^
    15c8:	68000000 	stmdavs	r0, {}	; <UNPREDICTABLE>
    15cc:	04000000 	streq	r0, [r0], #-0
    15d0:	5001f300 	andpl	pc, r1, r0, lsl #6
    15d4:	0000009f 	muleq	r0, pc, r0	; <UNPREDICTABLE>
	...
    15e0:	00004b00 	andeq	r4, r0, r0, lsl #22
    15e4:	51000100 	mrspl	r0, (UNDEF: 16)
    15e8:	0000004b 	andeq	r0, r0, fp, asr #32
    15ec:	00000068 	andeq	r0, r0, r8, rrx
    15f0:	01f30004 	mvnseq	r0, r4
    15f4:	00009f51 	andeq	r9, r0, r1, asr pc
    15f8:	00000000 	andeq	r0, r0, r0
    15fc:	004c0000 	subeq	r0, ip, r0
    1600:	00540000 	subseq	r0, r4, r0
    1604:	00010000 	andeq	r0, r1, r0
    1608:	00005450 	andeq	r5, r0, r0, asr r4
    160c:	00005800 	andeq	r5, r0, r0, lsl #16
    1610:	75000900 	strvc	r0, [r0, #-2304]	; 0x900
    1614:	24007400 	strcs	r7, [r0], #-1024	; 0x400
    1618:	9f210071 	svcls	0x00210071
    161c:	00000058 	andeq	r0, r0, r8, asr r0
    1620:	0000005f 	andeq	r0, r0, pc, asr r0
    1624:	00510001 	subseq	r0, r1, r1
    1628:	00000000 	andeq	r0, r0, r0
    162c:	e0000000 	and	r0, r0, r0
    1630:	1b000000 	blne	1638 <__code_start__-0x69c8>
    1634:	01000001 	tsteq	r0, r1
    1638:	011b5000 	tsteq	fp, r0
    163c:	01200000 	teqeq	r0, r0
    1640:	00040000 	andeq	r0, r4, r0
    1644:	9f5001f3 	svcls	0x005001f3
    1648:	00000120 	andeq	r0, r0, r0, lsr #2
    164c:	00000123 	andeq	r0, r0, r3, lsr #2
    1650:	23500001 	cmpcs	r0, #1
    1654:	3c000001 	stccc	0, cr0, [r0], {1}
    1658:	04000001 	streq	r0, [r0], #-1
    165c:	5001f300 	andpl	pc, r1, r0, lsl #6
    1660:	00013c9f 	muleq	r1, pc, ip	; <UNPREDICTABLE>
    1664:	00013f00 	andeq	r3, r1, r0, lsl #30
    1668:	50000100 	andpl	r0, r0, r0, lsl #2
    166c:	0000013f 	andeq	r0, r0, pc, lsr r1
    1670:	0000016c 	andeq	r0, r0, ip, ror #2
    1674:	01f30004 	mvnseq	r0, r4
    1678:	00009f50 	andeq	r9, r0, r0, asr pc
    167c:	00000000 	andeq	r0, r0, r0
    1680:	00e00000 	rsceq	r0, r0, r0
    1684:	01080000 	mrseq	r0, (UNDEF: 8)
    1688:	00010000 	andeq	r0, r1, r0
    168c:	00010851 	andeq	r0, r1, r1, asr r8
    1690:	00011b00 	andeq	r1, r1, r0, lsl #22
    1694:	71000300 	mrsvc	r0, LR_irq
    1698:	011b9f01 	tsteq	fp, r1, lsl #30
    169c:	01200000 	teqeq	r0, r0
    16a0:	00040000 	andeq	r0, r4, r0
    16a4:	9f5101f3 	svcls	0x005101f3
    16a8:	00000120 	andeq	r0, r0, r0, lsr #2
    16ac:	00000123 	andeq	r0, r0, r3, lsr #2
    16b0:	23510001 	cmpcs	r1, #1
    16b4:	6c000001 	stcvs	0, cr0, [r0], {1}
    16b8:	04000001 	streq	r0, [r0], #-1
    16bc:	5101f300 	mrspl	pc, SP_irq	; <UNPREDICTABLE>
    16c0:	0000009f 	muleq	r0, pc, r0	; <UNPREDICTABLE>
    16c4:	00000000 	andeq	r0, r0, r0
    16c8:	0000f800 	andeq	pc, r0, r0, lsl #16
    16cc:	0000fc00 	andeq	pc, r0, r0, lsl #24
    16d0:	52000100 	andpl	r0, r0, #0, 2
    16d4:	000000fc 	strdeq	r0, [r0], -ip
    16d8:	00000104 	andeq	r0, r0, r4, lsl #2
    16dc:	78030005 	stmdavc	r3, {r0, r2}
    16e0:	0400009c 	streq	r0, [r0], #-156	; 0x9c
    16e4:	1b000001 	blne	16f0 <__code_start__-0x6910>
    16e8:	01000001 	tsteq	r0, r1
    16ec:	013c5300 	teqeq	ip, r0, lsl #6
    16f0:	013f0000 	teqeq	pc, r0
    16f4:	00010000 	andeq	r0, r1, r0
    16f8:	00000053 	andeq	r0, r0, r3, asr r0
    16fc:	00000000 	andeq	r0, r0, r0
    1700:	00006c00 	andeq	r6, r0, r0, lsl #24
    1704:	00008000 	andeq	r8, r0, r0
    1708:	50000100 	andpl	r0, r0, r0, lsl #2
    170c:	00000080 	andeq	r0, r0, r0, lsl #1
    1710:	0000009b 	muleq	r0, fp, r0
    1714:	9b520001 	blls	1481720 <__bss_end__+0x1476b68>
    1718:	a4000000 	strge	r0, [r0], #-0
    171c:	09000000 	stmdbeq	r0, {}	; <UNPREDICTABLE>
    1720:	5001f300 	andpl	pc, r1, r0, lsl #6
    1724:	f8090723 			; <UNDEFINED> instruction: 0xf8090723
    1728:	00a49f1a 	adceq	r9, r4, sl, lsl pc
    172c:	00a70000 	adceq	r0, r7, r0
    1730:	00010000 	andeq	r0, r1, r0
    1734:	0000a750 	andeq	sl, r0, r0, asr r7
    1738:	0000d000 	andeq	sp, r0, r0
    173c:	f3000400 	vshl.u8	d0, d0, d0
    1740:	009f5001 	addseq	r5, pc, r1
    1744:	00000000 	andeq	r0, r0, r0
    1748:	88000000 	stmdahi	r0, {}	; <UNPREDICTABLE>
    174c:	a4000000 	strge	r0, [r0], #-0
    1750:	01000000 	mrseq	r0, (UNDEF: 0)
    1754:	00005400 	andeq	r5, r0, r0, lsl #8
    1758:	00000000 	andeq	r0, r0, r0
    175c:	001c0000 	andseq	r0, ip, r0
    1760:	00430000 	subeq	r0, r3, r0
    1764:	00010000 	andeq	r0, r1, r0
    1768:	00004350 	andeq	r4, r0, r0, asr r3
    176c:	00006c00 	andeq	r6, r0, r0, lsl #24
    1770:	f3000400 	vshl.u8	d0, d0, d0
    1774:	009f5001 	addseq	r5, pc, r1
    1778:	00000000 	andeq	r0, r0, r0
    177c:	1c000000 	stcne	0, cr0, [r0], {-0}
    1780:	43000000 	movwmi	r0, #0
    1784:	01000000 	mrseq	r0, (UNDEF: 0)
    1788:	00435000 	subeq	r5, r3, r0
    178c:	006c0000 	rsbeq	r0, ip, r0
    1790:	00040000 	andeq	r0, r4, r0
    1794:	9f5001f3 	svcls	0x005001f3
	...

Disassembly of section .debug_aranges:

00000000 <.debug_aranges>:
   0:	0000001c 	andeq	r0, r0, ip, lsl r0
   4:	00000002 	andeq	r0, r0, r2
   8:	00040000 	andeq	r0, r4, r0
   c:	00000000 	andeq	r0, r0, r0
  10:	00008010 	andeq	r8, r0, r0, lsl r0
  14:	000000c4 	andeq	r0, r0, r4, asr #1
	...
  20:	0000001c 	andeq	r0, r0, ip, lsl r0
  24:	02de0002 	sbcseq	r0, lr, #2
  28:	00040000 	andeq	r0, r4, r0
  2c:	00000000 	andeq	r0, r0, r0
  30:	000080d4 	ldrdeq	r8, [r0], -r4
  34:	0000083c 	andeq	r0, r0, ip, lsr r8
	...
  40:	0000001c 	andeq	r0, r0, ip, lsl r0
  44:	135a0002 	cmpne	sl, #2
  48:	00040000 	andeq	r0, r4, r0
  4c:	00000000 	andeq	r0, r0, r0
  50:	00008910 	andeq	r8, r0, r0, lsl r9
  54:	0000068c 	andeq	r0, r0, ip, lsl #13
	...
  60:	0000001c 	andeq	r0, r0, ip, lsl r0
  64:	20cb0002 	sbccs	r0, fp, r2
  68:	00040000 	andeq	r0, r4, r0
  6c:	00000000 	andeq	r0, r0, r0
  70:	00008fa4 	andeq	r8, r0, r4, lsr #31
  74:	000000f0 	strdeq	r0, [r0], -r0	; <UNPREDICTABLE>
	...
  80:	0000001c 	andeq	r0, r0, ip, lsl r0
  84:	21e10002 	mvncs	r0, r2
  88:	00040000 	andeq	r0, r4, r0
  8c:	00000000 	andeq	r0, r0, r0
  90:	00009094 	muleq	r0, r4, r0
  94:	00000020 	andeq	r0, r0, r0, lsr #32
	...
  a0:	0000001c 	andeq	r0, r0, ip, lsl r0
  a4:	22c00002 	sbccs	r0, r0, #2
  a8:	00040000 	andeq	r0, r4, r0
  ac:	00000000 	andeq	r0, r0, r0
  b0:	000090b4 	strheq	r9, [r0], -r4
  b4:	00000058 	andeq	r0, r0, r8, asr r0
	...
  c0:	0000001c 	andeq	r0, r0, ip, lsl r0
  c4:	24550002 	ldrbcs	r0, [r5], #-2
  c8:	00040000 	andeq	r0, r4, r0
  cc:	00000000 	andeq	r0, r0, r0
  d0:	0000910c 	andeq	r9, r0, ip, lsl #2
  d4:	0000003c 	andeq	r0, r0, ip, lsr r0
	...
  e0:	0000001c 	andeq	r0, r0, ip, lsl r0
  e4:	256c0002 	strbcs	r0, [ip, #-2]!
  e8:	00040000 	andeq	r0, r4, r0
  ec:	00000000 	andeq	r0, r0, r0
  f0:	00009148 	andeq	r9, r0, r8, asr #2
  f4:	00000034 	andeq	r0, r0, r4, lsr r0
	...
 100:	0000001c 	andeq	r0, r0, ip, lsl r0
 104:	265e0002 	ldrbcs	r0, [lr], -r2
 108:	00040000 	andeq	r0, r4, r0
 10c:	00000000 	andeq	r0, r0, r0
 110:	0000917c 	andeq	r9, r0, ip, ror r1
 114:	0000050c 	andeq	r0, r0, ip, lsl #10
	...
 120:	0000001c 	andeq	r0, r0, ip, lsl r0
 124:	2ce30002 	stclcs	0, cr0, [r3], #8
 128:	00040000 	andeq	r0, r4, r0
 12c:	00000000 	andeq	r0, r0, r0
 130:	00009688 	andeq	r9, r0, r8, lsl #13
 134:	00000028 	andeq	r0, r0, r8, lsr #32
	...
 140:	0000001c 	andeq	r0, r0, ip, lsl r0
 144:	2de60002 	stclcs	0, cr0, [r6, #8]!
 148:	00040000 	andeq	r0, r4, r0
 14c:	00000000 	andeq	r0, r0, r0
 150:	000096b0 			; <UNDEFINED> instruction: 0x000096b0
 154:	00000034 	andeq	r0, r0, r4, lsr r0
	...
 160:	0000001c 	andeq	r0, r0, ip, lsl r0
 164:	2ee90002 	cdpcs	0, 14, cr0, cr9, cr2, {0}
 168:	00040000 	andeq	r0, r4, r0
 16c:	00000000 	andeq	r0, r0, r0
 170:	000096e4 	andeq	r9, r0, r4, ror #13
 174:	00000074 	andeq	r0, r0, r4, ror r0
	...
 180:	0000001c 	andeq	r0, r0, ip, lsl r0
 184:	309a0002 	addscc	r0, sl, r2
 188:	00040000 	andeq	r0, r4, r0
 18c:	00000000 	andeq	r0, r0, r0
 190:	00009758 	andeq	r9, r0, r8, asr r7
 194:	00000088 	andeq	r0, r0, r8, lsl #1
	...
 1a0:	0000001c 	andeq	r0, r0, ip, lsl r0
 1a4:	32760002 	rsbscc	r0, r6, #2
 1a8:	00040000 	andeq	r0, r4, r0
 1ac:	00000000 	andeq	r0, r0, r0
 1b0:	0000982c 	andeq	r9, r0, ip, lsr #16
 1b4:	00000178 	andeq	r0, r0, r8, ror r1
	...
 1c0:	0000001c 	andeq	r0, r0, ip, lsl r0
 1c4:	3f3f0002 	svccc	0x003f0002
 1c8:	00040000 	andeq	r0, r4, r0
 1cc:	00000000 	andeq	r0, r0, r0
 1d0:	000099a4 	andeq	r9, r0, r4, lsr #19
 1d4:	00000120 	andeq	r0, r0, r0, lsr #2
	...
 1e0:	0000001c 	andeq	r0, r0, ip, lsl r0
 1e4:	4ab30002 	bmi	fecc01f4 <__bss_end__+0xfecb563c>
 1e8:	00040000 	andeq	r0, r4, r0
 1ec:	00000000 	andeq	r0, r0, r0
 1f0:	00009ac4 	andeq	r9, r0, r4, asr #21
 1f4:	00000194 	muleq	r0, r4, r1
	...

Disassembly of section .debug_line:

00000000 <.debug_line>:
       0:	0000016c 	andeq	r0, r0, ip, ror #2
       4:	014c0002 	cmpeq	ip, r2
       8:	01020000 	mrseq	r0, (UNDEF: 2)
       c:	000d0efb 	strdeq	r0, [sp], -fp
      10:	01010101 	tsteq	r1, r1, lsl #2
      14:	01000000 	mrseq	r0, (UNDEF: 0)
      18:	74010000 	strvc	r0, [r1], #-0
      1c:	73747365 	cmnvc	r4, #-1811939327	; 0x94000001
      20:	73752f00 	cmnvc	r5, #0, 30
      24:	6f6c2f72 	svcvs	0x006c2f72
      28:	2f6c6163 	svccs	0x006c6163
      2c:	6c6c6543 	cfstr64vs	mvdx6, [ip], #-268	; 0xfffffef4
      30:	612f7261 	teqvs	pc, r1, ror #4
      34:	6e2d6d72 	mcrvs	13, 1, r6, cr13, cr2, {3}
      38:	2d656e6f 	stclcs	14, cr6, [r5, #-444]!	; 0xfffffe44
      3c:	69626165 	stmdbvs	r2!, {r0, r2, r5, r6, r8, sp, lr}^
      40:	382e342f 	stmdacc	lr!, {r0, r1, r2, r3, r5, sl, ip, sp}
      44:	632d332e 	teqvs	sp, #-1207959552	; 0xb8000000
      48:	30373173 	eorscc	r3, r7, r3, ror r1
      4c:	696c2f65 	stmdbvs	ip!, {r0, r2, r5, r6, r8, r9, sl, fp, sp}^
      50:	63672f62 	cmnvs	r7, #392	; 0x188
      54:	72612f63 	rsbvc	r2, r1, #396	; 0x18c
      58:	6f6e2d6d 	svcvs	0x006e2d6d
      5c:	652d656e 	strvs	r6, [sp, #-1390]!	; 0x56e
      60:	2f696261 	svccs	0x00696261
      64:	2e382e34 	mrccs	14, 1, r2, cr8, cr4, {1}
      68:	6e692f33 	mcrvs	15, 3, r2, cr9, cr3, {1}
      6c:	64756c63 	ldrbtvs	r6, [r5], #-3171	; 0xc63
      70:	552f0065 	strpl	r0, [pc, #-101]!	; 13 <__code_start__-0x7fed>
      74:	73726573 	cmnvc	r2, #482344960	; 0x1cc00000
      78:	6972622f 	ldmdbvs	r2!, {r0, r1, r2, r3, r5, r9, sp, lr}^
      7c:	756a6e61 	strbvc	r6, [sl, #-3681]!	; 0xe61
      80:	65442f6e 	strbvs	r2, [r4, #-3950]	; 0xf6e
      84:	6f746b73 	svcvs	0x00746b73
      88:	63732f70 	cmnvs	r3, #112, 30	; 0x1c0
      8c:	6c6f6f68 	stclvs	15, cr6, [pc], #-416	; fffffef4 <__bss_end__+0xffff533c>
      90:	7270532f 	rsbsvc	r5, r0, #-1140850688	; 0xbc000000
      94:	31676e69 	cmncc	r7, r9, ror #28
      98:	2f303239 	svccs	0x00303239
      9c:	34325343 	ldrtcc	r5, [r2], #-835	; 0x343
      a0:	2f584c30 	svccs	0x00584c30
      a4:	34327363 	ldrtcc	r7, [r2], #-867	; 0x363
      a8:	2d786c30 	ldclcs	12, cr6, [r8, #-192]!	; 0xffffff40
      ac:	70733032 	rsbsvc	r3, r3, r2, lsr r0
      b0:	696c2f72 	stmdbvs	ip!, {r1, r4, r5, r6, r8, r9, sl, fp, sp}^
      b4:	2f697062 	svccs	0x00697062
      b8:	6c636e69 	stclvs	14, cr6, [r3], #-420	; 0xfffffe5c
      bc:	00656475 	rsbeq	r6, r5, r5, ror r4
      c0:	752f002e 	strvc	r0, [pc, #-46]!	; 9a <__code_start__-0x7f66>
      c4:	6c2f7273 	sfmvs	f7, 4, [pc], #-460	; ffffff00 <__bss_end__+0xffff5348>
      c8:	6c61636f 	stclvs	3, cr6, [r1], #-444	; 0xfffffe44
      cc:	6c65432f 	stclvs	3, cr4, [r5], #-188	; 0xffffff44
      d0:	2f72616c 	svccs	0x0072616c
      d4:	2d6d7261 	sfmcs	f7, 2, [sp, #-388]!	; 0xfffffe7c
      d8:	656e6f6e 	strbvs	r6, [lr, #-3950]!	; 0xf6e
      dc:	6261652d 	rsbvs	r6, r1, #188743680	; 0xb400000
      e0:	2e342f69 	cdpcs	15, 3, cr2, cr4, cr9, {3}
      e4:	2d332e38 	ldccs	14, cr2, [r3, #-224]!	; 0xffffff20
      e8:	37317363 	ldrcc	r7, [r1, -r3, ror #6]!
      ec:	612f6530 	teqvs	pc, r0, lsr r5	; <UNPREDICTABLE>
      f0:	6e2d6d72 	mcrvs	13, 1, r6, cr13, cr2, {3}
      f4:	2d656e6f 	stclcs	14, cr6, [r5, #-444]!	; 0xfffffe44
      f8:	69626165 	stmdbvs	r2!, {r0, r2, r5, r6, r8, sp, lr}^
      fc:	636e692f 	cmnvs	lr, #770048	; 0xbc000
     100:	6564756c 	strbvs	r7, [r4, #-1388]!	; 0x56c
     104:	61700000 	cmnvs	r0, r0
     108:	2d327472 	cfldrscs	mvf7, [r2, #-456]!	; 0xfffffe38
     10c:	74736574 	ldrbtvc	r6, [r3], #-1396	; 0x574
     110:	00632e32 	rsbeq	r2, r3, r2, lsr lr
     114:	73000001 	movwvc	r0, #1
     118:	65646474 	strbvs	r6, [r4, #-1140]!	; 0x474
     11c:	00682e66 	rsbeq	r2, r8, r6, ror #28
     120:	73000002 	movwvc	r0, #2
     124:	6e696474 	mcrvs	4, 3, r6, cr9, cr4, {3}
     128:	63672d74 	cmnvs	r7, #116, 26	; 0x1d00
     12c:	00682e63 	rsbeq	r2, r8, r3, ror #28
     130:	72000002 	andvc	r0, r0, #2
     134:	682e6970 	stmdavs	lr!, {r4, r5, r6, r8, fp, sp, lr}
     138:	00000300 	andeq	r0, r0, r0, lsl #6
     13c:	6c616b63 	stclvs	11, cr6, [r1], #-396	; 0xfffffe74
     140:	2e636f6c 	cdpcs	15, 6, cr6, cr3, cr12, {3}
     144:	00040068 	andeq	r0, r4, r8, rrx
     148:	72747300 	rsbsvc	r7, r4, #0, 6
     14c:	2e676e69 	cdpcs	14, 6, cr6, cr7, cr9, {3}
     150:	00050068 	andeq	r0, r5, r8, rrx
     154:	05000000 	streq	r0, [r0, #-0]
     158:	00801002 	addeq	r1, r0, r2
     15c:	01150300 	tsteq	r5, r0, lsl #6
     160:	68f3bb31 	ldmvs	r3!, {r0, r4, r5, r8, r9, fp, ip, sp, pc}^
     164:	2ff532bc 	svccs	0x00f532bc
     168:	02854c4d 	addeq	r4, r5, #19712	; 0x4d00
     16c:	0101000e 	tsteq	r1, lr
     170:	000002e4 	andeq	r0, r0, r4, ror #5
     174:	01a40002 			; <UNDEFINED> instruction: 0x01a40002
     178:	01020000 	mrseq	r0, (UNDEF: 2)
     17c:	000d0efb 	strdeq	r0, [sp], -fp
     180:	01010101 	tsteq	r1, r1, lsl #2
     184:	01000000 	mrseq	r0, (UNDEF: 0)
     188:	2f010000 	svccs	0x00010000
     18c:	2f727375 	svccs	0x00727375
     190:	61636f6c 	cmnvs	r3, ip, ror #30
     194:	65432f6c 	strbvs	r2, [r3, #-3948]	; 0xf6c
     198:	72616c6c 	rsbvc	r6, r1, #108, 24	; 0x6c00
     19c:	6d72612f 	ldfvse	f6, [r2, #-188]!	; 0xffffff44
     1a0:	6e6f6e2d 	cdpvs	14, 6, cr6, cr15, cr13, {1}
     1a4:	61652d65 	cmnvs	r5, r5, ror #26
     1a8:	342f6962 	strtcc	r6, [pc], #-2402	; 1b0 <__code_start__-0x7e50>
     1ac:	332e382e 	teqcc	lr, #3014656	; 0x2e0000
     1b0:	3173632d 	cmncc	r3, sp, lsr #6
     1b4:	2f653037 	svccs	0x00653037
     1b8:	2f62696c 	svccs	0x0062696c
     1bc:	2f636367 	svccs	0x00636367
     1c0:	2d6d7261 	sfmcs	f7, 2, [sp, #-388]!	; 0xfffffe7c
     1c4:	656e6f6e 	strbvs	r6, [lr, #-3950]!	; 0xf6e
     1c8:	6261652d 	rsbvs	r6, r1, #188743680	; 0xb400000
     1cc:	2e342f69 	cdpcs	15, 3, cr2, cr4, cr9, {3}
     1d0:	2f332e38 	svccs	0x00332e38
     1d4:	6c636e69 	stclvs	14, cr6, [r3], #-420	; 0xfffffe5c
     1d8:	00656475 	rsbeq	r6, r5, r5, ror r4
     1dc:	6573552f 	ldrbvs	r5, [r3, #-1327]!	; 0x52f
     1e0:	622f7372 	eorvs	r7, pc, #-939524095	; 0xc8000001
     1e4:	6e616972 	mcrvs	9, 3, r6, cr1, cr2, {3}
     1e8:	2f6e756a 	svccs	0x006e756a
     1ec:	6b736544 	blvs	1cd9704 <__bss_end__+0x1cceb4c>
     1f0:	2f706f74 	svccs	0x00706f74
     1f4:	6f686373 	svcvs	0x00686373
     1f8:	532f6c6f 	teqpl	pc, #28416	; 0x6f00
     1fc:	6e697270 	mcrvs	2, 3, r7, cr9, cr0, {3}
     200:	32393167 	eorscc	r3, r9, #-1073741799	; 0xc0000019
     204:	53432f30 	movtpl	r2, #16176	; 0x3f30
     208:	4c303432 	cfldrsmi	mvf3, [r0], #-200	; 0xffffff38
     20c:	73632f58 	cmnvc	r3, #88, 30	; 0x160
     210:	6c303432 	cfldrsvs	mvf3, [r0], #-200	; 0xffffff38
     214:	30322d78 	eorscc	r2, r2, r8, ror sp
     218:	2f727073 	svccs	0x00727073
     21c:	7062696c 	rsbvc	r6, r2, ip, ror #18
     220:	6e692f69 	cdpvs	15, 6, cr2, cr9, cr9, {3}
     224:	64756c63 	ldrbtvs	r6, [r5], #-3171	; 0xc63
     228:	752f0065 	strvc	r0, [pc, #-101]!	; 1cb <__code_start__-0x7e35>
     22c:	6c2f7273 	sfmvs	f7, 4, [pc], #-460	; 68 <__code_start__-0x7f98>
     230:	6c61636f 	stclvs	3, cr6, [r1], #-444	; 0xfffffe44
     234:	6c65432f 	stclvs	3, cr4, [r5], #-188	; 0xffffff44
     238:	2f72616c 	svccs	0x0072616c
     23c:	2d6d7261 	sfmcs	f7, 2, [sp, #-388]!	; 0xfffffe7c
     240:	656e6f6e 	strbvs	r6, [lr, #-3950]!	; 0xf6e
     244:	6261652d 	rsbvs	r6, r1, #188743680	; 0xb400000
     248:	2e342f69 	cdpcs	15, 3, cr2, cr4, cr9, {3}
     24c:	2d332e38 	ldccs	14, cr2, [r3, #-224]!	; 0xffffff20
     250:	37317363 	ldrcc	r7, [r1, -r3, ror #6]!
     254:	612f6530 	teqvs	pc, r0, lsr r5	; <UNPREDICTABLE>
     258:	6e2d6d72 	mcrvs	13, 1, r6, cr13, cr2, {3}
     25c:	2d656e6f 	stclcs	14, cr6, [r5, #-444]!	; 0xfffffe44
     260:	69626165 	stmdbvs	r2!, {r0, r2, r5, r6, r8, sp, lr}^
     264:	636e692f 	cmnvs	lr, #770048	; 0xbc000
     268:	6564756c 	strbvs	r7, [r4, #-1388]!	; 0x56c
     26c:	73552f00 	cmpvc	r5, #0, 30
     270:	2f737265 	svccs	0x00737265
     274:	61697262 	cmnvs	r9, r2, ror #4
     278:	6e756a6e 	vsubvs.f32	s13, s10, s29
     27c:	7365442f 	cmnvc	r5, #788529152	; 0x2f000000
     280:	706f746b 	rsbvc	r7, pc, fp, ror #8
     284:	6863732f 	stmdavs	r3!, {r0, r1, r2, r3, r5, r8, r9, ip, sp, lr}^
     288:	2f6c6f6f 	svccs	0x006c6f6f
     28c:	69727053 	ldmdbvs	r2!, {r0, r1, r4, r6, ip, sp, lr}^
     290:	3931676e 	ldmdbcc	r1!, {r1, r2, r3, r5, r6, r8, r9, sl, sp, lr}
     294:	432f3032 	teqmi	pc, #50	; 0x32
     298:	30343253 	eorscc	r3, r4, r3, asr r2
     29c:	632f584c 	teqvs	pc, #76, 16	; 0x4c0000
     2a0:	30343273 	eorscc	r3, r4, r3, ror r2
     2a4:	322d786c 	eorcc	r7, sp, #108, 16	; 0x6c0000
     2a8:	72707330 	rsbsvc	r7, r0, #48, 6	; 0xc0000000
     2ac:	62696c2f 	rsbvs	r6, r9, #12032	; 0x2f00
     2b0:	6c2f6970 	stcvs	9, cr6, [pc], #-448	; f8 <__code_start__-0x7f08>
     2b4:	00636269 	rsbeq	r6, r3, r9, ror #4
     2b8:	616b6300 	cmnvs	fp, r0, lsl #6
     2bc:	636f6c6c 	cmnvs	pc, #108, 24	; 0x6c00
     2c0:	0000632e 	andeq	r6, r0, lr, lsr #6
     2c4:	6b630000 	blvs	18c02cc <__bss_end__+0x18b5714>
     2c8:	6f6c6c61 	svcvs	0x006c6c61
     2cc:	6e692d63 	cdpvs	13, 6, cr2, cr9, cr3, {3}
     2d0:	6e726574 	mrcvs	5, 3, r6, cr2, cr4, {3}
     2d4:	682e6c61 	stmdavs	lr!, {r0, r5, r6, sl, fp, sp, lr}
     2d8:	00000000 	andeq	r0, r0, r0
     2dc:	64647473 	strbtvs	r7, [r4], #-1139	; 0x473
     2e0:	682e6665 	stmdavs	lr!, {r0, r2, r5, r6, r9, sl, sp, lr}
     2e4:	00000100 	andeq	r0, r0, r0, lsl #2
     2e8:	69647473 	stmdbvs	r4!, {r0, r1, r4, r5, r6, sl, ip, sp, lr}^
     2ec:	672d746e 	strvs	r7, [sp, -lr, ror #8]!
     2f0:	682e6363 	stmdavs	lr!, {r0, r1, r5, r6, r8, r9, sp, lr}
     2f4:	00000100 	andeq	r0, r0, r0, lsl #2
     2f8:	2e697072 	mcrcs	0, 3, r7, cr9, cr2, {3}
     2fc:	00020068 	andeq	r0, r2, r8, rrx
     300:	72747300 	rsbsvc	r7, r4, #0, 6
     304:	2e676e69 	cdpcs	14, 6, cr6, cr7, cr9, {3}
     308:	00030068 	andeq	r0, r3, r8, rrx
     30c:	62696c00 	rsbvs	r6, r9, #0, 24
     310:	78652d63 	stmdavc	r5!, {r0, r1, r5, r6, r8, sl, fp, sp}^
     314:	2e617274 	mcrcs	2, 3, r7, cr1, cr4, {3}
     318:	00040068 	andeq	r0, r4, r8, rrx
     31c:	05000000 	streq	r0, [r0, #-0]
     320:	0080d402 	addeq	sp, r0, r2, lsl #8
     324:	01330300 	teqeq	r3, r0, lsl #6
     328:	2f834b4c 	svccs	0x00834b4c
     32c:	0302042f 	movweq	r0, #9263	; 0x242f
     330:	200800ca 	andcs	r0, r8, sl, asr #1
     334:	bbd967a0 	bllt	ff65a1bc <__bss_end__+0xff64f604>
     338:	b0030104 	andlt	r0, r3, r4, lsl #2
     33c:	0367d67f 	cmneq	r7, #133169152	; 0x7f00000
     340:	02004a7a 	andeq	r4, r0, #499712	; 0x7a000
     344:	2e060104 	adfcss	f0, f6, f4
     348:	4a090306 	bmi	240f68 <__bss_end__+0x2363b0>
     34c:	034bf42f 	movteq	pc, #46127	; 0xb42f	; <UNPREDICTABLE>
     350:	2f4b6656 	svccs	0x004b6656
     354:	4b2f2f2f 	blmi	bcc018 <__bss_end__+0xbc1460>
     358:	4b2f2f2f 	blmi	bcc01c <__bss_end__+0xbc1464>
     35c:	302f2f2f 	eorcc	r2, pc, pc, lsr #30
     360:	00314b31 	eorseq	r4, r1, r1, lsr fp
     364:	06010402 	streq	r0, [r1], -r2, lsl #8
     368:	00d70666 	sbcseq	r0, r7, r6, ror #12
     36c:	06010402 	streq	r0, [r1], -r2, lsl #8
     370:	03d80682 	bicseq	r0, r8, #136314880	; 0x8200000
     374:	304cba1a 	subcc	fp, ip, sl, lsl sl
     378:	03020449 	movweq	r0, #9289	; 0x2449
     37c:	044cba0c 	strbeq	fp, [ip], #-2572	; 0xa0c
     380:	2e730301 	cdpcs	3, 7, cr0, cr3, cr1, {0}
     384:	bb039108 	bllt	e47ac <__bss_end__+0xd9bf4>
     388:	00672e7f 	rsbeq	r2, r7, pc, ror lr
     38c:	06010402 	streq	r0, [r1], -r2, lsl #8
     390:	83d70682 	bicshi	r0, r7, #136314880	; 0x8200000
     394:	2f2f4b67 	svccs	0x002f4b67
     398:	00c4034b 	sbceq	r0, r4, fp, asr #6
     39c:	0200a0d6 	andeq	sl, r0, #214	; 0xd6
     3a0:	82060104 	andhi	r0, r6, #4, 2
     3a4:	30a0d706 	adccc	sp, r0, r6, lsl #14
     3a8:	684c6a85 	stmdavs	ip, {r0, r2, r7, r9, fp, sp, lr}^
     3ac:	a0302f2f 	eorsge	r2, r0, pc, lsr #30
     3b0:	00be4008 	adcseq	r4, lr, r8
     3b4:	06010402 	streq	r0, [r1], -r2, lsl #8
     3b8:	a0d70682 	sbcsge	r0, r7, r2, lsl #13
     3bc:	084b314b 	stmdaeq	fp, {r0, r1, r3, r6, r8, ip, sp}^
     3c0:	2a02bb92 	bcs	af210 <__bss_end__+0xa4658>
     3c4:	4b2f4c16 	blmi	bd3424 <__bss_end__+0xbc886c>
     3c8:	2f30674c 	svccs	0x0030674c
     3cc:	0468302f 	strbteq	r3, [r8], #-47	; 0x2f
     3d0:	66450302 	strbvs	r0, [r5], -r2, lsl #6
     3d4:	0301044c 	movweq	r0, #5196	; 0x144c
     3d8:	006a2e3a 	rsbeq	r2, sl, sl, lsr lr
     3dc:	06010402 	streq	r0, [r1], -r2, lsl #8
     3e0:	00d70682 	sbcseq	r0, r7, r2, lsl #13
     3e4:	06010402 	streq	r0, [r1], -r2, lsl #8
     3e8:	d8d70682 	ldmle	r7, {r1, r7, r9, sl}^
     3ec:	2f172202 	svccs	0x00172202
     3f0:	2cbf4c83 	ldccs	12, cr4, [pc], #524	; 604 <__code_start__-0x79fc>
     3f4:	0c03322d 	sfmeq	f3, 4, [r3], {45}	; 0x2d
     3f8:	4a74032e 	bmi	1d010b8 <__bss_end__+0x1cf6500>
     3fc:	0402002f 	streq	r0, [r2], #-47	; 0x2f
     400:	064a0601 	strbeq	r0, [sl], -r1, lsl #12
     404:	2f8383d8 	svccs	0x008383d8
     408:	04020030 	streq	r0, [r2], #-48	; 0x30
     40c:	06660601 	strbteq	r0, [r6], -r1, lsl #12
     410:	83bb6730 			; <UNDEFINED> instruction: 0x83bb6730
     414:	02009f32 	andeq	r9, r0, #50, 30	; 0xc8
     418:	6e030104 	adfvss	f0, f3, f4
     41c:	6616032e 	ldrvs	r0, [r6], -lr, lsr #6
     420:	08a0d84b 	stmiaeq	r0!, {r0, r1, r3, r6, fp, ip, lr, pc}
     424:	004d2f79 	subeq	r2, sp, r9, ror pc
     428:	06010402 	streq	r0, [r1], -r2, lsl #8
     42c:	bdd80682 	ldcllt	6, cr0, [r8, #520]	; 0x208
     430:	8d030204 	sfmhi	f0, 4, [r3, #-16]
     434:	01042e7f 	tsteq	r4, pc, ror lr
     438:	8200f403 	andhi	pc, r0, #50331648	; 0x3000000
     43c:	02008534 	andeq	r8, r0, #52, 10	; 0xd000000
     440:	2e060104 	adfcss	f0, f6, f4
     444:	0200d706 	andeq	sp, r0, #1572864	; 0x180000
     448:	82060104 	andhi	r0, r6, #4, 2
     44c:	2f4ed306 	svccs	0x004ed306
     450:	02672fbc 	rsbeq	r2, r7, #188, 30	; 0x2f0
     454:	01010006 	tsteq	r1, r6
     458:	0000021b 	andeq	r0, r0, fp, lsl r2
     45c:	00f90002 	rscseq	r0, r9, r2
     460:	01020000 	mrseq	r0, (UNDEF: 2)
     464:	000d0efb 	strdeq	r0, [sp], -fp
     468:	01010101 	tsteq	r1, r1, lsl #2
     46c:	01000000 	mrseq	r0, (UNDEF: 0)
     470:	2f010000 	svccs	0x00010000
     474:	2f727375 	svccs	0x00727375
     478:	61636f6c 	cmnvs	r3, ip, ror #30
     47c:	65432f6c 	strbvs	r2, [r3, #-3948]	; 0xf6c
     480:	72616c6c 	rsbvc	r6, r1, #108, 24	; 0x6c00
     484:	6d72612f 	ldfvse	f6, [r2, #-188]!	; 0xffffff44
     488:	6e6f6e2d 	cdpvs	14, 6, cr6, cr15, cr13, {1}
     48c:	61652d65 	cmnvs	r5, r5, ror #26
     490:	342f6962 	strtcc	r6, [pc], #-2402	; 498 <__code_start__-0x7b68>
     494:	332e382e 	teqcc	lr, #3014656	; 0x2e0000
     498:	3173632d 	cmncc	r3, sp, lsr #6
     49c:	2f653037 	svccs	0x00653037
     4a0:	2f62696c 	svccs	0x0062696c
     4a4:	2f636367 	svccs	0x00636367
     4a8:	2d6d7261 	sfmcs	f7, 2, [sp, #-388]!	; 0xfffffe7c
     4ac:	656e6f6e 	strbvs	r6, [lr, #-3950]!	; 0xf6e
     4b0:	6261652d 	rsbvs	r6, r1, #188743680	; 0xb400000
     4b4:	2e342f69 	cdpcs	15, 3, cr2, cr4, cr9, {3}
     4b8:	2f332e38 	svccs	0x00332e38
     4bc:	6c636e69 	stclvs	14, cr6, [r3], #-420	; 0xfffffe5c
     4c0:	00656475 	rsbeq	r6, r5, r5, ror r4
     4c4:	6573552f 	ldrbvs	r5, [r3, #-1327]!	; 0x52f
     4c8:	622f7372 	eorvs	r7, pc, #-939524095	; 0xc8000001
     4cc:	6e616972 	mcrvs	9, 3, r6, cr1, cr2, {3}
     4d0:	2f6e756a 	svccs	0x006e756a
     4d4:	6b736544 	blvs	1cd99ec <__bss_end__+0x1ccee34>
     4d8:	2f706f74 	svccs	0x00706f74
     4dc:	6f686373 	svcvs	0x00686373
     4e0:	532f6c6f 	teqpl	pc, #28416	; 0x6f00
     4e4:	6e697270 	mcrvs	2, 3, r7, cr9, cr0, {3}
     4e8:	32393167 	eorscc	r3, r9, #-1073741799	; 0xc0000019
     4ec:	53432f30 	movtpl	r2, #16176	; 0x3f30
     4f0:	4c303432 	cfldrsmi	mvf3, [r0], #-200	; 0xffffff38
     4f4:	73632f58 	cmnvc	r3, #88, 30	; 0x160
     4f8:	6c303432 	cfldrsvs	mvf3, [r0], #-200	; 0xffffff38
     4fc:	30322d78 	eorscc	r2, r2, r8, ror sp
     500:	2f727073 	svccs	0x00727073
     504:	7062696c 	rsbvc	r6, r2, ip, ror #18
     508:	6e692f69 	cdpvs	15, 6, cr2, cr9, cr9, {3}
     50c:	64756c63 	ldrbtvs	r6, [r5], #-3171	; 0xc63
     510:	63000065 	movwvs	r0, #101	; 0x65
     514:	63672d6b 	cmnvs	r7, #6848	; 0x1ac0
     518:	0000632e 	andeq	r6, r0, lr, lsr #6
     51c:	74730000 	ldrbtvc	r0, [r3], #-0
     520:	746e6964 	strbtvc	r6, [lr], #-2404	; 0x964
     524:	6363672d 	cmnvs	r3, #11796480	; 0xb40000
     528:	0100682e 	tsteq	r0, lr, lsr #16
     52c:	6b630000 	blvs	18c0534 <__bss_end__+0x18b597c>
     530:	6f6c6c61 	svcvs	0x006c6c61
     534:	6e692d63 	cdpvs	13, 6, cr2, cr9, cr3, {3}
     538:	6e726574 	mrcvs	5, 3, r6, cr2, cr4, {3}
     53c:	682e6c61 	stmdavs	lr!, {r0, r5, r6, sl, fp, sp, lr}
     540:	00000000 	andeq	r0, r0, r0
     544:	2e697072 	mcrcs	0, 3, r7, cr9, cr2, {3}
     548:	00020068 	andeq	r0, r2, r8, rrx
     54c:	616b6300 	cmnvs	fp, r0, lsl #6
     550:	636f6c6c 	cmnvs	pc, #108, 24	; 0x6c00
     554:	0000682e 	andeq	r6, r0, lr, lsr #16
     558:	00000000 	andeq	r0, r0, r0
     55c:	89100205 	ldmdbhi	r0, {r0, r2, r9}
     560:	1b030000 	blne	c0568 <__bss_end__+0xb59b0>
     564:	02001301 	andeq	r1, r0, #67108864	; 0x4000000
     568:	82060104 	andhi	r0, r6, #4, 2
     56c:	039f0682 	orrseq	r0, pc, #136314880	; 0x8200000
     570:	694d4a15 	stmdbvs	sp, {r0, r2, r4, r9, fp, lr}^
     574:	6867302f 	stmdavs	r7!, {r0, r1, r2, r3, r5, ip, sp}^
     578:	4c494b31 	vmovmi	d17, r4, r9
     57c:	02003068 	andeq	r3, r0, #104	; 0x68
     580:	72030104 	andvc	r0, r3, #4, 2
     584:	1603632e 	strne	r6, [r3], -lr, lsr #6
     588:	2e31032e 	cdpcs	3, 3, cr0, cr1, cr14, {1}
     58c:	464c4b4c 	strbmi	r4, [ip], -ip, asr #22
     590:	30660b03 	rsbcc	r0, r6, r3, lsl #22
     594:	672f2b29 	strvs	r2, [pc, -r9, lsr #22]!
     598:	2f4c9f67 	svccs	0x004c9f67
     59c:	01040200 	mrseq	r0, R12_usr
     5a0:	67064a06 	strvs	r4, [r6, -r6, lsl #20]
     5a4:	002f32a0 	eoreq	r3, pc, r0, lsr #5
     5a8:	03010402 	movweq	r0, #5122	; 0x1402
     5ac:	12036671 	andne	r6, r3, #118489088	; 0x7100000
     5b0:	a04b9f4a 	subge	r9, fp, sl, asr #30
     5b4:	bc034cbc 	stclt	12, cr4, [r3], {188}	; 0xbc
     5b8:	6758087f 			; <UNDEFINED> instruction: 0x6758087f
     5bc:	01040200 	mrseq	r0, R12_usr
     5c0:	d8064a06 	stmdale	r6, {r1, r2, r9, fp, lr}
     5c4:	01040200 	mrseq	r0, R12_usr
     5c8:	d7064a06 	strle	r4, [r6, -r6, lsl #20]
     5cc:	01040200 	mrseq	r0, R12_usr
     5d0:	dc064a06 	stcle	10, cr4, [r6], {6}
     5d4:	68696884 	stmdavs	r9!, {r2, r7, fp, sp, lr}^
     5d8:	00853169 	addeq	r3, r5, r9, ror #2
     5dc:	03010402 	movweq	r0, #5122	; 0x1402
     5e0:	02004a7a 	andeq	r4, r0, #499712	; 0x7a000
     5e4:	73030104 	movwvc	r0, #12548	; 0x3104
     5e8:	4a15032e 	bmi	5412a8 <__bss_end__+0x5366f0>
     5ec:	ba00d203 	blt	34e00 <__bss_end__+0x2a248>
     5f0:	002d2f4d 	eoreq	r2, sp, sp, asr #30
     5f4:	2f020402 	svccs	0x00020402
     5f8:	02040200 	andeq	r0, r4, #0, 4
     5fc:	04020065 	streq	r0, [r2], #-101	; 0x65
     600:	062e0601 	strteq	r0, [lr], -r1, lsl #12
     604:	0a036750 	beq	da34c <__bss_end__+0xcf794>
     608:	02006766 	andeq	r6, r0, #26738688	; 0x1980000
     60c:	66060104 	strvs	r0, [r6], -r4, lsl #2
     610:	02040200 	andeq	r0, r4, #0, 4
     614:	0200d906 	andeq	sp, r0, #98304	; 0x18000
     618:	67650204 	strbvs	r0, [r5, -r4, lsl #4]!
     61c:	01040200 	mrseq	r0, R12_usr
     620:	6a6c502d 	bvs	1b146dc <__bss_end__+0x1b09b24>
     624:	38036769 	stmdacc	r3, {r0, r3, r5, r6, r8, r9, sl, sp, lr}
     628:	4b4c3c08 	blmi	130f650 <__bss_end__+0x1304a98>
     62c:	0b03464c 	bleq	d1f64 <__bss_end__+0xc73ac>
     630:	79034b66 	stmdbvc	r3, {r1, r2, r5, r6, r8, r9, fp, lr}
     634:	67672f2e 	strbvs	r2, [r7, -lr, lsr #30]!
     638:	a19f3067 	orrsge	r3, pc, r7, rrx
     63c:	0402002f 	streq	r0, [r2], #-47	; 0x2f
     640:	66750301 	ldrbtvs	r0, [r5], -r1, lsl #6
     644:	f44a1303 	vst2.8	{d17-d20}, [sl], r3
     648:	034cbc4b 	movteq	fp, #52299	; 0xcc4b
     64c:	90087fb0 			; <UNDEFINED> instruction: 0x90087fb0
     650:	314b2f4b 	cmpcc	fp, fp, asr #30
     654:	d8671332 	stmdale	r7!, {r1, r4, r5, r8, r9, ip}^
     658:	83d88383 	bicshi	r8, r8, #201326594	; 0xc000002
     65c:	13324008 	teqne	r2, #8
     660:	4b84d867 	blmi	fe136804 <__bss_end__+0xfe12bc4c>
     664:	149fd84b 	ldrne	sp, [pc], #2123	; 66c <__code_start__-0x7994>
     668:	032f3e08 	teqeq	pc, #8, 28	; 0x80
     66c:	2f3c0827 	svccs	0x003c0827
     670:	0202332f 	andeq	r3, r2, #-1140850688	; 0xbc000000
     674:	de010100 	adfles	f0, f1, f0
     678:	02000000 	andeq	r0, r0, #0
     67c:	00008300 	andeq	r8, r0, r0, lsl #6
     680:	fb010200 	blx	40e8a <__bss_end__+0x362d2>
     684:	01000d0e 	tsteq	r0, lr, lsl #26
     688:	00010101 	andeq	r0, r1, r1, lsl #2
     68c:	00010000 	andeq	r0, r1, r0
     690:	696c0100 	stmdbvs	ip!, {r8}^
     694:	2f006362 	svccs	0x00006362
     698:	2f727375 	svccs	0x00727375
     69c:	61636f6c 	cmnvs	r3, ip, ror #30
     6a0:	65432f6c 	strbvs	r2, [r3, #-3948]	; 0xf6c
     6a4:	72616c6c 	rsbvc	r6, r1, #108, 24	; 0x6c00
     6a8:	6d72612f 	ldfvse	f6, [r2, #-188]!	; 0xffffff44
     6ac:	6e6f6e2d 	cdpvs	14, 6, cr6, cr15, cr13, {1}
     6b0:	61652d65 	cmnvs	r5, r5, ror #26
     6b4:	342f6962 	strtcc	r6, [pc], #-2402	; 6bc <__code_start__-0x7944>
     6b8:	332e382e 	teqcc	lr, #3014656	; 0x2e0000
     6bc:	3173632d 	cmncc	r3, sp, lsr #6
     6c0:	2f653037 	svccs	0x00653037
     6c4:	2f62696c 	svccs	0x0062696c
     6c8:	2f636367 	svccs	0x00636367
     6cc:	2d6d7261 	sfmcs	f7, 2, [sp, #-388]!	; 0xfffffe7c
     6d0:	656e6f6e 	strbvs	r6, [lr, #-3950]!	; 0xf6e
     6d4:	6261652d 	rsbvs	r6, r1, #188743680	; 0xb400000
     6d8:	2e342f69 	cdpcs	15, 3, cr2, cr4, cr9, {3}
     6dc:	2f332e38 	svccs	0x00332e38
     6e0:	6c636e69 	stclvs	14, cr6, [r3], #-420	; 0xfffffe5c
     6e4:	00656475 	rsbeq	r6, r5, r5, ror r4
     6e8:	73616800 	cmnvc	r1, #0, 16
     6ec:	00632e68 	rsbeq	r2, r3, r8, ror #28
     6f0:	73000001 	movwvc	r0, #1
     6f4:	6e696474 	mcrvs	4, 3, r6, cr9, cr4, {3}
     6f8:	63672d74 	cmnvs	r7, #116, 26	; 0x1d00
     6fc:	00682e63 	rsbeq	r2, r8, r3, ror #28
     700:	00000002 	andeq	r0, r0, r2
     704:	a4020500 	strge	r0, [r2], #-1280	; 0x500
     708:	0300008f 	movweq	r0, #143	; 0x8f
     70c:	3130010e 	teqcc	r0, lr, lsl #2
     710:	00312f84 	eorseq	r2, r1, r4, lsl #31
     714:	2f020402 	svccs	0x00020402
     718:	02040200 	andeq	r0, r4, #0, 4
     71c:	04020083 	streq	r0, [r2], #-131	; 0x83
     720:	02008302 	andeq	r8, r0, #134217728	; 0x8000000
     724:	002f0204 	eoreq	r0, pc, r4, lsl #4
     728:	2f020402 	svccs	0x00020402
     72c:	02040200 	andeq	r0, r4, #0, 4
     730:	04020029 	streq	r0, [r2], #-41	; 0x29
     734:	062e0601 	strteq	r0, [lr], -r1, lsl #12
     738:	d74a0903 	strble	r0, [sl, -r3, lsl #18]
     73c:	2f4b2f83 	svccs	0x004b2f83
     740:	2f2f832f 	svccs	0x002f832f
     744:	322f4b2f 	eorcc	r4, pc, #48128	; 0xbc00
     748:	2f2f2f2f 	svccs	0x002f2f2f
     74c:	5a03302f 	bpl	cc810 <__bss_end__+0xc1c58>
     750:	2e27032e 	cdpcs	3, 2, cr0, cr7, cr14, {1}
     754:	01000402 	tsteq	r0, r2, lsl #8
     758:	0000ec01 	andeq	lr, r0, r1, lsl #24
     75c:	d0000200 	andle	r0, r0, r0, lsl #4
     760:	02000000 	andeq	r0, r0, #0
     764:	0d0efb01 	vstreq	d15, [lr, #-4]
     768:	01010100 	mrseq	r0, (UNDEF: 17)
     76c:	00000001 	andeq	r0, r0, r1
     770:	01000001 	tsteq	r0, r1
     774:	6362696c 	cmnvs	r2, #108, 18	; 0x1b0000
     778:	73752f00 	cmnvc	r5, #0, 30
     77c:	6f6c2f72 	svcvs	0x006c2f72
     780:	2f6c6163 	svccs	0x006c6163
     784:	6c6c6543 	cfstr64vs	mvdx6, [ip], #-268	; 0xfffffef4
     788:	612f7261 	teqvs	pc, r1, ror #4
     78c:	6e2d6d72 	mcrvs	13, 1, r6, cr13, cr2, {3}
     790:	2d656e6f 	stclcs	14, cr6, [r5, #-444]!	; 0xfffffe44
     794:	69626165 	stmdbvs	r2!, {r0, r2, r5, r6, r8, sp, lr}^
     798:	382e342f 	stmdacc	lr!, {r0, r1, r2, r3, r5, sl, ip, sp}
     79c:	632d332e 	teqvs	sp, #-1207959552	; 0xb8000000
     7a0:	30373173 	eorscc	r3, r7, r3, ror r1
     7a4:	696c2f65 	stmdbvs	ip!, {r0, r2, r5, r6, r8, r9, sl, fp, sp}^
     7a8:	63672f62 	cmnvs	r7, #392	; 0x188
     7ac:	72612f63 	rsbvc	r2, r1, #396	; 0x18c
     7b0:	6f6e2d6d 	svcvs	0x006e2d6d
     7b4:	652d656e 	strvs	r6, [sp, #-1390]!	; 0x56e
     7b8:	2f696261 	svccs	0x00696261
     7bc:	2e382e34 	mrccs	14, 1, r2, cr8, cr4, {1}
     7c0:	6e692f33 	mcrvs	15, 3, r2, cr9, cr3, {1}
     7c4:	64756c63 	ldrbtvs	r6, [r5], #-3171	; 0xc63
     7c8:	752f0065 	strvc	r0, [pc, #-101]!	; 76b <__code_start__-0x7895>
     7cc:	6c2f7273 	sfmvs	f7, 4, [pc], #-460	; 608 <__code_start__-0x79f8>
     7d0:	6c61636f 	stclvs	3, cr6, [r1], #-444	; 0xfffffe44
     7d4:	6c65432f 	stclvs	3, cr4, [r5], #-188	; 0xffffff44
     7d8:	2f72616c 	svccs	0x0072616c
     7dc:	2d6d7261 	sfmcs	f7, 2, [sp, #-388]!	; 0xfffffe7c
     7e0:	656e6f6e 	strbvs	r6, [lr, #-3950]!	; 0xf6e
     7e4:	6261652d 	rsbvs	r6, r1, #188743680	; 0xb400000
     7e8:	2e342f69 	cdpcs	15, 3, cr2, cr4, cr9, {3}
     7ec:	2d332e38 	ldccs	14, cr2, [r3, #-224]!	; 0xffffff20
     7f0:	37317363 	ldrcc	r7, [r1, -r3, ror #6]!
     7f4:	612f6530 	teqvs	pc, r0, lsr r5	; <UNPREDICTABLE>
     7f8:	6e2d6d72 	mcrvs	13, 1, r6, cr13, cr2, {3}
     7fc:	2d656e6f 	stclcs	14, cr6, [r5, #-444]!	; 0xfffffe44
     800:	69626165 	stmdbvs	r2!, {r0, r2, r5, r6, r8, sp, lr}^
     804:	636e692f 	cmnvs	lr, #770048	; 0xbc000
     808:	6564756c 	strbvs	r7, [r4, #-1388]!	; 0x56c
     80c:	656d0000 	strbvs	r0, [sp, #-0]!
     810:	7465736d 	strbtvc	r7, [r5], #-877	; 0x36d
     814:	0100632e 	tsteq	r0, lr, lsr #6
     818:	74730000 	ldrbtvc	r0, [r3], #-0
     81c:	66656464 	strbtvs	r6, [r5], -r4, ror #8
     820:	0200682e 	andeq	r6, r0, #3014656	; 0x2e0000
     824:	74730000 	ldrbtvc	r0, [r3], #-0
     828:	676e6972 			; <UNDEFINED> instruction: 0x676e6972
     82c:	0300682e 	movweq	r6, #2094	; 0x82e
     830:	00000000 	andeq	r0, r0, r0
     834:	90940205 	addsls	r0, r4, r5, lsl #4
     838:	13140000 	tstne	r4, #0
     83c:	02002f4c 	andeq	r2, r0, #76, 30	; 0x130
     840:	4d490104 	stfmie	f0, [r9, #-16]
     844:	01000202 	tsteq	r0, r2, lsl #4
     848:	00010c01 	andeq	r0, r1, r1, lsl #24
     84c:	f5000200 			; <UNDEFINED> instruction: 0xf5000200
     850:	02000000 	andeq	r0, r0, #0
     854:	0d0efb01 	vstreq	d15, [lr, #-4]
     858:	01010100 	mrseq	r0, (UNDEF: 17)
     85c:	00000001 	andeq	r0, r0, r1
     860:	01000001 	tsteq	r0, r1
     864:	6362696c 	cmnvs	r2, #108, 18	; 0x1b0000
     868:	73752f00 	cmnvc	r5, #0, 30
     86c:	6f6c2f72 	svcvs	0x006c2f72
     870:	2f6c6163 	svccs	0x006c6163
     874:	6c6c6543 	cfstr64vs	mvdx6, [ip], #-268	; 0xfffffef4
     878:	612f7261 	teqvs	pc, r1, ror #4
     87c:	6e2d6d72 	mcrvs	13, 1, r6, cr13, cr2, {3}
     880:	2d656e6f 	stclcs	14, cr6, [r5, #-444]!	; 0xfffffe44
     884:	69626165 	stmdbvs	r2!, {r0, r2, r5, r6, r8, sp, lr}^
     888:	382e342f 	stmdacc	lr!, {r0, r1, r2, r3, r5, sl, ip, sp}
     88c:	632d332e 	teqvs	sp, #-1207959552	; 0xb8000000
     890:	30373173 	eorscc	r3, r7, r3, ror r1
     894:	696c2f65 	stmdbvs	ip!, {r0, r2, r5, r6, r8, r9, sl, fp, sp}^
     898:	63672f62 	cmnvs	r7, #392	; 0x188
     89c:	72612f63 	rsbvc	r2, r1, #396	; 0x18c
     8a0:	6f6e2d6d 	svcvs	0x006e2d6d
     8a4:	652d656e 	strvs	r6, [sp, #-1390]!	; 0x56e
     8a8:	2f696261 	svccs	0x00696261
     8ac:	2e382e34 	mrccs	14, 1, r2, cr8, cr4, {1}
     8b0:	6e692f33 	mcrvs	15, 3, r2, cr9, cr3, {1}
     8b4:	64756c63 	ldrbtvs	r6, [r5], #-3171	; 0xc63
     8b8:	552f0065 	strpl	r0, [pc, #-101]!	; 85b <__code_start__-0x77a5>
     8bc:	73726573 	cmnvc	r2, #482344960	; 0x1cc00000
     8c0:	6972622f 	ldmdbvs	r2!, {r0, r1, r2, r3, r5, r9, sp, lr}^
     8c4:	756a6e61 	strbvc	r6, [sl, #-3681]!	; 0xe61
     8c8:	65442f6e 	strbvs	r2, [r4, #-3950]	; 0xf6e
     8cc:	6f746b73 	svcvs	0x00746b73
     8d0:	63732f70 	cmnvs	r3, #112, 30	; 0x1c0
     8d4:	6c6f6f68 	stclvs	15, cr6, [pc], #-416	; 73c <__code_start__-0x78c4>
     8d8:	7270532f 	rsbsvc	r5, r0, #-1140850688	; 0xbc000000
     8dc:	31676e69 	cmncc	r7, r9, ror #28
     8e0:	2f303239 	svccs	0x00303239
     8e4:	34325343 	ldrtcc	r5, [r2], #-835	; 0x343
     8e8:	2f584c30 	svccs	0x00584c30
     8ec:	34327363 	ldrtcc	r7, [r2], #-867	; 0x363
     8f0:	2d786c30 	ldclcs	12, cr6, [r8, #-192]!	; 0xffffff40
     8f4:	70733032 	rsbsvc	r3, r3, r2, lsr r0
     8f8:	696c2f72 	stmdbvs	ip!, {r1, r4, r5, r6, r8, r9, sl, fp, sp}^
     8fc:	2f697062 	svccs	0x00697062
     900:	6c636e69 	stclvs	14, cr6, [r3], #-420	; 0xfffffe5c
     904:	00656475 	rsbeq	r6, r5, r5, ror r4
     908:	69727000 	ldmdbvs	r2!, {ip, sp, lr}^
     90c:	2e6b746e 	cdpcs	4, 6, cr7, cr11, cr14, {3}
     910:	00010063 	andeq	r0, r1, r3, rrx
     914:	64747300 	ldrbtvs	r7, [r4], #-768	; 0x300
     918:	2e677261 	cdpcs	2, 6, cr7, cr7, cr1, {3}
     91c:	00020068 	andeq	r0, r2, r8, rrx
     920:	75623c00 	strbvc	r3, [r2, #-3072]!	; 0xc00
     924:	2d746c69 	ldclcs	12, cr6, [r4, #-420]!	; 0xfffffe5c
     928:	003e6e69 	eorseq	r6, lr, r9, ror #28
     92c:	72000000 	andvc	r0, r0, #0
     930:	682e6970 	stmdavs	lr!, {r4, r5, r6, r8, fp, sp, lr}
     934:	00000300 	andeq	r0, r0, r0, lsl #6
     938:	702d6176 	eorvc	r6, sp, r6, ror r1
     93c:	746e6972 	strbtvc	r6, [lr], #-2418	; 0x972
     940:	00682e6b 	rsbeq	r2, r8, fp, ror #28
     944:	00000001 	andeq	r0, r0, r1
     948:	b4020500 	strlt	r0, [r2], #-1280	; 0x500
     94c:	17000090 			; <UNDEFINED> instruction: 0x17000090
     950:	89bf4b6b 	ldmibhi	pc!, {r0, r1, r3, r5, r6, r8, r9, fp, lr}	; <UNPREDICTABLE>
     954:	01000e02 	tsteq	r0, r2, lsl #28
     958:	00009401 	andeq	r9, r0, r1, lsl #8
     95c:	7c000200 	sfmvc	f0, 4, [r0], {-0}
     960:	02000000 	andeq	r0, r0, #0
     964:	0d0efb01 	vstreq	d15, [lr, #-4]
     968:	01010100 	mrseq	r0, (UNDEF: 17)
     96c:	00000001 	andeq	r0, r0, r1
     970:	01000001 	tsteq	r0, r1
     974:	6362696c 	cmnvs	r2, #108, 18	; 0x1b0000
     978:	73552f00 	cmpvc	r5, #0, 30
     97c:	2f737265 	svccs	0x00737265
     980:	61697262 	cmnvs	r9, r2, ror #4
     984:	6e756a6e 	vsubvs.f32	s13, s10, s29
     988:	7365442f 	cmnvc	r5, #788529152	; 0x2f000000
     98c:	706f746b 	rsbvc	r7, pc, fp, ror #8
     990:	6863732f 	stmdavs	r3!, {r0, r1, r2, r3, r5, r8, r9, ip, sp, lr}^
     994:	2f6c6f6f 	svccs	0x006c6f6f
     998:	69727053 	ldmdbvs	r2!, {r0, r1, r4, r6, ip, sp, lr}^
     99c:	3931676e 	ldmdbcc	r1!, {r1, r2, r3, r5, r6, r8, r9, sl, sp, lr}
     9a0:	432f3032 	teqmi	pc, #50	; 0x32
     9a4:	30343253 	eorscc	r3, r4, r3, asr r2
     9a8:	632f584c 	teqvs	pc, #76, 16	; 0x4c0000
     9ac:	30343273 	eorscc	r3, r4, r3, ror r2
     9b0:	322d786c 	eorcc	r7, sp, #108, 16	; 0x6c0000
     9b4:	72707330 	rsbsvc	r7, r0, #48, 6	; 0xc0000000
     9b8:	62696c2f 	rsbvs	r6, r9, #12032	; 0x2f00
     9bc:	692f6970 	stmdbvs	pc!, {r4, r5, r6, r8, fp, sp, lr}	; <UNPREDICTABLE>
     9c0:	756c636e 	strbvc	r6, [ip, #-878]!	; 0x36e
     9c4:	00006564 	andeq	r6, r0, r4, ror #10
     9c8:	63747570 	cmnvs	r4, #112, 10	; 0x1c000000
     9cc:	2e726168 	rpwcssz	f6, f2, #0.0
     9d0:	00010063 	andeq	r0, r1, r3, rrx
     9d4:	69707200 	ldmdbvs	r0!, {r9, ip, sp, lr}^
     9d8:	0200682e 	andeq	r6, r0, #3014656	; 0x2e0000
     9dc:	00000000 	andeq	r0, r0, r0
     9e0:	910c0205 	tstls	ip, r5, lsl #4
     9e4:	4a140000 	bmi	5009ec <__bss_end__+0x4f5e34>
     9e8:	13bc136b 			; <UNDEFINED> instruction: 0x13bc136b
     9ec:	01000802 	tsteq	r0, r2, lsl #16
     9f0:	0000a001 	andeq	sl, r0, r1
     9f4:	79000200 	stmdbvc	r0, {r9}
     9f8:	02000000 	andeq	r0, r0, #0
     9fc:	0d0efb01 	vstreq	d15, [lr, #-4]
     a00:	01010100 	mrseq	r0, (UNDEF: 17)
     a04:	00000001 	andeq	r0, r0, r1
     a08:	01000001 	tsteq	r0, r1
     a0c:	6362696c 	cmnvs	r2, #108, 18	; 0x1b0000
     a10:	73552f00 	cmpvc	r5, #0, 30
     a14:	2f737265 	svccs	0x00737265
     a18:	61697262 	cmnvs	r9, r2, ror #4
     a1c:	6e756a6e 	vsubvs.f32	s13, s10, s29
     a20:	7365442f 	cmnvc	r5, #788529152	; 0x2f000000
     a24:	706f746b 	rsbvc	r7, pc, fp, ror #8
     a28:	6863732f 	stmdavs	r3!, {r0, r1, r2, r3, r5, r8, r9, ip, sp, lr}^
     a2c:	2f6c6f6f 	svccs	0x006c6f6f
     a30:	69727053 	ldmdbvs	r2!, {r0, r1, r4, r6, ip, sp, lr}^
     a34:	3931676e 	ldmdbcc	r1!, {r1, r2, r3, r5, r6, r8, r9, sl, sp, lr}
     a38:	432f3032 	teqmi	pc, #50	; 0x32
     a3c:	30343253 	eorscc	r3, r4, r3, asr r2
     a40:	632f584c 	teqvs	pc, #76, 16	; 0x4c0000
     a44:	30343273 	eorscc	r3, r4, r3, ror r2
     a48:	322d786c 	eorcc	r7, sp, #108, 16	; 0x6c0000
     a4c:	72707330 	rsbsvc	r7, r0, #48, 6	; 0xc0000000
     a50:	62696c2f 	rsbvs	r6, r9, #12032	; 0x2f00
     a54:	692f6970 	stmdbvs	pc!, {r4, r5, r6, r8, fp, sp, lr}	; <UNPREDICTABLE>
     a58:	756c636e 	strbvc	r6, [ip, #-878]!	; 0x36e
     a5c:	00006564 	andeq	r6, r0, r4, ror #10
     a60:	6b747570 	blvs	1d1e028 <__bss_end__+0x1d13470>
     a64:	0100632e 	tsteq	r0, lr, lsr #6
     a68:	70720000 	rsbsvc	r0, r2, r0
     a6c:	00682e69 	rsbeq	r2, r8, r9, ror #28
     a70:	00000002 	andeq	r0, r0, r2
     a74:	48020500 	stmdami	r2, {r8, sl}
     a78:	15000091 	strne	r0, [r0, #-145]	; 0x91
     a7c:	02002d4c 	andeq	r2, r0, #76, 26	; 0x1300
     a80:	002f0204 	eoreq	r0, pc, r4, lsl #4
     a84:	49020402 	stmdbmi	r2, {r1, sl}
     a88:	01040200 	mrseq	r0, R12_usr
     a8c:	6b062e06 	blvs	18c2ac <__bss_end__+0x1816f4>
     a90:	01000602 	tsteq	r0, r2, lsl #12
     a94:	0001eb01 	andeq	lr, r1, r1, lsl #22
     a98:	e9000200 	stmdb	r0, {r9}
     a9c:	02000000 	andeq	r0, r0, #0
     aa0:	0d0efb01 	vstreq	d15, [lr, #-4]
     aa4:	01010100 	mrseq	r0, (UNDEF: 17)
     aa8:	00000001 	andeq	r0, r0, r1
     aac:	01000001 	tsteq	r0, r1
     ab0:	6362696c 	cmnvs	r2, #108, 18	; 0x1b0000
     ab4:	73752f00 	cmnvc	r5, #0, 30
     ab8:	6f6c2f72 	svcvs	0x006c2f72
     abc:	2f6c6163 	svccs	0x006c6163
     ac0:	6c6c6543 	cfstr64vs	mvdx6, [ip], #-268	; 0xfffffef4
     ac4:	612f7261 	teqvs	pc, r1, ror #4
     ac8:	6e2d6d72 	mcrvs	13, 1, r6, cr13, cr2, {3}
     acc:	2d656e6f 	stclcs	14, cr6, [r5, #-444]!	; 0xfffffe44
     ad0:	69626165 	stmdbvs	r2!, {r0, r2, r5, r6, r8, sp, lr}^
     ad4:	382e342f 	stmdacc	lr!, {r0, r1, r2, r3, r5, sl, ip, sp}
     ad8:	632d332e 	teqvs	sp, #-1207959552	; 0xb8000000
     adc:	30373173 	eorscc	r3, r7, r3, ror r1
     ae0:	696c2f65 	stmdbvs	ip!, {r0, r2, r5, r6, r8, r9, sl, fp, sp}^
     ae4:	63672f62 	cmnvs	r7, #392	; 0x188
     ae8:	72612f63 	rsbvc	r2, r1, #396	; 0x18c
     aec:	6f6e2d6d 	svcvs	0x006e2d6d
     af0:	652d656e 	strvs	r6, [sp, #-1390]!	; 0x56e
     af4:	2f696261 	svccs	0x00696261
     af8:	2e382e34 	mrccs	14, 1, r2, cr8, cr4, {1}
     afc:	6e692f33 	mcrvs	15, 3, r2, cr9, cr3, {1}
     b00:	64756c63 	ldrbtvs	r6, [r5], #-3171	; 0xc63
     b04:	552f0065 	strpl	r0, [pc, #-101]!	; aa7 <__code_start__-0x7559>
     b08:	73726573 	cmnvc	r2, #482344960	; 0x1cc00000
     b0c:	6972622f 	ldmdbvs	r2!, {r0, r1, r2, r3, r5, r9, sp, lr}^
     b10:	756a6e61 	strbvc	r6, [sl, #-3681]!	; 0xe61
     b14:	65442f6e 	strbvs	r2, [r4, #-3950]	; 0xf6e
     b18:	6f746b73 	svcvs	0x00746b73
     b1c:	63732f70 	cmnvs	r3, #112, 30	; 0x1c0
     b20:	6c6f6f68 	stclvs	15, cr6, [pc], #-416	; 988 <__code_start__-0x7678>
     b24:	7270532f 	rsbsvc	r5, r0, #-1140850688	; 0xbc000000
     b28:	31676e69 	cmncc	r7, r9, ror #28
     b2c:	2f303239 	svccs	0x00303239
     b30:	34325343 	ldrtcc	r5, [r2], #-835	; 0x343
     b34:	2f584c30 	svccs	0x00584c30
     b38:	34327363 	ldrtcc	r7, [r2], #-867	; 0x363
     b3c:	2d786c30 	ldclcs	12, cr6, [r8, #-192]!	; 0xffffff40
     b40:	70733032 	rsbsvc	r3, r3, r2, lsr r0
     b44:	696c2f72 	stmdbvs	ip!, {r1, r4, r5, r6, r8, r9, sl, fp, sp}^
     b48:	2f697062 	svccs	0x00697062
     b4c:	6c636e69 	stclvs	14, cr6, [r3], #-420	; 0xfffffe5c
     b50:	00656475 	rsbeq	r6, r5, r5, ror r4
     b54:	2d617600 	stclcs	6, cr7, [r1, #-0]
     b58:	6e697270 	mcrvs	2, 3, r7, cr9, cr0, {3}
     b5c:	632e6b74 	teqvs	lr, #116, 22	; 0x1d000
     b60:	00000100 	andeq	r0, r0, r0, lsl #2
     b64:	61647473 	smcvs	18243	; 0x4743
     b68:	682e6772 	stmdavs	lr!, {r1, r4, r5, r6, r8, r9, sl, sp, lr}
     b6c:	00000200 	andeq	r0, r0, r0, lsl #4
     b70:	2e697072 	mcrcs	0, 3, r7, cr9, cr2, {3}
     b74:	00030068 	andeq	r0, r3, r8, rrx
     b78:	75623c00 	strbvc	r3, [r2, #-3072]!	; 0xc00
     b7c:	2d746c69 	ldclcs	12, cr6, [r4, #-420]!	; 0xfffffe5c
     b80:	003e6e69 	eorseq	r6, lr, r9, ror #28
     b84:	00000000 	andeq	r0, r0, r0
     b88:	7c020500 	cfstr32vc	mvfx0, [r2], {-0}
     b8c:	03000091 	movweq	r0, #145	; 0x91
     b90:	a5010126 	strge	r0, [r1, #-294]	; 0x126
     b94:	002d3113 	eoreq	r3, sp, r3, lsl r1
     b98:	2f020402 	svccs	0x00020402
     b9c:	02040200 	andeq	r0, r4, #0, 4
     ba0:	0402002d 	streq	r0, [r2], #-45	; 0x2d
     ba4:	02002f02 	andeq	r2, r0, #2, 30
     ba8:	4c2d0104 	stfmis	f0, [sp], #-16
     bac:	4b14304c 	blmi	50cce4 <__bss_end__+0x50212c>
     bb0:	02004f2f 	andeq	r4, r0, #47, 30	; 0xbc
     bb4:	00670204 	rsbeq	r0, r7, r4, lsl #4
     bb8:	65010402 	strvs	r0, [r1, #-1026]	; 0x402
     bbc:	a0304d4c 	eorsge	r4, r0, ip, asr #26
     bc0:	0230312f 	eorseq	r3, r0, #-1073741813	; 0xc000000b
     bc4:	2d841626 	stccs	6, cr1, [r4, #152]	; 0x98
     bc8:	0402002c 	streq	r0, [r2], #-44	; 0x2c
     bcc:	02003001 	andeq	r3, r0, #1
     bd0:	06330104 	ldrteq	r0, [r3], -r4, lsl #2
     bd4:	04020066 	streq	r0, [r2], #-102	; 0x66
     bd8:	02002e01 	andeq	r2, r0, #1, 28
     bdc:	08060104 	stmdaeq	r6, {r2, r8}
     be0:	032f6721 	teqeq	pc, #8650752	; 0x840000
     be4:	13038273 	movwne	r8, #12915	; 0x3273
     be8:	0402002e 	streq	r0, [r2], #-46	; 0x2e
     bec:	00660601 	rsbeq	r0, r6, r1, lsl #12
     bf0:	06010402 	streq	r0, [r1], -r2, lsl #8
     bf4:	674b4b83 	strbvs	r4, [fp, -r3, lsl #23]
     bf8:	65034b31 	strvs	r4, [r3, #-2865]	; 0xb31
     bfc:	2e23032e 	cdpcs	3, 2, cr0, cr3, cr14, {1}
     c00:	01040200 	mrseq	r0, R12_usr
     c04:	02002e06 	andeq	r2, r0, #6, 28	; 0x60
     c08:	9f060104 	svcls	0x00060104
     c0c:	01040200 	mrseq	r0, R12_usr
     c10:	03d7d96a 	bicseq	sp, r7, #1736704	; 0x1a8000
     c14:	20087fa4 	andcs	r7, r8, r4, lsr #31
     c18:	0402002f 	streq	r0, [r2], #-47	; 0x2f
     c1c:	064a0601 	strbeq	r0, [sl], -r1, lsl #12
     c20:	032f4bd7 	teqeq	pc, #220160	; 0x35c00
     c24:	83f200dc 	mvnshi	r0, #220	; 0xdc
     c28:	0e03484c 	cdpeq	8, 0, cr4, cr3, cr12, {2}
     c2c:	2e75032e 	cdpcs	3, 7, cr0, cr5, cr14, {1}
     c30:	4b842f2f 	blmi	fe10c8f4 <__bss_end__+0xfe101d3c>
     c34:	314d2d2f 	cmpcc	sp, pc, lsr #26
     c38:	00832f30 	addeq	r2, r3, r0, lsr pc
     c3c:	2c010402 	cfstrscs	mvf0, [r1], {2}
     c40:	040200a2 	streq	r0, [r2], #-162	; 0xa2
     c44:	064a0601 	strbeq	r0, [sl], -r1, lsl #12
     c48:	163602d8 			; <UNDEFINED> instruction: 0x163602d8
     c4c:	08d60e03 	ldmeq	r6, {r0, r1, r9, sl, fp}^
     c50:	31f33021 	mvnscc	r3, r1, lsr #32
     c54:	30f330f3 	ldrshtcc	r3, [r3], #3
     c58:	30f3304b 	rscscc	r3, r3, fp, asr #32
     c5c:	2f312308 	svccs	0x00312308
     c60:	01040200 	mrseq	r0, R12_usr
     c64:	04020065 	streq	r0, [r2], #-101	; 0x65
     c68:	004a0602 	subeq	r0, sl, r2, lsl #12
     c6c:	06010402 	streq	r0, [r1], -r2, lsl #8
     c70:	00664203 	rsbeq	r4, r6, r3, lsl #4
     c74:	06020402 	streq	r0, [r2], -r2, lsl #8
     c78:	c2030666 	andgt	r0, r3, #106954752	; 0x6600000
     c7c:	02684a00 	rsbeq	r4, r8, #0, 20
     c80:	01010010 	tsteq	r1, r0, lsl r0
     c84:	0000009c 	muleq	r0, ip, r0
     c88:	00860002 	addeq	r0, r6, r2
     c8c:	01020000 	mrseq	r0, (UNDEF: 2)
     c90:	000d0efb 	strdeq	r0, [sp], -fp
     c94:	01010101 	tsteq	r1, r1, lsl #2
     c98:	01000000 	mrseq	r0, (UNDEF: 0)
     c9c:	73010000 	movwvc	r0, #4096	; 0x1000
     ca0:	66666174 			; <UNDEFINED> instruction: 0x66666174
     ca4:	6372732d 	cmnvs	r2, #-1275068416	; 0xb4000000
     ca8:	73552f00 	cmpvc	r5, #0, 30
     cac:	2f737265 	svccs	0x00737265
     cb0:	61697262 	cmnvs	r9, r2, ror #4
     cb4:	6e756a6e 	vsubvs.f32	s13, s10, s29
     cb8:	7365442f 	cmnvc	r5, #788529152	; 0x2f000000
     cbc:	706f746b 	rsbvc	r7, pc, fp, ror #8
     cc0:	6863732f 	stmdavs	r3!, {r0, r1, r2, r3, r5, r8, r9, ip, sp, lr}^
     cc4:	2f6c6f6f 	svccs	0x006c6f6f
     cc8:	69727053 	ldmdbvs	r2!, {r0, r1, r4, r6, ip, sp, lr}^
     ccc:	3931676e 	ldmdbcc	r1!, {r1, r2, r3, r5, r6, r8, r9, sl, sp, lr}
     cd0:	432f3032 	teqmi	pc, #50	; 0x32
     cd4:	30343253 	eorscc	r3, r4, r3, asr r2
     cd8:	632f584c 	teqvs	pc, #76, 16	; 0x4c0000
     cdc:	30343273 	eorscc	r3, r4, r3, ror r2
     ce0:	322d786c 	eorcc	r7, sp, #108, 16	; 0x6c0000
     ce4:	72707330 	rsbsvc	r7, r0, #48, 6	; 0xc0000000
     ce8:	62696c2f 	rsbvs	r6, r9, #12032	; 0x2f00
     cec:	692f6970 	stmdbvs	pc!, {r4, r5, r6, r8, fp, sp, lr}	; <UNPREDICTABLE>
     cf0:	756c636e 	strbvc	r6, [ip, #-878]!	; 0x36e
     cf4:	00006564 	andeq	r6, r0, r4, ror #10
     cf8:	61656c63 	cmnvs	r5, r3, ror #24
     cfc:	65722d6e 	ldrbvs	r2, [r2, #-3438]!	; 0xd6e
     d00:	746f6f62 	strbtvc	r6, [pc], #-3938	; d08 <__code_start__-0x72f8>
     d04:	0100632e 	tsteq	r0, lr, lsr #6
     d08:	70720000 	rsbsvc	r0, r2, r0
     d0c:	00682e69 	rsbeq	r2, r8, r9, ror #28
     d10:	00000002 	andeq	r0, r0, r2
     d14:	88020500 	stmdahi	r2, {r8, sl}
     d18:	15000096 	strne	r0, [r0, #-150]	; 0x96
     d1c:	024b832f 	subeq	r8, fp, #-1140850688	; 0xbc000000
     d20:	01010006 	tsteq	r1, r6
     d24:	000000a3 	andeq	r0, r0, r3, lsr #1
     d28:	00800002 	addeq	r0, r0, r2
     d2c:	01020000 	mrseq	r0, (UNDEF: 2)
     d30:	000d0efb 	strdeq	r0, [sp], -fp
     d34:	01010101 	tsteq	r1, r1, lsl #2
     d38:	01000000 	mrseq	r0, (UNDEF: 0)
     d3c:	73010000 	movwvc	r0, #4096	; 0x1000
     d40:	66666174 			; <UNDEFINED> instruction: 0x66666174
     d44:	6372732d 	cmnvs	r2, #-1275068416	; 0xb4000000
     d48:	73552f00 	cmpvc	r5, #0, 30
     d4c:	2f737265 	svccs	0x00737265
     d50:	61697262 	cmnvs	r9, r2, ror #4
     d54:	6e756a6e 	vsubvs.f32	s13, s10, s29
     d58:	7365442f 	cmnvc	r5, #788529152	; 0x2f000000
     d5c:	706f746b 	rsbvc	r7, pc, fp, ror #8
     d60:	6863732f 	stmdavs	r3!, {r0, r1, r2, r3, r5, r8, r9, ip, sp, lr}^
     d64:	2f6c6f6f 	svccs	0x006c6f6f
     d68:	69727053 	ldmdbvs	r2!, {r0, r1, r4, r6, ip, sp, lr}^
     d6c:	3931676e 	ldmdbcc	r1!, {r1, r2, r3, r5, r6, r8, r9, sl, sp, lr}
     d70:	432f3032 	teqmi	pc, #50	; 0x32
     d74:	30343253 	eorscc	r3, r4, r3, asr r2
     d78:	632f584c 	teqvs	pc, #76, 16	; 0x4c0000
     d7c:	30343273 	eorscc	r3, r4, r3, ror r2
     d80:	322d786c 	eorcc	r7, sp, #108, 16	; 0x6c0000
     d84:	72707330 	rsbsvc	r7, r0, #48, 6	; 0xc0000000
     d88:	62696c2f 	rsbvs	r6, r9, #12032	; 0x2f00
     d8c:	692f6970 	stmdbvs	pc!, {r4, r5, r6, r8, fp, sp, lr}	; <UNPREDICTABLE>
     d90:	756c636e 	strbvc	r6, [ip, #-878]!	; 0x36e
     d94:	00006564 	andeq	r6, r0, r4, ror #10
     d98:	61747363 	cmnvs	r4, r3, ror #6
     d9c:	632e7472 	teqvs	lr, #1912602624	; 0x72000000
     da0:	00000100 	andeq	r0, r0, r0, lsl #2
     da4:	2e697072 	mcrcs	0, 3, r7, cr9, cr2, {3}
     da8:	00020068 	andeq	r0, r2, r8, rrx
     dac:	05000000 	streq	r0, [r0, #-0]
     db0:	0096b002 	addseq	fp, r6, r2
     db4:	010c0300 	mrseq	r0, LR_mon
     db8:	2d2f3132 	stfcss	f3, [pc, #-200]!	; cf8 <__code_start__-0x7308>
     dbc:	0402002f 	streq	r0, [r2], #-47	; 0x2f
     dc0:	15034901 	strne	r4, [r3, #-2305]	; 0x901
     dc4:	06022f4a 	streq	r2, [r2], -sl, asr #30
     dc8:	a2010100 	andge	r0, r1, #0, 2
     dcc:	02000000 	andeq	r0, r0, #0
     dd0:	00008000 	andeq	r8, r0, r0
     dd4:	fb010200 	blx	415de <__bss_end__+0x36a26>
     dd8:	01000d0e 	tsteq	r0, lr, lsl #26
     ddc:	00010101 	andeq	r0, r1, r1, lsl #2
     de0:	00010000 	andeq	r0, r1, r0
     de4:	74730100 	ldrbtvc	r0, [r3], #-256	; 0x100
     de8:	2d666661 	stclcs	6, cr6, [r6, #-388]!	; 0xfffffe7c
     dec:	00637273 	rsbeq	r7, r3, r3, ror r2
     df0:	6573552f 	ldrbvs	r5, [r3, #-1327]!	; 0x52f
     df4:	622f7372 	eorvs	r7, pc, #-939524095	; 0xc8000001
     df8:	6e616972 	mcrvs	9, 3, r6, cr1, cr2, {3}
     dfc:	2f6e756a 	svccs	0x006e756a
     e00:	6b736544 	blvs	1cda318 <__bss_end__+0x1ccf760>
     e04:	2f706f74 	svccs	0x00706f74
     e08:	6f686373 	svcvs	0x00686373
     e0c:	532f6c6f 	teqpl	pc, #28416	; 0x6f00
     e10:	6e697270 	mcrvs	2, 3, r7, cr9, cr0, {3}
     e14:	32393167 	eorscc	r3, r9, #-1073741799	; 0xc0000019
     e18:	53432f30 	movtpl	r2, #16176	; 0x3f30
     e1c:	4c303432 	cfldrsmi	mvf3, [r0], #-200	; 0xffffff38
     e20:	73632f58 	cmnvc	r3, #88, 30	; 0x160
     e24:	6c303432 	cfldrsvs	mvf3, [r0], #-200	; 0xffffff38
     e28:	30322d78 	eorscc	r2, r2, r8, ror sp
     e2c:	2f727073 	svccs	0x00727073
     e30:	7062696c 	rsbvc	r6, r2, ip, ror #18
     e34:	6e692f69 	cdpvs	15, 6, cr2, cr9, cr9, {3}
     e38:	64756c63 	ldrbtvs	r6, [r5], #-3171	; 0xc63
     e3c:	72000065 	andvc	r0, r0, #101	; 0x65
     e40:	6f6f6265 	svcvs	0x006f6265
     e44:	00632e74 	rsbeq	r2, r3, r4, ror lr
     e48:	72000001 	andvc	r0, r0, #1
     e4c:	682e6970 	stmdavs	lr!, {r4, r5, r6, r8, fp, sp, lr}
     e50:	00000200 	andeq	r0, r0, r0, lsl #4
     e54:	02050000 	andeq	r0, r5, #0
     e58:	000096e4 	andeq	r9, r0, r4, ror #13
     e5c:	14010d03 	strne	r0, [r1], #-3331	; 0xd03
     e60:	15852f31 	strne	r2, [r5, #3889]	; 0xf31
     e64:	2f4d4b2f 	svccs	0x004d4b2f
     e68:	67523567 	ldrbvs	r3, [r2, -r7, ror #10]
     e6c:	01001002 	tsteq	r0, r2
     e70:	0000ac01 	andeq	sl, r0, r1, lsl #24
     e74:	7f000200 	svcvc	0x00000200
     e78:	02000000 	andeq	r0, r0, #0
     e7c:	0d0efb01 	vstreq	d15, [lr, #-4]
     e80:	01010100 	mrseq	r0, (UNDEF: 17)
     e84:	00000001 	andeq	r0, r0, r1
     e88:	01000001 	tsteq	r0, r1
     e8c:	66617473 			; <UNDEFINED> instruction: 0x66617473
     e90:	72732d66 	rsbsvc	r2, r3, #6528	; 0x1980
     e94:	552f0063 	strpl	r0, [pc, #-99]!	; e39 <__code_start__-0x71c7>
     e98:	73726573 	cmnvc	r2, #482344960	; 0x1cc00000
     e9c:	6972622f 	ldmdbvs	r2!, {r0, r1, r2, r3, r5, r9, sp, lr}^
     ea0:	756a6e61 	strbvc	r6, [sl, #-3681]!	; 0xe61
     ea4:	65442f6e 	strbvs	r2, [r4, #-3950]	; 0xf6e
     ea8:	6f746b73 	svcvs	0x00746b73
     eac:	63732f70 	cmnvs	r3, #112, 30	; 0x1c0
     eb0:	6c6f6f68 	stclvs	15, cr6, [pc], #-416	; d18 <__code_start__-0x72e8>
     eb4:	7270532f 	rsbsvc	r5, r0, #-1140850688	; 0xbc000000
     eb8:	31676e69 	cmncc	r7, r9, ror #28
     ebc:	2f303239 	svccs	0x00303239
     ec0:	34325343 	ldrtcc	r5, [r2], #-835	; 0x343
     ec4:	2f584c30 	svccs	0x00584c30
     ec8:	34327363 	ldrtcc	r7, [r2], #-867	; 0x363
     ecc:	2d786c30 	ldclcs	12, cr6, [r8, #-192]!	; 0xffffff40
     ed0:	70733032 	rsbsvc	r3, r3, r2, lsr r0
     ed4:	696c2f72 	stmdbvs	ip!, {r1, r4, r5, r6, r8, r9, sl, fp, sp}^
     ed8:	2f697062 	svccs	0x00697062
     edc:	6c636e69 	stclvs	14, cr6, [r3], #-420	; 0xfffffe5c
     ee0:	00656475 	rsbeq	r6, r5, r5, ror r4
     ee4:	6d697400 	cfstrdvs	mvd7, [r9, #-0]
     ee8:	632e7265 	teqvs	lr, #1342177286	; 0x50000006
     eec:	00000100 	andeq	r0, r0, r0, lsl #2
     ef0:	2e697072 	mcrcs	0, 3, r7, cr9, cr2, {3}
     ef4:	00020068 	andeq	r0, r2, r8, rrx
     ef8:	05000000 	streq	r0, [r0, #-0]
     efc:	00975802 	addseq	r5, r7, r2, lsl #16
     f00:	2f141600 	svccs	0x00141600
     f04:	0402002d 	streq	r0, [r2], #-45	; 0x2d
     f08:	062e0601 	strteq	r0, [lr], -r1, lsl #12
     f0c:	4b2f316d 	blmi	bcd4c8 <__bss_end__+0xbc2910>
     f10:	3031324d 	eorscc	r3, r1, sp, asr #4
     f14:	6a2f4c4b 	bvs	bd4048 <__bss_end__+0xbc9490>
     f18:	2f842f2f 	svccs	0x00842f2f
     f1c:	01000802 	tsteq	r0, r2, lsl #16
     f20:	00014801 	andeq	r4, r1, r1, lsl #16
     f24:	02000200 	andeq	r0, r0, #0, 4
     f28:	02000001 	andeq	r0, r0, #1
     f2c:	0d0efb01 	vstreq	d15, [lr, #-4]
     f30:	01010100 	mrseq	r0, (UNDEF: 17)
     f34:	00000001 	andeq	r0, r0, r1
     f38:	01000001 	tsteq	r0, r1
     f3c:	7273752f 	rsbsvc	r7, r3, #197132288	; 0xbc00000
     f40:	636e692f 	cmnvs	lr, #770048	; 0xbc000
     f44:	6564756c 	strbvs	r7, [r4, #-1388]!	; 0x56c
     f48:	77656e2f 	strbvc	r6, [r5, -pc, lsr #28]!
     f4c:	2f62696c 	svccs	0x0062696c
     f50:	00737973 	rsbseq	r7, r3, r3, ror r9
     f54:	7273752f 	rsbsvc	r7, r3, #197132288	; 0xbc00000
     f58:	62696c2f 	rsbvs	r6, r9, #12032	; 0x2f00
     f5c:	6363672f 	cmnvs	r3, #12320768	; 0xbc0000
     f60:	6d72612f 	ldfvse	f6, [r2, #-188]!	; 0xffffff44
     f64:	6e6f6e2d 	cdpvs	14, 6, cr6, cr15, cr13, {1}
     f68:	61652d65 	cmnvs	r5, r5, ror #26
     f6c:	362f6962 	strtcc	r6, [pc], -r2, ror #18
     f70:	312e332e 	teqcc	lr, lr, lsr #6
     f74:	636e692f 	cmnvs	lr, #770048	; 0xbc000
     f78:	6564756c 	strbvs	r7, [r4, #-1388]!	; 0x56c
     f7c:	6f682f00 	svcvs	0x00682f00
     f80:	652f656d 	strvs	r6, [pc, #-1389]!	; a1b <__code_start__-0x75e5>
     f84:	656c676e 	strbvs	r6, [ip, #-1902]!	; 0x76e
     f88:	6c632f72 	stclvs	15, cr2, [r3], #-456	; 0xfffffe38
     f8c:	2f737361 	svccs	0x00737361
     f90:	34327363 	ldrtcc	r7, [r2], #-867	; 0x363
     f94:	2d786c30 	ldclcs	12, cr6, [r8, #-192]!	; 0xffffff40
     f98:	70733032 	rsbsvc	r3, r3, r2, lsr r0
     f9c:	6c2f2f72 	stcvs	15, cr2, [pc], #-456	; ddc <__code_start__-0x7224>
     fa0:	69706269 	ldmdbvs	r0!, {r0, r3, r5, r6, r9, sp, lr}^
     fa4:	6f682f00 	svcvs	0x00682f00
     fa8:	652f656d 	strvs	r6, [pc, #-1389]!	; a43 <__code_start__-0x75bd>
     fac:	656c676e 	strbvs	r6, [ip, #-1902]!	; 0x76e
     fb0:	6c632f72 	stclvs	15, cr2, [r3], #-456	; 0xfffffe38
     fb4:	2f737361 	svccs	0x00737361
     fb8:	34327363 	ldrtcc	r7, [r2], #-867	; 0x363
     fbc:	2d786c30 	ldclcs	12, cr6, [r8, #-192]!	; 0xffffff40
     fc0:	70733032 	rsbsvc	r3, r3, r2, lsr r0
     fc4:	6c2f2f72 	stcvs	15, cr2, [pc], #-456	; e04 <__code_start__-0x71fc>
     fc8:	69706269 	ldmdbvs	r0!, {r0, r3, r5, r6, r9, sp, lr}^
     fcc:	6174732f 	cmnvs	r4, pc, lsr #6
     fd0:	732d6666 	teqvc	sp, #106954752	; 0x6600000
     fd4:	00006372 	andeq	r6, r0, r2, ror r3
     fd8:	74726175 	ldrbtvc	r6, [r2], #-373	; 0x175
     fdc:	0000632e 	andeq	r6, r0, lr, lsr #6
     fe0:	6f6c0000 	svcvs	0x006c0000
     fe4:	682e6b63 	stmdavs	lr!, {r0, r1, r5, r6, r8, r9, fp, sp, lr}
     fe8:	00000100 	andeq	r0, r0, r0, lsl #2
     fec:	7079745f 	rsbsvc	r7, r9, pc, asr r4
     ff0:	682e7365 	stmdavs	lr!, {r0, r2, r5, r6, r8, r9, ip, sp, lr}
     ff4:	00000100 	andeq	r0, r0, r0, lsl #2
     ff8:	64647473 	strbtvs	r7, [r4], #-1139	; 0x473
     ffc:	682e6665 	stmdavs	lr!, {r0, r2, r5, r6, r9, sl, sp, lr}
    1000:	00000200 	andeq	r0, r0, r0, lsl #4
    1004:	6e656572 	mcrvs	5, 3, r6, cr5, cr2, {3}
    1008:	00682e74 	rsbeq	r2, r8, r4, ror lr
    100c:	72000001 	andvc	r0, r0, #1
    1010:	682e6970 	stmdavs	lr!, {r4, r5, r6, r8, fp, sp, lr}
    1014:	00000300 	andeq	r0, r0, r0, lsl #6
    1018:	74726175 	ldrbtvc	r6, [r2], #-373	; 0x175
    101c:	0400682e 	streq	r6, [r0], #-2094	; 0x82e
    1020:	70670000 	rsbvc	r0, r7, r0
    1024:	682e6f69 	stmdavs	lr!, {r0, r3, r5, r6, r8, r9, sl, fp, sp, lr}
    1028:	00000400 	andeq	r0, r0, r0, lsl #8
    102c:	02050000 	andeq	r0, r5, #0
    1030:	0000982c 	andeq	r9, r0, ip, lsr #16
    1034:	67012c03 	strvs	r2, [r1, -r3, lsl #24]
    1038:	359e0c03 	ldrcc	r0, [lr, #3075]	; 0xc03
    103c:	68356867 	ldmdavs	r5!, {r0, r1, r2, r5, r6, fp, sp, lr}
    1040:	852e0c03 	strhi	r0, [lr, #-3075]!	; 0xc03
    1044:	0369696b 	cmneq	r9, #1753088	; 0x1ac000
    1048:	676b660c 	strbvs	r6, [fp, -ip, lsl #12]!
    104c:	68344208 	ldmdavs	r4!, {r3, r9, lr}
    1050:	8768364b 	strbhi	r3, [r8, -fp, asr #12]!
    1054:	0402002f 	streq	r0, [r2], #-47	; 0x2f
    1058:	67682f01 	strbvs	r2, [r8, -r1, lsl #30]!
    105c:	004b6730 	subeq	r6, fp, r0, lsr r7
    1060:	2f010402 	svccs	0x00010402
    1064:	2e696768 	cdpcs	7, 6, cr6, cr9, cr8, {3}
    1068:	01000602 	tsteq	r0, r2, lsl #12
    106c:	00012b01 	andeq	r2, r1, r1, lsl #22
    1070:	f8000200 			; <UNDEFINED> instruction: 0xf8000200
    1074:	02000000 	andeq	r0, r0, #0
    1078:	0d0efb01 	vstreq	d15, [lr, #-4]
    107c:	01010100 	mrseq	r0, (UNDEF: 17)
    1080:	00000001 	andeq	r0, r0, r1
    1084:	01000001 	tsteq	r0, r1
    1088:	7273752f 	rsbsvc	r7, r3, #197132288	; 0xbc00000
    108c:	636e692f 	cmnvs	lr, #770048	; 0xbc000
    1090:	6564756c 	strbvs	r7, [r4, #-1388]!	; 0x56c
    1094:	77656e2f 	strbvc	r6, [r5, -pc, lsr #28]!
    1098:	2f62696c 	svccs	0x0062696c
    109c:	00737973 	rsbseq	r7, r3, r3, ror r9
    10a0:	7273752f 	rsbsvc	r7, r3, #197132288	; 0xbc00000
    10a4:	62696c2f 	rsbvs	r6, r9, #12032	; 0x2f00
    10a8:	6363672f 	cmnvs	r3, #12320768	; 0xbc0000
    10ac:	6d72612f 	ldfvse	f6, [r2, #-188]!	; 0xffffff44
    10b0:	6e6f6e2d 	cdpvs	14, 6, cr6, cr15, cr13, {1}
    10b4:	61652d65 	cmnvs	r5, r5, ror #26
    10b8:	362f6962 	strtcc	r6, [pc], -r2, ror #18
    10bc:	312e332e 	teqcc	lr, lr, lsr #6
    10c0:	636e692f 	cmnvs	lr, #770048	; 0xbc000
    10c4:	6564756c 	strbvs	r7, [r4, #-1388]!	; 0x56c
    10c8:	6f682f00 	svcvs	0x00682f00
    10cc:	652f656d 	strvs	r6, [pc, #-1389]!	; b67 <__code_start__-0x7499>
    10d0:	656c676e 	strbvs	r6, [ip, #-1902]!	; 0x76e
    10d4:	6c632f72 	stclvs	15, cr2, [r3], #-456	; 0xfffffe38
    10d8:	2f737361 	svccs	0x00737361
    10dc:	34327363 	ldrtcc	r7, [r2], #-867	; 0x363
    10e0:	2d786c30 	ldclcs	12, cr6, [r8, #-192]!	; 0xffffff40
    10e4:	70733032 	rsbsvc	r3, r3, r2, lsr r0
    10e8:	6c2f2f72 	stcvs	15, cr2, [pc], #-456	; f28 <__code_start__-0x70d8>
    10ec:	69706269 	ldmdbvs	r0!, {r0, r3, r5, r6, r9, sp, lr}^
    10f0:	6f682f00 	svcvs	0x00682f00
    10f4:	652f656d 	strvs	r6, [pc, #-1389]!	; b8f <__code_start__-0x7471>
    10f8:	656c676e 	strbvs	r6, [ip, #-1902]!	; 0x76e
    10fc:	6c632f72 	stclvs	15, cr2, [r3], #-456	; 0xfffffe38
    1100:	2f737361 	svccs	0x00737361
    1104:	34327363 	ldrtcc	r7, [r2], #-867	; 0x363
    1108:	2d786c30 	ldclcs	12, cr6, [r8, #-192]!	; 0xffffff40
    110c:	70733032 	rsbsvc	r3, r3, r2, lsr r0
    1110:	6c2f2f72 	stcvs	15, cr2, [pc], #-456	; f50 <__code_start__-0x70b0>
    1114:	69706269 	ldmdbvs	r0!, {r0, r3, r5, r6, r9, sp, lr}^
    1118:	6174732f 	cmnvs	r4, pc, lsr #6
    111c:	732d6666 	teqvc	sp, #106954752	; 0x6600000
    1120:	00006372 	andeq	r6, r0, r2, ror r3
    1124:	6f697067 	svcvs	0x00697067
    1128:	0000632e 	andeq	r6, r0, lr, lsr #6
    112c:	6f6c0000 	svcvs	0x006c0000
    1130:	682e6b63 	stmdavs	lr!, {r0, r1, r5, r6, r8, r9, fp, sp, lr}
    1134:	00000100 	andeq	r0, r0, r0, lsl #2
    1138:	7079745f 	rsbsvc	r7, r9, pc, asr r4
    113c:	682e7365 	stmdavs	lr!, {r0, r2, r5, r6, r8, r9, ip, sp, lr}
    1140:	00000100 	andeq	r0, r0, r0, lsl #2
    1144:	64647473 	strbtvs	r7, [r4], #-1139	; 0x473
    1148:	682e6665 	stmdavs	lr!, {r0, r2, r5, r6, r9, sl, sp, lr}
    114c:	00000200 	andeq	r0, r0, r0, lsl #4
    1150:	6e656572 	mcrvs	5, 3, r6, cr5, cr2, {3}
    1154:	00682e74 	rsbeq	r2, r8, r4, ror lr
    1158:	72000001 	andvc	r0, r0, #1
    115c:	682e6970 	stmdavs	lr!, {r4, r5, r6, r8, fp, sp, lr}
    1160:	00000300 	andeq	r0, r0, r0, lsl #6
    1164:	6f697067 	svcvs	0x00697067
    1168:	0400682e 	streq	r6, [r0], #-2094	; 0x82e
    116c:	00000000 	andeq	r0, r0, r0
    1170:	99a40205 	stmibls	r4!, {r0, r2, r9}
    1174:	27030000 	strcs	r0, [r3, -r0]
    1178:	474c1301 	strbmi	r1, [ip, -r1, lsl #6]
    117c:	4b68f44f 	blmi	1a3e2c0 <__bss_end__+0x1a33708>
    1180:	6a2fa14c 	bvs	be96b8 <__bss_end__+0xbdeb00>
    1184:	be314913 	mrclt	9, 1, r4, cr1, cr3, {0}
    1188:	be314913 	mrclt	9, 1, r4, cr1, cr3, {0}
    118c:	4d2f6a2f 	vstmdbmi	pc!, {s12-s58}
    1190:	49134f48 	ldmdbmi	r3, {r3, r6, r8, r9, sl, fp, lr}
    1194:	02b72f32 	adcseq	r2, r7, #50, 30	; 0xc8
    1198:	01010006 	tsteq	r1, r6
    119c:	00000134 	andeq	r0, r0, r4, lsr r1
    11a0:	00df0002 	sbcseq	r0, pc, r2
    11a4:	01020000 	mrseq	r0, (UNDEF: 2)
    11a8:	000d0efb 	strdeq	r0, [sp], -fp
    11ac:	01010101 	tsteq	r1, r1, lsl #2
    11b0:	01000000 	mrseq	r0, (UNDEF: 0)
    11b4:	2f010000 	svccs	0x00010000
    11b8:	2f727375 	svccs	0x00727375
    11bc:	6c636e69 	stclvs	14, cr6, [r3], #-420	; 0xfffffe5c
    11c0:	2f656475 	svccs	0x00656475
    11c4:	6c77656e 	cfldr64vs	mvdx6, [r7], #-440	; 0xfffffe48
    11c8:	732f6269 	teqvc	pc, #-1879048186	; 0x90000006
    11cc:	2f007379 	svccs	0x00007379
    11d0:	2f727375 	svccs	0x00727375
    11d4:	2f62696c 	svccs	0x0062696c
    11d8:	2f636367 	svccs	0x00636367
    11dc:	2d6d7261 	sfmcs	f7, 2, [sp, #-388]!	; 0xfffffe7c
    11e0:	656e6f6e 	strbvs	r6, [lr, #-3950]!	; 0xf6e
    11e4:	6261652d 	rsbvs	r6, r1, #188743680	; 0xb400000
    11e8:	2e362f69 	cdpcs	15, 3, cr2, cr6, cr9, {3}
    11ec:	2f312e33 	svccs	0x00312e33
    11f0:	6c636e69 	stclvs	14, cr6, [r3], #-420	; 0xfffffe5c
    11f4:	00656475 	rsbeq	r6, r5, r5, ror r4
    11f8:	6d6f682f 	stclvs	8, cr6, [pc, #-188]!	; 1144 <__code_start__-0x6ebc>
    11fc:	6e652f65 	cdpvs	15, 6, cr2, cr5, cr5, {3}
    1200:	72656c67 	rsbvc	r6, r5, #26368	; 0x6700
    1204:	616c632f 	cmnvs	ip, pc, lsr #6
    1208:	632f7373 	teqvs	pc, #-872415231	; 0xcc000001
    120c:	30343273 	eorscc	r3, r4, r3, ror r2
    1210:	322d786c 	eorcc	r7, sp, #108, 16	; 0x6c0000
    1214:	72707330 	rsbsvc	r7, r0, #48, 6	; 0xc0000000
    1218:	696c2f2f 	stmdbvs	ip!, {r0, r1, r2, r3, r5, r8, r9, sl, fp, sp}^
    121c:	00697062 	rsbeq	r7, r9, r2, rrx
    1220:	7273752f 	rsbsvc	r7, r3, #197132288	; 0xbc00000
    1224:	636e692f 	cmnvs	lr, #770048	; 0xbc000
    1228:	6564756c 	strbvs	r7, [r4, #-1388]!	; 0x56c
    122c:	77656e2f 	strbvc	r6, [r5, -pc, lsr #28]!
    1230:	0062696c 	rsbeq	r6, r2, ip, ror #18
    1234:	616d6b00 	cmnvs	sp, r0, lsl #22
    1238:	636f6c6c 	cmnvs	pc, #108, 24	; 0x6c00
    123c:	0000632e 	andeq	r6, r0, lr, lsr #6
    1240:	6f6c0000 	svcvs	0x006c0000
    1244:	682e6b63 	stmdavs	lr!, {r0, r1, r5, r6, r8, r9, fp, sp, lr}
    1248:	00000100 	andeq	r0, r0, r0, lsl #2
    124c:	7079745f 	rsbsvc	r7, r9, pc, asr r4
    1250:	682e7365 	stmdavs	lr!, {r0, r2, r5, r6, r8, r9, ip, sp, lr}
    1254:	00000100 	andeq	r0, r0, r0, lsl #2
    1258:	64647473 	strbtvs	r7, [r4], #-1139	; 0x473
    125c:	682e6665 	stmdavs	lr!, {r0, r2, r5, r6, r9, sl, sp, lr}
    1260:	00000200 	andeq	r0, r0, r0, lsl #4
    1264:	6e656572 	mcrvs	5, 3, r6, cr5, cr2, {3}
    1268:	00682e74 	rsbeq	r2, r8, r4, ror lr
    126c:	72000001 	andvc	r0, r0, #1
    1270:	682e6970 	stmdavs	lr!, {r4, r5, r6, r8, fp, sp, lr}
    1274:	00000300 	andeq	r0, r0, r0, lsl #6
    1278:	69727473 	ldmdbvs	r2!, {r0, r1, r4, r5, r6, sl, ip, sp, lr}^
    127c:	682e676e 	stmdavs	lr!, {r1, r2, r3, r5, r6, r8, r9, sl, sp, lr}
    1280:	00000400 	andeq	r0, r0, r0, lsl #8
    1284:	02050000 	andeq	r0, r5, #0
    1288:	00009ac4 	andeq	r9, r0, r4, asr #21
    128c:	01011003 	tsteq	r1, r3
    1290:	14680183 	strbtne	r0, [r8], #-387	; 0x183
    1294:	04020083 	streq	r0, [r2], #-131	; 0x83
    1298:	02007f01 	andeq	r7, r0, #1, 30
    129c:	08300104 	ldmdaeq	r0!, {r2, r8}
    12a0:	4c4b2f5c 	mcrrmi	15, 5, r2, fp, cr12
    12a4:	00684b4b 	rsbeq	r4, r8, fp, asr #22
    12a8:	03010402 	movweq	r0, #5122	; 0x1402
    12ac:	09034a79 	stmdbeq	r3, {r0, r3, r4, r5, r6, r9, fp, lr}
    12b0:	012f5808 	teqeq	pc, r8, lsl #16
    12b4:	6a2f4e2e 	bvs	bd4b74 <__bss_end__+0xbc9fbc>
    12b8:	4c67674b 	stclmi	7, cr6, [r7], #-300	; 0xfffffed4
    12bc:	0402002f 	streq	r0, [r2], #-47	; 0x2f
    12c0:	2e760301 	cdpcs	3, 7, cr0, cr6, cr1, {0}
    12c4:	01040200 	mrseq	r0, R12_usr
    12c8:	2f7a08dc 	svccs	0x007a08dc
    12cc:	02019f01 	andeq	r9, r1, #1, 30
    12d0:	01010008 	tsteq	r1, r8

Disassembly of section .debug_str:

00000000 <.debug_str>:
   0:	657a6973 	ldrbvs	r6, [sl, #-2419]!	; 0x973
   4:	6b00745f 	blvs	1d188 <__bss_end__+0x125d0>
   8:	6c6c616d 	stfvse	f6, [ip], #-436	; 0xfffffe4c
   c:	695f636f 	ldmdbvs	pc, {r0, r1, r2, r3, r5, r6, r8, r9, sp, lr}^	; <UNPREDICTABLE>
  10:	5f74696e 	svcpl	0x0074696e
  14:	5f746573 	svcpl	0x00746573
  18:	72617473 	rsbvc	r7, r1, #1929379840	; 0x73000000
  1c:	6b630074 	blvs	18c01f4 <__bss_end__+0x18b563c>
  20:	6f6c6c61 	svcvs	0x006c6c61
  24:	552f0063 	strpl	r0, [pc, #-99]!	; ffffffc9 <__bss_end__+0xffff5411>
  28:	73726573 	cmnvc	r2, #482344960	; 0x1cc00000
  2c:	6972622f 	ldmdbvs	r2!, {r0, r1, r2, r3, r5, r9, sp, lr}^
  30:	756a6e61 	strbvc	r6, [sl, #-3681]!	; 0xe61
  34:	65442f6e 	strbvs	r2, [r4, #-3950]	; 0xf6e
  38:	6f746b73 	svcvs	0x00746b73
  3c:	63732f70 	cmnvs	r3, #112, 30	; 0x1c0
  40:	6c6f6f68 	stclvs	15, cr6, [pc], #-416	; fffffea8 <__bss_end__+0xffff52f0>
  44:	7270532f 	rsbsvc	r5, r0, #-1140850688	; 0xbc000000
  48:	31676e69 	cmncc	r7, r9, ror #28
  4c:	2f303239 	svccs	0x00303239
  50:	34325343 	ldrtcc	r5, [r2], #-835	; 0x343
  54:	2f584c30 	svccs	0x00584c30
  58:	34327363 	ldrtcc	r7, [r2], #-867	; 0x363
  5c:	2d786c30 	ldclcs	12, cr6, [r8, #-192]!	; 0xffffff40
  60:	70733032 	rsbsvc	r3, r3, r2, lsr r0
  64:	616c2f72 	smcvs	49906	; 0xc2f2
  68:	312f7362 	teqcc	pc, r2, ror #6
  6c:	63672d31 	cmnvs	r7, #3136	; 0xc40
  70:	646f632f 	strbtvs	r6, [pc], #-815	; 78 <__code_start__-0x7f88>
  74:	4e470065 	cdpmi	0, 4, cr0, cr7, cr5, {3}
  78:	20432055 	subcs	r2, r3, r5, asr r0
  7c:	2e382e34 	mrccs	14, 1, r2, cr8, cr4, {1}
  80:	6d2d2033 	stcvs	0, cr2, [sp, #-204]!	; 0xffffff34
  84:	3d757063 	ldclcc	0, cr7, [r5, #-396]!	; 0xfffffe74
  88:	316d7261 	cmncc	sp, r1, ror #4
  8c:	6a363731 	bvs	d8dd58 <__bss_end__+0xd831a0>
  90:	732d667a 	teqvc	sp, #127926272	; 0x7a00000
  94:	746d2d20 	strbtvc	r2, [sp], #-3360	; 0xd20
  98:	3d656e75 	stclcc	14, cr6, [r5, #-468]!	; 0xfffffe2c
  9c:	316d7261 	cmncc	sp, r1, ror #4
  a0:	6a363731 	bvs	d8dd6c <__bss_end__+0xd831b4>
  a4:	732d667a 	teqvc	sp, #127926272	; 0x7a00000
  a8:	67672d20 	strbvs	r2, [r7, -r0, lsr #26]!
  ac:	2d206264 	sfmcs	f6, 4, [r0, #-400]!	; 0xfffffe70
  b0:	2d20674f 	stccs	7, cr6, [r0, #-316]!	; 0xfffffec4
  b4:	3d647473 	cfstrdcc	mvd7, [r4, #-460]!	; 0xfffffe34
  b8:	39756e67 	ldmdbcc	r5!, {r0, r1, r2, r5, r6, r9, sl, fp, sp, lr}^
  bc:	662d2039 			; <UNDEFINED> instruction: 0x662d2039
  c0:	65657266 	strbvs	r7, [r5, #-614]!	; 0x266
  c4:	6e617473 	mcrvs	4, 3, r7, cr1, cr3, {3}
  c8:	676e6964 	strbvs	r6, [lr, -r4, ror #18]!
  cc:	746f6e00 	strbtvc	r6, [pc], #-3584	; d4 <__code_start__-0x7f2c>
  d0:	6e69616d 	powvsez	f6, f1, #5.0
  d4:	65686300 	strbvs	r6, [r8, #-768]!	; 0x300
  d8:	6e5f6b63 	vnmlavs.f64	d22, d15, d19
  dc:	656c5f6f 	strbvs	r5, [ip, #-3951]!	; 0xf6f
  e0:	75006b61 	strvc	r6, [r0, #-2913]	; 0xb61
  e4:	6769736e 	strbvs	r7, [r9, -lr, ror #6]!
  e8:	2064656e 	rsbcs	r6, r4, lr, ror #10
  ec:	72616863 	rsbvc	r6, r1, #6488064	; 0x630000
  f0:	6f687300 	svcvs	0x00687300
  f4:	75207472 	strvc	r7, [r0, #-1138]!	; 0x472
  f8:	6769736e 	strbvs	r7, [r9, -lr, ror #6]!
  fc:	2064656e 	rsbcs	r6, r4, lr, ror #10
 100:	00746e69 	rsbseq	r6, r4, r9, ror #28
 104:	6c616d6b 	stclvs	13, cr6, [r1], #-428	; 0xfffffe54
 108:	00636f6c 	rsbeq	r6, r3, ip, ror #30
 10c:	736d656d 	cmnvc	sp, #457179136	; 0x1b400000
 110:	5f007465 	svcpl	0x00007465
 114:	4e55465f 	mrcmi	6, 2, r4, cr5, cr15, {2}
 118:	4f495443 	svcmi	0x00495443
 11c:	005f5f4e 	subseq	r5, pc, lr, asr #30
 120:	74736574 	ldrbtvc	r6, [r3], #-1396	; 0x574
 124:	5f6b6300 	svcpl	0x006b6300
 128:	74696e69 	strbtvc	r6, [r9], #-3689	; 0xe69
 12c:	6e6f6c00 	cdpvs	12, 6, cr6, cr15, cr0, {0}
 130:	6f6c2067 	svcvs	0x006c2067
 134:	7520676e 	strvc	r6, [r0, #-1902]!	; 0x76e
 138:	6769736e 	strbvs	r7, [r9, -lr, ror #6]!
 13c:	2064656e 	rsbcs	r6, r4, lr, ror #10
 140:	00746e69 	rsbseq	r6, r4, r9, ror #28
 144:	626f6c67 	rsbvs	r6, pc, #26368	; 0x6700
 148:	705f6c61 	subsvc	r6, pc, r1, ror #24
 14c:	7a697300 	bvc	1a5cd54 <__bss_end__+0x1a5219c>
 150:	70797465 	rsbsvc	r7, r9, r5, ror #8
 154:	6f6c0065 	svcvs	0x006c0065
 158:	6c20676e 	stcvs	7, cr6, [r0], #-440	; 0xfffffe48
 15c:	20676e6f 	rsbcs	r6, r7, pc, ror #28
 160:	00746e69 	rsbseq	r6, r4, r9, ror #28
 164:	726f6873 	rsbvc	r6, pc, #7536640	; 0x730000
 168:	6e692074 	mcrvs	0, 3, r2, cr9, cr4, {3}
 16c:	69750074 	ldmdbvs	r5!, {r2, r4, r5, r6}^
 170:	3233746e 	eorscc	r7, r3, #1845493760	; 0x6e000000
 174:	7400745f 	strvc	r7, [r0], #-1119	; 0x45f
 178:	73747365 	cmnvc	r4, #-1811939327	; 0x94000001
 17c:	7261702f 	rsbvc	r7, r1, #47	; 0x2f
 180:	742d3274 	strtvc	r3, [sp], #-628	; 0x274
 184:	32747365 	rsbscc	r7, r4, #-1811939327	; 0x94000001
 188:	5f00632e 	svcpl	0x0000632e
 18c:	7461645f 	strbtvc	r6, [r1], #-1119	; 0x45f
 190:	74735f61 	ldrbtvc	r5, [r3], #-3937	; 0xf61
 194:	5f747261 	svcpl	0x00747261
 198:	5f5f005f 	svcpl	0x005f005f
 19c:	61746164 	cmnvs	r4, r4, ror #2
 1a0:	646e655f 	strbtvs	r6, [lr], #-1375	; 0x55f
 1a4:	6e005f5f 	mcrvs	15, 0, r5, cr0, cr15, {2}
 1a8:	65747962 	ldrbvs	r7, [r4, #-2402]!	; 0x962
 1ac:	72665f73 	rsbvc	r5, r6, #460	; 0x1cc
 1b0:	00646565 	rsbeq	r6, r4, r5, ror #10
 1b4:	665f6b63 	ldrbvs	r6, [pc], -r3, ror #22
 1b8:	74737269 	ldrbtvc	r7, [r3], #-617	; 0x269
 1bc:	7264685f 	rsbvc	r6, r4, #6225920	; 0x5f0000
 1c0:	65727000 	ldrbvs	r7, [r2, #-0]!
 1c4:	6c6f0076 	stclvs	0, cr0, [pc], #-472	; fffffff4 <__bss_end__+0xffff543c>
 1c8:	616d5f64 	cmnvs	sp, r4, ror #30
 1cc:	68006b72 	stmdavs	r0, {r1, r4, r5, r6, r8, r9, fp, sp, lr}
 1d0:	6464615f 	strbtvs	r6, [r4], #-351	; 0x15f
 1d4:	61660072 	smcvs	24578	; 0x6002
 1d8:	685f7473 	ldmdavs	pc, {r0, r1, r4, r5, r6, sl, ip, sp, lr}^	; <UNPREDICTABLE>
 1dc:	00687361 	rsbeq	r7, r8, r1, ror #6
 1e0:	7a725f62 	bvc	1c97f70 <__bss_end__+0x1c8d3b8>
 1e4:	74705f31 	ldrbtvc	r5, [r0], #-3889	; 0xf31
 1e8:	52460072 	subpl	r0, r6, #114	; 0x72
 1ec:	00444545 	subeq	r4, r4, r5, asr #10
 1f0:	4f4c4c41 	svcmi	0x004c4c41
 1f4:	00444543 	subeq	r4, r4, r3, asr #10
 1f8:	64615f62 	strbtvs	r5, [r1], #-3938	; 0xf62
 1fc:	745f7264 	ldrbvc	r7, [pc], #-612	; 204 <__code_start__-0x7dfc>
 200:	64685f6f 	strbtvs	r5, [r8], #-3951	; 0xf6f
 204:	796d0072 	stmdbvc	sp!, {r1, r4, r5, r6}^
 208:	666e695f 			; <UNDEFINED> instruction: 0x666e695f
 20c:	6975006f 	ldmdbvs	r5!, {r0, r1, r2, r3, r5, r6}^
 210:	3631746e 	ldrtcc	r7, [r1], -lr, ror #8
 214:	4f00745f 	svcmi	0x0000745f
 218:	48524556 	ldmdami	r2, {r1, r2, r4, r6, r8, sl, lr}^
 21c:	5f444145 	svcpl	0x00444145
 220:	5459424e 	ldrbpl	r4, [r9], #-590	; 0x24e
 224:	63005345 	movwvs	r5, #837	; 0x345
 228:	65685f6b 	strbvs	r5, [r8, #-3947]!	; 0xf6b
 22c:	655f7061 	ldrbvs	r7, [pc, #-97]	; 1d3 <__code_start__-0x7e2d>
 230:	726f7272 	rsbvc	r7, pc, #536870919	; 0x20000007
 234:	4c410073 	mcrrmi	0, 7, r0, r1, cr3
 238:	5f434f4c 	svcpl	0x00434f4c
 23c:	5346464f 	movtpl	r4, #26191	; 0x664f
 240:	72005445 	andvc	r5, r0, #1157627904	; 0x45000000
 244:	725f6970 	subsvc	r6, pc, #112, 18	; 0x1c0000
 248:	74657365 	strbtvc	r7, [r5], #-869	; 0x365
 24c:	7475705f 	ldrbtvc	r7, [r5], #-95	; 0x5f
 250:	75630063 	strbvc	r0, [r3, #-99]!	; 0x63
 254:	685f7272 	ldmdavs	pc, {r1, r4, r5, r6, r9, ip, sp, lr}^	; <UNPREDICTABLE>
 258:	62007264 	andvs	r7, r0, #100, 4	; 0x40000006
 25c:	746f745f 	strbtvc	r7, [pc], #-1119	; 264 <__code_start__-0x7d9c>
 260:	625f6c61 	subsvs	r6, pc, #24832	; 0x6100
 264:	73657479 	cmnvc	r5, #2030043136	; 0x79000000
 268:	65686300 	strbvs	r6, [r8, #-768]!	; 0x300
 26c:	705f6b63 	subsvc	r6, pc, r3, ror #22
 270:	63007274 	movwvs	r7, #628	; 0x274
 274:	6c6c616b 	stfvse	f6, [ip], #-428	; 0xfffffe54
 278:	632e636f 	teqvs	lr, #-1140850687	; 0xbc000001
 27c:	666b6300 	strbtvs	r6, [fp], -r0, lsl #6
 280:	00656572 	rsbeq	r6, r5, r2, ror r5
 284:	6e5f6b63 	vnmlavs.f64	d22, d15, d19
 288:	5f747865 	svcpl	0x00747865
 28c:	00726468 	rsbseq	r6, r2, r8, ror #8
 290:	61656c63 	cmnvs	r5, r3, ror #24
 294:	65725f6e 	ldrbvs	r5, [r2, #-3950]!	; 0xf6e
 298:	746f6f62 	strbtvc	r6, [pc], #-3938	; 2a0 <__code_start__-0x7d60>
 29c:	6c6c6100 	stfvse	f6, [ip], #-0
 2a0:	6c5f636f 	mrrcvs	3, 6, r6, pc, cr15	; <UNPREDICTABLE>
 2a4:	6800636f 	stmdavs	r0, {r0, r1, r2, r3, r5, r6, r8, r9, sp, lr}
 2a8:	635f7264 	cmpvs	pc, #100, 4	; 0x40000006
 2ac:	6d75736b 	ldclvs	3, cr7, [r5, #-428]!	; 0xfffffe54
 2b0:	44455200 	strbmi	r5, [r5], #-512	; 0x200
 2b4:	454e4f5a 	strbmi	r4, [lr, #-3930]	; 0xf5a
 2b8:	646c6f00 	strbtvs	r6, [ip], #-3840	; 0xf00
 2bc:	736b635f 	cmnvc	fp, #2080374785	; 0x7c000001
 2c0:	6e006d75 	mcrvs	13, 0, r6, cr0, cr5, {3}
 2c4:	65747962 	ldrbvs	r7, [r4, #-2402]!	; 0x962
 2c8:	6c615f73 	stclvs	15, cr5, [r1], #-460	; 0xfffffe34
 2cc:	00636f6c 	rsbeq	r6, r3, ip, ror #30
 2d0:	65657266 	strbvs	r7, [r5, #-614]!	; 0x266
 2d4:	636f6c5f 	cmnvs	pc, #24320	; 0x5f00
 2d8:	615f6200 	cmpvs	pc, r0, lsl #4
 2dc:	636f6c6c 	cmnvs	pc, #108, 24	; 0x6c00
 2e0:	7274705f 	rsbsvc	r7, r4, #95	; 0x5f
 2e4:	61656800 	cmnvs	r5, r0, lsl #16
 2e8:	6e695f70 	mcrvs	15, 3, r5, cr9, cr0, {3}
 2ec:	73006f66 	movwvc	r6, #3942	; 0xf66
 2f0:	6c5f6372 	mrrcvs	3, 7, r6, pc, cr2	; <UNPREDICTABLE>
 2f4:	745f636f 	ldrbvc	r6, [pc], #-879	; 2fc <__code_start__-0x7d04>
 2f8:	65686300 	strbvs	r6, [r8, #-768]!	; 0x300
 2fc:	685f6b63 	ldmdavs	pc, {r0, r1, r5, r6, r8, r9, fp, sp, lr}^	; <UNPREDICTABLE>
 300:	62007264 	andvs	r7, r0, #100, 4	; 0x40000006
 304:	327a725f 	rsbscc	r7, sl, #-268435451	; 0xf0000005
 308:	7274705f 	rsbsvc	r7, r4, #95	; 0x5f
 30c:	72656e00 	rsbvc	r6, r5, #0, 28
 310:	73726f72 	cmnvc	r2, #456	; 0x1c8
 314:	72646800 	rsbvc	r6, r4, #0, 16
 318:	6972705f 	ldmdbvs	r2!, {r0, r1, r2, r3, r4, r6, ip, sp, lr}^
 31c:	6e00746e 	cdpvs	4, 0, cr7, cr0, cr14, {3}
 320:	736b6c62 	cmnvc	fp, #25088	; 0x6200
 324:	4e455300 	cdpmi	3, 4, cr5, cr5, cr0, {0}
 328:	414e4954 	cmpmi	lr, r4, asr r9
 32c:	616d004c 	cmnvs	sp, ip, asr #32
 330:	6d5f6b72 	vldrvs	d22, [pc, #-456]	; 170 <__code_start__-0x7e90>
 334:	6f006d65 	svcvs	0x00006d65
 338:	725f646c 	subsvc	r6, pc, #108, 8	; 0x6c000000
 33c:	5f736665 	svcpl	0x00736665
 340:	6464696d 	strbtvs	r6, [r4], #-2413	; 0x96d
 344:	6e00656c 	cfsh32vs	mvfx6, mvfx0, #60
 348:	65747962 	ldrbvs	r7, [r4, #-2402]!	; 0x962
 34c:	6c615f73 	stclvs	15, cr5, [r1], #-460	; 0xfffffe34
 350:	65636f6c 	strbvs	r6, [r3, #-3948]!	; 0xf6c
 354:	68630064 	stmdavs	r3!, {r2, r5, r6}^
 358:	5f6b6365 	svcpl	0x006b6365
 35c:	636f6c62 	cmnvs	pc, #25088	; 0x6200
 360:	696c006b 	stmdbvs	ip!, {r0, r1, r3, r5, r6}^
 364:	6f6e656e 	svcvs	0x006e656e
 368:	725f6200 	subsvc	r6, pc, #0, 4
 36c:	6e5f327a 	mrcvs	2, 2, r3, cr15, cr10, {3}
 370:	65747962 	ldrbvs	r7, [r4, #-2402]!	; 0x962
 374:	64680073 	strbtvs	r0, [r8], #-115	; 0x73
 378:	6b635f72 	blvs	18d8148 <__bss_end__+0x18cd590>
 37c:	5f6d7573 	svcpl	0x006d7573
 380:	006c6176 	rsbeq	r6, ip, r6, ror r1
 384:	746e6975 	strbtvc	r6, [lr], #-2421	; 0x975
 388:	00745f38 	rsbseq	r5, r4, r8, lsr pc
 38c:	5f726468 	svcpl	0x00726468
 390:	6c6f0074 	stclvs	0, cr0, [pc], #-464	; 1c8 <__code_start__-0x7e38>
 394:	65725f64 	ldrbvs	r5, [r2, #-3940]!	; 0xf64
 398:	735f7366 	cmpvc	pc, #-1744830463	; 0x98000001
 39c:	74726174 	ldrbtvc	r6, [r2], #-372	; 0x174
 3a0:	79626e00 	stmdbvc	r2!, {r9, sl, fp, sp, lr}^
 3a4:	5f736574 	svcpl	0x00736574
 3a8:	006d6572 	rsbeq	r6, sp, r2, ror r5
 3ac:	7466656c 	strbtvc	r6, [r6], #-1388	; 0x56c
 3b0:	65686300 	strbvs	r6, [r8, #-768]!	; 0x300
 3b4:	6d5f6b63 	vldrvs	d22, [pc, #-396]	; 230 <__code_start__-0x7dd0>
 3b8:	68006d65 	stmdavs	r0, {r0, r2, r5, r6, r8, sl, fp, sp, lr}
 3bc:	65646165 	strbvs	r6, [r4, #-357]!	; 0x165
 3c0:	74730072 	ldrbtvc	r0, [r3], #-114	; 0x72
 3c4:	5f6b6361 	svcpl	0x006b6361
 3c8:	00706f74 	rsbseq	r6, r0, r4, ror pc
 3cc:	6e726177 	mrcvs	1, 3, r6, cr2, cr7, {3}
 3d0:	5f6f6e5f 	svcpl	0x006f6e5f
 3d4:	72617473 	rsbvc	r7, r1, #1929379840	; 0x73000000
 3d8:	65725f74 	ldrbvs	r5, [r2, #-3956]!	; 0xf74
 3dc:	00705f66 	rsbseq	r5, r0, r6, ror #30
 3e0:	6c706d69 	ldclvs	13, cr6, [r0], #-420	; 0xfffffe5c
 3e4:	6e656d65 	cdpvs	13, 6, cr6, cr5, cr5, {3}
 3e8:	68745f74 	ldmdavs	r4!, {r2, r4, r5, r6, r8, r9, sl, fp, ip, lr}^
 3ec:	6e007369 	cdpvs	3, 0, cr7, cr0, cr9, {3}
 3f0:	6b61656c 	blvs	18599a8 <__bss_end__+0x184edf0>
 3f4:	77730073 			; <UNDEFINED> instruction: 0x77730073
 3f8:	5f706565 	svcpl	0x00706565
 3fc:	65657266 	strbvs	r7, [r5, #-614]!	; 0x266
 400:	79616d00 	stmdbvc	r1!, {r8, sl, fp, sp, lr}^
 404:	655f6562 	ldrbvs	r6, [pc, #-1378]	; fffffeaa <__bss_end__+0xffff52f2>
 408:	726f7272 	rsbvc	r7, pc, #536870919	; 0x20000007
 40c:	6b630073 	blvs	18c05e0 <__bss_end__+0x18b5a28>
 410:	0063675f 	rsbeq	r6, r3, pc, asr r7
 414:	665f6b63 	ldrbvs	r6, [pc], -r3, ror #22
 418:	5f646e69 	svcpl	0x00646e69
 41c:	6b61656c 	blvs	18599d4 <__bss_end__+0x184ee1c>
 420:	5f5f0073 	svcpl	0x005f0073
 424:	5f737362 	svcpl	0x00737362
 428:	72617473 	rsbvc	r7, r1, #1929379840	; 0x73000000
 42c:	005f5f74 	subseq	r5, pc, r4, ror pc	; <UNPREDICTABLE>
 430:	73625f5f 	cmnvc	r2, #380	; 0x17c
 434:	6e655f73 	mcrvs	15, 3, r5, cr5, cr3, {3}
 438:	005f5f64 	subseq	r5, pc, r4, ror #30
 43c:	65657773 	strbvs	r7, [r5, #-1907]!	; 0x773
 440:	656c5f70 	strbvs	r5, [ip, #-3952]!	; 0xf70
 444:	69006b61 	stmdbvs	r0, {r0, r5, r6, r8, r9, fp, sp, lr}
 448:	65685f6e 	strbvs	r5, [r8, #-3950]!	; 0xf6e
 44c:	63007061 	movwvs	r7, #97	; 0x61
 450:	00727275 	rsbseq	r7, r2, r5, ror r2
 454:	63656863 	cmnvs	r5, #6488064	; 0x630000
 458:	68735f6b 	ldmdavs	r3!, {r0, r1, r3, r5, r6, r8, r9, sl, fp, ip, lr}^
 45c:	646c756f 	strbtvs	r7, [ip], #-1391	; 0x56f
 460:	61656c5f 	cmnvs	r5, pc, asr ip
 464:	7564006b 	strbvc	r0, [r4, #-107]!	; 0x6b
 468:	725f706d 	subsvc	r7, pc, #109	; 0x6d
 46c:	00736765 	rsbseq	r6, r3, r5, ror #14
 470:	6572666e 	ldrbvs	r6, [r2, #-1646]!	; 0x66e
 474:	63006465 	movwvs	r6, #1125	; 0x465
 478:	63672d6b 	cmnvs	r7, #6848	; 0x1ac0
 47c:	6d00632e 	stcvs	3, cr6, [r0, #-184]	; 0xffffff48
 480:	5f6b7261 	svcpl	0x006b7261
 484:	006c6c61 	rsbeq	r6, ip, r1, ror #24
 488:	705f7369 	subsvc	r7, pc, r9, ror #6
 48c:	6e007274 	mcrvs	2, 0, r7, cr0, cr4, {3}
 490:	636f6c62 	cmnvs	pc, #25088	; 0x6200
 494:	6c00736b 	stcvs	3, cr7, [r0], {107}	; 0x6b
 498:	2f636269 	svccs	0x00636269
 49c:	68736168 	ldmdavs	r3!, {r3, r5, r6, r8, sp, lr}^
 4a0:	2f00632e 	svccs	0x0000632e
 4a4:	72657355 	rsbvc	r7, r5, #1409286145	; 0x54000001
 4a8:	72622f73 	rsbvc	r2, r2, #460	; 0x1cc
 4ac:	6a6e6169 	bvs	1b98a58 <__bss_end__+0x1b8dea0>
 4b0:	442f6e75 	strtmi	r6, [pc], #-3701	; 4b8 <__code_start__-0x7b48>
 4b4:	746b7365 	strbtvc	r7, [fp], #-869	; 0x365
 4b8:	732f706f 	teqvc	pc, #111	; 0x6f
 4bc:	6f6f6863 	svcvs	0x006f6863
 4c0:	70532f6c 	subsvc	r2, r3, ip, ror #30
 4c4:	676e6972 			; <UNDEFINED> instruction: 0x676e6972
 4c8:	30323931 	eorscc	r3, r2, r1, lsr r9
 4cc:	3253432f 	subscc	r4, r3, #-1140850688	; 0xbc000000
 4d0:	584c3034 	stmdapl	ip, {r2, r4, r5, ip, sp}^
 4d4:	3273632f 	rsbscc	r6, r3, #-1140850688	; 0xbc000000
 4d8:	786c3034 	stmdavc	ip!, {r2, r4, r5, ip, sp}^
 4dc:	7330322d 	teqvc	r0, #-805306366	; 0xd0000002
 4e0:	6c2f7270 	sfmvs	f7, 4, [pc], #-448	; 328 <__code_start__-0x7cd8>
 4e4:	69706269 	ldmdbvs	r0!, {r0, r3, r5, r6, r9, sp, lr}^
 4e8:	62696c00 	rsbvs	r6, r9, #0, 24
 4ec:	656d2f63 	strbvs	r2, [sp, #-3939]!	; 0xf63
 4f0:	7465736d 	strbtvc	r7, [r5], #-877	; 0x36d
 4f4:	5f00632e 	svcpl	0x0000632e
 4f8:	756e675f 	strbvc	r6, [lr, #-1887]!	; 0x75f
 4fc:	61765f63 	cmnvs	r6, r3, ror #30
 500:	73696c5f 	cmnvc	r9, #24320	; 0x5f00
 504:	696c0074 	stmdbvs	ip!, {r2, r4, r5, r6}^
 508:	702f6362 	eorvc	r6, pc, r2, ror #6
 50c:	746e6972 	strbtvc	r6, [lr], #-2418	; 0x972
 510:	00632e6b 	rsbeq	r2, r3, fp, ror #28
 514:	705f6176 	subsvc	r6, pc, r6, ror r1	; <UNPREDICTABLE>
 518:	746e6972 	strbtvc	r6, [lr], #-2418	; 0x972
 51c:	5f5f006b 	svcpl	0x005f006b
 520:	6c5f6176 	ldfvse	f6, [pc], {118}	; 0x76
 524:	00747369 	rsbseq	r7, r4, r9, ror #6
 528:	70615f5f 	rsbvc	r5, r1, pc, asr pc
 52c:	72617500 	rsbvc	r7, r1, #0, 10
 530:	75705f74 	ldrbvc	r5, [r0, #-3956]!	; 0xf74
 534:	69006374 	stmdbvs	r0, {r2, r4, r5, r6, r8, r9, sp, lr}
 538:	7265746e 	rsbvc	r7, r5, #1845493760	; 0x6e000000
 53c:	5f6c616e 	svcpl	0x006c616e
 540:	63747570 	cmnvs	r4, #112, 10	; 0x1c000000
 544:	00726168 	rsbseq	r6, r2, r8, ror #2
 548:	5f697072 	svcpl	0x00697072
 54c:	63747570 	cmnvs	r4, #112, 10	; 0x1c000000
 550:	00726168 	rsbseq	r6, r2, r8, ror #2
 554:	6362696c 	cmnvs	r2, #108, 18	; 0x1b0000
 558:	7475702f 	ldrbtvc	r7, [r5], #-47	; 0x2f
 55c:	72616863 	rsbvc	r6, r1, #6488064	; 0x630000
 560:	7200632e 	andvc	r6, r0, #-1207959552	; 0xb8000000
 564:	735f6970 	cmpvc	pc, #112, 18	; 0x1c0000
 568:	705f7465 	subsvc	r7, pc, r5, ror #8
 56c:	00637475 	rsbeq	r7, r3, r5, ror r4
 570:	6362696c 	cmnvs	r2, #108, 18	; 0x1b0000
 574:	7475702f 	ldrbtvc	r7, [r5], #-47	; 0x2f
 578:	00632e6b 	rsbeq	r2, r3, fp, ror #28
 57c:	65746e69 	ldrbvs	r6, [r4, #-3689]!	; 0xe69
 580:	6c616e72 	stclvs	14, cr6, [r1], #-456	; 0xfffffe38
 584:	7475705f 	ldrbtvc	r7, [r5], #-95	; 0x5f
 588:	656e006b 	strbvs	r0, [lr, #-107]!	; 0x6b
 58c:	00705f67 	rsbseq	r5, r0, r7, ror #30
 590:	65766572 	ldrbvs	r6, [r6, #-1394]!	; 0x572
 594:	00657372 	rsbeq	r7, r5, r2, ror r3
 598:	69647369 	stmdbvs	r4!, {r0, r3, r5, r6, r8, r9, ip, sp, lr}^
 59c:	00746967 	rsbseq	r6, r4, r7, ror #18
 5a0:	73747570 	cmnvc	r4, #112, 10	; 0x1c000000
 5a4:	0070665f 	rsbseq	r6, r0, pc, asr r6
 5a8:	6e676973 	mcrvs	9, 3, r6, cr7, cr3, {3}
 5ac:	705f6465 	subsvc	r6, pc, r5, ror #8
 5b0:	62696c00 	rsbvs	r6, r9, #0, 24
 5b4:	61762f63 	cmnvs	r6, r3, ror #30
 5b8:	6972702d 	ldmdbvs	r2!, {r0, r2, r3, r5, ip, sp, lr}^
 5bc:	2e6b746e 	cdpcs	4, 6, cr7, cr11, cr14, {3}
 5c0:	70720063 	rsbsvc	r0, r2, r3, rrx
 5c4:	65735f69 	ldrbvs	r5, [r3, #-3945]!	; 0xf69
 5c8:	756f5f74 	strbvc	r5, [pc, #-3956]!	; fffff65c <__bss_end__+0xffff4aa4>
 5cc:	74757074 	ldrbtvc	r7, [r5], #-116	; 0x74
 5d0:	64697700 	strbtvs	r7, [r9], #-1792	; 0x700
 5d4:	70006874 	andvc	r6, r0, r4, ror r8
 5d8:	5f637475 	svcpl	0x00637475
 5dc:	65007066 	strvs	r7, [r0, #-102]	; 0x66
 5e0:	0074696d 	rsbseq	r6, r4, sp, ror #18
 5e4:	66617473 			; <UNDEFINED> instruction: 0x66617473
 5e8:	72732d66 	rsbsvc	r2, r3, #6528	; 0x1980
 5ec:	6c632f63 	stclvs	15, cr2, [r3], #-396	; 0xfffffe74
 5f0:	2d6e6165 	stfcse	f6, [lr, #-404]!	; 0xfffffe6c
 5f4:	6f626572 	svcvs	0x00626572
 5f8:	632e746f 	teqvs	lr, #1862270976	; 0x6f000000
 5fc:	69707200 	ldmdbvs	r0!, {r9, ip, sp, lr}^
 600:	6265725f 	rsbvs	r7, r5, #-268435451	; 0xf0000005
 604:	00746f6f 	rsbseq	r6, r4, pc, ror #30
 608:	616c6564 	cmnvs	ip, r4, ror #10
 60c:	736d5f79 	cmnvc	sp, #484	; 0x1e4
 610:	73736200 	cmnvc	r3, #0, 4
 614:	646e655f 	strbtvs	r6, [lr], #-1375	; 0x55f
 618:	73635f00 	cmnvc	r3, #0, 30
 61c:	74726174 	ldrbtvc	r6, [r2], #-372	; 0x174
 620:	61747300 	cmnvs	r4, r0, lsl #6
 624:	732d6666 	teqvc	sp, #106954752	; 0x6600000
 628:	632f6372 	teqvs	pc, #-939524095	; 0xc8000001
 62c:	72617473 	rsbvc	r7, r1, #1929379840	; 0x73000000
 630:	00632e74 	rsbeq	r2, r3, r4, ror lr
 634:	755f7461 	ldrbvc	r7, [pc, #-1121]	; 1db <__code_start__-0x7e25>
 638:	5f726573 	svcpl	0x00726573
 63c:	6576656c 	ldrbvs	r6, [r6, #-1388]!	; 0x56c
 640:	7473006c 	ldrbtvc	r0, [r3], #-108	; 0x6c
 644:	2d666661 	stclcs	6, cr6, [r6, #-388]!	; 0xfffffe7c
 648:	2f637273 	svccs	0x00637273
 64c:	6f626572 	svcvs	0x00626572
 650:	632e746f 	teqvs	lr, #1862270976	; 0x6f000000
 654:	5f4d5000 	svcpl	0x004d5000
 658:	43545352 	cmpmi	r4, #1207959553	; 0x48000001
 65c:	4352575f 	cmpmi	r2, #24903680	; 0x17c0000
 660:	465f4746 	ldrbmi	r4, [pc], -r6, asr #14
 664:	5f4c4c55 	svcpl	0x004c4c55
 668:	45534552 	ldrbmi	r4, [r3, #-1362]	; 0x552
 66c:	4d500054 	ldclmi	0, cr0, [r0, #-336]	; 0xfffffeb0
 670:	4f44575f 	svcmi	0x0044575f
 674:	65730047 	ldrbvs	r0, [r3, #-71]!	; 0x47
 678:	73755f74 	cmnvc	r5, #116, 30	; 0x1d0
 67c:	6c5f7265 	lfmvs	f7, 2, [pc], {101}	; 0x65
 680:	6c657665 	stclvs	6, cr7, [r5], #-404	; 0xfffffe6c
 684:	54555000 	ldrbpl	r5, [r5], #-0
 688:	50003233 	andpl	r3, r0, r3, lsr r2
 68c:	41505f4d 	cmpmi	r0, sp, asr #30
 690:	4f575353 	svcmi	0x00575353
 694:	50004452 	andpl	r4, r0, r2, asr r4
 698:	53525f4d 	cmppl	r2, #308	; 0x134
 69c:	63004354 	movwvs	r4, #852	; 0x354
 6a0:	00727370 	rsbseq	r7, r2, r0, ror r3
 6a4:	656d6974 	strbvs	r6, [sp, #-2420]!	; 0x974
 6a8:	65675f72 	strbvs	r5, [r7, #-3954]!	; 0xf72
 6ac:	73755f74 	cmnvc	r5, #116, 30	; 0x1d0
 6b0:	725f6365 	subsvc	r6, pc, #-1811939327	; 0x94000001
 6b4:	64007761 	strvs	r7, [r0], #-1889	; 0x761
 6b8:	79616c65 	stmdbvc	r1!, {r0, r2, r5, r6, sl, fp, sp, lr}^
 6bc:	6365735f 	cmnvs	r5, #2080374785	; 0x7c000001
 6c0:	61747300 	cmnvs	r4, r0, lsl #6
 6c4:	732d6666 	teqvc	sp, #106954752	; 0x6600000
 6c8:	742f6372 	strtvc	r6, [pc], #-882	; 6d0 <__code_start__-0x7930>
 6cc:	72656d69 	rsbvc	r6, r5, #6720	; 0x1a40
 6d0:	4700632e 	strmi	r6, [r0, -lr, lsr #6]
 6d4:	32335445 	eorscc	r5, r3, #1157627904	; 0x45000000
 6d8:	63697400 	cmnvs	r9, #0, 8
 6dc:	6400736b 	strvs	r7, [r0], #-875	; 0x36b
 6e0:	79616c65 	stmdbvc	r1!, {r0, r2, r5, r6, sl, fp, sp, lr}^
 6e4:	6379635f 	cmnvs	r9, #2080374785	; 0x7c000001
 6e8:	0073656c 	rsbseq	r6, r3, ip, ror #10
 6ec:	616c6564 	cmnvs	ip, r4, ror #10
 6f0:	73755f79 	cmnvc	r5, #484	; 0x1e4
 6f4:	6d697400 	cfstrdvs	mvd7, [r9, #-0]
 6f8:	675f7265 	ldrbvs	r7, [pc, -r5, ror #4]
 6fc:	755f7465 	ldrbvc	r7, [pc, #-1125]	; 29f <__code_start__-0x7d61>
 700:	00636573 	rsbeq	r6, r3, r3, ror r5
 704:	6f73645f 	svcvs	0x0073645f
 708:	6e61685f 	mcrvs	8, 3, r6, cr1, cr15, {2}
 70c:	00656c64 	rsbeq	r6, r5, r4, ror #24
 710:	7a69735f 	bvc	1a5d494 <__bss_end__+0x1a528dc>
 714:	725f0065 	subsvc	r0, pc, #101	; 0x65
 718:	34646e61 	strbtcc	r6, [r4], #-3681	; 0xe61
 71c:	655f0038 	ldrbvs	r0, [pc, #-56]	; 6ec <__code_start__-0x7914>
 720:	6772656d 	ldrbvs	r6, [r2, -sp, ror #10]!
 724:	79636e65 	stmdbvc	r3!, {r0, r2, r5, r6, r9, sl, fp, sp, lr}^
 728:	72617500 	rsbvc	r7, r1, #0, 10
 72c:	6e695f74 	mcrvs	15, 3, r5, cr9, cr4, {3}
 730:	5f007469 	svcpl	0x00007469
 734:	74726377 	ldrbtvc	r6, [r2], #-887	; 0x377
 738:	5f626d6f 	svcpl	0x00626d6f
 73c:	74617473 	strbtvc	r7, [r1], #-1139	; 0x473
 740:	775f0065 	ldrbvc	r0, [pc, -r5, rrx]
 744:	74727363 	ldrbtvc	r7, [r2], #-867	; 0x363
 748:	73626d6f 	cmnvc	r2, #7104	; 0x1bc0
 74c:	6174735f 	cmnvs	r4, pc, asr r3
 750:	5f006574 	svcpl	0x00006574
 754:	7366626c 	cmnvc	r6, #108, 4	; 0xc0000006
 758:	00657a69 	rsbeq	r7, r5, r9, ror #20
 75c:	4f495047 	svcmi	0x00495047
 760:	4e55465f 	mrcmi	6, 2, r4, cr5, cr15, {2}
 764:	4e495f43 	cdpmi	15, 4, cr5, cr9, cr3, {2}
 768:	00545550 	subseq	r5, r4, r0, asr r5
 76c:	72626d5f 	rsbvc	r6, r2, #6080	; 0x17c0
 770:	63776f74 	cmnvs	r7, #116, 30	; 0x1d0
 774:	6174735f 	cmnvs	r4, pc, asr r3
 778:	5f006574 	svcpl	0x00006574
 77c:	6f746377 	svcvs	0x00746377
 780:	735f626d 	cmpvc	pc, #-805306362	; 0xd0000006
 784:	65746174 	ldrbvs	r6, [r4, #-372]!	; 0x174
 788:	745f5f00 	ldrbvc	r5, [pc], #-3840	; 790 <__code_start__-0x7870>
 78c:	65735f6d 	ldrbvs	r5, [r3, #-3949]!	; 0xf6d
 790:	74730063 	ldrbtvc	r0, [r3], #-99	; 0x63
 794:	5f007461 	svcpl	0x00007461
 798:	66756275 			; <UNDEFINED> instruction: 0x66756275
 79c:	49504700 	ldmdbmi	r0, {r8, r9, sl, lr}^
 7a0:	55465f4f 	strbpl	r5, [r6, #-3919]	; 0xf4f
 7a4:	415f434e 	cmpmi	pc, lr, asr #6
 7a8:	0031544c 	eorseq	r5, r1, ip, asr #8
 7ac:	7361625f 	cmnvc	r1, #-268435451	; 0xf0000005
 7b0:	6e630065 	cdpvs	0, 6, cr0, cr3, cr5, {3}
 7b4:	5f006c74 	svcpl	0x00006c74
 7b8:	5f6d745f 	svcpl	0x006d745f
 7bc:	72756f68 	rsbsvc	r6, r5, #104, 30	; 0x1a0
 7c0:	735f5f00 	cmpvc	pc, #0, 30
 7c4:	6f5f0066 	svcvs	0x005f0066
 7c8:	78655f6e 	stmdavc	r5!, {r1, r2, r3, r5, r6, r8, r9, sl, fp, ip, lr}^
 7cc:	615f7469 	cmpvs	pc, r9, ror #8
 7d0:	00736772 	rsbseq	r6, r3, r2, ror r7
 7d4:	6f6f635f 	svcvs	0x006f635f
 7d8:	0065696b 	rsbeq	r6, r5, fp, ror #18
 7dc:	67735f5f 			; <UNDEFINED> instruction: 0x67735f5f
 7e0:	0065756c 	rsbeq	r7, r5, ip, ror #10
 7e4:	616c665f 	cmnvs	ip, pc, asr r6
 7e8:	5f007367 	svcpl	0x00007367
 7ec:	635f7369 	cmpvs	pc, #-1543503871	; 0xa4000001
 7f0:	5f006178 	svcpl	0x00006178
 7f4:	69647473 	stmdbvs	r4!, {r0, r1, r4, r5, r6, sl, ip, sp, lr}^
 7f8:	625f006e 	subsvs	r0, pc, #110	; 0x6e
 7fc:	69736b6c 	ldmdbvs	r3!, {r2, r3, r5, r6, r8, r9, fp, sp, lr}^
 800:	7500657a 	strvc	r6, [r0, #-1402]	; 0x57a
 804:	2e747261 	cdpcs	2, 7, cr7, cr4, cr1, {3}
 808:	75610063 	strbvc	r0, [r1, #-99]!	; 0x63
 80c:	65705f78 	ldrbvs	r5, [r0, #-3960]!	; 0xf78
 810:	68706972 	ldmdavs	r0!, {r1, r4, r5, r6, r8, fp, sp, lr}^
 814:	635f0073 	cmpvs	pc, #115	; 0x73
 818:	75627476 	strbvc	r7, [r2, #-1142]!	; 0x476
 81c:	682f0066 	stmdavs	pc!, {r1, r2, r5, r6}	; <UNPREDICTABLE>
 820:	2f656d6f 	svccs	0x00656d6f
 824:	6c676e65 	stclvs	14, cr6, [r7], #-404	; 0xfffffe6c
 828:	632f7265 	teqvs	pc, #1342177286	; 0x50000006
 82c:	7373616c 	cmnvc	r3, #108, 2
 830:	3273632f 	rsbscc	r6, r3, #-1140850688	; 0xbc000000
 834:	786c3034 	stmdavc	ip!, {r2, r4, r5, ip, sp}^
 838:	7330322d 	teqvc	r0, #-805306366	; 0xd0000002
 83c:	6c2f7270 	sfmvs	f7, 4, [pc], #-448	; 684 <__code_start__-0x797c>
 840:	69706269 	ldmdbvs	r0!, {r0, r3, r5, r6, r9, sp, lr}^
 844:	6174732f 	cmnvs	r4, pc, lsr #6
 848:	702d6666 	eorvc	r6, sp, r6, ror #12
 84c:	61766972 	cmnvs	r6, r2, ror r9
 850:	5f006574 	svcpl	0x00006574
 854:	7273626d 	rsbsvc	r6, r3, #-805306362	; 0xd0000006
 858:	63776f74 	cmnvs	r7, #116, 30	; 0x1d0
 85c:	74735f73 	ldrbtvc	r5, [r3], #-3955	; 0xf73
 860:	00657461 	rsbeq	r7, r5, r1, ror #8
 864:	72626d5f 	rsbvc	r6, r2, #6080	; 0x17c0
 868:	5f6e656c 	svcpl	0x006e656c
 86c:	74617473 	strbtvc	r7, [r1], #-1139	; 0x473
 870:	665f0065 	ldrbvs	r0, [pc], -r5, rrx
 874:	6772616e 	ldrbvs	r6, [r2, -lr, ror #2]!
 878:	75610073 	strbvc	r0, [r1, #-115]!	; 0x73
 87c:	6e655f78 	mcrvs	15, 3, r5, cr5, cr8, {3}
 880:	656c6261 	strbvs	r6, [ip, #-609]!	; 0x261
 884:	665f0073 			; <UNDEFINED> instruction: 0x665f0073
 888:	5f00736e 	svcpl	0x0000736e
 88c:	6e676973 	mcrvs	9, 3, r6, cr7, cr3, {3}
 890:	72617500 	rsbvc	r7, r1, #0, 10
 894:	61635f74 	smcvs	13812	; 0x35f4
 898:	75705f6e 	ldrbvc	r5, [r0, #-3950]!	; 0xf6e
 89c:	5f006374 	svcpl	0x00006374
 8a0:	636f6c66 	cmnvs	pc, #26112	; 0x6600
 8a4:	00745f6b 	rsbseq	r5, r4, fp, ror #30
 8a8:	6474735f 	ldrbtvs	r7, [r4], #-863	; 0x35f
 8ac:	00727265 	rsbseq	r7, r2, r5, ror #4
 8b0:	6769425f 			; <UNDEFINED> instruction: 0x6769425f
 8b4:	00746e69 	rsbseq	r6, r4, r9, ror #28
 8b8:	6d61675f 	stclvs	7, cr6, [r1, #-380]!	; 0xfffffe84
 8bc:	735f616d 	cmpvc	pc, #1073741851	; 0x4000001b
 8c0:	676e6769 	strbvs	r6, [lr, -r9, ror #14]!
 8c4:	5f006d61 	svcpl	0x00006d61
 8c8:	75736572 	ldrbvc	r6, [r3, #-1394]!	; 0x572
 8cc:	6b5f746c 	blvs	17dda84 <__bss_end__+0x17d2ecc>
 8d0:	745f5f00 	ldrbvc	r5, [pc], #-3840	; 8d8 <__code_start__-0x7728>
 8d4:	5f5f006d 	svcpl	0x005f006d
 8d8:	62686377 	rsbvs	r6, r8, #-603979775	; 0xdc000001
 8dc:	72617500 	rsbvc	r7, r1, #0, 10
 8e0:	65675f74 	strbvs	r5, [r7, #-3956]!	; 0xf74
 8e4:	5f006374 	svcpl	0x00006374
 8e8:	6f647473 	svcvs	0x00647473
 8ec:	5f007475 	svcpl	0x00007475
 8f0:	6c747663 	ldclvs	6, cr7, [r4], #-396	; 0xfffffe74
 8f4:	5f006e65 	svcpl	0x00006e65
 8f8:	656c6966 	strbvs	r6, [ip, #-2406]!	; 0x966
 8fc:	696e5f00 	stmdbvs	lr!, {r8, r9, sl, fp, ip, lr}^
 900:	0073626f 	rsbseq	r6, r3, pc, ror #4
 904:	6574615f 	ldrbvs	r6, [r4, #-351]!	; 0x15f
 908:	30746978 	rsbscc	r6, r4, r8, ror r9
 90c:	69735f00 	ldmdbvs	r3!, {r8, r9, sl, fp, ip, lr}^
 910:	6c616e67 	stclvs	14, cr6, [r1], #-412	; 0xfffffe64
 914:	6675625f 			; <UNDEFINED> instruction: 0x6675625f
 918:	73615f00 	cmnvc	r1, #0, 30
 91c:	6d697463 	cfstrdvs	mvd7, [r9, #-396]!	; 0xfffffe74
 920:	75625f65 	strbvc	r5, [r2, #-3941]!	; 0xf65
 924:	65640066 	strbvs	r0, [r4, #-102]!	; 0x66
 928:	61625f76 	smcvs	9718	; 0x25f6
 92c:	65697272 	strbvs	r7, [r9, #-626]!	; 0x272
 930:	725f0072 	subsvc	r0, pc, #114	; 0x72
 934:	6c757365 	ldclvs	3, cr7, [r5], #-404	; 0xfffffe6c
 938:	5f5f0074 	svcpl	0x005f0074
 93c:	00686377 	rsbeq	r6, r8, r7, ror r3
 940:	4f495047 	svcmi	0x00495047
 944:	4e55465f 	mrcmi	6, 2, r4, cr5, cr15, {2}
 948:	4c415f43 	mcrrmi	15, 4, r5, r1, cr3
 94c:	77003254 	smlsdvc	r0, r4, r2, r3
 950:	5f746e69 	svcpl	0x00746e69
 954:	6c5f0074 	mrrcvs	0, 7, r0, pc, cr4	; <UNPREDICTABLE>
 958:	006b636f 	rsbeq	r6, fp, pc, ror #6
 95c:	616c665f 	cmnvs	ip, pc, asr r6
 960:	00327367 	eorseq	r7, r2, r7, ror #6
 964:	6d745f5f 	ldclvs	15, cr5, [r4, #-380]!	; 0xfffffe84
 968:	6165795f 	cmnvs	r5, pc, asr r9
 96c:	6f5f0072 	svcvs	0x005f0072
 970:	65736666 	ldrbvs	r6, [r3, #-1638]!	; 0x666
 974:	70670074 	rsbvc	r0, r7, r4, ror r0
 978:	735f6f69 	cmpvc	pc, #420	; 0x1a4
 97c:	665f7465 	ldrbvs	r7, [pc], -r5, ror #8
 980:	74636e75 	strbtvc	r6, [r3], #-3701	; 0xe75
 984:	006e6f69 	rsbeq	r6, lr, r9, ror #30
 988:	78656e5f 	stmdavc	r5!, {r0, r1, r2, r3, r4, r6, r9, sl, fp, sp, lr}^
 98c:	5f006674 	svcpl	0x00006674
 990:	5f6d745f 	svcpl	0x006d745f
 994:	006e6f6d 	rsbeq	r6, lr, sp, ror #30
 998:	6574615f 	ldrbvs	r6, [r4, #-351]!	; 0x15f
 99c:	00746978 	rsbseq	r6, r4, r8, ror r9
 9a0:	64735f5f 	ldrbtvs	r5, [r3], #-3935	; 0xf5f
 9a4:	6e696469 	cdpvs	4, 6, cr6, cr9, cr9, {3}
 9a8:	5f007469 	svcpl	0x00007469
 9ac:	5f66666f 	svcpl	0x0066666f
 9b0:	61750074 	cmnvs	r5, r4, ror r0
 9b4:	5f007472 	svcpl	0x00007472
 9b8:	65657266 	strbvs	r7, [r5, #-614]!	; 0x266
 9bc:	7473696c 	ldrbtvc	r6, [r3], #-2412	; 0x96c
 9c0:	4f4c5f00 	svcmi	0x004c5f00
 9c4:	525f4b43 	subspl	r4, pc, #68608	; 0x10c00
 9c8:	52554345 	subspl	r4, r5, #335544321	; 0x14000001
 9cc:	45564953 	ldrbmi	r4, [r6, #-2387]	; 0x953
 9d0:	5f00545f 	svcpl	0x0000545f
 9d4:	0077656e 	rsbseq	r6, r7, lr, ror #10
 9d8:	655f685f 	ldrbvs	r6, [pc, #-2143]	; 181 <__code_start__-0x7e7f>
 9dc:	6f6e7272 	svcvs	0x006e7272
 9e0:	745f5f00 	ldrbvc	r5, [pc], #-3840	; 9e8 <__code_start__-0x7618>
 9e4:	64795f6d 	ldrbtvs	r5, [r9], #-3949	; 0xf6d
 9e8:	5f007961 	svcpl	0x00007961
 9ec:	7562735f 	strbvc	r7, [r2, #-863]!	; 0x35f
 9f0:	695f0066 	ldmdbvs	pc, {r1, r2, r5, r6}^	; <UNPREDICTABLE>
 9f4:	0073626f 	rsbseq	r6, r3, pc, ror #4
 9f8:	49465f5f 	stmdbmi	r6, {r0, r1, r2, r3, r4, r6, r8, r9, sl, fp, ip, lr}^
 9fc:	5f00454c 	svcpl	0x0000454c
 a00:	7473626d 	ldrbtvc	r6, [r3], #-621	; 0x26d
 a04:	5f657461 	svcpl	0x00657461
 a08:	5f5f0074 	svcpl	0x005f0074
 a0c:	4c494673 	mcrrmi	6, 7, r4, r9, cr3
 a10:	6d5f0045 	ldclvs	0, cr0, [pc, #-276]	; 904 <__code_start__-0x76fc>
 a14:	61747362 	cmnvs	r4, r2, ror #6
 a18:	5f006574 	svcpl	0x00006574
 a1c:	646e6172 	strbtvs	r6, [lr], #-370	; 0x172
 a20:	78656e5f 	stmdavc	r5!, {r0, r1, r2, r3, r4, r6, r9, sl, fp, sp, lr}^
 a24:	6d5f0074 	ldclvs	0, cr0, [pc, #-464]	; 85c <__code_start__-0x77a4>
 a28:	6e656c62 	cdpvs	12, 6, cr6, cr5, cr2, {3}
 a2c:	6174735f 	cmnvs	r4, pc, asr r3
 a30:	5f006574 	svcpl	0x00006574
 a34:	00636e69 	rsbeq	r6, r3, r9, ror #28
 a38:	646e695f 	strbtvs	r6, [lr], #-2399	; 0x95f
 a3c:	75635f00 	strbvc	r5, [r3, #-3840]!	; 0xf00
 a40:	6e657272 	mcrvs	2, 3, r7, cr5, cr2, {3}
 a44:	6f6c5f74 	svcvs	0x006c5f74
 a48:	656c6163 	strbvs	r6, [ip, #-355]!	; 0x163
 a4c:	635f5f00 	cmpvs	pc, #0, 30
 a50:	6e61656c 	cdpvs	5, 6, cr6, cr1, cr12, {3}
 a54:	5f007075 	svcpl	0x00007075
 a58:	7778616d 	ldrbvc	r6, [r8, -sp, ror #2]!
 a5c:	5f007364 	svcpl	0x00007364
 a60:	6e656572 	mcrvs	5, 3, r6, cr5, cr2, {3}
 a64:	735f0074 	cmpvc	pc, #116	; 0x74
 a68:	00646565 	rsbeq	r6, r4, r5, ror #10
 a6c:	6f635f5f 	svcvs	0x00635f5f
 a70:	00746e75 	rsbseq	r6, r4, r5, ror lr
 a74:	61765f5f 	cmnvs	r6, pc, asr pc
 a78:	0065756c 	rsbeq	r7, r5, ip, ror #10
 a7c:	6565735f 	strbvs	r7, [r5, #-863]!	; 0x35f
 a80:	6162006b 	cmnvs	r2, fp, rrx
 a84:	5f006475 	svcpl	0x00006475
 a88:	736f7066 	cmnvc	pc, #102	; 0x66
 a8c:	5f00745f 	svcpl	0x0000745f
 a90:	5f6d745f 	svcpl	0x006d745f
 a94:	006e696d 	rsbeq	r6, lr, sp, ror #18
 a98:	61726373 	cmnvs	r2, r3, ror r3
 a9c:	00686374 	rsbeq	r6, r8, r4, ror r3
 aa0:	6c756d5f 	ldclvs	13, cr6, [r5], #-380	; 0xfffffe84
 aa4:	75700074 	ldrbvc	r0, [r0, #-116]!	; 0x74
 aa8:	00323374 	eorseq	r3, r2, r4, ror r3
 aac:	20554e47 	subscs	r4, r5, r7, asr #28
 ab0:	20393943 	eorscs	r3, r9, r3, asr #18
 ab4:	2e332e36 	mrccs	14, 1, r2, cr3, cr6, {1}
 ab8:	30322031 	eorscc	r2, r2, r1, lsr r0
 abc:	36303731 			; <UNDEFINED> instruction: 0x36303731
 ac0:	2d203032 	stccs	0, cr3, [r0, #-200]!	; 0xffffff38
 ac4:	7570636d 	ldrbvc	r6, [r0, #-877]!	; 0x36d
 ac8:	6d72613d 	ldfvse	f6, [r2, #-244]!	; 0xffffff0c
 acc:	36373131 			; <UNDEFINED> instruction: 0x36373131
 ad0:	2d667a6a 	vstmdbcs	r6!, {s15-s120}
 ad4:	6d2d2073 	stcvs	0, cr2, [sp, #-460]!	; 0xfffffe34
 ad8:	656e7574 	strbvs	r7, [lr, #-1396]!	; 0x574
 adc:	6d72613d 	ldfvse	f6, [r2, #-244]!	; 0xffffff0c
 ae0:	36373131 			; <UNDEFINED> instruction: 0x36373131
 ae4:	2d667a6a 	vstmdbcs	r6!, {s15-s120}
 ae8:	672d2073 			; <UNDEFINED> instruction: 0x672d2073
 aec:	20626467 	rsbcs	r6, r2, r7, ror #8
 af0:	20674f2d 	rsbcs	r4, r7, sp, lsr #30
 af4:	6474732d 	ldrbtvs	r7, [r4], #-813	; 0x32d
 af8:	756e673d 	strbvc	r6, [lr, #-1853]!	; 0x73d
 afc:	2d203939 	stccs	9, cr3, [r0, #-228]!	; 0xffffff1c
 b00:	65726666 	ldrbvs	r6, [r2, #-1638]!	; 0x666
 b04:	61747365 	cmnvs	r4, r5, ror #6
 b08:	6e69646e 	cdpvs	4, 6, cr6, cr9, cr14, {3}
 b0c:	735f0067 	cmpvc	pc, #103	; 0x67
 b10:	6f747274 	svcvs	0x00747274
 b14:	616c5f6b 	cmnvs	ip, fp, ror #30
 b18:	5f007473 	svcpl	0x00007473
 b1c:	79746e66 	ldmdbvc	r4!, {r1, r2, r5, r6, r9, sl, fp, sp, lr}^
 b20:	00736570 	rsbseq	r6, r3, r0, ror r5
 b24:	6464615f 	strbtvs	r6, [r4], #-351	; 0x15f
 b28:	555f5f00 	ldrbpl	r5, [pc, #-3840]	; fffffc30 <__bss_end__+0xffff5078>
 b2c:	676e6f4c 	strbvs	r6, [lr, -ip, asr #30]!
 b30:	65675f00 	strbvs	r5, [r7, #-3840]!	; 0xf00
 b34:	74616474 	strbtvc	r6, [r1], #-1140	; 0x474
 b38:	72655f65 	rsbvc	r5, r5, #404	; 0x194
 b3c:	675f0072 			; <UNDEFINED> instruction: 0x675f0072
 b40:	61626f6c 	cmnvs	r2, ip, ror #30
 b44:	6d695f6c 	stclvs	15, cr5, [r9, #-432]!	; 0xfffffe50
 b48:	65727570 	ldrbvs	r7, [r2, #-1392]!	; 0x570
 b4c:	7274705f 	rsbsvc	r7, r4, #95	; 0x5f
 b50:	75635f00 	strbvc	r5, [r3, #-3840]!	; 0xf00
 b54:	6e657272 	mcrvs	2, 3, r7, cr5, cr2, {3}
 b58:	61635f74 	smcvs	13812	; 0x35f4
 b5c:	6f676574 	svcvs	0x00676574
 b60:	5f007972 	svcpl	0x00007972
 b64:	73756e75 	cmnvc	r5, #1872	; 0x750
 b68:	725f6465 	subsvc	r6, pc, #1694498816	; 0x65000000
 b6c:	00646e61 	rsbeq	r6, r4, r1, ror #28
 b70:	7364775f 	cmnvc	r4, #24903680	; 0x17c0000
 b74:	745f5f00 	ldrbvc	r5, [pc], #-3840	; b7c <__code_start__-0x7484>
 b78:	64775f6d 	ldrbtvs	r5, [r7], #-3949	; 0xf6d
 b7c:	5f007961 	svcpl	0x00007961
 b80:	65756c67 	ldrbvs	r6, [r5, #-3175]!	; 0xc67
 b84:	49504700 	ldmdbmi	r0, {r8, r9, sl, lr}^
 b88:	55465f4f 	strbpl	r5, [r6, #-3919]	; 0xf4f
 b8c:	4f5f434e 	svcmi	0x005f434e
 b90:	55505455 	ldrbpl	r5, [r0, #-1109]	; 0x455
 b94:	6e5f0054 	mrcvs	0, 2, r0, cr15, cr4, {2}
 b98:	6c6c616d 	stfvse	f6, [ip], #-436	; 0xfffffe4c
 b9c:	5f00636f 	svcpl	0x0000636f
 ba0:	6134366c 	teqvs	r4, ip, ror #12
 ba4:	6675625f 			; <UNDEFINED> instruction: 0x6675625f
 ba8:	74656700 	strbtvc	r6, [r5], #-1792	; 0x700
 bac:	75003233 	strvc	r3, [r0, #-563]	; 0x233
 bb0:	5f747261 	svcpl	0x00747261
 bb4:	5f6e6163 	svcpl	0x006e6163
 bb8:	63746567 	cmnvs	r4, #432013312	; 0x19c00000
 bbc:	69735f00 	ldmdbvs	r3!, {r8, r9, sl, fp, ip, lr}^
 bc0:	75665f67 	strbvc	r5, [r6, #-3943]!	; 0xf67
 bc4:	6f00636e 	svcvs	0x0000636e
 bc8:	6e695f72 	mcrvs	15, 3, r5, cr9, cr2, {3}
 bcc:	75003233 	strvc	r3, [r0, #-563]	; 0x233
 bd0:	5f747261 	svcpl	0x00747261
 bd4:	5f736168 	svcpl	0x00736168
 bd8:	61746164 	cmnvs	r4, r4, ror #2
 bdc:	49504700 	ldmdbmi	r0, {r8, r9, sl, lr}^
 be0:	55465f4f 	strbpl	r5, [r6, #-3919]	; 0xf4f
 be4:	415f434e 	cmpmi	pc, lr, asr #6
 be8:	0030544c 	eorseq	r5, r0, ip, asr #8
 bec:	75626e5f 	strbvc	r6, [r2, #-3679]!	; 0xe5f
 bf0:	755f0066 	ldrbvc	r0, [pc, #-102]	; b92 <__code_start__-0x746e>
 bf4:	6573756e 	ldrbvs	r7, [r3, #-1390]!	; 0x56e
 bf8:	50470064 	subpl	r0, r7, r4, rrx
 bfc:	465f4f49 	ldrbmi	r4, [pc], -r9, asr #30
 c00:	5f434e55 	svcpl	0x00434e55
 c04:	33544c41 	cmpcc	r4, #16640	; 0x4100
 c08:	49504700 	ldmdbmi	r0, {r8, r9, sl, lr}^
 c0c:	55465f4f 	strbpl	r5, [r6, #-3919]	; 0xf4f
 c10:	415f434e 	cmpmi	pc, lr, asr #6
 c14:	0034544c 	eorseq	r5, r4, ip, asr #8
 c18:	4f495047 	svcmi	0x00495047
 c1c:	4e55465f 	mrcmi	6, 2, r4, cr5, cr15, {2}
 c20:	4c415f43 	mcrrmi	15, 4, r5, r1, cr3
 c24:	5f003554 	svcpl	0x00003554
 c28:	5f6d745f 	svcpl	0x006d745f
 c2c:	73647369 	cmnvc	r4, #-1543503871	; 0xa4000001
 c30:	6c5f0074 	mrrcvs	0, 7, r0, pc, cr4	; <UNPREDICTABLE>
 c34:	6c61636f 	stclvs	3, cr6, [r1], #-444	; 0xfffffe44
 c38:	656d6974 	strbvs	r6, [sp, #-2420]!	; 0x974
 c3c:	6675625f 			; <UNDEFINED> instruction: 0x6675625f
 c40:	6c635f00 	stclvs	15, cr5, [r3], #-0
 c44:	0065736f 	rsbeq	r7, r5, pc, ror #6
 c48:	3834725f 	ldmdacc	r4!, {r0, r1, r2, r3, r4, r6, r9, ip, sp, lr}
 c4c:	626d5f00 	rsbvs	r5, sp, #0, 30
 c50:	63776f74 	cmnvs	r7, #116, 30	; 0x1d0
 c54:	6174735f 	cmnvs	r4, pc, asr r3
 c58:	5f006574 	svcpl	0x00006574
 c5c:	00733570 	rsbseq	r3, r3, r0, ror r5
 c60:	6d745f5f 	ldclvs	15, cr5, [r4, #-380]!	; 0xfffffe84
 c64:	61646d5f 	cmnvs	r4, pc, asr sp
 c68:	70670079 	rsbvc	r0, r7, r9, ror r0
 c6c:	735f6f69 	cmpvc	pc, #420	; 0x1a4
 c70:	6f5f7465 	svcvs	0x005f7465
 c74:	62006666 	andvs	r6, r0, #106954752	; 0x6600000
 c78:	006b6e61 	rsbeq	r6, fp, r1, ror #28
 c7c:	6f697067 	svcvs	0x00697067
 c80:	6700632e 	strvs	r6, [r0, -lr, lsr #6]
 c84:	5f6f6970 	svcpl	0x006f6970
 c88:	64616572 	strbtvs	r6, [r1], #-1394	; 0x572
 c8c:	69706700 	ldmdbvs	r0!, {r8, r9, sl, sp, lr}^
 c90:	65735f6f 	ldrbvs	r5, [r3, #-3951]!	; 0xf6f
 c94:	756f5f74 	strbvc	r5, [pc, #-3956]!	; fffffd28 <__bss_end__+0xffff5170>
 c98:	74757074 	ldrbtvc	r7, [r5], #-116	; 0x74
 c9c:	69706700 	ldmdbvs	r0!, {r8, r9, sl, sp, lr}^
 ca0:	72775f6f 	rsbsvc	r5, r7, #444	; 0x1bc
 ca4:	00657469 	rsbeq	r7, r5, r9, ror #8
 ca8:	6f697067 	svcvs	0x00697067
 cac:	7465735f 	strbtvc	r7, [r5], #-863	; 0x35f
 cb0:	70670030 	rsbvc	r0, r7, r0, lsr r0
 cb4:	6c5f6f69 	mrrcvs	15, 6, r6, pc, cr9	; <UNPREDICTABLE>
 cb8:	00307665 	eorseq	r7, r0, r5, ror #12
 cbc:	6f697067 	svcvs	0x00697067
 cc0:	7465735f 	strbtvc	r7, [r5], #-863	; 0x35f
 cc4:	706e695f 	rsbvc	r6, lr, pc, asr r9
 cc8:	67007475 	smlsdxvs	r0, r5, r4, r7
 ccc:	5f6f6970 	svcpl	0x006f6970
 cd0:	5f746573 	svcpl	0x00746573
 cd4:	67006e6f 	strvs	r6, [r0, -pc, ror #28]
 cd8:	5f6f6970 	svcpl	0x006f6970
 cdc:	636e7566 	cmnvs	lr, #427819008	; 0x19800000
 ce0:	6700745f 	smlsdvs	r0, pc, r4, r7	; <UNPREDICTABLE>
 ce4:	5f6f6970 	svcpl	0x006f6970
 ce8:	30726c63 	rsbscc	r6, r2, r3, ror #24
 cec:	616d6b00 	cmnvs	sp, r0, lsl #22
 cf0:	636f6c6c 	cmnvs	pc, #108, 24	; 0x6c00
 cf4:	6b00632e 	blvs	199b4 <__bss_end__+0xedfc>
 cf8:	6c6c616d 	stfvse	f6, [ip], #-436	; 0xfffffe4c
 cfc:	695f636f 	ldmdbvs	pc, {r0, r1, r2, r3, r5, r6, r8, r9, sp, lr}^	; <UNPREDICTABLE>
 d00:	0074696e 	rsbseq	r6, r4, lr, ror #18
 d04:	6c616d6b 	stclvs	13, cr6, [r1], #-428	; 0xfffffe54
 d08:	5f636f6c 	svcpl	0x00636f6c
 d0c:	67696c61 	strbvs	r6, [r9, -r1, ror #24]!
 d10:	0064656e 	rsbeq	r6, r4, lr, ror #10
 d14:	62756f64 	rsbsvs	r6, r5, #100, 30	; 0x190
 d18:	6b00656c 	blvs	1a2d0 <__bss_end__+0xf718>
 d1c:	65657266 	strbvs	r7, [r5, #-614]!	; 0x266
 d20:	6c6c615f 	stfvse	f6, [ip], #-380	; 0xfffffe84
 d24:	72666b00 	rsbvc	r6, r6, #0, 22
 d28:	615f6565 	cmpvs	pc, r5, ror #10
 d2c:	72657466 	rsbvc	r7, r5, #1711276032	; 0x66000000
 d30:	616d6b00 	cmnvs	sp, r0, lsl #22
 d34:	636f6c6c 	cmnvs	pc, #108, 24	; 0x6c00
 d38:	6165685f 	cmnvs	r5, pc, asr r8
 d3c:	74705f70 	ldrbtvc	r5, [r0], #-3952	; 0xf70
 d40:	6c610072 	stclvs	0, cr0, [r1], #-456	; 0xfffffe38
 d44:	6d6e6769 	stclvs	7, cr6, [lr, #-420]!	; 0xfffffe5c
 d48:	00746e65 	rsbseq	r6, r4, r5, ror #28
 d4c:	65685f5f 	strbvs	r5, [r8, #-3935]!	; 0xf5f
 d50:	735f7061 	cmpvc	pc, #97	; 0x61
 d54:	74726174 	ldrbtvc	r6, [r2], #-372	; 0x174
 d58:	6b005f5f 	blvs	18adc <__bss_end__+0xdf24>
 d5c:	6c6c616d 	stfvse	f6, [ip], #-436	; 0xfffffe4c
 d60:	685f636f 	ldmdavs	pc, {r0, r1, r2, r3, r5, r6, r8, r9, sp, lr}^	; <UNPREDICTABLE>
 d64:	5f706165 	svcpl	0x00706165
 d68:	72617473 	rsbvc	r7, r1, #1929379840	; 0x73000000
 d6c:	6d6b0074 	stclvs	0, cr0, [fp, #-464]!	; 0xfffffe30
 d70:	6f6c6c61 	svcvs	0x006c6c61
 d74:	65685f63 	strbvs	r5, [r8, #-3939]!	; 0xf63
 d78:	655f7061 	ldrbvs	r7, [pc, #-97]	; d1f <__code_start__-0x72e1>
 d7c:	Address 0x0000000000000d7c is out of bounds.


Disassembly of section .debug_frame:

00000000 <.debug_frame>:
   0:	0000000c 	andeq	r0, r0, ip
   4:	ffffffff 			; <UNDEFINED> instruction: 0xffffffff
   8:	7c020001 	stcvc	0, cr0, [r2], {1}
   c:	000d0c0e 	andeq	r0, sp, lr, lsl #24
  10:	00000018 	andeq	r0, r0, r8, lsl r0
  14:	00000000 	andeq	r0, r0, r0
  18:	00008010 	andeq	r8, r0, r0, lsl r0
  1c:	00000084 	andeq	r0, r0, r4, lsl #1
  20:	84100e42 	ldrhi	r0, [r0], #-3650	; 0xe42
  24:	86038504 	strhi	r8, [r3], -r4, lsl #10
  28:	00018e02 	andeq	r8, r1, r2, lsl #28
  2c:	00000014 	andeq	r0, r0, r4, lsl r0
  30:	00000000 	andeq	r0, r0, r0
  34:	00008094 	muleq	r0, r4, r0
  38:	00000040 	andeq	r0, r0, r0, asr #32
  3c:	83080e42 	movwhi	r0, #36418	; 0x8e42
  40:	00018e02 	andeq	r8, r1, r2, lsl #28
  44:	0000000c 	andeq	r0, r0, ip
  48:	ffffffff 			; <UNDEFINED> instruction: 0xffffffff
  4c:	7c020001 	stcvc	0, cr0, [r2], {1}
  50:	000d0c0e 	andeq	r0, sp, lr, lsl #24
  54:	0000001c 	andeq	r0, r0, ip, lsl r0
  58:	00000044 	andeq	r0, r0, r4, asr #32
  5c:	000080d4 	ldrdeq	r8, [r0], -r4
  60:	00000100 	andeq	r0, r0, r0, lsl #2
  64:	84180e42 	ldrhi	r0, [r8], #-3650	; 0xe42
  68:	86058506 	strhi	r8, [r5], -r6, lsl #10
  6c:	88038704 	stmdahi	r3, {r2, r8, r9, sl, pc}
  70:	00018e02 	andeq	r8, r1, r2, lsl #28
  74:	00000014 	andeq	r0, r0, r4, lsl r0
  78:	00000044 	andeq	r0, r0, r4, asr #32
  7c:	000081d4 	ldrdeq	r8, [r0], -r4
  80:	00000014 	andeq	r0, r0, r4, lsl r0
  84:	83080e42 	movwhi	r0, #36418	; 0x8e42
  88:	00018e02 	andeq	r8, r1, r2, lsl #28
  8c:	0000001c 	andeq	r0, r0, ip, lsl r0
  90:	00000044 	andeq	r0, r0, r4, asr #32
  94:	000081e8 	andeq	r8, r0, r8, ror #3
  98:	00000048 	andeq	r0, r0, r8, asr #32
  9c:	84180e42 	ldrhi	r0, [r8], #-3650	; 0xe42
  a0:	86058506 	strhi	r8, [r5], -r6, lsl #10
  a4:	88038704 	stmdahi	r3, {r2, r8, r9, sl, pc}
  a8:	00018e02 	andeq	r8, r1, r2, lsl #28
  ac:	00000014 	andeq	r0, r0, r4, lsl r0
  b0:	00000044 	andeq	r0, r0, r4, asr #32
  b4:	00008230 	andeq	r8, r0, r0, lsr r2
  b8:	00000078 	andeq	r0, r0, r8, ror r0
  bc:	84080e42 	strhi	r0, [r8], #-3650	; 0xe42
  c0:	00018e02 	andeq	r8, r1, r2, lsl #28
  c4:	00000014 	andeq	r0, r0, r4, lsl r0
  c8:	00000044 	andeq	r0, r0, r4, asr #32
  cc:	000082a8 	andeq	r8, r0, r8, lsr #5
  d0:	00000070 	andeq	r0, r0, r0, ror r0
  d4:	84080e42 	strhi	r0, [r8], #-3650	; 0xe42
  d8:	00018e02 	andeq	r8, r1, r2, lsl #28
  dc:	00000018 	andeq	r0, r0, r8, lsl r0
  e0:	00000044 	andeq	r0, r0, r4, asr #32
  e4:	00008318 	andeq	r8, r0, r8, lsl r3
  e8:	00000088 	andeq	r0, r0, r8, lsl #1
  ec:	83100e42 	tsthi	r0, #1056	; 0x420
  f0:	85038404 	strhi	r8, [r3, #-1028]	; 0x404
  f4:	00018e02 	andeq	r8, r1, r2, lsl #28
  f8:	0000001c 	andeq	r0, r0, ip, lsl r0
  fc:	00000044 	andeq	r0, r0, r4, asr #32
 100:	000083a0 	andeq	r8, r0, r0, lsr #7
 104:	000000d0 	ldrdeq	r0, [r0], -r0	; <UNPREDICTABLE>
 108:	84180e42 	ldrhi	r0, [r8], #-3650	; 0xe42
 10c:	86058506 	strhi	r8, [r5], -r6, lsl #10
 110:	88038704 	stmdahi	r3, {r2, r8, r9, sl, pc}
 114:	00018e02 	andeq	r8, r1, r2, lsl #28
 118:	00000020 	andeq	r0, r0, r0, lsr #32
 11c:	00000044 	andeq	r0, r0, r4, asr #32
 120:	00008470 	andeq	r8, r0, r0, ror r4
 124:	0000022c 	andeq	r0, r0, ip, lsr #4
 128:	841c0e42 	ldrhi	r0, [ip], #-3650	; 0xe42
 12c:	86068507 	strhi	r8, [r6], -r7, lsl #10
 130:	88048705 	stmdahi	r4, {r0, r2, r8, r9, sl, pc}
 134:	8e028903 	cdphi	9, 0, cr8, cr2, cr3, {0}
 138:	280e4201 	stmdacs	lr, {r0, r9, lr}
 13c:	00000020 	andeq	r0, r0, r0, lsr #32
 140:	00000044 	andeq	r0, r0, r4, asr #32
 144:	0000869c 	muleq	r0, ip, r6
 148:	00000170 	andeq	r0, r0, r0, ror r1
 14c:	83200e42 	teqhi	r0, #1056	; 0x420
 150:	85078408 	strhi	r8, [r7, #-1032]	; 0x408
 154:	87058606 	strhi	r8, [r5, -r6, lsl #12]
 158:	89038804 	stmdbhi	r3, {r2, fp, pc}
 15c:	00018e02 	andeq	r8, r1, r2, lsl #28
 160:	00000014 	andeq	r0, r0, r4, lsl r0
 164:	00000044 	andeq	r0, r0, r4, asr #32
 168:	0000880c 	andeq	r8, r0, ip, lsl #16
 16c:	00000050 	andeq	r0, r0, r0, asr r0
 170:	84080e42 	strhi	r0, [r8], #-3650	; 0xe42
 174:	00018e02 	andeq	r8, r1, r2, lsl #28
 178:	00000014 	andeq	r0, r0, r4, lsl r0
 17c:	00000044 	andeq	r0, r0, r4, asr #32
 180:	0000885c 	andeq	r8, r0, ip, asr r8
 184:	00000098 	muleq	r0, r8, r0
 188:	84080e42 	strhi	r0, [r8], #-3650	; 0xe42
 18c:	00018e02 	andeq	r8, r1, r2, lsl #28
 190:	0000000c 	andeq	r0, r0, ip
 194:	00000044 	andeq	r0, r0, r4, asr #32
 198:	000088f4 	strdeq	r8, [r0], -r4
 19c:	0000001c 	andeq	r0, r0, ip, lsl r0
 1a0:	0000000c 	andeq	r0, r0, ip
 1a4:	ffffffff 			; <UNDEFINED> instruction: 0xffffffff
 1a8:	7c020001 	stcvc	0, cr0, [r2], {1}
 1ac:	000d0c0e 	andeq	r0, sp, lr, lsl #24
 1b0:	0000000c 	andeq	r0, r0, ip
 1b4:	000001a0 	andeq	r0, r0, r0, lsr #3
 1b8:	00008910 	andeq	r8, r0, r0, lsl r9
 1bc:	0000003c 	andeq	r0, r0, ip, lsr r0
 1c0:	00000014 	andeq	r0, r0, r4, lsl r0
 1c4:	000001a0 	andeq	r0, r0, r0, lsr #3
 1c8:	0000894c 	andeq	r8, r0, ip, asr #18
 1cc:	00000078 	andeq	r0, r0, r8, ror r0
 1d0:	84080e42 	strhi	r0, [r8], #-3650	; 0xe42
 1d4:	00018e02 	andeq	r8, r1, r2, lsl #28
 1d8:	00000024 	andeq	r0, r0, r4, lsr #32
 1dc:	000001a0 	andeq	r0, r0, r0, lsr #3
 1e0:	000089c4 	andeq	r8, r0, r4, asr #19
 1e4:	00000134 	andeq	r0, r0, r4, lsr r1
 1e8:	83280e42 	teqhi	r8, #1056	; 0x420
 1ec:	8509840a 	strhi	r8, [r9, #-1034]	; 0x40a
 1f0:	87078608 	strhi	r8, [r7, -r8, lsl #12]
 1f4:	89058806 	stmdbhi	r5, {r1, r2, fp, pc}
 1f8:	8b038a04 	blhi	e2a10 <__bss_end__+0xd7e58>
 1fc:	00018e02 	andeq	r8, r1, r2, lsl #28
 200:	00000018 	andeq	r0, r0, r8, lsl r0
 204:	000001a0 	andeq	r0, r0, r0, lsr #3
 208:	00008af8 	strdeq	r8, [r0], -r8	; <UNPREDICTABLE>
 20c:	000000f8 	strdeq	r0, [r0], -r8
 210:	84100e42 	ldrhi	r0, [r0], #-3650	; 0xe42
 214:	86038504 	strhi	r8, [r3], -r4, lsl #10
 218:	00018e02 	andeq	r8, r1, r2, lsl #28
 21c:	00000018 	andeq	r0, r0, r8, lsl r0
 220:	000001a0 	andeq	r0, r0, r0, lsr #3
 224:	00008bf0 	strdeq	r8, [r0], -r0
 228:	000000f4 	strdeq	r0, [r0], -r4
 22c:	84080e42 	strhi	r0, [r8], #-3650	; 0xe42
 230:	42018e02 	andmi	r8, r1, #2, 28
 234:	0000580e 	andeq	r5, r0, lr, lsl #16
 238:	00000024 	andeq	r0, r0, r4, lsr #32
 23c:	000001a0 	andeq	r0, r0, r0, lsr #3
 240:	00008ce4 	andeq	r8, r0, r4, ror #25
 244:	00000120 	andeq	r0, r0, r0, lsr #2
 248:	84240e42 	strthi	r0, [r4], #-3650	; 0xe42
 24c:	86088509 	strhi	r8, [r8], -r9, lsl #10
 250:	88068707 	stmdahi	r6, {r0, r1, r2, r8, r9, sl, pc}
 254:	8a048905 	bhi	122670 <__bss_end__+0x117ab8>
 258:	8e028b03 	vmlahi.f64	d8, d2, d3
 25c:	380e4201 	stmdacc	lr, {r0, r9, lr}
 260:	00000014 	andeq	r0, r0, r4, lsl r0
 264:	000001a0 	andeq	r0, r0, r0, lsr #3
 268:	00008e04 	andeq	r8, r0, r4, lsl #28
 26c:	00000018 	andeq	r0, r0, r8, lsl r0
 270:	84080e42 	strhi	r0, [r8], #-3650	; 0xe42
 274:	00018e02 	andeq	r8, r1, r2, lsl #28
 278:	00000014 	andeq	r0, r0, r4, lsl r0
 27c:	000001a0 	andeq	r0, r0, r0, lsr #3
 280:	00008e1c 	andeq	r8, r0, ip, lsl lr
 284:	000000a0 	andeq	r0, r0, r0, lsr #1
 288:	83080e42 	movwhi	r0, #36418	; 0x8e42
 28c:	00018e02 	andeq	r8, r1, r2, lsl #28
 290:	00000014 	andeq	r0, r0, r4, lsl r0
 294:	000001a0 	andeq	r0, r0, r0, lsr #3
 298:	00008ebc 			; <UNDEFINED> instruction: 0x00008ebc
 29c:	000000a4 	andeq	r0, r0, r4, lsr #1
 2a0:	84080e42 	strhi	r0, [r8], #-3650	; 0xe42
 2a4:	00018e02 	andeq	r8, r1, r2, lsl #28
 2a8:	00000014 	andeq	r0, r0, r4, lsl r0
 2ac:	000001a0 	andeq	r0, r0, r0, lsr #3
 2b0:	00008f60 	andeq	r8, r0, r0, ror #30
 2b4:	0000002c 	andeq	r0, r0, ip, lsr #32
 2b8:	83080e42 	movwhi	r0, #36418	; 0x8e42
 2bc:	00018e02 	andeq	r8, r1, r2, lsl #28
 2c0:	00000014 	andeq	r0, r0, r4, lsl r0
 2c4:	000001a0 	andeq	r0, r0, r0, lsr #3
 2c8:	00008f8c 	andeq	r8, r0, ip, lsl #31
 2cc:	00000010 	andeq	r0, r0, r0, lsl r0
 2d0:	83080e42 	movwhi	r0, #36418	; 0x8e42
 2d4:	00018e02 	andeq	r8, r1, r2, lsl #28
 2d8:	0000000c 	andeq	r0, r0, ip
 2dc:	ffffffff 			; <UNDEFINED> instruction: 0xffffffff
 2e0:	7c020001 	stcvc	0, cr0, [r2], {1}
 2e4:	000d0c0e 	andeq	r0, sp, lr, lsl #24
 2e8:	00000014 	andeq	r0, r0, r4, lsl r0
 2ec:	000002d8 	ldrdeq	r0, [r0], -r8
 2f0:	00008fa4 	andeq	r8, r0, r4, lsr #31
 2f4:	000000f0 	strdeq	r0, [r0], -r0	; <UNPREDICTABLE>
 2f8:	84040e42 	strhi	r0, [r4], #-3650	; 0xe42
 2fc:	00000001 	andeq	r0, r0, r1
 300:	0000000c 	andeq	r0, r0, ip
 304:	ffffffff 			; <UNDEFINED> instruction: 0xffffffff
 308:	7c020001 	stcvc	0, cr0, [r2], {1}
 30c:	000d0c0e 	andeq	r0, sp, lr, lsl #24
 310:	0000000c 	andeq	r0, r0, ip
 314:	00000300 	andeq	r0, r0, r0, lsl #6
 318:	00009094 	muleq	r0, r4, r0
 31c:	00000020 	andeq	r0, r0, r0, lsr #32
 320:	0000000c 	andeq	r0, r0, ip
 324:	ffffffff 			; <UNDEFINED> instruction: 0xffffffff
 328:	7c020001 	stcvc	0, cr0, [r2], {1}
 32c:	000d0c0e 	andeq	r0, sp, lr, lsl #24
 330:	00000024 	andeq	r0, r0, r4, lsr #32
 334:	00000320 	andeq	r0, r0, r0, lsr #6
 338:	000090b4 	strheq	r9, [r0], -r4
 33c:	00000058 	andeq	r0, r0, r8, asr r0
 340:	80100e42 	andshi	r0, r0, r2, asr #28
 344:	82038104 	andhi	r8, r3, #4, 2
 348:	42018302 	andmi	r8, r1, #134217728	; 0x8000000
 34c:	07841c0e 	streq	r1, [r4, lr, lsl #24]
 350:	058e0685 	streq	r0, [lr, #1669]	; 0x685
 354:	00280e42 	eoreq	r0, r8, r2, asr #28
 358:	0000000c 	andeq	r0, r0, ip
 35c:	ffffffff 			; <UNDEFINED> instruction: 0xffffffff
 360:	7c020001 	stcvc	0, cr0, [r2], {1}
 364:	000d0c0e 	andeq	r0, sp, lr, lsl #24
 368:	00000014 	andeq	r0, r0, r4, lsl r0
 36c:	00000358 	andeq	r0, r0, r8, asr r3
 370:	0000910c 	andeq	r9, r0, ip, lsl #2
 374:	00000014 	andeq	r0, r0, r4, lsl r0
 378:	84080e42 	strhi	r0, [r8], #-3650	; 0xe42
 37c:	00018e02 	andeq	r8, r1, r2, lsl #28
 380:	0000000c 	andeq	r0, r0, ip
 384:	00000358 	andeq	r0, r0, r8, asr r3
 388:	00009120 	andeq	r9, r0, r0, lsr #2
 38c:	00000018 	andeq	r0, r0, r8, lsl r0
 390:	0000000c 	andeq	r0, r0, ip
 394:	00000358 	andeq	r0, r0, r8, asr r3
 398:	00009138 	andeq	r9, r0, r8, lsr r1
 39c:	00000010 	andeq	r0, r0, r0, lsl r0
 3a0:	0000000c 	andeq	r0, r0, ip
 3a4:	ffffffff 			; <UNDEFINED> instruction: 0xffffffff
 3a8:	7c020001 	stcvc	0, cr0, [r2], {1}
 3ac:	000d0c0e 	andeq	r0, sp, lr, lsl #24
 3b0:	00000018 	andeq	r0, r0, r8, lsl r0
 3b4:	000003a0 	andeq	r0, r0, r0, lsr #7
 3b8:	00009148 	andeq	r9, r0, r8, asr #2
 3bc:	00000034 	andeq	r0, r0, r4, lsr r0
 3c0:	83100e42 	tsthi	r0, #1056	; 0x420
 3c4:	85038404 	strhi	r8, [r3, #-1028]	; 0x404
 3c8:	00018e02 	andeq	r8, r1, r2, lsl #28
 3cc:	0000000c 	andeq	r0, r0, ip
 3d0:	ffffffff 			; <UNDEFINED> instruction: 0xffffffff
 3d4:	7c020001 	stcvc	0, cr0, [r2], {1}
 3d8:	000d0c0e 	andeq	r0, sp, lr, lsl #24
 3dc:	0000000c 	andeq	r0, r0, ip
 3e0:	000003cc 	andeq	r0, r0, ip, asr #7
 3e4:	0000917c 	andeq	r9, r0, ip, ror r1
 3e8:	00000014 	andeq	r0, r0, r4, lsl r0
 3ec:	0000000c 	andeq	r0, r0, ip
 3f0:	000003cc 	andeq	r0, r0, ip, asr #7
 3f4:	00009190 	muleq	r0, r0, r1
 3f8:	0000002c 	andeq	r0, r0, ip, lsr #32
 3fc:	0000000c 	andeq	r0, r0, ip
 400:	000003cc 	andeq	r0, r0, ip, asr #7
 404:	000091bc 			; <UNDEFINED> instruction: 0x000091bc
 408:	00000040 	andeq	r0, r0, r0, asr #32
 40c:	00000020 	andeq	r0, r0, r0, lsr #32
 410:	000003cc 	andeq	r0, r0, ip, asr #7
 414:	000091fc 	strdeq	r9, [r0], -ip
 418:	000001b0 			; <UNDEFINED> instruction: 0x000001b0
 41c:	84180e42 	ldrhi	r0, [r8], #-3650	; 0xe42
 420:	86058506 	strhi	r8, [r5], -r6, lsl #10
 424:	88038704 	stmdahi	r3, {r2, r8, r9, sl, pc}
 428:	42018e02 	andmi	r8, r1, #2, 28
 42c:	0000580e 	andeq	r5, r0, lr, lsl #16
 430:	00000014 	andeq	r0, r0, r4, lsl r0
 434:	000003cc 	andeq	r0, r0, ip, asr #7
 438:	000093ac 	andeq	r9, r0, ip, lsr #7
 43c:	00000054 	andeq	r0, r0, r4, asr r0
 440:	83080e42 	movwhi	r0, #36418	; 0x8e42
 444:	00018e02 	andeq	r8, r1, r2, lsl #28
 448:	00000028 	andeq	r0, r0, r8, lsr #32
 44c:	000003cc 	andeq	r0, r0, ip, asr #7
 450:	00009400 	andeq	r9, r0, r0, lsl #8
 454:	00000288 	andeq	r0, r0, r8, lsl #5
 458:	84240e42 	strthi	r0, [r4], #-3650	; 0xe42
 45c:	86088509 	strhi	r8, [r8], -r9, lsl #10
 460:	88068707 	stmdahi	r6, {r0, r1, r2, r8, r9, sl, pc}
 464:	8a048905 	bhi	122880 <__bss_end__+0x117cc8>
 468:	8e028b03 	vmlahi.f64	d8, d2, d3
 46c:	b00e4201 	andlt	r4, lr, r1, lsl #4
 470:	00000001 	andeq	r0, r0, r1
 474:	0000000c 	andeq	r0, r0, ip
 478:	ffffffff 			; <UNDEFINED> instruction: 0xffffffff
 47c:	7c020001 	stcvc	0, cr0, [r2], {1}
 480:	000d0c0e 	andeq	r0, sp, lr, lsl #24
 484:	00000014 	andeq	r0, r0, r4, lsl r0
 488:	00000474 	andeq	r0, r0, r4, ror r4
 48c:	00009688 	andeq	r9, r0, r8, lsl #13
 490:	00000028 	andeq	r0, r0, r8, lsr #32
 494:	83080e42 	movwhi	r0, #36418	; 0x8e42
 498:	00018e02 	andeq	r8, r1, r2, lsl #28
 49c:	0000000c 	andeq	r0, r0, ip
 4a0:	ffffffff 			; <UNDEFINED> instruction: 0xffffffff
 4a4:	7c020001 	stcvc	0, cr0, [r2], {1}
 4a8:	000d0c0e 	andeq	r0, sp, lr, lsl #24
 4ac:	00000014 	andeq	r0, r0, r4, lsl r0
 4b0:	0000049c 	muleq	r0, ip, r4
 4b4:	000096b0 			; <UNDEFINED> instruction: 0x000096b0
 4b8:	00000034 	andeq	r0, r0, r4, lsr r0
 4bc:	83080e42 	movwhi	r0, #36418	; 0x8e42
 4c0:	00018e02 	andeq	r8, r1, r2, lsl #28
 4c4:	0000000c 	andeq	r0, r0, ip
 4c8:	ffffffff 			; <UNDEFINED> instruction: 0xffffffff
 4cc:	7c020001 	stcvc	0, cr0, [r2], {1}
 4d0:	000d0c0e 	andeq	r0, sp, lr, lsl #24
 4d4:	0000000c 	andeq	r0, r0, ip
 4d8:	000004c4 	andeq	r0, r0, r4, asr #9
 4dc:	000096e4 	andeq	r9, r0, r4, ror #13
 4e0:	00000018 	andeq	r0, r0, r8, lsl r0
 4e4:	0000000c 	andeq	r0, r0, ip
 4e8:	000004c4 	andeq	r0, r0, r4, asr #9
 4ec:	000096fc 	strdeq	r9, [r0], -ip
 4f0:	00000014 	andeq	r0, r0, r4, lsl r0
 4f4:	00000014 	andeq	r0, r0, r4, lsl r0
 4f8:	000004c4 	andeq	r0, r0, r4, asr #9
 4fc:	00009710 	andeq	r9, r0, r0, lsl r7
 500:	00000048 	andeq	r0, r0, r8, asr #32
 504:	83080e42 	movwhi	r0, #36418	; 0x8e42
 508:	00018e02 	andeq	r8, r1, r2, lsl #28
 50c:	0000000c 	andeq	r0, r0, ip
 510:	ffffffff 			; <UNDEFINED> instruction: 0xffffffff
 514:	7c020001 	stcvc	0, cr0, [r2], {1}
 518:	000d0c0e 	andeq	r0, sp, lr, lsl #24
 51c:	0000000c 	andeq	r0, r0, ip
 520:	0000050c 	andeq	r0, r0, ip, lsl #10
 524:	00009758 	andeq	r9, r0, r8, asr r7
 528:	0000001c 	andeq	r0, r0, ip, lsl r0
 52c:	00000014 	andeq	r0, r0, r4, lsl r0
 530:	0000050c 	andeq	r0, r0, ip, lsl #10
 534:	00009774 	andeq	r9, r0, r4, ror r7
 538:	00000014 	andeq	r0, r0, r4, lsl r0
 53c:	83080e42 	movwhi	r0, #36418	; 0x8e42
 540:	00018e02 	andeq	r8, r1, r2, lsl #28
 544:	00000014 	andeq	r0, r0, r4, lsl r0
 548:	0000050c 	andeq	r0, r0, ip, lsl #10
 54c:	00009788 	andeq	r9, r0, r8, lsl #15
 550:	0000000c 	andeq	r0, r0, ip
 554:	83080e42 	movwhi	r0, #36418	; 0x8e42
 558:	00018e02 	andeq	r8, r1, r2, lsl #28
 55c:	00000018 	andeq	r0, r0, r8, lsl r0
 560:	0000050c 	andeq	r0, r0, ip, lsl #10
 564:	00009794 	muleq	r0, r4, r7
 568:	00000024 	andeq	r0, r0, r4, lsr #32
 56c:	83100e42 	tsthi	r0, #1056	; 0x420
 570:	85038404 	strhi	r8, [r3, #-1028]	; 0x404
 574:	00018e02 	andeq	r8, r1, r2, lsl #28
 578:	00000014 	andeq	r0, r0, r4, lsl r0
 57c:	0000050c 	andeq	r0, r0, ip, lsl #10
 580:	000097b8 			; <UNDEFINED> instruction: 0x000097b8
 584:	00000014 	andeq	r0, r0, r4, lsl r0
 588:	83080e42 	movwhi	r0, #36418	; 0x8e42
 58c:	00018e02 	andeq	r8, r1, r2, lsl #28
 590:	00000014 	andeq	r0, r0, r4, lsl r0
 594:	0000050c 	andeq	r0, r0, ip, lsl #10
 598:	000097cc 	andeq	r9, r0, ip, asr #15
 59c:	00000014 	andeq	r0, r0, r4, lsl r0
 5a0:	83080e42 	movwhi	r0, #36418	; 0x8e42
 5a4:	00018e02 	andeq	r8, r1, r2, lsl #28
 5a8:	0000000c 	andeq	r0, r0, ip
 5ac:	ffffffff 			; <UNDEFINED> instruction: 0xffffffff
 5b0:	7c020001 	stcvc	0, cr0, [r2], {1}
 5b4:	000d0c0e 	andeq	r0, sp, lr, lsl #24
 5b8:	00000018 	andeq	r0, r0, r8, lsl r0
 5bc:	000005a8 	andeq	r0, r0, r8, lsr #11
 5c0:	0000982c 	andeq	r9, r0, ip, lsr #16
 5c4:	00000020 	andeq	r0, r0, r0, lsr #32
 5c8:	84100e42 	ldrhi	r0, [r0], #-3650	; 0xe42
 5cc:	86038504 	strhi	r8, [r3], -r4, lsl #10
 5d0:	00018e02 	andeq	r8, r1, r2, lsl #28
 5d4:	00000014 	andeq	r0, r0, r4, lsl r0
 5d8:	000005a8 	andeq	r0, r0, r8, lsr #11
 5dc:	0000984c 	andeq	r9, r0, ip, asr #16
 5e0:	000000b0 	strheq	r0, [r0], -r0	; <UNPREDICTABLE>
 5e4:	84080e42 	strhi	r0, [r8], #-3650	; 0xe42
 5e8:	00018e02 	andeq	r8, r1, r2, lsl #28
 5ec:	00000014 	andeq	r0, r0, r4, lsl r0
 5f0:	000005a8 	andeq	r0, r0, r8, lsr #11
 5f4:	000098fc 	strdeq	r9, [r0], -ip
 5f8:	00000018 	andeq	r0, r0, r8, lsl r0
 5fc:	84080e42 	strhi	r0, [r8], #-3650	; 0xe42
 600:	00018e02 	andeq	r8, r1, r2, lsl #28
 604:	00000014 	andeq	r0, r0, r4, lsl r0
 608:	000005a8 	andeq	r0, r0, r8, lsr #11
 60c:	00009914 	andeq	r9, r0, r4, lsl r9
 610:	00000020 	andeq	r0, r0, r0, lsr #32
 614:	84080e42 	strhi	r0, [r8], #-3650	; 0xe42
 618:	00018e02 	andeq	r8, r1, r2, lsl #28
 61c:	00000014 	andeq	r0, r0, r4, lsl r0
 620:	000005a8 	andeq	r0, r0, r8, lsr #11
 624:	00009934 	andeq	r9, r0, r4, lsr r9
 628:	00000030 	andeq	r0, r0, r0, lsr r0
 62c:	84080e42 	strhi	r0, [r8], #-3650	; 0xe42
 630:	00018e02 	andeq	r8, r1, r2, lsl #28
 634:	00000014 	andeq	r0, r0, r4, lsl r0
 638:	000005a8 	andeq	r0, r0, r8, lsr #11
 63c:	00009964 	andeq	r9, r0, r4, ror #18
 640:	00000030 	andeq	r0, r0, r0, lsr r0
 644:	84080e42 	strhi	r0, [r8], #-3650	; 0xe42
 648:	00018e02 	andeq	r8, r1, r2, lsl #28
 64c:	00000014 	andeq	r0, r0, r4, lsl r0
 650:	000005a8 	andeq	r0, r0, r8, lsr #11
 654:	00009994 	muleq	r0, r4, r9
 658:	00000010 	andeq	r0, r0, r0, lsl r0
 65c:	84080e42 	strhi	r0, [r8], #-3650	; 0xe42
 660:	00018e02 	andeq	r8, r1, r2, lsl #28
 664:	0000000c 	andeq	r0, r0, ip
 668:	ffffffff 			; <UNDEFINED> instruction: 0xffffffff
 66c:	7c020001 	stcvc	0, cr0, [r2], {1}
 670:	000d0c0e 	andeq	r0, sp, lr, lsl #24
 674:	00000018 	andeq	r0, r0, r8, lsl r0
 678:	00000664 	andeq	r0, r0, r4, ror #12
 67c:	000099a4 	andeq	r9, r0, r4, lsr #19
 680:	00000068 	andeq	r0, r0, r8, rrx
 684:	84100e4a 	ldrhi	r0, [r0], #-3658	; 0xe4a
 688:	86038504 	strhi	r8, [r3], -r4, lsl #10
 68c:	00018e02 	andeq	r8, r1, r2, lsl #28
 690:	00000014 	andeq	r0, r0, r4, lsl r0
 694:	00000664 	andeq	r0, r0, r4, ror #12
 698:	00009a0c 	andeq	r9, r0, ip, lsl #20
 69c:	00000010 	andeq	r0, r0, r0, lsl r0
 6a0:	84080e42 	strhi	r0, [r8], #-3650	; 0xe42
 6a4:	00018e02 	andeq	r8, r1, r2, lsl #28
 6a8:	00000014 	andeq	r0, r0, r4, lsl r0
 6ac:	00000664 	andeq	r0, r0, r4, ror #12
 6b0:	00009a1c 	andeq	r9, r0, ip, lsl sl
 6b4:	00000024 	andeq	r0, r0, r4, lsr #32
 6b8:	84080e46 	strhi	r0, [r8], #-3654	; 0xe46
 6bc:	00018e02 	andeq	r8, r1, r2, lsl #28
 6c0:	00000014 	andeq	r0, r0, r4, lsl r0
 6c4:	00000664 	andeq	r0, r0, r4, ror #12
 6c8:	00009a40 	andeq	r9, r0, r0, asr #20
 6cc:	00000024 	andeq	r0, r0, r4, lsr #32
 6d0:	84080e46 	strhi	r0, [r8], #-3654	; 0xe46
 6d4:	00018e02 	andeq	r8, r1, r2, lsl #28
 6d8:	00000014 	andeq	r0, r0, r4, lsl r0
 6dc:	00000664 	andeq	r0, r0, r4, ror #12
 6e0:	00009a64 	andeq	r9, r0, r4, ror #20
 6e4:	00000010 	andeq	r0, r0, r0, lsl r0
 6e8:	84080e42 	strhi	r0, [r8], #-3650	; 0xe42
 6ec:	00018e02 	andeq	r8, r1, r2, lsl #28
 6f0:	00000014 	andeq	r0, r0, r4, lsl r0
 6f4:	00000664 	andeq	r0, r0, r4, ror #12
 6f8:	00009a74 	andeq	r9, r0, r4, ror sl
 6fc:	0000001c 	andeq	r0, r0, ip, lsl r0
 700:	84080e42 	strhi	r0, [r8], #-3650	; 0xe42
 704:	00018e02 	andeq	r8, r1, r2, lsl #28
 708:	00000018 	andeq	r0, r0, r8, lsl r0
 70c:	00000664 	andeq	r0, r0, r4, ror #12
 710:	00009a90 	muleq	r0, r0, sl
 714:	00000034 	andeq	r0, r0, r4, lsr r0
 718:	84080e46 	strhi	r0, [r8], #-3654	; 0xe46
 71c:	4e018e02 	cdpmi	14, 0, cr8, cr1, cr2, {0}
 720:	cec4000e 	cdpgt	0, 12, cr0, cr4, cr14, {0}
 724:	0000000c 	andeq	r0, r0, ip
 728:	ffffffff 			; <UNDEFINED> instruction: 0xffffffff
 72c:	7c020001 	stcvc	0, cr0, [r2], {1}
 730:	000d0c0e 	andeq	r0, sp, lr, lsl #24
 734:	0000000c 	andeq	r0, r0, ip
 738:	00000724 	andeq	r0, r0, r4, lsr #14
 73c:	00009ac4 	andeq	r9, r0, r4, asr #21
 740:	00000010 	andeq	r0, r0, r0, lsl r0
 744:	0000000c 	andeq	r0, r0, ip
 748:	00000724 	andeq	r0, r0, r4, lsr #14
 74c:	00009ad4 	ldrdeq	r9, [r0], -r4
 750:	0000000c 	andeq	r0, r0, ip
 754:	00000014 	andeq	r0, r0, r4, lsl r0
 758:	00000724 	andeq	r0, r0, r4, lsr #14
 75c:	00009ae0 	andeq	r9, r0, r0, ror #21
 760:	00000050 	andeq	r0, r0, r0, asr r0
 764:	84080e52 	strhi	r0, [r8], #-3666	; 0xe52
 768:	00018e02 	andeq	r8, r1, r2, lsl #28
 76c:	00000014 	andeq	r0, r0, r4, lsl r0
 770:	00000724 	andeq	r0, r0, r4, lsr #14
 774:	00009b30 	andeq	r9, r0, r0, lsr fp
 778:	00000064 	andeq	r0, r0, r4, rrx
 77c:	84080e42 	strhi	r0, [r8], #-3650	; 0xe42
 780:	00018e02 	andeq	r8, r1, r2, lsl #28
 784:	0000000c 	andeq	r0, r0, ip
 788:	00000724 	andeq	r0, r0, r4, lsr #14
 78c:	00009b94 	muleq	r0, r4, fp
 790:	00000004 	andeq	r0, r0, r4
 794:	00000014 	andeq	r0, r0, r4, lsl r0
 798:	00000724 	andeq	r0, r0, r4, lsr #14
 79c:	00009b98 	muleq	r0, r8, fp
 7a0:	0000000c 	andeq	r0, r0, ip
 7a4:	84080e42 	strhi	r0, [r8], #-3650	; 0xe42
 7a8:	00018e02 	andeq	r8, r1, r2, lsl #28
 7ac:	00000014 	andeq	r0, r0, r4, lsl r0
 7b0:	00000724 	andeq	r0, r0, r4, lsr #14
 7b4:	00009ba4 	andeq	r9, r0, r4, lsr #23
 7b8:	0000008c 	andeq	r0, r0, ip, lsl #1
 7bc:	84080e42 	strhi	r0, [r8], #-3650	; 0xe42
 7c0:	00018e02 	andeq	r8, r1, r2, lsl #28
 7c4:	0000000c 	andeq	r0, r0, ip
 7c8:	00000724 	andeq	r0, r0, r4, lsr #14
 7cc:	00009c30 	andeq	r9, r0, r0, lsr ip
 7d0:	00000004 	andeq	r0, r0, r4
 7d4:	0000000c 	andeq	r0, r0, ip
 7d8:	00000724 	andeq	r0, r0, r4, lsr #14
 7dc:	00009c34 	andeq	r9, r0, r4, lsr ip
 7e0:	00000014 	andeq	r0, r0, r4, lsl r0
 7e4:	0000000c 	andeq	r0, r0, ip
 7e8:	00000724 	andeq	r0, r0, r4, lsr #14
 7ec:	00009c48 	andeq	r9, r0, r8, asr #24
 7f0:	00000010 	andeq	r0, r0, r0, lsl r0

Disassembly of section .debug_ranges:

00000000 <.debug_ranges>:
   0:	0000060c 	andeq	r0, r0, ip, lsl #12
   4:	00000614 	andeq	r0, r0, r4, lsl r6
   8:	00000618 	andeq	r0, r0, r8, lsl r6
   c:	000006c4 	andeq	r0, r0, r4, asr #13
	...
  18:	00000358 	andeq	r0, r0, r8, asr r3
  1c:	0000036c 	andeq	r0, r0, ip, ror #6
  20:	00000370 	andeq	r0, r0, r0, ror r3
  24:	0000037c 	andeq	r0, r0, ip, ror r3
	...
  30:	00000400 	andeq	r0, r0, r0, lsl #8
  34:	0000040c 	andeq	r0, r0, ip, lsl #8
  38:	00000428 	andeq	r0, r0, r8, lsr #8
  3c:	00000460 	andeq	r0, r0, r0, ror #8
	...
  48:	000002a8 	andeq	r0, r0, r8, lsr #5
  4c:	000002ac 	andeq	r0, r0, ip, lsr #5
  50:	000002dc 	ldrdeq	r0, [r0], -ip
  54:	000004cc 	andeq	r0, r0, ip, asr #9
	...
  60:	000096e4 	andeq	r9, r0, r4, ror #13
  64:	00009758 	andeq	r9, r0, r8, asr r7
	...
