
tests/part2-test3.elf:     file format elf32-littlearm


Disassembly of section .text:

00008000 <_start>:
    8000:	e3a0d302 	mov	sp, #134217728	; 0x8000000
    8004:	e3a0b000 	mov	fp, #0
    8008:	eb00050c 	bl	9440 <_cstart>
    800c:	eb000523 	bl	94a0 <rpi_reboot>

00008010 <test>:
    8010:	e92d4ff8 	push	{r3, r4, r5, r6, r7, r8, r9, sl, fp, lr}
    8014:	e3a05000 	mov	r5, #0
    8018:	e1a06005 	mov	r6, r5
    801c:	e59fb058 	ldr	fp, [pc, #88]	; 807c <test+0x6c>
    8020:	e59fa058 	ldr	sl, [pc, #88]	; 8080 <test+0x70>
    8024:	e3a08008 	mov	r8, #8
    8028:	e3a09012 	mov	r9, #18
    802c:	e1a07005 	mov	r7, r5
    8030:	ea00000c 	b	8068 <test+0x58>
    8034:	e1a00008 	mov	r0, r8
    8038:	e1a0100b 	mov	r1, fp
    803c:	e1a0200a 	mov	r2, sl
    8040:	e1a03009 	mov	r3, r9
    8044:	eb0000f2 	bl	8414 <ckalloc>
    8048:	e1a04000 	mov	r4, r0
    804c:	e1a01007 	mov	r1, r7
    8050:	e1a02008 	mov	r2, r8
    8054:	eb000372 	bl	8e24 <memset>
    8058:	e5847000 	str	r7, [r4]
    805c:	e5846004 	str	r6, [r4, #4]
    8060:	e2855001 	add	r5, r5, #1
    8064:	e1a06004 	mov	r6, r4
    8068:	e3550063 	cmp	r5, #99	; 0x63
    806c:	dafffff0 	ble	8034 <test+0x24>
    8070:	eb0002c2 	bl	8b80 <check_no_leak>
    8074:	e1a00006 	mov	r0, r6
    8078:	e8bd8ff8 	pop	{r3, r4, r5, r6, r7, r8, r9, sl, fp, pc}
    807c:	00009a18 	andeq	r9, r0, r8, lsl sl
    8080:	00009a10 	andeq	r9, r0, r0, lsl sl

00008084 <notmain>:
    8084:	e92d4008 	push	{r3, lr}
    8088:	e59f002c 	ldr	r0, [pc, #44]	; 80bc <notmain+0x38>
    808c:	eb00036c 	bl	8e44 <printk>
    8090:	e3a00601 	mov	r0, #1048576	; 0x100000
    8094:	eb0005f5 	bl	9870 <kmalloc_init_set_start>
    8098:	e3a00601 	mov	r0, #1048576	; 0x100000
    809c:	eb000607 	bl	98c0 <kmalloc>
    80a0:	e3a01601 	mov	r1, #1048576	; 0x100000
    80a4:	eb00008e 	bl	82e4 <ck_init>
    80a8:	ebffffd8 	bl	8010 <test>
    80ac:	e1a01000 	mov	r1, r0
    80b0:	e59f0008 	ldr	r0, [pc, #8]	; 80c0 <notmain+0x3c>
    80b4:	eb000362 	bl	8e44 <printk>
    80b8:	e8bd8008 	pop	{r3, pc}
    80bc:	00009a2c 	andeq	r9, r0, ip, lsr #20
    80c0:	00009a70 	andeq	r9, r0, r0, ror sl

000080c4 <check_mem>:
    80c4:	e92d40f8 	push	{r3, r4, r5, r6, r7, lr}
    80c8:	e1a05000 	mov	r5, r0
    80cc:	e3a03000 	mov	r3, #0
    80d0:	ea00002d 	b	818c <check_mem+0xc8>
    80d4:	e0814003 	add	r4, r1, r3
    80d8:	e7d1c003 	ldrb	ip, [r1, r3]
    80dc:	e35c00fe 	cmp	ip, #254	; 0xfe
    80e0:	0a000028 	beq	8188 <check_mem+0xc4>
    80e4:	e28570b8 	add	r7, r5, #184	; 0xb8
    80e8:	e0674004 	rsb	r4, r7, r4
    80ec:	e59f60b8 	ldr	r6, [pc, #184]	; 81ac <check_mem+0xe8>
    80f0:	e1a00006 	mov	r0, r6
    80f4:	eb000352 	bl	8e44 <printk>
    80f8:	e59f00b0 	ldr	r0, [pc, #176]	; 81b0 <check_mem+0xec>
    80fc:	eb000350 	bl	8e44 <printk>
    8100:	e59f00ac 	ldr	r0, [pc, #172]	; 81b4 <check_mem+0xf0>
    8104:	e1a01007 	mov	r1, r7
    8108:	e1a02004 	mov	r2, r4
    810c:	eb00034c 	bl	8e44 <printk>
    8110:	e1a00006 	mov	r0, r6
    8114:	eb00034a 	bl	8e44 <printk>
    8118:	e59f0098 	ldr	r0, [pc, #152]	; 81b8 <check_mem+0xf4>
    811c:	e5951000 	ldr	r1, [r5]
    8120:	eb000347 	bl	8e44 <printk>
    8124:	e5953010 	ldr	r3, [r5, #16]
    8128:	e3530000 	cmp	r3, #0
    812c:	0a000006 	beq	814c <check_mem+0x88>
    8130:	e1a00006 	mov	r0, r6
    8134:	eb000342 	bl	8e44 <printk>
    8138:	e59f007c 	ldr	r0, [pc, #124]	; 81bc <check_mem+0xf8>
    813c:	e5951010 	ldr	r1, [r5, #16]
    8140:	e5952014 	ldr	r2, [r5, #20]
    8144:	e5953018 	ldr	r3, [r5, #24]
    8148:	eb00033d 	bl	8e44 <printk>
    814c:	e5953008 	ldr	r3, [r5, #8]
    8150:	e353000c 	cmp	r3, #12
    8154:	1a000010 	bne	819c <check_mem+0xd8>
    8158:	e595301c 	ldr	r3, [r5, #28]
    815c:	e3530000 	cmp	r3, #0
    8160:	0a00000f 	beq	81a4 <check_mem+0xe0>
    8164:	e59f0040 	ldr	r0, [pc, #64]	; 81ac <check_mem+0xe8>
    8168:	eb000335 	bl	8e44 <printk>
    816c:	e59f004c 	ldr	r0, [pc, #76]	; 81c0 <check_mem+0xfc>
    8170:	e595101c 	ldr	r1, [r5, #28]
    8174:	e5952020 	ldr	r2, [r5, #32]
    8178:	e5953024 	ldr	r3, [r5, #36]	; 0x24
    817c:	eb000330 	bl	8e44 <printk>
    8180:	e3a00000 	mov	r0, #0
    8184:	e8bd80f8 	pop	{r3, r4, r5, r6, r7, pc}
    8188:	e2833001 	add	r3, r3, #1
    818c:	e1530002 	cmp	r3, r2
    8190:	3affffcf 	bcc	80d4 <check_mem+0x10>
    8194:	e3a00001 	mov	r0, #1
    8198:	e8bd80f8 	pop	{r3, r4, r5, r6, r7, pc}
    819c:	e3a00000 	mov	r0, #0
    81a0:	e8bd80f8 	pop	{r3, r4, r5, r6, r7, pc}
    81a4:	e3a00000 	mov	r0, #0
    81a8:	e8bd80f8 	pop	{r3, r4, r5, r6, r7, pc}
    81ac:	00009ac0 	andeq	r9, r0, r0, asr #21
    81b0:	00009ac8 	andeq	r9, r0, r8, asr #21
    81b4:	00009ad0 	ldrdeq	r9, [r0], -r0
    81b8:	00009af4 	strdeq	r9, [r0], -r4
    81bc:	00009b00 	andeq	r9, r0, r0, lsl #22
    81c0:	00009b20 	andeq	r9, r0, r0, lsr #22

000081c4 <mark_mem>:
    81c4:	e92d4008 	push	{r3, lr}
    81c8:	e1a02001 	mov	r2, r1
    81cc:	e3a010fe 	mov	r1, #254	; 0xfe
    81d0:	eb000313 	bl	8e24 <memset>
    81d4:	e8bd8008 	pop	{r3, pc}

000081d8 <hdr_cksum>:
    81d8:	e92d4038 	push	{r3, r4, r5, lr}
    81dc:	e1a04000 	mov	r4, r0
    81e0:	e590500c 	ldr	r5, [r0, #12]
    81e4:	e3a03000 	mov	r3, #0
    81e8:	e580300c 	str	r3, [r0, #12]
    81ec:	e3a01038 	mov	r1, #56	; 0x38
    81f0:	eb0002cf 	bl	8d34 <fast_hash>
    81f4:	e584500c 	str	r5, [r4, #12]
    81f8:	e8bd8038 	pop	{r3, r4, r5, pc}

000081fc <check_hdr>:
    81fc:	e92d4010 	push	{r4, lr}
    8200:	e1a04000 	mov	r4, r0
    8204:	ebfffff3 	bl	81d8 <hdr_cksum>
    8208:	e594300c 	ldr	r3, [r4, #12]
    820c:	e1530000 	cmp	r3, r0
    8210:	0a000006 	beq	8230 <check_hdr+0x34>
    8214:	eb000325 	bl	8eb0 <rpi_reset_putc>
    8218:	e59f0044 	ldr	r0, [pc, #68]	; 8264 <check_hdr+0x68>
    821c:	e59f1044 	ldr	r1, [pc, #68]	; 8268 <check_hdr+0x6c>
    8220:	e59f2044 	ldr	r2, [pc, #68]	; 826c <check_hdr+0x70>
    8224:	e3a03021 	mov	r3, #33	; 0x21
    8228:	eb000305 	bl	8e44 <printk>
    822c:	eb000479 	bl	9418 <clean_reboot>
    8230:	e5943008 	ldr	r3, [r4, #8]
    8234:	e243300b 	sub	r3, r3, #11
    8238:	e3530001 	cmp	r3, #1
    823c:	9a000006 	bls	825c <check_hdr+0x60>
    8240:	eb00031a 	bl	8eb0 <rpi_reset_putc>
    8244:	e59f0024 	ldr	r0, [pc, #36]	; 8270 <check_hdr+0x74>
    8248:	e59f1018 	ldr	r1, [pc, #24]	; 8268 <check_hdr+0x6c>
    824c:	e59f2018 	ldr	r2, [pc, #24]	; 826c <check_hdr+0x70>
    8250:	e3a03022 	mov	r3, #34	; 0x22
    8254:	eb0002fa 	bl	8e44 <printk>
    8258:	eb00046e 	bl	9418 <clean_reboot>
    825c:	e3a00001 	mov	r0, #1
    8260:	e8bd8010 	pop	{r4, pc}
    8264:	00009b3c 	andeq	r9, r0, ip, lsr fp
    8268:	00009b68 	andeq	r9, r0, r8, ror #22
    826c:	00009a80 	andeq	r9, r0, r0, lsl #21
    8270:	00009b74 	andeq	r9, r0, r4, ror fp

00008274 <check_block>:
    8274:	e92d4010 	push	{r4, lr}
    8278:	e1a04000 	mov	r4, r0
    827c:	ebffffde 	bl	81fc <check_hdr>
    8280:	e3500000 	cmp	r0, #0
    8284:	0a000010 	beq	82cc <check_block+0x58>
    8288:	e1a00004 	mov	r0, r4
    828c:	e2841038 	add	r1, r4, #56	; 0x38
    8290:	e3a02080 	mov	r2, #128	; 0x80
    8294:	ebffff8a 	bl	80c4 <check_mem>
    8298:	e3500000 	cmp	r0, #0
    829c:	0a00000c 	beq	82d4 <check_block+0x60>
    82a0:	e28410b8 	add	r1, r4, #184	; 0xb8
    82a4:	e5943000 	ldr	r3, [r4]
    82a8:	e5942004 	ldr	r2, [r4, #4]
    82ac:	e1a00004 	mov	r0, r4
    82b0:	e0811003 	add	r1, r1, r3
    82b4:	e2822080 	add	r2, r2, #128	; 0x80
    82b8:	ebffff81 	bl	80c4 <check_mem>
    82bc:	e3500000 	cmp	r0, #0
    82c0:	0a000005 	beq	82dc <check_block+0x68>
    82c4:	e3a00001 	mov	r0, #1
    82c8:	e8bd8010 	pop	{r4, pc}
    82cc:	e3a00000 	mov	r0, #0
    82d0:	e8bd8010 	pop	{r4, pc}
    82d4:	e3a00000 	mov	r0, #0
    82d8:	e8bd8010 	pop	{r4, pc}
    82dc:	e3a00000 	mov	r0, #0
    82e0:	e8bd8010 	pop	{r4, pc}

000082e4 <ck_init>:
    82e4:	e92d4038 	push	{r3, r4, r5, lr}
    82e8:	e1a04000 	mov	r4, r0
    82ec:	e1a05001 	mov	r5, r1
    82f0:	e59f304c 	ldr	r3, [pc, #76]	; 8344 <ck_init+0x60>
    82f4:	e5933000 	ldr	r3, [r3]
    82f8:	e3130007 	tst	r3, #7
    82fc:	0a000006 	beq	831c <ck_init+0x38>
    8300:	eb0002ea 	bl	8eb0 <rpi_reset_putc>
    8304:	e59f003c 	ldr	r0, [pc, #60]	; 8348 <ck_init+0x64>
    8308:	e59f103c 	ldr	r1, [pc, #60]	; 834c <ck_init+0x68>
    830c:	e59f203c 	ldr	r2, [pc, #60]	; 8350 <ck_init+0x6c>
    8310:	e3a0300b 	mov	r3, #11
    8314:	eb0002ca 	bl	8e44 <printk>
    8318:	eb00043e 	bl	9418 <clean_reboot>
    831c:	e59f0030 	ldr	r0, [pc, #48]	; 8354 <ck_init+0x70>
    8320:	e3a01038 	mov	r1, #56	; 0x38
    8324:	e3a02080 	mov	r2, #128	; 0x80
    8328:	eb0002c5 	bl	8e44 <printk>
    832c:	e59f3010 	ldr	r3, [pc, #16]	; 8344 <ck_init+0x60>
    8330:	e5834000 	str	r4, [r3]
    8334:	e5834004 	str	r4, [r3, #4]
    8338:	e0844005 	add	r4, r4, r5
    833c:	e5834008 	str	r4, [r3, #8]
    8340:	e8bd8038 	pop	{r3, r4, r5, pc}
    8344:	0000a3b0 			; <UNDEFINED> instruction: 0x0000a3b0
    8348:	00009bb0 			; <UNDEFINED> instruction: 0x00009bb0
    834c:	00009b68 	andeq	r9, r0, r8, ror #22
    8350:	00009a8c 	andeq	r9, r0, ip, lsl #21
    8354:	00009bd8 	ldrdeq	r9, [r0], -r8

00008358 <ckfree>:
    8358:	e92d41f0 	push	{r4, r5, r6, r7, r8, lr}
    835c:	e1a04000 	mov	r4, r0
    8360:	e1a08001 	mov	r8, r1
    8364:	e1a07002 	mov	r7, r2
    8368:	e1a06003 	mov	r6, r3
    836c:	e59f0088 	ldr	r0, [pc, #136]	; 83fc <ckfree+0xa4>
    8370:	e5900004 	ldr	r0, [r0, #4]
    8374:	e3500000 	cmp	r0, #0
    8378:	1a000006 	bne	8398 <ckfree+0x40>
    837c:	eb0002cb 	bl	8eb0 <rpi_reset_putc>
    8380:	e59f0078 	ldr	r0, [pc, #120]	; 8400 <ckfree+0xa8>
    8384:	e59f1078 	ldr	r1, [pc, #120]	; 8404 <ckfree+0xac>
    8388:	e59f2078 	ldr	r2, [pc, #120]	; 8408 <ckfree+0xb0>
    838c:	e3a0304a 	mov	r3, #74	; 0x4a
    8390:	eb0002ab 	bl	8e44 <printk>
    8394:	eb00041f 	bl	9418 <clean_reboot>
    8398:	e59f006c 	ldr	r0, [pc, #108]	; 840c <ckfree+0xb4>
    839c:	eb0002a8 	bl	8e44 <printk>
    83a0:	e59f0068 	ldr	r0, [pc, #104]	; 8410 <ckfree+0xb8>
    83a4:	e1a01004 	mov	r1, r4
    83a8:	eb0002a5 	bl	8e44 <printk>
    83ac:	e24450b8 	sub	r5, r4, #184	; 0xb8
    83b0:	e1a00005 	mov	r0, r5
    83b4:	ebffffae 	bl	8274 <check_block>
    83b8:	e3500000 	cmp	r0, #0
    83bc:	08bd81f0 	popeq	{r4, r5, r6, r7, r8, pc}
    83c0:	e51430b0 	ldr	r3, [r4, #-176]	; 0xb0
    83c4:	e353000c 	cmp	r3, #12
    83c8:	08bd81f0 	popeq	{r4, r5, r6, r7, r8, pc}
    83cc:	e3a0300c 	mov	r3, #12
    83d0:	e50430b0 	str	r3, [r4, #-176]	; 0xb0
    83d4:	e1a00004 	mov	r0, r4
    83d8:	e51410b8 	ldr	r1, [r4, #-184]	; 0xb8
    83dc:	ebffff78 	bl	81c4 <mark_mem>
    83e0:	e504809c 	str	r8, [r4, #-156]	; 0x9c
    83e4:	e5047098 	str	r7, [r4, #-152]	; 0x98
    83e8:	e5046094 	str	r6, [r4, #-148]	; 0x94
    83ec:	e1a00005 	mov	r0, r5
    83f0:	ebffff78 	bl	81d8 <hdr_cksum>
    83f4:	e50400ac 	str	r0, [r4, #-172]	; 0xac
    83f8:	e8bd81f0 	pop	{r4, r5, r6, r7, r8, pc}
    83fc:	0000a3b0 			; <UNDEFINED> instruction: 0x0000a3b0
    8400:	00009bf4 	strdeq	r9, [r0], -r4
    8404:	00009b68 	andeq	r9, r0, r8, ror #22
    8408:	00009a94 	muleq	r0, r4, sl
    840c:	00009ac0 	andeq	r9, r0, r0, asr #21
    8410:	00009c28 	andeq	r9, r0, r8, lsr #24

00008414 <ckalloc>:
    8414:	e92d43f0 	push	{r4, r5, r6, r7, r8, r9, lr}
    8418:	e24dd00c 	sub	sp, sp, #12
    841c:	e1a05000 	mov	r5, r0
    8420:	e1a09001 	mov	r9, r1
    8424:	e1a08002 	mov	r8, r2
    8428:	e1a07003 	mov	r7, r3
    842c:	e59f31dc 	ldr	r3, [pc, #476]	; 8610 <ckalloc+0x1fc>
    8430:	e5933004 	ldr	r3, [r3, #4]
    8434:	e3530000 	cmp	r3, #0
    8438:	1a000006 	bne	8458 <ckalloc+0x44>
    843c:	eb00029b 	bl	8eb0 <rpi_reset_putc>
    8440:	e59f01cc 	ldr	r0, [pc, #460]	; 8614 <ckalloc+0x200>
    8444:	e59f11cc 	ldr	r1, [pc, #460]	; 8618 <ckalloc+0x204>
    8448:	e59f21cc 	ldr	r2, [pc, #460]	; 861c <ckalloc+0x208>
    844c:	e3a03066 	mov	r3, #102	; 0x66
    8450:	eb00027b 	bl	8e44 <printk>
    8454:	eb0003ef 	bl	9418 <clean_reboot>
    8458:	e59f01c0 	ldr	r0, [pc, #448]	; 8620 <ckalloc+0x20c>
    845c:	eb000278 	bl	8e44 <printk>
    8460:	e59f01bc 	ldr	r0, [pc, #444]	; 8624 <ckalloc+0x210>
    8464:	e1a01005 	mov	r1, r5
    8468:	eb000275 	bl	8e44 <printk>
    846c:	e285c007 	add	ip, r5, #7
    8470:	e3ccc007 	bic	ip, ip, #7
    8474:	e28c6f4e 	add	r6, ip, #312	; 0x138
    8478:	e1560005 	cmp	r6, r5
    847c:	2a00000c 	bcs	84b4 <ckalloc+0xa0>
    8480:	e59f01a0 	ldr	r0, [pc, #416]	; 8628 <ckalloc+0x214>
    8484:	eb00026e 	bl	8e44 <printk>
    8488:	e59f019c 	ldr	r0, [pc, #412]	; 862c <ckalloc+0x218>
    848c:	e1a01005 	mov	r1, r5
    8490:	eb00026b 	bl	8e44 <printk>
    8494:	eb000285 	bl	8eb0 <rpi_reset_putc>
    8498:	e58d5000 	str	r5, [sp]
    849c:	e59f018c 	ldr	r0, [pc, #396]	; 8630 <ckalloc+0x21c>
    84a0:	e59f1170 	ldr	r1, [pc, #368]	; 8618 <ckalloc+0x204>
    84a4:	e59f2170 	ldr	r2, [pc, #368]	; 861c <ckalloc+0x208>
    84a8:	e3a0306e 	mov	r3, #110	; 0x6e
    84ac:	eb000264 	bl	8e44 <printk>
    84b0:	eb0003d8 	bl	9418 <clean_reboot>
    84b4:	e59f0154 	ldr	r0, [pc, #340]	; 8610 <ckalloc+0x1fc>
    84b8:	e5904004 	ldr	r4, [r0, #4]
    84bc:	e0842006 	add	r2, r4, r6
    84c0:	e5903008 	ldr	r3, [r0, #8]
    84c4:	e1520003 	cmp	r2, r3
    84c8:	3a000014 	bcc	8520 <ckalloc+0x10c>
    84cc:	e59f0154 	ldr	r0, [pc, #340]	; 8628 <ckalloc+0x214>
    84d0:	eb00025b 	bl	8e44 <printk>
    84d4:	e59f4134 	ldr	r4, [pc, #308]	; 8610 <ckalloc+0x1fc>
    84d8:	e5941008 	ldr	r1, [r4, #8]
    84dc:	e5943004 	ldr	r3, [r4, #4]
    84e0:	e59f014c 	ldr	r0, [pc, #332]	; 8634 <ckalloc+0x220>
    84e4:	e0631001 	rsb	r1, r3, r1
    84e8:	e1a02006 	mov	r2, r6
    84ec:	eb000254 	bl	8e44 <printk>
    84f0:	eb00026e 	bl	8eb0 <rpi_reset_putc>
    84f4:	e5942008 	ldr	r2, [r4, #8]
    84f8:	e5943004 	ldr	r3, [r4, #4]
    84fc:	e0633002 	rsb	r3, r3, r2
    8500:	e58d3000 	str	r3, [sp]
    8504:	e58d6004 	str	r6, [sp, #4]
    8508:	e59f0128 	ldr	r0, [pc, #296]	; 8638 <ckalloc+0x224>
    850c:	e59f1104 	ldr	r1, [pc, #260]	; 8618 <ckalloc+0x204>
    8510:	e59f2104 	ldr	r2, [pc, #260]	; 861c <ckalloc+0x208>
    8514:	e3a03072 	mov	r3, #114	; 0x72
    8518:	eb000249 	bl	8e44 <printk>
    851c:	eb0003bd 	bl	9418 <clean_reboot>
    8520:	e5845000 	str	r5, [r4]
    8524:	e065c00c 	rsb	ip, r5, ip
    8528:	e584c004 	str	ip, [r4, #4]
    852c:	e3a0300b 	mov	r3, #11
    8530:	e5843008 	str	r3, [r4, #8]
    8534:	e5849010 	str	r9, [r4, #16]
    8538:	e5848014 	str	r8, [r4, #20]
    853c:	e5847018 	str	r7, [r4, #24]
    8540:	e3a03000 	mov	r3, #0
    8544:	e584301c 	str	r3, [r4, #28]
    8548:	e5843020 	str	r3, [r4, #32]
    854c:	e5843024 	str	r3, [r4, #36]	; 0x24
    8550:	e1a00004 	mov	r0, r4
    8554:	ebffff1f 	bl	81d8 <hdr_cksum>
    8558:	e584000c 	str	r0, [r4, #12]
    855c:	e2840038 	add	r0, r4, #56	; 0x38
    8560:	e3a01080 	mov	r1, #128	; 0x80
    8564:	ebffff16 	bl	81c4 <mark_mem>
    8568:	e28470b8 	add	r7, r4, #184	; 0xb8
    856c:	e5940000 	ldr	r0, [r4]
    8570:	e5941004 	ldr	r1, [r4, #4]
    8574:	e0870000 	add	r0, r7, r0
    8578:	e2811080 	add	r1, r1, #128	; 0x80
    857c:	ebffff10 	bl	81c4 <mark_mem>
    8580:	e59f3088 	ldr	r3, [pc, #136]	; 8610 <ckalloc+0x1fc>
    8584:	e5932004 	ldr	r2, [r3, #4]
    8588:	e0822006 	add	r2, r2, r6
    858c:	e5832004 	str	r2, [r3, #4]
    8590:	e1a00004 	mov	r0, r4
    8594:	ebffff18 	bl	81fc <check_hdr>
    8598:	e3500000 	cmp	r0, #0
    859c:	1a000006 	bne	85bc <ckalloc+0x1a8>
    85a0:	eb000242 	bl	8eb0 <rpi_reset_putc>
    85a4:	e59f0090 	ldr	r0, [pc, #144]	; 863c <ckalloc+0x228>
    85a8:	e59f1068 	ldr	r1, [pc, #104]	; 8618 <ckalloc+0x204>
    85ac:	e59f2068 	ldr	r2, [pc, #104]	; 861c <ckalloc+0x208>
    85b0:	e3a0308b 	mov	r3, #139	; 0x8b
    85b4:	eb000222 	bl	8e44 <printk>
    85b8:	eb000396 	bl	9418 <clean_reboot>
    85bc:	e1a00004 	mov	r0, r4
    85c0:	ebffff2b 	bl	8274 <check_block>
    85c4:	e3500000 	cmp	r0, #0
    85c8:	1a000006 	bne	85e8 <ckalloc+0x1d4>
    85cc:	eb000237 	bl	8eb0 <rpi_reset_putc>
    85d0:	e59f0068 	ldr	r0, [pc, #104]	; 8640 <ckalloc+0x22c>
    85d4:	e59f103c 	ldr	r1, [pc, #60]	; 8618 <ckalloc+0x204>
    85d8:	e59f203c 	ldr	r2, [pc, #60]	; 861c <ckalloc+0x208>
    85dc:	e3a0308c 	mov	r3, #140	; 0x8c
    85e0:	eb000217 	bl	8e44 <printk>
    85e4:	eb00038b 	bl	9418 <clean_reboot>
    85e8:	e59f0030 	ldr	r0, [pc, #48]	; 8620 <ckalloc+0x20c>
    85ec:	eb000214 	bl	8e44 <printk>
    85f0:	e59f004c 	ldr	r0, [pc, #76]	; 8644 <ckalloc+0x230>
    85f4:	e1a01005 	mov	r1, r5
    85f8:	e1a02006 	mov	r2, r6
    85fc:	e1a03007 	mov	r3, r7
    8600:	eb00020f 	bl	8e44 <printk>
    8604:	e1a00007 	mov	r0, r7
    8608:	e28dd00c 	add	sp, sp, #12
    860c:	e8bd83f0 	pop	{r4, r5, r6, r7, r8, r9, pc}
    8610:	0000a3b0 			; <UNDEFINED> instruction: 0x0000a3b0
    8614:	00009bf4 	strdeq	r9, [r0], -r4
    8618:	00009b68 	andeq	r9, r0, r8, ror #22
    861c:	00009a9c 	muleq	r0, ip, sl
    8620:	00009ac0 	andeq	r9, r0, r0, asr #21
    8624:	00009c34 	andeq	r9, r0, r4, lsr ip
    8628:	00009c4c 	andeq	r9, r0, ip, asr #24
    862c:	00009c58 	andeq	r9, r0, r8, asr ip
    8630:	00009c80 	andeq	r9, r0, r0, lsl #25
    8634:	00009cb8 			; <UNDEFINED> instruction: 0x00009cb8
    8638:	00009ce4 	andeq	r9, r0, r4, ror #25
    863c:	00009d20 	andeq	r9, r0, r0, lsr #26
    8640:	00009d40 	andeq	r9, r0, r0, asr #26
    8644:	00009d60 	andeq	r9, r0, r0, ror #26

00008648 <ck_first_hdr>:
    8648:	e92d4010 	push	{r4, lr}
    864c:	e59f3034 	ldr	r3, [pc, #52]	; 8688 <ck_first_hdr+0x40>
    8650:	e5934000 	ldr	r4, [r3]
    8654:	e1a00004 	mov	r0, r4
    8658:	ebfffee7 	bl	81fc <check_hdr>
    865c:	e3500000 	cmp	r0, #0
    8660:	1a000006 	bne	8680 <ck_first_hdr+0x38>
    8664:	eb000211 	bl	8eb0 <rpi_reset_putc>
    8668:	e59f001c 	ldr	r0, [pc, #28]	; 868c <ck_first_hdr+0x44>
    866c:	e59f101c 	ldr	r1, [pc, #28]	; 8690 <ck_first_hdr+0x48>
    8670:	e59f201c 	ldr	r2, [pc, #28]	; 8694 <ck_first_hdr+0x4c>
    8674:	e3a03095 	mov	r3, #149	; 0x95
    8678:	eb0001f1 	bl	8e44 <printk>
    867c:	eb000365 	bl	9418 <clean_reboot>
    8680:	e1a00004 	mov	r0, r4
    8684:	e8bd8010 	pop	{r4, pc}
    8688:	0000a3b0 			; <UNDEFINED> instruction: 0x0000a3b0
    868c:	00009d90 	muleq	r0, r0, sp
    8690:	00009b68 	andeq	r9, r0, r8, ror #22
    8694:	00009aa4 	andeq	r9, r0, r4, lsr #21

00008698 <ck_next_hdr>:
    8698:	e92d4010 	push	{r4, lr}
    869c:	e5904000 	ldr	r4, [r0]
    86a0:	e5903004 	ldr	r3, [r0, #4]
    86a4:	e0844003 	add	r4, r4, r3
    86a8:	e2844f4e 	add	r4, r4, #312	; 0x138
    86ac:	e0804004 	add	r4, r0, r4
    86b0:	e59f3044 	ldr	r3, [pc, #68]	; 86fc <ck_next_hdr+0x64>
    86b4:	e5933004 	ldr	r3, [r3, #4]
    86b8:	e1540003 	cmp	r4, r3
    86bc:	0a00000a 	beq	86ec <ck_next_hdr+0x54>
    86c0:	e1a00004 	mov	r0, r4
    86c4:	ebfffecc 	bl	81fc <check_hdr>
    86c8:	e3500000 	cmp	r0, #0
    86cc:	1a000008 	bne	86f4 <ck_next_hdr+0x5c>
    86d0:	eb0001f6 	bl	8eb0 <rpi_reset_putc>
    86d4:	e59f0024 	ldr	r0, [pc, #36]	; 8700 <ck_next_hdr+0x68>
    86d8:	e59f1024 	ldr	r1, [pc, #36]	; 8704 <ck_next_hdr+0x6c>
    86dc:	e59f2024 	ldr	r2, [pc, #36]	; 8708 <ck_next_hdr+0x70>
    86e0:	e3a030a3 	mov	r3, #163	; 0xa3
    86e4:	eb0001d6 	bl	8e44 <printk>
    86e8:	eb00034a 	bl	9418 <clean_reboot>
    86ec:	e3a00000 	mov	r0, #0
    86f0:	e8bd8010 	pop	{r4, pc}
    86f4:	e1a00004 	mov	r0, r4
    86f8:	e8bd8010 	pop	{r4, pc}
    86fc:	0000a3b0 			; <UNDEFINED> instruction: 0x0000a3b0
    8700:	00009db4 			; <UNDEFINED> instruction: 0x00009db4
    8704:	00009b68 	andeq	r9, r0, r8, ror #22
    8708:	00009ab4 			; <UNDEFINED> instruction: 0x00009ab4

0000870c <heap_info>:
    870c:	e59f1024 	ldr	r1, [pc, #36]	; 8738 <heap_info+0x2c>
    8710:	e591c000 	ldr	ip, [r1]
    8714:	e580c000 	str	ip, [r0]
    8718:	e5912004 	ldr	r2, [r1, #4]
    871c:	e5802004 	str	r2, [r0, #4]
    8720:	e5911008 	ldr	r1, [r1, #8]
    8724:	e0621001 	rsb	r1, r2, r1
    8728:	e5801008 	str	r1, [r0, #8]
    872c:	e06c2002 	rsb	r2, ip, r2
    8730:	e580200c 	str	r2, [r0, #12]
    8734:	e12fff1e 	bx	lr
    8738:	0000a3b0 			; <UNDEFINED> instruction: 0x0000a3b0

0000873c <ck_heap_errors>:
    873c:	e92d43f8 	push	{r3, r4, r5, r6, r7, r8, r9, lr}
    8740:	e59f4118 	ldr	r4, [pc, #280]	; 8860 <ck_heap_errors+0x124>
    8744:	e5943004 	ldr	r3, [r4, #4]
    8748:	e5946000 	ldr	r6, [r4]
    874c:	e0666003 	rsb	r6, r6, r3
    8750:	e5945008 	ldr	r5, [r4, #8]
    8754:	e0635005 	rsb	r5, r3, r5
    8758:	e59f0104 	ldr	r0, [pc, #260]	; 8864 <ck_heap_errors+0x128>
    875c:	eb0001b8 	bl	8e44 <printk>
    8760:	e59f0100 	ldr	r0, [pc, #256]	; 8868 <ck_heap_errors+0x12c>
    8764:	e1a01006 	mov	r1, r6
    8768:	e1a02005 	mov	r2, r5
    876c:	eb0001b4 	bl	8e44 <printk>
    8770:	e5944000 	ldr	r4, [r4]
    8774:	e3a05000 	mov	r5, #0
    8778:	e1a06005 	mov	r6, r5
    877c:	e59f70dc 	ldr	r7, [pc, #220]	; 8860 <ck_heap_errors+0x124>
    8780:	e59f90dc 	ldr	r9, [pc, #220]	; 8864 <ck_heap_errors+0x128>
    8784:	e59f80e0 	ldr	r8, [pc, #224]	; 886c <ck_heap_errors+0x130>
    8788:	ea000021 	b	8814 <ck_heap_errors+0xd8>
    878c:	e1a00004 	mov	r0, r4
    8790:	ebfffe99 	bl	81fc <check_hdr>
    8794:	e3500000 	cmp	r0, #0
    8798:	1a000005 	bne	87b4 <ck_heap_errors+0x78>
    879c:	e59f00c0 	ldr	r0, [pc, #192]	; 8864 <ck_heap_errors+0x128>
    87a0:	eb0001a7 	bl	8e44 <printk>
    87a4:	e59f00c4 	ldr	r0, [pc, #196]	; 8870 <ck_heap_errors+0x134>
    87a8:	eb0001a5 	bl	8e44 <printk>
    87ac:	e2866001 	add	r6, r6, #1
    87b0:	ea00001a 	b	8820 <ck_heap_errors+0xe4>
    87b4:	e1a00004 	mov	r0, r4
    87b8:	ebfffead 	bl	8274 <check_block>
    87bc:	e3500000 	cmp	r0, #0
    87c0:	02866001 	addeq	r6, r6, #1
    87c4:	e5943008 	ldr	r3, [r4, #8]
    87c8:	e353000c 	cmp	r3, #12
    87cc:	1a00000a 	bne	87fc <ck_heap_errors+0xc0>
    87d0:	e1a00004 	mov	r0, r4
    87d4:	e28410b8 	add	r1, r4, #184	; 0xb8
    87d8:	e5942000 	ldr	r2, [r4]
    87dc:	ebfffe38 	bl	80c4 <check_mem>
    87e0:	e3500000 	cmp	r0, #0
    87e4:	1a000004 	bne	87fc <ck_heap_errors+0xc0>
    87e8:	e1a00009 	mov	r0, r9
    87ec:	eb000194 	bl	8e44 <printk>
    87f0:	e1a00008 	mov	r0, r8
    87f4:	eb000192 	bl	8e44 <printk>
    87f8:	e2866001 	add	r6, r6, #1
    87fc:	e5942000 	ldr	r2, [r4]
    8800:	e5943004 	ldr	r3, [r4, #4]
    8804:	e0823003 	add	r3, r2, r3
    8808:	e2833f4e 	add	r3, r3, #312	; 0x138
    880c:	e0844003 	add	r4, r4, r3
    8810:	e2855001 	add	r5, r5, #1
    8814:	e5973004 	ldr	r3, [r7, #4]
    8818:	e1530004 	cmp	r3, r4
    881c:	1affffda 	bne	878c <ck_heap_errors+0x50>
    8820:	e3560000 	cmp	r6, #0
    8824:	0a000006 	beq	8844 <ck_heap_errors+0x108>
    8828:	e59f0034 	ldr	r0, [pc, #52]	; 8864 <ck_heap_errors+0x128>
    882c:	eb000184 	bl	8e44 <printk>
    8830:	e59f003c 	ldr	r0, [pc, #60]	; 8874 <ck_heap_errors+0x138>
    8834:	e1a01005 	mov	r1, r5
    8838:	e1a02006 	mov	r2, r6
    883c:	eb000180 	bl	8e44 <printk>
    8840:	ea000004 	b	8858 <ck_heap_errors+0x11c>
    8844:	e59f0018 	ldr	r0, [pc, #24]	; 8864 <ck_heap_errors+0x128>
    8848:	eb00017d 	bl	8e44 <printk>
    884c:	e59f0024 	ldr	r0, [pc, #36]	; 8878 <ck_heap_errors+0x13c>
    8850:	e1a01005 	mov	r1, r5
    8854:	eb00017a 	bl	8e44 <printk>
    8858:	e1a00006 	mov	r0, r6
    885c:	e8bd83f8 	pop	{r3, r4, r5, r6, r7, r8, r9, pc}
    8860:	0000a3b0 			; <UNDEFINED> instruction: 0x0000a3b0
    8864:	00009ac0 	andeq	r9, r0, r0, asr #21
    8868:	00009dd8 	ldrdeq	r9, [r0], -r8
    886c:	00009e24 	andeq	r9, r0, r4, lsr #28
    8870:	00009e10 	andeq	r9, r0, r0, lsl lr
    8874:	00009e40 	andeq	r9, r0, r0, asr #28
    8878:	00009e68 	andeq	r9, r0, r8, ror #28

0000887c <in_heap>:
    887c:	e3500000 	cmp	r0, #0
    8880:	1a000001 	bne	888c <in_heap+0x10>
    8884:	e3a00001 	mov	r0, #1
    8888:	e12fff1e 	bx	lr
    888c:	e3a00000 	mov	r0, #0
    8890:	e12fff1e 	bx	lr

00008894 <is_ptr>:
    8894:	e92d4010 	push	{r4, lr}
    8898:	e1a04000 	mov	r4, r0
    889c:	ebfffff6 	bl	887c <in_heap>
    88a0:	e3500000 	cmp	r0, #0
    88a4:	0a00000c 	beq	88dc <is_ptr+0x48>
    88a8:	ebffff66 	bl	8648 <ck_first_hdr>
    88ac:	ea000007 	b	88d0 <is_ptr+0x3c>
    88b0:	e28030b8 	add	r3, r0, #184	; 0xb8
    88b4:	e1530004 	cmp	r3, r4
    88b8:	8a000003 	bhi	88cc <is_ptr+0x38>
    88bc:	e5902000 	ldr	r2, [r0]
    88c0:	e0833002 	add	r3, r3, r2
    88c4:	e1530004 	cmp	r3, r4
    88c8:	28bd8010 	popcs	{r4, pc}
    88cc:	ebffff71 	bl	8698 <ck_next_hdr>
    88d0:	e3500000 	cmp	r0, #0
    88d4:	1afffff5 	bne	88b0 <is_ptr+0x1c>
    88d8:	e8bd8010 	pop	{r4, pc}
    88dc:	e3a00000 	mov	r0, #0
    88e0:	e8bd8010 	pop	{r4, pc}

000088e4 <sweep_leak>:
    88e4:	e92d4070 	push	{r4, r5, r6, lr}
    88e8:	e59f0074 	ldr	r0, [pc, #116]	; 8964 <sweep_leak+0x80>
    88ec:	eb000154 	bl	8e44 <printk>
    88f0:	e59f0070 	ldr	r0, [pc, #112]	; 8968 <sweep_leak+0x84>
    88f4:	eb000152 	bl	8e44 <printk>
    88f8:	ebffff52 	bl	8648 <ck_first_hdr>
    88fc:	e3a04000 	mov	r4, #0
    8900:	e3a0600c 	mov	r6, #12
    8904:	e1a05004 	mov	r5, r4
    8908:	ea000005 	b	8924 <sweep_leak+0x40>
    890c:	e1d033b4 	ldrh	r3, [r0, #52]	; 0x34
    8910:	e3530000 	cmp	r3, #0
    8914:	11c053b4 	strhne	r5, [r0, #52]	; 0x34
    8918:	05806008 	streq	r6, [r0, #8]
    891c:	e2844001 	add	r4, r4, #1
    8920:	ebffff5c 	bl	8698 <ck_next_hdr>
    8924:	e3500000 	cmp	r0, #0
    8928:	1afffff7 	bne	890c <sweep_leak+0x28>
    892c:	e59f5038 	ldr	r5, [pc, #56]	; 896c <sweep_leak+0x88>
    8930:	e1a00005 	mov	r0, r5
    8934:	eb000142 	bl	8e44 <printk>
    8938:	e59f0030 	ldr	r0, [pc, #48]	; 8970 <sweep_leak+0x8c>
    893c:	e1a01004 	mov	r1, r4
    8940:	eb00013f 	bl	8e44 <printk>
    8944:	e1a00005 	mov	r0, r5
    8948:	eb00013d 	bl	8e44 <printk>
    894c:	e59f0020 	ldr	r0, [pc, #32]	; 8974 <sweep_leak+0x90>
    8950:	eb00013b 	bl	8e44 <printk>
    8954:	e59f001c 	ldr	r0, [pc, #28]	; 8978 <sweep_leak+0x94>
    8958:	eb000139 	bl	8e44 <printk>
    895c:	e3a00000 	mov	r0, #0
    8960:	e8bd8070 	pop	{r4, r5, r6, pc}
    8964:	00009eec 	andeq	r9, r0, ip, ror #29
    8968:	00009f28 	andeq	r9, r0, r8, lsr #30
    896c:	00009ac0 	andeq	r9, r0, r0, asr #21
    8970:	00009f40 	andeq	r9, r0, r0, asr #30
    8974:	00009f58 	andeq	r9, r0, r8, asr pc
    8978:	00009f78 	andeq	r9, r0, r8, ror pc

0000897c <mark>:
    897c:	e92d40f8 	push	{r3, r4, r5, r6, r7, lr}
    8980:	e1500001 	cmp	r0, r1
    8984:	3a000006 	bcc	89a4 <mark+0x28>
    8988:	eb000148 	bl	8eb0 <rpi_reset_putc>
    898c:	e59f00c0 	ldr	r0, [pc, #192]	; 8a54 <mark+0xd8>
    8990:	e59f10c0 	ldr	r1, [pc, #192]	; 8a58 <mark+0xdc>
    8994:	e59f20c0 	ldr	r2, [pc, #192]	; 8a5c <mark+0xe0>
    8998:	e3a03045 	mov	r3, #69	; 0x45
    899c:	eb000128 	bl	8e44 <printk>
    89a0:	eb00029c 	bl	9418 <clean_reboot>
    89a4:	e1a06000 	mov	r6, r0
    89a8:	e3100003 	tst	r0, #3
    89ac:	0a000006 	beq	89cc <mark+0x50>
    89b0:	eb00013e 	bl	8eb0 <rpi_reset_putc>
    89b4:	e59f00a4 	ldr	r0, [pc, #164]	; 8a60 <mark+0xe4>
    89b8:	e59f1098 	ldr	r1, [pc, #152]	; 8a58 <mark+0xdc>
    89bc:	e59f2098 	ldr	r2, [pc, #152]	; 8a5c <mark+0xe0>
    89c0:	e3a03047 	mov	r3, #71	; 0x47
    89c4:	eb00011e 	bl	8e44 <printk>
    89c8:	eb000292 	bl	9418 <clean_reboot>
    89cc:	e3110003 	tst	r1, #3
    89d0:	0a000018 	beq	8a38 <mark+0xbc>
    89d4:	eb000135 	bl	8eb0 <rpi_reset_putc>
    89d8:	e59f0084 	ldr	r0, [pc, #132]	; 8a64 <mark+0xe8>
    89dc:	e59f1074 	ldr	r1, [pc, #116]	; 8a58 <mark+0xdc>
    89e0:	e59f2074 	ldr	r2, [pc, #116]	; 8a5c <mark+0xe0>
    89e4:	e3a03048 	mov	r3, #72	; 0x48
    89e8:	eb000115 	bl	8e44 <printk>
    89ec:	eb000289 	bl	9418 <clean_reboot>
    89f0:	e0860004 	add	r0, r6, r4
    89f4:	ebffffa6 	bl	8894 <is_ptr>
    89f8:	e3500000 	cmp	r0, #0
    89fc:	0a00000b 	beq	8a30 <mark+0xb4>
    8a00:	e1d023b4 	ldrh	r2, [r0, #52]	; 0x34
    8a04:	e3520000 	cmp	r2, #0
    8a08:	1a000008 	bne	8a30 <mark+0xb4>
    8a0c:	e1c073b4 	strh	r7, [r0, #52]	; 0x34
    8a10:	e28020b8 	add	r2, r0, #184	; 0xb8
    8a14:	e5901000 	ldr	r1, [r0]
    8a18:	e5903004 	ldr	r3, [r0, #4]
    8a1c:	e0811003 	add	r1, r1, r3
    8a20:	e2811f4e 	add	r1, r1, #312	; 0x138
    8a24:	e1a00002 	mov	r0, r2
    8a28:	e0821101 	add	r1, r2, r1, lsl #2
    8a2c:	ebffffd2 	bl	897c <mark>
    8a30:	e2844001 	add	r4, r4, #1
    8a34:	ea000003 	b	8a48 <mark+0xcc>
    8a38:	e3a04000 	mov	r4, #0
    8a3c:	e0605001 	rsb	r5, r0, r1
    8a40:	e1a05145 	asr	r5, r5, #2
    8a44:	e3a07001 	mov	r7, #1
    8a48:	e1550004 	cmp	r5, r4
    8a4c:	2affffe7 	bcs	89f0 <mark+0x74>
    8a50:	e8bd80f8 	pop	{r3, r4, r5, r6, r7, pc}
    8a54:	00009fb4 			; <UNDEFINED> instruction: 0x00009fb4
    8a58:	00009fc8 	andeq	r9, r0, r8, asr #31
    8a5c:	00009e98 	muleq	r0, r8, lr
    8a60:	00009fd0 	ldrdeq	r9, [r0], -r0
    8a64:	00009ff0 	strdeq	r9, [r0], -r0

00008a68 <mark_all>:
    8a68:	e92d4010 	push	{r4, lr}
    8a6c:	e24dd050 	sub	sp, sp, #80	; 0x50
    8a70:	ebfffef4 	bl	8648 <ck_first_hdr>
    8a74:	e3a04000 	mov	r4, #0
    8a78:	ea000003 	b	8a8c <mark_all+0x24>
    8a7c:	e580402c 	str	r4, [r0, #44]	; 0x2c
    8a80:	e5804028 	str	r4, [r0, #40]	; 0x28
    8a84:	e1c043b4 	strh	r4, [r0, #52]	; 0x34
    8a88:	ebffff02 	bl	8698 <ck_next_hdr>
    8a8c:	e3500000 	cmp	r0, #0
    8a90:	1afffff9 	bne	8a7c <mark_all+0x14>
    8a94:	e28d0040 	add	r0, sp, #64	; 0x40
    8a98:	ebffff1b 	bl	870c <heap_info>
    8a9c:	e1a0400d 	mov	r4, sp
    8aa0:	e1a0000d 	mov	r0, sp
    8aa4:	eb000091 	bl	8cf0 <dump_regs>
    8aa8:	e59d3000 	ldr	r3, [sp]
    8aac:	e1530004 	cmp	r3, r4
    8ab0:	0a000006 	beq	8ad0 <mark_all+0x68>
    8ab4:	eb0000fd 	bl	8eb0 <rpi_reset_putc>
    8ab8:	e59f0048 	ldr	r0, [pc, #72]	; 8b08 <mark_all+0xa0>
    8abc:	e59f1048 	ldr	r1, [pc, #72]	; 8b0c <mark_all+0xa4>
    8ac0:	e59f2048 	ldr	r2, [pc, #72]	; 8b10 <mark_all+0xa8>
    8ac4:	e3a0308e 	mov	r3, #142	; 0x8e
    8ac8:	eb0000dd 	bl	8e44 <printk>
    8acc:	eb000251 	bl	9418 <clean_reboot>
    8ad0:	e1a0000d 	mov	r0, sp
    8ad4:	e28d1038 	add	r1, sp, #56	; 0x38
    8ad8:	ebffffa7 	bl	897c <mark>
    8adc:	e59d0034 	ldr	r0, [sp, #52]	; 0x34
    8ae0:	e3a01302 	mov	r1, #134217728	; 0x8000000
    8ae4:	ebffffa4 	bl	897c <mark>
    8ae8:	e59f0024 	ldr	r0, [pc, #36]	; 8b14 <mark_all+0xac>
    8aec:	e59f1024 	ldr	r1, [pc, #36]	; 8b18 <mark_all+0xb0>
    8af0:	ebffffa1 	bl	897c <mark>
    8af4:	e59f0020 	ldr	r0, [pc, #32]	; 8b1c <mark_all+0xb4>
    8af8:	e59f1020 	ldr	r1, [pc, #32]	; 8b20 <mark_all+0xb8>
    8afc:	ebffff9e 	bl	897c <mark>
    8b00:	e28dd050 	add	sp, sp, #80	; 0x50
    8b04:	e8bd8010 	pop	{r4, pc}
    8b08:	0000a010 	andeq	sl, r0, r0, lsl r0
    8b0c:	00009fc8 	andeq	r9, r0, r8, asr #31
    8b10:	00009ea0 	andeq	r9, r0, r0, lsr #29
    8b14:	0000a3b0 			; <UNDEFINED> instruction: 0x0000a3b0
    8b18:	0000a7c0 	andeq	sl, r0, r0, asr #15
    8b1c:	00009a00 	andeq	r9, r0, r0, lsl #20
    8b20:	00009a10 	andeq	r9, r0, r0, lsl sl

00008b24 <sweep_free>:
    8b24:	e92d4008 	push	{r3, lr}
    8b28:	e59f0024 	ldr	r0, [pc, #36]	; 8b54 <sweep_free+0x30>
    8b2c:	eb0000c4 	bl	8e44 <printk>
    8b30:	e59f0020 	ldr	r0, [pc, #32]	; 8b58 <sweep_free+0x34>
    8b34:	eb0000c2 	bl	8e44 <printk>
    8b38:	eb0000dc 	bl	8eb0 <rpi_reset_putc>
    8b3c:	e59f0018 	ldr	r0, [pc, #24]	; 8b5c <sweep_free+0x38>
    8b40:	e59f1018 	ldr	r1, [pc, #24]	; 8b60 <sweep_free+0x3c>
    8b44:	e59f2018 	ldr	r2, [pc, #24]	; 8b64 <sweep_free+0x40>
    8b48:	e3a030de 	mov	r3, #222	; 0xde
    8b4c:	eb0000bc 	bl	8e44 <printk>
    8b50:	eb000230 	bl	9418 <clean_reboot>
    8b54:	00009eec 	andeq	r9, r0, ip, ror #29
    8b58:	0000a040 	andeq	sl, r0, r0, asr #32
    8b5c:	0000a050 	andeq	sl, r0, r0, asr r0
    8b60:	00009fc8 	andeq	r9, r0, r8, asr #31
    8b64:	00009eac 	andeq	r9, r0, ip, lsr #29

00008b68 <ck_find_leaks>:
    8b68:	e92d4010 	push	{r4, lr}
    8b6c:	e1a04000 	mov	r4, r0
    8b70:	ebffffbc 	bl	8a68 <mark_all>
    8b74:	e1a00004 	mov	r0, r4
    8b78:	ebffff59 	bl	88e4 <sweep_leak>
    8b7c:	e8bd8010 	pop	{r4, pc}

00008b80 <check_no_leak>:
    8b80:	e92d4008 	push	{r3, lr}
    8b84:	ebfffeec 	bl	873c <ck_heap_errors>
    8b88:	e3500000 	cmp	r0, #0
    8b8c:	0a000006 	beq	8bac <check_no_leak+0x2c>
    8b90:	eb0000c6 	bl	8eb0 <rpi_reset_putc>
    8b94:	e59f0060 	ldr	r0, [pc, #96]	; 8bfc <check_no_leak+0x7c>
    8b98:	e59f1060 	ldr	r1, [pc, #96]	; 8c00 <check_no_leak+0x80>
    8b9c:	e59f2060 	ldr	r2, [pc, #96]	; 8c04 <check_no_leak+0x84>
    8ba0:	e3a030b6 	mov	r3, #182	; 0xb6
    8ba4:	eb0000a6 	bl	8e44 <printk>
    8ba8:	eb00021a 	bl	9418 <clean_reboot>
    8bac:	e59f0054 	ldr	r0, [pc, #84]	; 8c08 <check_no_leak+0x88>
    8bb0:	eb0000a3 	bl	8e44 <printk>
    8bb4:	e59f0050 	ldr	r0, [pc, #80]	; 8c0c <check_no_leak+0x8c>
    8bb8:	eb0000a1 	bl	8e44 <printk>
    8bbc:	e3a00001 	mov	r0, #1
    8bc0:	ebffffe8 	bl	8b68 <ck_find_leaks>
    8bc4:	e3500000 	cmp	r0, #0
    8bc8:	0a000006 	beq	8be8 <check_no_leak+0x68>
    8bcc:	eb0000b7 	bl	8eb0 <rpi_reset_putc>
    8bd0:	e59f0038 	ldr	r0, [pc, #56]	; 8c10 <check_no_leak+0x90>
    8bd4:	e59f1024 	ldr	r1, [pc, #36]	; 8c00 <check_no_leak+0x80>
    8bd8:	e59f2024 	ldr	r2, [pc, #36]	; 8c04 <check_no_leak+0x84>
    8bdc:	e3a030ba 	mov	r3, #186	; 0xba
    8be0:	eb000097 	bl	8e44 <printk>
    8be4:	eb00020b 	bl	9418 <clean_reboot>
    8be8:	e59f0018 	ldr	r0, [pc, #24]	; 8c08 <check_no_leak+0x88>
    8bec:	eb000094 	bl	8e44 <printk>
    8bf0:	e59f001c 	ldr	r0, [pc, #28]	; 8c14 <check_no_leak+0x94>
    8bf4:	eb000092 	bl	8e44 <printk>
    8bf8:	e8bd8008 	pop	{r3, pc}
    8bfc:	0000a07c 	andeq	sl, r0, ip, ror r0
    8c00:	00009fc8 	andeq	r9, r0, r8, asr #31
    8c04:	00009eb8 			; <UNDEFINED> instruction: 0x00009eb8
    8c08:	00009ac0 	andeq	r9, r0, r0, asr #21
    8c0c:	0000a0a4 	andeq	sl, r0, r4, lsr #1
    8c10:	0000a0c4 	andeq	sl, r0, r4, asr #1
    8c14:	0000a0f0 	strdeq	sl, [r0], -r0

00008c18 <check_should_leak>:
    8c18:	e92d4010 	push	{r4, lr}
    8c1c:	ebfffec6 	bl	873c <ck_heap_errors>
    8c20:	e3500000 	cmp	r0, #0
    8c24:	0a000006 	beq	8c44 <check_should_leak+0x2c>
    8c28:	eb0000a0 	bl	8eb0 <rpi_reset_putc>
    8c2c:	e59f0068 	ldr	r0, [pc, #104]	; 8c9c <check_should_leak+0x84>
    8c30:	e59f1068 	ldr	r1, [pc, #104]	; 8ca0 <check_should_leak+0x88>
    8c34:	e59f2068 	ldr	r2, [pc, #104]	; 8ca4 <check_should_leak+0x8c>
    8c38:	e3a030c7 	mov	r3, #199	; 0xc7
    8c3c:	eb000080 	bl	8e44 <printk>
    8c40:	eb0001f4 	bl	9418 <clean_reboot>
    8c44:	e59f005c 	ldr	r0, [pc, #92]	; 8ca8 <check_should_leak+0x90>
    8c48:	eb00007d 	bl	8e44 <printk>
    8c4c:	e59f0058 	ldr	r0, [pc, #88]	; 8cac <check_should_leak+0x94>
    8c50:	eb00007b 	bl	8e44 <printk>
    8c54:	e3a00001 	mov	r0, #1
    8c58:	ebffffc2 	bl	8b68 <ck_find_leaks>
    8c5c:	e2504000 	subs	r4, r0, #0
    8c60:	1a000006 	bne	8c80 <check_should_leak+0x68>
    8c64:	eb000091 	bl	8eb0 <rpi_reset_putc>
    8c68:	e59f0040 	ldr	r0, [pc, #64]	; 8cb0 <check_should_leak+0x98>
    8c6c:	e59f102c 	ldr	r1, [pc, #44]	; 8ca0 <check_should_leak+0x88>
    8c70:	e59f202c 	ldr	r2, [pc, #44]	; 8ca4 <check_should_leak+0x8c>
    8c74:	e3a030cd 	mov	r3, #205	; 0xcd
    8c78:	eb000071 	bl	8e44 <printk>
    8c7c:	eb0001e5 	bl	9418 <clean_reboot>
    8c80:	e59f0020 	ldr	r0, [pc, #32]	; 8ca8 <check_should_leak+0x90>
    8c84:	eb00006e 	bl	8e44 <printk>
    8c88:	e59f0024 	ldr	r0, [pc, #36]	; 8cb4 <check_should_leak+0x9c>
    8c8c:	e1a01004 	mov	r1, r4
    8c90:	eb00006b 	bl	8e44 <printk>
    8c94:	e1a00004 	mov	r0, r4
    8c98:	e8bd8010 	pop	{r4, pc}
    8c9c:	0000a07c 	andeq	sl, r0, ip, ror r0
    8ca0:	00009fc8 	andeq	r9, r0, r8, asr #31
    8ca4:	00009ec8 	andeq	r9, r0, r8, asr #29
    8ca8:	00009ac0 	andeq	r9, r0, r0, asr #21
    8cac:	0000a0a4 	andeq	sl, r0, r4, lsr #1
    8cb0:	0000a108 	andeq	sl, r0, r8, lsl #2
    8cb4:	0000a130 	andeq	sl, r0, r0, lsr r1

00008cb8 <implement_this>:
    8cb8:	e92d4008 	push	{r3, lr}
    8cbc:	eb00007b 	bl	8eb0 <rpi_reset_putc>
    8cc0:	e59f0010 	ldr	r0, [pc, #16]	; 8cd8 <implement_this+0x20>
    8cc4:	e59f1010 	ldr	r1, [pc, #16]	; 8cdc <implement_this+0x24>
    8cc8:	e59f2010 	ldr	r2, [pc, #16]	; 8ce0 <implement_this+0x28>
    8ccc:	e3a030d5 	mov	r3, #213	; 0xd5
    8cd0:	eb00005b 	bl	8e44 <printk>
    8cd4:	eb0001cf 	bl	9418 <clean_reboot>
    8cd8:	0000a150 	andeq	sl, r0, r0, asr r1
    8cdc:	00009fc8 	andeq	r9, r0, r8, asr #31
    8ce0:	00009edc 	ldrdeq	r9, [r0], -ip

00008ce4 <ck_gc>:
    8ce4:	e92d4008 	push	{r3, lr}
    8ce8:	ebffff5e 	bl	8a68 <mark_all>
    8cec:	ebffff8c 	bl	8b24 <sweep_free>

00008cf0 <dump_regs>:
    8cf0:	e5800000 	str	r0, [r0]
    8cf4:	e5801004 	str	r1, [r0, #4]
    8cf8:	e5802008 	str	r2, [r0, #8]
    8cfc:	e580300c 	str	r3, [r0, #12]
    8d00:	e5804010 	str	r4, [r0, #16]
    8d04:	e5805014 	str	r5, [r0, #20]
    8d08:	e5806018 	str	r6, [r0, #24]
    8d0c:	e580701c 	str	r7, [r0, #28]
    8d10:	e5808020 	str	r8, [r0, #32]
    8d14:	e5809024 	str	r9, [r0, #36]	; 0x24
    8d18:	e580a028 	str	sl, [r0, #40]	; 0x28
    8d1c:	e580b02c 	str	fp, [r0, #44]	; 0x2c
    8d20:	e580c030 	str	ip, [r0, #48]	; 0x30
    8d24:	e580d034 	str	sp, [r0, #52]	; 0x34
    8d28:	e580e038 	str	lr, [r0, #56]	; 0x38
    8d2c:	e580f03c 	str	pc, [r0, #60]	; 0x3c
    8d30:	e12fff1e 	bx	lr

00008d34 <fast_hash>:
    8d34:	e52d4004 	push	{r4}		; (str r4, [sp, #-4]!)
    8d38:	e1a02001 	mov	r2, r1
    8d3c:	e1a03000 	mov	r3, r0
    8d40:	e3500000 	cmp	r0, #0
    8d44:	13510000 	cmpne	r1, #0
    8d48:	da000032 	ble	8e18 <fast_hash+0xe4>
    8d4c:	e2014003 	and	r4, r1, #3
    8d50:	e1a01141 	asr	r1, r1, #2
    8d54:	ea00000b 	b	8d88 <fast_hash+0x54>
    8d58:	e5d3c001 	ldrb	ip, [r3, #1]
    8d5c:	e5d30000 	ldrb	r0, [r3]
    8d60:	e080040c 	add	r0, r0, ip, lsl #8
    8d64:	e0800002 	add	r0, r0, r2
    8d68:	e5d3c003 	ldrb	ip, [r3, #3]
    8d6c:	e5d32002 	ldrb	r2, [r3, #2]
    8d70:	e082240c 	add	r2, r2, ip, lsl #8
    8d74:	e0202582 	eor	r2, r0, r2, lsl #11
    8d78:	e0222800 	eor	r2, r2, r0, lsl #16
    8d7c:	e2833004 	add	r3, r3, #4
    8d80:	e08225a2 	add	r2, r2, r2, lsr #11
    8d84:	e2411001 	sub	r1, r1, #1
    8d88:	e3510000 	cmp	r1, #0
    8d8c:	cafffff1 	bgt	8d58 <fast_hash+0x24>
    8d90:	e3540002 	cmp	r4, #2
    8d94:	0a00000d 	beq	8dd0 <fast_hash+0x9c>
    8d98:	e3540003 	cmp	r4, #3
    8d9c:	0a000002 	beq	8dac <fast_hash+0x78>
    8da0:	e3540001 	cmp	r4, #1
    8da4:	1a000014 	bne	8dfc <fast_hash+0xc8>
    8da8:	ea00000f 	b	8dec <fast_hash+0xb8>
    8dac:	e5d30001 	ldrb	r0, [r3, #1]
    8db0:	e5d31000 	ldrb	r1, [r3]
    8db4:	e0811400 	add	r1, r1, r0, lsl #8
    8db8:	e0812002 	add	r2, r1, r2
    8dbc:	e0222802 	eor	r2, r2, r2, lsl #16
    8dc0:	e1d330d2 	ldrsb	r3, [r3, #2]
    8dc4:	e0222903 	eor	r2, r2, r3, lsl #18
    8dc8:	e08225a2 	add	r2, r2, r2, lsr #11
    8dcc:	ea00000a 	b	8dfc <fast_hash+0xc8>
    8dd0:	e5d31001 	ldrb	r1, [r3, #1]
    8dd4:	e5d33000 	ldrb	r3, [r3]
    8dd8:	e0833401 	add	r3, r3, r1, lsl #8
    8ddc:	e0832002 	add	r2, r3, r2
    8de0:	e0222582 	eor	r2, r2, r2, lsl #11
    8de4:	e08228a2 	add	r2, r2, r2, lsr #17
    8de8:	ea000003 	b	8dfc <fast_hash+0xc8>
    8dec:	e1d330d0 	ldrsb	r3, [r3]
    8df0:	e0832002 	add	r2, r3, r2
    8df4:	e0222502 	eor	r2, r2, r2, lsl #10
    8df8:	e08220a2 	add	r2, r2, r2, lsr #1
    8dfc:	e0220182 	eor	r0, r2, r2, lsl #3
    8e00:	e08002a0 	add	r0, r0, r0, lsr #5
    8e04:	e0200200 	eor	r0, r0, r0, lsl #4
    8e08:	e08008a0 	add	r0, r0, r0, lsr #17
    8e0c:	e0200c80 	eor	r0, r0, r0, lsl #25
    8e10:	e0800320 	add	r0, r0, r0, lsr #6
    8e14:	ea000000 	b	8e1c <fast_hash+0xe8>
    8e18:	e3a00000 	mov	r0, #0
    8e1c:	e49d4004 	pop	{r4}		; (ldr r4, [sp], #4)
    8e20:	e12fff1e 	bx	lr

00008e24 <memset>:
    8e24:	e0802002 	add	r2, r0, r2
    8e28:	e1a03000 	mov	r3, r0
    8e2c:	ea000001 	b	8e38 <memset+0x14>
    8e30:	e5c31000 	strb	r1, [r3]
    8e34:	e2833001 	add	r3, r3, #1
    8e38:	e1530002 	cmp	r3, r2
    8e3c:	3afffffb 	bcc	8e30 <memset+0xc>
    8e40:	e12fff1e 	bx	lr

00008e44 <printk>:
    8e44:	e92d000f 	push	{r0, r1, r2, r3}
    8e48:	e92d4030 	push	{r4, r5, lr}
    8e4c:	e24dd00c 	sub	sp, sp, #12
    8e50:	e28d301c 	add	r3, sp, #28
    8e54:	e58d3004 	str	r3, [sp, #4]
    8e58:	e59f4034 	ldr	r4, [pc, #52]	; 8e94 <printk+0x50>
    8e5c:	e1a00004 	mov	r0, r4
    8e60:	e3a01b01 	mov	r1, #1024	; 0x400
    8e64:	e59d2018 	ldr	r2, [sp, #24]
    8e68:	eb0000c8 	bl	9190 <va_printk>
    8e6c:	e1a05000 	mov	r5, r0
    8e70:	e59f3020 	ldr	r3, [pc, #32]	; 8e98 <printk+0x54>
    8e74:	e5933000 	ldr	r3, [r3]
    8e78:	e1a00004 	mov	r0, r4
    8e7c:	e12fff33 	blx	r3
    8e80:	e1a00005 	mov	r0, r5
    8e84:	e28dd00c 	add	sp, sp, #12
    8e88:	e8bd4030 	pop	{r4, r5, lr}
    8e8c:	e28dd010 	add	sp, sp, #16
    8e90:	e12fff1e 	bx	lr
    8e94:	0000a3bc 			; <UNDEFINED> instruction: 0x0000a3bc
    8e98:	00009a04 	andeq	r9, r0, r4, lsl #20

00008e9c <internal_putchar>:
    8e9c:	e92d4010 	push	{r4, lr}
    8ea0:	e1a04000 	mov	r4, r0
    8ea4:	eb000212 	bl	96f4 <uart_putc>
    8ea8:	e1a00004 	mov	r0, r4
    8eac:	e8bd8010 	pop	{r4, pc}

00008eb0 <rpi_reset_putc>:
    8eb0:	e59f2008 	ldr	r2, [pc, #8]	; 8ec0 <rpi_reset_putc+0x10>
    8eb4:	e59f3008 	ldr	r3, [pc, #8]	; 8ec4 <rpi_reset_putc+0x14>
    8eb8:	e5832000 	str	r2, [r3]
    8ebc:	e12fff1e 	bx	lr
    8ec0:	00008e9c 	muleq	r0, ip, lr
    8ec4:	00009a00 	andeq	r9, r0, r0, lsl #20

00008ec8 <rpi_set_putc>:
    8ec8:	e59f3004 	ldr	r3, [pc, #4]	; 8ed4 <rpi_set_putc+0xc>
    8ecc:	e5830000 	str	r0, [r3]
    8ed0:	e12fff1e 	bx	lr
    8ed4:	00009a00 	andeq	r9, r0, r0, lsl #20

00008ed8 <internal_putk>:
    8ed8:	e92d4038 	push	{r3, r4, r5, lr}
    8edc:	e1a04000 	mov	r4, r0
    8ee0:	e59f5020 	ldr	r5, [pc, #32]	; 8f08 <internal_putk+0x30>
    8ee4:	ea000002 	b	8ef4 <internal_putk+0x1c>
    8ee8:	e5953000 	ldr	r3, [r5]
    8eec:	e12fff33 	blx	r3
    8ef0:	e2844001 	add	r4, r4, #1
    8ef4:	e5d40000 	ldrb	r0, [r4]
    8ef8:	e3500000 	cmp	r0, #0
    8efc:	1afffff9 	bne	8ee8 <internal_putk+0x10>
    8f00:	e3a00001 	mov	r0, #1
    8f04:	e8bd8038 	pop	{r3, r4, r5, pc}
    8f08:	00009a00 	andeq	r9, r0, r0, lsl #20

00008f0c <isdigit>:
    8f0c:	e2400030 	sub	r0, r0, #48	; 0x30
    8f10:	e3500009 	cmp	r0, #9
    8f14:	83a00000 	movhi	r0, #0
    8f18:	93a00001 	movls	r0, #1
    8f1c:	e12fff1e 	bx	lr

00008f20 <pad>:
    8f20:	e0611000 	rsb	r1, r1, r0
    8f24:	e3a03020 	mov	r3, #32
    8f28:	ea000002 	b	8f38 <pad+0x18>
    8f2c:	e5c03000 	strb	r3, [r0]
    8f30:	e2811001 	add	r1, r1, #1
    8f34:	e2800001 	add	r0, r0, #1
    8f38:	e1510002 	cmp	r1, r2
    8f3c:	bafffffa 	blt	8f2c <pad+0xc>
    8f40:	e3a03000 	mov	r3, #0
    8f44:	e5c03000 	strb	r3, [r0]
    8f48:	e12fff1e 	bx	lr

00008f4c <reverse>:
    8f4c:	e063c002 	rsb	ip, r3, r2
    8f50:	e28cc001 	add	ip, ip, #1
    8f54:	e15c0001 	cmp	ip, r1
    8f58:	c061100c 	rsbgt	r1, r1, ip
    8f5c:	c0833001 	addgt	r3, r3, r1
    8f60:	e2422001 	sub	r2, r2, #1
    8f64:	e1a01000 	mov	r1, r0
    8f68:	ea000002 	b	8f78 <reverse+0x2c>
    8f6c:	e452c001 	ldrb	ip, [r2], #-1
    8f70:	e5c1c000 	strb	ip, [r1]
    8f74:	e2811001 	add	r1, r1, #1
    8f78:	e1520003 	cmp	r2, r3
    8f7c:	2afffffa 	bcs	8f6c <reverse+0x20>
    8f80:	e3a03000 	mov	r3, #0
    8f84:	e5c13000 	strb	r3, [r1]
    8f88:	e12fff1e 	bx	lr

00008f8c <emit>:
    8f8c:	e92d41f0 	push	{r4, r5, r6, r7, r8, lr}
    8f90:	e24dd040 	sub	sp, sp, #64	; 0x40
    8f94:	e1a05001 	mov	r5, r1
    8f98:	e1a04002 	mov	r4, r2
    8f9c:	e59d2058 	ldr	r2, [sp, #88]	; 0x58
    8fa0:	e1520004 	cmp	r2, r4
    8fa4:	c2442001 	subgt	r2, r4, #1
    8fa8:	e1a0c003 	mov	ip, r3
    8fac:	e2400002 	sub	r0, r0, #2
    8fb0:	e350000e 	cmp	r0, #14
    8fb4:	979ff100 	ldrls	pc, [pc, r0, lsl #2]
    8fb8:	ea000048 	b	90e0 <emit+0x154>
    8fbc:	000090b8 	strheq	r9, [r0], -r8
    8fc0:	000090e0 	andeq	r9, r0, r0, ror #1
    8fc4:	000090e0 	andeq	r9, r0, r0, ror #1
    8fc8:	000090e0 	andeq	r9, r0, r0, ror #1
    8fcc:	000090e0 	andeq	r9, r0, r0, ror #1
    8fd0:	000090e0 	andeq	r9, r0, r0, ror #1
    8fd4:	000090ac 	andeq	r9, r0, ip, lsr #1
    8fd8:	000090e0 	andeq	r9, r0, r0, ror #1
    8fdc:	00008ff8 	strdeq	r8, [r0], -r8	; <UNPREDICTABLE>
    8fe0:	000090e0 	andeq	r9, r0, r0, ror #1
    8fe4:	000090e0 	andeq	r9, r0, r0, ror #1
    8fe8:	000090e0 	andeq	r9, r0, r0, ror #1
    8fec:	000090e0 	andeq	r9, r0, r0, ror #1
    8ff0:	000090e0 	andeq	r9, r0, r0, ror #1
    8ff4:	0000906c 	andeq	r9, r0, ip, rrx
    8ff8:	e59d105c 	ldr	r1, [sp, #92]	; 0x5c
    8ffc:	e2911000 	adds	r1, r1, #0
    9000:	13a01001 	movne	r1, #1
    9004:	e0111fa3 	ands	r1, r1, r3, lsr #31
    9008:	1263c000 	rsbne	ip, r3, #0
    900c:	13a08001 	movne	r8, #1
    9010:	03a08000 	moveq	r8, #0
    9014:	e1a0100d 	mov	r1, sp
    9018:	e59f7100 	ldr	r7, [pc, #256]	; 9120 <emit+0x194>
    901c:	e59f6100 	ldr	r6, [pc, #256]	; 9124 <emit+0x198>
    9020:	ea000000 	b	9028 <emit+0x9c>
    9024:	e1a01000 	mov	r1, r0
    9028:	e2810001 	add	r0, r1, #1
    902c:	e083ec97 	umull	lr, r3, r7, ip
    9030:	e1a031a3 	lsr	r3, r3, #3
    9034:	e1a0e003 	mov	lr, r3
    9038:	e0833103 	add	r3, r3, r3, lsl #2
    903c:	e1a03083 	lsl	r3, r3, #1
    9040:	e063300c 	rsb	r3, r3, ip
    9044:	e7d63003 	ldrb	r3, [r6, r3]
    9048:	e5c13000 	strb	r3, [r1]
    904c:	e1a0c00e 	mov	ip, lr
    9050:	e35e0000 	cmp	lr, #0
    9054:	1afffff2 	bne	9024 <emit+0x98>
    9058:	e3580000 	cmp	r8, #0
    905c:	12810002 	addne	r0, r1, #2
    9060:	13a0302d 	movne	r3, #45	; 0x2d
    9064:	15c13001 	strbne	r3, [r1, #1]
    9068:	ea000023 	b	90fc <emit+0x170>
    906c:	e1a0300d 	mov	r3, sp
    9070:	e59fe0b0 	ldr	lr, [pc, #176]	; 9128 <emit+0x19c>
    9074:	ea000000 	b	907c <emit+0xf0>
    9078:	e1a03000 	mov	r3, r0
    907c:	e2830001 	add	r0, r3, #1
    9080:	e20c100f 	and	r1, ip, #15
    9084:	e7de1001 	ldrb	r1, [lr, r1]
    9088:	e5c31000 	strb	r1, [r3]
    908c:	e1b0c22c 	lsrs	ip, ip, #4
    9090:	1afffff8 	bne	9078 <emit+0xec>
    9094:	e3a01078 	mov	r1, #120	; 0x78
    9098:	e5c31001 	strb	r1, [r3, #1]
    909c:	e2830003 	add	r0, r3, #3
    90a0:	e3a01030 	mov	r1, #48	; 0x30
    90a4:	e5c31002 	strb	r1, [r3, #2]
    90a8:	ea000013 	b	90fc <emit+0x170>
    90ac:	e5cd3000 	strb	r3, [sp]
    90b0:	e28d0001 	add	r0, sp, #1
    90b4:	ea000010 	b	90fc <emit+0x170>
    90b8:	e1a0300d 	mov	r3, sp
    90bc:	e59fe068 	ldr	lr, [pc, #104]	; 912c <emit+0x1a0>
    90c0:	e2830001 	add	r0, r3, #1
    90c4:	e20c1001 	and	r1, ip, #1
    90c8:	e7de1001 	ldrb	r1, [lr, r1]
    90cc:	e5c31000 	strb	r1, [r3]
    90d0:	e1a03000 	mov	r3, r0
    90d4:	e1b0c0ac 	lsrs	ip, ip, #1
    90d8:	1afffff8 	bne	90c0 <emit+0x134>
    90dc:	ea000006 	b	90fc <emit+0x170>
    90e0:	ebffff72 	bl	8eb0 <rpi_reset_putc>
    90e4:	e59f0044 	ldr	r0, [pc, #68]	; 9130 <emit+0x1a4>
    90e8:	e59f1044 	ldr	r1, [pc, #68]	; 9134 <emit+0x1a8>
    90ec:	e59f2044 	ldr	r2, [pc, #68]	; 9138 <emit+0x1ac>
    90f0:	e3a03077 	mov	r3, #119	; 0x77
    90f4:	ebffff52 	bl	8e44 <printk>
    90f8:	eb0000c6 	bl	9418 <clean_reboot>
    90fc:	e1a0100d 	mov	r1, sp
    9100:	ebffff86 	bl	8f20 <pad>
    9104:	e1a02000 	mov	r2, r0
    9108:	e1a00005 	mov	r0, r5
    910c:	e1a01004 	mov	r1, r4
    9110:	e1a0300d 	mov	r3, sp
    9114:	ebffff8c 	bl	8f4c <reverse>
    9118:	e28dd040 	add	sp, sp, #64	; 0x40
    911c:	e8bd81f0 	pop	{r4, r5, r6, r7, r8, pc}
    9120:	cccccccd 	stclgt	12, cr12, [ip], {205}	; 0xcd
    9124:	0000a1cc 	andeq	sl, r0, ip, asr #3
    9128:	0000a1d8 	ldrdeq	sl, [r0], -r8
    912c:	0000a1ec 	andeq	sl, r0, ip, ror #3
    9130:	0000a1a4 	andeq	sl, r0, r4, lsr #3
    9134:	0000a1b8 			; <UNDEFINED> instruction: 0x0000a1b8
    9138:	0000a180 	andeq	sl, r0, r0, lsl #3

0000913c <rpi_set_output>:
    913c:	e92d4008 	push	{r3, lr}
    9140:	e3500000 	cmp	r0, #0
    9144:	1a000006 	bne	9164 <rpi_set_output+0x28>
    9148:	ebffff58 	bl	8eb0 <rpi_reset_putc>
    914c:	e59f0028 	ldr	r0, [pc, #40]	; 917c <rpi_set_output+0x40>
    9150:	e59f1028 	ldr	r1, [pc, #40]	; 9180 <rpi_set_output+0x44>
    9154:	e59f2028 	ldr	r2, [pc, #40]	; 9184 <rpi_set_output+0x48>
    9158:	e3a03020 	mov	r3, #32
    915c:	ebffff38 	bl	8e44 <printk>
    9160:	eb0000ac 	bl	9418 <clean_reboot>
    9164:	e59f301c 	ldr	r3, [pc, #28]	; 9188 <rpi_set_output+0x4c>
    9168:	e5830000 	str	r0, [r3]
    916c:	e3510000 	cmp	r1, #0
    9170:	159f3014 	ldrne	r3, [pc, #20]	; 918c <rpi_set_output+0x50>
    9174:	15831000 	strne	r1, [r3]
    9178:	e8bd8008 	pop	{r3, pc}
    917c:	0000a1f0 	strdeq	sl, [r0], -r0
    9180:	0000a1b8 			; <UNDEFINED> instruction: 0x0000a1b8
    9184:	0000a188 	andeq	sl, r0, r8, lsl #3
    9188:	00009a00 	andeq	r9, r0, r0, lsl #20
    918c:	00009a04 	andeq	r9, r0, r4, lsl #20

00009190 <va_printk>:
    9190:	e92d4ff0 	push	{r4, r5, r6, r7, r8, r9, sl, fp, lr}
    9194:	e24dd08c 	sub	sp, sp, #140	; 0x8c
    9198:	e1a0a000 	mov	sl, r0
    919c:	e1a09003 	mov	r9, r3
    91a0:	e2411001 	sub	r1, r1, #1
    91a4:	e0808001 	add	r8, r0, r1
    91a8:	e3a03000 	mov	r3, #0
    91ac:	e5c03000 	strb	r3, [r0]
    91b0:	e1a04000 	mov	r4, r0
    91b4:	e1a0b003 	mov	fp, r3
    91b8:	ea000086 	b	93d8 <va_printk+0x248>
    91bc:	e3530025 	cmp	r3, #37	; 0x25
    91c0:	12822001 	addne	r2, r2, #1
    91c4:	15c43000 	strbne	r3, [r4]
    91c8:	12844001 	addne	r4, r4, #1
    91cc:	1a000081 	bne	93d8 <va_printk+0x248>
    91d0:	e5d21001 	ldrb	r1, [r2, #1]
    91d4:	e3510025 	cmp	r1, #37	; 0x25
    91d8:	05c43000 	strbeq	r3, [r4]
    91dc:	02822002 	addeq	r2, r2, #2
    91e0:	02844001 	addeq	r4, r4, #1
    91e4:	0a00007b 	beq	93d8 <va_printk+0x248>
    91e8:	e2826001 	add	r6, r2, #1
    91ec:	e1a0700b 	mov	r7, fp
    91f0:	ea000004 	b	9208 <va_printk+0x78>
    91f4:	e0877107 	add	r7, r7, r7, lsl #2
    91f8:	e1a07087 	lsl	r7, r7, #1
    91fc:	e0877005 	add	r7, r7, r5
    9200:	e2477030 	sub	r7, r7, #48	; 0x30
    9204:	e2866001 	add	r6, r6, #1
    9208:	e5d65000 	ldrb	r5, [r6]
    920c:	e1a00005 	mov	r0, r5
    9210:	ebffff3d 	bl	8f0c <isdigit>
    9214:	e3500000 	cmp	r0, #0
    9218:	1afffff5 	bne	91f4 <va_printk+0x64>
    921c:	e357001f 	cmp	r7, #31
    9220:	9a000006 	bls	9240 <va_printk+0xb0>
    9224:	ebffff21 	bl	8eb0 <rpi_reset_putc>
    9228:	e59f01d4 	ldr	r0, [pc, #468]	; 9404 <va_printk+0x274>
    922c:	e59f11d4 	ldr	r1, [pc, #468]	; 9408 <va_printk+0x278>
    9230:	e59f21d4 	ldr	r2, [pc, #468]	; 940c <va_printk+0x27c>
    9234:	e3a03094 	mov	r3, #148	; 0x94
    9238:	ebffff01 	bl	8e44 <printk>
    923c:	eb000075 	bl	9418 <clean_reboot>
    9240:	e2455062 	sub	r5, r5, #98	; 0x62
    9244:	e3550016 	cmp	r5, #22
    9248:	979ff105 	ldrls	pc, [pc, r5, lsl #2]
    924c:	ea00004e 	b	938c <va_printk+0x1fc>
    9250:	00009338 	andeq	r9, r0, r8, lsr r3
    9254:	00009368 	andeq	r9, r0, r8, ror #6
    9258:	000092c8 	andeq	r9, r0, r8, asr #5
    925c:	0000938c 	andeq	r9, r0, ip, lsl #7
    9260:	000092ac 	andeq	r9, r0, ip, lsr #5
    9264:	0000938c 	andeq	r9, r0, ip, lsl #7
    9268:	0000938c 	andeq	r9, r0, ip, lsl #7
    926c:	0000938c 	andeq	r9, r0, ip, lsl #7
    9270:	0000938c 	andeq	r9, r0, ip, lsl #7
    9274:	0000938c 	andeq	r9, r0, ip, lsl #7
    9278:	0000938c 	andeq	r9, r0, ip, lsl #7
    927c:	0000938c 	andeq	r9, r0, ip, lsl #7
    9280:	0000938c 	andeq	r9, r0, ip, lsl #7
    9284:	0000938c 	andeq	r9, r0, ip, lsl #7
    9288:	00009314 	andeq	r9, r0, r4, lsl r3
    928c:	0000938c 	andeq	r9, r0, ip, lsl #7
    9290:	0000938c 	andeq	r9, r0, ip, lsl #7
    9294:	0000935c 	andeq	r9, r0, ip, asr r3
    9298:	0000938c 	andeq	r9, r0, ip, lsl #7
    929c:	000092f0 	strdeq	r9, [r0], -r0
    92a0:	0000938c 	andeq	r9, r0, ip, lsl #7
    92a4:	0000938c 	andeq	r9, r0, ip, lsl #7
    92a8:	00009314 	andeq	r9, r0, r4, lsl r3
    92ac:	ebfffeff 	bl	8eb0 <rpi_reset_putc>
    92b0:	e59f0158 	ldr	r0, [pc, #344]	; 9410 <va_printk+0x280>
    92b4:	e59f114c 	ldr	r1, [pc, #332]	; 9408 <va_printk+0x278>
    92b8:	e59f214c 	ldr	r2, [pc, #332]	; 940c <va_printk+0x27c>
    92bc:	e3a0309a 	mov	r3, #154	; 0x9a
    92c0:	ebfffedf 	bl	8e44 <printk>
    92c4:	eb000053 	bl	9418 <clean_reboot>
    92c8:	e5993000 	ldr	r3, [r9]
    92cc:	e2899004 	add	r9, r9, #4
    92d0:	e58d7000 	str	r7, [sp]
    92d4:	e3a02001 	mov	r2, #1
    92d8:	e58d2004 	str	r2, [sp, #4]
    92dc:	e3a0000a 	mov	r0, #10
    92e0:	e28d1008 	add	r1, sp, #8
    92e4:	e3a02080 	mov	r2, #128	; 0x80
    92e8:	ebffff27 	bl	8f8c <emit>
    92ec:	ea00002f 	b	93b0 <va_printk+0x220>
    92f0:	e5993000 	ldr	r3, [r9]
    92f4:	e2899004 	add	r9, r9, #4
    92f8:	e58d7000 	str	r7, [sp]
    92fc:	e58db004 	str	fp, [sp, #4]
    9300:	e3a0000a 	mov	r0, #10
    9304:	e28d1008 	add	r1, sp, #8
    9308:	e3a02080 	mov	r2, #128	; 0x80
    930c:	ebffff1e 	bl	8f8c <emit>
    9310:	ea000026 	b	93b0 <va_printk+0x220>
    9314:	e5993000 	ldr	r3, [r9]
    9318:	e2899004 	add	r9, r9, #4
    931c:	e58d7000 	str	r7, [sp]
    9320:	e58db004 	str	fp, [sp, #4]
    9324:	e3a00010 	mov	r0, #16
    9328:	e28d1008 	add	r1, sp, #8
    932c:	e3a02080 	mov	r2, #128	; 0x80
    9330:	ebffff15 	bl	8f8c <emit>
    9334:	ea00001d 	b	93b0 <va_printk+0x220>
    9338:	e5993000 	ldr	r3, [r9]
    933c:	e2899004 	add	r9, r9, #4
    9340:	e58d7000 	str	r7, [sp]
    9344:	e58db004 	str	fp, [sp, #4]
    9348:	e3a00002 	mov	r0, #2
    934c:	e28d1008 	add	r1, sp, #8
    9350:	e3a02080 	mov	r2, #128	; 0x80
    9354:	ebffff0c 	bl	8f8c <emit>
    9358:	ea000014 	b	93b0 <va_printk+0x220>
    935c:	e5990000 	ldr	r0, [r9]
    9360:	e2899004 	add	r9, r9, #4
    9364:	ea000011 	b	93b0 <va_printk+0x220>
    9368:	e5993000 	ldr	r3, [r9]
    936c:	e2899004 	add	r9, r9, #4
    9370:	e58d7000 	str	r7, [sp]
    9374:	e58db004 	str	fp, [sp, #4]
    9378:	e3a00008 	mov	r0, #8
    937c:	e08d1000 	add	r1, sp, r0
    9380:	e3a02080 	mov	r2, #128	; 0x80
    9384:	ebffff00 	bl	8f8c <emit>
    9388:	ea000008 	b	93b0 <va_printk+0x220>
    938c:	ebfffec7 	bl	8eb0 <rpi_reset_putc>
    9390:	e5d63000 	ldrb	r3, [r6]
    9394:	e58d3000 	str	r3, [sp]
    9398:	e59f0074 	ldr	r0, [pc, #116]	; 9414 <va_printk+0x284>
    939c:	e59f1064 	ldr	r1, [pc, #100]	; 9408 <va_printk+0x278>
    93a0:	e59f2064 	ldr	r2, [pc, #100]	; 940c <va_printk+0x27c>
    93a4:	e3a030bb 	mov	r3, #187	; 0xbb
    93a8:	ebfffea5 	bl	8e44 <printk>
    93ac:	eb000019 	bl	9418 <clean_reboot>
    93b0:	e2862001 	add	r2, r6, #1
    93b4:	ea000002 	b	93c4 <va_printk+0x234>
    93b8:	e2800001 	add	r0, r0, #1
    93bc:	e5c43000 	strb	r3, [r4]
    93c0:	e2844001 	add	r4, r4, #1
    93c4:	e1540008 	cmp	r4, r8
    93c8:	2a000002 	bcs	93d8 <va_printk+0x248>
    93cc:	e5d03000 	ldrb	r3, [r0]
    93d0:	e3530000 	cmp	r3, #0
    93d4:	1afffff7 	bne	93b8 <va_printk+0x228>
    93d8:	e5d23000 	ldrb	r3, [r2]
    93dc:	e3530000 	cmp	r3, #0
    93e0:	0a000001 	beq	93ec <va_printk+0x25c>
    93e4:	e1540008 	cmp	r4, r8
    93e8:	3affff73 	bcc	91bc <va_printk+0x2c>
    93ec:	e2840001 	add	r0, r4, #1
    93f0:	e3a03000 	mov	r3, #0
    93f4:	e5c43000 	strb	r3, [r4]
    93f8:	e06a0000 	rsb	r0, sl, r0
    93fc:	e28dd08c 	add	sp, sp, #140	; 0x8c
    9400:	e8bd8ff0 	pop	{r4, r5, r6, r7, r8, r9, sl, fp, pc}
    9404:	0000a208 	andeq	sl, r0, r8, lsl #4
    9408:	0000a1b8 			; <UNDEFINED> instruction: 0x0000a1b8
    940c:	0000a198 	muleq	r0, r8, r1
    9410:	0000a224 	andeq	sl, r0, r4, lsr #4
    9414:	0000a24c 	andeq	sl, r0, ip, asr #4

00009418 <clean_reboot>:
    9418:	e92d4008 	push	{r3, lr}
    941c:	e59f3014 	ldr	r3, [pc, #20]	; 9438 <clean_reboot+0x20>
    9420:	e5933000 	ldr	r3, [r3]
    9424:	e59f0010 	ldr	r0, [pc, #16]	; 943c <clean_reboot+0x24>
    9428:	e12fff33 	blx	r3
    942c:	e3a00064 	mov	r0, #100	; 0x64
    9430:	eb000044 	bl	9548 <delay_ms>
    9434:	eb000019 	bl	94a0 <rpi_reboot>
    9438:	00009a04 	andeq	r9, r0, r4, lsl #20
    943c:	0000a284 	andeq	sl, r0, r4, lsl #5

00009440 <_cstart>:
    9440:	e92d4008 	push	{r3, lr}
    9444:	e59f3020 	ldr	r3, [pc, #32]	; 946c <_cstart+0x2c>
    9448:	e59f2020 	ldr	r2, [pc, #32]	; 9470 <_cstart+0x30>
    944c:	e3a01000 	mov	r1, #0
    9450:	ea000001 	b	945c <_cstart+0x1c>
    9454:	e5831000 	str	r1, [r3]
    9458:	e2833004 	add	r3, r3, #4
    945c:	e1530002 	cmp	r3, r2
    9460:	3afffffb 	bcc	9454 <_cstart+0x14>
    9464:	ebfffb06 	bl	8084 <notmain>
    9468:	ebffffea 	bl	9418 <clean_reboot>
    946c:	0000a3b0 			; <UNDEFINED> instruction: 0x0000a3b0
    9470:	0000a7c0 	andeq	sl, r0, r0, asr #15

00009474 <at_user_level>:
    9474:	e10f0000 	mrs	r0, CPSR
    9478:	e200001f 	and	r0, r0, #31
    947c:	e3500010 	cmp	r0, #16
    9480:	13a00000 	movne	r0, #0
    9484:	03a00001 	moveq	r0, #1
    9488:	e12fff1e 	bx	lr

0000948c <set_user_level>:
    948c:	e10f3000 	mrs	r3, CPSR
    9490:	e3c3301f 	bic	r3, r3, #31
    9494:	e3833010 	orr	r3, r3, #16
    9498:	e129f003 	msr	CPSR_fc, r3
    949c:	e12fff1e 	bx	lr

000094a0 <rpi_reboot>:
    94a0:	e92d4008 	push	{r3, lr}
    94a4:	ebfffff2 	bl	9474 <at_user_level>
    94a8:	e3500000 	cmp	r0, #0
    94ac:	0a000000 	beq	94b4 <rpi_reboot+0x14>
    94b0:	ebfffff5 	bl	948c <set_user_level>
    94b4:	e3a0001e 	mov	r0, #30
    94b8:	eb000022 	bl	9548 <delay_ms>
    94bc:	e59f0014 	ldr	r0, [pc, #20]	; 94d8 <rpi_reboot+0x38>
    94c0:	e59f1014 	ldr	r1, [pc, #20]	; 94dc <rpi_reboot+0x3c>
    94c4:	eb00002b 	bl	9578 <PUT32>
    94c8:	e59f0010 	ldr	r0, [pc, #16]	; 94e0 <rpi_reboot+0x40>
    94cc:	e59f1010 	ldr	r1, [pc, #16]	; 94e4 <rpi_reboot+0x44>
    94d0:	eb000028 	bl	9578 <PUT32>
    94d4:	eafffffe 	b	94d4 <rpi_reboot+0x34>
    94d8:	20100024 	andscs	r0, r0, r4, lsr #32
    94dc:	5a000001 	bpl	94e8 <delay_cycles>
    94e0:	2010001c 	andscs	r0, r0, ip, lsl r0
    94e4:	5a000020 	bpl	956c <delay_sec+0x10>

000094e8 <delay_cycles>:
    94e8:	ea000001 	b	94f4 <delay_cycles+0xc>
    94ec:	e2811000 	add	r1, r1, #0
    94f0:	e1a00003 	mov	r0, r3
    94f4:	e2403001 	sub	r3, r0, #1
    94f8:	e3500000 	cmp	r0, #0
    94fc:	1afffffa 	bne	94ec <delay_cycles+0x4>
    9500:	e12fff1e 	bx	lr

00009504 <timer_get_usec_raw>:
    9504:	e92d4008 	push	{r3, lr}
    9508:	e59f0004 	ldr	r0, [pc, #4]	; 9514 <timer_get_usec_raw+0x10>
    950c:	eb000025 	bl	95a8 <GET32>
    9510:	e8bd8008 	pop	{r3, pc}
    9514:	20003004 	andcs	r3, r0, r4

00009518 <timer_get_usec>:
    9518:	e92d4008 	push	{r3, lr}
    951c:	ebfffff8 	bl	9504 <timer_get_usec_raw>
    9520:	e8bd8008 	pop	{r3, pc}

00009524 <delay_us>:
    9524:	e92d4038 	push	{r3, r4, r5, lr}
    9528:	e1a05000 	mov	r5, r0
    952c:	ebfffff9 	bl	9518 <timer_get_usec>
    9530:	e1a04000 	mov	r4, r0
    9534:	ebfffff7 	bl	9518 <timer_get_usec>
    9538:	e0640000 	rsb	r0, r4, r0
    953c:	e1500005 	cmp	r0, r5
    9540:	3afffffb 	bcc	9534 <delay_us+0x10>
    9544:	e8bd8038 	pop	{r3, r4, r5, pc}

00009548 <delay_ms>:
    9548:	e92d4008 	push	{r3, lr}
    954c:	e3a03ffa 	mov	r3, #1000	; 0x3e8
    9550:	e0000093 	mul	r0, r3, r0
    9554:	ebfffff2 	bl	9524 <delay_us>
    9558:	e8bd8008 	pop	{r3, pc}

0000955c <delay_sec>:
    955c:	e92d4008 	push	{r3, lr}
    9560:	e3a03ffa 	mov	r3, #1000	; 0x3e8
    9564:	e0000093 	mul	r0, r3, r0
    9568:	ebfffff6 	bl	9548 <delay_ms>
    956c:	e8bd8008 	pop	{r3, pc}

00009570 <put32>:
    9570:	e5801000 	str	r1, [r0]
    9574:	e12fff1e 	bx	lr

00009578 <PUT32>:
    9578:	e5801000 	str	r1, [r0]
    957c:	e12fff1e 	bx	lr

00009580 <put16>:
    9580:	e1c010b0 	strh	r1, [r0]
    9584:	e12fff1e 	bx	lr

00009588 <PUT16>:
    9588:	e1c010b0 	strh	r1, [r0]
    958c:	e12fff1e 	bx	lr

00009590 <put8>:
    9590:	e5c01000 	strb	r1, [r0]
    9594:	e12fff1e 	bx	lr

00009598 <PUT8>:
    9598:	e5c01000 	strb	r1, [r0]
    959c:	e12fff1e 	bx	lr

000095a0 <get32>:
    95a0:	e5900000 	ldr	r0, [r0]
    95a4:	e12fff1e 	bx	lr

000095a8 <GET32>:
    95a8:	e5900000 	ldr	r0, [r0]
    95ac:	e12fff1e 	bx	lr

000095b0 <GETPC>:
    95b0:	e1a0000e 	mov	r0, lr
    95b4:	e12fff1e 	bx	lr

000095b8 <dummy>:
    95b8:	e12fff1e 	bx	lr

000095bc <or_in32>:
    95bc:	e92d4070 	push	{r4, r5, r6, lr}
    95c0:	e1a04000 	mov	r4, r0
    95c4:	e1a05001 	mov	r5, r1
    95c8:	ebfffff4 	bl	95a0 <get32>
    95cc:	e1801005 	orr	r1, r0, r5
    95d0:	e1a00004 	mov	r0, r4
    95d4:	ebffffe5 	bl	9570 <put32>
    95d8:	e8bd8070 	pop	{r4, r5, r6, pc}

000095dc <uart_init>:
    95dc:	e92d4010 	push	{r4, lr}
    95e0:	e3a01002 	mov	r1, #2
    95e4:	e3a0000e 	mov	r0, #14
    95e8:	eb000051 	bl	9734 <gpio_set_function>
    95ec:	e3a01002 	mov	r1, #2
    95f0:	e3a0000f 	mov	r0, #15
    95f4:	eb00004e 	bl	9734 <gpio_set_function>
    95f8:	eb0000fa 	bl	99e8 <dev_barrier>
    95fc:	e3a01001 	mov	r1, #1
    9600:	e59f0064 	ldr	r0, [pc, #100]	; 966c <uart_init+0x90>
    9604:	ebffffec 	bl	95bc <or_in32>
    9608:	eb0000f6 	bl	99e8 <dev_barrier>
    960c:	e59f405c 	ldr	r4, [pc, #92]	; 9670 <uart_init+0x94>
    9610:	e3a01000 	mov	r1, #0
    9614:	e1a00004 	mov	r0, r4
    9618:	ebffffd4 	bl	9570 <put32>
    961c:	e3a01000 	mov	r1, #0
    9620:	e59f004c 	ldr	r0, [pc, #76]	; 9674 <uart_init+0x98>
    9624:	ebffffd1 	bl	9570 <put32>
    9628:	e3a01003 	mov	r1, #3
    962c:	e59f0044 	ldr	r0, [pc, #68]	; 9678 <uart_init+0x9c>
    9630:	ebffffce 	bl	9570 <put32>
    9634:	e3a01000 	mov	r1, #0
    9638:	e59f003c 	ldr	r0, [pc, #60]	; 967c <uart_init+0xa0>
    963c:	ebffffcb 	bl	9570 <put32>
    9640:	e3a010c7 	mov	r1, #199	; 0xc7
    9644:	e59f0034 	ldr	r0, [pc, #52]	; 9680 <uart_init+0xa4>
    9648:	ebffffc8 	bl	9570 <put32>
    964c:	e59f1030 	ldr	r1, [pc, #48]	; 9684 <uart_init+0xa8>
    9650:	e59f0030 	ldr	r0, [pc, #48]	; 9688 <uart_init+0xac>
    9654:	ebffffc5 	bl	9570 <put32>
    9658:	e3a01003 	mov	r1, #3
    965c:	e1a00004 	mov	r0, r4
    9660:	ebffffc2 	bl	9570 <put32>
    9664:	eb0000df 	bl	99e8 <dev_barrier>
    9668:	e8bd8010 	pop	{r4, pc}
    966c:	20215004 	eorcs	r5, r1, r4
    9670:	20215060 	eorcs	r5, r1, r0, rrx
    9674:	20215044 	eorcs	r5, r1, r4, asr #32
    9678:	2021504c 	eorcs	r5, r1, ip, asr #32
    967c:	20215050 	eorcs	r5, r1, r0, asr r0
    9680:	20215048 	eorcs	r5, r1, r8, asr #32
    9684:	0000010e 	andeq	r0, r0, lr, lsl #2
    9688:	20215068 	eorcs	r5, r1, r8, rrx

0000968c <uart_can_getc>:
    968c:	e92d4010 	push	{r4, lr}
    9690:	e59f0008 	ldr	r0, [pc, #8]	; 96a0 <uart_can_getc+0x14>
    9694:	ebffffc1 	bl	95a0 <get32>
    9698:	e2000001 	and	r0, r0, #1
    969c:	e8bd8010 	pop	{r4, pc}
    96a0:	20215064 	eorcs	r5, r1, r4, rrx

000096a4 <uart_can_putc>:
    96a4:	e92d4010 	push	{r4, lr}
    96a8:	e59f0010 	ldr	r0, [pc, #16]	; 96c0 <uart_can_putc+0x1c>
    96ac:	ebffffbb 	bl	95a0 <get32>
    96b0:	e3100002 	tst	r0, #2
    96b4:	13a00001 	movne	r0, #1
    96b8:	03a00000 	moveq	r0, #0
    96bc:	e8bd8010 	pop	{r4, pc}
    96c0:	20215064 	eorcs	r5, r1, r4, rrx

000096c4 <uart_getc>:
    96c4:	e92d4010 	push	{r4, lr}
    96c8:	eb0000c6 	bl	99e8 <dev_barrier>
    96cc:	ebffffee 	bl	968c <uart_can_getc>
    96d0:	e3500000 	cmp	r0, #0
    96d4:	0afffffc 	beq	96cc <uart_getc+0x8>
    96d8:	e59f0010 	ldr	r0, [pc, #16]	; 96f0 <uart_getc+0x2c>
    96dc:	ebffffaf 	bl	95a0 <get32>
    96e0:	e6ef4070 	uxtb	r4, r0
    96e4:	eb0000bf 	bl	99e8 <dev_barrier>
    96e8:	e1a00004 	mov	r0, r4
    96ec:	e8bd8010 	pop	{r4, pc}
    96f0:	20215040 	eorcs	r5, r1, r0, asr #32

000096f4 <uart_putc>:
    96f4:	e92d4010 	push	{r4, lr}
    96f8:	e1a04000 	mov	r4, r0
    96fc:	eb0000b9 	bl	99e8 <dev_barrier>
    9700:	ebffffe7 	bl	96a4 <uart_can_putc>
    9704:	e3500000 	cmp	r0, #0
    9708:	0afffffc 	beq	9700 <uart_putc+0xc>
    970c:	e6ef1074 	uxtb	r1, r4
    9710:	e59f0008 	ldr	r0, [pc, #8]	; 9720 <uart_putc+0x2c>
    9714:	ebffff95 	bl	9570 <put32>
    9718:	eb0000b2 	bl	99e8 <dev_barrier>
    971c:	e8bd8010 	pop	{r4, pc}
    9720:	20215040 	eorcs	r5, r1, r0, asr #32

00009724 <uart_has_data>:
    9724:	e92d4010 	push	{r4, lr}
    9728:	eb0000ae 	bl	99e8 <dev_barrier>
    972c:	ebffffd6 	bl	968c <uart_can_getc>
    9730:	e8bd8010 	pop	{r4, pc}

00009734 <gpio_set_function>:
    9734:	e350001f 	cmp	r0, #31
    9738:	812fff1e 	bxhi	lr
    973c:	e3d13007 	bics	r3, r1, #7
    9740:	112fff1e 	bxne	lr
    9744:	e92d4070 	push	{r4, r5, r6, lr}
    9748:	e1a05001 	mov	r5, r1
    974c:	e59f3044 	ldr	r3, [pc, #68]	; 9798 <gpio_set_function+0x64>
    9750:	e0832093 	umull	r2, r3, r3, r0
    9754:	e1a031a3 	lsr	r3, r3, #3
    9758:	e1a06003 	mov	r6, r3
    975c:	e0833103 	add	r3, r3, r3, lsl #2
    9760:	e1a02083 	lsl	r2, r3, #1
    9764:	e0403002 	sub	r3, r0, r2
    9768:	e0834083 	add	r4, r3, r3, lsl #1
    976c:	e2866302 	add	r6, r6, #134217728	; 0x8000000
    9770:	e2866702 	add	r6, r6, #524288	; 0x80000
    9774:	e1a06106 	lsl	r6, r6, #2
    9778:	e1a00006 	mov	r0, r6
    977c:	ebffff89 	bl	95a8 <GET32>
    9780:	e3a01007 	mov	r1, #7
    9784:	e1c01411 	bic	r1, r0, r1, lsl r4
    9788:	e1811415 	orr	r1, r1, r5, lsl r4
    978c:	e1a00006 	mov	r0, r6
    9790:	ebffff78 	bl	9578 <PUT32>
    9794:	e8bd8070 	pop	{r4, r5, r6, pc}
    9798:	cccccccd 	stclgt	12, cr12, [ip], {205}	; 0xcd

0000979c <gpio_set_output>:
    979c:	e92d4010 	push	{r4, lr}
    97a0:	e3a01001 	mov	r1, #1
    97a4:	ebffffe2 	bl	9734 <gpio_set_function>
    97a8:	e8bd8010 	pop	{r4, pc}

000097ac <gpio_set_on>:
    97ac:	e350001f 	cmp	r0, #31
    97b0:	812fff1e 	bxhi	lr
    97b4:	e92d4010 	push	{r4, lr}
    97b8:	e3a01001 	mov	r1, #1
    97bc:	e1a01011 	lsl	r1, r1, r0
    97c0:	e59f0004 	ldr	r0, [pc, #4]	; 97cc <gpio_set_on+0x20>
    97c4:	ebffff6b 	bl	9578 <PUT32>
    97c8:	e8bd8010 	pop	{r4, pc}
    97cc:	2020001c 	eorcs	r0, r0, ip, lsl r0

000097d0 <gpio_set_off>:
    97d0:	e350001f 	cmp	r0, #31
    97d4:	812fff1e 	bxhi	lr
    97d8:	e92d4010 	push	{r4, lr}
    97dc:	e3a01001 	mov	r1, #1
    97e0:	e1a01011 	lsl	r1, r1, r0
    97e4:	e59f0004 	ldr	r0, [pc, #4]	; 97f0 <gpio_set_off+0x20>
    97e8:	ebffff62 	bl	9578 <PUT32>
    97ec:	e8bd8010 	pop	{r4, pc}
    97f0:	20200028 	eorcs	r0, r0, r8, lsr #32

000097f4 <gpio_set_input>:
    97f4:	e92d4010 	push	{r4, lr}
    97f8:	e3a01000 	mov	r1, #0
    97fc:	ebffffcc 	bl	9734 <gpio_set_function>
    9800:	e8bd8010 	pop	{r4, pc}

00009804 <gpio_write>:
    9804:	e92d4010 	push	{r4, lr}
    9808:	e3510000 	cmp	r1, #0
    980c:	1a000001 	bne	9818 <gpio_write+0x14>
    9810:	ebffffee 	bl	97d0 <gpio_set_off>
    9814:	e8bd8010 	pop	{r4, pc}
    9818:	ebffffe3 	bl	97ac <gpio_set_on>
    981c:	e8bd8010 	pop	{r4, pc}

00009820 <gpio_read>:
    9820:	e350001f 	cmp	r0, #31
    9824:	8a000007 	bhi	9848 <gpio_read+0x28>
    9828:	e92d4010 	push	{r4, lr}
    982c:	e200401f 	and	r4, r0, #31
    9830:	e59f3018 	ldr	r3, [pc, #24]	; 9850 <gpio_read+0x30>
    9834:	e08302a0 	add	r0, r3, r0, lsr #5
    9838:	ebffff5a 	bl	95a8 <GET32>
    983c:	e1a00430 	lsr	r0, r0, r4
    9840:	e2000001 	and	r0, r0, #1
    9844:	e8bd8010 	pop	{r4, pc}
    9848:	e3e00000 	mvn	r0, #0
    984c:	e12fff1e 	bx	lr
    9850:	20200034 	eorcs	r0, r0, r4, lsr r0

00009854 <kmalloc_heap_end>:
    9854:	e59f3004 	ldr	r3, [pc, #4]	; 9860 <kmalloc_heap_end+0xc>
    9858:	e5930000 	ldr	r0, [r3]
    985c:	e12fff1e 	bx	lr
    9860:	00009a08 	andeq	r9, r0, r8, lsl #20

00009864 <kmalloc_heap_start>:
    9864:	e59f0000 	ldr	r0, [pc]	; 986c <kmalloc_heap_start+0x8>
    9868:	e12fff1e 	bx	lr
    986c:	0000a7c0 	andeq	sl, r0, r0, asr #15

00009870 <kmalloc_init_set_start>:
    9870:	e59f3038 	ldr	r3, [pc, #56]	; 98b0 <kmalloc_init_set_start+0x40>
    9874:	e5933000 	ldr	r3, [r3]
    9878:	e1500003 	cmp	r0, r3
    987c:	9a000003 	bls	9890 <kmalloc_init_set_start+0x20>
    9880:	e59f3028 	ldr	r3, [pc, #40]	; 98b0 <kmalloc_init_set_start+0x40>
    9884:	e5830000 	str	r0, [r3]
    9888:	e5830004 	str	r0, [r3, #4]
    988c:	e12fff1e 	bx	lr
    9890:	e92d4010 	push	{r4, lr}
    9894:	ebfffd85 	bl	8eb0 <rpi_reset_putc>
    9898:	e3a03016 	mov	r3, #22
    989c:	e59f2010 	ldr	r2, [pc, #16]	; 98b4 <kmalloc_init_set_start+0x44>
    98a0:	e59f1010 	ldr	r1, [pc, #16]	; 98b8 <kmalloc_init_set_start+0x48>
    98a4:	e59f0010 	ldr	r0, [pc, #16]	; 98bc <kmalloc_init_set_start+0x4c>
    98a8:	ebfffd65 	bl	8e44 <printk>
    98ac:	ebfffed9 	bl	9418 <clean_reboot>
    98b0:	00009a08 	andeq	r9, r0, r8, lsl #20
    98b4:	0000a290 	muleq	r0, r0, r2
    98b8:	0000a2c0 	andeq	sl, r0, r0, asr #5
    98bc:	0000a2cc 	andeq	sl, r0, ip, asr #5

000098c0 <kmalloc>:
    98c0:	e92d4010 	push	{r4, lr}
    98c4:	e3500000 	cmp	r0, #0
    98c8:	0a00000a 	beq	98f8 <kmalloc+0x38>
    98cc:	e2802007 	add	r2, r0, #7
    98d0:	e3c22007 	bic	r2, r2, #7
    98d4:	e59f3038 	ldr	r3, [pc, #56]	; 9914 <kmalloc+0x54>
    98d8:	e5934000 	ldr	r4, [r3]
    98dc:	e0841002 	add	r1, r4, r2
    98e0:	e5831000 	str	r1, [r3]
    98e4:	e3a01000 	mov	r1, #0
    98e8:	e1a00004 	mov	r0, r4
    98ec:	ebfffd4c 	bl	8e24 <memset>
    98f0:	e1a00004 	mov	r0, r4
    98f4:	e8bd8010 	pop	{r4, pc}
    98f8:	ebfffd6c 	bl	8eb0 <rpi_reset_putc>
    98fc:	e3a0301b 	mov	r3, #27
    9900:	e59f2010 	ldr	r2, [pc, #16]	; 9918 <kmalloc+0x58>
    9904:	e59f1010 	ldr	r1, [pc, #16]	; 991c <kmalloc+0x5c>
    9908:	e59f0010 	ldr	r0, [pc, #16]	; 9920 <kmalloc+0x60>
    990c:	ebfffd4c 	bl	8e44 <printk>
    9910:	ebfffec0 	bl	9418 <clean_reboot>
    9914:	00009a08 	andeq	r9, r0, r8, lsl #20
    9918:	0000a2a8 	andeq	sl, r0, r8, lsr #5
    991c:	0000a2c0 	andeq	sl, r0, r0, asr #5
    9920:	0000a2e8 	andeq	sl, r0, r8, ror #5

00009924 <kmalloc_init>:
    9924:	e12fff1e 	bx	lr

00009928 <kmalloc_heap_ptr>:
    9928:	e92d4010 	push	{r4, lr}
    992c:	ebffffcc 	bl	9864 <kmalloc_heap_start>
    9930:	e8bd8010 	pop	{r4, pc}

00009934 <kmalloc_aligned>:
    9934:	e92d4010 	push	{r4, lr}
    9938:	e2613000 	rsb	r3, r1, #0
    993c:	e1d12003 	bics	r2, r1, r3
    9940:	1a00000b 	bne	9974 <kmalloc_aligned+0x40>
    9944:	e59f2060 	ldr	r2, [pc, #96]	; 99ac <kmalloc_aligned+0x78>
    9948:	e5922000 	ldr	r2, [r2]
    994c:	e0812002 	add	r2, r1, r2
    9950:	e2422001 	sub	r2, r2, #1
    9954:	e0033002 	and	r3, r3, r2
    9958:	e2411001 	sub	r1, r1, #1
    995c:	e1130001 	tst	r3, r1
    9960:	1a00000a 	bne	9990 <kmalloc_aligned+0x5c>
    9964:	e59f2040 	ldr	r2, [pc, #64]	; 99ac <kmalloc_aligned+0x78>
    9968:	e5823000 	str	r3, [r2]
    996c:	ebffffd3 	bl	98c0 <kmalloc>
    9970:	e8bd8010 	pop	{r4, pc}
    9974:	ebfffd4d 	bl	8eb0 <rpi_reset_putc>
    9978:	e3a0302a 	mov	r3, #42	; 0x2a
    997c:	e59f202c 	ldr	r2, [pc, #44]	; 99b0 <kmalloc_aligned+0x7c>
    9980:	e59f102c 	ldr	r1, [pc, #44]	; 99b4 <kmalloc_aligned+0x80>
    9984:	e59f002c 	ldr	r0, [pc, #44]	; 99b8 <kmalloc_aligned+0x84>
    9988:	ebfffd2d 	bl	8e44 <printk>
    998c:	ebfffea1 	bl	9418 <clean_reboot>
    9990:	ebfffd46 	bl	8eb0 <rpi_reset_putc>
    9994:	e3a03030 	mov	r3, #48	; 0x30
    9998:	e59f2010 	ldr	r2, [pc, #16]	; 99b0 <kmalloc_aligned+0x7c>
    999c:	e59f1010 	ldr	r1, [pc, #16]	; 99b4 <kmalloc_aligned+0x80>
    99a0:	e59f0014 	ldr	r0, [pc, #20]	; 99bc <kmalloc_aligned+0x88>
    99a4:	ebfffd26 	bl	8e44 <printk>
    99a8:	ebfffe9a 	bl	9418 <clean_reboot>
    99ac:	00009a08 	andeq	r9, r0, r8, lsl #20
    99b0:	0000a2b0 			; <UNDEFINED> instruction: 0x0000a2b0
    99b4:	0000a2c0 	andeq	sl, r0, r0, asr #5
    99b8:	0000a2fc 	strdeq	sl, [r0], -ip
    99bc:	0000a35c 	andeq	sl, r0, ip, asr r3

000099c0 <kfree>:
    99c0:	e12fff1e 	bx	lr

000099c4 <kfree_all>:
    99c4:	e59f3008 	ldr	r3, [pc, #8]	; 99d4 <kfree_all+0x10>
    99c8:	e5932004 	ldr	r2, [r3, #4]
    99cc:	e5832000 	str	r2, [r3]
    99d0:	e12fff1e 	bx	lr
    99d4:	00009a08 	andeq	r9, r0, r8, lsl #20

000099d8 <kfree_after>:
    99d8:	e59f3004 	ldr	r3, [pc, #4]	; 99e4 <kfree_after+0xc>
    99dc:	e5830000 	str	r0, [r3]
    99e0:	e12fff1e 	bx	lr
    99e4:	00009a08 	andeq	r9, r0, r8, lsl #20

000099e8 <dev_barrier>:
    99e8:	ea000002 	b	99f8 <dsb>

000099ec <dmb>:
    99ec:	e3a00000 	mov	r0, #0
    99f0:	ee070fba 	mcr	15, 0, r0, cr7, cr10, {5}
    99f4:	e12fff1e 	bx	lr

000099f8 <dsb>:
    99f8:	ee070f9a 	mcr	15, 0, r0, cr7, cr10, {4}
    99fc:	e12fff1e 	bx	lr

Disassembly of section .data:

00009a00 <__data_start__>:
    9a00:	00008e9c 	muleq	r0, ip, lr

00009a04 <putk>:
    9a04:	00008ed8 	ldrdeq	r8, [r0], -r8	; <UNPREDICTABLE>

00009a08 <heap>:
    9a08:	0000a7c0 	andeq	sl, r0, r0, asr #15

00009a0c <heap_start>:
    9a0c:	0000a7c0 	andeq	sl, r0, r0, asr #15

Disassembly of section .rodata:

00009a10 <__FUNCTION__.4207>:
    9a10:	74736574 	ldrbtvc	r6, [r3], #-1396	; 0x574
    9a14:	00000000 	andeq	r0, r0, r0
    9a18:	74736574 	ldrbtvc	r6, [r3], #-1396	; 0x574
    9a1c:	61702f73 	cmnvs	r0, r3, ror pc
    9a20:	2d327472 	cfldrscs	mvf7, [r2, #-456]!	; 0xfffffe38
    9a24:	74736574 	ldrbtvc	r6, [r3], #-1396	; 0x574
    9a28:	00632e33 	rsbeq	r2, r3, r3, lsr lr
    9a2c:	74204347 	strtvc	r4, [r0], #-839	; 0x347
    9a30:	3a747365 	bcc	1d267cc <__bss_end__+0x1d1c00c>
    9a34:	65686320 	strbvs	r6, [r8, #-800]!	; 0x320
    9a38:	6e696b63 	vnmulvs.f64	d22, d9, d19
    9a3c:	68742067 	ldmdavs	r4!, {r0, r1, r2, r5, r6, sp}^
    9a40:	61207461 	teqvs	r0, r1, ror #8
    9a44:	6e696c20 	cdpvs	12, 6, cr6, cr9, cr0, {1}
    9a48:	2064656b 	rsbcs	r6, r4, fp, ror #10
    9a4c:	7473696c 	ldrbtvc	r6, [r3], #-2412	; 0x96c
    9a50:	20736920 	rsbscs	r6, r3, r0, lsr #18
    9a54:	63637573 	cmnvs	r3, #482344960	; 0x1cc00000
    9a58:	66737365 	ldrbtvs	r7, [r3], -r5, ror #6
    9a5c:	796c6c75 	stmdbvc	ip!, {r0, r2, r4, r5, r6, sl, fp, sp, lr}^
    9a60:	61727420 	cmnvs	r2, r0, lsr #8
    9a64:	73726576 	cmnvc	r2, #494927872	; 0x1d800000
    9a68:	0a2e6465 	beq	ba2c04 <__bss_end__+0xb98444>
    9a6c:	00000000 	andeq	r0, r0, r0
    9a70:	7473616c 	ldrbtvc	r6, [r3], #-364	; 0x16c
    9a74:	6c6c6120 	stfvse	f6, [ip], #-128	; 0xffffff80
    9a78:	3d20636f 	stccc	3, cr6, [r0, #-444]!	; 0xfffffe44
    9a7c:	000a7025 	andeq	r7, sl, r5, lsr #32

00009a80 <__FUNCTION__.4274>:
    9a80:	63656863 	cmnvs	r5, #6488064	; 0x630000
    9a84:	64685f6b 	strbtvs	r5, [r8], #-3947	; 0xf6b
    9a88:	00000072 	andeq	r0, r0, r2, ror r0

00009a8c <__FUNCTION__.4264>:
    9a8c:	695f6b63 	ldmdbvs	pc, {r0, r1, r5, r6, r8, r9, fp, sp, lr}^	; <UNPREDICTABLE>
    9a90:	0074696e 	rsbseq	r6, r4, lr, ror #18

00009a94 <__FUNCTION__.4300>:
    9a94:	72666b63 	rsbvc	r6, r6, #101376	; 0x18c00
    9a98:	00006565 	andeq	r6, r0, r5, ror #10

00009a9c <__FUNCTION__.4309>:
    9a9c:	6c616b63 	stclvs	11, cr6, [r1], #-396	; 0xfffffe74
    9aa0:	00636f6c 	rsbeq	r6, r3, ip, ror #30

00009aa4 <__FUNCTION__.4317>:
    9aa4:	665f6b63 	ldrbvs	r6, [pc], -r3, ror #22
    9aa8:	74737269 	ldrbtvc	r7, [r3], #-617	; 0x269
    9aac:	7264685f 	rsbvc	r6, r4, #6225920	; 0x5f0000
    9ab0:	00000000 	andeq	r0, r0, r0

00009ab4 <__FUNCTION__.4322>:
    9ab4:	6e5f6b63 	vnmlavs.f64	d22, d15, d19
    9ab8:	5f747865 	svcpl	0x00747865
    9abc:	00726468 	rsbseq	r6, r2, r8, ror #8
    9ac0:	43415254 	movtmi	r5, #4692	; 0x1254
    9ac4:	00003a45 	andeq	r3, r0, r5, asr #20
    9ac8:	4f525245 	svcmi	0x00525245
    9acc:	00003a52 	andeq	r3, r0, r2, asr sl
    9ad0:	636f6c62 	cmnvs	pc, #25088	; 0x6200
    9ad4:	7025206b 	eorvc	r2, r5, fp, rrx
    9ad8:	726f6320 	rsbvc	r6, pc, #32, 6	; 0x80000000
    9adc:	74707572 	ldrbtvc	r7, [r0], #-1394	; 0x572
    9ae0:	61206465 	teqvs	r0, r5, ror #8
    9ae4:	666f2074 			; <UNDEFINED> instruction: 0x666f2074
    9ae8:	74657366 	strbtvc	r7, [r5], #-870	; 0x366
    9aec:	0a642520 	beq	1912f74 <__bss_end__+0x19087b4>
    9af0:	00000000 	andeq	r0, r0, r0
    9af4:	79626e09 	stmdbvc	r2!, {r0, r3, r9, sl, fp, sp, lr}^
    9af8:	3d736574 	cfldr64cc	mvdx6, [r3, #-464]!	; 0xfffffe30
    9afc:	000a6425 	andeq	r6, sl, r5, lsr #8
    9b00:	6f6c4209 	svcvs	0x006c4209
    9b04:	61206b63 	teqvs	r0, r3, ror #22
    9b08:	636f6c6c 	cmnvs	pc, #108, 24	; 0x6c00
    9b0c:	64657461 	strbtvs	r7, [r5], #-1121	; 0x461
    9b10:	3a746120 	bcc	1d21f98 <__bss_end__+0x1d177d8>
    9b14:	3a732520 	bcc	1cd2f9c <__bss_end__+0x1cc87dc>
    9b18:	253a7325 	ldrcs	r7, [sl, #-805]!	; 0x325
    9b1c:	00000a64 	andeq	r0, r0, r4, ror #20
    9b20:	6f6c4209 	svcvs	0x006c4209
    9b24:	66206b63 	strtvs	r6, [r0], -r3, ror #22
    9b28:	64656572 	strbtvs	r6, [r5], #-1394	; 0x572
    9b2c:	3a746120 	bcc	1d21fb4 <__bss_end__+0x1d177f4>
    9b30:	3a732520 	bcc	1cd2fb8 <__bss_end__+0x1cc87f8>
    9b34:	253a7325 	ldrcs	r7, [sl, #-805]!	; 0x325
    9b38:	00000a64 	andeq	r0, r0, r4, ror #20
    9b3c:	494e4150 	stmdbmi	lr, {r4, r6, r8, lr}^
    9b40:	73253a43 	teqvc	r5, #274432	; 0x43000
    9b44:	3a73253a 	bcc	1cd3034 <__bss_end__+0x1cc8874>
    9b48:	683a6425 	ldmdavs	sl!, {r0, r2, r5, sl, sp, lr}
    9b4c:	635f7264 	cmpvs	pc, #100, 4	; 0x40000006
    9b50:	6d75736b 	ldclvs	3, cr7, [r5, #-428]!	; 0xfffffe54
    9b54:	6c61765f 	stclvs	6, cr7, [r1], #-380	; 0xfffffe84
    9b58:	203d3d20 	eorscs	r3, sp, r0, lsr #26
    9b5c:	633e2d68 	teqvs	lr, #104, 26	; 0x1a00
    9b60:	6d75736b 	ldclvs	3, cr7, [r5, #-428]!	; 0xfffffe54
    9b64:	0000000a 	andeq	r0, r0, sl
    9b68:	6c616b63 	stclvs	11, cr6, [r1], #-396	; 0xfffffe74
    9b6c:	2e636f6c 	cdpcs	15, 6, cr6, cr3, cr12, {3}
    9b70:	00000063 	andeq	r0, r0, r3, rrx
    9b74:	494e4150 	stmdbmi	lr, {r4, r6, r8, lr}^
    9b78:	73253a43 	teqvc	r5, #274432	; 0x43000
    9b7c:	3a73253a 	bcc	1cd306c <__bss_end__+0x1cc88ac>
    9b80:	683a6425 	ldmdavs	sl!, {r0, r2, r5, sl, sp, lr}
    9b84:	74733e2d 	ldrbtvc	r3, [r3], #-3629	; 0xe2d
    9b88:	20657461 	rsbcs	r7, r5, r1, ror #8
    9b8c:	41203d3d 	teqmi	r0, sp, lsr sp
    9b90:	434f4c4c 	movtmi	r4, #64588	; 0xfc4c
    9b94:	7c204445 	cfstrsvc	mvf4, [r0], #-276	; 0xfffffeec
    9b98:	2d68207c 	stclcs	0, cr2, [r8, #-496]!	; 0xfffffe10
    9b9c:	6174733e 	cmnvs	r4, lr, lsr r3
    9ba0:	3d206574 	cfstr32cc	mvfx6, [r0, #-464]!	; 0xfffffe30
    9ba4:	5246203d 	subpl	r2, r6, #61	; 0x3d
    9ba8:	0a444545 	beq	111b0c4 <__bss_end__+0x1110904>
    9bac:	00000000 	andeq	r0, r0, r0
    9bb0:	494e4150 	stmdbmi	lr, {r4, r6, r8, lr}^
    9bb4:	73253a43 	teqvc	r5, #274432	; 0x43000
    9bb8:	3a73253a 	bcc	1cd30a8 <__bss_end__+0x1cc88e8>
    9bbc:	613a6425 	teqvs	sl, r5, lsr #8
    9bc0:	6e67696c 	cdpvs	9, 6, cr6, cr7, cr12, {3}
    9bc4:	68286465 	stmdavs	r8!, {r0, r2, r5, r6, sl, sp, lr}
    9bc8:	5f706165 	svcpl	0x00706165
    9bcc:	72617473 	rsbvc	r7, r1, #1929379840	; 0x73000000
    9bd0:	38202c74 	stmdacc	r0!, {r2, r4, r5, r6, sl, fp, sp}
    9bd4:	00000a29 	andeq	r0, r0, r9, lsr #20
    9bd8:	657a6973 	ldrbvs	r6, [sl, #-2419]!	; 0x973
    9bdc:	6820666f 	stmdavs	r0!, {r0, r1, r2, r3, r5, r6, r9, sl, sp, lr}
    9be0:	253d7264 	ldrcs	r7, [sp, #-612]!	; 0x264
    9be4:	72202c64 	eorvc	r2, r0, #100, 24	; 0x6400
    9be8:	6f7a6465 	svcvs	0x007a6465
    9bec:	253d656e 	ldrcs	r6, [sp, #-1390]!	; 0x56e
    9bf0:	00000a64 	andeq	r0, r0, r4, ror #20
    9bf4:	4f525245 	svcmi	0x00525245
    9bf8:	73253a52 	teqvc	r5, #335872	; 0x52000
    9bfc:	3a73253a 	bcc	1cd30ec <__bss_end__+0x1cc892c>
    9c00:	203a6425 	eorscs	r6, sl, r5, lsr #8
    9c04:	534c4146 	movtpl	r4, #49478	; 0xc146
    9c08:	683c2845 	ldmdavs	ip!, {r0, r2, r6, fp, sp}
    9c0c:	3e706165 	rpwccsz	f6, f0, f5
    9c10:	6e203a29 	vmulvs.f32	s6, s0, s19
    9c14:	6920746f 	stmdbvs	r0!, {r0, r1, r2, r3, r5, r6, sl, ip, sp, lr}
    9c18:	6974696e 	ldmdbvs	r4!, {r1, r2, r3, r5, r6, r8, fp, sp, lr}^
    9c1c:	7a696c61 	bvc	1a64da8 <__bss_end__+0x1a5a5e8>
    9c20:	0a3f6465 	beq	fe2dbc <__bss_end__+0xfd85fc>
    9c24:	00000000 	andeq	r0, r0, r0
    9c28:	65657266 	strbvs	r7, [r5, #-614]!	; 0x266
    9c2c:	20676e69 	rsbcs	r6, r7, r9, ror #28
    9c30:	000a7025 	andeq	r7, sl, r5, lsr #32
    9c34:	6f6c6c61 	svcvs	0x006c6c61
    9c38:	69746163 	ldmdbvs	r4!, {r0, r1, r5, r6, r8, sp, lr}^
    9c3c:	2520676e 	strcs	r6, [r0, #-1902]!	; 0x76e
    9c40:	79622064 	stmdbvc	r2!, {r2, r5, r6, sp}^
    9c44:	0a736574 	beq	1ce321c <__bss_end__+0x1cd8a5c>
    9c48:	00000000 	andeq	r0, r0, r0
    9c4c:	43415254 	movtmi	r5, #4692	; 0x1254
    9c50:	52453a45 	subpl	r3, r5, #282624	; 0x45000
    9c54:	00524f52 	subseq	r4, r2, r2, asr pc
    9c58:	657a6973 	ldrbvs	r6, [sl, #-2419]!	; 0x973
    9c5c:	65766f20 	ldrbvs	r6, [r6, #-3872]!	; 0xf20
    9c60:	6f6c6672 	svcvs	0x006c6672
    9c64:	3a646577 	bcc	1923248 <__bss_end__+0x1918a88>
    9c68:	20642520 	rsbcs	r2, r4, r0, lsr #10
    9c6c:	65747962 	ldrbvs	r7, [r4, #-2402]!	; 0x962
    9c70:	73692073 	cmnvc	r9, #115	; 0x73
    9c74:	6f6f7420 	svcvs	0x006f7420
    9c78:	72616c20 	rsbvc	r6, r1, #32, 24	; 0x2000
    9c7c:	000a6567 	andeq	r6, sl, r7, ror #10
    9c80:	494e4150 	stmdbmi	lr, {r4, r6, r8, lr}^
    9c84:	73253a43 	teqvc	r5, #274432	; 0x43000
    9c88:	3a73253a 	bcc	1cd3178 <__bss_end__+0x1cc89b8>
    9c8c:	733a6425 	teqvc	sl, #620756992	; 0x25000000
    9c90:	20657a69 	rsbcs	r7, r5, r9, ror #20
    9c94:	7265766f 	rsbvc	r7, r5, #116391936	; 0x6f00000
    9c98:	776f6c66 	strbvc	r6, [pc, -r6, ror #24]!
    9c9c:	203a6465 	eorscs	r6, sl, r5, ror #8
    9ca0:	62206425 	eorvs	r6, r0, #620756992	; 0x25000000
    9ca4:	73657479 	cmnvc	r5, #2030043136	; 0x79000000
    9ca8:	20736920 	rsbscs	r6, r3, r0, lsr #18
    9cac:	206f6f74 	rsbcs	r6, pc, r4, ror pc	; <UNPREDICTABLE>
    9cb0:	6772616c 	ldrbvs	r6, [r2, -ip, ror #2]!
    9cb4:	000a0a65 	andeq	r0, sl, r5, ror #20
    9cb8:	2074756f 	rsbscs	r7, r4, pc, ror #10
    9cbc:	6d20666f 	stcvs	6, cr6, [r0, #-444]!	; 0xfffffe44
    9cc0:	726f6d65 	rsbvc	r6, pc, #6464	; 0x1940
    9cc4:	20202179 	eorcs	r2, r0, r9, ror r1
    9cc8:	65766168 	ldrbvs	r6, [r6, #-360]!	; 0x168
    9ccc:	6c6e6f20 	stclvs	15, cr6, [lr], #-128	; 0xffffff80
    9cd0:	64252079 	strtvs	r2, [r5], #-121	; 0x79
    9cd4:	66656c20 	strbtvs	r6, [r5], -r0, lsr #24
    9cd8:	6e202c74 	mcrvs	12, 1, r2, cr0, cr4, {3}
    9cdc:	20646565 	rsbcs	r6, r4, r5, ror #10
    9ce0:	000a6425 	andeq	r6, sl, r5, lsr #8
    9ce4:	494e4150 	stmdbmi	lr, {r4, r6, r8, lr}^
    9ce8:	73253a43 	teqvc	r5, #274432	; 0x43000
    9cec:	3a73253a 	bcc	1cd31dc <__bss_end__+0x1cc8a1c>
    9cf0:	6f3a6425 	svcvs	0x003a6425
    9cf4:	6f207475 	svcvs	0x00207475
    9cf8:	656d2066 	strbvs	r2, [sp, #-102]!	; 0x66
    9cfc:	79726f6d 	ldmdbvc	r2!, {r0, r2, r3, r5, r6, r8, r9, sl, fp, sp, lr}^
    9d00:	68202021 	stmdavs	r0!, {r0, r5, sp}
    9d04:	20657661 	rsbcs	r7, r5, r1, ror #12
    9d08:	796c6e6f 	stmdbvc	ip!, {r0, r1, r2, r3, r5, r6, r9, sl, fp, sp, lr}^
    9d0c:	20642520 	rsbcs	r2, r4, r0, lsr #10
    9d10:	7466656c 	strbtvc	r6, [r6], #-1388	; 0x56c
    9d14:	656e202c 	strbvs	r2, [lr, #-44]!	; 0x2c
    9d18:	25206465 	strcs	r6, [r0, #-1125]!	; 0x465
    9d1c:	000a0a64 	andeq	r0, sl, r4, ror #20
    9d20:	494e4150 	stmdbmi	lr, {r4, r6, r8, lr}^
    9d24:	73253a43 	teqvc	r5, #274432	; 0x43000
    9d28:	3a73253a 	bcc	1cd3218 <__bss_end__+0x1cc8a58>
    9d2c:	633a6425 	teqvs	sl, #620756992	; 0x25000000
    9d30:	6b636568 	blvs	18e32d8 <__bss_end__+0x18d8b18>
    9d34:	7264685f 	rsbvc	r6, r4, #6225920	; 0x5f0000
    9d38:	0a296828 	beq	a63de0 <__bss_end__+0xa59620>
    9d3c:	00000000 	andeq	r0, r0, r0
    9d40:	494e4150 	stmdbmi	lr, {r4, r6, r8, lr}^
    9d44:	73253a43 	teqvc	r5, #274432	; 0x43000
    9d48:	3a73253a 	bcc	1cd3238 <__bss_end__+0x1cc8a78>
    9d4c:	633a6425 	teqvs	sl, #620756992	; 0x25000000
    9d50:	6b636568 	blvs	18e32f8 <__bss_end__+0x18d8b38>
    9d54:	6f6c625f 	svcvs	0x006c625f
    9d58:	68286b63 	stmdavs	r8!, {r0, r1, r5, r6, r8, r9, fp, sp, lr}
    9d5c:	00000a29 	andeq	r0, r0, r9, lsr #20
    9d60:	6c616b63 	stclvs	11, cr6, [r1], #-396	; 0xfffffe74
    9d64:	3a636f6c 	bcc	18e5b1c <__bss_end__+0x18db35c>
    9d68:	6f6c6c61 	svcvs	0x006c6c61
    9d6c:	65746163 	ldrbvs	r6, [r4, #-355]!	; 0x163
    9d70:	64252064 	strtvs	r2, [r5], #-100	; 0x64
    9d74:	74796220 	ldrbtvc	r6, [r9], #-544	; 0x220
    9d78:	202c7365 	eorcs	r7, ip, r5, ror #6
    9d7c:	746f7428 	strbtvc	r7, [pc], #-1064	; 9d84 <__FUNCTION__.4322+0x2d0>
    9d80:	253d6c61 	ldrcs	r6, [sp, #-3169]!	; 0xc61
    9d84:	202c2964 	eorcs	r2, ip, r4, ror #18
    9d88:	3d727470 	cfldrdcc	mvd7, [r2, #-448]!	; 0xfffffe40
    9d8c:	000a7025 	andeq	r7, sl, r5, lsr #32
    9d90:	494e4150 	stmdbmi	lr, {r4, r6, r8, lr}^
    9d94:	73253a43 	teqvc	r5, #274432	; 0x43000
    9d98:	3a73253a 	bcc	1cd3288 <__bss_end__+0x1cc8ac8>
    9d9c:	633a6425 	teqvs	sl, #620756992	; 0x25000000
    9da0:	6b636568 	blvs	18e3348 <__bss_end__+0x18d8b88>
    9da4:	7264685f 	rsbvc	r6, r4, #6225920	; 0x5f0000
    9da8:	72756328 	rsbsvc	r6, r5, #40, 6	; 0xa0000000
    9dac:	64685f72 	strbtvs	r5, [r8], #-3954	; 0xf72
    9db0:	000a2972 	andeq	r2, sl, r2, ror r9
    9db4:	494e4150 	stmdbmi	lr, {r4, r6, r8, lr}^
    9db8:	73253a43 	teqvc	r5, #274432	; 0x43000
    9dbc:	3a73253a 	bcc	1cd32ac <__bss_end__+0x1cc8aec>
    9dc0:	633a6425 	teqvs	sl, #620756992	; 0x25000000
    9dc4:	6b636568 	blvs	18e336c <__bss_end__+0x18d8bac>
    9dc8:	7264685f 	rsbvc	r6, r4, #6225920	; 0x5f0000
    9dcc:	78656e28 	stmdavc	r5!, {r3, r5, r9, sl, fp, sp, lr}^
    9dd0:	64685f74 	strbtvs	r5, [r8], #-3956	; 0xf74
    9dd4:	000a2972 	andeq	r2, sl, r2, ror r9
    9dd8:	6e696f67 	cdpvs	15, 6, cr6, cr9, cr7, {3}
    9ddc:	6f742067 	svcvs	0x00742067
    9de0:	65686320 	strbvs	r6, [r8, #-800]!	; 0x320
    9de4:	68206b63 	stmdavs	r0!, {r0, r1, r5, r6, r8, r9, fp, sp, lr}
    9de8:	3a706165 	bcc	1c22384 <__bss_end__+0x1c17bc4>
    9dec:	20642520 	rsbcs	r2, r4, r0, lsr #10
    9df0:	65747962 	ldrbvs	r7, [r4, #-2402]!	; 0x962
    9df4:	6c612073 	stclvs	0, cr2, [r1], #-460	; 0xfffffe34
    9df8:	61636f6c 	cmnvs	r3, ip, ror #30
    9dfc:	2c646574 	cfstr64cs	mvdx6, [r4], #-464	; 0xfffffe30
    9e00:	20642520 	rsbcs	r2, r4, r0, lsr #10
    9e04:	65747962 	ldrbvs	r7, [r4, #-2402]!	; 0x962
    9e08:	656c2073 	strbvs	r2, [ip, #-115]!	; 0x73
    9e0c:	000a7466 	andeq	r7, sl, r6, ror #8
    9e10:	64616568 	strbtvs	r6, [r1], #-1384	; 0x568
    9e14:	69207265 	stmdbvs	r0!, {r0, r2, r5, r6, r9, ip, sp, lr}
    9e18:	6f632073 	svcvs	0x00632073
    9e1c:	70757272 	rsbsvc	r7, r5, r2, ror r2
    9e20:	00646574 	rsbeq	r6, r4, r4, ror r5
    9e24:	6f725709 	svcvs	0x00725709
    9e28:	62206574 	eorvs	r6, r0, #116, 10	; 0x1d000000
    9e2c:	6b636f6c 	blvs	18e5be4 <__bss_end__+0x18db424>
    9e30:	74666120 	strbtvc	r6, [r6], #-288	; 0x120
    9e34:	66207265 	strtvs	r7, [r0], -r5, ror #4
    9e38:	21656572 	smccs	22098	; 0x5652
    9e3c:	0000000a 	andeq	r0, r0, sl
    9e40:	63656863 	cmnvs	r5, #6488064	; 0x630000
    9e44:	2064656b 	rsbcs	r6, r4, fp, ror #10
    9e48:	62206425 	eorvs	r6, r0, #620756992	; 0x25000000
    9e4c:	6b636f6c 	blvs	18e5c04 <__bss_end__+0x18db444>
    9e50:	64202c73 	strtvs	r2, [r0], #-3187	; 0xc73
    9e54:	63657465 	cmnvs	r5, #1694498816	; 0x65000000
    9e58:	20646574 	rsbcs	r6, r4, r4, ror r5
    9e5c:	65206425 	strvs	r6, [r0, #-1061]!	; 0x425
    9e60:	726f7272 	rsbvc	r7, pc, #536870919	; 0x20000007
    9e64:	00000a73 	andeq	r0, r0, r3, ror sl
    9e68:	43435553 	movtmi	r5, #13651	; 0x3553
    9e6c:	3a535345 	bcc	14deb88 <__bss_end__+0x14d43c8>
    9e70:	65686320 	strbvs	r6, [r8, #-800]!	; 0x320
    9e74:	64656b63 	strbtvs	r6, [r5], #-2915	; 0xb63
    9e78:	20642520 	rsbcs	r2, r4, r0, lsr #10
    9e7c:	636f6c62 	cmnvs	pc, #25088	; 0x6200
    9e80:	202c736b 	eorcs	r7, ip, fp, ror #6
    9e84:	65746564 	ldrbvs	r6, [r4, #-1380]!	; 0x564
    9e88:	64657463 	strbtvs	r7, [r5], #-1123	; 0x463
    9e8c:	206f6e20 	rsbcs	r6, pc, r0, lsr #28
    9e90:	6f727265 	svcvs	0x00727265
    9e94:	000a7372 	andeq	r7, sl, r2, ror r3

00009e98 <__FUNCTION__.4273>:
    9e98:	6b72616d 	blvs	1ca2454 <__bss_end__+0x1c97c94>
    9e9c:	00000000 	andeq	r0, r0, r0

00009ea0 <__FUNCTION__.4300>:
    9ea0:	6b72616d 	blvs	1ca245c <__bss_end__+0x1c97c9c>
    9ea4:	6c6c615f 	stfvse	f6, [ip], #-380	; 0xfffffe84
    9ea8:	00000000 	andeq	r0, r0, r0

00009eac <__FUNCTION__.4332>:
    9eac:	65657773 	strbvs	r7, [r5, #-1907]!	; 0x773
    9eb0:	72665f70 	rsbvc	r5, r6, #112, 30	; 0x1c0
    9eb4:	00006565 	andeq	r6, r0, r5, ror #10

00009eb8 <__FUNCTION__.4316>:
    9eb8:	63656863 	cmnvs	r5, #6488064	; 0x630000
    9ebc:	6f6e5f6b 	svcvs	0x006e5f6b
    9ec0:	61656c5f 	cmnvs	r5, pc, asr ip
    9ec4:	0000006b 	andeq	r0, r0, fp, rrx

00009ec8 <__FUNCTION__.4320>:
    9ec8:	63656863 	cmnvs	r5, #6488064	; 0x630000
    9ecc:	68735f6b 	ldmdavs	r3!, {r0, r1, r3, r5, r6, r8, r9, sl, fp, ip, lr}^
    9ed0:	646c756f 	strbtvs	r7, [ip], #-1391	; 0x56f
    9ed4:	61656c5f 	cmnvs	r5, pc, asr ip
    9ed8:	0000006b 	andeq	r0, r0, fp, rrx

00009edc <__FUNCTION__.4325>:
    9edc:	6c706d69 	ldclvs	13, cr6, [r0], #-420	; 0xfffffe5c
    9ee0:	6e656d65 	cdpvs	13, 6, cr6, cr5, cr5, {3}
    9ee4:	68745f74 	ldmdavs	r4!, {r2, r4, r5, r6, r8, r9, sl, fp, ip, lr}^
    9ee8:	00007369 	andeq	r7, r0, r9, ror #6
    9eec:	2d2d2d2d 	stccs	13, cr2, [sp, #-180]!	; 0xffffff4c
    9ef0:	2d2d2d2d 	stccs	13, cr2, [sp, #-180]!	; 0xffffff4c
    9ef4:	2d2d2d2d 	stccs	13, cr2, [sp, #-180]!	; 0xffffff4c
    9ef8:	2d2d2d2d 	stccs	13, cr2, [sp, #-180]!	; 0xffffff4c
    9efc:	2d2d2d2d 	stccs	13, cr2, [sp, #-180]!	; 0xffffff4c
    9f00:	2d2d2d2d 	stccs	13, cr2, [sp, #-180]!	; 0xffffff4c
    9f04:	2d2d2d2d 	stccs	13, cr2, [sp, #-180]!	; 0xffffff4c
    9f08:	2d2d2d2d 	stccs	13, cr2, [sp, #-180]!	; 0xffffff4c
    9f0c:	2d2d2d2d 	stccs	13, cr2, [sp, #-180]!	; 0xffffff4c
    9f10:	2d2d2d2d 	stccs	13, cr2, [sp, #-180]!	; 0xffffff4c
    9f14:	2d2d2d2d 	stccs	13, cr2, [sp, #-180]!	; 0xffffff4c
    9f18:	2d2d2d2d 	stccs	13, cr2, [sp, #-180]!	; 0xffffff4c
    9f1c:	2d2d2d2d 	stccs	13, cr2, [sp, #-180]!	; 0xffffff4c
    9f20:	2d2d2d2d 	stccs	13, cr2, [sp, #-180]!	; 0xffffff4c
    9f24:	00000a2d 	andeq	r0, r0, sp, lsr #20
    9f28:	63656863 	cmnvs	r5, #6488064	; 0x630000
    9f2c:	676e696b 	strbvs	r6, [lr, -fp, ror #18]!
    9f30:	726f6620 	rsbvc	r6, pc, #32, 12	; 0x2000000
    9f34:	61656c20 	cmnvs	r5, r0, lsr #24
    9f38:	0a3a736b 	beq	ea6cec <__bss_end__+0xe9c52c>
    9f3c:	00000000 	andeq	r0, r0, r0
    9f40:	3a434709 	bcc	10dbb6c <__bss_end__+0x10d13ac>
    9f44:	63656843 	cmnvs	r5, #4390912	; 0x430000
    9f48:	2064656b 	rsbcs	r6, r4, fp, ror #10
    9f4c:	62206425 	eorvs	r6, r0, #620756992	; 0x25000000
    9f50:	6b636f6c 	blvs	18e5d08 <__bss_end__+0x18db548>
    9f54:	000a2e73 	andeq	r2, sl, r3, ror lr
    9f58:	43470909 	movtmi	r0, #30985	; 0x7909
    9f5c:	4355533a 	cmpmi	r5, #-402653184	; 0xe8000000
    9f60:	53534543 	cmppl	r3, #281018368	; 0x10c00000
    9f64:	6f4e203a 	svcvs	0x004e203a
    9f68:	61656c20 	cmnvs	r5, r0, lsr #24
    9f6c:	6620736b 	strtvs	r7, [r0], -fp, ror #6
    9f70:	646e756f 	strbtvs	r7, [lr], #-1391	; 0x56f
    9f74:	00000a21 	andeq	r0, r0, r1, lsr #20
    9f78:	2d2d2d2d 	stccs	13, cr2, [sp, #-180]!	; 0xffffff4c
    9f7c:	2d2d2d2d 	stccs	13, cr2, [sp, #-180]!	; 0xffffff4c
    9f80:	2d2d2d2d 	stccs	13, cr2, [sp, #-180]!	; 0xffffff4c
    9f84:	2d2d2d2d 	stccs	13, cr2, [sp, #-180]!	; 0xffffff4c
    9f88:	2d2d2d2d 	stccs	13, cr2, [sp, #-180]!	; 0xffffff4c
    9f8c:	2d2d2d2d 	stccs	13, cr2, [sp, #-180]!	; 0xffffff4c
    9f90:	2d2d2d2d 	stccs	13, cr2, [sp, #-180]!	; 0xffffff4c
    9f94:	2d2d2d2d 	stccs	13, cr2, [sp, #-180]!	; 0xffffff4c
    9f98:	2d2d2d2d 	stccs	13, cr2, [sp, #-180]!	; 0xffffff4c
    9f9c:	2d2d2d2d 	stccs	13, cr2, [sp, #-180]!	; 0xffffff4c
    9fa0:	2d2d2d2d 	stccs	13, cr2, [sp, #-180]!	; 0xffffff4c
    9fa4:	2d2d2d2d 	stccs	13, cr2, [sp, #-180]!	; 0xffffff4c
    9fa8:	2d2d2d2d 	stccs	13, cr2, [sp, #-180]!	; 0xffffff4c
    9fac:	2d2d2d2d 	stccs	13, cr2, [sp, #-180]!	; 0xffffff4c
    9fb0:	000a2d2d 	andeq	r2, sl, sp, lsr #26
    9fb4:	494e4150 	stmdbmi	lr, {r4, r6, r8, lr}^
    9fb8:	73253a43 	teqvc	r5, #274432	; 0x43000
    9fbc:	3a73253a 	bcc	1cd34ac <__bss_end__+0x1cc8cec>
    9fc0:	703a6425 	eorsvc	r6, sl, r5, lsr #8
    9fc4:	000a653c 	andeq	r6, sl, ip, lsr r5
    9fc8:	672d6b63 	strvs	r6, [sp, -r3, ror #22]!
    9fcc:	00632e63 	rsbeq	r2, r3, r3, ror #28
    9fd0:	494e4150 	stmdbmi	lr, {r4, r6, r8, lr}^
    9fd4:	73253a43 	teqvc	r5, #274432	; 0x43000
    9fd8:	3a73253a 	bcc	1cd34c8 <__bss_end__+0x1cc8d08>
    9fdc:	613a6425 	teqvs	sl, r5, lsr #8
    9fe0:	6e67696c 	cdpvs	9, 6, cr6, cr7, cr12, {3}
    9fe4:	70286465 	eorvc	r6, r8, r5, ror #8
    9fe8:	0a29342c 	beq	a570a0 <__bss_end__+0xa4c8e0>
    9fec:	00000000 	andeq	r0, r0, r0
    9ff0:	494e4150 	stmdbmi	lr, {r4, r6, r8, lr}^
    9ff4:	73253a43 	teqvc	r5, #274432	; 0x43000
    9ff8:	3a73253a 	bcc	1cd34e8 <__bss_end__+0x1cc8d28>
    9ffc:	613a6425 	teqvs	sl, r5, lsr #8
    a000:	6e67696c 	cdpvs	9, 6, cr6, cr7, cr12, {3}
    a004:	65286465 	strvs	r6, [r8, #-1125]!	; 0x465
    a008:	0a29342c 	beq	a570c0 <__bss_end__+0xa4c900>
    a00c:	00000000 	andeq	r0, r0, r0
    a010:	494e4150 	stmdbmi	lr, {r4, r6, r8, lr}^
    a014:	73253a43 	teqvc	r5, #274432	; 0x43000
    a018:	3a73253a 	bcc	1cd3508 <__bss_end__+0x1cc8d48>
    a01c:	723a6425 	eorsvc	r6, sl, #620756992	; 0x25000000
    a020:	5b736765 	blpl	1ce3dbc <__bss_end__+0x1cd95fc>
    a024:	3d205d30 	stccc	13, cr5, [r0, #-192]!	; 0xffffff40
    a028:	7528203d 	strvc	r2, [r8, #-61]!	; 0x3d
    a02c:	33746e69 	cmncc	r4, #1680	; 0x690
    a030:	29745f32 	ldmdbcs	r4!, {r1, r4, r5, r8, r9, sl, fp, ip, lr}^
    a034:	67657226 	strbvs	r7, [r5, -r6, lsr #4]!
    a038:	5d305b73 	fldmdbxpl	r0!, {d5-d61}	;@ Deprecated
    a03c:	0000000a 	andeq	r0, r0, sl
    a040:	706d6f63 	rsbvc	r6, sp, r3, ror #30
    a044:	69746361 	ldmdbvs	r4!, {r0, r5, r6, r8, r9, sp, lr}^
    a048:	0a3a676e 	beq	ea3e08 <__bss_end__+0xe99648>
    a04c:	00000000 	andeq	r0, r0, r0
    a050:	494e4150 	stmdbmi	lr, {r4, r6, r8, lr}^
    a054:	73253a43 	teqvc	r5, #274432	; 0x43000
    a058:	3a73253a 	bcc	1cd3548 <__bss_end__+0x1cc8d88>
    a05c:	693a6425 	ldmdbvs	sl!, {r0, r2, r5, sl, sp, lr}
    a060:	656c706d 	strbvs	r7, [ip, #-109]!	; 0x6d
    a064:	746e656d 	strbtvc	r6, [lr], #-1389	; 0x56d
    a068:	69687420 	stmdbvs	r8!, {r5, sl, ip, sp, lr}^
    a06c:	75662073 	strbvc	r2, [r6, #-115]!	; 0x73
    a070:	6974636e 	ldmdbvs	r4!, {r1, r2, r3, r5, r6, r8, r9, sp, lr}^
    a074:	0a216e6f 	beq	865a38 <__bss_end__+0x85b278>
    a078:	0000000a 	andeq	r0, r0, sl
    a07c:	494e4150 	stmdbmi	lr, {r4, r6, r8, lr}^
    a080:	73253a43 	teqvc	r5, #274432	; 0x43000
    a084:	3a73253a 	bcc	1cd3574 <__bss_end__+0x1cc8db4>
    a088:	473a6425 	ldrmi	r6, [sl, -r5, lsr #8]!
    a08c:	69203a43 	stmdbvs	r0!, {r0, r1, r6, r9, fp, ip, sp}
    a090:	6c61766e 	stclvs	6, cr7, [r1], #-440	; 0xfffffe48
    a094:	65206469 	strvs	r6, [r0, #-1129]!	; 0x469
    a098:	726f7272 	rsbvc	r7, pc, #536870919	; 0x20000007
    a09c:	0a0a2121 	beq	292528 <__bss_end__+0x287d68>
    a0a0:	00000000 	andeq	r0, r0, r0
    a0a4:	203a4347 	eorscs	r4, sl, r7, asr #6
    a0a8:	43435553 	movtmi	r5, #13651	; 0x3553
    a0ac:	20535345 	subscs	r5, r3, r5, asr #6
    a0b0:	70616568 	rsbvc	r6, r1, r8, ror #10
    a0b4:	65686320 	strbvs	r6, [r8, #-800]!	; 0x320
    a0b8:	64656b63 	strbtvs	r6, [r5], #-2915	; 0xb63
    a0bc:	74756f20 	ldrbtvc	r6, [r5], #-3872	; 0xf20
    a0c0:	0000000a 	andeq	r0, r0, sl
    a0c4:	494e4150 	stmdbmi	lr, {r4, r6, r8, lr}^
    a0c8:	73253a43 	teqvc	r5, #274432	; 0x43000
    a0cc:	3a73253a 	bcc	1cd35bc <__bss_end__+0x1cc8dfc>
    a0d0:	473a6425 	ldrmi	r6, [sl, -r5, lsr #8]!
    a0d4:	73203a43 	teqvc	r0, #274432	; 0x43000
    a0d8:	6c756f68 	ldclvs	15, cr6, [r5], #-416	; 0xfffffe60
    a0dc:	61682064 	cmnvs	r8, r4, rrx
    a0e0:	6e206576 	mcrvs	5, 1, r6, cr0, cr6, {3}
    a0e4:	656c206f 	strbvs	r2, [ip, #-111]!	; 0x6f
    a0e8:	21736b61 	cmncs	r3, r1, ror #22
    a0ec:	00000a0a 	andeq	r0, r0, sl, lsl #20
    a0f0:	203a4347 	eorscs	r4, sl, r7, asr #6
    a0f4:	43435553 	movtmi	r5, #13651	; 0x3553
    a0f8:	3a535345 	bcc	14dee14 <__bss_end__+0x14d4654>
    a0fc:	206f6e20 	rsbcs	r6, pc, r0, lsr #28
    a100:	6b61656c 	blvs	18636b8 <__bss_end__+0x1858ef8>
    a104:	000a2173 	andeq	r2, sl, r3, ror r1
    a108:	494e4150 	stmdbmi	lr, {r4, r6, r8, lr}^
    a10c:	73253a43 	teqvc	r5, #274432	; 0x43000
    a110:	3a73253a 	bcc	1cd3600 <__bss_end__+0x1cc8e40>
    a114:	473a6425 	ldrmi	r6, [sl, -r5, lsr #8]!
    a118:	73203a43 	teqvc	r0, #274432	; 0x43000
    a11c:	6c756f68 	ldclvs	15, cr6, [r5], #-416	; 0xfffffe60
    a120:	61682064 	cmnvs	r8, r4, rrx
    a124:	6c206576 	cfstr32vs	mvfx6, [r0], #-472	; 0xfffffe28
    a128:	736b6165 	cmnvc	fp, #1073741849	; 0x40000019
    a12c:	000a0a21 	andeq	r0, sl, r1, lsr #20
    a130:	203a4347 	eorscs	r4, sl, r7, asr #6
    a134:	43435553 	movtmi	r5, #13651	; 0x3553
    a138:	3a535345 	bcc	14dee54 <__bss_end__+0x14d4694>
    a13c:	756f6620 	strbvc	r6, [pc, #-1568]!	; 9b24 <__FUNCTION__.4322+0x70>
    a140:	2520646e 	strcs	r6, [r0, #-1134]!	; 0x46e
    a144:	656c2064 	strbvs	r2, [ip, #-100]!	; 0x64
    a148:	21736b61 	cmncs	r3, r1, ror #22
    a14c:	0000000a 	andeq	r0, r0, sl
    a150:	494e4150 	stmdbmi	lr, {r4, r6, r8, lr}^
    a154:	73253a43 	teqvc	r5, #274432	; 0x43000
    a158:	3a73253a 	bcc	1cd3648 <__bss_end__+0x1cc8e88>
    a15c:	643a6425 	ldrtvs	r6, [sl], #-1061	; 0x425
    a160:	6e206469 	cdpvs	4, 2, cr6, cr0, cr9, {3}
    a164:	6920746f 	stmdbvs	r0!, {r0, r1, r2, r3, r5, r6, sl, ip, sp, lr}
    a168:	656c706d 	strbvs	r7, [ip, #-109]!	; 0x6d
    a16c:	746e656d 	strbtvc	r6, [lr], #-1389	; 0x56d
    a170:	6d756420 	cfldrdvs	mvd6, [r5, #-128]!	; 0xffffff80
    a174:	65725f70 	ldrbvs	r5, [r2, #-3952]!	; 0xf70
    a178:	0a217367 	beq	866f1c <__bss_end__+0x85c75c>
    a17c:	0000000a 	andeq	r0, r0, sl

0000a180 <__FUNCTION__.4237>:
    a180:	74696d65 	strbtvc	r6, [r9], #-3429	; 0xd65
    a184:	00000000 	andeq	r0, r0, r0

0000a188 <__FUNCTION__.4185>:
    a188:	5f697072 	svcpl	0x00697072
    a18c:	5f746573 	svcpl	0x00746573
    a190:	7074756f 	rsbsvc	r7, r4, pc, ror #10
    a194:	00007475 	andeq	r7, r0, r5, ror r4

0000a198 <__FUNCTION__.4259>:
    a198:	705f6176 	subsvc	r6, pc, r6, ror r1	; <UNPREDICTABLE>
    a19c:	746e6972 	strbtvc	r6, [lr], #-2418	; 0x972
    a1a0:	0000006b 	andeq	r0, r0, fp, rrx
    a1a4:	494e4150 	stmdbmi	lr, {r4, r6, r8, lr}^
    a1a8:	73253a43 	teqvc	r5, #274432	; 0x43000
    a1ac:	3a73253a 	bcc	1cd369c <__bss_end__+0x1cc8edc>
    a1b0:	303a6425 	eorscc	r6, sl, r5, lsr #8
    a1b4:	0000000a 	andeq	r0, r0, sl
    a1b8:	6362696c 	cmnvs	r2, #108, 18	; 0x1b0000
    a1bc:	2d61762f 	stclcs	6, cr7, [r1, #-188]!	; 0xffffff44
    a1c0:	6e697270 	mcrvs	2, 3, r7, cr9, cr0, {3}
    a1c4:	632e6b74 	teqvs	lr, #116, 22	; 0x1d000
    a1c8:	00000000 	andeq	r0, r0, r0
    a1cc:	33323130 	teqcc	r2, #48, 2
    a1d0:	37363534 			; <UNDEFINED> instruction: 0x37363534
    a1d4:	00003938 	andeq	r3, r0, r8, lsr r9
    a1d8:	33323130 	teqcc	r2, #48, 2
    a1dc:	37363534 			; <UNDEFINED> instruction: 0x37363534
    a1e0:	62613938 	rsbvs	r3, r1, #56, 18	; 0xe0000
    a1e4:	66656463 	strbtvs	r6, [r5], -r3, ror #8
    a1e8:	00000000 	andeq	r0, r0, r0
    a1ec:	00003130 	andeq	r3, r0, r0, lsr r1
    a1f0:	494e4150 	stmdbmi	lr, {r4, r6, r8, lr}^
    a1f4:	73253a43 	teqvc	r5, #274432	; 0x43000
    a1f8:	3a73253a 	bcc	1cd36e8 <__bss_end__+0x1cc8f28>
    a1fc:	703a6425 	eorsvc	r6, sl, r5, lsr #8
    a200:	5f637475 	svcpl	0x00637475
    a204:	000a7066 	andeq	r7, sl, r6, rrx
    a208:	494e4150 	stmdbmi	lr, {r4, r6, r8, lr}^
    a20c:	73253a43 	teqvc	r5, #274432	; 0x43000
    a210:	3a73253a 	bcc	1cd3700 <__bss_end__+0x1cc8f40>
    a214:	773a6425 	ldrvc	r6, [sl, -r5, lsr #8]!
    a218:	68746469 	ldmdavs	r4!, {r0, r3, r5, r6, sl, sp, lr}^
    a21c:	33203c20 	teqcc	r0, #32, 24	; 0x2000
    a220:	00000a32 	andeq	r0, r0, r2, lsr sl
    a224:	494e4150 	stmdbmi	lr, {r4, r6, r8, lr}^
    a228:	73253a43 	teqvc	r5, #274432	; 0x43000
    a22c:	3a73253a 	bcc	1cd371c <__bss_end__+0x1cc8f5c>
    a230:	663a6425 	ldrtvs	r6, [sl], -r5, lsr #8
    a234:	74616f6c 	strbtvc	r6, [r1], #-3948	; 0xf6c
    a238:	746f6e20 	strbtvc	r6, [pc], #-3616	; a240 <__FUNCTION__.4259+0xa8>
    a23c:	616e6520 	cmnvs	lr, r0, lsr #10
    a240:	64656c62 	strbtvs	r6, [r5], #-3170	; 0xc62
    a244:	0a212121 	beq	8526d0 <__bss_end__+0x847f10>
    a248:	00000000 	andeq	r0, r0, r0
    a24c:	494e4150 	stmdbmi	lr, {r4, r6, r8, lr}^
    a250:	73253a43 	teqvc	r5, #274432	; 0x43000
    a254:	3a73253a 	bcc	1cd3744 <__bss_end__+0x1cc8f84>
    a258:	703a6425 	eorsvc	r6, sl, r5, lsr #8
    a25c:	746e6972 	strbtvc	r6, [lr], #-2418	; 0x972
    a260:	6e203a6b 	vnmulvs.f32	s6, s0, s23
    a264:	6820746f 	stmdavs	r0!, {r0, r1, r2, r3, r5, r6, sl, ip, sp, lr}
    a268:	6c646e61 	stclvs	14, cr6, [r4], #-388	; 0xfffffe7c
    a26c:	20676e69 	rsbcs	r6, r7, r9, ror #28
    a270:	63657073 	cmnvs	r5, #115	; 0x73
    a274:	65696669 	strbvs	r6, [r9, #-1641]!	; 0x669
    a278:	25272072 	strcs	r2, [r7, #-114]!	; 0x72
    a27c:	0a0a2763 	beq	294010 <__bss_end__+0x289850>
    a280:	00000000 	andeq	r0, r0, r0
    a284:	454e4f44 	strbmi	r4, [lr, #-3908]	; 0xf44
    a288:	0a212121 	beq	852714 <__bss_end__+0x847f54>
    a28c:	00000000 	andeq	r0, r0, r0

0000a290 <__FUNCTION__.4237>:
    a290:	6c616d6b 	stclvs	13, cr6, [r1], #-428	; 0xfffffe54
    a294:	5f636f6c 	svcpl	0x00636f6c
    a298:	74696e69 	strbtvc	r6, [r9], #-3689	; 0xe69
    a29c:	7465735f 	strbtvc	r7, [r5], #-863	; 0x35f
    a2a0:	6174735f 	cmnvs	r4, pc, asr r3
    a2a4:	00007472 	andeq	r7, r0, r2, ror r4

0000a2a8 <__FUNCTION__.4241>:
    a2a8:	6c616d6b 	stclvs	13, cr6, [r1], #-428	; 0xfffffe54
    a2ac:	00636f6c 	rsbeq	r6, r3, ip, ror #30

0000a2b0 <__FUNCTION__.4253>:
    a2b0:	6c616d6b 	stclvs	13, cr6, [r1], #-428	; 0xfffffe54
    a2b4:	5f636f6c 	svcpl	0x00636f6c
    a2b8:	67696c61 	strbvs	r6, [r9, -r1, ror #24]!
    a2bc:	0064656e 	rsbeq	r6, r4, lr, ror #10
    a2c0:	6c616d6b 	stclvs	13, cr6, [r1], #-428	; 0xfffffe54
    a2c4:	2e636f6c 	cdpcs	15, 6, cr6, cr3, cr12, {3}
    a2c8:	00000063 	andeq	r0, r0, r3, rrx
    a2cc:	494e4150 	stmdbmi	lr, {r4, r6, r8, lr}^
    a2d0:	73253a43 	teqvc	r5, #274432	; 0x43000
    a2d4:	3a73253a 	bcc	1cd37c4 <__bss_end__+0x1cc9004>
    a2d8:	613a6425 	teqvs	sl, r5, lsr #8
    a2dc:	20726464 	rsbscs	r6, r2, r4, ror #8
    a2e0:	6568203e 	strbvs	r2, [r8, #-62]!	; 0x3e
    a2e4:	000a7061 	andeq	r7, sl, r1, rrx
    a2e8:	494e4150 	stmdbmi	lr, {r4, r6, r8, lr}^
    a2ec:	73253a43 	teqvc	r5, #274432	; 0x43000
    a2f0:	3a73253a 	bcc	1cd37e0 <__bss_end__+0x1cc9020>
    a2f4:	733a6425 	teqvc	sl, #620756992	; 0x25000000
    a2f8:	00000a7a 	andeq	r0, r0, sl, ror sl
    a2fc:	4f525245 	svcmi	0x00525245
    a300:	73253a52 	teqvc	r5, #335872	; 0x52000
    a304:	3a73253a 	bcc	1cd37f4 <__bss_end__+0x1cc9034>
    a308:	203a6425 	eorscs	r6, sl, r5, lsr #8
    a30c:	534c4146 	movtpl	r4, #49478	; 0xc146
    a310:	283c2845 	ldmdacs	ip!, {r0, r2, r6, fp, sp}
    a314:	6c612828 	stclvs	8, cr2, [r1], #-160	; 0xffffff60
    a318:	6d6e6769 	stclvs	7, cr6, [lr, #-420]!	; 0xfffffe5c
    a31c:	29746e65 	ldmdbcs	r4!, {r0, r2, r5, r6, r9, sl, fp, sp, lr}^
    a320:	61282d26 	teqvs	r8, r6, lsr #26
    a324:	6e67696c 	cdpvs	9, 6, cr6, cr7, cr12, {3}
    a328:	746e656d 	strbtvc	r6, [lr], #-1389	; 0x56d
    a32c:	3d202929 	stccc	9, cr2, [r0, #-164]!	; 0xffffff5c
    a330:	6128203d 	teqvs	r8, sp, lsr r0
    a334:	6e67696c 	cdpvs	9, 6, cr6, cr7, cr12, {3}
    a338:	746e656d 	strbtvc	r6, [lr], #-1389	; 0x56d
    a33c:	293e2929 	ldmdbcs	lr!, {r0, r3, r5, r8, fp, sp}
    a340:	7361203a 	cmnvc	r1, #58	; 0x3a
    a344:	696d7573 	stmdbvs	sp!, {r0, r1, r4, r5, r6, r8, sl, ip, sp, lr}^
    a348:	7020676e 	eorvc	r6, r0, lr, ror #14
    a34c:	7265776f 	rsbvc	r7, r5, #29097984	; 0x1bc0000
    a350:	20666f20 	rsbcs	r6, r6, r0, lsr #30
    a354:	0a6f7774 	beq	1be812c <__bss_end__+0x1bdd96c>
    a358:	00000000 	andeq	r0, r0, r0
    a35c:	4f525245 	svcmi	0x00525245
    a360:	73253a52 	teqvc	r5, #335872	; 0x52000
    a364:	3a73253a 	bcc	1cd3854 <__bss_end__+0x1cc9094>
    a368:	203a6425 	eorscs	r6, sl, r5, lsr #8
    a36c:	534c4146 	movtpl	r4, #49478	; 0xc146
    a370:	283c2845 	ldmdacs	ip!, {r0, r2, r6, fp, sp}
    a374:	29682828 	stmdbcs	r8!, {r3, r5, fp, sp}^
    a378:	28202620 	stmdacs	r0!, {r5, r9, sl, sp}
    a37c:	70797428 	rsbsvc	r7, r9, r8, lsr #8
    a380:	28666f65 	stmdacs	r6!, {r0, r2, r5, r6, r8, r9, sl, fp, sp, lr}^
    a384:	28292968 	stmdacs	r9!, {r3, r5, r6, r8, fp, sp}
    a388:	67696c61 	strbvs	r6, [r9, -r1, ror #24]!
    a38c:	6e656d6e 	cdpvs	13, 6, cr6, cr5, cr14, {3}
    a390:	2d202974 	stccs	9, cr2, [r0, #-464]!	; 0xfffffe30
    a394:	29293120 	stmdbcs	r9!, {r5, r8, ip, sp}
    a398:	203d3d20 	eorscs	r3, sp, r0, lsr #26
    a39c:	293e2930 	ldmdbcs	lr!, {r4, r5, r8, fp, sp}
    a3a0:	6d69203a 	stclvs	0, cr2, [r9, #-232]!	; 0xffffff18
    a3a4:	73736f70 	cmnvc	r3, #112, 30	; 0x1c0
    a3a8:	656c6269 	strbvs	r6, [ip, #-617]!	; 0x269
    a3ac:	0000000a 	andeq	r0, r0, sl

Disassembly of section .bss:

0000a3b0 <__bss_start__>:
    a3b0:	00000000 	andeq	r0, r0, r0

0000a3b4 <heap>:
    a3b4:	00000000 	andeq	r0, r0, r0

0000a3b8 <heap_end>:
    a3b8:	00000000 	andeq	r0, r0, r0

0000a3bc <buf.4185>:
	...

Disassembly of section .ARM.attributes:

00000000 <.ARM.attributes>:
   0:	00002a41 	andeq	r2, r0, r1, asr #20
   4:	61656100 	cmnvs	r5, r0, lsl #2
   8:	01006962 	tsteq	r0, r2, ror #18
   c:	00000020 	andeq	r0, r0, r0, lsr #32
  10:	4b5a3605 	blmi	168d82c <__bss_end__+0x168306c>
  14:	08070600 	stmdaeq	r7, {r9, sl}
  18:	12010901 	andne	r0, r1, #16384	; 0x4000
  1c:	15011404 	strne	r1, [r1, #-1028]	; 0x404
  20:	18031701 	stmdane	r3, {r0, r8, r9, sl, ip}
  24:	22011a01 	andcs	r1, r1, #4096	; 0x1000
  28:	Address 0x0000000000000028 is out of bounds.


Disassembly of section .comment:

00000000 <.comment>:
   0:	3a434347 	bcc	10d0d24 <__bss_end__+0x10c6564>
   4:	4e472820 	cdpmi	8, 4, cr2, cr7, cr0, {1}
   8:	34202955 	strtcc	r2, [r0], #-2389	; 0x955
   c:	332e382e 	teqcc	lr, #3014656	; 0x2e0000
  10:	43434700 	movtmi	r4, #14080	; 0x3700
  14:	3128203a 	teqcc	r8, sl, lsr r0
  18:	2e363a35 	mrccs	10, 1, r3, cr6, cr5, {1}
  1c:	2b312e33 	blcs	c4b8f0 <__bss_end__+0xc41130>
  20:	326e7673 	rsbcc	r7, lr, #120586240	; 0x7300000
  24:	33303335 	teqcc	r0, #-738197504	; 0xd4000000
  28:	62312d39 	eorsvs	r2, r1, #3648	; 0xe40
  2c:	646c6975 	strbtvs	r6, [ip], #-2421	; 0x975
  30:	36202931 			; <UNDEFINED> instruction: 0x36202931
  34:	312e332e 	teqcc	lr, lr, lsr #6
  38:	31303220 	teqcc	r0, r0, lsr #4
  3c:	32363037 	eorscc	r3, r6, #55	; 0x37
  40:	Address 0x0000000000000040 is out of bounds.


Disassembly of section .debug_info:

00000000 <.debug_info>:
       0:	000002af 	andeq	r0, r0, pc, lsr #5
       4:	00000004 	andeq	r0, r0, r4
       8:	01040000 	mrseq	r0, (UNDEF: 4)
       c:	0000005f 	andeq	r0, r0, pc, asr r0
      10:	0000cc01 	andeq	ip, r0, r1, lsl #24
      14:	00000f00 	andeq	r0, r0, r0, lsl #30
      18:	00801000 	addeq	r1, r0, r0
      1c:	0000b400 	andeq	fp, r0, r0, lsl #8
      20:	00000000 	andeq	r0, r0, r0
      24:	05040200 	streq	r0, [r4, #-512]	; 0x200
      28:	00746e69 	rsbseq	r6, r4, r9, ror #28
      2c:	00000003 	andeq	r0, r0, r3
      30:	37d40200 	ldrbcc	r0, [r4, r0, lsl #4]
      34:	04000000 	streq	r0, [r0], #-0
      38:	01340704 	teqeq	r4, r4, lsl #14
      3c:	01040000 	mrseq	r0, (UNDEF: 4)
      40:	0000e206 	andeq	lr, r0, r6, lsl #4
      44:	05020400 	streq	r0, [r2, #-1024]	; 0x400
      48:	00000158 	andeq	r0, r0, r8, asr r1
      4c:	4f050404 	svcmi	0x00050404
      50:	04000001 	streq	r0, [r0], #-1
      54:	014a0508 	cmpeq	sl, r8, lsl #10
      58:	01040000 	mrseq	r0, (UNDEF: 4)
      5c:	0000e008 	andeq	lr, r0, r8
      60:	07020400 	streq	r0, [r2, -r0, lsl #8]
      64:	000000ee 	andeq	r0, r0, lr, ror #1
      68:	00016203 	andeq	r6, r1, r3, lsl #4
      6c:	73340300 	teqvc	r4, #0, 6
      70:	04000000 	streq	r0, [r0], #-0
      74:	012f0704 	teqeq	pc, r4, lsl #14
      78:	08040000 	stmdaeq	r4, {}	; <UNPREDICTABLE>
      7c:	00012a07 	andeq	r2, r1, r7, lsl #20
      80:	07040400 	streq	r0, [r4, -r0, lsl #8]
      84:	00000141 	andeq	r0, r0, r1, asr #2
      88:	01040405 	tsteq	r4, r5, lsl #8
      8c:	0000e908 	andeq	lr, r0, r8, lsl #18
      90:	97040600 	strls	r0, [r4, -r0, lsl #12]
      94:	07000000 	streq	r0, [r0, -r0]
      98:	0000008a 	andeq	r0, r0, sl, lsl #1
      9c:	00011d08 	andeq	r1, r1, r8, lsl #26
      a0:	880b0100 	stmdahi	fp, {r8}
      a4:	10000000 	andne	r0, r0, r0
      a8:	74000080 	strvc	r0, [r0], #-128	; 0x80
      ac:	01000000 	mrseq	r0, (UNDEF: 0)
      b0:	00016a9c 	muleq	r1, ip, sl
      b4:	050f0900 	streq	r0, [pc, #-2304]	; fffff7bc <__bss_end__+0xffff4ffc>
      b8:	01080000 	mrseq	r0, (UNDEF: 8)
      bc:	0000d80c 	andeq	sp, r0, ip, lsl #16
      c0:	00780a00 	rsbseq	r0, r8, r0, lsl #20
      c4:	00250d01 	eoreq	r0, r5, r1, lsl #26
      c8:	0b000000 	bleq	d0 <_start-0x7f30>
      cc:	00000a07 	andeq	r0, r0, r7, lsl #20
      d0:	016a0e01 	cmneq	sl, r1, lsl #28
      d4:	00040000 	andeq	r0, r4, r0
      d8:	0100680c 	tsteq	r0, ip, lsl #16
      dc:	00016a0f 	andeq	r6, r1, pc, lsl #20
      e0:	00000000 	andeq	r0, r0, r0
      e4:	01100d00 	tsteq	r0, r0, lsl #26
      e8:	01800000 	orreq	r0, r0, r0
      ec:	03050000 	movweq	r0, #20480	; 0x5000
      f0:	00009a10 	andeq	r9, r0, r0, lsl sl
      f4:	0000000e 	andeq	r0, r0, lr
      f8:	00016000 	andeq	r6, r1, r0
      fc:	00690c00 	rsbeq	r0, r9, r0, lsl #24
     100:	00251101 	eoreq	r1, r5, r1, lsl #2
     104:	00350000 	eorseq	r0, r5, r0
     108:	180f0000 	stmdane	pc, {}	; <UNPREDICTABLE>
     10c:	0c000000 	stceq	0, cr0, [r0], {-0}
     110:	12010065 	andne	r0, r1, #101	; 0x65
     114:	0000016a 	andeq	r0, r0, sl, ror #2
     118:	00000054 	andeq	r0, r0, r4, asr r0
     11c:	00804810 	addeq	r4, r0, r0, lsl r8
     120:	00021a00 	andeq	r1, r2, r0, lsl #20
     124:	00014200 	andeq	r4, r1, r0, lsl #4
     128:	53011100 	movwpl	r1, #4352	; 0x1100
     12c:	11007902 	tstne	r0, r2, lsl #18
     130:	7a025201 	bvc	9493c <__bss_end__+0x8a17c>
     134:	51011100 	mrspl	r1, (UNDEF: 17)
     138:	11007b02 	tstne	r0, r2, lsl #22
     13c:	78025001 	stmdavc	r2, {r0, ip, lr}
     140:	58120000 	ldmdapl	r2, {}	; <UNPREDICTABLE>
     144:	3e000080 	cdpcc	0, 0, cr0, cr0, cr0, {4}
     148:	11000002 	tstne	r0, r2
     14c:	78025201 	stmdavc	r2, {r0, r9, ip, lr}
     150:	51011100 	mrspl	r1, (UNDEF: 17)
     154:	11007702 	tstne	r0, r2, lsl #14
     158:	74025001 	strvc	r5, [r2], #-1
     15c:	00000000 	andeq	r0, r0, r0
     160:	00807413 	addeq	r7, r0, r3, lsl r4
     164:	00025d00 	andeq	r5, r2, r0, lsl #26
     168:	04060000 	streq	r0, [r6], #-0
     16c:	000000b5 	strheq	r0, [r0], -r5
     170:	00008a14 	andeq	r8, r0, r4, lsl sl
     174:	00018000 	andeq	r8, r1, r0
     178:	00811500 	addeq	r1, r1, r0, lsl #10
     17c:	00040000 	andeq	r0, r4, r0
     180:	00017007 	andeq	r7, r1, r7
     184:	00b61600 	adcseq	r1, r6, r0, lsl #12
     188:	23010000 	movwcs	r0, #4096	; 0x1000
     18c:	00008084 	andeq	r8, r0, r4, lsl #1
     190:	00000040 	andeq	r0, r0, r0, asr #32
     194:	021a9c01 	andseq	r9, sl, #256	; 0x100
     198:	6e170000 	cdpvs	0, 1, cr0, cr7, cr0, {0}
     19c:	37280100 	strcc	r0, [r8, -r0, lsl #2]!
     1a0:	00000000 	andeq	r0, r0, r0
     1a4:	10001000 	andne	r1, r0, r0
     1a8:	00008090 	muleq	r0, r0, r0
     1ac:	00000264 	andeq	r0, r0, r4, ror #4
     1b0:	000001be 			; <UNDEFINED> instruction: 0x000001be
     1b4:	05500111 	ldrbeq	r0, [r0, #-273]	; 0x111
     1b8:	009a2c03 	addseq	r2, sl, r3, lsl #24
     1bc:	98100000 	ldmdals	r0, {}	; <UNPREDICTABLE>
     1c0:	7a000080 	bvc	3c8 <_start-0x7c38>
     1c4:	d3000002 	movwle	r0, #2
     1c8:	11000001 	tstne	r0, r1
     1cc:	40035001 	andmi	r5, r3, r1
     1d0:	10002440 	andne	r2, r0, r0, asr #8
     1d4:	000080a0 	andeq	r8, r0, r0, lsr #1
     1d8:	0000028b 	andeq	r0, r0, fp, lsl #5
     1dc:	000001e8 	andeq	r0, r0, r8, ror #3
     1e0:	03500111 	cmpeq	r0, #1073741828	; 0x40000004
     1e4:	00244040 	eoreq	r4, r4, r0, asr #32
     1e8:	0080a810 	addeq	sl, r0, r0, lsl r8
     1ec:	0002a000 	andeq	sl, r2, r0
     1f0:	0001fd00 	andeq	pc, r1, r0, lsl #26
     1f4:	51011100 	mrspl	r1, (UNDEF: 17)
     1f8:	24404003 	strbcs	r4, [r0], #-3
     1fc:	80ac1300 	adchi	r1, ip, r0, lsl #6
     200:	009c0000 	addseq	r0, ip, r0
     204:	b8120000 	ldmdalt	r2, {}	; <UNPREDICTABLE>
     208:	64000080 	strvs	r0, [r0], #-128	; 0x80
     20c:	11000002 	tstne	r0, r2
     210:	03055001 	movweq	r5, #20481	; 0x5001
     214:	00009a70 	andeq	r9, r0, r0, ror sl
     218:	07180000 	ldreq	r0, [r8, -r0]
     21c:	04000000 	streq	r0, [r0], #-0
     220:	00008811 	andeq	r8, r0, r1, lsl r8
     224:	00023e00 	andeq	r3, r2, r0, lsl #28
     228:	00681900 	rsbeq	r1, r8, r0, lsl #18
     22c:	91190000 	tstls	r9, r0
     230:	19000000 	stmdbne	r0, {}	; <UNPREDICTABLE>
     234:	00000091 	muleq	r0, r1, r0
     238:	00003719 	andeq	r3, r0, r9, lsl r7
     23c:	09180000 	ldmdbeq	r8, {}	; <UNPREDICTABLE>
     240:	05000001 	streq	r0, [r0, #-1]
     244:	0000881b 	andeq	r8, r0, fp, lsl r8
     248:	00025d00 	andeq	r5, r2, r0, lsl #26
     24c:	00881900 	addeq	r1, r8, r0, lsl #18
     250:	25190000 	ldrcs	r0, [r9, #-0]
     254:	19000000 	stmdbne	r0, {}	; <UNPREDICTABLE>
     258:	0000002c 	andeq	r0, r0, ip, lsr #32
     25c:	00be1a00 	adcseq	r1, lr, r0, lsl #20
     260:	39040000 	stmdbcc	r4, {}	; <UNPREDICTABLE>
     264:	00050318 	andeq	r0, r5, r8, lsl r3
     268:	25290600 	strcs	r0, [r9, #-1536]!	; 0x600
     26c:	7a000000 	bvc	274 <_start-0x7d8c>
     270:	19000002 	stmdbne	r0, {r1}
     274:	00000091 	muleq	r0, r1, r0
     278:	6b1c001b 	blvs	7002ec <__bss_end__+0x6f5b2c>
     27c:	06000001 	streq	r0, [r0], -r1
     280:	00028b72 	andeq	r8, r2, r2, ror fp
     284:	00371900 	eorseq	r1, r7, r0, lsl #18
     288:	18000000 	stmdane	r0, {}	; <UNPREDICTABLE>
     28c:	00000101 	andeq	r0, r0, r1, lsl #2
     290:	00886c06 	addeq	r6, r8, r6, lsl #24
     294:	02a00000 	adceq	r0, r0, #0
     298:	37190000 	ldrcc	r0, [r9, -r0]
     29c:	00000000 	andeq	r0, r0, r0
     2a0:	0001221d 	andeq	r2, r1, sp, lsl r2
     2a4:	190b0400 	stmdbne	fp, {sl}
     2a8:	00000088 	andeq	r0, r0, r8, lsl #1
     2ac:	00003719 	andeq	r3, r0, r9, lsl r7
     2b0:	9b000000 	blls	2b8 <_start-0x7d48>
     2b4:	0400000f 	streq	r0, [r0], #-15
     2b8:	00018300 	andeq	r8, r1, r0, lsl #6
     2bc:	5f010400 	svcpl	0x00010400
     2c0:	01000000 	mrseq	r0, (UNDEF: 0)
     2c4:	00000264 	andeq	r0, r0, r4, ror #4
     2c8:	0000000f 	andeq	r0, r0, pc
     2cc:	000080c4 	andeq	r8, r0, r4, asr #1
     2d0:	000007b8 			; <UNDEFINED> instruction: 0x000007b8
     2d4:	00000196 	muleq	r0, r6, r1
     2d8:	69050402 	stmdbvs	r5, {r1, sl}
     2dc:	0300746e 	movweq	r7, #1134	; 0x46e
     2e0:	00000000 	andeq	r0, r0, r0
     2e4:	0037d403 	eorseq	sp, r7, r3, lsl #8
     2e8:	04040000 	streq	r0, [r4], #-0
     2ec:	00013407 	andeq	r3, r1, r7, lsl #8
     2f0:	06010400 	streq	r0, [r1], -r0, lsl #8
     2f4:	000000e2 	andeq	r0, r0, r2, ror #1
     2f8:	58050204 	stmdapl	r5, {r2, r9}
     2fc:	04000001 	streq	r0, [r0], #-1
     300:	014f0504 	cmpeq	pc, r4, lsl #10
     304:	08040000 	stmdaeq	r4, {}	; <UNPREDICTABLE>
     308:	00014a05 	andeq	r4, r1, r5, lsl #20
     30c:	035b0300 	cmpeq	fp, #0, 6
     310:	2e040000 	cdpcs	0, 0, cr0, cr4, cr0, {0}
     314:	00000065 	andeq	r0, r0, r5, rrx
     318:	e0080104 	and	r0, r8, r4, lsl #2
     31c:	03000000 	movweq	r0, #0
     320:	000001ff 	strdeq	r0, [r0], -pc	; <UNPREDICTABLE>
     324:	00773104 	rsbseq	r3, r7, r4, lsl #2
     328:	02040000 	andeq	r0, r4, #0
     32c:	0000ee07 	andeq	lr, r0, r7, lsl #28
     330:	01620300 	cmneq	r2, r0, lsl #6
     334:	34040000 	strcc	r0, [r4], #-0
     338:	00000089 	andeq	r0, r0, r9, lsl #1
     33c:	2f070404 	svccs	0x00070404
     340:	04000001 	streq	r0, [r0], #-1
     344:	012a0708 	teqeq	sl, r8, lsl #14
     348:	04040000 	streq	r0, [r4], #-0
     34c:	00014107 	andeq	r4, r1, r7, lsl #2
     350:	06040500 	streq	r0, [r4], -r0, lsl #10
     354:	0000a604 	andeq	sl, r0, r4, lsl #12
     358:	08010400 	stmdaeq	r1, {sl}
     35c:	000000e9 	andeq	r0, r0, r9, ror #1
     360:	00b30406 	adcseq	r0, r3, r6, lsl #8
     364:	a6070000 	strge	r0, [r7], -r0
     368:	08000000 	stmdaeq	r0, {}	; <UNPREDICTABLE>
     36c:	000000a6 	andeq	r0, r0, r6, lsr #1
     370:	000000c8 	andeq	r0, r0, r8, asr #1
     374:	00009709 	andeq	r9, r0, r9, lsl #14
     378:	0a000700 	beq	1f80 <_start-0x6080>
     37c:	dd270201 	sfmle	f0, 4, [r7, #-4]!
     380:	0b000000 	bleq	388 <_start-0x7c78>
     384:	000001d2 	ldrdeq	r0, [r0], -r2
     388:	01c70b0b 	biceq	r0, r7, fp, lsl #22
     38c:	000c0000 	andeq	r0, ip, r0
     390:	29020c0c 	stmdbcs	r2, {r2, r3, sl, fp}
     394:	0000010a 	andeq	r0, r0, sl, lsl #2
     398:	0008de0d 	andeq	sp, r8, sp, lsl #28
     39c:	ad2a0200 	sfmge	f0, 4, [sl, #-0]
     3a0:	00000000 	andeq	r0, r0, r0
     3a4:	000ba80d 	andeq	sl, fp, sp, lsl #16
     3a8:	ad2b0200 	sfmge	f0, 4, [fp, #-0]
     3ac:	04000000 	streq	r0, [r0], #-0
     3b0:	0003390d 	andeq	r3, r3, sp, lsl #18
     3b4:	372c0200 	strcc	r0, [ip, -r0, lsl #4]!
     3b8:	08000000 	stmdaeq	r0, {}	; <UNPREDICTABLE>
     3bc:	02d60300 	sbcseq	r0, r6, #0, 6
     3c0:	2d020000 	stccs	0, cr0, [r2, #-0]
     3c4:	000000dd 	ldrdeq	r0, [r0], -sp
     3c8:	0003830e 	andeq	r8, r3, lr, lsl #6
     3cc:	30023800 	andcc	r3, r2, r0, lsl #16
     3d0:	0000019a 	muleq	r0, sl, r1
     3d4:	0002aa0d 	andeq	sl, r2, sp, lsl #20
     3d8:	7e310200 	cdpvc	2, 3, cr0, cr1, cr0, {0}
     3dc:	00000000 	andeq	r0, r0, r0
     3e0:	0003690d 	andeq	r6, r3, sp, lsl #18
     3e4:	7e320200 	cdpvc	2, 3, cr0, cr2, cr0, {0}
     3e8:	04000000 	streq	r0, [r0], #-0
     3ec:	0007690d 	andeq	r6, r7, sp, lsl #18
     3f0:	7e330200 	cdpvc	2, 3, cr0, cr3, cr0, {0}
     3f4:	08000000 	stmdaeq	r0, {}	; <UNPREDICTABLE>
     3f8:	00029c0d 	andeq	r9, r2, sp, lsl #24
     3fc:	7e370200 	cdpvc	2, 3, cr0, cr7, cr0, {0}
     400:	0c000000 	stceq	0, cr0, [r0], {-0}
     404:	00028e0d 	andeq	r8, r2, sp, lsl #28
     408:	0a390200 	beq	e40c10 <__bss_end__+0xe36450>
     40c:	10000001 	andne	r0, r0, r1
     410:	0002b70d 	andeq	fp, r2, sp, lsl #14
     414:	0a3a0200 	beq	e80c1c <__bss_end__+0xe7645c>
     418:	1c000001 	stcne	0, cr0, [r0], {1}
     41c:	0001f40d 	andeq	pc, r1, sp, lsl #8
     420:	7e3e0200 	cdpvc	2, 3, cr0, cr14, cr0, {0}
     424:	28000000 	stmdacs	r0, {}	; <UNPREDICTABLE>
     428:	0001da0d 	andeq	sp, r1, sp, lsl #20
     42c:	7e3f0200 	cdpvc	2, 3, cr0, cr15, cr0, {0}
     430:	2c000000 	stccs	0, cr0, [r0], {-0}
     434:	00019c0d 	andeq	r9, r1, sp, lsl #24
     438:	9a420200 	bls	1080c40 <__bss_end__+0x1076480>
     43c:	30000001 	andcc	r0, r0, r1
     440:	0001cd0d 	andeq	ip, r1, sp, lsl #26
     444:	6c450200 	sfmvs	f0, 2, [r5], {-0}
     448:	34000000 	strcc	r0, [r0], #-0
     44c:	15040600 	strne	r0, [r4, #-1536]	; 0x600
     450:	03000001 	movweq	r0, #1
     454:	00000363 	andeq	r0, r0, r3, ror #6
     458:	01154602 	tsteq	r5, r2, lsl #12
     45c:	020a0000 	andeq	r0, sl, #0
     460:	01d04902 	bicseq	r4, r0, r2, lsl #18
     464:	0c0b0000 	stceq	0, cr0, [fp], {-0}
     468:	fe000003 	cdp2	0, 0, cr0, cr0, cr3, {0}
     46c:	02a20b01 	adceq	r0, r2, #1024	; 0x400
     470:	01800000 	orreq	r0, r0, r0
     474:	0002270b 	andeq	r2, r2, fp, lsl #14
     478:	0b01b800 	bleq	6e480 <__bss_end__+0x63cc0>
     47c:	00000208 	andeq	r0, r0, r8, lsl #4
     480:	0e0002b8 	mcreq	2, 0, r0, cr0, cr8, {5}
     484:	000002cc 	andeq	r0, r0, ip, asr #5
     488:	0d9a0210 	lfmeq	f0, 4, [sl, #64]	; 0x40
     48c:	0d000002 	stceq	0, cr0, [r0, #-8]
     490:	00000d49 	andeq	r0, r0, r9, asr #26
     494:	009e9c02 	addseq	r9, lr, r2, lsl #24
     498:	0d000000 	stceq	0, cr0, [r0, #-0]
     49c:	00000d5c 	andeq	r0, r0, ip, asr sp
     4a0:	009e9e02 	addseq	r9, lr, r2, lsl #28
     4a4:	0d040000 	stceq	0, cr0, [r4, #-0]
     4a8:	00000182 	andeq	r0, r0, r2, lsl #3
     4ac:	0037a102 	eorseq	sl, r7, r2, lsl #2
     4b0:	0d080000 	stceq	0, cr0, [r8, #-0]
     4b4:	0000031e 	andeq	r0, r0, lr, lsl r3
     4b8:	0037a302 	eorseq	sl, r7, r2, lsl #6
     4bc:	000c0000 	andeq	r0, ip, r0
     4c0:	0001bd0f 	andeq	fp, r1, pc, lsl #26
     4c4:	9e570200 	cdpls	2, 5, cr0, cr7, cr0, {0}
     4c8:	03000000 	movweq	r0, #0
     4cc:	00000227 	andeq	r0, r0, r7, lsr #4
     4d0:	02006810 	andeq	r6, r0, #16, 16	; 0x100000
     4d4:	00022757 	andeq	r2, r2, r7, asr r7
     4d8:	04060000 	streq	r0, [r6], #-0
     4dc:	000001a0 	andeq	r0, r0, r0, lsr #3
     4e0:	0002c00f 	andeq	ip, r2, pc
     4e4:	9e590200 	cdpls	2, 5, cr0, cr9, cr0, {0}
     4e8:	03000000 	movweq	r0, #0
     4ec:	00000247 	andeq	r0, r0, r7, asr #4
     4f0:	02006810 	andeq	r6, r0, #16, 16	; 0x100000
     4f4:	00022759 	andeq	r2, r2, r9, asr r7
     4f8:	ea0f0000 	b	3c0500 <__bss_end__+0x3b5d40>
     4fc:	02000002 	andeq	r0, r0, #2
     500:	00009e5b 	andeq	r9, r0, fp, asr lr
     504:	02610300 	rsbeq	r0, r1, #0, 6
     508:	68100000 	ldmdavs	r0, {}	; <UNPREDICTABLE>
     50c:	275b0200 	ldrbcs	r0, [fp, -r0, lsl #4]
     510:	00000002 	andeq	r0, r0, r2
     514:	0003400f 	andeq	r4, r3, pc
     518:	375d0200 	ldrbcc	r0, [sp, -r0, lsl #4]
     51c:	03000000 	movweq	r0, #0
     520:	0000027b 	andeq	r0, r0, fp, ror r2
     524:	02006810 	andeq	r6, r0, #16, 16	; 0x100000
     528:	0002275d 	andeq	r2, r2, sp, asr r7
     52c:	e60f0000 	str	r0, [pc], -r0
     530:	02000001 	andeq	r0, r0, #1
     534:	0002275f 	andeq	r2, r2, pc, asr r7
     538:	02970300 	addseq	r0, r7, #0, 6
     53c:	a3110000 	tstge	r1, #0
     540:	02000001 	andeq	r0, r0, #1
     544:	00009e5f 	andeq	r9, r0, pc, asr lr
     548:	4c0f0000 	stcmi	0, cr0, [pc], {-0}
     54c:	02000002 	andeq	r0, r0, #2
     550:	00003763 	andeq	r3, r0, r3, ror #14
     554:	02b10300 	adcseq	r0, r1, #0, 6
     558:	68100000 	ldmdavs	r0, {}	; <UNPREDICTABLE>
     55c:	27630200 	strbcs	r0, [r3, -r0, lsl #4]!
     560:	00000002 	andeq	r0, r0, r2
     564:	0002fc12 	andeq	pc, r2, r2, lsl ip	; <UNPREDICTABLE>
     568:	03830200 	orreq	r0, r3, #0, 4
     56c:	000002d0 	ldrdeq	r0, [r0], -r0	; <UNPREDICTABLE>
     570:	02006810 	andeq	r6, r0, #16, 16	; 0x100000
     574:	00022783 	andeq	r2, r2, r3, lsl #15
     578:	006c1300 	rsbeq	r1, ip, r0, lsl #6
     57c:	02d08502 	sbcseq	r8, r0, #8388608	; 0x800000
     580:	06000000 	streq	r0, [r0], -r0
     584:	00010a04 	andeq	r0, r1, r4, lsl #20
     588:	03791400 	cmneq	r9, #0, 8
     58c:	26010000 	strcs	r0, [r1], -r0
     590:	00000025 	andeq	r0, r0, r5, lsr #32
     594:	000080c4 	andeq	r8, r0, r4, asr #1
     598:	00000100 	andeq	r0, r0, r0, lsl #2
     59c:	043f9c01 	ldrteq	r9, [pc], #-3073	; 5a4 <_start-0x7a5c>
     5a0:	68150000 	ldmdavs	r5, {}	; <UNPREDICTABLE>
     5a4:	27260100 	strcs	r0, [r6, -r0, lsl #2]!
     5a8:	72000002 	andvc	r0, r0, #2
     5ac:	15000000 	strne	r0, [r0, #-0]
     5b0:	26010070 			; <UNDEFINED> instruction: 0x26010070
     5b4:	000000a0 	andeq	r0, r0, r0, lsr #1
     5b8:	000000a6 	andeq	r0, r0, r6, lsr #1
     5bc:	00034616 	andeq	r4, r3, r6, lsl r6
     5c0:	37260100 	strcc	r0, [r6, -r0, lsl #2]!
     5c4:	e0000000 	and	r0, r0, r0
     5c8:	17000000 	strne	r0, [r0, -r0]
     5cc:	27010069 	strcs	r0, [r1, -r9, rrx]
     5d0:	00000025 	andeq	r0, r0, r5, lsr #32
     5d4:	0000011a 	andeq	r0, r0, sl, lsl r1
     5d8:	00003818 	andeq	r3, r0, r8, lsl r8
     5dc:	01a11900 			; <UNDEFINED> instruction: 0x01a11900
     5e0:	2a010000 	bcs	405e8 <__bss_end__+0x35e28>
     5e4:	000000a0 	andeq	r0, r0, r0, lsr #1
     5e8:	551a5701 	ldrpl	r5, [sl, #-1793]	; 0x701
     5ec:	01000009 	tsteq	r0, r9
     5f0:	0000252b 	andeq	r2, r0, fp, lsr #10
     5f4:	00014400 	andeq	r4, r1, r0, lsl #8
     5f8:	02b11b00 	adcseq	r1, r1, #0, 22
     5fc:	81100000 	tsthi	r0, r0
     600:	00700000 	rsbseq	r0, r0, r0
     604:	2c010000 	stccs	0, cr0, [r1], {-0}
     608:	000003f3 	strdeq	r0, [r0], -r3
     60c:	0002bd1c 	andeq	fp, r2, ip, lsl sp
     610:	00016200 	andeq	r6, r1, r0, lsl #4
     614:	81101d00 	tsthi	r0, r0, lsl #26
     618:	00700000 	rsbseq	r0, r0, r0
     61c:	c61e0000 	ldrgt	r0, [lr], -r0
     620:	80000002 	andhi	r0, r0, r2
     624:	1f000001 	svcne	0x00000001
     628:	00008118 	andeq	r8, r0, r8, lsl r1
     62c:	00000f3a 	andeq	r0, r0, sl, lsr pc
     630:	00000388 	andeq	r0, r0, r8, lsl #7
     634:	02500120 	subseq	r0, r0, #32, 2
     638:	1f000076 	svcne	0x00000076
     63c:	00008124 	andeq	r8, r0, r4, lsr #2
     640:	00000f3a 	andeq	r0, r0, sl, lsr pc
     644:	0000039f 	muleq	r0, pc, r3	; <UNPREDICTABLE>
     648:	05500120 	ldrbeq	r0, [r0, #-288]	; 0x120
     64c:	009af403 	addseq	pc, sl, r3, lsl #8
     650:	381f0000 	ldmdacc	pc, {}	; <UNPREDICTABLE>
     654:	3a000081 	bcc	860 <_start-0x77a0>
     658:	b300000f 	movwlt	r0, #15
     65c:	20000003 	andcs	r0, r0, r3
     660:	76025001 	strvc	r5, [r2], -r1
     664:	4c1f0000 	ldcmi	0, cr0, [pc], {-0}
     668:	3a000081 	bcc	874 <_start-0x778c>
     66c:	ca00000f 	bgt	6b0 <_start-0x7950>
     670:	20000003 	andcs	r0, r0, r3
     674:	03055001 	movweq	r5, #20481	; 0x5001
     678:	00009b00 	andeq	r9, r0, r0, lsl #22
     67c:	816c1f00 	cmnhi	ip, r0, lsl #30
     680:	0f3a0000 	svceq	0x003a0000
     684:	03de0000 	bicseq	r0, lr, #0
     688:	01200000 	teqeq	r0, r0
     68c:	00760250 	rsbseq	r0, r6, r0, asr r2
     690:	81802100 	orrhi	r2, r0, r0, lsl #2
     694:	0f3a0000 	svceq	0x003a0000
     698:	01200000 	teqeq	r0, r0
     69c:	20030550 	andcs	r0, r3, r0, asr r5
     6a0:	0000009b 	muleq	r0, fp, r0
     6a4:	f81f0000 			; <UNDEFINED> instruction: 0xf81f0000
     6a8:	3a000080 	bcc	8b0 <_start-0x7750>
     6ac:	0700000f 	streq	r0, [r0, -pc]
     6b0:	20000004 	andcs	r0, r0, r4
     6b4:	76025001 	strvc	r5, [r2], -r1
     6b8:	001f0000 	andseq	r0, pc, r0
     6bc:	3a000081 	bcc	8c8 <_start-0x7738>
     6c0:	1e00000f 	cdpne	0, 0, cr0, cr0, cr15, {0}
     6c4:	20000004 	andcs	r0, r0, r4
     6c8:	03055001 	movweq	r5, #20481	; 0x5001
     6cc:	00009ac8 	andeq	r9, r0, r8, asr #21
     6d0:	81102100 	tsthi	r0, r0, lsl #2
     6d4:	0f3a0000 	svceq	0x003a0000
     6d8:	01200000 	teqeq	r0, r0
     6dc:	00740252 	rsbseq	r0, r4, r2, asr r2
     6e0:	02510120 	subseq	r0, r1, #32, 2
     6e4:	01200077 	teqeq	r0, r7, ror r0
     6e8:	d0030550 	andle	r0, r3, r0, asr r5
     6ec:	0000009a 	muleq	r0, sl, r0
     6f0:	15220000 	strne	r0, [r2, #-0]!
     6f4:	01000003 	tsteq	r0, r3
     6f8:	0081c432 	addeq	ip, r1, r2, lsr r4
     6fc:	00001400 	andeq	r1, r0, r0, lsl #8
     700:	8f9c0100 	svchi	0x009c0100
     704:	15000004 	strne	r0, [r0, #-4]
     708:	32010070 	andcc	r0, r1, #112	; 0x70
     70c:	0000009e 	muleq	r0, lr, r0
     710:	000001af 	andeq	r0, r0, pc, lsr #3
     714:	00034616 	andeq	r4, r3, r6, lsl r6
     718:	37320100 	ldrcc	r0, [r2, -r0, lsl #2]!
     71c:	d0000000 	andle	r0, r0, r0
     720:	21000001 	tstcs	r0, r1
     724:	000081d4 	ldrdeq	r8, [r0], -r4
     728:	00000f50 	andeq	r0, r0, r0, asr pc
     72c:	03520120 	cmpeq	r2, #32, 2
     730:	205101f3 	ldrshcs	r0, [r1], #-19	; 0xffffffed
     734:	08025101 	stmdaeq	r2, {r0, r8, ip, lr}
     738:	500120fe 	strdpl	r2, [r1], -lr
     73c:	5001f303 	andpl	pc, r1, r3, lsl #6
     740:	98140000 	ldmdals	r4, {}	; <UNPREDICTABLE>
     744:	01000002 	tsteq	r0, r2
     748:	00007e14 	andeq	r7, r0, r4, lsl lr
     74c:	0081d800 	addeq	sp, r1, r0, lsl #16
     750:	00002400 	andeq	r2, r0, r0, lsl #8
     754:	e69c0100 	ldr	r0, [ip], r0, lsl #2
     758:	15000004 	strne	r0, [r0, #-4]
     75c:	14010068 	strne	r0, [r1], #-104	; 0x68
     760:	00000227 	andeq	r0, r0, r7, lsr #4
     764:	000001fc 	strdeq	r0, [r0], -ip
     768:	646c6f23 	strbtvs	r6, [ip], #-3875	; 0xf23
     76c:	37150100 	ldrcc	r0, [r5, -r0, lsl #2]
     770:	01000000 	mrseq	r0, (UNDEF: 0)
     774:	029c1955 	addseq	r1, ip, #1392640	; 0x154000
     778:	17010000 	strne	r0, [r1, -r0]
     77c:	0000007e 	andeq	r0, r0, lr, ror r0
     780:	f4215001 	vld4.8	{d5-d8}, [r1], r1
     784:	6f000081 	svcvs	0x00000081
     788:	2000000f 	andcs	r0, r0, pc
     78c:	08025101 	stmdaeq	r2, {r0, r8, ip, lr}
     790:	50012038 	andpl	r2, r1, r8, lsr r0
     794:	00007402 	andeq	r7, r0, r2, lsl #8
     798:	02e01400 	rsceq	r1, r0, #0, 8
     79c:	1d010000 	stcne	0, cr0, [r1, #-0]
     7a0:	00000025 	andeq	r0, r0, r5, lsr #32
     7a4:	000081fc 	strdeq	r8, [r0], -ip
     7a8:	00000078 	andeq	r0, r0, r8, ror r0
     7ac:	05c19c01 	strbeq	r9, [r1, #3073]	; 0xc01
     7b0:	68150000 	ldmdavs	r5, {}	; <UNPREDICTABLE>
     7b4:	271d0100 	ldrcs	r0, [sp, -r0, lsl #2]
     7b8:	1a000002 	bne	7c8 <_start-0x7838>
     7bc:	1a000002 	bne	7cc <_start-0x7834>
     7c0:	0000034d 	andeq	r0, r0, sp, asr #6
     7c4:	007e1e01 	rsbseq	r1, lr, r1, lsl #28
     7c8:	02380000 	eorseq	r0, r8, #0
     7cc:	10240000 	eorne	r0, r4, r0
     7d0:	d1000001 	tstle	r0, r1
     7d4:	05000005 	streq	r0, [r0, #-5]
     7d8:	009a8003 	addseq	r8, sl, r3
     7dc:	82081f00 	andhi	r1, r8, #0, 30
     7e0:	048f0000 	streq	r0, [pc], #0	; 7e8 <_start-0x7818>
     7e4:	053e0000 	ldreq	r0, [lr, #-0]!
     7e8:	01200000 	teqeq	r0, r0
     7ec:	00740250 	rsbseq	r0, r4, r0, asr r2
     7f0:	82182500 	andshi	r2, r8, #0, 10
     7f4:	0f900000 	svceq	0x00900000
     7f8:	2c1f0000 	ldccs	0, cr0, [pc], {-0}
     7fc:	3a000082 	bcc	a0c <_start-0x75f4>
     800:	7600000f 	strvc	r0, [r0], -pc
     804:	20000005 	andcs	r0, r0, r5
     808:	08025301 	stmdaeq	r2, {r0, r8, r9, ip, lr}
     80c:	52012021 	andpl	r2, r1, #33	; 0x21
     810:	9a800305 	bls	fe00142c <__bss_end__+0xfdff6c6c>
     814:	01200000 	teqeq	r0, r0
     818:	68030551 	stmdavs	r3, {r0, r4, r6, r8, sl}
     81c:	2000009b 	mulcs	r0, fp, r0
     820:	03055001 	movweq	r5, #20481	; 0x5001
     824:	00009b3c 	andeq	r9, r0, ip, lsr fp
     828:	82302500 	eorshi	r2, r0, #0, 10
     82c:	0f970000 	svceq	0x00970000
     830:	44250000 	strtmi	r0, [r5], #-0
     834:	90000082 	andls	r0, r0, r2, lsl #1
     838:	1f00000f 	svcne	0x0000000f
     83c:	00008258 	andeq	r8, r0, r8, asr r2
     840:	00000f3a 	andeq	r0, r0, sl, lsr pc
     844:	000005b7 			; <UNDEFINED> instruction: 0x000005b7
     848:	02530120 	subseq	r0, r3, #32, 2
     84c:	01202208 	teqeq	r0, r8, lsl #4
     850:	80030552 	andhi	r0, r3, r2, asr r5
     854:	2000009a 	mulcs	r0, sl, r0
     858:	03055101 	movweq	r5, #20737	; 0x5101
     85c:	00009b68 	andeq	r9, r0, r8, ror #22
     860:	05500120 	ldrbeq	r0, [r0, #-288]	; 0x120
     864:	009b7403 	addseq	r7, fp, r3, lsl #8
     868:	5c250000 	stcpl	0, cr0, [r5], #-0
     86c:	97000082 	strls	r0, [r0, -r2, lsl #1]
     870:	0000000f 	andeq	r0, r0, pc
     874:	0000a608 	andeq	sl, r0, r8, lsl #12
     878:	0005d100 	andeq	sp, r5, r0, lsl #2
     87c:	00970900 	addseq	r0, r7, r0, lsl #18
     880:	00090000 	andeq	r0, r9, r0
     884:	0005c107 	andeq	ip, r5, r7, lsl #2
     888:	032d1400 	teqeq	sp, #0, 8
     88c:	3c010000 	stccc	0, cr0, [r1], {-0}
     890:	00000025 	andeq	r0, r0, r5, lsr #32
     894:	00008274 	andeq	r8, r0, r4, ror r2
     898:	00000070 	andeq	r0, r0, r0, ror r0
     89c:	067b9c01 	ldrbteq	r9, [fp], -r1, lsl #24
     8a0:	68150000 	ldmdavs	r5, {}	; <UNPREDICTABLE>
     8a4:	273c0100 	ldrcs	r0, [ip, -r0, lsl #2]!
     8a8:	61000002 	tstvs	r0, r2
     8ac:	1b000002 	blne	8bc <_start-0x7744>
     8b0:	00000247 	andeq	r0, r0, r7, asr #4
     8b4:	000082a0 	andeq	r8, r0, r0, lsr #5
     8b8:	00000008 	andeq	r0, r0, r8
     8bc:	06194001 	ldreq	r4, [r9], -r1
     8c0:	571c0000 	ldrpl	r0, [ip, -r0]
     8c4:	7f000002 	svcvc	0x00000002
     8c8:	00000002 	andeq	r0, r0, r2
     8cc:	0002611b 	andeq	r6, r2, fp, lsl r1
     8d0:	0082a800 	addeq	sl, r2, r0, lsl #16
     8d4:	00000400 	andeq	r0, r0, r0, lsl #8
     8d8:	36400100 	strbcc	r0, [r0], -r0, lsl #2
     8dc:	1c000006 	stcne	0, cr0, [r0], {6}
     8e0:	00000271 	andeq	r0, r0, r1, ror r2
     8e4:	0000029d 	muleq	r0, sp, r2
     8e8:	82801f00 	addhi	r1, r0, #0, 30
     8ec:	04e60000 	strbteq	r0, [r6], #0
     8f0:	064a0000 	strbeq	r0, [sl], -r0
     8f4:	01200000 	teqeq	r0, r0
     8f8:	00740250 	rsbseq	r0, r4, r0, asr r2
     8fc:	82981f00 	addshi	r1, r8, #0, 30
     900:	02d60000 	sbcseq	r0, r6, #0
     904:	066a0000 	strbteq	r0, [sl], -r0
     908:	01200000 	teqeq	r0, r0
     90c:	80080252 	andhi	r0, r8, r2, asr r2
     910:	02510120 	subseq	r0, r1, #32, 2
     914:	01203874 	teqeq	r0, r4, ror r8
     918:	00740250 	rsbseq	r0, r4, r0, asr r2
     91c:	82bc2100 	adcshi	r2, ip, #0, 2
     920:	02d60000 	sbcseq	r0, r6, #0
     924:	01200000 	teqeq	r0, r0
     928:	00740250 	rsbseq	r0, r4, r0, asr r2
     92c:	22260000 	eorcs	r0, r6, #0
     930:	01000001 	tsteq	r0, r1
     934:	0082e40a 	addeq	lr, r2, sl, lsl #8
     938:	00007400 	andeq	r7, r0, r0, lsl #8
     93c:	1b9c0100 	blne	fe700d44 <__bss_end__+0xfe6f6584>
     940:	16000007 	strne	r0, [r0], -r7
     944:	00000d4e 	andeq	r0, r0, lr, asr #26
     948:	009e0a01 	addseq	r0, lr, r1, lsl #20
     94c:	02bb0000 	adcseq	r0, fp, #0
     950:	6e150000 	cdpvs	0, 1, cr0, cr5, cr0, {0}
     954:	370a0100 	strcc	r0, [sl, -r0, lsl #2]
     958:	fe000000 	cdp2	0, 0, cr0, cr0, cr0, {0}
     95c:	24000002 	strcs	r0, [r0], #-2
     960:	00000110 	andeq	r0, r0, r0, lsl r1
     964:	0000071b 	andeq	r0, r0, fp, lsl r7
     968:	9a8c0305 	bls	fe301584 <__bss_end__+0xfe2f6dc4>
     96c:	04250000 	strteq	r0, [r5], #-0
     970:	90000083 	andls	r0, r0, r3, lsl #1
     974:	1f00000f 	svcne	0x0000000f
     978:	00008318 	andeq	r8, r0, r8, lsl r3
     97c:	00000f3a 	andeq	r0, r0, sl, lsr pc
     980:	000006f2 	strdeq	r0, [r0], -r2
     984:	01530120 	cmpeq	r3, r0, lsr #2
     988:	5201203b 	andpl	r2, r1, #59	; 0x3b
     98c:	9a8c0305 	bls	fe3015a8 <__bss_end__+0xfe2f6de8>
     990:	01200000 	teqeq	r0, r0
     994:	68030551 	stmdavs	r3, {r0, r4, r6, r8, sl}
     998:	2000009b 	mulcs	r0, fp, r0
     99c:	03055001 	movweq	r5, #20481	; 0x5001
     9a0:	00009bb0 			; <UNDEFINED> instruction: 0x00009bb0
     9a4:	831c2500 	tsthi	ip, #0, 10
     9a8:	0f970000 	svceq	0x00970000
     9ac:	2c210000 	stccs	0, cr0, [r1], #-0
     9b0:	3a000083 	bcc	bc4 <_start-0x743c>
     9b4:	2000000f 	andcs	r0, r0, pc
     9b8:	08025201 	stmdaeq	r2, {r0, r9, ip, lr}
     9bc:	51012080 	smlabbpl	r1, r0, r0, r2
     9c0:	20380802 	eorscs	r0, r8, r2, lsl #16
     9c4:	03055001 	movweq	r5, #20481	; 0x5001
     9c8:	00009bd8 	ldrdeq	r9, [r0], -r8
     9cc:	b8070000 	stmdalt	r7, {}	; <UNPREDICTABLE>
     9d0:	26000000 	strcs	r0, [r0], -r0
     9d4:	0000026e 	andeq	r0, r0, lr, ror #4
     9d8:	83584801 	cmphi	r8, #65536	; 0x10000
     9dc:	00bc0000 	adcseq	r0, ip, r0
     9e0:	9c010000 	stcls	0, cr0, [r1], {-0}
     9e4:	0000083b 	andeq	r0, r0, fp, lsr r8
     9e8:	0001a316 	andeq	sl, r1, r6, lsl r3
     9ec:	9e480100 	dvflse	f0, f0, f0
     9f0:	32000000 	andcc	r0, r0, #0
     9f4:	16000003 	strne	r0, [r0], -r3
     9f8:	000008de 	ldrdeq	r0, [r0], -lr
     9fc:	00ad4801 	adceq	r4, sp, r1, lsl #16
     a00:	03500000 	cmpeq	r0, #0
     a04:	a8160000 	ldmdage	r6, {}	; <UNPREDICTABLE>
     a08:	0100000b 	tsteq	r0, fp
     a0c:	0000ad48 	andeq	sl, r0, r8, asr #26
     a10:	00038400 	andeq	r8, r3, r0, lsl #8
     a14:	03391600 	teqeq	r9, #0, 12
     a18:	48010000 	stmdami	r1, {}	; <UNPREDICTABLE>
     a1c:	00000037 	andeq	r0, r0, r7, lsr r0
     a20:	000003b8 			; <UNDEFINED> instruction: 0x000003b8
     a24:	01006817 	tsteq	r0, r7, lsl r8
     a28:	00022749 	andeq	r2, r2, r9, asr #14
     a2c:	0003ec00 	andeq	lr, r3, r0, lsl #24
     a30:	01102400 	tsteq	r0, r0, lsl #8
     a34:	084b0000 	stmdaeq	fp, {}^	; <UNPREDICTABLE>
     a38:	03050000 	movweq	r0, #20480	; 0x5000
     a3c:	00009a94 	muleq	r0, r4, sl
     a40:	00838025 	addeq	r8, r3, r5, lsr #32
     a44:	000f9000 	andeq	r9, pc, r0
     a48:	83941f00 	orrshi	r1, r4, #0, 30
     a4c:	0f3a0000 	svceq	0x003a0000
     a50:	07c50000 	strbeq	r0, [r5, r0]
     a54:	01200000 	teqeq	r0, r0
     a58:	4a080253 	bmi	2013ac <__bss_end__+0x1f6bec>
     a5c:	05520120 	ldrbeq	r0, [r2, #-288]	; 0x120
     a60:	009a9403 	addseq	r9, sl, r3, lsl #8
     a64:	51012000 	mrspl	r2, (UNDEF: 1)
     a68:	9b680305 	blls	1a01684 <__bss_end__+0x19f6ec4>
     a6c:	01200000 	teqeq	r0, r0
     a70:	f4030550 	vst3.16	{d0,d2,d4}, [r3 :64], r0
     a74:	0000009b 	muleq	r0, fp, r0
     a78:	00839825 	addeq	r9, r3, r5, lsr #16
     a7c:	000f9700 	andeq	r9, pc, r0, lsl #14
     a80:	83a01f00 	movhi	r1, #0, 30
     a84:	0f3a0000 	svceq	0x003a0000
     a88:	07e50000 	strbeq	r0, [r5, r0]!
     a8c:	01200000 	teqeq	r0, r0
     a90:	c0030550 	andgt	r0, r3, r0, asr r5
     a94:	0000009a 	muleq	r0, sl, r0
     a98:	0083ac1f 	addeq	sl, r3, pc, lsl ip
     a9c:	000f3a00 	andeq	r3, pc, r0, lsl #20
     aa0:	00080200 	andeq	r0, r8, r0, lsl #4
     aa4:	51012000 	mrspl	r2, (UNDEF: 1)
     aa8:	20007402 	andcs	r7, r0, r2, lsl #8
     aac:	03055001 	movweq	r5, #20481	; 0x5001
     ab0:	00009c28 	andeq	r9, r0, r8, lsr #24
     ab4:	83b81f00 			; <UNDEFINED> instruction: 0x83b81f00
     ab8:	05d60000 	ldrbeq	r0, [r6]
     abc:	08160000 	ldmdaeq	r6, {}	; <UNPREDICTABLE>
     ac0:	01200000 	teqeq	r0, r0
     ac4:	00750250 	rsbseq	r0, r5, r0, asr r2
     ac8:	83e01f00 	mvnhi	r1, #0, 30
     acc:	043f0000 	ldrteq	r0, [pc], #-0	; ad4 <_start-0x752c>
     ad0:	082a0000 	stmdaeq	sl!, {}	; <UNPREDICTABLE>
     ad4:	01200000 	teqeq	r0, r0
     ad8:	00740250 	rsbseq	r0, r4, r0, asr r2
     adc:	83f42100 	mvnshi	r2, #0, 2
     ae0:	048f0000 	streq	r0, [pc], #0	; ae8 <_start-0x7518>
     ae4:	01200000 	teqeq	r0, r0
     ae8:	00750250 	rsbseq	r0, r5, r0, asr r2
     aec:	a6080000 	strge	r0, [r8], -r0
     af0:	4b000000 	blmi	af8 <_start-0x7508>
     af4:	09000008 	stmdbeq	r0, {r3}
     af8:	00000097 	muleq	r0, r7, r0
     afc:	3b070006 	blcc	1c0b1c <__bss_end__+0x1b635c>
     b00:	27000008 	strcs	r0, [r0, -r8]
     b04:	00000007 	andeq	r0, r0, r7
     b08:	009e6201 	addseq	r6, lr, r1, lsl #4
     b0c:	84140000 	ldrhi	r0, [r4], #-0
     b10:	02340000 	eorseq	r0, r4, #0
     b14:	9c010000 	stcls	0, cr0, [r1], {-0}
     b18:	00000bc0 	andeq	r0, r0, r0, asr #23
     b1c:	00034616 	andeq	r4, r3, r6, lsl r6
     b20:	7e620100 	powvcs	f0, f2, f0
     b24:	00000000 	andeq	r0, r0, r0
     b28:	16000004 	strne	r0, [r0], -r4
     b2c:	000008de 	ldrdeq	r0, [r0], -lr
     b30:	00ad6201 	adceq	r6, sp, r1, lsl #4
     b34:	04420000 	strbeq	r0, [r2], #-0
     b38:	a8160000 	ldmdage	r6, {}	; <UNPREDICTABLE>
     b3c:	0100000b 	tsteq	r0, fp
     b40:	0000ad62 	andeq	sl, r0, r2, ror #26
     b44:	00048400 	andeq	r8, r4, r0, lsl #8
     b48:	03391600 	teqeq	r9, #0, 12
     b4c:	62010000 	andvs	r0, r1, #0
     b50:	00000037 	andeq	r0, r0, r7, lsr r0
     b54:	000004c6 	andeq	r0, r0, r6, asr #9
     b58:	01006817 	tsteq	r0, r7, lsl r8
     b5c:	00022763 	andeq	r2, r2, r3, ror #14
     b60:	0004f200 	andeq	pc, r4, r0, lsl #4
     b64:	74701700 	ldrbtvc	r1, [r0], #-1792	; 0x700
     b68:	64010072 	strvs	r0, [r1], #-114	; 0x72
     b6c:	0000009e 	muleq	r0, lr, r0
     b70:	0000051f 	andeq	r0, r0, pc, lsl r5
     b74:	00011024 	andeq	r1, r1, r4, lsr #32
     b78:	000bc000 	andeq	ip, fp, r0
     b7c:	9c030500 	cfstr32ls	mvfx0, [r3], {-0}
     b80:	1700009a 			; <UNDEFINED> instruction: 0x1700009a
     b84:	00746f74 	rsbseq	r6, r4, r4, ror pc
     b88:	00376901 	eorseq	r6, r7, r1, lsl #18
     b8c:	05330000 	ldreq	r0, [r3, #-0]!
     b90:	6e170000 	cdpvs	0, 1, cr0, cr7, cr0, {0}
     b94:	376a0100 	strbcc	r0, [sl, -r0, lsl #2]!
     b98:	99000000 	stmdbls	r0, {}	; <UNPREDICTABLE>
     b9c:	1a000005 	bne	bb8 <_start-0x7448>
     ba0:	000001b2 			; <UNDEFINED> instruction: 0x000001b2
     ba4:	007e7501 	rsbseq	r7, lr, r1, lsl #10
     ba8:	05c20000 	strbeq	r0, [r2]
     bac:	471b0000 	ldrmi	r0, [fp, -r0]
     bb0:	68000002 	stmdavs	r0, {r1}
     bb4:	08000085 	stmdaeq	r0, {r0, r2, r7}
     bb8:	01000000 	mrseq	r0, (UNDEF: 0)
     bbc:	00091886 	andeq	r1, r9, r6, lsl #17
     bc0:	02571c00 	subseq	r1, r7, #0, 24
     bc4:	05ee0000 	strbeq	r0, [lr, #0]!
     bc8:	1b000000 	blne	bd0 <_start-0x7430>
     bcc:	00000261 	andeq	r0, r0, r1, ror #4
     bd0:	00008570 	andeq	r8, r0, r0, ror r5
     bd4:	00000004 	andeq	r0, r0, r4
     bd8:	09358601 	ldmdbeq	r5!, {r0, r9, sl, pc}
     bdc:	711c0000 	tstvc	ip, r0
     be0:	0f000002 	svceq	0x00000002
     be4:	00000006 	andeq	r0, r0, r6
     be8:	00844025 	addeq	r4, r4, r5, lsr #32
     bec:	000f9000 	andeq	r9, pc, r0
     bf0:	84541f00 	ldrbhi	r1, [r4], #-3840	; 0xf00
     bf4:	0f3a0000 	svceq	0x003a0000
     bf8:	096d0000 	stmdbeq	sp!, {}^	; <UNPREDICTABLE>
     bfc:	01200000 	teqeq	r0, r0
     c00:	66080253 			; <UNDEFINED> instruction: 0x66080253
     c04:	05520120 	ldrbeq	r0, [r2, #-288]	; 0x120
     c08:	009a9c03 	addseq	r9, sl, r3, lsl #24
     c0c:	51012000 	mrspl	r2, (UNDEF: 1)
     c10:	9b680305 	blls	1a0182c <__bss_end__+0x19f706c>
     c14:	01200000 	teqeq	r0, r0
     c18:	f4030550 	vst3.16	{d0,d2,d4}, [r3 :64], r0
     c1c:	0000009b 	muleq	r0, fp, r0
     c20:	00845825 	addeq	r5, r4, r5, lsr #16
     c24:	000f9700 	andeq	r9, pc, r0, lsl #14
     c28:	84601f00 	strbthi	r1, [r0], #-3840	; 0xf00
     c2c:	0f3a0000 	svceq	0x003a0000
     c30:	098d0000 	stmibeq	sp, {}	; <UNPREDICTABLE>
     c34:	01200000 	teqeq	r0, r0
     c38:	c0030550 	andgt	r0, r3, r0, asr r5
     c3c:	0000009a 	muleq	r0, sl, r0
     c40:	00846c1f 	addeq	r6, r4, pc, lsl ip
     c44:	000f3a00 	andeq	r3, pc, r0, lsl #20
     c48:	0009aa00 	andeq	sl, r9, r0, lsl #20
     c4c:	51012000 	mrspl	r2, (UNDEF: 1)
     c50:	20007502 	andcs	r7, r0, r2, lsl #10
     c54:	03055001 	movweq	r5, #20481	; 0x5001
     c58:	00009c34 	andeq	r9, r0, r4, lsr ip
     c5c:	84881f00 	strhi	r1, [r8], #3840	; 0xf00
     c60:	0f3a0000 	svceq	0x003a0000
     c64:	09c10000 	stmibeq	r1, {}^	; <UNPREDICTABLE>
     c68:	01200000 	teqeq	r0, r0
     c6c:	4c030550 	cfstr32mi	mvfx0, [r3], {80}	; 0x50
     c70:	0000009c 	muleq	r0, ip, r0
     c74:	0084941f 	addeq	r9, r4, pc, lsl r4
     c78:	000f3a00 	andeq	r3, pc, r0, lsl #20
     c7c:	0009de00 	andeq	sp, r9, r0, lsl #28
     c80:	51012000 	mrspl	r2, (UNDEF: 1)
     c84:	20007502 	andcs	r7, r0, r2, lsl #10
     c88:	03055001 	movweq	r5, #20481	; 0x5001
     c8c:	00009c58 	andeq	r9, r0, r8, asr ip
     c90:	84982500 	ldrhi	r2, [r8], #1280	; 0x500
     c94:	0f900000 	svceq	0x00900000
     c98:	b01f0000 	andslt	r0, pc, r0
     c9c:	3a000084 	bcc	eb4 <_start-0x714c>
     ca0:	1d00000f 	stcne	0, cr0, [r0, #-60]	; 0xffffffc4
     ca4:	2000000a 	andcs	r0, r0, sl
     ca8:	08025301 	stmdaeq	r2, {r0, r8, r9, ip, lr}
     cac:	5201206e 	andpl	r2, r1, #110	; 0x6e
     cb0:	9a9c0305 	bls	fe7018cc <__bss_end__+0xfe6f710c>
     cb4:	01200000 	teqeq	r0, r0
     cb8:	68030551 	stmdavs	r3, {r0, r4, r6, r8, sl}
     cbc:	2000009b 	mulcs	r0, fp, r0
     cc0:	03055001 	movweq	r5, #20481	; 0x5001
     cc4:	00009c80 	andeq	r9, r0, r0, lsl #25
     cc8:	007d0220 	rsbseq	r0, sp, r0, lsr #4
     ccc:	00007502 	andeq	r7, r0, r2, lsl #10
     cd0:	0084b425 	addeq	fp, r4, r5, lsr #8
     cd4:	000f9700 	andeq	r9, pc, r0, lsl #14
     cd8:	84d41f00 	ldrbhi	r1, [r4], #3840	; 0xf00
     cdc:	0f3a0000 	svceq	0x003a0000
     ce0:	0a3d0000 	beq	f40ce8 <__bss_end__+0xf36528>
     ce4:	01200000 	teqeq	r0, r0
     ce8:	4c030550 	cfstr32mi	mvfx0, [r3], {80}	; 0x50
     cec:	0000009c 	muleq	r0, ip, r0
     cf0:	0084f01f 	addeq	pc, r4, pc, lsl r0	; <UNPREDICTABLE>
     cf4:	000f3a00 	andeq	r3, pc, r0, lsl #20
     cf8:	000a5a00 	andeq	r5, sl, r0, lsl #20
     cfc:	52012000 	andpl	r2, r1, #0
     d00:	20007602 	andcs	r7, r0, r2, lsl #12
     d04:	03055001 	movweq	r5, #20481	; 0x5001
     d08:	00009cb8 			; <UNDEFINED> instruction: 0x00009cb8
     d0c:	84f42500 	ldrbthi	r2, [r4], #1280	; 0x500
     d10:	0f900000 	svceq	0x00900000
     d14:	1c1f0000 	ldcne	0, cr0, [pc], {-0}
     d18:	3a000085 	bcc	f34 <_start-0x70cc>
     d1c:	9900000f 	stmdbls	r0, {r0, r1, r2, r3}
     d20:	2000000a 	andcs	r0, r0, sl
     d24:	08025301 	stmdaeq	r2, {r0, r8, r9, ip, lr}
     d28:	52012072 	andpl	r2, r1, #114	; 0x72
     d2c:	9a9c0305 	bls	fe701948 <__bss_end__+0xfe6f7188>
     d30:	01200000 	teqeq	r0, r0
     d34:	68030551 	stmdavs	r3, {r0, r4, r6, r8, sl}
     d38:	2000009b 	mulcs	r0, fp, r0
     d3c:	03055001 	movweq	r5, #20481	; 0x5001
     d40:	00009ce4 	andeq	r9, r0, r4, ror #25
     d44:	047d0220 	ldrbteq	r0, [sp], #-544	; 0x220
     d48:	00007602 	andeq	r7, r0, r2, lsl #12
     d4c:	00852025 	addeq	r2, r5, r5, lsr #32
     d50:	000f9700 	andeq	r9, pc, r0, lsl #14
     d54:	85581f00 	ldrbhi	r1, [r8, #-3840]	; 0xf00
     d58:	048f0000 	streq	r0, [pc], #0	; d60 <_start-0x72a0>
     d5c:	0ab60000 	beq	fed80d64 <__bss_end__+0xfed765a4>
     d60:	01200000 	teqeq	r0, r0
     d64:	00740250 	rsbseq	r0, r4, r0, asr r2
     d68:	85681f00 	strbhi	r1, [r8, #-3840]!	; 0xf00
     d6c:	043f0000 	ldrteq	r0, [pc], #-0	; d74 <_start-0x728c>
     d70:	0ad00000 	beq	ff400d78 <__bss_end__+0xff3f65b8>
     d74:	01200000 	teqeq	r0, r0
     d78:	80080251 	andhi	r0, r8, r1, asr r2
     d7c:	02500120 	subseq	r0, r0, #32, 2
     d80:	25003874 	strcs	r3, [r0, #-2164]	; 0x874
     d84:	00008580 	andeq	r8, r0, r0, lsl #11
     d88:	0000043f 	andeq	r0, r0, pc, lsr r4
     d8c:	0085981f 	addeq	r9, r5, pc, lsl r8
     d90:	0004e600 	andeq	lr, r4, r0, lsl #12
     d94:	000aed00 	andeq	lr, sl, r0, lsl #26
     d98:	50012000 	andpl	r2, r1, r0
     d9c:	00007402 	andeq	r7, r0, r2, lsl #8
     da0:	0085a425 	addeq	sl, r5, r5, lsr #8
     da4:	000f9000 	andeq	r9, pc, r0
     da8:	85b81f00 	ldrhi	r1, [r8, #3840]!	; 0xf00
     dac:	0f3a0000 	svceq	0x003a0000
     db0:	0b250000 	bleq	940db8 <__bss_end__+0x9365f8>
     db4:	01200000 	teqeq	r0, r0
     db8:	8b080253 	blhi	20170c <__bss_end__+0x1f6f4c>
     dbc:	05520120 	ldrbeq	r0, [r2, #-288]	; 0x120
     dc0:	009a9c03 	addseq	r9, sl, r3, lsl #24
     dc4:	51012000 	mrspl	r2, (UNDEF: 1)
     dc8:	9b680305 	blls	1a019e4 <__bss_end__+0x19f7224>
     dcc:	01200000 	teqeq	r0, r0
     dd0:	20030550 	andcs	r0, r3, r0, asr r5
     dd4:	0000009d 	muleq	r0, sp, r0
     dd8:	0085bc25 	addeq	fp, r5, r5, lsr #24
     ddc:	000f9700 	andeq	r9, pc, r0, lsl #14
     de0:	85c41f00 	strbhi	r1, [r4, #3840]	; 0xf00
     de4:	05d60000 	ldrbeq	r0, [r6]
     de8:	0b420000 	bleq	1080df0 <__bss_end__+0x1076630>
     dec:	01200000 	teqeq	r0, r0
     df0:	00740250 	rsbseq	r0, r4, r0, asr r2
     df4:	85d02500 	ldrbhi	r2, [r0, #1280]	; 0x500
     df8:	0f900000 	svceq	0x00900000
     dfc:	e41f0000 	ldr	r0, [pc], #-0	; e04 <_start-0x71fc>
     e00:	3a000085 	bcc	101c <_start-0x6fe4>
     e04:	7a00000f 	bvc	e48 <_start-0x71b8>
     e08:	2000000b 	andcs	r0, r0, fp
     e0c:	08025301 	stmdaeq	r2, {r0, r8, r9, ip, lr}
     e10:	5201208c 	andpl	r2, r1, #140	; 0x8c
     e14:	9a9c0305 	bls	fe701a30 <__bss_end__+0xfe6f7270>
     e18:	01200000 	teqeq	r0, r0
     e1c:	68030551 	stmdavs	r3, {r0, r4, r6, r8, sl}
     e20:	2000009b 	mulcs	r0, fp, r0
     e24:	03055001 	movweq	r5, #20481	; 0x5001
     e28:	00009d40 	andeq	r9, r0, r0, asr #26
     e2c:	85e82500 	strbhi	r2, [r8, #1280]!	; 0x500
     e30:	0f970000 	svceq	0x00970000
     e34:	f01f0000 			; <UNDEFINED> instruction: 0xf01f0000
     e38:	3a000085 	bcc	1054 <_start-0x6fac>
     e3c:	9a00000f 	bls	e80 <_start-0x7180>
     e40:	2000000b 	andcs	r0, r0, fp
     e44:	03055001 	movweq	r5, #20481	; 0x5001
     e48:	00009ac0 	andeq	r9, r0, r0, asr #21
     e4c:	86042100 	strhi	r2, [r4], -r0, lsl #2
     e50:	0f3a0000 	svceq	0x003a0000
     e54:	01200000 	teqeq	r0, r0
     e58:	00770253 	rsbseq	r0, r7, r3, asr r2
     e5c:	02520120 	subseq	r0, r2, #32, 2
     e60:	01200076 	teqeq	r0, r6, ror r0
     e64:	00750251 	rsbseq	r0, r5, r1, asr r2
     e68:	05500120 	ldrbeq	r0, [r0, #-288]	; 0x120
     e6c:	009d6003 	addseq	r6, sp, r3
     e70:	07000000 	streq	r0, [r0, -r0]
     e74:	000000b8 	strheq	r0, [r0], -r8
     e78:	00018f27 	andeq	r8, r1, r7, lsr #30
     e7c:	27910100 	ldrcs	r0, [r1, r0, lsl #2]
     e80:	48000002 	stmdami	r0, {r1}
     e84:	50000086 	andpl	r0, r0, r6, lsl #1
     e88:	01000000 	mrseq	r0, (UNDEF: 0)
     e8c:	000c509c 	muleq	ip, ip, r0
     e90:	02431900 	subeq	r1, r3, #0, 18
     e94:	92010000 	andls	r0, r1, #0
     e98:	00000227 	andeq	r0, r0, r7, lsr #4
     e9c:	10245401 	eorne	r5, r4, r1, lsl #8
     ea0:	60000001 	andvs	r0, r0, r1
     ea4:	0500000c 	streq	r0, [r0, #-12]
     ea8:	009aa403 	addseq	sl, sl, r3, lsl #8
     eac:	865c1f00 	ldrbhi	r1, [ip], -r0, lsl #30
     eb0:	04e60000 	strbteq	r0, [r6], #0
     eb4:	0c0e0000 	stceq	0, cr0, [lr], {-0}
     eb8:	01200000 	teqeq	r0, r0
     ebc:	00740250 	rsbseq	r0, r4, r0, asr r2
     ec0:	86682500 	strbthi	r2, [r8], -r0, lsl #10
     ec4:	0f900000 	svceq	0x00900000
     ec8:	7c1f0000 	ldcvc	0, cr0, [pc], {-0}
     ecc:	3a000086 	bcc	10ec <_start-0x6f14>
     ed0:	4600000f 	strmi	r0, [r0], -pc
     ed4:	2000000c 	andcs	r0, r0, ip
     ed8:	08025301 	stmdaeq	r2, {r0, r8, r9, ip, lr}
     edc:	52012095 	andpl	r2, r1, #149	; 0x95
     ee0:	9aa40305 	bls	fe901afc <__bss_end__+0xfe8f733c>
     ee4:	01200000 	teqeq	r0, r0
     ee8:	68030551 	stmdavs	r3, {r0, r4, r6, r8, sl}
     eec:	2000009b 	mulcs	r0, fp, r0
     ef0:	03055001 	movweq	r5, #20481	; 0x5001
     ef4:	00009d90 	muleq	r0, r0, sp
     ef8:	86802500 	strhi	r2, [r0], r0, lsl #10
     efc:	0f970000 	svceq	0x00970000
     f00:	08000000 	stmdaeq	r0, {}	; <UNPREDICTABLE>
     f04:	000000a6 	andeq	r0, r0, r6, lsr #1
     f08:	00000c60 	andeq	r0, r0, r0, ror #24
     f0c:	00009709 	andeq	r9, r0, r9, lsl #14
     f10:	07000c00 	streq	r0, [r0, -r0, lsl #24]
     f14:	00000c50 	andeq	r0, r0, r0, asr ip
     f18:	00027527 	andeq	r7, r2, r7, lsr #10
     f1c:	27990100 	ldrcs	r0, [r9, r0, lsl #2]
     f20:	98000002 	stmdals	r0, {r1}
     f24:	74000086 	strvc	r0, [r0], #-134	; 0x86
     f28:	01000000 	mrseq	r0, (UNDEF: 0)
     f2c:	000d1a9c 	muleq	sp, ip, sl
     f30:	00701500 	rsbseq	r1, r0, r0, lsl #10
     f34:	02279901 	eoreq	r9, r7, #16384	; 0x4000
     f38:	06300000 	ldrteq	r0, [r0], -r0
     f3c:	78190000 	ldmdavc	r9, {}	; <UNPREDICTABLE>
     f40:	01000002 	tsteq	r0, r2
     f44:	0002279a 	muleq	r2, sl, r7
     f48:	24540100 	ldrbcs	r0, [r4], #-256	; 0x100
     f4c:	00000110 	andeq	r0, r0, r0, lsl r1
     f50:	00000d2a 	andeq	r0, r0, sl, lsr #26
     f54:	9ab40305 	bls	fed01b70 <__bss_end__+0xfecf73b0>
     f58:	971b0000 	ldrls	r0, [fp, -r0]
     f5c:	9c000002 	stcls	0, cr0, [r0], {2}
     f60:	10000086 	andne	r0, r0, r6, lsl #1
     f64:	01000000 	mrseq	r0, (UNDEF: 0)
     f68:	000cc49a 	muleq	ip, sl, r4
     f6c:	02a71c00 	adceq	r1, r7, #0, 24
     f70:	066a0000 	strbteq	r0, [sl], -r0
     f74:	1f000000 	svcne	0x00000000
     f78:	000086c8 	andeq	r8, r0, r8, asr #13
     f7c:	000004e6 	andeq	r0, r0, r6, ror #9
     f80:	00000cd8 	ldrdeq	r0, [r0], -r8
     f84:	02500120 	subseq	r0, r0, #32, 2
     f88:	25000074 	strcs	r0, [r0, #-116]	; 0x74
     f8c:	000086d4 	ldrdeq	r8, [r0], -r4
     f90:	00000f90 	muleq	r0, r0, pc	; <UNPREDICTABLE>
     f94:	0086e81f 	addeq	lr, r6, pc, lsl r8
     f98:	000f3a00 	andeq	r3, pc, r0, lsl #20
     f9c:	000d1000 	andeq	r1, sp, r0
     fa0:	53012000 	movwpl	r2, #4096	; 0x1000
     fa4:	20a30802 	adccs	r0, r3, r2, lsl #16
     fa8:	03055201 	movweq	r5, #20993	; 0x5201
     fac:	00009ab4 			; <UNDEFINED> instruction: 0x00009ab4
     fb0:	05510120 	ldrbeq	r0, [r1, #-288]	; 0x120
     fb4:	009b6803 	addseq	r6, fp, r3, lsl #16
     fb8:	50012000 	andpl	r2, r1, r0
     fbc:	9db40305 	ldcls	3, cr0, [r4, #20]!
     fc0:	25000000 	strcs	r0, [r0, #-0]
     fc4:	000086ec 	andeq	r8, r0, ip, ror #13
     fc8:	00000f97 	muleq	r0, r7, pc	; <UNPREDICTABLE>
     fcc:	00a60800 	adceq	r0, r6, r0, lsl #16
     fd0:	0d2a0000 	stceq	0, cr0, [sl, #-0]
     fd4:	97090000 	strls	r0, [r9, -r0]
     fd8:	0b000000 	bleq	fe0 <_start-0x7020>
     fdc:	0d1a0700 	ldceq	7, cr0, [sl, #-0]
     fe0:	cc270000 	stcgt	0, cr0, [r7], #-0
     fe4:	01000002 	tsteq	r0, r2
     fe8:	0001d0a7 	andeq	sp, r1, r7, lsr #1
     fec:	00870c00 	addeq	r0, r7, r0, lsl #24
     ff0:	00003000 	andeq	r3, r0, r0
     ff4:	579c0100 	ldrpl	r0, [ip, r0, lsl #2]
     ff8:	1900000d 	stmdbne	r0, {r0, r2, r3}
     ffc:	000002d1 	ldrdeq	r0, [r0], -r1
    1000:	01d0a801 	bicseq	sl, r0, r1, lsl #16
    1004:	70020000 	andvc	r0, r2, r0
    1008:	18270000 	stmdane	r7!, {}	; <UNPREDICTABLE>
    100c:	01000002 	tsteq	r0, r2
    1010:	000025b1 			; <UNDEFINED> instruction: 0x000025b1
    1014:	00873c00 	addeq	r3, r7, r0, lsl #24
    1018:	00014000 	andeq	r4, r1, r0
    101c:	019c0100 	orrseq	r0, ip, r0, lsl #2
    1020:	1a00000f 	bne	1064 <_start-0x6f9c>
    1024:	00000325 	andeq	r0, r0, r5, lsr #6
    1028:	0037b201 	eorseq	fp, r7, r1, lsl #4
    102c:	06a40000 	strteq	r0, [r4], r0
    1030:	741a0000 	ldrvc	r0, [sl], #-0
    1034:	01000003 	tsteq	r0, r3
    1038:	000037b3 			; <UNDEFINED> instruction: 0x000037b3
    103c:	0006b700 	andeq	fp, r6, r0, lsl #14
    1040:	02f41a00 	rscseq	r1, r4, #0, 20
    1044:	b7010000 	strlt	r0, [r1, -r0]
    1048:	00000037 	andeq	r0, r0, r7, lsr r0
    104c:	000006ca 	andeq	r0, r0, sl, asr #13
    1050:	0003061a 	andeq	r0, r3, sl, lsl r6
    1054:	37b80100 	ldrcc	r0, [r8, r0, lsl #2]!
    1058:	e9000000 	stmdb	r0, {}	; <UNPREDICTABLE>
    105c:	19000006 	stmdbne	r0, {r1, r2}
    1060:	0000025a 	andeq	r0, r0, sl, asr r2
    1064:	0f01ba01 	svceq	0x0001ba01
    1068:	54010000 	strpl	r0, [r1], #-0
    106c:	00005028 	andeq	r5, r0, r8, lsr #32
    1070:	000e6200 	andeq	r6, lr, r0, lsl #4
    1074:	00681700 	rsbeq	r1, r8, r0, lsl #14
    1078:	0227bc01 	eoreq	fp, r7, #256	; 0x100
    107c:	07080000 	streq	r0, [r8, -r0]
    1080:	941f0000 	ldrls	r0, [pc], #-0	; 1088 <_start-0x6f78>
    1084:	e6000087 	str	r0, [r0], -r7, lsl #1
    1088:	e3000004 	movw	r0, #4
    108c:	2000000d 	andcs	r0, r0, sp
    1090:	74025001 	strvc	r5, [r2], #-1
    1094:	a41f0000 	ldrge	r0, [pc], #-0	; 109c <_start-0x6f64>
    1098:	3a000087 	bcc	12bc <_start-0x6d44>
    109c:	f700000f 			; <UNDEFINED> instruction: 0xf700000f
    10a0:	2000000d 	andcs	r0, r0, sp
    10a4:	79025001 	stmdbvc	r2, {r0, ip, lr}
    10a8:	ac1f0000 	ldcge	0, cr0, [pc], {-0}
    10ac:	3a000087 	bcc	12d0 <_start-0x6d30>
    10b0:	0e00000f 	cdpeq	0, 0, cr0, cr0, cr15, {0}
    10b4:	2000000e 	andcs	r0, r0, lr
    10b8:	03055001 	movweq	r5, #20481	; 0x5001
    10bc:	00009e10 	andeq	r9, r0, r0, lsl lr
    10c0:	87bc1f00 	ldrhi	r1, [ip, r0, lsl #30]!
    10c4:	05d60000 	ldrbeq	r0, [r6]
    10c8:	0e220000 	cdpeq	0, 2, cr0, cr2, cr0, {0}
    10cc:	01200000 	teqeq	r0, r0
    10d0:	00740250 	rsbseq	r0, r4, r0, asr r2
    10d4:	87e01f00 	strbhi	r1, [r0, r0, lsl #30]!
    10d8:	02d60000 	sbcseq	r0, r6, #0
    10dc:	0e3d0000 	cdpeq	0, 3, cr0, cr13, cr0, {0}
    10e0:	01200000 	teqeq	r0, r0
    10e4:	b8740351 	ldmdalt	r4!, {r0, r4, r6, r8, r9}^
    10e8:	50012001 	andpl	r2, r1, r1
    10ec:	00007402 	andeq	r7, r0, r2, lsl #8
    10f0:	0087f01f 	addeq	pc, r7, pc, lsl r0	; <UNPREDICTABLE>
    10f4:	000f3a00 	andeq	r3, pc, r0, lsl #20
    10f8:	000e5100 	andeq	r5, lr, r0, lsl #2
    10fc:	50012000 	andpl	r2, r1, r0
    1100:	00007902 	andeq	r7, r0, r2, lsl #18
    1104:	0087f821 	addeq	pc, r7, r1, lsr #16
    1108:	000f3a00 	andeq	r3, pc, r0, lsl #20
    110c:	50012000 	andpl	r2, r1, r0
    1110:	00007802 	andeq	r7, r0, r2, lsl #16
    1114:	87601f00 	strbhi	r1, [r0, -r0, lsl #30]!
    1118:	0f3a0000 	svceq	0x003a0000
    111c:	0e790000 	cdpeq	0, 7, cr0, cr9, cr0, {0}
    1120:	01200000 	teqeq	r0, r0
    1124:	c0030550 	andgt	r0, r3, r0, asr r5
    1128:	0000009a 	muleq	r0, sl, r0
    112c:	0087701f 	addeq	r7, r7, pc, lsl r0
    1130:	000f3a00 	andeq	r3, pc, r0, lsl #20
    1134:	000e9c00 	andeq	r9, lr, r0, lsl #24
    1138:	52012000 	andpl	r2, r1, #0
    113c:	20007502 	andcs	r7, r0, r2, lsl #10
    1140:	76025101 	strvc	r5, [r2], -r1, lsl #2
    1144:	50012000 	andpl	r2, r1, r0
    1148:	9dd80305 	ldclls	3, cr0, [r8, #20]
    114c:	1f000000 	svcne	0x00000000
    1150:	00008830 	andeq	r8, r0, r0, lsr r8
    1154:	00000f3a 	andeq	r0, r0, sl, lsr pc
    1158:	00000eb0 			; <UNDEFINED> instruction: 0x00000eb0
    115c:	02500120 	subseq	r0, r0, #32, 2
    1160:	1f000079 	svcne	0x00000079
    1164:	00008840 	andeq	r8, r0, r0, asr #16
    1168:	00000f3a 	andeq	r0, r0, sl, lsr pc
    116c:	00000ed3 	ldrdeq	r0, [r0], -r3
    1170:	02520120 	subseq	r0, r2, #32, 2
    1174:	01200076 	teqeq	r0, r6, ror r0
    1178:	00750251 	rsbseq	r0, r5, r1, asr r2
    117c:	05500120 	ldrbeq	r0, [r0, #-288]	; 0x120
    1180:	009e4003 	addseq	r4, lr, r3
    1184:	4c1f0000 	ldcmi	0, cr0, [pc], {-0}
    1188:	3a000088 	bcc	13b0 <_start-0x6c50>
    118c:	e700000f 	str	r0, [r0, -pc]
    1190:	2000000e 	andcs	r0, r0, lr
    1194:	79025001 	stmdbvc	r2, {r0, ip, lr}
    1198:	58210000 	stmdapl	r1!, {}	; <UNPREDICTABLE>
    119c:	3a000088 	bcc	13c4 <_start-0x6c3c>
    11a0:	2000000f 	andcs	r0, r0, pc
    11a4:	75025101 	strvc	r5, [r2, #-257]	; 0x101
    11a8:	50012000 	andpl	r2, r1, r0
    11ac:	9e680305 	cdpls	3, 6, cr0, cr8, cr5, {0}
    11b0:	00000000 	andeq	r0, r0, r0
    11b4:	005a0406 	subseq	r0, sl, r6, lsl #8
    11b8:	12190000 	andsne	r0, r9, #0
    11bc:	01000004 	tsteq	r0, r4
    11c0:	000f0108 	andeq	r0, pc, r8, lsl #2
    11c4:	b4030500 	strlt	r0, [r3], #-1280	; 0x500
    11c8:	190000a3 	stmdbne	r0, {r0, r1, r5, r7}
    11cc:	00000d5c 	andeq	r0, r0, ip, asr sp
    11d0:	0f010801 	svceq	0x00010801
    11d4:	03050000 	movweq	r0, #20480	; 0x5000
    11d8:	0000a3b8 			; <UNDEFINED> instruction: 0x0000a3b8
    11dc:	000d4919 	andeq	r4, sp, r9, lsl r9
    11e0:	01080100 	mrseq	r0, (UNDEF: 24)
    11e4:	0500000f 	streq	r0, [r0, #-15]
    11e8:	00a3b003 	adceq	fp, r3, r3
    11ec:	05032900 	streq	r2, [r3, #-2304]	; 0x900
    11f0:	29050000 	stmdbcs	r5, {}	; <UNPREDICTABLE>
    11f4:	00000025 	andeq	r0, r0, r5, lsr #32
    11f8:	00000f50 	andeq	r0, r0, r0, asr pc
    11fc:	0000ad2a 	andeq	sl, r0, sl, lsr #26
    1200:	29002b00 	stmdbcs	r0, {r8, r9, fp, sp}
    1204:	00000109 	andeq	r0, r0, r9, lsl #2
    1208:	009e1b06 	addseq	r1, lr, r6, lsl #22
    120c:	0f6f0000 	svceq	0x006f0000
    1210:	9e2a0000 	cdpls	0, 2, cr0, cr10, cr0, {0}
    1214:	2a000000 	bcs	121c <_start-0x6de4>
    1218:	00000025 	andeq	r0, r0, r5, lsr #32
    121c:	00002c2a 	andeq	r2, r0, sl, lsr #24
    1220:	a8290000 	stmdage	r9!, {}	; <UNPREDICTABLE>
    1224:	07000001 	streq	r0, [r0, -r1]
    1228:	00007e05 	andeq	r7, r0, r5, lsl #28
    122c:	000f8900 	andeq	r8, pc, r0, lsl #18
    1230:	0f892a00 	svceq	0x00892a00
    1234:	252a0000 	strcs	r0, [sl, #-0]!
    1238:	00000000 	andeq	r0, r0, r0
    123c:	0f8f0406 	svceq	0x008f0406
    1240:	2d2c0000 	stccs	0, cr0, [ip, #-0]
    1244:	00000234 	andeq	r0, r0, r4, lsr r2
    1248:	812d1e05 	teqhi	sp, r5, lsl #28
    124c:	05000002 	streq	r0, [r0, #-2]
    1250:	0bba0065 	bleq	fee813ec <__bss_end__+0xfee76c2c>
    1254:	00040000 	andeq	r0, r4, r0
    1258:	000003e0 	andeq	r0, r0, r0, ror #7
    125c:	005f0104 	subseq	r0, pc, r4, lsl #2
    1260:	49010000 	stmdbmi	r1, {}	; <UNPREDICTABLE>
    1264:	0f000004 	svceq	0x00000004
    1268:	7c000000 	stcvc	0, cr0, [r0], {-0}
    126c:	74000088 	strvc	r0, [r0], #-136	; 0x88
    1270:	5c000004 	stcpl	0, cr0, [r0], {4}
    1274:	02000004 	andeq	r0, r0, #4
    1278:	6e690504 	cdpvs	5, 6, cr0, cr9, cr4, {0}
    127c:	04030074 	streq	r0, [r3], #-116	; 0x74
    1280:	00013407 	andeq	r3, r1, r7, lsl #8
    1284:	06010300 	streq	r0, [r1], -r0, lsl #6
    1288:	000000e2 	andeq	r0, r0, r2, ror #1
    128c:	58050203 	stmdapl	r5, {r0, r1, r9}
    1290:	03000001 	movweq	r0, #1
    1294:	014f0504 	cmpeq	pc, r4, lsl #10
    1298:	08030000 	stmdaeq	r3, {}	; <UNPREDICTABLE>
    129c:	00014a05 	andeq	r4, r1, r5, lsl #20
    12a0:	08010300 	stmdaeq	r1, {r8, r9}
    12a4:	000000e0 	andeq	r0, r0, r0, ror #1
    12a8:	0001ff04 	andeq	pc, r1, r4, lsl #30
    12ac:	61310300 	teqvs	r1, r0, lsl #6
    12b0:	03000000 	movweq	r0, #0
    12b4:	00ee0702 	rsceq	r0, lr, r2, lsl #14
    12b8:	62040000 	andvs	r0, r4, #0
    12bc:	03000001 	movweq	r0, #1
    12c0:	00007334 	andeq	r7, r0, r4, lsr r3
    12c4:	07040300 	streq	r0, [r4, -r0, lsl #6]
    12c8:	0000012f 	andeq	r0, r0, pc, lsr #2
    12cc:	2a070803 	bcs	1c32e0 <__bss_end__+0x1b8b20>
    12d0:	03000001 	movweq	r0, #1
    12d4:	01410704 	cmpeq	r1, r4, lsl #14
    12d8:	04050000 	streq	r0, [r5], #-0
    12dc:	e9080103 	stmdb	r8, {r0, r1, r8}
    12e0:	06000000 	streq	r0, [r0], -r0
    12e4:	00009704 	andeq	r9, r0, r4, lsl #14
    12e8:	008a0700 	addeq	r0, sl, r0, lsl #14
    12ec:	01080000 	mrseq	r0, (UNDEF: 8)
    12f0:	00b12702 	adcseq	r2, r1, r2, lsl #14
    12f4:	d2090000 	andle	r0, r9, #0
    12f8:	0b000001 	bleq	1304 <_start-0x6cfc>
    12fc:	0001c709 	andeq	ip, r1, r9, lsl #14
    1300:	0a000c00 	beq	4308 <_start-0x3cf8>
    1304:	de29020c 	cdple	2, 2, cr0, cr9, cr12, {0}
    1308:	0b000000 	bleq	1310 <_start-0x6cf0>
    130c:	000008de 	ldrdeq	r0, [r0], -lr
    1310:	00912a02 	addseq	r2, r1, r2, lsl #20
    1314:	0b000000 	bleq	131c <_start-0x6ce4>
    1318:	00000ba8 	andeq	r0, r0, r8, lsr #23
    131c:	00912b02 	addseq	r2, r1, r2, lsl #22
    1320:	0b040000 	bleq	101328 <__bss_end__+0xf6b68>
    1324:	00000339 	andeq	r0, r0, r9, lsr r3
    1328:	002c2c02 	eoreq	r2, ip, r2, lsl #24
    132c:	00080000 	andeq	r0, r8, r0
    1330:	0002d604 	andeq	sp, r2, r4, lsl #12
    1334:	b12d0200 	teqlt	sp, r0, lsl #4
    1338:	0c000000 	stceq	0, cr0, [r0], {-0}
    133c:	00000383 	andeq	r0, r0, r3, lsl #7
    1340:	6e300238 	mrcvs	2, 1, r0, cr0, cr8, {1}
    1344:	0b000001 	bleq	1350 <_start-0x6cb0>
    1348:	000002aa 	andeq	r0, r0, sl, lsr #5
    134c:	00683102 	rsbeq	r3, r8, r2, lsl #2
    1350:	0b000000 	bleq	1358 <_start-0x6ca8>
    1354:	00000369 	andeq	r0, r0, r9, ror #6
    1358:	00683202 	rsbeq	r3, r8, r2, lsl #4
    135c:	0b040000 	bleq	101364 <__bss_end__+0xf6ba4>
    1360:	00000769 	andeq	r0, r0, r9, ror #14
    1364:	00683302 	rsbeq	r3, r8, r2, lsl #6
    1368:	0b080000 	bleq	201370 <__bss_end__+0x1f6bb0>
    136c:	0000029c 	muleq	r0, ip, r2
    1370:	00683702 	rsbeq	r3, r8, r2, lsl #14
    1374:	0b0c0000 	bleq	30137c <__bss_end__+0x2f6bbc>
    1378:	0000028e 	andeq	r0, r0, lr, lsl #5
    137c:	00de3902 	sbcseq	r3, lr, r2, lsl #18
    1380:	0b100000 	bleq	401388 <__bss_end__+0x3f6bc8>
    1384:	000002b7 			; <UNDEFINED> instruction: 0x000002b7
    1388:	00de3a02 	sbcseq	r3, lr, r2, lsl #20
    138c:	0b1c0000 	bleq	701394 <__bss_end__+0x6f6bd4>
    1390:	000001f4 	strdeq	r0, [r0], -r4
    1394:	00683e02 	rsbeq	r3, r8, r2, lsl #28
    1398:	0b280000 	bleq	a013a0 <__bss_end__+0x9f6be0>
    139c:	000001da 	ldrdeq	r0, [r0], -sl
    13a0:	00683f02 	rsbeq	r3, r8, r2, lsl #30
    13a4:	0b2c0000 	bleq	b013ac <__bss_end__+0xaf6bec>
    13a8:	0000019c 	muleq	r0, ip, r1
    13ac:	016e4202 	cmneq	lr, r2, lsl #4
    13b0:	0b300000 	bleq	c013b8 <__bss_end__+0xbf6bf8>
    13b4:	000001cd 	andeq	r0, r0, sp, asr #3
    13b8:	00564502 	subseq	r4, r6, r2, lsl #10
    13bc:	00340000 	eorseq	r0, r4, r0
    13c0:	00e90406 	rsceq	r0, r9, r6, lsl #8
    13c4:	63040000 	movwvs	r0, #16384	; 0x4000
    13c8:	02000003 	andeq	r0, r0, #3
    13cc:	0000e946 	andeq	lr, r0, r6, asr #18
    13d0:	02020800 	andeq	r0, r2, #0, 16
    13d4:	0001a449 	andeq	sl, r1, r9, asr #8
    13d8:	030c0900 	movweq	r0, #51456	; 0xc900
    13dc:	01fe0000 	mvnseq	r0, r0
    13e0:	0002a209 	andeq	sl, r2, r9, lsl #4
    13e4:	09018000 	stmdbeq	r1, {pc}
    13e8:	00000227 	andeq	r0, r0, r7, lsr #4
    13ec:	080901b8 	stmdaeq	r9, {r3, r4, r5, r7, r8}
    13f0:	b8000002 	stmdalt	r0, {r1}
    13f4:	cc0c0002 	stcgt	0, cr0, [ip], {2}
    13f8:	10000002 	andne	r0, r0, r2
    13fc:	01e19a02 	mvneq	r9, r2, lsl #20
    1400:	490b0000 	stmdbmi	fp, {}	; <UNPREDICTABLE>
    1404:	0200000d 	andeq	r0, r0, #13
    1408:	0000889c 	muleq	r0, ip, r8
    140c:	5c0b0000 	stcpl	0, cr0, [fp], {-0}
    1410:	0200000d 	andeq	r0, r0, #13
    1414:	0000889e 	muleq	r0, lr, r8
    1418:	820b0400 	andhi	r0, fp, #0, 8
    141c:	02000001 	andeq	r0, r0, #1
    1420:	00002ca1 	andeq	r2, r0, r1, lsr #25
    1424:	1e0b0800 	cdpne	8, 0, cr0, cr11, cr0, {0}
    1428:	02000003 	andeq	r0, r0, #3
    142c:	00002ca3 	andeq	r2, r0, r3, lsr #25
    1430:	0d000c00 	stceq	12, cr0, [r0, #-0]
    1434:	000001bd 			; <UNDEFINED> instruction: 0x000001bd
    1438:	00885702 	addeq	r5, r8, r2, lsl #14
    143c:	fb030000 	blx	c1446 <__bss_end__+0xb6c86>
    1440:	0e000001 	cdpeq	0, 0, cr0, cr0, cr1, {0}
    1444:	57020068 	strpl	r0, [r2, -r8, rrx]
    1448:	000001fb 	strdeq	r0, [r0], -fp
    144c:	74040600 	strvc	r0, [r4], #-1536	; 0x600
    1450:	0d000001 	stceq	0, cr0, [r0, #-4]
    1454:	000002c0 	andeq	r0, r0, r0, asr #5
    1458:	00885902 	addeq	r5, r8, r2, lsl #18
    145c:	1b030000 	blne	c1464 <__bss_end__+0xb6ca4>
    1460:	0e000002 	cdpeq	0, 0, cr0, cr0, cr2, {0}
    1464:	59020068 	stmdbpl	r2, {r3, r5, r6}
    1468:	000001fb 	strdeq	r0, [r0], -fp
    146c:	024c0d00 	subeq	r0, ip, #0, 26
    1470:	63020000 	movwvs	r0, #8192	; 0x2000
    1474:	0000002c 	andeq	r0, r0, ip, lsr #32
    1478:	00023503 	andeq	r3, r2, r3, lsl #10
    147c:	00680e00 	rsbeq	r0, r8, r0, lsl #28
    1480:	01fb6302 	mvnseq	r6, r2, lsl #6
    1484:	0f000000 	svceq	0x00000000
    1488:	0000040f 	andeq	r0, r0, pc, lsl #8
    148c:	00251b01 	eoreq	r1, r5, r1, lsl #22
    1490:	887c0000 	ldmdahi	ip!, {}^	; <UNPREDICTABLE>
    1494:	00180000 	andseq	r0, r8, r0
    1498:	9c010000 	stcls	0, cr0, [r1], {-0}
    149c:	0000025c 	andeq	r0, r0, ip, asr r2
    14a0:	01007010 	tsteq	r0, r0, lsl r0
    14a4:	0000881b 	andeq	r8, r0, fp, lsl r8
    14a8:	00071b00 	andeq	r1, r7, r0, lsl #22
    14ac:	670f0000 	strvs	r0, [pc, -r0]
    14b0:	01000004 	tsteq	r0, r4
    14b4:	0001fb27 	andeq	pc, r1, r7, lsr #22
    14b8:	00889400 	addeq	r9, r8, r0, lsl #8
    14bc:	00005000 	andeq	r5, r0, r0
    14c0:	c79c0100 	ldrgt	r0, [ip, r0, lsl #2]
    14c4:	11000002 	tstne	r0, r2
    14c8:	000001a3 	andeq	r0, r0, r3, lsr #3
    14cc:	00682701 	rsbeq	r2, r8, r1, lsl #14
    14d0:	07550000 	ldrbeq	r0, [r5, -r0]
    14d4:	70120000 	andsvc	r0, r2, r0
    14d8:	88280100 	stmdahi	r8!, {r8}
    14dc:	73000000 	movwvc	r0, #0
    14e0:	13000007 	movwne	r0, #7
    14e4:	00000476 	andeq	r0, r0, r6, ror r4
    14e8:	01fb2d01 	mvnseq	r2, r1, lsl #26
    14ec:	07910000 	ldreq	r0, [r1, r0]
    14f0:	a0140000 	andsge	r0, r4, r0
    14f4:	35000088 	strcc	r0, [r0, #-136]	; 0x88
    14f8:	b4000002 	strlt	r0, [r0], #-2
    14fc:	15000002 	strne	r0, [r0, #-2]
    1500:	74025001 	strvc	r5, [r2], #-1
    1504:	ac160000 	ldcge	0, cr0, [r6], {-0}
    1508:	51000088 	smlabbpl	r0, r8, r0, r0
    150c:	1600000b 	strne	r0, [r0], -fp
    1510:	000088d0 	ldrdeq	r8, [r0], -r0
    1514:	00000b5c 	andeq	r0, r0, ip, asr fp
    1518:	04040f00 	streq	r0, [r4], #-3840	; 0xf00
    151c:	5b010000 	blpl	41524 <__bss_end__+0x36d64>
    1520:	0000002c 	andeq	r0, r0, ip, lsr #32
    1524:	000088e4 	andeq	r8, r0, r4, ror #17
    1528:	00000098 	muleq	r0, r8, r0
    152c:	03d59c01 	bicseq	r9, r5, #256	; 0x100
    1530:	94110000 	ldrls	r0, [r1], #-0
    1534:	01000003 	tsteq	r0, r3
    1538:	0000255b 	andeq	r2, r0, fp, asr r5
    153c:	0007af00 	andeq	sl, r7, r0, lsl #30
    1540:	046e1300 	strbteq	r1, [lr], #-768	; 0x300
    1544:	5c010000 	stcpl	0, cr0, [r1], {-0}
    1548:	0000002c 	andeq	r0, r0, ip, lsr #32
    154c:	000007d0 	ldrdeq	r0, [r0], -r0	; <UNPREDICTABLE>
    1550:	0003cf17 	andeq	ip, r3, r7, lsl pc
    1554:	2c5c0100 	ldfcse	f0, [ip], {-0}
    1558:	00000000 	andeq	r0, r0, r0
    155c:	0003c917 	andeq	ip, r3, r7, lsl r9
    1560:	2c5c0100 	ldfcse	f0, [ip], {-0}
    1564:	00000000 	andeq	r0, r0, r0
    1568:	00024313 	andeq	r4, r2, r3, lsl r3
    156c:	fb600100 	blx	1801976 <__bss_end__+0x17f71b6>
    1570:	ef000001 	svc	0x00000001
    1574:	14000007 	strne	r0, [r0], #-7
    1578:	000088f0 	strdeq	r8, [r0], -r0
    157c:	00000b71 	andeq	r0, r0, r1, ror fp
    1580:	0000033c 	andeq	r0, r0, ip, lsr r3
    1584:	05500115 	ldrbeq	r0, [r0, #-277]	; 0x115
    1588:	009eec03 	addseq	lr, lr, r3, lsl #24
    158c:	f8140000 			; <UNDEFINED> instruction: 0xf8140000
    1590:	71000088 	smlabbvc	r0, r8, r0, r0
    1594:	5300000b 	movwpl	r0, #11
    1598:	15000003 	strne	r0, [r0, #-3]
    159c:	03055001 	movweq	r5, #20481	; 0x5001
    15a0:	00009f28 	andeq	r9, r0, r8, lsr #30
    15a4:	88fc1600 	ldmhi	ip!, {r9, sl, ip}^
    15a8:	0b510000 	bleq	14415b0 <__bss_end__+0x1436df0>
    15ac:	24160000 	ldrcs	r0, [r6], #-0
    15b0:	5c000089 	stcpl	0, cr0, [r0], {137}	; 0x89
    15b4:	1400000b 	strne	r0, [r0], #-11
    15b8:	00008938 	andeq	r8, r0, r8, lsr r9
    15bc:	00000b71 	andeq	r0, r0, r1, ror fp
    15c0:	00000379 	andeq	r0, r0, r9, ror r3
    15c4:	02500115 	subseq	r0, r0, #1073741829	; 0x40000005
    15c8:	14000075 	strne	r0, [r0], #-117	; 0x75
    15cc:	00008944 	andeq	r8, r0, r4, asr #18
    15d0:	00000b71 	andeq	r0, r0, r1, ror fp
    15d4:	00000396 	muleq	r0, r6, r3
    15d8:	02510115 	subseq	r0, r1, #1073741829	; 0x40000005
    15dc:	01150074 	tsteq	r5, r4, ror r0
    15e0:	40030550 	andmi	r0, r3, r0, asr r5
    15e4:	0000009f 	muleq	r0, pc, r0	; <UNPREDICTABLE>
    15e8:	00894c14 	addeq	r4, r9, r4, lsl ip
    15ec:	000b7100 	andeq	r7, fp, r0, lsl #2
    15f0:	0003aa00 	andeq	sl, r3, r0, lsl #20
    15f4:	50011500 	andpl	r1, r1, r0, lsl #10
    15f8:	00007502 	andeq	r7, r0, r2, lsl #10
    15fc:	00895414 	addeq	r5, r9, r4, lsl r4
    1600:	000b7100 	andeq	r7, fp, r0, lsl #2
    1604:	0003c100 	andeq	ip, r3, r0, lsl #2
    1608:	50011500 	andpl	r1, r1, r0, lsl #10
    160c:	9f580305 	svcls	0x00580305
    1610:	18000000 	stmdane	r0, {}	; <UNPREDICTABLE>
    1614:	0000895c 	andeq	r8, r0, ip, asr r9
    1618:	00000b71 	andeq	r0, r0, r1, ror fp
    161c:	05500115 	ldrbeq	r0, [r0, #-277]	; 0x115
    1620:	009f7803 	addseq	r7, pc, r3, lsl #16
    1624:	19000000 	stmdbne	r0, {}	; <UNPREDICTABLE>
    1628:	000001cd 	andeq	r0, r0, sp, asr #3
    162c:	897c4401 	ldmdbhi	ip!, {r0, sl, lr}^
    1630:	00ec0000 	rsceq	r0, ip, r0
    1634:	9c010000 	stcls	0, cr0, [r1], {-0}
    1638:	0000053a 	andeq	r0, r0, sl, lsr r5
    163c:	01007010 	tsteq	r0, r0, lsl r0
    1640:	00053a44 	andeq	r3, r5, r4, asr #20
    1644:	00080d00 	andeq	r0, r8, r0, lsl #26
    1648:	00651000 	rsbeq	r1, r5, r0
    164c:	053a4401 	ldreq	r4, [sl, #-1025]!	; 0x401
    1650:	08700000 	ldmdaeq	r0!, {}^	; <UNPREDICTABLE>
    1654:	101a0000 	andsne	r0, sl, r0
    1658:	50000001 	andpl	r0, r0, r1
    165c:	05000005 	streq	r0, [r0, #-5]
    1660:	009e9803 	addseq	r9, lr, r3, lsl #16
    1664:	02431300 	subeq	r1, r3, #0, 6
    1668:	4a010000 	bmi	41670 <__bss_end__+0x36eb0>
    166c:	000001fb 	strdeq	r0, [r0], -fp
    1670:	000008dc 	ldrdeq	r0, [r0], -ip
    1674:	0000681b 	andeq	r6, r0, fp, lsl r8
    1678:	00047600 	andeq	r7, r4, r0, lsl #12
    167c:	00691200 	rsbeq	r1, r9, r0, lsl #4
    1680:	00684b01 	rsbeq	r4, r8, r1, lsl #22
    1684:	08fd0000 	ldmeq	sp!, {}^	; <UNPREDICTABLE>
    1688:	1b1c0000 	blne	701690 <__bss_end__+0x6f6ed0>
    168c:	14000002 	strne	r0, [r0], #-2
    1690:	1000008a 	andne	r0, r0, sl, lsl #1
    1694:	01000000 	mrseq	r0, (UNDEF: 0)
    1698:	00045551 	andeq	r5, r4, r1, asr r5
    169c:	022b1d00 	eoreq	r1, fp, #0, 26
    16a0:	091b0000 	ldmdbeq	fp, {}	; <UNPREDICTABLE>
    16a4:	14000000 	strne	r0, [r0], #-0
    16a8:	000089f8 	strdeq	r8, [r0], -r8	; <UNPREDICTABLE>
    16ac:	0000025c 	andeq	r0, r0, ip, asr r2
    16b0:	0000046c 	andeq	r0, r0, ip, ror #8
    16b4:	05500115 	ldrbeq	r0, [r0, #-277]	; 0x115
    16b8:	00740076 	rsbseq	r0, r4, r6, ror r0
    16bc:	30160022 	andscc	r0, r6, r2, lsr #32
    16c0:	d500008a 	strle	r0, [r0, #-138]	; 0x8a
    16c4:	00000003 	andeq	r0, r0, r3
    16c8:	00898c16 	addeq	r8, r9, r6, lsl ip
    16cc:	000b8700 	andeq	r8, fp, r0, lsl #14
    16d0:	89a01400 	stmibhi	r0!, {sl, ip}
    16d4:	0b710000 	bleq	1c416dc <__bss_end__+0x1c36f1c>
    16d8:	04ae0000 	strteq	r0, [lr], #0
    16dc:	01150000 	tsteq	r5, r0
    16e0:	45080253 	strmi	r0, [r8, #-595]	; 0x253
    16e4:	05520115 	ldrbeq	r0, [r2, #-277]	; 0x115
    16e8:	009e9803 	addseq	r9, lr, r3, lsl #16
    16ec:	51011500 	tstpl	r1, r0, lsl #10
    16f0:	9fc80305 	svcls	0x00c80305
    16f4:	01150000 	tsteq	r5, r0
    16f8:	b4030550 	strlt	r0, [r3], #-1360	; 0x550
    16fc:	0000009f 	muleq	r0, pc, r0	; <UNPREDICTABLE>
    1700:	0089a416 	addeq	sl, r9, r6, lsl r4
    1704:	000b8e00 	andeq	r8, fp, r0, lsl #28
    1708:	89b41600 	ldmibhi	r4!, {r9, sl, ip}
    170c:	0b870000 	bleq	fe1c1714 <__bss_end__+0xfe1b6f54>
    1710:	c8140000 	ldmdagt	r4, {}	; <UNPREDICTABLE>
    1714:	71000089 	smlabbvc	r0, r9, r0, r0
    1718:	ef00000b 	svc	0x0000000b
    171c:	15000004 	strne	r0, [r0, #-4]
    1720:	08025301 	stmdaeq	r2, {r0, r8, r9, ip, lr}
    1724:	52011547 	andpl	r1, r1, #297795584	; 0x11c00000
    1728:	9e980305 	cdpls	3, 9, cr0, cr8, cr5, {0}
    172c:	01150000 	tsteq	r5, r0
    1730:	c8030551 	stmdagt	r3, {r0, r4, r6, r8, sl}
    1734:	1500009f 	strne	r0, [r0, #-159]	; 0x9f
    1738:	03055001 	movweq	r5, #20481	; 0x5001
    173c:	00009fd0 	ldrdeq	r9, [r0], -r0
    1740:	89cc1600 	stmibhi	ip, {r9, sl, ip}^
    1744:	0b8e0000 	bleq	fe38174c <__bss_end__+0xfe376f8c>
    1748:	d8160000 	ldmdale	r6, {}	; <UNPREDICTABLE>
    174c:	87000089 	strhi	r0, [r0, -r9, lsl #1]
    1750:	1400000b 	strne	r0, [r0], #-11
    1754:	000089ec 	andeq	r8, r0, ip, ror #19
    1758:	00000b71 	andeq	r0, r0, r1, ror fp
    175c:	00000530 	andeq	r0, r0, r0, lsr r5
    1760:	02530115 	subseq	r0, r3, #1073741829	; 0x40000005
    1764:	01154808 	tsteq	r5, r8, lsl #16
    1768:	98030552 	stmdals	r3, {r1, r4, r6, r8, sl}
    176c:	1500009e 	strne	r0, [r0, #-158]	; 0x9e
    1770:	03055101 	movweq	r5, #20737	; 0x5101
    1774:	00009fc8 	andeq	r9, r0, r8, asr #31
    1778:	05500115 	ldrbeq	r0, [r0, #-277]	; 0x115
    177c:	009ff003 	addseq	pc, pc, r3
    1780:	f0160000 			; <UNDEFINED> instruction: 0xf0160000
    1784:	8e000089 	cdphi	0, 0, cr0, cr0, cr9, {4}
    1788:	0000000b 	andeq	r0, r0, fp
    178c:	00680406 	rsbeq	r0, r8, r6, lsl #8
    1790:	8a1e0000 	bhi	781798 <__bss_end__+0x776fd8>
    1794:	50000000 	andpl	r0, r0, r0
    1798:	1f000005 	svcne	0x00000005
    179c:	00000081 	andeq	r0, r0, r1, lsl #1
    17a0:	40070004 	andmi	r0, r7, r4
    17a4:	19000005 	stmdbne	r0, {r0, r2}
    17a8:	0000045e 	andeq	r0, r0, lr, asr r4
    17ac:	8a687b01 	bhi	1a203b8 <__bss_end__+0x1a15bf8>
    17b0:	00bc0000 	adcseq	r0, ip, r0
    17b4:	9c010000 	stcls	0, cr0, [r1], {-0}
    17b8:	000006a7 	andeq	r0, r0, r7, lsr #13
    17bc:	01006920 	tsteq	r0, r0, lsr #18
    17c0:	0001a483 	andeq	sl, r1, r3, lsl #9
    17c4:	68910200 	ldmvs	r1, {r9}
    17c8:	00043d21 	andeq	r3, r4, r1, lsr #26
    17cc:	a78b0100 	strge	r0, [fp, r0, lsl #2]
    17d0:	03000006 	movweq	r0, #6
    17d4:	1a7fa891 	bne	1feba20 <__bss_end__+0x1fe1260>
    17d8:	00000110 	andeq	r0, r0, r0, lsl r1
    17dc:	000006c7 	andeq	r0, r0, r7, asr #13
    17e0:	9ea00305 	cdpls	3, 10, cr0, cr0, cr5, {0}
    17e4:	8a220000 	bhi	8817ec <__bss_end__+0x87702c>
    17e8:	01000003 	tsteq	r0, r3
    17ec:	00053a98 	muleq	r5, r8, sl
    17f0:	00000000 	andeq	r0, r0, r0
    17f4:	03ea2308 	mvneq	r2, #8, 6	; 0x20000000
    17f8:	9c010000 	stcls	0, cr0, [r1], {-0}
    17fc:	00000068 	andeq	r0, r0, r8, rrx
    1800:	0003f823 	andeq	pc, r3, r3, lsr #16
    1804:	689c0100 	ldmvs	ip, {r8}
    1808:	23000000 	movwcs	r0, #0
    180c:	00000429 	andeq	r0, r0, r9, lsr #8
    1810:	00689f01 	rsbeq	r9, r8, r1, lsl #30
    1814:	51230000 	teqpl	r3, r0
    1818:	01000004 	tsteq	r0, r4
    181c:	0000689f 	muleq	r0, pc, r8	; <UNPREDICTABLE>
    1820:	8a702400 	bhi	1c0a828 <__bss_end__+0x1c00068>
    1824:	00240000 	eoreq	r0, r4, r0
    1828:	05fc0000 	ldrbeq	r0, [ip, #0]!
    182c:	68120000 	ldmdavs	r2, {}	; <UNPREDICTABLE>
    1830:	fb7e0100 	blx	1f81c3a <__bss_end__+0x1f7747a>
    1834:	3c000001 	stccc	0, cr0, [r0], {1}
    1838:	16000009 	strne	r0, [r0], -r9
    183c:	00008a74 	andeq	r8, r0, r4, ror sl
    1840:	00000b51 	andeq	r0, r0, r1, asr fp
    1844:	008a8c16 	addeq	r8, sl, r6, lsl ip
    1848:	000b5c00 	andeq	r5, fp, r0, lsl #24
    184c:	9c140000 	ldcls	0, cr0, [r4], {-0}
    1850:	9500008a 	strls	r0, [r0, #-138]	; 0x8a
    1854:	1000000b 	andne	r0, r0, fp
    1858:	15000006 	strne	r0, [r0, #-6]
    185c:	91025001 	tstls	r2, r1
    1860:	a8140060 	ldmdage	r4, {r5, r6}
    1864:	a000008a 	andge	r0, r0, sl, lsl #1
    1868:	2400000b 	strcs	r0, [r0], #-11
    186c:	15000006 	strne	r0, [r0, #-6]
    1870:	74025001 	strvc	r5, [r2], #-1
    1874:	b8160000 	ldmdalt	r6, {}	; <UNPREDICTABLE>
    1878:	8700008a 	strhi	r0, [r0, -sl, lsl #1]
    187c:	1400000b 	strne	r0, [r0], #-11
    1880:	00008acc 	andeq	r8, r0, ip, asr #21
    1884:	00000b71 	andeq	r0, r0, r1, ror fp
    1888:	0000065c 	andeq	r0, r0, ip, asr r6
    188c:	02530115 	subseq	r0, r3, #1073741829	; 0x40000005
    1890:	01158e08 	tsteq	r5, r8, lsl #28
    1894:	a0030552 	andge	r0, r3, r2, asr r5
    1898:	1500009e 	strne	r0, [r0, #-158]	; 0x9e
    189c:	03055101 	movweq	r5, #20737	; 0x5101
    18a0:	00009fc8 	andeq	r9, r0, r8, asr #31
    18a4:	05500115 	ldrbeq	r0, [r0, #-277]	; 0x115
    18a8:	00a01003 	adceq	r1, r0, r3
    18ac:	d0160000 	andsle	r0, r6, r0
    18b0:	8e00008a 	cdphi	0, 0, cr0, cr0, cr10, {4}
    18b4:	1400000b 	strne	r0, [r0], #-11
    18b8:	00008adc 	ldrdeq	r8, [r0], -ip
    18bc:	000003d5 	ldrdeq	r0, [r0], -r5
    18c0:	0000067f 	andeq	r0, r0, pc, ror r6
    18c4:	02510115 	subseq	r0, r1, #1073741829	; 0x40000005
    18c8:	01155891 			; <UNDEFINED> instruction: 0x01155891
    18cc:	00740250 	rsbseq	r0, r4, r0, asr r2
    18d0:	8ae81400 	bhi	ffa068d8 <__bss_end__+0xff9fc118>
    18d4:	03d50000 	bicseq	r0, r5, #0
    18d8:	06940000 	ldreq	r0, [r4], r0
    18dc:	01150000 	tsteq	r5, r0
    18e0:	47400351 	smlsldmi	r0, r0, r1, r3	; <UNPREDICTABLE>
    18e4:	f4160024 			; <UNDEFINED> instruction: 0xf4160024
    18e8:	d500008a 	strle	r0, [r0, #-138]	; 0x8a
    18ec:	16000003 	strne	r0, [r0], -r3
    18f0:	00008b00 	andeq	r8, r0, r0, lsl #22
    18f4:	000003d5 	ldrdeq	r0, [r0], -r5
    18f8:	00681e00 	rsbeq	r1, r8, r0, lsl #28
    18fc:	06b70000 	ldrteq	r0, [r7], r0
    1900:	811f0000 	tsthi	pc, r0
    1904:	0f000000 	svceq	0x00000000
    1908:	008a1e00 	addeq	r1, sl, r0, lsl #28
    190c:	06c70000 	strbeq	r0, [r7], r0
    1910:	811f0000 	tsthi	pc, r0
    1914:	08000000 	stmdaeq	r0, {}	; <UNPREDICTABLE>
    1918:	06b70700 	ldrteq	r0, [r7], r0, lsl #14
    191c:	be0f0000 	cdplt	0, 0, cr0, cr15, cr0, {0}
    1920:	01000003 	tsteq	r0, r3
    1924:	00002cd9 	ldrdeq	r2, [r0], -r9
    1928:	008b2400 	addeq	r2, fp, r0, lsl #8
    192c:	00004400 	andeq	r4, r0, r0, lsl #8
    1930:	939c0100 	orrsls	r0, ip, #0, 2
    1934:	17000007 	strne	r0, [r0, -r7]
    1938:	0000046e 	andeq	r0, r0, lr, ror #8
    193c:	002cda01 	eoreq	sp, ip, r1, lsl #20
    1940:	17000000 	strne	r0, [r0, -r0]
    1944:	00000442 	andeq	r0, r0, r2, asr #8
    1948:	002cda01 	eoreq	sp, ip, r1, lsl #20
    194c:	17000000 	strne	r0, [r0, -r0]
    1950:	00000182 	andeq	r0, r0, r2, lsl #3
    1954:	002cda01 	eoreq	sp, ip, r1, lsl #20
    1958:	1a000000 	bne	1960 <_start-0x66a0>
    195c:	00000110 	andeq	r0, r0, r0, lsl r1
    1960:	000007a3 	andeq	r0, r0, r3, lsr #15
    1964:	9eac0305 	cdpls	3, 10, cr0, cr12, cr5, {0}
    1968:	d1250000 	teqle	r5, r0
    196c:	01000002 	tsteq	r0, r2
    1970:	0001a4e6 	andeq	sl, r1, r6, ror #9
    1974:	8b301400 	blhi	c0697c <__bss_end__+0xbfc1bc>
    1978:	0b710000 	bleq	1c41980 <__bss_end__+0x1c371c0>
    197c:	073a0000 	ldreq	r0, [sl, -r0]!
    1980:	01150000 	tsteq	r5, r0
    1984:	ec030550 	cfstr32	mvfx0, [r3], {80}	; 0x50
    1988:	0000009e 	muleq	r0, lr, r0
    198c:	008b3814 	addeq	r3, fp, r4, lsl r8
    1990:	000b7100 	andeq	r7, fp, r0, lsl #2
    1994:	00075100 	andeq	r5, r7, r0, lsl #2
    1998:	50011500 	andpl	r1, r1, r0, lsl #10
    199c:	a0400305 	subge	r0, r0, r5, lsl #6
    19a0:	16000000 	strne	r0, [r0], -r0
    19a4:	00008b3c 	andeq	r8, r0, ip, lsr fp
    19a8:	00000b87 	andeq	r0, r0, r7, lsl #23
    19ac:	008b5014 	addeq	r5, fp, r4, lsl r0
    19b0:	000b7100 	andeq	r7, fp, r0, lsl #2
    19b4:	00078900 	andeq	r8, r7, r0, lsl #18
    19b8:	53011500 	movwpl	r1, #5376	; 0x1500
    19bc:	15de0802 	ldrbne	r0, [lr, #2050]	; 0x802
    19c0:	03055201 	movweq	r5, #20993	; 0x5201
    19c4:	00009eac 	andeq	r9, r0, ip, lsr #29
    19c8:	05510115 	ldrbeq	r0, [r1, #-277]	; 0x115
    19cc:	009fc803 	addseq	ip, pc, r3, lsl #16
    19d0:	50011500 	andpl	r1, r1, r0, lsl #10
    19d4:	a0500305 	subsge	r0, r0, r5, lsl #6
    19d8:	16000000 	strne	r0, [r0], -r0
    19dc:	00008b54 	andeq	r8, r0, r4, asr fp
    19e0:	00000b8e 	andeq	r0, r0, lr, lsl #23
    19e4:	008a1e00 	addeq	r1, sl, r0, lsl #28
    19e8:	07a30000 	streq	r0, [r3, r0]!
    19ec:	811f0000 	tsthi	pc, r0
    19f0:	0a000000 	beq	19f8 <_start-0x6608>
    19f4:	07930700 	ldreq	r0, [r3, r0, lsl #14]
    19f8:	dc260000 	stcle	0, cr0, [r6], #-0
    19fc:	01000003 	tsteq	r0, r3
    1a00:	00002caa 	andeq	r2, r0, sl, lsr #25
    1a04:	008b6800 	addeq	r6, fp, r0, lsl #16
    1a08:	00001800 	andeq	r1, r0, r0, lsl #16
    1a0c:	ea9c0100 	b	fe701e14 <__bss_end__+0xfe6f7654>
    1a10:	11000007 	tstne	r0, r7
    1a14:	00000394 	muleq	r0, r4, r3
    1a18:	0025aa01 	eoreq	sl, r5, r1, lsl #20
    1a1c:	095a0000 	ldmdbeq	sl, {}^	; <UNPREDICTABLE>
    1a20:	74160000 	ldrvc	r0, [r6], #-0
    1a24:	5500008b 	strpl	r0, [r0, #-139]	; 0x8b
    1a28:	18000005 	stmdane	r0, {r0, r2}
    1a2c:	00008b7c 	andeq	r8, r0, ip, ror fp
    1a30:	000002c7 	andeq	r0, r0, r7, asr #5
    1a34:	02500115 	subseq	r0, r0, #1073741829	; 0x40000005
    1a38:	00000074 	andeq	r0, r0, r4, ror r0
    1a3c:	0000be27 	andeq	fp, r0, r7, lsr #28
    1a40:	80b00100 	adcshi	r0, r0, r0, lsl #2
    1a44:	9800008b 	stmdals	r0, {r0, r1, r3, r7}
    1a48:	01000000 	mrseq	r0, (UNDEF: 0)
    1a4c:	0009059c 	muleq	r9, ip, r5
    1a50:	01101a00 	tsteq	r0, r0, lsl #20
    1a54:	09150000 	ldmdbeq	r5, {}	; <UNPREDICTABLE>
    1a58:	03050000 	movweq	r0, #20480	; 0x5000
    1a5c:	00009eb8 			; <UNDEFINED> instruction: 0x00009eb8
    1a60:	008b8816 	addeq	r8, fp, r6, lsl r8
    1a64:	000bb200 	andeq	fp, fp, r0, lsl #4
    1a68:	8b941600 	blhi	fe507270 <__bss_end__+0xfe4fcab0>
    1a6c:	0b870000 	bleq	fe1c1a74 <__bss_end__+0xfe1b72b4>
    1a70:	a8140000 	ldmdage	r4, {}	; <UNPREDICTABLE>
    1a74:	7100008b 	smlabbvc	r0, fp, r0, r0
    1a78:	4f00000b 	svcmi	0x0000000b
    1a7c:	15000008 	strne	r0, [r0, #-8]
    1a80:	08025301 	stmdaeq	r2, {r0, r8, r9, ip, lr}
    1a84:	520115b6 	andpl	r1, r1, #763363328	; 0x2d800000
    1a88:	9eb80305 	cdpls	3, 11, cr0, cr8, cr5, {0}
    1a8c:	01150000 	tsteq	r5, r0
    1a90:	c8030551 	stmdagt	r3, {r0, r4, r6, r8, sl}
    1a94:	1500009f 	strne	r0, [r0, #-159]	; 0x9f
    1a98:	03055001 	movweq	r5, #20481	; 0x5001
    1a9c:	0000a07c 	andeq	sl, r0, ip, ror r0
    1aa0:	8bac1600 	blhi	feb072a8 <__bss_end__+0xfeafcae8>
    1aa4:	0b8e0000 	bleq	fe381aac <__bss_end__+0xfe3772ec>
    1aa8:	b4140000 	ldrlt	r0, [r4], #-0
    1aac:	7100008b 	smlabbvc	r0, fp, r0, r0
    1ab0:	6f00000b 	svcvs	0x0000000b
    1ab4:	15000008 	strne	r0, [r0, #-8]
    1ab8:	03055001 	movweq	r5, #20481	; 0x5001
    1abc:	00009ac0 	andeq	r9, r0, r0, asr #21
    1ac0:	8bbc1400 	blhi	fef06ac8 <__bss_end__+0xfeefc308>
    1ac4:	0b710000 	bleq	1c41acc <__bss_end__+0x1c3730c>
    1ac8:	08860000 	stmeq	r6, {}	; <UNPREDICTABLE>
    1acc:	01150000 	tsteq	r5, r0
    1ad0:	a4030550 	strge	r0, [r3], #-1360	; 0x550
    1ad4:	000000a0 	andeq	r0, r0, r0, lsr #1
    1ad8:	008bc414 	addeq	ip, fp, r4, lsl r4
    1adc:	0007a800 	andeq	sl, r7, r0, lsl #16
    1ae0:	00089900 	andeq	r9, r8, r0, lsl #18
    1ae4:	50011500 	andpl	r1, r1, r0, lsl #10
    1ae8:	16003101 	strne	r3, [r0], -r1, lsl #2
    1aec:	00008bd0 	ldrdeq	r8, [r0], -r0
    1af0:	00000b87 	andeq	r0, r0, r7, lsl #23
    1af4:	008be414 	addeq	lr, fp, r4, lsl r4
    1af8:	000b7100 	andeq	r7, fp, r0, lsl #2
    1afc:	0008d100 	andeq	sp, r8, r0, lsl #2
    1b00:	53011500 	movwpl	r1, #5376	; 0x1500
    1b04:	15ba0802 	ldrne	r0, [sl, #2050]!	; 0x802
    1b08:	03055201 	movweq	r5, #20993	; 0x5201
    1b0c:	00009eb8 			; <UNDEFINED> instruction: 0x00009eb8
    1b10:	05510115 	ldrbeq	r0, [r1, #-277]	; 0x115
    1b14:	009fc803 	addseq	ip, pc, r3, lsl #16
    1b18:	50011500 	andpl	r1, r1, r0, lsl #10
    1b1c:	a0c40305 	sbcge	r0, r4, r5, lsl #6
    1b20:	16000000 	strne	r0, [r0], -r0
    1b24:	00008be8 	andeq	r8, r0, r8, ror #23
    1b28:	00000b8e 	andeq	r0, r0, lr, lsl #23
    1b2c:	008bf014 	addeq	pc, fp, r4, lsl r0	; <UNPREDICTABLE>
    1b30:	000b7100 	andeq	r7, fp, r0, lsl #2
    1b34:	0008f100 	andeq	pc, r8, r0, lsl #2
    1b38:	50011500 	andpl	r1, r1, r0, lsl #10
    1b3c:	9ac00305 	bls	ff002758 <__bss_end__+0xfeff7f98>
    1b40:	18000000 	stmdane	r0, {}	; <UNPREDICTABLE>
    1b44:	00008bf8 	strdeq	r8, [r0], -r8	; <UNPREDICTABLE>
    1b48:	00000b71 	andeq	r0, r0, r1, ror fp
    1b4c:	05500115 	ldrbeq	r0, [r0, #-277]	; 0x115
    1b50:	00a0f003 	adceq	pc, r0, r3
    1b54:	1e000000 	cdpne	0, 0, cr0, cr0, cr0, {0}
    1b58:	0000008a 	andeq	r0, r0, sl, lsl #1
    1b5c:	00000915 	andeq	r0, r0, r5, lsl r9
    1b60:	0000811f 	andeq	r8, r0, pc, lsl r1
    1b64:	07000d00 	streq	r0, [r0, -r0, lsl #26]
    1b68:	00000905 	andeq	r0, r0, r5, lsl #18
    1b6c:	00041726 	andeq	r1, r4, r6, lsr #14
    1b70:	2cc10100 	stfcse	f0, [r1], {0}
    1b74:	18000000 	stmdane	r0, {}	; <UNPREDICTABLE>
    1b78:	a000008c 	andge	r0, r0, ip, lsl #1
    1b7c:	01000000 	mrseq	r0, (UNDEF: 0)
    1b80:	000a4e9c 	muleq	sl, ip, lr
    1b84:	01101a00 	tsteq	r0, r0, lsl #20
    1b88:	0a5e0000 	beq	1781b90 <__bss_end__+0x17773d0>
    1b8c:	03050000 	movweq	r0, #20480	; 0x5000
    1b90:	00009ec8 	andeq	r9, r0, r8, asr #29
    1b94:	0003b713 	andeq	fp, r3, r3, lsl r7
    1b98:	2ccb0100 	stfcse	f0, [fp], {0}
    1b9c:	78000000 	stmdavc	r0, {}	; <UNPREDICTABLE>
    1ba0:	16000009 	strne	r0, [r0], -r9
    1ba4:	00008c20 	andeq	r8, r0, r0, lsr #24
    1ba8:	00000bb2 			; <UNDEFINED> instruction: 0x00000bb2
    1bac:	008c2c16 	addeq	r2, ip, r6, lsl ip
    1bb0:	000b8700 	andeq	r8, fp, r0, lsl #14
    1bb4:	8c401400 	cfstrdhi	mvd1, [r0], {-0}
    1bb8:	0b710000 	bleq	1c41bc0 <__bss_end__+0x1c37400>
    1bbc:	09920000 	ldmibeq	r2, {}	; <UNPREDICTABLE>
    1bc0:	01150000 	tsteq	r5, r0
    1bc4:	c7080253 	smlsdgt	r8, r3, r2, r0
    1bc8:	05520115 	ldrbeq	r0, [r2, #-277]	; 0x115
    1bcc:	009ec803 	addseq	ip, lr, r3, lsl #16
    1bd0:	51011500 	tstpl	r1, r0, lsl #10
    1bd4:	9fc80305 	svcls	0x00c80305
    1bd8:	01150000 	tsteq	r5, r0
    1bdc:	7c030550 	cfstr32vc	mvfx0, [r3], {80}	; 0x50
    1be0:	000000a0 	andeq	r0, r0, r0, lsr #1
    1be4:	008c4416 	addeq	r4, ip, r6, lsl r4
    1be8:	000b8e00 	andeq	r8, fp, r0, lsl #28
    1bec:	8c4c1400 	cfstrdhi	mvd1, [ip], {-0}
    1bf0:	0b710000 	bleq	1c41bf8 <__bss_end__+0x1c37438>
    1bf4:	09b20000 	ldmibeq	r2!, {}	; <UNPREDICTABLE>
    1bf8:	01150000 	tsteq	r5, r0
    1bfc:	c0030550 	andgt	r0, r3, r0, asr r5
    1c00:	0000009a 	muleq	r0, sl, r0
    1c04:	008c5414 	addeq	r5, ip, r4, lsl r4
    1c08:	000b7100 	andeq	r7, fp, r0, lsl #2
    1c0c:	0009c900 	andeq	ip, r9, r0, lsl #18
    1c10:	50011500 	andpl	r1, r1, r0, lsl #10
    1c14:	a0a40305 	adcge	r0, r4, r5, lsl #6
    1c18:	14000000 	strne	r0, [r0], #-0
    1c1c:	00008c5c 	andeq	r8, r0, ip, asr ip
    1c20:	000007a8 	andeq	r0, r0, r8, lsr #15
    1c24:	000009dc 	ldrdeq	r0, [r0], -ip
    1c28:	01500115 	cmpeq	r0, r5, lsl r1
    1c2c:	68160031 	ldmdavs	r6, {r0, r4, r5}
    1c30:	8700008c 	strhi	r0, [r0, -ip, lsl #1]
    1c34:	1400000b 	strne	r0, [r0], #-11
    1c38:	00008c7c 	andeq	r8, r0, ip, ror ip
    1c3c:	00000b71 	andeq	r0, r0, r1, ror fp
    1c40:	00000a14 	andeq	r0, r0, r4, lsl sl
    1c44:	02530115 	subseq	r0, r3, #1073741829	; 0x40000005
    1c48:	0115cd08 	tsteq	r5, r8, lsl #26
    1c4c:	c8030552 	stmdagt	r3, {r1, r4, r6, r8, sl}
    1c50:	1500009e 	strne	r0, [r0, #-158]	; 0x9e
    1c54:	03055101 	movweq	r5, #20737	; 0x5101
    1c58:	00009fc8 	andeq	r9, r0, r8, asr #31
    1c5c:	05500115 	ldrbeq	r0, [r0, #-277]	; 0x115
    1c60:	00a10803 	adceq	r0, r1, r3, lsl #16
    1c64:	80160000 	andshi	r0, r6, r0
    1c68:	8e00008c 	cdphi	0, 0, cr0, cr0, cr12, {4}
    1c6c:	1400000b 	strne	r0, [r0], #-11
    1c70:	00008c88 	andeq	r8, r0, r8, lsl #25
    1c74:	00000b71 	andeq	r0, r0, r1, ror fp
    1c78:	00000a34 	andeq	r0, r0, r4, lsr sl
    1c7c:	05500115 	ldrbeq	r0, [r0, #-277]	; 0x115
    1c80:	009ac003 	addseq	ip, sl, r3
    1c84:	94180000 	ldrls	r0, [r8], #-0
    1c88:	7100008c 	smlabbvc	r0, ip, r0, r0
    1c8c:	1500000b 	strne	r0, [r0, #-11]
    1c90:	74025101 	strvc	r5, [r2], #-257	; 0x101
    1c94:	50011500 	andpl	r1, r1, r0, lsl #10
    1c98:	a1300305 	teqge	r0, r5, lsl #6
    1c9c:	00000000 	andeq	r0, r0, r0
    1ca0:	00008a1e 	andeq	r8, r0, lr, lsl sl
    1ca4:	000a5e00 	andeq	r5, sl, r0, lsl #28
    1ca8:	00811f00 	addeq	r1, r1, r0, lsl #30
    1cac:	00110000 	andseq	r0, r1, r0
    1cb0:	000a4e07 	andeq	r4, sl, r7, lsl #28
    1cb4:	03a82700 			; <UNDEFINED> instruction: 0x03a82700
    1cb8:	d4010000 	strle	r0, [r1], #-0
    1cbc:	00008cb8 			; <UNDEFINED> instruction: 0x00008cb8
    1cc0:	0000002c 	andeq	r0, r0, ip, lsr #32
    1cc4:	0ac99c01 	beq	ff268cd0 <__bss_end__+0xff25e510>
    1cc8:	101a0000 	andsne	r0, sl, r0
    1ccc:	d9000001 	stmdble	r0, {r0}
    1cd0:	0500000a 	streq	r0, [r0, #-10]
    1cd4:	009edc03 	addseq	sp, lr, r3, lsl #24
    1cd8:	8cc01600 	stclhi	6, cr1, [r0], {0}
    1cdc:	0b870000 	bleq	fe1c1ce4 <__bss_end__+0xfe1b7524>
    1ce0:	d4140000 	ldrle	r0, [r4], #-0
    1ce4:	7100008c 	smlabbvc	r0, ip, r0, r0
    1ce8:	bf00000b 	svclt	0x0000000b
    1cec:	1500000a 	strne	r0, [r0, #-10]
    1cf0:	08025301 	stmdaeq	r2, {r0, r8, r9, ip, lr}
    1cf4:	520115d5 	andpl	r1, r1, #893386752	; 0x35400000
    1cf8:	9edc0305 	cdpls	3, 13, cr0, cr12, cr5, {0}
    1cfc:	01150000 	tsteq	r5, r0
    1d00:	c8030551 	stmdagt	r3, {r0, r4, r6, r8, sl}
    1d04:	1500009f 	strne	r0, [r0, #-159]	; 0x9f
    1d08:	03055001 	movweq	r5, #20481	; 0x5001
    1d0c:	0000a150 	andeq	sl, r0, r0, asr r1
    1d10:	8cd81600 	ldclhi	6, cr1, [r8], {0}
    1d14:	0b8e0000 	bleq	fe381d1c <__bss_end__+0xfe37755c>
    1d18:	1e000000 	cdpne	0, 0, cr0, cr0, cr0, {0}
    1d1c:	0000008a 	andeq	r0, r0, sl, lsl #1
    1d20:	00000ad9 	ldrdeq	r0, [r0], -r9
    1d24:	0000811f 	andeq	r8, r0, pc, lsl r1
    1d28:	07000e00 	streq	r0, [r0, -r0, lsl #28]
    1d2c:	00000ac9 	andeq	r0, r0, r9, asr #21
    1d30:	0003d626 	andeq	sp, r3, r6, lsr #12
    1d34:	2ced0100 	stfcse	f0, [sp]
    1d38:	e4000000 	str	r0, [r0], #-0
    1d3c:	0c00008c 	stceq	0, cr0, [r0], {140}	; 0x8c
    1d40:	01000000 	mrseq	r0, (UNDEF: 0)
    1d44:	000b159c 	muleq	fp, ip, r5
    1d48:	03462500 	movteq	r2, #25856	; 0x6500
    1d4c:	ef010000 	svc	0x00010000
    1d50:	0000002c 	andeq	r0, r0, ip, lsr #32
    1d54:	008cec16 	addeq	lr, ip, r6, lsl ip
    1d58:	00055500 	andeq	r5, r5, r0, lsl #10
    1d5c:	8cf01600 	ldclhi	6, cr1, [r0]
    1d60:	06cc0000 	strbeq	r0, [ip], r0
    1d64:	25000000 	strcs	r0, [r0, #-0]
    1d68:	000002d1 	ldrdeq	r0, [r0], -r1
    1d6c:	0b201301 	bleq	806978 <__bss_end__+0x7fc1b8>
    1d70:	a4070000 	strge	r0, [r7], #-0
    1d74:	23000001 	movwcs	r0, #1
    1d78:	000003ea 	andeq	r0, r0, sl, ror #7
    1d7c:	00689c01 	rsbeq	r9, r8, r1, lsl #24
    1d80:	f8230000 			; <UNDEFINED> instruction: 0xf8230000
    1d84:	01000003 	tsteq	r0, r3
    1d88:	0000689c 	muleq	r0, ip, r8
    1d8c:	04292300 	strteq	r2, [r9], #-768	; 0x300
    1d90:	9f010000 	svcls	0x00010000
    1d94:	00000068 	andeq	r0, r0, r8, rrx
    1d98:	00045123 	andeq	r5, r4, r3, lsr #2
    1d9c:	689f0100 	ldmvs	pc, {r8}	; <UNPREDICTABLE>
    1da0:	28000000 	stmdacs	r0, {}	; <UNPREDICTABLE>
    1da4:	0000018f 	andeq	r0, r0, pc, lsl #3
    1da8:	01fb9402 	mvnseq	r9, r2, lsl #8
    1dac:	75290000 	strvc	r0, [r9, #-0]!
    1db0:	02000002 	andeq	r0, r0, #2
    1db4:	0001fb96 	muleq	r1, r6, fp
    1db8:	000b7100 	andeq	r7, fp, r0, lsl #2
    1dbc:	01fb2a00 	mvnseq	r2, r0, lsl #20
    1dc0:	29000000 	stmdbcs	r0, {}	; <UNPREDICTABLE>
    1dc4:	00000503 	andeq	r0, r0, r3, lsl #10
    1dc8:	00252904 	eoreq	r2, r5, r4, lsl #18
    1dcc:	0b870000 	bleq	fe1c1dd4 <__bss_end__+0xfe1b7614>
    1dd0:	912a0000 	teqls	sl, r0
    1dd4:	2b000000 	blcs	1ddc <_start-0x6224>
    1dd8:	02342c00 	eorseq	r2, r4, #0, 24
    1ddc:	1e040000 	cdpne	0, 0, cr0, cr4, cr0, {0}
    1de0:	0002812c 	andeq	r8, r2, ip, lsr #2
    1de4:	28650400 	stmdacs	r5!, {sl}^
    1de8:	000002cc 	andeq	r0, r0, ip, asr #5
    1dec:	01a4a602 			; <UNDEFINED> instruction: 0x01a4a602
    1df0:	382d0000 	stmdacc	sp!, {}	; <UNPREDICTABLE>
    1df4:	01000004 	tsteq	r0, r4
    1df8:	000bb278 	andeq	fp, fp, r8, ror r2
    1dfc:	053a2a00 	ldreq	r2, [sl, #-2560]!	; 0xa00
    1e00:	002b0000 	eoreq	r0, fp, r0
    1e04:	00021828 	andeq	r1, r2, r8, lsr #16
    1e08:	251e0500 	ldrcs	r0, [lr, #-1280]	; 0x500
    1e0c:	00000000 	andeq	r0, r0, r0
    1e10:	00000112 	andeq	r0, r0, r2, lsl r1
    1e14:	06610004 	strbteq	r0, [r1], -r4
    1e18:	01040000 	mrseq	r0, (UNDEF: 4)
    1e1c:	0000005f 	andeq	r0, r0, pc, asr r0
    1e20:	00048301 	andeq	r8, r4, r1, lsl #6
    1e24:	00048f00 	andeq	r8, r4, r0, lsl #30
    1e28:	008d3400 	addeq	r3, sp, r0, lsl #8
    1e2c:	0000f000 	andeq	pc, r0, r0
    1e30:	00062800 	andeq	r2, r6, r0, lsl #16
    1e34:	05040200 	streq	r0, [r4, #-512]	; 0x200
    1e38:	00746e69 	rsbseq	r6, r4, r9, ror #28
    1e3c:	34070403 	strcc	r0, [r7], #-1027	; 0x403
    1e40:	03000001 	movweq	r0, #1
    1e44:	00e20601 	rsceq	r0, r2, r1, lsl #12
    1e48:	02030000 	andeq	r0, r3, #0
    1e4c:	00015805 	andeq	r5, r1, r5, lsl #16
    1e50:	05040300 	streq	r0, [r4, #-768]	; 0x300
    1e54:	0000014f 	andeq	r0, r0, pc, asr #2
    1e58:	4a050803 	bmi	143e6c <__bss_end__+0x1396ac>
    1e5c:	04000001 	streq	r0, [r0], #-1
    1e60:	0000035b 	andeq	r0, r0, fp, asr r3
    1e64:	005a2e02 	subseq	r2, sl, r2, lsl #28
    1e68:	01030000 	mrseq	r0, (UNDEF: 3)
    1e6c:	0000e008 	andeq	lr, r0, r8
    1e70:	07020300 	streq	r0, [r2, -r0, lsl #6]
    1e74:	000000ee 	andeq	r0, r0, lr, ror #1
    1e78:	00016204 	andeq	r6, r1, r4, lsl #4
    1e7c:	73340200 	teqvc	r4, #0, 4
    1e80:	03000000 	movweq	r0, #0
    1e84:	012f0704 	teqeq	pc, r4, lsl #14
    1e88:	08030000 	stmdaeq	r3, {}	; <UNPREDICTABLE>
    1e8c:	00012a07 	andeq	r2, r1, r7, lsl #20
    1e90:	07040300 	streq	r0, [r4, -r0, lsl #6]
    1e94:	00000141 	andeq	r0, r0, r1, asr #2
    1e98:	e9080103 	stmdb	r8, {r0, r1, r8}
    1e9c:	05000000 	streq	r0, [r0, #-0]
    1ea0:	00009504 	andeq	r9, r0, r4, lsl #10
    1ea4:	00880600 	addeq	r0, r8, r0, lsl #12
    1ea8:	a8070000 	stmdage	r7, {}	; <UNPREDICTABLE>
    1eac:	01000001 	tsteq	r0, r1
    1eb0:	0000680f 	andeq	r6, r0, pc, lsl #16
    1eb4:	008d3400 	addeq	r3, sp, r0, lsl #8
    1eb8:	0000f000 	andeq	pc, r0, r0
    1ebc:	0e9c0100 	fmleqe	f0, f4, f0
    1ec0:	08000001 	stmdaeq	r0, {r0}
    1ec4:	00000bbd 			; <UNDEFINED> instruction: 0x00000bbd
    1ec8:	010e0f01 	tsteq	lr, r1, lsl #30
    1ecc:	09ac0000 	stmibeq	ip!, {}	; <UNPREDICTABLE>
    1ed0:	6c090000 	stcvs	0, cr0, [r9], {-0}
    1ed4:	01006e65 	tsteq	r0, r5, ror #28
    1ed8:	0000250f 	andeq	r2, r0, pc, lsl #10
    1edc:	0009e600 	andeq	lr, r9, r0, lsl #12
    1ee0:	0bbe0a00 	bleq	fef846e8 <__bss_end__+0xfef79f28>
    1ee4:	10010000 	andne	r0, r1, r0
    1ee8:	0000008f 	andeq	r0, r0, pc, lsl #1
    1eec:	00000a25 	andeq	r0, r0, r5, lsr #20
    1ef0:	0001ad0a 	andeq	sl, r1, sl, lsl #26
    1ef4:	68110100 	ldmdavs	r1, {r8}
    1ef8:	64000000 	strvs	r0, [r0], #-0
    1efc:	0b00000a 	bleq	1f2c <_start-0x60d4>
    1f00:	00706d74 	rsbseq	r6, r0, r4, ror sp
    1f04:	00681101 	rsbeq	r1, r8, r1, lsl #2
    1f08:	0aae0000 	beq	feb81f10 <__bss_end__+0xfeb77750>
    1f0c:	720b0000 	andvc	r0, fp, #0
    1f10:	01006d65 	tsteq	r0, r5, ror #26
    1f14:	00002512 	andeq	r2, r0, r2, lsl r5
    1f18:	000af900 	andeq	pc, sl, r0, lsl #18
    1f1c:	04050000 	streq	r0, [r5], #-0
    1f20:	00000114 	andeq	r0, r0, r4, lsl r1
    1f24:	00db000c 	sbcseq	r0, fp, ip
    1f28:	00040000 	andeq	r0, r4, r0
    1f2c:	00000705 	andeq	r0, r0, r5, lsl #14
    1f30:	005f0104 	subseq	r0, pc, r4, lsl #2
    1f34:	d5010000 	strle	r0, [r1, #-0]
    1f38:	8f000004 	svchi	0x00000004
    1f3c:	24000004 	strcs	r0, [r0], #-4
    1f40:	2000008e 	andcs	r0, r0, lr, lsl #1
    1f44:	0a000000 	beq	1f4c <_start-0x60b4>
    1f48:	02000007 	andeq	r0, r0, #7
    1f4c:	00e20601 	rsceq	r0, r2, r1, lsl #12
    1f50:	01020000 	mrseq	r0, (UNDEF: 2)
    1f54:	0000e008 	andeq	lr, r0, r8
    1f58:	05020200 	streq	r0, [r2, #-512]	; 0x200
    1f5c:	00000158 	andeq	r0, r0, r8, asr r1
    1f60:	ee070202 	cdp	2, 0, cr0, cr7, cr2, {0}
    1f64:	03000000 	movweq	r0, #0
    1f68:	6e690504 	cdpvs	5, 6, cr0, cr9, cr4, {0}
    1f6c:	04020074 	streq	r0, [r2], #-116	; 0x74
    1f70:	00013407 	andeq	r3, r1, r7, lsl #8
    1f74:	05080200 	streq	r0, [r8, #-512]	; 0x200
    1f78:	0000014a 	andeq	r0, r0, sl, asr #2
    1f7c:	2a070802 	bcs	1c3f8c <__bss_end__+0x1b97cc>
    1f80:	02000001 	andeq	r0, r0, #1
    1f84:	014f0504 	cmpeq	pc, r4, lsl #10
    1f88:	04020000 	streq	r0, [r2], #-0
    1f8c:	00014107 	andeq	r4, r1, r7, lsl #2
    1f90:	02040400 	andeq	r0, r4, #0, 8
    1f94:	012f0704 	teqeq	pc, r4, lsl #14
    1f98:	04050000 	streq	r0, [r5], #-0
    1f9c:	0000007a 	andeq	r0, r0, sl, ror r0
    1fa0:	e9080102 	stmdb	r8, {r1, r8}
    1fa4:	06000000 	streq	r0, [r0], -r0
    1fa8:	00000000 	andeq	r0, r0, r0
    1fac:	0048d402 	subeq	sp, r8, r2, lsl #8
    1fb0:	09070000 	stmdbeq	r7, {}	; <UNPREDICTABLE>
    1fb4:	03000001 	movweq	r0, #1
    1fb8:	00006b1b 	andeq	r6, r0, fp, lsl fp
    1fbc:	008e2400 	addeq	r2, lr, r0, lsl #8
    1fc0:	00002000 	andeq	r2, r0, r0
    1fc4:	089c0100 	ldmeq	ip, {r8}
    1fc8:	0100705f 	qaddeq	r7, pc, r0	; <UNPREDICTABLE>
    1fcc:	00006b03 	andeq	r6, r0, r3, lsl #22
    1fd0:	08500100 	ldmdaeq	r0, {r8}^
    1fd4:	03010063 	movweq	r0, #4195	; 0x1063
    1fd8:	00000041 	andeq	r0, r0, r1, asr #32
    1fdc:	6e095101 	adfvse	f5, f1, f1
    1fe0:	81030100 	mrshi	r0, (UNDEF: 19)
    1fe4:	0c000000 	stceq	0, cr0, [r0], {-0}
    1fe8:	0a00000b 	beq	201c <_start-0x5fe4>
    1fec:	04010070 	streq	r0, [r1], #-112	; 0x70
    1ff0:	00000074 	andeq	r0, r0, r4, ror r0
    1ff4:	00000b2d 	andeq	r0, r0, sp, lsr #22
    1ff8:	0100650b 	tsteq	r0, fp, lsl #10
    1ffc:	00007404 	andeq	r7, r0, r4, lsl #8
    2000:	00520100 	subseq	r0, r2, r0, lsl #2
    2004:	00019100 	andeq	r9, r1, r0, lsl #2
    2008:	a2000400 	andge	r0, r0, #0, 8
    200c:	04000007 	streq	r0, [r0], #-7
    2010:	00005f01 	andeq	r5, r0, r1, lsl #30
    2014:	04f20100 	ldrbteq	r0, [r2], #256	; 0x100
    2018:	048f0000 	streq	r0, [pc], #0	; 2020 <_start-0x5fe0>
    201c:	8e440000 	cdphi	0, 4, cr0, cr4, cr0, {0}
    2020:	00580000 	subseq	r0, r8, r0
    2024:	07fa0000 	ldrbeq	r0, [sl, r0]!
    2028:	e3020000 	movw	r0, #8192	; 0x2000
    202c:	02000004 	andeq	r0, r0, #4
    2030:	00003028 	andeq	r3, r0, r8, lsr #32
    2034:	050a0300 	streq	r0, [sl, #-768]	; 0x300
    2038:	03040000 	movweq	r0, #16384	; 0x4000
    203c:	00004700 	andeq	r4, r0, r0, lsl #14
    2040:	05140400 	ldreq	r0, [r4, #-1024]	; 0x400
    2044:	00470000 	subeq	r0, r7, r0
    2048:	00000000 	andeq	r0, r0, r0
    204c:	0c020405 	cfstrseq	mvf0, [r2], {5}
    2050:	02000005 	andeq	r0, r0, #5
    2054:	00002562 	andeq	r2, r0, r2, ror #10
    2058:	05040600 	streq	r0, [r4, #-1536]	; 0x600
    205c:	00746e69 	rsbseq	r6, r4, r9, ror #28
    2060:	34070407 	strcc	r0, [r7], #-1031	; 0x407
    2064:	07000001 	streq	r0, [r0, -r1]
    2068:	00e20601 	rsceq	r0, r2, r1, lsl #12
    206c:	02070000 	andeq	r0, r7, #0
    2070:	00015805 	andeq	r5, r1, r5, lsl #16
    2074:	05040700 	streq	r0, [r4, #-1792]	; 0x700
    2078:	0000014f 	andeq	r0, r0, pc, asr #2
    207c:	4a050807 	bmi	1440a0 <__bss_end__+0x1398e0>
    2080:	07000001 	streq	r0, [r0, -r1]
    2084:	00e00801 	rsceq	r0, r0, r1, lsl #16
    2088:	02070000 	andeq	r0, r7, #0
    208c:	0000ee07 	andeq	lr, r0, r7, lsl #28
    2090:	07040700 	streq	r0, [r4, -r0, lsl #14]
    2094:	0000012f 	andeq	r0, r0, pc, lsr #2
    2098:	2a070807 	bcs	1c40bc <__bss_end__+0x1b98fc>
    209c:	07000001 	streq	r0, [r0, -r1]
    20a0:	01410704 	cmpeq	r1, r4, lsl #14
    20a4:	04080000 	streq	r0, [r8], #-0
    20a8:	000000a7 	andeq	r0, r0, r7, lsr #1
    20ac:	e9080107 	stmdb	r8, {r0, r1, r2, r8}
    20b0:	08000000 	stmdaeq	r0, {}	; <UNPREDICTABLE>
    20b4:	0000b404 	andeq	fp, r0, r4, lsl #8
    20b8:	00a70900 	adceq	r0, r7, r0, lsl #18
    20bc:	030a0000 	movweq	r0, #40960	; 0xa000
    20c0:	01000005 	tsteq	r0, r5
    20c4:	00005406 	andeq	r5, r0, r6, lsl #8
    20c8:	008e4400 	addeq	r4, lr, r0, lsl #8
    20cc:	00005800 	andeq	r5, r0, r0, lsl #16
    20d0:	439c0100 	orrsmi	r0, ip, #0, 2
    20d4:	0b000001 	bleq	20e0 <_start-0x5f20>
    20d8:	00746d66 	rsbseq	r6, r4, r6, ror #26
    20dc:	00ae0601 	adceq	r0, lr, r1, lsl #12
    20e0:	91020000 	mrsls	r0, (UNDEF: 2)
    20e4:	620d0c70 	andvs	r0, sp, #112, 24	; 0x7000
    20e8:	01006675 	tsteq	r0, r5, ror r6
    20ec:	00014308 	andeq	r4, r1, r8, lsl #6
    20f0:	bc030500 	cfstr32lt	mvfx0, [r3], {-0}
    20f4:	0e0000a3 	cdpeq	0, 0, cr0, cr0, cr3, {5}
    20f8:	000007b5 			; <UNDEFINED> instruction: 0x000007b5
    20fc:	00490901 	subeq	r0, r9, r1, lsl #18
    2100:	91020000 	mrsls	r0, (UNDEF: 2)
    2104:	7a730f5c 	bvc	1cc5e7c <__bss_end__+0x1cbb6bc>
    2108:	540c0100 	strpl	r0, [ip], #-256	; 0x100
    210c:	58000000 	stmdapl	r0, {}	; <UNPREDICTABLE>
    2110:	1000000b 	andne	r0, r0, fp
    2114:	00008e6c 	andeq	r8, r0, ip, ror #28
    2118:	00000174 	andeq	r0, r0, r4, ror r1
    211c:	00000136 	andeq	r0, r0, r6, lsr r1
    2120:	02530111 	subseq	r0, r3, #1073741828	; 0x40000004
    2124:	01114c91 			; <UNDEFINED> instruction: 0x01114c91
    2128:	48910352 	ldmmi	r1, {r1, r4, r6, r8, r9}
    212c:	51011106 	tstpl	r1, r6, lsl #2
    2130:	04000a03 	streq	r0, [r0], #-2563	; 0xa03
    2134:	02500111 	subseq	r0, r0, #1073741828	; 0x40000004
    2138:	12000074 	andne	r0, r0, #116	; 0x74
    213c:	00008e80 	andeq	r8, r0, r0, lsl #29
    2140:	02500111 	subseq	r0, r0, #1073741828	; 0x40000004
    2144:	00000074 	andeq	r0, r0, r4, ror r0
    2148:	0000a713 	andeq	sl, r0, r3, lsl r7
    214c:	00015400 	andeq	r5, r1, r0, lsl #8
    2150:	009a1400 	addseq	r1, sl, r0, lsl #8
    2154:	03ff0000 	mvnseq	r0, #0
    2158:	00541500 	subseq	r1, r4, r0, lsl #10
    215c:	01630000 	cmneq	r3, r0
    2160:	ae160000 	cdpge	0, 1, cr0, cr6, cr0, {0}
    2164:	00000000 	andeq	r0, r0, r0
    2168:	00057117 	andeq	r7, r5, r7, lsl r1
    216c:	6e220400 	cdpvs	4, 2, cr0, cr2, cr0, {0}
    2170:	08000001 	stmdaeq	r0, {r0}
    2174:	00015404 	andeq	r5, r1, r4, lsl #8
    2178:	05001800 	streq	r1, [r0, #-2048]	; 0x800
    217c:	02050000 	andeq	r0, r5, #0
    2180:	00000054 	andeq	r0, r0, r4, asr r0
    2184:	0000a116 	andeq	sl, r0, r6, lsl r1
    2188:	00541600 	subseq	r1, r4, r0, lsl #12
    218c:	ae160000 	cdpge	0, 1, cr0, cr6, cr0, {0}
    2190:	16000000 	strne	r0, [r0], -r0
    2194:	00000049 	andeq	r0, r0, r9, asr #32
    2198:	01130000 	tsteq	r3, r0
    219c:	00040000 	andeq	r0, r4, r0
    21a0:	000008d3 	ldrdeq	r0, [r0], -r3
    21a4:	005f0104 	subseq	r0, pc, r4, lsl #2
    21a8:	40010000 	andmi	r0, r1, r0
    21ac:	8f000005 	svchi	0x00000005
    21b0:	9c000004 	stcls	0, cr0, [r0], {4}
    21b4:	3c00008e 	stccc	0, cr0, [r0], {142}	; 0x8e
    21b8:	0a000000 	beq	21c0 <_start-0x5e40>
    21bc:	02000009 	andeq	r0, r0, #9
    21c0:	6e690504 	cdpvs	5, 6, cr0, cr9, cr4, {0}
    21c4:	04030074 	streq	r0, [r3], #-116	; 0x74
    21c8:	00013407 	andeq	r3, r1, r7, lsl #8
    21cc:	06010300 	streq	r0, [r1], -r0, lsl #6
    21d0:	000000e2 	andeq	r0, r0, r2, ror #1
    21d4:	58050203 	stmdapl	r5, {r0, r1, r9}
    21d8:	03000001 	movweq	r0, #1
    21dc:	014f0504 	cmpeq	pc, r4, lsl #10
    21e0:	08030000 	stmdaeq	r3, {}	; <UNPREDICTABLE>
    21e4:	00014a05 	andeq	r4, r1, r5, lsl #20
    21e8:	08010300 	stmdaeq	r1, {r8, r9}
    21ec:	000000e0 	andeq	r0, r0, r0, ror #1
    21f0:	ee070203 	cdp	2, 0, cr0, cr7, cr3, {0}
    21f4:	03000000 	movweq	r0, #0
    21f8:	012f0704 	teqeq	pc, r4, lsl #14
    21fc:	08030000 	stmdaeq	r3, {}	; <UNPREDICTABLE>
    2200:	00012a07 	andeq	r2, r1, r7, lsl #20
    2204:	07040300 	streq	r0, [r4, -r0, lsl #6]
    2208:	00000141 	andeq	r0, r0, r1, asr #2
    220c:	e9080103 	stmdb	r8, {r0, r1, r8}
    2210:	04000000 	streq	r0, [r0], #-0
    2214:	00000523 	andeq	r0, r0, r3, lsr #10
    2218:	00250301 	eoreq	r0, r5, r1, lsl #6
    221c:	8e9c0000 	cdphi	0, 9, cr0, cr12, cr0, {0}
    2220:	00140000 	andseq	r0, r4, r0
    2224:	9c010000 	stcls	0, cr0, [r1], {-0}
    2228:	000000b0 	strheq	r0, [r0], -r0	; <UNPREDICTABLE>
    222c:	01006305 	tsteq	r0, r5, lsl #6
    2230:	00002503 	andeq	r2, r0, r3, lsl #10
    2234:	000b8100 	andeq	r8, fp, r0, lsl #2
    2238:	8ea80600 	cdphi	6, 10, cr0, cr8, cr0, {0}
    223c:	01090000 	mrseq	r0, (UNDEF: 9)
    2240:	01070000 	mrseq	r0, (UNDEF: 7)
    2244:	00740250 	rsbseq	r0, r4, r0, asr r2
    2248:	34080000 	strcc	r0, [r8], #-0
    224c:	01000002 	tsteq	r0, r2
    2250:	008eb008 	addeq	fp, lr, r8
    2254:	00001800 	andeq	r1, r0, r0, lsl #16
    2258:	099c0100 	ldmibeq	ip, {r8}
    225c:	0000054f 	andeq	r0, r0, pc, asr #10
    2260:	8ec80b01 	vdivhi.f64	d16, d8, d1
    2264:	00100000 	andseq	r0, r0, r0
    2268:	9c010000 	stcls	0, cr0, [r1], {-0}
    226c:	000000e3 	andeq	r0, r0, r3, ror #1
    2270:	0070660a 	rsbseq	r6, r0, sl, lsl #12
    2274:	00f20b01 	rscseq	r0, r2, r1, lsl #22
    2278:	50010000 	andpl	r0, r1, r0
    227c:	00250b00 	eoreq	r0, r5, r0, lsl #22
    2280:	00f20000 	rscseq	r0, r2, r0
    2284:	250c0000 	strcs	r0, [ip, #-0]
    2288:	00000000 	andeq	r0, r0, r0
    228c:	00e3040d 	rsceq	r0, r3, sp, lsl #8
    2290:	340e0000 	strcc	r0, [lr], #-0
    2294:	01000005 	tsteq	r0, r5
    2298:	0000f206 	andeq	pc, r0, r6, lsl #4
    229c:	00030500 	andeq	r0, r3, r0, lsl #10
    22a0:	0f00009a 	svceq	0x0000009a
    22a4:	00000519 	andeq	r0, r0, r9, lsl r5
    22a8:	2c0c3c02 	stccs	12, cr3, [ip], {2}
    22ac:	00000000 	andeq	r0, r0, r0
    22b0:	0000ee00 	andeq	lr, r0, r0, lsl #28
    22b4:	bb000400 	bllt	32bc <_start-0x4d44>
    22b8:	04000009 	streq	r0, [r0], #-9
    22bc:	00005f01 	andeq	r5, r0, r1, lsl #30
    22c0:	055c0100 	ldrbeq	r0, [ip, #-256]	; 0x100
    22c4:	048f0000 	streq	r0, [pc], #0	; 22cc <_start-0x5d34>
    22c8:	8ed80000 	cdphi	0, 13, cr0, cr8, cr0, {0}
    22cc:	00340000 	eorseq	r0, r4, r0
    22d0:	09a20000 	stmibeq	r2!, {}	; <UNPREDICTABLE>
    22d4:	04020000 	streq	r0, [r2], #-0
    22d8:	746e6905 	strbtvc	r6, [lr], #-2309	; 0x905
    22dc:	07040300 	streq	r0, [r4, -r0, lsl #6]
    22e0:	00000134 	andeq	r0, r0, r4, lsr r1
    22e4:	e2060103 	and	r0, r6, #-1073741824	; 0xc0000000
    22e8:	03000000 	movweq	r0, #0
    22ec:	01580502 	cmpeq	r8, r2, lsl #10
    22f0:	04030000 	streq	r0, [r3], #-0
    22f4:	00014f05 	andeq	r4, r1, r5, lsl #30
    22f8:	05080300 	streq	r0, [r8, #-768]	; 0x300
    22fc:	0000014a 	andeq	r0, r0, sl, asr #2
    2300:	e0080103 	and	r0, r8, r3, lsl #2
    2304:	03000000 	movweq	r0, #0
    2308:	00ee0702 	rsceq	r0, lr, r2, lsl #14
    230c:	04030000 	streq	r0, [r3], #-0
    2310:	00012f07 	andeq	r2, r1, r7, lsl #30
    2314:	07080300 	streq	r0, [r8, -r0, lsl #6]
    2318:	0000012a 	andeq	r0, r0, sl, lsr #2
    231c:	41070403 	tstmi	r7, r3, lsl #8
    2320:	03000001 	movweq	r0, #1
    2324:	00e90801 	rsceq	r0, r9, r1, lsl #16
    2328:	04040000 	streq	r0, [r4], #-0
    232c:	0000007f 	andeq	r0, r0, pc, ror r0
    2330:	00007205 	andeq	r7, r0, r5, lsl #4
    2334:	05680600 	strbeq	r0, [r8, #-1536]!	; 0x600
    2338:	04010000 	streq	r0, [r1], #-0
    233c:	00000025 	andeq	r0, r0, r5, lsr #32
    2340:	00008ed8 	ldrdeq	r8, [r0], -r8	; <UNPREDICTABLE>
    2344:	00000034 	andeq	r0, r0, r4, lsr r0
    2348:	00ab9c01 	adceq	r9, fp, r1, lsl #24
    234c:	70070000 	andvc	r0, r7, r0
    2350:	79040100 	stmdbvc	r4, {r8}
    2354:	9f000000 	svcls	0x00000000
    2358:	0000000b 	andeq	r0, r0, fp
    235c:	00002508 	andeq	r2, r0, r8, lsl #10
    2360:	0000ba00 	andeq	fp, r0, r0, lsl #20
    2364:	00250900 	eoreq	r0, r5, r0, lsl #18
    2368:	0a000000 	beq	2370 <_start-0x5c90>
    236c:	00000534 	andeq	r0, r0, r4, lsr r5
    2370:	00c51d02 	sbceq	r1, r5, r2, lsl #26
    2374:	04040000 	streq	r0, [r4], #-0
    2378:	000000ab 	andeq	r0, r0, fp, lsr #1
    237c:	00002508 	andeq	r2, r0, r8, lsl #10
    2380:	0000da00 	andeq	sp, r0, r0, lsl #20
    2384:	00790900 	rsbseq	r0, r9, r0, lsl #18
    2388:	0b000000 	bleq	2390 <_start-0x5c70>
    238c:	00000571 	andeq	r0, r0, r1, ror r5
    2390:	00eb0c01 	rsceq	r0, fp, r1, lsl #24
    2394:	03050000 	movweq	r0, #20480	; 0x5000
    2398:	00009a04 	andeq	r9, r0, r4, lsl #20
    239c:	00cb0404 	sbceq	r0, fp, r4, lsl #8
    23a0:	81000000 	mrshi	r0, (UNDEF: 0)
    23a4:	04000006 	streq	r0, [r0], #-6
    23a8:	000a5400 	andeq	r5, sl, r0, lsl #8
    23ac:	5f010400 	svcpl	0x00010400
    23b0:	01000000 	mrseq	r0, (UNDEF: 0)
    23b4:	0000059d 	muleq	r0, sp, r5
    23b8:	0000048f 	andeq	r0, r0, pc, lsl #9
    23bc:	00008f0c 	andeq	r8, r0, ip, lsl #30
    23c0:	0000050c 	andeq	r0, r0, ip, lsl #10
    23c4:	00000a46 	andeq	r0, r0, r6, asr #20
    23c8:	69050402 	stmdbvs	r5, {r1, sl}
    23cc:	0300746e 	movweq	r7, #1134	; 0x46e
    23d0:	01340704 	teqeq	r4, r4, lsl #14
    23d4:	01030000 	mrseq	r0, (UNDEF: 3)
    23d8:	0000e206 	andeq	lr, r0, r6, lsl #4
    23dc:	05020300 	streq	r0, [r2, #-768]	; 0x300
    23e0:	00000158 	andeq	r0, r0, r8, asr r1
    23e4:	4f050403 	svcmi	0x00050403
    23e8:	03000001 	movweq	r0, #1
    23ec:	014a0508 	cmpeq	sl, r8, lsl #10
    23f0:	01030000 	mrseq	r0, (UNDEF: 3)
    23f4:	0000e008 	andeq	lr, r0, r8
    23f8:	07020300 	streq	r0, [r2, -r0, lsl #6]
    23fc:	000000ee 	andeq	r0, r0, lr, ror #1
    2400:	2f070403 	svccs	0x00070403
    2404:	03000001 	movweq	r0, #1
    2408:	012a0708 	teqeq	sl, r8, lsl #14
    240c:	04030000 	streq	r0, [r3], #-0
    2410:	00014107 	andeq	r4, r1, r7, lsl #2
    2414:	05040400 	streq	r0, [r4, #-1024]	; 0x400
    2418:	00007a04 	andeq	r7, r0, r4, lsl #20
    241c:	08010300 	stmdaeq	r1, {r8, r9}
    2420:	000000e9 	andeq	r0, r0, r9, ror #1
    2424:	00870405 	addeq	r0, r7, r5, lsl #8
    2428:	7a060000 	bvc	182430 <__bss_end__+0x177c70>
    242c:	07000000 	streq	r0, [r0, -r0]
    2430:	000004e3 	andeq	r0, r0, r3, ror #9
    2434:	00972802 	addseq	r2, r7, r2, lsl #16
    2438:	0a080000 	beq	202440 <__bss_end__+0x1f7c80>
    243c:	04000005 	streq	r0, [r0], #-5
    2440:	00ae0004 	adceq	r0, lr, r4
    2444:	14090000 	strne	r0, [r9], #-0
    2448:	72000005 	andvc	r0, r0, #5
    244c:	00000000 	andeq	r0, r0, r0
    2450:	050c0700 	streq	r0, [ip, #-1792]	; 0x700
    2454:	62020000 	andvs	r0, r2, #0
    2458:	0000008c 	andeq	r0, r0, ip, lsl #1
    245c:	0005840a 	andeq	r8, r5, sl, lsl #8
    2460:	25270100 	strcs	r0, [r7, #-256]!	; 0x100
    2464:	0c000000 	stceq	0, cr0, [r0], {-0}
    2468:	1400008f 	strne	r0, [r0], #-143	; 0x8f
    246c:	01000000 	mrseq	r0, (UNDEF: 0)
    2470:	0000e09c 	muleq	r0, ip, r0
    2474:	00630b00 	rsbeq	r0, r3, r0, lsl #22
    2478:	00252701 	eoreq	r2, r5, r1, lsl #14
    247c:	0bbd0000 	bleq	fef42484 <__bss_end__+0xfef37cc4>
    2480:	0c000000 	stceq	0, cr0, [r0], {-0}
    2484:	00646170 	rsbeq	r6, r4, r0, ror r1
    2488:	00742e01 	rsbseq	r2, r4, r1, lsl #28
    248c:	8f200000 	svchi	0x00200000
    2490:	002c0000 	eoreq	r0, ip, r0
    2494:	9c010000 	stcls	0, cr0, [r1], {-0}
    2498:	00000130 	andeq	r0, r0, r0, lsr r1
    249c:	0100700b 	tsteq	r0, fp
    24a0:	0000742e 	andeq	r7, r0, lr, lsr #8
    24a4:	000beb00 	andeq	lr, fp, r0, lsl #22
    24a8:	07930d00 	ldreq	r0, [r3, r0, lsl #26]
    24ac:	2e010000 	cdpcs	0, 0, cr0, cr1, cr0, {0}
    24b0:	00000074 	andeq	r0, r0, r4, ror r0
    24b4:	00000c16 	andeq	r0, r0, r6, lsl ip
    24b8:	0005bd0e 	andeq	fp, r5, lr, lsl #26
    24bc:	252e0100 	strcs	r0, [lr, #-256]!	; 0x100
    24c0:	01000000 	mrseq	r0, (UNDEF: 0)
    24c4:	656c0f52 	strbvs	r0, [ip, #-3922]!	; 0xf52
    24c8:	2f01006e 	svccs	0x0001006e
    24cc:	00000025 	andeq	r0, r0, r5, lsr #32
    24d0:	0a005101 	beq	168dc <__bss_end__+0xc11c>
    24d4:	0000057c 	andeq	r0, r0, ip, ror r5
    24d8:	00743701 	rsbseq	r3, r4, r1, lsl #14
    24dc:	8f4c0000 	svchi	0x004c0000
    24e0:	00400000 	subeq	r0, r0, r0
    24e4:	9c010000 	stcls	0, cr0, [r1], {-0}
    24e8:	0000019c 	muleq	r0, ip, r1
    24ec:	7473640b 	ldrbtvc	r6, [r3], #-1035	; 0x40b
    24f0:	74370100 	ldrtvc	r0, [r7], #-256	; 0x100
    24f4:	37000000 	strcc	r0, [r0, -r0]
    24f8:	0b00000c 	bleq	2530 <_start-0x5ad0>
    24fc:	3701006e 	strcc	r0, [r1, -lr, rrx]
    2500:	00000025 	andeq	r0, r0, r5, lsr #32
    2504:	00000c6f 	andeq	r0, r0, pc, ror #24
    2508:	0100700b 	tsteq	r0, fp
    250c:	00007437 	andeq	r7, r0, r7, lsr r4
    2510:	000c9000 	andeq	r9, ip, r0
    2514:	0d4e0d00 	stcleq	13, cr0, [lr, #-0]
    2518:	37010000 	strcc	r0, [r1, -r0]
    251c:	00000074 	andeq	r0, r0, r4, ror r0
    2520:	00000cc6 	andeq	r0, r0, r6, asr #25
    2524:	6e656c10 	mcrvs	12, 3, r6, cr5, cr0, {0}
    2528:	25390100 	ldrcs	r0, [r9, #-256]!	; 0x100
    252c:	e4000000 	str	r0, [r0], #-0
    2530:	0f00000c 	svceq	0x0000000c
    2534:	3d010073 	stccc	0, cr0, [r1, #-460]	; 0xfffffe34
    2538:	00000074 	andeq	r0, r0, r4, ror r0
    253c:	0a005001 	beq	16548 <__bss_end__+0xbd88>
    2540:	000005cb 	andeq	r0, r0, fp, asr #11
    2544:	00744701 	rsbseq	r4, r4, r1, lsl #14
    2548:	8f8c0000 	svchi	0x008c0000
    254c:	01b00000 	movseq	r0, r0
    2550:	9c010000 	stcls	0, cr0, [r1], {-0}
    2554:	000002d3 	ldrdeq	r0, [r0], -r3
    2558:	0007930d 	andeq	r9, r7, sp, lsl #6
    255c:	2c470100 	stfcse	f0, [r7], {-0}
    2560:	0b000000 	bleq	2568 <_start-0x5a98>
    2564:	0b00000d 	bleq	25a0 <_start-0x5a60>
    2568:	00747364 	rsbseq	r7, r4, r4, ror #6
    256c:	00744701 	rsbseq	r4, r4, r1, lsl #14
    2570:	0d390000 	ldceq	0, cr0, [r9, #-0]
    2574:	6e0b0000 	cdpvs	0, 0, cr0, cr11, cr0, {0}
    2578:	25470100 	strbcs	r0, [r7, #-256]	; 0x100
    257c:	a7000000 	strge	r0, [r0, -r0]
    2580:	0b00000d 	bleq	25bc <_start-0x5a44>
    2584:	006c6176 	rsbeq	r6, ip, r6, ror r1
    2588:	00254701 	eoreq	r4, r5, r1, lsl #14
    258c:	0dd30000 	ldcleq	0, cr0, [r3]
    2590:	bd0d0000 	stclt	0, cr0, [sp, #-0]
    2594:	01000005 	tsteq	r0, r5
    2598:	00002547 	andeq	r2, r0, r7, asr #10
    259c:	000e5200 	andeq	r5, lr, r0, lsl #4
    25a0:	05940e00 	ldreq	r0, [r4, #3584]	; 0xe00
    25a4:	47010000 	strmi	r0, [r1, -r0]
    25a8:	00000025 	andeq	r0, r0, r5, lsr #32
    25ac:	0f049102 	svceq	0x00049102
    25b0:	00667562 	rsbeq	r7, r6, r2, ror #10
    25b4:	02d34c01 	sbcseq	r4, r3, #256	; 0x100
    25b8:	91030000 	mrsls	r0, (UNDEF: 3)
    25bc:	70107fa8 	andsvc	r7, r0, r8, lsr #31
    25c0:	744c0100 	strbvc	r0, [ip], #-256	; 0x100
    25c4:	7c000000 	stcvc	0, cr0, [r0], {-0}
    25c8:	1000000e 	andne	r0, r0, lr
    25cc:	4d010075 	stcmi	0, cr0, [r1, #-468]	; 0xfffffe2c
    25d0:	0000002c 	andeq	r0, r0, ip, lsr #32
    25d4:	00000f44 	andeq	r0, r0, r4, asr #30
    25d8:	00011011 	andeq	r1, r1, r1, lsl r0
    25dc:	0002f300 	andeq	pc, r2, r0, lsl #6
    25e0:	80030500 	andhi	r0, r3, r0, lsl #10
    25e4:	120000a1 	andne	r0, r0, #161	; 0xa1
    25e8:	00008ff8 	strdeq	r8, [r0], -r8	; <UNPREDICTABLE>
    25ec:	00000074 	andeq	r0, r0, r4, ror r0
    25f0:	00000261 	andeq	r0, r0, r1, ror #4
    25f4:	00057613 	andeq	r7, r5, r3, lsl r6
    25f8:	2c520100 	ldfcse	f0, [r2], {-0}
    25fc:	07000000 	streq	r0, [r0, -r0]
    2600:	00000010 	andeq	r0, r0, r0, lsl r0
    2604:	0090e414 	addseq	lr, r0, r4, lsl r4
    2608:	00066000 	andeq	r6, r6, r0
    260c:	90f81500 	rscsls	r1, r8, r0, lsl #10
    2610:	06670000 	strbteq	r0, [r7], -r0
    2614:	02990000 	addseq	r0, r9, #0
    2618:	01160000 	tsteq	r6, r0
    261c:	77080253 	smlsdvc	r8, r3, r2, r0
    2620:	05520116 	ldrbeq	r0, [r2, #-278]	; 0x116
    2624:	00a18003 	adceq	r8, r1, r3
    2628:	51011600 	tstpl	r1, r0, lsl #12
    262c:	a1b80305 			; <UNDEFINED> instruction: 0xa1b80305
    2630:	01160000 	tsteq	r6, r0
    2634:	a4030550 	strge	r0, [r3], #-1360	; 0x550
    2638:	000000a1 	andeq	r0, r0, r1, lsr #1
    263c:	0090fc14 	addseq	pc, r0, r4, lsl ip	; <UNPREDICTABLE>
    2640:	00067d00 	andeq	r7, r6, r0, lsl #26
    2644:	91041500 	tstls	r4, r0, lsl #10
    2648:	00e00000 	rsceq	r0, r0, r0
    264c:	02b60000 	adcseq	r0, r6, #0
    2650:	01160000 	tsteq	r6, r0
    2654:	007d0251 	rsbseq	r0, sp, r1, asr r2
    2658:	91181700 	tstls	r8, r0, lsl #14
    265c:	01300000 	teqeq	r0, r0
    2660:	01160000 	tsteq	r6, r0
    2664:	007d0253 	rsbseq	r0, sp, r3, asr r2
    2668:	02510116 	subseq	r0, r1, #-2147483643	; 0x80000005
    266c:	01160074 	tsteq	r6, r4, ror r0
    2670:	00750250 	rsbseq	r0, r5, r0, asr r2
    2674:	7a180000 	bvc	60267c <__bss_end__+0x5f7ebc>
    2678:	e3000000 	movw	r0, #0
    267c:	19000002 	stmdbne	r0, {r1}
    2680:	0000006b 	andeq	r0, r0, fp, rrx
    2684:	7a18003f 	bvc	602788 <__bss_end__+0x5f7fc8>
    2688:	f3000000 	vhadd.u8	d0, d0, d0
    268c:	19000002 	stmdbne	r0, {r1}
    2690:	0000006b 	andeq	r0, r0, fp, rrx
    2694:	e3060004 	movw	r0, #24580	; 0x6004
    2698:	1a000002 	bne	26a8 <_start-0x5958>
    269c:	000005ae 	andeq	r0, r0, lr, lsr #11
    26a0:	913c1f01 	teqls	ip, r1, lsl #30
    26a4:	00540000 	subseq	r0, r4, r0
    26a8:	9c010000 	stcls	0, cr0, [r1], {-0}
    26ac:	0000037c 	andeq	r0, r0, ip, ror r3
    26b0:	0005c30d 	andeq	ip, r5, sp, lsl #6
    26b4:	8b1f0100 	blhi	7c2abc <__bss_end__+0x7b82fc>
    26b8:	33000003 	movwcc	r0, #3
    26bc:	0d000010 	stceq	0, cr0, [r0, #-64]	; 0xffffffc0
    26c0:	0000058c 	andeq	r0, r0, ip, lsl #11
    26c4:	03a01f01 	moveq	r1, #1, 30
    26c8:	105f0000 	subsne	r0, pc, r0
    26cc:	10110000 	andsne	r0, r1, r0
    26d0:	b6000001 	strlt	r0, [r0], -r1
    26d4:	05000003 	streq	r0, [r0, #-3]
    26d8:	00a18803 	adceq	r8, r1, r3, lsl #16
    26dc:	914c1400 	cmpls	ip, r0, lsl #8
    26e0:	06600000 	strbteq	r0, [r0], -r0
    26e4:	60150000 	andsvs	r0, r5, r0
    26e8:	67000091 			; <UNDEFINED> instruction: 0x67000091
    26ec:	72000006 	andvc	r0, r0, #6
    26f0:	16000003 	strne	r0, [r0], -r3
    26f4:	08025301 	stmdaeq	r2, {r0, r8, r9, ip, lr}
    26f8:	52011620 	andpl	r1, r1, #32, 12	; 0x2000000
    26fc:	a1880305 	orrge	r0, r8, r5, lsl #6
    2700:	01160000 	tsteq	r6, r0
    2704:	b8030551 	stmdalt	r3, {r0, r4, r6, r8, sl}
    2708:	160000a1 	strne	r0, [r0], -r1, lsr #1
    270c:	03055001 	movweq	r5, #20481	; 0x5001
    2710:	0000a1f0 	strdeq	sl, [r0], -r0
    2714:	91641400 	cmnls	r4, r0, lsl #8
    2718:	067d0000 	ldrbteq	r0, [sp], -r0
    271c:	1b000000 	blne	2724 <_start-0x58dc>
    2720:	00000025 	andeq	r0, r0, r5, lsr #32
    2724:	0000038b 	andeq	r0, r0, fp, lsl #7
    2728:	0000251c 	andeq	r2, r0, ip, lsl r5
    272c:	04050000 	streq	r0, [r5], #-0
    2730:	0000037c 	andeq	r0, r0, ip, ror r3
    2734:	0000251b 	andeq	r2, r0, fp, lsl r5
    2738:	0003a000 	andeq	sl, r3, r0
    273c:	00811c00 	addeq	r1, r1, r0, lsl #24
    2740:	05000000 	streq	r0, [r0, #-0]
    2744:	00039104 	andeq	r9, r3, r4, lsl #2
    2748:	007a1800 	rsbseq	r1, sl, r0, lsl #16
    274c:	03b60000 			; <UNDEFINED> instruction: 0x03b60000
    2750:	6b190000 	blvs	642758 <__bss_end__+0x637f98>
    2754:	0e000000 	cdpeq	0, 0, cr0, cr0, cr0, {0}
    2758:	03a60600 			; <UNDEFINED> instruction: 0x03a60600
    275c:	001d0000 	andseq	r0, sp, r0
    2760:	01000005 	tsteq	r0, r5
    2764:	0000257f 	andeq	r2, r0, pc, ror r5
    2768:	00919000 	addseq	r9, r1, r0
    276c:	00028800 	andeq	r8, r2, r0, lsl #16
    2770:	259c0100 	ldrcs	r0, [ip, #256]	; 0x100
    2774:	0b000006 	bleq	2794 <_start-0x586c>
    2778:	00667562 	rsbeq	r7, r6, r2, ror #10
    277c:	00747f01 	rsbseq	r7, r4, r1, lsl #30
    2780:	108b0000 	addne	r0, fp, r0
    2784:	6e0b0000 	cdpvs	0, 0, cr0, cr11, cr0, {0}
    2788:	257f0100 	ldrbcs	r0, [pc, #-256]!	; 2690 <_start-0x5970>
    278c:	b7000000 	strlt	r0, [r0, -r0]
    2790:	0b000010 	bleq	27d8 <_start-0x5828>
    2794:	00746d66 	rsbseq	r6, r4, r6, ror #26
    2798:	00817f01 	addeq	r7, r1, r1, lsl #30
    279c:	10e50000 	rscne	r0, r5, r0
    27a0:	b50d0000 	strlt	r0, [sp, #-0]
    27a4:	01000007 	tsteq	r0, r7
    27a8:	0000ae7f 	andeq	sl, r0, pc, ror lr
    27ac:	00111900 	andseq	r1, r1, r0, lsl #18
    27b0:	00701000 	rsbseq	r1, r0, r0
    27b4:	00748001 	rsbseq	r8, r4, r1
    27b8:	112c0000 	teqne	ip, r0
    27bc:	65100000 	ldrvs	r0, [r0, #-0]
    27c0:	74800100 	strvc	r0, [r0], #256	; 0x100
    27c4:	aa000000 	bge	27cc <_start-0x5834>
    27c8:	11000011 	tstne	r0, r1, lsl r0
    27cc:	00000110 	andeq	r0, r0, r0, lsl r1
    27d0:	00000635 	andeq	r0, r0, r5, lsr r6
    27d4:	a1980305 	orrsge	r0, r8, r5, lsl #6
    27d8:	801e0000 	andshi	r0, lr, r0
    27dc:	10000000 	andne	r0, r0, r0
    27e0:	8d010073 	stchi	0, cr0, [r1, #-460]	; 0xfffffe34
    27e4:	00000074 	andeq	r0, r0, r4, ror r0
    27e8:	000011d1 	ldrdeq	r1, [r0], -r1	; <UNPREDICTABLE>
    27ec:	6d756e0f 	ldclvs	14, cr6, [r5, #-60]!	; 0xffffffc4
    27f0:	3a8d0100 	bcc	fe342bf8 <__bss_end__+0xfe338438>
    27f4:	03000006 	movweq	r0, #6
    27f8:	137ed891 	cmnne	lr, #9502720	; 0x910000
    27fc:	000005bd 			; <UNDEFINED> instruction: 0x000005bd
    2800:	002c8e01 	eoreq	r8, ip, r1, lsl #28
    2804:	12260000 	eorne	r0, r6, #0
    2808:	14150000 	ldrne	r0, [r5], #-0
    280c:	b9000092 	stmdblt	r0, {r1, r4, r7}
    2810:	7b000000 	blvc	2818 <_start-0x57e8>
    2814:	16000004 	strne	r0, [r0], -r4
    2818:	75025001 	strvc	r5, [r2, #-1]
    281c:	28140000 	ldmdacs	r4, {}	; <UNPREDICTABLE>
    2820:	60000092 	mulvs	r0, r2, r0
    2824:	15000006 	strne	r0, [r0, #-6]
    2828:	0000923c 	andeq	r9, r0, ip, lsr r2
    282c:	00000667 	andeq	r0, r0, r7, ror #12
    2830:	000004b3 			; <UNDEFINED> instruction: 0x000004b3
    2834:	02530116 	subseq	r0, r3, #-2147483643	; 0x80000005
    2838:	01169408 	tsteq	r6, r8, lsl #8
    283c:	98030552 	stmdals	r3, {r1, r4, r6, r8, sl}
    2840:	160000a1 	strne	r0, [r0], -r1, lsr #1
    2844:	03055101 	movweq	r5, #20737	; 0x5101
    2848:	0000a1b8 			; <UNDEFINED> instruction: 0x0000a1b8
    284c:	05500116 	ldrbeq	r0, [r0, #-278]	; 0x116
    2850:	00a20803 	adceq	r0, r2, r3, lsl #16
    2854:	40140000 	andsmi	r0, r4, r0
    2858:	7d000092 	stcvc	0, cr0, [r0, #-584]	; 0xfffffdb8
    285c:	14000006 	strne	r0, [r0], #-6
    2860:	000092b0 			; <UNDEFINED> instruction: 0x000092b0
    2864:	00000660 	andeq	r0, r0, r0, ror #12
    2868:	0092c415 	addseq	ip, r2, r5, lsl r4
    286c:	00066700 	andeq	r6, r6, r0, lsl #14
    2870:	0004f400 	andeq	pc, r4, r0, lsl #8
    2874:	53011600 	movwpl	r1, #5632	; 0x1600
    2878:	169a0802 	ldrne	r0, [sl], r2, lsl #16
    287c:	03055201 	movweq	r5, #20993	; 0x5201
    2880:	0000a198 	muleq	r0, r8, r1
    2884:	05510116 	ldrbeq	r0, [r1, #-278]	; 0x116
    2888:	00a1b803 	adceq	fp, r1, r3, lsl #16
    288c:	50011600 	andpl	r1, r1, r0, lsl #12
    2890:	a2240305 	eorge	r0, r4, #335544320	; 0x14000000
    2894:	14000000 	strne	r0, [r0], #-0
    2898:	000092c8 	andeq	r9, r0, r8, asr #5
    289c:	0000067d 	andeq	r0, r0, sp, ror r6
    28a0:	0092ec15 	addseq	lr, r2, r5, lsl ip
    28a4:	00019c00 	andeq	r9, r1, r0, lsl #24
    28a8:	00052a00 	andeq	r2, r5, r0, lsl #20
    28ac:	52011600 	andpl	r1, r1, #0, 12
    28b0:	16800802 	strne	r0, [r0], r2, lsl #16
    28b4:	91035101 	tstls	r3, r1, lsl #2
    28b8:	01167ed0 			; <UNDEFINED> instruction: 0x01167ed0
    28bc:	163a0150 			; <UNDEFINED> instruction: 0x163a0150
    28c0:	01047d02 	tsteq	r4, r2, lsl #26
    28c4:	7d021631 	stcvc	6, cr1, [r2, #-196]	; 0xffffff3c
    28c8:	00770200 	rsbseq	r0, r7, r0, lsl #4
    28cc:	93101500 	tstls	r0, #0, 10
    28d0:	019c0000 	orrseq	r0, ip, r0
    28d4:	05580000 	ldrbeq	r0, [r8, #-0]
    28d8:	01160000 	tsteq	r6, r0
    28dc:	80080252 	andhi	r0, r8, r2, asr r2
    28e0:	03510116 	cmpeq	r1, #-2147483643	; 0x80000005
    28e4:	167ed091 			; <UNDEFINED> instruction: 0x167ed091
    28e8:	3a015001 	bcc	568f4 <__bss_end__+0x4c134>
    28ec:	047d0216 	ldrbteq	r0, [sp], #-534	; 0x216
    28f0:	16007b02 	strne	r7, [r0], -r2, lsl #22
    28f4:	02007d02 	andeq	r7, r0, #2, 26	; 0x80
    28f8:	15000077 	strne	r0, [r0, #-119]	; 0x77
    28fc:	00009334 	andeq	r9, r0, r4, lsr r3
    2900:	0000019c 	muleq	r0, ip, r1
    2904:	00000586 	andeq	r0, r0, r6, lsl #11
    2908:	02520116 	subseq	r0, r2, #-2147483643	; 0x80000005
    290c:	01168008 	tsteq	r6, r8
    2910:	d0910351 	addsle	r0, r1, r1, asr r3
    2914:	5001167e 	andpl	r1, r1, lr, ror r6
    2918:	02164001 	andseq	r4, r6, #1
    291c:	7b02047d 	blvc	83b18 <__bss_end__+0x79358>
    2920:	7d021600 	stcvc	6, cr1, [r2, #-0]
    2924:	00770200 	rsbseq	r0, r7, r0, lsl #4
    2928:	93581500 	cmpls	r8, #0, 10
    292c:	019c0000 	orrseq	r0, ip, r0
    2930:	05b40000 	ldreq	r0, [r4, #0]!
    2934:	01160000 	tsteq	r6, r0
    2938:	80080252 	andhi	r0, r8, r2, asr r2
    293c:	03510116 	cmpeq	r1, #-2147483643	; 0x80000005
    2940:	167ed091 			; <UNDEFINED> instruction: 0x167ed091
    2944:	32015001 	andcc	r5, r1, #1
    2948:	047d0216 	ldrbteq	r0, [sp], #-534	; 0x216
    294c:	16007b02 	strne	r7, [r0], -r2, lsl #22
    2950:	02007d02 	andeq	r7, r0, #2, 26	; 0x80
    2954:	15000077 	strne	r0, [r0, #-119]	; 0x77
    2958:	00009388 	andeq	r9, r0, r8, lsl #7
    295c:	0000019c 	muleq	r0, ip, r1
    2960:	000005e2 	andeq	r0, r0, r2, ror #11
    2964:	02520116 	subseq	r0, r2, #-2147483643	; 0x80000005
    2968:	01168008 	tsteq	r6, r8
    296c:	d0910351 	addsle	r0, r1, r1, asr r3
    2970:	5001167e 	andpl	r1, r1, lr, ror r6
    2974:	02163801 	andseq	r3, r6, #65536	; 0x10000
    2978:	7b02047d 	blvc	83b74 <__bss_end__+0x793b4>
    297c:	7d021600 	stcvc	6, cr1, [r2, #-0]
    2980:	00770200 	rsbseq	r0, r7, r0, lsl #4
    2984:	93901400 	orrsls	r1, r0, #0, 8
    2988:	06600000 	strbteq	r0, [r0], -r0
    298c:	ac150000 	ldcge	0, cr0, [r5], {-0}
    2990:	67000093 			; <UNDEFINED> instruction: 0x67000093
    2994:	1a000006 	bne	29b4 <_start-0x564c>
    2998:	16000006 	strne	r0, [r0], -r6
    299c:	08025301 	stmdaeq	r2, {r0, r8, r9, ip, lr}
    29a0:	520116bb 	andpl	r1, r1, #196083712	; 0xbb00000
    29a4:	a1980305 	orrsge	r0, r8, r5, lsl #6
    29a8:	01160000 	tsteq	r6, r0
    29ac:	b8030551 	stmdalt	r3, {r0, r4, r6, r8, sl}
    29b0:	160000a1 	strne	r0, [r0], -r1, lsr #1
    29b4:	03055001 	movweq	r5, #20481	; 0x5001
    29b8:	0000a24c 	andeq	sl, r0, ip, asr #4
    29bc:	93b01400 	movsls	r1, #0, 8
    29c0:	067d0000 	ldrbteq	r0, [sp], -r0
    29c4:	00000000 	andeq	r0, r0, r0
    29c8:	00007a18 	andeq	r7, r0, r8, lsl sl
    29cc:	00063500 	andeq	r3, r6, r0, lsl #10
    29d0:	006b1900 	rsbeq	r1, fp, r0, lsl #18
    29d4:	00090000 	andeq	r0, r9, r0
    29d8:	00062506 	andeq	r2, r6, r6, lsl #10
    29dc:	007a1800 	rsbseq	r1, sl, r0, lsl #16
    29e0:	064a0000 	strbeq	r0, [sl], -r0
    29e4:	6b190000 	blvs	6429ec <__bss_end__+0x63822c>
    29e8:	7f000000 	svcvc	0x00000000
    29ec:	05341f00 	ldreq	r1, [r4, #-3840]!	; 0xf00
    29f0:	1d030000 	stcne	0, cr0, [r3, #-0]
    29f4:	0000038b 	andeq	r0, r0, fp, lsl #7
    29f8:	0005711f 	andeq	r7, r5, pc, lsl r1
    29fc:	a0220300 	eorge	r0, r2, r0, lsl #6
    2a00:	20000003 	andcs	r0, r0, r3
    2a04:	00000234 	andeq	r0, r0, r4, lsr r2
    2a08:	03211e03 	teqeq	r1, #3, 28	; 0x30
    2a0c:	03000005 	movweq	r0, #5
    2a10:	00002529 	andeq	r2, r0, r9, lsr #10
    2a14:	00067d00 	andeq	r7, r6, r0, lsl #26
    2a18:	00811c00 	addeq	r1, r1, r0, lsl #24
    2a1c:	00220000 	eoreq	r0, r2, r0
    2a20:	00028120 	andeq	r8, r2, r0, lsr #2
    2a24:	00650300 	rsbeq	r0, r5, r0, lsl #6
    2a28:	000000ff 	strdeq	r0, [r0], -pc	; <UNPREDICTABLE>
    2a2c:	0c300004 	ldceq	0, cr0, [r0], #-16
    2a30:	01040000 	mrseq	r0, (UNDEF: 4)
    2a34:	0000005f 	andeq	r0, r0, pc, asr r0
    2a38:	0005d001 	andeq	sp, r5, r1
    2a3c:	00048f00 	andeq	r8, r4, r0, lsl #30
    2a40:	00941800 	addseq	r1, r4, r0, lsl #16
    2a44:	00002800 	andeq	r2, r0, r0, lsl #16
    2a48:	000c3500 	andeq	r3, ip, r0, lsl #10
    2a4c:	05040200 	streq	r0, [r4, #-512]	; 0x200
    2a50:	00746e69 	rsbseq	r6, r4, r9, ror #28
    2a54:	34070403 	strcc	r0, [r7], #-1027	; 0x403
    2a58:	03000001 	movweq	r0, #1
    2a5c:	00e20601 	rsceq	r0, r2, r1, lsl #12
    2a60:	02030000 	andeq	r0, r3, #0
    2a64:	00015805 	andeq	r5, r1, r5, lsl #16
    2a68:	05040300 	streq	r0, [r4, #-768]	; 0x300
    2a6c:	0000014f 	andeq	r0, r0, pc, asr #2
    2a70:	4a050803 	bmi	144a84 <__bss_end__+0x13a2c4>
    2a74:	03000001 	movweq	r0, #1
    2a78:	00e00801 	rsceq	r0, r0, r1, lsl #16
    2a7c:	02030000 	andeq	r0, r3, #0
    2a80:	0000ee07 	andeq	lr, r0, r7, lsl #28
    2a84:	07040300 	streq	r0, [r4, -r0, lsl #6]
    2a88:	0000012f 	andeq	r0, r0, pc, lsr #2
    2a8c:	2a070803 	bcs	1c4aa0 <__bss_end__+0x1ba2e0>
    2a90:	03000001 	movweq	r0, #1
    2a94:	01410704 	cmpeq	r1, r4, lsl #14
    2a98:	01030000 	mrseq	r0, (UNDEF: 3)
    2a9c:	0000e908 	andeq	lr, r0, r8, lsl #18
    2aa0:	7f040400 	svcvc	0x00040400
    2aa4:	05000000 	streq	r0, [r0, #-0]
    2aa8:	00000072 	andeq	r0, r0, r2, ror r0
    2aac:	00028106 	andeq	r8, r2, r6, lsl #2
    2ab0:	18040100 	stmdane	r4, {r8}
    2ab4:	28000094 	stmdacs	r0, {r2, r4, r7}
    2ab8:	01000000 	mrseq	r0, (UNDEF: 0)
    2abc:	0000ca9c 	muleq	r0, ip, sl
    2ac0:	942c0700 	strtls	r0, [ip], #-1792	; 0x700
    2ac4:	00ac0000 	adceq	r0, ip, r0
    2ac8:	01080000 	mrseq	r0, (UNDEF: 8)
    2acc:	84030550 	strhi	r0, [r3], #-1360	; 0x550
    2ad0:	000000a2 	andeq	r0, r0, r2, lsr #1
    2ad4:	00943409 	addseq	r3, r4, r9, lsl #8
    2ad8:	0000ea00 	andeq	lr, r0, r0, lsl #20
    2adc:	0000c000 	andeq	ip, r0, r0
    2ae0:	50010800 	andpl	r0, r1, r0, lsl #16
    2ae4:	00640802 	rsbeq	r0, r4, r2, lsl #16
    2ae8:	0094380a 	addseq	r3, r4, sl, lsl #16
    2aec:	0000fb00 	andeq	pc, r0, r0, lsl #22
    2af0:	250b0000 	strcs	r0, [fp, #-0]
    2af4:	d9000000 	stmdble	r0, {}	; <UNPREDICTABLE>
    2af8:	0c000000 	stceq	0, cr0, [r0], {-0}
    2afc:	00000079 	andeq	r0, r0, r9, ror r0
    2b00:	05710d00 	ldrbeq	r0, [r1, #-3328]!	; 0xd00
    2b04:	22020000 	andcs	r0, r2, #0
    2b08:	000000e4 	andeq	r0, r0, r4, ror #1
    2b0c:	00ca0404 	sbceq	r0, sl, r4, lsl #8
    2b10:	f40e0000 	vst4.8	{d0-d3}, [lr], r0
    2b14:	02000005 	andeq	r0, r0, #5
    2b18:	0000fb4f 	andeq	pc, r0, pc, asr #22
    2b1c:	002c0c00 	eoreq	r0, ip, r0, lsl #24
    2b20:	0f000000 	svceq	0x00000000
    2b24:	000005e9 	andeq	r0, r0, r9, ror #11
    2b28:	ff006202 			; <UNDEFINED> instruction: 0xff006202
    2b2c:	04000000 	streq	r0, [r0], #-0
    2b30:	000cfa00 	andeq	pc, ip, r0, lsl #20
    2b34:	5f010400 	svcpl	0x00010400
    2b38:	01000000 	mrseq	r0, (UNDEF: 0)
    2b3c:	0000060d 	andeq	r0, r0, sp, lsl #12
    2b40:	0000048f 	andeq	r0, r0, pc, lsl #9
    2b44:	00009440 	andeq	r9, r0, r0, asr #8
    2b48:	00000034 	andeq	r0, r0, r4, lsr r0
    2b4c:	00000cd5 	ldrdeq	r0, [r0], -r5
    2b50:	69050402 	stmdbvs	r5, {r1, sl}
    2b54:	0300746e 	movweq	r7, #1134	; 0x46e
    2b58:	01340704 	teqeq	r4, r4, lsl #14
    2b5c:	01030000 	mrseq	r0, (UNDEF: 3)
    2b60:	0000e206 	andeq	lr, r0, r6, lsl #4
    2b64:	05020300 	streq	r0, [r2, #-768]	; 0x300
    2b68:	00000158 	andeq	r0, r0, r8, asr r1
    2b6c:	4f050403 	svcmi	0x00050403
    2b70:	03000001 	movweq	r0, #1
    2b74:	014a0508 	cmpeq	sl, r8, lsl #10
    2b78:	01030000 	mrseq	r0, (UNDEF: 3)
    2b7c:	0000e008 	andeq	lr, r0, r8
    2b80:	07020300 	streq	r0, [r2, -r0, lsl #6]
    2b84:	000000ee 	andeq	r0, r0, lr, ror #1
    2b88:	2f070403 	svccs	0x00070403
    2b8c:	03000001 	movweq	r0, #1
    2b90:	012a0708 	teqeq	sl, r8, lsl #14
    2b94:	04030000 	streq	r0, [r3], #-0
    2b98:	00014107 	andeq	r4, r1, r7, lsl #2
    2b9c:	08010300 	stmdaeq	r1, {r8, r9}
    2ba0:	000000e9 	andeq	r0, r0, r9, ror #1
    2ba4:	00060504 	andeq	r0, r6, r4, lsl #10
    2ba8:	400d0100 	andmi	r0, sp, r0, lsl #2
    2bac:	34000094 	strcc	r0, [r0], #-148	; 0x94
    2bb0:	01000000 	mrseq	r0, (UNDEF: 0)
    2bb4:	0000d89c 	muleq	r0, ip, r8
    2bb8:	03ea0500 	mvneq	r0, #0, 10
    2bbc:	0e010000 	cdpeq	0, 0, cr0, cr1, cr0, {0}
    2bc0:	00000025 	andeq	r0, r0, r5, lsr #32
    2bc4:	0003f805 	andeq	pc, r3, r5, lsl #16
    2bc8:	250e0100 	strcs	r0, [lr, #-256]	; 0x100
    2bcc:	06000000 	streq	r0, [r0], -r0
    2bd0:	000000b6 	strheq	r0, [r0], -r6
    2bd4:	62070f01 	andvs	r0, r7, #1, 30
    2bd8:	01007373 	tsteq	r0, r3, ror r3
    2bdc:	0000d811 	andeq	sp, r0, r1, lsl r8
    2be0:	00125000 	andseq	r5, r2, r0
    2be4:	05fd0800 	ldrbeq	r0, [sp, #2048]!	; 0x800
    2be8:	12010000 	andne	r0, r1, #0
    2bec:	000000d8 	ldrdeq	r0, [r0], -r8
    2bf0:	00946809 	addseq	r6, r4, r9, lsl #16
    2bf4:	0000f400 	andeq	pc, r0, r0, lsl #8
    2bf8:	946c0900 	strbtls	r0, [ip], #-2304	; 0x900
    2bfc:	00fb0000 	rscseq	r0, fp, r0
    2c00:	0a000000 	beq	2c08 <_start-0x53f8>
    2c04:	00002504 	andeq	r2, r0, r4, lsl #10
    2c08:	03ea0500 	mvneq	r0, #0, 10
    2c0c:	0e010000 	cdpeq	0, 0, cr0, cr1, cr0, {0}
    2c10:	00000025 	andeq	r0, r0, r5, lsr #32
    2c14:	0003f805 	andeq	pc, r3, r5, lsl #16
    2c18:	250e0100 	strcs	r0, [lr, #-256]	; 0x100
    2c1c:	06000000 	streq	r0, [r0], -r0
    2c20:	000000b6 	strheq	r0, [r0], -r6
    2c24:	8106d702 	tsthi	r6, r2, lsl #14
    2c28:	02000002 	andeq	r0, r0, #2
    2c2c:	01ad0065 			; <UNDEFINED> instruction: 0x01ad0065
    2c30:	00040000 	andeq	r0, r4, r0
    2c34:	00000d8e 	andeq	r0, r0, lr, lsl #27
    2c38:	005f0104 	subseq	r0, pc, r4, lsl #2
    2c3c:	2e010000 	cdpcs	0, 0, cr0, cr1, cr0, {0}
    2c40:	8f000006 	svchi	0x00000006
    2c44:	98000004 	stmdals	r0, {r2}
    2c48:	00000000 	andeq	r0, r0, r0
    2c4c:	7c000000 	stcvc	0, cr0, [r0], {-0}
    2c50:	0200000d 	andeq	r0, r0, #13
    2c54:	6e690504 	cdpvs	5, 6, cr0, cr9, cr4, {0}
    2c58:	04030074 	streq	r0, [r3], #-116	; 0x74
    2c5c:	00013407 	andeq	r3, r1, r7, lsl #8
    2c60:	06010300 	streq	r0, [r1], -r0, lsl #6
    2c64:	000000e2 	andeq	r0, r0, r2, ror #1
    2c68:	58050203 	stmdapl	r5, {r0, r1, r9}
    2c6c:	03000001 	movweq	r0, #1
    2c70:	014f0504 	cmpeq	pc, r4, lsl #10
    2c74:	08030000 	stmdaeq	r3, {}	; <UNPREDICTABLE>
    2c78:	00014a05 	andeq	r4, r1, r5, lsl #20
    2c7c:	08010300 	stmdaeq	r1, {r8, r9}
    2c80:	000000e0 	andeq	r0, r0, r0, ror #1
    2c84:	ee070203 	cdp	2, 0, cr0, cr7, cr3, {0}
    2c88:	03000000 	movweq	r0, #0
    2c8c:	012f0704 	teqeq	pc, r4, lsl #14
    2c90:	08030000 	stmdaeq	r3, {}	; <UNPREDICTABLE>
    2c94:	00012a07 	andeq	r2, r1, r7, lsl #20
    2c98:	07040300 	streq	r0, [r4, -r0, lsl #6]
    2c9c:	00000141 	andeq	r0, r0, r1, asr #2
    2ca0:	e9080103 	stmdb	r8, {r0, r1, r8}
    2ca4:	04000000 	streq	r0, [r0], #-0
    2ca8:	00000620 	andeq	r0, r0, r0, lsr #12
    2cac:	00250e01 	eoreq	r0, r5, r1, lsl #28
    2cb0:	94740000 	ldrbtls	r0, [r4], #-0
    2cb4:	00180000 	andseq	r0, r8, r0
    2cb8:	9c010000 	stcls	0, cr0, [r1], {-0}
    2cbc:	000000a2 	andeq	r0, r0, r2, lsr #1
    2cc0:	00068b05 	andeq	r8, r6, r5, lsl #22
    2cc4:	2c0f0100 	stfcss	f0, [pc], {-0}
    2cc8:	70000000 	andvc	r0, r0, r0
    2ccc:	00000012 	andeq	r0, r0, r2, lsl r0
    2cd0:	00066206 	andeq	r6, r6, r6, lsl #4
    2cd4:	8c170100 	ldfhis	f0, [r7], {-0}
    2cd8:	14000094 	strne	r0, [r0], #-148	; 0x94
    2cdc:	01000000 	mrseq	r0, (UNDEF: 0)
    2ce0:	0000c79c 	muleq	r0, ip, r7
    2ce4:	068b0500 	streq	r0, [fp], r0, lsl #10
    2ce8:	18010000 	stmdane	r1, {}	; <UNPREDICTABLE>
    2cec:	0000002c 	andeq	r0, r0, ip, lsr #32
    2cf0:	0000128f 	andeq	r1, r0, pc, lsl #5
    2cf4:	05e90600 	strbeq	r0, [r9, #1536]!	; 0x600
    2cf8:	1f010000 	svcne	0x00010000
    2cfc:	000094a0 	andeq	r9, r0, r0, lsr #9
    2d00:	00000048 	andeq	r0, r0, r8, asr #32
    2d04:	01779c01 	cmneq	r7, r1, lsl #24
    2d08:	83070000 	movwhi	r0, #28672	; 0x7000
    2d0c:	01000006 	tsteq	r0, r6
    2d10:	0001772a 	andeq	r7, r1, sl, lsr #14
    2d14:	10001c00 	andne	r1, r0, r0, lsl #24
    2d18:	065a0720 	ldrbeq	r0, [sl], -r0, lsr #14
    2d1c:	2b010000 	blcs	42d24 <__bss_end__+0x38564>
    2d20:	00000177 	andeq	r0, r0, r7, ror r1
    2d24:	20100024 	andscs	r0, r0, r4, lsr #32
    2d28:	00067707 	andeq	r7, r6, r7, lsl #14
    2d2c:	772c0100 	strvc	r0, [ip, -r0, lsl #2]!
    2d30:	00000001 	andeq	r0, r0, r1
    2d34:	085a0000 	ldmdaeq	sl, {}^	; <UNPREDICTABLE>
    2d38:	00000641 	andeq	r0, r0, r1, asr #12
    2d3c:	01772d01 	cmneq	r7, r1, lsl #26
    2d40:	09200000 	stmdbeq	r0!, {}	; <UNPREDICTABLE>
    2d44:	000094a8 	andeq	r9, r0, r8, lsr #9
    2d48:	00000079 	andeq	r0, r0, r9, ror r0
    2d4c:	0094b409 	addseq	fp, r4, r9, lsl #8
    2d50:	0000a200 	andeq	sl, r0, r0, lsl #4
    2d54:	94bc0a00 	ldrtls	r0, [ip], #2560	; 0xa00
    2d58:	018d0000 	orreq	r0, sp, r0
    2d5c:	013a0000 	teqeq	sl, r0
    2d60:	010b0000 	mrseq	r0, (UNDEF: 11)
    2d64:	004e0150 	subeq	r0, lr, r0, asr r1
    2d68:	0094c80a 	addseq	ip, r4, sl, lsl #16
    2d6c:	00019e00 	andeq	r9, r1, r0, lsl #28
    2d70:	00015a00 	andeq	r5, r1, r0, lsl #20
    2d74:	51010b00 	tstpl	r1, r0, lsl #22
    2d78:	00010c05 	andeq	r0, r1, r5, lsl #24
    2d7c:	010b5a00 	tsteq	fp, r0, lsl #20
    2d80:	240c0550 	strcs	r0, [ip], #-1360	; 0x550
    2d84:	00201000 	eoreq	r1, r0, r0
    2d88:	0094d40c 	addseq	sp, r4, ip, lsl #8
    2d8c:	00019e00 	andeq	r9, r1, r0, lsl #28
    2d90:	51010b00 	tstpl	r1, r0, lsl #22
    2d94:	00200c05 	eoreq	r0, r0, r5, lsl #24
    2d98:	010b5a00 	tsteq	fp, r0, lsl #20
    2d9c:	1c0c0550 	cfstr32ne	mvfx0, [ip], {80}	; 0x50
    2da0:	00201000 	eoreq	r1, r0, r0
    2da4:	00250d00 	eoreq	r0, r5, r0, lsl #26
    2da8:	23080000 	movwcs	r0, #32768	; 0x8000
    2dac:	01000006 	tsteq	r0, r6
    2db0:	0001880d 	andeq	r8, r1, sp, lsl #16
    2db4:	2c0d1000 	stccs	0, cr1, [sp], {-0}
    2db8:	0e000000 	cdpeq	0, 0, cr0, cr0, cr0, {0}
    2dbc:	000005f4 	strdeq	r0, [r0], -r4
    2dc0:	019e4f02 	orrseq	r4, lr, r2, lsl #30
    2dc4:	2c0f0000 	stccs	0, cr0, [pc], {-0}
    2dc8:	00000000 	andeq	r0, r0, r0
    2dcc:	00067110 	andeq	r7, r6, r0, lsl r1
    2dd0:	0f9b0200 	svceq	0x009b0200
    2dd4:	0000002c 	andeq	r0, r0, ip, lsr #32
    2dd8:	00002c0f 	andeq	r2, r0, pc, lsl #24
    2ddc:	d8000000 	stmdale	r0, {}	; <UNPREDICTABLE>
    2de0:	04000001 	streq	r0, [r0], #-1
    2de4:	000e7c00 	andeq	r7, lr, r0, lsl #24
    2de8:	5f010400 	svcpl	0x00010400
    2dec:	01000000 	mrseq	r0, (UNDEF: 0)
    2df0:	000006ad 	andeq	r0, r0, sp, lsr #13
    2df4:	0000048f 	andeq	r0, r0, pc, lsl #9
    2df8:	000094e8 	andeq	r9, r0, r8, ror #9
    2dfc:	00000088 	andeq	r0, r0, r8, lsl #1
    2e00:	00000e22 	andeq	r0, r0, r2, lsr #28
    2e04:	69050402 	stmdbvs	r5, {r1, sl}
    2e08:	0300746e 	movweq	r7, #1134	; 0x46e
    2e0c:	01340704 	teqeq	r4, r4, lsl #14
    2e10:	01030000 	mrseq	r0, (UNDEF: 3)
    2e14:	0000e206 	andeq	lr, r0, r6, lsl #4
    2e18:	05020300 	streq	r0, [r2, #-768]	; 0x300
    2e1c:	00000158 	andeq	r0, r0, r8, asr r1
    2e20:	4f050403 	svcmi	0x00050403
    2e24:	03000001 	movweq	r0, #1
    2e28:	014a0508 	cmpeq	sl, r8, lsl #10
    2e2c:	01030000 	mrseq	r0, (UNDEF: 3)
    2e30:	0000e008 	andeq	lr, r0, r8
    2e34:	07020300 	streq	r0, [r2, -r0, lsl #6]
    2e38:	000000ee 	andeq	r0, r0, lr, ror #1
    2e3c:	2f070403 	svccs	0x00070403
    2e40:	03000001 	movweq	r0, #1
    2e44:	012a0708 	teqeq	sl, r8, lsl #14
    2e48:	04030000 	streq	r0, [r3], #-0
    2e4c:	00014107 	andeq	r4, r1, r7, lsl #2
    2e50:	08010300 	stmdaeq	r1, {r8, r9}
    2e54:	000000e9 	andeq	r0, r0, r9, ror #1
    2e58:	0006cb04 	andeq	ip, r6, r4, lsl #22
    2e5c:	e8050100 	stmda	r5, {r8}
    2e60:	1c000094 	stcne	0, cr0, [r0], {148}	; 0x94
    2e64:	01000000 	mrseq	r0, (UNDEF: 0)
    2e68:	00009e9c 	muleq	r0, ip, lr
    2e6c:	06c50500 	strbeq	r0, [r5], r0, lsl #10
    2e70:	05010000 	streq	r0, [r1, #-0]
    2e74:	0000002c 	andeq	r0, r0, ip, lsr #32
    2e78:	000012b9 			; <UNDEFINED> instruction: 0x000012b9
    2e7c:	06900600 	ldreq	r0, [r0], r0, lsl #12
    2e80:	11010000 	mrsne	r0, (UNDEF: 1)
    2e84:	0000002c 	andeq	r0, r0, ip, lsr #32
    2e88:	00009504 	andeq	r9, r0, r4, lsl #10
    2e8c:	00000014 	andeq	r0, r0, r4, lsl r0
    2e90:	00cb9c01 	sbceq	r9, fp, r1, lsl #24
    2e94:	10070000 	andne	r0, r7, r0
    2e98:	ca000095 	bgt	30f4 <_start-0x4f0c>
    2e9c:	08000001 	stmdaeq	r0, {r0}
    2ea0:	0c055001 	stceq	0, cr5, [r5], {1}
    2ea4:	20003004 	andcs	r3, r0, r4
    2ea8:	e1060000 	mrs	r0, (UNDEF: 6)
    2eac:	01000006 	tsteq	r0, r6
    2eb0:	00002c16 	andeq	r2, r0, r6, lsl ip
    2eb4:	00951800 	addseq	r1, r5, r0, lsl #16
    2eb8:	00000c00 	andeq	r0, r0, r0, lsl #24
    2ebc:	f99c0100 			; <UNDEFINED> instruction: 0xf99c0100
    2ec0:	09000000 	stmdbeq	r0, {}	; <UNPREDICTABLE>
    2ec4:	1a010075 	bne	430a0 <__bss_end__+0x388e0>
    2ec8:	0000002c 	andeq	r0, r0, ip, lsr #32
    2ecc:	200a5001 	andcs	r5, sl, r1
    2ed0:	9e000095 	mcrls	0, 0, r0, cr0, cr5, {4}
    2ed4:	00000000 	andeq	r0, r0, r0
    2ed8:	0006d804 	andeq	sp, r6, r4, lsl #16
    2edc:	241f0100 	ldrcs	r0, [pc], #-256	; 2ee4 <_start-0x511c>
    2ee0:	24000095 	strcs	r0, [r0], #-149	; 0x95
    2ee4:	01000000 	mrseq	r0, (UNDEF: 0)
    2ee8:	0001579c 	muleq	r1, ip, r7
    2eec:	73750b00 	cmnvc	r5, #0, 22
    2ef0:	2c1f0100 	ldfcss	f0, [pc], {-0}
    2ef4:	ed000000 	stc	0, cr0, [r0, #-0]
    2ef8:	09000012 	stmdbeq	r0, {r1, r4}
    2efc:	01006272 	tsteq	r0, r2, ror r2
    2f00:	00002c20 	andeq	r2, r0, r0, lsr #24
    2f04:	0c540100 	ldfeqe	f0, [r4], {-0}
    2f08:	00009534 	andeq	r9, r0, r4, lsr r5
    2f0c:	00000010 	andeq	r0, r0, r0, lsl r0
    2f10:	0000014d 	andeq	r0, r0, sp, asr #2
    2f14:	0061720d 	rsbeq	r7, r1, sp, lsl #4
    2f18:	002c2201 	eoreq	r2, ip, r1, lsl #4
    2f1c:	130b0000 	movwne	r0, #45056	; 0xb000
    2f20:	380a0000 	stmdacc	sl, {}	; <UNPREDICTABLE>
    2f24:	cb000095 	blgt	3180 <_start-0x4e80>
    2f28:	00000000 	andeq	r0, r0, r0
    2f2c:	0095300a 	addseq	r3, r5, sl
    2f30:	0000cb00 	andeq	ip, r0, r0, lsl #22
    2f34:	f4040000 	vst4.8	{d0-d3}, [r4], r0
    2f38:	01000005 	tsteq	r0, r5
    2f3c:	00954828 	addseq	r4, r5, r8, lsr #16
    2f40:	00001400 	andeq	r1, r0, r0, lsl #8
    2f44:	909c0100 	addsls	r0, ip, r0, lsl #2
    2f48:	0b000001 	bleq	2f54 <_start-0x50ac>
    2f4c:	0100736d 	tsteq	r0, sp, ror #6
    2f50:	00002c28 	andeq	r2, r0, r8, lsr #24
    2f54:	00131e00 	andseq	r1, r3, r0, lsl #28
    2f58:	95580700 	ldrbls	r0, [r8, #-1792]	; 0x700
    2f5c:	00f90000 	rscseq	r0, r9, r0
    2f60:	01080000 	mrseq	r0, (UNDEF: 8)
    2f64:	01f30750 	mvnseq	r0, r0, asr r7
    2f68:	03e80a50 	mvneq	r0, #80, 20	; 0x50000
    2f6c:	0400001e 	streq	r0, [r0], #-30
    2f70:	000006a3 	andeq	r0, r0, r3, lsr #13
    2f74:	955c2b01 	ldrbls	r2, [ip, #-2817]	; 0xb01
    2f78:	00140000 	andseq	r0, r4, r0
    2f7c:	9c010000 	stcls	0, cr0, [r1], {-0}
    2f80:	000001ca 	andeq	r0, r0, sl, asr #3
    2f84:	6365730b 	cmnvs	r5, #738197504	; 0x2c000000
    2f88:	2c2b0100 	stfcss	f0, [fp], #-0
    2f8c:	3f000000 	svccc	0x00000000
    2f90:	07000013 	smladeq	r0, r3, r0, r0
    2f94:	0000956c 	andeq	r9, r0, ip, ror #10
    2f98:	00000157 	andeq	r0, r0, r7, asr r1
    2f9c:	07500108 	ldrbeq	r0, [r0, -r8, lsl #2]
    2fa0:	0a5001f3 	beq	1403774 <__bss_end__+0x13f8fb4>
    2fa4:	001e03e8 	andseq	r0, lr, r8, ror #7
    2fa8:	06bf0e00 	ldrteq	r0, [pc], r0, lsl #28
    2fac:	a7020000 	strge	r0, [r2, -r0]
    2fb0:	0000002c 	andeq	r0, r0, ip, lsr #32
    2fb4:	00002c0f 	andeq	r2, r0, pc, lsl #24
    2fb8:	c5000000 	strgt	r0, [r0, #-0]
    2fbc:	0400000c 	streq	r0, [r0], #-12
    2fc0:	000f5f00 	andeq	r5, pc, r0, lsl #30
    2fc4:	92010400 	andls	r0, r1, #0, 8
    2fc8:	0c00000a 	stceq	0, cr0, [r0], {10}
    2fcc:	000007e9 	andeq	r0, r0, r9, ror #15
    2fd0:	00000804 	andeq	r0, r0, r4, lsl #16
    2fd4:	000095bc 			; <UNDEFINED> instruction: 0x000095bc
    2fd8:	00000178 	andeq	r0, r0, r8, ror r1
    2fdc:	00000ed2 	ldrdeq	r0, [r0], -r2
    2fe0:	69050402 	stmdbvs	r5, {r1, sl}
    2fe4:	0300746e 	movweq	r7, #1134	; 0x46e
    2fe8:	01340704 	teqeq	r4, r4, lsl #14
    2fec:	2c040000 	stccs	0, cr0, [r4], {-0}
    2ff0:	03000000 	movweq	r0, #0
    2ff4:	00e20601 	rsceq	r0, r2, r1, lsl #12
    2ff8:	02030000 	andeq	r0, r3, #0
    2ffc:	00015805 	andeq	r5, r1, r5, lsl #16
    3000:	05040300 	streq	r0, [r4, #-768]	; 0x300
    3004:	0000014f 	andeq	r0, r0, pc, asr #2
    3008:	4a050803 	bmi	14501c <__bss_end__+0x13a85c>
    300c:	03000001 	movweq	r0, #1
    3010:	00e00801 	rsceq	r0, r0, r1, lsl #16
    3014:	02030000 	andeq	r0, r3, #0
    3018:	0000ee07 	andeq	lr, r0, r7, lsl #28
    301c:	07040300 	streq	r0, [r4, -r0, lsl #6]
    3020:	0000012f 	andeq	r0, r0, pc, lsr #2
    3024:	2a070803 	bcs	1c5038 <__bss_end__+0x1ba878>
    3028:	05000001 	streq	r0, [r0, #-1]
    302c:	000009a7 	andeq	r0, r0, r7, lsr #19
    3030:	00250702 	eoreq	r0, r5, r2, lsl #14
    3034:	91050000 	mrsls	r0, (UNDEF: 5)
    3038:	03000009 	movweq	r0, #9
    303c:	0000462c 	andeq	r4, r0, ip, lsr #12
    3040:	0a6d0500 	beq	1b44448 <__bss_end__+0x1b39c88>
    3044:	72030000 	andvc	r0, r3, #0
    3048:	00000046 	andeq	r0, r0, r6, asr #32
    304c:	00093506 	andeq	r3, r9, r6, lsl #10
    3050:	01650400 	cmneq	r5, r0, lsl #8
    3054:	0000002c 	andeq	r0, r0, ip, lsr #32
    3058:	a6030407 	strge	r0, [r3], -r7, lsl #8
    305c:	000000bc 	strheq	r0, [r0], -ip
    3060:	00092008 	andeq	r2, r9, r8
    3064:	91a80300 			; <UNDEFINED> instruction: 0x91a80300
    3068:	08000000 	stmdaeq	r0, {}	; <UNPREDICTABLE>
    306c:	000008bc 			; <UNDEFINED> instruction: 0x000008bc
    3070:	00bca903 	adcseq	sl, ip, r3, lsl #18
    3074:	09000000 	stmdbeq	r0, {}	; <UNPREDICTABLE>
    3078:	00000054 	andeq	r0, r0, r4, asr r0
    307c:	000000cc 	andeq	r0, r0, ip, asr #1
    3080:	0000cc0a 	andeq	ip, r0, sl, lsl #24
    3084:	03000300 	movweq	r0, #768	; 0x300
    3088:	01410704 	cmpeq	r1, r4, lsl #14
    308c:	080b0000 	stmdaeq	fp, {}	; <UNPREDICTABLE>
    3090:	00f4a303 	rscseq	sl, r4, r3, lsl #6
    3094:	520c0000 	andpl	r0, ip, #0
    3098:	0300000a 	movweq	r0, #10
    309c:	000025a5 	andeq	r2, r0, r5, lsr #11
    30a0:	5a0c0000 	bpl	3030a8 <__bss_end__+0x2f88e8>
    30a4:	0300000a 	movweq	r0, #10
    30a8:	00009daa 	andeq	r9, r0, sl, lsr #27
    30ac:	05000400 	streq	r0, [r0, #-1024]	; 0x400
    30b0:	000009e5 	andeq	r0, r0, r5, ror #19
    30b4:	00d3ab03 	sbcseq	sl, r3, r3, lsl #22
    30b8:	85050000 	strhi	r0, [r5, #-0]
    30bc:	03000008 	movweq	r0, #8
    30c0:	000070af 	andeq	r7, r0, pc, lsr #1
    30c4:	0e040d00 	cdpeq	13, 0, cr0, cr4, cr0, {0}
    30c8:	00011204 	andeq	r1, r1, r4, lsl #4
    30cc:	08010300 	stmdaeq	r1, {r8, r9}
    30d0:	000000e9 	andeq	r0, r0, r9, ror #1
    30d4:	0001120f 	andeq	r1, r1, pc, lsl #4
    30d8:	0b0f0500 	bleq	3c44e0 <__bss_end__+0x3b9d20>
    30dc:	16050000 	strne	r0, [r5], -r0
    30e0:	00000062 	andeq	r0, r0, r2, rrx
    30e4:	00089610 	andeq	r9, r8, r0, lsl r6
    30e8:	2d051800 	stccs	8, cr1, [r5, #-0]
    30ec:	0000017c 	andeq	r0, r0, ip, ror r1
    30f0:	000a060c 	andeq	r0, sl, ip, lsl #12
    30f4:	7c2f0500 	cfstr32vc	mvfx0, [pc], #-0	; 30fc <_start-0x4f04>
    30f8:	00000001 	andeq	r0, r0, r1
    30fc:	006b5f11 	rsbeq	r5, fp, r1, lsl pc
    3100:	00253005 	eoreq	r3, r5, r5
    3104:	0c040000 	stceq	0, cr0, [r4], {-0}
    3108:	00000a3d 	andeq	r0, r0, sp, lsr sl
    310c:	00253005 	eoreq	r3, r5, r5
    3110:	0c080000 	stceq	0, cr0, [r8], {-0}
    3114:	00000871 	andeq	r0, r0, r1, ror r8
    3118:	00253005 	eoreq	r3, r5, r5
    311c:	0c0c0000 	stceq	0, cr0, [ip], {-0}
    3120:	00000b56 	andeq	r0, r0, r6, asr fp
    3124:	00253005 	eoreq	r3, r5, r5
    3128:	11100000 	tstne	r0, r0
    312c:	0500785f 	streq	r7, [r0, #-2143]	; 0x85f
    3130:	00018231 	andeq	r8, r1, r1, lsr r2
    3134:	0e001400 	cfcpyseq	mvf1, mvf0
    3138:	00012904 	andeq	r2, r1, r4, lsl #18
    313c:	011e0900 	tsteq	lr, r0, lsl #18
    3140:	01920000 	orrseq	r0, r2, r0
    3144:	cc0a0000 	stcgt	0, cr0, [sl], {-0}
    3148:	00000000 	andeq	r0, r0, r0
    314c:	08b71000 	ldmeq	r7!, {ip}
    3150:	05240000 	streq	r0, [r4, #-0]!
    3154:	00020b35 	andeq	r0, r2, r5, lsr fp
    3158:	076f0c00 	strbeq	r0, [pc, -r0, lsl #24]!
    315c:	37050000 	strcc	r0, [r5, -r0]
    3160:	00000025 	andeq	r0, r0, r5, lsr #32
    3164:	0a750c00 	beq	1d4616c <__bss_end__+0x1d3b9ac>
    3168:	38050000 	stmdacc	r5, {}	; <UNPREDICTABLE>
    316c:	00000025 	andeq	r0, r0, r5, lsr #32
    3170:	079d0c04 	ldreq	r0, [sp, r4, lsl #24]
    3174:	39050000 	stmdbcc	r5, {}	; <UNPREDICTABLE>
    3178:	00000025 	andeq	r0, r0, r5, lsr #32
    317c:	0c460c08 	mcrreq	12, 0, r0, r6, cr8
    3180:	3a050000 	bcc	143188 <__bss_end__+0x1389c8>
    3184:	00000025 	andeq	r0, r0, r5, lsr #32
    3188:	09750c0c 	ldmdbeq	r5!, {r2, r3, sl, fp}^
    318c:	3b050000 	blcc	143194 <__bss_end__+0x1389d4>
    3190:	00000025 	andeq	r0, r0, r5, lsr #32
    3194:	094a0c10 	stmdbeq	sl, {r4, sl, fp}^
    3198:	3c050000 	stccc	0, cr0, [r5], {-0}
    319c:	00000025 	andeq	r0, r0, r5, lsr #32
    31a0:	0b5b0c14 	bleq	16c61f8 <__bss_end__+0x16bba38>
    31a4:	3d050000 	stccc	0, cr0, [r5, #-0]
    31a8:	00000025 	andeq	r0, r0, r5, lsr #32
    31ac:	09c70c18 	stmibeq	r7, {r3, r4, sl, fp}^
    31b0:	3e050000 	cdpcc	0, 0, cr0, cr5, cr0, {0}
    31b4:	00000025 	andeq	r0, r0, r5, lsr #32
    31b8:	0c0d0c1c 	stceq	12, cr0, [sp], {28}
    31bc:	3f050000 	svccc	0x00050000
    31c0:	00000025 	andeq	r0, r0, r5, lsr #32
    31c4:	ac120020 	ldcge	0, cr0, [r2], {32}
    31c8:	08000007 	stmdaeq	r0, {r0, r1, r2}
    31cc:	4b480501 	blmi	12045d8 <__bss_end__+0x11f9e18>
    31d0:	0c000002 	stceq	0, cr0, [r0], {2}
    31d4:	00000858 	andeq	r0, r0, r8, asr r8
    31d8:	024b4905 	subeq	r4, fp, #81920	; 0x14000
    31dc:	0c000000 	stceq	0, cr0, [r0], {-0}
    31e0:	000006f0 	strdeq	r0, [r0], -r0	; <UNPREDICTABLE>
    31e4:	024b4a05 	subeq	r4, fp, #20480	; 0x5000
    31e8:	13800000 	orrne	r0, r0, #0
    31ec:	00000b01 	andeq	r0, r0, r1, lsl #22
    31f0:	011e4c05 	tsteq	lr, r5, lsl #24
    31f4:	01000000 	mrseq	r0, (UNDEF: 0)
    31f8:	0007d113 	andeq	sp, r7, r3, lsl r1
    31fc:	1e4f0500 	cdpne	5, 4, cr0, cr15, cr0, {0}
    3200:	04000001 	streq	r0, [r0], #-1
    3204:	0a090001 	beq	243210 <__bss_end__+0x238a50>
    3208:	5b000001 	blpl	3214 <_start-0x4dec>
    320c:	0a000002 	beq	321c <_start-0x4de4>
    3210:	000000cc 	andeq	r0, r0, ip, asr #1
    3214:	7e12001f 	mrcvc	0, 0, r0, cr2, cr15, {0}
    3218:	90000009 	andls	r0, r0, r9
    321c:	995b0501 	ldmdbls	fp, {r0, r8, sl}^
    3220:	0c000002 	stceq	0, cr0, [r0], {2}
    3224:	00000a06 	andeq	r0, r0, r6, lsl #20
    3228:	02995c05 	addseq	r5, r9, #1280	; 0x500
    322c:	0c000000 	stceq	0, cr0, [r0], {-0}
    3230:	00000a1e 	andeq	r0, r0, lr, lsl sl
    3234:	00255d05 	eoreq	r5, r5, r5, lsl #26
    3238:	0c040000 	stceq	0, cr0, [r4], {-0}
    323c:	0000086c 	andeq	r0, r0, ip, ror #16
    3240:	029f5f05 	addseq	r5, pc, #5, 30
    3244:	0c080000 	stceq	0, cr0, [r8], {-0}
    3248:	000007ac 	andeq	r0, r0, ip, lsr #15
    324c:	020b6005 	andeq	r6, fp, #5
    3250:	00880000 	addeq	r0, r8, r0
    3254:	025b040e 	subseq	r0, fp, #234881024	; 0xe000000
    3258:	af090000 	svcge	0x00090000
    325c:	af000002 	svcge	0x00000002
    3260:	0a000002 	beq	3270 <_start-0x4d90>
    3264:	000000cc 	andeq	r0, r0, ip, asr #1
    3268:	040e001f 	streq	r0, [lr], #-31
    326c:	000002b5 			; <UNDEFINED> instruction: 0x000002b5
    3270:	09d11014 	ldmibeq	r1, {r2, r4, ip}^
    3274:	05080000 	streq	r0, [r8, #-0]
    3278:	0002db73 	andeq	sp, r2, r3, ror fp
    327c:	07920c00 	ldreq	r0, [r2, r0, lsl #24]
    3280:	74050000 	strvc	r0, [r5], #-0
    3284:	000002db 	ldrdeq	r0, [r0], -fp
    3288:	01b70c00 			; <UNDEFINED> instruction: 0x01b70c00
    328c:	75050000 	strvc	r0, [r5, #-0]
    3290:	00000025 	andeq	r0, r0, r5, lsr #32
    3294:	040e0004 	streq	r0, [lr], #-4
    3298:	00000054 	andeq	r0, r0, r4, asr r0
    329c:	0009f010 	andeq	pc, r9, r0, lsl r0	; <UNPREDICTABLE>
    32a0:	b3056800 	movwlt	r6, #22528	; 0x5800
    32a4:	0000040b 	andeq	r0, r0, fp, lsl #8
    32a8:	00705f11 	rsbseq	r5, r0, r1, lsl pc
    32ac:	02dbb405 	sbcseq	fp, fp, #83886080	; 0x5000000
    32b0:	11000000 	mrsne	r0, (UNDEF: 0)
    32b4:	0500725f 	streq	r7, [r0, #-607]	; 0x25f
    32b8:	000025b5 			; <UNDEFINED> instruction: 0x000025b5
    32bc:	5f110400 	svcpl	0x00110400
    32c0:	b6050077 			; <UNDEFINED> instruction: 0xb6050077
    32c4:	00000025 	andeq	r0, r0, r5, lsr #32
    32c8:	07ca0c08 	strbeq	r0, [sl, r8, lsl #24]
    32cc:	b7050000 	strlt	r0, [r5, -r0]
    32d0:	0000003f 	andeq	r0, r0, pc, lsr r0
    32d4:	08dd0c0c 	ldmeq	sp, {r2, r3, sl, fp}^
    32d8:	b8050000 	stmdalt	r5, {}	; <UNPREDICTABLE>
    32dc:	0000003f 	andeq	r0, r0, pc, lsr r0
    32e0:	625f110e 	subsvs	r1, pc, #-2147483645	; 0x80000003
    32e4:	b9050066 	stmdblt	r5, {r1, r2, r5, r6}
    32e8:	000002b6 			; <UNDEFINED> instruction: 0x000002b6
    32ec:	07390c10 			; <UNDEFINED> instruction: 0x07390c10
    32f0:	ba050000 	blt	1432f8 <__bss_end__+0x138b38>
    32f4:	00000025 	andeq	r0, r0, r5, lsr #32
    32f8:	07ba0c18 			; <UNDEFINED> instruction: 0x07ba0c18
    32fc:	c1050000 	mrsgt	r0, (UNDEF: 5)
    3300:	0000010a 	andeq	r0, r0, sl, lsl #2
    3304:	0c6d0c1c 	stcleq	12, cr0, [sp], #-112	; 0xffffff90
    3308:	c3050000 	movwgt	r0, #20480	; 0x5000
    330c:	00000566 	andeq	r0, r0, r6, ror #10
    3310:	0c870c20 	stceq	12, cr0, [r7], {32}
    3314:	c5050000 	strgt	r0, [r5, #-0]
    3318:	00000590 	muleq	r0, r0, r5
    331c:	0a620c24 	beq	18863b4 <__bss_end__+0x187bbf4>
    3320:	c8050000 	stmdagt	r5, {}	; <UNPREDICTABLE>
    3324:	000005b4 			; <UNDEFINED> instruction: 0x000005b4
    3328:	0c270c28 	stceq	12, cr0, [r7], #-160	; 0xffffff60
    332c:	c9050000 	stmdbgt	r5, {}	; <UNPREDICTABLE>
    3330:	000005ce 	andeq	r0, r0, lr, asr #11
    3334:	755f112c 	ldrbvc	r1, [pc, #-300]	; 3210 <_start-0x4df0>
    3338:	cc050062 	stcgt	0, cr0, [r5], {98}	; 0x62
    333c:	000002b6 			; <UNDEFINED> instruction: 0x000002b6
    3340:	755f1130 	ldrbvc	r1, [pc, #-304]	; 3218 <_start-0x4de8>
    3344:	cd050070 	stcgt	0, cr0, [r5, #-448]	; 0xfffffe40
    3348:	000002db 	ldrdeq	r0, [r0], -fp
    334c:	755f1138 	ldrbvc	r1, [pc, #-312]	; 321c <_start-0x4de4>
    3350:	ce050072 	mcrgt	0, 0, r0, cr5, cr2, {3}
    3354:	00000025 	andeq	r0, r0, r5, lsr #32
    3358:	077d0c3c 			; <UNDEFINED> instruction: 0x077d0c3c
    335c:	d1050000 	mrsle	r0, (UNDEF: 5)
    3360:	000005d4 	ldrdeq	r0, [r0], -r4
    3364:	0bd20c40 	bleq	ff48646c <__bss_end__+0xff47bcac>
    3368:	d2050000 	andle	r0, r5, #0
    336c:	000005e4 	andeq	r0, r0, r4, ror #11
    3370:	6c5f1143 	ldfvse	f1, [pc], {67}	; 0x43
    3374:	d5050062 	strle	r0, [r5, #-98]	; 0x62
    3378:	000002b6 			; <UNDEFINED> instruction: 0x000002b6
    337c:	07e00c44 	strbeq	r0, [r0, r4, asr #24]!
    3380:	d8050000 	stmdale	r5, {}	; <UNPREDICTABLE>
    3384:	00000025 	andeq	r0, r0, r5, lsr #32
    3388:	09540c4c 	ldmdbeq	r4, {r2, r3, r6, sl, fp}^
    338c:	d9050000 	stmdble	r5, {}	; <UNPREDICTABLE>
    3390:	0000007b 	andeq	r0, r0, fp, ror r0
    3394:	0bbd0c50 	bleq	fef464dc <__bss_end__+0xfef3bd1c>
    3398:	dc050000 	stcle	0, cr0, [r5], {-0}
    339c:	00000429 	andeq	r0, r0, r9, lsr #8
    33a0:	093c0c54 	ldmdbeq	ip!, {r2, r4, r6, sl, fp}
    33a4:	e0050000 	and	r0, r5, r0
    33a8:	000000ff 	strdeq	r0, [r0], -pc	; <UNPREDICTABLE>
    33ac:	09f80c58 	ldmibeq	r8!, {r3, r4, r6, sl, fp}^
    33b0:	e2050000 	and	r0, r5, #0
    33b4:	000000f4 	strdeq	r0, [r0], -r4
    33b8:	09420c5c 	stmdbeq	r2, {r2, r3, r4, r6, sl, fp}^
    33bc:	e3050000 	movw	r0, #20480	; 0x5000
    33c0:	00000025 	andeq	r0, r0, r5, lsr #32
    33c4:	25150064 	ldrcs	r0, [r5, #-100]	; 0x64
    33c8:	29000000 	stmdbcs	r0, {}	; <UNPREDICTABLE>
    33cc:	16000004 	strne	r0, [r0], -r4
    33d0:	00000429 	andeq	r0, r0, r9, lsr #8
    33d4:	00010a16 	andeq	r0, r1, r6, lsl sl
    33d8:	010c1600 	tsteq	ip, r0, lsl #12
    33dc:	25160000 	ldrcs	r0, [r6, #-0]
    33e0:	00000000 	andeq	r0, r0, r0
    33e4:	0434040e 	ldrteq	r0, [r4], #-1038	; 0x40e
    33e8:	290f0000 	stmdbcs	pc, {}	; <UNPREDICTABLE>
    33ec:	17000004 	strne	r0, [r0, -r4]
    33f0:	00000a45 	andeq	r0, r0, r5, asr #20
    33f4:	38050428 	stmdacc	r5, {r3, r5, sl}
    33f8:	00056602 	andeq	r6, r5, r2, lsl #12
    33fc:	09c01800 	stmibeq	r0, {fp, ip}^
    3400:	3a050000 	bcc	143408 <__bss_end__+0x138c48>
    3404:	00002502 	andeq	r2, r0, r2, lsl #10
    3408:	d9180000 	ldmdble	r8, {}	; <UNPREDICTABLE>
    340c:	05000007 	streq	r0, [r0, #-7]
    3410:	063b023f 			; <UNDEFINED> instruction: 0x063b023f
    3414:	18040000 	stmdane	r4, {}	; <UNPREDICTABLE>
    3418:	000008cd 	andeq	r0, r0, sp, asr #17
    341c:	3b023f05 	blcc	93038 <__bss_end__+0x88878>
    3420:	08000006 	stmdaeq	r0, {r1, r2}
    3424:	00088e18 	andeq	r8, r8, r8, lsl lr
    3428:	023f0500 	eorseq	r0, pc, #0, 10
    342c:	0000063b 	andeq	r0, r0, fp, lsr r6
    3430:	0a19180c 	beq	649468 <__bss_end__+0x63eca8>
    3434:	41050000 	mrsmi	r0, (UNDEF: 5)
    3438:	00002502 	andeq	r2, r0, r2, lsl #10
    343c:	04181000 	ldreq	r1, [r8], #-0
    3440:	05000007 	streq	r0, [r0, #-7]
    3444:	081d0242 	ldmdaeq	sp, {r1, r6, r9}
    3448:	18140000 	ldmdane	r4, {}	; <UNPREDICTABLE>
    344c:	00000b37 	andeq	r0, r0, r7, lsr fp
    3450:	25024405 	strcs	r4, [r2, #-1029]	; 0x405
    3454:	30000000 	andcc	r0, r0, r0
    3458:	000a2318 	andeq	r2, sl, r8, lsl r3
    345c:	02450500 	subeq	r0, r5, #0, 10
    3460:	0000058a 	andeq	r0, r0, sl, lsl #11
    3464:	09861834 	stmibeq	r6, {r2, r4, r5, fp, ip}
    3468:	47050000 	strmi	r0, [r5, -r0]
    346c:	00002502 	andeq	r2, r0, r2, lsl #10
    3470:	33183800 	tstcc	r8, #0, 16
    3474:	0500000a 	streq	r0, [r0, #-10]
    3478:	08380249 	ldmdaeq	r8!, {r0, r3, r6, r9}
    347c:	183c0000 	ldmdane	ip!, {}	; <UNPREDICTABLE>
    3480:	00000918 	andeq	r0, r0, r8, lsl r9
    3484:	7c024c05 	stcvc	12, cr4, [r2], {5}
    3488:	40000001 	andmi	r0, r0, r1
    348c:	0008ad18 	andeq	sl, r8, r8, lsl sp
    3490:	024d0500 	subeq	r0, sp, #0, 10
    3494:	00000025 	andeq	r0, r0, r5, lsr #32
    3498:	0c411844 	mcrreq	8, 4, r1, r1, cr4
    349c:	4e050000 	cdpmi	0, 0, cr0, cr5, cr0, {0}
    34a0:	00017c02 	andeq	r7, r1, r2, lsl #24
    34a4:	9d184800 	ldcls	8, cr4, [r8, #-0]
    34a8:	05000009 	streq	r0, [r0, #-9]
    34ac:	083e024f 	ldmdaeq	lr!, {r0, r1, r2, r3, r6, r9}
    34b0:	184c0000 	stmdane	ip, {}^	; <UNPREDICTABLE>
    34b4:	000008d5 	ldrdeq	r0, [r0], -r5
    34b8:	25025205 	strcs	r5, [r2, #-517]	; 0x205
    34bc:	50000000 	andpl	r0, r0, r0
    34c0:	0007fc18 	andeq	pc, r7, r8, lsl ip	; <UNPREDICTABLE>
    34c4:	02530500 	subseq	r0, r3, #0, 10
    34c8:	0000010c 	andeq	r0, r0, ip, lsl #2
    34cc:	09b91854 	ldmibeq	r9!, {r2, r4, r6, fp, ip}
    34d0:	76050000 	strvc	r0, [r5], -r0
    34d4:	0007fb02 	andeq	pc, r7, r2, lsl #22
    34d8:	7e195800 	cdpvc	8, 1, cr5, cr9, cr0, {0}
    34dc:	05000009 	streq	r0, [r0, #-9]
    34e0:	0299027a 	addseq	r0, r9, #-1610612729	; 0xa0000007
    34e4:	01480000 	mrseq	r0, (UNDEF: 72)
    34e8:	0008ea19 	andeq	lr, r8, r9, lsl sl
    34ec:	027b0500 	rsbseq	r0, fp, #0, 10
    34f0:	0000025b 	andeq	r0, r0, fp, asr r2
    34f4:	a319014c 	tstge	r9, #76, 2
    34f8:	0500000b 	streq	r0, [r0, #-11]
    34fc:	084f027f 	stmdaeq	pc, {r0, r1, r2, r3, r4, r5, r6, r9}^	; <UNPREDICTABLE>
    3500:	02dc0000 	sbcseq	r0, ip, #0
    3504:	0007c219 	andeq	ip, r7, r9, lsl r2
    3508:	02840500 	addeq	r0, r4, #0, 10
    350c:	00000600 	andeq	r0, r0, r0, lsl #12
    3510:	a71902e0 	ldrge	r0, [r9, -r0, ror #5]
    3514:	05000007 	streq	r0, [r0, #-7]
    3518:	085b0285 	ldmdaeq	fp, {r0, r2, r7, r9}^
    351c:	02ec0000 	rsceq	r0, ip, #0
    3520:	0b040e00 	bleq	106d28 <__bss_end__+0xfc568>
    3524:	15000004 	strne	r0, [r0, #-4]
    3528:	00000025 	andeq	r0, r0, r5, lsr #32
    352c:	0000058a 	andeq	r0, r0, sl, lsl #11
    3530:	00042916 	andeq	r2, r4, r6, lsl r9
    3534:	010a1600 	tsteq	sl, r0, lsl #12
    3538:	8a160000 	bhi	583540 <__bss_end__+0x578d80>
    353c:	16000005 	strne	r0, [r0], -r5
    3540:	00000025 	andeq	r0, r0, r5, lsr #32
    3544:	19040e00 	stmdbne	r4, {r9, sl, fp}
    3548:	0e000001 	cdpeq	0, 0, cr0, cr0, cr1, {0}
    354c:	00056c04 	andeq	r6, r5, r4, lsl #24
    3550:	00861500 	addeq	r1, r6, r0, lsl #10
    3554:	05b40000 	ldreq	r0, [r4, #0]!
    3558:	29160000 	ldmdbcs	r6, {}	; <UNPREDICTABLE>
    355c:	16000004 	strne	r0, [r0], -r4
    3560:	0000010a 	andeq	r0, r0, sl, lsl #2
    3564:	00008616 	andeq	r8, r0, r6, lsl r6
    3568:	00251600 	eoreq	r1, r5, r0, lsl #12
    356c:	0e000000 	cdpeq	0, 0, cr0, cr0, cr0, {0}
    3570:	00059604 	andeq	r9, r5, r4, lsl #12
    3574:	00251500 	eoreq	r1, r5, r0, lsl #10
    3578:	05ce0000 	strbeq	r0, [lr]
    357c:	29160000 	ldmdbcs	r6, {}	; <UNPREDICTABLE>
    3580:	16000004 	strne	r0, [r0], -r4
    3584:	0000010a 	andeq	r0, r0, sl, lsl #2
    3588:	ba040e00 	blt	106d90 <__bss_end__+0xfc5d0>
    358c:	09000005 	stmdbeq	r0, {r0, r2}
    3590:	00000054 	andeq	r0, r0, r4, asr r0
    3594:	000005e4 	andeq	r0, r0, r4, ror #11
    3598:	0000cc0a 	andeq	ip, r0, sl, lsl #24
    359c:	09000200 	stmdbeq	r0, {r9}
    35a0:	00000054 	andeq	r0, r0, r4, asr r0
    35a4:	000005f4 	strdeq	r0, [r0], -r4
    35a8:	0000cc0a 	andeq	ip, r0, sl, lsl #24
    35ac:	06000000 	streq	r0, [r0], -r0
    35b0:	000009de 	ldrdeq	r0, [r0], -lr
    35b4:	e1011d05 	tst	r1, r5, lsl #26
    35b8:	1a000002 	bne	35c8 <_start-0x4a38>
    35bc:	00000b65 	andeq	r0, r0, r5, ror #22
    35c0:	0121050c 	teqeq	r1, ip, lsl #10
    35c4:	00000635 	andeq	r0, r0, r5, lsr r6
    35c8:	000a0618 	andeq	r0, sl, r8, lsl r6
    35cc:	01230500 	teqeq	r3, r0, lsl #10
    35d0:	00000635 	andeq	r0, r0, r5, lsr r6
    35d4:	08e31800 	stmiaeq	r3!, {fp, ip}^
    35d8:	24050000 	strcs	r0, [r5], #-0
    35dc:	00002501 	andeq	r2, r0, r1, lsl #10
    35e0:	d8180400 	ldmdale	r8, {sl}
    35e4:	05000009 	streq	r0, [r0, #-9]
    35e8:	063b0125 	ldrteq	r0, [fp], -r5, lsr #2
    35ec:	00080000 	andeq	r0, r8, r0
    35f0:	0600040e 	streq	r0, [r0], -lr, lsl #8
    35f4:	040e0000 	streq	r0, [lr], #-0
    35f8:	000005f4 	strdeq	r0, [r0], -r4
    35fc:	0006fc1a 	andeq	pc, r6, sl, lsl ip	; <UNPREDICTABLE>
    3600:	3d050e00 	stccc	14, cr0, [r5, #-0]
    3604:	00067601 	andeq	r7, r6, r1, lsl #12
    3608:	0a4c1800 	beq	1309610 <__bss_end__+0x12fee50>
    360c:	3e050000 	cdpcc	0, 0, cr0, cr5, cr0, {0}
    3610:	00067601 	andeq	r7, r6, r1, lsl #12
    3614:	86180000 	ldrhi	r0, [r8], -r0
    3618:	0500000a 	streq	r0, [r0, #-10]
    361c:	0676013f 			; <UNDEFINED> instruction: 0x0676013f
    3620:	18060000 	stmdane	r6, {}	; <UNPREDICTABLE>
    3624:	00000b0a 	andeq	r0, r0, sl, lsl #22
    3628:	5b014005 	blpl	53644 <__bss_end__+0x48e84>
    362c:	0c000000 	stceq	0, cr0, [r0], {-0}
    3630:	005b0900 	subseq	r0, fp, r0, lsl #18
    3634:	06860000 	streq	r0, [r6], r0
    3638:	cc0a0000 	stcgt	0, cr0, [sl], {-0}
    363c:	02000000 	andeq	r0, r0, #0
    3640:	05d01b00 	ldrbeq	r1, [r0, #2816]	; 0xb00
    3644:	07870257 			; <UNDEFINED> instruction: 0x07870257
    3648:	49180000 	ldmdbmi	r8, {}	; <UNPREDICTABLE>
    364c:	0500000b 	streq	r0, [r0, #-11]
    3650:	002c0259 	eoreq	r0, ip, r9, asr r2
    3654:	18000000 	stmdane	r0, {}	; <UNPREDICTABLE>
    3658:	00000af4 	strdeq	r0, [r0], -r4
    365c:	0c025a05 	stceq	10, cr5, [r2], {5}
    3660:	04000001 	streq	r0, [r0], #-1
    3664:	0008ff18 	andeq	pc, r8, r8, lsl pc	; <UNPREDICTABLE>
    3668:	025b0500 	subseq	r0, fp, #0, 10
    366c:	00000787 	andeq	r0, r0, r7, lsl #15
    3670:	0c181808 	ldceq	8, cr1, [r8], {8}
    3674:	5c050000 	stcpl	0, cr0, [r5], {-0}
    3678:	00019202 	andeq	r9, r1, r2, lsl #4
    367c:	9e182400 	cfmulsls	mvf2, mvf8, mvf0
    3680:	05000008 	streq	r0, [r0, #-8]
    3684:	0025025d 	eoreq	r0, r5, sp, asr r2
    3688:	18480000 	stmdane	r8, {}^	; <UNPREDICTABLE>
    368c:	00000a01 	andeq	r0, r0, r1, lsl #20
    3690:	69025e05 	stmdbvs	r2, {r0, r2, r9, sl, fp, ip, lr}
    3694:	50000000 	andpl	r0, r0, r0
    3698:	000c2e18 	andeq	r2, ip, r8, lsl lr
    369c:	025f0500 	subseq	r0, pc, #0, 10
    36a0:	00000641 	andeq	r0, r0, r1, asr #12
    36a4:	0a0c1858 	beq	30980c <__bss_end__+0x2ff04c>
    36a8:	60050000 	andvs	r0, r5, r0
    36ac:	0000f402 	andeq	pc, r0, r2, lsl #8
    36b0:	33186800 	tstcc	r8, #0, 16
    36b4:	0500000c 	streq	r0, [r0, #-12]
    36b8:	00f40261 	rscseq	r0, r4, r1, ror #4
    36bc:	18700000 	ldmdane	r0!, {}^	; <UNPREDICTABLE>
    36c0:	00000761 	andeq	r0, r0, r1, ror #14
    36c4:	f4026205 	vst1.8	{d6-d9}, [r2], r5
    36c8:	78000000 	stmdavc	r0, {}	; <UNPREDICTABLE>
    36cc:	000b8518 	andeq	r8, fp, r8, lsl r5
    36d0:	02630500 	rsbeq	r0, r3, #0, 10
    36d4:	00000797 	muleq	r0, r7, r7
    36d8:	08f31880 	ldmeq	r3!, {r7, fp, ip}^
    36dc:	64050000 	strvs	r0, [r5], #-0
    36e0:	0007a702 	andeq	sl, r7, r2, lsl #14
    36e4:	17188800 	ldrne	r8, [r8, -r0, lsl #16]
    36e8:	0500000b 	streq	r0, [r0, #-11]
    36ec:	00250265 	eoreq	r0, r5, r5, ror #4
    36f0:	18a00000 	stmiane	r0!, {}	; <UNPREDICTABLE>
    36f4:	0000084a 	andeq	r0, r0, sl, asr #16
    36f8:	f4026605 	vst1.8	{d6-d8}, [r2], r5
    36fc:	a4000000 	strge	r0, [r0], #-0
    3700:	00075218 	andeq	r5, r7, r8, lsl r2
    3704:	02670500 	rsbeq	r0, r7, #0, 10
    3708:	000000f4 	strdeq	r0, [r0], -r4
    370c:	083918ac 	ldmdaeq	r9!, {r2, r3, r5, r7, fp, ip}
    3710:	68050000 	stmdavs	r5, {}	; <UNPREDICTABLE>
    3714:	0000f402 	andeq	pc, r0, r2, lsl #8
    3718:	1918b400 	ldmdbne	r8, {sl, ip, sp, pc}
    371c:	05000007 	streq	r0, [r0, #-7]
    3720:	00f40269 	rscseq	r0, r4, r9, ror #4
    3724:	18bc0000 	ldmne	ip!, {}	; <UNPREDICTABLE>
    3728:	00000728 	andeq	r0, r0, r8, lsr #14
    372c:	f4026a05 	vst1.8	{d6-d7}, [r2], r5
    3730:	c4000000 	strgt	r0, [r0], #-0
    3734:	0009be18 	andeq	fp, r9, r8, lsl lr
    3738:	026b0500 	rsbeq	r0, fp, #0, 10
    373c:	00000025 	andeq	r0, r0, r5, lsr #32
    3740:	120900cc 	andne	r0, r9, #204	; 0xcc
    3744:	97000001 	strls	r0, [r0, -r1]
    3748:	0a000007 	beq	376c <_start-0x4894>
    374c:	000000cc 	andeq	r0, r0, ip, asr #1
    3750:	12090019 	andne	r0, r9, #25
    3754:	a7000001 	strge	r0, [r0, -r1]
    3758:	0a000007 	beq	377c <_start-0x4884>
    375c:	000000cc 	andeq	r0, r0, ip, asr #1
    3760:	12090007 	andne	r0, r9, #7
    3764:	b7000001 	strlt	r0, [r0, -r1]
    3768:	0a000007 	beq	378c <_start-0x4874>
    376c:	000000cc 	andeq	r0, r0, ip, asr #1
    3770:	f01b0017 			; <UNDEFINED> instruction: 0xf01b0017
    3774:	db027005 	blle	9f790 <__bss_end__+0x94fd0>
    3778:	18000007 	stmdane	r0, {r0, r1, r2}
    377c:	0000096e 	andeq	r0, r0, lr, ror #18
    3780:	db027305 	blle	a039c <__bss_end__+0x95bdc>
    3784:	00000007 	andeq	r0, r0, r7
    3788:	000b7c18 	andeq	r7, fp, r8, lsl ip
    378c:	02740500 	rsbseq	r0, r4, #0, 10
    3790:	000007eb 	andeq	r0, r0, fp, ror #15
    3794:	db090078 	blle	24397c <__bss_end__+0x2391bc>
    3798:	eb000002 	bl	37a8 <_start-0x4858>
    379c:	0a000007 	beq	37c0 <_start-0x4840>
    37a0:	000000cc 	andeq	r0, r0, ip, asr #1
    37a4:	2c09001d 	stccs	0, cr0, [r9], {29}
    37a8:	fb000000 	blx	37b2 <_start-0x484e>
    37ac:	0a000007 	beq	37d0 <_start-0x4830>
    37b0:	000000cc 	andeq	r0, r0, ip, asr #1
    37b4:	f01c001d 			; <UNDEFINED> instruction: 0xf01c001d
    37b8:	1d025505 	cfstr32ne	mvfx5, [r2, #-20]	; 0xffffffec
    37bc:	1d000008 	stcne	0, cr0, [r0, #-32]	; 0xffffffe0
    37c0:	00000a45 	andeq	r0, r0, r5, asr #20
    37c4:	86026c05 	strhi	r6, [r2], -r5, lsl #24
    37c8:	1d000006 	stcne	0, cr0, [r0, #-24]	; 0xffffffe8
    37cc:	00000bd8 	ldrdeq	r0, [r0], -r8
    37d0:	b7027505 	strlt	r7, [r2, -r5, lsl #10]
    37d4:	00000007 	andeq	r0, r0, r7
    37d8:	00011209 	andeq	r1, r1, r9, lsl #4
    37dc:	00082d00 	andeq	r2, r8, r0, lsl #26
    37e0:	00cc0a00 	sbceq	r0, ip, r0, lsl #20
    37e4:	00180000 	andseq	r0, r8, r0
    37e8:	0008381e 	andeq	r3, r8, lr, lsl r8
    37ec:	04291600 	strteq	r1, [r9], #-1536	; 0x600
    37f0:	0e000000 	cdpeq	0, 0, cr0, cr0, cr0, {0}
    37f4:	00082d04 	andeq	r2, r8, r4, lsl #26
    37f8:	7c040e00 	stcvc	14, cr0, [r4], {-0}
    37fc:	1e000001 	cdpne	0, 0, cr0, cr0, cr1, {0}
    3800:	0000084f 	andeq	r0, r0, pc, asr #16
    3804:	00002516 	andeq	r2, r0, r6, lsl r5
    3808:	040e0000 	streq	r0, [lr], #-0
    380c:	00000855 	andeq	r0, r0, r5, asr r8
    3810:	0844040e 	stmdaeq	r4, {r1, r2, r3, sl}^
    3814:	f4090000 	vst4.8	{d0-d3}, [r9], r0
    3818:	6b000005 	blvs	3834 <_start-0x47cc>
    381c:	0a000008 	beq	3844 <_start-0x47bc>
    3820:	000000cc 	andeq	r0, r0, ip, asr #1
    3824:	2b1f0002 	blcs	7c3834 <__bss_end__+0x7b9074>
    3828:	0500000b 	streq	r0, [r0, #-11]
    382c:	042902fd 	strteq	r0, [r9], #-765	; 0x2fd
    3830:	241f0000 	ldrcs	r0, [pc], #-0	; 3838 <_start-0x47c8>
    3834:	0500000b 	streq	r0, [r0, #-11]
    3838:	042f02fe 	strteq	r0, [pc], #-766	; 3840 <_start-0x47c0>
    383c:	25150000 	ldrcs	r0, [r5, #-0]
    3840:	92000000 	andls	r0, r0, #0
    3844:	16000008 	strne	r0, [r0], -r8
    3848:	00000025 	andeq	r0, r0, r5, lsr #32
    384c:	05342000 	ldreq	r2, [r4, #-0]!
    3850:	1d060000 	stcne	0, cr0, [r6, #-0]
    3854:	0000089d 	muleq	r0, sp, r8
    3858:	0883040e 	stmeq	r3, {r1, r2, r3, sl}
    385c:	25150000 	ldrcs	r0, [r5, #-0]
    3860:	b2000000 	andlt	r0, r0, #0
    3864:	16000008 	strne	r0, [r0], -r8
    3868:	0000058a 	andeq	r0, r0, sl, lsl #11
    386c:	05712000 	ldrbeq	r2, [r1, #-0]!
    3870:	22060000 	andcs	r0, r6, #0
    3874:	000008bd 			; <UNDEFINED> instruction: 0x000008bd
    3878:	08a3040e 	stmiaeq	r3!, {r1, r2, r3, sl}
    387c:	01210000 	teqeq	r1, r0
    3880:	00000054 	andeq	r0, r0, r4, asr r0
    3884:	09000c08 	stmdbeq	r0, {r3, sl, fp}
    3888:	42220000 	eormi	r0, r2, #0
    388c:	00000007 	andeq	r0, r0, r7
    3890:	000b6b22 	andeq	r6, fp, r2, lsr #22
    3894:	c3220100 	teqgt	r2, #0, 2
    3898:	0400000b 	streq	r0, [r0], #-11
    389c:	00078322 	andeq	r8, r7, r2, lsr #6
    38a0:	26220500 	strtcs	r0, [r2], -r0, lsl #10
    38a4:	06000009 	streq	r0, [r0], -r9
    38a8:	000be022 	andeq	lr, fp, r2, lsr #32
    38ac:	ef220700 	svc	0x00220700
    38b0:	0300000b 	movweq	r0, #11
    38b4:	000bfe22 	andeq	pc, fp, r2, lsr #28
    38b8:	10000200 	andne	r0, r0, r0, lsl #4
    38bc:	000007f0 	strdeq	r0, [r0], -r0	; <UNPREDICTABLE>
    38c0:	9006072c 	andls	r0, r6, ip, lsr #14
    38c4:	11000009 	tstne	r0, r9
    38c8:	07006f69 	streq	r6, [r0, -r9, ror #30]
    38cc:	00003309 	andeq	r3, r0, r9, lsl #6
    38d0:	69110000 	ldmdbvs	r1, {}	; <UNPREDICTABLE>
    38d4:	07007265 	streq	r7, [r0, -r5, ror #4]
    38d8:	0000330a 	andeq	r3, r0, sl, lsl #6
    38dc:	69110400 	ldmdbvs	r1, {sl}
    38e0:	07007269 	streq	r7, [r0, -r9, ror #4]
    38e4:	00003311 	andeq	r3, r0, r1, lsl r3
    38e8:	6c110800 	ldcvs	8, cr0, [r1], {-0}
    38ec:	07007263 	streq	r7, [r0, -r3, ror #4]
    38f0:	00003313 	andeq	r3, r0, r3, lsl r3
    38f4:	6d110c00 	ldcvs	12, cr0, [r1, #-0]
    38f8:	07007263 	streq	r7, [r0, -r3, ror #4]
    38fc:	00003314 	andeq	r3, r0, r4, lsl r3
    3900:	6c111000 	ldcvs	0, cr1, [r1], {-0}
    3904:	07007273 	smlsdxeq	r0, r3, r2, r7
    3908:	00003315 	andeq	r3, r0, r5, lsl r3
    390c:	6d111400 	cfldrsvs	mvf1, [r1, #-0]
    3910:	07007273 	smlsdxeq	r0, r3, r2, r7
    3914:	00003316 	andeq	r3, r0, r6, lsl r3
    3918:	7e0c1800 	cdpvc	8, 0, cr1, cr12, cr0, {0}
    391c:	0700000a 	streq	r0, [r0, -sl]
    3920:	00003317 	andeq	r3, r0, r7, lsl r3
    3924:	980c1c00 	stmdals	ip, {sl, fp, ip}
    3928:	07000007 	streq	r0, [r0, -r7]
    392c:	0000331b 	andeq	r3, r0, fp, lsl r3
    3930:	780c2000 	stmdavc	ip, {sp}
    3934:	07000007 	streq	r0, [r0, -r7]
    3938:	0000331d 	andeq	r3, r0, sp, lsl r3
    393c:	680c2400 	stmdavs	ip, {sl, sp}
    3940:	0700000a 	streq	r0, [r0, -sl]
    3944:	0000331e 	andeq	r3, r0, lr, lsl r3
    3948:	23002800 	movwcs	r2, #2048	; 0x800
    394c:	00000860 	andeq	r0, r0, r0, ror #16
    3950:	09a50701 	stmibeq	r5!, {r0, r8, r9, sl}
    3954:	50040000 	andpl	r0, r4, r0
    3958:	040e2021 	streq	r2, [lr], #-33	; 0x21
    395c:	00000033 	andeq	r0, r0, r3, lsr r0
    3960:	00099f0f 	andeq	r9, r9, pc, lsl #30
    3964:	09982300 	ldmibeq	r8, {r8, r9, sp}
    3968:	28010000 	stmdacs	r1, {}	; <UNPREDICTABLE>
    396c:	000009bf 			; <UNDEFINED> instruction: 0x000009bf
    3970:	20215040 	eorcs	r5, r1, r0, asr #32
    3974:	0900040e 	stmdbeq	r0, {r1, r2, r3, sl}
    3978:	b90f0000 	stmdblt	pc, {}	; <UNPREDICTABLE>
    397c:	24000009 	strcs	r0, [r0], #-9
    3980:	00000bb5 			; <UNDEFINED> instruction: 0x00000bb5
    3984:	0025a701 	eoreq	sl, r5, r1, lsl #14
    3988:	97240000 	strls	r0, [r4, -r0]!
    398c:	00100000 	andseq	r0, r0, r0
    3990:	9c010000 	stcls	0, cr0, [r1], {-0}
    3994:	000009f0 	strdeq	r0, [r0], -r0	; <UNPREDICTABLE>
    3998:	00972c25 	addseq	r2, r7, r5, lsr #24
    399c:	000c9c00 	andeq	r9, ip, r0, lsl #24
    39a0:	97302500 	ldrls	r2, [r0, -r0, lsl #10]!
    39a4:	0ad20000 	beq	ff4839ac <__bss_end__+0xff4791ec>
    39a8:	26000000 	strcs	r0, [r0], -r0
    39ac:	00000519 	andeq	r0, r0, r9, lsl r5
    39b0:	96f49f01 	ldrbtls	r9, [r4], r1, lsl #30
    39b4:	00300000 	eorseq	r0, r0, r0
    39b8:	9c010000 	stcls	0, cr0, [r1], {-0}
    39bc:	00000a4e 	andeq	r0, r0, lr, asr #20
    39c0:	01006327 	tsteq	r0, r7, lsr #6
    39c4:	00002c9f 	muleq	r0, pc, ip	; <UNPREDICTABLE>
    39c8:	00136000 	andseq	r6, r3, r0
    39cc:	97002500 	strls	r2, [r0, -r0, lsl #10]
    39d0:	0c9c0000 	ldceq	0, cr0, [ip], {0}
    39d4:	04250000 	strteq	r0, [r5], #-0
    39d8:	a5000097 	strge	r0, [r0, #-151]	; 0x97
    39dc:	2800000a 	stmdacs	r0, {r1, r3}
    39e0:	00009718 	andeq	r9, r0, r8, lsl r7
    39e4:	00000ca7 	andeq	r0, r0, r7, lsr #25
    39e8:	00000a44 	andeq	r0, r0, r4, asr #20
    39ec:	05500129 	ldrbeq	r0, [r0, #-297]	; 0x129
    39f0:	2150400c 	cmpcs	r0, ip
    39f4:	51012920 	tstpl	r1, r0, lsr #18
    39f8:	08007405 	stmdaeq	r0, {r0, r2, sl, ip, sp, lr}
    39fc:	25001aff 	strcs	r1, [r0, #-2815]	; 0xaff
    3a00:	0000971c 	andeq	r9, r0, ip, lsl r7
    3a04:	00000c9c 	muleq	r0, ip, ip
    3a08:	08c32400 	stmiaeq	r3, {sl, sp}^
    3a0c:	97010000 	strls	r0, [r1, -r0]
    3a10:	00000025 	andeq	r0, r0, r5, lsr #32
    3a14:	000096c4 	andeq	r9, r0, r4, asr #13
    3a18:	00000030 	andeq	r0, r0, r0, lsr r0
    3a1c:	0aa59c01 	beq	fe96aa28 <__bss_end__+0xfe960268>
    3a20:	632a0000 	teqvs	sl, #0
    3a24:	259b0100 	ldrcs	r0, [fp, #256]	; 0x100
    3a28:	01000000 	mrseq	r0, (UNDEF: 0)
    3a2c:	96cc2554 			; <UNDEFINED> instruction: 0x96cc2554
    3a30:	0c9c0000 	ldceq	0, cr0, [ip], {0}
    3a34:	d0250000 	eorle	r0, r5, r0
    3a38:	d2000096 	andle	r0, r0, #150	; 0x96
    3a3c:	2800000a 	stmdacs	r0, {r1, r3}
    3a40:	000096e0 	andeq	r9, r0, r0, ror #13
    3a44:	00000cb2 			; <UNDEFINED> instruction: 0x00000cb2
    3a48:	00000a9b 	muleq	r0, fp, sl
    3a4c:	05500129 	ldrbeq	r0, [r0, #-297]	; 0x129
    3a50:	2150400c 	cmpcs	r0, ip
    3a54:	e8250020 	stmda	r5!, {r5}
    3a58:	9c000096 	stcls	0, cr0, [r0], {150}	; 0x96
    3a5c:	0000000c 	andeq	r0, r0, ip
    3a60:	00087724 	andeq	r7, r8, r4, lsr #14
    3a64:	25880100 	strcs	r0, [r8, #256]	; 0x100
    3a68:	a4000000 	strge	r0, [r0], #-0
    3a6c:	20000096 	mulcs	r0, r6, r0
    3a70:	01000000 	mrseq	r0, (UNDEF: 0)
    3a74:	000ad29c 	muleq	sl, ip, r2
    3a78:	96b02b00 	ldrtls	r2, [r0], r0, lsl #22
    3a7c:	0cb20000 	ldceq	0, cr0, [r2]
    3a80:	01290000 	teqeq	r9, r0
    3a84:	640c0550 	strvs	r0, [ip], #-1360	; 0x550
    3a88:	00202150 	eoreq	r2, r0, r0, asr r1
    3a8c:	0b952400 	bleq	fe54ca94 <__bss_end__+0xfe5422d4>
    3a90:	7f010000 	svcvc	0x00010000
    3a94:	00000025 	andeq	r0, r0, r5, lsr #32
    3a98:	0000968c 	andeq	r9, r0, ip, lsl #13
    3a9c:	00000018 	andeq	r0, r0, r8, lsl r0
    3aa0:	0aff9c01 	beq	fffeaaac <__bss_end__+0xfffe02ec>
    3aa4:	982b0000 	stmdals	fp!, {}	; <UNPREDICTABLE>
    3aa8:	b2000096 	andlt	r0, r0, #150	; 0x96
    3aac:	2900000c 	stmdbcs	r0, {r2, r3}
    3ab0:	0c055001 	stceq	0, cr5, [r5], {1}
    3ab4:	20215064 	eorcs	r5, r1, r4, rrx
    3ab8:	0f260000 	svceq	0x00260000
    3abc:	01000007 	tsteq	r0, r7
    3ac0:	0095dc3a 	addseq	sp, r5, sl, lsr ip
    3ac4:	0000b000 	andeq	fp, r0, r0
    3ac8:	3d9c0100 	ldfccs	f0, [ip]
    3acc:	2800000c 	stmdacs	r0, {r2, r3}
    3ad0:	000095ec 	andeq	r9, r0, ip, ror #11
    3ad4:	00000cbd 			; <UNDEFINED> instruction: 0x00000cbd
    3ad8:	00000b2c 	andeq	r0, r0, ip, lsr #22
    3adc:	01500129 	cmpeq	r0, r9, lsr #2
    3ae0:	5101293e 	tstpl	r1, lr, lsr r9
    3ae4:	28003201 	stmdacs	r0, {r0, r9, ip, sp}
    3ae8:	000095f8 	strdeq	r9, [r0], -r8
    3aec:	00000cbd 			; <UNDEFINED> instruction: 0x00000cbd
    3af0:	00000b44 	andeq	r0, r0, r4, asr #22
    3af4:	01500129 	cmpeq	r0, r9, lsr #2
    3af8:	5101293f 	tstpl	r1, pc, lsr r9
    3afc:	25003201 	strcs	r3, [r0, #-513]	; 0x201
    3b00:	000095fc 	strdeq	r9, [r0], -ip
    3b04:	00000c9c 	muleq	r0, ip, ip
    3b08:	00960828 	addseq	r0, r6, r8, lsr #16
    3b0c:	000c3d00 	andeq	r3, ip, r0, lsl #26
    3b10:	000b6900 	andeq	r6, fp, r0, lsl #18
    3b14:	50012900 	andpl	r2, r1, r0, lsl #18
    3b18:	50040c05 	andpl	r0, r4, r5, lsl #24
    3b1c:	01292021 	teqeq	r9, r1, lsr #32
    3b20:	00310151 	eorseq	r0, r1, r1, asr r1
    3b24:	00960c25 	addseq	r0, r6, r5, lsr #24
    3b28:	000c9c00 	andeq	r9, ip, r0, lsl #24
    3b2c:	961c2800 	ldrls	r2, [ip], -r0, lsl #16
    3b30:	0ca70000 	stceq	0, cr0, [r7]
    3b34:	0b8b0000 	bleq	fe2c3b3c <__bss_end__+0xfe2b937c>
    3b38:	01290000 	teqeq	r9, r0
    3b3c:	00740250 	rsbseq	r0, r4, r0, asr r2
    3b40:	01510129 	cmpeq	r1, r9, lsr #2
    3b44:	28280030 	stmdacs	r8!, {r4, r5}
    3b48:	a7000096 			; <UNDEFINED> instruction: 0xa7000096
    3b4c:	a700000c 	strge	r0, [r0, -ip]
    3b50:	2900000b 	stmdbcs	r0, {r0, r1, r3}
    3b54:	0c055001 	stceq	0, cr5, [r5], {1}
    3b58:	20215044 	eorcs	r5, r1, r4, asr #32
    3b5c:	01510129 	cmpeq	r1, r9, lsr #2
    3b60:	34280030 	strtcc	r0, [r8], #-48	; 0x30
    3b64:	a7000096 			; <UNDEFINED> instruction: 0xa7000096
    3b68:	c300000c 	movwgt	r0, #12
    3b6c:	2900000b 	stmdbcs	r0, {r0, r1, r3}
    3b70:	0c055001 	stceq	0, cr5, [r5], {1}
    3b74:	2021504c 	eorcs	r5, r1, ip, asr #32
    3b78:	01510129 	cmpeq	r1, r9, lsr #2
    3b7c:	40280033 	eormi	r0, r8, r3, lsr r0
    3b80:	a7000096 			; <UNDEFINED> instruction: 0xa7000096
    3b84:	df00000c 	svcle	0x0000000c
    3b88:	2900000b 	stmdbcs	r0, {r0, r1, r3}
    3b8c:	0c055001 	stceq	0, cr5, [r5], {1}
    3b90:	20215050 	eorcs	r5, r1, r0, asr r0
    3b94:	01510129 	cmpeq	r1, r9, lsr #2
    3b98:	4c280030 	stcmi	0, cr0, [r8], #-192	; 0xffffff40
    3b9c:	a7000096 			; <UNDEFINED> instruction: 0xa7000096
    3ba0:	fc00000c 	stc2	0, cr0, [r0], {12}
    3ba4:	2900000b 	stmdbcs	r0, {r0, r1, r3}
    3ba8:	0c055001 	stceq	0, cr5, [r5], {1}
    3bac:	20215048 	eorcs	r5, r1, r8, asr #32
    3bb0:	02510129 	subseq	r0, r1, #1073741834	; 0x4000000a
    3bb4:	2800c708 	stmdacs	r0, {r3, r8, r9, sl, lr, pc}
    3bb8:	00009658 	andeq	r9, r0, r8, asr r6
    3bbc:	00000ca7 	andeq	r0, r0, r7, lsr #25
    3bc0:	00000c1a 	andeq	r0, r0, sl, lsl ip
    3bc4:	05500129 	ldrbeq	r0, [r0, #-297]	; 0x129
    3bc8:	2150680c 	cmpcs	r0, ip, lsl #16
    3bcc:	51012920 	tstpl	r1, r0, lsr #18
    3bd0:	010e0a03 	tsteq	lr, r3, lsl #20
    3bd4:	96642800 	strbtls	r2, [r4], -r0, lsl #16
    3bd8:	0ca70000 	stceq	0, cr0, [r7]
    3bdc:	0c330000 	ldceq	0, cr0, [r3], #-0
    3be0:	01290000 	teqeq	r9, r0
    3be4:	00740250 	rsbseq	r0, r4, r0, asr r2
    3be8:	01510129 	cmpeq	r1, r9, lsr #2
    3bec:	68250033 	stmdavs	r5!, {r0, r1, r4, r5}
    3bf0:	9c000096 	stcls	0, cr0, [r0], {150}	; 0x96
    3bf4:	0000000c 	andeq	r0, r0, ip
    3bf8:	000bad2c 	andeq	sl, fp, ip, lsr #26
    3bfc:	bc2d0100 	stflts	f0, [sp], #-0
    3c00:	20000095 	mulcs	r0, r5, r0
    3c04:	01000000 	mrseq	r0, (UNDEF: 0)
    3c08:	000c959c 	muleq	ip, ip, r5
    3c0c:	01a32d00 			; <UNDEFINED> instruction: 0x01a32d00
    3c10:	2d010000 	stccs	0, cr0, [r1, #-0]
    3c14:	00000c95 	muleq	r0, r5, ip
    3c18:	0000137e 	andeq	r1, r0, lr, ror r3
    3c1c:	6c617627 	stclvs	6, cr7, [r1], #-156	; 0xffffff64
    3c20:	2c2d0100 	stfcss	f0, [sp], #-0
    3c24:	9c000000 	stcls	0, cr0, [r0], {-0}
    3c28:	28000013 	stmdacs	r0, {r0, r1, r4}
    3c2c:	000095cc 	andeq	r9, r0, ip, asr #11
    3c30:	00000cb2 			; <UNDEFINED> instruction: 0x00000cb2
    3c34:	00000c84 	andeq	r0, r0, r4, lsl #25
    3c38:	02500129 	subseq	r0, r0, #1073741834	; 0x4000000a
    3c3c:	2b000074 	blcs	3e14 <_start-0x41ec>
    3c40:	000095d8 	ldrdeq	r9, [r0], -r8
    3c44:	00000ca7 	andeq	r0, r0, r7, lsr #25
    3c48:	02500129 	subseq	r0, r0, #1073741834	; 0x4000000a
    3c4c:	00000074 	andeq	r0, r0, r4, ror r0
    3c50:	0c9b040e 	cfldrseq	mvf0, [fp], {14}
    3c54:	2f2e0000 	svccs	0x002e0000
    3c58:	0000090c 	andeq	r0, r0, ip, lsl #18
    3c5c:	0000090c 	andeq	r0, r0, ip, lsl #18
    3c60:	8c2f8906 	stchi	9, cr8, [pc], #-24	; 3c50 <_start-0x43b0>
    3c64:	8c00000a 	stchi	0, cr0, [r0], {10}
    3c68:	0600000a 	streq	r0, [r0], -sl
    3c6c:	0b8f2f9c 	bleq	fe3cfae4 <__bss_end__+0xfe3c5324>
    3c70:	0b8f0000 	bleq	fe3c3c78 <__bss_end__+0xfe3b94b8>
    3c74:	a8060000 	stmdage	r6, {}	; <UNPREDICTABLE>
    3c78:	00095c2f 	andeq	r5, r9, pc, lsr #24
    3c7c:	00095c00 	andeq	r5, r9, r0, lsl #24
    3c80:	00190800 	andseq	r0, r9, r0, lsl #16
    3c84:	00000b70 	andeq	r0, r0, r0, ror fp
    3c88:	11d30004 	bicsne	r0, r3, r4
    3c8c:	01040000 	mrseq	r0, (UNDEF: 4)
    3c90:	00000a92 	muleq	r0, r2, sl
    3c94:	000c620c 	andeq	r6, ip, ip, lsl #4
    3c98:	00080400 	andeq	r0, r8, r0, lsl #8
    3c9c:	00973400 	addseq	r3, r7, r0, lsl #8
    3ca0:	00012000 	andeq	r2, r1, r0
    3ca4:	00101e00 	andseq	r1, r0, r0, lsl #28
    3ca8:	05040200 	streq	r0, [r4, #-512]	; 0x200
    3cac:	00746e69 	rsbseq	r6, r4, r9, ror #28
    3cb0:	34070403 	strcc	r0, [r7], #-1027	; 0x403
    3cb4:	04000001 	streq	r0, [r0], #-1
    3cb8:	0000002c 	andeq	r0, r0, ip, lsr #32
    3cbc:	e2060103 	and	r0, r6, #-1073741824	; 0xc0000000
    3cc0:	03000000 	movweq	r0, #0
    3cc4:	01580502 	cmpeq	r8, r2, lsl #10
    3cc8:	04030000 	streq	r0, [r3], #-0
    3ccc:	00014f05 	andeq	r4, r1, r5, lsl #30
    3cd0:	05080300 	streq	r0, [r8, #-768]	; 0x300
    3cd4:	0000014a 	andeq	r0, r0, sl, asr #2
    3cd8:	e0080103 	and	r0, r8, r3, lsl #2
    3cdc:	03000000 	movweq	r0, #0
    3ce0:	00ee0702 	rsceq	r0, lr, r2, lsl #14
    3ce4:	04030000 	streq	r0, [r3], #-0
    3ce8:	00012f07 	andeq	r2, r1, r7, lsl #30
    3cec:	07080300 	streq	r0, [r8, -r0, lsl #6]
    3cf0:	0000012a 	andeq	r0, r0, sl, lsr #2
    3cf4:	0009a705 	andeq	sl, r9, r5, lsl #14
    3cf8:	25070200 	strcs	r0, [r7, #-512]	; 0x200
    3cfc:	05000000 	streq	r0, [r0, #-0]
    3d00:	00000991 	muleq	r0, r1, r9
    3d04:	00462c03 	subeq	r2, r6, r3, lsl #24
    3d08:	6d050000 	stcvs	0, cr0, [r5, #-0]
    3d0c:	0300000a 	movweq	r0, #10
    3d10:	00004672 	andeq	r4, r0, r2, ror r6
    3d14:	09350600 	ldmdbeq	r5!, {r9, sl}
    3d18:	65040000 	strvs	r0, [r4, #-0]
    3d1c:	00002c01 	andeq	r2, r0, r1, lsl #24
    3d20:	03040700 	movweq	r0, #18176	; 0x4700
    3d24:	0000bca6 	andeq	fp, r0, r6, lsr #25
    3d28:	09200800 	stmdbeq	r0!, {fp}
    3d2c:	a8030000 	stmdage	r3, {}	; <UNPREDICTABLE>
    3d30:	00000091 	muleq	r0, r1, r0
    3d34:	0008bc08 	andeq	fp, r8, r8, lsl #24
    3d38:	bca90300 	stclt	3, cr0, [r9]
    3d3c:	00000000 	andeq	r0, r0, r0
    3d40:	00005409 	andeq	r5, r0, r9, lsl #8
    3d44:	0000cc00 	andeq	ip, r0, r0, lsl #24
    3d48:	00cc0a00 	sbceq	r0, ip, r0, lsl #20
    3d4c:	00030000 	andeq	r0, r3, r0
    3d50:	41070403 	tstmi	r7, r3, lsl #8
    3d54:	0b000001 	bleq	3d60 <_start-0x42a0>
    3d58:	f4a30308 	vld4.8	{d0[0],d1[0],d2[0],d3[0]}, [r3], r8
    3d5c:	0c000000 	stceq	0, cr0, [r0], {-0}
    3d60:	00000a52 	andeq	r0, r0, r2, asr sl
    3d64:	0025a503 	eoreq	sl, r5, r3, lsl #10
    3d68:	0c000000 	stceq	0, cr0, [r0], {-0}
    3d6c:	00000a5a 	andeq	r0, r0, sl, asr sl
    3d70:	009daa03 	addseq	sl, sp, r3, lsl #20
    3d74:	00040000 	andeq	r0, r4, r0
    3d78:	0009e505 	andeq	lr, r9, r5, lsl #10
    3d7c:	d3ab0300 			; <UNDEFINED> instruction: 0xd3ab0300
    3d80:	05000000 	streq	r0, [r0, #-0]
    3d84:	00000885 	andeq	r0, r0, r5, lsl #17
    3d88:	0070af03 	rsbseq	sl, r0, r3, lsl #30
    3d8c:	040d0000 	streq	r0, [sp], #-0
    3d90:	0112040e 	tsteq	r2, lr, lsl #8
    3d94:	01030000 	mrseq	r0, (UNDEF: 3)
    3d98:	0000e908 	andeq	lr, r0, r8, lsl #18
    3d9c:	01120400 	tsteq	r2, r0, lsl #8
    3da0:	0f050000 	svceq	0x00050000
    3da4:	0500000b 	streq	r0, [r0, #-11]
    3da8:	00006216 	andeq	r6, r0, r6, lsl r2
    3dac:	08960f00 	ldmeq	r6, {r8, r9, sl, fp}
    3db0:	05180000 	ldreq	r0, [r8, #-0]
    3db4:	00017c2d 	andeq	r7, r1, sp, lsr #24
    3db8:	0a060c00 	beq	186dc0 <__bss_end__+0x17c600>
    3dbc:	2f050000 	svccs	0x00050000
    3dc0:	0000017c 	andeq	r0, r0, ip, ror r1
    3dc4:	6b5f1000 	blvs	17c7dcc <__bss_end__+0x17bd60c>
    3dc8:	25300500 	ldrcs	r0, [r0, #-1280]!	; 0x500
    3dcc:	04000000 	streq	r0, [r0], #-0
    3dd0:	000a3d0c 	andeq	r3, sl, ip, lsl #26
    3dd4:	25300500 	ldrcs	r0, [r0, #-1280]!	; 0x500
    3dd8:	08000000 	stmdaeq	r0, {}	; <UNPREDICTABLE>
    3ddc:	0008710c 	andeq	r7, r8, ip, lsl #2
    3de0:	25300500 	ldrcs	r0, [r0, #-1280]!	; 0x500
    3de4:	0c000000 	stceq	0, cr0, [r0], {-0}
    3de8:	000b560c 	andeq	r5, fp, ip, lsl #12
    3dec:	25300500 	ldrcs	r0, [r0, #-1280]!	; 0x500
    3df0:	10000000 	andne	r0, r0, r0
    3df4:	00785f10 	rsbseq	r5, r8, r0, lsl pc
    3df8:	01823105 	orreq	r3, r2, r5, lsl #2
    3dfc:	00140000 	andseq	r0, r4, r0
    3e00:	0129040e 	teqeq	r9, lr, lsl #8
    3e04:	1e090000 	cdpne	0, 0, cr0, cr9, cr0, {0}
    3e08:	92000001 	andls	r0, r0, #1
    3e0c:	0a000001 	beq	3e18 <_start-0x41e8>
    3e10:	000000cc 	andeq	r0, r0, ip, asr #1
    3e14:	b70f0000 	strlt	r0, [pc, -r0]
    3e18:	24000008 	strcs	r0, [r0], #-8
    3e1c:	020b3505 	andeq	r3, fp, #20971520	; 0x1400000
    3e20:	6f0c0000 	svcvs	0x000c0000
    3e24:	05000007 	streq	r0, [r0, #-7]
    3e28:	00002537 	andeq	r2, r0, r7, lsr r5
    3e2c:	750c0000 	strvc	r0, [ip, #-0]
    3e30:	0500000a 	streq	r0, [r0, #-10]
    3e34:	00002538 	andeq	r2, r0, r8, lsr r5
    3e38:	9d0c0400 	cfstrsls	mvf0, [ip, #-0]
    3e3c:	05000007 	streq	r0, [r0, #-7]
    3e40:	00002539 	andeq	r2, r0, r9, lsr r5
    3e44:	460c0800 	strmi	r0, [ip], -r0, lsl #16
    3e48:	0500000c 	streq	r0, [r0, #-12]
    3e4c:	0000253a 	andeq	r2, r0, sl, lsr r5
    3e50:	750c0c00 	strvc	r0, [ip, #-3072]	; 0xc00
    3e54:	05000009 	streq	r0, [r0, #-9]
    3e58:	0000253b 	andeq	r2, r0, fp, lsr r5
    3e5c:	4a0c1000 	bmi	307e64 <__bss_end__+0x2fd6a4>
    3e60:	05000009 	streq	r0, [r0, #-9]
    3e64:	0000253c 	andeq	r2, r0, ip, lsr r5
    3e68:	5b0c1400 	blpl	308e70 <__bss_end__+0x2fe6b0>
    3e6c:	0500000b 	streq	r0, [r0, #-11]
    3e70:	0000253d 	andeq	r2, r0, sp, lsr r5
    3e74:	c70c1800 	strgt	r1, [ip, -r0, lsl #16]
    3e78:	05000009 	streq	r0, [r0, #-9]
    3e7c:	0000253e 	andeq	r2, r0, lr, lsr r5
    3e80:	0d0c1c00 	stceq	12, cr1, [ip, #-0]
    3e84:	0500000c 	streq	r0, [r0, #-12]
    3e88:	0000253f 	andeq	r2, r0, pc, lsr r5
    3e8c:	11002000 	mrsne	r2, (UNDEF: 0)
    3e90:	000007ac 	andeq	r0, r0, ip, lsr #15
    3e94:	48050108 	stmdami	r5, {r3, r8}
    3e98:	0000024b 	andeq	r0, r0, fp, asr #4
    3e9c:	0008580c 	andeq	r5, r8, ip, lsl #16
    3ea0:	4b490500 	blmi	12452a8 <__bss_end__+0x123aae8>
    3ea4:	00000002 	andeq	r0, r0, r2
    3ea8:	0006f00c 	andeq	pc, r6, ip
    3eac:	4b4a0500 	blmi	12852b4 <__bss_end__+0x127aaf4>
    3eb0:	80000002 	andhi	r0, r0, r2
    3eb4:	000b0112 	andeq	r0, fp, r2, lsl r1
    3eb8:	1e4c0500 	cdpne	5, 4, cr0, cr12, cr0, {0}
    3ebc:	00000001 	andeq	r0, r0, r1
    3ec0:	07d11201 	ldrbeq	r1, [r1, r1, lsl #4]
    3ec4:	4f050000 	svcmi	0x00050000
    3ec8:	0000011e 	andeq	r0, r0, lr, lsl r1
    3ecc:	09000104 	stmdbeq	r0, {r2, r8}
    3ed0:	0000010a 	andeq	r0, r0, sl, lsl #2
    3ed4:	0000025b 	andeq	r0, r0, fp, asr r2
    3ed8:	0000cc0a 	andeq	ip, r0, sl, lsl #24
    3edc:	11001f00 	tstne	r0, r0, lsl #30
    3ee0:	0000097e 	andeq	r0, r0, lr, ror r9
    3ee4:	5b050190 	blpl	14452c <__bss_end__+0x139d6c>
    3ee8:	00000299 	muleq	r0, r9, r2
    3eec:	000a060c 	andeq	r0, sl, ip, lsl #12
    3ef0:	995c0500 	ldmdbls	ip, {r8, sl}^
    3ef4:	00000002 	andeq	r0, r0, r2
    3ef8:	000a1e0c 	andeq	r1, sl, ip, lsl #28
    3efc:	255d0500 	ldrbcs	r0, [sp, #-1280]	; 0x500
    3f00:	04000000 	streq	r0, [r0], #-0
    3f04:	00086c0c 	andeq	r6, r8, ip, lsl #24
    3f08:	9f5f0500 	svcls	0x005f0500
    3f0c:	08000002 	stmdaeq	r0, {r1}
    3f10:	0007ac0c 	andeq	sl, r7, ip, lsl #24
    3f14:	0b600500 	bleq	180531c <__bss_end__+0x17fab5c>
    3f18:	88000002 	stmdahi	r0, {r1}
    3f1c:	5b040e00 	blpl	107724 <__bss_end__+0xfcf64>
    3f20:	09000002 	stmdbeq	r0, {r1}
    3f24:	000002af 	andeq	r0, r0, pc, lsr #5
    3f28:	000002af 	andeq	r0, r0, pc, lsr #5
    3f2c:	0000cc0a 	andeq	ip, r0, sl, lsl #24
    3f30:	0e001f00 	cdpeq	15, 0, cr1, cr0, cr0, {0}
    3f34:	0002b504 	andeq	fp, r2, r4, lsl #10
    3f38:	d10f1300 	mrsle	r1, SP_hyp
    3f3c:	08000009 	stmdaeq	r0, {r0, r3}
    3f40:	02db7305 	sbcseq	r7, fp, #335544320	; 0x14000000
    3f44:	920c0000 	andls	r0, ip, #0
    3f48:	05000007 	streq	r0, [r0, #-7]
    3f4c:	0002db74 	andeq	sp, r2, r4, ror fp
    3f50:	b70c0000 	strlt	r0, [ip, -r0]
    3f54:	05000001 	streq	r0, [r0, #-1]
    3f58:	00002575 	andeq	r2, r0, r5, ror r5
    3f5c:	0e000400 	cfcpyseq	mvf0, mvf0
    3f60:	00005404 	andeq	r5, r0, r4, lsl #8
    3f64:	09f00f00 	ldmibeq	r0!, {r8, r9, sl, fp}^
    3f68:	05680000 	strbeq	r0, [r8, #-0]!
    3f6c:	00040bb3 			; <UNDEFINED> instruction: 0x00040bb3
    3f70:	705f1000 	subsvc	r1, pc, r0
    3f74:	dbb40500 	blle	fed0537c <__bss_end__+0xfecfabbc>
    3f78:	00000002 	andeq	r0, r0, r2
    3f7c:	00725f10 	rsbseq	r5, r2, r0, lsl pc
    3f80:	0025b505 	eoreq	fp, r5, r5, lsl #10
    3f84:	10040000 	andne	r0, r4, r0
    3f88:	0500775f 	streq	r7, [r0, #-1887]	; 0x75f
    3f8c:	000025b6 			; <UNDEFINED> instruction: 0x000025b6
    3f90:	ca0c0800 	bgt	305f98 <__bss_end__+0x2fb7d8>
    3f94:	05000007 	streq	r0, [r0, #-7]
    3f98:	00003fb7 			; <UNDEFINED> instruction: 0x00003fb7
    3f9c:	dd0c0c00 	stcle	12, cr0, [ip, #-0]
    3fa0:	05000008 	streq	r0, [r0, #-8]
    3fa4:	00003fb8 			; <UNDEFINED> instruction: 0x00003fb8
    3fa8:	5f100e00 	svcpl	0x00100e00
    3fac:	05006662 	streq	r6, [r0, #-1634]	; 0x662
    3fb0:	0002b6b9 			; <UNDEFINED> instruction: 0x0002b6b9
    3fb4:	390c1000 	stmdbcc	ip, {ip}
    3fb8:	05000007 	streq	r0, [r0, #-7]
    3fbc:	000025ba 			; <UNDEFINED> instruction: 0x000025ba
    3fc0:	ba0c1800 	blt	309fc8 <__bss_end__+0x2ff808>
    3fc4:	05000007 	streq	r0, [r0, #-7]
    3fc8:	00010ac1 	andeq	r0, r1, r1, asr #21
    3fcc:	6d0c1c00 	stcvs	12, cr1, [ip, #-0]
    3fd0:	0500000c 	streq	r0, [r0, #-12]
    3fd4:	000566c3 	andeq	r6, r5, r3, asr #13
    3fd8:	870c2000 	strhi	r2, [ip, -r0]
    3fdc:	0500000c 	streq	r0, [r0, #-12]
    3fe0:	000590c5 	andeq	r9, r5, r5, asr #1
    3fe4:	620c2400 	andvs	r2, ip, #0, 8
    3fe8:	0500000a 	streq	r0, [r0, #-10]
    3fec:	0005b4c8 	andeq	fp, r5, r8, asr #9
    3ff0:	270c2800 	strcs	r2, [ip, -r0, lsl #16]
    3ff4:	0500000c 	streq	r0, [r0, #-12]
    3ff8:	0005cec9 	andeq	ip, r5, r9, asr #29
    3ffc:	5f102c00 	svcpl	0x00102c00
    4000:	05006275 	streq	r6, [r0, #-629]	; 0x275
    4004:	0002b6cc 	andeq	fp, r2, ip, asr #13
    4008:	5f103000 	svcpl	0x00103000
    400c:	05007075 	streq	r7, [r0, #-117]	; 0x75
    4010:	0002dbcd 	andeq	sp, r2, sp, asr #23
    4014:	5f103800 	svcpl	0x00103800
    4018:	05007275 	streq	r7, [r0, #-629]	; 0x275
    401c:	000025ce 	andeq	r2, r0, lr, asr #11
    4020:	7d0c3c00 	stcvc	12, cr3, [ip, #-0]
    4024:	05000007 	streq	r0, [r0, #-7]
    4028:	0005d4d1 	ldrdeq	sp, [r5], -r1
    402c:	d20c4000 	andle	r4, ip, #0
    4030:	0500000b 	streq	r0, [r0, #-11]
    4034:	0005e4d2 	ldrdeq	lr, [r5], -r2
    4038:	5f104300 	svcpl	0x00104300
    403c:	0500626c 	streq	r6, [r0, #-620]	; 0x26c
    4040:	0002b6d5 	ldrdeq	fp, [r2], -r5
    4044:	e00c4400 	and	r4, ip, r0, lsl #8
    4048:	05000007 	streq	r0, [r0, #-7]
    404c:	000025d8 	ldrdeq	r2, [r0], -r8
    4050:	540c4c00 	strpl	r4, [ip], #-3072	; 0xc00
    4054:	05000009 	streq	r0, [r0, #-9]
    4058:	00007bd9 	ldrdeq	r7, [r0], -r9
    405c:	bd0c5000 	stclt	0, cr5, [ip, #-0]
    4060:	0500000b 	streq	r0, [r0, #-11]
    4064:	000429dc 	ldrdeq	r2, [r4], -ip
    4068:	3c0c5400 	cfstrscc	mvf5, [ip], {-0}
    406c:	05000009 	streq	r0, [r0, #-9]
    4070:	0000ffe0 	andeq	pc, r0, r0, ror #31
    4074:	f80c5800 			; <UNDEFINED> instruction: 0xf80c5800
    4078:	05000009 	streq	r0, [r0, #-9]
    407c:	0000f4e2 	andeq	pc, r0, r2, ror #9
    4080:	420c5c00 	andmi	r5, ip, #0, 24
    4084:	05000009 	streq	r0, [r0, #-9]
    4088:	000025e3 	andeq	r2, r0, r3, ror #11
    408c:	14006400 	strne	r6, [r0], #-1024	; 0x400
    4090:	00000025 	andeq	r0, r0, r5, lsr #32
    4094:	00000429 	andeq	r0, r0, r9, lsr #8
    4098:	00042915 	andeq	r2, r4, r5, lsl r9
    409c:	010a1500 	tsteq	sl, r0, lsl #10
    40a0:	0c150000 	ldceq	0, cr0, [r5], {-0}
    40a4:	15000001 	strne	r0, [r0, #-1]
    40a8:	00000025 	andeq	r0, r0, r5, lsr #32
    40ac:	34040e00 	strcc	r0, [r4], #-3584	; 0xe00
    40b0:	04000004 	streq	r0, [r0], #-4
    40b4:	00000429 	andeq	r0, r0, r9, lsr #8
    40b8:	000a4516 	andeq	r4, sl, r6, lsl r5
    40bc:	05042800 	streq	r2, [r4, #-2048]	; 0x800
    40c0:	05660238 	strbeq	r0, [r6, #-568]!	; 0x238
    40c4:	c0170000 	andsgt	r0, r7, r0
    40c8:	05000009 	streq	r0, [r0, #-9]
    40cc:	0025023a 	eoreq	r0, r5, sl, lsr r2
    40d0:	17000000 	strne	r0, [r0, -r0]
    40d4:	000007d9 	ldrdeq	r0, [r0], -r9
    40d8:	3b023f05 	blcc	93cf4 <__bss_end__+0x89534>
    40dc:	04000006 	streq	r0, [r0], #-6
    40e0:	0008cd17 	andeq	ip, r8, r7, lsl sp
    40e4:	023f0500 	eorseq	r0, pc, #0, 10
    40e8:	0000063b 	andeq	r0, r0, fp, lsr r6
    40ec:	088e1708 	stmeq	lr, {r3, r8, r9, sl, ip}
    40f0:	3f050000 	svccc	0x00050000
    40f4:	00063b02 	andeq	r3, r6, r2, lsl #22
    40f8:	19170c00 	ldmdbne	r7, {sl, fp}
    40fc:	0500000a 	streq	r0, [r0, #-10]
    4100:	00250241 	eoreq	r0, r5, r1, asr #4
    4104:	17100000 	ldrne	r0, [r0, -r0]
    4108:	00000704 	andeq	r0, r0, r4, lsl #14
    410c:	1d024205 	sfmne	f4, 4, [r2, #-20]	; 0xffffffec
    4110:	14000008 	strne	r0, [r0], #-8
    4114:	000b3717 	andeq	r3, fp, r7, lsl r7
    4118:	02440500 	subeq	r0, r4, #0, 10
    411c:	00000025 	andeq	r0, r0, r5, lsr #32
    4120:	0a231730 	beq	8c9de8 <__bss_end__+0x8bf628>
    4124:	45050000 	strmi	r0, [r5, #-0]
    4128:	00058a02 	andeq	r8, r5, r2, lsl #20
    412c:	86173400 	ldrhi	r3, [r7], -r0, lsl #8
    4130:	05000009 	streq	r0, [r0, #-9]
    4134:	00250247 	eoreq	r0, r5, r7, asr #4
    4138:	17380000 	ldrne	r0, [r8, -r0]!
    413c:	00000a33 	andeq	r0, r0, r3, lsr sl
    4140:	38024905 	stmdacc	r2, {r0, r2, r8, fp, lr}
    4144:	3c000008 	stccc	0, cr0, [r0], {8}
    4148:	00091817 	andeq	r1, r9, r7, lsl r8
    414c:	024c0500 	subeq	r0, ip, #0, 10
    4150:	0000017c 	andeq	r0, r0, ip, ror r1
    4154:	08ad1740 	stmiaeq	sp!, {r6, r8, r9, sl, ip}
    4158:	4d050000 	stcmi	0, cr0, [r5, #-0]
    415c:	00002502 	andeq	r2, r0, r2, lsl #10
    4160:	41174400 	tstmi	r7, r0, lsl #8
    4164:	0500000c 	streq	r0, [r0, #-12]
    4168:	017c024e 	cmneq	ip, lr, asr #4
    416c:	17480000 	strbne	r0, [r8, -r0]
    4170:	0000099d 	muleq	r0, sp, r9
    4174:	3e024f05 	cdpcc	15, 0, cr4, cr2, cr5, {0}
    4178:	4c000008 	stcmi	0, cr0, [r0], {8}
    417c:	0008d517 	andeq	sp, r8, r7, lsl r5
    4180:	02520500 	subseq	r0, r2, #0, 10
    4184:	00000025 	andeq	r0, r0, r5, lsr #32
    4188:	07fc1750 	ubfxeq	r1, r0, #14, #29
    418c:	53050000 	movwpl	r0, #20480	; 0x5000
    4190:	00010c02 	andeq	r0, r1, r2, lsl #24
    4194:	b9175400 	ldmdblt	r7, {sl, ip, lr}
    4198:	05000009 	streq	r0, [r0, #-9]
    419c:	07fb0276 			; <UNDEFINED> instruction: 0x07fb0276
    41a0:	18580000 	ldmdane	r8, {}^	; <UNPREDICTABLE>
    41a4:	0000097e 	andeq	r0, r0, lr, ror r9
    41a8:	99027a05 	stmdbls	r2, {r0, r2, r9, fp, ip, sp, lr}
    41ac:	48000002 	stmdami	r0, {r1}
    41b0:	08ea1801 	stmiaeq	sl!, {r0, fp, ip}^
    41b4:	7b050000 	blvc	1441bc <__bss_end__+0x1399fc>
    41b8:	00025b02 	andeq	r5, r2, r2, lsl #22
    41bc:	18014c00 	stmdane	r1, {sl, fp, lr}
    41c0:	00000ba3 	andeq	r0, r0, r3, lsr #23
    41c4:	4f027f05 	svcmi	0x00027f05
    41c8:	dc000008 	stcle	0, cr0, [r0], {8}
    41cc:	07c21802 	strbeq	r1, [r2, r2, lsl #16]
    41d0:	84050000 	strhi	r0, [r5], #-0
    41d4:	00060002 	andeq	r0, r6, r2
    41d8:	1802e000 	stmdane	r2, {sp, lr, pc}
    41dc:	000007a7 	andeq	r0, r0, r7, lsr #15
    41e0:	5b028505 	blpl	a55fc <__bss_end__+0x9ae3c>
    41e4:	ec000008 	stc	0, cr0, [r0], {8}
    41e8:	040e0002 	streq	r0, [lr], #-2
    41ec:	0000040b 	andeq	r0, r0, fp, lsl #8
    41f0:	00002514 	andeq	r2, r0, r4, lsl r5
    41f4:	00058a00 	andeq	r8, r5, r0, lsl #20
    41f8:	04291500 	strteq	r1, [r9], #-1280	; 0x500
    41fc:	0a150000 	beq	544204 <__bss_end__+0x539a44>
    4200:	15000001 	strne	r0, [r0, #-1]
    4204:	0000058a 	andeq	r0, r0, sl, lsl #11
    4208:	00002515 	andeq	r2, r0, r5, lsl r5
    420c:	040e0000 	streq	r0, [lr], #-0
    4210:	00000119 	andeq	r0, r0, r9, lsl r1
    4214:	056c040e 	strbeq	r0, [ip, #-1038]!	; 0x40e
    4218:	86140000 	ldrhi	r0, [r4], -r0
    421c:	b4000000 	strlt	r0, [r0], #-0
    4220:	15000005 	strne	r0, [r0, #-5]
    4224:	00000429 	andeq	r0, r0, r9, lsr #8
    4228:	00010a15 	andeq	r0, r1, r5, lsl sl
    422c:	00861500 	addeq	r1, r6, r0, lsl #10
    4230:	25150000 	ldrcs	r0, [r5, #-0]
    4234:	00000000 	andeq	r0, r0, r0
    4238:	0596040e 	ldreq	r0, [r6, #1038]	; 0x40e
    423c:	25140000 	ldrcs	r0, [r4, #-0]
    4240:	ce000000 	cdpgt	0, 0, cr0, cr0, cr0, {0}
    4244:	15000005 	strne	r0, [r0, #-5]
    4248:	00000429 	andeq	r0, r0, r9, lsr #8
    424c:	00010a15 	andeq	r0, r1, r5, lsl sl
    4250:	040e0000 	streq	r0, [lr], #-0
    4254:	000005ba 			; <UNDEFINED> instruction: 0x000005ba
    4258:	00005409 	andeq	r5, r0, r9, lsl #8
    425c:	0005e400 	andeq	lr, r5, r0, lsl #8
    4260:	00cc0a00 	sbceq	r0, ip, r0, lsl #20
    4264:	00020000 	andeq	r0, r2, r0
    4268:	00005409 	andeq	r5, r0, r9, lsl #8
    426c:	0005f400 	andeq	pc, r5, r0, lsl #8
    4270:	00cc0a00 	sbceq	r0, ip, r0, lsl #20
    4274:	00000000 	andeq	r0, r0, r0
    4278:	0009de06 	andeq	sp, r9, r6, lsl #28
    427c:	011d0500 	tsteq	sp, r0, lsl #10
    4280:	000002e1 	andeq	r0, r0, r1, ror #5
    4284:	000b6519 	andeq	r6, fp, r9, lsl r5
    4288:	21050c00 	tstcs	r5, r0, lsl #24
    428c:	00063501 	andeq	r3, r6, r1, lsl #10
    4290:	0a061700 	beq	189e98 <__bss_end__+0x17f6d8>
    4294:	23050000 	movwcs	r0, #20480	; 0x5000
    4298:	00063501 	andeq	r3, r6, r1, lsl #10
    429c:	e3170000 	tst	r7, #0
    42a0:	05000008 	streq	r0, [r0, #-8]
    42a4:	00250124 	eoreq	r0, r5, r4, lsr #2
    42a8:	17040000 	strne	r0, [r4, -r0]
    42ac:	000009d8 	ldrdeq	r0, [r0], -r8
    42b0:	3b012505 	blcc	4d6cc <__bss_end__+0x42f0c>
    42b4:	08000006 	stmdaeq	r0, {r1, r2}
    42b8:	00040e00 	andeq	r0, r4, r0, lsl #28
    42bc:	0e000006 	cdpeq	0, 0, cr0, cr0, cr6, {0}
    42c0:	0005f404 	andeq	pc, r5, r4, lsl #8
    42c4:	06fc1900 	ldrbteq	r1, [ip], r0, lsl #18
    42c8:	050e0000 	streq	r0, [lr, #-0]
    42cc:	0676013d 			; <UNDEFINED> instruction: 0x0676013d
    42d0:	4c170000 	ldcmi	0, cr0, [r7], {-0}
    42d4:	0500000a 	streq	r0, [r0, #-10]
    42d8:	0676013e 			; <UNDEFINED> instruction: 0x0676013e
    42dc:	17000000 	strne	r0, [r0, -r0]
    42e0:	00000a86 	andeq	r0, r0, r6, lsl #21
    42e4:	76013f05 	strvc	r3, [r1], -r5, lsl #30
    42e8:	06000006 	streq	r0, [r0], -r6
    42ec:	000b0a17 	andeq	r0, fp, r7, lsl sl
    42f0:	01400500 	cmpeq	r0, r0, lsl #10
    42f4:	0000005b 	andeq	r0, r0, fp, asr r0
    42f8:	5b09000c 	blpl	244330 <__bss_end__+0x239b70>
    42fc:	86000000 	strhi	r0, [r0], -r0
    4300:	0a000006 	beq	4320 <_start-0x3ce0>
    4304:	000000cc 	andeq	r0, r0, ip, asr #1
    4308:	d01a0002 	andsle	r0, sl, r2
    430c:	87025705 	strhi	r5, [r2, -r5, lsl #14]
    4310:	17000007 	strne	r0, [r0, -r7]
    4314:	00000b49 	andeq	r0, r0, r9, asr #22
    4318:	2c025905 	stccs	9, cr5, [r2], {5}
    431c:	00000000 	andeq	r0, r0, r0
    4320:	000af417 	andeq	pc, sl, r7, lsl r4	; <UNPREDICTABLE>
    4324:	025a0500 	subseq	r0, sl, #0, 10
    4328:	0000010c 	andeq	r0, r0, ip, lsl #2
    432c:	08ff1704 	ldmeq	pc!, {r2, r8, r9, sl, ip}^	; <UNPREDICTABLE>
    4330:	5b050000 	blpl	144338 <__bss_end__+0x139b78>
    4334:	00078702 	andeq	r8, r7, r2, lsl #14
    4338:	18170800 	ldmdane	r7, {fp}
    433c:	0500000c 	streq	r0, [r0, #-12]
    4340:	0192025c 	orrseq	r0, r2, ip, asr r2
    4344:	17240000 	strne	r0, [r4, -r0]!
    4348:	0000089e 	muleq	r0, lr, r8
    434c:	25025d05 	strcs	r5, [r2, #-3333]	; 0xd05
    4350:	48000000 	stmdami	r0, {}	; <UNPREDICTABLE>
    4354:	000a0117 	andeq	r0, sl, r7, lsl r1
    4358:	025e0500 	subseq	r0, lr, #0, 10
    435c:	00000069 	andeq	r0, r0, r9, rrx
    4360:	0c2e1750 	stceq	7, cr1, [lr], #-320	; 0xfffffec0
    4364:	5f050000 	svcpl	0x00050000
    4368:	00064102 	andeq	r4, r6, r2, lsl #2
    436c:	0c175800 	ldceq	8, cr5, [r7], {-0}
    4370:	0500000a 	streq	r0, [r0, #-10]
    4374:	00f40260 	rscseq	r0, r4, r0, ror #4
    4378:	17680000 	strbne	r0, [r8, -r0]!
    437c:	00000c33 	andeq	r0, r0, r3, lsr ip
    4380:	f4026105 	vst4.8	{d6,d8,d10,d12}, [r2], r5
    4384:	70000000 	andvc	r0, r0, r0
    4388:	00076117 	andeq	r6, r7, r7, lsl r1
    438c:	02620500 	rsbeq	r0, r2, #0, 10
    4390:	000000f4 	strdeq	r0, [r0], -r4
    4394:	0b851778 	bleq	fe14a17c <__bss_end__+0xfe13f9bc>
    4398:	63050000 	movwvs	r0, #20480	; 0x5000
    439c:	00079702 	andeq	r9, r7, r2, lsl #14
    43a0:	f3178000 	vhadd.u16	d8, d7, d0
    43a4:	05000008 	streq	r0, [r0, #-8]
    43a8:	07a70264 	streq	r0, [r7, r4, ror #4]!
    43ac:	17880000 	strne	r0, [r8, r0]
    43b0:	00000b17 	andeq	r0, r0, r7, lsl fp
    43b4:	25026505 	strcs	r6, [r2, #-1285]	; 0x505
    43b8:	a0000000 	andge	r0, r0, r0
    43bc:	00084a17 	andeq	r4, r8, r7, lsl sl
    43c0:	02660500 	rsbeq	r0, r6, #0, 10
    43c4:	000000f4 	strdeq	r0, [r0], -r4
    43c8:	075217a4 	ldrbeq	r1, [r2, -r4, lsr #15]
    43cc:	67050000 	strvs	r0, [r5, -r0]
    43d0:	0000f402 	andeq	pc, r0, r2, lsl #8
    43d4:	3917ac00 	ldmdbcc	r7, {sl, fp, sp, pc}
    43d8:	05000008 	streq	r0, [r0, #-8]
    43dc:	00f40268 	rscseq	r0, r4, r8, ror #4
    43e0:	17b40000 	ldrne	r0, [r4, r0]!
    43e4:	00000719 	andeq	r0, r0, r9, lsl r7
    43e8:	f4026905 	vst2.8	{d6,d8}, [r2], r5
    43ec:	bc000000 	stclt	0, cr0, [r0], {-0}
    43f0:	00072817 	andeq	r2, r7, r7, lsl r8
    43f4:	026a0500 	rsbeq	r0, sl, #0, 10
    43f8:	000000f4 	strdeq	r0, [r0], -r4
    43fc:	09be17c4 	ldmibeq	lr!, {r2, r6, r7, r8, r9, sl, ip}
    4400:	6b050000 	blvs	144408 <__bss_end__+0x139c48>
    4404:	00002502 	andeq	r2, r0, r2, lsl #10
    4408:	0900cc00 	stmdbeq	r0, {sl, fp, lr, pc}
    440c:	00000112 	andeq	r0, r0, r2, lsl r1
    4410:	00000797 	muleq	r0, r7, r7
    4414:	0000cc0a 	andeq	ip, r0, sl, lsl #24
    4418:	09001900 	stmdbeq	r0, {r8, fp, ip}
    441c:	00000112 	andeq	r0, r0, r2, lsl r1
    4420:	000007a7 	andeq	r0, r0, r7, lsr #15
    4424:	0000cc0a 	andeq	ip, r0, sl, lsl #24
    4428:	09000700 	stmdbeq	r0, {r8, r9, sl}
    442c:	00000112 	andeq	r0, r0, r2, lsl r1
    4430:	000007b7 			; <UNDEFINED> instruction: 0x000007b7
    4434:	0000cc0a 	andeq	ip, r0, sl, lsl #24
    4438:	1a001700 	bne	a040 <__FUNCTION__.4325+0x164>
    443c:	027005f0 	rsbseq	r0, r0, #240, 10	; 0x3c000000
    4440:	000007db 	ldrdeq	r0, [r0], -fp
    4444:	00096e17 	andeq	r6, r9, r7, lsl lr
    4448:	02730500 	rsbseq	r0, r3, #0, 10
    444c:	000007db 	ldrdeq	r0, [r0], -fp
    4450:	0b7c1700 	bleq	1f0a058 <__bss_end__+0x1eff898>
    4454:	74050000 	strvc	r0, [r5], #-0
    4458:	0007eb02 	andeq	lr, r7, r2, lsl #22
    445c:	09007800 	stmdbeq	r0, {fp, ip, sp, lr}
    4460:	000002db 	ldrdeq	r0, [r0], -fp
    4464:	000007eb 	andeq	r0, r0, fp, ror #15
    4468:	0000cc0a 	andeq	ip, r0, sl, lsl #24
    446c:	09001d00 	stmdbeq	r0, {r8, sl, fp, ip}
    4470:	0000002c 	andeq	r0, r0, ip, lsr #32
    4474:	000007fb 	strdeq	r0, [r0], -fp
    4478:	0000cc0a 	andeq	ip, r0, sl, lsl #24
    447c:	1b001d00 	blne	b884 <__bss_end__+0x10c4>
    4480:	025505f0 	subseq	r0, r5, #240, 10	; 0x3c000000
    4484:	0000081d 	andeq	r0, r0, sp, lsl r8
    4488:	000a451c 	andeq	r4, sl, ip, lsl r5
    448c:	026c0500 	rsbeq	r0, ip, #0, 10
    4490:	00000686 	andeq	r0, r0, r6, lsl #13
    4494:	000bd81c 	andeq	sp, fp, ip, lsl r8
    4498:	02750500 	rsbseq	r0, r5, #0, 10
    449c:	000007b7 			; <UNDEFINED> instruction: 0x000007b7
    44a0:	01120900 	tsteq	r2, r0, lsl #18
    44a4:	082d0000 	stmdaeq	sp!, {}	; <UNPREDICTABLE>
    44a8:	cc0a0000 	stcgt	0, cr0, [sl], {-0}
    44ac:	18000000 	stmdane	r0, {}	; <UNPREDICTABLE>
    44b0:	08381d00 	ldmdaeq	r8!, {r8, sl, fp, ip}
    44b4:	29150000 	ldmdbcs	r5, {}	; <UNPREDICTABLE>
    44b8:	00000004 	andeq	r0, r0, r4
    44bc:	082d040e 	stmdaeq	sp!, {r1, r2, r3, sl}
    44c0:	040e0000 	streq	r0, [lr], #-0
    44c4:	0000017c 	andeq	r0, r0, ip, ror r1
    44c8:	00084f1d 	andeq	r4, r8, sp, lsl pc
    44cc:	00251500 	eoreq	r1, r5, r0, lsl #10
    44d0:	0e000000 	cdpeq	0, 0, cr0, cr0, cr0, {0}
    44d4:	00085504 	andeq	r5, r8, r4, lsl #10
    44d8:	44040e00 	strmi	r0, [r4], #-3584	; 0xe00
    44dc:	09000008 	stmdbeq	r0, {r3}
    44e0:	000005f4 	strdeq	r0, [r0], -r4
    44e4:	0000086b 	andeq	r0, r0, fp, ror #16
    44e8:	0000cc0a 	andeq	ip, r0, sl, lsl #24
    44ec:	1e000200 	cdpne	2, 0, cr0, cr0, cr0, {0}
    44f0:	00000b2b 	andeq	r0, r0, fp, lsr #22
    44f4:	2902fd05 	stmdbcs	r2, {r0, r2, r8, sl, fp, ip, sp, lr, pc}
    44f8:	1e000004 	cdpne	0, 0, cr0, cr0, cr4, {0}
    44fc:	00000b24 	andeq	r0, r0, r4, lsr #22
    4500:	2f02fe05 	svccs	0x0002fe05
    4504:	14000004 	strne	r0, [r0], #-4
    4508:	00000025 	andeq	r0, r0, r5, lsr #32
    450c:	00000892 	muleq	r0, r2, r8
    4510:	00002515 	andeq	r2, r0, r5, lsl r5
    4514:	341f0000 	ldrcc	r0, [pc], #-0	; 451c <_start-0x3ae4>
    4518:	06000005 	streq	r0, [r0], -r5
    451c:	00089d1d 	andeq	r9, r8, sp, lsl sp
    4520:	83040e00 	movwhi	r0, #19968	; 0x4e00
    4524:	14000008 	strne	r0, [r0], #-8
    4528:	00000025 	andeq	r0, r0, r5, lsr #32
    452c:	000008b2 			; <UNDEFINED> instruction: 0x000008b2
    4530:	00058a15 	andeq	r8, r5, r5, lsl sl
    4534:	711f0000 	tstvc	pc, r0
    4538:	06000005 	streq	r0, [r0], -r5
    453c:	0008bd22 	andeq	fp, r8, r2, lsr #26
    4540:	a3040e00 	movwge	r0, #19968	; 0x4e00
    4544:	20000008 	andcs	r0, r0, r8
    4548:	00005401 	andeq	r5, r0, r1, lsl #8
    454c:	000c0700 	andeq	r0, ip, r0, lsl #14
    4550:	21000009 	tstcs	r0, r9
    4554:	00000742 	andeq	r0, r0, r2, asr #14
    4558:	0b6b2100 	bleq	1acc960 <__bss_end__+0x1ac21a0>
    455c:	21010000 	mrscs	r0, (UNDEF: 1)
    4560:	00000bc3 	andeq	r0, r0, r3, asr #23
    4564:	07832104 	streq	r2, [r3, r4, lsl #2]
    4568:	21050000 	mrscs	r0, (UNDEF: 5)
    456c:	00000926 	andeq	r0, r0, r6, lsr #18
    4570:	0be02106 	bleq	ff80c990 <__bss_end__+0xff8021d0>
    4574:	21070000 	mrscs	r0, (UNDEF: 7)
    4578:	00000bef 	andeq	r0, r0, pc, ror #23
    457c:	0bfe2103 	bleq	fff8c990 <__bss_end__+0xfff821d0>
    4580:	00020000 	andeq	r0, r2, r0
    4584:	000cbd05 	andeq	fp, ip, r5, lsl #26
    4588:	c3150700 	tstgt	r5, #0, 14
    458c:	22000008 	andcs	r0, r0, #8
    4590:	00000c8e 	andeq	r0, r0, lr, lsl #25
    4594:	00331d01 	eorseq	r1, r3, r1, lsl #26
    4598:	001c0000 	andseq	r0, ip, r0
    459c:	c9222020 	stmdbgt	r2!, {r5, sp}
    45a0:	0100000c 	tsteq	r0, ip
    45a4:	0000331e 	andeq	r3, r0, lr, lsl r3
    45a8:	20002800 	andcs	r2, r0, r0, lsl #16
    45ac:	0c982220 	lfmeq	f2, 4, [r8], {32}
    45b0:	1f010000 	svcne	0x00010000
    45b4:	00000033 	andeq	r0, r0, r3, lsr r0
    45b8:	20200034 	eorcs	r0, r0, r4, lsr r0
    45bc:	000c6923 	andeq	r6, ip, r3, lsr #18
    45c0:	25560100 	ldrbcs	r0, [r6, #-256]	; 0x100
    45c4:	20000000 	andcs	r0, r0, r0
    45c8:	34000098 	strcc	r0, [r0], #-152	; 0x98
    45cc:	01000000 	mrseq	r0, (UNDEF: 0)
    45d0:	0009989c 	muleq	r9, ip, r8
    45d4:	69702400 	ldmdbvs	r0!, {sl, sp}^
    45d8:	5601006e 	strpl	r0, [r1], -lr, rrx
    45dc:	0000002c 	andeq	r0, r0, ip, lsr #32
    45e0:	000013ba 			; <UNDEFINED> instruction: 0x000013ba
    45e4:	000c5d25 	andeq	r5, ip, r5, lsr #26
    45e8:	2c590100 	ldfcse	f0, [r9], {-0}
    45ec:	f4000000 	vst4.8	{d0-d3}, [r0], r0
    45f0:	26000013 			; <UNDEFINED> instruction: 0x26000013
    45f4:	0066666f 	rsbeq	r6, r6, pc, ror #12
    45f8:	002c5a01 	eoreq	r5, ip, r1, lsl #20
    45fc:	14320000 	ldrtne	r0, [r2], #-0
    4600:	3c270000 	stccc	0, cr0, [r7], #-0
    4604:	5d000098 	stcpl	0, cr0, [r0, #-608]	; 0xfffffda0
    4608:	2800000b 	stmdacs	r0, {r0, r1, r3}
    460c:	f30b5001 	vhadd.u8	d5, d11, d1
    4610:	25355001 	ldrcs	r5, [r5, #-1]!
    4614:	8080b423 	addhi	fp, r0, r3, lsr #8
    4618:	00000281 	andeq	r0, r0, r1, lsl #5
    461c:	000c8329 	andeq	r8, ip, r9, lsr #6
    4620:	044f0100 	strbeq	r0, [pc], #-256	; 4628 <_start-0x39d8>
    4624:	1c000098 	stcne	0, cr0, [r0], {152}	; 0x98
    4628:	01000000 	mrseq	r0, (UNDEF: 0)
    462c:	0009e89c 	muleq	r9, ip, r8
    4630:	69702400 	ldmdbvs	r0!, {sl, sp}^
    4634:	4f01006e 	svcmi	0x0001006e
    4638:	0000002c 	andeq	r0, r0, ip, lsr #32
    463c:	00001445 	andeq	r1, r0, r5, asr #8
    4640:	01007624 	tsteq	r0, r4, lsr #12
    4644:	00002c4f 	andeq	r2, r0, pc, asr #24
    4648:	00147f00 	andseq	r7, r4, r0, lsl #30
    464c:	98142a00 	ldmdals	r4, {r9, fp, sp}
    4650:	0a230000 	beq	8c4658 <__bss_end__+0x8b9e98>
    4654:	09de0000 	ldmibeq	lr, {}^	; <UNPREDICTABLE>
    4658:	01280000 	teqeq	r8, r0
    465c:	01f30350 	mvnseq	r0, r0, asr r3
    4660:	1c2b0050 	stcne	0, cr0, [fp], #-320	; 0xfffffec0
    4664:	64000098 	strvs	r0, [r0], #-152	; 0x98
    4668:	0000000a 	andeq	r0, r0, sl
    466c:	000ca229 	andeq	sl, ip, r9, lsr #4
    4670:	f44a0100 	vst4.8	{d16,d18,d20,d22}, [sl], r0
    4674:	10000097 	mulne	r0, r7, r0
    4678:	01000000 	mrseq	r0, (UNDEF: 0)
    467c:	000a239c 	muleq	sl, ip, r3
    4680:	69702400 	ldmdbvs	r0!, {sl, sp}^
    4684:	4a01006e 	bmi	44844 <__bss_end__+0x3a084>
    4688:	0000002c 	andeq	r0, r0, ip, lsr #32
    468c:	000014b9 			; <UNDEFINED> instruction: 0x000014b9
    4690:	00980027 	addseq	r0, r8, r7, lsr #32
    4694:	000ae000 	andeq	lr, sl, r0
    4698:	50012800 	andpl	r2, r1, r0, lsl #16
    469c:	5001f303 	andpl	pc, r1, r3, lsl #6
    46a0:	01510128 	cmpeq	r1, r8, lsr #2
    46a4:	29000030 	stmdbcs	r0, {r4, r5}
    46a8:	00000c50 	andeq	r0, r0, r0, asr ip
    46ac:	97d04301 	ldrbls	r4, [r0, r1, lsl #6]
    46b0:	00240000 	eoreq	r0, r4, r0
    46b4:	9c010000 	stcls	0, cr0, [r1], {-0}
    46b8:	00000a64 	andeq	r0, r0, r4, ror #20
    46bc:	6e697024 	cdpvs	0, 6, cr7, cr9, cr4, {1}
    46c0:	2c430100 	stfcse	f0, [r3], {-0}
    46c4:	da000000 	ble	46cc <_start-0x3934>
    46c8:	27000014 	smladcs	r0, r4, r0, r0
    46cc:	000097ec 	andeq	r9, r0, ip, ror #15
    46d0:	00000b68 	andeq	r0, r0, r8, ror #22
    46d4:	05500128 	ldrbeq	r0, [r0, #-296]	; 0x128
    46d8:	2000280c 	andcs	r2, r0, ip, lsl #16
    46dc:	51012820 	tstpl	r1, r0, lsr #16
    46e0:	01f33105 	mvnseq	r3, r5, lsl #2
    46e4:	00002450 	andeq	r2, r0, r0, asr r4
    46e8:	000cb129 	andeq	fp, ip, r9, lsr #2
    46ec:	ac3c0100 	ldfges	f0, [ip], #-0
    46f0:	24000097 	strcs	r0, [r0], #-151	; 0x97
    46f4:	01000000 	mrseq	r0, (UNDEF: 0)
    46f8:	000aa59c 	muleq	sl, ip, r5
    46fc:	69702400 	ldmdbvs	r0!, {sl, sp}^
    4700:	3c01006e 	stccc	0, cr0, [r1], {110}	; 0x6e
    4704:	0000002c 	andeq	r0, r0, ip, lsr #32
    4708:	000014fb 	strdeq	r1, [r0], -fp
    470c:	0097c827 	addseq	ip, r7, r7, lsr #16
    4710:	000b6800 	andeq	r6, fp, r0, lsl #16
    4714:	50012800 	andpl	r2, r1, r0, lsl #16
    4718:	001c0c05 	andseq	r0, ip, r5, lsl #24
    471c:	01282020 	teqeq	r8, r0, lsr #32
    4720:	f3310551 	vqrshl.u64	q0, <illegal reg q0.5>, <illegal reg q0.5>
    4724:	00245001 	eoreq	r5, r4, r1
    4728:	0c732900 	ldcleq	9, cr2, [r3], #-0
    472c:	37010000 	strcc	r0, [r1, -r0]
    4730:	0000979c 	muleq	r0, ip, r7
    4734:	00000010 	andeq	r0, r0, r0, lsl r0
    4738:	0ae09c01 	beq	ff82b744 <__bss_end__+0xff820f84>
    473c:	70240000 	eorvc	r0, r4, r0
    4740:	01006e69 	tsteq	r0, r9, ror #28
    4744:	00002c37 	andeq	r2, r0, r7, lsr ip
    4748:	00151c00 	andseq	r1, r5, r0, lsl #24
    474c:	97a82700 	strls	r2, [r8, r0, lsl #14]!
    4750:	0ae00000 	beq	ff804758 <__bss_end__+0xff7f9f98>
    4754:	01280000 	teqeq	r8, r0
    4758:	01f30350 	mvnseq	r0, r0, asr r3
    475c:	51012850 	tstpl	r1, r0, asr r8
    4760:	00003101 	andeq	r3, r0, r1, lsl #2
    4764:	00095c29 	andeq	r5, r9, r9, lsr #24
    4768:	34280100 	strtcc	r0, [r8], #-256	; 0x100
    476c:	68000097 	stmdavs	r0, {r0, r1, r2, r4, r7}
    4770:	01000000 	mrseq	r0, (UNDEF: 0)
    4774:	000b5d9c 	muleq	fp, ip, sp
    4778:	69702400 	ldmdbvs	r0!, {sl, sp}^
    477c:	2801006e 	stmdacs	r1, {r1, r2, r3, r5, r6}
    4780:	0000002c 	andeq	r0, r0, ip, lsr #32
    4784:	0000153d 	andeq	r1, r0, sp, lsr r5
    4788:	000ba82c 	andeq	sl, fp, ip, lsr #16
    478c:	00280100 	eoreq	r0, r8, r0, lsl #2
    4790:	5e000009 	cdppl	0, 0, cr0, cr0, cr9, {0}
    4794:	2d000015 	stccs	0, cr0, [r0, #-84]	; 0xffffffac
    4798:	0066666f 	rsbeq	r6, r6, pc, ror #12
    479c:	002c2d01 	eoreq	r2, ip, r1, lsl #26
    47a0:	54010000 	strpl	r0, [r1], #-0
    47a4:	0100672d 	tsteq	r0, sp, lsr #14
    47a8:	00002c2f 	andeq	r2, r0, pc, lsr #24
    47ac:	26560100 	ldrbcs	r0, [r6], -r0, lsl #2
    47b0:	31010076 	tstcc	r1, r6, ror r0
    47b4:	0000002c 	andeq	r0, r0, ip, lsr #32
    47b8:	0000157f 	andeq	r1, r0, pc, ror r5
    47bc:	0097802a 	addseq	r8, r7, sl, lsr #32
    47c0:	000b5d00 	andeq	r5, fp, r0, lsl #26
    47c4:	000b4c00 	andeq	r4, fp, r0, lsl #24
    47c8:	50012800 	andpl	r2, r1, r0, lsl #16
    47cc:	00007602 	andeq	r7, r0, r2, lsl #12
    47d0:	00979427 	addseq	r9, r7, r7, lsr #8
    47d4:	000b6800 	andeq	r6, fp, r0, lsl #16
    47d8:	50012800 	andpl	r2, r1, r0, lsl #16
    47dc:	00007602 	andeq	r7, r0, r2, lsl #12
    47e0:	06bf2e00 	ldrteq	r2, [pc], r0, lsl #28
    47e4:	06bf0000 	ldrteq	r0, [pc], r0
    47e8:	a7060000 	strge	r0, [r6, -r0]
    47ec:	0006712e 	andeq	r7, r6, lr, lsr #2
    47f0:	00067100 	andeq	r7, r6, r0, lsl #2
    47f4:	009b0600 	addseq	r0, fp, r0, lsl #12
    47f8:	00000c24 	andeq	r0, r0, r4, lsr #24
    47fc:	14410004 	strbne	r0, [r1], #-4
    4800:	01040000 	mrseq	r0, (UNDEF: 4)
    4804:	00000a92 	muleq	r0, r2, sl
    4808:	000cd30c 	andeq	sp, ip, ip, lsl #6
    480c:	00080400 	andeq	r0, r8, r0, lsl #8
    4810:	00985400 	addseq	r5, r8, r0, lsl #8
    4814:	00019400 	andeq	r9, r1, r0, lsl #8
    4818:	00114d00 	andseq	r4, r1, r0, lsl #26
    481c:	05040200 	streq	r0, [r4, #-512]	; 0x200
    4820:	00746e69 	rsbseq	r6, r4, r9, ror #28
    4824:	34070403 	strcc	r0, [r7], #-1027	; 0x403
    4828:	03000001 	movweq	r0, #1
    482c:	00e20601 	rsceq	r0, r2, r1, lsl #12
    4830:	02030000 	andeq	r0, r3, #0
    4834:	00015805 	andeq	r5, r1, r5, lsl #16
    4838:	05040300 	streq	r0, [r4, #-768]	; 0x300
    483c:	0000014f 	andeq	r0, r0, pc, asr #2
    4840:	4a050803 	bmi	146854 <__bss_end__+0x13c094>
    4844:	03000001 	movweq	r0, #1
    4848:	00e00801 	rsceq	r0, r0, r1, lsl #16
    484c:	02030000 	andeq	r0, r3, #0
    4850:	0000ee07 	andeq	lr, r0, r7, lsl #28
    4854:	07040300 	streq	r0, [r4, -r0, lsl #6]
    4858:	0000012f 	andeq	r0, r0, pc, lsr #2
    485c:	2a070803 	bcs	1c6870 <__bss_end__+0x1bc0b0>
    4860:	04000001 	streq	r0, [r0], #-1
    4864:	000009a7 	andeq	r0, r0, r7, lsr #19
    4868:	00250702 	eoreq	r0, r5, r2, lsl #14
    486c:	91040000 	mrsls	r0, (UNDEF: 4)
    4870:	03000009 	movweq	r0, #9
    4874:	0000412c 	andeq	r4, r0, ip, lsr #2
    4878:	0a6d0400 	beq	1b45880 <__bss_end__+0x1b3b0c0>
    487c:	72030000 	andvc	r0, r3, #0
    4880:	00000041 	andeq	r0, r0, r1, asr #32
    4884:	00093505 	andeq	r3, r9, r5, lsl #10
    4888:	01650400 	cmneq	r5, r0, lsl #8
    488c:	0000002c 	andeq	r0, r0, ip, lsr #32
    4890:	a6030406 	strge	r0, [r3], -r6, lsl #8
    4894:	000000b7 	strheq	r0, [r0], -r7
    4898:	00092007 	andeq	r2, r9, r7
    489c:	8ca80300 	stchi	3, cr0, [r8]
    48a0:	07000000 	streq	r0, [r0, -r0]
    48a4:	000008bc 			; <UNDEFINED> instruction: 0x000008bc
    48a8:	00b7a903 	adcseq	sl, r7, r3, lsl #18
    48ac:	08000000 	stmdaeq	r0, {}	; <UNPREDICTABLE>
    48b0:	0000004f 	andeq	r0, r0, pc, asr #32
    48b4:	000000c7 	andeq	r0, r0, r7, asr #1
    48b8:	0000c709 	andeq	ip, r0, r9, lsl #14
    48bc:	03000300 	movweq	r0, #768	; 0x300
    48c0:	01410704 	cmpeq	r1, r4, lsl #14
    48c4:	080a0000 	stmdaeq	sl, {}	; <UNPREDICTABLE>
    48c8:	00efa303 	rsceq	sl, pc, r3, lsl #6
    48cc:	520b0000 	andpl	r0, fp, #0
    48d0:	0300000a 	movweq	r0, #10
    48d4:	000025a5 	andeq	r2, r0, r5, lsr #11
    48d8:	5a0b0000 	bpl	2c48e0 <__bss_end__+0x2ba120>
    48dc:	0300000a 	movweq	r0, #10
    48e0:	000098aa 	andeq	r9, r0, sl, lsr #17
    48e4:	04000400 	streq	r0, [r0], #-1024	; 0x400
    48e8:	000009e5 	andeq	r0, r0, r5, ror #19
    48ec:	00ceab03 	sbceq	sl, lr, r3, lsl #22
    48f0:	85040000 	strhi	r0, [r4, #-0]
    48f4:	03000008 	movweq	r0, #8
    48f8:	00006baf 	andeq	r6, r0, pc, lsr #23
    48fc:	0d040c00 	stceq	12, cr0, [r4, #-0]
    4900:	00010d04 	andeq	r0, r1, r4, lsl #26
    4904:	08010300 	stmdaeq	r1, {r8, r9}
    4908:	000000e9 	andeq	r0, r0, r9, ror #1
    490c:	00010d0e 	andeq	r0, r1, lr, lsl #26
    4910:	0b0f0400 	bleq	3c5918 <__bss_end__+0x3bb158>
    4914:	16050000 	strne	r0, [r5], -r0
    4918:	0000005d 	andeq	r0, r0, sp, asr r0
    491c:	0008960f 	andeq	r9, r8, pc, lsl #12
    4920:	2d051800 	stccs	8, cr1, [r5, #-0]
    4924:	00000177 	andeq	r0, r0, r7, ror r1
    4928:	000a060b 	andeq	r0, sl, fp, lsl #12
    492c:	772f0500 	strvc	r0, [pc, -r0, lsl #10]!
    4930:	00000001 	andeq	r0, r0, r1
    4934:	006b5f10 	rsbeq	r5, fp, r0, lsl pc
    4938:	00253005 	eoreq	r3, r5, r5
    493c:	0b040000 	bleq	104944 <__bss_end__+0xfa184>
    4940:	00000a3d 	andeq	r0, r0, sp, lsr sl
    4944:	00253005 	eoreq	r3, r5, r5
    4948:	0b080000 	bleq	204950 <__bss_end__+0x1fa190>
    494c:	00000871 	andeq	r0, r0, r1, ror r8
    4950:	00253005 	eoreq	r3, r5, r5
    4954:	0b0c0000 	bleq	30495c <__bss_end__+0x2fa19c>
    4958:	00000b56 	andeq	r0, r0, r6, asr fp
    495c:	00253005 	eoreq	r3, r5, r5
    4960:	10100000 	andsne	r0, r0, r0
    4964:	0500785f 	streq	r7, [r0, #-2143]	; 0x85f
    4968:	00017d31 	andeq	r7, r1, r1, lsr sp
    496c:	0d001400 	cfstrseq	mvf1, [r0, #-0]
    4970:	00012404 	andeq	r2, r1, r4, lsl #8
    4974:	01190800 	tsteq	r9, r0, lsl #16
    4978:	018d0000 	orreq	r0, sp, r0
    497c:	c7090000 	strgt	r0, [r9, -r0]
    4980:	00000000 	andeq	r0, r0, r0
    4984:	08b70f00 	ldmeq	r7!, {r8, r9, sl, fp}
    4988:	05240000 	streq	r0, [r4, #-0]!
    498c:	00020635 	andeq	r0, r2, r5, lsr r6
    4990:	076f0b00 	strbeq	r0, [pc, -r0, lsl #22]!
    4994:	37050000 	strcc	r0, [r5, -r0]
    4998:	00000025 	andeq	r0, r0, r5, lsr #32
    499c:	0a750b00 	beq	1d475a4 <__bss_end__+0x1d3cde4>
    49a0:	38050000 	stmdacc	r5, {}	; <UNPREDICTABLE>
    49a4:	00000025 	andeq	r0, r0, r5, lsr #32
    49a8:	079d0b04 	ldreq	r0, [sp, r4, lsl #22]
    49ac:	39050000 	stmdbcc	r5, {}	; <UNPREDICTABLE>
    49b0:	00000025 	andeq	r0, r0, r5, lsr #32
    49b4:	0c460b08 	mcrreq	11, 0, r0, r6, cr8
    49b8:	3a050000 	bcc	1449c0 <__bss_end__+0x13a200>
    49bc:	00000025 	andeq	r0, r0, r5, lsr #32
    49c0:	09750b0c 	ldmdbeq	r5!, {r2, r3, r8, r9, fp}^
    49c4:	3b050000 	blcc	1449cc <__bss_end__+0x13a20c>
    49c8:	00000025 	andeq	r0, r0, r5, lsr #32
    49cc:	094a0b10 	stmdbeq	sl, {r4, r8, r9, fp}^
    49d0:	3c050000 	stccc	0, cr0, [r5], {-0}
    49d4:	00000025 	andeq	r0, r0, r5, lsr #32
    49d8:	0b5b0b14 	bleq	16c7630 <__bss_end__+0x16bce70>
    49dc:	3d050000 	stccc	0, cr0, [r5, #-0]
    49e0:	00000025 	andeq	r0, r0, r5, lsr #32
    49e4:	09c70b18 	stmibeq	r7, {r3, r4, r8, r9, fp}^
    49e8:	3e050000 	cdpcc	0, 0, cr0, cr5, cr0, {0}
    49ec:	00000025 	andeq	r0, r0, r5, lsr #32
    49f0:	0c0d0b1c 	stceq	11, cr0, [sp], {28}
    49f4:	3f050000 	svccc	0x00050000
    49f8:	00000025 	andeq	r0, r0, r5, lsr #32
    49fc:	ac110020 	ldcge	0, cr0, [r1], {32}
    4a00:	08000007 	stmdaeq	r0, {r0, r1, r2}
    4a04:	46480501 	strbmi	r0, [r8], -r1, lsl #10
    4a08:	0b000002 	bleq	4a18 <_start-0x35e8>
    4a0c:	00000858 	andeq	r0, r0, r8, asr r8
    4a10:	02464905 	subeq	r4, r6, #81920	; 0x14000
    4a14:	0b000000 	bleq	4a1c <_start-0x35e4>
    4a18:	000006f0 	strdeq	r0, [r0], -r0	; <UNPREDICTABLE>
    4a1c:	02464a05 	subeq	r4, r6, #20480	; 0x5000
    4a20:	12800000 	addne	r0, r0, #0
    4a24:	00000b01 	andeq	r0, r0, r1, lsl #22
    4a28:	01194c05 	tsteq	r9, r5, lsl #24
    4a2c:	01000000 	mrseq	r0, (UNDEF: 0)
    4a30:	0007d112 	andeq	sp, r7, r2, lsl r1
    4a34:	194f0500 	stmdbne	pc, {r8, sl}^	; <UNPREDICTABLE>
    4a38:	04000001 	streq	r0, [r0], #-1
    4a3c:	05080001 	streq	r0, [r8, #-1]
    4a40:	56000001 	strpl	r0, [r0], -r1
    4a44:	09000002 	stmdbeq	r0, {r1}
    4a48:	000000c7 	andeq	r0, r0, r7, asr #1
    4a4c:	7e11001f 	mrcvc	0, 0, r0, cr1, cr15, {0}
    4a50:	90000009 	andls	r0, r0, r9
    4a54:	945b0501 	ldrbls	r0, [fp], #-1281	; 0x501
    4a58:	0b000002 	bleq	4a68 <_start-0x3598>
    4a5c:	00000a06 	andeq	r0, r0, r6, lsl #20
    4a60:	02945c05 	addseq	r5, r4, #1280	; 0x500
    4a64:	0b000000 	bleq	4a6c <_start-0x3594>
    4a68:	00000a1e 	andeq	r0, r0, lr, lsl sl
    4a6c:	00255d05 	eoreq	r5, r5, r5, lsl #26
    4a70:	0b040000 	bleq	104a78 <__bss_end__+0xfa2b8>
    4a74:	0000086c 	andeq	r0, r0, ip, ror #16
    4a78:	029a5f05 	addseq	r5, sl, #5, 30
    4a7c:	0b080000 	bleq	204a84 <__bss_end__+0x1fa2c4>
    4a80:	000007ac 	andeq	r0, r0, ip, lsr #15
    4a84:	02066005 	andeq	r6, r6, #5
    4a88:	00880000 	addeq	r0, r8, r0
    4a8c:	0256040d 	subseq	r0, r6, #218103808	; 0xd000000
    4a90:	aa080000 	bge	204a98 <__bss_end__+0x1fa2d8>
    4a94:	aa000002 	bge	4aa4 <_start-0x355c>
    4a98:	09000002 	stmdbeq	r0, {r1}
    4a9c:	000000c7 	andeq	r0, r0, r7, asr #1
    4aa0:	040d001f 	streq	r0, [sp], #-31
    4aa4:	000002b0 			; <UNDEFINED> instruction: 0x000002b0
    4aa8:	09d10f13 	ldmibeq	r1, {r0, r1, r4, r8, r9, sl, fp}^
    4aac:	05080000 	streq	r0, [r8, #-0]
    4ab0:	0002d673 	andeq	sp, r2, r3, ror r6
    4ab4:	07920b00 	ldreq	r0, [r2, r0, lsl #22]
    4ab8:	74050000 	strvc	r0, [r5], #-0
    4abc:	000002d6 	ldrdeq	r0, [r0], -r6
    4ac0:	01b70b00 			; <UNDEFINED> instruction: 0x01b70b00
    4ac4:	75050000 	strvc	r0, [r5, #-0]
    4ac8:	00000025 	andeq	r0, r0, r5, lsr #32
    4acc:	040d0004 	streq	r0, [sp], #-4
    4ad0:	0000004f 	andeq	r0, r0, pc, asr #32
    4ad4:	0009f00f 	andeq	pc, r9, pc
    4ad8:	b3056800 	movwlt	r6, #22528	; 0x5800
    4adc:	00000406 	andeq	r0, r0, r6, lsl #8
    4ae0:	00705f10 	rsbseq	r5, r0, r0, lsl pc
    4ae4:	02d6b405 	sbcseq	fp, r6, #83886080	; 0x5000000
    4ae8:	10000000 	andne	r0, r0, r0
    4aec:	0500725f 	streq	r7, [r0, #-607]	; 0x25f
    4af0:	000025b5 			; <UNDEFINED> instruction: 0x000025b5
    4af4:	5f100400 	svcpl	0x00100400
    4af8:	b6050077 			; <UNDEFINED> instruction: 0xb6050077
    4afc:	00000025 	andeq	r0, r0, r5, lsr #32
    4b00:	07ca0b08 	strbeq	r0, [sl, r8, lsl #22]
    4b04:	b7050000 	strlt	r0, [r5, -r0]
    4b08:	0000003a 	andeq	r0, r0, sl, lsr r0
    4b0c:	08dd0b0c 	ldmeq	sp, {r2, r3, r8, r9, fp}^
    4b10:	b8050000 	stmdalt	r5, {}	; <UNPREDICTABLE>
    4b14:	0000003a 	andeq	r0, r0, sl, lsr r0
    4b18:	625f100e 	subsvs	r1, pc, #14
    4b1c:	b9050066 	stmdblt	r5, {r1, r2, r5, r6}
    4b20:	000002b1 			; <UNDEFINED> instruction: 0x000002b1
    4b24:	07390b10 			; <UNDEFINED> instruction: 0x07390b10
    4b28:	ba050000 	blt	144b30 <__bss_end__+0x13a370>
    4b2c:	00000025 	andeq	r0, r0, r5, lsr #32
    4b30:	07ba0b18 			; <UNDEFINED> instruction: 0x07ba0b18
    4b34:	c1050000 	mrsgt	r0, (UNDEF: 5)
    4b38:	00000105 	andeq	r0, r0, r5, lsl #2
    4b3c:	0c6d0b1c 	stcleq	11, cr0, [sp], #-112	; 0xffffff90
    4b40:	c3050000 	movwgt	r0, #20480	; 0x5000
    4b44:	00000561 	andeq	r0, r0, r1, ror #10
    4b48:	0c870b20 	vstmiaeq	r7, {d0-d15}
    4b4c:	c5050000 	strgt	r0, [r5, #-0]
    4b50:	0000058b 	andeq	r0, r0, fp, lsl #11
    4b54:	0a620b24 	beq	18877ec <__bss_end__+0x187d02c>
    4b58:	c8050000 	stmdagt	r5, {}	; <UNPREDICTABLE>
    4b5c:	000005af 	andeq	r0, r0, pc, lsr #11
    4b60:	0c270b28 	stceq	11, cr0, [r7], #-160	; 0xffffff60
    4b64:	c9050000 	stmdbgt	r5, {}	; <UNPREDICTABLE>
    4b68:	000005c9 	andeq	r0, r0, r9, asr #11
    4b6c:	755f102c 	ldrbvc	r1, [pc, #-44]	; 4b48 <_start-0x34b8>
    4b70:	cc050062 	stcgt	0, cr0, [r5], {98}	; 0x62
    4b74:	000002b1 			; <UNDEFINED> instruction: 0x000002b1
    4b78:	755f1030 	ldrbvc	r1, [pc, #-48]	; 4b50 <_start-0x34b0>
    4b7c:	cd050070 	stcgt	0, cr0, [r5, #-448]	; 0xfffffe40
    4b80:	000002d6 	ldrdeq	r0, [r0], -r6
    4b84:	755f1038 	ldrbvc	r1, [pc, #-56]	; 4b54 <_start-0x34ac>
    4b88:	ce050072 	mcrgt	0, 0, r0, cr5, cr2, {3}
    4b8c:	00000025 	andeq	r0, r0, r5, lsr #32
    4b90:	077d0b3c 			; <UNDEFINED> instruction: 0x077d0b3c
    4b94:	d1050000 	mrsle	r0, (UNDEF: 5)
    4b98:	000005cf 	andeq	r0, r0, pc, asr #11
    4b9c:	0bd20b40 	bleq	ff4878a4 <__bss_end__+0xff47d0e4>
    4ba0:	d2050000 	andle	r0, r5, #0
    4ba4:	000005df 	ldrdeq	r0, [r0], -pc	; <UNPREDICTABLE>
    4ba8:	6c5f1043 	mrrcvs	0, 4, r1, pc, cr3	; <UNPREDICTABLE>
    4bac:	d5050062 	strle	r0, [r5, #-98]	; 0x62
    4bb0:	000002b1 			; <UNDEFINED> instruction: 0x000002b1
    4bb4:	07e00b44 	strbeq	r0, [r0, r4, asr #22]!
    4bb8:	d8050000 	stmdale	r5, {}	; <UNPREDICTABLE>
    4bbc:	00000025 	andeq	r0, r0, r5, lsr #32
    4bc0:	09540b4c 	ldmdbeq	r4, {r2, r3, r6, r8, r9, fp}^
    4bc4:	d9050000 	stmdble	r5, {}	; <UNPREDICTABLE>
    4bc8:	00000076 	andeq	r0, r0, r6, ror r0
    4bcc:	0bbd0b50 	bleq	fef47914 <__bss_end__+0xfef3d154>
    4bd0:	dc050000 	stcle	0, cr0, [r5], {-0}
    4bd4:	00000424 	andeq	r0, r0, r4, lsr #8
    4bd8:	093c0b54 	ldmdbeq	ip!, {r2, r4, r6, r8, r9, fp}
    4bdc:	e0050000 	and	r0, r5, r0
    4be0:	000000fa 	strdeq	r0, [r0], -sl
    4be4:	09f80b58 	ldmibeq	r8!, {r3, r4, r6, r8, r9, fp}^
    4be8:	e2050000 	and	r0, r5, #0
    4bec:	000000ef 	andeq	r0, r0, pc, ror #1
    4bf0:	09420b5c 	stmdbeq	r2, {r2, r3, r4, r6, r8, r9, fp}^
    4bf4:	e3050000 	movw	r0, #20480	; 0x5000
    4bf8:	00000025 	andeq	r0, r0, r5, lsr #32
    4bfc:	25140064 	ldrcs	r0, [r4, #-100]	; 0x64
    4c00:	24000000 	strcs	r0, [r0], #-0
    4c04:	15000004 	strne	r0, [r0, #-4]
    4c08:	00000424 	andeq	r0, r0, r4, lsr #8
    4c0c:	00010515 	andeq	r0, r1, r5, lsl r5
    4c10:	01071500 	tsteq	r7, r0, lsl #10
    4c14:	25150000 	ldrcs	r0, [r5, #-0]
    4c18:	00000000 	andeq	r0, r0, r0
    4c1c:	042f040d 	strteq	r0, [pc], #-1037	; 4c24 <_start-0x33dc>
    4c20:	240e0000 	strcs	r0, [lr], #-0
    4c24:	16000004 	strne	r0, [r0], -r4
    4c28:	00000a45 	andeq	r0, r0, r5, asr #20
    4c2c:	38050428 	stmdacc	r5, {r3, r5, sl}
    4c30:	00056102 	andeq	r6, r5, r2, lsl #2
    4c34:	09c01700 	stmibeq	r0, {r8, r9, sl, ip}^
    4c38:	3a050000 	bcc	144c40 <__bss_end__+0x13a480>
    4c3c:	00002502 	andeq	r2, r0, r2, lsl #10
    4c40:	d9170000 	ldmdble	r7, {}	; <UNPREDICTABLE>
    4c44:	05000007 	streq	r0, [r0, #-7]
    4c48:	0636023f 			; <UNDEFINED> instruction: 0x0636023f
    4c4c:	17040000 	strne	r0, [r4, -r0]
    4c50:	000008cd 	andeq	r0, r0, sp, asr #17
    4c54:	36023f05 	strcc	r3, [r2], -r5, lsl #30
    4c58:	08000006 	stmdaeq	r0, {r1, r2}
    4c5c:	00088e17 	andeq	r8, r8, r7, lsl lr
    4c60:	023f0500 	eorseq	r0, pc, #0, 10
    4c64:	00000636 	andeq	r0, r0, r6, lsr r6
    4c68:	0a19170c 	beq	64a8a0 <__bss_end__+0x6400e0>
    4c6c:	41050000 	mrsmi	r0, (UNDEF: 5)
    4c70:	00002502 	andeq	r2, r0, r2, lsl #10
    4c74:	04171000 	ldreq	r1, [r7], #-0
    4c78:	05000007 	streq	r0, [r0, #-7]
    4c7c:	08180242 	ldmdaeq	r8, {r1, r6, r9}
    4c80:	17140000 	ldrne	r0, [r4, -r0]
    4c84:	00000b37 	andeq	r0, r0, r7, lsr fp
    4c88:	25024405 	strcs	r4, [r2, #-1029]	; 0x405
    4c8c:	30000000 	andcc	r0, r0, r0
    4c90:	000a2317 	andeq	r2, sl, r7, lsl r3
    4c94:	02450500 	subeq	r0, r5, #0, 10
    4c98:	00000585 	andeq	r0, r0, r5, lsl #11
    4c9c:	09861734 	stmibeq	r6, {r2, r4, r5, r8, r9, sl, ip}
    4ca0:	47050000 	strmi	r0, [r5, -r0]
    4ca4:	00002502 	andeq	r2, r0, r2, lsl #10
    4ca8:	33173800 	tstcc	r7, #0, 16
    4cac:	0500000a 	streq	r0, [r0, #-10]
    4cb0:	08330249 	ldmdaeq	r3!, {r0, r3, r6, r9}
    4cb4:	173c0000 	ldrne	r0, [ip, -r0]!
    4cb8:	00000918 	andeq	r0, r0, r8, lsl r9
    4cbc:	77024c05 	strvc	r4, [r2, -r5, lsl #24]
    4cc0:	40000001 	andmi	r0, r0, r1
    4cc4:	0008ad17 	andeq	sl, r8, r7, lsl sp
    4cc8:	024d0500 	subeq	r0, sp, #0, 10
    4ccc:	00000025 	andeq	r0, r0, r5, lsr #32
    4cd0:	0c411744 	mcrreq	7, 4, r1, r1, cr4
    4cd4:	4e050000 	cdpmi	0, 0, cr0, cr5, cr0, {0}
    4cd8:	00017702 	andeq	r7, r1, r2, lsl #14
    4cdc:	9d174800 	ldcls	8, cr4, [r7, #-0]
    4ce0:	05000009 	streq	r0, [r0, #-9]
    4ce4:	0839024f 	ldmdaeq	r9!, {r0, r1, r2, r3, r6, r9}
    4ce8:	174c0000 	strbne	r0, [ip, -r0]
    4cec:	000008d5 	ldrdeq	r0, [r0], -r5
    4cf0:	25025205 	strcs	r5, [r2, #-517]	; 0x205
    4cf4:	50000000 	andpl	r0, r0, r0
    4cf8:	0007fc17 	andeq	pc, r7, r7, lsl ip	; <UNPREDICTABLE>
    4cfc:	02530500 	subseq	r0, r3, #0, 10
    4d00:	00000107 	andeq	r0, r0, r7, lsl #2
    4d04:	09b91754 	ldmibeq	r9!, {r2, r4, r6, r8, r9, sl, ip}
    4d08:	76050000 	strvc	r0, [r5], -r0
    4d0c:	0007f602 	andeq	pc, r7, r2, lsl #12
    4d10:	7e185800 	cdpvc	8, 1, cr5, cr8, cr0, {0}
    4d14:	05000009 	streq	r0, [r0, #-9]
    4d18:	0294027a 	addseq	r0, r4, #-1610612729	; 0xa0000007
    4d1c:	01480000 	mrseq	r0, (UNDEF: 72)
    4d20:	0008ea18 	andeq	lr, r8, r8, lsl sl
    4d24:	027b0500 	rsbseq	r0, fp, #0, 10
    4d28:	00000256 	andeq	r0, r0, r6, asr r2
    4d2c:	a318014c 	tstge	r8, #76, 2
    4d30:	0500000b 	streq	r0, [r0, #-11]
    4d34:	084a027f 	stmdaeq	sl, {r0, r1, r2, r3, r4, r5, r6, r9}^
    4d38:	02dc0000 	sbcseq	r0, ip, #0
    4d3c:	0007c218 	andeq	ip, r7, r8, lsl r2
    4d40:	02840500 	addeq	r0, r4, #0, 10
    4d44:	000005fb 	strdeq	r0, [r0], -fp
    4d48:	a71802e0 	ldrge	r0, [r8, -r0, ror #5]
    4d4c:	05000007 	streq	r0, [r0, #-7]
    4d50:	08560285 	ldmdaeq	r6, {r0, r2, r7, r9}^
    4d54:	02ec0000 	rsceq	r0, ip, #0
    4d58:	06040d00 	streq	r0, [r4], -r0, lsl #26
    4d5c:	14000004 	strne	r0, [r0], #-4
    4d60:	00000025 	andeq	r0, r0, r5, lsr #32
    4d64:	00000585 	andeq	r0, r0, r5, lsl #11
    4d68:	00042415 	andeq	r2, r4, r5, lsl r4
    4d6c:	01051500 	tsteq	r5, r0, lsl #10
    4d70:	85150000 	ldrhi	r0, [r5, #-0]
    4d74:	15000005 	strne	r0, [r0, #-5]
    4d78:	00000025 	andeq	r0, r0, r5, lsr #32
    4d7c:	14040d00 	strne	r0, [r4], #-3328	; 0xd00
    4d80:	0d000001 	stceq	0, cr0, [r0, #-4]
    4d84:	00056704 	andeq	r6, r5, r4, lsl #14
    4d88:	00811400 	addeq	r1, r1, r0, lsl #8
    4d8c:	05af0000 	streq	r0, [pc, #0]!	; 4d94 <_start-0x326c>
    4d90:	24150000 	ldrcs	r0, [r5], #-0
    4d94:	15000004 	strne	r0, [r0, #-4]
    4d98:	00000105 	andeq	r0, r0, r5, lsl #2
    4d9c:	00008115 	andeq	r8, r0, r5, lsl r1
    4da0:	00251500 	eoreq	r1, r5, r0, lsl #10
    4da4:	0d000000 	stceq	0, cr0, [r0, #-0]
    4da8:	00059104 	andeq	r9, r5, r4, lsl #2
    4dac:	00251400 	eoreq	r1, r5, r0, lsl #8
    4db0:	05c90000 	strbeq	r0, [r9]
    4db4:	24150000 	ldrcs	r0, [r5], #-0
    4db8:	15000004 	strne	r0, [r0, #-4]
    4dbc:	00000105 	andeq	r0, r0, r5, lsl #2
    4dc0:	b5040d00 	strlt	r0, [r4, #-3328]	; 0xd00
    4dc4:	08000005 	stmdaeq	r0, {r0, r2}
    4dc8:	0000004f 	andeq	r0, r0, pc, asr #32
    4dcc:	000005df 	ldrdeq	r0, [r0], -pc	; <UNPREDICTABLE>
    4dd0:	0000c709 	andeq	ip, r0, r9, lsl #14
    4dd4:	08000200 	stmdaeq	r0, {r9}
    4dd8:	0000004f 	andeq	r0, r0, pc, asr #32
    4ddc:	000005ef 	andeq	r0, r0, pc, ror #11
    4de0:	0000c709 	andeq	ip, r0, r9, lsl #14
    4de4:	05000000 	streq	r0, [r0, #-0]
    4de8:	000009de 	ldrdeq	r0, [r0], -lr
    4dec:	dc011d05 	stcle	13, cr1, [r1], {5}
    4df0:	19000002 	stmdbne	r0, {r1}
    4df4:	00000b65 	andeq	r0, r0, r5, ror #22
    4df8:	0121050c 	teqeq	r1, ip, lsl #10
    4dfc:	00000630 	andeq	r0, r0, r0, lsr r6
    4e00:	000a0617 	andeq	r0, sl, r7, lsl r6
    4e04:	01230500 	teqeq	r3, r0, lsl #10
    4e08:	00000630 	andeq	r0, r0, r0, lsr r6
    4e0c:	08e31700 	stmiaeq	r3!, {r8, r9, sl, ip}^
    4e10:	24050000 	strcs	r0, [r5], #-0
    4e14:	00002501 	andeq	r2, r0, r1, lsl #10
    4e18:	d8170400 	ldmdale	r7, {sl}
    4e1c:	05000009 	streq	r0, [r0, #-9]
    4e20:	06360125 	ldrteq	r0, [r6], -r5, lsr #2
    4e24:	00080000 	andeq	r0, r8, r0
    4e28:	05fb040d 	ldrbeq	r0, [fp, #1037]!	; 0x40d
    4e2c:	040d0000 	streq	r0, [sp], #-0
    4e30:	000005ef 	andeq	r0, r0, pc, ror #11
    4e34:	0006fc19 	andeq	pc, r6, r9, lsl ip	; <UNPREDICTABLE>
    4e38:	3d050e00 	stccc	14, cr0, [r5, #-0]
    4e3c:	00067101 	andeq	r7, r6, r1, lsl #2
    4e40:	0a4c1700 	beq	130aa48 <__bss_end__+0x1300288>
    4e44:	3e050000 	cdpcc	0, 0, cr0, cr5, cr0, {0}
    4e48:	00067101 	andeq	r7, r6, r1, lsl #2
    4e4c:	86170000 	ldrhi	r0, [r7], -r0
    4e50:	0500000a 	streq	r0, [r0, #-10]
    4e54:	0671013f 			; <UNDEFINED> instruction: 0x0671013f
    4e58:	17060000 	strne	r0, [r6, -r0]
    4e5c:	00000b0a 	andeq	r0, r0, sl, lsl #22
    4e60:	56014005 	strpl	r4, [r1], -r5
    4e64:	0c000000 	stceq	0, cr0, [r0], {-0}
    4e68:	00560800 	subseq	r0, r6, r0, lsl #16
    4e6c:	06810000 	streq	r0, [r1], r0
    4e70:	c7090000 	strgt	r0, [r9, -r0]
    4e74:	02000000 	andeq	r0, r0, #0
    4e78:	05d01a00 	ldrbeq	r1, [r0, #2560]	; 0xa00
    4e7c:	07820257 			; <UNDEFINED> instruction: 0x07820257
    4e80:	49170000 	ldmdbmi	r7, {}	; <UNPREDICTABLE>
    4e84:	0500000b 	streq	r0, [r0, #-11]
    4e88:	002c0259 	eoreq	r0, ip, r9, asr r2
    4e8c:	17000000 	strne	r0, [r0, -r0]
    4e90:	00000af4 	strdeq	r0, [r0], -r4
    4e94:	07025a05 	streq	r5, [r2, -r5, lsl #20]
    4e98:	04000001 	streq	r0, [r0], #-1
    4e9c:	0008ff17 	andeq	pc, r8, r7, lsl pc	; <UNPREDICTABLE>
    4ea0:	025b0500 	subseq	r0, fp, #0, 10
    4ea4:	00000782 	andeq	r0, r0, r2, lsl #15
    4ea8:	0c181708 	ldceq	7, cr1, [r8], {8}
    4eac:	5c050000 	stcpl	0, cr0, [r5], {-0}
    4eb0:	00018d02 	andeq	r8, r1, r2, lsl #26
    4eb4:	9e172400 	cfmulsls	mvf2, mvf7, mvf0
    4eb8:	05000008 	streq	r0, [r0, #-8]
    4ebc:	0025025d 	eoreq	r0, r5, sp, asr r2
    4ec0:	17480000 	strbne	r0, [r8, -r0]
    4ec4:	00000a01 	andeq	r0, r0, r1, lsl #20
    4ec8:	64025e05 	strvs	r5, [r2], #-3589	; 0xe05
    4ecc:	50000000 	andpl	r0, r0, r0
    4ed0:	000c2e17 	andeq	r2, ip, r7, lsl lr
    4ed4:	025f0500 	subseq	r0, pc, #0, 10
    4ed8:	0000063c 	andeq	r0, r0, ip, lsr r6
    4edc:	0a0c1758 	beq	30ac44 <__bss_end__+0x300484>
    4ee0:	60050000 	andvs	r0, r5, r0
    4ee4:	0000ef02 	andeq	lr, r0, r2, lsl #30
    4ee8:	33176800 	tstcc	r7, #0, 16
    4eec:	0500000c 	streq	r0, [r0, #-12]
    4ef0:	00ef0261 	rsceq	r0, pc, r1, ror #4
    4ef4:	17700000 	ldrbne	r0, [r0, -r0]!
    4ef8:	00000761 	andeq	r0, r0, r1, ror #14
    4efc:	ef026205 	svc	0x00026205
    4f00:	78000000 	stmdavc	r0, {}	; <UNPREDICTABLE>
    4f04:	000b8517 	andeq	r8, fp, r7, lsl r5
    4f08:	02630500 	rsbeq	r0, r3, #0, 10
    4f0c:	00000792 	muleq	r0, r2, r7
    4f10:	08f31780 	ldmeq	r3!, {r7, r8, r9, sl, ip}^
    4f14:	64050000 	strvs	r0, [r5], #-0
    4f18:	0007a202 	andeq	sl, r7, r2, lsl #4
    4f1c:	17178800 	ldrne	r8, [r7, -r0, lsl #16]
    4f20:	0500000b 	streq	r0, [r0, #-11]
    4f24:	00250265 	eoreq	r0, r5, r5, ror #4
    4f28:	17a00000 	strne	r0, [r0, r0]!
    4f2c:	0000084a 	andeq	r0, r0, sl, asr #16
    4f30:	ef026605 	svc	0x00026605
    4f34:	a4000000 	strge	r0, [r0], #-0
    4f38:	00075217 	andeq	r5, r7, r7, lsl r2
    4f3c:	02670500 	rsbeq	r0, r7, #0, 10
    4f40:	000000ef 	andeq	r0, r0, pc, ror #1
    4f44:	083917ac 	ldmdaeq	r9!, {r2, r3, r5, r7, r8, r9, sl, ip}
    4f48:	68050000 	stmdavs	r5, {}	; <UNPREDICTABLE>
    4f4c:	0000ef02 	andeq	lr, r0, r2, lsl #30
    4f50:	1917b400 	ldmdbne	r7, {sl, ip, sp, pc}
    4f54:	05000007 	streq	r0, [r0, #-7]
    4f58:	00ef0269 	rsceq	r0, pc, r9, ror #4
    4f5c:	17bc0000 	ldrne	r0, [ip, r0]!
    4f60:	00000728 	andeq	r0, r0, r8, lsr #14
    4f64:	ef026a05 	svc	0x00026a05
    4f68:	c4000000 	strgt	r0, [r0], #-0
    4f6c:	0009be17 	andeq	fp, r9, r7, lsl lr
    4f70:	026b0500 	rsbeq	r0, fp, #0, 10
    4f74:	00000025 	andeq	r0, r0, r5, lsr #32
    4f78:	0d0800cc 	stceq	0, cr0, [r8, #-816]	; 0xfffffcd0
    4f7c:	92000001 	andls	r0, r0, #1
    4f80:	09000007 	stmdbeq	r0, {r0, r1, r2}
    4f84:	000000c7 	andeq	r0, r0, r7, asr #1
    4f88:	0d080019 	stceq	0, cr0, [r8, #-100]	; 0xffffff9c
    4f8c:	a2000001 	andge	r0, r0, #1
    4f90:	09000007 	stmdbeq	r0, {r0, r1, r2}
    4f94:	000000c7 	andeq	r0, r0, r7, asr #1
    4f98:	0d080007 	stceq	0, cr0, [r8, #-28]	; 0xffffffe4
    4f9c:	b2000001 	andlt	r0, r0, #1
    4fa0:	09000007 	stmdbeq	r0, {r0, r1, r2}
    4fa4:	000000c7 	andeq	r0, r0, r7, asr #1
    4fa8:	f01a0017 			; <UNDEFINED> instruction: 0xf01a0017
    4fac:	d6027005 	strle	r7, [r2], -r5
    4fb0:	17000007 	strne	r0, [r0, -r7]
    4fb4:	0000096e 	andeq	r0, r0, lr, ror #18
    4fb8:	d6027305 	strle	r7, [r2], -r5, lsl #6
    4fbc:	00000007 	andeq	r0, r0, r7
    4fc0:	000b7c17 	andeq	r7, fp, r7, lsl ip
    4fc4:	02740500 	rsbseq	r0, r4, #0, 10
    4fc8:	000007e6 	andeq	r0, r0, r6, ror #15
    4fcc:	d6080078 			; <UNDEFINED> instruction: 0xd6080078
    4fd0:	e6000002 	str	r0, [r0], -r2
    4fd4:	09000007 	stmdbeq	r0, {r0, r1, r2}
    4fd8:	000000c7 	andeq	r0, r0, r7, asr #1
    4fdc:	2c08001d 	stccs	0, cr0, [r8], {29}
    4fe0:	f6000000 			; <UNDEFINED> instruction: 0xf6000000
    4fe4:	09000007 	stmdbeq	r0, {r0, r1, r2}
    4fe8:	000000c7 	andeq	r0, r0, r7, asr #1
    4fec:	f01b001d 			; <UNDEFINED> instruction: 0xf01b001d
    4ff0:	18025505 	stmdane	r2, {r0, r2, r8, sl, ip, lr}
    4ff4:	1c000008 	stcne	0, cr0, [r0], {8}
    4ff8:	00000a45 	andeq	r0, r0, r5, asr #20
    4ffc:	81026c05 	tsthi	r2, r5, lsl #24
    5000:	1c000006 	stcne	0, cr0, [r0], {6}
    5004:	00000bd8 	ldrdeq	r0, [r0], -r8
    5008:	b2027505 	andlt	r7, r2, #20971520	; 0x1400000
    500c:	00000007 	andeq	r0, r0, r7
    5010:	00010d08 	andeq	r0, r1, r8, lsl #26
    5014:	00082800 	andeq	r2, r8, r0, lsl #16
    5018:	00c70900 	sbceq	r0, r7, r0, lsl #18
    501c:	00180000 	andseq	r0, r8, r0
    5020:	0008331d 	andeq	r3, r8, sp, lsl r3
    5024:	04241500 	strteq	r1, [r4], #-1280	; 0x500
    5028:	0d000000 	stceq	0, cr0, [r0, #-0]
    502c:	00082804 	andeq	r2, r8, r4, lsl #16
    5030:	77040d00 	strvc	r0, [r4, -r0, lsl #26]
    5034:	1d000001 	stcne	0, cr0, [r0, #-4]
    5038:	0000084a 	andeq	r0, r0, sl, asr #16
    503c:	00002515 	andeq	r2, r0, r5, lsl r5
    5040:	040d0000 	streq	r0, [sp], #-0
    5044:	00000850 	andeq	r0, r0, r0, asr r8
    5048:	083f040d 	ldmdaeq	pc!, {r0, r2, r3, sl}	; <UNPREDICTABLE>
    504c:	ef080000 	svc	0x00080000
    5050:	66000005 	strvs	r0, [r0], -r5
    5054:	09000008 	stmdbeq	r0, {r3}
    5058:	000000c7 	andeq	r0, r0, r7, asr #1
    505c:	2b1e0002 	blcs	78506c <__bss_end__+0x77a8ac>
    5060:	0500000b 	streq	r0, [r0, #-11]
    5064:	042402fd 	strteq	r0, [r4], #-765	; 0x2fd
    5068:	241e0000 	ldrcs	r0, [lr], #-0
    506c:	0500000b 	streq	r0, [r0, #-11]
    5070:	042a02fe 	strteq	r0, [sl], #-766	; 0x2fe
    5074:	25140000 	ldrcs	r0, [r4, #-0]
    5078:	8d000000 	stchi	0, cr0, [r0, #-0]
    507c:	15000008 	strne	r0, [r0, #-8]
    5080:	00000025 	andeq	r0, r0, r5, lsr #32
    5084:	05341f00 	ldreq	r1, [r4, #-3840]!	; 0xf00
    5088:	1d060000 	stcne	0, cr0, [r6, #-0]
    508c:	00000898 	muleq	r0, r8, r8
    5090:	087e040d 	ldmdaeq	lr!, {r0, r2, r3, sl}^
    5094:	25140000 	ldrcs	r0, [r4, #-0]
    5098:	ad000000 	stcge	0, cr0, [r0, #-0]
    509c:	15000008 	strne	r0, [r0, #-8]
    50a0:	00000585 	andeq	r0, r0, r5, lsl #11
    50a4:	05711f00 	ldrbeq	r1, [r1, #-3840]!	; 0xf00
    50a8:	22060000 	andcs	r0, r6, #0
    50ac:	000008b8 			; <UNDEFINED> instruction: 0x000008b8
    50b0:	089e040d 	ldmeq	lr, {r0, r2, r3, sl}
    50b4:	08030000 	stmdaeq	r3, {}	; <UNPREDICTABLE>
    50b8:	000cfa04 	andeq	pc, ip, r4, lsl #20
    50bc:	0d321f00 	ldceq	15, cr1, [r2, #-0]
    50c0:	0d010000 	stceq	0, cr0, [r1, #-0]
    50c4:	0000010d 	andeq	r0, r0, sp, lsl #2
    50c8:	00041220 	andeq	r1, r4, r0, lsr #4
    50cc:	070e0100 	streq	r0, [lr, -r0, lsl #2]
    50d0:	05000001 	streq	r0, [r0, #-1]
    50d4:	009a0803 	addseq	r0, sl, r3, lsl #16
    50d8:	0d492000 	stcleq	0, cr2, [r9, #-0]
    50dc:	0f010000 	svceq	0x00010000
    50e0:	00000107 	andeq	r0, r0, r7, lsl #2
    50e4:	9a0c0305 	bls	305d00 <__bss_end__+0x2fb540>
    50e8:	0b210000 	bleq	8450f0 <__bss_end__+0x83a930>
    50ec:	0100000d 	tsteq	r0, sp
    50f0:	0099d838 	addseq	sp, r9, r8, lsr r8
    50f4:	00001000 	andeq	r1, r0, r0
    50f8:	139c0100 	orrsne	r0, ip, #0, 2
    50fc:	22000009 	andcs	r0, r0, #9
    5100:	38010070 	stmdacc	r1, {r4, r5, r6}
    5104:	00000105 	andeq	r0, r0, r5, lsl #2
    5108:	23005001 	movwcs	r5, #1
    510c:	00000d01 	andeq	r0, r0, r1, lsl #26
    5110:	99c43701 	stmibls	r4, {r0, r8, r9, sl, ip, sp}^
    5114:	00140000 	andseq	r0, r4, r0
    5118:	9c010000 	stcls	0, cr0, [r1], {-0}
    511c:	00026f21 	andeq	r6, r2, r1, lsr #30
    5120:	c0360100 	eorsgt	r0, r6, r0, lsl #2
    5124:	04000099 	streq	r0, [r0], #-153	; 0x99
    5128:	01000000 	mrseq	r0, (UNDEF: 0)
    512c:	0009459c 	muleq	r9, ip, r5
    5130:	00702200 	rsbseq	r2, r0, r0, lsl #4
    5134:	01053601 	tsteq	r5, r1, lsl #12
    5138:	50010000 	andpl	r0, r1, r0
    513c:	0cea2400 	cfstrdeq	mvd2, [sl]
    5140:	29010000 	stmdbcs	r1, {}	; <UNPREDICTABLE>
    5144:	00000105 	andeq	r0, r0, r5, lsl #2
    5148:	00009934 	andeq	r9, r0, r4, lsr r9
    514c:	0000008c 	andeq	r0, r0, ip, lsl #1
    5150:	0a309c01 	beq	c2c15c <__bss_end__+0xc2199c>
    5154:	46250000 	strtmi	r0, [r5], -r0
    5158:	01000003 	tsteq	r0, r3
    515c:	00002c29 	andeq	r2, r0, r9, lsr #24
    5160:	0015b000 	andseq	fp, r5, r0
    5164:	0d282500 	cfstr32eq	mvfx2, [r8, #-0]
    5168:	29010000 	stmdbcs	r1, {}	; <UNPREDICTABLE>
    516c:	0000002c 	andeq	r0, r0, ip, lsr #32
    5170:	00001603 	andeq	r1, r0, r3, lsl #12
    5174:	00011026 	andeq	r1, r1, r6, lsr #32
    5178:	000a4000 	andeq	r4, sl, r0
    517c:	b0030500 	andlt	r0, r3, r0, lsl #10
    5180:	270000a2 	strcs	r0, [r0, -r2, lsr #1]
    5184:	2e010068 	cdpcs	0, 0, cr0, cr1, cr8, {3}
    5188:	0000002c 	andeq	r0, r0, ip, lsr #32
    518c:	0000164a 	andeq	r1, r0, sl, asr #12
    5190:	00997028 	addseq	r7, r9, r8, lsr #32
    5194:	000a7900 	andeq	r7, sl, r0, lsl #18
    5198:	0009ad00 	andeq	sl, r9, r0, lsl #26
    519c:	50012900 	andpl	r2, r1, r0, lsl #18
    51a0:	5001f303 	andpl	pc, r1, r3, lsl #6
    51a4:	99782a00 	ldmdbls	r8!, {r9, fp, sp}^
    51a8:	0bfb0000 	bleq	ffec51b0 <__bss_end__+0xffeba9f0>
    51ac:	8c280000 	stchi	0, cr0, [r8], #-0
    51b0:	06000099 			; <UNDEFINED> instruction: 0x06000099
    51b4:	e500000c 	str	r0, [r0, #-12]
    51b8:	29000009 	stmdbcs	r0, {r0, r3}
    51bc:	03055001 	movweq	r5, #20481	; 0x5001
    51c0:	0000a2fc 	strdeq	sl, [r0], -ip
    51c4:	05510129 	ldrbeq	r0, [r1, #-297]	; 0x129
    51c8:	00a2c003 	adceq	ip, r2, r3
    51cc:	52012900 	andpl	r2, r1, #0, 18
    51d0:	a2b00305 	adcsge	r0, r0, #335544320	; 0x14000000
    51d4:	01290000 	teqeq	r9, r0
    51d8:	2a080253 	bcs	205b2c <__bss_end__+0x1fb36c>
    51dc:	99902a00 	ldmibls	r0, {r9, fp, sp}
    51e0:	0c110000 	ldceq	0, cr0, [r1], {-0}
    51e4:	942a0000 	strtls	r0, [sl], #-0
    51e8:	fb000099 	blx	5456 <_start-0x2baa>
    51ec:	2800000b 	stmdacs	r0, {r0, r1, r3}
    51f0:	000099a8 	andeq	r9, r0, r8, lsr #19
    51f4:	00000c06 	andeq	r0, r0, r6, lsl #24
    51f8:	00000a26 	andeq	r0, r0, r6, lsr #20
    51fc:	05500129 	ldrbeq	r0, [r0, #-297]	; 0x129
    5200:	00a35c03 	adceq	r5, r3, r3, lsl #24
    5204:	51012900 	tstpl	r1, r0, lsl #18
    5208:	a2c00305 	sbcge	r0, r0, #335544320	; 0x14000000
    520c:	01290000 	teqeq	r9, r0
    5210:	b0030552 	andlt	r0, r3, r2, asr r5
    5214:	290000a2 	stmdbcs	r0, {r1, r5, r7}
    5218:	08025301 	stmdaeq	r2, {r0, r8, r9, ip, lr}
    521c:	ac2a0030 	stcge	0, cr0, [sl], #-192	; 0xffffff40
    5220:	11000099 	swpne	r0, r9, [r0]	; <UNPREDICTABLE>
    5224:	0000000c 	andeq	r0, r0, ip
    5228:	00011408 	andeq	r1, r1, r8, lsl #8
    522c:	000a4000 	andeq	r4, sl, r0
    5230:	00c70900 	sbceq	r0, r7, r0, lsl #18
    5234:	000f0000 	andeq	r0, pc, r0
    5238:	000a300e 	andeq	r3, sl, lr
    523c:	0d172400 	cfldrseq	mvf2, [r7, #-0]
    5240:	25010000 	strcs	r0, [r1, #-0]
    5244:	00000105 	andeq	r0, r0, r5, lsl #2
    5248:	00009928 	andeq	r9, r0, r8, lsr #18
    524c:	0000000c 	andeq	r0, r0, ip
    5250:	0a689c01 	beq	1a2c25c <__bss_end__+0x1a21a9c>
    5254:	302a0000 	eorcc	r0, sl, r0
    5258:	d1000099 	swple	r0, r9, [r0]	; <UNPREDICTABLE>
    525c:	0000000b 	andeq	r0, r0, fp
    5260:	000cdd23 	andeq	sp, ip, r3, lsr #26
    5264:	24240100 	strtcs	r0, [r4], #-256	; 0x100
    5268:	04000099 	streq	r0, [r0], #-153	; 0x99
    526c:	01000000 	mrseq	r0, (UNDEF: 0)
    5270:	0101249c 			; <UNDEFINED> instruction: 0x0101249c
    5274:	1a010000 	bne	4527c <__bss_end__+0x3aabc>
    5278:	00000105 	andeq	r0, r0, r5, lsl #2
    527c:	000098c0 	andeq	r9, r0, r0, asr #17
    5280:	00000064 	andeq	r0, r0, r4, rrx
    5284:	0b249c01 	bleq	92c290 <__bss_end__+0x921ad0>
    5288:	732b0000 	teqvc	fp, #0
    528c:	1a01007a 	bne	4547c <__bss_end__+0x3acbc>
    5290:	0000002c 	andeq	r0, r0, ip, lsr #32
    5294:	00001682 	andeq	r1, r0, r2, lsl #13
    5298:	00011026 	andeq	r1, r1, r6, lsr #32
    529c:	000b3400 	andeq	r3, fp, r0, lsl #8
    52a0:	a8030500 	stmdage	r3, {r8, sl}
    52a4:	2c0000a2 	stccs	0, cr0, [r0], {162}	; 0xa2
    52a8:	000001a3 	andeq	r0, r0, r3, lsr #3
    52ac:	01051e01 	tsteq	r5, r1, lsl #28
    52b0:	16cc0000 	strbne	r0, [ip], r0
    52b4:	f0280000 			; <UNDEFINED> instruction: 0xf0280000
    52b8:	1c000098 	stcne	0, cr0, [r0], {152}	; 0x98
    52bc:	e300000c 	movw	r0, #12
    52c0:	2900000a 	stmdbcs	r0, {r1, r3}
    52c4:	74025001 	strvc	r5, [r2], #-1
    52c8:	51012900 	tstpl	r1, r0, lsl #18
    52cc:	01293001 	teqeq	r9, r1
    52d0:	01f30852 	mvnseq	r0, r2, asr r8
    52d4:	09072350 	stmdbeq	r7, {r4, r6, r8, r9, sp}
    52d8:	2a001af8 	bcs	bec0 <__bss_end__+0x1700>
    52dc:	000098fc 	strdeq	r9, [r0], -ip
    52e0:	00000bfb 	strdeq	r0, [r0], -fp
    52e4:	00991028 	addseq	r1, r9, r8, lsr #32
    52e8:	000c0600 	andeq	r0, ip, r0, lsl #12
    52ec:	000b1a00 	andeq	r1, fp, r0, lsl #20
    52f0:	50012900 	andpl	r2, r1, r0, lsl #18
    52f4:	a2e80305 	rscge	r0, r8, #335544320	; 0x14000000
    52f8:	01290000 	teqeq	r9, r0
    52fc:	c0030551 	andgt	r0, r3, r1, asr r5
    5300:	290000a2 	stmdbcs	r0, {r1, r5, r7}
    5304:	03055201 	movweq	r5, #20993	; 0x5201
    5308:	0000a2a8 	andeq	sl, r0, r8, lsr #5
    530c:	01530129 	cmpeq	r3, r9, lsr #2
    5310:	142a004b 	strtne	r0, [sl], #-75	; 0x4b
    5314:	11000099 	swpne	r0, r9, [r0]	; <UNPREDICTABLE>
    5318:	0000000c 	andeq	r0, r0, ip
    531c:	00011408 	andeq	r1, r1, r8, lsl #8
    5320:	000b3400 	andeq	r3, fp, r0, lsl #8
    5324:	00c70900 	sbceq	r0, r7, r0, lsl #18
    5328:	00070000 	andeq	r0, r7, r0
    532c:	000b240e 	andeq	r2, fp, lr, lsl #8
    5330:	016b2100 	cmneq	fp, r0, lsl #2
    5334:	14010000 	strne	r0, [r1], #-0
    5338:	00009870 	andeq	r9, r0, r0, ror r8
    533c:	00000050 	andeq	r0, r0, r0, asr r0
    5340:	0bbc9c01 	bleq	fef2c34c <__bss_end__+0xfef21b8c>
    5344:	a2250000 	eorge	r0, r5, #0
    5348:	01000001 	tsteq	r0, r1
    534c:	00002c14 	andeq	r2, r0, r4, lsl ip
    5350:	0016df00 	andseq	sp, r6, r0, lsl #30
    5354:	01a32c00 			; <UNDEFINED> instruction: 0x01a32c00
    5358:	15010000 	strne	r0, [r1, #-0]
    535c:	00000107 	andeq	r0, r0, r7, lsl #2
    5360:	00001700 	andeq	r1, r0, r0, lsl #14
    5364:	00011026 	andeq	r1, r1, r6, lsr #32
    5368:	000bcc00 	andeq	ip, fp, r0, lsl #24
    536c:	90030500 	andls	r0, r3, r0, lsl #10
    5370:	2a0000a2 	bcs	5600 <_start-0x2a00>
    5374:	00009898 	muleq	r0, r8, r8
    5378:	00000bfb 	strdeq	r0, [r0], -fp
    537c:	0098ac28 	addseq	sl, r8, r8, lsr #24
    5380:	000c0600 	andeq	r0, ip, r0, lsl #12
    5384:	000bb200 	andeq	fp, fp, r0, lsl #4
    5388:	50012900 	andpl	r2, r1, r0, lsl #18
    538c:	a2cc0305 	sbcge	r0, ip, #335544320	; 0x14000000
    5390:	01290000 	teqeq	r9, r0
    5394:	c0030551 	andgt	r0, r3, r1, asr r5
    5398:	290000a2 	stmdbcs	r0, {r1, r5, r7}
    539c:	03055201 	movweq	r5, #20993	; 0x5201
    53a0:	0000a290 	muleq	r0, r0, r2
    53a4:	01530129 	cmpeq	r3, r9, lsr #2
    53a8:	b02a0046 	eorlt	r0, sl, r6, asr #32
    53ac:	11000098 	swpne	r0, r8, [r0]	; <UNPREDICTABLE>
    53b0:	0000000c 	andeq	r0, r0, ip
    53b4:	00011408 	andeq	r1, r1, r8, lsl #8
    53b8:	000bcc00 	andeq	ip, fp, r0, lsl #24
    53bc:	00c70900 	sbceq	r0, r7, r0, lsl #18
    53c0:	00160000 	andseq	r0, r6, r0
    53c4:	000bbc0e 	andeq	fp, fp, lr, lsl #24
    53c8:	0d412d00 	stcleq	13, cr2, [r1, #-0]
    53cc:	12010000 	andne	r0, r1, #0
    53d0:	00000105 	andeq	r0, r0, r5, lsl #2
    53d4:	00009864 	andeq	r9, r0, r4, ror #16
    53d8:	0000000c 	andeq	r0, r0, ip
    53dc:	542d9c01 	strtpl	r9, [sp], #-3073	; 0xc01
    53e0:	0100000d 	tsteq	r0, sp
    53e4:	00010511 	andeq	r0, r1, r1, lsl r5
    53e8:	00985400 	addseq	r5, r8, r0, lsl #8
    53ec:	00001000 	andeq	r1, r0, r0
    53f0:	2e9c0100 	fmlcse	f0, f4, f0
    53f4:	00000234 	andeq	r0, r0, r4, lsr r2
    53f8:	00000234 	andeq	r0, r0, r4, lsr r2
    53fc:	032e1e06 	teqeq	lr, #6, 28	; 0x60
    5400:	03000005 	movweq	r0, #5
    5404:	06000005 	streq	r0, [r0], -r5
    5408:	02812e29 	addeq	r2, r1, #656	; 0x290
    540c:	02810000 	addeq	r0, r1, #0
    5410:	65060000 	strvs	r0, [r6, #-0]
    5414:	0001092e 	andeq	r0, r1, lr, lsr #18
    5418:	00010900 	andeq	r0, r1, r0, lsl #18
    541c:	00190700 	andseq	r0, r9, r0, lsl #14

Disassembly of section .debug_abbrev:

00000000 <.debug_abbrev>:
       0:	25011101 	strcs	r1, [r1, #-257]	; 0x101
       4:	030b130e 	movweq	r1, #45838	; 0xb30e
       8:	110e1b0e 	tstne	lr, lr, lsl #22
       c:	10061201 	andne	r1, r6, r1, lsl #4
      10:	02000017 	andeq	r0, r0, #23
      14:	0b0b0024 	bleq	2c00ac <__bss_end__+0x2b58ec>
      18:	08030b3e 	stmdaeq	r3, {r1, r2, r3, r4, r5, r8, r9, fp}
      1c:	16030000 	strne	r0, [r3], -r0
      20:	3a0e0300 	bcc	380c28 <__bss_end__+0x376468>
      24:	490b3b0b 	stmdbmi	fp, {r0, r1, r3, r8, r9, fp, ip, sp}
      28:	04000013 	streq	r0, [r0], #-19
      2c:	0b0b0024 	bleq	2c00c4 <__bss_end__+0x2b5904>
      30:	0e030b3e 	vmoveq.16	d3[0], r0
      34:	0f050000 	svceq	0x00050000
      38:	000b0b00 	andeq	r0, fp, r0, lsl #22
      3c:	000f0600 	andeq	r0, pc, r0, lsl #12
      40:	13490b0b 	movtne	r0, #39691	; 0x9b0b
      44:	26070000 	strcs	r0, [r7], -r0
      48:	00134900 	andseq	r4, r3, r0, lsl #18
      4c:	012e0800 	teqeq	lr, r0, lsl #16
      50:	0e03193f 	mcreq	9, 0, r1, cr3, cr15, {1}
      54:	0b3b0b3a 	bleq	ec2d44 <__bss_end__+0xeb8584>
      58:	13491927 	movtne	r1, #39207	; 0x9927
      5c:	06120111 			; <UNDEFINED> instruction: 0x06120111
      60:	42971840 	addsmi	r1, r7, #64, 16	; 0x400000
      64:	00130119 	andseq	r0, r3, r9, lsl r1
      68:	01130900 	tsteq	r3, r0, lsl #18
      6c:	0b0b0e03 	bleq	2c3880 <__bss_end__+0x2b90c0>
      70:	0b3b0b3a 	bleq	ec2d60 <__bss_end__+0xeb85a0>
      74:	00001301 	andeq	r1, r0, r1, lsl #6
      78:	03000d0a 	movweq	r0, #3338	; 0xd0a
      7c:	3b0b3a08 	blcc	2ce8a4 <__bss_end__+0x2c40e4>
      80:	3813490b 	ldmdacc	r3, {r0, r1, r3, r8, fp, lr}
      84:	0b00000b 	bleq	b8 <_start-0x7f48>
      88:	0e03000d 	cdpeq	0, 0, cr0, cr3, cr13, {0}
      8c:	0b3b0b3a 	bleq	ec2d7c <__bss_end__+0xeb85bc>
      90:	0b381349 	bleq	e04dbc <__bss_end__+0xdfa5fc>
      94:	340c0000 	strcc	r0, [ip], #-0
      98:	3a080300 	bcc	200ca0 <__bss_end__+0x1f64e0>
      9c:	490b3b0b 	stmdbmi	fp, {r0, r1, r3, r8, r9, fp, ip, sp}
      a0:	00170213 	andseq	r0, r7, r3, lsl r2
      a4:	00340d00 	eorseq	r0, r4, r0, lsl #26
      a8:	13490e03 	movtne	r0, #40451	; 0x9e03
      ac:	18021934 	stmdane	r2, {r2, r4, r5, r8, fp, ip}
      b0:	0b0e0000 	bleq	3800b8 <__bss_end__+0x3758f8>
      b4:	01175501 	tsteq	r7, r1, lsl #10
      b8:	0f000013 	svceq	0x00000013
      bc:	1755010b 	ldrbne	r0, [r5, -fp, lsl #2]
      c0:	89100000 	ldmdbhi	r0, {}	; <UNPREDICTABLE>
      c4:	11010182 	smlabbne	r1, r2, r1, r0
      c8:	01133101 	tsteq	r3, r1, lsl #2
      cc:	11000013 	tstne	r0, r3, lsl r0
      d0:	0001828a 	andeq	r8, r1, sl, lsl #5
      d4:	42911802 	addsmi	r1, r1, #131072	; 0x20000
      d8:	12000018 	andne	r0, r0, #24
      dc:	01018289 	smlabbeq	r1, r9, r2, r8
      e0:	13310111 	teqne	r1, #1073741828	; 0x40000004
      e4:	89130000 	ldmdbhi	r3, {}	; <UNPREDICTABLE>
      e8:	11000182 	smlabbne	r0, r2, r1, r0
      ec:	00133101 	andseq	r3, r3, r1, lsl #2
      f0:	01011400 	tsteq	r1, r0, lsl #8
      f4:	13011349 	movwne	r1, #4937	; 0x1349
      f8:	21150000 	tstcs	r5, r0
      fc:	2f134900 	svccs	0x00134900
     100:	1600000b 	strne	r0, [r0], -fp
     104:	193f012e 	ldmdbne	pc!, {r1, r2, r3, r5, r8}	; <UNPREDICTABLE>
     108:	0b3a0e03 	bleq	e8391c <__bss_end__+0xe7915c>
     10c:	19270b3b 	stmdbne	r7!, {r0, r1, r3, r4, r5, r8, r9, fp}
     110:	06120111 			; <UNDEFINED> instruction: 0x06120111
     114:	42971840 	addsmi	r1, r7, #64, 16	; 0x400000
     118:	00130119 	andseq	r0, r3, r9, lsl r1
     11c:	00341700 	eorseq	r1, r4, r0, lsl #14
     120:	0b3a0803 	bleq	e82134 <__bss_end__+0xe77974>
     124:	13490b3b 	movtne	r0, #39739	; 0x9b3b
     128:	0000061c 	andeq	r0, r0, ip, lsl r6
     12c:	3f012e18 	svccc	0x00012e18
     130:	3a0e0319 	bcc	380d9c <__bss_end__+0x3765dc>
     134:	270b3b0b 	strcs	r3, [fp, -fp, lsl #22]
     138:	3c134919 	ldccc	9, cr4, [r3], {25}
     13c:	00130119 	andseq	r0, r3, r9, lsl r1
     140:	00051900 	andeq	r1, r5, r0, lsl #18
     144:	00001349 	andeq	r1, r0, r9, asr #6
     148:	3f002e1a 	svccc	0x00002e1a
     14c:	3a0e0319 	bcc	380db8 <__bss_end__+0x3765f8>
     150:	270b3b0b 	strcs	r3, [fp, -fp, lsl #22]
     154:	00193c19 	andseq	r3, r9, r9, lsl ip
     158:	00181b00 	andseq	r1, r8, r0, lsl #22
     15c:	2e1c0000 	cdpcs	0, 1, cr0, cr12, cr0, {0}
     160:	03193f01 	tsteq	r9, #1, 30
     164:	3b0b3a0e 	blcc	2ce9a4 <__bss_end__+0x2c41e4>
     168:	3c19270b 	ldccc	7, cr2, [r9], {11}
     16c:	00130119 	andseq	r0, r3, r9, lsl r1
     170:	012e1d00 	teqeq	lr, r0, lsl #26
     174:	0e03193f 	mcreq	9, 0, r1, cr3, cr15, {1}
     178:	0b3b0b3a 	bleq	ec2e68 <__bss_end__+0xeb86a8>
     17c:	193c1927 	ldmdbne	ip!, {r0, r1, r2, r5, r8, fp, ip}
     180:	01000000 	mrseq	r0, (UNDEF: 0)
     184:	0e250111 	mcreq	1, 1, r0, cr5, cr1, {0}
     188:	0e030b13 	vmoveq.32	d3[0], r0
     18c:	01110e1b 	tsteq	r1, fp, lsl lr
     190:	17100612 			; <UNDEFINED> instruction: 0x17100612
     194:	24020000 	strcs	r0, [r2], #-0
     198:	3e0b0b00 	vmlacc.f64	d0, d11, d0
     19c:	0008030b 	andeq	r0, r8, fp, lsl #6
     1a0:	00160300 	andseq	r0, r6, r0, lsl #6
     1a4:	0b3a0e03 	bleq	e839b8 <__bss_end__+0xe791f8>
     1a8:	13490b3b 	movtne	r0, #39739	; 0x9b3b
     1ac:	24040000 	strcs	r0, [r4], #-0
     1b0:	3e0b0b00 	vmlacc.f64	d0, d11, d0
     1b4:	000e030b 	andeq	r0, lr, fp, lsl #6
     1b8:	000f0500 	andeq	r0, pc, r0, lsl #10
     1bc:	00000b0b 	andeq	r0, r0, fp, lsl #22
     1c0:	0b000f06 	bleq	3de0 <_start-0x4220>
     1c4:	0013490b 	andseq	r4, r3, fp, lsl #18
     1c8:	00260700 	eoreq	r0, r6, r0, lsl #14
     1cc:	00001349 	andeq	r1, r0, r9, asr #6
     1d0:	49010108 	stmdbmi	r1, {r3, r8}
     1d4:	00130113 	andseq	r0, r3, r3, lsl r1
     1d8:	00210900 	eoreq	r0, r1, r0, lsl #18
     1dc:	0b2f1349 	bleq	bc4f08 <__bss_end__+0xbba748>
     1e0:	040a0000 	streq	r0, [sl], #-0
     1e4:	3a0b0b01 	bcc	2c2df0 <__bss_end__+0x2b8630>
     1e8:	010b3b0b 	tsteq	fp, fp, lsl #22
     1ec:	0b000013 	bleq	240 <_start-0x7dc0>
     1f0:	0e030028 	cdpeq	0, 0, cr0, cr3, cr8, {1}
     1f4:	00000d1c 	andeq	r0, r0, ip, lsl sp
     1f8:	0b01130c 	bleq	44e30 <__bss_end__+0x3a670>
     1fc:	3b0b3a0b 	blcc	2cea30 <__bss_end__+0x2c4270>
     200:	0013010b 	andseq	r0, r3, fp, lsl #2
     204:	000d0d00 	andeq	r0, sp, r0, lsl #26
     208:	0b3a0e03 	bleq	e83a1c <__bss_end__+0xe7925c>
     20c:	13490b3b 	movtne	r0, #39739	; 0x9b3b
     210:	00000b38 	andeq	r0, r0, r8, lsr fp
     214:	0301130e 	movweq	r1, #4878	; 0x130e
     218:	3a0b0b0e 	bcc	2c2e58 <__bss_end__+0x2b8698>
     21c:	010b3b0b 	tsteq	fp, fp, lsl #22
     220:	0f000013 	svceq	0x00000013
     224:	0e03012e 	adfeqsp	f0, f3, #0.5
     228:	0b3b0b3a 	bleq	ec2f18 <__bss_end__+0xeb8758>
     22c:	13491927 	movtne	r1, #39207	; 0x9927
     230:	13010b20 	movwne	r0, #6944	; 0x1b20
     234:	05100000 	ldreq	r0, [r0, #-0]
     238:	3a080300 	bcc	200e40 <__bss_end__+0x1f6680>
     23c:	490b3b0b 	stmdbmi	fp, {r0, r1, r3, r8, r9, fp, ip, sp}
     240:	11000013 	tstne	r0, r3, lsl r0
     244:	0e030005 	cdpeq	0, 0, cr0, cr3, cr5, {0}
     248:	0b3b0b3a 	bleq	ec2f38 <__bss_end__+0xeb8778>
     24c:	00001349 	andeq	r1, r0, r9, asr #6
     250:	03012e12 	movweq	r2, #7698	; 0x1e12
     254:	3b0b3a0e 	blcc	2cea94 <__bss_end__+0x2c42d4>
     258:	2019270b 	andscs	r2, r9, fp, lsl #14
     25c:	0013010b 	andseq	r0, r3, fp, lsl #2
     260:	00341300 	eorseq	r1, r4, r0, lsl #6
     264:	0b3a0803 	bleq	e82278 <__bss_end__+0xe77ab8>
     268:	13490b3b 	movtne	r0, #39739	; 0x9b3b
     26c:	2e140000 	cdpcs	0, 1, cr0, cr4, cr0, {0}
     270:	3a0e0301 	bcc	380e7c <__bss_end__+0x3766bc>
     274:	270b3b0b 	strcs	r3, [fp, -fp, lsl #22]
     278:	11134919 	tstne	r3, r9, lsl r9
     27c:	40061201 	andmi	r1, r6, r1, lsl #4
     280:	19429718 	stmdbne	r2, {r3, r4, r8, r9, sl, ip, pc}^
     284:	00001301 	andeq	r1, r0, r1, lsl #6
     288:	03000515 	movweq	r0, #1301	; 0x515
     28c:	3b0b3a08 	blcc	2ceab4 <__bss_end__+0x2c42f4>
     290:	0213490b 	andseq	r4, r3, #180224	; 0x2c000
     294:	16000017 			; <UNDEFINED> instruction: 0x16000017
     298:	0e030005 	cdpeq	0, 0, cr0, cr3, cr5, {0}
     29c:	0b3b0b3a 	bleq	ec2f8c <__bss_end__+0xeb87cc>
     2a0:	17021349 	strne	r1, [r2, -r9, asr #6]
     2a4:	34170000 	ldrcc	r0, [r7], #-0
     2a8:	3a080300 	bcc	200eb0 <__bss_end__+0x1f66f0>
     2ac:	490b3b0b 	stmdbmi	fp, {r0, r1, r3, r8, r9, fp, ip, sp}
     2b0:	00170213 	andseq	r0, r7, r3, lsl r2
     2b4:	010b1800 	tsteq	fp, r0, lsl #16
     2b8:	00001755 	andeq	r1, r0, r5, asr r7
     2bc:	03003419 	movweq	r3, #1049	; 0x419
     2c0:	3b0b3a0e 	blcc	2ceb00 <__bss_end__+0x2c4340>
     2c4:	0213490b 	andseq	r4, r3, #180224	; 0x2c000
     2c8:	1a000018 	bne	330 <_start-0x7cd0>
     2cc:	0e030034 	mcreq	0, 0, r0, cr3, cr4, {1}
     2d0:	0b3b0b3a 	bleq	ec2fc0 <__bss_end__+0xeb8800>
     2d4:	17021349 	strne	r1, [r2, -r9, asr #6]
     2d8:	1d1b0000 	ldcne	0, cr0, [fp, #-0]
     2dc:	11133101 	tstne	r3, r1, lsl #2
     2e0:	58061201 	stmdapl	r6, {r0, r9, ip}
     2e4:	010b590b 	tsteq	fp, fp, lsl #18
     2e8:	1c000013 	stcne	0, cr0, [r0], {19}
     2ec:	13310005 	teqne	r1, #5
     2f0:	00001702 	andeq	r1, r0, r2, lsl #14
     2f4:	11010b1d 	tstne	r1, sp, lsl fp
     2f8:	00061201 	andeq	r1, r6, r1, lsl #4
     2fc:	00341e00 	eorseq	r1, r4, r0, lsl #28
     300:	17021331 	smladxne	r2, r1, r3, r1
     304:	891f0000 	ldmdbhi	pc, {}	; <UNPREDICTABLE>
     308:	11010182 	smlabbne	r1, r2, r1, r0
     30c:	01133101 	tsteq	r3, r1, lsl #2
     310:	20000013 	andcs	r0, r0, r3, lsl r0
     314:	0001828a 	andeq	r8, r1, sl, lsl #5
     318:	42911802 	addsmi	r1, r1, #131072	; 0x20000
     31c:	21000018 	tstcs	r0, r8, lsl r0
     320:	01018289 	smlabbeq	r1, r9, r2, r8
     324:	13310111 	teqne	r1, #1073741828	; 0x40000004
     328:	2e220000 	cdpcs	0, 2, cr0, cr2, cr0, {0}
     32c:	3a0e0301 	bcc	380f38 <__bss_end__+0x376778>
     330:	270b3b0b 	strcs	r3, [fp, -fp, lsl #22]
     334:	12011119 	andne	r1, r1, #1073741830	; 0x40000006
     338:	97184006 	ldrls	r4, [r8, -r6]
     33c:	13011942 	movwne	r1, #6466	; 0x1942
     340:	34230000 	strtcc	r0, [r3], #-0
     344:	3a080300 	bcc	200f4c <__bss_end__+0x1f678c>
     348:	490b3b0b 	stmdbmi	fp, {r0, r1, r3, r8, r9, fp, ip, sp}
     34c:	00180213 	andseq	r0, r8, r3, lsl r2
     350:	00342400 	eorseq	r2, r4, r0, lsl #8
     354:	13490e03 	movtne	r0, #40451	; 0x9e03
     358:	18021934 	stmdane	r2, {r2, r4, r5, r8, fp, ip}
     35c:	89250000 	stmdbhi	r5!, {}	; <UNPREDICTABLE>
     360:	11000182 	smlabbne	r0, r2, r1, r0
     364:	00133101 	andseq	r3, r3, r1, lsl #2
     368:	012e2600 	teqeq	lr, r0, lsl #12
     36c:	0e03193f 	mcreq	9, 0, r1, cr3, cr15, {1}
     370:	0b3b0b3a 	bleq	ec3060 <__bss_end__+0xeb88a0>
     374:	01111927 	tsteq	r1, r7, lsr #18
     378:	18400612 	stmdane	r0, {r1, r4, r9, sl}^
     37c:	01194297 			; <UNDEFINED> instruction: 0x01194297
     380:	27000013 	smladcs	r0, r3, r0, r0
     384:	193f012e 	ldmdbne	pc!, {r1, r2, r3, r5, r8}	; <UNPREDICTABLE>
     388:	0b3a0e03 	bleq	e83b9c <__bss_end__+0xe793dc>
     38c:	19270b3b 	stmdbne	r7!, {r0, r1, r3, r4, r5, r8, r9, fp}
     390:	01111349 	tsteq	r1, r9, asr #6
     394:	18400612 	stmdane	r0, {r1, r4, r9, sl}^
     398:	01194297 			; <UNDEFINED> instruction: 0x01194297
     39c:	28000013 	stmdacs	r0, {r0, r1, r4}
     3a0:	1755010b 	ldrbne	r0, [r5, -fp, lsl #2]
     3a4:	00001301 	andeq	r1, r0, r1, lsl #6
     3a8:	3f012e29 	svccc	0x00012e29
     3ac:	3a0e0319 	bcc	381018 <__bss_end__+0x376858>
     3b0:	270b3b0b 	strcs	r3, [fp, -fp, lsl #22]
     3b4:	3c134919 	ldccc	9, cr4, [r3], {25}
     3b8:	00130119 	andseq	r0, r3, r9, lsl r1
     3bc:	00052a00 	andeq	r2, r5, r0, lsl #20
     3c0:	00001349 	andeq	r1, r0, r9, asr #6
     3c4:	0000182b 	andeq	r1, r0, fp, lsr #16
     3c8:	00262c00 	eoreq	r2, r6, r0, lsl #24
     3cc:	2e2d0000 	cdpcs	0, 2, cr0, cr13, cr0, {0}
     3d0:	03193f00 	tsteq	r9, #0, 30
     3d4:	3b0b3a0e 	blcc	2cec14 <__bss_end__+0x2c4454>
     3d8:	3c19270b 	ldccc	7, cr2, [r9], {11}
     3dc:	00000019 	andeq	r0, r0, r9, lsl r0
     3e0:	25011101 	strcs	r1, [r1, #-257]	; 0x101
     3e4:	030b130e 	movweq	r1, #45838	; 0xb30e
     3e8:	110e1b0e 	tstne	lr, lr, lsl #22
     3ec:	10061201 	andne	r1, r6, r1, lsl #4
     3f0:	02000017 	andeq	r0, r0, #23
     3f4:	0b0b0024 	bleq	2c048c <__bss_end__+0x2b5ccc>
     3f8:	08030b3e 	stmdaeq	r3, {r1, r2, r3, r4, r5, r8, r9, fp}
     3fc:	24030000 	strcs	r0, [r3], #-0
     400:	3e0b0b00 	vmlacc.f64	d0, d11, d0
     404:	000e030b 	andeq	r0, lr, fp, lsl #6
     408:	00160400 	andseq	r0, r6, r0, lsl #8
     40c:	0b3a0e03 	bleq	e83c20 <__bss_end__+0xe79460>
     410:	13490b3b 	movtne	r0, #39739	; 0x9b3b
     414:	0f050000 	svceq	0x00050000
     418:	000b0b00 	andeq	r0, fp, r0, lsl #22
     41c:	000f0600 	andeq	r0, pc, r0, lsl #12
     420:	13490b0b 	movtne	r0, #39691	; 0x9b0b
     424:	26070000 	strcs	r0, [r7], -r0
     428:	00134900 	andseq	r4, r3, r0, lsl #18
     42c:	01040800 	tsteq	r4, r0, lsl #16
     430:	0b3a0b0b 	bleq	e83064 <__bss_end__+0xe788a4>
     434:	13010b3b 	movwne	r0, #6971	; 0x1b3b
     438:	28090000 	stmdacs	r9, {}	; <UNPREDICTABLE>
     43c:	1c0e0300 	stcne	3, cr0, [lr], {-0}
     440:	0a00000d 	beq	47c <_start-0x7b84>
     444:	0b0b0113 	bleq	2c0898 <__bss_end__+0x2b60d8>
     448:	0b3b0b3a 	bleq	ec3138 <__bss_end__+0xeb8978>
     44c:	00001301 	andeq	r1, r0, r1, lsl #6
     450:	03000d0b 	movweq	r0, #3339	; 0xd0b
     454:	3b0b3a0e 	blcc	2cec94 <__bss_end__+0x2c44d4>
     458:	3813490b 	ldmdacc	r3, {r0, r1, r3, r8, fp, lr}
     45c:	0c00000b 	stceq	0, cr0, [r0], {11}
     460:	0e030113 	mcreq	1, 0, r0, cr3, cr3, {0}
     464:	0b3a0b0b 	bleq	e83098 <__bss_end__+0xe788d8>
     468:	13010b3b 	movwne	r0, #6971	; 0x1b3b
     46c:	2e0d0000 	cdpcs	0, 0, cr0, cr13, cr0, {0}
     470:	3a0e0301 	bcc	38107c <__bss_end__+0x3768bc>
     474:	270b3b0b 	strcs	r3, [fp, -fp, lsl #22]
     478:	20134919 	andscs	r4, r3, r9, lsl r9
     47c:	0013010b 	andseq	r0, r3, fp, lsl #2
     480:	00050e00 	andeq	r0, r5, r0, lsl #28
     484:	0b3a0803 	bleq	e82498 <__bss_end__+0xe77cd8>
     488:	13490b3b 	movtne	r0, #39739	; 0x9b3b
     48c:	2e0f0000 	cdpcs	0, 0, cr0, cr15, cr0, {0}
     490:	3a0e0301 	bcc	38109c <__bss_end__+0x3768dc>
     494:	270b3b0b 	strcs	r3, [fp, -fp, lsl #22]
     498:	11134919 	tstne	r3, r9, lsl r9
     49c:	40061201 	andmi	r1, r6, r1, lsl #4
     4a0:	19429718 	stmdbne	r2, {r3, r4, r8, r9, sl, ip, pc}^
     4a4:	00001301 	andeq	r1, r0, r1, lsl #6
     4a8:	03000510 	movweq	r0, #1296	; 0x510
     4ac:	3b0b3a08 	blcc	2cecd4 <__bss_end__+0x2c4514>
     4b0:	0213490b 	andseq	r4, r3, #180224	; 0x2c000
     4b4:	11000017 	tstne	r0, r7, lsl r0
     4b8:	0e030005 	cdpeq	0, 0, cr0, cr3, cr5, {0}
     4bc:	0b3b0b3a 	bleq	ec31ac <__bss_end__+0xeb89ec>
     4c0:	17021349 	strne	r1, [r2, -r9, asr #6]
     4c4:	34120000 	ldrcc	r0, [r2], #-0
     4c8:	3a080300 	bcc	2010d0 <__bss_end__+0x1f6910>
     4cc:	490b3b0b 	stmdbmi	fp, {r0, r1, r3, r8, r9, fp, ip, sp}
     4d0:	00170213 	andseq	r0, r7, r3, lsl r2
     4d4:	00341300 	eorseq	r1, r4, r0, lsl #6
     4d8:	0b3a0e03 	bleq	e83cec <__bss_end__+0xe7952c>
     4dc:	13490b3b 	movtne	r0, #39739	; 0x9b3b
     4e0:	00001702 	andeq	r1, r0, r2, lsl #14
     4e4:	01828914 	orreq	r8, r2, r4, lsl r9
     4e8:	31011101 	tstcc	r1, r1, lsl #2
     4ec:	00130113 	andseq	r0, r3, r3, lsl r1
     4f0:	828a1500 	addhi	r1, sl, #0, 10
     4f4:	18020001 	stmdane	r2, {r0}
     4f8:	00184291 	mulseq	r8, r1, r2
     4fc:	82891600 	addhi	r1, r9, #0, 12
     500:	01110001 	tsteq	r1, r1
     504:	00001331 	andeq	r1, r0, r1, lsr r3
     508:	03003417 	movweq	r3, #1047	; 0x417
     50c:	3b0b3a0e 	blcc	2ced4c <__bss_end__+0x2c458c>
     510:	1c13490b 	ldcne	9, cr4, [r3], {11}
     514:	1800000b 	stmdane	r0, {r0, r1, r3}
     518:	01018289 	smlabbeq	r1, r9, r2, r8
     51c:	13310111 	teqne	r1, #1073741828	; 0x40000004
     520:	2e190000 	cdpcs	0, 1, cr0, cr9, cr0, {0}
     524:	3a0e0301 	bcc	381130 <__bss_end__+0x376970>
     528:	270b3b0b 	strcs	r3, [fp, -fp, lsl #22]
     52c:	12011119 	andne	r1, r1, #1073741830	; 0x40000006
     530:	97184006 	ldrls	r4, [r8, -r6]
     534:	13011942 	movwne	r1, #6466	; 0x1942
     538:	341a0000 	ldrcc	r0, [sl], #-0
     53c:	490e0300 	stmdbmi	lr, {r8, r9}
     540:	02193413 	andseq	r3, r9, #318767104	; 0x13000000
     544:	1b000018 	blne	5ac <_start-0x7a54>
     548:	1755010b 	ldrbne	r0, [r5, -fp, lsl #2]
     54c:	00001301 	andeq	r1, r0, r1, lsl #6
     550:	31011d1c 	tstcc	r1, ip, lsl sp
     554:	12011113 	andne	r1, r1, #-1073741820	; 0xc0000004
     558:	590b5806 	stmdbpl	fp, {r1, r2, fp, ip, lr}
     55c:	0013010b 	andseq	r0, r3, fp, lsl #2
     560:	00051d00 	andeq	r1, r5, r0, lsl #26
     564:	17021331 	smladxne	r2, r1, r3, r1
     568:	011e0000 	tsteq	lr, r0
     56c:	01134901 	tsteq	r3, r1, lsl #18
     570:	1f000013 	svcne	0x00000013
     574:	13490021 	movtne	r0, #36897	; 0x9021
     578:	00000b2f 	andeq	r0, r0, pc, lsr #22
     57c:	03003420 	movweq	r3, #1056	; 0x420
     580:	3b0b3a08 	blcc	2ceda8 <__bss_end__+0x2c45e8>
     584:	0213490b 	andseq	r4, r3, #180224	; 0x2c000
     588:	21000018 	tstcs	r0, r8, lsl r0
     58c:	0e030034 	mcreq	0, 0, r0, cr3, cr4, {1}
     590:	0b3b0b3a 	bleq	ec3280 <__bss_end__+0xeb8ac0>
     594:	18021349 	stmdane	r2, {r0, r3, r6, r8, r9, ip}
     598:	34220000 	strtcc	r0, [r2], #-0
     59c:	3a0e0300 	bcc	3811a4 <__bss_end__+0x3769e4>
     5a0:	490b3b0b 	stmdbmi	fp, {r0, r1, r3, r8, r9, fp, ip, sp}
     5a4:	00061c13 	andeq	r1, r6, r3, lsl ip
     5a8:	00342300 	eorseq	r2, r4, r0, lsl #6
     5ac:	0b3a0e03 	bleq	e83dc0 <__bss_end__+0xe79600>
     5b0:	13490b3b 	movtne	r0, #39739	; 0x9b3b
     5b4:	193c193f 	ldmdbne	ip!, {r0, r1, r2, r3, r4, r5, r8, fp, ip}
     5b8:	0b240000 	bleq	9005c0 <__bss_end__+0x8f5e00>
     5bc:	12011101 	andne	r1, r1, #1073741824	; 0x40000000
     5c0:	00130106 	andseq	r0, r3, r6, lsl #2
     5c4:	00342500 	eorseq	r2, r4, r0, lsl #10
     5c8:	0b3a0e03 	bleq	e83ddc <__bss_end__+0xe7961c>
     5cc:	13490b3b 	movtne	r0, #39739	; 0x9b3b
     5d0:	2e260000 	cdpcs	0, 2, cr0, cr6, cr0, {0}
     5d4:	03193f01 	tsteq	r9, #1, 30
     5d8:	3b0b3a0e 	blcc	2cee18 <__bss_end__+0x2c4658>
     5dc:	4919270b 	ldmdbmi	r9, {r0, r1, r3, r8, r9, sl, sp}
     5e0:	12011113 	andne	r1, r1, #-1073741820	; 0xc0000004
     5e4:	97184006 	ldrls	r4, [r8, -r6]
     5e8:	13011942 	movwne	r1, #6466	; 0x1942
     5ec:	2e270000 	cdpcs	0, 2, cr0, cr7, cr0, {0}
     5f0:	03193f01 	tsteq	r9, #1, 30
     5f4:	3b0b3a0e 	blcc	2cee34 <__bss_end__+0x2c4674>
     5f8:	1119270b 	tstne	r9, fp, lsl #14
     5fc:	40061201 	andmi	r1, r6, r1, lsl #4
     600:	19429718 	stmdbne	r2, {r3, r4, r8, r9, sl, ip, pc}^
     604:	00001301 	andeq	r1, r0, r1, lsl #6
     608:	3f002e28 	svccc	0x00002e28
     60c:	3a0e0319 	bcc	381278 <__bss_end__+0x376ab8>
     610:	270b3b0b 	strcs	r3, [fp, -fp, lsl #22]
     614:	3c134919 	ldccc	9, cr4, [r3], {25}
     618:	29000019 	stmdbcs	r0, {r0, r3, r4}
     61c:	193f012e 	ldmdbne	pc!, {r1, r2, r3, r5, r8}	; <UNPREDICTABLE>
     620:	0b3a0e03 	bleq	e83e34 <__bss_end__+0xe79674>
     624:	19270b3b 	stmdbne	r7!, {r0, r1, r3, r4, r5, r8, r9, fp}
     628:	193c1349 	ldmdbne	ip!, {r0, r3, r6, r8, r9, ip}
     62c:	00001301 	andeq	r1, r0, r1, lsl #6
     630:	4900052a 	stmdbmi	r0, {r1, r3, r5, r8, sl}
     634:	2b000013 	blcs	688 <_start-0x7978>
     638:	00000018 	andeq	r0, r0, r8, lsl r0
     63c:	3f002e2c 	svccc	0x00002e2c
     640:	3a0e0319 	bcc	3812ac <__bss_end__+0x376aec>
     644:	270b3b0b 	strcs	r3, [fp, -fp, lsl #22]
     648:	00193c19 	andseq	r3, r9, r9, lsl ip
     64c:	012e2d00 	teqeq	lr, r0, lsl #26
     650:	0e03193f 	mcreq	9, 0, r1, cr3, cr15, {1}
     654:	0b3b0b3a 	bleq	ec3344 <__bss_end__+0xeb8b84>
     658:	193c1927 	ldmdbne	ip!, {r0, r1, r2, r5, r8, fp, ip}
     65c:	00001301 	andeq	r1, r0, r1, lsl #6
     660:	01110100 	tsteq	r1, r0, lsl #2
     664:	0b130e25 	bleq	4c3f00 <__bss_end__+0x4b9740>
     668:	0e1b0e03 	cdpeq	14, 1, cr0, cr11, cr3, {0}
     66c:	06120111 			; <UNDEFINED> instruction: 0x06120111
     670:	00001710 	andeq	r1, r0, r0, lsl r7
     674:	0b002402 	bleq	9684 <uart_init+0xa8>
     678:	030b3e0b 	movweq	r3, #48651	; 0xbe0b
     67c:	03000008 	movweq	r0, #8
     680:	0b0b0024 	bleq	2c0718 <__bss_end__+0x2b5f58>
     684:	0e030b3e 	vmoveq.16	d3[0], r0
     688:	16040000 	strne	r0, [r4], -r0
     68c:	3a0e0300 	bcc	381294 <__bss_end__+0x376ad4>
     690:	490b3b0b 	stmdbmi	fp, {r0, r1, r3, r8, r9, fp, ip, sp}
     694:	05000013 	streq	r0, [r0, #-19]
     698:	0b0b000f 	bleq	2c06dc <__bss_end__+0x2b5f1c>
     69c:	00001349 	andeq	r1, r0, r9, asr #6
     6a0:	49002606 	stmdbmi	r0, {r1, r2, r9, sl, sp}
     6a4:	07000013 	smladeq	r0, r3, r0, r0
     6a8:	193f012e 	ldmdbne	pc!, {r1, r2, r3, r5, r8}	; <UNPREDICTABLE>
     6ac:	0b3a0e03 	bleq	e83ec0 <__bss_end__+0xe79700>
     6b0:	19270b3b 	stmdbne	r7!, {r0, r1, r3, r4, r5, r8, r9, fp}
     6b4:	01111349 	tsteq	r1, r9, asr #6
     6b8:	18400612 	stmdane	r0, {r1, r4, r9, sl}^
     6bc:	01194297 			; <UNDEFINED> instruction: 0x01194297
     6c0:	08000013 	stmdaeq	r0, {r0, r1, r4}
     6c4:	0e030005 	cdpeq	0, 0, cr0, cr3, cr5, {0}
     6c8:	0b3b0b3a 	bleq	ec33b8 <__bss_end__+0xeb8bf8>
     6cc:	17021349 	strne	r1, [r2, -r9, asr #6]
     6d0:	05090000 	streq	r0, [r9, #-0]
     6d4:	3a080300 	bcc	2012dc <__bss_end__+0x1f6b1c>
     6d8:	490b3b0b 	stmdbmi	fp, {r0, r1, r3, r8, r9, fp, ip, sp}
     6dc:	00170213 	andseq	r0, r7, r3, lsl r2
     6e0:	00340a00 	eorseq	r0, r4, r0, lsl #20
     6e4:	0b3a0e03 	bleq	e83ef8 <__bss_end__+0xe79738>
     6e8:	13490b3b 	movtne	r0, #39739	; 0x9b3b
     6ec:	00001702 	andeq	r1, r0, r2, lsl #14
     6f0:	0300340b 	movweq	r3, #1035	; 0x40b
     6f4:	3b0b3a08 	blcc	2cef1c <__bss_end__+0x2c475c>
     6f8:	0213490b 	andseq	r4, r3, #180224	; 0x2c000
     6fc:	0c000017 	stceq	0, cr0, [r0], {23}
     700:	00000026 	andeq	r0, r0, r6, lsr #32
     704:	01110100 	tsteq	r1, r0, lsl #2
     708:	0b130e25 	bleq	4c3fa4 <__bss_end__+0x4b97e4>
     70c:	0e1b0e03 	cdpeq	14, 1, cr0, cr11, cr3, {0}
     710:	06120111 			; <UNDEFINED> instruction: 0x06120111
     714:	00001710 	andeq	r1, r0, r0, lsl r7
     718:	0b002402 	bleq	9728 <uart_has_data+0x4>
     71c:	030b3e0b 	movweq	r3, #48651	; 0xbe0b
     720:	0300000e 	movweq	r0, #14
     724:	0b0b0024 	bleq	2c07bc <__bss_end__+0x2b5ffc>
     728:	08030b3e 	stmdaeq	r3, {r1, r2, r3, r4, r5, r8, r9, fp}
     72c:	0f040000 	svceq	0x00040000
     730:	000b0b00 	andeq	r0, fp, r0, lsl #22
     734:	000f0500 	andeq	r0, pc, r0, lsl #10
     738:	13490b0b 	movtne	r0, #39691	; 0x9b0b
     73c:	16060000 	strne	r0, [r6], -r0
     740:	3a0e0300 	bcc	381348 <__bss_end__+0x376b88>
     744:	490b3b0b 	stmdbmi	fp, {r0, r1, r3, r8, r9, fp, ip, sp}
     748:	07000013 	smladeq	r0, r3, r0, r0
     74c:	193f012e 	ldmdbne	pc!, {r1, r2, r3, r5, r8}	; <UNPREDICTABLE>
     750:	0b3a0e03 	bleq	e83f64 <__bss_end__+0xe797a4>
     754:	19270b3b 	stmdbne	r7!, {r0, r1, r3, r4, r5, r8, r9, fp}
     758:	01111349 	tsteq	r1, r9, asr #6
     75c:	18400612 	stmdane	r0, {r1, r4, r9, sl}^
     760:	00194297 	mulseq	r9, r7, r2
     764:	00050800 	andeq	r0, r5, r0, lsl #16
     768:	0b3a0803 	bleq	e8277c <__bss_end__+0xe77fbc>
     76c:	13490b3b 	movtne	r0, #39739	; 0x9b3b
     770:	00001802 	andeq	r1, r0, r2, lsl #16
     774:	03000509 	movweq	r0, #1289	; 0x509
     778:	3b0b3a08 	blcc	2cefa0 <__bss_end__+0x2c47e0>
     77c:	0213490b 	andseq	r4, r3, #180224	; 0x2c000
     780:	0a000017 	beq	7e4 <_start-0x781c>
     784:	08030034 	stmdaeq	r3, {r2, r4, r5}
     788:	0b3b0b3a 	bleq	ec3478 <__bss_end__+0xeb8cb8>
     78c:	17021349 	strne	r1, [r2, -r9, asr #6]
     790:	340b0000 	strcc	r0, [fp], #-0
     794:	3a080300 	bcc	20139c <__bss_end__+0x1f6bdc>
     798:	490b3b0b 	stmdbmi	fp, {r0, r1, r3, r8, r9, fp, ip, sp}
     79c:	00180213 	andseq	r0, r8, r3, lsl r2
     7a0:	11010000 	mrsne	r0, (UNDEF: 1)
     7a4:	130e2501 	movwne	r2, #58625	; 0xe501
     7a8:	1b0e030b 	blne	3813dc <__bss_end__+0x376c1c>
     7ac:	1201110e 	andne	r1, r1, #-2147483645	; 0x80000003
     7b0:	00171006 	andseq	r1, r7, r6
     7b4:	00160200 	andseq	r0, r6, r0, lsl #4
     7b8:	0b3a0e03 	bleq	e83fcc <__bss_end__+0xe7980c>
     7bc:	13490b3b 	movtne	r0, #39739	; 0x9b3b
     7c0:	13030000 	movwne	r0, #12288	; 0x3000
     7c4:	0b0e0301 	bleq	3813d0 <__bss_end__+0x376c10>
     7c8:	3b0b3a0b 	blcc	2ceffc <__bss_end__+0x2c483c>
     7cc:	0013010b 	andseq	r0, r3, fp, lsl #2
     7d0:	000d0400 	andeq	r0, sp, r0, lsl #8
     7d4:	13490e03 	movtne	r0, #40451	; 0x9e03
     7d8:	19340b38 	ldmdbne	r4!, {r3, r4, r5, r8, r9, fp}
     7dc:	0f050000 	svceq	0x00050000
     7e0:	000b0b00 	andeq	r0, fp, r0, lsl #22
     7e4:	00240600 	eoreq	r0, r4, r0, lsl #12
     7e8:	0b3e0b0b 	bleq	f8341c <__bss_end__+0xf78c5c>
     7ec:	00000803 	andeq	r0, r0, r3, lsl #16
     7f0:	0b002407 	bleq	9814 <gpio_write+0x10>
     7f4:	030b3e0b 	movweq	r3, #48651	; 0xbe0b
     7f8:	0800000e 	stmdaeq	r0, {r1, r2, r3}
     7fc:	0b0b000f 	bleq	2c0840 <__bss_end__+0x2b6080>
     800:	00001349 	andeq	r1, r0, r9, asr #6
     804:	49002609 	stmdbmi	r0, {r0, r3, r9, sl, sp}
     808:	0a000013 	beq	85c <_start-0x77a4>
     80c:	193f012e 	ldmdbne	pc!, {r1, r2, r3, r5, r8}	; <UNPREDICTABLE>
     810:	0b3a0e03 	bleq	e84024 <__bss_end__+0xe79864>
     814:	19270b3b 	stmdbne	r7!, {r0, r1, r3, r4, r5, r8, r9, fp}
     818:	01111349 	tsteq	r1, r9, asr #6
     81c:	18400612 	stmdane	r0, {r1, r4, r9, sl}^
     820:	01194297 			; <UNDEFINED> instruction: 0x01194297
     824:	0b000013 	bleq	878 <_start-0x7788>
     828:	08030005 	stmdaeq	r3, {r0, r2}
     82c:	0b3b0b3a 	bleq	ec351c <__bss_end__+0xeb8d5c>
     830:	18021349 	stmdane	r2, {r0, r3, r6, r8, r9, ip}
     834:	180c0000 	stmdane	ip, {}	; <UNPREDICTABLE>
     838:	0d000000 	stceq	0, cr0, [r0, #-0]
     83c:	08030034 	stmdaeq	r3, {r2, r4, r5}
     840:	0b3b0b3a 	bleq	ec3530 <__bss_end__+0xeb8d70>
     844:	18021349 	stmdane	r2, {r0, r3, r6, r8, r9, ip}
     848:	340e0000 	strcc	r0, [lr], #-0
     84c:	3a0e0300 	bcc	381454 <__bss_end__+0x376c94>
     850:	490b3b0b 	stmdbmi	fp, {r0, r1, r3, r8, r9, fp, ip, sp}
     854:	00180213 	andseq	r0, r8, r3, lsl r2
     858:	00340f00 	eorseq	r0, r4, r0, lsl #30
     85c:	0b3a0803 	bleq	e82870 <__bss_end__+0xe780b0>
     860:	13490b3b 	movtne	r0, #39739	; 0x9b3b
     864:	00001702 	andeq	r1, r0, r2, lsl #14
     868:	01828910 	orreq	r8, r2, r0, lsl r9
     86c:	31011101 	tstcc	r1, r1, lsl #2
     870:	00130113 	andseq	r0, r3, r3, lsl r1
     874:	828a1100 	addhi	r1, sl, #0, 2
     878:	18020001 	stmdane	r2, {r0}
     87c:	00184291 	mulseq	r8, r1, r2
     880:	82891200 	addhi	r1, r9, #0, 4
     884:	01110101 	tsteq	r1, r1, lsl #2
     888:	01130000 	tsteq	r3, r0
     88c:	01134901 	tsteq	r3, r1, lsl #18
     890:	14000013 	strne	r0, [r0], #-19
     894:	13490021 	movtne	r0, #36897	; 0x9021
     898:	0000052f 	andeq	r0, r0, pc, lsr #10
     89c:	27011515 	smladcs	r1, r5, r5, r1
     8a0:	01134919 	tsteq	r3, r9, lsl r9
     8a4:	16000013 			; <UNDEFINED> instruction: 0x16000013
     8a8:	13490005 	movtne	r0, #36869	; 0x9005
     8ac:	34170000 	ldrcc	r0, [r7], #-0
     8b0:	3a0e0300 	bcc	3814b8 <__bss_end__+0x376cf8>
     8b4:	490b3b0b 	stmdbmi	fp, {r0, r1, r3, r8, r9, fp, ip, sp}
     8b8:	3c193f13 	ldccc	15, cr3, [r9], {19}
     8bc:	18000019 	stmdane	r0, {r0, r3, r4}
     8c0:	193f012e 	ldmdbne	pc!, {r1, r2, r3, r5, r8}	; <UNPREDICTABLE>
     8c4:	0b3a0e03 	bleq	e840d8 <__bss_end__+0xe79918>
     8c8:	19270b3b 	stmdbne	r7!, {r0, r1, r3, r4, r5, r8, r9, fp}
     8cc:	193c1349 	ldmdbne	ip!, {r0, r3, r6, r8, r9, ip}
     8d0:	01000000 	mrseq	r0, (UNDEF: 0)
     8d4:	0e250111 	mcreq	1, 1, r0, cr5, cr1, {0}
     8d8:	0e030b13 	vmoveq.32	d3[0], r0
     8dc:	01110e1b 	tsteq	r1, fp, lsl lr
     8e0:	17100612 			; <UNDEFINED> instruction: 0x17100612
     8e4:	24020000 	strcs	r0, [r2], #-0
     8e8:	3e0b0b00 	vmlacc.f64	d0, d11, d0
     8ec:	0008030b 	andeq	r0, r8, fp, lsl #6
     8f0:	00240300 	eoreq	r0, r4, r0, lsl #6
     8f4:	0b3e0b0b 	bleq	f83528 <__bss_end__+0xf78d68>
     8f8:	00000e03 	andeq	r0, r0, r3, lsl #28
     8fc:	03012e04 	movweq	r2, #7684	; 0x1e04
     900:	3b0b3a0e 	blcc	2cf140 <__bss_end__+0x2c4980>
     904:	4919270b 	ldmdbmi	r9, {r0, r1, r3, r8, r9, sl, sp}
     908:	12011113 	andne	r1, r1, #-1073741820	; 0xc0000004
     90c:	97184006 	ldrls	r4, [r8, -r6]
     910:	13011942 	movwne	r1, #6466	; 0x1942
     914:	05050000 	streq	r0, [r5, #-0]
     918:	3a080300 	bcc	201520 <__bss_end__+0x1f6d60>
     91c:	490b3b0b 	stmdbmi	fp, {r0, r1, r3, r8, r9, fp, ip, sp}
     920:	00170213 	andseq	r0, r7, r3, lsl r2
     924:	82890600 	addhi	r0, r9, #0, 12
     928:	01110101 	tsteq	r1, r1, lsl #2
     92c:	00001331 	andeq	r1, r0, r1, lsr r3
     930:	01828a07 	orreq	r8, r2, r7, lsl #20
     934:	91180200 	tstls	r8, r0, lsl #4
     938:	00001842 	andeq	r1, r0, r2, asr #16
     93c:	3f002e08 	svccc	0x00002e08
     940:	3a0e0319 	bcc	3815ac <__bss_end__+0x376dec>
     944:	270b3b0b 	strcs	r3, [fp, -fp, lsl #22]
     948:	12011119 	andne	r1, r1, #1073741830	; 0x40000006
     94c:	97184006 	ldrls	r4, [r8, -r6]
     950:	00001942 	andeq	r1, r0, r2, asr #18
     954:	3f012e09 	svccc	0x00012e09
     958:	3a0e0319 	bcc	3815c4 <__bss_end__+0x376e04>
     95c:	270b3b0b 	strcs	r3, [fp, -fp, lsl #22]
     960:	12011119 	andne	r1, r1, #1073741830	; 0x40000006
     964:	97184006 	ldrls	r4, [r8, -r6]
     968:	13011942 	movwne	r1, #6466	; 0x1942
     96c:	050a0000 	streq	r0, [sl, #-0]
     970:	3a080300 	bcc	201578 <__bss_end__+0x1f6db8>
     974:	490b3b0b 	stmdbmi	fp, {r0, r1, r3, r8, r9, fp, ip, sp}
     978:	00180213 	andseq	r0, r8, r3, lsl r2
     97c:	01150b00 	tsteq	r5, r0, lsl #22
     980:	13491927 	movtne	r1, #39207	; 0x9927
     984:	00001301 	andeq	r1, r0, r1, lsl #6
     988:	4900050c 	stmdbmi	r0, {r2, r3, r8, sl}
     98c:	0d000013 	stceq	0, cr0, [r0, #-76]	; 0xffffffb4
     990:	0b0b000f 	bleq	2c09d4 <__bss_end__+0x2b6214>
     994:	00001349 	andeq	r1, r0, r9, asr #6
     998:	0300340e 	movweq	r3, #1038	; 0x40e
     99c:	3b0b3a0e 	blcc	2cf1dc <__bss_end__+0x2c4a1c>
     9a0:	3f13490b 	svccc	0x0013490b
     9a4:	00180219 	andseq	r0, r8, r9, lsl r2
     9a8:	012e0f00 	teqeq	lr, r0, lsl #30
     9ac:	0e03193f 	mcreq	9, 0, r1, cr3, cr15, {1}
     9b0:	0b3b0b3a 	bleq	ec36a0 <__bss_end__+0xeb8ee0>
     9b4:	193c1927 	ldmdbne	ip!, {r0, r1, r2, r5, r8, fp, ip}
     9b8:	01000000 	mrseq	r0, (UNDEF: 0)
     9bc:	0e250111 	mcreq	1, 1, r0, cr5, cr1, {0}
     9c0:	0e030b13 	vmoveq.32	d3[0], r0
     9c4:	01110e1b 	tsteq	r1, fp, lsl lr
     9c8:	17100612 			; <UNDEFINED> instruction: 0x17100612
     9cc:	24020000 	strcs	r0, [r2], #-0
     9d0:	3e0b0b00 	vmlacc.f64	d0, d11, d0
     9d4:	0008030b 	andeq	r0, r8, fp, lsl #6
     9d8:	00240300 	eoreq	r0, r4, r0, lsl #6
     9dc:	0b3e0b0b 	bleq	f83610 <__bss_end__+0xf78e50>
     9e0:	00000e03 	andeq	r0, r0, r3, lsl #28
     9e4:	0b000f04 	bleq	45fc <_start-0x3a04>
     9e8:	0013490b 	andseq	r4, r3, fp, lsl #18
     9ec:	00260500 	eoreq	r0, r6, r0, lsl #10
     9f0:	00001349 	andeq	r1, r0, r9, asr #6
     9f4:	3f012e06 	svccc	0x00012e06
     9f8:	3a0e0319 	bcc	381664 <__bss_end__+0x376ea4>
     9fc:	270b3b0b 	strcs	r3, [fp, -fp, lsl #22]
     a00:	11134919 	tstne	r3, r9, lsl r9
     a04:	40061201 	andmi	r1, r6, r1, lsl #4
     a08:	19429618 	stmdbne	r2, {r3, r4, r9, sl, ip, pc}^
     a0c:	00001301 	andeq	r1, r0, r1, lsl #6
     a10:	03000507 	movweq	r0, #1287	; 0x507
     a14:	3b0b3a08 	blcc	2cf23c <__bss_end__+0x2c4a7c>
     a18:	0213490b 	andseq	r4, r3, #180224	; 0x2c000
     a1c:	08000017 	stmdaeq	r0, {r0, r1, r2, r4}
     a20:	19270115 	stmdbne	r7!, {r0, r2, r4, r8}
     a24:	13011349 	movwne	r1, #4937	; 0x1349
     a28:	05090000 	streq	r0, [r9, #-0]
     a2c:	00134900 	andseq	r4, r3, r0, lsl #18
     a30:	00340a00 	eorseq	r0, r4, r0, lsl #20
     a34:	0b3a0e03 	bleq	e84248 <__bss_end__+0xe79a88>
     a38:	13490b3b 	movtne	r0, #39739	; 0x9b3b
     a3c:	193c193f 	ldmdbne	ip!, {r0, r1, r2, r3, r4, r5, r8, fp, ip}
     a40:	340b0000 	strcc	r0, [fp], #-0
     a44:	3a0e0300 	bcc	38164c <__bss_end__+0x376e8c>
     a48:	490b3b0b 	stmdbmi	fp, {r0, r1, r3, r8, r9, fp, ip, sp}
     a4c:	02193f13 	andseq	r3, r9, #19, 30	; 0x4c
     a50:	00000018 	andeq	r0, r0, r8, lsl r0
     a54:	25011101 	strcs	r1, [r1, #-257]	; 0x101
     a58:	030b130e 	movweq	r1, #45838	; 0xb30e
     a5c:	110e1b0e 	tstne	lr, lr, lsl #22
     a60:	10061201 	andne	r1, r6, r1, lsl #4
     a64:	02000017 	andeq	r0, r0, #23
     a68:	0b0b0024 	bleq	2c0b00 <__bss_end__+0x2b6340>
     a6c:	08030b3e 	stmdaeq	r3, {r1, r2, r3, r4, r5, r8, r9, fp}
     a70:	24030000 	strcs	r0, [r3], #-0
     a74:	3e0b0b00 	vmlacc.f64	d0, d11, d0
     a78:	000e030b 	andeq	r0, lr, fp, lsl #6
     a7c:	000f0400 	andeq	r0, pc, r0, lsl #8
     a80:	00000b0b 	andeq	r0, r0, fp, lsl #22
     a84:	0b000f05 	bleq	46a0 <_start-0x3960>
     a88:	0013490b 	andseq	r4, r3, fp, lsl #18
     a8c:	00260600 	eoreq	r0, r6, r0, lsl #12
     a90:	00001349 	andeq	r1, r0, r9, asr #6
     a94:	03001607 	movweq	r1, #1543	; 0x607
     a98:	3b0b3a0e 	blcc	2cf2d8 <__bss_end__+0x2c4b18>
     a9c:	0013490b 	andseq	r4, r3, fp, lsl #18
     aa0:	01130800 	tsteq	r3, r0, lsl #16
     aa4:	0b0b0e03 	bleq	2c42b8 <__bss_end__+0x2b9af8>
     aa8:	0b3b0b3a 	bleq	ec3798 <__bss_end__+0xeb8fd8>
     aac:	00001301 	andeq	r1, r0, r1, lsl #6
     ab0:	03000d09 	movweq	r0, #3337	; 0xd09
     ab4:	3813490e 	ldmdacc	r3, {r1, r2, r3, r8, fp, lr}
     ab8:	0019340b 	andseq	r3, r9, fp, lsl #8
     abc:	012e0a00 	teqeq	lr, r0, lsl #20
     ac0:	0b3a0e03 	bleq	e842d4 <__bss_end__+0xe79b14>
     ac4:	19270b3b 	stmdbne	r7!, {r0, r1, r3, r4, r5, r8, r9, fp}
     ac8:	01111349 	tsteq	r1, r9, asr #6
     acc:	18400612 	stmdane	r0, {r1, r4, r9, sl}^
     ad0:	01194297 			; <UNDEFINED> instruction: 0x01194297
     ad4:	0b000013 	bleq	b28 <_start-0x74d8>
     ad8:	08030005 	stmdaeq	r3, {r0, r2}
     adc:	0b3b0b3a 	bleq	ec37cc <__bss_end__+0xeb900c>
     ae0:	17021349 	strne	r1, [r2, -r9, asr #6]
     ae4:	2e0c0000 	cdpcs	0, 0, cr0, cr12, cr0, {0}
     ae8:	3a080301 	bcc	2016f4 <__bss_end__+0x1f6f34>
     aec:	270b3b0b 	strcs	r3, [fp, -fp, lsl #22]
     af0:	11134919 	tstne	r3, r9, lsl r9
     af4:	40061201 	andmi	r1, r6, r1, lsl #4
     af8:	19429718 	stmdbne	r2, {r3, r4, r8, r9, sl, ip, pc}^
     afc:	00001301 	andeq	r1, r0, r1, lsl #6
     b00:	0300050d 	movweq	r0, #1293	; 0x50d
     b04:	3b0b3a0e 	blcc	2cf344 <__bss_end__+0x2c4b84>
     b08:	0213490b 	andseq	r4, r3, #180224	; 0x2c000
     b0c:	0e000017 	mcreq	0, 0, r0, cr0, cr7, {0}
     b10:	0e030005 	cdpeq	0, 0, cr0, cr3, cr5, {0}
     b14:	0b3b0b3a 	bleq	ec3804 <__bss_end__+0xeb9044>
     b18:	18021349 	stmdane	r2, {r0, r3, r6, r8, r9, ip}
     b1c:	340f0000 	strcc	r0, [pc], #-0	; b24 <_start-0x74dc>
     b20:	3a080300 	bcc	201728 <__bss_end__+0x1f6f68>
     b24:	490b3b0b 	stmdbmi	fp, {r0, r1, r3, r8, r9, fp, ip, sp}
     b28:	00180213 	andseq	r0, r8, r3, lsl r2
     b2c:	00341000 	eorseq	r1, r4, r0
     b30:	0b3a0803 	bleq	e82b44 <__bss_end__+0xe78384>
     b34:	13490b3b 	movtne	r0, #39739	; 0x9b3b
     b38:	00001702 	andeq	r1, r0, r2, lsl #14
     b3c:	03003411 	movweq	r3, #1041	; 0x411
     b40:	3413490e 	ldrcc	r4, [r3], #-2318	; 0x90e
     b44:	00180219 	andseq	r0, r8, r9, lsl r2
     b48:	010b1200 	mrseq	r1, R11_fiq
     b4c:	06120111 			; <UNDEFINED> instruction: 0x06120111
     b50:	00001301 	andeq	r1, r0, r1, lsl #6
     b54:	03003413 	movweq	r3, #1043	; 0x413
     b58:	3b0b3a0e 	blcc	2cf398 <__bss_end__+0x2c4bd8>
     b5c:	0213490b 	andseq	r4, r3, #180224	; 0x2c000
     b60:	14000017 	strne	r0, [r0], #-23
     b64:	00018289 	andeq	r8, r1, r9, lsl #5
     b68:	13310111 	teqne	r1, #1073741828	; 0x40000004
     b6c:	89150000 	ldmdbhi	r5, {}	; <UNPREDICTABLE>
     b70:	11010182 	smlabbne	r1, r2, r1, r0
     b74:	01133101 	tsteq	r3, r1, lsl #2
     b78:	16000013 			; <UNDEFINED> instruction: 0x16000013
     b7c:	0001828a 	andeq	r8, r1, sl, lsl #5
     b80:	42911802 	addsmi	r1, r1, #131072	; 0x20000
     b84:	17000018 	smladne	r0, r8, r0, r0
     b88:	01018289 	smlabbeq	r1, r9, r2, r8
     b8c:	13310111 	teqne	r1, #1073741828	; 0x40000004
     b90:	01180000 	tsteq	r8, r0
     b94:	01134901 	tsteq	r3, r1, lsl #18
     b98:	19000013 	stmdbne	r0, {r0, r1, r4}
     b9c:	13490021 	movtne	r0, #36897	; 0x9021
     ba0:	00000b2f 	andeq	r0, r0, pc, lsr #22
     ba4:	3f012e1a 	svccc	0x00012e1a
     ba8:	3a0e0319 	bcc	381814 <__bss_end__+0x377054>
     bac:	270b3b0b 	strcs	r3, [fp, -fp, lsl #22]
     bb0:	12011119 	andne	r1, r1, #1073741830	; 0x40000006
     bb4:	97184006 	ldrls	r4, [r8, -r6]
     bb8:	13011942 	movwne	r1, #6466	; 0x1942
     bbc:	151b0000 	ldrne	r0, [fp, #-0]
     bc0:	49192701 	ldmdbmi	r9, {r0, r8, r9, sl, sp}
     bc4:	00130113 	andseq	r0, r3, r3, lsl r1
     bc8:	00051c00 	andeq	r1, r5, r0, lsl #24
     bcc:	00001349 	andeq	r1, r0, r9, asr #6
     bd0:	3f012e1d 	svccc	0x00012e1d
     bd4:	3a0e0319 	bcc	381840 <__bss_end__+0x377080>
     bd8:	270b3b0b 	strcs	r3, [fp, -fp, lsl #22]
     bdc:	11134919 	tstne	r3, r9, lsl r9
     be0:	40061201 	andmi	r1, r6, r1, lsl #4
     be4:	19429718 	stmdbne	r2, {r3, r4, r8, r9, sl, ip, pc}^
     be8:	00001301 	andeq	r1, r0, r1, lsl #6
     bec:	55010b1e 	strpl	r0, [r1, #-2846]	; 0xb1e
     bf0:	1f000017 	svcne	0x00000017
     bf4:	0e030034 	mcreq	0, 0, r0, cr3, cr4, {1}
     bf8:	0b3b0b3a 	bleq	ec38e8 <__bss_end__+0xeb9128>
     bfc:	193f1349 	ldmdbne	pc!, {r0, r3, r6, r8, r9, ip}	; <UNPREDICTABLE>
     c00:	0000193c 	andeq	r1, r0, ip, lsr r9
     c04:	3f002e20 	svccc	0x00002e20
     c08:	3a0e0319 	bcc	381874 <__bss_end__+0x3770b4>
     c0c:	270b3b0b 	strcs	r3, [fp, -fp, lsl #22]
     c10:	00193c19 	andseq	r3, r9, r9, lsl ip
     c14:	012e2100 	teqeq	lr, r0, lsl #2
     c18:	0e03193f 	mcreq	9, 0, r1, cr3, cr15, {1}
     c1c:	0b3b0b3a 	bleq	ec390c <__bss_end__+0xeb914c>
     c20:	13491927 	movtne	r1, #39207	; 0x9927
     c24:	1301193c 	movwne	r1, #6460	; 0x193c
     c28:	18220000 	stmdane	r2!, {}	; <UNPREDICTABLE>
     c2c:	00000000 	andeq	r0, r0, r0
     c30:	25011101 	strcs	r1, [r1, #-257]	; 0x101
     c34:	030b130e 	movweq	r1, #45838	; 0xb30e
     c38:	110e1b0e 	tstne	lr, lr, lsl #22
     c3c:	10061201 	andne	r1, r6, r1, lsl #4
     c40:	02000017 	andeq	r0, r0, #23
     c44:	0b0b0024 	bleq	2c0cdc <__bss_end__+0x2b651c>
     c48:	08030b3e 	stmdaeq	r3, {r1, r2, r3, r4, r5, r8, r9, fp}
     c4c:	24030000 	strcs	r0, [r3], #-0
     c50:	3e0b0b00 	vmlacc.f64	d0, d11, d0
     c54:	000e030b 	andeq	r0, lr, fp, lsl #6
     c58:	000f0400 	andeq	r0, pc, r0, lsl #8
     c5c:	13490b0b 	movtne	r0, #39691	; 0x9b0b
     c60:	26050000 	strcs	r0, [r5], -r0
     c64:	00134900 	andseq	r4, r3, r0, lsl #18
     c68:	012e0600 	teqeq	lr, r0, lsl #12
     c6c:	0e03193f 	mcreq	9, 0, r1, cr3, cr15, {1}
     c70:	0b3b0b3a 	bleq	ec3960 <__bss_end__+0xeb91a0>
     c74:	01111927 	tsteq	r1, r7, lsr #18
     c78:	18400612 	stmdane	r0, {r1, r4, r9, sl}^
     c7c:	01194297 			; <UNDEFINED> instruction: 0x01194297
     c80:	07000013 	smladeq	r0, r3, r0, r0
     c84:	01018289 	smlabbeq	r1, r9, r2, r8
     c88:	13010111 	movwne	r0, #4369	; 0x1111
     c8c:	8a080000 	bhi	200c94 <__bss_end__+0x1f64d4>
     c90:	02000182 	andeq	r0, r0, #-2147483616	; 0x80000020
     c94:	18429118 	stmdane	r2, {r3, r4, r8, ip, pc}^
     c98:	89090000 	stmdbhi	r9, {}	; <UNPREDICTABLE>
     c9c:	11010182 	smlabbne	r1, r2, r1, r0
     ca0:	01133101 	tsteq	r3, r1, lsl #2
     ca4:	0a000013 	beq	cf8 <_start-0x7308>
     ca8:	00018289 	andeq	r8, r1, r9, lsl #5
     cac:	13310111 	teqne	r1, #1073741828	; 0x40000004
     cb0:	150b0000 	strne	r0, [fp, #-0]
     cb4:	49192701 	ldmdbmi	r9, {r0, r8, r9, sl, sp}
     cb8:	00130113 	andseq	r0, r3, r3, lsl r1
     cbc:	00050c00 	andeq	r0, r5, r0, lsl #24
     cc0:	00001349 	andeq	r1, r0, r9, asr #6
     cc4:	0300340d 	movweq	r3, #1037	; 0x40d
     cc8:	3b0b3a0e 	blcc	2cf508 <__bss_end__+0x2c4d48>
     ccc:	3f13490b 	svccc	0x0013490b
     cd0:	00193c19 	andseq	r3, r9, r9, lsl ip
     cd4:	012e0e00 	teqeq	lr, r0, lsl #28
     cd8:	0e03193f 	mcreq	9, 0, r1, cr3, cr15, {1}
     cdc:	0b3b0b3a 	bleq	ec39cc <__bss_end__+0xeb920c>
     ce0:	193c1927 	ldmdbne	ip!, {r0, r1, r2, r5, r8, fp, ip}
     ce4:	00001301 	andeq	r1, r0, r1, lsl #6
     ce8:	3f002e0f 	svccc	0x00002e0f
     cec:	3a0e0319 	bcc	381958 <__bss_end__+0x377198>
     cf0:	270b3b0b 	strcs	r3, [fp, -fp, lsl #22]
     cf4:	00193c19 	andseq	r3, r9, r9, lsl ip
     cf8:	11010000 	mrsne	r0, (UNDEF: 1)
     cfc:	130e2501 	movwne	r2, #58625	; 0xe501
     d00:	1b0e030b 	blne	381934 <__bss_end__+0x377174>
     d04:	1201110e 	andne	r1, r1, #-2147483645	; 0x80000003
     d08:	00171006 	andseq	r1, r7, r6
     d0c:	00240200 	eoreq	r0, r4, r0, lsl #4
     d10:	0b3e0b0b 	bleq	f83944 <__bss_end__+0xf79184>
     d14:	00000803 	andeq	r0, r0, r3, lsl #16
     d18:	0b002403 	bleq	9d2c <__FUNCTION__.4322+0x278>
     d1c:	030b3e0b 	movweq	r3, #48651	; 0xbe0b
     d20:	0400000e 	streq	r0, [r0], #-14
     d24:	193f012e 	ldmdbne	pc!, {r1, r2, r3, r5, r8}	; <UNPREDICTABLE>
     d28:	0b3a0e03 	bleq	e8453c <__bss_end__+0xe79d7c>
     d2c:	01110b3b 	tsteq	r1, fp, lsr fp
     d30:	18400612 	stmdane	r0, {r1, r4, r9, sl}^
     d34:	01194297 			; <UNDEFINED> instruction: 0x01194297
     d38:	05000013 	streq	r0, [r0, #-19]
     d3c:	0e030034 	mcreq	0, 0, r0, cr3, cr4, {1}
     d40:	0b3b0b3a 	bleq	ec3a30 <__bss_end__+0xeb9270>
     d44:	193f1349 	ldmdbne	pc!, {r0, r3, r6, r8, r9, ip}	; <UNPREDICTABLE>
     d48:	0000193c 	andeq	r1, r0, ip, lsr r9
     d4c:	3f002e06 	svccc	0x00002e06
     d50:	3a0e0319 	bcc	3819bc <__bss_end__+0x3771fc>
     d54:	270b3b0b 	strcs	r3, [fp, -fp, lsl #22]
     d58:	00193c19 	andseq	r3, r9, r9, lsl ip
     d5c:	00340700 	eorseq	r0, r4, r0, lsl #14
     d60:	0b3a0803 	bleq	e82d74 <__bss_end__+0xe785b4>
     d64:	13490b3b 	movtne	r0, #39739	; 0x9b3b
     d68:	00001702 	andeq	r1, r0, r2, lsl #14
     d6c:	03003408 	movweq	r3, #1032	; 0x408
     d70:	3b0b3a0e 	blcc	2cf5b0 <__bss_end__+0x2c4df0>
     d74:	0013490b 	andseq	r4, r3, fp, lsl #18
     d78:	82890900 	addhi	r0, r9, #0, 18
     d7c:	01110001 	tsteq	r1, r1
     d80:	00001331 	andeq	r1, r0, r1, lsr r3
     d84:	0b000f0a 	bleq	49b4 <_start-0x364c>
     d88:	0013490b 	andseq	r4, r3, fp, lsl #18
     d8c:	11010000 	mrsne	r0, (UNDEF: 1)
     d90:	130e2501 	movwne	r2, #58625	; 0xe501
     d94:	1b0e030b 	blne	3819c8 <__bss_end__+0x377208>
     d98:	1117550e 	tstne	r7, lr, lsl #10
     d9c:	00171001 	andseq	r1, r7, r1
     da0:	00240200 	eoreq	r0, r4, r0, lsl #4
     da4:	0b3e0b0b 	bleq	f839d8 <__bss_end__+0xf79218>
     da8:	00000803 	andeq	r0, r0, r3, lsl #16
     dac:	0b002403 	bleq	9dc0 <__FUNCTION__.4322+0x30c>
     db0:	030b3e0b 	movweq	r3, #48651	; 0xbe0b
     db4:	0400000e 	streq	r0, [r0], #-14
     db8:	193f012e 	ldmdbne	pc!, {r1, r2, r3, r5, r8}	; <UNPREDICTABLE>
     dbc:	0b3a0e03 	bleq	e845d0 <__bss_end__+0xe79e10>
     dc0:	19270b3b 	stmdbne	r7!, {r0, r1, r3, r4, r5, r8, r9, fp}
     dc4:	01111349 	tsteq	r1, r9, asr #6
     dc8:	18400612 	stmdane	r0, {r1, r4, r9, sl}^
     dcc:	01194297 			; <UNDEFINED> instruction: 0x01194297
     dd0:	05000013 	streq	r0, [r0, #-19]
     dd4:	0e030034 	mcreq	0, 0, r0, cr3, cr4, {1}
     dd8:	0b3b0b3a 	bleq	ec3ac8 <__bss_end__+0xeb9308>
     ddc:	17021349 	strne	r1, [r2, -r9, asr #6]
     de0:	2e060000 	cdpcs	0, 0, cr0, cr6, cr0, {0}
     de4:	03193f01 	tsteq	r9, #1, 30
     de8:	3b0b3a0e 	blcc	2cf628 <__bss_end__+0x2c4e68>
     dec:	1119270b 	tstne	r9, fp, lsl #14
     df0:	40061201 	andmi	r1, r6, r1, lsl #4
     df4:	19429718 	stmdbne	r2, {r3, r4, r8, r9, sl, ip, pc}^
     df8:	00001301 	andeq	r1, r0, r1, lsl #6
     dfc:	03003407 	movweq	r3, #1031	; 0x407
     e00:	3b0b3a0e 	blcc	2cf640 <__bss_end__+0x2c4e80>
     e04:	1c13490b 	ldcne	9, cr4, [r3], {11}
     e08:	08000006 	stmdaeq	r0, {r1, r2}
     e0c:	0e030034 	mcreq	0, 0, r0, cr3, cr4, {1}
     e10:	0b3b0b3a 	bleq	ec3b00 <__bss_end__+0xeb9340>
     e14:	0b1c1349 	bleq	705b40 <__bss_end__+0x6fb380>
     e18:	89090000 	stmdbhi	r9, {}	; <UNPREDICTABLE>
     e1c:	11000182 	smlabbne	r0, r2, r1, r0
     e20:	00133101 	andseq	r3, r3, r1, lsl #2
     e24:	82890a00 	addhi	r0, r9, #0, 20
     e28:	01110101 	tsteq	r1, r1, lsl #2
     e2c:	13011331 	movwne	r1, #4913	; 0x1331
     e30:	8a0b0000 	bhi	2c0e38 <__bss_end__+0x2b6678>
     e34:	02000182 	andeq	r0, r0, #-2147483616	; 0x80000020
     e38:	18429118 	stmdane	r2, {r3, r4, r8, ip, pc}^
     e3c:	890c0000 	stmdbhi	ip, {}	; <UNPREDICTABLE>
     e40:	11010182 	smlabbne	r1, r2, r1, r0
     e44:	00133101 	andseq	r3, r3, r1, lsl #2
     e48:	00260d00 	eoreq	r0, r6, r0, lsl #26
     e4c:	00001349 	andeq	r1, r0, r9, asr #6
     e50:	3f012e0e 	svccc	0x00012e0e
     e54:	3a0e0319 	bcc	381ac0 <__bss_end__+0x377300>
     e58:	270b3b0b 	strcs	r3, [fp, -fp, lsl #22]
     e5c:	01193c19 	tsteq	r9, r9, lsl ip
     e60:	0f000013 	svceq	0x00000013
     e64:	13490005 	movtne	r0, #36869	; 0x9005
     e68:	2e100000 	cdpcs	0, 1, cr0, cr0, cr0, {0}
     e6c:	03193f01 	tsteq	r9, #1, 30
     e70:	3b0b3a0e 	blcc	2cf6b0 <__bss_end__+0x2c4ef0>
     e74:	3c19270b 	ldccc	7, cr2, [r9], {11}
     e78:	00000019 	andeq	r0, r0, r9, lsl r0
     e7c:	25011101 	strcs	r1, [r1, #-257]	; 0x101
     e80:	030b130e 	movweq	r1, #45838	; 0xb30e
     e84:	110e1b0e 	tstne	lr, lr, lsl #22
     e88:	10061201 	andne	r1, r6, r1, lsl #4
     e8c:	02000017 	andeq	r0, r0, #23
     e90:	0b0b0024 	bleq	2c0f28 <__bss_end__+0x2b6768>
     e94:	08030b3e 	stmdaeq	r3, {r1, r2, r3, r4, r5, r8, r9, fp}
     e98:	24030000 	strcs	r0, [r3], #-0
     e9c:	3e0b0b00 	vmlacc.f64	d0, d11, d0
     ea0:	000e030b 	andeq	r0, lr, fp, lsl #6
     ea4:	012e0400 	teqeq	lr, r0, lsl #8
     ea8:	0e03193f 	mcreq	9, 0, r1, cr3, cr15, {1}
     eac:	0b3b0b3a 	bleq	ec3b9c <__bss_end__+0xeb93dc>
     eb0:	01111927 	tsteq	r1, r7, lsr #18
     eb4:	18400612 	stmdane	r0, {r1, r4, r9, sl}^
     eb8:	01194297 			; <UNDEFINED> instruction: 0x01194297
     ebc:	05000013 	streq	r0, [r0, #-19]
     ec0:	0e030005 	cdpeq	0, 0, cr0, cr3, cr5, {0}
     ec4:	0b3b0b3a 	bleq	ec3bb4 <__bss_end__+0xeb93f4>
     ec8:	17021349 	strne	r1, [r2, -r9, asr #6]
     ecc:	2e060000 	cdpcs	0, 0, cr0, cr6, cr0, {0}
     ed0:	03193f01 	tsteq	r9, #1, 30
     ed4:	3b0b3a0e 	blcc	2cf714 <__bss_end__+0x2c4f54>
     ed8:	4919270b 	ldmdbmi	r9, {r0, r1, r3, r8, r9, sl, sp}
     edc:	12011113 	andne	r1, r1, #-1073741820	; 0xc0000004
     ee0:	97184006 	ldrls	r4, [r8, -r6]
     ee4:	13011942 	movwne	r1, #6466	; 0x1942
     ee8:	89070000 	stmdbhi	r7, {}	; <UNPREDICTABLE>
     eec:	11010182 	smlabbne	r1, r2, r1, r0
     ef0:	00133101 	andseq	r3, r3, r1, lsl #2
     ef4:	828a0800 	addhi	r0, sl, #0, 16
     ef8:	18020001 	stmdane	r2, {r0}
     efc:	00184291 	mulseq	r8, r1, r2
     f00:	00340900 	eorseq	r0, r4, r0, lsl #18
     f04:	0b3a0803 	bleq	e82f18 <__bss_end__+0xe78758>
     f08:	13490b3b 	movtne	r0, #39739	; 0x9b3b
     f0c:	00001802 	andeq	r1, r0, r2, lsl #16
     f10:	0182890a 	orreq	r8, r2, sl, lsl #18
     f14:	31011100 	mrscc	r1, (UNDEF: 17)
     f18:	0b000013 	bleq	f6c <_start-0x7094>
     f1c:	08030005 	stmdaeq	r3, {r0, r2}
     f20:	0b3b0b3a 	bleq	ec3c10 <__bss_end__+0xeb9450>
     f24:	17021349 	strne	r1, [r2, -r9, asr #6]
     f28:	0b0c0000 	bleq	300f30 <__bss_end__+0x2f6770>
     f2c:	12011101 	andne	r1, r1, #1073741824	; 0x40000000
     f30:	00130106 	andseq	r0, r3, r6, lsl #2
     f34:	00340d00 	eorseq	r0, r4, r0, lsl #26
     f38:	0b3a0803 	bleq	e82f4c <__bss_end__+0xe7878c>
     f3c:	13490b3b 	movtne	r0, #39739	; 0x9b3b
     f40:	00001702 	andeq	r1, r0, r2, lsl #14
     f44:	3f012e0e 	svccc	0x00012e0e
     f48:	3a0e0319 	bcc	381bb4 <__bss_end__+0x3773f4>
     f4c:	270b3b0b 	strcs	r3, [fp, -fp, lsl #22]
     f50:	3c134919 	ldccc	9, cr4, [r3], {25}
     f54:	0f000019 	svceq	0x00000019
     f58:	13490005 	movtne	r0, #36869	; 0x9005
     f5c:	01000000 	mrseq	r0, (UNDEF: 0)
     f60:	0e250111 	mcreq	1, 1, r0, cr5, cr1, {0}
     f64:	0e030b13 	vmoveq.32	d3[0], r0
     f68:	01110e1b 	tsteq	r1, fp, lsl lr
     f6c:	17100612 			; <UNDEFINED> instruction: 0x17100612
     f70:	24020000 	strcs	r0, [r2], #-0
     f74:	3e0b0b00 	vmlacc.f64	d0, d11, d0
     f78:	0008030b 	andeq	r0, r8, fp, lsl #6
     f7c:	00240300 	eoreq	r0, r4, r0, lsl #6
     f80:	0b3e0b0b 	bleq	f83bb4 <__bss_end__+0xf793f4>
     f84:	00000e03 	andeq	r0, r0, r3, lsl #28
     f88:	49003504 	stmdbmi	r0, {r2, r8, sl, ip, sp}
     f8c:	05000013 	streq	r0, [r0, #-19]
     f90:	0e030016 	mcreq	0, 0, r0, cr3, cr6, {0}
     f94:	0b3b0b3a 	bleq	ec3c84 <__bss_end__+0xeb94c4>
     f98:	00001349 	andeq	r1, r0, r9, asr #6
     f9c:	03001606 	movweq	r1, #1542	; 0x606
     fa0:	3b0b3a0e 	blcc	2cf7e0 <__bss_end__+0x2c5020>
     fa4:	00134905 	andseq	r4, r3, r5, lsl #18
     fa8:	01170700 	tsteq	r7, r0, lsl #14
     fac:	0b3a0b0b 	bleq	e83be0 <__bss_end__+0xe79420>
     fb0:	13010b3b 	movwne	r0, #6971	; 0x1b3b
     fb4:	0d080000 	stceq	0, cr0, [r8, #-0]
     fb8:	3a0e0300 	bcc	381bc0 <__bss_end__+0x377400>
     fbc:	490b3b0b 	stmdbmi	fp, {r0, r1, r3, r8, r9, fp, ip, sp}
     fc0:	09000013 	stmdbeq	r0, {r0, r1, r4}
     fc4:	13490101 	movtne	r0, #37121	; 0x9101
     fc8:	00001301 	andeq	r1, r0, r1, lsl #6
     fcc:	4900210a 	stmdbmi	r0, {r1, r3, r8, sp}
     fd0:	000b2f13 	andeq	r2, fp, r3, lsl pc
     fd4:	01130b00 	tsteq	r3, r0, lsl #22
     fd8:	0b3a0b0b 	bleq	e83c0c <__bss_end__+0xe7944c>
     fdc:	13010b3b 	movwne	r0, #6971	; 0x1b3b
     fe0:	0d0c0000 	stceq	0, cr0, [ip, #-0]
     fe4:	3a0e0300 	bcc	381bec <__bss_end__+0x37742c>
     fe8:	490b3b0b 	stmdbmi	fp, {r0, r1, r3, r8, r9, fp, ip, sp}
     fec:	000b3813 	andeq	r3, fp, r3, lsl r8
     ff0:	000f0d00 	andeq	r0, pc, r0, lsl #26
     ff4:	00000b0b 	andeq	r0, r0, fp, lsl #22
     ff8:	0b000f0e 	bleq	4c38 <_start-0x33c8>
     ffc:	0013490b 	andseq	r4, r3, fp, lsl #18
    1000:	00260f00 	eoreq	r0, r6, r0, lsl #30
    1004:	00001349 	andeq	r1, r0, r9, asr #6
    1008:	03011310 	movweq	r1, #4880	; 0x1310
    100c:	3a0b0b0e 	bcc	2c3c4c <__bss_end__+0x2b948c>
    1010:	010b3b0b 	tsteq	fp, fp, lsl #22
    1014:	11000013 	tstne	r0, r3, lsl r0
    1018:	0803000d 	stmdaeq	r3, {r0, r2, r3}
    101c:	0b3b0b3a 	bleq	ec3d0c <__bss_end__+0xeb954c>
    1020:	0b381349 	bleq	e05d4c <__bss_end__+0xdfb58c>
    1024:	13120000 	tstne	r2, #0
    1028:	0b0e0301 	bleq	381c34 <__bss_end__+0x377474>
    102c:	3b0b3a05 	blcc	2cf848 <__bss_end__+0x2c5088>
    1030:	0013010b 	andseq	r0, r3, fp, lsl #2
    1034:	000d1300 	andeq	r1, sp, r0, lsl #6
    1038:	0b3a0e03 	bleq	e8484c <__bss_end__+0xe7a08c>
    103c:	13490b3b 	movtne	r0, #39739	; 0x9b3b
    1040:	00000538 	andeq	r0, r0, r8, lsr r5
    1044:	27001514 	smladcs	r0, r4, r5, r1
    1048:	15000019 	strne	r0, [r0, #-25]
    104c:	19270115 	stmdbne	r7!, {r0, r2, r4, r8}
    1050:	13011349 	movwne	r1, #4937	; 0x1349
    1054:	05160000 	ldreq	r0, [r6, #-0]
    1058:	00134900 	andseq	r4, r3, r0, lsl #18
    105c:	01131700 	tsteq	r3, r0, lsl #14
    1060:	050b0e03 	streq	r0, [fp, #-3587]	; 0xe03
    1064:	053b0b3a 	ldreq	r0, [fp, #-2874]!	; 0xb3a
    1068:	00001301 	andeq	r1, r0, r1, lsl #6
    106c:	03000d18 	movweq	r0, #3352	; 0xd18
    1070:	3b0b3a0e 	blcc	2cf8b0 <__bss_end__+0x2c50f0>
    1074:	38134905 	ldmdacc	r3, {r0, r2, r8, fp, lr}
    1078:	1900000b 	stmdbne	r0, {r0, r1, r3}
    107c:	0e03000d 	cdpeq	0, 0, cr0, cr3, cr13, {0}
    1080:	053b0b3a 	ldreq	r0, [fp, #-2874]!	; 0xb3a
    1084:	05381349 	ldreq	r1, [r8, #-841]!	; 0x349
    1088:	131a0000 	tstne	sl, #0
    108c:	0b0e0301 	bleq	381c98 <__bss_end__+0x3774d8>
    1090:	3b0b3a0b 	blcc	2cf8c4 <__bss_end__+0x2c5104>
    1094:	00130105 	andseq	r0, r3, r5, lsl #2
    1098:	01131b00 	tsteq	r3, r0, lsl #22
    109c:	0b3a0b0b 	bleq	e83cd0 <__bss_end__+0xe79510>
    10a0:	1301053b 	movwne	r0, #5435	; 0x153b
    10a4:	171c0000 	ldrne	r0, [ip, -r0]
    10a8:	3a0b0b01 	bcc	2c3cb4 <__bss_end__+0x2b94f4>
    10ac:	01053b0b 	tsteq	r5, fp, lsl #22
    10b0:	1d000013 	stcne	0, cr0, [r0, #-76]	; 0xffffffb4
    10b4:	0e03000d 	cdpeq	0, 0, cr0, cr3, cr13, {0}
    10b8:	053b0b3a 	ldreq	r0, [fp, #-2874]!	; 0xb3a
    10bc:	00001349 	andeq	r1, r0, r9, asr #6
    10c0:	2701151e 	smladcs	r1, lr, r5, r1
    10c4:	00130119 	andseq	r0, r3, r9, lsl r1
    10c8:	00341f00 	eorseq	r1, r4, r0, lsl #30
    10cc:	0b3a0e03 	bleq	e848e0 <__bss_end__+0xe7a120>
    10d0:	1349053b 	movtne	r0, #38203	; 0x953b
    10d4:	193c193f 	ldmdbne	ip!, {r0, r1, r2, r3, r4, r5, r8, fp, ip}
    10d8:	34200000 	strtcc	r0, [r0], #-0
    10dc:	3a0e0300 	bcc	381ce4 <__bss_end__+0x377524>
    10e0:	490b3b0b 	stmdbmi	fp, {r0, r1, r3, r8, r9, fp, ip, sp}
    10e4:	3c193f13 	ldccc	15, cr3, [r9], {19}
    10e8:	21000019 	tstcs	r0, r9, lsl r0
    10ec:	0b0b0104 	bleq	2c1504 <__bss_end__+0x2b6d44>
    10f0:	0b3a1349 	bleq	e85e1c <__bss_end__+0xe7b65c>
    10f4:	13010b3b 	movwne	r0, #6971	; 0x1b3b
    10f8:	28220000 	stmdacs	r2!, {}	; <UNPREDICTABLE>
    10fc:	1c0e0300 	stcne	3, cr0, [lr], {-0}
    1100:	2300000b 	movwcs	r0, #11
    1104:	0e030034 	mcreq	0, 0, r0, cr3, cr4, {1}
    1108:	0b3b0b3a 	bleq	ec3df8 <__bss_end__+0xeb9638>
    110c:	061c1349 	ldreq	r1, [ip], -r9, asr #6
    1110:	2e240000 	cdpcs	0, 2, cr0, cr4, cr0, {0}
    1114:	03193f01 	tsteq	r9, #1, 30
    1118:	3b0b3a0e 	blcc	2cf958 <__bss_end__+0x2c5198>
    111c:	4919270b 	ldmdbmi	r9, {r0, r1, r3, r8, r9, sl, sp}
    1120:	12011113 	andne	r1, r1, #-1073741820	; 0xc0000004
    1124:	97184006 	ldrls	r4, [r8, -r6]
    1128:	13011942 	movwne	r1, #6466	; 0x1942
    112c:	89250000 	stmdbhi	r5!, {}	; <UNPREDICTABLE>
    1130:	11000182 	smlabbne	r0, r2, r1, r0
    1134:	00133101 	andseq	r3, r3, r1, lsl #2
    1138:	012e2600 	teqeq	lr, r0, lsl #12
    113c:	0e03193f 	mcreq	9, 0, r1, cr3, cr15, {1}
    1140:	0b3b0b3a 	bleq	ec3e30 <__bss_end__+0xeb9670>
    1144:	01111927 	tsteq	r1, r7, lsr #18
    1148:	18400612 	stmdane	r0, {r1, r4, r9, sl}^
    114c:	01194297 			; <UNDEFINED> instruction: 0x01194297
    1150:	27000013 	smladcs	r0, r3, r0, r0
    1154:	08030005 	stmdaeq	r3, {r0, r2}
    1158:	0b3b0b3a 	bleq	ec3e48 <__bss_end__+0xeb9688>
    115c:	17021349 	strne	r1, [r2, -r9, asr #6]
    1160:	89280000 	stmdbhi	r8!, {}	; <UNPREDICTABLE>
    1164:	11010182 	smlabbne	r1, r2, r1, r0
    1168:	01133101 	tsteq	r3, r1, lsl #2
    116c:	29000013 	stmdbcs	r0, {r0, r1, r4}
    1170:	0001828a 	andeq	r8, r1, sl, lsl #5
    1174:	42911802 	addsmi	r1, r1, #131072	; 0x20000
    1178:	2a000018 	bcs	11e0 <_start-0x6e20>
    117c:	08030034 	stmdaeq	r3, {r2, r4, r5}
    1180:	0b3b0b3a 	bleq	ec3e70 <__bss_end__+0xeb96b0>
    1184:	18021349 	stmdane	r2, {r0, r3, r6, r8, r9, ip}
    1188:	892b0000 	stmdbhi	fp!, {}	; <UNPREDICTABLE>
    118c:	11010182 	smlabbne	r1, r2, r1, r0
    1190:	00133101 	andseq	r3, r3, r1, lsl #2
    1194:	012e2c00 	teqeq	lr, r0, lsl #24
    1198:	0b3a0e03 	bleq	e849ac <__bss_end__+0xe7a1ec>
    119c:	19270b3b 	stmdbne	r7!, {r0, r1, r3, r4, r5, r8, r9, fp}
    11a0:	06120111 			; <UNDEFINED> instruction: 0x06120111
    11a4:	42971840 	addsmi	r1, r7, #64, 16	; 0x400000
    11a8:	00130119 	andseq	r0, r3, r9, lsl r1
    11ac:	00052d00 	andeq	r2, r5, r0, lsl #26
    11b0:	0b3a0e03 	bleq	e849c4 <__bss_end__+0xe7a204>
    11b4:	13490b3b 	movtne	r0, #39739	; 0x9b3b
    11b8:	00001702 	andeq	r1, r0, r2, lsl #14
    11bc:	0000352e 	andeq	r3, r0, lr, lsr #10
    11c0:	002e2f00 	eoreq	r2, lr, r0, lsl #30
    11c4:	193c193f 	ldmdbne	ip!, {r0, r1, r2, r3, r4, r5, r8, fp, ip}
    11c8:	0e030e6e 	cdpeq	14, 0, cr0, cr3, cr14, {3}
    11cc:	0b3b0b3a 	bleq	ec3ebc <__bss_end__+0xeb96fc>
    11d0:	01000000 	mrseq	r0, (UNDEF: 0)
    11d4:	0e250111 	mcreq	1, 1, r0, cr5, cr1, {0}
    11d8:	0e030b13 	vmoveq.32	d3[0], r0
    11dc:	01110e1b 	tsteq	r1, fp, lsl lr
    11e0:	17100612 			; <UNDEFINED> instruction: 0x17100612
    11e4:	24020000 	strcs	r0, [r2], #-0
    11e8:	3e0b0b00 	vmlacc.f64	d0, d11, d0
    11ec:	0008030b 	andeq	r0, r8, fp, lsl #6
    11f0:	00240300 	eoreq	r0, r4, r0, lsl #6
    11f4:	0b3e0b0b 	bleq	f83e28 <__bss_end__+0xf79668>
    11f8:	00000e03 	andeq	r0, r0, r3, lsl #28
    11fc:	49002604 	stmdbmi	r0, {r2, r9, sl, sp}
    1200:	05000013 	streq	r0, [r0, #-19]
    1204:	0e030016 	mcreq	0, 0, r0, cr3, cr6, {0}
    1208:	0b3b0b3a 	bleq	ec3ef8 <__bss_end__+0xeb9738>
    120c:	00001349 	andeq	r1, r0, r9, asr #6
    1210:	03001606 	movweq	r1, #1542	; 0x606
    1214:	3b0b3a0e 	blcc	2cfa54 <__bss_end__+0x2c5294>
    1218:	00134905 	andseq	r4, r3, r5, lsl #18
    121c:	01170700 	tsteq	r7, r0, lsl #14
    1220:	0b3a0b0b 	bleq	e83e54 <__bss_end__+0xe79694>
    1224:	13010b3b 	movwne	r0, #6971	; 0x1b3b
    1228:	0d080000 	stceq	0, cr0, [r8, #-0]
    122c:	3a0e0300 	bcc	381e34 <__bss_end__+0x377674>
    1230:	490b3b0b 	stmdbmi	fp, {r0, r1, r3, r8, r9, fp, ip, sp}
    1234:	09000013 	stmdbeq	r0, {r0, r1, r4}
    1238:	13490101 	movtne	r0, #37121	; 0x9101
    123c:	00001301 	andeq	r1, r0, r1, lsl #6
    1240:	4900210a 	stmdbmi	r0, {r1, r3, r8, sp}
    1244:	000b2f13 	andeq	r2, fp, r3, lsl pc
    1248:	01130b00 	tsteq	r3, r0, lsl #22
    124c:	0b3a0b0b 	bleq	e83e80 <__bss_end__+0xe796c0>
    1250:	13010b3b 	movwne	r0, #6971	; 0x1b3b
    1254:	0d0c0000 	stceq	0, cr0, [ip, #-0]
    1258:	3a0e0300 	bcc	381e60 <__bss_end__+0x3776a0>
    125c:	490b3b0b 	stmdbmi	fp, {r0, r1, r3, r8, r9, fp, ip, sp}
    1260:	000b3813 	andeq	r3, fp, r3, lsl r8
    1264:	000f0d00 	andeq	r0, pc, r0, lsl #26
    1268:	00000b0b 	andeq	r0, r0, fp, lsl #22
    126c:	0b000f0e 	bleq	4eac <_start-0x3154>
    1270:	0013490b 	andseq	r4, r3, fp, lsl #18
    1274:	01130f00 	tsteq	r3, r0, lsl #30
    1278:	0b0b0e03 	bleq	2c4a8c <__bss_end__+0x2ba2cc>
    127c:	0b3b0b3a 	bleq	ec3f6c <__bss_end__+0xeb97ac>
    1280:	00001301 	andeq	r1, r0, r1, lsl #6
    1284:	03000d10 	movweq	r0, #3344	; 0xd10
    1288:	3b0b3a08 	blcc	2cfab0 <__bss_end__+0x2c52f0>
    128c:	3813490b 	ldmdacc	r3, {r0, r1, r3, r8, fp, lr}
    1290:	1100000b 	tstne	r0, fp
    1294:	0e030113 	mcreq	1, 0, r0, cr3, cr3, {0}
    1298:	0b3a050b 	bleq	e826cc <__bss_end__+0xe77f0c>
    129c:	13010b3b 	movwne	r0, #6971	; 0x1b3b
    12a0:	0d120000 	ldceq	0, cr0, [r2, #-0]
    12a4:	3a0e0300 	bcc	381eac <__bss_end__+0x3776ec>
    12a8:	490b3b0b 	stmdbmi	fp, {r0, r1, r3, r8, r9, fp, ip, sp}
    12ac:	00053813 	andeq	r3, r5, r3, lsl r8
    12b0:	00151300 	andseq	r1, r5, r0, lsl #6
    12b4:	00001927 	andeq	r1, r0, r7, lsr #18
    12b8:	27011514 	smladcs	r1, r4, r5, r1
    12bc:	01134919 	tsteq	r3, r9, lsl r9
    12c0:	15000013 	strne	r0, [r0, #-19]
    12c4:	13490005 	movtne	r0, #36869	; 0x9005
    12c8:	13160000 	tstne	r6, #0
    12cc:	0b0e0301 	bleq	381ed8 <__bss_end__+0x377718>
    12d0:	3b0b3a05 	blcc	2cfaec <__bss_end__+0x2c532c>
    12d4:	00130105 	andseq	r0, r3, r5, lsl #2
    12d8:	000d1700 	andeq	r1, sp, r0, lsl #14
    12dc:	0b3a0e03 	bleq	e84af0 <__bss_end__+0xe7a330>
    12e0:	1349053b 	movtne	r0, #38203	; 0x953b
    12e4:	00000b38 	andeq	r0, r0, r8, lsr fp
    12e8:	03000d18 	movweq	r0, #3352	; 0xd18
    12ec:	3b0b3a0e 	blcc	2cfb2c <__bss_end__+0x2c536c>
    12f0:	38134905 	ldmdacc	r3, {r0, r2, r8, fp, lr}
    12f4:	19000005 	stmdbne	r0, {r0, r2}
    12f8:	0e030113 	mcreq	1, 0, r0, cr3, cr3, {0}
    12fc:	0b3a0b0b 	bleq	e83f30 <__bss_end__+0xe79770>
    1300:	1301053b 	movwne	r0, #5435	; 0x153b
    1304:	131a0000 	tstne	sl, #0
    1308:	3a0b0b01 	bcc	2c3f14 <__bss_end__+0x2b9754>
    130c:	01053b0b 	tsteq	r5, fp, lsl #22
    1310:	1b000013 	blne	1364 <_start-0x6c9c>
    1314:	0b0b0117 	bleq	2c1778 <__bss_end__+0x2b6fb8>
    1318:	053b0b3a 	ldreq	r0, [fp, #-2874]!	; 0xb3a
    131c:	00001301 	andeq	r1, r0, r1, lsl #6
    1320:	03000d1c 	movweq	r0, #3356	; 0xd1c
    1324:	3b0b3a0e 	blcc	2cfb64 <__bss_end__+0x2c53a4>
    1328:	00134905 	andseq	r4, r3, r5, lsl #18
    132c:	01151d00 	tsteq	r5, r0, lsl #26
    1330:	13011927 	movwne	r1, #6439	; 0x1927
    1334:	341e0000 	ldrcc	r0, [lr], #-0
    1338:	3a0e0300 	bcc	381f40 <__bss_end__+0x377780>
    133c:	49053b0b 	stmdbmi	r5, {r0, r1, r3, r8, r9, fp, ip, sp}
    1340:	3c193f13 	ldccc	15, cr3, [r9], {19}
    1344:	1f000019 	svcne	0x00000019
    1348:	0e030034 	mcreq	0, 0, r0, cr3, cr4, {1}
    134c:	0b3b0b3a 	bleq	ec403c <__bss_end__+0xeb987c>
    1350:	193f1349 	ldmdbne	pc!, {r0, r3, r6, r8, r9, ip}	; <UNPREDICTABLE>
    1354:	0000193c 	andeq	r1, r0, ip, lsr r9
    1358:	0b010420 	bleq	423e0 <__bss_end__+0x37c20>
    135c:	3a13490b 	bcc	4d3790 <__bss_end__+0x4c8fd0>
    1360:	010b3b0b 	tsteq	fp, fp, lsl #22
    1364:	21000013 	tstcs	r0, r3, lsl r0
    1368:	0e030028 	cdpeq	0, 0, cr0, cr3, cr8, {1}
    136c:	00000b1c 	andeq	r0, r0, ip, lsl fp
    1370:	03003422 	movweq	r3, #1058	; 0x422
    1374:	3b0b3a0e 	blcc	2cfbb4 <__bss_end__+0x2c53f4>
    1378:	1c13490b 	ldcne	9, cr4, [r3], {11}
    137c:	23000006 	movwcs	r0, #6
    1380:	193f012e 	ldmdbne	pc!, {r1, r2, r3, r5, r8}	; <UNPREDICTABLE>
    1384:	0b3a0e03 	bleq	e84b98 <__bss_end__+0xe7a3d8>
    1388:	19270b3b 	stmdbne	r7!, {r0, r1, r3, r4, r5, r8, r9, fp}
    138c:	01111349 	tsteq	r1, r9, asr #6
    1390:	18400612 	stmdane	r0, {r1, r4, r9, sl}^
    1394:	01194297 			; <UNDEFINED> instruction: 0x01194297
    1398:	24000013 	strcs	r0, [r0], #-19
    139c:	08030005 	stmdaeq	r3, {r0, r2}
    13a0:	0b3b0b3a 	bleq	ec4090 <__bss_end__+0xeb98d0>
    13a4:	17021349 	strne	r1, [r2, -r9, asr #6]
    13a8:	34250000 	strtcc	r0, [r5], #-0
    13ac:	3a0e0300 	bcc	381fb4 <__bss_end__+0x3777f4>
    13b0:	490b3b0b 	stmdbmi	fp, {r0, r1, r3, r8, r9, fp, ip, sp}
    13b4:	00170213 	andseq	r0, r7, r3, lsl r2
    13b8:	00342600 	eorseq	r2, r4, r0, lsl #12
    13bc:	0b3a0803 	bleq	e833d0 <__bss_end__+0xe78c10>
    13c0:	13490b3b 	movtne	r0, #39739	; 0x9b3b
    13c4:	00001702 	andeq	r1, r0, r2, lsl #14
    13c8:	01828927 	orreq	r8, r2, r7, lsr #18
    13cc:	31011101 	tstcc	r1, r1, lsl #2
    13d0:	28000013 	stmdacs	r0, {r0, r1, r4}
    13d4:	0001828a 	andeq	r8, r1, sl, lsl #5
    13d8:	42911802 	addsmi	r1, r1, #131072	; 0x20000
    13dc:	29000018 	stmdbcs	r0, {r3, r4}
    13e0:	193f012e 	ldmdbne	pc!, {r1, r2, r3, r5, r8}	; <UNPREDICTABLE>
    13e4:	0b3a0e03 	bleq	e84bf8 <__bss_end__+0xe7a438>
    13e8:	19270b3b 	stmdbne	r7!, {r0, r1, r3, r4, r5, r8, r9, fp}
    13ec:	06120111 			; <UNDEFINED> instruction: 0x06120111
    13f0:	42971840 	addsmi	r1, r7, #64, 16	; 0x400000
    13f4:	00130119 	andseq	r0, r3, r9, lsl r1
    13f8:	82892a00 	addhi	r2, r9, #0, 20
    13fc:	01110101 	tsteq	r1, r1, lsl #2
    1400:	13011331 	movwne	r1, #4913	; 0x1331
    1404:	892b0000 	stmdbhi	fp!, {}	; <UNPREDICTABLE>
    1408:	11000182 	smlabbne	r0, r2, r1, r0
    140c:	00133101 	andseq	r3, r3, r1, lsl #2
    1410:	00052c00 	andeq	r2, r5, r0, lsl #24
    1414:	0b3a0e03 	bleq	e84c28 <__bss_end__+0xe7a468>
    1418:	13490b3b 	movtne	r0, #39739	; 0x9b3b
    141c:	00001702 	andeq	r1, r0, r2, lsl #14
    1420:	0300342d 	movweq	r3, #1069	; 0x42d
    1424:	3b0b3a08 	blcc	2cfc4c <__bss_end__+0x2c548c>
    1428:	0213490b 	andseq	r4, r3, #180224	; 0x2c000
    142c:	2e000018 	mcrcs	0, 0, r0, cr0, cr8, {0}
    1430:	193f002e 	ldmdbne	pc!, {r1, r2, r3, r5}	; <UNPREDICTABLE>
    1434:	0e6e193c 	mcreq	9, 3, r1, cr14, cr12, {1}
    1438:	0b3a0e03 	bleq	e84c4c <__bss_end__+0xe7a48c>
    143c:	00000b3b 	andeq	r0, r0, fp, lsr fp
    1440:	01110100 	tsteq	r1, r0, lsl #2
    1444:	0b130e25 	bleq	4c4ce0 <__bss_end__+0x4ba520>
    1448:	0e1b0e03 	cdpeq	14, 1, cr0, cr11, cr3, {0}
    144c:	06120111 			; <UNDEFINED> instruction: 0x06120111
    1450:	00001710 	andeq	r1, r0, r0, lsl r7
    1454:	0b002402 	bleq	a464 <buf.4185+0xa8>
    1458:	030b3e0b 	movweq	r3, #48651	; 0xbe0b
    145c:	03000008 	movweq	r0, #8
    1460:	0b0b0024 	bleq	2c14f8 <__bss_end__+0x2b6d38>
    1464:	0e030b3e 	vmoveq.16	d3[0], r0
    1468:	16040000 	strne	r0, [r4], -r0
    146c:	3a0e0300 	bcc	382074 <__bss_end__+0x3778b4>
    1470:	490b3b0b 	stmdbmi	fp, {r0, r1, r3, r8, r9, fp, ip, sp}
    1474:	05000013 	streq	r0, [r0, #-19]
    1478:	0e030016 	mcreq	0, 0, r0, cr3, cr6, {0}
    147c:	053b0b3a 	ldreq	r0, [fp, #-2874]!	; 0xb3a
    1480:	00001349 	andeq	r1, r0, r9, asr #6
    1484:	0b011706 	bleq	470a4 <__bss_end__+0x3c8e4>
    1488:	3b0b3a0b 	blcc	2cfcbc <__bss_end__+0x2c54fc>
    148c:	0013010b 	andseq	r0, r3, fp, lsl #2
    1490:	000d0700 	andeq	r0, sp, r0, lsl #14
    1494:	0b3a0e03 	bleq	e84ca8 <__bss_end__+0xe7a4e8>
    1498:	13490b3b 	movtne	r0, #39739	; 0x9b3b
    149c:	01080000 	mrseq	r0, (UNDEF: 8)
    14a0:	01134901 	tsteq	r3, r1, lsl #18
    14a4:	09000013 	stmdbeq	r0, {r0, r1, r4}
    14a8:	13490021 	movtne	r0, #36897	; 0x9021
    14ac:	00000b2f 	andeq	r0, r0, pc, lsr #22
    14b0:	0b01130a 	bleq	460e0 <__bss_end__+0x3b920>
    14b4:	3b0b3a0b 	blcc	2cfce8 <__bss_end__+0x2c5528>
    14b8:	0013010b 	andseq	r0, r3, fp, lsl #2
    14bc:	000d0b00 	andeq	r0, sp, r0, lsl #22
    14c0:	0b3a0e03 	bleq	e84cd4 <__bss_end__+0xe7a514>
    14c4:	13490b3b 	movtne	r0, #39739	; 0x9b3b
    14c8:	00000b38 	andeq	r0, r0, r8, lsr fp
    14cc:	0b000f0c 	bleq	5104 <_start-0x2efc>
    14d0:	0d00000b 	stceq	0, cr0, [r0, #-44]	; 0xffffffd4
    14d4:	0b0b000f 	bleq	2c1518 <__bss_end__+0x2b6d58>
    14d8:	00001349 	andeq	r1, r0, r9, asr #6
    14dc:	4900260e 	stmdbmi	r0, {r1, r2, r3, r9, sl, sp}
    14e0:	0f000013 	svceq	0x00000013
    14e4:	0e030113 	mcreq	1, 0, r0, cr3, cr3, {0}
    14e8:	0b3a0b0b 	bleq	e8411c <__bss_end__+0xe7995c>
    14ec:	13010b3b 	movwne	r0, #6971	; 0x1b3b
    14f0:	0d100000 	ldceq	0, cr0, [r0, #-0]
    14f4:	3a080300 	bcc	2020fc <__bss_end__+0x1f793c>
    14f8:	490b3b0b 	stmdbmi	fp, {r0, r1, r3, r8, r9, fp, ip, sp}
    14fc:	000b3813 	andeq	r3, fp, r3, lsl r8
    1500:	01131100 	tsteq	r3, r0, lsl #2
    1504:	050b0e03 	streq	r0, [fp, #-3587]	; 0xe03
    1508:	0b3b0b3a 	bleq	ec41f8 <__bss_end__+0xeb9a38>
    150c:	00001301 	andeq	r1, r0, r1, lsl #6
    1510:	03000d12 	movweq	r0, #3346	; 0xd12
    1514:	3b0b3a0e 	blcc	2cfd54 <__bss_end__+0x2c5594>
    1518:	3813490b 	ldmdacc	r3, {r0, r1, r3, r8, fp, lr}
    151c:	13000005 	movwne	r0, #5
    1520:	19270015 	stmdbne	r7!, {r0, r2, r4}
    1524:	15140000 	ldrne	r0, [r4, #-0]
    1528:	49192701 	ldmdbmi	r9, {r0, r8, r9, sl, sp}
    152c:	00130113 	andseq	r0, r3, r3, lsl r1
    1530:	00051500 	andeq	r1, r5, r0, lsl #10
    1534:	00001349 	andeq	r1, r0, r9, asr #6
    1538:	03011316 	movweq	r1, #4886	; 0x1316
    153c:	3a050b0e 	bcc	14417c <__bss_end__+0x1399bc>
    1540:	01053b0b 	tsteq	r5, fp, lsl #22
    1544:	17000013 	smladne	r0, r3, r0, r0
    1548:	0e03000d 	cdpeq	0, 0, cr0, cr3, cr13, {0}
    154c:	053b0b3a 	ldreq	r0, [fp, #-2874]!	; 0xb3a
    1550:	0b381349 	bleq	e0627c <__bss_end__+0xdfbabc>
    1554:	0d180000 	ldceq	0, cr0, [r8, #-0]
    1558:	3a0e0300 	bcc	382160 <__bss_end__+0x3779a0>
    155c:	49053b0b 	stmdbmi	r5, {r0, r1, r3, r8, r9, fp, ip, sp}
    1560:	00053813 	andeq	r3, r5, r3, lsl r8
    1564:	01131900 	tsteq	r3, r0, lsl #18
    1568:	0b0b0e03 	bleq	2c4d7c <__bss_end__+0x2ba5bc>
    156c:	053b0b3a 	ldreq	r0, [fp, #-2874]!	; 0xb3a
    1570:	00001301 	andeq	r1, r0, r1, lsl #6
    1574:	0b01131a 	bleq	461e4 <__bss_end__+0x3ba24>
    1578:	3b0b3a0b 	blcc	2cfdac <__bss_end__+0x2c55ec>
    157c:	00130105 	andseq	r0, r3, r5, lsl #2
    1580:	01171b00 	tsteq	r7, r0, lsl #22
    1584:	0b3a0b0b 	bleq	e841b8 <__bss_end__+0xe799f8>
    1588:	1301053b 	movwne	r0, #5435	; 0x153b
    158c:	0d1c0000 	ldceq	0, cr0, [ip, #-0]
    1590:	3a0e0300 	bcc	382198 <__bss_end__+0x3779d8>
    1594:	49053b0b 	stmdbmi	r5, {r0, r1, r3, r8, r9, fp, ip, sp}
    1598:	1d000013 	stcne	0, cr0, [r0, #-76]	; 0xffffffb4
    159c:	19270115 	stmdbne	r7!, {r0, r2, r4, r8}
    15a0:	00001301 	andeq	r1, r0, r1, lsl #6
    15a4:	0300341e 	movweq	r3, #1054	; 0x41e
    15a8:	3b0b3a0e 	blcc	2cfde8 <__bss_end__+0x2c5628>
    15ac:	3f134905 	svccc	0x00134905
    15b0:	00193c19 	andseq	r3, r9, r9, lsl ip
    15b4:	00341f00 	eorseq	r1, r4, r0, lsl #30
    15b8:	0b3a0e03 	bleq	e84dcc <__bss_end__+0xe7a60c>
    15bc:	13490b3b 	movtne	r0, #39739	; 0x9b3b
    15c0:	193c193f 	ldmdbne	ip!, {r0, r1, r2, r3, r4, r5, r8, fp, ip}
    15c4:	34200000 	strtcc	r0, [r0], #-0
    15c8:	3a0e0300 	bcc	3821d0 <__bss_end__+0x377a10>
    15cc:	490b3b0b 	stmdbmi	fp, {r0, r1, r3, r8, r9, fp, ip, sp}
    15d0:	00180213 	andseq	r0, r8, r3, lsl r2
    15d4:	012e2100 	teqeq	lr, r0, lsl #2
    15d8:	0e03193f 	mcreq	9, 0, r1, cr3, cr15, {1}
    15dc:	0b3b0b3a 	bleq	ec42cc <__bss_end__+0xeb9b0c>
    15e0:	01111927 	tsteq	r1, r7, lsr #18
    15e4:	18400612 	stmdane	r0, {r1, r4, r9, sl}^
    15e8:	01194297 			; <UNDEFINED> instruction: 0x01194297
    15ec:	22000013 	andcs	r0, r0, #19
    15f0:	08030005 	stmdaeq	r3, {r0, r2}
    15f4:	0b3b0b3a 	bleq	ec42e4 <__bss_end__+0xeb9b24>
    15f8:	18021349 	stmdane	r2, {r0, r3, r6, r8, r9, ip}
    15fc:	2e230000 	cdpcs	0, 2, cr0, cr3, cr0, {0}
    1600:	03193f00 	tsteq	r9, #0, 30
    1604:	3b0b3a0e 	blcc	2cfe44 <__bss_end__+0x2c5684>
    1608:	1119270b 	tstne	r9, fp, lsl #14
    160c:	40061201 	andmi	r1, r6, r1, lsl #4
    1610:	19429718 	stmdbne	r2, {r3, r4, r8, r9, sl, ip, pc}^
    1614:	2e240000 	cdpcs	0, 2, cr0, cr4, cr0, {0}
    1618:	03193f01 	tsteq	r9, #1, 30
    161c:	3b0b3a0e 	blcc	2cfe5c <__bss_end__+0x2c569c>
    1620:	4919270b 	ldmdbmi	r9, {r0, r1, r3, r8, r9, sl, sp}
    1624:	12011113 	andne	r1, r1, #-1073741820	; 0xc0000004
    1628:	97184006 	ldrls	r4, [r8, -r6]
    162c:	13011942 	movwne	r1, #6466	; 0x1942
    1630:	05250000 	streq	r0, [r5, #-0]!
    1634:	3a0e0300 	bcc	38223c <__bss_end__+0x377a7c>
    1638:	490b3b0b 	stmdbmi	fp, {r0, r1, r3, r8, r9, fp, ip, sp}
    163c:	00170213 	andseq	r0, r7, r3, lsl r2
    1640:	00342600 	eorseq	r2, r4, r0, lsl #12
    1644:	13490e03 	movtne	r0, #40451	; 0x9e03
    1648:	18021934 	stmdane	r2, {r2, r4, r5, r8, fp, ip}
    164c:	34270000 	strtcc	r0, [r7], #-0
    1650:	3a080300 	bcc	202258 <__bss_end__+0x1f7a98>
    1654:	490b3b0b 	stmdbmi	fp, {r0, r1, r3, r8, r9, fp, ip, sp}
    1658:	00170213 	andseq	r0, r7, r3, lsl r2
    165c:	82892800 	addhi	r2, r9, #0, 16
    1660:	01110101 	tsteq	r1, r1, lsl #2
    1664:	13011331 	movwne	r1, #4913	; 0x1331
    1668:	8a290000 	bhi	a41670 <__bss_end__+0xa36eb0>
    166c:	02000182 	andeq	r0, r0, #-2147483616	; 0x80000020
    1670:	18429118 	stmdane	r2, {r3, r4, r8, ip, pc}^
    1674:	892a0000 	stmdbhi	sl!, {}	; <UNPREDICTABLE>
    1678:	11000182 	smlabbne	r0, r2, r1, r0
    167c:	00133101 	andseq	r3, r3, r1, lsl #2
    1680:	00052b00 	andeq	r2, r5, r0, lsl #22
    1684:	0b3a0803 	bleq	e83698 <__bss_end__+0xe78ed8>
    1688:	13490b3b 	movtne	r0, #39739	; 0x9b3b
    168c:	00001702 	andeq	r1, r0, r2, lsl #14
    1690:	0300342c 	movweq	r3, #1068	; 0x42c
    1694:	3b0b3a0e 	blcc	2cfed4 <__bss_end__+0x2c5714>
    1698:	0213490b 	andseq	r4, r3, #180224	; 0x2c000
    169c:	2d000017 	stccs	0, cr0, [r0, #-92]	; 0xffffffa4
    16a0:	193f002e 	ldmdbne	pc!, {r1, r2, r3, r5}	; <UNPREDICTABLE>
    16a4:	0b3a0e03 	bleq	e84eb8 <__bss_end__+0xe7a6f8>
    16a8:	19270b3b 	stmdbne	r7!, {r0, r1, r3, r4, r5, r8, r9, fp}
    16ac:	01111349 	tsteq	r1, r9, asr #6
    16b0:	18400612 	stmdane	r0, {r1, r4, r9, sl}^
    16b4:	00194297 	mulseq	r9, r7, r2
    16b8:	002e2e00 	eoreq	r2, lr, r0, lsl #28
    16bc:	193c193f 	ldmdbne	ip!, {r0, r1, r2, r3, r4, r5, r8, fp, ip}
    16c0:	0e030e6e 	cdpeq	14, 0, cr0, cr3, cr14, {3}
    16c4:	0b3b0b3a 	bleq	ec43b4 <__bss_end__+0xeb9bf4>
    16c8:	Address 0x00000000000016c8 is out of bounds.


Disassembly of section .debug_loc:

00000000 <.debug_loc>:
       0:	00000004 	andeq	r0, r0, r4
       4:	00000024 	andeq	r0, r0, r4, lsr #32
       8:	9f300002 	svcls	0x00300002
       c:	00000024 	andeq	r0, r0, r4, lsr #32
      10:	00000050 	andeq	r0, r0, r0, asr r0
      14:	50560001 	subspl	r0, r6, r1
      18:	58000000 	stmdapl	r0, {}	; <UNPREDICTABLE>
      1c:	01000000 	mrseq	r0, (UNDEF: 0)
      20:	00585400 	subseq	r5, r8, r0, lsl #8
      24:	00740000 	rsbseq	r0, r4, r0
      28:	00010000 	andeq	r0, r1, r0
      2c:	00000056 	andeq	r0, r0, r6, asr r0
      30:	00000000 	andeq	r0, r0, r0
      34:	00000400 	andeq	r0, r0, r0, lsl #8
      38:	00002400 	andeq	r2, r0, r0, lsl #8
      3c:	30000200 	andcc	r0, r0, r0, lsl #4
      40:	0000249f 	muleq	r0, pc, r4	; <UNPREDICTABLE>
      44:	00007400 	andeq	r7, r0, r0, lsl #8
      48:	55000100 	strpl	r0, [r0, #-256]	; 0x100
	...
      54:	0000003c 	andeq	r0, r0, ip, lsr r0
      58:	00000047 	andeq	r0, r0, r7, asr #32
      5c:	47500001 	ldrbmi	r0, [r0, -r1]
      60:	58000000 	stmdapl	r0, {}	; <UNPREDICTABLE>
      64:	01000000 	mrseq	r0, (UNDEF: 0)
      68:	00005400 	andeq	r5, r0, r0, lsl #8
	...
      74:	00300000 	eorseq	r0, r0, r0
      78:	00010000 	andeq	r0, r1, r0
      7c:	00003050 	andeq	r3, r0, r0, asr r0
      80:	0000c400 	andeq	ip, r0, r0, lsl #8
      84:	55000100 	strpl	r0, [r0, #-256]	; 0x100
      88:	000000c4 	andeq	r0, r0, r4, asr #1
      8c:	000000d4 	ldrdeq	r0, [r0], -r4
      90:	d4500001 	ldrble	r0, [r0], #-1
      94:	00000000 	andeq	r0, r0, r0
      98:	01000001 	tsteq	r0, r1
      9c:	00005500 	andeq	r5, r0, r0, lsl #10
	...
      a8:	00330000 	eorseq	r0, r3, r0
      ac:	00010000 	andeq	r0, r1, r0
      b0:	00003351 	andeq	r3, r0, r1, asr r3
      b4:	0000c400 	andeq	ip, r0, r0, lsl #8
      b8:	f3000400 	vshl.u8	d0, d0, d0
      bc:	c49f5101 	ldrgt	r5, [pc], #257	; c4 <_start-0x7f3c>
      c0:	d8000000 	stmdale	r0, {}	; <UNPREDICTABLE>
      c4:	01000000 	mrseq	r0, (UNDEF: 0)
      c8:	00d85100 	sbcseq	r5, r8, r0, lsl #2
      cc:	01000000 	mrseq	r0, (UNDEF: 0)
      d0:	00040000 	andeq	r0, r4, r0
      d4:	9f5101f3 	svcls	0x005101f3
	...
      e4:	00000033 	andeq	r0, r0, r3, lsr r0
      e8:	33520001 	cmpcc	r2, #1
      ec:	c4000000 	strgt	r0, [r0], #-0
      f0:	04000000 	streq	r0, [r0], #-0
      f4:	5201f300 	andpl	pc, r1, #0, 6
      f8:	0000c49f 	muleq	r0, pc, r4	; <UNPREDICTABLE>
      fc:	0000d800 	andeq	sp, r0, r0, lsl #16
     100:	52000100 	andpl	r0, r0, #0, 2
     104:	000000d8 	ldrdeq	r0, [r0], -r8
     108:	00000100 	andeq	r0, r0, r0, lsl #2
     10c:	01f30004 	mvnseq	r0, r4
     110:	00009f52 	andeq	r9, r0, r2, asr pc
     114:	00000000 	andeq	r0, r0, r0
     118:	00080000 	andeq	r0, r8, r0
     11c:	00100000 	andseq	r0, r0, r0
     120:	00020000 	andeq	r0, r2, r0
     124:	00109f30 	andseq	r9, r0, r0, lsr pc
     128:	00330000 	eorseq	r0, r3, r0
     12c:	00010000 	andeq	r0, r1, r0
     130:	0000c453 	andeq	ip, r0, r3, asr r4
     134:	0000d800 	andeq	sp, r0, r0, lsl #16
     138:	53000100 	movwpl	r0, #256	; 0x100
	...
     144:	00000028 	andeq	r0, r0, r8, lsr #32
     148:	000000c4 	andeq	r0, r0, r4, asr #1
     14c:	d8540001 	ldmdale	r4, {r0}^
     150:	00000000 	andeq	r0, r0, r0
     154:	01000001 	tsteq	r0, r1
     158:	00005400 	andeq	r5, r0, r0, lsl #8
     15c:	00000000 	andeq	r0, r0, r0
     160:	004c0000 	subeq	r0, ip, r0
     164:	00c40000 	sbceq	r0, r4, r0
     168:	00010000 	andeq	r0, r1, r0
     16c:	0000d855 	andeq	sp, r0, r5, asr r8
     170:	00010000 	andeq	r0, r1, r0
     174:	55000100 	strpl	r0, [r0, #-256]	; 0x100
	...
     180:	00000060 	andeq	r0, r0, r0, rrx
     184:	00000088 	andeq	r0, r0, r8, lsl #1
     188:	10750003 	rsbsne	r0, r5, r3
     18c:	0000889f 	muleq	r0, pc, r8	; <UNPREDICTABLE>
     190:	0000c400 	andeq	ip, r0, r0, lsl #8
     194:	75000300 	strvc	r0, [r0, #-768]	; 0x300
     198:	00d89f1c 	sbcseq	r9, r8, ip, lsl pc
     19c:	01000000 	mrseq	r0, (UNDEF: 0)
     1a0:	00030000 	andeq	r0, r3, r0
     1a4:	009f1c75 	addseq	r1, pc, r5, ror ip	; <UNPREDICTABLE>
	...
     1b0:	0f000001 	svceq	0x00000001
     1b4:	01000001 	tsteq	r0, r1
     1b8:	010f5000 	mrseq	r5, CPSR
     1bc:	01140000 	tsteq	r4, r0
     1c0:	00040000 	andeq	r0, r4, r0
     1c4:	9f5001f3 	svcls	0x005001f3
	...
     1d0:	00000100 	andeq	r0, r0, r0, lsl #2
     1d4:	0000010c 	andeq	r0, r0, ip, lsl #2
     1d8:	0c510001 	mrrceq	0, 0, r0, r1, cr1
     1dc:	0f000001 	svceq	0x00000001
     1e0:	01000001 	tsteq	r0, r1
     1e4:	010f5200 	mrseq	r5, (UNDEF: 47)
     1e8:	01140000 	tsteq	r4, r0
     1ec:	00040000 	andeq	r0, r4, r0
     1f0:	9f5101f3 	svcls	0x005101f3
	...
     1fc:	00000114 	andeq	r0, r0, r4, lsl r1
     200:	0000012f 	andeq	r0, r0, pc, lsr #2
     204:	2f500001 	svccs	0x00500001
     208:	38000001 	stmdacc	r0, {r0}
     20c:	01000001 	tsteq	r0, r1
     210:	00005400 	andeq	r5, r0, r0, lsl #8
     214:	00000000 	andeq	r0, r0, r0
     218:	01380000 	teqeq	r8, r0
     21c:	01430000 	mrseq	r0, (UNDEF: 67)
     220:	00010000 	andeq	r0, r1, r0
     224:	00014350 	andeq	r4, r1, r0, asr r3
     228:	0001b000 	andeq	fp, r1, r0
     22c:	54000100 	strpl	r0, [r0], #-256	; 0x100
	...
     238:	00000144 	andeq	r0, r0, r4, asr #2
     23c:	00000153 	andeq	r0, r0, r3, asr r1
     240:	6c500001 	mrrcvs	0, 0, r0, r0, cr1	; <UNPREDICTABLE>
     244:	7f000001 	svcvc	0x00000001
     248:	01000001 	tsteq	r0, r1
     24c:	01985000 	orrseq	r5, r8, r0
     250:	019c0000 	orrseq	r0, ip, r0
     254:	00010000 	andeq	r0, r1, r0
     258:	00000050 	andeq	r0, r0, r0, asr r0
     25c:	00000000 	andeq	r0, r0, r0
     260:	0001b000 	andeq	fp, r1, r0
     264:	0001bb00 	andeq	fp, r1, r0, lsl #22
     268:	50000100 	andpl	r0, r0, r0, lsl #2
     26c:	000001bb 			; <UNDEFINED> instruction: 0x000001bb
     270:	00000220 	andeq	r0, r0, r0, lsr #4
     274:	00540001 	subseq	r0, r4, r1
     278:	00000000 	andeq	r0, r0, r0
     27c:	dc000000 	stcle	0, cr0, [r0], {-0}
     280:	08000001 	stmdaeq	r0, {r0}
     284:	01000002 	tsteq	r0, r2
     288:	02185400 	andseq	r5, r8, #0, 8
     28c:	02200000 	eoreq	r0, r0, #0
     290:	00010000 	andeq	r0, r1, r0
     294:	00000054 	andeq	r0, r0, r4, asr r0
     298:	00000000 	andeq	r0, r0, r0
     29c:	0001e400 	andeq	lr, r1, r0, lsl #8
     2a0:	00020800 	andeq	r0, r2, r0, lsl #16
     2a4:	54000100 	strpl	r0, [r0], #-256	; 0x100
     2a8:	00000218 	andeq	r0, r0, r8, lsl r2
     2ac:	00000220 	andeq	r0, r0, r0, lsr #4
     2b0:	00540001 	subseq	r0, r4, r1
     2b4:	00000000 	andeq	r0, r0, r0
     2b8:	20000000 	andcs	r0, r0, r0
     2bc:	3f000002 	svccc	0x00000002
     2c0:	01000002 	tsteq	r0, r2
     2c4:	023f5000 	eorseq	r5, pc, #0
     2c8:	02580000 	subseq	r0, r8, #0
     2cc:	00010000 	andeq	r0, r1, r0
     2d0:	00025854 	andeq	r5, r2, r4, asr r8
     2d4:	00025c00 	andeq	r5, r2, r0, lsl #24
     2d8:	50000100 	andpl	r0, r0, r0, lsl #2
     2dc:	0000025c 	andeq	r0, r0, ip, asr r2
     2e0:	00000278 	andeq	r0, r0, r8, ror r2
     2e4:	78540001 	ldmdavc	r4, {r0}^
     2e8:	94000002 	strls	r0, [r0], #-2
     2ec:	05000002 	streq	r0, [r0, #-2]
     2f0:	a3b00300 	movsge	r0, #0, 6
	...
     2fc:	02200000 	eoreq	r0, r0, #0
     300:	023f0000 	eorseq	r0, pc, #0
     304:	00010000 	andeq	r0, r1, r0
     308:	00023f51 	andeq	r3, r2, r1, asr pc
     30c:	00025800 	andeq	r5, r2, r0, lsl #16
     310:	55000100 	strpl	r0, [r0, #-256]	; 0x100
     314:	00000258 	andeq	r0, r0, r8, asr r2
     318:	00000260 	andeq	r0, r0, r0, ror #4
     31c:	60510001 	subsvs	r0, r1, r1
     320:	94000002 	strls	r0, [r0], #-2
     324:	01000002 	tsteq	r0, r2
     328:	00005500 	andeq	r5, r0, r0, lsl #10
     32c:	00000000 	andeq	r0, r0, r0
     330:	02940000 	addseq	r0, r4, #0
     334:	02ac0000 	adceq	r0, ip, #0
     338:	00010000 	andeq	r0, r1, r0
     33c:	0002ac50 	andeq	sl, r2, r0, asr ip
     340:	00035000 	andeq	r5, r3, r0
     344:	54000100 	strpl	r0, [r0], #-256	; 0x100
	...
     350:	00000294 	muleq	r0, r4, r2
     354:	000002bb 			; <UNDEFINED> instruction: 0x000002bb
     358:	bb510001 	bllt	1440364 <__bss_end__+0x1435ba4>
     35c:	d4000002 	strle	r0, [r0], #-2
     360:	01000002 	tsteq	r0, r2
     364:	02d45800 	sbcseq	r5, r4, #0, 16
     368:	02db0000 	sbcseq	r0, fp, #0
     36c:	00010000 	andeq	r0, r1, r0
     370:	0002db51 	andeq	sp, r2, r1, asr fp
     374:	00035000 	andeq	r5, r3, r0
     378:	58000100 	stmdapl	r0, {r8}
	...
     384:	00000294 	muleq	r0, r4, r2
     388:	000002bb 			; <UNDEFINED> instruction: 0x000002bb
     38c:	bb520001 	bllt	1480398 <__bss_end__+0x1475bd8>
     390:	d4000002 	strle	r0, [r0], #-2
     394:	01000002 	tsteq	r0, r2
     398:	02d45700 	sbcseq	r5, r4, #0, 14
     39c:	02db0000 	sbcseq	r0, fp, #0
     3a0:	00010000 	andeq	r0, r1, r0
     3a4:	0002db52 	andeq	sp, r2, r2, asr fp
     3a8:	00035000 	andeq	r5, r3, r0
     3ac:	57000100 	strpl	r0, [r0, -r0, lsl #2]
	...
     3b8:	00000294 	muleq	r0, r4, r2
     3bc:	000002bb 			; <UNDEFINED> instruction: 0x000002bb
     3c0:	bb530001 	bllt	14c03cc <__bss_end__+0x14b5c0c>
     3c4:	d4000002 	strle	r0, [r0], #-2
     3c8:	01000002 	tsteq	r0, r2
     3cc:	02d45600 	sbcseq	r5, r4, #0, 12
     3d0:	02db0000 	sbcseq	r0, fp, #0
     3d4:	00010000 	andeq	r0, r1, r0
     3d8:	0002db53 	andeq	sp, r2, r3, asr fp
     3dc:	00035000 	andeq	r5, r3, r0
     3e0:	56000100 	strpl	r0, [r0], -r0, lsl #2
	...
     3ec:	000002a8 	andeq	r0, r0, r8, lsr #5
     3f0:	000002ec 	andeq	r0, r0, ip, ror #5
     3f4:	9f300002 	svcls	0x00300002
	...
     400:	00000350 	andeq	r0, r0, r0, asr r3
     404:	0000037b 	andeq	r0, r0, fp, ror r3
     408:	7b500001 	blvc	1400414 <__bss_end__+0x13f5c54>
     40c:	94000003 	strls	r0, [r0], #-3
     410:	01000003 	tsteq	r0, r3
     414:	03945500 	orrseq	r5, r4, #0, 10
     418:	03980000 	orrseq	r0, r8, #0
     41c:	00010000 	andeq	r0, r1, r0
     420:	00039850 	andeq	r9, r3, r0, asr r8
     424:	00054c00 	andeq	r4, r5, r0, lsl #24
     428:	55000100 	strpl	r0, [r0, #-256]	; 0x100
     42c:	0000054c 	andeq	r0, r0, ip, asr #10
     430:	00000584 	andeq	r0, r0, r4, lsl #11
     434:	01f30004 	mvnseq	r0, r4
     438:	00009f50 	andeq	r9, r0, r0, asr pc
     43c:	00000000 	andeq	r0, r0, r0
     440:	03500000 	cmpeq	r0, #0
     444:	037b0000 	cmneq	fp, #0
     448:	00010000 	andeq	r0, r1, r0
     44c:	00037b51 	andeq	r7, r3, r1, asr fp
     450:	00039400 	andeq	r9, r3, r0, lsl #8
     454:	59000100 	stmdbpl	r0, {r8}
     458:	00000394 	muleq	r0, r4, r3
     45c:	0000039b 	muleq	r0, fp, r3
     460:	9b510001 	blls	144046c <__bss_end__+0x1435cac>
     464:	4c000003 	stcmi	0, cr0, [r0], {3}
     468:	01000005 	tsteq	r0, r5
     46c:	054c5900 	strbeq	r5, [ip, #-2304]	; 0x900
     470:	05840000 	streq	r0, [r4]
     474:	00040000 	andeq	r0, r4, r0
     478:	9f5101f3 	svcls	0x005101f3
	...
     484:	00000350 	andeq	r0, r0, r0, asr r3
     488:	0000037b 	andeq	r0, r0, fp, ror r3
     48c:	7b520001 	blvc	1480498 <__bss_end__+0x1475cd8>
     490:	94000003 	strls	r0, [r0], #-3
     494:	01000003 	tsteq	r0, r3
     498:	03945800 	orrseq	r5, r4, #0, 16
     49c:	039b0000 	orrseq	r0, fp, #0
     4a0:	00010000 	andeq	r0, r1, r0
     4a4:	00039b52 	andeq	r9, r3, r2, asr fp
     4a8:	00054c00 	andeq	r4, r5, r0, lsl #24
     4ac:	58000100 	stmdapl	r0, {r8}
     4b0:	0000054c 	andeq	r0, r0, ip, asr #10
     4b4:	00000584 	andeq	r0, r0, r4, lsl #11
     4b8:	01f30004 	mvnseq	r0, r4
     4bc:	00009f52 	andeq	r9, r0, r2, asr pc
     4c0:	00000000 	andeq	r0, r0, r0
     4c4:	03500000 	cmpeq	r0, #0
     4c8:	036c0000 	cmneq	ip, #0
     4cc:	00010000 	andeq	r0, r1, r0
     4d0:	00036c53 	andeq	r6, r3, r3, asr ip
     4d4:	0004a800 	andeq	sl, r4, r0, lsl #16
     4d8:	57000100 	strpl	r0, [r0, -r0, lsl #2]
     4dc:	000004a8 	andeq	r0, r0, r8, lsr #9
     4e0:	00000584 	andeq	r0, r0, r4, lsl #11
     4e4:	01f30004 	mvnseq	r0, r4
     4e8:	00009f53 	andeq	r9, r0, r3, asr pc
     4ec:	00000000 	andeq	r0, r0, r0
     4f0:	03680000 	cmneq	r8, #0
     4f4:	045c0000 	ldrbeq	r0, [ip], #-0
     4f8:	00020000 	andeq	r0, r2, r0
     4fc:	045c9f30 	ldrbeq	r9, [ip], #-3888	; 0xf30
     500:	054c0000 	strbeq	r0, [ip, #-0]
     504:	00010000 	andeq	r0, r1, r0
     508:	00054c54 	andeq	r4, r5, r4, asr ip
     50c:	00058400 	andeq	r8, r5, r0, lsl #8
     510:	70000400 	andvc	r0, r0, r0, lsl #8
     514:	009f7ec8 	addseq	r7, pc, r8, asr #29
     518:	00000000 	andeq	r0, r0, r0
     51c:	68000000 	stmdavs	r0, {}	; <UNPREDICTABLE>
     520:	cc000003 	stcgt	0, cr0, [r0], {3}
     524:	02000004 	andeq	r0, r0, #4
     528:	009f3000 	addseq	r3, pc, r0
     52c:	00000000 	andeq	r0, r0, r0
     530:	b0000000 	andlt	r0, r0, r0
     534:	c3000003 	movwgt	r0, #3
     538:	01000003 	tsteq	r0, r3
     53c:	03c35c00 	biceq	r5, r3, #0, 24
     540:	03f00000 	mvnseq	r0, #0
     544:	00040000 	andeq	r0, r4, r0
     548:	9f7dc876 	svcls	0x007dc876
     54c:	000003f0 	strdeq	r0, [r0], -r0	; <UNPREDICTABLE>
     550:	0000040f 	andeq	r0, r0, pc, lsl #8
     554:	0f5c0001 	svceq	0x005c0001
     558:	5c000004 	stcpl	0, cr0, [r0], {4}
     55c:	04000004 	streq	r0, [r0], #-4
     560:	7dc87600 	stclvc	6, cr7, [r8]
     564:	00045c9f 	muleq	r4, pc, ip	; <UNPREDICTABLE>
     568:	00046400 	andeq	r6, r4, r0, lsl #8
     56c:	5c000100 	stfpls	f0, [r0], {-0}
     570:	00000464 	andeq	r0, r0, r4, ror #8
     574:	0000054c 	andeq	r0, r0, ip, asr #10
     578:	c8760004 	ldmdagt	r6!, {r2}^
     57c:	054c9f7d 	strbeq	r9, [ip, #-3965]	; 0xf7d
     580:	05840000 	streq	r0, [r4]
     584:	00090000 	andeq	r0, r9, r0
     588:	235001f3 	cmpcs	r0, #-1073741764	; 0xc000003c
     58c:	1af80907 	bne	ffe029b0 <__bss_end__+0xffdf81f0>
     590:	0000009f 	muleq	r0, pc, r0	; <UNPREDICTABLE>
     594:	00000000 	andeq	r0, r0, r0
     598:	0003b400 	andeq	fp, r3, r0, lsl #8
     59c:	00054c00 	andeq	r4, r5, r0, lsl #24
     5a0:	56000100 	strpl	r0, [r0], -r0, lsl #2
     5a4:	0000054c 	andeq	r0, r0, ip, asr #10
     5a8:	00000584 	andeq	r0, r0, r4, lsl #11
     5ac:	01f3000c 	mvnseq	r0, ip
     5b0:	09072350 	stmdbeq	r7, {r4, r6, r8, r9, sp}
     5b4:	b8231af8 	stmdalt	r3!, {r3, r4, r5, r6, r7, r9, fp, ip}
     5b8:	00009f02 	andeq	r9, r0, r2, lsl #30
     5bc:	00000000 	andeq	r0, r0, r0
     5c0:	045c0000 	ldrbeq	r0, [ip], #-0
     5c4:	054c0000 	strbeq	r0, [ip, #-0]
     5c8:	00040000 	andeq	r0, r4, r0
     5cc:	9f01b876 	svcls	0x0001b876
     5d0:	0000054c 	andeq	r0, r0, ip, asr #10
     5d4:	00000584 	andeq	r0, r0, r4, lsl #11
     5d8:	01f3000c 	mvnseq	r0, ip
     5dc:	09072350 	stmdbeq	r7, {r4, r6, r8, r9, sp}
     5e0:	f0231af8 			; <UNDEFINED> instruction: 0xf0231af8
     5e4:	00009f03 	andeq	r9, r0, r3, lsl #30
     5e8:	00000000 	andeq	r0, r0, r0
     5ec:	04a40000 	strteq	r0, [r4], #0
     5f0:	054c0000 	strbeq	r0, [ip, #-0]
     5f4:	00010000 	andeq	r0, r1, r0
     5f8:	00054c54 	andeq	r4, r5, r4, asr ip
     5fc:	00058400 	andeq	r8, r5, r0, lsl #8
     600:	70000400 	andvc	r0, r0, r0, lsl #8
     604:	009f7ec8 	addseq	r7, pc, r8, asr #29
     608:	00000000 	andeq	r0, r0, r0
     60c:	ac000000 	stcge	0, cr0, [r0], {-0}
     610:	4c000004 	stcmi	0, cr0, [r0], {4}
     614:	01000005 	tsteq	r0, r5
     618:	054c5400 	strbeq	r5, [ip, #-1024]	; 0x400
     61c:	05840000 	streq	r0, [r4]
     620:	00040000 	andeq	r0, r4, r0
     624:	9f7ec870 	svcls	0x007ec870
	...
     630:	000005d4 	ldrdeq	r0, [r0], -r4
     634:	00000600 	andeq	r0, r0, r0, lsl #12
     638:	00500001 	subseq	r0, r0, r1
     63c:	28000006 	stmdacs	r0, {r1, r2}
     640:	04000006 	streq	r0, [r0], #-6
     644:	5001f300 	andpl	pc, r1, r0, lsl #6
     648:	0006289f 	muleq	r6, pc, r8	; <UNPREDICTABLE>
     64c:	00062c00 	andeq	r2, r6, r0, lsl #24
     650:	50000100 	andpl	r0, r0, r0, lsl #2
     654:	0000062c 	andeq	r0, r0, ip, lsr #12
     658:	00000648 	andeq	r0, r0, r8, asr #12
     65c:	01f30004 	mvnseq	r0, r4
     660:	00009f50 	andeq	r9, r0, r0, asr pc
     664:	00000000 	andeq	r0, r0, r0
     668:	05d80000 	ldrbeq	r0, [r8]
     66c:	06000000 	streq	r0, [r0], -r0
     670:	00010000 	andeq	r0, r1, r0
     674:	00060050 	andeq	r0, r6, r0, asr r0
     678:	00062800 	andeq	r2, r6, r0, lsl #16
     67c:	f3000400 	vshl.u8	d0, d0, d0
     680:	289f5001 	ldmcs	pc, {r0, ip, lr}	; <UNPREDICTABLE>
     684:	2c000006 	stccs	0, cr0, [r0], {6}
     688:	01000006 	tsteq	r0, r6
     68c:	062c5000 	strteq	r5, [ip], -r0
     690:	06480000 	strbeq	r0, [r8], -r0
     694:	00040000 	andeq	r0, r4, r0
     698:	9f5001f3 	svcls	0x005001f3
	...
     6a4:	0000068c 	andeq	r0, r0, ip, lsl #13
     6a8:	000006b8 			; <UNDEFINED> instruction: 0x000006b8
     6ac:	00560001 	subseq	r0, r6, r1
     6b0:	00000000 	andeq	r0, r0, r0
     6b4:	94000000 	strls	r0, [r0], #-0
     6b8:	b4000006 	strlt	r0, [r0], #-6
     6bc:	01000006 	tsteq	r0, r6
     6c0:	00005500 	andeq	r5, r0, r0, lsl #10
     6c4:	00000000 	andeq	r0, r0, r0
     6c8:	06ac0000 	strteq	r0, [ip], r0
     6cc:	06c80000 	strbeq	r0, [r8], r0
     6d0:	00020000 	andeq	r0, r2, r0
     6d4:	06c89f30 			; <UNDEFINED> instruction: 0x06c89f30
     6d8:	07b80000 	ldreq	r0, [r8, r0]!
     6dc:	00010000 	andeq	r0, r1, r0
     6e0:	00000056 	andeq	r0, r0, r6, asr r0
     6e4:	00000000 	andeq	r0, r0, r0
     6e8:	0006ac00 	andeq	sl, r6, r0, lsl #24
     6ec:	0006c800 	andeq	ip, r6, r0, lsl #16
     6f0:	30000200 	andcc	r0, r0, r0, lsl #4
     6f4:	0006c89f 	muleq	r6, pc, r8	; <UNPREDICTABLE>
     6f8:	0007b800 	andeq	fp, r7, r0, lsl #16
     6fc:	55000100 	strpl	r0, [r0, #-256]	; 0x100
	...
     708:	000006c8 	andeq	r0, r0, r8, asr #13
     70c:	0000074c 	andeq	r0, r0, ip, asr #14
     710:	00540001 	subseq	r0, r4, r1
	...
     71c:	0c000000 	stceq	0, cr0, [r0], {-0}
     720:	01000000 	mrseq	r0, (UNDEF: 0)
     724:	000c5000 	andeq	r5, ip, r0
     728:	00100000 	andseq	r0, r0, r0
     72c:	00040000 	andeq	r0, r4, r0
     730:	9f5001f3 	svcls	0x005001f3
     734:	00000010 	andeq	r0, r0, r0, lsl r0
     738:	00000014 	andeq	r0, r0, r4, lsl r0
     73c:	14500001 	ldrbne	r0, [r0], #-1
     740:	18000000 	stmdane	r0, {}	; <UNPREDICTABLE>
     744:	04000000 	streq	r0, [r0], #-0
     748:	5001f300 	andpl	pc, r1, r0, lsl #6
     74c:	0000009f 	muleq	r0, pc, r0	; <UNPREDICTABLE>
     750:	00000000 	andeq	r0, r0, r0
     754:	00001800 	andeq	r1, r0, r0, lsl #16
     758:	00002300 	andeq	r2, r0, r0, lsl #6
     75c:	50000100 	andpl	r0, r0, r0, lsl #2
     760:	00000023 	andeq	r0, r0, r3, lsr #32
     764:	00000068 	andeq	r0, r0, r8, rrx
     768:	00540001 	subseq	r0, r4, r1
     76c:	00000000 	andeq	r0, r0, r0
     770:	20000000 	andcs	r0, r0, r0
     774:	23000000 	movwcs	r0, #0
     778:	01000000 	mrseq	r0, (UNDEF: 0)
     77c:	00235000 	eoreq	r5, r3, r0
     780:	00680000 	rsbeq	r0, r8, r0
     784:	00010000 	andeq	r0, r1, r0
     788:	00000054 	andeq	r0, r0, r4, asr r0
     78c:	00000000 	andeq	r0, r0, r0
     790:	00003000 	andeq	r3, r0, r0
     794:	00005300 	andeq	r5, r0, r0, lsl #6
     798:	50000100 	andpl	r0, r0, r0, lsl #2
     79c:	00000054 	andeq	r0, r0, r4, asr r0
     7a0:	00000060 	andeq	r0, r0, r0, rrx
     7a4:	00500001 	subseq	r0, r0, r1
     7a8:	00000000 	andeq	r0, r0, r0
     7ac:	68000000 	stmdavs	r0, {}	; <UNPREDICTABLE>
     7b0:	70000000 	andvc	r0, r0, r0
     7b4:	01000000 	mrseq	r0, (UNDEF: 0)
     7b8:	00705000 	rsbseq	r5, r0, r0
     7bc:	01000000 	mrseq	r0, (UNDEF: 0)
     7c0:	00040000 	andeq	r0, r4, r0
     7c4:	9f5001f3 	svcls	0x005001f3
	...
     7d0:	0000006c 	andeq	r0, r0, ip, rrx
     7d4:	00000090 	muleq	r0, r0, r0
     7d8:	9f300002 	svcls	0x00300002
     7dc:	00000090 	muleq	r0, r0, r0
     7e0:	00000100 	andeq	r0, r0, r0, lsl #2
     7e4:	00540001 	subseq	r0, r4, r1
     7e8:	00000000 	andeq	r0, r0, r0
     7ec:	80000000 	andhi	r0, r0, r0
     7f0:	a7000000 	strge	r0, [r0, -r0]
     7f4:	01000000 	mrseq	r0, (UNDEF: 0)
     7f8:	00a85000 	adceq	r5, r8, r0
     7fc:	00b80000 	adcseq	r0, r8, r0
     800:	00010000 	andeq	r0, r1, r0
     804:	00000050 	andeq	r0, r0, r0, asr r0
     808:	00000000 	andeq	r0, r0, r0
     80c:	00010000 	andeq	r0, r1, r0
     810:	00010f00 	andeq	r0, r1, r0, lsl #30
     814:	50000100 	andpl	r0, r0, r0, lsl #2
     818:	0000010f 	andeq	r0, r0, pc, lsl #2
     81c:	00000128 	andeq	r0, r0, r8, lsr #2
     820:	01f30004 	mvnseq	r0, r4
     824:	01289f50 	teqeq	r8, r0, asr pc
     828:	01370000 	teqeq	r7, r0
     82c:	00010000 	andeq	r0, r1, r0
     830:	00013750 	andeq	r3, r1, r0, asr r7
     834:	00015000 	andeq	r5, r1, r0
     838:	56000100 	strpl	r0, [r0], -r0, lsl #2
     83c:	00000150 	andeq	r0, r0, r0, asr r1
     840:	0000015b 	andeq	r0, r0, fp, asr r1
     844:	5b500001 	blpl	1400850 <__bss_end__+0x13f6090>
     848:	bc000001 	stclt	0, cr0, [r0], {1}
     84c:	01000001 	tsteq	r0, r1
     850:	01bc5600 			; <UNDEFINED> instruction: 0x01bc5600
     854:	01cc0000 	biceq	r0, ip, r0
     858:	00010000 	andeq	r0, r1, r0
     85c:	0001cc50 	andeq	ip, r1, r0, asr ip
     860:	0001ec00 	andeq	lr, r1, r0, lsl #24
     864:	56000100 	strpl	r0, [r0], -r0, lsl #2
	...
     870:	00000100 	andeq	r0, r0, r0, lsl #2
     874:	0000010f 	andeq	r0, r0, pc, lsl #2
     878:	0f510001 	svceq	0x00510001
     87c:	28000001 	stmdacs	r0, {r0}
     880:	04000001 	streq	r0, [r0], #-1
     884:	5101f300 	mrspl	pc, SP_irq	; <UNPREDICTABLE>
     888:	0001289f 	muleq	r1, pc, r8	; <UNPREDICTABLE>
     88c:	00013700 	andeq	r3, r1, r0, lsl #14
     890:	51000100 	mrspl	r0, (UNDEF: 16)
     894:	00000137 	andeq	r0, r0, r7, lsr r1
     898:	00000150 	andeq	r0, r0, r0, asr r1
     89c:	01f30004 	mvnseq	r0, r4
     8a0:	01509f51 	cmpeq	r0, r1, asr pc
     8a4:	015b0000 	cmpeq	fp, r0
     8a8:	00010000 	andeq	r0, r1, r0
     8ac:	00015b51 	andeq	r5, r1, r1, asr fp
     8b0:	0001bc00 	andeq	fp, r1, r0, lsl #24
     8b4:	f3000400 	vshl.u8	d0, d0, d0
     8b8:	bc9f5101 	ldflts	f5, [pc], {1}
     8bc:	cc000001 	stcgt	0, cr0, [r0], {1}
     8c0:	01000001 	tsteq	r0, r1
     8c4:	01cc5100 	biceq	r5, ip, r0, lsl #2
     8c8:	01ec0000 	mvneq	r0, r0
     8cc:	00040000 	andeq	r0, r4, r0
     8d0:	9f5101f3 	svcls	0x005101f3
	...
     8dc:	0000017c 	andeq	r0, r0, ip, ror r1
     8e0:	000001ac 	andeq	r0, r0, ip, lsr #3
     8e4:	ac500001 	mrrcge	0, 0, r0, r0, cr1	; <UNPREDICTABLE>
     8e8:	b3000001 	movwlt	r0, #1
     8ec:	04000001 	streq	r0, [r0], #-1
     8f0:	7ec87000 	cdpvc	0, 12, cr7, cr8, cr0, {0}
     8f4:	0000009f 	muleq	r0, pc, r0	; <UNPREDICTABLE>
     8f8:	00000000 	andeq	r0, r0, r0
     8fc:	00017400 	andeq	r7, r1, r0, lsl #8
     900:	0001bc00 	andeq	fp, r1, r0, lsl #24
     904:	54000100 	strpl	r0, [r0], #-256	; 0x100
     908:	000001cc 	andeq	r0, r0, ip, asr #3
     90c:	000001ec 	andeq	r0, r0, ip, ror #3
     910:	00540001 	subseq	r0, r4, r1
     914:	00000000 	andeq	r0, r0, r0
     918:	98000000 	stmdals	r0, {}	; <UNPREDICTABLE>
     91c:	ac000001 	stcge	0, cr0, [r0], {1}
     920:	01000001 	tsteq	r0, r1
     924:	01ac5000 			; <UNDEFINED> instruction: 0x01ac5000
     928:	01b30000 			; <UNDEFINED> instruction: 0x01b30000
     92c:	00040000 	andeq	r0, r4, r0
     930:	9f7ec870 	svcls	0x007ec870
	...
     93c:	000001f8 	strdeq	r0, [r0], -r8
     940:	0000020f 	andeq	r0, r0, pc, lsl #4
     944:	10500001 	subsne	r0, r0, r1
     948:	1c000002 	stcne	0, cr0, [r0], {2}
     94c:	01000002 	tsteq	r0, r2
     950:	00005000 	andeq	r5, r0, r0
     954:	00000000 	andeq	r0, r0, r0
     958:	02ec0000 	rsceq	r0, ip, #0
     95c:	02f70000 	rscseq	r0, r7, #0
     960:	00010000 	andeq	r0, r1, r0
     964:	0002f750 	andeq	pc, r2, r0, asr r7	; <UNPREDICTABLE>
     968:	00030400 	andeq	r0, r3, r0, lsl #8
     96c:	54000100 	strpl	r0, [r0], #-256	; 0x100
	...
     978:	000003e0 	andeq	r0, r0, r0, ror #7
     97c:	000003eb 	andeq	r0, r0, fp, ror #7
     980:	eb500001 	bl	140098c <__bss_end__+0x13f61cc>
     984:	04000003 	streq	r0, [r0], #-3
     988:	01000004 	tsteq	r0, r4
     98c:	04045400 	streq	r5, [r4], #-1024	; 0x400
     990:	04080000 	streq	r0, [r8], #-0
     994:	00010000 	andeq	r0, r1, r0
     998:	00040850 	andeq	r0, r4, r0, asr r8
     99c:	00043c00 	andeq	r3, r4, r0, lsl #24
     9a0:	54000100 	strpl	r0, [r0], #-256	; 0x100
	...
     9b0:	00000024 	andeq	r0, r0, r4, lsr #32
     9b4:	24500001 	ldrbcs	r0, [r0], #-1
     9b8:	e4000000 	str	r0, [r0], #-0
     9bc:	04000000 	streq	r0, [r0], #-0
     9c0:	5001f300 	andpl	pc, r1, r0, lsl #6
     9c4:	0000e49f 	muleq	r0, pc, r4	; <UNPREDICTABLE>
     9c8:	0000e800 	andeq	lr, r0, r0, lsl #16
     9cc:	50000100 	andpl	r0, r0, r0, lsl #2
     9d0:	000000e8 	andeq	r0, r0, r8, ror #1
     9d4:	000000f0 	strdeq	r0, [r0], -r0	; <UNPREDICTABLE>
     9d8:	01f30004 	mvnseq	r0, r4
     9dc:	00009f50 	andeq	r9, r0, r0, asr pc
	...
     9e8:	00200000 	eoreq	r0, r0, r0
     9ec:	00010000 	andeq	r0, r1, r0
     9f0:	00002051 	andeq	r2, r0, r1, asr r0
     9f4:	00008000 	andeq	r8, r0, r0
     9f8:	51000100 	mrspl	r0, (UNDEF: 16)
     9fc:	0000009c 	muleq	r0, ip, r0
     a00:	000000a0 	andeq	r0, r0, r0, lsr #1
     a04:	b8510001 	ldmdalt	r1, {r0}^
     a08:	c8000000 	stmdagt	r0, {}	; <UNPREDICTABLE>
     a0c:	01000000 	mrseq	r0, (UNDEF: 0)
     a10:	00e45100 	rsceq	r5, r4, r0, lsl #2
     a14:	00e80000 	rsceq	r0, r8, r0
     a18:	00010000 	andeq	r0, r1, r0
     a1c:	00000051 	andeq	r0, r0, r1, asr r0
     a20:	00000000 	andeq	r0, r0, r0
     a24:	00000400 	andeq	r0, r0, r0, lsl #8
     a28:	00002400 	andeq	r2, r0, r0, lsl #8
     a2c:	50000100 	andpl	r0, r0, r0, lsl #2
     a30:	00000024 	andeq	r0, r0, r4, lsr #32
     a34:	00000090 	muleq	r0, r0, r0
     a38:	9c530001 	mrrcls	0, 0, r0, r3, cr1
     a3c:	a4000000 	strge	r0, [r0], #-0
     a40:	01000000 	mrseq	r0, (UNDEF: 0)
     a44:	00b85300 	adcseq	r5, r8, r0, lsl #6
     a48:	00bc0000 	adcseq	r0, ip, r0
     a4c:	00010000 	andeq	r0, r1, r0
     a50:	0000e453 	andeq	lr, r0, r3, asr r4
     a54:	0000e800 	andeq	lr, r0, r0, lsl #16
     a58:	50000100 	andpl	r0, r0, r0, lsl #2
	...
     a64:	00000008 	andeq	r0, r0, r8
     a68:	00000020 	andeq	r0, r0, r0, lsr #32
     a6c:	20510001 	subscs	r0, r1, r1
     a70:	34000000 	strcc	r0, [r0], #-0
     a74:	01000000 	mrseq	r0, (UNDEF: 0)
     a78:	00345200 	eorseq	r5, r4, r0, lsl #4
     a7c:	00480000 	subeq	r0, r8, r0
     a80:	00010000 	andeq	r0, r1, r0
     a84:	00004850 	andeq	r4, r0, r0, asr r8
     a88:	0000cc00 	andeq	ip, r0, r0, lsl #24
     a8c:	52000100 	andpl	r0, r0, #0, 2
     a90:	000000cc 	andeq	r0, r0, ip, asr #1
     a94:	000000e0 	andeq	r0, r0, r0, ror #1
     a98:	e4500001 	ldrb	r0, [r0], #-1
     a9c:	e8000000 	stmda	r0, {}	; <UNPREDICTABLE>
     aa0:	01000000 	mrseq	r0, (UNDEF: 0)
     aa4:	00005100 	andeq	r5, r0, r0, lsl #2
     aa8:	00000000 	andeq	r0, r0, r0
     aac:	00440000 	subeq	r0, r4, r0
     ab0:	00480000 	subeq	r0, r8, r0
     ab4:	00010000 	andeq	r0, r1, r0
     ab8:	00004852 	andeq	r4, r0, r2, asr r8
     abc:	00004c00 	andeq	r4, r0, r0, lsl #24
     ac0:	7c001200 	sfmvc	f1, 4, [r0], {-0}
     ac4:	73243800 	teqvc	r4, #0, 16
     ac8:	08019402 	stmdaeq	r1, {r1, sl, ip, pc}
     acc:	3b221aff 	blcc	8876d0 <__bss_end__+0x87cf10>
     ad0:	27007024 	strcs	r7, [r0, -r4, lsr #32]
     ad4:	00004c9f 	muleq	r0, pc, ip	; <UNPREDICTABLE>
     ad8:	00005400 	andeq	r5, r0, r0, lsl #8
     adc:	7c001200 	sfmvc	f1, 4, [r0], {-0}
     ae0:	73243800 	teqvc	r4, #0, 16
     ae4:	0801947e 	stmdaeq	r1, {r1, r2, r3, r4, r5, r6, sl, ip, pc}
     ae8:	3b221aff 	blcc	8876ec <__bss_end__+0x87cf2c>
     aec:	27007024 	strcs	r7, [r0, -r4, lsr #32]
     af0:	0000009f 	muleq	r0, pc, r0	; <UNPREDICTABLE>
     af4:	00000000 	andeq	r0, r0, r0
     af8:	00001c00 	andeq	r1, r0, r0, lsl #24
     afc:	0000e400 	andeq	lr, r0, r0, lsl #8
     b00:	54000100 	strpl	r0, [r0], #-256	; 0x100
	...
     b10:	00000004 	andeq	r0, r0, r4
     b14:	04520001 	ldrbeq	r0, [r2], #-1
     b18:	20000000 	andcs	r0, r0, r0
     b1c:	04000000 	streq	r0, [r0], #-0
     b20:	5201f300 	andpl	pc, r1, #0, 6
     b24:	0000009f 	muleq	r0, pc, r0	; <UNPREDICTABLE>
	...
     b30:	00000c00 	andeq	r0, r0, r0, lsl #24
     b34:	50000100 	andpl	r0, r0, r0, lsl #2
     b38:	0000000c 	andeq	r0, r0, ip
     b3c:	00000014 	andeq	r0, r0, r4, lsl r0
     b40:	01730003 	cmneq	r3, r3
     b44:	0000149f 	muleq	r0, pc, r4	; <UNPREDICTABLE>
     b48:	00002000 	andeq	r2, r0, r0
     b4c:	53000100 	movwpl	r0, #256	; 0x100
	...
     b58:	0000002c 	andeq	r0, r0, ip, lsr #32
     b5c:	00000038 	andeq	r0, r0, r8, lsr r0
     b60:	38500001 	ldmdacc	r0, {r0}^
     b64:	48000000 	stmdami	r0, {}	; <UNPREDICTABLE>
     b68:	01000000 	mrseq	r0, (UNDEF: 0)
     b6c:	00485500 	subeq	r5, r8, r0, lsl #10
     b70:	00580000 	subseq	r0, r8, r0
     b74:	00010000 	andeq	r0, r1, r0
     b78:	00000050 	andeq	r0, r0, r0, asr r0
	...
     b84:	00000b00 	andeq	r0, r0, r0, lsl #22
     b88:	50000100 	andpl	r0, r0, r0, lsl #2
     b8c:	0000000b 	andeq	r0, r0, fp
     b90:	00000014 	andeq	r0, r0, r4, lsl r0
     b94:	00540001 	subseq	r0, r4, r1
	...
     ba0:	10000000 	andne	r0, r0, r0
     ba4:	01000000 	mrseq	r0, (UNDEF: 0)
     ba8:	00105000 	andseq	r5, r0, r0
     bac:	00340000 	eorseq	r0, r4, r0
     bb0:	00010000 	andeq	r0, r1, r0
     bb4:	00000054 	andeq	r0, r0, r4, asr r0
	...
     bc0:	00000400 	andeq	r0, r0, r0, lsl #8
     bc4:	50000100 	andpl	r0, r0, r0, lsl #2
     bc8:	00000004 	andeq	r0, r0, r4
     bcc:	0000000c 	andeq	r0, r0, ip
     bd0:	30700003 	rsbscc	r0, r0, r3
     bd4:	00000c9f 	muleq	r0, pc, ip	; <UNPREDICTABLE>
     bd8:	00001400 	andeq	r1, r0, r0, lsl #8
     bdc:	f3000400 	vshl.u8	d0, d0, d0
     be0:	009f5001 	addseq	r5, pc, r1
     be4:	00000000 	andeq	r0, r0, r0
     be8:	14000000 	strne	r0, [r0], #-0
     bec:	20000000 	andcs	r0, r0, r0
     bf0:	01000000 	mrseq	r0, (UNDEF: 0)
     bf4:	00205000 	eoreq	r5, r0, r0
     bf8:	002c0000 	eoreq	r0, ip, r0
     bfc:	00030000 	andeq	r0, r3, r0
     c00:	2c9f0170 	ldfcss	f0, [pc], {112}	; 0x70
     c04:	40000000 	andmi	r0, r0, r0
     c08:	01000000 	mrseq	r0, (UNDEF: 0)
     c0c:	00005000 	andeq	r5, r0, r0
     c10:	00000000 	andeq	r0, r0, r0
     c14:	00140000 	andseq	r0, r4, r0
     c18:	00180000 	andseq	r0, r8, r0
     c1c:	00010000 	andeq	r0, r1, r0
     c20:	00001851 	andeq	r1, r0, r1, asr r8
     c24:	00004000 	andeq	r4, r0, r0
     c28:	f3000400 	vshl.u8	d0, d0, d0
     c2c:	009f5101 	addseq	r5, pc, r1, lsl #2
     c30:	00000000 	andeq	r0, r0, r0
     c34:	40000000 	andmi	r0, r0, r0
     c38:	60000000 	andvs	r0, r0, r0
     c3c:	01000000 	mrseq	r0, (UNDEF: 0)
     c40:	00605000 	rsbeq	r5, r0, r0
     c44:	006c0000 	rsbeq	r0, ip, r0
     c48:	00030000 	andeq	r0, r3, r0
     c4c:	6c9f0171 	ldfvss	f0, [pc], {113}	; 0x71
     c50:	74000000 	strvc	r0, [r0], #-0
     c54:	01000000 	mrseq	r0, (UNDEF: 0)
     c58:	00745100 	rsbseq	r5, r4, r0, lsl #2
     c5c:	00800000 	addeq	r0, r0, r0
     c60:	00030000 	andeq	r0, r3, r0
     c64:	009f0171 	addseq	r0, pc, r1, ror r1	; <UNPREDICTABLE>
     c68:	00000000 	andeq	r0, r0, r0
     c6c:	40000000 	andmi	r0, r0, r0
     c70:	50000000 	andpl	r0, r0, r0
     c74:	01000000 	mrseq	r0, (UNDEF: 0)
     c78:	00505100 	subseq	r5, r0, r0, lsl #2
     c7c:	00800000 	addeq	r0, r0, r0
     c80:	00040000 	andeq	r0, r4, r0
     c84:	9f5101f3 	svcls	0x005101f3
	...
     c90:	00000040 	andeq	r0, r0, r0, asr #32
     c94:	00000058 	andeq	r0, r0, r8, asr r0
     c98:	58520001 	ldmdapl	r2, {r0}^
     c9c:	64000000 	strvs	r0, [r0], #-0
     ca0:	01000000 	mrseq	r0, (UNDEF: 0)
     ca4:	00645200 	rsbeq	r5, r4, r0, lsl #4
     ca8:	00680000 	rsbeq	r0, r8, r0
     cac:	00030000 	andeq	r0, r3, r0
     cb0:	689f0172 	ldmvs	pc, {r1, r4, r5, r6, r8}	; <UNPREDICTABLE>
     cb4:	80000000 	andhi	r0, r0, r0
     cb8:	01000000 	mrseq	r0, (UNDEF: 0)
     cbc:	00005200 	andeq	r5, r0, r0, lsl #4
     cc0:	00000000 	andeq	r0, r0, r0
     cc4:	00400000 	subeq	r0, r0, r0
     cc8:	00540000 	subseq	r0, r4, r0
     ccc:	00010000 	andeq	r0, r1, r0
     cd0:	00005453 	andeq	r5, r0, r3, asr r4
     cd4:	00007800 	andeq	r7, r0, r0, lsl #16
     cd8:	53000100 	movwpl	r0, #256	; 0x100
	...
     ce4:	00000048 	andeq	r0, r0, r8, asr #32
     ce8:	00000060 	andeq	r0, r0, r0, rrx
     cec:	605c0001 	subsvs	r0, ip, r1
     cf0:	80000000 	andhi	r0, r0, r0
     cf4:	0a000000 	beq	cfc <_start-0x7304>
     cf8:	5201f300 	andpl	pc, r1, #0, 6
     cfc:	1c5301f3 	ldfnee	f0, [r3], {243}	; 0xf3
     d00:	009f0123 	addseq	r0, pc, r3, lsr #2
     d04:	00000000 	andeq	r0, r0, r0
     d08:	80000000 	andhi	r0, r0, r0
     d0c:	a4000000 	strge	r0, [r0], #-0
     d10:	01000000 	mrseq	r0, (UNDEF: 0)
     d14:	00a45000 	adceq	r5, r4, r0
     d18:	01180000 	tsteq	r8, r0
     d1c:	00030000 	andeq	r0, r3, r0
     d20:	189f0270 	ldmne	pc, {r4, r5, r6, r9}	; <UNPREDICTABLE>
     d24:	30000001 	andcc	r0, r0, r1
     d28:	04000002 	streq	r0, [r0], #-2
     d2c:	5001f300 	andpl	pc, r1, r0, lsl #6
     d30:	0000009f 	muleq	r0, pc, r0	; <UNPREDICTABLE>
     d34:	00000000 	andeq	r0, r0, r0
     d38:	00008000 	andeq	r8, r0, r0
     d3c:	0000f000 	andeq	pc, r0, r0
     d40:	51000100 	mrspl	r0, (UNDEF: 16)
     d44:	000000f0 	strdeq	r0, [r0], -r0	; <UNPREDICTABLE>
     d48:	00000160 	andeq	r0, r0, r0, ror #2
     d4c:	60550001 	subsvs	r0, r5, r1
     d50:	6c000001 	stcvs	0, cr0, [r0], {1}
     d54:	01000001 	tsteq	r0, r1
     d58:	016c5100 	cmneq	ip, r0, lsl #2
     d5c:	01a00000 	moveq	r0, r0
     d60:	00010000 	andeq	r0, r1, r0
     d64:	0001a055 	andeq	sl, r1, r5, asr r0
     d68:	0001b400 	andeq	fp, r1, r0, lsl #8
     d6c:	51000100 	mrspl	r0, (UNDEF: 16)
     d70:	000001b4 			; <UNDEFINED> instruction: 0x000001b4
     d74:	000001d4 	ldrdeq	r0, [r0], -r4
     d78:	d4550001 	ldrble	r0, [r5], #-1
     d7c:	d7000001 	strle	r0, [r0, -r1]
     d80:	01000001 	tsteq	r0, r1
     d84:	01d75100 	bicseq	r5, r7, r0, lsl #2
     d88:	02140000 	andseq	r0, r4, #0
     d8c:	00010000 	andeq	r0, r1, r0
     d90:	00021455 	andeq	r1, r2, r5, asr r4
     d94:	00023000 	andeq	r3, r2, r0
     d98:	f3000400 	vshl.u8	d0, d0, d0
     d9c:	009f5101 	addseq	r5, pc, r1, lsl #2
     da0:	00000000 	andeq	r0, r0, r0
     da4:	80000000 	andhi	r0, r0, r0
     da8:	94000000 	strls	r0, [r0], #-0
     dac:	01000000 	mrseq	r0, (UNDEF: 0)
     db0:	00945200 	addseq	r5, r4, r0, lsl #4
     db4:	02140000 	andseq	r0, r4, #0
     db8:	00010000 	andeq	r0, r1, r0
     dbc:	00021454 	andeq	r1, r2, r4, asr r4
     dc0:	00023000 	andeq	r3, r2, r0
     dc4:	f3000400 	vshl.u8	d0, d0, d0
     dc8:	009f5201 	addseq	r5, pc, r1, lsl #4
     dcc:	00000000 	andeq	r0, r0, r0
     dd0:	80000000 	andhi	r0, r0, r0
     dd4:	00000000 	andeq	r0, r0, r0
     dd8:	01000001 	tsteq	r0, r1
     ddc:	01045300 	mrseq	r5, LR_abt
     de0:	01080000 	mrseq	r0, (UNDEF: 8)
     de4:	00010000 	andeq	r0, r1, r0
     de8:	00016053 	andeq	r6, r1, r3, asr r0
     dec:	00016400 	andeq	r6, r1, r0, lsl #8
     df0:	53000100 	movwpl	r0, #256	; 0x100
     df4:	00000164 	andeq	r0, r0, r4, ror #2
     df8:	0000016c 	andeq	r0, r0, ip, ror #2
     dfc:	6c5c0001 	mrrcvs	0, 0, r0, ip, cr1
     e00:	a0000001 	andge	r0, r0, r1
     e04:	04000001 	streq	r0, [r0], #-1
     e08:	5301f300 	movwpl	pc, #4864	; 0x1300	; <UNPREDICTABLE>
     e0c:	0001a09f 	muleq	r1, pc, r0	; <UNPREDICTABLE>
     e10:	0001b000 	andeq	fp, r1, r0
     e14:	53000100 	movwpl	r0, #256	; 0x100
     e18:	000001b0 			; <UNDEFINED> instruction: 0x000001b0
     e1c:	000001b4 			; <UNDEFINED> instruction: 0x000001b4
     e20:	b45c0001 	ldrblt	r0, [ip], #-1
     e24:	d4000001 	strle	r0, [r0], #-1
     e28:	04000001 	streq	r0, [r0], #-1
     e2c:	5301f300 	movwpl	pc, #4864	; 0x1300	; <UNPREDICTABLE>
     e30:	0001d49f 	muleq	r1, pc, r4	; <UNPREDICTABLE>
     e34:	0001d700 	andeq	sp, r1, r0, lsl #14
     e38:	53000100 	movwpl	r0, #256	; 0x100
     e3c:	000001d7 	ldrdeq	r0, [r0], -r7
     e40:	000001f0 	strdeq	r0, [r0], -r0	; <UNPREDICTABLE>
     e44:	01f30004 	mvnseq	r0, r4
     e48:	00009f53 	andeq	r9, r0, r3, asr pc
     e4c:	00000000 	andeq	r0, r0, r0
     e50:	00800000 	addeq	r0, r0, r0
     e54:	009c0000 	addseq	r0, ip, r0
     e58:	00020000 	andeq	r0, r2, r0
     e5c:	009c0091 	umullseq	r0, ip, r1, r0
     e60:	01d70000 	bicseq	r0, r7, r0
     e64:	00010000 	andeq	r0, r1, r0
     e68:	0001f052 	andeq	pc, r1, r2, asr r0	; <UNPREDICTABLE>
     e6c:	0001f700 	andeq	pc, r1, r0, lsl #14
     e70:	52000100 	andpl	r0, r0, #0, 2
	...
     e7c:	0000009c 	muleq	r0, ip, r0
     e80:	00000118 	andeq	r0, r0, r8, lsl r1
     e84:	185d0001 	ldmdane	sp, {r0}^
     e88:	1c000001 	stcne	0, cr0, [r0], {1}
     e8c:	01000001 	tsteq	r0, r1
     e90:	011c5000 	tsteq	ip, r0
     e94:	01200000 	teqeq	r0, r0
     e98:	00010000 	andeq	r0, r1, r0
     e9c:	00012051 	andeq	r2, r1, r1, asr r0
     ea0:	00016000 	andeq	r6, r1, r0
     ea4:	50000100 	andpl	r0, r0, r0, lsl #2
     ea8:	00000160 	andeq	r0, r0, r0, ror #2
     eac:	0000016c 	andeq	r0, r0, ip, ror #2
     eb0:	6c5d0001 	mrrcvs	0, 0, r0, sp, cr1
     eb4:	70000001 	andvc	r0, r0, r1
     eb8:	01000001 	tsteq	r0, r1
     ebc:	01705000 	cmneq	r0, r0
     ec0:	01740000 	cmneq	r4, r0
     ec4:	00010000 	andeq	r0, r1, r0
     ec8:	00017453 	andeq	r7, r1, r3, asr r4
     ecc:	00018800 	andeq	r8, r1, r0, lsl #16
     ed0:	50000100 	andpl	r0, r0, r0, lsl #2
     ed4:	00000188 	andeq	r0, r0, r8, lsl #3
     ed8:	00000194 	muleq	r0, r4, r1
     edc:	01700003 	cmneq	r0, r3
     ee0:	0001949f 	muleq	r1, pc, r4	; <UNPREDICTABLE>
     ee4:	0001a000 	andeq	sl, r1, r0
     ee8:	50000100 	andpl	r0, r0, r0, lsl #2
     eec:	000001a0 	andeq	r0, r0, r0, lsr #3
     ef0:	000001a8 	andeq	r0, r0, r8, lsr #3
     ef4:	a1910004 	orrsge	r0, r1, r4
     ef8:	01a89f7f 			; <UNDEFINED> instruction: 0x01a89f7f
     efc:	01ac0000 			; <UNDEFINED> instruction: 0x01ac0000
     f00:	00010000 	andeq	r0, r1, r0
     f04:	0001ac50 	andeq	sl, r1, r0, asr ip
     f08:	0001b400 	andeq	fp, r1, r0, lsl #8
     f0c:	5d000100 	stfpls	f0, [r0, #-0]
     f10:	000001b4 			; <UNDEFINED> instruction: 0x000001b4
     f14:	000001b8 			; <UNDEFINED> instruction: 0x000001b8
     f18:	b8530001 	ldmdalt	r3, {r0}^
     f1c:	d4000001 	strle	r0, [r0], #-1
     f20:	01000001 	tsteq	r0, r1
     f24:	01d45000 	bicseq	r5, r4, r0
     f28:	01f00000 	mvnseq	r0, r0
     f2c:	00010000 	andeq	r0, r1, r0
     f30:	0001f05d 	andeq	pc, r1, sp, asr r0	; <UNPREDICTABLE>
     f34:	0001f700 	andeq	pc, r1, r0, lsl #14
     f38:	50000100 	andpl	r0, r0, r0, lsl #2
	...
     f44:	000000a0 	andeq	r0, r0, r0, lsr #1
     f48:	000000ec 	andeq	r0, r0, ip, ror #1
     f4c:	ec5c0001 	mrrc	0, 0, r0, ip, cr1
     f50:	00000000 	andeq	r0, r0, r0
     f54:	01000001 	tsteq	r0, r1
     f58:	01005300 	mrseq	r5, LR_irq
     f5c:	01040000 	mrseq	r0, (UNDEF: 4)
     f60:	00010000 	andeq	r0, r1, r0
     f64:	0001045c 	andeq	r0, r1, ip, asr r4
     f68:	00010800 	andeq	r0, r1, r0, lsl #16
     f6c:	53000100 	movwpl	r0, #256	; 0x100
     f70:	00000108 	andeq	r0, r0, r8, lsl #2
     f74:	00000160 	andeq	r0, r0, r0, ror #2
     f78:	605c0001 	subsvs	r0, ip, r1
     f7c:	64000001 	strvs	r0, [r0], #-1
     f80:	01000001 	tsteq	r0, r1
     f84:	01645300 	cmneq	r4, r0, lsl #6
     f88:	01800000 	orreq	r0, r0, r0
     f8c:	00010000 	andeq	r0, r1, r0
     f90:	0001805c 	andeq	r8, r1, ip, asr r0
     f94:	00018400 	andeq	r8, r1, r0, lsl #8
     f98:	7c000500 	cfstr32vc	mvfx0, [r0], {-0}
     f9c:	9f253400 	svcls	0x00253400
     fa0:	00000184 	andeq	r0, r0, r4, lsl #3
     fa4:	000001a0 	andeq	r0, r0, r0, lsr #3
     fa8:	a05c0001 	subsge	r0, ip, r1
     fac:	b0000001 	andlt	r0, r0, r1
     fb0:	01000001 	tsteq	r0, r1
     fb4:	01b05300 	lslseq	r5, r0, #6
     fb8:	01c40000 	biceq	r0, r4, r0
     fbc:	00010000 	andeq	r0, r1, r0
     fc0:	0001c45c 	andeq	ip, r1, ip, asr r4
     fc4:	0001cc00 	andeq	ip, r1, r0, lsl #24
     fc8:	7c000500 	cfstr32vc	mvfx0, [r0], {-0}
     fcc:	9f253100 	svcls	0x00253100
     fd0:	000001cc 	andeq	r0, r0, ip, asr #3
     fd4:	000001d4 	ldrdeq	r0, [r0], -r4
     fd8:	d45c0001 	ldrble	r0, [ip], #-1
     fdc:	d7000001 	strle	r0, [r0, -r1]
     fe0:	01000001 	tsteq	r0, r1
     fe4:	01d75300 	bicseq	r5, r7, r0, lsl #6
     fe8:	01f00000 	mvnseq	r0, r0
     fec:	00040000 	andeq	r0, r4, r0
     ff0:	9f5301f3 	svcls	0x005301f3
     ff4:	000001f0 	strdeq	r0, [r0], -r0	; <UNPREDICTABLE>
     ff8:	000001f7 	strdeq	r0, [r0], -r7
     ffc:	005c0001 	subseq	r0, ip, r1
    1000:	00000000 	andeq	r0, r0, r0
    1004:	ec000000 	stc	0, cr0, [r0], {-0}
    1008:	fc000000 	stc2	0, cr0, [r0], {-0}
    100c:	02000000 	andeq	r0, r0, #0
    1010:	fc9f3000 	ldc2	0, cr3, [pc], {0}
    1014:	04000000 	streq	r0, [r0], #-0
    1018:	02000001 	andeq	r0, r0, #1
    101c:	049f3100 	ldreq	r3, [pc], #256	; 1024 <_start-0x6fdc>
    1020:	08000001 	stmdaeq	r0, {r0}
    1024:	02000001 	andeq	r0, r0, #1
    1028:	009f3000 	addseq	r3, pc, r0
    102c:	00000000 	andeq	r0, r0, r0
    1030:	30000000 	andcc	r0, r0, r0
    1034:	3f000002 	svccc	0x00000002
    1038:	01000002 	tsteq	r0, r2
    103c:	023f5000 	eorseq	r5, pc, #0
    1040:	02580000 	subseq	r0, r8, #0
    1044:	00040000 	andeq	r0, r4, r0
    1048:	9f5001f3 	svcls	0x005001f3
    104c:	00000258 	andeq	r0, r0, r8, asr r2
    1050:	00000284 	andeq	r0, r0, r4, lsl #5
    1054:	00500001 	subseq	r0, r0, r1
    1058:	00000000 	andeq	r0, r0, r0
    105c:	30000000 	andcc	r0, r0, r0
    1060:	3f000002 	svccc	0x00000002
    1064:	01000002 	tsteq	r0, r2
    1068:	023f5100 	eorseq	r5, pc, #0, 2
    106c:	02580000 	subseq	r0, r8, #0
    1070:	00040000 	andeq	r0, r4, r0
    1074:	9f5101f3 	svcls	0x005101f3
    1078:	00000258 	andeq	r0, r0, r8, asr r2
    107c:	00000284 	andeq	r0, r0, r4, lsl #5
    1080:	00510001 	subseq	r0, r1, r1
    1084:	00000000 	andeq	r0, r0, r0
    1088:	84000000 	strhi	r0, [r0], #-0
    108c:	b0000002 	andlt	r0, r0, r2
    1090:	01000002 	tsteq	r0, r2
    1094:	02b05000 	adcseq	r5, r0, #0
    1098:	04f80000 	ldrbteq	r0, [r8], #0
    109c:	00010000 	andeq	r0, r1, r0
    10a0:	0004f85a 	andeq	pc, r4, sl, asr r8	; <UNPREDICTABLE>
    10a4:	00050c00 	andeq	r0, r5, r0, lsl #24
    10a8:	f3000400 	vshl.u8	d0, d0, d0
    10ac:	009f5001 	addseq	r5, pc, r1
    10b0:	00000000 	andeq	r0, r0, r0
    10b4:	84000000 	strhi	r0, [r0], #-0
    10b8:	98000002 	stmdals	r0, {r1}
    10bc:	01000002 	tsteq	r0, r2
    10c0:	02985100 	addseq	r5, r8, #0, 2
    10c4:	02b00000 	adcseq	r0, r0, #0
    10c8:	00030000 	andeq	r0, r3, r0
    10cc:	b09f0171 	addslt	r0, pc, r1, ror r1	; <UNPREDICTABLE>
    10d0:	0c000002 	stceq	0, cr0, [r0], {2}
    10d4:	04000005 	streq	r0, [r0], #-5
    10d8:	5101f300 	mrspl	pc, SP_irq	; <UNPREDICTABLE>
    10dc:	0000009f 	muleq	r0, pc, r0	; <UNPREDICTABLE>
    10e0:	00000000 	andeq	r0, r0, r0
    10e4:	00028400 	andeq	r8, r2, r0, lsl #8
    10e8:	0002b800 	andeq	fp, r2, r0, lsl #16
    10ec:	52000100 	andpl	r0, r0, #0, 2
    10f0:	000002b8 			; <UNDEFINED> instruction: 0x000002b8
    10f4:	000002e0 	andeq	r0, r0, r0, ror #5
    10f8:	e0520001 	subs	r0, r2, r1
    10fc:	a8000002 	stmdage	r0, {r1}
    1100:	01000004 	tsteq	r0, r4
    1104:	04a85600 	strteq	r5, [r8], #1536	; 0x600
    1108:	050c0000 	streq	r0, [ip, #-0]
    110c:	00010000 	andeq	r0, r1, r0
    1110:	00000052 	andeq	r0, r0, r2, asr r0
    1114:	00000000 	andeq	r0, r0, r0
    1118:	00028400 	andeq	r8, r2, r0, lsl #8
    111c:	0002a000 	andeq	sl, r2, r0
    1120:	53000100 	movwpl	r0, #256	; 0x100
	...
    112c:	00000294 	muleq	r0, r4, r2
    1130:	000002b0 			; <UNDEFINED> instruction: 0x000002b0
    1134:	b0500001 	subslt	r0, r0, r1
    1138:	b4000002 	strlt	r0, [r0], #-2
    113c:	01000002 	tsteq	r0, r2
    1140:	02b45400 	adcseq	r5, r4, #0, 8
    1144:	02c00000 	sbceq	r0, r0, #0
    1148:	00030000 	andeq	r0, r3, r0
    114c:	c09f0174 	addsgt	r0, pc, r4, ror r1	; <UNPREDICTABLE>
    1150:	cc000002 	stcgt	0, cr0, [r0], {2}
    1154:	01000002 	tsteq	r0, r2
    1158:	02cc5400 	sbceq	r5, ip, #0, 8
    115c:	02d80000 	sbcseq	r0, r8, #0
    1160:	00030000 	andeq	r0, r3, r0
    1164:	d89f0174 	ldmle	pc, {r2, r4, r5, r6, r8}	; <UNPREDICTABLE>
    1168:	ac000002 	stcge	0, cr0, [r0], {2}
    116c:	01000004 	tsteq	r0, r4
    1170:	04ac5400 	strteq	r5, [ip], #1024	; 0x400
    1174:	04b80000 	ldrteq	r0, [r8], #0
    1178:	00030000 	andeq	r0, r3, r0
    117c:	b89f0174 	ldmlt	pc, {r2, r4, r5, r6, r8}	; <UNPREDICTABLE>
    1180:	e4000004 	str	r0, [r0], #-4
    1184:	01000004 	tsteq	r0, r4
    1188:	04e45400 	strbteq	r5, [r4], #1024	; 0x400
    118c:	04f00000 	ldrbteq	r0, [r0], #0
    1190:	00010000 	andeq	r0, r1, r0
    1194:	0004f050 	andeq	pc, r4, r0, asr r0	; <UNPREDICTABLE>
    1198:	0004f800 	andeq	pc, r4, r0, lsl #16
    119c:	74000300 	strvc	r0, [r0], #-768	; 0x300
    11a0:	00009f01 	andeq	r9, r0, r1, lsl #30
    11a4:	00000000 	andeq	r0, r0, r0
    11a8:	029c0000 	addseq	r0, ip, #0
    11ac:	04f80000 	ldrbteq	r0, [r8], #0
    11b0:	00010000 	andeq	r0, r1, r0
    11b4:	0004f858 	andeq	pc, r4, r8, asr r8	; <UNPREDICTABLE>
    11b8:	00050c00 	andeq	r0, r5, r0, lsl #24
    11bc:	f3000a00 	vpmax.u8	d0, d0, d0
    11c0:	01f35101 	mvnseq	r5, r1, lsl #2
    11c4:	1c312250 	lfmne	f2, 4, [r1], #-320	; 0xfffffec0
    11c8:	0000009f 	muleq	r0, pc, r0	; <UNPREDICTABLE>
    11cc:	00000000 	andeq	r0, r0, r0
    11d0:	0003e000 	andeq	lr, r3, r0
    11d4:	0003e400 	andeq	lr, r3, r0, lsl #8
    11d8:	50000100 	andpl	r0, r0, r0, lsl #2
    11dc:	00000404 	andeq	r0, r0, r4, lsl #8
    11e0:	00000408 	andeq	r0, r0, r8, lsl #8
    11e4:	28500001 	ldmdacs	r0, {r0}^
    11e8:	2c000004 	stccs	0, cr0, [r0], {4}
    11ec:	01000004 	tsteq	r0, r4
    11f0:	044c5000 	strbeq	r5, [ip], #-0
    11f4:	04500000 	ldrbeq	r0, [r0], #-0
    11f8:	00010000 	andeq	r0, r1, r0
    11fc:	00045850 	andeq	r5, r4, r0, asr r8
    1200:	00045c00 	andeq	r5, r4, r0, lsl #24
    1204:	50000100 	andpl	r0, r0, r0, lsl #2
    1208:	0000047c 	andeq	r0, r0, ip, ror r4
    120c:	00000480 	andeq	r0, r0, r0, lsl #9
    1210:	a4500001 	ldrbge	r0, [r0], #-1
    1214:	cc000004 	stcgt	0, cr0, [r0], {4}
    1218:	01000004 	tsteq	r0, r4
    121c:	00005000 	andeq	r5, r0, r0
    1220:	00000000 	andeq	r0, r0, r0
    1224:	02e00000 	rsceq	r0, r0, #0
    1228:	02e80000 	rsceq	r0, r8, #0
    122c:	00020000 	andeq	r0, r2, r0
    1230:	02e89f30 	rsceq	r9, r8, #48, 30	; 0xc0
    1234:	02ec0000 	rsceq	r0, ip, #0
    1238:	00010000 	andeq	r0, r1, r0
    123c:	0002f857 	andeq	pc, r2, r7, asr r8	; <UNPREDICTABLE>
    1240:	0004cc00 	andeq	ip, r4, r0, lsl #24
    1244:	57000100 	strpl	r0, [r0, -r0, lsl #2]
	...
    1250:	00000014 	andeq	r0, r0, r4, lsl r0
    1254:	0000001c 	andeq	r0, r0, ip, lsl r0
    1258:	04730003 	ldrbteq	r0, [r3], #-3
    125c:	00001c9f 	muleq	r0, pc, ip	; <UNPREDICTABLE>
    1260:	00002700 	andeq	r2, r0, r0, lsl #14
    1264:	53000100 	movwpl	r0, #256	; 0x100
	...
    1270:	00009474 	andeq	r9, r0, r4, ror r4
    1274:	00009478 	andeq	r9, r0, r8, ror r4
    1278:	9f300002 	svcls	0x00300002
    127c:	00009478 	andeq	r9, r0, r8, ror r4
    1280:	0000947c 	andeq	r9, r0, ip, ror r4
    1284:	00500001 	subseq	r0, r0, r1
    1288:	00000000 	andeq	r0, r0, r0
    128c:	8c000000 	stchi	0, cr0, [r0], {-0}
    1290:	90000094 	mulls	r0, r4, r0
    1294:	02000094 	andeq	r0, r0, #148	; 0x94
    1298:	909f3000 	addsls	r3, pc, r0
    129c:	94000094 	strls	r0, [r0], #-148	; 0x94
    12a0:	01000094 	swpeq	r0, r4, [r0]	; <UNPREDICTABLE>
    12a4:	94985300 	ldrls	r5, [r8], #768	; 0x300
    12a8:	94a00000 	strtls	r0, [r0], #0
    12ac:	00010000 	andeq	r0, r1, r0
    12b0:	00000053 	andeq	r0, r0, r3, asr r0
	...
    12bc:	00000400 	andeq	r0, r0, r0, lsl #8
    12c0:	50000100 	andpl	r0, r0, r0, lsl #2
    12c4:	00000004 	andeq	r0, r0, r4
    12c8:	0000000c 	andeq	r0, r0, ip
    12cc:	0c530001 	mrrceq	0, 0, r0, r3, cr1
    12d0:	10000000 	andne	r0, r0, r0
    12d4:	01000000 	mrseq	r0, (UNDEF: 0)
    12d8:	00105000 	andseq	r5, r0, r0
    12dc:	001c0000 	andseq	r0, ip, r0
    12e0:	00010000 	andeq	r0, r1, r0
    12e4:	00000053 	andeq	r0, r0, r3, asr r0
    12e8:	00000000 	andeq	r0, r0, r0
    12ec:	00003c00 	andeq	r3, r0, r0, lsl #24
    12f0:	00004700 	andeq	r4, r0, r0, lsl #14
    12f4:	50000100 	andpl	r0, r0, r0, lsl #2
    12f8:	00000047 	andeq	r0, r0, r7, asr #32
    12fc:	00000060 	andeq	r0, r0, r0, rrx
    1300:	00550001 	subseq	r0, r5, r1
    1304:	00000000 	andeq	r0, r0, r0
    1308:	50000000 	andpl	r0, r0, r0
    130c:	54000000 	strpl	r0, [r0], #-0
    1310:	01000000 	mrseq	r0, (UNDEF: 0)
    1314:	00005000 	andeq	r5, r0, r0
    1318:	00000000 	andeq	r0, r0, r0
    131c:	00600000 	rsbeq	r0, r0, r0
    1320:	006c0000 	rsbeq	r0, ip, r0
    1324:	00010000 	andeq	r0, r1, r0
    1328:	00006c50 	andeq	r6, r0, r0, asr ip
    132c:	00007400 	andeq	r7, r0, r0, lsl #8
    1330:	f3000400 	vshl.u8	d0, d0, d0
    1334:	009f5001 	addseq	r5, pc, r1
    1338:	00000000 	andeq	r0, r0, r0
    133c:	74000000 	strvc	r0, [r0], #-0
    1340:	80000000 	andhi	r0, r0, r0
    1344:	01000000 	mrseq	r0, (UNDEF: 0)
    1348:	00805000 	addeq	r5, r0, r0
    134c:	00880000 	addeq	r0, r8, r0
    1350:	00040000 	andeq	r0, r4, r0
    1354:	9f5001f3 	svcls	0x005001f3
	...
    1360:	00000138 	andeq	r0, r0, r8, lsr r1
    1364:	00000143 	andeq	r0, r0, r3, asr #2
    1368:	43500001 	cmpmi	r0, #1
    136c:	68000001 	stmdavs	r0, {r0}
    1370:	01000001 	tsteq	r0, r1
    1374:	00005400 	andeq	r5, r0, r0, lsl #8
	...
    1380:	000f0000 	andeq	r0, pc, r0
    1384:	00010000 	andeq	r0, r1, r0
    1388:	00000f50 	andeq	r0, r0, r0, asr pc
    138c:	00002000 	andeq	r2, r0, r0
    1390:	54000100 	strpl	r0, [r0], #-256	; 0x100
	...
    13a0:	0000000f 	andeq	r0, r0, pc
    13a4:	0f510001 	svceq	0x00510001
    13a8:	20000000 	andcs	r0, r0, r0
    13ac:	01000000 	mrseq	r0, (UNDEF: 0)
    13b0:	00005500 	andeq	r5, r0, r0, lsl #10
    13b4:	00000000 	andeq	r0, r0, r0
    13b8:	00ec0000 	rsceq	r0, ip, r0
    13bc:	01040000 	mrseq	r0, (UNDEF: 4)
    13c0:	00010000 	andeq	r0, r1, r0
    13c4:	00010450 	andeq	r0, r1, r0, asr r4
    13c8:	00011400 	andeq	r1, r1, r0, lsl #8
    13cc:	f3000400 	vshl.u8	d0, d0, d0
    13d0:	149f5001 	ldrne	r5, [pc], #1	; 13d8 <_start-0x6c28>
    13d4:	18000001 	stmdane	r0, {r0}
    13d8:	01000001 	tsteq	r0, r1
    13dc:	01185000 	tsteq	r8, r0
    13e0:	01200000 	teqeq	r0, r0
    13e4:	00040000 	andeq	r0, r4, r0
    13e8:	9f5001f3 	svcls	0x005001f3
	...
    13f4:	000000f8 	strdeq	r0, [r0], -r8
    13f8:	00000104 	andeq	r0, r0, r4, lsl #2
    13fc:	0070000b 	rsbseq	r0, r0, fp
    1400:	b4232535 	strtlt	r2, [r3], #-1333	; 0x535
    1404:	02818080 	addeq	r8, r1, #128	; 0x80
    1408:	0001049f 	muleq	r1, pc, r4	; <UNPREDICTABLE>
    140c:	00010700 	andeq	r0, r1, r0, lsl #14
    1410:	50000100 	andpl	r0, r0, r0, lsl #2
    1414:	00000107 	andeq	r0, r0, r7, lsl #2
    1418:	00000114 	andeq	r0, r0, r4, lsl r1
    141c:	01f3000c 	mvnseq	r0, ip
    1420:	23253550 	teqcs	r5, #80, 10	; 0x14000000
    1424:	818080b4 	strhhi	r8, [r0, r4]
    1428:	00009f02 	andeq	r9, r0, r2, lsl #30
    142c:	00000000 	andeq	r0, r0, r0
    1430:	00fc0000 	rscseq	r0, ip, r0
    1434:	01140000 	tsteq	r4, r0
    1438:	00010000 	andeq	r0, r1, r0
    143c:	00000054 	andeq	r0, r0, r4, asr r0
    1440:	00000000 	andeq	r0, r0, r0
    1444:	0000d000 	andeq	sp, r0, r0
    1448:	0000df00 	andeq	sp, r0, r0, lsl #30
    144c:	50000100 	andpl	r0, r0, r0, lsl #2
    1450:	000000df 	ldrdeq	r0, [r0], -pc	; <UNPREDICTABLE>
    1454:	000000e4 	andeq	r0, r0, r4, ror #1
    1458:	01f30004 	mvnseq	r0, r4
    145c:	00e49f50 	rsceq	r9, r4, r0, asr pc
    1460:	00e70000 	rsceq	r0, r7, r0
    1464:	00010000 	andeq	r0, r1, r0
    1468:	0000e750 	andeq	lr, r0, r0, asr r7
    146c:	0000ec00 	andeq	lr, r0, r0, lsl #24
    1470:	f3000400 	vshl.u8	d0, d0, d0
    1474:	009f5001 	addseq	r5, pc, r1
    1478:	00000000 	andeq	r0, r0, r0
    147c:	d0000000 	andle	r0, r0, r0
    1480:	df000000 	svcle	0x00000000
    1484:	01000000 	mrseq	r0, (UNDEF: 0)
    1488:	00df5100 	sbcseq	r5, pc, r0, lsl #2
    148c:	00e40000 	rsceq	r0, r4, r0
    1490:	00040000 	andeq	r0, r4, r0
    1494:	9f5101f3 	svcls	0x005101f3
    1498:	000000e4 	andeq	r0, r0, r4, ror #1
    149c:	000000e7 	andeq	r0, r0, r7, ror #1
    14a0:	e7510001 	ldrb	r0, [r1, -r1]
    14a4:	ec000000 	stc	0, cr0, [r0], {-0}
    14a8:	04000000 	streq	r0, [r0], #-0
    14ac:	5101f300 	mrspl	pc, SP_irq	; <UNPREDICTABLE>
    14b0:	0000009f 	muleq	r0, pc, r0	; <UNPREDICTABLE>
    14b4:	00000000 	andeq	r0, r0, r0
    14b8:	0000c000 	andeq	ip, r0, r0
    14bc:	0000cb00 	andeq	ip, r0, r0, lsl #22
    14c0:	50000100 	andpl	r0, r0, r0, lsl #2
    14c4:	000000cb 	andeq	r0, r0, fp, asr #1
    14c8:	000000d0 	ldrdeq	r0, [r0], -r0	; <UNPREDICTABLE>
    14cc:	01f30004 	mvnseq	r0, r4
    14d0:	00009f50 	andeq	r9, r0, r0, asr pc
    14d4:	00000000 	andeq	r0, r0, r0
    14d8:	009c0000 	addseq	r0, ip, r0
    14dc:	00b40000 	adcseq	r0, r4, r0
    14e0:	00010000 	andeq	r0, r1, r0
    14e4:	0000b450 	andeq	fp, r0, r0, asr r4
    14e8:	0000c000 	andeq	ip, r0, r0
    14ec:	f3000400 	vshl.u8	d0, d0, d0
    14f0:	009f5001 	addseq	r5, pc, r1
    14f4:	00000000 	andeq	r0, r0, r0
    14f8:	78000000 	stmdavc	r0, {}	; <UNPREDICTABLE>
    14fc:	90000000 	andls	r0, r0, r0
    1500:	01000000 	mrseq	r0, (UNDEF: 0)
    1504:	00905000 	addseq	r5, r0, r0
    1508:	009c0000 	addseq	r0, ip, r0
    150c:	00040000 	andeq	r0, r4, r0
    1510:	9f5001f3 	svcls	0x005001f3
	...
    151c:	00000068 	andeq	r0, r0, r8, rrx
    1520:	00000073 	andeq	r0, r0, r3, ror r0
    1524:	73500001 	cmpvc	r0, #1
    1528:	78000000 	stmdavc	r0, {}	; <UNPREDICTABLE>
    152c:	04000000 	streq	r0, [r0], #-0
    1530:	5001f300 	andpl	pc, r1, r0, lsl #6
    1534:	0000009f 	muleq	r0, pc, r0	; <UNPREDICTABLE>
	...
    1540:	00004800 	andeq	r4, r0, r0, lsl #16
    1544:	50000100 	andpl	r0, r0, r0, lsl #2
    1548:	00000048 	andeq	r0, r0, r8, asr #32
    154c:	00000068 	andeq	r0, r0, r8, rrx
    1550:	01f30004 	mvnseq	r0, r4
    1554:	00009f50 	andeq	r9, r0, r0, asr pc
	...
    1560:	004b0000 	subeq	r0, fp, r0
    1564:	00010000 	andeq	r0, r1, r0
    1568:	00004b51 	andeq	r4, r0, r1, asr fp
    156c:	00006800 	andeq	r6, r0, r0, lsl #16
    1570:	f3000400 	vshl.u8	d0, d0, d0
    1574:	009f5101 	addseq	r5, pc, r1, lsl #2
    1578:	00000000 	andeq	r0, r0, r0
    157c:	4c000000 	stcmi	0, cr0, [r0], {-0}
    1580:	54000000 	strpl	r0, [r0], #-0
    1584:	01000000 	mrseq	r0, (UNDEF: 0)
    1588:	00545000 	subseq	r5, r4, r0
    158c:	00580000 	subseq	r0, r8, r0
    1590:	00090000 	andeq	r0, r9, r0
    1594:	00740075 	rsbseq	r0, r4, r5, ror r0
    1598:	21007124 	tstcs	r0, r4, lsr #2
    159c:	0000589f 	muleq	r0, pc, r8	; <UNPREDICTABLE>
    15a0:	00005f00 	andeq	r5, r0, r0, lsl #30
    15a4:	51000100 	mrspl	r0, (UNDEF: 16)
	...
    15b0:	000000e0 	andeq	r0, r0, r0, ror #1
    15b4:	0000011b 	andeq	r0, r0, fp, lsl r1
    15b8:	1b500001 	blne	14015c4 <__bss_end__+0x13f6e04>
    15bc:	20000001 	andcs	r0, r0, r1
    15c0:	04000001 	streq	r0, [r0], #-1
    15c4:	5001f300 	andpl	pc, r1, r0, lsl #6
    15c8:	0001209f 	muleq	r1, pc, r0	; <UNPREDICTABLE>
    15cc:	00012300 	andeq	r2, r1, r0, lsl #6
    15d0:	50000100 	andpl	r0, r0, r0, lsl #2
    15d4:	00000123 	andeq	r0, r0, r3, lsr #2
    15d8:	0000013c 	andeq	r0, r0, ip, lsr r1
    15dc:	01f30004 	mvnseq	r0, r4
    15e0:	013c9f50 	teqeq	ip, r0, asr pc
    15e4:	013f0000 	teqeq	pc, r0
    15e8:	00010000 	andeq	r0, r1, r0
    15ec:	00013f50 	andeq	r3, r1, r0, asr pc
    15f0:	00016c00 	andeq	r6, r1, r0, lsl #24
    15f4:	f3000400 	vshl.u8	d0, d0, d0
    15f8:	009f5001 	addseq	r5, pc, r1
    15fc:	00000000 	andeq	r0, r0, r0
    1600:	e0000000 	and	r0, r0, r0
    1604:	08000000 	stmdaeq	r0, {}	; <UNPREDICTABLE>
    1608:	01000001 	tsteq	r0, r1
    160c:	01085100 	mrseq	r5, (UNDEF: 24)
    1610:	011b0000 	tsteq	fp, r0
    1614:	00030000 	andeq	r0, r3, r0
    1618:	1b9f0171 	blne	fe7c1be4 <__bss_end__+0xfe7b7424>
    161c:	20000001 	andcs	r0, r0, r1
    1620:	04000001 	streq	r0, [r0], #-1
    1624:	5101f300 	mrspl	pc, SP_irq	; <UNPREDICTABLE>
    1628:	0001209f 	muleq	r1, pc, r0	; <UNPREDICTABLE>
    162c:	00012300 	andeq	r2, r1, r0, lsl #6
    1630:	51000100 	mrspl	r0, (UNDEF: 16)
    1634:	00000123 	andeq	r0, r0, r3, lsr #2
    1638:	0000016c 	andeq	r0, r0, ip, ror #2
    163c:	01f30004 	mvnseq	r0, r4
    1640:	00009f51 	andeq	r9, r0, r1, asr pc
    1644:	00000000 	andeq	r0, r0, r0
    1648:	00f80000 	rscseq	r0, r8, r0
    164c:	00fc0000 	rscseq	r0, ip, r0
    1650:	00010000 	andeq	r0, r1, r0
    1654:	0000fc52 	andeq	pc, r0, r2, asr ip	; <UNPREDICTABLE>
    1658:	00010400 	andeq	r0, r1, r0, lsl #8
    165c:	03000500 	movweq	r0, #1280	; 0x500
    1660:	00009a08 	andeq	r9, r0, r8, lsl #20
    1664:	00000104 	andeq	r0, r0, r4, lsl #2
    1668:	0000011b 	andeq	r0, r0, fp, lsl r1
    166c:	3c530001 	mrrccc	0, 0, r0, r3, cr1
    1670:	3f000001 	svccc	0x00000001
    1674:	01000001 	tsteq	r0, r1
    1678:	00005300 	andeq	r5, r0, r0, lsl #6
    167c:	00000000 	andeq	r0, r0, r0
    1680:	006c0000 	rsbeq	r0, ip, r0
    1684:	00800000 	addeq	r0, r0, r0
    1688:	00010000 	andeq	r0, r1, r0
    168c:	00008050 	andeq	r8, r0, r0, asr r0
    1690:	00009b00 	andeq	r9, r0, r0, lsl #22
    1694:	52000100 	andpl	r0, r0, #0, 2
    1698:	0000009b 	muleq	r0, fp, r0
    169c:	000000a4 	andeq	r0, r0, r4, lsr #1
    16a0:	01f30009 	mvnseq	r0, r9
    16a4:	09072350 	stmdbeq	r7, {r4, r6, r8, r9, sp}
    16a8:	a49f1af8 	ldrge	r1, [pc], #2808	; 16b0 <_start-0x6950>
    16ac:	a7000000 	strge	r0, [r0, -r0]
    16b0:	01000000 	mrseq	r0, (UNDEF: 0)
    16b4:	00a75000 	adceq	r5, r7, r0
    16b8:	00d00000 	sbcseq	r0, r0, r0
    16bc:	00040000 	andeq	r0, r4, r0
    16c0:	9f5001f3 	svcls	0x005001f3
	...
    16cc:	00000088 	andeq	r0, r0, r8, lsl #1
    16d0:	000000a4 	andeq	r0, r0, r4, lsr #1
    16d4:	00540001 	subseq	r0, r4, r1
    16d8:	00000000 	andeq	r0, r0, r0
    16dc:	1c000000 	stcne	0, cr0, [r0], {-0}
    16e0:	43000000 	movwmi	r0, #0
    16e4:	01000000 	mrseq	r0, (UNDEF: 0)
    16e8:	00435000 	subeq	r5, r3, r0
    16ec:	006c0000 	rsbeq	r0, ip, r0
    16f0:	00040000 	andeq	r0, r4, r0
    16f4:	9f5001f3 	svcls	0x005001f3
	...
    1700:	0000001c 	andeq	r0, r0, ip, lsl r0
    1704:	00000043 	andeq	r0, r0, r3, asr #32
    1708:	43500001 	cmpmi	r0, #1
    170c:	6c000000 	stcvs	0, cr0, [r0], {-0}
    1710:	04000000 	streq	r0, [r0], #-0
    1714:	5001f300 	andpl	pc, r1, r0, lsl #6
    1718:	0000009f 	muleq	r0, pc, r0	; <UNPREDICTABLE>
    171c:	00000000 	andeq	r0, r0, r0
	...

Disassembly of section .debug_aranges:

00000000 <.debug_aranges>:
   0:	0000001c 	andeq	r0, r0, ip, lsl r0
   4:	00000002 	andeq	r0, r0, r2
   8:	00040000 	andeq	r0, r4, r0
   c:	00000000 	andeq	r0, r0, r0
  10:	00008010 	andeq	r8, r0, r0, lsl r0
  14:	000000b4 	strheq	r0, [r0], -r4
	...
  20:	0000001c 	andeq	r0, r0, ip, lsl r0
  24:	02b30002 	adcseq	r0, r3, #2
  28:	00040000 	andeq	r0, r4, r0
  2c:	00000000 	andeq	r0, r0, r0
  30:	000080c4 	andeq	r8, r0, r4, asr #1
  34:	000007b8 			; <UNDEFINED> instruction: 0x000007b8
	...
  40:	0000001c 	andeq	r0, r0, ip, lsl r0
  44:	12520002 	subsne	r0, r2, #2
  48:	00040000 	andeq	r0, r4, r0
  4c:	00000000 	andeq	r0, r0, r0
  50:	0000887c 	andeq	r8, r0, ip, ror r8
  54:	00000474 	andeq	r0, r0, r4, ror r4
	...
  60:	0000001c 	andeq	r0, r0, ip, lsl r0
  64:	1e100002 	cdpne	0, 1, cr0, cr0, cr2, {0}
  68:	00040000 	andeq	r0, r4, r0
  6c:	00000000 	andeq	r0, r0, r0
  70:	00008d34 	andeq	r8, r0, r4, lsr sp
  74:	000000f0 	strdeq	r0, [r0], -r0	; <UNPREDICTABLE>
	...
  80:	0000001c 	andeq	r0, r0, ip, lsl r0
  84:	1f260002 	svcne	0x00260002
  88:	00040000 	andeq	r0, r4, r0
  8c:	00000000 	andeq	r0, r0, r0
  90:	00008e24 	andeq	r8, r0, r4, lsr #28
  94:	00000020 	andeq	r0, r0, r0, lsr #32
	...
  a0:	0000001c 	andeq	r0, r0, ip, lsl r0
  a4:	20050002 	andcs	r0, r5, r2
  a8:	00040000 	andeq	r0, r4, r0
  ac:	00000000 	andeq	r0, r0, r0
  b0:	00008e44 	andeq	r8, r0, r4, asr #28
  b4:	00000058 	andeq	r0, r0, r8, asr r0
	...
  c0:	0000001c 	andeq	r0, r0, ip, lsl r0
  c4:	219a0002 	orrscs	r0, sl, r2
  c8:	00040000 	andeq	r0, r4, r0
  cc:	00000000 	andeq	r0, r0, r0
  d0:	00008e9c 	muleq	r0, ip, lr
  d4:	0000003c 	andeq	r0, r0, ip, lsr r0
	...
  e0:	0000001c 	andeq	r0, r0, ip, lsl r0
  e4:	22b10002 	adcscs	r0, r1, #2
  e8:	00040000 	andeq	r0, r4, r0
  ec:	00000000 	andeq	r0, r0, r0
  f0:	00008ed8 	ldrdeq	r8, [r0], -r8	; <UNPREDICTABLE>
  f4:	00000034 	andeq	r0, r0, r4, lsr r0
	...
 100:	0000001c 	andeq	r0, r0, ip, lsl r0
 104:	23a30002 			; <UNDEFINED> instruction: 0x23a30002
 108:	00040000 	andeq	r0, r4, r0
 10c:	00000000 	andeq	r0, r0, r0
 110:	00008f0c 	andeq	r8, r0, ip, lsl #30
 114:	0000050c 	andeq	r0, r0, ip, lsl #10
	...
 120:	0000001c 	andeq	r0, r0, ip, lsl r0
 124:	2a280002 	bcs	a00134 <__bss_end__+0x9f5974>
 128:	00040000 	andeq	r0, r4, r0
 12c:	00000000 	andeq	r0, r0, r0
 130:	00009418 	andeq	r9, r0, r8, lsl r4
 134:	00000028 	andeq	r0, r0, r8, lsr #32
	...
 140:	0000001c 	andeq	r0, r0, ip, lsl r0
 144:	2b2b0002 	blcs	ac0154 <__bss_end__+0xab5994>
 148:	00040000 	andeq	r0, r4, r0
 14c:	00000000 	andeq	r0, r0, r0
 150:	00009440 	andeq	r9, r0, r0, asr #8
 154:	00000034 	andeq	r0, r0, r4, lsr r0
	...
 160:	0000001c 	andeq	r0, r0, ip, lsl r0
 164:	2c2e0002 	stccs	0, cr0, [lr], #-8
 168:	00040000 	andeq	r0, r4, r0
 16c:	00000000 	andeq	r0, r0, r0
 170:	00009474 	andeq	r9, r0, r4, ror r4
 174:	00000074 	andeq	r0, r0, r4, ror r0
	...
 180:	0000001c 	andeq	r0, r0, ip, lsl r0
 184:	2ddf0002 	ldclcs	0, cr0, [pc, #8]	; 194 <_start-0x7e6c>
 188:	00040000 	andeq	r0, r4, r0
 18c:	00000000 	andeq	r0, r0, r0
 190:	000094e8 	andeq	r9, r0, r8, ror #9
 194:	00000088 	andeq	r0, r0, r8, lsl #1
	...
 1a0:	0000001c 	andeq	r0, r0, ip, lsl r0
 1a4:	2fbb0002 	svccs	0x00bb0002
 1a8:	00040000 	andeq	r0, r4, r0
 1ac:	00000000 	andeq	r0, r0, r0
 1b0:	000095bc 			; <UNDEFINED> instruction: 0x000095bc
 1b4:	00000178 	andeq	r0, r0, r8, ror r1
	...
 1c0:	0000001c 	andeq	r0, r0, ip, lsl r0
 1c4:	3c840002 	stccc	0, cr0, [r4], {2}
 1c8:	00040000 	andeq	r0, r4, r0
 1cc:	00000000 	andeq	r0, r0, r0
 1d0:	00009734 	andeq	r9, r0, r4, lsr r7
 1d4:	00000120 	andeq	r0, r0, r0, lsr #2
	...
 1e0:	0000001c 	andeq	r0, r0, ip, lsl r0
 1e4:	47f80002 	ldrbmi	r0, [r8, r2]!
 1e8:	00040000 	andeq	r0, r4, r0
 1ec:	00000000 	andeq	r0, r0, r0
 1f0:	00009854 	andeq	r9, r0, r4, asr r8
 1f4:	00000194 	muleq	r0, r4, r1
	...

Disassembly of section .debug_ranges:

00000000 <.debug_ranges>:
   0:	00000004 	andeq	r0, r0, r4
   4:	00000008 	andeq	r0, r0, r8
   8:	0000000c 	andeq	r0, r0, ip
   c:	00000060 	andeq	r0, r0, r0, rrx
	...
  18:	0000000c 	andeq	r0, r0, ip
  1c:	00000020 	andeq	r0, r0, r0, lsr #32
  20:	00000024 	andeq	r0, r0, r4, lsr #32
  24:	00000050 	andeq	r0, r0, r0, asr r0
  28:	00000054 	andeq	r0, r0, r4, asr r0
  2c:	00000058 	andeq	r0, r0, r8, asr r0
	...
  38:	00000020 	andeq	r0, r0, r0, lsr #32
  3c:	000000c4 	andeq	r0, r0, r4, asr #1
  40:	000000d8 	ldrdeq	r0, [r0], -r8
  44:	000000e4 	andeq	r0, r0, r4, ror #1
	...
  50:	000006bc 			; <UNDEFINED> instruction: 0x000006bc
  54:	000006c4 	andeq	r0, r0, r4, asr #13
  58:	000006c8 	andeq	r0, r0, r8, asr #13
  5c:	00000750 	andeq	r0, r0, r0, asr r7
	...
  68:	00000174 	andeq	r0, r0, r4, ror r1
  6c:	000001bc 			; <UNDEFINED> instruction: 0x000001bc
  70:	000001c0 	andeq	r0, r0, r0, asr #3
  74:	000001d4 	ldrdeq	r0, [r0], -r4
	...
  80:	000002a8 	andeq	r0, r0, r8, lsr #5
  84:	000002ac 	andeq	r0, r0, ip, lsr #5
  88:	000002dc 	ldrdeq	r0, [r0], -ip
  8c:	000004cc 	andeq	r0, r0, ip, asr #9
	...
  98:	00009474 	andeq	r9, r0, r4, ror r4
  9c:	000094e8 	andeq	r9, r0, r8, ror #9
	...

Disassembly of section .debug_line:

00000000 <.debug_line>:
       0:	00000192 	muleq	r0, r2, r1
       4:	014c0002 	cmpeq	ip, r2
       8:	01020000 	mrseq	r0, (UNDEF: 2)
       c:	000d0efb 	strdeq	r0, [sp], -fp
      10:	01010101 	tsteq	r1, r1, lsl #2
      14:	01000000 	mrseq	r0, (UNDEF: 0)
      18:	74010000 	strvc	r0, [r1], #-0
      1c:	73747365 	cmnvc	r4, #-1811939327	; 0x94000001
      20:	73752f00 	cmnvc	r5, #0, 30
      24:	6f6c2f72 	svcvs	0x006c2f72
      28:	2f6c6163 	svccs	0x006c6163
      2c:	6c6c6543 	cfstr64vs	mvdx6, [ip], #-268	; 0xfffffef4
      30:	612f7261 	teqvs	pc, r1, ror #4
      34:	6e2d6d72 	mcrvs	13, 1, r6, cr13, cr2, {3}
      38:	2d656e6f 	stclcs	14, cr6, [r5, #-444]!	; 0xfffffe44
      3c:	69626165 	stmdbvs	r2!, {r0, r2, r5, r6, r8, sp, lr}^
      40:	382e342f 	stmdacc	lr!, {r0, r1, r2, r3, r5, sl, ip, sp}
      44:	632d332e 	teqvs	sp, #-1207959552	; 0xb8000000
      48:	30373173 	eorscc	r3, r7, r3, ror r1
      4c:	696c2f65 	stmdbvs	ip!, {r0, r2, r5, r6, r8, r9, sl, fp, sp}^
      50:	63672f62 	cmnvs	r7, #392	; 0x188
      54:	72612f63 	rsbvc	r2, r1, #396	; 0x18c
      58:	6f6e2d6d 	svcvs	0x006e2d6d
      5c:	652d656e 	strvs	r6, [sp, #-1390]!	; 0x56e
      60:	2f696261 	svccs	0x00696261
      64:	2e382e34 	mrccs	14, 1, r2, cr8, cr4, {1}
      68:	6e692f33 	mcrvs	15, 3, r2, cr9, cr3, {1}
      6c:	64756c63 	ldrbtvs	r6, [r5], #-3171	; 0xc63
      70:	002e0065 	eoreq	r0, lr, r5, rrx
      74:	7273752f 	rsbsvc	r7, r3, #197132288	; 0xbc00000
      78:	636f6c2f 	cmnvs	pc, #12032	; 0x2f00
      7c:	432f6c61 	teqmi	pc, #24832	; 0x6100
      80:	616c6c65 	cmnvs	ip, r5, ror #24
      84:	72612f72 	rsbvc	r2, r1, #456	; 0x1c8
      88:	6f6e2d6d 	svcvs	0x006e2d6d
      8c:	652d656e 	strvs	r6, [sp, #-1390]!	; 0x56e
      90:	2f696261 	svccs	0x00696261
      94:	2e382e34 	mrccs	14, 1, r2, cr8, cr4, {1}
      98:	73632d33 	cmnvc	r3, #3264	; 0xcc0
      9c:	65303731 	ldrvs	r3, [r0, #-1841]!	; 0x731
      a0:	6d72612f 	ldfvse	f6, [r2, #-188]!	; 0xffffff44
      a4:	6e6f6e2d 	cdpvs	14, 6, cr6, cr15, cr13, {1}
      a8:	61652d65 	cmnvs	r5, r5, ror #26
      ac:	692f6962 	stmdbvs	pc!, {r1, r5, r6, r8, fp, sp, lr}	; <UNPREDICTABLE>
      b0:	756c636e 	strbvc	r6, [ip, #-878]!	; 0x36e
      b4:	2f006564 	svccs	0x00006564
      b8:	72657355 	rsbvc	r7, r5, #1409286145	; 0x54000001
      bc:	72622f73 	rsbvc	r2, r2, #460	; 0x1cc
      c0:	6a6e6169 	bvs	1b9866c <__bss_end__+0x1b8deac>
      c4:	442f6e75 	strtmi	r6, [pc], #-3701	; cc <_start-0x7f34>
      c8:	746b7365 	strbtvc	r7, [fp], #-869	; 0x365
      cc:	732f706f 	teqvc	pc, #111	; 0x6f
      d0:	6f6f6863 	svcvs	0x006f6863
      d4:	70532f6c 	subsvc	r2, r3, ip, ror #30
      d8:	676e6972 			; <UNDEFINED> instruction: 0x676e6972
      dc:	30323931 	eorscc	r3, r2, r1, lsr r9
      e0:	3253432f 	subscc	r4, r3, #-1140850688	; 0xbc000000
      e4:	584c3034 	stmdapl	ip, {r2, r4, r5, ip, sp}^
      e8:	3273632f 	rsbscc	r6, r3, #-1140850688	; 0xbc000000
      ec:	786c3034 	stmdavc	ip!, {r2, r4, r5, ip, sp}^
      f0:	7330322d 	teqvc	r0, #-805306366	; 0xd0000002
      f4:	6c2f7270 	sfmvs	f7, 4, [pc], #-448	; ffffff3c <__bss_end__+0xffff577c>
      f8:	69706269 	ldmdbvs	r0!, {r0, r3, r5, r6, r9, sp, lr}^
      fc:	636e692f 	cmnvs	lr, #770048	; 0xbc000
     100:	6564756c 	strbvs	r7, [r4, #-1388]!	; 0x56c
     104:	61700000 	cmnvs	r0, r0
     108:	2d327472 	cfldrscs	mvf7, [r2, #-456]!	; 0xfffffe38
     10c:	74736574 	ldrbtvc	r6, [r3], #-1396	; 0x574
     110:	00632e33 	rsbeq	r2, r3, r3, lsr lr
     114:	73000001 	movwvc	r0, #1
     118:	65646474 	strbvs	r6, [r4, #-1140]!	; 0x474
     11c:	00682e66 	rsbeq	r2, r8, r6, ror #28
     120:	73000002 	movwvc	r0, #2
     124:	6e696474 	mcrvs	4, 3, r6, cr9, cr4, {3}
     128:	63672d74 	cmnvs	r7, #116, 26	; 0x1d00
     12c:	00682e63 	rsbeq	r2, r8, r3, ror #28
     130:	63000002 	movwvs	r0, #2
     134:	6c6c616b 	stfvse	f6, [ip], #-428	; 0xfffffe54
     138:	682e636f 	stmdavs	lr!, {r0, r1, r2, r3, r5, r6, r8, r9, sp, lr}
     13c:	00000300 	andeq	r0, r0, r0, lsl #6
     140:	69727473 	ldmdbvs	r2!, {r0, r1, r4, r5, r6, sl, ip, sp, lr}^
     144:	682e676e 	stmdavs	lr!, {r1, r2, r3, r5, r6, r8, r9, sl, sp, lr}
     148:	00000400 	andeq	r0, r0, r0, lsl #8
     14c:	2e697072 	mcrcs	0, 3, r7, cr9, cr2, {3}
     150:	00050068 	andeq	r0, r5, r8, rrx
     154:	05000000 	streq	r0, [r0, #-0]
     158:	00801002 	addeq	r1, r0, r2
     15c:	010a0300 	mrseq	r0, (UNDEF: 58)
     160:	83312c34 	teqhi	r1, #52, 24	; 0x3400
     164:	0402002c 	streq	r0, [r2], #-44	; 0x2c
     168:	02002f02 	andeq	r2, r0, #2, 30
     16c:	00bb0204 	adcseq	r0, fp, r4, lsl #4
     170:	67020402 	strvs	r0, [r2, -r2, lsl #8]
     174:	02040200 	andeq	r0, r4, #0, 4
     178:	0402002f 	streq	r0, [r2], #-47	; 0x2f
     17c:	02002a02 	andeq	r2, r0, #8192	; 0x2000
     180:	00330204 	eorseq	r0, r3, r4, lsl #4
     184:	29010402 	stmdbcs	r1, {r1, sl}
     188:	314a0c03 	cmpcc	sl, r3, lsl #24
     18c:	4c4d2f85 	mcrrmi	15, 8, r2, sp, cr5
     190:	000e0286 	andeq	r0, lr, r6, lsl #5
     194:	02c20101 	sbceq	r0, r2, #1073741824	; 0x40000000
     198:	00020000 	andeq	r0, r2, r0
     19c:	000001a4 	andeq	r0, r0, r4, lsr #3
     1a0:	0efb0102 	cdpeq	1, 15, cr0, cr11, cr2, {0}
     1a4:	0101000d 	tsteq	r1, sp
     1a8:	00000101 	andeq	r0, r0, r1, lsl #2
     1ac:	00000100 	andeq	r0, r0, r0, lsl #2
     1b0:	73752f01 	cmnvc	r5, #1, 30
     1b4:	6f6c2f72 	svcvs	0x006c2f72
     1b8:	2f6c6163 	svccs	0x006c6163
     1bc:	6c6c6543 	cfstr64vs	mvdx6, [ip], #-268	; 0xfffffef4
     1c0:	612f7261 	teqvs	pc, r1, ror #4
     1c4:	6e2d6d72 	mcrvs	13, 1, r6, cr13, cr2, {3}
     1c8:	2d656e6f 	stclcs	14, cr6, [r5, #-444]!	; 0xfffffe44
     1cc:	69626165 	stmdbvs	r2!, {r0, r2, r5, r6, r8, sp, lr}^
     1d0:	382e342f 	stmdacc	lr!, {r0, r1, r2, r3, r5, sl, ip, sp}
     1d4:	632d332e 	teqvs	sp, #-1207959552	; 0xb8000000
     1d8:	30373173 	eorscc	r3, r7, r3, ror r1
     1dc:	696c2f65 	stmdbvs	ip!, {r0, r2, r5, r6, r8, r9, sl, fp, sp}^
     1e0:	63672f62 	cmnvs	r7, #392	; 0x188
     1e4:	72612f63 	rsbvc	r2, r1, #396	; 0x18c
     1e8:	6f6e2d6d 	svcvs	0x006e2d6d
     1ec:	652d656e 	strvs	r6, [sp, #-1390]!	; 0x56e
     1f0:	2f696261 	svccs	0x00696261
     1f4:	2e382e34 	mrccs	14, 1, r2, cr8, cr4, {1}
     1f8:	6e692f33 	mcrvs	15, 3, r2, cr9, cr3, {1}
     1fc:	64756c63 	ldrbtvs	r6, [r5], #-3171	; 0xc63
     200:	552f0065 	strpl	r0, [pc, #-101]!	; 1a3 <_start-0x7e5d>
     204:	73726573 	cmnvc	r2, #482344960	; 0x1cc00000
     208:	6972622f 	ldmdbvs	r2!, {r0, r1, r2, r3, r5, r9, sp, lr}^
     20c:	756a6e61 	strbvc	r6, [sl, #-3681]!	; 0xe61
     210:	65442f6e 	strbvs	r2, [r4, #-3950]	; 0xf6e
     214:	6f746b73 	svcvs	0x00746b73
     218:	63732f70 	cmnvs	r3, #112, 30	; 0x1c0
     21c:	6c6f6f68 	stclvs	15, cr6, [pc], #-416	; 84 <_start-0x7f7c>
     220:	7270532f 	rsbsvc	r5, r0, #-1140850688	; 0xbc000000
     224:	31676e69 	cmncc	r7, r9, ror #28
     228:	2f303239 	svccs	0x00303239
     22c:	34325343 	ldrtcc	r5, [r2], #-835	; 0x343
     230:	2f584c30 	svccs	0x00584c30
     234:	34327363 	ldrtcc	r7, [r2], #-867	; 0x363
     238:	2d786c30 	ldclcs	12, cr6, [r8, #-192]!	; 0xffffff40
     23c:	70733032 	rsbsvc	r3, r3, r2, lsr r0
     240:	696c2f72 	stmdbvs	ip!, {r1, r4, r5, r6, r8, r9, sl, fp, sp}^
     244:	2f697062 	svccs	0x00697062
     248:	6c636e69 	stclvs	14, cr6, [r3], #-420	; 0xfffffe5c
     24c:	00656475 	rsbeq	r6, r5, r5, ror r4
     250:	7273752f 	rsbsvc	r7, r3, #197132288	; 0xbc00000
     254:	636f6c2f 	cmnvs	pc, #12032	; 0x2f00
     258:	432f6c61 	teqmi	pc, #24832	; 0x6100
     25c:	616c6c65 	cmnvs	ip, r5, ror #24
     260:	72612f72 	rsbvc	r2, r1, #456	; 0x1c8
     264:	6f6e2d6d 	svcvs	0x006e2d6d
     268:	652d656e 	strvs	r6, [sp, #-1390]!	; 0x56e
     26c:	2f696261 	svccs	0x00696261
     270:	2e382e34 	mrccs	14, 1, r2, cr8, cr4, {1}
     274:	73632d33 	cmnvc	r3, #3264	; 0xcc0
     278:	65303731 	ldrvs	r3, [r0, #-1841]!	; 0x731
     27c:	6d72612f 	ldfvse	f6, [r2, #-188]!	; 0xffffff44
     280:	6e6f6e2d 	cdpvs	14, 6, cr6, cr15, cr13, {1}
     284:	61652d65 	cmnvs	r5, r5, ror #26
     288:	692f6962 	stmdbvs	pc!, {r1, r5, r6, r8, fp, sp, lr}	; <UNPREDICTABLE>
     28c:	756c636e 	strbvc	r6, [ip, #-878]!	; 0x36e
     290:	2f006564 	svccs	0x00006564
     294:	72657355 	rsbvc	r7, r5, #1409286145	; 0x54000001
     298:	72622f73 	rsbvc	r2, r2, #460	; 0x1cc
     29c:	6a6e6169 	bvs	1b98848 <__bss_end__+0x1b8e088>
     2a0:	442f6e75 	strtmi	r6, [pc], #-3701	; 2a8 <_start-0x7d58>
     2a4:	746b7365 	strbtvc	r7, [fp], #-869	; 0x365
     2a8:	732f706f 	teqvc	pc, #111	; 0x6f
     2ac:	6f6f6863 	svcvs	0x006f6863
     2b0:	70532f6c 	subsvc	r2, r3, ip, ror #30
     2b4:	676e6972 			; <UNDEFINED> instruction: 0x676e6972
     2b8:	30323931 	eorscc	r3, r2, r1, lsr r9
     2bc:	3253432f 	subscc	r4, r3, #-1140850688	; 0xbc000000
     2c0:	584c3034 	stmdapl	ip, {r2, r4, r5, ip, sp}^
     2c4:	3273632f 	rsbscc	r6, r3, #-1140850688	; 0xbc000000
     2c8:	786c3034 	stmdavc	ip!, {r2, r4, r5, ip, sp}^
     2cc:	7330322d 	teqvc	r0, #-805306366	; 0xd0000002
     2d0:	6c2f7270 	sfmvs	f7, 4, [pc], #-448	; 118 <_start-0x7ee8>
     2d4:	69706269 	ldmdbvs	r0!, {r0, r3, r5, r6, r9, sp, lr}^
     2d8:	62696c2f 	rsbvs	r6, r9, #12032	; 0x2f00
     2dc:	63000063 	movwvs	r0, #99	; 0x63
     2e0:	6c6c616b 	stfvse	f6, [ip], #-428	; 0xfffffe54
     2e4:	632e636f 	teqvs	lr, #-1140850687	; 0xbc000001
     2e8:	00000000 	andeq	r0, r0, r0
     2ec:	6c616b63 	stclvs	11, cr6, [r1], #-396	; 0xfffffe74
     2f0:	2d636f6c 	stclcs	15, cr6, [r3, #-432]!	; 0xfffffe50
     2f4:	65746e69 	ldrbvs	r6, [r4, #-3689]!	; 0xe69
     2f8:	6c616e72 	stclvs	14, cr6, [r1], #-456	; 0xfffffe38
     2fc:	0000682e 	andeq	r6, r0, lr, lsr #16
     300:	74730000 	ldrbtvc	r0, [r3], #-0
     304:	66656464 	strbtvs	r6, [r5], -r4, ror #8
     308:	0100682e 	tsteq	r0, lr, lsr #16
     30c:	74730000 	ldrbtvc	r0, [r3], #-0
     310:	746e6964 	strbtvc	r6, [lr], #-2404	; 0x964
     314:	6363672d 	cmnvs	r3, #11796480	; 0xb40000
     318:	0100682e 	tsteq	r0, lr, lsr #16
     31c:	70720000 	rsbsvc	r0, r2, r0
     320:	00682e69 	rsbeq	r2, r8, r9, ror #28
     324:	73000002 	movwvc	r0, #2
     328:	6e697274 	mcrvs	2, 3, r7, cr9, cr4, {3}
     32c:	00682e67 	rsbeq	r2, r8, r7, ror #28
     330:	6c000003 	stcvs	0, cr0, [r0], {3}
     334:	2d636269 	sfmcs	f6, 2, [r3, #-420]!	; 0xfffffe5c
     338:	72747865 	rsbsvc	r7, r4, #6619136	; 0x650000
     33c:	00682e61 	rsbeq	r2, r8, r1, ror #28
     340:	00000004 	andeq	r0, r0, r4
     344:	c4020500 	strgt	r0, [r2], #-1280	; 0x500
     348:	03000080 	movweq	r0, #128	; 0x80
     34c:	4b4c0125 	blmi	13007e8 <__bss_end__+0x12f6028>
     350:	042f2f83 	strteq	r2, [pc], #-3971	; 358 <_start-0x7ca8>
     354:	00d80302 	sbcseq	r0, r8, r2, lsl #6
     358:	67a02008 	strvs	r2, [r0, r8]!
     35c:	0104bbd9 	ldrdeq	fp, [r4, -r9]
     360:	d67fa203 	ldrbtle	sl, [pc], -r3, lsl #4
     364:	04020045 	streq	r0, [r2], #-69	; 0x45
     368:	062e0601 	strteq	r0, [lr], -r1, lsl #12
     36c:	d76a4752 			; <UNDEFINED> instruction: 0xd76a4752
     370:	6661034b 	strbtvs	r0, [r1], -fp, asr #6
     374:	4b4b2f4b 	blmi	12cc0a8 <__bss_end__+0x12c18e8>
     378:	314b3130 	cmpcc	fp, r0, lsr r1
     37c:	01040200 	mrseq	r0, R12_usr
     380:	d7066606 	strle	r6, [r6, -r6, lsl #12]
     384:	01040200 	mrseq	r0, R12_usr
     388:	d8068206 	stmdale	r6, {r1, r2, r9, pc}
     38c:	4cba1803 	ldcmi	8, cr1, [sl], #12
     390:	02044930 	andeq	r4, r4, #48, 18	; 0xc0000
     394:	4cba1c03 	ldcmi	12, cr1, [sl], #12
     398:	63030104 	movwvs	r0, #12548	; 0x3104
     39c:	0391082e 	orrseq	r0, r1, #3014656	; 0x2e0000
     3a0:	00672e49 	rsbeq	r2, r7, r9, asr #28
     3a4:	06010402 	streq	r0, [r1], -r2, lsl #8
     3a8:	83d70682 	bicshi	r0, r7, #136314880	; 0x8200000
     3ac:	f23a0367 	vcgt.s<illegal width 64>	q0, q5, <illegal reg q11.5>
     3b0:	040200a0 	streq	r0, [r2], #-160	; 0xa0
     3b4:	06820601 	streq	r0, [r2], r1, lsl #12
     3b8:	8530a0d7 	ldrhi	sl, [r0, #-215]!	; 0xd7
     3bc:	2f684c6a 	svccs	0x00684c6a
     3c0:	4008302f 	andmi	r3, r8, pc, lsr #32
     3c4:	040200be 	streq	r0, [r2], #-190	; 0xbe
     3c8:	06820601 	streq	r0, [r2], r1, lsl #12
     3cc:	314ba0d7 	ldrdcc	sl, [fp, #-7]
     3d0:	bb92084b 	bllt	fe482504 <__bss_end__+0xfe477d44>
     3d4:	2f182a02 	svccs	0x00182a02
     3d8:	2f2f4c4b 	svccs	0x002f4c4b
     3dc:	302f4b30 	eorcc	r4, pc, r0, lsr fp	; <UNPREDICTABLE>
     3e0:	03020468 	movweq	r0, #9320	; 0x2468
     3e4:	044c6656 	strbeq	r6, [ip], #-1622	; 0x656
     3e8:	2e290301 	cdpcs	3, 2, cr0, cr9, cr1, {0}
     3ec:	02008568 	andeq	r8, r0, #104, 10	; 0x1a000000
     3f0:	82060104 	andhi	r0, r6, #4, 2
     3f4:	0200d706 	andeq	sp, r0, #1572864	; 0x180000
     3f8:	82060104 	andhi	r0, r6, #4, 2
     3fc:	02d8d706 	sbcseq	sp, r8, #1572864	; 0x180000
     400:	4d2f1422 	cfstrsmi	mvf1, [pc, #-136]!	; 380 <_start-0x7c80>
     404:	01040200 	mrseq	r0, R12_usr
     408:	d8068206 	stmdale	r6, {r1, r2, r9, pc}
     40c:	030204bc 	movweq	r0, #9404	; 0x24bc
     410:	01042e4b 	tsteq	r4, fp, asr #28
     414:	34823603 	strcc	r3, [r2], #1539	; 0x603
     418:	04020085 	streq	r0, [r2], #-133	; 0x85
     41c:	06820601 	streq	r0, [r2], r1, lsl #12
     420:	a02f4dd4 	ldrdge	r4, [pc], -r4	; <UNPREDICTABLE>
     424:	3148a013 	cmpcc	r8, r3, lsl r0
     428:	2f4e332b 	svccs	0x004e332b
     42c:	2cbf4c83 	ldccs	12, cr4, [pc], #524	; 640 <_start-0x79c0>
     430:	0b03322d 	bleq	cccec <__bss_end__+0xc252c>
     434:	4a75032e 	bmi	1d410f4 <__bss_end__+0x1d36934>
     438:	2f838330 	svccs	0x00838330
     43c:	04020030 	streq	r0, [r2], #-48	; 0x30
     440:	06660601 	strbteq	r0, [r6], -r1, lsl #12
     444:	83bb6730 			; <UNDEFINED> instruction: 0x83bb6730
     448:	02009f32 	andeq	r9, r0, #50, 30	; 0xc8
     44c:	6f030104 	svcvs	0x00030104
     450:	6615032e 	ldrvs	r0, [r5], -lr, lsr #6
     454:	02a0d84b 	adceq	sp, r0, #4915200	; 0x4b0000
     458:	01010012 	tsteq	r1, r2, lsl r0
     45c:	000001c8 	andeq	r0, r0, r8, asr #3
     460:	00f90002 	rscseq	r0, r9, r2
     464:	01020000 	mrseq	r0, (UNDEF: 2)
     468:	000d0efb 	strdeq	r0, [sp], -fp
     46c:	01010101 	tsteq	r1, r1, lsl #2
     470:	01000000 	mrseq	r0, (UNDEF: 0)
     474:	2f010000 	svccs	0x00010000
     478:	2f727375 	svccs	0x00727375
     47c:	61636f6c 	cmnvs	r3, ip, ror #30
     480:	65432f6c 	strbvs	r2, [r3, #-3948]	; 0xf6c
     484:	72616c6c 	rsbvc	r6, r1, #108, 24	; 0x6c00
     488:	6d72612f 	ldfvse	f6, [r2, #-188]!	; 0xffffff44
     48c:	6e6f6e2d 	cdpvs	14, 6, cr6, cr15, cr13, {1}
     490:	61652d65 	cmnvs	r5, r5, ror #26
     494:	342f6962 	strtcc	r6, [pc], #-2402	; 49c <_start-0x7b64>
     498:	332e382e 	teqcc	lr, #3014656	; 0x2e0000
     49c:	3173632d 	cmncc	r3, sp, lsr #6
     4a0:	2f653037 	svccs	0x00653037
     4a4:	2f62696c 	svccs	0x0062696c
     4a8:	2f636367 	svccs	0x00636367
     4ac:	2d6d7261 	sfmcs	f7, 2, [sp, #-388]!	; 0xfffffe7c
     4b0:	656e6f6e 	strbvs	r6, [lr, #-3950]!	; 0xf6e
     4b4:	6261652d 	rsbvs	r6, r1, #188743680	; 0xb400000
     4b8:	2e342f69 	cdpcs	15, 3, cr2, cr4, cr9, {3}
     4bc:	2f332e38 	svccs	0x00332e38
     4c0:	6c636e69 	stclvs	14, cr6, [r3], #-420	; 0xfffffe5c
     4c4:	00656475 	rsbeq	r6, r5, r5, ror r4
     4c8:	6573552f 	ldrbvs	r5, [r3, #-1327]!	; 0x52f
     4cc:	622f7372 	eorvs	r7, pc, #-939524095	; 0xc8000001
     4d0:	6e616972 	mcrvs	9, 3, r6, cr1, cr2, {3}
     4d4:	2f6e756a 	svccs	0x006e756a
     4d8:	6b736544 	blvs	1cd99f0 <__bss_end__+0x1ccf230>
     4dc:	2f706f74 	svccs	0x00706f74
     4e0:	6f686373 	svcvs	0x00686373
     4e4:	532f6c6f 	teqpl	pc, #28416	; 0x6f00
     4e8:	6e697270 	mcrvs	2, 3, r7, cr9, cr0, {3}
     4ec:	32393167 	eorscc	r3, r9, #-1073741799	; 0xc0000019
     4f0:	53432f30 	movtpl	r2, #16176	; 0x3f30
     4f4:	4c303432 	cfldrsmi	mvf3, [r0], #-200	; 0xffffff38
     4f8:	73632f58 	cmnvc	r3, #88, 30	; 0x160
     4fc:	6c303432 	cfldrsvs	mvf3, [r0], #-200	; 0xffffff38
     500:	30322d78 	eorscc	r2, r2, r8, ror sp
     504:	2f727073 	svccs	0x00727073
     508:	7062696c 	rsbvc	r6, r2, ip, ror #18
     50c:	6e692f69 	cdpvs	15, 6, cr2, cr9, cr9, {3}
     510:	64756c63 	ldrbtvs	r6, [r5], #-3171	; 0xc63
     514:	63000065 	movwvs	r0, #101	; 0x65
     518:	63672d6b 	cmnvs	r7, #6848	; 0x1ac0
     51c:	0000632e 	andeq	r6, r0, lr, lsr #6
     520:	6b630000 	blvs	18c0528 <__bss_end__+0x18b5d68>
     524:	6f6c6c61 	svcvs	0x006c6c61
     528:	6e692d63 	cdpvs	13, 6, cr2, cr9, cr3, {3}
     52c:	6e726574 	mrcvs	5, 3, r6, cr2, cr4, {3}
     530:	682e6c61 	stmdavs	lr!, {r0, r5, r6, sl, fp, sp, lr}
     534:	00000000 	andeq	r0, r0, r0
     538:	69647473 	stmdbvs	r4!, {r0, r1, r4, r5, r6, sl, ip, sp, lr}^
     53c:	672d746e 	strvs	r7, [sp, -lr, ror #8]!
     540:	682e6363 	stmdavs	lr!, {r0, r1, r5, r6, r8, r9, sp, lr}
     544:	00000100 	andeq	r0, r0, r0, lsl #2
     548:	2e697072 	mcrcs	0, 3, r7, cr9, cr2, {3}
     54c:	00020068 	andeq	r0, r2, r8, rrx
     550:	616b6300 	cmnvs	fp, r0, lsl #6
     554:	636f6c6c 	cmnvs	pc, #108, 24	; 0x6c00
     558:	0000682e 	andeq	r6, r0, lr, lsr #16
     55c:	00000000 	andeq	r0, r0, r0
     560:	887c0205 	ldmdahi	ip!, {r0, r2, r9}^
     564:	1a030000 	bne	c056c <__bss_end__+0xb5dac>
     568:	039f1301 	orrseq	r1, pc, #67108864	; 0x4000000
     56c:	694d2e0a 	stmdbvs	sp, {r1, r3, r9, sl, fp, sp}^
     570:	49672f2f 	stmdbmi	r7!, {r0, r1, r2, r3, r5, r8, r9, sl, fp, sp}^
     574:	0402004e 	streq	r0, [r2], #-78	; 0x4e
     578:	03632901 	cmneq	r3, #16384	; 0x4000
     57c:	24032e0c 	strcs	r2, [r3], #-3596	; 0xe0c
     580:	4c4b302e 	mcrrmi	0, 2, r3, fp, cr14
     584:	2e09032a 	cdpcs	3, 0, cr0, cr9, cr10, {1}
     588:	4b2f2c2c 	blmi	bcb640 <__bss_end__+0xbc0e80>
     58c:	002f3030 	eoreq	r3, pc, r0, lsr r0	; <UNPREDICTABLE>
     590:	03010402 	movweq	r0, #5122	; 0x1402
     594:	0a032e79 	beq	cbf80 <__bss_end__+0xc17c0>
     598:	4c86bc4a 	stcmi	12, cr11, [r6], {74}	; 0x4a
     59c:	2ff25103 	svccs	0x00f25103
     5a0:	01040200 	mrseq	r0, R12_usr
     5a4:	d8064a06 	stmdale	r6, {r1, r2, r9, fp, lr}
     5a8:	01040200 	mrseq	r0, R12_usr
     5ac:	d7066606 	strle	r6, [r6, -r6, lsl #12]
     5b0:	01040200 	mrseq	r0, R12_usr
     5b4:	da064a06 	ble	192dd4 <__bss_end__+0x188614>
     5b8:	2f674b4b 	svccs	0x00674b4b
     5bc:	14030204 	strne	r0, [r3], #-516	; 0x204
     5c0:	0301042e 	movweq	r0, #5166	; 0x142e
     5c4:	a261826c 	rsbge	r8, r1, #108, 4	; 0xc0000006
     5c8:	01040200 	mrseq	r0, R12_usr
     5cc:	4a0a032a 	bmi	28127c <__bss_end__+0x276abc>
     5d0:	4dba2603 	ldcmi	6, cr2, [sl, #12]!
     5d4:	02002d2f 	andeq	r2, r0, #3008	; 0xbc0
     5d8:	002f0204 	eoreq	r0, pc, r4, lsl #4
     5dc:	65020402 	strvs	r0, [r2, #-1026]	; 0x402
     5e0:	01040200 	mrseq	r0, R12_usr
     5e4:	4f062e06 	svcmi	0x00062e06
     5e8:	674a0a03 	strbvs	r0, [sl, -r3, lsl #20]
     5ec:	01040200 	mrseq	r0, R12_usr
     5f0:	db066606 	blle	199e10 <__bss_end__+0x18f650>
     5f4:	67696a6c 	strbvs	r6, [r9, -ip, ror #20]!
     5f8:	20083803 	andcs	r3, r8, r3, lsl #16
     5fc:	034c4b30 	movteq	r4, #52016	; 0xcb30
     600:	4b74084c 	blmi	1d02738 <__bss_end__+0x1cf7f78>
     604:	32314b2f 	eorscc	r4, r1, #48128	; 0xbc00
     608:	83d86713 	bicshi	r6, r8, #4980736	; 0x4c0000
     60c:	f683d883 			; <UNDEFINED> instruction: 0xf683d883
     610:	d8671332 	stmdale	r7!, {r1, r4, r5, r8, r9, ip}^
     614:	d84b4b84 	stmdale	fp, {r2, r7, r8, r9, fp, lr}^
     618:	2208149f 	andcs	r1, r8, #-1627389952	; 0x9f000000
     61c:	0818032f 	ldmdaeq	r8, {r0, r1, r2, r3, r5, r8, r9}
     620:	022f2f3c 	eoreq	r2, pc, #60, 30	; 0xf0
     624:	01010002 	tsteq	r1, r2
     628:	000000de 	ldrdeq	r0, [r0], -lr
     62c:	00830002 	addeq	r0, r3, r2
     630:	01020000 	mrseq	r0, (UNDEF: 2)
     634:	000d0efb 	strdeq	r0, [sp], -fp
     638:	01010101 	tsteq	r1, r1, lsl #2
     63c:	01000000 	mrseq	r0, (UNDEF: 0)
     640:	6c010000 	stcvs	0, cr0, [r1], {-0}
     644:	00636269 	rsbeq	r6, r3, r9, ror #4
     648:	7273752f 	rsbsvc	r7, r3, #197132288	; 0xbc00000
     64c:	636f6c2f 	cmnvs	pc, #12032	; 0x2f00
     650:	432f6c61 	teqmi	pc, #24832	; 0x6100
     654:	616c6c65 	cmnvs	ip, r5, ror #24
     658:	72612f72 	rsbvc	r2, r1, #456	; 0x1c8
     65c:	6f6e2d6d 	svcvs	0x006e2d6d
     660:	652d656e 	strvs	r6, [sp, #-1390]!	; 0x56e
     664:	2f696261 	svccs	0x00696261
     668:	2e382e34 	mrccs	14, 1, r2, cr8, cr4, {1}
     66c:	73632d33 	cmnvc	r3, #3264	; 0xcc0
     670:	65303731 	ldrvs	r3, [r0, #-1841]!	; 0x731
     674:	62696c2f 	rsbvs	r6, r9, #12032	; 0x2f00
     678:	6363672f 	cmnvs	r3, #12320768	; 0xbc0000
     67c:	6d72612f 	ldfvse	f6, [r2, #-188]!	; 0xffffff44
     680:	6e6f6e2d 	cdpvs	14, 6, cr6, cr15, cr13, {1}
     684:	61652d65 	cmnvs	r5, r5, ror #26
     688:	342f6962 	strtcc	r6, [pc], #-2402	; 690 <_start-0x7970>
     68c:	332e382e 	teqcc	lr, #3014656	; 0x2e0000
     690:	636e692f 	cmnvs	lr, #770048	; 0xbc000
     694:	6564756c 	strbvs	r7, [r4, #-1388]!	; 0x56c
     698:	61680000 	cmnvs	r8, r0
     69c:	632e6873 	teqvs	lr, #7536640	; 0x730000
     6a0:	00000100 	andeq	r0, r0, r0, lsl #2
     6a4:	69647473 	stmdbvs	r4!, {r0, r1, r4, r5, r6, sl, ip, sp, lr}^
     6a8:	672d746e 	strvs	r7, [sp, -lr, ror #8]!
     6ac:	682e6363 	stmdavs	lr!, {r0, r1, r5, r6, r8, r9, sp, lr}
     6b0:	00000200 	andeq	r0, r0, r0, lsl #4
     6b4:	02050000 	andeq	r0, r5, #0
     6b8:	00008d34 	andeq	r8, r0, r4, lsr sp
     6bc:	30010e03 	andcc	r0, r1, r3, lsl #28
     6c0:	312f8431 	teqcc	pc, r1, lsr r4	; <UNPREDICTABLE>
     6c4:	02040200 	andeq	r0, r4, #0, 4
     6c8:	0402002f 	streq	r0, [r2], #-47	; 0x2f
     6cc:	02008302 	andeq	r8, r0, #134217728	; 0x8000000
     6d0:	00830204 	addeq	r0, r3, r4, lsl #4
     6d4:	2f020402 	svccs	0x00020402
     6d8:	02040200 	andeq	r0, r4, #0, 4
     6dc:	0402002f 	streq	r0, [r2], #-47	; 0x2f
     6e0:	02002902 	andeq	r2, r0, #32768	; 0x8000
     6e4:	2e060104 	adfcss	f0, f6, f4
     6e8:	4a090306 	bmi	241308 <__bss_end__+0x236b48>
     6ec:	4b2f83d7 	blmi	be1650 <__bss_end__+0xbd6e90>
     6f0:	2f832f2f 	svccs	0x00832f2f
     6f4:	2f4b2f2f 	svccs	0x004b2f2f
     6f8:	2f2f2f32 	svccs	0x002f2f32
     6fc:	03302f2f 	teqeq	r0, #47, 30	; 0xbc
     700:	27032e5a 	smlsdcs	r3, sl, lr, r2
     704:	0004022e 	andeq	r0, r4, lr, lsr #4
     708:	00ec0101 	rsceq	r0, ip, r1, lsl #2
     70c:	00020000 	andeq	r0, r2, r0
     710:	000000d0 	ldrdeq	r0, [r0], -r0	; <UNPREDICTABLE>
     714:	0efb0102 	cdpeq	1, 15, cr0, cr11, cr2, {0}
     718:	0101000d 	tsteq	r1, sp
     71c:	00000101 	andeq	r0, r0, r1, lsl #2
     720:	00000100 	andeq	r0, r0, r0, lsl #2
     724:	62696c01 	rsbvs	r6, r9, #256	; 0x100
     728:	752f0063 	strvc	r0, [pc, #-99]!	; 6cd <_start-0x7933>
     72c:	6c2f7273 	sfmvs	f7, 4, [pc], #-460	; 568 <_start-0x7a98>
     730:	6c61636f 	stclvs	3, cr6, [r1], #-444	; 0xfffffe44
     734:	6c65432f 	stclvs	3, cr4, [r5], #-188	; 0xffffff44
     738:	2f72616c 	svccs	0x0072616c
     73c:	2d6d7261 	sfmcs	f7, 2, [sp, #-388]!	; 0xfffffe7c
     740:	656e6f6e 	strbvs	r6, [lr, #-3950]!	; 0xf6e
     744:	6261652d 	rsbvs	r6, r1, #188743680	; 0xb400000
     748:	2e342f69 	cdpcs	15, 3, cr2, cr4, cr9, {3}
     74c:	2d332e38 	ldccs	14, cr2, [r3, #-224]!	; 0xffffff20
     750:	37317363 	ldrcc	r7, [r1, -r3, ror #6]!
     754:	6c2f6530 	cfstr32vs	mvfx6, [pc], #-192	; 69c <_start-0x7964>
     758:	672f6269 	strvs	r6, [pc, -r9, ror #4]!
     75c:	612f6363 	teqvs	pc, r3, ror #6
     760:	6e2d6d72 	mcrvs	13, 1, r6, cr13, cr2, {3}
     764:	2d656e6f 	stclcs	14, cr6, [r5, #-444]!	; 0xfffffe44
     768:	69626165 	stmdbvs	r2!, {r0, r2, r5, r6, r8, sp, lr}^
     76c:	382e342f 	stmdacc	lr!, {r0, r1, r2, r3, r5, sl, ip, sp}
     770:	692f332e 	stmdbvs	pc!, {r1, r2, r3, r5, r8, r9, ip, sp}	; <UNPREDICTABLE>
     774:	756c636e 	strbvc	r6, [ip, #-878]!	; 0x36e
     778:	2f006564 	svccs	0x00006564
     77c:	2f727375 	svccs	0x00727375
     780:	61636f6c 	cmnvs	r3, ip, ror #30
     784:	65432f6c 	strbvs	r2, [r3, #-3948]	; 0xf6c
     788:	72616c6c 	rsbvc	r6, r1, #108, 24	; 0x6c00
     78c:	6d72612f 	ldfvse	f6, [r2, #-188]!	; 0xffffff44
     790:	6e6f6e2d 	cdpvs	14, 6, cr6, cr15, cr13, {1}
     794:	61652d65 	cmnvs	r5, r5, ror #26
     798:	342f6962 	strtcc	r6, [pc], #-2402	; 7a0 <_start-0x7860>
     79c:	332e382e 	teqcc	lr, #3014656	; 0x2e0000
     7a0:	3173632d 	cmncc	r3, sp, lsr #6
     7a4:	2f653037 	svccs	0x00653037
     7a8:	2d6d7261 	sfmcs	f7, 2, [sp, #-388]!	; 0xfffffe7c
     7ac:	656e6f6e 	strbvs	r6, [lr, #-3950]!	; 0xf6e
     7b0:	6261652d 	rsbvs	r6, r1, #188743680	; 0xb400000
     7b4:	6e692f69 	cdpvs	15, 6, cr2, cr9, cr9, {3}
     7b8:	64756c63 	ldrbtvs	r6, [r5], #-3171	; 0xc63
     7bc:	6d000065 	stcvs	0, cr0, [r0, #-404]	; 0xfffffe6c
     7c0:	65736d65 	ldrbvs	r6, [r3, #-3429]!	; 0xd65
     7c4:	00632e74 	rsbeq	r2, r3, r4, ror lr
     7c8:	73000001 	movwvc	r0, #1
     7cc:	65646474 	strbvs	r6, [r4, #-1140]!	; 0x474
     7d0:	00682e66 	rsbeq	r2, r8, r6, ror #28
     7d4:	73000002 	movwvc	r0, #2
     7d8:	6e697274 	mcrvs	2, 3, r7, cr9, cr4, {3}
     7dc:	00682e67 	rsbeq	r2, r8, r7, ror #28
     7e0:	00000003 	andeq	r0, r0, r3
     7e4:	24020500 	strcs	r0, [r2], #-1280	; 0x500
     7e8:	1400008e 	strne	r0, [r0], #-142	; 0x8e
     7ec:	002f4c13 	eoreq	r4, pc, r3, lsl ip	; <UNPREDICTABLE>
     7f0:	49010402 	stmdbmi	r1, {r1, sl}
     7f4:	0002024d 	andeq	r0, r2, sp, asr #4
     7f8:	010c0101 	tsteq	ip, r1, lsl #2
     7fc:	00020000 	andeq	r0, r2, r0
     800:	000000f5 	strdeq	r0, [r0], -r5
     804:	0efb0102 	cdpeq	1, 15, cr0, cr11, cr2, {0}
     808:	0101000d 	tsteq	r1, sp
     80c:	00000101 	andeq	r0, r0, r1, lsl #2
     810:	00000100 	andeq	r0, r0, r0, lsl #2
     814:	62696c01 	rsbvs	r6, r9, #256	; 0x100
     818:	752f0063 	strvc	r0, [pc, #-99]!	; 7bd <_start-0x7843>
     81c:	6c2f7273 	sfmvs	f7, 4, [pc], #-460	; 658 <_start-0x79a8>
     820:	6c61636f 	stclvs	3, cr6, [r1], #-444	; 0xfffffe44
     824:	6c65432f 	stclvs	3, cr4, [r5], #-188	; 0xffffff44
     828:	2f72616c 	svccs	0x0072616c
     82c:	2d6d7261 	sfmcs	f7, 2, [sp, #-388]!	; 0xfffffe7c
     830:	656e6f6e 	strbvs	r6, [lr, #-3950]!	; 0xf6e
     834:	6261652d 	rsbvs	r6, r1, #188743680	; 0xb400000
     838:	2e342f69 	cdpcs	15, 3, cr2, cr4, cr9, {3}
     83c:	2d332e38 	ldccs	14, cr2, [r3, #-224]!	; 0xffffff20
     840:	37317363 	ldrcc	r7, [r1, -r3, ror #6]!
     844:	6c2f6530 	cfstr32vs	mvfx6, [pc], #-192	; 78c <_start-0x7874>
     848:	672f6269 	strvs	r6, [pc, -r9, ror #4]!
     84c:	612f6363 	teqvs	pc, r3, ror #6
     850:	6e2d6d72 	mcrvs	13, 1, r6, cr13, cr2, {3}
     854:	2d656e6f 	stclcs	14, cr6, [r5, #-444]!	; 0xfffffe44
     858:	69626165 	stmdbvs	r2!, {r0, r2, r5, r6, r8, sp, lr}^
     85c:	382e342f 	stmdacc	lr!, {r0, r1, r2, r3, r5, sl, ip, sp}
     860:	692f332e 	stmdbvs	pc!, {r1, r2, r3, r5, r8, r9, ip, sp}	; <UNPREDICTABLE>
     864:	756c636e 	strbvc	r6, [ip, #-878]!	; 0x36e
     868:	2f006564 	svccs	0x00006564
     86c:	72657355 	rsbvc	r7, r5, #1409286145	; 0x54000001
     870:	72622f73 	rsbvc	r2, r2, #460	; 0x1cc
     874:	6a6e6169 	bvs	1b98e20 <__bss_end__+0x1b8e660>
     878:	442f6e75 	strtmi	r6, [pc], #-3701	; 880 <_start-0x7780>
     87c:	746b7365 	strbtvc	r7, [fp], #-869	; 0x365
     880:	732f706f 	teqvc	pc, #111	; 0x6f
     884:	6f6f6863 	svcvs	0x006f6863
     888:	70532f6c 	subsvc	r2, r3, ip, ror #30
     88c:	676e6972 			; <UNDEFINED> instruction: 0x676e6972
     890:	30323931 	eorscc	r3, r2, r1, lsr r9
     894:	3253432f 	subscc	r4, r3, #-1140850688	; 0xbc000000
     898:	584c3034 	stmdapl	ip, {r2, r4, r5, ip, sp}^
     89c:	3273632f 	rsbscc	r6, r3, #-1140850688	; 0xbc000000
     8a0:	786c3034 	stmdavc	ip!, {r2, r4, r5, ip, sp}^
     8a4:	7330322d 	teqvc	r0, #-805306366	; 0xd0000002
     8a8:	6c2f7270 	sfmvs	f7, 4, [pc], #-448	; 6f0 <_start-0x7910>
     8ac:	69706269 	ldmdbvs	r0!, {r0, r3, r5, r6, r9, sp, lr}^
     8b0:	636e692f 	cmnvs	lr, #770048	; 0xbc000
     8b4:	6564756c 	strbvs	r7, [r4, #-1388]!	; 0x56c
     8b8:	72700000 	rsbsvc	r0, r0, #0
     8bc:	6b746e69 	blvs	1d1c268 <__bss_end__+0x1d11aa8>
     8c0:	0100632e 	tsteq	r0, lr, lsr #6
     8c4:	74730000 	ldrbtvc	r0, [r3], #-0
     8c8:	67726164 	ldrbvs	r6, [r2, -r4, ror #2]!
     8cc:	0200682e 	andeq	r6, r0, #3014656	; 0x2e0000
     8d0:	623c0000 	eorsvs	r0, ip, #0
     8d4:	746c6975 	strbtvc	r6, [ip], #-2421	; 0x975
     8d8:	3e6e692d 	cdpcc	9, 6, cr6, cr14, cr13, {1}
     8dc:	00000000 	andeq	r0, r0, r0
     8e0:	2e697072 	mcrcs	0, 3, r7, cr9, cr2, {3}
     8e4:	00030068 	andeq	r0, r3, r8, rrx
     8e8:	2d617600 	stclcs	6, cr7, [r1, #-0]
     8ec:	6e697270 	mcrvs	2, 3, r7, cr9, cr0, {3}
     8f0:	682e6b74 	stmdavs	lr!, {r2, r4, r5, r6, r8, r9, fp, sp, lr}
     8f4:	00000100 	andeq	r0, r0, r0, lsl #2
     8f8:	02050000 	andeq	r0, r5, #0
     8fc:	00008e44 	andeq	r8, r0, r4, asr #28
     900:	bf4b6b17 	svclt	0x004b6b17
     904:	000e0289 	andeq	r0, lr, r9, lsl #5
     908:	00940101 	addseq	r0, r4, r1, lsl #2
     90c:	00020000 	andeq	r0, r2, r0
     910:	0000007c 	andeq	r0, r0, ip, ror r0
     914:	0efb0102 	cdpeq	1, 15, cr0, cr11, cr2, {0}
     918:	0101000d 	tsteq	r1, sp
     91c:	00000101 	andeq	r0, r0, r1, lsl #2
     920:	00000100 	andeq	r0, r0, r0, lsl #2
     924:	62696c01 	rsbvs	r6, r9, #256	; 0x100
     928:	552f0063 	strpl	r0, [pc, #-99]!	; 8cd <_start-0x7733>
     92c:	73726573 	cmnvc	r2, #482344960	; 0x1cc00000
     930:	6972622f 	ldmdbvs	r2!, {r0, r1, r2, r3, r5, r9, sp, lr}^
     934:	756a6e61 	strbvc	r6, [sl, #-3681]!	; 0xe61
     938:	65442f6e 	strbvs	r2, [r4, #-3950]	; 0xf6e
     93c:	6f746b73 	svcvs	0x00746b73
     940:	63732f70 	cmnvs	r3, #112, 30	; 0x1c0
     944:	6c6f6f68 	stclvs	15, cr6, [pc], #-416	; 7ac <_start-0x7854>
     948:	7270532f 	rsbsvc	r5, r0, #-1140850688	; 0xbc000000
     94c:	31676e69 	cmncc	r7, r9, ror #28
     950:	2f303239 	svccs	0x00303239
     954:	34325343 	ldrtcc	r5, [r2], #-835	; 0x343
     958:	2f584c30 	svccs	0x00584c30
     95c:	34327363 	ldrtcc	r7, [r2], #-867	; 0x363
     960:	2d786c30 	ldclcs	12, cr6, [r8, #-192]!	; 0xffffff40
     964:	70733032 	rsbsvc	r3, r3, r2, lsr r0
     968:	696c2f72 	stmdbvs	ip!, {r1, r4, r5, r6, r8, r9, sl, fp, sp}^
     96c:	2f697062 	svccs	0x00697062
     970:	6c636e69 	stclvs	14, cr6, [r3], #-420	; 0xfffffe5c
     974:	00656475 	rsbeq	r6, r5, r5, ror r4
     978:	74757000 	ldrbtvc	r7, [r5], #-0
     97c:	72616863 	rsbvc	r6, r1, #6488064	; 0x630000
     980:	0100632e 	tsteq	r0, lr, lsr #6
     984:	70720000 	rsbsvc	r0, r2, r0
     988:	00682e69 	rsbeq	r2, r8, r9, ror #28
     98c:	00000002 	andeq	r0, r0, r2
     990:	9c020500 	cfstr32ls	mvfx0, [r2], {-0}
     994:	1400008e 	strne	r0, [r0], #-142	; 0x8e
     998:	bc136b4a 	ldclt	11, cr6, [r3], {74}	; 0x4a
     99c:	00080213 	andeq	r0, r8, r3, lsl r2
     9a0:	00a00101 	adceq	r0, r0, r1, lsl #2
     9a4:	00020000 	andeq	r0, r2, r0
     9a8:	00000079 	andeq	r0, r0, r9, ror r0
     9ac:	0efb0102 	cdpeq	1, 15, cr0, cr11, cr2, {0}
     9b0:	0101000d 	tsteq	r1, sp
     9b4:	00000101 	andeq	r0, r0, r1, lsl #2
     9b8:	00000100 	andeq	r0, r0, r0, lsl #2
     9bc:	62696c01 	rsbvs	r6, r9, #256	; 0x100
     9c0:	552f0063 	strpl	r0, [pc, #-99]!	; 965 <_start-0x769b>
     9c4:	73726573 	cmnvc	r2, #482344960	; 0x1cc00000
     9c8:	6972622f 	ldmdbvs	r2!, {r0, r1, r2, r3, r5, r9, sp, lr}^
     9cc:	756a6e61 	strbvc	r6, [sl, #-3681]!	; 0xe61
     9d0:	65442f6e 	strbvs	r2, [r4, #-3950]	; 0xf6e
     9d4:	6f746b73 	svcvs	0x00746b73
     9d8:	63732f70 	cmnvs	r3, #112, 30	; 0x1c0
     9dc:	6c6f6f68 	stclvs	15, cr6, [pc], #-416	; 844 <_start-0x77bc>
     9e0:	7270532f 	rsbsvc	r5, r0, #-1140850688	; 0xbc000000
     9e4:	31676e69 	cmncc	r7, r9, ror #28
     9e8:	2f303239 	svccs	0x00303239
     9ec:	34325343 	ldrtcc	r5, [r2], #-835	; 0x343
     9f0:	2f584c30 	svccs	0x00584c30
     9f4:	34327363 	ldrtcc	r7, [r2], #-867	; 0x363
     9f8:	2d786c30 	ldclcs	12, cr6, [r8, #-192]!	; 0xffffff40
     9fc:	70733032 	rsbsvc	r3, r3, r2, lsr r0
     a00:	696c2f72 	stmdbvs	ip!, {r1, r4, r5, r6, r8, r9, sl, fp, sp}^
     a04:	2f697062 	svccs	0x00697062
     a08:	6c636e69 	stclvs	14, cr6, [r3], #-420	; 0xfffffe5c
     a0c:	00656475 	rsbeq	r6, r5, r5, ror r4
     a10:	74757000 	ldrbtvc	r7, [r5], #-0
     a14:	00632e6b 	rsbeq	r2, r3, fp, ror #28
     a18:	72000001 	andvc	r0, r0, #1
     a1c:	682e6970 	stmdavs	lr!, {r4, r5, r6, r8, fp, sp, lr}
     a20:	00000200 	andeq	r0, r0, r0, lsl #4
     a24:	02050000 	andeq	r0, r5, #0
     a28:	00008ed8 	ldrdeq	r8, [r0], -r8	; <UNPREDICTABLE>
     a2c:	002d4c15 	eoreq	r4, sp, r5, lsl ip
     a30:	2f020402 	svccs	0x00020402
     a34:	02040200 	andeq	r0, r4, #0, 4
     a38:	04020049 	streq	r0, [r2], #-73	; 0x49
     a3c:	062e0601 	strteq	r0, [lr], -r1, lsl #12
     a40:	0006026b 	andeq	r0, r6, fp, ror #4
     a44:	01eb0101 	mvneq	r0, r1, lsl #2
     a48:	00020000 	andeq	r0, r2, r0
     a4c:	000000e9 	andeq	r0, r0, r9, ror #1
     a50:	0efb0102 	cdpeq	1, 15, cr0, cr11, cr2, {0}
     a54:	0101000d 	tsteq	r1, sp
     a58:	00000101 	andeq	r0, r0, r1, lsl #2
     a5c:	00000100 	andeq	r0, r0, r0, lsl #2
     a60:	62696c01 	rsbvs	r6, r9, #256	; 0x100
     a64:	752f0063 	strvc	r0, [pc, #-99]!	; a09 <_start-0x75f7>
     a68:	6c2f7273 	sfmvs	f7, 4, [pc], #-460	; 8a4 <_start-0x775c>
     a6c:	6c61636f 	stclvs	3, cr6, [r1], #-444	; 0xfffffe44
     a70:	6c65432f 	stclvs	3, cr4, [r5], #-188	; 0xffffff44
     a74:	2f72616c 	svccs	0x0072616c
     a78:	2d6d7261 	sfmcs	f7, 2, [sp, #-388]!	; 0xfffffe7c
     a7c:	656e6f6e 	strbvs	r6, [lr, #-3950]!	; 0xf6e
     a80:	6261652d 	rsbvs	r6, r1, #188743680	; 0xb400000
     a84:	2e342f69 	cdpcs	15, 3, cr2, cr4, cr9, {3}
     a88:	2d332e38 	ldccs	14, cr2, [r3, #-224]!	; 0xffffff20
     a8c:	37317363 	ldrcc	r7, [r1, -r3, ror #6]!
     a90:	6c2f6530 	cfstr32vs	mvfx6, [pc], #-192	; 9d8 <_start-0x7628>
     a94:	672f6269 	strvs	r6, [pc, -r9, ror #4]!
     a98:	612f6363 	teqvs	pc, r3, ror #6
     a9c:	6e2d6d72 	mcrvs	13, 1, r6, cr13, cr2, {3}
     aa0:	2d656e6f 	stclcs	14, cr6, [r5, #-444]!	; 0xfffffe44
     aa4:	69626165 	stmdbvs	r2!, {r0, r2, r5, r6, r8, sp, lr}^
     aa8:	382e342f 	stmdacc	lr!, {r0, r1, r2, r3, r5, sl, ip, sp}
     aac:	692f332e 	stmdbvs	pc!, {r1, r2, r3, r5, r8, r9, ip, sp}	; <UNPREDICTABLE>
     ab0:	756c636e 	strbvc	r6, [ip, #-878]!	; 0x36e
     ab4:	2f006564 	svccs	0x00006564
     ab8:	72657355 	rsbvc	r7, r5, #1409286145	; 0x54000001
     abc:	72622f73 	rsbvc	r2, r2, #460	; 0x1cc
     ac0:	6a6e6169 	bvs	1b9906c <__bss_end__+0x1b8e8ac>
     ac4:	442f6e75 	strtmi	r6, [pc], #-3701	; acc <_start-0x7534>
     ac8:	746b7365 	strbtvc	r7, [fp], #-869	; 0x365
     acc:	732f706f 	teqvc	pc, #111	; 0x6f
     ad0:	6f6f6863 	svcvs	0x006f6863
     ad4:	70532f6c 	subsvc	r2, r3, ip, ror #30
     ad8:	676e6972 			; <UNDEFINED> instruction: 0x676e6972
     adc:	30323931 	eorscc	r3, r2, r1, lsr r9
     ae0:	3253432f 	subscc	r4, r3, #-1140850688	; 0xbc000000
     ae4:	584c3034 	stmdapl	ip, {r2, r4, r5, ip, sp}^
     ae8:	3273632f 	rsbscc	r6, r3, #-1140850688	; 0xbc000000
     aec:	786c3034 	stmdavc	ip!, {r2, r4, r5, ip, sp}^
     af0:	7330322d 	teqvc	r0, #-805306366	; 0xd0000002
     af4:	6c2f7270 	sfmvs	f7, 4, [pc], #-448	; 93c <_start-0x76c4>
     af8:	69706269 	ldmdbvs	r0!, {r0, r3, r5, r6, r9, sp, lr}^
     afc:	636e692f 	cmnvs	lr, #770048	; 0xbc000
     b00:	6564756c 	strbvs	r7, [r4, #-1388]!	; 0x56c
     b04:	61760000 	cmnvs	r6, r0
     b08:	6972702d 	ldmdbvs	r2!, {r0, r2, r3, r5, ip, sp, lr}^
     b0c:	2e6b746e 	cdpcs	4, 6, cr7, cr11, cr14, {3}
     b10:	00010063 	andeq	r0, r1, r3, rrx
     b14:	64747300 	ldrbtvs	r7, [r4], #-768	; 0x300
     b18:	2e677261 	cdpcs	2, 6, cr7, cr7, cr1, {3}
     b1c:	00020068 	andeq	r0, r2, r8, rrx
     b20:	69707200 	ldmdbvs	r0!, {r9, ip, sp, lr}^
     b24:	0300682e 	movweq	r6, #2094	; 0x82e
     b28:	623c0000 	eorsvs	r0, ip, #0
     b2c:	746c6975 	strbtvc	r6, [ip], #-2421	; 0x975
     b30:	3e6e692d 	cdpcc	9, 6, cr6, cr14, cr13, {1}
     b34:	00000000 	andeq	r0, r0, r0
     b38:	02050000 	andeq	r0, r5, #0
     b3c:	00008f0c 	andeq	r8, r0, ip, lsl #30
     b40:	01012603 	tsteq	r1, r3, lsl #12
     b44:	2d3113a5 	ldccs	3, cr1, [r1, #-660]!	; 0xfffffd6c
     b48:	02040200 	andeq	r0, r4, #0, 4
     b4c:	0402002f 	streq	r0, [r2], #-47	; 0x2f
     b50:	02002d02 	andeq	r2, r0, #2, 26	; 0x80
     b54:	002f0204 	eoreq	r0, pc, r4, lsl #4
     b58:	2d010402 	cfstrscs	mvf0, [r1, #-8]
     b5c:	14304c4c 	ldrtne	r4, [r0], #-3148	; 0xc4c
     b60:	004f2f4b 	subeq	r2, pc, fp, asr #30
     b64:	67020402 	strvs	r0, [r2, -r2, lsl #8]
     b68:	01040200 	mrseq	r0, R12_usr
     b6c:	304d4c65 	subcc	r4, sp, r5, ror #24
     b70:	30312fa0 	eorscc	r2, r1, r0, lsr #31
     b74:	84162602 	ldrhi	r2, [r6], #-1538	; 0x602
     b78:	02002c2d 	andeq	r2, r0, #11520	; 0x2d00
     b7c:	00300104 	eorseq	r0, r0, r4, lsl #2
     b80:	33010402 	movwcc	r0, #5122	; 0x1402
     b84:	02006606 	andeq	r6, r0, #6291456	; 0x600000
     b88:	002e0104 	eoreq	r0, lr, r4, lsl #2
     b8c:	06010402 	streq	r0, [r1], -r2, lsl #8
     b90:	2f672108 	svccs	0x00672108
     b94:	03827303 	orreq	r7, r2, #201326592	; 0xc000000
     b98:	02002e13 	andeq	r2, r0, #304	; 0x130
     b9c:	66060104 	strvs	r0, [r6], -r4, lsl #2
     ba0:	01040200 	mrseq	r0, R12_usr
     ba4:	4b4b8306 	blmi	12e17c4 <__bss_end__+0x12d7004>
     ba8:	034b3167 	movteq	r3, #45415	; 0xb167
     bac:	23032e65 	movwcs	r2, #15973	; 0x3e65
     bb0:	0402002e 	streq	r0, [r2], #-46	; 0x2e
     bb4:	002e0601 	eoreq	r0, lr, r1, lsl #12
     bb8:	06010402 	streq	r0, [r1], -r2, lsl #8
     bbc:	0402009f 	streq	r0, [r2], #-159	; 0x9f
     bc0:	d7d96a01 	ldrble	r6, [r9, r1, lsl #20]
     bc4:	087fa403 	ldmdaeq	pc!, {r0, r1, sl, sp, pc}^	; <UNPREDICTABLE>
     bc8:	02002f20 	andeq	r2, r0, #32, 30	; 0x80
     bcc:	4a060104 	bmi	180fe4 <__bss_end__+0x176824>
     bd0:	2f4bd706 	svccs	0x004bd706
     bd4:	f200dc03 			; <UNDEFINED> instruction: 0xf200dc03
     bd8:	03484c83 	movteq	r4, #35971	; 0x8c83
     bdc:	75032e0e 	strvc	r2, [r3, #-3598]	; 0xe0e
     be0:	842f2f2e 	strthi	r2, [pc], #-3886	; be8 <_start-0x7418>
     be4:	4d2d2f4b 	stcmi	15, cr2, [sp, #-300]!	; 0xfffffed4
     be8:	832f3031 	teqhi	pc, #49	; 0x31
     bec:	01040200 	mrseq	r0, R12_usr
     bf0:	0200a22c 	andeq	sl, r0, #44, 4	; 0xc0000002
     bf4:	4a060104 	bmi	18100c <__bss_end__+0x17684c>
     bf8:	3602d806 	strcc	sp, [r2], -r6, lsl #16
     bfc:	d60e0316 			; <UNDEFINED> instruction: 0xd60e0316
     c00:	f3302108 	vrhadd.u<illegal width 64>	d2, d0, d8
     c04:	f330f331 	vcge.u<illegal width 64>	d15, d0, d17
     c08:	f3304b30 			; <UNDEFINED> instruction: 0xf3304b30
     c0c:	31230830 	teqcc	r3, r0, lsr r8
     c10:	0402002f 	streq	r0, [r2], #-47	; 0x2f
     c14:	02006501 	andeq	r6, r0, #4194304	; 0x400000
     c18:	4a060204 	bmi	181430 <__bss_end__+0x176c70>
     c1c:	01040200 	mrseq	r0, R12_usr
     c20:	66420306 	strbvs	r0, [r2], -r6, lsl #6
     c24:	02040200 	andeq	r0, r4, #0, 4
     c28:	03066606 	movweq	r6, #26118	; 0x6606
     c2c:	684a00c2 	stmdavs	sl, {r1, r6, r7}^
     c30:	01001002 	tsteq	r0, r2
     c34:	00009c01 	andeq	r9, r0, r1, lsl #24
     c38:	86000200 	strhi	r0, [r0], -r0, lsl #4
     c3c:	02000000 	andeq	r0, r0, #0
     c40:	0d0efb01 	vstreq	d15, [lr, #-4]
     c44:	01010100 	mrseq	r0, (UNDEF: 17)
     c48:	00000001 	andeq	r0, r0, r1
     c4c:	01000001 	tsteq	r0, r1
     c50:	66617473 			; <UNDEFINED> instruction: 0x66617473
     c54:	72732d66 	rsbsvc	r2, r3, #6528	; 0x1980
     c58:	552f0063 	strpl	r0, [pc, #-99]!	; bfd <_start-0x7403>
     c5c:	73726573 	cmnvc	r2, #482344960	; 0x1cc00000
     c60:	6972622f 	ldmdbvs	r2!, {r0, r1, r2, r3, r5, r9, sp, lr}^
     c64:	756a6e61 	strbvc	r6, [sl, #-3681]!	; 0xe61
     c68:	65442f6e 	strbvs	r2, [r4, #-3950]	; 0xf6e
     c6c:	6f746b73 	svcvs	0x00746b73
     c70:	63732f70 	cmnvs	r3, #112, 30	; 0x1c0
     c74:	6c6f6f68 	stclvs	15, cr6, [pc], #-416	; adc <_start-0x7524>
     c78:	7270532f 	rsbsvc	r5, r0, #-1140850688	; 0xbc000000
     c7c:	31676e69 	cmncc	r7, r9, ror #28
     c80:	2f303239 	svccs	0x00303239
     c84:	34325343 	ldrtcc	r5, [r2], #-835	; 0x343
     c88:	2f584c30 	svccs	0x00584c30
     c8c:	34327363 	ldrtcc	r7, [r2], #-867	; 0x363
     c90:	2d786c30 	ldclcs	12, cr6, [r8, #-192]!	; 0xffffff40
     c94:	70733032 	rsbsvc	r3, r3, r2, lsr r0
     c98:	696c2f72 	stmdbvs	ip!, {r1, r4, r5, r6, r8, r9, sl, fp, sp}^
     c9c:	2f697062 	svccs	0x00697062
     ca0:	6c636e69 	stclvs	14, cr6, [r3], #-420	; 0xfffffe5c
     ca4:	00656475 	rsbeq	r6, r5, r5, ror r4
     ca8:	656c6300 	strbvs	r6, [ip, #-768]!	; 0x300
     cac:	722d6e61 	eorvc	r6, sp, #1552	; 0x610
     cb0:	6f6f6265 	svcvs	0x006f6265
     cb4:	00632e74 	rsbeq	r2, r3, r4, ror lr
     cb8:	72000001 	andvc	r0, r0, #1
     cbc:	682e6970 	stmdavs	lr!, {r4, r5, r6, r8, fp, sp, lr}
     cc0:	00000200 	andeq	r0, r0, r0, lsl #4
     cc4:	02050000 	andeq	r0, r5, #0
     cc8:	00009418 	andeq	r9, r0, r8, lsl r4
     ccc:	4b832f15 	blmi	fe0cc928 <__bss_end__+0xfe0c2168>
     cd0:	01000602 	tsteq	r0, r2, lsl #12
     cd4:	0000a301 	andeq	sl, r0, r1, lsl #6
     cd8:	80000200 	andhi	r0, r0, r0, lsl #4
     cdc:	02000000 	andeq	r0, r0, #0
     ce0:	0d0efb01 	vstreq	d15, [lr, #-4]
     ce4:	01010100 	mrseq	r0, (UNDEF: 17)
     ce8:	00000001 	andeq	r0, r0, r1
     cec:	01000001 	tsteq	r0, r1
     cf0:	66617473 			; <UNDEFINED> instruction: 0x66617473
     cf4:	72732d66 	rsbsvc	r2, r3, #6528	; 0x1980
     cf8:	552f0063 	strpl	r0, [pc, #-99]!	; c9d <_start-0x7363>
     cfc:	73726573 	cmnvc	r2, #482344960	; 0x1cc00000
     d00:	6972622f 	ldmdbvs	r2!, {r0, r1, r2, r3, r5, r9, sp, lr}^
     d04:	756a6e61 	strbvc	r6, [sl, #-3681]!	; 0xe61
     d08:	65442f6e 	strbvs	r2, [r4, #-3950]	; 0xf6e
     d0c:	6f746b73 	svcvs	0x00746b73
     d10:	63732f70 	cmnvs	r3, #112, 30	; 0x1c0
     d14:	6c6f6f68 	stclvs	15, cr6, [pc], #-416	; b7c <_start-0x7484>
     d18:	7270532f 	rsbsvc	r5, r0, #-1140850688	; 0xbc000000
     d1c:	31676e69 	cmncc	r7, r9, ror #28
     d20:	2f303239 	svccs	0x00303239
     d24:	34325343 	ldrtcc	r5, [r2], #-835	; 0x343
     d28:	2f584c30 	svccs	0x00584c30
     d2c:	34327363 	ldrtcc	r7, [r2], #-867	; 0x363
     d30:	2d786c30 	ldclcs	12, cr6, [r8, #-192]!	; 0xffffff40
     d34:	70733032 	rsbsvc	r3, r3, r2, lsr r0
     d38:	696c2f72 	stmdbvs	ip!, {r1, r4, r5, r6, r8, r9, sl, fp, sp}^
     d3c:	2f697062 	svccs	0x00697062
     d40:	6c636e69 	stclvs	14, cr6, [r3], #-420	; 0xfffffe5c
     d44:	00656475 	rsbeq	r6, r5, r5, ror r4
     d48:	74736300 	ldrbtvc	r6, [r3], #-768	; 0x300
     d4c:	2e747261 	cdpcs	2, 7, cr7, cr4, cr1, {3}
     d50:	00010063 	andeq	r0, r1, r3, rrx
     d54:	69707200 	ldmdbvs	r0!, {r9, ip, sp, lr}^
     d58:	0200682e 	andeq	r6, r0, #3014656	; 0x2e0000
     d5c:	00000000 	andeq	r0, r0, r0
     d60:	94400205 	strbls	r0, [r0], #-517	; 0x205
     d64:	0c030000 	stceq	0, cr0, [r3], {-0}
     d68:	2f313201 	svccs	0x00313201
     d6c:	02002f2d 	andeq	r2, r0, #45, 30	; 0xb4
     d70:	03490104 	movteq	r0, #37124	; 0x9104
     d74:	022f4a15 	eoreq	r4, pc, #86016	; 0x15000
     d78:	01010006 	tsteq	r1, r6
     d7c:	000000a2 	andeq	r0, r0, r2, lsr #1
     d80:	00800002 	addeq	r0, r0, r2
     d84:	01020000 	mrseq	r0, (UNDEF: 2)
     d88:	000d0efb 	strdeq	r0, [sp], -fp
     d8c:	01010101 	tsteq	r1, r1, lsl #2
     d90:	01000000 	mrseq	r0, (UNDEF: 0)
     d94:	73010000 	movwvc	r0, #4096	; 0x1000
     d98:	66666174 			; <UNDEFINED> instruction: 0x66666174
     d9c:	6372732d 	cmnvs	r2, #-1275068416	; 0xb4000000
     da0:	73552f00 	cmpvc	r5, #0, 30
     da4:	2f737265 	svccs	0x00737265
     da8:	61697262 	cmnvs	r9, r2, ror #4
     dac:	6e756a6e 	vsubvs.f32	s13, s10, s29
     db0:	7365442f 	cmnvc	r5, #788529152	; 0x2f000000
     db4:	706f746b 	rsbvc	r7, pc, fp, ror #8
     db8:	6863732f 	stmdavs	r3!, {r0, r1, r2, r3, r5, r8, r9, ip, sp, lr}^
     dbc:	2f6c6f6f 	svccs	0x006c6f6f
     dc0:	69727053 	ldmdbvs	r2!, {r0, r1, r4, r6, ip, sp, lr}^
     dc4:	3931676e 	ldmdbcc	r1!, {r1, r2, r3, r5, r6, r8, r9, sl, sp, lr}
     dc8:	432f3032 	teqmi	pc, #50	; 0x32
     dcc:	30343253 	eorscc	r3, r4, r3, asr r2
     dd0:	632f584c 	teqvs	pc, #76, 16	; 0x4c0000
     dd4:	30343273 	eorscc	r3, r4, r3, ror r2
     dd8:	322d786c 	eorcc	r7, sp, #108, 16	; 0x6c0000
     ddc:	72707330 	rsbsvc	r7, r0, #48, 6	; 0xc0000000
     de0:	62696c2f 	rsbvs	r6, r9, #12032	; 0x2f00
     de4:	692f6970 	stmdbvs	pc!, {r4, r5, r6, r8, fp, sp, lr}	; <UNPREDICTABLE>
     de8:	756c636e 	strbvc	r6, [ip, #-878]!	; 0x36e
     dec:	00006564 	andeq	r6, r0, r4, ror #10
     df0:	6f626572 	svcvs	0x00626572
     df4:	632e746f 	teqvs	lr, #1862270976	; 0x6f000000
     df8:	00000100 	andeq	r0, r0, r0, lsl #2
     dfc:	2e697072 	mcrcs	0, 3, r7, cr9, cr2, {3}
     e00:	00020068 	andeq	r0, r2, r8, rrx
     e04:	05000000 	streq	r0, [r0, #-0]
     e08:	00947402 	addseq	r7, r4, r2, lsl #8
     e0c:	010d0300 	mrseq	r0, SP_mon
     e10:	852f3114 	strhi	r3, [pc, #-276]!	; d04 <_start-0x72fc>
     e14:	4d4b2f15 	stclmi	15, cr2, [fp, #-84]	; 0xffffffac
     e18:	5235672f 	eorspl	r6, r5, #12320768	; 0xbc0000
     e1c:	00100267 	andseq	r0, r0, r7, ror #4
     e20:	00ac0101 	adceq	r0, ip, r1, lsl #2
     e24:	00020000 	andeq	r0, r2, r0
     e28:	0000007f 	andeq	r0, r0, pc, ror r0
     e2c:	0efb0102 	cdpeq	1, 15, cr0, cr11, cr2, {0}
     e30:	0101000d 	tsteq	r1, sp
     e34:	00000101 	andeq	r0, r0, r1, lsl #2
     e38:	00000100 	andeq	r0, r0, r0, lsl #2
     e3c:	61747301 	cmnvs	r4, r1, lsl #6
     e40:	732d6666 	teqvc	sp, #106954752	; 0x6600000
     e44:	2f006372 	svccs	0x00006372
     e48:	72657355 	rsbvc	r7, r5, #1409286145	; 0x54000001
     e4c:	72622f73 	rsbvc	r2, r2, #460	; 0x1cc
     e50:	6a6e6169 	bvs	1b993fc <__bss_end__+0x1b8ec3c>
     e54:	442f6e75 	strtmi	r6, [pc], #-3701	; e5c <_start-0x71a4>
     e58:	746b7365 	strbtvc	r7, [fp], #-869	; 0x365
     e5c:	732f706f 	teqvc	pc, #111	; 0x6f
     e60:	6f6f6863 	svcvs	0x006f6863
     e64:	70532f6c 	subsvc	r2, r3, ip, ror #30
     e68:	676e6972 			; <UNDEFINED> instruction: 0x676e6972
     e6c:	30323931 	eorscc	r3, r2, r1, lsr r9
     e70:	3253432f 	subscc	r4, r3, #-1140850688	; 0xbc000000
     e74:	584c3034 	stmdapl	ip, {r2, r4, r5, ip, sp}^
     e78:	3273632f 	rsbscc	r6, r3, #-1140850688	; 0xbc000000
     e7c:	786c3034 	stmdavc	ip!, {r2, r4, r5, ip, sp}^
     e80:	7330322d 	teqvc	r0, #-805306366	; 0xd0000002
     e84:	6c2f7270 	sfmvs	f7, 4, [pc], #-448	; ccc <_start-0x7334>
     e88:	69706269 	ldmdbvs	r0!, {r0, r3, r5, r6, r9, sp, lr}^
     e8c:	636e692f 	cmnvs	lr, #770048	; 0xbc000
     e90:	6564756c 	strbvs	r7, [r4, #-1388]!	; 0x56c
     e94:	69740000 	ldmdbvs	r4!, {}^	; <UNPREDICTABLE>
     e98:	2e72656d 	cdpcs	5, 7, cr6, cr2, cr13, {3}
     e9c:	00010063 	andeq	r0, r1, r3, rrx
     ea0:	69707200 	ldmdbvs	r0!, {r9, ip, sp, lr}^
     ea4:	0200682e 	andeq	r6, r0, #3014656	; 0x2e0000
     ea8:	00000000 	andeq	r0, r0, r0
     eac:	94e80205 	strbtls	r0, [r8], #517	; 0x205
     eb0:	14160000 	ldrne	r0, [r6], #-0
     eb4:	02002d2f 	andeq	r2, r0, #3008	; 0xbc0
     eb8:	2e060104 	adfcss	f0, f6, f4
     ebc:	2f316d06 	svccs	0x00316d06
     ec0:	31324d4b 	teqcc	r2, fp, asr #26
     ec4:	2f4c4b30 	svccs	0x004c4b30
     ec8:	842f2f6a 	strthi	r2, [pc], #-3946	; ed0 <_start-0x7130>
     ecc:	0008022f 	andeq	r0, r8, pc, lsr #4
     ed0:	01480101 	cmpeq	r8, r1, lsl #2
     ed4:	00020000 	andeq	r0, r2, r0
     ed8:	00000102 	andeq	r0, r0, r2, lsl #2
     edc:	0efb0102 	cdpeq	1, 15, cr0, cr11, cr2, {0}
     ee0:	0101000d 	tsteq	r1, sp
     ee4:	00000101 	andeq	r0, r0, r1, lsl #2
     ee8:	00000100 	andeq	r0, r0, r0, lsl #2
     eec:	73752f01 	cmnvc	r5, #1, 30
     ef0:	6e692f72 	mcrvs	15, 3, r2, cr9, cr2, {3}
     ef4:	64756c63 	ldrbtvs	r6, [r5], #-3171	; 0xc63
     ef8:	656e2f65 	strbvs	r2, [lr, #-3941]!	; 0xf65
     efc:	62696c77 	rsbvs	r6, r9, #30464	; 0x7700
     f00:	7379732f 	cmnvc	r9, #-1140850688	; 0xbc000000
     f04:	73752f00 	cmnvc	r5, #0, 30
     f08:	696c2f72 	stmdbvs	ip!, {r1, r4, r5, r6, r8, r9, sl, fp, sp}^
     f0c:	63672f62 	cmnvs	r7, #392	; 0x188
     f10:	72612f63 	rsbvc	r2, r1, #396	; 0x18c
     f14:	6f6e2d6d 	svcvs	0x006e2d6d
     f18:	652d656e 	strvs	r6, [sp, #-1390]!	; 0x56e
     f1c:	2f696261 	svccs	0x00696261
     f20:	2e332e36 	mrccs	14, 1, r2, cr3, cr6, {1}
     f24:	6e692f31 	mcrvs	15, 3, r2, cr9, cr1, {1}
     f28:	64756c63 	ldrbtvs	r6, [r5], #-3171	; 0xc63
     f2c:	682f0065 	stmdavs	pc!, {r0, r2, r5, r6}	; <UNPREDICTABLE>
     f30:	2f656d6f 	svccs	0x00656d6f
     f34:	6c676e65 	stclvs	14, cr6, [r7], #-404	; 0xfffffe6c
     f38:	632f7265 	teqvs	pc, #1342177286	; 0x50000006
     f3c:	7373616c 	cmnvc	r3, #108, 2
     f40:	3273632f 	rsbscc	r6, r3, #-1140850688	; 0xbc000000
     f44:	786c3034 	stmdavc	ip!, {r2, r4, r5, ip, sp}^
     f48:	7330322d 	teqvc	r0, #-805306366	; 0xd0000002
     f4c:	2f2f7270 	svccs	0x002f7270
     f50:	7062696c 	rsbvc	r6, r2, ip, ror #18
     f54:	682f0069 	stmdavs	pc!, {r0, r3, r5, r6}	; <UNPREDICTABLE>
     f58:	2f656d6f 	svccs	0x00656d6f
     f5c:	6c676e65 	stclvs	14, cr6, [r7], #-404	; 0xfffffe6c
     f60:	632f7265 	teqvs	pc, #1342177286	; 0x50000006
     f64:	7373616c 	cmnvc	r3, #108, 2
     f68:	3273632f 	rsbscc	r6, r3, #-1140850688	; 0xbc000000
     f6c:	786c3034 	stmdavc	ip!, {r2, r4, r5, ip, sp}^
     f70:	7330322d 	teqvc	r0, #-805306366	; 0xd0000002
     f74:	2f2f7270 	svccs	0x002f7270
     f78:	7062696c 	rsbvc	r6, r2, ip, ror #18
     f7c:	74732f69 	ldrbtvc	r2, [r3], #-3945	; 0xf69
     f80:	2d666661 	stclcs	6, cr6, [r6, #-388]!	; 0xfffffe7c
     f84:	00637273 	rsbeq	r7, r3, r3, ror r2
     f88:	72617500 	rsbvc	r7, r1, #0, 10
     f8c:	00632e74 	rsbeq	r2, r3, r4, ror lr
     f90:	6c000000 	stcvs	0, cr0, [r0], {-0}
     f94:	2e6b636f 	cdpcs	3, 6, cr6, cr11, cr15, {3}
     f98:	00010068 	andeq	r0, r1, r8, rrx
     f9c:	79745f00 	ldmdbvc	r4!, {r8, r9, sl, fp, ip, lr}^
     fa0:	2e736570 	mrccs	5, 3, r6, cr3, cr0, {3}
     fa4:	00010068 	andeq	r0, r1, r8, rrx
     fa8:	64747300 	ldrbtvs	r7, [r4], #-768	; 0x300
     fac:	2e666564 	cdpcs	5, 6, cr6, cr6, cr4, {3}
     fb0:	00020068 	andeq	r0, r2, r8, rrx
     fb4:	65657200 	strbvs	r7, [r5, #-512]!	; 0x200
     fb8:	682e746e 	stmdavs	lr!, {r1, r2, r3, r5, r6, sl, ip, sp, lr}
     fbc:	00000100 	andeq	r0, r0, r0, lsl #2
     fc0:	2e697072 	mcrcs	0, 3, r7, cr9, cr2, {3}
     fc4:	00030068 	andeq	r0, r3, r8, rrx
     fc8:	72617500 	rsbvc	r7, r1, #0, 10
     fcc:	00682e74 	rsbeq	r2, r8, r4, ror lr
     fd0:	67000004 	strvs	r0, [r0, -r4]
     fd4:	2e6f6970 	mcrcs	9, 3, r6, cr15, cr0, {3}
     fd8:	00040068 	andeq	r0, r4, r8, rrx
     fdc:	05000000 	streq	r0, [r0, #-0]
     fe0:	0095bc02 	addseq	fp, r5, r2, lsl #24
     fe4:	012c0300 	teqeq	ip, r0, lsl #6
     fe8:	9e0c0367 	cdpls	3, 0, cr0, cr12, cr7, {3}
     fec:	35686735 	strbcc	r6, [r8, #-1845]!	; 0x735
     ff0:	2e0c0368 	cdpcs	3, 0, cr0, cr12, cr8, {3}
     ff4:	69696b85 	stmdbvs	r9!, {r0, r2, r7, r8, r9, fp, sp, lr}^
     ff8:	6b660c03 	blvs	198400c <__bss_end__+0x197984c>
     ffc:	34420867 	strbcc	r0, [r2], #-2151	; 0x867
    1000:	68364b68 	ldmdavs	r6!, {r3, r5, r6, r8, r9, fp, lr}
    1004:	02002f87 	andeq	r2, r0, #540	; 0x21c
    1008:	682f0104 	stmdavs	pc!, {r2, r8}	; <UNPREDICTABLE>
    100c:	4b673067 	blmi	19cd1b0 <__bss_end__+0x19c29f0>
    1010:	01040200 	mrseq	r0, R12_usr
    1014:	6967682f 	stmdbvs	r7!, {r0, r1, r2, r3, r5, fp, sp, lr}^
    1018:	0006022e 	andeq	r0, r6, lr, lsr #4
    101c:	012b0101 	teqeq	fp, r1, lsl #2
    1020:	00020000 	andeq	r0, r2, r0
    1024:	000000f8 	strdeq	r0, [r0], -r8
    1028:	0efb0102 	cdpeq	1, 15, cr0, cr11, cr2, {0}
    102c:	0101000d 	tsteq	r1, sp
    1030:	00000101 	andeq	r0, r0, r1, lsl #2
    1034:	00000100 	andeq	r0, r0, r0, lsl #2
    1038:	73752f01 	cmnvc	r5, #1, 30
    103c:	6e692f72 	mcrvs	15, 3, r2, cr9, cr2, {3}
    1040:	64756c63 	ldrbtvs	r6, [r5], #-3171	; 0xc63
    1044:	656e2f65 	strbvs	r2, [lr, #-3941]!	; 0xf65
    1048:	62696c77 	rsbvs	r6, r9, #30464	; 0x7700
    104c:	7379732f 	cmnvc	r9, #-1140850688	; 0xbc000000
    1050:	73752f00 	cmnvc	r5, #0, 30
    1054:	696c2f72 	stmdbvs	ip!, {r1, r4, r5, r6, r8, r9, sl, fp, sp}^
    1058:	63672f62 	cmnvs	r7, #392	; 0x188
    105c:	72612f63 	rsbvc	r2, r1, #396	; 0x18c
    1060:	6f6e2d6d 	svcvs	0x006e2d6d
    1064:	652d656e 	strvs	r6, [sp, #-1390]!	; 0x56e
    1068:	2f696261 	svccs	0x00696261
    106c:	2e332e36 	mrccs	14, 1, r2, cr3, cr6, {1}
    1070:	6e692f31 	mcrvs	15, 3, r2, cr9, cr1, {1}
    1074:	64756c63 	ldrbtvs	r6, [r5], #-3171	; 0xc63
    1078:	682f0065 	stmdavs	pc!, {r0, r2, r5, r6}	; <UNPREDICTABLE>
    107c:	2f656d6f 	svccs	0x00656d6f
    1080:	6c676e65 	stclvs	14, cr6, [r7], #-404	; 0xfffffe6c
    1084:	632f7265 	teqvs	pc, #1342177286	; 0x50000006
    1088:	7373616c 	cmnvc	r3, #108, 2
    108c:	3273632f 	rsbscc	r6, r3, #-1140850688	; 0xbc000000
    1090:	786c3034 	stmdavc	ip!, {r2, r4, r5, ip, sp}^
    1094:	7330322d 	teqvc	r0, #-805306366	; 0xd0000002
    1098:	2f2f7270 	svccs	0x002f7270
    109c:	7062696c 	rsbvc	r6, r2, ip, ror #18
    10a0:	682f0069 	stmdavs	pc!, {r0, r3, r5, r6}	; <UNPREDICTABLE>
    10a4:	2f656d6f 	svccs	0x00656d6f
    10a8:	6c676e65 	stclvs	14, cr6, [r7], #-404	; 0xfffffe6c
    10ac:	632f7265 	teqvs	pc, #1342177286	; 0x50000006
    10b0:	7373616c 	cmnvc	r3, #108, 2
    10b4:	3273632f 	rsbscc	r6, r3, #-1140850688	; 0xbc000000
    10b8:	786c3034 	stmdavc	ip!, {r2, r4, r5, ip, sp}^
    10bc:	7330322d 	teqvc	r0, #-805306366	; 0xd0000002
    10c0:	2f2f7270 	svccs	0x002f7270
    10c4:	7062696c 	rsbvc	r6, r2, ip, ror #18
    10c8:	74732f69 	ldrbtvc	r2, [r3], #-3945	; 0xf69
    10cc:	2d666661 	stclcs	6, cr6, [r6, #-388]!	; 0xfffffe7c
    10d0:	00637273 	rsbeq	r7, r3, r3, ror r2
    10d4:	69706700 	ldmdbvs	r0!, {r8, r9, sl, sp, lr}^
    10d8:	00632e6f 	rsbeq	r2, r3, pc, ror #28
    10dc:	6c000000 	stcvs	0, cr0, [r0], {-0}
    10e0:	2e6b636f 	cdpcs	3, 6, cr6, cr11, cr15, {3}
    10e4:	00010068 	andeq	r0, r1, r8, rrx
    10e8:	79745f00 	ldmdbvc	r4!, {r8, r9, sl, fp, ip, lr}^
    10ec:	2e736570 	mrccs	5, 3, r6, cr3, cr0, {3}
    10f0:	00010068 	andeq	r0, r1, r8, rrx
    10f4:	64747300 	ldrbtvs	r7, [r4], #-768	; 0x300
    10f8:	2e666564 	cdpcs	5, 6, cr6, cr6, cr4, {3}
    10fc:	00020068 	andeq	r0, r2, r8, rrx
    1100:	65657200 	strbvs	r7, [r5, #-512]!	; 0x200
    1104:	682e746e 	stmdavs	lr!, {r1, r2, r3, r5, r6, sl, ip, sp, lr}
    1108:	00000100 	andeq	r0, r0, r0, lsl #2
    110c:	2e697072 	mcrcs	0, 3, r7, cr9, cr2, {3}
    1110:	00030068 	andeq	r0, r3, r8, rrx
    1114:	69706700 	ldmdbvs	r0!, {r8, r9, sl, sp, lr}^
    1118:	00682e6f 	rsbeq	r2, r8, pc, ror #28
    111c:	00000004 	andeq	r0, r0, r4
    1120:	34020500 	strcc	r0, [r2], #-1280	; 0x500
    1124:	03000097 	movweq	r0, #151	; 0x97
    1128:	4c130127 	ldfmis	f0, [r3], {39}	; 0x27
    112c:	68f44f47 	ldmvs	r4!, {r0, r1, r2, r6, r8, r9, sl, fp, lr}^
    1130:	2fa14c4b 	svccs	0x00a14c4b
    1134:	3149136a 	cmpcc	r9, sl, ror #6
    1138:	314913be 	strhcc	r1, [r9, #-62]	; 0xffffffc2
    113c:	2f6a2fbe 	svccs	0x006a2fbe
    1140:	134f484d 	movtne	r4, #63565	; 0xf84d
    1144:	b72f3249 	strlt	r3, [pc, -r9, asr #4]!
    1148:	01000602 	tsteq	r0, r2, lsl #12
    114c:	00013401 	andeq	r3, r1, r1, lsl #8
    1150:	df000200 	svcle	0x00000200
    1154:	02000000 	andeq	r0, r0, #0
    1158:	0d0efb01 	vstreq	d15, [lr, #-4]
    115c:	01010100 	mrseq	r0, (UNDEF: 17)
    1160:	00000001 	andeq	r0, r0, r1
    1164:	01000001 	tsteq	r0, r1
    1168:	7273752f 	rsbsvc	r7, r3, #197132288	; 0xbc00000
    116c:	636e692f 	cmnvs	lr, #770048	; 0xbc000
    1170:	6564756c 	strbvs	r7, [r4, #-1388]!	; 0x56c
    1174:	77656e2f 	strbvc	r6, [r5, -pc, lsr #28]!
    1178:	2f62696c 	svccs	0x0062696c
    117c:	00737973 	rsbseq	r7, r3, r3, ror r9
    1180:	7273752f 	rsbsvc	r7, r3, #197132288	; 0xbc00000
    1184:	62696c2f 	rsbvs	r6, r9, #12032	; 0x2f00
    1188:	6363672f 	cmnvs	r3, #12320768	; 0xbc0000
    118c:	6d72612f 	ldfvse	f6, [r2, #-188]!	; 0xffffff44
    1190:	6e6f6e2d 	cdpvs	14, 6, cr6, cr15, cr13, {1}
    1194:	61652d65 	cmnvs	r5, r5, ror #26
    1198:	362f6962 	strtcc	r6, [pc], -r2, ror #18
    119c:	312e332e 	teqcc	lr, lr, lsr #6
    11a0:	636e692f 	cmnvs	lr, #770048	; 0xbc000
    11a4:	6564756c 	strbvs	r7, [r4, #-1388]!	; 0x56c
    11a8:	6f682f00 	svcvs	0x00682f00
    11ac:	652f656d 	strvs	r6, [pc, #-1389]!	; c47 <_start-0x73b9>
    11b0:	656c676e 	strbvs	r6, [ip, #-1902]!	; 0x76e
    11b4:	6c632f72 	stclvs	15, cr2, [r3], #-456	; 0xfffffe38
    11b8:	2f737361 	svccs	0x00737361
    11bc:	34327363 	ldrtcc	r7, [r2], #-867	; 0x363
    11c0:	2d786c30 	ldclcs	12, cr6, [r8, #-192]!	; 0xffffff40
    11c4:	70733032 	rsbsvc	r3, r3, r2, lsr r0
    11c8:	6c2f2f72 	stcvs	15, cr2, [pc], #-456	; 1008 <_start-0x6ff8>
    11cc:	69706269 	ldmdbvs	r0!, {r0, r3, r5, r6, r9, sp, lr}^
    11d0:	73752f00 	cmnvc	r5, #0, 30
    11d4:	6e692f72 	mcrvs	15, 3, r2, cr9, cr2, {3}
    11d8:	64756c63 	ldrbtvs	r6, [r5], #-3171	; 0xc63
    11dc:	656e2f65 	strbvs	r2, [lr, #-3941]!	; 0xf65
    11e0:	62696c77 	rsbvs	r6, r9, #30464	; 0x7700
    11e4:	6d6b0000 	stclvs	0, cr0, [fp, #-0]
    11e8:	6f6c6c61 	svcvs	0x006c6c61
    11ec:	00632e63 	rsbeq	r2, r3, r3, ror #28
    11f0:	6c000000 	stcvs	0, cr0, [r0], {-0}
    11f4:	2e6b636f 	cdpcs	3, 6, cr6, cr11, cr15, {3}
    11f8:	00010068 	andeq	r0, r1, r8, rrx
    11fc:	79745f00 	ldmdbvc	r4!, {r8, r9, sl, fp, ip, lr}^
    1200:	2e736570 	mrccs	5, 3, r6, cr3, cr0, {3}
    1204:	00010068 	andeq	r0, r1, r8, rrx
    1208:	64747300 	ldrbtvs	r7, [r4], #-768	; 0x300
    120c:	2e666564 	cdpcs	5, 6, cr6, cr6, cr4, {3}
    1210:	00020068 	andeq	r0, r2, r8, rrx
    1214:	65657200 	strbvs	r7, [r5, #-512]!	; 0x200
    1218:	682e746e 	stmdavs	lr!, {r1, r2, r3, r5, r6, sl, ip, sp, lr}
    121c:	00000100 	andeq	r0, r0, r0, lsl #2
    1220:	2e697072 	mcrcs	0, 3, r7, cr9, cr2, {3}
    1224:	00030068 	andeq	r0, r3, r8, rrx
    1228:	72747300 	rsbsvc	r7, r4, #0, 6
    122c:	2e676e69 	cdpcs	14, 6, cr6, cr7, cr9, {3}
    1230:	00040068 	andeq	r0, r4, r8, rrx
    1234:	05000000 	streq	r0, [r0, #-0]
    1238:	00985402 	addseq	r5, r8, r2, lsl #8
    123c:	01100300 	tsteq	r0, r0, lsl #6
    1240:	68018301 	stmdavs	r1, {r0, r8, r9, pc}
    1244:	02008314 	andeq	r8, r0, #20, 6	; 0x50000000
    1248:	007f0104 	rsbseq	r0, pc, r4, lsl #2
    124c:	30010402 	andcc	r0, r1, r2, lsl #8
    1250:	4b2f5c08 	blmi	bd8278 <__bss_end__+0xbcdab8>
    1254:	684b4b4c 	stmdavs	fp, {r2, r3, r6, r8, r9, fp, lr}^
    1258:	01040200 	mrseq	r0, R12_usr
    125c:	034a7903 	movteq	r7, #43267	; 0xa903
    1260:	2f580809 	svccs	0x00580809
    1264:	2f4e2e01 	svccs	0x004e2e01
    1268:	67674b6a 	strbvs	r4, [r7, -sl, ror #22]!
    126c:	02002f4c 	andeq	r2, r0, #76, 30	; 0x130
    1270:	76030104 	strvc	r0, [r3], -r4, lsl #2
    1274:	0402002e 	streq	r0, [r2], #-46	; 0x2e
    1278:	7a08dc01 	bvc	238284 <__bss_end__+0x22dac4>
    127c:	019f012f 	orrseq	r0, pc, pc, lsr #2
    1280:	01000802 	tsteq	r0, r2, lsl #16
    1284:	Address 0x0000000000001284 is out of bounds.


Disassembly of section .debug_str:

00000000 <.debug_str>:
   0:	657a6973 	ldrbvs	r6, [sl, #-2419]!	; 0x973
   4:	6300745f 	movwvs	r7, #1119	; 0x45f
   8:	6c6c616b 	stfvse	f6, [ip], #-428	; 0xfffffe54
   c:	2f00636f 	svccs	0x0000636f
  10:	72657355 	rsbvc	r7, r5, #1409286145	; 0x54000001
  14:	72622f73 	rsbvc	r2, r2, #460	; 0x1cc
  18:	6a6e6169 	bvs	1b985c4 <__bss_end__+0x1b8de04>
  1c:	442f6e75 	strtmi	r6, [pc], #-3701	; 24 <_start-0x7fdc>
  20:	746b7365 	strbtvc	r7, [fp], #-869	; 0x365
  24:	732f706f 	teqvc	pc, #111	; 0x6f
  28:	6f6f6863 	svcvs	0x006f6863
  2c:	70532f6c 	subsvc	r2, r3, ip, ror #30
  30:	676e6972 			; <UNDEFINED> instruction: 0x676e6972
  34:	30323931 	eorscc	r3, r2, r1, lsr r9
  38:	3253432f 	subscc	r4, r3, #-1140850688	; 0xbc000000
  3c:	584c3034 	stmdapl	ip, {r2, r4, r5, ip, sp}^
  40:	3273632f 	rsbscc	r6, r3, #-1140850688	; 0xbc000000
  44:	786c3034 	stmdavc	ip!, {r2, r4, r5, ip, sp}^
  48:	7330322d 	teqvc	r0, #-805306366	; 0xd0000002
  4c:	6c2f7270 	sfmvs	f7, 4, [pc], #-448	; fffffe94 <__bss_end__+0xffff56d4>
  50:	2f736261 	svccs	0x00736261
  54:	672d3131 			; <UNDEFINED> instruction: 0x672d3131
  58:	6f632f63 	svcvs	0x00632f63
  5c:	47006564 	strmi	r6, [r0, -r4, ror #10]
  60:	4320554e 	teqmi	r0, #327155712	; 0x13800000
  64:	382e3420 	stmdacc	lr!, {r5, sl, ip, sp}
  68:	2d20332e 	stccs	3, cr3, [r0, #-184]!	; 0xffffff48
  6c:	7570636d 	ldrbvc	r6, [r0, #-877]!	; 0x36d
  70:	6d72613d 	ldfvse	f6, [r2, #-244]!	; 0xffffff0c
  74:	36373131 			; <UNDEFINED> instruction: 0x36373131
  78:	2d667a6a 	vstmdbcs	r6!, {s15-s120}
  7c:	6d2d2073 	stcvs	0, cr2, [sp, #-460]!	; 0xfffffe34
  80:	656e7574 	strbvs	r7, [lr, #-1396]!	; 0x574
  84:	6d72613d 	ldfvse	f6, [r2, #-244]!	; 0xffffff0c
  88:	36373131 			; <UNDEFINED> instruction: 0x36373131
  8c:	2d667a6a 	vstmdbcs	r6!, {s15-s120}
  90:	672d2073 			; <UNDEFINED> instruction: 0x672d2073
  94:	20626467 	rsbcs	r6, r2, r7, ror #8
  98:	20674f2d 	rsbcs	r4, r7, sp, lsr #30
  9c:	6474732d 	ldrbtvs	r7, [r4], #-813	; 0x32d
  a0:	756e673d 	strbvc	r6, [lr, #-1853]!	; 0x73d
  a4:	2d203939 	stccs	9, cr3, [r0, #-228]!	; 0xffffff1c
  a8:	65726666 	ldrbvs	r6, [r2, #-1638]!	; 0x666
  ac:	61747365 	cmnvs	r4, r5, ror #6
  b0:	6e69646e 	cdpvs	4, 6, cr6, cr9, cr14, {3}
  b4:	6f6e0067 	svcvs	0x006e0067
  b8:	69616d74 	stmdbvs	r1!, {r2, r4, r5, r6, r8, sl, fp, sp, lr}^
  bc:	6863006e 	stmdavs	r3!, {r1, r2, r3, r5, r6}^
  c0:	5f6b6365 	svcpl	0x006b6365
  c4:	6c5f6f6e 	mrrcvs	15, 6, r6, pc, cr14	; <UNPREDICTABLE>
  c8:	006b6165 	rsbeq	r6, fp, r5, ror #2
  cc:	74736574 	ldrbtvc	r6, [r3], #-1396	; 0x574
  d0:	61702f73 	cmnvs	r0, r3, ror pc
  d4:	2d327472 	cfldrscs	mvf7, [r2, #-456]!	; 0xfffffe38
  d8:	74736574 	ldrbtvc	r6, [r3], #-1396	; 0x574
  dc:	00632e33 	rsbeq	r2, r3, r3, lsr lr
  e0:	69736e75 	ldmdbvs	r3!, {r0, r2, r4, r5, r6, r9, sl, fp, sp, lr}^
  e4:	64656e67 	strbtvs	r6, [r5], #-3687	; 0xe67
  e8:	61686320 	cmnvs	r8, r0, lsr #6
  ec:	68730072 	ldmdavs	r3!, {r1, r4, r5, r6}^
  f0:	2074726f 	rsbscs	r7, r4, pc, ror #4
  f4:	69736e75 	ldmdbvs	r3!, {r0, r2, r4, r5, r6, r9, sl, fp, sp, lr}^
  f8:	64656e67 	strbtvs	r6, [r5], #-3687	; 0xe67
  fc:	746e6920 	strbtvc	r6, [lr], #-2336	; 0x920
 100:	616d6b00 	cmnvs	sp, r0, lsl #22
 104:	636f6c6c 	cmnvs	pc, #108, 24	; 0x6c00
 108:	6d656d00 	stclvs	13, cr6, [r5, #-0]
 10c:	00746573 	rsbseq	r6, r4, r3, ror r5
 110:	55465f5f 	strbpl	r5, [r6, #-3935]	; 0xf5f
 114:	4954434e 	ldmdbmi	r4, {r1, r2, r3, r6, r8, r9, lr}^
 118:	5f5f4e4f 	svcpl	0x005f4e4f
 11c:	73657400 	cmnvc	r5, #0, 8
 120:	6b630074 	blvs	18c02f8 <__bss_end__+0x18b5b38>
 124:	696e695f 	stmdbvs	lr!, {r0, r1, r2, r3, r4, r6, r8, fp, sp, lr}^
 128:	6f6c0074 	svcvs	0x006c0074
 12c:	6c20676e 	stcvs	7, cr6, [r0], #-440	; 0xfffffe48
 130:	20676e6f 	rsbcs	r6, r7, pc, ror #28
 134:	69736e75 	ldmdbvs	r3!, {r0, r2, r4, r5, r6, r9, sl, fp, sp, lr}^
 138:	64656e67 	strbtvs	r6, [r5], #-3687	; 0xe67
 13c:	746e6920 	strbtvc	r6, [lr], #-2336	; 0x920
 140:	7a697300 	bvc	1a5cd48 <__bss_end__+0x1a52588>
 144:	70797465 	rsbsvc	r7, r9, r5, ror #8
 148:	6f6c0065 	svcvs	0x006c0065
 14c:	6c20676e 	stcvs	7, cr6, [r0], #-440	; 0xfffffe48
 150:	20676e6f 	rsbcs	r6, r7, pc, ror #28
 154:	00746e69 	rsbseq	r6, r4, r9, ror #28
 158:	726f6873 	rsbvc	r6, pc, #7536640	; 0x730000
 15c:	6e692074 	mcrvs	0, 3, r2, cr9, cr4, {3}
 160:	69750074 	ldmdbvs	r5!, {r2, r4, r5, r6}^
 164:	3233746e 	eorscc	r7, r3, #1845493760	; 0x6e000000
 168:	6b00745f 	blvs	1d2ec <__bss_end__+0x12b2c>
 16c:	6c6c616d 	stfvse	f6, [ip], #-436	; 0xfffffe4c
 170:	695f636f 	ldmdbvs	pc, {r0, r1, r2, r3, r5, r6, r8, r9, sp, lr}^	; <UNPREDICTABLE>
 174:	5f74696e 	svcpl	0x0074696e
 178:	5f746573 	svcpl	0x00746573
 17c:	72617473 	rsbvc	r7, r1, #1929379840	; 0x73000000
 180:	626e0074 	rsbvs	r0, lr, #116	; 0x74
 184:	73657479 	cmnvc	r5, #2030043136	; 0x79000000
 188:	6572665f 	ldrbvs	r6, [r2, #-1631]!	; 0x65f
 18c:	63006465 	movwvs	r6, #1125	; 0x465
 190:	69665f6b 	stmdbvs	r6!, {r0, r1, r3, r5, r6, r8, r9, sl, fp, ip, lr}^
 194:	5f747372 	svcpl	0x00747372
 198:	00726468 	rsbseq	r6, r2, r8, ror #8
 19c:	76657270 			; <UNDEFINED> instruction: 0x76657270
 1a0:	615f6800 	cmpvs	pc, r0, lsl #16
 1a4:	00726464 	rsbseq	r6, r2, r4, ror #8
 1a8:	74736166 	ldrbtvc	r6, [r3], #-358	; 0x166
 1ac:	7361685f 	cmnvc	r1, #6225920	; 0x5f0000
 1b0:	6f740068 	svcvs	0x00740068
 1b4:	5f6c6174 	svcpl	0x006c6174
 1b8:	657a6973 	ldrbvs	r6, [sl, #-2419]!	; 0x973
 1bc:	725f6200 	subsvc	r6, pc, #0, 4
 1c0:	705f317a 	subsvc	r3, pc, sl, ror r1	; <UNPREDICTABLE>
 1c4:	46007274 			; <UNDEFINED> instruction: 0x46007274
 1c8:	44454552 	strbmi	r4, [r5], #-1362	; 0x552
 1cc:	72616d00 	rsbvc	r6, r1, #0, 26
 1d0:	4c41006b 	mcrrmi	0, 6, r0, r1, cr11
 1d4:	45434f4c 	strbmi	r4, [r3, #-3916]	; 0xf4c
 1d8:	65720044 	ldrbvs	r0, [r2, #-68]!	; 0x44
 1dc:	6d5f7366 	ldclvs	3, cr7, [pc, #-408]	; 4c <_start-0x7fb4>
 1e0:	6c646469 	cfstrdvs	mvd6, [r4], #-420	; 0xfffffe5c
 1e4:	5f620065 	svcpl	0x00620065
 1e8:	72646461 	rsbvc	r6, r4, #1627389952	; 0x61000000
 1ec:	5f6f745f 	svcpl	0x006f745f
 1f0:	00726468 	rsbseq	r6, r2, r8, ror #8
 1f4:	73666572 	cmnvc	r6, #478150656	; 0x1c800000
 1f8:	6174735f 	cmnvs	r4, pc, asr r3
 1fc:	75007472 	strvc	r7, [r0, #-1138]	; 0x472
 200:	31746e69 	cmncc	r4, r9, ror #28
 204:	00745f36 	rsbseq	r5, r4, r6, lsr pc
 208:	5245564f 	subpl	r5, r5, #82837504	; 0x4f00000
 20c:	44414548 	strbmi	r4, [r1], #-1352	; 0x548
 210:	59424e5f 	stmdbpl	r2, {r0, r1, r2, r3, r4, r6, r9, sl, fp, lr}^
 214:	00534554 	subseq	r4, r3, r4, asr r5
 218:	685f6b63 	ldmdavs	pc, {r0, r1, r5, r6, r8, r9, fp, sp, lr}^	; <UNPREDICTABLE>
 21c:	5f706165 	svcpl	0x00706165
 220:	6f727265 	svcvs	0x00727265
 224:	41007372 	tstmi	r0, r2, ror r3
 228:	434f4c4c 	movtmi	r4, #64588	; 0xfc4c
 22c:	46464f5f 			; <UNDEFINED> instruction: 0x46464f5f
 230:	00544553 	subseq	r4, r4, r3, asr r5
 234:	5f697072 	svcpl	0x00697072
 238:	65736572 	ldrbvs	r6, [r3, #-1394]!	; 0x572
 23c:	75705f74 	ldrbvc	r5, [r0, #-3956]!	; 0xf74
 240:	63006374 	movwvs	r6, #884	; 0x374
 244:	5f727275 	svcpl	0x00727275
 248:	00726468 	rsbseq	r6, r2, r8, ror #8
 24c:	6f745f62 	svcvs	0x00745f62
 250:	5f6c6174 	svcpl	0x006c6174
 254:	65747962 	ldrbvs	r7, [r4, #-2402]!	; 0x962
 258:	68630073 	stmdavs	r3!, {r0, r1, r4, r5, r6}^
 25c:	5f6b6365 	svcpl	0x006b6365
 260:	00727470 	rsbseq	r7, r2, r0, ror r4
 264:	6c616b63 	stclvs	11, cr6, [r1], #-396	; 0xfffffe74
 268:	2e636f6c 	cdpcs	15, 6, cr6, cr3, cr12, {3}
 26c:	6b630063 	blvs	18c0400 <__bss_end__+0x18b5c40>
 270:	65657266 	strbvs	r7, [r5, #-614]!	; 0x266
 274:	5f6b6300 	svcpl	0x006b6300
 278:	7478656e 	ldrbtvc	r6, [r8], #-1390	; 0x56e
 27c:	7264685f 	rsbvc	r6, r4, #6225920	; 0x5f0000
 280:	656c6300 	strbvs	r6, [ip, #-768]!	; 0x300
 284:	725f6e61 	subsvc	r6, pc, #1552	; 0x610
 288:	6f6f6265 	svcvs	0x006f6265
 28c:	6c610074 	stclvs	0, cr0, [r1], #-464	; 0xfffffe30
 290:	5f636f6c 	svcpl	0x00636f6c
 294:	00636f6c 	rsbeq	r6, r3, ip, ror #30
 298:	5f726468 	svcpl	0x00726468
 29c:	75736b63 	ldrbvc	r6, [r3, #-2915]!	; 0xb63
 2a0:	4552006d 	ldrbmi	r0, [r2, #-109]	; 0x6d
 2a4:	4e4f5a44 	vmlsmi.f32	s11, s30, s8
 2a8:	626e0045 	rsbvs	r0, lr, #69	; 0x45
 2ac:	73657479 	cmnvc	r5, #2030043136	; 0x79000000
 2b0:	6c6c615f 	stfvse	f6, [ip], #-380	; 0xfffffe84
 2b4:	6600636f 	strvs	r6, [r0], -pc, ror #6
 2b8:	5f656572 	svcpl	0x00656572
 2bc:	00636f6c 	rsbeq	r6, r3, ip, ror #30
 2c0:	6c615f62 	stclvs	15, cr5, [r1], #-392	; 0xfffffe78
 2c4:	5f636f6c 	svcpl	0x00636f6c
 2c8:	00727470 	rsbseq	r7, r2, r0, ror r4
 2cc:	70616568 	rsbvc	r6, r1, r8, ror #10
 2d0:	666e695f 			; <UNDEFINED> instruction: 0x666e695f
 2d4:	7273006f 	rsbsvc	r0, r3, #111	; 0x6f
 2d8:	6f6c5f63 	svcvs	0x006c5f63
 2dc:	00745f63 	rsbseq	r5, r4, r3, ror #30
 2e0:	63656863 	cmnvs	r5, #6488064	; 0x630000
 2e4:	64685f6b 	strbtvs	r5, [r8], #-3947	; 0xf6b
 2e8:	5f620072 	svcpl	0x00620072
 2ec:	5f327a72 	svcpl	0x00327a72
 2f0:	00727470 	rsbseq	r7, r2, r0, ror r4
 2f4:	7272656e 	rsbsvc	r6, r2, #461373440	; 0x1b800000
 2f8:	0073726f 	rsbseq	r7, r3, pc, ror #4
 2fc:	5f726468 	svcpl	0x00726468
 300:	6e697270 	mcrvs	2, 3, r7, cr9, cr0, {3}
 304:	626e0074 	rsbvs	r0, lr, #116	; 0x74
 308:	00736b6c 	rsbseq	r6, r3, ip, ror #22
 30c:	544e4553 	strbpl	r4, [lr], #-1363	; 0x553
 310:	4c414e49 	mcrrmi	14, 4, r4, r1, cr9
 314:	72616d00 	rsbvc	r6, r1, #0, 26
 318:	656d5f6b 	strbvs	r5, [sp, #-3947]!	; 0xf6b
 31c:	626e006d 	rsbvs	r0, lr, #109	; 0x6d
 320:	73657479 	cmnvc	r5, #2030043136	; 0x79000000
 324:	6c6c615f 	stfvse	f6, [ip], #-380	; 0xfffffe84
 328:	6465636f 	strbtvs	r6, [r5], #-879	; 0x36f
 32c:	65686300 	strbvs	r6, [r8, #-768]!	; 0x300
 330:	625f6b63 	subsvs	r6, pc, #101376	; 0x18c00
 334:	6b636f6c 	blvs	18dc0ec <__bss_end__+0x18d192c>
 338:	6e696c00 	cdpvs	12, 6, cr6, cr9, cr0, {0}
 33c:	006f6e65 	rsbeq	r6, pc, r5, ror #28
 340:	7a725f62 	bvc	1c980d0 <__bss_end__+0x1c8d910>
 344:	626e5f32 	rsbvs	r5, lr, #50, 30	; 0xc8
 348:	73657479 	cmnvc	r5, #2030043136	; 0x79000000
 34c:	72646800 	rsbvc	r6, r4, #0, 16
 350:	736b635f 	cmnvc	fp, #2080374785	; 0x7c000001
 354:	765f6d75 			; <UNDEFINED> instruction: 0x765f6d75
 358:	75006c61 	strvc	r6, [r0, #-3169]	; 0xc61
 35c:	38746e69 	ldmdacc	r4!, {r0, r3, r5, r6, r9, sl, fp, sp, lr}^
 360:	6800745f 	stmdavs	r0, {r0, r1, r2, r3, r4, r6, sl, ip, sp, lr}
 364:	745f7264 	ldrbvc	r7, [pc], #-612	; 36c <_start-0x7c94>
 368:	79626e00 	stmdbvc	r2!, {r9, sl, fp, sp, lr}^
 36c:	5f736574 	svcpl	0x00736574
 370:	006d6572 	rsbeq	r6, sp, r2, ror r5
 374:	7466656c 	strbtvc	r6, [r6], #-1388	; 0x56c
 378:	65686300 	strbvs	r6, [r8, #-768]!	; 0x300
 37c:	6d5f6b63 	vldrvs	d22, [pc, #-396]	; 1f8 <_start-0x7e08>
 380:	68006d65 	stmdavs	r0, {r0, r2, r5, r6, r8, sl, fp, sp, lr}
 384:	65646165 	strbvs	r6, [r4, #-357]!	; 0x165
 388:	74730072 	ldrbtvc	r0, [r3], #-114	; 0x72
 38c:	5f6b6361 	svcpl	0x006b6361
 390:	00706f74 	rsbseq	r6, r0, r4, ror pc
 394:	6e726177 	mrcvs	1, 3, r6, cr2, cr7, {3}
 398:	5f6f6e5f 	svcpl	0x006f6e5f
 39c:	72617473 	rsbvc	r7, r1, #1929379840	; 0x73000000
 3a0:	65725f74 	ldrbvs	r5, [r2, #-3956]!	; 0xf74
 3a4:	00705f66 	rsbseq	r5, r0, r6, ror #30
 3a8:	6c706d69 	ldclvs	13, cr6, [r0], #-420	; 0xfffffe5c
 3ac:	6e656d65 	cdpvs	13, 6, cr6, cr5, cr5, {3}
 3b0:	68745f74 	ldmdavs	r4!, {r2, r4, r5, r6, r8, r9, sl, fp, ip, lr}^
 3b4:	6e007369 	cdpvs	3, 0, cr7, cr0, cr9, {3}
 3b8:	6b61656c 	blvs	1859970 <__bss_end__+0x184f1b0>
 3bc:	77730073 			; <UNDEFINED> instruction: 0x77730073
 3c0:	5f706565 	svcpl	0x00706565
 3c4:	65657266 	strbvs	r7, [r5, #-614]!	; 0x266
 3c8:	79616d00 	stmdbvc	r1!, {r8, sl, fp, sp, lr}^
 3cc:	655f6562 	ldrbvs	r6, [pc, #-1378]	; fffffe72 <__bss_end__+0xffff56b2>
 3d0:	726f7272 	rsbvc	r7, pc, #536870919	; 0x20000007
 3d4:	6b630073 	blvs	18c05a8 <__bss_end__+0x18b5de8>
 3d8:	0063675f 	rsbeq	r6, r3, pc, asr r7
 3dc:	665f6b63 	ldrbvs	r6, [pc], -r3, ror #22
 3e0:	5f646e69 	svcpl	0x00646e69
 3e4:	6b61656c 	blvs	185999c <__bss_end__+0x184f1dc>
 3e8:	5f5f0073 	svcpl	0x005f0073
 3ec:	5f737362 	svcpl	0x00737362
 3f0:	72617473 	rsbvc	r7, r1, #1929379840	; 0x73000000
 3f4:	005f5f74 	subseq	r5, pc, r4, ror pc	; <UNPREDICTABLE>
 3f8:	73625f5f 	cmnvc	r2, #380	; 0x17c
 3fc:	6e655f73 	mcrvs	15, 3, r5, cr5, cr3, {3}
 400:	005f5f64 	subseq	r5, pc, r4, ror #30
 404:	65657773 	strbvs	r7, [r5, #-1907]!	; 0x773
 408:	656c5f70 	strbvs	r5, [ip, #-3952]!	; 0xf70
 40c:	69006b61 	stmdbvs	r0, {r0, r5, r6, r8, r9, fp, sp, lr}
 410:	65685f6e 	strbvs	r5, [r8, #-3950]!	; 0xf6e
 414:	63007061 	movwvs	r7, #97	; 0x61
 418:	6b636568 	blvs	18d99c0 <__bss_end__+0x18cf200>
 41c:	6f68735f 	svcvs	0x0068735f
 420:	5f646c75 	svcpl	0x00646c75
 424:	6b61656c 	blvs	18599dc <__bss_end__+0x184f21c>
 428:	645f5f00 	ldrbvs	r5, [pc], #-3840	; 430 <_start-0x7bd0>
 42c:	5f617461 	svcpl	0x00617461
 430:	72617473 	rsbvc	r7, r1, #1929379840	; 0x73000000
 434:	005f5f74 	subseq	r5, pc, r4, ror pc	; <UNPREDICTABLE>
 438:	706d7564 	rsbvc	r7, sp, r4, ror #10
 43c:	6765725f 			; <UNDEFINED> instruction: 0x6765725f
 440:	666e0073 			; <UNDEFINED> instruction: 0x666e0073
 444:	64656572 	strbtvs	r6, [r5], #-1394	; 0x572
 448:	2d6b6300 	stclcs	3, cr6, [fp, #-0]
 44c:	632e6367 	teqvs	lr, #-1677721599	; 0x9c000001
 450:	645f5f00 	ldrbvs	r5, [pc], #-3840	; 458 <_start-0x7ba8>
 454:	5f617461 	svcpl	0x00617461
 458:	5f646e65 	svcpl	0x00646e65
 45c:	616d005f 	qdsubvs	r0, pc, sp	; <UNPREDICTABLE>
 460:	615f6b72 	cmpvs	pc, r2, ror fp	; <UNPREDICTABLE>
 464:	69006c6c 	stmdbvs	r0, {r2, r3, r5, r6, sl, fp, sp, lr}
 468:	74705f73 	ldrbtvc	r5, [r0], #-3955	; 0xf73
 46c:	626e0072 	rsbvs	r0, lr, #114	; 0x72
 470:	6b636f6c 	blvs	18dc228 <__bss_end__+0x18d1a68>
 474:	6f700073 	svcvs	0x00700073
 478:	62697373 	rsbvs	r7, r9, #-872415231	; 0xcc000001
 47c:	685f656c 	ldmdavs	pc, {r2, r3, r5, r6, r8, sl, sp, lr}^	; <UNPREDICTABLE>
 480:	6c007264 	sfmvs	f7, 4, [r0], {100}	; 0x64
 484:	2f636269 	svccs	0x00636269
 488:	68736168 	ldmdavs	r3!, {r3, r5, r6, r8, sp, lr}^
 48c:	2f00632e 	svccs	0x0000632e
 490:	72657355 	rsbvc	r7, r5, #1409286145	; 0x54000001
 494:	72622f73 	rsbvc	r2, r2, #460	; 0x1cc
 498:	6a6e6169 	bvs	1b98a44 <__bss_end__+0x1b8e284>
 49c:	442f6e75 	strtmi	r6, [pc], #-3701	; 4a4 <_start-0x7b5c>
 4a0:	746b7365 	strbtvc	r7, [fp], #-869	; 0x365
 4a4:	732f706f 	teqvc	pc, #111	; 0x6f
 4a8:	6f6f6863 	svcvs	0x006f6863
 4ac:	70532f6c 	subsvc	r2, r3, ip, ror #30
 4b0:	676e6972 			; <UNDEFINED> instruction: 0x676e6972
 4b4:	30323931 	eorscc	r3, r2, r1, lsr r9
 4b8:	3253432f 	subscc	r4, r3, #-1140850688	; 0xbc000000
 4bc:	584c3034 	stmdapl	ip, {r2, r4, r5, ip, sp}^
 4c0:	3273632f 	rsbscc	r6, r3, #-1140850688	; 0xbc000000
 4c4:	786c3034 	stmdavc	ip!, {r2, r4, r5, ip, sp}^
 4c8:	7330322d 	teqvc	r0, #-805306366	; 0xd0000002
 4cc:	6c2f7270 	sfmvs	f7, 4, [pc], #-448	; 314 <_start-0x7cec>
 4d0:	69706269 	ldmdbvs	r0!, {r0, r3, r5, r6, r9, sp, lr}^
 4d4:	62696c00 	rsbvs	r6, r9, #0, 24
 4d8:	656d2f63 	strbvs	r2, [sp, #-3939]!	; 0xf63
 4dc:	7465736d 	strbtvc	r7, [r5], #-877	; 0x36d
 4e0:	5f00632e 	svcpl	0x0000632e
 4e4:	756e675f 	strbvc	r6, [lr, #-1887]!	; 0x75f
 4e8:	61765f63 	cmnvs	r6, r3, ror #30
 4ec:	73696c5f 	cmnvc	r9, #24320	; 0x5f00
 4f0:	696c0074 	stmdbvs	ip!, {r2, r4, r5, r6}^
 4f4:	702f6362 	eorvc	r6, pc, r2, ror #6
 4f8:	746e6972 	strbtvc	r6, [lr], #-2418	; 0x972
 4fc:	00632e6b 	rsbeq	r2, r3, fp, ror #28
 500:	705f6176 	subsvc	r6, pc, r6, ror r1	; <UNPREDICTABLE>
 504:	746e6972 	strbtvc	r6, [lr], #-2418	; 0x972
 508:	5f5f006b 	svcpl	0x005f006b
 50c:	6c5f6176 	ldfvse	f6, [pc], {118}	; 0x76
 510:	00747369 	rsbseq	r7, r4, r9, ror #6
 514:	70615f5f 	rsbvc	r5, r1, pc, asr pc
 518:	72617500 	rsbvc	r7, r1, #0, 10
 51c:	75705f74 	ldrbvc	r5, [r0, #-3956]!	; 0xf74
 520:	69006374 	stmdbvs	r0, {r2, r4, r5, r6, r8, r9, sp, lr}
 524:	7265746e 	rsbvc	r7, r5, #1845493760	; 0x6e000000
 528:	5f6c616e 	svcpl	0x006c616e
 52c:	63747570 	cmnvs	r4, #112, 10	; 0x1c000000
 530:	00726168 	rsbseq	r6, r2, r8, ror #2
 534:	5f697072 	svcpl	0x00697072
 538:	63747570 	cmnvs	r4, #112, 10	; 0x1c000000
 53c:	00726168 	rsbseq	r6, r2, r8, ror #2
 540:	6362696c 	cmnvs	r2, #108, 18	; 0x1b0000
 544:	7475702f 	ldrbtvc	r7, [r5], #-47	; 0x2f
 548:	72616863 	rsbvc	r6, r1, #6488064	; 0x630000
 54c:	7200632e 	andvc	r6, r0, #-1207959552	; 0xb8000000
 550:	735f6970 	cmpvc	pc, #112, 18	; 0x1c0000
 554:	705f7465 	subsvc	r7, pc, r5, ror #8
 558:	00637475 	rsbeq	r7, r3, r5, ror r4
 55c:	6362696c 	cmnvs	r2, #108, 18	; 0x1b0000
 560:	7475702f 	ldrbtvc	r7, [r5], #-47	; 0x2f
 564:	00632e6b 	rsbeq	r2, r3, fp, ror #28
 568:	65746e69 	ldrbvs	r6, [r4, #-3689]!	; 0xe69
 56c:	6c616e72 	stclvs	14, cr6, [r1], #-456	; 0xfffffe38
 570:	7475705f 	ldrbtvc	r7, [r5], #-95	; 0x5f
 574:	656e006b 	strbvs	r0, [lr, #-107]!	; 0x6b
 578:	00705f67 	rsbseq	r5, r0, r7, ror #30
 57c:	65766572 	ldrbvs	r6, [r6, #-1394]!	; 0x572
 580:	00657372 	rsbeq	r7, r5, r2, ror r3
 584:	69647369 	stmdbvs	r4!, {r0, r3, r5, r6, r8, r9, ip, sp, lr}^
 588:	00746967 	rsbseq	r6, r4, r7, ror #18
 58c:	73747570 	cmnvc	r4, #112, 10	; 0x1c000000
 590:	0070665f 	rsbseq	r6, r0, pc, asr r6
 594:	6e676973 	mcrvs	9, 3, r6, cr7, cr3, {3}
 598:	705f6465 	subsvc	r6, pc, r5, ror #8
 59c:	62696c00 	rsbvs	r6, r9, #0, 24
 5a0:	61762f63 	cmnvs	r6, r3, ror #30
 5a4:	6972702d 	ldmdbvs	r2!, {r0, r2, r3, r5, ip, sp, lr}^
 5a8:	2e6b746e 	cdpcs	4, 6, cr7, cr11, cr14, {3}
 5ac:	70720063 	rsbsvc	r0, r2, r3, rrx
 5b0:	65735f69 	ldrbvs	r5, [r3, #-3945]!	; 0xf69
 5b4:	756f5f74 	strbvc	r5, [pc, #-3956]!	; fffff648 <__bss_end__+0xffff4e88>
 5b8:	74757074 	ldrbtvc	r7, [r5], #-116	; 0x74
 5bc:	64697700 	strbtvs	r7, [r9], #-1792	; 0x700
 5c0:	70006874 	andvc	r6, r0, r4, ror r8
 5c4:	5f637475 	svcpl	0x00637475
 5c8:	65007066 	strvs	r7, [r0, #-102]	; 0x66
 5cc:	0074696d 	rsbseq	r6, r4, sp, ror #18
 5d0:	66617473 			; <UNDEFINED> instruction: 0x66617473
 5d4:	72732d66 	rsbsvc	r2, r3, #6528	; 0x1980
 5d8:	6c632f63 	stclvs	15, cr2, [r3], #-396	; 0xfffffe74
 5dc:	2d6e6165 	stfcse	f6, [lr, #-404]!	; 0xfffffe6c
 5e0:	6f626572 	svcvs	0x00626572
 5e4:	632e746f 	teqvs	lr, #1862270976	; 0x6f000000
 5e8:	69707200 	ldmdbvs	r0!, {r9, ip, sp, lr}^
 5ec:	6265725f 	rsbvs	r7, r5, #-268435451	; 0xf0000005
 5f0:	00746f6f 	rsbseq	r6, r4, pc, ror #30
 5f4:	616c6564 	cmnvs	ip, r4, ror #10
 5f8:	736d5f79 	cmnvc	sp, #484	; 0x1e4
 5fc:	73736200 	cmnvc	r3, #0, 4
 600:	646e655f 	strbtvs	r6, [lr], #-1375	; 0x55f
 604:	73635f00 	cmnvc	r3, #0, 30
 608:	74726174 	ldrbtvc	r6, [r2], #-372	; 0x174
 60c:	61747300 	cmnvs	r4, r0, lsl #6
 610:	732d6666 	teqvc	sp, #106954752	; 0x6600000
 614:	632f6372 	teqvs	pc, #-939524095	; 0xc8000001
 618:	72617473 	rsbvc	r7, r1, #1929379840	; 0x73000000
 61c:	00632e74 	rsbeq	r2, r3, r4, ror lr
 620:	755f7461 	ldrbvc	r7, [pc, #-1121]	; 1c7 <_start-0x7e39>
 624:	5f726573 	svcpl	0x00726573
 628:	6576656c 	ldrbvs	r6, [r6, #-1388]!	; 0x56c
 62c:	7473006c 	ldrbtvc	r0, [r3], #-108	; 0x6c
 630:	2d666661 	stclcs	6, cr6, [r6, #-388]!	; 0xfffffe7c
 634:	2f637273 	svccs	0x00637273
 638:	6f626572 	svcvs	0x00626572
 63c:	632e746f 	teqvs	lr, #1862270976	; 0x6f000000
 640:	5f4d5000 	svcpl	0x004d5000
 644:	43545352 	cmpmi	r4, #1207959553	; 0x48000001
 648:	4352575f 	cmpmi	r2, #24903680	; 0x17c0000
 64c:	465f4746 	ldrbmi	r4, [pc], -r6, asr #14
 650:	5f4c4c55 	svcpl	0x004c4c55
 654:	45534552 	ldrbmi	r4, [r3, #-1362]	; 0x552
 658:	4d500054 	ldclmi	0, cr0, [r0, #-336]	; 0xfffffeb0
 65c:	4f44575f 	svcmi	0x0044575f
 660:	65730047 	ldrbvs	r0, [r3, #-71]!	; 0x47
 664:	73755f74 	cmnvc	r5, #116, 30	; 0x1d0
 668:	6c5f7265 	lfmvs	f7, 2, [pc], {101}	; 0x65
 66c:	6c657665 	stclvs	6, cr7, [r5], #-404	; 0xfffffe6c
 670:	54555000 	ldrbpl	r5, [r5], #-0
 674:	50003233 	andpl	r3, r0, r3, lsr r2
 678:	41505f4d 	cmpmi	r0, sp, asr #30
 67c:	4f575353 	svcmi	0x00575353
 680:	50004452 	andpl	r4, r0, r2, asr r4
 684:	53525f4d 	cmppl	r2, #308	; 0x134
 688:	63004354 	movwvs	r4, #852	; 0x354
 68c:	00727370 	rsbseq	r7, r2, r0, ror r3
 690:	656d6974 	strbvs	r6, [sp, #-2420]!	; 0x974
 694:	65675f72 	strbvs	r5, [r7, #-3954]!	; 0xf72
 698:	73755f74 	cmnvc	r5, #116, 30	; 0x1d0
 69c:	725f6365 	subsvc	r6, pc, #-1811939327	; 0x94000001
 6a0:	64007761 	strvs	r7, [r0], #-1889	; 0x761
 6a4:	79616c65 	stmdbvc	r1!, {r0, r2, r5, r6, sl, fp, sp, lr}^
 6a8:	6365735f 	cmnvs	r5, #2080374785	; 0x7c000001
 6ac:	61747300 	cmnvs	r4, r0, lsl #6
 6b0:	732d6666 	teqvc	sp, #106954752	; 0x6600000
 6b4:	742f6372 	strtvc	r6, [pc], #-882	; 6bc <_start-0x7944>
 6b8:	72656d69 	rsbvc	r6, r5, #6720	; 0x1a40
 6bc:	4700632e 	strmi	r6, [r0, -lr, lsr #6]
 6c0:	32335445 	eorscc	r5, r3, #1157627904	; 0x45000000
 6c4:	63697400 	cmnvs	r9, #0, 8
 6c8:	6400736b 	strvs	r7, [r0], #-875	; 0x36b
 6cc:	79616c65 	stmdbvc	r1!, {r0, r2, r5, r6, sl, fp, sp, lr}^
 6d0:	6379635f 	cmnvs	r9, #2080374785	; 0x7c000001
 6d4:	0073656c 	rsbseq	r6, r3, ip, ror #10
 6d8:	616c6564 	cmnvs	ip, r4, ror #10
 6dc:	73755f79 	cmnvc	r5, #484	; 0x1e4
 6e0:	6d697400 	cfstrdvs	mvd7, [r9, #-0]
 6e4:	675f7265 	ldrbvs	r7, [pc, -r5, ror #4]
 6e8:	755f7465 	ldrbvc	r7, [pc, #-1125]	; 28b <_start-0x7d75>
 6ec:	00636573 	rsbeq	r6, r3, r3, ror r5
 6f0:	6f73645f 	svcvs	0x0073645f
 6f4:	6e61685f 	mcrvs	8, 3, r6, cr1, cr15, {2}
 6f8:	00656c64 	rsbeq	r6, r5, r4, ror #24
 6fc:	6e61725f 	mcrvs	2, 3, r7, cr1, cr15, {2}
 700:	00383464 	eorseq	r3, r8, r4, ror #8
 704:	656d655f 	strbvs	r6, [sp, #-1375]!	; 0x55f
 708:	6e656772 	mcrvs	7, 3, r6, cr5, cr2, {3}
 70c:	75007963 	strvc	r7, [r0, #-2403]	; 0x963
 710:	5f747261 	svcpl	0x00747261
 714:	74696e69 	strbtvc	r6, [r9], #-3689	; 0xe69
 718:	63775f00 	cmnvs	r7, #0, 30
 71c:	6d6f7472 	cfstrdvs	mvd7, [pc, #-456]!	; 55c <_start-0x7aa4>
 720:	74735f62 	ldrbtvc	r5, [r3], #-3938	; 0xf62
 724:	00657461 	rsbeq	r7, r5, r1, ror #8
 728:	7363775f 	cmnvc	r3, #24903680	; 0x17c0000
 72c:	6d6f7472 	cfstrdvs	mvd7, [pc, #-456]!	; 56c <_start-0x7a94>
 730:	735f7362 	cmpvc	pc, #-2013265919	; 0x88000001
 734:	65746174 	ldrbvs	r6, [r4, #-372]!	; 0x174
 738:	626c5f00 	rsbvs	r5, ip, #0, 30
 73c:	7a697366 	bvc	1a5d4dc <__bss_end__+0x1a52d1c>
 740:	50470065 	subpl	r0, r7, r5, rrx
 744:	465f4f49 	ldrbmi	r4, [pc], -r9, asr #30
 748:	5f434e55 	svcpl	0x00434e55
 74c:	55504e49 	ldrbpl	r4, [r0, #-3657]	; 0xe49
 750:	6d5f0054 	ldclvs	0, cr0, [pc, #-336]	; 608 <_start-0x79f8>
 754:	6f747262 	svcvs	0x00747262
 758:	735f6377 	cmpvc	pc, #-603979775	; 0xdc000001
 75c:	65746174 	ldrbvs	r6, [r4, #-372]!	; 0x174
 760:	63775f00 	cmnvs	r7, #0, 30
 764:	626d6f74 	rsbvs	r6, sp, #116, 30	; 0x1d0
 768:	6174735f 	cmnvs	r4, pc, asr r3
 76c:	5f006574 	svcpl	0x00006574
 770:	5f6d745f 	svcpl	0x006d745f
 774:	00636573 	rsbeq	r6, r3, r3, ror r5
 778:	74617473 	strbtvc	r7, [r1], #-1139	; 0x473
 77c:	62755f00 	rsbsvs	r5, r5, #0, 30
 780:	47006675 	smlsdxmi	r0, r5, r6, r6
 784:	5f4f4950 	svcpl	0x004f4950
 788:	434e5546 	movtmi	r5, #58694	; 0xe546
 78c:	544c415f 	strbpl	r4, [ip], #-351	; 0x15f
 790:	625f0031 	subsvs	r0, pc, #49	; 0x31
 794:	00657361 	rsbeq	r7, r5, r1, ror #6
 798:	6c746e63 	ldclvs	14, cr6, [r4], #-396	; 0xfffffe74
 79c:	745f5f00 	ldrbvc	r5, [pc], #-3840	; 7a4 <_start-0x785c>
 7a0:	6f685f6d 	svcvs	0x00685f6d
 7a4:	5f007275 	svcpl	0x00007275
 7a8:	0066735f 	rsbeq	r7, r6, pc, asr r3
 7ac:	5f6e6f5f 	svcpl	0x006e6f5f
 7b0:	74697865 	strbtvc	r7, [r9], #-2149	; 0x865
 7b4:	6772615f 			; <UNDEFINED> instruction: 0x6772615f
 7b8:	635f0073 	cmpvs	pc, #115	; 0x73
 7bc:	696b6f6f 	stmdbvs	fp!, {r0, r1, r2, r3, r5, r6, r8, r9, sl, fp, sp, lr}^
 7c0:	5f5f0065 	svcpl	0x005f0065
 7c4:	756c6773 	strbvc	r6, [ip, #-1907]!	; 0x773
 7c8:	665f0065 	ldrbvs	r0, [pc], -r5, rrx
 7cc:	7367616c 	cmnvc	r7, #108, 2
 7d0:	73695f00 	cmnvc	r9, #0, 30
 7d4:	6178635f 	cmnvs	r8, pc, asr r3
 7d8:	74735f00 	ldrbtvc	r5, [r3], #-3840	; 0xf00
 7dc:	006e6964 	rsbeq	r6, lr, r4, ror #18
 7e0:	6b6c625f 	blvs	1b19164 <__bss_end__+0x1b0e9a4>
 7e4:	657a6973 	ldrbvs	r6, [sl, #-2419]!	; 0x973
 7e8:	72617500 	rsbvc	r7, r1, #0, 10
 7ec:	00632e74 	rsbeq	r2, r3, r4, ror lr
 7f0:	5f787561 	svcpl	0x00787561
 7f4:	69726570 	ldmdbvs	r2!, {r4, r5, r6, r8, sl, sp, lr}^
 7f8:	00736870 	rsbseq	r6, r3, r0, ror r8
 7fc:	7476635f 	ldrbtvc	r6, [r6], #-863	; 0x35f
 800:	00667562 	rsbeq	r7, r6, r2, ror #10
 804:	6d6f682f 	stclvs	8, cr6, [pc, #-188]!	; 750 <_start-0x78b0>
 808:	6e652f65 	cdpvs	15, 6, cr2, cr5, cr5, {3}
 80c:	72656c67 	rsbvc	r6, r5, #26368	; 0x6700
 810:	616c632f 	cmnvs	ip, pc, lsr #6
 814:	632f7373 	teqvs	pc, #-872415231	; 0xcc000001
 818:	30343273 	eorscc	r3, r4, r3, ror r2
 81c:	322d786c 	eorcc	r7, sp, #108, 16	; 0x6c0000
 820:	72707330 	rsbsvc	r7, r0, #48, 6	; 0xc0000000
 824:	62696c2f 	rsbvs	r6, r9, #12032	; 0x2f00
 828:	732f6970 	teqvc	pc, #112, 18	; 0x1c0000
 82c:	66666174 			; <UNDEFINED> instruction: 0x66666174
 830:	6972702d 	ldmdbvs	r2!, {r0, r2, r3, r5, ip, sp, lr}^
 834:	65746176 	ldrbvs	r6, [r4, #-374]!	; 0x176
 838:	626d5f00 	rsbvs	r5, sp, #0, 30
 83c:	6f747273 	svcvs	0x00747273
 840:	5f736377 	svcpl	0x00736377
 844:	74617473 	strbtvc	r7, [r1], #-1139	; 0x473
 848:	6d5f0065 	ldclvs	0, cr0, [pc, #-404]	; 6bc <_start-0x7944>
 84c:	656c7262 	strbvs	r7, [ip, #-610]!	; 0x262
 850:	74735f6e 	ldrbtvc	r5, [r3], #-3950	; 0xf6e
 854:	00657461 	rsbeq	r7, r5, r1, ror #8
 858:	616e665f 	cmnvs	lr, pc, asr r6
 85c:	00736772 	rsbseq	r6, r3, r2, ror r7
 860:	5f787561 	svcpl	0x00787561
 864:	62616e65 	rsbvs	r6, r1, #1616	; 0x650
 868:	0073656c 	rsbseq	r6, r3, ip, ror #10
 86c:	736e665f 	cmnvc	lr, #99614720	; 0x5f00000
 870:	69735f00 	ldmdbvs	r3!, {r8, r9, sl, fp, ip, lr}^
 874:	75006e67 	strvc	r6, [r0, #-3687]	; 0xe67
 878:	5f747261 	svcpl	0x00747261
 87c:	5f6e6163 	svcpl	0x006e6163
 880:	63747570 	cmnvs	r4, #112, 10	; 0x1c000000
 884:	6c665f00 	stclvs	15, cr5, [r6], #-0
 888:	5f6b636f 	svcpl	0x006b636f
 88c:	735f0074 	cmpvc	pc, #116	; 0x74
 890:	72656474 	rsbvc	r6, r5, #116, 8	; 0x74000000
 894:	425f0072 	subsmi	r0, pc, #114	; 0x72
 898:	6e696769 	cdpvs	7, 6, cr6, cr9, cr9, {3}
 89c:	675f0074 			; <UNDEFINED> instruction: 0x675f0074
 8a0:	616d6d61 	cmnvs	sp, r1, ror #26
 8a4:	6769735f 			; <UNDEFINED> instruction: 0x6769735f
 8a8:	6d61676e 	stclvs	7, cr6, [r1, #-440]!	; 0xfffffe48
 8ac:	65725f00 	ldrbvs	r5, [r2, #-3840]!	; 0xf00
 8b0:	746c7573 	strbtvc	r7, [ip], #-1395	; 0x573
 8b4:	5f006b5f 	svcpl	0x00006b5f
 8b8:	006d745f 	rsbeq	r7, sp, pc, asr r4
 8bc:	63775f5f 	cmnvs	r7, #380	; 0x17c
 8c0:	75006268 	strvc	r6, [r0, #-616]	; 0x268
 8c4:	5f747261 	svcpl	0x00747261
 8c8:	63746567 	cmnvs	r4, #432013312	; 0x19c00000
 8cc:	74735f00 	ldrbtvc	r5, [r3], #-3840	; 0xf00
 8d0:	74756f64 	ldrbtvc	r6, [r5], #-3940	; 0xf64
 8d4:	76635f00 	strbtvc	r5, [r3], -r0, lsl #30
 8d8:	6e656c74 	mcrvs	12, 3, r6, cr5, cr4, {3}
 8dc:	69665f00 	stmdbvs	r6!, {r8, r9, sl, fp, ip, lr}^
 8e0:	5f00656c 	svcpl	0x0000656c
 8e4:	626f696e 	rsbvs	r6, pc, #1802240	; 0x1b8000
 8e8:	615f0073 	cmpvs	pc, r3, ror r0	; <UNPREDICTABLE>
 8ec:	69786574 	ldmdbvs	r8!, {r2, r4, r5, r6, r8, sl, sp, lr}^
 8f0:	5f003074 	svcpl	0x00003074
 8f4:	6e676973 	mcrvs	9, 3, r6, cr7, cr3, {3}
 8f8:	625f6c61 	subsvs	r6, pc, #24832	; 0x6100
 8fc:	5f006675 	svcpl	0x00006675
 900:	74637361 	strbtvc	r7, [r3], #-865	; 0x361
 904:	5f656d69 	svcpl	0x00656d69
 908:	00667562 	rsbeq	r7, r6, r2, ror #10
 90c:	5f766564 	svcpl	0x00766564
 910:	72726162 	rsbsvc	r6, r2, #-2147483624	; 0x80000018
 914:	00726569 	rsbseq	r6, r2, r9, ror #10
 918:	7365725f 	cmnvc	r5, #-268435451	; 0xf0000005
 91c:	00746c75 	rsbseq	r6, r4, r5, ror ip
 920:	63775f5f 	cmnvs	r7, #380	; 0x17c
 924:	50470068 	subpl	r0, r7, r8, rrx
 928:	465f4f49 	ldrbmi	r4, [pc], -r9, asr #30
 92c:	5f434e55 	svcpl	0x00434e55
 930:	32544c41 	subscc	r4, r4, #16640	; 0x4100
 934:	6e697700 	cdpvs	7, 6, cr7, cr9, cr0, {0}
 938:	00745f74 	rsbseq	r5, r4, r4, ror pc
 93c:	636f6c5f 	cmnvs	pc, #24320	; 0x5f00
 940:	665f006b 	ldrbvs	r0, [pc], -fp, rrx
 944:	7367616c 	cmnvc	r7, #108, 2
 948:	5f5f0032 	svcpl	0x005f0032
 94c:	795f6d74 	ldmdbvc	pc, {r2, r4, r5, r6, r8, sl, fp, sp, lr}^	; <UNPREDICTABLE>
 950:	00726165 	rsbseq	r6, r2, r5, ror #2
 954:	66666f5f 	uqsaxvs	r6, r6, pc	; <UNPREDICTABLE>
 958:	00746573 	rsbseq	r6, r4, r3, ror r5
 95c:	6f697067 	svcvs	0x00697067
 960:	7465735f 	strbtvc	r7, [r5], #-863	; 0x35f
 964:	6e75665f 	mrcvs	6, 3, r6, cr5, cr15, {2}
 968:	6f697463 	svcvs	0x00697463
 96c:	6e5f006e 	cdpvs	0, 5, cr0, cr15, cr14, {3}
 970:	66747865 	ldrbtvs	r7, [r4], -r5, ror #16
 974:	745f5f00 	ldrbvc	r5, [pc], #-3840	; 97c <_start-0x7684>
 978:	6f6d5f6d 	svcvs	0x006d5f6d
 97c:	615f006e 	cmpvs	pc, lr, rrx
 980:	69786574 	ldmdbvs	r8!, {r2, r4, r5, r6, r8, sl, sp, lr}^
 984:	5f5f0074 	svcpl	0x005f0074
 988:	64696473 	strbtvs	r6, [r9], #-1139	; 0x473
 98c:	74696e69 	strbtvc	r6, [r9], #-3689	; 0xe69
 990:	666f5f00 	strbtvs	r5, [pc], -r0, lsl #30
 994:	00745f66 	rsbseq	r5, r4, r6, ror #30
 998:	74726175 	ldrbtvc	r6, [r2], #-373	; 0x175
 99c:	72665f00 	rsbvc	r5, r6, #0, 30
 9a0:	696c6565 	stmdbvs	ip!, {r0, r2, r5, r6, r8, sl, sp, lr}^
 9a4:	5f007473 	svcpl	0x00007473
 9a8:	4b434f4c 	blmi	10d46e0 <__bss_end__+0x10c9f20>
 9ac:	4345525f 	movtmi	r5, #21087	; 0x525f
 9b0:	49535255 	ldmdbmi	r3, {r0, r2, r4, r6, r9, ip, lr}^
 9b4:	545f4556 	ldrbpl	r4, [pc], #-1366	; 9bc <_start-0x7644>
 9b8:	656e5f00 	strbvs	r5, [lr, #-3840]!	; 0xf00
 9bc:	685f0077 	ldmdavs	pc, {r0, r1, r2, r4, r5, r6}^	; <UNPREDICTABLE>
 9c0:	7272655f 	rsbsvc	r6, r2, #398458880	; 0x17c00000
 9c4:	5f006f6e 	svcpl	0x00006f6e
 9c8:	5f6d745f 	svcpl	0x006d745f
 9cc:	79616479 	stmdbvc	r1!, {r0, r3, r4, r5, r6, sl, sp, lr}^
 9d0:	735f5f00 	cmpvc	pc, #0, 30
 9d4:	00667562 	rsbeq	r7, r6, r2, ror #10
 9d8:	626f695f 	rsbvs	r6, pc, #1556480	; 0x17c000
 9dc:	5f5f0073 	svcpl	0x005f0073
 9e0:	454c4946 	strbmi	r4, [ip, #-2374]	; 0x946
 9e4:	626d5f00 	rsbvs	r5, sp, #0, 30
 9e8:	74617473 	strbtvc	r7, [r1], #-1139	; 0x473
 9ec:	00745f65 	rsbseq	r5, r4, r5, ror #30
 9f0:	46735f5f 	uhsaxmi	r5, r3, pc	; <UNPREDICTABLE>
 9f4:	00454c49 	subeq	r4, r5, r9, asr #24
 9f8:	73626d5f 	cmnvc	r2, #6080	; 0x17c0
 9fc:	65746174 	ldrbvs	r6, [r4, #-372]!	; 0x174
 a00:	61725f00 	cmnvs	r2, r0, lsl #30
 a04:	6e5f646e 	cdpvs	4, 5, cr6, cr15, cr14, {3}
 a08:	00747865 	rsbseq	r7, r4, r5, ror #16
 a0c:	6c626d5f 	stclvs	13, cr6, [r2], #-380	; 0xfffffe84
 a10:	735f6e65 	cmpvc	pc, #1616	; 0x650
 a14:	65746174 	ldrbvs	r6, [r4, #-372]!	; 0x174
 a18:	6e695f00 	cdpvs	15, 6, cr5, cr9, cr0, {0}
 a1c:	695f0063 	ldmdbvs	pc, {r0, r1, r5, r6}^	; <UNPREDICTABLE>
 a20:	5f00646e 	svcpl	0x0000646e
 a24:	72727563 	rsbsvc	r7, r2, #415236096	; 0x18c00000
 a28:	5f746e65 	svcpl	0x00746e65
 a2c:	61636f6c 	cmnvs	r3, ip, ror #30
 a30:	5f00656c 	svcpl	0x0000656c
 a34:	656c635f 	strbvs	r6, [ip, #-863]!	; 0x35f
 a38:	70756e61 	rsbsvc	r6, r5, r1, ror #28
 a3c:	616d5f00 	cmnvs	sp, r0, lsl #30
 a40:	73647778 	cmnvc	r4, #120, 14	; 0x1e00000
 a44:	65725f00 	ldrbvs	r5, [r2, #-3840]!	; 0xf00
 a48:	00746e65 	rsbseq	r6, r4, r5, ror #28
 a4c:	6565735f 	strbvs	r7, [r5, #-863]!	; 0x35f
 a50:	5f5f0064 	svcpl	0x005f0064
 a54:	6e756f63 	cdpvs	15, 7, cr6, cr5, cr3, {3}
 a58:	5f5f0074 	svcpl	0x005f0074
 a5c:	756c6176 	strbvc	r6, [ip, #-374]!	; 0x176
 a60:	735f0065 	cmpvc	pc, #101	; 0x65
 a64:	006b6565 	rsbeq	r6, fp, r5, ror #10
 a68:	64756162 	ldrbtvs	r6, [r5], #-354	; 0x162
 a6c:	70665f00 	rsbvc	r5, r6, r0, lsl #30
 a70:	745f736f 	ldrbvc	r7, [pc], #-879	; a78 <_start-0x7588>
 a74:	745f5f00 	ldrbvc	r5, [pc], #-3840	; a7c <_start-0x7584>
 a78:	696d5f6d 	stmdbvs	sp!, {r0, r2, r3, r5, r6, r8, r9, sl, fp, ip, lr}^
 a7c:	6373006e 	cmnvs	r3, #110	; 0x6e
 a80:	63746172 	cmnvs	r4, #-2147483620	; 0x8000001c
 a84:	6d5f0068 	ldclvs	0, cr0, [pc, #-416]	; 8ec <_start-0x7714>
 a88:	00746c75 	rsbseq	r6, r4, r5, ror ip
 a8c:	33747570 	cmncc	r4, #112, 10	; 0x1c000000
 a90:	4e470032 	mcrmi	0, 2, r0, cr7, cr2, {1}
 a94:	39432055 	stmdbcc	r3, {r0, r2, r4, r6, sp}^
 a98:	2e362039 	mrccs	0, 1, r2, cr6, cr9, {1}
 a9c:	20312e33 	eorscs	r2, r1, r3, lsr lr
 aa0:	37313032 			; <UNDEFINED> instruction: 0x37313032
 aa4:	30323630 	eorscc	r3, r2, r0, lsr r6
 aa8:	636d2d20 	cmnvs	sp, #32, 26	; 0x800
 aac:	613d7570 	teqvs	sp, r0, ror r5
 ab0:	31316d72 	teqcc	r1, r2, ror sp
 ab4:	7a6a3637 	bvc	1a8e398 <__bss_end__+0x1a83bd8>
 ab8:	20732d66 	rsbscs	r2, r3, r6, ror #26
 abc:	75746d2d 	ldrbvc	r6, [r4, #-3373]!	; 0xd2d
 ac0:	613d656e 	teqvs	sp, lr, ror #10
 ac4:	31316d72 	teqcc	r1, r2, ror sp
 ac8:	7a6a3637 	bvc	1a8e3ac <__bss_end__+0x1a83bec>
 acc:	20732d66 	rsbscs	r2, r3, r6, ror #26
 ad0:	6467672d 	strbtvs	r6, [r7], #-1837	; 0x72d
 ad4:	4f2d2062 	svcmi	0x002d2062
 ad8:	732d2067 	teqvc	sp, #103	; 0x67
 adc:	673d6474 			; <UNDEFINED> instruction: 0x673d6474
 ae0:	3939756e 	ldmdbcc	r9!, {r1, r2, r3, r5, r6, r8, sl, ip, sp, lr}
 ae4:	66662d20 	strbtvs	r2, [r6], -r0, lsr #26
 ae8:	73656572 	cmnvc	r5, #478150656	; 0x1c800000
 aec:	646e6174 	strbtvs	r6, [lr], #-372	; 0x174
 af0:	00676e69 	rsbeq	r6, r7, r9, ror #28
 af4:	7274735f 	rsbsvc	r7, r4, #2080374785	; 0x7c000001
 af8:	5f6b6f74 	svcpl	0x006b6f74
 afc:	7473616c 	ldrbtvc	r6, [r3], #-364	; 0x16c
 b00:	6e665f00 	cdpvs	15, 6, cr5, cr6, cr0, {0}
 b04:	65707974 	ldrbvs	r7, [r0, #-2420]!	; 0x974
 b08:	615f0073 	cmpvs	pc, r3, ror r0	; <UNPREDICTABLE>
 b0c:	5f006464 	svcpl	0x00006464
 b10:	6f4c555f 	svcvs	0x004c555f
 b14:	5f00676e 	svcpl	0x0000676e
 b18:	64746567 	ldrbtvs	r6, [r4], #-1383	; 0x567
 b1c:	5f657461 	svcpl	0x00657461
 b20:	00727265 	rsbseq	r7, r2, r5, ror #4
 b24:	6f6c675f 	svcvs	0x006c675f
 b28:	5f6c6162 	svcpl	0x006c6162
 b2c:	75706d69 	ldrbvc	r6, [r0, #-3433]!	; 0xd69
 b30:	705f6572 	subsvc	r6, pc, r2, ror r5	; <UNPREDICTABLE>
 b34:	5f007274 	svcpl	0x00007274
 b38:	72727563 	rsbsvc	r7, r2, #415236096	; 0x18c00000
 b3c:	5f746e65 	svcpl	0x00746e65
 b40:	65746163 	ldrbvs	r6, [r4, #-355]!	; 0x163
 b44:	79726f67 	ldmdbvc	r2!, {r0, r1, r2, r5, r6, r8, r9, sl, fp, sp, lr}^
 b48:	6e755f00 	cdpvs	15, 7, cr5, cr5, cr0, {0}
 b4c:	64657375 	strbtvs	r7, [r5], #-885	; 0x375
 b50:	6e61725f 	mcrvs	2, 3, r7, cr1, cr15, {2}
 b54:	775f0064 	ldrbvc	r0, [pc, -r4, rrx]
 b58:	5f007364 	svcpl	0x00007364
 b5c:	5f6d745f 	svcpl	0x006d745f
 b60:	79616477 	stmdbvc	r1!, {r0, r1, r2, r4, r5, r6, sl, sp, lr}^
 b64:	6c675f00 	stclvs	15, cr5, [r7], #-0
 b68:	47006575 	smlsdxmi	r0, r5, r5, r6
 b6c:	5f4f4950 	svcpl	0x004f4950
 b70:	434e5546 	movtmi	r5, #58694	; 0xe546
 b74:	54554f5f 	ldrbpl	r4, [r5], #-3935	; 0xf5f
 b78:	00545550 	subseq	r5, r4, r0, asr r5
 b7c:	616d6e5f 	cmnvs	sp, pc, asr lr
 b80:	636f6c6c 	cmnvs	pc, #108, 24	; 0x6c00
 b84:	366c5f00 	strbtcc	r5, [ip], -r0, lsl #30
 b88:	625f6134 	subsvs	r6, pc, #52, 2
 b8c:	67006675 	smlsdxvs	r0, r5, r6, r6
 b90:	32337465 	eorscc	r7, r3, #1694498816	; 0x65000000
 b94:	72617500 	rsbvc	r7, r1, #0, 10
 b98:	61635f74 	smcvs	13812	; 0x35f4
 b9c:	65675f6e 	strbvs	r5, [r7, #-3950]!	; 0xf6e
 ba0:	5f006374 	svcpl	0x00006374
 ba4:	5f676973 	svcpl	0x00676973
 ba8:	636e7566 	cmnvs	lr, #427819008	; 0x19800000
 bac:	5f726f00 	svcpl	0x00726f00
 bb0:	32336e69 	eorscc	r6, r3, #1680	; 0x690
 bb4:	72617500 	rsbvc	r7, r1, #0, 10
 bb8:	61685f74 	smcvs	34292	; 0x85f4
 bbc:	61645f73 	smcvs	17907	; 0x45f3
 bc0:	47006174 	smlsdxmi	r0, r4, r1, r6
 bc4:	5f4f4950 	svcpl	0x004f4950
 bc8:	434e5546 	movtmi	r5, #58694	; 0xe546
 bcc:	544c415f 	strbpl	r4, [ip], #-351	; 0x15f
 bd0:	6e5f0030 	mrcvs	0, 2, r0, cr15, cr0, {1}
 bd4:	00667562 	rsbeq	r7, r6, r2, ror #10
 bd8:	756e755f 	strbvc	r7, [lr, #-1375]!	; 0x55f
 bdc:	00646573 	rsbeq	r6, r4, r3, ror r5
 be0:	4f495047 	svcmi	0x00495047
 be4:	4e55465f 	mrcmi	6, 2, r4, cr5, cr15, {2}
 be8:	4c415f43 	mcrrmi	15, 4, r5, r1, cr3
 bec:	47003354 	smlsdmi	r0, r4, r3, r3
 bf0:	5f4f4950 	svcpl	0x004f4950
 bf4:	434e5546 	movtmi	r5, #58694	; 0xe546
 bf8:	544c415f 	strbpl	r4, [ip], #-351	; 0x15f
 bfc:	50470034 	subpl	r0, r7, r4, lsr r0
 c00:	465f4f49 	ldrbmi	r4, [pc], -r9, asr #30
 c04:	5f434e55 	svcpl	0x00434e55
 c08:	35544c41 	ldrbcc	r4, [r4, #-3137]	; 0xc41
 c0c:	745f5f00 	ldrbvc	r5, [pc], #-3840	; c14 <_start-0x73ec>
 c10:	73695f6d 	cmnvc	r9, #436	; 0x1b4
 c14:	00747364 	rsbseq	r7, r4, r4, ror #6
 c18:	636f6c5f 	cmnvs	pc, #24320	; 0x5f00
 c1c:	69746c61 	ldmdbvs	r4!, {r0, r5, r6, sl, fp, sp, lr}^
 c20:	625f656d 	subsvs	r6, pc, #457179136	; 0x1b400000
 c24:	5f006675 	svcpl	0x00006675
 c28:	736f6c63 	cmnvc	pc, #25344	; 0x6300
 c2c:	725f0065 	subsvc	r0, pc, #101	; 0x65
 c30:	5f003834 	svcpl	0x00003834
 c34:	6f74626d 	svcvs	0x0074626d
 c38:	735f6377 	cmpvc	pc, #-603979775	; 0xdc000001
 c3c:	65746174 	ldrbvs	r6, [r4, #-372]!	; 0x174
 c40:	35705f00 	ldrbcc	r5, [r0, #-3840]!	; 0xf00
 c44:	5f5f0073 	svcpl	0x005f0073
 c48:	6d5f6d74 	ldclvs	13, cr6, [pc, #-464]	; a80 <_start-0x7580>
 c4c:	00796164 	rsbseq	r6, r9, r4, ror #2
 c50:	6f697067 	svcvs	0x00697067
 c54:	7465735f 	strbtvc	r7, [r5], #-863	; 0x35f
 c58:	66666f5f 	uqsaxvs	r6, r6, pc	; <UNPREDICTABLE>
 c5c:	6e616200 	cdpvs	2, 6, cr6, cr1, cr0, {0}
 c60:	7067006b 	rsbvc	r0, r7, fp, rrx
 c64:	632e6f69 	teqvs	lr, #420	; 0x1a4
 c68:	69706700 	ldmdbvs	r0!, {r8, r9, sl, sp, lr}^
 c6c:	65725f6f 	ldrbvs	r5, [r2, #-3951]!	; 0xf6f
 c70:	67006461 	strvs	r6, [r0, -r1, ror #8]
 c74:	5f6f6970 	svcpl	0x006f6970
 c78:	5f746573 	svcpl	0x00746573
 c7c:	7074756f 	rsbsvc	r7, r4, pc, ror #10
 c80:	67007475 	smlsdxvs	r0, r5, r4, r7
 c84:	5f6f6970 	svcpl	0x006f6970
 c88:	74697277 	strbtvc	r7, [r9], #-631	; 0x277
 c8c:	70670065 	rsbvc	r0, r7, r5, rrx
 c90:	735f6f69 	cmpvc	pc, #420	; 0x1a4
 c94:	00307465 	eorseq	r7, r0, r5, ror #8
 c98:	6f697067 	svcvs	0x00697067
 c9c:	76656c5f 			; <UNDEFINED> instruction: 0x76656c5f
 ca0:	70670030 	rsbvc	r0, r7, r0, lsr r0
 ca4:	735f6f69 	cmpvc	pc, #420	; 0x1a4
 ca8:	695f7465 	ldmdbvs	pc, {r0, r2, r5, r6, sl, ip, sp, lr}^	; <UNPREDICTABLE>
 cac:	7475706e 	ldrbtvc	r7, [r5], #-110	; 0x6e
 cb0:	69706700 	ldmdbvs	r0!, {r8, r9, sl, sp, lr}^
 cb4:	65735f6f 	ldrbvs	r5, [r3, #-3951]!	; 0xf6f
 cb8:	6e6f5f74 	mcrvs	15, 3, r5, cr15, cr4, {3}
 cbc:	69706700 	ldmdbvs	r0!, {r8, r9, sl, sp, lr}^
 cc0:	75665f6f 	strbvc	r5, [r6, #-3951]!	; 0xf6f
 cc4:	745f636e 	ldrbvc	r6, [pc], #-878	; ccc <_start-0x7334>
 cc8:	69706700 	ldmdbvs	r0!, {r8, r9, sl, sp, lr}^
 ccc:	6c635f6f 	stclvs	15, cr5, [r3], #-444	; 0xfffffe44
 cd0:	6b003072 	blvs	cea0 <__bss_end__+0x26e0>
 cd4:	6c6c616d 	stfvse	f6, [ip], #-436	; 0xfffffe4c
 cd8:	632e636f 	teqvs	lr, #-1140850687	; 0xbc000001
 cdc:	616d6b00 	cmnvs	sp, r0, lsl #22
 ce0:	636f6c6c 	cmnvs	pc, #108, 24	; 0x6c00
 ce4:	696e695f 	stmdbvs	lr!, {r0, r1, r2, r3, r4, r6, r8, fp, sp, lr}^
 ce8:	6d6b0074 	stclvs	0, cr0, [fp, #-464]!	; 0xfffffe30
 cec:	6f6c6c61 	svcvs	0x006c6c61
 cf0:	6c615f63 	stclvs	15, cr5, [r1], #-396	; 0xfffffe74
 cf4:	656e6769 	strbvs	r6, [lr, #-1897]!	; 0x769
 cf8:	6f640064 	svcvs	0x00640064
 cfc:	656c6275 	strbvs	r6, [ip, #-629]!	; 0x275
 d00:	72666b00 	rsbvc	r6, r6, #0, 22
 d04:	615f6565 	cmpvs	pc, r5, ror #10
 d08:	6b006c6c 	blvs	1bec0 <__bss_end__+0x11700>
 d0c:	65657266 	strbvs	r7, [r5, #-614]!	; 0x266
 d10:	7466615f 	strbtvc	r6, [r6], #-351	; 0x15f
 d14:	6b007265 	blvs	1d6b0 <__bss_end__+0x12ef0>
 d18:	6c6c616d 	stfvse	f6, [ip], #-436	; 0xfffffe4c
 d1c:	685f636f 	ldmdavs	pc, {r0, r1, r2, r3, r5, r6, r8, r9, sp, lr}^	; <UNPREDICTABLE>
 d20:	5f706165 	svcpl	0x00706165
 d24:	00727470 	rsbseq	r7, r2, r0, ror r4
 d28:	67696c61 	strbvs	r6, [r9, -r1, ror #24]!
 d2c:	6e656d6e 	cdpvs	13, 6, cr6, cr5, cr14, {3}
 d30:	5f5f0074 	svcpl	0x005f0074
 d34:	70616568 	rsbvc	r6, r1, r8, ror #10
 d38:	6174735f 	cmnvs	r4, pc, asr r3
 d3c:	5f5f7472 	svcpl	0x005f7472
 d40:	616d6b00 	cmnvs	sp, r0, lsl #22
 d44:	636f6c6c 	cmnvs	pc, #108, 24	; 0x6c00
 d48:	6165685f 	cmnvs	r5, pc, asr r8
 d4c:	74735f70 	ldrbtvc	r5, [r3], #-3952	; 0xf70
 d50:	00747261 	rsbseq	r7, r4, r1, ror #4
 d54:	6c616d6b 	stclvs	13, cr6, [r1], #-428	; 0xfffffe54
 d58:	5f636f6c 	svcpl	0x00636f6c
 d5c:	70616568 	rsbvc	r6, r1, r8, ror #10
 d60:	646e655f 	strbtvs	r6, [lr], #-1375	; 0x55f
	...

Disassembly of section .debug_frame:

00000000 <.debug_frame>:
   0:	0000000c 	andeq	r0, r0, ip
   4:	ffffffff 			; <UNDEFINED> instruction: 0xffffffff
   8:	7c020001 	stcvc	0, cr0, [r2], {1}
   c:	000d0c0e 	andeq	r0, sp, lr, lsl #24
  10:	00000024 	andeq	r0, r0, r4, lsr #32
  14:	00000000 	andeq	r0, r0, r0
  18:	00008010 	andeq	r8, r0, r0, lsl r0
  1c:	00000074 	andeq	r0, r0, r4, ror r0
  20:	83280e42 	teqhi	r8, #1056	; 0x420
  24:	8509840a 	strhi	r8, [r9, #-1034]	; 0x40a
  28:	87078608 	strhi	r8, [r7, -r8, lsl #12]
  2c:	89058806 	stmdbhi	r5, {r1, r2, fp, pc}
  30:	8b038a04 	blhi	e2848 <__bss_end__+0xd8088>
  34:	00018e02 	andeq	r8, r1, r2, lsl #28
  38:	00000014 	andeq	r0, r0, r4, lsl r0
  3c:	00000000 	andeq	r0, r0, r0
  40:	00008084 	andeq	r8, r0, r4, lsl #1
  44:	00000040 	andeq	r0, r0, r0, asr #32
  48:	83080e42 	movwhi	r0, #36418	; 0x8e42
  4c:	00018e02 	andeq	r8, r1, r2, lsl #28
  50:	0000000c 	andeq	r0, r0, ip
  54:	ffffffff 			; <UNDEFINED> instruction: 0xffffffff
  58:	7c020001 	stcvc	0, cr0, [r2], {1}
  5c:	000d0c0e 	andeq	r0, sp, lr, lsl #24
  60:	0000001c 	andeq	r0, r0, ip, lsl r0
  64:	00000050 	andeq	r0, r0, r0, asr r0
  68:	000080c4 	andeq	r8, r0, r4, asr #1
  6c:	00000100 	andeq	r0, r0, r0, lsl #2
  70:	83180e42 	tsthi	r8, #1056	; 0x420
  74:	85058406 	strhi	r8, [r5, #-1030]	; 0x406
  78:	87038604 	strhi	r8, [r3, -r4, lsl #12]
  7c:	00018e02 	andeq	r8, r1, r2, lsl #28
  80:	00000014 	andeq	r0, r0, r4, lsl r0
  84:	00000050 	andeq	r0, r0, r0, asr r0
  88:	000081c4 	andeq	r8, r0, r4, asr #3
  8c:	00000014 	andeq	r0, r0, r4, lsl r0
  90:	83080e42 	movwhi	r0, #36418	; 0x8e42
  94:	00018e02 	andeq	r8, r1, r2, lsl #28
  98:	00000018 	andeq	r0, r0, r8, lsl r0
  9c:	00000050 	andeq	r0, r0, r0, asr r0
  a0:	000081d8 	ldrdeq	r8, [r0], -r8	; <UNPREDICTABLE>
  a4:	00000024 	andeq	r0, r0, r4, lsr #32
  a8:	83100e42 	tsthi	r0, #1056	; 0x420
  ac:	85038404 	strhi	r8, [r3, #-1028]	; 0x404
  b0:	00018e02 	andeq	r8, r1, r2, lsl #28
  b4:	00000014 	andeq	r0, r0, r4, lsl r0
  b8:	00000050 	andeq	r0, r0, r0, asr r0
  bc:	000081fc 	strdeq	r8, [r0], -ip
  c0:	00000078 	andeq	r0, r0, r8, ror r0
  c4:	84080e42 	strhi	r0, [r8], #-3650	; 0xe42
  c8:	00018e02 	andeq	r8, r1, r2, lsl #28
  cc:	00000014 	andeq	r0, r0, r4, lsl r0
  d0:	00000050 	andeq	r0, r0, r0, asr r0
  d4:	00008274 	andeq	r8, r0, r4, ror r2
  d8:	00000070 	andeq	r0, r0, r0, ror r0
  dc:	84080e42 	strhi	r0, [r8], #-3650	; 0xe42
  e0:	00018e02 	andeq	r8, r1, r2, lsl #28
  e4:	00000018 	andeq	r0, r0, r8, lsl r0
  e8:	00000050 	andeq	r0, r0, r0, asr r0
  ec:	000082e4 	andeq	r8, r0, r4, ror #5
  f0:	00000074 	andeq	r0, r0, r4, ror r0
  f4:	83100e42 	tsthi	r0, #1056	; 0x420
  f8:	85038404 	strhi	r8, [r3, #-1028]	; 0x404
  fc:	00018e02 	andeq	r8, r1, r2, lsl #28
 100:	0000001c 	andeq	r0, r0, ip, lsl r0
 104:	00000050 	andeq	r0, r0, r0, asr r0
 108:	00008358 	andeq	r8, r0, r8, asr r3
 10c:	000000bc 	strheq	r0, [r0], -ip
 110:	84180e42 	ldrhi	r0, [r8], #-3650	; 0xe42
 114:	86058506 	strhi	r8, [r5], -r6, lsl #10
 118:	88038704 	stmdahi	r3, {r2, r8, r9, sl, pc}
 11c:	00018e02 	andeq	r8, r1, r2, lsl #28
 120:	00000020 	andeq	r0, r0, r0, lsr #32
 124:	00000050 	andeq	r0, r0, r0, asr r0
 128:	00008414 	andeq	r8, r0, r4, lsl r4
 12c:	00000234 	andeq	r0, r0, r4, lsr r2
 130:	841c0e42 	ldrhi	r0, [ip], #-3650	; 0xe42
 134:	86068507 	strhi	r8, [r6], -r7, lsl #10
 138:	88048705 	stmdahi	r4, {r0, r2, r8, r9, sl, pc}
 13c:	8e028903 	cdphi	9, 0, cr8, cr2, cr3, {0}
 140:	280e4201 	stmdacs	lr, {r0, r9, lr}
 144:	00000014 	andeq	r0, r0, r4, lsl r0
 148:	00000050 	andeq	r0, r0, r0, asr r0
 14c:	00008648 	andeq	r8, r0, r8, asr #12
 150:	00000050 	andeq	r0, r0, r0, asr r0
 154:	84080e42 	strhi	r0, [r8], #-3650	; 0xe42
 158:	00018e02 	andeq	r8, r1, r2, lsl #28
 15c:	00000014 	andeq	r0, r0, r4, lsl r0
 160:	00000050 	andeq	r0, r0, r0, asr r0
 164:	00008698 	muleq	r0, r8, r6
 168:	00000074 	andeq	r0, r0, r4, ror r0
 16c:	84080e42 	strhi	r0, [r8], #-3650	; 0xe42
 170:	00018e02 	andeq	r8, r1, r2, lsl #28
 174:	0000000c 	andeq	r0, r0, ip
 178:	00000050 	andeq	r0, r0, r0, asr r0
 17c:	0000870c 	andeq	r8, r0, ip, lsl #14
 180:	00000030 	andeq	r0, r0, r0, lsr r0
 184:	00000020 	andeq	r0, r0, r0, lsr #32
 188:	00000050 	andeq	r0, r0, r0, asr r0
 18c:	0000873c 	andeq	r8, r0, ip, lsr r7
 190:	00000140 	andeq	r0, r0, r0, asr #2
 194:	83200e42 	teqhi	r0, #1056	; 0x420
 198:	85078408 	strhi	r8, [r7, #-1032]	; 0x408
 19c:	87058606 	strhi	r8, [r5, -r6, lsl #12]
 1a0:	89038804 	stmdbhi	r3, {r2, fp, pc}
 1a4:	00018e02 	andeq	r8, r1, r2, lsl #28
 1a8:	0000000c 	andeq	r0, r0, ip
 1ac:	ffffffff 			; <UNDEFINED> instruction: 0xffffffff
 1b0:	7c020001 	stcvc	0, cr0, [r2], {1}
 1b4:	000d0c0e 	andeq	r0, sp, lr, lsl #24
 1b8:	0000000c 	andeq	r0, r0, ip
 1bc:	000001a8 	andeq	r0, r0, r8, lsr #3
 1c0:	0000887c 	andeq	r8, r0, ip, ror r8
 1c4:	00000018 	andeq	r0, r0, r8, lsl r0
 1c8:	00000014 	andeq	r0, r0, r4, lsl r0
 1cc:	000001a8 	andeq	r0, r0, r8, lsr #3
 1d0:	00008894 	muleq	r0, r4, r8
 1d4:	00000050 	andeq	r0, r0, r0, asr r0
 1d8:	84080e42 	strhi	r0, [r8], #-3650	; 0xe42
 1dc:	00018e02 	andeq	r8, r1, r2, lsl #28
 1e0:	00000018 	andeq	r0, r0, r8, lsl r0
 1e4:	000001a8 	andeq	r0, r0, r8, lsr #3
 1e8:	000088e4 	andeq	r8, r0, r4, ror #17
 1ec:	00000098 	muleq	r0, r8, r0
 1f0:	84100e42 	ldrhi	r0, [r0], #-3650	; 0xe42
 1f4:	86038504 	strhi	r8, [r3], -r4, lsl #10
 1f8:	00018e02 	andeq	r8, r1, r2, lsl #28
 1fc:	0000001c 	andeq	r0, r0, ip, lsl r0
 200:	000001a8 	andeq	r0, r0, r8, lsr #3
 204:	0000897c 	andeq	r8, r0, ip, ror r9
 208:	000000ec 	andeq	r0, r0, ip, ror #1
 20c:	83180e42 	tsthi	r8, #1056	; 0x420
 210:	85058406 	strhi	r8, [r5, #-1030]	; 0x406
 214:	87038604 	strhi	r8, [r3, -r4, lsl #12]
 218:	00018e02 	andeq	r8, r1, r2, lsl #28
 21c:	00000018 	andeq	r0, r0, r8, lsl r0
 220:	000001a8 	andeq	r0, r0, r8, lsr #3
 224:	00008a68 	andeq	r8, r0, r8, ror #20
 228:	000000bc 	strheq	r0, [r0], -ip
 22c:	84080e42 	strhi	r0, [r8], #-3650	; 0xe42
 230:	42018e02 	andmi	r8, r1, #2, 28
 234:	0000580e 	andeq	r5, r0, lr, lsl #16
 238:	00000014 	andeq	r0, r0, r4, lsl r0
 23c:	000001a8 	andeq	r0, r0, r8, lsr #3
 240:	00008b24 	andeq	r8, r0, r4, lsr #22
 244:	00000044 	andeq	r0, r0, r4, asr #32
 248:	83080e42 	movwhi	r0, #36418	; 0x8e42
 24c:	00018e02 	andeq	r8, r1, r2, lsl #28
 250:	00000014 	andeq	r0, r0, r4, lsl r0
 254:	000001a8 	andeq	r0, r0, r8, lsr #3
 258:	00008b68 	andeq	r8, r0, r8, ror #22
 25c:	00000018 	andeq	r0, r0, r8, lsl r0
 260:	84080e42 	strhi	r0, [r8], #-3650	; 0xe42
 264:	00018e02 	andeq	r8, r1, r2, lsl #28
 268:	00000014 	andeq	r0, r0, r4, lsl r0
 26c:	000001a8 	andeq	r0, r0, r8, lsr #3
 270:	00008b80 	andeq	r8, r0, r0, lsl #23
 274:	00000098 	muleq	r0, r8, r0
 278:	83080e42 	movwhi	r0, #36418	; 0x8e42
 27c:	00018e02 	andeq	r8, r1, r2, lsl #28
 280:	00000014 	andeq	r0, r0, r4, lsl r0
 284:	000001a8 	andeq	r0, r0, r8, lsr #3
 288:	00008c18 	andeq	r8, r0, r8, lsl ip
 28c:	000000a0 	andeq	r0, r0, r0, lsr #1
 290:	84080e42 	strhi	r0, [r8], #-3650	; 0xe42
 294:	00018e02 	andeq	r8, r1, r2, lsl #28
 298:	00000014 	andeq	r0, r0, r4, lsl r0
 29c:	000001a8 	andeq	r0, r0, r8, lsr #3
 2a0:	00008cb8 			; <UNDEFINED> instruction: 0x00008cb8
 2a4:	0000002c 	andeq	r0, r0, ip, lsr #32
 2a8:	83080e42 	movwhi	r0, #36418	; 0x8e42
 2ac:	00018e02 	andeq	r8, r1, r2, lsl #28
 2b0:	00000014 	andeq	r0, r0, r4, lsl r0
 2b4:	000001a8 	andeq	r0, r0, r8, lsr #3
 2b8:	00008ce4 	andeq	r8, r0, r4, ror #25
 2bc:	0000000c 	andeq	r0, r0, ip
 2c0:	83080e42 	movwhi	r0, #36418	; 0x8e42
 2c4:	00018e02 	andeq	r8, r1, r2, lsl #28
 2c8:	0000000c 	andeq	r0, r0, ip
 2cc:	ffffffff 			; <UNDEFINED> instruction: 0xffffffff
 2d0:	7c020001 	stcvc	0, cr0, [r2], {1}
 2d4:	000d0c0e 	andeq	r0, sp, lr, lsl #24
 2d8:	00000014 	andeq	r0, r0, r4, lsl r0
 2dc:	000002c8 	andeq	r0, r0, r8, asr #5
 2e0:	00008d34 	andeq	r8, r0, r4, lsr sp
 2e4:	000000f0 	strdeq	r0, [r0], -r0	; <UNPREDICTABLE>
 2e8:	84040e42 	strhi	r0, [r4], #-3650	; 0xe42
 2ec:	00000001 	andeq	r0, r0, r1
 2f0:	0000000c 	andeq	r0, r0, ip
 2f4:	ffffffff 			; <UNDEFINED> instruction: 0xffffffff
 2f8:	7c020001 	stcvc	0, cr0, [r2], {1}
 2fc:	000d0c0e 	andeq	r0, sp, lr, lsl #24
 300:	0000000c 	andeq	r0, r0, ip
 304:	000002f0 	strdeq	r0, [r0], -r0	; <UNPREDICTABLE>
 308:	00008e24 	andeq	r8, r0, r4, lsr #28
 30c:	00000020 	andeq	r0, r0, r0, lsr #32
 310:	0000000c 	andeq	r0, r0, ip
 314:	ffffffff 			; <UNDEFINED> instruction: 0xffffffff
 318:	7c020001 	stcvc	0, cr0, [r2], {1}
 31c:	000d0c0e 	andeq	r0, sp, lr, lsl #24
 320:	00000024 	andeq	r0, r0, r4, lsr #32
 324:	00000310 	andeq	r0, r0, r0, lsl r3
 328:	00008e44 	andeq	r8, r0, r4, asr #28
 32c:	00000058 	andeq	r0, r0, r8, asr r0
 330:	80100e42 	andshi	r0, r0, r2, asr #28
 334:	82038104 	andhi	r8, r3, #4, 2
 338:	42018302 	andmi	r8, r1, #134217728	; 0x8000000
 33c:	07841c0e 	streq	r1, [r4, lr, lsl #24]
 340:	058e0685 	streq	r0, [lr, #1669]	; 0x685
 344:	00280e42 	eoreq	r0, r8, r2, asr #28
 348:	0000000c 	andeq	r0, r0, ip
 34c:	ffffffff 			; <UNDEFINED> instruction: 0xffffffff
 350:	7c020001 	stcvc	0, cr0, [r2], {1}
 354:	000d0c0e 	andeq	r0, sp, lr, lsl #24
 358:	00000014 	andeq	r0, r0, r4, lsl r0
 35c:	00000348 	andeq	r0, r0, r8, asr #6
 360:	00008e9c 	muleq	r0, ip, lr
 364:	00000014 	andeq	r0, r0, r4, lsl r0
 368:	84080e42 	strhi	r0, [r8], #-3650	; 0xe42
 36c:	00018e02 	andeq	r8, r1, r2, lsl #28
 370:	0000000c 	andeq	r0, r0, ip
 374:	00000348 	andeq	r0, r0, r8, asr #6
 378:	00008eb0 			; <UNDEFINED> instruction: 0x00008eb0
 37c:	00000018 	andeq	r0, r0, r8, lsl r0
 380:	0000000c 	andeq	r0, r0, ip
 384:	00000348 	andeq	r0, r0, r8, asr #6
 388:	00008ec8 	andeq	r8, r0, r8, asr #29
 38c:	00000010 	andeq	r0, r0, r0, lsl r0
 390:	0000000c 	andeq	r0, r0, ip
 394:	ffffffff 			; <UNDEFINED> instruction: 0xffffffff
 398:	7c020001 	stcvc	0, cr0, [r2], {1}
 39c:	000d0c0e 	andeq	r0, sp, lr, lsl #24
 3a0:	00000018 	andeq	r0, r0, r8, lsl r0
 3a4:	00000390 	muleq	r0, r0, r3
 3a8:	00008ed8 	ldrdeq	r8, [r0], -r8	; <UNPREDICTABLE>
 3ac:	00000034 	andeq	r0, r0, r4, lsr r0
 3b0:	83100e42 	tsthi	r0, #1056	; 0x420
 3b4:	85038404 	strhi	r8, [r3, #-1028]	; 0x404
 3b8:	00018e02 	andeq	r8, r1, r2, lsl #28
 3bc:	0000000c 	andeq	r0, r0, ip
 3c0:	ffffffff 			; <UNDEFINED> instruction: 0xffffffff
 3c4:	7c020001 	stcvc	0, cr0, [r2], {1}
 3c8:	000d0c0e 	andeq	r0, sp, lr, lsl #24
 3cc:	0000000c 	andeq	r0, r0, ip
 3d0:	000003bc 			; <UNDEFINED> instruction: 0x000003bc
 3d4:	00008f0c 	andeq	r8, r0, ip, lsl #30
 3d8:	00000014 	andeq	r0, r0, r4, lsl r0
 3dc:	0000000c 	andeq	r0, r0, ip
 3e0:	000003bc 			; <UNDEFINED> instruction: 0x000003bc
 3e4:	00008f20 	andeq	r8, r0, r0, lsr #30
 3e8:	0000002c 	andeq	r0, r0, ip, lsr #32
 3ec:	0000000c 	andeq	r0, r0, ip
 3f0:	000003bc 			; <UNDEFINED> instruction: 0x000003bc
 3f4:	00008f4c 	andeq	r8, r0, ip, asr #30
 3f8:	00000040 	andeq	r0, r0, r0, asr #32
 3fc:	00000020 	andeq	r0, r0, r0, lsr #32
 400:	000003bc 			; <UNDEFINED> instruction: 0x000003bc
 404:	00008f8c 	andeq	r8, r0, ip, lsl #31
 408:	000001b0 			; <UNDEFINED> instruction: 0x000001b0
 40c:	84180e42 	ldrhi	r0, [r8], #-3650	; 0xe42
 410:	86058506 	strhi	r8, [r5], -r6, lsl #10
 414:	88038704 	stmdahi	r3, {r2, r8, r9, sl, pc}
 418:	42018e02 	andmi	r8, r1, #2, 28
 41c:	0000580e 	andeq	r5, r0, lr, lsl #16
 420:	00000014 	andeq	r0, r0, r4, lsl r0
 424:	000003bc 			; <UNDEFINED> instruction: 0x000003bc
 428:	0000913c 	andeq	r9, r0, ip, lsr r1
 42c:	00000054 	andeq	r0, r0, r4, asr r0
 430:	83080e42 	movwhi	r0, #36418	; 0x8e42
 434:	00018e02 	andeq	r8, r1, r2, lsl #28
 438:	00000028 	andeq	r0, r0, r8, lsr #32
 43c:	000003bc 			; <UNDEFINED> instruction: 0x000003bc
 440:	00009190 	muleq	r0, r0, r1
 444:	00000288 	andeq	r0, r0, r8, lsl #5
 448:	84240e42 	strthi	r0, [r4], #-3650	; 0xe42
 44c:	86088509 	strhi	r8, [r8], -r9, lsl #10
 450:	88068707 	stmdahi	r6, {r0, r1, r2, r8, r9, sl, pc}
 454:	8a048905 	bhi	122870 <__bss_end__+0x1180b0>
 458:	8e028b03 	vmlahi.f64	d8, d2, d3
 45c:	b00e4201 	andlt	r4, lr, r1, lsl #4
 460:	00000001 	andeq	r0, r0, r1
 464:	0000000c 	andeq	r0, r0, ip
 468:	ffffffff 			; <UNDEFINED> instruction: 0xffffffff
 46c:	7c020001 	stcvc	0, cr0, [r2], {1}
 470:	000d0c0e 	andeq	r0, sp, lr, lsl #24
 474:	00000014 	andeq	r0, r0, r4, lsl r0
 478:	00000464 	andeq	r0, r0, r4, ror #8
 47c:	00009418 	andeq	r9, r0, r8, lsl r4
 480:	00000028 	andeq	r0, r0, r8, lsr #32
 484:	83080e42 	movwhi	r0, #36418	; 0x8e42
 488:	00018e02 	andeq	r8, r1, r2, lsl #28
 48c:	0000000c 	andeq	r0, r0, ip
 490:	ffffffff 			; <UNDEFINED> instruction: 0xffffffff
 494:	7c020001 	stcvc	0, cr0, [r2], {1}
 498:	000d0c0e 	andeq	r0, sp, lr, lsl #24
 49c:	00000014 	andeq	r0, r0, r4, lsl r0
 4a0:	0000048c 	andeq	r0, r0, ip, lsl #9
 4a4:	00009440 	andeq	r9, r0, r0, asr #8
 4a8:	00000034 	andeq	r0, r0, r4, lsr r0
 4ac:	83080e42 	movwhi	r0, #36418	; 0x8e42
 4b0:	00018e02 	andeq	r8, r1, r2, lsl #28
 4b4:	0000000c 	andeq	r0, r0, ip
 4b8:	ffffffff 			; <UNDEFINED> instruction: 0xffffffff
 4bc:	7c020001 	stcvc	0, cr0, [r2], {1}
 4c0:	000d0c0e 	andeq	r0, sp, lr, lsl #24
 4c4:	0000000c 	andeq	r0, r0, ip
 4c8:	000004b4 			; <UNDEFINED> instruction: 0x000004b4
 4cc:	00009474 	andeq	r9, r0, r4, ror r4
 4d0:	00000018 	andeq	r0, r0, r8, lsl r0
 4d4:	0000000c 	andeq	r0, r0, ip
 4d8:	000004b4 			; <UNDEFINED> instruction: 0x000004b4
 4dc:	0000948c 	andeq	r9, r0, ip, lsl #9
 4e0:	00000014 	andeq	r0, r0, r4, lsl r0
 4e4:	00000014 	andeq	r0, r0, r4, lsl r0
 4e8:	000004b4 			; <UNDEFINED> instruction: 0x000004b4
 4ec:	000094a0 	andeq	r9, r0, r0, lsr #9
 4f0:	00000048 	andeq	r0, r0, r8, asr #32
 4f4:	83080e42 	movwhi	r0, #36418	; 0x8e42
 4f8:	00018e02 	andeq	r8, r1, r2, lsl #28
 4fc:	0000000c 	andeq	r0, r0, ip
 500:	ffffffff 			; <UNDEFINED> instruction: 0xffffffff
 504:	7c020001 	stcvc	0, cr0, [r2], {1}
 508:	000d0c0e 	andeq	r0, sp, lr, lsl #24
 50c:	0000000c 	andeq	r0, r0, ip
 510:	000004fc 	strdeq	r0, [r0], -ip
 514:	000094e8 	andeq	r9, r0, r8, ror #9
 518:	0000001c 	andeq	r0, r0, ip, lsl r0
 51c:	00000014 	andeq	r0, r0, r4, lsl r0
 520:	000004fc 	strdeq	r0, [r0], -ip
 524:	00009504 	andeq	r9, r0, r4, lsl #10
 528:	00000014 	andeq	r0, r0, r4, lsl r0
 52c:	83080e42 	movwhi	r0, #36418	; 0x8e42
 530:	00018e02 	andeq	r8, r1, r2, lsl #28
 534:	00000014 	andeq	r0, r0, r4, lsl r0
 538:	000004fc 	strdeq	r0, [r0], -ip
 53c:	00009518 	andeq	r9, r0, r8, lsl r5
 540:	0000000c 	andeq	r0, r0, ip
 544:	83080e42 	movwhi	r0, #36418	; 0x8e42
 548:	00018e02 	andeq	r8, r1, r2, lsl #28
 54c:	00000018 	andeq	r0, r0, r8, lsl r0
 550:	000004fc 	strdeq	r0, [r0], -ip
 554:	00009524 	andeq	r9, r0, r4, lsr #10
 558:	00000024 	andeq	r0, r0, r4, lsr #32
 55c:	83100e42 	tsthi	r0, #1056	; 0x420
 560:	85038404 	strhi	r8, [r3, #-1028]	; 0x404
 564:	00018e02 	andeq	r8, r1, r2, lsl #28
 568:	00000014 	andeq	r0, r0, r4, lsl r0
 56c:	000004fc 	strdeq	r0, [r0], -ip
 570:	00009548 	andeq	r9, r0, r8, asr #10
 574:	00000014 	andeq	r0, r0, r4, lsl r0
 578:	83080e42 	movwhi	r0, #36418	; 0x8e42
 57c:	00018e02 	andeq	r8, r1, r2, lsl #28
 580:	00000014 	andeq	r0, r0, r4, lsl r0
 584:	000004fc 	strdeq	r0, [r0], -ip
 588:	0000955c 	andeq	r9, r0, ip, asr r5
 58c:	00000014 	andeq	r0, r0, r4, lsl r0
 590:	83080e42 	movwhi	r0, #36418	; 0x8e42
 594:	00018e02 	andeq	r8, r1, r2, lsl #28
 598:	0000000c 	andeq	r0, r0, ip
 59c:	ffffffff 			; <UNDEFINED> instruction: 0xffffffff
 5a0:	7c020001 	stcvc	0, cr0, [r2], {1}
 5a4:	000d0c0e 	andeq	r0, sp, lr, lsl #24
 5a8:	00000018 	andeq	r0, r0, r8, lsl r0
 5ac:	00000598 	muleq	r0, r8, r5
 5b0:	000095bc 			; <UNDEFINED> instruction: 0x000095bc
 5b4:	00000020 	andeq	r0, r0, r0, lsr #32
 5b8:	84100e42 	ldrhi	r0, [r0], #-3650	; 0xe42
 5bc:	86038504 	strhi	r8, [r3], -r4, lsl #10
 5c0:	00018e02 	andeq	r8, r1, r2, lsl #28
 5c4:	00000014 	andeq	r0, r0, r4, lsl r0
 5c8:	00000598 	muleq	r0, r8, r5
 5cc:	000095dc 	ldrdeq	r9, [r0], -ip
 5d0:	000000b0 	strheq	r0, [r0], -r0	; <UNPREDICTABLE>
 5d4:	84080e42 	strhi	r0, [r8], #-3650	; 0xe42
 5d8:	00018e02 	andeq	r8, r1, r2, lsl #28
 5dc:	00000014 	andeq	r0, r0, r4, lsl r0
 5e0:	00000598 	muleq	r0, r8, r5
 5e4:	0000968c 	andeq	r9, r0, ip, lsl #13
 5e8:	00000018 	andeq	r0, r0, r8, lsl r0
 5ec:	84080e42 	strhi	r0, [r8], #-3650	; 0xe42
 5f0:	00018e02 	andeq	r8, r1, r2, lsl #28
 5f4:	00000014 	andeq	r0, r0, r4, lsl r0
 5f8:	00000598 	muleq	r0, r8, r5
 5fc:	000096a4 	andeq	r9, r0, r4, lsr #13
 600:	00000020 	andeq	r0, r0, r0, lsr #32
 604:	84080e42 	strhi	r0, [r8], #-3650	; 0xe42
 608:	00018e02 	andeq	r8, r1, r2, lsl #28
 60c:	00000014 	andeq	r0, r0, r4, lsl r0
 610:	00000598 	muleq	r0, r8, r5
 614:	000096c4 	andeq	r9, r0, r4, asr #13
 618:	00000030 	andeq	r0, r0, r0, lsr r0
 61c:	84080e42 	strhi	r0, [r8], #-3650	; 0xe42
 620:	00018e02 	andeq	r8, r1, r2, lsl #28
 624:	00000014 	andeq	r0, r0, r4, lsl r0
 628:	00000598 	muleq	r0, r8, r5
 62c:	000096f4 	strdeq	r9, [r0], -r4
 630:	00000030 	andeq	r0, r0, r0, lsr r0
 634:	84080e42 	strhi	r0, [r8], #-3650	; 0xe42
 638:	00018e02 	andeq	r8, r1, r2, lsl #28
 63c:	00000014 	andeq	r0, r0, r4, lsl r0
 640:	00000598 	muleq	r0, r8, r5
 644:	00009724 	andeq	r9, r0, r4, lsr #14
 648:	00000010 	andeq	r0, r0, r0, lsl r0
 64c:	84080e42 	strhi	r0, [r8], #-3650	; 0xe42
 650:	00018e02 	andeq	r8, r1, r2, lsl #28
 654:	0000000c 	andeq	r0, r0, ip
 658:	ffffffff 			; <UNDEFINED> instruction: 0xffffffff
 65c:	7c020001 	stcvc	0, cr0, [r2], {1}
 660:	000d0c0e 	andeq	r0, sp, lr, lsl #24
 664:	00000018 	andeq	r0, r0, r8, lsl r0
 668:	00000654 	andeq	r0, r0, r4, asr r6
 66c:	00009734 	andeq	r9, r0, r4, lsr r7
 670:	00000068 	andeq	r0, r0, r8, rrx
 674:	84100e4a 	ldrhi	r0, [r0], #-3658	; 0xe4a
 678:	86038504 	strhi	r8, [r3], -r4, lsl #10
 67c:	00018e02 	andeq	r8, r1, r2, lsl #28
 680:	00000014 	andeq	r0, r0, r4, lsl r0
 684:	00000654 	andeq	r0, r0, r4, asr r6
 688:	0000979c 	muleq	r0, ip, r7
 68c:	00000010 	andeq	r0, r0, r0, lsl r0
 690:	84080e42 	strhi	r0, [r8], #-3650	; 0xe42
 694:	00018e02 	andeq	r8, r1, r2, lsl #28
 698:	00000014 	andeq	r0, r0, r4, lsl r0
 69c:	00000654 	andeq	r0, r0, r4, asr r6
 6a0:	000097ac 	andeq	r9, r0, ip, lsr #15
 6a4:	00000024 	andeq	r0, r0, r4, lsr #32
 6a8:	84080e46 	strhi	r0, [r8], #-3654	; 0xe46
 6ac:	00018e02 	andeq	r8, r1, r2, lsl #28
 6b0:	00000014 	andeq	r0, r0, r4, lsl r0
 6b4:	00000654 	andeq	r0, r0, r4, asr r6
 6b8:	000097d0 	ldrdeq	r9, [r0], -r0
 6bc:	00000024 	andeq	r0, r0, r4, lsr #32
 6c0:	84080e46 	strhi	r0, [r8], #-3654	; 0xe46
 6c4:	00018e02 	andeq	r8, r1, r2, lsl #28
 6c8:	00000014 	andeq	r0, r0, r4, lsl r0
 6cc:	00000654 	andeq	r0, r0, r4, asr r6
 6d0:	000097f4 	strdeq	r9, [r0], -r4
 6d4:	00000010 	andeq	r0, r0, r0, lsl r0
 6d8:	84080e42 	strhi	r0, [r8], #-3650	; 0xe42
 6dc:	00018e02 	andeq	r8, r1, r2, lsl #28
 6e0:	00000014 	andeq	r0, r0, r4, lsl r0
 6e4:	00000654 	andeq	r0, r0, r4, asr r6
 6e8:	00009804 	andeq	r9, r0, r4, lsl #16
 6ec:	0000001c 	andeq	r0, r0, ip, lsl r0
 6f0:	84080e42 	strhi	r0, [r8], #-3650	; 0xe42
 6f4:	00018e02 	andeq	r8, r1, r2, lsl #28
 6f8:	00000018 	andeq	r0, r0, r8, lsl r0
 6fc:	00000654 	andeq	r0, r0, r4, asr r6
 700:	00009820 	andeq	r9, r0, r0, lsr #16
 704:	00000034 	andeq	r0, r0, r4, lsr r0
 708:	84080e46 	strhi	r0, [r8], #-3654	; 0xe46
 70c:	4e018e02 	cdpmi	14, 0, cr8, cr1, cr2, {0}
 710:	cec4000e 	cdpgt	0, 12, cr0, cr4, cr14, {0}
 714:	0000000c 	andeq	r0, r0, ip
 718:	ffffffff 			; <UNDEFINED> instruction: 0xffffffff
 71c:	7c020001 	stcvc	0, cr0, [r2], {1}
 720:	000d0c0e 	andeq	r0, sp, lr, lsl #24
 724:	0000000c 	andeq	r0, r0, ip
 728:	00000714 	andeq	r0, r0, r4, lsl r7
 72c:	00009854 	andeq	r9, r0, r4, asr r8
 730:	00000010 	andeq	r0, r0, r0, lsl r0
 734:	0000000c 	andeq	r0, r0, ip
 738:	00000714 	andeq	r0, r0, r4, lsl r7
 73c:	00009864 	andeq	r9, r0, r4, ror #16
 740:	0000000c 	andeq	r0, r0, ip
 744:	00000014 	andeq	r0, r0, r4, lsl r0
 748:	00000714 	andeq	r0, r0, r4, lsl r7
 74c:	00009870 	andeq	r9, r0, r0, ror r8
 750:	00000050 	andeq	r0, r0, r0, asr r0
 754:	84080e52 	strhi	r0, [r8], #-3666	; 0xe52
 758:	00018e02 	andeq	r8, r1, r2, lsl #28
 75c:	00000014 	andeq	r0, r0, r4, lsl r0
 760:	00000714 	andeq	r0, r0, r4, lsl r7
 764:	000098c0 	andeq	r9, r0, r0, asr #17
 768:	00000064 	andeq	r0, r0, r4, rrx
 76c:	84080e42 	strhi	r0, [r8], #-3650	; 0xe42
 770:	00018e02 	andeq	r8, r1, r2, lsl #28
 774:	0000000c 	andeq	r0, r0, ip
 778:	00000714 	andeq	r0, r0, r4, lsl r7
 77c:	00009924 	andeq	r9, r0, r4, lsr #18
 780:	00000004 	andeq	r0, r0, r4
 784:	00000014 	andeq	r0, r0, r4, lsl r0
 788:	00000714 	andeq	r0, r0, r4, lsl r7
 78c:	00009928 	andeq	r9, r0, r8, lsr #18
 790:	0000000c 	andeq	r0, r0, ip
 794:	84080e42 	strhi	r0, [r8], #-3650	; 0xe42
 798:	00018e02 	andeq	r8, r1, r2, lsl #28
 79c:	00000014 	andeq	r0, r0, r4, lsl r0
 7a0:	00000714 	andeq	r0, r0, r4, lsl r7
 7a4:	00009934 	andeq	r9, r0, r4, lsr r9
 7a8:	0000008c 	andeq	r0, r0, ip, lsl #1
 7ac:	84080e42 	strhi	r0, [r8], #-3650	; 0xe42
 7b0:	00018e02 	andeq	r8, r1, r2, lsl #28
 7b4:	0000000c 	andeq	r0, r0, ip
 7b8:	00000714 	andeq	r0, r0, r4, lsl r7
 7bc:	000099c0 	andeq	r9, r0, r0, asr #19
 7c0:	00000004 	andeq	r0, r0, r4
 7c4:	0000000c 	andeq	r0, r0, ip
 7c8:	00000714 	andeq	r0, r0, r4, lsl r7
 7cc:	000099c4 	andeq	r9, r0, r4, asr #19
 7d0:	00000014 	andeq	r0, r0, r4, lsl r0
 7d4:	0000000c 	andeq	r0, r0, ip
 7d8:	00000714 	andeq	r0, r0, r4, lsl r7
 7dc:	000099d8 	ldrdeq	r9, [r0], -r8
 7e0:	00000010 	andeq	r0, r0, r0, lsl r0
