
tests/part2-test3.elf:     file format elf32-littlearm


Disassembly of section .text:

00008000 <_start>:
    8000:	e3a0d302 	mov	sp, #134217728	; 0x8000000
    8004:	e3a0b000 	mov	fp, #0
    8008:	eb000578 	bl	95f0 <_cstart>
    800c:	eb00058f 	bl	9650 <rpi_reboot>

00008010 <test>:
    8010:	e92d4ff8 	push	{r3, r4, r5, r6, r7, r8, r9, sl, fp, lr}
    8014:	e3a05000 	mov	r5, #0
    8018:	e1a06005 	mov	r6, r5
    801c:	e59fb058 	ldr	fp, [pc, #88]	; 807c <test+0x6c>
    8020:	e59fa058 	ldr	sl, [pc, #88]	; 8080 <test+0x70>
    8024:	e3a08008 	mov	r8, #8
    8028:	e3a09012 	mov	r9, #18
    802c:	e1a07005 	mov	r7, r5
    8030:	ea00000c 	b	8068 <test+0x58>
    8034:	e1a00008 	mov	r0, r8
    8038:	e1a0100b 	mov	r1, fp
    803c:	e1a0200a 	mov	r2, sl
    8040:	e1a03009 	mov	r3, r9
    8044:	eb0000fc 	bl	843c <ckalloc>
    8048:	e1a04000 	mov	r4, r0
    804c:	e1a01007 	mov	r1, r7
    8050:	e1a02008 	mov	r2, r8
    8054:	eb0003de 	bl	8fd4 <memset>
    8058:	e5847000 	str	r7, [r4]
    805c:	e5846004 	str	r6, [r4, #4]
    8060:	e2855001 	add	r5, r5, #1
    8064:	e1a06004 	mov	r6, r4
    8068:	e3550063 	cmp	r5, #99	; 0x63
    806c:	dafffff0 	ble	8034 <test+0x24>
    8070:	eb000339 	bl	8d5c <check_no_leak>
    8074:	e1a00006 	mov	r0, r6
    8078:	e8bd8ff8 	pop	{r3, r4, r5, r6, r7, r8, r9, sl, fp, pc}
    807c:	00009bc8 	andeq	r9, r0, r8, asr #23
    8080:	00009bc0 	andeq	r9, r0, r0, asr #23

00008084 <notmain>:
    8084:	e92d4008 	push	{r3, lr}
    8088:	e59f002c 	ldr	r0, [pc, #44]	; 80bc <notmain+0x38>
    808c:	eb0003d8 	bl	8ff4 <printk>
    8090:	e3a00601 	mov	r0, #1048576	; 0x100000
    8094:	eb000661 	bl	9a20 <kmalloc_init_set_start>
    8098:	e3a00601 	mov	r0, #1048576	; 0x100000
    809c:	eb000673 	bl	9a70 <kmalloc>
    80a0:	e3a01601 	mov	r1, #1048576	; 0x100000
    80a4:	eb000088 	bl	82cc <ck_init>
    80a8:	ebffffd8 	bl	8010 <test>
    80ac:	e1a01000 	mov	r1, r0
    80b0:	e59f0008 	ldr	r0, [pc, #8]	; 80c0 <notmain+0x3c>
    80b4:	eb0003ce 	bl	8ff4 <printk>
    80b8:	e8bd8008 	pop	{r3, pc}
    80bc:	00009bdc 	ldrdeq	r9, [r0], -ip
    80c0:	00009c20 	andeq	r9, r0, r0, lsr #24

000080c4 <check_mem>:
    80c4:	e92d40f8 	push	{r3, r4, r5, r6, r7, lr}
    80c8:	e1a06002 	mov	r6, r2
    80cc:	e1a05003 	mov	r5, r3
    80d0:	e3a04000 	mov	r4, #0
    80d4:	ea00002a 	b	8184 <check_mem+0xc0>
    80d8:	e7d0c004 	ldrb	ip, [r0, r4]
    80dc:	e35c00fe 	cmp	ip, #254	; 0xfe
    80e0:	0a000026 	beq	8180 <check_mem+0xbc>
    80e4:	e59f70b8 	ldr	r7, [pc, #184]	; 81a4 <check_mem+0xe0>
    80e8:	e1a00007 	mov	r0, r7
    80ec:	eb0003c0 	bl	8ff4 <printk>
    80f0:	e59f00b0 	ldr	r0, [pc, #176]	; 81a8 <check_mem+0xe4>
    80f4:	eb0003be 	bl	8ff4 <printk>
    80f8:	e59f00ac 	ldr	r0, [pc, #172]	; 81ac <check_mem+0xe8>
    80fc:	e28510b8 	add	r1, r5, #184	; 0xb8
    8100:	e0842006 	add	r2, r4, r6
    8104:	eb0003ba 	bl	8ff4 <printk>
    8108:	e1a00007 	mov	r0, r7
    810c:	eb0003b8 	bl	8ff4 <printk>
    8110:	e59f0098 	ldr	r0, [pc, #152]	; 81b0 <check_mem+0xec>
    8114:	e5951000 	ldr	r1, [r5]
    8118:	eb0003b5 	bl	8ff4 <printk>
    811c:	e5953010 	ldr	r3, [r5, #16]
    8120:	e3530000 	cmp	r3, #0
    8124:	0a000006 	beq	8144 <check_mem+0x80>
    8128:	e1a00007 	mov	r0, r7
    812c:	eb0003b0 	bl	8ff4 <printk>
    8130:	e59f007c 	ldr	r0, [pc, #124]	; 81b4 <check_mem+0xf0>
    8134:	e5951010 	ldr	r1, [r5, #16]
    8138:	e5952014 	ldr	r2, [r5, #20]
    813c:	e5953018 	ldr	r3, [r5, #24]
    8140:	eb0003ab 	bl	8ff4 <printk>
    8144:	e5953008 	ldr	r3, [r5, #8]
    8148:	e353000c 	cmp	r3, #12
    814c:	1a000010 	bne	8194 <check_mem+0xd0>
    8150:	e595301c 	ldr	r3, [r5, #28]
    8154:	e3530000 	cmp	r3, #0
    8158:	0a00000f 	beq	819c <check_mem+0xd8>
    815c:	e59f0040 	ldr	r0, [pc, #64]	; 81a4 <check_mem+0xe0>
    8160:	eb0003a3 	bl	8ff4 <printk>
    8164:	e59f004c 	ldr	r0, [pc, #76]	; 81b8 <check_mem+0xf4>
    8168:	e595101c 	ldr	r1, [r5, #28]
    816c:	e5952020 	ldr	r2, [r5, #32]
    8170:	e5953024 	ldr	r3, [r5, #36]	; 0x24
    8174:	eb00039e 	bl	8ff4 <printk>
    8178:	e3a00000 	mov	r0, #0
    817c:	e8bd80f8 	pop	{r3, r4, r5, r6, r7, pc}
    8180:	e2844001 	add	r4, r4, #1
    8184:	e1540001 	cmp	r4, r1
    8188:	3affffd2 	bcc	80d8 <check_mem+0x14>
    818c:	e3a00001 	mov	r0, #1
    8190:	e8bd80f8 	pop	{r3, r4, r5, r6, r7, pc}
    8194:	e3a00000 	mov	r0, #0
    8198:	e8bd80f8 	pop	{r3, r4, r5, r6, r7, pc}
    819c:	e3a00000 	mov	r0, #0
    81a0:	e8bd80f8 	pop	{r3, r4, r5, r6, r7, pc}
    81a4:	00009c48 	andeq	r9, r0, r8, asr #24
    81a8:	00009c50 	andeq	r9, r0, r0, asr ip
    81ac:	00009c58 	andeq	r9, r0, r8, asr ip
    81b0:	00009c7c 	andeq	r9, r0, ip, ror ip
    81b4:	00009c88 	andeq	r9, r0, r8, lsl #25
    81b8:	00009ca8 	andeq	r9, r0, r8, lsr #25

000081bc <mark_mem>:
    81bc:	e92d4008 	push	{r3, lr}
    81c0:	e1a02001 	mov	r2, r1
    81c4:	e3a010fe 	mov	r1, #254	; 0xfe
    81c8:	eb000381 	bl	8fd4 <memset>
    81cc:	e8bd8008 	pop	{r3, pc}

000081d0 <hdr_cksum>:
    81d0:	e92d41f0 	push	{r4, r5, r6, r7, r8, lr}
    81d4:	e1a04000 	mov	r4, r0
    81d8:	e590800c 	ldr	r8, [r0, #12]
    81dc:	e5907028 	ldr	r7, [r0, #40]	; 0x28
    81e0:	e590602c 	ldr	r6, [r0, #44]	; 0x2c
    81e4:	e1d053b4 	ldrh	r5, [r0, #52]	; 0x34
    81e8:	e3a03000 	mov	r3, #0
    81ec:	e580300c 	str	r3, [r0, #12]
    81f0:	e5803028 	str	r3, [r0, #40]	; 0x28
    81f4:	e580302c 	str	r3, [r0, #44]	; 0x2c
    81f8:	e1c033b4 	strh	r3, [r0, #52]	; 0x34
    81fc:	e3a01038 	mov	r1, #56	; 0x38
    8200:	eb000337 	bl	8ee4 <fast_hash>
    8204:	e584800c 	str	r8, [r4, #12]
    8208:	e5847028 	str	r7, [r4, #40]	; 0x28
    820c:	e584602c 	str	r6, [r4, #44]	; 0x2c
    8210:	e1c453b4 	strh	r5, [r4, #52]	; 0x34
    8214:	e8bd81f0 	pop	{r4, r5, r6, r7, r8, pc}

00008218 <check_hdr>:
    8218:	e92d4010 	push	{r4, lr}
    821c:	e1a04000 	mov	r4, r0
    8220:	ebffffea 	bl	81d0 <hdr_cksum>
    8224:	e594300c 	ldr	r3, [r4, #12]
    8228:	e1500003 	cmp	r0, r3
    822c:	1a000005 	bne	8248 <check_hdr+0x30>
    8230:	e5943008 	ldr	r3, [r4, #8]
    8234:	e243300b 	sub	r3, r3, #11
    8238:	e3530001 	cmp	r3, #1
    823c:	9a000003 	bls	8250 <check_hdr+0x38>
    8240:	e3a00000 	mov	r0, #0
    8244:	e8bd8010 	pop	{r4, pc}
    8248:	e3a00000 	mov	r0, #0
    824c:	e8bd8010 	pop	{r4, pc}
    8250:	e3a00001 	mov	r0, #1
    8254:	e8bd8010 	pop	{r4, pc}

00008258 <check_block>:
    8258:	e92d4010 	push	{r4, lr}
    825c:	e1a04000 	mov	r4, r0
    8260:	ebffffec 	bl	8218 <check_hdr>
    8264:	e3500000 	cmp	r0, #0
    8268:	0a000011 	beq	82b4 <check_block+0x5c>
    826c:	e2840038 	add	r0, r4, #56	; 0x38
    8270:	e3a01080 	mov	r1, #128	; 0x80
    8274:	e3e0207f 	mvn	r2, #127	; 0x7f
    8278:	e1a03004 	mov	r3, r4
    827c:	ebffff90 	bl	80c4 <check_mem>
    8280:	e3500000 	cmp	r0, #0
    8284:	0a00000c 	beq	82bc <check_block+0x64>
    8288:	e28400b8 	add	r0, r4, #184	; 0xb8
    828c:	e5942000 	ldr	r2, [r4]
    8290:	e5941004 	ldr	r1, [r4, #4]
    8294:	e0800002 	add	r0, r0, r2
    8298:	e2811080 	add	r1, r1, #128	; 0x80
    829c:	e1a03004 	mov	r3, r4
    82a0:	ebffff87 	bl	80c4 <check_mem>
    82a4:	e3500000 	cmp	r0, #0
    82a8:	0a000005 	beq	82c4 <check_block+0x6c>
    82ac:	e3a00001 	mov	r0, #1
    82b0:	e8bd8010 	pop	{r4, pc}
    82b4:	e3a00000 	mov	r0, #0
    82b8:	e8bd8010 	pop	{r4, pc}
    82bc:	e3a00000 	mov	r0, #0
    82c0:	e8bd8010 	pop	{r4, pc}
    82c4:	e3a00000 	mov	r0, #0
    82c8:	e8bd8010 	pop	{r4, pc}

000082cc <ck_init>:
    82cc:	e92d4038 	push	{r3, r4, r5, lr}
    82d0:	e1a04000 	mov	r4, r0
    82d4:	e1a05001 	mov	r5, r1
    82d8:	e3100007 	tst	r0, #7
    82dc:	0a000006 	beq	82fc <ck_init+0x30>
    82e0:	eb00035e 	bl	9060 <rpi_reset_putc>
    82e4:	e59f004c 	ldr	r0, [pc, #76]	; 8338 <ck_init+0x6c>
    82e8:	e59f104c 	ldr	r1, [pc, #76]	; 833c <ck_init+0x70>
    82ec:	e59f204c 	ldr	r2, [pc, #76]	; 8340 <ck_init+0x74>
    82f0:	e3a0300d 	mov	r3, #13
    82f4:	eb00033e 	bl	8ff4 <printk>
    82f8:	eb0004b2 	bl	95c8 <clean_reboot>
    82fc:	e59f0040 	ldr	r0, [pc, #64]	; 8344 <ck_init+0x78>
    8300:	e3a01038 	mov	r1, #56	; 0x38
    8304:	e3a02080 	mov	r2, #128	; 0x80
    8308:	eb000339 	bl	8ff4 <printk>
    830c:	e59f3034 	ldr	r3, [pc, #52]	; 8348 <ck_init+0x7c>
    8310:	e5834000 	str	r4, [r3]
    8314:	e5834004 	str	r4, [r3, #4]
    8318:	e0845005 	add	r5, r4, r5
    831c:	e5835008 	str	r5, [r3, #8]
    8320:	e583400c 	str	r4, [r3, #12]
    8324:	e5834010 	str	r4, [r3, #16]
    8328:	e3a02000 	mov	r2, #0
    832c:	e5832014 	str	r2, [r3, #20]
    8330:	e5832018 	str	r2, [r3, #24]
    8334:	e8bd8038 	pop	{r3, r4, r5, pc}
    8338:	00009cc4 	andeq	r9, r0, r4, asr #25
    833c:	00009ce8 	andeq	r9, r0, r8, ror #25
    8340:	00009c30 	andeq	r9, r0, r0, lsr ip
    8344:	00009cf4 	strdeq	r9, [r0], -r4
    8348:	0000a588 	andeq	sl, r0, r8, lsl #11

0000834c <ckfree>:
    834c:	e92d41f0 	push	{r4, r5, r6, r7, r8, lr}
    8350:	e1a04000 	mov	r4, r0
    8354:	e1a08001 	mov	r8, r1
    8358:	e1a07002 	mov	r7, r2
    835c:	e1a06003 	mov	r6, r3
    8360:	e59f00b8 	ldr	r0, [pc, #184]	; 8420 <ckfree+0xd4>
    8364:	e5900004 	ldr	r0, [r0, #4]
    8368:	e3500000 	cmp	r0, #0
    836c:	1a000006 	bne	838c <ckfree+0x40>
    8370:	eb00033a 	bl	9060 <rpi_reset_putc>
    8374:	e59f00a8 	ldr	r0, [pc, #168]	; 8424 <ckfree+0xd8>
    8378:	e59f10a8 	ldr	r1, [pc, #168]	; 8428 <ckfree+0xdc>
    837c:	e59f20a8 	ldr	r2, [pc, #168]	; 842c <ckfree+0xe0>
    8380:	e3a0305f 	mov	r3, #95	; 0x5f
    8384:	eb00031a 	bl	8ff4 <printk>
    8388:	eb00048e 	bl	95c8 <clean_reboot>
    838c:	e59f009c 	ldr	r0, [pc, #156]	; 8430 <ckfree+0xe4>
    8390:	eb000317 	bl	8ff4 <printk>
    8394:	e59f0098 	ldr	r0, [pc, #152]	; 8434 <ckfree+0xe8>
    8398:	e1a01004 	mov	r1, r4
    839c:	eb000314 	bl	8ff4 <printk>
    83a0:	e24450b8 	sub	r5, r4, #184	; 0xb8
    83a4:	e1a00005 	mov	r0, r5
    83a8:	ebffffaa 	bl	8258 <check_block>
    83ac:	e51430b0 	ldr	r3, [r4, #-176]	; 0xb0
    83b0:	e353000b 	cmp	r3, #11
    83b4:	0a000006 	beq	83d4 <ckfree+0x88>
    83b8:	eb000328 	bl	9060 <rpi_reset_putc>
    83bc:	e59f0074 	ldr	r0, [pc, #116]	; 8438 <ckfree+0xec>
    83c0:	e59f1060 	ldr	r1, [pc, #96]	; 8428 <ckfree+0xdc>
    83c4:	e59f2060 	ldr	r2, [pc, #96]	; 842c <ckfree+0xe0>
    83c8:	e3a03067 	mov	r3, #103	; 0x67
    83cc:	eb000308 	bl	8ff4 <printk>
    83d0:	eb00047c 	bl	95c8 <clean_reboot>
    83d4:	e3a0300c 	mov	r3, #12
    83d8:	e50430b0 	str	r3, [r4, #-176]	; 0xb0
    83dc:	e504809c 	str	r8, [r4, #-156]	; 0x9c
    83e0:	e5047098 	str	r7, [r4, #-152]	; 0x98
    83e4:	e5046094 	str	r6, [r4, #-148]	; 0x94
    83e8:	e51410b4 	ldr	r1, [r4, #-180]	; 0xb4
    83ec:	e51430b8 	ldr	r3, [r4, #-184]	; 0xb8
    83f0:	e1a00004 	mov	r0, r4
    83f4:	e0811003 	add	r1, r1, r3
    83f8:	ebffff6f 	bl	81bc <mark_mem>
    83fc:	e51420b8 	ldr	r2, [r4, #-184]	; 0xb8
    8400:	e59f3018 	ldr	r3, [pc, #24]	; 8420 <ckfree+0xd4>
    8404:	e5931014 	ldr	r1, [r3, #20]
    8408:	e0812002 	add	r2, r1, r2
    840c:	e5832014 	str	r2, [r3, #20]
    8410:	e1a00005 	mov	r0, r5
    8414:	ebffff6d 	bl	81d0 <hdr_cksum>
    8418:	e50400ac 	str	r0, [r4, #-172]	; 0xac
    841c:	e8bd81f0 	pop	{r4, r5, r6, r7, r8, pc}
    8420:	0000a588 	andeq	sl, r0, r8, lsl #11
    8424:	00009d10 	andeq	r9, r0, r0, lsl sp
    8428:	00009ce8 	andeq	r9, r0, r8, ror #25
    842c:	00009c38 	andeq	r9, r0, r8, lsr ip
    8430:	00009c48 	andeq	r9, r0, r8, asr #24
    8434:	00009d44 	andeq	r9, r0, r4, asr #26
    8438:	00009d50 	andeq	r9, r0, r0, asr sp

0000843c <ckalloc>:
    843c:	e92d43f0 	push	{r4, r5, r6, r7, r8, r9, lr}
    8440:	e24dd00c 	sub	sp, sp, #12
    8444:	e1a05000 	mov	r5, r0
    8448:	e1a09001 	mov	r9, r1
    844c:	e1a08002 	mov	r8, r2
    8450:	e1a07003 	mov	r7, r3
    8454:	e59f31d4 	ldr	r3, [pc, #468]	; 8630 <ckalloc+0x1f4>
    8458:	e5933004 	ldr	r3, [r3, #4]
    845c:	e3530000 	cmp	r3, #0
    8460:	1a000006 	bne	8480 <ckalloc+0x44>
    8464:	eb0002fd 	bl	9060 <rpi_reset_putc>
    8468:	e59f01c4 	ldr	r0, [pc, #452]	; 8634 <ckalloc+0x1f8>
    846c:	e59f11c4 	ldr	r1, [pc, #452]	; 8638 <ckalloc+0x1fc>
    8470:	e59f21c4 	ldr	r2, [pc, #452]	; 863c <ckalloc+0x200>
    8474:	e3a03083 	mov	r3, #131	; 0x83
    8478:	eb0002dd 	bl	8ff4 <printk>
    847c:	eb000451 	bl	95c8 <clean_reboot>
    8480:	e59f01b8 	ldr	r0, [pc, #440]	; 8640 <ckalloc+0x204>
    8484:	eb0002da 	bl	8ff4 <printk>
    8488:	e59f01b4 	ldr	r0, [pc, #436]	; 8644 <ckalloc+0x208>
    848c:	e1a01005 	mov	r1, r5
    8490:	eb0002d7 	bl	8ff4 <printk>
    8494:	e2852007 	add	r2, r5, #7
    8498:	e3c22007 	bic	r2, r2, #7
    849c:	e2826f4e 	add	r6, r2, #312	; 0x138
    84a0:	e1560005 	cmp	r6, r5
    84a4:	2a00000c 	bcs	84dc <ckalloc+0xa0>
    84a8:	e59f0198 	ldr	r0, [pc, #408]	; 8648 <ckalloc+0x20c>
    84ac:	eb0002d0 	bl	8ff4 <printk>
    84b0:	e59f0194 	ldr	r0, [pc, #404]	; 864c <ckalloc+0x210>
    84b4:	e1a01005 	mov	r1, r5
    84b8:	eb0002cd 	bl	8ff4 <printk>
    84bc:	eb0002e7 	bl	9060 <rpi_reset_putc>
    84c0:	e58d5000 	str	r5, [sp]
    84c4:	e59f0184 	ldr	r0, [pc, #388]	; 8650 <ckalloc+0x214>
    84c8:	e59f1168 	ldr	r1, [pc, #360]	; 8638 <ckalloc+0x1fc>
    84cc:	e59f2168 	ldr	r2, [pc, #360]	; 863c <ckalloc+0x200>
    84d0:	e3a0308b 	mov	r3, #139	; 0x8b
    84d4:	eb0002c6 	bl	8ff4 <printk>
    84d8:	eb00043a 	bl	95c8 <clean_reboot>
    84dc:	e59f314c 	ldr	r3, [pc, #332]	; 8630 <ckalloc+0x1f4>
    84e0:	e5934004 	ldr	r4, [r3, #4]
    84e4:	e084c006 	add	ip, r4, r6
    84e8:	e5933008 	ldr	r3, [r3, #8]
    84ec:	e15c0003 	cmp	ip, r3
    84f0:	3a000014 	bcc	8548 <ckalloc+0x10c>
    84f4:	e59f014c 	ldr	r0, [pc, #332]	; 8648 <ckalloc+0x20c>
    84f8:	eb0002bd 	bl	8ff4 <printk>
    84fc:	e59f412c 	ldr	r4, [pc, #300]	; 8630 <ckalloc+0x1f4>
    8500:	e5941008 	ldr	r1, [r4, #8]
    8504:	e5943004 	ldr	r3, [r4, #4]
    8508:	e59f0144 	ldr	r0, [pc, #324]	; 8654 <ckalloc+0x218>
    850c:	e0631001 	rsb	r1, r3, r1
    8510:	e1a02006 	mov	r2, r6
    8514:	eb0002b6 	bl	8ff4 <printk>
    8518:	eb0002d0 	bl	9060 <rpi_reset_putc>
    851c:	e5942008 	ldr	r2, [r4, #8]
    8520:	e5943004 	ldr	r3, [r4, #4]
    8524:	e0633002 	rsb	r3, r3, r2
    8528:	e58d3000 	str	r3, [sp]
    852c:	e58d6004 	str	r6, [sp, #4]
    8530:	e59f0120 	ldr	r0, [pc, #288]	; 8658 <ckalloc+0x21c>
    8534:	e59f10fc 	ldr	r1, [pc, #252]	; 8638 <ckalloc+0x1fc>
    8538:	e59f20fc 	ldr	r2, [pc, #252]	; 863c <ckalloc+0x200>
    853c:	e3a0308f 	mov	r3, #143	; 0x8f
    8540:	eb0002ab 	bl	8ff4 <printk>
    8544:	eb00041f 	bl	95c8 <clean_reboot>
    8548:	e59f00e0 	ldr	r0, [pc, #224]	; 8630 <ckalloc+0x1f4>
    854c:	e580c004 	str	ip, [r0, #4]
    8550:	e5845000 	str	r5, [r4]
    8554:	e5903018 	ldr	r3, [r0, #24]
    8558:	e0833005 	add	r3, r3, r5
    855c:	e5803018 	str	r3, [r0, #24]
    8560:	e580c010 	str	ip, [r0, #16]
    8564:	e0652002 	rsb	r2, r5, r2
    8568:	e5842004 	str	r2, [r4, #4]
    856c:	e3a0300b 	mov	r3, #11
    8570:	e5843008 	str	r3, [r4, #8]
    8574:	e5849010 	str	r9, [r4, #16]
    8578:	e5848014 	str	r8, [r4, #20]
    857c:	e5847018 	str	r7, [r4, #24]
    8580:	e1a00004 	mov	r0, r4
    8584:	ebffff11 	bl	81d0 <hdr_cksum>
    8588:	e584000c 	str	r0, [r4, #12]
    858c:	e2840038 	add	r0, r4, #56	; 0x38
    8590:	e3a01080 	mov	r1, #128	; 0x80
    8594:	ebffff08 	bl	81bc <mark_mem>
    8598:	e28470b8 	add	r7, r4, #184	; 0xb8
    859c:	e5940000 	ldr	r0, [r4]
    85a0:	e5941004 	ldr	r1, [r4, #4]
    85a4:	e0870000 	add	r0, r7, r0
    85a8:	e2811080 	add	r1, r1, #128	; 0x80
    85ac:	ebffff02 	bl	81bc <mark_mem>
    85b0:	e1a00004 	mov	r0, r4
    85b4:	ebffff17 	bl	8218 <check_hdr>
    85b8:	e3500000 	cmp	r0, #0
    85bc:	1a000006 	bne	85dc <ckalloc+0x1a0>
    85c0:	eb0002a6 	bl	9060 <rpi_reset_putc>
    85c4:	e59f0090 	ldr	r0, [pc, #144]	; 865c <ckalloc+0x220>
    85c8:	e59f1068 	ldr	r1, [pc, #104]	; 8638 <ckalloc+0x1fc>
    85cc:	e59f2068 	ldr	r2, [pc, #104]	; 863c <ckalloc+0x200>
    85d0:	e3a030a5 	mov	r3, #165	; 0xa5
    85d4:	eb000286 	bl	8ff4 <printk>
    85d8:	eb0003fa 	bl	95c8 <clean_reboot>
    85dc:	e1a00004 	mov	r0, r4
    85e0:	ebffff1c 	bl	8258 <check_block>
    85e4:	e3500000 	cmp	r0, #0
    85e8:	1a000006 	bne	8608 <ckalloc+0x1cc>
    85ec:	eb00029b 	bl	9060 <rpi_reset_putc>
    85f0:	e59f0068 	ldr	r0, [pc, #104]	; 8660 <ckalloc+0x224>
    85f4:	e59f103c 	ldr	r1, [pc, #60]	; 8638 <ckalloc+0x1fc>
    85f8:	e59f203c 	ldr	r2, [pc, #60]	; 863c <ckalloc+0x200>
    85fc:	e3a030a6 	mov	r3, #166	; 0xa6
    8600:	eb00027b 	bl	8ff4 <printk>
    8604:	eb0003ef 	bl	95c8 <clean_reboot>
    8608:	e59f0030 	ldr	r0, [pc, #48]	; 8640 <ckalloc+0x204>
    860c:	eb000278 	bl	8ff4 <printk>
    8610:	e59f004c 	ldr	r0, [pc, #76]	; 8664 <ckalloc+0x228>
    8614:	e1a01005 	mov	r1, r5
    8618:	e1a02006 	mov	r2, r6
    861c:	e1a03007 	mov	r3, r7
    8620:	eb000273 	bl	8ff4 <printk>
    8624:	e1a00007 	mov	r0, r7
    8628:	e28dd00c 	add	sp, sp, #12
    862c:	e8bd83f0 	pop	{r4, r5, r6, r7, r8, r9, pc}
    8630:	0000a588 	andeq	sl, r0, r8, lsl #11
    8634:	00009d10 	andeq	r9, r0, r0, lsl sp
    8638:	00009ce8 	andeq	r9, r0, r8, ror #25
    863c:	00009c40 	andeq	r9, r0, r0, asr #24
    8640:	00009c48 	andeq	r9, r0, r8, asr #24
    8644:	00009d74 	andeq	r9, r0, r4, ror sp
    8648:	00009d8c 	andeq	r9, r0, ip, lsl #27
    864c:	00009d98 	muleq	r0, r8, sp
    8650:	00009dc0 	andeq	r9, r0, r0, asr #27
    8654:	00009df8 	strdeq	r9, [r0], -r8
    8658:	00009e24 	andeq	r9, r0, r4, lsr #28
    865c:	00009e60 	andeq	r9, r0, r0, ror #28
    8660:	00009e80 	andeq	r9, r0, r0, lsl #29
    8664:	00009ea0 	andeq	r9, r0, r0, lsr #29

00008668 <check_data>:
    8668:	e92d4008 	push	{r3, lr}
    866c:	e1a03000 	mov	r3, r0
    8670:	e5902008 	ldr	r2, [r0, #8]
    8674:	e352000c 	cmp	r2, #12
    8678:	1a000004 	bne	8690 <check_data+0x28>
    867c:	e28000b8 	add	r0, r0, #184	; 0xb8
    8680:	e5931000 	ldr	r1, [r3]
    8684:	e3a02000 	mov	r2, #0
    8688:	ebfffe8d 	bl	80c4 <check_mem>
    868c:	e8bd8008 	pop	{r3, pc}
    8690:	e3a00001 	mov	r0, #1
    8694:	e8bd8008 	pop	{r3, pc}

00008698 <ck_heap_errors>:
    8698:	e92d47f0 	push	{r4, r5, r6, r7, r8, r9, sl, lr}
    869c:	e59f410c 	ldr	r4, [pc, #268]	; 87b0 <ck_heap_errors+0x118>
    86a0:	e5943004 	ldr	r3, [r4, #4]
    86a4:	e5946000 	ldr	r6, [r4]
    86a8:	e0666003 	rsb	r6, r6, r3
    86ac:	e5945008 	ldr	r5, [r4, #8]
    86b0:	e0635005 	rsb	r5, r3, r5
    86b4:	e59f00f8 	ldr	r0, [pc, #248]	; 87b4 <ck_heap_errors+0x11c>
    86b8:	eb00024d 	bl	8ff4 <printk>
    86bc:	e59f00f4 	ldr	r0, [pc, #244]	; 87b8 <ck_heap_errors+0x120>
    86c0:	e1a01006 	mov	r1, r6
    86c4:	e1a02005 	mov	r2, r5
    86c8:	eb000249 	bl	8ff4 <printk>
    86cc:	e5944000 	ldr	r4, [r4]
    86d0:	e3a05000 	mov	r5, #0
    86d4:	e1a06005 	mov	r6, r5
    86d8:	e59f70d0 	ldr	r7, [pc, #208]	; 87b0 <ck_heap_errors+0x118>
    86dc:	e59fa0d8 	ldr	sl, [pc, #216]	; 87bc <ck_heap_errors+0x124>
    86e0:	e59f90cc 	ldr	r9, [pc, #204]	; 87b4 <ck_heap_errors+0x11c>
    86e4:	e59f80d4 	ldr	r8, [pc, #212]	; 87c0 <ck_heap_errors+0x128>
    86e8:	ea00001d 	b	8764 <ck_heap_errors+0xcc>
    86ec:	e2855001 	add	r5, r5, #1
    86f0:	e1a00004 	mov	r0, r4
    86f4:	ebfffec7 	bl	8218 <check_hdr>
    86f8:	e3500000 	cmp	r0, #0
    86fc:	1a000003 	bne	8710 <ck_heap_errors+0x78>
    8700:	e59f00bc 	ldr	r0, [pc, #188]	; 87c4 <ck_heap_errors+0x12c>
    8704:	eb00023a 	bl	8ff4 <printk>
    8708:	e3a00001 	mov	r0, #1
    870c:	e8bd87f0 	pop	{r4, r5, r6, r7, r8, r9, sl, pc}
    8710:	e1a00004 	mov	r0, r4
    8714:	ebfffecf 	bl	8258 <check_block>
    8718:	e3500000 	cmp	r0, #0
    871c:	1a000002 	bne	872c <ck_heap_errors+0x94>
    8720:	e1a0000a 	mov	r0, sl
    8724:	eb000232 	bl	8ff4 <printk>
    8728:	e2866001 	add	r6, r6, #1
    872c:	e1a00004 	mov	r0, r4
    8730:	ebffffcc 	bl	8668 <check_data>
    8734:	e3500000 	cmp	r0, #0
    8738:	1a000004 	bne	8750 <ck_heap_errors+0xb8>
    873c:	e1a00009 	mov	r0, r9
    8740:	eb00022b 	bl	8ff4 <printk>
    8744:	e1a00008 	mov	r0, r8
    8748:	eb000229 	bl	8ff4 <printk>
    874c:	e2866001 	add	r6, r6, #1
    8750:	e5942000 	ldr	r2, [r4]
    8754:	e5943004 	ldr	r3, [r4, #4]
    8758:	e0823003 	add	r3, r2, r3
    875c:	e2833f4e 	add	r3, r3, #312	; 0x138
    8760:	e0844003 	add	r4, r4, r3
    8764:	e5973004 	ldr	r3, [r7, #4]
    8768:	e1540003 	cmp	r4, r3
    876c:	1affffde 	bne	86ec <ck_heap_errors+0x54>
    8770:	e3560000 	cmp	r6, #0
    8774:	0a000006 	beq	8794 <ck_heap_errors+0xfc>
    8778:	e59f0034 	ldr	r0, [pc, #52]	; 87b4 <ck_heap_errors+0x11c>
    877c:	eb00021c 	bl	8ff4 <printk>
    8780:	e59f0040 	ldr	r0, [pc, #64]	; 87c8 <ck_heap_errors+0x130>
    8784:	e1a01005 	mov	r1, r5
    8788:	e1a02006 	mov	r2, r6
    878c:	eb000218 	bl	8ff4 <printk>
    8790:	ea000004 	b	87a8 <ck_heap_errors+0x110>
    8794:	e59f0018 	ldr	r0, [pc, #24]	; 87b4 <ck_heap_errors+0x11c>
    8798:	eb000215 	bl	8ff4 <printk>
    879c:	e59f0028 	ldr	r0, [pc, #40]	; 87cc <ck_heap_errors+0x134>
    87a0:	e1a01005 	mov	r1, r5
    87a4:	eb000212 	bl	8ff4 <printk>
    87a8:	e1a00006 	mov	r0, r6
    87ac:	e8bd87f0 	pop	{r4, r5, r6, r7, r8, r9, sl, pc}
    87b0:	0000a588 	andeq	sl, r0, r8, lsl #11
    87b4:	00009c48 	andeq	r9, r0, r8, asr #24
    87b8:	00009ed0 	ldrdeq	r9, [r0], -r0
    87bc:	00009f1c 	andeq	r9, r0, ip, lsl pc
    87c0:	00009f30 	andeq	r9, r0, r0, lsr pc
    87c4:	00009f08 	andeq	r9, r0, r8, lsl #30
    87c8:	00009f4c 	andeq	r9, r0, ip, asr #30
    87cc:	00009f74 	andeq	r9, r0, r4, ror pc

000087d0 <ck_first_hdr>:
    87d0:	e92d4010 	push	{r4, lr}
    87d4:	e59f3010 	ldr	r3, [pc, #16]	; 87ec <ck_first_hdr+0x1c>
    87d8:	e5934000 	ldr	r4, [r3]
    87dc:	e1a00004 	mov	r0, r4
    87e0:	ebfffe8c 	bl	8218 <check_hdr>
    87e4:	e1a00004 	mov	r0, r4
    87e8:	e8bd8010 	pop	{r4, pc}
    87ec:	0000a588 	andeq	sl, r0, r8, lsl #11

000087f0 <ck_next_hdr>:
    87f0:	e92d4010 	push	{r4, lr}
    87f4:	e5904000 	ldr	r4, [r0]
    87f8:	e2844007 	add	r4, r4, #7
    87fc:	e3c44007 	bic	r4, r4, #7
    8800:	e2844f4e 	add	r4, r4, #312	; 0x138
    8804:	e0804004 	add	r4, r0, r4
    8808:	e59f3020 	ldr	r3, [pc, #32]	; 8830 <ck_next_hdr+0x40>
    880c:	e5933004 	ldr	r3, [r3, #4]
    8810:	e1540003 	cmp	r4, r3
    8814:	0a000003 	beq	8828 <ck_next_hdr+0x38>
    8818:	e1a00004 	mov	r0, r4
    881c:	ebfffe7d 	bl	8218 <check_hdr>
    8820:	e1a00004 	mov	r0, r4
    8824:	e8bd8010 	pop	{r4, pc}
    8828:	e3a00000 	mov	r0, #0
    882c:	e8bd8010 	pop	{r4, pc}
    8830:	0000a588 	andeq	sl, r0, r8, lsl #11

00008834 <heap_info>:
    8834:	e1a0c000 	mov	ip, r0
    8838:	e59f300c 	ldr	r3, [pc, #12]	; 884c <heap_info+0x18>
    883c:	e893000f 	ldm	r3, {r0, r1, r2, r3}
    8840:	e88c000f 	stm	ip, {r0, r1, r2, r3}
    8844:	e1a0000c 	mov	r0, ip
    8848:	e12fff1e 	bx	lr
    884c:	0000a594 	muleq	r0, r4, r5

00008850 <in_heap>:
    8850:	e59f3030 	ldr	r3, [pc, #48]	; 8888 <in_heap+0x38>
    8854:	e5933000 	ldr	r3, [r3]
    8858:	e1530000 	cmp	r3, r0
    885c:	8a000005 	bhi	8878 <in_heap+0x28>
    8860:	e59f3020 	ldr	r3, [pc, #32]	; 8888 <in_heap+0x38>
    8864:	e5933004 	ldr	r3, [r3, #4]
    8868:	e1530000 	cmp	r3, r0
    886c:	2a000003 	bcs	8880 <in_heap+0x30>
    8870:	e3a00000 	mov	r0, #0
    8874:	e12fff1e 	bx	lr
    8878:	e3a00000 	mov	r0, #0
    887c:	e12fff1e 	bx	lr
    8880:	e3a00001 	mov	r0, #1
    8884:	e12fff1e 	bx	lr
    8888:	0000a5a4 	andeq	sl, r0, r4, lsr #11

0000888c <is_ptr>:
    888c:	e92d4010 	push	{r4, lr}
    8890:	e1a04000 	mov	r4, r0
    8894:	ebffffed 	bl	8850 <in_heap>
    8898:	e3500000 	cmp	r0, #0
    889c:	0a000016 	beq	88fc <is_ptr+0x70>
    88a0:	ebffffca 	bl	87d0 <ck_first_hdr>
    88a4:	ea000011 	b	88f0 <is_ptr+0x64>
    88a8:	e28030b8 	add	r3, r0, #184	; 0xb8
    88ac:	e1530004 	cmp	r3, r4
    88b0:	1a000003 	bne	88c4 <is_ptr+0x38>
    88b4:	e5903028 	ldr	r3, [r0, #40]	; 0x28
    88b8:	e2833001 	add	r3, r3, #1
    88bc:	e5803028 	str	r3, [r0, #40]	; 0x28
    88c0:	e8bd8010 	pop	{r4, pc}
    88c4:	e1540003 	cmp	r4, r3
    88c8:	9a000007 	bls	88ec <is_ptr+0x60>
    88cc:	e5902000 	ldr	r2, [r0]
    88d0:	e0833002 	add	r3, r3, r2
    88d4:	e1530004 	cmp	r3, r4
    88d8:	3a000003 	bcc	88ec <is_ptr+0x60>
    88dc:	e590302c 	ldr	r3, [r0, #44]	; 0x2c
    88e0:	e2833001 	add	r3, r3, #1
    88e4:	e580302c 	str	r3, [r0, #44]	; 0x2c
    88e8:	e8bd8010 	pop	{r4, pc}
    88ec:	ebffffbf 	bl	87f0 <ck_next_hdr>
    88f0:	e3500000 	cmp	r0, #0
    88f4:	1affffeb 	bne	88a8 <is_ptr+0x1c>
    88f8:	e8bd8010 	pop	{r4, pc}
    88fc:	e3a00000 	mov	r0, #0
    8900:	e8bd8010 	pop	{r4, pc}

00008904 <sweep_leak>:
    8904:	e92d4ff8 	push	{r3, r4, r5, r6, r7, r8, r9, sl, fp, lr}
    8908:	e1a09000 	mov	r9, r0
    890c:	e59f0100 	ldr	r0, [pc, #256]	; 8a14 <sweep_leak+0x110>
    8910:	eb0001b7 	bl	8ff4 <printk>
    8914:	e59f00fc 	ldr	r0, [pc, #252]	; 8a18 <sweep_leak+0x114>
    8918:	eb0001b5 	bl	8ff4 <printk>
    891c:	ebffffab 	bl	87d0 <ck_first_hdr>
    8920:	e1a04000 	mov	r4, r0
    8924:	e3a06000 	mov	r6, #0
    8928:	e1a07006 	mov	r7, r6
    892c:	e1a05006 	mov	r5, r6
    8930:	e1a08006 	mov	r8, r6
    8934:	e59fa0e0 	ldr	sl, [pc, #224]	; 8a1c <sweep_leak+0x118>
    8938:	e59fb0e0 	ldr	fp, [pc, #224]	; 8a20 <sweep_leak+0x11c>
    893c:	ea00001c 	b	89b4 <sweep_leak+0xb0>
    8940:	e5943008 	ldr	r3, [r4, #8]
    8944:	e353000b 	cmp	r3, #11
    8948:	1a000015 	bne	89a4 <sweep_leak+0xa0>
    894c:	e1d433b4 	ldrh	r3, [r4, #52]	; 0x34
    8950:	e3530000 	cmp	r3, #0
    8954:	1a000006 	bne	8974 <sweep_leak+0x70>
    8958:	e1a0000a 	mov	r0, sl
    895c:	eb0001a4 	bl	8ff4 <printk>
    8960:	e1a0000b 	mov	r0, fp
    8964:	e28410b8 	add	r1, r4, #184	; 0xb8
    8968:	eb0001a1 	bl	8ff4 <printk>
    896c:	e2877001 	add	r7, r7, #1
    8970:	ea00000b 	b	89a4 <sweep_leak+0xa0>
    8974:	e1c483b4 	strh	r8, [r4, #52]	; 0x34
    8978:	e3590000 	cmp	r9, #0
    897c:	0a000008 	beq	89a4 <sweep_leak+0xa0>
    8980:	e5943028 	ldr	r3, [r4, #40]	; 0x28
    8984:	e3530000 	cmp	r3, #0
    8988:	1a000005 	bne	89a4 <sweep_leak+0xa0>
    898c:	e1a0000a 	mov	r0, sl
    8990:	eb000197 	bl	8ff4 <printk>
    8994:	e59f0088 	ldr	r0, [pc, #136]	; 8a24 <sweep_leak+0x120>
    8998:	e28410b8 	add	r1, r4, #184	; 0xb8
    899c:	eb000194 	bl	8ff4 <printk>
    89a0:	e2866001 	add	r6, r6, #1
    89a4:	e2855001 	add	r5, r5, #1
    89a8:	e1a00004 	mov	r0, r4
    89ac:	ebffff8f 	bl	87f0 <ck_next_hdr>
    89b0:	e1a04000 	mov	r4, r0
    89b4:	e3540000 	cmp	r4, #0
    89b8:	1affffe0 	bne	8940 <sweep_leak+0x3c>
    89bc:	e59f0058 	ldr	r0, [pc, #88]	; 8a1c <sweep_leak+0x118>
    89c0:	eb00018b 	bl	8ff4 <printk>
    89c4:	e59f005c 	ldr	r0, [pc, #92]	; 8a28 <sweep_leak+0x124>
    89c8:	e1a01005 	mov	r1, r5
    89cc:	eb000188 	bl	8ff4 <printk>
    89d0:	e1973006 	orrs	r3, r7, r6
    89d4:	1a000004 	bne	89ec <sweep_leak+0xe8>
    89d8:	e59f003c 	ldr	r0, [pc, #60]	; 8a1c <sweep_leak+0x118>
    89dc:	eb000184 	bl	8ff4 <printk>
    89e0:	e59f0044 	ldr	r0, [pc, #68]	; 8a2c <sweep_leak+0x128>
    89e4:	eb000182 	bl	8ff4 <printk>
    89e8:	ea000005 	b	8a04 <sweep_leak+0x100>
    89ec:	e59f0028 	ldr	r0, [pc, #40]	; 8a1c <sweep_leak+0x118>
    89f0:	eb00017f 	bl	8ff4 <printk>
    89f4:	e59f0034 	ldr	r0, [pc, #52]	; 8a30 <sweep_leak+0x12c>
    89f8:	e1a01007 	mov	r1, r7
    89fc:	e1a02006 	mov	r2, r6
    8a00:	eb00017b 	bl	8ff4 <printk>
    8a04:	e59f0028 	ldr	r0, [pc, #40]	; 8a34 <sweep_leak+0x130>
    8a08:	eb000179 	bl	8ff4 <printk>
    8a0c:	e0870006 	add	r0, r7, r6
    8a10:	e8bd8ff8 	pop	{r3, r4, r5, r6, r7, r8, r9, sl, fp, pc}
    8a14:	00009ff8 	strdeq	r9, [r0], -r8
    8a18:	0000a034 	andeq	sl, r0, r4, lsr r0
    8a1c:	00009c48 	andeq	r9, r0, r8, asr #24
    8a20:	0000a04c 	andeq	sl, r0, ip, asr #32
    8a24:	0000a06c 	andeq	sl, r0, ip, rrx
    8a28:	0000a0a4 	andeq	sl, r0, r4, lsr #1
    8a2c:	0000a0bc 	strheq	sl, [r0], -ip
    8a30:	0000a0dc 	ldrdeq	sl, [r0], -ip
    8a34:	0000a108 	andeq	sl, r0, r8, lsl #2

00008a38 <mark>:
    8a38:	e92d4070 	push	{r4, r5, r6, lr}
    8a3c:	e1a04000 	mov	r4, r0
    8a40:	e1a05001 	mov	r5, r1
    8a44:	e1500001 	cmp	r0, r1
    8a48:	3a000006 	bcc	8a68 <mark+0x30>
    8a4c:	eb000183 	bl	9060 <rpi_reset_putc>
    8a50:	e59f00c4 	ldr	r0, [pc, #196]	; 8b1c <mark+0xe4>
    8a54:	e59f10c4 	ldr	r1, [pc, #196]	; 8b20 <mark+0xe8>
    8a58:	e59f20c4 	ldr	r2, [pc, #196]	; 8b24 <mark+0xec>
    8a5c:	e3a0305b 	mov	r3, #91	; 0x5b
    8a60:	eb000163 	bl	8ff4 <printk>
    8a64:	eb0002d7 	bl	95c8 <clean_reboot>
    8a68:	e3100003 	tst	r0, #3
    8a6c:	0a000006 	beq	8a8c <mark+0x54>
    8a70:	eb00017a 	bl	9060 <rpi_reset_putc>
    8a74:	e59f00ac 	ldr	r0, [pc, #172]	; 8b28 <mark+0xf0>
    8a78:	e59f10a0 	ldr	r1, [pc, #160]	; 8b20 <mark+0xe8>
    8a7c:	e59f20a0 	ldr	r2, [pc, #160]	; 8b24 <mark+0xec>
    8a80:	e3a0305d 	mov	r3, #93	; 0x5d
    8a84:	eb00015a 	bl	8ff4 <printk>
    8a88:	eb0002ce 	bl	95c8 <clean_reboot>
    8a8c:	e3110003 	tst	r1, #3
    8a90:	0a00001d 	beq	8b0c <mark+0xd4>
    8a94:	eb000171 	bl	9060 <rpi_reset_putc>
    8a98:	e59f008c 	ldr	r0, [pc, #140]	; 8b2c <mark+0xf4>
    8a9c:	e59f107c 	ldr	r1, [pc, #124]	; 8b20 <mark+0xe8>
    8aa0:	e59f207c 	ldr	r2, [pc, #124]	; 8b24 <mark+0xec>
    8aa4:	e3a0305e 	mov	r3, #94	; 0x5e
    8aa8:	eb000151 	bl	8ff4 <printk>
    8aac:	eb0002c5 	bl	95c8 <clean_reboot>
    8ab0:	e5940000 	ldr	r0, [r4]
    8ab4:	ebffff74 	bl	888c <is_ptr>
    8ab8:	e2503000 	subs	r3, r0, #0
    8abc:	0a000010 	beq	8b04 <mark+0xcc>
    8ac0:	e5940000 	ldr	r0, [r4]
    8ac4:	e28320b8 	add	r2, r3, #184	; 0xb8
    8ac8:	e1500002 	cmp	r0, r2
    8acc:	05931028 	ldreq	r1, [r3, #40]	; 0x28
    8ad0:	02811001 	addeq	r1, r1, #1
    8ad4:	05831028 	streq	r1, [r3, #40]	; 0x28
    8ad8:	1593102c 	ldrne	r1, [r3, #44]	; 0x2c
    8adc:	12811001 	addne	r1, r1, #1
    8ae0:	1583102c 	strne	r1, [r3, #44]	; 0x2c
    8ae4:	e1d303b4 	ldrh	r0, [r3, #52]	; 0x34
    8ae8:	e3500000 	cmp	r0, #0
    8aec:	1a000004 	bne	8b04 <mark+0xcc>
    8af0:	e1c363b4 	strh	r6, [r3, #52]	; 0x34
    8af4:	e5931000 	ldr	r1, [r3]
    8af8:	e1a00002 	mov	r0, r2
    8afc:	e0821001 	add	r1, r2, r1
    8b00:	ebffffcc 	bl	8a38 <mark>
    8b04:	e2844004 	add	r4, r4, #4
    8b08:	ea000000 	b	8b10 <mark+0xd8>
    8b0c:	e3a06001 	mov	r6, #1
    8b10:	e1540005 	cmp	r4, r5
    8b14:	1affffe5 	bne	8ab0 <mark+0x78>
    8b18:	e8bd8070 	pop	{r4, r5, r6, pc}
    8b1c:	0000a144 	andeq	sl, r0, r4, asr #2
    8b20:	0000a158 	andeq	sl, r0, r8, asr r1
    8b24:	00009fa4 	andeq	r9, r0, r4, lsr #31
    8b28:	0000a160 	andeq	sl, r0, r0, ror #2
    8b2c:	0000a180 	andeq	sl, r0, r0, lsl #3

00008b30 <mark_all>:
    8b30:	e92d4010 	push	{r4, lr}
    8b34:	e24dd050 	sub	sp, sp, #80	; 0x50
    8b38:	ebffff24 	bl	87d0 <ck_first_hdr>
    8b3c:	e3a04000 	mov	r4, #0
    8b40:	ea000003 	b	8b54 <mark_all+0x24>
    8b44:	e580402c 	str	r4, [r0, #44]	; 0x2c
    8b48:	e5804028 	str	r4, [r0, #40]	; 0x28
    8b4c:	e1c043b4 	strh	r4, [r0, #52]	; 0x34
    8b50:	ebffff26 	bl	87f0 <ck_next_hdr>
    8b54:	e3500000 	cmp	r0, #0
    8b58:	1afffff9 	bne	8b44 <mark_all+0x14>
    8b5c:	e28d4040 	add	r4, sp, #64	; 0x40
    8b60:	e1a00004 	mov	r0, r4
    8b64:	ebffff32 	bl	8834 <heap_info>
    8b68:	e59fc094 	ldr	ip, [pc, #148]	; 8c04 <mark_all+0xd4>
    8b6c:	e894000f 	ldm	r4, {r0, r1, r2, r3}
    8b70:	e88c000f 	stm	ip, {r0, r1, r2, r3}
    8b74:	e1a0400d 	mov	r4, sp
    8b78:	e1a0000d 	mov	r0, sp
    8b7c:	eb0000d6 	bl	8edc <dump_regs>
    8b80:	e59d3000 	ldr	r3, [sp]
    8b84:	e1530004 	cmp	r3, r4
    8b88:	0a00000b 	beq	8bbc <mark_all+0x8c>
    8b8c:	eb000133 	bl	9060 <rpi_reset_putc>
    8b90:	e59f0070 	ldr	r0, [pc, #112]	; 8c08 <mark_all+0xd8>
    8b94:	e59f1070 	ldr	r1, [pc, #112]	; 8c0c <mark_all+0xdc>
    8b98:	e59f2070 	ldr	r2, [pc, #112]	; 8c10 <mark_all+0xe0>
    8b9c:	e3a030df 	mov	r3, #223	; 0xdf
    8ba0:	eb000113 	bl	8ff4 <printk>
    8ba4:	eb000287 	bl	95c8 <clean_reboot>
    8ba8:	e28d0050 	add	r0, sp, #80	; 0x50
    8bac:	e0802103 	add	r2, r0, r3, lsl #2
    8bb0:	e5021050 	str	r1, [r2, #-80]	; 0x50
    8bb4:	e2833001 	add	r3, r3, #1
    8bb8:	ea000001 	b	8bc4 <mark_all+0x94>
    8bbc:	e3a03000 	mov	r3, #0
    8bc0:	e1a01003 	mov	r1, r3
    8bc4:	e3530003 	cmp	r3, #3
    8bc8:	dafffff6 	ble	8ba8 <mark_all+0x78>
    8bcc:	e28d0010 	add	r0, sp, #16
    8bd0:	e28d1038 	add	r1, sp, #56	; 0x38
    8bd4:	ebffff97 	bl	8a38 <mark>
    8bd8:	e59d0034 	ldr	r0, [sp, #52]	; 0x34
    8bdc:	e3a01302 	mov	r1, #134217728	; 0x8000000
    8be0:	ebffff94 	bl	8a38 <mark>
    8be4:	e59f0028 	ldr	r0, [pc, #40]	; 8c14 <mark_all+0xe4>
    8be8:	e59f1028 	ldr	r1, [pc, #40]	; 8c18 <mark_all+0xe8>
    8bec:	ebffff91 	bl	8a38 <mark>
    8bf0:	e59f0024 	ldr	r0, [pc, #36]	; 8c1c <mark_all+0xec>
    8bf4:	e59f1024 	ldr	r1, [pc, #36]	; 8c20 <mark_all+0xf0>
    8bf8:	ebffff8e 	bl	8a38 <mark>
    8bfc:	e28dd050 	add	sp, sp, #80	; 0x50
    8c00:	e8bd8010 	pop	{r4, pc}
    8c04:	0000a5a4 	andeq	sl, r0, r4, lsr #11
    8c08:	0000a1a0 	andeq	sl, r0, r0, lsr #3
    8c0c:	0000a158 	andeq	sl, r0, r8, asr r1
    8c10:	00009fac 	andeq	r9, r0, ip, lsr #31
    8c14:	0000a588 	andeq	sl, r0, r8, lsl #11
    8c18:	0000a9b8 			; <UNDEFINED> instruction: 0x0000a9b8
    8c1c:	00009bb0 			; <UNDEFINED> instruction: 0x00009bb0
    8c20:	00009bc0 	andeq	r9, r0, r0, asr #23

00008c24 <sweep_free>:
    8c24:	e92d4ff0 	push	{r4, r5, r6, r7, r8, r9, sl, fp, lr}
    8c28:	e24dd014 	sub	sp, sp, #20
    8c2c:	e59f00e8 	ldr	r0, [pc, #232]	; 8d1c <sweep_free+0xf8>
    8c30:	eb0000ef 	bl	8ff4 <printk>
    8c34:	e59f00e4 	ldr	r0, [pc, #228]	; 8d20 <sweep_free+0xfc>
    8c38:	eb0000ed 	bl	8ff4 <printk>
    8c3c:	ebfffee3 	bl	87d0 <ck_first_hdr>
    8c40:	e1a04000 	mov	r4, r0
    8c44:	e3a06000 	mov	r6, #0
    8c48:	e1a08006 	mov	r8, r6
    8c4c:	e1a05006 	mov	r5, r6
    8c50:	e59fb0cc 	ldr	fp, [pc, #204]	; 8d24 <sweep_free+0x100>
    8c54:	e59fa0cc 	ldr	sl, [pc, #204]	; 8d28 <sweep_free+0x104>
    8c58:	e59f90cc 	ldr	r9, [pc, #204]	; 8d2c <sweep_free+0x108>
    8c5c:	ea000017 	b	8cc0 <sweep_free+0x9c>
    8c60:	e5943008 	ldr	r3, [r4, #8]
    8c64:	e353000b 	cmp	r3, #11
    8c68:	1a000010 	bne	8cb0 <sweep_free+0x8c>
    8c6c:	e1d433b4 	ldrh	r3, [r4, #52]	; 0x34
    8c70:	e3530000 	cmp	r3, #0
    8c74:	1a00000d 	bne	8cb0 <sweep_free+0x8c>
    8c78:	e1a07004 	mov	r7, r4
    8c7c:	e49730b8 	ldr	r3, [r7], #184	; 0xb8
    8c80:	e0866003 	add	r6, r6, r3
    8c84:	e2888001 	add	r8, r8, #1
    8c88:	e1a0000b 	mov	r0, fp
    8c8c:	eb0000d8 	bl	8ff4 <printk>
    8c90:	e1a0000a 	mov	r0, sl
    8c94:	e1a01007 	mov	r1, r7
    8c98:	eb0000d5 	bl	8ff4 <printk>
    8c9c:	e1a00007 	mov	r0, r7
    8ca0:	e1a01009 	mov	r1, r9
    8ca4:	e59f2084 	ldr	r2, [pc, #132]	; 8d30 <sweep_free+0x10c>
    8ca8:	e59f3084 	ldr	r3, [pc, #132]	; 8d34 <sweep_free+0x110>
    8cac:	ebfffda6 	bl	834c <ckfree>
    8cb0:	e2855001 	add	r5, r5, #1
    8cb4:	e1a00004 	mov	r0, r4
    8cb8:	ebfffecc 	bl	87f0 <ck_next_hdr>
    8cbc:	e1a04000 	mov	r4, r0
    8cc0:	e3540000 	cmp	r4, #0
    8cc4:	1affffe5 	bne	8c60 <sweep_free+0x3c>
    8cc8:	e59f4054 	ldr	r4, [pc, #84]	; 8d24 <sweep_free+0x100>
    8ccc:	e1a00004 	mov	r0, r4
    8cd0:	eb0000c7 	bl	8ff4 <printk>
    8cd4:	e59f005c 	ldr	r0, [pc, #92]	; 8d38 <sweep_free+0x114>
    8cd8:	e1a01005 	mov	r1, r5
    8cdc:	e1a02008 	mov	r2, r8
    8ce0:	e1a03006 	mov	r3, r6
    8ce4:	eb0000c2 	bl	8ff4 <printk>
    8ce8:	e1a0000d 	mov	r0, sp
    8cec:	ebfffed0 	bl	8834 <heap_info>
    8cf0:	e1a00004 	mov	r0, r4
    8cf4:	eb0000be 	bl	8ff4 <printk>
    8cf8:	e59f003c 	ldr	r0, [pc, #60]	; 8d3c <sweep_free+0x118>
    8cfc:	e59d100c 	ldr	r1, [sp, #12]
    8d00:	e59d2008 	ldr	r2, [sp, #8]
    8d04:	eb0000ba 	bl	8ff4 <printk>
    8d08:	e59f0030 	ldr	r0, [pc, #48]	; 8d40 <sweep_free+0x11c>
    8d0c:	eb0000b8 	bl	8ff4 <printk>
    8d10:	e1a00006 	mov	r0, r6
    8d14:	e28dd014 	add	sp, sp, #20
    8d18:	e8bd8ff0 	pop	{r4, r5, r6, r7, r8, r9, sl, fp, pc}
    8d1c:	00009ff8 	strdeq	r9, [r0], -r8
    8d20:	0000a1d0 	ldrdeq	sl, [r0], -r0
    8d24:	00009c48 	andeq	r9, r0, r8, asr #24
    8d28:	0000a1e0 	andeq	sl, r0, r0, ror #3
    8d2c:	0000a158 	andeq	sl, r0, r8, asr r1
    8d30:	00009fb8 			; <UNDEFINED> instruction: 0x00009fb8
    8d34:	0000013a 	andeq	r0, r0, sl, lsr r1
    8d38:	0000a1f4 	strdeq	sl, [r0], -r4
    8d3c:	0000a220 	andeq	sl, r0, r0, lsr #4
    8d40:	0000a108 	andeq	sl, r0, r8, lsl #2

00008d44 <ck_find_leaks>:
    8d44:	e92d4010 	push	{r4, lr}
    8d48:	e1a04000 	mov	r4, r0
    8d4c:	ebffff77 	bl	8b30 <mark_all>
    8d50:	e1a00004 	mov	r0, r4
    8d54:	ebfffeea 	bl	8904 <sweep_leak>
    8d58:	e8bd8010 	pop	{r4, pc}

00008d5c <check_no_leak>:
    8d5c:	e92d4008 	push	{r3, lr}
    8d60:	ebfffe4c 	bl	8698 <ck_heap_errors>
    8d64:	e3500000 	cmp	r0, #0
    8d68:	0a000006 	beq	8d88 <check_no_leak+0x2c>
    8d6c:	eb0000bb 	bl	9060 <rpi_reset_putc>
    8d70:	e59f0060 	ldr	r0, [pc, #96]	; 8dd8 <check_no_leak+0x7c>
    8d74:	e59f1060 	ldr	r1, [pc, #96]	; 8ddc <check_no_leak+0x80>
    8d78:	e59f2060 	ldr	r2, [pc, #96]	; 8de0 <check_no_leak+0x84>
    8d7c:	e59f3060 	ldr	r3, [pc, #96]	; 8de4 <check_no_leak+0x88>
    8d80:	eb00009b 	bl	8ff4 <printk>
    8d84:	eb00020f 	bl	95c8 <clean_reboot>
    8d88:	e59f0058 	ldr	r0, [pc, #88]	; 8de8 <check_no_leak+0x8c>
    8d8c:	eb000098 	bl	8ff4 <printk>
    8d90:	e59f0054 	ldr	r0, [pc, #84]	; 8dec <check_no_leak+0x90>
    8d94:	eb000096 	bl	8ff4 <printk>
    8d98:	e3a00001 	mov	r0, #1
    8d9c:	ebffffe8 	bl	8d44 <ck_find_leaks>
    8da0:	e3500000 	cmp	r0, #0
    8da4:	0a000006 	beq	8dc4 <check_no_leak+0x68>
    8da8:	eb0000ac 	bl	9060 <rpi_reset_putc>
    8dac:	e59f003c 	ldr	r0, [pc, #60]	; 8df0 <check_no_leak+0x94>
    8db0:	e59f1024 	ldr	r1, [pc, #36]	; 8ddc <check_no_leak+0x80>
    8db4:	e59f2024 	ldr	r2, [pc, #36]	; 8de0 <check_no_leak+0x84>
    8db8:	e59f3034 	ldr	r3, [pc, #52]	; 8df4 <check_no_leak+0x98>
    8dbc:	eb00008c 	bl	8ff4 <printk>
    8dc0:	eb000200 	bl	95c8 <clean_reboot>
    8dc4:	e59f001c 	ldr	r0, [pc, #28]	; 8de8 <check_no_leak+0x8c>
    8dc8:	eb000089 	bl	8ff4 <printk>
    8dcc:	e59f0024 	ldr	r0, [pc, #36]	; 8df8 <check_no_leak+0x9c>
    8dd0:	eb000087 	bl	8ff4 <printk>
    8dd4:	e8bd8008 	pop	{r3, pc}
    8dd8:	0000a254 	andeq	sl, r0, r4, asr r2
    8ddc:	0000a158 	andeq	sl, r0, r8, asr r1
    8de0:	00009fc4 	andeq	r9, r0, r4, asr #31
    8de4:	00000109 	andeq	r0, r0, r9, lsl #2
    8de8:	00009c48 	andeq	r9, r0, r8, asr #24
    8dec:	0000a27c 	andeq	sl, r0, ip, ror r2
    8df0:	0000a29c 	muleq	r0, ip, r2
    8df4:	0000010d 	andeq	r0, r0, sp, lsl #2
    8df8:	0000a2c8 	andeq	sl, r0, r8, asr #5

00008dfc <check_should_leak>:
    8dfc:	e92d4010 	push	{r4, lr}
    8e00:	ebfffe24 	bl	8698 <ck_heap_errors>
    8e04:	e3500000 	cmp	r0, #0
    8e08:	0a000006 	beq	8e28 <check_should_leak+0x2c>
    8e0c:	eb000093 	bl	9060 <rpi_reset_putc>
    8e10:	e59f0068 	ldr	r0, [pc, #104]	; 8e80 <check_should_leak+0x84>
    8e14:	e59f1068 	ldr	r1, [pc, #104]	; 8e84 <check_should_leak+0x88>
    8e18:	e59f2068 	ldr	r2, [pc, #104]	; 8e88 <check_should_leak+0x8c>
    8e1c:	e59f3068 	ldr	r3, [pc, #104]	; 8e8c <check_should_leak+0x90>
    8e20:	eb000073 	bl	8ff4 <printk>
    8e24:	eb0001e7 	bl	95c8 <clean_reboot>
    8e28:	e59f0060 	ldr	r0, [pc, #96]	; 8e90 <check_should_leak+0x94>
    8e2c:	eb000070 	bl	8ff4 <printk>
    8e30:	e59f005c 	ldr	r0, [pc, #92]	; 8e94 <check_should_leak+0x98>
    8e34:	eb00006e 	bl	8ff4 <printk>
    8e38:	e3a00001 	mov	r0, #1
    8e3c:	ebffffc0 	bl	8d44 <ck_find_leaks>
    8e40:	e2504000 	subs	r4, r0, #0
    8e44:	1a000006 	bne	8e64 <check_should_leak+0x68>
    8e48:	eb000084 	bl	9060 <rpi_reset_putc>
    8e4c:	e59f0044 	ldr	r0, [pc, #68]	; 8e98 <check_should_leak+0x9c>
    8e50:	e59f102c 	ldr	r1, [pc, #44]	; 8e84 <check_should_leak+0x88>
    8e54:	e59f202c 	ldr	r2, [pc, #44]	; 8e88 <check_should_leak+0x8c>
    8e58:	e3a03e12 	mov	r3, #288	; 0x120
    8e5c:	eb000064 	bl	8ff4 <printk>
    8e60:	eb0001d8 	bl	95c8 <clean_reboot>
    8e64:	e59f0024 	ldr	r0, [pc, #36]	; 8e90 <check_should_leak+0x94>
    8e68:	eb000061 	bl	8ff4 <printk>
    8e6c:	e59f0028 	ldr	r0, [pc, #40]	; 8e9c <check_should_leak+0xa0>
    8e70:	e1a01004 	mov	r1, r4
    8e74:	eb00005e 	bl	8ff4 <printk>
    8e78:	e1a00004 	mov	r0, r4
    8e7c:	e8bd8010 	pop	{r4, pc}
    8e80:	0000a254 	andeq	sl, r0, r4, asr r2
    8e84:	0000a158 	andeq	sl, r0, r8, asr r1
    8e88:	00009fd4 	ldrdeq	r9, [r0], -r4
    8e8c:	0000011a 	andeq	r0, r0, sl, lsl r1
    8e90:	00009c48 	andeq	r9, r0, r8, asr #24
    8e94:	0000a27c 	andeq	sl, r0, ip, ror r2
    8e98:	0000a2e0 	andeq	sl, r0, r0, ror #5
    8e9c:	0000a308 	andeq	sl, r0, r8, lsl #6

00008ea0 <implement_this>:
    8ea0:	e92d4008 	push	{r3, lr}
    8ea4:	eb00006d 	bl	9060 <rpi_reset_putc>
    8ea8:	e59f0010 	ldr	r0, [pc, #16]	; 8ec0 <implement_this+0x20>
    8eac:	e59f1010 	ldr	r1, [pc, #16]	; 8ec4 <implement_this+0x24>
    8eb0:	e59f2010 	ldr	r2, [pc, #16]	; 8ec8 <implement_this+0x28>
    8eb4:	e3a03f4a 	mov	r3, #296	; 0x128
    8eb8:	eb00004d 	bl	8ff4 <printk>
    8ebc:	eb0001c1 	bl	95c8 <clean_reboot>
    8ec0:	0000a328 	andeq	sl, r0, r8, lsr #6
    8ec4:	0000a158 	andeq	sl, r0, r8, asr r1
    8ec8:	00009fe8 	andeq	r9, r0, r8, ror #31

00008ecc <ck_gc>:
    8ecc:	e92d4008 	push	{r3, lr}
    8ed0:	ebffff16 	bl	8b30 <mark_all>
    8ed4:	ebffff52 	bl	8c24 <sweep_free>
    8ed8:	e8bd8008 	pop	{r3, pc}

00008edc <dump_regs>:
    8edc:	e8807fff 	stm	r0, {r0, r1, r2, r3, r4, r5, r6, r7, r8, r9, sl, fp, ip, sp, lr}
    8ee0:	e12fff1e 	bx	lr

00008ee4 <fast_hash>:
    8ee4:	e52d4004 	push	{r4}		; (str r4, [sp, #-4]!)
    8ee8:	e1a02001 	mov	r2, r1
    8eec:	e1a03000 	mov	r3, r0
    8ef0:	e3500000 	cmp	r0, #0
    8ef4:	13510000 	cmpne	r1, #0
    8ef8:	da000032 	ble	8fc8 <fast_hash+0xe4>
    8efc:	e2014003 	and	r4, r1, #3
    8f00:	e1a01141 	asr	r1, r1, #2
    8f04:	ea00000b 	b	8f38 <fast_hash+0x54>
    8f08:	e5d3c001 	ldrb	ip, [r3, #1]
    8f0c:	e5d30000 	ldrb	r0, [r3]
    8f10:	e080040c 	add	r0, r0, ip, lsl #8
    8f14:	e0800002 	add	r0, r0, r2
    8f18:	e5d3c003 	ldrb	ip, [r3, #3]
    8f1c:	e5d32002 	ldrb	r2, [r3, #2]
    8f20:	e082240c 	add	r2, r2, ip, lsl #8
    8f24:	e0202582 	eor	r2, r0, r2, lsl #11
    8f28:	e0222800 	eor	r2, r2, r0, lsl #16
    8f2c:	e2833004 	add	r3, r3, #4
    8f30:	e08225a2 	add	r2, r2, r2, lsr #11
    8f34:	e2411001 	sub	r1, r1, #1
    8f38:	e3510000 	cmp	r1, #0
    8f3c:	cafffff1 	bgt	8f08 <fast_hash+0x24>
    8f40:	e3540002 	cmp	r4, #2
    8f44:	0a00000d 	beq	8f80 <fast_hash+0x9c>
    8f48:	e3540003 	cmp	r4, #3
    8f4c:	0a000002 	beq	8f5c <fast_hash+0x78>
    8f50:	e3540001 	cmp	r4, #1
    8f54:	1a000014 	bne	8fac <fast_hash+0xc8>
    8f58:	ea00000f 	b	8f9c <fast_hash+0xb8>
    8f5c:	e5d30001 	ldrb	r0, [r3, #1]
    8f60:	e5d31000 	ldrb	r1, [r3]
    8f64:	e0811400 	add	r1, r1, r0, lsl #8
    8f68:	e0812002 	add	r2, r1, r2
    8f6c:	e0222802 	eor	r2, r2, r2, lsl #16
    8f70:	e1d330d2 	ldrsb	r3, [r3, #2]
    8f74:	e0222903 	eor	r2, r2, r3, lsl #18
    8f78:	e08225a2 	add	r2, r2, r2, lsr #11
    8f7c:	ea00000a 	b	8fac <fast_hash+0xc8>
    8f80:	e5d31001 	ldrb	r1, [r3, #1]
    8f84:	e5d33000 	ldrb	r3, [r3]
    8f88:	e0833401 	add	r3, r3, r1, lsl #8
    8f8c:	e0832002 	add	r2, r3, r2
    8f90:	e0222582 	eor	r2, r2, r2, lsl #11
    8f94:	e08228a2 	add	r2, r2, r2, lsr #17
    8f98:	ea000003 	b	8fac <fast_hash+0xc8>
    8f9c:	e1d330d0 	ldrsb	r3, [r3]
    8fa0:	e0832002 	add	r2, r3, r2
    8fa4:	e0222502 	eor	r2, r2, r2, lsl #10
    8fa8:	e08220a2 	add	r2, r2, r2, lsr #1
    8fac:	e0220182 	eor	r0, r2, r2, lsl #3
    8fb0:	e08002a0 	add	r0, r0, r0, lsr #5
    8fb4:	e0200200 	eor	r0, r0, r0, lsl #4
    8fb8:	e08008a0 	add	r0, r0, r0, lsr #17
    8fbc:	e0200c80 	eor	r0, r0, r0, lsl #25
    8fc0:	e0800320 	add	r0, r0, r0, lsr #6
    8fc4:	ea000000 	b	8fcc <fast_hash+0xe8>
    8fc8:	e3a00000 	mov	r0, #0
    8fcc:	e49d4004 	pop	{r4}		; (ldr r4, [sp], #4)
    8fd0:	e12fff1e 	bx	lr

00008fd4 <memset>:
    8fd4:	e0802002 	add	r2, r0, r2
    8fd8:	e1a03000 	mov	r3, r0
    8fdc:	ea000001 	b	8fe8 <memset+0x14>
    8fe0:	e5c31000 	strb	r1, [r3]
    8fe4:	e2833001 	add	r3, r3, #1
    8fe8:	e1530002 	cmp	r3, r2
    8fec:	3afffffb 	bcc	8fe0 <memset+0xc>
    8ff0:	e12fff1e 	bx	lr

00008ff4 <printk>:
    8ff4:	e92d000f 	push	{r0, r1, r2, r3}
    8ff8:	e92d4030 	push	{r4, r5, lr}
    8ffc:	e24dd00c 	sub	sp, sp, #12
    9000:	e28d301c 	add	r3, sp, #28
    9004:	e58d3004 	str	r3, [sp, #4]
    9008:	e59f4034 	ldr	r4, [pc, #52]	; 9044 <printk+0x50>
    900c:	e1a00004 	mov	r0, r4
    9010:	e3a01b01 	mov	r1, #1024	; 0x400
    9014:	e59d2018 	ldr	r2, [sp, #24]
    9018:	eb0000c8 	bl	9340 <va_printk>
    901c:	e1a05000 	mov	r5, r0
    9020:	e59f3020 	ldr	r3, [pc, #32]	; 9048 <printk+0x54>
    9024:	e5933000 	ldr	r3, [r3]
    9028:	e1a00004 	mov	r0, r4
    902c:	e12fff33 	blx	r3
    9030:	e1a00005 	mov	r0, r5
    9034:	e28dd00c 	add	sp, sp, #12
    9038:	e8bd4030 	pop	{r4, r5, lr}
    903c:	e28dd010 	add	sp, sp, #16
    9040:	e12fff1e 	bx	lr
    9044:	0000a5b4 			; <UNDEFINED> instruction: 0x0000a5b4
    9048:	00009bb4 			; <UNDEFINED> instruction: 0x00009bb4

0000904c <internal_putchar>:
    904c:	e92d4010 	push	{r4, lr}
    9050:	e1a04000 	mov	r4, r0
    9054:	eb000212 	bl	98a4 <uart_putc>
    9058:	e1a00004 	mov	r0, r4
    905c:	e8bd8010 	pop	{r4, pc}

00009060 <rpi_reset_putc>:
    9060:	e59f2008 	ldr	r2, [pc, #8]	; 9070 <rpi_reset_putc+0x10>
    9064:	e59f3008 	ldr	r3, [pc, #8]	; 9074 <rpi_reset_putc+0x14>
    9068:	e5832000 	str	r2, [r3]
    906c:	e12fff1e 	bx	lr
    9070:	0000904c 	andeq	r9, r0, ip, asr #32
    9074:	00009bb0 			; <UNDEFINED> instruction: 0x00009bb0

00009078 <rpi_set_putc>:
    9078:	e59f3004 	ldr	r3, [pc, #4]	; 9084 <rpi_set_putc+0xc>
    907c:	e5830000 	str	r0, [r3]
    9080:	e12fff1e 	bx	lr
    9084:	00009bb0 			; <UNDEFINED> instruction: 0x00009bb0

00009088 <internal_putk>:
    9088:	e92d4038 	push	{r3, r4, r5, lr}
    908c:	e1a04000 	mov	r4, r0
    9090:	e59f5020 	ldr	r5, [pc, #32]	; 90b8 <internal_putk+0x30>
    9094:	ea000002 	b	90a4 <internal_putk+0x1c>
    9098:	e5953000 	ldr	r3, [r5]
    909c:	e12fff33 	blx	r3
    90a0:	e2844001 	add	r4, r4, #1
    90a4:	e5d40000 	ldrb	r0, [r4]
    90a8:	e3500000 	cmp	r0, #0
    90ac:	1afffff9 	bne	9098 <internal_putk+0x10>
    90b0:	e3a00001 	mov	r0, #1
    90b4:	e8bd8038 	pop	{r3, r4, r5, pc}
    90b8:	00009bb0 			; <UNDEFINED> instruction: 0x00009bb0

000090bc <isdigit>:
    90bc:	e2400030 	sub	r0, r0, #48	; 0x30
    90c0:	e3500009 	cmp	r0, #9
    90c4:	83a00000 	movhi	r0, #0
    90c8:	93a00001 	movls	r0, #1
    90cc:	e12fff1e 	bx	lr

000090d0 <pad>:
    90d0:	e0611000 	rsb	r1, r1, r0
    90d4:	e3a03020 	mov	r3, #32
    90d8:	ea000002 	b	90e8 <pad+0x18>
    90dc:	e5c03000 	strb	r3, [r0]
    90e0:	e2811001 	add	r1, r1, #1
    90e4:	e2800001 	add	r0, r0, #1
    90e8:	e1510002 	cmp	r1, r2
    90ec:	bafffffa 	blt	90dc <pad+0xc>
    90f0:	e3a03000 	mov	r3, #0
    90f4:	e5c03000 	strb	r3, [r0]
    90f8:	e12fff1e 	bx	lr

000090fc <reverse>:
    90fc:	e063c002 	rsb	ip, r3, r2
    9100:	e28cc001 	add	ip, ip, #1
    9104:	e15c0001 	cmp	ip, r1
    9108:	c061100c 	rsbgt	r1, r1, ip
    910c:	c0833001 	addgt	r3, r3, r1
    9110:	e2422001 	sub	r2, r2, #1
    9114:	e1a01000 	mov	r1, r0
    9118:	ea000002 	b	9128 <reverse+0x2c>
    911c:	e452c001 	ldrb	ip, [r2], #-1
    9120:	e5c1c000 	strb	ip, [r1]
    9124:	e2811001 	add	r1, r1, #1
    9128:	e1520003 	cmp	r2, r3
    912c:	2afffffa 	bcs	911c <reverse+0x20>
    9130:	e3a03000 	mov	r3, #0
    9134:	e5c13000 	strb	r3, [r1]
    9138:	e12fff1e 	bx	lr

0000913c <emit>:
    913c:	e92d41f0 	push	{r4, r5, r6, r7, r8, lr}
    9140:	e24dd040 	sub	sp, sp, #64	; 0x40
    9144:	e1a05001 	mov	r5, r1
    9148:	e1a04002 	mov	r4, r2
    914c:	e59d2058 	ldr	r2, [sp, #88]	; 0x58
    9150:	e1520004 	cmp	r2, r4
    9154:	c2442001 	subgt	r2, r4, #1
    9158:	e1a0c003 	mov	ip, r3
    915c:	e2400002 	sub	r0, r0, #2
    9160:	e350000e 	cmp	r0, #14
    9164:	979ff100 	ldrls	pc, [pc, r0, lsl #2]
    9168:	ea000048 	b	9290 <emit+0x154>
    916c:	00009268 	andeq	r9, r0, r8, ror #4
    9170:	00009290 	muleq	r0, r0, r2
    9174:	00009290 	muleq	r0, r0, r2
    9178:	00009290 	muleq	r0, r0, r2
    917c:	00009290 	muleq	r0, r0, r2
    9180:	00009290 	muleq	r0, r0, r2
    9184:	0000925c 	andeq	r9, r0, ip, asr r2
    9188:	00009290 	muleq	r0, r0, r2
    918c:	000091a8 	andeq	r9, r0, r8, lsr #3
    9190:	00009290 	muleq	r0, r0, r2
    9194:	00009290 	muleq	r0, r0, r2
    9198:	00009290 	muleq	r0, r0, r2
    919c:	00009290 	muleq	r0, r0, r2
    91a0:	00009290 	muleq	r0, r0, r2
    91a4:	0000921c 	andeq	r9, r0, ip, lsl r2
    91a8:	e59d105c 	ldr	r1, [sp, #92]	; 0x5c
    91ac:	e2911000 	adds	r1, r1, #0
    91b0:	13a01001 	movne	r1, #1
    91b4:	e0111fa3 	ands	r1, r1, r3, lsr #31
    91b8:	1263c000 	rsbne	ip, r3, #0
    91bc:	13a08001 	movne	r8, #1
    91c0:	03a08000 	moveq	r8, #0
    91c4:	e1a0100d 	mov	r1, sp
    91c8:	e59f7100 	ldr	r7, [pc, #256]	; 92d0 <emit+0x194>
    91cc:	e59f6100 	ldr	r6, [pc, #256]	; 92d4 <emit+0x198>
    91d0:	ea000000 	b	91d8 <emit+0x9c>
    91d4:	e1a01000 	mov	r1, r0
    91d8:	e2810001 	add	r0, r1, #1
    91dc:	e083ec97 	umull	lr, r3, r7, ip
    91e0:	e1a031a3 	lsr	r3, r3, #3
    91e4:	e1a0e003 	mov	lr, r3
    91e8:	e0833103 	add	r3, r3, r3, lsl #2
    91ec:	e1a03083 	lsl	r3, r3, #1
    91f0:	e063300c 	rsb	r3, r3, ip
    91f4:	e7d63003 	ldrb	r3, [r6, r3]
    91f8:	e5c13000 	strb	r3, [r1]
    91fc:	e1a0c00e 	mov	ip, lr
    9200:	e35e0000 	cmp	lr, #0
    9204:	1afffff2 	bne	91d4 <emit+0x98>
    9208:	e3580000 	cmp	r8, #0
    920c:	12810002 	addne	r0, r1, #2
    9210:	13a0302d 	movne	r3, #45	; 0x2d
    9214:	15c13001 	strbne	r3, [r1, #1]
    9218:	ea000023 	b	92ac <emit+0x170>
    921c:	e1a0300d 	mov	r3, sp
    9220:	e59fe0b0 	ldr	lr, [pc, #176]	; 92d8 <emit+0x19c>
    9224:	ea000000 	b	922c <emit+0xf0>
    9228:	e1a03000 	mov	r3, r0
    922c:	e2830001 	add	r0, r3, #1
    9230:	e20c100f 	and	r1, ip, #15
    9234:	e7de1001 	ldrb	r1, [lr, r1]
    9238:	e5c31000 	strb	r1, [r3]
    923c:	e1b0c22c 	lsrs	ip, ip, #4
    9240:	1afffff8 	bne	9228 <emit+0xec>
    9244:	e3a01078 	mov	r1, #120	; 0x78
    9248:	e5c31001 	strb	r1, [r3, #1]
    924c:	e2830003 	add	r0, r3, #3
    9250:	e3a01030 	mov	r1, #48	; 0x30
    9254:	e5c31002 	strb	r1, [r3, #2]
    9258:	ea000013 	b	92ac <emit+0x170>
    925c:	e5cd3000 	strb	r3, [sp]
    9260:	e28d0001 	add	r0, sp, #1
    9264:	ea000010 	b	92ac <emit+0x170>
    9268:	e1a0300d 	mov	r3, sp
    926c:	e59fe068 	ldr	lr, [pc, #104]	; 92dc <emit+0x1a0>
    9270:	e2830001 	add	r0, r3, #1
    9274:	e20c1001 	and	r1, ip, #1
    9278:	e7de1001 	ldrb	r1, [lr, r1]
    927c:	e5c31000 	strb	r1, [r3]
    9280:	e1a03000 	mov	r3, r0
    9284:	e1b0c0ac 	lsrs	ip, ip, #1
    9288:	1afffff8 	bne	9270 <emit+0x134>
    928c:	ea000006 	b	92ac <emit+0x170>
    9290:	ebffff72 	bl	9060 <rpi_reset_putc>
    9294:	e59f0044 	ldr	r0, [pc, #68]	; 92e0 <emit+0x1a4>
    9298:	e59f1044 	ldr	r1, [pc, #68]	; 92e4 <emit+0x1a8>
    929c:	e59f2044 	ldr	r2, [pc, #68]	; 92e8 <emit+0x1ac>
    92a0:	e3a03077 	mov	r3, #119	; 0x77
    92a4:	ebffff52 	bl	8ff4 <printk>
    92a8:	eb0000c6 	bl	95c8 <clean_reboot>
    92ac:	e1a0100d 	mov	r1, sp
    92b0:	ebffff86 	bl	90d0 <pad>
    92b4:	e1a02000 	mov	r2, r0
    92b8:	e1a00005 	mov	r0, r5
    92bc:	e1a01004 	mov	r1, r4
    92c0:	e1a0300d 	mov	r3, sp
    92c4:	ebffff8c 	bl	90fc <reverse>
    92c8:	e28dd040 	add	sp, sp, #64	; 0x40
    92cc:	e8bd81f0 	pop	{r4, r5, r6, r7, r8, pc}
    92d0:	cccccccd 	stclgt	12, cr12, [ip], {205}	; 0xcd
    92d4:	0000a3a4 	andeq	sl, r0, r4, lsr #7
    92d8:	0000a3b0 			; <UNDEFINED> instruction: 0x0000a3b0
    92dc:	0000a3c4 	andeq	sl, r0, r4, asr #7
    92e0:	0000a37c 	andeq	sl, r0, ip, ror r3
    92e4:	0000a390 	muleq	r0, r0, r3
    92e8:	0000a358 	andeq	sl, r0, r8, asr r3

000092ec <rpi_set_output>:
    92ec:	e92d4008 	push	{r3, lr}
    92f0:	e3500000 	cmp	r0, #0
    92f4:	1a000006 	bne	9314 <rpi_set_output+0x28>
    92f8:	ebffff58 	bl	9060 <rpi_reset_putc>
    92fc:	e59f0028 	ldr	r0, [pc, #40]	; 932c <rpi_set_output+0x40>
    9300:	e59f1028 	ldr	r1, [pc, #40]	; 9330 <rpi_set_output+0x44>
    9304:	e59f2028 	ldr	r2, [pc, #40]	; 9334 <rpi_set_output+0x48>
    9308:	e3a03020 	mov	r3, #32
    930c:	ebffff38 	bl	8ff4 <printk>
    9310:	eb0000ac 	bl	95c8 <clean_reboot>
    9314:	e59f301c 	ldr	r3, [pc, #28]	; 9338 <rpi_set_output+0x4c>
    9318:	e5830000 	str	r0, [r3]
    931c:	e3510000 	cmp	r1, #0
    9320:	159f3014 	ldrne	r3, [pc, #20]	; 933c <rpi_set_output+0x50>
    9324:	15831000 	strne	r1, [r3]
    9328:	e8bd8008 	pop	{r3, pc}
    932c:	0000a3c8 	andeq	sl, r0, r8, asr #7
    9330:	0000a390 	muleq	r0, r0, r3
    9334:	0000a360 	andeq	sl, r0, r0, ror #6
    9338:	00009bb0 			; <UNDEFINED> instruction: 0x00009bb0
    933c:	00009bb4 			; <UNDEFINED> instruction: 0x00009bb4

00009340 <va_printk>:
    9340:	e92d4ff0 	push	{r4, r5, r6, r7, r8, r9, sl, fp, lr}
    9344:	e24dd08c 	sub	sp, sp, #140	; 0x8c
    9348:	e1a0a000 	mov	sl, r0
    934c:	e1a09003 	mov	r9, r3
    9350:	e2411001 	sub	r1, r1, #1
    9354:	e0808001 	add	r8, r0, r1
    9358:	e3a03000 	mov	r3, #0
    935c:	e5c03000 	strb	r3, [r0]
    9360:	e1a04000 	mov	r4, r0
    9364:	e1a0b003 	mov	fp, r3
    9368:	ea000086 	b	9588 <va_printk+0x248>
    936c:	e3530025 	cmp	r3, #37	; 0x25
    9370:	12822001 	addne	r2, r2, #1
    9374:	15c43000 	strbne	r3, [r4]
    9378:	12844001 	addne	r4, r4, #1
    937c:	1a000081 	bne	9588 <va_printk+0x248>
    9380:	e5d21001 	ldrb	r1, [r2, #1]
    9384:	e3510025 	cmp	r1, #37	; 0x25
    9388:	05c43000 	strbeq	r3, [r4]
    938c:	02822002 	addeq	r2, r2, #2
    9390:	02844001 	addeq	r4, r4, #1
    9394:	0a00007b 	beq	9588 <va_printk+0x248>
    9398:	e2826001 	add	r6, r2, #1
    939c:	e1a0700b 	mov	r7, fp
    93a0:	ea000004 	b	93b8 <va_printk+0x78>
    93a4:	e0877107 	add	r7, r7, r7, lsl #2
    93a8:	e1a07087 	lsl	r7, r7, #1
    93ac:	e0877005 	add	r7, r7, r5
    93b0:	e2477030 	sub	r7, r7, #48	; 0x30
    93b4:	e2866001 	add	r6, r6, #1
    93b8:	e5d65000 	ldrb	r5, [r6]
    93bc:	e1a00005 	mov	r0, r5
    93c0:	ebffff3d 	bl	90bc <isdigit>
    93c4:	e3500000 	cmp	r0, #0
    93c8:	1afffff5 	bne	93a4 <va_printk+0x64>
    93cc:	e357001f 	cmp	r7, #31
    93d0:	9a000006 	bls	93f0 <va_printk+0xb0>
    93d4:	ebffff21 	bl	9060 <rpi_reset_putc>
    93d8:	e59f01d4 	ldr	r0, [pc, #468]	; 95b4 <va_printk+0x274>
    93dc:	e59f11d4 	ldr	r1, [pc, #468]	; 95b8 <va_printk+0x278>
    93e0:	e59f21d4 	ldr	r2, [pc, #468]	; 95bc <va_printk+0x27c>
    93e4:	e3a03094 	mov	r3, #148	; 0x94
    93e8:	ebffff01 	bl	8ff4 <printk>
    93ec:	eb000075 	bl	95c8 <clean_reboot>
    93f0:	e2455062 	sub	r5, r5, #98	; 0x62
    93f4:	e3550016 	cmp	r5, #22
    93f8:	979ff105 	ldrls	pc, [pc, r5, lsl #2]
    93fc:	ea00004e 	b	953c <va_printk+0x1fc>
    9400:	000094e8 	andeq	r9, r0, r8, ror #9
    9404:	00009518 	andeq	r9, r0, r8, lsl r5
    9408:	00009478 	andeq	r9, r0, r8, ror r4
    940c:	0000953c 	andeq	r9, r0, ip, lsr r5
    9410:	0000945c 	andeq	r9, r0, ip, asr r4
    9414:	0000953c 	andeq	r9, r0, ip, lsr r5
    9418:	0000953c 	andeq	r9, r0, ip, lsr r5
    941c:	0000953c 	andeq	r9, r0, ip, lsr r5
    9420:	0000953c 	andeq	r9, r0, ip, lsr r5
    9424:	0000953c 	andeq	r9, r0, ip, lsr r5
    9428:	0000953c 	andeq	r9, r0, ip, lsr r5
    942c:	0000953c 	andeq	r9, r0, ip, lsr r5
    9430:	0000953c 	andeq	r9, r0, ip, lsr r5
    9434:	0000953c 	andeq	r9, r0, ip, lsr r5
    9438:	000094c4 	andeq	r9, r0, r4, asr #9
    943c:	0000953c 	andeq	r9, r0, ip, lsr r5
    9440:	0000953c 	andeq	r9, r0, ip, lsr r5
    9444:	0000950c 	andeq	r9, r0, ip, lsl #10
    9448:	0000953c 	andeq	r9, r0, ip, lsr r5
    944c:	000094a0 	andeq	r9, r0, r0, lsr #9
    9450:	0000953c 	andeq	r9, r0, ip, lsr r5
    9454:	0000953c 	andeq	r9, r0, ip, lsr r5
    9458:	000094c4 	andeq	r9, r0, r4, asr #9
    945c:	ebfffeff 	bl	9060 <rpi_reset_putc>
    9460:	e59f0158 	ldr	r0, [pc, #344]	; 95c0 <va_printk+0x280>
    9464:	e59f114c 	ldr	r1, [pc, #332]	; 95b8 <va_printk+0x278>
    9468:	e59f214c 	ldr	r2, [pc, #332]	; 95bc <va_printk+0x27c>
    946c:	e3a0309a 	mov	r3, #154	; 0x9a
    9470:	ebfffedf 	bl	8ff4 <printk>
    9474:	eb000053 	bl	95c8 <clean_reboot>
    9478:	e5993000 	ldr	r3, [r9]
    947c:	e2899004 	add	r9, r9, #4
    9480:	e58d7000 	str	r7, [sp]
    9484:	e3a02001 	mov	r2, #1
    9488:	e58d2004 	str	r2, [sp, #4]
    948c:	e3a0000a 	mov	r0, #10
    9490:	e28d1008 	add	r1, sp, #8
    9494:	e3a02080 	mov	r2, #128	; 0x80
    9498:	ebffff27 	bl	913c <emit>
    949c:	ea00002f 	b	9560 <va_printk+0x220>
    94a0:	e5993000 	ldr	r3, [r9]
    94a4:	e2899004 	add	r9, r9, #4
    94a8:	e58d7000 	str	r7, [sp]
    94ac:	e58db004 	str	fp, [sp, #4]
    94b0:	e3a0000a 	mov	r0, #10
    94b4:	e28d1008 	add	r1, sp, #8
    94b8:	e3a02080 	mov	r2, #128	; 0x80
    94bc:	ebffff1e 	bl	913c <emit>
    94c0:	ea000026 	b	9560 <va_printk+0x220>
    94c4:	e5993000 	ldr	r3, [r9]
    94c8:	e2899004 	add	r9, r9, #4
    94cc:	e58d7000 	str	r7, [sp]
    94d0:	e58db004 	str	fp, [sp, #4]
    94d4:	e3a00010 	mov	r0, #16
    94d8:	e28d1008 	add	r1, sp, #8
    94dc:	e3a02080 	mov	r2, #128	; 0x80
    94e0:	ebffff15 	bl	913c <emit>
    94e4:	ea00001d 	b	9560 <va_printk+0x220>
    94e8:	e5993000 	ldr	r3, [r9]
    94ec:	e2899004 	add	r9, r9, #4
    94f0:	e58d7000 	str	r7, [sp]
    94f4:	e58db004 	str	fp, [sp, #4]
    94f8:	e3a00002 	mov	r0, #2
    94fc:	e28d1008 	add	r1, sp, #8
    9500:	e3a02080 	mov	r2, #128	; 0x80
    9504:	ebffff0c 	bl	913c <emit>
    9508:	ea000014 	b	9560 <va_printk+0x220>
    950c:	e5990000 	ldr	r0, [r9]
    9510:	e2899004 	add	r9, r9, #4
    9514:	ea000011 	b	9560 <va_printk+0x220>
    9518:	e5993000 	ldr	r3, [r9]
    951c:	e2899004 	add	r9, r9, #4
    9520:	e58d7000 	str	r7, [sp]
    9524:	e58db004 	str	fp, [sp, #4]
    9528:	e3a00008 	mov	r0, #8
    952c:	e08d1000 	add	r1, sp, r0
    9530:	e3a02080 	mov	r2, #128	; 0x80
    9534:	ebffff00 	bl	913c <emit>
    9538:	ea000008 	b	9560 <va_printk+0x220>
    953c:	ebfffec7 	bl	9060 <rpi_reset_putc>
    9540:	e5d63000 	ldrb	r3, [r6]
    9544:	e58d3000 	str	r3, [sp]
    9548:	e59f0074 	ldr	r0, [pc, #116]	; 95c4 <va_printk+0x284>
    954c:	e59f1064 	ldr	r1, [pc, #100]	; 95b8 <va_printk+0x278>
    9550:	e59f2064 	ldr	r2, [pc, #100]	; 95bc <va_printk+0x27c>
    9554:	e3a030bb 	mov	r3, #187	; 0xbb
    9558:	ebfffea5 	bl	8ff4 <printk>
    955c:	eb000019 	bl	95c8 <clean_reboot>
    9560:	e2862001 	add	r2, r6, #1
    9564:	ea000002 	b	9574 <va_printk+0x234>
    9568:	e2800001 	add	r0, r0, #1
    956c:	e5c43000 	strb	r3, [r4]
    9570:	e2844001 	add	r4, r4, #1
    9574:	e1540008 	cmp	r4, r8
    9578:	2a000002 	bcs	9588 <va_printk+0x248>
    957c:	e5d03000 	ldrb	r3, [r0]
    9580:	e3530000 	cmp	r3, #0
    9584:	1afffff7 	bne	9568 <va_printk+0x228>
    9588:	e5d23000 	ldrb	r3, [r2]
    958c:	e3530000 	cmp	r3, #0
    9590:	0a000001 	beq	959c <va_printk+0x25c>
    9594:	e1540008 	cmp	r4, r8
    9598:	3affff73 	bcc	936c <va_printk+0x2c>
    959c:	e2840001 	add	r0, r4, #1
    95a0:	e3a03000 	mov	r3, #0
    95a4:	e5c43000 	strb	r3, [r4]
    95a8:	e06a0000 	rsb	r0, sl, r0
    95ac:	e28dd08c 	add	sp, sp, #140	; 0x8c
    95b0:	e8bd8ff0 	pop	{r4, r5, r6, r7, r8, r9, sl, fp, pc}
    95b4:	0000a3e0 	andeq	sl, r0, r0, ror #7
    95b8:	0000a390 	muleq	r0, r0, r3
    95bc:	0000a370 	andeq	sl, r0, r0, ror r3
    95c0:	0000a3fc 	strdeq	sl, [r0], -ip
    95c4:	0000a424 	andeq	sl, r0, r4, lsr #8

000095c8 <clean_reboot>:
    95c8:	e92d4008 	push	{r3, lr}
    95cc:	e59f3014 	ldr	r3, [pc, #20]	; 95e8 <clean_reboot+0x20>
    95d0:	e5933000 	ldr	r3, [r3]
    95d4:	e59f0010 	ldr	r0, [pc, #16]	; 95ec <clean_reboot+0x24>
    95d8:	e12fff33 	blx	r3
    95dc:	e3a00064 	mov	r0, #100	; 0x64
    95e0:	eb000044 	bl	96f8 <delay_ms>
    95e4:	eb000019 	bl	9650 <rpi_reboot>
    95e8:	00009bb4 			; <UNDEFINED> instruction: 0x00009bb4
    95ec:	0000a45c 	andeq	sl, r0, ip, asr r4

000095f0 <_cstart>:
    95f0:	e92d4008 	push	{r3, lr}
    95f4:	e59f3020 	ldr	r3, [pc, #32]	; 961c <_cstart+0x2c>
    95f8:	e59f2020 	ldr	r2, [pc, #32]	; 9620 <_cstart+0x30>
    95fc:	e3a01000 	mov	r1, #0
    9600:	ea000001 	b	960c <_cstart+0x1c>
    9604:	e5831000 	str	r1, [r3]
    9608:	e2833004 	add	r3, r3, #4
    960c:	e1530002 	cmp	r3, r2
    9610:	3afffffb 	bcc	9604 <_cstart+0x14>
    9614:	ebfffa9a 	bl	8084 <notmain>
    9618:	ebffffea 	bl	95c8 <clean_reboot>
    961c:	0000a588 	andeq	sl, r0, r8, lsl #11
    9620:	0000a9b8 			; <UNDEFINED> instruction: 0x0000a9b8

00009624 <at_user_level>:
    9624:	e10f0000 	mrs	r0, CPSR
    9628:	e200001f 	and	r0, r0, #31
    962c:	e3500010 	cmp	r0, #16
    9630:	13a00000 	movne	r0, #0
    9634:	03a00001 	moveq	r0, #1
    9638:	e12fff1e 	bx	lr

0000963c <set_user_level>:
    963c:	e10f3000 	mrs	r3, CPSR
    9640:	e3c3301f 	bic	r3, r3, #31
    9644:	e3833010 	orr	r3, r3, #16
    9648:	e129f003 	msr	CPSR_fc, r3
    964c:	e12fff1e 	bx	lr

00009650 <rpi_reboot>:
    9650:	e92d4008 	push	{r3, lr}
    9654:	ebfffff2 	bl	9624 <at_user_level>
    9658:	e3500000 	cmp	r0, #0
    965c:	0a000000 	beq	9664 <rpi_reboot+0x14>
    9660:	ebfffff5 	bl	963c <set_user_level>
    9664:	e3a0001e 	mov	r0, #30
    9668:	eb000022 	bl	96f8 <delay_ms>
    966c:	e59f0014 	ldr	r0, [pc, #20]	; 9688 <rpi_reboot+0x38>
    9670:	e59f1014 	ldr	r1, [pc, #20]	; 968c <rpi_reboot+0x3c>
    9674:	eb00002b 	bl	9728 <PUT32>
    9678:	e59f0010 	ldr	r0, [pc, #16]	; 9690 <rpi_reboot+0x40>
    967c:	e59f1010 	ldr	r1, [pc, #16]	; 9694 <rpi_reboot+0x44>
    9680:	eb000028 	bl	9728 <PUT32>
    9684:	eafffffe 	b	9684 <rpi_reboot+0x34>
    9688:	20100024 	andscs	r0, r0, r4, lsr #32
    968c:	5a000001 	bpl	9698 <delay_cycles>
    9690:	2010001c 	andscs	r0, r0, ip, lsl r0
    9694:	5a000020 	bpl	971c <delay_sec+0x10>

00009698 <delay_cycles>:
    9698:	ea000001 	b	96a4 <delay_cycles+0xc>
    969c:	e2811000 	add	r1, r1, #0
    96a0:	e1a00003 	mov	r0, r3
    96a4:	e2403001 	sub	r3, r0, #1
    96a8:	e3500000 	cmp	r0, #0
    96ac:	1afffffa 	bne	969c <delay_cycles+0x4>
    96b0:	e12fff1e 	bx	lr

000096b4 <timer_get_usec_raw>:
    96b4:	e92d4008 	push	{r3, lr}
    96b8:	e59f0004 	ldr	r0, [pc, #4]	; 96c4 <timer_get_usec_raw+0x10>
    96bc:	eb000025 	bl	9758 <GET32>
    96c0:	e8bd8008 	pop	{r3, pc}
    96c4:	20003004 	andcs	r3, r0, r4

000096c8 <timer_get_usec>:
    96c8:	e92d4008 	push	{r3, lr}
    96cc:	ebfffff8 	bl	96b4 <timer_get_usec_raw>
    96d0:	e8bd8008 	pop	{r3, pc}

000096d4 <delay_us>:
    96d4:	e92d4038 	push	{r3, r4, r5, lr}
    96d8:	e1a05000 	mov	r5, r0
    96dc:	ebfffff9 	bl	96c8 <timer_get_usec>
    96e0:	e1a04000 	mov	r4, r0
    96e4:	ebfffff7 	bl	96c8 <timer_get_usec>
    96e8:	e0640000 	rsb	r0, r4, r0
    96ec:	e1500005 	cmp	r0, r5
    96f0:	3afffffb 	bcc	96e4 <delay_us+0x10>
    96f4:	e8bd8038 	pop	{r3, r4, r5, pc}

000096f8 <delay_ms>:
    96f8:	e92d4008 	push	{r3, lr}
    96fc:	e3a03ffa 	mov	r3, #1000	; 0x3e8
    9700:	e0000093 	mul	r0, r3, r0
    9704:	ebfffff2 	bl	96d4 <delay_us>
    9708:	e8bd8008 	pop	{r3, pc}

0000970c <delay_sec>:
    970c:	e92d4008 	push	{r3, lr}
    9710:	e3a03ffa 	mov	r3, #1000	; 0x3e8
    9714:	e0000093 	mul	r0, r3, r0
    9718:	ebfffff6 	bl	96f8 <delay_ms>
    971c:	e8bd8008 	pop	{r3, pc}

00009720 <put32>:
    9720:	e5801000 	str	r1, [r0]
    9724:	e12fff1e 	bx	lr

00009728 <PUT32>:
    9728:	e5801000 	str	r1, [r0]
    972c:	e12fff1e 	bx	lr

00009730 <put16>:
    9730:	e1c010b0 	strh	r1, [r0]
    9734:	e12fff1e 	bx	lr

00009738 <PUT16>:
    9738:	e1c010b0 	strh	r1, [r0]
    973c:	e12fff1e 	bx	lr

00009740 <put8>:
    9740:	e5c01000 	strb	r1, [r0]
    9744:	e12fff1e 	bx	lr

00009748 <PUT8>:
    9748:	e5c01000 	strb	r1, [r0]
    974c:	e12fff1e 	bx	lr

00009750 <get32>:
    9750:	e5900000 	ldr	r0, [r0]
    9754:	e12fff1e 	bx	lr

00009758 <GET32>:
    9758:	e5900000 	ldr	r0, [r0]
    975c:	e12fff1e 	bx	lr

00009760 <GETPC>:
    9760:	e1a0000e 	mov	r0, lr
    9764:	e12fff1e 	bx	lr

00009768 <dummy>:
    9768:	e12fff1e 	bx	lr

0000976c <or_in32>:
    976c:	e92d4070 	push	{r4, r5, r6, lr}
    9770:	e1a04000 	mov	r4, r0
    9774:	e1a05001 	mov	r5, r1
    9778:	ebfffff4 	bl	9750 <get32>
    977c:	e1801005 	orr	r1, r0, r5
    9780:	e1a00004 	mov	r0, r4
    9784:	ebffffe5 	bl	9720 <put32>
    9788:	e8bd8070 	pop	{r4, r5, r6, pc}

0000978c <uart_init>:
    978c:	e92d4010 	push	{r4, lr}
    9790:	e3a01002 	mov	r1, #2
    9794:	e3a0000e 	mov	r0, #14
    9798:	eb000051 	bl	98e4 <gpio_set_function>
    979c:	e3a01002 	mov	r1, #2
    97a0:	e3a0000f 	mov	r0, #15
    97a4:	eb00004e 	bl	98e4 <gpio_set_function>
    97a8:	eb0000fa 	bl	9b98 <dev_barrier>
    97ac:	e3a01001 	mov	r1, #1
    97b0:	e59f0064 	ldr	r0, [pc, #100]	; 981c <uart_init+0x90>
    97b4:	ebffffec 	bl	976c <or_in32>
    97b8:	eb0000f6 	bl	9b98 <dev_barrier>
    97bc:	e59f405c 	ldr	r4, [pc, #92]	; 9820 <uart_init+0x94>
    97c0:	e3a01000 	mov	r1, #0
    97c4:	e1a00004 	mov	r0, r4
    97c8:	ebffffd4 	bl	9720 <put32>
    97cc:	e3a01000 	mov	r1, #0
    97d0:	e59f004c 	ldr	r0, [pc, #76]	; 9824 <uart_init+0x98>
    97d4:	ebffffd1 	bl	9720 <put32>
    97d8:	e3a01003 	mov	r1, #3
    97dc:	e59f0044 	ldr	r0, [pc, #68]	; 9828 <uart_init+0x9c>
    97e0:	ebffffce 	bl	9720 <put32>
    97e4:	e3a01000 	mov	r1, #0
    97e8:	e59f003c 	ldr	r0, [pc, #60]	; 982c <uart_init+0xa0>
    97ec:	ebffffcb 	bl	9720 <put32>
    97f0:	e3a010c7 	mov	r1, #199	; 0xc7
    97f4:	e59f0034 	ldr	r0, [pc, #52]	; 9830 <uart_init+0xa4>
    97f8:	ebffffc8 	bl	9720 <put32>
    97fc:	e59f1030 	ldr	r1, [pc, #48]	; 9834 <uart_init+0xa8>
    9800:	e59f0030 	ldr	r0, [pc, #48]	; 9838 <uart_init+0xac>
    9804:	ebffffc5 	bl	9720 <put32>
    9808:	e3a01003 	mov	r1, #3
    980c:	e1a00004 	mov	r0, r4
    9810:	ebffffc2 	bl	9720 <put32>
    9814:	eb0000df 	bl	9b98 <dev_barrier>
    9818:	e8bd8010 	pop	{r4, pc}
    981c:	20215004 	eorcs	r5, r1, r4
    9820:	20215060 	eorcs	r5, r1, r0, rrx
    9824:	20215044 	eorcs	r5, r1, r4, asr #32
    9828:	2021504c 	eorcs	r5, r1, ip, asr #32
    982c:	20215050 	eorcs	r5, r1, r0, asr r0
    9830:	20215048 	eorcs	r5, r1, r8, asr #32
    9834:	0000010e 	andeq	r0, r0, lr, lsl #2
    9838:	20215068 	eorcs	r5, r1, r8, rrx

0000983c <uart_can_getc>:
    983c:	e92d4010 	push	{r4, lr}
    9840:	e59f0008 	ldr	r0, [pc, #8]	; 9850 <uart_can_getc+0x14>
    9844:	ebffffc1 	bl	9750 <get32>
    9848:	e2000001 	and	r0, r0, #1
    984c:	e8bd8010 	pop	{r4, pc}
    9850:	20215064 	eorcs	r5, r1, r4, rrx

00009854 <uart_can_putc>:
    9854:	e92d4010 	push	{r4, lr}
    9858:	e59f0010 	ldr	r0, [pc, #16]	; 9870 <uart_can_putc+0x1c>
    985c:	ebffffbb 	bl	9750 <get32>
    9860:	e3100002 	tst	r0, #2
    9864:	13a00001 	movne	r0, #1
    9868:	03a00000 	moveq	r0, #0
    986c:	e8bd8010 	pop	{r4, pc}
    9870:	20215064 	eorcs	r5, r1, r4, rrx

00009874 <uart_getc>:
    9874:	e92d4010 	push	{r4, lr}
    9878:	eb0000c6 	bl	9b98 <dev_barrier>
    987c:	ebffffee 	bl	983c <uart_can_getc>
    9880:	e3500000 	cmp	r0, #0
    9884:	0afffffc 	beq	987c <uart_getc+0x8>
    9888:	e59f0010 	ldr	r0, [pc, #16]	; 98a0 <uart_getc+0x2c>
    988c:	ebffffaf 	bl	9750 <get32>
    9890:	e6ef4070 	uxtb	r4, r0
    9894:	eb0000bf 	bl	9b98 <dev_barrier>
    9898:	e1a00004 	mov	r0, r4
    989c:	e8bd8010 	pop	{r4, pc}
    98a0:	20215040 	eorcs	r5, r1, r0, asr #32

000098a4 <uart_putc>:
    98a4:	e92d4010 	push	{r4, lr}
    98a8:	e1a04000 	mov	r4, r0
    98ac:	eb0000b9 	bl	9b98 <dev_barrier>
    98b0:	ebffffe7 	bl	9854 <uart_can_putc>
    98b4:	e3500000 	cmp	r0, #0
    98b8:	0afffffc 	beq	98b0 <uart_putc+0xc>
    98bc:	e6ef1074 	uxtb	r1, r4
    98c0:	e59f0008 	ldr	r0, [pc, #8]	; 98d0 <uart_putc+0x2c>
    98c4:	ebffff95 	bl	9720 <put32>
    98c8:	eb0000b2 	bl	9b98 <dev_barrier>
    98cc:	e8bd8010 	pop	{r4, pc}
    98d0:	20215040 	eorcs	r5, r1, r0, asr #32

000098d4 <uart_has_data>:
    98d4:	e92d4010 	push	{r4, lr}
    98d8:	eb0000ae 	bl	9b98 <dev_barrier>
    98dc:	ebffffd6 	bl	983c <uart_can_getc>
    98e0:	e8bd8010 	pop	{r4, pc}

000098e4 <gpio_set_function>:
    98e4:	e350001f 	cmp	r0, #31
    98e8:	812fff1e 	bxhi	lr
    98ec:	e3d13007 	bics	r3, r1, #7
    98f0:	112fff1e 	bxne	lr
    98f4:	e92d4070 	push	{r4, r5, r6, lr}
    98f8:	e1a05001 	mov	r5, r1
    98fc:	e59f3044 	ldr	r3, [pc, #68]	; 9948 <gpio_set_function+0x64>
    9900:	e0832093 	umull	r2, r3, r3, r0
    9904:	e1a031a3 	lsr	r3, r3, #3
    9908:	e1a06003 	mov	r6, r3
    990c:	e0833103 	add	r3, r3, r3, lsl #2
    9910:	e1a02083 	lsl	r2, r3, #1
    9914:	e0403002 	sub	r3, r0, r2
    9918:	e0834083 	add	r4, r3, r3, lsl #1
    991c:	e2866302 	add	r6, r6, #134217728	; 0x8000000
    9920:	e2866702 	add	r6, r6, #524288	; 0x80000
    9924:	e1a06106 	lsl	r6, r6, #2
    9928:	e1a00006 	mov	r0, r6
    992c:	ebffff89 	bl	9758 <GET32>
    9930:	e3a01007 	mov	r1, #7
    9934:	e1c01411 	bic	r1, r0, r1, lsl r4
    9938:	e1811415 	orr	r1, r1, r5, lsl r4
    993c:	e1a00006 	mov	r0, r6
    9940:	ebffff78 	bl	9728 <PUT32>
    9944:	e8bd8070 	pop	{r4, r5, r6, pc}
    9948:	cccccccd 	stclgt	12, cr12, [ip], {205}	; 0xcd

0000994c <gpio_set_output>:
    994c:	e92d4010 	push	{r4, lr}
    9950:	e3a01001 	mov	r1, #1
    9954:	ebffffe2 	bl	98e4 <gpio_set_function>
    9958:	e8bd8010 	pop	{r4, pc}

0000995c <gpio_set_on>:
    995c:	e350001f 	cmp	r0, #31
    9960:	812fff1e 	bxhi	lr
    9964:	e92d4010 	push	{r4, lr}
    9968:	e3a01001 	mov	r1, #1
    996c:	e1a01011 	lsl	r1, r1, r0
    9970:	e59f0004 	ldr	r0, [pc, #4]	; 997c <gpio_set_on+0x20>
    9974:	ebffff6b 	bl	9728 <PUT32>
    9978:	e8bd8010 	pop	{r4, pc}
    997c:	2020001c 	eorcs	r0, r0, ip, lsl r0

00009980 <gpio_set_off>:
    9980:	e350001f 	cmp	r0, #31
    9984:	812fff1e 	bxhi	lr
    9988:	e92d4010 	push	{r4, lr}
    998c:	e3a01001 	mov	r1, #1
    9990:	e1a01011 	lsl	r1, r1, r0
    9994:	e59f0004 	ldr	r0, [pc, #4]	; 99a0 <gpio_set_off+0x20>
    9998:	ebffff62 	bl	9728 <PUT32>
    999c:	e8bd8010 	pop	{r4, pc}
    99a0:	20200028 	eorcs	r0, r0, r8, lsr #32

000099a4 <gpio_set_input>:
    99a4:	e92d4010 	push	{r4, lr}
    99a8:	e3a01000 	mov	r1, #0
    99ac:	ebffffcc 	bl	98e4 <gpio_set_function>
    99b0:	e8bd8010 	pop	{r4, pc}

000099b4 <gpio_write>:
    99b4:	e92d4010 	push	{r4, lr}
    99b8:	e3510000 	cmp	r1, #0
    99bc:	1a000001 	bne	99c8 <gpio_write+0x14>
    99c0:	ebffffee 	bl	9980 <gpio_set_off>
    99c4:	e8bd8010 	pop	{r4, pc}
    99c8:	ebffffe3 	bl	995c <gpio_set_on>
    99cc:	e8bd8010 	pop	{r4, pc}

000099d0 <gpio_read>:
    99d0:	e350001f 	cmp	r0, #31
    99d4:	8a000007 	bhi	99f8 <gpio_read+0x28>
    99d8:	e92d4010 	push	{r4, lr}
    99dc:	e200401f 	and	r4, r0, #31
    99e0:	e59f3018 	ldr	r3, [pc, #24]	; 9a00 <gpio_read+0x30>
    99e4:	e08302a0 	add	r0, r3, r0, lsr #5
    99e8:	ebffff5a 	bl	9758 <GET32>
    99ec:	e1a00430 	lsr	r0, r0, r4
    99f0:	e2000001 	and	r0, r0, #1
    99f4:	e8bd8010 	pop	{r4, pc}
    99f8:	e3e00000 	mvn	r0, #0
    99fc:	e12fff1e 	bx	lr
    9a00:	20200034 	eorcs	r0, r0, r4, lsr r0

00009a04 <kmalloc_heap_end>:
    9a04:	e59f3004 	ldr	r3, [pc, #4]	; 9a10 <kmalloc_heap_end+0xc>
    9a08:	e5930000 	ldr	r0, [r3]
    9a0c:	e12fff1e 	bx	lr
    9a10:	00009bb8 			; <UNDEFINED> instruction: 0x00009bb8

00009a14 <kmalloc_heap_start>:
    9a14:	e59f0000 	ldr	r0, [pc]	; 9a1c <kmalloc_heap_start+0x8>
    9a18:	e12fff1e 	bx	lr
    9a1c:	0000a9b8 			; <UNDEFINED> instruction: 0x0000a9b8

00009a20 <kmalloc_init_set_start>:
    9a20:	e59f3038 	ldr	r3, [pc, #56]	; 9a60 <kmalloc_init_set_start+0x40>
    9a24:	e5933000 	ldr	r3, [r3]
    9a28:	e1500003 	cmp	r0, r3
    9a2c:	9a000003 	bls	9a40 <kmalloc_init_set_start+0x20>
    9a30:	e59f3028 	ldr	r3, [pc, #40]	; 9a60 <kmalloc_init_set_start+0x40>
    9a34:	e5830000 	str	r0, [r3]
    9a38:	e5830004 	str	r0, [r3, #4]
    9a3c:	e12fff1e 	bx	lr
    9a40:	e92d4010 	push	{r4, lr}
    9a44:	ebfffd85 	bl	9060 <rpi_reset_putc>
    9a48:	e3a03016 	mov	r3, #22
    9a4c:	e59f2010 	ldr	r2, [pc, #16]	; 9a64 <kmalloc_init_set_start+0x44>
    9a50:	e59f1010 	ldr	r1, [pc, #16]	; 9a68 <kmalloc_init_set_start+0x48>
    9a54:	e59f0010 	ldr	r0, [pc, #16]	; 9a6c <kmalloc_init_set_start+0x4c>
    9a58:	ebfffd65 	bl	8ff4 <printk>
    9a5c:	ebfffed9 	bl	95c8 <clean_reboot>
    9a60:	00009bb8 			; <UNDEFINED> instruction: 0x00009bb8
    9a64:	0000a468 	andeq	sl, r0, r8, ror #8
    9a68:	0000a498 	muleq	r0, r8, r4
    9a6c:	0000a4a4 	andeq	sl, r0, r4, lsr #9

00009a70 <kmalloc>:
    9a70:	e92d4010 	push	{r4, lr}
    9a74:	e3500000 	cmp	r0, #0
    9a78:	0a00000a 	beq	9aa8 <kmalloc+0x38>
    9a7c:	e2802007 	add	r2, r0, #7
    9a80:	e3c22007 	bic	r2, r2, #7
    9a84:	e59f3038 	ldr	r3, [pc, #56]	; 9ac4 <kmalloc+0x54>
    9a88:	e5934000 	ldr	r4, [r3]
    9a8c:	e0841002 	add	r1, r4, r2
    9a90:	e5831000 	str	r1, [r3]
    9a94:	e3a01000 	mov	r1, #0
    9a98:	e1a00004 	mov	r0, r4
    9a9c:	ebfffd4c 	bl	8fd4 <memset>
    9aa0:	e1a00004 	mov	r0, r4
    9aa4:	e8bd8010 	pop	{r4, pc}
    9aa8:	ebfffd6c 	bl	9060 <rpi_reset_putc>
    9aac:	e3a0301b 	mov	r3, #27
    9ab0:	e59f2010 	ldr	r2, [pc, #16]	; 9ac8 <kmalloc+0x58>
    9ab4:	e59f1010 	ldr	r1, [pc, #16]	; 9acc <kmalloc+0x5c>
    9ab8:	e59f0010 	ldr	r0, [pc, #16]	; 9ad0 <kmalloc+0x60>
    9abc:	ebfffd4c 	bl	8ff4 <printk>
    9ac0:	ebfffec0 	bl	95c8 <clean_reboot>
    9ac4:	00009bb8 			; <UNDEFINED> instruction: 0x00009bb8
    9ac8:	0000a480 	andeq	sl, r0, r0, lsl #9
    9acc:	0000a498 	muleq	r0, r8, r4
    9ad0:	0000a4c0 	andeq	sl, r0, r0, asr #9

00009ad4 <kmalloc_init>:
    9ad4:	e12fff1e 	bx	lr

00009ad8 <kmalloc_heap_ptr>:
    9ad8:	e92d4010 	push	{r4, lr}
    9adc:	ebffffcc 	bl	9a14 <kmalloc_heap_start>
    9ae0:	e8bd8010 	pop	{r4, pc}

00009ae4 <kmalloc_aligned>:
    9ae4:	e92d4010 	push	{r4, lr}
    9ae8:	e2613000 	rsb	r3, r1, #0
    9aec:	e1d12003 	bics	r2, r1, r3
    9af0:	1a00000b 	bne	9b24 <kmalloc_aligned+0x40>
    9af4:	e59f2060 	ldr	r2, [pc, #96]	; 9b5c <kmalloc_aligned+0x78>
    9af8:	e5922000 	ldr	r2, [r2]
    9afc:	e0812002 	add	r2, r1, r2
    9b00:	e2422001 	sub	r2, r2, #1
    9b04:	e0033002 	and	r3, r3, r2
    9b08:	e2411001 	sub	r1, r1, #1
    9b0c:	e1130001 	tst	r3, r1
    9b10:	1a00000a 	bne	9b40 <kmalloc_aligned+0x5c>
    9b14:	e59f2040 	ldr	r2, [pc, #64]	; 9b5c <kmalloc_aligned+0x78>
    9b18:	e5823000 	str	r3, [r2]
    9b1c:	ebffffd3 	bl	9a70 <kmalloc>
    9b20:	e8bd8010 	pop	{r4, pc}
    9b24:	ebfffd4d 	bl	9060 <rpi_reset_putc>
    9b28:	e3a0302a 	mov	r3, #42	; 0x2a
    9b2c:	e59f202c 	ldr	r2, [pc, #44]	; 9b60 <kmalloc_aligned+0x7c>
    9b30:	e59f102c 	ldr	r1, [pc, #44]	; 9b64 <kmalloc_aligned+0x80>
    9b34:	e59f002c 	ldr	r0, [pc, #44]	; 9b68 <kmalloc_aligned+0x84>
    9b38:	ebfffd2d 	bl	8ff4 <printk>
    9b3c:	ebfffea1 	bl	95c8 <clean_reboot>
    9b40:	ebfffd46 	bl	9060 <rpi_reset_putc>
    9b44:	e3a03030 	mov	r3, #48	; 0x30
    9b48:	e59f2010 	ldr	r2, [pc, #16]	; 9b60 <kmalloc_aligned+0x7c>
    9b4c:	e59f1010 	ldr	r1, [pc, #16]	; 9b64 <kmalloc_aligned+0x80>
    9b50:	e59f0014 	ldr	r0, [pc, #20]	; 9b6c <kmalloc_aligned+0x88>
    9b54:	ebfffd26 	bl	8ff4 <printk>
    9b58:	ebfffe9a 	bl	95c8 <clean_reboot>
    9b5c:	00009bb8 			; <UNDEFINED> instruction: 0x00009bb8
    9b60:	0000a488 	andeq	sl, r0, r8, lsl #9
    9b64:	0000a498 	muleq	r0, r8, r4
    9b68:	0000a4d4 	ldrdeq	sl, [r0], -r4
    9b6c:	0000a534 	andeq	sl, r0, r4, lsr r5

00009b70 <kfree>:
    9b70:	e12fff1e 	bx	lr

00009b74 <kfree_all>:
    9b74:	e59f3008 	ldr	r3, [pc, #8]	; 9b84 <kfree_all+0x10>
    9b78:	e5932004 	ldr	r2, [r3, #4]
    9b7c:	e5832000 	str	r2, [r3]
    9b80:	e12fff1e 	bx	lr
    9b84:	00009bb8 			; <UNDEFINED> instruction: 0x00009bb8

00009b88 <kfree_after>:
    9b88:	e59f3004 	ldr	r3, [pc, #4]	; 9b94 <kfree_after+0xc>
    9b8c:	e5830000 	str	r0, [r3]
    9b90:	e12fff1e 	bx	lr
    9b94:	00009bb8 			; <UNDEFINED> instruction: 0x00009bb8

00009b98 <dev_barrier>:
    9b98:	ea000002 	b	9ba8 <dsb>

00009b9c <dmb>:
    9b9c:	e3a00000 	mov	r0, #0
    9ba0:	ee070fba 	mcr	15, 0, r0, cr7, cr10, {5}
    9ba4:	e12fff1e 	bx	lr

00009ba8 <dsb>:
    9ba8:	ee070f9a 	mcr	15, 0, r0, cr7, cr10, {4}
    9bac:	e12fff1e 	bx	lr

Disassembly of section .data:

00009bb0 <__data_start__>:
    9bb0:	0000904c 	andeq	r9, r0, ip, asr #32

00009bb4 <putk>:
    9bb4:	00009088 	andeq	r9, r0, r8, lsl #1

00009bb8 <heap>:
    9bb8:	0000a9b8 			; <UNDEFINED> instruction: 0x0000a9b8

00009bbc <heap_start>:
    9bbc:	0000a9b8 			; <UNDEFINED> instruction: 0x0000a9b8

Disassembly of section .rodata:

00009bc0 <__FUNCTION__.4207>:
    9bc0:	74736574 	ldrbtvc	r6, [r3], #-1396	; 0x574
    9bc4:	00000000 	andeq	r0, r0, r0
    9bc8:	74736574 	ldrbtvc	r6, [r3], #-1396	; 0x574
    9bcc:	61702f73 	cmnvs	r0, r3, ror pc
    9bd0:	2d327472 	cfldrscs	mvf7, [r2, #-456]!	; 0xfffffe38
    9bd4:	74736574 	ldrbtvc	r6, [r3], #-1396	; 0x574
    9bd8:	00632e33 	rsbeq	r2, r3, r3, lsr lr
    9bdc:	74204347 	strtvc	r4, [r0], #-839	; 0x347
    9be0:	3a747365 	bcc	1d2697c <__bss_end__+0x1d1bfc4>
    9be4:	65686320 	strbvs	r6, [r8, #-800]!	; 0x320
    9be8:	6e696b63 	vnmulvs.f64	d22, d9, d19
    9bec:	68742067 	ldmdavs	r4!, {r0, r1, r2, r5, r6, sp}^
    9bf0:	61207461 	teqvs	r0, r1, ror #8
    9bf4:	6e696c20 	cdpvs	12, 6, cr6, cr9, cr0, {1}
    9bf8:	2064656b 	rsbcs	r6, r4, fp, ror #10
    9bfc:	7473696c 	ldrbtvc	r6, [r3], #-2412	; 0x96c
    9c00:	20736920 	rsbscs	r6, r3, r0, lsr #18
    9c04:	63637573 	cmnvs	r3, #482344960	; 0x1cc00000
    9c08:	66737365 	ldrbtvs	r7, [r3], -r5, ror #6
    9c0c:	796c6c75 	stmdbvc	ip!, {r0, r2, r4, r5, r6, sl, fp, sp, lr}^
    9c10:	61727420 	cmnvs	r2, r0, lsr #8
    9c14:	73726576 	cmnvc	r2, #494927872	; 0x1d800000
    9c18:	0a2e6465 	beq	ba2db4 <__bss_end__+0xb983fc>
    9c1c:	00000000 	andeq	r0, r0, r0
    9c20:	7473616c 	ldrbtvc	r6, [r3], #-364	; 0x16c
    9c24:	6c6c6120 	stfvse	f6, [ip], #-128	; 0xffffff80
    9c28:	3d20636f 	stccc	3, cr6, [r0, #-444]!	; 0xfffffe44
    9c2c:	000a7025 	andeq	r7, sl, r5, lsr #32

00009c30 <__FUNCTION__.4265>:
    9c30:	695f6b63 	ldmdbvs	pc, {r0, r1, r5, r6, r8, r9, fp, sp, lr}^	; <UNPREDICTABLE>
    9c34:	0074696e 	rsbseq	r6, r4, lr, ror #18

00009c38 <__FUNCTION__.4302>:
    9c38:	72666b63 	rsbvc	r6, r6, #101376	; 0x18c00
    9c3c:	00006565 	andeq	r6, r0, r5, ror #10

00009c40 <__FUNCTION__.4312>:
    9c40:	6c616b63 	stclvs	11, cr6, [r1], #-396	; 0xfffffe74
    9c44:	00636f6c 	rsbeq	r6, r3, ip, ror #30
    9c48:	43415254 	movtmi	r5, #4692	; 0x1254
    9c4c:	00003a45 	andeq	r3, r0, r5, asr #20
    9c50:	4f525245 	svcmi	0x00525245
    9c54:	00003a52 	andeq	r3, r0, r2, asr sl
    9c58:	636f6c62 	cmnvs	pc, #25088	; 0x6200
    9c5c:	7025206b 	eorvc	r2, r5, fp, rrx
    9c60:	726f6320 	rsbvc	r6, pc, #32, 6	; 0x80000000
    9c64:	74707572 	ldrbtvc	r7, [r0], #-1394	; 0x572
    9c68:	61206465 	teqvs	r0, r5, ror #8
    9c6c:	666f2074 			; <UNDEFINED> instruction: 0x666f2074
    9c70:	74657366 	strbtvc	r7, [r5], #-870	; 0x366
    9c74:	0a642520 	beq	19130fc <__bss_end__+0x1908744>
    9c78:	00000000 	andeq	r0, r0, r0
    9c7c:	79626e09 	stmdbvc	r2!, {r0, r3, r9, sl, fp, sp, lr}^
    9c80:	3d736574 	cfldr64cc	mvdx6, [r3, #-464]!	; 0xfffffe30
    9c84:	000a6425 	andeq	r6, sl, r5, lsr #8
    9c88:	6f6c4209 	svcvs	0x006c4209
    9c8c:	61206b63 	teqvs	r0, r3, ror #22
    9c90:	636f6c6c 	cmnvs	pc, #108, 24	; 0x6c00
    9c94:	64657461 	strbtvs	r7, [r5], #-1121	; 0x461
    9c98:	3a746120 	bcc	1d22120 <__bss_end__+0x1d17768>
    9c9c:	3a732520 	bcc	1cd3124 <__bss_end__+0x1cc876c>
    9ca0:	253a7325 	ldrcs	r7, [sl, #-805]!	; 0x325
    9ca4:	00000a64 	andeq	r0, r0, r4, ror #20
    9ca8:	6f6c4209 	svcvs	0x006c4209
    9cac:	66206b63 	strtvs	r6, [r0], -r3, ror #22
    9cb0:	64656572 	strbtvs	r6, [r5], #-1394	; 0x572
    9cb4:	3a746120 	bcc	1d2213c <__bss_end__+0x1d17784>
    9cb8:	3a732520 	bcc	1cd3140 <__bss_end__+0x1cc8788>
    9cbc:	253a7325 	ldrcs	r7, [sl, #-805]!	; 0x325
    9cc0:	00000a64 	andeq	r0, r0, r4, ror #20
    9cc4:	494e4150 	stmdbmi	lr, {r4, r6, r8, lr}^
    9cc8:	73253a43 	teqvc	r5, #274432	; 0x43000
    9ccc:	3a73253a 	bcc	1cd31bc <__bss_end__+0x1cc8804>
    9cd0:	613a6425 	teqvs	sl, r5, lsr #8
    9cd4:	6e67696c 	cdpvs	9, 6, cr6, cr7, cr12, {3}
    9cd8:	73286465 	teqvc	r8, #1694498816	; 0x65000000
    9cdc:	74726174 	ldrbtvc	r6, [r2], #-372	; 0x174
    9ce0:	2938202c 	ldmdbcs	r8!, {r2, r3, r5, sp}
    9ce4:	0000000a 	andeq	r0, r0, sl
    9ce8:	6c616b63 	stclvs	11, cr6, [r1], #-396	; 0xfffffe74
    9cec:	2e636f6c 	cdpcs	15, 6, cr6, cr3, cr12, {3}
    9cf0:	00000063 	andeq	r0, r0, r3, rrx
    9cf4:	657a6973 	ldrbvs	r6, [sl, #-2419]!	; 0x973
    9cf8:	6820666f 	stmdavs	r0!, {r0, r1, r2, r3, r5, r6, r9, sl, sp, lr}
    9cfc:	253d7264 	ldrcs	r7, [sp, #-612]!	; 0x264
    9d00:	72202c64 	eorvc	r2, r0, #100, 24	; 0x6400
    9d04:	6f7a6465 	svcvs	0x007a6465
    9d08:	253d656e 	ldrcs	r6, [sp, #-1390]!	; 0x56e
    9d0c:	00000a64 	andeq	r0, r0, r4, ror #20
    9d10:	4f525245 	svcmi	0x00525245
    9d14:	73253a52 	teqvc	r5, #335872	; 0x52000
    9d18:	3a73253a 	bcc	1cd3208 <__bss_end__+0x1cc8850>
    9d1c:	203a6425 	eorscs	r6, sl, r5, lsr #8
    9d20:	534c4146 	movtpl	r4, #49478	; 0xc146
    9d24:	683c2845 	ldmdavs	ip!, {r0, r2, r6, fp, sp}
    9d28:	3e706165 	rpwccsz	f6, f0, f5
    9d2c:	6e203a29 	vmulvs.f32	s6, s0, s19
    9d30:	6920746f 	stmdbvs	r0!, {r0, r1, r2, r3, r5, r6, sl, ip, sp, lr}
    9d34:	6974696e 	ldmdbvs	r4!, {r1, r2, r3, r5, r6, r8, fp, sp, lr}^
    9d38:	7a696c61 	bvc	1a64ec4 <__bss_end__+0x1a5a50c>
    9d3c:	0a3f6465 	beq	fe2ed8 <__bss_end__+0xfd8520>
    9d40:	00000000 	andeq	r0, r0, r0
    9d44:	65657266 	strbvs	r7, [r5, #-614]!	; 0x266
    9d48:	20676e69 	rsbcs	r6, r7, r9, ror #28
    9d4c:	000a7025 	andeq	r7, sl, r5, lsr #32
    9d50:	494e4150 	stmdbmi	lr, {r4, r6, r8, lr}^
    9d54:	73253a43 	teqvc	r5, #274432	; 0x43000
    9d58:	3a73253a 	bcc	1cd3248 <__bss_end__+0x1cc8890>
    9d5c:	683a6425 	ldmdavs	sl!, {r0, r2, r5, sl, sp, lr}
    9d60:	74733e2d 	ldrbtvc	r3, [r3], #-3629	; 0xe2d
    9d64:	20657461 	rsbcs	r7, r5, r1, ror #8
    9d68:	41203d3d 	teqmi	r0, sp, lsr sp
    9d6c:	434f4c4c 	movtmi	r4, #64588	; 0xfc4c
    9d70:	000a4445 	andeq	r4, sl, r5, asr #8
    9d74:	6f6c6c61 	svcvs	0x006c6c61
    9d78:	69746163 	ldmdbvs	r4!, {r0, r1, r5, r6, r8, sp, lr}^
    9d7c:	2520676e 	strcs	r6, [r0, #-1902]!	; 0x76e
    9d80:	79622064 	stmdbvc	r2!, {r2, r5, r6, sp}^
    9d84:	0a736574 	beq	1ce335c <__bss_end__+0x1cd89a4>
    9d88:	00000000 	andeq	r0, r0, r0
    9d8c:	43415254 	movtmi	r5, #4692	; 0x1254
    9d90:	52453a45 	subpl	r3, r5, #282624	; 0x45000
    9d94:	00524f52 	subseq	r4, r2, r2, asr pc
    9d98:	657a6973 	ldrbvs	r6, [sl, #-2419]!	; 0x973
    9d9c:	65766f20 	ldrbvs	r6, [r6, #-3872]!	; 0xf20
    9da0:	6f6c6672 	svcvs	0x006c6672
    9da4:	3a646577 	bcc	1923388 <__bss_end__+0x19189d0>
    9da8:	20642520 	rsbcs	r2, r4, r0, lsr #10
    9dac:	65747962 	ldrbvs	r7, [r4, #-2402]!	; 0x962
    9db0:	73692073 	cmnvc	r9, #115	; 0x73
    9db4:	6f6f7420 	svcvs	0x006f7420
    9db8:	72616c20 	rsbvc	r6, r1, #32, 24	; 0x2000
    9dbc:	000a6567 	andeq	r6, sl, r7, ror #10
    9dc0:	494e4150 	stmdbmi	lr, {r4, r6, r8, lr}^
    9dc4:	73253a43 	teqvc	r5, #274432	; 0x43000
    9dc8:	3a73253a 	bcc	1cd32b8 <__bss_end__+0x1cc8900>
    9dcc:	733a6425 	teqvc	sl, #620756992	; 0x25000000
    9dd0:	20657a69 	rsbcs	r7, r5, r9, ror #20
    9dd4:	7265766f 	rsbvc	r7, r5, #116391936	; 0x6f00000
    9dd8:	776f6c66 	strbvc	r6, [pc, -r6, ror #24]!
    9ddc:	203a6465 	eorscs	r6, sl, r5, ror #8
    9de0:	62206425 	eorvs	r6, r0, #620756992	; 0x25000000
    9de4:	73657479 	cmnvc	r5, #2030043136	; 0x79000000
    9de8:	20736920 	rsbscs	r6, r3, r0, lsr #18
    9dec:	206f6f74 	rsbcs	r6, pc, r4, ror pc	; <UNPREDICTABLE>
    9df0:	6772616c 	ldrbvs	r6, [r2, -ip, ror #2]!
    9df4:	000a0a65 	andeq	r0, sl, r5, ror #20
    9df8:	2074756f 	rsbscs	r7, r4, pc, ror #10
    9dfc:	6d20666f 	stcvs	6, cr6, [r0, #-444]!	; 0xfffffe44
    9e00:	726f6d65 	rsbvc	r6, pc, #6464	; 0x1940
    9e04:	20202179 	eorcs	r2, r0, r9, ror r1
    9e08:	65766168 	ldrbvs	r6, [r6, #-360]!	; 0x168
    9e0c:	6c6e6f20 	stclvs	15, cr6, [lr], #-128	; 0xffffff80
    9e10:	64252079 	strtvs	r2, [r5], #-121	; 0x79
    9e14:	66656c20 	strbtvs	r6, [r5], -r0, lsr #24
    9e18:	6e202c74 	mcrvs	12, 1, r2, cr0, cr4, {3}
    9e1c:	20646565 	rsbcs	r6, r4, r5, ror #10
    9e20:	000a6425 	andeq	r6, sl, r5, lsr #8
    9e24:	494e4150 	stmdbmi	lr, {r4, r6, r8, lr}^
    9e28:	73253a43 	teqvc	r5, #274432	; 0x43000
    9e2c:	3a73253a 	bcc	1cd331c <__bss_end__+0x1cc8964>
    9e30:	6f3a6425 	svcvs	0x003a6425
    9e34:	6f207475 	svcvs	0x00207475
    9e38:	656d2066 	strbvs	r2, [sp, #-102]!	; 0x66
    9e3c:	79726f6d 	ldmdbvc	r2!, {r0, r2, r3, r5, r6, r8, r9, sl, fp, sp, lr}^
    9e40:	68202021 	stmdavs	r0!, {r0, r5, sp}
    9e44:	20657661 	rsbcs	r7, r5, r1, ror #12
    9e48:	796c6e6f 	stmdbvc	ip!, {r0, r1, r2, r3, r5, r6, r9, sl, fp, sp, lr}^
    9e4c:	20642520 	rsbcs	r2, r4, r0, lsr #10
    9e50:	7466656c 	strbtvc	r6, [r6], #-1388	; 0x56c
    9e54:	656e202c 	strbvs	r2, [lr, #-44]!	; 0x2c
    9e58:	25206465 	strcs	r6, [r0, #-1125]!	; 0x465
    9e5c:	000a0a64 	andeq	r0, sl, r4, ror #20
    9e60:	494e4150 	stmdbmi	lr, {r4, r6, r8, lr}^
    9e64:	73253a43 	teqvc	r5, #274432	; 0x43000
    9e68:	3a73253a 	bcc	1cd3358 <__bss_end__+0x1cc89a0>
    9e6c:	633a6425 	teqvs	sl, #620756992	; 0x25000000
    9e70:	6b636568 	blvs	18e3418 <__bss_end__+0x18d8a60>
    9e74:	7264685f 	rsbvc	r6, r4, #6225920	; 0x5f0000
    9e78:	0a296828 	beq	a63f20 <__bss_end__+0xa59568>
    9e7c:	00000000 	andeq	r0, r0, r0
    9e80:	494e4150 	stmdbmi	lr, {r4, r6, r8, lr}^
    9e84:	73253a43 	teqvc	r5, #274432	; 0x43000
    9e88:	3a73253a 	bcc	1cd3378 <__bss_end__+0x1cc89c0>
    9e8c:	633a6425 	teqvs	sl, #620756992	; 0x25000000
    9e90:	6b636568 	blvs	18e3438 <__bss_end__+0x18d8a80>
    9e94:	6f6c625f 	svcvs	0x006c625f
    9e98:	68286b63 	stmdavs	r8!, {r0, r1, r5, r6, r8, r9, fp, sp, lr}
    9e9c:	00000a29 	andeq	r0, r0, r9, lsr #20
    9ea0:	6c616b63 	stclvs	11, cr6, [r1], #-396	; 0xfffffe74
    9ea4:	3a636f6c 	bcc	18e5c5c <__bss_end__+0x18db2a4>
    9ea8:	6f6c6c61 	svcvs	0x006c6c61
    9eac:	65746163 	ldrbvs	r6, [r4, #-355]!	; 0x163
    9eb0:	64252064 	strtvs	r2, [r5], #-100	; 0x64
    9eb4:	74796220 	ldrbtvc	r6, [r9], #-544	; 0x220
    9eb8:	202c7365 	eorcs	r7, ip, r5, ror #6
    9ebc:	746f7428 	strbtvc	r7, [pc], #-1064	; 9ec4 <__FUNCTION__.4312+0x284>
    9ec0:	253d6c61 	ldrcs	r6, [sp, #-3169]!	; 0xc61
    9ec4:	202c2964 	eorcs	r2, ip, r4, ror #18
    9ec8:	3d727470 	cfldrdcc	mvd7, [r2, #-448]!	; 0xfffffe40
    9ecc:	000a7025 	andeq	r7, sl, r5, lsr #32
    9ed0:	6e696f67 	cdpvs	15, 6, cr6, cr9, cr7, {3}
    9ed4:	6f742067 	svcvs	0x00742067
    9ed8:	65686320 	strbvs	r6, [r8, #-800]!	; 0x320
    9edc:	68206b63 	stmdavs	r0!, {r0, r1, r5, r6, r8, r9, fp, sp, lr}
    9ee0:	3a706165 	bcc	1c2247c <__bss_end__+0x1c17ac4>
    9ee4:	20642520 	rsbcs	r2, r4, r0, lsr #10
    9ee8:	65747962 	ldrbvs	r7, [r4, #-2402]!	; 0x962
    9eec:	6c612073 	stclvs	0, cr2, [r1], #-460	; 0xfffffe34
    9ef0:	61636f6c 	cmnvs	r3, ip, ror #30
    9ef4:	2c646574 	cfstr64cs	mvdx6, [r4], #-464	; 0xfffffe30
    9ef8:	20642520 	rsbcs	r2, r4, r0, lsr #10
    9efc:	65747962 	ldrbvs	r7, [r4, #-2402]!	; 0x962
    9f00:	656c2073 	strbvs	r2, [ip, #-115]!	; 0x73
    9f04:	000a7466 	andeq	r7, sl, r6, ror #8
    9f08:	58454c41 	stmdapl	r5, {r0, r6, sl, fp, lr}^
    9f0c:	4548203a 	strbmi	r2, [r8, #-58]	; 0x3a
    9f10:	52454441 	subpl	r4, r5, #1090519040	; 0x41000000
    9f14:	46464f20 	strbmi	r4, [r6], -r0, lsr #30
    9f18:	0000000a 	andeq	r0, r0, sl
    9f1c:	58454c41 	stmdapl	r5, {r0, r6, sl, fp, lr}^
    9f20:	4c42203a 	mcrrmi	0, 3, r2, r2, cr10
    9f24:	204b434f 	subcs	r4, fp, pc, asr #6
    9f28:	0a46464f 	beq	119b86c <__bss_end__+0x1190eb4>
    9f2c:	00000000 	andeq	r0, r0, r0
    9f30:	6f725709 	svcvs	0x00725709
    9f34:	62206574 	eorvs	r6, r0, #116, 10	; 0x1d000000
    9f38:	6b636f6c 	blvs	18e5cf0 <__bss_end__+0x18db338>
    9f3c:	74666120 	strbtvc	r6, [r6], #-288	; 0x120
    9f40:	66207265 	strtvs	r7, [r0], -r5, ror #4
    9f44:	21656572 	smccs	22098	; 0x5652
    9f48:	0000000a 	andeq	r0, r0, sl
    9f4c:	63656863 	cmnvs	r5, #6488064	; 0x630000
    9f50:	2064656b 	rsbcs	r6, r4, fp, ror #10
    9f54:	62206425 	eorvs	r6, r0, #620756992	; 0x25000000
    9f58:	6b636f6c 	blvs	18e5d10 <__bss_end__+0x18db358>
    9f5c:	64202c73 	strtvs	r2, [r0], #-3187	; 0xc73
    9f60:	63657465 	cmnvs	r5, #1694498816	; 0x65000000
    9f64:	20646574 	rsbcs	r6, r4, r4, ror r5
    9f68:	65206425 	strvs	r6, [r0, #-1061]!	; 0x425
    9f6c:	726f7272 	rsbvc	r7, pc, #536870919	; 0x20000007
    9f70:	00000a73 	andeq	r0, r0, r3, ror sl
    9f74:	43435553 	movtmi	r5, #13651	; 0x3553
    9f78:	3a535345 	bcc	14dec94 <__bss_end__+0x14d42dc>
    9f7c:	65686320 	strbvs	r6, [r8, #-800]!	; 0x320
    9f80:	64656b63 	strbtvs	r6, [r5], #-2915	; 0xb63
    9f84:	20642520 	rsbcs	r2, r4, r0, lsr #10
    9f88:	636f6c62 	cmnvs	pc, #25088	; 0x6200
    9f8c:	202c736b 	eorcs	r7, ip, fp, ror #6
    9f90:	65746564 	ldrbvs	r6, [r4, #-1380]!	; 0x564
    9f94:	64657463 	strbtvs	r7, [r5], #-1123	; 0x463
    9f98:	206f6e20 	rsbcs	r6, pc, r0, lsr #28
    9f9c:	6f727265 	svcvs	0x00727265
    9fa0:	000a7372 	andeq	r7, sl, r2, ror r3

00009fa4 <__FUNCTION__.4279>:
    9fa4:	6b72616d 	blvs	1ca2560 <__bss_end__+0x1c97ba8>
    9fa8:	00000000 	andeq	r0, r0, r0

00009fac <__FUNCTION__.4307>:
    9fac:	6b72616d 	blvs	1ca2568 <__bss_end__+0x1c97bb0>
    9fb0:	6c6c615f 	stfvse	f6, [ip], #-380	; 0xfffffe84
    9fb4:	00000000 	andeq	r0, r0, r0

00009fb8 <__FUNCTION__.4345>:
    9fb8:	65657773 	strbvs	r7, [r5, #-1907]!	; 0x773
    9fbc:	72665f70 	rsbvc	r5, r6, #112, 30	; 0x1c0
    9fc0:	00006565 	andeq	r6, r0, r5, ror #10

00009fc4 <__FUNCTION__.4327>:
    9fc4:	63656863 	cmnvs	r5, #6488064	; 0x630000
    9fc8:	6f6e5f6b 	svcvs	0x006e5f6b
    9fcc:	61656c5f 	cmnvs	r5, pc, asr ip
    9fd0:	0000006b 	andeq	r0, r0, fp, rrx

00009fd4 <__FUNCTION__.4331>:
    9fd4:	63656863 	cmnvs	r5, #6488064	; 0x630000
    9fd8:	68735f6b 	ldmdavs	r3!, {r0, r1, r3, r5, r6, r8, r9, sl, fp, ip, lr}^
    9fdc:	646c756f 	strbtvs	r7, [ip], #-1391	; 0x56f
    9fe0:	61656c5f 	cmnvs	r5, pc, asr ip
    9fe4:	0000006b 	andeq	r0, r0, fp, rrx

00009fe8 <__FUNCTION__.4336>:
    9fe8:	6c706d69 	ldclvs	13, cr6, [r0], #-420	; 0xfffffe5c
    9fec:	6e656d65 	cdpvs	13, 6, cr6, cr5, cr5, {3}
    9ff0:	68745f74 	ldmdavs	r4!, {r2, r4, r5, r6, r8, r9, sl, fp, ip, lr}^
    9ff4:	00007369 	andeq	r7, r0, r9, ror #6
    9ff8:	2d2d2d2d 	stccs	13, cr2, [sp, #-180]!	; 0xffffff4c
    9ffc:	2d2d2d2d 	stccs	13, cr2, [sp, #-180]!	; 0xffffff4c
    a000:	2d2d2d2d 	stccs	13, cr2, [sp, #-180]!	; 0xffffff4c
    a004:	2d2d2d2d 	stccs	13, cr2, [sp, #-180]!	; 0xffffff4c
    a008:	2d2d2d2d 	stccs	13, cr2, [sp, #-180]!	; 0xffffff4c
    a00c:	2d2d2d2d 	stccs	13, cr2, [sp, #-180]!	; 0xffffff4c
    a010:	2d2d2d2d 	stccs	13, cr2, [sp, #-180]!	; 0xffffff4c
    a014:	2d2d2d2d 	stccs	13, cr2, [sp, #-180]!	; 0xffffff4c
    a018:	2d2d2d2d 	stccs	13, cr2, [sp, #-180]!	; 0xffffff4c
    a01c:	2d2d2d2d 	stccs	13, cr2, [sp, #-180]!	; 0xffffff4c
    a020:	2d2d2d2d 	stccs	13, cr2, [sp, #-180]!	; 0xffffff4c
    a024:	2d2d2d2d 	stccs	13, cr2, [sp, #-180]!	; 0xffffff4c
    a028:	2d2d2d2d 	stccs	13, cr2, [sp, #-180]!	; 0xffffff4c
    a02c:	2d2d2d2d 	stccs	13, cr2, [sp, #-180]!	; 0xffffff4c
    a030:	00000a2d 	andeq	r0, r0, sp, lsr #20
    a034:	63656863 	cmnvs	r5, #6488064	; 0x630000
    a038:	676e696b 	strbvs	r6, [lr, -fp, ror #18]!
    a03c:	726f6620 	rsbvc	r6, pc, #32, 12	; 0x2000000
    a040:	61656c20 	cmnvs	r5, r0, lsr #24
    a044:	0a3a736b 	beq	ea6df8 <__bss_end__+0xe9c440>
    a048:	00000000 	andeq	r0, r0, r0
    a04c:	4f525245 	svcmi	0x00525245
    a050:	43473a52 	movtmi	r3, #31314	; 0x7a52
    a054:	4645443a 			; <UNDEFINED> instruction: 0x4645443a
    a058:	54494e49 	strbpl	r4, [r9], #-3657	; 0xe49
    a05c:	454c2045 	strbmi	r2, [ip, #-69]	; 0x45
    a060:	6f204b41 	svcvs	0x00204b41
    a064:	78252066 	stmdavc	r5!, {r1, r2, r5, r6, sp}
    a068:	0000000a 	andeq	r0, r0, sl
    a06c:	4f525245 	svcmi	0x00525245
    a070:	43473a52 	movtmi	r3, #31314	; 0x7a52
    a074:	59414d3a 	stmdbpl	r1, {r1, r3, r4, r5, r8, sl, fp, lr}^
    a078:	4c204542 	cfstr32mi	mvfx4, [r0], #-264	; 0xfffffef8
    a07c:	204b4145 	subcs	r4, fp, r5, asr #2
    a080:	2520666f 	strcs	r6, [r0, #-1647]!	; 0x66f
    a084:	6e282078 	mcrvs	0, 1, r2, cr8, cr8, {3}
    a088:	6f70206f 	svcvs	0x0070206f
    a08c:	65746e69 	ldrbvs	r6, [r4, #-3689]!	; 0xe69
    a090:	6f742072 	svcvs	0x00742072
    a094:	65687420 	strbvs	r7, [r8, #-1056]!	; 0x420
    a098:	61747320 	cmnvs	r4, r0, lsr #6
    a09c:	0a297472 	beq	a6726c <__bss_end__+0xa5c8b4>
    a0a0:	00000000 	andeq	r0, r0, r0
    a0a4:	3a434709 	bcc	10dbcd0 <__bss_end__+0x10d1318>
    a0a8:	63656843 	cmnvs	r5, #4390912	; 0x430000
    a0ac:	2064656b 	rsbcs	r6, r4, fp, ror #10
    a0b0:	62206425 	eorvs	r6, r0, #620756992	; 0x25000000
    a0b4:	6b636f6c 	blvs	18e5e6c <__bss_end__+0x18db4b4>
    a0b8:	000a2e73 	andeq	r2, sl, r3, ror lr
    a0bc:	43470909 	movtmi	r0, #30985	; 0x7909
    a0c0:	4355533a 	cmpmi	r5, #-402653184	; 0xe8000000
    a0c4:	53534543 	cmppl	r3, #281018368	; 0x10c00000
    a0c8:	6f4e203a 	svcvs	0x004e203a
    a0cc:	61656c20 	cmnvs	r5, r0, lsr #24
    a0d0:	6620736b 	strtvs	r7, [r0], -fp, ror #6
    a0d4:	646e756f 	strbtvs	r7, [lr], #-1391	; 0x56f
    a0d8:	00000a21 	andeq	r0, r0, r1, lsr #20
    a0dc:	43470909 	movtmi	r0, #30985	; 0x7909
    a0e0:	5252453a 	subspl	r4, r2, #243269632	; 0xe800000
    a0e4:	3a53524f 	bcc	14dea28 <__bss_end__+0x14d4070>
    a0e8:	20642520 	rsbcs	r2, r4, r0, lsr #10
    a0ec:	6f727265 	svcvs	0x00727265
    a0f0:	202c7372 	eorcs	r7, ip, r2, ror r3
    a0f4:	6d206425 	cfstrsvs	mvf6, [r0, #-148]!	; 0xffffff6c
    a0f8:	65627961 	strbvs	r7, [r2, #-2401]!	; 0x961
    a0fc:	7272655f 	rsbsvc	r6, r2, #398458880	; 0x17c00000
    a100:	0a73726f 	beq	1ce6ac4 <__bss_end__+0x1cdc10c>
    a104:	00000000 	andeq	r0, r0, r0
    a108:	2d2d2d2d 	stccs	13, cr2, [sp, #-180]!	; 0xffffff4c
    a10c:	2d2d2d2d 	stccs	13, cr2, [sp, #-180]!	; 0xffffff4c
    a110:	2d2d2d2d 	stccs	13, cr2, [sp, #-180]!	; 0xffffff4c
    a114:	2d2d2d2d 	stccs	13, cr2, [sp, #-180]!	; 0xffffff4c
    a118:	2d2d2d2d 	stccs	13, cr2, [sp, #-180]!	; 0xffffff4c
    a11c:	2d2d2d2d 	stccs	13, cr2, [sp, #-180]!	; 0xffffff4c
    a120:	2d2d2d2d 	stccs	13, cr2, [sp, #-180]!	; 0xffffff4c
    a124:	2d2d2d2d 	stccs	13, cr2, [sp, #-180]!	; 0xffffff4c
    a128:	2d2d2d2d 	stccs	13, cr2, [sp, #-180]!	; 0xffffff4c
    a12c:	2d2d2d2d 	stccs	13, cr2, [sp, #-180]!	; 0xffffff4c
    a130:	2d2d2d2d 	stccs	13, cr2, [sp, #-180]!	; 0xffffff4c
    a134:	2d2d2d2d 	stccs	13, cr2, [sp, #-180]!	; 0xffffff4c
    a138:	2d2d2d2d 	stccs	13, cr2, [sp, #-180]!	; 0xffffff4c
    a13c:	2d2d2d2d 	stccs	13, cr2, [sp, #-180]!	; 0xffffff4c
    a140:	000a2d2d 	andeq	r2, sl, sp, lsr #26
    a144:	494e4150 	stmdbmi	lr, {r4, r6, r8, lr}^
    a148:	73253a43 	teqvc	r5, #274432	; 0x43000
    a14c:	3a73253a 	bcc	1cd363c <__bss_end__+0x1cc8c84>
    a150:	703a6425 	eorsvc	r6, sl, r5, lsr #8
    a154:	000a653c 	andeq	r6, sl, ip, lsr r5
    a158:	672d6b63 	strvs	r6, [sp, -r3, ror #22]!
    a15c:	00632e63 	rsbeq	r2, r3, r3, ror #28
    a160:	494e4150 	stmdbmi	lr, {r4, r6, r8, lr}^
    a164:	73253a43 	teqvc	r5, #274432	; 0x43000
    a168:	3a73253a 	bcc	1cd3658 <__bss_end__+0x1cc8ca0>
    a16c:	613a6425 	teqvs	sl, r5, lsr #8
    a170:	6e67696c 	cdpvs	9, 6, cr6, cr7, cr12, {3}
    a174:	70286465 	eorvc	r6, r8, r5, ror #8
    a178:	0a29342c 	beq	a57230 <__bss_end__+0xa4c878>
    a17c:	00000000 	andeq	r0, r0, r0
    a180:	494e4150 	stmdbmi	lr, {r4, r6, r8, lr}^
    a184:	73253a43 	teqvc	r5, #274432	; 0x43000
    a188:	3a73253a 	bcc	1cd3678 <__bss_end__+0x1cc8cc0>
    a18c:	613a6425 	teqvs	sl, r5, lsr #8
    a190:	6e67696c 	cdpvs	9, 6, cr6, cr7, cr12, {3}
    a194:	65286465 	strvs	r6, [r8, #-1125]!	; 0x465
    a198:	0a29342c 	beq	a57250 <__bss_end__+0xa4c898>
    a19c:	00000000 	andeq	r0, r0, r0
    a1a0:	494e4150 	stmdbmi	lr, {r4, r6, r8, lr}^
    a1a4:	73253a43 	teqvc	r5, #274432	; 0x43000
    a1a8:	3a73253a 	bcc	1cd3698 <__bss_end__+0x1cc8ce0>
    a1ac:	723a6425 	eorsvc	r6, sl, #620756992	; 0x25000000
    a1b0:	5b736765 	blpl	1ce3f4c <__bss_end__+0x1cd9594>
    a1b4:	3d205d30 	stccc	13, cr5, [r0, #-192]!	; 0xffffff40
    a1b8:	7528203d 	strvc	r2, [r8, #-61]!	; 0x3d
    a1bc:	33746e69 	cmncc	r4, #1680	; 0x690
    a1c0:	29745f32 	ldmdbcs	r4!, {r1, r4, r5, r8, r9, sl, fp, ip, lr}^
    a1c4:	67657226 	strbvs	r7, [r5, -r6, lsr #4]!
    a1c8:	5d305b73 	fldmdbxpl	r0!, {d5-d61}	;@ Deprecated
    a1cc:	0000000a 	andeq	r0, r0, sl
    a1d0:	706d6f63 	rsbvc	r6, sp, r3, ror #30
    a1d4:	69746361 	ldmdbvs	r4!, {r0, r5, r6, r8, r9, sp, lr}^
    a1d8:	0a3a676e 	beq	ea3f98 <__bss_end__+0xe995e0>
    a1dc:	00000000 	andeq	r0, r0, r0
    a1e0:	463a4347 	ldrtmi	r4, [sl], -r7, asr #6
    a1e4:	69454552 	stmdbvs	r5, {r1, r4, r6, r8, sl, lr}^
    a1e8:	7020676e 	eorvc	r6, r0, lr, ror #14
    a1ec:	253d7274 	ldrcs	r7, [sp, #-628]!	; 0x274
    a1f0:	00000a78 	andeq	r0, r0, r8, ror sl
    a1f4:	3a434709 	bcc	10dbe20 <__bss_end__+0x10d1468>
    a1f8:	63656843 	cmnvs	r5, #4390912	; 0x430000
    a1fc:	2064656b 	rsbcs	r6, r4, fp, ror #10
    a200:	62206425 	eorvs	r6, r0, #620756992	; 0x25000000
    a204:	6b636f6c 	blvs	18e5fbc <__bss_end__+0x18db604>
    a208:	66202c73 			; <UNDEFINED> instruction: 0x66202c73
    a20c:	64656572 	strbtvs	r6, [r5], #-1394	; 0x572
    a210:	2c642520 	cfstr64cs	mvdx2, [r4], #-128	; 0xffffff80
    a214:	20642520 	rsbcs	r2, r4, r0, lsr #10
    a218:	65747962 	ldrbvs	r7, [r4, #-2402]!	; 0x962
    a21c:	00000a73 	andeq	r0, r0, r3, ror sl
    a220:	3a434709 	bcc	10dbe4c <__bss_end__+0x10d1494>
    a224:	61746f74 	cmnvs	r4, r4, ror pc
    a228:	6c61206c 	stclvs	0, cr2, [r1], #-432	; 0xfffffe50
    a22c:	61636f6c 	cmnvs	r3, ip, ror #30
    a230:	20646574 	rsbcs	r6, r4, r4, ror r5
    a234:	6425203d 	strtvs	r2, [r5], #-61	; 0x3d
    a238:	6f74202c 	svcvs	0x0074202c
    a23c:	206c6174 	rsbcs	r6, ip, r4, ror r1
    a240:	6c616564 	cfstr64vs	mvdx6, [r1], #-400	; 0xfffffe70
    a244:	61636f6c 	cmnvs	r3, ip, ror #30
    a248:	20646574 	rsbcs	r6, r4, r4, ror r5
    a24c:	6425203d 	strtvs	r2, [r5], #-61	; 0x3d
    a250:	0000000a 	andeq	r0, r0, sl
    a254:	494e4150 	stmdbmi	lr, {r4, r6, r8, lr}^
    a258:	73253a43 	teqvc	r5, #274432	; 0x43000
    a25c:	3a73253a 	bcc	1cd374c <__bss_end__+0x1cc8d94>
    a260:	473a6425 	ldrmi	r6, [sl, -r5, lsr #8]!
    a264:	69203a43 	stmdbvs	r0!, {r0, r1, r6, r9, fp, ip, sp}
    a268:	6c61766e 	stclvs	6, cr7, [r1], #-440	; 0xfffffe48
    a26c:	65206469 	strvs	r6, [r0, #-1129]!	; 0x469
    a270:	726f7272 	rsbvc	r7, pc, #536870919	; 0x20000007
    a274:	0a0a2121 	beq	292700 <__bss_end__+0x287d48>
    a278:	00000000 	andeq	r0, r0, r0
    a27c:	203a4347 	eorscs	r4, sl, r7, asr #6
    a280:	43435553 	movtmi	r5, #13651	; 0x3553
    a284:	20535345 	subscs	r5, r3, r5, asr #6
    a288:	70616568 	rsbvc	r6, r1, r8, ror #10
    a28c:	65686320 	strbvs	r6, [r8, #-800]!	; 0x320
    a290:	64656b63 	strbtvs	r6, [r5], #-2915	; 0xb63
    a294:	74756f20 	ldrbtvc	r6, [r5], #-3872	; 0xf20
    a298:	0000000a 	andeq	r0, r0, sl
    a29c:	494e4150 	stmdbmi	lr, {r4, r6, r8, lr}^
    a2a0:	73253a43 	teqvc	r5, #274432	; 0x43000
    a2a4:	3a73253a 	bcc	1cd3794 <__bss_end__+0x1cc8ddc>
    a2a8:	473a6425 	ldrmi	r6, [sl, -r5, lsr #8]!
    a2ac:	73203a43 	teqvc	r0, #274432	; 0x43000
    a2b0:	6c756f68 	ldclvs	15, cr6, [r5], #-416	; 0xfffffe60
    a2b4:	61682064 	cmnvs	r8, r4, rrx
    a2b8:	6e206576 	mcrvs	5, 1, r6, cr0, cr6, {3}
    a2bc:	656c206f 	strbvs	r2, [ip, #-111]!	; 0x6f
    a2c0:	21736b61 	cmncs	r3, r1, ror #22
    a2c4:	00000a0a 	andeq	r0, r0, sl, lsl #20
    a2c8:	203a4347 	eorscs	r4, sl, r7, asr #6
    a2cc:	43435553 	movtmi	r5, #13651	; 0x3553
    a2d0:	3a535345 	bcc	14defec <__bss_end__+0x14d4634>
    a2d4:	206f6e20 	rsbcs	r6, pc, r0, lsr #28
    a2d8:	6b61656c 	blvs	1863890 <__bss_end__+0x1858ed8>
    a2dc:	000a2173 	andeq	r2, sl, r3, ror r1
    a2e0:	494e4150 	stmdbmi	lr, {r4, r6, r8, lr}^
    a2e4:	73253a43 	teqvc	r5, #274432	; 0x43000
    a2e8:	3a73253a 	bcc	1cd37d8 <__bss_end__+0x1cc8e20>
    a2ec:	473a6425 	ldrmi	r6, [sl, -r5, lsr #8]!
    a2f0:	73203a43 	teqvc	r0, #274432	; 0x43000
    a2f4:	6c756f68 	ldclvs	15, cr6, [r5], #-416	; 0xfffffe60
    a2f8:	61682064 	cmnvs	r8, r4, rrx
    a2fc:	6c206576 	cfstr32vs	mvfx6, [r0], #-472	; 0xfffffe28
    a300:	736b6165 	cmnvc	fp, #1073741849	; 0x40000019
    a304:	000a0a21 	andeq	r0, sl, r1, lsr #20
    a308:	203a4347 	eorscs	r4, sl, r7, asr #6
    a30c:	43435553 	movtmi	r5, #13651	; 0x3553
    a310:	3a535345 	bcc	14df02c <__bss_end__+0x14d4674>
    a314:	756f6620 	strbvc	r6, [pc, #-1568]!	; 9cfc <__FUNCTION__.4312+0xbc>
    a318:	2520646e 	strcs	r6, [r0, #-1134]!	; 0x46e
    a31c:	656c2064 	strbvs	r2, [ip, #-100]!	; 0x64
    a320:	21736b61 	cmncs	r3, r1, ror #22
    a324:	0000000a 	andeq	r0, r0, sl
    a328:	494e4150 	stmdbmi	lr, {r4, r6, r8, lr}^
    a32c:	73253a43 	teqvc	r5, #274432	; 0x43000
    a330:	3a73253a 	bcc	1cd3820 <__bss_end__+0x1cc8e68>
    a334:	643a6425 	ldrtvs	r6, [sl], #-1061	; 0x425
    a338:	6e206469 	cdpvs	4, 2, cr6, cr0, cr9, {3}
    a33c:	6920746f 	stmdbvs	r0!, {r0, r1, r2, r3, r5, r6, sl, ip, sp, lr}
    a340:	656c706d 	strbvs	r7, [ip, #-109]!	; 0x6d
    a344:	746e656d 	strbtvc	r6, [lr], #-1389	; 0x56d
    a348:	6d756420 	cfldrdvs	mvd6, [r5, #-128]!	; 0xffffff80
    a34c:	65725f70 	ldrbvs	r5, [r2, #-3952]!	; 0xf70
    a350:	0a217367 	beq	8670f4 <__bss_end__+0x85c73c>
    a354:	0000000a 	andeq	r0, r0, sl

0000a358 <__FUNCTION__.4237>:
    a358:	74696d65 	strbtvc	r6, [r9], #-3429	; 0xd65
    a35c:	00000000 	andeq	r0, r0, r0

0000a360 <__FUNCTION__.4185>:
    a360:	5f697072 	svcpl	0x00697072
    a364:	5f746573 	svcpl	0x00746573
    a368:	7074756f 	rsbsvc	r7, r4, pc, ror #10
    a36c:	00007475 	andeq	r7, r0, r5, ror r4

0000a370 <__FUNCTION__.4259>:
    a370:	705f6176 	subsvc	r6, pc, r6, ror r1	; <UNPREDICTABLE>
    a374:	746e6972 	strbtvc	r6, [lr], #-2418	; 0x972
    a378:	0000006b 	andeq	r0, r0, fp, rrx
    a37c:	494e4150 	stmdbmi	lr, {r4, r6, r8, lr}^
    a380:	73253a43 	teqvc	r5, #274432	; 0x43000
    a384:	3a73253a 	bcc	1cd3874 <__bss_end__+0x1cc8ebc>
    a388:	303a6425 	eorscc	r6, sl, r5, lsr #8
    a38c:	0000000a 	andeq	r0, r0, sl
    a390:	6362696c 	cmnvs	r2, #108, 18	; 0x1b0000
    a394:	2d61762f 	stclcs	6, cr7, [r1, #-188]!	; 0xffffff44
    a398:	6e697270 	mcrvs	2, 3, r7, cr9, cr0, {3}
    a39c:	632e6b74 	teqvs	lr, #116, 22	; 0x1d000
    a3a0:	00000000 	andeq	r0, r0, r0
    a3a4:	33323130 	teqcc	r2, #48, 2
    a3a8:	37363534 			; <UNDEFINED> instruction: 0x37363534
    a3ac:	00003938 	andeq	r3, r0, r8, lsr r9
    a3b0:	33323130 	teqcc	r2, #48, 2
    a3b4:	37363534 			; <UNDEFINED> instruction: 0x37363534
    a3b8:	62613938 	rsbvs	r3, r1, #56, 18	; 0xe0000
    a3bc:	66656463 	strbtvs	r6, [r5], -r3, ror #8
    a3c0:	00000000 	andeq	r0, r0, r0
    a3c4:	00003130 	andeq	r3, r0, r0, lsr r1
    a3c8:	494e4150 	stmdbmi	lr, {r4, r6, r8, lr}^
    a3cc:	73253a43 	teqvc	r5, #274432	; 0x43000
    a3d0:	3a73253a 	bcc	1cd38c0 <__bss_end__+0x1cc8f08>
    a3d4:	703a6425 	eorsvc	r6, sl, r5, lsr #8
    a3d8:	5f637475 	svcpl	0x00637475
    a3dc:	000a7066 	andeq	r7, sl, r6, rrx
    a3e0:	494e4150 	stmdbmi	lr, {r4, r6, r8, lr}^
    a3e4:	73253a43 	teqvc	r5, #274432	; 0x43000
    a3e8:	3a73253a 	bcc	1cd38d8 <__bss_end__+0x1cc8f20>
    a3ec:	773a6425 	ldrvc	r6, [sl, -r5, lsr #8]!
    a3f0:	68746469 	ldmdavs	r4!, {r0, r3, r5, r6, sl, sp, lr}^
    a3f4:	33203c20 	teqcc	r0, #32, 24	; 0x2000
    a3f8:	00000a32 	andeq	r0, r0, r2, lsr sl
    a3fc:	494e4150 	stmdbmi	lr, {r4, r6, r8, lr}^
    a400:	73253a43 	teqvc	r5, #274432	; 0x43000
    a404:	3a73253a 	bcc	1cd38f4 <__bss_end__+0x1cc8f3c>
    a408:	663a6425 	ldrtvs	r6, [sl], -r5, lsr #8
    a40c:	74616f6c 	strbtvc	r6, [r1], #-3948	; 0xf6c
    a410:	746f6e20 	strbtvc	r6, [pc], #-3616	; a418 <__FUNCTION__.4259+0xa8>
    a414:	616e6520 	cmnvs	lr, r0, lsr #10
    a418:	64656c62 	strbtvs	r6, [r5], #-3170	; 0xc62
    a41c:	0a212121 	beq	8528a8 <__bss_end__+0x847ef0>
    a420:	00000000 	andeq	r0, r0, r0
    a424:	494e4150 	stmdbmi	lr, {r4, r6, r8, lr}^
    a428:	73253a43 	teqvc	r5, #274432	; 0x43000
    a42c:	3a73253a 	bcc	1cd391c <__bss_end__+0x1cc8f64>
    a430:	703a6425 	eorsvc	r6, sl, r5, lsr #8
    a434:	746e6972 	strbtvc	r6, [lr], #-2418	; 0x972
    a438:	6e203a6b 	vnmulvs.f32	s6, s0, s23
    a43c:	6820746f 	stmdavs	r0!, {r0, r1, r2, r3, r5, r6, sl, ip, sp, lr}
    a440:	6c646e61 	stclvs	14, cr6, [r4], #-388	; 0xfffffe7c
    a444:	20676e69 	rsbcs	r6, r7, r9, ror #28
    a448:	63657073 	cmnvs	r5, #115	; 0x73
    a44c:	65696669 	strbvs	r6, [r9, #-1641]!	; 0x669
    a450:	25272072 	strcs	r2, [r7, #-114]!	; 0x72
    a454:	0a0a2763 	beq	2941e8 <__bss_end__+0x289830>
    a458:	00000000 	andeq	r0, r0, r0
    a45c:	454e4f44 	strbmi	r4, [lr, #-3908]	; 0xf44
    a460:	0a212121 	beq	8528ec <__bss_end__+0x847f34>
    a464:	00000000 	andeq	r0, r0, r0

0000a468 <__FUNCTION__.4237>:
    a468:	6c616d6b 	stclvs	13, cr6, [r1], #-428	; 0xfffffe54
    a46c:	5f636f6c 	svcpl	0x00636f6c
    a470:	74696e69 	strbtvc	r6, [r9], #-3689	; 0xe69
    a474:	7465735f 	strbtvc	r7, [r5], #-863	; 0x35f
    a478:	6174735f 	cmnvs	r4, pc, asr r3
    a47c:	00007472 	andeq	r7, r0, r2, ror r4

0000a480 <__FUNCTION__.4241>:
    a480:	6c616d6b 	stclvs	13, cr6, [r1], #-428	; 0xfffffe54
    a484:	00636f6c 	rsbeq	r6, r3, ip, ror #30

0000a488 <__FUNCTION__.4253>:
    a488:	6c616d6b 	stclvs	13, cr6, [r1], #-428	; 0xfffffe54
    a48c:	5f636f6c 	svcpl	0x00636f6c
    a490:	67696c61 	strbvs	r6, [r9, -r1, ror #24]!
    a494:	0064656e 	rsbeq	r6, r4, lr, ror #10
    a498:	6c616d6b 	stclvs	13, cr6, [r1], #-428	; 0xfffffe54
    a49c:	2e636f6c 	cdpcs	15, 6, cr6, cr3, cr12, {3}
    a4a0:	00000063 	andeq	r0, r0, r3, rrx
    a4a4:	494e4150 	stmdbmi	lr, {r4, r6, r8, lr}^
    a4a8:	73253a43 	teqvc	r5, #274432	; 0x43000
    a4ac:	3a73253a 	bcc	1cd399c <__bss_end__+0x1cc8fe4>
    a4b0:	613a6425 	teqvs	sl, r5, lsr #8
    a4b4:	20726464 	rsbscs	r6, r2, r4, ror #8
    a4b8:	6568203e 	strbvs	r2, [r8, #-62]!	; 0x3e
    a4bc:	000a7061 	andeq	r7, sl, r1, rrx
    a4c0:	494e4150 	stmdbmi	lr, {r4, r6, r8, lr}^
    a4c4:	73253a43 	teqvc	r5, #274432	; 0x43000
    a4c8:	3a73253a 	bcc	1cd39b8 <__bss_end__+0x1cc9000>
    a4cc:	733a6425 	teqvc	sl, #620756992	; 0x25000000
    a4d0:	00000a7a 	andeq	r0, r0, sl, ror sl
    a4d4:	4f525245 	svcmi	0x00525245
    a4d8:	73253a52 	teqvc	r5, #335872	; 0x52000
    a4dc:	3a73253a 	bcc	1cd39cc <__bss_end__+0x1cc9014>
    a4e0:	203a6425 	eorscs	r6, sl, r5, lsr #8
    a4e4:	534c4146 	movtpl	r4, #49478	; 0xc146
    a4e8:	283c2845 	ldmdacs	ip!, {r0, r2, r6, fp, sp}
    a4ec:	6c612828 	stclvs	8, cr2, [r1], #-160	; 0xffffff60
    a4f0:	6d6e6769 	stclvs	7, cr6, [lr, #-420]!	; 0xfffffe5c
    a4f4:	29746e65 	ldmdbcs	r4!, {r0, r2, r5, r6, r9, sl, fp, sp, lr}^
    a4f8:	61282d26 	teqvs	r8, r6, lsr #26
    a4fc:	6e67696c 	cdpvs	9, 6, cr6, cr7, cr12, {3}
    a500:	746e656d 	strbtvc	r6, [lr], #-1389	; 0x56d
    a504:	3d202929 	stccc	9, cr2, [r0, #-164]!	; 0xffffff5c
    a508:	6128203d 	teqvs	r8, sp, lsr r0
    a50c:	6e67696c 	cdpvs	9, 6, cr6, cr7, cr12, {3}
    a510:	746e656d 	strbtvc	r6, [lr], #-1389	; 0x56d
    a514:	293e2929 	ldmdbcs	lr!, {r0, r3, r5, r8, fp, sp}
    a518:	7361203a 	cmnvc	r1, #58	; 0x3a
    a51c:	696d7573 	stmdbvs	sp!, {r0, r1, r4, r5, r6, r8, sl, ip, sp, lr}^
    a520:	7020676e 	eorvc	r6, r0, lr, ror #14
    a524:	7265776f 	rsbvc	r7, r5, #29097984	; 0x1bc0000
    a528:	20666f20 	rsbcs	r6, r6, r0, lsr #30
    a52c:	0a6f7774 	beq	1be8304 <__bss_end__+0x1bdd94c>
    a530:	00000000 	andeq	r0, r0, r0
    a534:	4f525245 	svcmi	0x00525245
    a538:	73253a52 	teqvc	r5, #335872	; 0x52000
    a53c:	3a73253a 	bcc	1cd3a2c <__bss_end__+0x1cc9074>
    a540:	203a6425 	eorscs	r6, sl, r5, lsr #8
    a544:	534c4146 	movtpl	r4, #49478	; 0xc146
    a548:	283c2845 	ldmdacs	ip!, {r0, r2, r6, fp, sp}
    a54c:	29682828 	stmdbcs	r8!, {r3, r5, fp, sp}^
    a550:	28202620 	stmdacs	r0!, {r5, r9, sl, sp}
    a554:	70797428 	rsbsvc	r7, r9, r8, lsr #8
    a558:	28666f65 	stmdacs	r6!, {r0, r2, r5, r6, r8, r9, sl, fp, sp, lr}^
    a55c:	28292968 	stmdacs	r9!, {r3, r5, r6, r8, fp, sp}
    a560:	67696c61 	strbvs	r6, [r9, -r1, ror #24]!
    a564:	6e656d6e 	cdpvs	13, 6, cr6, cr5, cr14, {3}
    a568:	2d202974 	stccs	9, cr2, [r0, #-464]!	; 0xfffffe30
    a56c:	29293120 	stmdbcs	r9!, {r5, r8, ip, sp}
    a570:	203d3d20 	eorscs	r3, sp, r0, lsr #26
    a574:	293e2930 	ldmdbcs	lr!, {r4, r5, r8, fp, sp}
    a578:	6d69203a 	stclvs	0, cr2, [r9, #-232]!	; 0xffffff18
    a57c:	73736f70 	cmnvc	r3, #112, 30	; 0x1c0
    a580:	656c6269 	strbvs	r6, [ip, #-617]!	; 0x269
    a584:	0000000a 	andeq	r0, r0, sl

Disassembly of section .bss:

0000a588 <__bss_start__>:
    a588:	00000000 	andeq	r0, r0, r0

0000a58c <heap>:
    a58c:	00000000 	andeq	r0, r0, r0

0000a590 <heap_end>:
    a590:	00000000 	andeq	r0, r0, r0

0000a594 <my_info>:
	...

0000a5a4 <info>:
	...

0000a5b4 <buf.4185>:
	...

Disassembly of section .ARM.attributes:

00000000 <.ARM.attributes>:
   0:	00002a41 	andeq	r2, r0, r1, asr #20
   4:	61656100 	cmnvs	r5, r0, lsl #2
   8:	01006962 	tsteq	r0, r2, ror #18
   c:	00000020 	andeq	r0, r0, r0, lsr #32
  10:	4b5a3605 	blmi	168d82c <__bss_end__+0x1682e74>
  14:	08070600 	stmdaeq	r7, {r9, sl}
  18:	12010901 	andne	r0, r1, #16384	; 0x4000
  1c:	15011404 	strne	r1, [r1, #-1028]	; 0x404
  20:	18031701 	stmdane	r3, {r0, r8, r9, sl, ip}
  24:	22011a01 	andcs	r1, r1, #4096	; 0x1000
  28:	Address 0x0000000000000028 is out of bounds.


Disassembly of section .comment:

00000000 <.comment>:
   0:	3a434347 	bcc	10d0d24 <__bss_end__+0x10c636c>
   4:	4e472820 	cdpmi	8, 4, cr2, cr7, cr0, {1}
   8:	34202955 	strtcc	r2, [r0], #-2389	; 0x955
   c:	332e382e 	teqcc	lr, #3014656	; 0x2e0000
  10:	43434700 	movtmi	r4, #14080	; 0x3700
  14:	3128203a 	teqcc	r8, sl, lsr r0
  18:	2e363a35 	mrccs	10, 1, r3, cr6, cr5, {1}
  1c:	2b312e33 	blcs	c4b8f0 <__bss_end__+0xc40f38>
  20:	326e7673 	rsbcc	r7, lr, #120586240	; 0x7300000
  24:	33303335 	teqcc	r0, #-738197504	; 0xd4000000
  28:	62312d39 	eorsvs	r2, r1, #3648	; 0xe40
  2c:	646c6975 	strbtvs	r6, [ip], #-2421	; 0x975
  30:	36202931 			; <UNDEFINED> instruction: 0x36202931
  34:	312e332e 	teqcc	lr, lr, lsr #6
  38:	31303220 	teqcc	r0, r0, lsr #4
  3c:	32363037 	eorscc	r3, r6, #55	; 0x37
  40:	Address 0x0000000000000040 is out of bounds.


Disassembly of section .debug_info:

00000000 <.debug_info>:
       0:	000002af 	andeq	r0, r0, pc, lsr #5
       4:	00000004 	andeq	r0, r0, r4
       8:	01040000 	mrseq	r0, (UNDEF: 4)
       c:	0000005f 	andeq	r0, r0, pc, asr r0
      10:	0000cc01 	andeq	ip, r0, r1, lsl #24
      14:	00000f00 	andeq	r0, r0, r0, lsl #30
      18:	00801000 	addeq	r1, r0, r0
      1c:	0000b400 	andeq	fp, r0, r0, lsl #8
      20:	00000000 	andeq	r0, r0, r0
      24:	05040200 	streq	r0, [r4, #-512]	; 0x200
      28:	00746e69 	rsbseq	r6, r4, r9, ror #28
      2c:	00000003 	andeq	r0, r0, r3
      30:	37d40200 	ldrbcc	r0, [r4, r0, lsl #4]
      34:	04000000 	streq	r0, [r0], #-0
      38:	01340704 	teqeq	r4, r4, lsl #14
      3c:	01040000 	mrseq	r0, (UNDEF: 4)
      40:	0000e206 	andeq	lr, r0, r6, lsl #4
      44:	05020400 	streq	r0, [r2, #-1024]	; 0x400
      48:	00000158 	andeq	r0, r0, r8, asr r1
      4c:	4f050404 	svcmi	0x00050404
      50:	04000001 	streq	r0, [r0], #-1
      54:	014a0508 	cmpeq	sl, r8, lsl #10
      58:	01040000 	mrseq	r0, (UNDEF: 4)
      5c:	0000e008 	andeq	lr, r0, r8
      60:	07020400 	streq	r0, [r2, -r0, lsl #8]
      64:	000000ee 	andeq	r0, r0, lr, ror #1
      68:	00016203 	andeq	r6, r1, r3, lsl #4
      6c:	73340300 	teqvc	r4, #0, 6
      70:	04000000 	streq	r0, [r0], #-0
      74:	012f0704 	teqeq	pc, r4, lsl #14
      78:	08040000 	stmdaeq	r4, {}	; <UNPREDICTABLE>
      7c:	00012a07 	andeq	r2, r1, r7, lsl #20
      80:	07040400 	streq	r0, [r4, -r0, lsl #8]
      84:	00000141 	andeq	r0, r0, r1, asr #2
      88:	01040405 	tsteq	r4, r5, lsl #8
      8c:	0000e908 	andeq	lr, r0, r8, lsl #18
      90:	97040600 	strls	r0, [r4, -r0, lsl #12]
      94:	07000000 	streq	r0, [r0, -r0]
      98:	0000008a 	andeq	r0, r0, sl, lsl #1
      9c:	00011d08 	andeq	r1, r1, r8, lsl #26
      a0:	880b0100 	stmdahi	fp, {r8}
      a4:	10000000 	andne	r0, r0, r0
      a8:	74000080 	strvc	r0, [r0], #-128	; 0x80
      ac:	01000000 	mrseq	r0, (UNDEF: 0)
      b0:	00016a9c 	muleq	r1, ip, sl
      b4:	05050900 	streq	r0, [r5, #-2304]	; 0x900
      b8:	01080000 	mrseq	r0, (UNDEF: 8)
      bc:	0000d80c 	andeq	sp, r0, ip, lsl #16
      c0:	00780a00 	rsbseq	r0, r8, r0, lsl #20
      c4:	00250d01 	eoreq	r0, r5, r1, lsl #26
      c8:	0b000000 	bleq	d0 <_start-0x7f30>
      cc:	00000a03 	andeq	r0, r0, r3, lsl #20
      d0:	016a0e01 	cmneq	sl, r1, lsl #28
      d4:	00040000 	andeq	r0, r4, r0
      d8:	0100680c 	tsteq	r0, ip, lsl #16
      dc:	00016a0f 	andeq	r6, r1, pc, lsl #20
      e0:	00000000 	andeq	r0, r0, r0
      e4:	01100d00 	tsteq	r0, r0, lsl #26
      e8:	01800000 	orreq	r0, r0, r0
      ec:	03050000 	movweq	r0, #20480	; 0x5000
      f0:	00009bc0 	andeq	r9, r0, r0, asr #23
      f4:	0000000e 	andeq	r0, r0, lr
      f8:	00016000 	andeq	r6, r1, r0
      fc:	00690c00 	rsbeq	r0, r9, r0, lsl #24
     100:	00251101 	eoreq	r1, r5, r1, lsl #2
     104:	00350000 	eorseq	r0, r5, r0
     108:	180f0000 	stmdane	pc, {}	; <UNPREDICTABLE>
     10c:	0c000000 	stceq	0, cr0, [r0], {-0}
     110:	12010065 	andne	r0, r1, #101	; 0x65
     114:	0000016a 	andeq	r0, r0, sl, ror #2
     118:	00000054 	andeq	r0, r0, r4, asr r0
     11c:	00804810 	addeq	r4, r0, r0, lsl r8
     120:	00021a00 	andeq	r1, r2, r0, lsl #20
     124:	00014200 	andeq	r4, r1, r0, lsl #4
     128:	53011100 	movwpl	r1, #4352	; 0x1100
     12c:	11007902 	tstne	r0, r2, lsl #18
     130:	7a025201 	bvc	9493c <__bss_end__+0x89f84>
     134:	51011100 	mrspl	r1, (UNDEF: 17)
     138:	11007b02 	tstne	r0, r2, lsl #22
     13c:	78025001 	stmdavc	r2, {r0, ip, lr}
     140:	58120000 	ldmdapl	r2, {}	; <UNPREDICTABLE>
     144:	3e000080 	cdpcc	0, 0, cr0, cr0, cr0, {4}
     148:	11000002 	tstne	r0, r2
     14c:	78025201 	stmdavc	r2, {r0, r9, ip, lr}
     150:	51011100 	mrspl	r1, (UNDEF: 17)
     154:	11007702 	tstne	r0, r2, lsl #14
     158:	74025001 	strvc	r5, [r2], #-1
     15c:	00000000 	andeq	r0, r0, r0
     160:	00807413 	addeq	r7, r0, r3, lsl r4
     164:	00025d00 	andeq	r5, r2, r0, lsl #26
     168:	04060000 	streq	r0, [r6], #-0
     16c:	000000b5 	strheq	r0, [r0], -r5
     170:	00008a14 	andeq	r8, r0, r4, lsl sl
     174:	00018000 	andeq	r8, r1, r0
     178:	00811500 	addeq	r1, r1, r0, lsl #10
     17c:	00040000 	andeq	r0, r4, r0
     180:	00017007 	andeq	r7, r1, r7
     184:	00b61600 	adcseq	r1, r6, r0, lsl #12
     188:	23010000 	movwcs	r0, #4096	; 0x1000
     18c:	00008084 	andeq	r8, r0, r4, lsl #1
     190:	00000040 	andeq	r0, r0, r0, asr #32
     194:	021a9c01 	andseq	r9, sl, #256	; 0x100
     198:	6e170000 	cdpvs	0, 1, cr0, cr7, cr0, {0}
     19c:	37280100 	strcc	r0, [r8, -r0, lsl #2]!
     1a0:	00000000 	andeq	r0, r0, r0
     1a4:	10001000 	andne	r1, r0, r0
     1a8:	00008090 	muleq	r0, r0, r0
     1ac:	00000264 	andeq	r0, r0, r4, ror #4
     1b0:	000001be 			; <UNDEFINED> instruction: 0x000001be
     1b4:	05500111 	ldrbeq	r0, [r0, #-273]	; 0x111
     1b8:	009bdc03 	addseq	sp, fp, r3, lsl #24
     1bc:	98100000 	ldmdals	r0, {}	; <UNPREDICTABLE>
     1c0:	7a000080 	bvc	3c8 <_start-0x7c38>
     1c4:	d3000002 	movwle	r0, #2
     1c8:	11000001 	tstne	r0, r1
     1cc:	40035001 	andmi	r5, r3, r1
     1d0:	10002440 	andne	r2, r0, r0, asr #8
     1d4:	000080a0 	andeq	r8, r0, r0, lsr #1
     1d8:	0000028b 	andeq	r0, r0, fp, lsl #5
     1dc:	000001e8 	andeq	r0, r0, r8, ror #3
     1e0:	03500111 	cmpeq	r0, #1073741828	; 0x40000004
     1e4:	00244040 	eoreq	r4, r4, r0, asr #32
     1e8:	0080a810 	addeq	sl, r0, r0, lsl r8
     1ec:	0002a000 	andeq	sl, r2, r0
     1f0:	0001fd00 	andeq	pc, r1, r0, lsl #26
     1f4:	51011100 	mrspl	r1, (UNDEF: 17)
     1f8:	24404003 	strbcs	r4, [r0], #-3
     1fc:	80ac1300 	adchi	r1, ip, r0, lsl #6
     200:	009c0000 	addseq	r0, ip, r0
     204:	b8120000 	ldmdalt	r2, {}	; <UNPREDICTABLE>
     208:	64000080 	strvs	r0, [r0], #-128	; 0x80
     20c:	11000002 	tstne	r0, r2
     210:	03055001 	movweq	r5, #20481	; 0x5001
     214:	00009c20 	andeq	r9, r0, r0, lsr #24
     218:	07180000 	ldreq	r0, [r8, -r0]
     21c:	04000000 	streq	r0, [r0], #-0
     220:	00008811 	andeq	r8, r0, r1, lsl r8
     224:	00023e00 	andeq	r3, r2, r0, lsl #28
     228:	00681900 	rsbeq	r1, r8, r0, lsl #18
     22c:	91190000 	tstls	r9, r0
     230:	19000000 	stmdbne	r0, {}	; <UNPREDICTABLE>
     234:	00000091 	muleq	r0, r1, r0
     238:	00003719 	andeq	r3, r0, r9, lsl r7
     23c:	09180000 	ldmdbeq	r8, {}	; <UNPREDICTABLE>
     240:	05000001 	streq	r0, [r0, #-1]
     244:	0000881b 	andeq	r8, r0, fp, lsl r8
     248:	00025d00 	andeq	r5, r2, r0, lsl #26
     24c:	00881900 	addeq	r1, r8, r0, lsl #18
     250:	25190000 	ldrcs	r0, [r9, #-0]
     254:	19000000 	stmdbne	r0, {}	; <UNPREDICTABLE>
     258:	0000002c 	andeq	r0, r0, ip, lsr #32
     25c:	00be1a00 	adcseq	r1, lr, r0, lsl #20
     260:	39040000 	stmdbcc	r4, {}	; <UNPREDICTABLE>
     264:	0004f918 	andeq	pc, r4, r8, lsl r9	; <UNPREDICTABLE>
     268:	25290600 	strcs	r0, [r9, #-1536]!	; 0x600
     26c:	7a000000 	bvc	274 <_start-0x7d8c>
     270:	19000002 	stmdbne	r0, {r1}
     274:	00000091 	muleq	r0, r1, r0
     278:	6b1c001b 	blvs	7002ec <__bss_end__+0x6f5934>
     27c:	06000001 	streq	r0, [r0], -r1
     280:	00028b72 	andeq	r8, r2, r2, ror fp
     284:	00371900 	eorseq	r1, r7, r0, lsl #18
     288:	18000000 	stmdane	r0, {}	; <UNPREDICTABLE>
     28c:	00000101 	andeq	r0, r0, r1, lsl #2
     290:	00886c06 	addeq	r6, r8, r6, lsl #24
     294:	02a00000 	adceq	r0, r0, #0
     298:	37190000 	ldrcc	r0, [r9, -r0]
     29c:	00000000 	andeq	r0, r0, r0
     2a0:	0001221d 	andeq	r2, r1, sp, lsl r2
     2a4:	190b0400 	stmdbne	fp, {sl}
     2a8:	00000088 	andeq	r0, r0, r8, lsl #1
     2ac:	00003719 	andeq	r3, r0, r9, lsl r7
     2b0:	87000000 	strhi	r0, [r0, -r0]
     2b4:	0400000e 	streq	r0, [r0], #-14
     2b8:	00018300 	andeq	r8, r1, r0, lsl #6
     2bc:	5f010400 	svcpl	0x00010400
     2c0:	01000000 	mrseq	r0, (UNDEF: 0)
     2c4:	0000022d 	andeq	r0, r0, sp, lsr #4
     2c8:	0000000f 	andeq	r0, r0, pc
     2cc:	000080c4 	andeq	r8, r0, r4, asr #1
     2d0:	0000078c 	andeq	r0, r0, ip, lsl #15
     2d4:	00000196 	muleq	r0, r6, r1
     2d8:	69050402 	stmdbvs	r5, {r1, sl}
     2dc:	0300746e 	movweq	r7, #1134	; 0x46e
     2e0:	00000000 	andeq	r0, r0, r0
     2e4:	0037d403 	eorseq	sp, r7, r3, lsl #8
     2e8:	04040000 	streq	r0, [r4], #-0
     2ec:	00013407 	andeq	r3, r1, r7, lsl #8
     2f0:	06010400 	streq	r0, [r1], -r0, lsl #8
     2f4:	000000e2 	andeq	r0, r0, r2, ror #1
     2f8:	58050204 	stmdapl	r5, {r2, r9}
     2fc:	04000001 	streq	r0, [r0], #-1
     300:	014f0504 	cmpeq	pc, r4, lsl #10
     304:	08040000 	stmdaeq	r4, {}	; <UNPREDICTABLE>
     308:	00014a05 	andeq	r4, r1, r5, lsl #20
     30c:	03410300 	movteq	r0, #4864	; 0x1300
     310:	2e040000 	cdpcs	0, 0, cr0, cr4, cr0, {0}
     314:	00000065 	andeq	r0, r0, r5, rrx
     318:	e0080104 	and	r0, r8, r4, lsl #2
     31c:	03000000 	movweq	r0, #0
     320:	000001e9 	andeq	r0, r0, r9, ror #3
     324:	00773104 	rsbseq	r3, r7, r4, lsl #2
     328:	02040000 	andeq	r0, r4, #0
     32c:	0000ee07 	andeq	lr, r0, r7, lsl #28
     330:	01620300 	cmneq	r2, r0, lsl #6
     334:	34040000 	strcc	r0, [r4], #-0
     338:	00000089 	andeq	r0, r0, r9, lsl #1
     33c:	2f070404 	svccs	0x00070404
     340:	04000001 	streq	r0, [r0], #-1
     344:	012a0708 	teqeq	sl, r8, lsl #14
     348:	04040000 	streq	r0, [r4], #-0
     34c:	00014107 	andeq	r4, r1, r7, lsl #2
     350:	06040500 	streq	r0, [r4], -r0, lsl #10
     354:	0000a604 	andeq	sl, r0, r4, lsl #12
     358:	08010400 	stmdaeq	r1, {sl}
     35c:	000000e9 	andeq	r0, r0, r9, ror #1
     360:	00b30406 	adcseq	r0, r3, r6, lsl #8
     364:	a6070000 	strge	r0, [r7], -r0
     368:	08000000 	stmdaeq	r0, {}	; <UNPREDICTABLE>
     36c:	000000a6 	andeq	r0, r0, r6, lsr #1
     370:	000000c8 	andeq	r0, r0, r8, asr #1
     374:	00009709 	andeq	r9, r0, r9, lsl #14
     378:	0a000700 	beq	1f80 <_start-0x6080>
     37c:	dd270201 	sfmle	f0, 4, [r7, #-4]!
     380:	0b000000 	bleq	388 <_start-0x7c78>
     384:	000001cb 	andeq	r0, r0, fp, asr #3
     388:	01c50b0b 	biceq	r0, r5, fp, lsl #22
     38c:	000c0000 	andeq	r0, ip, r0
     390:	29020c0c 	stmdbcs	r2, {r2, r3, sl, fp}
     394:	0000010a 	andeq	r0, r0, sl, lsl #2
     398:	0008da0d 	andeq	sp, r8, sp, lsl #20
     39c:	ad2a0200 	sfmge	f0, 4, [sl, #-0]
     3a0:	00000000 	andeq	r0, r0, r0
     3a4:	000ba40d 	andeq	sl, fp, sp, lsl #8
     3a8:	ad2b0200 	sfmge	f0, 4, [fp, #-0]
     3ac:	04000000 	streq	r0, [r0], #-0
     3b0:	00032d0d 	andeq	r2, r3, sp, lsl #26
     3b4:	372c0200 	strcc	r0, [ip, -r0, lsl #4]!
     3b8:	08000000 	stmdaeq	r0, {}	; <UNPREDICTABLE>
     3bc:	02b40300 	adcseq	r0, r4, #0, 6
     3c0:	2d020000 	stccs	0, cr0, [r2, #-0]
     3c4:	000000dd 	ldrdeq	r0, [r0], -sp
     3c8:	0003780e 	andeq	r7, r3, lr, lsl #16
     3cc:	30023800 	andcc	r3, r2, r0, lsl #16
     3d0:	0000019a 	muleq	r0, sl, r1
     3d4:	0002880d 	andeq	r8, r2, sp, lsl #16
     3d8:	7e310200 	cdpvc	2, 3, cr0, cr1, cr0, {0}
     3dc:	00000000 	andeq	r0, r0, r0
     3e0:	00035e0d 	andeq	r5, r3, sp, lsl #28
     3e4:	7e320200 	cdpvc	2, 3, cr0, cr2, cr0, {0}
     3e8:	04000000 	streq	r0, [r0], #-0
     3ec:	0007650d 	andeq	r6, r7, sp, lsl #10
     3f0:	7e330200 	cdpvc	2, 3, cr0, cr3, cr0, {0}
     3f4:	08000000 	stmdaeq	r0, {}	; <UNPREDICTABLE>
     3f8:	0002820d 	andeq	r8, r2, sp, lsl #4
     3fc:	7e370200 	cdpvc	2, 3, cr0, cr7, cr0, {0}
     400:	0c000000 	stceq	0, cr0, [r0], {-0}
     404:	0002620d 	andeq	r6, r2, sp, lsl #4
     408:	0a390200 	beq	e40c10 <__bss_end__+0xe36258>
     40c:	10000001 	andne	r0, r0, r1
     410:	0002950d 	andeq	r9, r2, sp, lsl #10
     414:	0a3a0200 	beq	e80c1c <__bss_end__+0xe76264>
     418:	1c000001 	stcne	0, cr0, [r0], {1}
     41c:	0003530d 	andeq	r5, r3, sp, lsl #6
     420:	7e3e0200 	cdpvc	2, 3, cr0, cr14, cr0, {0}
     424:	28000000 	stmdacs	r0, {}	; <UNPREDICTABLE>
     428:	0003060d 	andeq	r0, r3, sp, lsl #12
     42c:	7e3f0200 	cdpvc	2, 3, cr0, cr15, cr0, {0}
     430:	2c000000 	stccs	0, cr0, [r0], {-0}
     434:	0001a30d 	andeq	sl, r1, sp, lsl #6
     438:	9a420200 	bls	1080c40 <__bss_end__+0x1076288>
     43c:	30000001 	andcc	r0, r0, r1
     440:	0001ac0d 	andeq	sl, r1, sp, lsl #24
     444:	6c450200 	sfmvs	f0, 2, [r5], {-0}
     448:	34000000 	strcc	r0, [r0], #-0
     44c:	15040600 	strne	r0, [r4, #-1536]	; 0x600
     450:	03000001 	movweq	r0, #1
     454:	00000349 	andeq	r0, r0, r9, asr #6
     458:	01154602 	tsteq	r5, r2, lsl #12
     45c:	020a0000 	andeq	r0, sl, #0
     460:	01d04902 	bicseq	r4, r0, r2, lsl #18
     464:	f00b0000 			; <UNDEFINED> instruction: 0xf00b0000
     468:	fe000002 	cdp2	0, 0, cr0, cr0, cr2, {0}
     46c:	02760b01 	rsbseq	r0, r6, #1024	; 0x400
     470:	01800000 	orreq	r0, r0, r0
     474:	0002110b 	andeq	r1, r2, fp, lsl #2
     478:	0b01b800 	bleq	6e480 <__bss_end__+0x63ac8>
     47c:	000001f2 	strdeq	r0, [r0], -r2
     480:	0e0002b8 	mcreq	2, 0, r0, cr0, cr8, {5}
     484:	000002aa 	andeq	r0, r0, sl, lsr #5
     488:	0d9b0210 	lfmeq	f0, 4, [fp, #64]	; 0x40
     48c:	0d000002 	stceq	0, cr0, [r0, #-8]
     490:	00000d45 	andeq	r0, r0, r5, asr #26
     494:	009e9d02 	addseq	r9, lr, r2, lsl #26
     498:	0d000000 	stceq	0, cr0, [r0, #-0]
     49c:	00000d5e 	andeq	r0, r0, lr, asr sp
     4a0:	009e9f02 	addseq	r9, lr, r2, lsl #30
     4a4:	0d040000 	stceq	0, cr0, [r4, #-0]
     4a8:	00000189 	andeq	r0, r0, r9, lsl #3
     4ac:	0037a202 	eorseq	sl, r7, r2, lsl #4
     4b0:	0d080000 	stceq	0, cr0, [r8, #-0]
     4b4:	00000312 	andeq	r0, r0, r2, lsl r3
     4b8:	0037a402 	eorseq	sl, r7, r2, lsl #8
     4bc:	000c0000 	andeq	r0, ip, r0
     4c0:	0001bb0f 	andeq	fp, r1, pc, lsl #22
     4c4:	9e570200 	cdpls	2, 5, cr0, cr7, cr0, {0}
     4c8:	03000000 	movweq	r0, #0
     4cc:	00000227 	andeq	r0, r0, r7, lsr #4
     4d0:	02006810 	andeq	r6, r0, #16, 16	; 0x100000
     4d4:	00022757 	andeq	r2, r2, r7, asr r7
     4d8:	04060000 	streq	r0, [r6], #-0
     4dc:	000001a0 	andeq	r0, r0, r0, lsr #3
     4e0:	00029e0f 	andeq	r9, r2, pc, lsl #28
     4e4:	9e590200 	cdpls	2, 5, cr0, cr9, cr0, {0}
     4e8:	03000000 	movweq	r0, #0
     4ec:	00000247 	andeq	r0, r0, r7, asr #4
     4f0:	02006810 	andeq	r6, r0, #16, 16	; 0x100000
     4f4:	00022759 	andeq	r2, r2, r9, asr r7
     4f8:	ce0f0000 	cdpgt	0, 0, cr0, cr15, cr0, {0}
     4fc:	02000002 	andeq	r0, r0, #2
     500:	00009e5b 	andeq	r9, r0, fp, asr lr
     504:	02610300 	rsbeq	r0, r1, #0, 6
     508:	68100000 	ldmdavs	r0, {}	; <UNPREDICTABLE>
     50c:	275b0200 	ldrbcs	r0, [fp, -r0, lsl #4]
     510:	00000002 	andeq	r0, r0, r2
     514:	0003340f 	andeq	r3, r3, pc, lsl #8
     518:	375d0200 	ldrbcc	r0, [sp, -r0, lsl #4]
     51c:	03000000 	movweq	r0, #0
     520:	0000027b 	andeq	r0, r0, fp, ror r2
     524:	02006810 	andeq	r6, r0, #16, 16	; 0x100000
     528:	0002275d 	andeq	r2, r2, sp, asr r7
     52c:	d30f0000 	movwle	r0, #61440	; 0xf000
     530:	02000001 	andeq	r0, r0, #1
     534:	0002275f 	andeq	r2, r2, pc, asr r7
     538:	02970300 	addseq	r0, r7, #0, 6
     53c:	51110000 	tstpl	r1, r0
     540:	0200000d 	andeq	r0, r0, #13
     544:	00009e5f 	andeq	r9, r0, pc, asr lr
     548:	e0120000 	ands	r0, r2, r0
     54c:	02000002 	andeq	r0, r0, #2
     550:	02b60383 	adcseq	r0, r6, #201326594	; 0xc000002
     554:	68100000 	ldmdavs	r0, {}	; <UNPREDICTABLE>
     558:	27830200 	strcs	r0, [r3, r0, lsl #4]
     55c:	13000002 	movwne	r0, #2
     560:	8502006c 	strhi	r0, [r2, #-108]	; 0x6c
     564:	000002b6 			; <UNDEFINED> instruction: 0x000002b6
     568:	0a040600 	beq	101d70 <__bss_end__+0xf73b8>
     56c:	14000001 	strne	r0, [r0], #-1
     570:	0000036e 	andeq	r0, r0, lr, ror #6
     574:	00253601 	eoreq	r3, r5, r1, lsl #12
     578:	80c40000 	sbchi	r0, r4, r0
     57c:	00f80000 	rscseq	r0, r8, r0
     580:	9c010000 	stcls	0, cr0, [r1], {-0}
     584:	00000416 	andeq	r0, r0, r6, lsl r4
     588:	01007015 	tsteq	r0, r5, lsl r0
     58c:	0000a036 	andeq	sl, r0, r6, lsr r0
     590:	00007200 	andeq	r7, r0, r0, lsl #4
     594:	033a1600 	teqeq	sl, #0, 12
     598:	36010000 	strcc	r0, [r1], -r0
     59c:	00000037 	andeq	r0, r0, r7, lsr r0
     5a0:	000000ac 	andeq	r0, r0, ip, lsr #1
     5a4:	00095116 	andeq	r5, r9, r6, lsl r1
     5a8:	25360100 	ldrcs	r0, [r6, #-256]!	; 0x100
     5ac:	e6000000 	str	r0, [r0], -r0
     5b0:	15000000 	strne	r0, [r0, #-0]
     5b4:	36010068 	strcc	r0, [r1], -r8, rrx
     5b8:	00000227 	andeq	r0, r0, r7, lsr #4
     5bc:	0000011a 	andeq	r0, r0, sl, lsl r1
     5c0:	01006917 	tsteq	r0, r7, lsl r9
     5c4:	00002537 	andeq	r2, r0, r7, lsr r5
     5c8:	00014e00 	andeq	r4, r1, r0, lsl #28
     5cc:	02971800 	addseq	r1, r7, #0, 16
     5d0:	81080000 	mrshi	r0, (UNDEF: 8)
     5d4:	00700000 	rsbseq	r0, r0, r0
     5d8:	3a010000 	bcc	405e0 <__bss_end__+0x35c28>
     5dc:	000003c7 	andeq	r0, r0, r7, asr #7
     5e0:	0002a319 	andeq	sl, r2, r9, lsl r3
     5e4:	00016d00 	andeq	r6, r1, r0, lsl #26
     5e8:	81081a00 	tsthi	r8, r0, lsl #20
     5ec:	00700000 	rsbseq	r0, r0, r0
     5f0:	ac1b0000 	ldcge	0, cr0, [fp], {-0}
     5f4:	8b000002 	blhi	604 <_start-0x79fc>
     5f8:	1c000001 	stcne	0, cr0, [r0], {1}
     5fc:	00008110 	andeq	r8, r0, r0, lsl r1
     600:	00000e26 	andeq	r0, r0, r6, lsr #28
     604:	0000035c 	andeq	r0, r0, ip, asr r3
     608:	0250011d 	subseq	r0, r0, #1073741831	; 0x40000007
     60c:	1c000077 	stcne	0, cr0, [r0], {119}	; 0x77
     610:	0000811c 	andeq	r8, r0, ip, lsl r1
     614:	00000e26 	andeq	r0, r0, r6, lsr #28
     618:	00000373 	andeq	r0, r0, r3, ror r3
     61c:	0550011d 	ldrbeq	r0, [r0, #-285]	; 0x11d
     620:	009c7c03 	addseq	r7, ip, r3, lsl #24
     624:	301c0000 	andscc	r0, ip, r0
     628:	26000081 	strcs	r0, [r0], -r1, lsl #1
     62c:	8700000e 	strhi	r0, [r0, -lr]
     630:	1d000003 	stcne	0, cr0, [r0, #-12]
     634:	77025001 	strvc	r5, [r2, -r1]
     638:	441c0000 	ldrmi	r0, [ip], #-0
     63c:	26000081 	strcs	r0, [r0], -r1, lsl #1
     640:	9e00000e 	cdpls	0, 0, cr0, cr0, cr14, {0}
     644:	1d000003 	stcne	0, cr0, [r0, #-12]
     648:	03055001 	movweq	r5, #20481	; 0x5001
     64c:	00009c88 	andeq	r9, r0, r8, lsl #25
     650:	81641c00 	cmnhi	r4, r0, lsl #24
     654:	0e260000 	cdpeq	0, 2, cr0, cr6, cr0, {0}
     658:	03b20000 			; <UNDEFINED> instruction: 0x03b20000
     65c:	011d0000 	tsteq	sp, r0
     660:	00770250 	rsbseq	r0, r7, r0, asr r2
     664:	81781e00 	cmnhi	r8, r0, lsl #28
     668:	0e260000 	cdpeq	0, 2, cr0, cr6, cr0, {0}
     66c:	011d0000 	tsteq	sp, r0
     670:	a8030550 	stmdage	r3, {r4, r6, r8, sl}
     674:	0000009c 	muleq	r0, ip, r0
     678:	f01c0000 			; <UNDEFINED> instruction: 0xf01c0000
     67c:	26000080 	strcs	r0, [r0], -r0, lsl #1
     680:	db00000e 	blle	6c0 <_start-0x7940>
     684:	1d000003 	stcne	0, cr0, [r0, #-12]
     688:	77025001 	strvc	r5, [r2, -r1]
     68c:	f81c0000 			; <UNDEFINED> instruction: 0xf81c0000
     690:	26000080 	strcs	r0, [r0], -r0, lsl #1
     694:	f200000e 	vhadd.s8	d0, d0, d14
     698:	1d000003 	stcne	0, cr0, [r0, #-12]
     69c:	03055001 	movweq	r5, #20481	; 0x5001
     6a0:	00009c50 	andeq	r9, r0, r0, asr ip
     6a4:	81081e00 	tsthi	r8, r0, lsl #28
     6a8:	0e260000 	cdpeq	0, 2, cr0, cr6, cr0, {0}
     6ac:	011d0000 	tsteq	sp, r0
     6b0:	00740552 	rsbseq	r0, r4, r2, asr r5
     6b4:	1d220076 	stcne	0, cr0, [r2, #-472]!	; 0xfffffe28
     6b8:	75035101 	strvc	r5, [r3, #-257]	; 0x101
     6bc:	011d01b8 			; <UNDEFINED> instruction: 0x011d01b8
     6c0:	58030550 	stmdapl	r3, {r4, r6, r8, sl}
     6c4:	0000009c 	muleq	r0, ip, r0
     6c8:	02f91f00 	rscseq	r1, r9, #0, 30
     6cc:	40010000 	andmi	r0, r1, r0
     6d0:	000081bc 			; <UNDEFINED> instruction: 0x000081bc
     6d4:	00000014 	andeq	r0, r0, r4, lsl r0
     6d8:	04669c01 	strbteq	r9, [r6], #-3073	; 0xc01
     6dc:	70150000 	andsvc	r0, r5, r0
     6e0:	9e400100 	dvflss	f0, f0, f0
     6e4:	ba000000 	blt	6ec <_start-0x7914>
     6e8:	16000001 	strne	r0, [r0], -r1
     6ec:	0000033a 	andeq	r0, r0, sl, lsr r3
     6f0:	00374001 	eorseq	r4, r7, r1
     6f4:	01db0000 	bicseq	r0, fp, r0
     6f8:	cc1e0000 	ldcgt	0, cr0, [lr], {-0}
     6fc:	3c000081 	stccc	0, cr0, [r0], {129}	; 0x81
     700:	1d00000e 	stcne	0, cr0, [r0, #-56]	; 0xffffffc8
     704:	f3035201 	vhsub.u8	d5, d3, d1
     708:	011d5101 	tsteq	sp, r1, lsl #2
     70c:	fe080251 	mcr2	2, 0, r0, cr8, cr1, {2}
     710:	0350011d 	cmpeq	r0, #1073741831	; 0x40000007
     714:	005001f3 	ldrsheq	r0, [r0], #-19	; 0xffffffed
     718:	026c1400 	rsbeq	r1, ip, #0, 8
     71c:	19010000 	stmdbne	r1, {}	; <UNPREDICTABLE>
     720:	0000007e 	andeq	r0, r0, lr, ror r0
     724:	000081d0 	ldrdeq	r8, [r0], -r0
     728:	00000048 	andeq	r0, r0, r8, asr #32
     72c:	04ea9c01 	strbteq	r9, [sl], #3073	; 0xc01
     730:	68150000 	ldmdavs	r5, {}	; <UNPREDICTABLE>
     734:	27190100 	ldrcs	r0, [r9, -r0, lsl #2]
     738:	07000002 	streq	r0, [r0, -r2]
     73c:	20000002 	andcs	r0, r0, r2
     740:	0000027e 	andeq	r0, r0, lr, ror r2
     744:	00371a01 	eorseq	r1, r7, r1, lsl #20
     748:	58010000 	stmdapl	r1, {}	; <UNPREDICTABLE>
     74c:	00034f20 	andeq	r4, r3, r0, lsr #30
     750:	371b0100 	ldrcc	r0, [fp, -r0, lsl #2]
     754:	01000000 	mrseq	r0, (UNDEF: 0)
     758:	03022057 	movweq	r2, #8279	; 0x2057
     75c:	1c010000 	stcne	0, cr0, [r1], {-0}
     760:	00000037 	andeq	r0, r0, r7, lsr r0
     764:	a8205601 	stmdage	r0!, {r0, r9, sl, ip, lr}
     768:	01000001 	tsteq	r0, r1
     76c:	0000371d 	andeq	r3, r0, sp, lsl r7
     770:	00750700 	rsbseq	r0, r5, r0, lsl #14
     774:	1affff0a 	bne	3a4 <_start-0x7c5c>
     778:	0282209f 	addeq	r2, r2, #159	; 0x9f
     77c:	22010000 	andcs	r0, r1, #0
     780:	0000007e 	andeq	r0, r0, lr, ror r0
     784:	041e5001 	ldreq	r5, [lr], #-1
     788:	5b000082 	blpl	998 <_start-0x7668>
     78c:	1d00000e 	stcne	0, cr0, [r0, #-56]	; 0xffffffc8
     790:	08025101 	stmdaeq	r2, {r0, r8, ip, lr}
     794:	50011d38 	andpl	r1, r1, r8, lsr sp
     798:	00007402 	andeq	r7, r0, r2, lsl #8
     79c:	02c41400 	sbceq	r1, r4, #0, 8
     7a0:	2b010000 	blcs	407a8 <__bss_end__+0x35df0>
     7a4:	00000025 	andeq	r0, r0, r5, lsr #32
     7a8:	00008218 	andeq	r8, r0, r8, lsl r2
     7ac:	00000040 	andeq	r0, r0, r0, asr #32
     7b0:	05219c01 	streq	r9, [r1, #-3073]!	; 0xc01
     7b4:	68150000 	ldmdavs	r5, {}	; <UNPREDICTABLE>
     7b8:	272b0100 	strcs	r0, [fp, -r0, lsl #2]!
     7bc:	25000002 	strcs	r0, [r0, #-2]
     7c0:	1e000002 	cdpne	0, 0, cr0, cr0, cr2, {0}
     7c4:	00008224 	andeq	r8, r0, r4, lsr #4
     7c8:	00000466 	andeq	r0, r0, r6, ror #8
     7cc:	0250011d 	subseq	r0, r0, #1073741831	; 0x40000007
     7d0:	00000074 	andeq	r0, r0, r4, ror r0
     7d4:	00032114 	andeq	r2, r3, r4, lsl r1
     7d8:	254a0100 	strbcs	r0, [sl, #-256]	; 0x100
     7dc:	58000000 	stmdapl	r0, {}	; <UNPREDICTABLE>
     7e0:	74000082 	strvc	r0, [r0], #-130	; 0x82
     7e4:	01000000 	mrseq	r0, (UNDEF: 0)
     7e8:	0005d99c 	muleq	r5, ip, r9
     7ec:	00681500 	rsbeq	r1, r8, r0, lsl #10
     7f0:	02274a01 	eoreq	r4, r7, #4096	; 0x1000
     7f4:	02430000 	subeq	r0, r3, #0
     7f8:	15200000 	strne	r0, [r0, #-0]!
     7fc:	01000009 	tsteq	r0, r9
     800:	0000374c 	andeq	r3, r0, ip, asr #14
     804:	18500100 	ldmdane	r0, {r8}^
     808:	00000247 	andeq	r0, r0, r7, asr #4
     80c:	00008288 	andeq	r8, r0, r8, lsl #5
     810:	00000008 	andeq	r0, r0, r8
     814:	05714e01 	ldrbeq	r4, [r1, #-3585]!	; 0xe01
     818:	57190000 	ldrpl	r0, [r9, -r0]
     81c:	61000002 	tstvs	r0, r2
     820:	00000002 	andeq	r0, r0, r2
     824:	00026118 	andeq	r6, r2, r8, lsl r1
     828:	00829000 	addeq	r9, r2, r0
     82c:	00000400 	andeq	r0, r0, r0, lsl #8
     830:	8e4e0100 	dvfhie	f0, f6, f0
     834:	19000005 	stmdbne	r0, {r0, r2}
     838:	00000271 	andeq	r0, r0, r1, ror r2
     83c:	0000027f 	andeq	r0, r0, pc, ror r2
     840:	82641c00 	rsbhi	r1, r4, #0, 24
     844:	04ea0000 	strbteq	r0, [sl], #0
     848:	05a20000 	streq	r0, [r2, #0]!
     84c:	011d0000 	tsteq	sp, r0
     850:	00740250 	rsbseq	r0, r4, r0, asr r2
     854:	82801c00 	addhi	r1, r0, #0, 24
     858:	02bc0000 	adcseq	r0, ip, #0
     85c:	05c80000 	strbeq	r0, [r8]
     860:	011d0000 	tsteq	sp, r0
     864:	00740253 	rsbseq	r0, r4, r3, asr r2
     868:	0252011d 	subseq	r0, r2, #1073741831	; 0x40000007
     86c:	011d8009 	tsteq	sp, r9
     870:	80080251 	andhi	r0, r8, r1, asr r2
     874:	0250011d 	subseq	r0, r0, #1073741831	; 0x40000007
     878:	1e003874 	mcrne	8, 0, r3, cr0, cr4, {3}
     87c:	000082a4 	andeq	r8, r0, r4, lsr #5
     880:	000002bc 			; <UNDEFINED> instruction: 0x000002bc
     884:	0253011d 	subseq	r0, r3, #1073741831	; 0x40000007
     888:	00000074 	andeq	r0, r0, r4, ror r0
     88c:	00012221 	andeq	r2, r1, r1, lsr #4
     890:	cc0c0100 	stfgts	f0, [ip], {-0}
     894:	80000082 	andhi	r0, r0, r2, lsl #1
     898:	01000000 	mrseq	r0, (UNDEF: 0)
     89c:	0006799c 	muleq	r6, ip, r9
     8a0:	0d4a1600 	stcleq	6, cr1, [sl, #-0]
     8a4:	0c010000 	stceq	0, cr0, [r1], {-0}
     8a8:	0000009e 	muleq	r0, lr, r0
     8ac:	0000029d 	muleq	r0, sp, r2
     8b0:	01006e15 	tsteq	r0, r5, lsl lr
     8b4:	0000370c 	andeq	r3, r0, ip, lsl #14
     8b8:	0002d100 	andeq	sp, r2, r0, lsl #2
     8bc:	01102200 	tsteq	r0, r0, lsl #4
     8c0:	06790000 	ldrbteq	r0, [r9], -r0
     8c4:	03050000 	movweq	r0, #20480	; 0x5000
     8c8:	00009c30 	andeq	r9, r0, r0, lsr ip
     8cc:	0082e423 	addeq	lr, r2, r3, lsr #8
     8d0:	000e7c00 	andeq	r7, lr, r0, lsl #24
     8d4:	82f81c00 	rscshi	r1, r8, #0, 24
     8d8:	0e260000 	cdpeq	0, 2, cr0, cr6, cr0, {0}
     8dc:	06500000 	ldrbeq	r0, [r0], -r0
     8e0:	011d0000 	tsteq	sp, r0
     8e4:	1d3d0153 	ldfnes	f0, [sp, #-332]!	; 0xfffffeb4
     8e8:	03055201 	movweq	r5, #20993	; 0x5201
     8ec:	00009c30 	andeq	r9, r0, r0, lsr ip
     8f0:	0551011d 	ldrbeq	r0, [r1, #-285]	; 0x11d
     8f4:	009ce803 	addseq	lr, ip, r3, lsl #16
     8f8:	50011d00 	andpl	r1, r1, r0, lsl #26
     8fc:	9cc40305 	stclls	3, cr0, [r4], {5}
     900:	23000000 	movwcs	r0, #0
     904:	000082fc 	strdeq	r8, [r0], -ip
     908:	00000e83 	andeq	r0, r0, r3, lsl #29
     90c:	00830c1e 	addeq	r0, r3, lr, lsl ip
     910:	000e2600 	andeq	r2, lr, r0, lsl #12
     914:	52011d00 	andpl	r1, r1, #0, 26
     918:	1d800802 	stcne	8, cr0, [r0, #8]
     91c:	08025101 	stmdaeq	r2, {r0, r8, ip, lr}
     920:	50011d38 	andpl	r1, r1, r8, lsr sp
     924:	9cf40305 	ldclls	3, cr0, [r4], #20
     928:	00000000 	andeq	r0, r0, r0
     92c:	0000b807 	andeq	fp, r0, r7, lsl #16
     930:	02372100 	eorseq	r2, r7, #0, 2
     934:	5c010000 	stcpl	0, cr0, [r1], {-0}
     938:	0000834c 	andeq	r8, r0, ip, asr #6
     93c:	000000f0 	strdeq	r0, [r0], -r0	; <UNPREDICTABLE>
     940:	07da9c01 	ldrbeq	r9, [sl, r1, lsl #24]
     944:	51160000 	tstpl	r6, r0
     948:	0100000d 	tsteq	r0, sp
     94c:	00009e5c 	andeq	r9, r0, ip, asr lr
     950:	00031300 	andeq	r1, r3, r0, lsl #6
     954:	08da1600 	ldmeq	sl, {r9, sl, ip}^
     958:	5c010000 	stcpl	0, cr0, [r1], {-0}
     95c:	000000ad 	andeq	r0, r0, sp, lsr #1
     960:	00000331 	andeq	r0, r0, r1, lsr r3
     964:	000ba416 	andeq	sl, fp, r6, lsl r4
     968:	ad5c0100 	ldfgee	f0, [ip, #-0]
     96c:	65000000 	strvs	r0, [r0, #-0]
     970:	16000003 	strne	r0, [r0], -r3
     974:	0000032d 	andeq	r0, r0, sp, lsr #6
     978:	00375c01 	eorseq	r5, r7, r1, lsl #24
     97c:	03990000 	orrseq	r0, r9, #0
     980:	68170000 	ldmdavs	r7, {}	; <UNPREDICTABLE>
     984:	275d0100 	ldrbcs	r0, [sp, -r0, lsl #2]
     988:	cd000002 	stcgt	0, cr0, [r0, #-8]
     98c:	22000003 	andcs	r0, r0, #3
     990:	00000110 	andeq	r0, r0, r0, lsl r1
     994:	000007ea 	andeq	r0, r0, sl, ror #15
     998:	9c380305 	ldcls	3, cr0, [r8], #-20	; 0xffffffec
     99c:	74230000 	strtvc	r0, [r3], #-0
     9a0:	7c000083 	stcvc	0, cr0, [r0], {131}	; 0x83
     9a4:	1c00000e 	stcne	0, cr0, [r0], {14}
     9a8:	00008388 	andeq	r8, r0, r8, lsl #7
     9ac:	00000e26 	andeq	r0, r0, r6, lsr #28
     9b0:	00000723 	andeq	r0, r0, r3, lsr #14
     9b4:	0253011d 	subseq	r0, r3, #1073741831	; 0x40000007
     9b8:	011d5f08 	tsteq	sp, r8, lsl #30
     9bc:	38030552 	stmdacc	r3, {r1, r4, r6, r8, sl}
     9c0:	1d00009c 	stcne	0, cr0, [r0, #-624]	; 0xfffffd90
     9c4:	03055101 	movweq	r5, #20737	; 0x5101
     9c8:	00009ce8 	andeq	r9, r0, r8, ror #25
     9cc:	0550011d 	ldrbeq	r0, [r0, #-285]	; 0x11d
     9d0:	009d1003 	addseq	r1, sp, r3
     9d4:	8c230000 	stchi	0, cr0, [r3], #-0
     9d8:	83000083 	movwhi	r0, #131	; 0x83
     9dc:	1c00000e 	stcne	0, cr0, [r0], {14}
     9e0:	00008394 	muleq	r0, r4, r3
     9e4:	00000e26 	andeq	r0, r0, r6, lsr #28
     9e8:	00000743 	andeq	r0, r0, r3, asr #14
     9ec:	0550011d 	ldrbeq	r0, [r0, #-285]	; 0x11d
     9f0:	009c4803 	addseq	r4, ip, r3, lsl #16
     9f4:	a01c0000 	andsge	r0, ip, r0
     9f8:	26000083 	strcs	r0, [r0], -r3, lsl #1
     9fc:	6000000e 	andvs	r0, r0, lr
     a00:	1d000007 	stcne	0, cr0, [r0, #-28]	; 0xffffffe4
     a04:	74025101 	strvc	r5, [r2], #-257	; 0x101
     a08:	50011d00 	andpl	r1, r1, r0, lsl #26
     a0c:	9d440305 	stclls	3, cr0, [r4, #-20]	; 0xffffffec
     a10:	1c000000 	stcne	0, cr0, [r0], {-0}
     a14:	000083ac 	andeq	r8, r0, ip, lsr #7
     a18:	00000521 	andeq	r0, r0, r1, lsr #10
     a1c:	00000774 	andeq	r0, r0, r4, ror r7
     a20:	0250011d 	subseq	r0, r0, #1073741831	; 0x40000007
     a24:	23000075 	movwcs	r0, #117	; 0x75
     a28:	000083bc 			; <UNDEFINED> instruction: 0x000083bc
     a2c:	00000e7c 	andeq	r0, r0, ip, ror lr
     a30:	0083d01c 	addeq	sp, r3, ip, lsl r0
     a34:	000e2600 	andeq	r2, lr, r0, lsl #12
     a38:	0007ac00 	andeq	sl, r7, r0, lsl #24
     a3c:	53011d00 	movwpl	r1, #7424	; 0x1d00
     a40:	1d670802 	stclne	8, cr0, [r7, #-8]!
     a44:	03055201 	movweq	r5, #20993	; 0x5201
     a48:	00009c38 	andeq	r9, r0, r8, lsr ip
     a4c:	0551011d 	ldrbeq	r0, [r1, #-285]	; 0x11d
     a50:	009ce803 	addseq	lr, ip, r3, lsl #16
     a54:	50011d00 	andpl	r1, r1, r0, lsl #26
     a58:	9d500305 	ldclls	3, cr0, [r0, #-20]	; 0xffffffec
     a5c:	23000000 	movwcs	r0, #0
     a60:	000083d4 	ldrdeq	r8, [r0], -r4
     a64:	00000e83 	andeq	r0, r0, r3, lsl #29
     a68:	0083fc1c 	addeq	pc, r3, ip, lsl ip	; <UNPREDICTABLE>
     a6c:	00041600 	andeq	r1, r4, r0, lsl #12
     a70:	0007c900 	andeq	ip, r7, r0, lsl #18
     a74:	50011d00 	andpl	r1, r1, r0, lsl #26
     a78:	00007402 	andeq	r7, r0, r2, lsl #8
     a7c:	0084181e 	addeq	r1, r4, lr, lsl r8
     a80:	00046600 	andeq	r6, r4, r0, lsl #12
     a84:	50011d00 	andpl	r1, r1, r0, lsl #26
     a88:	00007502 	andeq	r7, r0, r2, lsl #10
     a8c:	00a60800 	adceq	r0, r6, r0, lsl #16
     a90:	07ea0000 	strbeq	r0, [sl, r0]!
     a94:	97090000 	strls	r0, [r9, -r0]
     a98:	06000000 	streq	r0, [r0], -r0
     a9c:	07da0700 	ldrbeq	r0, [sl, r0, lsl #14]
     aa0:	07240000 	streq	r0, [r4, -r0]!
     aa4:	01000000 	mrseq	r0, (UNDEF: 0)
     aa8:	00009e7f 	andeq	r9, r0, pc, ror lr
     aac:	00843c00 	addeq	r3, r4, r0, lsl #24
     ab0:	00022c00 	andeq	r2, r2, r0, lsl #24
     ab4:	509c0100 	addspl	r0, ip, r0, lsl #2
     ab8:	1600000b 	strne	r0, [r0], -fp
     abc:	0000033a 	andeq	r0, r0, sl, lsr r3
     ac0:	007e7f01 	rsbseq	r7, lr, r1, lsl #30
     ac4:	03e10000 	mvneq	r0, #0
     ac8:	da160000 	ble	580ad0 <__bss_end__+0x576118>
     acc:	01000008 	tsteq	r0, r8
     ad0:	0000ad7f 	andeq	sl, r0, pc, ror sp
     ad4:	00042300 	andeq	r2, r4, r0, lsl #6
     ad8:	0ba41600 	bleq	fe9062e0 <__bss_end__+0xfe8fb928>
     adc:	7f010000 	svcvc	0x00010000
     ae0:	000000ad 	andeq	r0, r0, sp, lsr #1
     ae4:	00000465 	andeq	r0, r0, r5, ror #8
     ae8:	00032d16 	andeq	r2, r3, r6, lsl sp
     aec:	377f0100 	ldrbcc	r0, [pc, -r0, lsl #2]!
     af0:	a7000000 	strge	r0, [r0, -r0]
     af4:	17000004 	strne	r0, [r0, -r4]
     af8:	80010068 	andhi	r0, r1, r8, rrx
     afc:	00000227 	andeq	r0, r0, r7, lsr #4
     b00:	000004d3 	ldrdeq	r0, [r0], -r3
     b04:	72747017 	rsbsvc	r7, r4, #23
     b08:	9e810100 	rmflss	f0, f1, f0
     b0c:	00000000 	andeq	r0, r0, r0
     b10:	22000005 	andcs	r0, r0, #5
     b14:	00000110 	andeq	r0, r0, r0, lsl r1
     b18:	00000b50 	andeq	r0, r0, r0, asr fp
     b1c:	9c400305 	mcrrls	3, 0, r0, r0, cr5
     b20:	74170000 	ldrvc	r0, [r7], #-0
     b24:	0100746f 	tsteq	r0, pc, ror #8
     b28:	00003786 	andeq	r3, r0, r6, lsl #15
     b2c:	00051400 	andeq	r1, r5, r0, lsl #8
     b30:	006e1700 	rsbeq	r1, lr, r0, lsl #14
     b34:	00378701 	eorseq	r8, r7, r1, lsl #14
     b38:	057a0000 	ldrbeq	r0, [sl, #-0]!
     b3c:	47180000 	ldrmi	r0, [r8, -r0]
     b40:	9c000002 	stcls	0, cr0, [r0], {2}
     b44:	04000085 	streq	r0, [r0], #-133	; 0x85
     b48:	01000000 	mrseq	r0, (UNDEF: 0)
     b4c:	0008a8a3 	andeq	sl, r8, r3, lsr #17
     b50:	02571900 	subseq	r1, r7, #0, 18
     b54:	05a30000 	streq	r0, [r3, #0]!
     b58:	18000000 	stmdane	r0, {}	; <UNPREDICTABLE>
     b5c:	00000261 	andeq	r0, r0, r1, ror #4
     b60:	000085a0 	andeq	r8, r0, r0, lsr #11
     b64:	00000004 	andeq	r0, r0, r4
     b68:	08c5a301 	stmiaeq	r5, {r0, r8, r9, sp, pc}^
     b6c:	71190000 	tstvc	r9, r0
     b70:	c4000002 	strgt	r0, [r0], #-2
     b74:	00000005 	andeq	r0, r0, r5
     b78:	00846823 	addeq	r6, r4, r3, lsr #16
     b7c:	000e7c00 	andeq	r7, lr, r0, lsl #24
     b80:	847c1c00 	ldrbthi	r1, [ip], #-3072	; 0xc00
     b84:	0e260000 	cdpeq	0, 2, cr0, cr6, cr0, {0}
     b88:	08fd0000 	ldmeq	sp!, {}^	; <UNPREDICTABLE>
     b8c:	011d0000 	tsteq	sp, r0
     b90:	83080253 	movwhi	r0, #33363	; 0x8253
     b94:	0552011d 	ldrbeq	r0, [r2, #-285]	; 0x11d
     b98:	009c4003 	addseq	r4, ip, r3
     b9c:	51011d00 	tstpl	r1, r0, lsl #26
     ba0:	9ce80305 	stclls	3, cr0, [r8], #20
     ba4:	011d0000 	tsteq	sp, r0
     ba8:	10030550 	andne	r0, r3, r0, asr r5
     bac:	0000009d 	muleq	r0, sp, r0
     bb0:	00848023 	addeq	r8, r4, r3, lsr #32
     bb4:	000e8300 	andeq	r8, lr, r0, lsl #6
     bb8:	84881c00 	strhi	r1, [r8], #3072	; 0xc00
     bbc:	0e260000 	cdpeq	0, 2, cr0, cr6, cr0, {0}
     bc0:	091d0000 	ldmdbeq	sp, {}	; <UNPREDICTABLE>
     bc4:	011d0000 	tsteq	sp, r0
     bc8:	48030550 	stmdami	r3, {r4, r6, r8, sl}
     bcc:	0000009c 	muleq	r0, ip, r0
     bd0:	0084941c 	addeq	r9, r4, ip, lsl r4
     bd4:	000e2600 	andeq	r2, lr, r0, lsl #12
     bd8:	00093a00 	andeq	r3, r9, r0, lsl #20
     bdc:	51011d00 	tstpl	r1, r0, lsl #26
     be0:	1d007502 	cfstr32ne	mvfx7, [r0, #-8]
     be4:	03055001 	movweq	r5, #20481	; 0x5001
     be8:	00009d74 	andeq	r9, r0, r4, ror sp
     bec:	84b01c00 	ldrthi	r1, [r0], #3072	; 0xc00
     bf0:	0e260000 	cdpeq	0, 2, cr0, cr6, cr0, {0}
     bf4:	09510000 	ldmdbeq	r1, {}^	; <UNPREDICTABLE>
     bf8:	011d0000 	tsteq	sp, r0
     bfc:	8c030550 	cfstr32hi	mvfx0, [r3], {80}	; 0x50
     c00:	0000009d 	muleq	r0, sp, r0
     c04:	0084bc1c 	addeq	fp, r4, ip, lsl ip
     c08:	000e2600 	andeq	r2, lr, r0, lsl #12
     c0c:	00096e00 	andeq	r6, r9, r0, lsl #28
     c10:	51011d00 	tstpl	r1, r0, lsl #26
     c14:	1d007502 	cfstr32ne	mvfx7, [r0, #-8]
     c18:	03055001 	movweq	r5, #20481	; 0x5001
     c1c:	00009d98 	muleq	r0, r8, sp
     c20:	84c02300 	strbhi	r2, [r0], #768	; 0x300
     c24:	0e7c0000 	cdpeq	0, 7, cr0, cr12, cr0, {0}
     c28:	d81c0000 	ldmdale	ip, {}	; <UNPREDICTABLE>
     c2c:	26000084 	strcs	r0, [r0], -r4, lsl #1
     c30:	ad00000e 	stcge	0, cr0, [r0, #-56]	; 0xffffffc8
     c34:	1d000009 	stcne	0, cr0, [r0, #-36]	; 0xffffffdc
     c38:	08025301 	stmdaeq	r2, {r0, r8, r9, ip, lr}
     c3c:	52011d8b 	andpl	r1, r1, #8896	; 0x22c0
     c40:	9c400305 	mcrrls	3, 0, r0, r0, cr5
     c44:	011d0000 	tsteq	sp, r0
     c48:	e8030551 	stmda	r3, {r0, r4, r6, r8, sl}
     c4c:	1d00009c 	stcne	0, cr0, [r0, #-624]	; 0xfffffd90
     c50:	03055001 	movweq	r5, #20481	; 0x5001
     c54:	00009dc0 	andeq	r9, r0, r0, asr #27
     c58:	007d021d 	rsbseq	r0, sp, sp, lsl r2
     c5c:	00007502 	andeq	r7, r0, r2, lsl #10
     c60:	0084dc23 	addeq	sp, r4, r3, lsr #24
     c64:	000e8300 	andeq	r8, lr, r0, lsl #6
     c68:	84fc1c00 	ldrbthi	r1, [ip], #3072	; 0xc00
     c6c:	0e260000 	cdpeq	0, 2, cr0, cr6, cr0, {0}
     c70:	09cd0000 	stmibeq	sp, {}^	; <UNPREDICTABLE>
     c74:	011d0000 	tsteq	sp, r0
     c78:	8c030550 	cfstr32hi	mvfx0, [r3], {80}	; 0x50
     c7c:	0000009d 	muleq	r0, sp, r0
     c80:	0085181c 	addeq	r1, r5, ip, lsl r8
     c84:	000e2600 	andeq	r2, lr, r0, lsl #12
     c88:	0009ea00 	andeq	lr, r9, r0, lsl #20
     c8c:	52011d00 	andpl	r1, r1, #0, 26
     c90:	1d007602 	stcne	6, cr7, [r0, #-8]
     c94:	03055001 	movweq	r5, #20481	; 0x5001
     c98:	00009df8 	strdeq	r9, [r0], -r8
     c9c:	851c2300 	ldrhi	r2, [ip, #-768]	; 0x300
     ca0:	0e7c0000 	cdpeq	0, 7, cr0, cr12, cr0, {0}
     ca4:	441c0000 	ldrmi	r0, [ip], #-0
     ca8:	26000085 	strcs	r0, [r0], -r5, lsl #1
     cac:	2900000e 	stmdbcs	r0, {r1, r2, r3}
     cb0:	1d00000a 	stcne	0, cr0, [r0, #-40]	; 0xffffffd8
     cb4:	08025301 	stmdaeq	r2, {r0, r8, r9, ip, lr}
     cb8:	52011d8f 	andpl	r1, r1, #9152	; 0x23c0
     cbc:	9c400305 	mcrrls	3, 0, r0, r0, cr5
     cc0:	011d0000 	tsteq	sp, r0
     cc4:	e8030551 	stmda	r3, {r0, r4, r6, r8, sl}
     cc8:	1d00009c 	stcne	0, cr0, [r0, #-624]	; 0xfffffd90
     ccc:	03055001 	movweq	r5, #20481	; 0x5001
     cd0:	00009e24 	andeq	r9, r0, r4, lsr #28
     cd4:	047d021d 	ldrbteq	r0, [sp], #-541	; 0x21d
     cd8:	00007602 	andeq	r7, r0, r2, lsl #12
     cdc:	00854823 	addeq	r4, r5, r3, lsr #16
     ce0:	000e8300 	andeq	r8, lr, r0, lsl #6
     ce4:	85881c00 	strhi	r1, [r8, #3072]	; 0xc00
     ce8:	04660000 	strbteq	r0, [r6], #-0
     cec:	0a460000 	beq	1180cf4 <__bss_end__+0x117633c>
     cf0:	011d0000 	tsteq	sp, r0
     cf4:	00740250 	rsbseq	r0, r4, r0, asr r2
     cf8:	85981c00 	ldrhi	r1, [r8, #3072]	; 0xc00
     cfc:	04160000 	ldreq	r0, [r6], #-0
     d00:	0a600000 	beq	1800d08 <__bss_end__+0x17f6350>
     d04:	011d0000 	tsteq	sp, r0
     d08:	80080251 	andhi	r0, r8, r1, asr r2
     d0c:	0250011d 	subseq	r0, r0, #1073741831	; 0x40000007
     d10:	23003874 	movwcs	r3, #2164	; 0x874
     d14:	000085b0 			; <UNDEFINED> instruction: 0x000085b0
     d18:	00000416 	andeq	r0, r0, r6, lsl r4
     d1c:	0085b81c 	addeq	fp, r5, ip, lsl r8
     d20:	0004ea00 	andeq	lr, r4, r0, lsl #20
     d24:	000a7d00 	andeq	r7, sl, r0, lsl #26
     d28:	50011d00 	andpl	r1, r1, r0, lsl #26
     d2c:	00007402 	andeq	r7, r0, r2, lsl #8
     d30:	0085c423 	addeq	ip, r5, r3, lsr #8
     d34:	000e7c00 	andeq	r7, lr, r0, lsl #24
     d38:	85d81c00 	ldrbhi	r1, [r8, #3072]	; 0xc00
     d3c:	0e260000 	cdpeq	0, 2, cr0, cr6, cr0, {0}
     d40:	0ab50000 	beq	fed40d48 <__bss_end__+0xfed36390>
     d44:	011d0000 	tsteq	sp, r0
     d48:	a5080253 	strge	r0, [r8, #-595]	; 0x253
     d4c:	0552011d 	ldrbeq	r0, [r2, #-285]	; 0x11d
     d50:	009c4003 	addseq	r4, ip, r3
     d54:	51011d00 	tstpl	r1, r0, lsl #26
     d58:	9ce80305 	stclls	3, cr0, [r8], #20
     d5c:	011d0000 	tsteq	sp, r0
     d60:	60030550 	andvs	r0, r3, r0, asr r5
     d64:	0000009e 	muleq	r0, lr, r0
     d68:	0085dc23 	addeq	sp, r5, r3, lsr #24
     d6c:	000e8300 	andeq	r8, lr, r0, lsl #6
     d70:	85e41c00 	strbhi	r1, [r4, #3072]!	; 0xc00
     d74:	05210000 	streq	r0, [r1, #-0]!
     d78:	0ad20000 	beq	ff480d80 <__bss_end__+0xff4763c8>
     d7c:	011d0000 	tsteq	sp, r0
     d80:	00740250 	rsbseq	r0, r4, r0, asr r2
     d84:	85f02300 	ldrbhi	r2, [r0, #768]!	; 0x300
     d88:	0e7c0000 	cdpeq	0, 7, cr0, cr12, cr0, {0}
     d8c:	041c0000 	ldreq	r0, [ip], #-0
     d90:	26000086 	strcs	r0, [r0], -r6, lsl #1
     d94:	0a00000e 	beq	dd4 <_start-0x722c>
     d98:	1d00000b 	stcne	0, cr0, [r0, #-44]	; 0xffffffd4
     d9c:	08025301 	stmdaeq	r2, {r0, r8, r9, ip, lr}
     da0:	52011da6 	andpl	r1, r1, #10624	; 0x2980
     da4:	9c400305 	mcrrls	3, 0, r0, r0, cr5
     da8:	011d0000 	tsteq	sp, r0
     dac:	e8030551 	stmda	r3, {r0, r4, r6, r8, sl}
     db0:	1d00009c 	stcne	0, cr0, [r0, #-624]	; 0xfffffd90
     db4:	03055001 	movweq	r5, #20481	; 0x5001
     db8:	00009e80 	andeq	r9, r0, r0, lsl #29
     dbc:	86082300 	strhi	r2, [r8], -r0, lsl #6
     dc0:	0e830000 	cdpeq	0, 8, cr0, cr3, cr0, {0}
     dc4:	101c0000 	andsne	r0, ip, r0
     dc8:	26000086 	strcs	r0, [r0], -r6, lsl #1
     dcc:	2a00000e 	bcs	e0c <_start-0x71f4>
     dd0:	1d00000b 	stcne	0, cr0, [r0, #-44]	; 0xffffffd4
     dd4:	03055001 	movweq	r5, #20481	; 0x5001
     dd8:	00009c48 	andeq	r9, r0, r8, asr #24
     ddc:	86241e00 	strthi	r1, [r4], -r0, lsl #28
     de0:	0e260000 	cdpeq	0, 2, cr0, cr6, cr0, {0}
     de4:	011d0000 	tsteq	sp, r0
     de8:	00770253 	rsbseq	r0, r7, r3, asr r2
     dec:	0252011d 	subseq	r0, r2, #1073741831	; 0x40000007
     df0:	011d0076 	tsteq	sp, r6, ror r0
     df4:	00750251 	rsbseq	r0, r5, r1, asr r2
     df8:	0550011d 	ldrbeq	r0, [r0, #-285]	; 0x11d
     dfc:	009ea003 	addseq	sl, lr, r3
     e00:	07000000 	streq	r0, [r0, -r0]
     e04:	000000b8 	strheq	r0, [r0], -r8
     e08:	00023e24 	andeq	r3, r2, r4, lsr #28
     e0c:	25ad0100 	strcs	r0, [sp, #256]!	; 0x100
     e10:	68000000 	stmdavs	r0, {}	; <UNPREDICTABLE>
     e14:	30000086 	andcc	r0, r0, r6, lsl #1
     e18:	01000000 	mrseq	r0, (UNDEF: 0)
     e1c:	000b9c9c 	muleq	fp, ip, ip
     e20:	00681500 	rsbeq	r1, r8, r0, lsl #10
     e24:	0227ad01 	eoreq	sl, r7, #1, 26	; 0x40
     e28:	05e50000 	strbeq	r0, [r5, #0]!
     e2c:	8c1e0000 	ldchi	0, cr0, [lr], {-0}
     e30:	bc000086 	stclt	0, cr0, [r0], {134}	; 0x86
     e34:	1d000002 	stcne	0, cr0, [r0, #-8]
     e38:	f3035301 	vcgt.u8	d5, d3, d1
     e3c:	011d5001 	tsteq	sp, r1
     e40:	1d300152 	ldfnes	f0, [r0, #-328]!	; 0xfffffeb8
     e44:	f3065001 	vhadd.u8	d5, d6, d1
     e48:	b8235001 	stmdalt	r3!, {r0, ip, lr}
     e4c:	24000001 	strcs	r0, [r0], #-1
     e50:	00000202 	andeq	r0, r0, r2, lsl #4
     e54:	0025b701 	eoreq	fp, r5, r1, lsl #14
     e58:	86980000 	ldrhi	r0, [r8], r0
     e5c:	01380000 	teqeq	r8, r0
     e60:	9c010000 	stcls	0, cr0, [r1], {-0}
     e64:	00000d3f 	andeq	r0, r0, pc, lsr sp
     e68:	00031925 	andeq	r1, r3, r5, lsr #18
     e6c:	37b80100 	ldrcc	r0, [r8, r0, lsl #2]!
     e70:	27000000 	strcs	r0, [r0, -r0]
     e74:	25000006 	strcs	r0, [r0, #-6]
     e78:	00000369 	andeq	r0, r0, r9, ror #6
     e7c:	0037b901 	eorseq	fp, r7, r1, lsl #18
     e80:	063a0000 	ldrteq	r0, [sl], -r0
     e84:	d8250000 	stmdale	r5!, {}	; <UNPREDICTABLE>
     e88:	01000002 	tsteq	r0, r2
     e8c:	000037bd 			; <UNDEFINED> instruction: 0x000037bd
     e90:	00064d00 	andeq	r4, r6, r0, lsl #26
     e94:	02ea2500 	rsceq	r2, sl, #0, 10
     e98:	be010000 	cdplt	0, 0, cr0, cr1, cr0, {0}
     e9c:	00000037 	andeq	r0, r0, r7, lsr r0
     ea0:	0000066c 	andeq	r0, r0, ip, ror #12
     ea4:	00018220 	andeq	r8, r1, r0, lsr #4
     ea8:	3fc10100 	svccc	0x00c10100
     eac:	0100000d 	tsteq	r0, sp
     eb0:	00382654 	eorseq	r2, r8, r4, asr r6
     eb4:	0ca00000 	stceq	0, cr0, [r0]
     eb8:	68170000 	ldmdavs	r7, {}	; <UNPREDICTABLE>
     ebc:	27c30100 	strbcs	r0, [r3, r0, lsl #2]
     ec0:	8b000002 	blhi	ed0 <_start-0x7130>
     ec4:	1c000006 	stcne	0, cr0, [r0], {6}
     ec8:	000086f8 	strdeq	r8, [r0], -r8	; <UNPREDICTABLE>
     ecc:	000004ea 	andeq	r0, r0, sl, ror #9
     ed0:	00000c28 	andeq	r0, r0, r8, lsr #24
     ed4:	0250011d 	subseq	r0, r0, #1073741831	; 0x40000007
     ed8:	1c000074 	stcne	0, cr0, [r0], {116}	; 0x74
     edc:	00008708 	andeq	r8, r0, r8, lsl #14
     ee0:	00000e26 	andeq	r0, r0, r6, lsr #28
     ee4:	00000c3f 	andeq	r0, r0, pc, lsr ip
     ee8:	0550011d 	ldrbeq	r0, [r0, #-285]	; 0x11d
     eec:	009f0803 	addseq	r0, pc, r3, lsl #16
     ef0:	181c0000 	ldmdane	ip, {}	; <UNPREDICTABLE>
     ef4:	21000087 	smlabbcs	r0, r7, r0, r0
     ef8:	53000005 	movwpl	r0, #5
     efc:	1d00000c 	stcne	0, cr0, [r0, #-48]	; 0xffffffd0
     f00:	74025001 	strvc	r5, [r2], #-1
     f04:	281c0000 	ldmdacs	ip, {}	; <UNPREDICTABLE>
     f08:	26000087 	strcs	r0, [r0], -r7, lsl #1
     f0c:	6700000e 	strvs	r0, [r0, -lr]
     f10:	1d00000c 	stcne	0, cr0, [r0, #-48]	; 0xffffffd0
     f14:	7a025001 	bvc	94f20 <__bss_end__+0x8a568>
     f18:	341c0000 	ldrcc	r0, [ip], #-0
     f1c:	55000087 	strpl	r0, [r0, #-135]	; 0x87
     f20:	7b00000b 	blvc	f54 <_start-0x70ac>
     f24:	1d00000c 	stcne	0, cr0, [r0, #-48]	; 0xffffffd0
     f28:	74025001 	strvc	r5, [r2], #-1
     f2c:	441c0000 	ldrmi	r0, [ip], #-0
     f30:	26000087 	strcs	r0, [r0], -r7, lsl #1
     f34:	8f00000e 	svchi	0x0000000e
     f38:	1d00000c 	stcne	0, cr0, [r0, #-48]	; 0xffffffd0
     f3c:	79025001 	stmdbvc	r2, {r0, ip, lr}
     f40:	4c1e0000 	ldcmi	0, cr0, [lr], {-0}
     f44:	26000087 	strcs	r0, [r0], -r7, lsl #1
     f48:	1d00000e 	stcne	0, cr0, [r0, #-56]	; 0xffffffc8
     f4c:	78025001 	stmdavc	r2, {r0, ip, lr}
     f50:	1c000000 	stcne	0, cr0, [r0], {-0}
     f54:	000086bc 			; <UNDEFINED> instruction: 0x000086bc
     f58:	00000e26 	andeq	r0, r0, r6, lsr #28
     f5c:	00000cb7 			; <UNDEFINED> instruction: 0x00000cb7
     f60:	0550011d 	ldrbeq	r0, [r0, #-285]	; 0x11d
     f64:	009c4803 	addseq	r4, ip, r3, lsl #16
     f68:	cc1c0000 	ldcgt	0, cr0, [ip], {-0}
     f6c:	26000086 	strcs	r0, [r0], -r6, lsl #1
     f70:	da00000e 	ble	fb0 <_start-0x7050>
     f74:	1d00000c 	stcne	0, cr0, [r0, #-48]	; 0xffffffd0
     f78:	75025201 	strvc	r5, [r2, #-513]	; 0x201
     f7c:	51011d00 	tstpl	r1, r0, lsl #26
     f80:	1d007602 	stcne	6, cr7, [r0, #-8]
     f84:	03055001 	movweq	r5, #20481	; 0x5001
     f88:	00009ed0 	ldrdeq	r9, [r0], -r0
     f8c:	87801c00 	strhi	r1, [r0, r0, lsl #24]
     f90:	0e260000 	cdpeq	0, 2, cr0, cr6, cr0, {0}
     f94:	0cee0000 	stcleq	0, cr0, [lr]
     f98:	011d0000 	tsteq	sp, r0
     f9c:	00790250 	rsbseq	r0, r9, r0, asr r2
     fa0:	87901c00 	ldrhi	r1, [r0, r0, lsl #24]
     fa4:	0e260000 	cdpeq	0, 2, cr0, cr6, cr0, {0}
     fa8:	0d110000 	ldceq	0, cr0, [r1, #-0]
     fac:	011d0000 	tsteq	sp, r0
     fb0:	00760252 	rsbseq	r0, r6, r2, asr r2
     fb4:	0251011d 	subseq	r0, r1, #1073741831	; 0x40000007
     fb8:	011d0075 	tsteq	sp, r5, ror r0
     fbc:	4c030550 	cfstr32mi	mvfx0, [r3], {80}	; 0x50
     fc0:	0000009f 	muleq	r0, pc, r0	; <UNPREDICTABLE>
     fc4:	00879c1c 	addeq	r9, r7, ip, lsl ip
     fc8:	000e2600 	andeq	r2, lr, r0, lsl #12
     fcc:	000d2500 	andeq	r2, sp, r0, lsl #10
     fd0:	50011d00 	andpl	r1, r1, r0, lsl #26
     fd4:	00007902 	andeq	r7, r0, r2, lsl #18
     fd8:	0087a81e 	addeq	sl, r7, lr, lsl r8
     fdc:	000e2600 	andeq	r2, lr, r0, lsl #12
     fe0:	51011d00 	tstpl	r1, r0, lsl #26
     fe4:	1d007502 	cfstr32ne	mvfx7, [r0, #-8]
     fe8:	03055001 	movweq	r5, #20481	; 0x5001
     fec:	00009f74 	andeq	r9, r0, r4, ror pc
     ff0:	04060000 	streq	r0, [r6], #-0
     ff4:	0000005a 	andeq	r0, r0, sl, asr r0
     ff8:	00019624 	andeq	r9, r1, r4, lsr #12
     ffc:	27e10100 	strbcs	r0, [r1, r0, lsl #2]!
    1000:	d0000002 	andle	r0, r0, r2
    1004:	20000087 	andcs	r0, r0, r7, lsl #1
    1008:	01000000 	mrseq	r0, (UNDEF: 0)
    100c:	000d7c9c 	muleq	sp, ip, ip
    1010:	02be2000 	adcseq	r2, lr, #0
    1014:	e2010000 	and	r0, r1, #0
    1018:	00000227 	andeq	r0, r0, r7, lsr #4
    101c:	e41e5401 	ldr	r5, [lr], #-1025	; 0x401
    1020:	ea000087 	b	1244 <_start-0x6dbc>
    1024:	1d000004 	stcne	0, cr0, [r0, #-16]
    1028:	74025001 	strvc	r5, [r2], #-1
    102c:	24000000 	strcs	r0, [r0], #-0
    1030:	00000249 	andeq	r0, r0, r9, asr #4
    1034:	0227e801 	eoreq	lr, r7, #65536	; 0x10000
    1038:	87f00000 	ldrbhi	r0, [r0, r0]!
    103c:	00440000 	subeq	r0, r4, r0
    1040:	9c010000 	stcls	0, cr0, [r1], {-0}
    1044:	00000dcd 	andeq	r0, r0, sp, asr #27
    1048:	01007015 	tsteq	r0, r5, lsl r0
    104c:	000227e8 	andeq	r2, r2, r8, ror #15
    1050:	00069e00 	andeq	r9, r6, r0, lsl #28
    1054:	006e1700 	rsbeq	r1, lr, r0, lsl #14
    1058:	0037e901 	eorseq	lr, r7, r1, lsl #18
    105c:	06d80000 	ldrbeq	r0, [r8], r0
    1060:	03200000 	teqeq	r0, #0
    1064:	0100000a 	tsteq	r0, sl
    1068:	000227ec 	andeq	r2, r2, ip, ror #15
    106c:	1e540100 	rdfnes	f0, f4, f0
    1070:	00008820 	andeq	r8, r0, r0, lsr #16
    1074:	000004ea 	andeq	r0, r0, sl, ror #9
    1078:	0250011d 	subseq	r0, r0, #1073741831	; 0x40000007
    107c:	00000074 	andeq	r0, r0, r4, ror r0
    1080:	0002aa27 	andeq	sl, r2, r7, lsr #20
    1084:	d0f60100 	rscsle	r0, r6, r0, lsl #2
    1088:	34000001 	strcc	r0, [r0], #-1
    108c:	1c000088 	stcne	0, cr0, [r0], {136}	; 0x88
    1090:	01000000 	mrseq	r0, (UNDEF: 0)
    1094:	0410209c 	ldreq	r2, [r0], #-156	; 0x9c
    1098:	08010000 	stmdaeq	r1, {}	; <UNPREDICTABLE>
    109c:	00000d3f 	andeq	r0, r0, pc, lsr sp
    10a0:	a58c0305 	strge	r0, [ip, #773]	; 0x305
    10a4:	5e200000 	cdppl	0, 2, cr0, cr0, cr0, {0}
    10a8:	0100000d 	tsteq	r0, sp
    10ac:	000d3f08 	andeq	r3, sp, r8, lsl #30
    10b0:	90030500 	andls	r0, r3, r0, lsl #10
    10b4:	200000a5 	andcs	r0, r0, r5, lsr #1
    10b8:	00000d45 	andeq	r0, r0, r5, asr #26
    10bc:	0d3f0801 	ldceq	8, cr0, [pc, #-4]!	; 10c0 <_start-0x6f40>
    10c0:	03050000 	movweq	r0, #20480	; 0x5000
    10c4:	0000a588 	andeq	sl, r0, r8, lsl #11
    10c8:	0001e120 	andeq	lr, r1, r0, lsr #2
    10cc:	d00a0100 	andle	r0, sl, r0, lsl #2
    10d0:	05000001 	streq	r0, [r0, #-1]
    10d4:	00a59403 	adceq	r9, r5, r3, lsl #8
    10d8:	04f92800 	ldrbteq	r2, [r9], #2048	; 0x800
    10dc:	29050000 	stmdbcs	r5, {}	; <UNPREDICTABLE>
    10e0:	00000025 	andeq	r0, r0, r5, lsr #32
    10e4:	00000e3c 	andeq	r0, r0, ip, lsr lr
    10e8:	0000ad29 	andeq	sl, r0, r9, lsr #26
    10ec:	28002a00 	stmdacs	r0, {r9, fp, sp}
    10f0:	00000109 	andeq	r0, r0, r9, lsl #2
    10f4:	009e1b06 	addseq	r1, lr, r6, lsl #22
    10f8:	0e5b0000 	cdpeq	0, 5, cr0, cr11, cr0, {0}
    10fc:	9e290000 	cdpls	0, 2, cr0, cr9, cr0, {0}
    1100:	29000000 	stmdbcs	r0, {}	; <UNPREDICTABLE>
    1104:	00000025 	andeq	r0, r0, r5, lsr #32
    1108:	00002c29 	andeq	r2, r0, r9, lsr #24
    110c:	b1280000 	teqlt	r8, r0
    1110:	07000001 	streq	r0, [r0, -r1]
    1114:	00007e05 	andeq	r7, r0, r5, lsl #28
    1118:	000e7500 	andeq	r7, lr, r0, lsl #10
    111c:	0e752900 	cdpeq	9, 7, cr2, cr5, cr0, {0}
    1120:	25290000 	strcs	r0, [r9, #-0]!
    1124:	00000000 	andeq	r0, r0, r0
    1128:	0e7b0406 	cdpeq	4, 7, cr0, cr11, cr6, {0}
    112c:	2c2b0000 	stccs	0, cr0, [fp], #-0
    1130:	0000021e 	andeq	r0, r0, lr, lsl r2
    1134:	552c1e05 	strpl	r1, [ip, #-3589]!	; 0xe05
    1138:	05000002 	streq	r0, [r0, #-2]
    113c:	0d6d0065 	stcleq	0, cr0, [sp, #-404]!	; 0xfffffe6c
    1140:	00040000 	andeq	r0, r4, r0
    1144:	000003e4 	andeq	r0, r0, r4, ror #7
    1148:	005f0104 	subseq	r0, pc, r4, lsl #2
    114c:	4c010000 	stcmi	0, cr0, [r1], {-0}
    1150:	0f000004 	svceq	0x00000004
    1154:	50000000 	andpl	r0, r0, r0
    1158:	8c000088 	stchi	0, cr0, [r0], {136}	; 0x88
    115c:	4b000006 	blmi	117c <_start-0x6e84>
    1160:	02000004 	andeq	r0, r0, #4
    1164:	6e690504 	cdpvs	5, 6, cr0, cr9, cr4, {0}
    1168:	04030074 	streq	r0, [r3], #-116	; 0x74
    116c:	00013407 	andeq	r3, r1, r7, lsl #8
    1170:	06010300 	streq	r0, [r1], -r0, lsl #6
    1174:	000000e2 	andeq	r0, r0, r2, ror #1
    1178:	58050203 	stmdapl	r5, {r0, r1, r9}
    117c:	03000001 	movweq	r0, #1
    1180:	014f0504 	cmpeq	pc, r4, lsl #10
    1184:	08030000 	stmdaeq	r3, {}	; <UNPREDICTABLE>
    1188:	00014a05 	andeq	r4, r1, r5, lsl #20
    118c:	08010300 	stmdaeq	r1, {r8, r9}
    1190:	000000e0 	andeq	r0, r0, r0, ror #1
    1194:	0001e904 	andeq	lr, r1, r4, lsl #18
    1198:	61310200 	teqvs	r1, r0, lsl #4
    119c:	03000000 	movweq	r0, #0
    11a0:	00ee0702 	rsceq	r0, lr, r2, lsl #14
    11a4:	62040000 	andvs	r0, r4, #0
    11a8:	02000001 	andeq	r0, r0, #1
    11ac:	00007334 	andeq	r7, r0, r4, lsr r3
    11b0:	07040300 	streq	r0, [r4, -r0, lsl #6]
    11b4:	0000012f 	andeq	r0, r0, pc, lsr #2
    11b8:	2a070803 	bcs	1c31cc <__bss_end__+0x1b8814>
    11bc:	03000001 	movweq	r0, #1
    11c0:	01410704 	cmpeq	r1, r4, lsl #14
    11c4:	04050000 	streq	r0, [r5], #-0
    11c8:	e9080103 	stmdb	r8, {r0, r1, r8}
    11cc:	06000000 	streq	r0, [r0], -r0
    11d0:	00009704 	andeq	r9, r0, r4, lsl #14
    11d4:	008a0700 	addeq	r0, sl, r0, lsl #14
    11d8:	01080000 	mrseq	r0, (UNDEF: 8)
    11dc:	00b12703 	adcseq	r2, r1, r3, lsl #14
    11e0:	cb090000 	blgt	2411e8 <__bss_end__+0x236830>
    11e4:	0b000001 	bleq	11f0 <_start-0x6e10>
    11e8:	0001c509 	andeq	ip, r1, r9, lsl #10
    11ec:	0a000c00 	beq	41f4 <_start-0x3e0c>
    11f0:	de29030c 	cdple	3, 2, cr0, cr9, cr12, {0}
    11f4:	0b000000 	bleq	11fc <_start-0x6e04>
    11f8:	000008da 	ldrdeq	r0, [r0], -sl
    11fc:	00912a03 	addseq	r2, r1, r3, lsl #20
    1200:	0b000000 	bleq	1208 <_start-0x6df8>
    1204:	00000ba4 	andeq	r0, r0, r4, lsr #23
    1208:	00912b03 	addseq	r2, r1, r3, lsl #22
    120c:	0b040000 	bleq	101214 <__bss_end__+0xf685c>
    1210:	0000032d 	andeq	r0, r0, sp, lsr #6
    1214:	002c2c03 	eoreq	r2, ip, r3, lsl #24
    1218:	00080000 	andeq	r0, r8, r0
    121c:	0002b404 	andeq	fp, r2, r4, lsl #8
    1220:	b12d0300 	teqlt	sp, r0, lsl #6
    1224:	0c000000 	stceq	0, cr0, [r0], {-0}
    1228:	00000378 	andeq	r0, r0, r8, ror r3
    122c:	6e300338 	mrcvs	3, 1, r0, cr0, cr8, {1}
    1230:	0b000001 	bleq	123c <_start-0x6dc4>
    1234:	00000288 	andeq	r0, r0, r8, lsl #5
    1238:	00683103 	rsbeq	r3, r8, r3, lsl #2
    123c:	0b000000 	bleq	1244 <_start-0x6dbc>
    1240:	0000035e 	andeq	r0, r0, lr, asr r3
    1244:	00683203 	rsbeq	r3, r8, r3, lsl #4
    1248:	0b040000 	bleq	101250 <__bss_end__+0xf6898>
    124c:	00000765 	andeq	r0, r0, r5, ror #14
    1250:	00683303 	rsbeq	r3, r8, r3, lsl #6
    1254:	0b080000 	bleq	20125c <__bss_end__+0x1f68a4>
    1258:	00000282 	andeq	r0, r0, r2, lsl #5
    125c:	00683703 	rsbeq	r3, r8, r3, lsl #14
    1260:	0b0c0000 	bleq	301268 <__bss_end__+0x2f68b0>
    1264:	00000262 	andeq	r0, r0, r2, ror #4
    1268:	00de3903 	sbcseq	r3, lr, r3, lsl #18
    126c:	0b100000 	bleq	401274 <__bss_end__+0x3f68bc>
    1270:	00000295 	muleq	r0, r5, r2
    1274:	00de3a03 	sbcseq	r3, lr, r3, lsl #20
    1278:	0b1c0000 	bleq	701280 <__bss_end__+0x6f68c8>
    127c:	00000353 	andeq	r0, r0, r3, asr r3
    1280:	00683e03 	rsbeq	r3, r8, r3, lsl #28
    1284:	0b280000 	bleq	a0128c <__bss_end__+0x9f68d4>
    1288:	00000306 	andeq	r0, r0, r6, lsl #6
    128c:	00683f03 	rsbeq	r3, r8, r3, lsl #30
    1290:	0b2c0000 	bleq	b01298 <__bss_end__+0xaf68e0>
    1294:	000001a3 	andeq	r0, r0, r3, lsr #3
    1298:	016e4203 	cmneq	lr, r3, lsl #4
    129c:	0b300000 	bleq	c012a4 <__bss_end__+0xbf68ec>
    12a0:	000001ac 	andeq	r0, r0, ip, lsr #3
    12a4:	00564503 	subseq	r4, r6, r3, lsl #10
    12a8:	00340000 	eorseq	r0, r4, r0
    12ac:	00e90406 	rsceq	r0, r9, r6, lsl #8
    12b0:	49040000 	stmdbmi	r4, {}	; <UNPREDICTABLE>
    12b4:	03000003 	movweq	r0, #3
    12b8:	0000e946 	andeq	lr, r0, r6, asr #18
    12bc:	03020800 	movweq	r0, #10240	; 0x2800
    12c0:	0001a449 	andeq	sl, r1, r9, asr #8
    12c4:	02f00900 	rscseq	r0, r0, #0, 18
    12c8:	01fe0000 	mvnseq	r0, r0
    12cc:	00027609 	andeq	r7, r2, r9, lsl #12
    12d0:	09018000 	stmdbeq	r1, {pc}
    12d4:	00000211 	andeq	r0, r0, r1, lsl r2
    12d8:	f20901b8 	vand	d0, d25, d24
    12dc:	b8000001 	stmdalt	r0, {r0}
    12e0:	aa0c0002 	bge	3012f0 <__bss_end__+0x2f6938>
    12e4:	10000002 	andne	r0, r0, r2
    12e8:	01e19b03 	mvneq	r9, r3, lsl #22
    12ec:	450b0000 	strmi	r0, [fp, #-0]
    12f0:	0300000d 	movweq	r0, #13
    12f4:	0000889d 	muleq	r0, sp, r8
    12f8:	5e0b0000 	cdppl	0, 0, cr0, cr11, cr0, {0}
    12fc:	0300000d 	movweq	r0, #13
    1300:	0000889f 	muleq	r0, pc, r8	; <UNPREDICTABLE>
    1304:	890b0400 	stmdbhi	fp, {sl}
    1308:	03000001 	movweq	r0, #1
    130c:	00002ca2 	andeq	r2, r0, r2, lsr #25
    1310:	120b0800 	andne	r0, fp, #0, 16
    1314:	03000003 	movweq	r0, #3
    1318:	00002ca4 	andeq	r2, r0, r4, lsr #25
    131c:	0d000c00 	stceq	12, cr0, [r0, #-0]
    1320:	000001bb 			; <UNDEFINED> instruction: 0x000001bb
    1324:	00885703 	addeq	r5, r8, r3, lsl #14
    1328:	fb030000 	blx	c1332 <__bss_end__+0xb697a>
    132c:	0e000001 	cdpeq	0, 0, cr0, cr0, cr1, {0}
    1330:	57030068 	strpl	r0, [r3, -r8, rrx]
    1334:	000001fb 	strdeq	r0, [r0], -fp
    1338:	74040600 	strvc	r0, [r4], #-1536	; 0x600
    133c:	0d000001 	stceq	0, cr0, [r0, #-4]
    1340:	0000029e 	muleq	r0, lr, r2
    1344:	00885903 	addeq	r5, r8, r3, lsl #18
    1348:	1b030000 	blne	c1350 <__bss_end__+0xb6998>
    134c:	0e000002 	cdpeq	0, 0, cr0, cr0, cr2, {0}
    1350:	59030068 	stmdbpl	r3, {r3, r5, r6}
    1354:	000001fb 	strdeq	r0, [r0], -fp
    1358:	040d0f00 	streq	r0, [sp], #-3840	; 0xf00
    135c:	1c010000 	stcne	0, cr0, [r1], {-0}
    1360:	00000025 	andeq	r0, r0, r5, lsr #32
    1364:	00008850 	andeq	r8, r0, r0, asr r8
    1368:	0000003c 	andeq	r0, r0, ip, lsr r0
    136c:	02429c01 	subeq	r9, r2, #256	; 0x100
    1370:	70100000 	andsvc	r0, r0, r0
    1374:	881c0100 	ldmdahi	ip, {r8}
    1378:	51000000 	mrspl	r0, (UNDEF: 0)
    137c:	00000007 	andeq	r0, r0, r7
    1380:	00046a0f 	andeq	r6, r4, pc, lsl #20
    1384:	fb330100 	blx	cc178e <__bss_end__+0xcb6dd6>
    1388:	8c000001 	stchi	0, cr0, [r0], {1}
    138c:	78000088 	stmdavc	r0, {r3, r7}
    1390:	01000000 	mrseq	r0, (UNDEF: 0)
    1394:	0002ad9c 	muleq	r2, ip, sp
    1398:	0d511100 	ldfeqe	f1, [r1, #-0]
    139c:	33010000 	movwcc	r0, #4096	; 0x1000
    13a0:	00000068 	andeq	r0, r0, r8, rrx
    13a4:	000007a4 	andeq	r0, r0, r4, lsr #15
    13a8:	01007012 	tsteq	r0, r2, lsl r0
    13ac:	00008834 	andeq	r8, r0, r4, lsr r8
    13b0:	0007c200 	andeq	ip, r7, r0, lsl #4
    13b4:	03ac1300 			; <UNDEFINED> instruction: 0x03ac1300
    13b8:	39010000 	stmdbcc	r1, {}	; <UNPREDICTABLE>
    13bc:	000001fb 	strdeq	r0, [r0], -fp
    13c0:	000007e0 	andeq	r0, r0, r0, ror #15
    13c4:	00889814 	addeq	r9, r8, r4, lsl r8
    13c8:	00021b00 	andeq	r1, r2, r0, lsl #22
    13cc:	00029a00 	andeq	r9, r2, r0, lsl #20
    13d0:	50011500 	andpl	r1, r1, r0, lsl #10
    13d4:	00007402 	andeq	r7, r0, r2, lsl #8
    13d8:	0088a416 	addeq	sl, r8, r6, lsl r4
    13dc:	000ce400 	andeq	lr, ip, r0, lsl #8
    13e0:	88f01600 	ldmhi	r0!, {r9, sl, ip}^
    13e4:	0cef0000 	stcleq	0, cr0, [pc]	; 13ec <_start-0x6c14>
    13e8:	0f000000 	svceq	0x00000000
    13ec:	00000402 	andeq	r0, r0, r2, lsl #8
    13f0:	002c7e01 	eoreq	r7, ip, r1, lsl #28
    13f4:	89040000 	stmdbhi	r4, {}	; <UNPREDICTABLE>
    13f8:	01340000 	teqeq	r4, r0
    13fc:	9c010000 	stcls	0, cr0, [r1], {-0}
    1400:	00000464 	andeq	r0, r0, r4, ror #8
    1404:	00038911 	andeq	r8, r3, r1, lsl r9
    1408:	257e0100 	ldrbcs	r0, [lr, #-256]!	; 0x100
    140c:	fe000000 	cdp2	0, 0, cr0, cr0, cr0, {0}
    1410:	13000007 	movwne	r0, #7
    1414:	00000471 	andeq	r0, r0, r1, ror r4
    1418:	002c7f01 	eoreq	r7, ip, r1, lsl #30
    141c:	081c0000 	ldmdaeq	ip, {}	; <UNPREDICTABLE>
    1420:	cd130000 	ldcgt	0, cr0, [r3, #-0]
    1424:	01000003 	tsteq	r0, r3
    1428:	00002c7f 	andeq	r2, r0, pc, ror ip
    142c:	00083b00 	andeq	r3, r8, r0, lsl #22
    1430:	03c71300 	biceq	r1, r7, #0, 6
    1434:	7f010000 	svcvc	0x00010000
    1438:	0000002c 	andeq	r0, r0, ip, lsr #32
    143c:	0000085a 	andeq	r0, r0, sl, asr r8
    1440:	0003ac13 	andeq	sl, r3, r3, lsl ip
    1444:	fb830100 	blx	fe0c184e <__bss_end__+0xfe0b6e96>
    1448:	79000001 	stmdbvc	r0, {r0}
    144c:	14000008 	strne	r0, [r0], #-8
    1450:	00008914 	andeq	r8, r0, r4, lsl r9
    1454:	00000d04 	andeq	r0, r0, r4, lsl #26
    1458:	00000328 	andeq	r0, r0, r8, lsr #6
    145c:	05500115 	ldrbeq	r0, [r0, #-277]	; 0x115
    1460:	009ff803 	addseq	pc, pc, r3, lsl #16
    1464:	1c140000 	ldcne	0, cr0, [r4], {-0}
    1468:	04000089 	streq	r0, [r0], #-137	; 0x89
    146c:	3f00000d 	svccc	0x0000000d
    1470:	15000003 	strne	r0, [r0, #-3]
    1474:	03055001 	movweq	r5, #20481	; 0x5001
    1478:	0000a034 	andeq	sl, r0, r4, lsr r0
    147c:	89201600 	stmdbhi	r0!, {r9, sl, ip}
    1480:	0ce40000 	stcleq	0, cr0, [r4]
    1484:	60140000 	andsvs	r0, r4, r0
    1488:	04000089 	streq	r0, [r0], #-137	; 0x89
    148c:	5c00000d 	stcpl	0, cr0, [r0], {13}
    1490:	15000003 	strne	r0, [r0, #-3]
    1494:	7a025001 	bvc	954a0 <__bss_end__+0x8aae8>
    1498:	6c140000 	ldcvs	0, cr0, [r4], {-0}
    149c:	04000089 	streq	r0, [r0], #-137	; 0x89
    14a0:	7700000d 	strvc	r0, [r0, -sp]
    14a4:	15000003 	strne	r0, [r0, #-3]
    14a8:	74035101 	strvc	r5, [r3], #-257	; 0x101
    14ac:	011501b8 			; <UNDEFINED> instruction: 0x011501b8
    14b0:	007b0250 	rsbseq	r0, fp, r0, asr r2
    14b4:	89941400 	ldmibhi	r4, {sl, ip}
    14b8:	0d040000 	stceq	0, cr0, [r4, #-0]
    14bc:	038b0000 	orreq	r0, fp, #0
    14c0:	01150000 	tsteq	r5, r0
    14c4:	007a0250 	rsbseq	r0, sl, r0, asr r2
    14c8:	89a01400 	stmibhi	r0!, {sl, ip}
    14cc:	0d040000 	stceq	0, cr0, [r4, #-0]
    14d0:	03a90000 			; <UNDEFINED> instruction: 0x03a90000
    14d4:	01150000 	tsteq	r5, r0
    14d8:	b8740351 	ldmdalt	r4!, {r0, r4, r6, r8, r9}^
    14dc:	50011501 	andpl	r1, r1, r1, lsl #10
    14e0:	a06c0305 	rsbge	r0, ip, r5, lsl #6
    14e4:	14000000 	strne	r0, [r0], #-0
    14e8:	000089b0 			; <UNDEFINED> instruction: 0x000089b0
    14ec:	00000cef 	andeq	r0, r0, pc, ror #25
    14f0:	000003bd 			; <UNDEFINED> instruction: 0x000003bd
    14f4:	02500115 	subseq	r0, r0, #1073741829	; 0x40000005
    14f8:	14000074 	strne	r0, [r0], #-116	; 0x74
    14fc:	000089c4 	andeq	r8, r0, r4, asr #19
    1500:	00000d04 	andeq	r0, r0, r4, lsl #26
    1504:	000003d1 	ldrdeq	r0, [r0], -r1
    1508:	02500115 	subseq	r0, r0, #1073741829	; 0x40000005
    150c:	1400007a 	strne	r0, [r0], #-122	; 0x7a
    1510:	000089d0 	ldrdeq	r8, [r0], -r0
    1514:	00000d04 	andeq	r0, r0, r4, lsl #26
    1518:	000003ee 	andeq	r0, r0, lr, ror #7
    151c:	02510115 	subseq	r0, r1, #1073741829	; 0x40000005
    1520:	01150075 	tsteq	r5, r5, ror r0
    1524:	a4030550 	strge	r0, [r3], #-1360	; 0x550
    1528:	000000a0 	andeq	r0, r0, r0, lsr #1
    152c:	0089e014 	addeq	lr, r9, r4, lsl r0
    1530:	000d0400 	andeq	r0, sp, r0, lsl #8
    1534:	00040200 	andeq	r0, r4, r0, lsl #4
    1538:	50011500 	andpl	r1, r1, r0, lsl #10
    153c:	00007a02 	andeq	r7, r0, r2, lsl #20
    1540:	0089e814 	addeq	lr, r9, r4, lsl r8
    1544:	000d0400 	andeq	r0, sp, r0, lsl #8
    1548:	00041900 	andeq	r1, r4, r0, lsl #18
    154c:	50011500 	andpl	r1, r1, r0, lsl #10
    1550:	a0bc0305 	adcsge	r0, ip, r5, lsl #6
    1554:	14000000 	strne	r0, [r0], #-0
    1558:	000089f4 	strdeq	r8, [r0], -r4
    155c:	00000d04 	andeq	r0, r0, r4, lsl #26
    1560:	0000042d 	andeq	r0, r0, sp, lsr #8
    1564:	02500115 	subseq	r0, r0, #1073741829	; 0x40000005
    1568:	1400007a 	strne	r0, [r0], #-122	; 0x7a
    156c:	00008a04 	andeq	r8, r0, r4, lsl #20
    1570:	00000d04 	andeq	r0, r0, r4, lsl #26
    1574:	00000450 	andeq	r0, r0, r0, asr r4
    1578:	02520115 	subseq	r0, r2, #1073741829	; 0x40000005
    157c:	01150076 	tsteq	r5, r6, ror r0
    1580:	00770251 	rsbseq	r0, r7, r1, asr r2
    1584:	05500115 	ldrbeq	r0, [r0, #-277]	; 0x115
    1588:	00a0dc03 	adceq	sp, r0, r3, lsl #24
    158c:	0c170000 	ldceq	0, cr0, [r7], {-0}
    1590:	0400008a 	streq	r0, [r0], #-138	; 0x8a
    1594:	1500000d 	strne	r0, [r0, #-13]
    1598:	03055001 	movweq	r5, #20481	; 0x5001
    159c:	0000a108 	andeq	sl, r0, r8, lsl #2
    15a0:	ac180000 	ldcge	0, cr0, [r8], {-0}
    15a4:	01000001 	tsteq	r0, r1
    15a8:	008a385a 	addeq	r3, sl, sl, asr r8
    15ac:	0000f800 	andeq	pc, r0, r0, lsl #16
    15b0:	a19c0100 	orrsge	r0, ip, r0, lsl #2
    15b4:	10000005 	andne	r0, r0, r5
    15b8:	5a010070 	bpl	41780 <__bss_end__+0x36dc8>
    15bc:	000005a1 	andeq	r0, r0, r1, lsr #11
    15c0:	000008c3 	andeq	r0, r0, r3, asr #17
    15c4:	01006510 	tsteq	r0, r0, lsl r5
    15c8:	0005a15a 	andeq	sl, r5, sl, asr r1
    15cc:	00093400 	andeq	r3, r9, r0, lsl #8
    15d0:	01101900 	tsteq	r0, r0, lsl #18
    15d4:	05b70000 	ldreq	r0, [r7, #0]!
    15d8:	03050000 	movweq	r0, #20480	; 0x5000
    15dc:	00009fa4 	andeq	r9, r0, r4, lsr #31
    15e0:	646e651a 	strbtvs	r6, [lr], #-1306	; 0x51a
    15e4:	68600100 	stmdavs	r0!, {r8}^
    15e8:	13000000 	movwne	r0, #0
    15ec:	00000415 	andeq	r0, r0, r5, lsl r4
    15f0:	05a16101 	streq	r6, [r1, #257]!	; 0x101
    15f4:	09940000 	ldmibeq	r4, {}	; <UNPREDICTABLE>
    15f8:	ac130000 	ldcge	0, cr0, [r3], {-0}
    15fc:	01000003 	tsteq	r0, r3
    1600:	0001fb62 	andeq	pc, r1, r2, ror #22
    1604:	0009b200 	andeq	fp, r9, r0, lsl #4
    1608:	8a501600 	bhi	1406e10 <__bss_end__+0x13fc458>
    160c:	0d1a0000 	ldceq	0, cr0, [sl, #-0]
    1610:	64140000 	ldrvs	r0, [r4], #-0
    1614:	0400008a 	streq	r0, [r0], #-138	; 0x8a
    1618:	0300000d 	movweq	r0, #13
    161c:	15000005 	strne	r0, [r0, #-5]
    1620:	08025301 	stmdaeq	r2, {r0, r8, r9, ip, lr}
    1624:	5201155b 	andpl	r1, r1, #381681664	; 0x16c00000
    1628:	9fa40305 	svcls	0x00a40305
    162c:	01150000 	tsteq	r5, r0
    1630:	58030551 	stmdapl	r3, {r0, r4, r6, r8, sl}
    1634:	150000a1 	strne	r0, [r0, #-161]	; 0xa1
    1638:	03055001 	movweq	r5, #20481	; 0x5001
    163c:	0000a144 	andeq	sl, r0, r4, asr #2
    1640:	8a681600 	bhi	1a06e48 <__bss_end__+0x19fc490>
    1644:	0d210000 	stceq	0, cr0, [r1, #-0]
    1648:	74160000 	ldrvc	r0, [r6], #-0
    164c:	1a00008a 	bne	187c <_start-0x6784>
    1650:	1400000d 	strne	r0, [r0], #-13
    1654:	00008a88 	andeq	r8, r0, r8, lsl #21
    1658:	00000d04 	andeq	r0, r0, r4, lsl #26
    165c:	00000544 	andeq	r0, r0, r4, asr #10
    1660:	02530115 	subseq	r0, r3, #1073741829	; 0x40000005
    1664:	01155d08 	tsteq	r5, r8, lsl #26
    1668:	a4030552 	strge	r0, [r3], #-1362	; 0x552
    166c:	1500009f 	strne	r0, [r0, #-159]	; 0x9f
    1670:	03055101 	movweq	r5, #20737	; 0x5101
    1674:	0000a158 	andeq	sl, r0, r8, asr r1
    1678:	05500115 	ldrbeq	r0, [r0, #-277]	; 0x115
    167c:	00a16003 	adceq	r6, r1, r3
    1680:	8c160000 	ldchi	0, cr0, [r6], {-0}
    1684:	2100008a 	smlabbcs	r0, sl, r0, r0
    1688:	1600000d 	strne	r0, [r0], -sp
    168c:	00008a98 	muleq	r0, r8, sl
    1690:	00000d1a 	andeq	r0, r0, sl, lsl sp
    1694:	008aac14 	addeq	sl, sl, r4, lsl ip
    1698:	000d0400 	andeq	r0, sp, r0, lsl #8
    169c:	00058500 	andeq	r8, r5, r0, lsl #10
    16a0:	53011500 	movwpl	r1, #5376	; 0x1500
    16a4:	155e0802 	ldrbne	r0, [lr, #-2050]	; 0x802
    16a8:	03055201 	movweq	r5, #20993	; 0x5201
    16ac:	00009fa4 	andeq	r9, r0, r4, lsr #31
    16b0:	05510115 	ldrbeq	r0, [r1, #-277]	; 0x115
    16b4:	00a15803 	adceq	r5, r1, r3, lsl #16
    16b8:	50011500 	andpl	r1, r1, r0, lsl #10
    16bc:	a1800305 	orrge	r0, r0, r5, lsl #6
    16c0:	16000000 	strne	r0, [r0], -r0
    16c4:	00008ab0 			; <UNDEFINED> instruction: 0x00008ab0
    16c8:	00000d21 	andeq	r0, r0, r1, lsr #26
    16cc:	008ab816 	addeq	fp, sl, r6, lsl r8
    16d0:	00024200 	andeq	r4, r2, r0, lsl #4
    16d4:	8b041600 	blhi	106edc <__bss_end__+0xfc524>
    16d8:	04640000 	strbteq	r0, [r4], #-0
    16dc:	06000000 	streq	r0, [r0], -r0
    16e0:	00006804 	andeq	r6, r0, r4, lsl #16
    16e4:	008a1b00 	addeq	r1, sl, r0, lsl #22
    16e8:	05b70000 	ldreq	r0, [r7, #0]!
    16ec:	811c0000 	tsthi	ip, r0
    16f0:	04000000 	streq	r0, [r0], #-0
    16f4:	05a70700 	streq	r0, [r7, #1792]!	; 0x700
    16f8:	61180000 	tstvs	r8, r0
    16fc:	01000004 	tsteq	r0, r4
    1700:	008b30ca 	addeq	r3, fp, sl, asr #1
    1704:	0000f400 	andeq	pc, r0, r0, lsl #8
    1708:	269c0100 	ldrcs	r0, [ip], r0, lsl #2
    170c:	1d000007 	stcne	0, cr0, [r0, #-28]	; 0xffffffe4
    1710:	d3010069 	movwle	r0, #4201	; 0x1069
    1714:	000001a4 	andeq	r0, r0, r4, lsr #3
    1718:	1e689102 	lgnnee	f1, f2
    171c:	00000440 	andeq	r0, r0, r0, asr #8
    1720:	0726dc01 	streq	sp, [r6, -r1, lsl #24]!
    1724:	91030000 	mrsls	r0, (UNDEF: 3)
    1728:	10197fa8 	andsne	r7, r9, r8, lsr #31
    172c:	46000001 	strmi	r0, [r0], -r1
    1730:	05000007 	streq	r0, [r0, #-7]
    1734:	009fac03 	addseq	sl, pc, r3, lsl #24
    1738:	037f1f00 	cmneq	pc, #0, 30
    173c:	ec010000 	stc	0, cr0, [r1], {-0}
    1740:	000005a1 	andeq	r0, r0, r1, lsr #11
    1744:	08000000 	stmdaeq	r0, {}	; <UNPREDICTABLE>
    1748:	0003e820 	andeq	lr, r3, r0, lsr #16
    174c:	68f00100 	ldmvs	r0!, {r8}^
    1750:	20000000 	andcs	r0, r0, r0
    1754:	000003f6 	strdeq	r0, [r0], -r6
    1758:	0068f001 	rsbeq	pc, r8, r1
    175c:	2c200000 	stccs	0, cr0, [r0], #-0
    1760:	01000004 	tsteq	r0, r4
    1764:	000068f3 	strdeq	r6, [r0], -r3
    1768:	04542000 	ldrbeq	r2, [r4], #-0
    176c:	f3010000 	vhadd.u8	d0, d1, d0
    1770:	00000068 	andeq	r0, r0, r8, rrx
    1774:	008b3821 	addeq	r3, fp, r1, lsr #16
    1778:	00002400 	andeq	r2, r0, r0, lsl #8
    177c:	00066300 	andeq	r6, r6, r0, lsl #6
    1780:	00681200 	rsbeq	r1, r8, r0, lsl #4
    1784:	01fbcd01 	mvnseq	ip, r1, lsl #26
    1788:	09d00000 	ldmibeq	r0, {}^	; <UNPREDICTABLE>
    178c:	3c160000 	ldccc	0, cr0, [r6], {-0}
    1790:	e400008b 	str	r0, [r0], #-139	; 0x8b
    1794:	1600000c 	strne	r0, [r0], -ip
    1798:	00008b54 	andeq	r8, r0, r4, asr fp
    179c:	00000cef 	andeq	r0, r0, pc, ror #25
    17a0:	00502200 	subseq	r2, r0, r0, lsl #4
    17a4:	067a0000 	ldrbteq	r0, [sl], -r0
    17a8:	69120000 	ldmdbvs	r2, {}	; <UNPREDICTABLE>
    17ac:	25e10100 	strbcs	r0, [r1, #256]!	; 0x100
    17b0:	ee000000 	cdp	0, 0, cr0, cr0, cr0, {0}
    17b4:	00000009 	andeq	r0, r0, r9
    17b8:	008b6814 	addeq	r6, fp, r4, lsl r8
    17bc:	000d2800 	andeq	r2, sp, r0, lsl #16
    17c0:	00068e00 	andeq	r8, r6, r0, lsl #28
    17c4:	50011500 	andpl	r1, r1, r0, lsl #10
    17c8:	00007402 	andeq	r7, r0, r2, lsl #8
    17cc:	008b8014 	addeq	r8, fp, r4, lsl r0
    17d0:	000d3300 	andeq	r3, sp, r0, lsl #6
    17d4:	0006a200 	andeq	sl, r6, r0, lsl #4
    17d8:	50011500 	andpl	r1, r1, r0, lsl #10
    17dc:	00007402 	andeq	r7, r0, r2, lsl #8
    17e0:	008b9016 	addeq	r9, fp, r6, lsl r0
    17e4:	000d1a00 	andeq	r1, sp, r0, lsl #20
    17e8:	8ba41400 	blhi	fe9067f0 <__bss_end__+0xfe8fbe38>
    17ec:	0d040000 	stceq	0, cr0, [r4, #-0]
    17f0:	06da0000 	ldrbeq	r0, [sl], r0
    17f4:	01150000 	tsteq	r5, r0
    17f8:	df080253 	svcle	0x00080253
    17fc:	05520115 	ldrbeq	r0, [r2, #-277]	; 0x115
    1800:	009fac03 	addseq	sl, pc, r3, lsl #24
    1804:	51011500 	tstpl	r1, r0, lsl #10
    1808:	a1580305 	cmpge	r8, r5, lsl #6
    180c:	01150000 	tsteq	r5, r0
    1810:	a0030550 	andge	r0, r3, r0, asr r5
    1814:	000000a1 	andeq	r0, r0, r1, lsr #1
    1818:	008ba816 	addeq	sl, fp, r6, lsl r8
    181c:	000d2100 	andeq	r2, sp, r0, lsl #2
    1820:	8bd81400 	blhi	ff606828 <__bss_end__+0xff5fbe70>
    1824:	04640000 	strbteq	r0, [r4], #-0
    1828:	06fe0000 	ldrbteq	r0, [lr], r0
    182c:	01150000 	tsteq	r5, r0
    1830:	58910251 	ldmpl	r1, {r0, r4, r6, r9}
    1834:	03500115 	cmpeq	r0, #1073741829	; 0x40000005
    1838:	007fb091 			; <UNDEFINED> instruction: 0x007fb091
    183c:	008be414 	addeq	lr, fp, r4, lsl r4
    1840:	00046400 	andeq	r6, r4, r0, lsl #8
    1844:	00071300 	andeq	r1, r7, r0, lsl #6
    1848:	51011500 	tstpl	r1, r0, lsl #10
    184c:	24474003 	strbcs	r4, [r7], #-3
    1850:	8bf01600 	blhi	ffc07058 <__bss_end__+0xffbfc6a0>
    1854:	04640000 	strbteq	r0, [r4], #-0
    1858:	fc160000 	ldc2	0, cr0, [r6], {-0}
    185c:	6400008b 	strvs	r0, [r0], #-139	; 0x8b
    1860:	00000004 	andeq	r0, r0, r4
    1864:	0000681b 	andeq	r6, r0, fp, lsl r8
    1868:	00073600 	andeq	r3, r7, r0, lsl #12
    186c:	00811c00 	addeq	r1, r1, r0, lsl #24
    1870:	000f0000 	andeq	r0, pc, r0
    1874:	00008a1b 	andeq	r8, r0, fp, lsl sl
    1878:	00074600 	andeq	r4, r7, r0, lsl #12
    187c:	00811c00 	addeq	r1, r1, r0, lsl #24
    1880:	00080000 	andeq	r0, r8, r0
    1884:	00073607 	andeq	r3, r7, r7, lsl #12
    1888:	03bc2300 			; <UNDEFINED> instruction: 0x03bc2300
    188c:	2d010000 	stccs	0, cr0, [r1, #-0]
    1890:	00002c01 	andeq	r2, r0, r1, lsl #24
    1894:	008c2400 	addeq	r2, ip, r0, lsl #8
    1898:	00012000 	andeq	r2, r1, r0
    189c:	189c0100 	ldmne	ip, {r8}
    18a0:	24000009 	strcs	r0, [r0], #-9
    18a4:	00000471 	andeq	r0, r0, r1, ror r4
    18a8:	2c012e01 	stccs	14, cr2, [r1], {1}
    18ac:	0c000000 	stceq	0, cr0, [r0], {-0}
    18b0:	2400000a 	strcs	r0, [r0], #-10
    18b4:	00000445 	andeq	r0, r0, r5, asr #8
    18b8:	2c012e01 	stccs	14, cr2, [r1], {1}
    18bc:	2b000000 	blcs	18c4 <_start-0x673c>
    18c0:	2400000a 	strcs	r0, [r0], #-10
    18c4:	00000189 	andeq	r0, r0, r9, lsl #3
    18c8:	2c012e01 	stccs	14, cr2, [r1], {1}
    18cc:	4a000000 	bmi	18d4 <_start-0x672c>
    18d0:	2400000a 	strcs	r0, [r0], #-10
    18d4:	000003ac 	andeq	r0, r0, ip, lsr #7
    18d8:	fb013201 	blx	4e0e6 <__bss_end__+0x4372e>
    18dc:	74000001 	strvc	r0, [r0], #-1
    18e0:	1900000a 	stmdbne	r0, {r1, r3}
    18e4:	00000110 	andeq	r0, r0, r0, lsl r1
    18e8:	00000928 	andeq	r0, r0, r8, lsr #18
    18ec:	9fb80305 	svcls	0x00b80305
    18f0:	af250000 	svcge	0x00250000
    18f4:	01000002 	tsteq	r0, r2
    18f8:	01a40148 			; <UNDEFINED> instruction: 0x01a40148
    18fc:	91020000 	mrsls	r0, (UNDEF: 2)
    1900:	00682248 	rsbeq	r2, r8, r8, asr #4
    1904:	082f0000 	stmdaeq	pc!, {}	; <UNPREDICTABLE>
    1908:	70260000 	eorvc	r0, r6, r0
    190c:	01007274 	tsteq	r0, r4, ror r2
    1910:	00880138 	addeq	r0, r8, r8, lsr r1
    1914:	57010000 	strpl	r0, [r1, -r0]
    1918:	008c9014 	addeq	r9, ip, r4, lsl r0
    191c:	000d0400 	andeq	r0, sp, r0, lsl #8
    1920:	0007ee00 	andeq	lr, r7, r0, lsl #28
    1924:	50011500 	andpl	r1, r1, r0, lsl #10
    1928:	00007b02 	andeq	r7, r0, r2, lsl #22
    192c:	008c9c14 	addeq	r9, ip, r4, lsl ip
    1930:	000d0400 	andeq	r0, sp, r0, lsl #8
    1934:	00080800 	andeq	r0, r8, r0, lsl #16
    1938:	51011500 	tstpl	r1, r0, lsl #10
    193c:	15007702 	strne	r7, [r0, #-1794]	; 0x702
    1940:	7a025001 	bvc	9594c <__bss_end__+0x8af94>
    1944:	b0170000 	andslt	r0, r7, r0
    1948:	4500008c 	strmi	r0, [r0, #-140]	; 0x8c
    194c:	1500000d 	strne	r0, [r0, #-13]
    1950:	0a035301 	beq	d655c <__bss_end__+0xcbba4>
    1954:	0115013a 	tsteq	r5, sl, lsr r1
    1958:	b8030552 	stmdalt	r3, {r1, r4, r6, r8, sl}
    195c:	1500009f 	strne	r0, [r0, #-159]	; 0x9f
    1960:	79025101 	stmdbvc	r2, {r0, r8, ip, lr}
    1964:	50011500 	andpl	r1, r1, r0, lsl #10
    1968:	00007702 	andeq	r7, r0, r2, lsl #14
    196c:	8c341400 	cfldrshi	mvf1, [r4], #-0
    1970:	0d040000 	stceq	0, cr0, [r4, #-0]
    1974:	08460000 	stmdaeq	r6, {}^	; <UNPREDICTABLE>
    1978:	01150000 	tsteq	r5, r0
    197c:	f8030550 			; <UNDEFINED> instruction: 0xf8030550
    1980:	0000009f 	muleq	r0, pc, r0	; <UNPREDICTABLE>
    1984:	008c3c14 	addeq	r3, ip, r4, lsl ip
    1988:	000d0400 	andeq	r0, sp, r0, lsl #8
    198c:	00085d00 	andeq	r5, r8, r0, lsl #26
    1990:	50011500 	andpl	r1, r1, r0, lsl #10
    1994:	a1d00305 	bicsge	r0, r0, r5, lsl #6
    1998:	16000000 	strne	r0, [r0], -r0
    199c:	00008c40 	andeq	r8, r0, r0, asr #24
    19a0:	00000ce4 	andeq	r0, r0, r4, ror #25
    19a4:	008cbc14 	addeq	fp, ip, r4, lsl ip
    19a8:	000cef00 	andeq	lr, ip, r0, lsl #30
    19ac:	00087a00 	andeq	r7, r8, r0, lsl #20
    19b0:	50011500 	andpl	r1, r1, r0, lsl #10
    19b4:	00007402 	andeq	r7, r0, r2, lsl #8
    19b8:	008cd414 	addeq	sp, ip, r4, lsl r4
    19bc:	000d0400 	andeq	r0, sp, r0, lsl #8
    19c0:	00088e00 	andeq	r8, r8, r0, lsl #28
    19c4:	50011500 	andpl	r1, r1, r0, lsl #10
    19c8:	00007402 	andeq	r7, r0, r2, lsl #8
    19cc:	008ce814 	addeq	lr, ip, r4, lsl r8
    19d0:	000d0400 	andeq	r0, sp, r0, lsl #8
    19d4:	0008b700 	andeq	fp, r8, r0, lsl #14
    19d8:	53011500 	movwpl	r1, #5376	; 0x1500
    19dc:	15007602 	strne	r7, [r0, #-1538]	; 0x602
    19e0:	78025201 	stmdavc	r2, {r0, r9, ip, lr}
    19e4:	51011500 	tstpl	r1, r0, lsl #10
    19e8:	15007502 	strne	r7, [r0, #-1282]	; 0x502
    19ec:	03055001 	movweq	r5, #20481	; 0x5001
    19f0:	0000a1f4 	strdeq	sl, [r0], -r4
    19f4:	8cf01400 	cfldrdhi	mvd1, [r0]
    19f8:	0d280000 	stceq	0, cr0, [r8, #-0]
    19fc:	08cb0000 	stmiaeq	fp, {}^	; <UNPREDICTABLE>
    1a00:	01150000 	tsteq	r5, r0
    1a04:	007d0250 	rsbseq	r0, sp, r0, asr r2
    1a08:	8cf81400 	cfldrdhi	mvd1, [r8]
    1a0c:	0d040000 	stceq	0, cr0, [r4, #-0]
    1a10:	08df0000 	ldmeq	pc, {}^	; <UNPREDICTABLE>
    1a14:	01150000 	tsteq	r5, r0
    1a18:	00740250 	rsbseq	r0, r4, r0, asr r2
    1a1c:	8d081400 	cfstrshi	mvf1, [r8, #-0]
    1a20:	0d040000 	stceq	0, cr0, [r4, #-0]
    1a24:	09040000 	stmdbeq	r4, {}	; <UNPREDICTABLE>
    1a28:	01150000 	tsteq	r5, r0
    1a2c:	48910352 	ldmmi	r1, {r1, r4, r6, r8, r9}
    1a30:	51011506 	tstpl	r1, r6, lsl #10
    1a34:	064c9103 	strbeq	r9, [ip], -r3, lsl #2
    1a38:	05500115 	ldrbeq	r0, [r0, #-277]	; 0x115
    1a3c:	00a22003 	adceq	r2, r2, r3
    1a40:	10170000 	andsne	r0, r7, r0
    1a44:	0400008d 	streq	r0, [r0], #-141	; 0x8d
    1a48:	1500000d 	strne	r0, [r0, #-13]
    1a4c:	03055001 	movweq	r5, #20481	; 0x5001
    1a50:	0000a108 	andeq	sl, r0, r8, lsl #2
    1a54:	8a1b0000 	bhi	6c1a5c <__bss_end__+0x6b70a4>
    1a58:	28000000 	stmdacs	r0, {}	; <UNPREDICTABLE>
    1a5c:	1c000009 	stcne	0, cr0, [r0], {9}
    1a60:	00000081 	andeq	r0, r0, r1, lsl #1
    1a64:	1807000a 	stmdane	r7, {r1, r3}
    1a68:	27000009 	strcs	r0, [r0, -r9]
    1a6c:	000003da 	ldrdeq	r0, [r0], -sl
    1a70:	002cfd01 	eoreq	pc, ip, r1, lsl #26
    1a74:	8d440000 	stclhi	0, cr0, [r4, #-0]
    1a78:	00180000 	andseq	r0, r8, r0
    1a7c:	9c010000 	stcls	0, cr0, [r1], {-0}
    1a80:	0000096f 	andeq	r0, r0, pc, ror #18
    1a84:	00038911 	andeq	r8, r3, r1, lsl r9
    1a88:	25fd0100 	ldrbcs	r0, [sp, #256]!	; 0x100
    1a8c:	9d000000 	stcls	0, cr0, [r0, #-0]
    1a90:	1600000a 	strne	r0, [r0], -sl
    1a94:	00008d50 	andeq	r8, r0, r0, asr sp
    1a98:	000005bc 			; <UNDEFINED> instruction: 0x000005bc
    1a9c:	008d5817 	addeq	r5, sp, r7, lsl r8
    1aa0:	0002ad00 	andeq	sl, r2, r0, lsl #26
    1aa4:	50011500 	andpl	r1, r1, r0, lsl #10
    1aa8:	00007402 	andeq	r7, r0, r2, lsl #8
    1aac:	00be2800 	adcseq	r2, lr, r0, lsl #16
    1ab0:	03010000 	movweq	r0, #4096	; 0x1000
    1ab4:	008d5c01 	addeq	r5, sp, r1, lsl #24
    1ab8:	0000a000 	andeq	sl, r0, r0
    1abc:	8d9c0100 	ldfhis	f0, [ip]
    1ac0:	1900000a 	stmdbne	r0, {r1, r3}
    1ac4:	00000110 	andeq	r0, r0, r0, lsl r1
    1ac8:	00000a9d 	muleq	r0, sp, sl
    1acc:	9fc40305 	svcls	0x00c40305
    1ad0:	64160000 	ldrvs	r0, [r6], #-0
    1ad4:	6500008d 	strvs	r0, [r0, #-141]	; 0x8d
    1ad8:	1600000d 	strne	r0, [r0], -sp
    1adc:	00008d70 	andeq	r8, r0, r0, ror sp
    1ae0:	00000d1a 	andeq	r0, r0, sl, lsl sp
    1ae4:	008d8414 	addeq	r8, sp, r4, lsl r4
    1ae8:	000d0400 	andeq	r0, sp, r0, lsl #8
    1aec:	0009d600 	andeq	sp, r9, r0, lsl #12
    1af0:	53011500 	movwpl	r1, #5376	; 0x1500
    1af4:	01090a03 	tsteq	r9, r3, lsl #20
    1af8:	05520115 	ldrbeq	r0, [r2, #-277]	; 0x115
    1afc:	009fc403 	addseq	ip, pc, r3, lsl #8
    1b00:	51011500 	tstpl	r1, r0, lsl #10
    1b04:	a1580305 	cmpge	r8, r5, lsl #6
    1b08:	01150000 	tsteq	r5, r0
    1b0c:	54030550 	strpl	r0, [r3], #-1360	; 0x550
    1b10:	000000a2 	andeq	r0, r0, r2, lsr #1
    1b14:	008d8816 	addeq	r8, sp, r6, lsl r8
    1b18:	000d2100 	andeq	r2, sp, r0, lsl #2
    1b1c:	8d901400 	cfldrshi	mvf1, [r0]
    1b20:	0d040000 	stceq	0, cr0, [r4, #-0]
    1b24:	09f60000 	ldmibeq	r6!, {}^	; <UNPREDICTABLE>
    1b28:	01150000 	tsteq	r5, r0
    1b2c:	48030550 	stmdami	r3, {r4, r6, r8, sl}
    1b30:	0000009c 	muleq	r0, ip, r0
    1b34:	008d9814 	addeq	r9, sp, r4, lsl r8
    1b38:	000d0400 	andeq	r0, sp, r0, lsl #8
    1b3c:	000a0d00 	andeq	r0, sl, r0, lsl #26
    1b40:	50011500 	andpl	r1, r1, r0, lsl #10
    1b44:	a27c0305 	rsbsge	r0, ip, #335544320	; 0x14000000
    1b48:	14000000 	strne	r0, [r0], #-0
    1b4c:	00008da0 	andeq	r8, r0, r0, lsr #27
    1b50:	0000092d 	andeq	r0, r0, sp, lsr #18
    1b54:	00000a20 	andeq	r0, r0, r0, lsr #20
    1b58:	01500115 	cmpeq	r0, r5, lsl r1
    1b5c:	ac160031 	ldcge	0, cr0, [r6], {49}	; 0x31
    1b60:	1a00008d 	bne	1d9c <_start-0x6264>
    1b64:	1400000d 	strne	r0, [r0], #-13
    1b68:	00008dc0 	andeq	r8, r0, r0, asr #27
    1b6c:	00000d04 	andeq	r0, r0, r4, lsl #26
    1b70:	00000a59 	andeq	r0, r0, r9, asr sl
    1b74:	03530115 	cmpeq	r3, #1073741829	; 0x40000005
    1b78:	15010d0a 	strne	r0, [r1, #-3338]	; 0xd0a
    1b7c:	03055201 	movweq	r5, #20993	; 0x5201
    1b80:	00009fc4 	andeq	r9, r0, r4, asr #31
    1b84:	05510115 	ldrbeq	r0, [r1, #-277]	; 0x115
    1b88:	00a15803 	adceq	r5, r1, r3, lsl #16
    1b8c:	50011500 	andpl	r1, r1, r0, lsl #10
    1b90:	a29c0305 	addsge	r0, ip, #335544320	; 0x14000000
    1b94:	16000000 	strne	r0, [r0], -r0
    1b98:	00008dc4 	andeq	r8, r0, r4, asr #27
    1b9c:	00000d21 	andeq	r0, r0, r1, lsr #26
    1ba0:	008dcc14 	addeq	ip, sp, r4, lsl ip
    1ba4:	000d0400 	andeq	r0, sp, r0, lsl #8
    1ba8:	000a7900 	andeq	r7, sl, r0, lsl #18
    1bac:	50011500 	andpl	r1, r1, r0, lsl #10
    1bb0:	9c480305 	mcrrls	3, 0, r0, r8, cr5
    1bb4:	17000000 	strne	r0, [r0, -r0]
    1bb8:	00008dd4 	ldrdeq	r8, [r0], -r4
    1bbc:	00000d04 	andeq	r0, r0, r4, lsl #26
    1bc0:	05500115 	ldrbeq	r0, [r0, #-277]	; 0x115
    1bc4:	00a2c803 	adceq	ip, r2, r3, lsl #16
    1bc8:	1b000000 	blne	1bd0 <_start-0x6430>
    1bcc:	0000008a 	andeq	r0, r0, sl, lsl #1
    1bd0:	00000a9d 	muleq	r0, sp, sl
    1bd4:	0000811c 	andeq	r8, r0, ip, lsl r1
    1bd8:	07000d00 	streq	r0, [r0, -r0, lsl #26]
    1bdc:	00000a8d 	andeq	r0, r0, sp, lsl #21
    1be0:	00041a29 	andeq	r1, r4, r9, lsr #20
    1be4:	01140100 	tsteq	r4, r0, lsl #2
    1be8:	0000002c 	andeq	r0, r0, ip, lsr #32
    1bec:	00008dfc 	strdeq	r8, [r0], -ip
    1bf0:	000000a4 	andeq	r0, r0, r4, lsr #1
    1bf4:	0bda9c01 	bleq	ff6a8c00 <__bss_end__+0xff69e248>
    1bf8:	10190000 	andsne	r0, r9, r0
    1bfc:	ea000001 	b	1c08 <_start-0x63f8>
    1c00:	0500000b 	streq	r0, [r0, #-11]
    1c04:	009fd403 	addseq	sp, pc, r3, lsl #8
    1c08:	03b52400 			; <UNDEFINED> instruction: 0x03b52400
    1c0c:	1e010000 	cdpne	0, 0, cr0, cr1, cr0, {0}
    1c10:	00002c01 	andeq	r2, r0, r1, lsl #24
    1c14:	000abb00 	andeq	fp, sl, r0, lsl #22
    1c18:	8e041600 	cfmadd32hi	mvax0, mvfx1, mvfx4, mvfx0
    1c1c:	0d650000 	stcleq	0, cr0, [r5, #-0]
    1c20:	10160000 	andsne	r0, r6, r0
    1c24:	1a00008e 	bne	1e64 <_start-0x619c>
    1c28:	1400000d 	strne	r0, [r0], #-13
    1c2c:	00008e24 	andeq	r8, r0, r4, lsr #28
    1c30:	00000d04 	andeq	r0, r0, r4, lsl #26
    1c34:	00000b1d 	andeq	r0, r0, sp, lsl fp
    1c38:	03530115 	cmpeq	r3, #1073741829	; 0x40000005
    1c3c:	15011a0a 	strne	r1, [r1, #-2570]	; 0xa0a
    1c40:	03055201 	movweq	r5, #20993	; 0x5201
    1c44:	00009fd4 	ldrdeq	r9, [r0], -r4
    1c48:	05510115 	ldrbeq	r0, [r1, #-277]	; 0x115
    1c4c:	00a15803 	adceq	r5, r1, r3, lsl #16
    1c50:	50011500 	andpl	r1, r1, r0, lsl #10
    1c54:	a2540305 	subsge	r0, r4, #335544320	; 0x14000000
    1c58:	16000000 	strne	r0, [r0], -r0
    1c5c:	00008e28 	andeq	r8, r0, r8, lsr #28
    1c60:	00000d21 	andeq	r0, r0, r1, lsr #26
    1c64:	008e3014 	addeq	r3, lr, r4, lsl r0
    1c68:	000d0400 	andeq	r0, sp, r0, lsl #8
    1c6c:	000b3d00 	andeq	r3, fp, r0, lsl #26
    1c70:	50011500 	andpl	r1, r1, r0, lsl #10
    1c74:	9c480305 	mcrrls	3, 0, r0, r8, cr5
    1c78:	14000000 	strne	r0, [r0], #-0
    1c7c:	00008e38 	andeq	r8, r0, r8, lsr lr
    1c80:	00000d04 	andeq	r0, r0, r4, lsl #26
    1c84:	00000b54 	andeq	r0, r0, r4, asr fp
    1c88:	05500115 	ldrbeq	r0, [r0, #-277]	; 0x115
    1c8c:	00a27c03 	adceq	r7, r2, r3, lsl #24
    1c90:	40140000 	andsmi	r0, r4, r0
    1c94:	2d00008e 	stccs	0, cr0, [r0, #-568]	; 0xfffffdc8
    1c98:	67000009 	strvs	r0, [r0, -r9]
    1c9c:	1500000b 	strne	r0, [r0, #-11]
    1ca0:	31015001 	tstcc	r1, r1
    1ca4:	8e4c1600 	cdphi	6, 4, cr1, cr12, cr0, {0}
    1ca8:	0d1a0000 	ldceq	0, cr0, [sl, #-0]
    1cac:	60140000 	andsvs	r0, r4, r0
    1cb0:	0400008e 	streq	r0, [r0], #-142	; 0x8e
    1cb4:	a000000d 	andge	r0, r0, sp
    1cb8:	1500000b 	strne	r0, [r0, #-11]
    1cbc:	0a035301 	beq	d68c8 <__bss_end__+0xcbf10>
    1cc0:	01150120 	tsteq	r5, r0, lsr #2
    1cc4:	d4030552 	strle	r0, [r3], #-1362	; 0x552
    1cc8:	1500009f 	strne	r0, [r0, #-159]	; 0x9f
    1ccc:	03055101 	movweq	r5, #20737	; 0x5101
    1cd0:	0000a158 	andeq	sl, r0, r8, asr r1
    1cd4:	05500115 	ldrbeq	r0, [r0, #-277]	; 0x115
    1cd8:	00a2e003 	adceq	lr, r2, r3
    1cdc:	64160000 	ldrvs	r0, [r6], #-0
    1ce0:	2100008e 	smlabbcs	r0, lr, r0, r0
    1ce4:	1400000d 	strne	r0, [r0], #-13
    1ce8:	00008e6c 	andeq	r8, r0, ip, ror #28
    1cec:	00000d04 	andeq	r0, r0, r4, lsl #26
    1cf0:	00000bc0 	andeq	r0, r0, r0, asr #23
    1cf4:	05500115 	ldrbeq	r0, [r0, #-277]	; 0x115
    1cf8:	009c4803 	addseq	r4, ip, r3, lsl #16
    1cfc:	78170000 	ldmdavc	r7, {}	; <UNPREDICTABLE>
    1d00:	0400008e 	streq	r0, [r0], #-142	; 0x8e
    1d04:	1500000d 	strne	r0, [r0, #-13]
    1d08:	74025101 	strvc	r5, [r2], #-257	; 0x101
    1d0c:	50011500 	andpl	r1, r1, r0, lsl #10
    1d10:	a3080305 	movwge	r0, #33541	; 0x8305
    1d14:	00000000 	andeq	r0, r0, r0
    1d18:	00008a1b 	andeq	r8, r0, fp, lsl sl
    1d1c:	000bea00 	andeq	lr, fp, r0, lsl #20
    1d20:	00811c00 	addeq	r1, r1, r0, lsl #24
    1d24:	00110000 	andseq	r0, r1, r0
    1d28:	000bda07 	andeq	sp, fp, r7, lsl #20
    1d2c:	039d2800 	orrseq	r2, sp, #0, 16
    1d30:	27010000 	strcs	r0, [r1, -r0]
    1d34:	008ea001 	addeq	sl, lr, r1
    1d38:	00002c00 	andeq	r2, r0, r0, lsl #24
    1d3c:	579c0100 	ldrpl	r0, [ip, r0, lsl #2]
    1d40:	1900000c 	stmdbne	r0, {r2, r3}
    1d44:	00000110 	andeq	r0, r0, r0, lsl r1
    1d48:	00000c67 	andeq	r0, r0, r7, ror #24
    1d4c:	9fe80305 	svcls	0x00e80305
    1d50:	a8160000 	ldmdage	r6, {}	; <UNPREDICTABLE>
    1d54:	1a00008e 	bne	1f94 <_start-0x606c>
    1d58:	1400000d 	strne	r0, [r0], #-13
    1d5c:	00008ebc 			; <UNDEFINED> instruction: 0x00008ebc
    1d60:	00000d04 	andeq	r0, r0, r4, lsl #26
    1d64:	00000c4d 	andeq	r0, r0, sp, asr #24
    1d68:	03530115 	cmpeq	r3, #1073741829	; 0x40000005
    1d6c:	1501280a 	strne	r2, [r1, #-2058]	; 0x80a
    1d70:	03055201 	movweq	r5, #20993	; 0x5201
    1d74:	00009fe8 	andeq	r9, r0, r8, ror #31
    1d78:	05510115 	ldrbeq	r0, [r1, #-277]	; 0x115
    1d7c:	00a15803 	adceq	r5, r1, r3, lsl #16
    1d80:	50011500 	andpl	r1, r1, r0, lsl #10
    1d84:	a3280305 	teqge	r8, #335544320	; 0x14000000
    1d88:	16000000 	strne	r0, [r0], -r0
    1d8c:	00008ec0 	andeq	r8, r0, r0, asr #29
    1d90:	00000d21 	andeq	r0, r0, r1, lsr #26
    1d94:	008a1b00 	addeq	r1, sl, r0, lsl #22
    1d98:	0c670000 	stcleq	0, cr0, [r7], #-0
    1d9c:	811c0000 	tsthi	ip, r0
    1da0:	0e000000 	cdpeq	0, 0, cr0, cr0, cr0, {0}
    1da4:	0c570700 	mrrceq	7, 0, r0, r7, cr0
    1da8:	d4290000 	strtle	r0, [r9], #-0
    1dac:	01000003 	tsteq	r0, r3
    1db0:	002c014f 	eoreq	r0, ip, pc, asr #2
    1db4:	8ecc0000 	cdphi	0, 12, cr0, cr12, cr0, {0}
    1db8:	00100000 	andseq	r0, r0, r0
    1dbc:	9c010000 	stcls	0, cr0, [r1], {-0}
    1dc0:	00000ca7 	andeq	r0, r0, r7, lsr #25
    1dc4:	00033a25 	andeq	r3, r3, r5, lsr #20
    1dc8:	01510100 	cmpeq	r1, r0, lsl #2
    1dcc:	0000002c 	andeq	r0, r0, ip, lsr #32
    1dd0:	d4165001 	ldrle	r5, [r6], #-1
    1dd4:	bc00008e 	stclt	0, cr0, [r0], {142}	; 0x8e
    1dd8:	16000005 	strne	r0, [r0], -r5
    1ddc:	00008ed8 	ldrdeq	r8, [r0], -r8	; <UNPREDICTABLE>
    1de0:	0000074b 	andeq	r0, r0, fp, asr #14
    1de4:	02af1e00 	adceq	r1, pc, #0, 28
    1de8:	14010000 	strne	r0, [r1], #-0
    1dec:	000001a4 	andeq	r0, r0, r4, lsr #3
    1df0:	a5a40305 	strge	r0, [r4, #773]!	; 0x305
    1df4:	e8200000 	stmda	r0!, {}	; <UNPREDICTABLE>
    1df8:	01000003 	tsteq	r0, r3
    1dfc:	000068f0 	strdeq	r6, [r0], -r0
    1e00:	03f62000 	mvnseq	r2, #0
    1e04:	f0010000 			; <UNDEFINED> instruction: 0xf0010000
    1e08:	00000068 	andeq	r0, r0, r8, rrx
    1e0c:	00042c20 	andeq	r2, r4, r0, lsr #24
    1e10:	68f30100 	ldmvs	r3!, {r8}^
    1e14:	20000000 	andcs	r0, r0, r0
    1e18:	00000454 	andeq	r0, r0, r4, asr r4
    1e1c:	0068f301 	rsbeq	pc, r8, r1, lsl #6
    1e20:	962a0000 	strtls	r0, [sl], -r0
    1e24:	03000001 	movweq	r0, #1
    1e28:	0001fb94 	muleq	r1, r4, fp
    1e2c:	02492b00 	subeq	r2, r9, #0, 22
    1e30:	96030000 	strls	r0, [r3], -r0
    1e34:	000001fb 	strdeq	r0, [r0], -fp
    1e38:	00000d04 	andeq	r0, r0, r4, lsl #26
    1e3c:	0001fb2c 	andeq	pc, r1, ip, lsr #22
    1e40:	f92b0000 			; <UNDEFINED> instruction: 0xf92b0000
    1e44:	04000004 	streq	r0, [r0], #-4
    1e48:	00002529 	andeq	r2, r0, r9, lsr #10
    1e4c:	000d1a00 	andeq	r1, sp, r0, lsl #20
    1e50:	00912c00 	addseq	r2, r1, r0, lsl #24
    1e54:	002d0000 	eoreq	r0, sp, r0
    1e58:	00021e2e 	andeq	r1, r2, lr, lsr #28
    1e5c:	2e1e0400 	cfmulscs	mvf0, mvf14, mvf0
    1e60:	00000255 	andeq	r0, r0, r5, asr r2
    1e64:	aa2a6504 	bge	a9b27c <__bss_end__+0xa908c4>
    1e68:	03000002 	movweq	r0, #2
    1e6c:	0001a4a7 	andeq	sl, r1, r7, lsr #9
    1e70:	043b2f00 	ldrteq	r2, [fp], #-3840	; 0xf00
    1e74:	c7010000 	strgt	r0, [r1, -r0]
    1e78:	00000d45 	andeq	r0, r0, r5, asr #26
    1e7c:	0005a12c 	andeq	sl, r5, ip, lsr #2
    1e80:	2f002d00 	svccs	0x00002d00
    1e84:	00000237 	andeq	r0, r0, r7, lsr r2
    1e88:	0d651205 	sfmeq	f1, 2, [r5, #-20]!	; 0xffffffec
    1e8c:	882c0000 	stmdahi	ip!, {}	; <UNPREDICTABLE>
    1e90:	2c000000 	stccs	0, cr0, [r0], {-0}
    1e94:	00000091 	muleq	r0, r1, r0
    1e98:	0000912c 	andeq	r9, r0, ip, lsr #2
    1e9c:	002c2c00 	eoreq	r2, ip, r0, lsl #24
    1ea0:	2a000000 	bcs	1ea8 <_start-0x6158>
    1ea4:	00000202 	andeq	r0, r0, r2, lsl #4
    1ea8:	00251e05 	eoreq	r1, r5, r5, lsl #28
    1eac:	12000000 	andne	r0, r0, #0
    1eb0:	04000001 	streq	r0, [r0], #-1
    1eb4:	00069f00 	andeq	r9, r6, r0, lsl #30
    1eb8:	5f010400 	svcpl	0x00010400
    1ebc:	01000000 	mrseq	r0, (UNDEF: 0)
    1ec0:	00000479 	andeq	r0, r0, r9, ror r4
    1ec4:	00000485 	andeq	r0, r0, r5, lsl #9
    1ec8:	00008ee4 	andeq	r8, r0, r4, ror #29
    1ecc:	000000f0 	strdeq	r0, [r0], -r0	; <UNPREDICTABLE>
    1ed0:	0000066a 	andeq	r0, r0, sl, ror #12
    1ed4:	69050402 	stmdbvs	r5, {r1, sl}
    1ed8:	0300746e 	movweq	r7, #1134	; 0x46e
    1edc:	01340704 	teqeq	r4, r4, lsl #14
    1ee0:	01030000 	mrseq	r0, (UNDEF: 3)
    1ee4:	0000e206 	andeq	lr, r0, r6, lsl #4
    1ee8:	05020300 	streq	r0, [r2, #-768]	; 0x300
    1eec:	00000158 	andeq	r0, r0, r8, asr r1
    1ef0:	4f050403 	svcmi	0x00050403
    1ef4:	03000001 	movweq	r0, #1
    1ef8:	014a0508 	cmpeq	sl, r8, lsl #10
    1efc:	41040000 	mrsmi	r0, (UNDEF: 4)
    1f00:	02000003 	andeq	r0, r0, #3
    1f04:	00005a2e 	andeq	r5, r0, lr, lsr #20
    1f08:	08010300 	stmdaeq	r1, {r8, r9}
    1f0c:	000000e0 	andeq	r0, r0, r0, ror #1
    1f10:	ee070203 	cdp	2, 0, cr0, cr7, cr3, {0}
    1f14:	04000000 	streq	r0, [r0], #-0
    1f18:	00000162 	andeq	r0, r0, r2, ror #2
    1f1c:	00733402 	rsbseq	r3, r3, r2, lsl #8
    1f20:	04030000 	streq	r0, [r3], #-0
    1f24:	00012f07 	andeq	r2, r1, r7, lsl #30
    1f28:	07080300 	streq	r0, [r8, -r0, lsl #6]
    1f2c:	0000012a 	andeq	r0, r0, sl, lsr #2
    1f30:	41070403 	tstmi	r7, r3, lsl #8
    1f34:	03000001 	movweq	r0, #1
    1f38:	00e90801 	rsceq	r0, r9, r1, lsl #16
    1f3c:	04050000 	streq	r0, [r5], #-0
    1f40:	00000095 	muleq	r0, r5, r0
    1f44:	00008806 	andeq	r8, r0, r6, lsl #16
    1f48:	01b10700 			; <UNDEFINED> instruction: 0x01b10700
    1f4c:	0f010000 	svceq	0x00010000
    1f50:	00000068 	andeq	r0, r0, r8, rrx
    1f54:	00008ee4 	andeq	r8, r0, r4, ror #29
    1f58:	000000f0 	strdeq	r0, [r0], -r0	; <UNPREDICTABLE>
    1f5c:	010e9c01 	tsteq	lr, r1, lsl #24
    1f60:	43080000 	movwmi	r0, #32768	; 0x8000
    1f64:	01000002 	tsteq	r0, r2
    1f68:	00010e0f 	andeq	r0, r1, pc, lsl #28
    1f6c:	000aef00 	andeq	lr, sl, r0, lsl #30
    1f70:	656c0900 	strbvs	r0, [ip, #-2304]!	; 0x900
    1f74:	0f01006e 	svceq	0x0001006e
    1f78:	00000025 	andeq	r0, r0, r5, lsr #32
    1f7c:	00000b29 	andeq	r0, r0, r9, lsr #22
    1f80:	0002440a 	andeq	r4, r2, sl, lsl #8
    1f84:	8f100100 	svchi	0x00100100
    1f88:	68000000 	stmdavs	r0, {}	; <UNPREDICTABLE>
    1f8c:	0a00000b 	beq	1fc0 <_start-0x6040>
    1f90:	000001b6 			; <UNDEFINED> instruction: 0x000001b6
    1f94:	00681101 	rsbeq	r1, r8, r1, lsl #2
    1f98:	0ba70000 	bleq	fe9c1fa0 <__bss_end__+0xfe9b75e8>
    1f9c:	740b0000 	strvc	r0, [fp], #-0
    1fa0:	0100706d 	tsteq	r0, sp, rrx
    1fa4:	00006811 	andeq	r6, r0, r1, lsl r8
    1fa8:	000bf100 	andeq	pc, fp, r0, lsl #2
    1fac:	65720b00 	ldrbvs	r0, [r2, #-2816]!	; 0xb00
    1fb0:	1201006d 	andne	r0, r1, #109	; 0x6d
    1fb4:	00000025 	andeq	r0, r0, r5, lsr #32
    1fb8:	00000c3c 	andeq	r0, r0, ip, lsr ip
    1fbc:	14040500 	strne	r0, [r4], #-1280	; 0x500
    1fc0:	0c000001 	stceq	0, cr0, [r0], {1}
    1fc4:	0000db00 	andeq	sp, r0, r0, lsl #22
    1fc8:	43000400 	movwmi	r0, #1024	; 0x400
    1fcc:	04000007 	streq	r0, [r0], #-7
    1fd0:	00005f01 	andeq	r5, r0, r1, lsl #30
    1fd4:	04cb0100 	strbeq	r0, [fp], #256	; 0x100
    1fd8:	04850000 	streq	r0, [r5], #0
    1fdc:	8fd40000 	svchi	0x00d40000
    1fe0:	00200000 	eoreq	r0, r0, r0
    1fe4:	074c0000 	strbeq	r0, [ip, -r0]
    1fe8:	01020000 	mrseq	r0, (UNDEF: 2)
    1fec:	0000e206 	andeq	lr, r0, r6, lsl #4
    1ff0:	08010200 	stmdaeq	r1, {r9}
    1ff4:	000000e0 	andeq	r0, r0, r0, ror #1
    1ff8:	58050202 	stmdapl	r5, {r1, r9}
    1ffc:	02000001 	andeq	r0, r0, #1
    2000:	00ee0702 	rsceq	r0, lr, r2, lsl #14
    2004:	04030000 	streq	r0, [r3], #-0
    2008:	746e6905 	strbtvc	r6, [lr], #-2309	; 0x905
    200c:	07040200 	streq	r0, [r4, -r0, lsl #4]
    2010:	00000134 	andeq	r0, r0, r4, lsr r1
    2014:	4a050802 	bmi	144024 <__bss_end__+0x13966c>
    2018:	02000001 	andeq	r0, r0, #1
    201c:	012a0708 	teqeq	sl, r8, lsl #14
    2020:	04020000 	streq	r0, [r2], #-0
    2024:	00014f05 	andeq	r4, r1, r5, lsl #30
    2028:	07040200 	streq	r0, [r4, -r0, lsl #4]
    202c:	00000141 	andeq	r0, r0, r1, asr #2
    2030:	04020404 	streq	r0, [r2], #-1028	; 0x404
    2034:	00012f07 	andeq	r2, r1, r7, lsl #30
    2038:	7a040500 	bvc	103440 <__bss_end__+0xf8a88>
    203c:	02000000 	andeq	r0, r0, #0
    2040:	00e90801 	rsceq	r0, r9, r1, lsl #16
    2044:	00060000 	andeq	r0, r6, r0
    2048:	02000000 	andeq	r0, r0, #0
    204c:	000048d4 	ldrdeq	r4, [r0], -r4	; <UNPREDICTABLE>
    2050:	01090700 	tsteq	r9, r0, lsl #14
    2054:	1b030000 	blne	c205c <__bss_end__+0xb76a4>
    2058:	0000006b 	andeq	r0, r0, fp, rrx
    205c:	00008fd4 	ldrdeq	r8, [r0], -r4
    2060:	00000020 	andeq	r0, r0, r0, lsr #32
    2064:	5f089c01 	svcpl	0x00089c01
    2068:	03010070 	movweq	r0, #4208	; 0x1070
    206c:	0000006b 	andeq	r0, r0, fp, rrx
    2070:	63085001 	movwvs	r5, #32769	; 0x8001
    2074:	41030100 	mrsmi	r0, (UNDEF: 19)
    2078:	01000000 	mrseq	r0, (UNDEF: 0)
    207c:	006e0951 	rsbeq	r0, lr, r1, asr r9
    2080:	00810301 	addeq	r0, r1, r1, lsl #6
    2084:	0c4f0000 	mareq	acc0, r0, pc
    2088:	700a0000 	andvc	r0, sl, r0
    208c:	74040100 	strvc	r0, [r4], #-256	; 0x100
    2090:	70000000 	andvc	r0, r0, r0
    2094:	0b00000c 	bleq	20cc <_start-0x5f34>
    2098:	04010065 	streq	r0, [r1], #-101	; 0x65
    209c:	00000074 	andeq	r0, r0, r4, ror r0
    20a0:	00005201 	andeq	r5, r0, r1, lsl #4
    20a4:	00000191 	muleq	r0, r1, r1
    20a8:	07e00004 	strbeq	r0, [r0, r4]!
    20ac:	01040000 	mrseq	r0, (UNDEF: 4)
    20b0:	0000005f 	andeq	r0, r0, pc, asr r0
    20b4:	0004e801 	andeq	lr, r4, r1, lsl #16
    20b8:	00048500 	andeq	r8, r4, r0, lsl #10
    20bc:	008ff400 	addeq	pc, pc, r0, lsl #8
    20c0:	00005800 	andeq	r5, r0, r0, lsl #16
    20c4:	00083c00 	andeq	r3, r8, r0, lsl #24
    20c8:	04d90200 	ldrbeq	r0, [r9], #512	; 0x200
    20cc:	28020000 	stmdacs	r2, {}	; <UNPREDICTABLE>
    20d0:	00000030 	andeq	r0, r0, r0, lsr r0
    20d4:	00050003 	andeq	r0, r5, r3
    20d8:	00030400 	andeq	r0, r3, r0, lsl #8
    20dc:	00000047 	andeq	r0, r0, r7, asr #32
    20e0:	00050a04 	andeq	r0, r5, r4, lsl #20
    20e4:	00004700 	andeq	r4, r0, r0, lsl #14
    20e8:	05000000 	streq	r0, [r0, #-0]
    20ec:	05020204 	streq	r0, [r2, #-516]	; 0x204
    20f0:	62020000 	andvs	r0, r2, #0
    20f4:	00000025 	andeq	r0, r0, r5, lsr #32
    20f8:	69050406 	stmdbvs	r5, {r1, r2, sl}
    20fc:	0700746e 	streq	r7, [r0, -lr, ror #8]
    2100:	01340704 	teqeq	r4, r4, lsl #14
    2104:	01070000 	mrseq	r0, (UNDEF: 7)
    2108:	0000e206 	andeq	lr, r0, r6, lsl #4
    210c:	05020700 	streq	r0, [r2, #-1792]	; 0x700
    2110:	00000158 	andeq	r0, r0, r8, asr r1
    2114:	4f050407 	svcmi	0x00050407
    2118:	07000001 	streq	r0, [r0, -r1]
    211c:	014a0508 	cmpeq	sl, r8, lsl #10
    2120:	01070000 	mrseq	r0, (UNDEF: 7)
    2124:	0000e008 	andeq	lr, r0, r8
    2128:	07020700 	streq	r0, [r2, -r0, lsl #14]
    212c:	000000ee 	andeq	r0, r0, lr, ror #1
    2130:	2f070407 	svccs	0x00070407
    2134:	07000001 	streq	r0, [r0, -r1]
    2138:	012a0708 	teqeq	sl, r8, lsl #14
    213c:	04070000 	streq	r0, [r7], #-0
    2140:	00014107 	andeq	r4, r1, r7, lsl #2
    2144:	a7040800 	strge	r0, [r4, -r0, lsl #16]
    2148:	07000000 	streq	r0, [r0, -r0]
    214c:	00e90801 	rsceq	r0, r9, r1, lsl #16
    2150:	04080000 	streq	r0, [r8], #-0
    2154:	000000b4 	strheq	r0, [r0], -r4
    2158:	0000a709 	andeq	sl, r0, r9, lsl #14
    215c:	04f90a00 	ldrbteq	r0, [r9], #2560	; 0xa00
    2160:	06010000 	streq	r0, [r1], -r0
    2164:	00000054 	andeq	r0, r0, r4, asr r0
    2168:	00008ff4 	strdeq	r8, [r0], -r4
    216c:	00000058 	andeq	r0, r0, r8, asr r0
    2170:	01439c01 	cmpeq	r3, r1, lsl #24
    2174:	660b0000 	strvs	r0, [fp], -r0
    2178:	0100746d 	tsteq	r0, sp, ror #8
    217c:	0000ae06 	andeq	sl, r0, r6, lsl #28
    2180:	70910200 	addsvc	r0, r1, r0, lsl #4
    2184:	75620d0c 	strbvc	r0, [r2, #-3340]!	; 0xd0c
    2188:	08010066 	stmdaeq	r1, {r1, r2, r5, r6}
    218c:	00000143 	andeq	r0, r0, r3, asr #2
    2190:	a5b40305 	ldrge	r0, [r4, #773]!	; 0x305
    2194:	b10e0000 	mrslt	r0, (UNDEF: 14)
    2198:	01000007 	tsteq	r0, r7
    219c:	00004909 	andeq	r4, r0, r9, lsl #18
    21a0:	5c910200 	lfmpl	f0, 4, [r1], {0}
    21a4:	007a730f 	rsbseq	r7, sl, pc, lsl #6
    21a8:	00540c01 	subseq	r0, r4, r1, lsl #24
    21ac:	0c9b0000 	ldceq	0, cr0, [fp], {0}
    21b0:	1c100000 	ldcne	0, cr0, [r0], {-0}
    21b4:	74000090 	strvc	r0, [r0], #-144	; 0x90
    21b8:	36000001 	strcc	r0, [r0], -r1
    21bc:	11000001 	tstne	r0, r1
    21c0:	91025301 	tstls	r2, r1, lsl #6
    21c4:	5201114c 	andpl	r1, r1, #76, 2
    21c8:	06489103 	strbeq	r9, [r8], -r3, lsl #2
    21cc:	03510111 	cmpeq	r1, #1073741828	; 0x40000004
    21d0:	1104000a 	tstne	r4, sl
    21d4:	74025001 	strvc	r5, [r2], #-1
    21d8:	30120000 	andscc	r0, r2, r0
    21dc:	11000090 	swpne	r0, r0, [r0]	; <UNPREDICTABLE>
    21e0:	74025001 	strvc	r5, [r2], #-1
    21e4:	13000000 	movwne	r0, #0
    21e8:	000000a7 	andeq	r0, r0, r7, lsr #1
    21ec:	00000154 	andeq	r0, r0, r4, asr r1
    21f0:	00009a14 	andeq	r9, r0, r4, lsl sl
    21f4:	0003ff00 	andeq	pc, r3, r0, lsl #30
    21f8:	00005415 	andeq	r5, r0, r5, lsl r4
    21fc:	00016300 	andeq	r6, r1, r0, lsl #6
    2200:	00ae1600 	adceq	r1, lr, r0, lsl #12
    2204:	17000000 	strne	r0, [r0, -r0]
    2208:	00000567 	andeq	r0, r0, r7, ror #10
    220c:	016e2204 	cmneq	lr, r4, lsl #4
    2210:	04080000 	streq	r0, [r8], #-0
    2214:	00000154 	andeq	r0, r0, r4, asr r1
    2218:	0004f618 	andeq	pc, r4, r8, lsl r6	; <UNPREDICTABLE>
    221c:	54020500 	strpl	r0, [r2], #-1280	; 0x500
    2220:	16000000 	strne	r0, [r0], -r0
    2224:	000000a1 	andeq	r0, r0, r1, lsr #1
    2228:	00005416 	andeq	r5, r0, r6, lsl r4
    222c:	00ae1600 	adceq	r1, lr, r0, lsl #12
    2230:	49160000 	ldmdbmi	r6, {}	; <UNPREDICTABLE>
    2234:	00000000 	andeq	r0, r0, r0
    2238:	00011300 	andeq	r1, r1, r0, lsl #6
    223c:	11000400 	tstne	r0, r0, lsl #8
    2240:	04000009 	streq	r0, [r0], #-9
    2244:	00005f01 	andeq	r5, r0, r1, lsl #30
    2248:	05360100 	ldreq	r0, [r6, #-256]!	; 0x100
    224c:	04850000 	streq	r0, [r5], #0
    2250:	904c0000 	subls	r0, ip, r0
    2254:	003c0000 	eorseq	r0, ip, r0
    2258:	094c0000 	stmdbeq	ip, {}^	; <UNPREDICTABLE>
    225c:	04020000 	streq	r0, [r2], #-0
    2260:	746e6905 	strbtvc	r6, [lr], #-2309	; 0x905
    2264:	07040300 	streq	r0, [r4, -r0, lsl #6]
    2268:	00000134 	andeq	r0, r0, r4, lsr r1
    226c:	e2060103 	and	r0, r6, #-1073741824	; 0xc0000000
    2270:	03000000 	movweq	r0, #0
    2274:	01580502 	cmpeq	r8, r2, lsl #10
    2278:	04030000 	streq	r0, [r3], #-0
    227c:	00014f05 	andeq	r4, r1, r5, lsl #30
    2280:	05080300 	streq	r0, [r8, #-768]	; 0x300
    2284:	0000014a 	andeq	r0, r0, sl, asr #2
    2288:	e0080103 	and	r0, r8, r3, lsl #2
    228c:	03000000 	movweq	r0, #0
    2290:	00ee0702 	rsceq	r0, lr, r2, lsl #14
    2294:	04030000 	streq	r0, [r3], #-0
    2298:	00012f07 	andeq	r2, r1, r7, lsl #30
    229c:	07080300 	streq	r0, [r8, -r0, lsl #6]
    22a0:	0000012a 	andeq	r0, r0, sl, lsr #2
    22a4:	41070403 	tstmi	r7, r3, lsl #8
    22a8:	03000001 	movweq	r0, #1
    22ac:	00e90801 	rsceq	r0, r9, r1, lsl #16
    22b0:	19040000 	stmdbne	r4, {}	; <UNPREDICTABLE>
    22b4:	01000005 	tsteq	r0, r5
    22b8:	00002503 	andeq	r2, r0, r3, lsl #10
    22bc:	00904c00 	addseq	r4, r0, r0, lsl #24
    22c0:	00001400 	andeq	r1, r0, r0, lsl #8
    22c4:	b09c0100 	addslt	r0, ip, r0, lsl #2
    22c8:	05000000 	streq	r0, [r0, #-0]
    22cc:	03010063 	movweq	r0, #4195	; 0x1063
    22d0:	00000025 	andeq	r0, r0, r5, lsr #32
    22d4:	00000cc4 	andeq	r0, r0, r4, asr #25
    22d8:	00905806 	addseq	r5, r0, r6, lsl #16
    22dc:	00010900 	andeq	r0, r1, r0, lsl #18
    22e0:	50010700 	andpl	r0, r1, r0, lsl #14
    22e4:	00007402 	andeq	r7, r0, r2, lsl #8
    22e8:	021e0800 	andseq	r0, lr, #0, 16
    22ec:	08010000 	stmdaeq	r1, {}	; <UNPREDICTABLE>
    22f0:	00009060 	andeq	r9, r0, r0, rrx
    22f4:	00000018 	andeq	r0, r0, r8, lsl r0
    22f8:	45099c01 	strmi	r9, [r9, #-3073]	; 0xc01
    22fc:	01000005 	tsteq	r0, r5
    2300:	0090780b 	addseq	r7, r0, fp, lsl #16
    2304:	00001000 	andeq	r1, r0, r0
    2308:	e39c0100 	orrs	r0, ip, #0, 2
    230c:	0a000000 	beq	2314 <_start-0x5cec>
    2310:	01007066 	tsteq	r0, r6, rrx
    2314:	0000f20b 	andeq	pc, r0, fp, lsl #4
    2318:	00500100 	subseq	r0, r0, r0, lsl #2
    231c:	0000250b 	andeq	r2, r0, fp, lsl #10
    2320:	0000f200 	andeq	pc, r0, r0, lsl #4
    2324:	00250c00 	eoreq	r0, r5, r0, lsl #24
    2328:	0d000000 	stceq	0, cr0, [r0, #-0]
    232c:	0000e304 	andeq	lr, r0, r4, lsl #6
    2330:	052a0e00 	streq	r0, [sl, #-3584]!	; 0xe00
    2334:	06010000 	streq	r0, [r1], -r0
    2338:	000000f2 	strdeq	r0, [r0], -r2
    233c:	9bb00305 	blls	fec02f58 <__bss_end__+0xfebf85a0>
    2340:	0f0f0000 	svceq	0x000f0000
    2344:	02000005 	andeq	r0, r0, #5
    2348:	002c0c3c 	eoreq	r0, ip, ip, lsr ip
    234c:	00000000 	andeq	r0, r0, r0
    2350:	000000ee 	andeq	r0, r0, lr, ror #1
    2354:	09f90004 	ldmibeq	r9!, {r2}^
    2358:	01040000 	mrseq	r0, (UNDEF: 4)
    235c:	0000005f 	andeq	r0, r0, pc, asr r0
    2360:	00055201 	andeq	r5, r5, r1, lsl #4
    2364:	00048500 	andeq	r8, r4, r0, lsl #10
    2368:	00908800 	addseq	r8, r0, r0, lsl #16
    236c:	00003400 	andeq	r3, r0, r0, lsl #8
    2370:	0009e400 	andeq	lr, r9, r0, lsl #8
    2374:	05040200 	streq	r0, [r4, #-512]	; 0x200
    2378:	00746e69 	rsbseq	r6, r4, r9, ror #28
    237c:	34070403 	strcc	r0, [r7], #-1027	; 0x403
    2380:	03000001 	movweq	r0, #1
    2384:	00e20601 	rsceq	r0, r2, r1, lsl #12
    2388:	02030000 	andeq	r0, r3, #0
    238c:	00015805 	andeq	r5, r1, r5, lsl #16
    2390:	05040300 	streq	r0, [r4, #-768]	; 0x300
    2394:	0000014f 	andeq	r0, r0, pc, asr #2
    2398:	4a050803 	bmi	1443ac <__bss_end__+0x1399f4>
    239c:	03000001 	movweq	r0, #1
    23a0:	00e00801 	rsceq	r0, r0, r1, lsl #16
    23a4:	02030000 	andeq	r0, r3, #0
    23a8:	0000ee07 	andeq	lr, r0, r7, lsl #28
    23ac:	07040300 	streq	r0, [r4, -r0, lsl #6]
    23b0:	0000012f 	andeq	r0, r0, pc, lsr #2
    23b4:	2a070803 	bcs	1c43c8 <__bss_end__+0x1b9a10>
    23b8:	03000001 	movweq	r0, #1
    23bc:	01410704 	cmpeq	r1, r4, lsl #14
    23c0:	01030000 	mrseq	r0, (UNDEF: 3)
    23c4:	0000e908 	andeq	lr, r0, r8, lsl #18
    23c8:	7f040400 	svcvc	0x00040400
    23cc:	05000000 	streq	r0, [r0, #-0]
    23d0:	00000072 	andeq	r0, r0, r2, ror r0
    23d4:	00055e06 	andeq	r5, r5, r6, lsl #28
    23d8:	25040100 	strcs	r0, [r4, #-256]	; 0x100
    23dc:	88000000 	stmdahi	r0, {}	; <UNPREDICTABLE>
    23e0:	34000090 	strcc	r0, [r0], #-144	; 0x90
    23e4:	01000000 	mrseq	r0, (UNDEF: 0)
    23e8:	0000ab9c 	muleq	r0, ip, fp
    23ec:	00700700 	rsbseq	r0, r0, r0, lsl #14
    23f0:	00790401 	rsbseq	r0, r9, r1, lsl #8
    23f4:	0ce20000 	stcleq	0, cr0, [r2]
    23f8:	08000000 	stmdaeq	r0, {}	; <UNPREDICTABLE>
    23fc:	00000025 	andeq	r0, r0, r5, lsr #32
    2400:	000000ba 	strheq	r0, [r0], -sl
    2404:	00002509 	andeq	r2, r0, r9, lsl #10
    2408:	2a0a0000 	bcs	282410 <__bss_end__+0x277a58>
    240c:	02000005 	andeq	r0, r0, #5
    2410:	0000c51d 	andeq	ip, r0, sp, lsl r5
    2414:	ab040400 	blge	10341c <__bss_end__+0xf8a64>
    2418:	08000000 	stmdaeq	r0, {}	; <UNPREDICTABLE>
    241c:	00000025 	andeq	r0, r0, r5, lsr #32
    2420:	000000da 	ldrdeq	r0, [r0], -sl
    2424:	00007909 	andeq	r7, r0, r9, lsl #18
    2428:	670b0000 	strvs	r0, [fp, -r0]
    242c:	01000005 	tsteq	r0, r5
    2430:	0000eb0c 	andeq	lr, r0, ip, lsl #22
    2434:	b4030500 	strlt	r0, [r3], #-1280	; 0x500
    2438:	0400009b 	streq	r0, [r0], #-155	; 0x9b
    243c:	0000cb04 	andeq	ip, r0, r4, lsl #22
    2440:	06810000 	streq	r0, [r1], r0
    2444:	00040000 	andeq	r0, r4, r0
    2448:	00000a92 	muleq	r0, r2, sl
    244c:	005f0104 	subseq	r0, pc, r4, lsl #2
    2450:	93010000 	movwls	r0, #4096	; 0x1000
    2454:	85000005 	strhi	r0, [r0, #-5]
    2458:	bc000004 	stclt	0, cr0, [r0], {4}
    245c:	0c000090 	stceq	0, cr0, [r0], {144}	; 0x90
    2460:	88000005 	stmdahi	r0, {r0, r2}
    2464:	0200000a 	andeq	r0, r0, #10
    2468:	6e690504 	cdpvs	5, 6, cr0, cr9, cr4, {0}
    246c:	04030074 	streq	r0, [r3], #-116	; 0x74
    2470:	00013407 	andeq	r3, r1, r7, lsl #8
    2474:	06010300 	streq	r0, [r1], -r0, lsl #6
    2478:	000000e2 	andeq	r0, r0, r2, ror #1
    247c:	58050203 	stmdapl	r5, {r0, r1, r9}
    2480:	03000001 	movweq	r0, #1
    2484:	014f0504 	cmpeq	pc, r4, lsl #10
    2488:	08030000 	stmdaeq	r3, {}	; <UNPREDICTABLE>
    248c:	00014a05 	andeq	r4, r1, r5, lsl #20
    2490:	08010300 	stmdaeq	r1, {r8, r9}
    2494:	000000e0 	andeq	r0, r0, r0, ror #1
    2498:	ee070203 	cdp	2, 0, cr0, cr7, cr3, {0}
    249c:	03000000 	movweq	r0, #0
    24a0:	012f0704 	teqeq	pc, r4, lsl #14
    24a4:	08030000 	stmdaeq	r3, {}	; <UNPREDICTABLE>
    24a8:	00012a07 	andeq	r2, r1, r7, lsl #20
    24ac:	07040300 	streq	r0, [r4, -r0, lsl #6]
    24b0:	00000141 	andeq	r0, r0, r1, asr #2
    24b4:	04050404 	streq	r0, [r5], #-1028	; 0x404
    24b8:	0000007a 	andeq	r0, r0, sl, ror r0
    24bc:	e9080103 	stmdb	r8, {r0, r1, r8}
    24c0:	05000000 	streq	r0, [r0, #-0]
    24c4:	00008704 	andeq	r8, r0, r4, lsl #14
    24c8:	007a0600 	rsbseq	r0, sl, r0, lsl #12
    24cc:	d9070000 	stmdble	r7, {}	; <UNPREDICTABLE>
    24d0:	02000004 	andeq	r0, r0, #4
    24d4:	00009728 	andeq	r9, r0, r8, lsr #14
    24d8:	05000800 	streq	r0, [r0, #-2048]	; 0x800
    24dc:	04040000 	streq	r0, [r4], #-0
    24e0:	0000ae00 	andeq	sl, r0, r0, lsl #28
    24e4:	050a0900 	streq	r0, [sl, #-2304]	; 0x900
    24e8:	00720000 	rsbseq	r0, r2, r0
    24ec:	00000000 	andeq	r0, r0, r0
    24f0:	00050207 	andeq	r0, r5, r7, lsl #4
    24f4:	8c620200 	sfmhi	f0, 2, [r2], #-0
    24f8:	0a000000 	beq	2500 <_start-0x5b00>
    24fc:	0000057a 	andeq	r0, r0, sl, ror r5
    2500:	00252701 	eoreq	r2, r5, r1, lsl #14
    2504:	90bc0000 	adcsls	r0, ip, r0
    2508:	00140000 	andseq	r0, r4, r0
    250c:	9c010000 	stcls	0, cr0, [r1], {-0}
    2510:	000000e0 	andeq	r0, r0, r0, ror #1
    2514:	0100630b 	tsteq	r0, fp, lsl #6
    2518:	00002527 	andeq	r2, r0, r7, lsr #10
    251c:	000d0000 	andeq	r0, sp, r0
    2520:	700c0000 	andvc	r0, ip, r0
    2524:	01006461 	tsteq	r0, r1, ror #8
    2528:	0000742e 	andeq	r7, r0, lr, lsr #8
    252c:	0090d000 	addseq	sp, r0, r0
    2530:	00002c00 	andeq	r2, r0, r0, lsl #24
    2534:	309c0100 	addscc	r0, ip, r0, lsl #2
    2538:	0b000001 	bleq	2544 <_start-0x5abc>
    253c:	2e010070 	mcrcs	0, 0, r0, cr1, cr0, {3}
    2540:	00000074 	andeq	r0, r0, r4, ror r0
    2544:	00000d2e 	andeq	r0, r0, lr, lsr #26
    2548:	00078f0d 	andeq	r8, r7, sp, lsl #30
    254c:	742e0100 	strtvc	r0, [lr], #-256	; 0x100
    2550:	59000000 	stmdbpl	r0, {}	; <UNPREDICTABLE>
    2554:	0e00000d 	cdpeq	0, 0, cr0, cr0, cr13, {0}
    2558:	000005b3 			; <UNDEFINED> instruction: 0x000005b3
    255c:	00252e01 	eoreq	r2, r5, r1, lsl #28
    2560:	52010000 	andpl	r0, r1, #0
    2564:	6e656c0f 	cdpvs	12, 6, cr6, cr5, cr15, {0}
    2568:	252f0100 	strcs	r0, [pc, #-256]!	; 2470 <_start-0x5b90>
    256c:	01000000 	mrseq	r0, (UNDEF: 0)
    2570:	720a0051 	andvc	r0, sl, #81	; 0x51
    2574:	01000005 	tsteq	r0, r5
    2578:	00007437 	andeq	r7, r0, r7, lsr r4
    257c:	0090fc00 	addseq	pc, r0, r0, lsl #24
    2580:	00004000 	andeq	r4, r0, r0
    2584:	9c9c0100 	ldflss	f0, [ip], {0}
    2588:	0b000001 	bleq	2594 <_start-0x5a6c>
    258c:	00747364 	rsbseq	r7, r4, r4, ror #6
    2590:	00743701 	rsbseq	r3, r4, r1, lsl #14
    2594:	0d7a0000 	ldcleq	0, cr0, [sl, #-0]
    2598:	6e0b0000 	cdpvs	0, 0, cr0, cr11, cr0, {0}
    259c:	25370100 	ldrcs	r0, [r7, #-256]!	; 0x100
    25a0:	b2000000 	andlt	r0, r0, #0
    25a4:	0b00000d 	bleq	25e0 <_start-0x5a20>
    25a8:	37010070 	smlsdxcc	r1, r0, r0, r0
    25ac:	00000074 	andeq	r0, r0, r4, ror r0
    25b0:	00000dd3 	ldrdeq	r0, [r0], -r3
    25b4:	000d4a0d 	andeq	r4, sp, sp, lsl #20
    25b8:	74370100 	ldrtvc	r0, [r7], #-256	; 0x100
    25bc:	09000000 	stmdbeq	r0, {}	; <UNPREDICTABLE>
    25c0:	1000000e 	andne	r0, r0, lr
    25c4:	006e656c 	rsbeq	r6, lr, ip, ror #10
    25c8:	00253901 	eoreq	r3, r5, r1, lsl #18
    25cc:	0e270000 	cdpeq	0, 2, cr0, cr7, cr0, {0}
    25d0:	730f0000 	movwvc	r0, #61440	; 0xf000
    25d4:	743d0100 	ldrtvc	r0, [sp], #-256	; 0x100
    25d8:	01000000 	mrseq	r0, (UNDEF: 0)
    25dc:	c10a0050 	qaddgt	r0, r0, sl
    25e0:	01000005 	tsteq	r0, r5
    25e4:	00007447 	andeq	r7, r0, r7, asr #8
    25e8:	00913c00 	addseq	r3, r1, r0, lsl #24
    25ec:	0001b000 	andeq	fp, r1, r0
    25f0:	d39c0100 	orrsle	r0, ip, #0, 2
    25f4:	0d000002 	stceq	0, cr0, [r0, #-8]
    25f8:	0000078f 	andeq	r0, r0, pc, lsl #15
    25fc:	002c4701 	eoreq	r4, ip, r1, lsl #14
    2600:	0e4e0000 	cdpeq	0, 4, cr0, cr14, cr0, {0}
    2604:	640b0000 	strvs	r0, [fp], #-0
    2608:	01007473 	tsteq	r0, r3, ror r4
    260c:	00007447 	andeq	r7, r0, r7, asr #8
    2610:	000e7c00 	andeq	r7, lr, r0, lsl #24
    2614:	006e0b00 	rsbeq	r0, lr, r0, lsl #22
    2618:	00254701 	eoreq	r4, r5, r1, lsl #14
    261c:	0eea0000 	cdpeq	0, 14, cr0, cr10, cr0, {0}
    2620:	760b0000 	strvc	r0, [fp], -r0
    2624:	01006c61 	tsteq	r0, r1, ror #24
    2628:	00002547 	andeq	r2, r0, r7, asr #10
    262c:	000f1600 	andeq	r1, pc, r0, lsl #12
    2630:	05b30d00 	ldreq	r0, [r3, #3328]!	; 0xd00
    2634:	47010000 	strmi	r0, [r1, -r0]
    2638:	00000025 	andeq	r0, r0, r5, lsr #32
    263c:	00000f95 	muleq	r0, r5, pc	; <UNPREDICTABLE>
    2640:	00058a0e 	andeq	r8, r5, lr, lsl #20
    2644:	25470100 	strbcs	r0, [r7, #-256]	; 0x100
    2648:	02000000 	andeq	r0, r0, #0
    264c:	620f0491 	andvs	r0, pc, #-1862270976	; 0x91000000
    2650:	01006675 	tsteq	r0, r5, ror r6
    2654:	0002d34c 	andeq	sp, r2, ip, asr #6
    2658:	a8910300 	ldmge	r1, {r8, r9}
    265c:	0070107f 	rsbseq	r1, r0, pc, ror r0
    2660:	00744c01 	rsbseq	r4, r4, r1, lsl #24
    2664:	0fbf0000 	svceq	0x00bf0000
    2668:	75100000 	ldrvc	r0, [r0, #-0]
    266c:	2c4d0100 	stfcse	f0, [sp], {-0}
    2670:	87000000 	strhi	r0, [r0, -r0]
    2674:	11000010 	tstne	r0, r0, lsl r0
    2678:	00000110 	andeq	r0, r0, r0, lsl r1
    267c:	000002f3 	strdeq	r0, [r0], -r3
    2680:	a3580305 	cmpge	r8, #335544320	; 0x14000000
    2684:	a8120000 	ldmdage	r2, {}	; <UNPREDICTABLE>
    2688:	74000091 	strvc	r0, [r0], #-145	; 0x91
    268c:	61000000 	mrsvs	r0, (UNDEF: 0)
    2690:	13000002 	movwne	r0, #2
    2694:	0000056c 	andeq	r0, r0, ip, ror #10
    2698:	002c5201 	eoreq	r5, ip, r1, lsl #4
    269c:	114a0000 	mrsne	r0, (UNDEF: 74)
    26a0:	14000000 	strne	r0, [r0], #-0
    26a4:	00009294 	muleq	r0, r4, r2
    26a8:	00000660 	andeq	r0, r0, r0, ror #12
    26ac:	0092a815 	addseq	sl, r2, r5, lsl r8
    26b0:	00066700 	andeq	r6, r6, r0, lsl #14
    26b4:	00029900 	andeq	r9, r2, r0, lsl #18
    26b8:	53011600 	movwpl	r1, #5632	; 0x1600
    26bc:	16770802 	ldrbtne	r0, [r7], -r2, lsl #16
    26c0:	03055201 	movweq	r5, #20993	; 0x5201
    26c4:	0000a358 	andeq	sl, r0, r8, asr r3
    26c8:	05510116 	ldrbeq	r0, [r1, #-278]	; 0x116
    26cc:	00a39003 	adceq	r9, r3, r3
    26d0:	50011600 	andpl	r1, r1, r0, lsl #12
    26d4:	a37c0305 	cmnge	ip, #335544320	; 0x14000000
    26d8:	14000000 	strne	r0, [r0], #-0
    26dc:	000092ac 	andeq	r9, r0, ip, lsr #5
    26e0:	0000067d 	andeq	r0, r0, sp, ror r6
    26e4:	0092b415 	addseq	fp, r2, r5, lsl r4
    26e8:	0000e000 	andeq	lr, r0, r0
    26ec:	0002b600 	andeq	fp, r2, r0, lsl #12
    26f0:	51011600 	tstpl	r1, r0, lsl #12
    26f4:	00007d02 	andeq	r7, r0, r2, lsl #26
    26f8:	0092c817 	addseq	ip, r2, r7, lsl r8
    26fc:	00013000 	andeq	r3, r1, r0
    2700:	53011600 	movwpl	r1, #5632	; 0x1600
    2704:	16007d02 	strne	r7, [r0], -r2, lsl #26
    2708:	74025101 	strvc	r5, [r2], #-257	; 0x101
    270c:	50011600 	andpl	r1, r1, r0, lsl #12
    2710:	00007502 	andeq	r7, r0, r2, lsl #10
    2714:	007a1800 	rsbseq	r1, sl, r0, lsl #16
    2718:	02e30000 	rsceq	r0, r3, #0
    271c:	6b190000 	blvs	642724 <__bss_end__+0x637d6c>
    2720:	3f000000 	svccc	0x00000000
    2724:	007a1800 	rsbseq	r1, sl, r0, lsl #16
    2728:	02f30000 	rscseq	r0, r3, #0
    272c:	6b190000 	blvs	642734 <__bss_end__+0x637d7c>
    2730:	04000000 	streq	r0, [r0], #-0
    2734:	02e30600 	rsceq	r0, r3, #0, 12
    2738:	a41a0000 	ldrge	r0, [sl], #-0
    273c:	01000005 	tsteq	r0, r5
    2740:	0092ec1f 	addseq	lr, r2, pc, lsl ip
    2744:	00005400 	andeq	r5, r0, r0, lsl #8
    2748:	7c9c0100 	ldfvcs	f0, [ip], {0}
    274c:	0d000003 	stceq	0, cr0, [r0, #-12]
    2750:	000005b9 			; <UNDEFINED> instruction: 0x000005b9
    2754:	038b1f01 	orreq	r1, fp, #1, 30
    2758:	11760000 	cmnne	r6, r0
    275c:	820d0000 	andhi	r0, sp, #0
    2760:	01000005 	tsteq	r0, r5
    2764:	0003a01f 	andeq	sl, r3, pc, lsl r0
    2768:	0011a200 	andseq	sl, r1, r0, lsl #4
    276c:	01101100 	tsteq	r0, r0, lsl #2
    2770:	03b60000 			; <UNDEFINED> instruction: 0x03b60000
    2774:	03050000 	movweq	r0, #20480	; 0x5000
    2778:	0000a360 	andeq	sl, r0, r0, ror #6
    277c:	0092fc14 	addseq	pc, r2, r4, lsl ip	; <UNPREDICTABLE>
    2780:	00066000 	andeq	r6, r6, r0
    2784:	93101500 	tstls	r0, #0, 10
    2788:	06670000 	strbteq	r0, [r7], -r0
    278c:	03720000 	cmneq	r2, #0
    2790:	01160000 	tsteq	r6, r0
    2794:	20080253 	andcs	r0, r8, r3, asr r2
    2798:	05520116 	ldrbeq	r0, [r2, #-278]	; 0x116
    279c:	00a36003 	adceq	r6, r3, r3
    27a0:	51011600 	tstpl	r1, r0, lsl #12
    27a4:	a3900305 	orrsge	r0, r0, #335544320	; 0x14000000
    27a8:	01160000 	tsteq	r6, r0
    27ac:	c8030550 	stmdagt	r3, {r4, r6, r8, sl}
    27b0:	000000a3 	andeq	r0, r0, r3, lsr #1
    27b4:	00931414 	addseq	r1, r3, r4, lsl r4
    27b8:	00067d00 	andeq	r7, r6, r0, lsl #26
    27bc:	251b0000 	ldrcs	r0, [fp, #-0]
    27c0:	8b000000 	blhi	27c8 <_start-0x5838>
    27c4:	1c000003 	stcne	0, cr0, [r0], {3}
    27c8:	00000025 	andeq	r0, r0, r5, lsr #32
    27cc:	7c040500 	cfstr32vc	mvfx0, [r4], {-0}
    27d0:	1b000003 	blne	27e4 <_start-0x581c>
    27d4:	00000025 	andeq	r0, r0, r5, lsr #32
    27d8:	000003a0 	andeq	r0, r0, r0, lsr #7
    27dc:	0000811c 	andeq	r8, r0, ip, lsl r1
    27e0:	04050000 	streq	r0, [r5], #-0
    27e4:	00000391 	muleq	r0, r1, r3
    27e8:	00007a18 	andeq	r7, r0, r8, lsl sl
    27ec:	0003b600 	andeq	fp, r3, r0, lsl #12
    27f0:	006b1900 	rsbeq	r1, fp, r0, lsl #18
    27f4:	000e0000 	andeq	r0, lr, r0
    27f8:	0003a606 	andeq	sl, r3, r6, lsl #12
    27fc:	04f61d00 	ldrbteq	r1, [r6], #3328	; 0xd00
    2800:	7f010000 	svcvc	0x00010000
    2804:	00000025 	andeq	r0, r0, r5, lsr #32
    2808:	00009340 	andeq	r9, r0, r0, asr #6
    280c:	00000288 	andeq	r0, r0, r8, lsl #5
    2810:	06259c01 	strteq	r9, [r5], -r1, lsl #24
    2814:	620b0000 	andvs	r0, fp, #0
    2818:	01006675 	tsteq	r0, r5, ror r6
    281c:	0000747f 	andeq	r7, r0, pc, ror r4
    2820:	0011ce00 	andseq	ip, r1, r0, lsl #28
    2824:	006e0b00 	rsbeq	r0, lr, r0, lsl #22
    2828:	00257f01 	eoreq	r7, r5, r1, lsl #30
    282c:	11fa0000 	mvnsne	r0, r0
    2830:	660b0000 	strvs	r0, [fp], -r0
    2834:	0100746d 	tsteq	r0, sp, ror #8
    2838:	0000817f 	andeq	r8, r0, pc, ror r1
    283c:	00122800 	andseq	r2, r2, r0, lsl #16
    2840:	07b10d00 	ldreq	r0, [r1, r0, lsl #26]!
    2844:	7f010000 	svcvc	0x00010000
    2848:	000000ae 	andeq	r0, r0, lr, lsr #1
    284c:	0000125c 	andeq	r1, r0, ip, asr r2
    2850:	01007010 	tsteq	r0, r0, lsl r0
    2854:	00007480 	andeq	r7, r0, r0, lsl #9
    2858:	00126f00 	andseq	r6, r2, r0, lsl #30
    285c:	00651000 	rsbeq	r1, r5, r0
    2860:	00748001 	rsbseq	r8, r4, r1
    2864:	12ed0000 	rscne	r0, sp, #0
    2868:	10110000 	andsne	r0, r1, r0
    286c:	35000001 	strcc	r0, [r0, #-1]
    2870:	05000006 	streq	r0, [r0, #-6]
    2874:	00a37003 	adceq	r7, r3, r3
    2878:	00801e00 	addeq	r1, r0, r0, lsl #28
    287c:	73100000 	tstvc	r0, #0
    2880:	748d0100 	strvc	r0, [sp], #256	; 0x100
    2884:	14000000 	strne	r0, [r0], #-0
    2888:	0f000013 	svceq	0x00000013
    288c:	006d756e 	rsbeq	r7, sp, lr, ror #10
    2890:	063a8d01 	ldrteq	r8, [sl], -r1, lsl #26
    2894:	91030000 	mrsls	r0, (UNDEF: 3)
    2898:	b3137ed8 	tstlt	r3, #216, 28	; 0xd80
    289c:	01000005 	tsteq	r0, r5
    28a0:	00002c8e 	andeq	r2, r0, lr, lsl #25
    28a4:	00136900 	andseq	r6, r3, r0, lsl #18
    28a8:	93c41500 	bicls	r1, r4, #0, 10
    28ac:	00b90000 	adcseq	r0, r9, r0
    28b0:	047b0000 	ldrbteq	r0, [fp], #-0
    28b4:	01160000 	tsteq	r6, r0
    28b8:	00750250 	rsbseq	r0, r5, r0, asr r2
    28bc:	93d81400 	bicsls	r1, r8, #0, 8
    28c0:	06600000 	strbteq	r0, [r0], -r0
    28c4:	ec150000 	ldc	0, cr0, [r5], {-0}
    28c8:	67000093 			; <UNDEFINED> instruction: 0x67000093
    28cc:	b3000006 	movwlt	r0, #6
    28d0:	16000004 	strne	r0, [r0], -r4
    28d4:	08025301 	stmdaeq	r2, {r0, r8, r9, ip, lr}
    28d8:	52011694 	andpl	r1, r1, #148, 12	; 0x9400000
    28dc:	a3700305 	cmnge	r0, #335544320	; 0x14000000
    28e0:	01160000 	tsteq	r6, r0
    28e4:	90030551 	andls	r0, r3, r1, asr r5
    28e8:	160000a3 	strne	r0, [r0], -r3, lsr #1
    28ec:	03055001 	movweq	r5, #20481	; 0x5001
    28f0:	0000a3e0 	andeq	sl, r0, r0, ror #7
    28f4:	93f01400 	mvnsls	r1, #0, 8
    28f8:	067d0000 	ldrbteq	r0, [sp], -r0
    28fc:	60140000 	andsvs	r0, r4, r0
    2900:	60000094 	mulvs	r0, r4, r0
    2904:	15000006 	strne	r0, [r0, #-6]
    2908:	00009474 	andeq	r9, r0, r4, ror r4
    290c:	00000667 	andeq	r0, r0, r7, ror #12
    2910:	000004f4 	strdeq	r0, [r0], -r4
    2914:	02530116 	subseq	r0, r3, #-2147483643	; 0x80000005
    2918:	01169a08 	tsteq	r6, r8, lsl #20
    291c:	70030552 	andvc	r0, r3, r2, asr r5
    2920:	160000a3 	strne	r0, [r0], -r3, lsr #1
    2924:	03055101 	movweq	r5, #20737	; 0x5101
    2928:	0000a390 	muleq	r0, r0, r3
    292c:	05500116 	ldrbeq	r0, [r0, #-278]	; 0x116
    2930:	00a3fc03 	adceq	pc, r3, r3, lsl #24
    2934:	78140000 	ldmdavc	r4, {}	; <UNPREDICTABLE>
    2938:	7d000094 	stcvc	0, cr0, [r0, #-592]	; 0xfffffdb0
    293c:	15000006 	strne	r0, [r0, #-6]
    2940:	0000949c 	muleq	r0, ip, r4
    2944:	0000019c 	muleq	r0, ip, r1
    2948:	0000052a 	andeq	r0, r0, sl, lsr #10
    294c:	02520116 	subseq	r0, r2, #-2147483643	; 0x80000005
    2950:	01168008 	tsteq	r6, r8
    2954:	d0910351 	addsle	r0, r1, r1, asr r3
    2958:	5001167e 	andpl	r1, r1, lr, ror r6
    295c:	02163a01 	andseq	r3, r6, #4096	; 0x1000
    2960:	3101047d 	tstcc	r1, sp, ror r4
    2964:	007d0216 	rsbseq	r0, sp, r6, lsl r2
    2968:	00007702 	andeq	r7, r0, r2, lsl #14
    296c:	0094c015 	addseq	ip, r4, r5, lsl r0
    2970:	00019c00 	andeq	r9, r1, r0, lsl #24
    2974:	00055800 	andeq	r5, r5, r0, lsl #16
    2978:	52011600 	andpl	r1, r1, #0, 12
    297c:	16800802 	strne	r0, [r0], r2, lsl #16
    2980:	91035101 	tstls	r3, r1, lsl #2
    2984:	01167ed0 			; <UNDEFINED> instruction: 0x01167ed0
    2988:	163a0150 			; <UNDEFINED> instruction: 0x163a0150
    298c:	02047d02 	andeq	r7, r4, #2, 26	; 0x80
    2990:	0216007b 	andseq	r0, r6, #123	; 0x7b
    2994:	7702007d 	smlsdxvc	r2, sp, r0, r0
    2998:	e4150000 	ldr	r0, [r5], #-0
    299c:	9c000094 	stcls	0, cr0, [r0], {148}	; 0x94
    29a0:	86000001 	strhi	r0, [r0], -r1
    29a4:	16000005 	strne	r0, [r0], -r5
    29a8:	08025201 	stmdaeq	r2, {r0, r9, ip, lr}
    29ac:	51011680 	smlabbpl	r1, r0, r6, r1
    29b0:	7ed09103 	atnvcs	f1, f3
    29b4:	01500116 	cmpeq	r0, r6, lsl r1
    29b8:	7d021640 	stcvc	6, cr1, [r2, #-256]	; 0xffffff00
    29bc:	007b0204 	rsbseq	r0, fp, r4, lsl #4
    29c0:	007d0216 	rsbseq	r0, sp, r6, lsl r2
    29c4:	00007702 	andeq	r7, r0, r2, lsl #14
    29c8:	00950815 	addseq	r0, r5, r5, lsl r8
    29cc:	00019c00 	andeq	r9, r1, r0, lsl #24
    29d0:	0005b400 	andeq	fp, r5, r0, lsl #8
    29d4:	52011600 	andpl	r1, r1, #0, 12
    29d8:	16800802 	strne	r0, [r0], r2, lsl #16
    29dc:	91035101 	tstls	r3, r1, lsl #2
    29e0:	01167ed0 			; <UNDEFINED> instruction: 0x01167ed0
    29e4:	16320150 			; <UNDEFINED> instruction: 0x16320150
    29e8:	02047d02 	andeq	r7, r4, #2, 26	; 0x80
    29ec:	0216007b 	andseq	r0, r6, #123	; 0x7b
    29f0:	7702007d 	smlsdxvc	r2, sp, r0, r0
    29f4:	38150000 	ldmdacc	r5, {}	; <UNPREDICTABLE>
    29f8:	9c000095 	stcls	0, cr0, [r0], {149}	; 0x95
    29fc:	e2000001 	and	r0, r0, #1
    2a00:	16000005 	strne	r0, [r0], -r5
    2a04:	08025201 	stmdaeq	r2, {r0, r9, ip, lr}
    2a08:	51011680 	smlabbpl	r1, r0, r6, r1
    2a0c:	7ed09103 	atnvcs	f1, f3
    2a10:	01500116 	cmpeq	r0, r6, lsl r1
    2a14:	7d021638 	stcvc	6, cr1, [r2, #-224]	; 0xffffff20
    2a18:	007b0204 	rsbseq	r0, fp, r4, lsl #4
    2a1c:	007d0216 	rsbseq	r0, sp, r6, lsl r2
    2a20:	00007702 	andeq	r7, r0, r2, lsl #14
    2a24:	00954014 	addseq	r4, r5, r4, lsl r0
    2a28:	00066000 	andeq	r6, r6, r0
    2a2c:	955c1500 	ldrbls	r1, [ip, #-1280]	; 0x500
    2a30:	06670000 	strbteq	r0, [r7], -r0
    2a34:	061a0000 	ldreq	r0, [sl], -r0
    2a38:	01160000 	tsteq	r6, r0
    2a3c:	bb080253 	bllt	203390 <__bss_end__+0x1f89d8>
    2a40:	05520116 	ldrbeq	r0, [r2, #-278]	; 0x116
    2a44:	00a37003 	adceq	r7, r3, r3
    2a48:	51011600 	tstpl	r1, r0, lsl #12
    2a4c:	a3900305 	orrsge	r0, r0, #335544320	; 0x14000000
    2a50:	01160000 	tsteq	r6, r0
    2a54:	24030550 	strcs	r0, [r3], #-1360	; 0x550
    2a58:	000000a4 	andeq	r0, r0, r4, lsr #1
    2a5c:	00956014 	addseq	r6, r5, r4, lsl r0
    2a60:	00067d00 	andeq	r7, r6, r0, lsl #26
    2a64:	18000000 	stmdane	r0, {}	; <UNPREDICTABLE>
    2a68:	0000007a 	andeq	r0, r0, sl, ror r0
    2a6c:	00000635 	andeq	r0, r0, r5, lsr r6
    2a70:	00006b19 	andeq	r6, r0, r9, lsl fp
    2a74:	06000900 	streq	r0, [r0], -r0, lsl #18
    2a78:	00000625 	andeq	r0, r0, r5, lsr #12
    2a7c:	00007a18 	andeq	r7, r0, r8, lsl sl
    2a80:	00064a00 	andeq	r4, r6, r0, lsl #20
    2a84:	006b1900 	rsbeq	r1, fp, r0, lsl #18
    2a88:	007f0000 	rsbseq	r0, pc, r0
    2a8c:	00052a1f 	andeq	r2, r5, pc, lsl sl
    2a90:	8b1d0300 	blhi	743698 <__bss_end__+0x738ce0>
    2a94:	1f000003 	svcne	0x00000003
    2a98:	00000567 	andeq	r0, r0, r7, ror #10
    2a9c:	03a02203 	moveq	r2, #805306368	; 0x30000000
    2aa0:	1e200000 	cdpne	0, 2, cr0, cr0, cr0, {0}
    2aa4:	03000002 	movweq	r0, #2
    2aa8:	04f9211e 	ldrbteq	r2, [r9], #286	; 0x11e
    2aac:	29030000 	stmdbcs	r3, {}	; <UNPREDICTABLE>
    2ab0:	00000025 	andeq	r0, r0, r5, lsr #32
    2ab4:	0000067d 	andeq	r0, r0, sp, ror r6
    2ab8:	0000811c 	andeq	r8, r0, ip, lsl r1
    2abc:	20002200 	andcs	r2, r0, r0, lsl #4
    2ac0:	00000255 	andeq	r0, r0, r5, asr r2
    2ac4:	ff006503 			; <UNDEFINED> instruction: 0xff006503
    2ac8:	04000000 	streq	r0, [r0], #-0
    2acc:	000c6e00 	andeq	r6, ip, r0, lsl #28
    2ad0:	5f010400 	svcpl	0x00010400
    2ad4:	01000000 	mrseq	r0, (UNDEF: 0)
    2ad8:	000005c6 	andeq	r0, r0, r6, asr #11
    2adc:	00000485 	andeq	r0, r0, r5, lsl #9
    2ae0:	000095c8 	andeq	r9, r0, r8, asr #11
    2ae4:	00000028 	andeq	r0, r0, r8, lsr #32
    2ae8:	00000c77 	andeq	r0, r0, r7, ror ip
    2aec:	69050402 	stmdbvs	r5, {r1, sl}
    2af0:	0300746e 	movweq	r7, #1134	; 0x46e
    2af4:	01340704 	teqeq	r4, r4, lsl #14
    2af8:	01030000 	mrseq	r0, (UNDEF: 3)
    2afc:	0000e206 	andeq	lr, r0, r6, lsl #4
    2b00:	05020300 	streq	r0, [r2, #-768]	; 0x300
    2b04:	00000158 	andeq	r0, r0, r8, asr r1
    2b08:	4f050403 	svcmi	0x00050403
    2b0c:	03000001 	movweq	r0, #1
    2b10:	014a0508 	cmpeq	sl, r8, lsl #10
    2b14:	01030000 	mrseq	r0, (UNDEF: 3)
    2b18:	0000e008 	andeq	lr, r0, r8
    2b1c:	07020300 	streq	r0, [r2, -r0, lsl #6]
    2b20:	000000ee 	andeq	r0, r0, lr, ror #1
    2b24:	2f070403 	svccs	0x00070403
    2b28:	03000001 	movweq	r0, #1
    2b2c:	012a0708 	teqeq	sl, r8, lsl #14
    2b30:	04030000 	streq	r0, [r3], #-0
    2b34:	00014107 	andeq	r4, r1, r7, lsl #2
    2b38:	08010300 	stmdaeq	r1, {r8, r9}
    2b3c:	000000e9 	andeq	r0, r0, r9, ror #1
    2b40:	007f0404 	rsbseq	r0, pc, r4, lsl #8
    2b44:	72050000 	andvc	r0, r5, #0
    2b48:	06000000 	streq	r0, [r0], -r0
    2b4c:	00000255 	andeq	r0, r0, r5, asr r2
    2b50:	95c80401 	strbls	r0, [r8, #1025]	; 0x401
    2b54:	00280000 	eoreq	r0, r8, r0
    2b58:	9c010000 	stcls	0, cr0, [r1], {-0}
    2b5c:	000000ca 	andeq	r0, r0, sl, asr #1
    2b60:	0095dc07 	addseq	sp, r5, r7, lsl #24
    2b64:	0000ac00 	andeq	sl, r0, r0, lsl #24
    2b68:	50010800 	andpl	r0, r1, r0, lsl #16
    2b6c:	a45c0305 	ldrbge	r0, [ip], #-773	; 0x305
    2b70:	09000000 	stmdbeq	r0, {}	; <UNPREDICTABLE>
    2b74:	000095e4 	andeq	r9, r0, r4, ror #11
    2b78:	000000ea 	andeq	r0, r0, sl, ror #1
    2b7c:	000000c0 	andeq	r0, r0, r0, asr #1
    2b80:	02500108 	subseq	r0, r0, #8, 2
    2b84:	0a006408 	beq	1bbac <__bss_end__+0x111f4>
    2b88:	000095e8 	andeq	r9, r0, r8, ror #11
    2b8c:	000000fb 	strdeq	r0, [r0], -fp
    2b90:	00250b00 	eoreq	r0, r5, r0, lsl #22
    2b94:	00d90000 	sbcseq	r0, r9, r0
    2b98:	790c0000 	stmdbvc	ip, {}	; <UNPREDICTABLE>
    2b9c:	00000000 	andeq	r0, r0, r0
    2ba0:	0005670d 	andeq	r6, r5, sp, lsl #14
    2ba4:	e4220200 	strt	r0, [r2], #-512	; 0x200
    2ba8:	04000000 	streq	r0, [r0], #-0
    2bac:	0000ca04 	andeq	ip, r0, r4, lsl #20
    2bb0:	05ea0e00 	strbeq	r0, [sl, #3584]!	; 0xe00
    2bb4:	4f020000 	svcmi	0x00020000
    2bb8:	000000fb 	strdeq	r0, [r0], -fp
    2bbc:	00002c0c 	andeq	r2, r0, ip, lsl #24
    2bc0:	df0f0000 	svcle	0x000f0000
    2bc4:	02000005 	andeq	r0, r0, #5
    2bc8:	00ff0062 	rscseq	r0, pc, r2, rrx
    2bcc:	00040000 	andeq	r0, r4, r0
    2bd0:	00000d38 	andeq	r0, r0, r8, lsr sp
    2bd4:	005f0104 	subseq	r0, pc, r4, lsl #2
    2bd8:	03010000 	movweq	r0, #4096	; 0x1000
    2bdc:	85000006 	strhi	r0, [r0, #-6]
    2be0:	f0000004 			; <UNDEFINED> instruction: 0xf0000004
    2be4:	34000095 	strcc	r0, [r0], #-149	; 0x95
    2be8:	17000000 	strne	r0, [r0, -r0]
    2bec:	0200000d 	andeq	r0, r0, #13
    2bf0:	6e690504 	cdpvs	5, 6, cr0, cr9, cr4, {0}
    2bf4:	04030074 	streq	r0, [r3], #-116	; 0x74
    2bf8:	00013407 	andeq	r3, r1, r7, lsl #8
    2bfc:	06010300 	streq	r0, [r1], -r0, lsl #6
    2c00:	000000e2 	andeq	r0, r0, r2, ror #1
    2c04:	58050203 	stmdapl	r5, {r0, r1, r9}
    2c08:	03000001 	movweq	r0, #1
    2c0c:	014f0504 	cmpeq	pc, r4, lsl #10
    2c10:	08030000 	stmdaeq	r3, {}	; <UNPREDICTABLE>
    2c14:	00014a05 	andeq	r4, r1, r5, lsl #20
    2c18:	08010300 	stmdaeq	r1, {r8, r9}
    2c1c:	000000e0 	andeq	r0, r0, r0, ror #1
    2c20:	ee070203 	cdp	2, 0, cr0, cr7, cr3, {0}
    2c24:	03000000 	movweq	r0, #0
    2c28:	012f0704 	teqeq	pc, r4, lsl #14
    2c2c:	08030000 	stmdaeq	r3, {}	; <UNPREDICTABLE>
    2c30:	00012a07 	andeq	r2, r1, r7, lsl #20
    2c34:	07040300 	streq	r0, [r4, -r0, lsl #6]
    2c38:	00000141 	andeq	r0, r0, r1, asr #2
    2c3c:	e9080103 	stmdb	r8, {r0, r1, r8}
    2c40:	04000000 	streq	r0, [r0], #-0
    2c44:	000005fb 	strdeq	r0, [r0], -fp
    2c48:	95f00d01 	ldrbls	r0, [r0, #3329]!	; 0xd01
    2c4c:	00340000 	eorseq	r0, r4, r0
    2c50:	9c010000 	stcls	0, cr0, [r1], {-0}
    2c54:	000000d8 	ldrdeq	r0, [r0], -r8
    2c58:	0003e805 	andeq	lr, r3, r5, lsl #16
    2c5c:	250e0100 	strcs	r0, [lr, #-256]	; 0x100
    2c60:	05000000 	streq	r0, [r0, #-0]
    2c64:	000003f6 	strdeq	r0, [r0], -r6
    2c68:	00250e01 	eoreq	r0, r5, r1, lsl #28
    2c6c:	b6060000 	strlt	r0, [r6], -r0
    2c70:	01000000 	mrseq	r0, (UNDEF: 0)
    2c74:	7362070f 	cmnvc	r2, #3932160	; 0x3c0000
    2c78:	11010073 	tstne	r1, r3, ror r0
    2c7c:	000000d8 	ldrdeq	r0, [r0], -r8
    2c80:	00001393 	muleq	r0, r3, r3
    2c84:	0005f308 	andeq	pc, r5, r8, lsl #6
    2c88:	d8120100 	ldmdale	r2, {r8}
    2c8c:	09000000 	stmdbeq	r0, {}	; <UNPREDICTABLE>
    2c90:	00009618 	andeq	r9, r0, r8, lsl r6
    2c94:	000000f4 	strdeq	r0, [r0], -r4
    2c98:	00961c09 	addseq	r1, r6, r9, lsl #24
    2c9c:	0000fb00 	andeq	pc, r0, r0, lsl #22
    2ca0:	040a0000 	streq	r0, [sl], #-0
    2ca4:	00000025 	andeq	r0, r0, r5, lsr #32
    2ca8:	0003e805 	andeq	lr, r3, r5, lsl #16
    2cac:	250e0100 	strcs	r0, [lr, #-256]	; 0x100
    2cb0:	05000000 	streq	r0, [r0, #-0]
    2cb4:	000003f6 	strdeq	r0, [r0], -r6
    2cb8:	00250e01 	eoreq	r0, r5, r1, lsl #28
    2cbc:	b6060000 	strlt	r0, [r6], -r0
    2cc0:	02000000 	andeq	r0, r0, #0
    2cc4:	025506d7 	subseq	r0, r5, #225443840	; 0xd700000
    2cc8:	65020000 	strvs	r0, [r2, #-0]
    2ccc:	0001ad00 	andeq	sl, r1, r0, lsl #26
    2cd0:	cc000400 	cfstrsgt	mvf0, [r0], {-0}
    2cd4:	0400000d 	streq	r0, [r0], #-13
    2cd8:	00005f01 	andeq	r5, r0, r1, lsl #30
    2cdc:	06240100 	strteq	r0, [r4], -r0, lsl #2
    2ce0:	04850000 	streq	r0, [r5], #0
    2ce4:	00980000 	addseq	r0, r8, r0
    2ce8:	00000000 	andeq	r0, r0, r0
    2cec:	0dbe0000 	ldceq	0, cr0, [lr]
    2cf0:	04020000 	streq	r0, [r2], #-0
    2cf4:	746e6905 	strbtvc	r6, [lr], #-2309	; 0x905
    2cf8:	07040300 	streq	r0, [r4, -r0, lsl #6]
    2cfc:	00000134 	andeq	r0, r0, r4, lsr r1
    2d00:	e2060103 	and	r0, r6, #-1073741824	; 0xc0000000
    2d04:	03000000 	movweq	r0, #0
    2d08:	01580502 	cmpeq	r8, r2, lsl #10
    2d0c:	04030000 	streq	r0, [r3], #-0
    2d10:	00014f05 	andeq	r4, r1, r5, lsl #30
    2d14:	05080300 	streq	r0, [r8, #-768]	; 0x300
    2d18:	0000014a 	andeq	r0, r0, sl, asr #2
    2d1c:	e0080103 	and	r0, r8, r3, lsl #2
    2d20:	03000000 	movweq	r0, #0
    2d24:	00ee0702 	rsceq	r0, lr, r2, lsl #14
    2d28:	04030000 	streq	r0, [r3], #-0
    2d2c:	00012f07 	andeq	r2, r1, r7, lsl #30
    2d30:	07080300 	streq	r0, [r8, -r0, lsl #6]
    2d34:	0000012a 	andeq	r0, r0, sl, lsr #2
    2d38:	41070403 	tstmi	r7, r3, lsl #8
    2d3c:	03000001 	movweq	r0, #1
    2d40:	00e90801 	rsceq	r0, r9, r1, lsl #16
    2d44:	16040000 	strne	r0, [r4], -r0
    2d48:	01000006 	tsteq	r0, r6
    2d4c:	0000250e 	andeq	r2, r0, lr, lsl #10
    2d50:	00962400 	addseq	r2, r6, r0, lsl #8
    2d54:	00001800 	andeq	r1, r0, r0, lsl #16
    2d58:	a29c0100 	addsge	r0, ip, #0, 2
    2d5c:	05000000 	streq	r0, [r0, #-0]
    2d60:	00000681 	andeq	r0, r0, r1, lsl #13
    2d64:	002c0f01 	eoreq	r0, ip, r1, lsl #30
    2d68:	13b30000 			; <UNDEFINED> instruction: 0x13b30000
    2d6c:	06000000 	streq	r0, [r0], -r0
    2d70:	00000658 	andeq	r0, r0, r8, asr r6
    2d74:	963c1701 	ldrtls	r1, [ip], -r1, lsl #14
    2d78:	00140000 	andseq	r0, r4, r0
    2d7c:	9c010000 	stcls	0, cr0, [r1], {-0}
    2d80:	000000c7 	andeq	r0, r0, r7, asr #1
    2d84:	00068105 	andeq	r8, r6, r5, lsl #2
    2d88:	2c180100 	ldfcss	f0, [r8], {-0}
    2d8c:	d2000000 	andle	r0, r0, #0
    2d90:	00000013 	andeq	r0, r0, r3, lsl r0
    2d94:	0005df06 	andeq	sp, r5, r6, lsl #30
    2d98:	501f0100 	andspl	r0, pc, r0, lsl #2
    2d9c:	48000096 	stmdami	r0, {r1, r2, r4, r7}
    2da0:	01000000 	mrseq	r0, (UNDEF: 0)
    2da4:	0001779c 	muleq	r1, ip, r7
    2da8:	06790700 	ldrbteq	r0, [r9], -r0, lsl #14
    2dac:	2a010000 	bcs	42db4 <__bss_end__+0x383fc>
    2db0:	00000177 	andeq	r0, r0, r7, ror r1
    2db4:	2010001c 	andscs	r0, r0, ip, lsl r0
    2db8:	00065007 	andeq	r5, r6, r7
    2dbc:	772b0100 	strvc	r0, [fp, -r0, lsl #2]!
    2dc0:	24000001 	strcs	r0, [r0], #-1
    2dc4:	07201000 	streq	r1, [r0, -r0]!
    2dc8:	0000066d 	andeq	r0, r0, sp, ror #12
    2dcc:	01772c01 	cmneq	r7, r1, lsl #24
    2dd0:	00000000 	andeq	r0, r0, r0
    2dd4:	37085a00 	strcc	r5, [r8, -r0, lsl #20]
    2dd8:	01000006 	tsteq	r0, r6
    2ddc:	0001772d 	andeq	r7, r1, sp, lsr #14
    2de0:	58092000 	stmdapl	r9, {sp}
    2de4:	79000096 	stmdbvc	r0, {r1, r2, r4, r7}
    2de8:	09000000 	stmdbeq	r0, {}	; <UNPREDICTABLE>
    2dec:	00009664 	andeq	r9, r0, r4, ror #12
    2df0:	000000a2 	andeq	r0, r0, r2, lsr #1
    2df4:	00966c0a 	addseq	r6, r6, sl, lsl #24
    2df8:	00018d00 	andeq	r8, r1, r0, lsl #26
    2dfc:	00013a00 	andeq	r3, r1, r0, lsl #20
    2e00:	50010b00 	andpl	r0, r1, r0, lsl #22
    2e04:	0a004e01 	beq	16610 <__bss_end__+0xbc58>
    2e08:	00009678 	andeq	r9, r0, r8, ror r6
    2e0c:	0000019e 	muleq	r0, lr, r1
    2e10:	0000015a 	andeq	r0, r0, sl, asr r1
    2e14:	0551010b 	ldrbeq	r0, [r1, #-267]	; 0x10b
    2e18:	0000010c 	andeq	r0, r0, ip, lsl #2
    2e1c:	50010b5a 	andpl	r0, r1, sl, asr fp
    2e20:	00240c05 	eoreq	r0, r4, r5, lsl #24
    2e24:	0c002010 	stceq	0, cr2, [r0], {16}
    2e28:	00009684 	andeq	r9, r0, r4, lsl #13
    2e2c:	0000019e 	muleq	r0, lr, r1
    2e30:	0551010b 	ldrbeq	r0, [r1, #-267]	; 0x10b
    2e34:	0000200c 	andeq	r2, r0, ip
    2e38:	50010b5a 	andpl	r0, r1, sl, asr fp
    2e3c:	001c0c05 	andseq	r0, ip, r5, lsl #24
    2e40:	00002010 	andeq	r2, r0, r0, lsl r0
    2e44:	0000250d 	andeq	r2, r0, sp, lsl #10
    2e48:	06190800 	ldreq	r0, [r9], -r0, lsl #16
    2e4c:	0d010000 	stceq	0, cr0, [r1, #-0]
    2e50:	00000188 	andeq	r0, r0, r8, lsl #3
    2e54:	002c0d10 	eoreq	r0, ip, r0, lsl sp
    2e58:	ea0e0000 	b	382e60 <__bss_end__+0x3784a8>
    2e5c:	02000005 	andeq	r0, r0, #5
    2e60:	00019e4f 	andeq	r9, r1, pc, asr #28
    2e64:	002c0f00 	eoreq	r0, ip, r0, lsl #30
    2e68:	10000000 	andne	r0, r0, r0
    2e6c:	00000667 	andeq	r0, r0, r7, ror #12
    2e70:	2c0f9b02 	stccs	11, cr9, [pc], {2}
    2e74:	0f000000 	svceq	0x00000000
    2e78:	0000002c 	andeq	r0, r0, ip, lsr #32
    2e7c:	01d80000 	bicseq	r0, r8, r0
    2e80:	00040000 	andeq	r0, r4, r0
    2e84:	00000eba 			; <UNDEFINED> instruction: 0x00000eba
    2e88:	005f0104 	subseq	r0, pc, r4, lsl #2
    2e8c:	a3010000 	movwge	r0, #4096	; 0x1000
    2e90:	85000006 	strhi	r0, [r0, #-6]
    2e94:	98000004 	stmdals	r0, {r2}
    2e98:	88000096 	stmdahi	r0, {r1, r2, r4, r7}
    2e9c:	64000000 	strvs	r0, [r0], #-0
    2ea0:	0200000e 	andeq	r0, r0, #14
    2ea4:	6e690504 	cdpvs	5, 6, cr0, cr9, cr4, {0}
    2ea8:	04030074 	streq	r0, [r3], #-116	; 0x74
    2eac:	00013407 	andeq	r3, r1, r7, lsl #8
    2eb0:	06010300 	streq	r0, [r1], -r0, lsl #6
    2eb4:	000000e2 	andeq	r0, r0, r2, ror #1
    2eb8:	58050203 	stmdapl	r5, {r0, r1, r9}
    2ebc:	03000001 	movweq	r0, #1
    2ec0:	014f0504 	cmpeq	pc, r4, lsl #10
    2ec4:	08030000 	stmdaeq	r3, {}	; <UNPREDICTABLE>
    2ec8:	00014a05 	andeq	r4, r1, r5, lsl #20
    2ecc:	08010300 	stmdaeq	r1, {r8, r9}
    2ed0:	000000e0 	andeq	r0, r0, r0, ror #1
    2ed4:	ee070203 	cdp	2, 0, cr0, cr7, cr3, {0}
    2ed8:	03000000 	movweq	r0, #0
    2edc:	012f0704 	teqeq	pc, r4, lsl #14
    2ee0:	08030000 	stmdaeq	r3, {}	; <UNPREDICTABLE>
    2ee4:	00012a07 	andeq	r2, r1, r7, lsl #20
    2ee8:	07040300 	streq	r0, [r4, -r0, lsl #6]
    2eec:	00000141 	andeq	r0, r0, r1, asr #2
    2ef0:	e9080103 	stmdb	r8, {r0, r1, r8}
    2ef4:	04000000 	streq	r0, [r0], #-0
    2ef8:	000006c1 	andeq	r0, r0, r1, asr #13
    2efc:	96980501 	ldrls	r0, [r8], r1, lsl #10
    2f00:	001c0000 	andseq	r0, ip, r0
    2f04:	9c010000 	stcls	0, cr0, [r1], {-0}
    2f08:	0000009e 	muleq	r0, lr, r0
    2f0c:	0006bb05 	andeq	fp, r6, r5, lsl #22
    2f10:	2c050100 	stfcss	f0, [r5], {-0}
    2f14:	fc000000 	stc2	0, cr0, [r0], {-0}
    2f18:	00000013 	andeq	r0, r0, r3, lsl r0
    2f1c:	00068606 	andeq	r8, r6, r6, lsl #12
    2f20:	2c110100 	ldfcss	f0, [r1], {-0}
    2f24:	b4000000 	strlt	r0, [r0], #-0
    2f28:	14000096 	strne	r0, [r0], #-150	; 0x96
    2f2c:	01000000 	mrseq	r0, (UNDEF: 0)
    2f30:	0000cb9c 	muleq	r0, ip, fp
    2f34:	96c00700 	strbls	r0, [r0], r0, lsl #14
    2f38:	01ca0000 	biceq	r0, sl, r0
    2f3c:	01080000 	mrseq	r0, (UNDEF: 8)
    2f40:	040c0550 	streq	r0, [ip], #-1360	; 0x550
    2f44:	00200030 	eoreq	r0, r0, r0, lsr r0
    2f48:	06d70600 	ldrbeq	r0, [r7], r0, lsl #12
    2f4c:	16010000 	strne	r0, [r1], -r0
    2f50:	0000002c 	andeq	r0, r0, ip, lsr #32
    2f54:	000096c8 	andeq	r9, r0, r8, asr #13
    2f58:	0000000c 	andeq	r0, r0, ip
    2f5c:	00f99c01 	rscseq	r9, r9, r1, lsl #24
    2f60:	75090000 	strvc	r0, [r9, #-0]
    2f64:	2c1a0100 	ldfcss	f0, [sl], {-0}
    2f68:	01000000 	mrseq	r0, (UNDEF: 0)
    2f6c:	96d00a50 			; <UNDEFINED> instruction: 0x96d00a50
    2f70:	009e0000 	addseq	r0, lr, r0
    2f74:	04000000 	streq	r0, [r0], #-0
    2f78:	000006ce 	andeq	r0, r0, lr, asr #13
    2f7c:	96d41f01 	ldrbls	r1, [r4], r1, lsl #30
    2f80:	00240000 	eoreq	r0, r4, r0
    2f84:	9c010000 	stcls	0, cr0, [r1], {-0}
    2f88:	00000157 	andeq	r0, r0, r7, asr r1
    2f8c:	0073750b 	rsbseq	r7, r3, fp, lsl #10
    2f90:	002c1f01 	eoreq	r1, ip, r1, lsl #30
    2f94:	14300000 	ldrtne	r0, [r0], #-0
    2f98:	72090000 	andvc	r0, r9, #0
    2f9c:	20010062 	andcs	r0, r1, r2, rrx
    2fa0:	0000002c 	andeq	r0, r0, ip, lsr #32
    2fa4:	e40c5401 	str	r5, [ip], #-1025	; 0x401
    2fa8:	10000096 	mulne	r0, r6, r0
    2fac:	4d000000 	stcmi	0, cr0, [r0, #-0]
    2fb0:	0d000001 	stceq	0, cr0, [r0, #-4]
    2fb4:	01006172 	tsteq	r0, r2, ror r1
    2fb8:	00002c22 	andeq	r2, r0, r2, lsr #24
    2fbc:	00144e00 	andseq	r4, r4, r0, lsl #28
    2fc0:	96e80a00 	strbtls	r0, [r8], r0, lsl #20
    2fc4:	00cb0000 	sbceq	r0, fp, r0
    2fc8:	0a000000 	beq	2fd0 <_start-0x5030>
    2fcc:	000096e0 	andeq	r9, r0, r0, ror #13
    2fd0:	000000cb 	andeq	r0, r0, fp, asr #1
    2fd4:	05ea0400 	strbeq	r0, [sl, #1024]!	; 0x400
    2fd8:	28010000 	stmdacs	r1, {}	; <UNPREDICTABLE>
    2fdc:	000096f8 	strdeq	r9, [r0], -r8
    2fe0:	00000014 	andeq	r0, r0, r4, lsl r0
    2fe4:	01909c01 	orrseq	r9, r0, r1, lsl #24
    2fe8:	6d0b0000 	stcvs	0, cr0, [fp, #-0]
    2fec:	28010073 	stmdacs	r1, {r0, r1, r4, r5, r6}
    2ff0:	0000002c 	andeq	r0, r0, ip, lsr #32
    2ff4:	00001461 	andeq	r1, r0, r1, ror #8
    2ff8:	00970807 	addseq	r0, r7, r7, lsl #16
    2ffc:	0000f900 	andeq	pc, r0, r0, lsl #18
    3000:	50010800 	andpl	r0, r1, r0, lsl #16
    3004:	5001f307 	andpl	pc, r1, r7, lsl #6
    3008:	1e03e80a 	cdpne	8, 0, cr14, cr3, cr10, {0}
    300c:	99040000 	stmdbls	r4, {}	; <UNPREDICTABLE>
    3010:	01000006 	tsteq	r0, r6
    3014:	00970c2b 	addseq	r0, r7, fp, lsr #24
    3018:	00001400 	andeq	r1, r0, r0, lsl #8
    301c:	ca9c0100 	bgt	fe703424 <__bss_end__+0xfe6f8a6c>
    3020:	0b000001 	bleq	302c <_start-0x4fd4>
    3024:	00636573 	rsbeq	r6, r3, r3, ror r5
    3028:	002c2b01 	eoreq	r2, ip, r1, lsl #22
    302c:	14820000 	strne	r0, [r2], #0
    3030:	1c070000 	stcne	0, cr0, [r7], {-0}
    3034:	57000097 			; <UNDEFINED> instruction: 0x57000097
    3038:	08000001 	stmdaeq	r0, {r0}
    303c:	f3075001 	vhadd.u8	d5, d7, d1
    3040:	e80a5001 	stmda	sl, {r0, ip, lr}
    3044:	00001e03 	andeq	r1, r0, r3, lsl #28
    3048:	0006b50e 	andeq	fp, r6, lr, lsl #10
    304c:	2ca70200 	sfmcs	f0, 4, [r7]
    3050:	0f000000 	svceq	0x00000000
    3054:	0000002c 	andeq	r0, r0, ip, lsr #32
    3058:	0cc50000 	stcleq	0, cr0, [r5], {0}
    305c:	00040000 	andeq	r0, r4, r0
    3060:	00000f9d 	muleq	r0, sp, pc	; <UNPREDICTABLE>
    3064:	0a8e0104 	beq	fe38347c <__bss_end__+0xfe378ac4>
    3068:	e50c0000 	str	r0, [ip, #-0]
    306c:	00000007 	andeq	r0, r0, r7
    3070:	6c000008 	stcvs	0, cr0, [r0], {8}
    3074:	78000097 	stmdavc	r0, {r0, r1, r2, r4, r7}
    3078:	14000001 	strne	r0, [r0], #-1
    307c:	0200000f 	andeq	r0, r0, #15
    3080:	6e690504 	cdpvs	5, 6, cr0, cr9, cr4, {0}
    3084:	04030074 	streq	r0, [r3], #-116	; 0x74
    3088:	00013407 	andeq	r3, r1, r7, lsl #8
    308c:	002c0400 	eoreq	r0, ip, r0, lsl #8
    3090:	01030000 	mrseq	r0, (UNDEF: 3)
    3094:	0000e206 	andeq	lr, r0, r6, lsl #4
    3098:	05020300 	streq	r0, [r2, #-768]	; 0x300
    309c:	00000158 	andeq	r0, r0, r8, asr r1
    30a0:	4f050403 	svcmi	0x00050403
    30a4:	03000001 	movweq	r0, #1
    30a8:	014a0508 	cmpeq	sl, r8, lsl #10
    30ac:	01030000 	mrseq	r0, (UNDEF: 3)
    30b0:	0000e008 	andeq	lr, r0, r8
    30b4:	07020300 	streq	r0, [r2, -r0, lsl #6]
    30b8:	000000ee 	andeq	r0, r0, lr, ror #1
    30bc:	2f070403 	svccs	0x00070403
    30c0:	03000001 	movweq	r0, #1
    30c4:	012a0708 	teqeq	sl, r8, lsl #14
    30c8:	a3050000 	movwge	r0, #20480	; 0x5000
    30cc:	02000009 	andeq	r0, r0, #9
    30d0:	00002507 	andeq	r2, r0, r7, lsl #10
    30d4:	098d0500 	stmibeq	sp, {r8, sl}
    30d8:	2c030000 	stccs	0, cr0, [r3], {-0}
    30dc:	00000046 	andeq	r0, r0, r6, asr #32
    30e0:	000a6905 	andeq	r6, sl, r5, lsl #18
    30e4:	46720300 	ldrbtmi	r0, [r2], -r0, lsl #6
    30e8:	06000000 	streq	r0, [r0], -r0
    30ec:	00000931 	andeq	r0, r0, r1, lsr r9
    30f0:	2c016504 	cfstr32cs	mvfx6, [r1], {4}
    30f4:	07000000 	streq	r0, [r0, -r0]
    30f8:	bca60304 	stclt	3, cr0, [r6], #16
    30fc:	08000000 	stmdaeq	r0, {}	; <UNPREDICTABLE>
    3100:	0000091c 	andeq	r0, r0, ip, lsl r9
    3104:	0091a803 	addseq	sl, r1, r3, lsl #16
    3108:	b8080000 	stmdalt	r8, {}	; <UNPREDICTABLE>
    310c:	03000008 	movweq	r0, #8
    3110:	0000bca9 	andeq	fp, r0, r9, lsr #25
    3114:	54090000 	strpl	r0, [r9], #-0
    3118:	cc000000 	stcgt	0, cr0, [r0], {-0}
    311c:	0a000000 	beq	3124 <_start-0x4edc>
    3120:	000000cc 	andeq	r0, r0, ip, asr #1
    3124:	04030003 	streq	r0, [r3], #-3
    3128:	00014107 	andeq	r4, r1, r7, lsl #2
    312c:	03080b00 	movweq	r0, #35584	; 0x8b00
    3130:	0000f4a3 	andeq	pc, r0, r3, lsr #9
    3134:	0a4e0c00 	beq	138613c <__bss_end__+0x137b784>
    3138:	a5030000 	strge	r0, [r3, #-0]
    313c:	00000025 	andeq	r0, r0, r5, lsr #32
    3140:	0a560c00 	beq	1586148 <__bss_end__+0x157b790>
    3144:	aa030000 	bge	c314c <__bss_end__+0xb8794>
    3148:	0000009d 	muleq	r0, sp, r0
    314c:	e1050004 	tst	r5, r4
    3150:	03000009 	movweq	r0, #9
    3154:	0000d3ab 	andeq	sp, r0, fp, lsr #7
    3158:	08810500 	stmeq	r1, {r8, sl}
    315c:	af030000 	svcge	0x00030000
    3160:	00000070 	andeq	r0, r0, r0, ror r0
    3164:	040e040d 	streq	r0, [lr], #-1037	; 0x40d
    3168:	00000112 	andeq	r0, r0, r2, lsl r1
    316c:	e9080103 	stmdb	r8, {r0, r1, r8}
    3170:	0f000000 	svceq	0x00000000
    3174:	00000112 	andeq	r0, r0, r2, lsl r1
    3178:	000b0b05 	andeq	r0, fp, r5, lsl #22
    317c:	62160500 	andsvs	r0, r6, #0, 10
    3180:	10000000 	andne	r0, r0, r0
    3184:	00000892 	muleq	r0, r2, r8
    3188:	7c2d0518 	cfstr32vc	mvfx0, [sp], #-96	; 0xffffffa0
    318c:	0c000001 	stceq	0, cr0, [r0], {1}
    3190:	00000a02 	andeq	r0, r0, r2, lsl #20
    3194:	017c2f05 	cmneq	ip, r5, lsl #30
    3198:	11000000 	mrsne	r0, (UNDEF: 0)
    319c:	05006b5f 	streq	r6, [r0, #-2911]	; 0xb5f
    31a0:	00002530 	andeq	r2, r0, r0, lsr r5
    31a4:	390c0400 	stmdbcc	ip, {sl}
    31a8:	0500000a 	streq	r0, [r0, #-10]
    31ac:	00002530 	andeq	r2, r0, r0, lsr r5
    31b0:	6d0c0800 	stcvs	8, cr0, [ip, #-0]
    31b4:	05000008 	streq	r0, [r0, #-8]
    31b8:	00002530 	andeq	r2, r0, r0, lsr r5
    31bc:	520c0c00 	andpl	r0, ip, #0, 24
    31c0:	0500000b 	streq	r0, [r0, #-11]
    31c4:	00002530 	andeq	r2, r0, r0, lsr r5
    31c8:	5f111000 	svcpl	0x00111000
    31cc:	31050078 	tstcc	r5, r8, ror r0
    31d0:	00000182 	andeq	r0, r0, r2, lsl #3
    31d4:	040e0014 	streq	r0, [lr], #-20
    31d8:	00000129 	andeq	r0, r0, r9, lsr #2
    31dc:	00011e09 	andeq	r1, r1, r9, lsl #28
    31e0:	00019200 	andeq	r9, r1, r0, lsl #4
    31e4:	00cc0a00 	sbceq	r0, ip, r0, lsl #20
    31e8:	00000000 	andeq	r0, r0, r0
    31ec:	0008b310 	andeq	fp, r8, r0, lsl r3
    31f0:	35052400 	strcc	r2, [r5, #-1024]	; 0x400
    31f4:	0000020b 	andeq	r0, r0, fp, lsl #4
    31f8:	00076b0c 	andeq	r6, r7, ip, lsl #22
    31fc:	25370500 	ldrcs	r0, [r7, #-1280]!	; 0x500
    3200:	00000000 	andeq	r0, r0, r0
    3204:	000a710c 	andeq	r7, sl, ip, lsl #2
    3208:	25380500 	ldrcs	r0, [r8, #-1280]!	; 0x500
    320c:	04000000 	streq	r0, [r0], #-0
    3210:	0007990c 	andeq	r9, r7, ip, lsl #18
    3214:	25390500 	ldrcs	r0, [r9, #-1280]!	; 0x500
    3218:	08000000 	stmdaeq	r0, {}	; <UNPREDICTABLE>
    321c:	000c420c 	andeq	r4, ip, ip, lsl #4
    3220:	253a0500 	ldrcs	r0, [sl, #-1280]!	; 0x500
    3224:	0c000000 	stceq	0, cr0, [r0], {-0}
    3228:	0009710c 	andeq	r7, r9, ip, lsl #2
    322c:	253b0500 	ldrcs	r0, [fp, #-1280]!	; 0x500
    3230:	10000000 	andne	r0, r0, r0
    3234:	0009460c 	andeq	r4, r9, ip, lsl #12
    3238:	253c0500 	ldrcs	r0, [ip, #-1280]!	; 0x500
    323c:	14000000 	strne	r0, [r0], #-0
    3240:	000b570c 	andeq	r5, fp, ip, lsl #14
    3244:	253d0500 	ldrcs	r0, [sp, #-1280]!	; 0x500
    3248:	18000000 	stmdane	r0, {}	; <UNPREDICTABLE>
    324c:	0009c30c 	andeq	ip, r9, ip, lsl #6
    3250:	253e0500 	ldrcs	r0, [lr, #-1280]!	; 0x500
    3254:	1c000000 	stcne	0, cr0, [r0], {-0}
    3258:	000c090c 	andeq	r0, ip, ip, lsl #18
    325c:	253f0500 	ldrcs	r0, [pc, #-1280]!	; 2d64 <_start-0x529c>
    3260:	20000000 	andcs	r0, r0, r0
    3264:	07a81200 	streq	r1, [r8, r0, lsl #4]!
    3268:	01080000 	mrseq	r0, (UNDEF: 8)
    326c:	024b4805 	subeq	r4, fp, #327680	; 0x50000
    3270:	540c0000 	strpl	r0, [ip], #-0
    3274:	05000008 	streq	r0, [r0, #-8]
    3278:	00024b49 	andeq	r4, r2, r9, asr #22
    327c:	e60c0000 	str	r0, [ip], -r0
    3280:	05000006 	streq	r0, [r0, #-6]
    3284:	00024b4a 	andeq	r4, r2, sl, asr #22
    3288:	fd138000 	ldc2	0, cr8, [r3, #-0]
    328c:	0500000a 	streq	r0, [r0, #-10]
    3290:	00011e4c 	andeq	r1, r1, ip, asr #28
    3294:	13010000 	movwne	r0, #4096	; 0x1000
    3298:	000007cd 	andeq	r0, r0, sp, asr #15
    329c:	011e4f05 	tsteq	lr, r5, lsl #30
    32a0:	01040000 	mrseq	r0, (UNDEF: 4)
    32a4:	010a0900 	tsteq	sl, r0, lsl #18
    32a8:	025b0000 	subseq	r0, fp, #0
    32ac:	cc0a0000 	stcgt	0, cr0, [sl], {-0}
    32b0:	1f000000 	svcne	0x00000000
    32b4:	097a1200 	ldmdbeq	sl!, {r9, ip}^
    32b8:	01900000 	orrseq	r0, r0, r0
    32bc:	02995b05 	addseq	r5, r9, #5120	; 0x1400
    32c0:	020c0000 	andeq	r0, ip, #0
    32c4:	0500000a 	streq	r0, [r0, #-10]
    32c8:	0002995c 	andeq	r9, r2, ip, asr r9
    32cc:	1a0c0000 	bne	3032d4 <__bss_end__+0x2f891c>
    32d0:	0500000a 	streq	r0, [r0, #-10]
    32d4:	0000255d 	andeq	r2, r0, sp, asr r5
    32d8:	680c0400 	stmdavs	ip, {sl}
    32dc:	05000008 	streq	r0, [r0, #-8]
    32e0:	00029f5f 	andeq	r9, r2, pc, asr pc
    32e4:	a80c0800 	stmdage	ip, {fp}
    32e8:	05000007 	streq	r0, [r0, #-7]
    32ec:	00020b60 	andeq	r0, r2, r0, ror #22
    32f0:	0e008800 	cdpeq	8, 0, cr8, cr0, cr0, {0}
    32f4:	00025b04 	andeq	r5, r2, r4, lsl #22
    32f8:	02af0900 	adceq	r0, pc, #0, 18
    32fc:	02af0000 	adceq	r0, pc, #0
    3300:	cc0a0000 	stcgt	0, cr0, [sl], {-0}
    3304:	1f000000 	svcne	0x00000000
    3308:	b5040e00 	strlt	r0, [r4, #-3584]	; 0xe00
    330c:	14000002 	strne	r0, [r0], #-2
    3310:	0009cd10 	andeq	ip, r9, r0, lsl sp
    3314:	73050800 	movwvc	r0, #22528	; 0x5800
    3318:	000002db 	ldrdeq	r0, [r0], -fp
    331c:	00078e0c 	andeq	r8, r7, ip, lsl #28
    3320:	db740500 	blle	1d04728 <__bss_end__+0x1cf9d70>
    3324:	00000002 	andeq	r0, r0, r2
    3328:	0006f20c 	andeq	pc, r6, ip, lsl #4
    332c:	25750500 	ldrbcs	r0, [r5, #-1280]!	; 0x500
    3330:	04000000 	streq	r0, [r0], #-0
    3334:	54040e00 	strpl	r0, [r4], #-3584	; 0xe00
    3338:	10000000 	andne	r0, r0, r0
    333c:	000009ec 	andeq	r0, r0, ip, ror #19
    3340:	0bb30568 	bleq	fecc48e8 <__bss_end__+0xfecb9f30>
    3344:	11000004 	tstne	r0, r4
    3348:	0500705f 	streq	r7, [r0, #-95]	; 0x5f
    334c:	0002dbb4 			; <UNDEFINED> instruction: 0x0002dbb4
    3350:	5f110000 	svcpl	0x00110000
    3354:	b5050072 	strlt	r0, [r5, #-114]	; 0x72
    3358:	00000025 	andeq	r0, r0, r5, lsr #32
    335c:	775f1104 	ldrbvc	r1, [pc, -r4, lsl #2]
    3360:	25b60500 	ldrcs	r0, [r6, #1280]!	; 0x500
    3364:	08000000 	stmdaeq	r0, {}	; <UNPREDICTABLE>
    3368:	0007c60c 	andeq	ip, r7, ip, lsl #12
    336c:	3fb70500 	svccc	0x00b70500
    3370:	0c000000 	stceq	0, cr0, [r0], {-0}
    3374:	0008d90c 	andeq	sp, r8, ip, lsl #18
    3378:	3fb80500 	svccc	0x00b80500
    337c:	0e000000 	cdpeq	0, 0, cr0, cr0, cr0, {0}
    3380:	66625f11 	uqadd16vs	r5, r2, r1
    3384:	b6b90500 	ldrtlt	r0, [r9], r0, lsl #10
    3388:	10000002 	andne	r0, r0, r2
    338c:	0007350c 	andeq	r3, r7, ip, lsl #10
    3390:	25ba0500 	ldrcs	r0, [sl, #1280]!	; 0x500
    3394:	18000000 	stmdane	r0, {}	; <UNPREDICTABLE>
    3398:	0007b60c 	andeq	fp, r7, ip, lsl #12
    339c:	0ac10500 	beq	ff0447a4 <__bss_end__+0xff039dec>
    33a0:	1c000001 	stcne	0, cr0, [r0], {1}
    33a4:	000c690c 	andeq	r6, ip, ip, lsl #18
    33a8:	66c30500 	strbvs	r0, [r3], r0, lsl #10
    33ac:	20000005 	andcs	r0, r0, r5
    33b0:	000c830c 	andeq	r8, ip, ip, lsl #6
    33b4:	90c50500 	sbcls	r0, r5, r0, lsl #10
    33b8:	24000005 	strcs	r0, [r0], #-5
    33bc:	000a5e0c 	andeq	r5, sl, ip, lsl #28
    33c0:	b4c80500 	strblt	r0, [r8], #1280	; 0x500
    33c4:	28000005 	stmdacs	r0, {r0, r2}
    33c8:	000c230c 	andeq	r2, ip, ip, lsl #6
    33cc:	cec90500 	cdpgt	5, 12, cr0, cr9, cr0, {0}
    33d0:	2c000005 	stccs	0, cr0, [r0], {5}
    33d4:	62755f11 	rsbsvs	r5, r5, #17, 30	; 0x44
    33d8:	b6cc0500 	strblt	r0, [ip], r0, lsl #10
    33dc:	30000002 	andcc	r0, r0, r2
    33e0:	70755f11 	rsbsvc	r5, r5, r1, lsl pc
    33e4:	dbcd0500 	blle	ff3447ec <__bss_end__+0xff339e34>
    33e8:	38000002 	stmdacc	r0, {r1}
    33ec:	72755f11 	rsbsvc	r5, r5, #17, 30	; 0x44
    33f0:	25ce0500 	strbcs	r0, [lr, #1280]	; 0x500
    33f4:	3c000000 	stccc	0, cr0, [r0], {-0}
    33f8:	0007790c 	andeq	r7, r7, ip, lsl #18
    33fc:	d4d10500 	ldrble	r0, [r1], #1280	; 0x500
    3400:	40000005 	andmi	r0, r0, r5
    3404:	000bce0c 	andeq	ip, fp, ip, lsl #28
    3408:	e4d20500 	ldrb	r0, [r2], #1280	; 0x500
    340c:	43000005 	movwmi	r0, #5
    3410:	626c5f11 	rsbvs	r5, ip, #17, 30	; 0x44
    3414:	b6d50500 	ldrblt	r0, [r5], r0, lsl #10
    3418:	44000002 	strmi	r0, [r0], #-2
    341c:	0007dc0c 	andeq	sp, r7, ip, lsl #24
    3420:	25d80500 	ldrbcs	r0, [r8, #1280]	; 0x500
    3424:	4c000000 	stcmi	0, cr0, [r0], {-0}
    3428:	0009500c 	andeq	r5, r9, ip
    342c:	7bd90500 	blvc	ff644834 <__bss_end__+0xff639e7c>
    3430:	50000000 	andpl	r0, r0, r0
    3434:	0002430c 	andeq	r4, r2, ip, lsl #6
    3438:	29dc0500 	ldmibcs	ip, {r8, sl}^
    343c:	54000004 	strpl	r0, [r0], #-4
    3440:	0009380c 	andeq	r3, r9, ip, lsl #16
    3444:	ffe00500 			; <UNDEFINED> instruction: 0xffe00500
    3448:	58000000 	stmdapl	r0, {}	; <UNPREDICTABLE>
    344c:	0009f40c 	andeq	pc, r9, ip, lsl #8
    3450:	f4e20500 	vld2.16	{d16[0],d17[0]}, [r2], r0
    3454:	5c000000 	stcpl	0, cr0, [r0], {-0}
    3458:	00093e0c 	andeq	r3, r9, ip, lsl #28
    345c:	25e30500 	strbcs	r0, [r3, #1280]!	; 0x500
    3460:	64000000 	strvs	r0, [r0], #-0
    3464:	00251500 	eoreq	r1, r5, r0, lsl #10
    3468:	04290000 	strteq	r0, [r9], #-0
    346c:	29160000 	ldmdbcs	r6, {}	; <UNPREDICTABLE>
    3470:	16000004 	strne	r0, [r0], -r4
    3474:	0000010a 	andeq	r0, r0, sl, lsl #2
    3478:	00010c16 	andeq	r0, r1, r6, lsl ip
    347c:	00251600 	eoreq	r1, r5, r0, lsl #12
    3480:	0e000000 	cdpeq	0, 0, cr0, cr0, cr0, {0}
    3484:	00043404 	andeq	r3, r4, r4, lsl #8
    3488:	04290f00 	strteq	r0, [r9], #-3840	; 0xf00
    348c:	41170000 	tstmi	r7, r0
    3490:	2800000a 	stmdacs	r0, {r1, r3}
    3494:	02380504 	eorseq	r0, r8, #4, 10	; 0x1000000
    3498:	00000566 	andeq	r0, r0, r6, ror #10
    349c:	0009bc18 	andeq	fp, r9, r8, lsl ip
    34a0:	023a0500 	eorseq	r0, sl, #0, 10
    34a4:	00000025 	andeq	r0, r0, r5, lsr #32
    34a8:	07d51800 	ldrbeq	r1, [r5, r0, lsl #16]
    34ac:	3f050000 	svccc	0x00050000
    34b0:	00063b02 	andeq	r3, r6, r2, lsl #22
    34b4:	c9180400 	ldmdbgt	r8, {sl}
    34b8:	05000008 	streq	r0, [r0, #-8]
    34bc:	063b023f 			; <UNDEFINED> instruction: 0x063b023f
    34c0:	18080000 	stmdane	r8, {}	; <UNPREDICTABLE>
    34c4:	0000088a 	andeq	r0, r0, sl, lsl #17
    34c8:	3b023f05 	blcc	930e4 <__bss_end__+0x8872c>
    34cc:	0c000006 	stceq	0, cr0, [r0], {6}
    34d0:	000a1518 	andeq	r1, sl, r8, lsl r5
    34d4:	02410500 	subeq	r0, r1, #0, 10
    34d8:	00000025 	andeq	r0, r0, r5, lsr #32
    34dc:	07001810 	smladeq	r0, r0, r8, r1
    34e0:	42050000 	andmi	r0, r5, #0
    34e4:	00081d02 	andeq	r1, r8, r2, lsl #26
    34e8:	33181400 	tstcc	r8, #0, 8
    34ec:	0500000b 	streq	r0, [r0, #-11]
    34f0:	00250244 	eoreq	r0, r5, r4, asr #4
    34f4:	18300000 	ldmdane	r0!, {}	; <UNPREDICTABLE>
    34f8:	00000a1f 	andeq	r0, r0, pc, lsl sl
    34fc:	8a024505 	bhi	94918 <__bss_end__+0x89f60>
    3500:	34000005 	strcc	r0, [r0], #-5
    3504:	00098218 	andeq	r8, r9, r8, lsl r2
    3508:	02470500 	subeq	r0, r7, #0, 10
    350c:	00000025 	andeq	r0, r0, r5, lsr #32
    3510:	0a2f1838 	beq	bc95f8 <__bss_end__+0xbbec40>
    3514:	49050000 	stmdbmi	r5, {}	; <UNPREDICTABLE>
    3518:	00083802 	andeq	r3, r8, r2, lsl #16
    351c:	14183c00 	ldrne	r3, [r8], #-3072	; 0xc00
    3520:	05000009 	streq	r0, [r0, #-9]
    3524:	017c024c 	cmneq	ip, ip, asr #4
    3528:	18400000 	stmdane	r0, {}^	; <UNPREDICTABLE>
    352c:	000008a9 	andeq	r0, r0, r9, lsr #17
    3530:	25024d05 	strcs	r4, [r2, #-3333]	; 0xd05
    3534:	44000000 	strmi	r0, [r0], #-0
    3538:	000c3d18 	andeq	r3, ip, r8, lsl sp
    353c:	024e0500 	subeq	r0, lr, #0, 10
    3540:	0000017c 	andeq	r0, r0, ip, ror r1
    3544:	09991848 	ldmibeq	r9, {r3, r6, fp, ip}
    3548:	4f050000 	svcmi	0x00050000
    354c:	00083e02 	andeq	r3, r8, r2, lsl #28
    3550:	d1184c00 	tstle	r8, r0, lsl #24
    3554:	05000008 	streq	r0, [r0, #-8]
    3558:	00250252 	eoreq	r0, r5, r2, asr r2
    355c:	18500000 	ldmdane	r0, {}^	; <UNPREDICTABLE>
    3560:	000007f8 	strdeq	r0, [r0], -r8
    3564:	0c025305 	stceq	3, cr5, [r2], {5}
    3568:	54000001 	strpl	r0, [r0], #-1
    356c:	0009b518 	andeq	fp, r9, r8, lsl r5
    3570:	02760500 	rsbseq	r0, r6, #0, 10
    3574:	000007fb 	strdeq	r0, [r0], -fp
    3578:	097a1958 	ldmdbeq	sl!, {r3, r4, r6, r8, fp, ip}^
    357c:	7a050000 	bvc	143584 <__bss_end__+0x138bcc>
    3580:	00029902 	andeq	r9, r2, r2, lsl #18
    3584:	19014800 	stmdbne	r1, {fp, lr}
    3588:	000008e6 	andeq	r0, r0, r6, ror #17
    358c:	5b027b05 	blpl	a21a8 <__bss_end__+0x977f0>
    3590:	4c000002 	stcmi	0, cr0, [r0], {2}
    3594:	0b9f1901 	bleq	fe7c99a0 <__bss_end__+0xfe7befe8>
    3598:	7f050000 	svcvc	0x00050000
    359c:	00084f02 	andeq	r4, r8, r2, lsl #30
    35a0:	1902dc00 	stmdbne	r2, {sl, fp, ip, lr, pc}
    35a4:	000007be 			; <UNDEFINED> instruction: 0x000007be
    35a8:	00028405 	andeq	r8, r2, r5, lsl #8
    35ac:	e0000006 	and	r0, r0, r6
    35b0:	07a31902 	streq	r1, [r3, r2, lsl #18]!
    35b4:	85050000 	strhi	r0, [r5, #-0]
    35b8:	00085b02 	andeq	r5, r8, r2, lsl #22
    35bc:	0002ec00 	andeq	lr, r2, r0, lsl #24
    35c0:	040b040e 	streq	r0, [fp], #-1038	; 0x40e
    35c4:	25150000 	ldrcs	r0, [r5, #-0]
    35c8:	8a000000 	bhi	35d0 <_start-0x4a30>
    35cc:	16000005 	strne	r0, [r0], -r5
    35d0:	00000429 	andeq	r0, r0, r9, lsr #8
    35d4:	00010a16 	andeq	r0, r1, r6, lsl sl
    35d8:	058a1600 	streq	r1, [sl, #1536]	; 0x600
    35dc:	25160000 	ldrcs	r0, [r6, #-0]
    35e0:	00000000 	andeq	r0, r0, r0
    35e4:	0119040e 	tsteq	r9, lr, lsl #8
    35e8:	040e0000 	streq	r0, [lr], #-0
    35ec:	0000056c 	andeq	r0, r0, ip, ror #10
    35f0:	00008615 	andeq	r8, r0, r5, lsl r6
    35f4:	0005b400 	andeq	fp, r5, r0, lsl #8
    35f8:	04291600 	strteq	r1, [r9], #-1536	; 0x600
    35fc:	0a160000 	beq	583604 <__bss_end__+0x578c4c>
    3600:	16000001 	strne	r0, [r0], -r1
    3604:	00000086 	andeq	r0, r0, r6, lsl #1
    3608:	00002516 	andeq	r2, r0, r6, lsl r5
    360c:	040e0000 	streq	r0, [lr], #-0
    3610:	00000596 	muleq	r0, r6, r5
    3614:	00002515 	andeq	r2, r0, r5, lsl r5
    3618:	0005ce00 	andeq	ip, r5, r0, lsl #28
    361c:	04291600 	strteq	r1, [r9], #-1536	; 0x600
    3620:	0a160000 	beq	583628 <__bss_end__+0x578c70>
    3624:	00000001 	andeq	r0, r0, r1
    3628:	05ba040e 	ldreq	r0, [sl, #1038]!	; 0x40e
    362c:	54090000 	strpl	r0, [r9], #-0
    3630:	e4000000 	str	r0, [r0], #-0
    3634:	0a000005 	beq	3650 <_start-0x49b0>
    3638:	000000cc 	andeq	r0, r0, ip, asr #1
    363c:	54090002 	strpl	r0, [r9], #-2
    3640:	f4000000 	vst4.8	{d0-d3}, [r0], r0
    3644:	0a000005 	beq	3660 <_start-0x49a0>
    3648:	000000cc 	andeq	r0, r0, ip, asr #1
    364c:	da060000 	ble	183654 <__bss_end__+0x178c9c>
    3650:	05000009 	streq	r0, [r0, #-9]
    3654:	02e1011d 	rsceq	r0, r1, #1073741831	; 0x40000007
    3658:	611a0000 	tstvs	sl, r0
    365c:	0c00000b 	stceq	0, cr0, [r0], {11}
    3660:	35012105 	strcc	r2, [r1, #-261]	; 0x105
    3664:	18000006 	stmdane	r0, {r1, r2}
    3668:	00000a02 	andeq	r0, r0, r2, lsl #20
    366c:	35012305 	strcc	r2, [r1, #-773]	; 0x305
    3670:	00000006 	andeq	r0, r0, r6
    3674:	0008df18 	andeq	sp, r8, r8, lsl pc
    3678:	01240500 	teqeq	r4, r0, lsl #10
    367c:	00000025 	andeq	r0, r0, r5, lsr #32
    3680:	09d41804 	ldmibeq	r4, {r2, fp, ip}^
    3684:	25050000 	strcs	r0, [r5, #-0]
    3688:	00063b01 	andeq	r3, r6, r1, lsl #22
    368c:	0e000800 	cdpeq	8, 0, cr0, cr0, cr0, {0}
    3690:	00060004 	andeq	r0, r6, r4
    3694:	f4040e00 			; <UNDEFINED> instruction: 0xf4040e00
    3698:	1a000005 	bne	36b4 <_start-0x494c>
    369c:	000006f8 	strdeq	r0, [r0], -r8
    36a0:	013d050e 	teqeq	sp, lr, lsl #10
    36a4:	00000676 	andeq	r0, r0, r6, ror r6
    36a8:	000a4818 	andeq	r4, sl, r8, lsl r8
    36ac:	013e0500 	teqeq	lr, r0, lsl #10
    36b0:	00000676 	andeq	r0, r0, r6, ror r6
    36b4:	0a821800 	beq	fe0896bc <__bss_end__+0xfe07ed04>
    36b8:	3f050000 	svccc	0x00050000
    36bc:	00067601 	andeq	r7, r6, r1, lsl #12
    36c0:	06180600 	ldreq	r0, [r8], -r0, lsl #12
    36c4:	0500000b 	streq	r0, [r0, #-11]
    36c8:	005b0140 	subseq	r0, fp, r0, asr #2
    36cc:	000c0000 	andeq	r0, ip, r0
    36d0:	00005b09 	andeq	r5, r0, r9, lsl #22
    36d4:	00068600 	andeq	r8, r6, r0, lsl #12
    36d8:	00cc0a00 	sbceq	r0, ip, r0, lsl #20
    36dc:	00020000 	andeq	r0, r2, r0
    36e0:	5705d01b 	smladpl	r5, fp, r0, sp
    36e4:	00078702 	andeq	r8, r7, r2, lsl #14
    36e8:	0b451800 	bleq	11496f0 <__bss_end__+0x113ed38>
    36ec:	59050000 	stmdbpl	r5, {}	; <UNPREDICTABLE>
    36f0:	00002c02 	andeq	r2, r0, r2, lsl #24
    36f4:	f0180000 			; <UNDEFINED> instruction: 0xf0180000
    36f8:	0500000a 	streq	r0, [r0, #-10]
    36fc:	010c025a 	tsteq	ip, sl, asr r2
    3700:	18040000 	stmdane	r4, {}	; <UNPREDICTABLE>
    3704:	000008fb 	strdeq	r0, [r0], -fp
    3708:	87025b05 	strhi	r5, [r2, -r5, lsl #22]
    370c:	08000007 	stmdaeq	r0, {r0, r1, r2}
    3710:	000c1418 	andeq	r1, ip, r8, lsl r4
    3714:	025c0500 	subseq	r0, ip, #0, 10
    3718:	00000192 	muleq	r0, r2, r1
    371c:	089a1824 	ldmeq	sl, {r2, r5, fp, ip}
    3720:	5d050000 	stcpl	0, cr0, [r5, #-0]
    3724:	00002502 	andeq	r2, r0, r2, lsl #10
    3728:	fd184800 	ldc2	8, cr4, [r8, #-0]
    372c:	05000009 	streq	r0, [r0, #-9]
    3730:	0069025e 	rsbeq	r0, r9, lr, asr r2
    3734:	18500000 	ldmdane	r0, {}^	; <UNPREDICTABLE>
    3738:	00000c2a 	andeq	r0, r0, sl, lsr #24
    373c:	41025f05 	tstmi	r2, r5, lsl #30
    3740:	58000006 	stmdapl	r0, {r1, r2}
    3744:	000a0818 	andeq	r0, sl, r8, lsl r8
    3748:	02600500 	rsbeq	r0, r0, #0, 10
    374c:	000000f4 	strdeq	r0, [r0], -r4
    3750:	0c2f1868 	stceq	8, cr1, [pc], #-416	; 35b8 <_start-0x4a48>
    3754:	61050000 	mrsvs	r0, (UNDEF: 5)
    3758:	0000f402 	andeq	pc, r0, r2, lsl #8
    375c:	5d187000 	ldcpl	0, cr7, [r8, #-0]
    3760:	05000007 	streq	r0, [r0, #-7]
    3764:	00f40262 	rscseq	r0, r4, r2, ror #4
    3768:	18780000 	ldmdane	r8!, {}^	; <UNPREDICTABLE>
    376c:	00000b81 	andeq	r0, r0, r1, lsl #23
    3770:	97026305 	strls	r6, [r2, -r5, lsl #6]
    3774:	80000007 	andhi	r0, r0, r7
    3778:	0008ef18 	andeq	lr, r8, r8, lsl pc
    377c:	02640500 	rsbeq	r0, r4, #0, 10
    3780:	000007a7 	andeq	r0, r0, r7, lsr #15
    3784:	0b131888 	bleq	4c99ac <__bss_end__+0x4beff4>
    3788:	65050000 	strvs	r0, [r5, #-0]
    378c:	00002502 	andeq	r2, r0, r2, lsl #10
    3790:	4618a000 	ldrmi	sl, [r8], -r0
    3794:	05000008 	streq	r0, [r0, #-8]
    3798:	00f40266 	rscseq	r0, r4, r6, ror #4
    379c:	18a40000 	stmiane	r4!, {}	; <UNPREDICTABLE>
    37a0:	0000074e 	andeq	r0, r0, lr, asr #14
    37a4:	f4026705 	vst1.8	{d6}, [r2], r5
    37a8:	ac000000 	stcge	0, cr0, [r0], {-0}
    37ac:	00083518 	andeq	r3, r8, r8, lsl r5
    37b0:	02680500 	rsbeq	r0, r8, #0, 10
    37b4:	000000f4 	strdeq	r0, [r0], -r4
    37b8:	071518b4 			; <UNDEFINED> instruction: 0x071518b4
    37bc:	69050000 	stmdbvs	r5, {}	; <UNPREDICTABLE>
    37c0:	0000f402 	andeq	pc, r0, r2, lsl #8
    37c4:	2418bc00 	ldrcs	fp, [r8], #-3072	; 0xc00
    37c8:	05000007 	streq	r0, [r0, #-7]
    37cc:	00f4026a 	rscseq	r0, r4, sl, ror #4
    37d0:	18c40000 	stmiane	r4, {}^	; <UNPREDICTABLE>
    37d4:	000009ba 			; <UNDEFINED> instruction: 0x000009ba
    37d8:	25026b05 	strcs	r6, [r2, #-2821]	; 0xb05
    37dc:	cc000000 	stcgt	0, cr0, [r0], {-0}
    37e0:	01120900 	tsteq	r2, r0, lsl #18
    37e4:	07970000 	ldreq	r0, [r7, r0]
    37e8:	cc0a0000 	stcgt	0, cr0, [sl], {-0}
    37ec:	19000000 	stmdbne	r0, {}	; <UNPREDICTABLE>
    37f0:	01120900 	tsteq	r2, r0, lsl #18
    37f4:	07a70000 	streq	r0, [r7, r0]!
    37f8:	cc0a0000 	stcgt	0, cr0, [sl], {-0}
    37fc:	07000000 	streq	r0, [r0, -r0]
    3800:	01120900 	tsteq	r2, r0, lsl #18
    3804:	07b70000 	ldreq	r0, [r7, r0]!
    3808:	cc0a0000 	stcgt	0, cr0, [sl], {-0}
    380c:	17000000 	strne	r0, [r0, -r0]
    3810:	05f01b00 	ldrbeq	r1, [r0, #2816]!	; 0xb00
    3814:	07db0270 			; <UNDEFINED> instruction: 0x07db0270
    3818:	6a180000 	bvs	603820 <__bss_end__+0x5f8e68>
    381c:	05000009 	streq	r0, [r0, #-9]
    3820:	07db0273 			; <UNDEFINED> instruction: 0x07db0273
    3824:	18000000 	stmdane	r0, {}	; <UNPREDICTABLE>
    3828:	00000b78 	andeq	r0, r0, r8, ror fp
    382c:	eb027405 	bl	a0848 <__bss_end__+0x95e90>
    3830:	78000007 	stmdavc	r0, {r0, r1, r2}
    3834:	02db0900 	sbcseq	r0, fp, #0, 18
    3838:	07eb0000 	strbeq	r0, [fp, r0]!
    383c:	cc0a0000 	stcgt	0, cr0, [sl], {-0}
    3840:	1d000000 	stcne	0, cr0, [r0, #-0]
    3844:	002c0900 	eoreq	r0, ip, r0, lsl #18
    3848:	07fb0000 	ldrbeq	r0, [fp, r0]!
    384c:	cc0a0000 	stcgt	0, cr0, [sl], {-0}
    3850:	1d000000 	stcne	0, cr0, [r0, #-0]
    3854:	05f01c00 	ldrbeq	r1, [r0, #3072]!	; 0xc00
    3858:	081d0255 	ldmdaeq	sp, {r0, r2, r4, r6, r9}
    385c:	411d0000 	tstmi	sp, r0
    3860:	0500000a 	streq	r0, [r0, #-10]
    3864:	0686026c 	streq	r0, [r6], ip, ror #4
    3868:	d41d0000 	ldrle	r0, [sp], #-0
    386c:	0500000b 	streq	r0, [r0, #-11]
    3870:	07b70275 			; <UNDEFINED> instruction: 0x07b70275
    3874:	09000000 	stmdbeq	r0, {}	; <UNPREDICTABLE>
    3878:	00000112 	andeq	r0, r0, r2, lsl r1
    387c:	0000082d 	andeq	r0, r0, sp, lsr #16
    3880:	0000cc0a 	andeq	ip, r0, sl, lsl #24
    3884:	1e001800 	cdpne	8, 0, cr1, cr0, cr0, {0}
    3888:	00000838 	andeq	r0, r0, r8, lsr r8
    388c:	00042916 	andeq	r2, r4, r6, lsl r9
    3890:	040e0000 	streq	r0, [lr], #-0
    3894:	0000082d 	andeq	r0, r0, sp, lsr #16
    3898:	017c040e 	cmneq	ip, lr, lsl #8
    389c:	4f1e0000 	svcmi	0x001e0000
    38a0:	16000008 	strne	r0, [r0], -r8
    38a4:	00000025 	andeq	r0, r0, r5, lsr #32
    38a8:	55040e00 	strpl	r0, [r4, #-3584]	; 0xe00
    38ac:	0e000008 	cdpeq	0, 0, cr0, cr0, cr8, {0}
    38b0:	00084404 	andeq	r4, r8, r4, lsl #8
    38b4:	05f40900 	ldrbeq	r0, [r4, #2304]!	; 0x900
    38b8:	086b0000 	stmdaeq	fp!, {}^	; <UNPREDICTABLE>
    38bc:	cc0a0000 	stcgt	0, cr0, [sl], {-0}
    38c0:	02000000 	andeq	r0, r0, #0
    38c4:	0b271f00 	bleq	9cb4cc <__bss_end__+0x9c0b14>
    38c8:	fd050000 	stc2	0, cr0, [r5, #-0]
    38cc:	00042902 	andeq	r2, r4, r2, lsl #18
    38d0:	0b201f00 	bleq	80b4d8 <__bss_end__+0x800b20>
    38d4:	fe050000 	cdp2	0, 0, cr0, cr5, cr0, {0}
    38d8:	00042f02 	andeq	r2, r4, r2, lsl #30
    38dc:	00251500 	eoreq	r1, r5, r0, lsl #10
    38e0:	08920000 	ldmeq	r2, {}	; <UNPREDICTABLE>
    38e4:	25160000 	ldrcs	r0, [r6, #-0]
    38e8:	00000000 	andeq	r0, r0, r0
    38ec:	00052a20 	andeq	r2, r5, r0, lsr #20
    38f0:	9d1d0600 	ldcls	6, cr0, [sp, #-0]
    38f4:	0e000008 	cdpeq	0, 0, cr0, cr0, cr8, {0}
    38f8:	00088304 	andeq	r8, r8, r4, lsl #6
    38fc:	00251500 	eoreq	r1, r5, r0, lsl #10
    3900:	08b20000 	ldmeq	r2!, {}	; <UNPREDICTABLE>
    3904:	8a160000 	bhi	58390c <__bss_end__+0x578f54>
    3908:	00000005 	andeq	r0, r0, r5
    390c:	00056720 	andeq	r6, r5, r0, lsr #14
    3910:	bd220600 	stclt	6, cr0, [r2, #-0]
    3914:	0e000008 	cdpeq	0, 0, cr0, cr0, cr8, {0}
    3918:	0008a304 	andeq	sl, r8, r4, lsl #6
    391c:	54012100 	strpl	r2, [r1], #-256	; 0x100
    3920:	08000000 	stmdaeq	r0, {}	; <UNPREDICTABLE>
    3924:	0009000c 	andeq	r0, r9, ip
    3928:	073e2200 	ldreq	r2, [lr, -r0, lsl #4]!
    392c:	22000000 	andcs	r0, r0, #0
    3930:	00000b67 	andeq	r0, r0, r7, ror #22
    3934:	0bbf2201 	bleq	fefcc140 <__bss_end__+0xfefc1788>
    3938:	22040000 	andcs	r0, r4, #0
    393c:	0000077f 	andeq	r0, r0, pc, ror r7
    3940:	09222205 	stmdbeq	r2!, {r0, r2, r9, sp}
    3944:	22060000 	andcs	r0, r6, #0
    3948:	00000bdc 	ldrdeq	r0, [r0], -ip
    394c:	0beb2207 	bleq	ffacc170 <__bss_end__+0xffac17b8>
    3950:	22030000 	andcs	r0, r3, #0
    3954:	00000bfa 	strdeq	r0, [r0], -sl
    3958:	ec100002 	ldc	0, cr0, [r0], {2}
    395c:	2c000007 	stccs	0, cr0, [r0], {7}
    3960:	09900607 	ldmibeq	r0, {r0, r1, r2, r9, sl}
    3964:	69110000 	ldmdbvs	r1, {}	; <UNPREDICTABLE>
    3968:	0907006f 	stmdbeq	r7, {r0, r1, r2, r3, r5, r6}
    396c:	00000033 	andeq	r0, r0, r3, lsr r0
    3970:	65691100 	strbvs	r1, [r9, #-256]!	; 0x100
    3974:	0a070072 	beq	1c3b44 <__bss_end__+0x1b918c>
    3978:	00000033 	andeq	r0, r0, r3, lsr r0
    397c:	69691104 	stmdbvs	r9!, {r2, r8, ip}^
    3980:	11070072 	tstne	r7, r2, ror r0
    3984:	00000033 	andeq	r0, r0, r3, lsr r0
    3988:	636c1108 	cmnvs	ip, #8, 2
    398c:	13070072 	movwne	r0, #28786	; 0x7072
    3990:	00000033 	andeq	r0, r0, r3, lsr r0
    3994:	636d110c 	cmnvs	sp, #12, 2
    3998:	14070072 	strne	r0, [r7], #-114	; 0x72
    399c:	00000033 	andeq	r0, r0, r3, lsr r0
    39a0:	736c1110 	cmnvc	ip, #16, 2
    39a4:	15070072 	strne	r0, [r7, #-114]	; 0x72
    39a8:	00000033 	andeq	r0, r0, r3, lsr r0
    39ac:	736d1114 	cmnvc	sp, #20, 2
    39b0:	16070072 			; <UNDEFINED> instruction: 0x16070072
    39b4:	00000033 	andeq	r0, r0, r3, lsr r0
    39b8:	0a7a0c18 	beq	1e86a20 <__bss_end__+0x1e7c068>
    39bc:	17070000 	strne	r0, [r7, -r0]
    39c0:	00000033 	andeq	r0, r0, r3, lsr r0
    39c4:	07940c1c 			; <UNDEFINED> instruction: 0x07940c1c
    39c8:	1b070000 	blne	1c39d0 <__bss_end__+0x1b9018>
    39cc:	00000033 	andeq	r0, r0, r3, lsr r0
    39d0:	07740c20 	ldrbeq	r0, [r4, -r0, lsr #24]!
    39d4:	1d070000 	stcne	0, cr0, [r7, #-0]
    39d8:	00000033 	andeq	r0, r0, r3, lsr r0
    39dc:	0a640c24 	beq	1906a74 <__bss_end__+0x18fc0bc>
    39e0:	1e070000 	cdpne	0, 0, cr0, cr7, cr0, {0}
    39e4:	00000033 	andeq	r0, r0, r3, lsr r0
    39e8:	5c230028 	stcpl	0, cr0, [r3], #-160	; 0xffffff60
    39ec:	01000008 	tsteq	r0, r8
    39f0:	0009a507 	andeq	sl, r9, r7, lsl #10
    39f4:	21500400 	cmpcs	r0, r0, lsl #8
    39f8:	33040e20 	movwcc	r0, #20000	; 0x4e20
    39fc:	0f000000 	svceq	0x00000000
    3a00:	0000099f 	muleq	r0, pc, r9	; <UNPREDICTABLE>
    3a04:	00099423 	andeq	r9, r9, r3, lsr #8
    3a08:	bf280100 	svclt	0x00280100
    3a0c:	40000009 	andmi	r0, r0, r9
    3a10:	0e202150 	mcreq	1, 1, r2, cr0, cr0, {2}
    3a14:	00090004 	andeq	r0, r9, r4
    3a18:	09b90f00 	ldmibeq	r9!, {r8, r9, sl, fp}
    3a1c:	b1240000 	teqlt	r4, r0
    3a20:	0100000b 	tsteq	r0, fp
    3a24:	000025a7 	andeq	r2, r0, r7, lsr #11
    3a28:	0098d400 	addseq	sp, r8, r0, lsl #8
    3a2c:	00001000 	andeq	r1, r0, r0
    3a30:	f09c0100 			; <UNDEFINED> instruction: 0xf09c0100
    3a34:	25000009 	strcs	r0, [r0, #-9]
    3a38:	000098dc 	ldrdeq	r9, [r0], -ip
    3a3c:	00000c9c 	muleq	r0, ip, ip
    3a40:	0098e025 	addseq	lr, r8, r5, lsr #32
    3a44:	000ad200 	andeq	sp, sl, r0, lsl #4
    3a48:	0f260000 	svceq	0x00260000
    3a4c:	01000005 	tsteq	r0, r5
    3a50:	0098a49f 	umullseq	sl, r8, pc, r4	; <UNPREDICTABLE>
    3a54:	00003000 	andeq	r3, r0, r0
    3a58:	4e9c0100 	fmlmie	f0, f4, f0
    3a5c:	2700000a 	strcs	r0, [r0, -sl]
    3a60:	9f010063 	svcls	0x00010063
    3a64:	0000002c 	andeq	r0, r0, ip, lsr #32
    3a68:	000014a3 	andeq	r1, r0, r3, lsr #9
    3a6c:	0098b025 	addseq	fp, r8, r5, lsr #32
    3a70:	000c9c00 	andeq	r9, ip, r0, lsl #24
    3a74:	98b42500 	ldmls	r4!, {r8, sl, sp}
    3a78:	0aa50000 	beq	fe943a80 <__bss_end__+0xfe9390c8>
    3a7c:	c8280000 	stmdagt	r8!, {}	; <UNPREDICTABLE>
    3a80:	a7000098 			; <UNDEFINED> instruction: 0xa7000098
    3a84:	4400000c 	strmi	r0, [r0], #-12
    3a88:	2900000a 	stmdbcs	r0, {r1, r3}
    3a8c:	0c055001 	stceq	0, cr5, [r5], {1}
    3a90:	20215040 	eorcs	r5, r1, r0, asr #32
    3a94:	05510129 	ldrbeq	r0, [r1, #-297]	; 0x129
    3a98:	ff080074 			; <UNDEFINED> instruction: 0xff080074
    3a9c:	cc25001a 	stcgt	0, cr0, [r5], #-104	; 0xffffff98
    3aa0:	9c000098 	stcls	0, cr0, [r0], {152}	; 0x98
    3aa4:	0000000c 	andeq	r0, r0, ip
    3aa8:	0008bf24 	andeq	fp, r8, r4, lsr #30
    3aac:	25970100 	ldrcs	r0, [r7, #256]	; 0x100
    3ab0:	74000000 	strvc	r0, [r0], #-0
    3ab4:	30000098 	mulcc	r0, r8, r0
    3ab8:	01000000 	mrseq	r0, (UNDEF: 0)
    3abc:	000aa59c 	muleq	sl, ip, r5
    3ac0:	00632a00 	rsbeq	r2, r3, r0, lsl #20
    3ac4:	00259b01 	eoreq	r9, r5, r1, lsl #22
    3ac8:	54010000 	strpl	r0, [r1], #-0
    3acc:	00987c25 	addseq	r7, r8, r5, lsr #24
    3ad0:	000c9c00 	andeq	r9, ip, r0, lsl #24
    3ad4:	98802500 	stmls	r0, {r8, sl, sp}
    3ad8:	0ad20000 	beq	ff483ae0 <__bss_end__+0xff479128>
    3adc:	90280000 	eorls	r0, r8, r0
    3ae0:	b2000098 	andlt	r0, r0, #152	; 0x98
    3ae4:	9b00000c 	blls	3b1c <_start-0x44e4>
    3ae8:	2900000a 	stmdbcs	r0, {r1, r3}
    3aec:	0c055001 	stceq	0, cr5, [r5], {1}
    3af0:	20215040 	eorcs	r5, r1, r0, asr #32
    3af4:	98982500 	ldmls	r8, {r8, sl, sp}
    3af8:	0c9c0000 	ldceq	0, cr0, [ip], {0}
    3afc:	24000000 	strcs	r0, [r0], #-0
    3b00:	00000873 	andeq	r0, r0, r3, ror r8
    3b04:	00258801 	eoreq	r8, r5, r1, lsl #16
    3b08:	98540000 	ldmdals	r4, {}^	; <UNPREDICTABLE>
    3b0c:	00200000 	eoreq	r0, r0, r0
    3b10:	9c010000 	stcls	0, cr0, [r1], {-0}
    3b14:	00000ad2 	ldrdeq	r0, [r0], -r2
    3b18:	0098602b 	addseq	r6, r8, fp, lsr #32
    3b1c:	000cb200 	andeq	fp, ip, r0, lsl #4
    3b20:	50012900 	andpl	r2, r1, r0, lsl #18
    3b24:	50640c05 	rsbpl	r0, r4, r5, lsl #24
    3b28:	00002021 	andeq	r2, r0, r1, lsr #32
    3b2c:	000b9124 	andeq	r9, fp, r4, lsr #2
    3b30:	257f0100 	ldrbcs	r0, [pc, #-256]!	; 3a38 <_start-0x45c8>
    3b34:	3c000000 	stccc	0, cr0, [r0], {-0}
    3b38:	18000098 	stmdane	r0, {r3, r4, r7}
    3b3c:	01000000 	mrseq	r0, (UNDEF: 0)
    3b40:	000aff9c 	muleq	sl, ip, pc	; <UNPREDICTABLE>
    3b44:	98482b00 	stmdals	r8, {r8, r9, fp, sp}^
    3b48:	0cb20000 	ldceq	0, cr0, [r2]
    3b4c:	01290000 	teqeq	r9, r0
    3b50:	640c0550 	strvs	r0, [ip], #-1360	; 0x550
    3b54:	00202150 	eoreq	r2, r0, r0, asr r1
    3b58:	070b2600 	streq	r2, [fp, -r0, lsl #12]
    3b5c:	3a010000 	bcc	43b64 <__bss_end__+0x391ac>
    3b60:	0000978c 	andeq	r9, r0, ip, lsl #15
    3b64:	000000b0 	strheq	r0, [r0], -r0	; <UNPREDICTABLE>
    3b68:	0c3d9c01 	ldceq	12, cr9, [sp], #-4
    3b6c:	9c280000 	stcls	0, cr0, [r8], #-0
    3b70:	bd000097 	stclt	0, cr0, [r0, #-604]	; 0xfffffda4
    3b74:	2c00000c 	stccs	0, cr0, [r0], {12}
    3b78:	2900000b 	stmdbcs	r0, {r0, r1, r3}
    3b7c:	3e015001 	cdpcc	0, 0, cr5, cr1, cr1, {0}
    3b80:	01510129 	cmpeq	r1, r9, lsr #2
    3b84:	a8280032 	stmdage	r8!, {r1, r4, r5}
    3b88:	bd000097 	stclt	0, cr0, [r0, #-604]	; 0xfffffda4
    3b8c:	4400000c 	strmi	r0, [r0], #-12
    3b90:	2900000b 	stmdbcs	r0, {r0, r1, r3}
    3b94:	3f015001 	svccc	0x00015001
    3b98:	01510129 	cmpeq	r1, r9, lsr #2
    3b9c:	ac250032 	stcge	0, cr0, [r5], #-200	; 0xffffff38
    3ba0:	9c000097 	stcls	0, cr0, [r0], {151}	; 0x97
    3ba4:	2800000c 	stmdacs	r0, {r2, r3}
    3ba8:	000097b8 			; <UNDEFINED> instruction: 0x000097b8
    3bac:	00000c3d 	andeq	r0, r0, sp, lsr ip
    3bb0:	00000b69 	andeq	r0, r0, r9, ror #22
    3bb4:	05500129 	ldrbeq	r0, [r0, #-297]	; 0x129
    3bb8:	2150040c 	cmpcs	r0, ip, lsl #8
    3bbc:	51012920 	tstpl	r1, r0, lsr #18
    3bc0:	25003101 	strcs	r3, [r0, #-257]	; 0x101
    3bc4:	000097bc 			; <UNDEFINED> instruction: 0x000097bc
    3bc8:	00000c9c 	muleq	r0, ip, ip
    3bcc:	0097cc28 	addseq	ip, r7, r8, lsr #24
    3bd0:	000ca700 	andeq	sl, ip, r0, lsl #14
    3bd4:	000b8b00 	andeq	r8, fp, r0, lsl #22
    3bd8:	50012900 	andpl	r2, r1, r0, lsl #18
    3bdc:	29007402 	stmdbcs	r0, {r1, sl, ip, sp, lr}
    3be0:	30015101 	andcc	r5, r1, r1, lsl #2
    3be4:	97d82800 	ldrbls	r2, [r8, r0, lsl #16]
    3be8:	0ca70000 	stceq	0, cr0, [r7]
    3bec:	0ba70000 	bleq	fe9c3bf4 <__bss_end__+0xfe9b923c>
    3bf0:	01290000 	teqeq	r9, r0
    3bf4:	440c0550 	strmi	r0, [ip], #-1360	; 0x550
    3bf8:	29202150 	stmdbcs	r0!, {r4, r6, r8, sp}
    3bfc:	30015101 	andcc	r5, r1, r1, lsl #2
    3c00:	97e42800 	strbls	r2, [r4, r0, lsl #16]!
    3c04:	0ca70000 	stceq	0, cr0, [r7]
    3c08:	0bc30000 	bleq	ff0c3c10 <__bss_end__+0xff0b9258>
    3c0c:	01290000 	teqeq	r9, r0
    3c10:	4c0c0550 	cfstr32mi	mvfx0, [ip], {80}	; 0x50
    3c14:	29202150 	stmdbcs	r0!, {r4, r6, r8, sp}
    3c18:	33015101 	movwcc	r5, #4353	; 0x1101
    3c1c:	97f02800 	ldrbls	r2, [r0, r0, lsl #16]!
    3c20:	0ca70000 	stceq	0, cr0, [r7]
    3c24:	0bdf0000 	bleq	ff7c3c2c <__bss_end__+0xff7b9274>
    3c28:	01290000 	teqeq	r9, r0
    3c2c:	500c0550 	andpl	r0, ip, r0, asr r5
    3c30:	29202150 	stmdbcs	r0!, {r4, r6, r8, sp}
    3c34:	30015101 	andcc	r5, r1, r1, lsl #2
    3c38:	97fc2800 	ldrbls	r2, [ip, r0, lsl #16]!
    3c3c:	0ca70000 	stceq	0, cr0, [r7]
    3c40:	0bfc0000 	bleq	fff03c48 <__bss_end__+0xffef9290>
    3c44:	01290000 	teqeq	r9, r0
    3c48:	480c0550 	stmdami	ip, {r4, r6, r8, sl}
    3c4c:	29202150 	stmdbcs	r0!, {r4, r6, r8, sp}
    3c50:	08025101 	stmdaeq	r2, {r0, r8, ip, lr}
    3c54:	082800c7 	stmdaeq	r8!, {r0, r1, r2, r6, r7}
    3c58:	a7000098 			; <UNDEFINED> instruction: 0xa7000098
    3c5c:	1a00000c 	bne	3c94 <_start-0x436c>
    3c60:	2900000c 	stmdbcs	r0, {r2, r3}
    3c64:	0c055001 	stceq	0, cr5, [r5], {1}
    3c68:	20215068 	eorcs	r5, r1, r8, rrx
    3c6c:	03510129 	cmpeq	r1, #1073741834	; 0x4000000a
    3c70:	00010e0a 	andeq	r0, r1, sl, lsl #28
    3c74:	00981428 	addseq	r1, r8, r8, lsr #8
    3c78:	000ca700 	andeq	sl, ip, r0, lsl #14
    3c7c:	000c3300 	andeq	r3, ip, r0, lsl #6
    3c80:	50012900 	andpl	r2, r1, r0, lsl #18
    3c84:	29007402 	stmdbcs	r0, {r1, sl, ip, sp, lr}
    3c88:	33015101 	movwcc	r5, #4353	; 0x1101
    3c8c:	98182500 	ldmdals	r8, {r8, sl, sp}
    3c90:	0c9c0000 	ldceq	0, cr0, [ip], {0}
    3c94:	2c000000 	stccs	0, cr0, [r0], {-0}
    3c98:	00000ba9 	andeq	r0, r0, r9, lsr #23
    3c9c:	976c2d01 	strbls	r2, [ip, -r1, lsl #26]!
    3ca0:	00200000 	eoreq	r0, r0, r0
    3ca4:	9c010000 	stcls	0, cr0, [r1], {-0}
    3ca8:	00000c95 	muleq	r0, r5, ip
    3cac:	000d512d 	andeq	r5, sp, sp, lsr #2
    3cb0:	952d0100 	strls	r0, [sp, #-256]!	; 0x100
    3cb4:	c100000c 	tstgt	r0, ip
    3cb8:	27000014 	smladcs	r0, r4, r0, r0
    3cbc:	006c6176 	rsbeq	r6, ip, r6, ror r1
    3cc0:	002c2d01 	eoreq	r2, ip, r1, lsl #26
    3cc4:	14df0000 	ldrbne	r0, [pc], #0	; 3ccc <_start-0x4334>
    3cc8:	7c280000 	stcvc	0, cr0, [r8], #-0
    3ccc:	b2000097 	andlt	r0, r0, #151	; 0x97
    3cd0:	8400000c 	strhi	r0, [r0], #-12
    3cd4:	2900000c 	stmdbcs	r0, {r2, r3}
    3cd8:	74025001 	strvc	r5, [r2], #-1
    3cdc:	882b0000 	stmdahi	fp!, {}	; <UNPREDICTABLE>
    3ce0:	a7000097 			; <UNDEFINED> instruction: 0xa7000097
    3ce4:	2900000c 	stmdbcs	r0, {r2, r3}
    3ce8:	74025001 	strvc	r5, [r2], #-1
    3cec:	0e000000 	cdpeq	0, 0, cr0, cr0, cr0, {0}
    3cf0:	000c9b04 	andeq	r9, ip, r4, lsl #22
    3cf4:	082f2e00 	stmdaeq	pc!, {r9, sl, fp, sp}	; <UNPREDICTABLE>
    3cf8:	08000009 	stmdaeq	r0, {r0, r3}
    3cfc:	06000009 	streq	r0, [r0], -r9
    3d00:	0a882f89 	beq	fe20fb2c <__bss_end__+0xfe205174>
    3d04:	0a880000 	beq	fe203d0c <__bss_end__+0xfe1f9354>
    3d08:	9c060000 	stcls	0, cr0, [r6], {-0}
    3d0c:	000b8b2f 	andeq	r8, fp, pc, lsr #22
    3d10:	000b8b00 	andeq	r8, fp, r0, lsl #22
    3d14:	2fa80600 	svccs	0x00a80600
    3d18:	00000958 	andeq	r0, r0, r8, asr r9
    3d1c:	00000958 	andeq	r0, r0, r8, asr r9
    3d20:	70001908 	andvc	r1, r0, r8, lsl #18
    3d24:	0400000b 	streq	r0, [r0], #-11
    3d28:	00121100 	andseq	r1, r2, r0, lsl #2
    3d2c:	8e010400 	cfcpyshi	mvf0, mvf1
    3d30:	0c00000a 	stceq	0, cr0, [r0], {10}
    3d34:	00000c5e 	andeq	r0, r0, lr, asr ip
    3d38:	00000800 	andeq	r0, r0, r0, lsl #16
    3d3c:	000098e4 	andeq	r9, r0, r4, ror #17
    3d40:	00000120 	andeq	r0, r0, r0, lsr #2
    3d44:	00001060 	andeq	r1, r0, r0, rrx
    3d48:	69050402 	stmdbvs	r5, {r1, sl}
    3d4c:	0300746e 	movweq	r7, #1134	; 0x46e
    3d50:	01340704 	teqeq	r4, r4, lsl #14
    3d54:	2c040000 	stccs	0, cr0, [r4], {-0}
    3d58:	03000000 	movweq	r0, #0
    3d5c:	00e20601 	rsceq	r0, r2, r1, lsl #12
    3d60:	02030000 	andeq	r0, r3, #0
    3d64:	00015805 	andeq	r5, r1, r5, lsl #16
    3d68:	05040300 	streq	r0, [r4, #-768]	; 0x300
    3d6c:	0000014f 	andeq	r0, r0, pc, asr #2
    3d70:	4a050803 	bmi	145d84 <__bss_end__+0x13b3cc>
    3d74:	03000001 	movweq	r0, #1
    3d78:	00e00801 	rsceq	r0, r0, r1, lsl #16
    3d7c:	02030000 	andeq	r0, r3, #0
    3d80:	0000ee07 	andeq	lr, r0, r7, lsl #28
    3d84:	07040300 	streq	r0, [r4, -r0, lsl #6]
    3d88:	0000012f 	andeq	r0, r0, pc, lsr #2
    3d8c:	2a070803 	bcs	1c5da0 <__bss_end__+0x1bb3e8>
    3d90:	05000001 	streq	r0, [r0, #-1]
    3d94:	000009a3 	andeq	r0, r0, r3, lsr #19
    3d98:	00250702 	eoreq	r0, r5, r2, lsl #14
    3d9c:	8d050000 	stchi	0, cr0, [r5, #-0]
    3da0:	03000009 	movweq	r0, #9
    3da4:	0000462c 	andeq	r4, r0, ip, lsr #12
    3da8:	0a690500 	beq	1a451b0 <__bss_end__+0x1a3a7f8>
    3dac:	72030000 	andvc	r0, r3, #0
    3db0:	00000046 	andeq	r0, r0, r6, asr #32
    3db4:	00093106 	andeq	r3, r9, r6, lsl #2
    3db8:	01650400 	cmneq	r5, r0, lsl #8
    3dbc:	0000002c 	andeq	r0, r0, ip, lsr #32
    3dc0:	a6030407 	strge	r0, [r3], -r7, lsl #8
    3dc4:	000000bc 	strheq	r0, [r0], -ip
    3dc8:	00091c08 	andeq	r1, r9, r8, lsl #24
    3dcc:	91a80300 			; <UNDEFINED> instruction: 0x91a80300
    3dd0:	08000000 	stmdaeq	r0, {}	; <UNPREDICTABLE>
    3dd4:	000008b8 			; <UNDEFINED> instruction: 0x000008b8
    3dd8:	00bca903 	adcseq	sl, ip, r3, lsl #18
    3ddc:	09000000 	stmdbeq	r0, {}	; <UNPREDICTABLE>
    3de0:	00000054 	andeq	r0, r0, r4, asr r0
    3de4:	000000cc 	andeq	r0, r0, ip, asr #1
    3de8:	0000cc0a 	andeq	ip, r0, sl, lsl #24
    3dec:	03000300 	movweq	r0, #768	; 0x300
    3df0:	01410704 	cmpeq	r1, r4, lsl #14
    3df4:	080b0000 	stmdaeq	fp, {}	; <UNPREDICTABLE>
    3df8:	00f4a303 	rscseq	sl, r4, r3, lsl #6
    3dfc:	4e0c0000 	cdpmi	0, 0, cr0, cr12, cr0, {0}
    3e00:	0300000a 	movweq	r0, #10
    3e04:	000025a5 	andeq	r2, r0, r5, lsr #11
    3e08:	560c0000 	strpl	r0, [ip], -r0
    3e0c:	0300000a 	movweq	r0, #10
    3e10:	00009daa 	andeq	r9, r0, sl, lsr #27
    3e14:	05000400 	streq	r0, [r0, #-1024]	; 0x400
    3e18:	000009e1 	andeq	r0, r0, r1, ror #19
    3e1c:	00d3ab03 	sbcseq	sl, r3, r3, lsl #22
    3e20:	81050000 	mrshi	r0, (UNDEF: 5)
    3e24:	03000008 	movweq	r0, #8
    3e28:	000070af 	andeq	r7, r0, pc, lsr #1
    3e2c:	0e040d00 	cdpeq	13, 0, cr0, cr4, cr0, {0}
    3e30:	00011204 	andeq	r1, r1, r4, lsl #4
    3e34:	08010300 	stmdaeq	r1, {r8, r9}
    3e38:	000000e9 	andeq	r0, r0, r9, ror #1
    3e3c:	00011204 	andeq	r1, r1, r4, lsl #4
    3e40:	0b0b0500 	bleq	2c5248 <__bss_end__+0x2ba890>
    3e44:	16050000 	strne	r0, [r5], -r0
    3e48:	00000062 	andeq	r0, r0, r2, rrx
    3e4c:	0008920f 	andeq	r9, r8, pc, lsl #4
    3e50:	2d051800 	stccs	8, cr1, [r5, #-0]
    3e54:	0000017c 	andeq	r0, r0, ip, ror r1
    3e58:	000a020c 	andeq	r0, sl, ip, lsl #4
    3e5c:	7c2f0500 	cfstr32vc	mvfx0, [pc], #-0	; 3e64 <_start-0x419c>
    3e60:	00000001 	andeq	r0, r0, r1
    3e64:	006b5f10 	rsbeq	r5, fp, r0, lsl pc
    3e68:	00253005 	eoreq	r3, r5, r5
    3e6c:	0c040000 	stceq	0, cr0, [r4], {-0}
    3e70:	00000a39 	andeq	r0, r0, r9, lsr sl
    3e74:	00253005 	eoreq	r3, r5, r5
    3e78:	0c080000 	stceq	0, cr0, [r8], {-0}
    3e7c:	0000086d 	andeq	r0, r0, sp, ror #16
    3e80:	00253005 	eoreq	r3, r5, r5
    3e84:	0c0c0000 	stceq	0, cr0, [ip], {-0}
    3e88:	00000b52 	andeq	r0, r0, r2, asr fp
    3e8c:	00253005 	eoreq	r3, r5, r5
    3e90:	10100000 	andsne	r0, r0, r0
    3e94:	0500785f 	streq	r7, [r0, #-2143]	; 0x85f
    3e98:	00018231 	andeq	r8, r1, r1, lsr r2
    3e9c:	0e001400 	cfcpyseq	mvf1, mvf0
    3ea0:	00012904 	andeq	r2, r1, r4, lsl #18
    3ea4:	011e0900 	tsteq	lr, r0, lsl #18
    3ea8:	01920000 	orrseq	r0, r2, r0
    3eac:	cc0a0000 	stcgt	0, cr0, [sl], {-0}
    3eb0:	00000000 	andeq	r0, r0, r0
    3eb4:	08b30f00 	ldmeq	r3!, {r8, r9, sl, fp}
    3eb8:	05240000 	streq	r0, [r4, #-0]!
    3ebc:	00020b35 	andeq	r0, r2, r5, lsr fp
    3ec0:	076b0c00 	strbeq	r0, [fp, -r0, lsl #24]!
    3ec4:	37050000 	strcc	r0, [r5, -r0]
    3ec8:	00000025 	andeq	r0, r0, r5, lsr #32
    3ecc:	0a710c00 	beq	1c46ed4 <__bss_end__+0x1c3c51c>
    3ed0:	38050000 	stmdacc	r5, {}	; <UNPREDICTABLE>
    3ed4:	00000025 	andeq	r0, r0, r5, lsr #32
    3ed8:	07990c04 	ldreq	r0, [r9, r4, lsl #24]
    3edc:	39050000 	stmdbcc	r5, {}	; <UNPREDICTABLE>
    3ee0:	00000025 	andeq	r0, r0, r5, lsr #32
    3ee4:	0c420c08 	mcrreq	12, 0, r0, r2, cr8
    3ee8:	3a050000 	bcc	143ef0 <__bss_end__+0x139538>
    3eec:	00000025 	andeq	r0, r0, r5, lsr #32
    3ef0:	09710c0c 	ldmdbeq	r1!, {r2, r3, sl, fp}^
    3ef4:	3b050000 	blcc	143efc <__bss_end__+0x139544>
    3ef8:	00000025 	andeq	r0, r0, r5, lsr #32
    3efc:	09460c10 	stmdbeq	r6, {r4, sl, fp}^
    3f00:	3c050000 	stccc	0, cr0, [r5], {-0}
    3f04:	00000025 	andeq	r0, r0, r5, lsr #32
    3f08:	0b570c14 	bleq	15c6f60 <__bss_end__+0x15bc5a8>
    3f0c:	3d050000 	stccc	0, cr0, [r5, #-0]
    3f10:	00000025 	andeq	r0, r0, r5, lsr #32
    3f14:	09c30c18 	stmibeq	r3, {r3, r4, sl, fp}^
    3f18:	3e050000 	cdpcc	0, 0, cr0, cr5, cr0, {0}
    3f1c:	00000025 	andeq	r0, r0, r5, lsr #32
    3f20:	0c090c1c 	stceq	12, cr0, [r9], {28}
    3f24:	3f050000 	svccc	0x00050000
    3f28:	00000025 	andeq	r0, r0, r5, lsr #32
    3f2c:	a8110020 	ldmdage	r1, {r5}
    3f30:	08000007 	stmdaeq	r0, {r0, r1, r2}
    3f34:	4b480501 	blmi	1205340 <__bss_end__+0x11fa988>
    3f38:	0c000002 	stceq	0, cr0, [r0], {2}
    3f3c:	00000854 	andeq	r0, r0, r4, asr r8
    3f40:	024b4905 	subeq	r4, fp, #81920	; 0x14000
    3f44:	0c000000 	stceq	0, cr0, [r0], {-0}
    3f48:	000006e6 	andeq	r0, r0, r6, ror #13
    3f4c:	024b4a05 	subeq	r4, fp, #20480	; 0x5000
    3f50:	12800000 	addne	r0, r0, #0
    3f54:	00000afd 	strdeq	r0, [r0], -sp
    3f58:	011e4c05 	tsteq	lr, r5, lsl #24
    3f5c:	01000000 	mrseq	r0, (UNDEF: 0)
    3f60:	0007cd12 	andeq	ip, r7, r2, lsl sp
    3f64:	1e4f0500 	cdpne	5, 4, cr0, cr15, cr0, {0}
    3f68:	04000001 	streq	r0, [r0], #-1
    3f6c:	0a090001 	beq	243f78 <__bss_end__+0x2395c0>
    3f70:	5b000001 	blpl	3f7c <_start-0x4084>
    3f74:	0a000002 	beq	3f84 <_start-0x407c>
    3f78:	000000cc 	andeq	r0, r0, ip, asr #1
    3f7c:	7a11001f 	bvc	444000 <__bss_end__+0x439648>
    3f80:	90000009 	andls	r0, r0, r9
    3f84:	995b0501 	ldmdbls	fp, {r0, r8, sl}^
    3f88:	0c000002 	stceq	0, cr0, [r0], {2}
    3f8c:	00000a02 	andeq	r0, r0, r2, lsl #20
    3f90:	02995c05 	addseq	r5, r9, #1280	; 0x500
    3f94:	0c000000 	stceq	0, cr0, [r0], {-0}
    3f98:	00000a1a 	andeq	r0, r0, sl, lsl sl
    3f9c:	00255d05 	eoreq	r5, r5, r5, lsl #26
    3fa0:	0c040000 	stceq	0, cr0, [r4], {-0}
    3fa4:	00000868 	andeq	r0, r0, r8, ror #16
    3fa8:	029f5f05 	addseq	r5, pc, #5, 30
    3fac:	0c080000 	stceq	0, cr0, [r8], {-0}
    3fb0:	000007a8 	andeq	r0, r0, r8, lsr #15
    3fb4:	020b6005 	andeq	r6, fp, #5
    3fb8:	00880000 	addeq	r0, r8, r0
    3fbc:	025b040e 	subseq	r0, fp, #234881024	; 0xe000000
    3fc0:	af090000 	svcge	0x00090000
    3fc4:	af000002 	svcge	0x00000002
    3fc8:	0a000002 	beq	3fd8 <_start-0x4028>
    3fcc:	000000cc 	andeq	r0, r0, ip, asr #1
    3fd0:	040e001f 	streq	r0, [lr], #-31
    3fd4:	000002b5 			; <UNDEFINED> instruction: 0x000002b5
    3fd8:	09cd0f13 	stmibeq	sp, {r0, r1, r4, r8, r9, sl, fp}^
    3fdc:	05080000 	streq	r0, [r8, #-0]
    3fe0:	0002db73 	andeq	sp, r2, r3, ror fp
    3fe4:	078e0c00 	streq	r0, [lr, r0, lsl #24]
    3fe8:	74050000 	strvc	r0, [r5], #-0
    3fec:	000002db 	ldrdeq	r0, [r0], -fp
    3ff0:	06f20c00 	ldrbteq	r0, [r2], r0, lsl #24
    3ff4:	75050000 	strvc	r0, [r5, #-0]
    3ff8:	00000025 	andeq	r0, r0, r5, lsr #32
    3ffc:	040e0004 	streq	r0, [lr], #-4
    4000:	00000054 	andeq	r0, r0, r4, asr r0
    4004:	0009ec0f 	andeq	lr, r9, pc, lsl #24
    4008:	b3056800 	movwlt	r6, #22528	; 0x5800
    400c:	0000040b 	andeq	r0, r0, fp, lsl #8
    4010:	00705f10 	rsbseq	r5, r0, r0, lsl pc
    4014:	02dbb405 	sbcseq	fp, fp, #83886080	; 0x5000000
    4018:	10000000 	andne	r0, r0, r0
    401c:	0500725f 	streq	r7, [r0, #-607]	; 0x25f
    4020:	000025b5 			; <UNDEFINED> instruction: 0x000025b5
    4024:	5f100400 	svcpl	0x00100400
    4028:	b6050077 			; <UNDEFINED> instruction: 0xb6050077
    402c:	00000025 	andeq	r0, r0, r5, lsr #32
    4030:	07c60c08 	strbeq	r0, [r6, r8, lsl #24]
    4034:	b7050000 	strlt	r0, [r5, -r0]
    4038:	0000003f 	andeq	r0, r0, pc, lsr r0
    403c:	08d90c0c 	ldmeq	r9, {r2, r3, sl, fp}^
    4040:	b8050000 	stmdalt	r5, {}	; <UNPREDICTABLE>
    4044:	0000003f 	andeq	r0, r0, pc, lsr r0
    4048:	625f100e 	subsvs	r1, pc, #14
    404c:	b9050066 	stmdblt	r5, {r1, r2, r5, r6}
    4050:	000002b6 			; <UNDEFINED> instruction: 0x000002b6
    4054:	07350c10 			; <UNDEFINED> instruction: 0x07350c10
    4058:	ba050000 	blt	144060 <__bss_end__+0x1396a8>
    405c:	00000025 	andeq	r0, r0, r5, lsr #32
    4060:	07b60c18 			; <UNDEFINED> instruction: 0x07b60c18
    4064:	c1050000 	mrsgt	r0, (UNDEF: 5)
    4068:	0000010a 	andeq	r0, r0, sl, lsl #2
    406c:	0c690c1c 	stcleq	12, cr0, [r9], #-112	; 0xffffff90
    4070:	c3050000 	movwgt	r0, #20480	; 0x5000
    4074:	00000566 	andeq	r0, r0, r6, ror #10
    4078:	0c830c20 	stceq	12, cr0, [r3], {32}
    407c:	c5050000 	strgt	r0, [r5, #-0]
    4080:	00000590 	muleq	r0, r0, r5
    4084:	0a5e0c24 	beq	178711c <__bss_end__+0x177c764>
    4088:	c8050000 	stmdagt	r5, {}	; <UNPREDICTABLE>
    408c:	000005b4 			; <UNDEFINED> instruction: 0x000005b4
    4090:	0c230c28 	stceq	12, cr0, [r3], #-160	; 0xffffff60
    4094:	c9050000 	stmdbgt	r5, {}	; <UNPREDICTABLE>
    4098:	000005ce 	andeq	r0, r0, lr, asr #11
    409c:	755f102c 	ldrbvc	r1, [pc, #-44]	; 4078 <_start-0x3f88>
    40a0:	cc050062 	stcgt	0, cr0, [r5], {98}	; 0x62
    40a4:	000002b6 			; <UNDEFINED> instruction: 0x000002b6
    40a8:	755f1030 	ldrbvc	r1, [pc, #-48]	; 4080 <_start-0x3f80>
    40ac:	cd050070 	stcgt	0, cr0, [r5, #-448]	; 0xfffffe40
    40b0:	000002db 	ldrdeq	r0, [r0], -fp
    40b4:	755f1038 	ldrbvc	r1, [pc, #-56]	; 4084 <_start-0x3f7c>
    40b8:	ce050072 	mcrgt	0, 0, r0, cr5, cr2, {3}
    40bc:	00000025 	andeq	r0, r0, r5, lsr #32
    40c0:	07790c3c 			; <UNDEFINED> instruction: 0x07790c3c
    40c4:	d1050000 	mrsle	r0, (UNDEF: 5)
    40c8:	000005d4 	ldrdeq	r0, [r0], -r4
    40cc:	0bce0c40 	bleq	ff3871d4 <__bss_end__+0xff37c81c>
    40d0:	d2050000 	andle	r0, r5, #0
    40d4:	000005e4 	andeq	r0, r0, r4, ror #11
    40d8:	6c5f1043 	mrrcvs	0, 4, r1, pc, cr3	; <UNPREDICTABLE>
    40dc:	d5050062 	strle	r0, [r5, #-98]	; 0x62
    40e0:	000002b6 			; <UNDEFINED> instruction: 0x000002b6
    40e4:	07dc0c44 	ldrbeq	r0, [ip, r4, asr #24]
    40e8:	d8050000 	stmdale	r5, {}	; <UNPREDICTABLE>
    40ec:	00000025 	andeq	r0, r0, r5, lsr #32
    40f0:	09500c4c 	ldmdbeq	r0, {r2, r3, r6, sl, fp}^
    40f4:	d9050000 	stmdble	r5, {}	; <UNPREDICTABLE>
    40f8:	0000007b 	andeq	r0, r0, fp, ror r0
    40fc:	02430c50 	subeq	r0, r3, #80, 24	; 0x5000
    4100:	dc050000 	stcle	0, cr0, [r5], {-0}
    4104:	00000429 	andeq	r0, r0, r9, lsr #8
    4108:	09380c54 	ldmdbeq	r8!, {r2, r4, r6, sl, fp}
    410c:	e0050000 	and	r0, r5, r0
    4110:	000000ff 	strdeq	r0, [r0], -pc	; <UNPREDICTABLE>
    4114:	09f40c58 	ldmibeq	r4!, {r3, r4, r6, sl, fp}^
    4118:	e2050000 	and	r0, r5, #0
    411c:	000000f4 	strdeq	r0, [r0], -r4
    4120:	093e0c5c 	ldmdbeq	lr!, {r2, r3, r4, r6, sl, fp}
    4124:	e3050000 	movw	r0, #20480	; 0x5000
    4128:	00000025 	andeq	r0, r0, r5, lsr #32
    412c:	25140064 	ldrcs	r0, [r4, #-100]	; 0x64
    4130:	29000000 	stmdbcs	r0, {}	; <UNPREDICTABLE>
    4134:	15000004 	strne	r0, [r0, #-4]
    4138:	00000429 	andeq	r0, r0, r9, lsr #8
    413c:	00010a15 	andeq	r0, r1, r5, lsl sl
    4140:	010c1500 	tsteq	ip, r0, lsl #10
    4144:	25150000 	ldrcs	r0, [r5, #-0]
    4148:	00000000 	andeq	r0, r0, r0
    414c:	0434040e 	ldrteq	r0, [r4], #-1038	; 0x40e
    4150:	29040000 	stmdbcs	r4, {}	; <UNPREDICTABLE>
    4154:	16000004 	strne	r0, [r0], -r4
    4158:	00000a41 	andeq	r0, r0, r1, asr #20
    415c:	38050428 	stmdacc	r5, {r3, r5, sl}
    4160:	00056602 	andeq	r6, r5, r2, lsl #12
    4164:	09bc1700 	ldmibeq	ip!, {r8, r9, sl, ip}
    4168:	3a050000 	bcc	144170 <__bss_end__+0x1397b8>
    416c:	00002502 	andeq	r2, r0, r2, lsl #10
    4170:	d5170000 	ldrle	r0, [r7, #-0]
    4174:	05000007 	streq	r0, [r0, #-7]
    4178:	063b023f 			; <UNDEFINED> instruction: 0x063b023f
    417c:	17040000 	strne	r0, [r4, -r0]
    4180:	000008c9 	andeq	r0, r0, r9, asr #17
    4184:	3b023f05 	blcc	93da0 <__bss_end__+0x893e8>
    4188:	08000006 	stmdaeq	r0, {r1, r2}
    418c:	00088a17 	andeq	r8, r8, r7, lsl sl
    4190:	023f0500 	eorseq	r0, pc, #0, 10
    4194:	0000063b 	andeq	r0, r0, fp, lsr r6
    4198:	0a15170c 	beq	549dd0 <__bss_end__+0x53f418>
    419c:	41050000 	mrsmi	r0, (UNDEF: 5)
    41a0:	00002502 	andeq	r2, r0, r2, lsl #10
    41a4:	00171000 	andseq	r1, r7, r0
    41a8:	05000007 	streq	r0, [r0, #-7]
    41ac:	081d0242 	ldmdaeq	sp, {r1, r6, r9}
    41b0:	17140000 	ldrne	r0, [r4, -r0]
    41b4:	00000b33 	andeq	r0, r0, r3, lsr fp
    41b8:	25024405 	strcs	r4, [r2, #-1029]	; 0x405
    41bc:	30000000 	andcc	r0, r0, r0
    41c0:	000a1f17 	andeq	r1, sl, r7, lsl pc
    41c4:	02450500 	subeq	r0, r5, #0, 10
    41c8:	0000058a 	andeq	r0, r0, sl, lsl #11
    41cc:	09821734 	stmibeq	r2, {r2, r4, r5, r8, r9, sl, ip}
    41d0:	47050000 	strmi	r0, [r5, -r0]
    41d4:	00002502 	andeq	r2, r0, r2, lsl #10
    41d8:	2f173800 	svccs	0x00173800
    41dc:	0500000a 	streq	r0, [r0, #-10]
    41e0:	08380249 	ldmdaeq	r8!, {r0, r3, r6, r9}
    41e4:	173c0000 	ldrne	r0, [ip, -r0]!
    41e8:	00000914 	andeq	r0, r0, r4, lsl r9
    41ec:	7c024c05 	stcvc	12, cr4, [r2], {5}
    41f0:	40000001 	andmi	r0, r0, r1
    41f4:	0008a917 	andeq	sl, r8, r7, lsl r9
    41f8:	024d0500 	subeq	r0, sp, #0, 10
    41fc:	00000025 	andeq	r0, r0, r5, lsr #32
    4200:	0c3d1744 	ldceq	7, cr1, [sp], #-272	; 0xfffffef0
    4204:	4e050000 	cdpmi	0, 0, cr0, cr5, cr0, {0}
    4208:	00017c02 	andeq	r7, r1, r2, lsl #24
    420c:	99174800 	ldmdbls	r7, {fp, lr}
    4210:	05000009 	streq	r0, [r0, #-9]
    4214:	083e024f 	ldmdaeq	lr!, {r0, r1, r2, r3, r6, r9}
    4218:	174c0000 	strbne	r0, [ip, -r0]
    421c:	000008d1 	ldrdeq	r0, [r0], -r1
    4220:	25025205 	strcs	r5, [r2, #-517]	; 0x205
    4224:	50000000 	andpl	r0, r0, r0
    4228:	0007f817 	andeq	pc, r7, r7, lsl r8	; <UNPREDICTABLE>
    422c:	02530500 	subseq	r0, r3, #0, 10
    4230:	0000010c 	andeq	r0, r0, ip, lsl #2
    4234:	09b51754 	ldmibeq	r5!, {r2, r4, r6, r8, r9, sl, ip}
    4238:	76050000 	strvc	r0, [r5], -r0
    423c:	0007fb02 	andeq	pc, r7, r2, lsl #22
    4240:	7a185800 	bvc	61a248 <__bss_end__+0x60f890>
    4244:	05000009 	streq	r0, [r0, #-9]
    4248:	0299027a 	addseq	r0, r9, #-1610612729	; 0xa0000007
    424c:	01480000 	mrseq	r0, (UNDEF: 72)
    4250:	0008e618 	andeq	lr, r8, r8, lsl r6
    4254:	027b0500 	rsbseq	r0, fp, #0, 10
    4258:	0000025b 	andeq	r0, r0, fp, asr r2
    425c:	9f18014c 	svcls	0x0018014c
    4260:	0500000b 	streq	r0, [r0, #-11]
    4264:	084f027f 	stmdaeq	pc, {r0, r1, r2, r3, r4, r5, r6, r9}^	; <UNPREDICTABLE>
    4268:	02dc0000 	sbcseq	r0, ip, #0
    426c:	0007be18 	andeq	fp, r7, r8, lsl lr
    4270:	02840500 	addeq	r0, r4, #0, 10
    4274:	00000600 	andeq	r0, r0, r0, lsl #12
    4278:	a31802e0 	tstge	r8, #224, 4
    427c:	05000007 	streq	r0, [r0, #-7]
    4280:	085b0285 	ldmdaeq	fp, {r0, r2, r7, r9}^
    4284:	02ec0000 	rsceq	r0, ip, #0
    4288:	0b040e00 	bleq	107a90 <__bss_end__+0xfd0d8>
    428c:	14000004 	strne	r0, [r0], #-4
    4290:	00000025 	andeq	r0, r0, r5, lsr #32
    4294:	0000058a 	andeq	r0, r0, sl, lsl #11
    4298:	00042915 	andeq	r2, r4, r5, lsl r9
    429c:	010a1500 	tsteq	sl, r0, lsl #10
    42a0:	8a150000 	bhi	5442a8 <__bss_end__+0x5398f0>
    42a4:	15000005 	strne	r0, [r0, #-5]
    42a8:	00000025 	andeq	r0, r0, r5, lsr #32
    42ac:	19040e00 	stmdbne	r4, {r9, sl, fp}
    42b0:	0e000001 	cdpeq	0, 0, cr0, cr0, cr1, {0}
    42b4:	00056c04 	andeq	r6, r5, r4, lsl #24
    42b8:	00861400 	addeq	r1, r6, r0, lsl #8
    42bc:	05b40000 	ldreq	r0, [r4, #0]!
    42c0:	29150000 	ldmdbcs	r5, {}	; <UNPREDICTABLE>
    42c4:	15000004 	strne	r0, [r0, #-4]
    42c8:	0000010a 	andeq	r0, r0, sl, lsl #2
    42cc:	00008615 	andeq	r8, r0, r5, lsl r6
    42d0:	00251500 	eoreq	r1, r5, r0, lsl #10
    42d4:	0e000000 	cdpeq	0, 0, cr0, cr0, cr0, {0}
    42d8:	00059604 	andeq	r9, r5, r4, lsl #12
    42dc:	00251400 	eoreq	r1, r5, r0, lsl #8
    42e0:	05ce0000 	strbeq	r0, [lr]
    42e4:	29150000 	ldmdbcs	r5, {}	; <UNPREDICTABLE>
    42e8:	15000004 	strne	r0, [r0, #-4]
    42ec:	0000010a 	andeq	r0, r0, sl, lsl #2
    42f0:	ba040e00 	blt	107af8 <__bss_end__+0xfd140>
    42f4:	09000005 	stmdbeq	r0, {r0, r2}
    42f8:	00000054 	andeq	r0, r0, r4, asr r0
    42fc:	000005e4 	andeq	r0, r0, r4, ror #11
    4300:	0000cc0a 	andeq	ip, r0, sl, lsl #24
    4304:	09000200 	stmdbeq	r0, {r9}
    4308:	00000054 	andeq	r0, r0, r4, asr r0
    430c:	000005f4 	strdeq	r0, [r0], -r4
    4310:	0000cc0a 	andeq	ip, r0, sl, lsl #24
    4314:	06000000 	streq	r0, [r0], -r0
    4318:	000009da 	ldrdeq	r0, [r0], -sl
    431c:	e1011d05 	tst	r1, r5, lsl #26
    4320:	19000002 	stmdbne	r0, {r1}
    4324:	00000b61 	andeq	r0, r0, r1, ror #22
    4328:	0121050c 	teqeq	r1, ip, lsl #10
    432c:	00000635 	andeq	r0, r0, r5, lsr r6
    4330:	000a0217 	andeq	r0, sl, r7, lsl r2
    4334:	01230500 	teqeq	r3, r0, lsl #10
    4338:	00000635 	andeq	r0, r0, r5, lsr r6
    433c:	08df1700 	ldmeq	pc, {r8, r9, sl, ip}^	; <UNPREDICTABLE>
    4340:	24050000 	strcs	r0, [r5], #-0
    4344:	00002501 	andeq	r2, r0, r1, lsl #10
    4348:	d4170400 	ldrle	r0, [r7], #-1024	; 0x400
    434c:	05000009 	streq	r0, [r0, #-9]
    4350:	063b0125 	ldrteq	r0, [fp], -r5, lsr #2
    4354:	00080000 	andeq	r0, r8, r0
    4358:	0600040e 	streq	r0, [r0], -lr, lsl #8
    435c:	040e0000 	streq	r0, [lr], #-0
    4360:	000005f4 	strdeq	r0, [r0], -r4
    4364:	0006f819 	andeq	pc, r6, r9, lsl r8	; <UNPREDICTABLE>
    4368:	3d050e00 	stccc	14, cr0, [r5, #-0]
    436c:	00067601 	andeq	r7, r6, r1, lsl #12
    4370:	0a481700 	beq	1209f78 <__bss_end__+0x11ff5c0>
    4374:	3e050000 	cdpcc	0, 0, cr0, cr5, cr0, {0}
    4378:	00067601 	andeq	r7, r6, r1, lsl #12
    437c:	82170000 	andshi	r0, r7, #0
    4380:	0500000a 	streq	r0, [r0, #-10]
    4384:	0676013f 			; <UNDEFINED> instruction: 0x0676013f
    4388:	17060000 	strne	r0, [r6, -r0]
    438c:	00000b06 	andeq	r0, r0, r6, lsl #22
    4390:	5b014005 	blpl	543ac <__bss_end__+0x499f4>
    4394:	0c000000 	stceq	0, cr0, [r0], {-0}
    4398:	005b0900 	subseq	r0, fp, r0, lsl #18
    439c:	06860000 	streq	r0, [r6], r0
    43a0:	cc0a0000 	stcgt	0, cr0, [sl], {-0}
    43a4:	02000000 	andeq	r0, r0, #0
    43a8:	05d01a00 	ldrbeq	r1, [r0, #2560]	; 0xa00
    43ac:	07870257 			; <UNDEFINED> instruction: 0x07870257
    43b0:	45170000 	ldrmi	r0, [r7, #-0]
    43b4:	0500000b 	streq	r0, [r0, #-11]
    43b8:	002c0259 	eoreq	r0, ip, r9, asr r2
    43bc:	17000000 	strne	r0, [r0, -r0]
    43c0:	00000af0 	strdeq	r0, [r0], -r0	; <UNPREDICTABLE>
    43c4:	0c025a05 	stceq	10, cr5, [r2], {5}
    43c8:	04000001 	streq	r0, [r0], #-1
    43cc:	0008fb17 	andeq	pc, r8, r7, lsl fp	; <UNPREDICTABLE>
    43d0:	025b0500 	subseq	r0, fp, #0, 10
    43d4:	00000787 	andeq	r0, r0, r7, lsl #15
    43d8:	0c141708 	ldceq	7, cr1, [r4], {8}
    43dc:	5c050000 	stcpl	0, cr0, [r5], {-0}
    43e0:	00019202 	andeq	r9, r1, r2, lsl #4
    43e4:	9a172400 	bls	5cd3ec <__bss_end__+0x5c2a34>
    43e8:	05000008 	streq	r0, [r0, #-8]
    43ec:	0025025d 	eoreq	r0, r5, sp, asr r2
    43f0:	17480000 	strbne	r0, [r8, -r0]
    43f4:	000009fd 	strdeq	r0, [r0], -sp
    43f8:	69025e05 	stmdbvs	r2, {r0, r2, r9, sl, fp, ip, lr}
    43fc:	50000000 	andpl	r0, r0, r0
    4400:	000c2a17 	andeq	r2, ip, r7, lsl sl
    4404:	025f0500 	subseq	r0, pc, #0, 10
    4408:	00000641 	andeq	r0, r0, r1, asr #12
    440c:	0a081758 	beq	20a174 <__bss_end__+0x1ff7bc>
    4410:	60050000 	andvs	r0, r5, r0
    4414:	0000f402 	andeq	pc, r0, r2, lsl #8
    4418:	2f176800 	svccs	0x00176800
    441c:	0500000c 	streq	r0, [r0, #-12]
    4420:	00f40261 	rscseq	r0, r4, r1, ror #4
    4424:	17700000 	ldrbne	r0, [r0, -r0]!
    4428:	0000075d 	andeq	r0, r0, sp, asr r7
    442c:	f4026205 	vst1.8	{d6-d9}, [r2], r5
    4430:	78000000 	stmdavc	r0, {}	; <UNPREDICTABLE>
    4434:	000b8117 	andeq	r8, fp, r7, lsl r1
    4438:	02630500 	rsbeq	r0, r3, #0, 10
    443c:	00000797 	muleq	r0, r7, r7
    4440:	08ef1780 	stmiaeq	pc!, {r7, r8, r9, sl, ip}^	; <UNPREDICTABLE>
    4444:	64050000 	strvs	r0, [r5], #-0
    4448:	0007a702 	andeq	sl, r7, r2, lsl #14
    444c:	13178800 	tstne	r7, #0, 16
    4450:	0500000b 	streq	r0, [r0, #-11]
    4454:	00250265 	eoreq	r0, r5, r5, ror #4
    4458:	17a00000 	strne	r0, [r0, r0]!
    445c:	00000846 	andeq	r0, r0, r6, asr #16
    4460:	f4026605 	vst1.8	{d6-d8}, [r2], r5
    4464:	a4000000 	strge	r0, [r0], #-0
    4468:	00074e17 	andeq	r4, r7, r7, lsl lr
    446c:	02670500 	rsbeq	r0, r7, #0, 10
    4470:	000000f4 	strdeq	r0, [r0], -r4
    4474:	083517ac 	ldmdaeq	r5!, {r2, r3, r5, r7, r8, r9, sl, ip}
    4478:	68050000 	stmdavs	r5, {}	; <UNPREDICTABLE>
    447c:	0000f402 	andeq	pc, r0, r2, lsl #8
    4480:	1517b400 	ldrne	fp, [r7, #-1024]	; 0x400
    4484:	05000007 	streq	r0, [r0, #-7]
    4488:	00f40269 	rscseq	r0, r4, r9, ror #4
    448c:	17bc0000 	ldrne	r0, [ip, r0]!
    4490:	00000724 	andeq	r0, r0, r4, lsr #14
    4494:	f4026a05 	vst1.8	{d6-d7}, [r2], r5
    4498:	c4000000 	strgt	r0, [r0], #-0
    449c:	0009ba17 	andeq	fp, r9, r7, lsl sl
    44a0:	026b0500 	rsbeq	r0, fp, #0, 10
    44a4:	00000025 	andeq	r0, r0, r5, lsr #32
    44a8:	120900cc 	andne	r0, r9, #204	; 0xcc
    44ac:	97000001 	strls	r0, [r0, -r1]
    44b0:	0a000007 	beq	44d4 <_start-0x3b2c>
    44b4:	000000cc 	andeq	r0, r0, ip, asr #1
    44b8:	12090019 	andne	r0, r9, #25
    44bc:	a7000001 	strge	r0, [r0, -r1]
    44c0:	0a000007 	beq	44e4 <_start-0x3b1c>
    44c4:	000000cc 	andeq	r0, r0, ip, asr #1
    44c8:	12090007 	andne	r0, r9, #7
    44cc:	b7000001 	strlt	r0, [r0, -r1]
    44d0:	0a000007 	beq	44f4 <_start-0x3b0c>
    44d4:	000000cc 	andeq	r0, r0, ip, asr #1
    44d8:	f01a0017 			; <UNDEFINED> instruction: 0xf01a0017
    44dc:	db027005 	blle	a04f8 <__bss_end__+0x95b40>
    44e0:	17000007 	strne	r0, [r0, -r7]
    44e4:	0000096a 	andeq	r0, r0, sl, ror #18
    44e8:	db027305 	blle	a1104 <__bss_end__+0x9674c>
    44ec:	00000007 	andeq	r0, r0, r7
    44f0:	000b7817 	andeq	r7, fp, r7, lsl r8
    44f4:	02740500 	rsbseq	r0, r4, #0, 10
    44f8:	000007eb 	andeq	r0, r0, fp, ror #15
    44fc:	db090078 	blle	2446e4 <__bss_end__+0x239d2c>
    4500:	eb000002 	bl	4510 <_start-0x3af0>
    4504:	0a000007 	beq	4528 <_start-0x3ad8>
    4508:	000000cc 	andeq	r0, r0, ip, asr #1
    450c:	2c09001d 	stccs	0, cr0, [r9], {29}
    4510:	fb000000 	blx	451a <_start-0x3ae6>
    4514:	0a000007 	beq	4538 <_start-0x3ac8>
    4518:	000000cc 	andeq	r0, r0, ip, asr #1
    451c:	f01b001d 			; <UNDEFINED> instruction: 0xf01b001d
    4520:	1d025505 	cfstr32ne	mvfx5, [r2, #-20]	; 0xffffffec
    4524:	1c000008 	stcne	0, cr0, [r0], {8}
    4528:	00000a41 	andeq	r0, r0, r1, asr #20
    452c:	86026c05 	strhi	r6, [r2], -r5, lsl #24
    4530:	1c000006 	stcne	0, cr0, [r0], {6}
    4534:	00000bd4 	ldrdeq	r0, [r0], -r4
    4538:	b7027505 	strlt	r7, [r2, -r5, lsl #10]
    453c:	00000007 	andeq	r0, r0, r7
    4540:	00011209 	andeq	r1, r1, r9, lsl #4
    4544:	00082d00 	andeq	r2, r8, r0, lsl #26
    4548:	00cc0a00 	sbceq	r0, ip, r0, lsl #20
    454c:	00180000 	andseq	r0, r8, r0
    4550:	0008381d 	andeq	r3, r8, sp, lsl r8
    4554:	04291500 	strteq	r1, [r9], #-1280	; 0x500
    4558:	0e000000 	cdpeq	0, 0, cr0, cr0, cr0, {0}
    455c:	00082d04 	andeq	r2, r8, r4, lsl #26
    4560:	7c040e00 	stcvc	14, cr0, [r4], {-0}
    4564:	1d000001 	stcne	0, cr0, [r0, #-4]
    4568:	0000084f 	andeq	r0, r0, pc, asr #16
    456c:	00002515 	andeq	r2, r0, r5, lsl r5
    4570:	040e0000 	streq	r0, [lr], #-0
    4574:	00000855 	andeq	r0, r0, r5, asr r8
    4578:	0844040e 	stmdaeq	r4, {r1, r2, r3, sl}^
    457c:	f4090000 	vst4.8	{d0-d3}, [r9], r0
    4580:	6b000005 	blvs	459c <_start-0x3a64>
    4584:	0a000008 	beq	45ac <_start-0x3a54>
    4588:	000000cc 	andeq	r0, r0, ip, asr #1
    458c:	271e0002 	ldrcs	r0, [lr, -r2]
    4590:	0500000b 	streq	r0, [r0, #-11]
    4594:	042902fd 	strteq	r0, [r9], #-765	; 0x2fd
    4598:	201e0000 	andscs	r0, lr, r0
    459c:	0500000b 	streq	r0, [r0, #-11]
    45a0:	042f02fe 	strteq	r0, [pc], #-766	; 45a8 <_start-0x3a58>
    45a4:	25140000 	ldrcs	r0, [r4, #-0]
    45a8:	92000000 	andls	r0, r0, #0
    45ac:	15000008 	strne	r0, [r0, #-8]
    45b0:	00000025 	andeq	r0, r0, r5, lsr #32
    45b4:	052a1f00 	streq	r1, [sl, #-3840]!	; 0xf00
    45b8:	1d060000 	stcne	0, cr0, [r6, #-0]
    45bc:	0000089d 	muleq	r0, sp, r8
    45c0:	0883040e 	stmeq	r3, {r1, r2, r3, sl}
    45c4:	25140000 	ldrcs	r0, [r4, #-0]
    45c8:	b2000000 	andlt	r0, r0, #0
    45cc:	15000008 	strne	r0, [r0, #-8]
    45d0:	0000058a 	andeq	r0, r0, sl, lsl #11
    45d4:	05671f00 	strbeq	r1, [r7, #-3840]!	; 0xf00
    45d8:	22060000 	andcs	r0, r6, #0
    45dc:	000008bd 			; <UNDEFINED> instruction: 0x000008bd
    45e0:	08a3040e 	stmiaeq	r3!, {r1, r2, r3, sl}
    45e4:	01200000 	teqeq	r0, r0
    45e8:	00000054 	andeq	r0, r0, r4, asr r0
    45ec:	09000c07 	stmdbeq	r0, {r0, r1, r2, sl, fp}
    45f0:	3e210000 	cdpcc	0, 2, cr0, cr1, cr0, {0}
    45f4:	00000007 	andeq	r0, r0, r7
    45f8:	000b6721 	andeq	r6, fp, r1, lsr #14
    45fc:	bf210100 	svclt	0x00210100
    4600:	0400000b 	streq	r0, [r0], #-11
    4604:	00077f21 	andeq	r7, r7, r1, lsr #30
    4608:	22210500 	eorcs	r0, r1, #0, 10
    460c:	06000009 	streq	r0, [r0], -r9
    4610:	000bdc21 	andeq	sp, fp, r1, lsr #24
    4614:	eb210700 	bl	84621c <__bss_end__+0x83b864>
    4618:	0300000b 	movweq	r0, #11
    461c:	000bfa21 	andeq	pc, fp, r1, lsr #20
    4620:	05000200 	streq	r0, [r0, #-512]	; 0x200
    4624:	00000cb9 			; <UNDEFINED> instruction: 0x00000cb9
    4628:	08c31507 	stmiaeq	r3, {r0, r1, r2, r8, sl, ip}^
    462c:	8a220000 	bhi	884634 <__bss_end__+0x879c7c>
    4630:	0100000c 	tsteq	r0, ip
    4634:	0000331d 	andeq	r3, r0, sp, lsl r3
    4638:	20001c00 	andcs	r1, r0, r0, lsl #24
    463c:	0cc52220 	sfmeq	f2, 2, [r5], {32}
    4640:	1e010000 	cdpne	0, 0, cr0, cr1, cr0, {0}
    4644:	00000033 	andeq	r0, r0, r3, lsr r0
    4648:	20200028 	eorcs	r0, r0, r8, lsr #32
    464c:	000c9422 	andeq	r9, ip, r2, lsr #8
    4650:	331f0100 	tstcc	pc, #0, 2
    4654:	34000000 	strcc	r0, [r0], #-0
    4658:	23202000 	teqcs	r0, #0
    465c:	00000c65 	andeq	r0, r0, r5, ror #24
    4660:	00255601 	eoreq	r5, r5, r1, lsl #12
    4664:	99d00000 	ldmibls	r0, {}^	; <UNPREDICTABLE>
    4668:	00340000 	eorseq	r0, r4, r0
    466c:	9c010000 	stcls	0, cr0, [r1], {-0}
    4670:	00000998 	muleq	r0, r8, r9
    4674:	6e697024 	cdpvs	0, 6, cr7, cr9, cr4, {1}
    4678:	2c560100 	ldfcse	f0, [r6], {-0}
    467c:	fd000000 	stc2	0, cr0, [r0, #-0]
    4680:	25000014 	strcs	r0, [r0, #-20]
    4684:	00000c59 	andeq	r0, r0, r9, asr ip
    4688:	002c5901 	eoreq	r5, ip, r1, lsl #18
    468c:	15370000 	ldrne	r0, [r7, #-0]!
    4690:	6f260000 	svcvs	0x00260000
    4694:	01006666 	tsteq	r0, r6, ror #12
    4698:	00002c5a 	andeq	r2, r0, sl, asr ip
    469c:	00157500 	andseq	r7, r5, r0, lsl #10
    46a0:	99ec2700 	stmibls	ip!, {r8, r9, sl, sp}^
    46a4:	0b5d0000 	bleq	17446ac <__bss_end__+0x1739cf4>
    46a8:	01280000 	teqeq	r8, r0
    46ac:	01f30b50 	mvnseq	r0, r0, asr fp
    46b0:	23253550 	teqcs	r5, #80, 10	; 0x14000000
    46b4:	818080b4 	strhhi	r8, [r0, r4]
    46b8:	29000002 	stmdbcs	r0, {r1}
    46bc:	00000c7f 	andeq	r0, r0, pc, ror ip
    46c0:	99b44f01 	ldmibls	r4!, {r0, r8, r9, sl, fp, lr}
    46c4:	001c0000 	andseq	r0, ip, r0
    46c8:	9c010000 	stcls	0, cr0, [r1], {-0}
    46cc:	000009e8 	andeq	r0, r0, r8, ror #19
    46d0:	6e697024 	cdpvs	0, 6, cr7, cr9, cr4, {1}
    46d4:	2c4f0100 	stfcse	f0, [pc], {-0}
    46d8:	88000000 	stmdahi	r0, {}	; <UNPREDICTABLE>
    46dc:	24000015 	strcs	r0, [r0], #-21
    46e0:	4f010076 	svcmi	0x00010076
    46e4:	0000002c 	andeq	r0, r0, ip, lsr #32
    46e8:	000015c2 	andeq	r1, r0, r2, asr #11
    46ec:	0099c42a 	addseq	ip, r9, sl, lsr #8
    46f0:	000a2300 	andeq	r2, sl, r0, lsl #6
    46f4:	0009de00 	andeq	sp, r9, r0, lsl #28
    46f8:	50012800 	andpl	r2, r1, r0, lsl #16
    46fc:	5001f303 	andpl	pc, r1, r3, lsl #6
    4700:	99cc2b00 	stmibls	ip, {r8, r9, fp, sp}^
    4704:	0a640000 	beq	190470c <__bss_end__+0x18f9d54>
    4708:	29000000 	stmdbcs	r0, {}	; <UNPREDICTABLE>
    470c:	00000c9e 	muleq	r0, lr, ip
    4710:	99a44a01 	stmibls	r4!, {r0, r9, fp, lr}
    4714:	00100000 	andseq	r0, r0, r0
    4718:	9c010000 	stcls	0, cr0, [r1], {-0}
    471c:	00000a23 	andeq	r0, r0, r3, lsr #20
    4720:	6e697024 	cdpvs	0, 6, cr7, cr9, cr4, {1}
    4724:	2c4a0100 	stfcse	f0, [sl], {-0}
    4728:	fc000000 	stc2	0, cr0, [r0], {-0}
    472c:	27000015 	smladcs	r0, r5, r0, r0
    4730:	000099b0 			; <UNDEFINED> instruction: 0x000099b0
    4734:	00000ae0 	andeq	r0, r0, r0, ror #21
    4738:	03500128 	cmpeq	r0, #40, 2
    473c:	285001f3 	ldmdacs	r0, {r0, r1, r4, r5, r6, r7, r8}^
    4740:	30015101 	andcc	r5, r1, r1, lsl #2
    4744:	4c290000 	stcmi	0, cr0, [r9], #-0
    4748:	0100000c 	tsteq	r0, ip
    474c:	00998043 	addseq	r8, r9, r3, asr #32
    4750:	00002400 	andeq	r2, r0, r0, lsl #8
    4754:	649c0100 	ldrvs	r0, [ip], #256	; 0x100
    4758:	2400000a 	strcs	r0, [r0], #-10
    475c:	006e6970 	rsbeq	r6, lr, r0, ror r9
    4760:	002c4301 	eoreq	r4, ip, r1, lsl #6
    4764:	161d0000 	ldrne	r0, [sp], -r0
    4768:	9c270000 	stcls	0, cr0, [r7], #-0
    476c:	68000099 	stmdavs	r0, {r0, r3, r4, r7}
    4770:	2800000b 	stmdacs	r0, {r0, r1, r3}
    4774:	0c055001 	stceq	0, cr5, [r5], {1}
    4778:	20200028 	eorcs	r0, r0, r8, lsr #32
    477c:	05510128 	ldrbeq	r0, [r1, #-296]	; 0x128
    4780:	5001f331 	andpl	pc, r1, r1, lsr r3	; <UNPREDICTABLE>
    4784:	29000024 	stmdbcs	r0, {r2, r5}
    4788:	00000cad 	andeq	r0, r0, sp, lsr #25
    478c:	995c3c01 	ldmdbls	ip, {r0, sl, fp, ip, sp}^
    4790:	00240000 	eoreq	r0, r4, r0
    4794:	9c010000 	stcls	0, cr0, [r1], {-0}
    4798:	00000aa5 	andeq	r0, r0, r5, lsr #21
    479c:	6e697024 	cdpvs	0, 6, cr7, cr9, cr4, {1}
    47a0:	2c3c0100 	ldfcss	f0, [ip], #-0
    47a4:	3e000000 	cdpcc	0, 0, cr0, cr0, cr0, {0}
    47a8:	27000016 	smladcs	r0, r6, r0, r0
    47ac:	00009978 	andeq	r9, r0, r8, ror r9
    47b0:	00000b68 	andeq	r0, r0, r8, ror #22
    47b4:	05500128 	ldrbeq	r0, [r0, #-296]	; 0x128
    47b8:	20001c0c 	andcs	r1, r0, ip, lsl #24
    47bc:	51012820 	tstpl	r1, r0, lsr #16
    47c0:	01f33105 	mvnseq	r3, r5, lsl #2
    47c4:	00002450 	andeq	r2, r0, r0, asr r4
    47c8:	000c6f29 	andeq	r6, ip, r9, lsr #30
    47cc:	4c370100 	ldfmis	f0, [r7], #-0
    47d0:	10000099 	mulne	r0, r9, r0
    47d4:	01000000 	mrseq	r0, (UNDEF: 0)
    47d8:	000ae09c 	muleq	sl, ip, r0
    47dc:	69702400 	ldmdbvs	r0!, {sl, sp}^
    47e0:	3701006e 	strcc	r0, [r1, -lr, rrx]
    47e4:	0000002c 	andeq	r0, r0, ip, lsr #32
    47e8:	0000165f 	andeq	r1, r0, pc, asr r6
    47ec:	00995827 	addseq	r5, r9, r7, lsr #16
    47f0:	000ae000 	andeq	lr, sl, r0
    47f4:	50012800 	andpl	r2, r1, r0, lsl #16
    47f8:	5001f303 	andpl	pc, r1, r3, lsl #6
    47fc:	01510128 	cmpeq	r1, r8, lsr #2
    4800:	29000031 	stmdbcs	r0, {r0, r4, r5}
    4804:	00000958 	andeq	r0, r0, r8, asr r9
    4808:	98e42801 	stmials	r4!, {r0, fp, sp}^
    480c:	00680000 	rsbeq	r0, r8, r0
    4810:	9c010000 	stcls	0, cr0, [r1], {-0}
    4814:	00000b5d 	andeq	r0, r0, sp, asr fp
    4818:	6e697024 	cdpvs	0, 6, cr7, cr9, cr4, {1}
    481c:	2c280100 	stfcss	f0, [r8], #-0
    4820:	80000000 	andhi	r0, r0, r0
    4824:	2c000016 	stccs	0, cr0, [r0], {22}
    4828:	00000ba4 	andeq	r0, r0, r4, lsr #23
    482c:	09002801 	stmdbeq	r0, {r0, fp, sp}
    4830:	16a10000 	strtne	r0, [r1], r0
    4834:	6f2d0000 	svcvs	0x002d0000
    4838:	01006666 	tsteq	r0, r6, ror #12
    483c:	00002c2d 	andeq	r2, r0, sp, lsr #24
    4840:	2d540100 	ldfcse	f0, [r4, #-0]
    4844:	2f010067 	svccs	0x00010067
    4848:	0000002c 	andeq	r0, r0, ip, lsr #32
    484c:	76265601 	strtvc	r5, [r6], -r1, lsl #12
    4850:	2c310100 	ldfcss	f0, [r1], #-0
    4854:	c2000000 	andgt	r0, r0, #0
    4858:	2a000016 	bcs	48b8 <_start-0x3748>
    485c:	00009930 	andeq	r9, r0, r0, lsr r9
    4860:	00000b5d 	andeq	r0, r0, sp, asr fp
    4864:	00000b4c 	andeq	r0, r0, ip, asr #22
    4868:	02500128 	subseq	r0, r0, #40, 2
    486c:	27000076 	smlsdxcs	r0, r6, r0, r0
    4870:	00009944 	andeq	r9, r0, r4, asr #18
    4874:	00000b68 	andeq	r0, r0, r8, ror #22
    4878:	02500128 	subseq	r0, r0, #40, 2
    487c:	00000076 	andeq	r0, r0, r6, ror r0
    4880:	0006b52e 	andeq	fp, r6, lr, lsr #10
    4884:	0006b500 	andeq	fp, r6, r0, lsl #10
    4888:	2ea70600 	cdpcs	6, 10, cr0, cr7, cr0, {0}
    488c:	00000667 	andeq	r0, r0, r7, ror #12
    4890:	00000667 	andeq	r0, r0, r7, ror #12
    4894:	24009b06 	strcs	r9, [r0], #-2822	; 0xb06
    4898:	0400000c 	streq	r0, [r0], #-12
    489c:	00147f00 	andseq	r7, r4, r0, lsl #30
    48a0:	8e010400 	cfcpyshi	mvf0, mvf1
    48a4:	0c00000a 	stceq	0, cr0, [r0], {10}
    48a8:	00000ccf 	andeq	r0, r0, pc, asr #25
    48ac:	00000800 	andeq	r0, r0, r0, lsl #16
    48b0:	00009a04 	andeq	r9, r0, r4, lsl #20
    48b4:	00000194 	muleq	r0, r4, r1
    48b8:	0000118f 	andeq	r1, r0, pc, lsl #3
    48bc:	69050402 	stmdbvs	r5, {r1, sl}
    48c0:	0300746e 	movweq	r7, #1134	; 0x46e
    48c4:	01340704 	teqeq	r4, r4, lsl #14
    48c8:	01030000 	mrseq	r0, (UNDEF: 3)
    48cc:	0000e206 	andeq	lr, r0, r6, lsl #4
    48d0:	05020300 	streq	r0, [r2, #-768]	; 0x300
    48d4:	00000158 	andeq	r0, r0, r8, asr r1
    48d8:	4f050403 	svcmi	0x00050403
    48dc:	03000001 	movweq	r0, #1
    48e0:	014a0508 	cmpeq	sl, r8, lsl #10
    48e4:	01030000 	mrseq	r0, (UNDEF: 3)
    48e8:	0000e008 	andeq	lr, r0, r8
    48ec:	07020300 	streq	r0, [r2, -r0, lsl #6]
    48f0:	000000ee 	andeq	r0, r0, lr, ror #1
    48f4:	2f070403 	svccs	0x00070403
    48f8:	03000001 	movweq	r0, #1
    48fc:	012a0708 	teqeq	sl, r8, lsl #14
    4900:	a3040000 	movwge	r0, #16384	; 0x4000
    4904:	02000009 	andeq	r0, r0, #9
    4908:	00002507 	andeq	r2, r0, r7, lsl #10
    490c:	098d0400 	stmibeq	sp, {sl}
    4910:	2c030000 	stccs	0, cr0, [r3], {-0}
    4914:	00000041 	andeq	r0, r0, r1, asr #32
    4918:	000a6904 	andeq	r6, sl, r4, lsl #18
    491c:	41720300 	cmnmi	r2, r0, lsl #6
    4920:	05000000 	streq	r0, [r0, #-0]
    4924:	00000931 	andeq	r0, r0, r1, lsr r9
    4928:	2c016504 	cfstr32cs	mvfx6, [r1], {4}
    492c:	06000000 	streq	r0, [r0], -r0
    4930:	b7a60304 	strlt	r0, [r6, r4, lsl #6]!
    4934:	07000000 	streq	r0, [r0, -r0]
    4938:	0000091c 	andeq	r0, r0, ip, lsl r9
    493c:	008ca803 	addeq	sl, ip, r3, lsl #16
    4940:	b8070000 	stmdalt	r7, {}	; <UNPREDICTABLE>
    4944:	03000008 	movweq	r0, #8
    4948:	0000b7a9 	andeq	fp, r0, r9, lsr #15
    494c:	4f080000 	svcmi	0x00080000
    4950:	c7000000 	strgt	r0, [r0, -r0]
    4954:	09000000 	stmdbeq	r0, {}	; <UNPREDICTABLE>
    4958:	000000c7 	andeq	r0, r0, r7, asr #1
    495c:	04030003 	streq	r0, [r3], #-3
    4960:	00014107 	andeq	r4, r1, r7, lsl #2
    4964:	03080a00 	movweq	r0, #35328	; 0x8a00
    4968:	0000efa3 	andeq	lr, r0, r3, lsr #31
    496c:	0a4e0b00 	beq	1387574 <__bss_end__+0x137cbbc>
    4970:	a5030000 	strge	r0, [r3, #-0]
    4974:	00000025 	andeq	r0, r0, r5, lsr #32
    4978:	0a560b00 	beq	1587580 <__bss_end__+0x157cbc8>
    497c:	aa030000 	bge	c4984 <__bss_end__+0xb9fcc>
    4980:	00000098 	muleq	r0, r8, r0
    4984:	e1040004 	tst	r4, r4
    4988:	03000009 	movweq	r0, #9
    498c:	0000ceab 	andeq	ip, r0, fp, lsr #29
    4990:	08810400 	stmeq	r1, {sl}
    4994:	af030000 	svcge	0x00030000
    4998:	0000006b 	andeq	r0, r0, fp, rrx
    499c:	040d040c 	streq	r0, [sp], #-1036	; 0x40c
    49a0:	0000010d 	andeq	r0, r0, sp, lsl #2
    49a4:	e9080103 	stmdb	r8, {r0, r1, r8}
    49a8:	0e000000 	cdpeq	0, 0, cr0, cr0, cr0, {0}
    49ac:	0000010d 	andeq	r0, r0, sp, lsl #2
    49b0:	000b0b04 	andeq	r0, fp, r4, lsl #22
    49b4:	5d160500 	cfldr32pl	mvfx0, [r6, #-0]
    49b8:	0f000000 	svceq	0x00000000
    49bc:	00000892 	muleq	r0, r2, r8
    49c0:	772d0518 			; <UNDEFINED> instruction: 0x772d0518
    49c4:	0b000001 	bleq	49d0 <_start-0x3630>
    49c8:	00000a02 	andeq	r0, r0, r2, lsl #20
    49cc:	01772f05 	cmneq	r7, r5, lsl #30
    49d0:	10000000 	andne	r0, r0, r0
    49d4:	05006b5f 	streq	r6, [r0, #-2911]	; 0xb5f
    49d8:	00002530 	andeq	r2, r0, r0, lsr r5
    49dc:	390b0400 	stmdbcc	fp, {sl}
    49e0:	0500000a 	streq	r0, [r0, #-10]
    49e4:	00002530 	andeq	r2, r0, r0, lsr r5
    49e8:	6d0b0800 	stcvs	8, cr0, [fp, #-0]
    49ec:	05000008 	streq	r0, [r0, #-8]
    49f0:	00002530 	andeq	r2, r0, r0, lsr r5
    49f4:	520b0c00 	andpl	r0, fp, #0, 24
    49f8:	0500000b 	streq	r0, [r0, #-11]
    49fc:	00002530 	andeq	r2, r0, r0, lsr r5
    4a00:	5f101000 	svcpl	0x00101000
    4a04:	31050078 	tstcc	r5, r8, ror r0
    4a08:	0000017d 	andeq	r0, r0, sp, ror r1
    4a0c:	040d0014 	streq	r0, [sp], #-20
    4a10:	00000124 	andeq	r0, r0, r4, lsr #2
    4a14:	00011908 	andeq	r1, r1, r8, lsl #18
    4a18:	00018d00 	andeq	r8, r1, r0, lsl #26
    4a1c:	00c70900 	sbceq	r0, r7, r0, lsl #18
    4a20:	00000000 	andeq	r0, r0, r0
    4a24:	0008b30f 	andeq	fp, r8, pc, lsl #6
    4a28:	35052400 	strcc	r2, [r5, #-1024]	; 0x400
    4a2c:	00000206 	andeq	r0, r0, r6, lsl #4
    4a30:	00076b0b 	andeq	r6, r7, fp, lsl #22
    4a34:	25370500 	ldrcs	r0, [r7, #-1280]!	; 0x500
    4a38:	00000000 	andeq	r0, r0, r0
    4a3c:	000a710b 	andeq	r7, sl, fp, lsl #2
    4a40:	25380500 	ldrcs	r0, [r8, #-1280]!	; 0x500
    4a44:	04000000 	streq	r0, [r0], #-0
    4a48:	0007990b 	andeq	r9, r7, fp, lsl #18
    4a4c:	25390500 	ldrcs	r0, [r9, #-1280]!	; 0x500
    4a50:	08000000 	stmdaeq	r0, {}	; <UNPREDICTABLE>
    4a54:	000c420b 	andeq	r4, ip, fp, lsl #4
    4a58:	253a0500 	ldrcs	r0, [sl, #-1280]!	; 0x500
    4a5c:	0c000000 	stceq	0, cr0, [r0], {-0}
    4a60:	0009710b 	andeq	r7, r9, fp, lsl #2
    4a64:	253b0500 	ldrcs	r0, [fp, #-1280]!	; 0x500
    4a68:	10000000 	andne	r0, r0, r0
    4a6c:	0009460b 	andeq	r4, r9, fp, lsl #12
    4a70:	253c0500 	ldrcs	r0, [ip, #-1280]!	; 0x500
    4a74:	14000000 	strne	r0, [r0], #-0
    4a78:	000b570b 	andeq	r5, fp, fp, lsl #14
    4a7c:	253d0500 	ldrcs	r0, [sp, #-1280]!	; 0x500
    4a80:	18000000 	stmdane	r0, {}	; <UNPREDICTABLE>
    4a84:	0009c30b 	andeq	ip, r9, fp, lsl #6
    4a88:	253e0500 	ldrcs	r0, [lr, #-1280]!	; 0x500
    4a8c:	1c000000 	stcne	0, cr0, [r0], {-0}
    4a90:	000c090b 	andeq	r0, ip, fp, lsl #18
    4a94:	253f0500 	ldrcs	r0, [pc, #-1280]!	; 459c <_start-0x3a64>
    4a98:	20000000 	andcs	r0, r0, r0
    4a9c:	07a81100 	streq	r1, [r8, r0, lsl #2]!
    4aa0:	01080000 	mrseq	r0, (UNDEF: 8)
    4aa4:	02464805 	subeq	r4, r6, #327680	; 0x50000
    4aa8:	540b0000 	strpl	r0, [fp], #-0
    4aac:	05000008 	streq	r0, [r0, #-8]
    4ab0:	00024649 	andeq	r4, r2, r9, asr #12
    4ab4:	e60b0000 	str	r0, [fp], -r0
    4ab8:	05000006 	streq	r0, [r0, #-6]
    4abc:	0002464a 	andeq	r4, r2, sl, asr #12
    4ac0:	fd128000 	ldc2	0, cr8, [r2, #-0]
    4ac4:	0500000a 	streq	r0, [r0, #-10]
    4ac8:	0001194c 	andeq	r1, r1, ip, asr #18
    4acc:	12010000 	andne	r0, r1, #0
    4ad0:	000007cd 	andeq	r0, r0, sp, asr #15
    4ad4:	01194f05 	tsteq	r9, r5, lsl #30
    4ad8:	01040000 	mrseq	r0, (UNDEF: 4)
    4adc:	01050800 	tsteq	r5, r0, lsl #16
    4ae0:	02560000 	subseq	r0, r6, #0
    4ae4:	c7090000 	strgt	r0, [r9, -r0]
    4ae8:	1f000000 	svcne	0x00000000
    4aec:	097a1100 	ldmdbeq	sl!, {r8, ip}^
    4af0:	01900000 	orrseq	r0, r0, r0
    4af4:	02945b05 	addseq	r5, r4, #5120	; 0x1400
    4af8:	020b0000 	andeq	r0, fp, #0
    4afc:	0500000a 	streq	r0, [r0, #-10]
    4b00:	0002945c 	andeq	r9, r2, ip, asr r4
    4b04:	1a0b0000 	bne	2c4b0c <__bss_end__+0x2ba154>
    4b08:	0500000a 	streq	r0, [r0, #-10]
    4b0c:	0000255d 	andeq	r2, r0, sp, asr r5
    4b10:	680b0400 	stmdavs	fp, {sl}
    4b14:	05000008 	streq	r0, [r0, #-8]
    4b18:	00029a5f 	andeq	r9, r2, pc, asr sl
    4b1c:	a80b0800 	stmdage	fp, {fp}
    4b20:	05000007 	streq	r0, [r0, #-7]
    4b24:	00020660 	andeq	r0, r2, r0, ror #12
    4b28:	0d008800 	stceq	8, cr8, [r0, #-0]
    4b2c:	00025604 	andeq	r5, r2, r4, lsl #12
    4b30:	02aa0800 	adceq	r0, sl, #0, 16
    4b34:	02aa0000 	adceq	r0, sl, #0
    4b38:	c7090000 	strgt	r0, [r9, -r0]
    4b3c:	1f000000 	svcne	0x00000000
    4b40:	b0040d00 	andlt	r0, r4, r0, lsl #26
    4b44:	13000002 	movwne	r0, #2
    4b48:	0009cd0f 	andeq	ip, r9, pc, lsl #26
    4b4c:	73050800 	movwvc	r0, #22528	; 0x5800
    4b50:	000002d6 	ldrdeq	r0, [r0], -r6
    4b54:	00078e0b 	andeq	r8, r7, fp, lsl #28
    4b58:	d6740500 	ldrbtle	r0, [r4], -r0, lsl #10
    4b5c:	00000002 	andeq	r0, r0, r2
    4b60:	0006f20b 	andeq	pc, r6, fp, lsl #4
    4b64:	25750500 	ldrbcs	r0, [r5, #-1280]!	; 0x500
    4b68:	04000000 	streq	r0, [r0], #-0
    4b6c:	4f040d00 	svcmi	0x00040d00
    4b70:	0f000000 	svceq	0x00000000
    4b74:	000009ec 	andeq	r0, r0, ip, ror #19
    4b78:	06b30568 	ldrteq	r0, [r3], r8, ror #10
    4b7c:	10000004 	andne	r0, r0, r4
    4b80:	0500705f 	streq	r7, [r0, #-95]	; 0x5f
    4b84:	0002d6b4 			; <UNDEFINED> instruction: 0x0002d6b4
    4b88:	5f100000 	svcpl	0x00100000
    4b8c:	b5050072 	strlt	r0, [r5, #-114]	; 0x72
    4b90:	00000025 	andeq	r0, r0, r5, lsr #32
    4b94:	775f1004 	ldrbvc	r1, [pc, -r4]
    4b98:	25b60500 	ldrcs	r0, [r6, #1280]!	; 0x500
    4b9c:	08000000 	stmdaeq	r0, {}	; <UNPREDICTABLE>
    4ba0:	0007c60b 	andeq	ip, r7, fp, lsl #12
    4ba4:	3ab70500 	bcc	fedc5fac <__bss_end__+0xfedbb5f4>
    4ba8:	0c000000 	stceq	0, cr0, [r0], {-0}
    4bac:	0008d90b 	andeq	sp, r8, fp, lsl #18
    4bb0:	3ab80500 	bcc	fee05fb8 <__bss_end__+0xfedfb600>
    4bb4:	0e000000 	cdpeq	0, 0, cr0, cr0, cr0, {0}
    4bb8:	66625f10 	uqadd16vs	r5, r2, r0
    4bbc:	b1b90500 			; <UNDEFINED> instruction: 0xb1b90500
    4bc0:	10000002 	andne	r0, r0, r2
    4bc4:	0007350b 	andeq	r3, r7, fp, lsl #10
    4bc8:	25ba0500 	ldrcs	r0, [sl, #1280]!	; 0x500
    4bcc:	18000000 	stmdane	r0, {}	; <UNPREDICTABLE>
    4bd0:	0007b60b 	andeq	fp, r7, fp, lsl #12
    4bd4:	05c10500 	strbeq	r0, [r1, #1280]	; 0x500
    4bd8:	1c000001 	stcne	0, cr0, [r0], {1}
    4bdc:	000c690b 	andeq	r6, ip, fp, lsl #18
    4be0:	61c30500 	bicvs	r0, r3, r0, lsl #10
    4be4:	20000005 	andcs	r0, r0, r5
    4be8:	000c830b 	andeq	r8, ip, fp, lsl #6
    4bec:	8bc50500 	blhi	ff145ff4 <__bss_end__+0xff13b63c>
    4bf0:	24000005 	strcs	r0, [r0], #-5
    4bf4:	000a5e0b 	andeq	r5, sl, fp, lsl #28
    4bf8:	afc80500 	svcge	0x00c80500
    4bfc:	28000005 	stmdacs	r0, {r0, r2}
    4c00:	000c230b 	andeq	r2, ip, fp, lsl #6
    4c04:	c9c90500 	stmibgt	r9, {r8, sl}^
    4c08:	2c000005 	stccs	0, cr0, [r0], {5}
    4c0c:	62755f10 	rsbsvs	r5, r5, #16, 30	; 0x40
    4c10:	b1cc0500 	biclt	r0, ip, r0, lsl #10
    4c14:	30000002 	andcc	r0, r0, r2
    4c18:	70755f10 	rsbsvc	r5, r5, r0, lsl pc
    4c1c:	d6cd0500 	strble	r0, [sp], r0, lsl #10
    4c20:	38000002 	stmdacc	r0, {r1}
    4c24:	72755f10 	rsbsvc	r5, r5, #16, 30	; 0x40
    4c28:	25ce0500 	strbcs	r0, [lr, #1280]	; 0x500
    4c2c:	3c000000 	stccc	0, cr0, [r0], {-0}
    4c30:	0007790b 	andeq	r7, r7, fp, lsl #18
    4c34:	cfd10500 	svcgt	0x00d10500
    4c38:	40000005 	andmi	r0, r0, r5
    4c3c:	000bce0b 	andeq	ip, fp, fp, lsl #28
    4c40:	dfd20500 	svcle	0x00d20500
    4c44:	43000005 	movwmi	r0, #5
    4c48:	626c5f10 	rsbvs	r5, ip, #16, 30	; 0x40
    4c4c:	b1d50500 	bicslt	r0, r5, r0, lsl #10
    4c50:	44000002 	strmi	r0, [r0], #-2
    4c54:	0007dc0b 	andeq	sp, r7, fp, lsl #24
    4c58:	25d80500 	ldrbcs	r0, [r8, #1280]	; 0x500
    4c5c:	4c000000 	stcmi	0, cr0, [r0], {-0}
    4c60:	0009500b 	andeq	r5, r9, fp
    4c64:	76d90500 	ldrbvc	r0, [r9], r0, lsl #10
    4c68:	50000000 	andpl	r0, r0, r0
    4c6c:	0002430b 	andeq	r4, r2, fp, lsl #6
    4c70:	24dc0500 	ldrbcs	r0, [ip], #1280	; 0x500
    4c74:	54000004 	strpl	r0, [r0], #-4
    4c78:	0009380b 	andeq	r3, r9, fp, lsl #16
    4c7c:	fae00500 	blx	ff806084 <__bss_end__+0xff7fb6cc>
    4c80:	58000000 	stmdapl	r0, {}	; <UNPREDICTABLE>
    4c84:	0009f40b 	andeq	pc, r9, fp, lsl #8
    4c88:	efe20500 	svc	0x00e20500
    4c8c:	5c000000 	stcpl	0, cr0, [r0], {-0}
    4c90:	00093e0b 	andeq	r3, r9, fp, lsl #28
    4c94:	25e30500 	strbcs	r0, [r3, #1280]!	; 0x500
    4c98:	64000000 	strvs	r0, [r0], #-0
    4c9c:	00251400 	eoreq	r1, r5, r0, lsl #8
    4ca0:	04240000 	strteq	r0, [r4], #-0
    4ca4:	24150000 	ldrcs	r0, [r5], #-0
    4ca8:	15000004 	strne	r0, [r0, #-4]
    4cac:	00000105 	andeq	r0, r0, r5, lsl #2
    4cb0:	00010715 	andeq	r0, r1, r5, lsl r7
    4cb4:	00251500 	eoreq	r1, r5, r0, lsl #10
    4cb8:	0d000000 	stceq	0, cr0, [r0, #-0]
    4cbc:	00042f04 	andeq	r2, r4, r4, lsl #30
    4cc0:	04240e00 	strteq	r0, [r4], #-3584	; 0xe00
    4cc4:	41160000 	tstmi	r6, r0
    4cc8:	2800000a 	stmdacs	r0, {r1, r3}
    4ccc:	02380504 	eorseq	r0, r8, #4, 10	; 0x1000000
    4cd0:	00000561 	andeq	r0, r0, r1, ror #10
    4cd4:	0009bc17 	andeq	fp, r9, r7, lsl ip
    4cd8:	023a0500 	eorseq	r0, sl, #0, 10
    4cdc:	00000025 	andeq	r0, r0, r5, lsr #32
    4ce0:	07d51700 	ldrbeq	r1, [r5, r0, lsl #14]
    4ce4:	3f050000 	svccc	0x00050000
    4ce8:	00063602 	andeq	r3, r6, r2, lsl #12
    4cec:	c9170400 	ldmdbgt	r7, {sl}
    4cf0:	05000008 	streq	r0, [r0, #-8]
    4cf4:	0636023f 			; <UNDEFINED> instruction: 0x0636023f
    4cf8:	17080000 	strne	r0, [r8, -r0]
    4cfc:	0000088a 	andeq	r0, r0, sl, lsl #17
    4d00:	36023f05 	strcc	r3, [r2], -r5, lsl #30
    4d04:	0c000006 	stceq	0, cr0, [r0], {6}
    4d08:	000a1517 	andeq	r1, sl, r7, lsl r5
    4d0c:	02410500 	subeq	r0, r1, #0, 10
    4d10:	00000025 	andeq	r0, r0, r5, lsr #32
    4d14:	07001710 	smladeq	r0, r0, r7, r1
    4d18:	42050000 	andmi	r0, r5, #0
    4d1c:	00081802 	andeq	r1, r8, r2, lsl #16
    4d20:	33171400 	tstcc	r7, #0, 8
    4d24:	0500000b 	streq	r0, [r0, #-11]
    4d28:	00250244 	eoreq	r0, r5, r4, asr #4
    4d2c:	17300000 	ldrne	r0, [r0, -r0]!
    4d30:	00000a1f 	andeq	r0, r0, pc, lsl sl
    4d34:	85024505 	strhi	r4, [r2, #-1285]	; 0x505
    4d38:	34000005 	strcc	r0, [r0], #-5
    4d3c:	00098217 	andeq	r8, r9, r7, lsl r2
    4d40:	02470500 	subeq	r0, r7, #0, 10
    4d44:	00000025 	andeq	r0, r0, r5, lsr #32
    4d48:	0a2f1738 	beq	bcaa30 <__bss_end__+0xbc0078>
    4d4c:	49050000 	stmdbmi	r5, {}	; <UNPREDICTABLE>
    4d50:	00083302 	andeq	r3, r8, r2, lsl #6
    4d54:	14173c00 	ldrne	r3, [r7], #-3072	; 0xc00
    4d58:	05000009 	streq	r0, [r0, #-9]
    4d5c:	0177024c 	cmneq	r7, ip, asr #4
    4d60:	17400000 	strbne	r0, [r0, -r0]
    4d64:	000008a9 	andeq	r0, r0, r9, lsr #17
    4d68:	25024d05 	strcs	r4, [r2, #-3333]	; 0xd05
    4d6c:	44000000 	strmi	r0, [r0], #-0
    4d70:	000c3d17 	andeq	r3, ip, r7, lsl sp
    4d74:	024e0500 	subeq	r0, lr, #0, 10
    4d78:	00000177 	andeq	r0, r0, r7, ror r1
    4d7c:	09991748 	ldmibeq	r9, {r3, r6, r8, r9, sl, ip}
    4d80:	4f050000 	svcmi	0x00050000
    4d84:	00083902 	andeq	r3, r8, r2, lsl #18
    4d88:	d1174c00 	tstle	r7, r0, lsl #24
    4d8c:	05000008 	streq	r0, [r0, #-8]
    4d90:	00250252 	eoreq	r0, r5, r2, asr r2
    4d94:	17500000 	ldrbne	r0, [r0, -r0]
    4d98:	000007f8 	strdeq	r0, [r0], -r8
    4d9c:	07025305 	streq	r5, [r2, -r5, lsl #6]
    4da0:	54000001 	strpl	r0, [r0], #-1
    4da4:	0009b517 	andeq	fp, r9, r7, lsl r5
    4da8:	02760500 	rsbseq	r0, r6, #0, 10
    4dac:	000007f6 	strdeq	r0, [r0], -r6
    4db0:	097a1858 	ldmdbeq	sl!, {r3, r4, r6, fp, ip}^
    4db4:	7a050000 	bvc	144dbc <__bss_end__+0x13a404>
    4db8:	00029402 	andeq	r9, r2, r2, lsl #8
    4dbc:	18014800 	stmdane	r1, {fp, lr}
    4dc0:	000008e6 	andeq	r0, r0, r6, ror #17
    4dc4:	56027b05 	strpl	r7, [r2], -r5, lsl #22
    4dc8:	4c000002 	stcmi	0, cr0, [r0], {2}
    4dcc:	0b9f1801 	bleq	fe7cadd8 <__bss_end__+0xfe7c0420>
    4dd0:	7f050000 	svcvc	0x00050000
    4dd4:	00084a02 	andeq	r4, r8, r2, lsl #20
    4dd8:	1802dc00 	stmdane	r2, {sl, fp, ip, lr, pc}
    4ddc:	000007be 			; <UNDEFINED> instruction: 0x000007be
    4de0:	fb028405 	blx	a5dfe <__bss_end__+0x9b446>
    4de4:	e0000005 	and	r0, r0, r5
    4de8:	07a31802 	streq	r1, [r3, r2, lsl #16]!
    4dec:	85050000 	strhi	r0, [r5, #-0]
    4df0:	00085602 	andeq	r5, r8, r2, lsl #12
    4df4:	0002ec00 	andeq	lr, r2, r0, lsl #24
    4df8:	0406040d 	streq	r0, [r6], #-1037	; 0x40d
    4dfc:	25140000 	ldrcs	r0, [r4, #-0]
    4e00:	85000000 	strhi	r0, [r0, #-0]
    4e04:	15000005 	strne	r0, [r0, #-5]
    4e08:	00000424 	andeq	r0, r0, r4, lsr #8
    4e0c:	00010515 	andeq	r0, r1, r5, lsl r5
    4e10:	05851500 	streq	r1, [r5, #1280]	; 0x500
    4e14:	25150000 	ldrcs	r0, [r5, #-0]
    4e18:	00000000 	andeq	r0, r0, r0
    4e1c:	0114040d 	tsteq	r4, sp, lsl #8
    4e20:	040d0000 	streq	r0, [sp], #-0
    4e24:	00000567 	andeq	r0, r0, r7, ror #10
    4e28:	00008114 	andeq	r8, r0, r4, lsl r1
    4e2c:	0005af00 	andeq	sl, r5, r0, lsl #30
    4e30:	04241500 	strteq	r1, [r4], #-1280	; 0x500
    4e34:	05150000 	ldreq	r0, [r5, #-0]
    4e38:	15000001 	strne	r0, [r0, #-1]
    4e3c:	00000081 	andeq	r0, r0, r1, lsl #1
    4e40:	00002515 	andeq	r2, r0, r5, lsl r5
    4e44:	040d0000 	streq	r0, [sp], #-0
    4e48:	00000591 	muleq	r0, r1, r5
    4e4c:	00002514 	andeq	r2, r0, r4, lsl r5
    4e50:	0005c900 	andeq	ip, r5, r0, lsl #18
    4e54:	04241500 	strteq	r1, [r4], #-1280	; 0x500
    4e58:	05150000 	ldreq	r0, [r5, #-0]
    4e5c:	00000001 	andeq	r0, r0, r1
    4e60:	05b5040d 	ldreq	r0, [r5, #1037]!	; 0x40d
    4e64:	4f080000 	svcmi	0x00080000
    4e68:	df000000 	svcle	0x00000000
    4e6c:	09000005 	stmdbeq	r0, {r0, r2}
    4e70:	000000c7 	andeq	r0, r0, r7, asr #1
    4e74:	4f080002 	svcmi	0x00080002
    4e78:	ef000000 	svc	0x00000000
    4e7c:	09000005 	stmdbeq	r0, {r0, r2}
    4e80:	000000c7 	andeq	r0, r0, r7, asr #1
    4e84:	da050000 	ble	144e8c <__bss_end__+0x13a4d4>
    4e88:	05000009 	streq	r0, [r0, #-9]
    4e8c:	02dc011d 	sbcseq	r0, ip, #1073741831	; 0x40000007
    4e90:	61190000 	tstvs	r9, r0
    4e94:	0c00000b 	stceq	0, cr0, [r0], {11}
    4e98:	30012105 	andcc	r2, r1, r5, lsl #2
    4e9c:	17000006 	strne	r0, [r0, -r6]
    4ea0:	00000a02 	andeq	r0, r0, r2, lsl #20
    4ea4:	30012305 	andcc	r2, r1, r5, lsl #6
    4ea8:	00000006 	andeq	r0, r0, r6
    4eac:	0008df17 	andeq	sp, r8, r7, lsl pc
    4eb0:	01240500 	teqeq	r4, r0, lsl #10
    4eb4:	00000025 	andeq	r0, r0, r5, lsr #32
    4eb8:	09d41704 	ldmibeq	r4, {r2, r8, r9, sl, ip}^
    4ebc:	25050000 	strcs	r0, [r5, #-0]
    4ec0:	00063601 	andeq	r3, r6, r1, lsl #12
    4ec4:	0d000800 	stceq	8, cr0, [r0, #-0]
    4ec8:	0005fb04 	andeq	pc, r5, r4, lsl #22
    4ecc:	ef040d00 	svc	0x00040d00
    4ed0:	19000005 	stmdbne	r0, {r0, r2}
    4ed4:	000006f8 	strdeq	r0, [r0], -r8
    4ed8:	013d050e 	teqeq	sp, lr, lsl #10
    4edc:	00000671 	andeq	r0, r0, r1, ror r6
    4ee0:	000a4817 	andeq	r4, sl, r7, lsl r8
    4ee4:	013e0500 	teqeq	lr, r0, lsl #10
    4ee8:	00000671 	andeq	r0, r0, r1, ror r6
    4eec:	0a821700 	beq	fe08aaf4 <__bss_end__+0xfe08013c>
    4ef0:	3f050000 	svccc	0x00050000
    4ef4:	00067101 	andeq	r7, r6, r1, lsl #2
    4ef8:	06170600 	ldreq	r0, [r7], -r0, lsl #12
    4efc:	0500000b 	streq	r0, [r0, #-11]
    4f00:	00560140 	subseq	r0, r6, r0, asr #2
    4f04:	000c0000 	andeq	r0, ip, r0
    4f08:	00005608 	andeq	r5, r0, r8, lsl #12
    4f0c:	00068100 	andeq	r8, r6, r0, lsl #2
    4f10:	00c70900 	sbceq	r0, r7, r0, lsl #18
    4f14:	00020000 	andeq	r0, r2, r0
    4f18:	5705d01a 	smladpl	r5, sl, r0, sp
    4f1c:	00078202 	andeq	r8, r7, r2, lsl #4
    4f20:	0b451700 	bleq	114ab28 <__bss_end__+0x1140170>
    4f24:	59050000 	stmdbpl	r5, {}	; <UNPREDICTABLE>
    4f28:	00002c02 	andeq	r2, r0, r2, lsl #24
    4f2c:	f0170000 			; <UNDEFINED> instruction: 0xf0170000
    4f30:	0500000a 	streq	r0, [r0, #-10]
    4f34:	0107025a 	tsteq	r7, sl, asr r2
    4f38:	17040000 	strne	r0, [r4, -r0]
    4f3c:	000008fb 	strdeq	r0, [r0], -fp
    4f40:	82025b05 	andhi	r5, r2, #5120	; 0x1400
    4f44:	08000007 	stmdaeq	r0, {r0, r1, r2}
    4f48:	000c1417 	andeq	r1, ip, r7, lsl r4
    4f4c:	025c0500 	subseq	r0, ip, #0, 10
    4f50:	0000018d 	andeq	r0, r0, sp, lsl #3
    4f54:	089a1724 	ldmeq	sl, {r2, r5, r8, r9, sl, ip}
    4f58:	5d050000 	stcpl	0, cr0, [r5, #-0]
    4f5c:	00002502 	andeq	r2, r0, r2, lsl #10
    4f60:	fd174800 	ldc2	8, cr4, [r7, #-0]
    4f64:	05000009 	streq	r0, [r0, #-9]
    4f68:	0064025e 	rsbeq	r0, r4, lr, asr r2
    4f6c:	17500000 	ldrbne	r0, [r0, -r0]
    4f70:	00000c2a 	andeq	r0, r0, sl, lsr #24
    4f74:	3c025f05 	stccc	15, cr5, [r2], {5}
    4f78:	58000006 	stmdapl	r0, {r1, r2}
    4f7c:	000a0817 	andeq	r0, sl, r7, lsl r8
    4f80:	02600500 	rsbeq	r0, r0, #0, 10
    4f84:	000000ef 	andeq	r0, r0, pc, ror #1
    4f88:	0c2f1768 	stceq	7, cr1, [pc], #-416	; 4df0 <_start-0x3210>
    4f8c:	61050000 	mrsvs	r0, (UNDEF: 5)
    4f90:	0000ef02 	andeq	lr, r0, r2, lsl #30
    4f94:	5d177000 	ldcpl	0, cr7, [r7, #-0]
    4f98:	05000007 	streq	r0, [r0, #-7]
    4f9c:	00ef0262 	rsceq	r0, pc, r2, ror #4
    4fa0:	17780000 	ldrbne	r0, [r8, -r0]!
    4fa4:	00000b81 	andeq	r0, r0, r1, lsl #23
    4fa8:	92026305 	andls	r6, r2, #335544320	; 0x14000000
    4fac:	80000007 	andhi	r0, r0, r7
    4fb0:	0008ef17 	andeq	lr, r8, r7, lsl pc
    4fb4:	02640500 	rsbeq	r0, r4, #0, 10
    4fb8:	000007a2 	andeq	r0, r0, r2, lsr #15
    4fbc:	0b131788 	bleq	4cade4 <__bss_end__+0x4c042c>
    4fc0:	65050000 	strvs	r0, [r5, #-0]
    4fc4:	00002502 	andeq	r2, r0, r2, lsl #10
    4fc8:	4617a000 	ldrmi	sl, [r7], -r0
    4fcc:	05000008 	streq	r0, [r0, #-8]
    4fd0:	00ef0266 	rsceq	r0, pc, r6, ror #4
    4fd4:	17a40000 	strne	r0, [r4, r0]!
    4fd8:	0000074e 	andeq	r0, r0, lr, asr #14
    4fdc:	ef026705 	svc	0x00026705
    4fe0:	ac000000 	stcge	0, cr0, [r0], {-0}
    4fe4:	00083517 	andeq	r3, r8, r7, lsl r5
    4fe8:	02680500 	rsbeq	r0, r8, #0, 10
    4fec:	000000ef 	andeq	r0, r0, pc, ror #1
    4ff0:	071517b4 			; <UNDEFINED> instruction: 0x071517b4
    4ff4:	69050000 	stmdbvs	r5, {}	; <UNPREDICTABLE>
    4ff8:	0000ef02 	andeq	lr, r0, r2, lsl #30
    4ffc:	2417bc00 	ldrcs	fp, [r7], #-3072	; 0xc00
    5000:	05000007 	streq	r0, [r0, #-7]
    5004:	00ef026a 	rsceq	r0, pc, sl, ror #4
    5008:	17c40000 	strbne	r0, [r4, r0]
    500c:	000009ba 			; <UNDEFINED> instruction: 0x000009ba
    5010:	25026b05 	strcs	r6, [r2, #-2821]	; 0xb05
    5014:	cc000000 	stcgt	0, cr0, [r0], {-0}
    5018:	010d0800 	tsteq	sp, r0, lsl #16
    501c:	07920000 	ldreq	r0, [r2, r0]
    5020:	c7090000 	strgt	r0, [r9, -r0]
    5024:	19000000 	stmdbne	r0, {}	; <UNPREDICTABLE>
    5028:	010d0800 	tsteq	sp, r0, lsl #16
    502c:	07a20000 	streq	r0, [r2, r0]!
    5030:	c7090000 	strgt	r0, [r9, -r0]
    5034:	07000000 	streq	r0, [r0, -r0]
    5038:	010d0800 	tsteq	sp, r0, lsl #16
    503c:	07b20000 	ldreq	r0, [r2, r0]!
    5040:	c7090000 	strgt	r0, [r9, -r0]
    5044:	17000000 	strne	r0, [r0, -r0]
    5048:	05f01a00 	ldrbeq	r1, [r0, #2560]!	; 0xa00
    504c:	07d60270 			; <UNDEFINED> instruction: 0x07d60270
    5050:	6a170000 	bvs	5c5058 <__bss_end__+0x5ba6a0>
    5054:	05000009 	streq	r0, [r0, #-9]
    5058:	07d60273 			; <UNDEFINED> instruction: 0x07d60273
    505c:	17000000 	strne	r0, [r0, -r0]
    5060:	00000b78 	andeq	r0, r0, r8, ror fp
    5064:	e6027405 	str	r7, [r2], -r5, lsl #8
    5068:	78000007 	stmdavc	r0, {r0, r1, r2}
    506c:	02d60800 	sbcseq	r0, r6, #0, 16
    5070:	07e60000 	strbeq	r0, [r6, r0]!
    5074:	c7090000 	strgt	r0, [r9, -r0]
    5078:	1d000000 	stcne	0, cr0, [r0, #-0]
    507c:	002c0800 	eoreq	r0, ip, r0, lsl #16
    5080:	07f60000 	ldrbeq	r0, [r6, r0]!
    5084:	c7090000 	strgt	r0, [r9, -r0]
    5088:	1d000000 	stcne	0, cr0, [r0, #-0]
    508c:	05f01b00 	ldrbeq	r1, [r0, #2816]!	; 0xb00
    5090:	08180255 	ldmdaeq	r8, {r0, r2, r4, r6, r9}
    5094:	411c0000 	tstmi	ip, r0
    5098:	0500000a 	streq	r0, [r0, #-10]
    509c:	0681026c 	streq	r0, [r1], ip, ror #4
    50a0:	d41c0000 	ldrle	r0, [ip], #-0
    50a4:	0500000b 	streq	r0, [r0, #-11]
    50a8:	07b20275 			; <UNDEFINED> instruction: 0x07b20275
    50ac:	08000000 	stmdaeq	r0, {}	; <UNPREDICTABLE>
    50b0:	0000010d 	andeq	r0, r0, sp, lsl #2
    50b4:	00000828 	andeq	r0, r0, r8, lsr #16
    50b8:	0000c709 	andeq	ip, r0, r9, lsl #14
    50bc:	1d001800 	stcne	8, cr1, [r0, #-0]
    50c0:	00000833 	andeq	r0, r0, r3, lsr r8
    50c4:	00042415 	andeq	r2, r4, r5, lsl r4
    50c8:	040d0000 	streq	r0, [sp], #-0
    50cc:	00000828 	andeq	r0, r0, r8, lsr #16
    50d0:	0177040d 	cmneq	r7, sp, lsl #8
    50d4:	4a1d0000 	bmi	7450dc <__bss_end__+0x73a724>
    50d8:	15000008 	strne	r0, [r0, #-8]
    50dc:	00000025 	andeq	r0, r0, r5, lsr #32
    50e0:	50040d00 	andpl	r0, r4, r0, lsl #26
    50e4:	0d000008 	stceq	0, cr0, [r0, #-32]	; 0xffffffe0
    50e8:	00083f04 	andeq	r3, r8, r4, lsl #30
    50ec:	05ef0800 	strbeq	r0, [pc, #2048]!	; 58f4 <_start-0x270c>
    50f0:	08660000 	stmdaeq	r6!, {}^	; <UNPREDICTABLE>
    50f4:	c7090000 	strgt	r0, [r9, -r0]
    50f8:	02000000 	andeq	r0, r0, #0
    50fc:	0b271e00 	bleq	9cc904 <__bss_end__+0x9c1f4c>
    5100:	fd050000 	stc2	0, cr0, [r5, #-0]
    5104:	00042402 	andeq	r2, r4, r2, lsl #8
    5108:	0b201e00 	bleq	80c910 <__bss_end__+0x801f58>
    510c:	fe050000 	cdp2	0, 0, cr0, cr5, cr0, {0}
    5110:	00042a02 	andeq	r2, r4, r2, lsl #20
    5114:	00251400 	eoreq	r1, r5, r0, lsl #8
    5118:	088d0000 	stmeq	sp, {}	; <UNPREDICTABLE>
    511c:	25150000 	ldrcs	r0, [r5, #-0]
    5120:	00000000 	andeq	r0, r0, r0
    5124:	00052a1f 	andeq	r2, r5, pc, lsl sl
    5128:	981d0600 	ldmdals	sp, {r9, sl}
    512c:	0d000008 	stceq	0, cr0, [r0, #-32]	; 0xffffffe0
    5130:	00087e04 	andeq	r7, r8, r4, lsl #28
    5134:	00251400 	eoreq	r1, r5, r0, lsl #8
    5138:	08ad0000 	stmiaeq	sp!, {}	; <UNPREDICTABLE>
    513c:	85150000 	ldrhi	r0, [r5, #-0]
    5140:	00000005 	andeq	r0, r0, r5
    5144:	0005671f 	andeq	r6, r5, pc, lsl r7
    5148:	b8220600 	stmdalt	r2!, {r9, sl}
    514c:	0d000008 	stceq	0, cr0, [r0, #-32]	; 0xffffffe0
    5150:	00089e04 	andeq	r9, r8, r4, lsl #28
    5154:	04080300 	streq	r0, [r8], #-768	; 0x300
    5158:	00000cf6 	strdeq	r0, [r0], -r6
    515c:	000d2e1f 	andeq	r2, sp, pc, lsl lr
    5160:	0d0d0100 	stfeqs	f0, [sp, #-0]
    5164:	20000001 	andcs	r0, r0, r1
    5168:	00000410 	andeq	r0, r0, r0, lsl r4
    516c:	01070e01 	tsteq	r7, r1, lsl #28
    5170:	03050000 	movweq	r0, #20480	; 0x5000
    5174:	00009bb8 			; <UNDEFINED> instruction: 0x00009bb8
    5178:	000d4520 	andeq	r4, sp, r0, lsr #10
    517c:	070f0100 	streq	r0, [pc, -r0, lsl #2]
    5180:	05000001 	streq	r0, [r0, #-1]
    5184:	009bbc03 	addseq	fp, fp, r3, lsl #24
    5188:	0d072100 	stfeqs	f2, [r7, #-0]
    518c:	38010000 	stmdacc	r1, {}	; <UNPREDICTABLE>
    5190:	00009b88 	andeq	r9, r0, r8, lsl #23
    5194:	00000010 	andeq	r0, r0, r0, lsl r0
    5198:	09139c01 	ldmdbeq	r3, {r0, sl, fp, ip, pc}
    519c:	70220000 	eorvc	r0, r2, r0
    51a0:	05380100 	ldreq	r0, [r8, #-256]!	; 0x100
    51a4:	01000001 	tsteq	r0, r1
    51a8:	fd230050 	stc2	0, cr0, [r3, #-320]!	; 0xfffffec0
    51ac:	0100000c 	tsteq	r0, ip
    51b0:	009b7437 	addseq	r7, fp, r7, lsr r4
    51b4:	00001400 	andeq	r1, r0, r0, lsl #8
    51b8:	219c0100 	orrscs	r0, ip, r0, lsl #2
    51bc:	00000238 	andeq	r0, r0, r8, lsr r2
    51c0:	9b703601 	blls	1c129cc <__bss_end__+0x1c08014>
    51c4:	00040000 	andeq	r0, r4, r0
    51c8:	9c010000 	stcls	0, cr0, [r1], {-0}
    51cc:	00000945 	andeq	r0, r0, r5, asr #18
    51d0:	01007022 	tsteq	r0, r2, lsr #32
    51d4:	00010536 	andeq	r0, r1, r6, lsr r5
    51d8:	00500100 	subseq	r0, r0, r0, lsl #2
    51dc:	000ce624 	andeq	lr, ip, r4, lsr #12
    51e0:	05290100 	streq	r0, [r9, #-256]!	; 0x100
    51e4:	e4000001 	str	r0, [r0], #-1
    51e8:	8c00009a 	stchi	0, cr0, [r0], {154}	; 0x9a
    51ec:	01000000 	mrseq	r0, (UNDEF: 0)
    51f0:	000a309c 	muleq	sl, ip, r0
    51f4:	033a2500 	teqeq	sl, #0, 10
    51f8:	29010000 	stmdbcs	r1, {}	; <UNPREDICTABLE>
    51fc:	0000002c 	andeq	r0, r0, ip, lsr #32
    5200:	000016f3 	strdeq	r1, [r0], -r3
    5204:	000d2425 	andeq	r2, sp, r5, lsr #8
    5208:	2c290100 	stfcss	f0, [r9], #-0
    520c:	46000000 	strmi	r0, [r0], -r0
    5210:	26000017 			; <UNDEFINED> instruction: 0x26000017
    5214:	00000110 	andeq	r0, r0, r0, lsl r1
    5218:	00000a40 	andeq	r0, r0, r0, asr #20
    521c:	a4880305 	strge	r0, [r8], #773	; 0x305
    5220:	68270000 	stmdavs	r7!, {}	; <UNPREDICTABLE>
    5224:	2c2e0100 	stfcss	f0, [lr], #-0
    5228:	8d000000 	stchi	0, cr0, [r0, #-0]
    522c:	28000017 	stmdacs	r0, {r0, r1, r2, r4}
    5230:	00009b20 	andeq	r9, r0, r0, lsr #22
    5234:	00000a79 	andeq	r0, r0, r9, ror sl
    5238:	000009ad 	andeq	r0, r0, sp, lsr #19
    523c:	03500129 	cmpeq	r0, #1073741834	; 0x4000000a
    5240:	005001f3 	ldrsheq	r0, [r0], #-19	; 0xffffffed
    5244:	009b282a 	addseq	r2, fp, sl, lsr #16
    5248:	000bfb00 	andeq	pc, fp, r0, lsl #22
    524c:	9b3c2800 	blls	f0f254 <__bss_end__+0xf0489c>
    5250:	0c060000 	stceq	0, cr0, [r6], {-0}
    5254:	09e50000 	stmibeq	r5!, {}^	; <UNPREDICTABLE>
    5258:	01290000 	teqeq	r9, r0
    525c:	d4030550 	strle	r0, [r3], #-1360	; 0x550
    5260:	290000a4 	stmdbcs	r0, {r2, r5, r7}
    5264:	03055101 	movweq	r5, #20737	; 0x5101
    5268:	0000a498 	muleq	r0, r8, r4
    526c:	05520129 	ldrbeq	r0, [r2, #-297]	; 0x129
    5270:	00a48803 	adceq	r8, r4, r3, lsl #16
    5274:	53012900 	movwpl	r2, #6400	; 0x1900
    5278:	002a0802 	eoreq	r0, sl, r2, lsl #16
    527c:	009b402a 	addseq	r4, fp, sl, lsr #32
    5280:	000c1100 	andeq	r1, ip, r0, lsl #2
    5284:	9b442a00 	blls	110fa8c <__bss_end__+0x11050d4>
    5288:	0bfb0000 	bleq	ffec5290 <__bss_end__+0xffeba8d8>
    528c:	58280000 	stmdapl	r8!, {}	; <UNPREDICTABLE>
    5290:	0600009b 			; <UNDEFINED> instruction: 0x0600009b
    5294:	2600000c 	strcs	r0, [r0], -ip
    5298:	2900000a 	stmdbcs	r0, {r1, r3}
    529c:	03055001 	movweq	r5, #20481	; 0x5001
    52a0:	0000a534 	andeq	sl, r0, r4, lsr r5
    52a4:	05510129 	ldrbeq	r0, [r1, #-297]	; 0x129
    52a8:	00a49803 	adceq	r9, r4, r3, lsl #16
    52ac:	52012900 	andpl	r2, r1, #0, 18
    52b0:	a4880305 	strge	r0, [r8], #773	; 0x305
    52b4:	01290000 	teqeq	r9, r0
    52b8:	30080253 	andcc	r0, r8, r3, asr r2
    52bc:	9b5c2a00 	blls	170fac4 <__bss_end__+0x170510c>
    52c0:	0c110000 	ldceq	0, cr0, [r1], {-0}
    52c4:	08000000 	stmdaeq	r0, {}	; <UNPREDICTABLE>
    52c8:	00000114 	andeq	r0, r0, r4, lsl r1
    52cc:	00000a40 	andeq	r0, r0, r0, asr #20
    52d0:	0000c709 	andeq	ip, r0, r9, lsl #14
    52d4:	0e000f00 	cdpeq	15, 0, cr0, cr0, cr0, {0}
    52d8:	00000a30 	andeq	r0, r0, r0, lsr sl
    52dc:	000d1324 	andeq	r1, sp, r4, lsr #6
    52e0:	05250100 	streq	r0, [r5, #-256]!	; 0x100
    52e4:	d8000001 	stmdale	r0, {r0}
    52e8:	0c00009a 	stceq	0, cr0, [r0], {154}	; 0x9a
    52ec:	01000000 	mrseq	r0, (UNDEF: 0)
    52f0:	000a689c 	muleq	sl, ip, r8
    52f4:	9ae02a00 	bls	ff80fafc <__bss_end__+0xff805144>
    52f8:	0bd10000 	bleq	ff445300 <__bss_end__+0xff43a948>
    52fc:	23000000 	movwcs	r0, #0
    5300:	00000cd9 	ldrdeq	r0, [r0], -r9
    5304:	9ad42401 	bls	ff50e310 <__bss_end__+0xff503958>
    5308:	00040000 	andeq	r0, r4, r0
    530c:	9c010000 	stcls	0, cr0, [r1], {-0}
    5310:	00010124 	andeq	r0, r1, r4, lsr #2
    5314:	051a0100 	ldreq	r0, [sl, #-256]	; 0x100
    5318:	70000001 	andvc	r0, r0, r1
    531c:	6400009a 	strvs	r0, [r0], #-154	; 0x9a
    5320:	01000000 	mrseq	r0, (UNDEF: 0)
    5324:	000b249c 	muleq	fp, ip, r4
    5328:	7a732b00 	bvc	1ccff30 <__bss_end__+0x1cc5578>
    532c:	2c1a0100 	ldfcss	f0, [sl], {-0}
    5330:	c5000000 	strgt	r0, [r0, #-0]
    5334:	26000017 			; <UNDEFINED> instruction: 0x26000017
    5338:	00000110 	andeq	r0, r0, r0, lsl r1
    533c:	00000b34 	andeq	r0, r0, r4, lsr fp
    5340:	a4800305 	strge	r0, [r0], #773	; 0x305
    5344:	512c0000 	teqpl	ip, r0
    5348:	0100000d 	tsteq	r0, sp
    534c:	0001051e 	andeq	r0, r1, lr, lsl r5
    5350:	00180f00 	andseq	r0, r8, r0, lsl #30
    5354:	9aa02800 	bls	fe80f35c <__bss_end__+0xfe8049a4>
    5358:	0c1c0000 	ldceq	0, cr0, [ip], {-0}
    535c:	0ae30000 	beq	ff8c5364 <__bss_end__+0xff8ba9ac>
    5360:	01290000 	teqeq	r9, r0
    5364:	00740250 	rsbseq	r0, r4, r0, asr r2
    5368:	01510129 	cmpeq	r1, r9, lsr #2
    536c:	52012930 	andpl	r2, r1, #48, 18	; 0xc0000
    5370:	5001f308 	andpl	pc, r1, r8, lsl #6
    5374:	f8090723 			; <UNDEFINED> instruction: 0xf8090723
    5378:	ac2a001a 	stcge	0, cr0, [sl], #-104	; 0xffffff98
    537c:	fb00009a 	blx	55ee <_start-0x2a12>
    5380:	2800000b 	stmdacs	r0, {r0, r1, r3}
    5384:	00009ac0 	andeq	r9, r0, r0, asr #21
    5388:	00000c06 	andeq	r0, r0, r6, lsl #24
    538c:	00000b1a 	andeq	r0, r0, sl, lsl fp
    5390:	05500129 	ldrbeq	r0, [r0, #-297]	; 0x129
    5394:	00a4c003 	adceq	ip, r4, r3
    5398:	51012900 	tstpl	r1, r0, lsl #18
    539c:	a4980305 	ldrge	r0, [r8], #773	; 0x305
    53a0:	01290000 	teqeq	r9, r0
    53a4:	80030552 	andhi	r0, r3, r2, asr r5
    53a8:	290000a4 	stmdbcs	r0, {r2, r5, r7}
    53ac:	4b015301 	blmi	59fb8 <__bss_end__+0x4f600>
    53b0:	9ac42a00 	bls	ff10fbb8 <__bss_end__+0xff105200>
    53b4:	0c110000 	ldceq	0, cr0, [r1], {-0}
    53b8:	08000000 	stmdaeq	r0, {}	; <UNPREDICTABLE>
    53bc:	00000114 	andeq	r0, r0, r4, lsl r1
    53c0:	00000b34 	andeq	r0, r0, r4, lsr fp
    53c4:	0000c709 	andeq	ip, r0, r9, lsl #14
    53c8:	0e000700 	cdpeq	7, 0, cr0, cr0, cr0, {0}
    53cc:	00000b24 	andeq	r0, r0, r4, lsr #22
    53d0:	00016b21 	andeq	r6, r1, r1, lsr #22
    53d4:	20140100 	andscs	r0, r4, r0, lsl #2
    53d8:	5000009a 	mulpl	r0, sl, r0
    53dc:	01000000 	mrseq	r0, (UNDEF: 0)
    53e0:	000bbc9c 	muleq	fp, ip, ip
    53e4:	0d502500 	cfldr64eq	mvdx2, [r0, #-0]
    53e8:	14010000 	strne	r0, [r1], #-0
    53ec:	0000002c 	andeq	r0, r0, ip, lsr #32
    53f0:	00001822 	andeq	r1, r0, r2, lsr #16
    53f4:	000d512c 	andeq	r5, sp, ip, lsr #2
    53f8:	07150100 	ldreq	r0, [r5, -r0, lsl #2]
    53fc:	43000001 	movwmi	r0, #1
    5400:	26000018 			; <UNDEFINED> instruction: 0x26000018
    5404:	00000110 	andeq	r0, r0, r0, lsl r1
    5408:	00000bcc 	andeq	r0, r0, ip, asr #23
    540c:	a4680305 	strbtge	r0, [r8], #-773	; 0x305
    5410:	482a0000 	stmdami	sl!, {}	; <UNPREDICTABLE>
    5414:	fb00009a 	blx	5686 <_start-0x297a>
    5418:	2800000b 	stmdacs	r0, {r0, r1, r3}
    541c:	00009a5c 	andeq	r9, r0, ip, asr sl
    5420:	00000c06 	andeq	r0, r0, r6, lsl #24
    5424:	00000bb2 			; <UNDEFINED> instruction: 0x00000bb2
    5428:	05500129 	ldrbeq	r0, [r0, #-297]	; 0x129
    542c:	00a4a403 	adceq	sl, r4, r3, lsl #8
    5430:	51012900 	tstpl	r1, r0, lsl #18
    5434:	a4980305 	ldrge	r0, [r8], #773	; 0x305
    5438:	01290000 	teqeq	r9, r0
    543c:	68030552 	stmdavs	r3, {r1, r4, r6, r8, sl}
    5440:	290000a4 	stmdbcs	r0, {r2, r5, r7}
    5444:	46015301 	strmi	r5, [r1], -r1, lsl #6
    5448:	9a602a00 	bls	180fc50 <__bss_end__+0x1805298>
    544c:	0c110000 	ldceq	0, cr0, [r1], {-0}
    5450:	08000000 	stmdaeq	r0, {}	; <UNPREDICTABLE>
    5454:	00000114 	andeq	r0, r0, r4, lsl r1
    5458:	00000bcc 	andeq	r0, r0, ip, asr #23
    545c:	0000c709 	andeq	ip, r0, r9, lsl #14
    5460:	0e001600 	cfmadd32eq	mvax0, mvfx1, mvfx0, mvfx0
    5464:	00000bbc 			; <UNDEFINED> instruction: 0x00000bbc
    5468:	000d3d2d 	andeq	r3, sp, sp, lsr #26
    546c:	05120100 	ldreq	r0, [r2, #-256]	; 0x100
    5470:	14000001 	strne	r0, [r0], #-1
    5474:	0c00009a 	stceq	0, cr0, [r0], {154}	; 0x9a
    5478:	01000000 	mrseq	r0, (UNDEF: 0)
    547c:	0d562d9c 	ldcleq	13, cr2, [r6, #-624]	; 0xfffffd90
    5480:	11010000 	mrsne	r0, (UNDEF: 1)
    5484:	00000105 	andeq	r0, r0, r5, lsl #2
    5488:	00009a04 	andeq	r9, r0, r4, lsl #20
    548c:	00000010 	andeq	r0, r0, r0, lsl r0
    5490:	1e2e9c01 	cdpne	12, 2, cr9, cr14, cr1, {0}
    5494:	1e000002 	cdpne	0, 0, cr0, cr0, cr2, {0}
    5498:	06000002 	streq	r0, [r0], -r2
    549c:	04f92e1e 	ldrbteq	r2, [r9], #3614	; 0xe1e
    54a0:	04f90000 	ldrbteq	r0, [r9], #0
    54a4:	29060000 	stmdbcs	r6, {}	; <UNPREDICTABLE>
    54a8:	0002552e 	andeq	r5, r2, lr, lsr #10
    54ac:	00025500 	andeq	r5, r2, r0, lsl #10
    54b0:	2e650600 	cdpcs	6, 6, cr0, cr5, cr0, {0}
    54b4:	00000109 	andeq	r0, r0, r9, lsl #2
    54b8:	00000109 	andeq	r0, r0, r9, lsl #2
    54bc:	Address 0x00000000000054bc is out of bounds.


Disassembly of section .debug_abbrev:

00000000 <.debug_abbrev>:
       0:	25011101 	strcs	r1, [r1, #-257]	; 0x101
       4:	030b130e 	movweq	r1, #45838	; 0xb30e
       8:	110e1b0e 	tstne	lr, lr, lsl #22
       c:	10061201 	andne	r1, r6, r1, lsl #4
      10:	02000017 	andeq	r0, r0, #23
      14:	0b0b0024 	bleq	2c00ac <__bss_end__+0x2b56f4>
      18:	08030b3e 	stmdaeq	r3, {r1, r2, r3, r4, r5, r8, r9, fp}
      1c:	16030000 	strne	r0, [r3], -r0
      20:	3a0e0300 	bcc	380c28 <__bss_end__+0x376270>
      24:	490b3b0b 	stmdbmi	fp, {r0, r1, r3, r8, r9, fp, ip, sp}
      28:	04000013 	streq	r0, [r0], #-19
      2c:	0b0b0024 	bleq	2c00c4 <__bss_end__+0x2b570c>
      30:	0e030b3e 	vmoveq.16	d3[0], r0
      34:	0f050000 	svceq	0x00050000
      38:	000b0b00 	andeq	r0, fp, r0, lsl #22
      3c:	000f0600 	andeq	r0, pc, r0, lsl #12
      40:	13490b0b 	movtne	r0, #39691	; 0x9b0b
      44:	26070000 	strcs	r0, [r7], -r0
      48:	00134900 	andseq	r4, r3, r0, lsl #18
      4c:	012e0800 	teqeq	lr, r0, lsl #16
      50:	0e03193f 	mcreq	9, 0, r1, cr3, cr15, {1}
      54:	0b3b0b3a 	bleq	ec2d44 <__bss_end__+0xeb838c>
      58:	13491927 	movtne	r1, #39207	; 0x9927
      5c:	06120111 			; <UNDEFINED> instruction: 0x06120111
      60:	42971840 	addsmi	r1, r7, #64, 16	; 0x400000
      64:	00130119 	andseq	r0, r3, r9, lsl r1
      68:	01130900 	tsteq	r3, r0, lsl #18
      6c:	0b0b0e03 	bleq	2c3880 <__bss_end__+0x2b8ec8>
      70:	0b3b0b3a 	bleq	ec2d60 <__bss_end__+0xeb83a8>
      74:	00001301 	andeq	r1, r0, r1, lsl #6
      78:	03000d0a 	movweq	r0, #3338	; 0xd0a
      7c:	3b0b3a08 	blcc	2ce8a4 <__bss_end__+0x2c3eec>
      80:	3813490b 	ldmdacc	r3, {r0, r1, r3, r8, fp, lr}
      84:	0b00000b 	bleq	b8 <_start-0x7f48>
      88:	0e03000d 	cdpeq	0, 0, cr0, cr3, cr13, {0}
      8c:	0b3b0b3a 	bleq	ec2d7c <__bss_end__+0xeb83c4>
      90:	0b381349 	bleq	e04dbc <__bss_end__+0xdfa404>
      94:	340c0000 	strcc	r0, [ip], #-0
      98:	3a080300 	bcc	200ca0 <__bss_end__+0x1f62e8>
      9c:	490b3b0b 	stmdbmi	fp, {r0, r1, r3, r8, r9, fp, ip, sp}
      a0:	00170213 	andseq	r0, r7, r3, lsl r2
      a4:	00340d00 	eorseq	r0, r4, r0, lsl #26
      a8:	13490e03 	movtne	r0, #40451	; 0x9e03
      ac:	18021934 	stmdane	r2, {r2, r4, r5, r8, fp, ip}
      b0:	0b0e0000 	bleq	3800b8 <__bss_end__+0x375700>
      b4:	01175501 	tsteq	r7, r1, lsl #10
      b8:	0f000013 	svceq	0x00000013
      bc:	1755010b 	ldrbne	r0, [r5, -fp, lsl #2]
      c0:	89100000 	ldmdbhi	r0, {}	; <UNPREDICTABLE>
      c4:	11010182 	smlabbne	r1, r2, r1, r0
      c8:	01133101 	tsteq	r3, r1, lsl #2
      cc:	11000013 	tstne	r0, r3, lsl r0
      d0:	0001828a 	andeq	r8, r1, sl, lsl #5
      d4:	42911802 	addsmi	r1, r1, #131072	; 0x20000
      d8:	12000018 	andne	r0, r0, #24
      dc:	01018289 	smlabbeq	r1, r9, r2, r8
      e0:	13310111 	teqne	r1, #1073741828	; 0x40000004
      e4:	89130000 	ldmdbhi	r3, {}	; <UNPREDICTABLE>
      e8:	11000182 	smlabbne	r0, r2, r1, r0
      ec:	00133101 	andseq	r3, r3, r1, lsl #2
      f0:	01011400 	tsteq	r1, r0, lsl #8
      f4:	13011349 	movwne	r1, #4937	; 0x1349
      f8:	21150000 	tstcs	r5, r0
      fc:	2f134900 	svccs	0x00134900
     100:	1600000b 	strne	r0, [r0], -fp
     104:	193f012e 	ldmdbne	pc!, {r1, r2, r3, r5, r8}	; <UNPREDICTABLE>
     108:	0b3a0e03 	bleq	e8391c <__bss_end__+0xe78f64>
     10c:	19270b3b 	stmdbne	r7!, {r0, r1, r3, r4, r5, r8, r9, fp}
     110:	06120111 			; <UNDEFINED> instruction: 0x06120111
     114:	42971840 	addsmi	r1, r7, #64, 16	; 0x400000
     118:	00130119 	andseq	r0, r3, r9, lsl r1
     11c:	00341700 	eorseq	r1, r4, r0, lsl #14
     120:	0b3a0803 	bleq	e82134 <__bss_end__+0xe7777c>
     124:	13490b3b 	movtne	r0, #39739	; 0x9b3b
     128:	0000061c 	andeq	r0, r0, ip, lsl r6
     12c:	3f012e18 	svccc	0x00012e18
     130:	3a0e0319 	bcc	380d9c <__bss_end__+0x3763e4>
     134:	270b3b0b 	strcs	r3, [fp, -fp, lsl #22]
     138:	3c134919 	ldccc	9, cr4, [r3], {25}
     13c:	00130119 	andseq	r0, r3, r9, lsl r1
     140:	00051900 	andeq	r1, r5, r0, lsl #18
     144:	00001349 	andeq	r1, r0, r9, asr #6
     148:	3f002e1a 	svccc	0x00002e1a
     14c:	3a0e0319 	bcc	380db8 <__bss_end__+0x376400>
     150:	270b3b0b 	strcs	r3, [fp, -fp, lsl #22]
     154:	00193c19 	andseq	r3, r9, r9, lsl ip
     158:	00181b00 	andseq	r1, r8, r0, lsl #22
     15c:	2e1c0000 	cdpcs	0, 1, cr0, cr12, cr0, {0}
     160:	03193f01 	tsteq	r9, #1, 30
     164:	3b0b3a0e 	blcc	2ce9a4 <__bss_end__+0x2c3fec>
     168:	3c19270b 	ldccc	7, cr2, [r9], {11}
     16c:	00130119 	andseq	r0, r3, r9, lsl r1
     170:	012e1d00 	teqeq	lr, r0, lsl #26
     174:	0e03193f 	mcreq	9, 0, r1, cr3, cr15, {1}
     178:	0b3b0b3a 	bleq	ec2e68 <__bss_end__+0xeb84b0>
     17c:	193c1927 	ldmdbne	ip!, {r0, r1, r2, r5, r8, fp, ip}
     180:	01000000 	mrseq	r0, (UNDEF: 0)
     184:	0e250111 	mcreq	1, 1, r0, cr5, cr1, {0}
     188:	0e030b13 	vmoveq.32	d3[0], r0
     18c:	01110e1b 	tsteq	r1, fp, lsl lr
     190:	17100612 			; <UNDEFINED> instruction: 0x17100612
     194:	24020000 	strcs	r0, [r2], #-0
     198:	3e0b0b00 	vmlacc.f64	d0, d11, d0
     19c:	0008030b 	andeq	r0, r8, fp, lsl #6
     1a0:	00160300 	andseq	r0, r6, r0, lsl #6
     1a4:	0b3a0e03 	bleq	e839b8 <__bss_end__+0xe79000>
     1a8:	13490b3b 	movtne	r0, #39739	; 0x9b3b
     1ac:	24040000 	strcs	r0, [r4], #-0
     1b0:	3e0b0b00 	vmlacc.f64	d0, d11, d0
     1b4:	000e030b 	andeq	r0, lr, fp, lsl #6
     1b8:	000f0500 	andeq	r0, pc, r0, lsl #10
     1bc:	00000b0b 	andeq	r0, r0, fp, lsl #22
     1c0:	0b000f06 	bleq	3de0 <_start-0x4220>
     1c4:	0013490b 	andseq	r4, r3, fp, lsl #18
     1c8:	00260700 	eoreq	r0, r6, r0, lsl #14
     1cc:	00001349 	andeq	r1, r0, r9, asr #6
     1d0:	49010108 	stmdbmi	r1, {r3, r8}
     1d4:	00130113 	andseq	r0, r3, r3, lsl r1
     1d8:	00210900 	eoreq	r0, r1, r0, lsl #18
     1dc:	0b2f1349 	bleq	bc4f08 <__bss_end__+0xbba550>
     1e0:	040a0000 	streq	r0, [sl], #-0
     1e4:	3a0b0b01 	bcc	2c2df0 <__bss_end__+0x2b8438>
     1e8:	010b3b0b 	tsteq	fp, fp, lsl #22
     1ec:	0b000013 	bleq	240 <_start-0x7dc0>
     1f0:	0e030028 	cdpeq	0, 0, cr0, cr3, cr8, {1}
     1f4:	00000d1c 	andeq	r0, r0, ip, lsl sp
     1f8:	0b01130c 	bleq	44e30 <__bss_end__+0x3a478>
     1fc:	3b0b3a0b 	blcc	2cea30 <__bss_end__+0x2c4078>
     200:	0013010b 	andseq	r0, r3, fp, lsl #2
     204:	000d0d00 	andeq	r0, sp, r0, lsl #26
     208:	0b3a0e03 	bleq	e83a1c <__bss_end__+0xe79064>
     20c:	13490b3b 	movtne	r0, #39739	; 0x9b3b
     210:	00000b38 	andeq	r0, r0, r8, lsr fp
     214:	0301130e 	movweq	r1, #4878	; 0x130e
     218:	3a0b0b0e 	bcc	2c2e58 <__bss_end__+0x2b84a0>
     21c:	010b3b0b 	tsteq	fp, fp, lsl #22
     220:	0f000013 	svceq	0x00000013
     224:	0e03012e 	adfeqsp	f0, f3, #0.5
     228:	0b3b0b3a 	bleq	ec2f18 <__bss_end__+0xeb8560>
     22c:	13491927 	movtne	r1, #39207	; 0x9927
     230:	13010b20 	movwne	r0, #6944	; 0x1b20
     234:	05100000 	ldreq	r0, [r0, #-0]
     238:	3a080300 	bcc	200e40 <__bss_end__+0x1f6488>
     23c:	490b3b0b 	stmdbmi	fp, {r0, r1, r3, r8, r9, fp, ip, sp}
     240:	11000013 	tstne	r0, r3, lsl r0
     244:	0e030005 	cdpeq	0, 0, cr0, cr3, cr5, {0}
     248:	0b3b0b3a 	bleq	ec2f38 <__bss_end__+0xeb8580>
     24c:	00001349 	andeq	r1, r0, r9, asr #6
     250:	03012e12 	movweq	r2, #7698	; 0x1e12
     254:	3b0b3a0e 	blcc	2cea94 <__bss_end__+0x2c40dc>
     258:	2019270b 	andscs	r2, r9, fp, lsl #14
     25c:	0013010b 	andseq	r0, r3, fp, lsl #2
     260:	00341300 	eorseq	r1, r4, r0, lsl #6
     264:	0b3a0803 	bleq	e82278 <__bss_end__+0xe778c0>
     268:	13490b3b 	movtne	r0, #39739	; 0x9b3b
     26c:	2e140000 	cdpcs	0, 1, cr0, cr4, cr0, {0}
     270:	3a0e0301 	bcc	380e7c <__bss_end__+0x3764c4>
     274:	270b3b0b 	strcs	r3, [fp, -fp, lsl #22]
     278:	11134919 	tstne	r3, r9, lsl r9
     27c:	40061201 	andmi	r1, r6, r1, lsl #4
     280:	19429718 	stmdbne	r2, {r3, r4, r8, r9, sl, ip, pc}^
     284:	00001301 	andeq	r1, r0, r1, lsl #6
     288:	03000515 	movweq	r0, #1301	; 0x515
     28c:	3b0b3a08 	blcc	2ceab4 <__bss_end__+0x2c40fc>
     290:	0213490b 	andseq	r4, r3, #180224	; 0x2c000
     294:	16000017 			; <UNDEFINED> instruction: 0x16000017
     298:	0e030005 	cdpeq	0, 0, cr0, cr3, cr5, {0}
     29c:	0b3b0b3a 	bleq	ec2f8c <__bss_end__+0xeb85d4>
     2a0:	17021349 	strne	r1, [r2, -r9, asr #6]
     2a4:	34170000 	ldrcc	r0, [r7], #-0
     2a8:	3a080300 	bcc	200eb0 <__bss_end__+0x1f64f8>
     2ac:	490b3b0b 	stmdbmi	fp, {r0, r1, r3, r8, r9, fp, ip, sp}
     2b0:	00170213 	andseq	r0, r7, r3, lsl r2
     2b4:	011d1800 	tsteq	sp, r0, lsl #16
     2b8:	01111331 	tsteq	r1, r1, lsr r3
     2bc:	0b580612 	bleq	1601b0c <__bss_end__+0x15f7154>
     2c0:	13010b59 	movwne	r0, #7001	; 0x1b59
     2c4:	05190000 	ldreq	r0, [r9, #-0]
     2c8:	02133100 	andseq	r3, r3, #0, 2
     2cc:	1a000017 	bne	330 <_start-0x7cd0>
     2d0:	0111010b 	tsteq	r1, fp, lsl #2
     2d4:	00000612 	andeq	r0, r0, r2, lsl r6
     2d8:	3100341b 	tstcc	r0, fp, lsl r4
     2dc:	00170213 	andseq	r0, r7, r3, lsl r2
     2e0:	82891c00 	addhi	r1, r9, #0, 24
     2e4:	01110101 	tsteq	r1, r1, lsl #2
     2e8:	13011331 	movwne	r1, #4913	; 0x1331
     2ec:	8a1d0000 	bhi	7402f4 <__bss_end__+0x73593c>
     2f0:	02000182 	andeq	r0, r0, #-2147483616	; 0x80000020
     2f4:	18429118 	stmdane	r2, {r3, r4, r8, ip, pc}^
     2f8:	891e0000 	ldmdbhi	lr, {}	; <UNPREDICTABLE>
     2fc:	11010182 	smlabbne	r1, r2, r1, r0
     300:	00133101 	andseq	r3, r3, r1, lsl #2
     304:	012e1f00 	teqeq	lr, r0, lsl #30
     308:	0b3a0e03 	bleq	e83b1c <__bss_end__+0xe79164>
     30c:	19270b3b 	stmdbne	r7!, {r0, r1, r3, r4, r5, r8, r9, fp}
     310:	06120111 			; <UNDEFINED> instruction: 0x06120111
     314:	42971840 	addsmi	r1, r7, #64, 16	; 0x400000
     318:	00130119 	andseq	r0, r3, r9, lsl r1
     31c:	00342000 	eorseq	r2, r4, r0
     320:	0b3a0e03 	bleq	e83b34 <__bss_end__+0xe7917c>
     324:	13490b3b 	movtne	r0, #39739	; 0x9b3b
     328:	00001802 	andeq	r1, r0, r2, lsl #16
     32c:	3f012e21 	svccc	0x00012e21
     330:	3a0e0319 	bcc	380f9c <__bss_end__+0x3765e4>
     334:	270b3b0b 	strcs	r3, [fp, -fp, lsl #22]
     338:	12011119 	andne	r1, r1, #1073741830	; 0x40000006
     33c:	97184006 	ldrls	r4, [r8, -r6]
     340:	13011942 	movwne	r1, #6466	; 0x1942
     344:	34220000 	strtcc	r0, [r2], #-0
     348:	490e0300 	stmdbmi	lr, {r8, r9}
     34c:	02193413 	andseq	r3, r9, #318767104	; 0x13000000
     350:	23000018 	movwcs	r0, #24
     354:	00018289 	andeq	r8, r1, r9, lsl #5
     358:	13310111 	teqne	r1, #1073741828	; 0x40000004
     35c:	2e240000 	cdpcs	0, 2, cr0, cr4, cr0, {0}
     360:	03193f01 	tsteq	r9, #1, 30
     364:	3b0b3a0e 	blcc	2ceba4 <__bss_end__+0x2c41ec>
     368:	4919270b 	ldmdbmi	r9, {r0, r1, r3, r8, r9, sl, sp}
     36c:	12011113 	andne	r1, r1, #-1073741820	; 0xc0000004
     370:	97184006 	ldrls	r4, [r8, -r6]
     374:	13011942 	movwne	r1, #6466	; 0x1942
     378:	34250000 	strtcc	r0, [r5], #-0
     37c:	3a0e0300 	bcc	380f84 <__bss_end__+0x3765cc>
     380:	490b3b0b 	stmdbmi	fp, {r0, r1, r3, r8, r9, fp, ip, sp}
     384:	00170213 	andseq	r0, r7, r3, lsl r2
     388:	010b2600 	tsteq	fp, r0, lsl #12
     38c:	13011755 	movwne	r1, #5973	; 0x1755
     390:	2e270000 	cdpcs	0, 2, cr0, cr7, cr0, {0}
     394:	03193f00 	tsteq	r9, #0, 30
     398:	3b0b3a0e 	blcc	2cebd8 <__bss_end__+0x2c4220>
     39c:	4919270b 	ldmdbmi	r9, {r0, r1, r3, r8, r9, sl, sp}
     3a0:	12011113 	andne	r1, r1, #-1073741820	; 0xc0000004
     3a4:	97184006 	ldrls	r4, [r8, -r6]
     3a8:	00001942 	andeq	r1, r0, r2, asr #18
     3ac:	3f012e28 	svccc	0x00012e28
     3b0:	3a0e0319 	bcc	38101c <__bss_end__+0x376664>
     3b4:	270b3b0b 	strcs	r3, [fp, -fp, lsl #22]
     3b8:	3c134919 	ldccc	9, cr4, [r3], {25}
     3bc:	00130119 	andseq	r0, r3, r9, lsl r1
     3c0:	00052900 	andeq	r2, r5, r0, lsl #18
     3c4:	00001349 	andeq	r1, r0, r9, asr #6
     3c8:	0000182a 	andeq	r1, r0, sl, lsr #16
     3cc:	00262b00 	eoreq	r2, r6, r0, lsl #22
     3d0:	2e2c0000 	cdpcs	0, 2, cr0, cr12, cr0, {0}
     3d4:	03193f00 	tsteq	r9, #0, 30
     3d8:	3b0b3a0e 	blcc	2cec18 <__bss_end__+0x2c4260>
     3dc:	3c19270b 	ldccc	7, cr2, [r9], {11}
     3e0:	00000019 	andeq	r0, r0, r9, lsl r0
     3e4:	25011101 	strcs	r1, [r1, #-257]	; 0x101
     3e8:	030b130e 	movweq	r1, #45838	; 0xb30e
     3ec:	110e1b0e 	tstne	lr, lr, lsl #22
     3f0:	10061201 	andne	r1, r6, r1, lsl #4
     3f4:	02000017 	andeq	r0, r0, #23
     3f8:	0b0b0024 	bleq	2c0490 <__bss_end__+0x2b5ad8>
     3fc:	08030b3e 	stmdaeq	r3, {r1, r2, r3, r4, r5, r8, r9, fp}
     400:	24030000 	strcs	r0, [r3], #-0
     404:	3e0b0b00 	vmlacc.f64	d0, d11, d0
     408:	000e030b 	andeq	r0, lr, fp, lsl #6
     40c:	00160400 	andseq	r0, r6, r0, lsl #8
     410:	0b3a0e03 	bleq	e83c24 <__bss_end__+0xe7926c>
     414:	13490b3b 	movtne	r0, #39739	; 0x9b3b
     418:	0f050000 	svceq	0x00050000
     41c:	000b0b00 	andeq	r0, fp, r0, lsl #22
     420:	000f0600 	andeq	r0, pc, r0, lsl #12
     424:	13490b0b 	movtne	r0, #39691	; 0x9b0b
     428:	26070000 	strcs	r0, [r7], -r0
     42c:	00134900 	andseq	r4, r3, r0, lsl #18
     430:	01040800 	tsteq	r4, r0, lsl #16
     434:	0b3a0b0b 	bleq	e83068 <__bss_end__+0xe786b0>
     438:	13010b3b 	movwne	r0, #6971	; 0x1b3b
     43c:	28090000 	stmdacs	r9, {}	; <UNPREDICTABLE>
     440:	1c0e0300 	stcne	3, cr0, [lr], {-0}
     444:	0a00000d 	beq	480 <_start-0x7b80>
     448:	0b0b0113 	bleq	2c089c <__bss_end__+0x2b5ee4>
     44c:	0b3b0b3a 	bleq	ec313c <__bss_end__+0xeb8784>
     450:	00001301 	andeq	r1, r0, r1, lsl #6
     454:	03000d0b 	movweq	r0, #3339	; 0xd0b
     458:	3b0b3a0e 	blcc	2cec98 <__bss_end__+0x2c42e0>
     45c:	3813490b 	ldmdacc	r3, {r0, r1, r3, r8, fp, lr}
     460:	0c00000b 	stceq	0, cr0, [r0], {11}
     464:	0e030113 	mcreq	1, 0, r0, cr3, cr3, {0}
     468:	0b3a0b0b 	bleq	e8309c <__bss_end__+0xe786e4>
     46c:	13010b3b 	movwne	r0, #6971	; 0x1b3b
     470:	2e0d0000 	cdpcs	0, 0, cr0, cr13, cr0, {0}
     474:	3a0e0301 	bcc	381080 <__bss_end__+0x3766c8>
     478:	270b3b0b 	strcs	r3, [fp, -fp, lsl #22]
     47c:	20134919 	andscs	r4, r3, r9, lsl r9
     480:	0013010b 	andseq	r0, r3, fp, lsl #2
     484:	00050e00 	andeq	r0, r5, r0, lsl #28
     488:	0b3a0803 	bleq	e8249c <__bss_end__+0xe77ae4>
     48c:	13490b3b 	movtne	r0, #39739	; 0x9b3b
     490:	2e0f0000 	cdpcs	0, 0, cr0, cr15, cr0, {0}
     494:	3a0e0301 	bcc	3810a0 <__bss_end__+0x3766e8>
     498:	270b3b0b 	strcs	r3, [fp, -fp, lsl #22]
     49c:	11134919 	tstne	r3, r9, lsl r9
     4a0:	40061201 	andmi	r1, r6, r1, lsl #4
     4a4:	19429718 	stmdbne	r2, {r3, r4, r8, r9, sl, ip, pc}^
     4a8:	00001301 	andeq	r1, r0, r1, lsl #6
     4ac:	03000510 	movweq	r0, #1296	; 0x510
     4b0:	3b0b3a08 	blcc	2cecd8 <__bss_end__+0x2c4320>
     4b4:	0213490b 	andseq	r4, r3, #180224	; 0x2c000
     4b8:	11000017 	tstne	r0, r7, lsl r0
     4bc:	0e030005 	cdpeq	0, 0, cr0, cr3, cr5, {0}
     4c0:	0b3b0b3a 	bleq	ec31b0 <__bss_end__+0xeb87f8>
     4c4:	17021349 	strne	r1, [r2, -r9, asr #6]
     4c8:	34120000 	ldrcc	r0, [r2], #-0
     4cc:	3a080300 	bcc	2010d4 <__bss_end__+0x1f671c>
     4d0:	490b3b0b 	stmdbmi	fp, {r0, r1, r3, r8, r9, fp, ip, sp}
     4d4:	00170213 	andseq	r0, r7, r3, lsl r2
     4d8:	00341300 	eorseq	r1, r4, r0, lsl #6
     4dc:	0b3a0e03 	bleq	e83cf0 <__bss_end__+0xe79338>
     4e0:	13490b3b 	movtne	r0, #39739	; 0x9b3b
     4e4:	00001702 	andeq	r1, r0, r2, lsl #14
     4e8:	01828914 	orreq	r8, r2, r4, lsl r9
     4ec:	31011101 	tstcc	r1, r1, lsl #2
     4f0:	00130113 	andseq	r0, r3, r3, lsl r1
     4f4:	828a1500 	addhi	r1, sl, #0, 10
     4f8:	18020001 	stmdane	r2, {r0}
     4fc:	00184291 	mulseq	r8, r1, r2
     500:	82891600 	addhi	r1, r9, #0, 12
     504:	01110001 	tsteq	r1, r1
     508:	00001331 	andeq	r1, r0, r1, lsr r3
     50c:	01828917 	orreq	r8, r2, r7, lsl r9
     510:	31011101 	tstcc	r1, r1, lsl #2
     514:	18000013 	stmdane	r0, {r0, r1, r4}
     518:	0e03012e 	adfeqsp	f0, f3, #0.5
     51c:	0b3b0b3a 	bleq	ec320c <__bss_end__+0xeb8854>
     520:	01111927 	tsteq	r1, r7, lsr #18
     524:	18400612 	stmdane	r0, {r1, r4, r9, sl}^
     528:	01194297 			; <UNDEFINED> instruction: 0x01194297
     52c:	19000013 	stmdbne	r0, {r0, r1, r4}
     530:	0e030034 	mcreq	0, 0, r0, cr3, cr4, {1}
     534:	19341349 	ldmdbne	r4!, {r0, r3, r6, r8, r9, ip}
     538:	00001802 	andeq	r1, r0, r2, lsl #16
     53c:	0300341a 	movweq	r3, #1050	; 0x41a
     540:	3b0b3a08 	blcc	2ced68 <__bss_end__+0x2c43b0>
     544:	0013490b 	andseq	r4, r3, fp, lsl #18
     548:	01011b00 	tsteq	r1, r0, lsl #22
     54c:	13011349 	movwne	r1, #4937	; 0x1349
     550:	211c0000 	tstcs	ip, r0
     554:	2f134900 	svccs	0x00134900
     558:	1d00000b 	stcne	0, cr0, [r0, #-44]	; 0xffffffd4
     55c:	08030034 	stmdaeq	r3, {r2, r4, r5}
     560:	0b3b0b3a 	bleq	ec3250 <__bss_end__+0xeb8898>
     564:	18021349 	stmdane	r2, {r0, r3, r6, r8, r9, ip}
     568:	341e0000 	ldrcc	r0, [lr], #-0
     56c:	3a0e0300 	bcc	381174 <__bss_end__+0x3767bc>
     570:	490b3b0b 	stmdbmi	fp, {r0, r1, r3, r8, r9, fp, ip, sp}
     574:	00180213 	andseq	r0, r8, r3, lsl r2
     578:	00341f00 	eorseq	r1, r4, r0, lsl #30
     57c:	0b3a0e03 	bleq	e83d90 <__bss_end__+0xe793d8>
     580:	13490b3b 	movtne	r0, #39739	; 0x9b3b
     584:	0000061c 	andeq	r0, r0, ip, lsl r6
     588:	03003420 	movweq	r3, #1056	; 0x420
     58c:	3b0b3a0e 	blcc	2cedcc <__bss_end__+0x2c4414>
     590:	3f13490b 	svccc	0x0013490b
     594:	00193c19 	andseq	r3, r9, r9, lsl ip
     598:	010b2100 	mrseq	r2, (UNDEF: 27)
     59c:	06120111 			; <UNDEFINED> instruction: 0x06120111
     5a0:	00001301 	andeq	r1, r0, r1, lsl #6
     5a4:	55010b22 	strpl	r0, [r1, #-2850]	; 0xb22
     5a8:	00130117 	andseq	r0, r3, r7, lsl r1
     5ac:	012e2300 	teqeq	lr, r0, lsl #6
     5b0:	0b3a0e03 	bleq	e83dc4 <__bss_end__+0xe7940c>
     5b4:	1927053b 	stmdbne	r7!, {r0, r1, r3, r4, r5, r8, sl}
     5b8:	01111349 	tsteq	r1, r9, asr #6
     5bc:	18400612 	stmdane	r0, {r1, r4, r9, sl}^
     5c0:	01194297 			; <UNDEFINED> instruction: 0x01194297
     5c4:	24000013 	strcs	r0, [r0], #-19
     5c8:	0e030034 	mcreq	0, 0, r0, cr3, cr4, {1}
     5cc:	053b0b3a 	ldreq	r0, [fp, #-2874]!	; 0xb3a
     5d0:	17021349 	strne	r1, [r2, -r9, asr #6]
     5d4:	34250000 	strtcc	r0, [r5], #-0
     5d8:	3a0e0300 	bcc	3811e0 <__bss_end__+0x376828>
     5dc:	49053b0b 	stmdbmi	r5, {r0, r1, r3, r8, r9, fp, ip, sp}
     5e0:	00180213 	andseq	r0, r8, r3, lsl r2
     5e4:	00342600 	eorseq	r2, r4, r0, lsl #12
     5e8:	0b3a0803 	bleq	e825fc <__bss_end__+0xe77c44>
     5ec:	1349053b 	movtne	r0, #38203	; 0x953b
     5f0:	00001802 	andeq	r1, r0, r2, lsl #16
     5f4:	3f012e27 	svccc	0x00012e27
     5f8:	3a0e0319 	bcc	381264 <__bss_end__+0x3768ac>
     5fc:	270b3b0b 	strcs	r3, [fp, -fp, lsl #22]
     600:	11134919 	tstne	r3, r9, lsl r9
     604:	40061201 	andmi	r1, r6, r1, lsl #4
     608:	19429718 	stmdbne	r2, {r3, r4, r8, r9, sl, ip, pc}^
     60c:	00001301 	andeq	r1, r0, r1, lsl #6
     610:	3f012e28 	svccc	0x00012e28
     614:	3a0e0319 	bcc	381280 <__bss_end__+0x3768c8>
     618:	27053b0b 	strcs	r3, [r5, -fp, lsl #22]
     61c:	12011119 	andne	r1, r1, #1073741830	; 0x40000006
     620:	97184006 	ldrls	r4, [r8, -r6]
     624:	13011942 	movwne	r1, #6466	; 0x1942
     628:	2e290000 	cdpcs	0, 2, cr0, cr9, cr0, {0}
     62c:	03193f01 	tsteq	r9, #1, 30
     630:	3b0b3a0e 	blcc	2cee70 <__bss_end__+0x2c44b8>
     634:	49192705 	ldmdbmi	r9, {r0, r2, r8, r9, sl, sp}
     638:	12011113 	andne	r1, r1, #-1073741820	; 0xc0000004
     63c:	97184006 	ldrls	r4, [r8, -r6]
     640:	13011942 	movwne	r1, #6466	; 0x1942
     644:	2e2a0000 	cdpcs	0, 2, cr0, cr10, cr0, {0}
     648:	03193f00 	tsteq	r9, #0, 30
     64c:	3b0b3a0e 	blcc	2cee8c <__bss_end__+0x2c44d4>
     650:	4919270b 	ldmdbmi	r9, {r0, r1, r3, r8, r9, sl, sp}
     654:	00193c13 	andseq	r3, r9, r3, lsl ip
     658:	012e2b00 	teqeq	lr, r0, lsl #22
     65c:	0e03193f 	mcreq	9, 0, r1, cr3, cr15, {1}
     660:	0b3b0b3a 	bleq	ec3350 <__bss_end__+0xeb8998>
     664:	13491927 	movtne	r1, #39207	; 0x9927
     668:	1301193c 	movwne	r1, #6460	; 0x193c
     66c:	052c0000 	streq	r0, [ip, #-0]!
     670:	00134900 	andseq	r4, r3, r0, lsl #18
     674:	00182d00 	andseq	r2, r8, r0, lsl #26
     678:	2e2e0000 	cdpcs	0, 2, cr0, cr14, cr0, {0}
     67c:	03193f00 	tsteq	r9, #0, 30
     680:	3b0b3a0e 	blcc	2ceec0 <__bss_end__+0x2c4508>
     684:	3c19270b 	ldccc	7, cr2, [r9], {11}
     688:	2f000019 	svccs	0x00000019
     68c:	193f012e 	ldmdbne	pc!, {r1, r2, r3, r5, r8}	; <UNPREDICTABLE>
     690:	0b3a0e03 	bleq	e83ea4 <__bss_end__+0xe794ec>
     694:	19270b3b 	stmdbne	r7!, {r0, r1, r3, r4, r5, r8, r9, fp}
     698:	1301193c 	movwne	r1, #6460	; 0x193c
     69c:	01000000 	mrseq	r0, (UNDEF: 0)
     6a0:	0e250111 	mcreq	1, 1, r0, cr5, cr1, {0}
     6a4:	0e030b13 	vmoveq.32	d3[0], r0
     6a8:	01110e1b 	tsteq	r1, fp, lsl lr
     6ac:	17100612 			; <UNDEFINED> instruction: 0x17100612
     6b0:	24020000 	strcs	r0, [r2], #-0
     6b4:	3e0b0b00 	vmlacc.f64	d0, d11, d0
     6b8:	0008030b 	andeq	r0, r8, fp, lsl #6
     6bc:	00240300 	eoreq	r0, r4, r0, lsl #6
     6c0:	0b3e0b0b 	bleq	f832f4 <__bss_end__+0xf7893c>
     6c4:	00000e03 	andeq	r0, r0, r3, lsl #28
     6c8:	03001604 	movweq	r1, #1540	; 0x604
     6cc:	3b0b3a0e 	blcc	2cef0c <__bss_end__+0x2c4554>
     6d0:	0013490b 	andseq	r4, r3, fp, lsl #18
     6d4:	000f0500 	andeq	r0, pc, r0, lsl #10
     6d8:	13490b0b 	movtne	r0, #39691	; 0x9b0b
     6dc:	26060000 	strcs	r0, [r6], -r0
     6e0:	00134900 	andseq	r4, r3, r0, lsl #18
     6e4:	012e0700 	teqeq	lr, r0, lsl #14
     6e8:	0e03193f 	mcreq	9, 0, r1, cr3, cr15, {1}
     6ec:	0b3b0b3a 	bleq	ec33dc <__bss_end__+0xeb8a24>
     6f0:	13491927 	movtne	r1, #39207	; 0x9927
     6f4:	06120111 			; <UNDEFINED> instruction: 0x06120111
     6f8:	42971840 	addsmi	r1, r7, #64, 16	; 0x400000
     6fc:	00130119 	andseq	r0, r3, r9, lsl r1
     700:	00050800 	andeq	r0, r5, r0, lsl #16
     704:	0b3a0e03 	bleq	e83f18 <__bss_end__+0xe79560>
     708:	13490b3b 	movtne	r0, #39739	; 0x9b3b
     70c:	00001702 	andeq	r1, r0, r2, lsl #14
     710:	03000509 	movweq	r0, #1289	; 0x509
     714:	3b0b3a08 	blcc	2cef3c <__bss_end__+0x2c4584>
     718:	0213490b 	andseq	r4, r3, #180224	; 0x2c000
     71c:	0a000017 	beq	780 <_start-0x7880>
     720:	0e030034 	mcreq	0, 0, r0, cr3, cr4, {1}
     724:	0b3b0b3a 	bleq	ec3414 <__bss_end__+0xeb8a5c>
     728:	17021349 	strne	r1, [r2, -r9, asr #6]
     72c:	340b0000 	strcc	r0, [fp], #-0
     730:	3a080300 	bcc	201338 <__bss_end__+0x1f6980>
     734:	490b3b0b 	stmdbmi	fp, {r0, r1, r3, r8, r9, fp, ip, sp}
     738:	00170213 	andseq	r0, r7, r3, lsl r2
     73c:	00260c00 	eoreq	r0, r6, r0, lsl #24
     740:	01000000 	mrseq	r0, (UNDEF: 0)
     744:	0e250111 	mcreq	1, 1, r0, cr5, cr1, {0}
     748:	0e030b13 	vmoveq.32	d3[0], r0
     74c:	01110e1b 	tsteq	r1, fp, lsl lr
     750:	17100612 			; <UNDEFINED> instruction: 0x17100612
     754:	24020000 	strcs	r0, [r2], #-0
     758:	3e0b0b00 	vmlacc.f64	d0, d11, d0
     75c:	000e030b 	andeq	r0, lr, fp, lsl #6
     760:	00240300 	eoreq	r0, r4, r0, lsl #6
     764:	0b3e0b0b 	bleq	f83398 <__bss_end__+0xf789e0>
     768:	00000803 	andeq	r0, r0, r3, lsl #16
     76c:	0b000f04 	bleq	4384 <_start-0x3c7c>
     770:	0500000b 	streq	r0, [r0, #-11]
     774:	0b0b000f 	bleq	2c07b8 <__bss_end__+0x2b5e00>
     778:	00001349 	andeq	r1, r0, r9, asr #6
     77c:	03001606 	movweq	r1, #1542	; 0x606
     780:	3b0b3a0e 	blcc	2cefc0 <__bss_end__+0x2c4608>
     784:	0013490b 	andseq	r4, r3, fp, lsl #18
     788:	012e0700 	teqeq	lr, r0, lsl #14
     78c:	0e03193f 	mcreq	9, 0, r1, cr3, cr15, {1}
     790:	0b3b0b3a 	bleq	ec3480 <__bss_end__+0xeb8ac8>
     794:	13491927 	movtne	r1, #39207	; 0x9927
     798:	06120111 			; <UNDEFINED> instruction: 0x06120111
     79c:	42971840 	addsmi	r1, r7, #64, 16	; 0x400000
     7a0:	08000019 	stmdaeq	r0, {r0, r3, r4}
     7a4:	08030005 	stmdaeq	r3, {r0, r2}
     7a8:	0b3b0b3a 	bleq	ec3498 <__bss_end__+0xeb8ae0>
     7ac:	18021349 	stmdane	r2, {r0, r3, r6, r8, r9, ip}
     7b0:	05090000 	streq	r0, [r9, #-0]
     7b4:	3a080300 	bcc	2013bc <__bss_end__+0x1f6a04>
     7b8:	490b3b0b 	stmdbmi	fp, {r0, r1, r3, r8, r9, fp, ip, sp}
     7bc:	00170213 	andseq	r0, r7, r3, lsl r2
     7c0:	00340a00 	eorseq	r0, r4, r0, lsl #20
     7c4:	0b3a0803 	bleq	e827d8 <__bss_end__+0xe77e20>
     7c8:	13490b3b 	movtne	r0, #39739	; 0x9b3b
     7cc:	00001702 	andeq	r1, r0, r2, lsl #14
     7d0:	0300340b 	movweq	r3, #1035	; 0x40b
     7d4:	3b0b3a08 	blcc	2ceffc <__bss_end__+0x2c4644>
     7d8:	0213490b 	andseq	r4, r3, #180224	; 0x2c000
     7dc:	00000018 	andeq	r0, r0, r8, lsl r0
     7e0:	25011101 	strcs	r1, [r1, #-257]	; 0x101
     7e4:	030b130e 	movweq	r1, #45838	; 0xb30e
     7e8:	110e1b0e 	tstne	lr, lr, lsl #22
     7ec:	10061201 	andne	r1, r6, r1, lsl #4
     7f0:	02000017 	andeq	r0, r0, #23
     7f4:	0e030016 	mcreq	0, 0, r0, cr3, cr6, {0}
     7f8:	0b3b0b3a 	bleq	ec34e8 <__bss_end__+0xeb8b30>
     7fc:	00001349 	andeq	r1, r0, r9, asr #6
     800:	03011303 	movweq	r1, #4867	; 0x1303
     804:	3a0b0b0e 	bcc	2c3444 <__bss_end__+0x2b8a8c>
     808:	010b3b0b 	tsteq	fp, fp, lsl #22
     80c:	04000013 	streq	r0, [r0], #-19
     810:	0e03000d 	cdpeq	0, 0, cr0, cr3, cr13, {0}
     814:	0b381349 	bleq	e05540 <__bss_end__+0xdfab88>
     818:	00001934 	andeq	r1, r0, r4, lsr r9
     81c:	0b000f05 	bleq	4438 <_start-0x3bc8>
     820:	0600000b 	streq	r0, [r0], -fp
     824:	0b0b0024 	bleq	2c08bc <__bss_end__+0x2b5f04>
     828:	08030b3e 	stmdaeq	r3, {r1, r2, r3, r4, r5, r8, r9, fp}
     82c:	24070000 	strcs	r0, [r7], #-0
     830:	3e0b0b00 	vmlacc.f64	d0, d11, d0
     834:	000e030b 	andeq	r0, lr, fp, lsl #6
     838:	000f0800 	andeq	r0, pc, r0, lsl #16
     83c:	13490b0b 	movtne	r0, #39691	; 0x9b0b
     840:	26090000 	strcs	r0, [r9], -r0
     844:	00134900 	andseq	r4, r3, r0, lsl #18
     848:	012e0a00 	teqeq	lr, r0, lsl #20
     84c:	0e03193f 	mcreq	9, 0, r1, cr3, cr15, {1}
     850:	0b3b0b3a 	bleq	ec3540 <__bss_end__+0xeb8b88>
     854:	13491927 	movtne	r1, #39207	; 0x9927
     858:	06120111 			; <UNDEFINED> instruction: 0x06120111
     85c:	42971840 	addsmi	r1, r7, #64, 16	; 0x400000
     860:	00130119 	andseq	r0, r3, r9, lsl r1
     864:	00050b00 	andeq	r0, r5, r0, lsl #22
     868:	0b3a0803 	bleq	e8287c <__bss_end__+0xe77ec4>
     86c:	13490b3b 	movtne	r0, #39739	; 0x9b3b
     870:	00001802 	andeq	r1, r0, r2, lsl #16
     874:	0000180c 	andeq	r1, r0, ip, lsl #16
     878:	00340d00 	eorseq	r0, r4, r0, lsl #26
     87c:	0b3a0803 	bleq	e82890 <__bss_end__+0xe77ed8>
     880:	13490b3b 	movtne	r0, #39739	; 0x9b3b
     884:	00001802 	andeq	r1, r0, r2, lsl #16
     888:	0300340e 	movweq	r3, #1038	; 0x40e
     88c:	3b0b3a0e 	blcc	2cf0cc <__bss_end__+0x2c4714>
     890:	0213490b 	andseq	r4, r3, #180224	; 0x2c000
     894:	0f000018 	svceq	0x00000018
     898:	08030034 	stmdaeq	r3, {r2, r4, r5}
     89c:	0b3b0b3a 	bleq	ec358c <__bss_end__+0xeb8bd4>
     8a0:	17021349 	strne	r1, [r2, -r9, asr #6]
     8a4:	89100000 	ldmdbhi	r0, {}	; <UNPREDICTABLE>
     8a8:	11010182 	smlabbne	r1, r2, r1, r0
     8ac:	01133101 	tsteq	r3, r1, lsl #2
     8b0:	11000013 	tstne	r0, r3, lsl r0
     8b4:	0001828a 	andeq	r8, r1, sl, lsl #5
     8b8:	42911802 	addsmi	r1, r1, #131072	; 0x20000
     8bc:	12000018 	andne	r0, r0, #24
     8c0:	01018289 	smlabbeq	r1, r9, r2, r8
     8c4:	00000111 	andeq	r0, r0, r1, lsl r1
     8c8:	49010113 	stmdbmi	r1, {r0, r1, r4, r8}
     8cc:	00130113 	andseq	r0, r3, r3, lsl r1
     8d0:	00211400 	eoreq	r1, r1, r0, lsl #8
     8d4:	052f1349 	streq	r1, [pc, #-841]!	; 593 <_start-0x7a6d>
     8d8:	15150000 	ldrne	r0, [r5, #-0]
     8dc:	49192701 	ldmdbmi	r9, {r0, r8, r9, sl, sp}
     8e0:	00130113 	andseq	r0, r3, r3, lsl r1
     8e4:	00051600 	andeq	r1, r5, r0, lsl #12
     8e8:	00001349 	andeq	r1, r0, r9, asr #6
     8ec:	03003417 	movweq	r3, #1047	; 0x417
     8f0:	3b0b3a0e 	blcc	2cf130 <__bss_end__+0x2c4778>
     8f4:	3f13490b 	svccc	0x0013490b
     8f8:	00193c19 	andseq	r3, r9, r9, lsl ip
     8fc:	012e1800 	teqeq	lr, r0, lsl #16
     900:	0e03193f 	mcreq	9, 0, r1, cr3, cr15, {1}
     904:	0b3b0b3a 	bleq	ec35f4 <__bss_end__+0xeb8c3c>
     908:	13491927 	movtne	r1, #39207	; 0x9927
     90c:	0000193c 	andeq	r1, r0, ip, lsr r9
     910:	01110100 	tsteq	r1, r0, lsl #2
     914:	0b130e25 	bleq	4c41b0 <__bss_end__+0x4b97f8>
     918:	0e1b0e03 	cdpeq	14, 1, cr0, cr11, cr3, {0}
     91c:	06120111 			; <UNDEFINED> instruction: 0x06120111
     920:	00001710 	andeq	r1, r0, r0, lsl r7
     924:	0b002402 	bleq	9934 <gpio_set_function+0x50>
     928:	030b3e0b 	movweq	r3, #48651	; 0xbe0b
     92c:	03000008 	movweq	r0, #8
     930:	0b0b0024 	bleq	2c09c8 <__bss_end__+0x2b6010>
     934:	0e030b3e 	vmoveq.16	d3[0], r0
     938:	2e040000 	cdpcs	0, 0, cr0, cr4, cr0, {0}
     93c:	3a0e0301 	bcc	381548 <__bss_end__+0x376b90>
     940:	270b3b0b 	strcs	r3, [fp, -fp, lsl #22]
     944:	11134919 	tstne	r3, r9, lsl r9
     948:	40061201 	andmi	r1, r6, r1, lsl #4
     94c:	19429718 	stmdbne	r2, {r3, r4, r8, r9, sl, ip, pc}^
     950:	00001301 	andeq	r1, r0, r1, lsl #6
     954:	03000505 	movweq	r0, #1285	; 0x505
     958:	3b0b3a08 	blcc	2cf180 <__bss_end__+0x2c47c8>
     95c:	0213490b 	andseq	r4, r3, #180224	; 0x2c000
     960:	06000017 			; <UNDEFINED> instruction: 0x06000017
     964:	01018289 	smlabbeq	r1, r9, r2, r8
     968:	13310111 	teqne	r1, #1073741828	; 0x40000004
     96c:	8a070000 	bhi	1c0974 <__bss_end__+0x1b5fbc>
     970:	02000182 	andeq	r0, r0, #-2147483616	; 0x80000020
     974:	18429118 	stmdane	r2, {r3, r4, r8, ip, pc}^
     978:	2e080000 	cdpcs	0, 0, cr0, cr8, cr0, {0}
     97c:	03193f00 	tsteq	r9, #0, 30
     980:	3b0b3a0e 	blcc	2cf1c0 <__bss_end__+0x2c4808>
     984:	1119270b 	tstne	r9, fp, lsl #14
     988:	40061201 	andmi	r1, r6, r1, lsl #4
     98c:	19429718 	stmdbne	r2, {r3, r4, r8, r9, sl, ip, pc}^
     990:	2e090000 	cdpcs	0, 0, cr0, cr9, cr0, {0}
     994:	03193f01 	tsteq	r9, #1, 30
     998:	3b0b3a0e 	blcc	2cf1d8 <__bss_end__+0x2c4820>
     99c:	1119270b 	tstne	r9, fp, lsl #14
     9a0:	40061201 	andmi	r1, r6, r1, lsl #4
     9a4:	19429718 	stmdbne	r2, {r3, r4, r8, r9, sl, ip, pc}^
     9a8:	00001301 	andeq	r1, r0, r1, lsl #6
     9ac:	0300050a 	movweq	r0, #1290	; 0x50a
     9b0:	3b0b3a08 	blcc	2cf1d8 <__bss_end__+0x2c4820>
     9b4:	0213490b 	andseq	r4, r3, #180224	; 0x2c000
     9b8:	0b000018 	bleq	a20 <_start-0x75e0>
     9bc:	19270115 	stmdbne	r7!, {r0, r2, r4, r8}
     9c0:	13011349 	movwne	r1, #4937	; 0x1349
     9c4:	050c0000 	streq	r0, [ip, #-0]
     9c8:	00134900 	andseq	r4, r3, r0, lsl #18
     9cc:	000f0d00 	andeq	r0, pc, r0, lsl #26
     9d0:	13490b0b 	movtne	r0, #39691	; 0x9b0b
     9d4:	340e0000 	strcc	r0, [lr], #-0
     9d8:	3a0e0300 	bcc	3815e0 <__bss_end__+0x376c28>
     9dc:	490b3b0b 	stmdbmi	fp, {r0, r1, r3, r8, r9, fp, ip, sp}
     9e0:	02193f13 	andseq	r3, r9, #19, 30	; 0x4c
     9e4:	0f000018 	svceq	0x00000018
     9e8:	193f012e 	ldmdbne	pc!, {r1, r2, r3, r5, r8}	; <UNPREDICTABLE>
     9ec:	0b3a0e03 	bleq	e84200 <__bss_end__+0xe79848>
     9f0:	19270b3b 	stmdbne	r7!, {r0, r1, r3, r4, r5, r8, r9, fp}
     9f4:	0000193c 	andeq	r1, r0, ip, lsr r9
     9f8:	01110100 	tsteq	r1, r0, lsl #2
     9fc:	0b130e25 	bleq	4c4298 <__bss_end__+0x4b98e0>
     a00:	0e1b0e03 	cdpeq	14, 1, cr0, cr11, cr3, {0}
     a04:	06120111 			; <UNDEFINED> instruction: 0x06120111
     a08:	00001710 	andeq	r1, r0, r0, lsl r7
     a0c:	0b002402 	bleq	9a1c <kmalloc_heap_start+0x8>
     a10:	030b3e0b 	movweq	r3, #48651	; 0xbe0b
     a14:	03000008 	movweq	r0, #8
     a18:	0b0b0024 	bleq	2c0ab0 <__bss_end__+0x2b60f8>
     a1c:	0e030b3e 	vmoveq.16	d3[0], r0
     a20:	0f040000 	svceq	0x00040000
     a24:	490b0b00 	stmdbmi	fp, {r8, r9, fp}
     a28:	05000013 	streq	r0, [r0, #-19]
     a2c:	13490026 	movtne	r0, #36902	; 0x9026
     a30:	2e060000 	cdpcs	0, 0, cr0, cr6, cr0, {0}
     a34:	03193f01 	tsteq	r9, #1, 30
     a38:	3b0b3a0e 	blcc	2cf278 <__bss_end__+0x2c48c0>
     a3c:	4919270b 	ldmdbmi	r9, {r0, r1, r3, r8, r9, sl, sp}
     a40:	12011113 	andne	r1, r1, #-1073741820	; 0xc0000004
     a44:	96184006 	ldrls	r4, [r8], -r6
     a48:	13011942 	movwne	r1, #6466	; 0x1942
     a4c:	05070000 	streq	r0, [r7, #-0]
     a50:	3a080300 	bcc	201658 <__bss_end__+0x1f6ca0>
     a54:	490b3b0b 	stmdbmi	fp, {r0, r1, r3, r8, r9, fp, ip, sp}
     a58:	00170213 	andseq	r0, r7, r3, lsl r2
     a5c:	01150800 	tsteq	r5, r0, lsl #16
     a60:	13491927 	movtne	r1, #39207	; 0x9927
     a64:	00001301 	andeq	r1, r0, r1, lsl #6
     a68:	49000509 	stmdbmi	r0, {r0, r3, r8, sl}
     a6c:	0a000013 	beq	ac0 <_start-0x7540>
     a70:	0e030034 	mcreq	0, 0, r0, cr3, cr4, {1}
     a74:	0b3b0b3a 	bleq	ec3764 <__bss_end__+0xeb8dac>
     a78:	193f1349 	ldmdbne	pc!, {r0, r3, r6, r8, r9, ip}	; <UNPREDICTABLE>
     a7c:	0000193c 	andeq	r1, r0, ip, lsr r9
     a80:	0300340b 	movweq	r3, #1035	; 0x40b
     a84:	3b0b3a0e 	blcc	2cf2c4 <__bss_end__+0x2c490c>
     a88:	3f13490b 	svccc	0x0013490b
     a8c:	00180219 	andseq	r0, r8, r9, lsl r2
     a90:	11010000 	mrsne	r0, (UNDEF: 1)
     a94:	130e2501 	movwne	r2, #58625	; 0xe501
     a98:	1b0e030b 	blne	3816cc <__bss_end__+0x376d14>
     a9c:	1201110e 	andne	r1, r1, #-2147483645	; 0x80000003
     aa0:	00171006 	andseq	r1, r7, r6
     aa4:	00240200 	eoreq	r0, r4, r0, lsl #4
     aa8:	0b3e0b0b 	bleq	f836dc <__bss_end__+0xf78d24>
     aac:	00000803 	andeq	r0, r0, r3, lsl #16
     ab0:	0b002403 	bleq	9ac4 <kmalloc+0x54>
     ab4:	030b3e0b 	movweq	r3, #48651	; 0xbe0b
     ab8:	0400000e 	streq	r0, [r0], #-14
     abc:	0b0b000f 	bleq	2c0b00 <__bss_end__+0x2b6148>
     ac0:	0f050000 	svceq	0x00050000
     ac4:	490b0b00 	stmdbmi	fp, {r8, r9, fp}
     ac8:	06000013 			; <UNDEFINED> instruction: 0x06000013
     acc:	13490026 	movtne	r0, #36902	; 0x9026
     ad0:	16070000 	strne	r0, [r7], -r0
     ad4:	3a0e0300 	bcc	3816dc <__bss_end__+0x376d24>
     ad8:	490b3b0b 	stmdbmi	fp, {r0, r1, r3, r8, r9, fp, ip, sp}
     adc:	08000013 	stmdaeq	r0, {r0, r1, r4}
     ae0:	0e030113 	mcreq	1, 0, r0, cr3, cr3, {0}
     ae4:	0b3a0b0b 	bleq	e83718 <__bss_end__+0xe78d60>
     ae8:	13010b3b 	movwne	r0, #6971	; 0x1b3b
     aec:	0d090000 	stceq	0, cr0, [r9, #-0]
     af0:	490e0300 	stmdbmi	lr, {r8, r9}
     af4:	340b3813 	strcc	r3, [fp], #-2067	; 0x813
     af8:	0a000019 	beq	b64 <_start-0x749c>
     afc:	0e03012e 	adfeqsp	f0, f3, #0.5
     b00:	0b3b0b3a 	bleq	ec37f0 <__bss_end__+0xeb8e38>
     b04:	13491927 	movtne	r1, #39207	; 0x9927
     b08:	06120111 			; <UNDEFINED> instruction: 0x06120111
     b0c:	42971840 	addsmi	r1, r7, #64, 16	; 0x400000
     b10:	00130119 	andseq	r0, r3, r9, lsl r1
     b14:	00050b00 	andeq	r0, r5, r0, lsl #22
     b18:	0b3a0803 	bleq	e82b2c <__bss_end__+0xe78174>
     b1c:	13490b3b 	movtne	r0, #39739	; 0x9b3b
     b20:	00001702 	andeq	r1, r0, r2, lsl #14
     b24:	03012e0c 	movweq	r2, #7692	; 0x1e0c
     b28:	3b0b3a08 	blcc	2cf350 <__bss_end__+0x2c4998>
     b2c:	4919270b 	ldmdbmi	r9, {r0, r1, r3, r8, r9, sl, sp}
     b30:	12011113 	andne	r1, r1, #-1073741820	; 0xc0000004
     b34:	97184006 	ldrls	r4, [r8, -r6]
     b38:	13011942 	movwne	r1, #6466	; 0x1942
     b3c:	050d0000 	streq	r0, [sp, #-0]
     b40:	3a0e0300 	bcc	381748 <__bss_end__+0x376d90>
     b44:	490b3b0b 	stmdbmi	fp, {r0, r1, r3, r8, r9, fp, ip, sp}
     b48:	00170213 	andseq	r0, r7, r3, lsl r2
     b4c:	00050e00 	andeq	r0, r5, r0, lsl #28
     b50:	0b3a0e03 	bleq	e84364 <__bss_end__+0xe799ac>
     b54:	13490b3b 	movtne	r0, #39739	; 0x9b3b
     b58:	00001802 	andeq	r1, r0, r2, lsl #16
     b5c:	0300340f 	movweq	r3, #1039	; 0x40f
     b60:	3b0b3a08 	blcc	2cf388 <__bss_end__+0x2c49d0>
     b64:	0213490b 	andseq	r4, r3, #180224	; 0x2c000
     b68:	10000018 	andne	r0, r0, r8, lsl r0
     b6c:	08030034 	stmdaeq	r3, {r2, r4, r5}
     b70:	0b3b0b3a 	bleq	ec3860 <__bss_end__+0xeb8ea8>
     b74:	17021349 	strne	r1, [r2, -r9, asr #6]
     b78:	34110000 	ldrcc	r0, [r1], #-0
     b7c:	490e0300 	stmdbmi	lr, {r8, r9}
     b80:	02193413 	andseq	r3, r9, #318767104	; 0x13000000
     b84:	12000018 	andne	r0, r0, #24
     b88:	0111010b 	tsteq	r1, fp, lsl #2
     b8c:	13010612 	movwne	r0, #5650	; 0x1612
     b90:	34130000 	ldrcc	r0, [r3], #-0
     b94:	3a0e0300 	bcc	38179c <__bss_end__+0x376de4>
     b98:	490b3b0b 	stmdbmi	fp, {r0, r1, r3, r8, r9, fp, ip, sp}
     b9c:	00170213 	andseq	r0, r7, r3, lsl r2
     ba0:	82891400 	addhi	r1, r9, #0, 8
     ba4:	01110001 	tsteq	r1, r1
     ba8:	00001331 	andeq	r1, r0, r1, lsr r3
     bac:	01828915 	orreq	r8, r2, r5, lsl r9
     bb0:	31011101 	tstcc	r1, r1, lsl #2
     bb4:	00130113 	andseq	r0, r3, r3, lsl r1
     bb8:	828a1600 	addhi	r1, sl, #0, 12
     bbc:	18020001 	stmdane	r2, {r0}
     bc0:	00184291 	mulseq	r8, r1, r2
     bc4:	82891700 	addhi	r1, r9, #0, 14
     bc8:	01110101 	tsteq	r1, r1, lsl #2
     bcc:	00001331 	andeq	r1, r0, r1, lsr r3
     bd0:	49010118 	stmdbmi	r1, {r3, r4, r8}
     bd4:	00130113 	andseq	r0, r3, r3, lsl r1
     bd8:	00211900 	eoreq	r1, r1, r0, lsl #18
     bdc:	0b2f1349 	bleq	bc5908 <__bss_end__+0xbbaf50>
     be0:	2e1a0000 	cdpcs	0, 1, cr0, cr10, cr0, {0}
     be4:	03193f01 	tsteq	r9, #1, 30
     be8:	3b0b3a0e 	blcc	2cf428 <__bss_end__+0x2c4a70>
     bec:	1119270b 	tstne	r9, fp, lsl #14
     bf0:	40061201 	andmi	r1, r6, r1, lsl #4
     bf4:	19429718 	stmdbne	r2, {r3, r4, r8, r9, sl, ip, pc}^
     bf8:	00001301 	andeq	r1, r0, r1, lsl #6
     bfc:	2701151b 	smladcs	r1, fp, r5, r1
     c00:	01134919 	tsteq	r3, r9, lsl r9
     c04:	1c000013 	stcne	0, cr0, [r0], {19}
     c08:	13490005 	movtne	r0, #36869	; 0x9005
     c0c:	2e1d0000 	cdpcs	0, 1, cr0, cr13, cr0, {0}
     c10:	03193f01 	tsteq	r9, #1, 30
     c14:	3b0b3a0e 	blcc	2cf454 <__bss_end__+0x2c4a9c>
     c18:	4919270b 	ldmdbmi	r9, {r0, r1, r3, r8, r9, sl, sp}
     c1c:	12011113 	andne	r1, r1, #-1073741820	; 0xc0000004
     c20:	97184006 	ldrls	r4, [r8, -r6]
     c24:	13011942 	movwne	r1, #6466	; 0x1942
     c28:	0b1e0000 	bleq	780c30 <__bss_end__+0x776278>
     c2c:	00175501 	andseq	r5, r7, r1, lsl #10
     c30:	00341f00 	eorseq	r1, r4, r0, lsl #30
     c34:	0b3a0e03 	bleq	e84448 <__bss_end__+0xe79a90>
     c38:	13490b3b 	movtne	r0, #39739	; 0x9b3b
     c3c:	193c193f 	ldmdbne	ip!, {r0, r1, r2, r3, r4, r5, r8, fp, ip}
     c40:	2e200000 	cdpcs	0, 2, cr0, cr0, cr0, {0}
     c44:	03193f00 	tsteq	r9, #0, 30
     c48:	3b0b3a0e 	blcc	2cf488 <__bss_end__+0x2c4ad0>
     c4c:	3c19270b 	ldccc	7, cr2, [r9], {11}
     c50:	21000019 	tstcs	r0, r9, lsl r0
     c54:	193f012e 	ldmdbne	pc!, {r1, r2, r3, r5, r8}	; <UNPREDICTABLE>
     c58:	0b3a0e03 	bleq	e8446c <__bss_end__+0xe79ab4>
     c5c:	19270b3b 	stmdbne	r7!, {r0, r1, r3, r4, r5, r8, r9, fp}
     c60:	193c1349 	ldmdbne	ip!, {r0, r3, r6, r8, r9, ip}
     c64:	00001301 	andeq	r1, r0, r1, lsl #6
     c68:	00001822 	andeq	r1, r0, r2, lsr #16
     c6c:	11010000 	mrsne	r0, (UNDEF: 1)
     c70:	130e2501 	movwne	r2, #58625	; 0xe501
     c74:	1b0e030b 	blne	3818a8 <__bss_end__+0x376ef0>
     c78:	1201110e 	andne	r1, r1, #-2147483645	; 0x80000003
     c7c:	00171006 	andseq	r1, r7, r6
     c80:	00240200 	eoreq	r0, r4, r0, lsl #4
     c84:	0b3e0b0b 	bleq	f838b8 <__bss_end__+0xf78f00>
     c88:	00000803 	andeq	r0, r0, r3, lsl #16
     c8c:	0b002403 	bleq	9ca0 <__FUNCTION__.4312+0x60>
     c90:	030b3e0b 	movweq	r3, #48651	; 0xbe0b
     c94:	0400000e 	streq	r0, [r0], #-14
     c98:	0b0b000f 	bleq	2c0cdc <__bss_end__+0x2b6324>
     c9c:	00001349 	andeq	r1, r0, r9, asr #6
     ca0:	49002605 	stmdbmi	r0, {r0, r2, r9, sl, sp}
     ca4:	06000013 			; <UNDEFINED> instruction: 0x06000013
     ca8:	193f012e 	ldmdbne	pc!, {r1, r2, r3, r5, r8}	; <UNPREDICTABLE>
     cac:	0b3a0e03 	bleq	e844c0 <__bss_end__+0xe79b08>
     cb0:	19270b3b 	stmdbne	r7!, {r0, r1, r3, r4, r5, r8, r9, fp}
     cb4:	06120111 			; <UNDEFINED> instruction: 0x06120111
     cb8:	42971840 	addsmi	r1, r7, #64, 16	; 0x400000
     cbc:	00130119 	andseq	r0, r3, r9, lsl r1
     cc0:	82890700 	addhi	r0, r9, #0, 14
     cc4:	01110101 	tsteq	r1, r1, lsl #2
     cc8:	00001301 	andeq	r1, r0, r1, lsl #6
     ccc:	01828a08 	orreq	r8, r2, r8, lsl #20
     cd0:	91180200 	tstls	r8, r0, lsl #4
     cd4:	00001842 	andeq	r1, r0, r2, asr #16
     cd8:	01828909 	orreq	r8, r2, r9, lsl #18
     cdc:	31011101 	tstcc	r1, r1, lsl #2
     ce0:	00130113 	andseq	r0, r3, r3, lsl r1
     ce4:	82890a00 	addhi	r0, r9, #0, 20
     ce8:	01110001 	tsteq	r1, r1
     cec:	00001331 	andeq	r1, r0, r1, lsr r3
     cf0:	2701150b 	strcs	r1, [r1, -fp, lsl #10]
     cf4:	01134919 	tsteq	r3, r9, lsl r9
     cf8:	0c000013 	stceq	0, cr0, [r0], {19}
     cfc:	13490005 	movtne	r0, #36869	; 0x9005
     d00:	340d0000 	strcc	r0, [sp], #-0
     d04:	3a0e0300 	bcc	38190c <__bss_end__+0x376f54>
     d08:	490b3b0b 	stmdbmi	fp, {r0, r1, r3, r8, r9, fp, ip, sp}
     d0c:	3c193f13 	ldccc	15, cr3, [r9], {19}
     d10:	0e000019 	mcreq	0, 0, r0, cr0, cr9, {0}
     d14:	193f012e 	ldmdbne	pc!, {r1, r2, r3, r5, r8}	; <UNPREDICTABLE>
     d18:	0b3a0e03 	bleq	e8452c <__bss_end__+0xe79b74>
     d1c:	19270b3b 	stmdbne	r7!, {r0, r1, r3, r4, r5, r8, r9, fp}
     d20:	1301193c 	movwne	r1, #6460	; 0x193c
     d24:	2e0f0000 	cdpcs	0, 0, cr0, cr15, cr0, {0}
     d28:	03193f00 	tsteq	r9, #0, 30
     d2c:	3b0b3a0e 	blcc	2cf56c <__bss_end__+0x2c4bb4>
     d30:	3c19270b 	ldccc	7, cr2, [r9], {11}
     d34:	00000019 	andeq	r0, r0, r9, lsl r0
     d38:	25011101 	strcs	r1, [r1, #-257]	; 0x101
     d3c:	030b130e 	movweq	r1, #45838	; 0xb30e
     d40:	110e1b0e 	tstne	lr, lr, lsl #22
     d44:	10061201 	andne	r1, r6, r1, lsl #4
     d48:	02000017 	andeq	r0, r0, #23
     d4c:	0b0b0024 	bleq	2c0de4 <__bss_end__+0x2b642c>
     d50:	08030b3e 	stmdaeq	r3, {r1, r2, r3, r4, r5, r8, r9, fp}
     d54:	24030000 	strcs	r0, [r3], #-0
     d58:	3e0b0b00 	vmlacc.f64	d0, d11, d0
     d5c:	000e030b 	andeq	r0, lr, fp, lsl #6
     d60:	012e0400 	teqeq	lr, r0, lsl #8
     d64:	0e03193f 	mcreq	9, 0, r1, cr3, cr15, {1}
     d68:	0b3b0b3a 	bleq	ec3a58 <__bss_end__+0xeb90a0>
     d6c:	06120111 			; <UNDEFINED> instruction: 0x06120111
     d70:	42971840 	addsmi	r1, r7, #64, 16	; 0x400000
     d74:	00130119 	andseq	r0, r3, r9, lsl r1
     d78:	00340500 	eorseq	r0, r4, r0, lsl #10
     d7c:	0b3a0e03 	bleq	e84590 <__bss_end__+0xe79bd8>
     d80:	13490b3b 	movtne	r0, #39739	; 0x9b3b
     d84:	193c193f 	ldmdbne	ip!, {r0, r1, r2, r3, r4, r5, r8, fp, ip}
     d88:	2e060000 	cdpcs	0, 0, cr0, cr6, cr0, {0}
     d8c:	03193f00 	tsteq	r9, #0, 30
     d90:	3b0b3a0e 	blcc	2cf5d0 <__bss_end__+0x2c4c18>
     d94:	3c19270b 	ldccc	7, cr2, [r9], {11}
     d98:	07000019 	smladeq	r0, r9, r0, r0
     d9c:	08030034 	stmdaeq	r3, {r2, r4, r5}
     da0:	0b3b0b3a 	bleq	ec3a90 <__bss_end__+0xeb90d8>
     da4:	17021349 	strne	r1, [r2, -r9, asr #6]
     da8:	34080000 	strcc	r0, [r8], #-0
     dac:	3a0e0300 	bcc	3819b4 <__bss_end__+0x376ffc>
     db0:	490b3b0b 	stmdbmi	fp, {r0, r1, r3, r8, r9, fp, ip, sp}
     db4:	09000013 	stmdbeq	r0, {r0, r1, r4}
     db8:	00018289 	andeq	r8, r1, r9, lsl #5
     dbc:	13310111 	teqne	r1, #1073741828	; 0x40000004
     dc0:	0f0a0000 	svceq	0x000a0000
     dc4:	490b0b00 	stmdbmi	fp, {r8, r9, fp}
     dc8:	00000013 	andeq	r0, r0, r3, lsl r0
     dcc:	25011101 	strcs	r1, [r1, #-257]	; 0x101
     dd0:	030b130e 	movweq	r1, #45838	; 0xb30e
     dd4:	550e1b0e 	strpl	r1, [lr, #-2830]	; 0xb0e
     dd8:	10011117 	andne	r1, r1, r7, lsl r1
     ddc:	02000017 	andeq	r0, r0, #23
     de0:	0b0b0024 	bleq	2c0e78 <__bss_end__+0x2b64c0>
     de4:	08030b3e 	stmdaeq	r3, {r1, r2, r3, r4, r5, r8, r9, fp}
     de8:	24030000 	strcs	r0, [r3], #-0
     dec:	3e0b0b00 	vmlacc.f64	d0, d11, d0
     df0:	000e030b 	andeq	r0, lr, fp, lsl #6
     df4:	012e0400 	teqeq	lr, r0, lsl #8
     df8:	0e03193f 	mcreq	9, 0, r1, cr3, cr15, {1}
     dfc:	0b3b0b3a 	bleq	ec3aec <__bss_end__+0xeb9134>
     e00:	13491927 	movtne	r1, #39207	; 0x9927
     e04:	06120111 			; <UNDEFINED> instruction: 0x06120111
     e08:	42971840 	addsmi	r1, r7, #64, 16	; 0x400000
     e0c:	00130119 	andseq	r0, r3, r9, lsl r1
     e10:	00340500 	eorseq	r0, r4, r0, lsl #10
     e14:	0b3a0e03 	bleq	e84628 <__bss_end__+0xe79c70>
     e18:	13490b3b 	movtne	r0, #39739	; 0x9b3b
     e1c:	00001702 	andeq	r1, r0, r2, lsl #14
     e20:	3f012e06 	svccc	0x00012e06
     e24:	3a0e0319 	bcc	381a90 <__bss_end__+0x3770d8>
     e28:	270b3b0b 	strcs	r3, [fp, -fp, lsl #22]
     e2c:	12011119 	andne	r1, r1, #1073741830	; 0x40000006
     e30:	97184006 	ldrls	r4, [r8, -r6]
     e34:	13011942 	movwne	r1, #6466	; 0x1942
     e38:	34070000 	strcc	r0, [r7], #-0
     e3c:	3a0e0300 	bcc	381a44 <__bss_end__+0x37708c>
     e40:	490b3b0b 	stmdbmi	fp, {r0, r1, r3, r8, r9, fp, ip, sp}
     e44:	00061c13 	andeq	r1, r6, r3, lsl ip
     e48:	00340800 	eorseq	r0, r4, r0, lsl #16
     e4c:	0b3a0e03 	bleq	e84660 <__bss_end__+0xe79ca8>
     e50:	13490b3b 	movtne	r0, #39739	; 0x9b3b
     e54:	00000b1c 	andeq	r0, r0, ip, lsl fp
     e58:	01828909 	orreq	r8, r2, r9, lsl #18
     e5c:	31011100 	mrscc	r1, (UNDEF: 17)
     e60:	0a000013 	beq	eb4 <_start-0x714c>
     e64:	01018289 	smlabbeq	r1, r9, r2, r8
     e68:	13310111 	teqne	r1, #1073741828	; 0x40000004
     e6c:	00001301 	andeq	r1, r0, r1, lsl #6
     e70:	01828a0b 	orreq	r8, r2, fp, lsl #20
     e74:	91180200 	tstls	r8, r0, lsl #4
     e78:	00001842 	andeq	r1, r0, r2, asr #16
     e7c:	0182890c 	orreq	r8, r2, ip, lsl #18
     e80:	31011101 	tstcc	r1, r1, lsl #2
     e84:	0d000013 	stceq	0, cr0, [r0, #-76]	; 0xffffffb4
     e88:	13490026 	movtne	r0, #36902	; 0x9026
     e8c:	2e0e0000 	cdpcs	0, 0, cr0, cr14, cr0, {0}
     e90:	03193f01 	tsteq	r9, #1, 30
     e94:	3b0b3a0e 	blcc	2cf6d4 <__bss_end__+0x2c4d1c>
     e98:	3c19270b 	ldccc	7, cr2, [r9], {11}
     e9c:	00130119 	andseq	r0, r3, r9, lsl r1
     ea0:	00050f00 	andeq	r0, r5, r0, lsl #30
     ea4:	00001349 	andeq	r1, r0, r9, asr #6
     ea8:	3f012e10 	svccc	0x00012e10
     eac:	3a0e0319 	bcc	381b18 <__bss_end__+0x377160>
     eb0:	270b3b0b 	strcs	r3, [fp, -fp, lsl #22]
     eb4:	00193c19 	andseq	r3, r9, r9, lsl ip
     eb8:	11010000 	mrsne	r0, (UNDEF: 1)
     ebc:	130e2501 	movwne	r2, #58625	; 0xe501
     ec0:	1b0e030b 	blne	381af4 <__bss_end__+0x37713c>
     ec4:	1201110e 	andne	r1, r1, #-2147483645	; 0x80000003
     ec8:	00171006 	andseq	r1, r7, r6
     ecc:	00240200 	eoreq	r0, r4, r0, lsl #4
     ed0:	0b3e0b0b 	bleq	f83b04 <__bss_end__+0xf7914c>
     ed4:	00000803 	andeq	r0, r0, r3, lsl #16
     ed8:	0b002403 	bleq	9eec <__FUNCTION__.4312+0x2ac>
     edc:	030b3e0b 	movweq	r3, #48651	; 0xbe0b
     ee0:	0400000e 	streq	r0, [r0], #-14
     ee4:	193f012e 	ldmdbne	pc!, {r1, r2, r3, r5, r8}	; <UNPREDICTABLE>
     ee8:	0b3a0e03 	bleq	e846fc <__bss_end__+0xe79d44>
     eec:	19270b3b 	stmdbne	r7!, {r0, r1, r3, r4, r5, r8, r9, fp}
     ef0:	06120111 			; <UNDEFINED> instruction: 0x06120111
     ef4:	42971840 	addsmi	r1, r7, #64, 16	; 0x400000
     ef8:	00130119 	andseq	r0, r3, r9, lsl r1
     efc:	00050500 	andeq	r0, r5, r0, lsl #10
     f00:	0b3a0e03 	bleq	e84714 <__bss_end__+0xe79d5c>
     f04:	13490b3b 	movtne	r0, #39739	; 0x9b3b
     f08:	00001702 	andeq	r1, r0, r2, lsl #14
     f0c:	3f012e06 	svccc	0x00012e06
     f10:	3a0e0319 	bcc	381b7c <__bss_end__+0x3771c4>
     f14:	270b3b0b 	strcs	r3, [fp, -fp, lsl #22]
     f18:	11134919 	tstne	r3, r9, lsl r9
     f1c:	40061201 	andmi	r1, r6, r1, lsl #4
     f20:	19429718 	stmdbne	r2, {r3, r4, r8, r9, sl, ip, pc}^
     f24:	00001301 	andeq	r1, r0, r1, lsl #6
     f28:	01828907 	orreq	r8, r2, r7, lsl #18
     f2c:	31011101 	tstcc	r1, r1, lsl #2
     f30:	08000013 	stmdaeq	r0, {r0, r1, r4}
     f34:	0001828a 	andeq	r8, r1, sl, lsl #5
     f38:	42911802 	addsmi	r1, r1, #131072	; 0x20000
     f3c:	09000018 	stmdbeq	r0, {r3, r4}
     f40:	08030034 	stmdaeq	r3, {r2, r4, r5}
     f44:	0b3b0b3a 	bleq	ec3c34 <__bss_end__+0xeb927c>
     f48:	18021349 	stmdane	r2, {r0, r3, r6, r8, r9, ip}
     f4c:	890a0000 	stmdbhi	sl, {}	; <UNPREDICTABLE>
     f50:	11000182 	smlabbne	r0, r2, r1, r0
     f54:	00133101 	andseq	r3, r3, r1, lsl #2
     f58:	00050b00 	andeq	r0, r5, r0, lsl #22
     f5c:	0b3a0803 	bleq	e82f70 <__bss_end__+0xe785b8>
     f60:	13490b3b 	movtne	r0, #39739	; 0x9b3b
     f64:	00001702 	andeq	r1, r0, r2, lsl #14
     f68:	11010b0c 	tstne	r1, ip, lsl #22
     f6c:	01061201 	tsteq	r6, r1, lsl #4
     f70:	0d000013 	stceq	0, cr0, [r0, #-76]	; 0xffffffb4
     f74:	08030034 	stmdaeq	r3, {r2, r4, r5}
     f78:	0b3b0b3a 	bleq	ec3c68 <__bss_end__+0xeb92b0>
     f7c:	17021349 	strne	r1, [r2, -r9, asr #6]
     f80:	2e0e0000 	cdpcs	0, 0, cr0, cr14, cr0, {0}
     f84:	03193f01 	tsteq	r9, #1, 30
     f88:	3b0b3a0e 	blcc	2cf7c8 <__bss_end__+0x2c4e10>
     f8c:	4919270b 	ldmdbmi	r9, {r0, r1, r3, r8, r9, sl, sp}
     f90:	00193c13 	andseq	r3, r9, r3, lsl ip
     f94:	00050f00 	andeq	r0, r5, r0, lsl #30
     f98:	00001349 	andeq	r1, r0, r9, asr #6
     f9c:	01110100 	tsteq	r1, r0, lsl #2
     fa0:	0b130e25 	bleq	4c483c <__bss_end__+0x4b9e84>
     fa4:	0e1b0e03 	cdpeq	14, 1, cr0, cr11, cr3, {0}
     fa8:	06120111 			; <UNDEFINED> instruction: 0x06120111
     fac:	00001710 	andeq	r1, r0, r0, lsl r7
     fb0:	0b002402 	bleq	9fc0 <__FUNCTION__.4345+0x8>
     fb4:	030b3e0b 	movweq	r3, #48651	; 0xbe0b
     fb8:	03000008 	movweq	r0, #8
     fbc:	0b0b0024 	bleq	2c1054 <__bss_end__+0x2b669c>
     fc0:	0e030b3e 	vmoveq.16	d3[0], r0
     fc4:	35040000 	strcc	r0, [r4, #-0]
     fc8:	00134900 	andseq	r4, r3, r0, lsl #18
     fcc:	00160500 	andseq	r0, r6, r0, lsl #10
     fd0:	0b3a0e03 	bleq	e847e4 <__bss_end__+0xe79e2c>
     fd4:	13490b3b 	movtne	r0, #39739	; 0x9b3b
     fd8:	16060000 	strne	r0, [r6], -r0
     fdc:	3a0e0300 	bcc	381be4 <__bss_end__+0x37722c>
     fe0:	49053b0b 	stmdbmi	r5, {r0, r1, r3, r8, r9, fp, ip, sp}
     fe4:	07000013 	smladeq	r0, r3, r0, r0
     fe8:	0b0b0117 	bleq	2c144c <__bss_end__+0x2b6a94>
     fec:	0b3b0b3a 	bleq	ec3cdc <__bss_end__+0xeb9324>
     ff0:	00001301 	andeq	r1, r0, r1, lsl #6
     ff4:	03000d08 	movweq	r0, #3336	; 0xd08
     ff8:	3b0b3a0e 	blcc	2cf838 <__bss_end__+0x2c4e80>
     ffc:	0013490b 	andseq	r4, r3, fp, lsl #18
    1000:	01010900 	tsteq	r1, r0, lsl #18
    1004:	13011349 	movwne	r1, #4937	; 0x1349
    1008:	210a0000 	mrscs	r0, (UNDEF: 10)
    100c:	2f134900 	svccs	0x00134900
    1010:	0b00000b 	bleq	1044 <_start-0x6fbc>
    1014:	0b0b0113 	bleq	2c1468 <__bss_end__+0x2b6ab0>
    1018:	0b3b0b3a 	bleq	ec3d08 <__bss_end__+0xeb9350>
    101c:	00001301 	andeq	r1, r0, r1, lsl #6
    1020:	03000d0c 	movweq	r0, #3340	; 0xd0c
    1024:	3b0b3a0e 	blcc	2cf864 <__bss_end__+0x2c4eac>
    1028:	3813490b 	ldmdacc	r3, {r0, r1, r3, r8, fp, lr}
    102c:	0d00000b 	stceq	0, cr0, [r0, #-44]	; 0xffffffd4
    1030:	0b0b000f 	bleq	2c1074 <__bss_end__+0x2b66bc>
    1034:	0f0e0000 	svceq	0x000e0000
    1038:	490b0b00 	stmdbmi	fp, {r8, r9, fp}
    103c:	0f000013 	svceq	0x00000013
    1040:	13490026 	movtne	r0, #36902	; 0x9026
    1044:	13100000 	tstne	r0, #0
    1048:	0b0e0301 	bleq	381c54 <__bss_end__+0x37729c>
    104c:	3b0b3a0b 	blcc	2cf880 <__bss_end__+0x2c4ec8>
    1050:	0013010b 	andseq	r0, r3, fp, lsl #2
    1054:	000d1100 	andeq	r1, sp, r0, lsl #2
    1058:	0b3a0803 	bleq	e8306c <__bss_end__+0xe786b4>
    105c:	13490b3b 	movtne	r0, #39739	; 0x9b3b
    1060:	00000b38 	andeq	r0, r0, r8, lsr fp
    1064:	03011312 	movweq	r1, #4882	; 0x1312
    1068:	3a050b0e 	bcc	143ca8 <__bss_end__+0x1392f0>
    106c:	010b3b0b 	tsteq	fp, fp, lsl #22
    1070:	13000013 	movwne	r0, #19
    1074:	0e03000d 	cdpeq	0, 0, cr0, cr3, cr13, {0}
    1078:	0b3b0b3a 	bleq	ec3d68 <__bss_end__+0xeb93b0>
    107c:	05381349 	ldreq	r1, [r8, #-841]!	; 0x349
    1080:	15140000 	ldrne	r0, [r4, #-0]
    1084:	00192700 	andseq	r2, r9, r0, lsl #14
    1088:	01151500 	tsteq	r5, r0, lsl #10
    108c:	13491927 	movtne	r1, #39207	; 0x9927
    1090:	00001301 	andeq	r1, r0, r1, lsl #6
    1094:	49000516 	stmdbmi	r0, {r1, r2, r4, r8, sl}
    1098:	17000013 	smladne	r0, r3, r0, r0
    109c:	0e030113 	mcreq	1, 0, r0, cr3, cr3, {0}
    10a0:	0b3a050b 	bleq	e824d4 <__bss_end__+0xe77b1c>
    10a4:	1301053b 	movwne	r0, #5435	; 0x153b
    10a8:	0d180000 	ldceq	0, cr0, [r8, #-0]
    10ac:	3a0e0300 	bcc	381cb4 <__bss_end__+0x3772fc>
    10b0:	49053b0b 	stmdbmi	r5, {r0, r1, r3, r8, r9, fp, ip, sp}
    10b4:	000b3813 	andeq	r3, fp, r3, lsl r8
    10b8:	000d1900 	andeq	r1, sp, r0, lsl #18
    10bc:	0b3a0e03 	bleq	e848d0 <__bss_end__+0xe79f18>
    10c0:	1349053b 	movtne	r0, #38203	; 0x953b
    10c4:	00000538 	andeq	r0, r0, r8, lsr r5
    10c8:	0301131a 	movweq	r1, #4890	; 0x131a
    10cc:	3a0b0b0e 	bcc	2c3d0c <__bss_end__+0x2b9354>
    10d0:	01053b0b 	tsteq	r5, fp, lsl #22
    10d4:	1b000013 	blne	1128 <_start-0x6ed8>
    10d8:	0b0b0113 	bleq	2c152c <__bss_end__+0x2b6b74>
    10dc:	053b0b3a 	ldreq	r0, [fp, #-2874]!	; 0xb3a
    10e0:	00001301 	andeq	r1, r0, r1, lsl #6
    10e4:	0b01171c 	bleq	46d5c <__bss_end__+0x3c3a4>
    10e8:	3b0b3a0b 	blcc	2cf91c <__bss_end__+0x2c4f64>
    10ec:	00130105 	andseq	r0, r3, r5, lsl #2
    10f0:	000d1d00 	andeq	r1, sp, r0, lsl #26
    10f4:	0b3a0e03 	bleq	e84908 <__bss_end__+0xe79f50>
    10f8:	1349053b 	movtne	r0, #38203	; 0x953b
    10fc:	151e0000 	ldrne	r0, [lr, #-0]
    1100:	01192701 	tsteq	r9, r1, lsl #14
    1104:	1f000013 	svcne	0x00000013
    1108:	0e030034 	mcreq	0, 0, r0, cr3, cr4, {1}
    110c:	053b0b3a 	ldreq	r0, [fp, #-2874]!	; 0xb3a
    1110:	193f1349 	ldmdbne	pc!, {r0, r3, r6, r8, r9, ip}	; <UNPREDICTABLE>
    1114:	0000193c 	andeq	r1, r0, ip, lsr r9
    1118:	03003420 	movweq	r3, #1056	; 0x420
    111c:	3b0b3a0e 	blcc	2cf95c <__bss_end__+0x2c4fa4>
    1120:	3f13490b 	svccc	0x0013490b
    1124:	00193c19 	andseq	r3, r9, r9, lsl ip
    1128:	01042100 	mrseq	r2, (UNDEF: 20)
    112c:	13490b0b 	movtne	r0, #39691	; 0x9b0b
    1130:	0b3b0b3a 	bleq	ec3e20 <__bss_end__+0xeb9468>
    1134:	00001301 	andeq	r1, r0, r1, lsl #6
    1138:	03002822 	movweq	r2, #2082	; 0x822
    113c:	000b1c0e 	andeq	r1, fp, lr, lsl #24
    1140:	00342300 	eorseq	r2, r4, r0, lsl #6
    1144:	0b3a0e03 	bleq	e84958 <__bss_end__+0xe79fa0>
    1148:	13490b3b 	movtne	r0, #39739	; 0x9b3b
    114c:	0000061c 	andeq	r0, r0, ip, lsl r6
    1150:	3f012e24 	svccc	0x00012e24
    1154:	3a0e0319 	bcc	381dc0 <__bss_end__+0x377408>
    1158:	270b3b0b 	strcs	r3, [fp, -fp, lsl #22]
    115c:	11134919 	tstne	r3, r9, lsl r9
    1160:	40061201 	andmi	r1, r6, r1, lsl #4
    1164:	19429718 	stmdbne	r2, {r3, r4, r8, r9, sl, ip, pc}^
    1168:	00001301 	andeq	r1, r0, r1, lsl #6
    116c:	01828925 	orreq	r8, r2, r5, lsr #18
    1170:	31011100 	mrscc	r1, (UNDEF: 17)
    1174:	26000013 			; <UNDEFINED> instruction: 0x26000013
    1178:	193f012e 	ldmdbne	pc!, {r1, r2, r3, r5, r8}	; <UNPREDICTABLE>
    117c:	0b3a0e03 	bleq	e84990 <__bss_end__+0xe79fd8>
    1180:	19270b3b 	stmdbne	r7!, {r0, r1, r3, r4, r5, r8, r9, fp}
    1184:	06120111 			; <UNDEFINED> instruction: 0x06120111
    1188:	42971840 	addsmi	r1, r7, #64, 16	; 0x400000
    118c:	00130119 	andseq	r0, r3, r9, lsl r1
    1190:	00052700 	andeq	r2, r5, r0, lsl #14
    1194:	0b3a0803 	bleq	e831a8 <__bss_end__+0xe787f0>
    1198:	13490b3b 	movtne	r0, #39739	; 0x9b3b
    119c:	00001702 	andeq	r1, r0, r2, lsl #14
    11a0:	01828928 	orreq	r8, r2, r8, lsr #18
    11a4:	31011101 	tstcc	r1, r1, lsl #2
    11a8:	00130113 	andseq	r0, r3, r3, lsl r1
    11ac:	828a2900 	addhi	r2, sl, #0, 18
    11b0:	18020001 	stmdane	r2, {r0}
    11b4:	00184291 	mulseq	r8, r1, r2
    11b8:	00342a00 	eorseq	r2, r4, r0, lsl #20
    11bc:	0b3a0803 	bleq	e831d0 <__bss_end__+0xe78818>
    11c0:	13490b3b 	movtne	r0, #39739	; 0x9b3b
    11c4:	00001802 	andeq	r1, r0, r2, lsl #16
    11c8:	0182892b 	orreq	r8, r2, fp, lsr #18
    11cc:	31011101 	tstcc	r1, r1, lsl #2
    11d0:	2c000013 	stccs	0, cr0, [r0], {19}
    11d4:	0e03012e 	adfeqsp	f0, f3, #0.5
    11d8:	0b3b0b3a 	bleq	ec3ec8 <__bss_end__+0xeb9510>
    11dc:	01111927 	tsteq	r1, r7, lsr #18
    11e0:	18400612 	stmdane	r0, {r1, r4, r9, sl}^
    11e4:	01194297 			; <UNDEFINED> instruction: 0x01194297
    11e8:	2d000013 	stccs	0, cr0, [r0, #-76]	; 0xffffffb4
    11ec:	0e030005 	cdpeq	0, 0, cr0, cr3, cr5, {0}
    11f0:	0b3b0b3a 	bleq	ec3ee0 <__bss_end__+0xeb9528>
    11f4:	17021349 	strne	r1, [r2, -r9, asr #6]
    11f8:	352e0000 	strcc	r0, [lr, #-0]!
    11fc:	2f000000 	svccs	0x00000000
    1200:	193f002e 	ldmdbne	pc!, {r1, r2, r3, r5}	; <UNPREDICTABLE>
    1204:	0e6e193c 	mcreq	9, 3, r1, cr14, cr12, {1}
    1208:	0b3a0e03 	bleq	e84a1c <__bss_end__+0xe7a064>
    120c:	00000b3b 	andeq	r0, r0, fp, lsr fp
    1210:	01110100 	tsteq	r1, r0, lsl #2
    1214:	0b130e25 	bleq	4c4ab0 <__bss_end__+0x4ba0f8>
    1218:	0e1b0e03 	cdpeq	14, 1, cr0, cr11, cr3, {0}
    121c:	06120111 			; <UNDEFINED> instruction: 0x06120111
    1220:	00001710 	andeq	r1, r0, r0, lsl r7
    1224:	0b002402 	bleq	a234 <__FUNCTION__.4336+0x24c>
    1228:	030b3e0b 	movweq	r3, #48651	; 0xbe0b
    122c:	03000008 	movweq	r0, #8
    1230:	0b0b0024 	bleq	2c12c8 <__bss_end__+0x2b6910>
    1234:	0e030b3e 	vmoveq.16	d3[0], r0
    1238:	26040000 	strcs	r0, [r4], -r0
    123c:	00134900 	andseq	r4, r3, r0, lsl #18
    1240:	00160500 	andseq	r0, r6, r0, lsl #10
    1244:	0b3a0e03 	bleq	e84a58 <__bss_end__+0xe7a0a0>
    1248:	13490b3b 	movtne	r0, #39739	; 0x9b3b
    124c:	16060000 	strne	r0, [r6], -r0
    1250:	3a0e0300 	bcc	381e58 <__bss_end__+0x3774a0>
    1254:	49053b0b 	stmdbmi	r5, {r0, r1, r3, r8, r9, fp, ip, sp}
    1258:	07000013 	smladeq	r0, r3, r0, r0
    125c:	0b0b0117 	bleq	2c16c0 <__bss_end__+0x2b6d08>
    1260:	0b3b0b3a 	bleq	ec3f50 <__bss_end__+0xeb9598>
    1264:	00001301 	andeq	r1, r0, r1, lsl #6
    1268:	03000d08 	movweq	r0, #3336	; 0xd08
    126c:	3b0b3a0e 	blcc	2cfaac <__bss_end__+0x2c50f4>
    1270:	0013490b 	andseq	r4, r3, fp, lsl #18
    1274:	01010900 	tsteq	r1, r0, lsl #18
    1278:	13011349 	movwne	r1, #4937	; 0x1349
    127c:	210a0000 	mrscs	r0, (UNDEF: 10)
    1280:	2f134900 	svccs	0x00134900
    1284:	0b00000b 	bleq	12b8 <_start-0x6d48>
    1288:	0b0b0113 	bleq	2c16dc <__bss_end__+0x2b6d24>
    128c:	0b3b0b3a 	bleq	ec3f7c <__bss_end__+0xeb95c4>
    1290:	00001301 	andeq	r1, r0, r1, lsl #6
    1294:	03000d0c 	movweq	r0, #3340	; 0xd0c
    1298:	3b0b3a0e 	blcc	2cfad8 <__bss_end__+0x2c5120>
    129c:	3813490b 	ldmdacc	r3, {r0, r1, r3, r8, fp, lr}
    12a0:	0d00000b 	stceq	0, cr0, [r0, #-44]	; 0xffffffd4
    12a4:	0b0b000f 	bleq	2c12e8 <__bss_end__+0x2b6930>
    12a8:	0f0e0000 	svceq	0x000e0000
    12ac:	490b0b00 	stmdbmi	fp, {r8, r9, fp}
    12b0:	0f000013 	svceq	0x00000013
    12b4:	0e030113 	mcreq	1, 0, r0, cr3, cr3, {0}
    12b8:	0b3a0b0b 	bleq	e83eec <__bss_end__+0xe79534>
    12bc:	13010b3b 	movwne	r0, #6971	; 0x1b3b
    12c0:	0d100000 	ldceq	0, cr0, [r0, #-0]
    12c4:	3a080300 	bcc	201ecc <__bss_end__+0x1f7514>
    12c8:	490b3b0b 	stmdbmi	fp, {r0, r1, r3, r8, r9, fp, ip, sp}
    12cc:	000b3813 	andeq	r3, fp, r3, lsl r8
    12d0:	01131100 	tsteq	r3, r0, lsl #2
    12d4:	050b0e03 	streq	r0, [fp, #-3587]	; 0xe03
    12d8:	0b3b0b3a 	bleq	ec3fc8 <__bss_end__+0xeb9610>
    12dc:	00001301 	andeq	r1, r0, r1, lsl #6
    12e0:	03000d12 	movweq	r0, #3346	; 0xd12
    12e4:	3b0b3a0e 	blcc	2cfb24 <__bss_end__+0x2c516c>
    12e8:	3813490b 	ldmdacc	r3, {r0, r1, r3, r8, fp, lr}
    12ec:	13000005 	movwne	r0, #5
    12f0:	19270015 	stmdbne	r7!, {r0, r2, r4}
    12f4:	15140000 	ldrne	r0, [r4, #-0]
    12f8:	49192701 	ldmdbmi	r9, {r0, r8, r9, sl, sp}
    12fc:	00130113 	andseq	r0, r3, r3, lsl r1
    1300:	00051500 	andeq	r1, r5, r0, lsl #10
    1304:	00001349 	andeq	r1, r0, r9, asr #6
    1308:	03011316 	movweq	r1, #4886	; 0x1316
    130c:	3a050b0e 	bcc	143f4c <__bss_end__+0x139594>
    1310:	01053b0b 	tsteq	r5, fp, lsl #22
    1314:	17000013 	smladne	r0, r3, r0, r0
    1318:	0e03000d 	cdpeq	0, 0, cr0, cr3, cr13, {0}
    131c:	053b0b3a 	ldreq	r0, [fp, #-2874]!	; 0xb3a
    1320:	0b381349 	bleq	e0604c <__bss_end__+0xdfb694>
    1324:	0d180000 	ldceq	0, cr0, [r8, #-0]
    1328:	3a0e0300 	bcc	381f30 <__bss_end__+0x377578>
    132c:	49053b0b 	stmdbmi	r5, {r0, r1, r3, r8, r9, fp, ip, sp}
    1330:	00053813 	andeq	r3, r5, r3, lsl r8
    1334:	01131900 	tsteq	r3, r0, lsl #18
    1338:	0b0b0e03 	bleq	2c4b4c <__bss_end__+0x2ba194>
    133c:	053b0b3a 	ldreq	r0, [fp, #-2874]!	; 0xb3a
    1340:	00001301 	andeq	r1, r0, r1, lsl #6
    1344:	0b01131a 	bleq	45fb4 <__bss_end__+0x3b5fc>
    1348:	3b0b3a0b 	blcc	2cfb7c <__bss_end__+0x2c51c4>
    134c:	00130105 	andseq	r0, r3, r5, lsl #2
    1350:	01171b00 	tsteq	r7, r0, lsl #22
    1354:	0b3a0b0b 	bleq	e83f88 <__bss_end__+0xe795d0>
    1358:	1301053b 	movwne	r0, #5435	; 0x153b
    135c:	0d1c0000 	ldceq	0, cr0, [ip, #-0]
    1360:	3a0e0300 	bcc	381f68 <__bss_end__+0x3775b0>
    1364:	49053b0b 	stmdbmi	r5, {r0, r1, r3, r8, r9, fp, ip, sp}
    1368:	1d000013 	stcne	0, cr0, [r0, #-76]	; 0xffffffb4
    136c:	19270115 	stmdbne	r7!, {r0, r2, r4, r8}
    1370:	00001301 	andeq	r1, r0, r1, lsl #6
    1374:	0300341e 	movweq	r3, #1054	; 0x41e
    1378:	3b0b3a0e 	blcc	2cfbb8 <__bss_end__+0x2c5200>
    137c:	3f134905 	svccc	0x00134905
    1380:	00193c19 	andseq	r3, r9, r9, lsl ip
    1384:	00341f00 	eorseq	r1, r4, r0, lsl #30
    1388:	0b3a0e03 	bleq	e84b9c <__bss_end__+0xe7a1e4>
    138c:	13490b3b 	movtne	r0, #39739	; 0x9b3b
    1390:	193c193f 	ldmdbne	ip!, {r0, r1, r2, r3, r4, r5, r8, fp, ip}
    1394:	04200000 	strteq	r0, [r0], #-0
    1398:	490b0b01 	stmdbmi	fp, {r0, r8, r9, fp}
    139c:	3b0b3a13 	blcc	2cfbf0 <__bss_end__+0x2c5238>
    13a0:	0013010b 	andseq	r0, r3, fp, lsl #2
    13a4:	00282100 	eoreq	r2, r8, r0, lsl #2
    13a8:	0b1c0e03 	bleq	704bbc <__bss_end__+0x6fa204>
    13ac:	34220000 	strtcc	r0, [r2], #-0
    13b0:	3a0e0300 	bcc	381fb8 <__bss_end__+0x377600>
    13b4:	490b3b0b 	stmdbmi	fp, {r0, r1, r3, r8, r9, fp, ip, sp}
    13b8:	00061c13 	andeq	r1, r6, r3, lsl ip
    13bc:	012e2300 	teqeq	lr, r0, lsl #6
    13c0:	0e03193f 	mcreq	9, 0, r1, cr3, cr15, {1}
    13c4:	0b3b0b3a 	bleq	ec40b4 <__bss_end__+0xeb96fc>
    13c8:	13491927 	movtne	r1, #39207	; 0x9927
    13cc:	06120111 			; <UNDEFINED> instruction: 0x06120111
    13d0:	42971840 	addsmi	r1, r7, #64, 16	; 0x400000
    13d4:	00130119 	andseq	r0, r3, r9, lsl r1
    13d8:	00052400 	andeq	r2, r5, r0, lsl #8
    13dc:	0b3a0803 	bleq	e833f0 <__bss_end__+0xe78a38>
    13e0:	13490b3b 	movtne	r0, #39739	; 0x9b3b
    13e4:	00001702 	andeq	r1, r0, r2, lsl #14
    13e8:	03003425 	movweq	r3, #1061	; 0x425
    13ec:	3b0b3a0e 	blcc	2cfc2c <__bss_end__+0x2c5274>
    13f0:	0213490b 	andseq	r4, r3, #180224	; 0x2c000
    13f4:	26000017 			; <UNDEFINED> instruction: 0x26000017
    13f8:	08030034 	stmdaeq	r3, {r2, r4, r5}
    13fc:	0b3b0b3a 	bleq	ec40ec <__bss_end__+0xeb9734>
    1400:	17021349 	strne	r1, [r2, -r9, asr #6]
    1404:	89270000 	stmdbhi	r7!, {}	; <UNPREDICTABLE>
    1408:	11010182 	smlabbne	r1, r2, r1, r0
    140c:	00133101 	andseq	r3, r3, r1, lsl #2
    1410:	828a2800 	addhi	r2, sl, #0, 16
    1414:	18020001 	stmdane	r2, {r0}
    1418:	00184291 	mulseq	r8, r1, r2
    141c:	012e2900 	teqeq	lr, r0, lsl #18
    1420:	0e03193f 	mcreq	9, 0, r1, cr3, cr15, {1}
    1424:	0b3b0b3a 	bleq	ec4114 <__bss_end__+0xeb975c>
    1428:	01111927 	tsteq	r1, r7, lsr #18
    142c:	18400612 	stmdane	r0, {r1, r4, r9, sl}^
    1430:	01194297 			; <UNDEFINED> instruction: 0x01194297
    1434:	2a000013 	bcs	1488 <_start-0x6b78>
    1438:	01018289 	smlabbeq	r1, r9, r2, r8
    143c:	13310111 	teqne	r1, #1073741828	; 0x40000004
    1440:	00001301 	andeq	r1, r0, r1, lsl #6
    1444:	0182892b 	orreq	r8, r2, fp, lsr #18
    1448:	31011100 	mrscc	r1, (UNDEF: 17)
    144c:	2c000013 	stccs	0, cr0, [r0], {19}
    1450:	0e030005 	cdpeq	0, 0, cr0, cr3, cr5, {0}
    1454:	0b3b0b3a 	bleq	ec4144 <__bss_end__+0xeb978c>
    1458:	17021349 	strne	r1, [r2, -r9, asr #6]
    145c:	342d0000 	strtcc	r0, [sp], #-0
    1460:	3a080300 	bcc	202068 <__bss_end__+0x1f76b0>
    1464:	490b3b0b 	stmdbmi	fp, {r0, r1, r3, r8, r9, fp, ip, sp}
    1468:	00180213 	andseq	r0, r8, r3, lsl r2
    146c:	002e2e00 	eoreq	r2, lr, r0, lsl #28
    1470:	193c193f 	ldmdbne	ip!, {r0, r1, r2, r3, r4, r5, r8, fp, ip}
    1474:	0e030e6e 	cdpeq	14, 0, cr0, cr3, cr14, {3}
    1478:	0b3b0b3a 	bleq	ec4168 <__bss_end__+0xeb97b0>
    147c:	01000000 	mrseq	r0, (UNDEF: 0)
    1480:	0e250111 	mcreq	1, 1, r0, cr5, cr1, {0}
    1484:	0e030b13 	vmoveq.32	d3[0], r0
    1488:	01110e1b 	tsteq	r1, fp, lsl lr
    148c:	17100612 			; <UNDEFINED> instruction: 0x17100612
    1490:	24020000 	strcs	r0, [r2], #-0
    1494:	3e0b0b00 	vmlacc.f64	d0, d11, d0
    1498:	0008030b 	andeq	r0, r8, fp, lsl #6
    149c:	00240300 	eoreq	r0, r4, r0, lsl #6
    14a0:	0b3e0b0b 	bleq	f840d4 <__bss_end__+0xf7971c>
    14a4:	00000e03 	andeq	r0, r0, r3, lsl #28
    14a8:	03001604 	movweq	r1, #1540	; 0x604
    14ac:	3b0b3a0e 	blcc	2cfcec <__bss_end__+0x2c5334>
    14b0:	0013490b 	andseq	r4, r3, fp, lsl #18
    14b4:	00160500 	andseq	r0, r6, r0, lsl #10
    14b8:	0b3a0e03 	bleq	e84ccc <__bss_end__+0xe7a314>
    14bc:	1349053b 	movtne	r0, #38203	; 0x953b
    14c0:	17060000 	strne	r0, [r6, -r0]
    14c4:	3a0b0b01 	bcc	2c40d0 <__bss_end__+0x2b9718>
    14c8:	010b3b0b 	tsteq	fp, fp, lsl #22
    14cc:	07000013 	smladeq	r0, r3, r0, r0
    14d0:	0e03000d 	cdpeq	0, 0, cr0, cr3, cr13, {0}
    14d4:	0b3b0b3a 	bleq	ec41c4 <__bss_end__+0xeb980c>
    14d8:	00001349 	andeq	r1, r0, r9, asr #6
    14dc:	49010108 	stmdbmi	r1, {r3, r8}
    14e0:	00130113 	andseq	r0, r3, r3, lsl r1
    14e4:	00210900 	eoreq	r0, r1, r0, lsl #18
    14e8:	0b2f1349 	bleq	bc6214 <__bss_end__+0xbbb85c>
    14ec:	130a0000 	movwne	r0, #40960	; 0xa000
    14f0:	3a0b0b01 	bcc	2c40fc <__bss_end__+0x2b9744>
    14f4:	010b3b0b 	tsteq	fp, fp, lsl #22
    14f8:	0b000013 	bleq	154c <_start-0x6ab4>
    14fc:	0e03000d 	cdpeq	0, 0, cr0, cr3, cr13, {0}
    1500:	0b3b0b3a 	bleq	ec41f0 <__bss_end__+0xeb9838>
    1504:	0b381349 	bleq	e06230 <__bss_end__+0xdfb878>
    1508:	0f0c0000 	svceq	0x000c0000
    150c:	000b0b00 	andeq	r0, fp, r0, lsl #22
    1510:	000f0d00 	andeq	r0, pc, r0, lsl #26
    1514:	13490b0b 	movtne	r0, #39691	; 0x9b0b
    1518:	260e0000 	strcs	r0, [lr], -r0
    151c:	00134900 	andseq	r4, r3, r0, lsl #18
    1520:	01130f00 	tsteq	r3, r0, lsl #30
    1524:	0b0b0e03 	bleq	2c4d38 <__bss_end__+0x2ba380>
    1528:	0b3b0b3a 	bleq	ec4218 <__bss_end__+0xeb9860>
    152c:	00001301 	andeq	r1, r0, r1, lsl #6
    1530:	03000d10 	movweq	r0, #3344	; 0xd10
    1534:	3b0b3a08 	blcc	2cfd5c <__bss_end__+0x2c53a4>
    1538:	3813490b 	ldmdacc	r3, {r0, r1, r3, r8, fp, lr}
    153c:	1100000b 	tstne	r0, fp
    1540:	0e030113 	mcreq	1, 0, r0, cr3, cr3, {0}
    1544:	0b3a050b 	bleq	e82978 <__bss_end__+0xe77fc0>
    1548:	13010b3b 	movwne	r0, #6971	; 0x1b3b
    154c:	0d120000 	ldceq	0, cr0, [r2, #-0]
    1550:	3a0e0300 	bcc	382158 <__bss_end__+0x3777a0>
    1554:	490b3b0b 	stmdbmi	fp, {r0, r1, r3, r8, r9, fp, ip, sp}
    1558:	00053813 	andeq	r3, r5, r3, lsl r8
    155c:	00151300 	andseq	r1, r5, r0, lsl #6
    1560:	00001927 	andeq	r1, r0, r7, lsr #18
    1564:	27011514 	smladcs	r1, r4, r5, r1
    1568:	01134919 	tsteq	r3, r9, lsl r9
    156c:	15000013 	strne	r0, [r0, #-19]
    1570:	13490005 	movtne	r0, #36869	; 0x9005
    1574:	13160000 	tstne	r6, #0
    1578:	0b0e0301 	bleq	382184 <__bss_end__+0x3777cc>
    157c:	3b0b3a05 	blcc	2cfd98 <__bss_end__+0x2c53e0>
    1580:	00130105 	andseq	r0, r3, r5, lsl #2
    1584:	000d1700 	andeq	r1, sp, r0, lsl #14
    1588:	0b3a0e03 	bleq	e84d9c <__bss_end__+0xe7a3e4>
    158c:	1349053b 	movtne	r0, #38203	; 0x953b
    1590:	00000b38 	andeq	r0, r0, r8, lsr fp
    1594:	03000d18 	movweq	r0, #3352	; 0xd18
    1598:	3b0b3a0e 	blcc	2cfdd8 <__bss_end__+0x2c5420>
    159c:	38134905 	ldmdacc	r3, {r0, r2, r8, fp, lr}
    15a0:	19000005 	stmdbne	r0, {r0, r2}
    15a4:	0e030113 	mcreq	1, 0, r0, cr3, cr3, {0}
    15a8:	0b3a0b0b 	bleq	e841dc <__bss_end__+0xe79824>
    15ac:	1301053b 	movwne	r0, #5435	; 0x153b
    15b0:	131a0000 	tstne	sl, #0
    15b4:	3a0b0b01 	bcc	2c41c0 <__bss_end__+0x2b9808>
    15b8:	01053b0b 	tsteq	r5, fp, lsl #22
    15bc:	1b000013 	blne	1610 <_start-0x69f0>
    15c0:	0b0b0117 	bleq	2c1a24 <__bss_end__+0x2b706c>
    15c4:	053b0b3a 	ldreq	r0, [fp, #-2874]!	; 0xb3a
    15c8:	00001301 	andeq	r1, r0, r1, lsl #6
    15cc:	03000d1c 	movweq	r0, #3356	; 0xd1c
    15d0:	3b0b3a0e 	blcc	2cfe10 <__bss_end__+0x2c5458>
    15d4:	00134905 	andseq	r4, r3, r5, lsl #18
    15d8:	01151d00 	tsteq	r5, r0, lsl #26
    15dc:	13011927 	movwne	r1, #6439	; 0x1927
    15e0:	341e0000 	ldrcc	r0, [lr], #-0
    15e4:	3a0e0300 	bcc	3821ec <__bss_end__+0x377834>
    15e8:	49053b0b 	stmdbmi	r5, {r0, r1, r3, r8, r9, fp, ip, sp}
    15ec:	3c193f13 	ldccc	15, cr3, [r9], {19}
    15f0:	1f000019 	svcne	0x00000019
    15f4:	0e030034 	mcreq	0, 0, r0, cr3, cr4, {1}
    15f8:	0b3b0b3a 	bleq	ec42e8 <__bss_end__+0xeb9930>
    15fc:	193f1349 	ldmdbne	pc!, {r0, r3, r6, r8, r9, ip}	; <UNPREDICTABLE>
    1600:	0000193c 	andeq	r1, r0, ip, lsr r9
    1604:	03003420 	movweq	r3, #1056	; 0x420
    1608:	3b0b3a0e 	blcc	2cfe48 <__bss_end__+0x2c5490>
    160c:	0213490b 	andseq	r4, r3, #180224	; 0x2c000
    1610:	21000018 	tstcs	r0, r8, lsl r0
    1614:	193f012e 	ldmdbne	pc!, {r1, r2, r3, r5, r8}	; <UNPREDICTABLE>
    1618:	0b3a0e03 	bleq	e84e2c <__bss_end__+0xe7a474>
    161c:	19270b3b 	stmdbne	r7!, {r0, r1, r3, r4, r5, r8, r9, fp}
    1620:	06120111 			; <UNDEFINED> instruction: 0x06120111
    1624:	42971840 	addsmi	r1, r7, #64, 16	; 0x400000
    1628:	00130119 	andseq	r0, r3, r9, lsl r1
    162c:	00052200 	andeq	r2, r5, r0, lsl #4
    1630:	0b3a0803 	bleq	e83644 <__bss_end__+0xe78c8c>
    1634:	13490b3b 	movtne	r0, #39739	; 0x9b3b
    1638:	00001802 	andeq	r1, r0, r2, lsl #16
    163c:	3f002e23 	svccc	0x00002e23
    1640:	3a0e0319 	bcc	3822ac <__bss_end__+0x3778f4>
    1644:	270b3b0b 	strcs	r3, [fp, -fp, lsl #22]
    1648:	12011119 	andne	r1, r1, #1073741830	; 0x40000006
    164c:	97184006 	ldrls	r4, [r8, -r6]
    1650:	00001942 	andeq	r1, r0, r2, asr #18
    1654:	3f012e24 	svccc	0x00012e24
    1658:	3a0e0319 	bcc	3822c4 <__bss_end__+0x37790c>
    165c:	270b3b0b 	strcs	r3, [fp, -fp, lsl #22]
    1660:	11134919 	tstne	r3, r9, lsl r9
    1664:	40061201 	andmi	r1, r6, r1, lsl #4
    1668:	19429718 	stmdbne	r2, {r3, r4, r8, r9, sl, ip, pc}^
    166c:	00001301 	andeq	r1, r0, r1, lsl #6
    1670:	03000525 	movweq	r0, #1317	; 0x525
    1674:	3b0b3a0e 	blcc	2cfeb4 <__bss_end__+0x2c54fc>
    1678:	0213490b 	andseq	r4, r3, #180224	; 0x2c000
    167c:	26000017 			; <UNDEFINED> instruction: 0x26000017
    1680:	0e030034 	mcreq	0, 0, r0, cr3, cr4, {1}
    1684:	19341349 	ldmdbne	r4!, {r0, r3, r6, r8, r9, ip}
    1688:	00001802 	andeq	r1, r0, r2, lsl #16
    168c:	03003427 	movweq	r3, #1063	; 0x427
    1690:	3b0b3a08 	blcc	2cfeb8 <__bss_end__+0x2c5500>
    1694:	0213490b 	andseq	r4, r3, #180224	; 0x2c000
    1698:	28000017 	stmdacs	r0, {r0, r1, r2, r4}
    169c:	01018289 	smlabbeq	r1, r9, r2, r8
    16a0:	13310111 	teqne	r1, #1073741828	; 0x40000004
    16a4:	00001301 	andeq	r1, r0, r1, lsl #6
    16a8:	01828a29 	orreq	r8, r2, r9, lsr #20
    16ac:	91180200 	tstls	r8, r0, lsl #4
    16b0:	00001842 	andeq	r1, r0, r2, asr #16
    16b4:	0182892a 	orreq	r8, r2, sl, lsr #18
    16b8:	31011100 	mrscc	r1, (UNDEF: 17)
    16bc:	2b000013 	blcs	1710 <_start-0x68f0>
    16c0:	08030005 	stmdaeq	r3, {r0, r2}
    16c4:	0b3b0b3a 	bleq	ec43b4 <__bss_end__+0xeb99fc>
    16c8:	17021349 	strne	r1, [r2, -r9, asr #6]
    16cc:	342c0000 	strtcc	r0, [ip], #-0
    16d0:	3a0e0300 	bcc	3822d8 <__bss_end__+0x377920>
    16d4:	490b3b0b 	stmdbmi	fp, {r0, r1, r3, r8, r9, fp, ip, sp}
    16d8:	00170213 	andseq	r0, r7, r3, lsl r2
    16dc:	002e2d00 	eoreq	r2, lr, r0, lsl #26
    16e0:	0e03193f 	mcreq	9, 0, r1, cr3, cr15, {1}
    16e4:	0b3b0b3a 	bleq	ec43d4 <__bss_end__+0xeb9a1c>
    16e8:	13491927 	movtne	r1, #39207	; 0x9927
    16ec:	06120111 			; <UNDEFINED> instruction: 0x06120111
    16f0:	42971840 	addsmi	r1, r7, #64, 16	; 0x400000
    16f4:	2e000019 	mcrcs	0, 0, r0, cr0, cr9, {0}
    16f8:	193f002e 	ldmdbne	pc!, {r1, r2, r3, r5}	; <UNPREDICTABLE>
    16fc:	0e6e193c 	mcreq	9, 3, r1, cr14, cr12, {1}
    1700:	0b3a0e03 	bleq	e84f14 <__bss_end__+0xe7a55c>
    1704:	00000b3b 	andeq	r0, r0, fp, lsr fp
	...

Disassembly of section .debug_loc:

00000000 <.debug_loc>:
       0:	00000004 	andeq	r0, r0, r4
       4:	00000024 	andeq	r0, r0, r4, lsr #32
       8:	9f300002 	svcls	0x00300002
       c:	00000024 	andeq	r0, r0, r4, lsr #32
      10:	00000050 	andeq	r0, r0, r0, asr r0
      14:	50560001 	subspl	r0, r6, r1
      18:	58000000 	stmdapl	r0, {}	; <UNPREDICTABLE>
      1c:	01000000 	mrseq	r0, (UNDEF: 0)
      20:	00585400 	subseq	r5, r8, r0, lsl #8
      24:	00740000 	rsbseq	r0, r4, r0
      28:	00010000 	andeq	r0, r1, r0
      2c:	00000056 	andeq	r0, r0, r6, asr r0
      30:	00000000 	andeq	r0, r0, r0
      34:	00000400 	andeq	r0, r0, r0, lsl #8
      38:	00002400 	andeq	r2, r0, r0, lsl #8
      3c:	30000200 	andcc	r0, r0, r0, lsl #4
      40:	0000249f 	muleq	r0, pc, r4	; <UNPREDICTABLE>
      44:	00007400 	andeq	r7, r0, r0, lsl #8
      48:	55000100 	strpl	r0, [r0, #-256]	; 0x100
	...
      54:	0000003c 	andeq	r0, r0, ip, lsr r0
      58:	00000047 	andeq	r0, r0, r7, asr #32
      5c:	47500001 	ldrbmi	r0, [r0, -r1]
      60:	58000000 	stmdapl	r0, {}	; <UNPREDICTABLE>
      64:	01000000 	mrseq	r0, (UNDEF: 0)
      68:	00005400 	andeq	r5, r0, r0, lsl #8
	...
      74:	00280000 	eoreq	r0, r8, r0
      78:	00010000 	andeq	r0, r1, r0
      7c:	00002850 	andeq	r2, r0, r0, asr r8
      80:	0000bc00 	andeq	fp, r0, r0, lsl #24
      84:	f3000400 	vshl.u8	d0, d0, d0
      88:	bc9f5001 	ldclt	0, cr5, [pc], {1}
      8c:	cc000000 	stcgt	0, cr0, [r0], {-0}
      90:	01000000 	mrseq	r0, (UNDEF: 0)
      94:	00cc5000 	sbceq	r5, ip, r0
      98:	00f80000 	rscseq	r0, r8, r0
      9c:	00040000 	andeq	r0, r4, r0
      a0:	9f5001f3 	svcls	0x005001f3
	...
      b0:	0000002b 	andeq	r0, r0, fp, lsr #32
      b4:	2b510001 	blcs	14400c0 <__bss_end__+0x1435708>
      b8:	bc000000 	stclt	0, cr0, [r0], {-0}
      bc:	04000000 	streq	r0, [r0], #-0
      c0:	5101f300 	mrspl	pc, SP_irq	; <UNPREDICTABLE>
      c4:	0000bc9f 	muleq	r0, pc, ip	; <UNPREDICTABLE>
      c8:	0000d000 	andeq	sp, r0, r0
      cc:	51000100 	mrspl	r0, (UNDEF: 16)
      d0:	000000d0 	ldrdeq	r0, [r0], -r0	; <UNPREDICTABLE>
      d4:	000000f8 	strdeq	r0, [r0], -r8
      d8:	01f30004 	mvnseq	r0, r4
      dc:	00009f51 	andeq	r9, r0, r1, asr pc
	...
      e8:	002b0000 	eoreq	r0, fp, r0
      ec:	00010000 	andeq	r0, r1, r0
      f0:	00002b52 	andeq	r2, r0, r2, asr fp
      f4:	0000bc00 	andeq	fp, r0, r0, lsl #24
      f8:	56000100 	strpl	r0, [r0], -r0, lsl #2
      fc:	000000bc 	strheq	r0, [r0], -ip
     100:	000000d0 	ldrdeq	r0, [r0], -r0	; <UNPREDICTABLE>
     104:	d0520001 	subsle	r0, r2, r1
     108:	f8000000 			; <UNDEFINED> instruction: 0xf8000000
     10c:	01000000 	mrseq	r0, (UNDEF: 0)
     110:	00005600 	andeq	r5, r0, r0, lsl #12
	...
     11c:	002b0000 	eoreq	r0, fp, r0
     120:	00010000 	andeq	r0, r1, r0
     124:	00002b53 	andeq	r2, r0, r3, asr fp
     128:	0000bc00 	andeq	fp, r0, r0, lsl #24
     12c:	55000100 	strpl	r0, [r0, #-256]	; 0x100
     130:	000000bc 	strheq	r0, [r0], -ip
     134:	000000d0 	ldrdeq	r0, [r0], -r0	; <UNPREDICTABLE>
     138:	d0530001 	subsle	r0, r3, r1
     13c:	f8000000 			; <UNDEFINED> instruction: 0xf8000000
     140:	01000000 	mrseq	r0, (UNDEF: 0)
     144:	00005500 	andeq	r5, r0, r0, lsl #10
     148:	00000000 	andeq	r0, r0, r0
     14c:	000c0000 	andeq	r0, ip, r0
     150:	00140000 	andseq	r0, r4, r0
     154:	00020000 	andeq	r0, r2, r0
     158:	00149f30 	andseq	r9, r4, r0, lsr pc
     15c:	00f80000 	rscseq	r0, r8, r0
     160:	00010000 	andeq	r0, r1, r0
     164:	00000054 	andeq	r0, r0, r4, asr r0
     168:	00000000 	andeq	r0, r0, r0
     16c:	00004400 	andeq	r4, r0, r0, lsl #8
     170:	0000bc00 	andeq	fp, r0, r0, lsl #24
     174:	55000100 	strpl	r0, [r0, #-256]	; 0x100
     178:	000000d0 	ldrdeq	r0, [r0], -r0	; <UNPREDICTABLE>
     17c:	000000f8 	strdeq	r0, [r0], -r8
     180:	00550001 	subseq	r0, r5, r1
     184:	00000000 	andeq	r0, r0, r0
     188:	58000000 	stmdapl	r0, {}	; <UNPREDICTABLE>
     18c:	80000000 	andhi	r0, r0, r0
     190:	03000000 	movweq	r0, #0
     194:	9f107500 	svcls	0x00107500
     198:	00000080 	andeq	r0, r0, r0, lsl #1
     19c:	000000bc 	strheq	r0, [r0], -ip
     1a0:	1c750003 	ldclne	0, cr0, [r5], #-12
     1a4:	0000d09f 	muleq	r0, pc, r0	; <UNPREDICTABLE>
     1a8:	0000f800 	andeq	pc, r0, r0, lsl #16
     1ac:	75000300 	strvc	r0, [r0, #-768]	; 0x300
     1b0:	00009f1c 	andeq	r9, r0, ip, lsl pc
     1b4:	00000000 	andeq	r0, r0, r0
     1b8:	00f80000 	rscseq	r0, r8, r0
     1bc:	01070000 	mrseq	r0, (UNDEF: 7)
     1c0:	00010000 	andeq	r0, r1, r0
     1c4:	00010750 	andeq	r0, r1, r0, asr r7
     1c8:	00010c00 	andeq	r0, r1, r0, lsl #24
     1cc:	f3000400 	vshl.u8	d0, d0, d0
     1d0:	009f5001 	addseq	r5, pc, r1
     1d4:	00000000 	andeq	r0, r0, r0
     1d8:	f8000000 			; <UNDEFINED> instruction: 0xf8000000
     1dc:	04000000 	streq	r0, [r0], #-0
     1e0:	01000001 	tsteq	r0, r1
     1e4:	01045100 	mrseq	r5, (UNDEF: 20)
     1e8:	01070000 	mrseq	r0, (UNDEF: 7)
     1ec:	00010000 	andeq	r0, r1, r0
     1f0:	00010752 	andeq	r0, r1, r2, asr r7
     1f4:	00010c00 	andeq	r0, r1, r0, lsl #24
     1f8:	f3000400 	vshl.u8	d0, d0, d0
     1fc:	009f5101 	addseq	r5, pc, r1, lsl #2
     200:	00000000 	andeq	r0, r0, r0
     204:	0c000000 	stceq	0, cr0, [r0], {-0}
     208:	3f000001 	svccc	0x00000001
     20c:	01000001 	tsteq	r0, r1
     210:	013f5000 	teqeq	pc, r0
     214:	01540000 	cmpeq	r4, r0
     218:	00010000 	andeq	r0, r1, r0
     21c:	00000054 	andeq	r0, r0, r4, asr r0
     220:	00000000 	andeq	r0, r0, r0
     224:	00015400 	andeq	r5, r1, r0, lsl #8
     228:	00015f00 	andeq	r5, r1, r0, lsl #30
     22c:	50000100 	andpl	r0, r0, r0, lsl #2
     230:	0000015f 	andeq	r0, r0, pc, asr r1
     234:	00000194 	muleq	r0, r4, r1
     238:	00540001 	subseq	r0, r4, r1
     23c:	00000000 	andeq	r0, r0, r0
     240:	94000000 	strls	r0, [r0], #-0
     244:	9f000001 	svcls	0x00000001
     248:	01000001 	tsteq	r0, r1
     24c:	019f5000 	orrseq	r5, pc, r0
     250:	02080000 	andeq	r0, r8, #0
     254:	00010000 	andeq	r0, r1, r0
     258:	00000054 	andeq	r0, r0, r4, asr r0
     25c:	00000000 	andeq	r0, r0, r0
     260:	0001c400 	andeq	ip, r1, r0, lsl #8
     264:	0001f000 	andeq	pc, r1, r0
     268:	54000100 	strpl	r0, [r0], #-256	; 0x100
     26c:	00000200 	andeq	r0, r0, r0, lsl #4
     270:	00000208 	andeq	r0, r0, r8, lsl #4
     274:	00540001 	subseq	r0, r4, r1
     278:	00000000 	andeq	r0, r0, r0
     27c:	cc000000 	stcgt	0, cr0, [r0], {-0}
     280:	f0000001 			; <UNDEFINED> instruction: 0xf0000001
     284:	01000001 	tsteq	r0, r1
     288:	02005400 	andeq	r5, r0, #0, 8
     28c:	02080000 	andeq	r0, r8, #0
     290:	00010000 	andeq	r0, r1, r0
     294:	00000054 	andeq	r0, r0, r4, asr r0
     298:	00000000 	andeq	r0, r0, r0
     29c:	00020800 	andeq	r0, r2, r0, lsl #16
     2a0:	00021f00 	andeq	r1, r2, r0, lsl #30
     2a4:	50000100 	andpl	r0, r0, r0, lsl #2
     2a8:	0000021f 	andeq	r0, r0, pc, lsl r2
     2ac:	00000238 	andeq	r0, r0, r8, lsr r2
     2b0:	38540001 	ldmdacc	r4, {r0}^
     2b4:	3c000002 	stccc	0, cr0, [r0], {2}
     2b8:	01000002 	tsteq	r0, r2
     2bc:	023c5000 	eorseq	r5, ip, #0
     2c0:	02880000 	addeq	r0, r8, #0
     2c4:	00010000 	andeq	r0, r1, r0
     2c8:	00000054 	andeq	r0, r0, r4, asr r0
     2cc:	00000000 	andeq	r0, r0, r0
     2d0:	00020800 	andeq	r0, r2, r0, lsl #16
     2d4:	00021f00 	andeq	r1, r2, r0, lsl #30
     2d8:	51000100 	mrspl	r0, (UNDEF: 16)
     2dc:	0000021f 	andeq	r0, r0, pc, lsl r2
     2e0:	00000238 	andeq	r0, r0, r8, lsr r2
     2e4:	38550001 	ldmdacc	r5, {r0}^
     2e8:	40000002 	andmi	r0, r0, r2
     2ec:	01000002 	tsteq	r0, r2
     2f0:	02405100 	subeq	r5, r0, #0, 2
     2f4:	02580000 	subseq	r0, r8, #0
     2f8:	00010000 	andeq	r0, r1, r0
     2fc:	00025855 	andeq	r5, r2, r5, asr r8
     300:	00028800 	andeq	r8, r2, r0, lsl #16
     304:	f3000400 	vshl.u8	d0, d0, d0
     308:	009f5101 	addseq	r5, pc, r1, lsl #2
     30c:	00000000 	andeq	r0, r0, r0
     310:	88000000 	stmdahi	r0, {}	; <UNPREDICTABLE>
     314:	a0000002 	andge	r0, r0, r2
     318:	01000002 	tsteq	r0, r2
     31c:	02a05000 	adceq	r5, r0, #0
     320:	03780000 	cmneq	r8, #0
     324:	00010000 	andeq	r0, r1, r0
     328:	00000054 	andeq	r0, r0, r4, asr r0
     32c:	00000000 	andeq	r0, r0, r0
     330:	00028800 	andeq	r8, r2, r0, lsl #16
     334:	0002af00 	andeq	sl, r2, r0, lsl #30
     338:	51000100 	mrspl	r0, (UNDEF: 16)
     33c:	000002af 	andeq	r0, r0, pc, lsr #5
     340:	000002c8 	andeq	r0, r0, r8, asr #5
     344:	c8580001 	ldmdagt	r8, {r0}^
     348:	cf000002 	svcgt	0x00000002
     34c:	01000002 	tsteq	r0, r2
     350:	02cf5100 	sbceq	r5, pc, #0, 2
     354:	03780000 	cmneq	r8, #0
     358:	00010000 	andeq	r0, r1, r0
     35c:	00000058 	andeq	r0, r0, r8, asr r0
     360:	00000000 	andeq	r0, r0, r0
     364:	00028800 	andeq	r8, r2, r0, lsl #16
     368:	0002af00 	andeq	sl, r2, r0, lsl #30
     36c:	52000100 	andpl	r0, r0, #0, 2
     370:	000002af 	andeq	r0, r0, pc, lsr #5
     374:	000002c8 	andeq	r0, r0, r8, asr #5
     378:	c8570001 	ldmdagt	r7, {r0}^
     37c:	cf000002 	svcgt	0x00000002
     380:	01000002 	tsteq	r0, r2
     384:	02cf5200 	sbceq	r5, pc, #0, 4
     388:	03780000 	cmneq	r8, #0
     38c:	00010000 	andeq	r0, r1, r0
     390:	00000057 	andeq	r0, r0, r7, asr r0
     394:	00000000 	andeq	r0, r0, r0
     398:	00028800 	andeq	r8, r2, r0, lsl #16
     39c:	0002af00 	andeq	sl, r2, r0, lsl #30
     3a0:	53000100 	movwpl	r0, #256	; 0x100
     3a4:	000002af 	andeq	r0, r0, pc, lsr #5
     3a8:	000002c8 	andeq	r0, r0, r8, asr #5
     3ac:	c8560001 	ldmdagt	r6, {r0}^
     3b0:	cf000002 	svcgt	0x00000002
     3b4:	01000002 	tsteq	r0, r2
     3b8:	02cf5300 	sbceq	r5, pc, #0, 6
     3bc:	03780000 	cmneq	r8, #0
     3c0:	00010000 	andeq	r0, r1, r0
     3c4:	00000056 	andeq	r0, r0, r6, asr r0
     3c8:	00000000 	andeq	r0, r0, r0
     3cc:	00029c00 	andeq	r9, r2, r0, lsl #24
     3d0:	0002e000 	andeq	lr, r2, r0
     3d4:	30000200 	andcc	r0, r0, r0, lsl #4
     3d8:	0000009f 	muleq	r0, pc, r0	; <UNPREDICTABLE>
     3dc:	00000000 	andeq	r0, r0, r0
     3e0:	00037800 	andeq	r7, r3, r0, lsl #16
     3e4:	0003a300 	andeq	sl, r3, r0, lsl #6
     3e8:	50000100 	andpl	r0, r0, r0, lsl #2
     3ec:	000003a3 	andeq	r0, r0, r3, lsr #7
     3f0:	000003bc 			; <UNDEFINED> instruction: 0x000003bc
     3f4:	bc550001 	mrrclt	0, 0, r0, r5, cr1
     3f8:	c0000003 	andgt	r0, r0, r3
     3fc:	01000003 	tsteq	r0, r3
     400:	03c05000 	biceq	r5, r0, #0
     404:	056c0000 	strbeq	r0, [ip, #-0]!
     408:	00010000 	andeq	r0, r1, r0
     40c:	00056c55 	andeq	r6, r5, r5, asr ip
     410:	0005a400 	andeq	sl, r5, r0, lsl #8
     414:	f3000400 	vshl.u8	d0, d0, d0
     418:	009f5001 	addseq	r5, pc, r1
     41c:	00000000 	andeq	r0, r0, r0
     420:	78000000 	stmdavc	r0, {}	; <UNPREDICTABLE>
     424:	a3000003 	movwge	r0, #3
     428:	01000003 	tsteq	r0, r3
     42c:	03a35100 			; <UNDEFINED> instruction: 0x03a35100
     430:	03bc0000 			; <UNDEFINED> instruction: 0x03bc0000
     434:	00010000 	andeq	r0, r1, r0
     438:	0003bc59 	andeq	fp, r3, r9, asr ip
     43c:	0003c300 	andeq	ip, r3, r0, lsl #6
     440:	51000100 	mrspl	r0, (UNDEF: 16)
     444:	000003c3 	andeq	r0, r0, r3, asr #7
     448:	0000056c 	andeq	r0, r0, ip, ror #10
     44c:	6c590001 	mrrcvs	0, 0, r0, r9, cr1
     450:	a4000005 	strge	r0, [r0], #-5
     454:	04000005 	streq	r0, [r0], #-5
     458:	5101f300 	mrspl	pc, SP_irq	; <UNPREDICTABLE>
     45c:	0000009f 	muleq	r0, pc, r0	; <UNPREDICTABLE>
     460:	00000000 	andeq	r0, r0, r0
     464:	00037800 	andeq	r7, r3, r0, lsl #16
     468:	0003a300 	andeq	sl, r3, r0, lsl #6
     46c:	52000100 	andpl	r0, r0, #0, 2
     470:	000003a3 	andeq	r0, r0, r3, lsr #7
     474:	000003bc 			; <UNDEFINED> instruction: 0x000003bc
     478:	bc580001 	mrrclt	0, 0, r0, r8, cr1
     47c:	c3000003 	movwgt	r0, #3
     480:	01000003 	tsteq	r0, r3
     484:	03c35200 	biceq	r5, r3, #0, 4
     488:	056c0000 	strbeq	r0, [ip, #-0]!
     48c:	00010000 	andeq	r0, r1, r0
     490:	00056c58 	andeq	r6, r5, r8, asr ip
     494:	0005a400 	andeq	sl, r5, r0, lsl #8
     498:	f3000400 	vshl.u8	d0, d0, d0
     49c:	009f5201 	addseq	r5, pc, r1, lsl #4
     4a0:	00000000 	andeq	r0, r0, r0
     4a4:	78000000 	stmdavc	r0, {}	; <UNPREDICTABLE>
     4a8:	94000003 	strls	r0, [r0], #-3
     4ac:	01000003 	tsteq	r0, r3
     4b0:	03945300 	orrseq	r5, r4, #0, 6
     4b4:	04d80000 	ldrbeq	r0, [r8], #0
     4b8:	00010000 	andeq	r0, r1, r0
     4bc:	0004d857 	andeq	sp, r4, r7, asr r8
     4c0:	0005a400 	andeq	sl, r5, r0, lsl #8
     4c4:	f3000400 	vshl.u8	d0, d0, d0
     4c8:	009f5301 	addseq	r5, pc, r1, lsl #6
     4cc:	00000000 	andeq	r0, r0, r0
     4d0:	90000000 	andls	r0, r0, r0
     4d4:	84000003 	strhi	r0, [r0], #-3
     4d8:	02000004 	andeq	r0, r0, #4
     4dc:	849f3000 	ldrhi	r3, [pc], #0	; 4e4 <_start-0x7b1c>
     4e0:	6c000004 	stcvs	0, cr0, [r0], {4}
     4e4:	01000005 	tsteq	r0, r5
     4e8:	056c5400 	strbeq	r5, [ip, #-1024]!	; 0x400
     4ec:	05a40000 	streq	r0, [r4, #0]!
     4f0:	00040000 	andeq	r0, r4, r0
     4f4:	9f7ec870 	svcls	0x007ec870
	...
     500:	00000390 	muleq	r0, r0, r3
     504:	000004d8 	ldrdeq	r0, [r0], -r8
     508:	9f300002 	svcls	0x00300002
	...
     514:	000003d8 	ldrdeq	r0, [r0], -r8
     518:	000003eb 	andeq	r0, r0, fp, ror #7
     51c:	eb520001 	bl	1480528 <__bss_end__+0x1475b70>
     520:	18000003 	stmdane	r0, {r0, r1}
     524:	04000004 	streq	r0, [r0], #-4
     528:	7dc87600 	stclvc	6, cr7, [r8]
     52c:	0004189f 	muleq	r4, pc, r8	; <UNPREDICTABLE>
     530:	00043700 	andeq	r3, r4, r0, lsl #14
     534:	52000100 	andpl	r0, r0, #0, 2
     538:	00000437 	andeq	r0, r0, r7, lsr r4
     53c:	00000484 	andeq	r0, r0, r4, lsl #9
     540:	c8760004 	ldmdagt	r6!, {r2}^
     544:	04849f7d 	streq	r9, [r4], #3965	; 0xf7d
     548:	04a40000 	strteq	r0, [r4], #0
     54c:	00010000 	andeq	r0, r1, r0
     550:	0004a452 	andeq	sl, r4, r2, asr r4
     554:	00056c00 	andeq	r6, r5, r0, lsl #24
     558:	76000400 	strvc	r0, [r0], -r0, lsl #8
     55c:	6c9f7dc8 	ldcvs	13, cr7, [pc], {200}	; 0xc8
     560:	a4000005 	strge	r0, [r0], #-5
     564:	09000005 	stmdbeq	r0, {r0, r2}
     568:	5001f300 	andpl	pc, r1, r0, lsl #6
     56c:	f8090723 			; <UNDEFINED> instruction: 0xf8090723
     570:	00009f1a 	andeq	r9, r0, sl, lsl pc
     574:	00000000 	andeq	r0, r0, r0
     578:	03dc0000 	bicseq	r0, ip, #0
     57c:	056c0000 	strbeq	r0, [ip, #-0]!
     580:	00010000 	andeq	r0, r1, r0
     584:	00056c56 	andeq	r6, r5, r6, asr ip
     588:	0005a400 	andeq	sl, r5, r0, lsl #8
     58c:	f3000c00 			; <UNDEFINED> instruction: 0xf3000c00
     590:	07235001 	streq	r5, [r3, -r1]!
     594:	231af809 	tstcs	sl, #589824	; 0x90000
     598:	009f02b8 			; <UNDEFINED> instruction: 0x009f02b8
     59c:	00000000 	andeq	r0, r0, r0
     5a0:	d8000000 	stmdale	r0, {}	; <UNPREDICTABLE>
     5a4:	6c000004 	stcvs	0, cr0, [r0], {4}
     5a8:	01000005 	tsteq	r0, r5
     5ac:	056c5400 	strbeq	r5, [ip, #-1024]!	; 0x400
     5b0:	05a40000 	streq	r0, [r4, #0]!
     5b4:	00040000 	andeq	r0, r4, r0
     5b8:	9f7ec870 	svcls	0x007ec870
	...
     5c4:	000004dc 	ldrdeq	r0, [r0], -ip
     5c8:	0000056c 	andeq	r0, r0, ip, ror #10
     5cc:	6c540001 	mrrcvs	0, 0, r0, r4, cr1
     5d0:	a4000005 	strge	r0, [r0], #-5
     5d4:	04000005 	streq	r0, [r0], #-5
     5d8:	7ec87000 	cdpvc	0, 12, cr7, cr8, cr0, {0}
     5dc:	0000009f 	muleq	r0, pc, r0	; <UNPREDICTABLE>
     5e0:	00000000 	andeq	r0, r0, r0
     5e4:	0005a400 	andeq	sl, r5, r0, lsl #8
     5e8:	0005bc00 	andeq	fp, r5, r0, lsl #24
     5ec:	50000100 	andpl	r0, r0, r0, lsl #2
     5f0:	000005bc 			; <UNDEFINED> instruction: 0x000005bc
     5f4:	000005c7 	andeq	r0, r0, r7, asr #11
     5f8:	c7530001 	ldrbgt	r0, [r3, -r1]
     5fc:	cc000005 	stcgt	0, cr0, [r0], {5}
     600:	04000005 	streq	r0, [r0], #-5
     604:	5001f300 	andpl	pc, r1, r0, lsl #6
     608:	0005cc9f 	muleq	r5, pc, ip	; <UNPREDICTABLE>
     60c:	0005d000 	andeq	sp, r5, r0
     610:	50000100 	andpl	r0, r0, r0, lsl #2
     614:	000005d0 	ldrdeq	r0, [r0], -r0	; <UNPREDICTABLE>
     618:	000005d4 	ldrdeq	r0, [r0], -r4
     61c:	00530001 	subseq	r0, r3, r1
     620:	00000000 	andeq	r0, r0, r0
     624:	e8000000 	stmda	r0, {}	; <UNPREDICTABLE>
     628:	14000005 	strne	r0, [r0], #-5
     62c:	01000006 	tsteq	r0, r6
     630:	00005600 	andeq	r5, r0, r0, lsl #12
     634:	00000000 	andeq	r0, r0, r0
     638:	05f00000 	ldrbeq	r0, [r0, #0]!
     63c:	06100000 	ldreq	r0, [r0], -r0
     640:	00010000 	andeq	r0, r1, r0
     644:	00000055 	andeq	r0, r0, r5, asr r0
     648:	00000000 	andeq	r0, r0, r0
     64c:	00060800 	andeq	r0, r6, r0, lsl #16
     650:	00062800 	andeq	r2, r6, r0, lsl #16
     654:	30000200 	andcc	r0, r0, r0, lsl #4
     658:	0006289f 	muleq	r6, pc, r8	; <UNPREDICTABLE>
     65c:	00070c00 	andeq	r0, r7, r0, lsl #24
     660:	56000100 	strpl	r0, [r0], -r0, lsl #2
	...
     66c:	00000608 	andeq	r0, r0, r8, lsl #12
     670:	00000628 	andeq	r0, r0, r8, lsr #12
     674:	9f300002 	svcls	0x00300002
     678:	00000628 	andeq	r0, r0, r8, lsr #12
     67c:	0000070c 	andeq	r0, r0, ip, lsl #14
     680:	00550001 	subseq	r0, r5, r1
     684:	00000000 	andeq	r0, r0, r0
     688:	28000000 	stmdacs	r0, {}	; <UNPREDICTABLE>
     68c:	a0000006 	andge	r0, r0, r6
     690:	01000006 	tsteq	r0, r6
     694:	00005400 	andeq	r5, r0, r0, lsl #8
     698:	00000000 	andeq	r0, r0, r0
     69c:	072c0000 	streq	r0, [ip, -r0]!
     6a0:	07580000 	ldrbeq	r0, [r8, -r0]
     6a4:	00010000 	andeq	r0, r1, r0
     6a8:	00075850 	andeq	r5, r7, r0, asr r8
     6ac:	00076400 	andeq	r6, r7, r0, lsl #8
     6b0:	f3000400 	vshl.u8	d0, d0, d0
     6b4:	649f5001 	ldrvs	r5, [pc], #1	; 6bc <_start-0x7944>
     6b8:	68000007 	stmdavs	r0, {r0, r1, r2}
     6bc:	01000007 	tsteq	r0, r7
     6c0:	07685000 	strbeq	r5, [r8, -r0]!
     6c4:	07700000 	ldrbeq	r0, [r0, -r0]!
     6c8:	00040000 	andeq	r0, r4, r0
     6cc:	9f5001f3 	svcls	0x005001f3
	...
     6d8:	00000730 	andeq	r0, r0, r0, lsr r7
     6dc:	0000073c 	andeq	r0, r0, ip, lsr r7
     6e0:	9f300002 	svcls	0x00300002
     6e4:	0000073c 	andeq	r0, r0, ip, lsr r7
     6e8:	00000744 	andeq	r0, r0, r4, asr #14
     6ec:	44540001 	ldrbmi	r0, [r4], #-1
     6f0:	58000007 	stmdapl	r0, {r0, r1, r2}
     6f4:	0c000007 	stceq	0, cr0, [r0], {7}
     6f8:	06007000 	streq	r7, [r0], -r0
     6fc:	f8090723 			; <UNDEFINED> instruction: 0xf8090723
     700:	02b8231a 	adcseq	r2, r8, #1744830464	; 0x68000000
     704:	0007589f 	muleq	r7, pc, r8	; <UNPREDICTABLE>
     708:	00075b00 	andeq	r5, r7, r0, lsl #22
     70c:	f3000d00 	vpadd.f32	d0, d0, d0
     710:	23065001 	movwcs	r5, #24577	; 0x6001
     714:	1af80907 	bne	ffe02b38 <__bss_end__+0xffdf8180>
     718:	9f02b823 	svcls	0x0002b823
     71c:	00000764 	andeq	r0, r0, r4, ror #14
     720:	00000768 	andeq	r0, r0, r8, ror #14
     724:	0070000c 	rsbseq	r0, r0, ip
     728:	09072306 	stmdbeq	r7, {r1, r2, r8, r9, sp}
     72c:	b8231af8 	stmdalt	r3!, {r3, r4, r5, r6, r7, r9, fp, ip}
     730:	07689f02 	strbeq	r9, [r8, -r2, lsl #30]!
     734:	07700000 	ldrbeq	r0, [r0, -r0]!
     738:	000d0000 	andeq	r0, sp, r0
     73c:	065001f3 			; <UNDEFINED> instruction: 0x065001f3
     740:	f8090723 			; <UNDEFINED> instruction: 0xf8090723
     744:	02b8231a 	adcseq	r2, r8, #1744830464	; 0x68000000
     748:	0000009f 	muleq	r0, pc, r0	; <UNPREDICTABLE>
	...
     754:	00002400 	andeq	r2, r0, r0, lsl #8
     758:	50000100 	andpl	r0, r0, r0, lsl #2
     75c:	00000024 	andeq	r0, r0, r4, lsr #32
     760:	00000028 	andeq	r0, r0, r8, lsr #32
     764:	01f30004 	mvnseq	r0, r4
     768:	00289f50 	eoreq	r9, r8, r0, asr pc
     76c:	002c0000 	eoreq	r0, ip, r0
     770:	00010000 	andeq	r0, r1, r0
     774:	00002c50 	andeq	r2, r0, r0, asr ip
     778:	00003000 	andeq	r3, r0, r0
     77c:	f3000400 	vshl.u8	d0, d0, d0
     780:	309f5001 	addscc	r5, pc, r1
     784:	34000000 	strcc	r0, [r0], #-0
     788:	01000000 	mrseq	r0, (UNDEF: 0)
     78c:	00345000 	eorseq	r5, r4, r0
     790:	003c0000 	eorseq	r0, ip, r0
     794:	00040000 	andeq	r0, r4, r0
     798:	9f5001f3 	svcls	0x005001f3
	...
     7a4:	0000003c 	andeq	r0, r0, ip, lsr r0
     7a8:	00000047 	andeq	r0, r0, r7, asr #32
     7ac:	47500001 	ldrbmi	r0, [r0, -r1]
     7b0:	b4000000 	strlt	r0, [r0], #-0
     7b4:	01000000 	mrseq	r0, (UNDEF: 0)
     7b8:	00005400 	andeq	r5, r0, r0, lsl #8
     7bc:	00000000 	andeq	r0, r0, r0
     7c0:	00440000 	subeq	r0, r4, r0
     7c4:	00470000 	subeq	r0, r7, r0
     7c8:	00010000 	andeq	r0, r1, r0
     7cc:	00004750 	andeq	r4, r0, r0, asr r7
     7d0:	0000b400 	andeq	fp, r0, r0, lsl #8
     7d4:	54000100 	strpl	r0, [r0], #-256	; 0x100
	...
     7e0:	00000054 	andeq	r0, r0, r4, asr r0
     7e4:	0000009f 	muleq	r0, pc, r0	; <UNPREDICTABLE>
     7e8:	a0500001 	subsge	r0, r0, r1
     7ec:	ac000000 	stcge	0, cr0, [r0], {-0}
     7f0:	01000000 	mrseq	r0, (UNDEF: 0)
     7f4:	00005000 	andeq	r5, r0, r0
     7f8:	00000000 	andeq	r0, r0, r0
     7fc:	00b40000 	adcseq	r0, r4, r0
     800:	00c00000 	sbceq	r0, r0, r0
     804:	00010000 	andeq	r0, r1, r0
     808:	0000c050 	andeq	ip, r0, r0, asr r0
     80c:	0001e800 	andeq	lr, r1, r0, lsl #16
     810:	59000100 	stmdbpl	r0, {r8}
	...
     81c:	000000bc 	strheq	r0, [r0], -ip
     820:	000000f0 	strdeq	r0, [r0], -r0	; <UNPREDICTABLE>
     824:	9f300002 	svcls	0x00300002
     828:	000000f0 	strdeq	r0, [r0], -r0	; <UNPREDICTABLE>
     82c:	000001e8 	andeq	r0, r0, r8, ror #3
     830:	00550001 	subseq	r0, r5, r1
     834:	00000000 	andeq	r0, r0, r0
     838:	bc000000 	stclt	0, cr0, [r0], {-0}
     83c:	f0000000 			; <UNDEFINED> instruction: 0xf0000000
     840:	02000000 	andeq	r0, r0, #0
     844:	f09f3000 			; <UNDEFINED> instruction: 0xf09f3000
     848:	e8000000 	stmda	r0, {}	; <UNPREDICTABLE>
     84c:	01000001 	tsteq	r0, r1
     850:	00005700 	andeq	r5, r0, r0, lsl #14
     854:	00000000 	andeq	r0, r0, r0
     858:	00bc0000 	adcseq	r0, ip, r0
     85c:	00f00000 	rscseq	r0, r0, r0
     860:	00020000 	andeq	r0, r2, r0
     864:	00f09f30 	rscseq	r9, r0, r0, lsr pc
     868:	01e80000 	mvneq	r0, r0
     86c:	00010000 	andeq	r0, r1, r0
     870:	00000056 	andeq	r0, r0, r6, asr r0
     874:	00000000 	andeq	r0, r0, r0
     878:	0000d400 	andeq	sp, r0, r0, lsl #8
     87c:	00010c00 	andeq	r0, r1, r0, lsl #24
     880:	50000100 	andpl	r0, r0, r0, lsl #2
     884:	0000010c 	andeq	r0, r0, ip, lsl #2
     888:	00000124 	andeq	r0, r0, r4, lsr #2
     88c:	24540001 	ldrbcs	r0, [r4], #-1
     890:	40000001 	andmi	r0, r0, r1
     894:	01000001 	tsteq	r0, r1
     898:	01405000 	mrseq	r5, (UNDEF: 64)
     89c:	01640000 	cmneq	r4, r0
     8a0:	00010000 	andeq	r0, r1, r0
     8a4:	00016454 	andeq	r6, r1, r4, asr r4
     8a8:	00017000 	andeq	r7, r1, r0
     8ac:	50000100 	andpl	r0, r0, r0, lsl #2
     8b0:	00000170 	andeq	r0, r0, r0, ror r1
     8b4:	000001e8 	andeq	r0, r0, r8, ror #3
     8b8:	00540001 	subseq	r0, r4, r1
     8bc:	00000000 	andeq	r0, r0, r0
     8c0:	e8000000 	stmda	r0, {}	; <UNPREDICTABLE>
     8c4:	ff000001 			; <UNDEFINED> instruction: 0xff000001
     8c8:	01000001 	tsteq	r0, r1
     8cc:	01ff5000 	mvnseq	r5, r0
     8d0:	02180000 	andseq	r0, r8, #0
     8d4:	00010000 	andeq	r0, r1, r0
     8d8:	00021854 	andeq	r1, r2, r4, asr r8
     8dc:	00022300 	andeq	r2, r2, r0, lsl #6
     8e0:	50000100 	andpl	r0, r0, r0, lsl #2
     8e4:	00000223 	andeq	r0, r0, r3, lsr #4
     8e8:	0000023c 	andeq	r0, r0, ip, lsr r2
     8ec:	3c540001 	mrrccc	0, 0, r0, r4, cr1
     8f0:	47000002 	strmi	r0, [r0, -r2]
     8f4:	01000002 	tsteq	r0, r2
     8f8:	02475000 	subeq	r5, r7, #0
     8fc:	02600000 	rsbeq	r0, r0, #0
     900:	00010000 	andeq	r0, r1, r0
     904:	00026054 	andeq	r6, r2, r4, asr r0
     908:	0002bc00 	andeq	fp, r2, r0, lsl #24
     90c:	f3000400 	vshl.u8	d0, d0, d0
     910:	bc9f5001 	ldclt	0, cr5, [pc], {1}
     914:	c0000002 	andgt	r0, r0, r2
     918:	01000002 	tsteq	r0, r2
     91c:	02c05000 	sbceq	r5, r0, #0
     920:	02e00000 	rsceq	r0, r0, #0
     924:	00040000 	andeq	r0, r4, r0
     928:	9f5001f3 	svcls	0x005001f3
	...
     934:	000001e8 	andeq	r0, r0, r8, ror #3
     938:	000001ff 	strdeq	r0, [r0], -pc	; <UNPREDICTABLE>
     93c:	ff510001 			; <UNDEFINED> instruction: 0xff510001
     940:	18000001 	stmdane	r0, {r0}
     944:	01000002 	tsteq	r0, r2
     948:	02185500 	andseq	r5, r8, #0, 10
     94c:	02230000 	eoreq	r0, r3, #0
     950:	00010000 	andeq	r0, r1, r0
     954:	00022351 	andeq	r2, r2, r1, asr r3
     958:	00023c00 	andeq	r3, r2, r0, lsl #24
     95c:	55000100 	strpl	r0, [r0, #-256]	; 0x100
     960:	0000023c 	andeq	r0, r0, ip, lsr r2
     964:	00000247 	andeq	r0, r0, r7, asr #4
     968:	47510001 	ldrbmi	r0, [r1, -r1]
     96c:	bc000002 	stclt	0, cr0, [r0], {2}
     970:	01000002 	tsteq	r0, r2
     974:	02bc5500 	adcseq	r5, ip, #0, 10
     978:	02c00000 	sbceq	r0, r0, #0
     97c:	00010000 	andeq	r0, r1, r0
     980:	0002c051 	andeq	ip, r2, r1, asr r0
     984:	0002e000 	andeq	lr, r2, r0
     988:	55000100 	strpl	r0, [r0, #-256]	; 0x100
	...
     994:	00000260 	andeq	r0, r0, r0, ror #4
     998:	000002bc 			; <UNDEFINED> instruction: 0x000002bc
     99c:	c0540001 	subsgt	r0, r4, r1
     9a0:	e0000002 	and	r0, r0, r2
     9a4:	01000002 	tsteq	r0, r2
     9a8:	00005400 	andeq	r5, r0, r0, lsl #8
     9ac:	00000000 	andeq	r0, r0, r0
     9b0:	02680000 	rsbeq	r0, r8, #0
     9b4:	02740000 	rsbseq	r0, r4, #0
     9b8:	00010000 	andeq	r0, r1, r0
     9bc:	00027450 	andeq	r7, r2, r0, asr r4
     9c0:	0002b300 	andeq	fp, r2, r0, lsl #6
     9c4:	53000100 	movwpl	r0, #256	; 0x100
	...
     9d0:	000002ec 	andeq	r0, r0, ip, ror #5
     9d4:	00000303 	andeq	r0, r0, r3, lsl #6
     9d8:	04500001 	ldrbeq	r0, [r0], #-1
     9dc:	14000003 	strne	r0, [r0], #-3
     9e0:	01000003 	tsteq	r0, r3
     9e4:	00005000 	andeq	r5, r0, r0
     9e8:	00000000 	andeq	r0, r0, r0
     9ec:	03580000 	cmpeq	r8, #0
     9f0:	036c0000 	cmneq	ip, #0
     9f4:	00010000 	andeq	r0, r1, r0
     9f8:	00037453 	andeq	r7, r3, r3, asr r4
     9fc:	00038700 	andeq	r8, r3, r0, lsl #14
     a00:	53000100 	movwpl	r0, #256	; 0x100
	...
     a0c:	000003dc 	ldrdeq	r0, [r0], -ip
     a10:	00000410 	andeq	r0, r0, r0, lsl r4
     a14:	9f300002 	svcls	0x00300002
     a18:	00000410 	andeq	r0, r0, r0, lsl r4
     a1c:	000004cc 	andeq	r0, r0, ip, asr #9
     a20:	00550001 	subseq	r0, r5, r1
     a24:	00000000 	andeq	r0, r0, r0
     a28:	dc000000 	stcle	0, cr0, [r0], {-0}
     a2c:	10000003 	andne	r0, r0, r3
     a30:	02000004 	andeq	r0, r0, #4
     a34:	109f3000 	addsne	r3, pc, r0
     a38:	cc000004 	stcgt	0, cr0, [r0], {4}
     a3c:	01000004 	tsteq	r0, r4
     a40:	00005800 	andeq	r5, r0, r0, lsl #16
     a44:	00000000 	andeq	r0, r0, r0
     a48:	03dc0000 	bicseq	r0, ip, #0
     a4c:	04100000 	ldreq	r0, [r0], #-0
     a50:	00020000 	andeq	r0, r2, r0
     a54:	04109f30 	ldreq	r9, [r0], #-3888	; 0xf30
     a58:	04cc0000 	strbeq	r0, [ip], #0
     a5c:	00010000 	andeq	r0, r1, r0
     a60:	0004cc56 	andeq	ip, r4, r6, asr ip
     a64:	0004f400 	andeq	pc, r4, r0, lsl #8
     a68:	50000100 	andpl	r0, r0, r0, lsl #2
	...
     a74:	000003f4 	strdeq	r0, [r0], -r4
     a78:	0000043c 	andeq	r0, r0, ip, lsr r4
     a7c:	3c500001 	mrrccc	0, 0, r0, r0, cr1	; <UNPREDICTABLE>
     a80:	70000004 	andvc	r0, r0, r4
     a84:	01000004 	tsteq	r0, r4
     a88:	04705400 	ldrbteq	r5, [r0], #-1024	; 0x400
     a8c:	04800000 	streq	r0, [r0], #0
     a90:	00010000 	andeq	r0, r1, r0
     a94:	00000050 	andeq	r0, r0, r0, asr r0
     a98:	00000000 	andeq	r0, r0, r0
     a9c:	0004f400 	andeq	pc, r4, r0, lsl #8
     aa0:	0004ff00 	andeq	pc, r4, r0, lsl #30
     aa4:	50000100 	andpl	r0, r0, r0, lsl #2
     aa8:	000004ff 	strdeq	r0, [r0], -pc	; <UNPREDICTABLE>
     aac:	0000050c 	andeq	r0, r0, ip, lsl #10
     ab0:	00540001 	subseq	r0, r4, r1
     ab4:	00000000 	andeq	r0, r0, r0
     ab8:	f0000000 			; <UNDEFINED> instruction: 0xf0000000
     abc:	fb000005 	blx	ada <_start-0x7526>
     ac0:	01000005 	tsteq	r0, r5
     ac4:	05fb5000 	ldrbeq	r5, [fp, #0]!
     ac8:	06140000 	ldreq	r0, [r4], -r0
     acc:	00010000 	andeq	r0, r1, r0
     ad0:	00061454 	andeq	r1, r6, r4, asr r4
     ad4:	00061800 	andeq	r1, r6, r0, lsl #16
     ad8:	50000100 	andpl	r0, r0, r0, lsl #2
     adc:	00000618 	andeq	r0, r0, r8, lsl r6
     ae0:	00000650 	andeq	r0, r0, r0, asr r6
     ae4:	00540001 	subseq	r0, r4, r1
	...
     af0:	24000000 	strcs	r0, [r0], #-0
     af4:	01000000 	mrseq	r0, (UNDEF: 0)
     af8:	00245000 	eoreq	r5, r4, r0
     afc:	00e40000 	rsceq	r0, r4, r0
     b00:	00040000 	andeq	r0, r4, r0
     b04:	9f5001f3 	svcls	0x005001f3
     b08:	000000e4 	andeq	r0, r0, r4, ror #1
     b0c:	000000e8 	andeq	r0, r0, r8, ror #1
     b10:	e8500001 	ldmda	r0, {r0}^
     b14:	f0000000 			; <UNDEFINED> instruction: 0xf0000000
     b18:	04000000 	streq	r0, [r0], #-0
     b1c:	5001f300 	andpl	pc, r1, r0, lsl #6
     b20:	0000009f 	muleq	r0, pc, r0	; <UNPREDICTABLE>
	...
     b2c:	00002000 	andeq	r2, r0, r0
     b30:	51000100 	mrspl	r0, (UNDEF: 16)
     b34:	00000020 	andeq	r0, r0, r0, lsr #32
     b38:	00000080 	andeq	r0, r0, r0, lsl #1
     b3c:	9c510001 	mrrcls	0, 0, r0, r1, cr1
     b40:	a0000000 	andge	r0, r0, r0
     b44:	01000000 	mrseq	r0, (UNDEF: 0)
     b48:	00b85100 	adcseq	r5, r8, r0, lsl #2
     b4c:	00c80000 	sbceq	r0, r8, r0
     b50:	00010000 	andeq	r0, r1, r0
     b54:	0000e451 	andeq	lr, r0, r1, asr r4
     b58:	0000e800 	andeq	lr, r0, r0, lsl #16
     b5c:	51000100 	mrspl	r0, (UNDEF: 16)
	...
     b68:	00000004 	andeq	r0, r0, r4
     b6c:	00000024 	andeq	r0, r0, r4, lsr #32
     b70:	24500001 	ldrbcs	r0, [r0], #-1
     b74:	90000000 	andls	r0, r0, r0
     b78:	01000000 	mrseq	r0, (UNDEF: 0)
     b7c:	009c5300 	addseq	r5, ip, r0, lsl #6
     b80:	00a40000 	adceq	r0, r4, r0
     b84:	00010000 	andeq	r0, r1, r0
     b88:	0000b853 	andeq	fp, r0, r3, asr r8
     b8c:	0000bc00 	andeq	fp, r0, r0, lsl #24
     b90:	53000100 	movwpl	r0, #256	; 0x100
     b94:	000000e4 	andeq	r0, r0, r4, ror #1
     b98:	000000e8 	andeq	r0, r0, r8, ror #1
     b9c:	00500001 	subseq	r0, r0, r1
     ba0:	00000000 	andeq	r0, r0, r0
     ba4:	08000000 	stmdaeq	r0, {}	; <UNPREDICTABLE>
     ba8:	20000000 	andcs	r0, r0, r0
     bac:	01000000 	mrseq	r0, (UNDEF: 0)
     bb0:	00205100 	eoreq	r5, r0, r0, lsl #2
     bb4:	00340000 	eorseq	r0, r4, r0
     bb8:	00010000 	andeq	r0, r1, r0
     bbc:	00003452 	andeq	r3, r0, r2, asr r4
     bc0:	00004800 	andeq	r4, r0, r0, lsl #16
     bc4:	50000100 	andpl	r0, r0, r0, lsl #2
     bc8:	00000048 	andeq	r0, r0, r8, asr #32
     bcc:	000000cc 	andeq	r0, r0, ip, asr #1
     bd0:	cc520001 	mrrcgt	0, 0, r0, r2, cr1
     bd4:	e0000000 	and	r0, r0, r0
     bd8:	01000000 	mrseq	r0, (UNDEF: 0)
     bdc:	00e45000 	rsceq	r5, r4, r0
     be0:	00e80000 	rsceq	r0, r8, r0
     be4:	00010000 	andeq	r0, r1, r0
     be8:	00000051 	andeq	r0, r0, r1, asr r0
     bec:	00000000 	andeq	r0, r0, r0
     bf0:	00004400 	andeq	r4, r0, r0, lsl #8
     bf4:	00004800 	andeq	r4, r0, r0, lsl #16
     bf8:	52000100 	andpl	r0, r0, #0, 2
     bfc:	00000048 	andeq	r0, r0, r8, asr #32
     c00:	0000004c 	andeq	r0, r0, ip, asr #32
     c04:	007c0012 	rsbseq	r0, ip, r2, lsl r0
     c08:	02732438 	rsbseq	r2, r3, #56, 8	; 0x38000000
     c0c:	ff080194 			; <UNDEFINED> instruction: 0xff080194
     c10:	243b221a 	ldrtcs	r2, [fp], #-538	; 0x21a
     c14:	9f270070 	svcls	0x00270070
     c18:	0000004c 	andeq	r0, r0, ip, asr #32
     c1c:	00000054 	andeq	r0, r0, r4, asr r0
     c20:	007c0012 	rsbseq	r0, ip, r2, lsl r0
     c24:	7e732438 	mrcvc	4, 3, r2, cr3, cr8, {1}
     c28:	ff080194 			; <UNDEFINED> instruction: 0xff080194
     c2c:	243b221a 	ldrtcs	r2, [fp], #-538	; 0x21a
     c30:	9f270070 	svcls	0x00270070
	...
     c3c:	0000001c 	andeq	r0, r0, ip, lsl r0
     c40:	000000e4 	andeq	r0, r0, r4, ror #1
     c44:	00540001 	subseq	r0, r4, r1
	...
     c50:	04000000 	streq	r0, [r0], #-0
     c54:	01000000 	mrseq	r0, (UNDEF: 0)
     c58:	00045200 	andeq	r5, r4, r0, lsl #4
     c5c:	00200000 	eoreq	r0, r0, r0
     c60:	00040000 	andeq	r0, r4, r0
     c64:	9f5201f3 	svcls	0x005201f3
	...
     c74:	0000000c 	andeq	r0, r0, ip
     c78:	0c500001 	mrrceq	0, 0, r0, r0, cr1	; <UNPREDICTABLE>
     c7c:	14000000 	strne	r0, [r0], #-0
     c80:	03000000 	movweq	r0, #0
     c84:	9f017300 	svcls	0x00017300
     c88:	00000014 	andeq	r0, r0, r4, lsl r0
     c8c:	00000020 	andeq	r0, r0, r0, lsr #32
     c90:	00530001 	subseq	r0, r3, r1
     c94:	00000000 	andeq	r0, r0, r0
     c98:	2c000000 	stccs	0, cr0, [r0], {-0}
     c9c:	38000000 	stmdacc	r0, {}	; <UNPREDICTABLE>
     ca0:	01000000 	mrseq	r0, (UNDEF: 0)
     ca4:	00385000 	eorseq	r5, r8, r0
     ca8:	00480000 	subeq	r0, r8, r0
     cac:	00010000 	andeq	r0, r1, r0
     cb0:	00004855 	andeq	r4, r0, r5, asr r8
     cb4:	00005800 	andeq	r5, r0, r0, lsl #16
     cb8:	50000100 	andpl	r0, r0, r0, lsl #2
	...
     cc8:	0000000b 	andeq	r0, r0, fp
     ccc:	0b500001 	bleq	1400cd8 <__bss_end__+0x13f6320>
     cd0:	14000000 	strne	r0, [r0], #-0
     cd4:	01000000 	mrseq	r0, (UNDEF: 0)
     cd8:	00005400 	andeq	r5, r0, r0, lsl #8
	...
     ce4:	00100000 	andseq	r0, r0, r0
     ce8:	00010000 	andeq	r0, r1, r0
     cec:	00001050 	andeq	r1, r0, r0, asr r0
     cf0:	00003400 	andeq	r3, r0, r0, lsl #8
     cf4:	54000100 	strpl	r0, [r0], #-256	; 0x100
	...
     d04:	00000004 	andeq	r0, r0, r4
     d08:	04500001 	ldrbeq	r0, [r0], #-1
     d0c:	0c000000 	stceq	0, cr0, [r0], {-0}
     d10:	03000000 	movweq	r0, #0
     d14:	9f307000 	svcls	0x00307000
     d18:	0000000c 	andeq	r0, r0, ip
     d1c:	00000014 	andeq	r0, r0, r4, lsl r0
     d20:	01f30004 	mvnseq	r0, r4
     d24:	00009f50 	andeq	r9, r0, r0, asr pc
     d28:	00000000 	andeq	r0, r0, r0
     d2c:	00140000 	andseq	r0, r4, r0
     d30:	00200000 	eoreq	r0, r0, r0
     d34:	00010000 	andeq	r0, r1, r0
     d38:	00002050 	andeq	r2, r0, r0, asr r0
     d3c:	00002c00 	andeq	r2, r0, r0, lsl #24
     d40:	70000300 	andvc	r0, r0, r0, lsl #6
     d44:	002c9f01 	eoreq	r9, ip, r1, lsl #30
     d48:	00400000 	subeq	r0, r0, r0
     d4c:	00010000 	andeq	r0, r1, r0
     d50:	00000050 	andeq	r0, r0, r0, asr r0
     d54:	00000000 	andeq	r0, r0, r0
     d58:	00001400 	andeq	r1, r0, r0, lsl #8
     d5c:	00001800 	andeq	r1, r0, r0, lsl #16
     d60:	51000100 	mrspl	r0, (UNDEF: 16)
     d64:	00000018 	andeq	r0, r0, r8, lsl r0
     d68:	00000040 	andeq	r0, r0, r0, asr #32
     d6c:	01f30004 	mvnseq	r0, r4
     d70:	00009f51 	andeq	r9, r0, r1, asr pc
     d74:	00000000 	andeq	r0, r0, r0
     d78:	00400000 	subeq	r0, r0, r0
     d7c:	00600000 	rsbeq	r0, r0, r0
     d80:	00010000 	andeq	r0, r1, r0
     d84:	00006050 	andeq	r6, r0, r0, asr r0
     d88:	00006c00 	andeq	r6, r0, r0, lsl #24
     d8c:	71000300 	mrsvc	r0, LR_irq
     d90:	006c9f01 	rsbeq	r9, ip, r1, lsl #30
     d94:	00740000 	rsbseq	r0, r4, r0
     d98:	00010000 	andeq	r0, r1, r0
     d9c:	00007451 	andeq	r7, r0, r1, asr r4
     da0:	00008000 	andeq	r8, r0, r0
     da4:	71000300 	mrsvc	r0, LR_irq
     da8:	00009f01 	andeq	r9, r0, r1, lsl #30
     dac:	00000000 	andeq	r0, r0, r0
     db0:	00400000 	subeq	r0, r0, r0
     db4:	00500000 	subseq	r0, r0, r0
     db8:	00010000 	andeq	r0, r1, r0
     dbc:	00005051 	andeq	r5, r0, r1, asr r0
     dc0:	00008000 	andeq	r8, r0, r0
     dc4:	f3000400 	vshl.u8	d0, d0, d0
     dc8:	009f5101 	addseq	r5, pc, r1, lsl #2
     dcc:	00000000 	andeq	r0, r0, r0
     dd0:	40000000 	andmi	r0, r0, r0
     dd4:	58000000 	stmdapl	r0, {}	; <UNPREDICTABLE>
     dd8:	01000000 	mrseq	r0, (UNDEF: 0)
     ddc:	00585200 	subseq	r5, r8, r0, lsl #4
     de0:	00640000 	rsbeq	r0, r4, r0
     de4:	00010000 	andeq	r0, r1, r0
     de8:	00006452 	andeq	r6, r0, r2, asr r4
     dec:	00006800 	andeq	r6, r0, r0, lsl #16
     df0:	72000300 	andvc	r0, r0, #0, 6
     df4:	00689f01 	rsbeq	r9, r8, r1, lsl #30
     df8:	00800000 	addeq	r0, r0, r0
     dfc:	00010000 	andeq	r0, r1, r0
     e00:	00000052 	andeq	r0, r0, r2, asr r0
     e04:	00000000 	andeq	r0, r0, r0
     e08:	00004000 	andeq	r4, r0, r0
     e0c:	00005400 	andeq	r5, r0, r0, lsl #8
     e10:	53000100 	movwpl	r0, #256	; 0x100
     e14:	00000054 	andeq	r0, r0, r4, asr r0
     e18:	00000078 	andeq	r0, r0, r8, ror r0
     e1c:	00530001 	subseq	r0, r3, r1
     e20:	00000000 	andeq	r0, r0, r0
     e24:	48000000 	stmdami	r0, {}	; <UNPREDICTABLE>
     e28:	60000000 	andvs	r0, r0, r0
     e2c:	01000000 	mrseq	r0, (UNDEF: 0)
     e30:	00605c00 	rsbeq	r5, r0, r0, lsl #24
     e34:	00800000 	addeq	r0, r0, r0
     e38:	000a0000 	andeq	r0, sl, r0
     e3c:	f35201f3 	vbsl	q8, q9, <illegal reg q9.5>
     e40:	231c5301 	tstcs	ip, #67108864	; 0x4000000
     e44:	00009f01 	andeq	r9, r0, r1, lsl #30
     e48:	00000000 	andeq	r0, r0, r0
     e4c:	00800000 	addeq	r0, r0, r0
     e50:	00a40000 	adceq	r0, r4, r0
     e54:	00010000 	andeq	r0, r1, r0
     e58:	0000a450 	andeq	sl, r0, r0, asr r4
     e5c:	00011800 	andeq	r1, r1, r0, lsl #16
     e60:	70000300 	andvc	r0, r0, r0, lsl #6
     e64:	01189f02 	tsteq	r8, r2, lsl #30
     e68:	02300000 	eorseq	r0, r0, #0
     e6c:	00040000 	andeq	r0, r4, r0
     e70:	9f5001f3 	svcls	0x005001f3
	...
     e7c:	00000080 	andeq	r0, r0, r0, lsl #1
     e80:	000000f0 	strdeq	r0, [r0], -r0	; <UNPREDICTABLE>
     e84:	f0510001 			; <UNDEFINED> instruction: 0xf0510001
     e88:	60000000 	andvs	r0, r0, r0
     e8c:	01000001 	tsteq	r0, r1
     e90:	01605500 	cmneq	r0, r0, lsl #10
     e94:	016c0000 	cmneq	ip, r0
     e98:	00010000 	andeq	r0, r1, r0
     e9c:	00016c51 	andeq	r6, r1, r1, asr ip
     ea0:	0001a000 	andeq	sl, r1, r0
     ea4:	55000100 	strpl	r0, [r0, #-256]	; 0x100
     ea8:	000001a0 	andeq	r0, r0, r0, lsr #3
     eac:	000001b4 			; <UNDEFINED> instruction: 0x000001b4
     eb0:	b4510001 	ldrblt	r0, [r1], #-1
     eb4:	d4000001 	strle	r0, [r0], #-1
     eb8:	01000001 	tsteq	r0, r1
     ebc:	01d45500 	bicseq	r5, r4, r0, lsl #10
     ec0:	01d70000 	bicseq	r0, r7, r0
     ec4:	00010000 	andeq	r0, r1, r0
     ec8:	0001d751 	andeq	sp, r1, r1, asr r7
     ecc:	00021400 	andeq	r1, r2, r0, lsl #8
     ed0:	55000100 	strpl	r0, [r0, #-256]	; 0x100
     ed4:	00000214 	andeq	r0, r0, r4, lsl r2
     ed8:	00000230 	andeq	r0, r0, r0, lsr r2
     edc:	01f30004 	mvnseq	r0, r4
     ee0:	00009f51 	andeq	r9, r0, r1, asr pc
     ee4:	00000000 	andeq	r0, r0, r0
     ee8:	00800000 	addeq	r0, r0, r0
     eec:	00940000 	addseq	r0, r4, r0
     ef0:	00010000 	andeq	r0, r1, r0
     ef4:	00009452 	andeq	r9, r0, r2, asr r4
     ef8:	00021400 	andeq	r1, r2, r0, lsl #8
     efc:	54000100 	strpl	r0, [r0], #-256	; 0x100
     f00:	00000214 	andeq	r0, r0, r4, lsl r2
     f04:	00000230 	andeq	r0, r0, r0, lsr r2
     f08:	01f30004 	mvnseq	r0, r4
     f0c:	00009f52 	andeq	r9, r0, r2, asr pc
     f10:	00000000 	andeq	r0, r0, r0
     f14:	00800000 	addeq	r0, r0, r0
     f18:	01000000 	mrseq	r0, (UNDEF: 0)
     f1c:	00010000 	andeq	r0, r1, r0
     f20:	00010453 	andeq	r0, r1, r3, asr r4
     f24:	00010800 	andeq	r0, r1, r0, lsl #16
     f28:	53000100 	movwpl	r0, #256	; 0x100
     f2c:	00000160 	andeq	r0, r0, r0, ror #2
     f30:	00000164 	andeq	r0, r0, r4, ror #2
     f34:	64530001 	ldrbvs	r0, [r3], #-1
     f38:	6c000001 	stcvs	0, cr0, [r0], {1}
     f3c:	01000001 	tsteq	r0, r1
     f40:	016c5c00 	cmneq	ip, r0, lsl #24
     f44:	01a00000 	moveq	r0, r0
     f48:	00040000 	andeq	r0, r4, r0
     f4c:	9f5301f3 	svcls	0x005301f3
     f50:	000001a0 	andeq	r0, r0, r0, lsr #3
     f54:	000001b0 			; <UNDEFINED> instruction: 0x000001b0
     f58:	b0530001 	subslt	r0, r3, r1
     f5c:	b4000001 	strlt	r0, [r0], #-1
     f60:	01000001 	tsteq	r0, r1
     f64:	01b45c00 			; <UNDEFINED> instruction: 0x01b45c00
     f68:	01d40000 	bicseq	r0, r4, r0
     f6c:	00040000 	andeq	r0, r4, r0
     f70:	9f5301f3 	svcls	0x005301f3
     f74:	000001d4 	ldrdeq	r0, [r0], -r4
     f78:	000001d7 	ldrdeq	r0, [r0], -r7
     f7c:	d7530001 	ldrble	r0, [r3, -r1]
     f80:	f0000001 			; <UNDEFINED> instruction: 0xf0000001
     f84:	04000001 	streq	r0, [r0], #-1
     f88:	5301f300 	movwpl	pc, #4864	; 0x1300	; <UNPREDICTABLE>
     f8c:	0000009f 	muleq	r0, pc, r0	; <UNPREDICTABLE>
     f90:	00000000 	andeq	r0, r0, r0
     f94:	00008000 	andeq	r8, r0, r0
     f98:	00009c00 	andeq	r9, r0, r0, lsl #24
     f9c:	91000200 	mrsls	r0, R8_usr
     fa0:	00009c00 	andeq	r9, r0, r0, lsl #24
     fa4:	0001d700 	andeq	sp, r1, r0, lsl #14
     fa8:	52000100 	andpl	r0, r0, #0, 2
     fac:	000001f0 	strdeq	r0, [r0], -r0	; <UNPREDICTABLE>
     fb0:	000001f7 	strdeq	r0, [r0], -r7
     fb4:	00520001 	subseq	r0, r2, r1
     fb8:	00000000 	andeq	r0, r0, r0
     fbc:	9c000000 	stcls	0, cr0, [r0], {-0}
     fc0:	18000000 	stmdane	r0, {}	; <UNPREDICTABLE>
     fc4:	01000001 	tsteq	r0, r1
     fc8:	01185d00 	tsteq	r8, r0, lsl #26
     fcc:	011c0000 	tsteq	ip, r0
     fd0:	00010000 	andeq	r0, r1, r0
     fd4:	00011c50 	andeq	r1, r1, r0, asr ip
     fd8:	00012000 	andeq	r2, r1, r0
     fdc:	51000100 	mrspl	r0, (UNDEF: 16)
     fe0:	00000120 	andeq	r0, r0, r0, lsr #2
     fe4:	00000160 	andeq	r0, r0, r0, ror #2
     fe8:	60500001 	subsvs	r0, r0, r1
     fec:	6c000001 	stcvs	0, cr0, [r0], {1}
     ff0:	01000001 	tsteq	r0, r1
     ff4:	016c5d00 	cmneq	ip, r0, lsl #26
     ff8:	01700000 	cmneq	r0, r0
     ffc:	00010000 	andeq	r0, r1, r0
    1000:	00017050 	andeq	r7, r1, r0, asr r0
    1004:	00017400 	andeq	r7, r1, r0, lsl #8
    1008:	53000100 	movwpl	r0, #256	; 0x100
    100c:	00000174 	andeq	r0, r0, r4, ror r1
    1010:	00000188 	andeq	r0, r0, r8, lsl #3
    1014:	88500001 	ldmdahi	r0, {r0}^
    1018:	94000001 	strls	r0, [r0], #-1
    101c:	03000001 	movweq	r0, #1
    1020:	9f017000 	svcls	0x00017000
    1024:	00000194 	muleq	r0, r4, r1
    1028:	000001a0 	andeq	r0, r0, r0, lsr #3
    102c:	a0500001 	subsge	r0, r0, r1
    1030:	a8000001 	stmdage	r0, {r0}
    1034:	04000001 	streq	r0, [r0], #-1
    1038:	7fa19100 	svcvc	0x00a19100
    103c:	0001a89f 	muleq	r1, pc, r8	; <UNPREDICTABLE>
    1040:	0001ac00 	andeq	sl, r1, r0, lsl #24
    1044:	50000100 	andpl	r0, r0, r0, lsl #2
    1048:	000001ac 	andeq	r0, r0, ip, lsr #3
    104c:	000001b4 			; <UNDEFINED> instruction: 0x000001b4
    1050:	b45d0001 	ldrblt	r0, [sp], #-1
    1054:	b8000001 	stmdalt	r0, {r0}
    1058:	01000001 	tsteq	r0, r1
    105c:	01b85300 			; <UNDEFINED> instruction: 0x01b85300
    1060:	01d40000 	bicseq	r0, r4, r0
    1064:	00010000 	andeq	r0, r1, r0
    1068:	0001d450 	andeq	sp, r1, r0, asr r4
    106c:	0001f000 	andeq	pc, r1, r0
    1070:	5d000100 	stfpls	f0, [r0, #-0]
    1074:	000001f0 	strdeq	r0, [r0], -r0	; <UNPREDICTABLE>
    1078:	000001f7 	strdeq	r0, [r0], -r7
    107c:	00500001 	subseq	r0, r0, r1
    1080:	00000000 	andeq	r0, r0, r0
    1084:	a0000000 	andge	r0, r0, r0
    1088:	ec000000 	stc	0, cr0, [r0], {-0}
    108c:	01000000 	mrseq	r0, (UNDEF: 0)
    1090:	00ec5c00 	rsceq	r5, ip, r0, lsl #24
    1094:	01000000 	mrseq	r0, (UNDEF: 0)
    1098:	00010000 	andeq	r0, r1, r0
    109c:	00010053 	andeq	r0, r1, r3, asr r0
    10a0:	00010400 	andeq	r0, r1, r0, lsl #8
    10a4:	5c000100 	stfpls	f0, [r0], {-0}
    10a8:	00000104 	andeq	r0, r0, r4, lsl #2
    10ac:	00000108 	andeq	r0, r0, r8, lsl #2
    10b0:	08530001 	ldmdaeq	r3, {r0}^
    10b4:	60000001 	andvs	r0, r0, r1
    10b8:	01000001 	tsteq	r0, r1
    10bc:	01605c00 	cmneq	r0, r0, lsl #24
    10c0:	01640000 	cmneq	r4, r0
    10c4:	00010000 	andeq	r0, r1, r0
    10c8:	00016453 	andeq	r6, r1, r3, asr r4
    10cc:	00018000 	andeq	r8, r1, r0
    10d0:	5c000100 	stfpls	f0, [r0], {-0}
    10d4:	00000180 	andeq	r0, r0, r0, lsl #3
    10d8:	00000184 	andeq	r0, r0, r4, lsl #3
    10dc:	007c0005 	rsbseq	r0, ip, r5
    10e0:	849f2534 	ldrhi	r2, [pc], #1332	; 10e8 <_start-0x6f18>
    10e4:	a0000001 	andge	r0, r0, r1
    10e8:	01000001 	tsteq	r0, r1
    10ec:	01a05c00 	lsleq	r5, r0, #24
    10f0:	01b00000 	movseq	r0, r0
    10f4:	00010000 	andeq	r0, r1, r0
    10f8:	0001b053 	andeq	fp, r1, r3, asr r0
    10fc:	0001c400 	andeq	ip, r1, r0, lsl #8
    1100:	5c000100 	stfpls	f0, [r0], {-0}
    1104:	000001c4 	andeq	r0, r0, r4, asr #3
    1108:	000001cc 	andeq	r0, r0, ip, asr #3
    110c:	007c0005 	rsbseq	r0, ip, r5
    1110:	cc9f2531 	cfldr32gt	mvfx2, [pc], {49}	; 0x31
    1114:	d4000001 	strle	r0, [r0], #-1
    1118:	01000001 	tsteq	r0, r1
    111c:	01d45c00 	bicseq	r5, r4, r0, lsl #24
    1120:	01d70000 	bicseq	r0, r7, r0
    1124:	00010000 	andeq	r0, r1, r0
    1128:	0001d753 	andeq	sp, r1, r3, asr r7
    112c:	0001f000 	andeq	pc, r1, r0
    1130:	f3000400 	vshl.u8	d0, d0, d0
    1134:	f09f5301 			; <UNDEFINED> instruction: 0xf09f5301
    1138:	f7000001 			; <UNDEFINED> instruction: 0xf7000001
    113c:	01000001 	tsteq	r0, r1
    1140:	00005c00 	andeq	r5, r0, r0, lsl #24
    1144:	00000000 	andeq	r0, r0, r0
    1148:	00ec0000 	rsceq	r0, ip, r0
    114c:	00fc0000 	rscseq	r0, ip, r0
    1150:	00020000 	andeq	r0, r2, r0
    1154:	00fc9f30 	rscseq	r9, ip, r0, lsr pc
    1158:	01040000 	mrseq	r0, (UNDEF: 4)
    115c:	00020000 	andeq	r0, r2, r0
    1160:	01049f31 	tsteq	r4, r1, lsr pc
    1164:	01080000 	mrseq	r0, (UNDEF: 8)
    1168:	00020000 	andeq	r0, r2, r0
    116c:	00009f30 	andeq	r9, r0, r0, lsr pc
    1170:	00000000 	andeq	r0, r0, r0
    1174:	02300000 	eorseq	r0, r0, #0
    1178:	023f0000 	eorseq	r0, pc, #0
    117c:	00010000 	andeq	r0, r1, r0
    1180:	00023f50 	andeq	r3, r2, r0, asr pc
    1184:	00025800 	andeq	r5, r2, r0, lsl #16
    1188:	f3000400 	vshl.u8	d0, d0, d0
    118c:	589f5001 	ldmpl	pc, {r0, ip, lr}	; <UNPREDICTABLE>
    1190:	84000002 	strhi	r0, [r0], #-2
    1194:	01000002 	tsteq	r0, r2
    1198:	00005000 	andeq	r5, r0, r0
    119c:	00000000 	andeq	r0, r0, r0
    11a0:	02300000 	eorseq	r0, r0, #0
    11a4:	023f0000 	eorseq	r0, pc, #0
    11a8:	00010000 	andeq	r0, r1, r0
    11ac:	00023f51 	andeq	r3, r2, r1, asr pc
    11b0:	00025800 	andeq	r5, r2, r0, lsl #16
    11b4:	f3000400 	vshl.u8	d0, d0, d0
    11b8:	589f5101 	ldmpl	pc, {r0, r8, ip, lr}	; <UNPREDICTABLE>
    11bc:	84000002 	strhi	r0, [r0], #-2
    11c0:	01000002 	tsteq	r0, r2
    11c4:	00005100 	andeq	r5, r0, r0, lsl #2
    11c8:	00000000 	andeq	r0, r0, r0
    11cc:	02840000 	addeq	r0, r4, #0
    11d0:	02b00000 	adcseq	r0, r0, #0
    11d4:	00010000 	andeq	r0, r1, r0
    11d8:	0002b050 	andeq	fp, r2, r0, asr r0
    11dc:	0004f800 	andeq	pc, r4, r0, lsl #16
    11e0:	5a000100 	bpl	15e8 <_start-0x6a18>
    11e4:	000004f8 	strdeq	r0, [r0], -r8
    11e8:	0000050c 	andeq	r0, r0, ip, lsl #10
    11ec:	01f30004 	mvnseq	r0, r4
    11f0:	00009f50 	andeq	r9, r0, r0, asr pc
    11f4:	00000000 	andeq	r0, r0, r0
    11f8:	02840000 	addeq	r0, r4, #0
    11fc:	02980000 	addseq	r0, r8, #0
    1200:	00010000 	andeq	r0, r1, r0
    1204:	00029851 	andeq	r9, r2, r1, asr r8
    1208:	0002b000 	andeq	fp, r2, r0
    120c:	71000300 	mrsvc	r0, LR_irq
    1210:	02b09f01 	adcseq	r9, r0, #1, 30
    1214:	050c0000 	streq	r0, [ip, #-0]
    1218:	00040000 	andeq	r0, r4, r0
    121c:	9f5101f3 	svcls	0x005101f3
	...
    1228:	00000284 	andeq	r0, r0, r4, lsl #5
    122c:	000002b8 			; <UNDEFINED> instruction: 0x000002b8
    1230:	b8520001 	ldmdalt	r2, {r0}^
    1234:	e0000002 	and	r0, r0, r2
    1238:	01000002 	tsteq	r0, r2
    123c:	02e05200 	rsceq	r5, r0, #0, 4
    1240:	04a80000 	strteq	r0, [r8], #0
    1244:	00010000 	andeq	r0, r1, r0
    1248:	0004a856 	andeq	sl, r4, r6, asr r8
    124c:	00050c00 	andeq	r0, r5, r0, lsl #24
    1250:	52000100 	andpl	r0, r0, #0, 2
	...
    125c:	00000284 	andeq	r0, r0, r4, lsl #5
    1260:	000002a0 	andeq	r0, r0, r0, lsr #5
    1264:	00530001 	subseq	r0, r3, r1
    1268:	00000000 	andeq	r0, r0, r0
    126c:	94000000 	strls	r0, [r0], #-0
    1270:	b0000002 	andlt	r0, r0, r2
    1274:	01000002 	tsteq	r0, r2
    1278:	02b05000 	adcseq	r5, r0, #0
    127c:	02b40000 	adcseq	r0, r4, #0
    1280:	00010000 	andeq	r0, r1, r0
    1284:	0002b454 	andeq	fp, r2, r4, asr r4
    1288:	0002c000 	andeq	ip, r2, r0
    128c:	74000300 	strvc	r0, [r0], #-768	; 0x300
    1290:	02c09f01 	sbceq	r9, r0, #1, 30
    1294:	02cc0000 	sbceq	r0, ip, #0
    1298:	00010000 	andeq	r0, r1, r0
    129c:	0002cc54 	andeq	ip, r2, r4, asr ip
    12a0:	0002d800 	andeq	sp, r2, r0, lsl #16
    12a4:	74000300 	strvc	r0, [r0], #-768	; 0x300
    12a8:	02d89f01 	sbcseq	r9, r8, #1, 30
    12ac:	04ac0000 	strteq	r0, [ip], #0
    12b0:	00010000 	andeq	r0, r1, r0
    12b4:	0004ac54 	andeq	sl, r4, r4, asr ip
    12b8:	0004b800 	andeq	fp, r4, r0, lsl #16
    12bc:	74000300 	strvc	r0, [r0], #-768	; 0x300
    12c0:	04b89f01 	ldrteq	r9, [r8], #3841	; 0xf01
    12c4:	04e40000 	strbteq	r0, [r4], #0
    12c8:	00010000 	andeq	r0, r1, r0
    12cc:	0004e454 	andeq	lr, r4, r4, asr r4
    12d0:	0004f000 	andeq	pc, r4, r0
    12d4:	50000100 	andpl	r0, r0, r0, lsl #2
    12d8:	000004f0 	strdeq	r0, [r0], -r0	; <UNPREDICTABLE>
    12dc:	000004f8 	strdeq	r0, [r0], -r8
    12e0:	01740003 	cmneq	r4, r3
    12e4:	0000009f 	muleq	r0, pc, r0	; <UNPREDICTABLE>
    12e8:	00000000 	andeq	r0, r0, r0
    12ec:	00029c00 	andeq	r9, r2, r0, lsl #24
    12f0:	0004f800 	andeq	pc, r4, r0, lsl #16
    12f4:	58000100 	stmdapl	r0, {r8}
    12f8:	000004f8 	strdeq	r0, [r0], -r8
    12fc:	0000050c 	andeq	r0, r0, ip, lsl #10
    1300:	01f3000a 	mvnseq	r0, sl
    1304:	5001f351 	andpl	pc, r1, r1, asr r3	; <UNPREDICTABLE>
    1308:	9f1c3122 	svcls	0x001c3122
	...
    1314:	000003e0 	andeq	r0, r0, r0, ror #7
    1318:	000003e4 	andeq	r0, r0, r4, ror #7
    131c:	04500001 	ldrbeq	r0, [r0], #-1
    1320:	08000004 	stmdaeq	r0, {r2}
    1324:	01000004 	tsteq	r0, r4
    1328:	04285000 	strteq	r5, [r8], #-0
    132c:	042c0000 	strteq	r0, [ip], #-0
    1330:	00010000 	andeq	r0, r1, r0
    1334:	00044c50 	andeq	r4, r4, r0, asr ip
    1338:	00045000 	andeq	r5, r4, r0
    133c:	50000100 	andpl	r0, r0, r0, lsl #2
    1340:	00000458 	andeq	r0, r0, r8, asr r4
    1344:	0000045c 	andeq	r0, r0, ip, asr r4
    1348:	7c500001 	mrrcvc	0, 0, r0, r0, cr1	; <UNPREDICTABLE>
    134c:	80000004 	andhi	r0, r0, r4
    1350:	01000004 	tsteq	r0, r4
    1354:	04a45000 	strteq	r5, [r4], #0
    1358:	04cc0000 	strbeq	r0, [ip], #0
    135c:	00010000 	andeq	r0, r1, r0
    1360:	00000050 	andeq	r0, r0, r0, asr r0
    1364:	00000000 	andeq	r0, r0, r0
    1368:	0002e000 	andeq	lr, r2, r0
    136c:	0002e800 	andeq	lr, r2, r0, lsl #16
    1370:	30000200 	andcc	r0, r0, r0, lsl #4
    1374:	0002e89f 	muleq	r2, pc, r8	; <UNPREDICTABLE>
    1378:	0002ec00 	andeq	lr, r2, r0, lsl #24
    137c:	57000100 	strpl	r0, [r0, -r0, lsl #2]
    1380:	000002f8 	strdeq	r0, [r0], -r8
    1384:	000004cc 	andeq	r0, r0, ip, asr #9
    1388:	00570001 	subseq	r0, r7, r1
    138c:	00000000 	andeq	r0, r0, r0
    1390:	14000000 	strne	r0, [r0], #-0
    1394:	1c000000 	stcne	0, cr0, [r0], {-0}
    1398:	03000000 	movweq	r0, #0
    139c:	9f047300 	svcls	0x00047300
    13a0:	0000001c 	andeq	r0, r0, ip, lsl r0
    13a4:	00000027 	andeq	r0, r0, r7, lsr #32
    13a8:	00530001 	subseq	r0, r3, r1
    13ac:	00000000 	andeq	r0, r0, r0
    13b0:	24000000 	strcs	r0, [r0], #-0
    13b4:	28000096 	stmdacs	r0, {r1, r2, r4, r7}
    13b8:	02000096 	andeq	r0, r0, #150	; 0x96
    13bc:	289f3000 	ldmcs	pc, {ip, sp}	; <UNPREDICTABLE>
    13c0:	2c000096 	stccs	0, cr0, [r0], {150}	; 0x96
    13c4:	01000096 	swpeq	r0, r6, [r0]	; <UNPREDICTABLE>
    13c8:	00005000 	andeq	r5, r0, r0
    13cc:	00000000 	andeq	r0, r0, r0
    13d0:	963c0000 	ldrtls	r0, [ip], -r0
    13d4:	96400000 	strbls	r0, [r0], -r0
    13d8:	00020000 	andeq	r0, r2, r0
    13dc:	96409f30 			; <UNDEFINED> instruction: 0x96409f30
    13e0:	96440000 	strbls	r0, [r4], -r0
    13e4:	00010000 	andeq	r0, r1, r0
    13e8:	00964853 	addseq	r4, r6, r3, asr r8
    13ec:	00965000 	addseq	r5, r6, r0
    13f0:	53000100 	movwpl	r0, #256	; 0x100
	...
    1400:	00000004 	andeq	r0, r0, r4
    1404:	04500001 	ldrbeq	r0, [r0], #-1
    1408:	0c000000 	stceq	0, cr0, [r0], {-0}
    140c:	01000000 	mrseq	r0, (UNDEF: 0)
    1410:	000c5300 	andeq	r5, ip, r0, lsl #6
    1414:	00100000 	andseq	r0, r0, r0
    1418:	00010000 	andeq	r0, r1, r0
    141c:	00001050 	andeq	r1, r0, r0, asr r0
    1420:	00001c00 	andeq	r1, r0, r0, lsl #24
    1424:	53000100 	movwpl	r0, #256	; 0x100
	...
    1430:	0000003c 	andeq	r0, r0, ip, lsr r0
    1434:	00000047 	andeq	r0, r0, r7, asr #32
    1438:	47500001 	ldrbmi	r0, [r0, -r1]
    143c:	60000000 	andvs	r0, r0, r0
    1440:	01000000 	mrseq	r0, (UNDEF: 0)
    1444:	00005500 	andeq	r5, r0, r0, lsl #10
    1448:	00000000 	andeq	r0, r0, r0
    144c:	00500000 	subseq	r0, r0, r0
    1450:	00540000 	subseq	r0, r4, r0
    1454:	00010000 	andeq	r0, r1, r0
    1458:	00000050 	andeq	r0, r0, r0, asr r0
    145c:	00000000 	andeq	r0, r0, r0
    1460:	00006000 	andeq	r6, r0, r0
    1464:	00006c00 	andeq	r6, r0, r0, lsl #24
    1468:	50000100 	andpl	r0, r0, r0, lsl #2
    146c:	0000006c 	andeq	r0, r0, ip, rrx
    1470:	00000074 	andeq	r0, r0, r4, ror r0
    1474:	01f30004 	mvnseq	r0, r4
    1478:	00009f50 	andeq	r9, r0, r0, asr pc
    147c:	00000000 	andeq	r0, r0, r0
    1480:	00740000 	rsbseq	r0, r4, r0
    1484:	00800000 	addeq	r0, r0, r0
    1488:	00010000 	andeq	r0, r1, r0
    148c:	00008050 	andeq	r8, r0, r0, asr r0
    1490:	00008800 	andeq	r8, r0, r0, lsl #16
    1494:	f3000400 	vshl.u8	d0, d0, d0
    1498:	009f5001 	addseq	r5, pc, r1
    149c:	00000000 	andeq	r0, r0, r0
    14a0:	38000000 	stmdacc	r0, {}	; <UNPREDICTABLE>
    14a4:	43000001 	movwmi	r0, #1
    14a8:	01000001 	tsteq	r0, r1
    14ac:	01435000 	mrseq	r5, (UNDEF: 67)
    14b0:	01680000 	cmneq	r8, r0
    14b4:	00010000 	andeq	r0, r1, r0
    14b8:	00000054 	andeq	r0, r0, r4, asr r0
	...
    14c4:	00000f00 	andeq	r0, r0, r0, lsl #30
    14c8:	50000100 	andpl	r0, r0, r0, lsl #2
    14cc:	0000000f 	andeq	r0, r0, pc
    14d0:	00000020 	andeq	r0, r0, r0, lsr #32
    14d4:	00540001 	subseq	r0, r4, r1
	...
    14e0:	0f000000 	svceq	0x00000000
    14e4:	01000000 	mrseq	r0, (UNDEF: 0)
    14e8:	000f5100 	andeq	r5, pc, r0, lsl #2
    14ec:	00200000 	eoreq	r0, r0, r0
    14f0:	00010000 	andeq	r0, r1, r0
    14f4:	00000055 	andeq	r0, r0, r5, asr r0
    14f8:	00000000 	andeq	r0, r0, r0
    14fc:	0000ec00 	andeq	lr, r0, r0, lsl #24
    1500:	00010400 	andeq	r0, r1, r0, lsl #8
    1504:	50000100 	andpl	r0, r0, r0, lsl #2
    1508:	00000104 	andeq	r0, r0, r4, lsl #2
    150c:	00000114 	andeq	r0, r0, r4, lsl r1
    1510:	01f30004 	mvnseq	r0, r4
    1514:	01149f50 	tsteq	r4, r0, asr pc
    1518:	01180000 	tsteq	r8, r0
    151c:	00010000 	andeq	r0, r1, r0
    1520:	00011850 	andeq	r1, r1, r0, asr r8
    1524:	00012000 	andeq	r2, r1, r0
    1528:	f3000400 	vshl.u8	d0, d0, d0
    152c:	009f5001 	addseq	r5, pc, r1
    1530:	00000000 	andeq	r0, r0, r0
    1534:	f8000000 			; <UNDEFINED> instruction: 0xf8000000
    1538:	04000000 	streq	r0, [r0], #-0
    153c:	0b000001 	bleq	1548 <_start-0x6ab8>
    1540:	35007000 	strcc	r7, [r0, #-0]
    1544:	80b42325 	adcshi	r2, r4, r5, lsr #6
    1548:	9f028180 	svcls	0x00028180
    154c:	00000104 	andeq	r0, r0, r4, lsl #2
    1550:	00000107 	andeq	r0, r0, r7, lsl #2
    1554:	07500001 	ldrbeq	r0, [r0, -r1]
    1558:	14000001 	strne	r0, [r0], #-1
    155c:	0c000001 	stceq	0, cr0, [r0], {1}
    1560:	5001f300 	andpl	pc, r1, r0, lsl #6
    1564:	b4232535 	strtlt	r2, [r3], #-1333	; 0x535
    1568:	02818080 	addeq	r8, r1, #128	; 0x80
    156c:	0000009f 	muleq	r0, pc, r0	; <UNPREDICTABLE>
    1570:	00000000 	andeq	r0, r0, r0
    1574:	0000fc00 	andeq	pc, r0, r0, lsl #24
    1578:	00011400 	andeq	r1, r1, r0, lsl #8
    157c:	54000100 	strpl	r0, [r0], #-256	; 0x100
	...
    1588:	000000d0 	ldrdeq	r0, [r0], -r0	; <UNPREDICTABLE>
    158c:	000000df 	ldrdeq	r0, [r0], -pc	; <UNPREDICTABLE>
    1590:	df500001 	svcle	0x00500001
    1594:	e4000000 	str	r0, [r0], #-0
    1598:	04000000 	streq	r0, [r0], #-0
    159c:	5001f300 	andpl	pc, r1, r0, lsl #6
    15a0:	0000e49f 	muleq	r0, pc, r4	; <UNPREDICTABLE>
    15a4:	0000e700 	andeq	lr, r0, r0, lsl #14
    15a8:	50000100 	andpl	r0, r0, r0, lsl #2
    15ac:	000000e7 	andeq	r0, r0, r7, ror #1
    15b0:	000000ec 	andeq	r0, r0, ip, ror #1
    15b4:	01f30004 	mvnseq	r0, r4
    15b8:	00009f50 	andeq	r9, r0, r0, asr pc
    15bc:	00000000 	andeq	r0, r0, r0
    15c0:	00d00000 	sbcseq	r0, r0, r0
    15c4:	00df0000 	sbcseq	r0, pc, r0
    15c8:	00010000 	andeq	r0, r1, r0
    15cc:	0000df51 	andeq	sp, r0, r1, asr pc
    15d0:	0000e400 	andeq	lr, r0, r0, lsl #8
    15d4:	f3000400 	vshl.u8	d0, d0, d0
    15d8:	e49f5101 	ldr	r5, [pc], #257	; 15e0 <_start-0x6a20>
    15dc:	e7000000 	str	r0, [r0, -r0]
    15e0:	01000000 	mrseq	r0, (UNDEF: 0)
    15e4:	00e75100 	rsceq	r5, r7, r0, lsl #2
    15e8:	00ec0000 	rsceq	r0, ip, r0
    15ec:	00040000 	andeq	r0, r4, r0
    15f0:	9f5101f3 	svcls	0x005101f3
	...
    15fc:	000000c0 	andeq	r0, r0, r0, asr #1
    1600:	000000cb 	andeq	r0, r0, fp, asr #1
    1604:	cb500001 	blgt	1401610 <__bss_end__+0x13f6c58>
    1608:	d0000000 	andle	r0, r0, r0
    160c:	04000000 	streq	r0, [r0], #-0
    1610:	5001f300 	andpl	pc, r1, r0, lsl #6
    1614:	0000009f 	muleq	r0, pc, r0	; <UNPREDICTABLE>
    1618:	00000000 	andeq	r0, r0, r0
    161c:	00009c00 	andeq	r9, r0, r0, lsl #24
    1620:	0000b400 	andeq	fp, r0, r0, lsl #8
    1624:	50000100 	andpl	r0, r0, r0, lsl #2
    1628:	000000b4 	strheq	r0, [r0], -r4
    162c:	000000c0 	andeq	r0, r0, r0, asr #1
    1630:	01f30004 	mvnseq	r0, r4
    1634:	00009f50 	andeq	r9, r0, r0, asr pc
    1638:	00000000 	andeq	r0, r0, r0
    163c:	00780000 	rsbseq	r0, r8, r0
    1640:	00900000 	addseq	r0, r0, r0
    1644:	00010000 	andeq	r0, r1, r0
    1648:	00009050 	andeq	r9, r0, r0, asr r0
    164c:	00009c00 	andeq	r9, r0, r0, lsl #24
    1650:	f3000400 	vshl.u8	d0, d0, d0
    1654:	009f5001 	addseq	r5, pc, r1
    1658:	00000000 	andeq	r0, r0, r0
    165c:	68000000 	stmdavs	r0, {}	; <UNPREDICTABLE>
    1660:	73000000 	movwvc	r0, #0
    1664:	01000000 	mrseq	r0, (UNDEF: 0)
    1668:	00735000 	rsbseq	r5, r3, r0
    166c:	00780000 	rsbseq	r0, r8, r0
    1670:	00040000 	andeq	r0, r4, r0
    1674:	9f5001f3 	svcls	0x005001f3
	...
    1684:	00000048 	andeq	r0, r0, r8, asr #32
    1688:	48500001 	ldmdami	r0, {r0}^
    168c:	68000000 	stmdavs	r0, {}	; <UNPREDICTABLE>
    1690:	04000000 	streq	r0, [r0], #-0
    1694:	5001f300 	andpl	pc, r1, r0, lsl #6
    1698:	0000009f 	muleq	r0, pc, r0	; <UNPREDICTABLE>
	...
    16a4:	00004b00 	andeq	r4, r0, r0, lsl #22
    16a8:	51000100 	mrspl	r0, (UNDEF: 16)
    16ac:	0000004b 	andeq	r0, r0, fp, asr #32
    16b0:	00000068 	andeq	r0, r0, r8, rrx
    16b4:	01f30004 	mvnseq	r0, r4
    16b8:	00009f51 	andeq	r9, r0, r1, asr pc
    16bc:	00000000 	andeq	r0, r0, r0
    16c0:	004c0000 	subeq	r0, ip, r0
    16c4:	00540000 	subseq	r0, r4, r0
    16c8:	00010000 	andeq	r0, r1, r0
    16cc:	00005450 	andeq	r5, r0, r0, asr r4
    16d0:	00005800 	andeq	r5, r0, r0, lsl #16
    16d4:	75000900 	strvc	r0, [r0, #-2304]	; 0x900
    16d8:	24007400 	strcs	r7, [r0], #-1024	; 0x400
    16dc:	9f210071 	svcls	0x00210071
    16e0:	00000058 	andeq	r0, r0, r8, asr r0
    16e4:	0000005f 	andeq	r0, r0, pc, asr r0
    16e8:	00510001 	subseq	r0, r1, r1
    16ec:	00000000 	andeq	r0, r0, r0
    16f0:	e0000000 	and	r0, r0, r0
    16f4:	1b000000 	blne	16fc <_start-0x6904>
    16f8:	01000001 	tsteq	r0, r1
    16fc:	011b5000 	tsteq	fp, r0
    1700:	01200000 	teqeq	r0, r0
    1704:	00040000 	andeq	r0, r4, r0
    1708:	9f5001f3 	svcls	0x005001f3
    170c:	00000120 	andeq	r0, r0, r0, lsr #2
    1710:	00000123 	andeq	r0, r0, r3, lsr #2
    1714:	23500001 	cmpcs	r0, #1
    1718:	3c000001 	stccc	0, cr0, [r0], {1}
    171c:	04000001 	streq	r0, [r0], #-1
    1720:	5001f300 	andpl	pc, r1, r0, lsl #6
    1724:	00013c9f 	muleq	r1, pc, ip	; <UNPREDICTABLE>
    1728:	00013f00 	andeq	r3, r1, r0, lsl #30
    172c:	50000100 	andpl	r0, r0, r0, lsl #2
    1730:	0000013f 	andeq	r0, r0, pc, lsr r1
    1734:	0000016c 	andeq	r0, r0, ip, ror #2
    1738:	01f30004 	mvnseq	r0, r4
    173c:	00009f50 	andeq	r9, r0, r0, asr pc
    1740:	00000000 	andeq	r0, r0, r0
    1744:	00e00000 	rsceq	r0, r0, r0
    1748:	01080000 	mrseq	r0, (UNDEF: 8)
    174c:	00010000 	andeq	r0, r1, r0
    1750:	00010851 	andeq	r0, r1, r1, asr r8
    1754:	00011b00 	andeq	r1, r1, r0, lsl #22
    1758:	71000300 	mrsvc	r0, LR_irq
    175c:	011b9f01 	tsteq	fp, r1, lsl #30
    1760:	01200000 	teqeq	r0, r0
    1764:	00040000 	andeq	r0, r4, r0
    1768:	9f5101f3 	svcls	0x005101f3
    176c:	00000120 	andeq	r0, r0, r0, lsr #2
    1770:	00000123 	andeq	r0, r0, r3, lsr #2
    1774:	23510001 	cmpcs	r1, #1
    1778:	6c000001 	stcvs	0, cr0, [r0], {1}
    177c:	04000001 	streq	r0, [r0], #-1
    1780:	5101f300 	mrspl	pc, SP_irq	; <UNPREDICTABLE>
    1784:	0000009f 	muleq	r0, pc, r0	; <UNPREDICTABLE>
    1788:	00000000 	andeq	r0, r0, r0
    178c:	0000f800 	andeq	pc, r0, r0, lsl #16
    1790:	0000fc00 	andeq	pc, r0, r0, lsl #24
    1794:	52000100 	andpl	r0, r0, #0, 2
    1798:	000000fc 	strdeq	r0, [r0], -ip
    179c:	00000104 	andeq	r0, r0, r4, lsl #2
    17a0:	b8030005 	stmdalt	r3, {r0, r2}
    17a4:	0400009b 	streq	r0, [r0], #-155	; 0x9b
    17a8:	1b000001 	blne	17b4 <_start-0x684c>
    17ac:	01000001 	tsteq	r0, r1
    17b0:	013c5300 	teqeq	ip, r0, lsl #6
    17b4:	013f0000 	teqeq	pc, r0
    17b8:	00010000 	andeq	r0, r1, r0
    17bc:	00000053 	andeq	r0, r0, r3, asr r0
    17c0:	00000000 	andeq	r0, r0, r0
    17c4:	00006c00 	andeq	r6, r0, r0, lsl #24
    17c8:	00008000 	andeq	r8, r0, r0
    17cc:	50000100 	andpl	r0, r0, r0, lsl #2
    17d0:	00000080 	andeq	r0, r0, r0, lsl #1
    17d4:	0000009b 	muleq	r0, fp, r0
    17d8:	9b520001 	blls	14817e4 <__bss_end__+0x1476e2c>
    17dc:	a4000000 	strge	r0, [r0], #-0
    17e0:	09000000 	stmdbeq	r0, {}	; <UNPREDICTABLE>
    17e4:	5001f300 	andpl	pc, r1, r0, lsl #6
    17e8:	f8090723 			; <UNDEFINED> instruction: 0xf8090723
    17ec:	00a49f1a 	adceq	r9, r4, sl, lsl pc
    17f0:	00a70000 	adceq	r0, r7, r0
    17f4:	00010000 	andeq	r0, r1, r0
    17f8:	0000a750 	andeq	sl, r0, r0, asr r7
    17fc:	0000d000 	andeq	sp, r0, r0
    1800:	f3000400 	vshl.u8	d0, d0, d0
    1804:	009f5001 	addseq	r5, pc, r1
    1808:	00000000 	andeq	r0, r0, r0
    180c:	88000000 	stmdahi	r0, {}	; <UNPREDICTABLE>
    1810:	a4000000 	strge	r0, [r0], #-0
    1814:	01000000 	mrseq	r0, (UNDEF: 0)
    1818:	00005400 	andeq	r5, r0, r0, lsl #8
    181c:	00000000 	andeq	r0, r0, r0
    1820:	001c0000 	andseq	r0, ip, r0
    1824:	00430000 	subeq	r0, r3, r0
    1828:	00010000 	andeq	r0, r1, r0
    182c:	00004350 	andeq	r4, r0, r0, asr r3
    1830:	00006c00 	andeq	r6, r0, r0, lsl #24
    1834:	f3000400 	vshl.u8	d0, d0, d0
    1838:	009f5001 	addseq	r5, pc, r1
    183c:	00000000 	andeq	r0, r0, r0
    1840:	1c000000 	stcne	0, cr0, [r0], {-0}
    1844:	43000000 	movwmi	r0, #0
    1848:	01000000 	mrseq	r0, (UNDEF: 0)
    184c:	00435000 	subeq	r5, r3, r0
    1850:	006c0000 	rsbeq	r0, ip, r0
    1854:	00040000 	andeq	r0, r4, r0
    1858:	9f5001f3 	svcls	0x005001f3
	...

Disassembly of section .debug_aranges:

00000000 <.debug_aranges>:
   0:	0000001c 	andeq	r0, r0, ip, lsl r0
   4:	00000002 	andeq	r0, r0, r2
   8:	00040000 	andeq	r0, r4, r0
   c:	00000000 	andeq	r0, r0, r0
  10:	00008010 	andeq	r8, r0, r0, lsl r0
  14:	000000b4 	strheq	r0, [r0], -r4
	...
  20:	0000001c 	andeq	r0, r0, ip, lsl r0
  24:	02b30002 	adcseq	r0, r3, #2
  28:	00040000 	andeq	r0, r4, r0
  2c:	00000000 	andeq	r0, r0, r0
  30:	000080c4 	andeq	r8, r0, r4, asr #1
  34:	0000078c 	andeq	r0, r0, ip, lsl #15
	...
  40:	0000001c 	andeq	r0, r0, ip, lsl r0
  44:	113e0002 	teqne	lr, r2
  48:	00040000 	andeq	r0, r4, r0
  4c:	00000000 	andeq	r0, r0, r0
  50:	00008850 	andeq	r8, r0, r0, asr r8
  54:	0000068c 	andeq	r0, r0, ip, lsl #13
	...
  60:	0000001c 	andeq	r0, r0, ip, lsl r0
  64:	1eaf0002 	cdpne	0, 10, cr0, cr15, cr2, {0}
  68:	00040000 	andeq	r0, r4, r0
  6c:	00000000 	andeq	r0, r0, r0
  70:	00008ee4 	andeq	r8, r0, r4, ror #29
  74:	000000f0 	strdeq	r0, [r0], -r0	; <UNPREDICTABLE>
	...
  80:	0000001c 	andeq	r0, r0, ip, lsl r0
  84:	1fc50002 	svcne	0x00c50002
  88:	00040000 	andeq	r0, r4, r0
  8c:	00000000 	andeq	r0, r0, r0
  90:	00008fd4 	ldrdeq	r8, [r0], -r4
  94:	00000020 	andeq	r0, r0, r0, lsr #32
	...
  a0:	0000001c 	andeq	r0, r0, ip, lsl r0
  a4:	20a40002 	adccs	r0, r4, r2
  a8:	00040000 	andeq	r0, r4, r0
  ac:	00000000 	andeq	r0, r0, r0
  b0:	00008ff4 	strdeq	r8, [r0], -r4
  b4:	00000058 	andeq	r0, r0, r8, asr r0
	...
  c0:	0000001c 	andeq	r0, r0, ip, lsl r0
  c4:	22390002 	eorscs	r0, r9, #2
  c8:	00040000 	andeq	r0, r4, r0
  cc:	00000000 	andeq	r0, r0, r0
  d0:	0000904c 	andeq	r9, r0, ip, asr #32
  d4:	0000003c 	andeq	r0, r0, ip, lsr r0
	...
  e0:	0000001c 	andeq	r0, r0, ip, lsl r0
  e4:	23500002 	cmpcs	r0, #2
  e8:	00040000 	andeq	r0, r4, r0
  ec:	00000000 	andeq	r0, r0, r0
  f0:	00009088 	andeq	r9, r0, r8, lsl #1
  f4:	00000034 	andeq	r0, r0, r4, lsr r0
	...
 100:	0000001c 	andeq	r0, r0, ip, lsl r0
 104:	24420002 	strbcs	r0, [r2], #-2
 108:	00040000 	andeq	r0, r4, r0
 10c:	00000000 	andeq	r0, r0, r0
 110:	000090bc 	strheq	r9, [r0], -ip
 114:	0000050c 	andeq	r0, r0, ip, lsl #10
	...
 120:	0000001c 	andeq	r0, r0, ip, lsl r0
 124:	2ac70002 	bcs	ff1c0134 <__bss_end__+0xff1b577c>
 128:	00040000 	andeq	r0, r4, r0
 12c:	00000000 	andeq	r0, r0, r0
 130:	000095c8 	andeq	r9, r0, r8, asr #11
 134:	00000028 	andeq	r0, r0, r8, lsr #32
	...
 140:	0000001c 	andeq	r0, r0, ip, lsl r0
 144:	2bca0002 	blcs	ff280154 <__bss_end__+0xff27579c>
 148:	00040000 	andeq	r0, r4, r0
 14c:	00000000 	andeq	r0, r0, r0
 150:	000095f0 	strdeq	r9, [r0], -r0
 154:	00000034 	andeq	r0, r0, r4, lsr r0
	...
 160:	0000001c 	andeq	r0, r0, ip, lsl r0
 164:	2ccd0002 	stclcs	0, cr0, [sp], {2}
 168:	00040000 	andeq	r0, r4, r0
 16c:	00000000 	andeq	r0, r0, r0
 170:	00009624 	andeq	r9, r0, r4, lsr #12
 174:	00000074 	andeq	r0, r0, r4, ror r0
	...
 180:	0000001c 	andeq	r0, r0, ip, lsl r0
 184:	2e7e0002 	cdpcs	0, 7, cr0, cr14, cr2, {0}
 188:	00040000 	andeq	r0, r4, r0
 18c:	00000000 	andeq	r0, r0, r0
 190:	00009698 	muleq	r0, r8, r6
 194:	00000088 	andeq	r0, r0, r8, lsl #1
	...
 1a0:	0000001c 	andeq	r0, r0, ip, lsl r0
 1a4:	305a0002 	subscc	r0, sl, r2
 1a8:	00040000 	andeq	r0, r4, r0
 1ac:	00000000 	andeq	r0, r0, r0
 1b0:	0000976c 	andeq	r9, r0, ip, ror #14
 1b4:	00000178 	andeq	r0, r0, r8, ror r1
	...
 1c0:	0000001c 	andeq	r0, r0, ip, lsl r0
 1c4:	3d230002 	stccc	0, cr0, [r3, #-8]!
 1c8:	00040000 	andeq	r0, r4, r0
 1cc:	00000000 	andeq	r0, r0, r0
 1d0:	000098e4 	andeq	r9, r0, r4, ror #17
 1d4:	00000120 	andeq	r0, r0, r0, lsr #2
	...
 1e0:	0000001c 	andeq	r0, r0, ip, lsl r0
 1e4:	48970002 	ldmmi	r7, {r1}
 1e8:	00040000 	andeq	r0, r4, r0
 1ec:	00000000 	andeq	r0, r0, r0
 1f0:	00009a04 	andeq	r9, r0, r4, lsl #20
 1f4:	00000194 	muleq	r0, r4, r1
	...

Disassembly of section .debug_ranges:

00000000 <.debug_ranges>:
   0:	00000004 	andeq	r0, r0, r4
   4:	00000008 	andeq	r0, r0, r8
   8:	0000000c 	andeq	r0, r0, ip
   c:	00000060 	andeq	r0, r0, r0, rrx
	...
  18:	0000000c 	andeq	r0, r0, ip
  1c:	00000020 	andeq	r0, r0, r0, lsr #32
  20:	00000024 	andeq	r0, r0, r4, lsr #32
  24:	00000050 	andeq	r0, r0, r0, asr r0
  28:	00000054 	andeq	r0, r0, r4, asr r0
  2c:	00000058 	andeq	r0, r0, r8, asr r0
	...
  38:	00000618 	andeq	r0, r0, r8, lsl r6
  3c:	00000624 	andeq	r0, r0, r4, lsr #12
  40:	00000628 	andeq	r0, r0, r8, lsr #12
  44:	000006a0 	andeq	r0, r0, r0, lsr #13
	...
  50:	00000358 	andeq	r0, r0, r8, asr r3
  54:	0000036c 	andeq	r0, r0, ip, ror #6
  58:	00000370 	andeq	r0, r0, r0, ror r3
  5c:	0000037c 	andeq	r0, r0, ip, ror r3
	...
  68:	00000400 	andeq	r0, r0, r0, lsl #8
  6c:	0000040c 	andeq	r0, r0, ip, lsl #8
  70:	00000428 	andeq	r0, r0, r8, lsr #8
  74:	00000460 	andeq	r0, r0, r0, ror #8
	...
  80:	000002a8 	andeq	r0, r0, r8, lsr #5
  84:	000002ac 	andeq	r0, r0, ip, lsr #5
  88:	000002dc 	ldrdeq	r0, [r0], -ip
  8c:	000004cc 	andeq	r0, r0, ip, asr #9
	...
  98:	00009624 	andeq	r9, r0, r4, lsr #12
  9c:	00009698 	muleq	r0, r8, r6
	...

Disassembly of section .debug_line:

00000000 <.debug_line>:
       0:	00000192 	muleq	r0, r2, r1
       4:	014c0002 	cmpeq	ip, r2
       8:	01020000 	mrseq	r0, (UNDEF: 2)
       c:	000d0efb 	strdeq	r0, [sp], -fp
      10:	01010101 	tsteq	r1, r1, lsl #2
      14:	01000000 	mrseq	r0, (UNDEF: 0)
      18:	74010000 	strvc	r0, [r1], #-0
      1c:	73747365 	cmnvc	r4, #-1811939327	; 0x94000001
      20:	73752f00 	cmnvc	r5, #0, 30
      24:	6f6c2f72 	svcvs	0x006c2f72
      28:	2f6c6163 	svccs	0x006c6163
      2c:	6c6c6543 	cfstr64vs	mvdx6, [ip], #-268	; 0xfffffef4
      30:	612f7261 	teqvs	pc, r1, ror #4
      34:	6e2d6d72 	mcrvs	13, 1, r6, cr13, cr2, {3}
      38:	2d656e6f 	stclcs	14, cr6, [r5, #-444]!	; 0xfffffe44
      3c:	69626165 	stmdbvs	r2!, {r0, r2, r5, r6, r8, sp, lr}^
      40:	382e342f 	stmdacc	lr!, {r0, r1, r2, r3, r5, sl, ip, sp}
      44:	632d332e 	teqvs	sp, #-1207959552	; 0xb8000000
      48:	30373173 	eorscc	r3, r7, r3, ror r1
      4c:	696c2f65 	stmdbvs	ip!, {r0, r2, r5, r6, r8, r9, sl, fp, sp}^
      50:	63672f62 	cmnvs	r7, #392	; 0x188
      54:	72612f63 	rsbvc	r2, r1, #396	; 0x18c
      58:	6f6e2d6d 	svcvs	0x006e2d6d
      5c:	652d656e 	strvs	r6, [sp, #-1390]!	; 0x56e
      60:	2f696261 	svccs	0x00696261
      64:	2e382e34 	mrccs	14, 1, r2, cr8, cr4, {1}
      68:	6e692f33 	mcrvs	15, 3, r2, cr9, cr3, {1}
      6c:	64756c63 	ldrbtvs	r6, [r5], #-3171	; 0xc63
      70:	002e0065 	eoreq	r0, lr, r5, rrx
      74:	7273752f 	rsbsvc	r7, r3, #197132288	; 0xbc00000
      78:	636f6c2f 	cmnvs	pc, #12032	; 0x2f00
      7c:	432f6c61 	teqmi	pc, #24832	; 0x6100
      80:	616c6c65 	cmnvs	ip, r5, ror #24
      84:	72612f72 	rsbvc	r2, r1, #456	; 0x1c8
      88:	6f6e2d6d 	svcvs	0x006e2d6d
      8c:	652d656e 	strvs	r6, [sp, #-1390]!	; 0x56e
      90:	2f696261 	svccs	0x00696261
      94:	2e382e34 	mrccs	14, 1, r2, cr8, cr4, {1}
      98:	73632d33 	cmnvc	r3, #3264	; 0xcc0
      9c:	65303731 	ldrvs	r3, [r0, #-1841]!	; 0x731
      a0:	6d72612f 	ldfvse	f6, [r2, #-188]!	; 0xffffff44
      a4:	6e6f6e2d 	cdpvs	14, 6, cr6, cr15, cr13, {1}
      a8:	61652d65 	cmnvs	r5, r5, ror #26
      ac:	692f6962 	stmdbvs	pc!, {r1, r5, r6, r8, fp, sp, lr}	; <UNPREDICTABLE>
      b0:	756c636e 	strbvc	r6, [ip, #-878]!	; 0x36e
      b4:	2f006564 	svccs	0x00006564
      b8:	72657355 	rsbvc	r7, r5, #1409286145	; 0x54000001
      bc:	72622f73 	rsbvc	r2, r2, #460	; 0x1cc
      c0:	6a6e6169 	bvs	1b9866c <__bss_end__+0x1b8dcb4>
      c4:	442f6e75 	strtmi	r6, [pc], #-3701	; cc <_start-0x7f34>
      c8:	746b7365 	strbtvc	r7, [fp], #-869	; 0x365
      cc:	732f706f 	teqvc	pc, #111	; 0x6f
      d0:	6f6f6863 	svcvs	0x006f6863
      d4:	70532f6c 	subsvc	r2, r3, ip, ror #30
      d8:	676e6972 			; <UNDEFINED> instruction: 0x676e6972
      dc:	30323931 	eorscc	r3, r2, r1, lsr r9
      e0:	3253432f 	subscc	r4, r3, #-1140850688	; 0xbc000000
      e4:	584c3034 	stmdapl	ip, {r2, r4, r5, ip, sp}^
      e8:	3273632f 	rsbscc	r6, r3, #-1140850688	; 0xbc000000
      ec:	786c3034 	stmdavc	ip!, {r2, r4, r5, ip, sp}^
      f0:	7330322d 	teqvc	r0, #-805306366	; 0xd0000002
      f4:	6c2f7270 	sfmvs	f7, 4, [pc], #-448	; ffffff3c <__bss_end__+0xffff5584>
      f8:	69706269 	ldmdbvs	r0!, {r0, r3, r5, r6, r9, sp, lr}^
      fc:	636e692f 	cmnvs	lr, #770048	; 0xbc000
     100:	6564756c 	strbvs	r7, [r4, #-1388]!	; 0x56c
     104:	61700000 	cmnvs	r0, r0
     108:	2d327472 	cfldrscs	mvf7, [r2, #-456]!	; 0xfffffe38
     10c:	74736574 	ldrbtvc	r6, [r3], #-1396	; 0x574
     110:	00632e33 	rsbeq	r2, r3, r3, lsr lr
     114:	73000001 	movwvc	r0, #1
     118:	65646474 	strbvs	r6, [r4, #-1140]!	; 0x474
     11c:	00682e66 	rsbeq	r2, r8, r6, ror #28
     120:	73000002 	movwvc	r0, #2
     124:	6e696474 	mcrvs	4, 3, r6, cr9, cr4, {3}
     128:	63672d74 	cmnvs	r7, #116, 26	; 0x1d00
     12c:	00682e63 	rsbeq	r2, r8, r3, ror #28
     130:	63000002 	movwvs	r0, #2
     134:	6c6c616b 	stfvse	f6, [ip], #-428	; 0xfffffe54
     138:	682e636f 	stmdavs	lr!, {r0, r1, r2, r3, r5, r6, r8, r9, sp, lr}
     13c:	00000300 	andeq	r0, r0, r0, lsl #6
     140:	69727473 	ldmdbvs	r2!, {r0, r1, r4, r5, r6, sl, ip, sp, lr}^
     144:	682e676e 	stmdavs	lr!, {r1, r2, r3, r5, r6, r8, r9, sl, sp, lr}
     148:	00000400 	andeq	r0, r0, r0, lsl #8
     14c:	2e697072 	mcrcs	0, 3, r7, cr9, cr2, {3}
     150:	00050068 	andeq	r0, r5, r8, rrx
     154:	05000000 	streq	r0, [r0, #-0]
     158:	00801002 	addeq	r1, r0, r2
     15c:	010a0300 	mrseq	r0, (UNDEF: 58)
     160:	83312c34 	teqhi	r1, #52, 24	; 0x3400
     164:	0402002c 	streq	r0, [r2], #-44	; 0x2c
     168:	02002f02 	andeq	r2, r0, #2, 30
     16c:	00bb0204 	adcseq	r0, fp, r4, lsl #4
     170:	67020402 	strvs	r0, [r2, -r2, lsl #8]
     174:	02040200 	andeq	r0, r4, #0, 4
     178:	0402002f 	streq	r0, [r2], #-47	; 0x2f
     17c:	02002a02 	andeq	r2, r0, #8192	; 0x2000
     180:	00330204 	eorseq	r0, r3, r4, lsl #4
     184:	29010402 	stmdbcs	r1, {r1, sl}
     188:	314a0c03 	cmpcc	sl, r3, lsl #24
     18c:	4c4d2f85 	mcrrmi	15, 8, r2, sp, cr5
     190:	000e0286 	andeq	r0, lr, r6, lsl #5
     194:	02b10101 	adcseq	r0, r1, #1073741824	; 0x40000000
     198:	00020000 	andeq	r0, r2, r0
     19c:	000001a4 	andeq	r0, r0, r4, lsr #3
     1a0:	0efb0102 	cdpeq	1, 15, cr0, cr11, cr2, {0}
     1a4:	0101000d 	tsteq	r1, sp
     1a8:	00000101 	andeq	r0, r0, r1, lsl #2
     1ac:	00000100 	andeq	r0, r0, r0, lsl #2
     1b0:	73752f01 	cmnvc	r5, #1, 30
     1b4:	6f6c2f72 	svcvs	0x006c2f72
     1b8:	2f6c6163 	svccs	0x006c6163
     1bc:	6c6c6543 	cfstr64vs	mvdx6, [ip], #-268	; 0xfffffef4
     1c0:	612f7261 	teqvs	pc, r1, ror #4
     1c4:	6e2d6d72 	mcrvs	13, 1, r6, cr13, cr2, {3}
     1c8:	2d656e6f 	stclcs	14, cr6, [r5, #-444]!	; 0xfffffe44
     1cc:	69626165 	stmdbvs	r2!, {r0, r2, r5, r6, r8, sp, lr}^
     1d0:	382e342f 	stmdacc	lr!, {r0, r1, r2, r3, r5, sl, ip, sp}
     1d4:	632d332e 	teqvs	sp, #-1207959552	; 0xb8000000
     1d8:	30373173 	eorscc	r3, r7, r3, ror r1
     1dc:	696c2f65 	stmdbvs	ip!, {r0, r2, r5, r6, r8, r9, sl, fp, sp}^
     1e0:	63672f62 	cmnvs	r7, #392	; 0x188
     1e4:	72612f63 	rsbvc	r2, r1, #396	; 0x18c
     1e8:	6f6e2d6d 	svcvs	0x006e2d6d
     1ec:	652d656e 	strvs	r6, [sp, #-1390]!	; 0x56e
     1f0:	2f696261 	svccs	0x00696261
     1f4:	2e382e34 	mrccs	14, 1, r2, cr8, cr4, {1}
     1f8:	6e692f33 	mcrvs	15, 3, r2, cr9, cr3, {1}
     1fc:	64756c63 	ldrbtvs	r6, [r5], #-3171	; 0xc63
     200:	552f0065 	strpl	r0, [pc, #-101]!	; 1a3 <_start-0x7e5d>
     204:	73726573 	cmnvc	r2, #482344960	; 0x1cc00000
     208:	6972622f 	ldmdbvs	r2!, {r0, r1, r2, r3, r5, r9, sp, lr}^
     20c:	756a6e61 	strbvc	r6, [sl, #-3681]!	; 0xe61
     210:	65442f6e 	strbvs	r2, [r4, #-3950]	; 0xf6e
     214:	6f746b73 	svcvs	0x00746b73
     218:	63732f70 	cmnvs	r3, #112, 30	; 0x1c0
     21c:	6c6f6f68 	stclvs	15, cr6, [pc], #-416	; 84 <_start-0x7f7c>
     220:	7270532f 	rsbsvc	r5, r0, #-1140850688	; 0xbc000000
     224:	31676e69 	cmncc	r7, r9, ror #28
     228:	2f303239 	svccs	0x00303239
     22c:	34325343 	ldrtcc	r5, [r2], #-835	; 0x343
     230:	2f584c30 	svccs	0x00584c30
     234:	34327363 	ldrtcc	r7, [r2], #-867	; 0x363
     238:	2d786c30 	ldclcs	12, cr6, [r8, #-192]!	; 0xffffff40
     23c:	70733032 	rsbsvc	r3, r3, r2, lsr r0
     240:	696c2f72 	stmdbvs	ip!, {r1, r4, r5, r6, r8, r9, sl, fp, sp}^
     244:	2f697062 	svccs	0x00697062
     248:	6c636e69 	stclvs	14, cr6, [r3], #-420	; 0xfffffe5c
     24c:	00656475 	rsbeq	r6, r5, r5, ror r4
     250:	7273752f 	rsbsvc	r7, r3, #197132288	; 0xbc00000
     254:	636f6c2f 	cmnvs	pc, #12032	; 0x2f00
     258:	432f6c61 	teqmi	pc, #24832	; 0x6100
     25c:	616c6c65 	cmnvs	ip, r5, ror #24
     260:	72612f72 	rsbvc	r2, r1, #456	; 0x1c8
     264:	6f6e2d6d 	svcvs	0x006e2d6d
     268:	652d656e 	strvs	r6, [sp, #-1390]!	; 0x56e
     26c:	2f696261 	svccs	0x00696261
     270:	2e382e34 	mrccs	14, 1, r2, cr8, cr4, {1}
     274:	73632d33 	cmnvc	r3, #3264	; 0xcc0
     278:	65303731 	ldrvs	r3, [r0, #-1841]!	; 0x731
     27c:	6d72612f 	ldfvse	f6, [r2, #-188]!	; 0xffffff44
     280:	6e6f6e2d 	cdpvs	14, 6, cr6, cr15, cr13, {1}
     284:	61652d65 	cmnvs	r5, r5, ror #26
     288:	692f6962 	stmdbvs	pc!, {r1, r5, r6, r8, fp, sp, lr}	; <UNPREDICTABLE>
     28c:	756c636e 	strbvc	r6, [ip, #-878]!	; 0x36e
     290:	2f006564 	svccs	0x00006564
     294:	72657355 	rsbvc	r7, r5, #1409286145	; 0x54000001
     298:	72622f73 	rsbvc	r2, r2, #460	; 0x1cc
     29c:	6a6e6169 	bvs	1b98848 <__bss_end__+0x1b8de90>
     2a0:	442f6e75 	strtmi	r6, [pc], #-3701	; 2a8 <_start-0x7d58>
     2a4:	746b7365 	strbtvc	r7, [fp], #-869	; 0x365
     2a8:	732f706f 	teqvc	pc, #111	; 0x6f
     2ac:	6f6f6863 	svcvs	0x006f6863
     2b0:	70532f6c 	subsvc	r2, r3, ip, ror #30
     2b4:	676e6972 			; <UNDEFINED> instruction: 0x676e6972
     2b8:	30323931 	eorscc	r3, r2, r1, lsr r9
     2bc:	3253432f 	subscc	r4, r3, #-1140850688	; 0xbc000000
     2c0:	584c3034 	stmdapl	ip, {r2, r4, r5, ip, sp}^
     2c4:	3273632f 	rsbscc	r6, r3, #-1140850688	; 0xbc000000
     2c8:	786c3034 	stmdavc	ip!, {r2, r4, r5, ip, sp}^
     2cc:	7330322d 	teqvc	r0, #-805306366	; 0xd0000002
     2d0:	6c2f7270 	sfmvs	f7, 4, [pc], #-448	; 118 <_start-0x7ee8>
     2d4:	69706269 	ldmdbvs	r0!, {r0, r3, r5, r6, r9, sp, lr}^
     2d8:	62696c2f 	rsbvs	r6, r9, #12032	; 0x2f00
     2dc:	63000063 	movwvs	r0, #99	; 0x63
     2e0:	6c6c616b 	stfvse	f6, [ip], #-428	; 0xfffffe54
     2e4:	632e636f 	teqvs	lr, #-1140850687	; 0xbc000001
     2e8:	00000000 	andeq	r0, r0, r0
     2ec:	6c616b63 	stclvs	11, cr6, [r1], #-396	; 0xfffffe74
     2f0:	2d636f6c 	stclcs	15, cr6, [r3, #-432]!	; 0xfffffe50
     2f4:	65746e69 	ldrbvs	r6, [r4, #-3689]!	; 0xe69
     2f8:	6c616e72 	stclvs	14, cr6, [r1], #-456	; 0xfffffe38
     2fc:	0000682e 	andeq	r6, r0, lr, lsr #16
     300:	74730000 	ldrbtvc	r0, [r3], #-0
     304:	66656464 	strbtvs	r6, [r5], -r4, ror #8
     308:	0100682e 	tsteq	r0, lr, lsr #16
     30c:	74730000 	ldrbtvc	r0, [r3], #-0
     310:	746e6964 	strbtvc	r6, [lr], #-2404	; 0x964
     314:	6363672d 	cmnvs	r3, #11796480	; 0xb40000
     318:	0100682e 	tsteq	r0, lr, lsr #16
     31c:	70720000 	rsbsvc	r0, r2, r0
     320:	00682e69 	rsbeq	r2, r8, r9, ror #28
     324:	73000002 	movwvc	r0, #2
     328:	6e697274 	mcrvs	2, 3, r7, cr9, cr4, {3}
     32c:	00682e67 	rsbeq	r2, r8, r7, ror #28
     330:	6c000003 	stcvs	0, cr0, [r0], {3}
     334:	2d636269 	sfmcs	f6, 2, [r3, #-420]!	; 0xfffffe5c
     338:	72747865 	rsbsvc	r7, r4, #6619136	; 0x650000
     33c:	00682e61 	rsbeq	r2, r8, r1, ror #28
     340:	00000004 	andeq	r0, r0, r4
     344:	c4020500 	strgt	r0, [r2], #-1280	; 0x500
     348:	03000080 	movweq	r0, #128	; 0x80
     34c:	4b680135 	blmi	1a00828 <__bss_end__+0x19f5e70>
     350:	03020467 	movweq	r0, #9319	; 0x2467
     354:	200800ca 	andcs	r0, r8, sl, asr #1
     358:	bbd967a0 	bllt	ff65a1e0 <__bss_end__+0xff64f828>
     35c:	b0030104 	andlt	r0, r3, r4, lsl #2
     360:	0047d67f 	subeq	sp, r7, pc, ror r6
     364:	06010402 	streq	r0, [r1], -r2, lsl #8
     368:	4750062e 	ldrbmi	r0, [r0, -lr, lsr #12]
     36c:	034bd76a 	movteq	sp, #46954	; 0xb76a
     370:	2f4b6658 	svccs	0x004b6658
     374:	4b2f2f2f 	blmi	bcc038 <__bss_end__+0xbc1680>
     378:	4b2f2f2f 	blmi	bcc03c <__bss_end__+0xbc1684>
     37c:	302f2f2f 	eorcc	r2, pc, pc, lsr #30
     380:	83854b31 	orrhi	r4, r5, #50176	; 0xc400
     384:	032f4f47 	teqeq	pc, #284	; 0x11c
     388:	304c2e17 	subcc	r2, ip, r7, lsl lr
     38c:	03020449 	movweq	r0, #9289	; 0x2449
     390:	044cd60e 	strbeq	sp, [ip], #-1550	; 0x60e
     394:	2e710301 	cdpcs	3, 7, cr0, cr1, cr1, {0}
     398:	b7039708 	strlt	r9, [r3, -r8, lsl #14]
     39c:	00672e7f 	rsbeq	r2, r7, pc, ror lr
     3a0:	06010402 	streq	r0, [r1], -r2, lsl #8
     3a4:	83d7064a 	bicshi	r0, r7, #77594624	; 0x4a00000
     3a8:	2f2f4b67 	svccs	0x002f4b67
     3ac:	00c8034b 	sbceq	r0, r8, fp, asr #6
     3b0:	0200a1d6 	andeq	sl, r0, #-2147483595	; 0x80000035
     3b4:	82060104 	andhi	r0, r6, #4, 2
     3b8:	31a0d706 	lslcc	sp, r6, #14
     3bc:	0402004c 	streq	r0, [r2], #-76	; 0x4c
     3c0:	06660601 	strbteq	r0, [r6], -r1, lsl #12
     3c4:	a0694bd9 	ldrdge	r4, [r9], #-185	; 0xffffff47	; <UNPREDICTABLE>
     3c8:	080e039f 	stmdaeq	lr, {r0, r1, r2, r3, r4, r7, r8, r9}
     3cc:	0200be58 	andeq	fp, r0, #88, 28	; 0x580
     3d0:	82060104 	andhi	r0, r6, #4, 2
     3d4:	4ba0d706 	blmi	fe835ff4 <__bss_end__+0xfe82b63c>
     3d8:	92084b31 	andls	r4, r8, #50176	; 0xc400
     3dc:	172a02bb 			; <UNDEFINED> instruction: 0x172a02bb
     3e0:	2f672f4b 	svccs	0x00672f4b
     3e4:	69674b4b 	stmdbvs	r7!, {r0, r1, r3, r6, r8, r9, fp, lr}^
     3e8:	03020469 	movweq	r0, #9321	; 0x2469
     3ec:	302e7fbb 	strhtcc	r7, [lr], -fp
     3f0:	c6030104 	strgt	r0, [r3], -r4, lsl #2
     3f4:	00682e00 	rsbeq	r2, r8, r0, lsl #28
     3f8:	06010402 	streq	r0, [r1], -r2, lsl #8
     3fc:	00d70682 	sbcseq	r0, r7, r2, lsl #13
     400:	06010402 	streq	r0, [r1], -r2, lsl #8
     404:	d8d80682 	ldmle	r8, {r1, r7, r9, sl}^
     408:	4b152202 	blmi	548c18 <__bss_end__+0x53e260>
     40c:	332fa067 	teqcc	pc, #103	; 0x67
     410:	c04c832f 	subgt	r8, ip, pc, lsr #6
     414:	36332d2b 	ldrtcc	r2, [r3], -fp, lsr #26
     418:	4a730333 	bmi	1cc10ec <__bss_end__+0x1cb6734>
     41c:	4b832f30 	blmi	fe0cc0e4 <__bss_end__+0xfe0c172c>
     420:	314b834c 	cmpcc	fp, ip, asr #6
     424:	00318383 	eorseq	r8, r1, r3, lsl #7
     428:	03010402 	movweq	r0, #5122	; 0x1402
     42c:	15039e6f 	strne	r9, [r3, #-3695]	; 0xe6f
     430:	9fd84b66 	svcls	0x00d84b66
     434:	2f25082f 	svccs	0x0025082f
     438:	30694c4b 	rsbcc	r4, r9, fp, asr #24
     43c:	852f2f67 	strhi	r2, [pc, #-3943]!	; fffff4dd <__bss_end__+0xffff4b25>
     440:	4c34454d 	cfldr32mi	mvfx4, [r4], #-308	; 0xfffffecc
     444:	0602672f 	streq	r6, [r2], -pc, lsr #14
     448:	1b010100 	blne	40850 <__bss_end__+0x35e98>
     44c:	02000002 	andeq	r0, r0, #2
     450:	0000f900 	andeq	pc, r0, r0, lsl #18
     454:	fb010200 	blx	40c5e <__bss_end__+0x362a6>
     458:	01000d0e 	tsteq	r0, lr, lsl #26
     45c:	00010101 	andeq	r0, r1, r1, lsl #2
     460:	00010000 	andeq	r0, r1, r0
     464:	752f0100 	strvc	r0, [pc, #-256]!	; 36c <_start-0x7c94>
     468:	6c2f7273 	sfmvs	f7, 4, [pc], #-460	; 2a4 <_start-0x7d5c>
     46c:	6c61636f 	stclvs	3, cr6, [r1], #-444	; 0xfffffe44
     470:	6c65432f 	stclvs	3, cr4, [r5], #-188	; 0xffffff44
     474:	2f72616c 	svccs	0x0072616c
     478:	2d6d7261 	sfmcs	f7, 2, [sp, #-388]!	; 0xfffffe7c
     47c:	656e6f6e 	strbvs	r6, [lr, #-3950]!	; 0xf6e
     480:	6261652d 	rsbvs	r6, r1, #188743680	; 0xb400000
     484:	2e342f69 	cdpcs	15, 3, cr2, cr4, cr9, {3}
     488:	2d332e38 	ldccs	14, cr2, [r3, #-224]!	; 0xffffff20
     48c:	37317363 	ldrcc	r7, [r1, -r3, ror #6]!
     490:	6c2f6530 	cfstr32vs	mvfx6, [pc], #-192	; 3d8 <_start-0x7c28>
     494:	672f6269 	strvs	r6, [pc, -r9, ror #4]!
     498:	612f6363 	teqvs	pc, r3, ror #6
     49c:	6e2d6d72 	mcrvs	13, 1, r6, cr13, cr2, {3}
     4a0:	2d656e6f 	stclcs	14, cr6, [r5, #-444]!	; 0xfffffe44
     4a4:	69626165 	stmdbvs	r2!, {r0, r2, r5, r6, r8, sp, lr}^
     4a8:	382e342f 	stmdacc	lr!, {r0, r1, r2, r3, r5, sl, ip, sp}
     4ac:	692f332e 	stmdbvs	pc!, {r1, r2, r3, r5, r8, r9, ip, sp}	; <UNPREDICTABLE>
     4b0:	756c636e 	strbvc	r6, [ip, #-878]!	; 0x36e
     4b4:	2f006564 	svccs	0x00006564
     4b8:	72657355 	rsbvc	r7, r5, #1409286145	; 0x54000001
     4bc:	72622f73 	rsbvc	r2, r2, #460	; 0x1cc
     4c0:	6a6e6169 	bvs	1b98a6c <__bss_end__+0x1b8e0b4>
     4c4:	442f6e75 	strtmi	r6, [pc], #-3701	; 4cc <_start-0x7b34>
     4c8:	746b7365 	strbtvc	r7, [fp], #-869	; 0x365
     4cc:	732f706f 	teqvc	pc, #111	; 0x6f
     4d0:	6f6f6863 	svcvs	0x006f6863
     4d4:	70532f6c 	subsvc	r2, r3, ip, ror #30
     4d8:	676e6972 			; <UNDEFINED> instruction: 0x676e6972
     4dc:	30323931 	eorscc	r3, r2, r1, lsr r9
     4e0:	3253432f 	subscc	r4, r3, #-1140850688	; 0xbc000000
     4e4:	584c3034 	stmdapl	ip, {r2, r4, r5, ip, sp}^
     4e8:	3273632f 	rsbscc	r6, r3, #-1140850688	; 0xbc000000
     4ec:	786c3034 	stmdavc	ip!, {r2, r4, r5, ip, sp}^
     4f0:	7330322d 	teqvc	r0, #-805306366	; 0xd0000002
     4f4:	6c2f7270 	sfmvs	f7, 4, [pc], #-448	; 33c <_start-0x7cc4>
     4f8:	69706269 	ldmdbvs	r0!, {r0, r3, r5, r6, r9, sp, lr}^
     4fc:	636e692f 	cmnvs	lr, #770048	; 0xbc000
     500:	6564756c 	strbvs	r7, [r4, #-1388]!	; 0x56c
     504:	6b630000 	blvs	18c050c <__bss_end__+0x18b5b54>
     508:	2e63672d 	cdpcs	7, 6, cr6, cr3, cr13, {1}
     50c:	00000063 	andeq	r0, r0, r3, rrx
     510:	64747300 	ldrbtvs	r7, [r4], #-768	; 0x300
     514:	2d746e69 	ldclcs	14, cr6, [r4, #-420]!	; 0xfffffe5c
     518:	2e636367 	cdpcs	3, 6, cr6, cr3, cr7, {3}
     51c:	00010068 	andeq	r0, r1, r8, rrx
     520:	616b6300 	cmnvs	fp, r0, lsl #6
     524:	636f6c6c 	cmnvs	pc, #108, 24	; 0x6c00
     528:	746e692d 	strbtvc	r6, [lr], #-2349	; 0x92d
     52c:	616e7265 	cmnvs	lr, r5, ror #4
     530:	00682e6c 	rsbeq	r2, r8, ip, ror #28
     534:	72000000 	andvc	r0, r0, #0
     538:	682e6970 	stmdavs	lr!, {r4, r5, r6, r8, fp, sp, lr}
     53c:	00000200 	andeq	r0, r0, r0, lsl #4
     540:	6c616b63 	stclvs	11, cr6, [r1], #-396	; 0xfffffe74
     544:	2e636f6c 	cdpcs	15, 6, cr6, cr3, cr12, {3}
     548:	00000068 	andeq	r0, r0, r8, rrx
     54c:	05000000 	streq	r0, [r0, #-0]
     550:	00885002 	addeq	r5, r8, r2
     554:	011b0300 	tsteq	fp, r0, lsl #6
     558:	04020013 	streq	r0, [r2], #-19
     55c:	82820601 	addhi	r0, r2, #1048576	; 0x100000
     560:	15039f06 	strne	r9, [r3, #-3846]	; 0xf06
     564:	2f694d4a 	svccs	0x00694d4a
     568:	31686730 	cmncc	r8, r0, lsr r7
     56c:	684c494b 	stmdavs	ip, {r0, r1, r3, r6, r8, fp, lr}^
     570:	04020030 	streq	r0, [r2], #-48	; 0x30
     574:	2e720301 	cdpcs	3, 7, cr0, cr2, cr1, {0}
     578:	2e160363 	cdpcs	3, 1, cr0, cr6, cr3, {3}
     57c:	4c2e3103 	stfmis	f3, [lr], #-12
     580:	03464c4b 	movteq	r4, #27723	; 0x6c4b
     584:	2930660b 	ldmdbcs	r0!, {r0, r1, r3, r9, sl, sp, lr}
     588:	67672f2b 	strbvs	r2, [r7, -fp, lsr #30]!
     58c:	002f4c9f 	mlaeq	pc, pc, ip, r4	; <UNPREDICTABLE>
     590:	06010402 	streq	r0, [r1], -r2, lsl #8
     594:	a067064a 	rsbge	r0, r7, sl, asr #12
     598:	02002f32 	andeq	r2, r0, #50, 30	; 0xc8
     59c:	71030104 	tstvc	r3, r4, lsl #2
     5a0:	4a120366 	bmi	481340 <__bss_end__+0x476988>
     5a4:	bca04b9f 	fstmiaxlt	r0!, {d4-d82}	;@ Deprecated
     5a8:	7fbc034c 	svcvc	0x00bc034c
     5ac:	00675808 	rsbeq	r5, r7, r8, lsl #16
     5b0:	06010402 	streq	r0, [r1], -r2, lsl #8
     5b4:	00d8064a 	sbcseq	r0, r8, sl, asr #12
     5b8:	06010402 	streq	r0, [r1], -r2, lsl #8
     5bc:	00d7064a 	sbcseq	r0, r7, sl, asr #12
     5c0:	06010402 	streq	r0, [r1], -r2, lsl #8
     5c4:	84dc064a 	ldrbhi	r0, [ip], #1610	; 0x64a
     5c8:	69686968 	stmdbvs	r8!, {r3, r5, r6, r8, fp, sp, lr}^
     5cc:	02008531 	andeq	r8, r0, #205520896	; 0xc400000
     5d0:	7a030104 	bvc	c09e8 <__bss_end__+0xb6030>
     5d4:	0402004a 	streq	r0, [r2], #-74	; 0x4a
     5d8:	2e730301 	cdpcs	3, 7, cr0, cr3, cr1, {0}
     5dc:	034a1503 	movteq	r1, #42243	; 0xa503
     5e0:	4dba00d2 	ldcmi	0, cr0, [sl, #840]!	; 0x348
     5e4:	02002d2f 	andeq	r2, r0, #3008	; 0xbc0
     5e8:	002f0204 	eoreq	r0, pc, r4, lsl #4
     5ec:	65020402 	strvs	r0, [r2, #-1026]	; 0x402
     5f0:	01040200 	mrseq	r0, R12_usr
     5f4:	50062e06 	andpl	r2, r6, r6, lsl #28
     5f8:	660a0367 	strvs	r0, [sl], -r7, ror #6
     5fc:	04020067 	streq	r0, [r2], #-103	; 0x67
     600:	00660601 	rsbeq	r0, r6, r1, lsl #12
     604:	06020402 	streq	r0, [r2], -r2, lsl #8
     608:	040200d9 	streq	r0, [r2], #-217	; 0xd9
     60c:	00676502 	rsbeq	r6, r7, r2, lsl #10
     610:	2d010402 	cfstrscs	mvf0, [r1, #-8]
     614:	696a6c50 	stmdbvs	sl!, {r4, r6, sl, fp, sp, lr}^
     618:	08380367 	ldmdaeq	r8!, {r0, r1, r2, r5, r6, r8, r9}
     61c:	4c4b4c3c 	mcrrmi	12, 3, r4, fp, cr12
     620:	660b0346 	strvs	r0, [fp], -r6, asr #6
     624:	2e79034b 	cdpcs	3, 7, cr0, cr9, cr11, {2}
     628:	6767672f 	strbvs	r6, [r7, -pc, lsr #14]!
     62c:	2fa19f30 	svccs	0x00a19f30
     630:	01040200 	mrseq	r0, R12_usr
     634:	03667503 	cmneq	r6, #12582912	; 0xc00000
     638:	4bf44a13 	blmi	ffd12e8c <__bss_end__+0xffd084d4>
     63c:	b0034cbc 			; <UNDEFINED> instruction: 0xb0034cbc
     640:	4b90087f 	blmi	fe402844 <__bss_end__+0xfe3f7e8c>
     644:	32314b2f 	eorscc	r4, r1, #48128	; 0xbc00
     648:	83d86713 	bicshi	r6, r8, #4980736	; 0x4c0000
     64c:	0883d883 	stmeq	r3, {r0, r1, r7, fp, ip, lr, pc}
     650:	67133240 	ldrvs	r3, [r3, -r0, asr #4]
     654:	4b4b84d8 	blmi	12e19bc <__bss_end__+0x12d7004>
     658:	08149fd8 	ldmdaeq	r4, {r3, r4, r6, r7, r8, r9, sl, fp, ip, pc}
     65c:	27032f3e 	smladxcs	r3, lr, pc, r2	; <UNPREDICTABLE>
     660:	2f2f3c08 	svccs	0x002f3c08
     664:	00020233 	andeq	r0, r2, r3, lsr r2
     668:	00de0101 	sbcseq	r0, lr, r1, lsl #2
     66c:	00020000 	andeq	r0, r2, r0
     670:	00000083 	andeq	r0, r0, r3, lsl #1
     674:	0efb0102 	cdpeq	1, 15, cr0, cr11, cr2, {0}
     678:	0101000d 	tsteq	r1, sp
     67c:	00000101 	andeq	r0, r0, r1, lsl #2
     680:	00000100 	andeq	r0, r0, r0, lsl #2
     684:	62696c01 	rsbvs	r6, r9, #256	; 0x100
     688:	752f0063 	strvc	r0, [pc, #-99]!	; 62d <_start-0x79d3>
     68c:	6c2f7273 	sfmvs	f7, 4, [pc], #-460	; 4c8 <_start-0x7b38>
     690:	6c61636f 	stclvs	3, cr6, [r1], #-444	; 0xfffffe44
     694:	6c65432f 	stclvs	3, cr4, [r5], #-188	; 0xffffff44
     698:	2f72616c 	svccs	0x0072616c
     69c:	2d6d7261 	sfmcs	f7, 2, [sp, #-388]!	; 0xfffffe7c
     6a0:	656e6f6e 	strbvs	r6, [lr, #-3950]!	; 0xf6e
     6a4:	6261652d 	rsbvs	r6, r1, #188743680	; 0xb400000
     6a8:	2e342f69 	cdpcs	15, 3, cr2, cr4, cr9, {3}
     6ac:	2d332e38 	ldccs	14, cr2, [r3, #-224]!	; 0xffffff20
     6b0:	37317363 	ldrcc	r7, [r1, -r3, ror #6]!
     6b4:	6c2f6530 	cfstr32vs	mvfx6, [pc], #-192	; 5fc <_start-0x7a04>
     6b8:	672f6269 	strvs	r6, [pc, -r9, ror #4]!
     6bc:	612f6363 	teqvs	pc, r3, ror #6
     6c0:	6e2d6d72 	mcrvs	13, 1, r6, cr13, cr2, {3}
     6c4:	2d656e6f 	stclcs	14, cr6, [r5, #-444]!	; 0xfffffe44
     6c8:	69626165 	stmdbvs	r2!, {r0, r2, r5, r6, r8, sp, lr}^
     6cc:	382e342f 	stmdacc	lr!, {r0, r1, r2, r3, r5, sl, ip, sp}
     6d0:	692f332e 	stmdbvs	pc!, {r1, r2, r3, r5, r8, r9, ip, sp}	; <UNPREDICTABLE>
     6d4:	756c636e 	strbvc	r6, [ip, #-878]!	; 0x36e
     6d8:	00006564 	andeq	r6, r0, r4, ror #10
     6dc:	68736168 	ldmdavs	r3!, {r3, r5, r6, r8, sp, lr}^
     6e0:	0100632e 	tsteq	r0, lr, lsr #6
     6e4:	74730000 	ldrbtvc	r0, [r3], #-0
     6e8:	746e6964 	strbtvc	r6, [lr], #-2404	; 0x964
     6ec:	6363672d 	cmnvs	r3, #11796480	; 0xb40000
     6f0:	0200682e 	andeq	r6, r0, #3014656	; 0x2e0000
     6f4:	00000000 	andeq	r0, r0, r0
     6f8:	8ee40205 	cdphi	2, 14, cr0, cr4, cr5, {0}
     6fc:	0e030000 	cdpeq	0, 0, cr0, cr3, cr0, {0}
     700:	84313001 	ldrthi	r3, [r1], #-1
     704:	0200312f 	andeq	r3, r0, #-1073741813	; 0xc000000b
     708:	002f0204 	eoreq	r0, pc, r4, lsl #4
     70c:	83020402 	movwhi	r0, #9218	; 0x2402
     710:	02040200 	andeq	r0, r4, #0, 4
     714:	04020083 	streq	r0, [r2], #-131	; 0x83
     718:	02002f02 	andeq	r2, r0, #2, 30
     71c:	002f0204 	eoreq	r0, pc, r4, lsl #4
     720:	29020402 	stmdbcs	r2, {r1, sl}
     724:	01040200 	mrseq	r0, R12_usr
     728:	03062e06 	movweq	r2, #28166	; 0x6e06
     72c:	83d74a09 	bicshi	r4, r7, #36864	; 0x9000
     730:	2f2f4b2f 	svccs	0x002f4b2f
     734:	2f2f2f83 	svccs	0x002f2f83
     738:	2f322f4b 	svccs	0x00322f4b
     73c:	2f2f2f2f 	svccs	0x002f2f2f
     740:	2e5a0330 	mrccs	3, 2, r0, cr10, cr0, {1}
     744:	022e2703 	eoreq	r2, lr, #786432	; 0xc0000
     748:	01010004 	tsteq	r1, r4
     74c:	000000ec 	andeq	r0, r0, ip, ror #1
     750:	00d00002 	sbcseq	r0, r0, r2
     754:	01020000 	mrseq	r0, (UNDEF: 2)
     758:	000d0efb 	strdeq	r0, [sp], -fp
     75c:	01010101 	tsteq	r1, r1, lsl #2
     760:	01000000 	mrseq	r0, (UNDEF: 0)
     764:	6c010000 	stcvs	0, cr0, [r1], {-0}
     768:	00636269 	rsbeq	r6, r3, r9, ror #4
     76c:	7273752f 	rsbsvc	r7, r3, #197132288	; 0xbc00000
     770:	636f6c2f 	cmnvs	pc, #12032	; 0x2f00
     774:	432f6c61 	teqmi	pc, #24832	; 0x6100
     778:	616c6c65 	cmnvs	ip, r5, ror #24
     77c:	72612f72 	rsbvc	r2, r1, #456	; 0x1c8
     780:	6f6e2d6d 	svcvs	0x006e2d6d
     784:	652d656e 	strvs	r6, [sp, #-1390]!	; 0x56e
     788:	2f696261 	svccs	0x00696261
     78c:	2e382e34 	mrccs	14, 1, r2, cr8, cr4, {1}
     790:	73632d33 	cmnvc	r3, #3264	; 0xcc0
     794:	65303731 	ldrvs	r3, [r0, #-1841]!	; 0x731
     798:	62696c2f 	rsbvs	r6, r9, #12032	; 0x2f00
     79c:	6363672f 	cmnvs	r3, #12320768	; 0xbc0000
     7a0:	6d72612f 	ldfvse	f6, [r2, #-188]!	; 0xffffff44
     7a4:	6e6f6e2d 	cdpvs	14, 6, cr6, cr15, cr13, {1}
     7a8:	61652d65 	cmnvs	r5, r5, ror #26
     7ac:	342f6962 	strtcc	r6, [pc], #-2402	; 7b4 <_start-0x784c>
     7b0:	332e382e 	teqcc	lr, #3014656	; 0x2e0000
     7b4:	636e692f 	cmnvs	lr, #770048	; 0xbc000
     7b8:	6564756c 	strbvs	r7, [r4, #-1388]!	; 0x56c
     7bc:	73752f00 	cmnvc	r5, #0, 30
     7c0:	6f6c2f72 	svcvs	0x006c2f72
     7c4:	2f6c6163 	svccs	0x006c6163
     7c8:	6c6c6543 	cfstr64vs	mvdx6, [ip], #-268	; 0xfffffef4
     7cc:	612f7261 	teqvs	pc, r1, ror #4
     7d0:	6e2d6d72 	mcrvs	13, 1, r6, cr13, cr2, {3}
     7d4:	2d656e6f 	stclcs	14, cr6, [r5, #-444]!	; 0xfffffe44
     7d8:	69626165 	stmdbvs	r2!, {r0, r2, r5, r6, r8, sp, lr}^
     7dc:	382e342f 	stmdacc	lr!, {r0, r1, r2, r3, r5, sl, ip, sp}
     7e0:	632d332e 	teqvs	sp, #-1207959552	; 0xb8000000
     7e4:	30373173 	eorscc	r3, r7, r3, ror r1
     7e8:	72612f65 	rsbvc	r2, r1, #404	; 0x194
     7ec:	6f6e2d6d 	svcvs	0x006e2d6d
     7f0:	652d656e 	strvs	r6, [sp, #-1390]!	; 0x56e
     7f4:	2f696261 	svccs	0x00696261
     7f8:	6c636e69 	stclvs	14, cr6, [r3], #-420	; 0xfffffe5c
     7fc:	00656475 	rsbeq	r6, r5, r5, ror r4
     800:	6d656d00 	stclvs	13, cr6, [r5, #-0]
     804:	2e746573 	mrccs	5, 3, r6, cr4, cr3, {3}
     808:	00010063 	andeq	r0, r1, r3, rrx
     80c:	64747300 	ldrbtvs	r7, [r4], #-768	; 0x300
     810:	2e666564 	cdpcs	5, 6, cr6, cr6, cr4, {3}
     814:	00020068 	andeq	r0, r2, r8, rrx
     818:	72747300 	rsbsvc	r7, r4, #0, 6
     81c:	2e676e69 	cdpcs	14, 6, cr6, cr7, cr9, {3}
     820:	00030068 	andeq	r0, r3, r8, rrx
     824:	05000000 	streq	r0, [r0, #-0]
     828:	008fd402 	addeq	sp, pc, r2, lsl #8
     82c:	4c131400 	cfldrsmi	mvf1, [r3], {-0}
     830:	0402002f 	streq	r0, [r2], #-47	; 0x2f
     834:	024d4901 	subeq	r4, sp, #16384	; 0x4000
     838:	01010002 	tsteq	r1, r2
     83c:	0000010c 	andeq	r0, r0, ip, lsl #2
     840:	00f50002 	rscseq	r0, r5, r2
     844:	01020000 	mrseq	r0, (UNDEF: 2)
     848:	000d0efb 	strdeq	r0, [sp], -fp
     84c:	01010101 	tsteq	r1, r1, lsl #2
     850:	01000000 	mrseq	r0, (UNDEF: 0)
     854:	6c010000 	stcvs	0, cr0, [r1], {-0}
     858:	00636269 	rsbeq	r6, r3, r9, ror #4
     85c:	7273752f 	rsbsvc	r7, r3, #197132288	; 0xbc00000
     860:	636f6c2f 	cmnvs	pc, #12032	; 0x2f00
     864:	432f6c61 	teqmi	pc, #24832	; 0x6100
     868:	616c6c65 	cmnvs	ip, r5, ror #24
     86c:	72612f72 	rsbvc	r2, r1, #456	; 0x1c8
     870:	6f6e2d6d 	svcvs	0x006e2d6d
     874:	652d656e 	strvs	r6, [sp, #-1390]!	; 0x56e
     878:	2f696261 	svccs	0x00696261
     87c:	2e382e34 	mrccs	14, 1, r2, cr8, cr4, {1}
     880:	73632d33 	cmnvc	r3, #3264	; 0xcc0
     884:	65303731 	ldrvs	r3, [r0, #-1841]!	; 0x731
     888:	62696c2f 	rsbvs	r6, r9, #12032	; 0x2f00
     88c:	6363672f 	cmnvs	r3, #12320768	; 0xbc0000
     890:	6d72612f 	ldfvse	f6, [r2, #-188]!	; 0xffffff44
     894:	6e6f6e2d 	cdpvs	14, 6, cr6, cr15, cr13, {1}
     898:	61652d65 	cmnvs	r5, r5, ror #26
     89c:	342f6962 	strtcc	r6, [pc], #-2402	; 8a4 <_start-0x775c>
     8a0:	332e382e 	teqcc	lr, #3014656	; 0x2e0000
     8a4:	636e692f 	cmnvs	lr, #770048	; 0xbc000
     8a8:	6564756c 	strbvs	r7, [r4, #-1388]!	; 0x56c
     8ac:	73552f00 	cmpvc	r5, #0, 30
     8b0:	2f737265 	svccs	0x00737265
     8b4:	61697262 	cmnvs	r9, r2, ror #4
     8b8:	6e756a6e 	vsubvs.f32	s13, s10, s29
     8bc:	7365442f 	cmnvc	r5, #788529152	; 0x2f000000
     8c0:	706f746b 	rsbvc	r7, pc, fp, ror #8
     8c4:	6863732f 	stmdavs	r3!, {r0, r1, r2, r3, r5, r8, r9, ip, sp, lr}^
     8c8:	2f6c6f6f 	svccs	0x006c6f6f
     8cc:	69727053 	ldmdbvs	r2!, {r0, r1, r4, r6, ip, sp, lr}^
     8d0:	3931676e 	ldmdbcc	r1!, {r1, r2, r3, r5, r6, r8, r9, sl, sp, lr}
     8d4:	432f3032 	teqmi	pc, #50	; 0x32
     8d8:	30343253 	eorscc	r3, r4, r3, asr r2
     8dc:	632f584c 	teqvs	pc, #76, 16	; 0x4c0000
     8e0:	30343273 	eorscc	r3, r4, r3, ror r2
     8e4:	322d786c 	eorcc	r7, sp, #108, 16	; 0x6c0000
     8e8:	72707330 	rsbsvc	r7, r0, #48, 6	; 0xc0000000
     8ec:	62696c2f 	rsbvs	r6, r9, #12032	; 0x2f00
     8f0:	692f6970 	stmdbvs	pc!, {r4, r5, r6, r8, fp, sp, lr}	; <UNPREDICTABLE>
     8f4:	756c636e 	strbvc	r6, [ip, #-878]!	; 0x36e
     8f8:	00006564 	andeq	r6, r0, r4, ror #10
     8fc:	6e697270 	mcrvs	2, 3, r7, cr9, cr0, {3}
     900:	632e6b74 	teqvs	lr, #116, 22	; 0x1d000
     904:	00000100 	andeq	r0, r0, r0, lsl #2
     908:	61647473 	smcvs	18243	; 0x4743
     90c:	682e6772 	stmdavs	lr!, {r1, r4, r5, r6, r8, r9, sl, sp, lr}
     910:	00000200 	andeq	r0, r0, r0, lsl #4
     914:	6975623c 	ldmdbvs	r5!, {r2, r3, r4, r5, r9, sp, lr}^
     918:	692d746c 	pushvs	{r2, r3, r5, r6, sl, ip, sp, lr}
     91c:	00003e6e 	andeq	r3, r0, lr, ror #28
     920:	70720000 	rsbsvc	r0, r2, r0
     924:	00682e69 	rsbeq	r2, r8, r9, ror #28
     928:	76000003 	strvc	r0, [r0], -r3
     92c:	72702d61 	rsbsvc	r2, r0, #6208	; 0x1840
     930:	6b746e69 	blvs	1d1c2dc <__bss_end__+0x1d11924>
     934:	0100682e 	tsteq	r0, lr, lsr #16
     938:	00000000 	andeq	r0, r0, r0
     93c:	8ff40205 	svchi	0x00f40205
     940:	6b170000 	blvs	5c0948 <__bss_end__+0x5b5f90>
     944:	0289bf4b 	addeq	fp, r9, #300	; 0x12c
     948:	0101000e 	tsteq	r1, lr
     94c:	00000094 	muleq	r0, r4, r0
     950:	007c0002 	rsbseq	r0, ip, r2
     954:	01020000 	mrseq	r0, (UNDEF: 2)
     958:	000d0efb 	strdeq	r0, [sp], -fp
     95c:	01010101 	tsteq	r1, r1, lsl #2
     960:	01000000 	mrseq	r0, (UNDEF: 0)
     964:	6c010000 	stcvs	0, cr0, [r1], {-0}
     968:	00636269 	rsbeq	r6, r3, r9, ror #4
     96c:	6573552f 	ldrbvs	r5, [r3, #-1327]!	; 0x52f
     970:	622f7372 	eorvs	r7, pc, #-939524095	; 0xc8000001
     974:	6e616972 	mcrvs	9, 3, r6, cr1, cr2, {3}
     978:	2f6e756a 	svccs	0x006e756a
     97c:	6b736544 	blvs	1cd9e94 <__bss_end__+0x1ccf4dc>
     980:	2f706f74 	svccs	0x00706f74
     984:	6f686373 	svcvs	0x00686373
     988:	532f6c6f 	teqpl	pc, #28416	; 0x6f00
     98c:	6e697270 	mcrvs	2, 3, r7, cr9, cr0, {3}
     990:	32393167 	eorscc	r3, r9, #-1073741799	; 0xc0000019
     994:	53432f30 	movtpl	r2, #16176	; 0x3f30
     998:	4c303432 	cfldrsmi	mvf3, [r0], #-200	; 0xffffff38
     99c:	73632f58 	cmnvc	r3, #88, 30	; 0x160
     9a0:	6c303432 	cfldrsvs	mvf3, [r0], #-200	; 0xffffff38
     9a4:	30322d78 	eorscc	r2, r2, r8, ror sp
     9a8:	2f727073 	svccs	0x00727073
     9ac:	7062696c 	rsbvc	r6, r2, ip, ror #18
     9b0:	6e692f69 	cdpvs	15, 6, cr2, cr9, cr9, {3}
     9b4:	64756c63 	ldrbtvs	r6, [r5], #-3171	; 0xc63
     9b8:	70000065 	andvc	r0, r0, r5, rrx
     9bc:	68637475 	stmdavs	r3!, {r0, r2, r4, r5, r6, sl, ip, sp, lr}^
     9c0:	632e7261 	teqvs	lr, #268435462	; 0x10000006
     9c4:	00000100 	andeq	r0, r0, r0, lsl #2
     9c8:	2e697072 	mcrcs	0, 3, r7, cr9, cr2, {3}
     9cc:	00020068 	andeq	r0, r2, r8, rrx
     9d0:	05000000 	streq	r0, [r0, #-0]
     9d4:	00904c02 	addseq	r4, r0, r2, lsl #24
     9d8:	6b4a1400 	blvs	12859e0 <__bss_end__+0x127b028>
     9dc:	0213bc13 	andseq	fp, r3, #4864	; 0x1300
     9e0:	01010008 	tsteq	r1, r8
     9e4:	000000a0 	andeq	r0, r0, r0, lsr #1
     9e8:	00790002 	rsbseq	r0, r9, r2
     9ec:	01020000 	mrseq	r0, (UNDEF: 2)
     9f0:	000d0efb 	strdeq	r0, [sp], -fp
     9f4:	01010101 	tsteq	r1, r1, lsl #2
     9f8:	01000000 	mrseq	r0, (UNDEF: 0)
     9fc:	6c010000 	stcvs	0, cr0, [r1], {-0}
     a00:	00636269 	rsbeq	r6, r3, r9, ror #4
     a04:	6573552f 	ldrbvs	r5, [r3, #-1327]!	; 0x52f
     a08:	622f7372 	eorvs	r7, pc, #-939524095	; 0xc8000001
     a0c:	6e616972 	mcrvs	9, 3, r6, cr1, cr2, {3}
     a10:	2f6e756a 	svccs	0x006e756a
     a14:	6b736544 	blvs	1cd9f2c <__bss_end__+0x1ccf574>
     a18:	2f706f74 	svccs	0x00706f74
     a1c:	6f686373 	svcvs	0x00686373
     a20:	532f6c6f 	teqpl	pc, #28416	; 0x6f00
     a24:	6e697270 	mcrvs	2, 3, r7, cr9, cr0, {3}
     a28:	32393167 	eorscc	r3, r9, #-1073741799	; 0xc0000019
     a2c:	53432f30 	movtpl	r2, #16176	; 0x3f30
     a30:	4c303432 	cfldrsmi	mvf3, [r0], #-200	; 0xffffff38
     a34:	73632f58 	cmnvc	r3, #88, 30	; 0x160
     a38:	6c303432 	cfldrsvs	mvf3, [r0], #-200	; 0xffffff38
     a3c:	30322d78 	eorscc	r2, r2, r8, ror sp
     a40:	2f727073 	svccs	0x00727073
     a44:	7062696c 	rsbvc	r6, r2, ip, ror #18
     a48:	6e692f69 	cdpvs	15, 6, cr2, cr9, cr9, {3}
     a4c:	64756c63 	ldrbtvs	r6, [r5], #-3171	; 0xc63
     a50:	70000065 	andvc	r0, r0, r5, rrx
     a54:	2e6b7475 	mcrcs	4, 3, r7, cr11, cr5, {3}
     a58:	00010063 	andeq	r0, r1, r3, rrx
     a5c:	69707200 	ldmdbvs	r0!, {r9, ip, sp, lr}^
     a60:	0200682e 	andeq	r6, r0, #3014656	; 0x2e0000
     a64:	00000000 	andeq	r0, r0, r0
     a68:	90880205 	addls	r0, r8, r5, lsl #4
     a6c:	4c150000 	ldcmi	0, cr0, [r5], {-0}
     a70:	0402002d 	streq	r0, [r2], #-45	; 0x2d
     a74:	02002f02 	andeq	r2, r0, #2, 30
     a78:	00490204 	subeq	r0, r9, r4, lsl #4
     a7c:	06010402 	streq	r0, [r1], -r2, lsl #8
     a80:	026b062e 	rsbeq	r0, fp, #48234496	; 0x2e00000
     a84:	01010006 	tsteq	r1, r6
     a88:	000001eb 	andeq	r0, r0, fp, ror #3
     a8c:	00e90002 	rsceq	r0, r9, r2
     a90:	01020000 	mrseq	r0, (UNDEF: 2)
     a94:	000d0efb 	strdeq	r0, [sp], -fp
     a98:	01010101 	tsteq	r1, r1, lsl #2
     a9c:	01000000 	mrseq	r0, (UNDEF: 0)
     aa0:	6c010000 	stcvs	0, cr0, [r1], {-0}
     aa4:	00636269 	rsbeq	r6, r3, r9, ror #4
     aa8:	7273752f 	rsbsvc	r7, r3, #197132288	; 0xbc00000
     aac:	636f6c2f 	cmnvs	pc, #12032	; 0x2f00
     ab0:	432f6c61 	teqmi	pc, #24832	; 0x6100
     ab4:	616c6c65 	cmnvs	ip, r5, ror #24
     ab8:	72612f72 	rsbvc	r2, r1, #456	; 0x1c8
     abc:	6f6e2d6d 	svcvs	0x006e2d6d
     ac0:	652d656e 	strvs	r6, [sp, #-1390]!	; 0x56e
     ac4:	2f696261 	svccs	0x00696261
     ac8:	2e382e34 	mrccs	14, 1, r2, cr8, cr4, {1}
     acc:	73632d33 	cmnvc	r3, #3264	; 0xcc0
     ad0:	65303731 	ldrvs	r3, [r0, #-1841]!	; 0x731
     ad4:	62696c2f 	rsbvs	r6, r9, #12032	; 0x2f00
     ad8:	6363672f 	cmnvs	r3, #12320768	; 0xbc0000
     adc:	6d72612f 	ldfvse	f6, [r2, #-188]!	; 0xffffff44
     ae0:	6e6f6e2d 	cdpvs	14, 6, cr6, cr15, cr13, {1}
     ae4:	61652d65 	cmnvs	r5, r5, ror #26
     ae8:	342f6962 	strtcc	r6, [pc], #-2402	; af0 <_start-0x7510>
     aec:	332e382e 	teqcc	lr, #3014656	; 0x2e0000
     af0:	636e692f 	cmnvs	lr, #770048	; 0xbc000
     af4:	6564756c 	strbvs	r7, [r4, #-1388]!	; 0x56c
     af8:	73552f00 	cmpvc	r5, #0, 30
     afc:	2f737265 	svccs	0x00737265
     b00:	61697262 	cmnvs	r9, r2, ror #4
     b04:	6e756a6e 	vsubvs.f32	s13, s10, s29
     b08:	7365442f 	cmnvc	r5, #788529152	; 0x2f000000
     b0c:	706f746b 	rsbvc	r7, pc, fp, ror #8
     b10:	6863732f 	stmdavs	r3!, {r0, r1, r2, r3, r5, r8, r9, ip, sp, lr}^
     b14:	2f6c6f6f 	svccs	0x006c6f6f
     b18:	69727053 	ldmdbvs	r2!, {r0, r1, r4, r6, ip, sp, lr}^
     b1c:	3931676e 	ldmdbcc	r1!, {r1, r2, r3, r5, r6, r8, r9, sl, sp, lr}
     b20:	432f3032 	teqmi	pc, #50	; 0x32
     b24:	30343253 	eorscc	r3, r4, r3, asr r2
     b28:	632f584c 	teqvs	pc, #76, 16	; 0x4c0000
     b2c:	30343273 	eorscc	r3, r4, r3, ror r2
     b30:	322d786c 	eorcc	r7, sp, #108, 16	; 0x6c0000
     b34:	72707330 	rsbsvc	r7, r0, #48, 6	; 0xc0000000
     b38:	62696c2f 	rsbvs	r6, r9, #12032	; 0x2f00
     b3c:	692f6970 	stmdbvs	pc!, {r4, r5, r6, r8, fp, sp, lr}	; <UNPREDICTABLE>
     b40:	756c636e 	strbvc	r6, [ip, #-878]!	; 0x36e
     b44:	00006564 	andeq	r6, r0, r4, ror #10
     b48:	702d6176 	eorvc	r6, sp, r6, ror r1
     b4c:	746e6972 	strbtvc	r6, [lr], #-2418	; 0x972
     b50:	00632e6b 	rsbeq	r2, r3, fp, ror #28
     b54:	73000001 	movwvc	r0, #1
     b58:	72616474 	rsbvc	r6, r1, #116, 8	; 0x74000000
     b5c:	00682e67 	rsbeq	r2, r8, r7, ror #28
     b60:	72000002 	andvc	r0, r0, #2
     b64:	682e6970 	stmdavs	lr!, {r4, r5, r6, r8, fp, sp, lr}
     b68:	00000300 	andeq	r0, r0, r0, lsl #6
     b6c:	6975623c 	ldmdbvs	r5!, {r2, r3, r4, r5, r9, sp, lr}^
     b70:	692d746c 	pushvs	{r2, r3, r5, r6, sl, ip, sp, lr}
     b74:	00003e6e 	andeq	r3, r0, lr, ror #28
     b78:	00000000 	andeq	r0, r0, r0
     b7c:	90bc0205 	adcsls	r0, ip, r5, lsl #4
     b80:	26030000 	strcs	r0, [r3], -r0
     b84:	13a50101 			; <UNDEFINED> instruction: 0x13a50101
     b88:	02002d31 	andeq	r2, r0, #3136	; 0xc40
     b8c:	002f0204 	eoreq	r0, pc, r4, lsl #4
     b90:	2d020402 	cfstrscs	mvf0, [r2, #-8]
     b94:	02040200 	andeq	r0, r4, #0, 4
     b98:	0402002f 	streq	r0, [r2], #-47	; 0x2f
     b9c:	4c4c2d01 	mcrrmi	13, 0, r2, ip, cr1
     ba0:	2f4b1430 	svccs	0x004b1430
     ba4:	0402004f 	streq	r0, [r2], #-79	; 0x4f
     ba8:	02006702 	andeq	r6, r0, #524288	; 0x80000
     bac:	4c650104 	stfmie	f0, [r5], #-16
     bb0:	2fa0304d 	svccs	0x00a0304d
     bb4:	26023031 			; <UNDEFINED> instruction: 0x26023031
     bb8:	2c2d8416 	cfstrscs	mvf8, [sp], #-88	; 0xffffffa8
     bbc:	01040200 	mrseq	r0, R12_usr
     bc0:	04020030 	streq	r0, [r2], #-48	; 0x30
     bc4:	66063301 	strvs	r3, [r6], -r1, lsl #6
     bc8:	01040200 	mrseq	r0, R12_usr
     bcc:	0402002e 	streq	r0, [r2], #-46	; 0x2e
     bd0:	21080601 	tstcs	r8, r1, lsl #12
     bd4:	73032f67 	movwvc	r2, #16231	; 0x3f67
     bd8:	2e130382 	cdpcs	3, 1, cr0, cr3, cr2, {4}
     bdc:	01040200 	mrseq	r0, R12_usr
     be0:	02006606 	andeq	r6, r0, #6291456	; 0x600000
     be4:	83060104 	movwhi	r0, #24836	; 0x6104
     be8:	31674b4b 	cmncc	r7, fp, asr #22
     bec:	2e65034b 	cdpcs	3, 6, cr0, cr5, cr11, {2}
     bf0:	002e2303 	eoreq	r2, lr, r3, lsl #6
     bf4:	06010402 	streq	r0, [r1], -r2, lsl #8
     bf8:	0402002e 	streq	r0, [r2], #-46	; 0x2e
     bfc:	009f0601 	addseq	r0, pc, r1, lsl #12
     c00:	6a010402 	bvs	41c10 <__bss_end__+0x37258>
     c04:	a403d7d9 	strge	sp, [r3], #-2009	; 0x7d9
     c08:	2f20087f 	svccs	0x0020087f
     c0c:	01040200 	mrseq	r0, R12_usr
     c10:	d7064a06 	strle	r4, [r6, -r6, lsl #20]
     c14:	dc032f4b 	stcle	15, cr2, [r3], {75}	; 0x4b
     c18:	4c83f200 	sfmmi	f7, 1, [r3], {0}
     c1c:	2e0e0348 	cdpcs	3, 0, cr0, cr14, cr8, {2}
     c20:	2f2e7503 	svccs	0x002e7503
     c24:	2f4b842f 	svccs	0x004b842f
     c28:	30314d2d 	eorscc	r4, r1, sp, lsr #26
     c2c:	0200832f 	andeq	r8, r0, #-1140850688	; 0xbc000000
     c30:	a22c0104 	eorge	r0, ip, #4, 2
     c34:	01040200 	mrseq	r0, R12_usr
     c38:	d8064a06 	stmdale	r6, {r1, r2, r9, fp, lr}
     c3c:	03163602 	tsteq	r6, #2097152	; 0x200000
     c40:	2108d60e 	tstcs	r8, lr, lsl #12
     c44:	f331f330 	vcge.u<illegal width 64>	d15, d1, d16
     c48:	4b30f330 	blmi	c3d910 <__bss_end__+0xc32f58>
     c4c:	0830f330 	ldmdaeq	r0!, {r4, r5, r8, r9, ip, sp, lr, pc}
     c50:	002f3123 	eoreq	r3, pc, r3, lsr #2
     c54:	65010402 	strvs	r0, [r1, #-1026]	; 0x402
     c58:	02040200 	andeq	r0, r4, #0, 4
     c5c:	02004a06 	andeq	r4, r0, #24576	; 0x6000
     c60:	03060104 	movweq	r0, #24836	; 0x6104
     c64:	02006642 	andeq	r6, r0, #69206016	; 0x4200000
     c68:	66060204 	strvs	r0, [r6], -r4, lsl #4
     c6c:	00c20306 	sbceq	r0, r2, r6, lsl #6
     c70:	1002684a 	andne	r6, r2, sl, asr #16
     c74:	9c010100 	stflss	f0, [r1], {-0}
     c78:	02000000 	andeq	r0, r0, #0
     c7c:	00008600 	andeq	r8, r0, r0, lsl #12
     c80:	fb010200 	blx	4148a <__bss_end__+0x36ad2>
     c84:	01000d0e 	tsteq	r0, lr, lsl #26
     c88:	00010101 	andeq	r0, r1, r1, lsl #2
     c8c:	00010000 	andeq	r0, r1, r0
     c90:	74730100 	ldrbtvc	r0, [r3], #-256	; 0x100
     c94:	2d666661 	stclcs	6, cr6, [r6, #-388]!	; 0xfffffe7c
     c98:	00637273 	rsbeq	r7, r3, r3, ror r2
     c9c:	6573552f 	ldrbvs	r5, [r3, #-1327]!	; 0x52f
     ca0:	622f7372 	eorvs	r7, pc, #-939524095	; 0xc8000001
     ca4:	6e616972 	mcrvs	9, 3, r6, cr1, cr2, {3}
     ca8:	2f6e756a 	svccs	0x006e756a
     cac:	6b736544 	blvs	1cda1c4 <__bss_end__+0x1ccf80c>
     cb0:	2f706f74 	svccs	0x00706f74
     cb4:	6f686373 	svcvs	0x00686373
     cb8:	532f6c6f 	teqpl	pc, #28416	; 0x6f00
     cbc:	6e697270 	mcrvs	2, 3, r7, cr9, cr0, {3}
     cc0:	32393167 	eorscc	r3, r9, #-1073741799	; 0xc0000019
     cc4:	53432f30 	movtpl	r2, #16176	; 0x3f30
     cc8:	4c303432 	cfldrsmi	mvf3, [r0], #-200	; 0xffffff38
     ccc:	73632f58 	cmnvc	r3, #88, 30	; 0x160
     cd0:	6c303432 	cfldrsvs	mvf3, [r0], #-200	; 0xffffff38
     cd4:	30322d78 	eorscc	r2, r2, r8, ror sp
     cd8:	2f727073 	svccs	0x00727073
     cdc:	7062696c 	rsbvc	r6, r2, ip, ror #18
     ce0:	6e692f69 	cdpvs	15, 6, cr2, cr9, cr9, {3}
     ce4:	64756c63 	ldrbtvs	r6, [r5], #-3171	; 0xc63
     ce8:	63000065 	movwvs	r0, #101	; 0x65
     cec:	6e61656c 	cdpvs	5, 6, cr6, cr1, cr12, {3}
     cf0:	6265722d 	rsbvs	r7, r5, #-805306366	; 0xd0000002
     cf4:	2e746f6f 	cdpcs	15, 7, cr6, cr4, cr15, {3}
     cf8:	00010063 	andeq	r0, r1, r3, rrx
     cfc:	69707200 	ldmdbvs	r0!, {r9, ip, sp, lr}^
     d00:	0200682e 	andeq	r6, r0, #3014656	; 0x2e0000
     d04:	00000000 	andeq	r0, r0, r0
     d08:	95c80205 	strbls	r0, [r8, #517]	; 0x205
     d0c:	2f150000 	svccs	0x00150000
     d10:	06024b83 	streq	r4, [r2], -r3, lsl #23
     d14:	a3010100 	movwge	r0, #4352	; 0x1100
     d18:	02000000 	andeq	r0, r0, #0
     d1c:	00008000 	andeq	r8, r0, r0
     d20:	fb010200 	blx	4152a <__bss_end__+0x36b72>
     d24:	01000d0e 	tsteq	r0, lr, lsl #26
     d28:	00010101 	andeq	r0, r1, r1, lsl #2
     d2c:	00010000 	andeq	r0, r1, r0
     d30:	74730100 	ldrbtvc	r0, [r3], #-256	; 0x100
     d34:	2d666661 	stclcs	6, cr6, [r6, #-388]!	; 0xfffffe7c
     d38:	00637273 	rsbeq	r7, r3, r3, ror r2
     d3c:	6573552f 	ldrbvs	r5, [r3, #-1327]!	; 0x52f
     d40:	622f7372 	eorvs	r7, pc, #-939524095	; 0xc8000001
     d44:	6e616972 	mcrvs	9, 3, r6, cr1, cr2, {3}
     d48:	2f6e756a 	svccs	0x006e756a
     d4c:	6b736544 	blvs	1cda264 <__bss_end__+0x1ccf8ac>
     d50:	2f706f74 	svccs	0x00706f74
     d54:	6f686373 	svcvs	0x00686373
     d58:	532f6c6f 	teqpl	pc, #28416	; 0x6f00
     d5c:	6e697270 	mcrvs	2, 3, r7, cr9, cr0, {3}
     d60:	32393167 	eorscc	r3, r9, #-1073741799	; 0xc0000019
     d64:	53432f30 	movtpl	r2, #16176	; 0x3f30
     d68:	4c303432 	cfldrsmi	mvf3, [r0], #-200	; 0xffffff38
     d6c:	73632f58 	cmnvc	r3, #88, 30	; 0x160
     d70:	6c303432 	cfldrsvs	mvf3, [r0], #-200	; 0xffffff38
     d74:	30322d78 	eorscc	r2, r2, r8, ror sp
     d78:	2f727073 	svccs	0x00727073
     d7c:	7062696c 	rsbvc	r6, r2, ip, ror #18
     d80:	6e692f69 	cdpvs	15, 6, cr2, cr9, cr9, {3}
     d84:	64756c63 	ldrbtvs	r6, [r5], #-3171	; 0xc63
     d88:	63000065 	movwvs	r0, #101	; 0x65
     d8c:	72617473 	rsbvc	r7, r1, #1929379840	; 0x73000000
     d90:	00632e74 	rsbeq	r2, r3, r4, ror lr
     d94:	72000001 	andvc	r0, r0, #1
     d98:	682e6970 	stmdavs	lr!, {r4, r5, r6, r8, fp, sp, lr}
     d9c:	00000200 	andeq	r0, r0, r0, lsl #4
     da0:	02050000 	andeq	r0, r5, #0
     da4:	000095f0 	strdeq	r9, [r0], -r0
     da8:	32010c03 	andcc	r0, r1, #768	; 0x300
     dac:	2f2d2f31 	svccs	0x002d2f31
     db0:	01040200 	mrseq	r0, R12_usr
     db4:	4a150349 	bmi	541ae0 <__bss_end__+0x537128>
     db8:	0006022f 	andeq	r0, r6, pc, lsr #4
     dbc:	00a20101 	adceq	r0, r2, r1, lsl #2
     dc0:	00020000 	andeq	r0, r2, r0
     dc4:	00000080 	andeq	r0, r0, r0, lsl #1
     dc8:	0efb0102 	cdpeq	1, 15, cr0, cr11, cr2, {0}
     dcc:	0101000d 	tsteq	r1, sp
     dd0:	00000101 	andeq	r0, r0, r1, lsl #2
     dd4:	00000100 	andeq	r0, r0, r0, lsl #2
     dd8:	61747301 	cmnvs	r4, r1, lsl #6
     ddc:	732d6666 	teqvc	sp, #106954752	; 0x6600000
     de0:	2f006372 	svccs	0x00006372
     de4:	72657355 	rsbvc	r7, r5, #1409286145	; 0x54000001
     de8:	72622f73 	rsbvc	r2, r2, #460	; 0x1cc
     dec:	6a6e6169 	bvs	1b99398 <__bss_end__+0x1b8e9e0>
     df0:	442f6e75 	strtmi	r6, [pc], #-3701	; df8 <_start-0x7208>
     df4:	746b7365 	strbtvc	r7, [fp], #-869	; 0x365
     df8:	732f706f 	teqvc	pc, #111	; 0x6f
     dfc:	6f6f6863 	svcvs	0x006f6863
     e00:	70532f6c 	subsvc	r2, r3, ip, ror #30
     e04:	676e6972 			; <UNDEFINED> instruction: 0x676e6972
     e08:	30323931 	eorscc	r3, r2, r1, lsr r9
     e0c:	3253432f 	subscc	r4, r3, #-1140850688	; 0xbc000000
     e10:	584c3034 	stmdapl	ip, {r2, r4, r5, ip, sp}^
     e14:	3273632f 	rsbscc	r6, r3, #-1140850688	; 0xbc000000
     e18:	786c3034 	stmdavc	ip!, {r2, r4, r5, ip, sp}^
     e1c:	7330322d 	teqvc	r0, #-805306366	; 0xd0000002
     e20:	6c2f7270 	sfmvs	f7, 4, [pc], #-448	; c68 <_start-0x7398>
     e24:	69706269 	ldmdbvs	r0!, {r0, r3, r5, r6, r9, sp, lr}^
     e28:	636e692f 	cmnvs	lr, #770048	; 0xbc000
     e2c:	6564756c 	strbvs	r7, [r4, #-1388]!	; 0x56c
     e30:	65720000 	ldrbvs	r0, [r2, #-0]!
     e34:	746f6f62 	strbtvc	r6, [pc], #-3938	; e3c <_start-0x71c4>
     e38:	0100632e 	tsteq	r0, lr, lsr #6
     e3c:	70720000 	rsbsvc	r0, r2, r0
     e40:	00682e69 	rsbeq	r2, r8, r9, ror #28
     e44:	00000002 	andeq	r0, r0, r2
     e48:	24020500 	strcs	r0, [r2], #-1280	; 0x500
     e4c:	03000096 	movweq	r0, #150	; 0x96
     e50:	3114010d 	tstcc	r4, sp, lsl #2
     e54:	2f15852f 	svccs	0x0015852f
     e58:	672f4d4b 	strvs	r4, [pc, -fp, asr #26]!
     e5c:	02675235 	rsbeq	r5, r7, #1342177283	; 0x50000003
     e60:	01010010 	tsteq	r1, r0, lsl r0
     e64:	000000ac 	andeq	r0, r0, ip, lsr #1
     e68:	007f0002 	rsbseq	r0, pc, r2
     e6c:	01020000 	mrseq	r0, (UNDEF: 2)
     e70:	000d0efb 	strdeq	r0, [sp], -fp
     e74:	01010101 	tsteq	r1, r1, lsl #2
     e78:	01000000 	mrseq	r0, (UNDEF: 0)
     e7c:	73010000 	movwvc	r0, #4096	; 0x1000
     e80:	66666174 			; <UNDEFINED> instruction: 0x66666174
     e84:	6372732d 	cmnvs	r2, #-1275068416	; 0xb4000000
     e88:	73552f00 	cmpvc	r5, #0, 30
     e8c:	2f737265 	svccs	0x00737265
     e90:	61697262 	cmnvs	r9, r2, ror #4
     e94:	6e756a6e 	vsubvs.f32	s13, s10, s29
     e98:	7365442f 	cmnvc	r5, #788529152	; 0x2f000000
     e9c:	706f746b 	rsbvc	r7, pc, fp, ror #8
     ea0:	6863732f 	stmdavs	r3!, {r0, r1, r2, r3, r5, r8, r9, ip, sp, lr}^
     ea4:	2f6c6f6f 	svccs	0x006c6f6f
     ea8:	69727053 	ldmdbvs	r2!, {r0, r1, r4, r6, ip, sp, lr}^
     eac:	3931676e 	ldmdbcc	r1!, {r1, r2, r3, r5, r6, r8, r9, sl, sp, lr}
     eb0:	432f3032 	teqmi	pc, #50	; 0x32
     eb4:	30343253 	eorscc	r3, r4, r3, asr r2
     eb8:	632f584c 	teqvs	pc, #76, 16	; 0x4c0000
     ebc:	30343273 	eorscc	r3, r4, r3, ror r2
     ec0:	322d786c 	eorcc	r7, sp, #108, 16	; 0x6c0000
     ec4:	72707330 	rsbsvc	r7, r0, #48, 6	; 0xc0000000
     ec8:	62696c2f 	rsbvs	r6, r9, #12032	; 0x2f00
     ecc:	692f6970 	stmdbvs	pc!, {r4, r5, r6, r8, fp, sp, lr}	; <UNPREDICTABLE>
     ed0:	756c636e 	strbvc	r6, [ip, #-878]!	; 0x36e
     ed4:	00006564 	andeq	r6, r0, r4, ror #10
     ed8:	656d6974 	strbvs	r6, [sp, #-2420]!	; 0x974
     edc:	00632e72 	rsbeq	r2, r3, r2, ror lr
     ee0:	72000001 	andvc	r0, r0, #1
     ee4:	682e6970 	stmdavs	lr!, {r4, r5, r6, r8, fp, sp, lr}
     ee8:	00000200 	andeq	r0, r0, r0, lsl #4
     eec:	02050000 	andeq	r0, r5, #0
     ef0:	00009698 	muleq	r0, r8, r6
     ef4:	2d2f1416 	cfstrscs	mvf1, [pc, #-88]!	; ea4 <_start-0x715c>
     ef8:	01040200 	mrseq	r0, R12_usr
     efc:	6d062e06 	stcvs	14, cr2, [r6, #-24]	; 0xffffffe8
     f00:	4d4b2f31 	stclmi	15, cr2, [fp, #-196]	; 0xffffff3c
     f04:	4b303132 	blmi	c0d3d4 <__bss_end__+0xc02a1c>
     f08:	2f6a2f4c 	svccs	0x006a2f4c
     f0c:	022f842f 	eoreq	r8, pc, #788529152	; 0x2f000000
     f10:	01010008 	tsteq	r1, r8
     f14:	00000148 	andeq	r0, r0, r8, asr #2
     f18:	01020002 	tsteq	r2, r2
     f1c:	01020000 	mrseq	r0, (UNDEF: 2)
     f20:	000d0efb 	strdeq	r0, [sp], -fp
     f24:	01010101 	tsteq	r1, r1, lsl #2
     f28:	01000000 	mrseq	r0, (UNDEF: 0)
     f2c:	2f010000 	svccs	0x00010000
     f30:	2f727375 	svccs	0x00727375
     f34:	6c636e69 	stclvs	14, cr6, [r3], #-420	; 0xfffffe5c
     f38:	2f656475 	svccs	0x00656475
     f3c:	6c77656e 	cfldr64vs	mvdx6, [r7], #-440	; 0xfffffe48
     f40:	732f6269 	teqvc	pc, #-1879048186	; 0x90000006
     f44:	2f007379 	svccs	0x00007379
     f48:	2f727375 	svccs	0x00727375
     f4c:	2f62696c 	svccs	0x0062696c
     f50:	2f636367 	svccs	0x00636367
     f54:	2d6d7261 	sfmcs	f7, 2, [sp, #-388]!	; 0xfffffe7c
     f58:	656e6f6e 	strbvs	r6, [lr, #-3950]!	; 0xf6e
     f5c:	6261652d 	rsbvs	r6, r1, #188743680	; 0xb400000
     f60:	2e362f69 	cdpcs	15, 3, cr2, cr6, cr9, {3}
     f64:	2f312e33 	svccs	0x00312e33
     f68:	6c636e69 	stclvs	14, cr6, [r3], #-420	; 0xfffffe5c
     f6c:	00656475 	rsbeq	r6, r5, r5, ror r4
     f70:	6d6f682f 	stclvs	8, cr6, [pc, #-188]!	; ebc <_start-0x7144>
     f74:	6e652f65 	cdpvs	15, 6, cr2, cr5, cr5, {3}
     f78:	72656c67 	rsbvc	r6, r5, #26368	; 0x6700
     f7c:	616c632f 	cmnvs	ip, pc, lsr #6
     f80:	632f7373 	teqvs	pc, #-872415231	; 0xcc000001
     f84:	30343273 	eorscc	r3, r4, r3, ror r2
     f88:	322d786c 	eorcc	r7, sp, #108, 16	; 0x6c0000
     f8c:	72707330 	rsbsvc	r7, r0, #48, 6	; 0xc0000000
     f90:	696c2f2f 	stmdbvs	ip!, {r0, r1, r2, r3, r5, r8, r9, sl, fp, sp}^
     f94:	00697062 	rsbeq	r7, r9, r2, rrx
     f98:	6d6f682f 	stclvs	8, cr6, [pc, #-188]!	; ee4 <_start-0x711c>
     f9c:	6e652f65 	cdpvs	15, 6, cr2, cr5, cr5, {3}
     fa0:	72656c67 	rsbvc	r6, r5, #26368	; 0x6700
     fa4:	616c632f 	cmnvs	ip, pc, lsr #6
     fa8:	632f7373 	teqvs	pc, #-872415231	; 0xcc000001
     fac:	30343273 	eorscc	r3, r4, r3, ror r2
     fb0:	322d786c 	eorcc	r7, sp, #108, 16	; 0x6c0000
     fb4:	72707330 	rsbsvc	r7, r0, #48, 6	; 0xc0000000
     fb8:	696c2f2f 	stmdbvs	ip!, {r0, r1, r2, r3, r5, r8, r9, sl, fp, sp}^
     fbc:	2f697062 	svccs	0x00697062
     fc0:	66617473 			; <UNDEFINED> instruction: 0x66617473
     fc4:	72732d66 	rsbsvc	r2, r3, #6528	; 0x1980
     fc8:	75000063 	strvc	r0, [r0, #-99]	; 0x63
     fcc:	2e747261 	cdpcs	2, 7, cr7, cr4, cr1, {3}
     fd0:	00000063 	andeq	r0, r0, r3, rrx
     fd4:	636f6c00 	cmnvs	pc, #0, 24
     fd8:	00682e6b 	rsbeq	r2, r8, fp, ror #28
     fdc:	5f000001 	svcpl	0x00000001
     fe0:	65707974 	ldrbvs	r7, [r0, #-2420]!	; 0x974
     fe4:	00682e73 	rsbeq	r2, r8, r3, ror lr
     fe8:	73000001 	movwvc	r0, #1
     fec:	65646474 	strbvs	r6, [r4, #-1140]!	; 0x474
     ff0:	00682e66 	rsbeq	r2, r8, r6, ror #28
     ff4:	72000002 	andvc	r0, r0, #2
     ff8:	746e6565 	strbtvc	r6, [lr], #-1381	; 0x565
     ffc:	0100682e 	tsteq	r0, lr, lsr #16
    1000:	70720000 	rsbsvc	r0, r2, r0
    1004:	00682e69 	rsbeq	r2, r8, r9, ror #28
    1008:	75000003 	strvc	r0, [r0, #-3]
    100c:	2e747261 	cdpcs	2, 7, cr7, cr4, cr1, {3}
    1010:	00040068 	andeq	r0, r4, r8, rrx
    1014:	69706700 	ldmdbvs	r0!, {r8, r9, sl, sp, lr}^
    1018:	00682e6f 	rsbeq	r2, r8, pc, ror #28
    101c:	00000004 	andeq	r0, r0, r4
    1020:	6c020500 	cfstr32vs	mvfx0, [r2], {-0}
    1024:	03000097 	movweq	r0, #151	; 0x97
    1028:	0367012c 	cmneq	r7, #44, 2
    102c:	67359e0c 	ldrvs	r9, [r5, -ip, lsl #28]!
    1030:	03683568 	cmneq	r8, #104, 10	; 0x1a000000
    1034:	6b852e0c 	blvs	fe14c86c <__bss_end__+0xfe141eb4>
    1038:	0c036969 	stceq	9, cr6, [r3], {105}	; 0x69
    103c:	08676b66 	stmdaeq	r7!, {r1, r2, r5, r6, r8, r9, fp, sp, lr}^
    1040:	4b683442 	blmi	1a0e150 <__bss_end__+0x1a03798>
    1044:	2f876836 	svccs	0x00876836
    1048:	01040200 	mrseq	r0, R12_usr
    104c:	3067682f 	rsbcc	r6, r7, pc, lsr #16
    1050:	02004b67 	andeq	r4, r0, #105472	; 0x19c00
    1054:	682f0104 	stmdavs	pc!, {r2, r8}	; <UNPREDICTABLE>
    1058:	022e6967 	eoreq	r6, lr, #1687552	; 0x19c000
    105c:	01010006 	tsteq	r1, r6
    1060:	0000012b 	andeq	r0, r0, fp, lsr #2
    1064:	00f80002 	rscseq	r0, r8, r2
    1068:	01020000 	mrseq	r0, (UNDEF: 2)
    106c:	000d0efb 	strdeq	r0, [sp], -fp
    1070:	01010101 	tsteq	r1, r1, lsl #2
    1074:	01000000 	mrseq	r0, (UNDEF: 0)
    1078:	2f010000 	svccs	0x00010000
    107c:	2f727375 	svccs	0x00727375
    1080:	6c636e69 	stclvs	14, cr6, [r3], #-420	; 0xfffffe5c
    1084:	2f656475 	svccs	0x00656475
    1088:	6c77656e 	cfldr64vs	mvdx6, [r7], #-440	; 0xfffffe48
    108c:	732f6269 	teqvc	pc, #-1879048186	; 0x90000006
    1090:	2f007379 	svccs	0x00007379
    1094:	2f727375 	svccs	0x00727375
    1098:	2f62696c 	svccs	0x0062696c
    109c:	2f636367 	svccs	0x00636367
    10a0:	2d6d7261 	sfmcs	f7, 2, [sp, #-388]!	; 0xfffffe7c
    10a4:	656e6f6e 	strbvs	r6, [lr, #-3950]!	; 0xf6e
    10a8:	6261652d 	rsbvs	r6, r1, #188743680	; 0xb400000
    10ac:	2e362f69 	cdpcs	15, 3, cr2, cr6, cr9, {3}
    10b0:	2f312e33 	svccs	0x00312e33
    10b4:	6c636e69 	stclvs	14, cr6, [r3], #-420	; 0xfffffe5c
    10b8:	00656475 	rsbeq	r6, r5, r5, ror r4
    10bc:	6d6f682f 	stclvs	8, cr6, [pc, #-188]!	; 1008 <_start-0x6ff8>
    10c0:	6e652f65 	cdpvs	15, 6, cr2, cr5, cr5, {3}
    10c4:	72656c67 	rsbvc	r6, r5, #26368	; 0x6700
    10c8:	616c632f 	cmnvs	ip, pc, lsr #6
    10cc:	632f7373 	teqvs	pc, #-872415231	; 0xcc000001
    10d0:	30343273 	eorscc	r3, r4, r3, ror r2
    10d4:	322d786c 	eorcc	r7, sp, #108, 16	; 0x6c0000
    10d8:	72707330 	rsbsvc	r7, r0, #48, 6	; 0xc0000000
    10dc:	696c2f2f 	stmdbvs	ip!, {r0, r1, r2, r3, r5, r8, r9, sl, fp, sp}^
    10e0:	00697062 	rsbeq	r7, r9, r2, rrx
    10e4:	6d6f682f 	stclvs	8, cr6, [pc, #-188]!	; 1030 <_start-0x6fd0>
    10e8:	6e652f65 	cdpvs	15, 6, cr2, cr5, cr5, {3}
    10ec:	72656c67 	rsbvc	r6, r5, #26368	; 0x6700
    10f0:	616c632f 	cmnvs	ip, pc, lsr #6
    10f4:	632f7373 	teqvs	pc, #-872415231	; 0xcc000001
    10f8:	30343273 	eorscc	r3, r4, r3, ror r2
    10fc:	322d786c 	eorcc	r7, sp, #108, 16	; 0x6c0000
    1100:	72707330 	rsbsvc	r7, r0, #48, 6	; 0xc0000000
    1104:	696c2f2f 	stmdbvs	ip!, {r0, r1, r2, r3, r5, r8, r9, sl, fp, sp}^
    1108:	2f697062 	svccs	0x00697062
    110c:	66617473 			; <UNDEFINED> instruction: 0x66617473
    1110:	72732d66 	rsbsvc	r2, r3, #6528	; 0x1980
    1114:	67000063 	strvs	r0, [r0, -r3, rrx]
    1118:	2e6f6970 	mcrcs	9, 3, r6, cr15, cr0, {3}
    111c:	00000063 	andeq	r0, r0, r3, rrx
    1120:	636f6c00 	cmnvs	pc, #0, 24
    1124:	00682e6b 	rsbeq	r2, r8, fp, ror #28
    1128:	5f000001 	svcpl	0x00000001
    112c:	65707974 	ldrbvs	r7, [r0, #-2420]!	; 0x974
    1130:	00682e73 	rsbeq	r2, r8, r3, ror lr
    1134:	73000001 	movwvc	r0, #1
    1138:	65646474 	strbvs	r6, [r4, #-1140]!	; 0x474
    113c:	00682e66 	rsbeq	r2, r8, r6, ror #28
    1140:	72000002 	andvc	r0, r0, #2
    1144:	746e6565 	strbtvc	r6, [lr], #-1381	; 0x565
    1148:	0100682e 	tsteq	r0, lr, lsr #16
    114c:	70720000 	rsbsvc	r0, r2, r0
    1150:	00682e69 	rsbeq	r2, r8, r9, ror #28
    1154:	67000003 	strvs	r0, [r0, -r3]
    1158:	2e6f6970 	mcrcs	9, 3, r6, cr15, cr0, {3}
    115c:	00040068 	andeq	r0, r4, r8, rrx
    1160:	05000000 	streq	r0, [r0, #-0]
    1164:	0098e402 	addseq	lr, r8, r2, lsl #8
    1168:	01270300 	teqeq	r7, r0, lsl #6
    116c:	4f474c13 	svcmi	0x00474c13
    1170:	4c4b68f4 	mcrrmi	8, 15, r6, fp, cr4
    1174:	136a2fa1 	cmnne	sl, #644	; 0x284
    1178:	13be3149 			; <UNDEFINED> instruction: 0x13be3149
    117c:	2fbe3149 	svccs	0x00be3149
    1180:	484d2f6a 	stmdami	sp, {r1, r3, r5, r6, r8, r9, sl, fp, sp}^
    1184:	3249134f 	subcc	r1, r9, #1006632961	; 0x3c000001
    1188:	0602b72f 	streq	fp, [r2], -pc, lsr #14
    118c:	34010100 	strcc	r0, [r1], #-256	; 0x100
    1190:	02000001 	andeq	r0, r0, #1
    1194:	0000df00 	andeq	sp, r0, r0, lsl #30
    1198:	fb010200 	blx	419a2 <__bss_end__+0x36fea>
    119c:	01000d0e 	tsteq	r0, lr, lsl #26
    11a0:	00010101 	andeq	r0, r1, r1, lsl #2
    11a4:	00010000 	andeq	r0, r1, r0
    11a8:	752f0100 	strvc	r0, [pc, #-256]!	; 10b0 <_start-0x6f50>
    11ac:	692f7273 	stmdbvs	pc!, {r0, r1, r4, r5, r6, r9, ip, sp, lr}	; <UNPREDICTABLE>
    11b0:	756c636e 	strbvc	r6, [ip, #-878]!	; 0x36e
    11b4:	6e2f6564 	cfsh64vs	mvdx6, mvdx15, #52
    11b8:	696c7765 	stmdbvs	ip!, {r0, r2, r5, r6, r8, r9, sl, ip, sp, lr}^
    11bc:	79732f62 	ldmdbvc	r3!, {r1, r5, r6, r8, r9, sl, fp, sp}^
    11c0:	752f0073 	strvc	r0, [pc, #-115]!	; 1155 <_start-0x6eab>
    11c4:	6c2f7273 	sfmvs	f7, 4, [pc], #-460	; 1000 <_start-0x7000>
    11c8:	672f6269 	strvs	r6, [pc, -r9, ror #4]!
    11cc:	612f6363 	teqvs	pc, r3, ror #6
    11d0:	6e2d6d72 	mcrvs	13, 1, r6, cr13, cr2, {3}
    11d4:	2d656e6f 	stclcs	14, cr6, [r5, #-444]!	; 0xfffffe44
    11d8:	69626165 	stmdbvs	r2!, {r0, r2, r5, r6, r8, sp, lr}^
    11dc:	332e362f 	teqcc	lr, #49283072	; 0x2f00000
    11e0:	692f312e 	stmdbvs	pc!, {r1, r2, r3, r5, r8, ip, sp}	; <UNPREDICTABLE>
    11e4:	756c636e 	strbvc	r6, [ip, #-878]!	; 0x36e
    11e8:	2f006564 	svccs	0x00006564
    11ec:	656d6f68 	strbvs	r6, [sp, #-3944]!	; 0xf68
    11f0:	676e652f 	strbvs	r6, [lr, -pc, lsr #10]!
    11f4:	2f72656c 	svccs	0x0072656c
    11f8:	73616c63 	cmnvc	r1, #25344	; 0x6300
    11fc:	73632f73 	cmnvc	r3, #460	; 0x1cc
    1200:	6c303432 	cfldrsvs	mvf3, [r0], #-200	; 0xffffff38
    1204:	30322d78 	eorscc	r2, r2, r8, ror sp
    1208:	2f727073 	svccs	0x00727073
    120c:	62696c2f 	rsbvs	r6, r9, #12032	; 0x2f00
    1210:	2f006970 	svccs	0x00006970
    1214:	2f727375 	svccs	0x00727375
    1218:	6c636e69 	stclvs	14, cr6, [r3], #-420	; 0xfffffe5c
    121c:	2f656475 	svccs	0x00656475
    1220:	6c77656e 	cfldr64vs	mvdx6, [r7], #-440	; 0xfffffe48
    1224:	00006269 	andeq	r6, r0, r9, ror #4
    1228:	6c616d6b 	stclvs	13, cr6, [r1], #-428	; 0xfffffe54
    122c:	2e636f6c 	cdpcs	15, 6, cr6, cr3, cr12, {3}
    1230:	00000063 	andeq	r0, r0, r3, rrx
    1234:	636f6c00 	cmnvs	pc, #0, 24
    1238:	00682e6b 	rsbeq	r2, r8, fp, ror #28
    123c:	5f000001 	svcpl	0x00000001
    1240:	65707974 	ldrbvs	r7, [r0, #-2420]!	; 0x974
    1244:	00682e73 	rsbeq	r2, r8, r3, ror lr
    1248:	73000001 	movwvc	r0, #1
    124c:	65646474 	strbvs	r6, [r4, #-1140]!	; 0x474
    1250:	00682e66 	rsbeq	r2, r8, r6, ror #28
    1254:	72000002 	andvc	r0, r0, #2
    1258:	746e6565 	strbtvc	r6, [lr], #-1381	; 0x565
    125c:	0100682e 	tsteq	r0, lr, lsr #16
    1260:	70720000 	rsbsvc	r0, r2, r0
    1264:	00682e69 	rsbeq	r2, r8, r9, ror #28
    1268:	73000003 	movwvc	r0, #3
    126c:	6e697274 	mcrvs	2, 3, r7, cr9, cr4, {3}
    1270:	00682e67 	rsbeq	r2, r8, r7, ror #28
    1274:	00000004 	andeq	r0, r0, r4
    1278:	04020500 	streq	r0, [r2], #-1280	; 0x500
    127c:	0300009a 	movweq	r0, #154	; 0x9a
    1280:	83010110 	movwhi	r0, #4368	; 0x1110
    1284:	83146801 	tsthi	r4, #65536	; 0x10000
    1288:	01040200 	mrseq	r0, R12_usr
    128c:	0402007f 	streq	r0, [r2], #-127	; 0x7f
    1290:	5c083001 	stcpl	0, cr3, [r8], {1}
    1294:	4b4c4b2f 	blmi	1313f58 <__bss_end__+0x13095a0>
    1298:	0200684b 	andeq	r6, r0, #4915200	; 0x4b0000
    129c:	79030104 	stmdbvc	r3, {r2, r8}
    12a0:	0809034a 	stmdaeq	r9, {r1, r3, r6, r8, r9}
    12a4:	2e012f58 	mcrcs	15, 0, r2, cr1, cr8, {2}
    12a8:	4b6a2f4e 	blmi	1a8cfe8 <__bss_end__+0x1a82630>
    12ac:	2f4c6767 	svccs	0x004c6767
    12b0:	01040200 	mrseq	r0, R12_usr
    12b4:	002e7603 	eoreq	r7, lr, r3, lsl #12
    12b8:	dc010402 	cfstrsle	mvf0, [r1], {2}
    12bc:	012f7a08 	teqeq	pc, r8, lsl #20
    12c0:	0802019f 	stmdaeq	r2, {r0, r1, r2, r3, r4, r7, r8}
    12c4:	Address 0x00000000000012c4 is out of bounds.


Disassembly of section .debug_str:

00000000 <.debug_str>:
   0:	657a6973 	ldrbvs	r6, [sl, #-2419]!	; 0x973
   4:	6300745f 	movwvs	r7, #1119	; 0x45f
   8:	6c6c616b 	stfvse	f6, [ip], #-428	; 0xfffffe54
   c:	2f00636f 	svccs	0x0000636f
  10:	72657355 	rsbvc	r7, r5, #1409286145	; 0x54000001
  14:	72622f73 	rsbvc	r2, r2, #460	; 0x1cc
  18:	6a6e6169 	bvs	1b985c4 <__bss_end__+0x1b8dc0c>
  1c:	442f6e75 	strtmi	r6, [pc], #-3701	; 24 <_start-0x7fdc>
  20:	746b7365 	strbtvc	r7, [fp], #-869	; 0x365
  24:	732f706f 	teqvc	pc, #111	; 0x6f
  28:	6f6f6863 	svcvs	0x006f6863
  2c:	70532f6c 	subsvc	r2, r3, ip, ror #30
  30:	676e6972 			; <UNDEFINED> instruction: 0x676e6972
  34:	30323931 	eorscc	r3, r2, r1, lsr r9
  38:	3253432f 	subscc	r4, r3, #-1140850688	; 0xbc000000
  3c:	584c3034 	stmdapl	ip, {r2, r4, r5, ip, sp}^
  40:	3273632f 	rsbscc	r6, r3, #-1140850688	; 0xbc000000
  44:	786c3034 	stmdavc	ip!, {r2, r4, r5, ip, sp}^
  48:	7330322d 	teqvc	r0, #-805306366	; 0xd0000002
  4c:	6c2f7270 	sfmvs	f7, 4, [pc], #-448	; fffffe94 <__bss_end__+0xffff54dc>
  50:	2f736261 	svccs	0x00736261
  54:	672d3131 			; <UNDEFINED> instruction: 0x672d3131
  58:	6f632f63 	svcvs	0x00632f63
  5c:	47006564 	strmi	r6, [r0, -r4, ror #10]
  60:	4320554e 	teqmi	r0, #327155712	; 0x13800000
  64:	382e3420 	stmdacc	lr!, {r5, sl, ip, sp}
  68:	2d20332e 	stccs	3, cr3, [r0, #-184]!	; 0xffffff48
  6c:	7570636d 	ldrbvc	r6, [r0, #-877]!	; 0x36d
  70:	6d72613d 	ldfvse	f6, [r2, #-244]!	; 0xffffff0c
  74:	36373131 			; <UNDEFINED> instruction: 0x36373131
  78:	2d667a6a 	vstmdbcs	r6!, {s15-s120}
  7c:	6d2d2073 	stcvs	0, cr2, [sp, #-460]!	; 0xfffffe34
  80:	656e7574 	strbvs	r7, [lr, #-1396]!	; 0x574
  84:	6d72613d 	ldfvse	f6, [r2, #-244]!	; 0xffffff0c
  88:	36373131 			; <UNDEFINED> instruction: 0x36373131
  8c:	2d667a6a 	vstmdbcs	r6!, {s15-s120}
  90:	672d2073 			; <UNDEFINED> instruction: 0x672d2073
  94:	20626467 	rsbcs	r6, r2, r7, ror #8
  98:	20674f2d 	rsbcs	r4, r7, sp, lsr #30
  9c:	6474732d 	ldrbtvs	r7, [r4], #-813	; 0x32d
  a0:	756e673d 	strbvc	r6, [lr, #-1853]!	; 0x73d
  a4:	2d203939 	stccs	9, cr3, [r0, #-228]!	; 0xffffff1c
  a8:	65726666 	ldrbvs	r6, [r2, #-1638]!	; 0x666
  ac:	61747365 	cmnvs	r4, r5, ror #6
  b0:	6e69646e 	cdpvs	4, 6, cr6, cr9, cr14, {3}
  b4:	6f6e0067 	svcvs	0x006e0067
  b8:	69616d74 	stmdbvs	r1!, {r2, r4, r5, r6, r8, sl, fp, sp, lr}^
  bc:	6863006e 	stmdavs	r3!, {r1, r2, r3, r5, r6}^
  c0:	5f6b6365 	svcpl	0x006b6365
  c4:	6c5f6f6e 	mrrcvs	15, 6, r6, pc, cr14	; <UNPREDICTABLE>
  c8:	006b6165 	rsbeq	r6, fp, r5, ror #2
  cc:	74736574 	ldrbtvc	r6, [r3], #-1396	; 0x574
  d0:	61702f73 	cmnvs	r0, r3, ror pc
  d4:	2d327472 	cfldrscs	mvf7, [r2, #-456]!	; 0xfffffe38
  d8:	74736574 	ldrbtvc	r6, [r3], #-1396	; 0x574
  dc:	00632e33 	rsbeq	r2, r3, r3, lsr lr
  e0:	69736e75 	ldmdbvs	r3!, {r0, r2, r4, r5, r6, r9, sl, fp, sp, lr}^
  e4:	64656e67 	strbtvs	r6, [r5], #-3687	; 0xe67
  e8:	61686320 	cmnvs	r8, r0, lsr #6
  ec:	68730072 	ldmdavs	r3!, {r1, r4, r5, r6}^
  f0:	2074726f 	rsbscs	r7, r4, pc, ror #4
  f4:	69736e75 	ldmdbvs	r3!, {r0, r2, r4, r5, r6, r9, sl, fp, sp, lr}^
  f8:	64656e67 	strbtvs	r6, [r5], #-3687	; 0xe67
  fc:	746e6920 	strbtvc	r6, [lr], #-2336	; 0x920
 100:	616d6b00 	cmnvs	sp, r0, lsl #22
 104:	636f6c6c 	cmnvs	pc, #108, 24	; 0x6c00
 108:	6d656d00 	stclvs	13, cr6, [r5, #-0]
 10c:	00746573 	rsbseq	r6, r4, r3, ror r5
 110:	55465f5f 	strbpl	r5, [r6, #-3935]	; 0xf5f
 114:	4954434e 	ldmdbmi	r4, {r1, r2, r3, r6, r8, r9, lr}^
 118:	5f5f4e4f 	svcpl	0x005f4e4f
 11c:	73657400 	cmnvc	r5, #0, 8
 120:	6b630074 	blvs	18c02f8 <__bss_end__+0x18b5940>
 124:	696e695f 	stmdbvs	lr!, {r0, r1, r2, r3, r4, r6, r8, fp, sp, lr}^
 128:	6f6c0074 	svcvs	0x006c0074
 12c:	6c20676e 	stcvs	7, cr6, [r0], #-440	; 0xfffffe48
 130:	20676e6f 	rsbcs	r6, r7, pc, ror #28
 134:	69736e75 	ldmdbvs	r3!, {r0, r2, r4, r5, r6, r9, sl, fp, sp, lr}^
 138:	64656e67 	strbtvs	r6, [r5], #-3687	; 0xe67
 13c:	746e6920 	strbtvc	r6, [lr], #-2336	; 0x920
 140:	7a697300 	bvc	1a5cd48 <__bss_end__+0x1a52390>
 144:	70797465 	rsbsvc	r7, r9, r5, ror #8
 148:	6f6c0065 	svcvs	0x006c0065
 14c:	6c20676e 	stcvs	7, cr6, [r0], #-440	; 0xfffffe48
 150:	20676e6f 	rsbcs	r6, r7, pc, ror #28
 154:	00746e69 	rsbseq	r6, r4, r9, ror #28
 158:	726f6873 	rsbvc	r6, pc, #7536640	; 0x730000
 15c:	6e692074 	mcrvs	0, 3, r2, cr9, cr4, {3}
 160:	69750074 	ldmdbvs	r5!, {r2, r4, r5, r6}^
 164:	3233746e 	eorscc	r7, r3, #1845493760	; 0x6e000000
 168:	6b00745f 	blvs	1d2ec <__bss_end__+0x12934>
 16c:	6c6c616d 	stfvse	f6, [ip], #-436	; 0xfffffe4c
 170:	695f636f 	ldmdbvs	pc, {r0, r1, r2, r3, r5, r6, r8, r9, sp, lr}^	; <UNPREDICTABLE>
 174:	5f74696e 	svcpl	0x0074696e
 178:	5f746573 	svcpl	0x00746573
 17c:	72617473 	rsbvc	r7, r1, #1929379840	; 0x73000000
 180:	75630074 	strbvc	r0, [r3, #-116]!	; 0x74
 184:	685f7272 	ldmdavs	pc, {r1, r4, r5, r6, r9, ip, sp, lr}^	; <UNPREDICTABLE>
 188:	79626e00 	stmdbvc	r2!, {r9, sl, fp, sp, lr}^
 18c:	5f736574 	svcpl	0x00736574
 190:	65657266 	strbvs	r7, [r5, #-614]!	; 0x266
 194:	6b630064 	blvs	18c032c <__bss_end__+0x18b5974>
 198:	7269665f 	rsbvc	r6, r9, #99614720	; 0x5f00000
 19c:	685f7473 	ldmdavs	pc, {r0, r1, r4, r5, r6, sl, ip, sp, lr}^	; <UNPREDICTABLE>
 1a0:	70007264 	andvc	r7, r0, r4, ror #4
 1a4:	00766572 	rsbseq	r6, r6, r2, ror r5
 1a8:	5f646c6f 	svcpl	0x00646c6f
 1ac:	6b72616d 	blvs	1c98768 <__bss_end__+0x1c8ddb0>
 1b0:	73616600 	cmnvc	r1, #0, 12
 1b4:	61685f74 	smcvs	34292	; 0x85f4
 1b8:	62006873 	andvs	r6, r0, #7536640	; 0x730000
 1bc:	317a725f 	cmncc	sl, pc, asr r2
 1c0:	7274705f 	rsbsvc	r7, r4, #95	; 0x5f
 1c4:	45524600 	ldrbmi	r4, [r2, #-1536]	; 0x600
 1c8:	41004445 	tstmi	r0, r5, asr #8
 1cc:	434f4c4c 	movtmi	r4, #64588	; 0xfc4c
 1d0:	62004445 	andvs	r4, r0, #1157627904	; 0x45000000
 1d4:	6464615f 	strbtvs	r6, [r4], #-351	; 0x15f
 1d8:	6f745f72 	svcvs	0x00745f72
 1dc:	7264685f 	rsbvc	r6, r4, #6225920	; 0x5f0000
 1e0:	5f796d00 	svcpl	0x00796d00
 1e4:	6f666e69 	svcvs	0x00666e69
 1e8:	6e697500 	cdpvs	5, 6, cr7, cr9, cr0, {0}
 1ec:	5f363174 	svcpl	0x00363174
 1f0:	564f0074 			; <UNDEFINED> instruction: 0x564f0074
 1f4:	45485245 	strbmi	r5, [r8, #-581]	; 0x245
 1f8:	4e5f4441 	cdpmi	4, 5, cr4, cr15, cr1, {2}
 1fc:	45545942 	ldrbmi	r5, [r4, #-2370]	; 0x942
 200:	6b630053 	blvs	18c0354 <__bss_end__+0x18b599c>
 204:	6165685f 	cmnvs	r5, pc, asr r8
 208:	72655f70 	rsbvc	r5, r5, #112, 30	; 0x1c0
 20c:	73726f72 	cmnvc	r2, #456	; 0x1c8
 210:	4c4c4100 	stfmie	f4, [ip], {-0}
 214:	4f5f434f 	svcmi	0x005f434f
 218:	45534646 	ldrbmi	r4, [r3, #-1606]	; 0x646
 21c:	70720054 	rsbsvc	r0, r2, r4, asr r0
 220:	65725f69 	ldrbvs	r5, [r2, #-3945]!	; 0xf69
 224:	5f746573 	svcpl	0x00746573
 228:	63747570 	cmnvs	r4, #112, 10	; 0x1c000000
 22c:	616b6300 	cmnvs	fp, r0, lsl #6
 230:	636f6c6c 	cmnvs	pc, #108, 24	; 0x6c00
 234:	6300632e 	movwvs	r6, #814	; 0x32e
 238:	6572666b 	ldrbvs	r6, [r2, #-1643]!	; 0x66b
 23c:	68630065 	stmdavs	r3!, {r0, r2, r5, r6}^
 240:	5f6b6365 	svcpl	0x006b6365
 244:	61746164 	cmnvs	r4, r4, ror #2
 248:	5f6b6300 	svcpl	0x006b6300
 24c:	7478656e 	ldrbtvc	r6, [r8], #-1390	; 0x56e
 250:	7264685f 	rsbvc	r6, r4, #6225920	; 0x5f0000
 254:	656c6300 	strbvs	r6, [ip, #-768]!	; 0x300
 258:	725f6e61 	subsvc	r6, pc, #1552	; 0x610
 25c:	6f6f6265 	svcvs	0x006f6265
 260:	6c610074 	stclvs	0, cr0, [r1], #-464	; 0xfffffe30
 264:	5f636f6c 	svcpl	0x00636f6c
 268:	00636f6c 	rsbeq	r6, r3, ip, ror #30
 26c:	5f726468 	svcpl	0x00726468
 270:	75736b63 	ldrbvc	r6, [r3, #-2915]!	; 0xb63
 274:	4552006d 	ldrbmi	r0, [r2, #-109]	; 0x6d
 278:	4e4f5a44 	vmlsmi.f32	s11, s30, s8
 27c:	6c6f0045 	stclvs	0, cr0, [pc], #-276	; 170 <_start-0x7e90>
 280:	6b635f64 	blvs	18d8018 <__bss_end__+0x18cd660>
 284:	006d7573 	rsbeq	r7, sp, r3, ror r5
 288:	7479626e 	ldrbtvc	r6, [r9], #-622	; 0x26e
 28c:	615f7365 	cmpvs	pc, r5, ror #6
 290:	636f6c6c 	cmnvs	pc, #108, 24	; 0x6c00
 294:	65726600 	ldrbvs	r6, [r2, #-1536]!	; 0x600
 298:	6f6c5f65 	svcvs	0x006c5f65
 29c:	5f620063 	svcpl	0x00620063
 2a0:	6f6c6c61 	svcvs	0x006c6c61
 2a4:	74705f63 	ldrbtvc	r5, [r0], #-3939	; 0xf63
 2a8:	65680072 	strbvs	r0, [r8, #-114]!	; 0x72
 2ac:	695f7061 	ldmdbvs	pc, {r0, r5, r6, ip, sp, lr}^	; <UNPREDICTABLE>
 2b0:	006f666e 	rsbeq	r6, pc, lr, ror #12
 2b4:	5f637273 	svcpl	0x00637273
 2b8:	5f636f6c 	svcpl	0x00636f6c
 2bc:	69660074 	stmdbvs	r6!, {r2, r4, r5, r6}^
 2c0:	00747372 	rsbseq	r7, r4, r2, ror r3
 2c4:	63656863 	cmnvs	r5, #6488064	; 0x630000
 2c8:	64685f6b 	strbtvs	r5, [r8], #-3947	; 0xf6b
 2cc:	5f620072 	svcpl	0x00620072
 2d0:	5f327a72 	svcpl	0x00327a72
 2d4:	00727470 	rsbseq	r7, r2, r0, ror r4
 2d8:	7272656e 	rsbsvc	r6, r2, #461373440	; 0x1b800000
 2dc:	0073726f 	rsbseq	r7, r3, pc, ror #4
 2e0:	5f726468 	svcpl	0x00726468
 2e4:	6e697270 	mcrvs	2, 3, r7, cr9, cr0, {3}
 2e8:	626e0074 	rsbvs	r0, lr, #116	; 0x74
 2ec:	00736b6c 	rsbseq	r6, r3, ip, ror #22
 2f0:	544e4553 	strbpl	r4, [lr], #-1363	; 0x553
 2f4:	4c414e49 	mcrrmi	14, 4, r4, r1, cr9
 2f8:	72616d00 	rsbvc	r6, r1, #0, 26
 2fc:	656d5f6b 	strbvs	r5, [sp, #-3947]!	; 0xf6b
 300:	6c6f006d 	stclvs	0, cr0, [pc], #-436	; 154 <_start-0x7eac>
 304:	65725f64 	ldrbvs	r5, [r2, #-3940]!	; 0xf64
 308:	6d5f7366 	ldclvs	3, cr7, [pc, #-408]	; 178 <_start-0x7e88>
 30c:	6c646469 	cfstrdvs	mvd6, [r4], #-420	; 0xfffffe5c
 310:	626e0065 	rsbvs	r0, lr, #101	; 0x65
 314:	73657479 	cmnvc	r5, #2030043136	; 0x79000000
 318:	6c6c615f 	stfvse	f6, [ip], #-380	; 0xfffffe84
 31c:	6465636f 	strbtvs	r6, [r5], #-879	; 0x36f
 320:	65686300 	strbvs	r6, [r8, #-768]!	; 0x300
 324:	625f6b63 	subsvs	r6, pc, #101376	; 0x18c00
 328:	6b636f6c 	blvs	18dc0e0 <__bss_end__+0x18d1728>
 32c:	6e696c00 	cdpvs	12, 6, cr6, cr9, cr0, {0}
 330:	006f6e65 	rsbeq	r6, pc, r5, ror #28
 334:	7a725f62 	bvc	1c980c4 <__bss_end__+0x1c8d70c>
 338:	626e5f32 	rsbvs	r5, lr, #50, 30	; 0xc8
 33c:	73657479 	cmnvc	r5, #2030043136	; 0x79000000
 340:	6e697500 	cdpvs	5, 6, cr7, cr9, cr0, {0}
 344:	745f3874 	ldrbvc	r3, [pc], #-2164	; 34c <_start-0x7cb4>
 348:	72646800 	rsbvc	r6, r4, #0, 16
 34c:	6f00745f 	svcvs	0x0000745f
 350:	725f646c 	subsvc	r6, pc, #108, 8	; 0x6c000000
 354:	5f736665 	svcpl	0x00736665
 358:	72617473 	rsbvc	r7, r1, #1929379840	; 0x73000000
 35c:	626e0074 	rsbvs	r0, lr, #116	; 0x74
 360:	73657479 	cmnvc	r5, #2030043136	; 0x79000000
 364:	6d65725f 	sfmvs	f7, 2, [r5, #-380]!	; 0xfffffe84
 368:	66656c00 	strbtvs	r6, [r5], -r0, lsl #24
 36c:	68630074 	stmdavs	r3!, {r2, r4, r5, r6}^
 370:	5f6b6365 	svcpl	0x006b6365
 374:	006d656d 	rsbeq	r6, sp, sp, ror #10
 378:	64616568 	strbtvs	r6, [r1], #-1384	; 0x568
 37c:	73007265 	movwvc	r7, #613	; 0x265
 380:	6b636174 	blvs	18d8958 <__bss_end__+0x18cdfa0>
 384:	706f745f 	rsbvc	r7, pc, pc, asr r4	; <UNPREDICTABLE>
 388:	72617700 	rsbvc	r7, r1, #0, 14
 38c:	6f6e5f6e 	svcvs	0x006e5f6e
 390:	6174735f 	cmnvs	r4, pc, asr r3
 394:	725f7472 	subsvc	r7, pc, #1912602624	; 0x72000000
 398:	705f6665 	subsvc	r6, pc, r5, ror #12
 39c:	706d6900 	rsbvc	r6, sp, r0, lsl #18
 3a0:	656d656c 	strbvs	r6, [sp, #-1388]!	; 0x56c
 3a4:	745f746e 	ldrbvc	r7, [pc], #-1134	; 3ac <_start-0x7c54>
 3a8:	00736968 	rsbseq	r6, r3, r8, ror #18
 3ac:	72727563 	rsbsvc	r7, r2, #415236096	; 0x18c00000
 3b0:	7264685f 	rsbvc	r6, r4, #6225920	; 0x5f0000
 3b4:	656c6e00 	strbvs	r6, [ip, #-3584]!	; 0xe00
 3b8:	00736b61 	rsbseq	r6, r3, r1, ror #22
 3bc:	65657773 	strbvs	r7, [r5, #-1907]!	; 0x773
 3c0:	72665f70 	rsbvc	r5, r6, #112, 30	; 0x1c0
 3c4:	6d006565 	cfstr32vs	mvfx6, [r0, #-404]	; 0xfffffe6c
 3c8:	65627961 	strbvs	r7, [r2, #-2401]!	; 0x961
 3cc:	7272655f 	rsbsvc	r6, r2, #398458880	; 0x17c00000
 3d0:	0073726f 	rsbseq	r7, r3, pc, ror #4
 3d4:	675f6b63 	ldrbvs	r6, [pc, -r3, ror #22]
 3d8:	6b630063 	blvs	18c056c <__bss_end__+0x18b5bb4>
 3dc:	6e69665f 	mcrvs	6, 3, r6, cr9, cr15, {2}
 3e0:	656c5f64 	strbvs	r5, [ip, #-3940]!	; 0xf64
 3e4:	00736b61 	rsbseq	r6, r3, r1, ror #22
 3e8:	73625f5f 	cmnvc	r2, #380	; 0x17c
 3ec:	74735f73 	ldrbtvc	r5, [r3], #-3955	; 0xf73
 3f0:	5f747261 	svcpl	0x00747261
 3f4:	5f5f005f 	svcpl	0x005f005f
 3f8:	5f737362 	svcpl	0x00737362
 3fc:	5f646e65 	svcpl	0x00646e65
 400:	7773005f 			; <UNDEFINED> instruction: 0x7773005f
 404:	5f706565 	svcpl	0x00706565
 408:	6b61656c 	blvs	18599c0 <__bss_end__+0x184f008>
 40c:	5f6e6900 	svcpl	0x006e6900
 410:	70616568 	rsbvc	r6, r1, r8, ror #10
 414:	72756300 	rsbsvc	r6, r5, #0, 6
 418:	68630072 	stmdavs	r3!, {r1, r4, r5, r6}^
 41c:	5f6b6365 	svcpl	0x006b6365
 420:	756f6873 	strbvc	r6, [pc, #-2163]!	; fffffbb5 <__bss_end__+0xffff51fd>
 424:	6c5f646c 	cfldrdvs	mvd6, [pc], {108}	; 0x6c
 428:	006b6165 	rsbeq	r6, fp, r5, ror #2
 42c:	61645f5f 	cmnvs	r4, pc, asr pc
 430:	735f6174 	cmpvc	pc, #116, 2
 434:	74726174 	ldrbtvc	r6, [r2], #-372	; 0x174
 438:	64005f5f 	strvs	r5, [r0], #-3935	; 0xf5f
 43c:	5f706d75 	svcpl	0x00706d75
 440:	73676572 	cmnvc	r7, #478150656	; 0x1c800000
 444:	72666e00 	rsbvc	r6, r6, #0, 28
 448:	00646565 	rsbeq	r6, r4, r5, ror #10
 44c:	672d6b63 	strvs	r6, [sp, -r3, ror #22]!
 450:	00632e63 	rsbeq	r2, r3, r3, ror #28
 454:	61645f5f 	cmnvs	r4, pc, asr pc
 458:	655f6174 	ldrbvs	r6, [pc, #-372]	; 2ec <_start-0x7d14>
 45c:	5f5f646e 	svcpl	0x005f646e
 460:	72616d00 	rsbvc	r6, r1, #0, 26
 464:	6c615f6b 	stclvs	15, cr5, [r1], #-428	; 0xfffffe54
 468:	7369006c 	cmnvc	r9, #108	; 0x6c
 46c:	7274705f 	rsbsvc	r7, r4, #95	; 0x5f
 470:	6c626e00 	stclvs	14, cr6, [r2], #-0
 474:	736b636f 	cmnvc	fp, #-1140850687	; 0xbc000001
 478:	62696c00 	rsbvs	r6, r9, #0, 24
 47c:	61682f63 	cmnvs	r8, r3, ror #30
 480:	632e6873 	teqvs	lr, #7536640	; 0x730000
 484:	73552f00 	cmpvc	r5, #0, 30
 488:	2f737265 	svccs	0x00737265
 48c:	61697262 	cmnvs	r9, r2, ror #4
 490:	6e756a6e 	vsubvs.f32	s13, s10, s29
 494:	7365442f 	cmnvc	r5, #788529152	; 0x2f000000
 498:	706f746b 	rsbvc	r7, pc, fp, ror #8
 49c:	6863732f 	stmdavs	r3!, {r0, r1, r2, r3, r5, r8, r9, ip, sp, lr}^
 4a0:	2f6c6f6f 	svccs	0x006c6f6f
 4a4:	69727053 	ldmdbvs	r2!, {r0, r1, r4, r6, ip, sp, lr}^
 4a8:	3931676e 	ldmdbcc	r1!, {r1, r2, r3, r5, r6, r8, r9, sl, sp, lr}
 4ac:	432f3032 	teqmi	pc, #50	; 0x32
 4b0:	30343253 	eorscc	r3, r4, r3, asr r2
 4b4:	632f584c 	teqvs	pc, #76, 16	; 0x4c0000
 4b8:	30343273 	eorscc	r3, r4, r3, ror r2
 4bc:	322d786c 	eorcc	r7, sp, #108, 16	; 0x6c0000
 4c0:	72707330 	rsbsvc	r7, r0, #48, 6	; 0xc0000000
 4c4:	62696c2f 	rsbvs	r6, r9, #12032	; 0x2f00
 4c8:	6c006970 	stcvs	9, cr6, [r0], {112}	; 0x70
 4cc:	2f636269 	svccs	0x00636269
 4d0:	736d656d 	cmnvc	sp, #457179136	; 0x1b400000
 4d4:	632e7465 	teqvs	lr, #1694498816	; 0x65000000
 4d8:	675f5f00 	ldrbvs	r5, [pc, -r0, lsl #30]
 4dc:	5f63756e 	svcpl	0x0063756e
 4e0:	6c5f6176 	ldfvse	f6, [pc], {118}	; 0x76
 4e4:	00747369 	rsbseq	r7, r4, r9, ror #6
 4e8:	6362696c 	cmnvs	r2, #108, 18	; 0x1b0000
 4ec:	6972702f 	ldmdbvs	r2!, {r0, r1, r2, r3, r5, ip, sp, lr}^
 4f0:	2e6b746e 	cdpcs	4, 6, cr7, cr11, cr14, {3}
 4f4:	61760063 	cmnvs	r6, r3, rrx
 4f8:	6972705f 	ldmdbvs	r2!, {r0, r1, r2, r3, r4, r6, ip, sp, lr}^
 4fc:	006b746e 	rsbeq	r7, fp, lr, ror #8
 500:	61765f5f 	cmnvs	r6, pc, asr pc
 504:	73696c5f 	cmnvc	r9, #24320	; 0x5f00
 508:	5f5f0074 	svcpl	0x005f0074
 50c:	75007061 	strvc	r7, [r0, #-97]	; 0x61
 510:	5f747261 	svcpl	0x00747261
 514:	63747570 	cmnvs	r4, #112, 10	; 0x1c000000
 518:	746e6900 	strbtvc	r6, [lr], #-2304	; 0x900
 51c:	616e7265 	cmnvs	lr, r5, ror #4
 520:	75705f6c 	ldrbvc	r5, [r0, #-3948]!	; 0xf6c
 524:	61686374 	smcvs	34356	; 0x8634
 528:	70720072 	rsbsvc	r0, r2, r2, ror r0
 52c:	75705f69 	ldrbvc	r5, [r0, #-3945]!	; 0xf69
 530:	61686374 	smcvs	34356	; 0x8634
 534:	696c0072 	stmdbvs	ip!, {r1, r4, r5, r6}^
 538:	702f6362 	eorvc	r6, pc, r2, ror #6
 53c:	68637475 	stmdavs	r3!, {r0, r2, r4, r5, r6, sl, ip, sp, lr}^
 540:	632e7261 	teqvs	lr, #268435462	; 0x10000006
 544:	69707200 	ldmdbvs	r0!, {r9, ip, sp, lr}^
 548:	7465735f 	strbtvc	r7, [r5], #-863	; 0x35f
 54c:	7475705f 	ldrbtvc	r7, [r5], #-95	; 0x5f
 550:	696c0063 	stmdbvs	ip!, {r0, r1, r5, r6}^
 554:	702f6362 	eorvc	r6, pc, r2, ror #6
 558:	2e6b7475 	mcrcs	4, 3, r7, cr11, cr5, {3}
 55c:	6e690063 	cdpvs	0, 6, cr0, cr9, cr3, {3}
 560:	6e726574 	mrcvs	5, 3, r6, cr2, cr4, {3}
 564:	705f6c61 	subsvc	r6, pc, r1, ror #24
 568:	006b7475 	rsbeq	r7, fp, r5, ror r4
 56c:	5f67656e 	svcpl	0x0067656e
 570:	65720070 	ldrbvs	r0, [r2, #-112]!	; 0x70
 574:	73726576 	cmnvc	r2, #494927872	; 0x1d800000
 578:	73690065 	cmnvc	r9, #101	; 0x65
 57c:	69676964 	stmdbvs	r7!, {r2, r5, r6, r8, fp, sp, lr}^
 580:	75700074 	ldrbvc	r0, [r0, #-116]!	; 0x74
 584:	665f7374 			; <UNDEFINED> instruction: 0x665f7374
 588:	69730070 	ldmdbvs	r3!, {r4, r5, r6}^
 58c:	64656e67 	strbtvs	r6, [r5], #-3687	; 0xe67
 590:	6c00705f 	stcvs	0, cr7, [r0], {95}	; 0x5f
 594:	2f636269 	svccs	0x00636269
 598:	702d6176 	eorvc	r6, sp, r6, ror r1
 59c:	746e6972 	strbtvc	r6, [lr], #-2418	; 0x972
 5a0:	00632e6b 	rsbeq	r2, r3, fp, ror #28
 5a4:	5f697072 	svcpl	0x00697072
 5a8:	5f746573 	svcpl	0x00746573
 5ac:	7074756f 	rsbsvc	r7, r4, pc, ror #10
 5b0:	77007475 	smlsdxvc	r0, r5, r4, r7
 5b4:	68746469 	ldmdavs	r4!, {r0, r3, r5, r6, sl, sp, lr}^
 5b8:	74757000 	ldrbtvc	r7, [r5], #-0
 5bc:	70665f63 	rsbvc	r5, r6, r3, ror #30
 5c0:	696d6500 	stmdbvs	sp!, {r8, sl, sp, lr}^
 5c4:	74730074 	ldrbtvc	r0, [r3], #-116	; 0x74
 5c8:	2d666661 	stclcs	6, cr6, [r6, #-388]!	; 0xfffffe7c
 5cc:	2f637273 	svccs	0x00637273
 5d0:	61656c63 	cmnvs	r5, r3, ror #24
 5d4:	65722d6e 	ldrbvs	r2, [r2, #-3438]!	; 0xd6e
 5d8:	746f6f62 	strbtvc	r6, [pc], #-3938	; 5e0 <_start-0x7a20>
 5dc:	7200632e 	andvc	r6, r0, #-1207959552	; 0xb8000000
 5e0:	725f6970 	subsvc	r6, pc, #112, 18	; 0x1c0000
 5e4:	6f6f6265 	svcvs	0x006f6265
 5e8:	65640074 	strbvs	r0, [r4, #-116]!	; 0x74
 5ec:	5f79616c 	svcpl	0x0079616c
 5f0:	6200736d 	andvs	r7, r0, #-1275068415	; 0xb4000001
 5f4:	655f7373 	ldrbvs	r7, [pc, #-883]	; 289 <_start-0x7d77>
 5f8:	5f00646e 	svcpl	0x0000646e
 5fc:	61747363 	cmnvs	r4, r3, ror #6
 600:	73007472 	movwvc	r7, #1138	; 0x472
 604:	66666174 			; <UNDEFINED> instruction: 0x66666174
 608:	6372732d 	cmnvs	r2, #-1275068416	; 0xb4000000
 60c:	7473632f 	ldrbtvc	r6, [r3], #-815	; 0x32f
 610:	2e747261 	cdpcs	2, 7, cr7, cr4, cr1, {3}
 614:	74610063 	strbtvc	r0, [r1], #-99	; 0x63
 618:	6573755f 	ldrbvs	r7, [r3, #-1375]!	; 0x55f
 61c:	656c5f72 	strbvs	r5, [ip, #-3954]!	; 0xf72
 620:	006c6576 	rsbeq	r6, ip, r6, ror r5
 624:	66617473 			; <UNDEFINED> instruction: 0x66617473
 628:	72732d66 	rsbsvc	r2, r3, #6528	; 0x1980
 62c:	65722f63 	ldrbvs	r2, [r2, #-3939]!	; 0xf63
 630:	746f6f62 	strbtvc	r6, [pc], #-3938	; 638 <_start-0x79c8>
 634:	5000632e 	andpl	r6, r0, lr, lsr #6
 638:	53525f4d 	cmppl	r2, #308	; 0x134
 63c:	575f4354 			; <UNDEFINED> instruction: 0x575f4354
 640:	47464352 	smlsldmi	r4, r6, r2, r3
 644:	4c55465f 	mrrcmi	6, 5, r4, r5, cr15
 648:	45525f4c 	ldrbmi	r5, [r2, #-3916]	; 0xf4c
 64c:	00544553 	subseq	r4, r4, r3, asr r5
 650:	575f4d50 			; <UNDEFINED> instruction: 0x575f4d50
 654:	00474f44 	subeq	r4, r7, r4, asr #30
 658:	5f746573 	svcpl	0x00746573
 65c:	72657375 	rsbvc	r7, r5, #-738197503	; 0xd4000001
 660:	76656c5f 			; <UNDEFINED> instruction: 0x76656c5f
 664:	50006c65 	andpl	r6, r0, r5, ror #24
 668:	32335455 	eorscc	r5, r3, #1426063360	; 0x55000000
 66c:	5f4d5000 	svcpl	0x004d5000
 670:	53534150 	cmppl	r3, #80, 2
 674:	44524f57 	ldrbmi	r4, [r2], #-3927	; 0xf57
 678:	5f4d5000 	svcpl	0x004d5000
 67c:	43545352 	cmpmi	r4, #1207959553	; 0x48000001
 680:	73706300 	cmnvc	r0, #0, 6
 684:	69740072 	ldmdbvs	r4!, {r1, r4, r5, r6}^
 688:	5f72656d 	svcpl	0x0072656d
 68c:	5f746567 	svcpl	0x00746567
 690:	63657375 	cmnvs	r5, #-738197503	; 0xd4000001
 694:	7761725f 			; <UNDEFINED> instruction: 0x7761725f
 698:	6c656400 	cfstrdvs	mvd6, [r5], #-0
 69c:	735f7961 	cmpvc	pc, #1589248	; 0x184000
 6a0:	73006365 	movwvc	r6, #869	; 0x365
 6a4:	66666174 			; <UNDEFINED> instruction: 0x66666174
 6a8:	6372732d 	cmnvs	r2, #-1275068416	; 0xb4000000
 6ac:	6d69742f 	cfstrdvs	mvd7, [r9, #-188]!	; 0xffffff44
 6b0:	632e7265 	teqvs	lr, #1342177286	; 0x50000006
 6b4:	54454700 	strbpl	r4, [r5], #-1792	; 0x700
 6b8:	74003233 	strvc	r3, [r0], #-563	; 0x233
 6bc:	736b6369 	cmnvc	fp, #-1543503871	; 0xa4000001
 6c0:	6c656400 	cfstrdvs	mvd6, [r5], #-0
 6c4:	635f7961 	cmpvs	pc, #1589248	; 0x184000
 6c8:	656c6379 	strbvs	r6, [ip, #-889]!	; 0x379
 6cc:	65640073 	strbvs	r0, [r4, #-115]!	; 0x73
 6d0:	5f79616c 	svcpl	0x0079616c
 6d4:	74007375 	strvc	r7, [r0], #-885	; 0x375
 6d8:	72656d69 	rsbvc	r6, r5, #6720	; 0x1a40
 6dc:	7465675f 	strbtvc	r6, [r5], #-1887	; 0x75f
 6e0:	6573755f 	ldrbvs	r7, [r3, #-1375]!	; 0x55f
 6e4:	645f0063 	ldrbvs	r0, [pc], #-99	; 6ec <_start-0x7914>
 6e8:	685f6f73 	ldmdavs	pc, {r0, r1, r4, r5, r6, r8, r9, sl, fp, sp, lr}^	; <UNPREDICTABLE>
 6ec:	6c646e61 	stclvs	14, cr6, [r4], #-388	; 0xfffffe7c
 6f0:	735f0065 	cmpvc	pc, #101	; 0x65
 6f4:	00657a69 	rsbeq	r7, r5, r9, ror #20
 6f8:	6e61725f 	mcrvs	2, 3, r7, cr1, cr15, {2}
 6fc:	00383464 	eorseq	r3, r8, r4, ror #8
 700:	656d655f 	strbvs	r6, [sp, #-1375]!	; 0x55f
 704:	6e656772 	mcrvs	7, 3, r6, cr5, cr2, {3}
 708:	75007963 	strvc	r7, [r0, #-2403]	; 0x963
 70c:	5f747261 	svcpl	0x00747261
 710:	74696e69 	strbtvc	r6, [r9], #-3689	; 0xe69
 714:	63775f00 	cmnvs	r7, #0, 30
 718:	6d6f7472 	cfstrdvs	mvd7, [pc, #-456]!	; 558 <_start-0x7aa8>
 71c:	74735f62 	ldrbtvc	r5, [r3], #-3938	; 0xf62
 720:	00657461 	rsbeq	r7, r5, r1, ror #8
 724:	7363775f 	cmnvc	r3, #24903680	; 0x17c0000
 728:	6d6f7472 	cfstrdvs	mvd7, [pc, #-456]!	; 568 <_start-0x7a98>
 72c:	735f7362 	cmpvc	pc, #-2013265919	; 0x88000001
 730:	65746174 	ldrbvs	r6, [r4, #-372]!	; 0x174
 734:	626c5f00 	rsbvs	r5, ip, #0, 30
 738:	7a697366 	bvc	1a5d4d8 <__bss_end__+0x1a52b20>
 73c:	50470065 	subpl	r0, r7, r5, rrx
 740:	465f4f49 	ldrbmi	r4, [pc], -r9, asr #30
 744:	5f434e55 	svcpl	0x00434e55
 748:	55504e49 	ldrbpl	r4, [r0, #-3657]	; 0xe49
 74c:	6d5f0054 	ldclvs	0, cr0, [pc, #-336]	; 604 <_start-0x79fc>
 750:	6f747262 	svcvs	0x00747262
 754:	735f6377 	cmpvc	pc, #-603979775	; 0xdc000001
 758:	65746174 	ldrbvs	r6, [r4, #-372]!	; 0x174
 75c:	63775f00 	cmnvs	r7, #0, 30
 760:	626d6f74 	rsbvs	r6, sp, #116, 30	; 0x1d0
 764:	6174735f 	cmnvs	r4, pc, asr r3
 768:	5f006574 	svcpl	0x00006574
 76c:	5f6d745f 	svcpl	0x006d745f
 770:	00636573 	rsbeq	r6, r3, r3, ror r5
 774:	74617473 	strbtvc	r7, [r1], #-1139	; 0x473
 778:	62755f00 	rsbsvs	r5, r5, #0, 30
 77c:	47006675 	smlsdxmi	r0, r5, r6, r6
 780:	5f4f4950 	svcpl	0x004f4950
 784:	434e5546 	movtmi	r5, #58694	; 0xe546
 788:	544c415f 	strbpl	r4, [ip], #-351	; 0x15f
 78c:	625f0031 	subsvs	r0, pc, #49	; 0x31
 790:	00657361 	rsbeq	r7, r5, r1, ror #6
 794:	6c746e63 	ldclvs	14, cr6, [r4], #-396	; 0xfffffe74
 798:	745f5f00 	ldrbvc	r5, [pc], #-3840	; 7a0 <_start-0x7860>
 79c:	6f685f6d 	svcvs	0x00685f6d
 7a0:	5f007275 	svcpl	0x00007275
 7a4:	0066735f 	rsbeq	r7, r6, pc, asr r3
 7a8:	5f6e6f5f 	svcpl	0x006e6f5f
 7ac:	74697865 	strbtvc	r7, [r9], #-2149	; 0x865
 7b0:	6772615f 			; <UNDEFINED> instruction: 0x6772615f
 7b4:	635f0073 	cmpvs	pc, #115	; 0x73
 7b8:	696b6f6f 	stmdbvs	fp!, {r0, r1, r2, r3, r5, r6, r8, r9, sl, fp, sp, lr}^
 7bc:	5f5f0065 	svcpl	0x005f0065
 7c0:	756c6773 	strbvc	r6, [ip, #-1907]!	; 0x773
 7c4:	665f0065 	ldrbvs	r0, [pc], -r5, rrx
 7c8:	7367616c 	cmnvc	r7, #108, 2
 7cc:	73695f00 	cmnvc	r9, #0, 30
 7d0:	6178635f 	cmnvs	r8, pc, asr r3
 7d4:	74735f00 	ldrbtvc	r5, [r3], #-3840	; 0xf00
 7d8:	006e6964 	rsbeq	r6, lr, r4, ror #18
 7dc:	6b6c625f 	blvs	1b19160 <__bss_end__+0x1b0e7a8>
 7e0:	657a6973 	ldrbvs	r6, [sl, #-2419]!	; 0x973
 7e4:	72617500 	rsbvc	r7, r1, #0, 10
 7e8:	00632e74 	rsbeq	r2, r3, r4, ror lr
 7ec:	5f787561 	svcpl	0x00787561
 7f0:	69726570 	ldmdbvs	r2!, {r4, r5, r6, r8, sl, sp, lr}^
 7f4:	00736870 	rsbseq	r6, r3, r0, ror r8
 7f8:	7476635f 	ldrbtvc	r6, [r6], #-863	; 0x35f
 7fc:	00667562 	rsbeq	r7, r6, r2, ror #10
 800:	6d6f682f 	stclvs	8, cr6, [pc, #-188]!	; 74c <_start-0x78b4>
 804:	6e652f65 	cdpvs	15, 6, cr2, cr5, cr5, {3}
 808:	72656c67 	rsbvc	r6, r5, #26368	; 0x6700
 80c:	616c632f 	cmnvs	ip, pc, lsr #6
 810:	632f7373 	teqvs	pc, #-872415231	; 0xcc000001
 814:	30343273 	eorscc	r3, r4, r3, ror r2
 818:	322d786c 	eorcc	r7, sp, #108, 16	; 0x6c0000
 81c:	72707330 	rsbsvc	r7, r0, #48, 6	; 0xc0000000
 820:	62696c2f 	rsbvs	r6, r9, #12032	; 0x2f00
 824:	732f6970 	teqvc	pc, #112, 18	; 0x1c0000
 828:	66666174 			; <UNDEFINED> instruction: 0x66666174
 82c:	6972702d 	ldmdbvs	r2!, {r0, r2, r3, r5, ip, sp, lr}^
 830:	65746176 	ldrbvs	r6, [r4, #-374]!	; 0x176
 834:	626d5f00 	rsbvs	r5, sp, #0, 30
 838:	6f747273 	svcvs	0x00747273
 83c:	5f736377 	svcpl	0x00736377
 840:	74617473 	strbtvc	r7, [r1], #-1139	; 0x473
 844:	6d5f0065 	ldclvs	0, cr0, [pc, #-404]	; 6b8 <_start-0x7948>
 848:	656c7262 	strbvs	r7, [ip, #-610]!	; 0x262
 84c:	74735f6e 	ldrbtvc	r5, [r3], #-3950	; 0xf6e
 850:	00657461 	rsbeq	r7, r5, r1, ror #8
 854:	616e665f 	cmnvs	lr, pc, asr r6
 858:	00736772 	rsbseq	r6, r3, r2, ror r7
 85c:	5f787561 	svcpl	0x00787561
 860:	62616e65 	rsbvs	r6, r1, #1616	; 0x650
 864:	0073656c 	rsbseq	r6, r3, ip, ror #10
 868:	736e665f 	cmnvc	lr, #99614720	; 0x5f00000
 86c:	69735f00 	ldmdbvs	r3!, {r8, r9, sl, fp, ip, lr}^
 870:	75006e67 	strvc	r6, [r0, #-3687]	; 0xe67
 874:	5f747261 	svcpl	0x00747261
 878:	5f6e6163 	svcpl	0x006e6163
 87c:	63747570 	cmnvs	r4, #112, 10	; 0x1c000000
 880:	6c665f00 	stclvs	15, cr5, [r6], #-0
 884:	5f6b636f 	svcpl	0x006b636f
 888:	735f0074 	cmpvc	pc, #116	; 0x74
 88c:	72656474 	rsbvc	r6, r5, #116, 8	; 0x74000000
 890:	425f0072 	subsmi	r0, pc, #114	; 0x72
 894:	6e696769 	cdpvs	7, 6, cr6, cr9, cr9, {3}
 898:	675f0074 			; <UNDEFINED> instruction: 0x675f0074
 89c:	616d6d61 	cmnvs	sp, r1, ror #26
 8a0:	6769735f 			; <UNDEFINED> instruction: 0x6769735f
 8a4:	6d61676e 	stclvs	7, cr6, [r1, #-440]!	; 0xfffffe48
 8a8:	65725f00 	ldrbvs	r5, [r2, #-3840]!	; 0xf00
 8ac:	746c7573 	strbtvc	r7, [ip], #-1395	; 0x573
 8b0:	5f006b5f 	svcpl	0x00006b5f
 8b4:	006d745f 	rsbeq	r7, sp, pc, asr r4
 8b8:	63775f5f 	cmnvs	r7, #380	; 0x17c
 8bc:	75006268 	strvc	r6, [r0, #-616]	; 0x268
 8c0:	5f747261 	svcpl	0x00747261
 8c4:	63746567 	cmnvs	r4, #432013312	; 0x19c00000
 8c8:	74735f00 	ldrbtvc	r5, [r3], #-3840	; 0xf00
 8cc:	74756f64 	ldrbtvc	r6, [r5], #-3940	; 0xf64
 8d0:	76635f00 	strbtvc	r5, [r3], -r0, lsl #30
 8d4:	6e656c74 	mcrvs	12, 3, r6, cr5, cr4, {3}
 8d8:	69665f00 	stmdbvs	r6!, {r8, r9, sl, fp, ip, lr}^
 8dc:	5f00656c 	svcpl	0x0000656c
 8e0:	626f696e 	rsbvs	r6, pc, #1802240	; 0x1b8000
 8e4:	615f0073 	cmpvs	pc, r3, ror r0	; <UNPREDICTABLE>
 8e8:	69786574 	ldmdbvs	r8!, {r2, r4, r5, r6, r8, sl, sp, lr}^
 8ec:	5f003074 	svcpl	0x00003074
 8f0:	6e676973 	mcrvs	9, 3, r6, cr7, cr3, {3}
 8f4:	625f6c61 	subsvs	r6, pc, #24832	; 0x6100
 8f8:	5f006675 	svcpl	0x00006675
 8fc:	74637361 	strbtvc	r7, [r3], #-865	; 0x361
 900:	5f656d69 	svcpl	0x00656d69
 904:	00667562 	rsbeq	r7, r6, r2, ror #10
 908:	5f766564 	svcpl	0x00766564
 90c:	72726162 	rsbsvc	r6, r2, #-2147483624	; 0x80000018
 910:	00726569 	rsbseq	r6, r2, r9, ror #10
 914:	7365725f 	cmnvc	r5, #-268435451	; 0xf0000005
 918:	00746c75 	rsbseq	r6, r4, r5, ror ip
 91c:	63775f5f 	cmnvs	r7, #380	; 0x17c
 920:	50470068 	subpl	r0, r7, r8, rrx
 924:	465f4f49 	ldrbmi	r4, [pc], -r9, asr #30
 928:	5f434e55 	svcpl	0x00434e55
 92c:	32544c41 	subscc	r4, r4, #16640	; 0x4100
 930:	6e697700 	cdpvs	7, 6, cr7, cr9, cr0, {0}
 934:	00745f74 	rsbseq	r5, r4, r4, ror pc
 938:	636f6c5f 	cmnvs	pc, #24320	; 0x5f00
 93c:	665f006b 	ldrbvs	r0, [pc], -fp, rrx
 940:	7367616c 	cmnvc	r7, #108, 2
 944:	5f5f0032 	svcpl	0x005f0032
 948:	795f6d74 	ldmdbvc	pc, {r2, r4, r5, r6, r8, sl, fp, sp, lr}^	; <UNPREDICTABLE>
 94c:	00726165 	rsbseq	r6, r2, r5, ror #2
 950:	66666f5f 	uqsaxvs	r6, r6, pc	; <UNPREDICTABLE>
 954:	00746573 	rsbseq	r6, r4, r3, ror r5
 958:	6f697067 	svcvs	0x00697067
 95c:	7465735f 	strbtvc	r7, [r5], #-863	; 0x35f
 960:	6e75665f 	mrcvs	6, 3, r6, cr5, cr15, {2}
 964:	6f697463 	svcvs	0x00697463
 968:	6e5f006e 	cdpvs	0, 5, cr0, cr15, cr14, {3}
 96c:	66747865 	ldrbtvs	r7, [r4], -r5, ror #16
 970:	745f5f00 	ldrbvc	r5, [pc], #-3840	; 978 <_start-0x7688>
 974:	6f6d5f6d 	svcvs	0x006d5f6d
 978:	615f006e 	cmpvs	pc, lr, rrx
 97c:	69786574 	ldmdbvs	r8!, {r2, r4, r5, r6, r8, sl, sp, lr}^
 980:	5f5f0074 	svcpl	0x005f0074
 984:	64696473 	strbtvs	r6, [r9], #-1139	; 0x473
 988:	74696e69 	strbtvc	r6, [r9], #-3689	; 0xe69
 98c:	666f5f00 	strbtvs	r5, [pc], -r0, lsl #30
 990:	00745f66 	rsbseq	r5, r4, r6, ror #30
 994:	74726175 	ldrbtvc	r6, [r2], #-373	; 0x175
 998:	72665f00 	rsbvc	r5, r6, #0, 30
 99c:	696c6565 	stmdbvs	ip!, {r0, r2, r5, r6, r8, sl, sp, lr}^
 9a0:	5f007473 	svcpl	0x00007473
 9a4:	4b434f4c 	blmi	10d46dc <__bss_end__+0x10c9d24>
 9a8:	4345525f 	movtmi	r5, #21087	; 0x525f
 9ac:	49535255 	ldmdbmi	r3, {r0, r2, r4, r6, r9, ip, lr}^
 9b0:	545f4556 	ldrbpl	r4, [pc], #-1366	; 9b8 <_start-0x7648>
 9b4:	656e5f00 	strbvs	r5, [lr, #-3840]!	; 0xf00
 9b8:	685f0077 	ldmdavs	pc, {r0, r1, r2, r4, r5, r6}^	; <UNPREDICTABLE>
 9bc:	7272655f 	rsbsvc	r6, r2, #398458880	; 0x17c00000
 9c0:	5f006f6e 	svcpl	0x00006f6e
 9c4:	5f6d745f 	svcpl	0x006d745f
 9c8:	79616479 	stmdbvc	r1!, {r0, r3, r4, r5, r6, sl, sp, lr}^
 9cc:	735f5f00 	cmpvc	pc, #0, 30
 9d0:	00667562 	rsbeq	r7, r6, r2, ror #10
 9d4:	626f695f 	rsbvs	r6, pc, #1556480	; 0x17c000
 9d8:	5f5f0073 	svcpl	0x005f0073
 9dc:	454c4946 	strbmi	r4, [ip, #-2374]	; 0x946
 9e0:	626d5f00 	rsbvs	r5, sp, #0, 30
 9e4:	74617473 	strbtvc	r7, [r1], #-1139	; 0x473
 9e8:	00745f65 	rsbseq	r5, r4, r5, ror #30
 9ec:	46735f5f 	uhsaxmi	r5, r3, pc	; <UNPREDICTABLE>
 9f0:	00454c49 	subeq	r4, r5, r9, asr #24
 9f4:	73626d5f 	cmnvc	r2, #6080	; 0x17c0
 9f8:	65746174 	ldrbvs	r6, [r4, #-372]!	; 0x174
 9fc:	61725f00 	cmnvs	r2, r0, lsl #30
 a00:	6e5f646e 	cdpvs	4, 5, cr6, cr15, cr14, {3}
 a04:	00747865 	rsbseq	r7, r4, r5, ror #16
 a08:	6c626d5f 	stclvs	13, cr6, [r2], #-380	; 0xfffffe84
 a0c:	735f6e65 	cmpvc	pc, #1616	; 0x650
 a10:	65746174 	ldrbvs	r6, [r4, #-372]!	; 0x174
 a14:	6e695f00 	cdpvs	15, 6, cr5, cr9, cr0, {0}
 a18:	695f0063 	ldmdbvs	pc, {r0, r1, r5, r6}^	; <UNPREDICTABLE>
 a1c:	5f00646e 	svcpl	0x0000646e
 a20:	72727563 	rsbsvc	r7, r2, #415236096	; 0x18c00000
 a24:	5f746e65 	svcpl	0x00746e65
 a28:	61636f6c 	cmnvs	r3, ip, ror #30
 a2c:	5f00656c 	svcpl	0x0000656c
 a30:	656c635f 	strbvs	r6, [ip, #-863]!	; 0x35f
 a34:	70756e61 	rsbsvc	r6, r5, r1, ror #28
 a38:	616d5f00 	cmnvs	sp, r0, lsl #30
 a3c:	73647778 	cmnvc	r4, #120, 14	; 0x1e00000
 a40:	65725f00 	ldrbvs	r5, [r2, #-3840]!	; 0xf00
 a44:	00746e65 	rsbseq	r6, r4, r5, ror #28
 a48:	6565735f 	strbvs	r7, [r5, #-863]!	; 0x35f
 a4c:	5f5f0064 	svcpl	0x005f0064
 a50:	6e756f63 	cdpvs	15, 7, cr6, cr5, cr3, {3}
 a54:	5f5f0074 	svcpl	0x005f0074
 a58:	756c6176 	strbvc	r6, [ip, #-374]!	; 0x176
 a5c:	735f0065 	cmpvc	pc, #101	; 0x65
 a60:	006b6565 	rsbeq	r6, fp, r5, ror #10
 a64:	64756162 	ldrbtvs	r6, [r5], #-354	; 0x162
 a68:	70665f00 	rsbvc	r5, r6, r0, lsl #30
 a6c:	745f736f 	ldrbvc	r7, [pc], #-879	; a74 <_start-0x758c>
 a70:	745f5f00 	ldrbvc	r5, [pc], #-3840	; a78 <_start-0x7588>
 a74:	696d5f6d 	stmdbvs	sp!, {r0, r2, r3, r5, r6, r8, r9, sl, fp, ip, lr}^
 a78:	6373006e 	cmnvs	r3, #110	; 0x6e
 a7c:	63746172 	cmnvs	r4, #-2147483620	; 0x8000001c
 a80:	6d5f0068 	ldclvs	0, cr0, [pc, #-416]	; 8e8 <_start-0x7718>
 a84:	00746c75 	rsbseq	r6, r4, r5, ror ip
 a88:	33747570 	cmncc	r4, #112, 10	; 0x1c000000
 a8c:	4e470032 	mcrmi	0, 2, r0, cr7, cr2, {1}
 a90:	39432055 	stmdbcc	r3, {r0, r2, r4, r6, sp}^
 a94:	2e362039 	mrccs	0, 1, r2, cr6, cr9, {1}
 a98:	20312e33 	eorscs	r2, r1, r3, lsr lr
 a9c:	37313032 			; <UNDEFINED> instruction: 0x37313032
 aa0:	30323630 	eorscc	r3, r2, r0, lsr r6
 aa4:	636d2d20 	cmnvs	sp, #32, 26	; 0x800
 aa8:	613d7570 	teqvs	sp, r0, ror r5
 aac:	31316d72 	teqcc	r1, r2, ror sp
 ab0:	7a6a3637 	bvc	1a8e394 <__bss_end__+0x1a839dc>
 ab4:	20732d66 	rsbscs	r2, r3, r6, ror #26
 ab8:	75746d2d 	ldrbvc	r6, [r4, #-3373]!	; 0xd2d
 abc:	613d656e 	teqvs	sp, lr, ror #10
 ac0:	31316d72 	teqcc	r1, r2, ror sp
 ac4:	7a6a3637 	bvc	1a8e3a8 <__bss_end__+0x1a839f0>
 ac8:	20732d66 	rsbscs	r2, r3, r6, ror #26
 acc:	6467672d 	strbtvs	r6, [r7], #-1837	; 0x72d
 ad0:	4f2d2062 	svcmi	0x002d2062
 ad4:	732d2067 	teqvc	sp, #103	; 0x67
 ad8:	673d6474 			; <UNDEFINED> instruction: 0x673d6474
 adc:	3939756e 	ldmdbcc	r9!, {r1, r2, r3, r5, r6, r8, sl, ip, sp, lr}
 ae0:	66662d20 	strbtvs	r2, [r6], -r0, lsr #26
 ae4:	73656572 	cmnvc	r5, #478150656	; 0x1c800000
 ae8:	646e6174 	strbtvs	r6, [lr], #-372	; 0x174
 aec:	00676e69 	rsbeq	r6, r7, r9, ror #28
 af0:	7274735f 	rsbsvc	r7, r4, #2080374785	; 0x7c000001
 af4:	5f6b6f74 	svcpl	0x006b6f74
 af8:	7473616c 	ldrbtvc	r6, [r3], #-364	; 0x16c
 afc:	6e665f00 	cdpvs	15, 6, cr5, cr6, cr0, {0}
 b00:	65707974 	ldrbvs	r7, [r0, #-2420]!	; 0x974
 b04:	615f0073 	cmpvs	pc, r3, ror r0	; <UNPREDICTABLE>
 b08:	5f006464 	svcpl	0x00006464
 b0c:	6f4c555f 	svcvs	0x004c555f
 b10:	5f00676e 	svcpl	0x0000676e
 b14:	64746567 	ldrbtvs	r6, [r4], #-1383	; 0x567
 b18:	5f657461 	svcpl	0x00657461
 b1c:	00727265 	rsbseq	r7, r2, r5, ror #4
 b20:	6f6c675f 	svcvs	0x006c675f
 b24:	5f6c6162 	svcpl	0x006c6162
 b28:	75706d69 	ldrbvc	r6, [r0, #-3433]!	; 0xd69
 b2c:	705f6572 	subsvc	r6, pc, r2, ror r5	; <UNPREDICTABLE>
 b30:	5f007274 	svcpl	0x00007274
 b34:	72727563 	rsbsvc	r7, r2, #415236096	; 0x18c00000
 b38:	5f746e65 	svcpl	0x00746e65
 b3c:	65746163 	ldrbvs	r6, [r4, #-355]!	; 0x163
 b40:	79726f67 	ldmdbvc	r2!, {r0, r1, r2, r5, r6, r8, r9, sl, fp, sp, lr}^
 b44:	6e755f00 	cdpvs	15, 7, cr5, cr5, cr0, {0}
 b48:	64657375 	strbtvs	r7, [r5], #-885	; 0x375
 b4c:	6e61725f 	mcrvs	2, 3, r7, cr1, cr15, {2}
 b50:	775f0064 	ldrbvc	r0, [pc, -r4, rrx]
 b54:	5f007364 	svcpl	0x00007364
 b58:	5f6d745f 	svcpl	0x006d745f
 b5c:	79616477 	stmdbvc	r1!, {r0, r1, r2, r4, r5, r6, sl, sp, lr}^
 b60:	6c675f00 	stclvs	15, cr5, [r7], #-0
 b64:	47006575 	smlsdxmi	r0, r5, r5, r6
 b68:	5f4f4950 	svcpl	0x004f4950
 b6c:	434e5546 	movtmi	r5, #58694	; 0xe546
 b70:	54554f5f 	ldrbpl	r4, [r5], #-3935	; 0xf5f
 b74:	00545550 	subseq	r5, r4, r0, asr r5
 b78:	616d6e5f 	cmnvs	sp, pc, asr lr
 b7c:	636f6c6c 	cmnvs	pc, #108, 24	; 0x6c00
 b80:	366c5f00 	strbtcc	r5, [ip], -r0, lsl #30
 b84:	625f6134 	subsvs	r6, pc, #52, 2
 b88:	67006675 	smlsdxvs	r0, r5, r6, r6
 b8c:	32337465 	eorscc	r7, r3, #1694498816	; 0x65000000
 b90:	72617500 	rsbvc	r7, r1, #0, 10
 b94:	61635f74 	smcvs	13812	; 0x35f4
 b98:	65675f6e 	strbvs	r5, [r7, #-3950]!	; 0xf6e
 b9c:	5f006374 	svcpl	0x00006374
 ba0:	5f676973 	svcpl	0x00676973
 ba4:	636e7566 	cmnvs	lr, #427819008	; 0x19800000
 ba8:	5f726f00 	svcpl	0x00726f00
 bac:	32336e69 	eorscc	r6, r3, #1680	; 0x690
 bb0:	72617500 	rsbvc	r7, r1, #0, 10
 bb4:	61685f74 	smcvs	34292	; 0x85f4
 bb8:	61645f73 	smcvs	17907	; 0x45f3
 bbc:	47006174 	smlsdxmi	r0, r4, r1, r6
 bc0:	5f4f4950 	svcpl	0x004f4950
 bc4:	434e5546 	movtmi	r5, #58694	; 0xe546
 bc8:	544c415f 	strbpl	r4, [ip], #-351	; 0x15f
 bcc:	6e5f0030 	mrcvs	0, 2, r0, cr15, cr0, {1}
 bd0:	00667562 	rsbeq	r7, r6, r2, ror #10
 bd4:	756e755f 	strbvc	r7, [lr, #-1375]!	; 0x55f
 bd8:	00646573 	rsbeq	r6, r4, r3, ror r5
 bdc:	4f495047 	svcmi	0x00495047
 be0:	4e55465f 	mrcmi	6, 2, r4, cr5, cr15, {2}
 be4:	4c415f43 	mcrrmi	15, 4, r5, r1, cr3
 be8:	47003354 	smlsdmi	r0, r4, r3, r3
 bec:	5f4f4950 	svcpl	0x004f4950
 bf0:	434e5546 	movtmi	r5, #58694	; 0xe546
 bf4:	544c415f 	strbpl	r4, [ip], #-351	; 0x15f
 bf8:	50470034 	subpl	r0, r7, r4, lsr r0
 bfc:	465f4f49 	ldrbmi	r4, [pc], -r9, asr #30
 c00:	5f434e55 	svcpl	0x00434e55
 c04:	35544c41 	ldrbcc	r4, [r4, #-3137]	; 0xc41
 c08:	745f5f00 	ldrbvc	r5, [pc], #-3840	; c10 <_start-0x73f0>
 c0c:	73695f6d 	cmnvc	r9, #436	; 0x1b4
 c10:	00747364 	rsbseq	r7, r4, r4, ror #6
 c14:	636f6c5f 	cmnvs	pc, #24320	; 0x5f00
 c18:	69746c61 	ldmdbvs	r4!, {r0, r5, r6, sl, fp, sp, lr}^
 c1c:	625f656d 	subsvs	r6, pc, #457179136	; 0x1b400000
 c20:	5f006675 	svcpl	0x00006675
 c24:	736f6c63 	cmnvc	pc, #25344	; 0x6300
 c28:	725f0065 	subsvc	r0, pc, #101	; 0x65
 c2c:	5f003834 	svcpl	0x00003834
 c30:	6f74626d 	svcvs	0x0074626d
 c34:	735f6377 	cmpvc	pc, #-603979775	; 0xdc000001
 c38:	65746174 	ldrbvs	r6, [r4, #-372]!	; 0x174
 c3c:	35705f00 	ldrbcc	r5, [r0, #-3840]!	; 0xf00
 c40:	5f5f0073 	svcpl	0x005f0073
 c44:	6d5f6d74 	ldclvs	13, cr6, [pc, #-464]	; a7c <_start-0x7584>
 c48:	00796164 	rsbseq	r6, r9, r4, ror #2
 c4c:	6f697067 	svcvs	0x00697067
 c50:	7465735f 	strbtvc	r7, [r5], #-863	; 0x35f
 c54:	66666f5f 	uqsaxvs	r6, r6, pc	; <UNPREDICTABLE>
 c58:	6e616200 	cdpvs	2, 6, cr6, cr1, cr0, {0}
 c5c:	7067006b 	rsbvc	r0, r7, fp, rrx
 c60:	632e6f69 	teqvs	lr, #420	; 0x1a4
 c64:	69706700 	ldmdbvs	r0!, {r8, r9, sl, sp, lr}^
 c68:	65725f6f 	ldrbvs	r5, [r2, #-3951]!	; 0xf6f
 c6c:	67006461 	strvs	r6, [r0, -r1, ror #8]
 c70:	5f6f6970 	svcpl	0x006f6970
 c74:	5f746573 	svcpl	0x00746573
 c78:	7074756f 	rsbsvc	r7, r4, pc, ror #10
 c7c:	67007475 	smlsdxvs	r0, r5, r4, r7
 c80:	5f6f6970 	svcpl	0x006f6970
 c84:	74697277 	strbtvc	r7, [r9], #-631	; 0x277
 c88:	70670065 	rsbvc	r0, r7, r5, rrx
 c8c:	735f6f69 	cmpvc	pc, #420	; 0x1a4
 c90:	00307465 	eorseq	r7, r0, r5, ror #8
 c94:	6f697067 	svcvs	0x00697067
 c98:	76656c5f 			; <UNDEFINED> instruction: 0x76656c5f
 c9c:	70670030 	rsbvc	r0, r7, r0, lsr r0
 ca0:	735f6f69 	cmpvc	pc, #420	; 0x1a4
 ca4:	695f7465 	ldmdbvs	pc, {r0, r2, r5, r6, sl, ip, sp, lr}^	; <UNPREDICTABLE>
 ca8:	7475706e 	ldrbtvc	r7, [r5], #-110	; 0x6e
 cac:	69706700 	ldmdbvs	r0!, {r8, r9, sl, sp, lr}^
 cb0:	65735f6f 	ldrbvs	r5, [r3, #-3951]!	; 0xf6f
 cb4:	6e6f5f74 	mcrvs	15, 3, r5, cr15, cr4, {3}
 cb8:	69706700 	ldmdbvs	r0!, {r8, r9, sl, sp, lr}^
 cbc:	75665f6f 	strbvc	r5, [r6, #-3951]!	; 0xf6f
 cc0:	745f636e 	ldrbvc	r6, [pc], #-878	; cc8 <_start-0x7338>
 cc4:	69706700 	ldmdbvs	r0!, {r8, r9, sl, sp, lr}^
 cc8:	6c635f6f 	stclvs	15, cr5, [r3], #-444	; 0xfffffe44
 ccc:	6b003072 	blvs	ce9c <__bss_end__+0x24e4>
 cd0:	6c6c616d 	stfvse	f6, [ip], #-436	; 0xfffffe4c
 cd4:	632e636f 	teqvs	lr, #-1140850687	; 0xbc000001
 cd8:	616d6b00 	cmnvs	sp, r0, lsl #22
 cdc:	636f6c6c 	cmnvs	pc, #108, 24	; 0x6c00
 ce0:	696e695f 	stmdbvs	lr!, {r0, r1, r2, r3, r4, r6, r8, fp, sp, lr}^
 ce4:	6d6b0074 	stclvs	0, cr0, [fp, #-464]!	; 0xfffffe30
 ce8:	6f6c6c61 	svcvs	0x006c6c61
 cec:	6c615f63 	stclvs	15, cr5, [r1], #-396	; 0xfffffe74
 cf0:	656e6769 	strbvs	r6, [lr, #-1897]!	; 0x769
 cf4:	6f640064 	svcvs	0x00640064
 cf8:	656c6275 	strbvs	r6, [ip, #-629]!	; 0x275
 cfc:	72666b00 	rsbvc	r6, r6, #0, 22
 d00:	615f6565 	cmpvs	pc, r5, ror #10
 d04:	6b006c6c 	blvs	1bebc <__bss_end__+0x11504>
 d08:	65657266 	strbvs	r7, [r5, #-614]!	; 0x266
 d0c:	7466615f 	strbtvc	r6, [r6], #-351	; 0x15f
 d10:	6b007265 	blvs	1d6ac <__bss_end__+0x12cf4>
 d14:	6c6c616d 	stfvse	f6, [ip], #-436	; 0xfffffe4c
 d18:	685f636f 	ldmdavs	pc, {r0, r1, r2, r3, r5, r6, r8, r9, sp, lr}^	; <UNPREDICTABLE>
 d1c:	5f706165 	svcpl	0x00706165
 d20:	00727470 	rsbseq	r7, r2, r0, ror r4
 d24:	67696c61 	strbvs	r6, [r9, -r1, ror #24]!
 d28:	6e656d6e 	cdpvs	13, 6, cr6, cr5, cr14, {3}
 d2c:	5f5f0074 	svcpl	0x005f0074
 d30:	70616568 	rsbvc	r6, r1, r8, ror #10
 d34:	6174735f 	cmnvs	r4, pc, asr r3
 d38:	5f5f7472 	svcpl	0x005f7472
 d3c:	616d6b00 	cmnvs	sp, r0, lsl #22
 d40:	636f6c6c 	cmnvs	pc, #108, 24	; 0x6c00
 d44:	6165685f 	cmnvs	r5, pc, asr r8
 d48:	74735f70 	ldrbtvc	r5, [r3], #-3952	; 0xf70
 d4c:	00747261 	rsbseq	r7, r4, r1, ror #4
 d50:	6464615f 	strbtvs	r6, [r4], #-351	; 0x15f
 d54:	6d6b0072 	stclvs	0, cr0, [fp, #-456]!	; 0xfffffe38
 d58:	6f6c6c61 	svcvs	0x006c6c61
 d5c:	65685f63 	strbvs	r5, [r8, #-3939]!	; 0xf63
 d60:	655f7061 	ldrbvs	r7, [pc, #-97]	; d07 <_start-0x72f9>
 d64:	Address 0x0000000000000d64 is out of bounds.


Disassembly of section .debug_frame:

00000000 <.debug_frame>:
   0:	0000000c 	andeq	r0, r0, ip
   4:	ffffffff 			; <UNDEFINED> instruction: 0xffffffff
   8:	7c020001 	stcvc	0, cr0, [r2], {1}
   c:	000d0c0e 	andeq	r0, sp, lr, lsl #24
  10:	00000024 	andeq	r0, r0, r4, lsr #32
  14:	00000000 	andeq	r0, r0, r0
  18:	00008010 	andeq	r8, r0, r0, lsl r0
  1c:	00000074 	andeq	r0, r0, r4, ror r0
  20:	83280e42 	teqhi	r8, #1056	; 0x420
  24:	8509840a 	strhi	r8, [r9, #-1034]	; 0x40a
  28:	87078608 	strhi	r8, [r7, -r8, lsl #12]
  2c:	89058806 	stmdbhi	r5, {r1, r2, fp, pc}
  30:	8b038a04 	blhi	e2848 <__bss_end__+0xd7e90>
  34:	00018e02 	andeq	r8, r1, r2, lsl #28
  38:	00000014 	andeq	r0, r0, r4, lsl r0
  3c:	00000000 	andeq	r0, r0, r0
  40:	00008084 	andeq	r8, r0, r4, lsl #1
  44:	00000040 	andeq	r0, r0, r0, asr #32
  48:	83080e42 	movwhi	r0, #36418	; 0x8e42
  4c:	00018e02 	andeq	r8, r1, r2, lsl #28
  50:	0000000c 	andeq	r0, r0, ip
  54:	ffffffff 			; <UNDEFINED> instruction: 0xffffffff
  58:	7c020001 	stcvc	0, cr0, [r2], {1}
  5c:	000d0c0e 	andeq	r0, sp, lr, lsl #24
  60:	0000001c 	andeq	r0, r0, ip, lsl r0
  64:	00000050 	andeq	r0, r0, r0, asr r0
  68:	000080c4 	andeq	r8, r0, r4, asr #1
  6c:	000000f8 	strdeq	r0, [r0], -r8
  70:	83180e42 	tsthi	r8, #1056	; 0x420
  74:	85058406 	strhi	r8, [r5, #-1030]	; 0x406
  78:	87038604 	strhi	r8, [r3, -r4, lsl #12]
  7c:	00018e02 	andeq	r8, r1, r2, lsl #28
  80:	00000014 	andeq	r0, r0, r4, lsl r0
  84:	00000050 	andeq	r0, r0, r0, asr r0
  88:	000081bc 			; <UNDEFINED> instruction: 0x000081bc
  8c:	00000014 	andeq	r0, r0, r4, lsl r0
  90:	83080e42 	movwhi	r0, #36418	; 0x8e42
  94:	00018e02 	andeq	r8, r1, r2, lsl #28
  98:	0000001c 	andeq	r0, r0, ip, lsl r0
  9c:	00000050 	andeq	r0, r0, r0, asr r0
  a0:	000081d0 	ldrdeq	r8, [r0], -r0
  a4:	00000048 	andeq	r0, r0, r8, asr #32
  a8:	84180e42 	ldrhi	r0, [r8], #-3650	; 0xe42
  ac:	86058506 	strhi	r8, [r5], -r6, lsl #10
  b0:	88038704 	stmdahi	r3, {r2, r8, r9, sl, pc}
  b4:	00018e02 	andeq	r8, r1, r2, lsl #28
  b8:	00000014 	andeq	r0, r0, r4, lsl r0
  bc:	00000050 	andeq	r0, r0, r0, asr r0
  c0:	00008218 	andeq	r8, r0, r8, lsl r2
  c4:	00000040 	andeq	r0, r0, r0, asr #32
  c8:	84080e42 	strhi	r0, [r8], #-3650	; 0xe42
  cc:	00018e02 	andeq	r8, r1, r2, lsl #28
  d0:	00000014 	andeq	r0, r0, r4, lsl r0
  d4:	00000050 	andeq	r0, r0, r0, asr r0
  d8:	00008258 	andeq	r8, r0, r8, asr r2
  dc:	00000074 	andeq	r0, r0, r4, ror r0
  e0:	84080e42 	strhi	r0, [r8], #-3650	; 0xe42
  e4:	00018e02 	andeq	r8, r1, r2, lsl #28
  e8:	00000018 	andeq	r0, r0, r8, lsl r0
  ec:	00000050 	andeq	r0, r0, r0, asr r0
  f0:	000082cc 	andeq	r8, r0, ip, asr #5
  f4:	00000080 	andeq	r0, r0, r0, lsl #1
  f8:	83100e42 	tsthi	r0, #1056	; 0x420
  fc:	85038404 	strhi	r8, [r3, #-1028]	; 0x404
 100:	00018e02 	andeq	r8, r1, r2, lsl #28
 104:	0000001c 	andeq	r0, r0, ip, lsl r0
 108:	00000050 	andeq	r0, r0, r0, asr r0
 10c:	0000834c 	andeq	r8, r0, ip, asr #6
 110:	000000f0 	strdeq	r0, [r0], -r0	; <UNPREDICTABLE>
 114:	84180e42 	ldrhi	r0, [r8], #-3650	; 0xe42
 118:	86058506 	strhi	r8, [r5], -r6, lsl #10
 11c:	88038704 	stmdahi	r3, {r2, r8, r9, sl, pc}
 120:	00018e02 	andeq	r8, r1, r2, lsl #28
 124:	00000020 	andeq	r0, r0, r0, lsr #32
 128:	00000050 	andeq	r0, r0, r0, asr r0
 12c:	0000843c 	andeq	r8, r0, ip, lsr r4
 130:	0000022c 	andeq	r0, r0, ip, lsr #4
 134:	841c0e42 	ldrhi	r0, [ip], #-3650	; 0xe42
 138:	86068507 	strhi	r8, [r6], -r7, lsl #10
 13c:	88048705 	stmdahi	r4, {r0, r2, r8, r9, sl, pc}
 140:	8e028903 	cdphi	9, 0, cr8, cr2, cr3, {0}
 144:	280e4201 	stmdacs	lr, {r0, r9, lr}
 148:	00000014 	andeq	r0, r0, r4, lsl r0
 14c:	00000050 	andeq	r0, r0, r0, asr r0
 150:	00008668 	andeq	r8, r0, r8, ror #12
 154:	00000030 	andeq	r0, r0, r0, lsr r0
 158:	83080e42 	movwhi	r0, #36418	; 0x8e42
 15c:	00018e02 	andeq	r8, r1, r2, lsl #28
 160:	00000020 	andeq	r0, r0, r0, lsr #32
 164:	00000050 	andeq	r0, r0, r0, asr r0
 168:	00008698 	muleq	r0, r8, r6
 16c:	00000138 	andeq	r0, r0, r8, lsr r1
 170:	84200e42 	strthi	r0, [r0], #-3650	; 0xe42
 174:	86078508 	strhi	r8, [r7], -r8, lsl #10
 178:	88058706 	stmdahi	r5, {r1, r2, r8, r9, sl, pc}
 17c:	8a038904 	bhi	e2594 <__bss_end__+0xd7bdc>
 180:	00018e02 	andeq	r8, r1, r2, lsl #28
 184:	00000014 	andeq	r0, r0, r4, lsl r0
 188:	00000050 	andeq	r0, r0, r0, asr r0
 18c:	000087d0 	ldrdeq	r8, [r0], -r0
 190:	00000020 	andeq	r0, r0, r0, lsr #32
 194:	84080e42 	strhi	r0, [r8], #-3650	; 0xe42
 198:	00018e02 	andeq	r8, r1, r2, lsl #28
 19c:	00000014 	andeq	r0, r0, r4, lsl r0
 1a0:	00000050 	andeq	r0, r0, r0, asr r0
 1a4:	000087f0 	strdeq	r8, [r0], -r0
 1a8:	00000044 	andeq	r0, r0, r4, asr #32
 1ac:	84080e42 	strhi	r0, [r8], #-3650	; 0xe42
 1b0:	00018e02 	andeq	r8, r1, r2, lsl #28
 1b4:	0000000c 	andeq	r0, r0, ip
 1b8:	00000050 	andeq	r0, r0, r0, asr r0
 1bc:	00008834 	andeq	r8, r0, r4, lsr r8
 1c0:	0000001c 	andeq	r0, r0, ip, lsl r0
 1c4:	0000000c 	andeq	r0, r0, ip
 1c8:	ffffffff 			; <UNDEFINED> instruction: 0xffffffff
 1cc:	7c020001 	stcvc	0, cr0, [r2], {1}
 1d0:	000d0c0e 	andeq	r0, sp, lr, lsl #24
 1d4:	0000000c 	andeq	r0, r0, ip
 1d8:	000001c4 	andeq	r0, r0, r4, asr #3
 1dc:	00008850 	andeq	r8, r0, r0, asr r8
 1e0:	0000003c 	andeq	r0, r0, ip, lsr r0
 1e4:	00000014 	andeq	r0, r0, r4, lsl r0
 1e8:	000001c4 	andeq	r0, r0, r4, asr #3
 1ec:	0000888c 	andeq	r8, r0, ip, lsl #17
 1f0:	00000078 	andeq	r0, r0, r8, ror r0
 1f4:	84080e42 	strhi	r0, [r8], #-3650	; 0xe42
 1f8:	00018e02 	andeq	r8, r1, r2, lsl #28
 1fc:	00000024 	andeq	r0, r0, r4, lsr #32
 200:	000001c4 	andeq	r0, r0, r4, asr #3
 204:	00008904 	andeq	r8, r0, r4, lsl #18
 208:	00000134 	andeq	r0, r0, r4, lsr r1
 20c:	83280e42 	teqhi	r8, #1056	; 0x420
 210:	8509840a 	strhi	r8, [r9, #-1034]	; 0x40a
 214:	87078608 	strhi	r8, [r7, -r8, lsl #12]
 218:	89058806 	stmdbhi	r5, {r1, r2, fp, pc}
 21c:	8b038a04 	blhi	e2a34 <__bss_end__+0xd807c>
 220:	00018e02 	andeq	r8, r1, r2, lsl #28
 224:	00000018 	andeq	r0, r0, r8, lsl r0
 228:	000001c4 	andeq	r0, r0, r4, asr #3
 22c:	00008a38 	andeq	r8, r0, r8, lsr sl
 230:	000000f8 	strdeq	r0, [r0], -r8
 234:	84100e42 	ldrhi	r0, [r0], #-3650	; 0xe42
 238:	86038504 	strhi	r8, [r3], -r4, lsl #10
 23c:	00018e02 	andeq	r8, r1, r2, lsl #28
 240:	00000018 	andeq	r0, r0, r8, lsl r0
 244:	000001c4 	andeq	r0, r0, r4, asr #3
 248:	00008b30 	andeq	r8, r0, r0, lsr fp
 24c:	000000f4 	strdeq	r0, [r0], -r4
 250:	84080e42 	strhi	r0, [r8], #-3650	; 0xe42
 254:	42018e02 	andmi	r8, r1, #2, 28
 258:	0000580e 	andeq	r5, r0, lr, lsl #16
 25c:	00000024 	andeq	r0, r0, r4, lsr #32
 260:	000001c4 	andeq	r0, r0, r4, asr #3
 264:	00008c24 	andeq	r8, r0, r4, lsr #24
 268:	00000120 	andeq	r0, r0, r0, lsr #2
 26c:	84240e42 	strthi	r0, [r4], #-3650	; 0xe42
 270:	86088509 	strhi	r8, [r8], -r9, lsl #10
 274:	88068707 	stmdahi	r6, {r0, r1, r2, r8, r9, sl, pc}
 278:	8a048905 	bhi	122694 <__bss_end__+0x117cdc>
 27c:	8e028b03 	vmlahi.f64	d8, d2, d3
 280:	380e4201 	stmdacc	lr, {r0, r9, lr}
 284:	00000014 	andeq	r0, r0, r4, lsl r0
 288:	000001c4 	andeq	r0, r0, r4, asr #3
 28c:	00008d44 	andeq	r8, r0, r4, asr #26
 290:	00000018 	andeq	r0, r0, r8, lsl r0
 294:	84080e42 	strhi	r0, [r8], #-3650	; 0xe42
 298:	00018e02 	andeq	r8, r1, r2, lsl #28
 29c:	00000014 	andeq	r0, r0, r4, lsl r0
 2a0:	000001c4 	andeq	r0, r0, r4, asr #3
 2a4:	00008d5c 	andeq	r8, r0, ip, asr sp
 2a8:	000000a0 	andeq	r0, r0, r0, lsr #1
 2ac:	83080e42 	movwhi	r0, #36418	; 0x8e42
 2b0:	00018e02 	andeq	r8, r1, r2, lsl #28
 2b4:	00000014 	andeq	r0, r0, r4, lsl r0
 2b8:	000001c4 	andeq	r0, r0, r4, asr #3
 2bc:	00008dfc 	strdeq	r8, [r0], -ip
 2c0:	000000a4 	andeq	r0, r0, r4, lsr #1
 2c4:	84080e42 	strhi	r0, [r8], #-3650	; 0xe42
 2c8:	00018e02 	andeq	r8, r1, r2, lsl #28
 2cc:	00000014 	andeq	r0, r0, r4, lsl r0
 2d0:	000001c4 	andeq	r0, r0, r4, asr #3
 2d4:	00008ea0 	andeq	r8, r0, r0, lsr #29
 2d8:	0000002c 	andeq	r0, r0, ip, lsr #32
 2dc:	83080e42 	movwhi	r0, #36418	; 0x8e42
 2e0:	00018e02 	andeq	r8, r1, r2, lsl #28
 2e4:	00000014 	andeq	r0, r0, r4, lsl r0
 2e8:	000001c4 	andeq	r0, r0, r4, asr #3
 2ec:	00008ecc 	andeq	r8, r0, ip, asr #29
 2f0:	00000010 	andeq	r0, r0, r0, lsl r0
 2f4:	83080e42 	movwhi	r0, #36418	; 0x8e42
 2f8:	00018e02 	andeq	r8, r1, r2, lsl #28
 2fc:	0000000c 	andeq	r0, r0, ip
 300:	ffffffff 			; <UNDEFINED> instruction: 0xffffffff
 304:	7c020001 	stcvc	0, cr0, [r2], {1}
 308:	000d0c0e 	andeq	r0, sp, lr, lsl #24
 30c:	00000014 	andeq	r0, r0, r4, lsl r0
 310:	000002fc 	strdeq	r0, [r0], -ip
 314:	00008ee4 	andeq	r8, r0, r4, ror #29
 318:	000000f0 	strdeq	r0, [r0], -r0	; <UNPREDICTABLE>
 31c:	84040e42 	strhi	r0, [r4], #-3650	; 0xe42
 320:	00000001 	andeq	r0, r0, r1
 324:	0000000c 	andeq	r0, r0, ip
 328:	ffffffff 			; <UNDEFINED> instruction: 0xffffffff
 32c:	7c020001 	stcvc	0, cr0, [r2], {1}
 330:	000d0c0e 	andeq	r0, sp, lr, lsl #24
 334:	0000000c 	andeq	r0, r0, ip
 338:	00000324 	andeq	r0, r0, r4, lsr #6
 33c:	00008fd4 	ldrdeq	r8, [r0], -r4
 340:	00000020 	andeq	r0, r0, r0, lsr #32
 344:	0000000c 	andeq	r0, r0, ip
 348:	ffffffff 			; <UNDEFINED> instruction: 0xffffffff
 34c:	7c020001 	stcvc	0, cr0, [r2], {1}
 350:	000d0c0e 	andeq	r0, sp, lr, lsl #24
 354:	00000024 	andeq	r0, r0, r4, lsr #32
 358:	00000344 	andeq	r0, r0, r4, asr #6
 35c:	00008ff4 	strdeq	r8, [r0], -r4
 360:	00000058 	andeq	r0, r0, r8, asr r0
 364:	80100e42 	andshi	r0, r0, r2, asr #28
 368:	82038104 	andhi	r8, r3, #4, 2
 36c:	42018302 	andmi	r8, r1, #134217728	; 0x8000000
 370:	07841c0e 	streq	r1, [r4, lr, lsl #24]
 374:	058e0685 	streq	r0, [lr, #1669]	; 0x685
 378:	00280e42 	eoreq	r0, r8, r2, asr #28
 37c:	0000000c 	andeq	r0, r0, ip
 380:	ffffffff 			; <UNDEFINED> instruction: 0xffffffff
 384:	7c020001 	stcvc	0, cr0, [r2], {1}
 388:	000d0c0e 	andeq	r0, sp, lr, lsl #24
 38c:	00000014 	andeq	r0, r0, r4, lsl r0
 390:	0000037c 	andeq	r0, r0, ip, ror r3
 394:	0000904c 	andeq	r9, r0, ip, asr #32
 398:	00000014 	andeq	r0, r0, r4, lsl r0
 39c:	84080e42 	strhi	r0, [r8], #-3650	; 0xe42
 3a0:	00018e02 	andeq	r8, r1, r2, lsl #28
 3a4:	0000000c 	andeq	r0, r0, ip
 3a8:	0000037c 	andeq	r0, r0, ip, ror r3
 3ac:	00009060 	andeq	r9, r0, r0, rrx
 3b0:	00000018 	andeq	r0, r0, r8, lsl r0
 3b4:	0000000c 	andeq	r0, r0, ip
 3b8:	0000037c 	andeq	r0, r0, ip, ror r3
 3bc:	00009078 	andeq	r9, r0, r8, ror r0
 3c0:	00000010 	andeq	r0, r0, r0, lsl r0
 3c4:	0000000c 	andeq	r0, r0, ip
 3c8:	ffffffff 			; <UNDEFINED> instruction: 0xffffffff
 3cc:	7c020001 	stcvc	0, cr0, [r2], {1}
 3d0:	000d0c0e 	andeq	r0, sp, lr, lsl #24
 3d4:	00000018 	andeq	r0, r0, r8, lsl r0
 3d8:	000003c4 	andeq	r0, r0, r4, asr #7
 3dc:	00009088 	andeq	r9, r0, r8, lsl #1
 3e0:	00000034 	andeq	r0, r0, r4, lsr r0
 3e4:	83100e42 	tsthi	r0, #1056	; 0x420
 3e8:	85038404 	strhi	r8, [r3, #-1028]	; 0x404
 3ec:	00018e02 	andeq	r8, r1, r2, lsl #28
 3f0:	0000000c 	andeq	r0, r0, ip
 3f4:	ffffffff 			; <UNDEFINED> instruction: 0xffffffff
 3f8:	7c020001 	stcvc	0, cr0, [r2], {1}
 3fc:	000d0c0e 	andeq	r0, sp, lr, lsl #24
 400:	0000000c 	andeq	r0, r0, ip
 404:	000003f0 	strdeq	r0, [r0], -r0	; <UNPREDICTABLE>
 408:	000090bc 	strheq	r9, [r0], -ip
 40c:	00000014 	andeq	r0, r0, r4, lsl r0
 410:	0000000c 	andeq	r0, r0, ip
 414:	000003f0 	strdeq	r0, [r0], -r0	; <UNPREDICTABLE>
 418:	000090d0 	ldrdeq	r9, [r0], -r0
 41c:	0000002c 	andeq	r0, r0, ip, lsr #32
 420:	0000000c 	andeq	r0, r0, ip
 424:	000003f0 	strdeq	r0, [r0], -r0	; <UNPREDICTABLE>
 428:	000090fc 	strdeq	r9, [r0], -ip
 42c:	00000040 	andeq	r0, r0, r0, asr #32
 430:	00000020 	andeq	r0, r0, r0, lsr #32
 434:	000003f0 	strdeq	r0, [r0], -r0	; <UNPREDICTABLE>
 438:	0000913c 	andeq	r9, r0, ip, lsr r1
 43c:	000001b0 			; <UNDEFINED> instruction: 0x000001b0
 440:	84180e42 	ldrhi	r0, [r8], #-3650	; 0xe42
 444:	86058506 	strhi	r8, [r5], -r6, lsl #10
 448:	88038704 	stmdahi	r3, {r2, r8, r9, sl, pc}
 44c:	42018e02 	andmi	r8, r1, #2, 28
 450:	0000580e 	andeq	r5, r0, lr, lsl #16
 454:	00000014 	andeq	r0, r0, r4, lsl r0
 458:	000003f0 	strdeq	r0, [r0], -r0	; <UNPREDICTABLE>
 45c:	000092ec 	andeq	r9, r0, ip, ror #5
 460:	00000054 	andeq	r0, r0, r4, asr r0
 464:	83080e42 	movwhi	r0, #36418	; 0x8e42
 468:	00018e02 	andeq	r8, r1, r2, lsl #28
 46c:	00000028 	andeq	r0, r0, r8, lsr #32
 470:	000003f0 	strdeq	r0, [r0], -r0	; <UNPREDICTABLE>
 474:	00009340 	andeq	r9, r0, r0, asr #6
 478:	00000288 	andeq	r0, r0, r8, lsl #5
 47c:	84240e42 	strthi	r0, [r4], #-3650	; 0xe42
 480:	86088509 	strhi	r8, [r8], -r9, lsl #10
 484:	88068707 	stmdahi	r6, {r0, r1, r2, r8, r9, sl, pc}
 488:	8a048905 	bhi	1228a4 <__bss_end__+0x117eec>
 48c:	8e028b03 	vmlahi.f64	d8, d2, d3
 490:	b00e4201 	andlt	r4, lr, r1, lsl #4
 494:	00000001 	andeq	r0, r0, r1
 498:	0000000c 	andeq	r0, r0, ip
 49c:	ffffffff 			; <UNDEFINED> instruction: 0xffffffff
 4a0:	7c020001 	stcvc	0, cr0, [r2], {1}
 4a4:	000d0c0e 	andeq	r0, sp, lr, lsl #24
 4a8:	00000014 	andeq	r0, r0, r4, lsl r0
 4ac:	00000498 	muleq	r0, r8, r4
 4b0:	000095c8 	andeq	r9, r0, r8, asr #11
 4b4:	00000028 	andeq	r0, r0, r8, lsr #32
 4b8:	83080e42 	movwhi	r0, #36418	; 0x8e42
 4bc:	00018e02 	andeq	r8, r1, r2, lsl #28
 4c0:	0000000c 	andeq	r0, r0, ip
 4c4:	ffffffff 			; <UNDEFINED> instruction: 0xffffffff
 4c8:	7c020001 	stcvc	0, cr0, [r2], {1}
 4cc:	000d0c0e 	andeq	r0, sp, lr, lsl #24
 4d0:	00000014 	andeq	r0, r0, r4, lsl r0
 4d4:	000004c0 	andeq	r0, r0, r0, asr #9
 4d8:	000095f0 	strdeq	r9, [r0], -r0
 4dc:	00000034 	andeq	r0, r0, r4, lsr r0
 4e0:	83080e42 	movwhi	r0, #36418	; 0x8e42
 4e4:	00018e02 	andeq	r8, r1, r2, lsl #28
 4e8:	0000000c 	andeq	r0, r0, ip
 4ec:	ffffffff 			; <UNDEFINED> instruction: 0xffffffff
 4f0:	7c020001 	stcvc	0, cr0, [r2], {1}
 4f4:	000d0c0e 	andeq	r0, sp, lr, lsl #24
 4f8:	0000000c 	andeq	r0, r0, ip
 4fc:	000004e8 	andeq	r0, r0, r8, ror #9
 500:	00009624 	andeq	r9, r0, r4, lsr #12
 504:	00000018 	andeq	r0, r0, r8, lsl r0
 508:	0000000c 	andeq	r0, r0, ip
 50c:	000004e8 	andeq	r0, r0, r8, ror #9
 510:	0000963c 	andeq	r9, r0, ip, lsr r6
 514:	00000014 	andeq	r0, r0, r4, lsl r0
 518:	00000014 	andeq	r0, r0, r4, lsl r0
 51c:	000004e8 	andeq	r0, r0, r8, ror #9
 520:	00009650 	andeq	r9, r0, r0, asr r6
 524:	00000048 	andeq	r0, r0, r8, asr #32
 528:	83080e42 	movwhi	r0, #36418	; 0x8e42
 52c:	00018e02 	andeq	r8, r1, r2, lsl #28
 530:	0000000c 	andeq	r0, r0, ip
 534:	ffffffff 			; <UNDEFINED> instruction: 0xffffffff
 538:	7c020001 	stcvc	0, cr0, [r2], {1}
 53c:	000d0c0e 	andeq	r0, sp, lr, lsl #24
 540:	0000000c 	andeq	r0, r0, ip
 544:	00000530 	andeq	r0, r0, r0, lsr r5
 548:	00009698 	muleq	r0, r8, r6
 54c:	0000001c 	andeq	r0, r0, ip, lsl r0
 550:	00000014 	andeq	r0, r0, r4, lsl r0
 554:	00000530 	andeq	r0, r0, r0, lsr r5
 558:	000096b4 			; <UNDEFINED> instruction: 0x000096b4
 55c:	00000014 	andeq	r0, r0, r4, lsl r0
 560:	83080e42 	movwhi	r0, #36418	; 0x8e42
 564:	00018e02 	andeq	r8, r1, r2, lsl #28
 568:	00000014 	andeq	r0, r0, r4, lsl r0
 56c:	00000530 	andeq	r0, r0, r0, lsr r5
 570:	000096c8 	andeq	r9, r0, r8, asr #13
 574:	0000000c 	andeq	r0, r0, ip
 578:	83080e42 	movwhi	r0, #36418	; 0x8e42
 57c:	00018e02 	andeq	r8, r1, r2, lsl #28
 580:	00000018 	andeq	r0, r0, r8, lsl r0
 584:	00000530 	andeq	r0, r0, r0, lsr r5
 588:	000096d4 	ldrdeq	r9, [r0], -r4
 58c:	00000024 	andeq	r0, r0, r4, lsr #32
 590:	83100e42 	tsthi	r0, #1056	; 0x420
 594:	85038404 	strhi	r8, [r3, #-1028]	; 0x404
 598:	00018e02 	andeq	r8, r1, r2, lsl #28
 59c:	00000014 	andeq	r0, r0, r4, lsl r0
 5a0:	00000530 	andeq	r0, r0, r0, lsr r5
 5a4:	000096f8 	strdeq	r9, [r0], -r8
 5a8:	00000014 	andeq	r0, r0, r4, lsl r0
 5ac:	83080e42 	movwhi	r0, #36418	; 0x8e42
 5b0:	00018e02 	andeq	r8, r1, r2, lsl #28
 5b4:	00000014 	andeq	r0, r0, r4, lsl r0
 5b8:	00000530 	andeq	r0, r0, r0, lsr r5
 5bc:	0000970c 	andeq	r9, r0, ip, lsl #14
 5c0:	00000014 	andeq	r0, r0, r4, lsl r0
 5c4:	83080e42 	movwhi	r0, #36418	; 0x8e42
 5c8:	00018e02 	andeq	r8, r1, r2, lsl #28
 5cc:	0000000c 	andeq	r0, r0, ip
 5d0:	ffffffff 			; <UNDEFINED> instruction: 0xffffffff
 5d4:	7c020001 	stcvc	0, cr0, [r2], {1}
 5d8:	000d0c0e 	andeq	r0, sp, lr, lsl #24
 5dc:	00000018 	andeq	r0, r0, r8, lsl r0
 5e0:	000005cc 	andeq	r0, r0, ip, asr #11
 5e4:	0000976c 	andeq	r9, r0, ip, ror #14
 5e8:	00000020 	andeq	r0, r0, r0, lsr #32
 5ec:	84100e42 	ldrhi	r0, [r0], #-3650	; 0xe42
 5f0:	86038504 	strhi	r8, [r3], -r4, lsl #10
 5f4:	00018e02 	andeq	r8, r1, r2, lsl #28
 5f8:	00000014 	andeq	r0, r0, r4, lsl r0
 5fc:	000005cc 	andeq	r0, r0, ip, asr #11
 600:	0000978c 	andeq	r9, r0, ip, lsl #15
 604:	000000b0 	strheq	r0, [r0], -r0	; <UNPREDICTABLE>
 608:	84080e42 	strhi	r0, [r8], #-3650	; 0xe42
 60c:	00018e02 	andeq	r8, r1, r2, lsl #28
 610:	00000014 	andeq	r0, r0, r4, lsl r0
 614:	000005cc 	andeq	r0, r0, ip, asr #11
 618:	0000983c 	andeq	r9, r0, ip, lsr r8
 61c:	00000018 	andeq	r0, r0, r8, lsl r0
 620:	84080e42 	strhi	r0, [r8], #-3650	; 0xe42
 624:	00018e02 	andeq	r8, r1, r2, lsl #28
 628:	00000014 	andeq	r0, r0, r4, lsl r0
 62c:	000005cc 	andeq	r0, r0, ip, asr #11
 630:	00009854 	andeq	r9, r0, r4, asr r8
 634:	00000020 	andeq	r0, r0, r0, lsr #32
 638:	84080e42 	strhi	r0, [r8], #-3650	; 0xe42
 63c:	00018e02 	andeq	r8, r1, r2, lsl #28
 640:	00000014 	andeq	r0, r0, r4, lsl r0
 644:	000005cc 	andeq	r0, r0, ip, asr #11
 648:	00009874 	andeq	r9, r0, r4, ror r8
 64c:	00000030 	andeq	r0, r0, r0, lsr r0
 650:	84080e42 	strhi	r0, [r8], #-3650	; 0xe42
 654:	00018e02 	andeq	r8, r1, r2, lsl #28
 658:	00000014 	andeq	r0, r0, r4, lsl r0
 65c:	000005cc 	andeq	r0, r0, ip, asr #11
 660:	000098a4 	andeq	r9, r0, r4, lsr #17
 664:	00000030 	andeq	r0, r0, r0, lsr r0
 668:	84080e42 	strhi	r0, [r8], #-3650	; 0xe42
 66c:	00018e02 	andeq	r8, r1, r2, lsl #28
 670:	00000014 	andeq	r0, r0, r4, lsl r0
 674:	000005cc 	andeq	r0, r0, ip, asr #11
 678:	000098d4 	ldrdeq	r9, [r0], -r4
 67c:	00000010 	andeq	r0, r0, r0, lsl r0
 680:	84080e42 	strhi	r0, [r8], #-3650	; 0xe42
 684:	00018e02 	andeq	r8, r1, r2, lsl #28
 688:	0000000c 	andeq	r0, r0, ip
 68c:	ffffffff 			; <UNDEFINED> instruction: 0xffffffff
 690:	7c020001 	stcvc	0, cr0, [r2], {1}
 694:	000d0c0e 	andeq	r0, sp, lr, lsl #24
 698:	00000018 	andeq	r0, r0, r8, lsl r0
 69c:	00000688 	andeq	r0, r0, r8, lsl #13
 6a0:	000098e4 	andeq	r9, r0, r4, ror #17
 6a4:	00000068 	andeq	r0, r0, r8, rrx
 6a8:	84100e4a 	ldrhi	r0, [r0], #-3658	; 0xe4a
 6ac:	86038504 	strhi	r8, [r3], -r4, lsl #10
 6b0:	00018e02 	andeq	r8, r1, r2, lsl #28
 6b4:	00000014 	andeq	r0, r0, r4, lsl r0
 6b8:	00000688 	andeq	r0, r0, r8, lsl #13
 6bc:	0000994c 	andeq	r9, r0, ip, asr #18
 6c0:	00000010 	andeq	r0, r0, r0, lsl r0
 6c4:	84080e42 	strhi	r0, [r8], #-3650	; 0xe42
 6c8:	00018e02 	andeq	r8, r1, r2, lsl #28
 6cc:	00000014 	andeq	r0, r0, r4, lsl r0
 6d0:	00000688 	andeq	r0, r0, r8, lsl #13
 6d4:	0000995c 	andeq	r9, r0, ip, asr r9
 6d8:	00000024 	andeq	r0, r0, r4, lsr #32
 6dc:	84080e46 	strhi	r0, [r8], #-3654	; 0xe46
 6e0:	00018e02 	andeq	r8, r1, r2, lsl #28
 6e4:	00000014 	andeq	r0, r0, r4, lsl r0
 6e8:	00000688 	andeq	r0, r0, r8, lsl #13
 6ec:	00009980 	andeq	r9, r0, r0, lsl #19
 6f0:	00000024 	andeq	r0, r0, r4, lsr #32
 6f4:	84080e46 	strhi	r0, [r8], #-3654	; 0xe46
 6f8:	00018e02 	andeq	r8, r1, r2, lsl #28
 6fc:	00000014 	andeq	r0, r0, r4, lsl r0
 700:	00000688 	andeq	r0, r0, r8, lsl #13
 704:	000099a4 	andeq	r9, r0, r4, lsr #19
 708:	00000010 	andeq	r0, r0, r0, lsl r0
 70c:	84080e42 	strhi	r0, [r8], #-3650	; 0xe42
 710:	00018e02 	andeq	r8, r1, r2, lsl #28
 714:	00000014 	andeq	r0, r0, r4, lsl r0
 718:	00000688 	andeq	r0, r0, r8, lsl #13
 71c:	000099b4 			; <UNDEFINED> instruction: 0x000099b4
 720:	0000001c 	andeq	r0, r0, ip, lsl r0
 724:	84080e42 	strhi	r0, [r8], #-3650	; 0xe42
 728:	00018e02 	andeq	r8, r1, r2, lsl #28
 72c:	00000018 	andeq	r0, r0, r8, lsl r0
 730:	00000688 	andeq	r0, r0, r8, lsl #13
 734:	000099d0 	ldrdeq	r9, [r0], -r0
 738:	00000034 	andeq	r0, r0, r4, lsr r0
 73c:	84080e46 	strhi	r0, [r8], #-3654	; 0xe46
 740:	4e018e02 	cdpmi	14, 0, cr8, cr1, cr2, {0}
 744:	cec4000e 	cdpgt	0, 12, cr0, cr4, cr14, {0}
 748:	0000000c 	andeq	r0, r0, ip
 74c:	ffffffff 			; <UNDEFINED> instruction: 0xffffffff
 750:	7c020001 	stcvc	0, cr0, [r2], {1}
 754:	000d0c0e 	andeq	r0, sp, lr, lsl #24
 758:	0000000c 	andeq	r0, r0, ip
 75c:	00000748 	andeq	r0, r0, r8, asr #14
 760:	00009a04 	andeq	r9, r0, r4, lsl #20
 764:	00000010 	andeq	r0, r0, r0, lsl r0
 768:	0000000c 	andeq	r0, r0, ip
 76c:	00000748 	andeq	r0, r0, r8, asr #14
 770:	00009a14 	andeq	r9, r0, r4, lsl sl
 774:	0000000c 	andeq	r0, r0, ip
 778:	00000014 	andeq	r0, r0, r4, lsl r0
 77c:	00000748 	andeq	r0, r0, r8, asr #14
 780:	00009a20 	andeq	r9, r0, r0, lsr #20
 784:	00000050 	andeq	r0, r0, r0, asr r0
 788:	84080e52 	strhi	r0, [r8], #-3666	; 0xe52
 78c:	00018e02 	andeq	r8, r1, r2, lsl #28
 790:	00000014 	andeq	r0, r0, r4, lsl r0
 794:	00000748 	andeq	r0, r0, r8, asr #14
 798:	00009a70 	andeq	r9, r0, r0, ror sl
 79c:	00000064 	andeq	r0, r0, r4, rrx
 7a0:	84080e42 	strhi	r0, [r8], #-3650	; 0xe42
 7a4:	00018e02 	andeq	r8, r1, r2, lsl #28
 7a8:	0000000c 	andeq	r0, r0, ip
 7ac:	00000748 	andeq	r0, r0, r8, asr #14
 7b0:	00009ad4 	ldrdeq	r9, [r0], -r4
 7b4:	00000004 	andeq	r0, r0, r4
 7b8:	00000014 	andeq	r0, r0, r4, lsl r0
 7bc:	00000748 	andeq	r0, r0, r8, asr #14
 7c0:	00009ad8 	ldrdeq	r9, [r0], -r8
 7c4:	0000000c 	andeq	r0, r0, ip
 7c8:	84080e42 	strhi	r0, [r8], #-3650	; 0xe42
 7cc:	00018e02 	andeq	r8, r1, r2, lsl #28
 7d0:	00000014 	andeq	r0, r0, r4, lsl r0
 7d4:	00000748 	andeq	r0, r0, r8, asr #14
 7d8:	00009ae4 	andeq	r9, r0, r4, ror #21
 7dc:	0000008c 	andeq	r0, r0, ip, lsl #1
 7e0:	84080e42 	strhi	r0, [r8], #-3650	; 0xe42
 7e4:	00018e02 	andeq	r8, r1, r2, lsl #28
 7e8:	0000000c 	andeq	r0, r0, ip
 7ec:	00000748 	andeq	r0, r0, r8, asr #14
 7f0:	00009b70 	andeq	r9, r0, r0, ror fp
 7f4:	00000004 	andeq	r0, r0, r4
 7f8:	0000000c 	andeq	r0, r0, ip
 7fc:	00000748 	andeq	r0, r0, r8, asr #14
 800:	00009b74 	andeq	r9, r0, r4, ror fp
 804:	00000014 	andeq	r0, r0, r4, lsl r0
 808:	0000000c 	andeq	r0, r0, ip
 80c:	00000748 	andeq	r0, r0, r8, asr #14
 810:	00009b88 	andeq	r9, r0, r8, lsl #23
 814:	00000010 	andeq	r0, r0, r0, lsl r0
